; Listing generated by Microsoft (R) Optimizing Compiler Version 16.00.40219.01 

	TITLE	D:\mozilla\intl\icu\source\common\errorcode.cpp
	.686P
	.XMM
	include listing.inc
	.model	flat

INCLUDELIB MSVCRTD
INCLUDELIB OLDNAMES

PUBLIC	??2@YAPAXI@Z					; operator new
EXTRN	__RTC_Shutdown:PROC
EXTRN	__RTC_InitBase:PROC
;	COMDAT rtc$TMZ
; File d:\mozilla\intl\icu\source\common\unicode\utypes.h
rtc$TMZ	SEGMENT
__RTC_Shutdown.rtc$TMZ DD FLAT:__RTC_Shutdown
rtc$TMZ	ENDS
;	COMDAT rtc$IMZ
rtc$IMZ	SEGMENT
__RTC_InitBase.rtc$IMZ DD FLAT:__RTC_InitBase
; Function compile flags: /Odtp /RTCsu /ZI
rtc$IMZ	ENDS
;	COMDAT ??2@YAPAXI@Z
_TEXT	SEGMENT
_q$ = -8						; size = 4
___formal$ = 8						; size = 4
??2@YAPAXI@Z PROC					; operator new, COMDAT
; Line 411
	push	ebp
	mov	ebp, esp
	sub	esp, 204				; 000000ccH
	push	ebx
	push	esi
	push	edi
	lea	edi, DWORD PTR [ebp-204]
	mov	ecx, 51					; 00000033H
	mov	eax, -858993460				; ccccccccH
	rep stosd
; Line 412
	mov	DWORD PTR _q$[ebp], 0
; Line 413
	mov	eax, DWORD PTR _q$[ebp]
	mov	BYTE PTR [eax], 5
; Line 414
	mov	eax, DWORD PTR _q$[ebp]
; Line 415
	pop	edi
	pop	esi
	pop	ebx
	mov	esp, ebp
	pop	ebp
	ret	0
??2@YAPAXI@Z ENDP					; operator new
_TEXT	ENDS
PUBLIC	??3@YAXPAX@Z					; operator delete
; Function compile flags: /Odtp /RTCsu /ZI
;	COMDAT ??3@YAXPAX@Z
_TEXT	SEGMENT
_q$ = -8						; size = 4
___formal$ = 8						; size = 4
??3@YAXPAX@Z PROC					; operator delete, COMDAT
; Line 439
	push	ebp
	mov	ebp, esp
	sub	esp, 204				; 000000ccH
	push	ebx
	push	esi
	push	edi
	lea	edi, DWORD PTR [ebp-204]
	mov	ecx, 51					; 00000033H
	mov	eax, -858993460				; ccccccccH
	rep stosd
; Line 440
	mov	DWORD PTR _q$[ebp], 0
; Line 441
	mov	eax, DWORD PTR _q$[ebp]
	mov	BYTE PTR [eax], 5
; Line 442
	pop	edi
	pop	esi
	pop	ebx
	mov	esp, ebp
	pop	ebp
	ret	0
??3@YAXPAX@Z ENDP					; operator delete
_TEXT	ENDS
PUBLIC	??2UMemory@icu_56@@SAPAXIPAX@Z			; icu_56::UMemory::operator new
; Function compile flags: /Odtp /RTCsu /ZI
;	COMDAT ??2UMemory@icu_56@@SAPAXIPAX@Z
_TEXT	SEGMENT
___formal$ = 8						; size = 4
_ptr$ = 12						; size = 4
??2UMemory@icu_56@@SAPAXIPAX@Z PROC			; icu_56::UMemory::operator new, COMDAT
; File d:\mozilla\intl\icu\source\common\unicode\uobject.h
; Line 161
	push	ebp
	mov	ebp, esp
	sub	esp, 192				; 000000c0H
	push	ebx
	push	esi
	push	edi
	lea	edi, DWORD PTR [ebp-192]
	mov	ecx, 48					; 00000030H
	mov	eax, -858993460				; ccccccccH
	rep stosd
	mov	eax, DWORD PTR _ptr$[ebp]
	pop	edi
	pop	esi
	pop	ebx
	mov	esp, ebp
	pop	ebp
	ret	0
??2UMemory@icu_56@@SAPAXIPAX@Z ENDP			; icu_56::UMemory::operator new
_TEXT	ENDS
PUBLIC	??3UMemory@icu_56@@SAXPAX0@Z			; icu_56::UMemory::operator delete
; Function compile flags: /Odtp /RTCsu /ZI
;	COMDAT ??3UMemory@icu_56@@SAXPAX0@Z
_TEXT	SEGMENT
___formal$ = 8						; size = 4
___formal$ = 12						; size = 4
??3UMemory@icu_56@@SAXPAX0@Z PROC			; icu_56::UMemory::operator delete, COMDAT
; Line 168
	push	ebp
	mov	ebp, esp
	sub	esp, 192				; 000000c0H
	push	ebx
	push	esi
	push	edi
	lea	edi, DWORD PTR [ebp-192]
	mov	ecx, 48					; 00000030H
	mov	eax, -858993460				; ccccccccH
	rep stosd
	pop	edi
	pop	esi
	pop	ebx
	mov	esp, ebp
	pop	ebp
	ret	0
??3UMemory@icu_56@@SAXPAX0@Z ENDP			; icu_56::UMemory::operator delete
_TEXT	ENDS
PUBLIC	??4UMemory@icu_56@@QAEAAV01@ABV01@@Z		; icu_56::UMemory::operator=
; Function compile flags: /Odtp /RTCsu /ZI
;	COMDAT ??4UMemory@icu_56@@QAEAAV01@ABV01@@Z
_TEXT	SEGMENT
_this$ = -8						; size = 4
___that$ = 8						; size = 4
??4UMemory@icu_56@@QAEAAV01@ABV01@@Z PROC		; icu_56::UMemory::operator=, COMDAT
; _this$ = ecx
	push	ebp
	mov	ebp, esp
	sub	esp, 204				; 000000ccH
	push	ebx
	push	esi
	push	edi
	push	ecx
	lea	edi, DWORD PTR [ebp-204]
	mov	ecx, 51					; 00000033H
	mov	eax, -858993460				; ccccccccH
	rep stosd
	pop	ecx
	mov	DWORD PTR _this$[ebp], ecx
	mov	eax, DWORD PTR _this$[ebp]
	pop	edi
	pop	esi
	pop	ebx
	mov	esp, ebp
	pop	ebp
	ret	4
??4UMemory@icu_56@@QAEAAV01@ABV01@@Z ENDP		; icu_56::UMemory::operator=
_TEXT	ENDS
PUBLIC	??_7UObject@icu_56@@6B@				; icu_56::UObject::`vftable'
PUBLIC	??0UObject@icu_56@@QAE@XZ			; icu_56::UObject::UObject
PUBLIC	??_R4UObject@icu_56@@6B@			; icu_56::UObject::`RTTI Complete Object Locator'
PUBLIC	??_R0?AVUObject@icu_56@@@8			; icu_56::UObject `RTTI Type Descriptor'
PUBLIC	??_R3UObject@icu_56@@8				; icu_56::UObject::`RTTI Class Hierarchy Descriptor'
PUBLIC	??_R2UObject@icu_56@@8				; icu_56::UObject::`RTTI Base Class Array'
PUBLIC	??_R1A@?0A@EA@UObject@icu_56@@8			; icu_56::UObject::`RTTI Base Class Descriptor at (0,-1,0,64)'
PUBLIC	??_R13?0A@EA@UMemory@icu_56@@8			; icu_56::UMemory::`RTTI Base Class Descriptor at (4,-1,0,64)'
PUBLIC	??_R0?AVUMemory@icu_56@@@8			; icu_56::UMemory `RTTI Type Descriptor'
PUBLIC	??_R3UMemory@icu_56@@8				; icu_56::UMemory::`RTTI Class Hierarchy Descriptor'
PUBLIC	??_R2UMemory@icu_56@@8				; icu_56::UMemory::`RTTI Base Class Array'
PUBLIC	??_R1A@?0A@EA@UMemory@icu_56@@8			; icu_56::UMemory::`RTTI Base Class Descriptor at (0,-1,0,64)'
PUBLIC	??_EUObject@icu_56@@UAEPAXI@Z			; icu_56::UObject::`vector deleting destructor'
EXTRN	??_7type_info@@6B@:QWORD			; type_info::`vftable'
EXTRN	?getDynamicClassID@UObject@icu_56@@UBEPAXXZ:PROC ; icu_56::UObject::getDynamicClassID
;	COMDAT ??_R1A@?0A@EA@UMemory@icu_56@@8
rdata$r	SEGMENT
??_R1A@?0A@EA@UMemory@icu_56@@8 DD FLAT:??_R0?AVUMemory@icu_56@@@8 ; icu_56::UMemory::`RTTI Base Class Descriptor at (0,-1,0,64)'
	DD	00H
	DD	00H
	DD	0ffffffffH
	DD	00H
	DD	040H
	DD	FLAT:??_R3UMemory@icu_56@@8
rdata$r	ENDS
;	COMDAT ??_R2UMemory@icu_56@@8
rdata$r	SEGMENT
??_R2UMemory@icu_56@@8 DD FLAT:??_R1A@?0A@EA@UMemory@icu_56@@8 ; icu_56::UMemory::`RTTI Base Class Array'
rdata$r	ENDS
;	COMDAT ??_R3UMemory@icu_56@@8
rdata$r	SEGMENT
??_R3UMemory@icu_56@@8 DD 00H				; icu_56::UMemory::`RTTI Class Hierarchy Descriptor'
	DD	00H
	DD	01H
	DD	FLAT:??_R2UMemory@icu_56@@8
rdata$r	ENDS
;	COMDAT ??_R0?AVUMemory@icu_56@@@8
_DATA	SEGMENT
??_R0?AVUMemory@icu_56@@@8 DD FLAT:??_7type_info@@6B@	; icu_56::UMemory `RTTI Type Descriptor'
	DD	00H
	DB	'.?AVUMemory@icu_56@@', 00H
_DATA	ENDS
;	COMDAT ??_R13?0A@EA@UMemory@icu_56@@8
rdata$r	SEGMENT
??_R13?0A@EA@UMemory@icu_56@@8 DD FLAT:??_R0?AVUMemory@icu_56@@@8 ; icu_56::UMemory::`RTTI Base Class Descriptor at (4,-1,0,64)'
	DD	00H
	DD	04H
	DD	0ffffffffH
	DD	00H
	DD	040H
	DD	FLAT:??_R3UMemory@icu_56@@8
rdata$r	ENDS
;	COMDAT ??_R1A@?0A@EA@UObject@icu_56@@8
rdata$r	SEGMENT
??_R1A@?0A@EA@UObject@icu_56@@8 DD FLAT:??_R0?AVUObject@icu_56@@@8 ; icu_56::UObject::`RTTI Base Class Descriptor at (0,-1,0,64)'
	DD	01H
	DD	00H
	DD	0ffffffffH
	DD	00H
	DD	040H
	DD	FLAT:??_R3UObject@icu_56@@8
rdata$r	ENDS
;	COMDAT ??_R2UObject@icu_56@@8
rdata$r	SEGMENT
??_R2UObject@icu_56@@8 DD FLAT:??_R1A@?0A@EA@UObject@icu_56@@8 ; icu_56::UObject::`RTTI Base Class Array'
	DD	FLAT:??_R13?0A@EA@UMemory@icu_56@@8
rdata$r	ENDS
;	COMDAT ??_R3UObject@icu_56@@8
rdata$r	SEGMENT
??_R3UObject@icu_56@@8 DD 00H				; icu_56::UObject::`RTTI Class Hierarchy Descriptor'
	DD	00H
	DD	02H
	DD	FLAT:??_R2UObject@icu_56@@8
rdata$r	ENDS
;	COMDAT ??_R0?AVUObject@icu_56@@@8
_DATA	SEGMENT
??_R0?AVUObject@icu_56@@@8 DD FLAT:??_7type_info@@6B@	; icu_56::UObject `RTTI Type Descriptor'
	DD	00H
	DB	'.?AVUObject@icu_56@@', 00H
_DATA	ENDS
;	COMDAT ??_R4UObject@icu_56@@6B@
rdata$r	SEGMENT
??_R4UObject@icu_56@@6B@ DD 00H				; icu_56::UObject::`RTTI Complete Object Locator'
	DD	00H
	DD	00H
	DD	FLAT:??_R0?AVUObject@icu_56@@@8
	DD	FLAT:??_R3UObject@icu_56@@8
rdata$r	ENDS
;	COMDAT ??_7UObject@icu_56@@6B@
CONST	SEGMENT
??_7UObject@icu_56@@6B@ DD FLAT:??_R4UObject@icu_56@@6B@ ; icu_56::UObject::`vftable'
	DD	FLAT:??_EUObject@icu_56@@UAEPAXI@Z
	DD	FLAT:?getDynamicClassID@UObject@icu_56@@UBEPAXXZ
; Function compile flags: /Odtp /RTCsu /ZI
CONST	ENDS
;	COMDAT ??0UObject@icu_56@@QAE@XZ
_TEXT	SEGMENT
_this$ = -8						; size = 4
??0UObject@icu_56@@QAE@XZ PROC				; icu_56::UObject::UObject, COMDAT
; _this$ = ecx
	push	ebp
	mov	ebp, esp
	sub	esp, 204				; 000000ccH
	push	ebx
	push	esi
	push	edi
	push	ecx
	lea	edi, DWORD PTR [ebp-204]
	mov	ecx, 51					; 00000033H
	mov	eax, -858993460				; ccccccccH
	rep stosd
	pop	ecx
	mov	DWORD PTR _this$[ebp], ecx
	mov	eax, DWORD PTR _this$[ebp]
	mov	DWORD PTR [eax], OFFSET ??_7UObject@icu_56@@6B@
	mov	eax, DWORD PTR _this$[ebp]
	pop	edi
	pop	esi
	pop	ebx
	mov	esp, ebp
	pop	ebp
	ret	0
??0UObject@icu_56@@QAE@XZ ENDP				; icu_56::UObject::UObject
_TEXT	ENDS
PUBLIC	??0UObject@icu_56@@QAE@ABV01@@Z			; icu_56::UObject::UObject
; Function compile flags: /Odtp /RTCsu /ZI
;	COMDAT ??0UObject@icu_56@@QAE@ABV01@@Z
_TEXT	SEGMENT
tv68 = -208						; size = 4
_this$ = -8						; size = 4
___that$ = 8						; size = 4
??0UObject@icu_56@@QAE@ABV01@@Z PROC			; icu_56::UObject::UObject, COMDAT
; _this$ = ecx
	push	ebp
	mov	ebp, esp
	sub	esp, 208				; 000000d0H
	push	ebx
	push	esi
	push	edi
	push	ecx
	lea	edi, DWORD PTR [ebp-208]
	mov	ecx, 52					; 00000034H
	mov	eax, -858993460				; ccccccccH
	rep stosd
	pop	ecx
	mov	DWORD PTR _this$[ebp], ecx
	cmp	DWORD PTR ___that$[ebp], 0
	je	SHORT $LN3@UObject
	mov	eax, DWORD PTR ___that$[ebp]
	add	eax, 4
	mov	DWORD PTR tv68[ebp], eax
	jmp	SHORT $LN4@UObject
$LN3@UObject:
	mov	DWORD PTR tv68[ebp], 0
$LN4@UObject:
	mov	eax, DWORD PTR _this$[ebp]
	mov	DWORD PTR [eax], OFFSET ??_7UObject@icu_56@@6B@
	mov	eax, DWORD PTR _this$[ebp]
	pop	edi
	pop	esi
	pop	ebx
	mov	esp, ebp
	pop	ebp
	ret	4
??0UObject@icu_56@@QAE@ABV01@@Z ENDP			; icu_56::UObject::UObject
_TEXT	ENDS
PUBLIC	??4UObject@icu_56@@QAEAAV01@ABV01@@Z		; icu_56::UObject::operator=
; Function compile flags: /Odtp /RTCsu /ZI
;	COMDAT ??4UObject@icu_56@@QAEAAV01@ABV01@@Z
_TEXT	SEGMENT
_this$ = -8						; size = 4
___that$ = 8						; size = 4
??4UObject@icu_56@@QAEAAV01@ABV01@@Z PROC		; icu_56::UObject::operator=, COMDAT
; _this$ = ecx
	push	ebp
	mov	ebp, esp
	sub	esp, 204				; 000000ccH
	push	ebx
	push	esi
	push	edi
	push	ecx
	lea	edi, DWORD PTR [ebp-204]
	mov	ecx, 51					; 00000033H
	mov	eax, -858993460				; ccccccccH
	rep stosd
	pop	ecx
	mov	DWORD PTR _this$[ebp], ecx
	mov	eax, DWORD PTR _this$[ebp]
	pop	edi
	pop	esi
	pop	ebx
	mov	esp, ebp
	pop	ebp
	ret	4
??4UObject@icu_56@@QAEAAV01@ABV01@@Z ENDP		; icu_56::UObject::operator=
_TEXT	ENDS
PUBLIC	??_GUObject@icu_56@@UAEPAXI@Z			; icu_56::UObject::`scalar deleting destructor'
EXTRN	??3UMemory@icu_56@@SAXPAX@Z:PROC		; icu_56::UMemory::operator delete
EXTRN	??1UObject@icu_56@@UAE@XZ:PROC			; icu_56::UObject::~UObject
EXTRN	__RTC_CheckEsp:PROC
; Function compile flags: /Odtp /RTCsu /ZI
;	COMDAT ??_GUObject@icu_56@@UAEPAXI@Z
_TEXT	SEGMENT
_this$ = -8						; size = 4
___flags$ = 8						; size = 4
??_GUObject@icu_56@@UAEPAXI@Z PROC			; icu_56::UObject::`scalar deleting destructor', COMDAT
; _this$ = ecx
	push	ebp
	mov	ebp, esp
	sub	esp, 204				; 000000ccH
	push	ebx
	push	esi
	push	edi
	push	ecx
	lea	edi, DWORD PTR [ebp-204]
	mov	ecx, 51					; 00000033H
	mov	eax, -858993460				; ccccccccH
	rep stosd
	pop	ecx
	mov	DWORD PTR _this$[ebp], ecx
	mov	ecx, DWORD PTR _this$[ebp]
	call	??1UObject@icu_56@@UAE@XZ		; icu_56::UObject::~UObject
	mov	eax, DWORD PTR ___flags$[ebp]
	and	eax, 1
	je	SHORT $LN1@scalar
	mov	eax, DWORD PTR _this$[ebp]
	push	eax
	call	??3UMemory@icu_56@@SAXPAX@Z		; icu_56::UMemory::operator delete
	add	esp, 4
$LN1@scalar:
	mov	eax, DWORD PTR _this$[ebp]
	pop	edi
	pop	esi
	pop	ebx
	add	esp, 204				; 000000ccH
	cmp	ebp, esp
	call	__RTC_CheckEsp
	mov	esp, ebp
	pop	ebp
	ret	4
??_GUObject@icu_56@@UAEPAXI@Z ENDP			; icu_56::UObject::`scalar deleting destructor'
_TEXT	ENDS
EXTRN	??_VUMemory@icu_56@@SAXPAX@Z:PROC		; icu_56::UMemory::operator delete[]
EXTRN	??_M@YGXPAXIHP6EX0@Z@Z:PROC			; `eh vector destructor iterator'
; Function compile flags: /Odtp /RTCsu /ZI
;	COMDAT ??_EUObject@icu_56@@UAEPAXI@Z
_TEXT	SEGMENT
_this$ = -8						; size = 4
___flags$ = 8						; size = 4
??_EUObject@icu_56@@UAEPAXI@Z PROC			; icu_56::UObject::`vector deleting destructor', COMDAT
; _this$ = ecx
	push	ebp
	mov	ebp, esp
	sub	esp, 204				; 000000ccH
	push	ebx
	push	esi
	push	edi
	push	ecx
	lea	edi, DWORD PTR [ebp-204]
	mov	ecx, 51					; 00000033H
	mov	eax, -858993460				; ccccccccH
	rep stosd
	pop	ecx
	mov	DWORD PTR _this$[ebp], ecx
	mov	eax, DWORD PTR ___flags$[ebp]
	and	eax, 2
	je	SHORT $LN3@vector
	push	OFFSET ??1UObject@icu_56@@UAE@XZ	; icu_56::UObject::~UObject
	mov	eax, DWORD PTR _this$[ebp]
	mov	ecx, DWORD PTR [eax-4]
	push	ecx
	push	4
	mov	edx, DWORD PTR _this$[ebp]
	push	edx
	call	??_M@YGXPAXIHP6EX0@Z@Z
	mov	eax, DWORD PTR ___flags$[ebp]
	and	eax, 1
	je	SHORT $LN2@vector
	mov	eax, DWORD PTR _this$[ebp]
	sub	eax, 4
	push	eax
	call	??_VUMemory@icu_56@@SAXPAX@Z		; icu_56::UMemory::operator delete[]
	add	esp, 4
$LN2@vector:
	mov	eax, DWORD PTR _this$[ebp]
	sub	eax, 4
	jmp	SHORT $LN4@vector
$LN3@vector:
	mov	ecx, DWORD PTR _this$[ebp]
	call	??1UObject@icu_56@@UAE@XZ		; icu_56::UObject::~UObject
	mov	eax, DWORD PTR ___flags$[ebp]
	and	eax, 1
	je	SHORT $LN1@vector
	mov	eax, DWORD PTR _this$[ebp]
	push	eax
	call	??3UMemory@icu_56@@SAXPAX@Z		; icu_56::UMemory::operator delete
	add	esp, 4
$LN1@vector:
	mov	eax, DWORD PTR _this$[ebp]
$LN4@vector:
	pop	edi
	pop	esi
	pop	ebx
	add	esp, 204				; 000000ccH
	cmp	ebp, esp
	call	__RTC_CheckEsp
	mov	esp, ebp
	pop	ebp
	ret	4
??_EUObject@icu_56@@UAEPAXI@Z ENDP			; icu_56::UObject::`vector deleting destructor'
_TEXT	ENDS
PUBLIC	??_7ErrorCode@icu_56@@6B@			; icu_56::ErrorCode::`vftable'
PUBLIC	??0ErrorCode@icu_56@@QAE@XZ			; icu_56::ErrorCode::ErrorCode
PUBLIC	??_R4ErrorCode@icu_56@@6B@			; icu_56::ErrorCode::`RTTI Complete Object Locator'
PUBLIC	??_R0?AVErrorCode@icu_56@@@8			; icu_56::ErrorCode `RTTI Type Descriptor'
PUBLIC	??_R3ErrorCode@icu_56@@8			; icu_56::ErrorCode::`RTTI Class Hierarchy Descriptor'
PUBLIC	??_R2ErrorCode@icu_56@@8			; icu_56::ErrorCode::`RTTI Base Class Array'
PUBLIC	??_R1A@?0A@EA@ErrorCode@icu_56@@8		; icu_56::ErrorCode::`RTTI Base Class Descriptor at (0,-1,0,64)'
PUBLIC	??_EErrorCode@icu_56@@UAEPAXI@Z			; icu_56::ErrorCode::`vector deleting destructor'
PUBLIC	?handleFailure@ErrorCode@icu_56@@MBEXXZ		; icu_56::ErrorCode::handleFailure
;	COMDAT ??_R1A@?0A@EA@ErrorCode@icu_56@@8
; File d:\mozilla\intl\icu\source\common\unicode\errorcode.h
rdata$r	SEGMENT
??_R1A@?0A@EA@ErrorCode@icu_56@@8 DD FLAT:??_R0?AVErrorCode@icu_56@@@8 ; icu_56::ErrorCode::`RTTI Base Class Descriptor at (0,-1,0,64)'
	DD	01H
	DD	00H
	DD	0ffffffffH
	DD	00H
	DD	040H
	DD	FLAT:??_R3ErrorCode@icu_56@@8
rdata$r	ENDS
;	COMDAT ??_R2ErrorCode@icu_56@@8
rdata$r	SEGMENT
??_R2ErrorCode@icu_56@@8 DD FLAT:??_R1A@?0A@EA@ErrorCode@icu_56@@8 ; icu_56::ErrorCode::`RTTI Base Class Array'
	DD	FLAT:??_R13?0A@EA@UMemory@icu_56@@8
rdata$r	ENDS
;	COMDAT ??_R3ErrorCode@icu_56@@8
rdata$r	SEGMENT
??_R3ErrorCode@icu_56@@8 DD 00H				; icu_56::ErrorCode::`RTTI Class Hierarchy Descriptor'
	DD	00H
	DD	02H
	DD	FLAT:??_R2ErrorCode@icu_56@@8
rdata$r	ENDS
;	COMDAT ??_R0?AVErrorCode@icu_56@@@8
_DATA	SEGMENT
??_R0?AVErrorCode@icu_56@@@8 DD FLAT:??_7type_info@@6B@	; icu_56::ErrorCode `RTTI Type Descriptor'
	DD	00H
	DB	'.?AVErrorCode@icu_56@@', 00H
_DATA	ENDS
;	COMDAT ??_R4ErrorCode@icu_56@@6B@
rdata$r	SEGMENT
??_R4ErrorCode@icu_56@@6B@ DD 00H			; icu_56::ErrorCode::`RTTI Complete Object Locator'
	DD	00H
	DD	00H
	DD	FLAT:??_R0?AVErrorCode@icu_56@@@8
	DD	FLAT:??_R3ErrorCode@icu_56@@8
rdata$r	ENDS
;	COMDAT ??_7ErrorCode@icu_56@@6B@
CONST	SEGMENT
??_7ErrorCode@icu_56@@6B@ DD FLAT:??_R4ErrorCode@icu_56@@6B@ ; icu_56::ErrorCode::`vftable'
	DD	FLAT:??_EErrorCode@icu_56@@UAEPAXI@Z
	DD	FLAT:?handleFailure@ErrorCode@icu_56@@MBEXXZ
; Function compile flags: /Odtp /RTCsu /ZI
CONST	ENDS
;	COMDAT ??0ErrorCode@icu_56@@QAE@XZ
_TEXT	SEGMENT
_this$ = -8						; size = 4
??0ErrorCode@icu_56@@QAE@XZ PROC			; icu_56::ErrorCode::ErrorCode, COMDAT
; _this$ = ecx
; Line 85
	push	ebp
	mov	ebp, esp
	sub	esp, 204				; 000000ccH
	push	ebx
	push	esi
	push	edi
	push	ecx
	lea	edi, DWORD PTR [ebp-204]
	mov	ecx, 51					; 00000033H
	mov	eax, -858993460				; ccccccccH
	rep stosd
	pop	ecx
	mov	DWORD PTR _this$[ebp], ecx
	mov	eax, DWORD PTR _this$[ebp]
	mov	DWORD PTR [eax], OFFSET ??_7ErrorCode@icu_56@@6B@
	mov	eax, DWORD PTR _this$[ebp]
	mov	DWORD PTR [eax+4], 0
	mov	eax, DWORD PTR _this$[ebp]
	pop	edi
	pop	esi
	pop	ebx
	mov	esp, ebp
	pop	ebp
	ret	0
??0ErrorCode@icu_56@@QAE@XZ ENDP			; icu_56::ErrorCode::ErrorCode
_TEXT	ENDS
PUBLIC	??BErrorCode@icu_56@@QAEAAW4UErrorCode@@XZ	; icu_56::ErrorCode::operator enum UErrorCode &
; Function compile flags: /Odtp /RTCsu /ZI
;	COMDAT ??BErrorCode@icu_56@@QAEAAW4UErrorCode@@XZ
_TEXT	SEGMENT
_this$ = -8						; size = 4
??BErrorCode@icu_56@@QAEAAW4UErrorCode@@XZ PROC		; icu_56::ErrorCode::operator enum UErrorCode &, COMDAT
; _this$ = ecx
; Line 89
	push	ebp
	mov	ebp, esp
	sub	esp, 204				; 000000ccH
	push	ebx
	push	esi
	push	edi
	push	ecx
	lea	edi, DWORD PTR [ebp-204]
	mov	ecx, 51					; 00000033H
	mov	eax, -858993460				; ccccccccH
	rep stosd
	pop	ecx
	mov	DWORD PTR _this$[ebp], ecx
	mov	eax, DWORD PTR _this$[ebp]
	add	eax, 4
	pop	edi
	pop	esi
	pop	ebx
	mov	esp, ebp
	pop	ebp
	ret	0
??BErrorCode@icu_56@@QAEAAW4UErrorCode@@XZ ENDP		; icu_56::ErrorCode::operator enum UErrorCode &
_TEXT	ENDS
PUBLIC	??BErrorCode@icu_56@@QAEPAW4UErrorCode@@XZ	; icu_56::ErrorCode::operator enum UErrorCode *
; Function compile flags: /Odtp /RTCsu /ZI
;	COMDAT ??BErrorCode@icu_56@@QAEPAW4UErrorCode@@XZ
_TEXT	SEGMENT
_this$ = -8						; size = 4
??BErrorCode@icu_56@@QAEPAW4UErrorCode@@XZ PROC		; icu_56::ErrorCode::operator enum UErrorCode *, COMDAT
; _this$ = ecx
; Line 91
	push	ebp
	mov	ebp, esp
	sub	esp, 204				; 000000ccH
	push	ebx
	push	esi
	push	edi
	push	ecx
	lea	edi, DWORD PTR [ebp-204]
	mov	ecx, 51					; 00000033H
	mov	eax, -858993460				; ccccccccH
	rep stosd
	pop	ecx
	mov	DWORD PTR _this$[ebp], ecx
	mov	eax, DWORD PTR _this$[ebp]
	add	eax, 4
	pop	edi
	pop	esi
	pop	ebx
	mov	esp, ebp
	pop	ebp
	ret	0
??BErrorCode@icu_56@@QAEPAW4UErrorCode@@XZ ENDP		; icu_56::ErrorCode::operator enum UErrorCode *
_TEXT	ENDS
PUBLIC	?isSuccess@ErrorCode@icu_56@@QBECXZ		; icu_56::ErrorCode::isSuccess
; Function compile flags: /Odtp /RTCsu /ZI
;	COMDAT ?isSuccess@ErrorCode@icu_56@@QBECXZ
_TEXT	SEGMENT
_this$ = -8						; size = 4
?isSuccess@ErrorCode@icu_56@@QBECXZ PROC		; icu_56::ErrorCode::isSuccess, COMDAT
; _this$ = ecx
; Line 93
	push	ebp
	mov	ebp, esp
	sub	esp, 204				; 000000ccH
	push	ebx
	push	esi
	push	edi
	push	ecx
	lea	edi, DWORD PTR [ebp-204]
	mov	ecx, 51					; 00000033H
	mov	eax, -858993460				; ccccccccH
	rep stosd
	pop	ecx
	mov	DWORD PTR _this$[ebp], ecx
	mov	eax, DWORD PTR _this$[ebp]
	mov	ecx, DWORD PTR [eax+4]
	push	ecx
	call	?U_SUCCESS@@YACW4UErrorCode@@@Z		; U_SUCCESS
	add	esp, 4
	pop	edi
	pop	esi
	pop	ebx
	add	esp, 204				; 000000ccH
	cmp	ebp, esp
	call	__RTC_CheckEsp
	mov	esp, ebp
	pop	ebp
	ret	0
?isSuccess@ErrorCode@icu_56@@QBECXZ ENDP		; icu_56::ErrorCode::isSuccess
; Function compile flags: /Odtp /RTCsu /ZI
_TEXT	ENDS
;	COMDAT ?U_SUCCESS@@YACW4UErrorCode@@@Z
_TEXT	SEGMENT
_code$ = 8						; size = 4
?U_SUCCESS@@YACW4UErrorCode@@@Z PROC			; U_SUCCESS, COMDAT
; File d:\mozilla\intl\icu\source\common\unicode\utypes.h
; Line 699
	push	ebp
	mov	ebp, esp
	sub	esp, 192				; 000000c0H
	push	ebx
	push	esi
	push	edi
	lea	edi, DWORD PTR [ebp-192]
	mov	ecx, 48					; 00000030H
	mov	eax, -858993460				; ccccccccH
	rep stosd
	cmp	DWORD PTR _code$[ebp], 0
	setle	al
	pop	edi
	pop	esi
	pop	ebx
	mov	esp, ebp
	pop	ebp
	ret	0
?U_SUCCESS@@YACW4UErrorCode@@@Z ENDP			; U_SUCCESS
_TEXT	ENDS
PUBLIC	?isFailure@ErrorCode@icu_56@@QBECXZ		; icu_56::ErrorCode::isFailure
; Function compile flags: /Odtp /RTCsu /ZI
;	COMDAT ?isFailure@ErrorCode@icu_56@@QBECXZ
_TEXT	SEGMENT
_this$ = -8						; size = 4
?isFailure@ErrorCode@icu_56@@QBECXZ PROC		; icu_56::ErrorCode::isFailure, COMDAT
; _this$ = ecx
; File d:\mozilla\intl\icu\source\common\unicode\errorcode.h
; Line 95
	push	ebp
	mov	ebp, esp
	sub	esp, 204				; 000000ccH
	push	ebx
	push	esi
	push	edi
	push	ecx
	lea	edi, DWORD PTR [ebp-204]
	mov	ecx, 51					; 00000033H
	mov	eax, -858993460				; ccccccccH
	rep stosd
	pop	ecx
	mov	DWORD PTR _this$[ebp], ecx
	mov	eax, DWORD PTR _this$[ebp]
	mov	ecx, DWORD PTR [eax+4]
	push	ecx
	call	?U_FAILURE@@YACW4UErrorCode@@@Z		; U_FAILURE
	add	esp, 4
	pop	edi
	pop	esi
	pop	ebx
	add	esp, 204				; 000000ccH
	cmp	ebp, esp
	call	__RTC_CheckEsp
	mov	esp, ebp
	pop	ebp
	ret	0
?isFailure@ErrorCode@icu_56@@QBECXZ ENDP		; icu_56::ErrorCode::isFailure
; Function compile flags: /Odtp /RTCsu /ZI
_TEXT	ENDS
;	COMDAT ?U_FAILURE@@YACW4UErrorCode@@@Z
_TEXT	SEGMENT
_code$ = 8						; size = 4
?U_FAILURE@@YACW4UErrorCode@@@Z PROC			; U_FAILURE, COMDAT
; File d:\mozilla\intl\icu\source\common\unicode\utypes.h
; Line 705
	push	ebp
	mov	ebp, esp
	sub	esp, 192				; 000000c0H
	push	ebx
	push	esi
	push	edi
	lea	edi, DWORD PTR [ebp-192]
	mov	ecx, 48					; 00000030H
	mov	eax, -858993460				; ccccccccH
	rep stosd
	cmp	DWORD PTR _code$[ebp], 0
	setg	al
	pop	edi
	pop	esi
	pop	ebx
	mov	esp, ebp
	pop	ebp
	ret	0
?U_FAILURE@@YACW4UErrorCode@@@Z ENDP			; U_FAILURE
_TEXT	ENDS
PUBLIC	?get@ErrorCode@icu_56@@QBE?AW4UErrorCode@@XZ	; icu_56::ErrorCode::get
; Function compile flags: /Odtp /RTCsu /ZI
;	COMDAT ?get@ErrorCode@icu_56@@QBE?AW4UErrorCode@@XZ
_TEXT	SEGMENT
_this$ = -8						; size = 4
?get@ErrorCode@icu_56@@QBE?AW4UErrorCode@@XZ PROC	; icu_56::ErrorCode::get, COMDAT
; _this$ = ecx
; File d:\mozilla\intl\icu\source\common\unicode\errorcode.h
; Line 97
	push	ebp
	mov	ebp, esp
	sub	esp, 204				; 000000ccH
	push	ebx
	push	esi
	push	edi
	push	ecx
	lea	edi, DWORD PTR [ebp-204]
	mov	ecx, 51					; 00000033H
	mov	eax, -858993460				; ccccccccH
	rep stosd
	pop	ecx
	mov	DWORD PTR _this$[ebp], ecx
	mov	eax, DWORD PTR _this$[ebp]
	mov	eax, DWORD PTR [eax+4]
	pop	edi
	pop	esi
	pop	ebx
	mov	esp, ebp
	pop	ebp
	ret	0
?get@ErrorCode@icu_56@@QBE?AW4UErrorCode@@XZ ENDP	; icu_56::ErrorCode::get
_TEXT	ENDS
PUBLIC	?set@ErrorCode@icu_56@@QAEXW4UErrorCode@@@Z	; icu_56::ErrorCode::set
; Function compile flags: /Odtp /RTCsu /ZI
;	COMDAT ?set@ErrorCode@icu_56@@QAEXW4UErrorCode@@@Z
_TEXT	SEGMENT
_this$ = -8						; size = 4
_value$ = 8						; size = 4
?set@ErrorCode@icu_56@@QAEXW4UErrorCode@@@Z PROC	; icu_56::ErrorCode::set, COMDAT
; _this$ = ecx
; Line 99
	push	ebp
	mov	ebp, esp
	sub	esp, 204				; 000000ccH
	push	ebx
	push	esi
	push	edi
	push	ecx
	lea	edi, DWORD PTR [ebp-204]
	mov	ecx, 51					; 00000033H
	mov	eax, -858993460				; ccccccccH
	rep stosd
	pop	ecx
	mov	DWORD PTR _this$[ebp], ecx
	mov	eax, DWORD PTR _this$[ebp]
	mov	ecx, DWORD PTR _value$[ebp]
	mov	DWORD PTR [eax+4], ecx
	pop	edi
	pop	esi
	pop	ebx
	mov	esp, ebp
	pop	ebp
	ret	4
?set@ErrorCode@icu_56@@QAEXW4UErrorCode@@@Z ENDP	; icu_56::ErrorCode::set
; Function compile flags: /Odtp /RTCsu /ZI
_TEXT	ENDS
;	COMDAT ?handleFailure@ErrorCode@icu_56@@MBEXXZ
_TEXT	SEGMENT
_this$ = -8						; size = 4
?handleFailure@ErrorCode@icu_56@@MBEXXZ PROC		; icu_56::ErrorCode::handleFailure, COMDAT
; _this$ = ecx
; Line 132
	push	ebp
	mov	ebp, esp
	sub	esp, 204				; 000000ccH
	push	ebx
	push	esi
	push	edi
	push	ecx
	lea	edi, DWORD PTR [ebp-204]
	mov	ecx, 51					; 00000033H
	mov	eax, -858993460				; ccccccccH
	rep stosd
	pop	ecx
	mov	DWORD PTR _this$[ebp], ecx
	pop	edi
	pop	esi
	pop	ebx
	mov	esp, ebp
	pop	ebp
	ret	0
?handleFailure@ErrorCode@icu_56@@MBEXXZ ENDP		; icu_56::ErrorCode::handleFailure
_TEXT	ENDS
PUBLIC	??0ErrorCode@icu_56@@QAE@ABV01@@Z		; icu_56::ErrorCode::ErrorCode
; Function compile flags: /Odtp /RTCsu /ZI
;	COMDAT ??0ErrorCode@icu_56@@QAE@ABV01@@Z
_TEXT	SEGMENT
tv68 = -208						; size = 4
_this$ = -8						; size = 4
___that$ = 8						; size = 4
??0ErrorCode@icu_56@@QAE@ABV01@@Z PROC			; icu_56::ErrorCode::ErrorCode, COMDAT
; _this$ = ecx
	push	ebp
	mov	ebp, esp
	sub	esp, 208				; 000000d0H
	push	ebx
	push	esi
	push	edi
	push	ecx
	lea	edi, DWORD PTR [ebp-208]
	mov	ecx, 52					; 00000034H
	mov	eax, -858993460				; ccccccccH
	rep stosd
	pop	ecx
	mov	DWORD PTR _this$[ebp], ecx
	cmp	DWORD PTR ___that$[ebp], 0
	je	SHORT $LN3@ErrorCode
	mov	eax, DWORD PTR ___that$[ebp]
	add	eax, 4
	mov	DWORD PTR tv68[ebp], eax
	jmp	SHORT $LN4@ErrorCode
$LN3@ErrorCode:
	mov	DWORD PTR tv68[ebp], 0
$LN4@ErrorCode:
	mov	eax, DWORD PTR _this$[ebp]
	mov	DWORD PTR [eax], OFFSET ??_7ErrorCode@icu_56@@6B@
	mov	eax, DWORD PTR _this$[ebp]
	mov	ecx, DWORD PTR ___that$[ebp]
	mov	edx, DWORD PTR [ecx+4]
	mov	DWORD PTR [eax+4], edx
	mov	eax, DWORD PTR _this$[ebp]
	pop	edi
	pop	esi
	pop	ebx
	mov	esp, ebp
	pop	ebp
	ret	4
??0ErrorCode@icu_56@@QAE@ABV01@@Z ENDP			; icu_56::ErrorCode::ErrorCode
_TEXT	ENDS
PUBLIC	??4ErrorCode@icu_56@@QAEAAV01@ABV01@@Z		; icu_56::ErrorCode::operator=
; Function compile flags: /Odtp /RTCsu /ZI
;	COMDAT ??4ErrorCode@icu_56@@QAEAAV01@ABV01@@Z
_TEXT	SEGMENT
_this$ = -8						; size = 4
___that$ = 8						; size = 4
??4ErrorCode@icu_56@@QAEAAV01@ABV01@@Z PROC		; icu_56::ErrorCode::operator=, COMDAT
; _this$ = ecx
	push	ebp
	mov	ebp, esp
	sub	esp, 204				; 000000ccH
	push	ebx
	push	esi
	push	edi
	push	ecx
	lea	edi, DWORD PTR [ebp-204]
	mov	ecx, 51					; 00000033H
	mov	eax, -858993460				; ccccccccH
	rep stosd
	pop	ecx
	mov	DWORD PTR _this$[ebp], ecx
	mov	eax, DWORD PTR _this$[ebp]
	mov	ecx, DWORD PTR ___that$[ebp]
	mov	edx, DWORD PTR [ecx+4]
	mov	DWORD PTR [eax+4], edx
	mov	eax, DWORD PTR _this$[ebp]
	pop	edi
	pop	esi
	pop	ebx
	mov	esp, ebp
	pop	ebp
	ret	4
??4ErrorCode@icu_56@@QAEAAV01@ABV01@@Z ENDP		; icu_56::ErrorCode::operator=
_TEXT	ENDS
PUBLIC	??1ErrorCode@icu_56@@UAE@XZ			; icu_56::ErrorCode::~ErrorCode
PUBLIC	??_GErrorCode@icu_56@@UAEPAXI@Z			; icu_56::ErrorCode::`scalar deleting destructor'
; Function compile flags: /Odtp /RTCsu /ZI
;	COMDAT ??_GErrorCode@icu_56@@UAEPAXI@Z
_TEXT	SEGMENT
_this$ = -8						; size = 4
___flags$ = 8						; size = 4
??_GErrorCode@icu_56@@UAEPAXI@Z PROC			; icu_56::ErrorCode::`scalar deleting destructor', COMDAT
; _this$ = ecx
	push	ebp
	mov	ebp, esp
	sub	esp, 204				; 000000ccH
	push	ebx
	push	esi
	push	edi
	push	ecx
	lea	edi, DWORD PTR [ebp-204]
	mov	ecx, 51					; 00000033H
	mov	eax, -858993460				; ccccccccH
	rep stosd
	pop	ecx
	mov	DWORD PTR _this$[ebp], ecx
	mov	ecx, DWORD PTR _this$[ebp]
	call	??1ErrorCode@icu_56@@UAE@XZ		; icu_56::ErrorCode::~ErrorCode
	mov	eax, DWORD PTR ___flags$[ebp]
	and	eax, 1
	je	SHORT $LN1@scalar@2
	mov	eax, DWORD PTR _this$[ebp]
	push	eax
	call	??3UMemory@icu_56@@SAXPAX@Z		; icu_56::UMemory::operator delete
	add	esp, 4
$LN1@scalar@2:
	mov	eax, DWORD PTR _this$[ebp]
	pop	edi
	pop	esi
	pop	ebx
	add	esp, 204				; 000000ccH
	cmp	ebp, esp
	call	__RTC_CheckEsp
	mov	esp, ebp
	pop	ebp
	ret	4
??_GErrorCode@icu_56@@UAEPAXI@Z ENDP			; icu_56::ErrorCode::`scalar deleting destructor'
; Function compile flags: /Odtp /RTCsu /ZI
_TEXT	ENDS
;	COMDAT ??_EErrorCode@icu_56@@UAEPAXI@Z
_TEXT	SEGMENT
_this$ = -8						; size = 4
___flags$ = 8						; size = 4
??_EErrorCode@icu_56@@UAEPAXI@Z PROC			; icu_56::ErrorCode::`vector deleting destructor', COMDAT
; _this$ = ecx
	push	ebp
	mov	ebp, esp
	sub	esp, 204				; 000000ccH
	push	ebx
	push	esi
	push	edi
	push	ecx
	lea	edi, DWORD PTR [ebp-204]
	mov	ecx, 51					; 00000033H
	mov	eax, -858993460				; ccccccccH
	rep stosd
	pop	ecx
	mov	DWORD PTR _this$[ebp], ecx
	mov	eax, DWORD PTR ___flags$[ebp]
	and	eax, 2
	je	SHORT $LN3@vector@2
	push	OFFSET ??1ErrorCode@icu_56@@UAE@XZ	; icu_56::ErrorCode::~ErrorCode
	mov	eax, DWORD PTR _this$[ebp]
	mov	ecx, DWORD PTR [eax-4]
	push	ecx
	push	8
	mov	edx, DWORD PTR _this$[ebp]
	push	edx
	call	??_M@YGXPAXIHP6EX0@Z@Z
	mov	eax, DWORD PTR ___flags$[ebp]
	and	eax, 1
	je	SHORT $LN2@vector@2
	mov	eax, DWORD PTR _this$[ebp]
	sub	eax, 4
	push	eax
	call	??_VUMemory@icu_56@@SAXPAX@Z		; icu_56::UMemory::operator delete[]
	add	esp, 4
$LN2@vector@2:
	mov	eax, DWORD PTR _this$[ebp]
	sub	eax, 4
	jmp	SHORT $LN4@vector@2
$LN3@vector@2:
	mov	ecx, DWORD PTR _this$[ebp]
	call	??1ErrorCode@icu_56@@UAE@XZ		; icu_56::ErrorCode::~ErrorCode
	mov	eax, DWORD PTR ___flags$[ebp]
	and	eax, 1
	je	SHORT $LN1@vector@2
	mov	eax, DWORD PTR _this$[ebp]
	push	eax
	call	??3UMemory@icu_56@@SAXPAX@Z		; icu_56::UMemory::operator delete
	add	esp, 4
$LN1@vector@2:
	mov	eax, DWORD PTR _this$[ebp]
$LN4@vector@2:
	pop	edi
	pop	esi
	pop	ebx
	add	esp, 204				; 000000ccH
	cmp	ebp, esp
	call	__RTC_CheckEsp
	mov	esp, ebp
	pop	ebp
	ret	4
??_EErrorCode@icu_56@@UAEPAXI@Z ENDP			; icu_56::ErrorCode::`vector deleting destructor'
; Function compile flags: /Odtp /RTCsu /ZI
_TEXT	ENDS
;	COMDAT ??1ErrorCode@icu_56@@UAE@XZ
_TEXT	SEGMENT
_this$ = -8						; size = 4
??1ErrorCode@icu_56@@UAE@XZ PROC			; icu_56::ErrorCode::~ErrorCode, COMDAT
; _this$ = ecx
; File d:\mozilla\intl\icu\source\common\errorcode.cpp
; Line 22
	push	ebp
	mov	ebp, esp
	sub	esp, 204				; 000000ccH
	push	ebx
	push	esi
	push	edi
	push	ecx
	lea	edi, DWORD PTR [ebp-204]
	mov	ecx, 51					; 00000033H
	mov	eax, -858993460				; ccccccccH
	rep stosd
	pop	ecx
	mov	DWORD PTR _this$[ebp], ecx
	mov	eax, DWORD PTR _this$[ebp]
	mov	DWORD PTR [eax], OFFSET ??_7ErrorCode@icu_56@@6B@
	pop	edi
	pop	esi
	pop	ebx
	mov	esp, ebp
	pop	ebp
	ret	0
??1ErrorCode@icu_56@@UAE@XZ ENDP			; icu_56::ErrorCode::~ErrorCode
_TEXT	ENDS
PUBLIC	?reset@ErrorCode@icu_56@@QAE?AW4UErrorCode@@XZ	; icu_56::ErrorCode::reset
; Function compile flags: /Odtp /RTCsu /ZI
;	COMDAT ?reset@ErrorCode@icu_56@@QAE?AW4UErrorCode@@XZ
_TEXT	SEGMENT
_code$ = -20						; size = 4
_this$ = -8						; size = 4
?reset@ErrorCode@icu_56@@QAE?AW4UErrorCode@@XZ PROC	; icu_56::ErrorCode::reset, COMDAT
; _this$ = ecx
; Line 24
	push	ebp
	mov	ebp, esp
	sub	esp, 216				; 000000d8H
	push	ebx
	push	esi
	push	edi
	push	ecx
	lea	edi, DWORD PTR [ebp-216]
	mov	ecx, 54					; 00000036H
	mov	eax, -858993460				; ccccccccH
	rep stosd
	pop	ecx
	mov	DWORD PTR _this$[ebp], ecx
; Line 25
	mov	eax, DWORD PTR _this$[ebp]
	mov	ecx, DWORD PTR [eax+4]
	mov	DWORD PTR _code$[ebp], ecx
; Line 26
	mov	eax, DWORD PTR _this$[ebp]
	mov	DWORD PTR [eax+4], 0
; Line 27
	mov	eax, DWORD PTR _code$[ebp]
; Line 28
	pop	edi
	pop	esi
	pop	ebx
	mov	esp, ebp
	pop	ebp
	ret	0
?reset@ErrorCode@icu_56@@QAE?AW4UErrorCode@@XZ ENDP	; icu_56::ErrorCode::reset
_TEXT	ENDS
PUBLIC	?assertSuccess@ErrorCode@icu_56@@QBEXXZ		; icu_56::ErrorCode::assertSuccess
; Function compile flags: /Odtp /RTCsu /ZI
;	COMDAT ?assertSuccess@ErrorCode@icu_56@@QBEXXZ
_TEXT	SEGMENT
_this$ = -8						; size = 4
?assertSuccess@ErrorCode@icu_56@@QBEXXZ PROC		; icu_56::ErrorCode::assertSuccess, COMDAT
; _this$ = ecx
; Line 30
	push	ebp
	mov	ebp, esp
	sub	esp, 204				; 000000ccH
	push	ebx
	push	esi
	push	edi
	push	ecx
	lea	edi, DWORD PTR [ebp-204]
	mov	ecx, 51					; 00000033H
	mov	eax, -858993460				; ccccccccH
	rep stosd
	pop	ecx
	mov	DWORD PTR _this$[ebp], ecx
; Line 31
	mov	ecx, DWORD PTR _this$[ebp]
	call	?isFailure@ErrorCode@icu_56@@QBECXZ	; icu_56::ErrorCode::isFailure
	movsx	eax, al
	test	eax, eax
	je	SHORT $LN2@assertSucc
; Line 32
	mov	eax, DWORD PTR _this$[ebp]
	mov	edx, DWORD PTR [eax]
	mov	esi, esp
	mov	ecx, DWORD PTR _this$[ebp]
	mov	eax, DWORD PTR [edx+4]
	call	eax
	cmp	esi, esp
	call	__RTC_CheckEsp
$LN2@assertSucc:
; Line 34
	pop	edi
	pop	esi
	pop	ebx
	add	esp, 204				; 000000ccH
	cmp	ebp, esp
	call	__RTC_CheckEsp
	mov	esp, ebp
	pop	ebp
	ret	0
?assertSuccess@ErrorCode@icu_56@@QBEXXZ ENDP		; icu_56::ErrorCode::assertSuccess
_TEXT	ENDS
PUBLIC	?errorName@ErrorCode@icu_56@@QBEPBDXZ		; icu_56::ErrorCode::errorName
EXTRN	_u_errorName_56:PROC
; Function compile flags: /Odtp /RTCsu /ZI
;	COMDAT ?errorName@ErrorCode@icu_56@@QBEPBDXZ
_TEXT	SEGMENT
_this$ = -8						; size = 4
?errorName@ErrorCode@icu_56@@QBEPBDXZ PROC		; icu_56::ErrorCode::errorName, COMDAT
; _this$ = ecx
; Line 36
	push	ebp
	mov	ebp, esp
	sub	esp, 204				; 000000ccH
	push	ebx
	push	esi
	push	edi
	push	ecx
	lea	edi, DWORD PTR [ebp-204]
	mov	ecx, 51					; 00000033H
	mov	eax, -858993460				; ccccccccH
	rep stosd
	pop	ecx
	mov	DWORD PTR _this$[ebp], ecx
; Line 37
	mov	eax, DWORD PTR _this$[ebp]
	mov	ecx, DWORD PTR [eax+4]
	push	ecx
	call	_u_errorName_56
	add	esp, 4
; Line 38
	pop	edi
	pop	esi
	pop	ebx
	add	esp, 204				; 000000ccH
	cmp	ebp, esp
	call	__RTC_CheckEsp
	mov	esp, ebp
	pop	ebp
	ret	0
?errorName@ErrorCode@icu_56@@QBEPBDXZ ENDP		; icu_56::ErrorCode::errorName
_TEXT	ENDS
END
