; Listing generated by Microsoft (R) Optimizing Compiler Version 16.00.40219.01 

	TITLE	D:\mozilla\intl\icu\source\common\locmap.c
	.686P
	.XMM
	include listing.inc
	.model	flat

INCLUDELIB MSVCRTD
INCLUDELIB OLDNAMES

PUBLIC	??_C@_05MOJBNFJC@zu_ZA?$AA@			; `string'
PUBLIC	??_C@_02LJAEGNI@zu?$AA@				; `string'
PUBLIC	??_C@_0BH@CFGINEKD@zh_CN?$EAcollation?$DNstroke?$AA@ ; `string'
PUBLIC	??_C@_0BM@EAKCGOGA@zh_Hans_CN?$EAcollation?$DNstroke?$AA@ ; `string'
PUBLIC	??_C@_0BJ@OLIPOEKH@zh_Hans?$EAcollation?$DNstroke?$AA@ ; `string'
PUBLIC	??_C@_0BH@OJOLHPMC@zh_TW?$EAcollation?$DNstroke?$AA@ ; `string'
PUBLIC	??_C@_0BM@OJPIPLEB@zh_Hant_TW?$EAcollation?$DNstroke?$AA@ ; `string'
PUBLIC	??_C@_0BJ@KBLBGPOM@zh_Hant?$EAcollation?$DNstroke?$AA@ ; `string'
PUBLIC	??_C@_0BE@CDDEEKL@zh?$EAcollation?$DNstroke?$AA@ ; `string'
PUBLIC	??_C@_05EAOHBOHM@zh_TW?$AA@			; `string'
PUBLIC	??_C@_07MPMMFI@zh_Hant?$AA@			; `string'
PUBLIC	??_C@_0L@DBKGKGA@zh_Hant_TW?$AA@		; `string'
PUBLIC	??_C@_05PGKBKKI@zh_SG?$AA@			; `string'
PUBLIC	??_C@_0L@POLHLCKE@zh_Hans_SG?$AA@		; `string'
PUBLIC	??_C@_05NBALBONK@zh_MO?$AA@			; `string'
PUBLIC	??_C@_0L@JCPGGKMG@zh_Hant_MO?$AA@		; `string'
PUBLIC	??_C@_05LDKMBJDF@zh_HK?$AA@			; `string'
PUBLIC	??_C@_0L@PAFBGNCJ@zh_Hant_HK?$AA@		; `string'
PUBLIC	??_C@_0L@DDFDKKJN@zh_Hans_CN?$AA@		; `string'
PUBLIC	??_C@_05MCIOACJB@zh_CN?$AA@			; `string'
PUBLIC	??_C@_02PEPMCKME@zh?$AA@			; `string'
PUBLIC	??_C@_07EPIOFKJP@zh_Hans?$AA@			; `string'
PUBLIC	??_C@_05CPCAIEDF@yo_NG?$AA@			; `string'
PUBLIC	??_C@_02LJPLACFK@yo?$AA@			; `string'
PUBLIC	??_C@_02OPKBKFNM@yi?$AA@			; `string'
PUBLIC	??_C@_05BLCJCHKK@xh_ZA?$AA@			; `string'
PUBLIC	??_C@_02PHHIPOKK@xh?$AA@			; `string'
PUBLIC	??_C@_05NABGGOCP@wo_SN?$AA@			; `string'
PUBLIC	??_C@_02LDGFCPFA@wo?$AA@			; `string'
PUBLIC	??_C@_05JCMBIKMB@vi_VN?$AA@			; `string'
PUBLIC	??_C@_02OEPNOCOB@vi?$AA@			; `string'
PUBLIC	??_C@_06IIDHFIID@ven_ZA?$AA@			; `string'
PUBLIC	??_C@_05NJLDICGL@ve_ZA?$AA@			; `string'
PUBLIC	??_C@_02EIEIKNON@ve?$AA@			; `string'
PUBLIC	??_C@_07HNLCCJKO@uz_Latn?$AA@			; `string'
PUBLIC	??_C@_0L@LICHLCN@uz_Latn_UZ?$AA@		; `string'
PUBLIC	??_C@_05BPPNHMDB@uz_UZ?$AA@			; `string'
PUBLIC	??_C@_07FMPENPDP@uz_Cyrl?$AA@			; `string'
PUBLIC	??_C@_0L@CKAKALFF@uz_Cyrl_UZ?$AA@		; `string'
PUBLIC	??_C@_02IHFEBNCK@uz?$AA@			; `string'
PUBLIC	??_C@_05HKJPNGAL@ur_PK?$AA@			; `string'
PUBLIC	??_C@_05BEBPLKLB@ur_IN?$AA@			; `string'
PUBLIC	??_C@_02EPINJHCC@ur?$AA@			; `string'
PUBLIC	??_C@_05OLELAJJJ@uk_UA?$AA@			; `string'
PUBLIC	??_C@_02NEINDODK@uk?$AA@			; `string'
PUBLIC	??_C@_0L@LEAPJEEJ@ug_Arab_CN?$AA@		; `string'
PUBLIC	??_C@_05LBIICHJF@ug_CN?$AA@			; `string'
PUBLIC	??_C@_02HIDIHBDG@ug?$AA@			; `string'
PUBLIC	??_C@_03KPDJNOCH@tmz?$AA@			; `string'
PUBLIC	??_C@_0M@BELBLGLM@tzm_Tfng_MA?$AA@		; `string'
PUBLIC	??_C@_0M@HHPCBBDF@tzm_Latn_DZ?$AA@		; `string'
PUBLIC	??_C@_08CIIPMAFM@tzm_Latn?$AA@			; `string'
PUBLIC	??_C@_03LDNDOPEE@tzm?$AA@			; `string'
PUBLIC	??_C@_05OJEGBLLP@tt_RU?$AA@			; `string'
PUBLIC	??_C@_02BIBFFKJD@tt?$AA@			; `string'
PUBLIC	??_C@_05HLNLEBEC@ts_ZA?$AA@			; `string'
PUBLIC	??_C@_02FHFEMMFE@ts?$AA@			; `string'
PUBLIC	??_C@_05CNMKAEGK@tr_TR?$AA@			; `string'
PUBLIC	??_C@_02EOEPPNBF@tr?$AA@			; `string'
PUBLIC	??_C@_05ODKLBCHB@tn_ZA?$AA@			; `string'
PUBLIC	??_C@_05ONAGFFGO@tn_BW?$AA@			; `string'
PUBLIC	??_C@_02KIDIKAEI@tn?$AA@			; `string'
PUBLIC	??_C@_05INGAPPAH@tk_TM?$AA@			; `string'
PUBLIC	??_C@_02NFEPFEAN@tk?$AA@			; `string'
PUBLIC	??_C@_05HBEEMMDI@ti_ET?$AA@			; `string'
PUBLIC	??_C@_05CHBOGLLO@ti_ER?$AA@			; `string'
PUBLIC	??_C@_02OHHJDGIP@ti?$AA@			; `string'
PUBLIC	??_C@_05LHLHHBJC@th_TH?$AA@			; `string'
PUBLIC	??_C@_02POGCAHMO@th?$AA@			; `string'
PUBLIC	??_C@_0L@HCNEKGKL@tg_Cyrl_TJ?$AA@		; `string'
PUBLIC	??_C@_07JGFHCCKP@tg_Cyrl?$AA@			; `string'
PUBLIC	??_C@_02HJPKBLAB@tg?$AA@			; `string'
PUBLIC	??_C@_05NIDCCIG@te_IN?$AA@			; `string'
PUBLIC	??_C@_02ELMMHJID@te?$AA@			; `string'
PUBLIC	??_C@_05IDLPLCOI@ta_LK?$AA@			; `string'
PUBLIC	??_C@_05PIADIEEG@ta_IN?$AA@			; `string'
PUBLIC	??_C@_02CPKALMIH@ta?$AA@			; `string'
PUBLIC	??_C@_06IGMBGMJB@syr_SY?$AA@			; `string'
PUBLIC	??_C@_03OBBIGHDK@syr?$AA@			; `string'
PUBLIC	??_C@_05OKNGNLHJ@sw_KE?$AA@			; `string'
PUBLIC	??_C@_02DGHHBPNF@sw?$AA@			; `string'
PUBLIC	??_C@_05MFIDAAAB@sv_SE?$AA@			; `string'
PUBLIC	??_C@_05HDNLCOJG@sv_FI?$AA@			; `string'
PUBLIC	??_C@_02CPGMCOJE@sv?$AA@			; `string'
PUBLIC	??_C@_05NEPOKNOK@st_ZA?$AA@			; `string'
PUBLIC	??_C@_02BNFKEMBG@st?$AA@			; `string'
PUBLIC	??_C@_05LJMDBAEG@sq_AL?$AA@			; `string'
PUBLIC	??_C@_02GACNLIFD@sq?$AA@			; `string'
PUBLIC	??_C@_05FCJMBNHI@so_SO?$AA@			; `string'
PUBLIC	??_C@_05ODABAJCA@so_ET?$AA@			; `string'
PUBLIC	??_C@_02LEGMIHIM@so?$AA@			; `string'
PUBLIC	??_C@_05EDGGMACO@sl_SI?$AA@			; `string'
PUBLIC	??_C@_02JPEBNEEP@sl?$AA@			; `string'
PUBLIC	??_C@_05MDHAHOLM@sk_SK?$AA@			; `string'
PUBLIC	??_C@_02NAAAECII@sk?$AA@			; `string'
PUBLIC	??_C@_05KOMKMJJB@si_LK?$AA@			; `string'
PUBLIC	??_C@_02OCDGCAAK@si?$AA@			; `string'
PUBLIC	??_C@_06HDMJHGGG@sms_FI?$AA@			; `string'
PUBLIC	??_C@_06OLLJCFFF@smn_FI?$AA@			; `string'
PUBLIC	??_C@_06KIGBKNAC@smj_SE?$AA@			; `string'
PUBLIC	??_C@_06EGHAHFKL@smj_NO?$AA@			; `string'
PUBLIC	??_C@_03ODCMFNNH@sms?$AA@			; `string'
PUBLIC	??_C@_03BMEADBML@smn?$AA@			; `string'
PUBLIC	??_C@_03HICMPEMP@smj?$AA@			; `string'
PUBLIC	??_C@_06NPLBJMBD@sma_SE?$AA@			; `string'
PUBLIC	??_C@_06DBKAEELK@sma_NO?$AA@			; `string'
PUBLIC	??_C@_03JLNICNAE@sma?$AA@			; `string'
PUBLIC	??_C@_05OCMDONFD@se_SE?$AA@			; `string'
PUBLIC	??_C@_05MNCDFPK@se_NO?$AA@			; `string'
PUBLIC	??_C@_05FEJLMDME@se_FI?$AA@			; `string'
PUBLIC	??_C@_02EOIDGPAG@se?$AA@			; `string'
PUBLIC	??_C@_05EDGGFHDE@sd_PK?$AA@			; `string'
PUBLIC	??_C@_05CNOGDLIO@sd_IN?$AA@			; `string'
PUBLIC	??_C@_02FHJIFOEH@sd?$AA@			; `string'
PUBLIC	??_C@_06OOGDEGHP@sah_RU?$AA@			; `string'
PUBLIC	??_C@_03EDAAGPCJ@sah?$AA@			; `string'
PUBLIC	??_C@_05OFAGLEPO@sa_IN?$AA@			; `string'
PUBLIC	??_C@_02CKOPKKAC@sa?$AA@			; `string'
PUBLIC	??_C@_05EKIJOAPA@rw_RW?$AA@			; `string'
PUBLIC	??_C@_02DHLFHFOC@rw?$AA@			; `string'
PUBLIC	??_C@_05EGNMBGEP@ru_MD?$AA@			; `string'
PUBLIC	??_C@_05CHPNBBC@ru_RU?$AA@			; `string'
PUBLIC	??_C@_02FIDBHGA@ru?$AA@				; `string'
PUBLIC	??_C@_04NBFCGMPH@root?$AA@			; `string'
PUBLIC	??_C@_05GMIMJJGM@ro_MD?$AA@			; `string'
PUBLIC	??_C@_05JIACKEOK@ro_RO?$AA@			; `string'
PUBLIC	??_C@_02LFKOONLL@ro?$AA@			; `string'
PUBLIC	??_C@_05LAGHKIAK@rm_CH?$AA@			; `string'
PUBLIC	??_C@_02IHJIIPDJ@rm?$AA@			; `string'
PUBLIC	??_C@_06EHFNDNIC@qut_GT?$AA@			; `string'
PUBLIC	??_C@_03BEFBPBFD@qut?$AA@			; `string'
PUBLIC	??_C@_06LCNNBFAG@quz_PE?$AA@			; `string'
PUBLIC	??_C@_06POGKNDBL@quz_EC?$AA@			; `string'
PUBLIC	??_C@_06FHJAIKJC@quz_BO?$AA@			; `string'
PUBLIC	??_C@_05MNKNGFID@qu_PE?$AA@			; `string'
PUBLIC	??_C@_05IBBKKDJO@qu_EC?$AA@			; `string'
PUBLIC	??_C@_05CIOAPKBH@qu_BO?$AA@			; `string'
PUBLIC	??_C@_02HMFKJDJ@qu?$AA@				; `string'
PUBLIC	??_C@_05GIEILMIG@pt_PT?$AA@			; `string'
PUBLIC	??_C@_05CBLAGMBO@pt_BR?$AA@			; `string'
PUBLIC	??_C@_02BPBMPCEP@pt?$AA@			; `string'
PUBLIC	??_C@_05LPHINJAC@ps_AF?$AA@			; `string'
PUBLIC	??_C@_02FAFNGEII@ps?$AA@			; `string'
PUBLIC	??_C@_05LKMDPIJM@pl_PL?$AA@			; `string'
PUBLIC	??_C@_02JNAHGKBG@pl?$AA@			; `string'
PUBLIC	??_C@_06DIENFGBC@pap_AN?$AA@			; `string'
PUBLIC	??_C@_03NDKOFIJO@pap?$AA@			; `string'
PUBLIC	??_C@_0L@KLFBKBCA@pa_Arab_PK?$AA@		; `string'
PUBLIC	??_C@_05NBCKKOK@pa_PK?$AA@			; `string'
PUBLIC	??_C@_05GDJCMGFA@pa_IN?$AA@			; `string'
PUBLIC	??_C@_02CIKJBEFL@pa?$AA@			; `string'
PUBLIC	??_C@_05LGFCJLEM@or_IN?$AA@			; `string'
PUBLIC	??_C@_02FODMLBIE@or?$AA@			; `string'
PUBLIC	??_C@_06GHKALOPE@gaz_ET?$AA@			; `string'
PUBLIC	??_C@_05ONNFJIKA@om_ET?$AA@			; `string'
PUBLIC	??_C@_02JDGGLPBK@om?$AA@			; `string'
PUBLIC	??_C@_05GPJDPBO@oc_FR?$AA@			; `string'
PUBLIC	??_C@_02NOFJCJE@oc?$AA@				; `string'
PUBLIC	??_C@_06DEOJECBM@nso_ZA?$AA@			; `string'
PUBLIC	??_C@_03LBJAABLC@nso?$AA@			; `string'
PUBLIC	??_C@_08DMODGHIJ@no_NO_NY?$AA@			; `string'
PUBLIC	??_C@_02LJIJIGOO@nn?$AA@			; `string'
PUBLIC	??_C@_05MEEKBFKO@nn_NO?$AA@			; `string'
PUBLIC	??_C@_05PJCKDMBO@no_NO?$AA@			; `string'
PUBLIC	??_C@_05BLKPIKP@nb_NO?$AA@			; `string'
PUBLIC	??_C@_02BFDMMJOC@nb?$AA@			; `string'
PUBLIC	??_C@_02KAJCLHKP@no?$AA@			; `string'
PUBLIC	??_C@_05JFKHBFAN@nl_NL?$AA@			; `string'
PUBLIC	??_C@_05ENHPFHCA@nl_BE?$AA@			; `string'
PUBLIC	??_C@_02ILLPOEGM@nl?$AA@			; `string'
PUBLIC	??_C@_05HOMACKCB@ne_NP?$AA@			; `string'
PUBLIC	??_C@_05KPMOADHL@ne_IN?$AA@			; `string'
PUBLIC	??_C@_02FKHNFPCF@ne?$AA@			; `string'
PUBLIC	??_C@_05KAGOPAEJ@my_MM?$AA@			; `string'
PUBLIC	??_C@_02LOEMLMCB@my?$AA@			; `string'
PUBLIC	??_C@_05MDPOJNOA@mt_MT?$AA@			; `string'
PUBLIC	??_C@_02LOCMCGM@mt?$AA@				; `string'
PUBLIC	??_C@_05MEHADPLN@ms_MY?$AA@			; `string'
PUBLIC	??_C@_05MKKPPMBG@ms_BN?$AA@			; `string'
PUBLIC	??_C@_02EEKDFEKL@ms?$AA@			; `string'
PUBLIC	??_C@_05PLJKDKEH@mr_IN?$AA@			; `string'
PUBLIC	??_C@_02FNLIGFOK@mr?$AA@			; `string'
PUBLIC	??_C@_06NAMCNOIO@moh_CA?$AA@			; `string'
PUBLIC	??_C@_03PJFIGCIP@moh?$AA@			; `string'
PUBLIC	??_C@_06KMPBLNIC@mni_IN?$AA@			; `string'
PUBLIC	??_C@_03OBIBDJPJ@mni?$AA@			; `string'
PUBLIC	??_C@_0L@DOKBGCOD@mn_Mong_MN?$AA@		; `string'
PUBLIC	??_C@_07GADLENHM@mn_Cyrl?$AA@			; `string'
PUBLIC	??_C@_05FDBNMFBC@mn_CN?$AA@			; `string'
PUBLIC	??_C@_0L@DEDPEPOJ@mn_Mong_CN?$AA@		; `string'
PUBLIC	??_C@_07FMLBHIIB@mn_Mong?$AA@			; `string'
PUBLIC	??_C@_05FJIDOIBI@mn_MN?$AA@			; `string'
PUBLIC	??_C@_02LLMPDILH@mn?$AA@			; `string'
PUBLIC	??_C@_05CEEKBDKE@ml_IN?$AA@			; `string'
PUBLIC	??_C@_02IJPJFKDF@ml?$AA@			; `string'
PUBLIC	??_C@_05OMBEJDCN@mk_MK?$AA@			; `string'
PUBLIC	??_C@_02MGLIMMPC@mk?$AA@			; `string'
PUBLIC	??_C@_05MHELFNAE@mi_NZ?$AA@			; `string'
PUBLIC	??_C@_02PEIOKOHA@mi?$AA@			; `string'
PUBLIC	??_C@_05EBJGBFJA@lv_LV?$AA@			; `string'
PUBLIC	??_C@_02DIBGMKNJ@lv?$AA@			; `string'
PUBLIC	??_C@_05JGACEHC@lt_LT?$AA@			; `string'
PUBLIC	??_C@_02KCAKIFL@lt?$AA@				; `string'
PUBLIC	??_C@_05CJOFGEPF@lo_LA?$AA@			; `string'
PUBLIC	??_C@_02KDBGGDMB@lo?$AA@			; `string'
PUBLIC	??_C@_05PPNLHHBB@lb_LU?$AA@			; `string'
PUBLIC	??_C@_02BGLIBNIM@lb?$AA@			; `string'
PUBLIC	??_C@_05KHKLPOGL@la_IT?$AA@			; `string'
PUBLIC	??_C@_02DNJFEOEP@la?$AA@			; `string'
PUBLIC	??_C@_05IIFFIHGM@ky_KG?$AA@			; `string'
PUBLIC	??_C@_02LKMBMAJD@ky?$AA@			; `string'
PUBLIC	??_C@_0L@NILHDLBH@ks_Deva_IN?$AA@		; `string'
PUBLIC	??_C@_0L@GLFNNPMA@ks_Arab_IN?$AA@		; `string'
PUBLIC	??_C@_05BAKDPAOK@ks_IN?$AA@			; `string'
PUBLIC	??_C@_02EACOCIBJ@ks?$AA@			; `string'
PUBLIC	??_C@_05PJEOHEJG@kr_NG?$AA@			; `string'
PUBLIC	??_C@_02FJDFBJFI@kr?$AA@			; `string'
PUBLIC	??_C@_06HOLNAIHN@kok_IN?$AA@			; `string'
PUBLIC	??_C@_03PHBOGOJA@kok?$AA@			; `string'
PUBLIC	??_C@_05FAEAADFK@ko_KR?$AA@			; `string'
PUBLIC	??_C@_05GCHGGBNI@ko_KP?$AA@			; `string'
PUBLIC	??_C@_02KGFJHFEE@ko?$AA@			; `string'
PUBLIC	??_C@_05IINDKDNJ@kn_IN?$AA@			; `string'
PUBLIC	??_C@_02LPECEEAF@kn?$AA@			; `string'
PUBLIC	??_C@_05JKKNKKOB@km_KH?$AA@			; `string'
PUBLIC	??_C@_02JEGPBHMG@km?$AA@			; `string'
PUBLIC	??_C@_05MKLLLPDB@kl_GL?$AA@			; `string'
PUBLIC	??_C@_02INHECGIH@kl?$AA@			; `string'
PUBLIC	??_C@_05GNBJCPJC@kk_KZ?$AA@			; `string'
PUBLIC	??_C@_02MCDFLAEA@kk?$AA@			; `string'
PUBLIC	??_C@_05ODOJMAMJ@ka_GE?$AA@			; `string'
PUBLIC	??_C@_02DINKFIMK@ka?$AA@			; `string'
PUBLIC	??_C@_05BHNIGGCL@ja_JP?$AA@			; `string'
PUBLIC	??_C@_02DJBIDCPN@ja?$AA@			; `string'
PUBLIC	??_C@_05JKNNJFKD@iw_IL?$AA@			; `string'
PUBLIC	??_C@_02CHMGDJHD@iw?$AA@			; `string'
PUBLIC	??_C@_07KAOOHNCD@iu_Latn?$AA@			; `string'
PUBLIC	??_C@_0L@OPPIGCPE@iu_Latn_CA?$AA@		; `string'
PUBLIC	??_C@_07MMGDKAEI@iu_Cans?$AA@			; `string'
PUBLIC	??_C@_0L@MOFACJG@iu_Cans_CA?$AA@		; `string'
PUBLIC	??_C@_02BFPAFLPB@iu?$AA@			; `string'
PUBLIC	??_C@_05FPGGHHCK@it_IT?$AA@			; `string'
PUBLIC	??_C@_05LEIGKPKB@it_CH?$AA@			; `string'
PUBLIC	??_C@_02MOLGKLA@it?$AA@				; `string'
PUBLIC	??_C@_05KCAHDNPN@is_IS?$AA@			; `string'
PUBLIC	??_C@_02EDKKPMHH@is?$AA@			; `string'
PUBLIC	??_C@_05HKKMFLBE@ii_CN?$AA@			; `string'
PUBLIC	??_C@_02PDIHAGKM@ii?$AA@			; `string'
PUBLIC	??_C@_05BMIGMNGP@ig_NG?$AA@			; `string'
PUBLIC	??_C@_02GNAECLCC@ig?$AA@			; `string'
PUBLIC	??_C@_05HFEEPCPJ@id_ID?$AA@			; `string'
PUBLIC	??_C@_02EGCJHIOB@id?$AA@			; `string'
PUBLIC	??_C@_06IMCBMFDH@ibb_NG?$AA@			; `string'
PUBLIC	??_C@_03IEANIOAB@ibb?$AA@			; `string'
PUBLIC	??_C@_05PJLJJIJO@hy_AM?$AA@			; `string'
PUBLIC	??_C@_02LIIHHOMK@hy?$AA@			; `string'
PUBLIC	??_C@_05LBIDNGEJ@hu_HU?$AA@			; `string'
PUBLIC	??_C@_02BEDCDBMG@hu?$AA@			; `string'
PUBLIC	??_C@_03GLIDJPJL@dsb?$AA@			; `string'
PUBLIC	??_C@_06BKNNJCJN@dsb_DE?$AA@			; `string'
PUBLIC	??_C@_06NNHNPIOJ@hsb_DE?$AA@			; `string'
PUBLIC	??_C@_03CBFFCACD@hsb?$AA@			; `string'
PUBLIC	??_C@_02ELAAOLJA@sr?$AA@			; `string'
PUBLIC	??_C@_07KJHEJINP@sr_Cyrl?$AA@			; `string'
PUBLIC	??_C@_0L@FOFCMCO@sr_Cyrl_RS?$AA@		; `string'
PUBLIC	??_C@_0L@OAHHNLE@sr_Cyrl_ME?$AA@		; `string'
PUBLIC	??_C@_0L@BIABOFGJ@sr_Cyrl_CS?$AA@		; `string'
PUBLIC	??_C@_0L@GBDHPPIN@sr_Cyrl_BA?$AA@		; `string'
PUBLIC	??_C@_07IIDCGOEO@sr_Latn?$AA@			; `string'
PUBLIC	??_C@_0L@DJIJJFBB@sr_Latn_CS?$AA@		; `string'
PUBLIC	??_C@_0L@EALPIPPF@sr_Latn_BA?$AA@		; `string'
PUBLIC	??_C@_0L@CEGNFMFG@sr_Latn_RS?$AA@		; `string'
PUBLIC	??_C@_0L@CPIPANMM@sr_Latn_ME?$AA@		; `string'
PUBLIC	??_C@_05EMOCJMJO@hr_HR?$AA@			; `string'
PUBLIC	??_C@_05CAJKFINK@hr_BA?$AA@			; `string'
PUBLIC	??_C@_07LPBCKCNO@bs_Cyrl?$AA@			; `string'
PUBLIC	??_C@_0L@OBINIPLI@bs_Cyrl_BA?$AA@		; `string'
PUBLIC	??_C@_02EPPPBDJG@bs?$AA@			; `string'
PUBLIC	??_C@_05LMGBFCAM@bs_BA?$AA@			; `string'
PUBLIC	??_C@_07JOFEFEEP@bs_Latn?$AA@			; `string'
PUBLIC	??_C@_0L@MAAFPPMA@bs_Latn_BA?$AA@		; `string'
PUBLIC	??_C@_02FLHDKHAB@hr?$AA@			; `string'
PUBLIC	??_C@_05LMGHANGH@hi_IN?$AA@			; `string'
PUBLIC	??_C@_02PCEFGMJL@hi?$AA@			; `string'
PUBLIC	??_C@_05ELKBICOE@he_IL?$AA@			; `string'
PUBLIC	??_C@_02FOPACDJH@he?$AA@			; `string'
PUBLIC	??_C@_06DKBPDPBL@haw_US?$AA@			; `string'
PUBLIC	??_C@_03JECLBCJ@haw?$AA@			; `string'
PUBLIC	??_C@_0L@FOLBKIHD@ha_Latn_NG?$AA@		; `string'
PUBLIC	??_C@_07PPNFMFGA@ha_Latn?$AA@			; `string'
PUBLIC	??_C@_02DKJMOGJD@ha?$AA@			; `string'
PUBLIC	??_C@_06IFDCMAAK@gsw_FR?$AA@			; `string'
PUBLIC	??_C@_03EOIDNGGB@gsw?$AA@			; `string'
PUBLIC	??_C@_05OJGFHPML@gn_PY?$AA@			; `string'
PUBLIC	??_C@_02LGFILNGB@gn?$AA@			; `string'
PUBLIC	??_C@_05OICBMFDB@gu_IN?$AA@			; `string'
PUBLIC	??_C@_02BPGOHGPL@gu?$AA@			; `string'
PUBLIC	??_C@_05HDKHKFLK@gl_ES?$AA@			; `string'
PUBLIC	??_C@_02IEGONPOD@gl?$AA@			; `string'
PUBLIC	??_C@_02EMLHFFOL@gd?$AA@			; `string'
PUBLIC	??_C@_05BDIKBJAF@gd_GB?$AA@			; `string'
PUBLIC	??_C@_05JOLFCNLI@ga_IE?$AA@			; `string'
PUBLIC	??_C@_02DBMAKBKO@ga?$AA@			; `string'
PUBLIC	??_C@_05NBPEIPJC@fy_NL?$AA@			; `string'
PUBLIC	??_C@_02LCBJFDMA@fy?$AA@			; `string'
PUBLIC	??_C@_06PBNKLGLP@fuv_NG?$AA@			; `string'
PUBLIC	??_C@_03OLKJPMPH@fuv?$AA@			; `string'
PUBLIC	??_C@_06KPBMOJGL@fr_029?$AA@			; `string'
PUBLIC	??_C@_06BOPBIDO@fr_015?$AA@			; `string'
PUBLIC	??_C@_05IAOMOMCC@fr_SN?$AA@			; `string'
PUBLIC	??_C@_05GCNKFPNO@fr_RE?$AA@			; `string'
PUBLIC	??_C@_05KEGCAANK@fr_ML?$AA@			; `string'
PUBLIC	??_C@_05CDPKBMBF@fr_MC?$AA@			; `string'
PUBLIC	??_C@_05BBMMHOJH@fr_MA?$AA@			; `string'
PUBLIC	??_C@_05DOKAMDPF@fr_LU?$AA@			; `string'
PUBLIC	??_C@_05CALCFKGI@fr_HT?$AA@			; `string'
PUBLIC	??_C@_05HMHGNAOE@fr_FR?$AA@			; `string'
PUBLIC	??_C@_05LHOHBMJB@fr_CM?$AA@			; `string'
PUBLIC	??_C@_05NDILNJJF@fr_CI?$AA@			; `string'
PUBLIC	??_C@_05MKJAOINE@fr_CH?$AA@			; `string'
PUBLIC	??_C@_05ENAIPEBL@fr_CG?$AA@			; `string'
PUBLIC	??_C@_05GGCFKHNI@fr_CD?$AA@			; `string'
PUBLIC	??_C@_05BLFCFDJN@fr_CA?$AA@			; `string'
PUBLIC	??_C@_05HOPMPMKO@fr_BE?$AA@			; `string'
PUBLIC	??_C@_02FBONIKAL@fr?$AA@			; `string'
PUBLIC	??_C@_05BLGKOPML@fo_FO?$AA@			; `string'
PUBLIC	??_C@_02KOIBOGBH@fo?$AA@			; `string'
PUBLIC	??_C@_06DOLOGJMJ@fil_PH?$AA@			; `string'
PUBLIC	??_C@_03EOLIFMDI@fil?$AA@			; `string'
PUBLIC	??_C@_05MCHALNON@fi_FI?$AA@			; `string'
PUBLIC	??_C@_02PINLEBJB@fi?$AA@			; `string'
PUBLIC	??_C@_0L@CLCHBDGG@ff_Latn_SN?$AA@		; `string'
PUBLIC	??_C@_07CPPIOJNM@ff_Latn?$AA@			; `string'
PUBLIC	??_C@_02HPEDFNFO@ff?$AA@			; `string'
PUBLIC	??_C@_05HANHPMGG@fa_AF?$AA@			; `string'
PUBLIC	??_C@_05FAGKHKIL@fa_IR?$AA@			; `string'
PUBLIC	??_C@_02DAACMLJJ@fa?$AA@			; `string'
PUBLIC	??_C@_05FDJPPBEC@eu_ES?$AA@			; `string'
PUBLIC	??_C@_02BMOKKCJF@eu?$AA@			; `string'
PUBLIC	??_C@_05HCGHGNCF@et_EE?$AA@			; `string'
PUBLIC	??_C@_02FPBJDNE@et?$AA@				; `string'
PUBLIC	??_C@_0BJ@HGPOFGAD@es?$EAcollation?$DNtraditional?$AA@ ; `string'
PUBLIC	??_C@_0BM@BNNDGDKC@es_ES?$EAcollation?$DNtraditional?$AA@ ; `string'
PUBLIC	??_C@_06NIIMAJFN@es_419?$AA@			; `string'
PUBLIC	??_C@_05NOCHKMBM@es_VE?$AA@			; `string'
PUBLIC	??_C@_05DKBGEPBI@es_UY?$AA@			; `string'
PUBLIC	??_C@_05MAPJKHJC@es_US?$AA@			; `string'
PUBLIC	??_C@_05LJADCPGF@es_SV?$AA@			; `string'
PUBLIC	??_C@_05DMNNINPD@es_PY?$AA@			; `string'
PUBLIC	??_C@_05NPCJFEDI@es_PR?$AA@			; `string'
PUBLIC	??_C@_05NKKKNAKO@es_PE?$AA@			; `string'
PUBLIC	??_C@_05LOMGBFKK@es_PA?$AA@			; `string'
PUBLIC	??_C@_05GAKHBBNI@es_NI?$AA@			; `string'
PUBLIC	??_C@_05DBDIIMJB@es_MX?$AA@			; `string'
PUBLIC	??_C@_05CLGLPLKN@es_HN?$AA@			; `string'
PUBLIC	??_C@_05JABKEGEL@es_GT?$AA@			; `string'
PUBLIC	??_C@_05NMNPAEOC@es_ES?$AA@			; `string'
PUBLIC	??_C@_05JGBNBGLD@es_EC?$AA@			; `string'
PUBLIC	??_C@_05DLGKDDII@es_DO?$AA@			; `string'
PUBLIC	??_C@_05MBEJEJBB@es_CR?$AA@			; `string'
PUBLIC	??_C@_05DOCFCFAN@es_CO?$AA@			; `string'
PUBLIC	??_C@_05BFAIHGMO@es_CL?$AA@			; `string'
PUBLIC	??_C@_05DPOHEPDK@es_BO?$AA@			; `string'
PUBLIC	??_C@_05MCMNJNHP@es_AR?$AA@			; `string'
PUBLIC	??_C@_02EKLAAFBD@es?$AA@			; `string'
PUBLIC	??_C@_05IMMIMLHO@en_UM?$AA@			; `string'
PUBLIC	??_C@_05GBJBFFKK@en_MP?$AA@			; `string'
PUBLIC	??_C@_05ODIKMNPD@en_MH?$AA@			; `string'
PUBLIC	??_C@_05BBHBCEDJ@en_GU?$AA@			; `string'
PUBLIC	??_C@_05EDKGPPAN@en_AS?$AA@			; `string'
PUBLIC	??_C@_06OKOADBBG@en_029?$AA@			; `string'
PUBLIC	??_C@_05DHLJHGJI@en_ZW?$AA@			; `string'
PUBLIC	??_C@_05CLCBMDEP@en_ZA?$AA@			; `string'
PUBLIC	??_C@_05OKOCLACD@en_VI?$AA@			; `string'
PUBLIC	??_C@_0M@EKCLCNAB@en_US_POSIX?$AA@		; `string'
PUBLIC	??_C@_05FIIJPEKB@en_US?$AA@			; `string'
PUBLIC	??_C@_05BGAKAIFB@en_TT?$AA@			; `string'
PUBLIC	??_C@_05HCKKFPEG@en_SG?$AA@			; `string'
PUBLIC	??_C@_05PHHEPNNA@en_PH?$AA@			; `string'
PUBLIC	??_C@_05JJDIADHJ@en_NZ?$AA@			; `string'
PUBLIC	??_C@_05LAFDOOOD@en_MY?$AA@			; `string'
PUBLIC	??_C@_05JLLCCPDD@en_JM?$AA@			; `string'
PUBLIC	??_C@_05LCNJMCKJ@en_IN?$AA@			; `string'
PUBLIC	??_C@_05FBCNBLGC@en_IE?$AA@			; `string'
PUBLIC	??_C@_05EIDGCKCD@en_ID?$AA@			; `string'
PUBLIC	??_C@_05MOGMFMNL@en_HK?$AA@			; `string'
PUBLIC	??_C@_05BEPCKAKP@en_GB?$AA@			; `string'
PUBLIC	??_C@_05DINGFLLA@en_CA?$AA@			; `string'
PUBLIC	??_C@_05JACCPKBN@en_BZ?$AA@			; `string'
PUBLIC	??_C@_05BFPMFIIL@en_AU?$AA@			; `string'
PUBLIC	??_C@_02LFNMGJAP@en?$AA@			; `string'
PUBLIC	??_C@_05CEPAOBJO@el_GR?$AA@			; `string'
PUBLIC	??_C@_02IHOKALIN@el?$AA@			; `string'
PUBLIC	??_C@_05KMAHPNMK@dv_MV?$AA@			; `string'
PUBLIC	??_C@_02DGAFJLGB@dv?$AA@			; `string'
PUBLIC	??_C@_0BH@COMEHOCI@de?$EAcollation?$DNphonebook?$AA@ ; `string'
PUBLIC	??_C@_0BK@PHPOLKNI@de_DE?$EAcollation?$DNphonebook?$AA@ ; `string'
PUBLIC	??_C@_05KBKICJGM@de_LU?$AA@			; `string'
PUBLIC	??_C@_05EHNPHEDB@de_LI?$AA@			; `string'
PUBLIC	??_C@_05OFHJGKIF@de_DE?$AA@			; `string'
PUBLIC	??_C@_05FFJIACEN@de_CH?$AA@			; `string'
PUBLIC	??_C@_05LAGLILHO@de_AT?$AA@			; `string'
PUBLIC	??_C@_02FHOKNKPD@de?$AA@			; `string'
PUBLIC	??_C@_05IOHKOBML@da_DK?$AA@			; `string'
PUBLIC	??_C@_02DDIGBPPH@da?$AA@			; `string'
PUBLIC	??_C@_05BAGLAICA@cy_GB?$AA@			; `string'
PUBLIC	??_C@_02LENCJBCL@cy?$AA@			; `string'
PUBLIC	??_C@_05NPMJCAAE@cs_CZ?$AA@			; `string'
PUBLIC	??_C@_02EODNHJKB@cs?$AA@			; `string'
PUBLIC	??_C@_0L@KLBJKBBJ@ku_Arab_IQ?$AA@		; `string'
PUBLIC	??_C@_0M@CBPFPCPD@ckb_Arab_IQ?$AA@		; `string'
PUBLIC	??_C@_07OOKPGIAJ@ku_Arab?$AA@			; `string'
PUBLIC	??_C@_08KKBDLMOP@ckb_Arab?$AA@			; `string'
PUBLIC	??_C@_02BGHEIPJP@ku?$AA@			; `string'
PUBLIC	??_C@_03OEGBFFOK@ckb?$AA@			; `string'
PUBLIC	??_C@_06NHPHLFFJ@chr_US?$AA@			; `string'
PUBLIC	??_C@_03KMOFPJOC@chr?$AA@			; `string'
PUBLIC	??_C@_05LEMLBCGE@co_FR?$AA@			; `string'
PUBLIC	??_C@_02KIEKCEPM@co?$AA@			; `string'
PUBLIC	??_C@_0P@IFMOFODE@ca_ES_VALENCIA?$AA@		; `string'
PUBLIC	??_C@_05BAKGCDBN@ca_ES?$AA@			; `string'
PUBLIC	??_C@_02DGMJAJHC@ca?$AA@			; `string'
PUBLIC	??_C@_05OHOHJCPC@br_FR?$AA@			; `string'
PUBLIC	??_C@_02FGOECCNH@br?$AA@			; `string'
PUBLIC	??_C@_05JPCLFOHH@bo_CN?$AA@			; `string'
PUBLIC	??_C@_05COMEMOJL@bo_BT?$AA@			; `string'
PUBLIC	??_C@_02KJIIEOML@bo?$AA@			; `string'
PUBLIC	??_C@_05KPNMPCBB@bn_IN?$AA@			; `string'
PUBLIC	??_C@_05FJGGPFHK@bn_BD?$AA@			; `string'
PUBLIC	??_C@_02LAJDHPIK@bn?$AA@			; `string'
PUBLIC	??_C@_06CBBBIMAP@bin_NG?$AA@			; `string'
PUBLIC	??_C@_03PDOMKJON@bin?$AA@			; `string'
PUBLIC	??_C@_05HPFLMEMI@bg_BG?$AA@			; `string'
PUBLIC	??_C@_02GBFBMEMD@bg?$AA@			; `string'
PUBLIC	??_C@_05NBNKKIHH@be_BY?$AA@			; `string'
PUBLIC	??_C@_02FDGHKGEB@be?$AA@			; `string'
PUBLIC	??_C@_05JEMJOCML@ba_RU?$AA@			; `string'
PUBLIC	??_C@_02DHALGDEF@ba?$AA@			; `string'
PUBLIC	??_C@_05JMJFDHBA@az_AZ?$AA@			; `string'
PUBLIC	??_C@_07IFEDBGHP@az_Latn?$AA@			; `string'
PUBLIC	??_C@_0L@OICMHMI@az_Latn_AZ?$AA@		; `string'
PUBLIC	??_C@_07KEAFOAOO@az_Cyrl?$AA@			; `string'
PUBLIC	??_C@_0L@CPAKLHLA@az_Cyrl_AZ?$AA@		; `string'
PUBLIC	??_C@_02JMHLBGIG@az?$AA@			; `string'
PUBLIC	??_C@_06JCMECOFC@arn_CL?$AA@			; `string'
PUBLIC	??_C@_03PBCKEKJC@arn?$AA@			; `string'
PUBLIC	??_C@_05NHNPPJNA@am_ET?$AA@			; `string'
PUBLIC	??_C@_02JJPIJCBA@am?$AA@			; `string'
PUBLIC	??_C@_05LBDINDIM@as_IN?$AA@			; `string'
PUBLIC	??_C@_02ENLJKNMP@as?$AA@			; `string'
PUBLIC	??_C@_05HDIKIAIH@ar_YE?$AA@			; `string'
PUBLIC	??_C@_05JIKGMKBP@ar_TN?$AA@			; `string'
PUBLIC	??_C@_05JIGKFIAM@ar_SY?$AA@			; `string'
PUBLIC	??_C@_05BKHBMAFF@ar_SA?$AA@			; `string'
PUBLIC	??_C@_05BJPFBEDL@ar_QA?$AA@			; `string'
PUBLIC	??_C@_05KDPINFEN@ar_OM?$AA@			; `string'
PUBLIC	??_C@_05JCEKGDKB@ar_MO?$AA@			; `string'
PUBLIC	??_C@_05MMJEOCP@ar_MA?$AA@			; `string'
PUBLIC	??_C@_05IPBALMEB@ar_LY?$AA@			; `string'
PUBLIC	??_C@_05CGCGHHNL@ar_LB?$AA@			; `string'
PUBLIC	??_C@_05BENMIHEK@ar_KW?$AA@			; `string'
PUBLIC	??_C@_05JHAFHFCE@ar_JO?$AA@			; `string'
PUBLIC	??_C@_05EBACPEKC@ar_IQ?$AA@			; `string'
PUBLIC	??_C@_05FEIALIBB@ar_EG?$AA@			; `string'
PUBLIC	??_C@_05KKCOLODK@ar_DZ?$AA@			; `string'
PUBLIC	??_C@_05NGFHLCFL@ar_BH?$AA@			; `string'
PUBLIC	??_C@_05GBLPHCEP@ar_AE?$AA@			; `string'
PUBLIC	??_C@_02FEKCJMIO@ar?$AA@			; `string'
PUBLIC	??_C@_05IAMAMKJI@af_ZA?$AA@			; `string'
PUBLIC	??_C@_02HKAMELNL@af?$AA@			; `string'
;	COMDAT ??_C@_05MOJBNFJC@zu_ZA?$AA@
CONST	SEGMENT
??_C@_05MOJBNFJC@zu_ZA?$AA@ DB 'zu_ZA', 00H		; `string'
CONST	ENDS
;	COMDAT ??_C@_02LJAEGNI@zu?$AA@
CONST	SEGMENT
??_C@_02LJAEGNI@zu?$AA@ DB 'zu', 00H			; `string'
CONST	ENDS
;	COMDAT ??_C@_0BH@CFGINEKD@zh_CN?$EAcollation?$DNstroke?$AA@
CONST	SEGMENT
??_C@_0BH@CFGINEKD@zh_CN?$EAcollation?$DNstroke?$AA@ DB 'zh_CN@collation='
	DB	'stroke', 00H				; `string'
CONST	ENDS
;	COMDAT ??_C@_0BM@EAKCGOGA@zh_Hans_CN?$EAcollation?$DNstroke?$AA@
CONST	SEGMENT
??_C@_0BM@EAKCGOGA@zh_Hans_CN?$EAcollation?$DNstroke?$AA@ DB 'zh_Hans_CN@'
	DB	'collation=stroke', 00H			; `string'
CONST	ENDS
;	COMDAT ??_C@_0BJ@OLIPOEKH@zh_Hans?$EAcollation?$DNstroke?$AA@
CONST	SEGMENT
??_C@_0BJ@OLIPOEKH@zh_Hans?$EAcollation?$DNstroke?$AA@ DB 'zh_Hans@collat'
	DB	'ion=stroke', 00H				; `string'
CONST	ENDS
;	COMDAT ??_C@_0BH@OJOLHPMC@zh_TW?$EAcollation?$DNstroke?$AA@
CONST	SEGMENT
??_C@_0BH@OJOLHPMC@zh_TW?$EAcollation?$DNstroke?$AA@ DB 'zh_TW@collation='
	DB	'stroke', 00H				; `string'
CONST	ENDS
;	COMDAT ??_C@_0BM@OJPIPLEB@zh_Hant_TW?$EAcollation?$DNstroke?$AA@
CONST	SEGMENT
??_C@_0BM@OJPIPLEB@zh_Hant_TW?$EAcollation?$DNstroke?$AA@ DB 'zh_Hant_TW@'
	DB	'collation=stroke', 00H			; `string'
CONST	ENDS
;	COMDAT ??_C@_0BJ@KBLBGPOM@zh_Hant?$EAcollation?$DNstroke?$AA@
CONST	SEGMENT
??_C@_0BJ@KBLBGPOM@zh_Hant?$EAcollation?$DNstroke?$AA@ DB 'zh_Hant@collat'
	DB	'ion=stroke', 00H				; `string'
CONST	ENDS
;	COMDAT ??_C@_0BE@CDDEEKL@zh?$EAcollation?$DNstroke?$AA@
CONST	SEGMENT
??_C@_0BE@CDDEEKL@zh?$EAcollation?$DNstroke?$AA@ DB 'zh@collation=stroke', 00H ; `string'
CONST	ENDS
;	COMDAT ??_C@_05EAOHBOHM@zh_TW?$AA@
CONST	SEGMENT
??_C@_05EAOHBOHM@zh_TW?$AA@ DB 'zh_TW', 00H		; `string'
CONST	ENDS
;	COMDAT ??_C@_07MPMMFI@zh_Hant?$AA@
CONST	SEGMENT
??_C@_07MPMMFI@zh_Hant?$AA@ DB 'zh_Hant', 00H		; `string'
CONST	ENDS
;	COMDAT ??_C@_0L@DBKGKGA@zh_Hant_TW?$AA@
CONST	SEGMENT
??_C@_0L@DBKGKGA@zh_Hant_TW?$AA@ DB 'zh_Hant_TW', 00H	; `string'
CONST	ENDS
;	COMDAT ??_C@_05PGKBKKI@zh_SG?$AA@
CONST	SEGMENT
??_C@_05PGKBKKI@zh_SG?$AA@ DB 'zh_SG', 00H		; `string'
CONST	ENDS
;	COMDAT ??_C@_0L@POLHLCKE@zh_Hans_SG?$AA@
CONST	SEGMENT
??_C@_0L@POLHLCKE@zh_Hans_SG?$AA@ DB 'zh_Hans_SG', 00H	; `string'
CONST	ENDS
;	COMDAT ??_C@_05NBALBONK@zh_MO?$AA@
CONST	SEGMENT
??_C@_05NBALBONK@zh_MO?$AA@ DB 'zh_MO', 00H		; `string'
CONST	ENDS
;	COMDAT ??_C@_0L@JCPGGKMG@zh_Hant_MO?$AA@
CONST	SEGMENT
??_C@_0L@JCPGGKMG@zh_Hant_MO?$AA@ DB 'zh_Hant_MO', 00H	; `string'
CONST	ENDS
;	COMDAT ??_C@_05LDKMBJDF@zh_HK?$AA@
CONST	SEGMENT
??_C@_05LDKMBJDF@zh_HK?$AA@ DB 'zh_HK', 00H		; `string'
CONST	ENDS
;	COMDAT ??_C@_0L@PAFBGNCJ@zh_Hant_HK?$AA@
CONST	SEGMENT
??_C@_0L@PAFBGNCJ@zh_Hant_HK?$AA@ DB 'zh_Hant_HK', 00H	; `string'
CONST	ENDS
;	COMDAT ??_C@_0L@DDFDKKJN@zh_Hans_CN?$AA@
CONST	SEGMENT
??_C@_0L@DDFDKKJN@zh_Hans_CN?$AA@ DB 'zh_Hans_CN', 00H	; `string'
CONST	ENDS
;	COMDAT ??_C@_05MCIOACJB@zh_CN?$AA@
CONST	SEGMENT
??_C@_05MCIOACJB@zh_CN?$AA@ DB 'zh_CN', 00H		; `string'
CONST	ENDS
;	COMDAT ??_C@_02PEPMCKME@zh?$AA@
CONST	SEGMENT
??_C@_02PEPMCKME@zh?$AA@ DB 'zh', 00H			; `string'
CONST	ENDS
;	COMDAT ??_C@_07EPIOFKJP@zh_Hans?$AA@
CONST	SEGMENT
??_C@_07EPIOFKJP@zh_Hans?$AA@ DB 'zh_Hans', 00H		; `string'
CONST	ENDS
;	COMDAT ??_C@_05CPCAIEDF@yo_NG?$AA@
CONST	SEGMENT
??_C@_05CPCAIEDF@yo_NG?$AA@ DB 'yo_NG', 00H		; `string'
CONST	ENDS
;	COMDAT ??_C@_02LJPLACFK@yo?$AA@
CONST	SEGMENT
??_C@_02LJPLACFK@yo?$AA@ DB 'yo', 00H			; `string'
CONST	ENDS
;	COMDAT ??_C@_02OPKBKFNM@yi?$AA@
CONST	SEGMENT
??_C@_02OPKBKFNM@yi?$AA@ DB 'yi', 00H			; `string'
CONST	ENDS
;	COMDAT ??_C@_05BLCJCHKK@xh_ZA?$AA@
CONST	SEGMENT
??_C@_05BLCJCHKK@xh_ZA?$AA@ DB 'xh_ZA', 00H		; `string'
CONST	ENDS
;	COMDAT ??_C@_02PHHIPOKK@xh?$AA@
CONST	SEGMENT
??_C@_02PHHIPOKK@xh?$AA@ DB 'xh', 00H			; `string'
CONST	ENDS
;	COMDAT ??_C@_05NABGGOCP@wo_SN?$AA@
CONST	SEGMENT
??_C@_05NABGGOCP@wo_SN?$AA@ DB 'wo_SN', 00H		; `string'
CONST	ENDS
;	COMDAT ??_C@_02LDGFCPFA@wo?$AA@
CONST	SEGMENT
??_C@_02LDGFCPFA@wo?$AA@ DB 'wo', 00H			; `string'
CONST	ENDS
;	COMDAT ??_C@_05JCMBIKMB@vi_VN?$AA@
CONST	SEGMENT
??_C@_05JCMBIKMB@vi_VN?$AA@ DB 'vi_VN', 00H		; `string'
CONST	ENDS
;	COMDAT ??_C@_02OEPNOCOB@vi?$AA@
CONST	SEGMENT
??_C@_02OEPNOCOB@vi?$AA@ DB 'vi', 00H			; `string'
CONST	ENDS
;	COMDAT ??_C@_06IIDHFIID@ven_ZA?$AA@
CONST	SEGMENT
??_C@_06IIDHFIID@ven_ZA?$AA@ DB 'ven_ZA', 00H		; `string'
CONST	ENDS
;	COMDAT ??_C@_05NJLDICGL@ve_ZA?$AA@
CONST	SEGMENT
??_C@_05NJLDICGL@ve_ZA?$AA@ DB 've_ZA', 00H		; `string'
CONST	ENDS
;	COMDAT ??_C@_02EIEIKNON@ve?$AA@
CONST	SEGMENT
??_C@_02EIEIKNON@ve?$AA@ DB 've', 00H			; `string'
CONST	ENDS
;	COMDAT ??_C@_07HNLCCJKO@uz_Latn?$AA@
CONST	SEGMENT
??_C@_07HNLCCJKO@uz_Latn?$AA@ DB 'uz_Latn', 00H		; `string'
CONST	ENDS
;	COMDAT ??_C@_0L@LICHLCN@uz_Latn_UZ?$AA@
CONST	SEGMENT
??_C@_0L@LICHLCN@uz_Latn_UZ?$AA@ DB 'uz_Latn_UZ', 00H	; `string'
CONST	ENDS
;	COMDAT ??_C@_05BPPNHMDB@uz_UZ?$AA@
CONST	SEGMENT
??_C@_05BPPNHMDB@uz_UZ?$AA@ DB 'uz_UZ', 00H		; `string'
CONST	ENDS
;	COMDAT ??_C@_07FMPENPDP@uz_Cyrl?$AA@
CONST	SEGMENT
??_C@_07FMPENPDP@uz_Cyrl?$AA@ DB 'uz_Cyrl', 00H		; `string'
CONST	ENDS
;	COMDAT ??_C@_0L@CKAKALFF@uz_Cyrl_UZ?$AA@
CONST	SEGMENT
??_C@_0L@CKAKALFF@uz_Cyrl_UZ?$AA@ DB 'uz_Cyrl_UZ', 00H	; `string'
CONST	ENDS
;	COMDAT ??_C@_02IHFEBNCK@uz?$AA@
CONST	SEGMENT
??_C@_02IHFEBNCK@uz?$AA@ DB 'uz', 00H			; `string'
CONST	ENDS
;	COMDAT ??_C@_05HKJPNGAL@ur_PK?$AA@
CONST	SEGMENT
??_C@_05HKJPNGAL@ur_PK?$AA@ DB 'ur_PK', 00H		; `string'
CONST	ENDS
;	COMDAT ??_C@_05BEBPLKLB@ur_IN?$AA@
CONST	SEGMENT
??_C@_05BEBPLKLB@ur_IN?$AA@ DB 'ur_IN', 00H		; `string'
CONST	ENDS
;	COMDAT ??_C@_02EPINJHCC@ur?$AA@
CONST	SEGMENT
??_C@_02EPINJHCC@ur?$AA@ DB 'ur', 00H			; `string'
CONST	ENDS
;	COMDAT ??_C@_05OLELAJJJ@uk_UA?$AA@
CONST	SEGMENT
??_C@_05OLELAJJJ@uk_UA?$AA@ DB 'uk_UA', 00H		; `string'
CONST	ENDS
;	COMDAT ??_C@_02NEINDODK@uk?$AA@
CONST	SEGMENT
??_C@_02NEINDODK@uk?$AA@ DB 'uk', 00H			; `string'
CONST	ENDS
;	COMDAT ??_C@_0L@LEAPJEEJ@ug_Arab_CN?$AA@
CONST	SEGMENT
??_C@_0L@LEAPJEEJ@ug_Arab_CN?$AA@ DB 'ug_Arab_CN', 00H	; `string'
CONST	ENDS
;	COMDAT ??_C@_05LBIICHJF@ug_CN?$AA@
CONST	SEGMENT
??_C@_05LBIICHJF@ug_CN?$AA@ DB 'ug_CN', 00H		; `string'
CONST	ENDS
;	COMDAT ??_C@_02HIDIHBDG@ug?$AA@
CONST	SEGMENT
??_C@_02HIDIHBDG@ug?$AA@ DB 'ug', 00H			; `string'
CONST	ENDS
;	COMDAT ??_C@_03KPDJNOCH@tmz?$AA@
CONST	SEGMENT
??_C@_03KPDJNOCH@tmz?$AA@ DB 'tmz', 00H			; `string'
CONST	ENDS
;	COMDAT ??_C@_0M@BELBLGLM@tzm_Tfng_MA?$AA@
CONST	SEGMENT
??_C@_0M@BELBLGLM@tzm_Tfng_MA?$AA@ DB 'tzm_Tfng_MA', 00H ; `string'
CONST	ENDS
;	COMDAT ??_C@_0M@HHPCBBDF@tzm_Latn_DZ?$AA@
CONST	SEGMENT
??_C@_0M@HHPCBBDF@tzm_Latn_DZ?$AA@ DB 'tzm_Latn_DZ', 00H ; `string'
CONST	ENDS
;	COMDAT ??_C@_08CIIPMAFM@tzm_Latn?$AA@
CONST	SEGMENT
??_C@_08CIIPMAFM@tzm_Latn?$AA@ DB 'tzm_Latn', 00H	; `string'
CONST	ENDS
;	COMDAT ??_C@_03LDNDOPEE@tzm?$AA@
CONST	SEGMENT
??_C@_03LDNDOPEE@tzm?$AA@ DB 'tzm', 00H			; `string'
CONST	ENDS
;	COMDAT ??_C@_05OJEGBLLP@tt_RU?$AA@
CONST	SEGMENT
??_C@_05OJEGBLLP@tt_RU?$AA@ DB 'tt_RU', 00H		; `string'
CONST	ENDS
;	COMDAT ??_C@_02BIBFFKJD@tt?$AA@
CONST	SEGMENT
??_C@_02BIBFFKJD@tt?$AA@ DB 'tt', 00H			; `string'
CONST	ENDS
;	COMDAT ??_C@_05HLNLEBEC@ts_ZA?$AA@
CONST	SEGMENT
??_C@_05HLNLEBEC@ts_ZA?$AA@ DB 'ts_ZA', 00H		; `string'
CONST	ENDS
;	COMDAT ??_C@_02FHFEMMFE@ts?$AA@
CONST	SEGMENT
??_C@_02FHFEMMFE@ts?$AA@ DB 'ts', 00H			; `string'
CONST	ENDS
;	COMDAT ??_C@_05CNMKAEGK@tr_TR?$AA@
CONST	SEGMENT
??_C@_05CNMKAEGK@tr_TR?$AA@ DB 'tr_TR', 00H		; `string'
CONST	ENDS
;	COMDAT ??_C@_02EOEPPNBF@tr?$AA@
CONST	SEGMENT
??_C@_02EOEPPNBF@tr?$AA@ DB 'tr', 00H			; `string'
CONST	ENDS
;	COMDAT ??_C@_05ODKLBCHB@tn_ZA?$AA@
CONST	SEGMENT
??_C@_05ODKLBCHB@tn_ZA?$AA@ DB 'tn_ZA', 00H		; `string'
CONST	ENDS
;	COMDAT ??_C@_05ONAGFFGO@tn_BW?$AA@
CONST	SEGMENT
??_C@_05ONAGFFGO@tn_BW?$AA@ DB 'tn_BW', 00H		; `string'
CONST	ENDS
;	COMDAT ??_C@_02KIDIKAEI@tn?$AA@
CONST	SEGMENT
??_C@_02KIDIKAEI@tn?$AA@ DB 'tn', 00H			; `string'
CONST	ENDS
;	COMDAT ??_C@_05INGAPPAH@tk_TM?$AA@
CONST	SEGMENT
??_C@_05INGAPPAH@tk_TM?$AA@ DB 'tk_TM', 00H		; `string'
CONST	ENDS
;	COMDAT ??_C@_02NFEPFEAN@tk?$AA@
CONST	SEGMENT
??_C@_02NFEPFEAN@tk?$AA@ DB 'tk', 00H			; `string'
CONST	ENDS
;	COMDAT ??_C@_05HBEEMMDI@ti_ET?$AA@
CONST	SEGMENT
??_C@_05HBEEMMDI@ti_ET?$AA@ DB 'ti_ET', 00H		; `string'
CONST	ENDS
;	COMDAT ??_C@_05CHBOGLLO@ti_ER?$AA@
CONST	SEGMENT
??_C@_05CHBOGLLO@ti_ER?$AA@ DB 'ti_ER', 00H		; `string'
CONST	ENDS
;	COMDAT ??_C@_02OHHJDGIP@ti?$AA@
CONST	SEGMENT
??_C@_02OHHJDGIP@ti?$AA@ DB 'ti', 00H			; `string'
CONST	ENDS
;	COMDAT ??_C@_05LHLHHBJC@th_TH?$AA@
CONST	SEGMENT
??_C@_05LHLHHBJC@th_TH?$AA@ DB 'th_TH', 00H		; `string'
CONST	ENDS
;	COMDAT ??_C@_02POGCAHMO@th?$AA@
CONST	SEGMENT
??_C@_02POGCAHMO@th?$AA@ DB 'th', 00H			; `string'
CONST	ENDS
;	COMDAT ??_C@_0L@HCNEKGKL@tg_Cyrl_TJ?$AA@
CONST	SEGMENT
??_C@_0L@HCNEKGKL@tg_Cyrl_TJ?$AA@ DB 'tg_Cyrl_TJ', 00H	; `string'
CONST	ENDS
;	COMDAT ??_C@_07JGFHCCKP@tg_Cyrl?$AA@
CONST	SEGMENT
??_C@_07JGFHCCKP@tg_Cyrl?$AA@ DB 'tg_Cyrl', 00H		; `string'
CONST	ENDS
;	COMDAT ??_C@_02HJPKBLAB@tg?$AA@
CONST	SEGMENT
??_C@_02HJPKBLAB@tg?$AA@ DB 'tg', 00H			; `string'
CONST	ENDS
;	COMDAT ??_C@_05NIDCCIG@te_IN?$AA@
CONST	SEGMENT
??_C@_05NIDCCIG@te_IN?$AA@ DB 'te_IN', 00H		; `string'
CONST	ENDS
;	COMDAT ??_C@_02ELMMHJID@te?$AA@
CONST	SEGMENT
??_C@_02ELMMHJID@te?$AA@ DB 'te', 00H			; `string'
CONST	ENDS
;	COMDAT ??_C@_05IDLPLCOI@ta_LK?$AA@
CONST	SEGMENT
??_C@_05IDLPLCOI@ta_LK?$AA@ DB 'ta_LK', 00H		; `string'
CONST	ENDS
;	COMDAT ??_C@_05PIADIEEG@ta_IN?$AA@
CONST	SEGMENT
??_C@_05PIADIEEG@ta_IN?$AA@ DB 'ta_IN', 00H		; `string'
CONST	ENDS
;	COMDAT ??_C@_02CPKALMIH@ta?$AA@
CONST	SEGMENT
??_C@_02CPKALMIH@ta?$AA@ DB 'ta', 00H			; `string'
CONST	ENDS
;	COMDAT ??_C@_06IGMBGMJB@syr_SY?$AA@
CONST	SEGMENT
??_C@_06IGMBGMJB@syr_SY?$AA@ DB 'syr_SY', 00H		; `string'
CONST	ENDS
;	COMDAT ??_C@_03OBBIGHDK@syr?$AA@
CONST	SEGMENT
??_C@_03OBBIGHDK@syr?$AA@ DB 'syr', 00H			; `string'
CONST	ENDS
;	COMDAT ??_C@_05OKNGNLHJ@sw_KE?$AA@
CONST	SEGMENT
??_C@_05OKNGNLHJ@sw_KE?$AA@ DB 'sw_KE', 00H		; `string'
CONST	ENDS
;	COMDAT ??_C@_02DGHHBPNF@sw?$AA@
CONST	SEGMENT
??_C@_02DGHHBPNF@sw?$AA@ DB 'sw', 00H			; `string'
CONST	ENDS
;	COMDAT ??_C@_05MFIDAAAB@sv_SE?$AA@
CONST	SEGMENT
??_C@_05MFIDAAAB@sv_SE?$AA@ DB 'sv_SE', 00H		; `string'
CONST	ENDS
;	COMDAT ??_C@_05HDNLCOJG@sv_FI?$AA@
CONST	SEGMENT
??_C@_05HDNLCOJG@sv_FI?$AA@ DB 'sv_FI', 00H		; `string'
CONST	ENDS
;	COMDAT ??_C@_02CPGMCOJE@sv?$AA@
CONST	SEGMENT
??_C@_02CPGMCOJE@sv?$AA@ DB 'sv', 00H			; `string'
CONST	ENDS
;	COMDAT ??_C@_05NEPOKNOK@st_ZA?$AA@
CONST	SEGMENT
??_C@_05NEPOKNOK@st_ZA?$AA@ DB 'st_ZA', 00H		; `string'
CONST	ENDS
;	COMDAT ??_C@_02BNFKEMBG@st?$AA@
CONST	SEGMENT
??_C@_02BNFKEMBG@st?$AA@ DB 'st', 00H			; `string'
CONST	ENDS
;	COMDAT ??_C@_05LJMDBAEG@sq_AL?$AA@
CONST	SEGMENT
??_C@_05LJMDBAEG@sq_AL?$AA@ DB 'sq_AL', 00H		; `string'
CONST	ENDS
;	COMDAT ??_C@_02GACNLIFD@sq?$AA@
CONST	SEGMENT
??_C@_02GACNLIFD@sq?$AA@ DB 'sq', 00H			; `string'
CONST	ENDS
;	COMDAT ??_C@_05FCJMBNHI@so_SO?$AA@
CONST	SEGMENT
??_C@_05FCJMBNHI@so_SO?$AA@ DB 'so_SO', 00H		; `string'
CONST	ENDS
;	COMDAT ??_C@_05ODABAJCA@so_ET?$AA@
CONST	SEGMENT
??_C@_05ODABAJCA@so_ET?$AA@ DB 'so_ET', 00H		; `string'
CONST	ENDS
;	COMDAT ??_C@_02LEGMIHIM@so?$AA@
CONST	SEGMENT
??_C@_02LEGMIHIM@so?$AA@ DB 'so', 00H			; `string'
CONST	ENDS
;	COMDAT ??_C@_05EDGGMACO@sl_SI?$AA@
CONST	SEGMENT
??_C@_05EDGGMACO@sl_SI?$AA@ DB 'sl_SI', 00H		; `string'
CONST	ENDS
;	COMDAT ??_C@_02JPEBNEEP@sl?$AA@
CONST	SEGMENT
??_C@_02JPEBNEEP@sl?$AA@ DB 'sl', 00H			; `string'
CONST	ENDS
;	COMDAT ??_C@_05MDHAHOLM@sk_SK?$AA@
CONST	SEGMENT
??_C@_05MDHAHOLM@sk_SK?$AA@ DB 'sk_SK', 00H		; `string'
CONST	ENDS
;	COMDAT ??_C@_02NAAAECII@sk?$AA@
CONST	SEGMENT
??_C@_02NAAAECII@sk?$AA@ DB 'sk', 00H			; `string'
CONST	ENDS
;	COMDAT ??_C@_05KOMKMJJB@si_LK?$AA@
CONST	SEGMENT
??_C@_05KOMKMJJB@si_LK?$AA@ DB 'si_LK', 00H		; `string'
CONST	ENDS
;	COMDAT ??_C@_02OCDGCAAK@si?$AA@
CONST	SEGMENT
??_C@_02OCDGCAAK@si?$AA@ DB 'si', 00H			; `string'
CONST	ENDS
;	COMDAT ??_C@_06HDMJHGGG@sms_FI?$AA@
CONST	SEGMENT
??_C@_06HDMJHGGG@sms_FI?$AA@ DB 'sms_FI', 00H		; `string'
CONST	ENDS
;	COMDAT ??_C@_06OLLJCFFF@smn_FI?$AA@
CONST	SEGMENT
??_C@_06OLLJCFFF@smn_FI?$AA@ DB 'smn_FI', 00H		; `string'
CONST	ENDS
;	COMDAT ??_C@_06KIGBKNAC@smj_SE?$AA@
CONST	SEGMENT
??_C@_06KIGBKNAC@smj_SE?$AA@ DB 'smj_SE', 00H		; `string'
CONST	ENDS
;	COMDAT ??_C@_06EGHAHFKL@smj_NO?$AA@
CONST	SEGMENT
??_C@_06EGHAHFKL@smj_NO?$AA@ DB 'smj_NO', 00H		; `string'
CONST	ENDS
;	COMDAT ??_C@_03ODCMFNNH@sms?$AA@
CONST	SEGMENT
??_C@_03ODCMFNNH@sms?$AA@ DB 'sms', 00H			; `string'
CONST	ENDS
;	COMDAT ??_C@_03BMEADBML@smn?$AA@
CONST	SEGMENT
??_C@_03BMEADBML@smn?$AA@ DB 'smn', 00H			; `string'
CONST	ENDS
;	COMDAT ??_C@_03HICMPEMP@smj?$AA@
CONST	SEGMENT
??_C@_03HICMPEMP@smj?$AA@ DB 'smj', 00H			; `string'
CONST	ENDS
;	COMDAT ??_C@_06NPLBJMBD@sma_SE?$AA@
CONST	SEGMENT
??_C@_06NPLBJMBD@sma_SE?$AA@ DB 'sma_SE', 00H		; `string'
CONST	ENDS
;	COMDAT ??_C@_06DBKAEELK@sma_NO?$AA@
CONST	SEGMENT
??_C@_06DBKAEELK@sma_NO?$AA@ DB 'sma_NO', 00H		; `string'
CONST	ENDS
;	COMDAT ??_C@_03JLNICNAE@sma?$AA@
CONST	SEGMENT
??_C@_03JLNICNAE@sma?$AA@ DB 'sma', 00H			; `string'
CONST	ENDS
;	COMDAT ??_C@_05OCMDONFD@se_SE?$AA@
CONST	SEGMENT
??_C@_05OCMDONFD@se_SE?$AA@ DB 'se_SE', 00H		; `string'
CONST	ENDS
;	COMDAT ??_C@_05MNCDFPK@se_NO?$AA@
CONST	SEGMENT
??_C@_05MNCDFPK@se_NO?$AA@ DB 'se_NO', 00H		; `string'
CONST	ENDS
;	COMDAT ??_C@_05FEJLMDME@se_FI?$AA@
CONST	SEGMENT
??_C@_05FEJLMDME@se_FI?$AA@ DB 'se_FI', 00H		; `string'
CONST	ENDS
;	COMDAT ??_C@_02EOIDGPAG@se?$AA@
CONST	SEGMENT
??_C@_02EOIDGPAG@se?$AA@ DB 'se', 00H			; `string'
CONST	ENDS
;	COMDAT ??_C@_05EDGGFHDE@sd_PK?$AA@
CONST	SEGMENT
??_C@_05EDGGFHDE@sd_PK?$AA@ DB 'sd_PK', 00H		; `string'
CONST	ENDS
;	COMDAT ??_C@_05CNOGDLIO@sd_IN?$AA@
CONST	SEGMENT
??_C@_05CNOGDLIO@sd_IN?$AA@ DB 'sd_IN', 00H		; `string'
CONST	ENDS
;	COMDAT ??_C@_02FHJIFOEH@sd?$AA@
CONST	SEGMENT
??_C@_02FHJIFOEH@sd?$AA@ DB 'sd', 00H			; `string'
CONST	ENDS
;	COMDAT ??_C@_06OOGDEGHP@sah_RU?$AA@
CONST	SEGMENT
??_C@_06OOGDEGHP@sah_RU?$AA@ DB 'sah_RU', 00H		; `string'
CONST	ENDS
;	COMDAT ??_C@_03EDAAGPCJ@sah?$AA@
CONST	SEGMENT
??_C@_03EDAAGPCJ@sah?$AA@ DB 'sah', 00H			; `string'
CONST	ENDS
;	COMDAT ??_C@_05OFAGLEPO@sa_IN?$AA@
CONST	SEGMENT
??_C@_05OFAGLEPO@sa_IN?$AA@ DB 'sa_IN', 00H		; `string'
CONST	ENDS
;	COMDAT ??_C@_02CKOPKKAC@sa?$AA@
CONST	SEGMENT
??_C@_02CKOPKKAC@sa?$AA@ DB 'sa', 00H			; `string'
CONST	ENDS
;	COMDAT ??_C@_05EKIJOAPA@rw_RW?$AA@
CONST	SEGMENT
??_C@_05EKIJOAPA@rw_RW?$AA@ DB 'rw_RW', 00H		; `string'
CONST	ENDS
;	COMDAT ??_C@_02DHLFHFOC@rw?$AA@
CONST	SEGMENT
??_C@_02DHLFHFOC@rw?$AA@ DB 'rw', 00H			; `string'
CONST	ENDS
;	COMDAT ??_C@_05EGNMBGEP@ru_MD?$AA@
CONST	SEGMENT
??_C@_05EGNMBGEP@ru_MD?$AA@ DB 'ru_MD', 00H		; `string'
CONST	ENDS
;	COMDAT ??_C@_05CHPNBBC@ru_RU?$AA@
CONST	SEGMENT
??_C@_05CHPNBBC@ru_RU?$AA@ DB 'ru_RU', 00H		; `string'
CONST	ENDS
;	COMDAT ??_C@_02FIDBHGA@ru?$AA@
CONST	SEGMENT
??_C@_02FIDBHGA@ru?$AA@ DB 'ru', 00H			; `string'
CONST	ENDS
;	COMDAT ??_C@_04NBFCGMPH@root?$AA@
CONST	SEGMENT
??_C@_04NBFCGMPH@root?$AA@ DB 'root', 00H		; `string'
CONST	ENDS
;	COMDAT ??_C@_05GMIMJJGM@ro_MD?$AA@
CONST	SEGMENT
??_C@_05GMIMJJGM@ro_MD?$AA@ DB 'ro_MD', 00H		; `string'
CONST	ENDS
;	COMDAT ??_C@_05JIACKEOK@ro_RO?$AA@
CONST	SEGMENT
??_C@_05JIACKEOK@ro_RO?$AA@ DB 'ro_RO', 00H		; `string'
CONST	ENDS
;	COMDAT ??_C@_02LFKOONLL@ro?$AA@
CONST	SEGMENT
??_C@_02LFKOONLL@ro?$AA@ DB 'ro', 00H			; `string'
CONST	ENDS
;	COMDAT ??_C@_05LAGHKIAK@rm_CH?$AA@
CONST	SEGMENT
??_C@_05LAGHKIAK@rm_CH?$AA@ DB 'rm_CH', 00H		; `string'
CONST	ENDS
;	COMDAT ??_C@_02IHJIIPDJ@rm?$AA@
CONST	SEGMENT
??_C@_02IHJIIPDJ@rm?$AA@ DB 'rm', 00H			; `string'
CONST	ENDS
;	COMDAT ??_C@_06EHFNDNIC@qut_GT?$AA@
CONST	SEGMENT
??_C@_06EHFNDNIC@qut_GT?$AA@ DB 'qut_GT', 00H		; `string'
CONST	ENDS
;	COMDAT ??_C@_03BEFBPBFD@qut?$AA@
CONST	SEGMENT
??_C@_03BEFBPBFD@qut?$AA@ DB 'qut', 00H			; `string'
CONST	ENDS
;	COMDAT ??_C@_06LCNNBFAG@quz_PE?$AA@
CONST	SEGMENT
??_C@_06LCNNBFAG@quz_PE?$AA@ DB 'quz_PE', 00H		; `string'
CONST	ENDS
;	COMDAT ??_C@_06POGKNDBL@quz_EC?$AA@
CONST	SEGMENT
??_C@_06POGKNDBL@quz_EC?$AA@ DB 'quz_EC', 00H		; `string'
CONST	ENDS
;	COMDAT ??_C@_06FHJAIKJC@quz_BO?$AA@
CONST	SEGMENT
??_C@_06FHJAIKJC@quz_BO?$AA@ DB 'quz_BO', 00H		; `string'
CONST	ENDS
;	COMDAT ??_C@_05MNKNGFID@qu_PE?$AA@
CONST	SEGMENT
??_C@_05MNKNGFID@qu_PE?$AA@ DB 'qu_PE', 00H		; `string'
CONST	ENDS
;	COMDAT ??_C@_05IBBKKDJO@qu_EC?$AA@
CONST	SEGMENT
??_C@_05IBBKKDJO@qu_EC?$AA@ DB 'qu_EC', 00H		; `string'
CONST	ENDS
;	COMDAT ??_C@_05CIOAPKBH@qu_BO?$AA@
CONST	SEGMENT
??_C@_05CIOAPKBH@qu_BO?$AA@ DB 'qu_BO', 00H		; `string'
CONST	ENDS
;	COMDAT ??_C@_02HMFKJDJ@qu?$AA@
CONST	SEGMENT
??_C@_02HMFKJDJ@qu?$AA@ DB 'qu', 00H			; `string'
CONST	ENDS
;	COMDAT ??_C@_05GIEILMIG@pt_PT?$AA@
CONST	SEGMENT
??_C@_05GIEILMIG@pt_PT?$AA@ DB 'pt_PT', 00H		; `string'
CONST	ENDS
;	COMDAT ??_C@_05CBLAGMBO@pt_BR?$AA@
CONST	SEGMENT
??_C@_05CBLAGMBO@pt_BR?$AA@ DB 'pt_BR', 00H		; `string'
CONST	ENDS
;	COMDAT ??_C@_02BPBMPCEP@pt?$AA@
CONST	SEGMENT
??_C@_02BPBMPCEP@pt?$AA@ DB 'pt', 00H			; `string'
CONST	ENDS
;	COMDAT ??_C@_05LPHINJAC@ps_AF?$AA@
CONST	SEGMENT
??_C@_05LPHINJAC@ps_AF?$AA@ DB 'ps_AF', 00H		; `string'
CONST	ENDS
;	COMDAT ??_C@_02FAFNGEII@ps?$AA@
CONST	SEGMENT
??_C@_02FAFNGEII@ps?$AA@ DB 'ps', 00H			; `string'
CONST	ENDS
;	COMDAT ??_C@_05LKMDPIJM@pl_PL?$AA@
CONST	SEGMENT
??_C@_05LKMDPIJM@pl_PL?$AA@ DB 'pl_PL', 00H		; `string'
CONST	ENDS
;	COMDAT ??_C@_02JNAHGKBG@pl?$AA@
CONST	SEGMENT
??_C@_02JNAHGKBG@pl?$AA@ DB 'pl', 00H			; `string'
CONST	ENDS
;	COMDAT ??_C@_06DIENFGBC@pap_AN?$AA@
CONST	SEGMENT
??_C@_06DIENFGBC@pap_AN?$AA@ DB 'pap_AN', 00H		; `string'
CONST	ENDS
;	COMDAT ??_C@_03NDKOFIJO@pap?$AA@
CONST	SEGMENT
??_C@_03NDKOFIJO@pap?$AA@ DB 'pap', 00H			; `string'
CONST	ENDS
;	COMDAT ??_C@_0L@KLFBKBCA@pa_Arab_PK?$AA@
CONST	SEGMENT
??_C@_0L@KLFBKBCA@pa_Arab_PK?$AA@ DB 'pa_Arab_PK', 00H	; `string'
CONST	ENDS
;	COMDAT ??_C@_05NBCKKOK@pa_PK?$AA@
CONST	SEGMENT
??_C@_05NBCKKOK@pa_PK?$AA@ DB 'pa_PK', 00H		; `string'
CONST	ENDS
;	COMDAT ??_C@_05GDJCMGFA@pa_IN?$AA@
CONST	SEGMENT
??_C@_05GDJCMGFA@pa_IN?$AA@ DB 'pa_IN', 00H		; `string'
CONST	ENDS
;	COMDAT ??_C@_02CIKJBEFL@pa?$AA@
CONST	SEGMENT
??_C@_02CIKJBEFL@pa?$AA@ DB 'pa', 00H			; `string'
CONST	ENDS
;	COMDAT ??_C@_05LGFCJLEM@or_IN?$AA@
CONST	SEGMENT
??_C@_05LGFCJLEM@or_IN?$AA@ DB 'or_IN', 00H		; `string'
CONST	ENDS
;	COMDAT ??_C@_02FODMLBIE@or?$AA@
CONST	SEGMENT
??_C@_02FODMLBIE@or?$AA@ DB 'or', 00H			; `string'
CONST	ENDS
;	COMDAT ??_C@_06GHKALOPE@gaz_ET?$AA@
CONST	SEGMENT
??_C@_06GHKALOPE@gaz_ET?$AA@ DB 'gaz_ET', 00H		; `string'
CONST	ENDS
;	COMDAT ??_C@_05ONNFJIKA@om_ET?$AA@
CONST	SEGMENT
??_C@_05ONNFJIKA@om_ET?$AA@ DB 'om_ET', 00H		; `string'
CONST	ENDS
;	COMDAT ??_C@_02JDGGLPBK@om?$AA@
CONST	SEGMENT
??_C@_02JDGGLPBK@om?$AA@ DB 'om', 00H			; `string'
CONST	ENDS
;	COMDAT ??_C@_05GPJDPBO@oc_FR?$AA@
CONST	SEGMENT
??_C@_05GPJDPBO@oc_FR?$AA@ DB 'oc_FR', 00H		; `string'
CONST	ENDS
;	COMDAT ??_C@_02NOFJCJE@oc?$AA@
CONST	SEGMENT
??_C@_02NOFJCJE@oc?$AA@ DB 'oc', 00H			; `string'
CONST	ENDS
;	COMDAT ??_C@_06DEOJECBM@nso_ZA?$AA@
CONST	SEGMENT
??_C@_06DEOJECBM@nso_ZA?$AA@ DB 'nso_ZA', 00H		; `string'
CONST	ENDS
;	COMDAT ??_C@_03LBJAABLC@nso?$AA@
CONST	SEGMENT
??_C@_03LBJAABLC@nso?$AA@ DB 'nso', 00H			; `string'
CONST	ENDS
;	COMDAT ??_C@_08DMODGHIJ@no_NO_NY?$AA@
CONST	SEGMENT
??_C@_08DMODGHIJ@no_NO_NY?$AA@ DB 'no_NO_NY', 00H	; `string'
CONST	ENDS
;	COMDAT ??_C@_02LJIJIGOO@nn?$AA@
CONST	SEGMENT
??_C@_02LJIJIGOO@nn?$AA@ DB 'nn', 00H			; `string'
CONST	ENDS
;	COMDAT ??_C@_05MEEKBFKO@nn_NO?$AA@
CONST	SEGMENT
??_C@_05MEEKBFKO@nn_NO?$AA@ DB 'nn_NO', 00H		; `string'
CONST	ENDS
;	COMDAT ??_C@_05PJCKDMBO@no_NO?$AA@
CONST	SEGMENT
??_C@_05PJCKDMBO@no_NO?$AA@ DB 'no_NO', 00H		; `string'
CONST	ENDS
;	COMDAT ??_C@_05BLKPIKP@nb_NO?$AA@
CONST	SEGMENT
??_C@_05BLKPIKP@nb_NO?$AA@ DB 'nb_NO', 00H		; `string'
CONST	ENDS
;	COMDAT ??_C@_02BFDMMJOC@nb?$AA@
CONST	SEGMENT
??_C@_02BFDMMJOC@nb?$AA@ DB 'nb', 00H			; `string'
CONST	ENDS
;	COMDAT ??_C@_02KAJCLHKP@no?$AA@
CONST	SEGMENT
??_C@_02KAJCLHKP@no?$AA@ DB 'no', 00H			; `string'
CONST	ENDS
;	COMDAT ??_C@_05JFKHBFAN@nl_NL?$AA@
CONST	SEGMENT
??_C@_05JFKHBFAN@nl_NL?$AA@ DB 'nl_NL', 00H		; `string'
CONST	ENDS
;	COMDAT ??_C@_05ENHPFHCA@nl_BE?$AA@
CONST	SEGMENT
??_C@_05ENHPFHCA@nl_BE?$AA@ DB 'nl_BE', 00H		; `string'
CONST	ENDS
;	COMDAT ??_C@_02ILLPOEGM@nl?$AA@
CONST	SEGMENT
??_C@_02ILLPOEGM@nl?$AA@ DB 'nl', 00H			; `string'
CONST	ENDS
;	COMDAT ??_C@_05HOMACKCB@ne_NP?$AA@
CONST	SEGMENT
??_C@_05HOMACKCB@ne_NP?$AA@ DB 'ne_NP', 00H		; `string'
CONST	ENDS
;	COMDAT ??_C@_05KPMOADHL@ne_IN?$AA@
CONST	SEGMENT
??_C@_05KPMOADHL@ne_IN?$AA@ DB 'ne_IN', 00H		; `string'
CONST	ENDS
;	COMDAT ??_C@_02FKHNFPCF@ne?$AA@
CONST	SEGMENT
??_C@_02FKHNFPCF@ne?$AA@ DB 'ne', 00H			; `string'
CONST	ENDS
;	COMDAT ??_C@_05KAGOPAEJ@my_MM?$AA@
CONST	SEGMENT
??_C@_05KAGOPAEJ@my_MM?$AA@ DB 'my_MM', 00H		; `string'
CONST	ENDS
;	COMDAT ??_C@_02LOEMLMCB@my?$AA@
CONST	SEGMENT
??_C@_02LOEMLMCB@my?$AA@ DB 'my', 00H			; `string'
CONST	ENDS
;	COMDAT ??_C@_05MDPOJNOA@mt_MT?$AA@
CONST	SEGMENT
??_C@_05MDPOJNOA@mt_MT?$AA@ DB 'mt_MT', 00H		; `string'
CONST	ENDS
;	COMDAT ??_C@_02LOCMCGM@mt?$AA@
CONST	SEGMENT
??_C@_02LOCMCGM@mt?$AA@ DB 'mt', 00H			; `string'
CONST	ENDS
;	COMDAT ??_C@_05MEHADPLN@ms_MY?$AA@
CONST	SEGMENT
??_C@_05MEHADPLN@ms_MY?$AA@ DB 'ms_MY', 00H		; `string'
CONST	ENDS
;	COMDAT ??_C@_05MKKPPMBG@ms_BN?$AA@
CONST	SEGMENT
??_C@_05MKKPPMBG@ms_BN?$AA@ DB 'ms_BN', 00H		; `string'
CONST	ENDS
;	COMDAT ??_C@_02EEKDFEKL@ms?$AA@
CONST	SEGMENT
??_C@_02EEKDFEKL@ms?$AA@ DB 'ms', 00H			; `string'
CONST	ENDS
;	COMDAT ??_C@_05PLJKDKEH@mr_IN?$AA@
CONST	SEGMENT
??_C@_05PLJKDKEH@mr_IN?$AA@ DB 'mr_IN', 00H		; `string'
CONST	ENDS
;	COMDAT ??_C@_02FNLIGFOK@mr?$AA@
CONST	SEGMENT
??_C@_02FNLIGFOK@mr?$AA@ DB 'mr', 00H			; `string'
CONST	ENDS
;	COMDAT ??_C@_06NAMCNOIO@moh_CA?$AA@
CONST	SEGMENT
??_C@_06NAMCNOIO@moh_CA?$AA@ DB 'moh_CA', 00H		; `string'
CONST	ENDS
;	COMDAT ??_C@_03PJFIGCIP@moh?$AA@
CONST	SEGMENT
??_C@_03PJFIGCIP@moh?$AA@ DB 'moh', 00H			; `string'
CONST	ENDS
;	COMDAT ??_C@_06KMPBLNIC@mni_IN?$AA@
CONST	SEGMENT
??_C@_06KMPBLNIC@mni_IN?$AA@ DB 'mni_IN', 00H		; `string'
CONST	ENDS
;	COMDAT ??_C@_03OBIBDJPJ@mni?$AA@
CONST	SEGMENT
??_C@_03OBIBDJPJ@mni?$AA@ DB 'mni', 00H			; `string'
CONST	ENDS
;	COMDAT ??_C@_0L@DOKBGCOD@mn_Mong_MN?$AA@
CONST	SEGMENT
??_C@_0L@DOKBGCOD@mn_Mong_MN?$AA@ DB 'mn_Mong_MN', 00H	; `string'
CONST	ENDS
;	COMDAT ??_C@_07GADLENHM@mn_Cyrl?$AA@
CONST	SEGMENT
??_C@_07GADLENHM@mn_Cyrl?$AA@ DB 'mn_Cyrl', 00H		; `string'
CONST	ENDS
;	COMDAT ??_C@_05FDBNMFBC@mn_CN?$AA@
CONST	SEGMENT
??_C@_05FDBNMFBC@mn_CN?$AA@ DB 'mn_CN', 00H		; `string'
CONST	ENDS
;	COMDAT ??_C@_0L@DEDPEPOJ@mn_Mong_CN?$AA@
CONST	SEGMENT
??_C@_0L@DEDPEPOJ@mn_Mong_CN?$AA@ DB 'mn_Mong_CN', 00H	; `string'
CONST	ENDS
;	COMDAT ??_C@_07FMLBHIIB@mn_Mong?$AA@
CONST	SEGMENT
??_C@_07FMLBHIIB@mn_Mong?$AA@ DB 'mn_Mong', 00H		; `string'
CONST	ENDS
;	COMDAT ??_C@_05FJIDOIBI@mn_MN?$AA@
CONST	SEGMENT
??_C@_05FJIDOIBI@mn_MN?$AA@ DB 'mn_MN', 00H		; `string'
CONST	ENDS
;	COMDAT ??_C@_02LLMPDILH@mn?$AA@
CONST	SEGMENT
??_C@_02LLMPDILH@mn?$AA@ DB 'mn', 00H			; `string'
CONST	ENDS
;	COMDAT ??_C@_05CEEKBDKE@ml_IN?$AA@
CONST	SEGMENT
??_C@_05CEEKBDKE@ml_IN?$AA@ DB 'ml_IN', 00H		; `string'
CONST	ENDS
;	COMDAT ??_C@_02IJPJFKDF@ml?$AA@
CONST	SEGMENT
??_C@_02IJPJFKDF@ml?$AA@ DB 'ml', 00H			; `string'
CONST	ENDS
;	COMDAT ??_C@_05OMBEJDCN@mk_MK?$AA@
CONST	SEGMENT
??_C@_05OMBEJDCN@mk_MK?$AA@ DB 'mk_MK', 00H		; `string'
CONST	ENDS
;	COMDAT ??_C@_02MGLIMMPC@mk?$AA@
CONST	SEGMENT
??_C@_02MGLIMMPC@mk?$AA@ DB 'mk', 00H			; `string'
CONST	ENDS
;	COMDAT ??_C@_05MHELFNAE@mi_NZ?$AA@
CONST	SEGMENT
??_C@_05MHELFNAE@mi_NZ?$AA@ DB 'mi_NZ', 00H		; `string'
CONST	ENDS
;	COMDAT ??_C@_02PEIOKOHA@mi?$AA@
CONST	SEGMENT
??_C@_02PEIOKOHA@mi?$AA@ DB 'mi', 00H			; `string'
CONST	ENDS
;	COMDAT ??_C@_05EBJGBFJA@lv_LV?$AA@
CONST	SEGMENT
??_C@_05EBJGBFJA@lv_LV?$AA@ DB 'lv_LV', 00H		; `string'
CONST	ENDS
;	COMDAT ??_C@_02DIBGMKNJ@lv?$AA@
CONST	SEGMENT
??_C@_02DIBGMKNJ@lv?$AA@ DB 'lv', 00H			; `string'
CONST	ENDS
;	COMDAT ??_C@_05JGACEHC@lt_LT?$AA@
CONST	SEGMENT
??_C@_05JGACEHC@lt_LT?$AA@ DB 'lt_LT', 00H		; `string'
CONST	ENDS
;	COMDAT ??_C@_02KCAKIFL@lt?$AA@
CONST	SEGMENT
??_C@_02KCAKIFL@lt?$AA@ DB 'lt', 00H			; `string'
CONST	ENDS
;	COMDAT ??_C@_05CJOFGEPF@lo_LA?$AA@
CONST	SEGMENT
??_C@_05CJOFGEPF@lo_LA?$AA@ DB 'lo_LA', 00H		; `string'
CONST	ENDS
;	COMDAT ??_C@_02KDBGGDMB@lo?$AA@
CONST	SEGMENT
??_C@_02KDBGGDMB@lo?$AA@ DB 'lo', 00H			; `string'
CONST	ENDS
;	COMDAT ??_C@_05PPNLHHBB@lb_LU?$AA@
CONST	SEGMENT
??_C@_05PPNLHHBB@lb_LU?$AA@ DB 'lb_LU', 00H		; `string'
CONST	ENDS
;	COMDAT ??_C@_02BGLIBNIM@lb?$AA@
CONST	SEGMENT
??_C@_02BGLIBNIM@lb?$AA@ DB 'lb', 00H			; `string'
CONST	ENDS
;	COMDAT ??_C@_05KHKLPOGL@la_IT?$AA@
CONST	SEGMENT
??_C@_05KHKLPOGL@la_IT?$AA@ DB 'la_IT', 00H		; `string'
CONST	ENDS
;	COMDAT ??_C@_02DNJFEOEP@la?$AA@
CONST	SEGMENT
??_C@_02DNJFEOEP@la?$AA@ DB 'la', 00H			; `string'
CONST	ENDS
;	COMDAT ??_C@_05IIFFIHGM@ky_KG?$AA@
CONST	SEGMENT
??_C@_05IIFFIHGM@ky_KG?$AA@ DB 'ky_KG', 00H		; `string'
CONST	ENDS
;	COMDAT ??_C@_02LKMBMAJD@ky?$AA@
CONST	SEGMENT
??_C@_02LKMBMAJD@ky?$AA@ DB 'ky', 00H			; `string'
CONST	ENDS
;	COMDAT ??_C@_0L@NILHDLBH@ks_Deva_IN?$AA@
CONST	SEGMENT
??_C@_0L@NILHDLBH@ks_Deva_IN?$AA@ DB 'ks_Deva_IN', 00H	; `string'
CONST	ENDS
;	COMDAT ??_C@_0L@GLFNNPMA@ks_Arab_IN?$AA@
CONST	SEGMENT
??_C@_0L@GLFNNPMA@ks_Arab_IN?$AA@ DB 'ks_Arab_IN', 00H	; `string'
CONST	ENDS
;	COMDAT ??_C@_05BAKDPAOK@ks_IN?$AA@
CONST	SEGMENT
??_C@_05BAKDPAOK@ks_IN?$AA@ DB 'ks_IN', 00H		; `string'
CONST	ENDS
;	COMDAT ??_C@_02EACOCIBJ@ks?$AA@
CONST	SEGMENT
??_C@_02EACOCIBJ@ks?$AA@ DB 'ks', 00H			; `string'
CONST	ENDS
;	COMDAT ??_C@_05PJEOHEJG@kr_NG?$AA@
CONST	SEGMENT
??_C@_05PJEOHEJG@kr_NG?$AA@ DB 'kr_NG', 00H		; `string'
CONST	ENDS
;	COMDAT ??_C@_02FJDFBJFI@kr?$AA@
CONST	SEGMENT
??_C@_02FJDFBJFI@kr?$AA@ DB 'kr', 00H			; `string'
CONST	ENDS
;	COMDAT ??_C@_06HOLNAIHN@kok_IN?$AA@
CONST	SEGMENT
??_C@_06HOLNAIHN@kok_IN?$AA@ DB 'kok_IN', 00H		; `string'
CONST	ENDS
;	COMDAT ??_C@_03PHBOGOJA@kok?$AA@
CONST	SEGMENT
??_C@_03PHBOGOJA@kok?$AA@ DB 'kok', 00H			; `string'
CONST	ENDS
;	COMDAT ??_C@_05FAEAADFK@ko_KR?$AA@
CONST	SEGMENT
??_C@_05FAEAADFK@ko_KR?$AA@ DB 'ko_KR', 00H		; `string'
CONST	ENDS
;	COMDAT ??_C@_05GCHGGBNI@ko_KP?$AA@
CONST	SEGMENT
??_C@_05GCHGGBNI@ko_KP?$AA@ DB 'ko_KP', 00H		; `string'
CONST	ENDS
;	COMDAT ??_C@_02KGFJHFEE@ko?$AA@
CONST	SEGMENT
??_C@_02KGFJHFEE@ko?$AA@ DB 'ko', 00H			; `string'
CONST	ENDS
;	COMDAT ??_C@_05IINDKDNJ@kn_IN?$AA@
CONST	SEGMENT
??_C@_05IINDKDNJ@kn_IN?$AA@ DB 'kn_IN', 00H		; `string'
CONST	ENDS
;	COMDAT ??_C@_02LPECEEAF@kn?$AA@
CONST	SEGMENT
??_C@_02LPECEEAF@kn?$AA@ DB 'kn', 00H			; `string'
CONST	ENDS
;	COMDAT ??_C@_05JKKNKKOB@km_KH?$AA@
CONST	SEGMENT
??_C@_05JKKNKKOB@km_KH?$AA@ DB 'km_KH', 00H		; `string'
CONST	ENDS
;	COMDAT ??_C@_02JEGPBHMG@km?$AA@
CONST	SEGMENT
??_C@_02JEGPBHMG@km?$AA@ DB 'km', 00H			; `string'
CONST	ENDS
;	COMDAT ??_C@_05MKLLLPDB@kl_GL?$AA@
CONST	SEGMENT
??_C@_05MKLLLPDB@kl_GL?$AA@ DB 'kl_GL', 00H		; `string'
CONST	ENDS
;	COMDAT ??_C@_02INHECGIH@kl?$AA@
CONST	SEGMENT
??_C@_02INHECGIH@kl?$AA@ DB 'kl', 00H			; `string'
CONST	ENDS
;	COMDAT ??_C@_05GNBJCPJC@kk_KZ?$AA@
CONST	SEGMENT
??_C@_05GNBJCPJC@kk_KZ?$AA@ DB 'kk_KZ', 00H		; `string'
CONST	ENDS
;	COMDAT ??_C@_02MCDFLAEA@kk?$AA@
CONST	SEGMENT
??_C@_02MCDFLAEA@kk?$AA@ DB 'kk', 00H			; `string'
CONST	ENDS
;	COMDAT ??_C@_05ODOJMAMJ@ka_GE?$AA@
CONST	SEGMENT
??_C@_05ODOJMAMJ@ka_GE?$AA@ DB 'ka_GE', 00H		; `string'
CONST	ENDS
;	COMDAT ??_C@_02DINKFIMK@ka?$AA@
CONST	SEGMENT
??_C@_02DINKFIMK@ka?$AA@ DB 'ka', 00H			; `string'
CONST	ENDS
;	COMDAT ??_C@_05BHNIGGCL@ja_JP?$AA@
CONST	SEGMENT
??_C@_05BHNIGGCL@ja_JP?$AA@ DB 'ja_JP', 00H		; `string'
CONST	ENDS
;	COMDAT ??_C@_02DJBIDCPN@ja?$AA@
CONST	SEGMENT
??_C@_02DJBIDCPN@ja?$AA@ DB 'ja', 00H			; `string'
CONST	ENDS
;	COMDAT ??_C@_05JKNNJFKD@iw_IL?$AA@
CONST	SEGMENT
??_C@_05JKNNJFKD@iw_IL?$AA@ DB 'iw_IL', 00H		; `string'
CONST	ENDS
;	COMDAT ??_C@_02CHMGDJHD@iw?$AA@
CONST	SEGMENT
??_C@_02CHMGDJHD@iw?$AA@ DB 'iw', 00H			; `string'
CONST	ENDS
;	COMDAT ??_C@_07KAOOHNCD@iu_Latn?$AA@
CONST	SEGMENT
??_C@_07KAOOHNCD@iu_Latn?$AA@ DB 'iu_Latn', 00H		; `string'
CONST	ENDS
;	COMDAT ??_C@_0L@OPPIGCPE@iu_Latn_CA?$AA@
CONST	SEGMENT
??_C@_0L@OPPIGCPE@iu_Latn_CA?$AA@ DB 'iu_Latn_CA', 00H	; `string'
CONST	ENDS
;	COMDAT ??_C@_07MMGDKAEI@iu_Cans?$AA@
CONST	SEGMENT
??_C@_07MMGDKAEI@iu_Cans?$AA@ DB 'iu_Cans', 00H		; `string'
CONST	ENDS
;	COMDAT ??_C@_0L@MOFACJG@iu_Cans_CA?$AA@
CONST	SEGMENT
??_C@_0L@MOFACJG@iu_Cans_CA?$AA@ DB 'iu_Cans_CA', 00H	; `string'
CONST	ENDS
;	COMDAT ??_C@_02BFPAFLPB@iu?$AA@
CONST	SEGMENT
??_C@_02BFPAFLPB@iu?$AA@ DB 'iu', 00H			; `string'
CONST	ENDS
;	COMDAT ??_C@_05FPGGHHCK@it_IT?$AA@
CONST	SEGMENT
??_C@_05FPGGHHCK@it_IT?$AA@ DB 'it_IT', 00H		; `string'
CONST	ENDS
;	COMDAT ??_C@_05LEIGKPKB@it_CH?$AA@
CONST	SEGMENT
??_C@_05LEIGKPKB@it_CH?$AA@ DB 'it_CH', 00H		; `string'
CONST	ENDS
;	COMDAT ??_C@_02MOLGKLA@it?$AA@
CONST	SEGMENT
??_C@_02MOLGKLA@it?$AA@ DB 'it', 00H			; `string'
CONST	ENDS
;	COMDAT ??_C@_05KCAHDNPN@is_IS?$AA@
CONST	SEGMENT
??_C@_05KCAHDNPN@is_IS?$AA@ DB 'is_IS', 00H		; `string'
CONST	ENDS
;	COMDAT ??_C@_02EDKKPMHH@is?$AA@
CONST	SEGMENT
??_C@_02EDKKPMHH@is?$AA@ DB 'is', 00H			; `string'
CONST	ENDS
;	COMDAT ??_C@_05HKKMFLBE@ii_CN?$AA@
CONST	SEGMENT
??_C@_05HKKMFLBE@ii_CN?$AA@ DB 'ii_CN', 00H		; `string'
CONST	ENDS
;	COMDAT ??_C@_02PDIHAGKM@ii?$AA@
CONST	SEGMENT
??_C@_02PDIHAGKM@ii?$AA@ DB 'ii', 00H			; `string'
CONST	ENDS
;	COMDAT ??_C@_05BMIGMNGP@ig_NG?$AA@
CONST	SEGMENT
??_C@_05BMIGMNGP@ig_NG?$AA@ DB 'ig_NG', 00H		; `string'
CONST	ENDS
;	COMDAT ??_C@_02GNAECLCC@ig?$AA@
CONST	SEGMENT
??_C@_02GNAECLCC@ig?$AA@ DB 'ig', 00H			; `string'
CONST	ENDS
;	COMDAT ??_C@_05HFEEPCPJ@id_ID?$AA@
CONST	SEGMENT
??_C@_05HFEEPCPJ@id_ID?$AA@ DB 'id_ID', 00H		; `string'
CONST	ENDS
;	COMDAT ??_C@_02EGCJHIOB@id?$AA@
CONST	SEGMENT
??_C@_02EGCJHIOB@id?$AA@ DB 'id', 00H			; `string'
CONST	ENDS
;	COMDAT ??_C@_06IMCBMFDH@ibb_NG?$AA@
CONST	SEGMENT
??_C@_06IMCBMFDH@ibb_NG?$AA@ DB 'ibb_NG', 00H		; `string'
CONST	ENDS
;	COMDAT ??_C@_03IEANIOAB@ibb?$AA@
CONST	SEGMENT
??_C@_03IEANIOAB@ibb?$AA@ DB 'ibb', 00H			; `string'
CONST	ENDS
;	COMDAT ??_C@_05PJLJJIJO@hy_AM?$AA@
CONST	SEGMENT
??_C@_05PJLJJIJO@hy_AM?$AA@ DB 'hy_AM', 00H		; `string'
CONST	ENDS
;	COMDAT ??_C@_02LIIHHOMK@hy?$AA@
CONST	SEGMENT
??_C@_02LIIHHOMK@hy?$AA@ DB 'hy', 00H			; `string'
CONST	ENDS
;	COMDAT ??_C@_05LBIDNGEJ@hu_HU?$AA@
CONST	SEGMENT
??_C@_05LBIDNGEJ@hu_HU?$AA@ DB 'hu_HU', 00H		; `string'
CONST	ENDS
;	COMDAT ??_C@_02BEDCDBMG@hu?$AA@
CONST	SEGMENT
??_C@_02BEDCDBMG@hu?$AA@ DB 'hu', 00H			; `string'
CONST	ENDS
;	COMDAT ??_C@_03GLIDJPJL@dsb?$AA@
CONST	SEGMENT
??_C@_03GLIDJPJL@dsb?$AA@ DB 'dsb', 00H			; `string'
CONST	ENDS
;	COMDAT ??_C@_06BKNNJCJN@dsb_DE?$AA@
CONST	SEGMENT
??_C@_06BKNNJCJN@dsb_DE?$AA@ DB 'dsb_DE', 00H		; `string'
CONST	ENDS
;	COMDAT ??_C@_06NNHNPIOJ@hsb_DE?$AA@
CONST	SEGMENT
??_C@_06NNHNPIOJ@hsb_DE?$AA@ DB 'hsb_DE', 00H		; `string'
CONST	ENDS
;	COMDAT ??_C@_03CBFFCACD@hsb?$AA@
CONST	SEGMENT
??_C@_03CBFFCACD@hsb?$AA@ DB 'hsb', 00H			; `string'
CONST	ENDS
;	COMDAT ??_C@_02ELAAOLJA@sr?$AA@
CONST	SEGMENT
??_C@_02ELAAOLJA@sr?$AA@ DB 'sr', 00H			; `string'
CONST	ENDS
;	COMDAT ??_C@_07KJHEJINP@sr_Cyrl?$AA@
CONST	SEGMENT
??_C@_07KJHEJINP@sr_Cyrl?$AA@ DB 'sr_Cyrl', 00H		; `string'
CONST	ENDS
;	COMDAT ??_C@_0L@FOFCMCO@sr_Cyrl_RS?$AA@
CONST	SEGMENT
??_C@_0L@FOFCMCO@sr_Cyrl_RS?$AA@ DB 'sr_Cyrl_RS', 00H	; `string'
CONST	ENDS
;	COMDAT ??_C@_0L@OAHHNLE@sr_Cyrl_ME?$AA@
CONST	SEGMENT
??_C@_0L@OAHHNLE@sr_Cyrl_ME?$AA@ DB 'sr_Cyrl_ME', 00H	; `string'
CONST	ENDS
;	COMDAT ??_C@_0L@BIABOFGJ@sr_Cyrl_CS?$AA@
CONST	SEGMENT
??_C@_0L@BIABOFGJ@sr_Cyrl_CS?$AA@ DB 'sr_Cyrl_CS', 00H	; `string'
CONST	ENDS
;	COMDAT ??_C@_0L@GBDHPPIN@sr_Cyrl_BA?$AA@
CONST	SEGMENT
??_C@_0L@GBDHPPIN@sr_Cyrl_BA?$AA@ DB 'sr_Cyrl_BA', 00H	; `string'
CONST	ENDS
;	COMDAT ??_C@_07IIDCGOEO@sr_Latn?$AA@
CONST	SEGMENT
??_C@_07IIDCGOEO@sr_Latn?$AA@ DB 'sr_Latn', 00H		; `string'
CONST	ENDS
;	COMDAT ??_C@_0L@DJIJJFBB@sr_Latn_CS?$AA@
CONST	SEGMENT
??_C@_0L@DJIJJFBB@sr_Latn_CS?$AA@ DB 'sr_Latn_CS', 00H	; `string'
CONST	ENDS
;	COMDAT ??_C@_0L@EALPIPPF@sr_Latn_BA?$AA@
CONST	SEGMENT
??_C@_0L@EALPIPPF@sr_Latn_BA?$AA@ DB 'sr_Latn_BA', 00H	; `string'
CONST	ENDS
;	COMDAT ??_C@_0L@CEGNFMFG@sr_Latn_RS?$AA@
CONST	SEGMENT
??_C@_0L@CEGNFMFG@sr_Latn_RS?$AA@ DB 'sr_Latn_RS', 00H	; `string'
CONST	ENDS
;	COMDAT ??_C@_0L@CPIPANMM@sr_Latn_ME?$AA@
CONST	SEGMENT
??_C@_0L@CPIPANMM@sr_Latn_ME?$AA@ DB 'sr_Latn_ME', 00H	; `string'
CONST	ENDS
;	COMDAT ??_C@_05EMOCJMJO@hr_HR?$AA@
CONST	SEGMENT
??_C@_05EMOCJMJO@hr_HR?$AA@ DB 'hr_HR', 00H		; `string'
CONST	ENDS
;	COMDAT ??_C@_05CAJKFINK@hr_BA?$AA@
CONST	SEGMENT
??_C@_05CAJKFINK@hr_BA?$AA@ DB 'hr_BA', 00H		; `string'
CONST	ENDS
;	COMDAT ??_C@_07LPBCKCNO@bs_Cyrl?$AA@
CONST	SEGMENT
??_C@_07LPBCKCNO@bs_Cyrl?$AA@ DB 'bs_Cyrl', 00H		; `string'
CONST	ENDS
;	COMDAT ??_C@_0L@OBINIPLI@bs_Cyrl_BA?$AA@
CONST	SEGMENT
??_C@_0L@OBINIPLI@bs_Cyrl_BA?$AA@ DB 'bs_Cyrl_BA', 00H	; `string'
CONST	ENDS
;	COMDAT ??_C@_02EPPPBDJG@bs?$AA@
CONST	SEGMENT
??_C@_02EPPPBDJG@bs?$AA@ DB 'bs', 00H			; `string'
CONST	ENDS
;	COMDAT ??_C@_05LMGBFCAM@bs_BA?$AA@
CONST	SEGMENT
??_C@_05LMGBFCAM@bs_BA?$AA@ DB 'bs_BA', 00H		; `string'
CONST	ENDS
;	COMDAT ??_C@_07JOFEFEEP@bs_Latn?$AA@
CONST	SEGMENT
??_C@_07JOFEFEEP@bs_Latn?$AA@ DB 'bs_Latn', 00H		; `string'
CONST	ENDS
;	COMDAT ??_C@_0L@MAAFPPMA@bs_Latn_BA?$AA@
CONST	SEGMENT
??_C@_0L@MAAFPPMA@bs_Latn_BA?$AA@ DB 'bs_Latn_BA', 00H	; `string'
CONST	ENDS
;	COMDAT ??_C@_02FLHDKHAB@hr?$AA@
CONST	SEGMENT
??_C@_02FLHDKHAB@hr?$AA@ DB 'hr', 00H			; `string'
CONST	ENDS
;	COMDAT ??_C@_05LMGHANGH@hi_IN?$AA@
CONST	SEGMENT
??_C@_05LMGHANGH@hi_IN?$AA@ DB 'hi_IN', 00H		; `string'
CONST	ENDS
;	COMDAT ??_C@_02PCEFGMJL@hi?$AA@
CONST	SEGMENT
??_C@_02PCEFGMJL@hi?$AA@ DB 'hi', 00H			; `string'
CONST	ENDS
;	COMDAT ??_C@_05ELKBICOE@he_IL?$AA@
CONST	SEGMENT
??_C@_05ELKBICOE@he_IL?$AA@ DB 'he_IL', 00H		; `string'
CONST	ENDS
;	COMDAT ??_C@_02FOPACDJH@he?$AA@
CONST	SEGMENT
??_C@_02FOPACDJH@he?$AA@ DB 'he', 00H			; `string'
CONST	ENDS
;	COMDAT ??_C@_06DKBPDPBL@haw_US?$AA@
CONST	SEGMENT
??_C@_06DKBPDPBL@haw_US?$AA@ DB 'haw_US', 00H		; `string'
CONST	ENDS
;	COMDAT ??_C@_03JECLBCJ@haw?$AA@
CONST	SEGMENT
??_C@_03JECLBCJ@haw?$AA@ DB 'haw', 00H			; `string'
CONST	ENDS
;	COMDAT ??_C@_0L@FOLBKIHD@ha_Latn_NG?$AA@
CONST	SEGMENT
??_C@_0L@FOLBKIHD@ha_Latn_NG?$AA@ DB 'ha_Latn_NG', 00H	; `string'
CONST	ENDS
;	COMDAT ??_C@_07PPNFMFGA@ha_Latn?$AA@
CONST	SEGMENT
??_C@_07PPNFMFGA@ha_Latn?$AA@ DB 'ha_Latn', 00H		; `string'
CONST	ENDS
;	COMDAT ??_C@_02DKJMOGJD@ha?$AA@
CONST	SEGMENT
??_C@_02DKJMOGJD@ha?$AA@ DB 'ha', 00H			; `string'
CONST	ENDS
;	COMDAT ??_C@_06IFDCMAAK@gsw_FR?$AA@
CONST	SEGMENT
??_C@_06IFDCMAAK@gsw_FR?$AA@ DB 'gsw_FR', 00H		; `string'
CONST	ENDS
;	COMDAT ??_C@_03EOIDNGGB@gsw?$AA@
CONST	SEGMENT
??_C@_03EOIDNGGB@gsw?$AA@ DB 'gsw', 00H			; `string'
CONST	ENDS
;	COMDAT ??_C@_05OJGFHPML@gn_PY?$AA@
CONST	SEGMENT
??_C@_05OJGFHPML@gn_PY?$AA@ DB 'gn_PY', 00H		; `string'
CONST	ENDS
;	COMDAT ??_C@_02LGFILNGB@gn?$AA@
CONST	SEGMENT
??_C@_02LGFILNGB@gn?$AA@ DB 'gn', 00H			; `string'
CONST	ENDS
;	COMDAT ??_C@_05OICBMFDB@gu_IN?$AA@
CONST	SEGMENT
??_C@_05OICBMFDB@gu_IN?$AA@ DB 'gu_IN', 00H		; `string'
CONST	ENDS
;	COMDAT ??_C@_02BPGOHGPL@gu?$AA@
CONST	SEGMENT
??_C@_02BPGOHGPL@gu?$AA@ DB 'gu', 00H			; `string'
CONST	ENDS
;	COMDAT ??_C@_05HDKHKFLK@gl_ES?$AA@
CONST	SEGMENT
??_C@_05HDKHKFLK@gl_ES?$AA@ DB 'gl_ES', 00H		; `string'
CONST	ENDS
;	COMDAT ??_C@_02IEGONPOD@gl?$AA@
CONST	SEGMENT
??_C@_02IEGONPOD@gl?$AA@ DB 'gl', 00H			; `string'
CONST	ENDS
;	COMDAT ??_C@_02EMLHFFOL@gd?$AA@
CONST	SEGMENT
??_C@_02EMLHFFOL@gd?$AA@ DB 'gd', 00H			; `string'
CONST	ENDS
;	COMDAT ??_C@_05BDIKBJAF@gd_GB?$AA@
CONST	SEGMENT
??_C@_05BDIKBJAF@gd_GB?$AA@ DB 'gd_GB', 00H		; `string'
CONST	ENDS
;	COMDAT ??_C@_05JOLFCNLI@ga_IE?$AA@
CONST	SEGMENT
??_C@_05JOLFCNLI@ga_IE?$AA@ DB 'ga_IE', 00H		; `string'
CONST	ENDS
;	COMDAT ??_C@_02DBMAKBKO@ga?$AA@
CONST	SEGMENT
??_C@_02DBMAKBKO@ga?$AA@ DB 'ga', 00H			; `string'
CONST	ENDS
;	COMDAT ??_C@_05NBPEIPJC@fy_NL?$AA@
CONST	SEGMENT
??_C@_05NBPEIPJC@fy_NL?$AA@ DB 'fy_NL', 00H		; `string'
CONST	ENDS
;	COMDAT ??_C@_02LCBJFDMA@fy?$AA@
CONST	SEGMENT
??_C@_02LCBJFDMA@fy?$AA@ DB 'fy', 00H			; `string'
CONST	ENDS
;	COMDAT ??_C@_06PBNKLGLP@fuv_NG?$AA@
CONST	SEGMENT
??_C@_06PBNKLGLP@fuv_NG?$AA@ DB 'fuv_NG', 00H		; `string'
CONST	ENDS
;	COMDAT ??_C@_03OLKJPMPH@fuv?$AA@
CONST	SEGMENT
??_C@_03OLKJPMPH@fuv?$AA@ DB 'fuv', 00H			; `string'
CONST	ENDS
;	COMDAT ??_C@_06KPBMOJGL@fr_029?$AA@
CONST	SEGMENT
??_C@_06KPBMOJGL@fr_029?$AA@ DB 'fr_029', 00H		; `string'
CONST	ENDS
;	COMDAT ??_C@_06BOPBIDO@fr_015?$AA@
CONST	SEGMENT
??_C@_06BOPBIDO@fr_015?$AA@ DB 'fr_015', 00H		; `string'
CONST	ENDS
;	COMDAT ??_C@_05IAOMOMCC@fr_SN?$AA@
CONST	SEGMENT
??_C@_05IAOMOMCC@fr_SN?$AA@ DB 'fr_SN', 00H		; `string'
CONST	ENDS
;	COMDAT ??_C@_05GCNKFPNO@fr_RE?$AA@
CONST	SEGMENT
??_C@_05GCNKFPNO@fr_RE?$AA@ DB 'fr_RE', 00H		; `string'
CONST	ENDS
;	COMDAT ??_C@_05KEGCAANK@fr_ML?$AA@
CONST	SEGMENT
??_C@_05KEGCAANK@fr_ML?$AA@ DB 'fr_ML', 00H		; `string'
CONST	ENDS
;	COMDAT ??_C@_05CDPKBMBF@fr_MC?$AA@
CONST	SEGMENT
??_C@_05CDPKBMBF@fr_MC?$AA@ DB 'fr_MC', 00H		; `string'
CONST	ENDS
;	COMDAT ??_C@_05BBMMHOJH@fr_MA?$AA@
CONST	SEGMENT
??_C@_05BBMMHOJH@fr_MA?$AA@ DB 'fr_MA', 00H		; `string'
CONST	ENDS
;	COMDAT ??_C@_05DOKAMDPF@fr_LU?$AA@
CONST	SEGMENT
??_C@_05DOKAMDPF@fr_LU?$AA@ DB 'fr_LU', 00H		; `string'
CONST	ENDS
;	COMDAT ??_C@_05CALCFKGI@fr_HT?$AA@
CONST	SEGMENT
??_C@_05CALCFKGI@fr_HT?$AA@ DB 'fr_HT', 00H		; `string'
CONST	ENDS
;	COMDAT ??_C@_05HMHGNAOE@fr_FR?$AA@
CONST	SEGMENT
??_C@_05HMHGNAOE@fr_FR?$AA@ DB 'fr_FR', 00H		; `string'
CONST	ENDS
;	COMDAT ??_C@_05LHOHBMJB@fr_CM?$AA@
CONST	SEGMENT
??_C@_05LHOHBMJB@fr_CM?$AA@ DB 'fr_CM', 00H		; `string'
CONST	ENDS
;	COMDAT ??_C@_05NDILNJJF@fr_CI?$AA@
CONST	SEGMENT
??_C@_05NDILNJJF@fr_CI?$AA@ DB 'fr_CI', 00H		; `string'
CONST	ENDS
;	COMDAT ??_C@_05MKJAOINE@fr_CH?$AA@
CONST	SEGMENT
??_C@_05MKJAOINE@fr_CH?$AA@ DB 'fr_CH', 00H		; `string'
CONST	ENDS
;	COMDAT ??_C@_05ENAIPEBL@fr_CG?$AA@
CONST	SEGMENT
??_C@_05ENAIPEBL@fr_CG?$AA@ DB 'fr_CG', 00H		; `string'
CONST	ENDS
;	COMDAT ??_C@_05GGCFKHNI@fr_CD?$AA@
CONST	SEGMENT
??_C@_05GGCFKHNI@fr_CD?$AA@ DB 'fr_CD', 00H		; `string'
CONST	ENDS
;	COMDAT ??_C@_05BLFCFDJN@fr_CA?$AA@
CONST	SEGMENT
??_C@_05BLFCFDJN@fr_CA?$AA@ DB 'fr_CA', 00H		; `string'
CONST	ENDS
;	COMDAT ??_C@_05HOPMPMKO@fr_BE?$AA@
CONST	SEGMENT
??_C@_05HOPMPMKO@fr_BE?$AA@ DB 'fr_BE', 00H		; `string'
CONST	ENDS
;	COMDAT ??_C@_02FBONIKAL@fr?$AA@
CONST	SEGMENT
??_C@_02FBONIKAL@fr?$AA@ DB 'fr', 00H			; `string'
CONST	ENDS
;	COMDAT ??_C@_05BLGKOPML@fo_FO?$AA@
CONST	SEGMENT
??_C@_05BLGKOPML@fo_FO?$AA@ DB 'fo_FO', 00H		; `string'
CONST	ENDS
;	COMDAT ??_C@_02KOIBOGBH@fo?$AA@
CONST	SEGMENT
??_C@_02KOIBOGBH@fo?$AA@ DB 'fo', 00H			; `string'
CONST	ENDS
;	COMDAT ??_C@_06DOLOGJMJ@fil_PH?$AA@
CONST	SEGMENT
??_C@_06DOLOGJMJ@fil_PH?$AA@ DB 'fil_PH', 00H		; `string'
CONST	ENDS
;	COMDAT ??_C@_03EOLIFMDI@fil?$AA@
CONST	SEGMENT
??_C@_03EOLIFMDI@fil?$AA@ DB 'fil', 00H			; `string'
CONST	ENDS
;	COMDAT ??_C@_05MCHALNON@fi_FI?$AA@
CONST	SEGMENT
??_C@_05MCHALNON@fi_FI?$AA@ DB 'fi_FI', 00H		; `string'
CONST	ENDS
;	COMDAT ??_C@_02PINLEBJB@fi?$AA@
CONST	SEGMENT
??_C@_02PINLEBJB@fi?$AA@ DB 'fi', 00H			; `string'
CONST	ENDS
;	COMDAT ??_C@_0L@CLCHBDGG@ff_Latn_SN?$AA@
CONST	SEGMENT
??_C@_0L@CLCHBDGG@ff_Latn_SN?$AA@ DB 'ff_Latn_SN', 00H	; `string'
CONST	ENDS
;	COMDAT ??_C@_07CPPIOJNM@ff_Latn?$AA@
CONST	SEGMENT
??_C@_07CPPIOJNM@ff_Latn?$AA@ DB 'ff_Latn', 00H		; `string'
CONST	ENDS
;	COMDAT ??_C@_02HPEDFNFO@ff?$AA@
CONST	SEGMENT
??_C@_02HPEDFNFO@ff?$AA@ DB 'ff', 00H			; `string'
CONST	ENDS
;	COMDAT ??_C@_05HANHPMGG@fa_AF?$AA@
CONST	SEGMENT
??_C@_05HANHPMGG@fa_AF?$AA@ DB 'fa_AF', 00H		; `string'
CONST	ENDS
;	COMDAT ??_C@_05FAGKHKIL@fa_IR?$AA@
CONST	SEGMENT
??_C@_05FAGKHKIL@fa_IR?$AA@ DB 'fa_IR', 00H		; `string'
CONST	ENDS
;	COMDAT ??_C@_02DAACMLJJ@fa?$AA@
CONST	SEGMENT
??_C@_02DAACMLJJ@fa?$AA@ DB 'fa', 00H			; `string'
CONST	ENDS
;	COMDAT ??_C@_05FDJPPBEC@eu_ES?$AA@
CONST	SEGMENT
??_C@_05FDJPPBEC@eu_ES?$AA@ DB 'eu_ES', 00H		; `string'
CONST	ENDS
;	COMDAT ??_C@_02BMOKKCJF@eu?$AA@
CONST	SEGMENT
??_C@_02BMOKKCJF@eu?$AA@ DB 'eu', 00H			; `string'
CONST	ENDS
;	COMDAT ??_C@_05HCGHGNCF@et_EE?$AA@
CONST	SEGMENT
??_C@_05HCGHGNCF@et_EE?$AA@ DB 'et_EE', 00H		; `string'
CONST	ENDS
;	COMDAT ??_C@_02FPBJDNE@et?$AA@
CONST	SEGMENT
??_C@_02FPBJDNE@et?$AA@ DB 'et', 00H			; `string'
CONST	ENDS
;	COMDAT ??_C@_0BJ@HGPOFGAD@es?$EAcollation?$DNtraditional?$AA@
CONST	SEGMENT
??_C@_0BJ@HGPOFGAD@es?$EAcollation?$DNtraditional?$AA@ DB 'es@collation=t'
	DB	'raditional', 00H				; `string'
CONST	ENDS
;	COMDAT ??_C@_0BM@BNNDGDKC@es_ES?$EAcollation?$DNtraditional?$AA@
CONST	SEGMENT
??_C@_0BM@BNNDGDKC@es_ES?$EAcollation?$DNtraditional?$AA@ DB 'es_ES@colla'
	DB	'tion=traditional', 00H			; `string'
CONST	ENDS
;	COMDAT ??_C@_06NIIMAJFN@es_419?$AA@
CONST	SEGMENT
??_C@_06NIIMAJFN@es_419?$AA@ DB 'es_419', 00H		; `string'
CONST	ENDS
;	COMDAT ??_C@_05NOCHKMBM@es_VE?$AA@
CONST	SEGMENT
??_C@_05NOCHKMBM@es_VE?$AA@ DB 'es_VE', 00H		; `string'
CONST	ENDS
;	COMDAT ??_C@_05DKBGEPBI@es_UY?$AA@
CONST	SEGMENT
??_C@_05DKBGEPBI@es_UY?$AA@ DB 'es_UY', 00H		; `string'
CONST	ENDS
;	COMDAT ??_C@_05MAPJKHJC@es_US?$AA@
CONST	SEGMENT
??_C@_05MAPJKHJC@es_US?$AA@ DB 'es_US', 00H		; `string'
CONST	ENDS
;	COMDAT ??_C@_05LJADCPGF@es_SV?$AA@
CONST	SEGMENT
??_C@_05LJADCPGF@es_SV?$AA@ DB 'es_SV', 00H		; `string'
CONST	ENDS
;	COMDAT ??_C@_05DMNNINPD@es_PY?$AA@
CONST	SEGMENT
??_C@_05DMNNINPD@es_PY?$AA@ DB 'es_PY', 00H		; `string'
CONST	ENDS
;	COMDAT ??_C@_05NPCJFEDI@es_PR?$AA@
CONST	SEGMENT
??_C@_05NPCJFEDI@es_PR?$AA@ DB 'es_PR', 00H		; `string'
CONST	ENDS
;	COMDAT ??_C@_05NKKKNAKO@es_PE?$AA@
CONST	SEGMENT
??_C@_05NKKKNAKO@es_PE?$AA@ DB 'es_PE', 00H		; `string'
CONST	ENDS
;	COMDAT ??_C@_05LOMGBFKK@es_PA?$AA@
CONST	SEGMENT
??_C@_05LOMGBFKK@es_PA?$AA@ DB 'es_PA', 00H		; `string'
CONST	ENDS
;	COMDAT ??_C@_05GAKHBBNI@es_NI?$AA@
CONST	SEGMENT
??_C@_05GAKHBBNI@es_NI?$AA@ DB 'es_NI', 00H		; `string'
CONST	ENDS
;	COMDAT ??_C@_05DBDIIMJB@es_MX?$AA@
CONST	SEGMENT
??_C@_05DBDIIMJB@es_MX?$AA@ DB 'es_MX', 00H		; `string'
CONST	ENDS
;	COMDAT ??_C@_05CLGLPLKN@es_HN?$AA@
CONST	SEGMENT
??_C@_05CLGLPLKN@es_HN?$AA@ DB 'es_HN', 00H		; `string'
CONST	ENDS
;	COMDAT ??_C@_05JABKEGEL@es_GT?$AA@
CONST	SEGMENT
??_C@_05JABKEGEL@es_GT?$AA@ DB 'es_GT', 00H		; `string'
CONST	ENDS
;	COMDAT ??_C@_05NMNPAEOC@es_ES?$AA@
CONST	SEGMENT
??_C@_05NMNPAEOC@es_ES?$AA@ DB 'es_ES', 00H		; `string'
CONST	ENDS
;	COMDAT ??_C@_05JGBNBGLD@es_EC?$AA@
CONST	SEGMENT
??_C@_05JGBNBGLD@es_EC?$AA@ DB 'es_EC', 00H		; `string'
CONST	ENDS
;	COMDAT ??_C@_05DLGKDDII@es_DO?$AA@
CONST	SEGMENT
??_C@_05DLGKDDII@es_DO?$AA@ DB 'es_DO', 00H		; `string'
CONST	ENDS
;	COMDAT ??_C@_05MBEJEJBB@es_CR?$AA@
CONST	SEGMENT
??_C@_05MBEJEJBB@es_CR?$AA@ DB 'es_CR', 00H		; `string'
CONST	ENDS
;	COMDAT ??_C@_05DOCFCFAN@es_CO?$AA@
CONST	SEGMENT
??_C@_05DOCFCFAN@es_CO?$AA@ DB 'es_CO', 00H		; `string'
CONST	ENDS
;	COMDAT ??_C@_05BFAIHGMO@es_CL?$AA@
CONST	SEGMENT
??_C@_05BFAIHGMO@es_CL?$AA@ DB 'es_CL', 00H		; `string'
CONST	ENDS
;	COMDAT ??_C@_05DPOHEPDK@es_BO?$AA@
CONST	SEGMENT
??_C@_05DPOHEPDK@es_BO?$AA@ DB 'es_BO', 00H		; `string'
CONST	ENDS
;	COMDAT ??_C@_05MCMNJNHP@es_AR?$AA@
CONST	SEGMENT
??_C@_05MCMNJNHP@es_AR?$AA@ DB 'es_AR', 00H		; `string'
CONST	ENDS
;	COMDAT ??_C@_02EKLAAFBD@es?$AA@
CONST	SEGMENT
??_C@_02EKLAAFBD@es?$AA@ DB 'es', 00H			; `string'
CONST	ENDS
;	COMDAT ??_C@_05IMMIMLHO@en_UM?$AA@
CONST	SEGMENT
??_C@_05IMMIMLHO@en_UM?$AA@ DB 'en_UM', 00H		; `string'
CONST	ENDS
;	COMDAT ??_C@_05GBJBFFKK@en_MP?$AA@
CONST	SEGMENT
??_C@_05GBJBFFKK@en_MP?$AA@ DB 'en_MP', 00H		; `string'
CONST	ENDS
;	COMDAT ??_C@_05ODIKMNPD@en_MH?$AA@
CONST	SEGMENT
??_C@_05ODIKMNPD@en_MH?$AA@ DB 'en_MH', 00H		; `string'
CONST	ENDS
;	COMDAT ??_C@_05BBHBCEDJ@en_GU?$AA@
CONST	SEGMENT
??_C@_05BBHBCEDJ@en_GU?$AA@ DB 'en_GU', 00H		; `string'
CONST	ENDS
;	COMDAT ??_C@_05EDKGPPAN@en_AS?$AA@
CONST	SEGMENT
??_C@_05EDKGPPAN@en_AS?$AA@ DB 'en_AS', 00H		; `string'
CONST	ENDS
;	COMDAT ??_C@_06OKOADBBG@en_029?$AA@
CONST	SEGMENT
??_C@_06OKOADBBG@en_029?$AA@ DB 'en_029', 00H		; `string'
CONST	ENDS
;	COMDAT ??_C@_05DHLJHGJI@en_ZW?$AA@
CONST	SEGMENT
??_C@_05DHLJHGJI@en_ZW?$AA@ DB 'en_ZW', 00H		; `string'
CONST	ENDS
;	COMDAT ??_C@_05CLCBMDEP@en_ZA?$AA@
CONST	SEGMENT
??_C@_05CLCBMDEP@en_ZA?$AA@ DB 'en_ZA', 00H		; `string'
CONST	ENDS
;	COMDAT ??_C@_05OKOCLACD@en_VI?$AA@
CONST	SEGMENT
??_C@_05OKOCLACD@en_VI?$AA@ DB 'en_VI', 00H		; `string'
CONST	ENDS
;	COMDAT ??_C@_0M@EKCLCNAB@en_US_POSIX?$AA@
CONST	SEGMENT
??_C@_0M@EKCLCNAB@en_US_POSIX?$AA@ DB 'en_US_POSIX', 00H ; `string'
CONST	ENDS
;	COMDAT ??_C@_05FIIJPEKB@en_US?$AA@
CONST	SEGMENT
??_C@_05FIIJPEKB@en_US?$AA@ DB 'en_US', 00H		; `string'
CONST	ENDS
;	COMDAT ??_C@_05BGAKAIFB@en_TT?$AA@
CONST	SEGMENT
??_C@_05BGAKAIFB@en_TT?$AA@ DB 'en_TT', 00H		; `string'
CONST	ENDS
;	COMDAT ??_C@_05HCKKFPEG@en_SG?$AA@
CONST	SEGMENT
??_C@_05HCKKFPEG@en_SG?$AA@ DB 'en_SG', 00H		; `string'
CONST	ENDS
;	COMDAT ??_C@_05PHHEPNNA@en_PH?$AA@
CONST	SEGMENT
??_C@_05PHHEPNNA@en_PH?$AA@ DB 'en_PH', 00H		; `string'
CONST	ENDS
;	COMDAT ??_C@_05JJDIADHJ@en_NZ?$AA@
CONST	SEGMENT
??_C@_05JJDIADHJ@en_NZ?$AA@ DB 'en_NZ', 00H		; `string'
CONST	ENDS
;	COMDAT ??_C@_05LAFDOOOD@en_MY?$AA@
CONST	SEGMENT
??_C@_05LAFDOOOD@en_MY?$AA@ DB 'en_MY', 00H		; `string'
CONST	ENDS
;	COMDAT ??_C@_05JLLCCPDD@en_JM?$AA@
CONST	SEGMENT
??_C@_05JLLCCPDD@en_JM?$AA@ DB 'en_JM', 00H		; `string'
CONST	ENDS
;	COMDAT ??_C@_05LCNJMCKJ@en_IN?$AA@
CONST	SEGMENT
??_C@_05LCNJMCKJ@en_IN?$AA@ DB 'en_IN', 00H		; `string'
CONST	ENDS
;	COMDAT ??_C@_05FBCNBLGC@en_IE?$AA@
CONST	SEGMENT
??_C@_05FBCNBLGC@en_IE?$AA@ DB 'en_IE', 00H		; `string'
CONST	ENDS
;	COMDAT ??_C@_05EIDGCKCD@en_ID?$AA@
CONST	SEGMENT
??_C@_05EIDGCKCD@en_ID?$AA@ DB 'en_ID', 00H		; `string'
CONST	ENDS
;	COMDAT ??_C@_05MOGMFMNL@en_HK?$AA@
CONST	SEGMENT
??_C@_05MOGMFMNL@en_HK?$AA@ DB 'en_HK', 00H		; `string'
CONST	ENDS
;	COMDAT ??_C@_05BEPCKAKP@en_GB?$AA@
CONST	SEGMENT
??_C@_05BEPCKAKP@en_GB?$AA@ DB 'en_GB', 00H		; `string'
CONST	ENDS
;	COMDAT ??_C@_05DINGFLLA@en_CA?$AA@
CONST	SEGMENT
??_C@_05DINGFLLA@en_CA?$AA@ DB 'en_CA', 00H		; `string'
CONST	ENDS
;	COMDAT ??_C@_05JACCPKBN@en_BZ?$AA@
CONST	SEGMENT
??_C@_05JACCPKBN@en_BZ?$AA@ DB 'en_BZ', 00H		; `string'
CONST	ENDS
;	COMDAT ??_C@_05BFPMFIIL@en_AU?$AA@
CONST	SEGMENT
??_C@_05BFPMFIIL@en_AU?$AA@ DB 'en_AU', 00H		; `string'
CONST	ENDS
;	COMDAT ??_C@_02LFNMGJAP@en?$AA@
CONST	SEGMENT
??_C@_02LFNMGJAP@en?$AA@ DB 'en', 00H			; `string'
CONST	ENDS
;	COMDAT ??_C@_05CEPAOBJO@el_GR?$AA@
CONST	SEGMENT
??_C@_05CEPAOBJO@el_GR?$AA@ DB 'el_GR', 00H		; `string'
CONST	ENDS
;	COMDAT ??_C@_02IHOKALIN@el?$AA@
CONST	SEGMENT
??_C@_02IHOKALIN@el?$AA@ DB 'el', 00H			; `string'
CONST	ENDS
;	COMDAT ??_C@_05KMAHPNMK@dv_MV?$AA@
CONST	SEGMENT
??_C@_05KMAHPNMK@dv_MV?$AA@ DB 'dv_MV', 00H		; `string'
CONST	ENDS
;	COMDAT ??_C@_02DGAFJLGB@dv?$AA@
CONST	SEGMENT
??_C@_02DGAFJLGB@dv?$AA@ DB 'dv', 00H			; `string'
CONST	ENDS
;	COMDAT ??_C@_0BH@COMEHOCI@de?$EAcollation?$DNphonebook?$AA@
CONST	SEGMENT
??_C@_0BH@COMEHOCI@de?$EAcollation?$DNphonebook?$AA@ DB 'de@collation=pho'
	DB	'nebook', 00H				; `string'
CONST	ENDS
;	COMDAT ??_C@_0BK@PHPOLKNI@de_DE?$EAcollation?$DNphonebook?$AA@
CONST	SEGMENT
??_C@_0BK@PHPOLKNI@de_DE?$EAcollation?$DNphonebook?$AA@ DB 'de_DE@collati'
	DB	'on=phonebook', 00H				; `string'
CONST	ENDS
;	COMDAT ??_C@_05KBKICJGM@de_LU?$AA@
CONST	SEGMENT
??_C@_05KBKICJGM@de_LU?$AA@ DB 'de_LU', 00H		; `string'
CONST	ENDS
;	COMDAT ??_C@_05EHNPHEDB@de_LI?$AA@
CONST	SEGMENT
??_C@_05EHNPHEDB@de_LI?$AA@ DB 'de_LI', 00H		; `string'
CONST	ENDS
;	COMDAT ??_C@_05OFHJGKIF@de_DE?$AA@
CONST	SEGMENT
??_C@_05OFHJGKIF@de_DE?$AA@ DB 'de_DE', 00H		; `string'
CONST	ENDS
;	COMDAT ??_C@_05FFJIACEN@de_CH?$AA@
CONST	SEGMENT
??_C@_05FFJIACEN@de_CH?$AA@ DB 'de_CH', 00H		; `string'
CONST	ENDS
;	COMDAT ??_C@_05LAGLILHO@de_AT?$AA@
CONST	SEGMENT
??_C@_05LAGLILHO@de_AT?$AA@ DB 'de_AT', 00H		; `string'
CONST	ENDS
;	COMDAT ??_C@_02FHOKNKPD@de?$AA@
CONST	SEGMENT
??_C@_02FHOKNKPD@de?$AA@ DB 'de', 00H			; `string'
CONST	ENDS
;	COMDAT ??_C@_05IOHKOBML@da_DK?$AA@
CONST	SEGMENT
??_C@_05IOHKOBML@da_DK?$AA@ DB 'da_DK', 00H		; `string'
CONST	ENDS
;	COMDAT ??_C@_02DDIGBPPH@da?$AA@
CONST	SEGMENT
??_C@_02DDIGBPPH@da?$AA@ DB 'da', 00H			; `string'
CONST	ENDS
;	COMDAT ??_C@_05BAGLAICA@cy_GB?$AA@
CONST	SEGMENT
??_C@_05BAGLAICA@cy_GB?$AA@ DB 'cy_GB', 00H		; `string'
CONST	ENDS
;	COMDAT ??_C@_02LENCJBCL@cy?$AA@
CONST	SEGMENT
??_C@_02LENCJBCL@cy?$AA@ DB 'cy', 00H			; `string'
CONST	ENDS
;	COMDAT ??_C@_05NPMJCAAE@cs_CZ?$AA@
CONST	SEGMENT
??_C@_05NPMJCAAE@cs_CZ?$AA@ DB 'cs_CZ', 00H		; `string'
CONST	ENDS
;	COMDAT ??_C@_02EODNHJKB@cs?$AA@
CONST	SEGMENT
??_C@_02EODNHJKB@cs?$AA@ DB 'cs', 00H			; `string'
CONST	ENDS
;	COMDAT ??_C@_0L@KLBJKBBJ@ku_Arab_IQ?$AA@
CONST	SEGMENT
??_C@_0L@KLBJKBBJ@ku_Arab_IQ?$AA@ DB 'ku_Arab_IQ', 00H	; `string'
CONST	ENDS
;	COMDAT ??_C@_0M@CBPFPCPD@ckb_Arab_IQ?$AA@
CONST	SEGMENT
??_C@_0M@CBPFPCPD@ckb_Arab_IQ?$AA@ DB 'ckb_Arab_IQ', 00H ; `string'
CONST	ENDS
;	COMDAT ??_C@_07OOKPGIAJ@ku_Arab?$AA@
CONST	SEGMENT
??_C@_07OOKPGIAJ@ku_Arab?$AA@ DB 'ku_Arab', 00H		; `string'
CONST	ENDS
;	COMDAT ??_C@_08KKBDLMOP@ckb_Arab?$AA@
CONST	SEGMENT
??_C@_08KKBDLMOP@ckb_Arab?$AA@ DB 'ckb_Arab', 00H	; `string'
CONST	ENDS
;	COMDAT ??_C@_02BGHEIPJP@ku?$AA@
CONST	SEGMENT
??_C@_02BGHEIPJP@ku?$AA@ DB 'ku', 00H			; `string'
CONST	ENDS
;	COMDAT ??_C@_03OEGBFFOK@ckb?$AA@
CONST	SEGMENT
??_C@_03OEGBFFOK@ckb?$AA@ DB 'ckb', 00H			; `string'
CONST	ENDS
;	COMDAT ??_C@_06NHPHLFFJ@chr_US?$AA@
CONST	SEGMENT
??_C@_06NHPHLFFJ@chr_US?$AA@ DB 'chr_US', 00H		; `string'
CONST	ENDS
;	COMDAT ??_C@_03KMOFPJOC@chr?$AA@
CONST	SEGMENT
??_C@_03KMOFPJOC@chr?$AA@ DB 'chr', 00H			; `string'
CONST	ENDS
;	COMDAT ??_C@_05LEMLBCGE@co_FR?$AA@
CONST	SEGMENT
??_C@_05LEMLBCGE@co_FR?$AA@ DB 'co_FR', 00H		; `string'
CONST	ENDS
;	COMDAT ??_C@_02KIEKCEPM@co?$AA@
CONST	SEGMENT
??_C@_02KIEKCEPM@co?$AA@ DB 'co', 00H			; `string'
CONST	ENDS
;	COMDAT ??_C@_0P@IFMOFODE@ca_ES_VALENCIA?$AA@
CONST	SEGMENT
??_C@_0P@IFMOFODE@ca_ES_VALENCIA?$AA@ DB 'ca_ES_VALENCIA', 00H ; `string'
CONST	ENDS
;	COMDAT ??_C@_05BAKGCDBN@ca_ES?$AA@
CONST	SEGMENT
??_C@_05BAKGCDBN@ca_ES?$AA@ DB 'ca_ES', 00H		; `string'
CONST	ENDS
;	COMDAT ??_C@_02DGMJAJHC@ca?$AA@
CONST	SEGMENT
??_C@_02DGMJAJHC@ca?$AA@ DB 'ca', 00H			; `string'
CONST	ENDS
;	COMDAT ??_C@_05OHOHJCPC@br_FR?$AA@
CONST	SEGMENT
??_C@_05OHOHJCPC@br_FR?$AA@ DB 'br_FR', 00H		; `string'
CONST	ENDS
;	COMDAT ??_C@_02FGOECCNH@br?$AA@
CONST	SEGMENT
??_C@_02FGOECCNH@br?$AA@ DB 'br', 00H			; `string'
CONST	ENDS
;	COMDAT ??_C@_05JPCLFOHH@bo_CN?$AA@
CONST	SEGMENT
??_C@_05JPCLFOHH@bo_CN?$AA@ DB 'bo_CN', 00H		; `string'
CONST	ENDS
;	COMDAT ??_C@_05COMEMOJL@bo_BT?$AA@
CONST	SEGMENT
??_C@_05COMEMOJL@bo_BT?$AA@ DB 'bo_BT', 00H		; `string'
CONST	ENDS
;	COMDAT ??_C@_02KJIIEOML@bo?$AA@
CONST	SEGMENT
??_C@_02KJIIEOML@bo?$AA@ DB 'bo', 00H			; `string'
CONST	ENDS
;	COMDAT ??_C@_05KPNMPCBB@bn_IN?$AA@
CONST	SEGMENT
??_C@_05KPNMPCBB@bn_IN?$AA@ DB 'bn_IN', 00H		; `string'
CONST	ENDS
;	COMDAT ??_C@_05FJGGPFHK@bn_BD?$AA@
CONST	SEGMENT
??_C@_05FJGGPFHK@bn_BD?$AA@ DB 'bn_BD', 00H		; `string'
CONST	ENDS
;	COMDAT ??_C@_02LAJDHPIK@bn?$AA@
CONST	SEGMENT
??_C@_02LAJDHPIK@bn?$AA@ DB 'bn', 00H			; `string'
CONST	ENDS
;	COMDAT ??_C@_06CBBBIMAP@bin_NG?$AA@
CONST	SEGMENT
??_C@_06CBBBIMAP@bin_NG?$AA@ DB 'bin_NG', 00H		; `string'
CONST	ENDS
;	COMDAT ??_C@_03PDOMKJON@bin?$AA@
CONST	SEGMENT
??_C@_03PDOMKJON@bin?$AA@ DB 'bin', 00H			; `string'
CONST	ENDS
;	COMDAT ??_C@_05HPFLMEMI@bg_BG?$AA@
CONST	SEGMENT
??_C@_05HPFLMEMI@bg_BG?$AA@ DB 'bg_BG', 00H		; `string'
CONST	ENDS
;	COMDAT ??_C@_02GBFBMEMD@bg?$AA@
CONST	SEGMENT
??_C@_02GBFBMEMD@bg?$AA@ DB 'bg', 00H			; `string'
CONST	ENDS
;	COMDAT ??_C@_05NBNKKIHH@be_BY?$AA@
CONST	SEGMENT
??_C@_05NBNKKIHH@be_BY?$AA@ DB 'be_BY', 00H		; `string'
CONST	ENDS
;	COMDAT ??_C@_02FDGHKGEB@be?$AA@
CONST	SEGMENT
??_C@_02FDGHKGEB@be?$AA@ DB 'be', 00H			; `string'
CONST	ENDS
;	COMDAT ??_C@_05JEMJOCML@ba_RU?$AA@
CONST	SEGMENT
??_C@_05JEMJOCML@ba_RU?$AA@ DB 'ba_RU', 00H		; `string'
CONST	ENDS
;	COMDAT ??_C@_02DHALGDEF@ba?$AA@
CONST	SEGMENT
??_C@_02DHALGDEF@ba?$AA@ DB 'ba', 00H			; `string'
CONST	ENDS
;	COMDAT ??_C@_05JMJFDHBA@az_AZ?$AA@
CONST	SEGMENT
??_C@_05JMJFDHBA@az_AZ?$AA@ DB 'az_AZ', 00H		; `string'
CONST	ENDS
;	COMDAT ??_C@_07IFEDBGHP@az_Latn?$AA@
CONST	SEGMENT
??_C@_07IFEDBGHP@az_Latn?$AA@ DB 'az_Latn', 00H		; `string'
CONST	ENDS
;	COMDAT ??_C@_0L@OICMHMI@az_Latn_AZ?$AA@
CONST	SEGMENT
??_C@_0L@OICMHMI@az_Latn_AZ?$AA@ DB 'az_Latn_AZ', 00H	; `string'
CONST	ENDS
;	COMDAT ??_C@_07KEAFOAOO@az_Cyrl?$AA@
CONST	SEGMENT
??_C@_07KEAFOAOO@az_Cyrl?$AA@ DB 'az_Cyrl', 00H		; `string'
CONST	ENDS
;	COMDAT ??_C@_0L@CPAKLHLA@az_Cyrl_AZ?$AA@
CONST	SEGMENT
??_C@_0L@CPAKLHLA@az_Cyrl_AZ?$AA@ DB 'az_Cyrl_AZ', 00H	; `string'
CONST	ENDS
;	COMDAT ??_C@_02JMHLBGIG@az?$AA@
CONST	SEGMENT
??_C@_02JMHLBGIG@az?$AA@ DB 'az', 00H			; `string'
CONST	ENDS
;	COMDAT ??_C@_06JCMECOFC@arn_CL?$AA@
CONST	SEGMENT
??_C@_06JCMECOFC@arn_CL?$AA@ DB 'arn_CL', 00H		; `string'
CONST	ENDS
;	COMDAT ??_C@_03PBCKEKJC@arn?$AA@
CONST	SEGMENT
??_C@_03PBCKEKJC@arn?$AA@ DB 'arn', 00H			; `string'
CONST	ENDS
;	COMDAT ??_C@_05NHNPPJNA@am_ET?$AA@
CONST	SEGMENT
??_C@_05NHNPPJNA@am_ET?$AA@ DB 'am_ET', 00H		; `string'
CONST	ENDS
;	COMDAT ??_C@_02JJPIJCBA@am?$AA@
CONST	SEGMENT
??_C@_02JJPIJCBA@am?$AA@ DB 'am', 00H			; `string'
CONST	ENDS
;	COMDAT ??_C@_05LBDINDIM@as_IN?$AA@
CONST	SEGMENT
??_C@_05LBDINDIM@as_IN?$AA@ DB 'as_IN', 00H		; `string'
CONST	ENDS
;	COMDAT ??_C@_02ENLJKNMP@as?$AA@
CONST	SEGMENT
??_C@_02ENLJKNMP@as?$AA@ DB 'as', 00H			; `string'
CONST	ENDS
;	COMDAT ??_C@_05HDIKIAIH@ar_YE?$AA@
CONST	SEGMENT
??_C@_05HDIKIAIH@ar_YE?$AA@ DB 'ar_YE', 00H		; `string'
CONST	ENDS
;	COMDAT ??_C@_05JIKGMKBP@ar_TN?$AA@
CONST	SEGMENT
??_C@_05JIKGMKBP@ar_TN?$AA@ DB 'ar_TN', 00H		; `string'
CONST	ENDS
;	COMDAT ??_C@_05JIGKFIAM@ar_SY?$AA@
CONST	SEGMENT
??_C@_05JIGKFIAM@ar_SY?$AA@ DB 'ar_SY', 00H		; `string'
CONST	ENDS
;	COMDAT ??_C@_05BKHBMAFF@ar_SA?$AA@
CONST	SEGMENT
??_C@_05BKHBMAFF@ar_SA?$AA@ DB 'ar_SA', 00H		; `string'
CONST	ENDS
;	COMDAT ??_C@_05BJPFBEDL@ar_QA?$AA@
CONST	SEGMENT
??_C@_05BJPFBEDL@ar_QA?$AA@ DB 'ar_QA', 00H		; `string'
CONST	ENDS
;	COMDAT ??_C@_05KDPINFEN@ar_OM?$AA@
CONST	SEGMENT
??_C@_05KDPINFEN@ar_OM?$AA@ DB 'ar_OM', 00H		; `string'
CONST	ENDS
;	COMDAT ??_C@_05JCEKGDKB@ar_MO?$AA@
CONST	SEGMENT
??_C@_05JCEKGDKB@ar_MO?$AA@ DB 'ar_MO', 00H		; `string'
CONST	ENDS
;	COMDAT ??_C@_05MMJEOCP@ar_MA?$AA@
CONST	SEGMENT
??_C@_05MMJEOCP@ar_MA?$AA@ DB 'ar_MA', 00H		; `string'
CONST	ENDS
;	COMDAT ??_C@_05IPBALMEB@ar_LY?$AA@
CONST	SEGMENT
??_C@_05IPBALMEB@ar_LY?$AA@ DB 'ar_LY', 00H		; `string'
CONST	ENDS
;	COMDAT ??_C@_05CGCGHHNL@ar_LB?$AA@
CONST	SEGMENT
??_C@_05CGCGHHNL@ar_LB?$AA@ DB 'ar_LB', 00H		; `string'
CONST	ENDS
;	COMDAT ??_C@_05BENMIHEK@ar_KW?$AA@
CONST	SEGMENT
??_C@_05BENMIHEK@ar_KW?$AA@ DB 'ar_KW', 00H		; `string'
CONST	ENDS
;	COMDAT ??_C@_05JHAFHFCE@ar_JO?$AA@
CONST	SEGMENT
??_C@_05JHAFHFCE@ar_JO?$AA@ DB 'ar_JO', 00H		; `string'
CONST	ENDS
;	COMDAT ??_C@_05EBACPEKC@ar_IQ?$AA@
CONST	SEGMENT
??_C@_05EBACPEKC@ar_IQ?$AA@ DB 'ar_IQ', 00H		; `string'
CONST	ENDS
;	COMDAT ??_C@_05FEIALIBB@ar_EG?$AA@
CONST	SEGMENT
??_C@_05FEIALIBB@ar_EG?$AA@ DB 'ar_EG', 00H		; `string'
CONST	ENDS
;	COMDAT ??_C@_05KKCOLODK@ar_DZ?$AA@
CONST	SEGMENT
??_C@_05KKCOLODK@ar_DZ?$AA@ DB 'ar_DZ', 00H		; `string'
CONST	ENDS
;	COMDAT ??_C@_05NGFHLCFL@ar_BH?$AA@
CONST	SEGMENT
??_C@_05NGFHLCFL@ar_BH?$AA@ DB 'ar_BH', 00H		; `string'
CONST	ENDS
;	COMDAT ??_C@_05GBLPHCEP@ar_AE?$AA@
CONST	SEGMENT
??_C@_05GBLPHCEP@ar_AE?$AA@ DB 'ar_AE', 00H		; `string'
CONST	ENDS
;	COMDAT ??_C@_02FEKCJMIO@ar?$AA@
CONST	SEGMENT
??_C@_02FEKCJMIO@ar?$AA@ DB 'ar', 00H			; `string'
CONST	ENDS
CONST	SEGMENT
_locmap_af DD	036H
	DD	FLAT:??_C@_02HKAMELNL@af?$AA@
	DD	0436H
	DD	FLAT:??_C@_05IAMAMKJI@af_ZA?$AA@
_locmap_ar DD	01H
	DD	FLAT:??_C@_02FEKCJMIO@ar?$AA@
	DD	03801H
	DD	FLAT:??_C@_05GBLPHCEP@ar_AE?$AA@
	DD	03c01H
	DD	FLAT:??_C@_05NGFHLCFL@ar_BH?$AA@
	DD	01401H
	DD	FLAT:??_C@_05KKCOLODK@ar_DZ?$AA@
	DD	0c01H
	DD	FLAT:??_C@_05FEIALIBB@ar_EG?$AA@
	DD	0801H
	DD	FLAT:??_C@_05EBACPEKC@ar_IQ?$AA@
	DD	02c01H
	DD	FLAT:??_C@_05JHAFHFCE@ar_JO?$AA@
	DD	03401H
	DD	FLAT:??_C@_05BENMIHEK@ar_KW?$AA@
	DD	03001H
	DD	FLAT:??_C@_05CGCGHHNL@ar_LB?$AA@
	DD	01001H
	DD	FLAT:??_C@_05IPBALMEB@ar_LY?$AA@
	DD	01801H
	DD	FLAT:??_C@_05MMJEOCP@ar_MA?$AA@
	DD	01801H
	DD	FLAT:??_C@_05JCEKGDKB@ar_MO?$AA@
	DD	02001H
	DD	FLAT:??_C@_05KDPINFEN@ar_OM?$AA@
	DD	04001H
	DD	FLAT:??_C@_05BJPFBEDL@ar_QA?$AA@
	DD	0401H
	DD	FLAT:??_C@_05BKHBMAFF@ar_SA?$AA@
	DD	02801H
	DD	FLAT:??_C@_05JIGKFIAM@ar_SY?$AA@
	DD	01c01H
	DD	FLAT:??_C@_05JIKGMKBP@ar_TN?$AA@
	DD	02401H
	DD	FLAT:??_C@_05HDIKIAIH@ar_YE?$AA@
_locmap_as DD	04dH
	DD	FLAT:??_C@_02ENLJKNMP@as?$AA@
	DD	044dH
	DD	FLAT:??_C@_05LBDINDIM@as_IN?$AA@
_locmap_am DD	05eH
	DD	FLAT:??_C@_02JJPIJCBA@am?$AA@
	DD	045eH
	DD	FLAT:??_C@_05NHNPPJNA@am_ET?$AA@
_locmap_arn DD	07aH
	DD	FLAT:??_C@_03PBCKEKJC@arn?$AA@
	DD	047aH
	DD	FLAT:??_C@_06JCMECOFC@arn_CL?$AA@
_locmap_az DD	02cH
	DD	FLAT:??_C@_02JMHLBGIG@az?$AA@
	DD	082cH
	DD	FLAT:??_C@_0L@CPAKLHLA@az_Cyrl_AZ?$AA@
	DD	0742cH
	DD	FLAT:??_C@_07KEAFOAOO@az_Cyrl?$AA@
	DD	042cH
	DD	FLAT:??_C@_0L@OICMHMI@az_Latn_AZ?$AA@
	DD	0782cH
	DD	FLAT:??_C@_07IFEDBGHP@az_Latn?$AA@
	DD	042cH
	DD	FLAT:??_C@_05JMJFDHBA@az_AZ?$AA@
_locmap_ba DD	06dH
	DD	FLAT:??_C@_02DHALGDEF@ba?$AA@
	DD	046dH
	DD	FLAT:??_C@_05JEMJOCML@ba_RU?$AA@
_locmap_be DD	023H
	DD	FLAT:??_C@_02FDGHKGEB@be?$AA@
	DD	0423H
	DD	FLAT:??_C@_05NBNKKIHH@be_BY?$AA@
_locmap_bg DD	02H
	DD	FLAT:??_C@_02GBFBMEMD@bg?$AA@
	DD	0402H
	DD	FLAT:??_C@_05HPFLMEMI@bg_BG?$AA@
_locmap_bin DD	066H
	DD	FLAT:??_C@_03PDOMKJON@bin?$AA@
	DD	0466H
	DD	FLAT:??_C@_06CBBBIMAP@bin_NG?$AA@
_locmap_bn DD	045H
	DD	FLAT:??_C@_02LAJDHPIK@bn?$AA@
	DD	0845H
	DD	FLAT:??_C@_05FJGGPFHK@bn_BD?$AA@
	DD	0445H
	DD	FLAT:??_C@_05KPNMPCBB@bn_IN?$AA@
_locmap_bo DD	051H
	DD	FLAT:??_C@_02KJIIEOML@bo?$AA@
	DD	0851H
	DD	FLAT:??_C@_05COMEMOJL@bo_BT?$AA@
	DD	0451H
	DD	FLAT:??_C@_05JPCLFOHH@bo_CN?$AA@
_locmap_br DD	07eH
	DD	FLAT:??_C@_02FGOECCNH@br?$AA@
	DD	047eH
	DD	FLAT:??_C@_05OHOHJCPC@br_FR?$AA@
_locmap_ca DD	03H
	DD	FLAT:??_C@_02DGMJAJHC@ca?$AA@
	DD	0403H
	DD	FLAT:??_C@_05BAKGCDBN@ca_ES?$AA@
	DD	0803H
	DD	FLAT:??_C@_0P@IFMOFODE@ca_ES_VALENCIA?$AA@
_locmap_co DD	083H
	DD	FLAT:??_C@_02KIEKCEPM@co?$AA@
	DD	0483H
	DD	FLAT:??_C@_05LEMLBCGE@co_FR?$AA@
_locmap_chr DD	05cH
	DD	FLAT:??_C@_03KMOFPJOC@chr?$AA@
	DD	045cH
	DD	FLAT:??_C@_06NHPHLFFJ@chr_US?$AA@
_locmap_ckb DD	092H
	DD	FLAT:??_C@_03OEGBFFOK@ckb?$AA@
	DD	092H
	DD	FLAT:??_C@_02BGHEIPJP@ku?$AA@
	DD	07c92H
	DD	FLAT:??_C@_08KKBDLMOP@ckb_Arab?$AA@
	DD	07c92H
	DD	FLAT:??_C@_07OOKPGIAJ@ku_Arab?$AA@
	DD	0492H
	DD	FLAT:??_C@_0M@CBPFPCPD@ckb_Arab_IQ?$AA@
	DD	0492H
	DD	FLAT:??_C@_0L@KLBJKBBJ@ku_Arab_IQ?$AA@
_locmap_cs DD	05H
	DD	FLAT:??_C@_02EODNHJKB@cs?$AA@
	DD	0405H
	DD	FLAT:??_C@_05NPMJCAAE@cs_CZ?$AA@
_locmap_cy DD	052H
	DD	FLAT:??_C@_02LENCJBCL@cy?$AA@
	DD	0452H
	DD	FLAT:??_C@_05BAGLAICA@cy_GB?$AA@
_locmap_da DD	06H
	DD	FLAT:??_C@_02DDIGBPPH@da?$AA@
	DD	0406H
	DD	FLAT:??_C@_05IOHKOBML@da_DK?$AA@
_locmap_de DD	07H
	DD	FLAT:??_C@_02FHOKNKPD@de?$AA@
	DD	0c07H
	DD	FLAT:??_C@_05LAGLILHO@de_AT?$AA@
	DD	0807H
	DD	FLAT:??_C@_05FFJIACEN@de_CH?$AA@
	DD	0407H
	DD	FLAT:??_C@_05OFHJGKIF@de_DE?$AA@
	DD	01407H
	DD	FLAT:??_C@_05EHNPHEDB@de_LI?$AA@
	DD	01007H
	DD	FLAT:??_C@_05KBKICJGM@de_LU?$AA@
	DD	010407H
	DD	FLAT:??_C@_0BK@PHPOLKNI@de_DE?$EAcollation?$DNphonebook?$AA@
	DD	010407H
	DD	FLAT:??_C@_0BH@COMEHOCI@de?$EAcollation?$DNphonebook?$AA@
_locmap_dv DD	065H
	DD	FLAT:??_C@_02DGAFJLGB@dv?$AA@
	DD	0465H
	DD	FLAT:??_C@_05KMAHPNMK@dv_MV?$AA@
_locmap_el DD	08H
	DD	FLAT:??_C@_02IHOKALIN@el?$AA@
	DD	0408H
	DD	FLAT:??_C@_05CEPAOBJO@el_GR?$AA@
_locmap_en DD	09H
	DD	FLAT:??_C@_02LFNMGJAP@en?$AA@
	DD	0c09H
	DD	FLAT:??_C@_05BFPMFIIL@en_AU?$AA@
	DD	02809H
	DD	FLAT:??_C@_05JACCPKBN@en_BZ?$AA@
	DD	01009H
	DD	FLAT:??_C@_05DINGFLLA@en_CA?$AA@
	DD	0809H
	DD	FLAT:??_C@_05BEPCKAKP@en_GB?$AA@
	DD	03c09H
	DD	FLAT:??_C@_05MOGMFMNL@en_HK?$AA@
	DD	03809H
	DD	FLAT:??_C@_05EIDGCKCD@en_ID?$AA@
	DD	01809H
	DD	FLAT:??_C@_05FBCNBLGC@en_IE?$AA@
	DD	04009H
	DD	FLAT:??_C@_05LCNJMCKJ@en_IN?$AA@
	DD	02009H
	DD	FLAT:??_C@_05JLLCCPDD@en_JM?$AA@
	DD	04409H
	DD	FLAT:??_C@_05LAFDOOOD@en_MY?$AA@
	DD	01409H
	DD	FLAT:??_C@_05JJDIADHJ@en_NZ?$AA@
	DD	03409H
	DD	FLAT:??_C@_05PHHEPNNA@en_PH?$AA@
	DD	04809H
	DD	FLAT:??_C@_05HCKKFPEG@en_SG?$AA@
	DD	02c09H
	DD	FLAT:??_C@_05BGAKAIFB@en_TT?$AA@
	DD	0409H
	DD	FLAT:??_C@_05FIIJPEKB@en_US?$AA@
	DD	07fH
	DD	FLAT:??_C@_0M@EKCLCNAB@en_US_POSIX?$AA@
	DD	02409H
	DD	FLAT:??_C@_05OKOCLACD@en_VI?$AA@
	DD	01c09H
	DD	FLAT:??_C@_05CLCBMDEP@en_ZA?$AA@
	DD	03009H
	DD	FLAT:??_C@_05DHLJHGJI@en_ZW?$AA@
	DD	02409H
	DD	FLAT:??_C@_06OKOADBBG@en_029?$AA@
	DD	0409H
	DD	FLAT:??_C@_05EDKGPPAN@en_AS?$AA@
	DD	0409H
	DD	FLAT:??_C@_05BBHBCEDJ@en_GU?$AA@
	DD	0409H
	DD	FLAT:??_C@_05ODIKMNPD@en_MH?$AA@
	DD	0409H
	DD	FLAT:??_C@_05GBJBFFKK@en_MP?$AA@
	DD	0409H
	DD	FLAT:??_C@_05IMMIMLHO@en_UM?$AA@
_locmap_en_US_POSIX DD 07fH
	DD	FLAT:??_C@_0M@EKCLCNAB@en_US_POSIX?$AA@
_locmap_es DD	0aH
	DD	FLAT:??_C@_02EKLAAFBD@es?$AA@
	DD	02c0aH
	DD	FLAT:??_C@_05MCMNJNHP@es_AR?$AA@
	DD	0400aH
	DD	FLAT:??_C@_05DPOHEPDK@es_BO?$AA@
	DD	0340aH
	DD	FLAT:??_C@_05BFAIHGMO@es_CL?$AA@
	DD	0240aH
	DD	FLAT:??_C@_05DOCFCFAN@es_CO?$AA@
	DD	0140aH
	DD	FLAT:??_C@_05MBEJEJBB@es_CR?$AA@
	DD	01c0aH
	DD	FLAT:??_C@_05DLGKDDII@es_DO?$AA@
	DD	0300aH
	DD	FLAT:??_C@_05JGBNBGLD@es_EC?$AA@
	DD	0c0aH
	DD	FLAT:??_C@_05NMNPAEOC@es_ES?$AA@
	DD	0100aH
	DD	FLAT:??_C@_05JABKEGEL@es_GT?$AA@
	DD	0480aH
	DD	FLAT:??_C@_05CLGLPLKN@es_HN?$AA@
	DD	080aH
	DD	FLAT:??_C@_05DBDIIMJB@es_MX?$AA@
	DD	04c0aH
	DD	FLAT:??_C@_05GAKHBBNI@es_NI?$AA@
	DD	0180aH
	DD	FLAT:??_C@_05LOMGBFKK@es_PA?$AA@
	DD	0280aH
	DD	FLAT:??_C@_05NKKKNAKO@es_PE?$AA@
	DD	0500aH
	DD	FLAT:??_C@_05NPCJFEDI@es_PR?$AA@
	DD	03c0aH
	DD	FLAT:??_C@_05DMNNINPD@es_PY?$AA@
	DD	0440aH
	DD	FLAT:??_C@_05LJADCPGF@es_SV?$AA@
	DD	0540aH
	DD	FLAT:??_C@_05MAPJKHJC@es_US?$AA@
	DD	0380aH
	DD	FLAT:??_C@_05DKBGEPBI@es_UY?$AA@
	DD	0200aH
	DD	FLAT:??_C@_05NOCHKMBM@es_VE?$AA@
	DD	0580aH
	DD	FLAT:??_C@_06NIIMAJFN@es_419?$AA@
	DD	040aH
	DD	FLAT:??_C@_0BM@BNNDGDKC@es_ES?$EAcollation?$DNtraditional?$AA@
	DD	040aH
	DD	FLAT:??_C@_0BJ@HGPOFGAD@es?$EAcollation?$DNtraditional?$AA@
_locmap_et DD	025H
	DD	FLAT:??_C@_02FPBJDNE@et?$AA@
	DD	0425H
	DD	FLAT:??_C@_05HCGHGNCF@et_EE?$AA@
_locmap_eu DD	02dH
	DD	FLAT:??_C@_02BMOKKCJF@eu?$AA@
	DD	042dH
	DD	FLAT:??_C@_05FDJPPBEC@eu_ES?$AA@
_locmap_fa DD	029H
	DD	FLAT:??_C@_02DAACMLJJ@fa?$AA@
	DD	0429H
	DD	FLAT:??_C@_05FAGKHKIL@fa_IR?$AA@
	DD	048cH
	DD	FLAT:??_C@_05HANHPMGG@fa_AF?$AA@
_locmap_fa_AF DD 08cH
	DD	FLAT:??_C@_05HANHPMGG@fa_AF?$AA@
	DD	048cH
	DD	FLAT:??_C@_05HANHPMGG@fa_AF?$AA@
_locmap_ff DD	067H
	DD	FLAT:??_C@_02HPEDFNFO@ff?$AA@
	DD	07c67H
	DD	FLAT:??_C@_07CPPIOJNM@ff_Latn?$AA@
	DD	0867H
	DD	FLAT:??_C@_0L@CLCHBDGG@ff_Latn_SN?$AA@
_locmap_fi DD	0bH
	DD	FLAT:??_C@_02PINLEBJB@fi?$AA@
	DD	040bH
	DD	FLAT:??_C@_05MCHALNON@fi_FI?$AA@
_locmap_fil DD	064H
	DD	FLAT:??_C@_03EOLIFMDI@fil?$AA@
	DD	0464H
	DD	FLAT:??_C@_06DOLOGJMJ@fil_PH?$AA@
_locmap_fo DD	038H
	DD	FLAT:??_C@_02KOIBOGBH@fo?$AA@
	DD	0438H
	DD	FLAT:??_C@_05BLGKOPML@fo_FO?$AA@
_locmap_fr DD	0cH
	DD	FLAT:??_C@_02FBONIKAL@fr?$AA@
	DD	080cH
	DD	FLAT:??_C@_05HOPMPMKO@fr_BE?$AA@
	DD	0c0cH
	DD	FLAT:??_C@_05BLFCFDJN@fr_CA?$AA@
	DD	0240cH
	DD	FLAT:??_C@_05GGCFKHNI@fr_CD?$AA@
	DD	0240cH
	DD	FLAT:??_C@_05ENAIPEBL@fr_CG?$AA@
	DD	0100cH
	DD	FLAT:??_C@_05MKJAOINE@fr_CH?$AA@
	DD	0300cH
	DD	FLAT:??_C@_05NDILNJJF@fr_CI?$AA@
	DD	02c0cH
	DD	FLAT:??_C@_05LHOHBMJB@fr_CM?$AA@
	DD	040cH
	DD	FLAT:??_C@_05HMHGNAOE@fr_FR?$AA@
	DD	03c0cH
	DD	FLAT:??_C@_05CALCFKGI@fr_HT?$AA@
	DD	0140cH
	DD	FLAT:??_C@_05DOKAMDPF@fr_LU?$AA@
	DD	0380cH
	DD	FLAT:??_C@_05BBMMHOJH@fr_MA?$AA@
	DD	0180cH
	DD	FLAT:??_C@_05CDPKBMBF@fr_MC?$AA@
	DD	0340cH
	DD	FLAT:??_C@_05KEGCAANK@fr_ML?$AA@
	DD	0200cH
	DD	FLAT:??_C@_05GCNKFPNO@fr_RE?$AA@
	DD	0280cH
	DD	FLAT:??_C@_05IAOMOMCC@fr_SN?$AA@
	DD	0e40cH
	DD	FLAT:??_C@_06BOPBIDO@fr_015?$AA@
	DD	01c0cH
	DD	FLAT:??_C@_06KPBMOJGL@fr_029?$AA@
_locmap_fuv DD	067H
	DD	FLAT:??_C@_03OLKJPMPH@fuv?$AA@
	DD	0467H
	DD	FLAT:??_C@_06PBNKLGLP@fuv_NG?$AA@
_locmap_fy DD	062H
	DD	FLAT:??_C@_02LCBJFDMA@fy?$AA@
	DD	0462H
	DD	FLAT:??_C@_05NBPEIPJC@fy_NL?$AA@
_locmap_ga DD	03cH
	DD	FLAT:??_C@_02DBMAKBKO@ga?$AA@
	DD	083cH
	DD	FLAT:??_C@_05JOLFCNLI@ga_IE?$AA@
	DD	043cH
	DD	FLAT:??_C@_05BDIKBJAF@gd_GB?$AA@
_locmap_gd DD	091H
	DD	FLAT:??_C@_02EMLHFFOL@gd?$AA@
	DD	0491H
	DD	FLAT:??_C@_05BDIKBJAF@gd_GB?$AA@
_locmap_gl DD	056H
	DD	FLAT:??_C@_02IEGONPOD@gl?$AA@
	DD	0456H
	DD	FLAT:??_C@_05HDKHKFLK@gl_ES?$AA@
_locmap_gu DD	047H
	DD	FLAT:??_C@_02BPGOHGPL@gu?$AA@
	DD	0447H
	DD	FLAT:??_C@_05OICBMFDB@gu_IN?$AA@
_locmap_gn DD	074H
	DD	FLAT:??_C@_02LGFILNGB@gn?$AA@
	DD	0474H
	DD	FLAT:??_C@_05OJGFHPML@gn_PY?$AA@
_locmap_gsw DD	084H
	DD	FLAT:??_C@_03EOIDNGGB@gsw?$AA@
	DD	0484H
	DD	FLAT:??_C@_06IFDCMAAK@gsw_FR?$AA@
_locmap_ha DD	068H
	DD	FLAT:??_C@_02DKJMOGJD@ha?$AA@
	DD	07c68H
	DD	FLAT:??_C@_07PPNFMFGA@ha_Latn?$AA@
	DD	0468H
	DD	FLAT:??_C@_0L@FOLBKIHD@ha_Latn_NG?$AA@
_locmap_haw DD	075H
	DD	FLAT:??_C@_03JECLBCJ@haw?$AA@
	DD	0475H
	DD	FLAT:??_C@_06DKBPDPBL@haw_US?$AA@
_locmap_he DD	0dH
	DD	FLAT:??_C@_02FOPACDJH@he?$AA@
	DD	040dH
	DD	FLAT:??_C@_05ELKBICOE@he_IL?$AA@
_locmap_hi DD	039H
	DD	FLAT:??_C@_02PCEFGMJL@hi?$AA@
	DD	0439H
	DD	FLAT:??_C@_05LMGHANGH@hi_IN?$AA@
_locmap_hr DD	01aH
	DD	FLAT:??_C@_02FLHDKHAB@hr?$AA@
	DD	0141aH
	DD	FLAT:??_C@_0L@MAAFPPMA@bs_Latn_BA?$AA@
	DD	0681aH
	DD	FLAT:??_C@_07JOFEFEEP@bs_Latn?$AA@
	DD	0141aH
	DD	FLAT:??_C@_05LMGBFCAM@bs_BA?$AA@
	DD	0781aH
	DD	FLAT:??_C@_02EPPPBDJG@bs?$AA@
	DD	0201aH
	DD	FLAT:??_C@_0L@OBINIPLI@bs_Cyrl_BA?$AA@
	DD	0641aH
	DD	FLAT:??_C@_07LPBCKCNO@bs_Cyrl?$AA@
	DD	0101aH
	DD	FLAT:??_C@_05CAJKFINK@hr_BA?$AA@
	DD	041aH
	DD	FLAT:??_C@_05EMOCJMJO@hr_HR?$AA@
	DD	02c1aH
	DD	FLAT:??_C@_0L@CPIPANMM@sr_Latn_ME?$AA@
	DD	0241aH
	DD	FLAT:??_C@_0L@CEGNFMFG@sr_Latn_RS?$AA@
	DD	0181aH
	DD	FLAT:??_C@_0L@EALPIPPF@sr_Latn_BA?$AA@
	DD	081aH
	DD	FLAT:??_C@_0L@DJIJJFBB@sr_Latn_CS?$AA@
	DD	0701aH
	DD	FLAT:??_C@_07IIDCGOEO@sr_Latn?$AA@
	DD	01c1aH
	DD	FLAT:??_C@_0L@GBDHPPIN@sr_Cyrl_BA?$AA@
	DD	0c1aH
	DD	FLAT:??_C@_0L@BIABOFGJ@sr_Cyrl_CS?$AA@
	DD	0301aH
	DD	FLAT:??_C@_0L@OAHHNLE@sr_Cyrl_ME?$AA@
	DD	0281aH
	DD	FLAT:??_C@_0L@FOFCMCO@sr_Cyrl_RS?$AA@
	DD	06c1aH
	DD	FLAT:??_C@_07KJHEJINP@sr_Cyrl?$AA@
	DD	07c1aH
	DD	FLAT:??_C@_02ELAAOLJA@sr?$AA@
_locmap_hsb DD	02eH
	DD	FLAT:??_C@_03CBFFCACD@hsb?$AA@
	DD	042eH
	DD	FLAT:??_C@_06NNHNPIOJ@hsb_DE?$AA@
	DD	082eH
	DD	FLAT:??_C@_06BKNNJCJN@dsb_DE?$AA@
	DD	07c2eH
	DD	FLAT:??_C@_03GLIDJPJL@dsb?$AA@
_locmap_hu DD	0eH
	DD	FLAT:??_C@_02BEDCDBMG@hu?$AA@
	DD	040eH
	DD	FLAT:??_C@_05LBIDNGEJ@hu_HU?$AA@
_locmap_hy DD	02bH
	DD	FLAT:??_C@_02LIIHHOMK@hy?$AA@
	DD	042bH
	DD	FLAT:??_C@_05PJLJJIJO@hy_AM?$AA@
_locmap_ibb DD	069H
	DD	FLAT:??_C@_03IEANIOAB@ibb?$AA@
	DD	0469H
	DD	FLAT:??_C@_06IMCBMFDH@ibb_NG?$AA@
_locmap_id DD	021H
	DD	FLAT:??_C@_02EGCJHIOB@id?$AA@
	DD	0421H
	DD	FLAT:??_C@_05HFEEPCPJ@id_ID?$AA@
_locmap_ig DD	070H
	DD	FLAT:??_C@_02GNAECLCC@ig?$AA@
	DD	0470H
	DD	FLAT:??_C@_05BMIGMNGP@ig_NG?$AA@
_locmap_ii DD	078H
	DD	FLAT:??_C@_02PDIHAGKM@ii?$AA@
	DD	0478H
	DD	FLAT:??_C@_05HKKMFLBE@ii_CN?$AA@
_locmap_is DD	0fH
	DD	FLAT:??_C@_02EDKKPMHH@is?$AA@
	DD	040fH
	DD	FLAT:??_C@_05KCAHDNPN@is_IS?$AA@
_locmap_it DD	010H
	DD	FLAT:??_C@_02MOLGKLA@it?$AA@
	DD	0810H
	DD	FLAT:??_C@_05LEIGKPKB@it_CH?$AA@
	DD	0410H
	DD	FLAT:??_C@_05FPGGHHCK@it_IT?$AA@
_locmap_iu DD	05dH
	DD	FLAT:??_C@_02BFPAFLPB@iu?$AA@
	DD	045dH
	DD	FLAT:??_C@_0L@MOFACJG@iu_Cans_CA?$AA@
	DD	0785dH
	DD	FLAT:??_C@_07MMGDKAEI@iu_Cans?$AA@
	DD	085dH
	DD	FLAT:??_C@_0L@OPPIGCPE@iu_Latn_CA?$AA@
	DD	07c5dH
	DD	FLAT:??_C@_07KAOOHNCD@iu_Latn?$AA@
_locmap_iw DD	0dH
	DD	FLAT:??_C@_02CHMGDJHD@iw?$AA@
	DD	040dH
	DD	FLAT:??_C@_05JKNNJFKD@iw_IL?$AA@
_locmap_ja DD	011H
	DD	FLAT:??_C@_02DJBIDCPN@ja?$AA@
	DD	0411H
	DD	FLAT:??_C@_05BHNIGGCL@ja_JP?$AA@
_locmap_ka DD	037H
	DD	FLAT:??_C@_02DINKFIMK@ka?$AA@
	DD	0437H
	DD	FLAT:??_C@_05ODOJMAMJ@ka_GE?$AA@
_locmap_kk DD	03fH
	DD	FLAT:??_C@_02MCDFLAEA@kk?$AA@
	DD	043fH
	DD	FLAT:??_C@_05GNBJCPJC@kk_KZ?$AA@
_locmap_kl DD	06fH
	DD	FLAT:??_C@_02INHECGIH@kl?$AA@
	DD	046fH
	DD	FLAT:??_C@_05MKLLLPDB@kl_GL?$AA@
_locmap_km DD	053H
	DD	FLAT:??_C@_02JEGPBHMG@km?$AA@
	DD	0453H
	DD	FLAT:??_C@_05JKKNKKOB@km_KH?$AA@
_locmap_kn DD	04bH
	DD	FLAT:??_C@_02LPECEEAF@kn?$AA@
	DD	044bH
	DD	FLAT:??_C@_05IINDKDNJ@kn_IN?$AA@
_locmap_ko DD	012H
	DD	FLAT:??_C@_02KGFJHFEE@ko?$AA@
	DD	0812H
	DD	FLAT:??_C@_05GCHGGBNI@ko_KP?$AA@
	DD	0412H
	DD	FLAT:??_C@_05FAEAADFK@ko_KR?$AA@
_locmap_kok DD	057H
	DD	FLAT:??_C@_03PHBOGOJA@kok?$AA@
	DD	0457H
	DD	FLAT:??_C@_06HOLNAIHN@kok_IN?$AA@
_locmap_kr DD	071H
	DD	FLAT:??_C@_02FJDFBJFI@kr?$AA@
	DD	0471H
	DD	FLAT:??_C@_05PJEOHEJG@kr_NG?$AA@
_locmap_ks DD	060H
	DD	FLAT:??_C@_02EACOCIBJ@ks?$AA@
	DD	0860H
	DD	FLAT:??_C@_05BAKDPAOK@ks_IN?$AA@
	DD	0460H
	DD	FLAT:??_C@_0L@GLFNNPMA@ks_Arab_IN?$AA@
	DD	0860H
	DD	FLAT:??_C@_0L@NILHDLBH@ks_Deva_IN?$AA@
_locmap_ky DD	040H
	DD	FLAT:??_C@_02LKMBMAJD@ky?$AA@
	DD	0440H
	DD	FLAT:??_C@_05IIFFIHGM@ky_KG?$AA@
_locmap_la DD	076H
	DD	FLAT:??_C@_02DNJFEOEP@la?$AA@
	DD	0476H
	DD	FLAT:??_C@_05KHKLPOGL@la_IT?$AA@
_locmap_lb DD	06eH
	DD	FLAT:??_C@_02BGLIBNIM@lb?$AA@
	DD	046eH
	DD	FLAT:??_C@_05PPNLHHBB@lb_LU?$AA@
_locmap_lo DD	054H
	DD	FLAT:??_C@_02KDBGGDMB@lo?$AA@
	DD	0454H
	DD	FLAT:??_C@_05CJOFGEPF@lo_LA?$AA@
_locmap_lt DD	027H
	DD	FLAT:??_C@_02KCAKIFL@lt?$AA@
	DD	0427H
	DD	FLAT:??_C@_05JGACEHC@lt_LT?$AA@
_locmap_lv DD	026H
	DD	FLAT:??_C@_02DIBGMKNJ@lv?$AA@
	DD	0426H
	DD	FLAT:??_C@_05EBJGBFJA@lv_LV?$AA@
_locmap_mi DD	081H
	DD	FLAT:??_C@_02PEIOKOHA@mi?$AA@
	DD	0481H
	DD	FLAT:??_C@_05MHELFNAE@mi_NZ?$AA@
_locmap_mk DD	02fH
	DD	FLAT:??_C@_02MGLIMMPC@mk?$AA@
	DD	042fH
	DD	FLAT:??_C@_05OMBEJDCN@mk_MK?$AA@
_locmap_ml DD	04cH
	DD	FLAT:??_C@_02IJPJFKDF@ml?$AA@
	DD	044cH
	DD	FLAT:??_C@_05CEEKBDKE@ml_IN?$AA@
_locmap_mn DD	050H
	DD	FLAT:??_C@_02LLMPDILH@mn?$AA@
	DD	0450H
	DD	FLAT:??_C@_05FJIDOIBI@mn_MN?$AA@
	DD	07c50H
	DD	FLAT:??_C@_07FMLBHIIB@mn_Mong?$AA@
	DD	0850H
	DD	FLAT:??_C@_0L@DEDPEPOJ@mn_Mong_CN?$AA@
	DD	0850H
	DD	FLAT:??_C@_05FDBNMFBC@mn_CN?$AA@
	DD	07850H
	DD	FLAT:??_C@_07GADLENHM@mn_Cyrl?$AA@
	DD	0c50H
	DD	FLAT:??_C@_0L@DOKBGCOD@mn_Mong_MN?$AA@
_locmap_mni DD	058H
	DD	FLAT:??_C@_03OBIBDJPJ@mni?$AA@
	DD	0458H
	DD	FLAT:??_C@_06KMPBLNIC@mni_IN?$AA@
_locmap_moh DD	07cH
	DD	FLAT:??_C@_03PJFIGCIP@moh?$AA@
	DD	047cH
	DD	FLAT:??_C@_06NAMCNOIO@moh_CA?$AA@
_locmap_mr DD	04eH
	DD	FLAT:??_C@_02FNLIGFOK@mr?$AA@
	DD	044eH
	DD	FLAT:??_C@_05PLJKDKEH@mr_IN?$AA@
_locmap_ms DD	03eH
	DD	FLAT:??_C@_02EEKDFEKL@ms?$AA@
	DD	083eH
	DD	FLAT:??_C@_05MKKPPMBG@ms_BN?$AA@
	DD	043eH
	DD	FLAT:??_C@_05MEHADPLN@ms_MY?$AA@
_locmap_mt DD	03aH
	DD	FLAT:??_C@_02LOCMCGM@mt?$AA@
	DD	043aH
	DD	FLAT:??_C@_05MDPOJNOA@mt_MT?$AA@
_locmap_my DD	055H
	DD	FLAT:??_C@_02LOEMLMCB@my?$AA@
	DD	0455H
	DD	FLAT:??_C@_05KAGOPAEJ@my_MM?$AA@
_locmap_ne DD	061H
	DD	FLAT:??_C@_02FKHNFPCF@ne?$AA@
	DD	0861H
	DD	FLAT:??_C@_05KPMOADHL@ne_IN?$AA@
	DD	0461H
	DD	FLAT:??_C@_05HOMACKCB@ne_NP?$AA@
_locmap_nl DD	013H
	DD	FLAT:??_C@_02ILLPOEGM@nl?$AA@
	DD	0813H
	DD	FLAT:??_C@_05ENHPFHCA@nl_BE?$AA@
	DD	0413H
	DD	FLAT:??_C@_05JFKHBFAN@nl_NL?$AA@
_locmap_no DD	014H
	DD	FLAT:??_C@_02KAJCLHKP@no?$AA@
	DD	07c14H
	DD	FLAT:??_C@_02BFDMMJOC@nb?$AA@
	DD	0414H
	DD	FLAT:??_C@_05BLKPIKP@nb_NO?$AA@
	DD	0414H
	DD	FLAT:??_C@_05PJCKDMBO@no_NO?$AA@
	DD	0814H
	DD	FLAT:??_C@_05MEEKBFKO@nn_NO?$AA@
	DD	07814H
	DD	FLAT:??_C@_02LJIJIGOO@nn?$AA@
	DD	0814H
	DD	FLAT:??_C@_08DMODGHIJ@no_NO_NY?$AA@
_locmap_nso DD	06cH
	DD	FLAT:??_C@_03LBJAABLC@nso?$AA@
	DD	046cH
	DD	FLAT:??_C@_06DEOJECBM@nso_ZA?$AA@
_locmap_oc DD	082H
	DD	FLAT:??_C@_02NOFJCJE@oc?$AA@
	DD	0482H
	DD	FLAT:??_C@_05GPJDPBO@oc_FR?$AA@
_locmap_om DD	072H
	DD	FLAT:??_C@_02JDGGLPBK@om?$AA@
	DD	0472H
	DD	FLAT:??_C@_05ONNFJIKA@om_ET?$AA@
	DD	0472H
	DD	FLAT:??_C@_06GHKALOPE@gaz_ET?$AA@
_locmap_or_IN DD 048H
	DD	FLAT:??_C@_02FODMLBIE@or?$AA@
	DD	0448H
	DD	FLAT:??_C@_05LGFCJLEM@or_IN?$AA@
_locmap_pa DD	046H
	DD	FLAT:??_C@_02CIKJBEFL@pa?$AA@
	DD	0446H
	DD	FLAT:??_C@_05GDJCMGFA@pa_IN?$AA@
	DD	0846H
	DD	FLAT:??_C@_05NBCKKOK@pa_PK?$AA@
	DD	0846H
	DD	FLAT:??_C@_0L@KLFBKBCA@pa_Arab_PK?$AA@
_locmap_pap DD	079H
	DD	FLAT:??_C@_03NDKOFIJO@pap?$AA@
	DD	0479H
	DD	FLAT:??_C@_06DIENFGBC@pap_AN?$AA@
_locmap_pl DD	015H
	DD	FLAT:??_C@_02JNAHGKBG@pl?$AA@
	DD	0415H
	DD	FLAT:??_C@_05LKMDPIJM@pl_PL?$AA@
_locmap_ps DD	063H
	DD	FLAT:??_C@_02FAFNGEII@ps?$AA@
	DD	0463H
	DD	FLAT:??_C@_05LPHINJAC@ps_AF?$AA@
_locmap_pt DD	016H
	DD	FLAT:??_C@_02BPBMPCEP@pt?$AA@
	DD	0416H
	DD	FLAT:??_C@_05CBLAGMBO@pt_BR?$AA@
	DD	0816H
	DD	FLAT:??_C@_05GIEILMIG@pt_PT?$AA@
_locmap_qu DD	06bH
	DD	FLAT:??_C@_02HMFKJDJ@qu?$AA@
	DD	046bH
	DD	FLAT:??_C@_05CIOAPKBH@qu_BO?$AA@
	DD	086bH
	DD	FLAT:??_C@_05IBBKKDJO@qu_EC?$AA@
	DD	0c6bH
	DD	FLAT:??_C@_05MNKNGFID@qu_PE?$AA@
	DD	046bH
	DD	FLAT:??_C@_06FHJAIKJC@quz_BO?$AA@
	DD	086bH
	DD	FLAT:??_C@_06POGKNDBL@quz_EC?$AA@
	DD	0c6bH
	DD	FLAT:??_C@_06LCNNBFAG@quz_PE?$AA@
_locmap_qut DD	086H
	DD	FLAT:??_C@_03BEFBPBFD@qut?$AA@
	DD	0486H
	DD	FLAT:??_C@_06EHFNDNIC@qut_GT?$AA@
_locmap_rm DD	017H
	DD	FLAT:??_C@_02IHJIIPDJ@rm?$AA@
	DD	0417H
	DD	FLAT:??_C@_05LAGHKIAK@rm_CH?$AA@
_locmap_ro DD	018H
	DD	FLAT:??_C@_02LFKOONLL@ro?$AA@
	DD	0418H
	DD	FLAT:??_C@_05JIACKEOK@ro_RO?$AA@
	DD	0818H
	DD	FLAT:??_C@_05GMIMJJGM@ro_MD?$AA@
_locmap_root DD	00H
	DD	FLAT:??_C@_04NBFCGMPH@root?$AA@
_locmap_ru DD	019H
	DD	FLAT:??_C@_02FIDBHGA@ru?$AA@
	DD	0419H
	DD	FLAT:??_C@_05CHPNBBC@ru_RU?$AA@
	DD	0819H
	DD	FLAT:??_C@_05EGNMBGEP@ru_MD?$AA@
_locmap_rw DD	087H
	DD	FLAT:??_C@_02DHLFHFOC@rw?$AA@
	DD	0487H
	DD	FLAT:??_C@_05EKIJOAPA@rw_RW?$AA@
_locmap_sa DD	04fH
	DD	FLAT:??_C@_02CKOPKKAC@sa?$AA@
	DD	044fH
	DD	FLAT:??_C@_05OFAGLEPO@sa_IN?$AA@
_locmap_sah DD	085H
	DD	FLAT:??_C@_03EDAAGPCJ@sah?$AA@
	DD	0485H
	DD	FLAT:??_C@_06OOGDEGHP@sah_RU?$AA@
_locmap_sd DD	059H
	DD	FLAT:??_C@_02FHJIFOEH@sd?$AA@
	DD	0459H
	DD	FLAT:??_C@_05CNOGDLIO@sd_IN?$AA@
	DD	0859H
	DD	FLAT:??_C@_05EDGGFHDE@sd_PK?$AA@
_locmap_se DD	03bH
	DD	FLAT:??_C@_02EOIDGPAG@se?$AA@
	DD	0c3bH
	DD	FLAT:??_C@_05FEJLMDME@se_FI?$AA@
	DD	043bH
	DD	FLAT:??_C@_05MNCDFPK@se_NO?$AA@
	DD	083bH
	DD	FLAT:??_C@_05OCMDONFD@se_SE?$AA@
	DD	0783bH
	DD	FLAT:??_C@_03JLNICNAE@sma?$AA@
	DD	0183bH
	DD	FLAT:??_C@_06DBKAEELK@sma_NO?$AA@
	DD	01c3bH
	DD	FLAT:??_C@_06NPLBJMBD@sma_SE?$AA@
	DD	07c3bH
	DD	FLAT:??_C@_03HICMPEMP@smj?$AA@
	DD	0703bH
	DD	FLAT:??_C@_03BMEADBML@smn?$AA@
	DD	0743bH
	DD	FLAT:??_C@_03ODCMFNNH@sms?$AA@
	DD	0103bH
	DD	FLAT:??_C@_06EGHAHFKL@smj_NO?$AA@
	DD	0143bH
	DD	FLAT:??_C@_06KIGBKNAC@smj_SE?$AA@
	DD	0243bH
	DD	FLAT:??_C@_06OLLJCFFF@smn_FI?$AA@
	DD	0203bH
	DD	FLAT:??_C@_06HDMJHGGG@sms_FI?$AA@
_locmap_si DD	05bH
	DD	FLAT:??_C@_02OCDGCAAK@si?$AA@
	DD	045bH
	DD	FLAT:??_C@_05KOMKMJJB@si_LK?$AA@
_locmap_sk DD	01bH
	DD	FLAT:??_C@_02NAAAECII@sk?$AA@
	DD	041bH
	DD	FLAT:??_C@_05MDHAHOLM@sk_SK?$AA@
_locmap_sl DD	024H
	DD	FLAT:??_C@_02JPEBNEEP@sl?$AA@
	DD	0424H
	DD	FLAT:??_C@_05EDGGMACO@sl_SI?$AA@
_locmap_so DD	077H
	DD	FLAT:??_C@_02LEGMIHIM@so?$AA@
	DD	0477H
	DD	FLAT:??_C@_05ODABAJCA@so_ET?$AA@
	DD	0477H
	DD	FLAT:??_C@_05FCJMBNHI@so_SO?$AA@
_locmap_sq DD	01cH
	DD	FLAT:??_C@_02GACNLIFD@sq?$AA@
	DD	041cH
	DD	FLAT:??_C@_05LJMDBAEG@sq_AL?$AA@
_locmap_st DD	030H
	DD	FLAT:??_C@_02BNFKEMBG@st?$AA@
	DD	0430H
	DD	FLAT:??_C@_05NEPOKNOK@st_ZA?$AA@
_locmap_sv DD	01dH
	DD	FLAT:??_C@_02CPGMCOJE@sv?$AA@
	DD	081dH
	DD	FLAT:??_C@_05HDNLCOJG@sv_FI?$AA@
	DD	041dH
	DD	FLAT:??_C@_05MFIDAAAB@sv_SE?$AA@
_locmap_sw DD	041H
	DD	FLAT:??_C@_02DGHHBPNF@sw?$AA@
	DD	0441H
	DD	FLAT:??_C@_05OKNGNLHJ@sw_KE?$AA@
_locmap_syr DD	05aH
	DD	FLAT:??_C@_03OBBIGHDK@syr?$AA@
	DD	045aH
	DD	FLAT:??_C@_06IGMBGMJB@syr_SY?$AA@
_locmap_ta DD	049H
	DD	FLAT:??_C@_02CPKALMIH@ta?$AA@
	DD	0449H
	DD	FLAT:??_C@_05PIADIEEG@ta_IN?$AA@
	DD	0849H
	DD	FLAT:??_C@_05IDLPLCOI@ta_LK?$AA@
_locmap_te DD	04aH
	DD	FLAT:??_C@_02ELMMHJID@te?$AA@
	DD	044aH
	DD	FLAT:??_C@_05NIDCCIG@te_IN?$AA@
_locmap_tg DD	028H
	DD	FLAT:??_C@_02HJPKBLAB@tg?$AA@
	DD	07c28H
	DD	FLAT:??_C@_07JGFHCCKP@tg_Cyrl?$AA@
	DD	0428H
	DD	FLAT:??_C@_0L@HCNEKGKL@tg_Cyrl_TJ?$AA@
_locmap_th DD	01eH
	DD	FLAT:??_C@_02POGCAHMO@th?$AA@
	DD	041eH
	DD	FLAT:??_C@_05LHLHHBJC@th_TH?$AA@
_locmap_ti DD	073H
	DD	FLAT:??_C@_02OHHJDGIP@ti?$AA@
	DD	0873H
	DD	FLAT:??_C@_05CHBOGLLO@ti_ER?$AA@
	DD	0473H
	DD	FLAT:??_C@_05HBEEMMDI@ti_ET?$AA@
_locmap_tk DD	042H
	DD	FLAT:??_C@_02NFEPFEAN@tk?$AA@
	DD	0442H
	DD	FLAT:??_C@_05INGAPPAH@tk_TM?$AA@
_locmap_tn DD	032H
	DD	FLAT:??_C@_02KIDIKAEI@tn?$AA@
	DD	0832H
	DD	FLAT:??_C@_05ONAGFFGO@tn_BW?$AA@
	DD	0432H
	DD	FLAT:??_C@_05ODKLBCHB@tn_ZA?$AA@
_locmap_tr DD	01fH
	DD	FLAT:??_C@_02EOEPPNBF@tr?$AA@
	DD	041fH
	DD	FLAT:??_C@_05CNMKAEGK@tr_TR?$AA@
_locmap_ts DD	031H
	DD	FLAT:??_C@_02FHFEMMFE@ts?$AA@
	DD	0431H
	DD	FLAT:??_C@_05HLNLEBEC@ts_ZA?$AA@
_locmap_tt DD	044H
	DD	FLAT:??_C@_02BIBFFKJD@tt?$AA@
	DD	0444H
	DD	FLAT:??_C@_05OJEGBLLP@tt_RU?$AA@
_locmap_tzm DD	05fH
	DD	FLAT:??_C@_03LDNDOPEE@tzm?$AA@
	DD	07c5fH
	DD	FLAT:??_C@_08CIIPMAFM@tzm_Latn?$AA@
	DD	085fH
	DD	FLAT:??_C@_0M@HHPCBBDF@tzm_Latn_DZ?$AA@
	DD	0105fH
	DD	FLAT:??_C@_0M@BELBLGLM@tzm_Tfng_MA?$AA@
	DD	045fH
	DD	FLAT:??_C@_03KPDJNOCH@tmz?$AA@
_locmap_ug DD	080H
	DD	FLAT:??_C@_02HIDIHBDG@ug?$AA@
	DD	0480H
	DD	FLAT:??_C@_05LBIICHJF@ug_CN?$AA@
	DD	0480H
	DD	FLAT:??_C@_0L@LEAPJEEJ@ug_Arab_CN?$AA@
_locmap_uk DD	022H
	DD	FLAT:??_C@_02NEINDODK@uk?$AA@
	DD	0422H
	DD	FLAT:??_C@_05OLELAJJJ@uk_UA?$AA@
_locmap_ur DD	020H
	DD	FLAT:??_C@_02EPINJHCC@ur?$AA@
	DD	0820H
	DD	FLAT:??_C@_05BEBPLKLB@ur_IN?$AA@
	DD	0420H
	DD	FLAT:??_C@_05HKJPNGAL@ur_PK?$AA@
_locmap_uz DD	043H
	DD	FLAT:??_C@_02IHFEBNCK@uz?$AA@
	DD	0843H
	DD	FLAT:??_C@_0L@CKAKALFF@uz_Cyrl_UZ?$AA@
	DD	07843H
	DD	FLAT:??_C@_07FMPENPDP@uz_Cyrl?$AA@
	DD	0843H
	DD	FLAT:??_C@_05BPPNHMDB@uz_UZ?$AA@
	DD	0443H
	DD	FLAT:??_C@_0L@LICHLCN@uz_Latn_UZ?$AA@
	DD	07c43H
	DD	FLAT:??_C@_07HNLCCJKO@uz_Latn?$AA@
_locmap_ve DD	033H
	DD	FLAT:??_C@_02EIEIKNON@ve?$AA@
	DD	0433H
	DD	FLAT:??_C@_05NJLDICGL@ve_ZA?$AA@
	DD	0433H
	DD	FLAT:??_C@_06IIDHFIID@ven_ZA?$AA@
_locmap_vi DD	02aH
	DD	FLAT:??_C@_02OEPNOCOB@vi?$AA@
	DD	042aH
	DD	FLAT:??_C@_05JCMBIKMB@vi_VN?$AA@
_locmap_wo DD	088H
	DD	FLAT:??_C@_02LDGFCPFA@wo?$AA@
	DD	0488H
	DD	FLAT:??_C@_05NABGGOCP@wo_SN?$AA@
_locmap_xh DD	034H
	DD	FLAT:??_C@_02PHHIPOKK@xh?$AA@
	DD	0434H
	DD	FLAT:??_C@_05BLCJCHKK@xh_ZA?$AA@
_locmap_yi DD	03dH
	DD	FLAT:??_C@_02OPKBKFNM@yi?$AA@
	DD	043dH
	DD	FLAT:??_C@_02OPKBKFNM@yi?$AA@
_locmap_yo DD	06aH
	DD	FLAT:??_C@_02LJPLACFK@yo?$AA@
	DD	046aH
	DD	FLAT:??_C@_05CPCAIEDF@yo_NG?$AA@
_locmap_zh DD	04H
	DD	FLAT:??_C@_07EPIOFKJP@zh_Hans?$AA@
	DD	07804H
	DD	FLAT:??_C@_02PEPMCKME@zh?$AA@
	DD	0804H
	DD	FLAT:??_C@_05MCIOACJB@zh_CN?$AA@
	DD	0804H
	DD	FLAT:??_C@_0L@DDFDKKJN@zh_Hans_CN?$AA@
	DD	0c04H
	DD	FLAT:??_C@_0L@PAFBGNCJ@zh_Hant_HK?$AA@
	DD	0c04H
	DD	FLAT:??_C@_05LDKMBJDF@zh_HK?$AA@
	DD	01404H
	DD	FLAT:??_C@_0L@JCPGGKMG@zh_Hant_MO?$AA@
	DD	01404H
	DD	FLAT:??_C@_05NBALBONK@zh_MO?$AA@
	DD	01004H
	DD	FLAT:??_C@_0L@POLHLCKE@zh_Hans_SG?$AA@
	DD	01004H
	DD	FLAT:??_C@_05PGKBKKI@zh_SG?$AA@
	DD	0404H
	DD	FLAT:??_C@_0L@DBKGKGA@zh_Hant_TW?$AA@
	DD	07c04H
	DD	FLAT:??_C@_07MPMMFI@zh_Hant?$AA@
	DD	0404H
	DD	FLAT:??_C@_05EAOHBOHM@zh_TW?$AA@
	DD	030404H
	DD	FLAT:??_C@_0L@DBKGKGA@zh_Hant_TW?$AA@
	DD	030404H
	DD	FLAT:??_C@_05EAOHBOHM@zh_TW?$AA@
	DD	020004H
	DD	FLAT:??_C@_0BE@CDDEEKL@zh?$EAcollation?$DNstroke?$AA@
	DD	020404H
	DD	FLAT:??_C@_0BJ@KBLBGPOM@zh_Hant?$EAcollation?$DNstroke?$AA@
	DD	020404H
	DD	FLAT:??_C@_0BM@OJPIPLEB@zh_Hant_TW?$EAcollation?$DNstroke?$AA@
	DD	020404H
	DD	FLAT:??_C@_0BH@OJOLHPMC@zh_TW?$EAcollation?$DNstroke?$AA@
	DD	020804H
	DD	FLAT:??_C@_0BJ@OLIPOEKH@zh_Hans?$EAcollation?$DNstroke?$AA@
	DD	020804H
	DD	FLAT:??_C@_0BM@EAKCGOGA@zh_Hans_CN?$EAcollation?$DNstroke?$AA@
	DD	020804H
	DD	FLAT:??_C@_0BH@CFGINEKD@zh_CN?$EAcollation?$DNstroke?$AA@
_locmap_zu DD	035H
	DD	FLAT:??_C@_02LJAEGNI@zu?$AA@
	DD	0435H
	DD	FLAT:??_C@_05MOJBNFJC@zu_ZA?$AA@
_gPosixIDmap DD	02H
	DD	FLAT:_locmap_af
	DD	02H
	DD	FLAT:_locmap_am
	DD	012H
	DD	FLAT:_locmap_ar
	DD	02H
	DD	FLAT:_locmap_arn
	DD	02H
	DD	FLAT:_locmap_as
	DD	06H
	DD	FLAT:_locmap_az
	DD	02H
	DD	FLAT:_locmap_ba
	DD	02H
	DD	FLAT:_locmap_be
	DD	02H
	DD	FLAT:_locmap_bg
	DD	02H
	DD	FLAT:_locmap_bin
	DD	03H
	DD	FLAT:_locmap_bn
	DD	03H
	DD	FLAT:_locmap_bo
	DD	02H
	DD	FLAT:_locmap_br
	DD	03H
	DD	FLAT:_locmap_ca
	DD	02H
	DD	FLAT:_locmap_chr
	DD	06H
	DD	FLAT:_locmap_ckb
	DD	02H
	DD	FLAT:_locmap_co
	DD	02H
	DD	FLAT:_locmap_cs
	DD	02H
	DD	FLAT:_locmap_cy
	DD	02H
	DD	FLAT:_locmap_da
	DD	08H
	DD	FLAT:_locmap_de
	DD	02H
	DD	FLAT:_locmap_dv
	DD	02H
	DD	FLAT:_locmap_el
	DD	01aH
	DD	FLAT:_locmap_en
	DD	01H
	DD	FLAT:_locmap_en_US_POSIX
	DD	018H
	DD	FLAT:_locmap_es
	DD	02H
	DD	FLAT:_locmap_et
	DD	02H
	DD	FLAT:_locmap_eu
	DD	03H
	DD	FLAT:_locmap_fa
	DD	02H
	DD	FLAT:_locmap_fa_AF
	DD	03H
	DD	FLAT:_locmap_ff
	DD	02H
	DD	FLAT:_locmap_fi
	DD	02H
	DD	FLAT:_locmap_fil
	DD	02H
	DD	FLAT:_locmap_fo
	DD	012H
	DD	FLAT:_locmap_fr
	DD	02H
	DD	FLAT:_locmap_fuv
	DD	02H
	DD	FLAT:_locmap_fy
	DD	03H
	DD	FLAT:_locmap_ga
	DD	02H
	DD	FLAT:_locmap_gd
	DD	02H
	DD	FLAT:_locmap_gl
	DD	02H
	DD	FLAT:_locmap_gn
	DD	02H
	DD	FLAT:_locmap_gsw
	DD	02H
	DD	FLAT:_locmap_gu
	DD	03H
	DD	FLAT:_locmap_ha
	DD	02H
	DD	FLAT:_locmap_haw
	DD	02H
	DD	FLAT:_locmap_he
	DD	02H
	DD	FLAT:_locmap_hi
	DD	014H
	DD	FLAT:_locmap_hr
	DD	04H
	DD	FLAT:_locmap_hsb
	DD	02H
	DD	FLAT:_locmap_hu
	DD	02H
	DD	FLAT:_locmap_hy
	DD	02H
	DD	FLAT:_locmap_ibb
	DD	02H
	DD	FLAT:_locmap_id
	DD	02H
	DD	FLAT:_locmap_ig
	DD	02H
	DD	FLAT:_locmap_ii
	DD	02H
	DD	FLAT:_locmap_is
	DD	03H
	DD	FLAT:_locmap_it
	DD	05H
	DD	FLAT:_locmap_iu
	DD	02H
	DD	FLAT:_locmap_iw
	DD	02H
	DD	FLAT:_locmap_ja
	DD	02H
	DD	FLAT:_locmap_ka
	DD	02H
	DD	FLAT:_locmap_kk
	DD	02H
	DD	FLAT:_locmap_kl
	DD	02H
	DD	FLAT:_locmap_km
	DD	02H
	DD	FLAT:_locmap_kn
	DD	03H
	DD	FLAT:_locmap_ko
	DD	02H
	DD	FLAT:_locmap_kok
	DD	02H
	DD	FLAT:_locmap_kr
	DD	04H
	DD	FLAT:_locmap_ks
	DD	02H
	DD	FLAT:_locmap_ky
	DD	02H
	DD	FLAT:_locmap_lb
	DD	02H
	DD	FLAT:_locmap_la
	DD	02H
	DD	FLAT:_locmap_lo
	DD	02H
	DD	FLAT:_locmap_lt
	DD	02H
	DD	FLAT:_locmap_lv
	DD	02H
	DD	FLAT:_locmap_mi
	DD	02H
	DD	FLAT:_locmap_mk
	DD	02H
	DD	FLAT:_locmap_ml
	DD	07H
	DD	FLAT:_locmap_mn
	DD	02H
	DD	FLAT:_locmap_mni
	DD	02H
	DD	FLAT:_locmap_moh
	DD	02H
	DD	FLAT:_locmap_mr
	DD	03H
	DD	FLAT:_locmap_ms
	DD	02H
	DD	FLAT:_locmap_mt
	DD	02H
	DD	FLAT:_locmap_my
	DD	03H
	DD	FLAT:_locmap_ne
	DD	03H
	DD	FLAT:_locmap_nl
	DD	07H
	DD	FLAT:_locmap_no
	DD	02H
	DD	FLAT:_locmap_nso
	DD	02H
	DD	FLAT:_locmap_oc
	DD	03H
	DD	FLAT:_locmap_om
	DD	02H
	DD	FLAT:_locmap_or_IN
	DD	04H
	DD	FLAT:_locmap_pa
	DD	02H
	DD	FLAT:_locmap_pap
	DD	02H
	DD	FLAT:_locmap_pl
	DD	02H
	DD	FLAT:_locmap_ps
	DD	03H
	DD	FLAT:_locmap_pt
	DD	07H
	DD	FLAT:_locmap_qu
	DD	02H
	DD	FLAT:_locmap_qut
	DD	02H
	DD	FLAT:_locmap_rm
	DD	03H
	DD	FLAT:_locmap_ro
	DD	01H
	DD	FLAT:_locmap_root
	DD	03H
	DD	FLAT:_locmap_ru
	DD	02H
	DD	FLAT:_locmap_rw
	DD	02H
	DD	FLAT:_locmap_sa
	DD	02H
	DD	FLAT:_locmap_sah
	DD	03H
	DD	FLAT:_locmap_sd
	DD	0eH
	DD	FLAT:_locmap_se
	DD	02H
	DD	FLAT:_locmap_si
	DD	02H
	DD	FLAT:_locmap_sk
	DD	02H
	DD	FLAT:_locmap_sl
	DD	03H
	DD	FLAT:_locmap_so
	DD	02H
	DD	FLAT:_locmap_sq
	DD	02H
	DD	FLAT:_locmap_st
	DD	03H
	DD	FLAT:_locmap_sv
	DD	02H
	DD	FLAT:_locmap_sw
	DD	02H
	DD	FLAT:_locmap_syr
	DD	03H
	DD	FLAT:_locmap_ta
	DD	02H
	DD	FLAT:_locmap_te
	DD	03H
	DD	FLAT:_locmap_tg
	DD	02H
	DD	FLAT:_locmap_th
	DD	03H
	DD	FLAT:_locmap_ti
	DD	02H
	DD	FLAT:_locmap_tk
	DD	03H
	DD	FLAT:_locmap_tn
	DD	02H
	DD	FLAT:_locmap_tr
	DD	02H
	DD	FLAT:_locmap_ts
	DD	02H
	DD	FLAT:_locmap_tt
	DD	05H
	DD	FLAT:_locmap_tzm
	DD	03H
	DD	FLAT:_locmap_ug
	DD	02H
	DD	FLAT:_locmap_uk
	DD	03H
	DD	FLAT:_locmap_ur
	DD	06H
	DD	FLAT:_locmap_uz
	DD	03H
	DD	FLAT:_locmap_ve
	DD	02H
	DD	FLAT:_locmap_vi
	DD	02H
	DD	FLAT:_locmap_wo
	DD	02H
	DD	FLAT:_locmap_xh
	DD	02H
	DD	FLAT:_locmap_yi
	DD	02H
	DD	FLAT:_locmap_yo
	DD	016H
	DD	FLAT:_locmap_zh
	DD	02H
	DD	FLAT:_locmap_zu
_gLocaleCount DD 08cH
CONST	ENDS
;	COMDAT ??_C@_05IAMAMKJI@af_ZA?$AA@
CONST	SEGMENT
??_C@_05IAMAMKJI@af_ZA?$AA@ DB 'af_ZA', 00H		; `string'
CONST	ENDS
;	COMDAT ??_C@_02HKAMELNL@af?$AA@
CONST	SEGMENT
??_C@_02HKAMELNL@af?$AA@ DB 'af', 00H			; `string'
CONST	ENDS
PUBLIC	__$ArrayPad$
PUBLIC	_uprv_convertToPosix_56
EXTRN	_memcpy:PROC
EXTRN	_uprv_checkValidMemory:PROC
EXTRN	_strcat:PROC
EXTRN	_strlen:PROC
EXTRN	__imp__strchr:PROC
EXTRN	__imp__GetLocaleInfoA@16:PROC
EXTRN	___security_cookie:DWORD
EXTRN	@__security_check_cookie@4:PROC
EXTRN	@_RTC_CheckStackVars@8:PROC
EXTRN	__RTC_CheckEsp:PROC
EXTRN	__RTC_Shutdown:PROC
EXTRN	__RTC_InitBase:PROC
;	COMDAT rtc$TMZ
; File d:\mozilla\intl\icu\source\common\locmap.c
rtc$TMZ	SEGMENT
__RTC_Shutdown.rtc$TMZ DD FLAT:__RTC_Shutdown
rtc$TMZ	ENDS
;	COMDAT rtc$IMZ
rtc$IMZ	SEGMENT
__RTC_InitBase.rtc$IMZ DD FLAT:__RTC_InitBase
; Function compile flags: /Odtp /RTCsu /ZI
rtc$IMZ	ENDS
;	COMDAT _uprv_convertToPosix_56
_TEXT	SEGMENT
tv167 = -476						; size = 4
_copyLen$107778 = -276					; size = 4
_resLen$107777 = -264					; size = 4
_pCandidate$107766 = -252				; size = 4
_p$107754 = -240					; size = 4
_locName$ = -228					; size = 157
_tmpLen$ = -60						; size = 4
_pPosixID$ = -48					; size = 4
_bLookup$ = -33						; size = 1
_localeIndex$ = -24					; size = 4
_langID$ = -12						; size = 2
__$ArrayPad$ = -4					; size = 4
_hostid$ = 8						; size = 4
_posixID$ = 12						; size = 4
_posixIDCapacity$ = 16					; size = 4
_status$ = 20						; size = 4
_uprv_convertToPosix_56 PROC				; COMDAT
; Line 981
	push	ebp
	mov	ebp, esp
	sub	esp, 476				; 000001dcH
	push	ebx
	push	esi
	push	edi
	lea	edi, DWORD PTR [ebp-476]
	mov	ecx, 119				; 00000077H
	mov	eax, -858993460				; ccccccccH
	rep stosd
	mov	eax, DWORD PTR ___security_cookie
	xor	eax, ebp
	mov	DWORD PTR __$ArrayPad$[ebp], eax
; Line 984
	mov	BYTE PTR _bLookup$[ebp], 1
; Line 985
	mov	DWORD PTR _pPosixID$[ebp], 0
; Line 988
	mov	DWORD PTR _tmpLen$[ebp], 0
; Line 991
	mov	esi, esp
	push	157					; 0000009dH
	lea	eax, DWORD PTR _locName$[ebp]
	push	eax
	push	92					; 0000005cH
	mov	ecx, DWORD PTR _hostid$[ebp]
	push	ecx
	call	DWORD PTR __imp__GetLocaleInfoA@16
	cmp	esi, esp
	call	__RTC_CheckEsp
	mov	DWORD PTR _tmpLen$[ebp], eax
; Line 992
	cmp	DWORD PTR _tmpLen$[ebp], 1
	jle	$LN23@uprv_conve
; Line 996
	mov	esi, esp
	push	95					; 0000005fH
	lea	eax, DWORD PTR _locName$[ebp]
	push	eax
	call	DWORD PTR __imp__strchr
	add	esp, 8
	cmp	esi, esp
	call	__RTC_CheckEsp
	mov	DWORD PTR _p$107754[ebp], eax
; Line 997
	cmp	DWORD PTR _p$107754[ebp], 0
	je	SHORT $LN22@uprv_conve
; Line 999
	mov	eax, DWORD PTR _p$107754[ebp]
	mov	BYTE PTR [eax], 0
; Line 1000
	lea	eax, DWORD PTR _locName$[ebp]
	push	eax
	call	_strlen
	add	esp, 4
	mov	DWORD PTR _tmpLen$[ebp], eax
; Line 1001
	jmp	SHORT $LN21@uprv_conve
$LN22@uprv_conve:
; Line 1003
	mov	BYTE PTR _bLookup$[ebp], 0
$LN21@uprv_conve:
; Line 1006
	lea	eax, DWORD PTR _locName$[ebp]
	mov	DWORD PTR _p$107754[ebp], eax
$LN20@uprv_conve:
; Line 1007
	mov	eax, DWORD PTR _p$107754[ebp]
	movsx	ecx, BYTE PTR [eax]
	test	ecx, ecx
	je	SHORT $LN19@uprv_conve
; Line 1008
	mov	eax, DWORD PTR _p$107754[ebp]
	movsx	ecx, BYTE PTR [eax]
	cmp	ecx, 45					; 0000002dH
	jne	SHORT $LN18@uprv_conve
; Line 1009
	mov	eax, DWORD PTR _p$107754[ebp]
	mov	BYTE PTR [eax], 95			; 0000005fH
$LN18@uprv_conve:
; Line 1011
	mov	eax, DWORD PTR _p$107754[ebp]
	add	eax, 1
	mov	DWORD PTR _p$107754[ebp], eax
; Line 1012
	jmp	SHORT $LN20@uprv_conve
$LN19@uprv_conve:
; Line 1013
	cmp	DWORD PTR _tmpLen$[ebp], 3
	jl	$LN17@uprv_conve
	movsx	eax, BYTE PTR _locName$[ebp]
	cmp	eax, 113				; 00000071H
	jne	SHORT $LN16@uprv_conve
	movsx	eax, BYTE PTR _locName$[ebp+1]
	cmp	eax, 117				; 00000075H
	jne	SHORT $LN16@uprv_conve
	movsx	eax, BYTE PTR _locName$[ebp+2]
	cmp	eax, 122				; 0000007aH
	jne	SHORT $LN16@uprv_conve
	mov	BYTE PTR _locName$[ebp+2], 0
	lea	eax, DWORD PTR _locName$[ebp+3]
	push	eax
	lea	ecx, DWORD PTR _locName$[ebp]
	push	ecx
	call	_strcat
	add	esp, 8
	jmp	SHORT $LN17@uprv_conve
$LN16@uprv_conve:
	movsx	eax, BYTE PTR _locName$[ebp]
	cmp	eax, 112				; 00000070H
	jne	SHORT $LN17@uprv_conve
	movsx	eax, BYTE PTR _locName$[ebp+1]
	cmp	eax, 114				; 00000072H
	jne	SHORT $LN17@uprv_conve
	movsx	eax, BYTE PTR _locName$[ebp+2]
	cmp	eax, 115				; 00000073H
	jne	SHORT $LN17@uprv_conve
	mov	BYTE PTR _locName$[ebp], 102		; 00000066H
	mov	BYTE PTR _locName$[ebp+1], 97		; 00000061H
	mov	BYTE PTR _locName$[ebp+2], 0
	lea	eax, DWORD PTR _locName$[ebp+3]
	push	eax
	lea	ecx, DWORD PTR _locName$[ebp]
	push	ecx
	call	_strcat
	add	esp, 8
$LN17@uprv_conve:
; Line 1014
	lea	eax, DWORD PTR _locName$[ebp]
	mov	DWORD PTR _pPosixID$[ebp], eax
$LN23@uprv_conve:
; Line 1017
	movsx	eax, BYTE PTR _bLookup$[ebp]
	test	eax, eax
	je	$LN13@uprv_conve
; Line 1018
	mov	DWORD PTR _pCandidate$107766[ebp], 0
; Line 1019
	mov	eax, DWORD PTR _hostid$[ebp]
	and	eax, 1023				; 000003ffH
	mov	WORD PTR _langID$[ebp], ax
; Line 1021
	mov	DWORD PTR _localeIndex$[ebp], 0
	jmp	SHORT $LN12@uprv_conve
$LN11@uprv_conve:
	mov	eax, DWORD PTR _localeIndex$[ebp]
	add	eax, 1
	mov	DWORD PTR _localeIndex$[ebp], eax
$LN12@uprv_conve:
	mov	eax, DWORD PTR _localeIndex$[ebp]
	cmp	eax, DWORD PTR _gLocaleCount
	jae	SHORT $LN10@uprv_conve
; Line 1022
	movzx	eax, WORD PTR _langID$[ebp]
	mov	ecx, DWORD PTR _localeIndex$[ebp]
	mov	edx, DWORD PTR _gPosixIDmap[ecx*8+4]
	cmp	eax, DWORD PTR [edx]
	jne	SHORT $LN9@uprv_conve
; Line 1023
	mov	eax, DWORD PTR _hostid$[ebp]
	push	eax
	mov	ecx, DWORD PTR _localeIndex$[ebp]
	lea	edx, DWORD PTR _gPosixIDmap[ecx*8]
	push	edx
	call	_getPosixID
	add	esp, 8
	mov	DWORD PTR _pCandidate$107766[ebp], eax
; Line 1024
	jmp	SHORT $LN10@uprv_conve
$LN9@uprv_conve:
; Line 1026
	jmp	SHORT $LN11@uprv_conve
$LN10@uprv_conve:
; Line 1031
	cmp	DWORD PTR _pCandidate$107766[ebp], 0
	je	SHORT $LN13@uprv_conve
	cmp	DWORD PTR _pPosixID$[ebp], 0
	je	SHORT $LN7@uprv_conve
	mov	eax, DWORD PTR _pCandidate$107766[ebp]
	push	eax
	call	_strlen
	add	esp, 4
	mov	esi, eax
	mov	ecx, DWORD PTR _pPosixID$[ebp]
	push	ecx
	call	_strlen
	add	esp, 4
	cmp	esi, eax
	jbe	SHORT $LN13@uprv_conve
$LN7@uprv_conve:
; Line 1032
	mov	eax, DWORD PTR _pCandidate$107766[ebp]
	mov	DWORD PTR _pPosixID$[ebp], eax
$LN13@uprv_conve:
; Line 1036
	cmp	DWORD PTR _pPosixID$[ebp], 0
	je	$LN6@uprv_conve
; Line 1037
	mov	eax, DWORD PTR _pPosixID$[ebp]
	push	eax
	call	_strlen
	add	esp, 4
	mov	DWORD PTR _resLen$107777[ebp], eax
; Line 1038
	mov	eax, DWORD PTR _resLen$107777[ebp]
	cmp	eax, DWORD PTR _posixIDCapacity$[ebp]
	jg	SHORT $LN26@uprv_conve
	mov	ecx, DWORD PTR _resLen$107777[ebp]
	mov	DWORD PTR tv167[ebp], ecx
	jmp	SHORT $LN27@uprv_conve
$LN26@uprv_conve:
	mov	edx, DWORD PTR _posixIDCapacity$[ebp]
	mov	DWORD PTR tv167[ebp], edx
$LN27@uprv_conve:
	mov	eax, DWORD PTR tv167[ebp]
	mov	DWORD PTR _copyLen$107778[ebp], eax
; Line 1039
	push	1
	mov	eax, DWORD PTR _pPosixID$[ebp]
	push	eax
	call	_uprv_checkValidMemory
	add	esp, 8
	mov	ecx, DWORD PTR _copyLen$107778[ebp]
	push	ecx
	mov	edx, DWORD PTR _pPosixID$[ebp]
	push	edx
	mov	eax, DWORD PTR _posixID$[ebp]
	push	eax
	call	_memcpy
	add	esp, 12					; 0000000cH
; Line 1040
	mov	eax, DWORD PTR _resLen$107777[ebp]
	cmp	eax, DWORD PTR _posixIDCapacity$[ebp]
	jge	SHORT $LN5@uprv_conve
; Line 1041
	mov	eax, DWORD PTR _posixID$[ebp]
	add	eax, DWORD PTR _resLen$107777[ebp]
	mov	BYTE PTR [eax], 0
; Line 1042
	mov	eax, DWORD PTR _status$[ebp]
	cmp	DWORD PTR [eax], -124			; ffffff84H
	jne	SHORT $LN4@uprv_conve
; Line 1043
	mov	eax, DWORD PTR _status$[ebp]
	mov	DWORD PTR [eax], 0
$LN4@uprv_conve:
; Line 1044
	jmp	SHORT $LN3@uprv_conve
$LN5@uprv_conve:
; Line 1045
	mov	eax, DWORD PTR _resLen$107777[ebp]
	cmp	eax, DWORD PTR _posixIDCapacity$[ebp]
	jne	SHORT $LN2@uprv_conve
; Line 1046
	mov	eax, DWORD PTR _status$[ebp]
	mov	DWORD PTR [eax], -124			; ffffff84H
; Line 1047
	jmp	SHORT $LN3@uprv_conve
$LN2@uprv_conve:
; Line 1048
	mov	eax, DWORD PTR _status$[ebp]
	mov	DWORD PTR [eax], 15			; 0000000fH
$LN3@uprv_conve:
; Line 1050
	mov	eax, DWORD PTR _resLen$107777[ebp]
	jmp	SHORT $LN24@uprv_conve
$LN6@uprv_conve:
; Line 1054
	mov	eax, DWORD PTR _status$[ebp]
	mov	DWORD PTR [eax], 1
; Line 1055
	or	eax, -1
$LN24@uprv_conve:
; Line 1056
	push	edx
	mov	ecx, ebp
	push	eax
	lea	edx, DWORD PTR $LN30@uprv_conve
	call	@_RTC_CheckStackVars@8
	pop	eax
	pop	edx
	pop	edi
	pop	esi
	pop	ebx
	mov	ecx, DWORD PTR __$ArrayPad$[ebp]
	xor	ecx, ebp
	call	@__security_check_cookie@4
	add	esp, 476				; 000001dcH
	cmp	ebp, esp
	call	__RTC_CheckEsp
	mov	esp, ebp
	pop	ebp
	ret	0
	npad	1
$LN30@uprv_conve:
	DD	1
	DD	$LN29@uprv_conve
$LN29@uprv_conve:
	DD	-228					; ffffff1cH
	DD	157					; 0000009dH
	DD	$LN28@uprv_conve
$LN28@uprv_conve:
	DB	108					; 0000006cH
	DB	111					; 0000006fH
	DB	99					; 00000063H
	DB	78					; 0000004eH
	DB	97					; 00000061H
	DB	109					; 0000006dH
	DB	101					; 00000065H
	DB	0
_uprv_convertToPosix_56 ENDP
; Function compile flags: /Odtp /RTCsu /ZI
_TEXT	ENDS
;	COMDAT _getPosixID
_TEXT	SEGMENT
_i$ = -8						; size = 4
_this_0$ = 8						; size = 4
_hostID$ = 12						; size = 4
_getPosixID PROC					; COMDAT
; Line 939
	push	ebp
	mov	ebp, esp
	sub	esp, 204				; 000000ccH
	push	ebx
	push	esi
	push	edi
	lea	edi, DWORD PTR [ebp-204]
	mov	ecx, 51					; 00000033H
	mov	eax, -858993460				; ccccccccH
	rep stosd
; Line 941
	mov	DWORD PTR _i$[ebp], 0
	jmp	SHORT $LN4@getPosixID
$LN3@getPosixID:
	mov	eax, DWORD PTR _i$[ebp]
	add	eax, 1
	mov	DWORD PTR _i$[ebp], eax
$LN4@getPosixID:
	mov	eax, DWORD PTR _this_0$[ebp]
	mov	ecx, DWORD PTR _i$[ebp]
	cmp	ecx, DWORD PTR [eax]
	ja	SHORT $LN2@getPosixID
; Line 943
	mov	eax, DWORD PTR _this_0$[ebp]
	mov	ecx, DWORD PTR [eax+4]
	mov	edx, DWORD PTR _i$[ebp]
	mov	eax, DWORD PTR [ecx+edx*8]
	cmp	eax, DWORD PTR _hostID$[ebp]
	jne	SHORT $LN1@getPosixID
; Line 945
	mov	eax, DWORD PTR _this_0$[ebp]
	mov	ecx, DWORD PTR [eax+4]
	mov	edx, DWORD PTR _i$[ebp]
	mov	eax, DWORD PTR [ecx+edx*8+4]
	jmp	SHORT $LN5@getPosixID
$LN1@getPosixID:
; Line 947
	jmp	SHORT $LN3@getPosixID
$LN2@getPosixID:
; Line 951
	mov	eax, DWORD PTR _this_0$[ebp]
	mov	ecx, DWORD PTR [eax+4]
	mov	eax, DWORD PTR [ecx+4]
$LN5@getPosixID:
; Line 952
	pop	edi
	pop	esi
	pop	ebx
	mov	esp, ebp
	pop	ebp
	ret	0
_getPosixID ENDP
_TEXT	ENDS
PUBLIC	_uprv_convertToLCID_56
EXTRN	_strcmp:PROC
; Function compile flags: /Odtp /RTCsu /ZI
;	COMDAT _uprv_convertToLCID_56
_TEXT	SEGMENT
_idx$ = -104						; size = 4
_myStatus$ = -92					; size = 4
_fallbackValue$ = -80					; size = 4
_value$ = -68						; size = 4
_compVal$ = -56						; size = 4
_oldmid$ = -44						; size = 4
_mid$ = -32						; size = 4
_high$ = -20						; size = 4
_low$ = -8						; size = 4
_langID$ = 8						; size = 4
_posixID$ = 12						; size = 4
_status$ = 16						; size = 4
_uprv_convertToLCID_56 PROC				; COMDAT
; Line 1071
	push	ebp
	mov	ebp, esp
	sub	esp, 300				; 0000012cH
	push	ebx
	push	esi
	push	edi
	lea	edi, DWORD PTR [ebp-300]
	mov	ecx, 75					; 0000004bH
	mov	eax, -858993460				; ccccccccH
	rep stosd
; Line 1073
	mov	DWORD PTR _low$[ebp], 0
; Line 1074
	mov	eax, DWORD PTR _gLocaleCount
	mov	DWORD PTR _high$[ebp], eax
; Line 1076
	mov	DWORD PTR _oldmid$[ebp], 0
; Line 1079
	mov	DWORD PTR _value$[ebp], 0
; Line 1080
	mov	DWORD PTR _fallbackValue$[ebp], -1
; Line 1085
	cmp	DWORD PTR _langID$[ebp], 0
	je	SHORT $LN15@uprv_conve@2
	cmp	DWORD PTR _posixID$[ebp], 0
	je	SHORT $LN15@uprv_conve@2
	mov	eax, DWORD PTR _langID$[ebp]
	push	eax
	call	_strlen
	add	esp, 4
	cmp	eax, 2
	jb	SHORT $LN15@uprv_conve@2
	mov	eax, DWORD PTR _posixID$[ebp]
	push	eax
	call	_strlen
	add	esp, 4
	cmp	eax, 2
	jae	SHORT $LN14@uprv_conve@2
$LN15@uprv_conve@2:
; Line 1086
	xor	eax, eax
	jmp	$LN17@uprv_conve@2
$LN14@uprv_conve@2:
; Line 1091
	mov	eax, DWORD PTR _high$[ebp]
	cmp	eax, DWORD PTR _low$[ebp]
	jbe	SHORT $LN13@uprv_conve@2
; Line 1093
	mov	eax, DWORD PTR _high$[ebp]
	add	eax, DWORD PTR _low$[ebp]
	shr	eax, 1
	mov	DWORD PTR _mid$[ebp], eax
; Line 1095
	mov	eax, DWORD PTR _mid$[ebp]
	cmp	eax, DWORD PTR _oldmid$[ebp]
	jne	SHORT $LN12@uprv_conve@2
; Line 1096
	jmp	SHORT $LN13@uprv_conve@2
$LN12@uprv_conve@2:
; Line 1098
	mov	eax, DWORD PTR _mid$[ebp]
	mov	ecx, DWORD PTR _gPosixIDmap[eax*8+4]
	mov	edx, DWORD PTR [ecx+4]
	push	edx
	mov	eax, DWORD PTR _langID$[ebp]
	push	eax
	call	_strcmp
	add	esp, 8
	mov	DWORD PTR _compVal$[ebp], eax
; Line 1099
	cmp	DWORD PTR _compVal$[ebp], 0
	jge	SHORT $LN11@uprv_conve@2
; Line 1100
	mov	eax, DWORD PTR _mid$[ebp]
	mov	DWORD PTR _high$[ebp], eax
	jmp	SHORT $LN10@uprv_conve@2
$LN11@uprv_conve@2:
; Line 1102
	cmp	DWORD PTR _compVal$[ebp], 0
	jle	SHORT $LN9@uprv_conve@2
; Line 1103
	mov	eax, DWORD PTR _mid$[ebp]
	mov	DWORD PTR _low$[ebp], eax
; Line 1105
	jmp	SHORT $LN10@uprv_conve@2
$LN9@uprv_conve@2:
; Line 1106
	mov	eax, DWORD PTR _status$[ebp]
	push	eax
	mov	ecx, DWORD PTR _posixID$[ebp]
	push	ecx
	mov	edx, DWORD PTR _mid$[ebp]
	lea	eax, DWORD PTR _gPosixIDmap[edx*8]
	push	eax
	call	_getHostID
	add	esp, 12					; 0000000cH
	jmp	$LN17@uprv_conve@2
$LN10@uprv_conve@2:
; Line 1108
	mov	eax, DWORD PTR _mid$[ebp]
	mov	DWORD PTR _oldmid$[ebp], eax
; Line 1109
	jmp	SHORT $LN14@uprv_conve@2
$LN13@uprv_conve@2:
; Line 1115
	mov	DWORD PTR _idx$[ebp], 0
	jmp	SHORT $LN7@uprv_conve@2
$LN6@uprv_conve@2:
	mov	eax, DWORD PTR _idx$[ebp]
	add	eax, 1
	mov	DWORD PTR _idx$[ebp], eax
$LN7@uprv_conve@2:
	mov	eax, DWORD PTR _idx$[ebp]
	cmp	eax, DWORD PTR _gLocaleCount
	jae	SHORT $LN5@uprv_conve@2
; Line 1116
	mov	DWORD PTR _myStatus$[ebp], 0
; Line 1117
	lea	eax, DWORD PTR _myStatus$[ebp]
	push	eax
	mov	ecx, DWORD PTR _posixID$[ebp]
	push	ecx
	mov	edx, DWORD PTR _idx$[ebp]
	lea	eax, DWORD PTR _gPosixIDmap[edx*8]
	push	eax
	call	_getHostID
	add	esp, 12					; 0000000cH
	mov	DWORD PTR _value$[ebp], eax
; Line 1118
	cmp	DWORD PTR _myStatus$[ebp], 0
	jne	SHORT $LN4@uprv_conve@2
; Line 1119
	mov	eax, DWORD PTR _value$[ebp]
	jmp	SHORT $LN17@uprv_conve@2
	jmp	SHORT $LN3@uprv_conve@2
$LN4@uprv_conve@2:
; Line 1121
	cmp	DWORD PTR _myStatus$[ebp], -128		; ffffff80H
	jne	SHORT $LN3@uprv_conve@2
; Line 1122
	mov	eax, DWORD PTR _value$[ebp]
	mov	DWORD PTR _fallbackValue$[ebp], eax
$LN3@uprv_conve@2:
; Line 1124
	jmp	SHORT $LN6@uprv_conve@2
$LN5@uprv_conve@2:
; Line 1126
	cmp	DWORD PTR _fallbackValue$[ebp], -1
	je	SHORT $LN1@uprv_conve@2
; Line 1127
	mov	eax, DWORD PTR _status$[ebp]
	mov	DWORD PTR [eax], -128			; ffffff80H
; Line 1128
	mov	eax, DWORD PTR _fallbackValue$[ebp]
	jmp	SHORT $LN17@uprv_conve@2
$LN1@uprv_conve@2:
; Line 1132
	mov	eax, DWORD PTR _status$[ebp]
	mov	DWORD PTR [eax], 1
; Line 1133
	xor	eax, eax
$LN17@uprv_conve@2:
; Line 1134
	push	edx
	mov	ecx, ebp
	push	eax
	lea	edx, DWORD PTR $LN21@uprv_conve@2
	call	@_RTC_CheckStackVars@8
	pop	eax
	pop	edx
	pop	edi
	pop	esi
	pop	ebx
	add	esp, 300				; 0000012cH
	cmp	ebp, esp
	call	__RTC_CheckEsp
	mov	esp, ebp
	pop	ebp
	ret	0
	npad	2
$LN21@uprv_conve@2:
	DD	1
	DD	$LN20@uprv_conve@2
$LN20@uprv_conve@2:
	DD	-92					; ffffffa4H
	DD	4
	DD	$LN19@uprv_conve@2
$LN19@uprv_conve@2:
	DB	109					; 0000006dH
	DB	121					; 00000079H
	DB	83					; 00000053H
	DB	116					; 00000074H
	DB	97					; 00000061H
	DB	116					; 00000074H
	DB	117					; 00000075H
	DB	115					; 00000073H
	DB	0
_uprv_convertToLCID_56 ENDP
; Function compile flags: /Odtp /RTCsu /ZI
_TEXT	ENDS
;	COMDAT _getHostID
_TEXT	SEGMENT
_sameChars$107719 = -56					; size = 4
_idx$ = -44						; size = 4
_posixIDlen$ = -32					; size = 4
_bestIdxDiff$ = -20					; size = 4
_bestIdx$ = -8						; size = 4
_this_0$ = 8						; size = 4
_posixID$ = 12						; size = 4
_status$ = 16						; size = 4
_getHostID PROC						; COMDAT
; Line 906
	push	ebp
	mov	ebp, esp
	sub	esp, 252				; 000000fcH
	push	ebx
	push	esi
	push	edi
	lea	edi, DWORD PTR [ebp-252]
	mov	ecx, 63					; 0000003fH
	mov	eax, -858993460				; ccccccccH
	rep stosd
; Line 907
	mov	DWORD PTR _bestIdx$[ebp], 0
; Line 908
	mov	DWORD PTR _bestIdxDiff$[ebp], 0
; Line 909
	mov	eax, DWORD PTR _posixID$[ebp]
	push	eax
	call	_strlen
	add	esp, 4
	mov	DWORD PTR _posixIDlen$[ebp], eax
; Line 912
	mov	DWORD PTR _idx$[ebp], 0
	jmp	SHORT $LN7@getHostID
$LN6@getHostID:
	mov	eax, DWORD PTR _idx$[ebp]
	add	eax, 1
	mov	DWORD PTR _idx$[ebp], eax
$LN7@getHostID:
	mov	eax, DWORD PTR _this_0$[ebp]
	mov	ecx, DWORD PTR _idx$[ebp]
	cmp	ecx, DWORD PTR [eax]
	jae	SHORT $LN5@getHostID
; Line 913
	mov	eax, DWORD PTR _this_0$[ebp]
	mov	ecx, DWORD PTR [eax+4]
	mov	edx, DWORD PTR _idx$[ebp]
	mov	eax, DWORD PTR [ecx+edx*8+4]
	push	eax
	mov	ecx, DWORD PTR _posixID$[ebp]
	push	ecx
	call	_idCmp
	add	esp, 8
	mov	DWORD PTR _sameChars$107719[ebp], eax
; Line 914
	mov	eax, DWORD PTR _sameChars$107719[ebp]
	cmp	eax, DWORD PTR _bestIdxDiff$[ebp]
	jle	SHORT $LN4@getHostID
	mov	eax, DWORD PTR _this_0$[ebp]
	mov	ecx, DWORD PTR [eax+4]
	mov	edx, DWORD PTR _idx$[ebp]
	mov	eax, DWORD PTR [ecx+edx*8+4]
	mov	ecx, DWORD PTR _sameChars$107719[ebp]
	movsx	edx, BYTE PTR [eax+ecx]
	test	edx, edx
	jne	SHORT $LN4@getHostID
; Line 915
	mov	eax, DWORD PTR _posixIDlen$[ebp]
	cmp	eax, DWORD PTR _sameChars$107719[ebp]
	jne	SHORT $LN3@getHostID
; Line 917
	mov	eax, DWORD PTR _this_0$[ebp]
	mov	ecx, DWORD PTR [eax+4]
	mov	edx, DWORD PTR _idx$[ebp]
	mov	eax, DWORD PTR [ecx+edx*8]
	jmp	SHORT $LN8@getHostID
$LN3@getHostID:
; Line 919
	mov	eax, DWORD PTR _sameChars$107719[ebp]
	mov	DWORD PTR _bestIdxDiff$[ebp], eax
; Line 920
	mov	eax, DWORD PTR _idx$[ebp]
	mov	DWORD PTR _bestIdx$[ebp], eax
$LN4@getHostID:
; Line 922
	jmp	SHORT $LN6@getHostID
$LN5@getHostID:
; Line 926
	mov	eax, DWORD PTR _posixID$[ebp]
	add	eax, DWORD PTR _bestIdxDiff$[ebp]
	movsx	ecx, BYTE PTR [eax]
	cmp	ecx, 95					; 0000005fH
	je	SHORT $LN1@getHostID
	mov	eax, DWORD PTR _posixID$[ebp]
	add	eax, DWORD PTR _bestIdxDiff$[ebp]
	movsx	ecx, BYTE PTR [eax]
	cmp	ecx, 64					; 00000040H
	jne	SHORT $LN2@getHostID
$LN1@getHostID:
	mov	eax, DWORD PTR _this_0$[ebp]
	mov	ecx, DWORD PTR [eax+4]
	mov	edx, DWORD PTR _bestIdx$[ebp]
	mov	eax, DWORD PTR [ecx+edx*8+4]
	mov	ecx, DWORD PTR _bestIdxDiff$[ebp]
	movsx	edx, BYTE PTR [eax+ecx]
	test	edx, edx
	jne	SHORT $LN2@getHostID
; Line 928
	mov	eax, DWORD PTR _status$[ebp]
	mov	DWORD PTR [eax], -128			; ffffff80H
; Line 929
	mov	eax, DWORD PTR _this_0$[ebp]
	mov	ecx, DWORD PTR [eax+4]
	mov	edx, DWORD PTR _bestIdx$[ebp]
	mov	eax, DWORD PTR [ecx+edx*8]
	jmp	SHORT $LN8@getHostID
$LN2@getHostID:
; Line 933
	mov	eax, DWORD PTR _status$[ebp]
	mov	DWORD PTR [eax], 1
; Line 934
	mov	eax, DWORD PTR _this_0$[ebp]
	mov	ecx, DWORD PTR [eax+4]
	mov	eax, DWORD PTR [ecx]
$LN8@getHostID:
; Line 935
	pop	edi
	pop	esi
	pop	ebx
	add	esp, 252				; 000000fcH
	cmp	ebp, esp
	call	__RTC_CheckEsp
	mov	esp, ebp
	pop	ebp
	ret	0
_getHostID ENDP
; Function compile flags: /Odtp /RTCsu /ZI
_TEXT	ENDS
;	COMDAT _idCmp
_TEXT	SEGMENT
_diffIdx$ = -8						; size = 4
_id1$ = 8						; size = 4
_id2$ = 12						; size = 4
_idCmp	PROC						; COMDAT
; Line 886
	push	ebp
	mov	ebp, esp
	sub	esp, 204				; 000000ccH
	push	ebx
	push	esi
	push	edi
	lea	edi, DWORD PTR [ebp-204]
	mov	ecx, 51					; 00000033H
	mov	eax, -858993460				; ccccccccH
	rep stosd
; Line 887
	mov	DWORD PTR _diffIdx$[ebp], 0
$LN2@idCmp:
; Line 888
	mov	eax, DWORD PTR _id1$[ebp]
	movsx	ecx, BYTE PTR [eax]
	mov	edx, DWORD PTR _id2$[ebp]
	movsx	eax, BYTE PTR [edx]
	cmp	ecx, eax
	jne	SHORT $LN1@idCmp
	mov	eax, DWORD PTR _id1$[ebp]
	movsx	ecx, BYTE PTR [eax]
	test	ecx, ecx
	je	SHORT $LN1@idCmp
; Line 889
	mov	eax, DWORD PTR _diffIdx$[ebp]
	add	eax, 1
	mov	DWORD PTR _diffIdx$[ebp], eax
; Line 890
	mov	eax, DWORD PTR _id1$[ebp]
	add	eax, 1
	mov	DWORD PTR _id1$[ebp], eax
; Line 891
	mov	eax, DWORD PTR _id2$[ebp]
	add	eax, 1
	mov	DWORD PTR _id2$[ebp], eax
; Line 892
	jmp	SHORT $LN2@idCmp
$LN1@idCmp:
; Line 893
	mov	eax, DWORD PTR _diffIdx$[ebp]
; Line 894
	pop	edi
	pop	esi
	pop	ebx
	mov	esp, ebp
	pop	ebp
	ret	0
_idCmp	ENDP
_TEXT	ENDS
END
