; Listing generated by Microsoft (R) Optimizing Compiler Version 16.00.40219.01 

	TITLE	D:\mozilla\intl\icu\source\common\ucln_cmn.cpp
	.686P
	.XMM
	include listing.inc
	.model	flat

INCLUDELIB MSVCRTD
INCLUDELIB OLDNAMES

PUBLIC	??2@YAPAXI@Z					; operator new
EXTRN	__RTC_Shutdown:PROC
EXTRN	__RTC_InitBase:PROC
;	COMDAT rtc$TMZ
; File d:\mozilla\intl\icu\source\common\unicode\utypes.h
rtc$TMZ	SEGMENT
__RTC_Shutdown.rtc$TMZ DD FLAT:__RTC_Shutdown
rtc$TMZ	ENDS
;	COMDAT rtc$IMZ
rtc$IMZ	SEGMENT
__RTC_InitBase.rtc$IMZ DD FLAT:__RTC_InitBase
; Function compile flags: /Odtp /RTCsu /ZI
rtc$IMZ	ENDS
;	COMDAT ??2@YAPAXI@Z
_TEXT	SEGMENT
_q$ = -8						; size = 4
___formal$ = 8						; size = 4
??2@YAPAXI@Z PROC					; operator new, COMDAT
; Line 411
	push	ebp
	mov	ebp, esp
	sub	esp, 204				; 000000ccH
	push	ebx
	push	esi
	push	edi
	lea	edi, DWORD PTR [ebp-204]
	mov	ecx, 51					; 00000033H
	mov	eax, -858993460				; ccccccccH
	rep stosd
; Line 412
	mov	DWORD PTR _q$[ebp], 0
; Line 413
	mov	eax, DWORD PTR _q$[ebp]
	mov	BYTE PTR [eax], 5
; Line 414
	mov	eax, DWORD PTR _q$[ebp]
; Line 415
	pop	edi
	pop	esi
	pop	ebx
	mov	esp, ebp
	pop	ebp
	ret	0
??2@YAPAXI@Z ENDP					; operator new
_TEXT	ENDS
PUBLIC	??3@YAXPAX@Z					; operator delete
; Function compile flags: /Odtp /RTCsu /ZI
;	COMDAT ??3@YAXPAX@Z
_TEXT	SEGMENT
_q$ = -8						; size = 4
___formal$ = 8						; size = 4
??3@YAXPAX@Z PROC					; operator delete, COMDAT
; Line 439
	push	ebp
	mov	ebp, esp
	sub	esp, 204				; 000000ccH
	push	ebx
	push	esi
	push	edi
	lea	edi, DWORD PTR [ebp-204]
	mov	ecx, 51					; 00000033H
	mov	eax, -858993460				; ccccccccH
	rep stosd
; Line 440
	mov	DWORD PTR _q$[ebp], 0
; Line 441
	mov	eax, DWORD PTR _q$[ebp]
	mov	BYTE PTR [eax], 5
; Line 442
	pop	edi
	pop	esi
	pop	ebx
	mov	esp, ebp
	pop	ebp
	ret	0
??3@YAXPAX@Z ENDP					; operator delete
_TEXT	ENDS
PUBLIC	??2UMemory@icu_56@@SAPAXIPAX@Z			; icu_56::UMemory::operator new
; Function compile flags: /Odtp /RTCsu /ZI
;	COMDAT ??2UMemory@icu_56@@SAPAXIPAX@Z
_TEXT	SEGMENT
___formal$ = 8						; size = 4
_ptr$ = 12						; size = 4
??2UMemory@icu_56@@SAPAXIPAX@Z PROC			; icu_56::UMemory::operator new, COMDAT
; File d:\mozilla\intl\icu\source\common\unicode\uobject.h
; Line 161
	push	ebp
	mov	ebp, esp
	sub	esp, 192				; 000000c0H
	push	ebx
	push	esi
	push	edi
	lea	edi, DWORD PTR [ebp-192]
	mov	ecx, 48					; 00000030H
	mov	eax, -858993460				; ccccccccH
	rep stosd
	mov	eax, DWORD PTR _ptr$[ebp]
	pop	edi
	pop	esi
	pop	ebx
	mov	esp, ebp
	pop	ebp
	ret	0
??2UMemory@icu_56@@SAPAXIPAX@Z ENDP			; icu_56::UMemory::operator new
_TEXT	ENDS
PUBLIC	??3UMemory@icu_56@@SAXPAX0@Z			; icu_56::UMemory::operator delete
; Function compile flags: /Odtp /RTCsu /ZI
;	COMDAT ??3UMemory@icu_56@@SAXPAX0@Z
_TEXT	SEGMENT
___formal$ = 8						; size = 4
___formal$ = 12						; size = 4
??3UMemory@icu_56@@SAXPAX0@Z PROC			; icu_56::UMemory::operator delete, COMDAT
; Line 168
	push	ebp
	mov	ebp, esp
	sub	esp, 192				; 000000c0H
	push	ebx
	push	esi
	push	edi
	lea	edi, DWORD PTR [ebp-192]
	mov	ecx, 48					; 00000030H
	mov	eax, -858993460				; ccccccccH
	rep stosd
	pop	edi
	pop	esi
	pop	ebx
	mov	esp, ebp
	pop	ebp
	ret	0
??3UMemory@icu_56@@SAXPAX0@Z ENDP			; icu_56::UMemory::operator delete
_TEXT	ENDS
PUBLIC	??4UMemory@icu_56@@QAEAAV01@ABV01@@Z		; icu_56::UMemory::operator=
; Function compile flags: /Odtp /RTCsu /ZI
;	COMDAT ??4UMemory@icu_56@@QAEAAV01@ABV01@@Z
_TEXT	SEGMENT
_this$ = -8						; size = 4
___that$ = 8						; size = 4
??4UMemory@icu_56@@QAEAAV01@ABV01@@Z PROC		; icu_56::UMemory::operator=, COMDAT
; _this$ = ecx
	push	ebp
	mov	ebp, esp
	sub	esp, 204				; 000000ccH
	push	ebx
	push	esi
	push	edi
	push	ecx
	lea	edi, DWORD PTR [ebp-204]
	mov	ecx, 51					; 00000033H
	mov	eax, -858993460				; ccccccccH
	rep stosd
	pop	ecx
	mov	DWORD PTR _this$[ebp], ecx
	mov	eax, DWORD PTR _this$[ebp]
	pop	edi
	pop	esi
	pop	ebx
	mov	esp, ebp
	pop	ebp
	ret	4
??4UMemory@icu_56@@QAEAAV01@ABV01@@Z ENDP		; icu_56::UMemory::operator=
_TEXT	ENDS
PUBLIC	??_7UObject@icu_56@@6B@				; icu_56::UObject::`vftable'
PUBLIC	??0UObject@icu_56@@QAE@XZ			; icu_56::UObject::UObject
PUBLIC	??_R4UObject@icu_56@@6B@			; icu_56::UObject::`RTTI Complete Object Locator'
PUBLIC	??_R0?AVUObject@icu_56@@@8			; icu_56::UObject `RTTI Type Descriptor'
PUBLIC	??_R3UObject@icu_56@@8				; icu_56::UObject::`RTTI Class Hierarchy Descriptor'
PUBLIC	??_R2UObject@icu_56@@8				; icu_56::UObject::`RTTI Base Class Array'
PUBLIC	??_R1A@?0A@EA@UObject@icu_56@@8			; icu_56::UObject::`RTTI Base Class Descriptor at (0,-1,0,64)'
PUBLIC	??_R13?0A@EA@UMemory@icu_56@@8			; icu_56::UMemory::`RTTI Base Class Descriptor at (4,-1,0,64)'
PUBLIC	??_R0?AVUMemory@icu_56@@@8			; icu_56::UMemory `RTTI Type Descriptor'
PUBLIC	??_R3UMemory@icu_56@@8				; icu_56::UMemory::`RTTI Class Hierarchy Descriptor'
PUBLIC	??_R2UMemory@icu_56@@8				; icu_56::UMemory::`RTTI Base Class Array'
PUBLIC	??_R1A@?0A@EA@UMemory@icu_56@@8			; icu_56::UMemory::`RTTI Base Class Descriptor at (0,-1,0,64)'
PUBLIC	??_EUObject@icu_56@@UAEPAXI@Z			; icu_56::UObject::`vector deleting destructor'
EXTRN	??_7type_info@@6B@:QWORD			; type_info::`vftable'
EXTRN	?getDynamicClassID@UObject@icu_56@@UBEPAXXZ:PROC ; icu_56::UObject::getDynamicClassID
;	COMDAT ??_R1A@?0A@EA@UMemory@icu_56@@8
rdata$r	SEGMENT
??_R1A@?0A@EA@UMemory@icu_56@@8 DD FLAT:??_R0?AVUMemory@icu_56@@@8 ; icu_56::UMemory::`RTTI Base Class Descriptor at (0,-1,0,64)'
	DD	00H
	DD	00H
	DD	0ffffffffH
	DD	00H
	DD	040H
	DD	FLAT:??_R3UMemory@icu_56@@8
rdata$r	ENDS
;	COMDAT ??_R2UMemory@icu_56@@8
rdata$r	SEGMENT
??_R2UMemory@icu_56@@8 DD FLAT:??_R1A@?0A@EA@UMemory@icu_56@@8 ; icu_56::UMemory::`RTTI Base Class Array'
rdata$r	ENDS
;	COMDAT ??_R3UMemory@icu_56@@8
rdata$r	SEGMENT
??_R3UMemory@icu_56@@8 DD 00H				; icu_56::UMemory::`RTTI Class Hierarchy Descriptor'
	DD	00H
	DD	01H
	DD	FLAT:??_R2UMemory@icu_56@@8
rdata$r	ENDS
;	COMDAT ??_R0?AVUMemory@icu_56@@@8
_DATA	SEGMENT
??_R0?AVUMemory@icu_56@@@8 DD FLAT:??_7type_info@@6B@	; icu_56::UMemory `RTTI Type Descriptor'
	DD	00H
	DB	'.?AVUMemory@icu_56@@', 00H
_DATA	ENDS
;	COMDAT ??_R13?0A@EA@UMemory@icu_56@@8
rdata$r	SEGMENT
??_R13?0A@EA@UMemory@icu_56@@8 DD FLAT:??_R0?AVUMemory@icu_56@@@8 ; icu_56::UMemory::`RTTI Base Class Descriptor at (4,-1,0,64)'
	DD	00H
	DD	04H
	DD	0ffffffffH
	DD	00H
	DD	040H
	DD	FLAT:??_R3UMemory@icu_56@@8
rdata$r	ENDS
;	COMDAT ??_R1A@?0A@EA@UObject@icu_56@@8
rdata$r	SEGMENT
??_R1A@?0A@EA@UObject@icu_56@@8 DD FLAT:??_R0?AVUObject@icu_56@@@8 ; icu_56::UObject::`RTTI Base Class Descriptor at (0,-1,0,64)'
	DD	01H
	DD	00H
	DD	0ffffffffH
	DD	00H
	DD	040H
	DD	FLAT:??_R3UObject@icu_56@@8
rdata$r	ENDS
;	COMDAT ??_R2UObject@icu_56@@8
rdata$r	SEGMENT
??_R2UObject@icu_56@@8 DD FLAT:??_R1A@?0A@EA@UObject@icu_56@@8 ; icu_56::UObject::`RTTI Base Class Array'
	DD	FLAT:??_R13?0A@EA@UMemory@icu_56@@8
rdata$r	ENDS
;	COMDAT ??_R3UObject@icu_56@@8
rdata$r	SEGMENT
??_R3UObject@icu_56@@8 DD 00H				; icu_56::UObject::`RTTI Class Hierarchy Descriptor'
	DD	00H
	DD	02H
	DD	FLAT:??_R2UObject@icu_56@@8
rdata$r	ENDS
;	COMDAT ??_R0?AVUObject@icu_56@@@8
_DATA	SEGMENT
??_R0?AVUObject@icu_56@@@8 DD FLAT:??_7type_info@@6B@	; icu_56::UObject `RTTI Type Descriptor'
	DD	00H
	DB	'.?AVUObject@icu_56@@', 00H
_DATA	ENDS
;	COMDAT ??_R4UObject@icu_56@@6B@
rdata$r	SEGMENT
??_R4UObject@icu_56@@6B@ DD 00H				; icu_56::UObject::`RTTI Complete Object Locator'
	DD	00H
	DD	00H
	DD	FLAT:??_R0?AVUObject@icu_56@@@8
	DD	FLAT:??_R3UObject@icu_56@@8
rdata$r	ENDS
;	COMDAT ??_7UObject@icu_56@@6B@
CONST	SEGMENT
??_7UObject@icu_56@@6B@ DD FLAT:??_R4UObject@icu_56@@6B@ ; icu_56::UObject::`vftable'
	DD	FLAT:??_EUObject@icu_56@@UAEPAXI@Z
	DD	FLAT:?getDynamicClassID@UObject@icu_56@@UBEPAXXZ
; Function compile flags: /Odtp /RTCsu /ZI
CONST	ENDS
;	COMDAT ??0UObject@icu_56@@QAE@XZ
_TEXT	SEGMENT
_this$ = -8						; size = 4
??0UObject@icu_56@@QAE@XZ PROC				; icu_56::UObject::UObject, COMDAT
; _this$ = ecx
	push	ebp
	mov	ebp, esp
	sub	esp, 204				; 000000ccH
	push	ebx
	push	esi
	push	edi
	push	ecx
	lea	edi, DWORD PTR [ebp-204]
	mov	ecx, 51					; 00000033H
	mov	eax, -858993460				; ccccccccH
	rep stosd
	pop	ecx
	mov	DWORD PTR _this$[ebp], ecx
	mov	eax, DWORD PTR _this$[ebp]
	mov	DWORD PTR [eax], OFFSET ??_7UObject@icu_56@@6B@
	mov	eax, DWORD PTR _this$[ebp]
	pop	edi
	pop	esi
	pop	ebx
	mov	esp, ebp
	pop	ebp
	ret	0
??0UObject@icu_56@@QAE@XZ ENDP				; icu_56::UObject::UObject
_TEXT	ENDS
PUBLIC	??0UObject@icu_56@@QAE@ABV01@@Z			; icu_56::UObject::UObject
; Function compile flags: /Odtp /RTCsu /ZI
;	COMDAT ??0UObject@icu_56@@QAE@ABV01@@Z
_TEXT	SEGMENT
tv68 = -208						; size = 4
_this$ = -8						; size = 4
___that$ = 8						; size = 4
??0UObject@icu_56@@QAE@ABV01@@Z PROC			; icu_56::UObject::UObject, COMDAT
; _this$ = ecx
	push	ebp
	mov	ebp, esp
	sub	esp, 208				; 000000d0H
	push	ebx
	push	esi
	push	edi
	push	ecx
	lea	edi, DWORD PTR [ebp-208]
	mov	ecx, 52					; 00000034H
	mov	eax, -858993460				; ccccccccH
	rep stosd
	pop	ecx
	mov	DWORD PTR _this$[ebp], ecx
	cmp	DWORD PTR ___that$[ebp], 0
	je	SHORT $LN3@UObject
	mov	eax, DWORD PTR ___that$[ebp]
	add	eax, 4
	mov	DWORD PTR tv68[ebp], eax
	jmp	SHORT $LN4@UObject
$LN3@UObject:
	mov	DWORD PTR tv68[ebp], 0
$LN4@UObject:
	mov	eax, DWORD PTR _this$[ebp]
	mov	DWORD PTR [eax], OFFSET ??_7UObject@icu_56@@6B@
	mov	eax, DWORD PTR _this$[ebp]
	pop	edi
	pop	esi
	pop	ebx
	mov	esp, ebp
	pop	ebp
	ret	4
??0UObject@icu_56@@QAE@ABV01@@Z ENDP			; icu_56::UObject::UObject
_TEXT	ENDS
PUBLIC	??4UObject@icu_56@@QAEAAV01@ABV01@@Z		; icu_56::UObject::operator=
; Function compile flags: /Odtp /RTCsu /ZI
;	COMDAT ??4UObject@icu_56@@QAEAAV01@ABV01@@Z
_TEXT	SEGMENT
_this$ = -8						; size = 4
___that$ = 8						; size = 4
??4UObject@icu_56@@QAEAAV01@ABV01@@Z PROC		; icu_56::UObject::operator=, COMDAT
; _this$ = ecx
	push	ebp
	mov	ebp, esp
	sub	esp, 204				; 000000ccH
	push	ebx
	push	esi
	push	edi
	push	ecx
	lea	edi, DWORD PTR [ebp-204]
	mov	ecx, 51					; 00000033H
	mov	eax, -858993460				; ccccccccH
	rep stosd
	pop	ecx
	mov	DWORD PTR _this$[ebp], ecx
	mov	eax, DWORD PTR _this$[ebp]
	pop	edi
	pop	esi
	pop	ebx
	mov	esp, ebp
	pop	ebp
	ret	4
??4UObject@icu_56@@QAEAAV01@ABV01@@Z ENDP		; icu_56::UObject::operator=
_TEXT	ENDS
PUBLIC	??_GUObject@icu_56@@UAEPAXI@Z			; icu_56::UObject::`scalar deleting destructor'
EXTRN	??3UMemory@icu_56@@SAXPAX@Z:PROC		; icu_56::UMemory::operator delete
EXTRN	??1UObject@icu_56@@UAE@XZ:PROC			; icu_56::UObject::~UObject
EXTRN	__RTC_CheckEsp:PROC
; Function compile flags: /Odtp /RTCsu /ZI
;	COMDAT ??_GUObject@icu_56@@UAEPAXI@Z
_TEXT	SEGMENT
_this$ = -8						; size = 4
___flags$ = 8						; size = 4
??_GUObject@icu_56@@UAEPAXI@Z PROC			; icu_56::UObject::`scalar deleting destructor', COMDAT
; _this$ = ecx
	push	ebp
	mov	ebp, esp
	sub	esp, 204				; 000000ccH
	push	ebx
	push	esi
	push	edi
	push	ecx
	lea	edi, DWORD PTR [ebp-204]
	mov	ecx, 51					; 00000033H
	mov	eax, -858993460				; ccccccccH
	rep stosd
	pop	ecx
	mov	DWORD PTR _this$[ebp], ecx
	mov	ecx, DWORD PTR _this$[ebp]
	call	??1UObject@icu_56@@UAE@XZ		; icu_56::UObject::~UObject
	mov	eax, DWORD PTR ___flags$[ebp]
	and	eax, 1
	je	SHORT $LN1@scalar
	mov	eax, DWORD PTR _this$[ebp]
	push	eax
	call	??3UMemory@icu_56@@SAXPAX@Z		; icu_56::UMemory::operator delete
	add	esp, 4
$LN1@scalar:
	mov	eax, DWORD PTR _this$[ebp]
	pop	edi
	pop	esi
	pop	ebx
	add	esp, 204				; 000000ccH
	cmp	ebp, esp
	call	__RTC_CheckEsp
	mov	esp, ebp
	pop	ebp
	ret	4
??_GUObject@icu_56@@UAEPAXI@Z ENDP			; icu_56::UObject::`scalar deleting destructor'
_TEXT	ENDS
EXTRN	??_VUMemory@icu_56@@SAXPAX@Z:PROC		; icu_56::UMemory::operator delete[]
EXTRN	??_M@YGXPAXIHP6EX0@Z@Z:PROC			; `eh vector destructor iterator'
; Function compile flags: /Odtp /RTCsu /ZI
;	COMDAT ??_EUObject@icu_56@@UAEPAXI@Z
_TEXT	SEGMENT
_this$ = -8						; size = 4
___flags$ = 8						; size = 4
??_EUObject@icu_56@@UAEPAXI@Z PROC			; icu_56::UObject::`vector deleting destructor', COMDAT
; _this$ = ecx
	push	ebp
	mov	ebp, esp
	sub	esp, 204				; 000000ccH
	push	ebx
	push	esi
	push	edi
	push	ecx
	lea	edi, DWORD PTR [ebp-204]
	mov	ecx, 51					; 00000033H
	mov	eax, -858993460				; ccccccccH
	rep stosd
	pop	ecx
	mov	DWORD PTR _this$[ebp], ecx
	mov	eax, DWORD PTR ___flags$[ebp]
	and	eax, 2
	je	SHORT $LN3@vector
	push	OFFSET ??1UObject@icu_56@@UAE@XZ	; icu_56::UObject::~UObject
	mov	eax, DWORD PTR _this$[ebp]
	mov	ecx, DWORD PTR [eax-4]
	push	ecx
	push	4
	mov	edx, DWORD PTR _this$[ebp]
	push	edx
	call	??_M@YGXPAXIHP6EX0@Z@Z
	mov	eax, DWORD PTR ___flags$[ebp]
	and	eax, 1
	je	SHORT $LN2@vector
	mov	eax, DWORD PTR _this$[ebp]
	sub	eax, 4
	push	eax
	call	??_VUMemory@icu_56@@SAXPAX@Z		; icu_56::UMemory::operator delete[]
	add	esp, 4
$LN2@vector:
	mov	eax, DWORD PTR _this$[ebp]
	sub	eax, 4
	jmp	SHORT $LN4@vector
$LN3@vector:
	mov	ecx, DWORD PTR _this$[ebp]
	call	??1UObject@icu_56@@UAE@XZ		; icu_56::UObject::~UObject
	mov	eax, DWORD PTR ___flags$[ebp]
	and	eax, 1
	je	SHORT $LN1@vector
	mov	eax, DWORD PTR _this$[ebp]
	push	eax
	call	??3UMemory@icu_56@@SAXPAX@Z		; icu_56::UMemory::operator delete
	add	esp, 4
$LN1@vector:
	mov	eax, DWORD PTR _this$[ebp]
$LN4@vector:
	pop	edi
	pop	esi
	pop	ebx
	add	esp, 204				; 000000ccH
	cmp	ebp, esp
	call	__RTC_CheckEsp
	mov	esp, ebp
	pop	ebp
	ret	4
??_EUObject@icu_56@@UAEPAXI@Z ENDP			; icu_56::UObject::`vector deleting destructor'
_TEXT	ENDS
PUBLIC	??0Mutex@icu_56@@QAE@PAUUMutex@@@Z		; icu_56::Mutex::Mutex
PUBLIC	??_FMutex@icu_56@@QAEXXZ			; icu_56::Mutex::`default constructor closure'
; Function compile flags: /Odtp /RTCsu /ZI
;	COMDAT ??_FMutex@icu_56@@QAEXXZ
_TEXT	SEGMENT
_this$ = -8						; size = 4
??_FMutex@icu_56@@QAEXXZ PROC				; icu_56::Mutex::`default constructor closure', COMDAT
; _this$ = ecx
	push	ebp
	mov	ebp, esp
	sub	esp, 204				; 000000ccH
	push	ebx
	push	esi
	push	edi
	push	ecx
	lea	edi, DWORD PTR [ebp-204]
	mov	ecx, 51					; 00000033H
	mov	eax, -858993460				; ccccccccH
	rep stosd
	pop	ecx
	mov	DWORD PTR _this$[ebp], ecx
	push	0
	mov	ecx, DWORD PTR _this$[ebp]
	call	??0Mutex@icu_56@@QAE@PAUUMutex@@@Z	; icu_56::Mutex::Mutex
	pop	edi
	pop	esi
	pop	ebx
	add	esp, 204				; 000000ccH
	cmp	ebp, esp
	call	__RTC_CheckEsp
	mov	esp, ebp
	pop	ebp
	ret	0
??_FMutex@icu_56@@QAEXXZ ENDP				; icu_56::Mutex::`default constructor closure'
_TEXT	ENDS
EXTRN	_umtx_lock_56:PROC
; Function compile flags: /Odtp /RTCsu /ZI
;	COMDAT ??0Mutex@icu_56@@QAE@PAUUMutex@@@Z
_TEXT	SEGMENT
_this$ = -8						; size = 4
_mutex$ = 8						; size = 4
??0Mutex@icu_56@@QAE@PAUUMutex@@@Z PROC			; icu_56::Mutex::Mutex, COMDAT
; _this$ = ecx
; File d:\mozilla\intl\icu\source\common\mutex.h
; Line 65
	push	ebp
	mov	ebp, esp
	sub	esp, 204				; 000000ccH
	push	ebx
	push	esi
	push	edi
	push	ecx
	lea	edi, DWORD PTR [ebp-204]
	mov	ecx, 51					; 00000033H
	mov	eax, -858993460				; ccccccccH
	rep stosd
	pop	ecx
	mov	DWORD PTR _this$[ebp], ecx
	mov	eax, DWORD PTR _this$[ebp]
	mov	ecx, DWORD PTR _mutex$[ebp]
	mov	DWORD PTR [eax], ecx
; Line 66
	mov	eax, DWORD PTR _this$[ebp]
	mov	ecx, DWORD PTR [eax]
	push	ecx
	call	_umtx_lock_56
	add	esp, 4
; Line 67
	mov	eax, DWORD PTR _this$[ebp]
	pop	edi
	pop	esi
	pop	ebx
	add	esp, 204				; 000000ccH
	cmp	ebp, esp
	call	__RTC_CheckEsp
	mov	esp, ebp
	pop	ebp
	ret	4
??0Mutex@icu_56@@QAE@PAUUMutex@@@Z ENDP			; icu_56::Mutex::Mutex
_TEXT	ENDS
PUBLIC	??1Mutex@icu_56@@QAE@XZ				; icu_56::Mutex::~Mutex
EXTRN	_umtx_unlock_56:PROC
; Function compile flags: /Odtp /RTCsu /ZI
;	COMDAT ??1Mutex@icu_56@@QAE@XZ
_TEXT	SEGMENT
_this$ = -8						; size = 4
??1Mutex@icu_56@@QAE@XZ PROC				; icu_56::Mutex::~Mutex, COMDAT
; _this$ = ecx
; Line 70
	push	ebp
	mov	ebp, esp
	sub	esp, 204				; 000000ccH
	push	ebx
	push	esi
	push	edi
	push	ecx
	lea	edi, DWORD PTR [ebp-204]
	mov	ecx, 51					; 00000033H
	mov	eax, -858993460				; ccccccccH
	rep stosd
	pop	ecx
	mov	DWORD PTR _this$[ebp], ecx
; Line 71
	mov	eax, DWORD PTR _this$[ebp]
	mov	ecx, DWORD PTR [eax]
	push	ecx
	call	_umtx_unlock_56
	add	esp, 4
; Line 72
	pop	edi
	pop	esi
	pop	ebx
	add	esp, 204				; 000000ccH
	cmp	ebp, esp
	call	__RTC_CheckEsp
	mov	esp, ebp
	pop	ebp
	ret	0
??1Mutex@icu_56@@QAE@XZ ENDP				; icu_56::Mutex::~Mutex
_TEXT	ENDS
PUBLIC	_ucln_lib_cleanup_56
PUBLIC	_u_cleanup_56
EXTRN	_utrace_cleanup_56:PROC
EXTRN	_cmemory_cleanup_56:PROC
; Function compile flags: /Odtp /RTCsu /ZI
;	COMDAT _u_cleanup_56
_TEXT	SEGMENT
_u_cleanup_56 PROC					; COMDAT
; File d:\mozilla\intl\icu\source\common\ucln_cmn.cpp
; Line 39
	push	ebp
	mov	ebp, esp
	sub	esp, 192				; 000000c0H
	push	ebx
	push	esi
	push	edi
	lea	edi, DWORD PTR [ebp-192]
	mov	ecx, 48					; 00000030H
	mov	eax, -858993460				; ccccccccH
	rep stosd
; Line 41
	push	0
	call	_umtx_lock_56
	add	esp, 4
; Line 42
	push	0
	call	_umtx_unlock_56
	add	esp, 4
; Line 44
	call	_ucln_lib_cleanup_56
; Line 46
	call	_cmemory_cleanup_56
; Line 49
	call	_utrace_cleanup_56
; Line 51
	pop	edi
	pop	esi
	pop	ebx
	add	esp, 192				; 000000c0H
	cmp	ebp, esp
	call	__RTC_CheckEsp
	mov	esp, ebp
	pop	ebp
	ret	0
_u_cleanup_56 ENDP
_TEXT	ENDS
PUBLIC	_ucln_cleanupOne_56
_BSS	SEGMENT
_gLibCleanupFunctions DD 08H DUP (?)
; Function compile flags: /Odtp /RTCsu /ZI
_BSS	ENDS
;	COMDAT _ucln_cleanupOne_56
_TEXT	SEGMENT
_libType$ = 8						; size = 4
_ucln_cleanupOne_56 PROC				; COMDAT
; Line 54
	push	ebp
	mov	ebp, esp
	sub	esp, 192				; 000000c0H
	push	ebx
	push	esi
	push	edi
	lea	edi, DWORD PTR [ebp-192]
	mov	ecx, 48					; 00000030H
	mov	eax, -858993460				; ccccccccH
	rep stosd
; Line 55
	mov	eax, DWORD PTR _libType$[ebp]
	cmp	DWORD PTR _gLibCleanupFunctions[eax*4], 0
	je	SHORT $LN2@ucln_clean
; Line 57
	mov	eax, DWORD PTR _libType$[ebp]
	mov	esi, esp
	mov	ecx, DWORD PTR _gLibCleanupFunctions[eax*4]
	call	ecx
	cmp	esi, esp
	call	__RTC_CheckEsp
; Line 58
	mov	eax, DWORD PTR _libType$[ebp]
	mov	DWORD PTR _gLibCleanupFunctions[eax*4], 0
$LN2@ucln_clean:
; Line 60
	pop	edi
	pop	esi
	pop	ebx
	add	esp, 192				; 000000c0H
	cmp	ebp, esp
	call	__RTC_CheckEsp
	mov	esp, ebp
	pop	ebp
	ret	0
_ucln_cleanupOne_56 ENDP
_TEXT	ENDS
PUBLIC	??_C@_1GK@COKMFEPF@?$AAU?$AAC?$AAL?$AAN?$AA_?$AAC?$AAO?$AAM?$AAM?$AAO?$AAN?$AA_?$AAS?$AAT?$AAA?$AAR?$AAT?$AA?5?$AA?$DM?$AA?5?$AAt?$AAy?$AAp?$AAe?$AA?5?$AA?$CG?$AA?$CG?$AA?5?$AAt?$AAy?$AAp?$AAe@ ; `string'
PUBLIC	??_C@_1FO@ODPPPMLK@?$AAd?$AA?3?$AA?2?$AAm?$AAo?$AAz?$AAi?$AAl?$AAl?$AAa?$AA?2?$AAi?$AAn?$AAt?$AAl?$AA?2?$AAi?$AAc?$AAu?$AA?2?$AAs?$AAo?$AAu?$AAr?$AAc?$AAe?$AA?2?$AAc?$AAo?$AAm?$AAm?$AAo@ ; `string'
PUBLIC	?__LINE__Var@?1??ucln_common_registerCleanup_56@@9@4JA ; `ucln_common_registerCleanup_56'::`2'::__LINE__Var
PUBLIC	_ucln_common_registerCleanup_56
EXTRN	__imp___wassert:PROC
EXTRN	@_RTC_CheckStackVars@8:PROC
_BSS	SEGMENT
_gCommonCleanupFunctions DD 015H DUP (?)
_BSS	ENDS
;	COMDAT ??_C@_1GK@COKMFEPF@?$AAU?$AAC?$AAL?$AAN?$AA_?$AAC?$AAO?$AAM?$AAM?$AAO?$AAN?$AA_?$AAS?$AAT?$AAA?$AAR?$AAT?$AA?5?$AA?$DM?$AA?5?$AAt?$AAy?$AAp?$AAe?$AA?5?$AA?$CG?$AA?$CG?$AA?5?$AAt?$AAy?$AAp?$AAe@
CONST	SEGMENT
??_C@_1GK@COKMFEPF@?$AAU?$AAC?$AAL?$AAN?$AA_?$AAC?$AAO?$AAM?$AAM?$AAO?$AAN?$AA_?$AAS?$AAT?$AAA?$AAR?$AAT?$AA?5?$AA?$DM?$AA?5?$AAt?$AAy?$AAp?$AAe?$AA?5?$AA?$CG?$AA?$CG?$AA?5?$AAt?$AAy?$AAp?$AAe@ DB 'U'
	DB	00H, 'C', 00H, 'L', 00H, 'N', 00H, '_', 00H, 'C', 00H, 'O', 00H
	DB	'M', 00H, 'M', 00H, 'O', 00H, 'N', 00H, '_', 00H, 'S', 00H, 'T'
	DB	00H, 'A', 00H, 'R', 00H, 'T', 00H, ' ', 00H, '<', 00H, ' ', 00H
	DB	't', 00H, 'y', 00H, 'p', 00H, 'e', 00H, ' ', 00H, '&', 00H, '&'
	DB	00H, ' ', 00H, 't', 00H, 'y', 00H, 'p', 00H, 'e', 00H, ' ', 00H
	DB	'<', 00H, ' ', 00H, 'U', 00H, 'C', 00H, 'L', 00H, 'N', 00H, '_'
	DB	00H, 'C', 00H, 'O', 00H, 'M', 00H, 'M', 00H, 'O', 00H, 'N', 00H
	DB	'_', 00H, 'C', 00H, 'O', 00H, 'U', 00H, 'N', 00H, 'T', 00H, 00H
	DB	00H						; `string'
CONST	ENDS
;	COMDAT ??_C@_1FO@ODPPPMLK@?$AAd?$AA?3?$AA?2?$AAm?$AAo?$AAz?$AAi?$AAl?$AAl?$AAa?$AA?2?$AAi?$AAn?$AAt?$AAl?$AA?2?$AAi?$AAc?$AAu?$AA?2?$AAs?$AAo?$AAu?$AAr?$AAc?$AAe?$AA?2?$AAc?$AAo?$AAm?$AAm?$AAo@
CONST	SEGMENT
??_C@_1FO@ODPPPMLK@?$AAd?$AA?3?$AA?2?$AAm?$AAo?$AAz?$AAi?$AAl?$AAl?$AAa?$AA?2?$AAi?$AAn?$AAt?$AAl?$AA?2?$AAi?$AAc?$AAu?$AA?2?$AAs?$AAo?$AAu?$AAr?$AAc?$AAe?$AA?2?$AAc?$AAo?$AAm?$AAm?$AAo@ DB 'd'
	DB	00H, ':', 00H, '\', 00H, 'm', 00H, 'o', 00H, 'z', 00H, 'i', 00H
	DB	'l', 00H, 'l', 00H, 'a', 00H, '\', 00H, 'i', 00H, 'n', 00H, 't'
	DB	00H, 'l', 00H, '\', 00H, 'i', 00H, 'c', 00H, 'u', 00H, '\', 00H
	DB	's', 00H, 'o', 00H, 'u', 00H, 'r', 00H, 'c', 00H, 'e', 00H, '\'
	DB	00H, 'c', 00H, 'o', 00H, 'm', 00H, 'm', 00H, 'o', 00H, 'n', 00H
	DB	'\', 00H, 'u', 00H, 'c', 00H, 'l', 00H, 'n', 00H, '_', 00H, 'c'
	DB	00H, 'm', 00H, 'n', 00H, '.', 00H, 'c', 00H, 'p', 00H, 'p', 00H
	DB	00H, 00H					; `string'
CONST	ENDS
;	COMDAT ?__LINE__Var@?1??ucln_common_registerCleanup_56@@9@4JA
_DATA	SEGMENT
?__LINE__Var@?1??ucln_common_registerCleanup_56@@9@4JA DD 041H ; `ucln_common_registerCleanup_56'::`2'::__LINE__Var
; Function compile flags: /Odtp /RTCsu /ZI
_DATA	ENDS
;	COMDAT _ucln_common_registerCleanup_56
_TEXT	SEGMENT
_m$42078 = -8						; size = 4
_type$ = 8						; size = 4
_func$ = 12						; size = 4
_ucln_common_registerCleanup_56 PROC			; COMDAT
; Line 65
	push	ebp
	mov	ebp, esp
	sub	esp, 204				; 000000ccH
	push	ebx
	push	esi
	push	edi
	lea	edi, DWORD PTR [ebp-204]
	mov	ecx, 51					; 00000033H
	mov	eax, -858993460				; ccccccccH
	rep stosd
; Line 66
	cmp	DWORD PTR _type$[ebp], -1
	jle	SHORT $LN4@ucln_commo
	cmp	DWORD PTR _type$[ebp], 21		; 00000015H
	jl	SHORT $LN5@ucln_commo
$LN4@ucln_commo:
	mov	eax, DWORD PTR ?__LINE__Var@?1??ucln_common_registerCleanup_56@@9@4JA
	add	eax, 1
	mov	esi, esp
	push	eax
	push	OFFSET ??_C@_1FO@ODPPPMLK@?$AAd?$AA?3?$AA?2?$AAm?$AAo?$AAz?$AAi?$AAl?$AAl?$AAa?$AA?2?$AAi?$AAn?$AAt?$AAl?$AA?2?$AAi?$AAc?$AAu?$AA?2?$AAs?$AAo?$AAu?$AAr?$AAc?$AAe?$AA?2?$AAc?$AAo?$AAm?$AAm?$AAo@
	push	OFFSET ??_C@_1GK@COKMFEPF@?$AAU?$AAC?$AAL?$AAN?$AA_?$AAC?$AAO?$AAM?$AAM?$AAO?$AAN?$AA_?$AAS?$AAT?$AAA?$AAR?$AAT?$AA?5?$AA?$DM?$AA?5?$AAt?$AAy?$AAp?$AAe?$AA?5?$AA?$CG?$AA?$CG?$AA?5?$AAt?$AAy?$AAp?$AAe@
	call	DWORD PTR __imp___wassert
	add	esp, 12					; 0000000cH
	cmp	esi, esp
	call	__RTC_CheckEsp
$LN5@ucln_commo:
; Line 67
	cmp	DWORD PTR _type$[ebp], -1
	jle	SHORT $LN2@ucln_commo
	cmp	DWORD PTR _type$[ebp], 21		; 00000015H
	jge	SHORT $LN2@ucln_commo
; Line 69
	push	0
	lea	ecx, DWORD PTR _m$42078[ebp]
	call	??0Mutex@icu_56@@QAE@PAUUMutex@@@Z	; icu_56::Mutex::Mutex
; Line 70
	mov	eax, DWORD PTR _type$[ebp]
	mov	ecx, DWORD PTR _func$[ebp]
	mov	DWORD PTR _gCommonCleanupFunctions[eax*4], ecx
; Line 71
	lea	ecx, DWORD PTR _m$42078[ebp]
	call	??1Mutex@icu_56@@QAE@XZ			; icu_56::Mutex::~Mutex
$LN2@ucln_commo:
; Line 75
	push	edx
	mov	ecx, ebp
	push	eax
	lea	edx, DWORD PTR $LN8@ucln_commo
	call	@_RTC_CheckStackVars@8
	pop	eax
	pop	edx
	pop	edi
	pop	esi
	pop	ebx
	add	esp, 204				; 000000ccH
	cmp	ebp, esp
	call	__RTC_CheckEsp
	mov	esp, ebp
	pop	ebp
	ret	0
	npad	1
$LN8@ucln_commo:
	DD	1
	DD	$LN7@ucln_commo
$LN7@ucln_commo:
	DD	-8					; fffffff8H
	DD	4
	DD	$LN6@ucln_commo
$LN6@ucln_commo:
	DB	109					; 0000006dH
	DB	0
_ucln_common_registerCleanup_56 ENDP
_TEXT	ENDS
PUBLIC	??_C@_1FA@JFLPEEGJ@?$AAU?$AAC?$AAL?$AAN?$AA_?$AAS?$AAT?$AAA?$AAR?$AAT?$AA?5?$AA?$DM?$AA?5?$AAt?$AAy?$AAp?$AAe?$AA?5?$AA?$CG?$AA?$CG?$AA?5?$AAt?$AAy?$AAp?$AAe?$AA?5?$AA?$DM?$AA?5?$AAU?$AAC?$AAL?$AAN@ ; `string'
PUBLIC	?__LINE__Var@?1??ucln_registerCleanup_56@@9@4JA	; `ucln_registerCleanup_56'::`2'::__LINE__Var
PUBLIC	_ucln_registerCleanup_56
;	COMDAT ??_C@_1FA@JFLPEEGJ@?$AAU?$AAC?$AAL?$AAN?$AA_?$AAS?$AAT?$AAA?$AAR?$AAT?$AA?5?$AA?$DM?$AA?5?$AAt?$AAy?$AAp?$AAe?$AA?5?$AA?$CG?$AA?$CG?$AA?5?$AAt?$AAy?$AAp?$AAe?$AA?5?$AA?$DM?$AA?5?$AAU?$AAC?$AAL?$AAN@
CONST	SEGMENT
??_C@_1FA@JFLPEEGJ@?$AAU?$AAC?$AAL?$AAN?$AA_?$AAS?$AAT?$AAA?$AAR?$AAT?$AA?5?$AA?$DM?$AA?5?$AAt?$AAy?$AAp?$AAe?$AA?5?$AA?$CG?$AA?$CG?$AA?5?$AAt?$AAy?$AAp?$AAe?$AA?5?$AA?$DM?$AA?5?$AAU?$AAC?$AAL?$AAN@ DB 'U'
	DB	00H, 'C', 00H, 'L', 00H, 'N', 00H, '_', 00H, 'S', 00H, 'T', 00H
	DB	'A', 00H, 'R', 00H, 'T', 00H, ' ', 00H, '<', 00H, ' ', 00H, 't'
	DB	00H, 'y', 00H, 'p', 00H, 'e', 00H, ' ', 00H, '&', 00H, '&', 00H
	DB	' ', 00H, 't', 00H, 'y', 00H, 'p', 00H, 'e', 00H, ' ', 00H, '<'
	DB	00H, ' ', 00H, 'U', 00H, 'C', 00H, 'L', 00H, 'N', 00H, '_', 00H
	DB	'C', 00H, 'O', 00H, 'M', 00H, 'M', 00H, 'O', 00H, 'N', 00H, 00H
	DB	00H						; `string'
CONST	ENDS
;	COMDAT ?__LINE__Var@?1??ucln_registerCleanup_56@@9@4JA
_DATA	SEGMENT
?__LINE__Var@?1??ucln_registerCleanup_56@@9@4JA DD 054H	; `ucln_registerCleanup_56'::`2'::__LINE__Var
; Function compile flags: /Odtp /RTCsu /ZI
_DATA	ENDS
;	COMDAT _ucln_registerCleanup_56
_TEXT	SEGMENT
_type$ = 8						; size = 4
_func$ = 12						; size = 4
_ucln_registerCleanup_56 PROC				; COMDAT
; Line 84
	push	ebp
	mov	ebp, esp
	sub	esp, 192				; 000000c0H
	push	ebx
	push	esi
	push	edi
	lea	edi, DWORD PTR [ebp-192]
	mov	ecx, 48					; 00000030H
	mov	eax, -858993460				; ccccccccH
	rep stosd
; Line 85
	cmp	DWORD PTR _type$[ebp], -1
	jle	SHORT $LN4@ucln_regis
	cmp	DWORD PTR _type$[ebp], 8
	jl	SHORT $LN5@ucln_regis
$LN4@ucln_regis:
	mov	eax, DWORD PTR ?__LINE__Var@?1??ucln_registerCleanup_56@@9@4JA
	add	eax, 1
	mov	esi, esp
	push	eax
	push	OFFSET ??_C@_1FO@ODPPPMLK@?$AAd?$AA?3?$AA?2?$AAm?$AAo?$AAz?$AAi?$AAl?$AAl?$AAa?$AA?2?$AAi?$AAn?$AAt?$AAl?$AA?2?$AAi?$AAc?$AAu?$AA?2?$AAs?$AAo?$AAu?$AAr?$AAc?$AAe?$AA?2?$AAc?$AAo?$AAm?$AAm?$AAo@
	push	OFFSET ??_C@_1FA@JFLPEEGJ@?$AAU?$AAC?$AAL?$AAN?$AA_?$AAS?$AAT?$AAA?$AAR?$AAT?$AA?5?$AA?$DM?$AA?5?$AAt?$AAy?$AAp?$AAe?$AA?5?$AA?$CG?$AA?$CG?$AA?5?$AAt?$AAy?$AAp?$AAe?$AA?5?$AA?$DM?$AA?5?$AAU?$AAC?$AAL?$AAN@
	call	DWORD PTR __imp___wassert
	add	esp, 12					; 0000000cH
	cmp	esi, esp
	call	__RTC_CheckEsp
$LN5@ucln_regis:
; Line 86
	cmp	DWORD PTR _type$[ebp], -1
	jle	SHORT $LN2@ucln_regis
	cmp	DWORD PTR _type$[ebp], 8
	jge	SHORT $LN2@ucln_regis
; Line 88
	mov	eax, DWORD PTR _type$[ebp]
	mov	ecx, DWORD PTR _func$[ebp]
	mov	DWORD PTR _gLibCleanupFunctions[eax*4], ecx
$LN2@ucln_regis:
; Line 90
	pop	edi
	pop	esi
	pop	ebx
	add	esp, 192				; 000000c0H
	cmp	ebp, esp
	call	__RTC_CheckEsp
	mov	esp, ebp
	pop	ebp
	ret	0
_ucln_registerCleanup_56 ENDP
; Function compile flags: /Odtp /RTCsu /ZI
_TEXT	ENDS
;	COMDAT _ucln_lib_cleanup_56
_TEXT	SEGMENT
_commonFunc$ = -20					; size = 4
_libType$ = -8						; size = 4
_ucln_lib_cleanup_56 PROC				; COMDAT
; Line 92
	push	ebp
	mov	ebp, esp
	sub	esp, 216				; 000000d8H
	push	ebx
	push	esi
	push	edi
	lea	edi, DWORD PTR [ebp-216]
	mov	ecx, 54					; 00000036H
	mov	eax, -858993460				; ccccccccH
	rep stosd
; Line 93
	mov	DWORD PTR _libType$[ebp], -1
; Line 94
	mov	DWORD PTR _commonFunc$[ebp], -1
; Line 96
	mov	eax, DWORD PTR _libType$[ebp]
	add	eax, 1
	mov	DWORD PTR _libType$[ebp], eax
	jmp	SHORT $LN7@ucln_lib_c
$LN6@ucln_lib_c:
	mov	eax, DWORD PTR _libType$[ebp]
	add	eax, 1
	mov	DWORD PTR _libType$[ebp], eax
$LN7@ucln_lib_c:
	cmp	DWORD PTR _libType$[ebp], 8
	jge	SHORT $LN5@ucln_lib_c
; Line 97
	mov	eax, DWORD PTR _libType$[ebp]
	push	eax
	call	_ucln_cleanupOne_56
	add	esp, 4
; Line 98
	jmp	SHORT $LN6@ucln_lib_c
$LN5@ucln_lib_c:
; Line 100
	mov	eax, DWORD PTR _commonFunc$[ebp]
	add	eax, 1
	mov	DWORD PTR _commonFunc$[ebp], eax
	jmp	SHORT $LN4@ucln_lib_c
$LN3@ucln_lib_c:
	mov	eax, DWORD PTR _commonFunc$[ebp]
	add	eax, 1
	mov	DWORD PTR _commonFunc$[ebp], eax
$LN4@ucln_lib_c:
	cmp	DWORD PTR _commonFunc$[ebp], 21		; 00000015H
	jge	SHORT $LN2@ucln_lib_c
; Line 101
	mov	eax, DWORD PTR _commonFunc$[ebp]
	cmp	DWORD PTR _gCommonCleanupFunctions[eax*4], 0
	je	SHORT $LN1@ucln_lib_c
; Line 103
	mov	eax, DWORD PTR _commonFunc$[ebp]
	mov	esi, esp
	mov	ecx, DWORD PTR _gCommonCleanupFunctions[eax*4]
	call	ecx
	cmp	esi, esp
	call	__RTC_CheckEsp
; Line 104
	mov	eax, DWORD PTR _commonFunc$[ebp]
	mov	DWORD PTR _gCommonCleanupFunctions[eax*4], 0
$LN1@ucln_lib_c:
; Line 106
	jmp	SHORT $LN3@ucln_lib_c
$LN2@ucln_lib_c:
; Line 110
	mov	al, 1
; Line 111
	pop	edi
	pop	esi
	pop	ebx
	add	esp, 216				; 000000d8H
	cmp	ebp, esp
	call	__RTC_CheckEsp
	mov	esp, ebp
	pop	ebp
	ret	0
_ucln_lib_cleanup_56 ENDP
_TEXT	ENDS
END
