; Listing generated by Microsoft (R) Optimizing Compiler Version 16.00.40219.01 

	TITLE	D:\mozilla\intl\icu\source\common\uniset_props.cpp
	.686P
	.XMM
	include listing.inc
	.model	flat

INCLUDELIB MSVCRTD
INCLUDELIB OLDNAMES

PUBLIC	?value@?$integral_constant@_N$0A@@tr1@std@@2_NB	; std::tr1::integral_constant<bool,0>::value
PUBLIC	?value@?$integral_constant@_N$00@tr1@std@@2_NB	; std::tr1::integral_constant<bool,1>::value
PUBLIC	?value@?$integral_constant@I$0A@@tr1@std@@2IB	; std::tr1::integral_constant<unsigned int,0>::value
PUBLIC	?_Rank@?$_Arithmetic_traits@_N@std@@2HB		; std::_Arithmetic_traits<bool>::_Rank
PUBLIC	?_Rank@?$_Arithmetic_traits@D@std@@2HB		; std::_Arithmetic_traits<char>::_Rank
PUBLIC	?_Rank@?$_Arithmetic_traits@C@std@@2HB		; std::_Arithmetic_traits<signed char>::_Rank
PUBLIC	?_Rank@?$_Arithmetic_traits@E@std@@2HB		; std::_Arithmetic_traits<unsigned char>::_Rank
PUBLIC	?_Rank@?$_Arithmetic_traits@F@std@@2HB		; std::_Arithmetic_traits<short>::_Rank
PUBLIC	?_Rank@?$_Arithmetic_traits@G@std@@2HB		; std::_Arithmetic_traits<unsigned short>::_Rank
PUBLIC	?_Rank@?$_Arithmetic_traits@H@std@@2HB		; std::_Arithmetic_traits<int>::_Rank
PUBLIC	?_Rank@?$_Arithmetic_traits@I@std@@2HB		; std::_Arithmetic_traits<unsigned int>::_Rank
PUBLIC	?_Rank@?$_Arithmetic_traits@J@std@@2HB		; std::_Arithmetic_traits<long>::_Rank
PUBLIC	?_Rank@?$_Arithmetic_traits@K@std@@2HB		; std::_Arithmetic_traits<unsigned long>::_Rank
PUBLIC	?_Rank@?$_Arithmetic_traits@_J@std@@2HB		; std::_Arithmetic_traits<__int64>::_Rank
PUBLIC	?_Rank@?$_Arithmetic_traits@_K@std@@2HB		; std::_Arithmetic_traits<unsigned __int64>::_Rank
PUBLIC	?_Rank@?$_Arithmetic_traits@M@std@@2HB		; std::_Arithmetic_traits<float>::_Rank
PUBLIC	?_Rank@?$_Arithmetic_traits@N@std@@2HB		; std::_Arithmetic_traits<double>::_Rank
PUBLIC	?_Rank@?$_Arithmetic_traits@O@std@@2HB		; std::_Arithmetic_traits<long double>::_Rank
PUBLIC	?collate@?$_Locbase@H@std@@2HB			; std::_Locbase<int>::collate
PUBLIC	?ctype@?$_Locbase@H@std@@2HB			; std::_Locbase<int>::ctype
PUBLIC	?monetary@?$_Locbase@H@std@@2HB			; std::_Locbase<int>::monetary
PUBLIC	?numeric@?$_Locbase@H@std@@2HB			; std::_Locbase<int>::numeric
PUBLIC	?time@?$_Locbase@H@std@@2HB			; std::_Locbase<int>::time
PUBLIC	?messages@?$_Locbase@H@std@@2HB			; std::_Locbase<int>::messages
PUBLIC	?all@?$_Locbase@H@std@@2HB			; std::_Locbase<int>::all
PUBLIC	?none@?$_Locbase@H@std@@2HB			; std::_Locbase<int>::none
PUBLIC	?skipws@?$_Iosb@H@std@@2W4_Fmtflags@12@B	; std::_Iosb<int>::skipws
PUBLIC	?unitbuf@?$_Iosb@H@std@@2W4_Fmtflags@12@B	; std::_Iosb<int>::unitbuf
PUBLIC	?uppercase@?$_Iosb@H@std@@2W4_Fmtflags@12@B	; std::_Iosb<int>::uppercase
PUBLIC	?showbase@?$_Iosb@H@std@@2W4_Fmtflags@12@B	; std::_Iosb<int>::showbase
PUBLIC	?showpoint@?$_Iosb@H@std@@2W4_Fmtflags@12@B	; std::_Iosb<int>::showpoint
PUBLIC	?showpos@?$_Iosb@H@std@@2W4_Fmtflags@12@B	; std::_Iosb<int>::showpos
PUBLIC	?left@?$_Iosb@H@std@@2W4_Fmtflags@12@B		; std::_Iosb<int>::left
PUBLIC	?right@?$_Iosb@H@std@@2W4_Fmtflags@12@B		; std::_Iosb<int>::right
PUBLIC	?internal@?$_Iosb@H@std@@2W4_Fmtflags@12@B	; std::_Iosb<int>::internal
PUBLIC	?dec@?$_Iosb@H@std@@2W4_Fmtflags@12@B		; std::_Iosb<int>::dec
PUBLIC	?oct@?$_Iosb@H@std@@2W4_Fmtflags@12@B		; std::_Iosb<int>::oct
PUBLIC	?hex@?$_Iosb@H@std@@2W4_Fmtflags@12@B		; std::_Iosb<int>::hex
PUBLIC	?scientific@?$_Iosb@H@std@@2W4_Fmtflags@12@B	; std::_Iosb<int>::scientific
PUBLIC	?fixed@?$_Iosb@H@std@@2W4_Fmtflags@12@B		; std::_Iosb<int>::fixed
PUBLIC	?hexfloat@?$_Iosb@H@std@@2W4_Fmtflags@12@B	; std::_Iosb<int>::hexfloat
PUBLIC	?boolalpha@?$_Iosb@H@std@@2W4_Fmtflags@12@B	; std::_Iosb<int>::boolalpha
PUBLIC	?_Stdio@?$_Iosb@H@std@@2W4_Fmtflags@12@B	; std::_Iosb<int>::_Stdio
PUBLIC	?adjustfield@?$_Iosb@H@std@@2W4_Fmtflags@12@B	; std::_Iosb<int>::adjustfield
PUBLIC	?basefield@?$_Iosb@H@std@@2W4_Fmtflags@12@B	; std::_Iosb<int>::basefield
PUBLIC	?floatfield@?$_Iosb@H@std@@2W4_Fmtflags@12@B	; std::_Iosb<int>::floatfield
PUBLIC	?goodbit@?$_Iosb@H@std@@2W4_Iostate@12@B	; std::_Iosb<int>::goodbit
PUBLIC	?eofbit@?$_Iosb@H@std@@2W4_Iostate@12@B		; std::_Iosb<int>::eofbit
PUBLIC	?failbit@?$_Iosb@H@std@@2W4_Iostate@12@B	; std::_Iosb<int>::failbit
PUBLIC	?badbit@?$_Iosb@H@std@@2W4_Iostate@12@B		; std::_Iosb<int>::badbit
PUBLIC	?_Hardfail@?$_Iosb@H@std@@2W4_Iostate@12@B	; std::_Iosb<int>::_Hardfail
PUBLIC	?in@?$_Iosb@H@std@@2W4_Openmode@12@B		; std::_Iosb<int>::in
PUBLIC	?out@?$_Iosb@H@std@@2W4_Openmode@12@B		; std::_Iosb<int>::out
PUBLIC	?ate@?$_Iosb@H@std@@2W4_Openmode@12@B		; std::_Iosb<int>::ate
PUBLIC	?app@?$_Iosb@H@std@@2W4_Openmode@12@B		; std::_Iosb<int>::app
PUBLIC	?trunc@?$_Iosb@H@std@@2W4_Openmode@12@B		; std::_Iosb<int>::trunc
PUBLIC	?_Nocreate@?$_Iosb@H@std@@2W4_Openmode@12@B	; std::_Iosb<int>::_Nocreate
PUBLIC	?_Noreplace@?$_Iosb@H@std@@2W4_Openmode@12@B	; std::_Iosb<int>::_Noreplace
PUBLIC	?binary@?$_Iosb@H@std@@2W4_Openmode@12@B	; std::_Iosb<int>::binary
PUBLIC	?beg@?$_Iosb@H@std@@2W4_Seekdir@12@B		; std::_Iosb<int>::beg
PUBLIC	?cur@?$_Iosb@H@std@@2W4_Seekdir@12@B		; std::_Iosb<int>::cur
PUBLIC	?end@?$_Iosb@H@std@@2W4_Seekdir@12@B		; std::_Iosb<int>::end
PUBLIC	?kMaxBranchLinearSubNodeLength@BytesTrie@icu_56@@0HB ; icu_56::BytesTrie::kMaxBranchLinearSubNodeLength
PUBLIC	?kMinLinearMatch@BytesTrie@icu_56@@0HB		; icu_56::BytesTrie::kMinLinearMatch
PUBLIC	?kMaxLinearMatchLength@BytesTrie@icu_56@@0HB	; icu_56::BytesTrie::kMaxLinearMatchLength
PUBLIC	?kMinValueLead@BytesTrie@icu_56@@0HB		; icu_56::BytesTrie::kMinValueLead
PUBLIC	?kValueIsFinal@BytesTrie@icu_56@@0HB		; icu_56::BytesTrie::kValueIsFinal
PUBLIC	?kMinOneByteValueLead@BytesTrie@icu_56@@0HB	; icu_56::BytesTrie::kMinOneByteValueLead
PUBLIC	?kMaxOneByteValue@BytesTrie@icu_56@@0HB		; icu_56::BytesTrie::kMaxOneByteValue
PUBLIC	?kMinTwoByteValueLead@BytesTrie@icu_56@@0HB	; icu_56::BytesTrie::kMinTwoByteValueLead
PUBLIC	?kMaxTwoByteValue@BytesTrie@icu_56@@0HB		; icu_56::BytesTrie::kMaxTwoByteValue
PUBLIC	?kMinThreeByteValueLead@BytesTrie@icu_56@@0HB	; icu_56::BytesTrie::kMinThreeByteValueLead
PUBLIC	?kFourByteValueLead@BytesTrie@icu_56@@0HB	; icu_56::BytesTrie::kFourByteValueLead
PUBLIC	?kMaxThreeByteValue@BytesTrie@icu_56@@0HB	; icu_56::BytesTrie::kMaxThreeByteValue
PUBLIC	?kFiveByteValueLead@BytesTrie@icu_56@@0HB	; icu_56::BytesTrie::kFiveByteValueLead
PUBLIC	?kMaxOneByteDelta@BytesTrie@icu_56@@0HB		; icu_56::BytesTrie::kMaxOneByteDelta
PUBLIC	?kMinTwoByteDeltaLead@BytesTrie@icu_56@@0HB	; icu_56::BytesTrie::kMinTwoByteDeltaLead
PUBLIC	?kMinThreeByteDeltaLead@BytesTrie@icu_56@@0HB	; icu_56::BytesTrie::kMinThreeByteDeltaLead
PUBLIC	?kFourByteDeltaLead@BytesTrie@icu_56@@0HB	; icu_56::BytesTrie::kFourByteDeltaLead
PUBLIC	?kFiveByteDeltaLead@BytesTrie@icu_56@@0HB	; icu_56::BytesTrie::kFiveByteDeltaLead
PUBLIC	?kMaxTwoByteDelta@BytesTrie@icu_56@@0HB		; icu_56::BytesTrie::kMaxTwoByteDelta
PUBLIC	?kMaxThreeByteDelta@BytesTrie@icu_56@@0HB	; icu_56::BytesTrie::kMaxThreeByteDelta
_BSS	SEGMENT
_uni32InitOnce DQ 01H DUP (?)
_BSS	ENDS
CONST	SEGMENT
_POSIX_CLOSE DW	03aH
	DW	05dH
	DW	00H
	ORG $+2
_HYPHEN_RIGHT_BRACE DW 02dH
	DW	05dH
	DW	00H
	ORG $+2
_ANY	DB	'ANY', 00H
_ASCII	DB	'ASCII', 00H
	ORG $+2
_ASSIGNED DB	'Assigned', 00H
	ORG $+3
?none@?1??versionFilter@icu_56@@YACHPAX@Z@4QBEB DB 00H	; `icu_56::versionFilter'::`2'::none
	DB	00H
	DB	00H
	DB	00H
CONST	ENDS
;	COMDAT ?kMaxThreeByteDelta@BytesTrie@icu_56@@0HB
CONST	SEGMENT
?kMaxThreeByteDelta@BytesTrie@icu_56@@0HB DD 0dffffH	; icu_56::BytesTrie::kMaxThreeByteDelta
CONST	ENDS
;	COMDAT ?kMaxTwoByteDelta@BytesTrie@icu_56@@0HB
CONST	SEGMENT
?kMaxTwoByteDelta@BytesTrie@icu_56@@0HB DD 02fffH	; icu_56::BytesTrie::kMaxTwoByteDelta
CONST	ENDS
;	COMDAT ?kFiveByteDeltaLead@BytesTrie@icu_56@@0HB
CONST	SEGMENT
?kFiveByteDeltaLead@BytesTrie@icu_56@@0HB DD 0ffH	; icu_56::BytesTrie::kFiveByteDeltaLead
CONST	ENDS
;	COMDAT ?kFourByteDeltaLead@BytesTrie@icu_56@@0HB
CONST	SEGMENT
?kFourByteDeltaLead@BytesTrie@icu_56@@0HB DD 0feH	; icu_56::BytesTrie::kFourByteDeltaLead
CONST	ENDS
;	COMDAT ?kMinThreeByteDeltaLead@BytesTrie@icu_56@@0HB
CONST	SEGMENT
?kMinThreeByteDeltaLead@BytesTrie@icu_56@@0HB DD 0f0H	; icu_56::BytesTrie::kMinThreeByteDeltaLead
CONST	ENDS
;	COMDAT ?kMinTwoByteDeltaLead@BytesTrie@icu_56@@0HB
CONST	SEGMENT
?kMinTwoByteDeltaLead@BytesTrie@icu_56@@0HB DD 0c0H	; icu_56::BytesTrie::kMinTwoByteDeltaLead
CONST	ENDS
;	COMDAT ?kMaxOneByteDelta@BytesTrie@icu_56@@0HB
CONST	SEGMENT
?kMaxOneByteDelta@BytesTrie@icu_56@@0HB DD 0bfH		; icu_56::BytesTrie::kMaxOneByteDelta
CONST	ENDS
;	COMDAT ?kFiveByteValueLead@BytesTrie@icu_56@@0HB
CONST	SEGMENT
?kFiveByteValueLead@BytesTrie@icu_56@@0HB DD 07fH	; icu_56::BytesTrie::kFiveByteValueLead
CONST	ENDS
;	COMDAT ?kMaxThreeByteValue@BytesTrie@icu_56@@0HB
CONST	SEGMENT
?kMaxThreeByteValue@BytesTrie@icu_56@@0HB DD 011ffffH	; icu_56::BytesTrie::kMaxThreeByteValue
CONST	ENDS
;	COMDAT ?kFourByteValueLead@BytesTrie@icu_56@@0HB
CONST	SEGMENT
?kFourByteValueLead@BytesTrie@icu_56@@0HB DD 07eH	; icu_56::BytesTrie::kFourByteValueLead
CONST	ENDS
;	COMDAT ?kMinThreeByteValueLead@BytesTrie@icu_56@@0HB
CONST	SEGMENT
?kMinThreeByteValueLead@BytesTrie@icu_56@@0HB DD 06cH	; icu_56::BytesTrie::kMinThreeByteValueLead
CONST	ENDS
;	COMDAT ?kMaxTwoByteValue@BytesTrie@icu_56@@0HB
CONST	SEGMENT
?kMaxTwoByteValue@BytesTrie@icu_56@@0HB DD 01affH	; icu_56::BytesTrie::kMaxTwoByteValue
CONST	ENDS
;	COMDAT ?kMinTwoByteValueLead@BytesTrie@icu_56@@0HB
CONST	SEGMENT
?kMinTwoByteValueLead@BytesTrie@icu_56@@0HB DD 051H	; icu_56::BytesTrie::kMinTwoByteValueLead
CONST	ENDS
;	COMDAT ?kMaxOneByteValue@BytesTrie@icu_56@@0HB
CONST	SEGMENT
?kMaxOneByteValue@BytesTrie@icu_56@@0HB DD 040H		; icu_56::BytesTrie::kMaxOneByteValue
CONST	ENDS
;	COMDAT ?kMinOneByteValueLead@BytesTrie@icu_56@@0HB
CONST	SEGMENT
?kMinOneByteValueLead@BytesTrie@icu_56@@0HB DD 010H	; icu_56::BytesTrie::kMinOneByteValueLead
CONST	ENDS
;	COMDAT ?kValueIsFinal@BytesTrie@icu_56@@0HB
CONST	SEGMENT
?kValueIsFinal@BytesTrie@icu_56@@0HB DD 01H		; icu_56::BytesTrie::kValueIsFinal
CONST	ENDS
;	COMDAT ?kMinValueLead@BytesTrie@icu_56@@0HB
CONST	SEGMENT
?kMinValueLead@BytesTrie@icu_56@@0HB DD 020H		; icu_56::BytesTrie::kMinValueLead
CONST	ENDS
;	COMDAT ?kMaxLinearMatchLength@BytesTrie@icu_56@@0HB
CONST	SEGMENT
?kMaxLinearMatchLength@BytesTrie@icu_56@@0HB DD 010H	; icu_56::BytesTrie::kMaxLinearMatchLength
CONST	ENDS
;	COMDAT ?kMinLinearMatch@BytesTrie@icu_56@@0HB
CONST	SEGMENT
?kMinLinearMatch@BytesTrie@icu_56@@0HB DD 010H		; icu_56::BytesTrie::kMinLinearMatch
CONST	ENDS
;	COMDAT ?kMaxBranchLinearSubNodeLength@BytesTrie@icu_56@@0HB
CONST	SEGMENT
?kMaxBranchLinearSubNodeLength@BytesTrie@icu_56@@0HB DD 05H ; icu_56::BytesTrie::kMaxBranchLinearSubNodeLength
CONST	ENDS
;	COMDAT ?end@?$_Iosb@H@std@@2W4_Seekdir@12@B
CONST	SEGMENT
?end@?$_Iosb@H@std@@2W4_Seekdir@12@B DD 02H		; std::_Iosb<int>::end
CONST	ENDS
;	COMDAT ?cur@?$_Iosb@H@std@@2W4_Seekdir@12@B
CONST	SEGMENT
?cur@?$_Iosb@H@std@@2W4_Seekdir@12@B DD 01H		; std::_Iosb<int>::cur
CONST	ENDS
;	COMDAT ?beg@?$_Iosb@H@std@@2W4_Seekdir@12@B
CONST	SEGMENT
?beg@?$_Iosb@H@std@@2W4_Seekdir@12@B DD 00H		; std::_Iosb<int>::beg
CONST	ENDS
;	COMDAT ?binary@?$_Iosb@H@std@@2W4_Openmode@12@B
CONST	SEGMENT
?binary@?$_Iosb@H@std@@2W4_Openmode@12@B DD 020H	; std::_Iosb<int>::binary
CONST	ENDS
;	COMDAT ?_Noreplace@?$_Iosb@H@std@@2W4_Openmode@12@B
CONST	SEGMENT
?_Noreplace@?$_Iosb@H@std@@2W4_Openmode@12@B DD 080H	; std::_Iosb<int>::_Noreplace
CONST	ENDS
;	COMDAT ?_Nocreate@?$_Iosb@H@std@@2W4_Openmode@12@B
CONST	SEGMENT
?_Nocreate@?$_Iosb@H@std@@2W4_Openmode@12@B DD 040H	; std::_Iosb<int>::_Nocreate
CONST	ENDS
;	COMDAT ?trunc@?$_Iosb@H@std@@2W4_Openmode@12@B
CONST	SEGMENT
?trunc@?$_Iosb@H@std@@2W4_Openmode@12@B DD 010H		; std::_Iosb<int>::trunc
CONST	ENDS
;	COMDAT ?app@?$_Iosb@H@std@@2W4_Openmode@12@B
CONST	SEGMENT
?app@?$_Iosb@H@std@@2W4_Openmode@12@B DD 08H		; std::_Iosb<int>::app
CONST	ENDS
;	COMDAT ?ate@?$_Iosb@H@std@@2W4_Openmode@12@B
CONST	SEGMENT
?ate@?$_Iosb@H@std@@2W4_Openmode@12@B DD 04H		; std::_Iosb<int>::ate
CONST	ENDS
;	COMDAT ?out@?$_Iosb@H@std@@2W4_Openmode@12@B
CONST	SEGMENT
?out@?$_Iosb@H@std@@2W4_Openmode@12@B DD 02H		; std::_Iosb<int>::out
CONST	ENDS
;	COMDAT ?in@?$_Iosb@H@std@@2W4_Openmode@12@B
CONST	SEGMENT
?in@?$_Iosb@H@std@@2W4_Openmode@12@B DD 01H		; std::_Iosb<int>::in
CONST	ENDS
;	COMDAT ?_Hardfail@?$_Iosb@H@std@@2W4_Iostate@12@B
CONST	SEGMENT
?_Hardfail@?$_Iosb@H@std@@2W4_Iostate@12@B DD 010H	; std::_Iosb<int>::_Hardfail
CONST	ENDS
;	COMDAT ?badbit@?$_Iosb@H@std@@2W4_Iostate@12@B
CONST	SEGMENT
?badbit@?$_Iosb@H@std@@2W4_Iostate@12@B DD 04H		; std::_Iosb<int>::badbit
CONST	ENDS
;	COMDAT ?failbit@?$_Iosb@H@std@@2W4_Iostate@12@B
CONST	SEGMENT
?failbit@?$_Iosb@H@std@@2W4_Iostate@12@B DD 02H		; std::_Iosb<int>::failbit
CONST	ENDS
;	COMDAT ?eofbit@?$_Iosb@H@std@@2W4_Iostate@12@B
CONST	SEGMENT
?eofbit@?$_Iosb@H@std@@2W4_Iostate@12@B DD 01H		; std::_Iosb<int>::eofbit
CONST	ENDS
;	COMDAT ?goodbit@?$_Iosb@H@std@@2W4_Iostate@12@B
CONST	SEGMENT
?goodbit@?$_Iosb@H@std@@2W4_Iostate@12@B DD 00H		; std::_Iosb<int>::goodbit
CONST	ENDS
;	COMDAT ?floatfield@?$_Iosb@H@std@@2W4_Fmtflags@12@B
CONST	SEGMENT
?floatfield@?$_Iosb@H@std@@2W4_Fmtflags@12@B DD 03000H	; std::_Iosb<int>::floatfield
CONST	ENDS
;	COMDAT ?basefield@?$_Iosb@H@std@@2W4_Fmtflags@12@B
CONST	SEGMENT
?basefield@?$_Iosb@H@std@@2W4_Fmtflags@12@B DD 0e00H	; std::_Iosb<int>::basefield
CONST	ENDS
;	COMDAT ?adjustfield@?$_Iosb@H@std@@2W4_Fmtflags@12@B
CONST	SEGMENT
?adjustfield@?$_Iosb@H@std@@2W4_Fmtflags@12@B DD 01c0H	; std::_Iosb<int>::adjustfield
CONST	ENDS
;	COMDAT ?_Stdio@?$_Iosb@H@std@@2W4_Fmtflags@12@B
CONST	SEGMENT
?_Stdio@?$_Iosb@H@std@@2W4_Fmtflags@12@B DD 08000H	; std::_Iosb<int>::_Stdio
CONST	ENDS
;	COMDAT ?boolalpha@?$_Iosb@H@std@@2W4_Fmtflags@12@B
CONST	SEGMENT
?boolalpha@?$_Iosb@H@std@@2W4_Fmtflags@12@B DD 04000H	; std::_Iosb<int>::boolalpha
CONST	ENDS
;	COMDAT ?hexfloat@?$_Iosb@H@std@@2W4_Fmtflags@12@B
CONST	SEGMENT
?hexfloat@?$_Iosb@H@std@@2W4_Fmtflags@12@B DD 03000H	; std::_Iosb<int>::hexfloat
CONST	ENDS
;	COMDAT ?fixed@?$_Iosb@H@std@@2W4_Fmtflags@12@B
CONST	SEGMENT
?fixed@?$_Iosb@H@std@@2W4_Fmtflags@12@B DD 02000H	; std::_Iosb<int>::fixed
CONST	ENDS
;	COMDAT ?scientific@?$_Iosb@H@std@@2W4_Fmtflags@12@B
CONST	SEGMENT
?scientific@?$_Iosb@H@std@@2W4_Fmtflags@12@B DD 01000H	; std::_Iosb<int>::scientific
CONST	ENDS
;	COMDAT ?hex@?$_Iosb@H@std@@2W4_Fmtflags@12@B
CONST	SEGMENT
?hex@?$_Iosb@H@std@@2W4_Fmtflags@12@B DD 0800H		; std::_Iosb<int>::hex
CONST	ENDS
;	COMDAT ?oct@?$_Iosb@H@std@@2W4_Fmtflags@12@B
CONST	SEGMENT
?oct@?$_Iosb@H@std@@2W4_Fmtflags@12@B DD 0400H		; std::_Iosb<int>::oct
CONST	ENDS
;	COMDAT ?dec@?$_Iosb@H@std@@2W4_Fmtflags@12@B
CONST	SEGMENT
?dec@?$_Iosb@H@std@@2W4_Fmtflags@12@B DD 0200H		; std::_Iosb<int>::dec
CONST	ENDS
;	COMDAT ?internal@?$_Iosb@H@std@@2W4_Fmtflags@12@B
CONST	SEGMENT
?internal@?$_Iosb@H@std@@2W4_Fmtflags@12@B DD 0100H	; std::_Iosb<int>::internal
CONST	ENDS
;	COMDAT ?right@?$_Iosb@H@std@@2W4_Fmtflags@12@B
CONST	SEGMENT
?right@?$_Iosb@H@std@@2W4_Fmtflags@12@B DD 080H		; std::_Iosb<int>::right
CONST	ENDS
;	COMDAT ?left@?$_Iosb@H@std@@2W4_Fmtflags@12@B
CONST	SEGMENT
?left@?$_Iosb@H@std@@2W4_Fmtflags@12@B DD 040H		; std::_Iosb<int>::left
CONST	ENDS
;	COMDAT ?showpos@?$_Iosb@H@std@@2W4_Fmtflags@12@B
CONST	SEGMENT
?showpos@?$_Iosb@H@std@@2W4_Fmtflags@12@B DD 020H	; std::_Iosb<int>::showpos
CONST	ENDS
;	COMDAT ?showpoint@?$_Iosb@H@std@@2W4_Fmtflags@12@B
CONST	SEGMENT
?showpoint@?$_Iosb@H@std@@2W4_Fmtflags@12@B DD 010H	; std::_Iosb<int>::showpoint
CONST	ENDS
;	COMDAT ?showbase@?$_Iosb@H@std@@2W4_Fmtflags@12@B
CONST	SEGMENT
?showbase@?$_Iosb@H@std@@2W4_Fmtflags@12@B DD 08H	; std::_Iosb<int>::showbase
CONST	ENDS
;	COMDAT ?uppercase@?$_Iosb@H@std@@2W4_Fmtflags@12@B
CONST	SEGMENT
?uppercase@?$_Iosb@H@std@@2W4_Fmtflags@12@B DD 04H	; std::_Iosb<int>::uppercase
CONST	ENDS
;	COMDAT ?unitbuf@?$_Iosb@H@std@@2W4_Fmtflags@12@B
CONST	SEGMENT
?unitbuf@?$_Iosb@H@std@@2W4_Fmtflags@12@B DD 02H	; std::_Iosb<int>::unitbuf
CONST	ENDS
;	COMDAT ?skipws@?$_Iosb@H@std@@2W4_Fmtflags@12@B
CONST	SEGMENT
?skipws@?$_Iosb@H@std@@2W4_Fmtflags@12@B DD 01H		; std::_Iosb<int>::skipws
CONST	ENDS
;	COMDAT ?none@?$_Locbase@H@std@@2HB
CONST	SEGMENT
?none@?$_Locbase@H@std@@2HB DD 00H			; std::_Locbase<int>::none
CONST	ENDS
;	COMDAT ?all@?$_Locbase@H@std@@2HB
CONST	SEGMENT
?all@?$_Locbase@H@std@@2HB DD 03fH			; std::_Locbase<int>::all
CONST	ENDS
;	COMDAT ?messages@?$_Locbase@H@std@@2HB
CONST	SEGMENT
?messages@?$_Locbase@H@std@@2HB DD 020H			; std::_Locbase<int>::messages
CONST	ENDS
;	COMDAT ?time@?$_Locbase@H@std@@2HB
CONST	SEGMENT
?time@?$_Locbase@H@std@@2HB DD 010H			; std::_Locbase<int>::time
CONST	ENDS
;	COMDAT ?numeric@?$_Locbase@H@std@@2HB
CONST	SEGMENT
?numeric@?$_Locbase@H@std@@2HB DD 08H			; std::_Locbase<int>::numeric
CONST	ENDS
;	COMDAT ?monetary@?$_Locbase@H@std@@2HB
CONST	SEGMENT
?monetary@?$_Locbase@H@std@@2HB DD 04H			; std::_Locbase<int>::monetary
CONST	ENDS
;	COMDAT ?ctype@?$_Locbase@H@std@@2HB
CONST	SEGMENT
?ctype@?$_Locbase@H@std@@2HB DD 02H			; std::_Locbase<int>::ctype
CONST	ENDS
;	COMDAT ?collate@?$_Locbase@H@std@@2HB
CONST	SEGMENT
?collate@?$_Locbase@H@std@@2HB DD 01H			; std::_Locbase<int>::collate
CONST	ENDS
;	COMDAT ?_Rank@?$_Arithmetic_traits@O@std@@2HB
CONST	SEGMENT
?_Rank@?$_Arithmetic_traits@O@std@@2HB DD 09H		; std::_Arithmetic_traits<long double>::_Rank
CONST	ENDS
;	COMDAT ?_Rank@?$_Arithmetic_traits@N@std@@2HB
CONST	SEGMENT
?_Rank@?$_Arithmetic_traits@N@std@@2HB DD 08H		; std::_Arithmetic_traits<double>::_Rank
CONST	ENDS
;	COMDAT ?_Rank@?$_Arithmetic_traits@M@std@@2HB
CONST	SEGMENT
?_Rank@?$_Arithmetic_traits@M@std@@2HB DD 07H		; std::_Arithmetic_traits<float>::_Rank
CONST	ENDS
;	COMDAT ?_Rank@?$_Arithmetic_traits@_K@std@@2HB
CONST	SEGMENT
?_Rank@?$_Arithmetic_traits@_K@std@@2HB DD 06H		; std::_Arithmetic_traits<unsigned __int64>::_Rank
CONST	ENDS
;	COMDAT ?_Rank@?$_Arithmetic_traits@_J@std@@2HB
CONST	SEGMENT
?_Rank@?$_Arithmetic_traits@_J@std@@2HB DD 06H		; std::_Arithmetic_traits<__int64>::_Rank
CONST	ENDS
;	COMDAT ?_Rank@?$_Arithmetic_traits@K@std@@2HB
CONST	SEGMENT
?_Rank@?$_Arithmetic_traits@K@std@@2HB DD 05H		; std::_Arithmetic_traits<unsigned long>::_Rank
CONST	ENDS
;	COMDAT ?_Rank@?$_Arithmetic_traits@J@std@@2HB
CONST	SEGMENT
?_Rank@?$_Arithmetic_traits@J@std@@2HB DD 05H		; std::_Arithmetic_traits<long>::_Rank
CONST	ENDS
;	COMDAT ?_Rank@?$_Arithmetic_traits@I@std@@2HB
CONST	SEGMENT
?_Rank@?$_Arithmetic_traits@I@std@@2HB DD 04H		; std::_Arithmetic_traits<unsigned int>::_Rank
CONST	ENDS
;	COMDAT ?_Rank@?$_Arithmetic_traits@H@std@@2HB
CONST	SEGMENT
?_Rank@?$_Arithmetic_traits@H@std@@2HB DD 04H		; std::_Arithmetic_traits<int>::_Rank
CONST	ENDS
;	COMDAT ?_Rank@?$_Arithmetic_traits@G@std@@2HB
CONST	SEGMENT
?_Rank@?$_Arithmetic_traits@G@std@@2HB DD 03H		; std::_Arithmetic_traits<unsigned short>::_Rank
CONST	ENDS
;	COMDAT ?_Rank@?$_Arithmetic_traits@F@std@@2HB
CONST	SEGMENT
?_Rank@?$_Arithmetic_traits@F@std@@2HB DD 03H		; std::_Arithmetic_traits<short>::_Rank
CONST	ENDS
;	COMDAT ?_Rank@?$_Arithmetic_traits@E@std@@2HB
CONST	SEGMENT
?_Rank@?$_Arithmetic_traits@E@std@@2HB DD 02H		; std::_Arithmetic_traits<unsigned char>::_Rank
CONST	ENDS
;	COMDAT ?_Rank@?$_Arithmetic_traits@C@std@@2HB
CONST	SEGMENT
?_Rank@?$_Arithmetic_traits@C@std@@2HB DD 02H		; std::_Arithmetic_traits<signed char>::_Rank
CONST	ENDS
;	COMDAT ?_Rank@?$_Arithmetic_traits@D@std@@2HB
CONST	SEGMENT
?_Rank@?$_Arithmetic_traits@D@std@@2HB DD 02H		; std::_Arithmetic_traits<char>::_Rank
CONST	ENDS
;	COMDAT ?_Rank@?$_Arithmetic_traits@_N@std@@2HB
CONST	SEGMENT
?_Rank@?$_Arithmetic_traits@_N@std@@2HB DD 01H		; std::_Arithmetic_traits<bool>::_Rank
CONST	ENDS
;	COMDAT ?value@?$integral_constant@I$0A@@tr1@std@@2IB
CONST	SEGMENT
?value@?$integral_constant@I$0A@@tr1@std@@2IB DD 00H	; std::tr1::integral_constant<unsigned int,0>::value
CONST	ENDS
;	COMDAT ?value@?$integral_constant@_N$00@tr1@std@@2_NB
CONST	SEGMENT
?value@?$integral_constant@_N$00@tr1@std@@2_NB DB 01H	; std::tr1::integral_constant<bool,1>::value
CONST	ENDS
;	COMDAT ?value@?$integral_constant@_N$0A@@tr1@std@@2_NB
CONST	SEGMENT
?value@?$integral_constant@_N$0A@@tr1@std@@2_NB DB 00H	; std::tr1::integral_constant<bool,0>::value
CONST	ENDS
PUBLIC	??2@YAPAXI@Z					; operator new
EXTRN	__RTC_Shutdown:PROC
EXTRN	__RTC_InitBase:PROC
;	COMDAT rtc$TMZ
; File d:\mozilla\intl\icu\source\common\unicode\utypes.h
rtc$TMZ	SEGMENT
__RTC_Shutdown.rtc$TMZ DD FLAT:__RTC_Shutdown
rtc$TMZ	ENDS
;	COMDAT rtc$IMZ
rtc$IMZ	SEGMENT
__RTC_InitBase.rtc$IMZ DD FLAT:__RTC_InitBase
; Function compile flags: /Odtp /RTCsu /ZI
rtc$IMZ	ENDS
;	COMDAT ??2@YAPAXI@Z
_TEXT	SEGMENT
_q$ = -8						; size = 4
___formal$ = 8						; size = 4
??2@YAPAXI@Z PROC					; operator new, COMDAT
; Line 411
	push	ebp
	mov	ebp, esp
	sub	esp, 204				; 000000ccH
	push	ebx
	push	esi
	push	edi
	lea	edi, DWORD PTR [ebp-204]
	mov	ecx, 51					; 00000033H
	mov	eax, -858993460				; ccccccccH
	rep stosd
; Line 412
	mov	DWORD PTR _q$[ebp], 0
; Line 413
	mov	eax, DWORD PTR _q$[ebp]
	mov	BYTE PTR [eax], 5
; Line 414
	mov	eax, DWORD PTR _q$[ebp]
; Line 415
	pop	edi
	pop	esi
	pop	ebx
	mov	esp, ebp
	pop	ebp
	ret	0
??2@YAPAXI@Z ENDP					; operator new
_TEXT	ENDS
PUBLIC	??3@YAXPAX@Z					; operator delete
; Function compile flags: /Odtp /RTCsu /ZI
;	COMDAT ??3@YAXPAX@Z
_TEXT	SEGMENT
_q$ = -8						; size = 4
___formal$ = 8						; size = 4
??3@YAXPAX@Z PROC					; operator delete, COMDAT
; Line 439
	push	ebp
	mov	ebp, esp
	sub	esp, 204				; 000000ccH
	push	ebx
	push	esi
	push	edi
	lea	edi, DWORD PTR [ebp-204]
	mov	ecx, 51					; 00000033H
	mov	eax, -858993460				; ccccccccH
	rep stosd
; Line 440
	mov	DWORD PTR _q$[ebp], 0
; Line 441
	mov	eax, DWORD PTR _q$[ebp]
	mov	BYTE PTR [eax], 5
; Line 442
	pop	edi
	pop	esi
	pop	ebx
	mov	esp, ebp
	pop	ebp
	ret	0
??3@YAXPAX@Z ENDP					; operator delete
_TEXT	ENDS
PUBLIC	??2UMemory@icu_56@@SAPAXIPAX@Z			; icu_56::UMemory::operator new
; Function compile flags: /Odtp /RTCsu /ZI
;	COMDAT ??2UMemory@icu_56@@SAPAXIPAX@Z
_TEXT	SEGMENT
___formal$ = 8						; size = 4
_ptr$ = 12						; size = 4
??2UMemory@icu_56@@SAPAXIPAX@Z PROC			; icu_56::UMemory::operator new, COMDAT
; File d:\mozilla\intl\icu\source\common\unicode\uobject.h
; Line 161
	push	ebp
	mov	ebp, esp
	sub	esp, 192				; 000000c0H
	push	ebx
	push	esi
	push	edi
	lea	edi, DWORD PTR [ebp-192]
	mov	ecx, 48					; 00000030H
	mov	eax, -858993460				; ccccccccH
	rep stosd
	mov	eax, DWORD PTR _ptr$[ebp]
	pop	edi
	pop	esi
	pop	ebx
	mov	esp, ebp
	pop	ebp
	ret	0
??2UMemory@icu_56@@SAPAXIPAX@Z ENDP			; icu_56::UMemory::operator new
_TEXT	ENDS
PUBLIC	??3UMemory@icu_56@@SAXPAX0@Z			; icu_56::UMemory::operator delete
; Function compile flags: /Odtp /RTCsu /ZI
;	COMDAT ??3UMemory@icu_56@@SAXPAX0@Z
_TEXT	SEGMENT
___formal$ = 8						; size = 4
___formal$ = 12						; size = 4
??3UMemory@icu_56@@SAXPAX0@Z PROC			; icu_56::UMemory::operator delete, COMDAT
; Line 168
	push	ebp
	mov	ebp, esp
	sub	esp, 192				; 000000c0H
	push	ebx
	push	esi
	push	edi
	lea	edi, DWORD PTR [ebp-192]
	mov	ecx, 48					; 00000030H
	mov	eax, -858993460				; ccccccccH
	rep stosd
	pop	edi
	pop	esi
	pop	ebx
	mov	esp, ebp
	pop	ebp
	ret	0
??3UMemory@icu_56@@SAXPAX0@Z ENDP			; icu_56::UMemory::operator delete
_TEXT	ENDS
PUBLIC	??4UMemory@icu_56@@QAEAAV01@ABV01@@Z		; icu_56::UMemory::operator=
; Function compile flags: /Odtp /RTCsu /ZI
;	COMDAT ??4UMemory@icu_56@@QAEAAV01@ABV01@@Z
_TEXT	SEGMENT
_this$ = -8						; size = 4
___that$ = 8						; size = 4
??4UMemory@icu_56@@QAEAAV01@ABV01@@Z PROC		; icu_56::UMemory::operator=, COMDAT
; _this$ = ecx
	push	ebp
	mov	ebp, esp
	sub	esp, 204				; 000000ccH
	push	ebx
	push	esi
	push	edi
	push	ecx
	lea	edi, DWORD PTR [ebp-204]
	mov	ecx, 51					; 00000033H
	mov	eax, -858993460				; ccccccccH
	rep stosd
	pop	ecx
	mov	DWORD PTR _this$[ebp], ecx
	mov	eax, DWORD PTR _this$[ebp]
	pop	edi
	pop	esi
	pop	ebx
	mov	esp, ebp
	pop	ebp
	ret	4
??4UMemory@icu_56@@QAEAAV01@ABV01@@Z ENDP		; icu_56::UMemory::operator=
_TEXT	ENDS
PUBLIC	??_7UObject@icu_56@@6B@				; icu_56::UObject::`vftable'
PUBLIC	??0UObject@icu_56@@QAE@XZ			; icu_56::UObject::UObject
PUBLIC	??_R4UObject@icu_56@@6B@			; icu_56::UObject::`RTTI Complete Object Locator'
PUBLIC	??_R0?AVUObject@icu_56@@@8			; icu_56::UObject `RTTI Type Descriptor'
PUBLIC	??_R3UObject@icu_56@@8				; icu_56::UObject::`RTTI Class Hierarchy Descriptor'
PUBLIC	??_R2UObject@icu_56@@8				; icu_56::UObject::`RTTI Base Class Array'
PUBLIC	??_R1A@?0A@EA@UObject@icu_56@@8			; icu_56::UObject::`RTTI Base Class Descriptor at (0,-1,0,64)'
PUBLIC	??_R13?0A@EA@UMemory@icu_56@@8			; icu_56::UMemory::`RTTI Base Class Descriptor at (4,-1,0,64)'
PUBLIC	??_R0?AVUMemory@icu_56@@@8			; icu_56::UMemory `RTTI Type Descriptor'
PUBLIC	??_R3UMemory@icu_56@@8				; icu_56::UMemory::`RTTI Class Hierarchy Descriptor'
PUBLIC	??_R2UMemory@icu_56@@8				; icu_56::UMemory::`RTTI Base Class Array'
PUBLIC	??_R1A@?0A@EA@UMemory@icu_56@@8			; icu_56::UMemory::`RTTI Base Class Descriptor at (0,-1,0,64)'
PUBLIC	??_EUObject@icu_56@@UAEPAXI@Z			; icu_56::UObject::`vector deleting destructor'
EXTRN	??_7type_info@@6B@:QWORD			; type_info::`vftable'
EXTRN	?getDynamicClassID@UObject@icu_56@@UBEPAXXZ:PROC ; icu_56::UObject::getDynamicClassID
;	COMDAT ??_R1A@?0A@EA@UMemory@icu_56@@8
rdata$r	SEGMENT
??_R1A@?0A@EA@UMemory@icu_56@@8 DD FLAT:??_R0?AVUMemory@icu_56@@@8 ; icu_56::UMemory::`RTTI Base Class Descriptor at (0,-1,0,64)'
	DD	00H
	DD	00H
	DD	0ffffffffH
	DD	00H
	DD	040H
	DD	FLAT:??_R3UMemory@icu_56@@8
rdata$r	ENDS
;	COMDAT ??_R2UMemory@icu_56@@8
rdata$r	SEGMENT
??_R2UMemory@icu_56@@8 DD FLAT:??_R1A@?0A@EA@UMemory@icu_56@@8 ; icu_56::UMemory::`RTTI Base Class Array'
rdata$r	ENDS
;	COMDAT ??_R3UMemory@icu_56@@8
rdata$r	SEGMENT
??_R3UMemory@icu_56@@8 DD 00H				; icu_56::UMemory::`RTTI Class Hierarchy Descriptor'
	DD	00H
	DD	01H
	DD	FLAT:??_R2UMemory@icu_56@@8
rdata$r	ENDS
;	COMDAT ??_R0?AVUMemory@icu_56@@@8
_DATA	SEGMENT
??_R0?AVUMemory@icu_56@@@8 DD FLAT:??_7type_info@@6B@	; icu_56::UMemory `RTTI Type Descriptor'
	DD	00H
	DB	'.?AVUMemory@icu_56@@', 00H
_DATA	ENDS
;	COMDAT ??_R13?0A@EA@UMemory@icu_56@@8
rdata$r	SEGMENT
??_R13?0A@EA@UMemory@icu_56@@8 DD FLAT:??_R0?AVUMemory@icu_56@@@8 ; icu_56::UMemory::`RTTI Base Class Descriptor at (4,-1,0,64)'
	DD	00H
	DD	04H
	DD	0ffffffffH
	DD	00H
	DD	040H
	DD	FLAT:??_R3UMemory@icu_56@@8
rdata$r	ENDS
;	COMDAT ??_R1A@?0A@EA@UObject@icu_56@@8
rdata$r	SEGMENT
??_R1A@?0A@EA@UObject@icu_56@@8 DD FLAT:??_R0?AVUObject@icu_56@@@8 ; icu_56::UObject::`RTTI Base Class Descriptor at (0,-1,0,64)'
	DD	01H
	DD	00H
	DD	0ffffffffH
	DD	00H
	DD	040H
	DD	FLAT:??_R3UObject@icu_56@@8
rdata$r	ENDS
;	COMDAT ??_R2UObject@icu_56@@8
rdata$r	SEGMENT
??_R2UObject@icu_56@@8 DD FLAT:??_R1A@?0A@EA@UObject@icu_56@@8 ; icu_56::UObject::`RTTI Base Class Array'
	DD	FLAT:??_R13?0A@EA@UMemory@icu_56@@8
rdata$r	ENDS
;	COMDAT ??_R3UObject@icu_56@@8
rdata$r	SEGMENT
??_R3UObject@icu_56@@8 DD 00H				; icu_56::UObject::`RTTI Class Hierarchy Descriptor'
	DD	00H
	DD	02H
	DD	FLAT:??_R2UObject@icu_56@@8
rdata$r	ENDS
;	COMDAT ??_R0?AVUObject@icu_56@@@8
_DATA	SEGMENT
??_R0?AVUObject@icu_56@@@8 DD FLAT:??_7type_info@@6B@	; icu_56::UObject `RTTI Type Descriptor'
	DD	00H
	DB	'.?AVUObject@icu_56@@', 00H
_DATA	ENDS
;	COMDAT ??_R4UObject@icu_56@@6B@
rdata$r	SEGMENT
??_R4UObject@icu_56@@6B@ DD 00H				; icu_56::UObject::`RTTI Complete Object Locator'
	DD	00H
	DD	00H
	DD	FLAT:??_R0?AVUObject@icu_56@@@8
	DD	FLAT:??_R3UObject@icu_56@@8
rdata$r	ENDS
;	COMDAT ??_7UObject@icu_56@@6B@
CONST	SEGMENT
??_7UObject@icu_56@@6B@ DD FLAT:??_R4UObject@icu_56@@6B@ ; icu_56::UObject::`vftable'
	DD	FLAT:??_EUObject@icu_56@@UAEPAXI@Z
	DD	FLAT:?getDynamicClassID@UObject@icu_56@@UBEPAXXZ
; Function compile flags: /Odtp /RTCsu /ZI
CONST	ENDS
;	COMDAT ??0UObject@icu_56@@QAE@XZ
_TEXT	SEGMENT
_this$ = -8						; size = 4
??0UObject@icu_56@@QAE@XZ PROC				; icu_56::UObject::UObject, COMDAT
; _this$ = ecx
	push	ebp
	mov	ebp, esp
	sub	esp, 204				; 000000ccH
	push	ebx
	push	esi
	push	edi
	push	ecx
	lea	edi, DWORD PTR [ebp-204]
	mov	ecx, 51					; 00000033H
	mov	eax, -858993460				; ccccccccH
	rep stosd
	pop	ecx
	mov	DWORD PTR _this$[ebp], ecx
	mov	eax, DWORD PTR _this$[ebp]
	mov	DWORD PTR [eax], OFFSET ??_7UObject@icu_56@@6B@
	mov	eax, DWORD PTR _this$[ebp]
	pop	edi
	pop	esi
	pop	ebx
	mov	esp, ebp
	pop	ebp
	ret	0
??0UObject@icu_56@@QAE@XZ ENDP				; icu_56::UObject::UObject
_TEXT	ENDS
PUBLIC	??0UObject@icu_56@@QAE@ABV01@@Z			; icu_56::UObject::UObject
; Function compile flags: /Odtp /RTCsu /ZI
;	COMDAT ??0UObject@icu_56@@QAE@ABV01@@Z
_TEXT	SEGMENT
tv68 = -208						; size = 4
_this$ = -8						; size = 4
___that$ = 8						; size = 4
??0UObject@icu_56@@QAE@ABV01@@Z PROC			; icu_56::UObject::UObject, COMDAT
; _this$ = ecx
	push	ebp
	mov	ebp, esp
	sub	esp, 208				; 000000d0H
	push	ebx
	push	esi
	push	edi
	push	ecx
	lea	edi, DWORD PTR [ebp-208]
	mov	ecx, 52					; 00000034H
	mov	eax, -858993460				; ccccccccH
	rep stosd
	pop	ecx
	mov	DWORD PTR _this$[ebp], ecx
	cmp	DWORD PTR ___that$[ebp], 0
	je	SHORT $LN3@UObject
	mov	eax, DWORD PTR ___that$[ebp]
	add	eax, 4
	mov	DWORD PTR tv68[ebp], eax
	jmp	SHORT $LN4@UObject
$LN3@UObject:
	mov	DWORD PTR tv68[ebp], 0
$LN4@UObject:
	mov	eax, DWORD PTR _this$[ebp]
	mov	DWORD PTR [eax], OFFSET ??_7UObject@icu_56@@6B@
	mov	eax, DWORD PTR _this$[ebp]
	pop	edi
	pop	esi
	pop	ebx
	mov	esp, ebp
	pop	ebp
	ret	4
??0UObject@icu_56@@QAE@ABV01@@Z ENDP			; icu_56::UObject::UObject
_TEXT	ENDS
PUBLIC	??4UObject@icu_56@@QAEAAV01@ABV01@@Z		; icu_56::UObject::operator=
; Function compile flags: /Odtp /RTCsu /ZI
;	COMDAT ??4UObject@icu_56@@QAEAAV01@ABV01@@Z
_TEXT	SEGMENT
_this$ = -8						; size = 4
___that$ = 8						; size = 4
??4UObject@icu_56@@QAEAAV01@ABV01@@Z PROC		; icu_56::UObject::operator=, COMDAT
; _this$ = ecx
	push	ebp
	mov	ebp, esp
	sub	esp, 204				; 000000ccH
	push	ebx
	push	esi
	push	edi
	push	ecx
	lea	edi, DWORD PTR [ebp-204]
	mov	ecx, 51					; 00000033H
	mov	eax, -858993460				; ccccccccH
	rep stosd
	pop	ecx
	mov	DWORD PTR _this$[ebp], ecx
	mov	eax, DWORD PTR _this$[ebp]
	pop	edi
	pop	esi
	pop	ebx
	mov	esp, ebp
	pop	ebp
	ret	4
??4UObject@icu_56@@QAEAAV01@ABV01@@Z ENDP		; icu_56::UObject::operator=
_TEXT	ENDS
PUBLIC	??_GUObject@icu_56@@UAEPAXI@Z			; icu_56::UObject::`scalar deleting destructor'
EXTRN	??3UMemory@icu_56@@SAXPAX@Z:PROC		; icu_56::UMemory::operator delete
EXTRN	??1UObject@icu_56@@UAE@XZ:PROC			; icu_56::UObject::~UObject
EXTRN	__RTC_CheckEsp:PROC
; Function compile flags: /Odtp /RTCsu /ZI
;	COMDAT ??_GUObject@icu_56@@UAEPAXI@Z
_TEXT	SEGMENT
_this$ = -8						; size = 4
___flags$ = 8						; size = 4
??_GUObject@icu_56@@UAEPAXI@Z PROC			; icu_56::UObject::`scalar deleting destructor', COMDAT
; _this$ = ecx
	push	ebp
	mov	ebp, esp
	sub	esp, 204				; 000000ccH
	push	ebx
	push	esi
	push	edi
	push	ecx
	lea	edi, DWORD PTR [ebp-204]
	mov	ecx, 51					; 00000033H
	mov	eax, -858993460				; ccccccccH
	rep stosd
	pop	ecx
	mov	DWORD PTR _this$[ebp], ecx
	mov	ecx, DWORD PTR _this$[ebp]
	call	??1UObject@icu_56@@UAE@XZ		; icu_56::UObject::~UObject
	mov	eax, DWORD PTR ___flags$[ebp]
	and	eax, 1
	je	SHORT $LN1@scalar
	mov	eax, DWORD PTR _this$[ebp]
	push	eax
	call	??3UMemory@icu_56@@SAXPAX@Z		; icu_56::UMemory::operator delete
	add	esp, 4
$LN1@scalar:
	mov	eax, DWORD PTR _this$[ebp]
	pop	edi
	pop	esi
	pop	ebx
	add	esp, 204				; 000000ccH
	cmp	ebp, esp
	call	__RTC_CheckEsp
	mov	esp, ebp
	pop	ebp
	ret	4
??_GUObject@icu_56@@UAEPAXI@Z ENDP			; icu_56::UObject::`scalar deleting destructor'
_TEXT	ENDS
EXTRN	??_VUMemory@icu_56@@SAXPAX@Z:PROC		; icu_56::UMemory::operator delete[]
EXTRN	??_M@YGXPAXIHP6EX0@Z@Z:PROC			; `eh vector destructor iterator'
; Function compile flags: /Odtp /RTCsu /ZI
;	COMDAT ??_EUObject@icu_56@@UAEPAXI@Z
_TEXT	SEGMENT
_this$ = -8						; size = 4
___flags$ = 8						; size = 4
??_EUObject@icu_56@@UAEPAXI@Z PROC			; icu_56::UObject::`vector deleting destructor', COMDAT
; _this$ = ecx
	push	ebp
	mov	ebp, esp
	sub	esp, 204				; 000000ccH
	push	ebx
	push	esi
	push	edi
	push	ecx
	lea	edi, DWORD PTR [ebp-204]
	mov	ecx, 51					; 00000033H
	mov	eax, -858993460				; ccccccccH
	rep stosd
	pop	ecx
	mov	DWORD PTR _this$[ebp], ecx
	mov	eax, DWORD PTR ___flags$[ebp]
	and	eax, 2
	je	SHORT $LN3@vector
	push	OFFSET ??1UObject@icu_56@@UAE@XZ	; icu_56::UObject::~UObject
	mov	eax, DWORD PTR _this$[ebp]
	mov	ecx, DWORD PTR [eax-4]
	push	ecx
	push	4
	mov	edx, DWORD PTR _this$[ebp]
	push	edx
	call	??_M@YGXPAXIHP6EX0@Z@Z
	mov	eax, DWORD PTR ___flags$[ebp]
	and	eax, 1
	je	SHORT $LN2@vector
	mov	eax, DWORD PTR _this$[ebp]
	sub	eax, 4
	push	eax
	call	??_VUMemory@icu_56@@SAXPAX@Z		; icu_56::UMemory::operator delete[]
	add	esp, 4
$LN2@vector:
	mov	eax, DWORD PTR _this$[ebp]
	sub	eax, 4
	jmp	SHORT $LN4@vector
$LN3@vector:
	mov	ecx, DWORD PTR _this$[ebp]
	call	??1UObject@icu_56@@UAE@XZ		; icu_56::UObject::~UObject
	mov	eax, DWORD PTR ___flags$[ebp]
	and	eax, 1
	je	SHORT $LN1@vector
	mov	eax, DWORD PTR _this$[ebp]
	push	eax
	call	??3UMemory@icu_56@@SAXPAX@Z		; icu_56::UMemory::operator delete
	add	esp, 4
$LN1@vector:
	mov	eax, DWORD PTR _this$[ebp]
$LN4@vector:
	pop	edi
	pop	esi
	pop	ebx
	add	esp, 204				; 000000ccH
	cmp	ebp, esp
	call	__RTC_CheckEsp
	mov	esp, ebp
	pop	ebp
	ret	4
??_EUObject@icu_56@@UAEPAXI@Z ENDP			; icu_56::UObject::`vector deleting destructor'
_TEXT	ENDS
PUBLIC	??_7UnicodeFunctor@icu_56@@6B@			; icu_56::UnicodeFunctor::`vftable'
PUBLIC	??0UnicodeFunctor@icu_56@@QAE@XZ		; icu_56::UnicodeFunctor::UnicodeFunctor
PUBLIC	??_R4UnicodeFunctor@icu_56@@6B@			; icu_56::UnicodeFunctor::`RTTI Complete Object Locator'
PUBLIC	??_R0?AVUnicodeFunctor@icu_56@@@8		; icu_56::UnicodeFunctor `RTTI Type Descriptor'
PUBLIC	??_R3UnicodeFunctor@icu_56@@8			; icu_56::UnicodeFunctor::`RTTI Class Hierarchy Descriptor'
PUBLIC	??_R2UnicodeFunctor@icu_56@@8			; icu_56::UnicodeFunctor::`RTTI Base Class Array'
PUBLIC	??_R1A@?0A@EA@UnicodeFunctor@icu_56@@8		; icu_56::UnicodeFunctor::`RTTI Base Class Descriptor at (0,-1,0,64)'
PUBLIC	??_EUnicodeFunctor@icu_56@@UAEPAXI@Z		; icu_56::UnicodeFunctor::`vector deleting destructor'
EXTRN	__purecall:PROC
EXTRN	?toMatcher@UnicodeFunctor@icu_56@@UBEPAVUnicodeMatcher@2@XZ:PROC ; icu_56::UnicodeFunctor::toMatcher
EXTRN	?toReplacer@UnicodeFunctor@icu_56@@UBEPAVUnicodeReplacer@2@XZ:PROC ; icu_56::UnicodeFunctor::toReplacer
;	COMDAT ??_R1A@?0A@EA@UnicodeFunctor@icu_56@@8
rdata$r	SEGMENT
??_R1A@?0A@EA@UnicodeFunctor@icu_56@@8 DD FLAT:??_R0?AVUnicodeFunctor@icu_56@@@8 ; icu_56::UnicodeFunctor::`RTTI Base Class Descriptor at (0,-1,0,64)'
	DD	02H
	DD	00H
	DD	0ffffffffH
	DD	00H
	DD	040H
	DD	FLAT:??_R3UnicodeFunctor@icu_56@@8
rdata$r	ENDS
;	COMDAT ??_R2UnicodeFunctor@icu_56@@8
rdata$r	SEGMENT
??_R2UnicodeFunctor@icu_56@@8 DD FLAT:??_R1A@?0A@EA@UnicodeFunctor@icu_56@@8 ; icu_56::UnicodeFunctor::`RTTI Base Class Array'
	DD	FLAT:??_R1A@?0A@EA@UObject@icu_56@@8
	DD	FLAT:??_R13?0A@EA@UMemory@icu_56@@8
rdata$r	ENDS
;	COMDAT ??_R3UnicodeFunctor@icu_56@@8
rdata$r	SEGMENT
??_R3UnicodeFunctor@icu_56@@8 DD 00H			; icu_56::UnicodeFunctor::`RTTI Class Hierarchy Descriptor'
	DD	00H
	DD	03H
	DD	FLAT:??_R2UnicodeFunctor@icu_56@@8
rdata$r	ENDS
;	COMDAT ??_R0?AVUnicodeFunctor@icu_56@@@8
_DATA	SEGMENT
??_R0?AVUnicodeFunctor@icu_56@@@8 DD FLAT:??_7type_info@@6B@ ; icu_56::UnicodeFunctor `RTTI Type Descriptor'
	DD	00H
	DB	'.?AVUnicodeFunctor@icu_56@@', 00H
_DATA	ENDS
;	COMDAT ??_R4UnicodeFunctor@icu_56@@6B@
rdata$r	SEGMENT
??_R4UnicodeFunctor@icu_56@@6B@ DD 00H			; icu_56::UnicodeFunctor::`RTTI Complete Object Locator'
	DD	00H
	DD	00H
	DD	FLAT:??_R0?AVUnicodeFunctor@icu_56@@@8
	DD	FLAT:??_R3UnicodeFunctor@icu_56@@8
rdata$r	ENDS
;	COMDAT ??_7UnicodeFunctor@icu_56@@6B@
CONST	SEGMENT
??_7UnicodeFunctor@icu_56@@6B@ DD FLAT:??_R4UnicodeFunctor@icu_56@@6B@ ; icu_56::UnicodeFunctor::`vftable'
	DD	FLAT:??_EUnicodeFunctor@icu_56@@UAEPAXI@Z
	DD	FLAT:__purecall
	DD	FLAT:__purecall
	DD	FLAT:?toMatcher@UnicodeFunctor@icu_56@@UBEPAVUnicodeMatcher@2@XZ
	DD	FLAT:?toReplacer@UnicodeFunctor@icu_56@@UBEPAVUnicodeReplacer@2@XZ
	DD	FLAT:__purecall
; Function compile flags: /Odtp /RTCsu /ZI
CONST	ENDS
;	COMDAT ??0UnicodeFunctor@icu_56@@QAE@XZ
_TEXT	SEGMENT
_this$ = -8						; size = 4
??0UnicodeFunctor@icu_56@@QAE@XZ PROC			; icu_56::UnicodeFunctor::UnicodeFunctor, COMDAT
; _this$ = ecx
	push	ebp
	mov	ebp, esp
	sub	esp, 204				; 000000ccH
	push	ebx
	push	esi
	push	edi
	push	ecx
	lea	edi, DWORD PTR [ebp-204]
	mov	ecx, 51					; 00000033H
	mov	eax, -858993460				; ccccccccH
	rep stosd
	pop	ecx
	mov	DWORD PTR _this$[ebp], ecx
	mov	ecx, DWORD PTR _this$[ebp]
	call	??0UObject@icu_56@@QAE@XZ
	mov	eax, DWORD PTR _this$[ebp]
	mov	DWORD PTR [eax], OFFSET ??_7UnicodeFunctor@icu_56@@6B@
	mov	eax, DWORD PTR _this$[ebp]
	pop	edi
	pop	esi
	pop	ebx
	add	esp, 204				; 000000ccH
	cmp	ebp, esp
	call	__RTC_CheckEsp
	mov	esp, ebp
	pop	ebp
	ret	0
??0UnicodeFunctor@icu_56@@QAE@XZ ENDP			; icu_56::UnicodeFunctor::UnicodeFunctor
_TEXT	ENDS
PUBLIC	??0UnicodeFunctor@icu_56@@QAE@ABV01@@Z		; icu_56::UnicodeFunctor::UnicodeFunctor
; Function compile flags: /Odtp /RTCsu /ZI
;	COMDAT ??0UnicodeFunctor@icu_56@@QAE@ABV01@@Z
_TEXT	SEGMENT
_this$ = -8						; size = 4
___that$ = 8						; size = 4
??0UnicodeFunctor@icu_56@@QAE@ABV01@@Z PROC		; icu_56::UnicodeFunctor::UnicodeFunctor, COMDAT
; _this$ = ecx
	push	ebp
	mov	ebp, esp
	sub	esp, 204				; 000000ccH
	push	ebx
	push	esi
	push	edi
	push	ecx
	lea	edi, DWORD PTR [ebp-204]
	mov	ecx, 51					; 00000033H
	mov	eax, -858993460				; ccccccccH
	rep stosd
	pop	ecx
	mov	DWORD PTR _this$[ebp], ecx
	mov	eax, DWORD PTR ___that$[ebp]
	push	eax
	mov	ecx, DWORD PTR _this$[ebp]
	call	??0UObject@icu_56@@QAE@ABV01@@Z
	mov	eax, DWORD PTR _this$[ebp]
	mov	DWORD PTR [eax], OFFSET ??_7UnicodeFunctor@icu_56@@6B@
	mov	eax, DWORD PTR _this$[ebp]
	pop	edi
	pop	esi
	pop	ebx
	add	esp, 204				; 000000ccH
	cmp	ebp, esp
	call	__RTC_CheckEsp
	mov	esp, ebp
	pop	ebp
	ret	4
??0UnicodeFunctor@icu_56@@QAE@ABV01@@Z ENDP		; icu_56::UnicodeFunctor::UnicodeFunctor
_TEXT	ENDS
PUBLIC	??4UnicodeFunctor@icu_56@@QAEAAV01@ABV01@@Z	; icu_56::UnicodeFunctor::operator=
; Function compile flags: /Odtp /RTCsu /ZI
;	COMDAT ??4UnicodeFunctor@icu_56@@QAEAAV01@ABV01@@Z
_TEXT	SEGMENT
_this$ = -8						; size = 4
___that$ = 8						; size = 4
??4UnicodeFunctor@icu_56@@QAEAAV01@ABV01@@Z PROC	; icu_56::UnicodeFunctor::operator=, COMDAT
; _this$ = ecx
	push	ebp
	mov	ebp, esp
	sub	esp, 204				; 000000ccH
	push	ebx
	push	esi
	push	edi
	push	ecx
	lea	edi, DWORD PTR [ebp-204]
	mov	ecx, 51					; 00000033H
	mov	eax, -858993460				; ccccccccH
	rep stosd
	pop	ecx
	mov	DWORD PTR _this$[ebp], ecx
	mov	eax, DWORD PTR ___that$[ebp]
	push	eax
	mov	ecx, DWORD PTR _this$[ebp]
	call	??4UObject@icu_56@@QAEAAV01@ABV01@@Z
	mov	eax, DWORD PTR _this$[ebp]
	pop	edi
	pop	esi
	pop	ebx
	add	esp, 204				; 000000ccH
	cmp	ebp, esp
	call	__RTC_CheckEsp
	mov	esp, ebp
	pop	ebp
	ret	4
??4UnicodeFunctor@icu_56@@QAEAAV01@ABV01@@Z ENDP	; icu_56::UnicodeFunctor::operator=
_TEXT	ENDS
PUBLIC	??_GUnicodeFunctor@icu_56@@UAEPAXI@Z		; icu_56::UnicodeFunctor::`scalar deleting destructor'
EXTRN	??1UnicodeFunctor@icu_56@@UAE@XZ:PROC		; icu_56::UnicodeFunctor::~UnicodeFunctor
; Function compile flags: /Odtp /RTCsu /ZI
;	COMDAT ??_GUnicodeFunctor@icu_56@@UAEPAXI@Z
_TEXT	SEGMENT
_this$ = -8						; size = 4
___flags$ = 8						; size = 4
??_GUnicodeFunctor@icu_56@@UAEPAXI@Z PROC		; icu_56::UnicodeFunctor::`scalar deleting destructor', COMDAT
; _this$ = ecx
	push	ebp
	mov	ebp, esp
	sub	esp, 204				; 000000ccH
	push	ebx
	push	esi
	push	edi
	push	ecx
	lea	edi, DWORD PTR [ebp-204]
	mov	ecx, 51					; 00000033H
	mov	eax, -858993460				; ccccccccH
	rep stosd
	pop	ecx
	mov	DWORD PTR _this$[ebp], ecx
	mov	ecx, DWORD PTR _this$[ebp]
	call	??1UnicodeFunctor@icu_56@@UAE@XZ	; icu_56::UnicodeFunctor::~UnicodeFunctor
	mov	eax, DWORD PTR ___flags$[ebp]
	and	eax, 1
	je	SHORT $LN1@scalar@2
	mov	eax, DWORD PTR _this$[ebp]
	push	eax
	call	??3UMemory@icu_56@@SAXPAX@Z		; icu_56::UMemory::operator delete
	add	esp, 4
$LN1@scalar@2:
	mov	eax, DWORD PTR _this$[ebp]
	pop	edi
	pop	esi
	pop	ebx
	add	esp, 204				; 000000ccH
	cmp	ebp, esp
	call	__RTC_CheckEsp
	mov	esp, ebp
	pop	ebp
	ret	4
??_GUnicodeFunctor@icu_56@@UAEPAXI@Z ENDP		; icu_56::UnicodeFunctor::`scalar deleting destructor'
; Function compile flags: /Odtp /RTCsu /ZI
_TEXT	ENDS
;	COMDAT ??_EUnicodeFunctor@icu_56@@UAEPAXI@Z
_TEXT	SEGMENT
_this$ = -8						; size = 4
___flags$ = 8						; size = 4
??_EUnicodeFunctor@icu_56@@UAEPAXI@Z PROC		; icu_56::UnicodeFunctor::`vector deleting destructor', COMDAT
; _this$ = ecx
	push	ebp
	mov	ebp, esp
	sub	esp, 204				; 000000ccH
	push	ebx
	push	esi
	push	edi
	push	ecx
	lea	edi, DWORD PTR [ebp-204]
	mov	ecx, 51					; 00000033H
	mov	eax, -858993460				; ccccccccH
	rep stosd
	pop	ecx
	mov	DWORD PTR _this$[ebp], ecx
	mov	eax, DWORD PTR ___flags$[ebp]
	and	eax, 2
	je	SHORT $LN3@vector@2
	push	OFFSET ??1UnicodeFunctor@icu_56@@UAE@XZ	; icu_56::UnicodeFunctor::~UnicodeFunctor
	mov	eax, DWORD PTR _this$[ebp]
	mov	ecx, DWORD PTR [eax-4]
	push	ecx
	push	4
	mov	edx, DWORD PTR _this$[ebp]
	push	edx
	call	??_M@YGXPAXIHP6EX0@Z@Z
	mov	eax, DWORD PTR ___flags$[ebp]
	and	eax, 1
	je	SHORT $LN2@vector@2
	mov	eax, DWORD PTR _this$[ebp]
	sub	eax, 4
	push	eax
	call	??_VUMemory@icu_56@@SAXPAX@Z		; icu_56::UMemory::operator delete[]
	add	esp, 4
$LN2@vector@2:
	mov	eax, DWORD PTR _this$[ebp]
	sub	eax, 4
	jmp	SHORT $LN4@vector@2
$LN3@vector@2:
	mov	ecx, DWORD PTR _this$[ebp]
	call	??1UnicodeFunctor@icu_56@@UAE@XZ	; icu_56::UnicodeFunctor::~UnicodeFunctor
	mov	eax, DWORD PTR ___flags$[ebp]
	and	eax, 1
	je	SHORT $LN1@vector@2
	mov	eax, DWORD PTR _this$[ebp]
	push	eax
	call	??3UMemory@icu_56@@SAXPAX@Z		; icu_56::UMemory::operator delete
	add	esp, 4
$LN1@vector@2:
	mov	eax, DWORD PTR _this$[ebp]
$LN4@vector@2:
	pop	edi
	pop	esi
	pop	ebx
	add	esp, 204				; 000000ccH
	cmp	ebp, esp
	call	__RTC_CheckEsp
	mov	esp, ebp
	pop	ebp
	ret	4
??_EUnicodeFunctor@icu_56@@UAEPAXI@Z ENDP		; icu_56::UnicodeFunctor::`vector deleting destructor'
_TEXT	ENDS
PUBLIC	??_7UnicodeMatcher@icu_56@@6B@			; icu_56::UnicodeMatcher::`vftable'
PUBLIC	??0UnicodeMatcher@icu_56@@QAE@XZ		; icu_56::UnicodeMatcher::UnicodeMatcher
PUBLIC	??_R4UnicodeMatcher@icu_56@@6B@			; icu_56::UnicodeMatcher::`RTTI Complete Object Locator'
PUBLIC	??_R0?AVUnicodeMatcher@icu_56@@@8		; icu_56::UnicodeMatcher `RTTI Type Descriptor'
PUBLIC	??_R3UnicodeMatcher@icu_56@@8			; icu_56::UnicodeMatcher::`RTTI Class Hierarchy Descriptor'
PUBLIC	??_R2UnicodeMatcher@icu_56@@8			; icu_56::UnicodeMatcher::`RTTI Base Class Array'
PUBLIC	??_R1A@?0A@EA@UnicodeMatcher@icu_56@@8		; icu_56::UnicodeMatcher::`RTTI Base Class Descriptor at (0,-1,0,64)'
PUBLIC	??_EUnicodeMatcher@icu_56@@UAEPAXI@Z		; icu_56::UnicodeMatcher::`vector deleting destructor'
;	COMDAT ??_R1A@?0A@EA@UnicodeMatcher@icu_56@@8
rdata$r	SEGMENT
??_R1A@?0A@EA@UnicodeMatcher@icu_56@@8 DD FLAT:??_R0?AVUnicodeMatcher@icu_56@@@8 ; icu_56::UnicodeMatcher::`RTTI Base Class Descriptor at (0,-1,0,64)'
	DD	00H
	DD	00H
	DD	0ffffffffH
	DD	00H
	DD	040H
	DD	FLAT:??_R3UnicodeMatcher@icu_56@@8
rdata$r	ENDS
;	COMDAT ??_R2UnicodeMatcher@icu_56@@8
rdata$r	SEGMENT
??_R2UnicodeMatcher@icu_56@@8 DD FLAT:??_R1A@?0A@EA@UnicodeMatcher@icu_56@@8 ; icu_56::UnicodeMatcher::`RTTI Base Class Array'
rdata$r	ENDS
;	COMDAT ??_R3UnicodeMatcher@icu_56@@8
rdata$r	SEGMENT
??_R3UnicodeMatcher@icu_56@@8 DD 00H			; icu_56::UnicodeMatcher::`RTTI Class Hierarchy Descriptor'
	DD	00H
	DD	01H
	DD	FLAT:??_R2UnicodeMatcher@icu_56@@8
rdata$r	ENDS
;	COMDAT ??_R0?AVUnicodeMatcher@icu_56@@@8
_DATA	SEGMENT
??_R0?AVUnicodeMatcher@icu_56@@@8 DD FLAT:??_7type_info@@6B@ ; icu_56::UnicodeMatcher `RTTI Type Descriptor'
	DD	00H
	DB	'.?AVUnicodeMatcher@icu_56@@', 00H
_DATA	ENDS
;	COMDAT ??_R4UnicodeMatcher@icu_56@@6B@
rdata$r	SEGMENT
??_R4UnicodeMatcher@icu_56@@6B@ DD 00H			; icu_56::UnicodeMatcher::`RTTI Complete Object Locator'
	DD	00H
	DD	00H
	DD	FLAT:??_R0?AVUnicodeMatcher@icu_56@@@8
	DD	FLAT:??_R3UnicodeMatcher@icu_56@@8
rdata$r	ENDS
;	COMDAT ??_7UnicodeMatcher@icu_56@@6B@
CONST	SEGMENT
??_7UnicodeMatcher@icu_56@@6B@ DD FLAT:??_R4UnicodeMatcher@icu_56@@6B@ ; icu_56::UnicodeMatcher::`vftable'
	DD	FLAT:??_EUnicodeMatcher@icu_56@@UAEPAXI@Z
	DD	FLAT:__purecall
	DD	FLAT:__purecall
	DD	FLAT:__purecall
	DD	FLAT:__purecall
; Function compile flags: /Odtp /RTCsu /ZI
CONST	ENDS
;	COMDAT ??0UnicodeMatcher@icu_56@@QAE@XZ
_TEXT	SEGMENT
_this$ = -8						; size = 4
??0UnicodeMatcher@icu_56@@QAE@XZ PROC			; icu_56::UnicodeMatcher::UnicodeMatcher, COMDAT
; _this$ = ecx
	push	ebp
	mov	ebp, esp
	sub	esp, 204				; 000000ccH
	push	ebx
	push	esi
	push	edi
	push	ecx
	lea	edi, DWORD PTR [ebp-204]
	mov	ecx, 51					; 00000033H
	mov	eax, -858993460				; ccccccccH
	rep stosd
	pop	ecx
	mov	DWORD PTR _this$[ebp], ecx
	mov	eax, DWORD PTR _this$[ebp]
	mov	DWORD PTR [eax], OFFSET ??_7UnicodeMatcher@icu_56@@6B@
	mov	eax, DWORD PTR _this$[ebp]
	pop	edi
	pop	esi
	pop	ebx
	mov	esp, ebp
	pop	ebp
	ret	0
??0UnicodeMatcher@icu_56@@QAE@XZ ENDP			; icu_56::UnicodeMatcher::UnicodeMatcher
_TEXT	ENDS
PUBLIC	??0UnicodeMatcher@icu_56@@QAE@ABV01@@Z		; icu_56::UnicodeMatcher::UnicodeMatcher
; Function compile flags: /Odtp /RTCsu /ZI
;	COMDAT ??0UnicodeMatcher@icu_56@@QAE@ABV01@@Z
_TEXT	SEGMENT
_this$ = -8						; size = 4
___that$ = 8						; size = 4
??0UnicodeMatcher@icu_56@@QAE@ABV01@@Z PROC		; icu_56::UnicodeMatcher::UnicodeMatcher, COMDAT
; _this$ = ecx
	push	ebp
	mov	ebp, esp
	sub	esp, 204				; 000000ccH
	push	ebx
	push	esi
	push	edi
	push	ecx
	lea	edi, DWORD PTR [ebp-204]
	mov	ecx, 51					; 00000033H
	mov	eax, -858993460				; ccccccccH
	rep stosd
	pop	ecx
	mov	DWORD PTR _this$[ebp], ecx
	mov	eax, DWORD PTR _this$[ebp]
	mov	DWORD PTR [eax], OFFSET ??_7UnicodeMatcher@icu_56@@6B@
	mov	eax, DWORD PTR _this$[ebp]
	pop	edi
	pop	esi
	pop	ebx
	mov	esp, ebp
	pop	ebp
	ret	4
??0UnicodeMatcher@icu_56@@QAE@ABV01@@Z ENDP		; icu_56::UnicodeMatcher::UnicodeMatcher
_TEXT	ENDS
PUBLIC	??4UnicodeMatcher@icu_56@@QAEAAV01@ABV01@@Z	; icu_56::UnicodeMatcher::operator=
; Function compile flags: /Odtp /RTCsu /ZI
;	COMDAT ??4UnicodeMatcher@icu_56@@QAEAAV01@ABV01@@Z
_TEXT	SEGMENT
_this$ = -8						; size = 4
___that$ = 8						; size = 4
??4UnicodeMatcher@icu_56@@QAEAAV01@ABV01@@Z PROC	; icu_56::UnicodeMatcher::operator=, COMDAT
; _this$ = ecx
	push	ebp
	mov	ebp, esp
	sub	esp, 204				; 000000ccH
	push	ebx
	push	esi
	push	edi
	push	ecx
	lea	edi, DWORD PTR [ebp-204]
	mov	ecx, 51					; 00000033H
	mov	eax, -858993460				; ccccccccH
	rep stosd
	pop	ecx
	mov	DWORD PTR _this$[ebp], ecx
	mov	eax, DWORD PTR _this$[ebp]
	pop	edi
	pop	esi
	pop	ebx
	mov	esp, ebp
	pop	ebp
	ret	4
??4UnicodeMatcher@icu_56@@QAEAAV01@ABV01@@Z ENDP	; icu_56::UnicodeMatcher::operator=
_TEXT	ENDS
PUBLIC	??_GUnicodeMatcher@icu_56@@UAEPAXI@Z		; icu_56::UnicodeMatcher::`scalar deleting destructor'
EXTRN	??1UnicodeMatcher@icu_56@@UAE@XZ:PROC		; icu_56::UnicodeMatcher::~UnicodeMatcher
; Function compile flags: /Odtp /RTCsu /ZI
;	COMDAT ??_GUnicodeMatcher@icu_56@@UAEPAXI@Z
_TEXT	SEGMENT
_this$ = -8						; size = 4
___flags$ = 8						; size = 4
??_GUnicodeMatcher@icu_56@@UAEPAXI@Z PROC		; icu_56::UnicodeMatcher::`scalar deleting destructor', COMDAT
; _this$ = ecx
	push	ebp
	mov	ebp, esp
	sub	esp, 204				; 000000ccH
	push	ebx
	push	esi
	push	edi
	push	ecx
	lea	edi, DWORD PTR [ebp-204]
	mov	ecx, 51					; 00000033H
	mov	eax, -858993460				; ccccccccH
	rep stosd
	pop	ecx
	mov	DWORD PTR _this$[ebp], ecx
	mov	ecx, DWORD PTR _this$[ebp]
	call	??1UnicodeMatcher@icu_56@@UAE@XZ	; icu_56::UnicodeMatcher::~UnicodeMatcher
	mov	eax, DWORD PTR ___flags$[ebp]
	and	eax, 1
	je	SHORT $LN1@scalar@3
	mov	eax, DWORD PTR _this$[ebp]
	push	eax
	call	??3@YAXPAX@Z				; operator delete
	add	esp, 4
$LN1@scalar@3:
	mov	eax, DWORD PTR _this$[ebp]
	pop	edi
	pop	esi
	pop	ebx
	add	esp, 204				; 000000ccH
	cmp	ebp, esp
	call	__RTC_CheckEsp
	mov	esp, ebp
	pop	ebp
	ret	4
??_GUnicodeMatcher@icu_56@@UAEPAXI@Z ENDP		; icu_56::UnicodeMatcher::`scalar deleting destructor'
_TEXT	ENDS
PUBLIC	??_V@YAXPAX@Z					; operator delete[]
; Function compile flags: /Odtp /RTCsu /ZI
;	COMDAT ??_EUnicodeMatcher@icu_56@@UAEPAXI@Z
_TEXT	SEGMENT
_this$ = -8						; size = 4
___flags$ = 8						; size = 4
??_EUnicodeMatcher@icu_56@@UAEPAXI@Z PROC		; icu_56::UnicodeMatcher::`vector deleting destructor', COMDAT
; _this$ = ecx
	push	ebp
	mov	ebp, esp
	sub	esp, 204				; 000000ccH
	push	ebx
	push	esi
	push	edi
	push	ecx
	lea	edi, DWORD PTR [ebp-204]
	mov	ecx, 51					; 00000033H
	mov	eax, -858993460				; ccccccccH
	rep stosd
	pop	ecx
	mov	DWORD PTR _this$[ebp], ecx
	mov	eax, DWORD PTR ___flags$[ebp]
	and	eax, 2
	je	SHORT $LN3@vector@3
	push	OFFSET ??1UnicodeMatcher@icu_56@@UAE@XZ	; icu_56::UnicodeMatcher::~UnicodeMatcher
	mov	eax, DWORD PTR _this$[ebp]
	mov	ecx, DWORD PTR [eax-4]
	push	ecx
	push	4
	mov	edx, DWORD PTR _this$[ebp]
	push	edx
	call	??_M@YGXPAXIHP6EX0@Z@Z
	mov	eax, DWORD PTR ___flags$[ebp]
	and	eax, 1
	je	SHORT $LN2@vector@3
	mov	eax, DWORD PTR _this$[ebp]
	sub	eax, 4
	push	eax
	call	??_V@YAXPAX@Z				; operator delete[]
	add	esp, 4
$LN2@vector@3:
	mov	eax, DWORD PTR _this$[ebp]
	sub	eax, 4
	jmp	SHORT $LN4@vector@3
$LN3@vector@3:
	mov	ecx, DWORD PTR _this$[ebp]
	call	??1UnicodeMatcher@icu_56@@UAE@XZ	; icu_56::UnicodeMatcher::~UnicodeMatcher
	mov	eax, DWORD PTR ___flags$[ebp]
	and	eax, 1
	je	SHORT $LN1@vector@3
	mov	eax, DWORD PTR _this$[ebp]
	push	eax
	call	??3@YAXPAX@Z				; operator delete
	add	esp, 4
$LN1@vector@3:
	mov	eax, DWORD PTR _this$[ebp]
$LN4@vector@3:
	pop	edi
	pop	esi
	pop	ebx
	add	esp, 204				; 000000ccH
	cmp	ebp, esp
	call	__RTC_CheckEsp
	mov	esp, ebp
	pop	ebp
	ret	4
??_EUnicodeMatcher@icu_56@@UAEPAXI@Z ENDP		; icu_56::UnicodeMatcher::`vector deleting destructor'
; Function compile flags: /Odtp /RTCsu /ZI
_TEXT	ENDS
;	COMDAT ??_V@YAXPAX@Z
_TEXT	SEGMENT
_q$ = -8						; size = 4
___formal$ = 8						; size = 4
??_V@YAXPAX@Z PROC					; operator delete[], COMDAT
; File d:\mozilla\intl\icu\source\common\unicode\utypes.h
; Line 450
	push	ebp
	mov	ebp, esp
	sub	esp, 204				; 000000ccH
	push	ebx
	push	esi
	push	edi
	lea	edi, DWORD PTR [ebp-204]
	mov	ecx, 51					; 00000033H
	mov	eax, -858993460				; ccccccccH
	rep stosd
; Line 451
	mov	DWORD PTR _q$[ebp], 0
; Line 452
	mov	eax, DWORD PTR _q$[ebp]
	mov	BYTE PTR [eax], 5
; Line 453
	pop	edi
	pop	esi
	pop	ebx
	mov	esp, ebp
	pop	ebp
	ret	0
??_V@YAXPAX@Z ENDP					; operator delete[]
_TEXT	ENDS
PUBLIC	??_7UnicodeFilter@icu_56@@6BUnicodeMatcher@1@@	; icu_56::UnicodeFilter::`vftable'
PUBLIC	??_7UnicodeFilter@icu_56@@6BUnicodeFunctor@1@@	; icu_56::UnicodeFilter::`vftable'
PUBLIC	??0UnicodeFilter@icu_56@@QAE@XZ			; icu_56::UnicodeFilter::UnicodeFilter
PUBLIC	??_R4UnicodeFilter@icu_56@@6BUnicodeFunctor@1@@	; icu_56::UnicodeFilter::`RTTI Complete Object Locator'
PUBLIC	??_R0?AVUnicodeFilter@icu_56@@@8		; icu_56::UnicodeFilter `RTTI Type Descriptor'
PUBLIC	??_R3UnicodeFilter@icu_56@@8			; icu_56::UnicodeFilter::`RTTI Class Hierarchy Descriptor'
PUBLIC	??_R2UnicodeFilter@icu_56@@8			; icu_56::UnicodeFilter::`RTTI Base Class Array'
PUBLIC	??_R1A@?0A@EA@UnicodeFilter@icu_56@@8		; icu_56::UnicodeFilter::`RTTI Base Class Descriptor at (0,-1,0,64)'
PUBLIC	??_R13?0A@EA@UnicodeMatcher@icu_56@@8		; icu_56::UnicodeMatcher::`RTTI Base Class Descriptor at (4,-1,0,64)'
PUBLIC	??_EUnicodeFilter@icu_56@@UAEPAXI@Z		; icu_56::UnicodeFilter::`vector deleting destructor'
PUBLIC	??_R4UnicodeFilter@icu_56@@6BUnicodeMatcher@1@@	; icu_56::UnicodeFilter::`RTTI Complete Object Locator'
PUBLIC	??_EUnicodeFilter@icu_56@@W3AEPAXI@Z		; [thunk]:icu_56::UnicodeFilter::`vector deleting destructor'
EXTRN	?toMatcher@UnicodeFilter@icu_56@@UBEPAVUnicodeMatcher@2@XZ:PROC ; icu_56::UnicodeFilter::toMatcher
EXTRN	?setData@UnicodeFilter@icu_56@@UAEXPBVTransliterationRuleData@2@@Z:PROC ; icu_56::UnicodeFilter::setData
EXTRN	?matches@UnicodeFilter@icu_56@@UAE?AW4UMatchDegree@2@ABVReplaceable@2@AAHHC@Z:PROC ; icu_56::UnicodeFilter::matches
;	COMDAT ??_R4UnicodeFilter@icu_56@@6BUnicodeMatcher@1@@
rdata$r	SEGMENT
??_R4UnicodeFilter@icu_56@@6BUnicodeMatcher@1@@ DD 00H	; icu_56::UnicodeFilter::`RTTI Complete Object Locator'
	DD	04H
	DD	00H
	DD	FLAT:??_R0?AVUnicodeFilter@icu_56@@@8
	DD	FLAT:??_R3UnicodeFilter@icu_56@@8
rdata$r	ENDS
;	COMDAT ??_R13?0A@EA@UnicodeMatcher@icu_56@@8
rdata$r	SEGMENT
??_R13?0A@EA@UnicodeMatcher@icu_56@@8 DD FLAT:??_R0?AVUnicodeMatcher@icu_56@@@8 ; icu_56::UnicodeMatcher::`RTTI Base Class Descriptor at (4,-1,0,64)'
	DD	00H
	DD	04H
	DD	0ffffffffH
	DD	00H
	DD	040H
	DD	FLAT:??_R3UnicodeMatcher@icu_56@@8
rdata$r	ENDS
;	COMDAT ??_R1A@?0A@EA@UnicodeFilter@icu_56@@8
rdata$r	SEGMENT
??_R1A@?0A@EA@UnicodeFilter@icu_56@@8 DD FLAT:??_R0?AVUnicodeFilter@icu_56@@@8 ; icu_56::UnicodeFilter::`RTTI Base Class Descriptor at (0,-1,0,64)'
	DD	04H
	DD	00H
	DD	0ffffffffH
	DD	00H
	DD	040H
	DD	FLAT:??_R3UnicodeFilter@icu_56@@8
rdata$r	ENDS
;	COMDAT ??_R2UnicodeFilter@icu_56@@8
rdata$r	SEGMENT
??_R2UnicodeFilter@icu_56@@8 DD FLAT:??_R1A@?0A@EA@UnicodeFilter@icu_56@@8 ; icu_56::UnicodeFilter::`RTTI Base Class Array'
	DD	FLAT:??_R1A@?0A@EA@UnicodeFunctor@icu_56@@8
	DD	FLAT:??_R1A@?0A@EA@UObject@icu_56@@8
	DD	FLAT:??_R13?0A@EA@UMemory@icu_56@@8
	DD	FLAT:??_R13?0A@EA@UnicodeMatcher@icu_56@@8
rdata$r	ENDS
;	COMDAT ??_R3UnicodeFilter@icu_56@@8
rdata$r	SEGMENT
??_R3UnicodeFilter@icu_56@@8 DD 00H			; icu_56::UnicodeFilter::`RTTI Class Hierarchy Descriptor'
	DD	01H
	DD	05H
	DD	FLAT:??_R2UnicodeFilter@icu_56@@8
rdata$r	ENDS
;	COMDAT ??_R0?AVUnicodeFilter@icu_56@@@8
_DATA	SEGMENT
??_R0?AVUnicodeFilter@icu_56@@@8 DD FLAT:??_7type_info@@6B@ ; icu_56::UnicodeFilter `RTTI Type Descriptor'
	DD	00H
	DB	'.?AVUnicodeFilter@icu_56@@', 00H
_DATA	ENDS
;	COMDAT ??_R4UnicodeFilter@icu_56@@6BUnicodeFunctor@1@@
rdata$r	SEGMENT
??_R4UnicodeFilter@icu_56@@6BUnicodeFunctor@1@@ DD 00H	; icu_56::UnicodeFilter::`RTTI Complete Object Locator'
	DD	00H
	DD	00H
	DD	FLAT:??_R0?AVUnicodeFilter@icu_56@@@8
	DD	FLAT:??_R3UnicodeFilter@icu_56@@8
rdata$r	ENDS
;	COMDAT ??_7UnicodeFilter@icu_56@@6BUnicodeMatcher@1@@
CONST	SEGMENT
??_7UnicodeFilter@icu_56@@6BUnicodeMatcher@1@@ DD FLAT:??_R4UnicodeFilter@icu_56@@6BUnicodeMatcher@1@@ ; icu_56::UnicodeFilter::`vftable'
	DD	FLAT:??_EUnicodeFilter@icu_56@@W3AEPAXI@Z
	DD	FLAT:?matches@UnicodeFilter@icu_56@@UAE?AW4UMatchDegree@2@ABVReplaceable@2@AAHHC@Z
	DD	FLAT:__purecall
	DD	FLAT:__purecall
	DD	FLAT:__purecall
CONST	ENDS
;	COMDAT ??_7UnicodeFilter@icu_56@@6BUnicodeFunctor@1@@
CONST	SEGMENT
??_7UnicodeFilter@icu_56@@6BUnicodeFunctor@1@@ DD FLAT:??_R4UnicodeFilter@icu_56@@6BUnicodeFunctor@1@@ ; icu_56::UnicodeFilter::`vftable'
	DD	FLAT:??_EUnicodeFilter@icu_56@@UAEPAXI@Z
	DD	FLAT:__purecall
	DD	FLAT:__purecall
	DD	FLAT:?toMatcher@UnicodeFilter@icu_56@@UBEPAVUnicodeMatcher@2@XZ
	DD	FLAT:?toReplacer@UnicodeFunctor@icu_56@@UBEPAVUnicodeReplacer@2@XZ
	DD	FLAT:?setData@UnicodeFilter@icu_56@@UAEXPBVTransliterationRuleData@2@@Z
	DD	FLAT:__purecall
; Function compile flags: /Odtp /RTCsu /ZI
CONST	ENDS
;	COMDAT ??0UnicodeFilter@icu_56@@QAE@XZ
_TEXT	SEGMENT
_this$ = -8						; size = 4
??0UnicodeFilter@icu_56@@QAE@XZ PROC			; icu_56::UnicodeFilter::UnicodeFilter, COMDAT
; _this$ = ecx
	push	ebp
	mov	ebp, esp
	sub	esp, 204				; 000000ccH
	push	ebx
	push	esi
	push	edi
	push	ecx
	lea	edi, DWORD PTR [ebp-204]
	mov	ecx, 51					; 00000033H
	mov	eax, -858993460				; ccccccccH
	rep stosd
	pop	ecx
	mov	DWORD PTR _this$[ebp], ecx
	mov	ecx, DWORD PTR _this$[ebp]
	call	??0UnicodeFunctor@icu_56@@QAE@XZ
	mov	ecx, DWORD PTR _this$[ebp]
	add	ecx, 4
	call	??0UnicodeMatcher@icu_56@@QAE@XZ
	mov	eax, DWORD PTR _this$[ebp]
	mov	DWORD PTR [eax], OFFSET ??_7UnicodeFilter@icu_56@@6BUnicodeFunctor@1@@
	mov	eax, DWORD PTR _this$[ebp]
	mov	DWORD PTR [eax+4], OFFSET ??_7UnicodeFilter@icu_56@@6BUnicodeMatcher@1@@
	mov	eax, DWORD PTR _this$[ebp]
	pop	edi
	pop	esi
	pop	ebx
	add	esp, 204				; 000000ccH
	cmp	ebp, esp
	call	__RTC_CheckEsp
	mov	esp, ebp
	pop	ebp
	ret	0
??0UnicodeFilter@icu_56@@QAE@XZ ENDP			; icu_56::UnicodeFilter::UnicodeFilter
_TEXT	ENDS
PUBLIC	??0UnicodeFilter@icu_56@@QAE@ABV01@@Z		; icu_56::UnicodeFilter::UnicodeFilter
; Function compile flags: /Odtp /RTCsu /ZI
;	COMDAT ??0UnicodeFilter@icu_56@@QAE@ABV01@@Z
_TEXT	SEGMENT
tv90 = -208						; size = 4
_this$ = -8						; size = 4
___that$ = 8						; size = 4
??0UnicodeFilter@icu_56@@QAE@ABV01@@Z PROC		; icu_56::UnicodeFilter::UnicodeFilter, COMDAT
; _this$ = ecx
	push	ebp
	mov	ebp, esp
	sub	esp, 208				; 000000d0H
	push	ebx
	push	esi
	push	edi
	push	ecx
	lea	edi, DWORD PTR [ebp-208]
	mov	ecx, 52					; 00000034H
	mov	eax, -858993460				; ccccccccH
	rep stosd
	pop	ecx
	mov	DWORD PTR _this$[ebp], ecx
	mov	eax, DWORD PTR ___that$[ebp]
	push	eax
	mov	ecx, DWORD PTR _this$[ebp]
	call	??0UnicodeFunctor@icu_56@@QAE@ABV01@@Z
	cmp	DWORD PTR ___that$[ebp], 0
	je	SHORT $LN3@UnicodeFil
	mov	eax, DWORD PTR ___that$[ebp]
	add	eax, 4
	mov	DWORD PTR tv90[ebp], eax
	jmp	SHORT $LN4@UnicodeFil
$LN3@UnicodeFil:
	mov	DWORD PTR tv90[ebp], 0
$LN4@UnicodeFil:
	mov	ecx, DWORD PTR tv90[ebp]
	push	ecx
	mov	ecx, DWORD PTR _this$[ebp]
	add	ecx, 4
	call	??0UnicodeMatcher@icu_56@@QAE@ABV01@@Z
	mov	eax, DWORD PTR _this$[ebp]
	mov	DWORD PTR [eax], OFFSET ??_7UnicodeFilter@icu_56@@6BUnicodeFunctor@1@@
	mov	eax, DWORD PTR _this$[ebp]
	mov	DWORD PTR [eax+4], OFFSET ??_7UnicodeFilter@icu_56@@6BUnicodeMatcher@1@@
	mov	eax, DWORD PTR _this$[ebp]
	pop	edi
	pop	esi
	pop	ebx
	add	esp, 208				; 000000d0H
	cmp	ebp, esp
	call	__RTC_CheckEsp
	mov	esp, ebp
	pop	ebp
	ret	4
??0UnicodeFilter@icu_56@@QAE@ABV01@@Z ENDP		; icu_56::UnicodeFilter::UnicodeFilter
_TEXT	ENDS
PUBLIC	??4UnicodeFilter@icu_56@@QAEAAV01@ABV01@@Z	; icu_56::UnicodeFilter::operator=
; Function compile flags: /Odtp /RTCsu /ZI
;	COMDAT ??4UnicodeFilter@icu_56@@QAEAAV01@ABV01@@Z
_TEXT	SEGMENT
tv84 = -208						; size = 4
_this$ = -8						; size = 4
___that$ = 8						; size = 4
??4UnicodeFilter@icu_56@@QAEAAV01@ABV01@@Z PROC		; icu_56::UnicodeFilter::operator=, COMDAT
; _this$ = ecx
	push	ebp
	mov	ebp, esp
	sub	esp, 208				; 000000d0H
	push	ebx
	push	esi
	push	edi
	push	ecx
	lea	edi, DWORD PTR [ebp-208]
	mov	ecx, 52					; 00000034H
	mov	eax, -858993460				; ccccccccH
	rep stosd
	pop	ecx
	mov	DWORD PTR _this$[ebp], ecx
	mov	eax, DWORD PTR ___that$[ebp]
	push	eax
	mov	ecx, DWORD PTR _this$[ebp]
	call	??4UnicodeFunctor@icu_56@@QAEAAV01@ABV01@@Z
	cmp	DWORD PTR ___that$[ebp], 0
	je	SHORT $LN3@operator
	mov	eax, DWORD PTR ___that$[ebp]
	add	eax, 4
	mov	DWORD PTR tv84[ebp], eax
	jmp	SHORT $LN4@operator
$LN3@operator:
	mov	DWORD PTR tv84[ebp], 0
$LN4@operator:
	mov	ecx, DWORD PTR tv84[ebp]
	push	ecx
	mov	ecx, DWORD PTR _this$[ebp]
	add	ecx, 4
	call	??4UnicodeMatcher@icu_56@@QAEAAV01@ABV01@@Z
	mov	eax, DWORD PTR _this$[ebp]
	pop	edi
	pop	esi
	pop	ebx
	add	esp, 208				; 000000d0H
	cmp	ebp, esp
	call	__RTC_CheckEsp
	mov	esp, ebp
	pop	ebp
	ret	4
??4UnicodeFilter@icu_56@@QAEAAV01@ABV01@@Z ENDP		; icu_56::UnicodeFilter::operator=
_TEXT	ENDS
PUBLIC	??_GUnicodeFilter@icu_56@@UAEPAXI@Z		; icu_56::UnicodeFilter::`scalar deleting destructor'
EXTRN	??1UnicodeFilter@icu_56@@UAE@XZ:PROC		; icu_56::UnicodeFilter::~UnicodeFilter
; Function compile flags: /Odtp /RTCsu /ZI
;	COMDAT ??_GUnicodeFilter@icu_56@@UAEPAXI@Z
_TEXT	SEGMENT
_this$ = -8						; size = 4
___flags$ = 8						; size = 4
??_GUnicodeFilter@icu_56@@UAEPAXI@Z PROC		; icu_56::UnicodeFilter::`scalar deleting destructor', COMDAT
; _this$ = ecx
	push	ebp
	mov	ebp, esp
	sub	esp, 204				; 000000ccH
	push	ebx
	push	esi
	push	edi
	push	ecx
	lea	edi, DWORD PTR [ebp-204]
	mov	ecx, 51					; 00000033H
	mov	eax, -858993460				; ccccccccH
	rep stosd
	pop	ecx
	mov	DWORD PTR _this$[ebp], ecx
	mov	ecx, DWORD PTR _this$[ebp]
	call	??1UnicodeFilter@icu_56@@UAE@XZ		; icu_56::UnicodeFilter::~UnicodeFilter
	mov	eax, DWORD PTR ___flags$[ebp]
	and	eax, 1
	je	SHORT $LN1@scalar@4
	mov	eax, DWORD PTR _this$[ebp]
	push	eax
	call	??3UMemory@icu_56@@SAXPAX@Z		; icu_56::UMemory::operator delete
	add	esp, 4
$LN1@scalar@4:
	mov	eax, DWORD PTR _this$[ebp]
	pop	edi
	pop	esi
	pop	ebx
	add	esp, 204				; 000000ccH
	cmp	ebp, esp
	call	__RTC_CheckEsp
	mov	esp, ebp
	pop	ebp
	ret	4
??_GUnicodeFilter@icu_56@@UAEPAXI@Z ENDP		; icu_56::UnicodeFilter::`scalar deleting destructor'
; Function compile flags: /Odtp /RTCsu /ZI
_TEXT	ENDS
;	COMDAT ??_EUnicodeFilter@icu_56@@UAEPAXI@Z
_TEXT	SEGMENT
_this$ = -8						; size = 4
___flags$ = 8						; size = 4
??_EUnicodeFilter@icu_56@@UAEPAXI@Z PROC		; icu_56::UnicodeFilter::`vector deleting destructor', COMDAT
; _this$ = ecx
	push	ebp
	mov	ebp, esp
	sub	esp, 204				; 000000ccH
	push	ebx
	push	esi
	push	edi
	push	ecx
	lea	edi, DWORD PTR [ebp-204]
	mov	ecx, 51					; 00000033H
	mov	eax, -858993460				; ccccccccH
	rep stosd
	pop	ecx
	mov	DWORD PTR _this$[ebp], ecx
	mov	eax, DWORD PTR ___flags$[ebp]
	and	eax, 2
	je	SHORT $LN3@vector@4
	push	OFFSET ??1UnicodeFilter@icu_56@@UAE@XZ	; icu_56::UnicodeFilter::~UnicodeFilter
	mov	eax, DWORD PTR _this$[ebp]
	mov	ecx, DWORD PTR [eax-4]
	push	ecx
	push	8
	mov	edx, DWORD PTR _this$[ebp]
	push	edx
	call	??_M@YGXPAXIHP6EX0@Z@Z
	mov	eax, DWORD PTR ___flags$[ebp]
	and	eax, 1
	je	SHORT $LN2@vector@4
	mov	eax, DWORD PTR _this$[ebp]
	sub	eax, 4
	push	eax
	call	??_VUMemory@icu_56@@SAXPAX@Z		; icu_56::UMemory::operator delete[]
	add	esp, 4
$LN2@vector@4:
	mov	eax, DWORD PTR _this$[ebp]
	sub	eax, 4
	jmp	SHORT $LN4@vector@4
$LN3@vector@4:
	mov	ecx, DWORD PTR _this$[ebp]
	call	??1UnicodeFilter@icu_56@@UAE@XZ		; icu_56::UnicodeFilter::~UnicodeFilter
	mov	eax, DWORD PTR ___flags$[ebp]
	and	eax, 1
	je	SHORT $LN1@vector@4
	mov	eax, DWORD PTR _this$[ebp]
	push	eax
	call	??3UMemory@icu_56@@SAXPAX@Z		; icu_56::UMemory::operator delete
	add	esp, 4
$LN1@vector@4:
	mov	eax, DWORD PTR _this$[ebp]
$LN4@vector@4:
	pop	edi
	pop	esi
	pop	ebx
	add	esp, 204				; 000000ccH
	cmp	ebp, esp
	call	__RTC_CheckEsp
	mov	esp, ebp
	pop	ebp
	ret	4
??_EUnicodeFilter@icu_56@@UAEPAXI@Z ENDP		; icu_56::UnicodeFilter::`vector deleting destructor'
_TEXT	ENDS
PUBLIC	??_7Replaceable@icu_56@@6B@			; icu_56::Replaceable::`vftable'
PUBLIC	??0Replaceable@icu_56@@QAE@ABV01@@Z		; icu_56::Replaceable::Replaceable
PUBLIC	??_R4Replaceable@icu_56@@6B@			; icu_56::Replaceable::`RTTI Complete Object Locator'
PUBLIC	??_R0?AVReplaceable@icu_56@@@8			; icu_56::Replaceable `RTTI Type Descriptor'
PUBLIC	??_R3Replaceable@icu_56@@8			; icu_56::Replaceable::`RTTI Class Hierarchy Descriptor'
PUBLIC	??_R2Replaceable@icu_56@@8			; icu_56::Replaceable::`RTTI Base Class Array'
PUBLIC	??_R1A@?0A@EA@Replaceable@icu_56@@8		; icu_56::Replaceable::`RTTI Base Class Descriptor at (0,-1,0,64)'
PUBLIC	??_EReplaceable@icu_56@@UAEPAXI@Z		; icu_56::Replaceable::`vector deleting destructor'
EXTRN	?hasMetaData@Replaceable@icu_56@@UBECXZ:PROC	; icu_56::Replaceable::hasMetaData
EXTRN	?clone@Replaceable@icu_56@@UBEPAV12@XZ:PROC	; icu_56::Replaceable::clone
;	COMDAT ??_R1A@?0A@EA@Replaceable@icu_56@@8
rdata$r	SEGMENT
??_R1A@?0A@EA@Replaceable@icu_56@@8 DD FLAT:??_R0?AVReplaceable@icu_56@@@8 ; icu_56::Replaceable::`RTTI Base Class Descriptor at (0,-1,0,64)'
	DD	02H
	DD	00H
	DD	0ffffffffH
	DD	00H
	DD	040H
	DD	FLAT:??_R3Replaceable@icu_56@@8
rdata$r	ENDS
;	COMDAT ??_R2Replaceable@icu_56@@8
rdata$r	SEGMENT
??_R2Replaceable@icu_56@@8 DD FLAT:??_R1A@?0A@EA@Replaceable@icu_56@@8 ; icu_56::Replaceable::`RTTI Base Class Array'
	DD	FLAT:??_R1A@?0A@EA@UObject@icu_56@@8
	DD	FLAT:??_R13?0A@EA@UMemory@icu_56@@8
rdata$r	ENDS
;	COMDAT ??_R3Replaceable@icu_56@@8
rdata$r	SEGMENT
??_R3Replaceable@icu_56@@8 DD 00H			; icu_56::Replaceable::`RTTI Class Hierarchy Descriptor'
	DD	00H
	DD	03H
	DD	FLAT:??_R2Replaceable@icu_56@@8
rdata$r	ENDS
;	COMDAT ??_R0?AVReplaceable@icu_56@@@8
_DATA	SEGMENT
??_R0?AVReplaceable@icu_56@@@8 DD FLAT:??_7type_info@@6B@ ; icu_56::Replaceable `RTTI Type Descriptor'
	DD	00H
	DB	'.?AVReplaceable@icu_56@@', 00H
_DATA	ENDS
;	COMDAT ??_R4Replaceable@icu_56@@6B@
rdata$r	SEGMENT
??_R4Replaceable@icu_56@@6B@ DD 00H			; icu_56::Replaceable::`RTTI Complete Object Locator'
	DD	00H
	DD	00H
	DD	FLAT:??_R0?AVReplaceable@icu_56@@@8
	DD	FLAT:??_R3Replaceable@icu_56@@8
rdata$r	ENDS
;	COMDAT ??_7Replaceable@icu_56@@6B@
CONST	SEGMENT
??_7Replaceable@icu_56@@6B@ DD FLAT:??_R4Replaceable@icu_56@@6B@ ; icu_56::Replaceable::`vftable'
	DD	FLAT:??_EReplaceable@icu_56@@UAEPAXI@Z
	DD	FLAT:?getDynamicClassID@UObject@icu_56@@UBEPAXXZ
	DD	FLAT:__purecall
	DD	FLAT:__purecall
	DD	FLAT:__purecall
	DD	FLAT:?hasMetaData@Replaceable@icu_56@@UBECXZ
	DD	FLAT:?clone@Replaceable@icu_56@@UBEPAV12@XZ
	DD	FLAT:__purecall
	DD	FLAT:__purecall
	DD	FLAT:__purecall
; Function compile flags: /Odtp /RTCsu /ZI
CONST	ENDS
;	COMDAT ??0Replaceable@icu_56@@QAE@ABV01@@Z
_TEXT	SEGMENT
_this$ = -8						; size = 4
___that$ = 8						; size = 4
??0Replaceable@icu_56@@QAE@ABV01@@Z PROC		; icu_56::Replaceable::Replaceable, COMDAT
; _this$ = ecx
	push	ebp
	mov	ebp, esp
	sub	esp, 204				; 000000ccH
	push	ebx
	push	esi
	push	edi
	push	ecx
	lea	edi, DWORD PTR [ebp-204]
	mov	ecx, 51					; 00000033H
	mov	eax, -858993460				; ccccccccH
	rep stosd
	pop	ecx
	mov	DWORD PTR _this$[ebp], ecx
	mov	eax, DWORD PTR ___that$[ebp]
	push	eax
	mov	ecx, DWORD PTR _this$[ebp]
	call	??0UObject@icu_56@@QAE@ABV01@@Z
	mov	eax, DWORD PTR _this$[ebp]
	mov	DWORD PTR [eax], OFFSET ??_7Replaceable@icu_56@@6B@
	mov	eax, DWORD PTR _this$[ebp]
	pop	edi
	pop	esi
	pop	ebx
	add	esp, 204				; 000000ccH
	cmp	ebp, esp
	call	__RTC_CheckEsp
	mov	esp, ebp
	pop	ebp
	ret	4
??0Replaceable@icu_56@@QAE@ABV01@@Z ENDP		; icu_56::Replaceable::Replaceable
_TEXT	ENDS
PUBLIC	??4Replaceable@icu_56@@QAEAAV01@ABV01@@Z	; icu_56::Replaceable::operator=
; Function compile flags: /Odtp /RTCsu /ZI
;	COMDAT ??4Replaceable@icu_56@@QAEAAV01@ABV01@@Z
_TEXT	SEGMENT
_this$ = -8						; size = 4
___that$ = 8						; size = 4
??4Replaceable@icu_56@@QAEAAV01@ABV01@@Z PROC		; icu_56::Replaceable::operator=, COMDAT
; _this$ = ecx
	push	ebp
	mov	ebp, esp
	sub	esp, 204				; 000000ccH
	push	ebx
	push	esi
	push	edi
	push	ecx
	lea	edi, DWORD PTR [ebp-204]
	mov	ecx, 51					; 00000033H
	mov	eax, -858993460				; ccccccccH
	rep stosd
	pop	ecx
	mov	DWORD PTR _this$[ebp], ecx
	mov	eax, DWORD PTR ___that$[ebp]
	push	eax
	mov	ecx, DWORD PTR _this$[ebp]
	call	??4UObject@icu_56@@QAEAAV01@ABV01@@Z
	mov	eax, DWORD PTR _this$[ebp]
	pop	edi
	pop	esi
	pop	ebx
	add	esp, 204				; 000000ccH
	cmp	ebp, esp
	call	__RTC_CheckEsp
	mov	esp, ebp
	pop	ebp
	ret	4
??4Replaceable@icu_56@@QAEAAV01@ABV01@@Z ENDP		; icu_56::Replaceable::operator=
_TEXT	ENDS
PUBLIC	??_GReplaceable@icu_56@@UAEPAXI@Z		; icu_56::Replaceable::`scalar deleting destructor'
EXTRN	??1Replaceable@icu_56@@UAE@XZ:PROC		; icu_56::Replaceable::~Replaceable
; Function compile flags: /Odtp /RTCsu /ZI
;	COMDAT ??_GReplaceable@icu_56@@UAEPAXI@Z
_TEXT	SEGMENT
_this$ = -8						; size = 4
___flags$ = 8						; size = 4
??_GReplaceable@icu_56@@UAEPAXI@Z PROC			; icu_56::Replaceable::`scalar deleting destructor', COMDAT
; _this$ = ecx
	push	ebp
	mov	ebp, esp
	sub	esp, 204				; 000000ccH
	push	ebx
	push	esi
	push	edi
	push	ecx
	lea	edi, DWORD PTR [ebp-204]
	mov	ecx, 51					; 00000033H
	mov	eax, -858993460				; ccccccccH
	rep stosd
	pop	ecx
	mov	DWORD PTR _this$[ebp], ecx
	mov	ecx, DWORD PTR _this$[ebp]
	call	??1Replaceable@icu_56@@UAE@XZ		; icu_56::Replaceable::~Replaceable
	mov	eax, DWORD PTR ___flags$[ebp]
	and	eax, 1
	je	SHORT $LN1@scalar@5
	mov	eax, DWORD PTR _this$[ebp]
	push	eax
	call	??3UMemory@icu_56@@SAXPAX@Z		; icu_56::UMemory::operator delete
	add	esp, 4
$LN1@scalar@5:
	mov	eax, DWORD PTR _this$[ebp]
	pop	edi
	pop	esi
	pop	ebx
	add	esp, 204				; 000000ccH
	cmp	ebp, esp
	call	__RTC_CheckEsp
	mov	esp, ebp
	pop	ebp
	ret	4
??_GReplaceable@icu_56@@UAEPAXI@Z ENDP			; icu_56::Replaceable::`scalar deleting destructor'
; Function compile flags: /Odtp /RTCsu /ZI
_TEXT	ENDS
;	COMDAT ??_EReplaceable@icu_56@@UAEPAXI@Z
_TEXT	SEGMENT
_this$ = -8						; size = 4
___flags$ = 8						; size = 4
??_EReplaceable@icu_56@@UAEPAXI@Z PROC			; icu_56::Replaceable::`vector deleting destructor', COMDAT
; _this$ = ecx
	push	ebp
	mov	ebp, esp
	sub	esp, 204				; 000000ccH
	push	ebx
	push	esi
	push	edi
	push	ecx
	lea	edi, DWORD PTR [ebp-204]
	mov	ecx, 51					; 00000033H
	mov	eax, -858993460				; ccccccccH
	rep stosd
	pop	ecx
	mov	DWORD PTR _this$[ebp], ecx
	mov	eax, DWORD PTR ___flags$[ebp]
	and	eax, 2
	je	SHORT $LN3@vector@5
	push	OFFSET ??1Replaceable@icu_56@@UAE@XZ	; icu_56::Replaceable::~Replaceable
	mov	eax, DWORD PTR _this$[ebp]
	mov	ecx, DWORD PTR [eax-4]
	push	ecx
	push	4
	mov	edx, DWORD PTR _this$[ebp]
	push	edx
	call	??_M@YGXPAXIHP6EX0@Z@Z
	mov	eax, DWORD PTR ___flags$[ebp]
	and	eax, 1
	je	SHORT $LN2@vector@5
	mov	eax, DWORD PTR _this$[ebp]
	sub	eax, 4
	push	eax
	call	??_VUMemory@icu_56@@SAXPAX@Z		; icu_56::UMemory::operator delete[]
	add	esp, 4
$LN2@vector@5:
	mov	eax, DWORD PTR _this$[ebp]
	sub	eax, 4
	jmp	SHORT $LN4@vector@5
$LN3@vector@5:
	mov	ecx, DWORD PTR _this$[ebp]
	call	??1Replaceable@icu_56@@UAE@XZ		; icu_56::Replaceable::~Replaceable
	mov	eax, DWORD PTR ___flags$[ebp]
	and	eax, 1
	je	SHORT $LN1@vector@5
	mov	eax, DWORD PTR _this$[ebp]
	push	eax
	call	??3UMemory@icu_56@@SAXPAX@Z		; icu_56::UMemory::operator delete
	add	esp, 4
$LN1@vector@5:
	mov	eax, DWORD PTR _this$[ebp]
$LN4@vector@5:
	pop	edi
	pop	esi
	pop	ebx
	add	esp, 204				; 000000ccH
	cmp	ebp, esp
	call	__RTC_CheckEsp
	mov	esp, ebp
	pop	ebp
	ret	4
??_EReplaceable@icu_56@@UAEPAXI@Z ENDP			; icu_56::Replaceable::`vector deleting destructor'
_TEXT	ENDS
PUBLIC	??0Replaceable@icu_56@@IAE@XZ			; icu_56::Replaceable::Replaceable
; Function compile flags: /Odtp /RTCsu /ZI
;	COMDAT ??0Replaceable@icu_56@@IAE@XZ
_TEXT	SEGMENT
_this$ = -8						; size = 4
??0Replaceable@icu_56@@IAE@XZ PROC			; icu_56::Replaceable::Replaceable, COMDAT
; _this$ = ecx
; File d:\mozilla\intl\icu\source\common\unicode\rep.h
; Line 240
	push	ebp
	mov	ebp, esp
	sub	esp, 204				; 000000ccH
	push	ebx
	push	esi
	push	edi
	push	ecx
	lea	edi, DWORD PTR [ebp-204]
	mov	ecx, 51					; 00000033H
	mov	eax, -858993460				; ccccccccH
	rep stosd
	pop	ecx
	mov	DWORD PTR _this$[ebp], ecx
	mov	ecx, DWORD PTR _this$[ebp]
	call	??0UObject@icu_56@@QAE@XZ
	mov	eax, DWORD PTR _this$[ebp]
	mov	DWORD PTR [eax], OFFSET ??_7Replaceable@icu_56@@6B@
	mov	eax, DWORD PTR _this$[ebp]
	pop	edi
	pop	esi
	pop	ebx
	add	esp, 204				; 000000ccH
	cmp	ebp, esp
	call	__RTC_CheckEsp
	mov	esp, ebp
	pop	ebp
	ret	0
??0Replaceable@icu_56@@IAE@XZ ENDP			; icu_56::Replaceable::Replaceable
_TEXT	ENDS
PUBLIC	?length@Replaceable@icu_56@@QBEHXZ		; icu_56::Replaceable::length
; Function compile flags: /Odtp /RTCsu /ZI
;	COMDAT ?length@Replaceable@icu_56@@QBEHXZ
_TEXT	SEGMENT
_this$ = -8						; size = 4
?length@Replaceable@icu_56@@QBEHXZ PROC			; icu_56::Replaceable::length, COMDAT
; _this$ = ecx
; Line 243
	push	ebp
	mov	ebp, esp
	sub	esp, 204				; 000000ccH
	push	ebx
	push	esi
	push	edi
	push	ecx
	lea	edi, DWORD PTR [ebp-204]
	mov	ecx, 51					; 00000033H
	mov	eax, -858993460				; ccccccccH
	rep stosd
	pop	ecx
	mov	DWORD PTR _this$[ebp], ecx
; Line 244
	mov	eax, DWORD PTR _this$[ebp]
	mov	edx, DWORD PTR [eax]
	mov	esi, esp
	mov	ecx, DWORD PTR _this$[ebp]
	mov	eax, DWORD PTR [edx+28]
	call	eax
	cmp	esi, esp
	call	__RTC_CheckEsp
; Line 245
	pop	edi
	pop	esi
	pop	ebx
	add	esp, 204				; 000000ccH
	cmp	ebp, esp
	call	__RTC_CheckEsp
	mov	esp, ebp
	pop	ebp
	ret	0
?length@Replaceable@icu_56@@QBEHXZ ENDP			; icu_56::Replaceable::length
_TEXT	ENDS
PUBLIC	?charAt@Replaceable@icu_56@@QBE_WH@Z		; icu_56::Replaceable::charAt
; Function compile flags: /Odtp /RTCsu /ZI
;	COMDAT ?charAt@Replaceable@icu_56@@QBE_WH@Z
_TEXT	SEGMENT
_this$ = -8						; size = 4
_offset$ = 8						; size = 4
?charAt@Replaceable@icu_56@@QBE_WH@Z PROC		; icu_56::Replaceable::charAt, COMDAT
; _this$ = ecx
; Line 248
	push	ebp
	mov	ebp, esp
	sub	esp, 204				; 000000ccH
	push	ebx
	push	esi
	push	edi
	push	ecx
	lea	edi, DWORD PTR [ebp-204]
	mov	ecx, 51					; 00000033H
	mov	eax, -858993460				; ccccccccH
	rep stosd
	pop	ecx
	mov	DWORD PTR _this$[ebp], ecx
; Line 249
	mov	esi, esp
	mov	eax, DWORD PTR _offset$[ebp]
	push	eax
	mov	ecx, DWORD PTR _this$[ebp]
	mov	edx, DWORD PTR [ecx]
	mov	ecx, DWORD PTR _this$[ebp]
	mov	eax, DWORD PTR [edx+32]
	call	eax
	cmp	esi, esp
	call	__RTC_CheckEsp
; Line 250
	pop	edi
	pop	esi
	pop	ebx
	add	esp, 204				; 000000ccH
	cmp	ebp, esp
	call	__RTC_CheckEsp
	mov	esp, ebp
	pop	ebp
	ret	4
?charAt@Replaceable@icu_56@@QBE_WH@Z ENDP		; icu_56::Replaceable::charAt
_TEXT	ENDS
PUBLIC	?char32At@Replaceable@icu_56@@QBEHH@Z		; icu_56::Replaceable::char32At
; Function compile flags: /Odtp /RTCsu /ZI
;	COMDAT ?char32At@Replaceable@icu_56@@QBEHH@Z
_TEXT	SEGMENT
_this$ = -8						; size = 4
_offset$ = 8						; size = 4
?char32At@Replaceable@icu_56@@QBEHH@Z PROC		; icu_56::Replaceable::char32At, COMDAT
; _this$ = ecx
; Line 253
	push	ebp
	mov	ebp, esp
	sub	esp, 204				; 000000ccH
	push	ebx
	push	esi
	push	edi
	push	ecx
	lea	edi, DWORD PTR [ebp-204]
	mov	ecx, 51					; 00000033H
	mov	eax, -858993460				; ccccccccH
	rep stosd
	pop	ecx
	mov	DWORD PTR _this$[ebp], ecx
; Line 254
	mov	esi, esp
	mov	eax, DWORD PTR _offset$[ebp]
	push	eax
	mov	ecx, DWORD PTR _this$[ebp]
	mov	edx, DWORD PTR [ecx]
	mov	ecx, DWORD PTR _this$[ebp]
	mov	eax, DWORD PTR [edx+36]
	call	eax
	cmp	esi, esp
	call	__RTC_CheckEsp
; Line 255
	pop	edi
	pop	esi
	pop	ebx
	add	esp, 204				; 000000ccH
	cmp	ebp, esp
	call	__RTC_CheckEsp
	mov	esp, ebp
	pop	ebp
	ret	4
?char32At@Replaceable@icu_56@@QBEHH@Z ENDP		; icu_56::Replaceable::char32At
_TEXT	ENDS
PUBLIC	??0StringPiece@icu_56@@QAE@XZ			; icu_56::StringPiece::StringPiece
; Function compile flags: /Odtp /RTCsu /ZI
;	COMDAT ??0StringPiece@icu_56@@QAE@XZ
_TEXT	SEGMENT
_this$ = -8						; size = 4
??0StringPiece@icu_56@@QAE@XZ PROC			; icu_56::StringPiece::StringPiece, COMDAT
; _this$ = ecx
; File d:\mozilla\intl\icu\source\common\unicode\stringpiece.h
; Line 62
	push	ebp
	mov	ebp, esp
	sub	esp, 204				; 000000ccH
	push	ebx
	push	esi
	push	edi
	push	ecx
	lea	edi, DWORD PTR [ebp-204]
	mov	ecx, 51					; 00000033H
	mov	eax, -858993460				; ccccccccH
	rep stosd
	pop	ecx
	mov	DWORD PTR _this$[ebp], ecx
	mov	eax, DWORD PTR _this$[ebp]
	mov	DWORD PTR [eax], 0
	mov	eax, DWORD PTR _this$[ebp]
	mov	DWORD PTR [eax+4], 0
	mov	eax, DWORD PTR _this$[ebp]
	pop	edi
	pop	esi
	pop	ebx
	mov	esp, ebp
	pop	ebp
	ret	0
??0StringPiece@icu_56@@QAE@XZ ENDP			; icu_56::StringPiece::StringPiece
_TEXT	ENDS
PUBLIC	?size@?$basic_string@DU?$char_traits@D@std@@V?$allocator@D@2@@std@@QBEIXZ ; std::basic_string<char,std::char_traits<char>,std::allocator<char> >::size
PUBLIC	?data@?$basic_string@DU?$char_traits@D@std@@V?$allocator@D@2@@std@@QBEPBDXZ ; std::basic_string<char,std::char_traits<char>,std::allocator<char> >::data
PUBLIC	??0StringPiece@icu_56@@QAE@ABV?$basic_string@DU?$char_traits@D@std@@V?$allocator@D@2@@std@@@Z ; icu_56::StringPiece::StringPiece
; Function compile flags: /Odtp /RTCsu /ZI
;	COMDAT ??0StringPiece@icu_56@@QAE@ABV?$basic_string@DU?$char_traits@D@std@@V?$allocator@D@2@@std@@@Z
_TEXT	SEGMENT
_this$ = -8						; size = 4
_str$ = 8						; size = 4
??0StringPiece@icu_56@@QAE@ABV?$basic_string@DU?$char_traits@D@std@@V?$allocator@D@2@@std@@@Z PROC ; icu_56::StringPiece::StringPiece, COMDAT
; _this$ = ecx
; Line 74
	push	ebp
	mov	ebp, esp
	sub	esp, 204				; 000000ccH
	push	ebx
	push	esi
	push	edi
	push	ecx
	lea	edi, DWORD PTR [ebp-204]
	mov	ecx, 51					; 00000033H
	mov	eax, -858993460				; ccccccccH
	rep stosd
	pop	ecx
	mov	DWORD PTR _this$[ebp], ecx
	mov	ecx, DWORD PTR _str$[ebp]
	call	?data@?$basic_string@DU?$char_traits@D@std@@V?$allocator@D@2@@std@@QBEPBDXZ ; std::basic_string<char,std::char_traits<char>,std::allocator<char> >::data
	mov	ecx, DWORD PTR _this$[ebp]
	mov	DWORD PTR [ecx], eax
	mov	ecx, DWORD PTR _str$[ebp]
	call	?size@?$basic_string@DU?$char_traits@D@std@@V?$allocator@D@2@@std@@QBEIXZ ; std::basic_string<char,std::char_traits<char>,std::allocator<char> >::size
	mov	ecx, DWORD PTR _this$[ebp]
	mov	DWORD PTR [ecx+4], eax
	mov	eax, DWORD PTR _this$[ebp]
	pop	edi
	pop	esi
	pop	ebx
	add	esp, 204				; 000000ccH
	cmp	ebp, esp
	call	__RTC_CheckEsp
	mov	esp, ebp
	pop	ebp
	ret	4
??0StringPiece@icu_56@@QAE@ABV?$basic_string@DU?$char_traits@D@std@@V?$allocator@D@2@@std@@@Z ENDP ; icu_56::StringPiece::StringPiece
_TEXT	ENDS
PUBLIC	??0StringPiece@icu_56@@QAE@PBDH@Z		; icu_56::StringPiece::StringPiece
; Function compile flags: /Odtp /RTCsu /ZI
;	COMDAT ??0StringPiece@icu_56@@QAE@PBDH@Z
_TEXT	SEGMENT
_this$ = -8						; size = 4
_offset$ = 8						; size = 4
_len$ = 12						; size = 4
??0StringPiece@icu_56@@QAE@PBDH@Z PROC			; icu_56::StringPiece::StringPiece, COMDAT
; _this$ = ecx
; Line 83
	push	ebp
	mov	ebp, esp
	sub	esp, 204				; 000000ccH
	push	ebx
	push	esi
	push	edi
	push	ecx
	lea	edi, DWORD PTR [ebp-204]
	mov	ecx, 51					; 00000033H
	mov	eax, -858993460				; ccccccccH
	rep stosd
	pop	ecx
	mov	DWORD PTR _this$[ebp], ecx
	mov	eax, DWORD PTR _this$[ebp]
	mov	ecx, DWORD PTR _offset$[ebp]
	mov	DWORD PTR [eax], ecx
	mov	eax, DWORD PTR _this$[ebp]
	mov	ecx, DWORD PTR _len$[ebp]
	mov	DWORD PTR [eax+4], ecx
	mov	eax, DWORD PTR _this$[ebp]
	pop	edi
	pop	esi
	pop	ebx
	mov	esp, ebp
	pop	ebp
	ret	8
??0StringPiece@icu_56@@QAE@PBDH@Z ENDP			; icu_56::StringPiece::StringPiece
_TEXT	ENDS
PUBLIC	?data@StringPiece@icu_56@@QBEPBDXZ		; icu_56::StringPiece::data
; Function compile flags: /Odtp /RTCsu /ZI
;	COMDAT ?data@StringPiece@icu_56@@QBEPBDXZ
_TEXT	SEGMENT
_this$ = -8						; size = 4
?data@StringPiece@icu_56@@QBEPBDXZ PROC			; icu_56::StringPiece::data, COMDAT
; _this$ = ecx
; Line 111
	push	ebp
	mov	ebp, esp
	sub	esp, 204				; 000000ccH
	push	ebx
	push	esi
	push	edi
	push	ecx
	lea	edi, DWORD PTR [ebp-204]
	mov	ecx, 51					; 00000033H
	mov	eax, -858993460				; ccccccccH
	rep stosd
	pop	ecx
	mov	DWORD PTR _this$[ebp], ecx
	mov	eax, DWORD PTR _this$[ebp]
	mov	eax, DWORD PTR [eax]
	pop	edi
	pop	esi
	pop	ebx
	mov	esp, ebp
	pop	ebp
	ret	0
?data@StringPiece@icu_56@@QBEPBDXZ ENDP			; icu_56::StringPiece::data
_TEXT	ENDS
PUBLIC	?size@StringPiece@icu_56@@QBEHXZ		; icu_56::StringPiece::size
; Function compile flags: /Odtp /RTCsu /ZI
;	COMDAT ?size@StringPiece@icu_56@@QBEHXZ
_TEXT	SEGMENT
_this$ = -8						; size = 4
?size@StringPiece@icu_56@@QBEHXZ PROC			; icu_56::StringPiece::size, COMDAT
; _this$ = ecx
; Line 117
	push	ebp
	mov	ebp, esp
	sub	esp, 204				; 000000ccH
	push	ebx
	push	esi
	push	edi
	push	ecx
	lea	edi, DWORD PTR [ebp-204]
	mov	ecx, 51					; 00000033H
	mov	eax, -858993460				; ccccccccH
	rep stosd
	pop	ecx
	mov	DWORD PTR _this$[ebp], ecx
	mov	eax, DWORD PTR _this$[ebp]
	mov	eax, DWORD PTR [eax+4]
	pop	edi
	pop	esi
	pop	ebx
	mov	esp, ebp
	pop	ebp
	ret	0
?size@StringPiece@icu_56@@QBEHXZ ENDP			; icu_56::StringPiece::size
_TEXT	ENDS
PUBLIC	?length@StringPiece@icu_56@@QBEHXZ		; icu_56::StringPiece::length
; Function compile flags: /Odtp /RTCsu /ZI
;	COMDAT ?length@StringPiece@icu_56@@QBEHXZ
_TEXT	SEGMENT
_this$ = -8						; size = 4
?length@StringPiece@icu_56@@QBEHXZ PROC			; icu_56::StringPiece::length, COMDAT
; _this$ = ecx
; Line 123
	push	ebp
	mov	ebp, esp
	sub	esp, 204				; 000000ccH
	push	ebx
	push	esi
	push	edi
	push	ecx
	lea	edi, DWORD PTR [ebp-204]
	mov	ecx, 51					; 00000033H
	mov	eax, -858993460				; ccccccccH
	rep stosd
	pop	ecx
	mov	DWORD PTR _this$[ebp], ecx
	mov	eax, DWORD PTR _this$[ebp]
	mov	eax, DWORD PTR [eax+4]
	pop	edi
	pop	esi
	pop	ebx
	mov	esp, ebp
	pop	ebp
	ret	0
?length@StringPiece@icu_56@@QBEHXZ ENDP			; icu_56::StringPiece::length
_TEXT	ENDS
PUBLIC	?empty@StringPiece@icu_56@@QBECXZ		; icu_56::StringPiece::empty
; Function compile flags: /Odtp /RTCsu /ZI
;	COMDAT ?empty@StringPiece@icu_56@@QBECXZ
_TEXT	SEGMENT
_this$ = -8						; size = 4
?empty@StringPiece@icu_56@@QBECXZ PROC			; icu_56::StringPiece::empty, COMDAT
; _this$ = ecx
; Line 129
	push	ebp
	mov	ebp, esp
	sub	esp, 204				; 000000ccH
	push	ebx
	push	esi
	push	edi
	push	ecx
	lea	edi, DWORD PTR [ebp-204]
	mov	ecx, 51					; 00000033H
	mov	eax, -858993460				; ccccccccH
	rep stosd
	pop	ecx
	mov	DWORD PTR _this$[ebp], ecx
	mov	eax, DWORD PTR _this$[ebp]
	cmp	DWORD PTR [eax+4], 0
	sete	al
	pop	edi
	pop	esi
	pop	ebx
	mov	esp, ebp
	pop	ebp
	ret	0
?empty@StringPiece@icu_56@@QBECXZ ENDP			; icu_56::StringPiece::empty
_TEXT	ENDS
PUBLIC	?clear@StringPiece@icu_56@@QAEXXZ		; icu_56::StringPiece::clear
; Function compile flags: /Odtp /RTCsu /ZI
;	COMDAT ?clear@StringPiece@icu_56@@QAEXXZ
_TEXT	SEGMENT
_this$ = -8						; size = 4
?clear@StringPiece@icu_56@@QAEXXZ PROC			; icu_56::StringPiece::clear, COMDAT
; _this$ = ecx
; Line 135
	push	ebp
	mov	ebp, esp
	sub	esp, 204				; 000000ccH
	push	ebx
	push	esi
	push	edi
	push	ecx
	lea	edi, DWORD PTR [ebp-204]
	mov	ecx, 51					; 00000033H
	mov	eax, -858993460				; ccccccccH
	rep stosd
	pop	ecx
	mov	DWORD PTR _this$[ebp], ecx
	mov	eax, DWORD PTR _this$[ebp]
	mov	DWORD PTR [eax], 0
	mov	eax, DWORD PTR _this$[ebp]
	mov	DWORD PTR [eax+4], 0
	pop	edi
	pop	esi
	pop	ebx
	mov	esp, ebp
	pop	ebp
	ret	0
?clear@StringPiece@icu_56@@QAEXXZ ENDP			; icu_56::StringPiece::clear
_TEXT	ENDS
PUBLIC	?set@StringPiece@icu_56@@QAEXPBDH@Z		; icu_56::StringPiece::set
; Function compile flags: /Odtp /RTCsu /ZI
;	COMDAT ?set@StringPiece@icu_56@@QAEXPBDH@Z
_TEXT	SEGMENT
_this$ = -8						; size = 4
_xdata$ = 8						; size = 4
_len$ = 12						; size = 4
?set@StringPiece@icu_56@@QAEXPBDH@Z PROC		; icu_56::StringPiece::set, COMDAT
; _this$ = ecx
; Line 143
	push	ebp
	mov	ebp, esp
	sub	esp, 204				; 000000ccH
	push	ebx
	push	esi
	push	edi
	push	ecx
	lea	edi, DWORD PTR [ebp-204]
	mov	ecx, 51					; 00000033H
	mov	eax, -858993460				; ccccccccH
	rep stosd
	pop	ecx
	mov	DWORD PTR _this$[ebp], ecx
	mov	eax, DWORD PTR _this$[ebp]
	mov	ecx, DWORD PTR _xdata$[ebp]
	mov	DWORD PTR [eax], ecx
	mov	eax, DWORD PTR _this$[ebp]
	mov	ecx, DWORD PTR _len$[ebp]
	mov	DWORD PTR [eax+4], ecx
	pop	edi
	pop	esi
	pop	ebx
	mov	esp, ebp
	pop	ebp
	ret	8
?set@StringPiece@icu_56@@QAEXPBDH@Z ENDP		; icu_56::StringPiece::set
_TEXT	ENDS
PUBLIC	?remove_prefix@StringPiece@icu_56@@QAEXH@Z	; icu_56::StringPiece::remove_prefix
; Function compile flags: /Odtp /RTCsu /ZI
;	COMDAT ?remove_prefix@StringPiece@icu_56@@QAEXH@Z
_TEXT	SEGMENT
_this$ = -8						; size = 4
_n$ = 8							; size = 4
?remove_prefix@StringPiece@icu_56@@QAEXH@Z PROC		; icu_56::StringPiece::remove_prefix, COMDAT
; _this$ = ecx
; Line 157
	push	ebp
	mov	ebp, esp
	sub	esp, 204				; 000000ccH
	push	ebx
	push	esi
	push	edi
	push	ecx
	lea	edi, DWORD PTR [ebp-204]
	mov	ecx, 51					; 00000033H
	mov	eax, -858993460				; ccccccccH
	rep stosd
	pop	ecx
	mov	DWORD PTR _this$[ebp], ecx
; Line 158
	cmp	DWORD PTR _n$[ebp], 0
	jl	SHORT $LN3@remove_pre
; Line 159
	mov	eax, DWORD PTR _this$[ebp]
	mov	ecx, DWORD PTR _n$[ebp]
	cmp	ecx, DWORD PTR [eax+4]
	jle	SHORT $LN1@remove_pre
; Line 160
	mov	eax, DWORD PTR _this$[ebp]
	mov	ecx, DWORD PTR [eax+4]
	mov	DWORD PTR _n$[ebp], ecx
$LN1@remove_pre:
; Line 162
	mov	eax, DWORD PTR _this$[ebp]
	mov	ecx, DWORD PTR [eax]
	add	ecx, DWORD PTR _n$[ebp]
	mov	edx, DWORD PTR _this$[ebp]
	mov	DWORD PTR [edx], ecx
; Line 163
	mov	eax, DWORD PTR _this$[ebp]
	mov	ecx, DWORD PTR [eax+4]
	sub	ecx, DWORD PTR _n$[ebp]
	mov	edx, DWORD PTR _this$[ebp]
	mov	DWORD PTR [edx+4], ecx
$LN3@remove_pre:
; Line 165
	pop	edi
	pop	esi
	pop	ebx
	mov	esp, ebp
	pop	ebp
	ret	4
?remove_prefix@StringPiece@icu_56@@QAEXH@Z ENDP		; icu_56::StringPiece::remove_prefix
_TEXT	ENDS
PUBLIC	?remove_suffix@StringPiece@icu_56@@QAEXH@Z	; icu_56::StringPiece::remove_suffix
; Function compile flags: /Odtp /RTCsu /ZI
;	COMDAT ?remove_suffix@StringPiece@icu_56@@QAEXH@Z
_TEXT	SEGMENT
_this$ = -8						; size = 4
_n$ = 8							; size = 4
?remove_suffix@StringPiece@icu_56@@QAEXH@Z PROC		; icu_56::StringPiece::remove_suffix, COMDAT
; _this$ = ecx
; Line 172
	push	ebp
	mov	ebp, esp
	sub	esp, 204				; 000000ccH
	push	ebx
	push	esi
	push	edi
	push	ecx
	lea	edi, DWORD PTR [ebp-204]
	mov	ecx, 51					; 00000033H
	mov	eax, -858993460				; ccccccccH
	rep stosd
	pop	ecx
	mov	DWORD PTR _this$[ebp], ecx
; Line 173
	cmp	DWORD PTR _n$[ebp], 0
	jl	SHORT $LN4@remove_suf
; Line 174
	mov	eax, DWORD PTR _this$[ebp]
	mov	ecx, DWORD PTR _n$[ebp]
	cmp	ecx, DWORD PTR [eax+4]
	jg	SHORT $LN2@remove_suf
; Line 175
	mov	eax, DWORD PTR _this$[ebp]
	mov	ecx, DWORD PTR [eax+4]
	sub	ecx, DWORD PTR _n$[ebp]
	mov	edx, DWORD PTR _this$[ebp]
	mov	DWORD PTR [edx+4], ecx
; Line 176
	jmp	SHORT $LN4@remove_suf
$LN2@remove_suf:
; Line 177
	mov	eax, DWORD PTR _this$[ebp]
	mov	DWORD PTR [eax+4], 0
$LN4@remove_suf:
; Line 180
	pop	edi
	pop	esi
	pop	ebx
	mov	esp, ebp
	pop	ebp
	ret	4
?remove_suffix@StringPiece@icu_56@@QAEXH@Z ENDP		; icu_56::StringPiece::remove_suffix
_TEXT	ENDS
PUBLIC	?substr@StringPiece@icu_56@@QBE?AV12@HH@Z	; icu_56::StringPiece::substr
EXTRN	??0StringPiece@icu_56@@QAE@ABV01@HH@Z:PROC	; icu_56::StringPiece::StringPiece
; Function compile flags: /Odtp /RTCsu /ZI
;	COMDAT ?substr@StringPiece@icu_56@@QBE?AV12@HH@Z
_TEXT	SEGMENT
_this$ = -8						; size = 4
___$ReturnUdt$ = 8					; size = 4
_pos$ = 12						; size = 4
_len$ = 16						; size = 4
?substr@StringPiece@icu_56@@QBE?AV12@HH@Z PROC		; icu_56::StringPiece::substr, COMDAT
; _this$ = ecx
; Line 196
	push	ebp
	mov	ebp, esp
	sub	esp, 204				; 000000ccH
	push	ebx
	push	esi
	push	edi
	push	ecx
	lea	edi, DWORD PTR [ebp-204]
	mov	ecx, 51					; 00000033H
	mov	eax, -858993460				; ccccccccH
	rep stosd
	pop	ecx
	mov	DWORD PTR _this$[ebp], ecx
; Line 197
	mov	eax, DWORD PTR _len$[ebp]
	push	eax
	mov	ecx, DWORD PTR _pos$[ebp]
	push	ecx
	mov	edx, DWORD PTR _this$[ebp]
	push	edx
	mov	ecx, DWORD PTR ___$ReturnUdt$[ebp]
	call	??0StringPiece@icu_56@@QAE@ABV01@HH@Z	; icu_56::StringPiece::StringPiece
	mov	eax, DWORD PTR ___$ReturnUdt$[ebp]
; Line 198
	pop	edi
	pop	esi
	pop	ebx
	add	esp, 204				; 000000ccH
	cmp	ebp, esp
	call	__RTC_CheckEsp
	mov	esp, ebp
	pop	ebp
	ret	12					; 0000000cH
?substr@StringPiece@icu_56@@QBE?AV12@HH@Z ENDP		; icu_56::StringPiece::substr
_TEXT	ENDS
PUBLIC	??4StringPiece@icu_56@@QAEAAV01@ABV01@@Z	; icu_56::StringPiece::operator=
; Function compile flags: /Odtp /RTCsu /ZI
;	COMDAT ??4StringPiece@icu_56@@QAEAAV01@ABV01@@Z
_TEXT	SEGMENT
_this$ = -8						; size = 4
___that$ = 8						; size = 4
??4StringPiece@icu_56@@QAEAAV01@ABV01@@Z PROC		; icu_56::StringPiece::operator=, COMDAT
; _this$ = ecx
	push	ebp
	mov	ebp, esp
	sub	esp, 204				; 000000ccH
	push	ebx
	push	esi
	push	edi
	push	ecx
	lea	edi, DWORD PTR [ebp-204]
	mov	ecx, 51					; 00000033H
	mov	eax, -858993460				; ccccccccH
	rep stosd
	pop	ecx
	mov	DWORD PTR _this$[ebp], ecx
	mov	eax, DWORD PTR ___that$[ebp]
	mov	ecx, DWORD PTR [eax]
	mov	edx, DWORD PTR [eax+4]
	mov	eax, DWORD PTR _this$[ebp]
	mov	DWORD PTR [eax], ecx
	mov	DWORD PTR [eax+4], edx
	mov	eax, DWORD PTR _this$[ebp]
	pop	edi
	pop	esi
	pop	ebx
	mov	esp, ebp
	pop	ebp
	ret	4
??4StringPiece@icu_56@@QAEAAV01@ABV01@@Z ENDP		; icu_56::StringPiece::operator=
_TEXT	ENDS
PUBLIC	??_7ByteSink@icu_56@@6B@			; icu_56::ByteSink::`vftable'
PUBLIC	??0ByteSink@icu_56@@QAE@XZ			; icu_56::ByteSink::ByteSink
PUBLIC	??_R4ByteSink@icu_56@@6B@			; icu_56::ByteSink::`RTTI Complete Object Locator'
PUBLIC	??_R0?AVByteSink@icu_56@@@8			; icu_56::ByteSink `RTTI Type Descriptor'
PUBLIC	??_R3ByteSink@icu_56@@8				; icu_56::ByteSink::`RTTI Class Hierarchy Descriptor'
PUBLIC	??_R2ByteSink@icu_56@@8				; icu_56::ByteSink::`RTTI Base Class Array'
PUBLIC	??_R1A@?0A@EA@ByteSink@icu_56@@8		; icu_56::ByteSink::`RTTI Base Class Descriptor at (0,-1,0,64)'
PUBLIC	??_EByteSink@icu_56@@UAEPAXI@Z			; icu_56::ByteSink::`vector deleting destructor'
EXTRN	?GetAppendBuffer@ByteSink@icu_56@@UAEPADHHPADHPAH@Z:PROC ; icu_56::ByteSink::GetAppendBuffer
EXTRN	?Flush@ByteSink@icu_56@@UAEXXZ:PROC		; icu_56::ByteSink::Flush
;	COMDAT ??_R1A@?0A@EA@ByteSink@icu_56@@8
; File d:\mozilla\intl\icu\source\common\unicode\bytestream.h
rdata$r	SEGMENT
??_R1A@?0A@EA@ByteSink@icu_56@@8 DD FLAT:??_R0?AVByteSink@icu_56@@@8 ; icu_56::ByteSink::`RTTI Base Class Descriptor at (0,-1,0,64)'
	DD	01H
	DD	00H
	DD	0ffffffffH
	DD	00H
	DD	040H
	DD	FLAT:??_R3ByteSink@icu_56@@8
rdata$r	ENDS
;	COMDAT ??_R2ByteSink@icu_56@@8
rdata$r	SEGMENT
??_R2ByteSink@icu_56@@8 DD FLAT:??_R1A@?0A@EA@ByteSink@icu_56@@8 ; icu_56::ByteSink::`RTTI Base Class Array'
	DD	FLAT:??_R13?0A@EA@UMemory@icu_56@@8
rdata$r	ENDS
;	COMDAT ??_R3ByteSink@icu_56@@8
rdata$r	SEGMENT
??_R3ByteSink@icu_56@@8 DD 00H				; icu_56::ByteSink::`RTTI Class Hierarchy Descriptor'
	DD	00H
	DD	02H
	DD	FLAT:??_R2ByteSink@icu_56@@8
rdata$r	ENDS
;	COMDAT ??_R0?AVByteSink@icu_56@@@8
_DATA	SEGMENT
??_R0?AVByteSink@icu_56@@@8 DD FLAT:??_7type_info@@6B@	; icu_56::ByteSink `RTTI Type Descriptor'
	DD	00H
	DB	'.?AVByteSink@icu_56@@', 00H
_DATA	ENDS
;	COMDAT ??_R4ByteSink@icu_56@@6B@
rdata$r	SEGMENT
??_R4ByteSink@icu_56@@6B@ DD 00H			; icu_56::ByteSink::`RTTI Complete Object Locator'
	DD	00H
	DD	00H
	DD	FLAT:??_R0?AVByteSink@icu_56@@@8
	DD	FLAT:??_R3ByteSink@icu_56@@8
rdata$r	ENDS
;	COMDAT ??_7ByteSink@icu_56@@6B@
CONST	SEGMENT
??_7ByteSink@icu_56@@6B@ DD FLAT:??_R4ByteSink@icu_56@@6B@ ; icu_56::ByteSink::`vftable'
	DD	FLAT:??_EByteSink@icu_56@@UAEPAXI@Z
	DD	FLAT:__purecall
	DD	FLAT:?GetAppendBuffer@ByteSink@icu_56@@UAEPADHHPADHPAH@Z
	DD	FLAT:?Flush@ByteSink@icu_56@@UAEXXZ
; Function compile flags: /Odtp /RTCsu /ZI
CONST	ENDS
;	COMDAT ??0ByteSink@icu_56@@QAE@XZ
_TEXT	SEGMENT
_this$ = -8						; size = 4
??0ByteSink@icu_56@@QAE@XZ PROC				; icu_56::ByteSink::ByteSink, COMDAT
; _this$ = ecx
; Line 54
	push	ebp
	mov	ebp, esp
	sub	esp, 204				; 000000ccH
	push	ebx
	push	esi
	push	edi
	push	ecx
	lea	edi, DWORD PTR [ebp-204]
	mov	ecx, 51					; 00000033H
	mov	eax, -858993460				; ccccccccH
	rep stosd
	pop	ecx
	mov	DWORD PTR _this$[ebp], ecx
	mov	eax, DWORD PTR _this$[ebp]
	mov	DWORD PTR [eax], OFFSET ??_7ByteSink@icu_56@@6B@
	mov	eax, DWORD PTR _this$[ebp]
	pop	edi
	pop	esi
	pop	ebx
	mov	esp, ebp
	pop	ebp
	ret	0
??0ByteSink@icu_56@@QAE@XZ ENDP				; icu_56::ByteSink::ByteSink
_TEXT	ENDS
PUBLIC	??_GByteSink@icu_56@@UAEPAXI@Z			; icu_56::ByteSink::`scalar deleting destructor'
EXTRN	??1ByteSink@icu_56@@UAE@XZ:PROC			; icu_56::ByteSink::~ByteSink
; Function compile flags: /Odtp /RTCsu /ZI
;	COMDAT ??_GByteSink@icu_56@@UAEPAXI@Z
_TEXT	SEGMENT
_this$ = -8						; size = 4
___flags$ = 8						; size = 4
??_GByteSink@icu_56@@UAEPAXI@Z PROC			; icu_56::ByteSink::`scalar deleting destructor', COMDAT
; _this$ = ecx
	push	ebp
	mov	ebp, esp
	sub	esp, 204				; 000000ccH
	push	ebx
	push	esi
	push	edi
	push	ecx
	lea	edi, DWORD PTR [ebp-204]
	mov	ecx, 51					; 00000033H
	mov	eax, -858993460				; ccccccccH
	rep stosd
	pop	ecx
	mov	DWORD PTR _this$[ebp], ecx
	mov	ecx, DWORD PTR _this$[ebp]
	call	??1ByteSink@icu_56@@UAE@XZ		; icu_56::ByteSink::~ByteSink
	mov	eax, DWORD PTR ___flags$[ebp]
	and	eax, 1
	je	SHORT $LN1@scalar@6
	mov	eax, DWORD PTR _this$[ebp]
	push	eax
	call	??3UMemory@icu_56@@SAXPAX@Z		; icu_56::UMemory::operator delete
	add	esp, 4
$LN1@scalar@6:
	mov	eax, DWORD PTR _this$[ebp]
	pop	edi
	pop	esi
	pop	ebx
	add	esp, 204				; 000000ccH
	cmp	ebp, esp
	call	__RTC_CheckEsp
	mov	esp, ebp
	pop	ebp
	ret	4
??_GByteSink@icu_56@@UAEPAXI@Z ENDP			; icu_56::ByteSink::`scalar deleting destructor'
; Function compile flags: /Odtp /RTCsu /ZI
_TEXT	ENDS
;	COMDAT ??_EByteSink@icu_56@@UAEPAXI@Z
_TEXT	SEGMENT
_this$ = -8						; size = 4
___flags$ = 8						; size = 4
??_EByteSink@icu_56@@UAEPAXI@Z PROC			; icu_56::ByteSink::`vector deleting destructor', COMDAT
; _this$ = ecx
	push	ebp
	mov	ebp, esp
	sub	esp, 204				; 000000ccH
	push	ebx
	push	esi
	push	edi
	push	ecx
	lea	edi, DWORD PTR [ebp-204]
	mov	ecx, 51					; 00000033H
	mov	eax, -858993460				; ccccccccH
	rep stosd
	pop	ecx
	mov	DWORD PTR _this$[ebp], ecx
	mov	eax, DWORD PTR ___flags$[ebp]
	and	eax, 2
	je	SHORT $LN3@vector@6
	push	OFFSET ??1ByteSink@icu_56@@UAE@XZ	; icu_56::ByteSink::~ByteSink
	mov	eax, DWORD PTR _this$[ebp]
	mov	ecx, DWORD PTR [eax-4]
	push	ecx
	push	4
	mov	edx, DWORD PTR _this$[ebp]
	push	edx
	call	??_M@YGXPAXIHP6EX0@Z@Z
	mov	eax, DWORD PTR ___flags$[ebp]
	and	eax, 1
	je	SHORT $LN2@vector@6
	mov	eax, DWORD PTR _this$[ebp]
	sub	eax, 4
	push	eax
	call	??_VUMemory@icu_56@@SAXPAX@Z		; icu_56::UMemory::operator delete[]
	add	esp, 4
$LN2@vector@6:
	mov	eax, DWORD PTR _this$[ebp]
	sub	eax, 4
	jmp	SHORT $LN4@vector@6
$LN3@vector@6:
	mov	ecx, DWORD PTR _this$[ebp]
	call	??1ByteSink@icu_56@@UAE@XZ		; icu_56::ByteSink::~ByteSink
	mov	eax, DWORD PTR ___flags$[ebp]
	and	eax, 1
	je	SHORT $LN1@vector@6
	mov	eax, DWORD PTR _this$[ebp]
	push	eax
	call	??3UMemory@icu_56@@SAXPAX@Z		; icu_56::UMemory::operator delete
	add	esp, 4
$LN1@vector@6:
	mov	eax, DWORD PTR _this$[ebp]
$LN4@vector@6:
	pop	edi
	pop	esi
	pop	ebx
	add	esp, 204				; 000000ccH
	cmp	ebp, esp
	call	__RTC_CheckEsp
	mov	esp, ebp
	pop	ebp
	ret	4
??_EByteSink@icu_56@@UAEPAXI@Z ENDP			; icu_56::ByteSink::`vector deleting destructor'
_TEXT	ENDS
PUBLIC	?NumberOfBytesWritten@CheckedArrayByteSink@icu_56@@QBEHXZ ; icu_56::CheckedArrayByteSink::NumberOfBytesWritten
; Function compile flags: /Odtp /RTCsu /ZI
;	COMDAT ?NumberOfBytesWritten@CheckedArrayByteSink@icu_56@@QBEHXZ
_TEXT	SEGMENT
_this$ = -8						; size = 4
?NumberOfBytesWritten@CheckedArrayByteSink@icu_56@@QBEHXZ PROC ; icu_56::CheckedArrayByteSink::NumberOfBytesWritten, COMDAT
; _this$ = ecx
; Line 196
	push	ebp
	mov	ebp, esp
	sub	esp, 204				; 000000ccH
	push	ebx
	push	esi
	push	edi
	push	ecx
	lea	edi, DWORD PTR [ebp-204]
	mov	ecx, 51					; 00000033H
	mov	eax, -858993460				; ccccccccH
	rep stosd
	pop	ecx
	mov	DWORD PTR _this$[ebp], ecx
	mov	eax, DWORD PTR _this$[ebp]
	mov	eax, DWORD PTR [eax+12]
	pop	edi
	pop	esi
	pop	ebx
	mov	esp, ebp
	pop	ebp
	ret	0
?NumberOfBytesWritten@CheckedArrayByteSink@icu_56@@QBEHXZ ENDP ; icu_56::CheckedArrayByteSink::NumberOfBytesWritten
_TEXT	ENDS
PUBLIC	?Overflowed@CheckedArrayByteSink@icu_56@@QBECXZ	; icu_56::CheckedArrayByteSink::Overflowed
; Function compile flags: /Odtp /RTCsu /ZI
;	COMDAT ?Overflowed@CheckedArrayByteSink@icu_56@@QBECXZ
_TEXT	SEGMENT
_this$ = -8						; size = 4
?Overflowed@CheckedArrayByteSink@icu_56@@QBECXZ PROC	; icu_56::CheckedArrayByteSink::Overflowed, COMDAT
; _this$ = ecx
; Line 203
	push	ebp
	mov	ebp, esp
	sub	esp, 204				; 000000ccH
	push	ebx
	push	esi
	push	edi
	push	ecx
	lea	edi, DWORD PTR [ebp-204]
	mov	ecx, 51					; 00000033H
	mov	eax, -858993460				; ccccccccH
	rep stosd
	pop	ecx
	mov	DWORD PTR _this$[ebp], ecx
	mov	eax, DWORD PTR _this$[ebp]
	mov	al, BYTE PTR [eax+20]
	pop	edi
	pop	esi
	pop	ebx
	mov	esp, ebp
	pop	ebp
	ret	0
?Overflowed@CheckedArrayByteSink@icu_56@@QBECXZ ENDP	; icu_56::CheckedArrayByteSink::Overflowed
_TEXT	ENDS
PUBLIC	?NumberOfBytesAppended@CheckedArrayByteSink@icu_56@@QBEHXZ ; icu_56::CheckedArrayByteSink::NumberOfBytesAppended
; Function compile flags: /Odtp /RTCsu /ZI
;	COMDAT ?NumberOfBytesAppended@CheckedArrayByteSink@icu_56@@QBEHXZ
_TEXT	SEGMENT
_this$ = -8						; size = 4
?NumberOfBytesAppended@CheckedArrayByteSink@icu_56@@QBEHXZ PROC ; icu_56::CheckedArrayByteSink::NumberOfBytesAppended, COMDAT
; _this$ = ecx
; Line 211
	push	ebp
	mov	ebp, esp
	sub	esp, 204				; 000000ccH
	push	ebx
	push	esi
	push	edi
	push	ecx
	lea	edi, DWORD PTR [ebp-204]
	mov	ecx, 51					; 00000033H
	mov	eax, -858993460				; ccccccccH
	rep stosd
	pop	ecx
	mov	DWORD PTR _this$[ebp], ecx
	mov	eax, DWORD PTR _this$[ebp]
	mov	eax, DWORD PTR [eax+16]
	pop	edi
	pop	esi
	pop	ebx
	mov	esp, ebp
	pop	ebp
	ret	0
?NumberOfBytesAppended@CheckedArrayByteSink@icu_56@@QBEHXZ ENDP ; icu_56::CheckedArrayByteSink::NumberOfBytesAppended
_TEXT	ENDS
PUBLIC	??4UnicodeString@icu_56@@QAEAAV01@$$QAV01@@Z	; icu_56::UnicodeString::operator=
EXTRN	?moveFrom@UnicodeString@icu_56@@QAEAAV12@AAV12@@Z:PROC ; icu_56::UnicodeString::moveFrom
; Function compile flags: /Odtp /RTCsu /ZI
;	COMDAT ??4UnicodeString@icu_56@@QAEAAV01@$$QAV01@@Z
_TEXT	SEGMENT
_this$ = -8						; size = 4
_src$ = 8						; size = 4
??4UnicodeString@icu_56@@QAEAAV01@$$QAV01@@Z PROC	; icu_56::UnicodeString::operator=, COMDAT
; _this$ = ecx
; File d:\mozilla\intl\icu\source\common\unicode\unistr.h
; Line 1915
	push	ebp
	mov	ebp, esp
	sub	esp, 204				; 000000ccH
	push	ebx
	push	esi
	push	edi
	push	ecx
	lea	edi, DWORD PTR [ebp-204]
	mov	ecx, 51					; 00000033H
	mov	eax, -858993460				; ccccccccH
	rep stosd
	pop	ecx
	mov	DWORD PTR _this$[ebp], ecx
; Line 1916
	mov	eax, DWORD PTR _src$[ebp]
	push	eax
	mov	ecx, DWORD PTR _this$[ebp]
	call	?moveFrom@UnicodeString@icu_56@@QAEAAV12@AAV12@@Z ; icu_56::UnicodeString::moveFrom
; Line 1917
	pop	edi
	pop	esi
	pop	ebx
	add	esp, 204				; 000000ccH
	cmp	ebp, esp
	call	__RTC_CheckEsp
	mov	esp, ebp
	pop	ebp
	ret	4
??4UnicodeString@icu_56@@QAEAAV01@$$QAV01@@Z ENDP	; icu_56::UnicodeString::operator=
_TEXT	ENDS
PUBLIC	?swap@icu_56@@YAXAAVUnicodeString@1@0@Z		; icu_56::swap
EXTRN	?swap@UnicodeString@icu_56@@QAEXAAV12@@Z:PROC	; icu_56::UnicodeString::swap
; Function compile flags: /Odtp /RTCsu /ZI
;	COMDAT ?swap@icu_56@@YAXAAVUnicodeString@1@0@Z
_TEXT	SEGMENT
_s1$ = 8						; size = 4
_s2$ = 12						; size = 4
?swap@icu_56@@YAXAAVUnicodeString@1@0@Z PROC		; icu_56::swap, COMDAT
; Line 1945
	push	ebp
	mov	ebp, esp
	sub	esp, 192				; 000000c0H
	push	ebx
	push	esi
	push	edi
	lea	edi, DWORD PTR [ebp-192]
	mov	ecx, 48					; 00000030H
	mov	eax, -858993460				; ccccccccH
	rep stosd
; Line 1946
	mov	eax, DWORD PTR _s2$[ebp]
	push	eax
	mov	ecx, DWORD PTR _s1$[ebp]
	call	?swap@UnicodeString@icu_56@@QAEXAAV12@@Z ; icu_56::UnicodeString::swap
; Line 1947
	pop	edi
	pop	esi
	pop	ebx
	add	esp, 192				; 000000c0H
	cmp	ebp, esp
	call	__RTC_CheckEsp
	mov	esp, ebp
	pop	ebp
	ret	0
?swap@icu_56@@YAXAAVUnicodeString@1@0@Z ENDP		; icu_56::swap
_TEXT	ENDS
PUBLIC	??_GUnicodeString@icu_56@@UAEPAXI@Z		; icu_56::UnicodeString::`scalar deleting destructor'
EXTRN	??1UnicodeString@icu_56@@UAE@XZ:PROC		; icu_56::UnicodeString::~UnicodeString
; Function compile flags: /Odtp /RTCsu /ZI
;	COMDAT ??_GUnicodeString@icu_56@@UAEPAXI@Z
_TEXT	SEGMENT
_this$ = -8						; size = 4
___flags$ = 8						; size = 4
??_GUnicodeString@icu_56@@UAEPAXI@Z PROC		; icu_56::UnicodeString::`scalar deleting destructor', COMDAT
; _this$ = ecx
	push	ebp
	mov	ebp, esp
	sub	esp, 204				; 000000ccH
	push	ebx
	push	esi
	push	edi
	push	ecx
	lea	edi, DWORD PTR [ebp-204]
	mov	ecx, 51					; 00000033H
	mov	eax, -858993460				; ccccccccH
	rep stosd
	pop	ecx
	mov	DWORD PTR _this$[ebp], ecx
	mov	ecx, DWORD PTR _this$[ebp]
	call	??1UnicodeString@icu_56@@UAE@XZ		; icu_56::UnicodeString::~UnicodeString
	mov	eax, DWORD PTR ___flags$[ebp]
	and	eax, 1
	je	SHORT $LN1@scalar@7
	mov	eax, DWORD PTR _this$[ebp]
	push	eax
	call	??3UMemory@icu_56@@SAXPAX@Z		; icu_56::UMemory::operator delete
	add	esp, 4
$LN1@scalar@7:
	mov	eax, DWORD PTR _this$[ebp]
	pop	edi
	pop	esi
	pop	ebx
	add	esp, 204				; 000000ccH
	cmp	ebp, esp
	call	__RTC_CheckEsp
	mov	esp, ebp
	pop	ebp
	ret	4
??_GUnicodeString@icu_56@@UAEPAXI@Z ENDP		; icu_56::UnicodeString::`scalar deleting destructor'
_TEXT	ENDS
PUBLIC	??_EUnicodeString@icu_56@@UAEPAXI@Z		; icu_56::UnicodeString::`vector deleting destructor'
; Function compile flags: /Odtp /RTCsu /ZI
;	COMDAT ??_EUnicodeString@icu_56@@UAEPAXI@Z
_TEXT	SEGMENT
_this$ = -8						; size = 4
___flags$ = 8						; size = 4
??_EUnicodeString@icu_56@@UAEPAXI@Z PROC		; icu_56::UnicodeString::`vector deleting destructor', COMDAT
; _this$ = ecx
	push	ebp
	mov	ebp, esp
	sub	esp, 204				; 000000ccH
	push	ebx
	push	esi
	push	edi
	push	ecx
	lea	edi, DWORD PTR [ebp-204]
	mov	ecx, 51					; 00000033H
	mov	eax, -858993460				; ccccccccH
	rep stosd
	pop	ecx
	mov	DWORD PTR _this$[ebp], ecx
	mov	eax, DWORD PTR ___flags$[ebp]
	and	eax, 2
	je	SHORT $LN3@vector@7
	push	OFFSET ??1UnicodeString@icu_56@@UAE@XZ	; icu_56::UnicodeString::~UnicodeString
	mov	eax, DWORD PTR _this$[ebp]
	mov	ecx, DWORD PTR [eax-4]
	push	ecx
	push	64					; 00000040H
	mov	edx, DWORD PTR _this$[ebp]
	push	edx
	call	??_M@YGXPAXIHP6EX0@Z@Z
	mov	eax, DWORD PTR ___flags$[ebp]
	and	eax, 1
	je	SHORT $LN2@vector@7
	mov	eax, DWORD PTR _this$[ebp]
	sub	eax, 4
	push	eax
	call	??_VUMemory@icu_56@@SAXPAX@Z		; icu_56::UMemory::operator delete[]
	add	esp, 4
$LN2@vector@7:
	mov	eax, DWORD PTR _this$[ebp]
	sub	eax, 4
	jmp	SHORT $LN4@vector@7
$LN3@vector@7:
	mov	ecx, DWORD PTR _this$[ebp]
	call	??1UnicodeString@icu_56@@UAE@XZ		; icu_56::UnicodeString::~UnicodeString
	mov	eax, DWORD PTR ___flags$[ebp]
	and	eax, 1
	je	SHORT $LN1@vector@7
	mov	eax, DWORD PTR _this$[ebp]
	push	eax
	call	??3UMemory@icu_56@@SAXPAX@Z		; icu_56::UMemory::operator delete
	add	esp, 4
$LN1@vector@7:
	mov	eax, DWORD PTR _this$[ebp]
$LN4@vector@7:
	pop	edi
	pop	esi
	pop	ebx
	add	esp, 204				; 000000ccH
	cmp	ebp, esp
	call	__RTC_CheckEsp
	mov	esp, ebp
	pop	ebp
	ret	4
??_EUnicodeString@icu_56@@UAEPAXI@Z ENDP		; icu_56::UnicodeString::`vector deleting destructor'
_TEXT	ENDS
PUBLIC	?length@UnicodeString@icu_56@@QBEHXZ		; icu_56::UnicodeString::length
PUBLIC	?pinIndex@UnicodeString@icu_56@@ABEXAAH@Z	; icu_56::UnicodeString::pinIndex
; Function compile flags: /Odtp /RTCsu /ZI
;	COMDAT ?pinIndex@UnicodeString@icu_56@@ABEXAAH@Z
_TEXT	SEGMENT
_this$ = -8						; size = 4
_start$ = 8						; size = 4
?pinIndex@UnicodeString@icu_56@@ABEXAAH@Z PROC		; icu_56::UnicodeString::pinIndex, COMDAT
; _this$ = ecx
; Line 3730
	push	ebp
	mov	ebp, esp
	sub	esp, 204				; 000000ccH
	push	ebx
	push	esi
	push	edi
	push	ecx
	lea	edi, DWORD PTR [ebp-204]
	mov	ecx, 51					; 00000033H
	mov	eax, -858993460				; ccccccccH
	rep stosd
	pop	ecx
	mov	DWORD PTR _this$[ebp], ecx
; Line 3732
	mov	eax, DWORD PTR _start$[ebp]
	cmp	DWORD PTR [eax], 0
	jge	SHORT $LN3@pinIndex
; Line 3733
	mov	eax, DWORD PTR _start$[ebp]
	mov	DWORD PTR [eax], 0
	jmp	SHORT $LN4@pinIndex
$LN3@pinIndex:
; Line 3734
	mov	ecx, DWORD PTR _this$[ebp]
	call	?length@UnicodeString@icu_56@@QBEHXZ	; icu_56::UnicodeString::length
	mov	ecx, DWORD PTR _start$[ebp]
	cmp	DWORD PTR [ecx], eax
	jle	SHORT $LN4@pinIndex
; Line 3735
	mov	ecx, DWORD PTR _this$[ebp]
	call	?length@UnicodeString@icu_56@@QBEHXZ	; icu_56::UnicodeString::length
	mov	ecx, DWORD PTR _start$[ebp]
	mov	DWORD PTR [ecx], eax
$LN4@pinIndex:
; Line 3737
	pop	edi
	pop	esi
	pop	ebx
	add	esp, 204				; 000000ccH
	cmp	ebp, esp
	call	__RTC_CheckEsp
	mov	esp, ebp
	pop	ebp
	ret	4
?pinIndex@UnicodeString@icu_56@@ABEXAAH@Z ENDP		; icu_56::UnicodeString::pinIndex
_TEXT	ENDS
PUBLIC	?pinIndices@UnicodeString@icu_56@@ABEXAAH0@Z	; icu_56::UnicodeString::pinIndices
; Function compile flags: /Odtp /RTCsu /ZI
;	COMDAT ?pinIndices@UnicodeString@icu_56@@ABEXAAH0@Z
_TEXT	SEGMENT
_len$ = -20						; size = 4
_this$ = -8						; size = 4
_start$ = 8						; size = 4
__length$ = 12						; size = 4
?pinIndices@UnicodeString@icu_56@@ABEXAAH0@Z PROC	; icu_56::UnicodeString::pinIndices, COMDAT
; _this$ = ecx
; Line 3742
	push	ebp
	mov	ebp, esp
	sub	esp, 216				; 000000d8H
	push	ebx
	push	esi
	push	edi
	push	ecx
	lea	edi, DWORD PTR [ebp-216]
	mov	ecx, 54					; 00000036H
	mov	eax, -858993460				; ccccccccH
	rep stosd
	pop	ecx
	mov	DWORD PTR _this$[ebp], ecx
; Line 3744
	mov	ecx, DWORD PTR _this$[ebp]
	call	?length@UnicodeString@icu_56@@QBEHXZ	; icu_56::UnicodeString::length
	mov	DWORD PTR _len$[ebp], eax
; Line 3745
	mov	eax, DWORD PTR _start$[ebp]
	cmp	DWORD PTR [eax], 0
	jge	SHORT $LN6@pinIndices
; Line 3746
	mov	eax, DWORD PTR _start$[ebp]
	mov	DWORD PTR [eax], 0
	jmp	SHORT $LN5@pinIndices
$LN6@pinIndices:
; Line 3747
	mov	eax, DWORD PTR _start$[ebp]
	mov	ecx, DWORD PTR [eax]
	cmp	ecx, DWORD PTR _len$[ebp]
	jle	SHORT $LN5@pinIndices
; Line 3748
	mov	eax, DWORD PTR _start$[ebp]
	mov	ecx, DWORD PTR _len$[ebp]
	mov	DWORD PTR [eax], ecx
$LN5@pinIndices:
; Line 3750
	mov	eax, DWORD PTR __length$[ebp]
	cmp	DWORD PTR [eax], 0
	jge	SHORT $LN3@pinIndices
; Line 3751
	mov	eax, DWORD PTR __length$[ebp]
	mov	DWORD PTR [eax], 0
	jmp	SHORT $LN7@pinIndices
$LN3@pinIndices:
; Line 3752
	mov	eax, DWORD PTR _start$[ebp]
	mov	ecx, DWORD PTR _len$[ebp]
	sub	ecx, DWORD PTR [eax]
	mov	edx, DWORD PTR __length$[ebp]
	cmp	DWORD PTR [edx], ecx
	jle	SHORT $LN7@pinIndices
; Line 3753
	mov	eax, DWORD PTR _start$[ebp]
	mov	ecx, DWORD PTR _len$[ebp]
	sub	ecx, DWORD PTR [eax]
	mov	edx, DWORD PTR __length$[ebp]
	mov	DWORD PTR [edx], ecx
$LN7@pinIndices:
; Line 3755
	pop	edi
	pop	esi
	pop	ebx
	add	esp, 216				; 000000d8H
	cmp	ebp, esp
	call	__RTC_CheckEsp
	mov	esp, ebp
	pop	ebp
	ret	8
?pinIndices@UnicodeString@icu_56@@ABEXAAH0@Z ENDP	; icu_56::UnicodeString::pinIndices
_TEXT	ENDS
PUBLIC	?getArrayStart@UnicodeString@icu_56@@AAEPA_WXZ	; icu_56::UnicodeString::getArrayStart
; Function compile flags: /Odtp /RTCsu /ZI
;	COMDAT ?getArrayStart@UnicodeString@icu_56@@AAEPA_WXZ
_TEXT	SEGMENT
tv76 = -208						; size = 4
_this$ = -8						; size = 4
?getArrayStart@UnicodeString@icu_56@@AAEPA_WXZ PROC	; icu_56::UnicodeString::getArrayStart, COMDAT
; _this$ = ecx
; Line 3758
	push	ebp
	mov	ebp, esp
	sub	esp, 208				; 000000d0H
	push	ebx
	push	esi
	push	edi
	push	ecx
	lea	edi, DWORD PTR [ebp-208]
	mov	ecx, 52					; 00000034H
	mov	eax, -858993460				; ccccccccH
	rep stosd
	pop	ecx
	mov	DWORD PTR _this$[ebp], ecx
; Line 3760
	mov	eax, DWORD PTR _this$[ebp]
	movsx	ecx, WORD PTR [eax+4]
	and	ecx, 2
	je	SHORT $LN3@getArraySt
	mov	edx, DWORD PTR _this$[ebp]
	add	edx, 6
	mov	DWORD PTR tv76[ebp], edx
	jmp	SHORT $LN4@getArraySt
$LN3@getArraySt:
	mov	eax, DWORD PTR _this$[ebp]
	mov	ecx, DWORD PTR [eax+16]
	mov	DWORD PTR tv76[ebp], ecx
$LN4@getArraySt:
	mov	eax, DWORD PTR tv76[ebp]
; Line 3761
	pop	edi
	pop	esi
	pop	ebx
	mov	esp, ebp
	pop	ebp
	ret	0
?getArrayStart@UnicodeString@icu_56@@AAEPA_WXZ ENDP	; icu_56::UnicodeString::getArrayStart
_TEXT	ENDS
PUBLIC	?getArrayStart@UnicodeString@icu_56@@ABEPB_WXZ	; icu_56::UnicodeString::getArrayStart
; Function compile flags: /Odtp /RTCsu /ZI
;	COMDAT ?getArrayStart@UnicodeString@icu_56@@ABEPB_WXZ
_TEXT	SEGMENT
tv76 = -208						; size = 4
_this$ = -8						; size = 4
?getArrayStart@UnicodeString@icu_56@@ABEPB_WXZ PROC	; icu_56::UnicodeString::getArrayStart, COMDAT
; _this$ = ecx
; Line 3764
	push	ebp
	mov	ebp, esp
	sub	esp, 208				; 000000d0H
	push	ebx
	push	esi
	push	edi
	push	ecx
	lea	edi, DWORD PTR [ebp-208]
	mov	ecx, 52					; 00000034H
	mov	eax, -858993460				; ccccccccH
	rep stosd
	pop	ecx
	mov	DWORD PTR _this$[ebp], ecx
; Line 3766
	mov	eax, DWORD PTR _this$[ebp]
	movsx	ecx, WORD PTR [eax+4]
	and	ecx, 2
	je	SHORT $LN3@getArraySt@2
	mov	edx, DWORD PTR _this$[ebp]
	add	edx, 6
	mov	DWORD PTR tv76[ebp], edx
	jmp	SHORT $LN4@getArraySt@2
$LN3@getArraySt@2:
	mov	eax, DWORD PTR _this$[ebp]
	mov	ecx, DWORD PTR [eax+16]
	mov	DWORD PTR tv76[ebp], ecx
$LN4@getArraySt@2:
	mov	eax, DWORD PTR tv76[ebp]
; Line 3767
	pop	edi
	pop	esi
	pop	ebx
	mov	esp, ebp
	pop	ebp
	ret	0
?getArrayStart@UnicodeString@icu_56@@ABEPB_WXZ ENDP	; icu_56::UnicodeString::getArrayStart
_TEXT	ENDS
PUBLIC	??_7UnicodeString@icu_56@@6B@			; icu_56::UnicodeString::`vftable'
PUBLIC	??0UnicodeString@icu_56@@QAE@XZ			; icu_56::UnicodeString::UnicodeString
PUBLIC	??_R4UnicodeString@icu_56@@6B@			; icu_56::UnicodeString::`RTTI Complete Object Locator'
PUBLIC	??_R0?AVUnicodeString@icu_56@@@8		; icu_56::UnicodeString `RTTI Type Descriptor'
PUBLIC	??_R3UnicodeString@icu_56@@8			; icu_56::UnicodeString::`RTTI Class Hierarchy Descriptor'
PUBLIC	??_R2UnicodeString@icu_56@@8			; icu_56::UnicodeString::`RTTI Base Class Array'
PUBLIC	??_R1A@?0A@EA@UnicodeString@icu_56@@8		; icu_56::UnicodeString::`RTTI Base Class Descriptor at (0,-1,0,64)'
EXTRN	?getDynamicClassID@UnicodeString@icu_56@@UBEPAXXZ:PROC ; icu_56::UnicodeString::getDynamicClassID
EXTRN	?extractBetween@UnicodeString@icu_56@@UBEXHHAAV12@@Z:PROC ; icu_56::UnicodeString::extractBetween
EXTRN	?handleReplaceBetween@UnicodeString@icu_56@@UAEXHHABV12@@Z:PROC ; icu_56::UnicodeString::handleReplaceBetween
EXTRN	?copy@UnicodeString@icu_56@@UAEXHHH@Z:PROC	; icu_56::UnicodeString::copy
EXTRN	?hasMetaData@UnicodeString@icu_56@@UBECXZ:PROC	; icu_56::UnicodeString::hasMetaData
EXTRN	?clone@UnicodeString@icu_56@@UBEPAVReplaceable@2@XZ:PROC ; icu_56::UnicodeString::clone
EXTRN	?getLength@UnicodeString@icu_56@@MBEHXZ:PROC	; icu_56::UnicodeString::getLength
EXTRN	?getCharAt@UnicodeString@icu_56@@MBE_WH@Z:PROC	; icu_56::UnicodeString::getCharAt
EXTRN	?getChar32At@UnicodeString@icu_56@@MBEHH@Z:PROC	; icu_56::UnicodeString::getChar32At
;	COMDAT ??_R1A@?0A@EA@UnicodeString@icu_56@@8
rdata$r	SEGMENT
??_R1A@?0A@EA@UnicodeString@icu_56@@8 DD FLAT:??_R0?AVUnicodeString@icu_56@@@8 ; icu_56::UnicodeString::`RTTI Base Class Descriptor at (0,-1,0,64)'
	DD	03H
	DD	00H
	DD	0ffffffffH
	DD	00H
	DD	040H
	DD	FLAT:??_R3UnicodeString@icu_56@@8
rdata$r	ENDS
;	COMDAT ??_R2UnicodeString@icu_56@@8
rdata$r	SEGMENT
??_R2UnicodeString@icu_56@@8 DD FLAT:??_R1A@?0A@EA@UnicodeString@icu_56@@8 ; icu_56::UnicodeString::`RTTI Base Class Array'
	DD	FLAT:??_R1A@?0A@EA@Replaceable@icu_56@@8
	DD	FLAT:??_R1A@?0A@EA@UObject@icu_56@@8
	DD	FLAT:??_R13?0A@EA@UMemory@icu_56@@8
rdata$r	ENDS
;	COMDAT ??_R3UnicodeString@icu_56@@8
rdata$r	SEGMENT
??_R3UnicodeString@icu_56@@8 DD 00H			; icu_56::UnicodeString::`RTTI Class Hierarchy Descriptor'
	DD	00H
	DD	04H
	DD	FLAT:??_R2UnicodeString@icu_56@@8
rdata$r	ENDS
;	COMDAT ??_R0?AVUnicodeString@icu_56@@@8
_DATA	SEGMENT
??_R0?AVUnicodeString@icu_56@@@8 DD FLAT:??_7type_info@@6B@ ; icu_56::UnicodeString `RTTI Type Descriptor'
	DD	00H
	DB	'.?AVUnicodeString@icu_56@@', 00H
_DATA	ENDS
;	COMDAT ??_R4UnicodeString@icu_56@@6B@
rdata$r	SEGMENT
??_R4UnicodeString@icu_56@@6B@ DD 00H			; icu_56::UnicodeString::`RTTI Complete Object Locator'
	DD	00H
	DD	00H
	DD	FLAT:??_R0?AVUnicodeString@icu_56@@@8
	DD	FLAT:??_R3UnicodeString@icu_56@@8
rdata$r	ENDS
;	COMDAT ??_7UnicodeString@icu_56@@6B@
CONST	SEGMENT
??_7UnicodeString@icu_56@@6B@ DD FLAT:??_R4UnicodeString@icu_56@@6B@ ; icu_56::UnicodeString::`vftable'
	DD	FLAT:??_EUnicodeString@icu_56@@UAEPAXI@Z
	DD	FLAT:?getDynamicClassID@UnicodeString@icu_56@@UBEPAXXZ
	DD	FLAT:?extractBetween@UnicodeString@icu_56@@UBEXHHAAV12@@Z
	DD	FLAT:?handleReplaceBetween@UnicodeString@icu_56@@UAEXHHABV12@@Z
	DD	FLAT:?copy@UnicodeString@icu_56@@UAEXHHH@Z
	DD	FLAT:?hasMetaData@UnicodeString@icu_56@@UBECXZ
	DD	FLAT:?clone@UnicodeString@icu_56@@UBEPAVReplaceable@2@XZ
	DD	FLAT:?getLength@UnicodeString@icu_56@@MBEHXZ
	DD	FLAT:?getCharAt@UnicodeString@icu_56@@MBE_WH@Z
	DD	FLAT:?getChar32At@UnicodeString@icu_56@@MBEHH@Z
; Function compile flags: /Odtp /RTCsu /ZI
CONST	ENDS
;	COMDAT ??0UnicodeString@icu_56@@QAE@XZ
_TEXT	SEGMENT
_this$ = -8						; size = 4
??0UnicodeString@icu_56@@QAE@XZ PROC			; icu_56::UnicodeString::UnicodeString, COMDAT
; _this$ = ecx
; Line 3774
	push	ebp
	mov	ebp, esp
	sub	esp, 204				; 000000ccH
	push	ebx
	push	esi
	push	edi
	push	ecx
	lea	edi, DWORD PTR [ebp-204]
	mov	ecx, 51					; 00000033H
	mov	eax, -858993460				; ccccccccH
	rep stosd
	pop	ecx
	mov	DWORD PTR _this$[ebp], ecx
	mov	ecx, DWORD PTR _this$[ebp]
	call	??0Replaceable@icu_56@@IAE@XZ		; icu_56::Replaceable::Replaceable
	mov	eax, DWORD PTR _this$[ebp]
	mov	DWORD PTR [eax], OFFSET ??_7UnicodeString@icu_56@@6B@
; Line 3775
	mov	eax, 2
	mov	ecx, DWORD PTR _this$[ebp]
	mov	WORD PTR [ecx+4], ax
; Line 3776
	mov	eax, DWORD PTR _this$[ebp]
	pop	edi
	pop	esi
	pop	ebx
	add	esp, 204				; 000000ccH
	cmp	ebp, esp
	call	__RTC_CheckEsp
	mov	esp, ebp
	pop	ebp
	ret	0
??0UnicodeString@icu_56@@QAE@XZ ENDP			; icu_56::UnicodeString::UnicodeString
_TEXT	ENDS
PUBLIC	?hasShortLength@UnicodeString@icu_56@@ABECXZ	; icu_56::UnicodeString::hasShortLength
; Function compile flags: /Odtp /RTCsu /ZI
;	COMDAT ?hasShortLength@UnicodeString@icu_56@@ABECXZ
_TEXT	SEGMENT
_this$ = -8						; size = 4
?hasShortLength@UnicodeString@icu_56@@ABECXZ PROC	; icu_56::UnicodeString::hasShortLength, COMDAT
; _this$ = ecx
; Line 3782
	push	ebp
	mov	ebp, esp
	sub	esp, 204				; 000000ccH
	push	ebx
	push	esi
	push	edi
	push	ecx
	lea	edi, DWORD PTR [ebp-204]
	mov	ecx, 51					; 00000033H
	mov	eax, -858993460				; ccccccccH
	rep stosd
	pop	ecx
	mov	DWORD PTR _this$[ebp], ecx
; Line 3783
	mov	eax, DWORD PTR _this$[ebp]
	movsx	ecx, WORD PTR [eax+4]
	test	ecx, ecx
	setge	al
; Line 3784
	pop	edi
	pop	esi
	pop	ebx
	mov	esp, ebp
	pop	ebp
	ret	0
?hasShortLength@UnicodeString@icu_56@@ABECXZ ENDP	; icu_56::UnicodeString::hasShortLength
_TEXT	ENDS
PUBLIC	?getShortLength@UnicodeString@icu_56@@ABEHXZ	; icu_56::UnicodeString::getShortLength
; Function compile flags: /Odtp /RTCsu /ZI
;	COMDAT ?getShortLength@UnicodeString@icu_56@@ABEHXZ
_TEXT	SEGMENT
_this$ = -8						; size = 4
?getShortLength@UnicodeString@icu_56@@ABEHXZ PROC	; icu_56::UnicodeString::getShortLength, COMDAT
; _this$ = ecx
; Line 3787
	push	ebp
	mov	ebp, esp
	sub	esp, 204				; 000000ccH
	push	ebx
	push	esi
	push	edi
	push	ecx
	lea	edi, DWORD PTR [ebp-204]
	mov	ecx, 51					; 00000033H
	mov	eax, -858993460				; ccccccccH
	rep stosd
	pop	ecx
	mov	DWORD PTR _this$[ebp], ecx
; Line 3790
	mov	eax, DWORD PTR _this$[ebp]
	movsx	eax, WORD PTR [eax+4]
	sar	eax, 5
; Line 3791
	pop	edi
	pop	esi
	pop	ebx
	mov	esp, ebp
	pop	ebp
	ret	0
?getShortLength@UnicodeString@icu_56@@ABEHXZ ENDP	; icu_56::UnicodeString::getShortLength
; Function compile flags: /Odtp /RTCsu /ZI
_TEXT	ENDS
;	COMDAT ?length@UnicodeString@icu_56@@QBEHXZ
_TEXT	SEGMENT
tv73 = -208						; size = 4
_this$ = -8						; size = 4
?length@UnicodeString@icu_56@@QBEHXZ PROC		; icu_56::UnicodeString::length, COMDAT
; _this$ = ecx
; Line 3794
	push	ebp
	mov	ebp, esp
	sub	esp, 208				; 000000d0H
	push	ebx
	push	esi
	push	edi
	push	ecx
	lea	edi, DWORD PTR [ebp-208]
	mov	ecx, 52					; 00000034H
	mov	eax, -858993460				; ccccccccH
	rep stosd
	pop	ecx
	mov	DWORD PTR _this$[ebp], ecx
; Line 3795
	mov	ecx, DWORD PTR _this$[ebp]
	call	?hasShortLength@UnicodeString@icu_56@@ABECXZ ; icu_56::UnicodeString::hasShortLength
	movsx	eax, al
	test	eax, eax
	je	SHORT $LN3@length
	mov	ecx, DWORD PTR _this$[ebp]
	call	?getShortLength@UnicodeString@icu_56@@ABEHXZ ; icu_56::UnicodeString::getShortLength
	mov	DWORD PTR tv73[ebp], eax
	jmp	SHORT $LN4@length
$LN3@length:
	mov	ecx, DWORD PTR _this$[ebp]
	mov	edx, DWORD PTR [ecx+8]
	mov	DWORD PTR tv73[ebp], edx
$LN4@length:
	mov	eax, DWORD PTR tv73[ebp]
; Line 3796
	pop	edi
	pop	esi
	pop	ebx
	add	esp, 208				; 000000d0H
	cmp	ebp, esp
	call	__RTC_CheckEsp
	mov	esp, ebp
	pop	ebp
	ret	0
?length@UnicodeString@icu_56@@QBEHXZ ENDP		; icu_56::UnicodeString::length
_TEXT	ENDS
PUBLIC	?getCapacity@UnicodeString@icu_56@@QBEHXZ	; icu_56::UnicodeString::getCapacity
; Function compile flags: /Odtp /RTCsu /ZI
;	COMDAT ?getCapacity@UnicodeString@icu_56@@QBEHXZ
_TEXT	SEGMENT
tv73 = -208						; size = 4
_this$ = -8						; size = 4
?getCapacity@UnicodeString@icu_56@@QBEHXZ PROC		; icu_56::UnicodeString::getCapacity, COMDAT
; _this$ = ecx
; Line 3799
	push	ebp
	mov	ebp, esp
	sub	esp, 208				; 000000d0H
	push	ebx
	push	esi
	push	edi
	push	ecx
	lea	edi, DWORD PTR [ebp-208]
	mov	ecx, 52					; 00000034H
	mov	eax, -858993460				; ccccccccH
	rep stosd
	pop	ecx
	mov	DWORD PTR _this$[ebp], ecx
; Line 3801
	mov	eax, DWORD PTR _this$[ebp]
	movsx	ecx, WORD PTR [eax+4]
	and	ecx, 2
	je	SHORT $LN3@getCapacit
	mov	DWORD PTR tv73[ebp], 29			; 0000001dH
	jmp	SHORT $LN4@getCapacit
$LN3@getCapacit:
	mov	edx, DWORD PTR _this$[ebp]
	mov	eax, DWORD PTR [edx+12]
	mov	DWORD PTR tv73[ebp], eax
$LN4@getCapacit:
	mov	eax, DWORD PTR tv73[ebp]
; Line 3802
	pop	edi
	pop	esi
	pop	ebx
	mov	esp, ebp
	pop	ebp
	ret	0
?getCapacity@UnicodeString@icu_56@@QBEHXZ ENDP		; icu_56::UnicodeString::getCapacity
_TEXT	ENDS
PUBLIC	?hashCode@UnicodeString@icu_56@@QBEHXZ		; icu_56::UnicodeString::hashCode
EXTRN	?doHashCode@UnicodeString@icu_56@@ABEHXZ:PROC	; icu_56::UnicodeString::doHashCode
; Function compile flags: /Odtp /RTCsu /ZI
;	COMDAT ?hashCode@UnicodeString@icu_56@@QBEHXZ
_TEXT	SEGMENT
_this$ = -8						; size = 4
?hashCode@UnicodeString@icu_56@@QBEHXZ PROC		; icu_56::UnicodeString::hashCode, COMDAT
; _this$ = ecx
; Line 3806
	push	ebp
	mov	ebp, esp
	sub	esp, 204				; 000000ccH
	push	ebx
	push	esi
	push	edi
	push	ecx
	lea	edi, DWORD PTR [ebp-204]
	mov	ecx, 51					; 00000033H
	mov	eax, -858993460				; ccccccccH
	rep stosd
	pop	ecx
	mov	DWORD PTR _this$[ebp], ecx
	mov	ecx, DWORD PTR _this$[ebp]
	call	?doHashCode@UnicodeString@icu_56@@ABEHXZ ; icu_56::UnicodeString::doHashCode
	pop	edi
	pop	esi
	pop	ebx
	add	esp, 204				; 000000ccH
	cmp	ebp, esp
	call	__RTC_CheckEsp
	mov	esp, ebp
	pop	ebp
	ret	0
?hashCode@UnicodeString@icu_56@@QBEHXZ ENDP		; icu_56::UnicodeString::hashCode
_TEXT	ENDS
PUBLIC	?isBogus@UnicodeString@icu_56@@QBECXZ		; icu_56::UnicodeString::isBogus
; Function compile flags: /Odtp /RTCsu /ZI
;	COMDAT ?isBogus@UnicodeString@icu_56@@QBECXZ
_TEXT	SEGMENT
_this$ = -8						; size = 4
?isBogus@UnicodeString@icu_56@@QBECXZ PROC		; icu_56::UnicodeString::isBogus, COMDAT
; _this$ = ecx
; Line 3810
	push	ebp
	mov	ebp, esp
	sub	esp, 204				; 000000ccH
	push	ebx
	push	esi
	push	edi
	push	ecx
	lea	edi, DWORD PTR [ebp-204]
	mov	ecx, 51					; 00000033H
	mov	eax, -858993460				; ccccccccH
	rep stosd
	pop	ecx
	mov	DWORD PTR _this$[ebp], ecx
	mov	eax, DWORD PTR _this$[ebp]
	movsx	eax, WORD PTR [eax+4]
	and	eax, 1
	pop	edi
	pop	esi
	pop	ebx
	mov	esp, ebp
	pop	ebp
	ret	0
?isBogus@UnicodeString@icu_56@@QBECXZ ENDP		; icu_56::UnicodeString::isBogus
_TEXT	ENDS
PUBLIC	?isWritable@UnicodeString@icu_56@@ABECXZ	; icu_56::UnicodeString::isWritable
; Function compile flags: /Odtp /RTCsu /ZI
;	COMDAT ?isWritable@UnicodeString@icu_56@@ABECXZ
_TEXT	SEGMENT
_this$ = -8						; size = 4
?isWritable@UnicodeString@icu_56@@ABECXZ PROC		; icu_56::UnicodeString::isWritable, COMDAT
; _this$ = ecx
; Line 3814
	push	ebp
	mov	ebp, esp
	sub	esp, 204				; 000000ccH
	push	ebx
	push	esi
	push	edi
	push	ecx
	lea	edi, DWORD PTR [ebp-204]
	mov	ecx, 51					; 00000033H
	mov	eax, -858993460				; ccccccccH
	rep stosd
	pop	ecx
	mov	DWORD PTR _this$[ebp], ecx
	mov	eax, DWORD PTR _this$[ebp]
	movsx	ecx, WORD PTR [eax+4]
	and	ecx, 17					; 00000011H
	sete	al
	pop	edi
	pop	esi
	pop	ebx
	mov	esp, ebp
	pop	ebp
	ret	0
?isWritable@UnicodeString@icu_56@@ABECXZ ENDP		; icu_56::UnicodeString::isWritable
_TEXT	ENDS
PUBLIC	?isBufferWritable@UnicodeString@icu_56@@ABECXZ	; icu_56::UnicodeString::isBufferWritable
EXTRN	?refCount@UnicodeString@icu_56@@ABEHXZ:PROC	; icu_56::UnicodeString::refCount
; Function compile flags: /Odtp /RTCsu /ZI
;	COMDAT ?isBufferWritable@UnicodeString@icu_56@@ABECXZ
_TEXT	SEGMENT
tv79 = -205						; size = 1
_this$ = -8						; size = 4
?isBufferWritable@UnicodeString@icu_56@@ABECXZ PROC	; icu_56::UnicodeString::isBufferWritable, COMDAT
; _this$ = ecx
; Line 3818
	push	ebp
	mov	ebp, esp
	sub	esp, 208				; 000000d0H
	push	ebx
	push	esi
	push	edi
	push	ecx
	lea	edi, DWORD PTR [ebp-208]
	mov	ecx, 52					; 00000034H
	mov	eax, -858993460				; ccccccccH
	rep stosd
	pop	ecx
	mov	DWORD PTR _this$[ebp], ecx
; Line 3821
	mov	eax, DWORD PTR _this$[ebp]
	movsx	ecx, WORD PTR [eax+4]
	and	ecx, 25					; 00000019H
	jne	SHORT $LN4@isBufferWr
	mov	edx, DWORD PTR _this$[ebp]
	movsx	eax, WORD PTR [edx+4]
	and	eax, 4
	je	SHORT $LN3@isBufferWr
	mov	ecx, DWORD PTR _this$[ebp]
	call	?refCount@UnicodeString@icu_56@@ABEHXZ	; icu_56::UnicodeString::refCount
	cmp	eax, 1
	jne	SHORT $LN4@isBufferWr
$LN3@isBufferWr:
	mov	BYTE PTR tv79[ebp], 1
	jmp	SHORT $LN5@isBufferWr
$LN4@isBufferWr:
	mov	BYTE PTR tv79[ebp], 0
$LN5@isBufferWr:
	mov	al, BYTE PTR tv79[ebp]
; Line 3822
	pop	edi
	pop	esi
	pop	ebx
	add	esp, 208				; 000000d0H
	cmp	ebp, esp
	call	__RTC_CheckEsp
	mov	esp, ebp
	pop	ebp
	ret	0
?isBufferWritable@UnicodeString@icu_56@@ABECXZ ENDP	; icu_56::UnicodeString::isBufferWritable
_TEXT	ENDS
PUBLIC	?getBuffer@UnicodeString@icu_56@@QBEPB_WXZ	; icu_56::UnicodeString::getBuffer
; Function compile flags: /Odtp /RTCsu /ZI
;	COMDAT ?getBuffer@UnicodeString@icu_56@@QBEPB_WXZ
_TEXT	SEGMENT
_this$ = -8						; size = 4
?getBuffer@UnicodeString@icu_56@@QBEPB_WXZ PROC		; icu_56::UnicodeString::getBuffer, COMDAT
; _this$ = ecx
; Line 3825
	push	ebp
	mov	ebp, esp
	sub	esp, 204				; 000000ccH
	push	ebx
	push	esi
	push	edi
	push	ecx
	lea	edi, DWORD PTR [ebp-204]
	mov	ecx, 51					; 00000033H
	mov	eax, -858993460				; ccccccccH
	rep stosd
	pop	ecx
	mov	DWORD PTR _this$[ebp], ecx
; Line 3826
	mov	eax, DWORD PTR _this$[ebp]
	movsx	ecx, WORD PTR [eax+4]
	and	ecx, 17					; 00000011H
	je	SHORT $LN4@getBuffer
; Line 3827
	xor	eax, eax
	jmp	SHORT $LN5@getBuffer
	jmp	SHORT $LN5@getBuffer
$LN4@getBuffer:
; Line 3828
	mov	eax, DWORD PTR _this$[ebp]
	movsx	ecx, WORD PTR [eax+4]
	and	ecx, 2
	je	SHORT $LN2@getBuffer
; Line 3829
	mov	eax, DWORD PTR _this$[ebp]
	add	eax, 6
	jmp	SHORT $LN5@getBuffer
; Line 3830
	jmp	SHORT $LN5@getBuffer
$LN2@getBuffer:
; Line 3831
	mov	eax, DWORD PTR _this$[ebp]
	mov	eax, DWORD PTR [eax+16]
$LN5@getBuffer:
; Line 3833
	pop	edi
	pop	esi
	pop	ebx
	mov	esp, ebp
	pop	ebp
	ret	0
?getBuffer@UnicodeString@icu_56@@QBEPB_WXZ ENDP		; icu_56::UnicodeString::getBuffer
_TEXT	ENDS
PUBLIC	?doCompare@UnicodeString@icu_56@@ABECHHABV12@HH@Z ; icu_56::UnicodeString::doCompare
EXTRN	?doCompare@UnicodeString@icu_56@@ABECHHPB_WHH@Z:PROC ; icu_56::UnicodeString::doCompare
; Function compile flags: /Odtp /RTCsu /ZI
;	COMDAT ?doCompare@UnicodeString@icu_56@@ABECHHABV12@HH@Z
_TEXT	SEGMENT
_this$ = -8						; size = 4
_start$ = 8						; size = 4
_thisLength$ = 12					; size = 4
_srcText$ = 16						; size = 4
_srcStart$ = 20						; size = 4
_srcLength$ = 24					; size = 4
?doCompare@UnicodeString@icu_56@@ABECHHABV12@HH@Z PROC	; icu_56::UnicodeString::doCompare, COMDAT
; _this$ = ecx
; Line 3844
	push	ebp
	mov	ebp, esp
	sub	esp, 204				; 000000ccH
	push	ebx
	push	esi
	push	edi
	push	ecx
	lea	edi, DWORD PTR [ebp-204]
	mov	ecx, 51					; 00000033H
	mov	eax, -858993460				; ccccccccH
	rep stosd
	pop	ecx
	mov	DWORD PTR _this$[ebp], ecx
; Line 3845
	mov	ecx, DWORD PTR _srcText$[ebp]
	call	?isBogus@UnicodeString@icu_56@@QBECXZ	; icu_56::UnicodeString::isBogus
	movsx	eax, al
	test	eax, eax
	je	SHORT $LN2@doCompare
; Line 3846
	mov	ecx, DWORD PTR _this$[ebp]
	call	?isBogus@UnicodeString@icu_56@@QBECXZ	; icu_56::UnicodeString::isBogus
	movsx	eax, al
	test	eax, eax
	sete	al
	jmp	SHORT $LN3@doCompare
; Line 3847
	jmp	SHORT $LN3@doCompare
$LN2@doCompare:
; Line 3848
	lea	eax, DWORD PTR _srcLength$[ebp]
	push	eax
	lea	ecx, DWORD PTR _srcStart$[ebp]
	push	ecx
	mov	ecx, DWORD PTR _srcText$[ebp]
	call	?pinIndices@UnicodeString@icu_56@@ABEXAAH0@Z ; icu_56::UnicodeString::pinIndices
; Line 3849
	mov	eax, DWORD PTR _srcLength$[ebp]
	push	eax
	mov	ecx, DWORD PTR _srcStart$[ebp]
	push	ecx
	mov	ecx, DWORD PTR _srcText$[ebp]
	call	?getArrayStart@UnicodeString@icu_56@@ABEPB_WXZ ; icu_56::UnicodeString::getArrayStart
	push	eax
	mov	edx, DWORD PTR _thisLength$[ebp]
	push	edx
	mov	eax, DWORD PTR _start$[ebp]
	push	eax
	mov	ecx, DWORD PTR _this$[ebp]
	call	?doCompare@UnicodeString@icu_56@@ABECHHPB_WHH@Z ; icu_56::UnicodeString::doCompare
$LN3@doCompare:
; Line 3851
	pop	edi
	pop	esi
	pop	ebx
	add	esp, 204				; 000000ccH
	cmp	ebp, esp
	call	__RTC_CheckEsp
	mov	esp, ebp
	pop	ebp
	ret	20					; 00000014H
?doCompare@UnicodeString@icu_56@@ABECHHABV12@HH@Z ENDP	; icu_56::UnicodeString::doCompare
_TEXT	ENDS
PUBLIC	??8UnicodeString@icu_56@@QBECABV01@@Z		; icu_56::UnicodeString::operator==
EXTRN	?doEquals@UnicodeString@icu_56@@ABECABV12@H@Z:PROC ; icu_56::UnicodeString::doEquals
; Function compile flags: /Odtp /RTCsu /ZI
;	COMDAT ??8UnicodeString@icu_56@@QBECABV01@@Z
_TEXT	SEGMENT
tv85 = -229						; size = 1
_textLength$33395 = -32					; size = 4
_len$33394 = -20					; size = 4
_this$ = -8						; size = 4
_text$ = 8						; size = 4
??8UnicodeString@icu_56@@QBECABV01@@Z PROC		; icu_56::UnicodeString::operator==, COMDAT
; _this$ = ecx
; Line 3855
	push	ebp
	mov	ebp, esp
	sub	esp, 232				; 000000e8H
	push	ebx
	push	esi
	push	edi
	push	ecx
	lea	edi, DWORD PTR [ebp-232]
	mov	ecx, 58					; 0000003aH
	mov	eax, -858993460				; ccccccccH
	rep stosd
	pop	ecx
	mov	DWORD PTR _this$[ebp], ecx
; Line 3856
	mov	ecx, DWORD PTR _this$[ebp]
	call	?isBogus@UnicodeString@icu_56@@QBECXZ	; icu_56::UnicodeString::isBogus
	movsx	eax, al
	test	eax, eax
	je	SHORT $LN2@operator@2
; Line 3857
	mov	ecx, DWORD PTR _text$[ebp]
	call	?isBogus@UnicodeString@icu_56@@QBECXZ	; icu_56::UnicodeString::isBogus
	jmp	SHORT $LN3@operator@2
; Line 3858
	jmp	SHORT $LN3@operator@2
$LN2@operator@2:
; Line 3859
	mov	ecx, DWORD PTR _this$[ebp]
	call	?length@UnicodeString@icu_56@@QBEHXZ	; icu_56::UnicodeString::length
	mov	DWORD PTR _len$33394[ebp], eax
	mov	ecx, DWORD PTR _text$[ebp]
	call	?length@UnicodeString@icu_56@@QBEHXZ	; icu_56::UnicodeString::length
	mov	DWORD PTR _textLength$33395[ebp], eax
; Line 3860
	mov	ecx, DWORD PTR _text$[ebp]
	call	?isBogus@UnicodeString@icu_56@@QBECXZ	; icu_56::UnicodeString::isBogus
	movsx	eax, al
	test	eax, eax
	jne	SHORT $LN5@operator@2
	mov	ecx, DWORD PTR _len$33394[ebp]
	cmp	ecx, DWORD PTR _textLength$33395[ebp]
	jne	SHORT $LN5@operator@2
	mov	edx, DWORD PTR _len$33394[ebp]
	push	edx
	mov	eax, DWORD PTR _text$[ebp]
	push	eax
	mov	ecx, DWORD PTR _this$[ebp]
	call	?doEquals@UnicodeString@icu_56@@ABECABV12@H@Z ; icu_56::UnicodeString::doEquals
	movsx	ecx, al
	test	ecx, ecx
	je	SHORT $LN5@operator@2
	mov	BYTE PTR tv85[ebp], 1
	jmp	SHORT $LN6@operator@2
$LN5@operator@2:
	mov	BYTE PTR tv85[ebp], 0
$LN6@operator@2:
	mov	al, BYTE PTR tv85[ebp]
$LN3@operator@2:
; Line 3862
	pop	edi
	pop	esi
	pop	ebx
	add	esp, 232				; 000000e8H
	cmp	ebp, esp
	call	__RTC_CheckEsp
	mov	esp, ebp
	pop	ebp
	ret	4
??8UnicodeString@icu_56@@QBECABV01@@Z ENDP		; icu_56::UnicodeString::operator==
_TEXT	ENDS
PUBLIC	??9UnicodeString@icu_56@@QBECABV01@@Z		; icu_56::UnicodeString::operator!=
; Function compile flags: /Odtp /RTCsu /ZI
;	COMDAT ??9UnicodeString@icu_56@@QBECABV01@@Z
_TEXT	SEGMENT
_this$ = -8						; size = 4
_text$ = 8						; size = 4
??9UnicodeString@icu_56@@QBECABV01@@Z PROC		; icu_56::UnicodeString::operator!=, COMDAT
; _this$ = ecx
; Line 3866
	push	ebp
	mov	ebp, esp
	sub	esp, 204				; 000000ccH
	push	ebx
	push	esi
	push	edi
	push	ecx
	lea	edi, DWORD PTR [ebp-204]
	mov	ecx, 51					; 00000033H
	mov	eax, -858993460				; ccccccccH
	rep stosd
	pop	ecx
	mov	DWORD PTR _this$[ebp], ecx
	mov	eax, DWORD PTR _text$[ebp]
	push	eax
	mov	ecx, DWORD PTR _this$[ebp]
	call	??8UnicodeString@icu_56@@QBECABV01@@Z	; icu_56::UnicodeString::operator==
	movsx	ecx, al
	test	ecx, ecx
	sete	al
	pop	edi
	pop	esi
	pop	ebx
	add	esp, 204				; 000000ccH
	cmp	ebp, esp
	call	__RTC_CheckEsp
	mov	esp, ebp
	pop	ebp
	ret	4
??9UnicodeString@icu_56@@QBECABV01@@Z ENDP		; icu_56::UnicodeString::operator!=
_TEXT	ENDS
PUBLIC	??OUnicodeString@icu_56@@QBECABV01@@Z		; icu_56::UnicodeString::operator>
; Function compile flags: /Odtp /RTCsu /ZI
;	COMDAT ??OUnicodeString@icu_56@@QBECABV01@@Z
_TEXT	SEGMENT
_this$ = -8						; size = 4
_text$ = 8						; size = 4
??OUnicodeString@icu_56@@QBECABV01@@Z PROC		; icu_56::UnicodeString::operator>, COMDAT
; _this$ = ecx
; Line 3870
	push	ebp
	mov	ebp, esp
	sub	esp, 204				; 000000ccH
	push	ebx
	push	esi
	push	edi
	push	ecx
	lea	edi, DWORD PTR [ebp-204]
	mov	ecx, 51					; 00000033H
	mov	eax, -858993460				; ccccccccH
	rep stosd
	pop	ecx
	mov	DWORD PTR _this$[ebp], ecx
	mov	ecx, DWORD PTR _text$[ebp]
	call	?length@UnicodeString@icu_56@@QBEHXZ	; icu_56::UnicodeString::length
	push	eax
	push	0
	mov	eax, DWORD PTR _text$[ebp]
	push	eax
	mov	ecx, DWORD PTR _this$[ebp]
	call	?length@UnicodeString@icu_56@@QBEHXZ	; icu_56::UnicodeString::length
	push	eax
	push	0
	mov	ecx, DWORD PTR _this$[ebp]
	call	?doCompare@UnicodeString@icu_56@@ABECHHABV12@HH@Z ; icu_56::UnicodeString::doCompare
	movsx	ecx, al
	cmp	ecx, 1
	sete	al
	pop	edi
	pop	esi
	pop	ebx
	add	esp, 204				; 000000ccH
	cmp	ebp, esp
	call	__RTC_CheckEsp
	mov	esp, ebp
	pop	ebp
	ret	4
??OUnicodeString@icu_56@@QBECABV01@@Z ENDP		; icu_56::UnicodeString::operator>
_TEXT	ENDS
PUBLIC	??MUnicodeString@icu_56@@QBECABV01@@Z		; icu_56::UnicodeString::operator<
; Function compile flags: /Odtp /RTCsu /ZI
;	COMDAT ??MUnicodeString@icu_56@@QBECABV01@@Z
_TEXT	SEGMENT
_this$ = -8						; size = 4
_text$ = 8						; size = 4
??MUnicodeString@icu_56@@QBECABV01@@Z PROC		; icu_56::UnicodeString::operator<, COMDAT
; _this$ = ecx
; Line 3874
	push	ebp
	mov	ebp, esp
	sub	esp, 204				; 000000ccH
	push	ebx
	push	esi
	push	edi
	push	ecx
	lea	edi, DWORD PTR [ebp-204]
	mov	ecx, 51					; 00000033H
	mov	eax, -858993460				; ccccccccH
	rep stosd
	pop	ecx
	mov	DWORD PTR _this$[ebp], ecx
	mov	ecx, DWORD PTR _text$[ebp]
	call	?length@UnicodeString@icu_56@@QBEHXZ	; icu_56::UnicodeString::length
	push	eax
	push	0
	mov	eax, DWORD PTR _text$[ebp]
	push	eax
	mov	ecx, DWORD PTR _this$[ebp]
	call	?length@UnicodeString@icu_56@@QBEHXZ	; icu_56::UnicodeString::length
	push	eax
	push	0
	mov	ecx, DWORD PTR _this$[ebp]
	call	?doCompare@UnicodeString@icu_56@@ABECHHABV12@HH@Z ; icu_56::UnicodeString::doCompare
	movsx	ecx, al
	cmp	ecx, -1
	sete	al
	pop	edi
	pop	esi
	pop	ebx
	add	esp, 204				; 000000ccH
	cmp	ebp, esp
	call	__RTC_CheckEsp
	mov	esp, ebp
	pop	ebp
	ret	4
??MUnicodeString@icu_56@@QBECABV01@@Z ENDP		; icu_56::UnicodeString::operator<
_TEXT	ENDS
PUBLIC	??PUnicodeString@icu_56@@QBECABV01@@Z		; icu_56::UnicodeString::operator>=
; Function compile flags: /Odtp /RTCsu /ZI
;	COMDAT ??PUnicodeString@icu_56@@QBECABV01@@Z
_TEXT	SEGMENT
_this$ = -8						; size = 4
_text$ = 8						; size = 4
??PUnicodeString@icu_56@@QBECABV01@@Z PROC		; icu_56::UnicodeString::operator>=, COMDAT
; _this$ = ecx
; Line 3878
	push	ebp
	mov	ebp, esp
	sub	esp, 204				; 000000ccH
	push	ebx
	push	esi
	push	edi
	push	ecx
	lea	edi, DWORD PTR [ebp-204]
	mov	ecx, 51					; 00000033H
	mov	eax, -858993460				; ccccccccH
	rep stosd
	pop	ecx
	mov	DWORD PTR _this$[ebp], ecx
	mov	ecx, DWORD PTR _text$[ebp]
	call	?length@UnicodeString@icu_56@@QBEHXZ	; icu_56::UnicodeString::length
	push	eax
	push	0
	mov	eax, DWORD PTR _text$[ebp]
	push	eax
	mov	ecx, DWORD PTR _this$[ebp]
	call	?length@UnicodeString@icu_56@@QBEHXZ	; icu_56::UnicodeString::length
	push	eax
	push	0
	mov	ecx, DWORD PTR _this$[ebp]
	call	?doCompare@UnicodeString@icu_56@@ABECHHABV12@HH@Z ; icu_56::UnicodeString::doCompare
	movsx	ecx, al
	cmp	ecx, -1
	setne	al
	pop	edi
	pop	esi
	pop	ebx
	add	esp, 204				; 000000ccH
	cmp	ebp, esp
	call	__RTC_CheckEsp
	mov	esp, ebp
	pop	ebp
	ret	4
??PUnicodeString@icu_56@@QBECABV01@@Z ENDP		; icu_56::UnicodeString::operator>=
_TEXT	ENDS
PUBLIC	??NUnicodeString@icu_56@@QBECABV01@@Z		; icu_56::UnicodeString::operator<=
; Function compile flags: /Odtp /RTCsu /ZI
;	COMDAT ??NUnicodeString@icu_56@@QBECABV01@@Z
_TEXT	SEGMENT
_this$ = -8						; size = 4
_text$ = 8						; size = 4
??NUnicodeString@icu_56@@QBECABV01@@Z PROC		; icu_56::UnicodeString::operator<=, COMDAT
; _this$ = ecx
; Line 3882
	push	ebp
	mov	ebp, esp
	sub	esp, 204				; 000000ccH
	push	ebx
	push	esi
	push	edi
	push	ecx
	lea	edi, DWORD PTR [ebp-204]
	mov	ecx, 51					; 00000033H
	mov	eax, -858993460				; ccccccccH
	rep stosd
	pop	ecx
	mov	DWORD PTR _this$[ebp], ecx
	mov	ecx, DWORD PTR _text$[ebp]
	call	?length@UnicodeString@icu_56@@QBEHXZ	; icu_56::UnicodeString::length
	push	eax
	push	0
	mov	eax, DWORD PTR _text$[ebp]
	push	eax
	mov	ecx, DWORD PTR _this$[ebp]
	call	?length@UnicodeString@icu_56@@QBEHXZ	; icu_56::UnicodeString::length
	push	eax
	push	0
	mov	ecx, DWORD PTR _this$[ebp]
	call	?doCompare@UnicodeString@icu_56@@ABECHHABV12@HH@Z ; icu_56::UnicodeString::doCompare
	movsx	ecx, al
	cmp	ecx, 1
	setne	al
	pop	edi
	pop	esi
	pop	ebx
	add	esp, 204				; 000000ccH
	cmp	ebp, esp
	call	__RTC_CheckEsp
	mov	esp, ebp
	pop	ebp
	ret	4
??NUnicodeString@icu_56@@QBECABV01@@Z ENDP		; icu_56::UnicodeString::operator<=
_TEXT	ENDS
PUBLIC	?compare@UnicodeString@icu_56@@QBECABV12@@Z	; icu_56::UnicodeString::compare
; Function compile flags: /Odtp /RTCsu /ZI
;	COMDAT ?compare@UnicodeString@icu_56@@QBECABV12@@Z
_TEXT	SEGMENT
_this$ = -8						; size = 4
_text$ = 8						; size = 4
?compare@UnicodeString@icu_56@@QBECABV12@@Z PROC	; icu_56::UnicodeString::compare, COMDAT
; _this$ = ecx
; Line 3886
	push	ebp
	mov	ebp, esp
	sub	esp, 204				; 000000ccH
	push	ebx
	push	esi
	push	edi
	push	ecx
	lea	edi, DWORD PTR [ebp-204]
	mov	ecx, 51					; 00000033H
	mov	eax, -858993460				; ccccccccH
	rep stosd
	pop	ecx
	mov	DWORD PTR _this$[ebp], ecx
	mov	ecx, DWORD PTR _text$[ebp]
	call	?length@UnicodeString@icu_56@@QBEHXZ	; icu_56::UnicodeString::length
	push	eax
	push	0
	mov	eax, DWORD PTR _text$[ebp]
	push	eax
	mov	ecx, DWORD PTR _this$[ebp]
	call	?length@UnicodeString@icu_56@@QBEHXZ	; icu_56::UnicodeString::length
	push	eax
	push	0
	mov	ecx, DWORD PTR _this$[ebp]
	call	?doCompare@UnicodeString@icu_56@@ABECHHABV12@HH@Z ; icu_56::UnicodeString::doCompare
	pop	edi
	pop	esi
	pop	ebx
	add	esp, 204				; 000000ccH
	cmp	ebp, esp
	call	__RTC_CheckEsp
	mov	esp, ebp
	pop	ebp
	ret	4
?compare@UnicodeString@icu_56@@QBECABV12@@Z ENDP	; icu_56::UnicodeString::compare
_TEXT	ENDS
PUBLIC	?compare@UnicodeString@icu_56@@QBECHHABV12@@Z	; icu_56::UnicodeString::compare
; Function compile flags: /Odtp /RTCsu /ZI
;	COMDAT ?compare@UnicodeString@icu_56@@QBECHHABV12@@Z
_TEXT	SEGMENT
_this$ = -8						; size = 4
_start$ = 8						; size = 4
__length$ = 12						; size = 4
_srcText$ = 16						; size = 4
?compare@UnicodeString@icu_56@@QBECHHABV12@@Z PROC	; icu_56::UnicodeString::compare, COMDAT
; _this$ = ecx
; Line 3892
	push	ebp
	mov	ebp, esp
	sub	esp, 204				; 000000ccH
	push	ebx
	push	esi
	push	edi
	push	ecx
	lea	edi, DWORD PTR [ebp-204]
	mov	ecx, 51					; 00000033H
	mov	eax, -858993460				; ccccccccH
	rep stosd
	pop	ecx
	mov	DWORD PTR _this$[ebp], ecx
	mov	ecx, DWORD PTR _srcText$[ebp]
	call	?length@UnicodeString@icu_56@@QBEHXZ	; icu_56::UnicodeString::length
	push	eax
	push	0
	mov	eax, DWORD PTR _srcText$[ebp]
	push	eax
	mov	ecx, DWORD PTR __length$[ebp]
	push	ecx
	mov	edx, DWORD PTR _start$[ebp]
	push	edx
	mov	ecx, DWORD PTR _this$[ebp]
	call	?doCompare@UnicodeString@icu_56@@ABECHHABV12@HH@Z ; icu_56::UnicodeString::doCompare
	pop	edi
	pop	esi
	pop	ebx
	add	esp, 204				; 000000ccH
	cmp	ebp, esp
	call	__RTC_CheckEsp
	mov	esp, ebp
	pop	ebp
	ret	12					; 0000000cH
?compare@UnicodeString@icu_56@@QBECHHABV12@@Z ENDP	; icu_56::UnicodeString::compare
_TEXT	ENDS
PUBLIC	?compare@UnicodeString@icu_56@@QBECPB_WH@Z	; icu_56::UnicodeString::compare
; Function compile flags: /Odtp /RTCsu /ZI
;	COMDAT ?compare@UnicodeString@icu_56@@QBECPB_WH@Z
_TEXT	SEGMENT
_this$ = -8						; size = 4
_srcChars$ = 8						; size = 4
_srcLength$ = 12					; size = 4
?compare@UnicodeString@icu_56@@QBECPB_WH@Z PROC		; icu_56::UnicodeString::compare, COMDAT
; _this$ = ecx
; Line 3897
	push	ebp
	mov	ebp, esp
	sub	esp, 204				; 000000ccH
	push	ebx
	push	esi
	push	edi
	push	ecx
	lea	edi, DWORD PTR [ebp-204]
	mov	ecx, 51					; 00000033H
	mov	eax, -858993460				; ccccccccH
	rep stosd
	pop	ecx
	mov	DWORD PTR _this$[ebp], ecx
	mov	eax, DWORD PTR _srcLength$[ebp]
	push	eax
	push	0
	mov	ecx, DWORD PTR _srcChars$[ebp]
	push	ecx
	mov	ecx, DWORD PTR _this$[ebp]
	call	?length@UnicodeString@icu_56@@QBEHXZ	; icu_56::UnicodeString::length
	push	eax
	push	0
	mov	ecx, DWORD PTR _this$[ebp]
	call	?doCompare@UnicodeString@icu_56@@ABECHHPB_WHH@Z ; icu_56::UnicodeString::doCompare
	pop	edi
	pop	esi
	pop	ebx
	add	esp, 204				; 000000ccH
	cmp	ebp, esp
	call	__RTC_CheckEsp
	mov	esp, ebp
	pop	ebp
	ret	8
?compare@UnicodeString@icu_56@@QBECPB_WH@Z ENDP		; icu_56::UnicodeString::compare
_TEXT	ENDS
PUBLIC	?compare@UnicodeString@icu_56@@QBECHHABV12@HH@Z	; icu_56::UnicodeString::compare
; Function compile flags: /Odtp /RTCsu /ZI
;	COMDAT ?compare@UnicodeString@icu_56@@QBECHHABV12@HH@Z
_TEXT	SEGMENT
_this$ = -8						; size = 4
_start$ = 8						; size = 4
__length$ = 12						; size = 4
_srcText$ = 16						; size = 4
_srcStart$ = 20						; size = 4
_srcLength$ = 24					; size = 4
?compare@UnicodeString@icu_56@@QBECHHABV12@HH@Z PROC	; icu_56::UnicodeString::compare, COMDAT
; _this$ = ecx
; Line 3905
	push	ebp
	mov	ebp, esp
	sub	esp, 204				; 000000ccH
	push	ebx
	push	esi
	push	edi
	push	ecx
	lea	edi, DWORD PTR [ebp-204]
	mov	ecx, 51					; 00000033H
	mov	eax, -858993460				; ccccccccH
	rep stosd
	pop	ecx
	mov	DWORD PTR _this$[ebp], ecx
	mov	eax, DWORD PTR _srcLength$[ebp]
	push	eax
	mov	ecx, DWORD PTR _srcStart$[ebp]
	push	ecx
	mov	edx, DWORD PTR _srcText$[ebp]
	push	edx
	mov	eax, DWORD PTR __length$[ebp]
	push	eax
	mov	ecx, DWORD PTR _start$[ebp]
	push	ecx
	mov	ecx, DWORD PTR _this$[ebp]
	call	?doCompare@UnicodeString@icu_56@@ABECHHABV12@HH@Z ; icu_56::UnicodeString::doCompare
	pop	edi
	pop	esi
	pop	ebx
	add	esp, 204				; 000000ccH
	cmp	ebp, esp
	call	__RTC_CheckEsp
	mov	esp, ebp
	pop	ebp
	ret	20					; 00000014H
?compare@UnicodeString@icu_56@@QBECHHABV12@HH@Z ENDP	; icu_56::UnicodeString::compare
_TEXT	ENDS
PUBLIC	?compare@UnicodeString@icu_56@@QBECHHPB_W@Z	; icu_56::UnicodeString::compare
; Function compile flags: /Odtp /RTCsu /ZI
;	COMDAT ?compare@UnicodeString@icu_56@@QBECHHPB_W@Z
_TEXT	SEGMENT
_this$ = -8						; size = 4
_start$ = 8						; size = 4
__length$ = 12						; size = 4
_srcChars$ = 16						; size = 4
?compare@UnicodeString@icu_56@@QBECHHPB_W@Z PROC	; icu_56::UnicodeString::compare, COMDAT
; _this$ = ecx
; Line 3911
	push	ebp
	mov	ebp, esp
	sub	esp, 204				; 000000ccH
	push	ebx
	push	esi
	push	edi
	push	ecx
	lea	edi, DWORD PTR [ebp-204]
	mov	ecx, 51					; 00000033H
	mov	eax, -858993460				; ccccccccH
	rep stosd
	pop	ecx
	mov	DWORD PTR _this$[ebp], ecx
	mov	eax, DWORD PTR __length$[ebp]
	push	eax
	push	0
	mov	ecx, DWORD PTR _srcChars$[ebp]
	push	ecx
	mov	edx, DWORD PTR __length$[ebp]
	push	edx
	mov	eax, DWORD PTR _start$[ebp]
	push	eax
	mov	ecx, DWORD PTR _this$[ebp]
	call	?doCompare@UnicodeString@icu_56@@ABECHHPB_WHH@Z ; icu_56::UnicodeString::doCompare
	pop	edi
	pop	esi
	pop	ebx
	add	esp, 204				; 000000ccH
	cmp	ebp, esp
	call	__RTC_CheckEsp
	mov	esp, ebp
	pop	ebp
	ret	12					; 0000000cH
?compare@UnicodeString@icu_56@@QBECHHPB_W@Z ENDP	; icu_56::UnicodeString::compare
_TEXT	ENDS
PUBLIC	?compare@UnicodeString@icu_56@@QBECHHPB_WHH@Z	; icu_56::UnicodeString::compare
; Function compile flags: /Odtp /RTCsu /ZI
;	COMDAT ?compare@UnicodeString@icu_56@@QBECHHPB_WHH@Z
_TEXT	SEGMENT
_this$ = -8						; size = 4
_start$ = 8						; size = 4
__length$ = 12						; size = 4
_srcChars$ = 16						; size = 4
_srcStart$ = 20						; size = 4
_srcLength$ = 24					; size = 4
?compare@UnicodeString@icu_56@@QBECHHPB_WHH@Z PROC	; icu_56::UnicodeString::compare, COMDAT
; _this$ = ecx
; Line 3919
	push	ebp
	mov	ebp, esp
	sub	esp, 204				; 000000ccH
	push	ebx
	push	esi
	push	edi
	push	ecx
	lea	edi, DWORD PTR [ebp-204]
	mov	ecx, 51					; 00000033H
	mov	eax, -858993460				; ccccccccH
	rep stosd
	pop	ecx
	mov	DWORD PTR _this$[ebp], ecx
	mov	eax, DWORD PTR _srcLength$[ebp]
	push	eax
	mov	ecx, DWORD PTR _srcStart$[ebp]
	push	ecx
	mov	edx, DWORD PTR _srcChars$[ebp]
	push	edx
	mov	eax, DWORD PTR __length$[ebp]
	push	eax
	mov	ecx, DWORD PTR _start$[ebp]
	push	ecx
	mov	ecx, DWORD PTR _this$[ebp]
	call	?doCompare@UnicodeString@icu_56@@ABECHHPB_WHH@Z ; icu_56::UnicodeString::doCompare
	pop	edi
	pop	esi
	pop	ebx
	add	esp, 204				; 000000ccH
	cmp	ebp, esp
	call	__RTC_CheckEsp
	mov	esp, ebp
	pop	ebp
	ret	20					; 00000014H
?compare@UnicodeString@icu_56@@QBECHHPB_WHH@Z ENDP	; icu_56::UnicodeString::compare
_TEXT	ENDS
PUBLIC	?compareBetween@UnicodeString@icu_56@@QBECHHABV12@HH@Z ; icu_56::UnicodeString::compareBetween
; Function compile flags: /Odtp /RTCsu /ZI
;	COMDAT ?compareBetween@UnicodeString@icu_56@@QBECHHABV12@HH@Z
_TEXT	SEGMENT
_this$ = -8						; size = 4
_start$ = 8						; size = 4
_limit$ = 12						; size = 4
_srcText$ = 16						; size = 4
_srcStart$ = 20						; size = 4
_srcLimit$ = 24						; size = 4
?compareBetween@UnicodeString@icu_56@@QBECHHABV12@HH@Z PROC ; icu_56::UnicodeString::compareBetween, COMDAT
; _this$ = ecx
; Line 3927
	push	ebp
	mov	ebp, esp
	sub	esp, 204				; 000000ccH
	push	ebx
	push	esi
	push	edi
	push	ecx
	lea	edi, DWORD PTR [ebp-204]
	mov	ecx, 51					; 00000033H
	mov	eax, -858993460				; ccccccccH
	rep stosd
	pop	ecx
	mov	DWORD PTR _this$[ebp], ecx
; Line 3928
	mov	eax, DWORD PTR _srcLimit$[ebp]
	sub	eax, DWORD PTR _srcStart$[ebp]
	push	eax
	mov	ecx, DWORD PTR _srcStart$[ebp]
	push	ecx
	mov	edx, DWORD PTR _srcText$[ebp]
	push	edx
	mov	eax, DWORD PTR _limit$[ebp]
	sub	eax, DWORD PTR _start$[ebp]
	push	eax
	mov	ecx, DWORD PTR _start$[ebp]
	push	ecx
	mov	ecx, DWORD PTR _this$[ebp]
	call	?doCompare@UnicodeString@icu_56@@ABECHHABV12@HH@Z ; icu_56::UnicodeString::doCompare
	pop	edi
	pop	esi
	pop	ebx
	add	esp, 204				; 000000ccH
	cmp	ebp, esp
	call	__RTC_CheckEsp
	mov	esp, ebp
	pop	ebp
	ret	20					; 00000014H
?compareBetween@UnicodeString@icu_56@@QBECHHABV12@HH@Z ENDP ; icu_56::UnicodeString::compareBetween
_TEXT	ENDS
PUBLIC	?doCompareCodePointOrder@UnicodeString@icu_56@@ABECHHABV12@HH@Z ; icu_56::UnicodeString::doCompareCodePointOrder
EXTRN	?doCompareCodePointOrder@UnicodeString@icu_56@@ABECHHPB_WHH@Z:PROC ; icu_56::UnicodeString::doCompareCodePointOrder
; Function compile flags: /Odtp /RTCsu /ZI
;	COMDAT ?doCompareCodePointOrder@UnicodeString@icu_56@@ABECHHABV12@HH@Z
_TEXT	SEGMENT
_this$ = -8						; size = 4
_start$ = 8						; size = 4
_thisLength$ = 12					; size = 4
_srcText$ = 16						; size = 4
_srcStart$ = 20						; size = 4
_srcLength$ = 24					; size = 4
?doCompareCodePointOrder@UnicodeString@icu_56@@ABECHHABV12@HH@Z PROC ; icu_56::UnicodeString::doCompareCodePointOrder, COMDAT
; _this$ = ecx
; Line 3936
	push	ebp
	mov	ebp, esp
	sub	esp, 204				; 000000ccH
	push	ebx
	push	esi
	push	edi
	push	ecx
	lea	edi, DWORD PTR [ebp-204]
	mov	ecx, 51					; 00000033H
	mov	eax, -858993460				; ccccccccH
	rep stosd
	pop	ecx
	mov	DWORD PTR _this$[ebp], ecx
; Line 3937
	mov	ecx, DWORD PTR _srcText$[ebp]
	call	?isBogus@UnicodeString@icu_56@@QBECXZ	; icu_56::UnicodeString::isBogus
	movsx	eax, al
	test	eax, eax
	je	SHORT $LN2@doCompareC
; Line 3938
	mov	ecx, DWORD PTR _this$[ebp]
	call	?isBogus@UnicodeString@icu_56@@QBECXZ	; icu_56::UnicodeString::isBogus
	movsx	eax, al
	test	eax, eax
	sete	al
	jmp	SHORT $LN3@doCompareC
; Line 3939
	jmp	SHORT $LN3@doCompareC
$LN2@doCompareC:
; Line 3940
	lea	eax, DWORD PTR _srcLength$[ebp]
	push	eax
	lea	ecx, DWORD PTR _srcStart$[ebp]
	push	ecx
	mov	ecx, DWORD PTR _srcText$[ebp]
	call	?pinIndices@UnicodeString@icu_56@@ABEXAAH0@Z ; icu_56::UnicodeString::pinIndices
; Line 3941
	mov	eax, DWORD PTR _srcLength$[ebp]
	push	eax
	mov	ecx, DWORD PTR _srcStart$[ebp]
	push	ecx
	mov	ecx, DWORD PTR _srcText$[ebp]
	call	?getArrayStart@UnicodeString@icu_56@@ABEPB_WXZ ; icu_56::UnicodeString::getArrayStart
	push	eax
	mov	edx, DWORD PTR _thisLength$[ebp]
	push	edx
	mov	eax, DWORD PTR _start$[ebp]
	push	eax
	mov	ecx, DWORD PTR _this$[ebp]
	call	?doCompareCodePointOrder@UnicodeString@icu_56@@ABECHHPB_WHH@Z ; icu_56::UnicodeString::doCompareCodePointOrder
$LN3@doCompareC:
; Line 3943
	pop	edi
	pop	esi
	pop	ebx
	add	esp, 204				; 000000ccH
	cmp	ebp, esp
	call	__RTC_CheckEsp
	mov	esp, ebp
	pop	ebp
	ret	20					; 00000014H
?doCompareCodePointOrder@UnicodeString@icu_56@@ABECHHABV12@HH@Z ENDP ; icu_56::UnicodeString::doCompareCodePointOrder
_TEXT	ENDS
PUBLIC	?compareCodePointOrder@UnicodeString@icu_56@@QBECABV12@@Z ; icu_56::UnicodeString::compareCodePointOrder
; Function compile flags: /Odtp /RTCsu /ZI
;	COMDAT ?compareCodePointOrder@UnicodeString@icu_56@@QBECABV12@@Z
_TEXT	SEGMENT
_this$ = -8						; size = 4
_text$ = 8						; size = 4
?compareCodePointOrder@UnicodeString@icu_56@@QBECABV12@@Z PROC ; icu_56::UnicodeString::compareCodePointOrder, COMDAT
; _this$ = ecx
; Line 3947
	push	ebp
	mov	ebp, esp
	sub	esp, 204				; 000000ccH
	push	ebx
	push	esi
	push	edi
	push	ecx
	lea	edi, DWORD PTR [ebp-204]
	mov	ecx, 51					; 00000033H
	mov	eax, -858993460				; ccccccccH
	rep stosd
	pop	ecx
	mov	DWORD PTR _this$[ebp], ecx
	mov	ecx, DWORD PTR _text$[ebp]
	call	?length@UnicodeString@icu_56@@QBEHXZ	; icu_56::UnicodeString::length
	push	eax
	push	0
	mov	eax, DWORD PTR _text$[ebp]
	push	eax
	mov	ecx, DWORD PTR _this$[ebp]
	call	?length@UnicodeString@icu_56@@QBEHXZ	; icu_56::UnicodeString::length
	push	eax
	push	0
	mov	ecx, DWORD PTR _this$[ebp]
	call	?doCompareCodePointOrder@UnicodeString@icu_56@@ABECHHABV12@HH@Z ; icu_56::UnicodeString::doCompareCodePointOrder
	pop	edi
	pop	esi
	pop	ebx
	add	esp, 204				; 000000ccH
	cmp	ebp, esp
	call	__RTC_CheckEsp
	mov	esp, ebp
	pop	ebp
	ret	4
?compareCodePointOrder@UnicodeString@icu_56@@QBECABV12@@Z ENDP ; icu_56::UnicodeString::compareCodePointOrder
_TEXT	ENDS
PUBLIC	?compareCodePointOrder@UnicodeString@icu_56@@QBECHHABV12@@Z ; icu_56::UnicodeString::compareCodePointOrder
; Function compile flags: /Odtp /RTCsu /ZI
;	COMDAT ?compareCodePointOrder@UnicodeString@icu_56@@QBECHHABV12@@Z
_TEXT	SEGMENT
_this$ = -8						; size = 4
_start$ = 8						; size = 4
__length$ = 12						; size = 4
_srcText$ = 16						; size = 4
?compareCodePointOrder@UnicodeString@icu_56@@QBECHHABV12@@Z PROC ; icu_56::UnicodeString::compareCodePointOrder, COMDAT
; _this$ = ecx
; Line 3953
	push	ebp
	mov	ebp, esp
	sub	esp, 204				; 000000ccH
	push	ebx
	push	esi
	push	edi
	push	ecx
	lea	edi, DWORD PTR [ebp-204]
	mov	ecx, 51					; 00000033H
	mov	eax, -858993460				; ccccccccH
	rep stosd
	pop	ecx
	mov	DWORD PTR _this$[ebp], ecx
	mov	ecx, DWORD PTR _srcText$[ebp]
	call	?length@UnicodeString@icu_56@@QBEHXZ	; icu_56::UnicodeString::length
	push	eax
	push	0
	mov	eax, DWORD PTR _srcText$[ebp]
	push	eax
	mov	ecx, DWORD PTR __length$[ebp]
	push	ecx
	mov	edx, DWORD PTR _start$[ebp]
	push	edx
	mov	ecx, DWORD PTR _this$[ebp]
	call	?doCompareCodePointOrder@UnicodeString@icu_56@@ABECHHABV12@HH@Z ; icu_56::UnicodeString::doCompareCodePointOrder
	pop	edi
	pop	esi
	pop	ebx
	add	esp, 204				; 000000ccH
	cmp	ebp, esp
	call	__RTC_CheckEsp
	mov	esp, ebp
	pop	ebp
	ret	12					; 0000000cH
?compareCodePointOrder@UnicodeString@icu_56@@QBECHHABV12@@Z ENDP ; icu_56::UnicodeString::compareCodePointOrder
_TEXT	ENDS
PUBLIC	?compareCodePointOrder@UnicodeString@icu_56@@QBECPB_WH@Z ; icu_56::UnicodeString::compareCodePointOrder
; Function compile flags: /Odtp /RTCsu /ZI
;	COMDAT ?compareCodePointOrder@UnicodeString@icu_56@@QBECPB_WH@Z
_TEXT	SEGMENT
_this$ = -8						; size = 4
_srcChars$ = 8						; size = 4
_srcLength$ = 12					; size = 4
?compareCodePointOrder@UnicodeString@icu_56@@QBECPB_WH@Z PROC ; icu_56::UnicodeString::compareCodePointOrder, COMDAT
; _this$ = ecx
; Line 3958
	push	ebp
	mov	ebp, esp
	sub	esp, 204				; 000000ccH
	push	ebx
	push	esi
	push	edi
	push	ecx
	lea	edi, DWORD PTR [ebp-204]
	mov	ecx, 51					; 00000033H
	mov	eax, -858993460				; ccccccccH
	rep stosd
	pop	ecx
	mov	DWORD PTR _this$[ebp], ecx
	mov	eax, DWORD PTR _srcLength$[ebp]
	push	eax
	push	0
	mov	ecx, DWORD PTR _srcChars$[ebp]
	push	ecx
	mov	ecx, DWORD PTR _this$[ebp]
	call	?length@UnicodeString@icu_56@@QBEHXZ	; icu_56::UnicodeString::length
	push	eax
	push	0
	mov	ecx, DWORD PTR _this$[ebp]
	call	?doCompareCodePointOrder@UnicodeString@icu_56@@ABECHHPB_WHH@Z ; icu_56::UnicodeString::doCompareCodePointOrder
	pop	edi
	pop	esi
	pop	ebx
	add	esp, 204				; 000000ccH
	cmp	ebp, esp
	call	__RTC_CheckEsp
	mov	esp, ebp
	pop	ebp
	ret	8
?compareCodePointOrder@UnicodeString@icu_56@@QBECPB_WH@Z ENDP ; icu_56::UnicodeString::compareCodePointOrder
_TEXT	ENDS
PUBLIC	?compareCodePointOrder@UnicodeString@icu_56@@QBECHHABV12@HH@Z ; icu_56::UnicodeString::compareCodePointOrder
; Function compile flags: /Odtp /RTCsu /ZI
;	COMDAT ?compareCodePointOrder@UnicodeString@icu_56@@QBECHHABV12@HH@Z
_TEXT	SEGMENT
_this$ = -8						; size = 4
_start$ = 8						; size = 4
__length$ = 12						; size = 4
_srcText$ = 16						; size = 4
_srcStart$ = 20						; size = 4
_srcLength$ = 24					; size = 4
?compareCodePointOrder@UnicodeString@icu_56@@QBECHHABV12@HH@Z PROC ; icu_56::UnicodeString::compareCodePointOrder, COMDAT
; _this$ = ecx
; Line 3966
	push	ebp
	mov	ebp, esp
	sub	esp, 204				; 000000ccH
	push	ebx
	push	esi
	push	edi
	push	ecx
	lea	edi, DWORD PTR [ebp-204]
	mov	ecx, 51					; 00000033H
	mov	eax, -858993460				; ccccccccH
	rep stosd
	pop	ecx
	mov	DWORD PTR _this$[ebp], ecx
	mov	eax, DWORD PTR _srcLength$[ebp]
	push	eax
	mov	ecx, DWORD PTR _srcStart$[ebp]
	push	ecx
	mov	edx, DWORD PTR _srcText$[ebp]
	push	edx
	mov	eax, DWORD PTR __length$[ebp]
	push	eax
	mov	ecx, DWORD PTR _start$[ebp]
	push	ecx
	mov	ecx, DWORD PTR _this$[ebp]
	call	?doCompareCodePointOrder@UnicodeString@icu_56@@ABECHHABV12@HH@Z ; icu_56::UnicodeString::doCompareCodePointOrder
	pop	edi
	pop	esi
	pop	ebx
	add	esp, 204				; 000000ccH
	cmp	ebp, esp
	call	__RTC_CheckEsp
	mov	esp, ebp
	pop	ebp
	ret	20					; 00000014H
?compareCodePointOrder@UnicodeString@icu_56@@QBECHHABV12@HH@Z ENDP ; icu_56::UnicodeString::compareCodePointOrder
_TEXT	ENDS
PUBLIC	?compareCodePointOrder@UnicodeString@icu_56@@QBECHHPB_W@Z ; icu_56::UnicodeString::compareCodePointOrder
; Function compile flags: /Odtp /RTCsu /ZI
;	COMDAT ?compareCodePointOrder@UnicodeString@icu_56@@QBECHHPB_W@Z
_TEXT	SEGMENT
_this$ = -8						; size = 4
_start$ = 8						; size = 4
__length$ = 12						; size = 4
_srcChars$ = 16						; size = 4
?compareCodePointOrder@UnicodeString@icu_56@@QBECHHPB_W@Z PROC ; icu_56::UnicodeString::compareCodePointOrder, COMDAT
; _this$ = ecx
; Line 3972
	push	ebp
	mov	ebp, esp
	sub	esp, 204				; 000000ccH
	push	ebx
	push	esi
	push	edi
	push	ecx
	lea	edi, DWORD PTR [ebp-204]
	mov	ecx, 51					; 00000033H
	mov	eax, -858993460				; ccccccccH
	rep stosd
	pop	ecx
	mov	DWORD PTR _this$[ebp], ecx
	mov	eax, DWORD PTR __length$[ebp]
	push	eax
	push	0
	mov	ecx, DWORD PTR _srcChars$[ebp]
	push	ecx
	mov	edx, DWORD PTR __length$[ebp]
	push	edx
	mov	eax, DWORD PTR _start$[ebp]
	push	eax
	mov	ecx, DWORD PTR _this$[ebp]
	call	?doCompareCodePointOrder@UnicodeString@icu_56@@ABECHHPB_WHH@Z ; icu_56::UnicodeString::doCompareCodePointOrder
	pop	edi
	pop	esi
	pop	ebx
	add	esp, 204				; 000000ccH
	cmp	ebp, esp
	call	__RTC_CheckEsp
	mov	esp, ebp
	pop	ebp
	ret	12					; 0000000cH
?compareCodePointOrder@UnicodeString@icu_56@@QBECHHPB_W@Z ENDP ; icu_56::UnicodeString::compareCodePointOrder
_TEXT	ENDS
PUBLIC	?compareCodePointOrder@UnicodeString@icu_56@@QBECHHPB_WHH@Z ; icu_56::UnicodeString::compareCodePointOrder
; Function compile flags: /Odtp /RTCsu /ZI
;	COMDAT ?compareCodePointOrder@UnicodeString@icu_56@@QBECHHPB_WHH@Z
_TEXT	SEGMENT
_this$ = -8						; size = 4
_start$ = 8						; size = 4
__length$ = 12						; size = 4
_srcChars$ = 16						; size = 4
_srcStart$ = 20						; size = 4
_srcLength$ = 24					; size = 4
?compareCodePointOrder@UnicodeString@icu_56@@QBECHHPB_WHH@Z PROC ; icu_56::UnicodeString::compareCodePointOrder, COMDAT
; _this$ = ecx
; Line 3980
	push	ebp
	mov	ebp, esp
	sub	esp, 204				; 000000ccH
	push	ebx
	push	esi
	push	edi
	push	ecx
	lea	edi, DWORD PTR [ebp-204]
	mov	ecx, 51					; 00000033H
	mov	eax, -858993460				; ccccccccH
	rep stosd
	pop	ecx
	mov	DWORD PTR _this$[ebp], ecx
	mov	eax, DWORD PTR _srcLength$[ebp]
	push	eax
	mov	ecx, DWORD PTR _srcStart$[ebp]
	push	ecx
	mov	edx, DWORD PTR _srcChars$[ebp]
	push	edx
	mov	eax, DWORD PTR __length$[ebp]
	push	eax
	mov	ecx, DWORD PTR _start$[ebp]
	push	ecx
	mov	ecx, DWORD PTR _this$[ebp]
	call	?doCompareCodePointOrder@UnicodeString@icu_56@@ABECHHPB_WHH@Z ; icu_56::UnicodeString::doCompareCodePointOrder
	pop	edi
	pop	esi
	pop	ebx
	add	esp, 204				; 000000ccH
	cmp	ebp, esp
	call	__RTC_CheckEsp
	mov	esp, ebp
	pop	ebp
	ret	20					; 00000014H
?compareCodePointOrder@UnicodeString@icu_56@@QBECHHPB_WHH@Z ENDP ; icu_56::UnicodeString::compareCodePointOrder
_TEXT	ENDS
PUBLIC	?compareCodePointOrderBetween@UnicodeString@icu_56@@QBECHHABV12@HH@Z ; icu_56::UnicodeString::compareCodePointOrderBetween
; Function compile flags: /Odtp /RTCsu /ZI
;	COMDAT ?compareCodePointOrderBetween@UnicodeString@icu_56@@QBECHHABV12@HH@Z
_TEXT	SEGMENT
_this$ = -8						; size = 4
_start$ = 8						; size = 4
_limit$ = 12						; size = 4
_srcText$ = 16						; size = 4
_srcStart$ = 20						; size = 4
_srcLimit$ = 24						; size = 4
?compareCodePointOrderBetween@UnicodeString@icu_56@@QBECHHABV12@HH@Z PROC ; icu_56::UnicodeString::compareCodePointOrderBetween, COMDAT
; _this$ = ecx
; Line 3988
	push	ebp
	mov	ebp, esp
	sub	esp, 204				; 000000ccH
	push	ebx
	push	esi
	push	edi
	push	ecx
	lea	edi, DWORD PTR [ebp-204]
	mov	ecx, 51					; 00000033H
	mov	eax, -858993460				; ccccccccH
	rep stosd
	pop	ecx
	mov	DWORD PTR _this$[ebp], ecx
; Line 3989
	mov	eax, DWORD PTR _srcLimit$[ebp]
	sub	eax, DWORD PTR _srcStart$[ebp]
	push	eax
	mov	ecx, DWORD PTR _srcStart$[ebp]
	push	ecx
	mov	edx, DWORD PTR _srcText$[ebp]
	push	edx
	mov	eax, DWORD PTR _limit$[ebp]
	sub	eax, DWORD PTR _start$[ebp]
	push	eax
	mov	ecx, DWORD PTR _start$[ebp]
	push	ecx
	mov	ecx, DWORD PTR _this$[ebp]
	call	?doCompareCodePointOrder@UnicodeString@icu_56@@ABECHHABV12@HH@Z ; icu_56::UnicodeString::doCompareCodePointOrder
	pop	edi
	pop	esi
	pop	ebx
	add	esp, 204				; 000000ccH
	cmp	ebp, esp
	call	__RTC_CheckEsp
	mov	esp, ebp
	pop	ebp
	ret	20					; 00000014H
?compareCodePointOrderBetween@UnicodeString@icu_56@@QBECHHABV12@HH@Z ENDP ; icu_56::UnicodeString::compareCodePointOrderBetween
_TEXT	ENDS
PUBLIC	?doCaseCompare@UnicodeString@icu_56@@ABECHHABV12@HHI@Z ; icu_56::UnicodeString::doCaseCompare
EXTRN	?doCaseCompare@UnicodeString@icu_56@@ABECHHPB_WHHI@Z:PROC ; icu_56::UnicodeString::doCaseCompare
; Function compile flags: /Odtp /RTCsu /ZI
;	COMDAT ?doCaseCompare@UnicodeString@icu_56@@ABECHHABV12@HHI@Z
_TEXT	SEGMENT
_this$ = -8						; size = 4
_start$ = 8						; size = 4
_thisLength$ = 12					; size = 4
_srcText$ = 16						; size = 4
_srcStart$ = 20						; size = 4
_srcLength$ = 24					; size = 4
_options$ = 28						; size = 4
?doCaseCompare@UnicodeString@icu_56@@ABECHHABV12@HHI@Z PROC ; icu_56::UnicodeString::doCaseCompare, COMDAT
; _this$ = ecx
; Line 3998
	push	ebp
	mov	ebp, esp
	sub	esp, 204				; 000000ccH
	push	ebx
	push	esi
	push	edi
	push	ecx
	lea	edi, DWORD PTR [ebp-204]
	mov	ecx, 51					; 00000033H
	mov	eax, -858993460				; ccccccccH
	rep stosd
	pop	ecx
	mov	DWORD PTR _this$[ebp], ecx
; Line 3999
	mov	ecx, DWORD PTR _srcText$[ebp]
	call	?isBogus@UnicodeString@icu_56@@QBECXZ	; icu_56::UnicodeString::isBogus
	movsx	eax, al
	test	eax, eax
	je	SHORT $LN2@doCaseComp
; Line 4000
	mov	ecx, DWORD PTR _this$[ebp]
	call	?isBogus@UnicodeString@icu_56@@QBECXZ	; icu_56::UnicodeString::isBogus
	movsx	eax, al
	test	eax, eax
	sete	al
	jmp	SHORT $LN3@doCaseComp
; Line 4001
	jmp	SHORT $LN3@doCaseComp
$LN2@doCaseComp:
; Line 4002
	lea	eax, DWORD PTR _srcLength$[ebp]
	push	eax
	lea	ecx, DWORD PTR _srcStart$[ebp]
	push	ecx
	mov	ecx, DWORD PTR _srcText$[ebp]
	call	?pinIndices@UnicodeString@icu_56@@ABEXAAH0@Z ; icu_56::UnicodeString::pinIndices
; Line 4003
	mov	eax, DWORD PTR _options$[ebp]
	push	eax
	mov	ecx, DWORD PTR _srcLength$[ebp]
	push	ecx
	mov	edx, DWORD PTR _srcStart$[ebp]
	push	edx
	mov	ecx, DWORD PTR _srcText$[ebp]
	call	?getArrayStart@UnicodeString@icu_56@@ABEPB_WXZ ; icu_56::UnicodeString::getArrayStart
	push	eax
	mov	eax, DWORD PTR _thisLength$[ebp]
	push	eax
	mov	ecx, DWORD PTR _start$[ebp]
	push	ecx
	mov	ecx, DWORD PTR _this$[ebp]
	call	?doCaseCompare@UnicodeString@icu_56@@ABECHHPB_WHHI@Z ; icu_56::UnicodeString::doCaseCompare
$LN3@doCaseComp:
; Line 4005
	pop	edi
	pop	esi
	pop	ebx
	add	esp, 204				; 000000ccH
	cmp	ebp, esp
	call	__RTC_CheckEsp
	mov	esp, ebp
	pop	ebp
	ret	24					; 00000018H
?doCaseCompare@UnicodeString@icu_56@@ABECHHABV12@HHI@Z ENDP ; icu_56::UnicodeString::doCaseCompare
_TEXT	ENDS
PUBLIC	?caseCompare@UnicodeString@icu_56@@QBECABV12@I@Z ; icu_56::UnicodeString::caseCompare
; Function compile flags: /Odtp /RTCsu /ZI
;	COMDAT ?caseCompare@UnicodeString@icu_56@@QBECABV12@I@Z
_TEXT	SEGMENT
_this$ = -8						; size = 4
_text$ = 8						; size = 4
_options$ = 12						; size = 4
?caseCompare@UnicodeString@icu_56@@QBECABV12@I@Z PROC	; icu_56::UnicodeString::caseCompare, COMDAT
; _this$ = ecx
; Line 4008
	push	ebp
	mov	ebp, esp
	sub	esp, 204				; 000000ccH
	push	ebx
	push	esi
	push	edi
	push	ecx
	lea	edi, DWORD PTR [ebp-204]
	mov	ecx, 51					; 00000033H
	mov	eax, -858993460				; ccccccccH
	rep stosd
	pop	ecx
	mov	DWORD PTR _this$[ebp], ecx
; Line 4009
	mov	eax, DWORD PTR _options$[ebp]
	push	eax
	mov	ecx, DWORD PTR _text$[ebp]
	call	?length@UnicodeString@icu_56@@QBEHXZ	; icu_56::UnicodeString::length
	push	eax
	push	0
	mov	ecx, DWORD PTR _text$[ebp]
	push	ecx
	mov	ecx, DWORD PTR _this$[ebp]
	call	?length@UnicodeString@icu_56@@QBEHXZ	; icu_56::UnicodeString::length
	push	eax
	push	0
	mov	ecx, DWORD PTR _this$[ebp]
	call	?doCaseCompare@UnicodeString@icu_56@@ABECHHABV12@HHI@Z ; icu_56::UnicodeString::doCaseCompare
; Line 4010
	pop	edi
	pop	esi
	pop	ebx
	add	esp, 204				; 000000ccH
	cmp	ebp, esp
	call	__RTC_CheckEsp
	mov	esp, ebp
	pop	ebp
	ret	8
?caseCompare@UnicodeString@icu_56@@QBECABV12@I@Z ENDP	; icu_56::UnicodeString::caseCompare
_TEXT	ENDS
PUBLIC	?caseCompare@UnicodeString@icu_56@@QBECHHABV12@I@Z ; icu_56::UnicodeString::caseCompare
; Function compile flags: /Odtp /RTCsu /ZI
;	COMDAT ?caseCompare@UnicodeString@icu_56@@QBECHHABV12@I@Z
_TEXT	SEGMENT
_this$ = -8						; size = 4
_start$ = 8						; size = 4
__length$ = 12						; size = 4
_srcText$ = 16						; size = 4
_options$ = 20						; size = 4
?caseCompare@UnicodeString@icu_56@@QBECHHABV12@I@Z PROC	; icu_56::UnicodeString::caseCompare, COMDAT
; _this$ = ecx
; Line 4016
	push	ebp
	mov	ebp, esp
	sub	esp, 204				; 000000ccH
	push	ebx
	push	esi
	push	edi
	push	ecx
	lea	edi, DWORD PTR [ebp-204]
	mov	ecx, 51					; 00000033H
	mov	eax, -858993460				; ccccccccH
	rep stosd
	pop	ecx
	mov	DWORD PTR _this$[ebp], ecx
; Line 4017
	mov	eax, DWORD PTR _options$[ebp]
	push	eax
	mov	ecx, DWORD PTR _srcText$[ebp]
	call	?length@UnicodeString@icu_56@@QBEHXZ	; icu_56::UnicodeString::length
	push	eax
	push	0
	mov	ecx, DWORD PTR _srcText$[ebp]
	push	ecx
	mov	edx, DWORD PTR __length$[ebp]
	push	edx
	mov	eax, DWORD PTR _start$[ebp]
	push	eax
	mov	ecx, DWORD PTR _this$[ebp]
	call	?doCaseCompare@UnicodeString@icu_56@@ABECHHABV12@HHI@Z ; icu_56::UnicodeString::doCaseCompare
; Line 4018
	pop	edi
	pop	esi
	pop	ebx
	add	esp, 204				; 000000ccH
	cmp	ebp, esp
	call	__RTC_CheckEsp
	mov	esp, ebp
	pop	ebp
	ret	16					; 00000010H
?caseCompare@UnicodeString@icu_56@@QBECHHABV12@I@Z ENDP	; icu_56::UnicodeString::caseCompare
_TEXT	ENDS
PUBLIC	?caseCompare@UnicodeString@icu_56@@QBECPB_WHI@Z	; icu_56::UnicodeString::caseCompare
; Function compile flags: /Odtp /RTCsu /ZI
;	COMDAT ?caseCompare@UnicodeString@icu_56@@QBECPB_WHI@Z
_TEXT	SEGMENT
_this$ = -8						; size = 4
_srcChars$ = 8						; size = 4
_srcLength$ = 12					; size = 4
_options$ = 16						; size = 4
?caseCompare@UnicodeString@icu_56@@QBECPB_WHI@Z PROC	; icu_56::UnicodeString::caseCompare, COMDAT
; _this$ = ecx
; Line 4023
	push	ebp
	mov	ebp, esp
	sub	esp, 204				; 000000ccH
	push	ebx
	push	esi
	push	edi
	push	ecx
	lea	edi, DWORD PTR [ebp-204]
	mov	ecx, 51					; 00000033H
	mov	eax, -858993460				; ccccccccH
	rep stosd
	pop	ecx
	mov	DWORD PTR _this$[ebp], ecx
; Line 4024
	mov	eax, DWORD PTR _options$[ebp]
	push	eax
	mov	ecx, DWORD PTR _srcLength$[ebp]
	push	ecx
	push	0
	mov	edx, DWORD PTR _srcChars$[ebp]
	push	edx
	mov	ecx, DWORD PTR _this$[ebp]
	call	?length@UnicodeString@icu_56@@QBEHXZ	; icu_56::UnicodeString::length
	push	eax
	push	0
	mov	ecx, DWORD PTR _this$[ebp]
	call	?doCaseCompare@UnicodeString@icu_56@@ABECHHPB_WHHI@Z ; icu_56::UnicodeString::doCaseCompare
; Line 4025
	pop	edi
	pop	esi
	pop	ebx
	add	esp, 204				; 000000ccH
	cmp	ebp, esp
	call	__RTC_CheckEsp
	mov	esp, ebp
	pop	ebp
	ret	12					; 0000000cH
?caseCompare@UnicodeString@icu_56@@QBECPB_WHI@Z ENDP	; icu_56::UnicodeString::caseCompare
_TEXT	ENDS
PUBLIC	?caseCompare@UnicodeString@icu_56@@QBECHHABV12@HHI@Z ; icu_56::UnicodeString::caseCompare
; Function compile flags: /Odtp /RTCsu /ZI
;	COMDAT ?caseCompare@UnicodeString@icu_56@@QBECHHABV12@HHI@Z
_TEXT	SEGMENT
_this$ = -8						; size = 4
_start$ = 8						; size = 4
__length$ = 12						; size = 4
_srcText$ = 16						; size = 4
_srcStart$ = 20						; size = 4
_srcLength$ = 24					; size = 4
_options$ = 28						; size = 4
?caseCompare@UnicodeString@icu_56@@QBECHHABV12@HHI@Z PROC ; icu_56::UnicodeString::caseCompare, COMDAT
; _this$ = ecx
; Line 4033
	push	ebp
	mov	ebp, esp
	sub	esp, 204				; 000000ccH
	push	ebx
	push	esi
	push	edi
	push	ecx
	lea	edi, DWORD PTR [ebp-204]
	mov	ecx, 51					; 00000033H
	mov	eax, -858993460				; ccccccccH
	rep stosd
	pop	ecx
	mov	DWORD PTR _this$[ebp], ecx
; Line 4034
	mov	eax, DWORD PTR _options$[ebp]
	push	eax
	mov	ecx, DWORD PTR _srcLength$[ebp]
	push	ecx
	mov	edx, DWORD PTR _srcStart$[ebp]
	push	edx
	mov	eax, DWORD PTR _srcText$[ebp]
	push	eax
	mov	ecx, DWORD PTR __length$[ebp]
	push	ecx
	mov	edx, DWORD PTR _start$[ebp]
	push	edx
	mov	ecx, DWORD PTR _this$[ebp]
	call	?doCaseCompare@UnicodeString@icu_56@@ABECHHABV12@HHI@Z ; icu_56::UnicodeString::doCaseCompare
; Line 4035
	pop	edi
	pop	esi
	pop	ebx
	add	esp, 204				; 000000ccH
	cmp	ebp, esp
	call	__RTC_CheckEsp
	mov	esp, ebp
	pop	ebp
	ret	24					; 00000018H
?caseCompare@UnicodeString@icu_56@@QBECHHABV12@HHI@Z ENDP ; icu_56::UnicodeString::caseCompare
_TEXT	ENDS
PUBLIC	?caseCompare@UnicodeString@icu_56@@QBECHHPB_WI@Z ; icu_56::UnicodeString::caseCompare
; Function compile flags: /Odtp /RTCsu /ZI
;	COMDAT ?caseCompare@UnicodeString@icu_56@@QBECHHPB_WI@Z
_TEXT	SEGMENT
_this$ = -8						; size = 4
_start$ = 8						; size = 4
__length$ = 12						; size = 4
_srcChars$ = 16						; size = 4
_options$ = 20						; size = 4
?caseCompare@UnicodeString@icu_56@@QBECHHPB_WI@Z PROC	; icu_56::UnicodeString::caseCompare, COMDAT
; _this$ = ecx
; Line 4041
	push	ebp
	mov	ebp, esp
	sub	esp, 204				; 000000ccH
	push	ebx
	push	esi
	push	edi
	push	ecx
	lea	edi, DWORD PTR [ebp-204]
	mov	ecx, 51					; 00000033H
	mov	eax, -858993460				; ccccccccH
	rep stosd
	pop	ecx
	mov	DWORD PTR _this$[ebp], ecx
; Line 4042
	mov	eax, DWORD PTR _options$[ebp]
	push	eax
	mov	ecx, DWORD PTR __length$[ebp]
	push	ecx
	push	0
	mov	edx, DWORD PTR _srcChars$[ebp]
	push	edx
	mov	eax, DWORD PTR __length$[ebp]
	push	eax
	mov	ecx, DWORD PTR _start$[ebp]
	push	ecx
	mov	ecx, DWORD PTR _this$[ebp]
	call	?doCaseCompare@UnicodeString@icu_56@@ABECHHPB_WHHI@Z ; icu_56::UnicodeString::doCaseCompare
; Line 4043
	pop	edi
	pop	esi
	pop	ebx
	add	esp, 204				; 000000ccH
	cmp	ebp, esp
	call	__RTC_CheckEsp
	mov	esp, ebp
	pop	ebp
	ret	16					; 00000010H
?caseCompare@UnicodeString@icu_56@@QBECHHPB_WI@Z ENDP	; icu_56::UnicodeString::caseCompare
_TEXT	ENDS
PUBLIC	?caseCompare@UnicodeString@icu_56@@QBECHHPB_WHHI@Z ; icu_56::UnicodeString::caseCompare
; Function compile flags: /Odtp /RTCsu /ZI
;	COMDAT ?caseCompare@UnicodeString@icu_56@@QBECHHPB_WHHI@Z
_TEXT	SEGMENT
_this$ = -8						; size = 4
_start$ = 8						; size = 4
__length$ = 12						; size = 4
_srcChars$ = 16						; size = 4
_srcStart$ = 20						; size = 4
_srcLength$ = 24					; size = 4
_options$ = 28						; size = 4
?caseCompare@UnicodeString@icu_56@@QBECHHPB_WHHI@Z PROC	; icu_56::UnicodeString::caseCompare, COMDAT
; _this$ = ecx
; Line 4051
	push	ebp
	mov	ebp, esp
	sub	esp, 204				; 000000ccH
	push	ebx
	push	esi
	push	edi
	push	ecx
	lea	edi, DWORD PTR [ebp-204]
	mov	ecx, 51					; 00000033H
	mov	eax, -858993460				; ccccccccH
	rep stosd
	pop	ecx
	mov	DWORD PTR _this$[ebp], ecx
; Line 4052
	mov	eax, DWORD PTR _options$[ebp]
	push	eax
	mov	ecx, DWORD PTR _srcLength$[ebp]
	push	ecx
	mov	edx, DWORD PTR _srcStart$[ebp]
	push	edx
	mov	eax, DWORD PTR _srcChars$[ebp]
	push	eax
	mov	ecx, DWORD PTR __length$[ebp]
	push	ecx
	mov	edx, DWORD PTR _start$[ebp]
	push	edx
	mov	ecx, DWORD PTR _this$[ebp]
	call	?doCaseCompare@UnicodeString@icu_56@@ABECHHPB_WHHI@Z ; icu_56::UnicodeString::doCaseCompare
; Line 4053
	pop	edi
	pop	esi
	pop	ebx
	add	esp, 204				; 000000ccH
	cmp	ebp, esp
	call	__RTC_CheckEsp
	mov	esp, ebp
	pop	ebp
	ret	24					; 00000018H
?caseCompare@UnicodeString@icu_56@@QBECHHPB_WHHI@Z ENDP	; icu_56::UnicodeString::caseCompare
_TEXT	ENDS
PUBLIC	?caseCompareBetween@UnicodeString@icu_56@@QBECHHABV12@HHI@Z ; icu_56::UnicodeString::caseCompareBetween
; Function compile flags: /Odtp /RTCsu /ZI
;	COMDAT ?caseCompareBetween@UnicodeString@icu_56@@QBECHHABV12@HHI@Z
_TEXT	SEGMENT
_this$ = -8						; size = 4
_start$ = 8						; size = 4
_limit$ = 12						; size = 4
_srcText$ = 16						; size = 4
_srcStart$ = 20						; size = 4
_srcLimit$ = 24						; size = 4
_options$ = 28						; size = 4
?caseCompareBetween@UnicodeString@icu_56@@QBECHHABV12@HHI@Z PROC ; icu_56::UnicodeString::caseCompareBetween, COMDAT
; _this$ = ecx
; Line 4061
	push	ebp
	mov	ebp, esp
	sub	esp, 204				; 000000ccH
	push	ebx
	push	esi
	push	edi
	push	ecx
	lea	edi, DWORD PTR [ebp-204]
	mov	ecx, 51					; 00000033H
	mov	eax, -858993460				; ccccccccH
	rep stosd
	pop	ecx
	mov	DWORD PTR _this$[ebp], ecx
; Line 4062
	mov	eax, DWORD PTR _options$[ebp]
	push	eax
	mov	ecx, DWORD PTR _srcLimit$[ebp]
	sub	ecx, DWORD PTR _srcStart$[ebp]
	push	ecx
	mov	edx, DWORD PTR _srcStart$[ebp]
	push	edx
	mov	eax, DWORD PTR _srcText$[ebp]
	push	eax
	mov	ecx, DWORD PTR _limit$[ebp]
	sub	ecx, DWORD PTR _start$[ebp]
	push	ecx
	mov	edx, DWORD PTR _start$[ebp]
	push	edx
	mov	ecx, DWORD PTR _this$[ebp]
	call	?doCaseCompare@UnicodeString@icu_56@@ABECHHABV12@HHI@Z ; icu_56::UnicodeString::doCaseCompare
; Line 4063
	pop	edi
	pop	esi
	pop	ebx
	add	esp, 204				; 000000ccH
	cmp	ebp, esp
	call	__RTC_CheckEsp
	mov	esp, ebp
	pop	ebp
	ret	24					; 00000018H
?caseCompareBetween@UnicodeString@icu_56@@QBECHHABV12@HHI@Z ENDP ; icu_56::UnicodeString::caseCompareBetween
_TEXT	ENDS
PUBLIC	?indexOf@UnicodeString@icu_56@@QBEHABV12@HHHH@Z	; icu_56::UnicodeString::indexOf
EXTRN	?indexOf@UnicodeString@icu_56@@QBEHPB_WHHHH@Z:PROC ; icu_56::UnicodeString::indexOf
; Function compile flags: /Odtp /RTCsu /ZI
;	COMDAT ?indexOf@UnicodeString@icu_56@@QBEHABV12@HHHH@Z
_TEXT	SEGMENT
_this$ = -8						; size = 4
_srcText$ = 8						; size = 4
_srcStart$ = 12						; size = 4
_srcLength$ = 16					; size = 4
_start$ = 20						; size = 4
__length$ = 24						; size = 4
?indexOf@UnicodeString@icu_56@@QBEHABV12@HHHH@Z PROC	; icu_56::UnicodeString::indexOf, COMDAT
; _this$ = ecx
; Line 4071
	push	ebp
	mov	ebp, esp
	sub	esp, 204				; 000000ccH
	push	ebx
	push	esi
	push	edi
	push	ecx
	lea	edi, DWORD PTR [ebp-204]
	mov	ecx, 51					; 00000033H
	mov	eax, -858993460				; ccccccccH
	rep stosd
	pop	ecx
	mov	DWORD PTR _this$[ebp], ecx
; Line 4072
	mov	ecx, DWORD PTR _srcText$[ebp]
	call	?isBogus@UnicodeString@icu_56@@QBECXZ	; icu_56::UnicodeString::isBogus
	movsx	eax, al
	test	eax, eax
	jne	SHORT $LN2@indexOf
; Line 4073
	lea	eax, DWORD PTR _srcLength$[ebp]
	push	eax
	lea	ecx, DWORD PTR _srcStart$[ebp]
	push	ecx
	mov	ecx, DWORD PTR _srcText$[ebp]
	call	?pinIndices@UnicodeString@icu_56@@ABEXAAH0@Z ; icu_56::UnicodeString::pinIndices
; Line 4074
	cmp	DWORD PTR _srcLength$[ebp], 0
	jle	SHORT $LN2@indexOf
; Line 4075
	mov	eax, DWORD PTR __length$[ebp]
	push	eax
	mov	ecx, DWORD PTR _start$[ebp]
	push	ecx
	mov	edx, DWORD PTR _srcLength$[ebp]
	push	edx
	mov	eax, DWORD PTR _srcStart$[ebp]
	push	eax
	mov	ecx, DWORD PTR _srcText$[ebp]
	call	?getArrayStart@UnicodeString@icu_56@@ABEPB_WXZ ; icu_56::UnicodeString::getArrayStart
	push	eax
	mov	ecx, DWORD PTR _this$[ebp]
	call	?indexOf@UnicodeString@icu_56@@QBEHPB_WHHHH@Z ; icu_56::UnicodeString::indexOf
	jmp	SHORT $LN3@indexOf
$LN2@indexOf:
; Line 4078
	or	eax, -1
$LN3@indexOf:
; Line 4079
	pop	edi
	pop	esi
	pop	ebx
	add	esp, 204				; 000000ccH
	cmp	ebp, esp
	call	__RTC_CheckEsp
	mov	esp, ebp
	pop	ebp
	ret	20					; 00000014H
?indexOf@UnicodeString@icu_56@@QBEHABV12@HHHH@Z ENDP	; icu_56::UnicodeString::indexOf
_TEXT	ENDS
PUBLIC	?indexOf@UnicodeString@icu_56@@QBEHABV12@@Z	; icu_56::UnicodeString::indexOf
; Function compile flags: /Odtp /RTCsu /ZI
;	COMDAT ?indexOf@UnicodeString@icu_56@@QBEHABV12@@Z
_TEXT	SEGMENT
_this$ = -8						; size = 4
_text$ = 8						; size = 4
?indexOf@UnicodeString@icu_56@@QBEHABV12@@Z PROC	; icu_56::UnicodeString::indexOf, COMDAT
; _this$ = ecx
; Line 4083
	push	ebp
	mov	ebp, esp
	sub	esp, 204				; 000000ccH
	push	ebx
	push	esi
	push	edi
	push	ecx
	lea	edi, DWORD PTR [ebp-204]
	mov	ecx, 51					; 00000033H
	mov	eax, -858993460				; ccccccccH
	rep stosd
	pop	ecx
	mov	DWORD PTR _this$[ebp], ecx
	mov	ecx, DWORD PTR _this$[ebp]
	call	?length@UnicodeString@icu_56@@QBEHXZ	; icu_56::UnicodeString::length
	push	eax
	push	0
	mov	ecx, DWORD PTR _text$[ebp]
	call	?length@UnicodeString@icu_56@@QBEHXZ	; icu_56::UnicodeString::length
	push	eax
	push	0
	mov	eax, DWORD PTR _text$[ebp]
	push	eax
	mov	ecx, DWORD PTR _this$[ebp]
	call	?indexOf@UnicodeString@icu_56@@QBEHABV12@HHHH@Z ; icu_56::UnicodeString::indexOf
	pop	edi
	pop	esi
	pop	ebx
	add	esp, 204				; 000000ccH
	cmp	ebp, esp
	call	__RTC_CheckEsp
	mov	esp, ebp
	pop	ebp
	ret	4
?indexOf@UnicodeString@icu_56@@QBEHABV12@@Z ENDP	; icu_56::UnicodeString::indexOf
_TEXT	ENDS
PUBLIC	?indexOf@UnicodeString@icu_56@@QBEHABV12@H@Z	; icu_56::UnicodeString::indexOf
; Function compile flags: /Odtp /RTCsu /ZI
;	COMDAT ?indexOf@UnicodeString@icu_56@@QBEHABV12@H@Z
_TEXT	SEGMENT
_this$ = -8						; size = 4
_text$ = 8						; size = 4
_start$ = 12						; size = 4
?indexOf@UnicodeString@icu_56@@QBEHABV12@H@Z PROC	; icu_56::UnicodeString::indexOf, COMDAT
; _this$ = ecx
; Line 4087
	push	ebp
	mov	ebp, esp
	sub	esp, 204				; 000000ccH
	push	ebx
	push	esi
	push	edi
	push	ecx
	lea	edi, DWORD PTR [ebp-204]
	mov	ecx, 51					; 00000033H
	mov	eax, -858993460				; ccccccccH
	rep stosd
	pop	ecx
	mov	DWORD PTR _this$[ebp], ecx
; Line 4088
	lea	eax, DWORD PTR _start$[ebp]
	push	eax
	mov	ecx, DWORD PTR _this$[ebp]
	call	?pinIndex@UnicodeString@icu_56@@ABEXAAH@Z ; icu_56::UnicodeString::pinIndex
; Line 4089
	mov	ecx, DWORD PTR _this$[ebp]
	call	?length@UnicodeString@icu_56@@QBEHXZ	; icu_56::UnicodeString::length
	sub	eax, DWORD PTR _start$[ebp]
	push	eax
	mov	eax, DWORD PTR _start$[ebp]
	push	eax
	mov	ecx, DWORD PTR _text$[ebp]
	call	?length@UnicodeString@icu_56@@QBEHXZ	; icu_56::UnicodeString::length
	push	eax
	push	0
	mov	ecx, DWORD PTR _text$[ebp]
	push	ecx
	mov	ecx, DWORD PTR _this$[ebp]
	call	?indexOf@UnicodeString@icu_56@@QBEHABV12@HHHH@Z ; icu_56::UnicodeString::indexOf
; Line 4090
	pop	edi
	pop	esi
	pop	ebx
	add	esp, 204				; 000000ccH
	cmp	ebp, esp
	call	__RTC_CheckEsp
	mov	esp, ebp
	pop	ebp
	ret	8
?indexOf@UnicodeString@icu_56@@QBEHABV12@H@Z ENDP	; icu_56::UnicodeString::indexOf
_TEXT	ENDS
PUBLIC	?indexOf@UnicodeString@icu_56@@QBEHABV12@HH@Z	; icu_56::UnicodeString::indexOf
; Function compile flags: /Odtp /RTCsu /ZI
;	COMDAT ?indexOf@UnicodeString@icu_56@@QBEHABV12@HH@Z
_TEXT	SEGMENT
_this$ = -8						; size = 4
_text$ = 8						; size = 4
_start$ = 12						; size = 4
__length$ = 16						; size = 4
?indexOf@UnicodeString@icu_56@@QBEHABV12@HH@Z PROC	; icu_56::UnicodeString::indexOf, COMDAT
; _this$ = ecx
; Line 4096
	push	ebp
	mov	ebp, esp
	sub	esp, 204				; 000000ccH
	push	ebx
	push	esi
	push	edi
	push	ecx
	lea	edi, DWORD PTR [ebp-204]
	mov	ecx, 51					; 00000033H
	mov	eax, -858993460				; ccccccccH
	rep stosd
	pop	ecx
	mov	DWORD PTR _this$[ebp], ecx
	mov	eax, DWORD PTR __length$[ebp]
	push	eax
	mov	ecx, DWORD PTR _start$[ebp]
	push	ecx
	mov	ecx, DWORD PTR _text$[ebp]
	call	?length@UnicodeString@icu_56@@QBEHXZ	; icu_56::UnicodeString::length
	push	eax
	push	0
	mov	edx, DWORD PTR _text$[ebp]
	push	edx
	mov	ecx, DWORD PTR _this$[ebp]
	call	?indexOf@UnicodeString@icu_56@@QBEHABV12@HHHH@Z ; icu_56::UnicodeString::indexOf
	pop	edi
	pop	esi
	pop	ebx
	add	esp, 204				; 000000ccH
	cmp	ebp, esp
	call	__RTC_CheckEsp
	mov	esp, ebp
	pop	ebp
	ret	12					; 0000000cH
?indexOf@UnicodeString@icu_56@@QBEHABV12@HH@Z ENDP	; icu_56::UnicodeString::indexOf
_TEXT	ENDS
PUBLIC	?indexOf@UnicodeString@icu_56@@QBEHPB_WHH@Z	; icu_56::UnicodeString::indexOf
; Function compile flags: /Odtp /RTCsu /ZI
;	COMDAT ?indexOf@UnicodeString@icu_56@@QBEHPB_WHH@Z
_TEXT	SEGMENT
_this$ = -8						; size = 4
_srcChars$ = 8						; size = 4
_srcLength$ = 12					; size = 4
_start$ = 16						; size = 4
?indexOf@UnicodeString@icu_56@@QBEHPB_WHH@Z PROC	; icu_56::UnicodeString::indexOf, COMDAT
; _this$ = ecx
; Line 4101
	push	ebp
	mov	ebp, esp
	sub	esp, 204				; 000000ccH
	push	ebx
	push	esi
	push	edi
	push	ecx
	lea	edi, DWORD PTR [ebp-204]
	mov	ecx, 51					; 00000033H
	mov	eax, -858993460				; ccccccccH
	rep stosd
	pop	ecx
	mov	DWORD PTR _this$[ebp], ecx
; Line 4102
	lea	eax, DWORD PTR _start$[ebp]
	push	eax
	mov	ecx, DWORD PTR _this$[ebp]
	call	?pinIndex@UnicodeString@icu_56@@ABEXAAH@Z ; icu_56::UnicodeString::pinIndex
; Line 4103
	mov	ecx, DWORD PTR _this$[ebp]
	call	?length@UnicodeString@icu_56@@QBEHXZ	; icu_56::UnicodeString::length
	sub	eax, DWORD PTR _start$[ebp]
	push	eax
	mov	eax, DWORD PTR _start$[ebp]
	push	eax
	mov	ecx, DWORD PTR _srcLength$[ebp]
	push	ecx
	push	0
	mov	edx, DWORD PTR _srcChars$[ebp]
	push	edx
	mov	ecx, DWORD PTR _this$[ebp]
	call	?indexOf@UnicodeString@icu_56@@QBEHPB_WHHHH@Z ; icu_56::UnicodeString::indexOf
; Line 4104
	pop	edi
	pop	esi
	pop	ebx
	add	esp, 204				; 000000ccH
	cmp	ebp, esp
	call	__RTC_CheckEsp
	mov	esp, ebp
	pop	ebp
	ret	12					; 0000000cH
?indexOf@UnicodeString@icu_56@@QBEHPB_WHH@Z ENDP	; icu_56::UnicodeString::indexOf
_TEXT	ENDS
PUBLIC	?indexOf@UnicodeString@icu_56@@QBEHPB_WHHH@Z	; icu_56::UnicodeString::indexOf
; Function compile flags: /Odtp /RTCsu /ZI
;	COMDAT ?indexOf@UnicodeString@icu_56@@QBEHPB_WHHH@Z
_TEXT	SEGMENT
_this$ = -8						; size = 4
_srcChars$ = 8						; size = 4
_srcLength$ = 12					; size = 4
_start$ = 16						; size = 4
__length$ = 20						; size = 4
?indexOf@UnicodeString@icu_56@@QBEHPB_WHHH@Z PROC	; icu_56::UnicodeString::indexOf, COMDAT
; _this$ = ecx
; Line 4111
	push	ebp
	mov	ebp, esp
	sub	esp, 204				; 000000ccH
	push	ebx
	push	esi
	push	edi
	push	ecx
	lea	edi, DWORD PTR [ebp-204]
	mov	ecx, 51					; 00000033H
	mov	eax, -858993460				; ccccccccH
	rep stosd
	pop	ecx
	mov	DWORD PTR _this$[ebp], ecx
	mov	eax, DWORD PTR __length$[ebp]
	push	eax
	mov	ecx, DWORD PTR _start$[ebp]
	push	ecx
	mov	edx, DWORD PTR _srcLength$[ebp]
	push	edx
	push	0
	mov	eax, DWORD PTR _srcChars$[ebp]
	push	eax
	mov	ecx, DWORD PTR _this$[ebp]
	call	?indexOf@UnicodeString@icu_56@@QBEHPB_WHHHH@Z ; icu_56::UnicodeString::indexOf
	pop	edi
	pop	esi
	pop	ebx
	add	esp, 204				; 000000ccH
	cmp	ebp, esp
	call	__RTC_CheckEsp
	mov	esp, ebp
	pop	ebp
	ret	16					; 00000010H
?indexOf@UnicodeString@icu_56@@QBEHPB_WHHH@Z ENDP	; icu_56::UnicodeString::indexOf
_TEXT	ENDS
PUBLIC	?indexOf@UnicodeString@icu_56@@QBEH_WHH@Z	; icu_56::UnicodeString::indexOf
EXTRN	?doIndexOf@UnicodeString@icu_56@@ABEH_WHH@Z:PROC ; icu_56::UnicodeString::doIndexOf
; Function compile flags: /Odtp /RTCsu /ZI
;	COMDAT ?indexOf@UnicodeString@icu_56@@QBEH_WHH@Z
_TEXT	SEGMENT
_this$ = -8						; size = 4
_c$ = 8							; size = 2
_start$ = 12						; size = 4
__length$ = 16						; size = 4
?indexOf@UnicodeString@icu_56@@QBEH_WHH@Z PROC		; icu_56::UnicodeString::indexOf, COMDAT
; _this$ = ecx
; Line 4117
	push	ebp
	mov	ebp, esp
	sub	esp, 204				; 000000ccH
	push	ebx
	push	esi
	push	edi
	push	ecx
	lea	edi, DWORD PTR [ebp-204]
	mov	ecx, 51					; 00000033H
	mov	eax, -858993460				; ccccccccH
	rep stosd
	pop	ecx
	mov	DWORD PTR _this$[ebp], ecx
	mov	eax, DWORD PTR __length$[ebp]
	push	eax
	mov	ecx, DWORD PTR _start$[ebp]
	push	ecx
	movzx	edx, WORD PTR _c$[ebp]
	push	edx
	mov	ecx, DWORD PTR _this$[ebp]
	call	?doIndexOf@UnicodeString@icu_56@@ABEH_WHH@Z ; icu_56::UnicodeString::doIndexOf
	pop	edi
	pop	esi
	pop	ebx
	add	esp, 204				; 000000ccH
	cmp	ebp, esp
	call	__RTC_CheckEsp
	mov	esp, ebp
	pop	ebp
	ret	12					; 0000000cH
?indexOf@UnicodeString@icu_56@@QBEH_WHH@Z ENDP		; icu_56::UnicodeString::indexOf
_TEXT	ENDS
PUBLIC	?indexOf@UnicodeString@icu_56@@QBEHHHH@Z	; icu_56::UnicodeString::indexOf
EXTRN	?doIndexOf@UnicodeString@icu_56@@ABEHHHH@Z:PROC	; icu_56::UnicodeString::doIndexOf
; Function compile flags: /Odtp /RTCsu /ZI
;	COMDAT ?indexOf@UnicodeString@icu_56@@QBEHHHH@Z
_TEXT	SEGMENT
_this$ = -8						; size = 4
_c$ = 8							; size = 4
_start$ = 12						; size = 4
__length$ = 16						; size = 4
?indexOf@UnicodeString@icu_56@@QBEHHHH@Z PROC		; icu_56::UnicodeString::indexOf, COMDAT
; _this$ = ecx
; Line 4123
	push	ebp
	mov	ebp, esp
	sub	esp, 204				; 000000ccH
	push	ebx
	push	esi
	push	edi
	push	ecx
	lea	edi, DWORD PTR [ebp-204]
	mov	ecx, 51					; 00000033H
	mov	eax, -858993460				; ccccccccH
	rep stosd
	pop	ecx
	mov	DWORD PTR _this$[ebp], ecx
	mov	eax, DWORD PTR __length$[ebp]
	push	eax
	mov	ecx, DWORD PTR _start$[ebp]
	push	ecx
	mov	edx, DWORD PTR _c$[ebp]
	push	edx
	mov	ecx, DWORD PTR _this$[ebp]
	call	?doIndexOf@UnicodeString@icu_56@@ABEHHHH@Z ; icu_56::UnicodeString::doIndexOf
	pop	edi
	pop	esi
	pop	ebx
	add	esp, 204				; 000000ccH
	cmp	ebp, esp
	call	__RTC_CheckEsp
	mov	esp, ebp
	pop	ebp
	ret	12					; 0000000cH
?indexOf@UnicodeString@icu_56@@QBEHHHH@Z ENDP		; icu_56::UnicodeString::indexOf
_TEXT	ENDS
PUBLIC	?indexOf@UnicodeString@icu_56@@QBEH_W@Z		; icu_56::UnicodeString::indexOf
; Function compile flags: /Odtp /RTCsu /ZI
;	COMDAT ?indexOf@UnicodeString@icu_56@@QBEH_W@Z
_TEXT	SEGMENT
_this$ = -8						; size = 4
_c$ = 8							; size = 2
?indexOf@UnicodeString@icu_56@@QBEH_W@Z PROC		; icu_56::UnicodeString::indexOf, COMDAT
; _this$ = ecx
; Line 4127
	push	ebp
	mov	ebp, esp
	sub	esp, 204				; 000000ccH
	push	ebx
	push	esi
	push	edi
	push	ecx
	lea	edi, DWORD PTR [ebp-204]
	mov	ecx, 51					; 00000033H
	mov	eax, -858993460				; ccccccccH
	rep stosd
	pop	ecx
	mov	DWORD PTR _this$[ebp], ecx
	mov	ecx, DWORD PTR _this$[ebp]
	call	?length@UnicodeString@icu_56@@QBEHXZ	; icu_56::UnicodeString::length
	push	eax
	push	0
	movzx	eax, WORD PTR _c$[ebp]
	push	eax
	mov	ecx, DWORD PTR _this$[ebp]
	call	?doIndexOf@UnicodeString@icu_56@@ABEH_WHH@Z ; icu_56::UnicodeString::doIndexOf
	pop	edi
	pop	esi
	pop	ebx
	add	esp, 204				; 000000ccH
	cmp	ebp, esp
	call	__RTC_CheckEsp
	mov	esp, ebp
	pop	ebp
	ret	4
?indexOf@UnicodeString@icu_56@@QBEH_W@Z ENDP		; icu_56::UnicodeString::indexOf
_TEXT	ENDS
PUBLIC	?indexOf@UnicodeString@icu_56@@QBEHH@Z		; icu_56::UnicodeString::indexOf
; Function compile flags: /Odtp /RTCsu /ZI
;	COMDAT ?indexOf@UnicodeString@icu_56@@QBEHH@Z
_TEXT	SEGMENT
_this$ = -8						; size = 4
_c$ = 8							; size = 4
?indexOf@UnicodeString@icu_56@@QBEHH@Z PROC		; icu_56::UnicodeString::indexOf, COMDAT
; _this$ = ecx
; Line 4131
	push	ebp
	mov	ebp, esp
	sub	esp, 204				; 000000ccH
	push	ebx
	push	esi
	push	edi
	push	ecx
	lea	edi, DWORD PTR [ebp-204]
	mov	ecx, 51					; 00000033H
	mov	eax, -858993460				; ccccccccH
	rep stosd
	pop	ecx
	mov	DWORD PTR _this$[ebp], ecx
	mov	ecx, DWORD PTR _this$[ebp]
	call	?length@UnicodeString@icu_56@@QBEHXZ	; icu_56::UnicodeString::length
	push	eax
	push	0
	mov	eax, DWORD PTR _c$[ebp]
	push	eax
	mov	ecx, DWORD PTR _this$[ebp]
	call	?indexOf@UnicodeString@icu_56@@QBEHHHH@Z ; icu_56::UnicodeString::indexOf
	pop	edi
	pop	esi
	pop	ebx
	add	esp, 204				; 000000ccH
	cmp	ebp, esp
	call	__RTC_CheckEsp
	mov	esp, ebp
	pop	ebp
	ret	4
?indexOf@UnicodeString@icu_56@@QBEHH@Z ENDP		; icu_56::UnicodeString::indexOf
_TEXT	ENDS
PUBLIC	?indexOf@UnicodeString@icu_56@@QBEH_WH@Z	; icu_56::UnicodeString::indexOf
; Function compile flags: /Odtp /RTCsu /ZI
;	COMDAT ?indexOf@UnicodeString@icu_56@@QBEH_WH@Z
_TEXT	SEGMENT
_this$ = -8						; size = 4
_c$ = 8							; size = 2
_start$ = 12						; size = 4
?indexOf@UnicodeString@icu_56@@QBEH_WH@Z PROC		; icu_56::UnicodeString::indexOf, COMDAT
; _this$ = ecx
; Line 4135
	push	ebp
	mov	ebp, esp
	sub	esp, 204				; 000000ccH
	push	ebx
	push	esi
	push	edi
	push	ecx
	lea	edi, DWORD PTR [ebp-204]
	mov	ecx, 51					; 00000033H
	mov	eax, -858993460				; ccccccccH
	rep stosd
	pop	ecx
	mov	DWORD PTR _this$[ebp], ecx
; Line 4136
	lea	eax, DWORD PTR _start$[ebp]
	push	eax
	mov	ecx, DWORD PTR _this$[ebp]
	call	?pinIndex@UnicodeString@icu_56@@ABEXAAH@Z ; icu_56::UnicodeString::pinIndex
; Line 4137
	mov	ecx, DWORD PTR _this$[ebp]
	call	?length@UnicodeString@icu_56@@QBEHXZ	; icu_56::UnicodeString::length
	sub	eax, DWORD PTR _start$[ebp]
	push	eax
	mov	eax, DWORD PTR _start$[ebp]
	push	eax
	movzx	ecx, WORD PTR _c$[ebp]
	push	ecx
	mov	ecx, DWORD PTR _this$[ebp]
	call	?doIndexOf@UnicodeString@icu_56@@ABEH_WHH@Z ; icu_56::UnicodeString::doIndexOf
; Line 4138
	pop	edi
	pop	esi
	pop	ebx
	add	esp, 204				; 000000ccH
	cmp	ebp, esp
	call	__RTC_CheckEsp
	mov	esp, ebp
	pop	ebp
	ret	8
?indexOf@UnicodeString@icu_56@@QBEH_WH@Z ENDP		; icu_56::UnicodeString::indexOf
_TEXT	ENDS
PUBLIC	?indexOf@UnicodeString@icu_56@@QBEHHH@Z		; icu_56::UnicodeString::indexOf
; Function compile flags: /Odtp /RTCsu /ZI
;	COMDAT ?indexOf@UnicodeString@icu_56@@QBEHHH@Z
_TEXT	SEGMENT
_this$ = -8						; size = 4
_c$ = 8							; size = 4
_start$ = 12						; size = 4
?indexOf@UnicodeString@icu_56@@QBEHHH@Z PROC		; icu_56::UnicodeString::indexOf, COMDAT
; _this$ = ecx
; Line 4142
	push	ebp
	mov	ebp, esp
	sub	esp, 204				; 000000ccH
	push	ebx
	push	esi
	push	edi
	push	ecx
	lea	edi, DWORD PTR [ebp-204]
	mov	ecx, 51					; 00000033H
	mov	eax, -858993460				; ccccccccH
	rep stosd
	pop	ecx
	mov	DWORD PTR _this$[ebp], ecx
; Line 4143
	lea	eax, DWORD PTR _start$[ebp]
	push	eax
	mov	ecx, DWORD PTR _this$[ebp]
	call	?pinIndex@UnicodeString@icu_56@@ABEXAAH@Z ; icu_56::UnicodeString::pinIndex
; Line 4144
	mov	ecx, DWORD PTR _this$[ebp]
	call	?length@UnicodeString@icu_56@@QBEHXZ	; icu_56::UnicodeString::length
	sub	eax, DWORD PTR _start$[ebp]
	push	eax
	mov	eax, DWORD PTR _start$[ebp]
	push	eax
	mov	ecx, DWORD PTR _c$[ebp]
	push	ecx
	mov	ecx, DWORD PTR _this$[ebp]
	call	?indexOf@UnicodeString@icu_56@@QBEHHHH@Z ; icu_56::UnicodeString::indexOf
; Line 4145
	pop	edi
	pop	esi
	pop	ebx
	add	esp, 204				; 000000ccH
	cmp	ebp, esp
	call	__RTC_CheckEsp
	mov	esp, ebp
	pop	ebp
	ret	8
?indexOf@UnicodeString@icu_56@@QBEHHH@Z ENDP		; icu_56::UnicodeString::indexOf
_TEXT	ENDS
PUBLIC	?lastIndexOf@UnicodeString@icu_56@@QBEHPB_WHHH@Z ; icu_56::UnicodeString::lastIndexOf
EXTRN	?lastIndexOf@UnicodeString@icu_56@@QBEHPB_WHHHH@Z:PROC ; icu_56::UnicodeString::lastIndexOf
; Function compile flags: /Odtp /RTCsu /ZI
;	COMDAT ?lastIndexOf@UnicodeString@icu_56@@QBEHPB_WHHH@Z
_TEXT	SEGMENT
_this$ = -8						; size = 4
_srcChars$ = 8						; size = 4
_srcLength$ = 12					; size = 4
_start$ = 16						; size = 4
__length$ = 20						; size = 4
?lastIndexOf@UnicodeString@icu_56@@QBEHPB_WHHH@Z PROC	; icu_56::UnicodeString::lastIndexOf, COMDAT
; _this$ = ecx
; Line 4152
	push	ebp
	mov	ebp, esp
	sub	esp, 204				; 000000ccH
	push	ebx
	push	esi
	push	edi
	push	ecx
	lea	edi, DWORD PTR [ebp-204]
	mov	ecx, 51					; 00000033H
	mov	eax, -858993460				; ccccccccH
	rep stosd
	pop	ecx
	mov	DWORD PTR _this$[ebp], ecx
	mov	eax, DWORD PTR __length$[ebp]
	push	eax
	mov	ecx, DWORD PTR _start$[ebp]
	push	ecx
	mov	edx, DWORD PTR _srcLength$[ebp]
	push	edx
	push	0
	mov	eax, DWORD PTR _srcChars$[ebp]
	push	eax
	mov	ecx, DWORD PTR _this$[ebp]
	call	?lastIndexOf@UnicodeString@icu_56@@QBEHPB_WHHHH@Z ; icu_56::UnicodeString::lastIndexOf
	pop	edi
	pop	esi
	pop	ebx
	add	esp, 204				; 000000ccH
	cmp	ebp, esp
	call	__RTC_CheckEsp
	mov	esp, ebp
	pop	ebp
	ret	16					; 00000010H
?lastIndexOf@UnicodeString@icu_56@@QBEHPB_WHHH@Z ENDP	; icu_56::UnicodeString::lastIndexOf
_TEXT	ENDS
PUBLIC	?lastIndexOf@UnicodeString@icu_56@@QBEHPB_WHH@Z	; icu_56::UnicodeString::lastIndexOf
; Function compile flags: /Odtp /RTCsu /ZI
;	COMDAT ?lastIndexOf@UnicodeString@icu_56@@QBEHPB_WHH@Z
_TEXT	SEGMENT
_this$ = -8						; size = 4
_srcChars$ = 8						; size = 4
_srcLength$ = 12					; size = 4
_start$ = 16						; size = 4
?lastIndexOf@UnicodeString@icu_56@@QBEHPB_WHH@Z PROC	; icu_56::UnicodeString::lastIndexOf, COMDAT
; _this$ = ecx
; Line 4157
	push	ebp
	mov	ebp, esp
	sub	esp, 204				; 000000ccH
	push	ebx
	push	esi
	push	edi
	push	ecx
	lea	edi, DWORD PTR [ebp-204]
	mov	ecx, 51					; 00000033H
	mov	eax, -858993460				; ccccccccH
	rep stosd
	pop	ecx
	mov	DWORD PTR _this$[ebp], ecx
; Line 4158
	lea	eax, DWORD PTR _start$[ebp]
	push	eax
	mov	ecx, DWORD PTR _this$[ebp]
	call	?pinIndex@UnicodeString@icu_56@@ABEXAAH@Z ; icu_56::UnicodeString::pinIndex
; Line 4159
	mov	ecx, DWORD PTR _this$[ebp]
	call	?length@UnicodeString@icu_56@@QBEHXZ	; icu_56::UnicodeString::length
	sub	eax, DWORD PTR _start$[ebp]
	push	eax
	mov	eax, DWORD PTR _start$[ebp]
	push	eax
	mov	ecx, DWORD PTR _srcLength$[ebp]
	push	ecx
	push	0
	mov	edx, DWORD PTR _srcChars$[ebp]
	push	edx
	mov	ecx, DWORD PTR _this$[ebp]
	call	?lastIndexOf@UnicodeString@icu_56@@QBEHPB_WHHHH@Z ; icu_56::UnicodeString::lastIndexOf
; Line 4160
	pop	edi
	pop	esi
	pop	ebx
	add	esp, 204				; 000000ccH
	cmp	ebp, esp
	call	__RTC_CheckEsp
	mov	esp, ebp
	pop	ebp
	ret	12					; 0000000cH
?lastIndexOf@UnicodeString@icu_56@@QBEHPB_WHH@Z ENDP	; icu_56::UnicodeString::lastIndexOf
_TEXT	ENDS
PUBLIC	?lastIndexOf@UnicodeString@icu_56@@QBEHABV12@HHHH@Z ; icu_56::UnicodeString::lastIndexOf
; Function compile flags: /Odtp /RTCsu /ZI
;	COMDAT ?lastIndexOf@UnicodeString@icu_56@@QBEHABV12@HHHH@Z
_TEXT	SEGMENT
_this$ = -8						; size = 4
_srcText$ = 8						; size = 4
_srcStart$ = 12						; size = 4
_srcLength$ = 16					; size = 4
_start$ = 20						; size = 4
__length$ = 24						; size = 4
?lastIndexOf@UnicodeString@icu_56@@QBEHABV12@HHHH@Z PROC ; icu_56::UnicodeString::lastIndexOf, COMDAT
; _this$ = ecx
; Line 4168
	push	ebp
	mov	ebp, esp
	sub	esp, 204				; 000000ccH
	push	ebx
	push	esi
	push	edi
	push	ecx
	lea	edi, DWORD PTR [ebp-204]
	mov	ecx, 51					; 00000033H
	mov	eax, -858993460				; ccccccccH
	rep stosd
	pop	ecx
	mov	DWORD PTR _this$[ebp], ecx
; Line 4169
	mov	ecx, DWORD PTR _srcText$[ebp]
	call	?isBogus@UnicodeString@icu_56@@QBECXZ	; icu_56::UnicodeString::isBogus
	movsx	eax, al
	test	eax, eax
	jne	SHORT $LN2@lastIndexO
; Line 4170
	lea	eax, DWORD PTR _srcLength$[ebp]
	push	eax
	lea	ecx, DWORD PTR _srcStart$[ebp]
	push	ecx
	mov	ecx, DWORD PTR _srcText$[ebp]
	call	?pinIndices@UnicodeString@icu_56@@ABEXAAH0@Z ; icu_56::UnicodeString::pinIndices
; Line 4171
	cmp	DWORD PTR _srcLength$[ebp], 0
	jle	SHORT $LN2@lastIndexO
; Line 4172
	mov	eax, DWORD PTR __length$[ebp]
	push	eax
	mov	ecx, DWORD PTR _start$[ebp]
	push	ecx
	mov	edx, DWORD PTR _srcLength$[ebp]
	push	edx
	mov	eax, DWORD PTR _srcStart$[ebp]
	push	eax
	mov	ecx, DWORD PTR _srcText$[ebp]
	call	?getArrayStart@UnicodeString@icu_56@@ABEPB_WXZ ; icu_56::UnicodeString::getArrayStart
	push	eax
	mov	ecx, DWORD PTR _this$[ebp]
	call	?lastIndexOf@UnicodeString@icu_56@@QBEHPB_WHHHH@Z ; icu_56::UnicodeString::lastIndexOf
	jmp	SHORT $LN3@lastIndexO
$LN2@lastIndexO:
; Line 4175
	or	eax, -1
$LN3@lastIndexO:
; Line 4176
	pop	edi
	pop	esi
	pop	ebx
	add	esp, 204				; 000000ccH
	cmp	ebp, esp
	call	__RTC_CheckEsp
	mov	esp, ebp
	pop	ebp
	ret	20					; 00000014H
?lastIndexOf@UnicodeString@icu_56@@QBEHABV12@HHHH@Z ENDP ; icu_56::UnicodeString::lastIndexOf
_TEXT	ENDS
PUBLIC	?lastIndexOf@UnicodeString@icu_56@@QBEHABV12@HH@Z ; icu_56::UnicodeString::lastIndexOf
; Function compile flags: /Odtp /RTCsu /ZI
;	COMDAT ?lastIndexOf@UnicodeString@icu_56@@QBEHABV12@HH@Z
_TEXT	SEGMENT
_this$ = -8						; size = 4
_text$ = 8						; size = 4
_start$ = 12						; size = 4
__length$ = 16						; size = 4
?lastIndexOf@UnicodeString@icu_56@@QBEHABV12@HH@Z PROC	; icu_56::UnicodeString::lastIndexOf, COMDAT
; _this$ = ecx
; Line 4182
	push	ebp
	mov	ebp, esp
	sub	esp, 204				; 000000ccH
	push	ebx
	push	esi
	push	edi
	push	ecx
	lea	edi, DWORD PTR [ebp-204]
	mov	ecx, 51					; 00000033H
	mov	eax, -858993460				; ccccccccH
	rep stosd
	pop	ecx
	mov	DWORD PTR _this$[ebp], ecx
	mov	eax, DWORD PTR __length$[ebp]
	push	eax
	mov	ecx, DWORD PTR _start$[ebp]
	push	ecx
	mov	ecx, DWORD PTR _text$[ebp]
	call	?length@UnicodeString@icu_56@@QBEHXZ	; icu_56::UnicodeString::length
	push	eax
	push	0
	mov	edx, DWORD PTR _text$[ebp]
	push	edx
	mov	ecx, DWORD PTR _this$[ebp]
	call	?lastIndexOf@UnicodeString@icu_56@@QBEHABV12@HHHH@Z ; icu_56::UnicodeString::lastIndexOf
	pop	edi
	pop	esi
	pop	ebx
	add	esp, 204				; 000000ccH
	cmp	ebp, esp
	call	__RTC_CheckEsp
	mov	esp, ebp
	pop	ebp
	ret	12					; 0000000cH
?lastIndexOf@UnicodeString@icu_56@@QBEHABV12@HH@Z ENDP	; icu_56::UnicodeString::lastIndexOf
_TEXT	ENDS
PUBLIC	?lastIndexOf@UnicodeString@icu_56@@QBEHABV12@H@Z ; icu_56::UnicodeString::lastIndexOf
; Function compile flags: /Odtp /RTCsu /ZI
;	COMDAT ?lastIndexOf@UnicodeString@icu_56@@QBEHABV12@H@Z
_TEXT	SEGMENT
_this$ = -8						; size = 4
_text$ = 8						; size = 4
_start$ = 12						; size = 4
?lastIndexOf@UnicodeString@icu_56@@QBEHABV12@H@Z PROC	; icu_56::UnicodeString::lastIndexOf, COMDAT
; _this$ = ecx
; Line 4186
	push	ebp
	mov	ebp, esp
	sub	esp, 204				; 000000ccH
	push	ebx
	push	esi
	push	edi
	push	ecx
	lea	edi, DWORD PTR [ebp-204]
	mov	ecx, 51					; 00000033H
	mov	eax, -858993460				; ccccccccH
	rep stosd
	pop	ecx
	mov	DWORD PTR _this$[ebp], ecx
; Line 4187
	lea	eax, DWORD PTR _start$[ebp]
	push	eax
	mov	ecx, DWORD PTR _this$[ebp]
	call	?pinIndex@UnicodeString@icu_56@@ABEXAAH@Z ; icu_56::UnicodeString::pinIndex
; Line 4188
	mov	ecx, DWORD PTR _this$[ebp]
	call	?length@UnicodeString@icu_56@@QBEHXZ	; icu_56::UnicodeString::length
	sub	eax, DWORD PTR _start$[ebp]
	push	eax
	mov	eax, DWORD PTR _start$[ebp]
	push	eax
	mov	ecx, DWORD PTR _text$[ebp]
	call	?length@UnicodeString@icu_56@@QBEHXZ	; icu_56::UnicodeString::length
	push	eax
	push	0
	mov	ecx, DWORD PTR _text$[ebp]
	push	ecx
	mov	ecx, DWORD PTR _this$[ebp]
	call	?lastIndexOf@UnicodeString@icu_56@@QBEHABV12@HHHH@Z ; icu_56::UnicodeString::lastIndexOf
; Line 4189
	pop	edi
	pop	esi
	pop	ebx
	add	esp, 204				; 000000ccH
	cmp	ebp, esp
	call	__RTC_CheckEsp
	mov	esp, ebp
	pop	ebp
	ret	8
?lastIndexOf@UnicodeString@icu_56@@QBEHABV12@H@Z ENDP	; icu_56::UnicodeString::lastIndexOf
_TEXT	ENDS
PUBLIC	?lastIndexOf@UnicodeString@icu_56@@QBEHABV12@@Z	; icu_56::UnicodeString::lastIndexOf
; Function compile flags: /Odtp /RTCsu /ZI
;	COMDAT ?lastIndexOf@UnicodeString@icu_56@@QBEHABV12@@Z
_TEXT	SEGMENT
_this$ = -8						; size = 4
_text$ = 8						; size = 4
?lastIndexOf@UnicodeString@icu_56@@QBEHABV12@@Z PROC	; icu_56::UnicodeString::lastIndexOf, COMDAT
; _this$ = ecx
; Line 4193
	push	ebp
	mov	ebp, esp
	sub	esp, 204				; 000000ccH
	push	ebx
	push	esi
	push	edi
	push	ecx
	lea	edi, DWORD PTR [ebp-204]
	mov	ecx, 51					; 00000033H
	mov	eax, -858993460				; ccccccccH
	rep stosd
	pop	ecx
	mov	DWORD PTR _this$[ebp], ecx
	mov	ecx, DWORD PTR _this$[ebp]
	call	?length@UnicodeString@icu_56@@QBEHXZ	; icu_56::UnicodeString::length
	push	eax
	push	0
	mov	ecx, DWORD PTR _text$[ebp]
	call	?length@UnicodeString@icu_56@@QBEHXZ	; icu_56::UnicodeString::length
	push	eax
	push	0
	mov	eax, DWORD PTR _text$[ebp]
	push	eax
	mov	ecx, DWORD PTR _this$[ebp]
	call	?lastIndexOf@UnicodeString@icu_56@@QBEHABV12@HHHH@Z ; icu_56::UnicodeString::lastIndexOf
	pop	edi
	pop	esi
	pop	ebx
	add	esp, 204				; 000000ccH
	cmp	ebp, esp
	call	__RTC_CheckEsp
	mov	esp, ebp
	pop	ebp
	ret	4
?lastIndexOf@UnicodeString@icu_56@@QBEHABV12@@Z ENDP	; icu_56::UnicodeString::lastIndexOf
_TEXT	ENDS
PUBLIC	?lastIndexOf@UnicodeString@icu_56@@QBEH_WHH@Z	; icu_56::UnicodeString::lastIndexOf
EXTRN	?doLastIndexOf@UnicodeString@icu_56@@ABEH_WHH@Z:PROC ; icu_56::UnicodeString::doLastIndexOf
; Function compile flags: /Odtp /RTCsu /ZI
;	COMDAT ?lastIndexOf@UnicodeString@icu_56@@QBEH_WHH@Z
_TEXT	SEGMENT
_this$ = -8						; size = 4
_c$ = 8							; size = 2
_start$ = 12						; size = 4
__length$ = 16						; size = 4
?lastIndexOf@UnicodeString@icu_56@@QBEH_WHH@Z PROC	; icu_56::UnicodeString::lastIndexOf, COMDAT
; _this$ = ecx
; Line 4199
	push	ebp
	mov	ebp, esp
	sub	esp, 204				; 000000ccH
	push	ebx
	push	esi
	push	edi
	push	ecx
	lea	edi, DWORD PTR [ebp-204]
	mov	ecx, 51					; 00000033H
	mov	eax, -858993460				; ccccccccH
	rep stosd
	pop	ecx
	mov	DWORD PTR _this$[ebp], ecx
	mov	eax, DWORD PTR __length$[ebp]
	push	eax
	mov	ecx, DWORD PTR _start$[ebp]
	push	ecx
	movzx	edx, WORD PTR _c$[ebp]
	push	edx
	mov	ecx, DWORD PTR _this$[ebp]
	call	?doLastIndexOf@UnicodeString@icu_56@@ABEH_WHH@Z ; icu_56::UnicodeString::doLastIndexOf
	pop	edi
	pop	esi
	pop	ebx
	add	esp, 204				; 000000ccH
	cmp	ebp, esp
	call	__RTC_CheckEsp
	mov	esp, ebp
	pop	ebp
	ret	12					; 0000000cH
?lastIndexOf@UnicodeString@icu_56@@QBEH_WHH@Z ENDP	; icu_56::UnicodeString::lastIndexOf
_TEXT	ENDS
PUBLIC	?lastIndexOf@UnicodeString@icu_56@@QBEHHHH@Z	; icu_56::UnicodeString::lastIndexOf
EXTRN	?doLastIndexOf@UnicodeString@icu_56@@ABEHHHH@Z:PROC ; icu_56::UnicodeString::doLastIndexOf
; Function compile flags: /Odtp /RTCsu /ZI
;	COMDAT ?lastIndexOf@UnicodeString@icu_56@@QBEHHHH@Z
_TEXT	SEGMENT
_this$ = -8						; size = 4
_c$ = 8							; size = 4
_start$ = 12						; size = 4
__length$ = 16						; size = 4
?lastIndexOf@UnicodeString@icu_56@@QBEHHHH@Z PROC	; icu_56::UnicodeString::lastIndexOf, COMDAT
; _this$ = ecx
; Line 4204
	push	ebp
	mov	ebp, esp
	sub	esp, 204				; 000000ccH
	push	ebx
	push	esi
	push	edi
	push	ecx
	lea	edi, DWORD PTR [ebp-204]
	mov	ecx, 51					; 00000033H
	mov	eax, -858993460				; ccccccccH
	rep stosd
	pop	ecx
	mov	DWORD PTR _this$[ebp], ecx
; Line 4205
	mov	eax, DWORD PTR __length$[ebp]
	push	eax
	mov	ecx, DWORD PTR _start$[ebp]
	push	ecx
	mov	edx, DWORD PTR _c$[ebp]
	push	edx
	mov	ecx, DWORD PTR _this$[ebp]
	call	?doLastIndexOf@UnicodeString@icu_56@@ABEHHHH@Z ; icu_56::UnicodeString::doLastIndexOf
; Line 4206
	pop	edi
	pop	esi
	pop	ebx
	add	esp, 204				; 000000ccH
	cmp	ebp, esp
	call	__RTC_CheckEsp
	mov	esp, ebp
	pop	ebp
	ret	12					; 0000000cH
?lastIndexOf@UnicodeString@icu_56@@QBEHHHH@Z ENDP	; icu_56::UnicodeString::lastIndexOf
_TEXT	ENDS
PUBLIC	?lastIndexOf@UnicodeString@icu_56@@QBEH_W@Z	; icu_56::UnicodeString::lastIndexOf
; Function compile flags: /Odtp /RTCsu /ZI
;	COMDAT ?lastIndexOf@UnicodeString@icu_56@@QBEH_W@Z
_TEXT	SEGMENT
_this$ = -8						; size = 4
_c$ = 8							; size = 2
?lastIndexOf@UnicodeString@icu_56@@QBEH_W@Z PROC	; icu_56::UnicodeString::lastIndexOf, COMDAT
; _this$ = ecx
; Line 4210
	push	ebp
	mov	ebp, esp
	sub	esp, 204				; 000000ccH
	push	ebx
	push	esi
	push	edi
	push	ecx
	lea	edi, DWORD PTR [ebp-204]
	mov	ecx, 51					; 00000033H
	mov	eax, -858993460				; ccccccccH
	rep stosd
	pop	ecx
	mov	DWORD PTR _this$[ebp], ecx
	mov	ecx, DWORD PTR _this$[ebp]
	call	?length@UnicodeString@icu_56@@QBEHXZ	; icu_56::UnicodeString::length
	push	eax
	push	0
	movzx	eax, WORD PTR _c$[ebp]
	push	eax
	mov	ecx, DWORD PTR _this$[ebp]
	call	?doLastIndexOf@UnicodeString@icu_56@@ABEH_WHH@Z ; icu_56::UnicodeString::doLastIndexOf
	pop	edi
	pop	esi
	pop	ebx
	add	esp, 204				; 000000ccH
	cmp	ebp, esp
	call	__RTC_CheckEsp
	mov	esp, ebp
	pop	ebp
	ret	4
?lastIndexOf@UnicodeString@icu_56@@QBEH_W@Z ENDP	; icu_56::UnicodeString::lastIndexOf
_TEXT	ENDS
PUBLIC	?lastIndexOf@UnicodeString@icu_56@@QBEHH@Z	; icu_56::UnicodeString::lastIndexOf
; Function compile flags: /Odtp /RTCsu /ZI
;	COMDAT ?lastIndexOf@UnicodeString@icu_56@@QBEHH@Z
_TEXT	SEGMENT
_this$ = -8						; size = 4
_c$ = 8							; size = 4
?lastIndexOf@UnicodeString@icu_56@@QBEHH@Z PROC		; icu_56::UnicodeString::lastIndexOf, COMDAT
; _this$ = ecx
; Line 4213
	push	ebp
	mov	ebp, esp
	sub	esp, 204				; 000000ccH
	push	ebx
	push	esi
	push	edi
	push	ecx
	lea	edi, DWORD PTR [ebp-204]
	mov	ecx, 51					; 00000033H
	mov	eax, -858993460				; ccccccccH
	rep stosd
	pop	ecx
	mov	DWORD PTR _this$[ebp], ecx
; Line 4214
	mov	ecx, DWORD PTR _this$[ebp]
	call	?length@UnicodeString@icu_56@@QBEHXZ	; icu_56::UnicodeString::length
	push	eax
	push	0
	mov	eax, DWORD PTR _c$[ebp]
	push	eax
	mov	ecx, DWORD PTR _this$[ebp]
	call	?lastIndexOf@UnicodeString@icu_56@@QBEHHHH@Z ; icu_56::UnicodeString::lastIndexOf
; Line 4215
	pop	edi
	pop	esi
	pop	ebx
	add	esp, 204				; 000000ccH
	cmp	ebp, esp
	call	__RTC_CheckEsp
	mov	esp, ebp
	pop	ebp
	ret	4
?lastIndexOf@UnicodeString@icu_56@@QBEHH@Z ENDP		; icu_56::UnicodeString::lastIndexOf
_TEXT	ENDS
PUBLIC	?lastIndexOf@UnicodeString@icu_56@@QBEH_WH@Z	; icu_56::UnicodeString::lastIndexOf
; Function compile flags: /Odtp /RTCsu /ZI
;	COMDAT ?lastIndexOf@UnicodeString@icu_56@@QBEH_WH@Z
_TEXT	SEGMENT
_this$ = -8						; size = 4
_c$ = 8							; size = 2
_start$ = 12						; size = 4
?lastIndexOf@UnicodeString@icu_56@@QBEH_WH@Z PROC	; icu_56::UnicodeString::lastIndexOf, COMDAT
; _this$ = ecx
; Line 4219
	push	ebp
	mov	ebp, esp
	sub	esp, 204				; 000000ccH
	push	ebx
	push	esi
	push	edi
	push	ecx
	lea	edi, DWORD PTR [ebp-204]
	mov	ecx, 51					; 00000033H
	mov	eax, -858993460				; ccccccccH
	rep stosd
	pop	ecx
	mov	DWORD PTR _this$[ebp], ecx
; Line 4220
	lea	eax, DWORD PTR _start$[ebp]
	push	eax
	mov	ecx, DWORD PTR _this$[ebp]
	call	?pinIndex@UnicodeString@icu_56@@ABEXAAH@Z ; icu_56::UnicodeString::pinIndex
; Line 4221
	mov	ecx, DWORD PTR _this$[ebp]
	call	?length@UnicodeString@icu_56@@QBEHXZ	; icu_56::UnicodeString::length
	sub	eax, DWORD PTR _start$[ebp]
	push	eax
	mov	eax, DWORD PTR _start$[ebp]
	push	eax
	movzx	ecx, WORD PTR _c$[ebp]
	push	ecx
	mov	ecx, DWORD PTR _this$[ebp]
	call	?doLastIndexOf@UnicodeString@icu_56@@ABEH_WHH@Z ; icu_56::UnicodeString::doLastIndexOf
; Line 4222
	pop	edi
	pop	esi
	pop	ebx
	add	esp, 204				; 000000ccH
	cmp	ebp, esp
	call	__RTC_CheckEsp
	mov	esp, ebp
	pop	ebp
	ret	8
?lastIndexOf@UnicodeString@icu_56@@QBEH_WH@Z ENDP	; icu_56::UnicodeString::lastIndexOf
_TEXT	ENDS
PUBLIC	?lastIndexOf@UnicodeString@icu_56@@QBEHHH@Z	; icu_56::UnicodeString::lastIndexOf
; Function compile flags: /Odtp /RTCsu /ZI
;	COMDAT ?lastIndexOf@UnicodeString@icu_56@@QBEHHH@Z
_TEXT	SEGMENT
_this$ = -8						; size = 4
_c$ = 8							; size = 4
_start$ = 12						; size = 4
?lastIndexOf@UnicodeString@icu_56@@QBEHHH@Z PROC	; icu_56::UnicodeString::lastIndexOf, COMDAT
; _this$ = ecx
; Line 4226
	push	ebp
	mov	ebp, esp
	sub	esp, 204				; 000000ccH
	push	ebx
	push	esi
	push	edi
	push	ecx
	lea	edi, DWORD PTR [ebp-204]
	mov	ecx, 51					; 00000033H
	mov	eax, -858993460				; ccccccccH
	rep stosd
	pop	ecx
	mov	DWORD PTR _this$[ebp], ecx
; Line 4227
	lea	eax, DWORD PTR _start$[ebp]
	push	eax
	mov	ecx, DWORD PTR _this$[ebp]
	call	?pinIndex@UnicodeString@icu_56@@ABEXAAH@Z ; icu_56::UnicodeString::pinIndex
; Line 4228
	mov	ecx, DWORD PTR _this$[ebp]
	call	?length@UnicodeString@icu_56@@QBEHXZ	; icu_56::UnicodeString::length
	sub	eax, DWORD PTR _start$[ebp]
	push	eax
	mov	eax, DWORD PTR _start$[ebp]
	push	eax
	mov	ecx, DWORD PTR _c$[ebp]
	push	ecx
	mov	ecx, DWORD PTR _this$[ebp]
	call	?lastIndexOf@UnicodeString@icu_56@@QBEHHHH@Z ; icu_56::UnicodeString::lastIndexOf
; Line 4229
	pop	edi
	pop	esi
	pop	ebx
	add	esp, 204				; 000000ccH
	cmp	ebp, esp
	call	__RTC_CheckEsp
	mov	esp, ebp
	pop	ebp
	ret	8
?lastIndexOf@UnicodeString@icu_56@@QBEHHH@Z ENDP	; icu_56::UnicodeString::lastIndexOf
_TEXT	ENDS
PUBLIC	?startsWith@UnicodeString@icu_56@@QBECABV12@@Z	; icu_56::UnicodeString::startsWith
; Function compile flags: /Odtp /RTCsu /ZI
;	COMDAT ?startsWith@UnicodeString@icu_56@@QBECABV12@@Z
_TEXT	SEGMENT
_this$ = -8						; size = 4
_text$ = 8						; size = 4
?startsWith@UnicodeString@icu_56@@QBECABV12@@Z PROC	; icu_56::UnicodeString::startsWith, COMDAT
; _this$ = ecx
; Line 4233
	push	ebp
	mov	ebp, esp
	sub	esp, 204				; 000000ccH
	push	ebx
	push	esi
	push	edi
	push	ecx
	lea	edi, DWORD PTR [ebp-204]
	mov	ecx, 51					; 00000033H
	mov	eax, -858993460				; ccccccccH
	rep stosd
	pop	ecx
	mov	DWORD PTR _this$[ebp], ecx
	mov	ecx, DWORD PTR _text$[ebp]
	call	?length@UnicodeString@icu_56@@QBEHXZ	; icu_56::UnicodeString::length
	push	eax
	push	0
	mov	eax, DWORD PTR _text$[ebp]
	push	eax
	mov	ecx, DWORD PTR _text$[ebp]
	call	?length@UnicodeString@icu_56@@QBEHXZ	; icu_56::UnicodeString::length
	push	eax
	push	0
	mov	ecx, DWORD PTR _this$[ebp]
	call	?compare@UnicodeString@icu_56@@QBECHHABV12@HH@Z ; icu_56::UnicodeString::compare
	movsx	ecx, al
	test	ecx, ecx
	sete	al
	pop	edi
	pop	esi
	pop	ebx
	add	esp, 204				; 000000ccH
	cmp	ebp, esp
	call	__RTC_CheckEsp
	mov	esp, ebp
	pop	ebp
	ret	4
?startsWith@UnicodeString@icu_56@@QBECABV12@@Z ENDP	; icu_56::UnicodeString::startsWith
_TEXT	ENDS
PUBLIC	?startsWith@UnicodeString@icu_56@@QBECABV12@HH@Z ; icu_56::UnicodeString::startsWith
; Function compile flags: /Odtp /RTCsu /ZI
;	COMDAT ?startsWith@UnicodeString@icu_56@@QBECABV12@HH@Z
_TEXT	SEGMENT
_this$ = -8						; size = 4
_srcText$ = 8						; size = 4
_srcStart$ = 12						; size = 4
_srcLength$ = 16					; size = 4
?startsWith@UnicodeString@icu_56@@QBECABV12@HH@Z PROC	; icu_56::UnicodeString::startsWith, COMDAT
; _this$ = ecx
; Line 4239
	push	ebp
	mov	ebp, esp
	sub	esp, 204				; 000000ccH
	push	ebx
	push	esi
	push	edi
	push	ecx
	lea	edi, DWORD PTR [ebp-204]
	mov	ecx, 51					; 00000033H
	mov	eax, -858993460				; ccccccccH
	rep stosd
	pop	ecx
	mov	DWORD PTR _this$[ebp], ecx
	mov	eax, DWORD PTR _srcLength$[ebp]
	push	eax
	mov	ecx, DWORD PTR _srcStart$[ebp]
	push	ecx
	mov	edx, DWORD PTR _srcText$[ebp]
	push	edx
	mov	eax, DWORD PTR _srcLength$[ebp]
	push	eax
	push	0
	mov	ecx, DWORD PTR _this$[ebp]
	call	?doCompare@UnicodeString@icu_56@@ABECHHABV12@HH@Z ; icu_56::UnicodeString::doCompare
	movsx	ecx, al
	test	ecx, ecx
	sete	al
	pop	edi
	pop	esi
	pop	ebx
	add	esp, 204				; 000000ccH
	cmp	ebp, esp
	call	__RTC_CheckEsp
	mov	esp, ebp
	pop	ebp
	ret	12					; 0000000cH
?startsWith@UnicodeString@icu_56@@QBECABV12@HH@Z ENDP	; icu_56::UnicodeString::startsWith
_TEXT	ENDS
PUBLIC	?startsWith@UnicodeString@icu_56@@QBECPB_WH@Z	; icu_56::UnicodeString::startsWith
EXTRN	_u_strlen_56:PROC
; Function compile flags: /Odtp /RTCsu /ZI
;	COMDAT ?startsWith@UnicodeString@icu_56@@QBECPB_WH@Z
_TEXT	SEGMENT
_this$ = -8						; size = 4
_srcChars$ = 8						; size = 4
_srcLength$ = 12					; size = 4
?startsWith@UnicodeString@icu_56@@QBECPB_WH@Z PROC	; icu_56::UnicodeString::startsWith, COMDAT
; _this$ = ecx
; Line 4242
	push	ebp
	mov	ebp, esp
	sub	esp, 204				; 000000ccH
	push	ebx
	push	esi
	push	edi
	push	ecx
	lea	edi, DWORD PTR [ebp-204]
	mov	ecx, 51					; 00000033H
	mov	eax, -858993460				; ccccccccH
	rep stosd
	pop	ecx
	mov	DWORD PTR _this$[ebp], ecx
; Line 4243
	cmp	DWORD PTR _srcLength$[ebp], 0
	jge	SHORT $LN1@startsWith
; Line 4244
	mov	eax, DWORD PTR _srcChars$[ebp]
	push	eax
	call	_u_strlen_56
	add	esp, 4
	mov	DWORD PTR _srcLength$[ebp], eax
$LN1@startsWith:
; Line 4246
	mov	eax, DWORD PTR _srcLength$[ebp]
	push	eax
	push	0
	mov	ecx, DWORD PTR _srcChars$[ebp]
	push	ecx
	mov	edx, DWORD PTR _srcLength$[ebp]
	push	edx
	push	0
	mov	ecx, DWORD PTR _this$[ebp]
	call	?doCompare@UnicodeString@icu_56@@ABECHHPB_WHH@Z ; icu_56::UnicodeString::doCompare
	movsx	eax, al
	test	eax, eax
	sete	al
; Line 4247
	pop	edi
	pop	esi
	pop	ebx
	add	esp, 204				; 000000ccH
	cmp	ebp, esp
	call	__RTC_CheckEsp
	mov	esp, ebp
	pop	ebp
	ret	8
?startsWith@UnicodeString@icu_56@@QBECPB_WH@Z ENDP	; icu_56::UnicodeString::startsWith
_TEXT	ENDS
PUBLIC	?startsWith@UnicodeString@icu_56@@QBECPB_WHH@Z	; icu_56::UnicodeString::startsWith
; Function compile flags: /Odtp /RTCsu /ZI
;	COMDAT ?startsWith@UnicodeString@icu_56@@QBECPB_WHH@Z
_TEXT	SEGMENT
_this$ = -8						; size = 4
_srcChars$ = 8						; size = 4
_srcStart$ = 12						; size = 4
_srcLength$ = 16					; size = 4
?startsWith@UnicodeString@icu_56@@QBECPB_WHH@Z PROC	; icu_56::UnicodeString::startsWith, COMDAT
; _this$ = ecx
; Line 4250
	push	ebp
	mov	ebp, esp
	sub	esp, 204				; 000000ccH
	push	ebx
	push	esi
	push	edi
	push	ecx
	lea	edi, DWORD PTR [ebp-204]
	mov	ecx, 51					; 00000033H
	mov	eax, -858993460				; ccccccccH
	rep stosd
	pop	ecx
	mov	DWORD PTR _this$[ebp], ecx
; Line 4251
	cmp	DWORD PTR _srcLength$[ebp], 0
	jge	SHORT $LN1@startsWith@2
; Line 4252
	mov	eax, DWORD PTR _srcChars$[ebp]
	push	eax
	call	_u_strlen_56
	add	esp, 4
	mov	DWORD PTR _srcLength$[ebp], eax
$LN1@startsWith@2:
; Line 4254
	mov	eax, DWORD PTR _srcLength$[ebp]
	push	eax
	mov	ecx, DWORD PTR _srcStart$[ebp]
	push	ecx
	mov	edx, DWORD PTR _srcChars$[ebp]
	push	edx
	mov	eax, DWORD PTR _srcLength$[ebp]
	push	eax
	push	0
	mov	ecx, DWORD PTR _this$[ebp]
	call	?doCompare@UnicodeString@icu_56@@ABECHHPB_WHH@Z ; icu_56::UnicodeString::doCompare
	movsx	ecx, al
	test	ecx, ecx
	sete	al
; Line 4255
	pop	edi
	pop	esi
	pop	ebx
	add	esp, 204				; 000000ccH
	cmp	ebp, esp
	call	__RTC_CheckEsp
	mov	esp, ebp
	pop	ebp
	ret	12					; 0000000cH
?startsWith@UnicodeString@icu_56@@QBECPB_WHH@Z ENDP	; icu_56::UnicodeString::startsWith
_TEXT	ENDS
PUBLIC	?endsWith@UnicodeString@icu_56@@QBECABV12@@Z	; icu_56::UnicodeString::endsWith
; Function compile flags: /Odtp /RTCsu /ZI
;	COMDAT ?endsWith@UnicodeString@icu_56@@QBECABV12@@Z
_TEXT	SEGMENT
_this$ = -8						; size = 4
_text$ = 8						; size = 4
?endsWith@UnicodeString@icu_56@@QBECABV12@@Z PROC	; icu_56::UnicodeString::endsWith, COMDAT
; _this$ = ecx
; Line 4259
	push	ebp
	mov	ebp, esp
	sub	esp, 204				; 000000ccH
	push	ebx
	push	esi
	push	edi
	push	ecx
	lea	edi, DWORD PTR [ebp-204]
	mov	ecx, 51					; 00000033H
	mov	eax, -858993460				; ccccccccH
	rep stosd
	pop	ecx
	mov	DWORD PTR _this$[ebp], ecx
; Line 4260
	mov	ecx, DWORD PTR _text$[ebp]
	call	?length@UnicodeString@icu_56@@QBEHXZ	; icu_56::UnicodeString::length
	push	eax
	push	0
	mov	eax, DWORD PTR _text$[ebp]
	push	eax
	mov	ecx, DWORD PTR _text$[ebp]
	call	?length@UnicodeString@icu_56@@QBEHXZ	; icu_56::UnicodeString::length
	push	eax
	mov	ecx, DWORD PTR _this$[ebp]
	call	?length@UnicodeString@icu_56@@QBEHXZ	; icu_56::UnicodeString::length
	mov	esi, eax
	mov	ecx, DWORD PTR _text$[ebp]
	call	?length@UnicodeString@icu_56@@QBEHXZ	; icu_56::UnicodeString::length
	sub	esi, eax
	push	esi
	mov	ecx, DWORD PTR _this$[ebp]
	call	?doCompare@UnicodeString@icu_56@@ABECHHABV12@HH@Z ; icu_56::UnicodeString::doCompare
	movsx	ecx, al
	test	ecx, ecx
	sete	al
	pop	edi
	pop	esi
	pop	ebx
	add	esp, 204				; 000000ccH
	cmp	ebp, esp
	call	__RTC_CheckEsp
	mov	esp, ebp
	pop	ebp
	ret	4
?endsWith@UnicodeString@icu_56@@QBECABV12@@Z ENDP	; icu_56::UnicodeString::endsWith
_TEXT	ENDS
PUBLIC	?endsWith@UnicodeString@icu_56@@QBECABV12@HH@Z	; icu_56::UnicodeString::endsWith
; Function compile flags: /Odtp /RTCsu /ZI
;	COMDAT ?endsWith@UnicodeString@icu_56@@QBECABV12@HH@Z
_TEXT	SEGMENT
_this$ = -8						; size = 4
_srcText$ = 8						; size = 4
_srcStart$ = 12						; size = 4
_srcLength$ = 16					; size = 4
?endsWith@UnicodeString@icu_56@@QBECABV12@HH@Z PROC	; icu_56::UnicodeString::endsWith, COMDAT
; _this$ = ecx
; Line 4265
	push	ebp
	mov	ebp, esp
	sub	esp, 204				; 000000ccH
	push	ebx
	push	esi
	push	edi
	push	ecx
	lea	edi, DWORD PTR [ebp-204]
	mov	ecx, 51					; 00000033H
	mov	eax, -858993460				; ccccccccH
	rep stosd
	pop	ecx
	mov	DWORD PTR _this$[ebp], ecx
; Line 4266
	lea	eax, DWORD PTR _srcLength$[ebp]
	push	eax
	lea	ecx, DWORD PTR _srcStart$[ebp]
	push	ecx
	mov	ecx, DWORD PTR _srcText$[ebp]
	call	?pinIndices@UnicodeString@icu_56@@ABEXAAH0@Z ; icu_56::UnicodeString::pinIndices
; Line 4268
	mov	eax, DWORD PTR _srcLength$[ebp]
	push	eax
	mov	ecx, DWORD PTR _srcStart$[ebp]
	push	ecx
	mov	edx, DWORD PTR _srcText$[ebp]
	push	edx
	mov	eax, DWORD PTR _srcLength$[ebp]
	push	eax
	mov	ecx, DWORD PTR _this$[ebp]
	call	?length@UnicodeString@icu_56@@QBEHXZ	; icu_56::UnicodeString::length
	sub	eax, DWORD PTR _srcLength$[ebp]
	push	eax
	mov	ecx, DWORD PTR _this$[ebp]
	call	?doCompare@UnicodeString@icu_56@@ABECHHABV12@HH@Z ; icu_56::UnicodeString::doCompare
	movsx	ecx, al
	test	ecx, ecx
	sete	al
; Line 4269
	pop	edi
	pop	esi
	pop	ebx
	add	esp, 204				; 000000ccH
	cmp	ebp, esp
	call	__RTC_CheckEsp
	mov	esp, ebp
	pop	ebp
	ret	12					; 0000000cH
?endsWith@UnicodeString@icu_56@@QBECABV12@HH@Z ENDP	; icu_56::UnicodeString::endsWith
_TEXT	ENDS
PUBLIC	?endsWith@UnicodeString@icu_56@@QBECPB_WH@Z	; icu_56::UnicodeString::endsWith
; Function compile flags: /Odtp /RTCsu /ZI
;	COMDAT ?endsWith@UnicodeString@icu_56@@QBECPB_WH@Z
_TEXT	SEGMENT
_this$ = -8						; size = 4
_srcChars$ = 8						; size = 4
_srcLength$ = 12					; size = 4
?endsWith@UnicodeString@icu_56@@QBECPB_WH@Z PROC	; icu_56::UnicodeString::endsWith, COMDAT
; _this$ = ecx
; Line 4273
	push	ebp
	mov	ebp, esp
	sub	esp, 204				; 000000ccH
	push	ebx
	push	esi
	push	edi
	push	ecx
	lea	edi, DWORD PTR [ebp-204]
	mov	ecx, 51					; 00000033H
	mov	eax, -858993460				; ccccccccH
	rep stosd
	pop	ecx
	mov	DWORD PTR _this$[ebp], ecx
; Line 4274
	cmp	DWORD PTR _srcLength$[ebp], 0
	jge	SHORT $LN1@endsWith
; Line 4275
	mov	eax, DWORD PTR _srcChars$[ebp]
	push	eax
	call	_u_strlen_56
	add	esp, 4
	mov	DWORD PTR _srcLength$[ebp], eax
$LN1@endsWith:
; Line 4278
	mov	eax, DWORD PTR _srcLength$[ebp]
	push	eax
	push	0
	mov	ecx, DWORD PTR _srcChars$[ebp]
	push	ecx
	mov	edx, DWORD PTR _srcLength$[ebp]
	push	edx
	mov	ecx, DWORD PTR _this$[ebp]
	call	?length@UnicodeString@icu_56@@QBEHXZ	; icu_56::UnicodeString::length
	sub	eax, DWORD PTR _srcLength$[ebp]
	push	eax
	mov	ecx, DWORD PTR _this$[ebp]
	call	?doCompare@UnicodeString@icu_56@@ABECHHPB_WHH@Z ; icu_56::UnicodeString::doCompare
	movsx	eax, al
	test	eax, eax
	sete	al
; Line 4279
	pop	edi
	pop	esi
	pop	ebx
	add	esp, 204				; 000000ccH
	cmp	ebp, esp
	call	__RTC_CheckEsp
	mov	esp, ebp
	pop	ebp
	ret	8
?endsWith@UnicodeString@icu_56@@QBECPB_WH@Z ENDP	; icu_56::UnicodeString::endsWith
_TEXT	ENDS
PUBLIC	?endsWith@UnicodeString@icu_56@@QBECPB_WHH@Z	; icu_56::UnicodeString::endsWith
; Function compile flags: /Odtp /RTCsu /ZI
;	COMDAT ?endsWith@UnicodeString@icu_56@@QBECPB_WHH@Z
_TEXT	SEGMENT
_this$ = -8						; size = 4
_srcChars$ = 8						; size = 4
_srcStart$ = 12						; size = 4
_srcLength$ = 16					; size = 4
?endsWith@UnicodeString@icu_56@@QBECPB_WHH@Z PROC	; icu_56::UnicodeString::endsWith, COMDAT
; _this$ = ecx
; Line 4284
	push	ebp
	mov	ebp, esp
	sub	esp, 204				; 000000ccH
	push	ebx
	push	esi
	push	edi
	push	ecx
	lea	edi, DWORD PTR [ebp-204]
	mov	ecx, 51					; 00000033H
	mov	eax, -858993460				; ccccccccH
	rep stosd
	pop	ecx
	mov	DWORD PTR _this$[ebp], ecx
; Line 4285
	cmp	DWORD PTR _srcLength$[ebp], 0
	jge	SHORT $LN1@endsWith@2
; Line 4286
	mov	eax, DWORD PTR _srcStart$[ebp]
	mov	ecx, DWORD PTR _srcChars$[ebp]
	lea	edx, DWORD PTR [ecx+eax*2]
	push	edx
	call	_u_strlen_56
	add	esp, 4
	mov	DWORD PTR _srcLength$[ebp], eax
$LN1@endsWith@2:
; Line 4289
	mov	eax, DWORD PTR _srcLength$[ebp]
	push	eax
	mov	ecx, DWORD PTR _srcStart$[ebp]
	push	ecx
	mov	edx, DWORD PTR _srcChars$[ebp]
	push	edx
	mov	eax, DWORD PTR _srcLength$[ebp]
	push	eax
	mov	ecx, DWORD PTR _this$[ebp]
	call	?length@UnicodeString@icu_56@@QBEHXZ	; icu_56::UnicodeString::length
	sub	eax, DWORD PTR _srcLength$[ebp]
	push	eax
	mov	ecx, DWORD PTR _this$[ebp]
	call	?doCompare@UnicodeString@icu_56@@ABECHHPB_WHH@Z ; icu_56::UnicodeString::doCompare
	movsx	ecx, al
	test	ecx, ecx
	sete	al
; Line 4290
	pop	edi
	pop	esi
	pop	ebx
	add	esp, 204				; 000000ccH
	cmp	ebp, esp
	call	__RTC_CheckEsp
	mov	esp, ebp
	pop	ebp
	ret	12					; 0000000cH
?endsWith@UnicodeString@icu_56@@QBECPB_WHH@Z ENDP	; icu_56::UnicodeString::endsWith
_TEXT	ENDS
PUBLIC	?replace@UnicodeString@icu_56@@QAEAAV12@HHABV12@@Z ; icu_56::UnicodeString::replace
EXTRN	?doReplace@UnicodeString@icu_56@@AAEAAV12@HHABV12@HH@Z:PROC ; icu_56::UnicodeString::doReplace
; Function compile flags: /Odtp /RTCsu /ZI
;	COMDAT ?replace@UnicodeString@icu_56@@QAEAAV12@HHABV12@@Z
_TEXT	SEGMENT
_this$ = -8						; size = 4
_start$ = 8						; size = 4
__length$ = 12						; size = 4
_srcText$ = 16						; size = 4
?replace@UnicodeString@icu_56@@QAEAAV12@HHABV12@@Z PROC	; icu_56::UnicodeString::replace, COMDAT
; _this$ = ecx
; Line 4299
	push	ebp
	mov	ebp, esp
	sub	esp, 204				; 000000ccH
	push	ebx
	push	esi
	push	edi
	push	ecx
	lea	edi, DWORD PTR [ebp-204]
	mov	ecx, 51					; 00000033H
	mov	eax, -858993460				; ccccccccH
	rep stosd
	pop	ecx
	mov	DWORD PTR _this$[ebp], ecx
	mov	ecx, DWORD PTR _srcText$[ebp]
	call	?length@UnicodeString@icu_56@@QBEHXZ	; icu_56::UnicodeString::length
	push	eax
	push	0
	mov	eax, DWORD PTR _srcText$[ebp]
	push	eax
	mov	ecx, DWORD PTR __length$[ebp]
	push	ecx
	mov	edx, DWORD PTR _start$[ebp]
	push	edx
	mov	ecx, DWORD PTR _this$[ebp]
	call	?doReplace@UnicodeString@icu_56@@AAEAAV12@HHABV12@HH@Z ; icu_56::UnicodeString::doReplace
	pop	edi
	pop	esi
	pop	ebx
	add	esp, 204				; 000000ccH
	cmp	ebp, esp
	call	__RTC_CheckEsp
	mov	esp, ebp
	pop	ebp
	ret	12					; 0000000cH
?replace@UnicodeString@icu_56@@QAEAAV12@HHABV12@@Z ENDP	; icu_56::UnicodeString::replace
_TEXT	ENDS
PUBLIC	?replace@UnicodeString@icu_56@@QAEAAV12@HHABV12@HH@Z ; icu_56::UnicodeString::replace
; Function compile flags: /Odtp /RTCsu /ZI
;	COMDAT ?replace@UnicodeString@icu_56@@QAEAAV12@HHABV12@HH@Z
_TEXT	SEGMENT
_this$ = -8						; size = 4
_start$ = 8						; size = 4
__length$ = 12						; size = 4
_srcText$ = 16						; size = 4
_srcStart$ = 20						; size = 4
_srcLength$ = 24					; size = 4
?replace@UnicodeString@icu_56@@QAEAAV12@HHABV12@HH@Z PROC ; icu_56::UnicodeString::replace, COMDAT
; _this$ = ecx
; Line 4307
	push	ebp
	mov	ebp, esp
	sub	esp, 204				; 000000ccH
	push	ebx
	push	esi
	push	edi
	push	ecx
	lea	edi, DWORD PTR [ebp-204]
	mov	ecx, 51					; 00000033H
	mov	eax, -858993460				; ccccccccH
	rep stosd
	pop	ecx
	mov	DWORD PTR _this$[ebp], ecx
	mov	eax, DWORD PTR _srcLength$[ebp]
	push	eax
	mov	ecx, DWORD PTR _srcStart$[ebp]
	push	ecx
	mov	edx, DWORD PTR _srcText$[ebp]
	push	edx
	mov	eax, DWORD PTR __length$[ebp]
	push	eax
	mov	ecx, DWORD PTR _start$[ebp]
	push	ecx
	mov	ecx, DWORD PTR _this$[ebp]
	call	?doReplace@UnicodeString@icu_56@@AAEAAV12@HHABV12@HH@Z ; icu_56::UnicodeString::doReplace
	pop	edi
	pop	esi
	pop	ebx
	add	esp, 204				; 000000ccH
	cmp	ebp, esp
	call	__RTC_CheckEsp
	mov	esp, ebp
	pop	ebp
	ret	20					; 00000014H
?replace@UnicodeString@icu_56@@QAEAAV12@HHABV12@HH@Z ENDP ; icu_56::UnicodeString::replace
_TEXT	ENDS
PUBLIC	?replace@UnicodeString@icu_56@@QAEAAV12@HHPB_WH@Z ; icu_56::UnicodeString::replace
EXTRN	?doReplace@UnicodeString@icu_56@@AAEAAV12@HHPB_WHH@Z:PROC ; icu_56::UnicodeString::doReplace
; Function compile flags: /Odtp /RTCsu /ZI
;	COMDAT ?replace@UnicodeString@icu_56@@QAEAAV12@HHPB_WH@Z
_TEXT	SEGMENT
_this$ = -8						; size = 4
_start$ = 8						; size = 4
__length$ = 12						; size = 4
_srcChars$ = 16						; size = 4
_srcLength$ = 20					; size = 4
?replace@UnicodeString@icu_56@@QAEAAV12@HHPB_WH@Z PROC	; icu_56::UnicodeString::replace, COMDAT
; _this$ = ecx
; Line 4314
	push	ebp
	mov	ebp, esp
	sub	esp, 204				; 000000ccH
	push	ebx
	push	esi
	push	edi
	push	ecx
	lea	edi, DWORD PTR [ebp-204]
	mov	ecx, 51					; 00000033H
	mov	eax, -858993460				; ccccccccH
	rep stosd
	pop	ecx
	mov	DWORD PTR _this$[ebp], ecx
	mov	eax, DWORD PTR _srcLength$[ebp]
	push	eax
	push	0
	mov	ecx, DWORD PTR _srcChars$[ebp]
	push	ecx
	mov	edx, DWORD PTR __length$[ebp]
	push	edx
	mov	eax, DWORD PTR _start$[ebp]
	push	eax
	mov	ecx, DWORD PTR _this$[ebp]
	call	?doReplace@UnicodeString@icu_56@@AAEAAV12@HHPB_WHH@Z ; icu_56::UnicodeString::doReplace
	pop	edi
	pop	esi
	pop	ebx
	add	esp, 204				; 000000ccH
	cmp	ebp, esp
	call	__RTC_CheckEsp
	mov	esp, ebp
	pop	ebp
	ret	16					; 00000010H
?replace@UnicodeString@icu_56@@QAEAAV12@HHPB_WH@Z ENDP	; icu_56::UnicodeString::replace
_TEXT	ENDS
PUBLIC	?replace@UnicodeString@icu_56@@QAEAAV12@HHPB_WHH@Z ; icu_56::UnicodeString::replace
; Function compile flags: /Odtp /RTCsu /ZI
;	COMDAT ?replace@UnicodeString@icu_56@@QAEAAV12@HHPB_WHH@Z
_TEXT	SEGMENT
_this$ = -8						; size = 4
_start$ = 8						; size = 4
__length$ = 12						; size = 4
_srcChars$ = 16						; size = 4
_srcStart$ = 20						; size = 4
_srcLength$ = 24					; size = 4
?replace@UnicodeString@icu_56@@QAEAAV12@HHPB_WHH@Z PROC	; icu_56::UnicodeString::replace, COMDAT
; _this$ = ecx
; Line 4322
	push	ebp
	mov	ebp, esp
	sub	esp, 204				; 000000ccH
	push	ebx
	push	esi
	push	edi
	push	ecx
	lea	edi, DWORD PTR [ebp-204]
	mov	ecx, 51					; 00000033H
	mov	eax, -858993460				; ccccccccH
	rep stosd
	pop	ecx
	mov	DWORD PTR _this$[ebp], ecx
	mov	eax, DWORD PTR _srcLength$[ebp]
	push	eax
	mov	ecx, DWORD PTR _srcStart$[ebp]
	push	ecx
	mov	edx, DWORD PTR _srcChars$[ebp]
	push	edx
	mov	eax, DWORD PTR __length$[ebp]
	push	eax
	mov	ecx, DWORD PTR _start$[ebp]
	push	ecx
	mov	ecx, DWORD PTR _this$[ebp]
	call	?doReplace@UnicodeString@icu_56@@AAEAAV12@HHPB_WHH@Z ; icu_56::UnicodeString::doReplace
	pop	edi
	pop	esi
	pop	ebx
	add	esp, 204				; 000000ccH
	cmp	ebp, esp
	call	__RTC_CheckEsp
	mov	esp, ebp
	pop	ebp
	ret	20					; 00000014H
?replace@UnicodeString@icu_56@@QAEAAV12@HHPB_WHH@Z ENDP	; icu_56::UnicodeString::replace
_TEXT	ENDS
PUBLIC	?replace@UnicodeString@icu_56@@QAEAAV12@HH_W@Z	; icu_56::UnicodeString::replace
; Function compile flags: /Odtp /RTCsu /ZI
;	COMDAT ?replace@UnicodeString@icu_56@@QAEAAV12@HH_W@Z
_TEXT	SEGMENT
_this$ = -8						; size = 4
_start$ = 8						; size = 4
__length$ = 12						; size = 4
_srcChar$ = 16						; size = 2
?replace@UnicodeString@icu_56@@QAEAAV12@HH_W@Z PROC	; icu_56::UnicodeString::replace, COMDAT
; _this$ = ecx
; Line 4328
	push	ebp
	mov	ebp, esp
	sub	esp, 204				; 000000ccH
	push	ebx
	push	esi
	push	edi
	push	ecx
	lea	edi, DWORD PTR [ebp-204]
	mov	ecx, 51					; 00000033H
	mov	eax, -858993460				; ccccccccH
	rep stosd
	pop	ecx
	mov	DWORD PTR _this$[ebp], ecx
	push	1
	push	0
	lea	eax, DWORD PTR _srcChar$[ebp]
	push	eax
	mov	ecx, DWORD PTR __length$[ebp]
	push	ecx
	mov	edx, DWORD PTR _start$[ebp]
	push	edx
	mov	ecx, DWORD PTR _this$[ebp]
	call	?doReplace@UnicodeString@icu_56@@AAEAAV12@HHPB_WHH@Z ; icu_56::UnicodeString::doReplace
	pop	edi
	pop	esi
	pop	ebx
	add	esp, 204				; 000000ccH
	cmp	ebp, esp
	call	__RTC_CheckEsp
	mov	esp, ebp
	pop	ebp
	ret	12					; 0000000cH
?replace@UnicodeString@icu_56@@QAEAAV12@HH_W@Z ENDP	; icu_56::UnicodeString::replace
_TEXT	ENDS
PUBLIC	?replaceBetween@UnicodeString@icu_56@@QAEAAV12@HHABV12@@Z ; icu_56::UnicodeString::replaceBetween
; Function compile flags: /Odtp /RTCsu /ZI
;	COMDAT ?replaceBetween@UnicodeString@icu_56@@QAEAAV12@HHABV12@@Z
_TEXT	SEGMENT
_this$ = -8						; size = 4
_start$ = 8						; size = 4
_limit$ = 12						; size = 4
_srcText$ = 16						; size = 4
?replaceBetween@UnicodeString@icu_56@@QAEAAV12@HHABV12@@Z PROC ; icu_56::UnicodeString::replaceBetween, COMDAT
; _this$ = ecx
; Line 4334
	push	ebp
	mov	ebp, esp
	sub	esp, 204				; 000000ccH
	push	ebx
	push	esi
	push	edi
	push	ecx
	lea	edi, DWORD PTR [ebp-204]
	mov	ecx, 51					; 00000033H
	mov	eax, -858993460				; ccccccccH
	rep stosd
	pop	ecx
	mov	DWORD PTR _this$[ebp], ecx
	mov	ecx, DWORD PTR _srcText$[ebp]
	call	?length@UnicodeString@icu_56@@QBEHXZ	; icu_56::UnicodeString::length
	push	eax
	push	0
	mov	eax, DWORD PTR _srcText$[ebp]
	push	eax
	mov	ecx, DWORD PTR _limit$[ebp]
	sub	ecx, DWORD PTR _start$[ebp]
	push	ecx
	mov	edx, DWORD PTR _start$[ebp]
	push	edx
	mov	ecx, DWORD PTR _this$[ebp]
	call	?doReplace@UnicodeString@icu_56@@AAEAAV12@HHABV12@HH@Z ; icu_56::UnicodeString::doReplace
	pop	edi
	pop	esi
	pop	ebx
	add	esp, 204				; 000000ccH
	cmp	ebp, esp
	call	__RTC_CheckEsp
	mov	esp, ebp
	pop	ebp
	ret	12					; 0000000cH
?replaceBetween@UnicodeString@icu_56@@QAEAAV12@HHABV12@@Z ENDP ; icu_56::UnicodeString::replaceBetween
_TEXT	ENDS
PUBLIC	?replaceBetween@UnicodeString@icu_56@@QAEAAV12@HHABV12@HH@Z ; icu_56::UnicodeString::replaceBetween
; Function compile flags: /Odtp /RTCsu /ZI
;	COMDAT ?replaceBetween@UnicodeString@icu_56@@QAEAAV12@HHABV12@HH@Z
_TEXT	SEGMENT
_this$ = -8						; size = 4
_start$ = 8						; size = 4
_limit$ = 12						; size = 4
_srcText$ = 16						; size = 4
_srcStart$ = 20						; size = 4
_srcLimit$ = 24						; size = 4
?replaceBetween@UnicodeString@icu_56@@QAEAAV12@HHABV12@HH@Z PROC ; icu_56::UnicodeString::replaceBetween, COMDAT
; _this$ = ecx
; Line 4342
	push	ebp
	mov	ebp, esp
	sub	esp, 204				; 000000ccH
	push	ebx
	push	esi
	push	edi
	push	ecx
	lea	edi, DWORD PTR [ebp-204]
	mov	ecx, 51					; 00000033H
	mov	eax, -858993460				; ccccccccH
	rep stosd
	pop	ecx
	mov	DWORD PTR _this$[ebp], ecx
	mov	eax, DWORD PTR _srcLimit$[ebp]
	sub	eax, DWORD PTR _srcStart$[ebp]
	push	eax
	mov	ecx, DWORD PTR _srcStart$[ebp]
	push	ecx
	mov	edx, DWORD PTR _srcText$[ebp]
	push	edx
	mov	eax, DWORD PTR _limit$[ebp]
	sub	eax, DWORD PTR _start$[ebp]
	push	eax
	mov	ecx, DWORD PTR _start$[ebp]
	push	ecx
	mov	ecx, DWORD PTR _this$[ebp]
	call	?doReplace@UnicodeString@icu_56@@AAEAAV12@HHABV12@HH@Z ; icu_56::UnicodeString::doReplace
	pop	edi
	pop	esi
	pop	ebx
	add	esp, 204				; 000000ccH
	cmp	ebp, esp
	call	__RTC_CheckEsp
	mov	esp, ebp
	pop	ebp
	ret	20					; 00000014H
?replaceBetween@UnicodeString@icu_56@@QAEAAV12@HHABV12@HH@Z ENDP ; icu_56::UnicodeString::replaceBetween
_TEXT	ENDS
PUBLIC	?findAndReplace@UnicodeString@icu_56@@QAEAAV12@ABV12@0@Z ; icu_56::UnicodeString::findAndReplace
EXTRN	?findAndReplace@UnicodeString@icu_56@@QAEAAV12@HHABV12@HH0HH@Z:PROC ; icu_56::UnicodeString::findAndReplace
; Function compile flags: /Odtp /RTCsu /ZI
;	COMDAT ?findAndReplace@UnicodeString@icu_56@@QAEAAV12@ABV12@0@Z
_TEXT	SEGMENT
_this$ = -8						; size = 4
_oldText$ = 8						; size = 4
_newText$ = 12						; size = 4
?findAndReplace@UnicodeString@icu_56@@QAEAAV12@ABV12@0@Z PROC ; icu_56::UnicodeString::findAndReplace, COMDAT
; _this$ = ecx
; Line 4347
	push	ebp
	mov	ebp, esp
	sub	esp, 204				; 000000ccH
	push	ebx
	push	esi
	push	edi
	push	ecx
	lea	edi, DWORD PTR [ebp-204]
	mov	ecx, 51					; 00000033H
	mov	eax, -858993460				; ccccccccH
	rep stosd
	pop	ecx
	mov	DWORD PTR _this$[ebp], ecx
; Line 4348
	mov	ecx, DWORD PTR _newText$[ebp]
	call	?length@UnicodeString@icu_56@@QBEHXZ	; icu_56::UnicodeString::length
	push	eax
	push	0
	mov	eax, DWORD PTR _newText$[ebp]
	push	eax
	mov	ecx, DWORD PTR _oldText$[ebp]
	call	?length@UnicodeString@icu_56@@QBEHXZ	; icu_56::UnicodeString::length
	push	eax
	push	0
	mov	ecx, DWORD PTR _oldText$[ebp]
	push	ecx
	mov	ecx, DWORD PTR _this$[ebp]
	call	?length@UnicodeString@icu_56@@QBEHXZ	; icu_56::UnicodeString::length
	push	eax
	push	0
	mov	ecx, DWORD PTR _this$[ebp]
	call	?findAndReplace@UnicodeString@icu_56@@QAEAAV12@HHABV12@HH0HH@Z ; icu_56::UnicodeString::findAndReplace
	pop	edi
	pop	esi
	pop	ebx
	add	esp, 204				; 000000ccH
	cmp	ebp, esp
	call	__RTC_CheckEsp
	mov	esp, ebp
	pop	ebp
	ret	8
?findAndReplace@UnicodeString@icu_56@@QAEAAV12@ABV12@0@Z ENDP ; icu_56::UnicodeString::findAndReplace
_TEXT	ENDS
PUBLIC	?findAndReplace@UnicodeString@icu_56@@QAEAAV12@HHABV12@0@Z ; icu_56::UnicodeString::findAndReplace
; Function compile flags: /Odtp /RTCsu /ZI
;	COMDAT ?findAndReplace@UnicodeString@icu_56@@QAEAAV12@HHABV12@0@Z
_TEXT	SEGMENT
_this$ = -8						; size = 4
_start$ = 8						; size = 4
__length$ = 12						; size = 4
_oldText$ = 16						; size = 4
_newText$ = 20						; size = 4
?findAndReplace@UnicodeString@icu_56@@QAEAAV12@HHABV12@0@Z PROC ; icu_56::UnicodeString::findAndReplace, COMDAT
; _this$ = ecx
; Line 4355
	push	ebp
	mov	ebp, esp
	sub	esp, 204				; 000000ccH
	push	ebx
	push	esi
	push	edi
	push	ecx
	lea	edi, DWORD PTR [ebp-204]
	mov	ecx, 51					; 00000033H
	mov	eax, -858993460				; ccccccccH
	rep stosd
	pop	ecx
	mov	DWORD PTR _this$[ebp], ecx
; Line 4356
	mov	ecx, DWORD PTR _newText$[ebp]
	call	?length@UnicodeString@icu_56@@QBEHXZ	; icu_56::UnicodeString::length
	push	eax
	push	0
	mov	eax, DWORD PTR _newText$[ebp]
	push	eax
	mov	ecx, DWORD PTR _oldText$[ebp]
	call	?length@UnicodeString@icu_56@@QBEHXZ	; icu_56::UnicodeString::length
	push	eax
	push	0
	mov	ecx, DWORD PTR _oldText$[ebp]
	push	ecx
	mov	edx, DWORD PTR __length$[ebp]
	push	edx
	mov	eax, DWORD PTR _start$[ebp]
	push	eax
	mov	ecx, DWORD PTR _this$[ebp]
	call	?findAndReplace@UnicodeString@icu_56@@QAEAAV12@HHABV12@HH0HH@Z ; icu_56::UnicodeString::findAndReplace
	pop	edi
	pop	esi
	pop	ebx
	add	esp, 204				; 000000ccH
	cmp	ebp, esp
	call	__RTC_CheckEsp
	mov	esp, ebp
	pop	ebp
	ret	16					; 00000010H
?findAndReplace@UnicodeString@icu_56@@QAEAAV12@HHABV12@0@Z ENDP ; icu_56::UnicodeString::findAndReplace
_TEXT	ENDS
PUBLIC	?doExtract@UnicodeString@icu_56@@ABEXHHAAV12@@Z	; icu_56::UnicodeString::doExtract
; Function compile flags: /Odtp /RTCsu /ZI
;	COMDAT ?doExtract@UnicodeString@icu_56@@ABEXHHAAV12@@Z
_TEXT	SEGMENT
_this$ = -8						; size = 4
_start$ = 8						; size = 4
__length$ = 12						; size = 4
_target$ = 16						; size = 4
?doExtract@UnicodeString@icu_56@@ABEXHHAAV12@@Z PROC	; icu_56::UnicodeString::doExtract, COMDAT
; _this$ = ecx
; Line 4365
	push	ebp
	mov	ebp, esp
	sub	esp, 204				; 000000ccH
	push	ebx
	push	esi
	push	edi
	push	ecx
	lea	edi, DWORD PTR [ebp-204]
	mov	ecx, 51					; 00000033H
	mov	eax, -858993460				; ccccccccH
	rep stosd
	pop	ecx
	mov	DWORD PTR _this$[ebp], ecx
	mov	eax, DWORD PTR __length$[ebp]
	push	eax
	mov	ecx, DWORD PTR _start$[ebp]
	push	ecx
	mov	edx, DWORD PTR _this$[ebp]
	push	edx
	mov	ecx, DWORD PTR _target$[ebp]
	call	?length@UnicodeString@icu_56@@QBEHXZ	; icu_56::UnicodeString::length
	push	eax
	push	0
	mov	ecx, DWORD PTR _target$[ebp]
	call	?replace@UnicodeString@icu_56@@QAEAAV12@HHABV12@HH@Z ; icu_56::UnicodeString::replace
	pop	edi
	pop	esi
	pop	ebx
	add	esp, 204				; 000000ccH
	cmp	ebp, esp
	call	__RTC_CheckEsp
	mov	esp, ebp
	pop	ebp
	ret	12					; 0000000cH
?doExtract@UnicodeString@icu_56@@ABEXHHAAV12@@Z ENDP	; icu_56::UnicodeString::doExtract
_TEXT	ENDS
PUBLIC	?extract@UnicodeString@icu_56@@QBEXHHPA_WH@Z	; icu_56::UnicodeString::extract
EXTRN	?doExtract@UnicodeString@icu_56@@ABEXHHPA_WH@Z:PROC ; icu_56::UnicodeString::doExtract
; Function compile flags: /Odtp /RTCsu /ZI
;	COMDAT ?extract@UnicodeString@icu_56@@QBEXHHPA_WH@Z
_TEXT	SEGMENT
_this$ = -8						; size = 4
_start$ = 8						; size = 4
__length$ = 12						; size = 4
_target$ = 16						; size = 4
_targetStart$ = 20					; size = 4
?extract@UnicodeString@icu_56@@QBEXHHPA_WH@Z PROC	; icu_56::UnicodeString::extract, COMDAT
; _this$ = ecx
; Line 4372
	push	ebp
	mov	ebp, esp
	sub	esp, 204				; 000000ccH
	push	ebx
	push	esi
	push	edi
	push	ecx
	lea	edi, DWORD PTR [ebp-204]
	mov	ecx, 51					; 00000033H
	mov	eax, -858993460				; ccccccccH
	rep stosd
	pop	ecx
	mov	DWORD PTR _this$[ebp], ecx
	mov	eax, DWORD PTR _targetStart$[ebp]
	push	eax
	mov	ecx, DWORD PTR _target$[ebp]
	push	ecx
	mov	edx, DWORD PTR __length$[ebp]
	push	edx
	mov	eax, DWORD PTR _start$[ebp]
	push	eax
	mov	ecx, DWORD PTR _this$[ebp]
	call	?doExtract@UnicodeString@icu_56@@ABEXHHPA_WH@Z ; icu_56::UnicodeString::doExtract
	pop	edi
	pop	esi
	pop	ebx
	add	esp, 204				; 000000ccH
	cmp	ebp, esp
	call	__RTC_CheckEsp
	mov	esp, ebp
	pop	ebp
	ret	16					; 00000010H
?extract@UnicodeString@icu_56@@QBEXHHPA_WH@Z ENDP	; icu_56::UnicodeString::extract
_TEXT	ENDS
PUBLIC	?extract@UnicodeString@icu_56@@QBEXHHAAV12@@Z	; icu_56::UnicodeString::extract
; Function compile flags: /Odtp /RTCsu /ZI
;	COMDAT ?extract@UnicodeString@icu_56@@QBEXHHAAV12@@Z
_TEXT	SEGMENT
_this$ = -8						; size = 4
_start$ = 8						; size = 4
__length$ = 12						; size = 4
_target$ = 16						; size = 4
?extract@UnicodeString@icu_56@@QBEXHHAAV12@@Z PROC	; icu_56::UnicodeString::extract, COMDAT
; _this$ = ecx
; Line 4378
	push	ebp
	mov	ebp, esp
	sub	esp, 204				; 000000ccH
	push	ebx
	push	esi
	push	edi
	push	ecx
	lea	edi, DWORD PTR [ebp-204]
	mov	ecx, 51					; 00000033H
	mov	eax, -858993460				; ccccccccH
	rep stosd
	pop	ecx
	mov	DWORD PTR _this$[ebp], ecx
	mov	eax, DWORD PTR _target$[ebp]
	push	eax
	mov	ecx, DWORD PTR __length$[ebp]
	push	ecx
	mov	edx, DWORD PTR _start$[ebp]
	push	edx
	mov	ecx, DWORD PTR _this$[ebp]
	call	?doExtract@UnicodeString@icu_56@@ABEXHHAAV12@@Z ; icu_56::UnicodeString::doExtract
	pop	edi
	pop	esi
	pop	ebx
	add	esp, 204				; 000000ccH
	cmp	ebp, esp
	call	__RTC_CheckEsp
	mov	esp, ebp
	pop	ebp
	ret	12					; 0000000cH
?extract@UnicodeString@icu_56@@QBEXHHAAV12@@Z ENDP	; icu_56::UnicodeString::extract
_TEXT	ENDS
PUBLIC	?extract@UnicodeString@icu_56@@QBEHHHPADPBD@Z	; icu_56::UnicodeString::extract
EXTRN	?extract@UnicodeString@icu_56@@QBEHHHPADIPBD@Z:PROC ; icu_56::UnicodeString::extract
; Function compile flags: /Odtp /RTCsu /ZI
;	COMDAT ?extract@UnicodeString@icu_56@@QBEHHHPADPBD@Z
_TEXT	SEGMENT
_this$ = -8						; size = 4
_start$ = 8						; size = 4
__length$ = 12						; size = 4
_dst$ = 16						; size = 4
_codepage$ = 20						; size = 4
?extract@UnicodeString@icu_56@@QBEHHHPADPBD@Z PROC	; icu_56::UnicodeString::extract, COMDAT
; _this$ = ecx
; Line 4388
	push	ebp
	mov	ebp, esp
	sub	esp, 204				; 000000ccH
	push	ebx
	push	esi
	push	edi
	push	ecx
	lea	edi, DWORD PTR [ebp-204]
	mov	ecx, 51					; 00000033H
	mov	eax, -858993460				; ccccccccH
	rep stosd
	pop	ecx
	mov	DWORD PTR _this$[ebp], ecx
; Line 4390
	mov	eax, DWORD PTR _codepage$[ebp]
	push	eax
	mov	ecx, DWORD PTR _dst$[ebp]
	neg	ecx
	sbb	ecx, ecx
	push	ecx
	mov	edx, DWORD PTR _dst$[ebp]
	push	edx
	mov	eax, DWORD PTR __length$[ebp]
	push	eax
	mov	ecx, DWORD PTR _start$[ebp]
	push	ecx
	mov	ecx, DWORD PTR _this$[ebp]
	call	?extract@UnicodeString@icu_56@@QBEHHHPADIPBD@Z ; icu_56::UnicodeString::extract
; Line 4391
	pop	edi
	pop	esi
	pop	ebx
	add	esp, 204				; 000000ccH
	cmp	ebp, esp
	call	__RTC_CheckEsp
	mov	esp, ebp
	pop	ebp
	ret	16					; 00000010H
?extract@UnicodeString@icu_56@@QBEHHHPADPBD@Z ENDP	; icu_56::UnicodeString::extract
_TEXT	ENDS
PUBLIC	?extractBetween@UnicodeString@icu_56@@QBEXHHPA_WH@Z ; icu_56::UnicodeString::extractBetween
; Function compile flags: /Odtp /RTCsu /ZI
;	COMDAT ?extractBetween@UnicodeString@icu_56@@QBEXHHPA_WH@Z
_TEXT	SEGMENT
_this$ = -8						; size = 4
_start$ = 8						; size = 4
_limit$ = 12						; size = 4
_dst$ = 16						; size = 4
_dstStart$ = 20						; size = 4
?extractBetween@UnicodeString@icu_56@@QBEXHHPA_WH@Z PROC ; icu_56::UnicodeString::extractBetween, COMDAT
; _this$ = ecx
; Line 4399
	push	ebp
	mov	ebp, esp
	sub	esp, 204				; 000000ccH
	push	ebx
	push	esi
	push	edi
	push	ecx
	lea	edi, DWORD PTR [ebp-204]
	mov	ecx, 51					; 00000033H
	mov	eax, -858993460				; ccccccccH
	rep stosd
	pop	ecx
	mov	DWORD PTR _this$[ebp], ecx
; Line 4400
	lea	eax, DWORD PTR _start$[ebp]
	push	eax
	mov	ecx, DWORD PTR _this$[ebp]
	call	?pinIndex@UnicodeString@icu_56@@ABEXAAH@Z ; icu_56::UnicodeString::pinIndex
; Line 4401
	lea	eax, DWORD PTR _limit$[ebp]
	push	eax
	mov	ecx, DWORD PTR _this$[ebp]
	call	?pinIndex@UnicodeString@icu_56@@ABEXAAH@Z ; icu_56::UnicodeString::pinIndex
; Line 4402
	mov	eax, DWORD PTR _dstStart$[ebp]
	push	eax
	mov	ecx, DWORD PTR _dst$[ebp]
	push	ecx
	mov	edx, DWORD PTR _limit$[ebp]
	sub	edx, DWORD PTR _start$[ebp]
	push	edx
	mov	eax, DWORD PTR _start$[ebp]
	push	eax
	mov	ecx, DWORD PTR _this$[ebp]
	call	?doExtract@UnicodeString@icu_56@@ABEXHHPA_WH@Z ; icu_56::UnicodeString::doExtract
; Line 4403
	pop	edi
	pop	esi
	pop	ebx
	add	esp, 204				; 000000ccH
	cmp	ebp, esp
	call	__RTC_CheckEsp
	mov	esp, ebp
	pop	ebp
	ret	16					; 00000010H
?extractBetween@UnicodeString@icu_56@@QBEXHHPA_WH@Z ENDP ; icu_56::UnicodeString::extractBetween
_TEXT	ENDS
PUBLIC	?tempSubStringBetween@UnicodeString@icu_56@@QBE?AV12@HH@Z ; icu_56::UnicodeString::tempSubStringBetween
EXTRN	?tempSubString@UnicodeString@icu_56@@QBE?AV12@HH@Z:PROC ; icu_56::UnicodeString::tempSubString
; Function compile flags: /Odtp /RTCsu /ZI
;	COMDAT ?tempSubStringBetween@UnicodeString@icu_56@@QBE?AV12@HH@Z
_TEXT	SEGMENT
$T82521 = -212						; size = 4
_this$ = -8						; size = 4
___$ReturnUdt$ = 8					; size = 4
_start$ = 12						; size = 4
_limit$ = 16						; size = 4
?tempSubStringBetween@UnicodeString@icu_56@@QBE?AV12@HH@Z PROC ; icu_56::UnicodeString::tempSubStringBetween, COMDAT
; _this$ = ecx
; Line 4406
	push	ebp
	mov	ebp, esp
	sub	esp, 216				; 000000d8H
	push	ebx
	push	esi
	push	edi
	push	ecx
	lea	edi, DWORD PTR [ebp-216]
	mov	ecx, 54					; 00000036H
	mov	eax, -858993460				; ccccccccH
	rep stosd
	pop	ecx
	mov	DWORD PTR _this$[ebp], ecx
	mov	DWORD PTR $T82521[ebp], 0
; Line 4407
	mov	eax, DWORD PTR _limit$[ebp]
	sub	eax, DWORD PTR _start$[ebp]
	push	eax
	mov	ecx, DWORD PTR _start$[ebp]
	push	ecx
	mov	edx, DWORD PTR ___$ReturnUdt$[ebp]
	push	edx
	mov	ecx, DWORD PTR _this$[ebp]
	call	?tempSubString@UnicodeString@icu_56@@QBE?AV12@HH@Z ; icu_56::UnicodeString::tempSubString
	mov	eax, DWORD PTR $T82521[ebp]
	or	eax, 1
	mov	DWORD PTR $T82521[ebp], eax
	mov	eax, DWORD PTR ___$ReturnUdt$[ebp]
; Line 4408
	pop	edi
	pop	esi
	pop	ebx
	add	esp, 216				; 000000d8H
	cmp	ebp, esp
	call	__RTC_CheckEsp
	mov	esp, ebp
	pop	ebp
	ret	12					; 0000000cH
?tempSubStringBetween@UnicodeString@icu_56@@QBE?AV12@HH@Z ENDP ; icu_56::UnicodeString::tempSubStringBetween
_TEXT	ENDS
PUBLIC	?doCharAt@UnicodeString@icu_56@@ABE_WH@Z	; icu_56::UnicodeString::doCharAt
; Function compile flags: /Odtp /RTCsu /ZI
;	COMDAT ?doCharAt@UnicodeString@icu_56@@ABE_WH@Z
_TEXT	SEGMENT
_this$ = -8						; size = 4
_offset$ = 8						; size = 4
?doCharAt@UnicodeString@icu_56@@ABE_WH@Z PROC		; icu_56::UnicodeString::doCharAt, COMDAT
; _this$ = ecx
; Line 4412
	push	ebp
	mov	ebp, esp
	sub	esp, 204				; 000000ccH
	push	ebx
	push	esi
	push	edi
	push	ecx
	lea	edi, DWORD PTR [ebp-204]
	mov	ecx, 51					; 00000033H
	mov	eax, -858993460				; ccccccccH
	rep stosd
	pop	ecx
	mov	DWORD PTR _this$[ebp], ecx
; Line 4413
	mov	ecx, DWORD PTR _this$[ebp]
	call	?length@UnicodeString@icu_56@@QBEHXZ	; icu_56::UnicodeString::length
	cmp	DWORD PTR _offset$[ebp], eax
	jae	SHORT $LN2@doCharAt
; Line 4414
	mov	ecx, DWORD PTR _this$[ebp]
	call	?getArrayStart@UnicodeString@icu_56@@ABEPB_WXZ ; icu_56::UnicodeString::getArrayStart
	mov	ecx, DWORD PTR _offset$[ebp]
	mov	ax, WORD PTR [eax+ecx*2]
	jmp	SHORT $LN3@doCharAt
; Line 4415
	jmp	SHORT $LN3@doCharAt
$LN2@doCharAt:
; Line 4416
	mov	eax, 65535				; 0000ffffH
$LN3@doCharAt:
; Line 4418
	pop	edi
	pop	esi
	pop	ebx
	add	esp, 204				; 000000ccH
	cmp	ebp, esp
	call	__RTC_CheckEsp
	mov	esp, ebp
	pop	ebp
	ret	4
?doCharAt@UnicodeString@icu_56@@ABE_WH@Z ENDP		; icu_56::UnicodeString::doCharAt
_TEXT	ENDS
PUBLIC	?charAt@UnicodeString@icu_56@@QBE_WH@Z		; icu_56::UnicodeString::charAt
; Function compile flags: /Odtp /RTCsu /ZI
;	COMDAT ?charAt@UnicodeString@icu_56@@QBE_WH@Z
_TEXT	SEGMENT
_this$ = -8						; size = 4
_offset$ = 8						; size = 4
?charAt@UnicodeString@icu_56@@QBE_WH@Z PROC		; icu_56::UnicodeString::charAt, COMDAT
; _this$ = ecx
; Line 4422
	push	ebp
	mov	ebp, esp
	sub	esp, 204				; 000000ccH
	push	ebx
	push	esi
	push	edi
	push	ecx
	lea	edi, DWORD PTR [ebp-204]
	mov	ecx, 51					; 00000033H
	mov	eax, -858993460				; ccccccccH
	rep stosd
	pop	ecx
	mov	DWORD PTR _this$[ebp], ecx
	mov	eax, DWORD PTR _offset$[ebp]
	push	eax
	mov	ecx, DWORD PTR _this$[ebp]
	call	?doCharAt@UnicodeString@icu_56@@ABE_WH@Z ; icu_56::UnicodeString::doCharAt
	pop	edi
	pop	esi
	pop	ebx
	add	esp, 204				; 000000ccH
	cmp	ebp, esp
	call	__RTC_CheckEsp
	mov	esp, ebp
	pop	ebp
	ret	4
?charAt@UnicodeString@icu_56@@QBE_WH@Z ENDP		; icu_56::UnicodeString::charAt
_TEXT	ENDS
PUBLIC	??AUnicodeString@icu_56@@QBE_WH@Z		; icu_56::UnicodeString::operator[]
; Function compile flags: /Odtp /RTCsu /ZI
;	COMDAT ??AUnicodeString@icu_56@@QBE_WH@Z
_TEXT	SEGMENT
_this$ = -8						; size = 4
_offset$ = 8						; size = 4
??AUnicodeString@icu_56@@QBE_WH@Z PROC			; icu_56::UnicodeString::operator[], COMDAT
; _this$ = ecx
; Line 4426
	push	ebp
	mov	ebp, esp
	sub	esp, 204				; 000000ccH
	push	ebx
	push	esi
	push	edi
	push	ecx
	lea	edi, DWORD PTR [ebp-204]
	mov	ecx, 51					; 00000033H
	mov	eax, -858993460				; ccccccccH
	rep stosd
	pop	ecx
	mov	DWORD PTR _this$[ebp], ecx
	mov	eax, DWORD PTR _offset$[ebp]
	push	eax
	mov	ecx, DWORD PTR _this$[ebp]
	call	?doCharAt@UnicodeString@icu_56@@ABE_WH@Z ; icu_56::UnicodeString::doCharAt
	pop	edi
	pop	esi
	pop	ebx
	add	esp, 204				; 000000ccH
	cmp	ebp, esp
	call	__RTC_CheckEsp
	mov	esp, ebp
	pop	ebp
	ret	4
??AUnicodeString@icu_56@@QBE_WH@Z ENDP			; icu_56::UnicodeString::operator[]
_TEXT	ENDS
PUBLIC	?isEmpty@UnicodeString@icu_56@@QBECXZ		; icu_56::UnicodeString::isEmpty
; Function compile flags: /Odtp /RTCsu /ZI
;	COMDAT ?isEmpty@UnicodeString@icu_56@@QBECXZ
_TEXT	SEGMENT
_this$ = -8						; size = 4
?isEmpty@UnicodeString@icu_56@@QBECXZ PROC		; icu_56::UnicodeString::isEmpty, COMDAT
; _this$ = ecx
; Line 4429
	push	ebp
	mov	ebp, esp
	sub	esp, 204				; 000000ccH
	push	ebx
	push	esi
	push	edi
	push	ecx
	lea	edi, DWORD PTR [ebp-204]
	mov	ecx, 51					; 00000033H
	mov	eax, -858993460				; ccccccccH
	rep stosd
	pop	ecx
	mov	DWORD PTR _this$[ebp], ecx
; Line 4431
	mov	eax, DWORD PTR _this$[ebp]
	movsx	ecx, WORD PTR [eax+4]
	sar	ecx, 5
	test	ecx, ecx
	sete	al
; Line 4432
	pop	edi
	pop	esi
	pop	ebx
	mov	esp, ebp
	pop	ebp
	ret	0
?isEmpty@UnicodeString@icu_56@@QBECXZ ENDP		; icu_56::UnicodeString::isEmpty
_TEXT	ENDS
PUBLIC	?setZeroLength@UnicodeString@icu_56@@AAEXXZ	; icu_56::UnicodeString::setZeroLength
; Function compile flags: /Odtp /RTCsu /ZI
;	COMDAT ?setZeroLength@UnicodeString@icu_56@@AAEXXZ
_TEXT	SEGMENT
_this$ = -8						; size = 4
?setZeroLength@UnicodeString@icu_56@@AAEXXZ PROC	; icu_56::UnicodeString::setZeroLength, COMDAT
; _this$ = ecx
; Line 4438
	push	ebp
	mov	ebp, esp
	sub	esp, 204				; 000000ccH
	push	ebx
	push	esi
	push	edi
	push	ecx
	lea	edi, DWORD PTR [ebp-204]
	mov	ecx, 51					; 00000033H
	mov	eax, -858993460				; ccccccccH
	rep stosd
	pop	ecx
	mov	DWORD PTR _this$[ebp], ecx
; Line 4439
	mov	eax, DWORD PTR _this$[ebp]
	movsx	ecx, WORD PTR [eax+4]
	and	ecx, 31					; 0000001fH
	mov	edx, DWORD PTR _this$[ebp]
	mov	WORD PTR [edx+4], cx
; Line 4440
	pop	edi
	pop	esi
	pop	ebx
	mov	esp, ebp
	pop	ebp
	ret	0
?setZeroLength@UnicodeString@icu_56@@AAEXXZ ENDP	; icu_56::UnicodeString::setZeroLength
_TEXT	ENDS
PUBLIC	?setShortLength@UnicodeString@icu_56@@AAEXH@Z	; icu_56::UnicodeString::setShortLength
; Function compile flags: /Odtp /RTCsu /ZI
;	COMDAT ?setShortLength@UnicodeString@icu_56@@AAEXH@Z
_TEXT	SEGMENT
_this$ = -8						; size = 4
_len$ = 8						; size = 4
?setShortLength@UnicodeString@icu_56@@AAEXH@Z PROC	; icu_56::UnicodeString::setShortLength, COMDAT
; _this$ = ecx
; Line 4443
	push	ebp
	mov	ebp, esp
	sub	esp, 204				; 000000ccH
	push	ebx
	push	esi
	push	edi
	push	ecx
	lea	edi, DWORD PTR [ebp-204]
	mov	ecx, 51					; 00000033H
	mov	eax, -858993460				; ccccccccH
	rep stosd
	pop	ecx
	mov	DWORD PTR _this$[ebp], ecx
; Line 4446
	mov	eax, DWORD PTR _this$[ebp]
	movsx	ecx, WORD PTR [eax+4]
	and	ecx, 31					; 0000001fH
	mov	edx, DWORD PTR _len$[ebp]
	shl	edx, 5
	or	ecx, edx
	mov	eax, DWORD PTR _this$[ebp]
	mov	WORD PTR [eax+4], cx
; Line 4447
	pop	edi
	pop	esi
	pop	ebx
	mov	esp, ebp
	pop	ebp
	ret	4
?setShortLength@UnicodeString@icu_56@@AAEXH@Z ENDP	; icu_56::UnicodeString::setShortLength
_TEXT	ENDS
PUBLIC	?setLength@UnicodeString@icu_56@@AAEXH@Z	; icu_56::UnicodeString::setLength
; Function compile flags: /Odtp /RTCsu /ZI
;	COMDAT ?setLength@UnicodeString@icu_56@@AAEXH@Z
_TEXT	SEGMENT
_this$ = -8						; size = 4
_len$ = 8						; size = 4
?setLength@UnicodeString@icu_56@@AAEXH@Z PROC		; icu_56::UnicodeString::setLength, COMDAT
; _this$ = ecx
; Line 4450
	push	ebp
	mov	ebp, esp
	sub	esp, 204				; 000000ccH
	push	ebx
	push	esi
	push	edi
	push	ecx
	lea	edi, DWORD PTR [ebp-204]
	mov	ecx, 51					; 00000033H
	mov	eax, -858993460				; ccccccccH
	rep stosd
	pop	ecx
	mov	DWORD PTR _this$[ebp], ecx
; Line 4451
	cmp	DWORD PTR _len$[ebp], 1023		; 000003ffH
	jg	SHORT $LN2@setLength
; Line 4452
	mov	eax, DWORD PTR _len$[ebp]
	push	eax
	mov	ecx, DWORD PTR _this$[ebp]
	call	?setShortLength@UnicodeString@icu_56@@AAEXH@Z ; icu_56::UnicodeString::setShortLength
; Line 4453
	jmp	SHORT $LN3@setLength
$LN2@setLength:
; Line 4454
	mov	eax, DWORD PTR _this$[ebp]
	movsx	ecx, WORD PTR [eax+4]
	or	ecx, 65504				; 0000ffe0H
	mov	edx, DWORD PTR _this$[ebp]
	mov	WORD PTR [edx+4], cx
; Line 4455
	mov	eax, DWORD PTR _this$[ebp]
	mov	ecx, DWORD PTR _len$[ebp]
	mov	DWORD PTR [eax+8], ecx
$LN3@setLength:
; Line 4457
	pop	edi
	pop	esi
	pop	ebx
	add	esp, 204				; 000000ccH
	cmp	ebp, esp
	call	__RTC_CheckEsp
	mov	esp, ebp
	pop	ebp
	ret	4
?setLength@UnicodeString@icu_56@@AAEXH@Z ENDP		; icu_56::UnicodeString::setLength
_TEXT	ENDS
PUBLIC	?setToEmpty@UnicodeString@icu_56@@AAEXXZ	; icu_56::UnicodeString::setToEmpty
; Function compile flags: /Odtp /RTCsu /ZI
;	COMDAT ?setToEmpty@UnicodeString@icu_56@@AAEXXZ
_TEXT	SEGMENT
_this$ = -8						; size = 4
?setToEmpty@UnicodeString@icu_56@@AAEXXZ PROC		; icu_56::UnicodeString::setToEmpty, COMDAT
; _this$ = ecx
; Line 4460
	push	ebp
	mov	ebp, esp
	sub	esp, 204				; 000000ccH
	push	ebx
	push	esi
	push	edi
	push	ecx
	lea	edi, DWORD PTR [ebp-204]
	mov	ecx, 51					; 00000033H
	mov	eax, -858993460				; ccccccccH
	rep stosd
	pop	ecx
	mov	DWORD PTR _this$[ebp], ecx
; Line 4461
	mov	eax, 2
	mov	ecx, DWORD PTR _this$[ebp]
	mov	WORD PTR [ecx+4], ax
; Line 4462
	pop	edi
	pop	esi
	pop	ebx
	mov	esp, ebp
	pop	ebp
	ret	0
?setToEmpty@UnicodeString@icu_56@@AAEXXZ ENDP		; icu_56::UnicodeString::setToEmpty
_TEXT	ENDS
PUBLIC	?setArray@UnicodeString@icu_56@@AAEXPA_WHH@Z	; icu_56::UnicodeString::setArray
; Function compile flags: /Odtp /RTCsu /ZI
;	COMDAT ?setArray@UnicodeString@icu_56@@AAEXPA_WHH@Z
_TEXT	SEGMENT
_this$ = -8						; size = 4
_array$ = 8						; size = 4
_len$ = 12						; size = 4
_capacity$ = 16						; size = 4
?setArray@UnicodeString@icu_56@@AAEXPA_WHH@Z PROC	; icu_56::UnicodeString::setArray, COMDAT
; _this$ = ecx
; Line 4465
	push	ebp
	mov	ebp, esp
	sub	esp, 204				; 000000ccH
	push	ebx
	push	esi
	push	edi
	push	ecx
	lea	edi, DWORD PTR [ebp-204]
	mov	ecx, 51					; 00000033H
	mov	eax, -858993460				; ccccccccH
	rep stosd
	pop	ecx
	mov	DWORD PTR _this$[ebp], ecx
; Line 4466
	mov	eax, DWORD PTR _len$[ebp]
	push	eax
	mov	ecx, DWORD PTR _this$[ebp]
	call	?setLength@UnicodeString@icu_56@@AAEXH@Z ; icu_56::UnicodeString::setLength
; Line 4467
	mov	eax, DWORD PTR _this$[ebp]
	mov	ecx, DWORD PTR _array$[ebp]
	mov	DWORD PTR [eax+16], ecx
; Line 4468
	mov	eax, DWORD PTR _this$[ebp]
	mov	ecx, DWORD PTR _capacity$[ebp]
	mov	DWORD PTR [eax+12], ecx
; Line 4469
	pop	edi
	pop	esi
	pop	ebx
	add	esp, 204				; 000000ccH
	cmp	ebp, esp
	call	__RTC_CheckEsp
	mov	esp, ebp
	pop	ebp
	ret	12					; 0000000cH
?setArray@UnicodeString@icu_56@@AAEXPA_WHH@Z ENDP	; icu_56::UnicodeString::setArray
_TEXT	ENDS
PUBLIC	??4UnicodeString@icu_56@@QAEAAV01@_W@Z		; icu_56::UnicodeString::operator=
; Function compile flags: /Odtp /RTCsu /ZI
;	COMDAT ??4UnicodeString@icu_56@@QAEAAV01@_W@Z
_TEXT	SEGMENT
_this$ = -8						; size = 4
_ch$ = 8						; size = 2
??4UnicodeString@icu_56@@QAEAAV01@_W@Z PROC		; icu_56::UnicodeString::operator=, COMDAT
; _this$ = ecx
; Line 4473
	push	ebp
	mov	ebp, esp
	sub	esp, 204				; 000000ccH
	push	ebx
	push	esi
	push	edi
	push	ecx
	lea	edi, DWORD PTR [ebp-204]
	mov	ecx, 51					; 00000033H
	mov	eax, -858993460				; ccccccccH
	rep stosd
	pop	ecx
	mov	DWORD PTR _this$[ebp], ecx
	push	1
	push	0
	lea	eax, DWORD PTR _ch$[ebp]
	push	eax
	mov	ecx, DWORD PTR _this$[ebp]
	call	?length@UnicodeString@icu_56@@QBEHXZ	; icu_56::UnicodeString::length
	push	eax
	push	0
	mov	ecx, DWORD PTR _this$[ebp]
	call	?doReplace@UnicodeString@icu_56@@AAEAAV12@HHPB_WHH@Z ; icu_56::UnicodeString::doReplace
	pop	edi
	pop	esi
	pop	ebx
	add	esp, 204				; 000000ccH
	cmp	ebp, esp
	call	__RTC_CheckEsp
	mov	esp, ebp
	pop	ebp
	ret	4
??4UnicodeString@icu_56@@QAEAAV01@_W@Z ENDP		; icu_56::UnicodeString::operator=
_TEXT	ENDS
PUBLIC	??4UnicodeString@icu_56@@QAEAAV01@H@Z		; icu_56::UnicodeString::operator=
EXTRN	?replace@UnicodeString@icu_56@@QAEAAV12@HHH@Z:PROC ; icu_56::UnicodeString::replace
; Function compile flags: /Odtp /RTCsu /ZI
