; Listing generated by Microsoft (R) Optimizing Compiler Version 16.00.40219.01 

	TITLE	D:\mozilla\intl\icu\source\common\utypes.c
	.686P
	.XMM
	include listing.inc
	.model	flat

INCLUDELIB MSVCRTD
INCLUDELIB OLDNAMES

PUBLIC	??_C@_0BJ@DEIHEAJ@U_PLUGIN_DIDNT_SET_LEVEL?$AA@	; `string'
PUBLIC	??_C@_0BC@HCDNNNDM@U_PLUGIN_TOO_HIGH?$AA@	; `string'
PUBLIC	??_C@_0CC@EMFKOELD@U_IDNA_DOMAIN_NAME_TOO_LONG_ERRO@ ; `string'
PUBLIC	??_C@_0BP@HFLKGPAI@U_IDNA_ZERO_LENGTH_LABEL_ERROR?$AA@ ; `string'
PUBLIC	??_C@_0BM@NALDAFOA@U_IDNA_LABEL_TOO_LONG_ERROR?$AA@ ; `string'
PUBLIC	??_C@_0BK@NALHKFBH@U_IDNA_VERIFICATION_ERROR?$AA@ ; `string'
PUBLIC	??_C@_0BI@NPDGLOAK@U_IDNA_ACE_PREFIX_ERROR?$AA@	; `string'
PUBLIC	??_C@_0BO@MDCMJAOB@U_IDNA_STD3_ASCII_RULES_ERROR?$AA@ ; `string'
PUBLIC	??_C@_0BO@PLHCADPH@U_STRINGPREP_CHECK_BIDI_ERROR?$AA@ ; `string'
PUBLIC	??_C@_0BO@OGJMJGGL@U_STRINGPREP_UNASSIGNED_ERROR?$AA@ ; `string'
PUBLIC	??_C@_0BO@KPONGJA@U_STRINGPREP_PROHIBITED_ERROR?$AA@ ; `string'
PUBLIC	??_C@_0CD@ICCOIINJ@U_REGEX_INVALID_CAPTURE_GROUP_NA@ ; `string'
PUBLIC	??_C@_0BI@DMKGMECD@U_REGEX_PATTERN_TOO_BIG?$AA@	; `string'
PUBLIC	??_C@_0BK@JCANIILI@U_REGEX_STOPPED_BY_CALLER?$AA@ ; `string'
PUBLIC	??_C@_0BB@GBPCOJDB@U_REGEX_TIME_OUT?$AA@	; `string'
PUBLIC	??_C@_0BH@CNCEBALI@U_REGEX_STACK_OVERFLOW?$AA@	; `string'
PUBLIC	??_C@_0BG@DGKIODOD@U_REGEX_INVALID_RANGE?$AA@	; `string'
PUBLIC	??_C@_0BO@EGFBHLD@U_REGEX_MISSING_CLOSE_BRACKET?$AA@ ; `string'
PUBLIC	??_C@_0BG@LDCEAIDM@U_REGEX_OCTAL_TOO_BIG?$AA@	; `string'
PUBLIC	??_C@_0BM@LJDFJLEM@U_REGEX_SET_CONTAINS_STRING?$AA@ ; `string'
PUBLIC	??_C@_0BK@GHHPEBDG@U_REGEX_LOOK_BEHIND_LIMIT?$AA@ ; `string'
PUBLIC	??_C@_0BF@MBEJAOBH@U_REGEX_INVALID_FLAG?$AA@	; `string'
PUBLIC	??_C@_0BJ@CHAJOJFC@U_REGEX_INVALID_BACK_REF?$AA@ ; `string'
PUBLIC	??_C@_0BD@JLPMAMIA@U_REGEX_MAX_LT_MIN?$AA@	; `string'
PUBLIC	??_C@_0BF@FHBIEMID@U_REGEX_BAD_INTERVAL?$AA@	; `string'
PUBLIC	??_C@_0BH@JIGNKOIL@U_REGEX_NUMBER_TOO_BIG?$AA@	; `string'
PUBLIC	??_C@_0BJ@HLLPNOJE@U_REGEX_MISMATCHED_PAREN?$AA@ ; `string'
PUBLIC	??_C@_0BG@PMCPPAJO@U_REGEX_UNIMPLEMENTED?$AA@	; `string'
PUBLIC	??_C@_0BI@DMNGJE@U_REGEX_PROPERTY_SYNTAX?$AA@	; `string'
PUBLIC	??_C@_0BM@CGABNEBP@U_REGEX_BAD_ESCAPE_SEQUENCE?$AA@ ; `string'
PUBLIC	??_C@_0BG@BDPHCFML@U_REGEX_INVALID_STATE?$AA@	; `string'
PUBLIC	??_C@_0BE@OHAMNNDN@U_REGEX_RULE_SYNTAX?$AA@	; `string'
PUBLIC	??_C@_0BH@EBBLFGNO@U_REGEX_INTERNAL_ERROR?$AA@	; `string'
PUBLIC	??_C@_0BJ@KECDDJMA@U_BRK_MALFORMED_RULE_TAG?$AA@ ; `string'
PUBLIC	??_C@_0BK@HIJIOFPG@U_BRK_UNRECOGNIZED_OPTION?$AA@ ; `string'
PUBLIC	??_C@_0BF@PHENLLAJ@U_BRK_RULE_EMPTY_SET?$AA@	; `string'
PUBLIC	??_C@_0BB@KKBGGLIB@U_BRK_INIT_ERROR?$AA@	; `string'
PUBLIC	??_C@_0BJ@BACHKFCP@U_BRK_UNDEFINED_VARIABLE?$AA@ ; `string'
PUBLIC	??_C@_0CA@DKAOKJNF@U_BRK_NEW_LINE_IN_QUOTED_STRING?$AA@ ; `string'
PUBLIC	??_C@_0BH@JDJGBGCD@U_BRK_MISMATCHED_PAREN?$AA@	; `string'
PUBLIC	??_C@_0BL@INAMALFI@U_BRK_VARIABLE_REDFINITION?$AA@ ; `string'
PUBLIC	??_C@_0BD@PAAIBLGA@U_BRK_ASSIGN_ERROR?$AA@	; `string'
PUBLIC	??_C@_0BD@BBKLCDPC@U_BRK_UNCLOSED_SET?$AA@	; `string'
PUBLIC	??_C@_0BC@BHBJALIJ@U_BRK_RULE_SYNTAX?$AA@	; `string'
PUBLIC	??_C@_0BJ@BKKFKONP@U_BRK_SEMICOLON_EXPECTED?$AA@ ; `string'
PUBLIC	??_C@_0BK@JAPOHCEJ@U_BRK_HEX_DIGITS_EXPECTED?$AA@ ; `string'
PUBLIC	??_C@_0BF@DJPDIGJA@U_BRK_INTERNAL_ERROR?$AA@	; `string'
PUBLIC	??_C@_0BH@EGLHOOIG@U_FORMAT_INEXACT_ERROR?$AA@	; `string'
PUBLIC	??_C@_0BO@NBDBGPKK@U_DECIMAL_NUMBER_SYNTAX_ERROR?$AA@ ; `string'
PUBLIC	??_C@_0BK@CNMODCJE@U_DEFAULT_KEYWORD_MISSING?$AA@ ; `string'
PUBLIC	??_C@_0BE@EAHGHIML@U_UNDEFINED_KEYWORD?$AA@	; `string'
PUBLIC	??_C@_0BE@PJNNEHLH@U_DUPLICATE_KEYWORD?$AA@	; `string'
PUBLIC	??_C@_0BJ@OPIEIKGH@U_ARGUMENT_TYPE_MISMATCH?$AA@ ; `string'
PUBLIC	??_C@_0BI@LPCDPAAL@U_UNSUPPORTED_ATTRIBUTE?$AA@	; `string'
PUBLIC	??_C@_0BH@IBGHDAEC@U_UNSUPPORTED_PROPERTY?$AA@	; `string'
PUBLIC	??_C@_0BD@HBOJFOEI@U_UNMATCHED_BRACES?$AA@	; `string'
PUBLIC	??_C@_0BH@PPPNIOHJ@U_ILLEGAL_PAD_POSITION?$AA@	; `string'
PUBLIC	??_C@_0BH@OODOJPEP@U_PATTERN_SYNTAX_ERROR?$AA@	; `string'
PUBLIC	??_C@_0BK@CMNJMCIJ@U_MULTIPLE_PAD_SPECIFIERS?$AA@ ; `string'
PUBLIC	??_C@_0BL@NBPOBAAK@U_MULTIPLE_PERMILL_SYMBOLS?$AA@ ; `string'
PUBLIC	??_C@_0BL@ECAHCJOG@U_MULTIPLE_PERCENT_SYMBOLS?$AA@ ; `string'
PUBLIC	??_C@_0CA@MMLBCGFG@U_MALFORMED_EXPONENTIAL_PATTERN?$AA@ ; `string'
PUBLIC	??_C@_0BP@NFLKPBKG@U_MULTIPLE_EXPONENTIAL_SYMBOLS?$AA@ ; `string'
PUBLIC	??_C@_0BO@EFMGDIGF@U_MULTIPLE_DECIMAL_SEPARATORS?$AA@ ; `string'
PUBLIC	??_C@_0BD@NBFPCOLI@U_UNEXPECTED_TOKEN?$AA@	; `string'
PUBLIC	??_C@_0BG@LMCEFEFM@U_NO_WRITE_PERMISSION?$AA@	; `string'
PUBLIC	??_C@_0BJ@CMKADCCG@U_USELESS_COLLATOR_ERROR?$AA@ ; `string'
PUBLIC	??_C@_0BM@MHNHIAOK@U_COLLATOR_VERSION_MISMATCH?$AA@ ; `string'
PUBLIC	??_C@_0BG@HNOCGAON@U_INVALID_STATE_ERROR?$AA@	; `string'
PUBLIC	??_C@_0BN@BNFGNGAM@U_INVARIANT_CONVERSION_ERROR?$AA@ ; `string'
PUBLIC	??_C@_0BJ@BNMOCDFF@U_ENUM_OUT_OF_SYNC_ERROR?$AA@ ; `string'
PUBLIC	??_C@_0BJ@OIMADFIA@U_TOO_MANY_ALIASES_ERROR?$AA@ ; `string'
PUBLIC	??_C@_0BG@OAKEAKN@U_STATE_TOO_OLD_ERROR?$AA@	; `string'
PUBLIC	??_C@_0BJ@OIAIJAPD@U_PRIMARY_TOO_LONG_ERROR?$AA@ ; `string'
PUBLIC	??_C@_0BF@LNNCDJOI@U_CE_NOT_FOUND_ERROR?$AA@	; `string'
PUBLIC	??_C@_0BF@FABPKAPH@U_NO_SPACE_AVAILABLE?$AA@	; `string'
PUBLIC	??_C@_0BO@BNNGDCAB@U_UNSUPPORTED_ESCAPE_SEQUENCE?$AA@ ; `string'
PUBLIC	??_C@_0BK@BCEDIBHK@U_ILLEGAL_ESCAPE_SEQUENCE?$AA@ ; `string'
PUBLIC	??_C@_0BJ@DFGMCALF@U_RESOURCE_TYPE_MISMATCH?$AA@ ; `string'
PUBLIC	??_C@_0BE@LMGPLIKN@U_UNSUPPORTED_ERROR?$AA@	; `string'
PUBLIC	??_C@_0BI@CBLFEFII@U_BUFFER_OVERFLOW_ERROR?$AA@	; `string'
PUBLIC	??_C@_0BF@DCBLOJJN@U_INVALID_TABLE_FILE?$AA@	; `string'
PUBLIC	??_C@_0BH@HOILABCG@U_INVALID_TABLE_FORMAT?$AA@	; `string'
PUBLIC	??_C@_0BF@LAHOPJOM@U_ILLEGAL_CHAR_FOUND?$AA@	; `string'
PUBLIC	??_C@_0BH@HILJKOBB@U_TRUNCATED_CHAR_FOUND?$AA@	; `string'
PUBLIC	??_C@_0BF@PDEIPDGJ@U_INVALID_CHAR_FOUND?$AA@	; `string'
PUBLIC	??_C@_0O@EFHMBGMI@U_PARSE_ERROR?$AA@		; `string'
PUBLIC	??_C@_0BK@IPHPHDC@U_INDEX_OUTOFBOUNDS_ERROR?$AA@ ; `string'
PUBLIC	??_C@_0BK@KAMCFANH@U_MEMORY_ALLOCATION_ERROR?$AA@ ; `string'
PUBLIC	??_C@_0BG@MHJOCOME@U_MESSAGE_PARSE_ERROR?$AA@	; `string'
PUBLIC	??_C@_0BJ@FCECJFAG@U_INTERNAL_PROGRAM_ERROR?$AA@ ; `string'
PUBLIC	??_C@_0BE@EAMIPHEL@U_FILE_ACCESS_ERROR?$AA@	; `string'
PUBLIC	??_C@_0BH@FDABEDI@U_INVALID_FORMAT_ERROR?$AA@	; `string'
PUBLIC	??_C@_0BJ@CDKLJAIO@U_MISSING_RESOURCE_ERROR?$AA@ ; `string'
PUBLIC	??_C@_0BJ@IIAKAILN@U_ILLEGAL_ARGUMENT_ERROR?$AA@ ; `string'
PUBLIC	??_C@_0N@LOMOKELP@U_ZERO_ERROR?$AA@		; `string'
PUBLIC	??_C@_0BD@NCMJBGLN@U_INVALID_FUNCTION?$AA@	; `string'
PUBLIC	??_C@_0N@BNHHILAO@U_INVALID_ID?$AA@		; `string'
PUBLIC	??_C@_0CA@KACBIGPO@U_INTERNAL_TRANSLITERATOR_ERROR?$AA@ ; `string'
PUBLIC	??_C@_0BE@FDKFIJNL@U_ILLEGAL_CHARACTER?$AA@	; `string'
PUBLIC	??_C@_0BJ@DCCMONOE@U_VARIABLE_RANGE_OVERLAP?$AA@ ; `string'
PUBLIC	??_C@_0BL@KFKFIHBE@U_VARIABLE_RANGE_EXHAUSTED?$AA@ ; `string'
PUBLIC	??_C@_0BK@LOBKJEIA@U_ILLEGAL_CHAR_IN_SEGMENT?$AA@ ; `string'
PUBLIC	??_C@_0BD@BMOJELGE@U_UNCLOSED_SEGMENT?$AA@	; `string'
PUBLIC	??_C@_0BD@GOJELBMK@U_MALFORMED_PRAGMA?$AA@	; `string'
PUBLIC	??_C@_0BL@NDBAOCDH@U_INVALID_PROPERTY_PATTERN?$AA@ ; `string'
PUBLIC	??_C@_0BF@KLJHOEML@U_INVALID_RBT_SYNTAX?$AA@	; `string'
PUBLIC	??_C@_0BM@FACOKMBJ@U_MULTIPLE_COMPOUND_FILTERS?$AA@ ; `string'
PUBLIC	??_C@_0BM@JDFKLLDE@U_MISPLACED_COMPOUND_FILTER?$AA@ ; `string'
PUBLIC	??_C@_0BC@BKFLLDIA@U_RULE_MASK_ERROR?$AA@	; `string'
PUBLIC	??_C@_0BF@OBKJGBJD@U_UNTERMINATED_QUOTE?$AA@	; `string'
PUBLIC	??_C@_0BD@EIPOIDMG@U_UNQUOTED_SPECIAL?$AA@	; `string'
PUBLIC	??_C@_0BF@ICNMPCIL@U_UNDEFINED_VARIABLE?$AA@	; `string'
PUBLIC	??_C@_0BO@KHJHPILC@U_UNDEFINED_SEGMENT_REFERENCE?$AA@ ; `string'
PUBLIC	??_C@_0BF@HCCFODKB@U_TRAILING_BACKSLASH?$AA@	; `string'
PUBLIC	??_C@_0BJ@DIKNMNCM@U_MULTIPLE_POST_CONTEXTS?$AA@ ; `string'
PUBLIC	??_C@_0BD@LBKNAKGM@U_MULTIPLE_CURSORS?$AA@	; `string'
PUBLIC	??_C@_0BJ@FGGDLDH@U_MULTIPLE_ANTE_CONTEXTS?$AA@	; `string'
PUBLIC	??_C@_0BI@MFDPOJEK@U_MISSING_SEGMENT_CLOSE?$AA@	; `string'
PUBLIC	??_C@_0BD@NKPMEEMG@U_MISSING_OPERATOR?$AA@	; `string'
PUBLIC	??_C@_0BH@BDOPIFDD@U_MISPLACED_QUANTIFIER?$AA@	; `string'
PUBLIC	??_C@_0BK@FKGBALGO@U_MISPLACED_CURSOR_OFFSET?$AA@ ; `string'
PUBLIC	??_C@_0BJ@EMKAKCC@U_MISPLACED_ANCHOR_START?$AA@	; `string'
PUBLIC	??_C@_0CA@PMNHAPOC@U_MISMATCHED_SEGMENT_DELIMITERS?$AA@ ; `string'
PUBLIC	??_C@_0BP@JNILEIFK@U_MALFORMED_VARIABLE_REFERENCE?$AA@ ; `string'
PUBLIC	??_C@_0CA@GLPDJGLO@U_MALFORMED_VARIABLE_DEFINITION?$AA@ ; `string'
PUBLIC	??_C@_0BL@MHCAEFL@U_MALFORMED_UNICODE_ESCAPE?$AA@ ; `string'
PUBLIC	??_C@_0BN@BIAKLFGJ@U_MALFORMED_SYMBOL_REFERENCE?$AA@ ; `string'
PUBLIC	??_C@_0BA@COJDLPEG@U_MALFORMED_SET?$AA@		; `string'
PUBLIC	??_C@_0BB@GNNDEALN@U_MALFORMED_RULE?$AA@	; `string'
PUBLIC	??_C@_0BK@HAMNMNKP@U_BAD_VARIABLE_DEFINITION?$AA@ ; `string'
PUBLIC	??_C@_0BP@NCPBLEP@U_PLUGIN_CHANGED_LEVEL_WARNING?$AA@ ; `string'
PUBLIC	??_C@_0BI@PKNLICGA@U_DIFFERENT_UCA_VERSION?$AA@	; `string'
PUBLIC	??_C@_0BK@JKMJJNOP@U_AMBIGUOUS_ALIAS_WARNING?$AA@ ; `string'
PUBLIC	??_C@_0BN@PONDFFEG@U_SORT_KEY_TOO_SHORT_WARNING?$AA@ ; `string'
PUBLIC	??_C@_0CA@EHNALNIK@U_STRING_NOT_TERMINATED_WARNING?$AA@ ; `string'
PUBLIC	??_C@_0BE@KHMKGGKB@U_STATE_OLD_WARNING?$AA@	; `string'
PUBLIC	??_C@_0BO@FEAHLGIK@U_SAFECLONE_ALLOCATED_WARNING?$AA@ ; `string'
PUBLIC	??_C@_0BI@DHMJGOFN@U_USING_DEFAULT_WARNING?$AA@	; `string'
PUBLIC	??_C@_0BJ@IHHGLMHP@U_USING_FALLBACK_WARNING?$AA@ ; `string'
;	COMDAT ??_C@_0BJ@DEIHEAJ@U_PLUGIN_DIDNT_SET_LEVEL?$AA@
CONST	SEGMENT
??_C@_0BJ@DEIHEAJ@U_PLUGIN_DIDNT_SET_LEVEL?$AA@ DB 'U_PLUGIN_DIDNT_SET_LE'
	DB	'VEL', 00H					; `string'
CONST	ENDS
;	COMDAT ??_C@_0BC@HCDNNNDM@U_PLUGIN_TOO_HIGH?$AA@
CONST	SEGMENT
??_C@_0BC@HCDNNNDM@U_PLUGIN_TOO_HIGH?$AA@ DB 'U_PLUGIN_TOO_HIGH', 00H ; `string'
CONST	ENDS
;	COMDAT ??_C@_0CC@EMFKOELD@U_IDNA_DOMAIN_NAME_TOO_LONG_ERRO@
CONST	SEGMENT
??_C@_0CC@EMFKOELD@U_IDNA_DOMAIN_NAME_TOO_LONG_ERRO@ DB 'U_IDNA_DOMAIN_NA'
	DB	'ME_TOO_LONG_ERROR', 00H			; `string'
CONST	ENDS
;	COMDAT ??_C@_0BP@HFLKGPAI@U_IDNA_ZERO_LENGTH_LABEL_ERROR?$AA@
CONST	SEGMENT
??_C@_0BP@HFLKGPAI@U_IDNA_ZERO_LENGTH_LABEL_ERROR?$AA@ DB 'U_IDNA_ZERO_LE'
	DB	'NGTH_LABEL_ERROR', 00H			; `string'
CONST	ENDS
;	COMDAT ??_C@_0BM@NALDAFOA@U_IDNA_LABEL_TOO_LONG_ERROR?$AA@
CONST	SEGMENT
??_C@_0BM@NALDAFOA@U_IDNA_LABEL_TOO_LONG_ERROR?$AA@ DB 'U_IDNA_LABEL_TOO_'
	DB	'LONG_ERROR', 00H				; `string'
CONST	ENDS
;	COMDAT ??_C@_0BK@NALHKFBH@U_IDNA_VERIFICATION_ERROR?$AA@
CONST	SEGMENT
??_C@_0BK@NALHKFBH@U_IDNA_VERIFICATION_ERROR?$AA@ DB 'U_IDNA_VERIFICATION'
	DB	'_ERROR', 00H				; `string'
CONST	ENDS
;	COMDAT ??_C@_0BI@NPDGLOAK@U_IDNA_ACE_PREFIX_ERROR?$AA@
CONST	SEGMENT
??_C@_0BI@NPDGLOAK@U_IDNA_ACE_PREFIX_ERROR?$AA@ DB 'U_IDNA_ACE_PREFIX_ERR'
	DB	'OR', 00H					; `string'
CONST	ENDS
;	COMDAT ??_C@_0BO@MDCMJAOB@U_IDNA_STD3_ASCII_RULES_ERROR?$AA@
CONST	SEGMENT
??_C@_0BO@MDCMJAOB@U_IDNA_STD3_ASCII_RULES_ERROR?$AA@ DB 'U_IDNA_STD3_ASC'
	DB	'II_RULES_ERROR', 00H			; `string'
CONST	ENDS
;	COMDAT ??_C@_0BO@PLHCADPH@U_STRINGPREP_CHECK_BIDI_ERROR?$AA@
CONST	SEGMENT
??_C@_0BO@PLHCADPH@U_STRINGPREP_CHECK_BIDI_ERROR?$AA@ DB 'U_STRINGPREP_CH'
	DB	'ECK_BIDI_ERROR', 00H			; `string'
CONST	ENDS
;	COMDAT ??_C@_0BO@OGJMJGGL@U_STRINGPREP_UNASSIGNED_ERROR?$AA@
CONST	SEGMENT
??_C@_0BO@OGJMJGGL@U_STRINGPREP_UNASSIGNED_ERROR?$AA@ DB 'U_STRINGPREP_UN'
	DB	'ASSIGNED_ERROR', 00H			; `string'
CONST	ENDS
;	COMDAT ??_C@_0BO@KPONGJA@U_STRINGPREP_PROHIBITED_ERROR?$AA@
CONST	SEGMENT
??_C@_0BO@KPONGJA@U_STRINGPREP_PROHIBITED_ERROR?$AA@ DB 'U_STRINGPREP_PRO'
	DB	'HIBITED_ERROR', 00H				; `string'
CONST	ENDS
;	COMDAT ??_C@_0CD@ICCOIINJ@U_REGEX_INVALID_CAPTURE_GROUP_NA@
CONST	SEGMENT
??_C@_0CD@ICCOIINJ@U_REGEX_INVALID_CAPTURE_GROUP_NA@ DB 'U_REGEX_INVALID_'
	DB	'CAPTURE_GROUP_NAME', 00H			; `string'
CONST	ENDS
;	COMDAT ??_C@_0BI@DMKGMECD@U_REGEX_PATTERN_TOO_BIG?$AA@
CONST	SEGMENT
??_C@_0BI@DMKGMECD@U_REGEX_PATTERN_TOO_BIG?$AA@ DB 'U_REGEX_PATTERN_TOO_B'
	DB	'IG', 00H					; `string'
CONST	ENDS
;	COMDAT ??_C@_0BK@JCANIILI@U_REGEX_STOPPED_BY_CALLER?$AA@
CONST	SEGMENT
??_C@_0BK@JCANIILI@U_REGEX_STOPPED_BY_CALLER?$AA@ DB 'U_REGEX_STOPPED_BY_'
	DB	'CALLER', 00H				; `string'
CONST	ENDS
;	COMDAT ??_C@_0BB@GBPCOJDB@U_REGEX_TIME_OUT?$AA@
CONST	SEGMENT
??_C@_0BB@GBPCOJDB@U_REGEX_TIME_OUT?$AA@ DB 'U_REGEX_TIME_OUT', 00H ; `string'
CONST	ENDS
;	COMDAT ??_C@_0BH@CNCEBALI@U_REGEX_STACK_OVERFLOW?$AA@
CONST	SEGMENT
??_C@_0BH@CNCEBALI@U_REGEX_STACK_OVERFLOW?$AA@ DB 'U_REGEX_STACK_OVERFLOW'
	DB	00H						; `string'
CONST	ENDS
;	COMDAT ??_C@_0BG@DGKIODOD@U_REGEX_INVALID_RANGE?$AA@
CONST	SEGMENT
??_C@_0BG@DGKIODOD@U_REGEX_INVALID_RANGE?$AA@ DB 'U_REGEX_INVALID_RANGE', 00H ; `string'
CONST	ENDS
;	COMDAT ??_C@_0BO@EGFBHLD@U_REGEX_MISSING_CLOSE_BRACKET?$AA@
CONST	SEGMENT
??_C@_0BO@EGFBHLD@U_REGEX_MISSING_CLOSE_BRACKET?$AA@ DB 'U_REGEX_MISSING_'
	DB	'CLOSE_BRACKET', 00H				; `string'
CONST	ENDS
;	COMDAT ??_C@_0BG@LDCEAIDM@U_REGEX_OCTAL_TOO_BIG?$AA@
CONST	SEGMENT
??_C@_0BG@LDCEAIDM@U_REGEX_OCTAL_TOO_BIG?$AA@ DB 'U_REGEX_OCTAL_TOO_BIG', 00H ; `string'
CONST	ENDS
;	COMDAT ??_C@_0BM@LJDFJLEM@U_REGEX_SET_CONTAINS_STRING?$AA@
CONST	SEGMENT
??_C@_0BM@LJDFJLEM@U_REGEX_SET_CONTAINS_STRING?$AA@ DB 'U_REGEX_SET_CONTA'
	DB	'INS_STRING', 00H				; `string'
CONST	ENDS
;	COMDAT ??_C@_0BK@GHHPEBDG@U_REGEX_LOOK_BEHIND_LIMIT?$AA@
CONST	SEGMENT
??_C@_0BK@GHHPEBDG@U_REGEX_LOOK_BEHIND_LIMIT?$AA@ DB 'U_REGEX_LOOK_BEHIND'
	DB	'_LIMIT', 00H				; `string'
CONST	ENDS
;	COMDAT ??_C@_0BF@MBEJAOBH@U_REGEX_INVALID_FLAG?$AA@
CONST	SEGMENT
??_C@_0BF@MBEJAOBH@U_REGEX_INVALID_FLAG?$AA@ DB 'U_REGEX_INVALID_FLAG', 00H ; `string'
CONST	ENDS
;	COMDAT ??_C@_0BJ@CHAJOJFC@U_REGEX_INVALID_BACK_REF?$AA@
CONST	SEGMENT
??_C@_0BJ@CHAJOJFC@U_REGEX_INVALID_BACK_REF?$AA@ DB 'U_REGEX_INVALID_BACK'
	DB	'_REF', 00H					; `string'
CONST	ENDS
;	COMDAT ??_C@_0BD@JLPMAMIA@U_REGEX_MAX_LT_MIN?$AA@
CONST	SEGMENT
??_C@_0BD@JLPMAMIA@U_REGEX_MAX_LT_MIN?$AA@ DB 'U_REGEX_MAX_LT_MIN', 00H ; `string'
CONST	ENDS
;	COMDAT ??_C@_0BF@FHBIEMID@U_REGEX_BAD_INTERVAL?$AA@
CONST	SEGMENT
??_C@_0BF@FHBIEMID@U_REGEX_BAD_INTERVAL?$AA@ DB 'U_REGEX_BAD_INTERVAL', 00H ; `string'
CONST	ENDS
;	COMDAT ??_C@_0BH@JIGNKOIL@U_REGEX_NUMBER_TOO_BIG?$AA@
CONST	SEGMENT
??_C@_0BH@JIGNKOIL@U_REGEX_NUMBER_TOO_BIG?$AA@ DB 'U_REGEX_NUMBER_TOO_BIG'
	DB	00H						; `string'
CONST	ENDS
;	COMDAT ??_C@_0BJ@HLLPNOJE@U_REGEX_MISMATCHED_PAREN?$AA@
CONST	SEGMENT
??_C@_0BJ@HLLPNOJE@U_REGEX_MISMATCHED_PAREN?$AA@ DB 'U_REGEX_MISMATCHED_P'
	DB	'AREN', 00H					; `string'
CONST	ENDS
;	COMDAT ??_C@_0BG@PMCPPAJO@U_REGEX_UNIMPLEMENTED?$AA@
CONST	SEGMENT
??_C@_0BG@PMCPPAJO@U_REGEX_UNIMPLEMENTED?$AA@ DB 'U_REGEX_UNIMPLEMENTED', 00H ; `string'
CONST	ENDS
;	COMDAT ??_C@_0BI@DMNGJE@U_REGEX_PROPERTY_SYNTAX?$AA@
CONST	SEGMENT
??_C@_0BI@DMNGJE@U_REGEX_PROPERTY_SYNTAX?$AA@ DB 'U_REGEX_PROPERTY_SYNTAX'
	DB	00H						; `string'
CONST	ENDS
;	COMDAT ??_C@_0BM@CGABNEBP@U_REGEX_BAD_ESCAPE_SEQUENCE?$AA@
CONST	SEGMENT
??_C@_0BM@CGABNEBP@U_REGEX_BAD_ESCAPE_SEQUENCE?$AA@ DB 'U_REGEX_BAD_ESCAP'
	DB	'E_SEQUENCE', 00H				; `string'
CONST	ENDS
;	COMDAT ??_C@_0BG@BDPHCFML@U_REGEX_INVALID_STATE?$AA@
CONST	SEGMENT
??_C@_0BG@BDPHCFML@U_REGEX_INVALID_STATE?$AA@ DB 'U_REGEX_INVALID_STATE', 00H ; `string'
CONST	ENDS
;	COMDAT ??_C@_0BE@OHAMNNDN@U_REGEX_RULE_SYNTAX?$AA@
CONST	SEGMENT
??_C@_0BE@OHAMNNDN@U_REGEX_RULE_SYNTAX?$AA@ DB 'U_REGEX_RULE_SYNTAX', 00H ; `string'
CONST	ENDS
;	COMDAT ??_C@_0BH@EBBLFGNO@U_REGEX_INTERNAL_ERROR?$AA@
CONST	SEGMENT
??_C@_0BH@EBBLFGNO@U_REGEX_INTERNAL_ERROR?$AA@ DB 'U_REGEX_INTERNAL_ERROR'
	DB	00H						; `string'
CONST	ENDS
;	COMDAT ??_C@_0BJ@KECDDJMA@U_BRK_MALFORMED_RULE_TAG?$AA@
CONST	SEGMENT
??_C@_0BJ@KECDDJMA@U_BRK_MALFORMED_RULE_TAG?$AA@ DB 'U_BRK_MALFORMED_RULE'
	DB	'_TAG', 00H					; `string'
CONST	ENDS
;	COMDAT ??_C@_0BK@HIJIOFPG@U_BRK_UNRECOGNIZED_OPTION?$AA@
CONST	SEGMENT
??_C@_0BK@HIJIOFPG@U_BRK_UNRECOGNIZED_OPTION?$AA@ DB 'U_BRK_UNRECOGNIZED_'
	DB	'OPTION', 00H				; `string'
CONST	ENDS
;	COMDAT ??_C@_0BF@PHENLLAJ@U_BRK_RULE_EMPTY_SET?$AA@
CONST	SEGMENT
??_C@_0BF@PHENLLAJ@U_BRK_RULE_EMPTY_SET?$AA@ DB 'U_BRK_RULE_EMPTY_SET', 00H ; `string'
CONST	ENDS
;	COMDAT ??_C@_0BB@KKBGGLIB@U_BRK_INIT_ERROR?$AA@
CONST	SEGMENT
??_C@_0BB@KKBGGLIB@U_BRK_INIT_ERROR?$AA@ DB 'U_BRK_INIT_ERROR', 00H ; `string'
CONST	ENDS
;	COMDAT ??_C@_0BJ@BACHKFCP@U_BRK_UNDEFINED_VARIABLE?$AA@
CONST	SEGMENT
??_C@_0BJ@BACHKFCP@U_BRK_UNDEFINED_VARIABLE?$AA@ DB 'U_BRK_UNDEFINED_VARI'
	DB	'ABLE', 00H					; `string'
CONST	ENDS
;	COMDAT ??_C@_0CA@DKAOKJNF@U_BRK_NEW_LINE_IN_QUOTED_STRING?$AA@
CONST	SEGMENT
??_C@_0CA@DKAOKJNF@U_BRK_NEW_LINE_IN_QUOTED_STRING?$AA@ DB 'U_BRK_NEW_LIN'
	DB	'E_IN_QUOTED_STRING', 00H			; `string'
CONST	ENDS
;	COMDAT ??_C@_0BH@JDJGBGCD@U_BRK_MISMATCHED_PAREN?$AA@
CONST	SEGMENT
??_C@_0BH@JDJGBGCD@U_BRK_MISMATCHED_PAREN?$AA@ DB 'U_BRK_MISMATCHED_PAREN'
	DB	00H						; `string'
CONST	ENDS
;	COMDAT ??_C@_0BL@INAMALFI@U_BRK_VARIABLE_REDFINITION?$AA@
CONST	SEGMENT
??_C@_0BL@INAMALFI@U_BRK_VARIABLE_REDFINITION?$AA@ DB 'U_BRK_VARIABLE_RED'
	DB	'FINITION', 00H				; `string'
CONST	ENDS
;	COMDAT ??_C@_0BD@PAAIBLGA@U_BRK_ASSIGN_ERROR?$AA@
CONST	SEGMENT
??_C@_0BD@PAAIBLGA@U_BRK_ASSIGN_ERROR?$AA@ DB 'U_BRK_ASSIGN_ERROR', 00H ; `string'
CONST	ENDS
;	COMDAT ??_C@_0BD@BBKLCDPC@U_BRK_UNCLOSED_SET?$AA@
CONST	SEGMENT
??_C@_0BD@BBKLCDPC@U_BRK_UNCLOSED_SET?$AA@ DB 'U_BRK_UNCLOSED_SET', 00H ; `string'
CONST	ENDS
;	COMDAT ??_C@_0BC@BHBJALIJ@U_BRK_RULE_SYNTAX?$AA@
CONST	SEGMENT
??_C@_0BC@BHBJALIJ@U_BRK_RULE_SYNTAX?$AA@ DB 'U_BRK_RULE_SYNTAX', 00H ; `string'
CONST	ENDS
;	COMDAT ??_C@_0BJ@BKKFKONP@U_BRK_SEMICOLON_EXPECTED?$AA@
CONST	SEGMENT
??_C@_0BJ@BKKFKONP@U_BRK_SEMICOLON_EXPECTED?$AA@ DB 'U_BRK_SEMICOLON_EXPE'
	DB	'CTED', 00H					; `string'
CONST	ENDS
;	COMDAT ??_C@_0BK@JAPOHCEJ@U_BRK_HEX_DIGITS_EXPECTED?$AA@
CONST	SEGMENT
??_C@_0BK@JAPOHCEJ@U_BRK_HEX_DIGITS_EXPECTED?$AA@ DB 'U_BRK_HEX_DIGITS_EX'
	DB	'PECTED', 00H				; `string'
CONST	ENDS
;	COMDAT ??_C@_0BF@DJPDIGJA@U_BRK_INTERNAL_ERROR?$AA@
CONST	SEGMENT
??_C@_0BF@DJPDIGJA@U_BRK_INTERNAL_ERROR?$AA@ DB 'U_BRK_INTERNAL_ERROR', 00H ; `string'
CONST	ENDS
;	COMDAT ??_C@_0BH@EGLHOOIG@U_FORMAT_INEXACT_ERROR?$AA@
CONST	SEGMENT
??_C@_0BH@EGLHOOIG@U_FORMAT_INEXACT_ERROR?$AA@ DB 'U_FORMAT_INEXACT_ERROR'
	DB	00H						; `string'
CONST	ENDS
;	COMDAT ??_C@_0BO@NBDBGPKK@U_DECIMAL_NUMBER_SYNTAX_ERROR?$AA@
CONST	SEGMENT
??_C@_0BO@NBDBGPKK@U_DECIMAL_NUMBER_SYNTAX_ERROR?$AA@ DB 'U_DECIMAL_NUMBE'
	DB	'R_SYNTAX_ERROR', 00H			; `string'
CONST	ENDS
;	COMDAT ??_C@_0BK@CNMODCJE@U_DEFAULT_KEYWORD_MISSING?$AA@
CONST	SEGMENT
??_C@_0BK@CNMODCJE@U_DEFAULT_KEYWORD_MISSING?$AA@ DB 'U_DEFAULT_KEYWORD_M'
	DB	'ISSING', 00H				; `string'
CONST	ENDS
;	COMDAT ??_C@_0BE@EAHGHIML@U_UNDEFINED_KEYWORD?$AA@
CONST	SEGMENT
??_C@_0BE@EAHGHIML@U_UNDEFINED_KEYWORD?$AA@ DB 'U_UNDEFINED_KEYWORD', 00H ; `string'
CONST	ENDS
;	COMDAT ??_C@_0BE@PJNNEHLH@U_DUPLICATE_KEYWORD?$AA@
CONST	SEGMENT
??_C@_0BE@PJNNEHLH@U_DUPLICATE_KEYWORD?$AA@ DB 'U_DUPLICATE_KEYWORD', 00H ; `string'
CONST	ENDS
;	COMDAT ??_C@_0BJ@OPIEIKGH@U_ARGUMENT_TYPE_MISMATCH?$AA@
CONST	SEGMENT
??_C@_0BJ@OPIEIKGH@U_ARGUMENT_TYPE_MISMATCH?$AA@ DB 'U_ARGUMENT_TYPE_MISM'
	DB	'ATCH', 00H					; `string'
CONST	ENDS
;	COMDAT ??_C@_0BI@LPCDPAAL@U_UNSUPPORTED_ATTRIBUTE?$AA@
CONST	SEGMENT
??_C@_0BI@LPCDPAAL@U_UNSUPPORTED_ATTRIBUTE?$AA@ DB 'U_UNSUPPORTED_ATTRIBU'
	DB	'TE', 00H					; `string'
CONST	ENDS
;	COMDAT ??_C@_0BH@IBGHDAEC@U_UNSUPPORTED_PROPERTY?$AA@
CONST	SEGMENT
??_C@_0BH@IBGHDAEC@U_UNSUPPORTED_PROPERTY?$AA@ DB 'U_UNSUPPORTED_PROPERTY'
	DB	00H						; `string'
CONST	ENDS
;	COMDAT ??_C@_0BD@HBOJFOEI@U_UNMATCHED_BRACES?$AA@
CONST	SEGMENT
??_C@_0BD@HBOJFOEI@U_UNMATCHED_BRACES?$AA@ DB 'U_UNMATCHED_BRACES', 00H ; `string'
CONST	ENDS
;	COMDAT ??_C@_0BH@PPPNIOHJ@U_ILLEGAL_PAD_POSITION?$AA@
CONST	SEGMENT
??_C@_0BH@PPPNIOHJ@U_ILLEGAL_PAD_POSITION?$AA@ DB 'U_ILLEGAL_PAD_POSITION'
	DB	00H						; `string'
CONST	ENDS
;	COMDAT ??_C@_0BH@OODOJPEP@U_PATTERN_SYNTAX_ERROR?$AA@
CONST	SEGMENT
??_C@_0BH@OODOJPEP@U_PATTERN_SYNTAX_ERROR?$AA@ DB 'U_PATTERN_SYNTAX_ERROR'
	DB	00H						; `string'
CONST	ENDS
;	COMDAT ??_C@_0BK@CMNJMCIJ@U_MULTIPLE_PAD_SPECIFIERS?$AA@
CONST	SEGMENT
??_C@_0BK@CMNJMCIJ@U_MULTIPLE_PAD_SPECIFIERS?$AA@ DB 'U_MULTIPLE_PAD_SPEC'
	DB	'IFIERS', 00H				; `string'
CONST	ENDS
;	COMDAT ??_C@_0BL@NBPOBAAK@U_MULTIPLE_PERMILL_SYMBOLS?$AA@
CONST	SEGMENT
??_C@_0BL@NBPOBAAK@U_MULTIPLE_PERMILL_SYMBOLS?$AA@ DB 'U_MULTIPLE_PERMILL'
	DB	'_SYMBOLS', 00H				; `string'
CONST	ENDS
;	COMDAT ??_C@_0BL@ECAHCJOG@U_MULTIPLE_PERCENT_SYMBOLS?$AA@
CONST	SEGMENT
??_C@_0BL@ECAHCJOG@U_MULTIPLE_PERCENT_SYMBOLS?$AA@ DB 'U_MULTIPLE_PERCENT'
	DB	'_SYMBOLS', 00H				; `string'
CONST	ENDS
;	COMDAT ??_C@_0CA@MMLBCGFG@U_MALFORMED_EXPONENTIAL_PATTERN?$AA@
CONST	SEGMENT
??_C@_0CA@MMLBCGFG@U_MALFORMED_EXPONENTIAL_PATTERN?$AA@ DB 'U_MALFORMED_E'
	DB	'XPONENTIAL_PATTERN', 00H			; `string'
CONST	ENDS
;	COMDAT ??_C@_0BP@NFLKPBKG@U_MULTIPLE_EXPONENTIAL_SYMBOLS?$AA@
CONST	SEGMENT
??_C@_0BP@NFLKPBKG@U_MULTIPLE_EXPONENTIAL_SYMBOLS?$AA@ DB 'U_MULTIPLE_EXP'
	DB	'ONENTIAL_SYMBOLS', 00H			; `string'
CONST	ENDS
;	COMDAT ??_C@_0BO@EFMGDIGF@U_MULTIPLE_DECIMAL_SEPARATORS?$AA@
CONST	SEGMENT
??_C@_0BO@EFMGDIGF@U_MULTIPLE_DECIMAL_SEPARATORS?$AA@ DB 'U_MULTIPLE_DECI'
	DB	'MAL_SEPARATORS', 00H			; `string'
CONST	ENDS
;	COMDAT ??_C@_0BD@NBFPCOLI@U_UNEXPECTED_TOKEN?$AA@
CONST	SEGMENT
??_C@_0BD@NBFPCOLI@U_UNEXPECTED_TOKEN?$AA@ DB 'U_UNEXPECTED_TOKEN', 00H ; `string'
CONST	ENDS
;	COMDAT ??_C@_0BG@LMCEFEFM@U_NO_WRITE_PERMISSION?$AA@
CONST	SEGMENT
??_C@_0BG@LMCEFEFM@U_NO_WRITE_PERMISSION?$AA@ DB 'U_NO_WRITE_PERMISSION', 00H ; `string'
CONST	ENDS
;	COMDAT ??_C@_0BJ@CMKADCCG@U_USELESS_COLLATOR_ERROR?$AA@
CONST	SEGMENT
??_C@_0BJ@CMKADCCG@U_USELESS_COLLATOR_ERROR?$AA@ DB 'U_USELESS_COLLATOR_E'
	DB	'RROR', 00H					; `string'
CONST	ENDS
;	COMDAT ??_C@_0BM@MHNHIAOK@U_COLLATOR_VERSION_MISMATCH?$AA@
CONST	SEGMENT
??_C@_0BM@MHNHIAOK@U_COLLATOR_VERSION_MISMATCH?$AA@ DB 'U_COLLATOR_VERSIO'
	DB	'N_MISMATCH', 00H				; `string'
CONST	ENDS
;	COMDAT ??_C@_0BG@HNOCGAON@U_INVALID_STATE_ERROR?$AA@
CONST	SEGMENT
??_C@_0BG@HNOCGAON@U_INVALID_STATE_ERROR?$AA@ DB 'U_INVALID_STATE_ERROR', 00H ; `string'
CONST	ENDS
;	COMDAT ??_C@_0BN@BNFGNGAM@U_INVARIANT_CONVERSION_ERROR?$AA@
CONST	SEGMENT
??_C@_0BN@BNFGNGAM@U_INVARIANT_CONVERSION_ERROR?$AA@ DB 'U_INVARIANT_CONV'
	DB	'ERSION_ERROR', 00H				; `string'
CONST	ENDS
;	COMDAT ??_C@_0BJ@BNMOCDFF@U_ENUM_OUT_OF_SYNC_ERROR?$AA@
CONST	SEGMENT
??_C@_0BJ@BNMOCDFF@U_ENUM_OUT_OF_SYNC_ERROR?$AA@ DB 'U_ENUM_OUT_OF_SYNC_E'
	DB	'RROR', 00H					; `string'
CONST	ENDS
;	COMDAT ??_C@_0BJ@OIMADFIA@U_TOO_MANY_ALIASES_ERROR?$AA@
CONST	SEGMENT
??_C@_0BJ@OIMADFIA@U_TOO_MANY_ALIASES_ERROR?$AA@ DB 'U_TOO_MANY_ALIASES_E'
	DB	'RROR', 00H					; `string'
CONST	ENDS
;	COMDAT ??_C@_0BG@OAKEAKN@U_STATE_TOO_OLD_ERROR?$AA@
CONST	SEGMENT
??_C@_0BG@OAKEAKN@U_STATE_TOO_OLD_ERROR?$AA@ DB 'U_STATE_TOO_OLD_ERROR', 00H ; `string'
CONST	ENDS
;	COMDAT ??_C@_0BJ@OIAIJAPD@U_PRIMARY_TOO_LONG_ERROR?$AA@
CONST	SEGMENT
??_C@_0BJ@OIAIJAPD@U_PRIMARY_TOO_LONG_ERROR?$AA@ DB 'U_PRIMARY_TOO_LONG_E'
	DB	'RROR', 00H					; `string'
CONST	ENDS
;	COMDAT ??_C@_0BF@LNNCDJOI@U_CE_NOT_FOUND_ERROR?$AA@
CONST	SEGMENT
??_C@_0BF@LNNCDJOI@U_CE_NOT_FOUND_ERROR?$AA@ DB 'U_CE_NOT_FOUND_ERROR', 00H ; `string'
CONST	ENDS
;	COMDAT ??_C@_0BF@FABPKAPH@U_NO_SPACE_AVAILABLE?$AA@
CONST	SEGMENT
??_C@_0BF@FABPKAPH@U_NO_SPACE_AVAILABLE?$AA@ DB 'U_NO_SPACE_AVAILABLE', 00H ; `string'
CONST	ENDS
;	COMDAT ??_C@_0BO@BNNGDCAB@U_UNSUPPORTED_ESCAPE_SEQUENCE?$AA@
CONST	SEGMENT
??_C@_0BO@BNNGDCAB@U_UNSUPPORTED_ESCAPE_SEQUENCE?$AA@ DB 'U_UNSUPPORTED_E'
	DB	'SCAPE_SEQUENCE', 00H			; `string'
CONST	ENDS
;	COMDAT ??_C@_0BK@BCEDIBHK@U_ILLEGAL_ESCAPE_SEQUENCE?$AA@
CONST	SEGMENT
??_C@_0BK@BCEDIBHK@U_ILLEGAL_ESCAPE_SEQUENCE?$AA@ DB 'U_ILLEGAL_ESCAPE_SE'
	DB	'QUENCE', 00H				; `string'
CONST	ENDS
;	COMDAT ??_C@_0BJ@DFGMCALF@U_RESOURCE_TYPE_MISMATCH?$AA@
CONST	SEGMENT
??_C@_0BJ@DFGMCALF@U_RESOURCE_TYPE_MISMATCH?$AA@ DB 'U_RESOURCE_TYPE_MISM'
	DB	'ATCH', 00H					; `string'
CONST	ENDS
;	COMDAT ??_C@_0BE@LMGPLIKN@U_UNSUPPORTED_ERROR?$AA@
CONST	SEGMENT
??_C@_0BE@LMGPLIKN@U_UNSUPPORTED_ERROR?$AA@ DB 'U_UNSUPPORTED_ERROR', 00H ; `string'
CONST	ENDS
;	COMDAT ??_C@_0BI@CBLFEFII@U_BUFFER_OVERFLOW_ERROR?$AA@
CONST	SEGMENT
??_C@_0BI@CBLFEFII@U_BUFFER_OVERFLOW_ERROR?$AA@ DB 'U_BUFFER_OVERFLOW_ERR'
	DB	'OR', 00H					; `string'
CONST	ENDS
;	COMDAT ??_C@_0BF@DCBLOJJN@U_INVALID_TABLE_FILE?$AA@
CONST	SEGMENT
??_C@_0BF@DCBLOJJN@U_INVALID_TABLE_FILE?$AA@ DB 'U_INVALID_TABLE_FILE', 00H ; `string'
CONST	ENDS
;	COMDAT ??_C@_0BH@HOILABCG@U_INVALID_TABLE_FORMAT?$AA@
CONST	SEGMENT
??_C@_0BH@HOILABCG@U_INVALID_TABLE_FORMAT?$AA@ DB 'U_INVALID_TABLE_FORMAT'
	DB	00H						; `string'
CONST	ENDS
;	COMDAT ??_C@_0BF@LAHOPJOM@U_ILLEGAL_CHAR_FOUND?$AA@
CONST	SEGMENT
??_C@_0BF@LAHOPJOM@U_ILLEGAL_CHAR_FOUND?$AA@ DB 'U_ILLEGAL_CHAR_FOUND', 00H ; `string'
CONST	ENDS
;	COMDAT ??_C@_0BH@HILJKOBB@U_TRUNCATED_CHAR_FOUND?$AA@
CONST	SEGMENT
??_C@_0BH@HILJKOBB@U_TRUNCATED_CHAR_FOUND?$AA@ DB 'U_TRUNCATED_CHAR_FOUND'
	DB	00H						; `string'
CONST	ENDS
;	COMDAT ??_C@_0BF@PDEIPDGJ@U_INVALID_CHAR_FOUND?$AA@
CONST	SEGMENT
??_C@_0BF@PDEIPDGJ@U_INVALID_CHAR_FOUND?$AA@ DB 'U_INVALID_CHAR_FOUND', 00H ; `string'
CONST	ENDS
;	COMDAT ??_C@_0O@EFHMBGMI@U_PARSE_ERROR?$AA@
CONST	SEGMENT
??_C@_0O@EFHMBGMI@U_PARSE_ERROR?$AA@ DB 'U_PARSE_ERROR', 00H ; `string'
CONST	ENDS
;	COMDAT ??_C@_0BK@IPHPHDC@U_INDEX_OUTOFBOUNDS_ERROR?$AA@
CONST	SEGMENT
??_C@_0BK@IPHPHDC@U_INDEX_OUTOFBOUNDS_ERROR?$AA@ DB 'U_INDEX_OUTOFBOUNDS_'
	DB	'ERROR', 00H					; `string'
CONST	ENDS
;	COMDAT ??_C@_0BK@KAMCFANH@U_MEMORY_ALLOCATION_ERROR?$AA@
CONST	SEGMENT
??_C@_0BK@KAMCFANH@U_MEMORY_ALLOCATION_ERROR?$AA@ DB 'U_MEMORY_ALLOCATION'
	DB	'_ERROR', 00H				; `string'
CONST	ENDS
;	COMDAT ??_C@_0BG@MHJOCOME@U_MESSAGE_PARSE_ERROR?$AA@
CONST	SEGMENT
??_C@_0BG@MHJOCOME@U_MESSAGE_PARSE_ERROR?$AA@ DB 'U_MESSAGE_PARSE_ERROR', 00H ; `string'
CONST	ENDS
;	COMDAT ??_C@_0BJ@FCECJFAG@U_INTERNAL_PROGRAM_ERROR?$AA@
CONST	SEGMENT
??_C@_0BJ@FCECJFAG@U_INTERNAL_PROGRAM_ERROR?$AA@ DB 'U_INTERNAL_PROGRAM_E'
	DB	'RROR', 00H					; `string'
CONST	ENDS
;	COMDAT ??_C@_0BE@EAMIPHEL@U_FILE_ACCESS_ERROR?$AA@
CONST	SEGMENT
??_C@_0BE@EAMIPHEL@U_FILE_ACCESS_ERROR?$AA@ DB 'U_FILE_ACCESS_ERROR', 00H ; `string'
CONST	ENDS
;	COMDAT ??_C@_0BH@FDABEDI@U_INVALID_FORMAT_ERROR?$AA@
CONST	SEGMENT
??_C@_0BH@FDABEDI@U_INVALID_FORMAT_ERROR?$AA@ DB 'U_INVALID_FORMAT_ERROR', 00H ; `string'
CONST	ENDS
;	COMDAT ??_C@_0BJ@CDKLJAIO@U_MISSING_RESOURCE_ERROR?$AA@
CONST	SEGMENT
??_C@_0BJ@CDKLJAIO@U_MISSING_RESOURCE_ERROR?$AA@ DB 'U_MISSING_RESOURCE_E'
	DB	'RROR', 00H					; `string'
CONST	ENDS
;	COMDAT ??_C@_0BJ@IIAKAILN@U_ILLEGAL_ARGUMENT_ERROR?$AA@
CONST	SEGMENT
??_C@_0BJ@IIAKAILN@U_ILLEGAL_ARGUMENT_ERROR?$AA@ DB 'U_ILLEGAL_ARGUMENT_E'
	DB	'RROR', 00H					; `string'
CONST	ENDS
;	COMDAT ??_C@_0N@LOMOKELP@U_ZERO_ERROR?$AA@
CONST	SEGMENT
??_C@_0N@LOMOKELP@U_ZERO_ERROR?$AA@ DB 'U_ZERO_ERROR', 00H ; `string'
CONST	ENDS
;	COMDAT ??_C@_0BD@NCMJBGLN@U_INVALID_FUNCTION?$AA@
CONST	SEGMENT
??_C@_0BD@NCMJBGLN@U_INVALID_FUNCTION?$AA@ DB 'U_INVALID_FUNCTION', 00H ; `string'
CONST	ENDS
;	COMDAT ??_C@_0N@BNHHILAO@U_INVALID_ID?$AA@
CONST	SEGMENT
??_C@_0N@BNHHILAO@U_INVALID_ID?$AA@ DB 'U_INVALID_ID', 00H ; `string'
CONST	ENDS
;	COMDAT ??_C@_0CA@KACBIGPO@U_INTERNAL_TRANSLITERATOR_ERROR?$AA@
CONST	SEGMENT
??_C@_0CA@KACBIGPO@U_INTERNAL_TRANSLITERATOR_ERROR?$AA@ DB 'U_INTERNAL_TR'
	DB	'ANSLITERATOR_ERROR', 00H			; `string'
CONST	ENDS
;	COMDAT ??_C@_0BE@FDKFIJNL@U_ILLEGAL_CHARACTER?$AA@
CONST	SEGMENT
??_C@_0BE@FDKFIJNL@U_ILLEGAL_CHARACTER?$AA@ DB 'U_ILLEGAL_CHARACTER', 00H ; `string'
CONST	ENDS
;	COMDAT ??_C@_0BJ@DCCMONOE@U_VARIABLE_RANGE_OVERLAP?$AA@
CONST	SEGMENT
??_C@_0BJ@DCCMONOE@U_VARIABLE_RANGE_OVERLAP?$AA@ DB 'U_VARIABLE_RANGE_OVE'
	DB	'RLAP', 00H					; `string'
CONST	ENDS
;	COMDAT ??_C@_0BL@KFKFIHBE@U_VARIABLE_RANGE_EXHAUSTED?$AA@
CONST	SEGMENT
??_C@_0BL@KFKFIHBE@U_VARIABLE_RANGE_EXHAUSTED?$AA@ DB 'U_VARIABLE_RANGE_E'
	DB	'XHAUSTED', 00H				; `string'
CONST	ENDS
;	COMDAT ??_C@_0BK@LOBKJEIA@U_ILLEGAL_CHAR_IN_SEGMENT?$AA@
CONST	SEGMENT
??_C@_0BK@LOBKJEIA@U_ILLEGAL_CHAR_IN_SEGMENT?$AA@ DB 'U_ILLEGAL_CHAR_IN_S'
	DB	'EGMENT', 00H				; `string'
CONST	ENDS
;	COMDAT ??_C@_0BD@BMOJELGE@U_UNCLOSED_SEGMENT?$AA@
CONST	SEGMENT
??_C@_0BD@BMOJELGE@U_UNCLOSED_SEGMENT?$AA@ DB 'U_UNCLOSED_SEGMENT', 00H ; `string'
CONST	ENDS
;	COMDAT ??_C@_0BD@GOJELBMK@U_MALFORMED_PRAGMA?$AA@
CONST	SEGMENT
??_C@_0BD@GOJELBMK@U_MALFORMED_PRAGMA?$AA@ DB 'U_MALFORMED_PRAGMA', 00H ; `string'
CONST	ENDS
;	COMDAT ??_C@_0BL@NDBAOCDH@U_INVALID_PROPERTY_PATTERN?$AA@
CONST	SEGMENT
??_C@_0BL@NDBAOCDH@U_INVALID_PROPERTY_PATTERN?$AA@ DB 'U_INVALID_PROPERTY'
	DB	'_PATTERN', 00H				; `string'
CONST	ENDS
;	COMDAT ??_C@_0BF@KLJHOEML@U_INVALID_RBT_SYNTAX?$AA@
CONST	SEGMENT
??_C@_0BF@KLJHOEML@U_INVALID_RBT_SYNTAX?$AA@ DB 'U_INVALID_RBT_SYNTAX', 00H ; `string'
CONST	ENDS
;	COMDAT ??_C@_0BM@FACOKMBJ@U_MULTIPLE_COMPOUND_FILTERS?$AA@
CONST	SEGMENT
??_C@_0BM@FACOKMBJ@U_MULTIPLE_COMPOUND_FILTERS?$AA@ DB 'U_MULTIPLE_COMPOU'
	DB	'ND_FILTERS', 00H				; `string'
CONST	ENDS
;	COMDAT ??_C@_0BM@JDFKLLDE@U_MISPLACED_COMPOUND_FILTER?$AA@
CONST	SEGMENT
??_C@_0BM@JDFKLLDE@U_MISPLACED_COMPOUND_FILTER?$AA@ DB 'U_MISPLACED_COMPO'
	DB	'UND_FILTER', 00H				; `string'
CONST	ENDS
;	COMDAT ??_C@_0BC@BKFLLDIA@U_RULE_MASK_ERROR?$AA@
CONST	SEGMENT
??_C@_0BC@BKFLLDIA@U_RULE_MASK_ERROR?$AA@ DB 'U_RULE_MASK_ERROR', 00H ; `string'
CONST	ENDS
;	COMDAT ??_C@_0BF@OBKJGBJD@U_UNTERMINATED_QUOTE?$AA@
CONST	SEGMENT
??_C@_0BF@OBKJGBJD@U_UNTERMINATED_QUOTE?$AA@ DB 'U_UNTERMINATED_QUOTE', 00H ; `string'
CONST	ENDS
;	COMDAT ??_C@_0BD@EIPOIDMG@U_UNQUOTED_SPECIAL?$AA@
CONST	SEGMENT
??_C@_0BD@EIPOIDMG@U_UNQUOTED_SPECIAL?$AA@ DB 'U_UNQUOTED_SPECIAL', 00H ; `string'
CONST	ENDS
;	COMDAT ??_C@_0BF@ICNMPCIL@U_UNDEFINED_VARIABLE?$AA@
CONST	SEGMENT
??_C@_0BF@ICNMPCIL@U_UNDEFINED_VARIABLE?$AA@ DB 'U_UNDEFINED_VARIABLE', 00H ; `string'
CONST	ENDS
;	COMDAT ??_C@_0BO@KHJHPILC@U_UNDEFINED_SEGMENT_REFERENCE?$AA@
CONST	SEGMENT
??_C@_0BO@KHJHPILC@U_UNDEFINED_SEGMENT_REFERENCE?$AA@ DB 'U_UNDEFINED_SEG'
	DB	'MENT_REFERENCE', 00H			; `string'
CONST	ENDS
;	COMDAT ??_C@_0BF@HCCFODKB@U_TRAILING_BACKSLASH?$AA@
CONST	SEGMENT
??_C@_0BF@HCCFODKB@U_TRAILING_BACKSLASH?$AA@ DB 'U_TRAILING_BACKSLASH', 00H ; `string'
CONST	ENDS
;	COMDAT ??_C@_0BJ@DIKNMNCM@U_MULTIPLE_POST_CONTEXTS?$AA@
CONST	SEGMENT
??_C@_0BJ@DIKNMNCM@U_MULTIPLE_POST_CONTEXTS?$AA@ DB 'U_MULTIPLE_POST_CONT'
	DB	'EXTS', 00H					; `string'
CONST	ENDS
;	COMDAT ??_C@_0BD@LBKNAKGM@U_MULTIPLE_CURSORS?$AA@
CONST	SEGMENT
??_C@_0BD@LBKNAKGM@U_MULTIPLE_CURSORS?$AA@ DB 'U_MULTIPLE_CURSORS', 00H ; `string'
CONST	ENDS
;	COMDAT ??_C@_0BJ@FGGDLDH@U_MULTIPLE_ANTE_CONTEXTS?$AA@
CONST	SEGMENT
??_C@_0BJ@FGGDLDH@U_MULTIPLE_ANTE_CONTEXTS?$AA@ DB 'U_MULTIPLE_ANTE_CONTE'
	DB	'XTS', 00H					; `string'
CONST	ENDS
;	COMDAT ??_C@_0BI@MFDPOJEK@U_MISSING_SEGMENT_CLOSE?$AA@
CONST	SEGMENT
??_C@_0BI@MFDPOJEK@U_MISSING_SEGMENT_CLOSE?$AA@ DB 'U_MISSING_SEGMENT_CLO'
	DB	'SE', 00H					; `string'
CONST	ENDS
;	COMDAT ??_C@_0BD@NKPMEEMG@U_MISSING_OPERATOR?$AA@
CONST	SEGMENT
??_C@_0BD@NKPMEEMG@U_MISSING_OPERATOR?$AA@ DB 'U_MISSING_OPERATOR', 00H ; `string'
CONST	ENDS
;	COMDAT ??_C@_0BH@BDOPIFDD@U_MISPLACED_QUANTIFIER?$AA@
CONST	SEGMENT
??_C@_0BH@BDOPIFDD@U_MISPLACED_QUANTIFIER?$AA@ DB 'U_MISPLACED_QUANTIFIER'
	DB	00H						; `string'
CONST	ENDS
;	COMDAT ??_C@_0BK@FKGBALGO@U_MISPLACED_CURSOR_OFFSET?$AA@
CONST	SEGMENT
??_C@_0BK@FKGBALGO@U_MISPLACED_CURSOR_OFFSET?$AA@ DB 'U_MISPLACED_CURSOR_'
	DB	'OFFSET', 00H				; `string'
CONST	ENDS
;	COMDAT ??_C@_0BJ@EMKAKCC@U_MISPLACED_ANCHOR_START?$AA@
CONST	SEGMENT
??_C@_0BJ@EMKAKCC@U_MISPLACED_ANCHOR_START?$AA@ DB 'U_MISPLACED_ANCHOR_ST'
	DB	'ART', 00H					; `string'
CONST	ENDS
;	COMDAT ??_C@_0CA@PMNHAPOC@U_MISMATCHED_SEGMENT_DELIMITERS?$AA@
CONST	SEGMENT
??_C@_0CA@PMNHAPOC@U_MISMATCHED_SEGMENT_DELIMITERS?$AA@ DB 'U_MISMATCHED_'
	DB	'SEGMENT_DELIMITERS', 00H			; `string'
CONST	ENDS
;	COMDAT ??_C@_0BP@JNILEIFK@U_MALFORMED_VARIABLE_REFERENCE?$AA@
CONST	SEGMENT
??_C@_0BP@JNILEIFK@U_MALFORMED_VARIABLE_REFERENCE?$AA@ DB 'U_MALFORMED_VA'
	DB	'RIABLE_REFERENCE', 00H			; `string'
CONST	ENDS
;	COMDAT ??_C@_0CA@GLPDJGLO@U_MALFORMED_VARIABLE_DEFINITION?$AA@
CONST	SEGMENT
??_C@_0CA@GLPDJGLO@U_MALFORMED_VARIABLE_DEFINITION?$AA@ DB 'U_MALFORMED_V'
	DB	'ARIABLE_DEFINITION', 00H			; `string'
CONST	ENDS
;	COMDAT ??_C@_0BL@MHCAEFL@U_MALFORMED_UNICODE_ESCAPE?$AA@
CONST	SEGMENT
??_C@_0BL@MHCAEFL@U_MALFORMED_UNICODE_ESCAPE?$AA@ DB 'U_MALFORMED_UNICODE'
	DB	'_ESCAPE', 00H				; `string'
CONST	ENDS
;	COMDAT ??_C@_0BN@BIAKLFGJ@U_MALFORMED_SYMBOL_REFERENCE?$AA@
CONST	SEGMENT
??_C@_0BN@BIAKLFGJ@U_MALFORMED_SYMBOL_REFERENCE?$AA@ DB 'U_MALFORMED_SYMB'
	DB	'OL_REFERENCE', 00H				; `string'
CONST	ENDS
;	COMDAT ??_C@_0BA@COJDLPEG@U_MALFORMED_SET?$AA@
CONST	SEGMENT
??_C@_0BA@COJDLPEG@U_MALFORMED_SET?$AA@ DB 'U_MALFORMED_SET', 00H ; `string'
CONST	ENDS
;	COMDAT ??_C@_0BB@GNNDEALN@U_MALFORMED_RULE?$AA@
CONST	SEGMENT
??_C@_0BB@GNNDEALN@U_MALFORMED_RULE?$AA@ DB 'U_MALFORMED_RULE', 00H ; `string'
CONST	ENDS
;	COMDAT ??_C@_0BK@HAMNMNKP@U_BAD_VARIABLE_DEFINITION?$AA@
CONST	SEGMENT
??_C@_0BK@HAMNMNKP@U_BAD_VARIABLE_DEFINITION?$AA@ DB 'U_BAD_VARIABLE_DEFI'
	DB	'NITION', 00H				; `string'
CONST	ENDS
CONST	SEGMENT
__uErrorInfoName DD FLAT:??_C@_0BJ@IHHGLMHP@U_USING_FALLBACK_WARNING?$AA@
	DD	FLAT:??_C@_0BI@DHMJGOFN@U_USING_DEFAULT_WARNING?$AA@
	DD	FLAT:??_C@_0BO@FEAHLGIK@U_SAFECLONE_ALLOCATED_WARNING?$AA@
	DD	FLAT:??_C@_0BE@KHMKGGKB@U_STATE_OLD_WARNING?$AA@
	DD	FLAT:??_C@_0CA@EHNALNIK@U_STRING_NOT_TERMINATED_WARNING?$AA@
	DD	FLAT:??_C@_0BN@PONDFFEG@U_SORT_KEY_TOO_SHORT_WARNING?$AA@
	DD	FLAT:??_C@_0BK@JKMJJNOP@U_AMBIGUOUS_ALIAS_WARNING?$AA@
	DD	FLAT:??_C@_0BI@PKNLICGA@U_DIFFERENT_UCA_VERSION?$AA@
	DD	FLAT:??_C@_0BP@NCPBLEP@U_PLUGIN_CHANGED_LEVEL_WARNING?$AA@
__uIDNAErrorName DD FLAT:??_C@_0BO@KPONGJA@U_STRINGPREP_PROHIBITED_ERROR?$AA@
	DD	FLAT:??_C@_0BO@OGJMJGGL@U_STRINGPREP_UNASSIGNED_ERROR?$AA@
	DD	FLAT:??_C@_0BO@PLHCADPH@U_STRINGPREP_CHECK_BIDI_ERROR?$AA@
	DD	FLAT:??_C@_0BO@MDCMJAOB@U_IDNA_STD3_ASCII_RULES_ERROR?$AA@
	DD	FLAT:??_C@_0BI@NPDGLOAK@U_IDNA_ACE_PREFIX_ERROR?$AA@
	DD	FLAT:??_C@_0BK@NALHKFBH@U_IDNA_VERIFICATION_ERROR?$AA@
	DD	FLAT:??_C@_0BM@NALDAFOA@U_IDNA_LABEL_TOO_LONG_ERROR?$AA@
	DD	FLAT:??_C@_0BP@HFLKGPAI@U_IDNA_ZERO_LENGTH_LABEL_ERROR?$AA@
	DD	FLAT:??_C@_0CC@EMFKOELD@U_IDNA_DOMAIN_NAME_TOO_LONG_ERRO@
__uTransErrorName DD FLAT:??_C@_0BK@HAMNMNKP@U_BAD_VARIABLE_DEFINITION?$AA@
	DD	FLAT:??_C@_0BB@GNNDEALN@U_MALFORMED_RULE?$AA@
	DD	FLAT:??_C@_0BA@COJDLPEG@U_MALFORMED_SET?$AA@
	DD	FLAT:??_C@_0BN@BIAKLFGJ@U_MALFORMED_SYMBOL_REFERENCE?$AA@
	DD	FLAT:??_C@_0BL@MHCAEFL@U_MALFORMED_UNICODE_ESCAPE?$AA@
	DD	FLAT:??_C@_0CA@GLPDJGLO@U_MALFORMED_VARIABLE_DEFINITION?$AA@
	DD	FLAT:??_C@_0BP@JNILEIFK@U_MALFORMED_VARIABLE_REFERENCE?$AA@
	DD	FLAT:??_C@_0CA@PMNHAPOC@U_MISMATCHED_SEGMENT_DELIMITERS?$AA@
	DD	FLAT:??_C@_0BJ@EMKAKCC@U_MISPLACED_ANCHOR_START?$AA@
	DD	FLAT:??_C@_0BK@FKGBALGO@U_MISPLACED_CURSOR_OFFSET?$AA@
	DD	FLAT:??_C@_0BH@BDOPIFDD@U_MISPLACED_QUANTIFIER?$AA@
	DD	FLAT:??_C@_0BD@NKPMEEMG@U_MISSING_OPERATOR?$AA@
	DD	FLAT:??_C@_0BI@MFDPOJEK@U_MISSING_SEGMENT_CLOSE?$AA@
	DD	FLAT:??_C@_0BJ@FGGDLDH@U_MULTIPLE_ANTE_CONTEXTS?$AA@
	DD	FLAT:??_C@_0BD@LBKNAKGM@U_MULTIPLE_CURSORS?$AA@
	DD	FLAT:??_C@_0BJ@DIKNMNCM@U_MULTIPLE_POST_CONTEXTS?$AA@
	DD	FLAT:??_C@_0BF@HCCFODKB@U_TRAILING_BACKSLASH?$AA@
	DD	FLAT:??_C@_0BO@KHJHPILC@U_UNDEFINED_SEGMENT_REFERENCE?$AA@
	DD	FLAT:??_C@_0BF@ICNMPCIL@U_UNDEFINED_VARIABLE?$AA@
	DD	FLAT:??_C@_0BD@EIPOIDMG@U_UNQUOTED_SPECIAL?$AA@
	DD	FLAT:??_C@_0BF@OBKJGBJD@U_UNTERMINATED_QUOTE?$AA@
	DD	FLAT:??_C@_0BC@BKFLLDIA@U_RULE_MASK_ERROR?$AA@
	DD	FLAT:??_C@_0BM@JDFKLLDE@U_MISPLACED_COMPOUND_FILTER?$AA@
	DD	FLAT:??_C@_0BM@FACOKMBJ@U_MULTIPLE_COMPOUND_FILTERS?$AA@
	DD	FLAT:??_C@_0BF@KLJHOEML@U_INVALID_RBT_SYNTAX?$AA@
	DD	FLAT:??_C@_0BL@NDBAOCDH@U_INVALID_PROPERTY_PATTERN?$AA@
	DD	FLAT:??_C@_0BD@GOJELBMK@U_MALFORMED_PRAGMA?$AA@
	DD	FLAT:??_C@_0BD@BMOJELGE@U_UNCLOSED_SEGMENT?$AA@
	DD	FLAT:??_C@_0BK@LOBKJEIA@U_ILLEGAL_CHAR_IN_SEGMENT?$AA@
	DD	FLAT:??_C@_0BL@KFKFIHBE@U_VARIABLE_RANGE_EXHAUSTED?$AA@
	DD	FLAT:??_C@_0BJ@DCCMONOE@U_VARIABLE_RANGE_OVERLAP?$AA@
	DD	FLAT:??_C@_0BE@FDKFIJNL@U_ILLEGAL_CHARACTER?$AA@
	DD	FLAT:??_C@_0CA@KACBIGPO@U_INTERNAL_TRANSLITERATOR_ERROR?$AA@
	DD	FLAT:??_C@_0N@BNHHILAO@U_INVALID_ID?$AA@
	DD	FLAT:??_C@_0BD@NCMJBGLN@U_INVALID_FUNCTION?$AA@
	ORG $+4
__uErrorName DD	FLAT:??_C@_0N@LOMOKELP@U_ZERO_ERROR?$AA@
	DD	FLAT:??_C@_0BJ@IIAKAILN@U_ILLEGAL_ARGUMENT_ERROR?$AA@
	DD	FLAT:??_C@_0BJ@CDKLJAIO@U_MISSING_RESOURCE_ERROR?$AA@
	DD	FLAT:??_C@_0BH@FDABEDI@U_INVALID_FORMAT_ERROR?$AA@
	DD	FLAT:??_C@_0BE@EAMIPHEL@U_FILE_ACCESS_ERROR?$AA@
	DD	FLAT:??_C@_0BJ@FCECJFAG@U_INTERNAL_PROGRAM_ERROR?$AA@
	DD	FLAT:??_C@_0BG@MHJOCOME@U_MESSAGE_PARSE_ERROR?$AA@
	DD	FLAT:??_C@_0BK@KAMCFANH@U_MEMORY_ALLOCATION_ERROR?$AA@
	DD	FLAT:??_C@_0BK@IPHPHDC@U_INDEX_OUTOFBOUNDS_ERROR?$AA@
	DD	FLAT:??_C@_0O@EFHMBGMI@U_PARSE_ERROR?$AA@
	DD	FLAT:??_C@_0BF@PDEIPDGJ@U_INVALID_CHAR_FOUND?$AA@
	DD	FLAT:??_C@_0BH@HILJKOBB@U_TRUNCATED_CHAR_FOUND?$AA@
	DD	FLAT:??_C@_0BF@LAHOPJOM@U_ILLEGAL_CHAR_FOUND?$AA@
	DD	FLAT:??_C@_0BH@HOILABCG@U_INVALID_TABLE_FORMAT?$AA@
	DD	FLAT:??_C@_0BF@DCBLOJJN@U_INVALID_TABLE_FILE?$AA@
	DD	FLAT:??_C@_0BI@CBLFEFII@U_BUFFER_OVERFLOW_ERROR?$AA@
	DD	FLAT:??_C@_0BE@LMGPLIKN@U_UNSUPPORTED_ERROR?$AA@
	DD	FLAT:??_C@_0BJ@DFGMCALF@U_RESOURCE_TYPE_MISMATCH?$AA@
	DD	FLAT:??_C@_0BK@BCEDIBHK@U_ILLEGAL_ESCAPE_SEQUENCE?$AA@
	DD	FLAT:??_C@_0BO@BNNGDCAB@U_UNSUPPORTED_ESCAPE_SEQUENCE?$AA@
	DD	FLAT:??_C@_0BF@FABPKAPH@U_NO_SPACE_AVAILABLE?$AA@
	DD	FLAT:??_C@_0BF@LNNCDJOI@U_CE_NOT_FOUND_ERROR?$AA@
	DD	FLAT:??_C@_0BJ@OIAIJAPD@U_PRIMARY_TOO_LONG_ERROR?$AA@
	DD	FLAT:??_C@_0BG@OAKEAKN@U_STATE_TOO_OLD_ERROR?$AA@
	DD	FLAT:??_C@_0BJ@OIMADFIA@U_TOO_MANY_ALIASES_ERROR?$AA@
	DD	FLAT:??_C@_0BJ@BNMOCDFF@U_ENUM_OUT_OF_SYNC_ERROR?$AA@
	DD	FLAT:??_C@_0BN@BNFGNGAM@U_INVARIANT_CONVERSION_ERROR?$AA@
	DD	FLAT:??_C@_0BG@HNOCGAON@U_INVALID_STATE_ERROR?$AA@
	DD	FLAT:??_C@_0BM@MHNHIAOK@U_COLLATOR_VERSION_MISMATCH?$AA@
	DD	FLAT:??_C@_0BJ@CMKADCCG@U_USELESS_COLLATOR_ERROR?$AA@
	DD	FLAT:??_C@_0BG@LMCEFEFM@U_NO_WRITE_PERMISSION?$AA@
	ORG $+4
__uFmtErrorName DD FLAT:??_C@_0BD@NBFPCOLI@U_UNEXPECTED_TOKEN?$AA@
	DD	FLAT:??_C@_0BO@EFMGDIGF@U_MULTIPLE_DECIMAL_SEPARATORS?$AA@
	DD	FLAT:??_C@_0BP@NFLKPBKG@U_MULTIPLE_EXPONENTIAL_SYMBOLS?$AA@
	DD	FLAT:??_C@_0CA@MMLBCGFG@U_MALFORMED_EXPONENTIAL_PATTERN?$AA@
	DD	FLAT:??_C@_0BL@ECAHCJOG@U_MULTIPLE_PERCENT_SYMBOLS?$AA@
	DD	FLAT:??_C@_0BL@NBPOBAAK@U_MULTIPLE_PERMILL_SYMBOLS?$AA@
	DD	FLAT:??_C@_0BK@CMNJMCIJ@U_MULTIPLE_PAD_SPECIFIERS?$AA@
	DD	FLAT:??_C@_0BH@OODOJPEP@U_PATTERN_SYNTAX_ERROR?$AA@
	DD	FLAT:??_C@_0BH@PPPNIOHJ@U_ILLEGAL_PAD_POSITION?$AA@
	DD	FLAT:??_C@_0BD@HBOJFOEI@U_UNMATCHED_BRACES?$AA@
	DD	FLAT:??_C@_0BH@IBGHDAEC@U_UNSUPPORTED_PROPERTY?$AA@
	DD	FLAT:??_C@_0BI@LPCDPAAL@U_UNSUPPORTED_ATTRIBUTE?$AA@
	DD	FLAT:??_C@_0BJ@OPIEIKGH@U_ARGUMENT_TYPE_MISMATCH?$AA@
	DD	FLAT:??_C@_0BE@PJNNEHLH@U_DUPLICATE_KEYWORD?$AA@
	DD	FLAT:??_C@_0BE@EAHGHIML@U_UNDEFINED_KEYWORD?$AA@
	DD	FLAT:??_C@_0BK@CNMODCJE@U_DEFAULT_KEYWORD_MISSING?$AA@
	DD	FLAT:??_C@_0BO@NBDBGPKK@U_DECIMAL_NUMBER_SYNTAX_ERROR?$AA@
	DD	FLAT:??_C@_0BH@EGLHOOIG@U_FORMAT_INEXACT_ERROR?$AA@
__uBrkErrorName DD FLAT:??_C@_0BF@DJPDIGJA@U_BRK_INTERNAL_ERROR?$AA@
	DD	FLAT:??_C@_0BK@JAPOHCEJ@U_BRK_HEX_DIGITS_EXPECTED?$AA@
	DD	FLAT:??_C@_0BJ@BKKFKONP@U_BRK_SEMICOLON_EXPECTED?$AA@
	DD	FLAT:??_C@_0BC@BHBJALIJ@U_BRK_RULE_SYNTAX?$AA@
	DD	FLAT:??_C@_0BD@BBKLCDPC@U_BRK_UNCLOSED_SET?$AA@
	DD	FLAT:??_C@_0BD@PAAIBLGA@U_BRK_ASSIGN_ERROR?$AA@
	DD	FLAT:??_C@_0BL@INAMALFI@U_BRK_VARIABLE_REDFINITION?$AA@
	DD	FLAT:??_C@_0BH@JDJGBGCD@U_BRK_MISMATCHED_PAREN?$AA@
	DD	FLAT:??_C@_0CA@DKAOKJNF@U_BRK_NEW_LINE_IN_QUOTED_STRING?$AA@
	DD	FLAT:??_C@_0BJ@BACHKFCP@U_BRK_UNDEFINED_VARIABLE?$AA@
	DD	FLAT:??_C@_0BB@KKBGGLIB@U_BRK_INIT_ERROR?$AA@
	DD	FLAT:??_C@_0BF@PHENLLAJ@U_BRK_RULE_EMPTY_SET?$AA@
	DD	FLAT:??_C@_0BK@HIJIOFPG@U_BRK_UNRECOGNIZED_OPTION?$AA@
	DD	FLAT:??_C@_0BJ@KECDDJMA@U_BRK_MALFORMED_RULE_TAG?$AA@
__uRegexErrorName DD FLAT:??_C@_0BH@EBBLFGNO@U_REGEX_INTERNAL_ERROR?$AA@
	DD	FLAT:??_C@_0BE@OHAMNNDN@U_REGEX_RULE_SYNTAX?$AA@
	DD	FLAT:??_C@_0BG@BDPHCFML@U_REGEX_INVALID_STATE?$AA@
	DD	FLAT:??_C@_0BM@CGABNEBP@U_REGEX_BAD_ESCAPE_SEQUENCE?$AA@
	DD	FLAT:??_C@_0BI@DMNGJE@U_REGEX_PROPERTY_SYNTAX?$AA@
	DD	FLAT:??_C@_0BG@PMCPPAJO@U_REGEX_UNIMPLEMENTED?$AA@
	DD	FLAT:??_C@_0BJ@HLLPNOJE@U_REGEX_MISMATCHED_PAREN?$AA@
	DD	FLAT:??_C@_0BH@JIGNKOIL@U_REGEX_NUMBER_TOO_BIG?$AA@
	DD	FLAT:??_C@_0BF@FHBIEMID@U_REGEX_BAD_INTERVAL?$AA@
	DD	FLAT:??_C@_0BD@JLPMAMIA@U_REGEX_MAX_LT_MIN?$AA@
	DD	FLAT:??_C@_0BJ@CHAJOJFC@U_REGEX_INVALID_BACK_REF?$AA@
	DD	FLAT:??_C@_0BF@MBEJAOBH@U_REGEX_INVALID_FLAG?$AA@
	DD	FLAT:??_C@_0BK@GHHPEBDG@U_REGEX_LOOK_BEHIND_LIMIT?$AA@
	DD	FLAT:??_C@_0BM@LJDFJLEM@U_REGEX_SET_CONTAINS_STRING?$AA@
	DD	FLAT:??_C@_0BG@LDCEAIDM@U_REGEX_OCTAL_TOO_BIG?$AA@
	DD	FLAT:??_C@_0BO@EGFBHLD@U_REGEX_MISSING_CLOSE_BRACKET?$AA@
	DD	FLAT:??_C@_0BG@DGKIODOD@U_REGEX_INVALID_RANGE?$AA@
	DD	FLAT:??_C@_0BH@CNCEBALI@U_REGEX_STACK_OVERFLOW?$AA@
	DD	FLAT:??_C@_0BB@GBPCOJDB@U_REGEX_TIME_OUT?$AA@
	DD	FLAT:??_C@_0BK@JCANIILI@U_REGEX_STOPPED_BY_CALLER?$AA@
	DD	FLAT:??_C@_0BI@DMKGMECD@U_REGEX_PATTERN_TOO_BIG?$AA@
	DD	FLAT:??_C@_0CD@ICCOIINJ@U_REGEX_INVALID_CAPTURE_GROUP_NA@
__uPluginErrorName DD FLAT:??_C@_0BC@HCDNNNDM@U_PLUGIN_TOO_HIGH?$AA@
	DD	FLAT:??_C@_0BJ@DEIHEAJ@U_PLUGIN_DIDNT_SET_LEVEL?$AA@
CONST	ENDS
;	COMDAT ??_C@_0BP@NCPBLEP@U_PLUGIN_CHANGED_LEVEL_WARNING?$AA@
CONST	SEGMENT
??_C@_0BP@NCPBLEP@U_PLUGIN_CHANGED_LEVEL_WARNING?$AA@ DB 'U_PLUGIN_CHANGE'
	DB	'D_LEVEL_WARNING', 00H			; `string'
CONST	ENDS
;	COMDAT ??_C@_0BI@PKNLICGA@U_DIFFERENT_UCA_VERSION?$AA@
CONST	SEGMENT
??_C@_0BI@PKNLICGA@U_DIFFERENT_UCA_VERSION?$AA@ DB 'U_DIFFERENT_UCA_VERSI'
	DB	'ON', 00H					; `string'
CONST	ENDS
;	COMDAT ??_C@_0BK@JKMJJNOP@U_AMBIGUOUS_ALIAS_WARNING?$AA@
CONST	SEGMENT
??_C@_0BK@JKMJJNOP@U_AMBIGUOUS_ALIAS_WARNING?$AA@ DB 'U_AMBIGUOUS_ALIAS_W'
	DB	'ARNING', 00H				; `string'
CONST	ENDS
;	COMDAT ??_C@_0BN@PONDFFEG@U_SORT_KEY_TOO_SHORT_WARNING?$AA@
CONST	SEGMENT
??_C@_0BN@PONDFFEG@U_SORT_KEY_TOO_SHORT_WARNING?$AA@ DB 'U_SORT_KEY_TOO_S'
	DB	'HORT_WARNING', 00H				; `string'
CONST	ENDS
;	COMDAT ??_C@_0CA@EHNALNIK@U_STRING_NOT_TERMINATED_WARNING?$AA@
CONST	SEGMENT
??_C@_0CA@EHNALNIK@U_STRING_NOT_TERMINATED_WARNING?$AA@ DB 'U_STRING_NOT_'
	DB	'TERMINATED_WARNING', 00H			; `string'
CONST	ENDS
;	COMDAT ??_C@_0BE@KHMKGGKB@U_STATE_OLD_WARNING?$AA@
CONST	SEGMENT
??_C@_0BE@KHMKGGKB@U_STATE_OLD_WARNING?$AA@ DB 'U_STATE_OLD_WARNING', 00H ; `string'
CONST	ENDS
;	COMDAT ??_C@_0BO@FEAHLGIK@U_SAFECLONE_ALLOCATED_WARNING?$AA@
CONST	SEGMENT
??_C@_0BO@FEAHLGIK@U_SAFECLONE_ALLOCATED_WARNING?$AA@ DB 'U_SAFECLONE_ALL'
	DB	'OCATED_WARNING', 00H			; `string'
CONST	ENDS
;	COMDAT ??_C@_0BI@DHMJGOFN@U_USING_DEFAULT_WARNING?$AA@
CONST	SEGMENT
??_C@_0BI@DHMJGOFN@U_USING_DEFAULT_WARNING?$AA@ DB 'U_USING_DEFAULT_WARNI'
	DB	'NG', 00H					; `string'
CONST	ENDS
;	COMDAT ??_C@_0BJ@IHHGLMHP@U_USING_FALLBACK_WARNING?$AA@
CONST	SEGMENT
??_C@_0BJ@IHHGLMHP@U_USING_FALLBACK_WARNING?$AA@ DB 'U_USING_FALLBACK_WAR'
	DB	'NING', 00H					; `string'
CONST	ENDS
PUBLIC	??_C@_0BD@EJKLEBFD@?$FLBOGUS?5UErrorCode?$FN?$AA@ ; `string'
PUBLIC	_u_errorName_56
EXTRN	__RTC_Shutdown:PROC
EXTRN	__RTC_InitBase:PROC
;	COMDAT ??_C@_0BD@EJKLEBFD@?$FLBOGUS?5UErrorCode?$FN?$AA@
; File d:\mozilla\intl\icu\source\common\utypes.c
CONST	SEGMENT
??_C@_0BD@EJKLEBFD@?$FLBOGUS?5UErrorCode?$FN?$AA@ DB '[BOGUS UErrorCode]', 00H ; `string'
CONST	ENDS
;	COMDAT rtc$TMZ
rtc$TMZ	SEGMENT
__RTC_Shutdown.rtc$TMZ DD FLAT:__RTC_Shutdown
rtc$TMZ	ENDS
;	COMDAT rtc$IMZ
rtc$IMZ	SEGMENT
__RTC_InitBase.rtc$IMZ DD FLAT:__RTC_InitBase
; Function compile flags: /Odtp /RTCsu /ZI
rtc$IMZ	ENDS
;	COMDAT _u_errorName_56
_TEXT	SEGMENT
_code$ = 8						; size = 4
_u_errorName_56 PROC					; COMDAT
; Line 193
	push	ebp
	mov	ebp, esp
	sub	esp, 192				; 000000c0H
	push	ebx
	push	esi
	push	edi
	lea	edi, DWORD PTR [ebp-192]
	mov	ecx, 48					; 00000030H
	mov	eax, -858993460				; ccccccccH
	rep stosd
; Line 194
	cmp	DWORD PTR _code$[ebp], 0
	jl	SHORT $LN16@u_errorNam
	cmp	DWORD PTR _code$[ebp], 31		; 0000001fH
	jge	SHORT $LN16@u_errorNam
; Line 195
	mov	eax, DWORD PTR _code$[ebp]
	mov	eax, DWORD PTR __uErrorName[eax*4]
	jmp	$LN17@u_errorNam
	jmp	$LN17@u_errorNam
$LN16@u_errorNam:
; Line 196
	cmp	DWORD PTR _code$[ebp], -128		; ffffff80H
	jl	SHORT $LN14@u_errorNam
	cmp	DWORD PTR _code$[ebp], -119		; ffffff89H
	jge	SHORT $LN14@u_errorNam
; Line 197
	mov	eax, DWORD PTR _code$[ebp]
	mov	eax, DWORD PTR __uErrorInfoName[eax*4+512]
	jmp	$LN17@u_errorNam
	jmp	$LN17@u_errorNam
$LN14@u_errorNam:
; Line 198
	cmp	DWORD PTR _code$[ebp], 65536		; 00010000H
	jl	SHORT $LN12@u_errorNam
	cmp	DWORD PTR _code$[ebp], 65571		; 00010023H
	jge	SHORT $LN12@u_errorNam
; Line 199
	mov	eax, DWORD PTR _code$[ebp]
	mov	eax, DWORD PTR __uTransErrorName[eax*4-262144]
	jmp	$LN17@u_errorNam
	jmp	$LN17@u_errorNam
$LN12@u_errorNam:
; Line 200
	cmp	DWORD PTR _code$[ebp], 65792		; 00010100H
	jl	SHORT $LN10@u_errorNam
	cmp	DWORD PTR _code$[ebp], 65810		; 00010112H
	jge	SHORT $LN10@u_errorNam
; Line 201
	mov	eax, DWORD PTR _code$[ebp]
	mov	eax, DWORD PTR __uFmtErrorName[eax*4-263168]
	jmp	$LN17@u_errorNam
	jmp	$LN17@u_errorNam
$LN10@u_errorNam:
; Line 202
	cmp	DWORD PTR _code$[ebp], 66048		; 00010200H
	jl	SHORT $LN8@u_errorNam
	cmp	DWORD PTR _code$[ebp], 66062		; 0001020eH
	jge	SHORT $LN8@u_errorNam
; Line 203
	mov	eax, DWORD PTR _code$[ebp]
	mov	eax, DWORD PTR __uBrkErrorName[eax*4-264192]
	jmp	SHORT $LN17@u_errorNam
	jmp	SHORT $LN17@u_errorNam
$LN8@u_errorNam:
; Line 204
	cmp	DWORD PTR _code$[ebp], 66304		; 00010300H
	jl	SHORT $LN6@u_errorNam
	cmp	DWORD PTR _code$[ebp], 66326		; 00010316H
	jge	SHORT $LN6@u_errorNam
; Line 205
	mov	eax, DWORD PTR _code$[ebp]
	mov	eax, DWORD PTR __uRegexErrorName[eax*4-265216]
	jmp	SHORT $LN17@u_errorNam
	jmp	SHORT $LN17@u_errorNam
$LN6@u_errorNam:
; Line 206
	cmp	DWORD PTR _code$[ebp], 66560		; 00010400H
	jl	SHORT $LN4@u_errorNam
	cmp	DWORD PTR _code$[ebp], 66569		; 00010409H
	jge	SHORT $LN4@u_errorNam
; Line 207
	mov	eax, DWORD PTR _code$[ebp]
	mov	eax, DWORD PTR __uIDNAErrorName[eax*4-266240]
	jmp	SHORT $LN17@u_errorNam
	jmp	SHORT $LN17@u_errorNam
$LN4@u_errorNam:
; Line 208
	cmp	DWORD PTR _code$[ebp], 66816		; 00010500H
	jl	SHORT $LN2@u_errorNam
	cmp	DWORD PTR _code$[ebp], 66818		; 00010502H
	jge	SHORT $LN2@u_errorNam
; Line 209
	mov	eax, DWORD PTR _code$[ebp]
	mov	eax, DWORD PTR __uPluginErrorName[eax*4-267264]
	jmp	SHORT $LN17@u_errorNam
; Line 210
	jmp	SHORT $LN17@u_errorNam
$LN2@u_errorNam:
; Line 211
	mov	eax, OFFSET ??_C@_0BD@EJKLEBFD@?$FLBOGUS?5UErrorCode?$FN?$AA@
$LN17@u_errorNam:
; Line 213
	pop	edi
	pop	esi
	pop	ebx
	mov	esp, ebp
	pop	ebp
	ret	0
_u_errorName_56 ENDP
_TEXT	ENDS
END
