; Listing generated by Microsoft (R) Optimizing Compiler Version 16.00.40219.01 

	TITLE	D:\mozilla\intl\icu\source\i18n\calendar.cpp
	.686P
	.XMM
	include listing.inc
	.model	flat

INCLUDELIB MSVCRTD
INCLUDELIB OLDNAMES

PUBLIC	??_C@_0N@CCIEDMHH@islamic?9rgsa?$AA@		; `string'
PUBLIC	??_C@_0N@INGANNKI@islamic?9tbla?$AA@		; `string'
PUBLIC	??_C@_0BB@FLKIAIEL@islamic?9umalqura?$AA@	; `string'
PUBLIC	??_C@_05FLFEMAJG@dangi?$AA@			; `string'
PUBLIC	??_C@_07NHHMFKCH@iso8601?$AA@			; `string'
PUBLIC	??_C@_0BE@IDOMJDKB@ethiopic?9amete?9alem?$AA@	; `string'
PUBLIC	??_C@_08MJDBGEAL@ethiopic?$AA@			; `string'
PUBLIC	??_C@_06DFDGNELJ@coptic?$AA@			; `string'
PUBLIC	??_C@_06NGLEMJKH@indian?$AA@			; `string'
PUBLIC	??_C@_07DHNMFMCI@chinese?$AA@			; `string'
PUBLIC	??_C@_06IOFFBGCK@hebrew?$AA@			; `string'
PUBLIC	??_C@_07JDAHCHHJ@islamic?$AA@			; `string'
PUBLIC	??_C@_0O@EJHMIKNN@islamic?9civil?$AA@		; `string'
PUBLIC	??_C@_07ODNOLLCG@persian?$AA@			; `string'
PUBLIC	??_C@_03BCNGPMIN@roc?$AA@			; `string'
PUBLIC	??_C@_08JBMHBGMD@buddhist?$AA@			; `string'
PUBLIC	??_C@_08IHPNMLGM@japanese?$AA@			; `string'
PUBLIC	??_C@_09KJPEOOPA@gregorian?$AA@			; `string'
PUBLIC	?value@?$integral_constant@_N$0A@@tr1@std@@2_NB	; std::tr1::integral_constant<bool,0>::value
PUBLIC	?value@?$integral_constant@_N$00@tr1@std@@2_NB	; std::tr1::integral_constant<bool,1>::value
PUBLIC	?value@?$integral_constant@I$0A@@tr1@std@@2IB	; std::tr1::integral_constant<unsigned int,0>::value
PUBLIC	?_Rank@?$_Arithmetic_traits@_N@std@@2HB		; std::_Arithmetic_traits<bool>::_Rank
PUBLIC	?_Rank@?$_Arithmetic_traits@D@std@@2HB		; std::_Arithmetic_traits<char>::_Rank
PUBLIC	?_Rank@?$_Arithmetic_traits@C@std@@2HB		; std::_Arithmetic_traits<signed char>::_Rank
PUBLIC	?_Rank@?$_Arithmetic_traits@E@std@@2HB		; std::_Arithmetic_traits<unsigned char>::_Rank
PUBLIC	?_Rank@?$_Arithmetic_traits@F@std@@2HB		; std::_Arithmetic_traits<short>::_Rank
PUBLIC	?_Rank@?$_Arithmetic_traits@G@std@@2HB		; std::_Arithmetic_traits<unsigned short>::_Rank
PUBLIC	?_Rank@?$_Arithmetic_traits@H@std@@2HB		; std::_Arithmetic_traits<int>::_Rank
PUBLIC	?_Rank@?$_Arithmetic_traits@I@std@@2HB		; std::_Arithmetic_traits<unsigned int>::_Rank
PUBLIC	?_Rank@?$_Arithmetic_traits@J@std@@2HB		; std::_Arithmetic_traits<long>::_Rank
PUBLIC	?_Rank@?$_Arithmetic_traits@K@std@@2HB		; std::_Arithmetic_traits<unsigned long>::_Rank
PUBLIC	?_Rank@?$_Arithmetic_traits@_J@std@@2HB		; std::_Arithmetic_traits<__int64>::_Rank
PUBLIC	?_Rank@?$_Arithmetic_traits@_K@std@@2HB		; std::_Arithmetic_traits<unsigned __int64>::_Rank
PUBLIC	?_Rank@?$_Arithmetic_traits@M@std@@2HB		; std::_Arithmetic_traits<float>::_Rank
PUBLIC	?_Rank@?$_Arithmetic_traits@N@std@@2HB		; std::_Arithmetic_traits<double>::_Rank
PUBLIC	?_Rank@?$_Arithmetic_traits@O@std@@2HB		; std::_Arithmetic_traits<long double>::_Rank
PUBLIC	?collate@?$_Locbase@H@std@@2HB			; std::_Locbase<int>::collate
PUBLIC	?ctype@?$_Locbase@H@std@@2HB			; std::_Locbase<int>::ctype
PUBLIC	?monetary@?$_Locbase@H@std@@2HB			; std::_Locbase<int>::monetary
PUBLIC	?numeric@?$_Locbase@H@std@@2HB			; std::_Locbase<int>::numeric
PUBLIC	?time@?$_Locbase@H@std@@2HB			; std::_Locbase<int>::time
PUBLIC	?messages@?$_Locbase@H@std@@2HB			; std::_Locbase<int>::messages
PUBLIC	?all@?$_Locbase@H@std@@2HB			; std::_Locbase<int>::all
PUBLIC	?none@?$_Locbase@H@std@@2HB			; std::_Locbase<int>::none
PUBLIC	?skipws@?$_Iosb@H@std@@2W4_Fmtflags@12@B	; std::_Iosb<int>::skipws
PUBLIC	?unitbuf@?$_Iosb@H@std@@2W4_Fmtflags@12@B	; std::_Iosb<int>::unitbuf
PUBLIC	?uppercase@?$_Iosb@H@std@@2W4_Fmtflags@12@B	; std::_Iosb<int>::uppercase
PUBLIC	?showbase@?$_Iosb@H@std@@2W4_Fmtflags@12@B	; std::_Iosb<int>::showbase
PUBLIC	?showpoint@?$_Iosb@H@std@@2W4_Fmtflags@12@B	; std::_Iosb<int>::showpoint
PUBLIC	?showpos@?$_Iosb@H@std@@2W4_Fmtflags@12@B	; std::_Iosb<int>::showpos
PUBLIC	?left@?$_Iosb@H@std@@2W4_Fmtflags@12@B		; std::_Iosb<int>::left
PUBLIC	?right@?$_Iosb@H@std@@2W4_Fmtflags@12@B		; std::_Iosb<int>::right
PUBLIC	?internal@?$_Iosb@H@std@@2W4_Fmtflags@12@B	; std::_Iosb<int>::internal
PUBLIC	?dec@?$_Iosb@H@std@@2W4_Fmtflags@12@B		; std::_Iosb<int>::dec
PUBLIC	?oct@?$_Iosb@H@std@@2W4_Fmtflags@12@B		; std::_Iosb<int>::oct
PUBLIC	?hex@?$_Iosb@H@std@@2W4_Fmtflags@12@B		; std::_Iosb<int>::hex
PUBLIC	?scientific@?$_Iosb@H@std@@2W4_Fmtflags@12@B	; std::_Iosb<int>::scientific
PUBLIC	?fixed@?$_Iosb@H@std@@2W4_Fmtflags@12@B		; std::_Iosb<int>::fixed
PUBLIC	?hexfloat@?$_Iosb@H@std@@2W4_Fmtflags@12@B	; std::_Iosb<int>::hexfloat
PUBLIC	?boolalpha@?$_Iosb@H@std@@2W4_Fmtflags@12@B	; std::_Iosb<int>::boolalpha
PUBLIC	?_Stdio@?$_Iosb@H@std@@2W4_Fmtflags@12@B	; std::_Iosb<int>::_Stdio
PUBLIC	?adjustfield@?$_Iosb@H@std@@2W4_Fmtflags@12@B	; std::_Iosb<int>::adjustfield
PUBLIC	?basefield@?$_Iosb@H@std@@2W4_Fmtflags@12@B	; std::_Iosb<int>::basefield
PUBLIC	?floatfield@?$_Iosb@H@std@@2W4_Fmtflags@12@B	; std::_Iosb<int>::floatfield
PUBLIC	?goodbit@?$_Iosb@H@std@@2W4_Iostate@12@B	; std::_Iosb<int>::goodbit
PUBLIC	?eofbit@?$_Iosb@H@std@@2W4_Iostate@12@B		; std::_Iosb<int>::eofbit
PUBLIC	?failbit@?$_Iosb@H@std@@2W4_Iostate@12@B	; std::_Iosb<int>::failbit
PUBLIC	?badbit@?$_Iosb@H@std@@2W4_Iostate@12@B		; std::_Iosb<int>::badbit
PUBLIC	?_Hardfail@?$_Iosb@H@std@@2W4_Iostate@12@B	; std::_Iosb<int>::_Hardfail
PUBLIC	?in@?$_Iosb@H@std@@2W4_Openmode@12@B		; std::_Iosb<int>::in
PUBLIC	?out@?$_Iosb@H@std@@2W4_Openmode@12@B		; std::_Iosb<int>::out
PUBLIC	?ate@?$_Iosb@H@std@@2W4_Openmode@12@B		; std::_Iosb<int>::ate
PUBLIC	?app@?$_Iosb@H@std@@2W4_Openmode@12@B		; std::_Iosb<int>::app
PUBLIC	?trunc@?$_Iosb@H@std@@2W4_Openmode@12@B		; std::_Iosb<int>::trunc
PUBLIC	?_Nocreate@?$_Iosb@H@std@@2W4_Openmode@12@B	; std::_Iosb<int>::_Nocreate
PUBLIC	?_Noreplace@?$_Iosb@H@std@@2W4_Openmode@12@B	; std::_Iosb<int>::_Noreplace
PUBLIC	?binary@?$_Iosb@H@std@@2W4_Openmode@12@B	; std::_Iosb<int>::binary
PUBLIC	?beg@?$_Iosb@H@std@@2W4_Seekdir@12@B		; std::_Iosb<int>::beg
PUBLIC	?cur@?$_Iosb@H@std@@2W4_Seekdir@12@B		; std::_Iosb<int>::cur
PUBLIC	?end@?$_Iosb@H@std@@2W4_Seekdir@12@B		; std::_Iosb<int>::end
PUBLIC	?kDatePrecedence@Calendar@icu_56@@1QAY1M@7$$CBHA ; icu_56::Calendar::kDatePrecedence
PUBLIC	?kDOWPrecedence@Calendar@icu_56@@1QAY1M@7$$CBHA	; icu_56::Calendar::kDOWPrecedence
PUBLIC	?kYearPrecedence@Calendar@icu_56@@1QAY1M@7$$CBHA ; icu_56::Calendar::kYearPrecedence
_BSS	SEGMENT
_gService DD	01H DUP (?)
_gServiceInitOnce DQ 01H DUP (?)
_BSS	ENDS
CONST	SEGMENT
_gCalTypes DD	FLAT:??_C@_09KJPEOOPA@gregorian?$AA@
	DD	FLAT:??_C@_08IHPNMLGM@japanese?$AA@
	DD	FLAT:??_C@_08JBMHBGMD@buddhist?$AA@
	DD	FLAT:??_C@_03BCNGPMIN@roc?$AA@
	DD	FLAT:??_C@_07ODNOLLCG@persian?$AA@
	DD	FLAT:??_C@_0O@EJHMIKNN@islamic?9civil?$AA@
	DD	FLAT:??_C@_07JDAHCHHJ@islamic?$AA@
	DD	FLAT:??_C@_06IOFFBGCK@hebrew?$AA@
	DD	FLAT:??_C@_07DHNMFMCI@chinese?$AA@
	DD	FLAT:??_C@_06NGLEMJKH@indian?$AA@
	DD	FLAT:??_C@_06DFDGNELJ@coptic?$AA@
	DD	FLAT:??_C@_08MJDBGEAL@ethiopic?$AA@
	DD	FLAT:??_C@_0BE@IDOMJDKB@ethiopic?9amete?9alem?$AA@
	DD	FLAT:??_C@_07NHHMFKCH@iso8601?$AA@
	DD	FLAT:??_C@_05FLFEMAJG@dangi?$AA@
	DD	FLAT:??_C@_0BB@FLKIAIEL@islamic?9umalqura?$AA@
	DD	FLAT:??_C@_0N@INGANNKI@islamic?9tbla?$AA@
	DD	FLAT:??_C@_0N@CCIEDMHH@islamic?9rgsa?$AA@
	DD	00H
_gMonthNames DB	'monthNames', 00H
	ORG $+1
_kCalendarLimits DD 0ffffffffH
	DD	0ffffffffH
	DD	0ffffffffH
	DD	0ffffffffH
	DD	0ffffffffH
	DD	0ffffffffH
	DD	0ffffffffH
	DD	0ffffffffH
	DD	0ffffffffH
	DD	0ffffffffH
	DD	0ffffffffH
	DD	0ffffffffH
	DD	0ffffffffH
	DD	0ffffffffH
	DD	0ffffffffH
	DD	0ffffffffH
	DD	0ffffffffH
	DD	0ffffffffH
	DD	0ffffffffH
	DD	0ffffffffH
	DD	0ffffffffH
	DD	0ffffffffH
	DD	0ffffffffH
	DD	0ffffffffH
	DD	0ffffffffH
	DD	0ffffffffH
	DD	0ffffffffH
	DD	0ffffffffH
	DD	01H
	DD	01H
	DD	07H
	DD	07H
	DD	0ffffffffH
	DD	0ffffffffH
	DD	0ffffffffH
	DD	0ffffffffH
	DD	00H
	DD	00H
	DD	01H
	DD	01H
	DD	00H
	DD	00H
	DD	0bH
	DD	0bH
	DD	00H
	DD	00H
	DD	017H
	DD	017H
	DD	00H
	DD	00H
	DD	03bH
	DD	03bH
	DD	00H
	DD	00H
	DD	03bH
	DD	03bH
	DD	00H
	DD	00H
	DD	03e7H
	DD	03e7H
	DD	0fd6cd200H
	DD	0fd6cd200H
	DD	02932e00H
	DD	0337f980H
	DD	00H
	DD	00H
	DD	036ee80H
	DD	036ee80H
	DD	0ffffffffH
	DD	0ffffffffH
	DD	0ffffffffH
	DD	0ffffffffH
	DD	01H
	DD	01H
	DD	07H
	DD	07H
	DD	0ffffffffH
	DD	0ffffffffH
	DD	0ffffffffH
	DD	0ffffffffH
	DD	081000000H
	DD	081000000H
	DD	07f000000H
	DD	07f000000H
	DD	00H
	DD	00H
	DD	05265bffH
	DD	05265bffH
	DD	00H
	DD	00H
	DD	01H
	DD	01H
?kDatePrecedence@Calendar@icu_56@@1QAY1M@7$$CBHA DD 05H	; icu_56::Calendar::kDatePrecedence
	DD	0ffffffffH
	ORG $+24
	DD	03H
	DD	07H
	DD	0ffffffffH
	ORG $+20
	DD	04H
	DD	07H
	DD	0ffffffffH
	ORG $+20
	DD	08H
	DD	07H
	DD	0ffffffffH
	ORG $+20
	DD	03H
	DD	012H
	DD	0ffffffffH
	ORG $+20
	DD	04H
	DD	012H
	DD	0ffffffffH
	ORG $+20
	DD	08H
	DD	012H
	DD	0ffffffffH
	ORG $+20
	DD	06H
	DD	0ffffffffH
	ORG $+24
	DD	025H
	DD	01H
	DD	0ffffffffH
	ORG $+20
	DD	023H
	DD	011H
	DD	0ffffffffH
	ORG $+20
	DD	0ffffffffH
	ORG $+28
	ORG $+32
	DD	03H
	DD	0ffffffffH
	ORG $+24
	DD	04H
	DD	0ffffffffH
	ORG $+24
	DD	08H
	DD	0ffffffffH
	ORG $+24
	DD	028H
	DD	07H
	DD	0ffffffffH
	ORG $+20
	DD	028H
	DD	012H
	DD	0ffffffffH
	ORG $+20
	DD	0ffffffffH
	ORG $+28
	ORG $+192
	DD	0ffffffffH
	ORG $+28
	ORG $+352
?kDOWPrecedence@Calendar@icu_56@@1QAY1M@7$$CBHA DD 07H	; icu_56::Calendar::kDOWPrecedence
	DD	0ffffffffH
	DD	0ffffffffH
	ORG $+20
	DD	012H
	DD	0ffffffffH
	DD	0ffffffffH
	ORG $+20
	DD	0ffffffffH
	ORG $+28
	ORG $+288
	DD	0ffffffffH
	ORG $+28
	ORG $+352
?kYearPrecedence@Calendar@icu_56@@1QAY1M@7$$CBHA DD 01H	; icu_56::Calendar::kYearPrecedence
	DD	0ffffffffH
	ORG $+24
	DD	013H
	DD	0ffffffffH
	ORG $+24
	DD	011H
	DD	03H
	DD	0ffffffffH
	ORG $+20
	DD	0ffffffffH
	ORG $+28
	ORG $+256
	DD	0ffffffffH
	ORG $+28
	ORG $+352
CONST	ENDS
;	COMDAT ??_C@_0N@CCIEDMHH@islamic?9rgsa?$AA@
CONST	SEGMENT
??_C@_0N@CCIEDMHH@islamic?9rgsa?$AA@ DB 'islamic-rgsa', 00H ; `string'
CONST	ENDS
;	COMDAT ??_C@_0N@INGANNKI@islamic?9tbla?$AA@
CONST	SEGMENT
??_C@_0N@INGANNKI@islamic?9tbla?$AA@ DB 'islamic-tbla', 00H ; `string'
CONST	ENDS
;	COMDAT ??_C@_0BB@FLKIAIEL@islamic?9umalqura?$AA@
CONST	SEGMENT
??_C@_0BB@FLKIAIEL@islamic?9umalqura?$AA@ DB 'islamic-umalqura', 00H ; `string'
CONST	ENDS
;	COMDAT ??_C@_05FLFEMAJG@dangi?$AA@
CONST	SEGMENT
??_C@_05FLFEMAJG@dangi?$AA@ DB 'dangi', 00H		; `string'
CONST	ENDS
;	COMDAT ??_C@_07NHHMFKCH@iso8601?$AA@
CONST	SEGMENT
??_C@_07NHHMFKCH@iso8601?$AA@ DB 'iso8601', 00H		; `string'
CONST	ENDS
;	COMDAT ??_C@_0BE@IDOMJDKB@ethiopic?9amete?9alem?$AA@
CONST	SEGMENT
??_C@_0BE@IDOMJDKB@ethiopic?9amete?9alem?$AA@ DB 'ethiopic-amete-alem', 00H ; `string'
CONST	ENDS
;	COMDAT ??_C@_08MJDBGEAL@ethiopic?$AA@
CONST	SEGMENT
??_C@_08MJDBGEAL@ethiopic?$AA@ DB 'ethiopic', 00H	; `string'
CONST	ENDS
;	COMDAT ??_C@_06DFDGNELJ@coptic?$AA@
CONST	SEGMENT
??_C@_06DFDGNELJ@coptic?$AA@ DB 'coptic', 00H		; `string'
CONST	ENDS
;	COMDAT ??_C@_06NGLEMJKH@indian?$AA@
CONST	SEGMENT
??_C@_06NGLEMJKH@indian?$AA@ DB 'indian', 00H		; `string'
CONST	ENDS
;	COMDAT ??_C@_07DHNMFMCI@chinese?$AA@
CONST	SEGMENT
??_C@_07DHNMFMCI@chinese?$AA@ DB 'chinese', 00H		; `string'
CONST	ENDS
;	COMDAT ??_C@_06IOFFBGCK@hebrew?$AA@
CONST	SEGMENT
??_C@_06IOFFBGCK@hebrew?$AA@ DB 'hebrew', 00H		; `string'
CONST	ENDS
;	COMDAT ??_C@_07JDAHCHHJ@islamic?$AA@
CONST	SEGMENT
??_C@_07JDAHCHHJ@islamic?$AA@ DB 'islamic', 00H		; `string'
CONST	ENDS
;	COMDAT ??_C@_0O@EJHMIKNN@islamic?9civil?$AA@
CONST	SEGMENT
??_C@_0O@EJHMIKNN@islamic?9civil?$AA@ DB 'islamic-civil', 00H ; `string'
CONST	ENDS
;	COMDAT ??_C@_07ODNOLLCG@persian?$AA@
CONST	SEGMENT
??_C@_07ODNOLLCG@persian?$AA@ DB 'persian', 00H		; `string'
CONST	ENDS
;	COMDAT ??_C@_03BCNGPMIN@roc?$AA@
CONST	SEGMENT
??_C@_03BCNGPMIN@roc?$AA@ DB 'roc', 00H			; `string'
CONST	ENDS
;	COMDAT ??_C@_08JBMHBGMD@buddhist?$AA@
CONST	SEGMENT
??_C@_08JBMHBGMD@buddhist?$AA@ DB 'buddhist', 00H	; `string'
CONST	ENDS
;	COMDAT ??_C@_08IHPNMLGM@japanese?$AA@
CONST	SEGMENT
??_C@_08IHPNMLGM@japanese?$AA@ DB 'japanese', 00H	; `string'
CONST	ENDS
;	COMDAT ??_C@_09KJPEOOPA@gregorian?$AA@
CONST	SEGMENT
??_C@_09KJPEOOPA@gregorian?$AA@ DB 'gregorian', 00H	; `string'
CONST	ENDS
;	COMDAT ?end@?$_Iosb@H@std@@2W4_Seekdir@12@B
CONST	SEGMENT
?end@?$_Iosb@H@std@@2W4_Seekdir@12@B DD 02H		; std::_Iosb<int>::end
CONST	ENDS
;	COMDAT ?cur@?$_Iosb@H@std@@2W4_Seekdir@12@B
CONST	SEGMENT
?cur@?$_Iosb@H@std@@2W4_Seekdir@12@B DD 01H		; std::_Iosb<int>::cur
CONST	ENDS
;	COMDAT ?beg@?$_Iosb@H@std@@2W4_Seekdir@12@B
CONST	SEGMENT
?beg@?$_Iosb@H@std@@2W4_Seekdir@12@B DD 00H		; std::_Iosb<int>::beg
CONST	ENDS
;	COMDAT ?binary@?$_Iosb@H@std@@2W4_Openmode@12@B
CONST	SEGMENT
?binary@?$_Iosb@H@std@@2W4_Openmode@12@B DD 020H	; std::_Iosb<int>::binary
CONST	ENDS
;	COMDAT ?_Noreplace@?$_Iosb@H@std@@2W4_Openmode@12@B
CONST	SEGMENT
?_Noreplace@?$_Iosb@H@std@@2W4_Openmode@12@B DD 080H	; std::_Iosb<int>::_Noreplace
CONST	ENDS
;	COMDAT ?_Nocreate@?$_Iosb@H@std@@2W4_Openmode@12@B
CONST	SEGMENT
?_Nocreate@?$_Iosb@H@std@@2W4_Openmode@12@B DD 040H	; std::_Iosb<int>::_Nocreate
CONST	ENDS
;	COMDAT ?trunc@?$_Iosb@H@std@@2W4_Openmode@12@B
CONST	SEGMENT
?trunc@?$_Iosb@H@std@@2W4_Openmode@12@B DD 010H		; std::_Iosb<int>::trunc
CONST	ENDS
;	COMDAT ?app@?$_Iosb@H@std@@2W4_Openmode@12@B
CONST	SEGMENT
?app@?$_Iosb@H@std@@2W4_Openmode@12@B DD 08H		; std::_Iosb<int>::app
CONST	ENDS
;	COMDAT ?ate@?$_Iosb@H@std@@2W4_Openmode@12@B
CONST	SEGMENT
?ate@?$_Iosb@H@std@@2W4_Openmode@12@B DD 04H		; std::_Iosb<int>::ate
CONST	ENDS
;	COMDAT ?out@?$_Iosb@H@std@@2W4_Openmode@12@B
CONST	SEGMENT
?out@?$_Iosb@H@std@@2W4_Openmode@12@B DD 02H		; std::_Iosb<int>::out
CONST	ENDS
;	COMDAT ?in@?$_Iosb@H@std@@2W4_Openmode@12@B
CONST	SEGMENT
?in@?$_Iosb@H@std@@2W4_Openmode@12@B DD 01H		; std::_Iosb<int>::in
CONST	ENDS
;	COMDAT ?_Hardfail@?$_Iosb@H@std@@2W4_Iostate@12@B
CONST	SEGMENT
?_Hardfail@?$_Iosb@H@std@@2W4_Iostate@12@B DD 010H	; std::_Iosb<int>::_Hardfail
CONST	ENDS
;	COMDAT ?badbit@?$_Iosb@H@std@@2W4_Iostate@12@B
CONST	SEGMENT
?badbit@?$_Iosb@H@std@@2W4_Iostate@12@B DD 04H		; std::_Iosb<int>::badbit
CONST	ENDS
;	COMDAT ?failbit@?$_Iosb@H@std@@2W4_Iostate@12@B
CONST	SEGMENT
?failbit@?$_Iosb@H@std@@2W4_Iostate@12@B DD 02H		; std::_Iosb<int>::failbit
CONST	ENDS
;	COMDAT ?eofbit@?$_Iosb@H@std@@2W4_Iostate@12@B
CONST	SEGMENT
?eofbit@?$_Iosb@H@std@@2W4_Iostate@12@B DD 01H		; std::_Iosb<int>::eofbit
CONST	ENDS
;	COMDAT ?goodbit@?$_Iosb@H@std@@2W4_Iostate@12@B
CONST	SEGMENT
?goodbit@?$_Iosb@H@std@@2W4_Iostate@12@B DD 00H		; std::_Iosb<int>::goodbit
CONST	ENDS
;	COMDAT ?floatfield@?$_Iosb@H@std@@2W4_Fmtflags@12@B
CONST	SEGMENT
?floatfield@?$_Iosb@H@std@@2W4_Fmtflags@12@B DD 03000H	; std::_Iosb<int>::floatfield
CONST	ENDS
;	COMDAT ?basefield@?$_Iosb@H@std@@2W4_Fmtflags@12@B
CONST	SEGMENT
?basefield@?$_Iosb@H@std@@2W4_Fmtflags@12@B DD 0e00H	; std::_Iosb<int>::basefield
CONST	ENDS
;	COMDAT ?adjustfield@?$_Iosb@H@std@@2W4_Fmtflags@12@B
CONST	SEGMENT
?adjustfield@?$_Iosb@H@std@@2W4_Fmtflags@12@B DD 01c0H	; std::_Iosb<int>::adjustfield
CONST	ENDS
;	COMDAT ?_Stdio@?$_Iosb@H@std@@2W4_Fmtflags@12@B
CONST	SEGMENT
?_Stdio@?$_Iosb@H@std@@2W4_Fmtflags@12@B DD 08000H	; std::_Iosb<int>::_Stdio
CONST	ENDS
;	COMDAT ?boolalpha@?$_Iosb@H@std@@2W4_Fmtflags@12@B
CONST	SEGMENT
?boolalpha@?$_Iosb@H@std@@2W4_Fmtflags@12@B DD 04000H	; std::_Iosb<int>::boolalpha
CONST	ENDS
;	COMDAT ?hexfloat@?$_Iosb@H@std@@2W4_Fmtflags@12@B
CONST	SEGMENT
?hexfloat@?$_Iosb@H@std@@2W4_Fmtflags@12@B DD 03000H	; std::_Iosb<int>::hexfloat
CONST	ENDS
;	COMDAT ?fixed@?$_Iosb@H@std@@2W4_Fmtflags@12@B
CONST	SEGMENT
?fixed@?$_Iosb@H@std@@2W4_Fmtflags@12@B DD 02000H	; std::_Iosb<int>::fixed
CONST	ENDS
;	COMDAT ?scientific@?$_Iosb@H@std@@2W4_Fmtflags@12@B
CONST	SEGMENT
?scientific@?$_Iosb@H@std@@2W4_Fmtflags@12@B DD 01000H	; std::_Iosb<int>::scientific
CONST	ENDS
;	COMDAT ?hex@?$_Iosb@H@std@@2W4_Fmtflags@12@B
CONST	SEGMENT
?hex@?$_Iosb@H@std@@2W4_Fmtflags@12@B DD 0800H		; std::_Iosb<int>::hex
CONST	ENDS
;	COMDAT ?oct@?$_Iosb@H@std@@2W4_Fmtflags@12@B
CONST	SEGMENT
?oct@?$_Iosb@H@std@@2W4_Fmtflags@12@B DD 0400H		; std::_Iosb<int>::oct
CONST	ENDS
;	COMDAT ?dec@?$_Iosb@H@std@@2W4_Fmtflags@12@B
CONST	SEGMENT
?dec@?$_Iosb@H@std@@2W4_Fmtflags@12@B DD 0200H		; std::_Iosb<int>::dec
CONST	ENDS
;	COMDAT ?internal@?$_Iosb@H@std@@2W4_Fmtflags@12@B
CONST	SEGMENT
?internal@?$_Iosb@H@std@@2W4_Fmtflags@12@B DD 0100H	; std::_Iosb<int>::internal
CONST	ENDS
;	COMDAT ?right@?$_Iosb@H@std@@2W4_Fmtflags@12@B
CONST	SEGMENT
?right@?$_Iosb@H@std@@2W4_Fmtflags@12@B DD 080H		; std::_Iosb<int>::right
CONST	ENDS
;	COMDAT ?left@?$_Iosb@H@std@@2W4_Fmtflags@12@B
CONST	SEGMENT
?left@?$_Iosb@H@std@@2W4_Fmtflags@12@B DD 040H		; std::_Iosb<int>::left
CONST	ENDS
;	COMDAT ?showpos@?$_Iosb@H@std@@2W4_Fmtflags@12@B
CONST	SEGMENT
?showpos@?$_Iosb@H@std@@2W4_Fmtflags@12@B DD 020H	; std::_Iosb<int>::showpos
CONST	ENDS
;	COMDAT ?showpoint@?$_Iosb@H@std@@2W4_Fmtflags@12@B
CONST	SEGMENT
?showpoint@?$_Iosb@H@std@@2W4_Fmtflags@12@B DD 010H	; std::_Iosb<int>::showpoint
CONST	ENDS
;	COMDAT ?showbase@?$_Iosb@H@std@@2W4_Fmtflags@12@B
CONST	SEGMENT
?showbase@?$_Iosb@H@std@@2W4_Fmtflags@12@B DD 08H	; std::_Iosb<int>::showbase
CONST	ENDS
;	COMDAT ?uppercase@?$_Iosb@H@std@@2W4_Fmtflags@12@B
CONST	SEGMENT
?uppercase@?$_Iosb@H@std@@2W4_Fmtflags@12@B DD 04H	; std::_Iosb<int>::uppercase
CONST	ENDS
;	COMDAT ?unitbuf@?$_Iosb@H@std@@2W4_Fmtflags@12@B
CONST	SEGMENT
?unitbuf@?$_Iosb@H@std@@2W4_Fmtflags@12@B DD 02H	; std::_Iosb<int>::unitbuf
CONST	ENDS
;	COMDAT ?skipws@?$_Iosb@H@std@@2W4_Fmtflags@12@B
CONST	SEGMENT
?skipws@?$_Iosb@H@std@@2W4_Fmtflags@12@B DD 01H		; std::_Iosb<int>::skipws
CONST	ENDS
;	COMDAT ?none@?$_Locbase@H@std@@2HB
CONST	SEGMENT
?none@?$_Locbase@H@std@@2HB DD 00H			; std::_Locbase<int>::none
CONST	ENDS
;	COMDAT ?all@?$_Locbase@H@std@@2HB
CONST	SEGMENT
?all@?$_Locbase@H@std@@2HB DD 03fH			; std::_Locbase<int>::all
CONST	ENDS
;	COMDAT ?messages@?$_Locbase@H@std@@2HB
CONST	SEGMENT
?messages@?$_Locbase@H@std@@2HB DD 020H			; std::_Locbase<int>::messages
CONST	ENDS
;	COMDAT ?time@?$_Locbase@H@std@@2HB
CONST	SEGMENT
?time@?$_Locbase@H@std@@2HB DD 010H			; std::_Locbase<int>::time
CONST	ENDS
;	COMDAT ?numeric@?$_Locbase@H@std@@2HB
CONST	SEGMENT
?numeric@?$_Locbase@H@std@@2HB DD 08H			; std::_Locbase<int>::numeric
CONST	ENDS
;	COMDAT ?monetary@?$_Locbase@H@std@@2HB
CONST	SEGMENT
?monetary@?$_Locbase@H@std@@2HB DD 04H			; std::_Locbase<int>::monetary
CONST	ENDS
;	COMDAT ?ctype@?$_Locbase@H@std@@2HB
CONST	SEGMENT
?ctype@?$_Locbase@H@std@@2HB DD 02H			; std::_Locbase<int>::ctype
CONST	ENDS
;	COMDAT ?collate@?$_Locbase@H@std@@2HB
CONST	SEGMENT
?collate@?$_Locbase@H@std@@2HB DD 01H			; std::_Locbase<int>::collate
CONST	ENDS
;	COMDAT ?_Rank@?$_Arithmetic_traits@O@std@@2HB
CONST	SEGMENT
?_Rank@?$_Arithmetic_traits@O@std@@2HB DD 09H		; std::_Arithmetic_traits<long double>::_Rank
CONST	ENDS
;	COMDAT ?_Rank@?$_Arithmetic_traits@N@std@@2HB
CONST	SEGMENT
?_Rank@?$_Arithmetic_traits@N@std@@2HB DD 08H		; std::_Arithmetic_traits<double>::_Rank
CONST	ENDS
;	COMDAT ?_Rank@?$_Arithmetic_traits@M@std@@2HB
CONST	SEGMENT
?_Rank@?$_Arithmetic_traits@M@std@@2HB DD 07H		; std::_Arithmetic_traits<float>::_Rank
CONST	ENDS
;	COMDAT ?_Rank@?$_Arithmetic_traits@_K@std@@2HB
CONST	SEGMENT
?_Rank@?$_Arithmetic_traits@_K@std@@2HB DD 06H		; std::_Arithmetic_traits<unsigned __int64>::_Rank
CONST	ENDS
;	COMDAT ?_Rank@?$_Arithmetic_traits@_J@std@@2HB
CONST	SEGMENT
?_Rank@?$_Arithmetic_traits@_J@std@@2HB DD 06H		; std::_Arithmetic_traits<__int64>::_Rank
CONST	ENDS
;	COMDAT ?_Rank@?$_Arithmetic_traits@K@std@@2HB
CONST	SEGMENT
?_Rank@?$_Arithmetic_traits@K@std@@2HB DD 05H		; std::_Arithmetic_traits<unsigned long>::_Rank
CONST	ENDS
;	COMDAT ?_Rank@?$_Arithmetic_traits@J@std@@2HB
CONST	SEGMENT
?_Rank@?$_Arithmetic_traits@J@std@@2HB DD 05H		; std::_Arithmetic_traits<long>::_Rank
CONST	ENDS
;	COMDAT ?_Rank@?$_Arithmetic_traits@I@std@@2HB
CONST	SEGMENT
?_Rank@?$_Arithmetic_traits@I@std@@2HB DD 04H		; std::_Arithmetic_traits<unsigned int>::_Rank
CONST	ENDS
;	COMDAT ?_Rank@?$_Arithmetic_traits@H@std@@2HB
CONST	SEGMENT
?_Rank@?$_Arithmetic_traits@H@std@@2HB DD 04H		; std::_Arithmetic_traits<int>::_Rank
CONST	ENDS
;	COMDAT ?_Rank@?$_Arithmetic_traits@G@std@@2HB
CONST	SEGMENT
?_Rank@?$_Arithmetic_traits@G@std@@2HB DD 03H		; std::_Arithmetic_traits<unsigned short>::_Rank
CONST	ENDS
;	COMDAT ?_Rank@?$_Arithmetic_traits@F@std@@2HB
CONST	SEGMENT
?_Rank@?$_Arithmetic_traits@F@std@@2HB DD 03H		; std::_Arithmetic_traits<short>::_Rank
CONST	ENDS
;	COMDAT ?_Rank@?$_Arithmetic_traits@E@std@@2HB
CONST	SEGMENT
?_Rank@?$_Arithmetic_traits@E@std@@2HB DD 02H		; std::_Arithmetic_traits<unsigned char>::_Rank
CONST	ENDS
;	COMDAT ?_Rank@?$_Arithmetic_traits@C@std@@2HB
CONST	SEGMENT
?_Rank@?$_Arithmetic_traits@C@std@@2HB DD 02H		; std::_Arithmetic_traits<signed char>::_Rank
CONST	ENDS
;	COMDAT ?_Rank@?$_Arithmetic_traits@D@std@@2HB
CONST	SEGMENT
?_Rank@?$_Arithmetic_traits@D@std@@2HB DD 02H		; std::_Arithmetic_traits<char>::_Rank
CONST	ENDS
;	COMDAT ?_Rank@?$_Arithmetic_traits@_N@std@@2HB
CONST	SEGMENT
?_Rank@?$_Arithmetic_traits@_N@std@@2HB DD 01H		; std::_Arithmetic_traits<bool>::_Rank
CONST	ENDS
;	COMDAT ?value@?$integral_constant@I$0A@@tr1@std@@2IB
CONST	SEGMENT
?value@?$integral_constant@I$0A@@tr1@std@@2IB DD 00H	; std::tr1::integral_constant<unsigned int,0>::value
CONST	ENDS
;	COMDAT ?value@?$integral_constant@_N$00@tr1@std@@2_NB
CONST	SEGMENT
?value@?$integral_constant@_N$00@tr1@std@@2_NB DB 01H	; std::tr1::integral_constant<bool,1>::value
CONST	ENDS
;	COMDAT ?value@?$integral_constant@_N$0A@@tr1@std@@2_NB
CONST	SEGMENT
?value@?$integral_constant@_N$0A@@tr1@std@@2_NB DB 00H	; std::tr1::integral_constant<bool,0>::value
CONST	ENDS
PUBLIC	??2@YAPAXI@Z					; operator new
EXTRN	__RTC_Shutdown:PROC
EXTRN	__RTC_InitBase:PROC
;	COMDAT rtc$TMZ
; File d:\mozilla\intl\icu\include\unicode\utypes.h
rtc$TMZ	SEGMENT
__RTC_Shutdown.rtc$TMZ DD FLAT:__RTC_Shutdown
rtc$TMZ	ENDS
;	COMDAT rtc$IMZ
rtc$IMZ	SEGMENT
__RTC_InitBase.rtc$IMZ DD FLAT:__RTC_InitBase
; Function compile flags: /Odtp /RTCsu /ZI
rtc$IMZ	ENDS
;	COMDAT ??2@YAPAXI@Z
_TEXT	SEGMENT
_q$ = -8						; size = 4
___formal$ = 8						; size = 4
??2@YAPAXI@Z PROC					; operator new, COMDAT
; Line 411
	push	ebp
	mov	ebp, esp
	sub	esp, 204				; 000000ccH
	push	ebx
	push	esi
	push	edi
	lea	edi, DWORD PTR [ebp-204]
	mov	ecx, 51					; 00000033H
	mov	eax, -858993460				; ccccccccH
	rep stosd
; Line 412
	mov	DWORD PTR _q$[ebp], 0
; Line 413
	mov	eax, DWORD PTR _q$[ebp]
	mov	BYTE PTR [eax], 5
; Line 414
	mov	eax, DWORD PTR _q$[ebp]
; Line 415
	pop	edi
	pop	esi
	pop	ebx
	mov	esp, ebp
	pop	ebp
	ret	0
??2@YAPAXI@Z ENDP					; operator new
_TEXT	ENDS
PUBLIC	??3@YAXPAX@Z					; operator delete
; Function compile flags: /Odtp /RTCsu /ZI
;	COMDAT ??3@YAXPAX@Z
_TEXT	SEGMENT
_q$ = -8						; size = 4
___formal$ = 8						; size = 4
??3@YAXPAX@Z PROC					; operator delete, COMDAT
; Line 439
	push	ebp
	mov	ebp, esp
	sub	esp, 204				; 000000ccH
	push	ebx
	push	esi
	push	edi
	lea	edi, DWORD PTR [ebp-204]
	mov	ecx, 51					; 00000033H
	mov	eax, -858993460				; ccccccccH
	rep stosd
; Line 440
	mov	DWORD PTR _q$[ebp], 0
; Line 441
	mov	eax, DWORD PTR _q$[ebp]
	mov	BYTE PTR [eax], 5
; Line 442
	pop	edi
	pop	esi
	pop	ebx
	mov	esp, ebp
	pop	ebp
	ret	0
??3@YAXPAX@Z ENDP					; operator delete
_TEXT	ENDS
PUBLIC	??9TimeZone@icu_56@@QBECABV01@@Z		; icu_56::TimeZone::operator!=
EXTRN	__RTC_CheckEsp:PROC
; Function compile flags: /Odtp /RTCsu /ZI
;	COMDAT ??9TimeZone@icu_56@@QBECABV01@@Z
_TEXT	SEGMENT
_this$ = -8						; size = 4
_that$ = 8						; size = 4
??9TimeZone@icu_56@@QBECABV01@@Z PROC			; icu_56::TimeZone::operator!=, COMDAT
; _this$ = ecx
; File d:\mozilla\intl\icu\source\i18n\unicode\timezone.h
; Line 455
	push	ebp
	mov	ebp, esp
	sub	esp, 204				; 000000ccH
	push	ebx
	push	esi
	push	edi
	push	ecx
	lea	edi, DWORD PTR [ebp-204]
	mov	ecx, 51					; 00000033H
	mov	eax, -858993460				; ccccccccH
	rep stosd
	pop	ecx
	mov	DWORD PTR _this$[ebp], ecx
	mov	esi, esp
	mov	eax, DWORD PTR _that$[ebp]
	push	eax
	mov	ecx, DWORD PTR _this$[ebp]
	mov	edx, DWORD PTR [ecx]
	mov	ecx, DWORD PTR _this$[ebp]
	mov	eax, DWORD PTR [edx+8]
	call	eax
	cmp	esi, esp
	call	__RTC_CheckEsp
	movsx	ecx, al
	test	ecx, ecx
	sete	al
	pop	edi
	pop	esi
	pop	ebx
	add	esp, 204				; 000000ccH
	cmp	ebp, esp
	call	__RTC_CheckEsp
	mov	esp, ebp
	pop	ebp
	ret	4
??9TimeZone@icu_56@@QBECABV01@@Z ENDP			; icu_56::TimeZone::operator!=
_TEXT	ENDS
PUBLIC	?getID@TimeZone@icu_56@@QBEAAVUnicodeString@2@AAV32@@Z ; icu_56::TimeZone::getID
EXTRN	__imp_??4UnicodeString@icu_56@@QAEAAV01@ABV01@@Z:PROC
; Function compile flags: /Odtp /RTCsu /ZI
;	COMDAT ?getID@TimeZone@icu_56@@QBEAAVUnicodeString@2@AAV32@@Z
_TEXT	SEGMENT
_this$ = -8						; size = 4
_ID$ = 8						; size = 4
?getID@TimeZone@icu_56@@QBEAAVUnicodeString@2@AAV32@@Z PROC ; icu_56::TimeZone::getID, COMDAT
; _this$ = ecx
; Line 951
	push	ebp
	mov	ebp, esp
	sub	esp, 204				; 000000ccH
	push	ebx
	push	esi
	push	edi
	push	ecx
	lea	edi, DWORD PTR [ebp-204]
	mov	ecx, 51					; 00000033H
	mov	eax, -858993460				; ccccccccH
	rep stosd
	pop	ecx
	mov	DWORD PTR _this$[ebp], ecx
; Line 952
	mov	eax, DWORD PTR _this$[ebp]
	add	eax, 4
	mov	esi, esp
	push	eax
	mov	ecx, DWORD PTR _ID$[ebp]
	call	DWORD PTR __imp_??4UnicodeString@icu_56@@QAEAAV01@ABV01@@Z
	cmp	esi, esp
	call	__RTC_CheckEsp
; Line 953
	mov	eax, DWORD PTR _ID$[ebp]
; Line 954
	pop	edi
	pop	esi
	pop	ebx
	add	esp, 204				; 000000ccH
	cmp	ebp, esp
	call	__RTC_CheckEsp
	mov	esp, ebp
	pop	ebp
	ret	4
?getID@TimeZone@icu_56@@QBEAAVUnicodeString@2@AAV32@@Z ENDP ; icu_56::TimeZone::getID
_TEXT	ENDS
PUBLIC	?setID@TimeZone@icu_56@@QAEXABVUnicodeString@2@@Z ; icu_56::TimeZone::setID
; Function compile flags: /Odtp /RTCsu /ZI
;	COMDAT ?setID@TimeZone@icu_56@@QAEXABVUnicodeString@2@@Z
_TEXT	SEGMENT
_this$ = -8						; size = 4
_ID$ = 8						; size = 4
?setID@TimeZone@icu_56@@QAEXABVUnicodeString@2@@Z PROC	; icu_56::TimeZone::setID, COMDAT
; _this$ = ecx
; Line 960
	push	ebp
	mov	ebp, esp
	sub	esp, 204				; 000000ccH
	push	ebx
	push	esi
	push	edi
	push	ecx
	lea	edi, DWORD PTR [ebp-204]
	mov	ecx, 51					; 00000033H
	mov	eax, -858993460				; ccccccccH
	rep stosd
	pop	ecx
	mov	DWORD PTR _this$[ebp], ecx
; Line 961
	mov	esi, esp
	mov	eax, DWORD PTR _ID$[ebp]
	push	eax
	mov	ecx, DWORD PTR _this$[ebp]
	add	ecx, 4
	call	DWORD PTR __imp_??4UnicodeString@icu_56@@QAEAAV01@ABV01@@Z
	cmp	esi, esp
	call	__RTC_CheckEsp
; Line 962
	pop	edi
	pop	esi
	pop	ebx
	add	esp, 204				; 000000ccH
	cmp	ebp, esp
	call	__RTC_CheckEsp
	mov	esp, ebp
	pop	ebp
	ret	4
?setID@TimeZone@icu_56@@QAEXABVUnicodeString@2@@Z ENDP	; icu_56::TimeZone::setID
_TEXT	ENDS
PUBLIC	?getTimeInMillis@Calendar@icu_56@@IBENAAW4UErrorCode@@@Z ; icu_56::Calendar::getTimeInMillis
PUBLIC	?getTime@Calendar@icu_56@@QBENAAW4UErrorCode@@@Z ; icu_56::Calendar::getTime
EXTRN	__fltused:DWORD
; Function compile flags: /Odtp /RTCsu /ZI
;	COMDAT ?getTime@Calendar@icu_56@@QBENAAW4UErrorCode@@@Z
_TEXT	SEGMENT
_this$ = -8						; size = 4
_status$ = 8						; size = 4
?getTime@Calendar@icu_56@@QBENAAW4UErrorCode@@@Z PROC	; icu_56::Calendar::getTime, COMDAT
; _this$ = ecx
; File d:\mozilla\intl\icu\source\i18n\unicode\calendar.h
; Line 441
	push	ebp
	mov	ebp, esp
	sub	esp, 204				; 000000ccH
	push	ebx
	push	esi
	push	edi
	push	ecx
	lea	edi, DWORD PTR [ebp-204]
	mov	ecx, 51					; 00000033H
	mov	eax, -858993460				; ccccccccH
	rep stosd
	pop	ecx
	mov	DWORD PTR _this$[ebp], ecx
	mov	eax, DWORD PTR _status$[ebp]
	push	eax
	mov	ecx, DWORD PTR _this$[ebp]
	call	?getTimeInMillis@Calendar@icu_56@@IBENAAW4UErrorCode@@@Z ; icu_56::Calendar::getTimeInMillis
	pop	edi
	pop	esi
	pop	ebx
	add	esp, 204				; 000000ccH
	cmp	ebp, esp
	call	__RTC_CheckEsp
	mov	esp, ebp
	pop	ebp
	ret	4
?getTime@Calendar@icu_56@@QBENAAW4UErrorCode@@@Z ENDP	; icu_56::Calendar::getTime
_TEXT	ENDS
PUBLIC	?setTimeInMillis@Calendar@icu_56@@IAEXNAAW4UErrorCode@@@Z ; icu_56::Calendar::setTimeInMillis
PUBLIC	?setTime@Calendar@icu_56@@QAEXNAAW4UErrorCode@@@Z ; icu_56::Calendar::setTime
; Function compile flags: /Odtp /RTCsu /ZI
;	COMDAT ?setTime@Calendar@icu_56@@QAEXNAAW4UErrorCode@@@Z
_TEXT	SEGMENT
_this$ = -8						; size = 4
_date$ = 8						; size = 8
_status$ = 16						; size = 4
?setTime@Calendar@icu_56@@QAEXNAAW4UErrorCode@@@Z PROC	; icu_56::Calendar::setTime, COMDAT
; _this$ = ecx
; Line 453
	push	ebp
	mov	ebp, esp
	sub	esp, 204				; 000000ccH
	push	ebx
	push	esi
	push	edi
	push	ecx
	lea	edi, DWORD PTR [ebp-204]
	mov	ecx, 51					; 00000033H
	mov	eax, -858993460				; ccccccccH
	rep stosd
	pop	ecx
	mov	DWORD PTR _this$[ebp], ecx
	mov	eax, DWORD PTR _status$[ebp]
	push	eax
	sub	esp, 8
	fld	QWORD PTR _date$[ebp]
	fstp	QWORD PTR [esp]
	mov	ecx, DWORD PTR _this$[ebp]
	call	?setTimeInMillis@Calendar@icu_56@@IAEXNAAW4UErrorCode@@@Z ; icu_56::Calendar::setTimeInMillis
	pop	edi
	pop	esi
	pop	ebx
	add	esp, 204				; 000000ccH
	cmp	ebp, esp
	call	__RTC_CheckEsp
	mov	esp, ebp
	pop	ebp
	ret	12					; 0000000cH
?setTime@Calendar@icu_56@@QAEXNAAW4UErrorCode@@@Z ENDP	; icu_56::Calendar::setTime
_TEXT	ENDS
PUBLIC	??9Calendar@icu_56@@QBECABV01@@Z		; icu_56::Calendar::operator!=
; Function compile flags: /Odtp /RTCsu /ZI
;	COMDAT ??9Calendar@icu_56@@QBECABV01@@Z
_TEXT	SEGMENT
_this$ = -8						; size = 4
_that$ = 8						; size = 4
??9Calendar@icu_56@@QBECABV01@@Z PROC			; icu_56::Calendar::operator!=, COMDAT
; _this$ = ecx
; Line 476
	push	ebp
	mov	ebp, esp
	sub	esp, 204				; 000000ccH
	push	ebx
	push	esi
	push	edi
	push	ecx
	lea	edi, DWORD PTR [ebp-204]
	mov	ecx, 51					; 00000033H
	mov	eax, -858993460				; ccccccccH
	rep stosd
	pop	ecx
	mov	DWORD PTR _this$[ebp], ecx
	mov	esi, esp
	mov	eax, DWORD PTR _that$[ebp]
	push	eax
	mov	ecx, DWORD PTR _this$[ebp]
	mov	edx, DWORD PTR [ecx]
	mov	ecx, DWORD PTR _this$[ebp]
	mov	eax, DWORD PTR [edx+12]
	call	eax
	cmp	esi, esp
	call	__RTC_CheckEsp
	movsx	ecx, al
	test	ecx, ecx
	sete	al
	pop	edi
	pop	esi
	pop	ebx
	add	esp, 204				; 000000ccH
	cmp	ebp, esp
	call	__RTC_CheckEsp
	mov	esp, ebp
	pop	ebp
	ret	4
??9Calendar@icu_56@@QBECABV01@@Z ENDP			; icu_56::Calendar::operator!=
_TEXT	ENDS
PUBLIC	?internalGet@Calendar@icu_56@@IBEHW4EDateFields@12@@Z ; icu_56::Calendar::internalGet
; Function compile flags: /Odtp /RTCsu /ZI
;	COMDAT ?internalGet@Calendar@icu_56@@IBEHW4EDateFields@12@@Z
_TEXT	SEGMENT
_this$ = -8						; size = 4
_field$ = 8						; size = 4
?internalGet@Calendar@icu_56@@IBEHW4EDateFields@12@@Z PROC ; icu_56::Calendar::internalGet, COMDAT
; _this$ = ecx
; Line 1545
	push	ebp
	mov	ebp, esp
	sub	esp, 204				; 000000ccH
	push	ebx
	push	esi
	push	edi
	push	ecx
	lea	edi, DWORD PTR [ebp-204]
	mov	ecx, 51					; 00000033H
	mov	eax, -858993460				; ccccccccH
	rep stosd
	pop	ecx
	mov	DWORD PTR _this$[ebp], ecx
	mov	eax, DWORD PTR _field$[ebp]
	mov	ecx, DWORD PTR _this$[ebp]
	mov	eax, DWORD PTR [ecx+eax*4+8]
	pop	edi
	pop	esi
	pop	ebx
	mov	esp, ebp
	pop	ebp
	ret	4
?internalGet@Calendar@icu_56@@IBEHW4EDateFields@12@@Z ENDP ; icu_56::Calendar::internalGet
_TEXT	ENDS
PUBLIC	?internalGet@Calendar@icu_56@@IBEHW4UCalendarDateFields@@H@Z ; icu_56::Calendar::internalGet
; Function compile flags: /Odtp /RTCsu /ZI
;	COMDAT ?internalGet@Calendar@icu_56@@IBEHW4UCalendarDateFields@@H@Z
_TEXT	SEGMENT
tv71 = -208						; size = 4
_this$ = -8						; size = 4
_field$ = 8						; size = 4
_defaultValue$ = 12					; size = 4
?internalGet@Calendar@icu_56@@IBEHW4UCalendarDateFields@@H@Z PROC ; icu_56::Calendar::internalGet, COMDAT
; _this$ = ecx
; Line 1559
	push	ebp
	mov	ebp, esp
	sub	esp, 208				; 000000d0H
	push	ebx
	push	esi
	push	edi
	push	ecx
	lea	edi, DWORD PTR [ebp-208]
	mov	ecx, 52					; 00000034H
	mov	eax, -858993460				; ccccccccH
	rep stosd
	pop	ecx
	mov	DWORD PTR _this$[ebp], ecx
	mov	eax, DWORD PTR _field$[ebp]
	mov	ecx, DWORD PTR _this$[ebp]
	cmp	DWORD PTR [ecx+eax*4+124], 0
	jle	SHORT $LN3@internalGe
	mov	edx, DWORD PTR _field$[ebp]
	mov	eax, DWORD PTR _this$[ebp]
	mov	ecx, DWORD PTR [eax+edx*4+8]
	mov	DWORD PTR tv71[ebp], ecx
	jmp	SHORT $LN4@internalGe
$LN3@internalGe:
	mov	edx, DWORD PTR _defaultValue$[ebp]
	mov	DWORD PTR tv71[ebp], edx
$LN4@internalGe:
	mov	eax, DWORD PTR tv71[ebp]
	pop	edi
	pop	esi
	pop	ebx
	mov	esp, ebp
	pop	ebp
	ret	8
?internalGet@Calendar@icu_56@@IBEHW4UCalendarDateFields@@H@Z ENDP ; icu_56::Calendar::internalGet
_TEXT	ENDS
PUBLIC	?internalGet@Calendar@icu_56@@IBEHW4UCalendarDateFields@@@Z ; icu_56::Calendar::internalGet
; Function compile flags: /Odtp /RTCsu /ZI
;	COMDAT ?internalGet@Calendar@icu_56@@IBEHW4UCalendarDateFields@@@Z
_TEXT	SEGMENT
_this$ = -8						; size = 4
_field$ = 8						; size = 4
?internalGet@Calendar@icu_56@@IBEHW4UCalendarDateFields@@@Z PROC ; icu_56::Calendar::internalGet, COMDAT
; _this$ = ecx
; Line 1569
	push	ebp
	mov	ebp, esp
	sub	esp, 204				; 000000ccH
	push	ebx
	push	esi
	push	edi
	push	ecx
	lea	edi, DWORD PTR [ebp-204]
	mov	ecx, 51					; 00000033H
	mov	eax, -858993460				; ccccccccH
	rep stosd
	pop	ecx
	mov	DWORD PTR _this$[ebp], ecx
	mov	eax, DWORD PTR _field$[ebp]
	mov	ecx, DWORD PTR _this$[ebp]
	mov	eax, DWORD PTR [ecx+eax*4+8]
	pop	edi
	pop	esi
	pop	ebx
	mov	esp, ebp
	pop	ebp
	ret	4
?internalGet@Calendar@icu_56@@IBEHW4UCalendarDateFields@@@Z ENDP ; icu_56::Calendar::internalGet
_TEXT	ENDS
PUBLIC	?internalGetTime@Calendar@icu_56@@IBENXZ	; icu_56::Calendar::internalGetTime
; Function compile flags: /Odtp /RTCsu /ZI
;	COMDAT ?internalGetTime@Calendar@icu_56@@IBENXZ
_TEXT	SEGMENT
_this$ = -8						; size = 4
?internalGetTime@Calendar@icu_56@@IBENXZ PROC		; icu_56::Calendar::internalGetTime, COMDAT
; _this$ = ecx
; Line 1898
	push	ebp
	mov	ebp, esp
	sub	esp, 204				; 000000ccH
	push	ebx
	push	esi
	push	edi
	push	ecx
	lea	edi, DWORD PTR [ebp-204]
	mov	ecx, 51					; 00000033H
	mov	eax, -858993460				; ccccccccH
	rep stosd
	pop	ecx
	mov	DWORD PTR _this$[ebp], ecx
	mov	eax, DWORD PTR _this$[ebp]
	fld	QWORD PTR [eax+224]
	pop	edi
	pop	esi
	pop	ebx
	mov	esp, ebp
	pop	ebp
	ret	0
?internalGetTime@Calendar@icu_56@@IBENXZ ENDP		; icu_56::Calendar::internalGetTime
_TEXT	ENDS
PUBLIC	?internalSetTime@Calendar@icu_56@@IAEXN@Z	; icu_56::Calendar::internalSetTime
; Function compile flags: /Odtp /RTCsu /ZI
;	COMDAT ?internalSetTime@Calendar@icu_56@@IAEXN@Z
_TEXT	SEGMENT
_this$ = -8						; size = 4
_time$ = 8						; size = 8
?internalSetTime@Calendar@icu_56@@IAEXN@Z PROC		; icu_56::Calendar::internalSetTime, COMDAT
; _this$ = ecx
; Line 1907
	push	ebp
	mov	ebp, esp
	sub	esp, 204				; 000000ccH
	push	ebx
	push	esi
	push	edi
	push	ecx
	lea	edi, DWORD PTR [ebp-204]
	mov	ecx, 51					; 00000033H
	mov	eax, -858993460				; ccccccccH
	rep stosd
	pop	ecx
	mov	DWORD PTR _this$[ebp], ecx
	mov	eax, DWORD PTR _this$[ebp]
	fld	QWORD PTR _time$[ebp]
	fstp	QWORD PTR [eax+224]
	pop	edi
	pop	esi
	pop	ebx
	mov	esp, ebp
	pop	ebp
	ret	8
?internalSetTime@Calendar@icu_56@@IAEXN@Z ENDP		; icu_56::Calendar::internalSetTime
_TEXT	ENDS
PUBLIC	?getGregorianYear@Calendar@icu_56@@IBEHXZ	; icu_56::Calendar::getGregorianYear
; Function compile flags: /Odtp /RTCsu /ZI
;	COMDAT ?getGregorianYear@Calendar@icu_56@@IBEHXZ
_TEXT	SEGMENT
_this$ = -8						; size = 4
?getGregorianYear@Calendar@icu_56@@IBEHXZ PROC		; icu_56::Calendar::getGregorianYear, COMDAT
; _this$ = ecx
; Line 1970
	push	ebp
	mov	ebp, esp
	sub	esp, 204				; 000000ccH
	push	ebx
	push	esi
	push	edi
	push	ecx
	lea	edi, DWORD PTR [ebp-204]
	mov	ecx, 51					; 00000033H
	mov	eax, -858993460				; ccccccccH
	rep stosd
	pop	ecx
	mov	DWORD PTR _this$[ebp], ecx
; Line 1971
	mov	eax, DWORD PTR _this$[ebp]
	mov	eax, DWORD PTR [eax+272]
; Line 1972
	pop	edi
	pop	esi
	pop	ebx
	mov	esp, ebp
	pop	ebp
	ret	0
?getGregorianYear@Calendar@icu_56@@IBEHXZ ENDP		; icu_56::Calendar::getGregorianYear
_TEXT	ENDS
PUBLIC	?getGregorianMonth@Calendar@icu_56@@IBEHXZ	; icu_56::Calendar::getGregorianMonth
; Function compile flags: /Odtp /RTCsu /ZI
;	COMDAT ?getGregorianMonth@Calendar@icu_56@@IBEHXZ
_TEXT	SEGMENT
_this$ = -8						; size = 4
?getGregorianMonth@Calendar@icu_56@@IBEHXZ PROC		; icu_56::Calendar::getGregorianMonth, COMDAT
; _this$ = ecx
; Line 1979
	push	ebp
	mov	ebp, esp
	sub	esp, 204				; 000000ccH
	push	ebx
	push	esi
	push	edi
	push	ecx
	lea	edi, DWORD PTR [ebp-204]
	mov	ecx, 51					; 00000033H
	mov	eax, -858993460				; ccccccccH
	rep stosd
	pop	ecx
	mov	DWORD PTR _this$[ebp], ecx
; Line 1980
	mov	eax, DWORD PTR _this$[ebp]
	mov	eax, DWORD PTR [eax+276]
; Line 1981
	pop	edi
	pop	esi
	pop	ebx
	mov	esp, ebp
	pop	ebp
	ret	0
?getGregorianMonth@Calendar@icu_56@@IBEHXZ ENDP		; icu_56::Calendar::getGregorianMonth
_TEXT	ENDS
PUBLIC	?getGregorianDayOfYear@Calendar@icu_56@@IBEHXZ	; icu_56::Calendar::getGregorianDayOfYear
; Function compile flags: /Odtp /RTCsu /ZI
;	COMDAT ?getGregorianDayOfYear@Calendar@icu_56@@IBEHXZ
_TEXT	SEGMENT
_this$ = -8						; size = 4
?getGregorianDayOfYear@Calendar@icu_56@@IBEHXZ PROC	; icu_56::Calendar::getGregorianDayOfYear, COMDAT
; _this$ = ecx
; Line 1988
	push	ebp
	mov	ebp, esp
	sub	esp, 204				; 000000ccH
	push	ebx
	push	esi
	push	edi
	push	ecx
	lea	edi, DWORD PTR [ebp-204]
	mov	ecx, 51					; 00000033H
	mov	eax, -858993460				; ccccccccH
	rep stosd
	pop	ecx
	mov	DWORD PTR _this$[ebp], ecx
; Line 1989
	mov	eax, DWORD PTR _this$[ebp]
	mov	eax, DWORD PTR [eax+280]
; Line 1990
	pop	edi
	pop	esi
	pop	ebx
	mov	esp, ebp
	pop	ebp
	ret	0
?getGregorianDayOfYear@Calendar@icu_56@@IBEHXZ ENDP	; icu_56::Calendar::getGregorianDayOfYear
_TEXT	ENDS
PUBLIC	?getGregorianDayOfMonth@Calendar@icu_56@@IBEHXZ	; icu_56::Calendar::getGregorianDayOfMonth
; Function compile flags: /Odtp /RTCsu /ZI
;	COMDAT ?getGregorianDayOfMonth@Calendar@icu_56@@IBEHXZ
_TEXT	SEGMENT
_this$ = -8						; size = 4
?getGregorianDayOfMonth@Calendar@icu_56@@IBEHXZ PROC	; icu_56::Calendar::getGregorianDayOfMonth, COMDAT
; _this$ = ecx
; Line 1997
	push	ebp
	mov	ebp, esp
	sub	esp, 204				; 000000ccH
	push	ebx
	push	esi
	push	edi
	push	ecx
	lea	edi, DWORD PTR [ebp-204]
	mov	ecx, 51					; 00000033H
	mov	eax, -858993460				; ccccccccH
	rep stosd
	pop	ecx
	mov	DWORD PTR _this$[ebp], ecx
; Line 1998
	mov	eax, DWORD PTR _this$[ebp]
	mov	eax, DWORD PTR [eax+284]
; Line 1999
	pop	edi
	pop	esi
	pop	ebx
	mov	esp, ebp
	pop	ebp
	ret	0
?getGregorianDayOfMonth@Calendar@icu_56@@IBEHXZ ENDP	; icu_56::Calendar::getGregorianDayOfMonth
_TEXT	ENDS
PUBLIC	??1Calendar@icu_56@@UAE@XZ			; icu_56::Calendar::~Calendar
PUBLIC	??_GCalendar@icu_56@@UAEPAXI@Z			; icu_56::Calendar::`scalar deleting destructor'
EXTRN	__imp_??3UMemory@icu_56@@SAXPAX@Z:PROC
; Function compile flags: /Odtp /RTCsu /ZI
;	COMDAT ??_GCalendar@icu_56@@UAEPAXI@Z
_TEXT	SEGMENT
_this$ = -8						; size = 4
___flags$ = 8						; size = 4
??_GCalendar@icu_56@@UAEPAXI@Z PROC			; icu_56::Calendar::`scalar deleting destructor', COMDAT
; _this$ = ecx
	push	ebp
	mov	ebp, esp
	sub	esp, 204				; 000000ccH
	push	ebx
	push	esi
	push	edi
	push	ecx
	lea	edi, DWORD PTR [ebp-204]
	mov	ecx, 51					; 00000033H
	mov	eax, -858993460				; ccccccccH
	rep stosd
	pop	ecx
	mov	DWORD PTR _this$[ebp], ecx
	mov	ecx, DWORD PTR _this$[ebp]
	call	??1Calendar@icu_56@@UAE@XZ		; icu_56::Calendar::~Calendar
	mov	eax, DWORD PTR ___flags$[ebp]
	and	eax, 1
	je	SHORT $LN1@scalar
	mov	esi, esp
	mov	eax, DWORD PTR _this$[ebp]
	push	eax
	call	DWORD PTR __imp_??3UMemory@icu_56@@SAXPAX@Z
	add	esp, 4
	cmp	esi, esp
	call	__RTC_CheckEsp
$LN1@scalar:
	mov	eax, DWORD PTR _this$[ebp]
	pop	edi
	pop	esi
	pop	ebx
	add	esp, 204				; 000000ccH
	cmp	ebp, esp
	call	__RTC_CheckEsp
	mov	esp, ebp
	pop	ebp
	ret	4
??_GCalendar@icu_56@@UAEPAXI@Z ENDP			; icu_56::Calendar::`scalar deleting destructor'
_TEXT	ENDS
PUBLIC	??_ECalendar@icu_56@@UAEPAXI@Z			; icu_56::Calendar::`vector deleting destructor'
EXTRN	__imp_??_VUMemory@icu_56@@SAXPAX@Z:PROC
EXTRN	??_M@YGXPAXIHP6EX0@Z@Z:PROC			; `eh vector destructor iterator'
; Function compile flags: /Odtp /RTCsu /ZI
;	COMDAT ??_ECalendar@icu_56@@UAEPAXI@Z
_TEXT	SEGMENT
_this$ = -8						; size = 4
___flags$ = 8						; size = 4
??_ECalendar@icu_56@@UAEPAXI@Z PROC			; icu_56::Calendar::`vector deleting destructor', COMDAT
; _this$ = ecx
	push	ebp
	mov	ebp, esp
	sub	esp, 204				; 000000ccH
	push	ebx
	push	esi
	push	edi
	push	ecx
	lea	edi, DWORD PTR [ebp-204]
	mov	ecx, 51					; 00000033H
	mov	eax, -858993460				; ccccccccH
	rep stosd
	pop	ecx
	mov	DWORD PTR _this$[ebp], ecx
	mov	eax, DWORD PTR ___flags$[ebp]
	and	eax, 2
	je	SHORT $LN3@vector
	push	OFFSET ??1Calendar@icu_56@@UAE@XZ	; icu_56::Calendar::~Calendar
	mov	eax, DWORD PTR _this$[ebp]
	mov	ecx, DWORD PTR [eax-4]
	push	ecx
	push	608					; 00000260H
	mov	edx, DWORD PTR _this$[ebp]
	push	edx
	call	??_M@YGXPAXIHP6EX0@Z@Z
	mov	eax, DWORD PTR ___flags$[ebp]
	and	eax, 1
	je	SHORT $LN2@vector
	mov	eax, DWORD PTR _this$[ebp]
	sub	eax, 4
	mov	esi, esp
	push	eax
	call	DWORD PTR __imp_??_VUMemory@icu_56@@SAXPAX@Z
	add	esp, 4
	cmp	esi, esp
	call	__RTC_CheckEsp
$LN2@vector:
	mov	eax, DWORD PTR _this$[ebp]
	sub	eax, 4
	jmp	SHORT $LN4@vector
$LN3@vector:
	mov	ecx, DWORD PTR _this$[ebp]
	call	??1Calendar@icu_56@@UAE@XZ		; icu_56::Calendar::~Calendar
	mov	eax, DWORD PTR ___flags$[ebp]
	and	eax, 1
	je	SHORT $LN1@vector
	mov	esi, esp
	mov	eax, DWORD PTR _this$[ebp]
	push	eax
	call	DWORD PTR __imp_??3UMemory@icu_56@@SAXPAX@Z
	add	esp, 4
	cmp	esi, esp
	call	__RTC_CheckEsp
$LN1@vector:
	mov	eax, DWORD PTR _this$[ebp]
$LN4@vector:
	pop	edi
	pop	esi
	pop	ebx
	add	esp, 204				; 000000ccH
	cmp	ebp, esp
	call	__RTC_CheckEsp
	mov	esp, ebp
	pop	ebp
	ret	4
??_ECalendar@icu_56@@UAEPAXI@Z ENDP			; icu_56::Calendar::`vector deleting destructor'
_TEXT	ENDS
PUBLIC	?createInstance@Calendar@icu_56@@SAPAV12@PAVTimeZone@2@ABVLocale@2@AAW4UErrorCode@@@Z ; icu_56::Calendar::createInstance
PUBLIC	?createInstance@Calendar@icu_56@@SAPAV12@PAVTimeZone@2@AAW4UErrorCode@@@Z ; icu_56::Calendar::createInstance
EXTRN	__imp_?getDefault@Locale@icu_56@@SAABV12@XZ:PROC
; Function compile flags: /Odtp /RTCsu /ZI
;	COMDAT ?createInstance@Calendar@icu_56@@SAPAV12@PAVTimeZone@2@AAW4UErrorCode@@@Z
_TEXT	SEGMENT
_zone$ = 8						; size = 4
_errorCode$ = 12					; size = 4
?createInstance@Calendar@icu_56@@SAPAV12@PAVTimeZone@2@AAW4UErrorCode@@@Z PROC ; icu_56::Calendar::createInstance, COMDAT
; Line 2500
	push	ebp
	mov	ebp, esp
	sub	esp, 192				; 000000c0H
	push	ebx
	push	esi
	push	edi
	lea	edi, DWORD PTR [ebp-192]
	mov	ecx, 48					; 00000030H
	mov	eax, -858993460				; ccccccccH
	rep stosd
; Line 2502
	mov	eax, DWORD PTR _errorCode$[ebp]
	push	eax
	mov	esi, esp
	call	DWORD PTR __imp_?getDefault@Locale@icu_56@@SAABV12@XZ
	cmp	esi, esp
	call	__RTC_CheckEsp
	push	eax
	mov	ecx, DWORD PTR _zone$[ebp]
	push	ecx
	call	?createInstance@Calendar@icu_56@@SAPAV12@PAVTimeZone@2@ABVLocale@2@AAW4UErrorCode@@@Z ; icu_56::Calendar::createInstance
	add	esp, 12					; 0000000cH
; Line 2503
	pop	edi
	pop	esi
	pop	ebx
	add	esp, 192				; 000000c0H
	cmp	ebp, esp
	call	__RTC_CheckEsp
	mov	esp, ebp
	pop	ebp
	ret	0
?createInstance@Calendar@icu_56@@SAPAV12@PAVTimeZone@2@AAW4UErrorCode@@@Z ENDP ; icu_56::Calendar::createInstance
_TEXT	ENDS
PUBLIC	?roll@Calendar@icu_56@@QAEXW4UCalendarDateFields@@CAAW4UErrorCode@@@Z ; icu_56::Calendar::roll
; Function compile flags: /Odtp /RTCsu /ZI
;	COMDAT ?roll@Calendar@icu_56@@QAEXW4UCalendarDateFields@@CAAW4UErrorCode@@@Z
_TEXT	SEGMENT
_this$ = -8						; size = 4
_field$ = 8						; size = 4
_up$ = 12						; size = 1
_status$ = 16						; size = 4
?roll@Calendar@icu_56@@QAEXW4UCalendarDateFields@@CAAW4UErrorCode@@@Z PROC ; icu_56::Calendar::roll, COMDAT
; _this$ = ecx
; Line 2509
	push	ebp
	mov	ebp, esp
	sub	esp, 204				; 000000ccH
	push	ebx
	push	esi
	push	edi
	push	ecx
	lea	edi, DWORD PTR [ebp-204]
	mov	ecx, 51					; 00000033H
	mov	eax, -858993460				; ccccccccH
	rep stosd
	pop	ecx
	mov	DWORD PTR _this$[ebp], ecx
; Line 2510
	mov	esi, esp
	mov	eax, DWORD PTR _status$[ebp]
	push	eax
	movsx	ecx, BYTE PTR _up$[ebp]
	neg	ecx
	sbb	ecx, ecx
	and	ecx, 2
	add	ecx, -1
	push	ecx
	mov	edx, DWORD PTR _field$[ebp]
	push	edx
	mov	eax, DWORD PTR _this$[ebp]
	mov	edx, DWORD PTR [eax]
	mov	ecx, DWORD PTR _this$[ebp]
	mov	eax, DWORD PTR [edx+28]
	call	eax
	cmp	esi, esp
	call	__RTC_CheckEsp
; Line 2511
	pop	edi
	pop	esi
	pop	ebx
	add	esp, 204				; 000000ccH
	cmp	ebp, esp
	call	__RTC_CheckEsp
	mov	esp, ebp
	pop	ebp
	ret	12					; 0000000cH
?roll@Calendar@icu_56@@QAEXW4UCalendarDateFields@@CAAW4UErrorCode@@@Z ENDP ; icu_56::Calendar::roll
_TEXT	ENDS
PUBLIC	?roll@Calendar@icu_56@@QAEXW4EDateFields@12@CAAW4UErrorCode@@@Z ; icu_56::Calendar::roll
; Function compile flags: /Odtp /RTCsu /ZI
;	COMDAT ?roll@Calendar@icu_56@@QAEXW4EDateFields@12@CAAW4UErrorCode@@@Z
_TEXT	SEGMENT
_this$ = -8						; size = 4
_field$ = 8						; size = 4
_up$ = 12						; size = 1
_status$ = 16						; size = 4
?roll@Calendar@icu_56@@QAEXW4EDateFields@12@CAAW4UErrorCode@@@Z PROC ; icu_56::Calendar::roll, COMDAT
; _this$ = ecx
; Line 2516
	push	ebp
	mov	ebp, esp
	sub	esp, 204				; 000000ccH
	push	ebx
	push	esi
	push	edi
	push	ecx
	lea	edi, DWORD PTR [ebp-204]
	mov	ecx, 51					; 00000033H
	mov	eax, -858993460				; ccccccccH
	rep stosd
	pop	ecx
	mov	DWORD PTR _this$[ebp], ecx
; Line 2517
	mov	eax, DWORD PTR _status$[ebp]
	push	eax
	movzx	ecx, BYTE PTR _up$[ebp]
	push	ecx
	mov	edx, DWORD PTR _field$[ebp]
	push	edx
	mov	ecx, DWORD PTR _this$[ebp]
	call	?roll@Calendar@icu_56@@QAEXW4UCalendarDateFields@@CAAW4UErrorCode@@@Z ; icu_56::Calendar::roll
; Line 2518
	pop	edi
	pop	esi
	pop	ebx
	add	esp, 204				; 000000ccH
	cmp	ebp, esp
	call	__RTC_CheckEsp
	mov	esp, ebp
	pop	ebp
	ret	12					; 0000000cH
?roll@Calendar@icu_56@@QAEXW4EDateFields@12@CAAW4UErrorCode@@@Z ENDP ; icu_56::Calendar::roll
_TEXT	ENDS
PUBLIC	?internalSet@Calendar@icu_56@@IAEXW4UCalendarDateFields@@H@Z ; icu_56::Calendar::internalSet
; Function compile flags: /Odtp /RTCsu /ZI
;	COMDAT ?internalSet@Calendar@icu_56@@IAEXW4UCalendarDateFields@@H@Z
_TEXT	SEGMENT
_this$ = -8						; size = 4
_field$ = 8						; size = 4
_value$ = 12						; size = 4
?internalSet@Calendar@icu_56@@IAEXW4UCalendarDateFields@@H@Z PROC ; icu_56::Calendar::internalSet, COMDAT
; _this$ = ecx
; Line 2531
	push	ebp
	mov	ebp, esp
	sub	esp, 204				; 000000ccH
	push	ebx
	push	esi
	push	edi
	push	ecx
	lea	edi, DWORD PTR [ebp-204]
	mov	ecx, 51					; 00000033H
	mov	eax, -858993460				; ccccccccH
	rep stosd
	pop	ecx
	mov	DWORD PTR _this$[ebp], ecx
; Line 2532
	mov	eax, DWORD PTR _field$[ebp]
	mov	ecx, DWORD PTR _this$[ebp]
	mov	edx, DWORD PTR _value$[ebp]
	mov	DWORD PTR [ecx+eax*4+8], edx
; Line 2533
	mov	eax, DWORD PTR _field$[ebp]
	mov	ecx, DWORD PTR _this$[ebp]
	mov	DWORD PTR [ecx+eax*4+124], 1
; Line 2534
	mov	eax, DWORD PTR _this$[ebp]
	add	eax, DWORD PTR _field$[ebp]
	mov	BYTE PTR [eax+100], 1
; Line 2535
	pop	edi
	pop	esi
	pop	ebx
	mov	esp, ebp
	pop	ebp
	ret	8
?internalSet@Calendar@icu_56@@IAEXW4UCalendarDateFields@@H@Z ENDP ; icu_56::Calendar::internalSet
_TEXT	ENDS
PUBLIC	?weekNumber@Calendar@icu_56@@IAEHHHH@Z		; icu_56::Calendar::weekNumber
PUBLIC	?weekNumber@Calendar@icu_56@@IAEHHH@Z		; icu_56::Calendar::weekNumber
; Function compile flags: /Odtp /RTCsu /ZI
;	COMDAT ?weekNumber@Calendar@icu_56@@IAEHHH@Z
_TEXT	SEGMENT
_this$ = -8						; size = 4
_dayOfPeriod$ = 8					; size = 4
_dayOfWeek$ = 12					; size = 4
?weekNumber@Calendar@icu_56@@IAEHHH@Z PROC		; icu_56::Calendar::weekNumber, COMDAT
; _this$ = ecx
; Line 2540
	push	ebp
	mov	ebp, esp
	sub	esp, 204				; 000000ccH
	push	ebx
	push	esi
	push	edi
	push	ecx
	lea	edi, DWORD PTR [ebp-204]
	mov	ecx, 51					; 00000033H
	mov	eax, -858993460				; ccccccccH
	rep stosd
	pop	ecx
	mov	DWORD PTR _this$[ebp], ecx
; Line 2541
	mov	eax, DWORD PTR _dayOfWeek$[ebp]
	push	eax
	mov	ecx, DWORD PTR _dayOfPeriod$[ebp]
	push	ecx
	mov	edx, DWORD PTR _dayOfPeriod$[ebp]
	push	edx
	mov	ecx, DWORD PTR _this$[ebp]
	call	?weekNumber@Calendar@icu_56@@IAEHHHH@Z	; icu_56::Calendar::weekNumber
; Line 2542
	pop	edi
	pop	esi
	pop	ebx
	add	esp, 204				; 000000ccH
	cmp	ebp, esp
	call	__RTC_CheckEsp
	mov	esp, ebp
	pop	ebp
	ret	8
?weekNumber@Calendar@icu_56@@IAEHHH@Z ENDP		; icu_56::Calendar::weekNumber
_TEXT	ENDS
PUBLIC	??4BasicTimeZone@icu_56@@QAEAAV01@ABV01@@Z	; icu_56::BasicTimeZone::operator=
EXTRN	??4TimeZone@icu_56@@IAEAAV01@ABV01@@Z:PROC	; icu_56::TimeZone::operator=
; Function compile flags: /Odtp /RTCsu /ZI
;	COMDAT ??4BasicTimeZone@icu_56@@QAEAAV01@ABV01@@Z
_TEXT	SEGMENT
_this$ = -8						; size = 4
___that$ = 8						; size = 4
??4BasicTimeZone@icu_56@@QAEAAV01@ABV01@@Z PROC		; icu_56::BasicTimeZone::operator=, COMDAT
; _this$ = ecx
	push	ebp
	mov	ebp, esp
	sub	esp, 204				; 000000ccH
	push	ebx
	push	esi
	push	edi
	push	ecx
	lea	edi, DWORD PTR [ebp-204]
	mov	ecx, 51					; 00000033H
	mov	eax, -858993460				; ccccccccH
	rep stosd
	pop	ecx
	mov	DWORD PTR _this$[ebp], ecx
	mov	eax, DWORD PTR ___that$[ebp]
	push	eax
	mov	ecx, DWORD PTR _this$[ebp]
	call	??4TimeZone@icu_56@@IAEAAV01@ABV01@@Z	; icu_56::TimeZone::operator=
	mov	eax, DWORD PTR _this$[ebp]
	pop	edi
	pop	esi
	pop	ebx
	add	esp, 204				; 000000ccH
	cmp	ebp, esp
	call	__RTC_CheckEsp
	mov	esp, ebp
	pop	ebp
	ret	4
??4BasicTimeZone@icu_56@@QAEAAV01@ABV01@@Z ENDP		; icu_56::BasicTimeZone::operator=
_TEXT	ENDS
PUBLIC	?setStartRule@SimpleTimeZone@icu_56@@QAEXHHHHAAW4UErrorCode@@@Z ; icu_56::SimpleTimeZone::setStartRule
EXTRN	?setStartRule@SimpleTimeZone@icu_56@@QAEXHHHHW4TimeMode@12@AAW4UErrorCode@@@Z:PROC ; icu_56::SimpleTimeZone::setStartRule
; Function compile flags: /Odtp /RTCsu /ZI
;	COMDAT ?setStartRule@SimpleTimeZone@icu_56@@QAEXHHHHAAW4UErrorCode@@@Z
_TEXT	SEGMENT
_this$ = -8						; size = 4
_month$ = 8						; size = 4
_dayOfWeekInMonth$ = 12					; size = 4
_dayOfWeek$ = 16					; size = 4
_time$ = 20						; size = 4
_status$ = 24						; size = 4
?setStartRule@SimpleTimeZone@icu_56@@QAEXHHHHAAW4UErrorCode@@@Z PROC ; icu_56::SimpleTimeZone::setStartRule, COMDAT
; _this$ = ecx
; File d:\mozilla\intl\icu\source\i18n\unicode\simpletz.h
; Line 886
	push	ebp
	mov	ebp, esp
	sub	esp, 204				; 000000ccH
	push	ebx
	push	esi
	push	edi
	push	ecx
	lea	edi, DWORD PTR [ebp-204]
	mov	ecx, 51					; 00000033H
	mov	eax, -858993460				; ccccccccH
	rep stosd
	pop	ecx
	mov	DWORD PTR _this$[ebp], ecx
; Line 887
	mov	eax, DWORD PTR _status$[ebp]
	push	eax
	push	0
	mov	ecx, DWORD PTR _time$[ebp]
	push	ecx
	mov	edx, DWORD PTR _dayOfWeek$[ebp]
	push	edx
	mov	eax, DWORD PTR _dayOfWeekInMonth$[ebp]
	push	eax
	mov	ecx, DWORD PTR _month$[ebp]
	push	ecx
	mov	ecx, DWORD PTR _this$[ebp]
	call	?setStartRule@SimpleTimeZone@icu_56@@QAEXHHHHW4TimeMode@12@AAW4UErrorCode@@@Z ; icu_56::SimpleTimeZone::setStartRule
; Line 888
	pop	edi
	pop	esi
	pop	ebx
	add	esp, 204				; 000000ccH
	cmp	ebp, esp
	call	__RTC_CheckEsp
	mov	esp, ebp
	pop	ebp
	ret	20					; 00000014H
?setStartRule@SimpleTimeZone@icu_56@@QAEXHHHHAAW4UErrorCode@@@Z ENDP ; icu_56::SimpleTimeZone::setStartRule
_TEXT	ENDS
PUBLIC	?setStartRule@SimpleTimeZone@icu_56@@QAEXHHHAAW4UErrorCode@@@Z ; icu_56::SimpleTimeZone::setStartRule
EXTRN	?setStartRule@SimpleTimeZone@icu_56@@QAEXHHHW4TimeMode@12@AAW4UErrorCode@@@Z:PROC ; icu_56::SimpleTimeZone::setStartRule
; Function compile flags: /Odtp /RTCsu /ZI
;	COMDAT ?setStartRule@SimpleTimeZone@icu_56@@QAEXHHHAAW4UErrorCode@@@Z
_TEXT	SEGMENT
_this$ = -8						; size = 4
_month$ = 8						; size = 4
_dayOfMonth$ = 12					; size = 4
_time$ = 16						; size = 4
_status$ = 20						; size = 4
?setStartRule@SimpleTimeZone@icu_56@@QAEXHHHAAW4UErrorCode@@@Z PROC ; icu_56::SimpleTimeZone::setStartRule, COMDAT
; _this$ = ecx
; Line 892
	push	ebp
	mov	ebp, esp
	sub	esp, 204				; 000000ccH
	push	ebx
	push	esi
	push	edi
	push	ecx
	lea	edi, DWORD PTR [ebp-204]
	mov	ecx, 51					; 00000033H
	mov	eax, -858993460				; ccccccccH
	rep stosd
	pop	ecx
	mov	DWORD PTR _this$[ebp], ecx
; Line 893
	mov	eax, DWORD PTR _status$[ebp]
	push	eax
	push	0
	mov	ecx, DWORD PTR _time$[ebp]
	push	ecx
	mov	edx, DWORD PTR _dayOfMonth$[ebp]
	push	edx
	mov	eax, DWORD PTR _month$[ebp]
	push	eax
	mov	ecx, DWORD PTR _this$[ebp]
	call	?setStartRule@SimpleTimeZone@icu_56@@QAEXHHHW4TimeMode@12@AAW4UErrorCode@@@Z ; icu_56::SimpleTimeZone::setStartRule
; Line 894
	pop	edi
	pop	esi
	pop	ebx
	add	esp, 204				; 000000ccH
	cmp	ebp, esp
	call	__RTC_CheckEsp
	mov	esp, ebp
	pop	ebp
	ret	16					; 00000010H
?setStartRule@SimpleTimeZone@icu_56@@QAEXHHHAAW4UErrorCode@@@Z ENDP ; icu_56::SimpleTimeZone::setStartRule
_TEXT	ENDS
PUBLIC	?setStartRule@SimpleTimeZone@icu_56@@QAEXHHHHCAAW4UErrorCode@@@Z ; icu_56::SimpleTimeZone::setStartRule
EXTRN	?setStartRule@SimpleTimeZone@icu_56@@QAEXHHHHW4TimeMode@12@CAAW4UErrorCode@@@Z:PROC ; icu_56::SimpleTimeZone::setStartRule
; Function compile flags: /Odtp /RTCsu /ZI
;	COMDAT ?setStartRule@SimpleTimeZone@icu_56@@QAEXHHHHCAAW4UErrorCode@@@Z
_TEXT	SEGMENT
_this$ = -8						; size = 4
_month$ = 8						; size = 4
_dayOfMonth$ = 12					; size = 4
_dayOfWeek$ = 16					; size = 4
_time$ = 20						; size = 4
_after$ = 24						; size = 1
_status$ = 28						; size = 4
?setStartRule@SimpleTimeZone@icu_56@@QAEXHHHHCAAW4UErrorCode@@@Z PROC ; icu_56::SimpleTimeZone::setStartRule, COMDAT
; _this$ = ecx
; Line 898
	push	ebp
	mov	ebp, esp
	sub	esp, 204				; 000000ccH
	push	ebx
	push	esi
	push	edi
	push	ecx
	lea	edi, DWORD PTR [ebp-204]
	mov	ecx, 51					; 00000033H
	mov	eax, -858993460				; ccccccccH
	rep stosd
	pop	ecx
	mov	DWORD PTR _this$[ebp], ecx
; Line 899
	mov	eax, DWORD PTR _status$[ebp]
	push	eax
	movzx	ecx, BYTE PTR _after$[ebp]
	push	ecx
	push	0
	mov	edx, DWORD PTR _time$[ebp]
	push	edx
	mov	eax, DWORD PTR _dayOfWeek$[ebp]
	push	eax
	mov	ecx, DWORD PTR _dayOfMonth$[ebp]
	push	ecx
	mov	edx, DWORD PTR _month$[ebp]
	push	edx
	mov	ecx, DWORD PTR _this$[ebp]
	call	?setStartRule@SimpleTimeZone@icu_56@@QAEXHHHHW4TimeMode@12@CAAW4UErrorCode@@@Z ; icu_56::SimpleTimeZone::setStartRule
; Line 900
	pop	edi
	pop	esi
	pop	ebx
	add	esp, 204				; 000000ccH
	cmp	ebp, esp
	call	__RTC_CheckEsp
	mov	esp, ebp
	pop	ebp
	ret	24					; 00000018H
?setStartRule@SimpleTimeZone@icu_56@@QAEXHHHHCAAW4UErrorCode@@@Z ENDP ; icu_56::SimpleTimeZone::setStartRule
_TEXT	ENDS
PUBLIC	?setEndRule@SimpleTimeZone@icu_56@@QAEXHHHHAAW4UErrorCode@@@Z ; icu_56::SimpleTimeZone::setEndRule
EXTRN	?setEndRule@SimpleTimeZone@icu_56@@QAEXHHHHW4TimeMode@12@AAW4UErrorCode@@@Z:PROC ; icu_56::SimpleTimeZone::setEndRule
; Function compile flags: /Odtp /RTCsu /ZI
;	COMDAT ?setEndRule@SimpleTimeZone@icu_56@@QAEXHHHHAAW4UErrorCode@@@Z
_TEXT	SEGMENT
_this$ = -8						; size = 4
_month$ = 8						; size = 4
_dayOfWeekInMonth$ = 12					; size = 4
_dayOfWeek$ = 16					; size = 4
_time$ = 20						; size = 4
_status$ = 24						; size = 4
?setEndRule@SimpleTimeZone@icu_56@@QAEXHHHHAAW4UErrorCode@@@Z PROC ; icu_56::SimpleTimeZone::setEndRule, COMDAT
; _this$ = ecx
; Line 904
	push	ebp
	mov	ebp, esp
	sub	esp, 204				; 000000ccH
	push	ebx
	push	esi
	push	edi
	push	ecx
	lea	edi, DWORD PTR [ebp-204]
	mov	ecx, 51					; 00000033H
	mov	eax, -858993460				; ccccccccH
	rep stosd
	pop	ecx
	mov	DWORD PTR _this$[ebp], ecx
; Line 905
	mov	eax, DWORD PTR _status$[ebp]
	push	eax
	push	0
	mov	ecx, DWORD PTR _time$[ebp]
	push	ecx
	mov	edx, DWORD PTR _dayOfWeek$[ebp]
	push	edx
	mov	eax, DWORD PTR _dayOfWeekInMonth$[ebp]
	push	eax
	mov	ecx, DWORD PTR _month$[ebp]
	push	ecx
	mov	ecx, DWORD PTR _this$[ebp]
	call	?setEndRule@SimpleTimeZone@icu_56@@QAEXHHHHW4TimeMode@12@AAW4UErrorCode@@@Z ; icu_56::SimpleTimeZone::setEndRule
; Line 906
	pop	edi
	pop	esi
	pop	ebx
	add	esp, 204				; 000000ccH
	cmp	ebp, esp
	call	__RTC_CheckEsp
	mov	esp, ebp
	pop	ebp
	ret	20					; 00000014H
?setEndRule@SimpleTimeZone@icu_56@@QAEXHHHHAAW4UErrorCode@@@Z ENDP ; icu_56::SimpleTimeZone::setEndRule
_TEXT	ENDS
PUBLIC	?setEndRule@SimpleTimeZone@icu_56@@QAEXHHHAAW4UErrorCode@@@Z ; icu_56::SimpleTimeZone::setEndRule
EXTRN	?setEndRule@SimpleTimeZone@icu_56@@QAEXHHHW4TimeMode@12@AAW4UErrorCode@@@Z:PROC ; icu_56::SimpleTimeZone::setEndRule
; Function compile flags: /Odtp /RTCsu /ZI
;	COMDAT ?setEndRule@SimpleTimeZone@icu_56@@QAEXHHHAAW4UErrorCode@@@Z
_TEXT	SEGMENT
_this$ = -8						; size = 4
_month$ = 8						; size = 4
_dayOfMonth$ = 12					; size = 4
_time$ = 16						; size = 4
_status$ = 20						; size = 4
?setEndRule@SimpleTimeZone@icu_56@@QAEXHHHAAW4UErrorCode@@@Z PROC ; icu_56::SimpleTimeZone::setEndRule, COMDAT
; _this$ = ecx
; Line 909
	push	ebp
	mov	ebp, esp
	sub	esp, 204				; 000000ccH
	push	ebx
	push	esi
	push	edi
	push	ecx
	lea	edi, DWORD PTR [ebp-204]
	mov	ecx, 51					; 00000033H
	mov	eax, -858993460				; ccccccccH
	rep stosd
	pop	ecx
	mov	DWORD PTR _this$[ebp], ecx
; Line 910
	mov	eax, DWORD PTR _status$[ebp]
	push	eax
	push	0
	mov	ecx, DWORD PTR _time$[ebp]
	push	ecx
	mov	edx, DWORD PTR _dayOfMonth$[ebp]
	push	edx
	mov	eax, DWORD PTR _month$[ebp]
	push	eax
	mov	ecx, DWORD PTR _this$[ebp]
	call	?setEndRule@SimpleTimeZone@icu_56@@QAEXHHHW4TimeMode@12@AAW4UErrorCode@@@Z ; icu_56::SimpleTimeZone::setEndRule
; Line 911
	pop	edi
	pop	esi
	pop	ebx
	add	esp, 204				; 000000ccH
	cmp	ebp, esp
	call	__RTC_CheckEsp
	mov	esp, ebp
	pop	ebp
	ret	16					; 00000010H
?setEndRule@SimpleTimeZone@icu_56@@QAEXHHHAAW4UErrorCode@@@Z ENDP ; icu_56::SimpleTimeZone::setEndRule
_TEXT	ENDS
PUBLIC	?setEndRule@SimpleTimeZone@icu_56@@QAEXHHHHCAAW4UErrorCode@@@Z ; icu_56::SimpleTimeZone::setEndRule
EXTRN	?setEndRule@SimpleTimeZone@icu_56@@QAEXHHHHW4TimeMode@12@CAAW4UErrorCode@@@Z:PROC ; icu_56::SimpleTimeZone::setEndRule
; Function compile flags: /Odtp /RTCsu /ZI
;	COMDAT ?setEndRule@SimpleTimeZone@icu_56@@QAEXHHHHCAAW4UErrorCode@@@Z
_TEXT	SEGMENT
_this$ = -8						; size = 4
_month$ = 8						; size = 4
_dayOfMonth$ = 12					; size = 4
_dayOfWeek$ = 16					; size = 4
_time$ = 20						; size = 4
_after$ = 24						; size = 1
_status$ = 28						; size = 4
?setEndRule@SimpleTimeZone@icu_56@@QAEXHHHHCAAW4UErrorCode@@@Z PROC ; icu_56::SimpleTimeZone::setEndRule, COMDAT
; _this$ = ecx
; Line 914
	push	ebp
	mov	ebp, esp
	sub	esp, 204				; 000000ccH
	push	ebx
	push	esi
	push	edi
	push	ecx
	lea	edi, DWORD PTR [ebp-204]
	mov	ecx, 51					; 00000033H
	mov	eax, -858993460				; ccccccccH
	rep stosd
	pop	ecx
	mov	DWORD PTR _this$[ebp], ecx
; Line 915
	mov	eax, DWORD PTR _status$[ebp]
	push	eax
	movzx	ecx, BYTE PTR _after$[ebp]
	push	ecx
	push	0
	mov	edx, DWORD PTR _time$[ebp]
	push	edx
	mov	eax, DWORD PTR _dayOfWeek$[ebp]
	push	eax
	mov	ecx, DWORD PTR _dayOfMonth$[ebp]
	push	ecx
	mov	edx, DWORD PTR _month$[ebp]
	push	edx
	mov	ecx, DWORD PTR _this$[ebp]
	call	?setEndRule@SimpleTimeZone@icu_56@@QAEXHHHHW4TimeMode@12@CAAW4UErrorCode@@@Z ; icu_56::SimpleTimeZone::setEndRule
; Line 916
	pop	edi
	pop	esi
	pop	ebx
	add	esp, 204				; 000000ccH
	cmp	ebp, esp
	call	__RTC_CheckEsp
	mov	esp, ebp
	pop	ebp
	ret	24					; 00000018H
?setEndRule@SimpleTimeZone@icu_56@@QAEXHHHHCAAW4UErrorCode@@@Z ENDP ; icu_56::SimpleTimeZone::setEndRule
_TEXT	ENDS
PUBLIC	?getOffset@SimpleTimeZone@icu_56@@UBEXNCAAH0AAW4UErrorCode@@@Z ; icu_56::SimpleTimeZone::getOffset
EXTRN	?getOffset@TimeZone@icu_56@@UBEXNCAAH0AAW4UErrorCode@@@Z:PROC ; icu_56::TimeZone::getOffset
; Function compile flags: /Odtp /RTCsu /ZI
;	COMDAT ?getOffset@SimpleTimeZone@icu_56@@UBEXNCAAH0AAW4UErrorCode@@@Z
_TEXT	SEGMENT
_this$ = -8						; size = 4
_date$ = 8						; size = 8
_local$ = 16						; size = 1
_rawOffsetRef$ = 20					; size = 4
_dstOffsetRef$ = 24					; size = 4
_ec$ = 28						; size = 4
?getOffset@SimpleTimeZone@icu_56@@UBEXNCAAH0AAW4UErrorCode@@@Z PROC ; icu_56::SimpleTimeZone::getOffset, COMDAT
; _this$ = ecx
; Line 920
	push	ebp
	mov	ebp, esp
	sub	esp, 204				; 000000ccH
	push	ebx
	push	esi
	push	edi
	push	ecx
	lea	edi, DWORD PTR [ebp-204]
	mov	ecx, 51					; 00000033H
	mov	eax, -858993460				; ccccccccH
	rep stosd
	pop	ecx
	mov	DWORD PTR _this$[ebp], ecx
; Line 921
	mov	eax, DWORD PTR _ec$[ebp]
	push	eax
	mov	ecx, DWORD PTR _dstOffsetRef$[ebp]
	push	ecx
	mov	edx, DWORD PTR _rawOffsetRef$[ebp]
	push	edx
	movzx	eax, BYTE PTR _local$[ebp]
	push	eax
	sub	esp, 8
	fld	QWORD PTR _date$[ebp]
	fstp	QWORD PTR [esp]
	mov	ecx, DWORD PTR _this$[ebp]
	call	?getOffset@TimeZone@icu_56@@UBEXNCAAH0AAW4UErrorCode@@@Z ; icu_56::TimeZone::getOffset
; Line 922
	pop	edi
	pop	esi
	pop	ebx
	add	esp, 204				; 000000ccH
	cmp	ebp, esp
	call	__RTC_CheckEsp
	mov	esp, ebp
	pop	ebp
	ret	24					; 00000018H
?getOffset@SimpleTimeZone@icu_56@@UBEXNCAAH0AAW4UErrorCode@@@Z ENDP ; icu_56::SimpleTimeZone::getOffset
_TEXT	ENDS
PUBLIC	??4Calendar@icu_56@@IAEAAV01@ABV01@@Z		; icu_56::Calendar::operator=
PUBLIC	??4IslamicCalendar@icu_56@@QAEAAV01@ABV01@@Z	; icu_56::IslamicCalendar::operator=
; Function compile flags: /Odtp /RTCsu /ZI
;	COMDAT ??4IslamicCalendar@icu_56@@QAEAAV01@ABV01@@Z
_TEXT	SEGMENT
_this$ = -8						; size = 4
___that$ = 8						; size = 4
??4IslamicCalendar@icu_56@@QAEAAV01@ABV01@@Z PROC	; icu_56::IslamicCalendar::operator=, COMDAT
; _this$ = ecx
	push	ebp
	mov	ebp, esp
	sub	esp, 204				; 000000ccH
	push	ebx
	push	esi
	push	edi
	push	ecx
	lea	edi, DWORD PTR [ebp-204]
	mov	ecx, 51					; 00000033H
	mov	eax, -858993460				; ccccccccH
	rep stosd
	pop	ecx
	mov	DWORD PTR _this$[ebp], ecx
	mov	eax, DWORD PTR ___that$[ebp]
	push	eax
	mov	ecx, DWORD PTR _this$[ebp]
	call	??4Calendar@icu_56@@IAEAAV01@ABV01@@Z	; icu_56::Calendar::operator=
	mov	eax, DWORD PTR _this$[ebp]
	mov	ecx, DWORD PTR ___that$[ebp]
	mov	edx, DWORD PTR [ecx+608]
	mov	DWORD PTR [eax+608], edx
	mov	eax, DWORD PTR _this$[ebp]
	pop	edi
	pop	esi
	pop	ebx
	add	esp, 204				; 000000ccH
	cmp	ebp, esp
	call	__RTC_CheckEsp
	mov	esp, ebp
	pop	ebp
	ret	4
??4IslamicCalendar@icu_56@@QAEAAV01@ABV01@@Z ENDP	; icu_56::IslamicCalendar::operator=
_TEXT	ENDS
PUBLIC	??4ChineseCalendar@icu_56@@QAEAAV01@ABV01@@Z	; icu_56::ChineseCalendar::operator=
; Function compile flags: /Odtp /RTCsu /ZI
;	COMDAT ??4ChineseCalendar@icu_56@@QAEAAV01@ABV01@@Z
_TEXT	SEGMENT
_this$ = -8						; size = 4
___that$ = 8						; size = 4
??4ChineseCalendar@icu_56@@QAEAAV01@ABV01@@Z PROC	; icu_56::ChineseCalendar::operator=, COMDAT
; _this$ = ecx
	push	ebp
	mov	ebp, esp
	sub	esp, 204				; 000000ccH
	push	ebx
	push	esi
	push	edi
	push	ecx
	lea	edi, DWORD PTR [ebp-204]
	mov	ecx, 51					; 00000033H
	mov	eax, -858993460				; ccccccccH
	rep stosd
	pop	ecx
	mov	DWORD PTR _this$[ebp], ecx
	mov	eax, DWORD PTR ___that$[ebp]
	push	eax
	mov	ecx, DWORD PTR _this$[ebp]
	call	??4Calendar@icu_56@@IAEAAV01@ABV01@@Z	; icu_56::Calendar::operator=
	mov	eax, DWORD PTR _this$[ebp]
	mov	ecx, DWORD PTR ___that$[ebp]
	mov	dl, BYTE PTR [ecx+608]
	mov	BYTE PTR [eax+608], dl
	mov	eax, DWORD PTR _this$[ebp]
	mov	ecx, DWORD PTR ___that$[ebp]
	mov	edx, DWORD PTR [ecx+612]
	mov	DWORD PTR [eax+612], edx
	mov	eax, DWORD PTR _this$[ebp]
	mov	ecx, DWORD PTR ___that$[ebp]
	mov	edx, DWORD PTR [ecx+616]
	mov	DWORD PTR [eax+616], edx
	mov	eax, DWORD PTR _this$[ebp]
	pop	edi
	pop	esi
	pop	ebx
	add	esp, 204				; 000000ccH
	cmp	ebp, esp
	call	__RTC_CheckEsp
	mov	esp, ebp
	pop	ebp
	ret	4
??4ChineseCalendar@icu_56@@QAEAAV01@ABV01@@Z ENDP	; icu_56::ChineseCalendar::operator=
_TEXT	ENDS
PUBLIC	?transitionCount@OlsonTimeZone@icu_56@@ABEFXZ	; icu_56::OlsonTimeZone::transitionCount
; Function compile flags: /Odtp /RTCsu /ZI
;	COMDAT ?transitionCount@OlsonTimeZone@icu_56@@ABEFXZ
_TEXT	SEGMENT
_this$ = -8						; size = 4
?transitionCount@OlsonTimeZone@icu_56@@ABEFXZ PROC	; icu_56::OlsonTimeZone::transitionCount, COMDAT
; _this$ = ecx
; File d:\mozilla\intl\icu\source\i18n\olsontz.h
; Line 403
	push	ebp
	mov	ebp, esp
	sub	esp, 204				; 000000ccH
	push	ebx
	push	esi
	push	edi
	push	ecx
	lea	edi, DWORD PTR [ebp-204]
	mov	ecx, 51					; 00000033H
	mov	eax, -858993460				; ccccccccH
	rep stosd
	pop	ecx
	mov	DWORD PTR _this$[ebp], ecx
; Line 404
	mov	eax, DWORD PTR _this$[ebp]
	movsx	eax, WORD PTR [eax+68]
	mov	ecx, DWORD PTR _this$[ebp]
	movsx	edx, WORD PTR [ecx+70]
	add	eax, edx
	mov	ecx, DWORD PTR _this$[ebp]
	movsx	edx, WORD PTR [ecx+72]
	add	eax, edx
; Line 405
	pop	edi
	pop	esi
	pop	ebx
	mov	esp, ebp
	pop	ebp
	ret	0
?transitionCount@OlsonTimeZone@icu_56@@ABEFXZ ENDP	; icu_56::OlsonTimeZone::transitionCount
_TEXT	ENDS
PUBLIC	__real@408f400000000000
PUBLIC	?transitionTime@OlsonTimeZone@icu_56@@ABENF@Z	; icu_56::OlsonTimeZone::transitionTime
EXTRN	?transitionTimeInSeconds@OlsonTimeZone@icu_56@@ABE_JF@Z:PROC ; icu_56::OlsonTimeZone::transitionTimeInSeconds
;	COMDAT __real@408f400000000000
CONST	SEGMENT
__real@408f400000000000 DQ 0408f400000000000r	; 1000
; Function compile flags: /Odtp /RTCsu /ZI
CONST	ENDS
;	COMDAT ?transitionTime@OlsonTimeZone@icu_56@@ABENF@Z
_TEXT	SEGMENT
tv76 = -212						; size = 8
_this$ = -8						; size = 4
_transIdx$ = 8						; size = 2
?transitionTime@OlsonTimeZone@icu_56@@ABENF@Z PROC	; icu_56::OlsonTimeZone::transitionTime, COMDAT
; _this$ = ecx
; Line 408
	push	ebp
	mov	ebp, esp
	sub	esp, 212				; 000000d4H
	push	ebx
	push	esi
	push	edi
	push	ecx
	lea	edi, DWORD PTR [ebp-212]
	mov	ecx, 53					; 00000035H
	mov	eax, -858993460				; ccccccccH
	rep stosd
	pop	ecx
	mov	DWORD PTR _this$[ebp], ecx
; Line 409
	movzx	eax, WORD PTR _transIdx$[ebp]
	push	eax
	mov	ecx, DWORD PTR _this$[ebp]
	call	?transitionTimeInSeconds@OlsonTimeZone@icu_56@@ABE_JF@Z ; icu_56::OlsonTimeZone::transitionTimeInSeconds
	mov	DWORD PTR tv76[ebp], eax
	mov	DWORD PTR tv76[ebp+4], edx
	fild	QWORD PTR tv76[ebp]
	fmul	QWORD PTR __real@408f400000000000
; Line 410
	pop	edi
	pop	esi
	pop	ebx
	add	esp, 212				; 000000d4H
	cmp	ebp, esp
	call	__RTC_CheckEsp
	mov	esp, ebp
	pop	ebp
	ret	4
?transitionTime@OlsonTimeZone@icu_56@@ABENF@Z ENDP	; icu_56::OlsonTimeZone::transitionTime
_TEXT	ENDS
PUBLIC	?zoneOffsetAt@OlsonTimeZone@icu_56@@ABEHF@Z	; icu_56::OlsonTimeZone::zoneOffsetAt
; Function compile flags: /Odtp /RTCsu /ZI
;	COMDAT ?zoneOffsetAt@OlsonTimeZone@icu_56@@ABEHF@Z
_TEXT	SEGMENT
tv70 = -220						; size = 4
_typeIdx$ = -20						; size = 2
_this$ = -8						; size = 4
_transIdx$ = 8						; size = 2
?zoneOffsetAt@OlsonTimeZone@icu_56@@ABEHF@Z PROC	; icu_56::OlsonTimeZone::zoneOffsetAt, COMDAT
; _this$ = ecx
; Line 413
	push	ebp
	mov	ebp, esp
	sub	esp, 220				; 000000dcH
	push	ebx
	push	esi
	push	edi
	push	ecx
	lea	edi, DWORD PTR [ebp-220]
	mov	ecx, 55					; 00000037H
	mov	eax, -858993460				; ccccccccH
	rep stosd
	pop	ecx
	mov	DWORD PTR _this$[ebp], ecx
; Line 414
	movsx	eax, WORD PTR _transIdx$[ebp]
	test	eax, eax
	jl	SHORT $LN3@zoneOffset
	movsx	ecx, WORD PTR _transIdx$[ebp]
	mov	edx, DWORD PTR _this$[ebp]
	mov	eax, DWORD PTR [edx+96]
	movzx	ecx, BYTE PTR [eax+ecx]
	mov	DWORD PTR tv70[ebp], ecx
	jmp	SHORT $LN4@zoneOffset
$LN3@zoneOffset:
	mov	DWORD PTR tv70[ebp], 0
$LN4@zoneOffset:
	mov	edx, DWORD PTR tv70[ebp]
	shl	edx, 1
	mov	WORD PTR _typeIdx$[ebp], dx
; Line 415
	movsx	eax, WORD PTR _typeIdx$[ebp]
	mov	ecx, DWORD PTR _this$[ebp]
	mov	edx, DWORD PTR [ecx+92]
	movsx	ecx, WORD PTR _typeIdx$[ebp]
	mov	esi, DWORD PTR _this$[ebp]
	mov	esi, DWORD PTR [esi+92]
	mov	eax, DWORD PTR [edx+eax*4]
	add	eax, DWORD PTR [esi+ecx*4+4]
; Line 416
	pop	edi
	pop	esi
	pop	ebx
	mov	esp, ebp
	pop	ebp
	ret	4
?zoneOffsetAt@OlsonTimeZone@icu_56@@ABEHF@Z ENDP	; icu_56::OlsonTimeZone::zoneOffsetAt
_TEXT	ENDS
PUBLIC	?rawOffsetAt@OlsonTimeZone@icu_56@@ABEHF@Z	; icu_56::OlsonTimeZone::rawOffsetAt
; Function compile flags: /Odtp /RTCsu /ZI
;	COMDAT ?rawOffsetAt@OlsonTimeZone@icu_56@@ABEHF@Z
_TEXT	SEGMENT
tv70 = -220						; size = 4
_typeIdx$ = -20						; size = 2
_this$ = -8						; size = 4
_transIdx$ = 8						; size = 2
?rawOffsetAt@OlsonTimeZone@icu_56@@ABEHF@Z PROC		; icu_56::OlsonTimeZone::rawOffsetAt, COMDAT
; _this$ = ecx
; Line 419
	push	ebp
	mov	ebp, esp
	sub	esp, 220				; 000000dcH
	push	ebx
	push	esi
	push	edi
	push	ecx
	lea	edi, DWORD PTR [ebp-220]
	mov	ecx, 55					; 00000037H
	mov	eax, -858993460				; ccccccccH
	rep stosd
	pop	ecx
	mov	DWORD PTR _this$[ebp], ecx
; Line 420
	movsx	eax, WORD PTR _transIdx$[ebp]
	test	eax, eax
	jl	SHORT $LN3@rawOffsetA
	movsx	ecx, WORD PTR _transIdx$[ebp]
	mov	edx, DWORD PTR _this$[ebp]
	mov	eax, DWORD PTR [edx+96]
	movzx	ecx, BYTE PTR [eax+ecx]
	mov	DWORD PTR tv70[ebp], ecx
	jmp	SHORT $LN4@rawOffsetA
$LN3@rawOffsetA:
	mov	DWORD PTR tv70[ebp], 0
$LN4@rawOffsetA:
	mov	edx, DWORD PTR tv70[ebp]
	shl	edx, 1
	mov	WORD PTR _typeIdx$[ebp], dx
; Line 421
	movsx	eax, WORD PTR _typeIdx$[ebp]
	mov	ecx, DWORD PTR _this$[ebp]
	mov	edx, DWORD PTR [ecx+92]
	mov	eax, DWORD PTR [edx+eax*4]
; Line 422
	pop	edi
	pop	esi
	pop	ebx
	mov	esp, ebp
	pop	ebp
	ret	4
?rawOffsetAt@OlsonTimeZone@icu_56@@ABEHF@Z ENDP		; icu_56::OlsonTimeZone::rawOffsetAt
_TEXT	ENDS
PUBLIC	?dstOffsetAt@OlsonTimeZone@icu_56@@ABEHF@Z	; icu_56::OlsonTimeZone::dstOffsetAt
; Function compile flags: /Odtp /RTCsu /ZI
;	COMDAT ?dstOffsetAt@OlsonTimeZone@icu_56@@ABEHF@Z
_TEXT	SEGMENT
tv70 = -220						; size = 4
_typeIdx$ = -20						; size = 2
_this$ = -8						; size = 4
_transIdx$ = 8						; size = 2
?dstOffsetAt@OlsonTimeZone@icu_56@@ABEHF@Z PROC		; icu_56::OlsonTimeZone::dstOffsetAt, COMDAT
; _this$ = ecx
; Line 425
	push	ebp
	mov	ebp, esp
	sub	esp, 220				; 000000dcH
	push	ebx
	push	esi
	push	edi
	push	ecx
	lea	edi, DWORD PTR [ebp-220]
	mov	ecx, 55					; 00000037H
	mov	eax, -858993460				; ccccccccH
	rep stosd
	pop	ecx
	mov	DWORD PTR _this$[ebp], ecx
; Line 426
	movsx	eax, WORD PTR _transIdx$[ebp]
	test	eax, eax
	jl	SHORT $LN3@dstOffsetA
	movsx	ecx, WORD PTR _transIdx$[ebp]
	mov	edx, DWORD PTR _this$[ebp]
	mov	eax, DWORD PTR [edx+96]
	movzx	ecx, BYTE PTR [eax+ecx]
	mov	DWORD PTR tv70[ebp], ecx
	jmp	SHORT $LN4@dstOffsetA
$LN3@dstOffsetA:
	mov	DWORD PTR tv70[ebp], 0
$LN4@dstOffsetA:
	mov	edx, DWORD PTR tv70[ebp]
	shl	edx, 1
	mov	WORD PTR _typeIdx$[ebp], dx
; Line 427
	movsx	eax, WORD PTR _typeIdx$[ebp]
	mov	ecx, DWORD PTR _this$[ebp]
	mov	edx, DWORD PTR [ecx+92]
	mov	eax, DWORD PTR [edx+eax*4+4]
; Line 428
	pop	edi
	pop	esi
	pop	ebx
	mov	esp, ebp
	pop	ebp
	ret	4
?dstOffsetAt@OlsonTimeZone@icu_56@@ABEHF@Z ENDP		; icu_56::OlsonTimeZone::dstOffsetAt
_TEXT	ENDS
PUBLIC	?initialRawOffset@OlsonTimeZone@icu_56@@ABEHXZ	; icu_56::OlsonTimeZone::initialRawOffset
; Function compile flags: /Odtp /RTCsu /ZI
;	COMDAT ?initialRawOffset@OlsonTimeZone@icu_56@@ABEHXZ
_TEXT	SEGMENT
_this$ = -8						; size = 4
?initialRawOffset@OlsonTimeZone@icu_56@@ABEHXZ PROC	; icu_56::OlsonTimeZone::initialRawOffset, COMDAT
; _this$ = ecx
; Line 431
	push	ebp
	mov	ebp, esp
	sub	esp, 204				; 000000ccH
	push	ebx
	push	esi
	push	edi
	push	ecx
	lea	edi, DWORD PTR [ebp-204]
	mov	ecx, 51					; 00000033H
	mov	eax, -858993460				; ccccccccH
	rep stosd
	pop	ecx
	mov	DWORD PTR _this$[ebp], ecx
; Line 432
	mov	eax, DWORD PTR _this$[ebp]
	mov	ecx, DWORD PTR [eax+92]
	mov	eax, DWORD PTR [ecx]
; Line 433
	pop	edi
	pop	esi
	pop	ebx
	mov	esp, ebp
	pop	ebp
	ret	0
?initialRawOffset@OlsonTimeZone@icu_56@@ABEHXZ ENDP	; icu_56::OlsonTimeZone::initialRawOffset
_TEXT	ENDS
PUBLIC	?initialDstOffset@OlsonTimeZone@icu_56@@ABEHXZ	; icu_56::OlsonTimeZone::initialDstOffset
; Function compile flags: /Odtp /RTCsu /ZI
;	COMDAT ?initialDstOffset@OlsonTimeZone@icu_56@@ABEHXZ
_TEXT	SEGMENT
_this$ = -8						; size = 4
?initialDstOffset@OlsonTimeZone@icu_56@@ABEHXZ PROC	; icu_56::OlsonTimeZone::initialDstOffset, COMDAT
; _this$ = ecx
; Line 436
	push	ebp
	mov	ebp, esp
	sub	esp, 204				; 000000ccH
	push	ebx
	push	esi
	push	edi
	push	ecx
	lea	edi, DWORD PTR [ebp-204]
	mov	ecx, 51					; 00000033H
	mov	eax, -858993460				; ccccccccH
	rep stosd
	pop	ecx
	mov	DWORD PTR _this$[ebp], ecx
; Line 437
	mov	eax, DWORD PTR _this$[ebp]
	mov	ecx, DWORD PTR [eax+92]
	mov	eax, DWORD PTR [ecx+4]
; Line 438
	pop	edi
	pop	esi
	pop	ebx
	mov	esp, ebp
	pop	ebp
	ret	0
?initialDstOffset@OlsonTimeZone@icu_56@@ABEHXZ ENDP	; icu_56::OlsonTimeZone::initialDstOffset
_TEXT	ENDS
PUBLIC	?getCanonicalID@OlsonTimeZone@icu_56@@QBEPB_WXZ	; icu_56::OlsonTimeZone::getCanonicalID
; Function compile flags: /Odtp /RTCsu /ZI
;	COMDAT ?getCanonicalID@OlsonTimeZone@icu_56@@QBEPB_WXZ
_TEXT	SEGMENT
_this$ = -8						; size = 4
?getCanonicalID@OlsonTimeZone@icu_56@@QBEPB_WXZ PROC	; icu_56::OlsonTimeZone::getCanonicalID, COMDAT
; _this$ = ecx
; Line 441
	push	ebp
	mov	ebp, esp
	sub	esp, 204				; 000000ccH
	push	ebx
	push	esi
	push	edi
	push	ecx
	lea	edi, DWORD PTR [ebp-204]
	mov	ecx, 51					; 00000033H
	mov	eax, -858993460				; ccccccccH
	rep stosd
	pop	ecx
	mov	DWORD PTR _this$[ebp], ecx
; Line 442
	mov	eax, DWORD PTR _this$[ebp]
	mov	eax, DWORD PTR [eax+116]
; Line 443
	pop	edi
	pop	esi
	pop	ebx
	mov	esp, ebp
	pop	ebp
	ret	0
?getCanonicalID@OlsonTimeZone@icu_56@@QBEPB_WXZ ENDP	; icu_56::OlsonTimeZone::getCanonicalID
_TEXT	ENDS
PUBLIC	??_7SharedCalendar@icu_56@@6B@			; icu_56::SharedCalendar::`vftable'
PUBLIC	??0SharedCalendar@icu_56@@QAE@PAVCalendar@1@@Z	; icu_56::SharedCalendar::SharedCalendar
PUBLIC	??_R4SharedCalendar@icu_56@@6B@			; icu_56::SharedCalendar::`RTTI Complete Object Locator'
PUBLIC	??_R0?AVSharedCalendar@icu_56@@@8		; icu_56::SharedCalendar `RTTI Type Descriptor'
PUBLIC	??_R3SharedCalendar@icu_56@@8			; icu_56::SharedCalendar::`RTTI Class Hierarchy Descriptor'
PUBLIC	??_R2SharedCalendar@icu_56@@8			; icu_56::SharedCalendar::`RTTI Base Class Array'
PUBLIC	??_R1A@?0A@EA@SharedCalendar@icu_56@@8		; icu_56::SharedCalendar::`RTTI Base Class Descriptor at (0,-1,0,64)'
PUBLIC	??_R1A@?0A@EA@SharedObject@icu_56@@8		; icu_56::SharedObject::`RTTI Base Class Descriptor at (0,-1,0,64)'
PUBLIC	??_R0?AVSharedObject@icu_56@@@8			; icu_56::SharedObject `RTTI Type Descriptor'
PUBLIC	??_R3SharedObject@icu_56@@8			; icu_56::SharedObject::`RTTI Class Hierarchy Descriptor'
PUBLIC	??_R2SharedObject@icu_56@@8			; icu_56::SharedObject::`RTTI Base Class Array'
PUBLIC	??_R1A@?0A@EA@UObject@icu_56@@8			; icu_56::UObject::`RTTI Base Class Descriptor at (0,-1,0,64)'
PUBLIC	??_R0?AVUObject@icu_56@@@8			; icu_56::UObject `RTTI Type Descriptor'
PUBLIC	??_R3UObject@icu_56@@8				; icu_56::UObject::`RTTI Class Hierarchy Descriptor'
PUBLIC	??_R2UObject@icu_56@@8				; icu_56::UObject::`RTTI Base Class Array'
PUBLIC	??_R13?0A@EA@UMemory@icu_56@@8			; icu_56::UMemory::`RTTI Base Class Descriptor at (4,-1,0,64)'
PUBLIC	??_R0?AVUMemory@icu_56@@@8			; icu_56::UMemory `RTTI Type Descriptor'
PUBLIC	??_R3UMemory@icu_56@@8				; icu_56::UMemory::`RTTI Class Hierarchy Descriptor'
PUBLIC	??_R2UMemory@icu_56@@8				; icu_56::UMemory::`RTTI Base Class Array'
PUBLIC	??_R1A@?0A@EA@UMemory@icu_56@@8			; icu_56::UMemory::`RTTI Base Class Descriptor at (0,-1,0,64)'
PUBLIC	??_ESharedCalendar@icu_56@@UAEPAXI@Z		; icu_56::SharedCalendar::`vector deleting destructor'
EXTRN	__imp_??0SharedObject@icu_56@@QAE@XZ:PROC
EXTRN	??_7type_info@@6B@:QWORD			; type_info::`vftable'
EXTRN	?getDynamicClassID@UObject@icu_56@@UBEPAXXZ:PROC ; icu_56::UObject::getDynamicClassID
;	COMDAT ??_R1A@?0A@EA@UMemory@icu_56@@8
; File d:\mozilla\intl\icu\source\i18n\sharedcalendar.h
rdata$r	SEGMENT
??_R1A@?0A@EA@UMemory@icu_56@@8 DD FLAT:??_R0?AVUMemory@icu_56@@@8 ; icu_56::UMemory::`RTTI Base Class Descriptor at (0,-1,0,64)'
	DD	00H
	DD	00H
	DD	0ffffffffH
	DD	00H
	DD	040H
	DD	FLAT:??_R3UMemory@icu_56@@8
rdata$r	ENDS
;	COMDAT ??_R2UMemory@icu_56@@8
rdata$r	SEGMENT
??_R2UMemory@icu_56@@8 DD FLAT:??_R1A@?0A@EA@UMemory@icu_56@@8 ; icu_56::UMemory::`RTTI Base Class Array'
rdata$r	ENDS
;	COMDAT ??_R3UMemory@icu_56@@8
rdata$r	SEGMENT
??_R3UMemory@icu_56@@8 DD 00H				; icu_56::UMemory::`RTTI Class Hierarchy Descriptor'
	DD	00H
	DD	01H
	DD	FLAT:??_R2UMemory@icu_56@@8
rdata$r	ENDS
;	COMDAT ??_R0?AVUMemory@icu_56@@@8
_DATA	SEGMENT
??_R0?AVUMemory@icu_56@@@8 DD FLAT:??_7type_info@@6B@	; icu_56::UMemory `RTTI Type Descriptor'
	DD	00H
	DB	'.?AVUMemory@icu_56@@', 00H
_DATA	ENDS
;	COMDAT ??_R13?0A@EA@UMemory@icu_56@@8
rdata$r	SEGMENT
??_R13?0A@EA@UMemory@icu_56@@8 DD FLAT:??_R0?AVUMemory@icu_56@@@8 ; icu_56::UMemory::`RTTI Base Class Descriptor at (4,-1,0,64)'
	DD	00H
	DD	04H
	DD	0ffffffffH
	DD	00H
	DD	040H
	DD	FLAT:??_R3UMemory@icu_56@@8
rdata$r	ENDS
;	COMDAT ??_R2UObject@icu_56@@8
rdata$r	SEGMENT
??_R2UObject@icu_56@@8 DD FLAT:??_R1A@?0A@EA@UObject@icu_56@@8 ; icu_56::UObject::`RTTI Base Class Array'
	DD	FLAT:??_R13?0A@EA@UMemory@icu_56@@8
rdata$r	ENDS
;	COMDAT ??_R3UObject@icu_56@@8
rdata$r	SEGMENT
??_R3UObject@icu_56@@8 DD 00H				; icu_56::UObject::`RTTI Class Hierarchy Descriptor'
	DD	00H
	DD	02H
	DD	FLAT:??_R2UObject@icu_56@@8
rdata$r	ENDS
;	COMDAT ??_R0?AVUObject@icu_56@@@8
_DATA	SEGMENT
??_R0?AVUObject@icu_56@@@8 DD FLAT:??_7type_info@@6B@	; icu_56::UObject `RTTI Type Descriptor'
	DD	00H
	DB	'.?AVUObject@icu_56@@', 00H
_DATA	ENDS
;	COMDAT ??_R1A@?0A@EA@UObject@icu_56@@8
rdata$r	SEGMENT
??_R1A@?0A@EA@UObject@icu_56@@8 DD FLAT:??_R0?AVUObject@icu_56@@@8 ; icu_56::UObject::`RTTI Base Class Descriptor at (0,-1,0,64)'
	DD	01H
	DD	00H
	DD	0ffffffffH
	DD	00H
	DD	040H
	DD	FLAT:??_R3UObject@icu_56@@8
rdata$r	ENDS
;	COMDAT ??_R2SharedObject@icu_56@@8
rdata$r	SEGMENT
??_R2SharedObject@icu_56@@8 DD FLAT:??_R1A@?0A@EA@SharedObject@icu_56@@8 ; icu_56::SharedObject::`RTTI Base Class Array'
	DD	FLAT:??_R1A@?0A@EA@UObject@icu_56@@8
	DD	FLAT:??_R13?0A@EA@UMemory@icu_56@@8
rdata$r	ENDS
;	COMDAT ??_R3SharedObject@icu_56@@8
rdata$r	SEGMENT
??_R3SharedObject@icu_56@@8 DD 00H			; icu_56::SharedObject::`RTTI Class Hierarchy Descriptor'
	DD	00H
	DD	03H
	DD	FLAT:??_R2SharedObject@icu_56@@8
rdata$r	ENDS
;	COMDAT ??_R0?AVSharedObject@icu_56@@@8
_DATA	SEGMENT
??_R0?AVSharedObject@icu_56@@@8 DD FLAT:??_7type_info@@6B@ ; icu_56::SharedObject `RTTI Type Descriptor'
	DD	00H
	DB	'.?AVSharedObject@icu_56@@', 00H
_DATA	ENDS
;	COMDAT ??_R1A@?0A@EA@SharedObject@icu_56@@8
rdata$r	SEGMENT
??_R1A@?0A@EA@SharedObject@icu_56@@8 DD FLAT:??_R0?AVSharedObject@icu_56@@@8 ; icu_56::SharedObject::`RTTI Base Class Descriptor at (0,-1,0,64)'
	DD	02H
	DD	00H
	DD	0ffffffffH
	DD	00H
	DD	040H
	DD	FLAT:??_R3SharedObject@icu_56@@8
rdata$r	ENDS
;	COMDAT ??_R1A@?0A@EA@SharedCalendar@icu_56@@8
rdata$r	SEGMENT
??_R1A@?0A@EA@SharedCalendar@icu_56@@8 DD FLAT:??_R0?AVSharedCalendar@icu_56@@@8 ; icu_56::SharedCalendar::`RTTI Base Class Descriptor at (0,-1,0,64)'
	DD	03H
	DD	00H
	DD	0ffffffffH
	DD	00H
	DD	040H
	DD	FLAT:??_R3SharedCalendar@icu_56@@8
rdata$r	ENDS
;	COMDAT ??_R2SharedCalendar@icu_56@@8
rdata$r	SEGMENT
??_R2SharedCalendar@icu_56@@8 DD FLAT:??_R1A@?0A@EA@SharedCalendar@icu_56@@8 ; icu_56::SharedCalendar::`RTTI Base Class Array'
	DD	FLAT:??_R1A@?0A@EA@SharedObject@icu_56@@8
	DD	FLAT:??_R1A@?0A@EA@UObject@icu_56@@8
	DD	FLAT:??_R13?0A@EA@UMemory@icu_56@@8
rdata$r	ENDS
;	COMDAT ??_R3SharedCalendar@icu_56@@8
rdata$r	SEGMENT
??_R3SharedCalendar@icu_56@@8 DD 00H			; icu_56::SharedCalendar::`RTTI Class Hierarchy Descriptor'
	DD	00H
	DD	04H
	DD	FLAT:??_R2SharedCalendar@icu_56@@8
rdata$r	ENDS
;	COMDAT ??_R0?AVSharedCalendar@icu_56@@@8
_DATA	SEGMENT
??_R0?AVSharedCalendar@icu_56@@@8 DD FLAT:??_7type_info@@6B@ ; icu_56::SharedCalendar `RTTI Type Descriptor'
	DD	00H
	DB	'.?AVSharedCalendar@icu_56@@', 00H
_DATA	ENDS
;	COMDAT ??_R4SharedCalendar@icu_56@@6B@
rdata$r	SEGMENT
??_R4SharedCalendar@icu_56@@6B@ DD 00H			; icu_56::SharedCalendar::`RTTI Complete Object Locator'
	DD	00H
	DD	00H
	DD	FLAT:??_R0?AVSharedCalendar@icu_56@@@8
	DD	FLAT:??_R3SharedCalendar@icu_56@@8
rdata$r	ENDS
;	COMDAT ??_7SharedCalendar@icu_56@@6B@
CONST	SEGMENT
??_7SharedCalendar@icu_56@@6B@ DD FLAT:??_R4SharedCalendar@icu_56@@6B@ ; icu_56::SharedCalendar::`vftable'
	DD	FLAT:??_ESharedCalendar@icu_56@@UAEPAXI@Z
	DD	FLAT:?getDynamicClassID@UObject@icu_56@@UBEPAXXZ
; Function compile flags: /Odtp /RTCsu /ZI
CONST	ENDS
;	COMDAT ??0SharedCalendar@icu_56@@QAE@PAVCalendar@1@@Z
_TEXT	SEGMENT
_this$ = -8						; size = 4
_calToAdopt$ = 8					; size = 4
??0SharedCalendar@icu_56@@QAE@PAVCalendar@1@@Z PROC	; icu_56::SharedCalendar::SharedCalendar, COMDAT
; _this$ = ecx
; Line 21
	push	ebp
	mov	ebp, esp
	sub	esp, 204				; 000000ccH
	push	ebx
	push	esi
	push	edi
	push	ecx
	lea	edi, DWORD PTR [ebp-204]
	mov	ecx, 51					; 00000033H
	mov	eax, -858993460				; ccccccccH
	rep stosd
	pop	ecx
	mov	DWORD PTR _this$[ebp], ecx
	mov	esi, esp
	mov	ecx, DWORD PTR _this$[ebp]
	call	DWORD PTR __imp_??0SharedObject@icu_56@@QAE@XZ
	cmp	esi, esp
	call	__RTC_CheckEsp
	mov	eax, DWORD PTR _this$[ebp]
	mov	DWORD PTR [eax], OFFSET ??_7SharedCalendar@icu_56@@6B@
	mov	eax, DWORD PTR _this$[ebp]
	mov	ecx, DWORD PTR _calToAdopt$[ebp]
	mov	DWORD PTR [eax+20], ecx
	mov	eax, DWORD PTR _this$[ebp]
	pop	edi
	pop	esi
	pop	ebx
	add	esp, 204				; 000000ccH
	cmp	ebp, esp
	call	__RTC_CheckEsp
	mov	esp, ebp
	pop	ebp
	ret	4
??0SharedCalendar@icu_56@@QAE@PAVCalendar@1@@Z ENDP	; icu_56::SharedCalendar::SharedCalendar
_TEXT	ENDS
PUBLIC	?get@SharedCalendar@icu_56@@QBEPBVCalendar@2@XZ	; icu_56::SharedCalendar::get
; Function compile flags: /Odtp /RTCsu /ZI
;	COMDAT ?get@SharedCalendar@icu_56@@QBEPBVCalendar@2@XZ
_TEXT	SEGMENT
_this$ = -8						; size = 4
?get@SharedCalendar@icu_56@@QBEPBVCalendar@2@XZ PROC	; icu_56::SharedCalendar::get, COMDAT
; _this$ = ecx
; Line 23
	push	ebp
	mov	ebp, esp
	sub	esp, 204				; 000000ccH
	push	ebx
	push	esi
	push	edi
	push	ecx
	lea	edi, DWORD PTR [ebp-204]
	mov	ecx, 51					; 00000033H
	mov	eax, -858993460				; ccccccccH
	rep stosd
	pop	ecx
	mov	DWORD PTR _this$[ebp], ecx
	mov	eax, DWORD PTR _this$[ebp]
	mov	eax, DWORD PTR [eax+20]
	pop	edi
	pop	esi
	pop	ebx
	mov	esp, ebp
	pop	ebp
	ret	0
?get@SharedCalendar@icu_56@@QBEPBVCalendar@2@XZ ENDP	; icu_56::SharedCalendar::get
_TEXT	ENDS
PUBLIC	??CSharedCalendar@icu_56@@QBEPBVCalendar@1@XZ	; icu_56::SharedCalendar::operator->
; Function compile flags: /Odtp /RTCsu /ZI
;	COMDAT ??CSharedCalendar@icu_56@@QBEPBVCalendar@1@XZ
_TEXT	SEGMENT
_this$ = -8						; size = 4
??CSharedCalendar@icu_56@@QBEPBVCalendar@1@XZ PROC	; icu_56::SharedCalendar::operator->, COMDAT
; _this$ = ecx
; Line 24
	push	ebp
	mov	ebp, esp
	sub	esp, 204				; 000000ccH
	push	ebx
	push	esi
	push	edi
	push	ecx
	lea	edi, DWORD PTR [ebp-204]
	mov	ecx, 51					; 00000033H
	mov	eax, -858993460				; ccccccccH
	rep stosd
	pop	ecx
	mov	DWORD PTR _this$[ebp], ecx
	mov	eax, DWORD PTR _this$[ebp]
	mov	eax, DWORD PTR [eax+20]
	pop	edi
	pop	esi
	pop	ebx
	mov	esp, ebp
	pop	ebp
	ret	0
??CSharedCalendar@icu_56@@QBEPBVCalendar@1@XZ ENDP	; icu_56::SharedCalendar::operator->
_TEXT	ENDS
PUBLIC	??DSharedCalendar@icu_56@@QBEABVCalendar@1@XZ	; icu_56::SharedCalendar::operator*
; Function compile flags: /Odtp /RTCsu /ZI
;	COMDAT ??DSharedCalendar@icu_56@@QBEABVCalendar@1@XZ
_TEXT	SEGMENT
_this$ = -8						; size = 4
??DSharedCalendar@icu_56@@QBEABVCalendar@1@XZ PROC	; icu_56::SharedCalendar::operator*, COMDAT
; _this$ = ecx
; Line 25
	push	ebp
	mov	ebp, esp
	sub	esp, 204				; 000000ccH
	push	ebx
	push	esi
	push	edi
	push	ecx
	lea	edi, DWORD PTR [ebp-204]
	mov	ecx, 51					; 00000033H
	mov	eax, -858993460				; ccccccccH
	rep stosd
	pop	ecx
	mov	DWORD PTR _this$[ebp], ecx
	mov	eax, DWORD PTR _this$[ebp]
	mov	eax, DWORD PTR [eax+20]
	pop	edi
	pop	esi
	pop	ebx
	mov	esp, ebp
	pop	ebp
	ret	0
??DSharedCalendar@icu_56@@QBEABVCalendar@1@XZ ENDP	; icu_56::SharedCalendar::operator*
_TEXT	ENDS
PUBLIC	??1SharedCalendar@icu_56@@UAE@XZ		; icu_56::SharedCalendar::~SharedCalendar
PUBLIC	??_GSharedCalendar@icu_56@@UAEPAXI@Z		; icu_56::SharedCalendar::`scalar deleting destructor'
; Function compile flags: /Odtp /RTCsu /ZI
;	COMDAT ??_GSharedCalendar@icu_56@@UAEPAXI@Z
_TEXT	SEGMENT
_this$ = -8						; size = 4
___flags$ = 8						; size = 4
??_GSharedCalendar@icu_56@@UAEPAXI@Z PROC		; icu_56::SharedCalendar::`scalar deleting destructor', COMDAT
; _this$ = ecx
	push	ebp
	mov	ebp, esp
	sub	esp, 204				; 000000ccH
	push	ebx
	push	esi
	push	edi
	push	ecx
	lea	edi, DWORD PTR [ebp-204]
	mov	ecx, 51					; 00000033H
	mov	eax, -858993460				; ccccccccH
	rep stosd
	pop	ecx
	mov	DWORD PTR _this$[ebp], ecx
	mov	ecx, DWORD PTR _this$[ebp]
	call	??1SharedCalendar@icu_56@@UAE@XZ	; icu_56::SharedCalendar::~SharedCalendar
	mov	eax, DWORD PTR ___flags$[ebp]
	and	eax, 1
	je	SHORT $LN1@scalar@2
	mov	esi, esp
	mov	eax, DWORD PTR _this$[ebp]
	push	eax
	call	DWORD PTR __imp_??3UMemory@icu_56@@SAXPAX@Z
	add	esp, 4
	cmp	esi, esp
	call	__RTC_CheckEsp
$LN1@scalar@2:
	mov	eax, DWORD PTR _this$[ebp]
	pop	edi
	pop	esi
	pop	ebx
	add	esp, 204				; 000000ccH
	cmp	ebp, esp
	call	__RTC_CheckEsp
	mov	esp, ebp
	pop	ebp
	ret	4
??_GSharedCalendar@icu_56@@UAEPAXI@Z ENDP		; icu_56::SharedCalendar::`scalar deleting destructor'
; Function compile flags: /Odtp /RTCsu /ZI
_TEXT	ENDS
;	COMDAT ??_ESharedCalendar@icu_56@@UAEPAXI@Z
_TEXT	SEGMENT
_this$ = -8						; size = 4
___flags$ = 8						; size = 4
??_ESharedCalendar@icu_56@@UAEPAXI@Z PROC		; icu_56::SharedCalendar::`vector deleting destructor', COMDAT
; _this$ = ecx
	push	ebp
	mov	ebp, esp
	sub	esp, 204				; 000000ccH
	push	ebx
	push	esi
	push	edi
	push	ecx
	lea	edi, DWORD PTR [ebp-204]
	mov	ecx, 51					; 00000033H
	mov	eax, -858993460				; ccccccccH
	rep stosd
	pop	ecx
	mov	DWORD PTR _this$[ebp], ecx
	mov	eax, DWORD PTR ___flags$[ebp]
	and	eax, 2
	je	SHORT $LN3@vector@2
	push	OFFSET ??1SharedCalendar@icu_56@@UAE@XZ	; icu_56::SharedCalendar::~SharedCalendar
	mov	eax, DWORD PTR _this$[ebp]
	mov	ecx, DWORD PTR [eax-4]
	push	ecx
	push	24					; 00000018H
	mov	edx, DWORD PTR _this$[ebp]
	push	edx
	call	??_M@YGXPAXIHP6EX0@Z@Z
	mov	eax, DWORD PTR ___flags$[ebp]
	and	eax, 1
	je	SHORT $LN2@vector@2
	mov	eax, DWORD PTR _this$[ebp]
	sub	eax, 4
	mov	esi, esp
	push	eax
	call	DWORD PTR __imp_??_VUMemory@icu_56@@SAXPAX@Z
	add	esp, 4
	cmp	esi, esp
	call	__RTC_CheckEsp
$LN2@vector@2:
	mov	eax, DWORD PTR _this$[ebp]
	sub	eax, 4
	jmp	SHORT $LN4@vector@2
$LN3@vector@2:
	mov	ecx, DWORD PTR _this$[ebp]
	call	??1SharedCalendar@icu_56@@UAE@XZ	; icu_56::SharedCalendar::~SharedCalendar
	mov	eax, DWORD PTR ___flags$[ebp]
	and	eax, 1
	je	SHORT $LN1@vector@2
	mov	esi, esp
	mov	eax, DWORD PTR _this$[ebp]
	push	eax
	call	DWORD PTR __imp_??3UMemory@icu_56@@SAXPAX@Z
	add	esp, 4
	cmp	esi, esp
	call	__RTC_CheckEsp
$LN1@vector@2:
	mov	eax, DWORD PTR _this$[ebp]
$LN4@vector@2:
	pop	edi
	pop	esi
	pop	ebx
	add	esp, 204				; 000000ccH
	cmp	ebp, esp
	call	__RTC_CheckEsp
	mov	esp, ebp
	pop	ebp
	ret	4
??_ESharedCalendar@icu_56@@UAEPAXI@Z ENDP		; icu_56::SharedCalendar::`vector deleting destructor'
_TEXT	ENDS
EXTRN	__imp_??1SharedObject@icu_56@@UAE@XZ:PROC
EXTRN	___security_cookie:DWORD
EXTRN	___CxxFrameHandler3:PROC
EXTRN	@__security_check_cookie@4:PROC
;	COMDAT xdata$x
; File d:\mozilla\intl\icu\source\i18n\calendar.cpp
xdata$x	SEGMENT
__unwindtable$??1SharedCalendar@icu_56@@UAE@XZ DD 0ffffffffH
	DD	FLAT:__unwindfunclet$??1SharedCalendar@icu_56@@UAE@XZ$0
__ehfuncinfo$??1SharedCalendar@icu_56@@UAE@XZ DD 019930522H
	DD	01H
	DD	FLAT:__unwindtable$??1SharedCalendar@icu_56@@UAE@XZ
	DD	2 DUP(00H)
	DD	2 DUP(00H)
	DD	00H
	DD	01H
; Function compile flags: /Odtp /RTCsu /ZI
xdata$x	ENDS
;	COMDAT ??1SharedCalendar@icu_56@@UAE@XZ
_TEXT	SEGMENT
tv85 = -244						; size = 4
$T85072 = -236						; size = 4
$T85073 = -224						; size = 4
_this$ = -20						; size = 4
__$EHRec$ = -12						; size = 12
??1SharedCalendar@icu_56@@UAE@XZ PROC			; icu_56::SharedCalendar::~SharedCalendar, COMDAT
; _this$ = ecx
; Line 204
	push	ebp
	mov	ebp, esp
	push	-1
	push	__ehhandler$??1SharedCalendar@icu_56@@UAE@XZ
	mov	eax, DWORD PTR fs:0
	push	eax
	sub	esp, 232				; 000000e8H
	push	ebx
	push	esi
	push	edi
	push	ecx
	lea	edi, DWORD PTR [ebp-244]
	mov	ecx, 58					; 0000003aH
	mov	eax, -858993460				; ccccccccH
	rep stosd
	pop	ecx
	mov	eax, DWORD PTR ___security_cookie
	xor	eax, ebp
	push	eax
	lea	eax, DWORD PTR __$EHRec$[ebp]
	mov	DWORD PTR fs:0, eax
	mov	DWORD PTR _this$[ebp], ecx
	mov	eax, DWORD PTR _this$[ebp]
	mov	DWORD PTR [eax], OFFSET ??_7SharedCalendar@icu_56@@6B@
	mov	DWORD PTR __$EHRec$[ebp+8], 0
; Line 205
	mov	eax, DWORD PTR _this$[ebp]
	mov	ecx, DWORD PTR [eax+20]
	mov	DWORD PTR $T85073[ebp], ecx
	mov	edx, DWORD PTR $T85073[ebp]
	mov	DWORD PTR $T85072[ebp], edx
	cmp	DWORD PTR $T85072[ebp], 0
	je	SHORT $LN3@SharedCale
	mov	esi, esp
	push	1
	mov	eax, DWORD PTR $T85072[ebp]
	mov	edx, DWORD PTR [eax]
	mov	ecx, DWORD PTR $T85072[ebp]
	mov	eax, DWORD PTR [edx]
	call	eax
	cmp	esi, esp
	call	__RTC_CheckEsp
	mov	DWORD PTR tv85[ebp], eax
	jmp	SHORT $LN1@SharedCale
$LN3@SharedCale:
	mov	DWORD PTR tv85[ebp], 0
$LN1@SharedCale:
; Line 206
	mov	DWORD PTR __$EHRec$[ebp+8], -1
	mov	esi, esp
	mov	ecx, DWORD PTR _this$[ebp]
	call	DWORD PTR __imp_??1SharedObject@icu_56@@UAE@XZ
	cmp	esi, esp
	call	__RTC_CheckEsp
	mov	ecx, DWORD PTR __$EHRec$[ebp]
	mov	DWORD PTR fs:0, ecx
	pop	ecx
	pop	edi
	pop	esi
	pop	ebx
	add	esp, 244				; 000000f4H
	cmp	ebp, esp
	call	__RTC_CheckEsp
	mov	esp, ebp
	pop	ebp
	ret	0
_TEXT	ENDS
;	COMDAT text$x
text$x	SEGMENT
__unwindfunclet$??1SharedCalendar@icu_56@@UAE@XZ$0:
	mov	esi, esp
	mov	ecx, DWORD PTR _this$[ebp]
	call	DWORD PTR __imp_??1SharedObject@icu_56@@UAE@XZ
	cmp	esi, esp
	jmp	__RTC_CheckEsp
__ehhandler$??1SharedCalendar@icu_56@@UAE@XZ:
	mov	edx, DWORD PTR [esp+8]
	lea	eax, DWORD PTR [edx+12]
	mov	ecx, DWORD PTR [edx-248]
	xor	ecx, eax
	call	@__security_check_cookie@4
	mov	eax, OFFSET __ehfuncinfo$??1SharedCalendar@icu_56@@UAE@XZ
	jmp	___CxxFrameHandler3
text$x	ENDS
??1SharedCalendar@icu_56@@UAE@XZ ENDP			; icu_56::SharedCalendar::~SharedCalendar
PUBLIC	?makeInstance@Calendar@icu_56@@SAPAV12@ABVLocale@2@AAW4UErrorCode@@@Z ; icu_56::Calendar::makeInstance
PUBLIC	?createObject@?$LocaleCacheKey@VSharedCalendar@icu_56@@@icu_56@@UBEPBVSharedCalendar@2@PBXAAW4UErrorCode@@@Z ; icu_56::LocaleCacheKey<icu_56::SharedCalendar>::createObject
EXTRN	__imp_?addRef@SharedObject@icu_56@@QBEXXZ:PROC
EXTRN	__imp_??2UMemory@icu_56@@SAPAXI@Z:PROC
;	COMDAT xdata$x
xdata$x	SEGMENT
__unwindtable$?createObject@?$LocaleCacheKey@VSharedCalendar@icu_56@@@icu_56@@UBEPBVSharedCalendar@2@PBXAAW4UErrorCode@@@Z DD 0ffffffffH
	DD	FLAT:__unwindfunclet$?createObject@?$LocaleCacheKey@VSharedCalendar@icu_56@@@icu_56@@UBEPBVSharedCalendar@2@PBXAAW4UErrorCode@@@Z$0
__ehfuncinfo$?createObject@?$LocaleCacheKey@VSharedCalendar@icu_56@@@icu_56@@UBEPBVSharedCalendar@2@PBXAAW4UErrorCode@@@Z DD 019930522H
	DD	01H
	DD	FLAT:__unwindtable$?createObject@?$LocaleCacheKey@VSharedCalendar@icu_56@@@icu_56@@UBEPBVSharedCalendar@2@PBXAAW4UErrorCode@@@Z
	DD	2 DUP(00H)
	DD	2 DUP(00H)
	DD	00H
	DD	01H
; Function compile flags: /Odtp /RTCsu /ZI
xdata$x	ENDS
;	COMDAT ?createObject@?$LocaleCacheKey@VSharedCalendar@icu_56@@@icu_56@@UBEPBVSharedCalendar@2@PBXAAW4UErrorCode@@@Z
_TEXT	SEGMENT
tv91 = -292						; size = 4
tv80 = -292						; size = 4
$T85090 = -284						; size = 4
$T85091 = -272						; size = 4
$T85094 = -260						; size = 4
$T85095 = -248						; size = 4
_shared$ = -44						; size = 4
_calendar$ = -32					; size = 4
_this$ = -20						; size = 4
__$EHRec$ = -12						; size = 12
___formal$ = 8						; size = 4
_status$ = 12						; size = 4
?createObject@?$LocaleCacheKey@VSharedCalendar@icu_56@@@icu_56@@UBEPBVSharedCalendar@2@PBXAAW4UErrorCode@@@Z PROC ; icu_56::LocaleCacheKey<icu_56::SharedCalendar>::createObject, COMDAT
; _this$ = ecx
; Line 210
	push	ebp
	mov	ebp, esp
	push	-1
	push	__ehhandler$?createObject@?$LocaleCacheKey@VSharedCalendar@icu_56@@@icu_56@@UBEPBVSharedCalendar@2@PBXAAW4UErrorCode@@@Z
	mov	eax, DWORD PTR fs:0
	push	eax
	sub	esp, 280				; 00000118H
	push	ebx
	push	esi
	push	edi
	push	ecx
	lea	edi, DWORD PTR [ebp-292]
	mov	ecx, 70					; 00000046H
	mov	eax, -858993460				; ccccccccH
	rep stosd
	pop	ecx
	mov	eax, DWORD PTR ___security_cookie
	xor	eax, ebp
	push	eax
	lea	eax, DWORD PTR __$EHRec$[ebp]
	mov	DWORD PTR fs:0, eax
	mov	DWORD PTR _this$[ebp], ecx
; Line 211
	mov	eax, DWORD PTR _status$[ebp]
	push	eax
	mov	ecx, DWORD PTR _this$[ebp]
	add	ecx, 12					; 0000000cH
	push	ecx
	call	?makeInstance@Calendar@icu_56@@SAPAV12@ABVLocale@2@AAW4UErrorCode@@@Z ; icu_56::Calendar::makeInstance
	add	esp, 8
	mov	DWORD PTR _calendar$[ebp], eax
; Line 212
	mov	eax, DWORD PTR _status$[ebp]
	mov	ecx, DWORD PTR [eax]
	push	ecx
	call	?U_FAILURE@@YACW4UErrorCode@@@Z		; U_FAILURE
	add	esp, 4
	movsx	edx, al
	test	edx, edx
	je	SHORT $LN2@createObje
; Line 213
	xor	eax, eax
	jmp	$LN3@createObje
$LN2@createObje:
; Line 215
	mov	esi, esp
	push	24					; 00000018H
	call	DWORD PTR __imp_??2UMemory@icu_56@@SAPAXI@Z
	add	esp, 4
	cmp	esi, esp
	call	__RTC_CheckEsp
	mov	DWORD PTR $T85091[ebp], eax
	mov	DWORD PTR __$EHRec$[ebp+8], 0
	cmp	DWORD PTR $T85091[ebp], 0
	je	SHORT $LN5@createObje
	mov	eax, DWORD PTR _calendar$[ebp]
	push	eax
	mov	ecx, DWORD PTR $T85091[ebp]
	call	??0SharedCalendar@icu_56@@QAE@PAVCalendar@1@@Z ; icu_56::SharedCalendar::SharedCalendar
	mov	DWORD PTR tv80[ebp], eax
	jmp	SHORT $LN6@createObje
$LN5@createObje:
	mov	DWORD PTR tv80[ebp], 0
$LN6@createObje:
	mov	ecx, DWORD PTR tv80[ebp]
	mov	DWORD PTR $T85090[ebp], ecx
	mov	DWORD PTR __$EHRec$[ebp+8], -1
	mov	edx, DWORD PTR $T85090[ebp]
	mov	DWORD PTR _shared$[ebp], edx
; Line 216
	cmp	DWORD PTR _shared$[ebp], 0
	jne	SHORT $LN1@createObje
; Line 217
	mov	eax, DWORD PTR _calendar$[ebp]
	mov	DWORD PTR $T85095[ebp], eax
	mov	ecx, DWORD PTR $T85095[ebp]
	mov	DWORD PTR $T85094[ebp], ecx
	cmp	DWORD PTR $T85094[ebp], 0
	je	SHORT $LN7@createObje
	mov	esi, esp
	push	1
	mov	edx, DWORD PTR $T85094[ebp]
	mov	eax, DWORD PTR [edx]
	mov	ecx, DWORD PTR $T85094[ebp]
	mov	edx, DWORD PTR [eax]
	call	edx
	cmp	esi, esp
	call	__RTC_CheckEsp
	mov	DWORD PTR tv91[ebp], eax
	jmp	SHORT $LN8@createObje
$LN7@createObje:
	mov	DWORD PTR tv91[ebp], 0
$LN8@createObje:
; Line 218
	mov	eax, DWORD PTR _status$[ebp]
	mov	DWORD PTR [eax], 7
; Line 219
	xor	eax, eax
	jmp	SHORT $LN3@createObje
$LN1@createObje:
; Line 221
	mov	esi, esp
	mov	ecx, DWORD PTR _shared$[ebp]
	call	DWORD PTR __imp_?addRef@SharedObject@icu_56@@QBEXXZ
	cmp	esi, esp
	call	__RTC_CheckEsp
; Line 222
	mov	eax, DWORD PTR _shared$[ebp]
$LN3@createObje:
; Line 223
	mov	ecx, DWORD PTR __$EHRec$[ebp]
	mov	DWORD PTR fs:0, ecx
	pop	ecx
	pop	edi
	pop	esi
	pop	ebx
	add	esp, 292				; 00000124H
	cmp	ebp, esp
	call	__RTC_CheckEsp
	mov	esp, ebp
	pop	ebp
	ret	8
_TEXT	ENDS
;	COMDAT text$x
text$x	SEGMENT
__unwindfunclet$?createObject@?$LocaleCacheKey@VSharedCalendar@icu_56@@@icu_56@@UBEPBVSharedCalendar@2@PBXAAW4UErrorCode@@@Z$0:
	mov	esi, esp
	mov	eax, DWORD PTR $T85091[ebp]
	push	eax
	call	DWORD PTR __imp_??3UMemory@icu_56@@SAXPAX@Z
	add	esp, 4
	cmp	esi, esp
	jmp	__RTC_CheckEsp
__ehhandler$?createObject@?$LocaleCacheKey@VSharedCalendar@icu_56@@@icu_56@@UBEPBVSharedCalendar@2@PBXAAW4UErrorCode@@@Z:
	mov	edx, DWORD PTR [esp+8]
	lea	eax, DWORD PTR [edx+12]
	mov	ecx, DWORD PTR [edx-296]
	xor	ecx, eax
	call	@__security_check_cookie@4
	mov	eax, OFFSET __ehfuncinfo$?createObject@?$LocaleCacheKey@VSharedCalendar@icu_56@@@icu_56@@UBEPBVSharedCalendar@2@PBXAAW4UErrorCode@@@Z
	jmp	___CxxFrameHandler3
text$x	ENDS
?createObject@?$LocaleCacheKey@VSharedCalendar@icu_56@@@icu_56@@UBEPBVSharedCalendar@2@PBXAAW4UErrorCode@@@Z ENDP ; icu_56::LocaleCacheKey<icu_56::SharedCalendar>::createObject
; Function compile flags: /Odtp /RTCsu /ZI
;	COMDAT ?U_FAILURE@@YACW4UErrorCode@@@Z
_TEXT	SEGMENT
_code$ = 8						; size = 4
?U_FAILURE@@YACW4UErrorCode@@@Z PROC			; U_FAILURE, COMDAT
; File d:\mozilla\intl\icu\include\unicode\utypes.h
; Line 705
	push	ebp
	mov	ebp, esp
	sub	esp, 192				; 000000c0H
	push	ebx
	push	esi
	push	edi
	lea	edi, DWORD PTR [ebp-192]
	mov	ecx, 48					; 00000030H
	mov	eax, -858993460				; ccccccccH
	rep stosd
	cmp	DWORD PTR _code$[ebp], 0
	setg	al
	pop	edi
	pop	esi
	pop	ebx
	mov	esp, ebp
	pop	ebp
	ret	0
?U_FAILURE@@YACW4UErrorCode@@@Z ENDP			; U_FAILURE
_TEXT	ENDS
PUBLIC	??_7BasicCalendarFactory@icu_56@@6B@		; icu_56::BasicCalendarFactory::`vftable'
PUBLIC	??1BasicCalendarFactory@icu_56@@UAE@XZ		; icu_56::BasicCalendarFactory::~BasicCalendarFactory
PUBLIC	??_R4BasicCalendarFactory@icu_56@@6B@		; icu_56::BasicCalendarFactory::`RTTI Complete Object Locator'
PUBLIC	??_R0?AVBasicCalendarFactory@icu_56@@@8		; icu_56::BasicCalendarFactory `RTTI Type Descriptor'
PUBLIC	??_R3BasicCalendarFactory@icu_56@@8		; icu_56::BasicCalendarFactory::`RTTI Class Hierarchy Descriptor'
PUBLIC	??_R2BasicCalendarFactory@icu_56@@8		; icu_56::BasicCalendarFactory::`RTTI Base Class Array'
PUBLIC	??_R1A@?0A@EA@BasicCalendarFactory@icu_56@@8	; icu_56::BasicCalendarFactory::`RTTI Base Class Descriptor at (0,-1,0,64)'
PUBLIC	??_R1A@?0A@EA@LocaleKeyFactory@icu_56@@8	; icu_56::LocaleKeyFactory::`RTTI Base Class Descriptor at (0,-1,0,64)'
PUBLIC	??_R0?AVLocaleKeyFactory@icu_56@@@8		; icu_56::LocaleKeyFactory `RTTI Type Descriptor'
PUBLIC	??_R3LocaleKeyFactory@icu_56@@8			; icu_56::LocaleKeyFactory::`RTTI Class Hierarchy Descriptor'
PUBLIC	??_R2LocaleKeyFactory@icu_56@@8			; icu_56::LocaleKeyFactory::`RTTI Base Class Array'
PUBLIC	??_R1A@?0A@EA@ICUServiceFactory@icu_56@@8	; icu_56::ICUServiceFactory::`RTTI Base Class Descriptor at (0,-1,0,64)'
PUBLIC	??_R0?AVICUServiceFactory@icu_56@@@8		; icu_56::ICUServiceFactory `RTTI Type Descriptor'
PUBLIC	??_R3ICUServiceFactory@icu_56@@8		; icu_56::ICUServiceFactory::`RTTI Class Hierarchy Descriptor'
PUBLIC	??_R2ICUServiceFactory@icu_56@@8		; icu_56::ICUServiceFactory::`RTTI Base Class Array'
PUBLIC	?create@BasicCalendarFactory@icu_56@@MBEPAVUObject@2@ABVICUServiceKey@2@PBVICUService@2@AAW4UErrorCode@@@Z ; icu_56::BasicCalendarFactory::create
PUBLIC	?updateVisibleIDs@BasicCalendarFactory@icu_56@@MBEXAAVHashtable@2@AAW4UErrorCode@@@Z ; icu_56::BasicCalendarFactory::updateVisibleIDs
EXTRN	__imp_??1LocaleKeyFactory@icu_56@@UAE@XZ:PROC
EXTRN	??_EBasicCalendarFactory@icu_56@@UAEPAXI@Z:PROC	; icu_56::BasicCalendarFactory::`vector deleting destructor'
EXTRN	?getDynamicClassID@LocaleKeyFactory@icu_56@@UBEPAXXZ:PROC ; icu_56::LocaleKeyFactory::getDynamicClassID
EXTRN	?getDisplayName@LocaleKeyFactory@icu_56@@UBEAAVUnicodeString@2@ABV32@ABVLocale@2@AAV32@@Z:PROC ; icu_56::LocaleKeyFactory::getDisplayName
EXTRN	?handlesKey@LocaleKeyFactory@icu_56@@MBECABVICUServiceKey@2@AAW4UErrorCode@@@Z:PROC ; icu_56::LocaleKeyFactory::handlesKey
EXTRN	?handleCreate@LocaleKeyFactory@icu_56@@MBEPAVUObject@2@ABVLocale@2@HPBVICUService@2@AAW4UErrorCode@@@Z:PROC ; icu_56::LocaleKeyFactory::handleCreate
EXTRN	?getSupportedIDs@LocaleKeyFactory@icu_56@@MBEPBVHashtable@2@AAW4UErrorCode@@@Z:PROC ; icu_56::LocaleKeyFactory::getSupportedIDs
;	COMDAT ??_R2ICUServiceFactory@icu_56@@8
; File d:\mozilla\intl\icu\source\i18n\calendar.cpp
rdata$r	SEGMENT
??_R2ICUServiceFactory@icu_56@@8 DD FLAT:??_R1A@?0A@EA@ICUServiceFactory@icu_56@@8 ; icu_56::ICUServiceFactory::`RTTI Base Class Array'
	DD	FLAT:??_R1A@?0A@EA@UObject@icu_56@@8
	DD	FLAT:??_R13?0A@EA@UMemory@icu_56@@8
rdata$r	ENDS
;	COMDAT ??_R3ICUServiceFactory@icu_56@@8
rdata$r	SEGMENT
??_R3ICUServiceFactory@icu_56@@8 DD 00H			; icu_56::ICUServiceFactory::`RTTI Class Hierarchy Descriptor'
	DD	00H
	DD	03H
	DD	FLAT:??_R2ICUServiceFactory@icu_56@@8
rdata$r	ENDS
;	COMDAT ??_R0?AVICUServiceFactory@icu_56@@@8
_DATA	SEGMENT
??_R0?AVICUServiceFactory@icu_56@@@8 DD FLAT:??_7type_info@@6B@ ; icu_56::ICUServiceFactory `RTTI Type Descriptor'
	DD	00H
	DB	'.?AVICUServiceFactory@icu_56@@', 00H
_DATA	ENDS
;	COMDAT ??_R1A@?0A@EA@ICUServiceFactory@icu_56@@8
rdata$r	SEGMENT
??_R1A@?0A@EA@ICUServiceFactory@icu_56@@8 DD FLAT:??_R0?AVICUServiceFactory@icu_56@@@8 ; icu_56::ICUServiceFactory::`RTTI Base Class Descriptor at (0,-1,0,64)'
	DD	02H
	DD	00H
	DD	0ffffffffH
	DD	00H
	DD	040H
	DD	FLAT:??_R3ICUServiceFactory@icu_56@@8
rdata$r	ENDS
;	COMDAT ??_R2LocaleKeyFactory@icu_56@@8
rdata$r	SEGMENT
??_R2LocaleKeyFactory@icu_56@@8 DD FLAT:??_R1A@?0A@EA@LocaleKeyFactory@icu_56@@8 ; icu_56::LocaleKeyFactory::`RTTI Base Class Array'
	DD	FLAT:??_R1A@?0A@EA@ICUServiceFactory@icu_56@@8
	DD	FLAT:??_R1A@?0A@EA@UObject@icu_56@@8
	DD	FLAT:??_R13?0A@EA@UMemory@icu_56@@8
rdata$r	ENDS
;	COMDAT ??_R3LocaleKeyFactory@icu_56@@8
rdata$r	SEGMENT
??_R3LocaleKeyFactory@icu_56@@8 DD 00H			; icu_56::LocaleKeyFactory::`RTTI Class Hierarchy Descriptor'
	DD	00H
	DD	04H
	DD	FLAT:??_R2LocaleKeyFactory@icu_56@@8
rdata$r	ENDS
;	COMDAT ??_R0?AVLocaleKeyFactory@icu_56@@@8
_DATA	SEGMENT
??_R0?AVLocaleKeyFactory@icu_56@@@8 DD FLAT:??_7type_info@@6B@ ; icu_56::LocaleKeyFactory `RTTI Type Descriptor'
	DD	00H
	DB	'.?AVLocaleKeyFactory@icu_56@@', 00H
_DATA	ENDS
;	COMDAT ??_R1A@?0A@EA@LocaleKeyFactory@icu_56@@8
rdata$r	SEGMENT
??_R1A@?0A@EA@LocaleKeyFactory@icu_56@@8 DD FLAT:??_R0?AVLocaleKeyFactory@icu_56@@@8 ; icu_56::LocaleKeyFactory::`RTTI Base Class Descriptor at (0,-1,0,64)'
	DD	03H
	DD	00H
	DD	0ffffffffH
	DD	00H
	DD	040H
	DD	FLAT:??_R3LocaleKeyFactory@icu_56@@8
rdata$r	ENDS
;	COMDAT ??_R1A@?0A@EA@BasicCalendarFactory@icu_56@@8
rdata$r	SEGMENT
??_R1A@?0A@EA@BasicCalendarFactory@icu_56@@8 DD FLAT:??_R0?AVBasicCalendarFactory@icu_56@@@8 ; icu_56::BasicCalendarFactory::`RTTI Base Class Descriptor at (0,-1,0,64)'
	DD	04H
	DD	00H
	DD	0ffffffffH
	DD	00H
	DD	040H
	DD	FLAT:??_R3BasicCalendarFactory@icu_56@@8
rdata$r	ENDS
;	COMDAT ??_R2BasicCalendarFactory@icu_56@@8
rdata$r	SEGMENT
??_R2BasicCalendarFactory@icu_56@@8 DD FLAT:??_R1A@?0A@EA@BasicCalendarFactory@icu_56@@8 ; icu_56::BasicCalendarFactory::`RTTI Base Class Array'
	DD	FLAT:??_R1A@?0A@EA@LocaleKeyFactory@icu_56@@8
	DD	FLAT:??_R1A@?0A@EA@ICUServiceFactory@icu_56@@8
	DD	FLAT:??_R1A@?0A@EA@UObject@icu_56@@8
	DD	FLAT:??_R13?0A@EA@UMemory@icu_56@@8
rdata$r	ENDS
;	COMDAT ??_R3BasicCalendarFactory@icu_56@@8
rdata$r	SEGMENT
??_R3BasicCalendarFactory@icu_56@@8 DD 00H		; icu_56::BasicCalendarFactory::`RTTI Class Hierarchy Descriptor'
	DD	00H
	DD	05H
	DD	FLAT:??_R2BasicCalendarFactory@icu_56@@8
rdata$r	ENDS
;	COMDAT ??_R0?AVBasicCalendarFactory@icu_56@@@8
_DATA	SEGMENT
??_R0?AVBasicCalendarFactory@icu_56@@@8 DD FLAT:??_7type_info@@6B@ ; icu_56::BasicCalendarFactory `RTTI Type Descriptor'
	DD	00H
	DB	'.?AVBasicCalendarFactory@icu_56@@', 00H
_DATA	ENDS
;	COMDAT ??_R4BasicCalendarFactory@icu_56@@6B@
rdata$r	SEGMENT
??_R4BasicCalendarFactory@icu_56@@6B@ DD 00H		; icu_56::BasicCalendarFactory::`RTTI Complete Object Locator'
	DD	00H
	DD	00H
	DD	FLAT:??_R0?AVBasicCalendarFactory@icu_56@@@8
	DD	FLAT:??_R3BasicCalendarFactory@icu_56@@8
rdata$r	ENDS
;	COMDAT ??_7BasicCalendarFactory@icu_56@@6B@
CONST	SEGMENT
??_7BasicCalendarFactory@icu_56@@6B@ DD FLAT:??_R4BasicCalendarFactory@icu_56@@6B@ ; icu_56::BasicCalendarFactory::`vftable'
	DD	FLAT:??_EBasicCalendarFactory@icu_56@@UAEPAXI@Z
	DD	FLAT:?getDynamicClassID@LocaleKeyFactory@icu_56@@UBEPAXXZ
	DD	FLAT:?create@BasicCalendarFactory@icu_56@@MBEPAVUObject@2@ABVICUServiceKey@2@PBVICUService@2@AAW4UErrorCode@@@Z
	DD	FLAT:?updateVisibleIDs@BasicCalendarFactory@icu_56@@MBEXAAVHashtable@2@AAW4UErrorCode@@@Z
	DD	FLAT:?getDisplayName@LocaleKeyFactory@icu_56@@UBEAAVUnicodeString@2@ABV32@ABVLocale@2@AAV32@@Z
	DD	FLAT:?handlesKey@LocaleKeyFactory@icu_56@@MBECABVICUServiceKey@2@AAW4UErrorCode@@@Z
	DD	FLAT:?handleCreate@LocaleKeyFactory@icu_56@@MBEPAVUObject@2@ABVLocale@2@HPBVICUService@2@AAW4UErrorCode@@@Z
	DD	FLAT:?getSupportedIDs@LocaleKeyFactory@icu_56@@MBEPBVHashtable@2@AAW4UErrorCode@@@Z
; Function compile flags: /Odtp /RTCsu /ZI
CONST	ENDS
;	COMDAT ??1BasicCalendarFactory@icu_56@@UAE@XZ
_TEXT	SEGMENT
_this$ = -8						; size = 4
??1BasicCalendarFactory@icu_56@@UAE@XZ PROC		; icu_56::BasicCalendarFactory::~BasicCalendarFactory, COMDAT
; _this$ = ecx
; Line 471
	push	ebp
	mov	ebp, esp
	sub	esp, 204				; 000000ccH
	push	ebx
	push	esi
	push	edi
	push	ecx
	lea	edi, DWORD PTR [ebp-204]
	mov	ecx, 51					; 00000033H
	mov	eax, -858993460				; ccccccccH
	rep stosd
	pop	ecx
	mov	DWORD PTR _this$[ebp], ecx
	mov	eax, DWORD PTR _this$[ebp]
	mov	DWORD PTR [eax], OFFSET ??_7BasicCalendarFactory@icu_56@@6B@
	mov	esi, esp
	mov	ecx, DWORD PTR _this$[ebp]
	call	DWORD PTR __imp_??1LocaleKeyFactory@icu_56@@UAE@XZ
	cmp	esi, esp
	call	__RTC_CheckEsp
	pop	edi
	pop	esi
	pop	ebx
	add	esp, 204				; 000000ccH
	cmp	ebp, esp
	call	__RTC_CheckEsp
	mov	esp, ebp
	pop	ebp
	ret	0
??1BasicCalendarFactory@icu_56@@UAE@XZ ENDP		; icu_56::BasicCalendarFactory::~BasicCalendarFactory
_TEXT	ENDS
PUBLIC	??_C@_1BE@KPIGCPJA@?$AAc?$AAa?$AAl?$AAe?$AAn?$AAd?$AAa?$AAr?$AA?$DN?$AA?$AA@ ; `string'
PUBLIC	__$ArrayPad$
EXTRN	__imp_?put@Hashtable@icu_56@@QAEPAXABVUnicodeString@2@PAXAAW4UErrorCode@@@Z:PROC
EXTRN	__imp_??0UnicodeString@icu_56@@QAE@PBDHW4EInvariant@01@@Z:PROC
EXTRN	__imp_??1UnicodeString@icu_56@@UAE@XZ:PROC
EXTRN	__imp_?append@UnicodeString@icu_56@@QAEAAV12@ABV12@@Z:PROC
EXTRN	__imp_??0UnicodeString@icu_56@@QAE@CPB_WH@Z:PROC
EXTRN	__imp_??0UnicodeString@icu_56@@QAE@_W@Z:PROC
EXTRN	@_RTC_CheckStackVars@8:PROC
;	COMDAT ??_C@_1BE@KPIGCPJA@?$AAc?$AAa?$AAl?$AAe?$AAn?$AAd?$AAa?$AAr?$AA?$DN?$AA?$AA@
CONST	SEGMENT
??_C@_1BE@KPIGCPJA@?$AAc?$AAa?$AAl?$AAe?$AAn?$AAd?$AAa?$AAr?$AA?$DN?$AA?$AA@ DB 'c'
	DB	00H, 'a', 00H, 'l', 00H, 'e', 00H, 'n', 00H, 'd', 00H, 'a', 00H
	DB	'r', 00H, '=', 00H, 00H, 00H			; `string'
CONST	ENDS
;	COMDAT xdata$x
xdata$x	SEGMENT
__unwindtable$?updateVisibleIDs@BasicCalendarFactory@icu_56@@MBEXAAVHashtable@2@AAW4UErrorCode@@@Z DD 0ffffffffH
	DD	FLAT:__unwindfunclet$?updateVisibleIDs@BasicCalendarFactory@icu_56@@MBEXAAVHashtable@2@AAW4UErrorCode@@@Z$0
	DD	00H
	DD	FLAT:__unwindfunclet$?updateVisibleIDs@BasicCalendarFactory@icu_56@@MBEXAAVHashtable@2@AAW4UErrorCode@@@Z$1
	DD	00H
	DD	FLAT:__unwindfunclet$?updateVisibleIDs@BasicCalendarFactory@icu_56@@MBEXAAVHashtable@2@AAW4UErrorCode@@@Z$2
__ehfuncinfo$?updateVisibleIDs@BasicCalendarFactory@icu_56@@MBEXAAVHashtable@2@AAW4UErrorCode@@@Z DD 019930522H
	DD	03H
	DD	FLAT:__unwindtable$?updateVisibleIDs@BasicCalendarFactory@icu_56@@MBEXAAVHashtable@2@AAW4UErrorCode@@@Z
	DD	2 DUP(00H)
	DD	2 DUP(00H)
	DD	00H
	DD	01H
; Function compile flags: /Odtp /RTCsu /ZI
xdata$x	ENDS
;	COMDAT ?updateVisibleIDs@BasicCalendarFactory@icu_56@@MBEXAAVHashtable@2@AAW4UErrorCode@@@Z
_TEXT	SEGMENT
tv136 = -456						; size = 4
tv134 = -456						; size = 4
tv141 = -452						; size = 4
tv138 = -452						; size = 4
$T76050 = -444						; size = 64
$T76051 = -372						; size = 64
_id$76048 = -108					; size = 64
_i$76043 = -36						; size = 4
_this$ = -24						; size = 4
__$ArrayPad$ = -16					; size = 4
__$EHRec$ = -12						; size = 12
_result$ = 8						; size = 4
_status$ = 12						; size = 4
?updateVisibleIDs@BasicCalendarFactory@icu_56@@MBEXAAVHashtable@2@AAW4UErrorCode@@@Z PROC ; icu_56::BasicCalendarFactory::updateVisibleIDs, COMDAT
; _this$ = ecx
; Line 425
	push	ebp
	mov	ebp, esp
	push	-1
	push	__ehhandler$?updateVisibleIDs@BasicCalendarFactory@icu_56@@MBEXAAVHashtable@2@AAW4UErrorCode@@@Z
	mov	eax, DWORD PTR fs:0
	push	eax
	sub	esp, 444				; 000001bcH
	push	ebx
	push	esi
	push	edi
	push	ecx
	lea	edi, DWORD PTR [ebp-456]
	mov	ecx, 111				; 0000006fH
	mov	eax, -858993460				; ccccccccH
	rep stosd
	pop	ecx
	mov	eax, DWORD PTR ___security_cookie
	xor	eax, ebp
	mov	DWORD PTR __$ArrayPad$[ebp], eax
	push	eax
	lea	eax, DWORD PTR __$EHRec$[ebp]
	mov	DWORD PTR fs:0, eax
	mov	DWORD PTR _this$[ebp], ecx
; Line 426
	mov	eax, DWORD PTR _status$[ebp]
	mov	ecx, DWORD PTR [eax]
	push	ecx
	call	?U_SUCCESS@@YACW4UErrorCode@@@Z		; U_SUCCESS
	add	esp, 4
	movsx	edx, al
	test	edx, edx
	je	$LN5@updateVisi
; Line 427
	mov	DWORD PTR _i$76043[ebp], 0
	jmp	SHORT $LN3@updateVisi
$LN2@updateVisi:
	mov	eax, DWORD PTR _i$76043[ebp]
	add	eax, 1
	mov	DWORD PTR _i$76043[ebp], eax
$LN3@updateVisi:
	mov	eax, DWORD PTR _i$76043[ebp]
	cmp	DWORD PTR _gCalTypes[eax*4], 0
	je	$LN5@updateVisi
; Line 428
	mov	esi, esp
	push	64					; 00000040H
	lea	ecx, DWORD PTR _id$76048[ebp]
	call	DWORD PTR __imp_??0UnicodeString@icu_56@@QAE@_W@Z
	cmp	esi, esp
	call	__RTC_CheckEsp
	mov	DWORD PTR __$EHRec$[ebp+8], 0
; Line 429
	mov	esi, esp
	push	-1
	push	OFFSET ??_C@_1BE@KPIGCPJA@?$AAc?$AAa?$AAl?$AAe?$AAn?$AAd?$AAa?$AAr?$AA?$DN?$AA?$AA@
	push	1
	lea	ecx, DWORD PTR $T76050[ebp]
	call	DWORD PTR __imp_??0UnicodeString@icu_56@@QAE@CPB_WH@Z
	cmp	esi, esp
	call	__RTC_CheckEsp
	mov	DWORD PTR tv138[ebp], eax
	mov	eax, DWORD PTR tv138[ebp]
	mov	DWORD PTR tv134[ebp], eax
	mov	BYTE PTR __$EHRec$[ebp+8], 1
	mov	esi, esp
	mov	ecx, DWORD PTR tv134[ebp]
	push	ecx
	lea	ecx, DWORD PTR _id$76048[ebp]
	call	DWORD PTR __imp_?append@UnicodeString@icu_56@@QAEAAV12@ABV12@@Z
	cmp	esi, esp
	call	__RTC_CheckEsp
	mov	BYTE PTR __$EHRec$[ebp+8], 0
	mov	esi, esp
	lea	ecx, DWORD PTR $T76050[ebp]
	call	DWORD PTR __imp_??1UnicodeString@icu_56@@UAE@XZ
	cmp	esi, esp
	call	__RTC_CheckEsp
; Line 430
	mov	esi, esp
	push	0
	push	-1
	mov	eax, DWORD PTR _i$76043[ebp]
	mov	ecx, DWORD PTR _gCalTypes[eax*4]
	push	ecx
	lea	ecx, DWORD PTR $T76051[ebp]
	call	DWORD PTR __imp_??0UnicodeString@icu_56@@QAE@PBDHW4EInvariant@01@@Z
	cmp	esi, esp
	call	__RTC_CheckEsp
	mov	DWORD PTR tv141[ebp], eax
	mov	edx, DWORD PTR tv141[ebp]
	mov	DWORD PTR tv136[ebp], edx
	mov	BYTE PTR __$EHRec$[ebp+8], 2
	mov	esi, esp
	mov	eax, DWORD PTR tv136[ebp]
	push	eax
	lea	ecx, DWORD PTR _id$76048[ebp]
	call	DWORD PTR __imp_?append@UnicodeString@icu_56@@QAEAAV12@ABV12@@Z
	cmp	esi, esp
	call	__RTC_CheckEsp
	mov	BYTE PTR __$EHRec$[ebp+8], 0
	mov	esi, esp
	lea	ecx, DWORD PTR $T76051[ebp]
	call	DWORD PTR __imp_??1UnicodeString@icu_56@@UAE@XZ
	cmp	esi, esp
	call	__RTC_CheckEsp
; Line 431
	mov	esi, esp
	mov	eax, DWORD PTR _status$[ebp]
	push	eax
	mov	ecx, DWORD PTR _this$[ebp]
	push	ecx
	lea	edx, DWORD PTR _id$76048[ebp]
	push	edx
	mov	ecx, DWORD PTR _result$[ebp]
	call	DWORD PTR __imp_?put@Hashtable@icu_56@@QAEPAXABVUnicodeString@2@PAXAAW4UErrorCode@@@Z
	cmp	esi, esp
	call	__RTC_CheckEsp
; Line 432
	mov	DWORD PTR __$EHRec$[ebp+8], -1
	mov	esi, esp
	lea	ecx, DWORD PTR _id$76048[ebp]
	call	DWORD PTR __imp_??1UnicodeString@icu_56@@UAE@XZ
	cmp	esi, esp
	call	__RTC_CheckEsp
	jmp	$LN2@updateVisi
$LN5@updateVisi:
; Line 434
	push	edx
	mov	ecx, ebp
	push	eax
	lea	edx, DWORD PTR $LN13@updateVisi
	call	@_RTC_CheckStackVars@8
	pop	eax
	pop	edx
	mov	ecx, DWORD PTR __$EHRec$[ebp]
	mov	DWORD PTR fs:0, ecx
	pop	ecx
	pop	edi
	pop	esi
	pop	ebx
	mov	ecx, DWORD PTR __$ArrayPad$[ebp]
	xor	ecx, ebp
	call	@__security_check_cookie@4
	add	esp, 456				; 000001c8H
	cmp	ebp, esp
	call	__RTC_CheckEsp
	mov	esp, ebp
	pop	ebp
	ret	8
	npad	2
$LN13@updateVisi:
	DD	1
	DD	$LN12@updateVisi
$LN12@updateVisi:
	DD	-108					; ffffff94H
	DD	64					; 00000040H
	DD	$LN10@updateVisi
$LN10@updateVisi:
	DB	105					; 00000069H
	DB	100					; 00000064H
	DB	0
_TEXT	ENDS
;	COMDAT text$x
text$x	SEGMENT
__unwindfunclet$?updateVisibleIDs@BasicCalendarFactory@icu_56@@MBEXAAVHashtable@2@AAW4UErrorCode@@@Z$0:
	mov	esi, esp
	lea	ecx, DWORD PTR _id$76048[ebp]
	call	DWORD PTR __imp_??1UnicodeString@icu_56@@UAE@XZ
	cmp	esi, esp
	jmp	__RTC_CheckEsp
__unwindfunclet$?updateVisibleIDs@BasicCalendarFactory@icu_56@@MBEXAAVHashtable@2@AAW4UErrorCode@@@Z$1:
	mov	esi, esp
	lea	ecx, DWORD PTR $T76050[ebp]
	call	DWORD PTR __imp_??1UnicodeString@icu_56@@UAE@XZ
	cmp	esi, esp
	jmp	__RTC_CheckEsp
__unwindfunclet$?updateVisibleIDs@BasicCalendarFactory@icu_56@@MBEXAAVHashtable@2@AAW4UErrorCode@@@Z$2:
	mov	esi, esp
	lea	ecx, DWORD PTR $T76051[ebp]
	call	DWORD PTR __imp_??1UnicodeString@icu_56@@UAE@XZ
	cmp	esi, esp
	jmp	__RTC_CheckEsp
__ehhandler$?updateVisibleIDs@BasicCalendarFactory@icu_56@@MBEXAAVHashtable@2@AAW4UErrorCode@@@Z:
	mov	edx, DWORD PTR [esp+8]
	lea	eax, DWORD PTR [edx+12]
	mov	ecx, DWORD PTR [edx-460]
	xor	ecx, eax
	call	@__security_check_cookie@4
	mov	ecx, DWORD PTR [edx-4]
	xor	ecx, eax
	call	@__security_check_cookie@4
	mov	eax, OFFSET __ehfuncinfo$?updateVisibleIDs@BasicCalendarFactory@icu_56@@MBEXAAVHashtable@2@AAW4UErrorCode@@@Z
	jmp	___CxxFrameHandler3
text$x	ENDS
?updateVisibleIDs@BasicCalendarFactory@icu_56@@MBEXAAVHashtable@2@AAW4UErrorCode@@@Z ENDP ; icu_56::BasicCalendarFactory::updateVisibleIDs
; Function compile flags: /Odtp /RTCsu /ZI
;	COMDAT ?U_SUCCESS@@YACW4UErrorCode@@@Z
_TEXT	SEGMENT
_code$ = 8						; size = 4
?U_SUCCESS@@YACW4UErrorCode@@@Z PROC			; U_SUCCESS, COMDAT
; File d:\mozilla\intl\icu\include\unicode\utypes.h
; Line 699
	push	ebp
	mov	ebp, esp
	sub	esp, 192				; 000000c0H
	push	ebx
	push	esi
	push	edi
	lea	edi, DWORD PTR [ebp-192]
	mov	ecx, 48					; 00000030H
	mov	eax, -858993460				; ccccccccH
	rep stosd
	cmp	DWORD PTR _code$[ebp], 0
	setle	al
	pop	edi
	pop	esi
	pop	ebx
	mov	esp, ebp
	pop	ebp
	ret	0
?U_SUCCESS@@YACW4UErrorCode@@@Z ENDP			; U_SUCCESS
_TEXT	ENDS
PUBLIC	__$ArrayPad$
EXTRN	__imp_??1Locale@icu_56@@UAE@XZ:PROC
EXTRN	__imp_??0UnicodeString@icu_56@@QAE@XZ:PROC
EXTRN	__imp_??0Locale@icu_56@@QAE@XZ:PROC
;	COMDAT xdata$x
; File d:\mozilla\intl\icu\source\i18n\calendar.cpp
xdata$x	SEGMENT
__unwindtable$?create@BasicCalendarFactory@icu_56@@MBEPAVUObject@2@ABVICUServiceKey@2@PBVICUService@2@AAW4UErrorCode@@@Z DD 0ffffffffH
	DD	FLAT:__unwindfunclet$?create@BasicCalendarFactory@icu_56@@MBEPAVUObject@2@ABVICUServiceKey@2@PBVICUService@2@AAW4UErrorCode@@@Z$0
	DD	00H
	DD	FLAT:__unwindfunclet$?create@BasicCalendarFactory@icu_56@@MBEPAVUObject@2@ABVICUServiceKey@2@PBVICUService@2@AAW4UErrorCode@@@Z$1
	DD	01H
	DD	FLAT:__unwindfunclet$?create@BasicCalendarFactory@icu_56@@MBEPAVUObject@2@ABVICUServiceKey@2@PBVICUService@2@AAW4UErrorCode@@@Z$2
__ehfuncinfo$?create@BasicCalendarFactory@icu_56@@MBEPAVUObject@2@ABVICUServiceKey@2@PBVICUService@2@AAW4UErrorCode@@@Z DD 019930522H
	DD	03H
	DD	FLAT:__unwindtable$?create@BasicCalendarFactory@icu_56@@MBEPAVUObject@2@ABVICUServiceKey@2@PBVICUService@2@AAW4UErrorCode@@@Z
	DD	2 DUP(00H)
	DD	2 DUP(00H)
	DD	00H
	DD	01H
; Function compile flags: /Odtp /RTCsu /ZI
xdata$x	ENDS
;	COMDAT ?create@BasicCalendarFactory@icu_56@@MBEPAVUObject@2@ABVICUServiceKey@2@PBVICUService@2@AAW4UErrorCode@@@Z
_TEXT	SEGMENT
$T85131 = -916						; size = 4
$T85132 = -904						; size = 4
_str$ = -700						; size = 64
_keyword$ = -628					; size = 157
_canLoc$ = -460						; size = 204
_curLoc$ = -248						; size = 204
_lkey$ = -36						; size = 4
_this$ = -24						; size = 4
__$ArrayPad$ = -16					; size = 4
__$EHRec$ = -12						; size = 12
_key$ = 8						; size = 4
___formal$ = 12						; size = 4
_status$ = 16						; size = 4
?create@BasicCalendarFactory@icu_56@@MBEPAVUObject@2@ABVICUServiceKey@2@PBVICUService@2@AAW4UErrorCode@@@Z PROC ; icu_56::BasicCalendarFactory::create, COMDAT
; _this$ = ecx
; Line 436
	push	ebp
	mov	ebp, esp
	push	-1
	push	__ehhandler$?create@BasicCalendarFactory@icu_56@@MBEPAVUObject@2@ABVICUServiceKey@2@PBVICUService@2@AAW4UErrorCode@@@Z
	mov	eax, DWORD PTR fs:0
	push	eax
	sub	esp, 908				; 0000038cH
	push	ebx
	push	esi
	push	edi
	push	ecx
	lea	edi, DWORD PTR [ebp-920]
	mov	ecx, 227				; 000000e3H
	mov	eax, -858993460				; ccccccccH
	rep stosd
	pop	ecx
	mov	eax, DWORD PTR ___security_cookie
	xor	eax, ebp
	mov	DWORD PTR __$ArrayPad$[ebp], eax
	push	eax
	lea	eax, DWORD PTR __$EHRec$[ebp]
	mov	DWORD PTR fs:0, eax
	mov	DWORD PTR _this$[ebp], ecx
; Line 442
	mov	eax, DWORD PTR _key$[ebp]
	mov	DWORD PTR _lkey$[ebp], eax
; Line 443
	mov	esi, esp
	lea	ecx, DWORD PTR _curLoc$[ebp]
	call	DWORD PTR __imp_??0Locale@icu_56@@QAE@XZ
	cmp	esi, esp
	call	__RTC_CheckEsp
	mov	DWORD PTR __$EHRec$[ebp+8], 0
; Line 444
	mov	esi, esp
	lea	ecx, DWORD PTR _canLoc$[ebp]
	call	DWORD PTR __imp_??0Locale@icu_56@@QAE@XZ
	cmp	esi, esp
	call	__RTC_CheckEsp
	mov	BYTE PTR __$EHRec$[ebp+8], 1
; Line 446
	mov	esi, esp
	lea	eax, DWORD PTR _curLoc$[ebp]
	push	eax
	mov	ecx, DWORD PTR _lkey$[ebp]
	mov	edx, DWORD PTR [ecx]
	mov	ecx, DWORD PTR _lkey$[ebp]
	mov	eax, DWORD PTR [edx+44]
	call	eax
	cmp	esi, esp
	call	__RTC_CheckEsp
; Line 447
	mov	esi, esp
	lea	eax, DWORD PTR _canLoc$[ebp]
	push	eax
	mov	ecx, DWORD PTR _lkey$[ebp]
	mov	edx, DWORD PTR [ecx]
	mov	ecx, DWORD PTR _lkey$[ebp]
	mov	eax, DWORD PTR [edx+40]
	call	eax
	cmp	esi, esp
	call	__RTC_CheckEsp
; Line 450
	mov	esi, esp
	lea	ecx, DWORD PTR _str$[ebp]
	call	DWORD PTR __imp_??0UnicodeString@icu_56@@QAE@XZ
	cmp	esi, esp
	call	__RTC_CheckEsp
	mov	BYTE PTR __$EHRec$[ebp+8], 2
; Line 452
	mov	esi, esp
	lea	eax, DWORD PTR _str$[ebp]
	push	eax
	mov	ecx, DWORD PTR _key$[ebp]
	mov	edx, DWORD PTR [ecx]
	mov	ecx, DWORD PTR _key$[ebp]
	mov	eax, DWORD PTR [edx+16]
	call	eax
	cmp	esi, esp
	call	__RTC_CheckEsp
; Line 453
	push	157					; 0000009dH
	lea	eax, DWORD PTR _keyword$[ebp]
	push	eax
	lea	ecx, DWORD PTR _str$[ebp]
	push	ecx
	call	?getCalendarKeyword@icu_56@@YAXABVUnicodeString@1@PADH@Z ; icu_56::getCalendarKeyword
	add	esp, 12					; 0000000cH
; Line 459
	mov	eax, DWORD PTR _status$[ebp]
	push	eax
	lea	ecx, DWORD PTR _keyword$[ebp]
	push	ecx
	call	?isStandardSupportedKeyword@icu_56@@YACPBDAAW4UErrorCode@@@Z ; icu_56::isStandardSupportedKeyword
	add	esp, 8
	movsx	edx, al
	test	edx, edx
	jne	SHORT $LN1@create
; Line 464
	mov	DWORD PTR $T85131[ebp], 0
	mov	BYTE PTR __$EHRec$[ebp+8], 1
	mov	esi, esp
	lea	ecx, DWORD PTR _str$[ebp]
	call	DWORD PTR __imp_??1UnicodeString@icu_56@@UAE@XZ
	cmp	esi, esp
	call	__RTC_CheckEsp
	mov	BYTE PTR __$EHRec$[ebp+8], 0
	mov	esi, esp
	lea	ecx, DWORD PTR _canLoc$[ebp]
	call	DWORD PTR __imp_??1Locale@icu_56@@UAE@XZ
	cmp	esi, esp
	call	__RTC_CheckEsp
	mov	DWORD PTR __$EHRec$[ebp+8], -1
	mov	esi, esp
	lea	ecx, DWORD PTR _curLoc$[ebp]
	call	DWORD PTR __imp_??1Locale@icu_56@@UAE@XZ
	cmp	esi, esp
	call	__RTC_CheckEsp
	mov	eax, DWORD PTR $T85131[ebp]
	jmp	SHORT $LN2@create
$LN1@create:
; Line 467
	mov	eax, DWORD PTR _status$[ebp]
	push	eax
	lea	ecx, DWORD PTR _canLoc$[ebp]
	push	ecx
	lea	edx, DWORD PTR _keyword$[ebp]
	push	edx
	call	?getCalendarType@icu_56@@YA?AW4ECalType@@PBD@Z ; icu_56::getCalendarType
	add	esp, 4
	push	eax
	call	?createStandardCalendar@icu_56@@YAPAVCalendar@1@W4ECalType@@ABVLocale@1@AAW4UErrorCode@@@Z ; icu_56::createStandardCalendar
	add	esp, 12					; 0000000cH
	mov	DWORD PTR $T85132[ebp], eax
	mov	BYTE PTR __$EHRec$[ebp+8], 1
	mov	esi, esp
	lea	ecx, DWORD PTR _str$[ebp]
	call	DWORD PTR __imp_??1UnicodeString@icu_56@@UAE@XZ
	cmp	esi, esp
	call	__RTC_CheckEsp
	mov	BYTE PTR __$EHRec$[ebp+8], 0
	mov	esi, esp
	lea	ecx, DWORD PTR _canLoc$[ebp]
	call	DWORD PTR __imp_??1Locale@icu_56@@UAE@XZ
	cmp	esi, esp
	call	__RTC_CheckEsp
	mov	DWORD PTR __$EHRec$[ebp+8], -1
	mov	esi, esp
	lea	ecx, DWORD PTR _curLoc$[ebp]
	call	DWORD PTR __imp_??1Locale@icu_56@@UAE@XZ
	cmp	esi, esp
	call	__RTC_CheckEsp
	mov	eax, DWORD PTR $T85132[ebp]
$LN2@create:
; Line 468
	push	edx
	mov	ecx, ebp
	push	eax
	lea	edx, DWORD PTR $LN13@create
	call	@_RTC_CheckStackVars@8
	pop	eax
	pop	edx
	mov	ecx, DWORD PTR __$EHRec$[ebp]
	mov	DWORD PTR fs:0, ecx
	pop	ecx
	pop	edi
	pop	esi
	pop	ebx
	mov	ecx, DWORD PTR __$ArrayPad$[ebp]
	xor	ecx, ebp
	call	@__security_check_cookie@4
	add	esp, 920				; 00000398H
	cmp	ebp, esp
	call	__RTC_CheckEsp
	mov	esp, ebp
	pop	ebp
	ret	12					; 0000000cH
	npad	2
$LN13@create:
	DD	4
	DD	$LN12@create
$LN12@create:
	DD	-248					; ffffff08H
	DD	204					; 000000ccH
	DD	$LN7@create
	DD	-460					; fffffe34H
	DD	204					; 000000ccH
	DD	$LN8@create
	DD	-628					; fffffd8cH
	DD	157					; 0000009dH
	DD	$LN9@create
	DD	-700					; fffffd44H
	DD	64					; 00000040H
	DD	$LN10@create
$LN10@create:
	DB	115					; 00000073H
	DB	116					; 00000074H
	DB	114					; 00000072H
	DB	0
$LN9@create:
	DB	107					; 0000006bH
	DB	101					; 00000065H
	DB	121					; 00000079H
	DB	119					; 00000077H
	DB	111					; 0000006fH
	DB	114					; 00000072H
	DB	100					; 00000064H
	DB	0
$LN8@create:
	DB	99					; 00000063H
	DB	97					; 00000061H
	DB	110					; 0000006eH
	DB	76					; 0000004cH
	DB	111					; 0000006fH
	DB	99					; 00000063H
	DB	0
$LN7@create:
	DB	99					; 00000063H
	DB	117					; 00000075H
	DB	114					; 00000072H
	DB	76					; 0000004cH
	DB	111					; 0000006fH
	DB	99					; 00000063H
	DB	0
_TEXT	ENDS
;	COMDAT text$x
text$x	SEGMENT
__unwindfunclet$?create@BasicCalendarFactory@icu_56@@MBEPAVUObject@2@ABVICUServiceKey@2@PBVICUService@2@AAW4UErrorCode@@@Z$0:
	mov	esi, esp
	lea	ecx, DWORD PTR _curLoc$[ebp]
	call	DWORD PTR __imp_??1Locale@icu_56@@UAE@XZ
	cmp	esi, esp
	jmp	__RTC_CheckEsp
__unwindfunclet$?create@BasicCalendarFactory@icu_56@@MBEPAVUObject@2@ABVICUServiceKey@2@PBVICUService@2@AAW4UErrorCode@@@Z$1:
	mov	esi, esp
	lea	ecx, DWORD PTR _canLoc$[ebp]
	call	DWORD PTR __imp_??1Locale@icu_56@@UAE@XZ
	cmp	esi, esp
	jmp	__RTC_CheckEsp
__unwindfunclet$?create@BasicCalendarFactory@icu_56@@MBEPAVUObject@2@ABVICUServiceKey@2@PBVICUService@2@AAW4UErrorCode@@@Z$2:
	mov	esi, esp
	lea	ecx, DWORD PTR _str$[ebp]
	call	DWORD PTR __imp_??1UnicodeString@icu_56@@UAE@XZ
	cmp	esi, esp
	jmp	__RTC_CheckEsp
__ehhandler$?create@BasicCalendarFactory@icu_56@@MBEPAVUObject@2@ABVICUServiceKey@2@PBVICUService@2@AAW4UErrorCode@@@Z:
	mov	edx, DWORD PTR [esp+8]
	lea	eax, DWORD PTR [edx+12]
	mov	ecx, DWORD PTR [edx-924]
	xor	ecx, eax
	call	@__security_check_cookie@4
	mov	ecx, DWORD PTR [edx-4]
	xor	ecx, eax
	call	@__security_check_cookie@4
	mov	eax, OFFSET __ehfuncinfo$?create@BasicCalendarFactory@icu_56@@MBEPAVUObject@2@ABVICUServiceKey@2@PBVICUService@2@AAW4UErrorCode@@@Z
	jmp	___CxxFrameHandler3
text$x	ENDS
?create@BasicCalendarFactory@icu_56@@MBEPAVUObject@2@ABVICUServiceKey@2@PBVICUService@2@AAW4UErrorCode@@@Z ENDP ; icu_56::BasicCalendarFactory::create
EXTRN	_uprv_stricmp_56:PROC
; Function compile flags: /Odtp /RTCsu /ZI
;	COMDAT ?getCalendarType@icu_56@@YA?AW4ECalType@@PBD@Z
_TEXT	SEGMENT
_i$75867 = -8						; size = 4
_s$ = 8							; size = 4
?getCalendarType@icu_56@@YA?AW4ECalType@@PBD@Z PROC	; icu_56::getCalendarType, COMDAT
; Line 225
	push	ebp
	mov	ebp, esp
	sub	esp, 204				; 000000ccH
	push	ebx
	push	esi
	push	edi
	lea	edi, DWORD PTR [ebp-204]
	mov	ecx, 51					; 00000033H
	mov	eax, -858993460				; ccccccccH
	rep stosd
; Line 226
	mov	DWORD PTR _i$75867[ebp], 0
	jmp	SHORT $LN4@getCalenda
$LN3@getCalenda:
	mov	eax, DWORD PTR _i$75867[ebp]
	add	eax, 1
	mov	DWORD PTR _i$75867[ebp], eax
$LN4@getCalenda:
	mov	eax, DWORD PTR _i$75867[ebp]
	cmp	DWORD PTR _gCalTypes[eax*4], 0
	je	SHORT $LN2@getCalenda
; Line 227
	mov	eax, DWORD PTR _i$75867[ebp]
	mov	ecx, DWORD PTR _gCalTypes[eax*4]
	push	ecx
	mov	edx, DWORD PTR _s$[ebp]
	push	edx
	call	_uprv_stricmp_56
	add	esp, 8
	test	eax, eax
	jne	SHORT $LN1@getCalenda
; Line 228
	mov	eax, DWORD PTR _i$75867[ebp]
	jmp	SHORT $LN5@getCalenda
$LN1@getCalenda:
; Line 230
	jmp	SHORT $LN3@getCalenda
$LN2@getCalenda:
; Line 231
	or	eax, -1
$LN5@getCalenda:
; Line 232
	pop	edi
	pop	esi
	pop	ebx
	add	esp, 204				; 000000ccH
	cmp	ebp, esp
	call	__RTC_CheckEsp
	mov	esp, ebp
	pop	ebp
	ret	0
?getCalendarType@icu_56@@YA?AW4ECalType@@PBD@Z ENDP	; icu_56::getCalendarType
; Function compile flags: /Odtp /RTCsu /ZI
_TEXT	ENDS
;	COMDAT ?isStandardSupportedKeyword@icu_56@@YACPBDAAW4UErrorCode@@@Z
_TEXT	SEGMENT
_calType$ = -8						; size = 4
_keyword$ = 8						; size = 4
_status$ = 12						; size = 4
?isStandardSupportedKeyword@icu_56@@YACPBDAAW4UErrorCode@@@Z PROC ; icu_56::isStandardSupportedKeyword, COMDAT
; Line 234
	push	ebp
	mov	ebp, esp
	sub	esp, 204				; 000000ccH
	push	ebx
	push	esi
	push	edi
	lea	edi, DWORD PTR [ebp-204]
	mov	ecx, 51					; 00000033H
	mov	eax, -858993460				; ccccccccH
	rep stosd
; Line 235
	mov	eax, DWORD PTR _status$[ebp]
	mov	ecx, DWORD PTR [eax]
	push	ecx
	call	?U_FAILURE@@YACW4UErrorCode@@@Z		; U_FAILURE
	add	esp, 4
	movsx	edx, al
	test	edx, edx
	je	SHORT $LN1@isStandard
; Line 236
	xor	al, al
	jmp	SHORT $LN2@isStandard
$LN1@isStandard:
; Line 238
	mov	eax, DWORD PTR _keyword$[ebp]
	push	eax
	call	?getCalendarType@icu_56@@YA?AW4ECalType@@PBD@Z ; icu_56::getCalendarType
	add	esp, 4
	mov	DWORD PTR _calType$[ebp], eax
; Line 239
	cmp	DWORD PTR _calType$[ebp], -1
	setne	al
$LN2@isStandard:
; Line 240
	pop	edi
	pop	esi
	pop	ebx
	add	esp, 204				; 000000ccH
	cmp	ebp, esp
	call	__RTC_CheckEsp
	mov	esp, ebp
	pop	ebp
	ret	0
?isStandardSupportedKeyword@icu_56@@YACPBDAAW4UErrorCode@@@Z ENDP ; icu_56::isStandardSupportedKeyword
_TEXT	ENDS
PUBLIC	__$ArrayPad$
EXTRN	__imp_?extract@UnicodeString@icu_56@@QBEHHHPADHW4EInvariant@12@@Z:PROC
EXTRN	__imp_?compareBetween@UnicodeString@icu_56@@QBECHHABV12@HH@Z:PROC
EXTRN	__imp_??AUnicodeString@icu_56@@QBE_WH@Z:PROC
EXTRN	__imp_?indexOf@UnicodeString@icu_56@@QBEH_W@Z:PROC
EXTRN	__imp_?length@UnicodeString@icu_56@@QBEHXZ:PROC
;	COMDAT xdata$x
xdata$x	SEGMENT
__unwindtable$?getCalendarKeyword@icu_56@@YAXABVUnicodeString@1@PADH@Z DD 0ffffffffH
	DD	FLAT:__unwindfunclet$?getCalendarKeyword@icu_56@@YAXABVUnicodeString@1@PADH@Z$0
__ehfuncinfo$?getCalendarKeyword@icu_56@@YAXABVUnicodeString@1@PADH@Z DD 019930522H
	DD	01H
	DD	FLAT:__unwindtable$?getCalendarKeyword@icu_56@@YAXABVUnicodeString@1@PADH@Z
	DD	2 DUP(00H)
	DD	2 DUP(00H)
	DD	00H
	DD	01H
; Function compile flags: /Odtp /RTCsu /ZI
xdata$x	ENDS
;	COMDAT ?getCalendarKeyword@icu_56@@YAXABVUnicodeString@1@PADH@Z
_TEXT	SEGMENT
_keywordIdx$ = -120					; size = 4
_keyLen$ = -108						; size = 4
_calKeyLen$ = -96					; size = 4
_calendarKeyword$ = -84					; size = 64
__$ArrayPad$ = -16					; size = 4
__$EHRec$ = -12						; size = 12
_id$ = 8						; size = 4
_targetBuffer$ = 12					; size = 4
_targetBufferSize$ = 16					; size = 4
?getCalendarKeyword@icu_56@@YAXABVUnicodeString@1@PADH@Z PROC ; icu_56::getCalendarKeyword, COMDAT
; Line 242
	push	ebp
	mov	ebp, esp
	push	-1
	push	__ehhandler$?getCalendarKeyword@icu_56@@YAXABVUnicodeString@1@PADH@Z
	mov	eax, DWORD PTR fs:0
	push	eax
	sub	esp, 304				; 00000130H
	push	ebx
	push	esi
	push	edi
	lea	edi, DWORD PTR [ebp-316]
	mov	ecx, 76					; 0000004cH
	mov	eax, -858993460				; ccccccccH
	rep stosd
	mov	eax, DWORD PTR ___security_cookie
	xor	eax, ebp
	mov	DWORD PTR __$ArrayPad$[ebp], eax
	push	eax
	lea	eax, DWORD PTR __$EHRec$[ebp]
	mov	DWORD PTR fs:0, eax
; Line 243
	mov	esi, esp
	push	-1
	push	OFFSET ??_C@_1BE@KPIGCPJA@?$AAc?$AAa?$AAl?$AAe?$AAn?$AAd?$AAa?$AAr?$AA?$DN?$AA?$AA@
	push	1
	lea	ecx, DWORD PTR _calendarKeyword$[ebp]
	call	DWORD PTR __imp_??0UnicodeString@icu_56@@QAE@CPB_WH@Z
	cmp	esi, esp
	call	__RTC_CheckEsp
	mov	DWORD PTR __$EHRec$[ebp+8], 0
; Line 244
	mov	esi, esp
	lea	ecx, DWORD PTR _calendarKeyword$[ebp]
	call	DWORD PTR __imp_?length@UnicodeString@icu_56@@QBEHXZ
	cmp	esi, esp
	call	__RTC_CheckEsp
	mov	DWORD PTR _calKeyLen$[ebp], eax
; Line 245
	mov	DWORD PTR _keyLen$[ebp], 0
; Line 247
	mov	esi, esp
	push	61					; 0000003dH
	mov	ecx, DWORD PTR _id$[ebp]
	call	DWORD PTR __imp_?indexOf@UnicodeString@icu_56@@QBEH_W@Z
	cmp	esi, esp
	call	__RTC_CheckEsp
	mov	DWORD PTR _keywordIdx$[ebp], eax
; Line 249
	mov	esi, esp
	push	0
	mov	ecx, DWORD PTR _id$[ebp]
	call	DWORD PTR __imp_??AUnicodeString@icu_56@@QBE_WH@Z
	cmp	esi, esp
	call	__RTC_CheckEsp
	movzx	eax, ax
	cmp	eax, 64					; 00000040H
	jne	SHORT $LN1@getCalenda@2
	mov	esi, esp
	mov	eax, DWORD PTR _calKeyLen$[ebp]
	push	eax
	push	0
	lea	ecx, DWORD PTR _calendarKeyword$[ebp]
	push	ecx
	mov	edx, DWORD PTR _keywordIdx$[ebp]
	add	edx, 1
	push	edx
	push	1
	mov	ecx, DWORD PTR _id$[ebp]
	call	DWORD PTR __imp_?compareBetween@UnicodeString@icu_56@@QBECHHABV12@HH@Z
	cmp	esi, esp
	call	__RTC_CheckEsp
	movsx	eax, al
	test	eax, eax
	jne	SHORT $LN1@getCalenda@2
; Line 251
	mov	esi, esp
	push	0
	mov	eax, DWORD PTR _targetBufferSize$[ebp]
	push	eax
	mov	ecx, DWORD PTR _targetBuffer$[ebp]
	push	ecx
	mov	edi, esp
	mov	ecx, DWORD PTR _id$[ebp]
	call	DWORD PTR __imp_?length@UnicodeString@icu_56@@QBEHXZ
	cmp	edi, esp
	call	__RTC_CheckEsp
	push	eax
	mov	edx, DWORD PTR _keywordIdx$[ebp]
	add	edx, 1
	push	edx
	mov	ecx, DWORD PTR _id$[ebp]
	call	DWORD PTR __imp_?extract@UnicodeString@icu_56@@QBEHHHPADHW4EInvariant@12@@Z
	cmp	esi, esp
	call	__RTC_CheckEsp
	mov	DWORD PTR _keyLen$[ebp], eax
$LN1@getCalenda@2:
; Line 253
	mov	eax, DWORD PTR _targetBuffer$[ebp]
	add	eax, DWORD PTR _keyLen$[ebp]
	mov	BYTE PTR [eax], 0
; Line 254
	mov	DWORD PTR __$EHRec$[ebp+8], -1
	mov	esi, esp
	lea	ecx, DWORD PTR _calendarKeyword$[ebp]
	call	DWORD PTR __imp_??1UnicodeString@icu_56@@UAE@XZ
	cmp	esi, esp
	call	__RTC_CheckEsp
	push	edx
	mov	ecx, ebp
	push	eax
	lea	edx, DWORD PTR $LN8@getCalenda@2
	call	@_RTC_CheckStackVars@8
	pop	eax
	pop	edx
	mov	ecx, DWORD PTR __$EHRec$[ebp]
	mov	DWORD PTR fs:0, ecx
	pop	ecx
	pop	edi
	pop	esi
	pop	ebx
	mov	ecx, DWORD PTR __$ArrayPad$[ebp]
	xor	ecx, ebp
	call	@__security_check_cookie@4
	add	esp, 316				; 0000013cH
	cmp	ebp, esp
	call	__RTC_CheckEsp
	mov	esp, ebp
	pop	ebp
	ret	0
	npad	2
$LN8@getCalenda@2:
	DD	1
	DD	$LN7@getCalenda@2
$LN7@getCalenda@2:
	DD	-84					; ffffffacH
	DD	64					; 00000040H
	DD	$LN5@getCalenda@2
$LN5@getCalenda@2:
	DB	99					; 00000063H
	DB	97					; 00000061H
	DB	108					; 0000006cH
	DB	101					; 00000065H
	DB	110					; 0000006eH
	DB	100					; 00000064H
	DB	97					; 00000061H
	DB	114					; 00000072H
	DB	75					; 0000004bH
	DB	101					; 00000065H
	DB	121					; 00000079H
	DB	119					; 00000077H
	DB	111					; 0000006fH
	DB	114					; 00000072H
	DB	100					; 00000064H
	DB	0
_TEXT	ENDS
;	COMDAT text$x
text$x	SEGMENT
__unwindfunclet$?getCalendarKeyword@icu_56@@YAXABVUnicodeString@1@PADH@Z$0:
	mov	esi, esp
	lea	ecx, DWORD PTR _calendarKeyword$[ebp]
	call	DWORD PTR __imp_??1UnicodeString@icu_56@@UAE@XZ
	cmp	esi, esp
	jmp	__RTC_CheckEsp
__ehhandler$?getCalendarKeyword@icu_56@@YAXABVUnicodeString@1@PADH@Z:
	mov	edx, DWORD PTR [esp+8]
	lea	eax, DWORD PTR [edx+12]
	mov	ecx, DWORD PTR [edx-320]
	xor	ecx, eax
	call	@__security_check_cookie@4
	mov	ecx, DWORD PTR [edx-4]
	xor	ecx, eax
	call	@__security_check_cookie@4
	mov	eax, OFFSET __ehfuncinfo$?getCalendarKeyword@icu_56@@YAXABVUnicodeString@1@PADH@Z
	jmp	___CxxFrameHandler3
text$x	ENDS
?getCalendarKeyword@icu_56@@YAXABVUnicodeString@1@PADH@Z ENDP ; icu_56::getCalendarKeyword
PUBLIC	?setMinimalDaysInFirstWeek@Calendar@icu_56@@QAEXE@Z ; icu_56::Calendar::setMinimalDaysInFirstWeek
PUBLIC	?setFirstDayOfWeek@Calendar@icu_56@@QAEXW4UCalendarDaysOfWeek@@@Z ; icu_56::Calendar::setFirstDayOfWeek
EXTRN	??0DangiCalendar@icu_56@@QAE@ABVLocale@1@AAW4UErrorCode@@@Z:PROC ; icu_56::DangiCalendar::DangiCalendar
EXTRN	??0EthiopicCalendar@icu_56@@QAE@ABVLocale@1@AAW4UErrorCode@@W4EEraType@01@@Z:PROC ; icu_56::EthiopicCalendar::EthiopicCalendar
EXTRN	??0CopticCalendar@icu_56@@QAE@ABVLocale@1@AAW4UErrorCode@@@Z:PROC ; icu_56::CopticCalendar::CopticCalendar
EXTRN	??0IndianCalendar@icu_56@@QAE@ABVLocale@1@AAW4UErrorCode@@@Z:PROC ; icu_56::IndianCalendar::IndianCalendar
EXTRN	??0ChineseCalendar@icu_56@@QAE@ABVLocale@1@AAW4UErrorCode@@@Z:PROC ; icu_56::ChineseCalendar::ChineseCalendar
EXTRN	??0HebrewCalendar@icu_56@@QAE@ABVLocale@1@AAW4UErrorCode@@@Z:PROC ; icu_56::HebrewCalendar::HebrewCalendar
EXTRN	??0IslamicCalendar@icu_56@@QAE@ABVLocale@1@AAW4UErrorCode@@W4ECalculationType@01@@Z:PROC ; icu_56::IslamicCalendar::IslamicCalendar
EXTRN	??0PersianCalendar@icu_56@@QAE@ABVLocale@1@AAW4UErrorCode@@@Z:PROC ; icu_56::PersianCalendar::PersianCalendar
EXTRN	??0TaiwanCalendar@icu_56@@QAE@ABVLocale@1@AAW4UErrorCode@@@Z:PROC ; icu_56::TaiwanCalendar::TaiwanCalendar
EXTRN	??0BuddhistCalendar@icu_56@@QAE@ABVLocale@1@AAW4UErrorCode@@@Z:PROC ; icu_56::BuddhistCalendar::BuddhistCalendar
EXTRN	??0JapaneseCalendar@icu_56@@QAE@ABVLocale@1@AAW4UErrorCode@@@Z:PROC ; icu_56::JapaneseCalendar::JapaneseCalendar
EXTRN	??0GregorianCalendar@icu_56@@QAE@ABVLocale@1@AAW4UErrorCode@@@Z:PROC ; icu_56::GregorianCalendar::GregorianCalendar
;	COMDAT xdata$x
xdata$x	SEGMENT
__ehfuncinfo$?createStandardCalendar@icu_56@@YAPAVCalendar@1@W4ECalType@@ABVLocale@1@AAW4UErrorCode@@@Z DD 019930522H
	DD	011H
	DD	FLAT:__unwindtable$?createStandardCalendar@icu_56@@YAPAVCalendar@1@W4ECalType@@ABVLocale@1@AAW4UErrorCode@@@Z
	DD	2 DUP(00H)
	DD	2 DUP(00H)
	DD	00H
	DD	01H
__unwindtable$?createStandardCalendar@icu_56@@YAPAVCalendar@1@W4ECalType@@ABVLocale@1@AAW4UErrorCode@@@Z DD 0ffffffffH
	DD	FLAT:__unwindfunclet$?createStandardCalendar@icu_56@@YAPAVCalendar@1@W4ECalType@@ABVLocale@1@AAW4UErrorCode@@@Z$0
	DD	0ffffffffH
	DD	FLAT:__unwindfunclet$?createStandardCalendar@icu_56@@YAPAVCalendar@1@W4ECalType@@ABVLocale@1@AAW4UErrorCode@@@Z$1
	DD	0ffffffffH
	DD	FLAT:__unwindfunclet$?createStandardCalendar@icu_56@@YAPAVCalendar@1@W4ECalType@@ABVLocale@1@AAW4UErrorCode@@@Z$2
	DD	0ffffffffH
	DD	FLAT:__unwindfunclet$?createStandardCalendar@icu_56@@YAPAVCalendar@1@W4ECalType@@ABVLocale@1@AAW4UErrorCode@@@Z$3
	DD	0ffffffffH
	DD	FLAT:__unwindfunclet$?createStandardCalendar@icu_56@@YAPAVCalendar@1@W4ECalType@@ABVLocale@1@AAW4UErrorCode@@@Z$4
	DD	0ffffffffH
	DD	FLAT:__unwindfunclet$?createStandardCalendar@icu_56@@YAPAVCalendar@1@W4ECalType@@ABVLocale@1@AAW4UErrorCode@@@Z$5
	DD	0ffffffffH
	DD	FLAT:__unwindfunclet$?createStandardCalendar@icu_56@@YAPAVCalendar@1@W4ECalType@@ABVLocale@1@AAW4UErrorCode@@@Z$6
	DD	0ffffffffH
	DD	FLAT:__unwindfunclet$?createStandardCalendar@icu_56@@YAPAVCalendar@1@W4ECalType@@ABVLocale@1@AAW4UErrorCode@@@Z$7
	DD	0ffffffffH
	DD	FLAT:__unwindfunclet$?createStandardCalendar@icu_56@@YAPAVCalendar@1@W4ECalType@@ABVLocale@1@AAW4UErrorCode@@@Z$8
	DD	0ffffffffH
	DD	FLAT:__unwindfunclet$?createStandardCalendar@icu_56@@YAPAVCalendar@1@W4ECalType@@ABVLocale@1@AAW4UErrorCode@@@Z$9
	DD	0ffffffffH
	DD	FLAT:__unwindfunclet$?createStandardCalendar@icu_56@@YAPAVCalendar@1@W4ECalType@@ABVLocale@1@AAW4UErrorCode@@@Z$10
	DD	0ffffffffH
	DD	FLAT:__unwindfunclet$?createStandardCalendar@icu_56@@YAPAVCalendar@1@W4ECalType@@ABVLocale@1@AAW4UErrorCode@@@Z$11
	DD	0ffffffffH
	DD	FLAT:__unwindfunclet$?createStandardCalendar@icu_56@@YAPAVCalendar@1@W4ECalType@@ABVLocale@1@AAW4UErrorCode@@@Z$12
	DD	0ffffffffH
	DD	FLAT:__unwindfunclet$?createStandardCalendar@icu_56@@YAPAVCalendar@1@W4ECalType@@ABVLocale@1@AAW4UErrorCode@@@Z$13
	DD	0ffffffffH
	DD	FLAT:__unwindfunclet$?createStandardCalendar@icu_56@@YAPAVCalendar@1@W4ECalType@@ABVLocale@1@AAW4UErrorCode@@@Z$14
	DD	0ffffffffH
	DD	FLAT:__unwindfunclet$?createStandardCalendar@icu_56@@YAPAVCalendar@1@W4ECalType@@ABVLocale@1@AAW4UErrorCode@@@Z$15
	DD	0ffffffffH
	DD	FLAT:__unwindfunclet$?createStandardCalendar@icu_56@@YAPAVCalendar@1@W4ECalType@@ABVLocale@1@AAW4UErrorCode@@@Z$16
; Function compile flags: /Odtp /RTCsu /ZI
xdata$x	ENDS
;	COMDAT ?createStandardCalendar@icu_56@@YAPAVCalendar@1@W4ECalType@@ABVLocale@1@AAW4UErrorCode@@@Z
_TEXT	SEGMENT
tv359 = -628						; size = 4
tv342 = -628						; size = 4
tv329 = -628						; size = 4
tv283 = -628						; size = 4
tv269 = -628						; size = 4
tv256 = -628						; size = 4
tv243 = -628						; size = 4
tv230 = -628						; size = 4
tv217 = -628						; size = 4
tv203 = -628						; size = 4
tv189 = -628						; size = 4
tv175 = -628						; size = 4
tv161 = -628						; size = 4
tv148 = -628						; size = 4
tv135 = -628						; size = 4
tv90 = -628						; size = 4
tv77 = -628						; size = 4
tv64 = -628						; size = 4
$T85167 = -620						; size = 4
$T85168 = -608						; size = 4
$T85171 = -596						; size = 4
$T85172 = -584						; size = 4
$T85175 = -572						; size = 4
$T85176 = -560						; size = 4
$T85179 = -548						; size = 4
$T85180 = -536						; size = 4
$T85183 = -524						; size = 4
$T85184 = -512						; size = 4
$T85187 = -500						; size = 4
$T85188 = -488						; size = 4
$T85191 = -476						; size = 4
$T85192 = -464						; size = 4
$T85195 = -452						; size = 4
$T85196 = -440						; size = 4
$T85199 = -428						; size = 4
$T85200 = -416						; size = 4
$T85203 = -404						; size = 4
$T85204 = -392						; size = 4
$T85207 = -380						; size = 4
$T85208 = -368						; size = 4
$T85211 = -356						; size = 4
$T85212 = -344						; size = 4
$T85215 = -332						; size = 4
$T85216 = -320						; size = 4
$T85219 = -308						; size = 4
$T85220 = -296						; size = 4
$T85223 = -284						; size = 4
$T85224 = -272						; size = 4
$T85227 = -260						; size = 4
$T85228 = -248						; size = 4
$T85231 = -236						; size = 4
$T85232 = -224						; size = 4
_cal$ = -20						; size = 4
__$EHRec$ = -12						; size = 12
_calType$ = 8						; size = 4
_loc$ = 12						; size = 4
_status$ = 16						; size = 4
?createStandardCalendar@icu_56@@YAPAVCalendar@1@W4ECalType@@ABVLocale@1@AAW4UErrorCode@@@Z PROC ; icu_56::createStandardCalendar, COMDAT
; Line 330
	push	ebp
	mov	ebp, esp
	push	-1
	push	__ehhandler$?createStandardCalendar@icu_56@@YAPAVCalendar@1@W4ECalType@@ABVLocale@1@AAW4UErrorCode@@@Z
	mov	eax, DWORD PTR fs:0
	push	eax
	sub	esp, 616				; 00000268H
	push	ebx
	push	esi
	push	edi
	lea	edi, DWORD PTR [ebp-628]
	mov	ecx, 154				; 0000009aH
	mov	eax, -858993460				; ccccccccH
	rep stosd
	mov	eax, DWORD PTR ___security_cookie
	xor	eax, ebp
	push	eax
	lea	eax, DWORD PTR __$EHRec$[ebp]
	mov	DWORD PTR fs:0, eax
; Line 331
	mov	DWORD PTR _cal$[ebp], 0
; Line 333
	mov	eax, DWORD PTR _calType$[ebp]
	mov	DWORD PTR tv64[ebp], eax
	cmp	DWORD PTR tv64[ebp], 17			; 00000011H
	ja	$LN1@createStan
	mov	ecx, DWORD PTR tv64[ebp]
	jmp	DWORD PTR $LN75@createStan[ecx*4]
$LN18@createStan:
; Line 335
	mov	esi, esp
	push	648					; 00000288H
	call	DWORD PTR __imp_??2UMemory@icu_56@@SAPAXI@Z
	add	esp, 4
	cmp	esi, esp
	call	__RTC_CheckEsp
	mov	DWORD PTR $T85168[ebp], eax
	mov	DWORD PTR __$EHRec$[ebp+8], 0
	cmp	DWORD PTR $T85168[ebp], 0
	je	SHORT $LN23@createStan
	mov	eax, DWORD PTR _status$[ebp]
	push	eax
	mov	ecx, DWORD PTR _loc$[ebp]
	push	ecx
	mov	ecx, DWORD PTR $T85168[ebp]
	call	??0GregorianCalendar@icu_56@@QAE@ABVLocale@1@AAW4UErrorCode@@@Z ; icu_56::GregorianCalendar::GregorianCalendar
	mov	DWORD PTR tv77[ebp], eax
	jmp	SHORT $LN24@createStan
$LN23@createStan:
	mov	DWORD PTR tv77[ebp], 0
$LN24@createStan:
	mov	edx, DWORD PTR tv77[ebp]
	mov	DWORD PTR $T85167[ebp], edx
	mov	DWORD PTR __$EHRec$[ebp+8], -1
	mov	eax, DWORD PTR $T85167[ebp]
	mov	DWORD PTR _cal$[ebp], eax
; Line 336
	jmp	$LN19@createStan
$LN17@createStan:
; Line 338
	mov	esi, esp
	push	648					; 00000288H
	call	DWORD PTR __imp_??2UMemory@icu_56@@SAPAXI@Z
	add	esp, 4
	cmp	esi, esp
	call	__RTC_CheckEsp
	mov	DWORD PTR $T85172[ebp], eax
	mov	DWORD PTR __$EHRec$[ebp+8], 1
	cmp	DWORD PTR $T85172[ebp], 0
	je	SHORT $LN25@createStan
	mov	eax, DWORD PTR _status$[ebp]
	push	eax
	mov	ecx, DWORD PTR _loc$[ebp]
	push	ecx
	mov	ecx, DWORD PTR $T85172[ebp]
	call	??0JapaneseCalendar@icu_56@@QAE@ABVLocale@1@AAW4UErrorCode@@@Z ; icu_56::JapaneseCalendar::JapaneseCalendar
	mov	DWORD PTR tv90[ebp], eax
	jmp	SHORT $LN26@createStan
$LN25@createStan:
	mov	DWORD PTR tv90[ebp], 0
$LN26@createStan:
	mov	edx, DWORD PTR tv90[ebp]
	mov	DWORD PTR $T85171[ebp], edx
	mov	DWORD PTR __$EHRec$[ebp+8], -1
	mov	eax, DWORD PTR $T85171[ebp]
	mov	DWORD PTR _cal$[ebp], eax
; Line 339
	jmp	$LN19@createStan
$LN16@createStan:
; Line 341
	mov	esi, esp
	push	648					; 00000288H
	call	DWORD PTR __imp_??2UMemory@icu_56@@SAPAXI@Z
	add	esp, 4
	cmp	esi, esp
	call	__RTC_CheckEsp
	mov	DWORD PTR $T85176[ebp], eax
	mov	DWORD PTR __$EHRec$[ebp+8], 2
	cmp	DWORD PTR $T85176[ebp], 0
	je	SHORT $LN27@createStan
	mov	eax, DWORD PTR _status$[ebp]
	push	eax
	mov	ecx, DWORD PTR _loc$[ebp]
	push	ecx
	mov	ecx, DWORD PTR $T85176[ebp]
	call	??0BuddhistCalendar@icu_56@@QAE@ABVLocale@1@AAW4UErrorCode@@@Z ; icu_56::BuddhistCalendar::BuddhistCalendar
	mov	DWORD PTR tv135[ebp], eax
	jmp	SHORT $LN28@createStan
$LN27@createStan:
	mov	DWORD PTR tv135[ebp], 0
$LN28@createStan:
	mov	edx, DWORD PTR tv135[ebp]
	mov	DWORD PTR $T85175[ebp], edx
	mov	DWORD PTR __$EHRec$[ebp+8], -1
	mov	eax, DWORD PTR $T85175[ebp]
	mov	DWORD PTR _cal$[ebp], eax
; Line 342
	jmp	$LN19@createStan
$LN15@createStan:
; Line 344
	mov	esi, esp
	push	648					; 00000288H
	call	DWORD PTR __imp_??2UMemory@icu_56@@SAPAXI@Z
	add	esp, 4
	cmp	esi, esp
	call	__RTC_CheckEsp
	mov	DWORD PTR $T85180[ebp], eax
	mov	DWORD PTR __$EHRec$[ebp+8], 3
	cmp	DWORD PTR $T85180[ebp], 0
	je	SHORT $LN29@createStan
	mov	eax, DWORD PTR _status$[ebp]
	push	eax
	mov	ecx, DWORD PTR _loc$[ebp]
	push	ecx
	mov	ecx, DWORD PTR $T85180[ebp]
	call	??0TaiwanCalendar@icu_56@@QAE@ABVLocale@1@AAW4UErrorCode@@@Z ; icu_56::TaiwanCalendar::TaiwanCalendar
	mov	DWORD PTR tv148[ebp], eax
	jmp	SHORT $LN30@createStan
$LN29@createStan:
	mov	DWORD PTR tv148[ebp], 0
$LN30@createStan:
	mov	edx, DWORD PTR tv148[ebp]
	mov	DWORD PTR $T85179[ebp], edx
	mov	DWORD PTR __$EHRec$[ebp+8], -1
	mov	eax, DWORD PTR $T85179[ebp]
	mov	DWORD PTR _cal$[ebp], eax
; Line 345
	jmp	$LN19@createStan
$LN14@createStan:
; Line 347
	mov	esi, esp
	push	608					; 00000260H
	call	DWORD PTR __imp_??2UMemory@icu_56@@SAPAXI@Z
	add	esp, 4
	cmp	esi, esp
	call	__RTC_CheckEsp
	mov	DWORD PTR $T85184[ebp], eax
	mov	DWORD PTR __$EHRec$[ebp+8], 4
	cmp	DWORD PTR $T85184[ebp], 0
	je	SHORT $LN31@createStan
	mov	eax, DWORD PTR _status$[ebp]
	push	eax
	mov	ecx, DWORD PTR _loc$[ebp]
	push	ecx
	mov	ecx, DWORD PTR $T85184[ebp]
	call	??0PersianCalendar@icu_56@@QAE@ABVLocale@1@AAW4UErrorCode@@@Z ; icu_56::PersianCalendar::PersianCalendar
	mov	DWORD PTR tv161[ebp], eax
	jmp	SHORT $LN32@createStan
$LN31@createStan:
	mov	DWORD PTR tv161[ebp], 0
$LN32@createStan:
	mov	edx, DWORD PTR tv161[ebp]
	mov	DWORD PTR $T85183[ebp], edx
	mov	DWORD PTR __$EHRec$[ebp+8], -1
	mov	eax, DWORD PTR $T85183[ebp]
	mov	DWORD PTR _cal$[ebp], eax
; Line 348
	jmp	$LN19@createStan
$LN13@createStan:
; Line 350
	mov	esi, esp
	push	616					; 00000268H
	call	DWORD PTR __imp_??2UMemory@icu_56@@SAPAXI@Z
	add	esp, 4
	cmp	esi, esp
	call	__RTC_CheckEsp
	mov	DWORD PTR $T85188[ebp], eax
	mov	DWORD PTR __$EHRec$[ebp+8], 5
	cmp	DWORD PTR $T85188[ebp], 0
	je	SHORT $LN33@createStan
	push	3
	mov	eax, DWORD PTR _status$[ebp]
	push	eax
	mov	ecx, DWORD PTR _loc$[ebp]
	push	ecx
	mov	ecx, DWORD PTR $T85188[ebp]
	call	??0IslamicCalendar@icu_56@@QAE@ABVLocale@1@AAW4UErrorCode@@W4ECalculationType@01@@Z ; icu_56::IslamicCalendar::IslamicCalendar
	mov	DWORD PTR tv175[ebp], eax
	jmp	SHORT $LN34@createStan
$LN33@createStan:
	mov	DWORD PTR tv175[ebp], 0
$LN34@createStan:
	mov	edx, DWORD PTR tv175[ebp]
	mov	DWORD PTR $T85187[ebp], edx
	mov	DWORD PTR __$EHRec$[ebp+8], -1
	mov	eax, DWORD PTR $T85187[ebp]
	mov	DWORD PTR _cal$[ebp], eax
; Line 351
	jmp	$LN19@createStan
$LN12@createStan:
; Line 353
	mov	esi, esp
	push	616					; 00000268H
	call	DWORD PTR __imp_??2UMemory@icu_56@@SAPAXI@Z
	add	esp, 4
	cmp	esi, esp
	call	__RTC_CheckEsp
	mov	DWORD PTR $T85192[ebp], eax
	mov	DWORD PTR __$EHRec$[ebp+8], 6
	cmp	DWORD PTR $T85192[ebp], 0
	je	SHORT $LN35@createStan
	push	1
	mov	eax, DWORD PTR _status$[ebp]
	push	eax
	mov	ecx, DWORD PTR _loc$[ebp]
	push	ecx
	mov	ecx, DWORD PTR $T85192[ebp]
	call	??0IslamicCalendar@icu_56@@QAE@ABVLocale@1@AAW4UErrorCode@@W4ECalculationType@01@@Z ; icu_56::IslamicCalendar::IslamicCalendar
	mov	DWORD PTR tv189[ebp], eax
	jmp	SHORT $LN36@createStan
$LN35@createStan:
	mov	DWORD PTR tv189[ebp], 0
$LN36@createStan:
	mov	edx, DWORD PTR tv189[ebp]
	mov	DWORD PTR $T85191[ebp], edx
	mov	DWORD PTR __$EHRec$[ebp+8], -1
	mov	eax, DWORD PTR $T85191[ebp]
	mov	DWORD PTR _cal$[ebp], eax
; Line 354
	jmp	$LN19@createStan
$LN11@createStan:
; Line 358
	mov	esi, esp
	push	616					; 00000268H
	call	DWORD PTR __imp_??2UMemory@icu_56@@SAPAXI@Z
	add	esp, 4
	cmp	esi, esp
	call	__RTC_CheckEsp
	mov	DWORD PTR $T85196[ebp], eax
	mov	DWORD PTR __$EHRec$[ebp+8], 7
	cmp	DWORD PTR $T85196[ebp], 0
	je	SHORT $LN37@createStan
	push	0
	mov	eax, DWORD PTR _status$[ebp]
	push	eax
	mov	ecx, DWORD PTR _loc$[ebp]
	push	ecx
	mov	ecx, DWORD PTR $T85196[ebp]
	call	??0IslamicCalendar@icu_56@@QAE@ABVLocale@1@AAW4UErrorCode@@W4ECalculationType@01@@Z ; icu_56::IslamicCalendar::IslamicCalendar
	mov	DWORD PTR tv203[ebp], eax
	jmp	SHORT $LN38@createStan
$LN37@createStan:
	mov	DWORD PTR tv203[ebp], 0
$LN38@createStan:
	mov	edx, DWORD PTR tv203[ebp]
	mov	DWORD PTR $T85195[ebp], edx
	mov	DWORD PTR __$EHRec$[ebp+8], -1
	mov	eax, DWORD PTR $T85195[ebp]
	mov	DWORD PTR _cal$[ebp], eax
; Line 359
	jmp	$LN19@createStan
$LN10@createStan:
; Line 361
	mov	esi, esp
	push	616					; 00000268H
	call	DWORD PTR __imp_??2UMemory@icu_56@@SAPAXI@Z
	add	esp, 4
	cmp	esi, esp
	call	__RTC_CheckEsp
	mov	DWORD PTR $T85200[ebp], eax
	mov	DWORD PTR __$EHRec$[ebp+8], 8
	cmp	DWORD PTR $T85200[ebp], 0
	je	SHORT $LN39@createStan
	push	2
	mov	eax, DWORD PTR _status$[ebp]
	push	eax
	mov	ecx, DWORD PTR _loc$[ebp]
	push	ecx
	mov	ecx, DWORD PTR $T85200[ebp]
	call	??0IslamicCalendar@icu_56@@QAE@ABVLocale@1@AAW4UErrorCode@@W4ECalculationType@01@@Z ; icu_56::IslamicCalendar::IslamicCalendar
	mov	DWORD PTR tv217[ebp], eax
	jmp	SHORT $LN40@createStan
$LN39@createStan:
	mov	DWORD PTR tv217[ebp], 0
$LN40@createStan:
	mov	edx, DWORD PTR tv217[ebp]
	mov	DWORD PTR $T85199[ebp], edx
	mov	DWORD PTR __$EHRec$[ebp+8], -1
	mov	eax, DWORD PTR $T85199[ebp]
	mov	DWORD PTR _cal$[ebp], eax
; Line 362
	jmp	$LN19@createStan
$LN9@createStan:
; Line 364
	mov	esi, esp
	push	608					; 00000260H
	call	DWORD PTR __imp_??2UMemory@icu_56@@SAPAXI@Z
	add	esp, 4
	cmp	esi, esp
	call	__RTC_CheckEsp
	mov	DWORD PTR $T85204[ebp], eax
	mov	DWORD PTR __$EHRec$[ebp+8], 9
	cmp	DWORD PTR $T85204[ebp], 0
	je	SHORT $LN41@createStan
	mov	eax, DWORD PTR _status$[ebp]
	push	eax
	mov	ecx, DWORD PTR _loc$[ebp]
	push	ecx
	mov	ecx, DWORD PTR $T85204[ebp]
	call	??0HebrewCalendar@icu_56@@QAE@ABVLocale@1@AAW4UErrorCode@@@Z ; icu_56::HebrewCalendar::HebrewCalendar
	mov	DWORD PTR tv230[ebp], eax
	jmp	SHORT $LN42@createStan
$LN41@createStan:
	mov	DWORD PTR tv230[ebp], 0
$LN42@createStan:
	mov	edx, DWORD PTR tv230[ebp]
	mov	DWORD PTR $T85203[ebp], edx
	mov	DWORD PTR __$EHRec$[ebp+8], -1
	mov	eax, DWORD PTR $T85203[ebp]
	mov	DWORD PTR _cal$[ebp], eax
; Line 365
	jmp	$LN19@createStan
$LN8@createStan:
; Line 367
	mov	esi, esp
	push	624					; 00000270H
	call	DWORD PTR __imp_??2UMemory@icu_56@@SAPAXI@Z
	add	esp, 4
	cmp	esi, esp
	call	__RTC_CheckEsp
	mov	DWORD PTR $T85208[ebp], eax
	mov	DWORD PTR __$EHRec$[ebp+8], 10		; 0000000aH
	cmp	DWORD PTR $T85208[ebp], 0
	je	SHORT $LN43@createStan
	mov	eax, DWORD PTR _status$[ebp]
	push	eax
	mov	ecx, DWORD PTR _loc$[ebp]
	push	ecx
	mov	ecx, DWORD PTR $T85208[ebp]
	call	??0ChineseCalendar@icu_56@@QAE@ABVLocale@1@AAW4UErrorCode@@@Z ; icu_56::ChineseCalendar::ChineseCalendar
	mov	DWORD PTR tv243[ebp], eax
	jmp	SHORT $LN44@createStan
$LN43@createStan:
	mov	DWORD PTR tv243[ebp], 0
$LN44@createStan:
	mov	edx, DWORD PTR tv243[ebp]
	mov	DWORD PTR $T85207[ebp], edx
	mov	DWORD PTR __$EHRec$[ebp+8], -1
	mov	eax, DWORD PTR $T85207[ebp]
	mov	DWORD PTR _cal$[ebp], eax
; Line 368
	jmp	$LN19@createStan
$LN7@createStan:
; Line 370
	mov	esi, esp
	push	608					; 00000260H
	call	DWORD PTR __imp_??2UMemory@icu_56@@SAPAXI@Z
	add	esp, 4
	cmp	esi, esp
	call	__RTC_CheckEsp
	mov	DWORD PTR $T85212[ebp], eax
	mov	DWORD PTR __$EHRec$[ebp+8], 11		; 0000000bH
	cmp	DWORD PTR $T85212[ebp], 0
	je	SHORT $LN45@createStan
	mov	eax, DWORD PTR _status$[ebp]
	push	eax
	mov	ecx, DWORD PTR _loc$[ebp]
	push	ecx
	mov	ecx, DWORD PTR $T85212[ebp]
	call	??0IndianCalendar@icu_56@@QAE@ABVLocale@1@AAW4UErrorCode@@@Z ; icu_56::IndianCalendar::IndianCalendar
	mov	DWORD PTR tv256[ebp], eax
	jmp	SHORT $LN46@createStan
$LN45@createStan:
	mov	DWORD PTR tv256[ebp], 0
$LN46@createStan:
	mov	edx, DWORD PTR tv256[ebp]
	mov	DWORD PTR $T85211[ebp], edx
	mov	DWORD PTR __$EHRec$[ebp+8], -1
	mov	eax, DWORD PTR $T85211[ebp]
	mov	DWORD PTR _cal$[ebp], eax
; Line 371
	jmp	$LN19@createStan
$LN6@createStan:
; Line 373
	mov	esi, esp
	push	608					; 00000260H
	call	DWORD PTR __imp_??2UMemory@icu_56@@SAPAXI@Z
	add	esp, 4
	cmp	esi, esp
	call	__RTC_CheckEsp
	mov	DWORD PTR $T85216[ebp], eax
	mov	DWORD PTR __$EHRec$[ebp+8], 12		; 0000000cH
	cmp	DWORD PTR $T85216[ebp], 0
	je	SHORT $LN47@createStan
	mov	eax, DWORD PTR _status$[ebp]
	push	eax
	mov	ecx, DWORD PTR _loc$[ebp]
	push	ecx
	mov	ecx, DWORD PTR $T85216[ebp]
	call	??0CopticCalendar@icu_56@@QAE@ABVLocale@1@AAW4UErrorCode@@@Z ; icu_56::CopticCalendar::CopticCalendar
	mov	DWORD PTR tv269[ebp], eax
	jmp	SHORT $LN48@createStan
$LN47@createStan:
	mov	DWORD PTR tv269[ebp], 0
$LN48@createStan:
	mov	edx, DWORD PTR tv269[ebp]
	mov	DWORD PTR $T85215[ebp], edx
	mov	DWORD PTR __$EHRec$[ebp+8], -1
	mov	eax, DWORD PTR $T85215[ebp]
	mov	DWORD PTR _cal$[ebp], eax
; Line 374
	jmp	$LN19@createStan
$LN5@createStan:
; Line 376
	mov	esi, esp
	push	616					; 00000268H
	call	DWORD PTR __imp_??2UMemory@icu_56@@SAPAXI@Z
	add	esp, 4
	cmp	esi, esp
	call	__RTC_CheckEsp
	mov	DWORD PTR $T85220[ebp], eax
	mov	DWORD PTR __$EHRec$[ebp+8], 13		; 0000000dH
	cmp	DWORD PTR $T85220[ebp], 0
	je	SHORT $LN49@createStan
	push	0
	mov	eax, DWORD PTR _status$[ebp]
	push	eax
	mov	ecx, DWORD PTR _loc$[ebp]
	push	ecx
	mov	ecx, DWORD PTR $T85220[ebp]
	call	??0EthiopicCalendar@icu_56@@QAE@ABVLocale@1@AAW4UErrorCode@@W4EEraType@01@@Z ; icu_56::EthiopicCalendar::EthiopicCalendar
	mov	DWORD PTR tv283[ebp], eax
	jmp	SHORT $LN50@createStan
$LN49@createStan:
	mov	DWORD PTR tv283[ebp], 0
$LN50@createStan:
	mov	edx, DWORD PTR tv283[ebp]
	mov	DWORD PTR $T85219[ebp], edx
	mov	DWORD PTR __$EHRec$[ebp+8], -1
	mov	eax, DWORD PTR $T85219[ebp]
	mov	DWORD PTR _cal$[ebp], eax
; Line 377
	jmp	$LN19@createStan
$LN4@createStan:
; Line 379
	mov	esi, esp
	push	616					; 00000268H
	call	DWORD PTR __imp_??2UMemory@icu_56@@SAPAXI@Z
	add	esp, 4
	cmp	esi, esp
	call	__RTC_CheckEsp
	mov	DWORD PTR $T85224[ebp], eax
	mov	DWORD PTR __$EHRec$[ebp+8], 14		; 0000000eH
	cmp	DWORD PTR $T85224[ebp], 0
	je	SHORT $LN51@createStan
	push	1
	mov	eax, DWORD PTR _status$[ebp]
	push	eax
	mov	ecx, DWORD PTR _loc$[ebp]
	push	ecx
	mov	ecx, DWORD PTR $T85224[ebp]
	call	??0EthiopicCalendar@icu_56@@QAE@ABVLocale@1@AAW4UErrorCode@@W4EEraType@01@@Z ; icu_56::EthiopicCalendar::EthiopicCalendar
	mov	DWORD PTR tv329[ebp], eax
	jmp	SHORT $LN52@createStan
$LN51@createStan:
	mov	DWORD PTR tv329[ebp], 0
$LN52@createStan:
	mov	edx, DWORD PTR tv329[ebp]
	mov	DWORD PTR $T85223[ebp], edx
	mov	DWORD PTR __$EHRec$[ebp+8], -1
	mov	eax, DWORD PTR $T85223[ebp]
	mov	DWORD PTR _cal$[ebp], eax
; Line 380
	jmp	$LN19@createStan
$LN3@createStan:
; Line 382
	mov	esi, esp
	push	648					; 00000288H
	call	DWORD PTR __imp_??2UMemory@icu_56@@SAPAXI@Z
	add	esp, 4
	cmp	esi, esp
	call	__RTC_CheckEsp
	mov	DWORD PTR $T85228[ebp], eax
	mov	DWORD PTR __$EHRec$[ebp+8], 15		; 0000000fH
	cmp	DWORD PTR $T85228[ebp], 0
	je	SHORT $LN53@createStan
	mov	eax, DWORD PTR _status$[ebp]
	push	eax
	mov	ecx, DWORD PTR _loc$[ebp]
	push	ecx
	mov	ecx, DWORD PTR $T85228[ebp]
	call	??0GregorianCalendar@icu_56@@QAE@ABVLocale@1@AAW4UErrorCode@@@Z ; icu_56::GregorianCalendar::GregorianCalendar
	mov	DWORD PTR tv342[ebp], eax
	jmp	SHORT $LN54@createStan
$LN53@createStan:
	mov	DWORD PTR tv342[ebp], 0
$LN54@createStan:
	mov	edx, DWORD PTR tv342[ebp]
	mov	DWORD PTR $T85227[ebp], edx
	mov	DWORD PTR __$EHRec$[ebp+8], -1
	mov	eax, DWORD PTR $T85227[ebp]
	mov	DWORD PTR _cal$[ebp], eax
; Line 383
	push	2
	mov	ecx, DWORD PTR _cal$[ebp]
	call	?setFirstDayOfWeek@Calendar@icu_56@@QAEXW4UCalendarDaysOfWeek@@@Z ; icu_56::Calendar::setFirstDayOfWeek
; Line 384
	push	4
	mov	ecx, DWORD PTR _cal$[ebp]
	call	?setMinimalDaysInFirstWeek@Calendar@icu_56@@QAEXE@Z ; icu_56::Calendar::setMinimalDaysInFirstWeek
; Line 385
	jmp	SHORT $LN19@createStan
$LN2@createStan:
; Line 387
	mov	esi, esp
	push	624					; 00000270H
	call	DWORD PTR __imp_??2UMemory@icu_56@@SAPAXI@Z
	add	esp, 4
	cmp	esi, esp
	call	__RTC_CheckEsp
	mov	DWORD PTR $T85232[ebp], eax
	mov	DWORD PTR __$EHRec$[ebp+8], 16		; 00000010H
	cmp	DWORD PTR $T85232[ebp], 0
	je	SHORT $LN55@createStan
	mov	eax, DWORD PTR _status$[ebp]
	push	eax
	mov	ecx, DWORD PTR _loc$[ebp]
	push	ecx
	mov	ecx, DWORD PTR $T85232[ebp]
	call	??0DangiCalendar@icu_56@@QAE@ABVLocale@1@AAW4UErrorCode@@@Z ; icu_56::DangiCalendar::DangiCalendar
	mov	DWORD PTR tv359[ebp], eax
	jmp	SHORT $LN56@createStan
$LN55@createStan:
	mov	DWORD PTR tv359[ebp], 0
$LN56@createStan:
	mov	edx, DWORD PTR tv359[ebp]
	mov	DWORD PTR $T85231[ebp], edx
	mov	DWORD PTR __$EHRec$[ebp+8], -1
	mov	eax, DWORD PTR $T85231[ebp]
	mov	DWORD PTR _cal$[ebp], eax
; Line 388
	jmp	SHORT $LN19@createStan
$LN1@createStan:
; Line 390
	mov	eax, DWORD PTR _status$[ebp]
	mov	DWORD PTR [eax], 16			; 00000010H
$LN19@createStan:
; Line 392
	mov	eax, DWORD PTR _cal$[ebp]
; Line 393
	mov	ecx, DWORD PTR __$EHRec$[ebp]
	mov	DWORD PTR fs:0, ecx
	pop	ecx
	pop	edi
	pop	esi
	pop	ebx
	add	esp, 628				; 00000274H
	cmp	ebp, esp
	call	__RTC_CheckEsp
	mov	esp, ebp
	pop	ebp
	ret	0
	npad	1
$LN75@createStan:
	DD	$LN18@createStan
	DD	$LN17@createStan
	DD	$LN16@createStan
	DD	$LN15@createStan
	DD	$LN14@createStan
	DD	$LN12@createStan
	DD	$LN11@createStan
	DD	$LN9@createStan
	DD	$LN8@createStan
	DD	$LN7@createStan
	DD	$LN6@createStan
	DD	$LN5@createStan
	DD	$LN4@createStan
	DD	$LN3@createStan
	DD	$LN2@createStan
	DD	$LN10@createStan
	DD	$LN13@createStan
	DD	$LN11@createStan
_TEXT	ENDS
;	COMDAT text$x
text$x	SEGMENT
__unwindfunclet$?createStandardCalendar@icu_56@@YAPAVCalendar@1@W4ECalType@@ABVLocale@1@AAW4UErrorCode@@@Z$0:
	mov	esi, esp
	mov	eax, DWORD PTR $T85168[ebp]
	push	eax
	call	DWORD PTR __imp_??3UMemory@icu_56@@SAXPAX@Z
	add	esp, 4
	cmp	esi, esp
	jmp	__RTC_CheckEsp
__unwindfunclet$?createStandardCalendar@icu_56@@YAPAVCalendar@1@W4ECalType@@ABVLocale@1@AAW4UErrorCode@@@Z$1:
	mov	esi, esp
	mov	eax, DWORD PTR $T85172[ebp]
	push	eax
	call	DWORD PTR __imp_??3UMemory@icu_56@@SAXPAX@Z
	add	esp, 4
	cmp	esi, esp
	jmp	__RTC_CheckEsp
__unwindfunclet$?createStandardCalendar@icu_56@@YAPAVCalendar@1@W4ECalType@@ABVLocale@1@AAW4UErrorCode@@@Z$2:
	mov	esi, esp
	mov	eax, DWORD PTR $T85176[ebp]
	push	eax
	call	DWORD PTR __imp_??3UMemory@icu_56@@SAXPAX@Z
	add	esp, 4
	cmp	esi, esp
	jmp	__RTC_CheckEsp
__unwindfunclet$?createStandardCalendar@icu_56@@YAPAVCalendar@1@W4ECalType@@ABVLocale@1@AAW4UErrorCode@@@Z$3:
	mov	esi, esp
	mov	eax, DWORD PTR $T85180[ebp]
	push	eax
	call	DWORD PTR __imp_??3UMemory@icu_56@@SAXPAX@Z
	add	esp, 4
	cmp	esi, esp
	jmp	__RTC_CheckEsp
__unwindfunclet$?createStandardCalendar@icu_56@@YAPAVCalendar@1@W4ECalType@@ABVLocale@1@AAW4UErrorCode@@@Z$4:
	mov	esi, esp
	mov	eax, DWORD PTR $T85184[ebp]
	push	eax
	call	DWORD PTR __imp_??3UMemory@icu_56@@SAXPAX@Z
	add	esp, 4
	cmp	esi, esp
	jmp	__RTC_CheckEsp
__unwindfunclet$?createStandardCalendar@icu_56@@YAPAVCalendar@1@W4ECalType@@ABVLocale@1@AAW4UErrorCode@@@Z$5:
	mov	esi, esp
	mov	eax, DWORD PTR $T85188[ebp]
	push	eax
	call	DWORD PTR __imp_??3UMemory@icu_56@@SAXPAX@Z
	add	esp, 4
	cmp	esi, esp
	jmp	__RTC_CheckEsp
__unwindfunclet$?createStandardCalendar@icu_56@@YAPAVCalendar@1@W4ECalType@@ABVLocale@1@AAW4UErrorCode@@@Z$6:
	mov	esi, esp
	mov	eax, DWORD PTR $T85192[ebp]
	push	eax
	call	DWORD PTR __imp_??3UMemory@icu_56@@SAXPAX@Z
	add	esp, 4
	cmp	esi, esp
	jmp	__RTC_CheckEsp
__unwindfunclet$?createStandardCalendar@icu_56@@YAPAVCalendar@1@W4ECalType@@ABVLocale@1@AAW4UErrorCode@@@Z$7:
	mov	esi, esp
	mov	eax, DWORD PTR $T85196[ebp]
	push	eax
	call	DWORD PTR __imp_??3UMemory@icu_56@@SAXPAX@Z
	add	esp, 4
	cmp	esi, esp
	jmp	__RTC_CheckEsp
__unwindfunclet$?createStandardCalendar@icu_56@@YAPAVCalendar@1@W4ECalType@@ABVLocale@1@AAW4UErrorCode@@@Z$8:
	mov	esi, esp
	mov	eax, DWORD PTR $T85200[ebp]
	push	eax
	call	DWORD PTR __imp_??3UMemory@icu_56@@SAXPAX@Z
	add	esp, 4
	cmp	esi, esp
	jmp	__RTC_CheckEsp
__unwindfunclet$?createStandardCalendar@icu_56@@YAPAVCalendar@1@W4ECalType@@ABVLocale@1@AAW4UErrorCode@@@Z$9:
	mov	esi, esp
	mov	eax, DWORD PTR $T85204[ebp]
	push	eax
	call	DWORD PTR __imp_??3UMemory@icu_56@@SAXPAX@Z
	add	esp, 4
	cmp	esi, esp
	jmp	__RTC_CheckEsp
__unwindfunclet$?createStandardCalendar@icu_56@@YAPAVCalendar@1@W4ECalType@@ABVLocale@1@AAW4UErrorCode@@@Z$10:
	mov	esi, esp
	mov	eax, DWORD PTR $T85208[ebp]
	push	eax
	call	DWORD PTR __imp_??3UMemory@icu_56@@SAXPAX@Z
	add	esp, 4
	cmp	esi, esp
	jmp	__RTC_CheckEsp
__unwindfunclet$?createStandardCalendar@icu_56@@YAPAVCalendar@1@W4ECalType@@ABVLocale@1@AAW4UErrorCode@@@Z$11:
	mov	esi, esp
	mov	eax, DWORD PTR $T85212[ebp]
	push	eax
	call	DWORD PTR __imp_??3UMemory@icu_56@@SAXPAX@Z
	add	esp, 4
	cmp	esi, esp
	jmp	__RTC_CheckEsp
__unwindfunclet$?createStandardCalendar@icu_56@@YAPAVCalendar@1@W4ECalType@@ABVLocale@1@AAW4UErrorCode@@@Z$12:
	mov	esi, esp
	mov	eax, DWORD PTR $T85216[ebp]
	push	eax
	call	DWORD PTR __imp_??3UMemory@icu_56@@SAXPAX@Z
	add	esp, 4
	cmp	esi, esp
	jmp	__RTC_CheckEsp
__unwindfunclet$?createStandardCalendar@icu_56@@YAPAVCalendar@1@W4ECalType@@ABVLocale@1@AAW4UErrorCode@@@Z$13:
	mov	esi, esp
	mov	eax, DWORD PTR $T85220[ebp]
	push	eax
	call	DWORD PTR __imp_??3UMemory@icu_56@@SAXPAX@Z
	add	esp, 4
	cmp	esi, esp
	jmp	__RTC_CheckEsp
__unwindfunclet$?createStandardCalendar@icu_56@@YAPAVCalendar@1@W4ECalType@@ABVLocale@1@AAW4UErrorCode@@@Z$14:
	mov	esi, esp
	mov	eax, DWORD PTR $T85224[ebp]
	push	eax
	call	DWORD PTR __imp_??3UMemory@icu_56@@SAXPAX@Z
	add	esp, 4
	cmp	esi, esp
	jmp	__RTC_CheckEsp
__unwindfunclet$?createStandardCalendar@icu_56@@YAPAVCalendar@1@W4ECalType@@ABVLocale@1@AAW4UErrorCode@@@Z$15:
	mov	esi, esp
	mov	eax, DWORD PTR $T85228[ebp]
	push	eax
	call	DWORD PTR __imp_??3UMemory@icu_56@@SAXPAX@Z
	add	esp, 4
	cmp	esi, esp
	jmp	__RTC_CheckEsp
__unwindfunclet$?createStandardCalendar@icu_56@@YAPAVCalendar@1@W4ECalType@@ABVLocale@1@AAW4UErrorCode@@@Z$16:
	mov	esi, esp
	mov	eax, DWORD PTR $T85232[ebp]
	push	eax
	call	DWORD PTR __imp_??3UMemory@icu_56@@SAXPAX@Z
	add	esp, 4
	cmp	esi, esp
	jmp	__RTC_CheckEsp
__ehhandler$?createStandardCalendar@icu_56@@YAPAVCalendar@1@W4ECalType@@ABVLocale@1@AAW4UErrorCode@@@Z:
	mov	edx, DWORD PTR [esp+8]
	lea	eax, DWORD PTR [edx+12]
	mov	ecx, DWORD PTR [edx-632]
	xor	ecx, eax
	call	@__security_check_cookie@4
	mov	eax, OFFSET __ehfuncinfo$?createStandardCalendar@icu_56@@YAPAVCalendar@1@W4ECalType@@ABVLocale@1@AAW4UErrorCode@@@Z
	jmp	___CxxFrameHandler3
text$x	ENDS
?createStandardCalendar@icu_56@@YAPAVCalendar@1@W4ECalType@@ABVLocale@1@AAW4UErrorCode@@@Z ENDP ; icu_56::createStandardCalendar
; Function compile flags: /Odtp /RTCsu /ZI
;	COMDAT ??_GBasicCalendarFactory@icu_56@@UAEPAXI@Z
_TEXT	SEGMENT
_this$ = -8						; size = 4
___flags$ = 8						; size = 4
??_GBasicCalendarFactory@icu_56@@UAEPAXI@Z PROC		; icu_56::BasicCalendarFactory::`scalar deleting destructor', COMDAT
; _this$ = ecx
	push	ebp
	mov	ebp, esp
	sub	esp, 204				; 000000ccH
	push	ebx
	push	esi
	push	edi
	push	ecx
	lea	edi, DWORD PTR [ebp-204]
	mov	ecx, 51					; 00000033H
	mov	eax, -858993460				; ccccccccH
	rep stosd
	pop	ecx
	mov	DWORD PTR _this$[ebp], ecx
	mov	ecx, DWORD PTR _this$[ebp]
	call	??1BasicCalendarFactory@icu_56@@UAE@XZ	; icu_56::BasicCalendarFactory::~BasicCalendarFactory
	mov	eax, DWORD PTR ___flags$[ebp]
	and	eax, 1
	je	SHORT $LN1@scalar@3
	mov	esi, esp
	mov	eax, DWORD PTR _this$[ebp]
	push	eax
	call	DWORD PTR __imp_??3UMemory@icu_56@@SAXPAX@Z
	add	esp, 4
	cmp	esi, esp
	call	__RTC_CheckEsp
$LN1@scalar@3:
	mov	eax, DWORD PTR _this$[ebp]
	pop	edi
	pop	esi
	pop	ebx
	add	esp, 204				; 000000ccH
	cmp	ebp, esp
	call	__RTC_CheckEsp
	mov	esp, ebp
	pop	ebp
	ret	4
??_GBasicCalendarFactory@icu_56@@UAEPAXI@Z ENDP		; icu_56::BasicCalendarFactory::`scalar deleting destructor'
_TEXT	ENDS
PUBLIC	??_7DefaultCalendarFactory@icu_56@@6B@		; icu_56::DefaultCalendarFactory::`vftable'
PUBLIC	??1DefaultCalendarFactory@icu_56@@UAE@XZ	; icu_56::DefaultCalendarFactory::~DefaultCalendarFactory
PUBLIC	??_R4DefaultCalendarFactory@icu_56@@6B@		; icu_56::DefaultCalendarFactory::`RTTI Complete Object Locator'
PUBLIC	??_R0?AVDefaultCalendarFactory@icu_56@@@8	; icu_56::DefaultCalendarFactory `RTTI Type Descriptor'
PUBLIC	??_R3DefaultCalendarFactory@icu_56@@8		; icu_56::DefaultCalendarFactory::`RTTI Class Hierarchy Descriptor'
PUBLIC	??_R2DefaultCalendarFactory@icu_56@@8		; icu_56::DefaultCalendarFactory::`RTTI Base Class Array'
PUBLIC	??_R1A@?0A@EA@DefaultCalendarFactory@icu_56@@8	; icu_56::DefaultCalendarFactory::`RTTI Base Class Descriptor at (0,-1,0,64)'
PUBLIC	??_R1A@?0A@EA@ICUResourceBundleFactory@icu_56@@8 ; icu_56::ICUResourceBundleFactory::`RTTI Base Class Descriptor at (0,-1,0,64)'
PUBLIC	??_R0?AVICUResourceBundleFactory@icu_56@@@8	; icu_56::ICUResourceBundleFactory `RTTI Type Descriptor'
PUBLIC	??_R3ICUResourceBundleFactory@icu_56@@8		; icu_56::ICUResourceBundleFactory::`RTTI Class Hierarchy Descriptor'
PUBLIC	??_R2ICUResourceBundleFactory@icu_56@@8		; icu_56::ICUResourceBundleFactory::`RTTI Base Class Array'
PUBLIC	?create@DefaultCalendarFactory@icu_56@@MBEPAVUObject@2@ABVICUServiceKey@2@PBVICUService@2@AAW4UErrorCode@@@Z ; icu_56::DefaultCalendarFactory::create
EXTRN	__imp_??1ICUResourceBundleFactory@icu_56@@UAE@XZ:PROC
EXTRN	??_EDefaultCalendarFactory@icu_56@@UAEPAXI@Z:PROC ; icu_56::DefaultCalendarFactory::`vector deleting destructor'
EXTRN	?getDynamicClassID@ICUResourceBundleFactory@icu_56@@UBEPAXXZ:PROC ; icu_56::ICUResourceBundleFactory::getDynamicClassID
EXTRN	?updateVisibleIDs@LocaleKeyFactory@icu_56@@UBEXAAVHashtable@2@AAW4UErrorCode@@@Z:PROC ; icu_56::LocaleKeyFactory::updateVisibleIDs
EXTRN	?handleCreate@ICUResourceBundleFactory@icu_56@@MBEPAVUObject@2@ABVLocale@2@HPBVICUService@2@AAW4UErrorCode@@@Z:PROC ; icu_56::ICUResourceBundleFactory::handleCreate
EXTRN	?getSupportedIDs@ICUResourceBundleFactory@icu_56@@MBEPBVHashtable@2@AAW4UErrorCode@@@Z:PROC ; icu_56::ICUResourceBundleFactory::getSupportedIDs
;	COMDAT ??_R2ICUResourceBundleFactory@icu_56@@8
rdata$r	SEGMENT
??_R2ICUResourceBundleFactory@icu_56@@8 DD FLAT:??_R1A@?0A@EA@ICUResourceBundleFactory@icu_56@@8 ; icu_56::ICUResourceBundleFactory::`RTTI Base Class Array'
	DD	FLAT:??_R1A@?0A@EA@LocaleKeyFactory@icu_56@@8
	DD	FLAT:??_R1A@?0A@EA@ICUServiceFactory@icu_56@@8
	DD	FLAT:??_R1A@?0A@EA@UObject@icu_56@@8
	DD	FLAT:??_R13?0A@EA@UMemory@icu_56@@8
rdata$r	ENDS
;	COMDAT ??_R3ICUResourceBundleFactory@icu_56@@8
rdata$r	SEGMENT
??_R3ICUResourceBundleFactory@icu_56@@8 DD 00H		; icu_56::ICUResourceBundleFactory::`RTTI Class Hierarchy Descriptor'
	DD	00H
	DD	05H
	DD	FLAT:??_R2ICUResourceBundleFactory@icu_56@@8
rdata$r	ENDS
;	COMDAT ??_R0?AVICUResourceBundleFactory@icu_56@@@8
_DATA	SEGMENT
??_R0?AVICUResourceBundleFactory@icu_56@@@8 DD FLAT:??_7type_info@@6B@ ; icu_56::ICUResourceBundleFactory `RTTI Type Descriptor'
	DD	00H
	DB	'.?AVICUResourceBundleFactory@icu_56@@', 00H
_DATA	ENDS
;	COMDAT ??_R1A@?0A@EA@ICUResourceBundleFactory@icu_56@@8
rdata$r	SEGMENT
??_R1A@?0A@EA@ICUResourceBundleFactory@icu_56@@8 DD FLAT:??_R0?AVICUResourceBundleFactory@icu_56@@@8 ; icu_56::ICUResourceBundleFactory::`RTTI Base Class Descriptor at (0,-1,0,64)'
	DD	04H
	DD	00H
	DD	0ffffffffH
	DD	00H
	DD	040H
	DD	FLAT:??_R3ICUResourceBundleFactory@icu_56@@8
rdata$r	ENDS
;	COMDAT ??_R1A@?0A@EA@DefaultCalendarFactory@icu_56@@8
rdata$r	SEGMENT
??_R1A@?0A@EA@DefaultCalendarFactory@icu_56@@8 DD FLAT:??_R0?AVDefaultCalendarFactory@icu_56@@@8 ; icu_56::DefaultCalendarFactory::`RTTI Base Class Descriptor at (0,-1,0,64)'
	DD	05H
	DD	00H
	DD	0ffffffffH
	DD	00H
	DD	040H
	DD	FLAT:??_R3DefaultCalendarFactory@icu_56@@8
rdata$r	ENDS
;	COMDAT ??_R2DefaultCalendarFactory@icu_56@@8
rdata$r	SEGMENT
??_R2DefaultCalendarFactory@icu_56@@8 DD FLAT:??_R1A@?0A@EA@DefaultCalendarFactory@icu_56@@8 ; icu_56::DefaultCalendarFactory::`RTTI Base Class Array'
	DD	FLAT:??_R1A@?0A@EA@ICUResourceBundleFactory@icu_56@@8
	DD	FLAT:??_R1A@?0A@EA@LocaleKeyFactory@icu_56@@8
	DD	FLAT:??_R1A@?0A@EA@ICUServiceFactory@icu_56@@8
	DD	FLAT:??_R1A@?0A@EA@UObject@icu_56@@8
	DD	FLAT:??_R13?0A@EA@UMemory@icu_56@@8
rdata$r	ENDS
;	COMDAT ??_R3DefaultCalendarFactory@icu_56@@8
rdata$r	SEGMENT
??_R3DefaultCalendarFactory@icu_56@@8 DD 00H		; icu_56::DefaultCalendarFactory::`RTTI Class Hierarchy Descriptor'
	DD	00H
	DD	06H
	DD	FLAT:??_R2DefaultCalendarFactory@icu_56@@8
rdata$r	ENDS
;	COMDAT ??_R0?AVDefaultCalendarFactory@icu_56@@@8
_DATA	SEGMENT
??_R0?AVDefaultCalendarFactory@icu_56@@@8 DD FLAT:??_7type_info@@6B@ ; icu_56::DefaultCalendarFactory `RTTI Type Descriptor'
	DD	00H
	DB	'.?AVDefaultCalendarFactory@icu_56@@', 00H
_DATA	ENDS
;	COMDAT ??_R4DefaultCalendarFactory@icu_56@@6B@
rdata$r	SEGMENT
??_R4DefaultCalendarFactory@icu_56@@6B@ DD 00H		; icu_56::DefaultCalendarFactory::`RTTI Complete Object Locator'
	DD	00H
	DD	00H
	DD	FLAT:??_R0?AVDefaultCalendarFactory@icu_56@@@8
	DD	FLAT:??_R3DefaultCalendarFactory@icu_56@@8
rdata$r	ENDS
;	COMDAT ??_7DefaultCalendarFactory@icu_56@@6B@
CONST	SEGMENT
??_7DefaultCalendarFactory@icu_56@@6B@ DD FLAT:??_R4DefaultCalendarFactory@icu_56@@6B@ ; icu_56::DefaultCalendarFactory::`vftable'
	DD	FLAT:??_EDefaultCalendarFactory@icu_56@@UAEPAXI@Z
	DD	FLAT:?getDynamicClassID@ICUResourceBundleFactory@icu_56@@UBEPAXXZ
	DD	FLAT:?create@DefaultCalendarFactory@icu_56@@MBEPAVUObject@2@ABVICUServiceKey@2@PBVICUService@2@AAW4UErrorCode@@@Z
	DD	FLAT:?updateVisibleIDs@LocaleKeyFactory@icu_56@@UBEXAAVHashtable@2@AAW4UErrorCode@@@Z
	DD	FLAT:?getDisplayName@LocaleKeyFactory@icu_56@@UBEAAVUnicodeString@2@ABV32@ABVLocale@2@AAV32@@Z
	DD	FLAT:?handlesKey@LocaleKeyFactory@icu_56@@MBECABVICUServiceKey@2@AAW4UErrorCode@@@Z
	DD	FLAT:?handleCreate@ICUResourceBundleFactory@icu_56@@MBEPAVUObject@2@ABVLocale@2@HPBVICUService@2@AAW4UErrorCode@@@Z
	DD	FLAT:?getSupportedIDs@ICUResourceBundleFactory@icu_56@@MBEPBVHashtable@2@AAW4UErrorCode@@@Z
; Function compile flags: /Odtp /RTCsu /ZI
CONST	ENDS
;	COMDAT ??1DefaultCalendarFactory@icu_56@@UAE@XZ
_TEXT	SEGMENT
_this$ = -8						; size = 4
??1DefaultCalendarFactory@icu_56@@UAE@XZ PROC		; icu_56::DefaultCalendarFactory::~DefaultCalendarFactory, COMDAT
; _this$ = ecx
; Line 500
	push	ebp
	mov	ebp, esp
	sub	esp, 204				; 000000ccH
	push	ebx
	push	esi
	push	edi
	push	ecx
	lea	edi, DWORD PTR [ebp-204]
	mov	ecx, 51					; 00000033H
	mov	eax, -858993460				; ccccccccH
	rep stosd
	pop	ecx
	mov	DWORD PTR _this$[ebp], ecx
	mov	eax, DWORD PTR _this$[ebp]
	mov	DWORD PTR [eax], OFFSET ??_7DefaultCalendarFactory@icu_56@@6B@
	mov	esi, esp
	mov	ecx, DWORD PTR _this$[ebp]
	call	DWORD PTR __imp_??1ICUResourceBundleFactory@icu_56@@UAE@XZ
	cmp	esi, esp
	call	__RTC_CheckEsp
	pop	edi
	pop	esi
	pop	ebx
	add	esp, 204				; 000000ccH
	cmp	ebp, esp
	call	__RTC_CheckEsp
	mov	esp, ebp
	pop	ebp
	ret	0
??1DefaultCalendarFactory@icu_56@@UAE@XZ ENDP		; icu_56::DefaultCalendarFactory::~DefaultCalendarFactory
_TEXT	ENDS
PUBLIC	??_SUnicodeString@icu_56@@6B@			; icu_56::UnicodeString::`local vftable'
PUBLIC	__$ArrayPad$
PUBLIC	??_R4UnicodeString@icu_56@@6B@			; icu_56::UnicodeString::`RTTI Complete Object Locator'
PUBLIC	??_R0?AVUnicodeString@icu_56@@@8		; icu_56::UnicodeString `RTTI Type Descriptor'
PUBLIC	??_R3UnicodeString@icu_56@@8			; icu_56::UnicodeString::`RTTI Class Hierarchy Descriptor'
PUBLIC	??_R2UnicodeString@icu_56@@8			; icu_56::UnicodeString::`RTTI Base Class Array'
PUBLIC	??_R1A@?0A@EA@UnicodeString@icu_56@@8		; icu_56::UnicodeString::`RTTI Base Class Descriptor at (0,-1,0,64)'
PUBLIC	??_R1A@?0A@EA@Replaceable@icu_56@@8		; icu_56::Replaceable::`RTTI Base Class Descriptor at (0,-1,0,64)'
PUBLIC	??_R0?AVReplaceable@icu_56@@@8			; icu_56::Replaceable `RTTI Type Descriptor'
PUBLIC	??_R3Replaceable@icu_56@@8			; icu_56::Replaceable::`RTTI Class Hierarchy Descriptor'
PUBLIC	??_R2Replaceable@icu_56@@8			; icu_56::Replaceable::`RTTI Base Class Array'
EXTRN	__imp_?getName@Locale@icu_56@@QBEPBDXZ:PROC
EXTRN	__imp_?append@UnicodeString@icu_56@@QAEAAV12@_W@Z:PROC
EXTRN	??_EUnicodeString@icu_56@@UAEPAXI@Z:PROC	; icu_56::UnicodeString::`vector deleting destructor'
EXTRN	?getDynamicClassID@UnicodeString@icu_56@@UBEPAXXZ:PROC ; icu_56::UnicodeString::getDynamicClassID
EXTRN	?extractBetween@UnicodeString@icu_56@@UBEXHHAAV12@@Z:PROC ; icu_56::UnicodeString::extractBetween
EXTRN	?handleReplaceBetween@UnicodeString@icu_56@@UAEXHHABV12@@Z:PROC ; icu_56::UnicodeString::handleReplaceBetween
EXTRN	?copy@UnicodeString@icu_56@@UAEXHHH@Z:PROC	; icu_56::UnicodeString::copy
EXTRN	?hasMetaData@UnicodeString@icu_56@@UBECXZ:PROC	; icu_56::UnicodeString::hasMetaData
EXTRN	?clone@UnicodeString@icu_56@@UBEPAVReplaceable@2@XZ:PROC ; icu_56::UnicodeString::clone
EXTRN	?getLength@UnicodeString@icu_56@@MBEHXZ:PROC	; icu_56::UnicodeString::getLength
EXTRN	?getCharAt@UnicodeString@icu_56@@MBE_WH@Z:PROC	; icu_56::UnicodeString::getCharAt
EXTRN	?getChar32At@UnicodeString@icu_56@@MBEHH@Z:PROC	; icu_56::UnicodeString::getChar32At
;	COMDAT ??_R2Replaceable@icu_56@@8
rdata$r	SEGMENT
??_R2Replaceable@icu_56@@8 DD FLAT:??_R1A@?0A@EA@Replaceable@icu_56@@8 ; icu_56::Replaceable::`RTTI Base Class Array'
	DD	FLAT:??_R1A@?0A@EA@UObject@icu_56@@8
	DD	FLAT:??_R13?0A@EA@UMemory@icu_56@@8
rdata$r	ENDS
;	COMDAT ??_R3Replaceable@icu_56@@8
rdata$r	SEGMENT
??_R3Replaceable@icu_56@@8 DD 00H			; icu_56::Replaceable::`RTTI Class Hierarchy Descriptor'
	DD	00H
	DD	03H
	DD	FLAT:??_R2Replaceable@icu_56@@8
rdata$r	ENDS
;	COMDAT ??_R0?AVReplaceable@icu_56@@@8
_DATA	SEGMENT
??_R0?AVReplaceable@icu_56@@@8 DD FLAT:??_7type_info@@6B@ ; icu_56::Replaceable `RTTI Type Descriptor'
	DD	00H
	DB	'.?AVReplaceable@icu_56@@', 00H
_DATA	ENDS
;	COMDAT ??_R1A@?0A@EA@Replaceable@icu_56@@8
rdata$r	SEGMENT
??_R1A@?0A@EA@Replaceable@icu_56@@8 DD FLAT:??_R0?AVReplaceable@icu_56@@@8 ; icu_56::Replaceable::`RTTI Base Class Descriptor at (0,-1,0,64)'
	DD	02H
	DD	00H
	DD	0ffffffffH
	DD	00H
	DD	040H
	DD	FLAT:??_R3Replaceable@icu_56@@8
rdata$r	ENDS
;	COMDAT ??_R1A@?0A@EA@UnicodeString@icu_56@@8
rdata$r	SEGMENT
??_R1A@?0A@EA@UnicodeString@icu_56@@8 DD FLAT:??_R0?AVUnicodeString@icu_56@@@8 ; icu_56::UnicodeString::`RTTI Base Class Descriptor at (0,-1,0,64)'
	DD	03H
	DD	00H
	DD	0ffffffffH
	DD	00H
	DD	040H
	DD	FLAT:??_R3UnicodeString@icu_56@@8
rdata$r	ENDS
;	COMDAT ??_R2UnicodeString@icu_56@@8
rdata$r	SEGMENT
??_R2UnicodeString@icu_56@@8 DD FLAT:??_R1A@?0A@EA@UnicodeString@icu_56@@8 ; icu_56::UnicodeString::`RTTI Base Class Array'
	DD	FLAT:??_R1A@?0A@EA@Replaceable@icu_56@@8
	DD	FLAT:??_R1A@?0A@EA@UObject@icu_56@@8
	DD	FLAT:??_R13?0A@EA@UMemory@icu_56@@8
rdata$r	ENDS
;	COMDAT ??_R3UnicodeString@icu_56@@8
rdata$r	SEGMENT
??_R3UnicodeString@icu_56@@8 DD 00H			; icu_56::UnicodeString::`RTTI Class Hierarchy Descriptor'
	DD	00H
	DD	04H
	DD	FLAT:??_R2UnicodeString@icu_56@@8
rdata$r	ENDS
;	COMDAT ??_R0?AVUnicodeString@icu_56@@@8
_DATA	SEGMENT
??_R0?AVUnicodeString@icu_56@@@8 DD FLAT:??_7type_info@@6B@ ; icu_56::UnicodeString `RTTI Type Descriptor'
	DD	00H
	DB	'.?AVUnicodeString@icu_56@@', 00H
_DATA	ENDS
;	COMDAT ??_R4UnicodeString@icu_56@@6B@
rdata$r	SEGMENT
??_R4UnicodeString@icu_56@@6B@ DD 00H			; icu_56::UnicodeString::`RTTI Complete Object Locator'
	DD	00H
	DD	00H
	DD	FLAT:??_R0?AVUnicodeString@icu_56@@@8
	DD	FLAT:??_R3UnicodeString@icu_56@@8
rdata$r	ENDS
;	COMDAT ??_SUnicodeString@icu_56@@6B@
CONST	SEGMENT
??_SUnicodeString@icu_56@@6B@ DD FLAT:??_R4UnicodeString@icu_56@@6B@ ; icu_56::UnicodeString::`local vftable'
	DD	FLAT:??_EUnicodeString@icu_56@@UAEPAXI@Z
	DD	FLAT:?getDynamicClassID@UnicodeString@icu_56@@UBEPAXXZ
	DD	FLAT:?extractBetween@UnicodeString@icu_56@@UBEXHHAAV12@@Z
	DD	FLAT:?handleReplaceBetween@UnicodeString@icu_56@@UAEXHHABV12@@Z
	DD	FLAT:?copy@UnicodeString@icu_56@@UAEXHHH@Z
	DD	FLAT:?hasMetaData@UnicodeString@icu_56@@UBECXZ
	DD	FLAT:?clone@UnicodeString@icu_56@@UBEPAVReplaceable@2@XZ
	DD	FLAT:?getLength@UnicodeString@icu_56@@MBEHXZ
	DD	FLAT:?getCharAt@UnicodeString@icu_56@@MBE_WH@Z
	DD	FLAT:?getChar32At@UnicodeString@icu_56@@MBEHH@Z
CONST	ENDS
;	COMDAT xdata$x
xdata$x	SEGMENT
__unwindtable$?create@DefaultCalendarFactory@icu_56@@MBEPAVUObject@2@ABVICUServiceKey@2@PBVICUService@2@AAW4UErrorCode@@@Z DD 0ffffffffH
	DD	FLAT:__unwindfunclet$?create@DefaultCalendarFactory@icu_56@@MBEPAVUObject@2@ABVICUServiceKey@2@PBVICUService@2@AAW4UErrorCode@@@Z$0
	DD	00H
	DD	FLAT:__unwindfunclet$?create@DefaultCalendarFactory@icu_56@@MBEPAVUObject@2@ABVICUServiceKey@2@PBVICUService@2@AAW4UErrorCode@@@Z$1
	DD	00H
	DD	FLAT:__unwindfunclet$?create@DefaultCalendarFactory@icu_56@@MBEPAVUObject@2@ABVICUServiceKey@2@PBVICUService@2@AAW4UErrorCode@@@Z$2
	DD	00H
	DD	FLAT:__unwindfunclet$?create@DefaultCalendarFactory@icu_56@@MBEPAVUObject@2@ABVICUServiceKey@2@PBVICUService@2@AAW4UErrorCode@@@Z$3
__ehfuncinfo$?create@DefaultCalendarFactory@icu_56@@MBEPAVUObject@2@ABVICUServiceKey@2@PBVICUService@2@AAW4UErrorCode@@@Z DD 019930522H
	DD	04H
	DD	FLAT:__unwindtable$?create@DefaultCalendarFactory@icu_56@@MBEPAVUObject@2@ABVICUServiceKey@2@PBVICUService@2@AAW4UErrorCode@@@Z
	DD	2 DUP(00H)
	DD	2 DUP(00H)
	DD	00H
	DD	01H
; Function compile flags: /Odtp /RTCsu /ZI
xdata$x	ENDS
;	COMDAT ?create@DefaultCalendarFactory@icu_56@@MBEPAVUObject@2@ABVICUServiceKey@2@PBVICUService@2@AAW4UErrorCode@@@Z
_TEXT	SEGMENT
tv149 = -644						; size = 4
tv147 = -644						; size = 4
tv158 = -640						; size = 4
tv155 = -640						; size = 4
tv81 = -640						; size = 4
$T85267 = -632						; size = 4
$T85268 = -620						; size = 4
$T85271 = -608						; size = 4
$T76103 = -596						; size = 64
$T76104 = -524						; size = 64
_ret$ = -260						; size = 4
_loc$ = -248						; size = 204
_lkey$ = -36						; size = 4
_this$ = -24						; size = 4
__$ArrayPad$ = -16					; size = 4
__$EHRec$ = -12						; size = 12
_key$ = 8						; size = 4
___formal$ = 12						; size = 4
_status$ = 16						; size = 4
?create@DefaultCalendarFactory@icu_56@@MBEPAVUObject@2@ABVICUServiceKey@2@PBVICUService@2@AAW4UErrorCode@@@Z PROC ; icu_56::DefaultCalendarFactory::create, COMDAT
; _this$ = ecx
; Line 482
	push	ebp
	mov	ebp, esp
	push	-1
	push	__ehhandler$?create@DefaultCalendarFactory@icu_56@@MBEPAVUObject@2@ABVICUServiceKey@2@PBVICUService@2@AAW4UErrorCode@@@Z
	mov	eax, DWORD PTR fs:0
	push	eax
	sub	esp, 632				; 00000278H
	push	ebx
	push	esi
	push	edi
	push	ecx
	lea	edi, DWORD PTR [ebp-644]
	mov	ecx, 158				; 0000009eH
	mov	eax, -858993460				; ccccccccH
	rep stosd
	pop	ecx
	mov	eax, DWORD PTR ___security_cookie
	xor	eax, ebp
	mov	DWORD PTR __$ArrayPad$[ebp], eax
	push	eax
	lea	eax, DWORD PTR __$EHRec$[ebp]
	mov	DWORD PTR fs:0, eax
	mov	DWORD PTR _this$[ebp], ecx
; Line 484
	mov	eax, DWORD PTR _key$[ebp]
	mov	DWORD PTR _lkey$[ebp], eax
; Line 485
	mov	esi, esp
	lea	ecx, DWORD PTR _loc$[ebp]
	call	DWORD PTR __imp_??0Locale@icu_56@@QAE@XZ
	cmp	esi, esp
	call	__RTC_CheckEsp
	mov	DWORD PTR __$EHRec$[ebp+8], 0
; Line 486
	mov	esi, esp
	lea	eax, DWORD PTR _loc$[ebp]
	push	eax
	mov	ecx, DWORD PTR _lkey$[ebp]
	mov	edx, DWORD PTR [ecx]
	mov	ecx, DWORD PTR _lkey$[ebp]
	mov	eax, DWORD PTR [edx+44]
	call	eax
	cmp	esi, esp
	call	__RTC_CheckEsp
; Line 488
	mov	esi, esp
	push	64					; 00000040H
	call	DWORD PTR __imp_??2UMemory@icu_56@@SAPAXI@Z
	add	esp, 4
	cmp	esi, esp
	call	__RTC_CheckEsp
	mov	DWORD PTR $T85268[ebp], eax
	mov	BYTE PTR __$EHRec$[ebp+8], 1
	cmp	DWORD PTR $T85268[ebp], 0
	je	SHORT $LN5@create@2
	mov	esi, esp
	mov	ecx, DWORD PTR $T85268[ebp]
	call	DWORD PTR __imp_??0UnicodeString@icu_56@@QAE@XZ
	cmp	esi, esp
	call	__RTC_CheckEsp
	mov	eax, DWORD PTR $T85268[ebp]
	mov	DWORD PTR [eax], OFFSET ??_SUnicodeString@icu_56@@6B@
	mov	ecx, DWORD PTR $T85268[ebp]
	mov	DWORD PTR tv81[ebp], ecx
	jmp	SHORT $LN6@create@2
$LN5@create@2:
	mov	DWORD PTR tv81[ebp], 0
$LN6@create@2:
	mov	edx, DWORD PTR tv81[ebp]
	mov	DWORD PTR $T85267[ebp], edx
	mov	BYTE PTR __$EHRec$[ebp+8], 0
	mov	eax, DWORD PTR $T85267[ebp]
	mov	DWORD PTR _ret$[ebp], eax
; Line 489
	cmp	DWORD PTR _ret$[ebp], 0
	jne	SHORT $LN2@create@2
; Line 490
	mov	eax, DWORD PTR _status$[ebp]
	mov	DWORD PTR [eax], 7
; Line 491
	jmp	$LN1@create@2
$LN2@create@2:
; Line 492
	mov	esi, esp
	push	64					; 00000040H
	mov	ecx, DWORD PTR _ret$[ebp]
	call	DWORD PTR __imp_?append@UnicodeString@icu_56@@QAEAAV12@_W@Z
	cmp	esi, esp
	call	__RTC_CheckEsp
; Line 493
	mov	esi, esp
	push	9
	push	OFFSET ??_C@_1BE@KPIGCPJA@?$AAc?$AAa?$AAl?$AAe?$AAn?$AAd?$AAa?$AAr?$AA?$DN?$AA?$AA@
	push	1
	lea	ecx, DWORD PTR $T76103[ebp]
	call	DWORD PTR __imp_??0UnicodeString@icu_56@@QAE@CPB_WH@Z
	cmp	esi, esp
	call	__RTC_CheckEsp
	mov	DWORD PTR tv155[ebp], eax
	mov	eax, DWORD PTR tv155[ebp]
	mov	DWORD PTR tv147[ebp], eax
	mov	BYTE PTR __$EHRec$[ebp+8], 2
	mov	esi, esp
	mov	ecx, DWORD PTR tv147[ebp]
	push	ecx
	mov	ecx, DWORD PTR _ret$[ebp]
	call	DWORD PTR __imp_?append@UnicodeString@icu_56@@QAEAAV12@ABV12@@Z
	cmp	esi, esp
	call	__RTC_CheckEsp
	mov	BYTE PTR __$EHRec$[ebp+8], 0
	mov	esi, esp
	lea	ecx, DWORD PTR $T76103[ebp]
	call	DWORD PTR __imp_??1UnicodeString@icu_56@@UAE@XZ
	cmp	esi, esp
	call	__RTC_CheckEsp
; Line 494
	mov	esi, esp
	push	0
	push	-1
	mov	edi, esp
	lea	ecx, DWORD PTR _loc$[ebp]
	call	DWORD PTR __imp_?getName@Locale@icu_56@@QBEPBDXZ
	cmp	edi, esp
	call	__RTC_CheckEsp
	push	eax
	call	?getCalendarTypeForLocale@icu_56@@YA?AW4ECalType@@PBD@Z ; icu_56::getCalendarTypeForLocale
	add	esp, 4
	mov	eax, DWORD PTR _gCalTypes[eax*4]
	push	eax
	lea	ecx, DWORD PTR $T76104[ebp]
	call	DWORD PTR __imp_??0UnicodeString@icu_56@@QAE@PBDHW4EInvariant@01@@Z
	cmp	esi, esp
	call	__RTC_CheckEsp
	mov	DWORD PTR tv158[ebp], eax
	mov	ecx, DWORD PTR tv158[ebp]
	mov	DWORD PTR tv149[ebp], ecx
	mov	BYTE PTR __$EHRec$[ebp+8], 3
	mov	esi, esp
	mov	edx, DWORD PTR tv149[ebp]
	push	edx
	mov	ecx, DWORD PTR _ret$[ebp]
	call	DWORD PTR __imp_?append@UnicodeString@icu_56@@QAEAAV12@ABV12@@Z
	cmp	esi, esp
	call	__RTC_CheckEsp
	mov	BYTE PTR __$EHRec$[ebp+8], 0
	mov	esi, esp
	lea	ecx, DWORD PTR $T76104[ebp]
	call	DWORD PTR __imp_??1UnicodeString@icu_56@@UAE@XZ
	cmp	esi, esp
	call	__RTC_CheckEsp
$LN1@create@2:
; Line 496
	mov	eax, DWORD PTR _ret$[ebp]
	mov	DWORD PTR $T85271[ebp], eax
	mov	DWORD PTR __$EHRec$[ebp+8], -1
	mov	esi, esp
	lea	ecx, DWORD PTR _loc$[ebp]
	call	DWORD PTR __imp_??1Locale@icu_56@@UAE@XZ
	cmp	esi, esp
	call	__RTC_CheckEsp
	mov	eax, DWORD PTR $T85271[ebp]
; Line 497
	push	edx
	mov	ecx, ebp
	push	eax
	lea	edx, DWORD PTR $LN14@create@2
	call	@_RTC_CheckStackVars@8
	pop	eax
	pop	edx
	mov	ecx, DWORD PTR __$EHRec$[ebp]
	mov	DWORD PTR fs:0, ecx
	pop	ecx
	pop	edi
	pop	esi
	pop	ebx
	mov	ecx, DWORD PTR __$ArrayPad$[ebp]
	xor	ecx, ebp
	call	@__security_check_cookie@4
	add	esp, 644				; 00000284H
	cmp	ebp, esp
	call	__RTC_CheckEsp
	mov	esp, ebp
	pop	ebp
	ret	12					; 0000000cH
	npad	1
$LN14@create@2:
	DD	1
	DD	$LN13@create@2
$LN13@create@2:
	DD	-248					; ffffff08H
	DD	204					; 000000ccH
	DD	$LN11@create@2
$LN11@create@2:
	DB	108					; 0000006cH
	DB	111					; 0000006fH
	DB	99					; 00000063H
	DB	0
_TEXT	ENDS
;	COMDAT text$x
text$x	SEGMENT
__unwindfunclet$?create@DefaultCalendarFactory@icu_56@@MBEPAVUObject@2@ABVICUServiceKey@2@PBVICUService@2@AAW4UErrorCode@@@Z$0:
	mov	esi, esp
	lea	ecx, DWORD PTR _loc$[ebp]
	call	DWORD PTR __imp_??1Locale@icu_56@@UAE@XZ
	cmp	esi, esp
	jmp	__RTC_CheckEsp
__unwindfunclet$?create@DefaultCalendarFactory@icu_56@@MBEPAVUObject@2@ABVICUServiceKey@2@PBVICUService@2@AAW4UErrorCode@@@Z$1:
	mov	esi, esp
	mov	eax, DWORD PTR $T85268[ebp]
	push	eax
	call	DWORD PTR __imp_??3UMemory@icu_56@@SAXPAX@Z
	add	esp, 4
	cmp	esi, esp
	jmp	__RTC_CheckEsp
__unwindfunclet$?create@DefaultCalendarFactory@icu_56@@MBEPAVUObject@2@ABVICUServiceKey@2@PBVICUService@2@AAW4UErrorCode@@@Z$2:
	mov	esi, esp
	lea	ecx, DWORD PTR $T76103[ebp]
	call	DWORD PTR __imp_??1UnicodeString@icu_56@@UAE@XZ
	cmp	esi, esp
	jmp	__RTC_CheckEsp
__unwindfunclet$?create@DefaultCalendarFactory@icu_56@@MBEPAVUObject@2@ABVICUServiceKey@2@PBVICUService@2@AAW4UErrorCode@@@Z$3:
	mov	esi, esp
	lea	ecx, DWORD PTR $T76104[ebp]
	call	DWORD PTR __imp_??1UnicodeString@icu_56@@UAE@XZ
	cmp	esi, esp
	jmp	__RTC_CheckEsp
__ehhandler$?create@DefaultCalendarFactory@icu_56@@MBEPAVUObject@2@ABVICUServiceKey@2@PBVICUService@2@AAW4UErrorCode@@@Z:
	mov	edx, DWORD PTR [esp+8]
	lea	eax, DWORD PTR [edx+12]
	mov	ecx, DWORD PTR [edx-648]
	xor	ecx, eax
	call	@__security_check_cookie@4
	mov	ecx, DWORD PTR [edx-4]
	xor	ecx, eax
	call	@__security_check_cookie@4
	mov	eax, OFFSET __ehfuncinfo$?create@DefaultCalendarFactory@icu_56@@MBEPAVUObject@2@ABVICUServiceKey@2@PBVICUService@2@AAW4UErrorCode@@@Z
	jmp	___CxxFrameHandler3
text$x	ENDS
?create@DefaultCalendarFactory@icu_56@@MBEPAVUObject@2@ABVICUServiceKey@2@PBVICUService@2@AAW4UErrorCode@@@Z ENDP ; icu_56::DefaultCalendarFactory::create
; Function compile flags: /Odtp /RTCsu /ZI
;	COMDAT ??_GUnicodeString@icu_56@@UAEPAXI@Z
_TEXT	SEGMENT
_this$ = -8						; size = 4
___flags$ = 8						; size = 4
??_GUnicodeString@icu_56@@UAEPAXI@Z PROC		; icu_56::UnicodeString::`scalar deleting destructor', COMDAT
; _this$ = ecx
	push	ebp
	mov	ebp, esp
	sub	esp, 204				; 000000ccH
	push	ebx
	push	esi
	push	edi
	push	ecx
	lea	edi, DWORD PTR [ebp-204]
	mov	ecx, 51					; 00000033H
	mov	eax, -858993460				; ccccccccH
	rep stosd
	pop	ecx
	mov	DWORD PTR _this$[ebp], ecx
	mov	esi, esp
	mov	ecx, DWORD PTR _this$[ebp]
	call	DWORD PTR __imp_??1UnicodeString@icu_56@@UAE@XZ
	cmp	esi, esp
	call	__RTC_CheckEsp
	mov	eax, DWORD PTR ___flags$[ebp]
	and	eax, 1
	je	SHORT $LN1@scalar@4
	mov	esi, esp
	mov	eax, DWORD PTR _this$[ebp]
	push	eax
	call	DWORD PTR __imp_??3UMemory@icu_56@@SAXPAX@Z
	add	esp, 4
	cmp	esi, esp
	call	__RTC_CheckEsp
$LN1@scalar@4:
	mov	eax, DWORD PTR _this$[ebp]
	pop	edi
	pop	esi
	pop	ebx
	add	esp, 204				; 000000ccH
	cmp	ebp, esp
	call	__RTC_CheckEsp
	mov	esp, ebp
	pop	ebp
	ret	4
??_GUnicodeString@icu_56@@UAEPAXI@Z ENDP		; icu_56::UnicodeString::`scalar deleting destructor'
_TEXT	ENDS
PUBLIC	??_C@_03MMKGDKGA@001?$AA@			; `string'
PUBLIC	??_C@_0BH@PEMGOIBB@calendarPreferenceData?$AA@	; `string'
PUBLIC	??_C@_0BB@CPLPEJEM@supplementalData?$AA@	; `string'
PUBLIC	??_C@_08LCCMFNHG@calendar?$AA@			; `string'
PUBLIC	__$ArrayPad$
EXTRN	_ures_close_56:PROC
EXTRN	_u_UCharsToChars_56:PROC
EXTRN	_ures_getStringByIndex_56:PROC
EXTRN	_ures_getByKey_56:PROC
EXTRN	_ures_openDirect_56:PROC
EXTRN	_uloc_addLikelySubtags_56:PROC
EXTRN	_uloc_getCountry_56:PROC
EXTRN	_uloc_getKeywordValue_56:PROC
EXTRN	_uloc_canonicalize_56:PROC
;	COMDAT ??_C@_03MMKGDKGA@001?$AA@
CONST	SEGMENT
??_C@_03MMKGDKGA@001?$AA@ DB '001', 00H			; `string'
CONST	ENDS
;	COMDAT ??_C@_0BH@PEMGOIBB@calendarPreferenceData?$AA@
CONST	SEGMENT
??_C@_0BH@PEMGOIBB@calendarPreferenceData?$AA@ DB 'calendarPreferenceData'
	DB	00H						; `string'
CONST	ENDS
;	COMDAT ??_C@_0BB@CPLPEJEM@supplementalData?$AA@
CONST	SEGMENT
??_C@_0BB@CPLPEJEM@supplementalData?$AA@ DB 'supplementalData', 00H ; `string'
CONST	ENDS
;	COMDAT ??_C@_08LCCMFNHG@calendar?$AA@
CONST	SEGMENT
??_C@_08LCCMFNHG@calendar?$AA@ DB 'calendar', 00H	; `string'
; Function compile flags: /Odtp /RTCsu /ZI
CONST	ENDS
;	COMDAT ?getCalendarTypeForLocale@icu_56@@YA?AW4ECalType@@PBD@Z
_TEXT	SEGMENT
_uCalType$75919 = -688					; size = 4
_len$75918 = -676					; size = 4
_order$ = -664						; size = 4
_rb$ = -652						; size = 4
_fullLoc$75909 = -640					; size = 256
_regionLen$ = -376					; size = 4
_region$ = -364						; size = 4
_calTypeBufLen$ = -352					; size = 4
_calTypeBuf$ = -340					; size = 32
_canonicalLen$ = -300					; size = 4
_canonicalName$ = -288					; size = 256
_calType$ = -24						; size = 4
_status$ = -12						; size = 4
__$ArrayPad$ = -4					; size = 4
_locid$ = 8						; size = 4
?getCalendarTypeForLocale@icu_56@@YA?AW4ECalType@@PBD@Z PROC ; icu_56::getCalendarTypeForLocale, COMDAT
; Line 256
	push	ebp
	mov	ebp, esp
	sub	esp, 884				; 00000374H
	push	ebx
	push	esi
	push	edi
	lea	edi, DWORD PTR [ebp-884]
	mov	ecx, 221				; 000000ddH
	mov	eax, -858993460				; ccccccccH
	rep stosd
	mov	eax, DWORD PTR ___security_cookie
	xor	eax, ebp
	mov	DWORD PTR __$ArrayPad$[ebp], eax
; Line 257
	mov	DWORD PTR _status$[ebp], 0
; Line 258
	mov	DWORD PTR _calType$[ebp], -1
; Line 265
	lea	eax, DWORD PTR _status$[ebp]
	push	eax
	push	255					; 000000ffH
	lea	ecx, DWORD PTR _canonicalName$[ebp]
	push	ecx
	mov	edx, DWORD PTR _locid$[ebp]
	push	edx
	call	_uloc_canonicalize_56
	add	esp, 16					; 00000010H
	mov	DWORD PTR _canonicalLen$[ebp], eax
; Line 266
	mov	eax, DWORD PTR _status$[ebp]
	push	eax
	call	?U_FAILURE@@YACW4UErrorCode@@@Z		; U_FAILURE
	add	esp, 4
	movsx	ecx, al
	test	ecx, ecx
	je	SHORT $LN9@getCalenda@3
; Line 267
	xor	eax, eax
	jmp	$LN10@getCalenda@3
$LN9@getCalenda@3:
; Line 269
	mov	eax, DWORD PTR _canonicalLen$[ebp]
	mov	BYTE PTR _canonicalName$[ebp+eax], 0
; Line 274
	lea	eax, DWORD PTR _status$[ebp]
	push	eax
	push	31					; 0000001fH
	lea	ecx, DWORD PTR _calTypeBuf$[ebp]
	push	ecx
	push	OFFSET ??_C@_08LCCMFNHG@calendar?$AA@
	lea	edx, DWORD PTR _canonicalName$[ebp]
	push	edx
	call	_uloc_getKeywordValue_56
	add	esp, 20					; 00000014H
	mov	DWORD PTR _calTypeBufLen$[ebp], eax
; Line 275
	mov	eax, DWORD PTR _status$[ebp]
	push	eax
	call	?U_SUCCESS@@YACW4UErrorCode@@@Z		; U_SUCCESS
	add	esp, 4
	movsx	ecx, al
	test	ecx, ecx
	je	SHORT $LN8@getCalenda@3
; Line 276
	mov	eax, DWORD PTR _calTypeBufLen$[ebp]
	mov	BYTE PTR _calTypeBuf$[ebp+eax], 0
; Line 277
	lea	eax, DWORD PTR _calTypeBuf$[ebp]
	push	eax
	call	?getCalendarType@icu_56@@YA?AW4ECalType@@PBD@Z ; icu_56::getCalendarType
	add	esp, 4
	mov	DWORD PTR _calType$[ebp], eax
; Line 278
	cmp	DWORD PTR _calType$[ebp], -1
	je	SHORT $LN8@getCalenda@3
; Line 279
	mov	eax, DWORD PTR _calType$[ebp]
	jmp	$LN10@getCalenda@3
$LN8@getCalenda@3:
; Line 282
	mov	DWORD PTR _status$[ebp], 0
; Line 287
	mov	DWORD PTR _regionLen$[ebp], 0
; Line 288
	lea	eax, DWORD PTR _status$[ebp]
	push	eax
	push	3
	lea	ecx, DWORD PTR _region$[ebp]
	push	ecx
	lea	edx, DWORD PTR _canonicalName$[ebp]
	push	edx
	call	_uloc_getCountry_56
	add	esp, 16					; 00000010H
	mov	DWORD PTR _regionLen$[ebp], eax
; Line 289
	cmp	DWORD PTR _regionLen$[ebp], 0
	jne	SHORT $LN6@getCalenda@3
; Line 291
	lea	eax, DWORD PTR _status$[ebp]
	push	eax
	push	255					; 000000ffH
	lea	ecx, DWORD PTR _fullLoc$75909[ebp]
	push	ecx
	mov	edx, DWORD PTR _locid$[ebp]
	push	edx
	call	_uloc_addLikelySubtags_56
	add	esp, 16					; 00000010H
; Line 292
	lea	eax, DWORD PTR _status$[ebp]
	push	eax
	push	3
	lea	ecx, DWORD PTR _region$[ebp]
	push	ecx
	lea	edx, DWORD PTR _fullLoc$75909[ebp]
	push	edx
	call	_uloc_getCountry_56
	add	esp, 16					; 00000010H
	mov	DWORD PTR _regionLen$[ebp], eax
$LN6@getCalenda@3:
; Line 294
	mov	eax, DWORD PTR _status$[ebp]
	push	eax
	call	?U_FAILURE@@YACW4UErrorCode@@@Z		; U_FAILURE
	add	esp, 4
	movsx	ecx, al
	test	ecx, ecx
	je	SHORT $LN5@getCalenda@3
; Line 295
	xor	eax, eax
	jmp	$LN10@getCalenda@3
$LN5@getCalenda@3:
; Line 297
	mov	eax, DWORD PTR _regionLen$[ebp]
	mov	BYTE PTR _region$[ebp+eax], 0
; Line 300
	lea	eax, DWORD PTR _status$[ebp]
	push	eax
	push	OFFSET ??_C@_0BB@CPLPEJEM@supplementalData?$AA@
	push	0
	call	_ures_openDirect_56
	add	esp, 12					; 0000000cH
	mov	DWORD PTR _rb$[ebp], eax
; Line 301
	lea	eax, DWORD PTR _status$[ebp]
	push	eax
	mov	ecx, DWORD PTR _rb$[ebp]
	push	ecx
	push	OFFSET ??_C@_0BH@PEMGOIBB@calendarPreferenceData?$AA@
	mov	edx, DWORD PTR _rb$[ebp]
	push	edx
	call	_ures_getByKey_56
	add	esp, 16					; 00000010H
; Line 302
	lea	eax, DWORD PTR _status$[ebp]
	push	eax
	push	0
	lea	ecx, DWORD PTR _region$[ebp]
	push	ecx
	mov	edx, DWORD PTR _rb$[ebp]
	push	edx
	call	_ures_getByKey_56
	add	esp, 16					; 00000010H
	mov	DWORD PTR _order$[ebp], eax
; Line 303
	cmp	DWORD PTR _status$[ebp], 2
	jne	SHORT $LN4@getCalenda@3
	cmp	DWORD PTR _rb$[ebp], 0
	je	SHORT $LN4@getCalenda@3
; Line 304
	mov	DWORD PTR _status$[ebp], 0
; Line 305
	lea	eax, DWORD PTR _status$[ebp]
	push	eax
	push	0
	push	OFFSET ??_C@_03MMKGDKGA@001?$AA@
	mov	ecx, DWORD PTR _rb$[ebp]
	push	ecx
	call	_ures_getByKey_56
	add	esp, 16					; 00000010H
	mov	DWORD PTR _order$[ebp], eax
$LN4@getCalenda@3:
; Line 308
	mov	BYTE PTR _calTypeBuf$[ebp], 0
; Line 309
	mov	eax, DWORD PTR _status$[ebp]
	push	eax
	call	?U_SUCCESS@@YACW4UErrorCode@@@Z		; U_SUCCESS
	add	esp, 4
	movsx	ecx, al
	test	ecx, ecx
	je	SHORT $LN3@getCalenda@3
	cmp	DWORD PTR _order$[ebp], 0
	je	SHORT $LN3@getCalenda@3
; Line 311
	mov	DWORD PTR _len$75918[ebp], 0
; Line 312
	lea	eax, DWORD PTR _status$[ebp]
	push	eax
	lea	ecx, DWORD PTR _len$75918[ebp]
	push	ecx
	push	0
	mov	edx, DWORD PTR _order$[ebp]
	push	edx
	call	_ures_getStringByIndex_56
	add	esp, 16					; 00000010H
	mov	DWORD PTR _uCalType$75919[ebp], eax
; Line 313
	cmp	DWORD PTR _len$75918[ebp], 32		; 00000020H
	jge	SHORT $LN3@getCalenda@3
; Line 314
	mov	eax, DWORD PTR _len$75918[ebp]
	push	eax
	lea	ecx, DWORD PTR _calTypeBuf$[ebp]
	push	ecx
	mov	edx, DWORD PTR _uCalType$75919[ebp]
	push	edx
	call	_u_UCharsToChars_56
	add	esp, 12					; 0000000cH
; Line 315
	mov	eax, DWORD PTR _len$75918[ebp]
	mov	BYTE PTR _calTypeBuf$[ebp+eax], 0
; Line 316
	lea	eax, DWORD PTR _calTypeBuf$[ebp]
	push	eax
	call	?getCalendarType@icu_56@@YA?AW4ECalType@@PBD@Z ; icu_56::getCalendarType
	add	esp, 4
	mov	DWORD PTR _calType$[ebp], eax
$LN3@getCalenda@3:
; Line 320
	mov	eax, DWORD PTR _order$[ebp]
	push	eax
	call	_ures_close_56
	add	esp, 4
; Line 321
	mov	eax, DWORD PTR _rb$[ebp]
	push	eax
	call	_ures_close_56
	add	esp, 4
; Line 323
	cmp	DWORD PTR _calType$[ebp], -1
	jne	SHORT $LN1@getCalenda@3
; Line 325
	mov	DWORD PTR _calType$[ebp], 0
$LN1@getCalenda@3:
; Line 327
	mov	eax, DWORD PTR _calType$[ebp]
$LN10@getCalenda@3:
; Line 328
	push	edx
	mov	ecx, ebp
	push	eax
	lea	edx, DWORD PTR $LN19@getCalenda@3
	call	@_RTC_CheckStackVars@8
	pop	eax
	pop	edx
	pop	edi
	pop	esi
	pop	ebx
	mov	ecx, DWORD PTR __$ArrayPad$[ebp]
	xor	ecx, ebp
	call	@__security_check_cookie@4
	add	esp, 884				; 00000374H
	cmp	ebp, esp
	call	__RTC_CheckEsp
	mov	esp, ebp
	pop	ebp
	ret	0
$LN19@getCalenda@3:
	DD	6
	DD	$LN18@getCalenda@3
$LN18@getCalenda@3:
	DD	-12					; fffffff4H
	DD	4
	DD	$LN12@getCalenda@3
	DD	-288					; fffffee0H
	DD	256					; 00000100H
	DD	$LN13@getCalenda@3
	DD	-340					; fffffeacH
	DD	32					; 00000020H
	DD	$LN14@getCalenda@3
	DD	-364					; fffffe94H
	DD	4
	DD	$LN15@getCalenda@3
	DD	-640					; fffffd80H
	DD	256					; 00000100H
	DD	$LN16@getCalenda@3
	DD	-676					; fffffd5cH
	DD	4
	DD	$LN17@getCalenda@3
$LN17@getCalenda@3:
	DB	108					; 0000006cH
	DB	101					; 00000065H
	DB	110					; 0000006eH
	DB	0
$LN16@getCalenda@3:
	DB	102					; 00000066H
	DB	117					; 00000075H
	DB	108					; 0000006cH
	DB	108					; 0000006cH
	DB	76					; 0000004cH
	DB	111					; 0000006fH
	DB	99					; 00000063H
	DB	0
$LN15@getCalenda@3:
	DB	114					; 00000072H
	DB	101					; 00000065H
	DB	103					; 00000067H
	DB	105					; 00000069H
	DB	111					; 0000006fH
	DB	110					; 0000006eH
	DB	0
$LN14@getCalenda@3:
	DB	99					; 00000063H
	DB	97					; 00000061H
	DB	108					; 0000006cH
	DB	84					; 00000054H
	DB	121					; 00000079H
	DB	112					; 00000070H
	DB	101					; 00000065H
	DB	66					; 00000042H
	DB	117					; 00000075H
	DB	102					; 00000066H
	DB	0
$LN13@getCalenda@3:
	DB	99					; 00000063H
	DB	97					; 00000061H
	DB	110					; 0000006eH
	DB	111					; 0000006fH
	DB	110					; 0000006eH
	DB	105					; 00000069H
	DB	99					; 00000063H
	DB	97					; 00000061H
	DB	108					; 0000006cH
	DB	78					; 0000004eH
	DB	97					; 00000061H
	DB	109					; 0000006dH
	DB	101					; 00000065H
	DB	0
$LN12@getCalenda@3:
	DB	115					; 00000073H
	DB	116					; 00000074H
	DB	97					; 00000061H
	DB	116					; 00000074H
	DB	117					; 00000075H
	DB	115					; 00000073H
	DB	0
?getCalendarTypeForLocale@icu_56@@YA?AW4ECalType@@PBD@Z ENDP ; icu_56::getCalendarTypeForLocale
; Function compile flags: /Odtp /RTCsu /ZI
_TEXT	ENDS
;	COMDAT ??_GDefaultCalendarFactory@icu_56@@UAEPAXI@Z
_TEXT	SEGMENT
_this$ = -8						; size = 4
___flags$ = 8						; size = 4
??_GDefaultCalendarFactory@icu_56@@UAEPAXI@Z PROC	; icu_56::DefaultCalendarFactory::`scalar deleting destructor', COMDAT
; _this$ = ecx
	push	ebp
	mov	ebp, esp
	sub	esp, 204				; 000000ccH
	push	ebx
	push	esi
	push	edi
	push	ecx
	lea	edi, DWORD PTR [ebp-204]
	mov	ecx, 51					; 00000033H
	mov	eax, -858993460				; ccccccccH
	rep stosd
	pop	ecx
	mov	DWORD PTR _this$[ebp], ecx
	mov	ecx, DWORD PTR _this$[ebp]
	call	??1DefaultCalendarFactory@icu_56@@UAE@XZ ; icu_56::DefaultCalendarFactory::~DefaultCalendarFactory
	mov	eax, DWORD PTR ___flags$[ebp]
	and	eax, 1
	je	SHORT $LN1@scalar@5
	mov	esi, esp
	mov	eax, DWORD PTR _this$[ebp]
	push	eax
	call	DWORD PTR __imp_??3UMemory@icu_56@@SAXPAX@Z
	add	esp, 4
	cmp	esi, esp
	call	__RTC_CheckEsp
$LN1@scalar@5:
	mov	eax, DWORD PTR _this$[ebp]
	pop	edi
	pop	esi
	pop	ebx
	add	esp, 204				; 000000ccH
	cmp	ebp, esp
	call	__RTC_CheckEsp
	mov	esp, ebp
	pop	ebp
	ret	4
??_GDefaultCalendarFactory@icu_56@@UAEPAXI@Z ENDP	; icu_56::DefaultCalendarFactory::`scalar deleting destructor'
_TEXT	ENDS
PUBLIC	??_7CalendarService@icu_56@@6B@			; icu_56::CalendarService::`vftable'
PUBLIC	??1CalendarService@icu_56@@UAE@XZ		; icu_56::CalendarService::~CalendarService
PUBLIC	??_R4CalendarService@icu_56@@6B@		; icu_56::CalendarService::`RTTI Complete Object Locator'
PUBLIC	??_R0?AVCalendarService@icu_56@@@8		; icu_56::CalendarService `RTTI Type Descriptor'
PUBLIC	??_R3CalendarService@icu_56@@8			; icu_56::CalendarService::`RTTI Class Hierarchy Descriptor'
PUBLIC	??_R2CalendarService@icu_56@@8			; icu_56::CalendarService::`RTTI Base Class Array'
PUBLIC	??_R1A@?0A@EA@CalendarService@icu_56@@8		; icu_56::CalendarService::`RTTI Base Class Descriptor at (0,-1,0,64)'
PUBLIC	??_R1A@?0A@EA@ICULocaleService@icu_56@@8	; icu_56::ICULocaleService::`RTTI Base Class Descriptor at (0,-1,0,64)'
PUBLIC	??_R0?AVICULocaleService@icu_56@@@8		; icu_56::ICULocaleService `RTTI Type Descriptor'
PUBLIC	??_R3ICULocaleService@icu_56@@8			; icu_56::ICULocaleService::`RTTI Class Hierarchy Descriptor'
PUBLIC	??_R2ICULocaleService@icu_56@@8			; icu_56::ICULocaleService::`RTTI Base Class Array'
PUBLIC	??_R1A@?0A@EA@ICUService@icu_56@@8		; icu_56::ICUService::`RTTI Base Class Descriptor at (0,-1,0,64)'
PUBLIC	??_R0?AVICUService@icu_56@@@8			; icu_56::ICUService `RTTI Type Descriptor'
PUBLIC	??_R3ICUService@icu_56@@8			; icu_56::ICUService::`RTTI Class Hierarchy Descriptor'
PUBLIC	??_R2ICUService@icu_56@@8			; icu_56::ICUService::`RTTI Base Class Array'
PUBLIC	??_R1A@?0A@EA@ICUNotifier@icu_56@@8		; icu_56::ICUNotifier::`RTTI Base Class Descriptor at (0,-1,0,64)'
PUBLIC	??_R0?AVICUNotifier@icu_56@@@8			; icu_56::ICUNotifier `RTTI Type Descriptor'
PUBLIC	??_R3ICUNotifier@icu_56@@8			; icu_56::ICUNotifier::`RTTI Class Hierarchy Descriptor'
PUBLIC	??_R2ICUNotifier@icu_56@@8			; icu_56::ICUNotifier::`RTTI Base Class Array'
PUBLIC	?isDefault@CalendarService@icu_56@@UBECXZ	; icu_56::CalendarService::isDefault
PUBLIC	?cloneInstance@CalendarService@icu_56@@UBEPAVUObject@2@PAV32@@Z ; icu_56::CalendarService::cloneInstance
PUBLIC	?handleDefault@CalendarService@icu_56@@UBEPAVUObject@2@ABVICUServiceKey@2@PAVUnicodeString@2@AAW4UErrorCode@@@Z ; icu_56::CalendarService::handleDefault
EXTRN	__imp_??1ICULocaleService@icu_56@@UAE@XZ:PROC
EXTRN	??_ECalendarService@icu_56@@UAEPAXI@Z:PROC	; icu_56::CalendarService::`vector deleting destructor'
EXTRN	?addListener@ICUNotifier@icu_56@@UAEXPBVEventListener@2@AAW4UErrorCode@@@Z:PROC ; icu_56::ICUNotifier::addListener
EXTRN	?removeListener@ICUNotifier@icu_56@@UAEXPBVEventListener@2@AAW4UErrorCode@@@Z:PROC ; icu_56::ICUNotifier::removeListener
EXTRN	?notifyChanged@ICUNotifier@icu_56@@UAEXXZ:PROC	; icu_56::ICUNotifier::notifyChanged
EXTRN	?acceptsListener@ICUService@icu_56@@MBECABVEventListener@2@@Z:PROC ; icu_56::ICUService::acceptsListener
EXTRN	?notifyListener@ICUService@icu_56@@MBEXAAVEventListener@2@@Z:PROC ; icu_56::ICUService::notifyListener
EXTRN	?getKey@ICUService@icu_56@@UBEPAVUObject@2@AAVICUServiceKey@2@PAVUnicodeString@2@AAW4UErrorCode@@@Z:PROC ; icu_56::ICUService::getKey
EXTRN	?registerInstance@ICULocaleService@icu_56@@UAEPBXPAVUObject@2@ABVUnicodeString@2@CAAW4UErrorCode@@@Z:PROC ; icu_56::ICULocaleService::registerInstance
EXTRN	?registerFactory@ICUService@icu_56@@UAEPBXPAVICUServiceFactory@2@AAW4UErrorCode@@@Z:PROC ; icu_56::ICUService::registerFactory
EXTRN	?unregister@ICUService@icu_56@@UAECPBXAAW4UErrorCode@@@Z:PROC ; icu_56::ICUService::unregister
EXTRN	?reset@ICUService@icu_56@@UAEXXZ:PROC		; icu_56::ICUService::reset
EXTRN	?createKey@ICULocaleService@icu_56@@MBEPAVICUServiceKey@2@PBVUnicodeString@2@AAW4UErrorCode@@@Z:PROC ; icu_56::ICULocaleService::createKey
EXTRN	?createSimpleFactory@ICUService@icu_56@@MAEPAVICUServiceFactory@2@PAVUObject@2@ABVUnicodeString@2@CAAW4UErrorCode@@@Z:PROC ; icu_56::ICUService::createSimpleFactory
EXTRN	?reInitializeFactories@ICUService@icu_56@@MAEXXZ:PROC ; icu_56::ICUService::reInitializeFactories
EXTRN	?clearCaches@ICUService@icu_56@@MAEXXZ:PROC	; icu_56::ICUService::clearCaches
EXTRN	?registerInstance@ICULocaleService@icu_56@@UAEPBXPAVUObject@2@ABVLocale@2@HHAAW4UErrorCode@@@Z:PROC ; icu_56::ICULocaleService::registerInstance
EXTRN	?registerInstance@ICULocaleService@icu_56@@UAEPBXPAVUObject@2@ABVLocale@2@HAAW4UErrorCode@@@Z:PROC ; icu_56::ICULocaleService::registerInstance
EXTRN	?registerInstance@ICULocaleService@icu_56@@UAEPBXPAVUObject@2@ABVLocale@2@AAW4UErrorCode@@@Z:PROC ; icu_56::ICULocaleService::registerInstance
EXTRN	?getAvailableLocales@ICULocaleService@icu_56@@UBEPAVStringEnumeration@2@XZ:PROC ; icu_56::ICULocaleService::getAvailableLocales
EXTRN	?createKey@ICULocaleService@icu_56@@MBEPAVICUServiceKey@2@PBVUnicodeString@2@HAAW4UErrorCode@@@Z:PROC ; icu_56::ICULocaleService::createKey
;	COMDAT ??_R2ICUNotifier@icu_56@@8
rdata$r	SEGMENT
??_R2ICUNotifier@icu_56@@8 DD FLAT:??_R1A@?0A@EA@ICUNotifier@icu_56@@8 ; icu_56::ICUNotifier::`RTTI Base Class Array'
	DD	FLAT:??_R13?0A@EA@UMemory@icu_56@@8
rdata$r	ENDS
;	COMDAT ??_R3ICUNotifier@icu_56@@8
rdata$r	SEGMENT
??_R3ICUNotifier@icu_56@@8 DD 00H			; icu_56::ICUNotifier::`RTTI Class Hierarchy Descriptor'
	DD	00H
	DD	02H
	DD	FLAT:??_R2ICUNotifier@icu_56@@8
rdata$r	ENDS
;	COMDAT ??_R0?AVICUNotifier@icu_56@@@8
_DATA	SEGMENT
??_R0?AVICUNotifier@icu_56@@@8 DD FLAT:??_7type_info@@6B@ ; icu_56::ICUNotifier `RTTI Type Descriptor'
	DD	00H
	DB	'.?AVICUNotifier@icu_56@@', 00H
_DATA	ENDS
;	COMDAT ??_R1A@?0A@EA@ICUNotifier@icu_56@@8
rdata$r	SEGMENT
??_R1A@?0A@EA@ICUNotifier@icu_56@@8 DD FLAT:??_R0?AVICUNotifier@icu_56@@@8 ; icu_56::ICUNotifier::`RTTI Base Class Descriptor at (0,-1,0,64)'
	DD	01H
	DD	00H
	DD	0ffffffffH
	DD	00H
	DD	040H
	DD	FLAT:??_R3ICUNotifier@icu_56@@8
rdata$r	ENDS
;	COMDAT ??_R2ICUService@icu_56@@8
rdata$r	SEGMENT
??_R2ICUService@icu_56@@8 DD FLAT:??_R1A@?0A@EA@ICUService@icu_56@@8 ; icu_56::ICUService::`RTTI Base Class Array'
	DD	FLAT:??_R1A@?0A@EA@ICUNotifier@icu_56@@8
	DD	FLAT:??_R13?0A@EA@UMemory@icu_56@@8
rdata$r	ENDS
;	COMDAT ??_R3ICUService@icu_56@@8
rdata$r	SEGMENT
??_R3ICUService@icu_56@@8 DD 00H			; icu_56::ICUService::`RTTI Class Hierarchy Descriptor'
	DD	00H
	DD	03H
	DD	FLAT:??_R2ICUService@icu_56@@8
rdata$r	ENDS
;	COMDAT ??_R0?AVICUService@icu_56@@@8
_DATA	SEGMENT
??_R0?AVICUService@icu_56@@@8 DD FLAT:??_7type_info@@6B@ ; icu_56::ICUService `RTTI Type Descriptor'
	DD	00H
	DB	'.?AVICUService@icu_56@@', 00H
_DATA	ENDS
;	COMDAT ??_R1A@?0A@EA@ICUService@icu_56@@8
rdata$r	SEGMENT
??_R1A@?0A@EA@ICUService@icu_56@@8 DD FLAT:??_R0?AVICUService@icu_56@@@8 ; icu_56::ICUService::`RTTI Base Class Descriptor at (0,-1,0,64)'
	DD	02H
	DD	00H
	DD	0ffffffffH
	DD	00H
	DD	040H
	DD	FLAT:??_R3ICUService@icu_56@@8
rdata$r	ENDS
;	COMDAT ??_R2ICULocaleService@icu_56@@8
rdata$r	SEGMENT
??_R2ICULocaleService@icu_56@@8 DD FLAT:??_R1A@?0A@EA@ICULocaleService@icu_56@@8 ; icu_56::ICULocaleService::`RTTI Base Class Array'
	DD	FLAT:??_R1A@?0A@EA@ICUService@icu_56@@8
	DD	FLAT:??_R1A@?0A@EA@ICUNotifier@icu_56@@8
	DD	FLAT:??_R13?0A@EA@UMemory@icu_56@@8
rdata$r	ENDS
;	COMDAT ??_R3ICULocaleService@icu_56@@8
rdata$r	SEGMENT
??_R3ICULocaleService@icu_56@@8 DD 00H			; icu_56::ICULocaleService::`RTTI Class Hierarchy Descriptor'
	DD	00H
	DD	04H
	DD	FLAT:??_R2ICULocaleService@icu_56@@8
rdata$r	ENDS
;	COMDAT ??_R0?AVICULocaleService@icu_56@@@8
_DATA	SEGMENT
??_R0?AVICULocaleService@icu_56@@@8 DD FLAT:??_7type_info@@6B@ ; icu_56::ICULocaleService `RTTI Type Descriptor'
	DD	00H
	DB	'.?AVICULocaleService@icu_56@@', 00H
_DATA	ENDS
;	COMDAT ??_R1A@?0A@EA@ICULocaleService@icu_56@@8
rdata$r	SEGMENT
??_R1A@?0A@EA@ICULocaleService@icu_56@@8 DD FLAT:??_R0?AVICULocaleService@icu_56@@@8 ; icu_56::ICULocaleService::`RTTI Base Class Descriptor at (0,-1,0,64)'
	DD	03H
	DD	00H
	DD	0ffffffffH
	DD	00H
	DD	040H
	DD	FLAT:??_R3ICULocaleService@icu_56@@8
rdata$r	ENDS
;	COMDAT ??_R1A@?0A@EA@CalendarService@icu_56@@8
rdata$r	SEGMENT
??_R1A@?0A@EA@CalendarService@icu_56@@8 DD FLAT:??_R0?AVCalendarService@icu_56@@@8 ; icu_56::CalendarService::`RTTI Base Class Descriptor at (0,-1,0,64)'
	DD	04H
	DD	00H
	DD	0ffffffffH
	DD	00H
	DD	040H
	DD	FLAT:??_R3CalendarService@icu_56@@8
rdata$r	ENDS
;	COMDAT ??_R2CalendarService@icu_56@@8
rdata$r	SEGMENT
??_R2CalendarService@icu_56@@8 DD FLAT:??_R1A@?0A@EA@CalendarService@icu_56@@8 ; icu_56::CalendarService::`RTTI Base Class Array'
	DD	FLAT:??_R1A@?0A@EA@ICULocaleService@icu_56@@8
	DD	FLAT:??_R1A@?0A@EA@ICUService@icu_56@@8
	DD	FLAT:??_R1A@?0A@EA@ICUNotifier@icu_56@@8
	DD	FLAT:??_R13?0A@EA@UMemory@icu_56@@8
rdata$r	ENDS
;	COMDAT ??_R3CalendarService@icu_56@@8
rdata$r	SEGMENT
??_R3CalendarService@icu_56@@8 DD 00H			; icu_56::CalendarService::`RTTI Class Hierarchy Descriptor'
	DD	00H
	DD	05H
	DD	FLAT:??_R2CalendarService@icu_56@@8
rdata$r	ENDS
;	COMDAT ??_R0?AVCalendarService@icu_56@@@8
_DATA	SEGMENT
??_R0?AVCalendarService@icu_56@@@8 DD FLAT:??_7type_info@@6B@ ; icu_56::CalendarService `RTTI Type Descriptor'
	DD	00H
	DB	'.?AVCalendarService@icu_56@@', 00H
_DATA	ENDS
;	COMDAT ??_R4CalendarService@icu_56@@6B@
rdata$r	SEGMENT
??_R4CalendarService@icu_56@@6B@ DD 00H			; icu_56::CalendarService::`RTTI Complete Object Locator'
	DD	00H
	DD	00H
	DD	FLAT:??_R0?AVCalendarService@icu_56@@@8
	DD	FLAT:??_R3CalendarService@icu_56@@8
rdata$r	ENDS
;	COMDAT ??_7CalendarService@icu_56@@6B@
CONST	SEGMENT
??_7CalendarService@icu_56@@6B@ DD FLAT:??_R4CalendarService@icu_56@@6B@ ; icu_56::CalendarService::`vftable'
	DD	FLAT:??_ECalendarService@icu_56@@UAEPAXI@Z
	DD	FLAT:?addListener@ICUNotifier@icu_56@@UAEXPBVEventListener@2@AAW4UErrorCode@@@Z
	DD	FLAT:?removeListener@ICUNotifier@icu_56@@UAEXPBVEventListener@2@AAW4UErrorCode@@@Z
	DD	FLAT:?notifyChanged@ICUNotifier@icu_56@@UAEXXZ
	DD	FLAT:?acceptsListener@ICUService@icu_56@@MBECABVEventListener@2@@Z
	DD	FLAT:?notifyListener@ICUService@icu_56@@MBEXAAVEventListener@2@@Z
	DD	FLAT:?getKey@ICUService@icu_56@@UBEPAVUObject@2@AAVICUServiceKey@2@PAVUnicodeString@2@AAW4UErrorCode@@@Z
	DD	FLAT:?registerInstance@ICULocaleService@icu_56@@UAEPBXPAVUObject@2@ABVUnicodeString@2@CAAW4UErrorCode@@@Z
	DD	FLAT:?registerFactory@ICUService@icu_56@@UAEPBXPAVICUServiceFactory@2@AAW4UErrorCode@@@Z
	DD	FLAT:?unregister@ICUService@icu_56@@UAECPBXAAW4UErrorCode@@@Z
	DD	FLAT:?reset@ICUService@icu_56@@UAEXXZ
	DD	FLAT:?isDefault@CalendarService@icu_56@@UBECXZ
	DD	FLAT:?createKey@ICULocaleService@icu_56@@MBEPAVICUServiceKey@2@PBVUnicodeString@2@AAW4UErrorCode@@@Z
	DD	FLAT:?cloneInstance@CalendarService@icu_56@@UBEPAVUObject@2@PAV32@@Z
	DD	FLAT:?createSimpleFactory@ICUService@icu_56@@MAEPAVICUServiceFactory@2@PAVUObject@2@ABVUnicodeString@2@CAAW4UErrorCode@@@Z
	DD	FLAT:?reInitializeFactories@ICUService@icu_56@@MAEXXZ
	DD	FLAT:?handleDefault@CalendarService@icu_56@@UBEPAVUObject@2@ABVICUServiceKey@2@PAVUnicodeString@2@AAW4UErrorCode@@@Z
	DD	FLAT:?clearCaches@ICUService@icu_56@@MAEXXZ
	DD	FLAT:?registerInstance@ICULocaleService@icu_56@@UAEPBXPAVUObject@2@ABVLocale@2@HHAAW4UErrorCode@@@Z
	DD	FLAT:?registerInstance@ICULocaleService@icu_56@@UAEPBXPAVUObject@2@ABVLocale@2@HAAW4UErrorCode@@@Z
	DD	FLAT:?registerInstance@ICULocaleService@icu_56@@UAEPBXPAVUObject@2@ABVLocale@2@AAW4UErrorCode@@@Z
	DD	FLAT:?getAvailableLocales@ICULocaleService@icu_56@@UBEPAVStringEnumeration@2@XZ
	DD	FLAT:?createKey@ICULocaleService@icu_56@@MBEPAVICUServiceKey@2@PBVUnicodeString@2@HAAW4UErrorCode@@@Z
; Function compile flags: /Odtp /RTCsu /ZI
CONST	ENDS
;	COMDAT ??1CalendarService@icu_56@@UAE@XZ
_TEXT	SEGMENT
_this$ = -8						; size = 4
??1CalendarService@icu_56@@UAE@XZ PROC			; icu_56::CalendarService::~CalendarService, COMDAT
; _this$ = ecx
; Line 553
	push	ebp
	mov	ebp, esp
	sub	esp, 204				; 000000ccH
	push	ebx
	push	esi
	push	edi
	push	ecx
	lea	edi, DWORD PTR [ebp-204]
	mov	ecx, 51					; 00000033H
	mov	eax, -858993460				; ccccccccH
	rep stosd
	pop	ecx
	mov	DWORD PTR _this$[ebp], ecx
	mov	eax, DWORD PTR _this$[ebp]
	mov	DWORD PTR [eax], OFFSET ??_7CalendarService@icu_56@@6B@
	mov	esi, esp
	mov	ecx, DWORD PTR _this$[ebp]
	call	DWORD PTR __imp_??1ICULocaleService@icu_56@@UAE@XZ
	cmp	esi, esp
	call	__RTC_CheckEsp
	pop	edi
	pop	esi
	pop	ebx
	add	esp, 204				; 000000ccH
	cmp	ebp, esp
	call	__RTC_CheckEsp
	mov	esp, ebp
	pop	ebp
	ret	0
??1CalendarService@icu_56@@UAE@XZ ENDP			; icu_56::CalendarService::~CalendarService
_TEXT	ENDS
EXTRN	___RTDynamicCast:PROC
; Function compile flags: /Odtp /RTCsu /ZI
;	COMDAT ?cloneInstance@CalendarService@icu_56@@UBEPAVUObject@2@PAV32@@Z
_TEXT	SEGMENT
_s$ = -20						; size = 4
_this$ = -8						; size = 4
_instance$ = 8						; size = 4
?cloneInstance@CalendarService@icu_56@@UBEPAVUObject@2@PAV32@@Z PROC ; icu_56::CalendarService::cloneInstance, COMDAT
; _this$ = ecx
; Line 514
	push	ebp
	mov	ebp, esp
	sub	esp, 216				; 000000d8H
	push	ebx
	push	esi
	push	edi
	push	ecx
	lea	edi, DWORD PTR [ebp-216]
	mov	ecx, 54					; 00000036H
	mov	eax, -858993460				; ccccccccH
	rep stosd
	pop	ecx
	mov	DWORD PTR _this$[ebp], ecx
; Line 515
	push	0
	push	OFFSET ??_R0?AVUnicodeString@icu_56@@@8
	push	OFFSET ??_R0?AVUObject@icu_56@@@8
	push	0
	mov	eax, DWORD PTR _instance$[ebp]
	push	eax
	call	___RTDynamicCast
	add	esp, 20					; 00000014H
	mov	DWORD PTR _s$[ebp], eax
; Line 516
	cmp	DWORD PTR _s$[ebp], 0
	je	SHORT $LN2@cloneInsta
; Line 517
	mov	eax, DWORD PTR _s$[ebp]
	mov	edx, DWORD PTR [eax]
	mov	esi, esp
	mov	ecx, DWORD PTR _s$[ebp]
	mov	eax, DWORD PTR [edx+24]
	call	eax
	cmp	esi, esp
	call	__RTC_CheckEsp
	jmp	SHORT $LN3@cloneInsta
; Line 518
	jmp	SHORT $LN3@cloneInsta
$LN2@cloneInsta:
; Line 523
	mov	eax, DWORD PTR _instance$[ebp]
	mov	edx, DWORD PTR [eax]
	mov	esi, esp
	mov	ecx, DWORD PTR _instance$[ebp]
	mov	eax, DWORD PTR [edx+8]
	call	eax
	cmp	esi, esp
	call	__RTC_CheckEsp
$LN3@cloneInsta:
; Line 525
	pop	edi
	pop	esi
	pop	ebx
	add	esp, 216				; 000000d8H
	cmp	ebp, esp
	call	__RTC_CheckEsp
	mov	esp, ebp
	pop	ebp
	ret	4
?cloneInstance@CalendarService@icu_56@@UBEPAVUObject@2@PAV32@@Z ENDP ; icu_56::CalendarService::cloneInstance
_TEXT	ENDS
PUBLIC	__$ArrayPad$
;	COMDAT xdata$x
xdata$x	SEGMENT
__unwindtable$?handleDefault@CalendarService@icu_56@@UBEPAVUObject@2@ABVICUServiceKey@2@PAVUnicodeString@2@AAW4UErrorCode@@@Z DD 0ffffffffH
	DD	FLAT:__unwindfunclet$?handleDefault@CalendarService@icu_56@@UBEPAVUObject@2@ABVICUServiceKey@2@PAVUnicodeString@2@AAW4UErrorCode@@@Z$0
	DD	00H
	DD	FLAT:__unwindfunclet$?handleDefault@CalendarService@icu_56@@UBEPAVUObject@2@ABVICUServiceKey@2@PAVUnicodeString@2@AAW4UErrorCode@@@Z$1
__ehfuncinfo$?handleDefault@CalendarService@icu_56@@UBEPAVUObject@2@ABVICUServiceKey@2@PAVUnicodeString@2@AAW4UErrorCode@@@Z DD 019930522H
	DD	02H
	DD	FLAT:__unwindtable$?handleDefault@CalendarService@icu_56@@UBEPAVUObject@2@ABVICUServiceKey@2@PAVUnicodeString@2@AAW4UErrorCode@@@Z
	DD	2 DUP(00H)
	DD	2 DUP(00H)
	DD	00H
	DD	01H
; Function compile flags: /Odtp /RTCsu /ZI
xdata$x	ENDS
;	COMDAT ?handleDefault@CalendarService@icu_56@@UBEPAVUObject@2@ABVICUServiceKey@2@PAVUnicodeString@2@AAW4UErrorCode@@@Z
_TEXT	SEGMENT
tv87 = -496						; size = 4
$T85309 = -488						; size = 4
$T85310 = -476						; size = 4
$T85313 = -464						; size = 4
_nc$ = -260						; size = 4
_loc$ = -248						; size = 204
_lkey$ = -36						; size = 4
_this$ = -24						; size = 4
__$ArrayPad$ = -16					; size = 4
__$EHRec$ = -12						; size = 12
_key$ = 8						; size = 4
___formal$ = 12						; size = 4
_status$ = 16						; size = 4
?handleDefault@CalendarService@icu_56@@UBEPAVUObject@2@ABVICUServiceKey@2@PAVUnicodeString@2@AAW4UErrorCode@@@Z PROC ; icu_56::CalendarService::handleDefault, COMDAT
; _this$ = ecx
; Line 527
	push	ebp
	mov	ebp, esp
	push	-1
	push	__ehhandler$?handleDefault@CalendarService@icu_56@@UBEPAVUObject@2@ABVICUServiceKey@2@PAVUnicodeString@2@AAW4UErrorCode@@@Z
	mov	eax, DWORD PTR fs:0
	push	eax
	sub	esp, 484				; 000001e4H
	push	ebx
	push	esi
	push	edi
	push	ecx
	lea	edi, DWORD PTR [ebp-496]
	mov	ecx, 121				; 00000079H
	mov	eax, -858993460				; ccccccccH
	rep stosd
	pop	ecx
	mov	eax, DWORD PTR ___security_cookie
	xor	eax, ebp
	mov	DWORD PTR __$ArrayPad$[ebp], eax
	push	eax
	lea	eax, DWORD PTR __$EHRec$[ebp]
	mov	DWORD PTR fs:0, eax
	mov	DWORD PTR _this$[ebp], ecx
; Line 528
	mov	eax, DWORD PTR _key$[ebp]
	mov	DWORD PTR _lkey$[ebp], eax
; Line 531
	mov	esi, esp
	lea	ecx, DWORD PTR _loc$[ebp]
	call	DWORD PTR __imp_??0Locale@icu_56@@QAE@XZ
	cmp	esi, esp
	call	__RTC_CheckEsp
	mov	DWORD PTR __$EHRec$[ebp+8], 0
; Line 532
	mov	esi, esp
	lea	eax, DWORD PTR _loc$[ebp]
	push	eax
	mov	ecx, DWORD PTR _lkey$[ebp]
	mov	edx, DWORD PTR [ecx]
	mov	ecx, DWORD PTR _lkey$[ebp]
	mov	eax, DWORD PTR [edx+40]
	call	eax
	cmp	esi, esp
	call	__RTC_CheckEsp
; Line 539
	mov	esi, esp
	push	648					; 00000288H
	call	DWORD PTR __imp_??2UMemory@icu_56@@SAPAXI@Z
	add	esp, 4
	cmp	esi, esp
	call	__RTC_CheckEsp
	mov	DWORD PTR $T85310[ebp], eax
	mov	BYTE PTR __$EHRec$[ebp+8], 1
	cmp	DWORD PTR $T85310[ebp], 0
	je	SHORT $LN3@handleDefa
	mov	eax, DWORD PTR _status$[ebp]
	push	eax
	lea	ecx, DWORD PTR _loc$[ebp]
	push	ecx
	mov	ecx, DWORD PTR $T85310[ebp]
	call	??0GregorianCalendar@icu_56@@QAE@ABVLocale@1@AAW4UErrorCode@@@Z ; icu_56::GregorianCalendar::GregorianCalendar
	mov	DWORD PTR tv87[ebp], eax
	jmp	SHORT $LN4@handleDefa
$LN3@handleDefa:
	mov	DWORD PTR tv87[ebp], 0
$LN4@handleDefa:
	mov	edx, DWORD PTR tv87[ebp]
	mov	DWORD PTR $T85309[ebp], edx
	mov	BYTE PTR __$EHRec$[ebp+8], 0
	mov	eax, DWORD PTR $T85309[ebp]
	mov	DWORD PTR _nc$[ebp], eax
; Line 545
	mov	eax, DWORD PTR _nc$[ebp]
	mov	DWORD PTR $T85313[ebp], eax
	mov	DWORD PTR __$EHRec$[ebp+8], -1
	mov	esi, esp
	lea	ecx, DWORD PTR _loc$[ebp]
	call	DWORD PTR __imp_??1Locale@icu_56@@UAE@XZ
	cmp	esi, esp
	call	__RTC_CheckEsp
	mov	eax, DWORD PTR $T85313[ebp]
; Line 546
	push	edx
	mov	ecx, ebp
	push	eax
	lea	edx, DWORD PTR $LN10@handleDefa
	call	@_RTC_CheckStackVars@8
	pop	eax
	pop	edx
	mov	ecx, DWORD PTR __$EHRec$[ebp]
	mov	DWORD PTR fs:0, ecx
	pop	ecx
	pop	edi
	pop	esi
	pop	ebx
	mov	ecx, DWORD PTR __$ArrayPad$[ebp]
	xor	ecx, ebp
	call	@__security_check_cookie@4
	add	esp, 496				; 000001f0H
	cmp	ebp, esp
	call	__RTC_CheckEsp
	mov	esp, ebp
	pop	ebp
	ret	12					; 0000000cH
$LN10@handleDefa:
	DD	1
	DD	$LN9@handleDefa
$LN9@handleDefa:
	DD	-248					; ffffff08H
	DD	204					; 000000ccH
	DD	$LN7@handleDefa
$LN7@handleDefa:
	DB	108					; 0000006cH
	DB	111					; 0000006fH
	DB	99					; 00000063H
	DB	0
_TEXT	ENDS
;	COMDAT text$x
text$x	SEGMENT
__unwindfunclet$?handleDefault@CalendarService@icu_56@@UBEPAVUObject@2@ABVICUServiceKey@2@PAVUnicodeString@2@AAW4UErrorCode@@@Z$0:
	mov	esi, esp
	lea	ecx, DWORD PTR _loc$[ebp]
	call	DWORD PTR __imp_??1Locale@icu_56@@UAE@XZ
	cmp	esi, esp
	jmp	__RTC_CheckEsp
__unwindfunclet$?handleDefault@CalendarService@icu_56@@UBEPAVUObject@2@ABVICUServiceKey@2@PAVUnicodeString@2@AAW4UErrorCode@@@Z$1:
	mov	esi, esp
	mov	eax, DWORD PTR $T85310[ebp]
	push	eax
	call	DWORD PTR __imp_??3UMemory@icu_56@@SAXPAX@Z
	add	esp, 4
	cmp	esi, esp
	jmp	__RTC_CheckEsp
__ehhandler$?handleDefault@CalendarService@icu_56@@UBEPAVUObject@2@ABVICUServiceKey@2@PAVUnicodeString@2@AAW4UErrorCode@@@Z:
	mov	edx, DWORD PTR [esp+8]
	lea	eax, DWORD PTR [edx+12]
	mov	ecx, DWORD PTR [edx-500]
	xor	ecx, eax
	call	@__security_check_cookie@4
	mov	ecx, DWORD PTR [edx-4]
	xor	ecx, eax
	call	@__security_check_cookie@4
	mov	eax, OFFSET __ehfuncinfo$?handleDefault@CalendarService@icu_56@@UBEPAVUObject@2@ABVICUServiceKey@2@PAVUnicodeString@2@AAW4UErrorCode@@@Z
	jmp	___CxxFrameHandler3
text$x	ENDS
?handleDefault@CalendarService@icu_56@@UBEPAVUObject@2@ABVICUServiceKey@2@PAVUnicodeString@2@AAW4UErrorCode@@@Z ENDP ; icu_56::CalendarService::handleDefault
EXTRN	__imp_?countFactories@ICUService@icu_56@@IBEHXZ:PROC
; Function compile flags: /Odtp /RTCsu /ZI
;	COMDAT ?isDefault@CalendarService@icu_56@@UBECXZ
_TEXT	SEGMENT
_this$ = -8						; size = 4
?isDefault@CalendarService@icu_56@@UBECXZ PROC		; icu_56::CalendarService::isDefault, COMDAT
; _this$ = ecx
; Line 548
	push	ebp
	mov	ebp, esp
	sub	esp, 204				; 000000ccH
	push	ebx
	push	esi
	push	edi
	push	ecx
	lea	edi, DWORD PTR [ebp-204]
	mov	ecx, 51					; 00000033H
	mov	eax, -858993460				; ccccccccH
	rep stosd
	pop	ecx
	mov	DWORD PTR _this$[ebp], ecx
; Line 549
	mov	esi, esp
	mov	ecx, DWORD PTR _this$[ebp]
	call	DWORD PTR __imp_?countFactories@ICUService@icu_56@@IBEHXZ
	cmp	esi, esp
	call	__RTC_CheckEsp
	cmp	eax, 1
	sete	al
; Line 550
	pop	edi
	pop	esi
	pop	ebx
	add	esp, 204				; 000000ccH
	cmp	ebp, esp
	call	__RTC_CheckEsp
	mov	esp, ebp
	pop	ebp
	ret	0
?isDefault@CalendarService@icu_56@@UBECXZ ENDP		; icu_56::CalendarService::isDefault
; Function compile flags: /Odtp /RTCsu /ZI
_TEXT	ENDS
;	COMDAT ??_GCalendarService@icu_56@@UAEPAXI@Z
_TEXT	SEGMENT
_this$ = -8						; size = 4
___flags$ = 8						; size = 4
??_GCalendarService@icu_56@@UAEPAXI@Z PROC		; icu_56::CalendarService::`scalar deleting destructor', COMDAT
; _this$ = ecx
	push	ebp
	mov	ebp, esp
	sub	esp, 204				; 000000ccH
	push	ebx
	push	esi
	push	edi
	push	ecx
	lea	edi, DWORD PTR [ebp-204]
	mov	ecx, 51					; 00000033H
	mov	eax, -858993460				; ccccccccH
	rep stosd
	pop	ecx
	mov	DWORD PTR _this$[ebp], ecx
	mov	ecx, DWORD PTR _this$[ebp]
	call	??1CalendarService@icu_56@@UAE@XZ	; icu_56::CalendarService::~CalendarService
	mov	eax, DWORD PTR ___flags$[ebp]
	and	eax, 1
	je	SHORT $LN1@scalar@6
	mov	esi, esp
	mov	eax, DWORD PTR _this$[ebp]
	push	eax
	call	DWORD PTR __imp_??3UMemory@icu_56@@SAXPAX@Z
	add	esp, 4
	cmp	esi, esp
	call	__RTC_CheckEsp
$LN1@scalar@6:
	mov	eax, DWORD PTR _this$[ebp]
	pop	edi
	pop	esi
	pop	ebx
	add	esp, 204				; 000000ccH
	cmp	ebp, esp
	call	__RTC_CheckEsp
	mov	esp, ebp
	pop	ebp
	ret	4
??_GCalendarService@icu_56@@UAEPAXI@Z ENDP		; icu_56::CalendarService::`scalar deleting destructor'
_TEXT	ENDS
PUBLIC	?registerFactory@Calendar@icu_56@@SAPBXPAVICUServiceFactory@2@AAW4UErrorCode@@@Z ; icu_56::Calendar::registerFactory
; Function compile flags: /Odtp /RTCsu /ZI
;	COMDAT ?registerFactory@Calendar@icu_56@@SAPBXPAVICUServiceFactory@2@AAW4UErrorCode@@@Z
_TEXT	SEGMENT
tv71 = -196						; size = 4
_toAdopt$ = 8						; size = 4
_status$ = 12						; size = 4
?registerFactory@Calendar@icu_56@@SAPBXPAVICUServiceFactory@2@AAW4UErrorCode@@@Z PROC ; icu_56::Calendar::registerFactory, COMDAT
; Line 604
	push	ebp
	mov	ebp, esp
	sub	esp, 196				; 000000c4H
	push	ebx
	push	esi
	push	edi
	lea	edi, DWORD PTR [ebp-196]
	mov	ecx, 49					; 00000031H
	mov	eax, -858993460				; ccccccccH
	rep stosd
; Line 605
	mov	eax, DWORD PTR _status$[ebp]
	push	eax
	call	?getCalendarService@icu_56@@YAPAVICULocaleService@1@AAW4UErrorCode@@@Z ; icu_56::getCalendarService
	add	esp, 4
	mov	DWORD PTR tv71[ebp], eax
	mov	esi, esp
	mov	ecx, DWORD PTR _status$[ebp]
	push	ecx
	mov	edx, DWORD PTR _toAdopt$[ebp]
	push	edx
	mov	eax, DWORD PTR tv71[ebp]
	mov	edx, DWORD PTR [eax]
	mov	ecx, DWORD PTR tv71[ebp]
	mov	eax, DWORD PTR [edx+32]
	call	eax
	cmp	esi, esp
	call	__RTC_CheckEsp
; Line 606
	pop	edi
	pop	esi
	pop	ebx
	add	esp, 196				; 000000c4H
	cmp	ebp, esp
	call	__RTC_CheckEsp
	mov	esp, ebp
	pop	ebp
	ret	0
?registerFactory@Calendar@icu_56@@SAPBXPAVICUServiceFactory@2@AAW4UErrorCode@@@Z ENDP ; icu_56::Calendar::registerFactory
_TEXT	ENDS
PUBLIC	?umtx_initOnce@icu_56@@YAXAAUUInitOnce@1@P6AXAAW4UErrorCode@@@Z1@Z ; icu_56::umtx_initOnce
; Function compile flags: /Odtp /RTCsu /ZI
;	COMDAT ?getCalendarService@icu_56@@YAPAVICULocaleService@1@AAW4UErrorCode@@@Z
_TEXT	SEGMENT
_status$ = 8						; size = 4
?getCalendarService@icu_56@@YAPAVICULocaleService@1@AAW4UErrorCode@@@Z PROC ; icu_56::getCalendarService, COMDAT
; Line 598
	push	ebp
	mov	ebp, esp
	sub	esp, 192				; 000000c0H
	push	ebx
	push	esi
	push	edi
	lea	edi, DWORD PTR [ebp-192]
	mov	ecx, 48					; 00000030H
	mov	eax, -858993460				; ccccccccH
	rep stosd
; Line 599
	mov	eax, DWORD PTR _status$[ebp]
	push	eax
	push	OFFSET ?initCalendarService@icu_56@@YAXAAW4UErrorCode@@@Z ; icu_56::initCalendarService
	push	OFFSET _gServiceInitOnce
	call	?umtx_initOnce@icu_56@@YAXAAUUInitOnce@1@P6AXAAW4UErrorCode@@@Z1@Z ; icu_56::umtx_initOnce
	add	esp, 12					; 0000000cH
; Line 600
	mov	eax, DWORD PTR _gService
; Line 601
	pop	edi
	pop	esi
	pop	ebx
	add	esp, 192				; 000000c0H
	cmp	ebp, esp
	call	__RTC_CheckEsp
	mov	esp, ebp
	pop	ebp
	ret	0
?getCalendarService@icu_56@@YAPAVICULocaleService@1@AAW4UErrorCode@@@Z ENDP ; icu_56::getCalendarService
_TEXT	ENDS
PUBLIC	?umtx_loadAcquire@icu_56@@YAHACJ@Z		; icu_56::umtx_loadAcquire
EXTRN	__imp_?umtx_initImplPostInit@icu_56@@YAXAAUUInitOnce@1@@Z:PROC
EXTRN	__imp_?umtx_initImplPreInit@icu_56@@YACAAUUInitOnce@1@@Z:PROC
; Function compile flags: /Odtp /RTCsu /ZI
;	COMDAT ?umtx_initOnce@icu_56@@YAXAAUUInitOnce@1@P6AXAAW4UErrorCode@@@Z1@Z
_TEXT	SEGMENT
_uio$ = 8						; size = 4
_fp$ = 12						; size = 4
_errCode$ = 16						; size = 4
?umtx_initOnce@icu_56@@YAXAAUUInitOnce@1@P6AXAAW4UErrorCode@@@Z1@Z PROC ; icu_56::umtx_initOnce, COMDAT
; File d:\mozilla\intl\icu\source\common\umutex.h
; Line 257
	push	ebp
	mov	ebp, esp
	sub	esp, 192				; 000000c0H
	push	ebx
	push	esi
	push	edi
	lea	edi, DWORD PTR [ebp-192]
	mov	ecx, 48					; 00000030H
	mov	eax, -858993460				; ccccccccH
	rep stosd
; Line 258
	mov	eax, DWORD PTR _errCode$[ebp]
	mov	ecx, DWORD PTR [eax]
	push	ecx
	call	?U_FAILURE@@YACW4UErrorCode@@@Z		; U_FAILURE
	add	esp, 4
	movsx	edx, al
	test	edx, edx
	je	SHORT $LN4@umtx_initO
; Line 259
	jmp	$LN5@umtx_initO
$LN4@umtx_initO:
; Line 261
	mov	eax, DWORD PTR _uio$[ebp]
	push	eax
	call	?umtx_loadAcquire@icu_56@@YAHACJ@Z	; icu_56::umtx_loadAcquire
	add	esp, 4
	cmp	eax, 2
	je	SHORT $LN3@umtx_initO
	mov	esi, esp
	mov	eax, DWORD PTR _uio$[ebp]
	push	eax
	call	DWORD PTR __imp_?umtx_initImplPreInit@icu_56@@YACAAUUInitOnce@1@@Z
	add	esp, 4
	cmp	esi, esp
	call	__RTC_CheckEsp
	movsx	ecx, al
	test	ecx, ecx
	je	SHORT $LN3@umtx_initO
; Line 263
	mov	esi, esp
	mov	eax, DWORD PTR _errCode$[ebp]
	push	eax
	call	DWORD PTR _fp$[ebp]
	add	esp, 4
	cmp	esi, esp
	call	__RTC_CheckEsp
; Line 264
	mov	eax, DWORD PTR _uio$[ebp]
	mov	ecx, DWORD PTR _errCode$[ebp]
	mov	edx, DWORD PTR [ecx]
	mov	DWORD PTR [eax+4], edx
; Line 265
	mov	esi, esp
	mov	eax, DWORD PTR _uio$[ebp]
	push	eax
	call	DWORD PTR __imp_?umtx_initImplPostInit@icu_56@@YAXAAUUInitOnce@1@@Z
	add	esp, 4
	cmp	esi, esp
	call	__RTC_CheckEsp
; Line 266
	jmp	SHORT $LN5@umtx_initO
$LN3@umtx_initO:
; Line 268
	mov	eax, DWORD PTR _uio$[ebp]
	mov	ecx, DWORD PTR [eax+4]
	push	ecx
	call	?U_FAILURE@@YACW4UErrorCode@@@Z		; U_FAILURE
	add	esp, 4
	movsx	edx, al
	test	edx, edx
	je	SHORT $LN5@umtx_initO
; Line 269
	mov	eax, DWORD PTR _errCode$[ebp]
	mov	ecx, DWORD PTR _uio$[ebp]
	mov	edx, DWORD PTR [ecx+4]
	mov	DWORD PTR [eax], edx
$LN5@umtx_initO:
; Line 272
	pop	edi
	pop	esi
	pop	ebx
	add	esp, 192				; 000000c0H
	cmp	ebp, esp
	call	__RTC_CheckEsp
	mov	esp, ebp
	pop	ebp
	ret	0
?umtx_initOnce@icu_56@@YAXAAUUInitOnce@1@P6AXAAW4UErrorCode@@@Z1@Z ENDP ; icu_56::umtx_initOnce
_TEXT	ENDS
EXTRN	__imp__InterlockedCompareExchange@12:PROC
; Function compile flags: /Odtp /RTCsu /ZI
;	COMDAT ?umtx_loadAcquire@icu_56@@YAHACJ@Z
_TEXT	SEGMENT
_var$ = 8						; size = 4
?umtx_loadAcquire@icu_56@@YAHACJ@Z PROC			; icu_56::umtx_loadAcquire, COMDAT
; Line 102
	push	ebp
	mov	ebp, esp
	sub	esp, 192				; 000000c0H
	push	ebx
	push	esi
	push	edi
	lea	edi, DWORD PTR [ebp-192]
	mov	ecx, 48					; 00000030H
	mov	eax, -858993460				; ccccccccH
	rep stosd
; Line 103
	mov	esi, esp
	push	0
	push	0
	mov	eax, DWORD PTR _var$[ebp]
	push	eax
	call	DWORD PTR __imp__InterlockedCompareExchange@12
	cmp	esi, esp
	call	__RTC_CheckEsp
; Line 104
	pop	edi
	pop	esi
	pop	ebx
	add	esp, 192				; 000000c0H
	cmp	ebp, esp
	call	__RTC_CheckEsp
	mov	esp, ebp
	pop	ebp
	ret	0
?umtx_loadAcquire@icu_56@@YAHACJ@Z ENDP			; icu_56::umtx_loadAcquire
_TEXT	ENDS
PUBLIC	??0BasicCalendarFactory@icu_56@@QAE@XZ		; icu_56::BasicCalendarFactory::BasicCalendarFactory
PUBLIC	??0CalendarService@icu_56@@QAE@XZ		; icu_56::CalendarService::CalendarService
EXTRN	_ucln_i18n_registerCleanup_56:PROC
;	COMDAT xdata$x
; File d:\mozilla\intl\icu\source\i18n\calendar.cpp
xdata$x	SEGMENT
__unwindtable$?initCalendarService@icu_56@@YAXAAW4UErrorCode@@@Z DD 0ffffffffH
	DD	FLAT:__unwindfunclet$?initCalendarService@icu_56@@YAXAAW4UErrorCode@@@Z$0
	DD	0ffffffffH
	DD	FLAT:__unwindfunclet$?initCalendarService@icu_56@@YAXAAW4UErrorCode@@@Z$1
__ehfuncinfo$?initCalendarService@icu_56@@YAXAAW4UErrorCode@@@Z DD 019930522H
	DD	02H
	DD	FLAT:__unwindtable$?initCalendarService@icu_56@@YAXAAW4UErrorCode@@@Z
	DD	2 DUP(00H)
	DD	2 DUP(00H)
	DD	00H
	DD	01H
; Function compile flags: /Odtp /RTCsu /ZI
xdata$x	ENDS
;	COMDAT ?initCalendarService@icu_56@@YAXAAW4UErrorCode@@@Z
_TEXT	SEGMENT
tv144 = -280						; size = 4
tv129 = -280						; size = 4
tv76 = -280						; size = 4
$T85339 = -272						; size = 4
$T85340 = -260						; size = 4
$T85343 = -248						; size = 4
$T85344 = -236						; size = 4
$T85347 = -224						; size = 4
$T85348 = -212						; size = 4
__$EHRec$ = -12						; size = 12
_status$ = 8						; size = 4
?initCalendarService@icu_56@@YAXAAW4UErrorCode@@@Z PROC	; icu_56::initCalendarService, COMDAT
; Line 566
	push	ebp
	mov	ebp, esp
	push	-1
	push	__ehhandler$?initCalendarService@icu_56@@YAXAAW4UErrorCode@@@Z
	mov	eax, DWORD PTR fs:0
	push	eax
	sub	esp, 268				; 0000010cH
	push	ebx
	push	esi
	push	edi
	lea	edi, DWORD PTR [ebp-280]
	mov	ecx, 67					; 00000043H
	mov	eax, -858993460				; ccccccccH
	rep stosd
	mov	eax, DWORD PTR ___security_cookie
	xor	eax, ebp
	push	eax
	lea	eax, DWORD PTR __$EHRec$[ebp]
	mov	DWORD PTR fs:0, eax
; Line 570
	push	OFFSET _calendar_cleanup
	push	9
	call	_ucln_i18n_registerCleanup_56
	add	esp, 8
; Line 571
	mov	esi, esp
	push	360					; 00000168H
	call	DWORD PTR __imp_??2UMemory@icu_56@@SAPAXI@Z
	add	esp, 4
	cmp	esi, esp
	call	__RTC_CheckEsp
	mov	DWORD PTR $T85340[ebp], eax
	mov	DWORD PTR __$EHRec$[ebp+8], 0
	cmp	DWORD PTR $T85340[ebp], 0
	je	SHORT $LN5@initCalend
	mov	ecx, DWORD PTR $T85340[ebp]
	call	??0CalendarService@icu_56@@QAE@XZ	; icu_56::CalendarService::CalendarService
	mov	DWORD PTR tv76[ebp], eax
	jmp	SHORT $LN6@initCalend
$LN5@initCalend:
	mov	DWORD PTR tv76[ebp], 0
$LN6@initCalend:
	mov	eax, DWORD PTR tv76[ebp]
	mov	DWORD PTR $T85339[ebp], eax
	mov	DWORD PTR __$EHRec$[ebp+8], -1
	mov	ecx, DWORD PTR $T85339[ebp]
	mov	DWORD PTR _gService, ecx
; Line 572
	cmp	DWORD PTR _gService, 0
	jne	SHORT $LN2@initCalend
; Line 573
	mov	eax, DWORD PTR _status$[ebp]
	mov	DWORD PTR [eax], 7
; Line 574
	jmp	$LN3@initCalend
$LN2@initCalend:
; Line 581
	mov	esi, esp
	push	72					; 00000048H
	call	DWORD PTR __imp_??2UMemory@icu_56@@SAPAXI@Z
	add	esp, 4
	cmp	esi, esp
	call	__RTC_CheckEsp
	mov	DWORD PTR $T85344[ebp], eax
	mov	DWORD PTR __$EHRec$[ebp+8], 1
	cmp	DWORD PTR $T85344[ebp], 0
	je	SHORT $LN7@initCalend
	mov	ecx, DWORD PTR $T85344[ebp]
	call	??0BasicCalendarFactory@icu_56@@QAE@XZ	; icu_56::BasicCalendarFactory::BasicCalendarFactory
	mov	DWORD PTR tv129[ebp], eax
	jmp	SHORT $LN8@initCalend
$LN7@initCalend:
	mov	DWORD PTR tv129[ebp], 0
$LN8@initCalend:
	mov	eax, DWORD PTR tv129[ebp]
	mov	DWORD PTR $T85343[ebp], eax
	mov	DWORD PTR __$EHRec$[ebp+8], -1
	mov	esi, esp
	mov	ecx, DWORD PTR _status$[ebp]
	push	ecx
	mov	edx, DWORD PTR $T85343[ebp]
	push	edx
	mov	eax, DWORD PTR _gService
	mov	edx, DWORD PTR [eax]
	mov	ecx, DWORD PTR _gService
	mov	eax, DWORD PTR [edx+32]
	call	eax
	cmp	esi, esp
	call	__RTC_CheckEsp
; Line 587
	mov	eax, DWORD PTR _status$[ebp]
	mov	ecx, DWORD PTR [eax]
	push	ecx
	call	?U_FAILURE@@YACW4UErrorCode@@@Z		; U_FAILURE
	add	esp, 4
	movsx	edx, al
	test	edx, edx
	je	SHORT $LN3@initCalend
; Line 591
	mov	eax, DWORD PTR _gService
	mov	DWORD PTR $T85348[ebp], eax
	mov	ecx, DWORD PTR $T85348[ebp]
	mov	DWORD PTR $T85347[ebp], ecx
	cmp	DWORD PTR $T85347[ebp], 0
	je	SHORT $LN9@initCalend
	mov	esi, esp
	push	1
	mov	edx, DWORD PTR $T85347[ebp]
	mov	eax, DWORD PTR [edx]
	mov	ecx, DWORD PTR $T85347[ebp]
	mov	edx, DWORD PTR [eax]
	call	edx
	cmp	esi, esp
	call	__RTC_CheckEsp
	mov	DWORD PTR tv144[ebp], eax
	jmp	SHORT $LN10@initCalend
$LN9@initCalend:
	mov	DWORD PTR tv144[ebp], 0
$LN10@initCalend:
; Line 592
	mov	DWORD PTR _gService, 0
$LN3@initCalend:
; Line 594
	mov	ecx, DWORD PTR __$EHRec$[ebp]
	mov	DWORD PTR fs:0, ecx
	pop	ecx
	pop	edi
	pop	esi
	pop	ebx
	add	esp, 280				; 00000118H
	cmp	ebp, esp
	call	__RTC_CheckEsp
	mov	esp, ebp
	pop	ebp
	ret	0
_TEXT	ENDS
;	COMDAT text$x
text$x	SEGMENT
__unwindfunclet$?initCalendarService@icu_56@@YAXAAW4UErrorCode@@@Z$0:
	mov	esi, esp
	mov	eax, DWORD PTR $T85340[ebp]
	push	eax
	call	DWORD PTR __imp_??3UMemory@icu_56@@SAXPAX@Z
	add	esp, 4
	cmp	esi, esp
	jmp	__RTC_CheckEsp
__unwindfunclet$?initCalendarService@icu_56@@YAXAAW4UErrorCode@@@Z$1:
	mov	esi, esp
	mov	eax, DWORD PTR $T85344[ebp]
	push	eax
	call	DWORD PTR __imp_??3UMemory@icu_56@@SAXPAX@Z
	add	esp, 4
	cmp	esi, esp
	jmp	__RTC_CheckEsp
__ehhandler$?initCalendarService@icu_56@@YAXAAW4UErrorCode@@@Z:
	mov	edx, DWORD PTR [esp+8]
	lea	eax, DWORD PTR [edx+12]
	mov	ecx, DWORD PTR [edx-284]
	xor	ecx, eax
	call	@__security_check_cookie@4
	mov	eax, OFFSET __ehfuncinfo$?initCalendarService@icu_56@@YAXAAW4UErrorCode@@@Z
	jmp	___CxxFrameHandler3
text$x	ENDS
?initCalendarService@icu_56@@YAXAAW4UErrorCode@@@Z ENDP	; icu_56::initCalendarService
PUBLIC	?reset@UInitOnce@icu_56@@QAEXXZ			; icu_56::UInitOnce::reset
; Function compile flags: /Odtp /RTCsu /ZI
;	COMDAT _calendar_cleanup
_TEXT	SEGMENT
tv75 = -220						; size = 4
$T85361 = -212						; size = 4
$T85362 = -200						; size = 4
_calendar_cleanup PROC					; COMDAT
; Line 71
	push	ebp
	mov	ebp, esp
	sub	esp, 220				; 000000dcH
	push	ebx
	push	esi
	push	edi
	lea	edi, DWORD PTR [ebp-220]
	mov	ecx, 55					; 00000037H
	mov	eax, -858993460				; ccccccccH
	rep stosd
; Line 73
	cmp	DWORD PTR _gService, 0
	je	SHORT $LN1@calendar_c
; Line 74
	mov	eax, DWORD PTR _gService
	mov	DWORD PTR $T85362[ebp], eax
	mov	ecx, DWORD PTR $T85362[ebp]
	mov	DWORD PTR $T85361[ebp], ecx
	cmp	DWORD PTR $T85361[ebp], 0
	je	SHORT $LN4@calendar_c
	mov	esi, esp
	push	1
	mov	edx, DWORD PTR $T85361[ebp]
	mov	eax, DWORD PTR [edx]
	mov	ecx, DWORD PTR $T85361[ebp]
	mov	edx, DWORD PTR [eax]
	call	edx
	cmp	esi, esp
	call	__RTC_CheckEsp
	mov	DWORD PTR tv75[ebp], eax
	jmp	SHORT $LN5@calendar_c
$LN4@calendar_c:
	mov	DWORD PTR tv75[ebp], 0
$LN5@calendar_c:
; Line 75
	mov	DWORD PTR _gService, 0
$LN1@calendar_c:
; Line 77
	mov	ecx, OFFSET _gServiceInitOnce
	call	?reset@UInitOnce@icu_56@@QAEXXZ		; icu_56::UInitOnce::reset
; Line 79
	mov	al, 1
; Line 80
	pop	edi
	pop	esi
	pop	ebx
	add	esp, 220				; 000000dcH
	cmp	ebp, esp
	call	__RTC_CheckEsp
	mov	esp, ebp
	pop	ebp
	ret	0
_calendar_cleanup ENDP
; Function compile flags: /Odtp /RTCsu /ZI
_TEXT	ENDS
;	COMDAT ?reset@UInitOnce@icu_56@@QAEXXZ
_TEXT	SEGMENT
_this$ = -8						; size = 4
?reset@UInitOnce@icu_56@@QAEXXZ PROC			; icu_56::UInitOnce::reset, COMDAT
; _this$ = ecx
; File d:\mozilla\intl\icu\source\common\umutex.h
; Line 220
	push	ebp
	mov	ebp, esp
	sub	esp, 204				; 000000ccH
	push	ebx
	push	esi
	push	edi
	push	ecx
	lea	edi, DWORD PTR [ebp-204]
	mov	ecx, 51					; 00000033H
	mov	eax, -858993460				; ccccccccH
	rep stosd
	pop	ecx
	mov	DWORD PTR _this$[ebp], ecx
	mov	eax, DWORD PTR _this$[ebp]
	mov	DWORD PTR [eax], 0
	pop	edi
	pop	esi
	pop	ebx
	mov	esp, ebp
	pop	ebp
	ret	0
?reset@UInitOnce@icu_56@@QAEXXZ ENDP			; icu_56::UInitOnce::reset
_TEXT	ENDS
EXTRN	__imp_??0LocaleKeyFactory@icu_56@@IAE@H@Z:PROC
; Function compile flags: /Odtp /RTCsu /ZI
;	COMDAT ??0BasicCalendarFactory@icu_56@@QAE@XZ
_TEXT	SEGMENT
_this$ = -8						; size = 4
??0BasicCalendarFactory@icu_56@@QAE@XZ PROC		; icu_56::BasicCalendarFactory::BasicCalendarFactory, COMDAT
; _this$ = ecx
; File d:\mozilla\intl\icu\source\i18n\calendar.cpp
; Line 409
	push	ebp
	mov	ebp, esp
	sub	esp, 204				; 000000ccH
	push	ebx
	push	esi
	push	edi
	push	ecx
	lea	edi, DWORD PTR [ebp-204]
	mov	ecx, 51					; 00000033H
	mov	eax, -858993460				; ccccccccH
	rep stosd
	pop	ecx
	mov	DWORD PTR _this$[ebp], ecx
	mov	esi, esp
	push	1
	mov	ecx, DWORD PTR _this$[ebp]
	call	DWORD PTR __imp_??0LocaleKeyFactory@icu_56@@IAE@H@Z
	cmp	esi, esp
	call	__RTC_CheckEsp
	mov	eax, DWORD PTR _this$[ebp]
	mov	DWORD PTR [eax], OFFSET ??_7BasicCalendarFactory@icu_56@@6B@
	mov	eax, DWORD PTR _this$[ebp]
	pop	edi
	pop	esi
	pop	ebx
	add	esp, 204				; 000000ccH
	cmp	ebp, esp
	call	__RTC_CheckEsp
	mov	esp, ebp
	pop	ebp
	ret	0
??0BasicCalendarFactory@icu_56@@QAE@XZ ENDP		; icu_56::BasicCalendarFactory::BasicCalendarFactory
_TEXT	ENDS
PUBLIC	??0DefaultCalendarFactory@icu_56@@QAE@XZ	; icu_56::DefaultCalendarFactory::DefaultCalendarFactory
PUBLIC	??_C@_1BC@NAAOKKNA@?$AAC?$AAa?$AAl?$AAe?$AAn?$AAd?$AAa?$AAr?$AA?$AA@ ; `string'
PUBLIC	__$ArrayPad$
EXTRN	__imp_?registerFactory@ICUService@icu_56@@UAEPBXPAVICUServiceFactory@2@AAW4UErrorCode@@@Z:PROC
EXTRN	__imp_??0ICULocaleService@icu_56@@QAE@ABVUnicodeString@1@@Z:PROC
;	COMDAT ??_C@_1BC@NAAOKKNA@?$AAC?$AAa?$AAl?$AAe?$AAn?$AAd?$AAa?$AAr?$AA?$AA@
CONST	SEGMENT
??_C@_1BC@NAAOKKNA@?$AAC?$AAa?$AAl?$AAe?$AAn?$AAd?$AAa?$AAr?$AA?$AA@ DB 'C'
	DB	00H, 'a', 00H, 'l', 00H, 'e', 00H, 'n', 00H, 'd', 00H, 'a', 00H
	DB	'r', 00H, 00H, 00H				; `string'
CONST	ENDS
;	COMDAT xdata$x
xdata$x	SEGMENT
__unwindtable$??0CalendarService@icu_56@@QAE@XZ DD 0ffffffffH
	DD	FLAT:__unwindfunclet$??0CalendarService@icu_56@@QAE@XZ$0
	DD	00H
	DD	FLAT:__unwindfunclet$??0CalendarService@icu_56@@QAE@XZ$1
	DD	0ffffffffH
	DD	FLAT:__unwindfunclet$??0CalendarService@icu_56@@QAE@XZ$1
	DD	02H
	DD	FLAT:__unwindfunclet$??0CalendarService@icu_56@@QAE@XZ$2
__ehfuncinfo$??0CalendarService@icu_56@@QAE@XZ DD 019930522H
	DD	04H
	DD	FLAT:__unwindtable$??0CalendarService@icu_56@@QAE@XZ
	DD	2 DUP(00H)
	DD	2 DUP(00H)
	DD	00H
	DD	01H
; Function compile flags: /Odtp /RTCsu /ZI
xdata$x	ENDS
;	COMDAT ??0CalendarService@icu_56@@QAE@XZ
_TEXT	SEGMENT
tv139 = -336						; size = 4
tv142 = -332						; size = 4
tv137 = -332						; size = 4
$T76133 = -324						; size = 64
$T85373 = -252						; size = 4
$T85374 = -240						; size = 4
_status$ = -36						; size = 4
_this$ = -24						; size = 4
__$ArrayPad$ = -16					; size = 4
__$EHRec$ = -12						; size = 12
??0CalendarService@icu_56@@QAE@XZ PROC			; icu_56::CalendarService::CalendarService, COMDAT
; _this$ = ecx
; Line 507
	push	ebp
	mov	ebp, esp
	push	-1
	push	__ehhandler$??0CalendarService@icu_56@@QAE@XZ
	mov	eax, DWORD PTR fs:0
	push	eax
	sub	esp, 324				; 00000144H
	push	ebx
	push	esi
	push	edi
	push	ecx
	lea	edi, DWORD PTR [ebp-336]
	mov	ecx, 81					; 00000051H
	mov	eax, -858993460				; ccccccccH
	rep stosd
	pop	ecx
	mov	eax, DWORD PTR ___security_cookie
	xor	eax, ebp
	mov	DWORD PTR __$ArrayPad$[ebp], eax
	push	eax
	lea	eax, DWORD PTR __$EHRec$[ebp]
	mov	DWORD PTR fs:0, eax
	mov	DWORD PTR _this$[ebp], ecx
	mov	esi, esp
	push	-1
	push	OFFSET ??_C@_1BC@NAAOKKNA@?$AAC?$AAa?$AAl?$AAe?$AAn?$AAd?$AAa?$AAr?$AA?$AA@
	push	1
	lea	ecx, DWORD PTR $T76133[ebp]
	call	DWORD PTR __imp_??0UnicodeString@icu_56@@QAE@CPB_WH@Z
	cmp	esi, esp
	call	__RTC_CheckEsp
	mov	DWORD PTR tv142[ebp], eax
	mov	eax, DWORD PTR tv142[ebp]
	mov	DWORD PTR tv139[ebp], eax
	mov	DWORD PTR __$EHRec$[ebp+8], 0
	mov	esi, esp
	mov	ecx, DWORD PTR tv139[ebp]
	push	ecx
	mov	ecx, DWORD PTR _this$[ebp]
	call	DWORD PTR __imp_??0ICULocaleService@icu_56@@QAE@ABVUnicodeString@1@@Z
	cmp	esi, esp
	call	__RTC_CheckEsp
	mov	BYTE PTR __$EHRec$[ebp+8], 2
	mov	esi, esp
	lea	ecx, DWORD PTR $T76133[ebp]
	call	DWORD PTR __imp_??1UnicodeString@icu_56@@UAE@XZ
	cmp	esi, esp
	call	__RTC_CheckEsp
	mov	eax, DWORD PTR _this$[ebp]
	mov	DWORD PTR [eax], OFFSET ??_7CalendarService@icu_56@@6B@
; Line 508
	mov	DWORD PTR _status$[ebp], 0
; Line 509
	mov	esi, esp
	push	136					; 00000088H
	call	DWORD PTR __imp_??2UMemory@icu_56@@SAPAXI@Z
	add	esp, 4
	cmp	esi, esp
	call	__RTC_CheckEsp
	mov	DWORD PTR $T85374[ebp], eax
	mov	BYTE PTR __$EHRec$[ebp+8], 3
	cmp	DWORD PTR $T85374[ebp], 0
	je	SHORT $LN3@CalendarSe
	mov	ecx, DWORD PTR $T85374[ebp]
	call	??0DefaultCalendarFactory@icu_56@@QAE@XZ ; icu_56::DefaultCalendarFactory::DefaultCalendarFactory
	mov	DWORD PTR tv137[ebp], eax
	jmp	SHORT $LN4@CalendarSe
$LN3@CalendarSe:
	mov	DWORD PTR tv137[ebp], 0
$LN4@CalendarSe:
	mov	eax, DWORD PTR tv137[ebp]
	mov	DWORD PTR $T85373[ebp], eax
	mov	BYTE PTR __$EHRec$[ebp+8], 2
	mov	esi, esp
	lea	ecx, DWORD PTR _status$[ebp]
	push	ecx
	mov	edx, DWORD PTR $T85373[ebp]
	push	edx
	mov	ecx, DWORD PTR _this$[ebp]
	call	DWORD PTR __imp_?registerFactory@ICUService@icu_56@@UAEPBXPAVICUServiceFactory@2@AAW4UErrorCode@@@Z
	cmp	esi, esp
	call	__RTC_CheckEsp
; Line 510
	mov	DWORD PTR __$EHRec$[ebp+8], -1
	mov	eax, DWORD PTR _this$[ebp]
	push	edx
	mov	ecx, ebp
	push	eax
	lea	edx, DWORD PTR $LN11@CalendarSe
	call	@_RTC_CheckStackVars@8
	pop	eax
	pop	edx
	mov	ecx, DWORD PTR __$EHRec$[ebp]
	mov	DWORD PTR fs:0, ecx
	pop	ecx
	pop	edi
	pop	esi
	pop	ebx
	mov	ecx, DWORD PTR __$ArrayPad$[ebp]
	xor	ecx, ebp
	call	@__security_check_cookie@4
	add	esp, 336				; 00000150H
	cmp	ebp, esp
	call	__RTC_CheckEsp
	mov	esp, ebp
	pop	ebp
	ret	0
	npad	2
$LN11@CalendarSe:
	DD	1
	DD	$LN10@CalendarSe
$LN10@CalendarSe:
	DD	-36					; ffffffdcH
	DD	4
	DD	$LN8@CalendarSe
$LN8@CalendarSe:
	DB	115					; 00000073H
	DB	116					; 00000074H
	DB	97					; 00000061H
	DB	116					; 00000074H
	DB	117					; 00000075H
	DB	115					; 00000073H
	DB	0
_TEXT	ENDS
;	COMDAT text$x
text$x	SEGMENT
__unwindfunclet$??0CalendarService@icu_56@@QAE@XZ$0:
	mov	esi, esp
	lea	ecx, DWORD PTR $T76133[ebp]
	call	DWORD PTR __imp_??1UnicodeString@icu_56@@UAE@XZ
	cmp	esi, esp
	jmp	__RTC_CheckEsp
__unwindfunclet$??0CalendarService@icu_56@@QAE@XZ$1:
	mov	esi, esp
	mov	ecx, DWORD PTR _this$[ebp]
	call	DWORD PTR __imp_??1ICULocaleService@icu_56@@UAE@XZ
	cmp	esi, esp
	jmp	__RTC_CheckEsp
__unwindfunclet$??0CalendarService@icu_56@@QAE@XZ$2:
	mov	esi, esp
	mov	eax, DWORD PTR $T85374[ebp]
	push	eax
	call	DWORD PTR __imp_??3UMemory@icu_56@@SAXPAX@Z
	add	esp, 4
	cmp	esi, esp
	jmp	__RTC_CheckEsp
__ehhandler$??0CalendarService@icu_56@@QAE@XZ:
	mov	edx, DWORD PTR [esp+8]
	lea	eax, DWORD PTR [edx+12]
	mov	ecx, DWORD PTR [edx-340]
	xor	ecx, eax
	call	@__security_check_cookie@4
	mov	ecx, DWORD PTR [edx-4]
	xor	ecx, eax
	call	@__security_check_cookie@4
	mov	eax, OFFSET __ehfuncinfo$??0CalendarService@icu_56@@QAE@XZ
	jmp	___CxxFrameHandler3
text$x	ENDS
??0CalendarService@icu_56@@QAE@XZ ENDP			; icu_56::CalendarService::CalendarService
EXTRN	__imp_??0ICUResourceBundleFactory@icu_56@@QAE@XZ:PROC
; Function compile flags: /Odtp /RTCsu /ZI
;	COMDAT ??0DefaultCalendarFactory@icu_56@@QAE@XZ
_TEXT	SEGMENT
_this$ = -8						; size = 4
??0DefaultCalendarFactory@icu_56@@QAE@XZ PROC		; icu_56::DefaultCalendarFactory::DefaultCalendarFactory, COMDAT
; _this$ = ecx
; Line 479
	push	ebp
	mov	ebp, esp
	sub	esp, 204				; 000000ccH
	push	ebx
	push	esi
	push	edi
	push	ecx
	lea	edi, DWORD PTR [ebp-204]
	mov	ecx, 51					; 00000033H
	mov	eax, -858993460				; ccccccccH
	rep stosd
	pop	ecx
	mov	DWORD PTR _this$[ebp], ecx
	mov	esi, esp
	mov	ecx, DWORD PTR _this$[ebp]
	call	DWORD PTR __imp_??0ICUResourceBundleFactory@icu_56@@QAE@XZ
	cmp	esi, esp
	call	__RTC_CheckEsp
	mov	eax, DWORD PTR _this$[ebp]
	mov	DWORD PTR [eax], OFFSET ??_7DefaultCalendarFactory@icu_56@@6B@
	mov	eax, DWORD PTR _this$[ebp]
	pop	edi
	pop	esi
	pop	ebx
	add	esp, 204				; 000000ccH
	cmp	ebp, esp
	call	__RTC_CheckEsp
	mov	esp, ebp
	pop	ebp
	ret	0
??0DefaultCalendarFactory@icu_56@@QAE@XZ ENDP		; icu_56::DefaultCalendarFactory::DefaultCalendarFactory
_TEXT	ENDS
PUBLIC	?unregister@Calendar@icu_56@@SACPBXAAW4UErrorCode@@@Z ; icu_56::Calendar::unregister
; Function compile flags: /Odtp /RTCsu /ZI
;	COMDAT ?unregister@Calendar@icu_56@@SACPBXAAW4UErrorCode@@@Z
_TEXT	SEGMENT
tv71 = -196						; size = 4
_key$ = 8						; size = 4
_status$ = 12						; size = 4
?unregister@Calendar@icu_56@@SACPBXAAW4UErrorCode@@@Z PROC ; icu_56::Calendar::unregister, COMDAT
; Line 608
	push	ebp
	mov	ebp, esp
	sub	esp, 196				; 000000c4H
	push	ebx
	push	esi
	push	edi
	lea	edi, DWORD PTR [ebp-196]
	mov	ecx, 49					; 00000031H
	mov	eax, -858993460				; ccccccccH
	rep stosd
; Line 609
	mov	eax, DWORD PTR _status$[ebp]
	push	eax
	call	?getCalendarService@icu_56@@YAPAVICULocaleService@1@AAW4UErrorCode@@@Z ; icu_56::getCalendarService
	add	esp, 4
	mov	DWORD PTR tv71[ebp], eax
	mov	esi, esp
	mov	ecx, DWORD PTR _status$[ebp]
	push	ecx
	mov	edx, DWORD PTR _key$[ebp]
	push	edx
	mov	eax, DWORD PTR tv71[ebp]
	mov	edx, DWORD PTR [eax]
	mov	ecx, DWORD PTR tv71[ebp]
	mov	eax, DWORD PTR [edx+36]
	call	eax
	cmp	esi, esp
	call	__RTC_CheckEsp
; Line 610
	pop	edi
	pop	esi
	pop	ebx
	add	esp, 196				; 000000c4H
	cmp	ebp, esp
	call	__RTC_CheckEsp
	mov	esp, ebp
	pop	ebp
	ret	0
?unregister@Calendar@icu_56@@SACPBXAAW4UErrorCode@@@Z ENDP ; icu_56::Calendar::unregister
_TEXT	ENDS
PUBLIC	?setWeekData@Calendar@icu_56@@AAEXABVLocale@2@PBDAAW4UErrorCode@@@Z ; icu_56::Calendar::setWeekData
PUBLIC	?clear@Calendar@icu_56@@QAEXXZ			; icu_56::Calendar::clear
PUBLIC	__real@0000000000000000
PUBLIC	??_7Calendar@icu_56@@6B@			; icu_56::Calendar::`vftable'
PUBLIC	??0Calendar@icu_56@@IAE@AAW4UErrorCode@@@Z	; icu_56::Calendar::Calendar
PUBLIC	??_R4Calendar@icu_56@@6B@			; icu_56::Calendar::`RTTI Complete Object Locator'
PUBLIC	??_R0?AVCalendar@icu_56@@@8			; icu_56::Calendar `RTTI Type Descriptor'
PUBLIC	??_R3Calendar@icu_56@@8				; icu_56::Calendar::`RTTI Class Hierarchy Descriptor'
PUBLIC	??_R2Calendar@icu_56@@8				; icu_56::Calendar::`RTTI Base Class Array'
PUBLIC	??_R1A@?0A@EA@Calendar@icu_56@@8		; icu_56::Calendar::`RTTI Base Class Descriptor at (0,-1,0,64)'
PUBLIC	??8Calendar@icu_56@@UBECABV01@@Z		; icu_56::Calendar::operator==
PUBLIC	?isEquivalentTo@Calendar@icu_56@@UBECABV12@@Z	; icu_56::Calendar::isEquivalentTo
PUBLIC	?add@Calendar@icu_56@@UAEXW4UCalendarDateFields@@HAAW4UErrorCode@@@Z ; icu_56::Calendar::add
PUBLIC	?add@Calendar@icu_56@@UAEXW4EDateFields@12@HAAW4UErrorCode@@@Z ; icu_56::Calendar::add
PUBLIC	?roll@Calendar@icu_56@@UAEXW4UCalendarDateFields@@HAAW4UErrorCode@@@Z ; icu_56::Calendar::roll
PUBLIC	?roll@Calendar@icu_56@@UAEXW4EDateFields@12@HAAW4UErrorCode@@@Z ; icu_56::Calendar::roll
PUBLIC	?fieldDifference@Calendar@icu_56@@UAEHNW4UCalendarDateFields@@AAW4UErrorCode@@@Z ; icu_56::Calendar::fieldDifference
PUBLIC	?fieldDifference@Calendar@icu_56@@UAEHNW4EDateFields@12@AAW4UErrorCode@@@Z ; icu_56::Calendar::fieldDifference
PUBLIC	?getMinimum@Calendar@icu_56@@UBEHW4UCalendarDateFields@@@Z ; icu_56::Calendar::getMinimum
PUBLIC	?getMinimum@Calendar@icu_56@@UBEHW4EDateFields@12@@Z ; icu_56::Calendar::getMinimum
PUBLIC	?getMaximum@Calendar@icu_56@@UBEHW4UCalendarDateFields@@@Z ; icu_56::Calendar::getMaximum
PUBLIC	?getMaximum@Calendar@icu_56@@UBEHW4EDateFields@12@@Z ; icu_56::Calendar::getMaximum
PUBLIC	?getGreatestMinimum@Calendar@icu_56@@UBEHW4UCalendarDateFields@@@Z ; icu_56::Calendar::getGreatestMinimum
PUBLIC	?getGreatestMinimum@Calendar@icu_56@@UBEHW4EDateFields@12@@Z ; icu_56::Calendar::getGreatestMinimum
PUBLIC	?getLeastMaximum@Calendar@icu_56@@UBEHW4UCalendarDateFields@@@Z ; icu_56::Calendar::getLeastMaximum
PUBLIC	?getLeastMaximum@Calendar@icu_56@@UBEHW4EDateFields@12@@Z ; icu_56::Calendar::getLeastMaximum
PUBLIC	?getActualMinimum@Calendar@icu_56@@UBEHW4UCalendarDateFields@@AAW4UErrorCode@@@Z ; icu_56::Calendar::getActualMinimum
PUBLIC	?getActualMaximum@Calendar@icu_56@@UBEHW4UCalendarDateFields@@AAW4UErrorCode@@@Z ; icu_56::Calendar::getActualMaximum
PUBLIC	?getDayOfWeekType@Calendar@icu_56@@UBE?AW4UCalendarWeekdayType@@W4UCalendarDaysOfWeek@@AAW4UErrorCode@@@Z ; icu_56::Calendar::getDayOfWeekType
PUBLIC	?getWeekendTransition@Calendar@icu_56@@UBEHW4UCalendarDaysOfWeek@@AAW4UErrorCode@@@Z ; icu_56::Calendar::getWeekendTransition
PUBLIC	?isWeekend@Calendar@icu_56@@UBECXZ		; icu_56::Calendar::isWeekend
PUBLIC	?isWeekend@Calendar@icu_56@@UBECNAAW4UErrorCode@@@Z ; icu_56::Calendar::isWeekend
PUBLIC	?computeTime@Calendar@icu_56@@MAEXAAW4UErrorCode@@@Z ; icu_56::Calendar::computeTime
PUBLIC	?computeFields@Calendar@icu_56@@MAEXAAW4UErrorCode@@@Z ; icu_56::Calendar::computeFields
PUBLIC	?prepareGetActual@Calendar@icu_56@@MAEXW4UCalendarDateFields@@CAAW4UErrorCode@@@Z ; icu_56::Calendar::prepareGetActual
PUBLIC	?getLimit@Calendar@icu_56@@MBEHW4UCalendarDateFields@@W4ELimitType@12@@Z ; icu_56::Calendar::getLimit
PUBLIC	?handleGetMonthLength@Calendar@icu_56@@MBEHHH@Z	; icu_56::Calendar::handleGetMonthLength
PUBLIC	?handleGetYearLength@Calendar@icu_56@@MBEHH@Z	; icu_56::Calendar::handleGetYearLength
PUBLIC	?handleComputeJulianDay@Calendar@icu_56@@MAEHW4UCalendarDateFields@@@Z ; icu_56::Calendar::handleComputeJulianDay
PUBLIC	?handleGetExtendedYearFromWeekFields@Calendar@icu_56@@MAEHHH@Z ; icu_56::Calendar::handleGetExtendedYearFromWeekFields
PUBLIC	?validateField@Calendar@icu_56@@MAEXW4UCalendarDateFields@@AAW4UErrorCode@@@Z ; icu_56::Calendar::validateField
PUBLIC	?getFieldResolutionTable@Calendar@icu_56@@MBEPAY1M@7$$CBHXZ ; icu_56::Calendar::getFieldResolutionTable
PUBLIC	?handleComputeFields@Calendar@icu_56@@MAEXHAAW4UErrorCode@@@Z ; icu_56::Calendar::handleComputeFields
PUBLIC	?getDefaultMonthInYear@Calendar@icu_56@@MAEHH@Z	; icu_56::Calendar::getDefaultMonthInYear
PUBLIC	?getDefaultDayInMonth@Calendar@icu_56@@MAEHHH@Z	; icu_56::Calendar::getDefaultDayInMonth
PUBLIC	?pinField@Calendar@icu_56@@MAEXW4UCalendarDateFields@@AAW4UErrorCode@@@Z ; icu_56::Calendar::pinField
PUBLIC	?getRelatedYear@Calendar@icu_56@@UBEHAAW4UErrorCode@@@Z ; icu_56::Calendar::getRelatedYear
PUBLIC	?setRelatedYear@Calendar@icu_56@@UAEXH@Z	; icu_56::Calendar::setRelatedYear
EXTRN	__imp_??1UObject@icu_56@@UAE@XZ:PROC
EXTRN	?createDefault@TimeZone@icu_56@@SAPAV12@XZ:PROC	; icu_56::TimeZone::createDefault
EXTRN	__imp_??0UObject@icu_56@@QAE@XZ:PROC
EXTRN	__purecall:PROC
;	COMDAT ??_R1A@?0A@EA@Calendar@icu_56@@8
rdata$r	SEGMENT
??_R1A@?0A@EA@Calendar@icu_56@@8 DD FLAT:??_R0?AVCalendar@icu_56@@@8 ; icu_56::Calendar::`RTTI Base Class Descriptor at (0,-1,0,64)'
	DD	02H
	DD	00H
	DD	0ffffffffH
	DD	00H
	DD	040H
	DD	FLAT:??_R3Calendar@icu_56@@8
rdata$r	ENDS
;	COMDAT ??_R2Calendar@icu_56@@8
rdata$r	SEGMENT
??_R2Calendar@icu_56@@8 DD FLAT:??_R1A@?0A@EA@Calendar@icu_56@@8 ; icu_56::Calendar::`RTTI Base Class Array'
	DD	FLAT:??_R1A@?0A@EA@UObject@icu_56@@8
	DD	FLAT:??_R13?0A@EA@UMemory@icu_56@@8
rdata$r	ENDS
;	COMDAT ??_R3Calendar@icu_56@@8
rdata$r	SEGMENT
??_R3Calendar@icu_56@@8 DD 00H				; icu_56::Calendar::`RTTI Class Hierarchy Descriptor'
	DD	00H
	DD	03H
	DD	FLAT:??_R2Calendar@icu_56@@8
rdata$r	ENDS
;	COMDAT ??_R0?AVCalendar@icu_56@@@8
_DATA	SEGMENT
??_R0?AVCalendar@icu_56@@@8 DD FLAT:??_7type_info@@6B@	; icu_56::Calendar `RTTI Type Descriptor'
	DD	00H
	DB	'.?AVCalendar@icu_56@@', 00H
_DATA	ENDS
;	COMDAT ??_R4Calendar@icu_56@@6B@
rdata$r	SEGMENT
??_R4Calendar@icu_56@@6B@ DD 00H			; icu_56::Calendar::`RTTI Complete Object Locator'
	DD	00H
	DD	00H
	DD	FLAT:??_R0?AVCalendar@icu_56@@@8
	DD	FLAT:??_R3Calendar@icu_56@@8
rdata$r	ENDS
;	COMDAT __real@0000000000000000
CONST	SEGMENT
__real@0000000000000000 DQ 00000000000000000r	; 0
CONST	ENDS
;	COMDAT ??_7Calendar@icu_56@@6B@
CONST	SEGMENT
??_7Calendar@icu_56@@6B@ DD FLAT:??_R4Calendar@icu_56@@6B@ ; icu_56::Calendar::`vftable'
	DD	FLAT:??_ECalendar@icu_56@@UAEPAXI@Z
	DD	FLAT:__purecall
	DD	FLAT:__purecall
	DD	FLAT:??8Calendar@icu_56@@UBECABV01@@Z
	DD	FLAT:?isEquivalentTo@Calendar@icu_56@@UBECABV12@@Z
	DD	FLAT:?add@Calendar@icu_56@@UAEXW4UCalendarDateFields@@HAAW4UErrorCode@@@Z
	DD	FLAT:?add@Calendar@icu_56@@UAEXW4EDateFields@12@HAAW4UErrorCode@@@Z
	DD	FLAT:?roll@Calendar@icu_56@@UAEXW4UCalendarDateFields@@HAAW4UErrorCode@@@Z
	DD	FLAT:?roll@Calendar@icu_56@@UAEXW4EDateFields@12@HAAW4UErrorCode@@@Z
	DD	FLAT:?fieldDifference@Calendar@icu_56@@UAEHNW4UCalendarDateFields@@AAW4UErrorCode@@@Z
	DD	FLAT:?fieldDifference@Calendar@icu_56@@UAEHNW4EDateFields@12@AAW4UErrorCode@@@Z
	DD	FLAT:__purecall
	DD	FLAT:?getMinimum@Calendar@icu_56@@UBEHW4UCalendarDateFields@@@Z
	DD	FLAT:?getMinimum@Calendar@icu_56@@UBEHW4EDateFields@12@@Z
	DD	FLAT:?getMaximum@Calendar@icu_56@@UBEHW4UCalendarDateFields@@@Z
	DD	FLAT:?getMaximum@Calendar@icu_56@@UBEHW4EDateFields@12@@Z
	DD	FLAT:?getGreatestMinimum@Calendar@icu_56@@UBEHW4UCalendarDateFields@@@Z
	DD	FLAT:?getGreatestMinimum@Calendar@icu_56@@UBEHW4EDateFields@12@@Z
	DD	FLAT:?getLeastMaximum@Calendar@icu_56@@UBEHW4UCalendarDateFields@@@Z
	DD	FLAT:?getLeastMaximum@Calendar@icu_56@@UBEHW4EDateFields@12@@Z
	DD	FLAT:?getActualMinimum@Calendar@icu_56@@UBEHW4UCalendarDateFields@@AAW4UErrorCode@@@Z
	DD	FLAT:?getActualMaximum@Calendar@icu_56@@UBEHW4UCalendarDateFields@@AAW4UErrorCode@@@Z
	DD	FLAT:__purecall
	DD	FLAT:?getDayOfWeekType@Calendar@icu_56@@UBE?AW4UCalendarWeekdayType@@W4UCalendarDaysOfWeek@@AAW4UErrorCode@@@Z
