; Listing generated by Microsoft (R) Optimizing Compiler Version 16.00.40219.01 

	TITLE	D:\mozilla\intl\icu\source\i18n\collationrootelements.cpp
	.686P
	.XMM
	include listing.inc
	.model	flat

INCLUDELIB MSVCRTD
INCLUDELIB OLDNAMES

PUBLIC	?TERMINATOR_BYTE@Collation@icu_56@@2EB		; icu_56::Collation::TERMINATOR_BYTE
PUBLIC	?LEVEL_SEPARATOR_BYTE@Collation@icu_56@@2EB	; icu_56::Collation::LEVEL_SEPARATOR_BYTE
PUBLIC	?BEFORE_WEIGHT16@Collation@icu_56@@2IB		; icu_56::Collation::BEFORE_WEIGHT16
PUBLIC	?MERGE_SEPARATOR_BYTE@Collation@icu_56@@2EB	; icu_56::Collation::MERGE_SEPARATOR_BYTE
PUBLIC	?MERGE_SEPARATOR_PRIMARY@Collation@icu_56@@2IB	; icu_56::Collation::MERGE_SEPARATOR_PRIMARY
PUBLIC	?MERGE_SEPARATOR_CE32@Collation@icu_56@@2IB	; icu_56::Collation::MERGE_SEPARATOR_CE32
PUBLIC	?PRIMARY_COMPRESSION_LOW_BYTE@Collation@icu_56@@2EB ; icu_56::Collation::PRIMARY_COMPRESSION_LOW_BYTE
PUBLIC	?PRIMARY_COMPRESSION_HIGH_BYTE@Collation@icu_56@@2EB ; icu_56::Collation::PRIMARY_COMPRESSION_HIGH_BYTE
PUBLIC	?COMMON_BYTE@Collation@icu_56@@2EB		; icu_56::Collation::COMMON_BYTE
PUBLIC	?COMMON_WEIGHT16@Collation@icu_56@@2IB		; icu_56::Collation::COMMON_WEIGHT16
PUBLIC	?COMMON_SECONDARY_CE@Collation@icu_56@@2IB	; icu_56::Collation::COMMON_SECONDARY_CE
PUBLIC	?COMMON_TERTIARY_CE@Collation@icu_56@@2IB	; icu_56::Collation::COMMON_TERTIARY_CE
PUBLIC	?COMMON_SEC_AND_TER_CE@Collation@icu_56@@2IB	; icu_56::Collation::COMMON_SEC_AND_TER_CE
PUBLIC	?SECONDARY_MASK@Collation@icu_56@@2IB		; icu_56::Collation::SECONDARY_MASK
PUBLIC	?CASE_MASK@Collation@icu_56@@2IB		; icu_56::Collation::CASE_MASK
PUBLIC	?SECONDARY_AND_CASE_MASK@Collation@icu_56@@2IB	; icu_56::Collation::SECONDARY_AND_CASE_MASK
PUBLIC	?ONLY_TERTIARY_MASK@Collation@icu_56@@2IB	; icu_56::Collation::ONLY_TERTIARY_MASK
PUBLIC	?ONLY_SEC_TER_MASK@Collation@icu_56@@2IB	; icu_56::Collation::ONLY_SEC_TER_MASK
PUBLIC	?CASE_AND_TERTIARY_MASK@Collation@icu_56@@2IB	; icu_56::Collation::CASE_AND_TERTIARY_MASK
PUBLIC	?QUATERNARY_MASK@Collation@icu_56@@2IB		; icu_56::Collation::QUATERNARY_MASK
PUBLIC	?CASE_AND_QUATERNARY_MASK@Collation@icu_56@@2IB	; icu_56::Collation::CASE_AND_QUATERNARY_MASK
PUBLIC	?UNASSIGNED_IMPLICIT_BYTE@Collation@icu_56@@2EB	; icu_56::Collation::UNASSIGNED_IMPLICIT_BYTE
PUBLIC	?FIRST_UNASSIGNED_PRIMARY@Collation@icu_56@@2IB	; icu_56::Collation::FIRST_UNASSIGNED_PRIMARY
PUBLIC	?TRAIL_WEIGHT_BYTE@Collation@icu_56@@2EB	; icu_56::Collation::TRAIL_WEIGHT_BYTE
PUBLIC	?FIRST_TRAILING_PRIMARY@Collation@icu_56@@2IB	; icu_56::Collation::FIRST_TRAILING_PRIMARY
PUBLIC	?MAX_PRIMARY@Collation@icu_56@@2IB		; icu_56::Collation::MAX_PRIMARY
PUBLIC	?MAX_REGULAR_CE32@Collation@icu_56@@2IB		; icu_56::Collation::MAX_REGULAR_CE32
PUBLIC	?FFFD_PRIMARY@Collation@icu_56@@2IB		; icu_56::Collation::FFFD_PRIMARY
PUBLIC	?FFFD_CE32@Collation@icu_56@@2IB		; icu_56::Collation::FFFD_CE32
PUBLIC	?SPECIAL_CE32_LOW_BYTE@Collation@icu_56@@2EB	; icu_56::Collation::SPECIAL_CE32_LOW_BYTE
PUBLIC	?FALLBACK_CE32@Collation@icu_56@@2IB		; icu_56::Collation::FALLBACK_CE32
PUBLIC	?LONG_PRIMARY_CE32_LOW_BYTE@Collation@icu_56@@2EB ; icu_56::Collation::LONG_PRIMARY_CE32_LOW_BYTE
PUBLIC	?UNASSIGNED_CE32@Collation@icu_56@@2IB		; icu_56::Collation::UNASSIGNED_CE32
PUBLIC	?NO_CE32@Collation@icu_56@@2IB			; icu_56::Collation::NO_CE32
PUBLIC	?NO_CE_PRIMARY@Collation@icu_56@@2IB		; icu_56::Collation::NO_CE_PRIMARY
PUBLIC	?NO_CE_WEIGHT16@Collation@icu_56@@2IB		; icu_56::Collation::NO_CE_WEIGHT16
PUBLIC	?NO_CE@Collation@icu_56@@2_JB			; icu_56::Collation::NO_CE
PUBLIC	?NO_LEVEL_FLAG@Collation@icu_56@@2IB		; icu_56::Collation::NO_LEVEL_FLAG
PUBLIC	?PRIMARY_LEVEL_FLAG@Collation@icu_56@@2IB	; icu_56::Collation::PRIMARY_LEVEL_FLAG
PUBLIC	?SECONDARY_LEVEL_FLAG@Collation@icu_56@@2IB	; icu_56::Collation::SECONDARY_LEVEL_FLAG
PUBLIC	?CASE_LEVEL_FLAG@Collation@icu_56@@2IB		; icu_56::Collation::CASE_LEVEL_FLAG
PUBLIC	?TERTIARY_LEVEL_FLAG@Collation@icu_56@@2IB	; icu_56::Collation::TERTIARY_LEVEL_FLAG
PUBLIC	?QUATERNARY_LEVEL_FLAG@Collation@icu_56@@2IB	; icu_56::Collation::QUATERNARY_LEVEL_FLAG
PUBLIC	?IDENTICAL_LEVEL_FLAG@Collation@icu_56@@2IB	; icu_56::Collation::IDENTICAL_LEVEL_FLAG
PUBLIC	?ZERO_LEVEL_FLAG@Collation@icu_56@@2IB		; icu_56::Collation::ZERO_LEVEL_FLAG
PUBLIC	?MAX_EXPANSION_LENGTH@Collation@icu_56@@2HB	; icu_56::Collation::MAX_EXPANSION_LENGTH
PUBLIC	?MAX_INDEX@Collation@icu_56@@2HB		; icu_56::Collation::MAX_INDEX
PUBLIC	?CONTRACT_SINGLE_CP_NO_MATCH@Collation@icu_56@@2IB ; icu_56::Collation::CONTRACT_SINGLE_CP_NO_MATCH
PUBLIC	?CONTRACT_NEXT_CCC@Collation@icu_56@@2IB	; icu_56::Collation::CONTRACT_NEXT_CCC
PUBLIC	?CONTRACT_TRAILING_CCC@Collation@icu_56@@2IB	; icu_56::Collation::CONTRACT_TRAILING_CCC
PUBLIC	?HANGUL_NO_SPECIAL_JAMO@Collation@icu_56@@2IB	; icu_56::Collation::HANGUL_NO_SPECIAL_JAMO
PUBLIC	?LEAD_ALL_UNASSIGNED@Collation@icu_56@@2IB	; icu_56::Collation::LEAD_ALL_UNASSIGNED
PUBLIC	?LEAD_ALL_FALLBACK@Collation@icu_56@@2IB	; icu_56::Collation::LEAD_ALL_FALLBACK
PUBLIC	?LEAD_MIXED@Collation@icu_56@@2IB		; icu_56::Collation::LEAD_MIXED
PUBLIC	?LEAD_TYPE_MASK@Collation@icu_56@@2IB		; icu_56::Collation::LEAD_TYPE_MASK
PUBLIC	?PRIMARY_SENTINEL@CollationRootElements@icu_56@@2IB ; icu_56::CollationRootElements::PRIMARY_SENTINEL
PUBLIC	?SEC_TER_DELTA_FLAG@CollationRootElements@icu_56@@2IB ; icu_56::CollationRootElements::SEC_TER_DELTA_FLAG
PUBLIC	?PRIMARY_STEP_MASK@CollationRootElements@icu_56@@2EB ; icu_56::CollationRootElements::PRIMARY_STEP_MASK
;	COMDAT ?PRIMARY_STEP_MASK@CollationRootElements@icu_56@@2EB
CONST	SEGMENT
?PRIMARY_STEP_MASK@CollationRootElements@icu_56@@2EB DB 07fH ; icu_56::CollationRootElements::PRIMARY_STEP_MASK
CONST	ENDS
;	COMDAT ?SEC_TER_DELTA_FLAG@CollationRootElements@icu_56@@2IB
CONST	SEGMENT
?SEC_TER_DELTA_FLAG@CollationRootElements@icu_56@@2IB DD 080H ; icu_56::CollationRootElements::SEC_TER_DELTA_FLAG
CONST	ENDS
;	COMDAT ?PRIMARY_SENTINEL@CollationRootElements@icu_56@@2IB
CONST	SEGMENT
?PRIMARY_SENTINEL@CollationRootElements@icu_56@@2IB DD 0ffffff00H ; icu_56::CollationRootElements::PRIMARY_SENTINEL
CONST	ENDS
;	COMDAT ?LEAD_TYPE_MASK@Collation@icu_56@@2IB
CONST	SEGMENT
?LEAD_TYPE_MASK@Collation@icu_56@@2IB DD 0300H		; icu_56::Collation::LEAD_TYPE_MASK
CONST	ENDS
;	COMDAT ?LEAD_MIXED@Collation@icu_56@@2IB
CONST	SEGMENT
?LEAD_MIXED@Collation@icu_56@@2IB DD 0200H		; icu_56::Collation::LEAD_MIXED
CONST	ENDS
;	COMDAT ?LEAD_ALL_FALLBACK@Collation@icu_56@@2IB
CONST	SEGMENT
?LEAD_ALL_FALLBACK@Collation@icu_56@@2IB DD 0100H	; icu_56::Collation::LEAD_ALL_FALLBACK
CONST	ENDS
;	COMDAT ?LEAD_ALL_UNASSIGNED@Collation@icu_56@@2IB
CONST	SEGMENT
?LEAD_ALL_UNASSIGNED@Collation@icu_56@@2IB DD 00H	; icu_56::Collation::LEAD_ALL_UNASSIGNED
CONST	ENDS
;	COMDAT ?HANGUL_NO_SPECIAL_JAMO@Collation@icu_56@@2IB
CONST	SEGMENT
?HANGUL_NO_SPECIAL_JAMO@Collation@icu_56@@2IB DD 0100H	; icu_56::Collation::HANGUL_NO_SPECIAL_JAMO
CONST	ENDS
;	COMDAT ?CONTRACT_TRAILING_CCC@Collation@icu_56@@2IB
CONST	SEGMENT
?CONTRACT_TRAILING_CCC@Collation@icu_56@@2IB DD 0400H	; icu_56::Collation::CONTRACT_TRAILING_CCC
CONST	ENDS
;	COMDAT ?CONTRACT_NEXT_CCC@Collation@icu_56@@2IB
CONST	SEGMENT
?CONTRACT_NEXT_CCC@Collation@icu_56@@2IB DD 0200H	; icu_56::Collation::CONTRACT_NEXT_CCC
CONST	ENDS
;	COMDAT ?CONTRACT_SINGLE_CP_NO_MATCH@Collation@icu_56@@2IB
CONST	SEGMENT
?CONTRACT_SINGLE_CP_NO_MATCH@Collation@icu_56@@2IB DD 0100H ; icu_56::Collation::CONTRACT_SINGLE_CP_NO_MATCH
CONST	ENDS
;	COMDAT ?MAX_INDEX@Collation@icu_56@@2HB
CONST	SEGMENT
?MAX_INDEX@Collation@icu_56@@2HB DD 07ffffH		; icu_56::Collation::MAX_INDEX
CONST	ENDS
;	COMDAT ?MAX_EXPANSION_LENGTH@Collation@icu_56@@2HB
CONST	SEGMENT
?MAX_EXPANSION_LENGTH@Collation@icu_56@@2HB DD 01fH	; icu_56::Collation::MAX_EXPANSION_LENGTH
CONST	ENDS
;	COMDAT ?ZERO_LEVEL_FLAG@Collation@icu_56@@2IB
CONST	SEGMENT
?ZERO_LEVEL_FLAG@Collation@icu_56@@2IB DD 080H		; icu_56::Collation::ZERO_LEVEL_FLAG
CONST	ENDS
;	COMDAT ?IDENTICAL_LEVEL_FLAG@Collation@icu_56@@2IB
CONST	SEGMENT
?IDENTICAL_LEVEL_FLAG@Collation@icu_56@@2IB DD 040H	; icu_56::Collation::IDENTICAL_LEVEL_FLAG
CONST	ENDS
;	COMDAT ?QUATERNARY_LEVEL_FLAG@Collation@icu_56@@2IB
CONST	SEGMENT
?QUATERNARY_LEVEL_FLAG@Collation@icu_56@@2IB DD 020H	; icu_56::Collation::QUATERNARY_LEVEL_FLAG
CONST	ENDS
;	COMDAT ?TERTIARY_LEVEL_FLAG@Collation@icu_56@@2IB
CONST	SEGMENT
?TERTIARY_LEVEL_FLAG@Collation@icu_56@@2IB DD 010H	; icu_56::Collation::TERTIARY_LEVEL_FLAG
CONST	ENDS
;	COMDAT ?CASE_LEVEL_FLAG@Collation@icu_56@@2IB
CONST	SEGMENT
?CASE_LEVEL_FLAG@Collation@icu_56@@2IB DD 08H		; icu_56::Collation::CASE_LEVEL_FLAG
CONST	ENDS
;	COMDAT ?SECONDARY_LEVEL_FLAG@Collation@icu_56@@2IB
CONST	SEGMENT
?SECONDARY_LEVEL_FLAG@Collation@icu_56@@2IB DD 04H	; icu_56::Collation::SECONDARY_LEVEL_FLAG
CONST	ENDS
;	COMDAT ?PRIMARY_LEVEL_FLAG@Collation@icu_56@@2IB
CONST	SEGMENT
?PRIMARY_LEVEL_FLAG@Collation@icu_56@@2IB DD 02H	; icu_56::Collation::PRIMARY_LEVEL_FLAG
CONST	ENDS
;	COMDAT ?NO_LEVEL_FLAG@Collation@icu_56@@2IB
CONST	SEGMENT
?NO_LEVEL_FLAG@Collation@icu_56@@2IB DD 01H		; icu_56::Collation::NO_LEVEL_FLAG
CONST	ENDS
;	COMDAT ?NO_CE@Collation@icu_56@@2_JB
CONST	SEGMENT
?NO_CE@Collation@icu_56@@2_JB DQ 0000000101000100H	; icu_56::Collation::NO_CE
CONST	ENDS
;	COMDAT ?NO_CE_WEIGHT16@Collation@icu_56@@2IB
CONST	SEGMENT
?NO_CE_WEIGHT16@Collation@icu_56@@2IB DD 0100H		; icu_56::Collation::NO_CE_WEIGHT16
CONST	ENDS
;	COMDAT ?NO_CE_PRIMARY@Collation@icu_56@@2IB
CONST	SEGMENT
?NO_CE_PRIMARY@Collation@icu_56@@2IB DD 01H		; icu_56::Collation::NO_CE_PRIMARY
CONST	ENDS
;	COMDAT ?NO_CE32@Collation@icu_56@@2IB
CONST	SEGMENT
?NO_CE32@Collation@icu_56@@2IB DD 01H			; icu_56::Collation::NO_CE32
CONST	ENDS
;	COMDAT ?UNASSIGNED_CE32@Collation@icu_56@@2IB
CONST	SEGMENT
?UNASSIGNED_CE32@Collation@icu_56@@2IB DD 0ffffffffH	; icu_56::Collation::UNASSIGNED_CE32
CONST	ENDS
;	COMDAT ?LONG_PRIMARY_CE32_LOW_BYTE@Collation@icu_56@@2EB
CONST	SEGMENT
?LONG_PRIMARY_CE32_LOW_BYTE@Collation@icu_56@@2EB DB 0c1H ; icu_56::Collation::LONG_PRIMARY_CE32_LOW_BYTE
CONST	ENDS
;	COMDAT ?FALLBACK_CE32@Collation@icu_56@@2IB
CONST	SEGMENT
?FALLBACK_CE32@Collation@icu_56@@2IB DD 0c0H		; icu_56::Collation::FALLBACK_CE32
CONST	ENDS
;	COMDAT ?SPECIAL_CE32_LOW_BYTE@Collation@icu_56@@2EB
CONST	SEGMENT
?SPECIAL_CE32_LOW_BYTE@Collation@icu_56@@2EB DB 0c0H	; icu_56::Collation::SPECIAL_CE32_LOW_BYTE
CONST	ENDS
;	COMDAT ?FFFD_CE32@Collation@icu_56@@2IB
CONST	SEGMENT
?FFFD_CE32@Collation@icu_56@@2IB DD 0fffd0505H		; icu_56::Collation::FFFD_CE32
CONST	ENDS
;	COMDAT ?FFFD_PRIMARY@Collation@icu_56@@2IB
CONST	SEGMENT
?FFFD_PRIMARY@Collation@icu_56@@2IB DD 0fffd0000H	; icu_56::Collation::FFFD_PRIMARY
CONST	ENDS
;	COMDAT ?MAX_REGULAR_CE32@Collation@icu_56@@2IB
CONST	SEGMENT
?MAX_REGULAR_CE32@Collation@icu_56@@2IB DD 0ffff0505H	; icu_56::Collation::MAX_REGULAR_CE32
CONST	ENDS
;	COMDAT ?MAX_PRIMARY@Collation@icu_56@@2IB
CONST	SEGMENT
?MAX_PRIMARY@Collation@icu_56@@2IB DD 0ffff0000H	; icu_56::Collation::MAX_PRIMARY
CONST	ENDS
;	COMDAT ?FIRST_TRAILING_PRIMARY@Collation@icu_56@@2IB
CONST	SEGMENT
?FIRST_TRAILING_PRIMARY@Collation@icu_56@@2IB DD 0ff020200H ; icu_56::Collation::FIRST_TRAILING_PRIMARY
CONST	ENDS
;	COMDAT ?TRAIL_WEIGHT_BYTE@Collation@icu_56@@2EB
CONST	SEGMENT
?TRAIL_WEIGHT_BYTE@Collation@icu_56@@2EB DB 0ffH	; icu_56::Collation::TRAIL_WEIGHT_BYTE
CONST	ENDS
;	COMDAT ?FIRST_UNASSIGNED_PRIMARY@Collation@icu_56@@2IB
CONST	SEGMENT
?FIRST_UNASSIGNED_PRIMARY@Collation@icu_56@@2IB DD 0fe040200H ; icu_56::Collation::FIRST_UNASSIGNED_PRIMARY
CONST	ENDS
;	COMDAT ?UNASSIGNED_IMPLICIT_BYTE@Collation@icu_56@@2EB
CONST	SEGMENT
?UNASSIGNED_IMPLICIT_BYTE@Collation@icu_56@@2EB DB 0feH	; icu_56::Collation::UNASSIGNED_IMPLICIT_BYTE
CONST	ENDS
;	COMDAT ?CASE_AND_QUATERNARY_MASK@Collation@icu_56@@2IB
CONST	SEGMENT
?CASE_AND_QUATERNARY_MASK@Collation@icu_56@@2IB DD 0c0c0H ; icu_56::Collation::CASE_AND_QUATERNARY_MASK
CONST	ENDS
;	COMDAT ?QUATERNARY_MASK@Collation@icu_56@@2IB
CONST	SEGMENT
?QUATERNARY_MASK@Collation@icu_56@@2IB DD 0c0H		; icu_56::Collation::QUATERNARY_MASK
CONST	ENDS
;	COMDAT ?CASE_AND_TERTIARY_MASK@Collation@icu_56@@2IB
CONST	SEGMENT
?CASE_AND_TERTIARY_MASK@Collation@icu_56@@2IB DD 0ff3fH	; icu_56::Collation::CASE_AND_TERTIARY_MASK
CONST	ENDS
;	COMDAT ?ONLY_SEC_TER_MASK@Collation@icu_56@@2IB
CONST	SEGMENT
?ONLY_SEC_TER_MASK@Collation@icu_56@@2IB DD 0ffff3f3fH	; icu_56::Collation::ONLY_SEC_TER_MASK
CONST	ENDS
;	COMDAT ?ONLY_TERTIARY_MASK@Collation@icu_56@@2IB
CONST	SEGMENT
?ONLY_TERTIARY_MASK@Collation@icu_56@@2IB DD 03f3fH	; icu_56::Collation::ONLY_TERTIARY_MASK
CONST	ENDS
;	COMDAT ?SECONDARY_AND_CASE_MASK@Collation@icu_56@@2IB
CONST	SEGMENT
?SECONDARY_AND_CASE_MASK@Collation@icu_56@@2IB DD 0ffffc000H ; icu_56::Collation::SECONDARY_AND_CASE_MASK
CONST	ENDS
;	COMDAT ?CASE_MASK@Collation@icu_56@@2IB
CONST	SEGMENT
?CASE_MASK@Collation@icu_56@@2IB DD 0c000H		; icu_56::Collation::CASE_MASK
CONST	ENDS
;	COMDAT ?SECONDARY_MASK@Collation@icu_56@@2IB
CONST	SEGMENT
?SECONDARY_MASK@Collation@icu_56@@2IB DD 0ffff0000H	; icu_56::Collation::SECONDARY_MASK
CONST	ENDS
;	COMDAT ?COMMON_SEC_AND_TER_CE@Collation@icu_56@@2IB
CONST	SEGMENT
?COMMON_SEC_AND_TER_CE@Collation@icu_56@@2IB DD 05000500H ; icu_56::Collation::COMMON_SEC_AND_TER_CE
CONST	ENDS
;	COMDAT ?COMMON_TERTIARY_CE@Collation@icu_56@@2IB
CONST	SEGMENT
?COMMON_TERTIARY_CE@Collation@icu_56@@2IB DD 0500H	; icu_56::Collation::COMMON_TERTIARY_CE
CONST	ENDS
;	COMDAT ?COMMON_SECONDARY_CE@Collation@icu_56@@2IB
CONST	SEGMENT
?COMMON_SECONDARY_CE@Collation@icu_56@@2IB DD 05000000H	; icu_56::Collation::COMMON_SECONDARY_CE
CONST	ENDS
;	COMDAT ?COMMON_WEIGHT16@Collation@icu_56@@2IB
CONST	SEGMENT
?COMMON_WEIGHT16@Collation@icu_56@@2IB DD 0500H		; icu_56::Collation::COMMON_WEIGHT16
CONST	ENDS
;	COMDAT ?COMMON_BYTE@Collation@icu_56@@2EB
CONST	SEGMENT
?COMMON_BYTE@Collation@icu_56@@2EB DB 05H		; icu_56::Collation::COMMON_BYTE
CONST	ENDS
;	COMDAT ?PRIMARY_COMPRESSION_HIGH_BYTE@Collation@icu_56@@2EB
CONST	SEGMENT
?PRIMARY_COMPRESSION_HIGH_BYTE@Collation@icu_56@@2EB DB 0ffH ; icu_56::Collation::PRIMARY_COMPRESSION_HIGH_BYTE
CONST	ENDS
;	COMDAT ?PRIMARY_COMPRESSION_LOW_BYTE@Collation@icu_56@@2EB
CONST	SEGMENT
?PRIMARY_COMPRESSION_LOW_BYTE@Collation@icu_56@@2EB DB 03H ; icu_56::Collation::PRIMARY_COMPRESSION_LOW_BYTE
CONST	ENDS
;	COMDAT ?MERGE_SEPARATOR_CE32@Collation@icu_56@@2IB
CONST	SEGMENT
?MERGE_SEPARATOR_CE32@Collation@icu_56@@2IB DD 02000505H ; icu_56::Collation::MERGE_SEPARATOR_CE32
CONST	ENDS
;	COMDAT ?MERGE_SEPARATOR_PRIMARY@Collation@icu_56@@2IB
CONST	SEGMENT
?MERGE_SEPARATOR_PRIMARY@Collation@icu_56@@2IB DD 02000000H ; icu_56::Collation::MERGE_SEPARATOR_PRIMARY
CONST	ENDS
;	COMDAT ?MERGE_SEPARATOR_BYTE@Collation@icu_56@@2EB
CONST	SEGMENT
?MERGE_SEPARATOR_BYTE@Collation@icu_56@@2EB DB 02H	; icu_56::Collation::MERGE_SEPARATOR_BYTE
CONST	ENDS
;	COMDAT ?BEFORE_WEIGHT16@Collation@icu_56@@2IB
CONST	SEGMENT
?BEFORE_WEIGHT16@Collation@icu_56@@2IB DD 0100H		; icu_56::Collation::BEFORE_WEIGHT16
CONST	ENDS
;	COMDAT ?LEVEL_SEPARATOR_BYTE@Collation@icu_56@@2EB
CONST	SEGMENT
?LEVEL_SEPARATOR_BYTE@Collation@icu_56@@2EB DB 01H	; icu_56::Collation::LEVEL_SEPARATOR_BYTE
CONST	ENDS
;	COMDAT ?TERMINATOR_BYTE@Collation@icu_56@@2EB
CONST	SEGMENT
?TERMINATOR_BYTE@Collation@icu_56@@2EB DB 00H		; icu_56::Collation::TERMINATOR_BYTE
CONST	ENDS
PUBLIC	??2@YAPAXI@Z					; operator new
EXTRN	__RTC_Shutdown:PROC
EXTRN	__RTC_InitBase:PROC
;	COMDAT rtc$TMZ
; File d:\mozilla\intl\icu\include\unicode\utypes.h
rtc$TMZ	SEGMENT
__RTC_Shutdown.rtc$TMZ DD FLAT:__RTC_Shutdown
rtc$TMZ	ENDS
;	COMDAT rtc$IMZ
rtc$IMZ	SEGMENT
__RTC_InitBase.rtc$IMZ DD FLAT:__RTC_InitBase
; Function compile flags: /Odtp /RTCsu /ZI
rtc$IMZ	ENDS
;	COMDAT ??2@YAPAXI@Z
_TEXT	SEGMENT
_q$ = -8						; size = 4
___formal$ = 8						; size = 4
??2@YAPAXI@Z PROC					; operator new, COMDAT
; Line 411
	push	ebp
	mov	ebp, esp
	sub	esp, 204				; 000000ccH
	push	ebx
	push	esi
	push	edi
	lea	edi, DWORD PTR [ebp-204]
	mov	ecx, 51					; 00000033H
	mov	eax, -858993460				; ccccccccH
	rep stosd
; Line 412
	mov	DWORD PTR _q$[ebp], 0
; Line 413
	mov	eax, DWORD PTR _q$[ebp]
	mov	BYTE PTR [eax], 5
; Line 414
	mov	eax, DWORD PTR _q$[ebp]
; Line 415
	pop	edi
	pop	esi
	pop	ebx
	mov	esp, ebp
	pop	ebp
	ret	0
??2@YAPAXI@Z ENDP					; operator new
_TEXT	ENDS
PUBLIC	??3@YAXPAX@Z					; operator delete
; Function compile flags: /Odtp /RTCsu /ZI
;	COMDAT ??3@YAXPAX@Z
_TEXT	SEGMENT
_q$ = -8						; size = 4
___formal$ = 8						; size = 4
??3@YAXPAX@Z PROC					; operator delete, COMDAT
; Line 439
	push	ebp
	mov	ebp, esp
	sub	esp, 204				; 000000ccH
	push	ebx
	push	esi
	push	edi
	lea	edi, DWORD PTR [ebp-204]
	mov	ecx, 51					; 00000033H
	mov	eax, -858993460				; ccccccccH
	rep stosd
; Line 440
	mov	DWORD PTR _q$[ebp], 0
; Line 441
	mov	eax, DWORD PTR _q$[ebp]
	mov	BYTE PTR [eax], 5
; Line 442
	pop	edi
	pop	esi
	pop	ebx
	mov	esp, ebp
	pop	ebp
	ret	0
??3@YAXPAX@Z ENDP					; operator delete
_TEXT	ENDS
PUBLIC	?isAssignedCE32@Collation@icu_56@@SACI@Z	; icu_56::Collation::isAssignedCE32
; Function compile flags: /Odtp /RTCsu /ZI
;	COMDAT ?isAssignedCE32@Collation@icu_56@@SACI@Z
_TEXT	SEGMENT
tv66 = -193						; size = 1
_ce32$ = 8						; size = 4
?isAssignedCE32@Collation@icu_56@@SACI@Z PROC		; icu_56::Collation::isAssignedCE32, COMDAT
; File d:\mozilla\intl\icu\source\i18n\collation.h
; Line 275
	push	ebp
	mov	ebp, esp
	sub	esp, 196				; 000000c4H
	push	ebx
	push	esi
	push	edi
	lea	edi, DWORD PTR [ebp-196]
	mov	ecx, 49					; 00000031H
	mov	eax, -858993460				; ccccccccH
	rep stosd
; Line 276
	cmp	DWORD PTR _ce32$[ebp], 192		; 000000c0H
	je	SHORT $LN3@isAssigned
	cmp	DWORD PTR _ce32$[ebp], -1
	je	SHORT $LN3@isAssigned
	mov	BYTE PTR tv66[ebp], 1
	jmp	SHORT $LN4@isAssigned
$LN3@isAssigned:
	mov	BYTE PTR tv66[ebp], 0
$LN4@isAssigned:
	mov	al, BYTE PTR tv66[ebp]
; Line 277
	pop	edi
	pop	esi
	pop	ebx
	mov	esp, ebp
	pop	ebp
	ret	0
?isAssignedCE32@Collation@icu_56@@SACI@Z ENDP		; icu_56::Collation::isAssignedCE32
_TEXT	ENDS
PUBLIC	?makeLongPrimaryCE32@Collation@icu_56@@SAII@Z	; icu_56::Collation::makeLongPrimaryCE32
; Function compile flags: /Odtp /RTCsu /ZI
;	COMDAT ?makeLongPrimaryCE32@Collation@icu_56@@SAII@Z
_TEXT	SEGMENT
_p$ = 8							; size = 4
?makeLongPrimaryCE32@Collation@icu_56@@SAII@Z PROC	; icu_56::Collation::makeLongPrimaryCE32, COMDAT
; Line 308
	push	ebp
	mov	ebp, esp
	sub	esp, 192				; 000000c0H
	push	ebx
	push	esi
	push	edi
	lea	edi, DWORD PTR [ebp-192]
	mov	ecx, 48					; 00000030H
	mov	eax, -858993460				; ccccccccH
	rep stosd
	mov	eax, DWORD PTR _p$[ebp]
	or	eax, 193				; 000000c1H
	pop	edi
	pop	esi
	pop	ebx
	mov	esp, ebp
	pop	ebp
	ret	0
?makeLongPrimaryCE32@Collation@icu_56@@SAII@Z ENDP	; icu_56::Collation::makeLongPrimaryCE32
_TEXT	ENDS
PUBLIC	?primaryFromLongPrimaryCE32@Collation@icu_56@@SAII@Z ; icu_56::Collation::primaryFromLongPrimaryCE32
; Function compile flags: /Odtp /RTCsu /ZI
;	COMDAT ?primaryFromLongPrimaryCE32@Collation@icu_56@@SAII@Z
_TEXT	SEGMENT
_ce32$ = 8						; size = 4
?primaryFromLongPrimaryCE32@Collation@icu_56@@SAII@Z PROC ; icu_56::Collation::primaryFromLongPrimaryCE32, COMDAT
; Line 311
	push	ebp
	mov	ebp, esp
	sub	esp, 192				; 000000c0H
	push	ebx
	push	esi
	push	edi
	lea	edi, DWORD PTR [ebp-192]
	mov	ecx, 48					; 00000030H
	mov	eax, -858993460				; ccccccccH
	rep stosd
; Line 312
	mov	eax, DWORD PTR _ce32$[ebp]
	and	eax, -256				; ffffff00H
; Line 313
	pop	edi
	pop	esi
	pop	ebx
	mov	esp, ebp
	pop	ebp
	ret	0
?primaryFromLongPrimaryCE32@Collation@icu_56@@SAII@Z ENDP ; icu_56::Collation::primaryFromLongPrimaryCE32
_TEXT	ENDS
PUBLIC	?ceFromLongPrimaryCE32@Collation@icu_56@@SA_JI@Z ; icu_56::Collation::ceFromLongPrimaryCE32
EXTRN	__RTC_CheckEsp:PROC
EXTRN	__allshl:PROC
; Function compile flags: /Odtp /RTCsu /ZI
;	COMDAT ?ceFromLongPrimaryCE32@Collation@icu_56@@SA_JI@Z
_TEXT	SEGMENT
_ce32$ = 8						; size = 4
?ceFromLongPrimaryCE32@Collation@icu_56@@SA_JI@Z PROC	; icu_56::Collation::ceFromLongPrimaryCE32, COMDAT
; Line 314
	push	ebp
	mov	ebp, esp
	sub	esp, 192				; 000000c0H
	push	ebx
	push	esi
	push	edi
	lea	edi, DWORD PTR [ebp-192]
	mov	ecx, 48					; 00000030H
	mov	eax, -858993460				; ccccccccH
	rep stosd
; Line 315
	mov	eax, DWORD PTR _ce32$[ebp]
	and	eax, -256				; ffffff00H
	xor	edx, edx
	mov	cl, 32					; 00000020H
	call	__allshl
	or	eax, 83887360				; 05000500H
; Line 316
	pop	edi
	pop	esi
	pop	ebx
	add	esp, 192				; 000000c0H
	cmp	ebp, esp
	call	__RTC_CheckEsp
	mov	esp, ebp
	pop	ebp
	ret	0
?ceFromLongPrimaryCE32@Collation@icu_56@@SA_JI@Z ENDP	; icu_56::Collation::ceFromLongPrimaryCE32
_TEXT	ENDS
PUBLIC	?makeLongSecondaryCE32@Collation@icu_56@@SAII@Z	; icu_56::Collation::makeLongSecondaryCE32
; Function compile flags: /Odtp /RTCsu /ZI
;	COMDAT ?makeLongSecondaryCE32@Collation@icu_56@@SAII@Z
_TEXT	SEGMENT
_lower32$ = 8						; size = 4
?makeLongSecondaryCE32@Collation@icu_56@@SAII@Z PROC	; icu_56::Collation::makeLongSecondaryCE32, COMDAT
; Line 318
	push	ebp
	mov	ebp, esp
	sub	esp, 192				; 000000c0H
	push	ebx
	push	esi
	push	edi
	lea	edi, DWORD PTR [ebp-192]
	mov	ecx, 48					; 00000030H
	mov	eax, -858993460				; ccccccccH
	rep stosd
; Line 319
	mov	eax, DWORD PTR _lower32$[ebp]
	or	eax, 192				; 000000c0H
	or	eax, 2
; Line 320
	pop	edi
	pop	esi
	pop	ebx
	mov	esp, ebp
	pop	ebp
	ret	0
?makeLongSecondaryCE32@Collation@icu_56@@SAII@Z ENDP	; icu_56::Collation::makeLongSecondaryCE32
_TEXT	ENDS
PUBLIC	?ceFromLongSecondaryCE32@Collation@icu_56@@SA_JI@Z ; icu_56::Collation::ceFromLongSecondaryCE32
; Function compile flags: /Odtp /RTCsu /ZI
;	COMDAT ?ceFromLongSecondaryCE32@Collation@icu_56@@SA_JI@Z
_TEXT	SEGMENT
_ce32$ = 8						; size = 4
?ceFromLongSecondaryCE32@Collation@icu_56@@SA_JI@Z PROC	; icu_56::Collation::ceFromLongSecondaryCE32, COMDAT
; Line 321
	push	ebp
	mov	ebp, esp
	sub	esp, 192				; 000000c0H
	push	ebx
	push	esi
	push	edi
	lea	edi, DWORD PTR [ebp-192]
	mov	ecx, 48					; 00000030H
	mov	eax, -858993460				; ccccccccH
	rep stosd
; Line 322
	mov	eax, DWORD PTR _ce32$[ebp]
	and	eax, -256				; ffffff00H
	xor	edx, edx
; Line 323
	pop	edi
	pop	esi
	pop	ebx
	mov	esp, ebp
	pop	ebp
	ret	0
?ceFromLongSecondaryCE32@Collation@icu_56@@SA_JI@Z ENDP	; icu_56::Collation::ceFromLongSecondaryCE32
_TEXT	ENDS
PUBLIC	?makeCE32FromTagIndexAndLength@Collation@icu_56@@SAIHHH@Z ; icu_56::Collation::makeCE32FromTagIndexAndLength
; Function compile flags: /Odtp /RTCsu /ZI
;	COMDAT ?makeCE32FromTagIndexAndLength@Collation@icu_56@@SAIHHH@Z
_TEXT	SEGMENT
_tag$ = 8						; size = 4
_index$ = 12						; size = 4
_length$ = 16						; size = 4
?makeCE32FromTagIndexAndLength@Collation@icu_56@@SAIHHH@Z PROC ; icu_56::Collation::makeCE32FromTagIndexAndLength, COMDAT
; Line 326
	push	ebp
	mov	ebp, esp
	sub	esp, 192				; 000000c0H
	push	ebx
	push	esi
	push	edi
	lea	edi, DWORD PTR [ebp-192]
	mov	ecx, 48					; 00000030H
	mov	eax, -858993460				; ccccccccH
	rep stosd
; Line 327
	mov	eax, DWORD PTR _index$[ebp]
	shl	eax, 13					; 0000000dH
	mov	ecx, DWORD PTR _length$[ebp]
	shl	ecx, 8
	or	eax, ecx
	or	eax, 192				; 000000c0H
	or	eax, DWORD PTR _tag$[ebp]
; Line 328
	pop	edi
	pop	esi
	pop	ebx
	mov	esp, ebp
	pop	ebp
	ret	0
?makeCE32FromTagIndexAndLength@Collation@icu_56@@SAIHHH@Z ENDP ; icu_56::Collation::makeCE32FromTagIndexAndLength
_TEXT	ENDS
PUBLIC	?makeCE32FromTagAndIndex@Collation@icu_56@@SAIHH@Z ; icu_56::Collation::makeCE32FromTagAndIndex
; Function compile flags: /Odtp /RTCsu /ZI
;	COMDAT ?makeCE32FromTagAndIndex@Collation@icu_56@@SAIHH@Z
_TEXT	SEGMENT
_tag$ = 8						; size = 4
_index$ = 12						; size = 4
?makeCE32FromTagAndIndex@Collation@icu_56@@SAIHH@Z PROC	; icu_56::Collation::makeCE32FromTagAndIndex, COMDAT
; Line 330
	push	ebp
	mov	ebp, esp
	sub	esp, 192				; 000000c0H
	push	ebx
	push	esi
	push	edi
	lea	edi, DWORD PTR [ebp-192]
	mov	ecx, 48					; 00000030H
	mov	eax, -858993460				; ccccccccH
	rep stosd
; Line 331
	mov	eax, DWORD PTR _index$[ebp]
	shl	eax, 13					; 0000000dH
	or	eax, 192				; 000000c0H
	or	eax, DWORD PTR _tag$[ebp]
; Line 332
	pop	edi
	pop	esi
	pop	ebx
	mov	esp, ebp
	pop	ebp
	ret	0
?makeCE32FromTagAndIndex@Collation@icu_56@@SAIHH@Z ENDP	; icu_56::Collation::makeCE32FromTagAndIndex
_TEXT	ENDS
PUBLIC	?isSpecialCE32@Collation@icu_56@@SACI@Z		; icu_56::Collation::isSpecialCE32
; Function compile flags: /Odtp /RTCsu /ZI
;	COMDAT ?isSpecialCE32@Collation@icu_56@@SACI@Z
_TEXT	SEGMENT
_ce32$ = 8						; size = 4
?isSpecialCE32@Collation@icu_56@@SACI@Z PROC		; icu_56::Collation::isSpecialCE32, COMDAT
; Line 334
	push	ebp
	mov	ebp, esp
	sub	esp, 192				; 000000c0H
	push	ebx
	push	esi
	push	edi
	lea	edi, DWORD PTR [ebp-192]
	mov	ecx, 48					; 00000030H
	mov	eax, -858993460				; ccccccccH
	rep stosd
; Line 335
	mov	eax, DWORD PTR _ce32$[ebp]
	and	eax, 255				; 000000ffH
	cmp	eax, 192				; 000000c0H
	setae	al
; Line 336
	pop	edi
	pop	esi
	pop	ebx
	mov	esp, ebp
	pop	ebp
	ret	0
?isSpecialCE32@Collation@icu_56@@SACI@Z ENDP		; icu_56::Collation::isSpecialCE32
_TEXT	ENDS
PUBLIC	?tagFromCE32@Collation@icu_56@@SAHI@Z		; icu_56::Collation::tagFromCE32
; Function compile flags: /Odtp /RTCsu /ZI
;	COMDAT ?tagFromCE32@Collation@icu_56@@SAHI@Z
_TEXT	SEGMENT
_ce32$ = 8						; size = 4
?tagFromCE32@Collation@icu_56@@SAHI@Z PROC		; icu_56::Collation::tagFromCE32, COMDAT
; Line 338
	push	ebp
	mov	ebp, esp
	sub	esp, 192				; 000000c0H
	push	ebx
	push	esi
	push	edi
	lea	edi, DWORD PTR [ebp-192]
	mov	ecx, 48					; 00000030H
	mov	eax, -858993460				; ccccccccH
	rep stosd
; Line 339
	mov	eax, DWORD PTR _ce32$[ebp]
	and	eax, 15					; 0000000fH
; Line 340
	pop	edi
	pop	esi
	pop	ebx
	mov	esp, ebp
	pop	ebp
	ret	0
?tagFromCE32@Collation@icu_56@@SAHI@Z ENDP		; icu_56::Collation::tagFromCE32
_TEXT	ENDS
PUBLIC	?hasCE32Tag@Collation@icu_56@@SACIH@Z		; icu_56::Collation::hasCE32Tag
; Function compile flags: /Odtp /RTCsu /ZI
;	COMDAT ?hasCE32Tag@Collation@icu_56@@SACIH@Z
_TEXT	SEGMENT
tv71 = -193						; size = 1
_ce32$ = 8						; size = 4
_tag$ = 12						; size = 4
?hasCE32Tag@Collation@icu_56@@SACIH@Z PROC		; icu_56::Collation::hasCE32Tag, COMDAT
; Line 342
	push	ebp
	mov	ebp, esp
	sub	esp, 196				; 000000c4H
	push	ebx
	push	esi
	push	edi
	lea	edi, DWORD PTR [ebp-196]
	mov	ecx, 49					; 00000031H
	mov	eax, -858993460				; ccccccccH
	rep stosd
; Line 343
	mov	eax, DWORD PTR _ce32$[ebp]
	push	eax
	call	?isSpecialCE32@Collation@icu_56@@SACI@Z	; icu_56::Collation::isSpecialCE32
	add	esp, 4
	movsx	ecx, al
	test	ecx, ecx
	je	SHORT $LN3@hasCE32Tag
	mov	edx, DWORD PTR _ce32$[ebp]
	push	edx
	call	?tagFromCE32@Collation@icu_56@@SAHI@Z	; icu_56::Collation::tagFromCE32
	add	esp, 4
	cmp	eax, DWORD PTR _tag$[ebp]
	jne	SHORT $LN3@hasCE32Tag
	mov	BYTE PTR tv71[ebp], 1
	jmp	SHORT $LN4@hasCE32Tag
$LN3@hasCE32Tag:
	mov	BYTE PTR tv71[ebp], 0
$LN4@hasCE32Tag:
	mov	al, BYTE PTR tv71[ebp]
; Line 344
	pop	edi
	pop	esi
	pop	ebx
	add	esp, 196				; 000000c4H
	cmp	ebp, esp
	call	__RTC_CheckEsp
	mov	esp, ebp
	pop	ebp
	ret	0
?hasCE32Tag@Collation@icu_56@@SACIH@Z ENDP		; icu_56::Collation::hasCE32Tag
_TEXT	ENDS
PUBLIC	?isLongPrimaryCE32@Collation@icu_56@@SACI@Z	; icu_56::Collation::isLongPrimaryCE32
; Function compile flags: /Odtp /RTCsu /ZI
;	COMDAT ?isLongPrimaryCE32@Collation@icu_56@@SACI@Z
_TEXT	SEGMENT
_ce32$ = 8						; size = 4
?isLongPrimaryCE32@Collation@icu_56@@SACI@Z PROC	; icu_56::Collation::isLongPrimaryCE32, COMDAT
; Line 346
	push	ebp
	mov	ebp, esp
	sub	esp, 192				; 000000c0H
	push	ebx
	push	esi
	push	edi
	lea	edi, DWORD PTR [ebp-192]
	mov	ecx, 48					; 00000030H
	mov	eax, -858993460				; ccccccccH
	rep stosd
; Line 347
	push	1
	mov	eax, DWORD PTR _ce32$[ebp]
	push	eax
	call	?hasCE32Tag@Collation@icu_56@@SACIH@Z	; icu_56::Collation::hasCE32Tag
	add	esp, 8
; Line 348
	pop	edi
	pop	esi
	pop	ebx
	add	esp, 192				; 000000c0H
	cmp	ebp, esp
	call	__RTC_CheckEsp
	mov	esp, ebp
	pop	ebp
	ret	0
?isLongPrimaryCE32@Collation@icu_56@@SACI@Z ENDP	; icu_56::Collation::isLongPrimaryCE32
_TEXT	ENDS
PUBLIC	?isSimpleOrLongCE32@Collation@icu_56@@SACI@Z	; icu_56::Collation::isSimpleOrLongCE32
; Function compile flags: /Odtp /RTCsu /ZI
;	COMDAT ?isSimpleOrLongCE32@Collation@icu_56@@SACI@Z
_TEXT	SEGMENT
tv74 = -193						; size = 1
_ce32$ = 8						; size = 4
?isSimpleOrLongCE32@Collation@icu_56@@SACI@Z PROC	; icu_56::Collation::isSimpleOrLongCE32, COMDAT
; Line 350
	push	ebp
	mov	ebp, esp
	sub	esp, 196				; 000000c4H
	push	ebx
	push	esi
	push	edi
	lea	edi, DWORD PTR [ebp-196]
	mov	ecx, 49					; 00000031H
	mov	eax, -858993460				; ccccccccH
	rep stosd
; Line 353
	mov	eax, DWORD PTR _ce32$[ebp]
	push	eax
	call	?isSpecialCE32@Collation@icu_56@@SACI@Z	; icu_56::Collation::isSpecialCE32
	add	esp, 4
	movsx	ecx, al
	test	ecx, ecx
	je	SHORT $LN3@isSimpleOr
	mov	edx, DWORD PTR _ce32$[ebp]
	push	edx
	call	?tagFromCE32@Collation@icu_56@@SAHI@Z	; icu_56::Collation::tagFromCE32
	add	esp, 4
	cmp	eax, 1
	je	SHORT $LN3@isSimpleOr
	mov	eax, DWORD PTR _ce32$[ebp]
	push	eax
	call	?tagFromCE32@Collation@icu_56@@SAHI@Z	; icu_56::Collation::tagFromCE32
	add	esp, 4
	cmp	eax, 2
	je	SHORT $LN3@isSimpleOr
	mov	BYTE PTR tv74[ebp], 0
	jmp	SHORT $LN4@isSimpleOr
$LN3@isSimpleOr:
	mov	BYTE PTR tv74[ebp], 1
$LN4@isSimpleOr:
	mov	al, BYTE PTR tv74[ebp]
; Line 354
	pop	edi
	pop	esi
	pop	ebx
	add	esp, 196				; 000000c4H
	cmp	ebp, esp
	call	__RTC_CheckEsp
	mov	esp, ebp
	pop	ebp
	ret	0
?isSimpleOrLongCE32@Collation@icu_56@@SACI@Z ENDP	; icu_56::Collation::isSimpleOrLongCE32
_TEXT	ENDS
PUBLIC	?isSelfContainedCE32@Collation@icu_56@@SACI@Z	; icu_56::Collation::isSelfContainedCE32
; Function compile flags: /Odtp /RTCsu /ZI
;	COMDAT ?isSelfContainedCE32@Collation@icu_56@@SACI@Z
_TEXT	SEGMENT
tv77 = -193						; size = 1
_ce32$ = 8						; size = 4
?isSelfContainedCE32@Collation@icu_56@@SACI@Z PROC	; icu_56::Collation::isSelfContainedCE32, COMDAT
; Line 359
	push	ebp
	mov	ebp, esp
	sub	esp, 196				; 000000c4H
	push	ebx
	push	esi
	push	edi
	lea	edi, DWORD PTR [ebp-196]
	mov	ecx, 49					; 00000031H
	mov	eax, -858993460				; ccccccccH
	rep stosd
; Line 363
	mov	eax, DWORD PTR _ce32$[ebp]
	push	eax
	call	?isSpecialCE32@Collation@icu_56@@SACI@Z	; icu_56::Collation::isSpecialCE32
	add	esp, 4
	movsx	ecx, al
	test	ecx, ecx
	je	SHORT $LN3@isSelfCont
	mov	edx, DWORD PTR _ce32$[ebp]
	push	edx
	call	?tagFromCE32@Collation@icu_56@@SAHI@Z	; icu_56::Collation::tagFromCE32
	add	esp, 4
	cmp	eax, 1
	je	SHORT $LN3@isSelfCont
	mov	eax, DWORD PTR _ce32$[ebp]
	push	eax
	call	?tagFromCE32@Collation@icu_56@@SAHI@Z	; icu_56::Collation::tagFromCE32
	add	esp, 4
	cmp	eax, 2
	je	SHORT $LN3@isSelfCont
	mov	ecx, DWORD PTR _ce32$[ebp]
	push	ecx
	call	?tagFromCE32@Collation@icu_56@@SAHI@Z	; icu_56::Collation::tagFromCE32
	add	esp, 4
	cmp	eax, 4
	je	SHORT $LN3@isSelfCont
	mov	BYTE PTR tv77[ebp], 0
	jmp	SHORT $LN4@isSelfCont
$LN3@isSelfCont:
	mov	BYTE PTR tv77[ebp], 1
$LN4@isSelfCont:
	mov	al, BYTE PTR tv77[ebp]
; Line 364
	pop	edi
	pop	esi
	pop	ebx
	add	esp, 196				; 000000c4H
	cmp	ebp, esp
	call	__RTC_CheckEsp
	mov	esp, ebp
	pop	ebp
	ret	0
?isSelfContainedCE32@Collation@icu_56@@SACI@Z ENDP	; icu_56::Collation::isSelfContainedCE32
_TEXT	ENDS
PUBLIC	?isPrefixCE32@Collation@icu_56@@SACI@Z		; icu_56::Collation::isPrefixCE32
; Function compile flags: /Odtp /RTCsu /ZI
;	COMDAT ?isPrefixCE32@Collation@icu_56@@SACI@Z
_TEXT	SEGMENT
_ce32$ = 8						; size = 4
?isPrefixCE32@Collation@icu_56@@SACI@Z PROC		; icu_56::Collation::isPrefixCE32, COMDAT
; Line 366
	push	ebp
	mov	ebp, esp
	sub	esp, 192				; 000000c0H
	push	ebx
	push	esi
	push	edi
	lea	edi, DWORD PTR [ebp-192]
	mov	ecx, 48					; 00000030H
	mov	eax, -858993460				; ccccccccH
	rep stosd
; Line 367
	push	8
	mov	eax, DWORD PTR _ce32$[ebp]
	push	eax
	call	?hasCE32Tag@Collation@icu_56@@SACIH@Z	; icu_56::Collation::hasCE32Tag
	add	esp, 8
; Line 368
	pop	edi
	pop	esi
	pop	ebx
	add	esp, 192				; 000000c0H
	cmp	ebp, esp
	call	__RTC_CheckEsp
	mov	esp, ebp
	pop	ebp
	ret	0
?isPrefixCE32@Collation@icu_56@@SACI@Z ENDP		; icu_56::Collation::isPrefixCE32
_TEXT	ENDS
PUBLIC	?isContractionCE32@Collation@icu_56@@SACI@Z	; icu_56::Collation::isContractionCE32
; Function compile flags: /Odtp /RTCsu /ZI
;	COMDAT ?isContractionCE32@Collation@icu_56@@SACI@Z
_TEXT	SEGMENT
_ce32$ = 8						; size = 4
?isContractionCE32@Collation@icu_56@@SACI@Z PROC	; icu_56::Collation::isContractionCE32, COMDAT
; Line 370
	push	ebp
	mov	ebp, esp
	sub	esp, 192				; 000000c0H
	push	ebx
	push	esi
	push	edi
	lea	edi, DWORD PTR [ebp-192]
	mov	ecx, 48					; 00000030H
	mov	eax, -858993460				; ccccccccH
	rep stosd
; Line 371
	push	9
	mov	eax, DWORD PTR _ce32$[ebp]
	push	eax
	call	?hasCE32Tag@Collation@icu_56@@SACIH@Z	; icu_56::Collation::hasCE32Tag
	add	esp, 8
; Line 372
	pop	edi
	pop	esi
	pop	ebx
	add	esp, 192				; 000000c0H
	cmp	ebp, esp
	call	__RTC_CheckEsp
	mov	esp, ebp
	pop	ebp
	ret	0
?isContractionCE32@Collation@icu_56@@SACI@Z ENDP	; icu_56::Collation::isContractionCE32
_TEXT	ENDS
PUBLIC	?ce32HasContext@Collation@icu_56@@SACI@Z	; icu_56::Collation::ce32HasContext
; Function compile flags: /Odtp /RTCsu /ZI
;	COMDAT ?ce32HasContext@Collation@icu_56@@SACI@Z
_TEXT	SEGMENT
tv74 = -193						; size = 1
_ce32$ = 8						; size = 4
?ce32HasContext@Collation@icu_56@@SACI@Z PROC		; icu_56::Collation::ce32HasContext, COMDAT
; Line 374
	push	ebp
	mov	ebp, esp
	sub	esp, 196				; 000000c4H
	push	ebx
	push	esi
	push	edi
	lea	edi, DWORD PTR [ebp-196]
	mov	ecx, 49					; 00000031H
	mov	eax, -858993460				; ccccccccH
	rep stosd
; Line 377
	mov	eax, DWORD PTR _ce32$[ebp]
	push	eax
	call	?isSpecialCE32@Collation@icu_56@@SACI@Z	; icu_56::Collation::isSpecialCE32
	add	esp, 4
	movsx	ecx, al
	test	ecx, ecx
	je	SHORT $LN4@ce32HasCon
	mov	edx, DWORD PTR _ce32$[ebp]
	push	edx
	call	?tagFromCE32@Collation@icu_56@@SAHI@Z	; icu_56::Collation::tagFromCE32
	add	esp, 4
	cmp	eax, 8
	je	SHORT $LN3@ce32HasCon
	mov	eax, DWORD PTR _ce32$[ebp]
	push	eax
	call	?tagFromCE32@Collation@icu_56@@SAHI@Z	; icu_56::Collation::tagFromCE32
	add	esp, 4
	cmp	eax, 9
	jne	SHORT $LN4@ce32HasCon
$LN3@ce32HasCon:
	mov	BYTE PTR tv74[ebp], 1
	jmp	SHORT $LN5@ce32HasCon
$LN4@ce32HasCon:
	mov	BYTE PTR tv74[ebp], 0
$LN5@ce32HasCon:
	mov	al, BYTE PTR tv74[ebp]
; Line 378
	pop	edi
	pop	esi
	pop	ebx
	add	esp, 196				; 000000c4H
	cmp	ebp, esp
	call	__RTC_CheckEsp
	mov	esp, ebp
	pop	ebp
	ret	0
?ce32HasContext@Collation@icu_56@@SACI@Z ENDP		; icu_56::Collation::ce32HasContext
_TEXT	ENDS
PUBLIC	?latinCE0FromCE32@Collation@icu_56@@SA_JI@Z	; icu_56::Collation::latinCE0FromCE32
; Function compile flags: /Odtp /RTCsu /ZI
;	COMDAT ?latinCE0FromCE32@Collation@icu_56@@SA_JI@Z
_TEXT	SEGMENT
_ce32$ = 8						; size = 4
?latinCE0FromCE32@Collation@icu_56@@SA_JI@Z PROC	; icu_56::Collation::latinCE0FromCE32, COMDAT
; Line 384
	push	ebp
	mov	ebp, esp
	sub	esp, 192				; 000000c0H
	push	ebx
	push	esi
	push	edi
	lea	edi, DWORD PTR [ebp-192]
	mov	ecx, 48					; 00000030H
	mov	eax, -858993460				; ccccccccH
	rep stosd
; Line 385
	mov	eax, DWORD PTR _ce32$[ebp]
	and	eax, -16777216				; ff000000H
	xor	edx, edx
	mov	cl, 32					; 00000020H
	call	__allshl
	or	eax, 83886080				; 05000000H
	mov	ecx, DWORD PTR _ce32$[ebp]
	and	ecx, 16711680				; 00ff0000H
	shr	ecx, 8
	xor	esi, esi
	or	eax, ecx
	or	edx, esi
; Line 386
	pop	edi
	pop	esi
	pop	ebx
	add	esp, 192				; 000000c0H
	cmp	ebp, esp
	call	__RTC_CheckEsp
	mov	esp, ebp
	pop	ebp
	ret	0
?latinCE0FromCE32@Collation@icu_56@@SA_JI@Z ENDP	; icu_56::Collation::latinCE0FromCE32
_TEXT	ENDS
PUBLIC	?latinCE1FromCE32@Collation@icu_56@@SA_JI@Z	; icu_56::Collation::latinCE1FromCE32
; Function compile flags: /Odtp /RTCsu /ZI
;	COMDAT ?latinCE1FromCE32@Collation@icu_56@@SA_JI@Z
_TEXT	SEGMENT
_ce32$ = 8						; size = 4
?latinCE1FromCE32@Collation@icu_56@@SA_JI@Z PROC	; icu_56::Collation::latinCE1FromCE32, COMDAT
; Line 392
	push	ebp
	mov	ebp, esp
	sub	esp, 192				; 000000c0H
	push	ebx
	push	esi
	push	edi
	lea	edi, DWORD PTR [ebp-192]
	mov	ecx, 48					; 00000030H
	mov	eax, -858993460				; ccccccccH
	rep stosd
; Line 393
	mov	eax, DWORD PTR _ce32$[ebp]
	and	eax, 65280				; 0000ff00H
	shl	eax, 16					; 00000010H
	or	eax, 1280				; 00000500H
	xor	edx, edx
; Line 394
	pop	edi
	pop	esi
	pop	ebx
	mov	esp, ebp
	pop	ebp
	ret	0
?latinCE1FromCE32@Collation@icu_56@@SA_JI@Z ENDP	; icu_56::Collation::latinCE1FromCE32
_TEXT	ENDS
PUBLIC	?indexFromCE32@Collation@icu_56@@SAHI@Z		; icu_56::Collation::indexFromCE32
; Function compile flags: /Odtp /RTCsu /ZI
;	COMDAT ?indexFromCE32@Collation@icu_56@@SAHI@Z
_TEXT	SEGMENT
_ce32$ = 8						; size = 4
?indexFromCE32@Collation@icu_56@@SAHI@Z PROC		; icu_56::Collation::indexFromCE32, COMDAT
; Line 399
	push	ebp
	mov	ebp, esp
	sub	esp, 192				; 000000c0H
	push	ebx
	push	esi
	push	edi
	lea	edi, DWORD PTR [ebp-192]
	mov	ecx, 48					; 00000030H
	mov	eax, -858993460				; ccccccccH
	rep stosd
; Line 400
	mov	eax, DWORD PTR _ce32$[ebp]
	shr	eax, 13					; 0000000dH
; Line 401
	pop	edi
	pop	esi
	pop	ebx
	mov	esp, ebp
	pop	ebp
	ret	0
?indexFromCE32@Collation@icu_56@@SAHI@Z ENDP		; icu_56::Collation::indexFromCE32
_TEXT	ENDS
PUBLIC	?lengthFromCE32@Collation@icu_56@@SAHI@Z	; icu_56::Collation::lengthFromCE32
; Function compile flags: /Odtp /RTCsu /ZI
;	COMDAT ?lengthFromCE32@Collation@icu_56@@SAHI@Z
_TEXT	SEGMENT
_ce32$ = 8						; size = 4
?lengthFromCE32@Collation@icu_56@@SAHI@Z PROC		; icu_56::Collation::lengthFromCE32, COMDAT
; Line 406
	push	ebp
	mov	ebp, esp
	sub	esp, 192				; 000000c0H
	push	ebx
	push	esi
	push	edi
	lea	edi, DWORD PTR [ebp-192]
	mov	ecx, 48					; 00000030H
	mov	eax, -858993460				; ccccccccH
	rep stosd
; Line 407
	mov	eax, DWORD PTR _ce32$[ebp]
	shr	eax, 8
	and	eax, 31					; 0000001fH
; Line 408
	pop	edi
	pop	esi
	pop	ebx
	mov	esp, ebp
	pop	ebp
	ret	0
?lengthFromCE32@Collation@icu_56@@SAHI@Z ENDP		; icu_56::Collation::lengthFromCE32
_TEXT	ENDS
PUBLIC	?digitFromCE32@Collation@icu_56@@SADI@Z		; icu_56::Collation::digitFromCE32
; Function compile flags: /Odtp /RTCsu /ZI
;	COMDAT ?digitFromCE32@Collation@icu_56@@SADI@Z
_TEXT	SEGMENT
_ce32$ = 8						; size = 4
?digitFromCE32@Collation@icu_56@@SADI@Z PROC		; icu_56::Collation::digitFromCE32, COMDAT
; Line 413
	push	ebp
	mov	ebp, esp
	sub	esp, 192				; 000000c0H
	push	ebx
	push	esi
	push	edi
	lea	edi, DWORD PTR [ebp-192]
	mov	ecx, 48					; 00000030H
	mov	eax, -858993460				; ccccccccH
	rep stosd
; Line 414
	mov	eax, DWORD PTR _ce32$[ebp]
	shr	eax, 8
	and	eax, 15					; 0000000fH
; Line 415
	pop	edi
	pop	esi
	pop	ebx
	mov	esp, ebp
	pop	ebp
	ret	0
?digitFromCE32@Collation@icu_56@@SADI@Z ENDP		; icu_56::Collation::digitFromCE32
_TEXT	ENDS
PUBLIC	?ceFromSimpleCE32@Collation@icu_56@@SA_JI@Z	; icu_56::Collation::ceFromSimpleCE32
; Function compile flags: /Odtp /RTCsu /ZI
;	COMDAT ?ceFromSimpleCE32@Collation@icu_56@@SA_JI@Z
_TEXT	SEGMENT
_ce32$ = 8						; size = 4
?ceFromSimpleCE32@Collation@icu_56@@SA_JI@Z PROC	; icu_56::Collation::ceFromSimpleCE32, COMDAT
; Line 418
	push	ebp
	mov	ebp, esp
	sub	esp, 192				; 000000c0H
	push	ebx
	push	esi
	push	edi
	lea	edi, DWORD PTR [ebp-192]
	mov	ecx, 48					; 00000030H
	mov	eax, -858993460				; ccccccccH
	rep stosd
; Line 421
	mov	eax, DWORD PTR _ce32$[ebp]
	and	eax, -65536				; ffff0000H
	xor	edx, edx
	mov	cl, 32					; 00000020H
	call	__allshl
	mov	ecx, DWORD PTR _ce32$[ebp]
	and	ecx, 65280				; 0000ff00H
	shl	ecx, 16					; 00000010H
	xor	esi, esi
	or	eax, ecx
	or	edx, esi
	mov	ecx, DWORD PTR _ce32$[ebp]
	and	ecx, 255				; 000000ffH
	shl	ecx, 8
	xor	esi, esi
	or	eax, ecx
	or	edx, esi
; Line 422
	pop	edi
	pop	esi
	pop	ebx
	add	esp, 192				; 000000c0H
	cmp	ebp, esp
	call	__RTC_CheckEsp
	mov	esp, ebp
	pop	ebp
	ret	0
?ceFromSimpleCE32@Collation@icu_56@@SA_JI@Z ENDP	; icu_56::Collation::ceFromSimpleCE32
_TEXT	ENDS
PUBLIC	?ceFromCE32@Collation@icu_56@@SA_JI@Z		; icu_56::Collation::ceFromCE32
; Function compile flags: /Odtp /RTCsu /ZI
;	COMDAT ?ceFromCE32@Collation@icu_56@@SA_JI@Z
_TEXT	SEGMENT
_tertiary$ = -8						; size = 4
_ce32$ = 8						; size = 4
?ceFromCE32@Collation@icu_56@@SA_JI@Z PROC		; icu_56::Collation::ceFromCE32, COMDAT
; Line 425
	push	ebp
	mov	ebp, esp
	sub	esp, 204				; 000000ccH
	push	ebx
	push	esi
	push	edi
	lea	edi, DWORD PTR [ebp-204]
	mov	ecx, 51					; 00000033H
	mov	eax, -858993460				; ccccccccH
	rep stosd
; Line 426
	mov	eax, DWORD PTR _ce32$[ebp]
	and	eax, 255				; 000000ffH
	mov	DWORD PTR _tertiary$[ebp], eax
; Line 427
	cmp	DWORD PTR _tertiary$[ebp], 192		; 000000c0H
	jae	SHORT $LN4@ceFromCE32
; Line 429
	mov	eax, DWORD PTR _ce32$[ebp]
	and	eax, -65536				; ffff0000H
	xor	edx, edx
	mov	cl, 32					; 00000020H
	call	__allshl
	mov	ecx, DWORD PTR _ce32$[ebp]
	and	ecx, 65280				; 0000ff00H
	shl	ecx, 16					; 00000010H
	xor	esi, esi
	or	eax, ecx
	or	edx, esi
	mov	ecx, DWORD PTR _tertiary$[ebp]
	shl	ecx, 8
	xor	esi, esi
	or	eax, ecx
	or	edx, esi
	jmp	SHORT $LN5@ceFromCE32
; Line 430
	jmp	SHORT $LN5@ceFromCE32
$LN4@ceFromCE32:
; Line 431
	mov	eax, DWORD PTR _ce32$[ebp]
	sub	eax, DWORD PTR _tertiary$[ebp]
	mov	DWORD PTR _ce32$[ebp], eax
; Line 432
	mov	eax, DWORD PTR _tertiary$[ebp]
	and	eax, 15					; 0000000fH
	cmp	eax, 1
	jne	SHORT $LN2@ceFromCE32
; Line 434
	mov	eax, DWORD PTR _ce32$[ebp]
	xor	edx, edx
	mov	cl, 32					; 00000020H
	call	__allshl
	or	eax, 83887360				; 05000500H
	jmp	SHORT $LN5@ceFromCE32
; Line 435
	jmp	SHORT $LN5@ceFromCE32
$LN2@ceFromCE32:
; Line 438
	mov	eax, DWORD PTR _ce32$[ebp]
	xor	edx, edx
$LN5@ceFromCE32:
; Line 441
	pop	edi
	pop	esi
	pop	ebx
	add	esp, 204				; 000000ccH
	cmp	ebp, esp
	call	__RTC_CheckEsp
	mov	esp, ebp
	pop	ebp
	ret	0
?ceFromCE32@Collation@icu_56@@SA_JI@Z ENDP		; icu_56::Collation::ceFromCE32
_TEXT	ENDS
PUBLIC	?makeCE@Collation@icu_56@@SA_JI@Z		; icu_56::Collation::makeCE
; Function compile flags: /Odtp /RTCsu /ZI
;	COMDAT ?makeCE@Collation@icu_56@@SA_JI@Z
_TEXT	SEGMENT
_p$ = 8							; size = 4
?makeCE@Collation@icu_56@@SA_JI@Z PROC			; icu_56::Collation::makeCE, COMDAT
; Line 444
	push	ebp
	mov	ebp, esp
	sub	esp, 192				; 000000c0H
	push	ebx
	push	esi
	push	edi
	lea	edi, DWORD PTR [ebp-192]
	mov	ecx, 48					; 00000030H
	mov	eax, -858993460				; ccccccccH
	rep stosd
; Line 445
	mov	eax, DWORD PTR _p$[ebp]
	xor	edx, edx
	mov	cl, 32					; 00000020H
	call	__allshl
	or	eax, 83887360				; 05000500H
; Line 446
	pop	edi
	pop	esi
	pop	ebx
	add	esp, 192				; 000000c0H
	cmp	ebp, esp
	call	__RTC_CheckEsp
	mov	esp, ebp
	pop	ebp
	ret	0
?makeCE@Collation@icu_56@@SA_JI@Z ENDP			; icu_56::Collation::makeCE
_TEXT	ENDS
PUBLIC	?makeCE@Collation@icu_56@@SA_JIIII@Z		; icu_56::Collation::makeCE
; Function compile flags: /Odtp /RTCsu /ZI
;	COMDAT ?makeCE@Collation@icu_56@@SA_JIIII@Z
_TEXT	SEGMENT
_p$ = 8							; size = 4
_s$ = 12						; size = 4
_t$ = 16						; size = 4
_q$ = 20						; size = 4
?makeCE@Collation@icu_56@@SA_JIIII@Z PROC		; icu_56::Collation::makeCE, COMDAT
; Line 451
	push	ebp
	mov	ebp, esp
	sub	esp, 192				; 000000c0H
	push	ebx
	push	esi
	push	edi
	lea	edi, DWORD PTR [ebp-192]
	mov	ecx, 48					; 00000030H
	mov	eax, -858993460				; ccccccccH
	rep stosd
; Line 452
	mov	eax, DWORD PTR _p$[ebp]
	xor	edx, edx
	mov	cl, 32					; 00000020H
	call	__allshl
	mov	ecx, DWORD PTR _s$[ebp]
	shl	ecx, 16					; 00000010H
	xor	esi, esi
	or	eax, ecx
	or	edx, esi
	mov	ecx, DWORD PTR _t$[ebp]
	xor	esi, esi
	or	eax, ecx
	or	edx, esi
	mov	ecx, DWORD PTR _q$[ebp]
	shl	ecx, 6
	xor	esi, esi
	or	eax, ecx
	or	edx, esi
; Line 453
	pop	edi
	pop	esi
	pop	ebx
	add	esp, 192				; 000000c0H
	cmp	ebp, esp
	call	__RTC_CheckEsp
	mov	esp, ebp
	pop	ebp
	ret	0
?makeCE@Collation@icu_56@@SA_JIIII@Z ENDP		; icu_56::Collation::makeCE
_TEXT	ENDS
PUBLIC	?unassignedCEFromCodePoint@Collation@icu_56@@SA_JH@Z ; icu_56::Collation::unassignedCEFromCodePoint
EXTRN	?unassignedPrimaryFromCodePoint@Collation@icu_56@@SAIH@Z:PROC ; icu_56::Collation::unassignedPrimaryFromCodePoint
; Function compile flags: /Odtp /RTCsu /ZI
;	COMDAT ?unassignedCEFromCodePoint@Collation@icu_56@@SA_JH@Z
_TEXT	SEGMENT
_c$ = 8							; size = 4
?unassignedCEFromCodePoint@Collation@icu_56@@SA_JH@Z PROC ; icu_56::Collation::unassignedCEFromCodePoint, COMDAT
; Line 487
	push	ebp
	mov	ebp, esp
	sub	esp, 192				; 000000c0H
	push	ebx
	push	esi
	push	edi
	lea	edi, DWORD PTR [ebp-192]
	mov	ecx, 48					; 00000030H
	mov	eax, -858993460				; ccccccccH
	rep stosd
; Line 488
	mov	eax, DWORD PTR _c$[ebp]
	push	eax
	call	?unassignedPrimaryFromCodePoint@Collation@icu_56@@SAIH@Z ; icu_56::Collation::unassignedPrimaryFromCodePoint
	add	esp, 4
	push	eax
	call	?makeCE@Collation@icu_56@@SA_JI@Z	; icu_56::Collation::makeCE
	add	esp, 4
; Line 489
	pop	edi
	pop	esi
	pop	ebx
	add	esp, 192				; 000000c0H
	cmp	ebp, esp
	call	__RTC_CheckEsp
	mov	esp, ebp
	pop	ebp
	ret	0
?unassignedCEFromCodePoint@Collation@icu_56@@SA_JH@Z ENDP ; icu_56::Collation::unassignedCEFromCodePoint
_TEXT	ENDS
PUBLIC	??4Collation@icu_56@@QAEAAV01@ABV01@@Z		; icu_56::Collation::operator=
; Function compile flags: /Odtp /RTCsu /ZI
;	COMDAT ??4Collation@icu_56@@QAEAAV01@ABV01@@Z
_TEXT	SEGMENT
_this$ = -8						; size = 4
___that$ = 8						; size = 4
??4Collation@icu_56@@QAEAAV01@ABV01@@Z PROC		; icu_56::Collation::operator=, COMDAT
; _this$ = ecx
	push	ebp
	mov	ebp, esp
	sub	esp, 204				; 000000ccH
	push	ebx
	push	esi
	push	edi
	push	ecx
	lea	edi, DWORD PTR [ebp-204]
	mov	ecx, 51					; 00000033H
	mov	eax, -858993460				; ccccccccH
	rep stosd
	pop	ecx
	mov	DWORD PTR _this$[ebp], ecx
	mov	eax, DWORD PTR _this$[ebp]
	pop	edi
	pop	esi
	pop	ebx
	mov	esp, ebp
	pop	ebp
	ret	4
??4Collation@icu_56@@QAEAAV01@ABV01@@Z ENDP		; icu_56::Collation::operator=
_TEXT	ENDS
PUBLIC	??0CollationRootElements@icu_56@@QAE@PBIH@Z	; icu_56::CollationRootElements::CollationRootElements
; Function compile flags: /Odtp /RTCsu /ZI
;	COMDAT ??0CollationRootElements@icu_56@@QAE@PBIH@Z
_TEXT	SEGMENT
_this$ = -8						; size = 4
_rootElements$ = 8					; size = 4
_rootElementsLength$ = 12				; size = 4
??0CollationRootElements@icu_56@@QAE@PBIH@Z PROC	; icu_56::CollationRootElements::CollationRootElements, COMDAT
; _this$ = ecx
; File d:\mozilla\intl\icu\source\i18n\collationrootelements.h
; Line 33
	push	ebp
	mov	ebp, esp
	sub	esp, 204				; 000000ccH
	push	ebx
	push	esi
	push	edi
	push	ecx
	lea	edi, DWORD PTR [ebp-204]
	mov	ecx, 51					; 00000033H
	mov	eax, -858993460				; ccccccccH
	rep stosd
	pop	ecx
	mov	DWORD PTR _this$[ebp], ecx
	mov	eax, DWORD PTR _this$[ebp]
	mov	ecx, DWORD PTR _rootElements$[ebp]
	mov	DWORD PTR [eax], ecx
	mov	eax, DWORD PTR _this$[ebp]
	mov	ecx, DWORD PTR _rootElementsLength$[ebp]
	mov	DWORD PTR [eax+4], ecx
	mov	eax, DWORD PTR _this$[ebp]
	pop	edi
	pop	esi
	pop	ebx
	mov	esp, ebp
	pop	ebp
	ret	8
??0CollationRootElements@icu_56@@QAE@PBIH@Z ENDP	; icu_56::CollationRootElements::CollationRootElements
_TEXT	ENDS
PUBLIC	?getTertiaryBoundary@CollationRootElements@icu_56@@QBEIXZ ; icu_56::CollationRootElements::getTertiaryBoundary
; Function compile flags: /Odtp /RTCsu /ZI
;	COMDAT ?getTertiaryBoundary@CollationRootElements@icu_56@@QBEIXZ
_TEXT	SEGMENT
_this$ = -8						; size = 4
?getTertiaryBoundary@CollationRootElements@icu_56@@QBEIXZ PROC ; icu_56::CollationRootElements::getTertiaryBoundary, COMDAT
; _this$ = ecx
; Line 90
	push	ebp
	mov	ebp, esp
	sub	esp, 204				; 000000ccH
	push	ebx
	push	esi
	push	edi
	push	ecx
	lea	edi, DWORD PTR [ebp-204]
	mov	ecx, 51					; 00000033H
	mov	eax, -858993460				; ccccccccH
	rep stosd
	pop	ecx
	mov	DWORD PTR _this$[ebp], ecx
; Line 91
	mov	eax, DWORD PTR _this$[ebp]
	mov	ecx, DWORD PTR [eax]
	mov	eax, DWORD PTR [ecx+16]
	shl	eax, 8
	and	eax, 65280				; 0000ff00H
; Line 92
	pop	edi
	pop	esi
	pop	ebx
	mov	esp, ebp
	pop	ebp
	ret	0
?getTertiaryBoundary@CollationRootElements@icu_56@@QBEIXZ ENDP ; icu_56::CollationRootElements::getTertiaryBoundary
_TEXT	ENDS
PUBLIC	?getFirstTertiaryCE@CollationRootElements@icu_56@@QBEIXZ ; icu_56::CollationRootElements::getFirstTertiaryCE
; Function compile flags: /Odtp /RTCsu /ZI
;	COMDAT ?getFirstTertiaryCE@CollationRootElements@icu_56@@QBEIXZ
_TEXT	SEGMENT
_this$ = -8						; size = 4
?getFirstTertiaryCE@CollationRootElements@icu_56@@QBEIXZ PROC ; icu_56::CollationRootElements::getFirstTertiaryCE, COMDAT
; _this$ = ecx
; Line 97
	push	ebp
	mov	ebp, esp
	sub	esp, 204				; 000000ccH
	push	ebx
	push	esi
	push	edi
	push	ecx
	lea	edi, DWORD PTR [ebp-204]
	mov	ecx, 51					; 00000033H
	mov	eax, -858993460				; ccccccccH
	rep stosd
	pop	ecx
	mov	DWORD PTR _this$[ebp], ecx
; Line 98
	mov	eax, DWORD PTR _this$[ebp]
	mov	ecx, DWORD PTR [eax]
	mov	edx, DWORD PTR [ecx]
	mov	eax, DWORD PTR _this$[ebp]
	mov	ecx, DWORD PTR [eax]
	mov	eax, DWORD PTR [ecx+edx*4]
	and	eax, -129				; ffffff7fH
; Line 99
	pop	edi
	pop	esi
	pop	ebx
	mov	esp, ebp
	pop	ebp
	ret	0
?getFirstTertiaryCE@CollationRootElements@icu_56@@QBEIXZ ENDP ; icu_56::CollationRootElements::getFirstTertiaryCE
_TEXT	ENDS
PUBLIC	?getLastTertiaryCE@CollationRootElements@icu_56@@QBEIXZ ; icu_56::CollationRootElements::getLastTertiaryCE
; Function compile flags: /Odtp /RTCsu /ZI
;	COMDAT ?getLastTertiaryCE@CollationRootElements@icu_56@@QBEIXZ
_TEXT	SEGMENT
_this$ = -8						; size = 4
?getLastTertiaryCE@CollationRootElements@icu_56@@QBEIXZ PROC ; icu_56::CollationRootElements::getLastTertiaryCE, COMDAT
; _this$ = ecx
; Line 104
	push	ebp
	mov	ebp, esp
	sub	esp, 204				; 000000ccH
	push	ebx
	push	esi
	push	edi
	push	ecx
	lea	edi, DWORD PTR [ebp-204]
	mov	ecx, 51					; 00000033H
	mov	eax, -858993460				; ccccccccH
	rep stosd
	pop	ecx
	mov	DWORD PTR _this$[ebp], ecx
; Line 105
	mov	eax, DWORD PTR _this$[ebp]
	mov	ecx, DWORD PTR [eax]
	mov	edx, DWORD PTR [ecx+4]
	mov	eax, DWORD PTR _this$[ebp]
	mov	ecx, DWORD PTR [eax]
	mov	eax, DWORD PTR [ecx+edx*4-4]
	and	eax, -129				; ffffff7fH
; Line 106
	pop	edi
	pop	esi
	pop	ebx
	mov	esp, ebp
	pop	ebp
	ret	0
?getLastTertiaryCE@CollationRootElements@icu_56@@QBEIXZ ENDP ; icu_56::CollationRootElements::getLastTertiaryCE
_TEXT	ENDS
PUBLIC	?getLastCommonSecondary@CollationRootElements@icu_56@@QBEIXZ ; icu_56::CollationRootElements::getLastCommonSecondary
; Function compile flags: /Odtp /RTCsu /ZI
;	COMDAT ?getLastCommonSecondary@CollationRootElements@icu_56@@QBEIXZ
_TEXT	SEGMENT
_this$ = -8						; size = 4
?getLastCommonSecondary@CollationRootElements@icu_56@@QBEIXZ PROC ; icu_56::CollationRootElements::getLastCommonSecondary, COMDAT
; _this$ = ecx
; Line 112
	push	ebp
	mov	ebp, esp
	sub	esp, 204				; 000000ccH
	push	ebx
	push	esi
	push	edi
	push	ecx
	lea	edi, DWORD PTR [ebp-204]
	mov	ecx, 51					; 00000033H
	mov	eax, -858993460				; ccccccccH
	rep stosd
	pop	ecx
	mov	DWORD PTR _this$[ebp], ecx
; Line 113
	mov	eax, DWORD PTR _this$[ebp]
	mov	ecx, DWORD PTR [eax]
	mov	eax, DWORD PTR [ecx+16]
	shr	eax, 16					; 00000010H
	and	eax, 65280				; 0000ff00H
; Line 114
	pop	edi
	pop	esi
	pop	ebx
	mov	esp, ebp
	pop	ebp
	ret	0
?getLastCommonSecondary@CollationRootElements@icu_56@@QBEIXZ ENDP ; icu_56::CollationRootElements::getLastCommonSecondary
_TEXT	ENDS
PUBLIC	?getSecondaryBoundary@CollationRootElements@icu_56@@QBEIXZ ; icu_56::CollationRootElements::getSecondaryBoundary
; Function compile flags: /Odtp /RTCsu /ZI
;	COMDAT ?getSecondaryBoundary@CollationRootElements@icu_56@@QBEIXZ
_TEXT	SEGMENT
_this$ = -8						; size = 4
?getSecondaryBoundary@CollationRootElements@icu_56@@QBEIXZ PROC ; icu_56::CollationRootElements::getSecondaryBoundary, COMDAT
; _this$ = ecx
; Line 122
	push	ebp
	mov	ebp, esp
	sub	esp, 204				; 000000ccH
	push	ebx
	push	esi
	push	edi
	push	ecx
	lea	edi, DWORD PTR [ebp-204]
	mov	ecx, 51					; 00000033H
	mov	eax, -858993460				; ccccccccH
	rep stosd
	pop	ecx
	mov	DWORD PTR _this$[ebp], ecx
; Line 123
	mov	eax, DWORD PTR _this$[ebp]
	mov	ecx, DWORD PTR [eax]
	mov	eax, DWORD PTR [ecx+16]
	shr	eax, 8
	and	eax, 65280				; 0000ff00H
; Line 124
	pop	edi
	pop	esi
	pop	ebx
	mov	esp, ebp
	pop	ebp
	ret	0
?getSecondaryBoundary@CollationRootElements@icu_56@@QBEIXZ ENDP ; icu_56::CollationRootElements::getSecondaryBoundary
_TEXT	ENDS
PUBLIC	?getFirstSecondaryCE@CollationRootElements@icu_56@@QBEIXZ ; icu_56::CollationRootElements::getFirstSecondaryCE
; Function compile flags: /Odtp /RTCsu /ZI
;	COMDAT ?getFirstSecondaryCE@CollationRootElements@icu_56@@QBEIXZ
_TEXT	SEGMENT
_this$ = -8						; size = 4
?getFirstSecondaryCE@CollationRootElements@icu_56@@QBEIXZ PROC ; icu_56::CollationRootElements::getFirstSecondaryCE, COMDAT
; _this$ = ecx
; Line 129
	push	ebp
	mov	ebp, esp
	sub	esp, 204				; 000000ccH
	push	ebx
	push	esi
	push	edi
	push	ecx
	lea	edi, DWORD PTR [ebp-204]
	mov	ecx, 51					; 00000033H
	mov	eax, -858993460				; ccccccccH
	rep stosd
	pop	ecx
	mov	DWORD PTR _this$[ebp], ecx
; Line 130
	mov	eax, DWORD PTR _this$[ebp]
	mov	ecx, DWORD PTR [eax]
	mov	edx, DWORD PTR [ecx+4]
	mov	eax, DWORD PTR _this$[ebp]
	mov	ecx, DWORD PTR [eax]
	mov	eax, DWORD PTR [ecx+edx*4]
	and	eax, -129				; ffffff7fH
; Line 131
	pop	edi
	pop	esi
	pop	ebx
	mov	esp, ebp
	pop	ebp
	ret	0
?getFirstSecondaryCE@CollationRootElements@icu_56@@QBEIXZ ENDP ; icu_56::CollationRootElements::getFirstSecondaryCE
_TEXT	ENDS
PUBLIC	?getLastSecondaryCE@CollationRootElements@icu_56@@QBEIXZ ; icu_56::CollationRootElements::getLastSecondaryCE
; Function compile flags: /Odtp /RTCsu /ZI
;	COMDAT ?getLastSecondaryCE@CollationRootElements@icu_56@@QBEIXZ
_TEXT	SEGMENT
_this$ = -8						; size = 4
?getLastSecondaryCE@CollationRootElements@icu_56@@QBEIXZ PROC ; icu_56::CollationRootElements::getLastSecondaryCE, COMDAT
; _this$ = ecx
; Line 136
	push	ebp
	mov	ebp, esp
	sub	esp, 204				; 000000ccH
	push	ebx
	push	esi
	push	edi
	push	ecx
	lea	edi, DWORD PTR [ebp-204]
	mov	ecx, 51					; 00000033H
	mov	eax, -858993460				; ccccccccH
	rep stosd
	pop	ecx
	mov	DWORD PTR _this$[ebp], ecx
; Line 137
	mov	eax, DWORD PTR _this$[ebp]
	mov	ecx, DWORD PTR [eax]
	mov	edx, DWORD PTR [ecx+8]
	mov	eax, DWORD PTR _this$[ebp]
	mov	ecx, DWORD PTR [eax]
	mov	eax, DWORD PTR [ecx+edx*4-4]
	and	eax, -129				; ffffff7fH
; Line 138
	pop	edi
	pop	esi
	pop	ebx
	mov	esp, ebp
	pop	ebp
	ret	0
?getLastSecondaryCE@CollationRootElements@icu_56@@QBEIXZ ENDP ; icu_56::CollationRootElements::getLastSecondaryCE
_TEXT	ENDS
PUBLIC	?getFirstPrimary@CollationRootElements@icu_56@@QBEIXZ ; icu_56::CollationRootElements::getFirstPrimary
; Function compile flags: /Odtp /RTCsu /ZI
;	COMDAT ?getFirstPrimary@CollationRootElements@icu_56@@QBEIXZ
_TEXT	SEGMENT
_this$ = -8						; size = 4
?getFirstPrimary@CollationRootElements@icu_56@@QBEIXZ PROC ; icu_56::CollationRootElements::getFirstPrimary, COMDAT
; _this$ = ecx
; Line 143
	push	ebp
	mov	ebp, esp
	sub	esp, 204				; 000000ccH
	push	ebx
	push	esi
	push	edi
	push	ecx
	lea	edi, DWORD PTR [ebp-204]
	mov	ecx, 51					; 00000033H
	mov	eax, -858993460				; ccccccccH
	rep stosd
	pop	ecx
	mov	DWORD PTR _this$[ebp], ecx
; Line 144
	mov	eax, DWORD PTR _this$[ebp]
	mov	ecx, DWORD PTR [eax]
	mov	edx, DWORD PTR [ecx+8]
	mov	eax, DWORD PTR _this$[ebp]
	mov	ecx, DWORD PTR [eax]
	mov	eax, DWORD PTR [ecx+edx*4]
; Line 145
	pop	edi
	pop	esi
	pop	ebx
	mov	esp, ebp
	pop	ebp
	ret	0
?getFirstPrimary@CollationRootElements@icu_56@@QBEIXZ ENDP ; icu_56::CollationRootElements::getFirstPrimary
_TEXT	ENDS
PUBLIC	?getFirstPrimaryCE@CollationRootElements@icu_56@@QBE_JXZ ; icu_56::CollationRootElements::getFirstPrimaryCE
; Function compile flags: /Odtp /RTCsu /ZI
;	COMDAT ?getFirstPrimaryCE@CollationRootElements@icu_56@@QBE_JXZ
_TEXT	SEGMENT
_this$ = -8						; size = 4
?getFirstPrimaryCE@CollationRootElements@icu_56@@QBE_JXZ PROC ; icu_56::CollationRootElements::getFirstPrimaryCE, COMDAT
; _this$ = ecx
; Line 150
	push	ebp
	mov	ebp, esp
	sub	esp, 204				; 000000ccH
	push	ebx
	push	esi
	push	edi
	push	ecx
	lea	edi, DWORD PTR [ebp-204]
	mov	ecx, 51					; 00000033H
	mov	eax, -858993460				; ccccccccH
	rep stosd
	pop	ecx
	mov	DWORD PTR _this$[ebp], ecx
; Line 151
	mov	ecx, DWORD PTR _this$[ebp]
	call	?getFirstPrimary@CollationRootElements@icu_56@@QBEIXZ ; icu_56::CollationRootElements::getFirstPrimary
	push	eax
	call	?makeCE@Collation@icu_56@@SA_JI@Z	; icu_56::Collation::makeCE
	add	esp, 4
; Line 152
	pop	edi
	pop	esi
	pop	ebx
	add	esp, 204				; 000000ccH
	cmp	ebp, esp
	call	__RTC_CheckEsp
	mov	esp, ebp
	pop	ebp
	ret	0
?getFirstPrimaryCE@CollationRootElements@icu_56@@QBE_JXZ ENDP ; icu_56::CollationRootElements::getFirstPrimaryCE
_TEXT	ENDS
PUBLIC	?isEndOfPrimaryRange@CollationRootElements@icu_56@@CACI@Z ; icu_56::CollationRootElements::isEndOfPrimaryRange
; Function compile flags: /Odtp /RTCsu /ZI
;	COMDAT ?isEndOfPrimaryRange@CollationRootElements@icu_56@@CACI@Z
_TEXT	SEGMENT
tv68 = -193						; size = 1
_q$ = 8							; size = 4
?isEndOfPrimaryRange@CollationRootElements@icu_56@@CACI@Z PROC ; icu_56::CollationRootElements::isEndOfPrimaryRange, COMDAT
; Line 225
	push	ebp
	mov	ebp, esp
	sub	esp, 196				; 000000c4H
	push	ebx
	push	esi
	push	edi
	lea	edi, DWORD PTR [ebp-196]
	mov	ecx, 49					; 00000031H
	mov	eax, -858993460				; ccccccccH
	rep stosd
; Line 226
	mov	eax, DWORD PTR _q$[ebp]
	and	eax, 128				; 00000080H
	jne	SHORT $LN3@isEndOfPri
	mov	ecx, DWORD PTR _q$[ebp]
	and	ecx, 127				; 0000007fH
	je	SHORT $LN3@isEndOfPri
	mov	BYTE PTR tv68[ebp], 1
	jmp	SHORT $LN4@isEndOfPri
$LN3@isEndOfPri:
	mov	BYTE PTR tv68[ebp], 0
$LN4@isEndOfPri:
	mov	al, BYTE PTR tv68[ebp]
; Line 227
	pop	edi
	pop	esi
	pop	ebx
	mov	esp, ebp
	pop	ebp
	ret	0
?isEndOfPrimaryRange@CollationRootElements@icu_56@@CACI@Z ENDP ; icu_56::CollationRootElements::isEndOfPrimaryRange
_TEXT	ENDS
PUBLIC	??4CollationRootElements@icu_56@@QAEAAV01@ABV01@@Z ; icu_56::CollationRootElements::operator=
; Function compile flags: /Odtp /RTCsu /ZI
;	COMDAT ??4CollationRootElements@icu_56@@QAEAAV01@ABV01@@Z
_TEXT	SEGMENT
_this$ = -8						; size = 4
___that$ = 8						; size = 4
??4CollationRootElements@icu_56@@QAEAAV01@ABV01@@Z PROC	; icu_56::CollationRootElements::operator=, COMDAT
; _this$ = ecx
	push	ebp
	mov	ebp, esp
	sub	esp, 204				; 000000ccH
	push	ebx
	push	esi
	push	edi
	push	ecx
	lea	edi, DWORD PTR [ebp-204]
	mov	ecx, 51					; 00000033H
	mov	eax, -858993460				; ccccccccH
	rep stosd
	pop	ecx
	mov	DWORD PTR _this$[ebp], ecx
	mov	eax, DWORD PTR ___that$[ebp]
	mov	ecx, DWORD PTR [eax]
	mov	edx, DWORD PTR [eax+4]
	mov	eax, DWORD PTR _this$[ebp]
	mov	DWORD PTR [eax], ecx
	mov	DWORD PTR [eax+4], edx
	mov	eax, DWORD PTR _this$[ebp]
	pop	edi
	pop	esi
	pop	ebx
	mov	esp, ebp
	pop	ebp
	ret	4
??4CollationRootElements@icu_56@@QAEAAV01@ABV01@@Z ENDP	; icu_56::CollationRootElements::operator=
_TEXT	ENDS
PUBLIC	??_C@_1DK@GHNKCDJO@?$AA?$CI?$AAq?$AA?5?$AA?$CG?$AA?5?$AAP?$AAR?$AAI?$AAM?$AAA?$AAR?$AAY?$AA_?$AAS?$AAT?$AAE?$AAP?$AA_?$AAM?$AAA?$AAS?$AAK?$AA?$CJ?$AA?5?$AA?$DN?$AA?$DN?$AA?5?$AA0?$AA?$AA@ ; `string'
PUBLIC	?findP@CollationRootElements@icu_56@@ABEHI@Z	; icu_56::CollationRootElements::findP
PUBLIC	??_C@_1FO@OLDMHNFK@?$AAp?$AA?5?$AA?$DO?$AA?5?$AAe?$AAl?$AAe?$AAm?$AAe?$AAn?$AAt?$AAs?$AA?$FL?$AAe?$AAl?$AAe?$AAm?$AAe?$AAn?$AAt?$AAs?$AA?$FL?$AAI?$AAX?$AA_?$AAF?$AAI?$AAR?$AAS?$AAT?$AA_?$AAP@ ; `string'
PUBLIC	??_C@_1HE@EMAINIOB@?$AAd?$AA?3?$AA?2?$AAm?$AAo?$AAz?$AAi?$AAl?$AAl?$AAa?$AA?2?$AAi?$AAn?$AAt?$AAl?$AA?2?$AAi?$AAc?$AAu?$AA?2?$AAs?$AAo?$AAu?$AAr?$AAc?$AAe?$AA?2?$AAi?$AA1?$AA8?$AAn?$AA?2@ ; `string'
PUBLIC	?__LINE__Var@?1??lastCEWithPrimaryBefore@CollationRootElements@icu_56@@QBE_JI@Z@4JA ; `icu_56::CollationRootElements::lastCEWithPrimaryBefore'::`2'::__LINE__Var
PUBLIC	?lastCEWithPrimaryBefore@CollationRootElements@icu_56@@QBE_JI@Z ; icu_56::CollationRootElements::lastCEWithPrimaryBefore
EXTRN	__imp___wassert:PROC
;	COMDAT ??_C@_1DK@GHNKCDJO@?$AA?$CI?$AAq?$AA?5?$AA?$CG?$AA?5?$AAP?$AAR?$AAI?$AAM?$AAA?$AAR?$AAY?$AA_?$AAS?$AAT?$AAE?$AAP?$AA_?$AAM?$AAA?$AAS?$AAK?$AA?$CJ?$AA?5?$AA?$DN?$AA?$DN?$AA?5?$AA0?$AA?$AA@
; File d:\mozilla\intl\icu\source\i18n\collationrootelements.cpp
CONST	SEGMENT
??_C@_1DK@GHNKCDJO@?$AA?$CI?$AAq?$AA?5?$AA?$CG?$AA?5?$AAP?$AAR?$AAI?$AAM?$AAA?$AAR?$AAY?$AA_?$AAS?$AAT?$AAE?$AAP?$AA_?$AAM?$AAA?$AAS?$AAK?$AA?$CJ?$AA?5?$AA?$DN?$AA?$DN?$AA?5?$AA0?$AA?$AA@ DB '('
	DB	00H, 'q', 00H, ' ', 00H, '&', 00H, ' ', 00H, 'P', 00H, 'R', 00H
	DB	'I', 00H, 'M', 00H, 'A', 00H, 'R', 00H, 'Y', 00H, '_', 00H, 'S'
	DB	00H, 'T', 00H, 'E', 00H, 'P', 00H, '_', 00H, 'M', 00H, 'A', 00H
	DB	'S', 00H, 'K', 00H, ')', 00H, ' ', 00H, '=', 00H, '=', 00H, ' '
	DB	00H, '0', 00H, 00H, 00H			; `string'
CONST	ENDS
;	COMDAT ??_C@_1FO@OLDMHNFK@?$AAp?$AA?5?$AA?$DO?$AA?5?$AAe?$AAl?$AAe?$AAm?$AAe?$AAn?$AAt?$AAs?$AA?$FL?$AAe?$AAl?$AAe?$AAm?$AAe?$AAn?$AAt?$AAs?$AA?$FL?$AAI?$AAX?$AA_?$AAF?$AAI?$AAR?$AAS?$AAT?$AA_?$AAP@
CONST	SEGMENT
??_C@_1FO@OLDMHNFK@?$AAp?$AA?5?$AA?$DO?$AA?5?$AAe?$AAl?$AAe?$AAm?$AAe?$AAn?$AAt?$AAs?$AA?$FL?$AAe?$AAl?$AAe?$AAm?$AAe?$AAn?$AAt?$AAs?$AA?$FL?$AAI?$AAX?$AA_?$AAF?$AAI?$AAR?$AAS?$AAT?$AA_?$AAP@ DB 'p'
	DB	00H, ' ', 00H, '>', 00H, ' ', 00H, 'e', 00H, 'l', 00H, 'e', 00H
	DB	'm', 00H, 'e', 00H, 'n', 00H, 't', 00H, 's', 00H, '[', 00H, 'e'
	DB	00H, 'l', 00H, 'e', 00H, 'm', 00H, 'e', 00H, 'n', 00H, 't', 00H
	DB	's', 00H, '[', 00H, 'I', 00H, 'X', 00H, '_', 00H, 'F', 00H, 'I'
	DB	00H, 'R', 00H, 'S', 00H, 'T', 00H, '_', 00H, 'P', 00H, 'R', 00H
	DB	'I', 00H, 'M', 00H, 'A', 00H, 'R', 00H, 'Y', 00H, '_', 00H, 'I'
	DB	00H, 'N', 00H, 'D', 00H, 'E', 00H, 'X', 00H, ']', 00H, ']', 00H
	DB	00H, 00H					; `string'
CONST	ENDS
;	COMDAT ??_C@_1HE@EMAINIOB@?$AAd?$AA?3?$AA?2?$AAm?$AAo?$AAz?$AAi?$AAl?$AAl?$AAa?$AA?2?$AAi?$AAn?$AAt?$AAl?$AA?2?$AAi?$AAc?$AAu?$AA?2?$AAs?$AAo?$AAu?$AAr?$AAc?$AAe?$AA?2?$AAi?$AA1?$AA8?$AAn?$AA?2@
CONST	SEGMENT
??_C@_1HE@EMAINIOB@?$AAd?$AA?3?$AA?2?$AAm?$AAo?$AAz?$AAi?$AAl?$AAl?$AAa?$AA?2?$AAi?$AAn?$AAt?$AAl?$AA?2?$AAi?$AAc?$AAu?$AA?2?$AAs?$AAo?$AAu?$AAr?$AAc?$AAe?$AA?2?$AAi?$AA1?$AA8?$AAn?$AA?2@ DB 'd'
	DB	00H, ':', 00H, '\', 00H, 'm', 00H, 'o', 00H, 'z', 00H, 'i', 00H
	DB	'l', 00H, 'l', 00H, 'a', 00H, '\', 00H, 'i', 00H, 'n', 00H, 't'
	DB	00H, 'l', 00H, '\', 00H, 'i', 00H, 'c', 00H, 'u', 00H, '\', 00H
	DB	's', 00H, 'o', 00H, 'u', 00H, 'r', 00H, 'c', 00H, 'e', 00H, '\'
	DB	00H, 'i', 00H, '1', 00H, '8', 00H, 'n', 00H, '\', 00H, 'c', 00H
	DB	'o', 00H, 'l', 00H, 'l', 00H, 'a', 00H, 't', 00H, 'i', 00H, 'o'
	DB	00H, 'n', 00H, 'r', 00H, 'o', 00H, 'o', 00H, 't', 00H, 'e', 00H
	DB	'l', 00H, 'e', 00H, 'm', 00H, 'e', 00H, 'n', 00H, 't', 00H, 's'
	DB	00H, '.', 00H, 'c', 00H, 'p', 00H, 'p', 00H, 00H, 00H ; `string'
CONST	ENDS
;	COMDAT ?__LINE__Var@?1??lastCEWithPrimaryBefore@CollationRootElements@icu_56@@QBE_JI@Z@4JA
_DATA	SEGMENT
?__LINE__Var@?1??lastCEWithPrimaryBefore@CollationRootElements@icu_56@@QBE_JI@Z@4JA DD 017H ; `icu_56::CollationRootElements::lastCEWithPrimaryBefore'::`2'::__LINE__Var
; Function compile flags: /Odtp /RTCsu /ZI
_DATA	ENDS
;	COMDAT ?lastCEWithPrimaryBefore@CollationRootElements@icu_56@@QBE_JI@Z
_TEXT	SEGMENT
_secTer$ = -44						; size = 4
_q$ = -32						; size = 4
_index$ = -20						; size = 4
_this$ = -8						; size = 4
_p$ = 8							; size = 4
?lastCEWithPrimaryBefore@CollationRootElements@icu_56@@QBE_JI@Z PROC ; icu_56::CollationRootElements::lastCEWithPrimaryBefore, COMDAT
; _this$ = ecx
; Line 23
	push	ebp
	mov	ebp, esp
	sub	esp, 240				; 000000f0H
	push	ebx
	push	esi
	push	edi
	push	ecx
	lea	edi, DWORD PTR [ebp-240]
	mov	ecx, 60					; 0000003cH
	mov	eax, -858993460				; ccccccccH
	rep stosd
	pop	ecx
	mov	DWORD PTR _this$[ebp], ecx
; Line 24
	cmp	DWORD PTR _p$[ebp], 0
	jne	SHORT $LN11@lastCEWith
	xor	eax, eax
	xor	edx, edx
	jmp	$LN12@lastCEWith
$LN11@lastCEWith:
; Line 25
	mov	eax, DWORD PTR _this$[ebp]
	mov	ecx, DWORD PTR [eax]
	mov	edx, DWORD PTR [ecx+8]
	mov	eax, DWORD PTR _this$[ebp]
	mov	ecx, DWORD PTR [eax]
	mov	eax, DWORD PTR _p$[ebp]
	cmp	eax, DWORD PTR [ecx+edx*4]
	ja	SHORT $LN14@lastCEWith
	mov	ecx, DWORD PTR ?__LINE__Var@?1??lastCEWithPrimaryBefore@CollationRootElements@icu_56@@QBE_JI@Z@4JA
	add	ecx, 2
	mov	esi, esp
	push	ecx
	push	OFFSET ??_C@_1HE@EMAINIOB@?$AAd?$AA?3?$AA?2?$AAm?$AAo?$AAz?$AAi?$AAl?$AAl?$AAa?$AA?2?$AAi?$AAn?$AAt?$AAl?$AA?2?$AAi?$AAc?$AAu?$AA?2?$AAs?$AAo?$AAu?$AAr?$AAc?$AAe?$AA?2?$AAi?$AA1?$AA8?$AAn?$AA?2@
	push	OFFSET ??_C@_1FO@OLDMHNFK@?$AAp?$AA?5?$AA?$DO?$AA?5?$AAe?$AAl?$AAe?$AAm?$AAe?$AAn?$AAt?$AAs?$AA?$FL?$AAe?$AAl?$AAe?$AAm?$AAe?$AAn?$AAt?$AAs?$AA?$FL?$AAI?$AAX?$AA_?$AAF?$AAI?$AAR?$AAS?$AAT?$AA_?$AAP@
	call	DWORD PTR __imp___wassert
	add	esp, 12					; 0000000cH
	cmp	esi, esp
	call	__RTC_CheckEsp
$LN14@lastCEWith:
; Line 26
	mov	eax, DWORD PTR _p$[ebp]
	push	eax
	mov	ecx, DWORD PTR _this$[ebp]
	call	?findP@CollationRootElements@icu_56@@ABEHI@Z ; icu_56::CollationRootElements::findP
	mov	DWORD PTR _index$[ebp], eax
; Line 27
	mov	eax, DWORD PTR _this$[ebp]
	mov	ecx, DWORD PTR [eax]
	mov	edx, DWORD PTR _index$[ebp]
	mov	eax, DWORD PTR [ecx+edx*4]
	mov	DWORD PTR _q$[ebp], eax
; Line 29
	mov	eax, DWORD PTR _q$[ebp]
	and	eax, -256				; ffffff00H
	cmp	DWORD PTR _p$[ebp], eax
	jne	$LN10@lastCEWith
; Line 32
	mov	eax, DWORD PTR _q$[ebp]
	and	eax, 127				; 0000007fH
	je	SHORT $LN15@lastCEWith
	mov	ecx, DWORD PTR ?__LINE__Var@?1??lastCEWithPrimaryBefore@CollationRootElements@icu_56@@QBE_JI@Z@4JA
	add	ecx, 9
	mov	esi, esp
	push	ecx
	push	OFFSET ??_C@_1HE@EMAINIOB@?$AAd?$AA?3?$AA?2?$AAm?$AAo?$AAz?$AAi?$AAl?$AAl?$AAa?$AA?2?$AAi?$AAn?$AAt?$AAl?$AA?2?$AAi?$AAc?$AAu?$AA?2?$AAs?$AAo?$AAu?$AAr?$AAc?$AAe?$AA?2?$AAi?$AA1?$AA8?$AAn?$AA?2@
	push	OFFSET ??_C@_1DK@GHNKCDJO@?$AA?$CI?$AAq?$AA?5?$AA?$CG?$AA?5?$AAP?$AAR?$AAI?$AAM?$AAA?$AAR?$AAY?$AA_?$AAS?$AAT?$AAE?$AAP?$AA_?$AAM?$AAA?$AAS?$AAK?$AA?$CJ?$AA?5?$AA?$DN?$AA?$DN?$AA?5?$AA0?$AA?$AA@
	call	DWORD PTR __imp___wassert
	add	esp, 12					; 0000000cH
	cmp	esi, esp
	call	__RTC_CheckEsp
$LN15@lastCEWith:
; Line 33
	mov	eax, DWORD PTR _this$[ebp]
	mov	ecx, DWORD PTR [eax]
	mov	edx, DWORD PTR _index$[ebp]
	mov	eax, DWORD PTR [ecx+edx*4-4]
	mov	DWORD PTR _secTer$[ebp], eax
; Line 34
	mov	eax, DWORD PTR _secTer$[ebp]
	and	eax, 128				; 00000080H
	jne	SHORT $LN9@lastCEWith
; Line 36
	mov	eax, DWORD PTR _secTer$[ebp]
	and	eax, -256				; ffffff00H
	mov	DWORD PTR _p$[ebp], eax
; Line 37
	mov	DWORD PTR _secTer$[ebp], 83887360	; 05000500H
; Line 38
	jmp	SHORT $LN8@lastCEWith
$LN9@lastCEWith:
; Line 40
	mov	eax, DWORD PTR _index$[ebp]
	sub	eax, 2
	mov	DWORD PTR _index$[ebp], eax
$LN7@lastCEWith:
; Line 42
	mov	eax, DWORD PTR _this$[ebp]
	mov	ecx, DWORD PTR [eax]
	mov	edx, DWORD PTR _index$[ebp]
	mov	eax, DWORD PTR [ecx+edx*4]
	mov	DWORD PTR _p$[ebp], eax
; Line 43
	mov	eax, DWORD PTR _p$[ebp]
	and	eax, 128				; 00000080H
	jne	SHORT $LN5@lastCEWith
; Line 44
	mov	eax, DWORD PTR _p$[ebp]
	and	eax, -256				; ffffff00H
	mov	DWORD PTR _p$[ebp], eax
; Line 45
	jmp	SHORT $LN8@lastCEWith
$LN5@lastCEWith:
; Line 47
	mov	eax, DWORD PTR _index$[ebp]
	sub	eax, 1
	mov	DWORD PTR _index$[ebp], eax
; Line 48
	jmp	SHORT $LN7@lastCEWith
$LN8@lastCEWith:
; Line 50
	jmp	SHORT $LN4@lastCEWith
$LN10@lastCEWith:
; Line 53
	mov	eax, DWORD PTR _q$[ebp]
	and	eax, -256				; ffffff00H
	mov	DWORD PTR _p$[ebp], eax
; Line 54
	mov	DWORD PTR _secTer$[ebp], 83887360	; 05000500H
$LN3@lastCEWith:
; Line 56
	mov	eax, DWORD PTR _index$[ebp]
	add	eax, 1
	mov	DWORD PTR _index$[ebp], eax
	mov	ecx, DWORD PTR _this$[ebp]
	mov	edx, DWORD PTR [ecx]
	mov	eax, DWORD PTR _index$[ebp]
	mov	ecx, DWORD PTR [edx+eax*4]
	mov	DWORD PTR _q$[ebp], ecx
; Line 57
	mov	eax, DWORD PTR _q$[ebp]
	and	eax, 128				; 00000080H
	jne	SHORT $LN1@lastCEWith
; Line 59
	mov	eax, DWORD PTR _q$[ebp]
	and	eax, 127				; 0000007fH
	je	SHORT $LN16@lastCEWith
	mov	ecx, DWORD PTR ?__LINE__Var@?1??lastCEWithPrimaryBefore@CollationRootElements@icu_56@@QBE_JI@Z@4JA
	add	ecx, 36					; 00000024H
	mov	esi, esp
	push	ecx
	push	OFFSET ??_C@_1HE@EMAINIOB@?$AAd?$AA?3?$AA?2?$AAm?$AAo?$AAz?$AAi?$AAl?$AAl?$AAa?$AA?2?$AAi?$AAn?$AAt?$AAl?$AA?2?$AAi?$AAc?$AAu?$AA?2?$AAs?$AAo?$AAu?$AAr?$AAc?$AAe?$AA?2?$AAi?$AA1?$AA8?$AAn?$AA?2@
	push	OFFSET ??_C@_1DK@GHNKCDJO@?$AA?$CI?$AAq?$AA?5?$AA?$CG?$AA?5?$AAP?$AAR?$AAI?$AAM?$AAA?$AAR?$AAY?$AA_?$AAS?$AAT?$AAE?$AAP?$AA_?$AAM?$AAA?$AAS?$AAK?$AA?$CJ?$AA?5?$AA?$DN?$AA?$DN?$AA?5?$AA0?$AA?$AA@
	call	DWORD PTR __imp___wassert
	add	esp, 12					; 0000000cH
	cmp	esi, esp
	call	__RTC_CheckEsp
$LN16@lastCEWith:
; Line 60
	jmp	SHORT $LN4@lastCEWith
$LN1@lastCEWith:
; Line 62
	mov	eax, DWORD PTR _q$[ebp]
	mov	DWORD PTR _secTer$[ebp], eax
; Line 63
	jmp	SHORT $LN3@lastCEWith
$LN4@lastCEWith:
; Line 65
	mov	eax, DWORD PTR _p$[ebp]
	xor	edx, edx
	mov	cl, 32					; 00000020H
	call	__allshl
	mov	ecx, DWORD PTR _secTer$[ebp]
	and	ecx, -129				; ffffff7fH
	xor	esi, esi
	or	eax, ecx
	or	edx, esi
$LN12@lastCEWith:
; Line 66
	pop	edi
	pop	esi
	pop	ebx
	add	esp, 240				; 000000f0H
	cmp	ebp, esp
	call	__RTC_CheckEsp
	mov	esp, ebp
	pop	ebp
	ret	4
?lastCEWithPrimaryBefore@CollationRootElements@icu_56@@QBE_JI@Z ENDP ; icu_56::CollationRootElements::lastCEWithPrimaryBefore
_TEXT	ENDS
PUBLIC	??_C@_1DK@HKEPDAEJ@?$AA?$CI?$AAp?$AA?5?$AA?$CG?$AA?5?$AAP?$AAR?$AAI?$AAM?$AAA?$AAR?$AAY?$AA_?$AAS?$AAT?$AAE?$AAP?$AA_?$AAM?$AAA?$AAS?$AAK?$AA?$CJ?$AA?5?$AA?$DN?$AA?$DN?$AA?5?$AA0?$AA?$AA@ ; `string'
PUBLIC	?__LINE__Var@?1??firstCEWithPrimaryAtLeast@CollationRootElements@icu_56@@QBE_JI@Z@4JA ; `icu_56::CollationRootElements::firstCEWithPrimaryAtLeast'::`2'::__LINE__Var
PUBLIC	?firstCEWithPrimaryAtLeast@CollationRootElements@icu_56@@QBE_JI@Z ; icu_56::CollationRootElements::firstCEWithPrimaryAtLeast
;	COMDAT ??_C@_1DK@HKEPDAEJ@?$AA?$CI?$AAp?$AA?5?$AA?$CG?$AA?5?$AAP?$AAR?$AAI?$AAM?$AAA?$AAR?$AAY?$AA_?$AAS?$AAT?$AAE?$AAP?$AA_?$AAM?$AAA?$AAS?$AAK?$AA?$CJ?$AA?5?$AA?$DN?$AA?$DN?$AA?5?$AA0?$AA?$AA@
CONST	SEGMENT
??_C@_1DK@HKEPDAEJ@?$AA?$CI?$AAp?$AA?5?$AA?$CG?$AA?5?$AAP?$AAR?$AAI?$AAM?$AAA?$AAR?$AAY?$AA_?$AAS?$AAT?$AAE?$AAP?$AA_?$AAM?$AAA?$AAS?$AAK?$AA?$CJ?$AA?5?$AA?$DN?$AA?$DN?$AA?5?$AA0?$AA?$AA@ DB '('
	DB	00H, 'p', 00H, ' ', 00H, '&', 00H, ' ', 00H, 'P', 00H, 'R', 00H
	DB	'I', 00H, 'M', 00H, 'A', 00H, 'R', 00H, 'Y', 00H, '_', 00H, 'S'
	DB	00H, 'T', 00H, 'E', 00H, 'P', 00H, '_', 00H, 'M', 00H, 'A', 00H
	DB	'S', 00H, 'K', 00H, ')', 00H, ' ', 00H, '=', 00H, '=', 00H, ' '
	DB	00H, '0', 00H, 00H, 00H			; `string'
CONST	ENDS
;	COMDAT ?__LINE__Var@?1??firstCEWithPrimaryAtLeast@CollationRootElements@icu_56@@QBE_JI@Z@4JA
_DATA	SEGMENT
?__LINE__Var@?1??firstCEWithPrimaryAtLeast@CollationRootElements@icu_56@@QBE_JI@Z@4JA DD 045H ; `icu_56::CollationRootElements::firstCEWithPrimaryAtLeast'::`2'::__LINE__Var
; Function compile flags: /Odtp /RTCsu /ZI
_DATA	ENDS
;	COMDAT ?firstCEWithPrimaryAtLeast@CollationRootElements@icu_56@@QBE_JI@Z
_TEXT	SEGMENT
_index$ = -20						; size = 4
_this$ = -8						; size = 4
_p$ = 8							; size = 4
?firstCEWithPrimaryAtLeast@CollationRootElements@icu_56@@QBE_JI@Z PROC ; icu_56::CollationRootElements::firstCEWithPrimaryAtLeast, COMDAT
; _this$ = ecx
; Line 69
	push	ebp
	mov	ebp, esp
	sub	esp, 216				; 000000d8H
	push	ebx
	push	esi
	push	edi
	push	ecx
	lea	edi, DWORD PTR [ebp-216]
	mov	ecx, 54					; 00000036H
	mov	eax, -858993460				; ccccccccH
	rep stosd
	pop	ecx
	mov	DWORD PTR _this$[ebp], ecx
; Line 70
	cmp	DWORD PTR _p$[ebp], 0
	jne	SHORT $LN5@firstCEWit
	xor	eax, eax
	xor	edx, edx
	jmp	$LN6@firstCEWit
$LN5@firstCEWit:
; Line 71
	mov	eax, DWORD PTR _p$[ebp]
	push	eax
	mov	ecx, DWORD PTR _this$[ebp]
	call	?findP@CollationRootElements@icu_56@@ABEHI@Z ; icu_56::CollationRootElements::findP
	mov	DWORD PTR _index$[ebp], eax
; Line 72
	mov	eax, DWORD PTR _this$[ebp]
	mov	ecx, DWORD PTR [eax]
	mov	edx, DWORD PTR _index$[ebp]
	mov	eax, DWORD PTR [ecx+edx*4]
	and	eax, -256				; ffffff00H
	cmp	DWORD PTR _p$[ebp], eax
	je	SHORT $LN4@firstCEWit
$LN3@firstCEWit:
; Line 74
	mov	eax, DWORD PTR _index$[ebp]
	add	eax, 1
	mov	DWORD PTR _index$[ebp], eax
	mov	ecx, DWORD PTR _this$[ebp]
	mov	edx, DWORD PTR [ecx]
	mov	eax, DWORD PTR _index$[ebp]
	mov	ecx, DWORD PTR [edx+eax*4]
	mov	DWORD PTR _p$[ebp], ecx
; Line 75
	mov	eax, DWORD PTR _p$[ebp]
	and	eax, 128				; 00000080H
	jne	SHORT $LN1@firstCEWit
; Line 77
	mov	eax, DWORD PTR _p$[ebp]
	and	eax, 127				; 0000007fH
	je	SHORT $LN8@firstCEWit
	mov	ecx, DWORD PTR ?__LINE__Var@?1??firstCEWithPrimaryAtLeast@CollationRootElements@icu_56@@QBE_JI@Z@4JA
	add	ecx, 8
	mov	esi, esp
	push	ecx
	push	OFFSET ??_C@_1HE@EMAINIOB@?$AAd?$AA?3?$AA?2?$AAm?$AAo?$AAz?$AAi?$AAl?$AAl?$AAa?$AA?2?$AAi?$AAn?$AAt?$AAl?$AA?2?$AAi?$AAc?$AAu?$AA?2?$AAs?$AAo?$AAu?$AAr?$AAc?$AAe?$AA?2?$AAi?$AA1?$AA8?$AAn?$AA?2@
	push	OFFSET ??_C@_1DK@HKEPDAEJ@?$AA?$CI?$AAp?$AA?5?$AA?$CG?$AA?5?$AAP?$AAR?$AAI?$AAM?$AAA?$AAR?$AAY?$AA_?$AAS?$AAT?$AAE?$AAP?$AA_?$AAM?$AAA?$AAS?$AAK?$AA?$CJ?$AA?5?$AA?$DN?$AA?$DN?$AA?5?$AA0?$AA?$AA@
	call	DWORD PTR __imp___wassert
	add	esp, 12					; 0000000cH
	cmp	esi, esp
	call	__RTC_CheckEsp
$LN8@firstCEWit:
; Line 78
	jmp	SHORT $LN4@firstCEWit
$LN1@firstCEWit:
; Line 80
	jmp	SHORT $LN3@firstCEWit
$LN4@firstCEWit:
; Line 83
	mov	eax, DWORD PTR _p$[ebp]
	xor	edx, edx
	mov	cl, 32					; 00000020H
	call	__allshl
	or	eax, 83887360				; 05000500H
$LN6@firstCEWit:
; Line 84
	pop	edi
	pop	esi
	pop	ebx
	add	esp, 216				; 000000d8H
	cmp	ebp, esp
	call	__RTC_CheckEsp
	mov	esp, ebp
	pop	ebp
	ret	4
?firstCEWithPrimaryAtLeast@CollationRootElements@icu_56@@QBE_JI@Z ENDP ; icu_56::CollationRootElements::firstCEWithPrimaryAtLeast
_TEXT	ENDS
PUBLIC	??_C@_1EC@BHFOBJAB@?$AAi?$AAs?$AAE?$AAn?$AAd?$AAO?$AAf?$AAP?$AAr?$AAi?$AAm?$AAa?$AAr?$AAy?$AAR?$AAa?$AAn?$AAg?$AAe?$AA?$CI?$AAn?$AAe?$AAx?$AAt?$AAE?$AAl?$AAe?$AAm?$AAe?$AAn?$AAt?$AA?$CJ@ ; `string'
PUBLIC	?__LINE__Var@?1??getPrimaryBefore@CollationRootElements@icu_56@@QBEIIC@Z@4JA ; `icu_56::CollationRootElements::getPrimaryBefore'::`2'::__LINE__Var
PUBLIC	?findPrimary@CollationRootElements@icu_56@@QBEHI@Z ; icu_56::CollationRootElements::findPrimary
PUBLIC	?getPrimaryBefore@CollationRootElements@icu_56@@QBEIIC@Z ; icu_56::CollationRootElements::getPrimaryBefore
EXTRN	?decThreeBytePrimaryByOneStep@Collation@icu_56@@SAIICH@Z:PROC ; icu_56::Collation::decThreeBytePrimaryByOneStep
EXTRN	?decTwoBytePrimaryByOneStep@Collation@icu_56@@SAIICH@Z:PROC ; icu_56::Collation::decTwoBytePrimaryByOneStep
;	COMDAT ??_C@_1EC@BHFOBJAB@?$AAi?$AAs?$AAE?$AAn?$AAd?$AAO?$AAf?$AAP?$AAr?$AAi?$AAm?$AAa?$AAr?$AAy?$AAR?$AAa?$AAn?$AAg?$AAe?$AA?$CI?$AAn?$AAe?$AAx?$AAt?$AAE?$AAl?$AAe?$AAm?$AAe?$AAn?$AAt?$AA?$CJ@
CONST	SEGMENT
??_C@_1EC@BHFOBJAB@?$AAi?$AAs?$AAE?$AAn?$AAd?$AAO?$AAf?$AAP?$AAr?$AAi?$AAm?$AAa?$AAr?$AAy?$AAR?$AAa?$AAn?$AAg?$AAe?$AA?$CI?$AAn?$AAe?$AAx?$AAt?$AAE?$AAl?$AAe?$AAm?$AAe?$AAn?$AAt?$AA?$CJ@ DB 'i'
	DB	00H, 's', 00H, 'E', 00H, 'n', 00H, 'd', 00H, 'O', 00H, 'f', 00H
	DB	'P', 00H, 'r', 00H, 'i', 00H, 'm', 00H, 'a', 00H, 'r', 00H, 'y'
	DB	00H, 'R', 00H, 'a', 00H, 'n', 00H, 'g', 00H, 'e', 00H, '(', 00H
	DB	'n', 00H, 'e', 00H, 'x', 00H, 't', 00H, 'E', 00H, 'l', 00H, 'e'
	DB	00H, 'm', 00H, 'e', 00H, 'n', 00H, 't', 00H, ')', 00H, 00H, 00H ; `string'
CONST	ENDS
;	COMDAT ?__LINE__Var@?1??getPrimaryBefore@CollationRootElements@icu_56@@QBEIIC@Z@4JA
_DATA	SEGMENT
?__LINE__Var@?1??getPrimaryBefore@CollationRootElements@icu_56@@QBEIIC@Z@4JA DD 057H ; `icu_56::CollationRootElements::getPrimaryBefore'::`2'::__LINE__Var
; Function compile flags: /Odtp /RTCsu /ZI
_DATA	ENDS
;	COMDAT ?getPrimaryBefore@CollationRootElements@icu_56@@QBEIIC@Z
_TEXT	SEGMENT
_nextElement$6780 = -56					; size = 4
_q$ = -44						; size = 4
_step$ = -32						; size = 4
_index$ = -20						; size = 4
_this$ = -8						; size = 4
_p$ = 8							; size = 4
_isCompressible$ = 12					; size = 1
?getPrimaryBefore@CollationRootElements@icu_56@@QBEIIC@Z PROC ; icu_56::CollationRootElements::getPrimaryBefore, COMDAT
; _this$ = ecx
; Line 87
	push	ebp
	mov	ebp, esp
	sub	esp, 252				; 000000fcH
	push	ebx
	push	esi
	push	edi
	push	ecx
	lea	edi, DWORD PTR [ebp-252]
	mov	ecx, 63					; 0000003fH
	mov	eax, -858993460				; ccccccccH
	rep stosd
	pop	ecx
	mov	DWORD PTR _this$[ebp], ecx
; Line 88
	mov	eax, DWORD PTR _p$[ebp]
	push	eax
	mov	ecx, DWORD PTR _this$[ebp]
	call	?findPrimary@CollationRootElements@icu_56@@QBEHI@Z ; icu_56::CollationRootElements::findPrimary
	mov	DWORD PTR _index$[ebp], eax
; Line 90
	mov	eax, DWORD PTR _this$[ebp]
	mov	ecx, DWORD PTR [eax]
	mov	edx, DWORD PTR _index$[ebp]
	mov	eax, DWORD PTR [ecx+edx*4]
	mov	DWORD PTR _q$[ebp], eax
; Line 91
	mov	eax, DWORD PTR _q$[ebp]
	and	eax, -256				; ffffff00H
	cmp	DWORD PTR _p$[ebp], eax
	jne	SHORT $LN8@getPrimary
; Line 94
	mov	eax, DWORD PTR _q$[ebp]
	and	eax, 127				; 0000007fH
	mov	DWORD PTR _step$[ebp], eax
; Line 95
	jne	SHORT $LN7@getPrimary
$LN6@getPrimary:
; Line 98
	mov	eax, DWORD PTR _index$[ebp]
	sub	eax, 1
	mov	DWORD PTR _index$[ebp], eax
	mov	ecx, DWORD PTR _this$[ebp]
	mov	edx, DWORD PTR [ecx]
	mov	eax, DWORD PTR _index$[ebp]
	mov	ecx, DWORD PTR [edx+eax*4]
	mov	DWORD PTR _p$[ebp], ecx
; Line 99
	mov	eax, DWORD PTR _p$[ebp]
	and	eax, 128				; 00000080H
	jne	SHORT $LN6@getPrimary
; Line 100
	mov	eax, DWORD PTR _p$[ebp]
	and	eax, -256				; ffffff00H
	jmp	$LN9@getPrimary
$LN7@getPrimary:
; Line 102
	jmp	SHORT $LN3@getPrimary
$LN8@getPrimary:
; Line 104
	mov	eax, DWORD PTR _this$[ebp]
	mov	ecx, DWORD PTR [eax]
	mov	edx, DWORD PTR _index$[ebp]
	mov	eax, DWORD PTR [ecx+edx*4+4]
	mov	DWORD PTR _nextElement$6780[ebp], eax
; Line 105
	mov	eax, DWORD PTR _nextElement$6780[ebp]
	push	eax
	call	?isEndOfPrimaryRange@CollationRootElements@icu_56@@CACI@Z ; icu_56::CollationRootElements::isEndOfPrimaryRange
	add	esp, 4
	movsx	ecx, al
	test	ecx, ecx
	jne	SHORT $LN11@getPrimary
	mov	edx, DWORD PTR ?__LINE__Var@?1??getPrimaryBefore@CollationRootElements@icu_56@@QBEIIC@Z@4JA
	add	edx, 18					; 00000012H
	mov	esi, esp
	push	edx
	push	OFFSET ??_C@_1HE@EMAINIOB@?$AAd?$AA?3?$AA?2?$AAm?$AAo?$AAz?$AAi?$AAl?$AAl?$AAa?$AA?2?$AAi?$AAn?$AAt?$AAl?$AA?2?$AAi?$AAc?$AAu?$AA?2?$AAs?$AAo?$AAu?$AAr?$AAc?$AAe?$AA?2?$AAi?$AA1?$AA8?$AAn?$AA?2@
	push	OFFSET ??_C@_1EC@BHFOBJAB@?$AAi?$AAs?$AAE?$AAn?$AAd?$AAO?$AAf?$AAP?$AAr?$AAi?$AAm?$AAa?$AAr?$AAy?$AAR?$AAa?$AAn?$AAg?$AAe?$AA?$CI?$AAn?$AAe?$AAx?$AAt?$AAE?$AAl?$AAe?$AAm?$AAe?$AAn?$AAt?$AA?$CJ@
	call	DWORD PTR __imp___wassert
	add	esp, 12					; 0000000cH
	cmp	esi, esp
	call	__RTC_CheckEsp
$LN11@getPrimary:
; Line 106
	mov	eax, DWORD PTR _nextElement$6780[ebp]
	and	eax, 127				; 0000007fH
	mov	DWORD PTR _step$[ebp], eax
$LN3@getPrimary:
; Line 109
	mov	eax, DWORD PTR _p$[ebp]
	and	eax, 65535				; 0000ffffH
	jne	SHORT $LN2@getPrimary
; Line 110
	mov	eax, DWORD PTR _step$[ebp]
	push	eax
	movzx	ecx, BYTE PTR _isCompressible$[ebp]
	push	ecx
	mov	edx, DWORD PTR _p$[ebp]
	push	edx
	call	?decTwoBytePrimaryByOneStep@Collation@icu_56@@SAIICH@Z ; icu_56::Collation::decTwoBytePrimaryByOneStep
	add	esp, 12					; 0000000cH
	jmp	SHORT $LN9@getPrimary
; Line 111
	jmp	SHORT $LN9@getPrimary
$LN2@getPrimary:
; Line 112
	mov	eax, DWORD PTR _step$[ebp]
	push	eax
	movzx	ecx, BYTE PTR _isCompressible$[ebp]
	push	ecx
	mov	edx, DWORD PTR _p$[ebp]
	push	edx
	call	?decThreeBytePrimaryByOneStep@Collation@icu_56@@SAIICH@Z ; icu_56::Collation::decThreeBytePrimaryByOneStep
	add	esp, 12					; 0000000cH
$LN9@getPrimary:
; Line 114
	pop	edi
	pop	esi
	pop	ebx
	add	esp, 252				; 000000fcH
	cmp	ebp, esp
	call	__RTC_CheckEsp
	mov	esp, ebp
	pop	ebp
	ret	8
?getPrimaryBefore@CollationRootElements@icu_56@@QBEIIC@Z ENDP ; icu_56::CollationRootElements::getPrimaryBefore
_TEXT	ENDS
PUBLIC	??_C@_1BC@ONHMBNGD@?$AAs?$AAe?$AAc?$AA?5?$AA?$DN?$AA?$DN?$AA?5?$AAs?$AA?$AA@ ; `string'
PUBLIC	??_C@_1FI@LKJKLDFD@?$AA?$CI?$AAe?$AAl?$AAe?$AAm?$AAe?$AAn?$AAt?$AAs?$AA?$FL?$AAi?$AAn?$AAd?$AAe?$AAx?$AA?$FN?$AA?5?$AA?$CG?$AA?5?$AAS?$AAE?$AAC?$AA_?$AAT?$AAE?$AAR?$AA_?$AAD?$AAE?$AAL?$AAT?$AAA@ ; `string'
PUBLIC	??_C@_1BC@FKNGHHJM@?$AAs?$AA?5?$AA?$DO?$AA?$DN?$AA?5?$AAs?$AAe?$AAc?$AA?$AA@ ; `string'
PUBLIC	?__LINE__Var@?1??getSecondaryBefore@CollationRootElements@icu_56@@QBEIII@Z@4JA ; `icu_56::CollationRootElements::getSecondaryBefore'::`2'::__LINE__Var
PUBLIC	?getFirstSecTerForPrimary@CollationRootElements@icu_56@@ABEIH@Z ; icu_56::CollationRootElements::getFirstSecTerForPrimary
PUBLIC	?getSecondaryBefore@CollationRootElements@icu_56@@QBEIII@Z ; icu_56::CollationRootElements::getSecondaryBefore
;	COMDAT ??_C@_1BC@ONHMBNGD@?$AAs?$AAe?$AAc?$AA?5?$AA?$DN?$AA?$DN?$AA?5?$AAs?$AA?$AA@
CONST	SEGMENT
??_C@_1BC@ONHMBNGD@?$AAs?$AAe?$AAc?$AA?5?$AA?$DN?$AA?$DN?$AA?5?$AAs?$AA?$AA@ DB 's'
	DB	00H, 'e', 00H, 'c', 00H, ' ', 00H, '=', 00H, '=', 00H, ' ', 00H
	DB	's', 00H, 00H, 00H				; `string'
CONST	ENDS
;	COMDAT ??_C@_1FI@LKJKLDFD@?$AA?$CI?$AAe?$AAl?$AAe?$AAm?$AAe?$AAn?$AAt?$AAs?$AA?$FL?$AAi?$AAn?$AAd?$AAe?$AAx?$AA?$FN?$AA?5?$AA?$CG?$AA?5?$AAS?$AAE?$AAC?$AA_?$AAT?$AAE?$AAR?$AA_?$AAD?$AAE?$AAL?$AAT?$AAA@
CONST	SEGMENT
??_C@_1FI@LKJKLDFD@?$AA?$CI?$AAe?$AAl?$AAe?$AAm?$AAe?$AAn?$AAt?$AAs?$AA?$FL?$AAi?$AAn?$AAd?$AAe?$AAx?$AA?$FN?$AA?5?$AA?$CG?$AA?5?$AAS?$AAE?$AAC?$AA_?$AAT?$AAE?$AAR?$AA_?$AAD?$AAE?$AAL?$AAT?$AAA@ DB '('
	DB	00H, 'e', 00H, 'l', 00H, 'e', 00H, 'm', 00H, 'e', 00H, 'n', 00H
	DB	't', 00H, 's', 00H, '[', 00H, 'i', 00H, 'n', 00H, 'd', 00H, 'e'
	DB	00H, 'x', 00H, ']', 00H, ' ', 00H, '&', 00H, ' ', 00H, 'S', 00H
	DB	'E', 00H, 'C', 00H, '_', 00H, 'T', 00H, 'E', 00H, 'R', 00H, '_'
	DB	00H, 'D', 00H, 'E', 00H, 'L', 00H, 'T', 00H, 'A', 00H, '_', 00H
	DB	'F', 00H, 'L', 00H, 'A', 00H, 'G', 00H, ')', 00H, ' ', 00H, '!'
	DB	00H, '=', 00H, ' ', 00H, '0', 00H, 00H, 00H	; `string'
CONST	ENDS
;	COMDAT ??_C@_1BC@FKNGHHJM@?$AAs?$AA?5?$AA?$DO?$AA?$DN?$AA?5?$AAs?$AAe?$AAc?$AA?$AA@
CONST	SEGMENT
??_C@_1BC@FKNGHHJM@?$AAs?$AA?5?$AA?$DO?$AA?$DN?$AA?5?$AAs?$AAe?$AAc?$AA?$AA@ DB 's'
	DB	00H, ' ', 00H, '>', 00H, '=', 00H, ' ', 00H, 's', 00H, 'e', 00H
	DB	'c', 00H, 00H, 00H				; `string'
CONST	ENDS
;	COMDAT ?__LINE__Var@?1??getSecondaryBefore@CollationRootElements@icu_56@@QBEIII@Z@4JA
_DATA	SEGMENT
?__LINE__Var@?1??getSecondaryBefore@CollationRootElements@icu_56@@QBEIII@Z@4JA DD 075H ; `icu_56::CollationRootElements::getSecondaryBefore'::`2'::__LINE__Var
; Function compile flags: /Odtp /RTCsu /ZI
_DATA	ENDS
;	COMDAT ?getSecondaryBefore@CollationRootElements@icu_56@@QBEIII@Z
_TEXT	SEGMENT
_sec$ = -44						; size = 4
_previousSec$ = -32					; size = 4
_index$ = -20						; size = 4
_this$ = -8						; size = 4
_p$ = 8							; size = 4
_s$ = 12						; size = 4
?getSecondaryBefore@CollationRootElements@icu_56@@QBEIII@Z PROC ; icu_56::CollationRootElements::getSecondaryBefore, COMDAT
; _this$ = ecx
; Line 117
	push	ebp
	mov	ebp, esp
	sub	esp, 240				; 000000f0H
	push	ebx
	push	esi
	push	edi
	push	ecx
	lea	edi, DWORD PTR [ebp-240]
	mov	ecx, 60					; 0000003cH
	mov	eax, -858993460				; ccccccccH
	rep stosd
	pop	ecx
	mov	DWORD PTR _this$[ebp], ecx
; Line 120
	cmp	DWORD PTR _p$[ebp], 0
	jne	SHORT $LN4@getSeconda
; Line 121
	mov	eax, DWORD PTR _this$[ebp]
	mov	ecx, DWORD PTR [eax]
	mov	edx, DWORD PTR [ecx+4]
	mov	DWORD PTR _index$[ebp], edx
; Line 123
	mov	DWORD PTR _previousSec$[ebp], 0
; Line 124
	mov	eax, DWORD PTR _this$[ebp]
	mov	ecx, DWORD PTR [eax]
	mov	edx, DWORD PTR _index$[ebp]
	mov	eax, DWORD PTR [ecx+edx*4]
	shr	eax, 16					; 00000010H
	mov	DWORD PTR _sec$[ebp], eax
; Line 125
	jmp	SHORT $LN3@getSeconda
$LN4@getSeconda:
; Line 126
	mov	eax, DWORD PTR _p$[ebp]
	push	eax
	mov	ecx, DWORD PTR _this$[ebp]
	call	?findPrimary@CollationRootElements@icu_56@@QBEHI@Z ; icu_56::CollationRootElements::findPrimary
	add	eax, 1
	mov	DWORD PTR _index$[ebp], eax
; Line 127
	mov	DWORD PTR _previousSec$[ebp], 256	; 00000100H
; Line 128
	mov	eax, DWORD PTR _index$[ebp]
	push	eax
	mov	ecx, DWORD PTR _this$[ebp]
	call	?getFirstSecTerForPrimary@CollationRootElements@icu_56@@ABEIH@Z ; icu_56::CollationRootElements::getFirstSecTerForPrimary
	shr	eax, 16					; 00000010H
	mov	DWORD PTR _sec$[ebp], eax
$LN3@getSeconda:
; Line 130
	mov	eax, DWORD PTR _s$[ebp]
	cmp	eax, DWORD PTR _sec$[ebp]
	jae	SHORT $LN2@getSeconda
	mov	ecx, DWORD PTR ?__LINE__Var@?1??getSecondaryBefore@CollationRootElements@icu_56@@QBEIII@Z@4JA
	add	ecx, 13					; 0000000dH
	mov	esi, esp
	push	ecx
	push	OFFSET ??_C@_1HE@EMAINIOB@?$AAd?$AA?3?$AA?2?$AAm?$AAo?$AAz?$AAi?$AAl?$AAl?$AAa?$AA?2?$AAi?$AAn?$AAt?$AAl?$AA?2?$AAi?$AAc?$AAu?$AA?2?$AAs?$AAo?$AAu?$AAr?$AAc?$AAe?$AA?2?$AAi?$AA1?$AA8?$AAn?$AA?2@
	push	OFFSET ??_C@_1BC@FKNGHHJM@?$AAs?$AA?5?$AA?$DO?$AA?$DN?$AA?5?$AAs?$AAe?$AAc?$AA?$AA@
	call	DWORD PTR __imp___wassert
	add	esp, 12					; 0000000cH
	cmp	esi, esp
	call	__RTC_CheckEsp
$LN2@getSeconda:
; Line 131
	mov	eax, DWORD PTR _s$[ebp]
	cmp	eax, DWORD PTR _sec$[ebp]
	jbe	SHORT $LN1@getSeconda
; Line 132
	mov	eax, DWORD PTR _sec$[ebp]
	mov	DWORD PTR _previousSec$[ebp], eax
; Line 133
	mov	eax, DWORD PTR _this$[ebp]
	mov	ecx, DWORD PTR [eax]
	mov	edx, DWORD PTR _index$[ebp]
	mov	eax, DWORD PTR [ecx+edx*4]
	and	eax, 128				; 00000080H
	jne	SHORT $LN8@getSeconda
	mov	ecx, DWORD PTR ?__LINE__Var@?1??getSecondaryBefore@CollationRootElements@icu_56@@QBEIII@Z@4JA
	add	ecx, 16					; 00000010H
	mov	esi, esp
	push	ecx
	push	OFFSET ??_C@_1HE@EMAINIOB@?$AAd?$AA?3?$AA?2?$AAm?$AAo?$AAz?$AAi?$AAl?$AAl?$AAa?$AA?2?$AAi?$AAn?$AAt?$AAl?$AA?2?$AAi?$AAc?$AAu?$AA?2?$AAs?$AAo?$AAu?$AAr?$AAc?$AAe?$AA?2?$AAi?$AA1?$AA8?$AAn?$AA?2@
	push	OFFSET ??_C@_1FI@LKJKLDFD@?$AA?$CI?$AAe?$AAl?$AAe?$AAm?$AAe?$AAn?$AAt?$AAs?$AA?$FL?$AAi?$AAn?$AAd?$AAe?$AAx?$AA?$FN?$AA?5?$AA?$CG?$AA?5?$AAS?$AAE?$AAC?$AA_?$AAT?$AAE?$AAR?$AA_?$AAD?$AAE?$AAL?$AAT?$AAA@
	call	DWORD PTR __imp___wassert
	add	esp, 12					; 0000000cH
	cmp	esi, esp
	call	__RTC_CheckEsp
$LN8@getSeconda:
; Line 134
	mov	eax, DWORD PTR _this$[ebp]
	mov	ecx, DWORD PTR [eax]
	mov	edx, DWORD PTR _index$[ebp]
	mov	eax, DWORD PTR [ecx+edx*4]
	shr	eax, 16					; 00000010H
	mov	DWORD PTR _sec$[ebp], eax
	mov	ecx, DWORD PTR _index$[ebp]
	add	ecx, 1
	mov	DWORD PTR _index$[ebp], ecx
; Line 135
	jmp	SHORT $LN2@getSeconda
$LN1@getSeconda:
; Line 136
	mov	eax, DWORD PTR _sec$[ebp]
	cmp	eax, DWORD PTR _s$[ebp]
	je	SHORT $LN9@getSeconda
	mov	ecx, DWORD PTR ?__LINE__Var@?1??getSecondaryBefore@CollationRootElements@icu_56@@QBEIII@Z@4JA
	add	ecx, 19					; 00000013H
	mov	esi, esp
	push	ecx
	push	OFFSET ??_C@_1HE@EMAINIOB@?$AAd?$AA?3?$AA?2?$AAm?$AAo?$AAz?$AAi?$AAl?$AAl?$AAa?$AA?2?$AAi?$AAn?$AAt?$AAl?$AA?2?$AAi?$AAc?$AAu?$AA?2?$AAs?$AAo?$AAu?$AAr?$AAc?$AAe?$AA?2?$AAi?$AA1?$AA8?$AAn?$AA?2@
	push	OFFSET ??_C@_1BC@ONHMBNGD@?$AAs?$AAe?$AAc?$AA?5?$AA?$DN?$AA?$DN?$AA?5?$AAs?$AA?$AA@
	call	DWORD PTR __imp___wassert
	add	esp, 12					; 0000000cH
	cmp	esi, esp
	call	__RTC_CheckEsp
$LN9@getSeconda:
; Line 137
	mov	eax, DWORD PTR _previousSec$[ebp]
; Line 138
	pop	edi
	pop	esi
	pop	ebx
	add	esp, 240				; 000000f0H
	cmp	ebp, esp
	call	__RTC_CheckEsp
	mov	esp, ebp
	pop	ebp
	ret	8
?getSecondaryBefore@CollationRootElements@icu_56@@QBEIII@Z ENDP ; icu_56::CollationRootElements::getSecondaryBefore
_TEXT	ENDS
PUBLIC	??_C@_1BK@ICMPHAMD@?$AAs?$AAe?$AAc?$AAT?$AAe?$AAr?$AA?5?$AA?$DN?$AA?$DN?$AA?5?$AAs?$AAt?$AA?$AA@ ; `string'
PUBLIC	??_C@_1FE@GKMLHDPN@?$AA?$CI?$AAt?$AA?5?$AA?$CG?$AA?5?$AA?$HO?$AAC?$AAo?$AAl?$AAl?$AAa?$AAt?$AAi?$AAo?$AAn?$AA?3?$AA?3?$AAO?$AAN?$AAL?$AAY?$AA_?$AAT?$AAE?$AAR?$AAT?$AAI?$AAA?$AAR?$AAY?$AA_?$AAM@ ; `string'
PUBLIC	?__LINE__Var@?1??getTertiaryBefore@CollationRootElements@icu_56@@QBEIIII@Z@4JA ; `icu_56::CollationRootElements::getTertiaryBefore'::`2'::__LINE__Var
PUBLIC	?getTertiaryBefore@CollationRootElements@icu_56@@QBEIIII@Z ; icu_56::CollationRootElements::getTertiaryBefore
;	COMDAT ??_C@_1BK@ICMPHAMD@?$AAs?$AAe?$AAc?$AAT?$AAe?$AAr?$AA?5?$AA?$DN?$AA?$DN?$AA?5?$AAs?$AAt?$AA?$AA@
CONST	SEGMENT
??_C@_1BK@ICMPHAMD@?$AAs?$AAe?$AAc?$AAT?$AAe?$AAr?$AA?5?$AA?$DN?$AA?$DN?$AA?5?$AAs?$AAt?$AA?$AA@ DB 's'
	DB	00H, 'e', 00H, 'c', 00H, 'T', 00H, 'e', 00H, 'r', 00H, ' ', 00H
	DB	'=', 00H, '=', 00H, ' ', 00H, 's', 00H, 't', 00H, 00H, 00H ; `string'
CONST	ENDS
;	COMDAT ??_C@_1FE@GKMLHDPN@?$AA?$CI?$AAt?$AA?5?$AA?$CG?$AA?5?$AA?$HO?$AAC?$AAo?$AAl?$AAl?$AAa?$AAt?$AAi?$AAo?$AAn?$AA?3?$AA?3?$AAO?$AAN?$AAL?$AAY?$AA_?$AAT?$AAE?$AAR?$AAT?$AAI?$AAA?$AAR?$AAY?$AA_?$AAM@
CONST	SEGMENT
??_C@_1FE@GKMLHDPN@?$AA?$CI?$AAt?$AA?5?$AA?$CG?$AA?5?$AA?$HO?$AAC?$AAo?$AAl?$AAl?$AAa?$AAt?$AAi?$AAo?$AAn?$AA?3?$AA?3?$AAO?$AAN?$AAL?$AAY?$AA_?$AAT?$AAE?$AAR?$AAT?$AAI?$AAA?$AAR?$AAY?$AA_?$AAM@ DB '('
	DB	00H, 't', 00H, ' ', 00H, '&', 00H, ' ', 00H, '~', 00H, 'C', 00H
	DB	'o', 00H, 'l', 00H, 'l', 00H, 'a', 00H, 't', 00H, 'i', 00H, 'o'
	DB	00H, 'n', 00H, ':', 00H, ':', 00H, 'O', 00H, 'N', 00H, 'L', 00H
	DB	'Y', 00H, '_', 00H, 'T', 00H, 'E', 00H, 'R', 00H, 'T', 00H, 'I'
	DB	00H, 'A', 00H, 'R', 00H, 'Y', 00H, '_', 00H, 'M', 00H, 'A', 00H
	DB	'S', 00H, 'K', 00H, ')', 00H, ' ', 00H, '=', 00H, '=', 00H, ' '
	DB	00H, '0', 00H, 00H, 00H			; `string'
CONST	ENDS
;	COMDAT ?__LINE__Var@?1??getTertiaryBefore@CollationRootElements@icu_56@@QBEIIII@Z@4JA
_DATA	SEGMENT
?__LINE__Var@?1??getTertiaryBefore@CollationRootElements@icu_56@@QBEIIII@Z@4JA DD 08dH ; `icu_56::CollationRootElements::getTertiaryBefore'::`2'::__LINE__Var
; Function compile flags: /Odtp /RTCsu /ZI
_DATA	ENDS
;	COMDAT ?getTertiaryBefore@CollationRootElements@icu_56@@QBEIIII@Z
_TEXT	SEGMENT
_st$ = -56						; size = 4
_secTer$ = -44						; size = 4
_previousTer$ = -32					; size = 4
_index$ = -20						; size = 4
_this$ = -8						; size = 4
_p$ = 8							; size = 4
_s$ = 12						; size = 4
_t$ = 16						; size = 4
?getTertiaryBefore@CollationRootElements@icu_56@@QBEIIII@Z PROC ; icu_56::CollationRootElements::getTertiaryBefore, COMDAT
; _this$ = ecx
; Line 141
	push	ebp
	mov	ebp, esp
	sub	esp, 252				; 000000fcH
	push	ebx
	push	esi
	push	edi
	push	ecx
	lea	edi, DWORD PTR [ebp-252]
	mov	ecx, 63					; 0000003fH
	mov	eax, -858993460				; ccccccccH
	rep stosd
	pop	ecx
	mov	DWORD PTR _this$[ebp], ecx
; Line 142
	mov	eax, DWORD PTR _t$[ebp]
	and	eax, -16192				; ffffc0c0H
	je	SHORT $LN10@getTertiar
	mov	ecx, DWORD PTR ?__LINE__Var@?1??getTertiaryBefore@CollationRootElements@icu_56@@QBEIIII@Z@4JA
	add	ecx, 1
	mov	esi, esp
	push	ecx
	push	OFFSET ??_C@_1HE@EMAINIOB@?$AAd?$AA?3?$AA?2?$AAm?$AAo?$AAz?$AAi?$AAl?$AAl?$AAa?$AA?2?$AAi?$AAn?$AAt?$AAl?$AA?2?$AAi?$AAc?$AAu?$AA?2?$AAs?$AAo?$AAu?$AAr?$AAc?$AAe?$AA?2?$AAi?$AA1?$AA8?$AAn?$AA?2@
	push	OFFSET ??_C@_1FE@GKMLHDPN@?$AA?$CI?$AAt?$AA?5?$AA?$CG?$AA?5?$AA?$HO?$AAC?$AAo?$AAl?$AAl?$AAa?$AAt?$AAi?$AAo?$AAn?$AA?3?$AA?3?$AAO?$AAN?$AAL?$AAY?$AA_?$AAT?$AAE?$AAR?$AAT?$AAI?$AAA?$AAR?$AAY?$AA_?$AAM@
	call	DWORD PTR __imp___wassert
	add	esp, 12					; 0000000cH
	cmp	esi, esp
	call	__RTC_CheckEsp
$LN10@getTertiar:
; Line 145
	cmp	DWORD PTR _p$[ebp], 0
	jne	SHORT $LN7@getTertiar
; Line 146
	cmp	DWORD PTR _s$[ebp], 0
	jne	SHORT $LN6@getTertiar
; Line 147
	mov	eax, DWORD PTR _this$[ebp]
	mov	ecx, DWORD PTR [eax]
	mov	edx, DWORD PTR [ecx]
	mov	DWORD PTR _index$[ebp], edx
; Line 149
	mov	DWORD PTR _previousTer$[ebp], 0
; Line 150
	jmp	SHORT $LN5@getTertiar
$LN6@getTertiar:
; Line 151
	mov	eax, DWORD PTR _this$[ebp]
	mov	ecx, DWORD PTR [eax]
	mov	edx, DWORD PTR [ecx+4]
	mov	DWORD PTR _index$[ebp], edx
; Line 152
	mov	DWORD PTR _previousTer$[ebp], 256	; 00000100H
$LN5@getTertiar:
; Line 154
	mov	eax, DWORD PTR _this$[ebp]
	mov	ecx, DWORD PTR [eax]
	mov	edx, DWORD PTR _index$[ebp]
	mov	eax, DWORD PTR [ecx+edx*4]
	and	eax, -129				; ffffff7fH
	mov	DWORD PTR _secTer$[ebp], eax
; Line 155
	jmp	SHORT $LN4@getTertiar
$LN7@getTertiar:
; Line 156
	mov	eax, DWORD PTR _p$[ebp]
	push	eax
	mov	ecx, DWORD PTR _this$[ebp]
	call	?findPrimary@CollationRootElements@icu_56@@QBEHI@Z ; icu_56::CollationRootElements::findPrimary
	add	eax, 1
	mov	DWORD PTR _index$[ebp], eax
; Line 157
	mov	DWORD PTR _previousTer$[ebp], 256	; 00000100H
; Line 158
	mov	eax, DWORD PTR _index$[ebp]
	push	eax
	mov	ecx, DWORD PTR _this$[ebp]
	call	?getFirstSecTerForPrimary@CollationRootElements@icu_56@@ABEIH@Z ; icu_56::CollationRootElements::getFirstSecTerForPrimary
	mov	DWORD PTR _secTer$[ebp], eax
$LN4@getTertiar:
; Line 160
	mov	eax, DWORD PTR _s$[ebp]
	shl	eax, 16					; 00000010H
	or	eax, DWORD PTR _t$[ebp]
	mov	DWORD PTR _st$[ebp], eax
$LN3@getTertiar:
; Line 161
	mov	eax, DWORD PTR _st$[ebp]
	cmp	eax, DWORD PTR _secTer$[ebp]
	jbe	SHORT $LN2@getTertiar
; Line 162
	mov	eax, DWORD PTR _secTer$[ebp]
	shr	eax, 16					; 00000010H
	cmp	eax, DWORD PTR _s$[ebp]
	jne	SHORT $LN1@getTertiar
	mov	eax, DWORD PTR _secTer$[ebp]
	mov	DWORD PTR _previousTer$[ebp], eax
$LN1@getTertiar:
; Line 163
	mov	eax, DWORD PTR _this$[ebp]
	mov	ecx, DWORD PTR [eax]
	mov	edx, DWORD PTR _index$[ebp]
	mov	eax, DWORD PTR [ecx+edx*4]
	and	eax, 128				; 00000080H
	jne	SHORT $LN11@getTertiar
	mov	ecx, DWORD PTR ?__LINE__Var@?1??getTertiaryBefore@CollationRootElements@icu_56@@QBEIIII@Z@4JA
	add	ecx, 22					; 00000016H
	mov	esi, esp
	push	ecx
	push	OFFSET ??_C@_1HE@EMAINIOB@?$AAd?$AA?3?$AA?2?$AAm?$AAo?$AAz?$AAi?$AAl?$AAl?$AAa?$AA?2?$AAi?$AAn?$AAt?$AAl?$AA?2?$AAi?$AAc?$AAu?$AA?2?$AAs?$AAo?$AAu?$AAr?$AAc?$AAe?$AA?2?$AAi?$AA1?$AA8?$AAn?$AA?2@
	push	OFFSET ??_C@_1FI@LKJKLDFD@?$AA?$CI?$AAe?$AAl?$AAe?$AAm?$AAe?$AAn?$AAt?$AAs?$AA?$FL?$AAi?$AAn?$AAd?$AAe?$AAx?$AA?$FN?$AA?5?$AA?$CG?$AA?5?$AAS?$AAE?$AAC?$AA_?$AAT?$AAE?$AAR?$AA_?$AAD?$AAE?$AAL?$AAT?$AAA@
	call	DWORD PTR __imp___wassert
	add	esp, 12					; 0000000cH
	cmp	esi, esp
	call	__RTC_CheckEsp
$LN11@getTertiar:
; Line 164
	mov	eax, DWORD PTR _this$[ebp]
	mov	ecx, DWORD PTR [eax]
	mov	edx, DWORD PTR _index$[ebp]
	mov	eax, DWORD PTR [ecx+edx*4]
	and	eax, -129				; ffffff7fH
	mov	DWORD PTR _secTer$[ebp], eax
	mov	ecx, DWORD PTR _index$[ebp]
	add	ecx, 1
	mov	DWORD PTR _index$[ebp], ecx
; Line 165
	jmp	SHORT $LN3@getTertiar
$LN2@getTertiar:
; Line 166
	mov	eax, DWORD PTR _secTer$[ebp]
	cmp	eax, DWORD PTR _st$[ebp]
	je	SHORT $LN12@getTertiar
	mov	ecx, DWORD PTR ?__LINE__Var@?1??getTertiaryBefore@CollationRootElements@icu_56@@QBEIIII@Z@4JA
	add	ecx, 25					; 00000019H
	mov	esi, esp
	push	ecx
	push	OFFSET ??_C@_1HE@EMAINIOB@?$AAd?$AA?3?$AA?2?$AAm?$AAo?$AAz?$AAi?$AAl?$AAl?$AAa?$AA?2?$AAi?$AAn?$AAt?$AAl?$AA?2?$AAi?$AAc?$AAu?$AA?2?$AAs?$AAo?$AAu?$AAr?$AAc?$AAe?$AA?2?$AAi?$AA1?$AA8?$AAn?$AA?2@
	push	OFFSET ??_C@_1BK@ICMPHAMD@?$AAs?$AAe?$AAc?$AAT?$AAe?$AAr?$AA?5?$AA?$DN?$AA?$DN?$AA?5?$AAs?$AAt?$AA?$AA@
	call	DWORD PTR __imp___wassert
	add	esp, 12					; 0000000cH
	cmp	esi, esp
	call	__RTC_CheckEsp
$LN12@getTertiar:
; Line 167
	mov	eax, DWORD PTR _previousTer$[ebp]
	and	eax, 65535				; 0000ffffH
; Line 168
	pop	edi
	pop	esi
	pop	ebx
	add	esp, 252				; 000000fcH
	cmp	ebp, esp
	call	__RTC_CheckEsp
	mov	esp, ebp
	pop	ebp
	ret	12					; 0000000cH
?getTertiaryBefore@CollationRootElements@icu_56@@QBEIIII@Z ENDP ; icu_56::CollationRootElements::getTertiaryBefore
_TEXT	ENDS
PUBLIC	??_C@_1KA@NPGJCIP@?$AAp?$AA?5?$AA?$DN?$AA?$DN?$AA?5?$AA?$CI?$AAe?$AAl?$AAe?$AAm?$AAe?$AAn?$AAt?$AAs?$AA?$FL?$AAi?$AAn?$AAd?$AAe?$AAx?$AA?$FN?$AA?5?$AA?$CG?$AA?5?$AA0?$AAx?$AAf?$AAf?$AAf?$AAf?$AAf?$AAf@ ; `string'
PUBLIC	?__LINE__Var@?1??getPrimaryAfter@CollationRootElements@icu_56@@QBEIIHC@Z@4JA ; `icu_56::CollationRootElements::getPrimaryAfter'::`2'::__LINE__Var
PUBLIC	?getPrimaryAfter@CollationRootElements@icu_56@@QBEIIHC@Z ; icu_56::CollationRootElements::getPrimaryAfter
EXTRN	?incThreeBytePrimaryByOffset@Collation@icu_56@@SAIICH@Z:PROC ; icu_56::Collation::incThreeBytePrimaryByOffset
EXTRN	?incTwoBytePrimaryByOffset@Collation@icu_56@@SAIICH@Z:PROC ; icu_56::Collation::incTwoBytePrimaryByOffset
;	COMDAT ??_C@_1KA@NPGJCIP@?$AAp?$AA?5?$AA?$DN?$AA?$DN?$AA?5?$AA?$CI?$AAe?$AAl?$AAe?$AAm?$AAe?$AAn?$AAt?$AAs?$AA?$FL?$AAi?$AAn?$AAd?$AAe?$AAx?$AA?$FN?$AA?5?$AA?$CG?$AA?5?$AA0?$AAx?$AAf?$AAf?$AAf?$AAf?$AAf?$AAf@
CONST	SEGMENT
??_C@_1KA@NPGJCIP@?$AAp?$AA?5?$AA?$DN?$AA?$DN?$AA?5?$AA?$CI?$AAe?$AAl?$AAe?$AAm?$AAe?$AAn?$AAt?$AAs?$AA?$FL?$AAi?$AAn?$AAd?$AAe?$AAx?$AA?$FN?$AA?5?$AA?$CG?$AA?5?$AA0?$AAx?$AAf?$AAf?$AAf?$AAf?$AAf?$AAf@ DB 'p'
	DB	00H, ' ', 00H, '=', 00H, '=', 00H, ' ', 00H, '(', 00H, 'e', 00H
	DB	'l', 00H, 'e', 00H, 'm', 00H, 'e', 00H, 'n', 00H, 't', 00H, 's'
	DB	00H, '[', 00H, 'i', 00H, 'n', 00H, 'd', 00H, 'e', 00H, 'x', 00H
	DB	']', 00H, ' ', 00H, '&', 00H, ' ', 00H, '0', 00H, 'x', 00H, 'f'
	DB	00H, 'f', 00H, 'f', 00H, 'f', 00H, 'f', 00H, 'f', 00H, '0', 00H
	DB	'0', 00H, ')', 00H, ' ', 00H, '|', 00H, '|', 00H, ' ', 00H, 'i'
	DB	00H, 's', 00H, 'E', 00H, 'n', 00H, 'd', 00H, 'O', 00H, 'f', 00H
	DB	'P', 00H, 'r', 00H, 'i', 00H, 'm', 00H, 'a', 00H, 'r', 00H, 'y'
	DB	00H, 'R', 00H, 'a', 00H, 'n', 00H, 'g', 00H, 'e', 00H, '(', 00H
	DB	'e', 00H, 'l', 00H, 'e', 00H, 'm', 00H, 'e', 00H, 'n', 00H, 't'
	DB	00H, 's', 00H, '[', 00H, 'i', 00H, 'n', 00H, 'd', 00H, 'e', 00H
	DB	'x', 00H, ' ', 00H, '+', 00H, ' ', 00H, '1', 00H, ']', 00H, ')'
	DB	00H, 00H, 00H				; `string'
CONST	ENDS
;	COMDAT ?__LINE__Var@?1??getPrimaryAfter@CollationRootElements@icu_56@@QBEIIHC@Z@4JA
_DATA	SEGMENT
?__LINE__Var@?1??getPrimaryAfter@CollationRootElements@icu_56@@QBEIIHC@Z@4JA DD 0abH ; `icu_56::CollationRootElements::getPrimaryAfter'::`2'::__LINE__Var
; Function compile flags: /Odtp /RTCsu /ZI
_DATA	ENDS
;	COMDAT ?getPrimaryAfter@CollationRootElements@icu_56@@QBEIIHC@Z
_TEXT	SEGMENT
_step$ = -32						; size = 4
_q$ = -20						; size = 4
_this$ = -8						; size = 4
_p$ = 8							; size = 4
_index$ = 12						; size = 4
_isCompressible$ = 16					; size = 1
?getPrimaryAfter@CollationRootElements@icu_56@@QBEIIHC@Z PROC ; icu_56::CollationRootElements::getPrimaryAfter, COMDAT
; _this$ = ecx
; Line 171
	push	ebp
	mov	ebp, esp
	sub	esp, 228				; 000000e4H
	push	ebx
	push	esi
	push	edi
	push	ecx
	lea	edi, DWORD PTR [ebp-228]
	mov	ecx, 57					; 00000039H
	mov	eax, -858993460				; ccccccccH
	rep stosd
	pop	ecx
	mov	DWORD PTR _this$[ebp], ecx
; Line 172
	mov	eax, DWORD PTR _this$[ebp]
	mov	ecx, DWORD PTR [eax]
	mov	edx, DWORD PTR _index$[ebp]
	mov	eax, DWORD PTR [ecx+edx*4]
	and	eax, -256				; ffffff00H
	cmp	DWORD PTR _p$[ebp], eax
	je	SHORT $LN9@getPrimary@2
	mov	ecx, DWORD PTR _this$[ebp]
	mov	edx, DWORD PTR [ecx]
	mov	eax, DWORD PTR _index$[ebp]
	mov	ecx, DWORD PTR [edx+eax*4+4]
	push	ecx
	call	?isEndOfPrimaryRange@CollationRootElements@icu_56@@CACI@Z ; icu_56::CollationRootElements::isEndOfPrimaryRange
	add	esp, 4
	movsx	edx, al
	test	edx, edx
	jne	SHORT $LN9@getPrimary@2
	mov	eax, DWORD PTR ?__LINE__Var@?1??getPrimaryAfter@CollationRootElements@icu_56@@QBEIIHC@Z@4JA
	add	eax, 1
	mov	esi, esp
	push	eax
	push	OFFSET ??_C@_1HE@EMAINIOB@?$AAd?$AA?3?$AA?2?$AAm?$AAo?$AAz?$AAi?$AAl?$AAl?$AAa?$AA?2?$AAi?$AAn?$AAt?$AAl?$AA?2?$AAi?$AAc?$AAu?$AA?2?$AAs?$AAo?$AAu?$AAr?$AAc?$AAe?$AA?2?$AAi?$AA1?$AA8?$AAn?$AA?2@
	push	OFFSET ??_C@_1KA@NPGJCIP@?$AAp?$AA?5?$AA?$DN?$AA?$DN?$AA?5?$AA?$CI?$AAe?$AAl?$AAe?$AAm?$AAe?$AAn?$AAt?$AAs?$AA?$FL?$AAi?$AAn?$AAd?$AAe?$AAx?$AA?$FN?$AA?5?$AA?$CG?$AA?5?$AA0?$AAx?$AAf?$AAf?$AAf?$AAf?$AAf?$AAf@
	call	DWORD PTR __imp___wassert
	add	esp, 12					; 0000000cH
	cmp	esi, esp
	call	__RTC_CheckEsp
$LN9@getPrimary@2:
; Line 173
	mov	eax, DWORD PTR _index$[ebp]
	add	eax, 1
	mov	DWORD PTR _index$[ebp], eax
	mov	ecx, DWORD PTR _this$[ebp]
	mov	edx, DWORD PTR [ecx]
	mov	eax, DWORD PTR _index$[ebp]
	mov	ecx, DWORD PTR [edx+eax*4]
	mov	DWORD PTR _q$[ebp], ecx
; Line 175
	mov	eax, DWORD PTR _q$[ebp]
	and	eax, 128				; 00000080H
	jne	SHORT $LN2@getPrimary@2
	mov	eax, DWORD PTR _q$[ebp]
	and	eax, 127				; 0000007fH
	mov	DWORD PTR _step$[ebp], eax
	je	SHORT $LN2@getPrimary@2
; Line 177
	mov	eax, DWORD PTR _p$[ebp]
	and	eax, 65535				; 0000ffffH
	jne	SHORT $LN5@getPrimary@2
; Line 178
	mov	eax, DWORD PTR _step$[ebp]
	push	eax
	movzx	ecx, BYTE PTR _isCompressible$[ebp]
	push	ecx
	mov	edx, DWORD PTR _p$[ebp]
	push	edx
	call	?incTwoBytePrimaryByOffset@Collation@icu_56@@SAIICH@Z ; icu_56::Collation::incTwoBytePrimaryByOffset
	add	esp, 12					; 0000000cH
	jmp	SHORT $LN7@getPrimary@2
; Line 179
	jmp	SHORT $LN4@getPrimary@2
$LN5@getPrimary@2:
; Line 180
	mov	eax, DWORD PTR _step$[ebp]
	push	eax
	movzx	ecx, BYTE PTR _isCompressible$[ebp]
	push	ecx
	mov	edx, DWORD PTR _p$[ebp]
	push	edx
	call	?incThreeBytePrimaryByOffset@Collation@icu_56@@SAIICH@Z ; icu_56::Collation::incThreeBytePrimaryByOffset
	add	esp, 12					; 0000000cH
	jmp	SHORT $LN7@getPrimary@2
$LN4@getPrimary@2:
; Line 182
	jmp	SHORT $LN7@getPrimary@2
$LN2@getPrimary@2:
; Line 184
	mov	eax, DWORD PTR _q$[ebp]
	and	eax, 128				; 00000080H
	je	SHORT $LN1@getPrimary@2
; Line 185
	mov	eax, DWORD PTR _index$[ebp]
	add	eax, 1
	mov	DWORD PTR _index$[ebp], eax
	mov	ecx, DWORD PTR _this$[ebp]
	mov	edx, DWORD PTR [ecx]
	mov	eax, DWORD PTR _index$[ebp]
	mov	ecx, DWORD PTR [edx+eax*4]
	mov	DWORD PTR _q$[ebp], ecx
; Line 186
	jmp	SHORT $LN2@getPrimary@2
$LN1@getPrimary@2:
; Line 187
	mov	eax, DWORD PTR _q$[ebp]
	and	eax, 127				; 0000007fH
	je	SHORT $LN10@getPrimary@2
	mov	ecx, DWORD PTR ?__LINE__Var@?1??getPrimaryAfter@CollationRootElements@icu_56@@QBEIIHC@Z@4JA
	add	ecx, 16					; 00000010H
	mov	esi, esp
	push	ecx
	push	OFFSET ??_C@_1HE@EMAINIOB@?$AAd?$AA?3?$AA?2?$AAm?$AAo?$AAz?$AAi?$AAl?$AAl?$AAa?$AA?2?$AAi?$AAn?$AAt?$AAl?$AA?2?$AAi?$AAc?$AAu?$AA?2?$AAs?$AAo?$AAu?$AAr?$AAc?$AAe?$AA?2?$AAi?$AA1?$AA8?$AAn?$AA?2@
	push	OFFSET ??_C@_1DK@GHNKCDJO@?$AA?$CI?$AAq?$AA?5?$AA?$CG?$AA?5?$AAP?$AAR?$AAI?$AAM?$AAA?$AAR?$AAY?$AA_?$AAS?$AAT?$AAE?$AAP?$AA_?$AAM?$AAA?$AAS?$AAK?$AA?$CJ?$AA?5?$AA?$DN?$AA?$DN?$AA?5?$AA0?$AA?$AA@
	call	DWORD PTR __imp___wassert
	add	esp, 12					; 0000000cH
	cmp	esi, esp
	call	__RTC_CheckEsp
$LN10@getPrimary@2:
; Line 188
	mov	eax, DWORD PTR _q$[ebp]
$LN7@getPrimary@2:
; Line 190
	pop	edi
	pop	esi
	pop	ebx
	add	esp, 228				; 000000e4H
	cmp	ebp, esp
	call	__RTC_CheckEsp
	mov	esp, ebp
	pop	ebp
	ret	12					; 0000000cH
?getPrimaryAfter@CollationRootElements@icu_56@@QBEIIHC@Z ENDP ; icu_56::CollationRootElements::getPrimaryAfter
_TEXT	ENDS
PUBLIC	??_C@_1GG@HOADMJAB@?$AAi?$AAn?$AAd?$AAe?$AAx?$AA?5?$AA?$DO?$AA?$DN?$AA?5?$AA?$CI?$AAi?$AAn?$AAt?$AA3?$AA2?$AA_?$AAt?$AA?$CJ?$AAe?$AAl?$AAe?$AAm?$AAe?$AAn?$AAt?$AAs?$AA?$FL?$AAI?$AAX?$AA_?$AAF?$AAI@ ; `string'
PUBLIC	??_C@_1O@OJKLBIIL@?$AAs?$AA?5?$AA?$CB?$AA?$DN?$AA?5?$AA0?$AA?$AA@ ; `string'
PUBLIC	?__LINE__Var@?1??getSecondaryAfter@CollationRootElements@icu_56@@QBEIHI@Z@4JA ; `icu_56::CollationRootElements::getSecondaryAfter'::`2'::__LINE__Var
PUBLIC	?getSecondaryAfter@CollationRootElements@icu_56@@QBEIHI@Z ; icu_56::CollationRootElements::getSecondaryAfter
;	COMDAT ??_C@_1GG@HOADMJAB@?$AAi?$AAn?$AAd?$AAe?$AAx?$AA?5?$AA?$DO?$AA?$DN?$AA?5?$AA?$CI?$AAi?$AAn?$AAt?$AA3?$AA2?$AA_?$AAt?$AA?$CJ?$AAe?$AAl?$AAe?$AAm?$AAe?$AAn?$AAt?$AAs?$AA?$FL?$AAI?$AAX?$AA_?$AAF?$AAI@
CONST	SEGMENT
??_C@_1GG@HOADMJAB@?$AAi?$AAn?$AAd?$AAe?$AAx?$AA?5?$AA?$DO?$AA?$DN?$AA?5?$AA?$CI?$AAi?$AAn?$AAt?$AA3?$AA2?$AA_?$AAt?$AA?$CJ?$AAe?$AAl?$AAe?$AAm?$AAe?$AAn?$AAt?$AAs?$AA?$FL?$AAI?$AAX?$AA_?$AAF?$AAI@ DB 'i'
	DB	00H, 'n', 00H, 'd', 00H, 'e', 00H, 'x', 00H, ' ', 00H, '>', 00H
	DB	'=', 00H, ' ', 00H, '(', 00H, 'i', 00H, 'n', 00H, 't', 00H, '3'
	DB	00H, '2', 00H, '_', 00H, 't', 00H, ')', 00H, 'e', 00H, 'l', 00H
	DB	'e', 00H, 'm', 00H, 'e', 00H, 'n', 00H, 't', 00H, 's', 00H, '['
	DB	00H, 'I', 00H, 'X', 00H, '_', 00H, 'F', 00H, 'I', 00H, 'R', 00H
	DB	'S', 00H, 'T', 00H, '_', 00H, 'P', 00H, 'R', 00H, 'I', 00H, 'M'
	DB	00H, 'A', 00H, 'R', 00H, 'Y', 00H, '_', 00H, 'I', 00H, 'N', 00H
	DB	'D', 00H, 'E', 00H, 'X', 00H, ']', 00H, 00H, 00H ; `string'
CONST	ENDS
;	COMDAT ??_C@_1O@OJKLBIIL@?$AAs?$AA?5?$AA?$CB?$AA?$DN?$AA?5?$AA0?$AA?$AA@
CONST	SEGMENT
??_C@_1O@OJKLBIIL@?$AAs?$AA?5?$AA?$CB?$AA?$DN?$AA?5?$AA0?$AA?$AA@ DB 's', 00H
	DB	' ', 00H, '!', 00H, '=', 00H, ' ', 00H, '0', 00H, 00H, 00H ; `string'
CONST	ENDS
;	COMDAT ?__LINE__Var@?1??getSecondaryAfter@CollationRootElements@icu_56@@QBEIHI@Z@4JA
_DATA	SEGMENT
?__LINE__Var@?1??getSecondaryAfter@CollationRootElements@icu_56@@QBEIHI@Z@4JA DD 0c1H ; `icu_56::CollationRootElements::getSecondaryAfter'::`2'::__LINE__Var
; Function compile flags: /Odtp /RTCsu /ZI
_DATA	ENDS
;	COMDAT ?getSecondaryAfter@CollationRootElements@icu_56@@QBEIHI@Z
_TEXT	SEGMENT
_sec$6873 = -44						; size = 4
_secLimit$ = -32					; size = 4
_secTer$ = -20						; size = 4
_this$ = -8						; size = 4
_index$ = 8						; size = 4
_s$ = 12						; size = 4
?getSecondaryAfter@CollationRootElements@icu_56@@QBEIHI@Z PROC ; icu_56::CollationRootElements::getSecondaryAfter, COMDAT
; _this$ = ecx
; Line 193
	push	ebp
	mov	ebp, esp
	sub	esp, 240				; 000000f0H
	push	ebx
	push	esi
	push	edi
	push	ecx
	lea	edi, DWORD PTR [ebp-240]
	mov	ecx, 60					; 0000003cH
	mov	eax, -858993460				; ccccccccH
	rep stosd
	pop	ecx
	mov	DWORD PTR _this$[ebp], ecx
; Line 196
	cmp	DWORD PTR _index$[ebp], 0
	jne	SHORT $LN6@getSeconda@2
; Line 198
	cmp	DWORD PTR _s$[ebp], 0
	jne	SHORT $LN9@getSeconda@2
	mov	eax, DWORD PTR ?__LINE__Var@?1??getSecondaryAfter@CollationRootElements@icu_56@@QBEIHI@Z@4JA
	add	eax, 5
	mov	esi, esp
	push	eax
	push	OFFSET ??_C@_1HE@EMAINIOB@?$AAd?$AA?3?$AA?2?$AAm?$AAo?$AAz?$AAi?$AAl?$AAl?$AAa?$AA?2?$AAi?$AAn?$AAt?$AAl?$AA?2?$AAi?$AAc?$AAu?$AA?2?$AAs?$AAo?$AAu?$AAr?$AAc?$AAe?$AA?2?$AAi?$AA1?$AA8?$AAn?$AA?2@
	push	OFFSET ??_C@_1O@OJKLBIIL@?$AAs?$AA?5?$AA?$CB?$AA?$DN?$AA?5?$AA0?$AA?$AA@
	call	DWORD PTR __imp___wassert
	add	esp, 12					; 0000000cH
	cmp	esi, esp
	call	__RTC_CheckEsp
$LN9@getSeconda@2:
; Line 199
	mov	eax, DWORD PTR _this$[ebp]
	mov	ecx, DWORD PTR [eax]
	mov	edx, DWORD PTR [ecx+4]
	mov	DWORD PTR _index$[ebp], edx
; Line 200
	mov	eax, DWORD PTR _this$[ebp]
	mov	ecx, DWORD PTR [eax]
	mov	edx, DWORD PTR _index$[ebp]
	mov	eax, DWORD PTR [ecx+edx*4]
	mov	DWORD PTR _secTer$[ebp], eax
; Line 202
	mov	DWORD PTR _secLimit$[ebp], 65536	; 00010000H
; Line 203
	jmp	SHORT $LN4@getSeconda@2
$LN6@getSeconda@2:
; Line 204
	mov	eax, DWORD PTR _this$[ebp]
	mov	ecx, DWORD PTR [eax]
	mov	edx, DWORD PTR _index$[ebp]
	cmp	edx, DWORD PTR [ecx+8]
	jge	SHORT $LN10@getSeconda@2
	mov	eax, DWORD PTR ?__LINE__Var@?1??getSecondaryAfter@CollationRootElements@icu_56@@QBEIHI@Z@4JA
	add	eax, 11					; 0000000bH
	mov	esi, esp
	push	eax
	push	OFFSET ??_C@_1HE@EMAINIOB@?$AAd?$AA?3?$AA?2?$AAm?$AAo?$AAz?$AAi?$AAl?$AAl?$AAa?$AA?2?$AAi?$AAn?$AAt?$AAl?$AA?2?$AAi?$AAc?$AAu?$AA?2?$AAs?$AAo?$AAu?$AAr?$AAc?$AAe?$AA?2?$AAi?$AA1?$AA8?$AAn?$AA?2@
	push	OFFSET ??_C@_1GG@HOADMJAB@?$AAi?$AAn?$AAd?$AAe?$AAx?$AA?5?$AA?$DO?$AA?$DN?$AA?5?$AA?$CI?$AAi?$AAn?$AAt?$AA3?$AA2?$AA_?$AAt?$AA?$CJ?$AAe?$AAl?$AAe?$AAm?$AAe?$AAn?$AAt?$AAs?$AA?$FL?$AAI?$AAX?$AA_?$AAF?$AAI@
	call	DWORD PTR __imp___wassert
	add	esp, 12					; 0000000cH
	cmp	esi, esp
	call	__RTC_CheckEsp
$LN10@getSeconda@2:
; Line 205
	mov	eax, DWORD PTR _index$[ebp]
	add	eax, 1
	push	eax
	mov	ecx, DWORD PTR _this$[ebp]
	call	?getFirstSecTerForPrimary@CollationRootElements@icu_56@@ABEIH@Z ; icu_56::CollationRootElements::getFirstSecTerForPrimary
	mov	DWORD PTR _secTer$[ebp], eax
; Line 208
	mov	ecx, DWORD PTR _this$[ebp]
	call	?getSecondaryBoundary@CollationRootElements@icu_56@@QBEIXZ ; icu_56::CollationRootElements::getSecondaryBoundary
	mov	DWORD PTR _secLimit$[ebp], eax
$LN4@getSeconda@2:
; Line 211
	mov	eax, DWORD PTR _secTer$[ebp]
	shr	eax, 16					; 00000010H
	mov	DWORD PTR _sec$6873[ebp], eax
; Line 212
	mov	eax, DWORD PTR _sec$6873[ebp]
	cmp	eax, DWORD PTR _s$[ebp]
	jbe	SHORT $LN2@getSeconda@2
	mov	eax, DWORD PTR _sec$6873[ebp]
	jmp	SHORT $LN7@getSeconda@2
$LN2@getSeconda@2:
; Line 213
	mov	eax, DWORD PTR _index$[ebp]
	add	eax, 1
	mov	DWORD PTR _index$[ebp], eax
	mov	ecx, DWORD PTR _this$[ebp]
	mov	edx, DWORD PTR [ecx]
	mov	eax, DWORD PTR _index$[ebp]
	mov	ecx, DWORD PTR [edx+eax*4]
	mov	DWORD PTR _secTer$[ebp], ecx
; Line 214
	mov	eax, DWORD PTR _secTer$[ebp]
	and	eax, 128				; 00000080H
	jne	SHORT $LN1@getSeconda@2
	mov	eax, DWORD PTR _secLimit$[ebp]
	jmp	SHORT $LN7@getSeconda@2
$LN1@getSeconda@2:
; Line 215
	jmp	SHORT $LN4@getSeconda@2
$LN7@getSeconda@2:
; Line 216
	pop	edi
	pop	esi
	pop	ebx
	add	esp, 240				; 000000f0H
	cmp	ebp, esp
	call	__RTC_CheckEsp
	mov	esp, ebp
	pop	ebp
	ret	8
?getSecondaryAfter@CollationRootElements@icu_56@@QBEIHI@Z ENDP ; icu_56::CollationRootElements::getSecondaryAfter
_TEXT	ENDS
PUBLIC	??_C@_1CI@NANHNGKE@?$AA?$CI?$AAs?$AAe?$AAc?$AAT?$AAe?$AAr?$AA?5?$AA?$DO?$AA?$DO?$AA?5?$AA1?$AA6?$AA?$CJ?$AA?5?$AA?$DN?$AA?$DN?$AA?5?$AAs?$AA?$AA@ ; `string'
PUBLIC	??_C@_1O@IMGGLCEL@?$AAt?$AA?5?$AA?$CB?$AA?$DN?$AA?5?$AA0?$AA?$AA@ ; `string'
PUBLIC	?__LINE__Var@?1??getTertiaryAfter@CollationRootElements@icu_56@@QBEIHII@Z@4JA ; `icu_56::CollationRootElements::getTertiaryAfter'::`2'::__LINE__Var
PUBLIC	?getTertiaryAfter@CollationRootElements@icu_56@@QBEIHII@Z ; icu_56::CollationRootElements::getTertiaryAfter
;	COMDAT ??_C@_1CI@NANHNGKE@?$AA?$CI?$AAs?$AAe?$AAc?$AAT?$AAe?$AAr?$AA?5?$AA?$DO?$AA?$DO?$AA?5?$AA1?$AA6?$AA?$CJ?$AA?5?$AA?$DN?$AA?$DN?$AA?5?$AAs?$AA?$AA@
CONST	SEGMENT
??_C@_1CI@NANHNGKE@?$AA?$CI?$AAs?$AAe?$AAc?$AAT?$AAe?$AAr?$AA?5?$AA?$DO?$AA?$DO?$AA?5?$AA1?$AA6?$AA?$CJ?$AA?5?$AA?$DN?$AA?$DN?$AA?5?$AAs?$AA?$AA@ DB '('
	DB	00H, 's', 00H, 'e', 00H, 'c', 00H, 'T', 00H, 'e', 00H, 'r', 00H
	DB	' ', 00H, '>', 00H, '>', 00H, ' ', 00H, '1', 00H, '6', 00H, ')'
	DB	00H, ' ', 00H, '=', 00H, '=', 00H, ' ', 00H, 's', 00H, 00H, 00H ; `string'
CONST	ENDS
;	COMDAT ??_C@_1O@IMGGLCEL@?$AAt?$AA?5?$AA?$CB?$AA?$DN?$AA?5?$AA0?$AA?$AA@
CONST	SEGMENT
??_C@_1O@IMGGLCEL@?$AAt?$AA?5?$AA?$CB?$AA?$DN?$AA?5?$AA0?$AA?$AA@ DB 't', 00H
	DB	' ', 00H, '!', 00H, '=', 00H, ' ', 00H, '0', 00H, 00H, 00H ; `string'
CONST	ENDS
;	COMDAT ?__LINE__Var@?1??getTertiaryAfter@CollationRootElements@icu_56@@QBEIHII@Z@4JA
_DATA	SEGMENT
?__LINE__Var@?1??getTertiaryAfter@CollationRootElements@icu_56@@QBEIHII@Z@4JA DD 0dbH ; `icu_56::CollationRootElements::getTertiaryAfter'::`2'::__LINE__Var
; Function compile flags: /Odtp /RTCsu /ZI
_DATA	ENDS
;	COMDAT ?getTertiaryAfter@CollationRootElements@icu_56@@QBEIHII@Z
_TEXT	SEGMENT
_st$ = -44						; size = 4
_terLimit$ = -32					; size = 4
_secTer$ = -20						; size = 4
_this$ = -8						; size = 4
_index$ = 8						; size = 4
_s$ = 12						; size = 4
_t$ = 16						; size = 4
?getTertiaryAfter@CollationRootElements@icu_56@@QBEIHII@Z PROC ; icu_56::CollationRootElements::getTertiaryAfter, COMDAT
; _this$ = ecx
; Line 219
	push	ebp
	mov	ebp, esp
	sub	esp, 240				; 000000f0H
	push	ebx
	push	esi
	push	edi
	push	ecx
	lea	edi, DWORD PTR [ebp-240]
	mov	ecx, 60					; 0000003cH
	mov	eax, -858993460				; ccccccccH
	rep stosd
	pop	ecx
	mov	DWORD PTR _this$[ebp], ecx
; Line 222
	cmp	DWORD PTR _index$[ebp], 0
	jne	SHORT $LN9@getTertiar@2
; Line 224
	cmp	DWORD PTR _s$[ebp], 0
	jne	SHORT $LN8@getTertiar@2
; Line 225
	cmp	DWORD PTR _t$[ebp], 0
	jne	SHORT $LN12@getTertiar@2
	mov	eax, DWORD PTR ?__LINE__Var@?1??getTertiaryAfter@CollationRootElements@icu_56@@QBEIHII@Z@4JA
	add	eax, 6
	mov	esi, esp
	push	eax
	push	OFFSET ??_C@_1HE@EMAINIOB@?$AAd?$AA?3?$AA?2?$AAm?$AAo?$AAz?$AAi?$AAl?$AAl?$AAa?$AA?2?$AAi?$AAn?$AAt?$AAl?$AA?2?$AAi?$AAc?$AAu?$AA?2?$AAs?$AAo?$AAu?$AAr?$AAc?$AAe?$AA?2?$AAi?$AA1?$AA8?$AAn?$AA?2@
	push	OFFSET ??_C@_1O@IMGGLCEL@?$AAt?$AA?5?$AA?$CB?$AA?$DN?$AA?5?$AA0?$AA?$AA@
	call	DWORD PTR __imp___wassert
	add	esp, 12					; 0000000cH
	cmp	esi, esp
	call	__RTC_CheckEsp
$LN12@getTertiar@2:
; Line 226
	mov	eax, DWORD PTR _this$[ebp]
	mov	ecx, DWORD PTR [eax]
	mov	edx, DWORD PTR [ecx]
	mov	DWORD PTR _index$[ebp], edx
; Line 228
	mov	DWORD PTR _terLimit$[ebp], 16384	; 00004000H
; Line 229
	jmp	SHORT $LN7@getTertiar@2
$LN8@getTertiar@2:
; Line 230
	mov	eax, DWORD PTR _this$[ebp]
	mov	ecx, DWORD PTR [eax]
	mov	edx, DWORD PTR [ecx+4]
	mov	DWORD PTR _index$[ebp], edx
; Line 232
	mov	ecx, DWORD PTR _this$[ebp]
	call	?getTertiaryBoundary@CollationRootElements@icu_56@@QBEIXZ ; icu_56::CollationRootElements::getTertiaryBoundary
	mov	DWORD PTR _terLimit$[ebp], eax
$LN7@getTertiar@2:
; Line 234
	mov	eax, DWORD PTR _this$[ebp]
	mov	ecx, DWORD PTR [eax]
	mov	edx, DWORD PTR _index$[ebp]
	mov	eax, DWORD PTR [ecx+edx*4]
	and	eax, -129				; ffffff7fH
	mov	DWORD PTR _secTer$[ebp], eax
; Line 235
	jmp	SHORT $LN6@getTertiar@2
$LN9@getTertiar@2:
; Line 236
	mov	eax, DWORD PTR _this$[ebp]
	mov	ecx, DWORD PTR [eax]
	mov	edx, DWORD PTR _index$[ebp]
	cmp	edx, DWORD PTR [ecx+8]
	jge	SHORT $LN13@getTertiar@2
	mov	eax, DWORD PTR ?__LINE__Var@?1??getTertiaryAfter@CollationRootElements@icu_56@@QBEIHII@Z@4JA
	add	eax, 17					; 00000011H
	mov	esi, esp
	push	eax
	push	OFFSET ??_C@_1HE@EMAINIOB@?$AAd?$AA?3?$AA?2?$AAm?$AAo?$AAz?$AAi?$AAl?$AAl?$AAa?$AA?2?$AAi?$AAn?$AAt?$AAl?$AA?2?$AAi?$AAc?$AAu?$AA?2?$AAs?$AAo?$AAu?$AAr?$AAc?$AAe?$AA?2?$AAi?$AA1?$AA8?$AAn?$AA?2@
	push	OFFSET ??_C@_1GG@HOADMJAB@?$AAi?$AAn?$AAd?$AAe?$AAx?$AA?5?$AA?$DO?$AA?$DN?$AA?5?$AA?$CI?$AAi?$AAn?$AAt?$AA3?$AA2?$AA_?$AAt?$AA?$CJ?$AAe?$AAl?$AAe?$AAm?$AAe?$AAn?$AAt?$AAs?$AA?$FL?$AAI?$AAX?$AA_?$AAF?$AAI@
	call	DWORD PTR __imp___wassert
	add	esp, 12					; 0000000cH
	cmp	esi, esp
	call	__RTC_CheckEsp
$LN13@getTertiar@2:
; Line 237
	mov	eax, DWORD PTR _index$[ebp]
	add	eax, 1
	push	eax
	mov	ecx, DWORD PTR _this$[ebp]
	call	?getFirstSecTerForPrimary@CollationRootElements@icu_56@@ABEIH@Z ; icu_56::CollationRootElements::getFirstSecTerForPrimary
	mov	DWORD PTR _secTer$[ebp], eax
; Line 239
	mov	ecx, DWORD PTR _this$[ebp]
	call	?getTertiaryBoundary@CollationRootElements@icu_56@@QBEIXZ ; icu_56::CollationRootElements::getTertiaryBoundary
	mov	DWORD PTR _terLimit$[ebp], eax
$LN6@getTertiar@2:
; Line 241
	mov	eax, DWORD PTR _s$[ebp]
	shl	eax, 16					; 00000010H
	or	eax, DWORD PTR _t$[ebp]
	mov	DWORD PTR _st$[ebp], eax
$LN5@getTertiar@2:
; Line 243
	mov	eax, DWORD PTR _secTer$[ebp]
	cmp	eax, DWORD PTR _st$[ebp]
	jbe	SHORT $LN3@getTertiar@2
; Line 244
	mov	eax, DWORD PTR _secTer$[ebp]
	shr	eax, 16					; 00000010H
	cmp	eax, DWORD PTR _s$[ebp]
	je	SHORT $LN14@getTertiar@2
	mov	ecx, DWORD PTR ?__LINE__Var@?1??getTertiaryAfter@CollationRootElements@icu_56@@QBEIHII@Z@4JA
	add	ecx, 25					; 00000019H
	mov	esi, esp
	push	ecx
	push	OFFSET ??_C@_1HE@EMAINIOB@?$AAd?$AA?3?$AA?2?$AAm?$AAo?$AAz?$AAi?$AAl?$AAl?$AAa?$AA?2?$AAi?$AAn?$AAt?$AAl?$AA?2?$AAi?$AAc?$AAu?$AA?2?$AAs?$AAo?$AAu?$AAr?$AAc?$AAe?$AA?2?$AAi?$AA1?$AA8?$AAn?$AA?2@
	push	OFFSET ??_C@_1CI@NANHNGKE@?$AA?$CI?$AAs?$AAe?$AAc?$AAT?$AAe?$AAr?$AA?5?$AA?$DO?$AA?$DO?$AA?5?$AA1?$AA6?$AA?$CJ?$AA?5?$AA?$DN?$AA?$DN?$AA?5?$AAs?$AA?$AA@
	call	DWORD PTR __imp___wassert
	add	esp, 12					; 0000000cH
	cmp	esi, esp
	call	__RTC_CheckEsp
$LN14@getTertiar@2:
; Line 245
	mov	eax, DWORD PTR _secTer$[ebp]
	and	eax, 65535				; 0000ffffH
	jmp	SHORT $LN10@getTertiar@2
$LN3@getTertiar@2:
; Line 247
	mov	eax, DWORD PTR _index$[ebp]
	add	eax, 1
	mov	DWORD PTR _index$[ebp], eax
	mov	ecx, DWORD PTR _this$[ebp]
	mov	edx, DWORD PTR [ecx]
	mov	eax, DWORD PTR _index$[ebp]
	mov	ecx, DWORD PTR [edx+eax*4]
	mov	DWORD PTR _secTer$[ebp], ecx
; Line 249
	mov	eax, DWORD PTR _secTer$[ebp]
	and	eax, 128				; 00000080H
	je	SHORT $LN1@getTertiar@2
	mov	eax, DWORD PTR _secTer$[ebp]
	shr	eax, 16					; 00000010H
	cmp	eax, DWORD PTR _s$[ebp]
	jbe	SHORT $LN2@getTertiar@2
$LN1@getTertiar@2:
	mov	eax, DWORD PTR _terLimit$[ebp]
	jmp	SHORT $LN10@getTertiar@2
$LN2@getTertiar@2:
; Line 250
	mov	eax, DWORD PTR _secTer$[ebp]
	and	eax, -129				; ffffff7fH
	mov	DWORD PTR _secTer$[ebp], eax
; Line 251
	jmp	$LN5@getTertiar@2
$LN10@getTertiar@2:
; Line 252
	pop	edi
	pop	esi
	pop	ebx
	add	esp, 240				; 000000f0H
	cmp	ebp, esp
	call	__RTC_CheckEsp
	mov	esp, ebp
	pop	ebp
	ret	12					; 0000000cH
?getTertiaryAfter@CollationRootElements@icu_56@@QBEIHII@Z ENDP ; icu_56::CollationRootElements::getTertiaryAfter
; Function compile flags: /Odtp /RTCsu /ZI
_TEXT	ENDS
;	COMDAT ?getFirstSecTerForPrimary@CollationRootElements@icu_56@@ABEIH@Z
_TEXT	SEGMENT
_secTer$ = -20						; size = 4
_this$ = -8						; size = 4
_index$ = 8						; size = 4
?getFirstSecTerForPrimary@CollationRootElements@icu_56@@ABEIH@Z PROC ; icu_56::CollationRootElements::getFirstSecTerForPrimary, COMDAT
; _this$ = ecx
; Line 255
	push	ebp
	mov	ebp, esp
	sub	esp, 216				; 000000d8H
	push	ebx
	push	esi
	push	edi
	push	ecx
	lea	edi, DWORD PTR [ebp-216]
	mov	ecx, 54					; 00000036H
	mov	eax, -858993460				; ccccccccH
	rep stosd
	pop	ecx
	mov	DWORD PTR _this$[ebp], ecx
; Line 256
	mov	eax, DWORD PTR _this$[ebp]
	mov	ecx, DWORD PTR [eax]
	mov	edx, DWORD PTR _index$[ebp]
	mov	eax, DWORD PTR [ecx+edx*4]
	mov	DWORD PTR _secTer$[ebp], eax
; Line 257
	mov	eax, DWORD PTR _secTer$[ebp]
	and	eax, 128				; 00000080H
	jne	SHORT $LN2@getFirstSe
; Line 259
	mov	eax, 83887360				; 05000500H
	jmp	SHORT $LN3@getFirstSe
$LN2@getFirstSe:
; Line 261
	mov	eax, DWORD PTR _secTer$[ebp]
	and	eax, -129				; ffffff7fH
	mov	DWORD PTR _secTer$[ebp], eax
; Line 262
	cmp	DWORD PTR _secTer$[ebp], 83887360	; 05000500H
	jbe	SHORT $LN1@getFirstSe
; Line 264
	mov	eax, 83887360				; 05000500H
	jmp	SHORT $LN3@getFirstSe
$LN1@getFirstSe:
; Line 267
	mov	eax, DWORD PTR _secTer$[ebp]
$LN3@getFirstSe:
; Line 268
	pop	edi
	pop	esi
	pop	ebx
	mov	esp, ebp
	pop	ebp
	ret	4
?getFirstSecTerForPrimary@CollationRootElements@icu_56@@ABEIH@Z ENDP ; icu_56::CollationRootElements::getFirstSecTerForPrimary
_TEXT	ENDS
PUBLIC	??_C@_1KA@DJFAMCHJ@?$AAi?$AAs?$AAE?$AAn?$AAd?$AAO?$AAf?$AAP?$AAr?$AAi?$AAm?$AAa?$AAr?$AAy?$AAR?$AAa?$AAn?$AAg?$AAe?$AA?$CI?$AAe?$AAl?$AAe?$AAm?$AAe?$AAn?$AAt?$AAs?$AA?$FL?$AAi?$AAn?$AAd@ ; `string'
PUBLIC	??_C@_1CA@DBJDOKCM@?$AA?$CI?$AAp?$AA?5?$AA?$CG?$AA?5?$AA0?$AAx?$AAf?$AAf?$AA?$CJ?$AA?5?$AA?$DN?$AA?$DN?$AA?5?$AA0?$AA?$AA@ ; `string'
PUBLIC	?__LINE__Var@?1??findPrimary@CollationRootElements@icu_56@@QBEHI@Z@4JA ; `icu_56::CollationRootElements::findPrimary'::`2'::__LINE__Var
;	COMDAT ??_C@_1KA@DJFAMCHJ@?$AAi?$AAs?$AAE?$AAn?$AAd?$AAO?$AAf?$AAP?$AAr?$AAi?$AAm?$AAa?$AAr?$AAy?$AAR?$AAa?$AAn?$AAg?$AAe?$AA?$CI?$AAe?$AAl?$AAe?$AAm?$AAe?$AAn?$AAt?$AAs?$AA?$FL?$AAi?$AAn?$AAd@
CONST	SEGMENT
??_C@_1KA@DJFAMCHJ@?$AAi?$AAs?$AAE?$AAn?$AAd?$AAO?$AAf?$AAP?$AAr?$AAi?$AAm?$AAa?$AAr?$AAy?$AAR?$AAa?$AAn?$AAg?$AAe?$AA?$CI?$AAe?$AAl?$AAe?$AAm?$AAe?$AAn?$AAt?$AAs?$AA?$FL?$AAi?$AAn?$AAd@ DB 'i'
	DB	00H, 's', 00H, 'E', 00H, 'n', 00H, 'd', 00H, 'O', 00H, 'f', 00H
	DB	'P', 00H, 'r', 00H, 'i', 00H, 'm', 00H, 'a', 00H, 'r', 00H, 'y'
	DB	00H, 'R', 00H, 'a', 00H, 'n', 00H, 'g', 00H, 'e', 00H, '(', 00H
	DB	'e', 00H, 'l', 00H, 'e', 00H, 'm', 00H, 'e', 00H, 'n', 00H, 't'
	DB	00H, 's', 00H, '[', 00H, 'i', 00H, 'n', 00H, 'd', 00H, 'e', 00H
	DB	'x', 00H, ' ', 00H, '+', 00H, ' ', 00H, '1', 00H, ']', 00H, ')'
	DB	00H, ' ', 00H, '|', 00H, '|', 00H, ' ', 00H, 'p', 00H, ' ', 00H
	DB	'=', 00H, '=', 00H, ' ', 00H, '(', 00H, 'e', 00H, 'l', 00H, 'e'
	DB	00H, 'm', 00H, 'e', 00H, 'n', 00H, 't', 00H, 's', 00H, '[', 00H
	DB	'i', 00H, 'n', 00H, 'd', 00H, 'e', 00H, 'x', 00H, ']', 00H, ' '
	DB	00H, '&', 00H, ' ', 00H, '0', 00H, 'x', 00H, 'f', 00H, 'f', 00H
	DB	'f', 00H, 'f', 00H, 'f', 00H, 'f', 00H, '0', 00H, '0', 00H, ')'
	DB	00H, 00H, 00H				; `string'
CONST	ENDS
;	COMDAT ??_C@_1CA@DBJDOKCM@?$AA?$CI?$AAp?$AA?5?$AA?$CG?$AA?5?$AA0?$AAx?$AAf?$AAf?$AA?$CJ?$AA?5?$AA?$DN?$AA?$DN?$AA?5?$AA0?$AA?$AA@
CONST	SEGMENT
??_C@_1CA@DBJDOKCM@?$AA?$CI?$AAp?$AA?5?$AA?$CG?$AA?5?$AA0?$AAx?$AAf?$AAf?$AA?$CJ?$AA?5?$AA?$DN?$AA?$DN?$AA?5?$AA0?$AA?$AA@ DB '('
	DB	00H, 'p', 00H, ' ', 00H, '&', 00H, ' ', 00H, '0', 00H, 'x', 00H
	DB	'f', 00H, 'f', 00H, ')', 00H, ' ', 00H, '=', 00H, '=', 00H, ' '
	DB	00H, '0', 00H, 00H, 00H			; `string'
CONST	ENDS
;	COMDAT ?__LINE__Var@?1??findPrimary@CollationRootElements@icu_56@@QBEHI@Z@4JA
_DATA	SEGMENT
?__LINE__Var@?1??findPrimary@CollationRootElements@icu_56@@QBEHI@Z@4JA DD 010fH ; `icu_56::CollationRootElements::findPrimary'::`2'::__LINE__Var
; Function compile flags: /Odtp /RTCsu /ZI
_DATA	ENDS
;	COMDAT ?findPrimary@CollationRootElements@icu_56@@QBEHI@Z
_TEXT	SEGMENT
_index$ = -20						; size = 4
_this$ = -8						; size = 4
_p$ = 8							; size = 4
?findPrimary@CollationRootElements@icu_56@@QBEHI@Z PROC	; icu_56::CollationRootElements::findPrimary, COMDAT
; _this$ = ecx
; Line 271
	push	ebp
	mov	ebp, esp
	sub	esp, 216				; 000000d8H
	push	ebx
	push	esi
	push	edi
	push	ecx
	lea	edi, DWORD PTR [ebp-216]
	mov	ecx, 54					; 00000036H
	mov	eax, -858993460				; ccccccccH
	rep stosd
	pop	ecx
	mov	DWORD PTR _this$[ebp], ecx
; Line 273
	mov	eax, DWORD PTR _p$[ebp]
	and	eax, 255				; 000000ffH
	je	SHORT $LN3@findPrimar
	mov	ecx, DWORD PTR ?__LINE__Var@?1??findPrimary@CollationRootElements@icu_56@@QBEHI@Z@4JA
	add	ecx, 2
	mov	esi, esp
	push	ecx
	push	OFFSET ??_C@_1HE@EMAINIOB@?$AAd?$AA?3?$AA?2?$AAm?$AAo?$AAz?$AAi?$AAl?$AAl?$AAa?$AA?2?$AAi?$AAn?$AAt?$AAl?$AA?2?$AAi?$AAc?$AAu?$AA?2?$AAs?$AAo?$AAu?$AAr?$AAc?$AAe?$AA?2?$AAi?$AA1?$AA8?$AAn?$AA?2@
	push	OFFSET ??_C@_1CA@DBJDOKCM@?$AA?$CI?$AAp?$AA?5?$AA?$CG?$AA?5?$AA0?$AAx?$AAf?$AAf?$AA?$CJ?$AA?5?$AA?$DN?$AA?$DN?$AA?5?$AA0?$AA?$AA@
	call	DWORD PTR __imp___wassert
	add	esp, 12					; 0000000cH
	cmp	esi, esp
	call	__RTC_CheckEsp
$LN3@findPrimar:
; Line 274
	mov	eax, DWORD PTR _p$[ebp]
	push	eax
	mov	ecx, DWORD PTR _this$[ebp]
	call	?findP@CollationRootElements@icu_56@@ABEHI@Z ; icu_56::CollationRootElements::findP
	mov	DWORD PTR _index$[ebp], eax
; Line 278
	mov	eax, DWORD PTR _this$[ebp]
	mov	ecx, DWORD PTR [eax]
	mov	edx, DWORD PTR _index$[ebp]
	mov	eax, DWORD PTR [ecx+edx*4+4]
	push	eax
	call	?isEndOfPrimaryRange@CollationRootElements@icu_56@@CACI@Z ; icu_56::CollationRootElements::isEndOfPrimaryRange
	add	esp, 4
	movsx	ecx, al
	test	ecx, ecx
	jne	SHORT $LN4@findPrimar
	mov	edx, DWORD PTR _this$[ebp]
	mov	eax, DWORD PTR [edx]
	mov	ecx, DWORD PTR _index$[ebp]
	mov	edx, DWORD PTR [eax+ecx*4]
	and	edx, -256				; ffffff00H
	cmp	DWORD PTR _p$[ebp], edx
	je	SHORT $LN4@findPrimar
	mov	eax, DWORD PTR ?__LINE__Var@?1??findPrimary@CollationRootElements@icu_56@@QBEHI@Z@4JA
	add	eax, 7
	mov	esi, esp
	push	eax
	push	OFFSET ??_C@_1HE@EMAINIOB@?$AAd?$AA?3?$AA?2?$AAm?$AAo?$AAz?$AAi?$AAl?$AAl?$AAa?$AA?2?$AAi?$AAn?$AAt?$AAl?$AA?2?$AAi?$AAc?$AAu?$AA?2?$AAs?$AAo?$AAu?$AAr?$AAc?$AAe?$AA?2?$AAi?$AA1?$AA8?$AAn?$AA?2@
	push	OFFSET ??_C@_1KA@DJFAMCHJ@?$AAi?$AAs?$AAE?$AAn?$AAd?$AAO?$AAf?$AAP?$AAr?$AAi?$AAm?$AAa?$AAr?$AAy?$AAR?$AAa?$AAn?$AAg?$AAe?$AA?$CI?$AAe?$AAl?$AAe?$AAm?$AAe?$AAn?$AAt?$AAs?$AA?$FL?$AAi?$AAn?$AAd@
	call	DWORD PTR __imp___wassert
	add	esp, 12					; 0000000cH
	cmp	esi, esp
	call	__RTC_CheckEsp
$LN4@findPrimar:
; Line 279
	mov	eax, DWORD PTR _index$[ebp]
; Line 280
	pop	edi
	pop	esi
	pop	ebx
	add	esp, 216				; 000000d8H
	cmp	ebp, esp
	call	__RTC_CheckEsp
	mov	esp, ebp
	pop	ebp
	ret	4
?findPrimary@CollationRootElements@icu_56@@QBEHI@Z ENDP	; icu_56::CollationRootElements::findPrimary
_TEXT	ENDS
PUBLIC	??_C@_1CI@FGNKNHAG@?$AAp?$AA?5?$AA?$DM?$AA?5?$AAe?$AAl?$AAe?$AAm?$AAe?$AAn?$AAt?$AAs?$AA?$FL?$AAl?$AAi?$AAm?$AAi?$AAt?$AA?$FN?$AA?$AA@ ; `string'
PUBLIC	??_C@_1EI@LHMKEHGP@?$AAe?$AAl?$AAe?$AAm?$AAe?$AAn?$AAt?$AAs?$AA?$FL?$AAl?$AAi?$AAm?$AAi?$AAt?$AA?$FN?$AA?5?$AA?$DO?$AA?$DN?$AA?5?$AAP?$AAR?$AAI?$AAM?$AAA?$AAR?$AAY?$AA_?$AAS?$AAE?$AAN?$AAT?$AAI@ ; `string'
PUBLIC	??_C@_1CK@CGEMKIBJ@?$AAp?$AA?5?$AA?$DO?$AA?$DN?$AA?5?$AAe?$AAl?$AAe?$AAm?$AAe?$AAn?$AAt?$AAs?$AA?$FL?$AAs?$AAt?$AAa?$AAr?$AAt?$AA?$FN?$AA?$AA@ ; `string'
PUBLIC	??_C@_1GC@KNJCIHB@?$AA?$CI?$AAp?$AA?5?$AA?$DO?$AA?$DO?$AA?5?$AA2?$AA4?$AA?$CJ?$AA?5?$AA?$CB?$AA?$DN?$AA?5?$AAC?$AAo?$AAl?$AAl?$AAa?$AAt?$AAi?$AAo?$AAn?$AA?3?$AA?3?$AAU?$AAN?$AAA?$AAS?$AAS?$AAI?$AAG?$AAN@ ; `string'
PUBLIC	?__LINE__Var@?1??findP@CollationRootElements@icu_56@@ABEHI@Z@4JA ; `icu_56::CollationRootElements::findP'::`2'::__LINE__Var
;	COMDAT ??_C@_1CI@FGNKNHAG@?$AAp?$AA?5?$AA?$DM?$AA?5?$AAe?$AAl?$AAe?$AAm?$AAe?$AAn?$AAt?$AAs?$AA?$FL?$AAl?$AAi?$AAm?$AAi?$AAt?$AA?$FN?$AA?$AA@
CONST	SEGMENT
??_C@_1CI@FGNKNHAG@?$AAp?$AA?5?$AA?$DM?$AA?5?$AAe?$AAl?$AAe?$AAm?$AAe?$AAn?$AAt?$AAs?$AA?$FL?$AAl?$AAi?$AAm?$AAi?$AAt?$AA?$FN?$AA?$AA@ DB 'p'
	DB	00H, ' ', 00H, '<', 00H, ' ', 00H, 'e', 00H, 'l', 00H, 'e', 00H
	DB	'm', 00H, 'e', 00H, 'n', 00H, 't', 00H, 's', 00H, '[', 00H, 'l'
	DB	00H, 'i', 00H, 'm', 00H, 'i', 00H, 't', 00H, ']', 00H, 00H, 00H ; `string'
CONST	ENDS
;	COMDAT ??_C@_1EI@LHMKEHGP@?$AAe?$AAl?$AAe?$AAm?$AAe?$AAn?$AAt?$AAs?$AA?$FL?$AAl?$AAi?$AAm?$AAi?$AAt?$AA?$FN?$AA?5?$AA?$DO?$AA?$DN?$AA?5?$AAP?$AAR?$AAI?$AAM?$AAA?$AAR?$AAY?$AA_?$AAS?$AAE?$AAN?$AAT?$AAI@
CONST	SEGMENT
??_C@_1EI@LHMKEHGP@?$AAe?$AAl?$AAe?$AAm?$AAe?$AAn?$AAt?$AAs?$AA?$FL?$AAl?$AAi?$AAm?$AAi?$AAt?$AA?$FN?$AA?5?$AA?$DO?$AA?$DN?$AA?5?$AAP?$AAR?$AAI?$AAM?$AAA?$AAR?$AAY?$AA_?$AAS?$AAE?$AAN?$AAT?$AAI@ DB 'e'
	DB	00H, 'l', 00H, 'e', 00H, 'm', 00H, 'e', 00H, 'n', 00H, 't', 00H
	DB	's', 00H, '[', 00H, 'l', 00H, 'i', 00H, 'm', 00H, 'i', 00H, 't'
	DB	00H, ']', 00H, ' ', 00H, '>', 00H, '=', 00H, ' ', 00H, 'P', 00H
	DB	'R', 00H, 'I', 00H, 'M', 00H, 'A', 00H, 'R', 00H, 'Y', 00H, '_'
	DB	00H, 'S', 00H, 'E', 00H, 'N', 00H, 'T', 00H, 'I', 00H, 'N', 00H
	DB	'E', 00H, 'L', 00H, 00H, 00H			; `string'
CONST	ENDS
;	COMDAT ??_C@_1CK@CGEMKIBJ@?$AAp?$AA?5?$AA?$DO?$AA?$DN?$AA?5?$AAe?$AAl?$AAe?$AAm?$AAe?$AAn?$AAt?$AAs?$AA?$FL?$AAs?$AAt?$AAa?$AAr?$AAt?$AA?$FN?$AA?$AA@
CONST	SEGMENT
??_C@_1CK@CGEMKIBJ@?$AAp?$AA?5?$AA?$DO?$AA?$DN?$AA?5?$AAe?$AAl?$AAe?$AAm?$AAe?$AAn?$AAt?$AAs?$AA?$FL?$AAs?$AAt?$AAa?$AAr?$AAt?$AA?$FN?$AA?$AA@ DB 'p'
	DB	00H, ' ', 00H, '>', 00H, '=', 00H, ' ', 00H, 'e', 00H, 'l', 00H
	DB	'e', 00H, 'm', 00H, 'e', 00H, 'n', 00H, 't', 00H, 's', 00H, '['
	DB	00H, 's', 00H, 't', 00H, 'a', 00H, 'r', 00H, 't', 00H, ']', 00H
	DB	00H, 00H					; `string'
CONST	ENDS
;	COMDAT ??_C@_1GC@KNJCIHB@?$AA?$CI?$AAp?$AA?5?$AA?$DO?$AA?$DO?$AA?5?$AA2?$AA4?$AA?$CJ?$AA?5?$AA?$CB?$AA?$DN?$AA?5?$AAC?$AAo?$AAl?$AAl?$AAa?$AAt?$AAi?$AAo?$AAn?$AA?3?$AA?3?$AAU?$AAN?$AAA?$AAS?$AAS?$AAI?$AAG?$AAN@
CONST	SEGMENT
??_C@_1GC@KNJCIHB@?$AA?$CI?$AAp?$AA?5?$AA?$DO?$AA?$DO?$AA?5?$AA2?$AA4?$AA?$CJ?$AA?5?$AA?$CB?$AA?$DN?$AA?5?$AAC?$AAo?$AAl?$AAl?$AAa?$AAt?$AAi?$AAo?$AAn?$AA?3?$AA?3?$AAU?$AAN?$AAA?$AAS?$AAS?$AAI?$AAG?$AAN@ DB '('
	DB	00H, 'p', 00H, ' ', 00H, '>', 00H, '>', 00H, ' ', 00H, '2', 00H
	DB	'4', 00H, ')', 00H, ' ', 00H, '!', 00H, '=', 00H, ' ', 00H, 'C'
	DB	00H, 'o', 00H, 'l', 00H, 'l', 00H, 'a', 00H, 't', 00H, 'i', 00H
	DB	'o', 00H, 'n', 00H, ':', 00H, ':', 00H, 'U', 00H, 'N', 00H, 'A'
	DB	00H, 'S', 00H, 'S', 00H, 'I', 00H, 'G', 00H, 'N', 00H, 'E', 00H
	DB	'D', 00H, '_', 00H, 'I', 00H, 'M', 00H, 'P', 00H, 'L', 00H, 'I'
	DB	00H, 'C', 00H, 'I', 00H, 'T', 00H, '_', 00H, 'B', 00H, 'Y', 00H
	DB	'T', 00H, 'E', 00H, 00H, 00H			; `string'
CONST	ENDS
;	COMDAT ?__LINE__Var@?1??findP@CollationRootElements@icu_56@@ABEHI@Z@4JA
_DATA	SEGMENT
?__LINE__Var@?1??findP@CollationRootElements@icu_56@@ABEHI@Z@4JA DD 011bH ; `icu_56::CollationRootElements::findP'::`2'::__LINE__Var
; Function compile flags: /Odtp /RTCsu /ZI
_DATA	ENDS
;	COMDAT ?findP@CollationRootElements@icu_56@@ABEHI@Z
_TEXT	SEGMENT
_j$6943 = -68						; size = 4
_q$6941 = -56						; size = 4
_i$6940 = -44						; size = 4
_limit$ = -32						; size = 4
_start$ = -20						; size = 4
_this$ = -8						; size = 4
_p$ = 8							; size = 4
?findP@CollationRootElements@icu_56@@ABEHI@Z PROC	; icu_56::CollationRootElements::findP, COMDAT
; _this$ = ecx
; Line 283
	push	ebp
	mov	ebp, esp
	sub	esp, 264				; 00000108H
	push	ebx
	push	esi
	push	edi
	push	ecx
	lea	edi, DWORD PTR [ebp-264]
	mov	ecx, 66					; 00000042H
	mov	eax, -858993460				; ccccccccH
	rep stosd
	pop	ecx
	mov	DWORD PTR _this$[ebp], ecx
; Line 286
	mov	eax, DWORD PTR _p$[ebp]
	shr	eax, 24					; 00000018H
	cmp	eax, 254				; 000000feH
	jne	SHORT $LN18@findP
	mov	ecx, DWORD PTR ?__LINE__Var@?1??findP@CollationRootElements@icu_56@@ABEHI@Z@4JA
	add	ecx, 3
	mov	esi, esp
	push	ecx
	push	OFFSET ??_C@_1HE@EMAINIOB@?$AAd?$AA?3?$AA?2?$AAm?$AAo?$AAz?$AAi?$AAl?$AAl?$AAa?$AA?2?$AAi?$AAn?$AAt?$AAl?$AA?2?$AAi?$AAc?$AAu?$AA?2?$AAs?$AAo?$AAu?$AAr?$AAc?$AAe?$AA?2?$AAi?$AA1?$AA8?$AAn?$AA?2@
	push	OFFSET ??_C@_1GC@KNJCIHB@?$AA?$CI?$AAp?$AA?5?$AA?$DO?$AA?$DO?$AA?5?$AA2?$AA4?$AA?$CJ?$AA?5?$AA?$CB?$AA?$DN?$AA?5?$AAC?$AAo?$AAl?$AAl?$AAa?$AAt?$AAi?$AAo?$AAn?$AA?3?$AA?3?$AAU?$AAN?$AAA?$AAS?$AAS?$AAI?$AAG?$AAN@
	call	DWORD PTR __imp___wassert
	add	esp, 12					; 0000000cH
	cmp	esi, esp
	call	__RTC_CheckEsp
$LN18@findP:
; Line 288
	mov	eax, DWORD PTR _this$[ebp]
	mov	ecx, DWORD PTR [eax]
	mov	edx, DWORD PTR [ecx+8]
	mov	DWORD PTR _start$[ebp], edx
; Line 289
	mov	eax, DWORD PTR _this$[ebp]
	mov	ecx, DWORD PTR [eax]
	mov	edx, DWORD PTR _start$[ebp]
	mov	eax, DWORD PTR _p$[ebp]
	cmp	eax, DWORD PTR [ecx+edx*4]
	jae	SHORT $LN19@findP
	mov	ecx, DWORD PTR ?__LINE__Var@?1??findP@CollationRootElements@icu_56@@ABEHI@Z@4JA
	add	ecx, 6
	mov	esi, esp
	push	ecx
	push	OFFSET ??_C@_1HE@EMAINIOB@?$AAd?$AA?3?$AA?2?$AAm?$AAo?$AAz?$AAi?$AAl?$AAl?$AAa?$AA?2?$AAi?$AAn?$AAt?$AAl?$AA?2?$AAi?$AAc?$AAu?$AA?2?$AAs?$AAo?$AAu?$AAr?$AAc?$AAe?$AA?2?$AAi?$AA1?$AA8?$AAn?$AA?2@
	push	OFFSET ??_C@_1CK@CGEMKIBJ@?$AAp?$AA?5?$AA?$DO?$AA?$DN?$AA?5?$AAe?$AAl?$AAe?$AAm?$AAe?$AAn?$AAt?$AAs?$AA?$FL?$AAs?$AAt?$AAa?$AAr?$AAt?$AA?$FN?$AA?$AA@
	call	DWORD PTR __imp___wassert
	add	esp, 12					; 0000000cH
	cmp	esi, esp
	call	__RTC_CheckEsp
$LN19@findP:
; Line 290
	mov	eax, DWORD PTR _this$[ebp]
	mov	ecx, DWORD PTR [eax+4]
	sub	ecx, 1
	mov	DWORD PTR _limit$[ebp], ecx
; Line 291
	mov	eax, DWORD PTR _this$[ebp]
	mov	ecx, DWORD PTR [eax]
	mov	edx, DWORD PTR _limit$[ebp]
	cmp	DWORD PTR [ecx+edx*4], -256		; ffffff00H
	jae	SHORT $LN20@findP
	mov	eax, DWORD PTR ?__LINE__Var@?1??findP@CollationRootElements@icu_56@@ABEHI@Z@4JA
	add	eax, 8
	mov	esi, esp
	push	eax
	push	OFFSET ??_C@_1HE@EMAINIOB@?$AAd?$AA?3?$AA?2?$AAm?$AAo?$AAz?$AAi?$AAl?$AAl?$AAa?$AA?2?$AAi?$AAn?$AAt?$AAl?$AA?2?$AAi?$AAc?$AAu?$AA?2?$AAs?$AAo?$AAu?$AAr?$AAc?$AAe?$AA?2?$AAi?$AA1?$AA8?$AAn?$AA?2@
	push	OFFSET ??_C@_1EI@LHMKEHGP@?$AAe?$AAl?$AAe?$AAm?$AAe?$AAn?$AAt?$AAs?$AA?$FL?$AAl?$AAi?$AAm?$AAi?$AAt?$AA?$FN?$AA?5?$AA?$DO?$AA?$DN?$AA?5?$AAP?$AAR?$AAI?$AAM?$AAA?$AAR?$AAY?$AA_?$AAS?$AAE?$AAN?$AAT?$AAI@
	call	DWORD PTR __imp___wassert
	add	esp, 12					; 0000000cH
	cmp	esi, esp
	call	__RTC_CheckEsp
$LN20@findP:
; Line 292
	mov	eax, DWORD PTR _this$[ebp]
	mov	ecx, DWORD PTR [eax]
	mov	edx, DWORD PTR _limit$[ebp]
	mov	eax, DWORD PTR _p$[ebp]
	cmp	eax, DWORD PTR [ecx+edx*4]
	jb	SHORT $LN15@findP
	mov	ecx, DWORD PTR ?__LINE__Var@?1??findP@CollationRootElements@icu_56@@ABEHI@Z@4JA
	add	ecx, 9
	mov	esi, esp
	push	ecx
	push	OFFSET ??_C@_1HE@EMAINIOB@?$AAd?$AA?3?$AA?2?$AAm?$AAo?$AAz?$AAi?$AAl?$AAl?$AAa?$AA?2?$AAi?$AAn?$AAt?$AAl?$AA?2?$AAi?$AAc?$AAu?$AA?2?$AAs?$AAo?$AAu?$AAr?$AAc?$AAe?$AA?2?$AAi?$AA1?$AA8?$AAn?$AA?2@
	push	OFFSET ??_C@_1CI@FGNKNHAG@?$AAp?$AA?5?$AA?$DM?$AA?5?$AAe?$AAl?$AAe?$AAm?$AAe?$AAn?$AAt?$AAs?$AA?$FL?$AAl?$AAi?$AAm?$AAi?$AAt?$AA?$FN?$AA?$AA@
	call	DWORD PTR __imp___wassert
	add	esp, 12					; 0000000cH
	cmp	esi, esp
	call	__RTC_CheckEsp
$LN15@findP:
; Line 293
	mov	eax, DWORD PTR _start$[ebp]
	add	eax, 1
	cmp	eax, DWORD PTR _limit$[ebp]
	jge	$LN14@findP
; Line 296
	mov	eax, DWORD PTR _start$[ebp]
	add	eax, DWORD PTR _limit$[ebp]
	cdq
	sub	eax, edx
	sar	eax, 1
	mov	DWORD PTR _i$6940[ebp], eax
; Line 297
	mov	eax, DWORD PTR _this$[ebp]
	mov	ecx, DWORD PTR [eax]
	mov	edx, DWORD PTR _i$6940[ebp]
	mov	eax, DWORD PTR [ecx+edx*4]
	mov	DWORD PTR _q$6941[ebp], eax
; Line 298
	mov	eax, DWORD PTR _q$6941[ebp]
	and	eax, 128				; 00000080H
	je	$LN13@findP
; Line 300
	mov	eax, DWORD PTR _i$6940[ebp]
	add	eax, 1
	mov	DWORD PTR _j$6943[ebp], eax
$LN12@findP:
; Line 302
	mov	eax, DWORD PTR _j$6943[ebp]
	cmp	eax, DWORD PTR _limit$[ebp]
	jne	SHORT $LN10@findP
	jmp	SHORT $LN11@findP
$LN10@findP:
; Line 303
	mov	eax, DWORD PTR _this$[ebp]
	mov	ecx, DWORD PTR [eax]
	mov	edx, DWORD PTR _j$6943[ebp]
	mov	eax, DWORD PTR [ecx+edx*4]
	mov	DWORD PTR _q$6941[ebp], eax
; Line 304
	mov	eax, DWORD PTR _q$6941[ebp]
	and	eax, 128				; 00000080H
	jne	SHORT $LN9@findP
; Line 305
	mov	eax, DWORD PTR _j$6943[ebp]
	mov	DWORD PTR _i$6940[ebp], eax
; Line 306
	jmp	SHORT $LN11@findP
$LN9@findP:
; Line 308
	mov	eax, DWORD PTR _j$6943[ebp]
	add	eax, 1
	mov	DWORD PTR _j$6943[ebp], eax
; Line 309
	jmp	SHORT $LN12@findP
$LN11@findP:
; Line 310
	mov	eax, DWORD PTR _q$6941[ebp]
	and	eax, 128				; 00000080H
	je	SHORT $LN13@findP
; Line 312
	mov	eax, DWORD PTR _i$6940[ebp]
	sub	eax, 1
	mov	DWORD PTR _j$6943[ebp], eax
$LN7@findP:
; Line 314
	mov	eax, DWORD PTR _j$6943[ebp]
	cmp	eax, DWORD PTR _start$[ebp]
	jne	SHORT $LN5@findP
	jmp	SHORT $LN6@findP
$LN5@findP:
; Line 315
	mov	eax, DWORD PTR _this$[ebp]
	mov	ecx, DWORD PTR [eax]
	mov	edx, DWORD PTR _j$6943[ebp]
	mov	eax, DWORD PTR [ecx+edx*4]
	mov	DWORD PTR _q$6941[ebp], eax
; Line 316
	mov	eax, DWORD PTR _q$6941[ebp]
	and	eax, 128				; 00000080H
	jne	SHORT $LN4@findP
; Line 317
	mov	eax, DWORD PTR _j$6943[ebp]
	mov	DWORD PTR _i$6940[ebp], eax
; Line 318
	jmp	SHORT $LN6@findP
$LN4@findP:
; Line 320
	mov	eax, DWORD PTR _j$6943[ebp]
	sub	eax, 1
	mov	DWORD PTR _j$6943[ebp], eax
; Line 321
	jmp	SHORT $LN7@findP
$LN6@findP:
; Line 322
	mov	eax, DWORD PTR _q$6941[ebp]
	and	eax, 128				; 00000080H
	je	SHORT $LN13@findP
; Line 324
	jmp	SHORT $LN14@findP
$LN13@findP:
; Line 328
	mov	eax, DWORD PTR _q$6941[ebp]
	and	eax, -256				; ffffff00H
	cmp	DWORD PTR _p$[ebp], eax
	jae	SHORT $LN2@findP
; Line 329
	mov	eax, DWORD PTR _i$6940[ebp]
	mov	DWORD PTR _limit$[ebp], eax
; Line 330
	jmp	SHORT $LN1@findP
$LN2@findP:
; Line 331
	mov	eax, DWORD PTR _i$6940[ebp]
	mov	DWORD PTR _start$[ebp], eax
$LN1@findP:
; Line 333
	jmp	$LN15@findP
$LN14@findP:
; Line 334
	mov	eax, DWORD PTR _start$[ebp]
; Line 335
	pop	edi
	pop	esi
	pop	ebx
	add	esp, 264				; 00000108H
	cmp	ebp, esp
	call	__RTC_CheckEsp
	mov	esp, ebp
	pop	ebp
	ret	4
?findP@CollationRootElements@icu_56@@ABEHI@Z ENDP	; icu_56::CollationRootElements::findP
_TEXT	ENDS
END
