; Listing generated by Microsoft (R) Optimizing Compiler Version 16.00.40219.01 

	TITLE	D:\mozilla\intl\icu\source\i18n\coll.cpp
	.686P
	.XMM
	include listing.inc
	.model	flat

INCLUDELIB MSVCRTD
INCLUDELIB OLDNAMES

PUBLIC	??_C@_05ODNOIFML@digit?$AA@			; `string'
PUBLIC	??_C@_08JLPCGLMH@currency?$AA@			; `string'
PUBLIC	??_C@_06OJHAJCPM@symbol?$AA@			; `string'
PUBLIC	??_C@_05KOBGHFJJ@punct?$AA@			; `string'
PUBLIC	??_C@_05OLNILLAB@space?$AA@			; `string'
PUBLIC	??_C@_05NECKJAMC@upper?$AA@			; `string'
PUBLIC	??_C@_05IPJEPLHL@lower?$AA@			; `string'
PUBLIC	??_C@_0O@ELFFADHH@non?9ignorable?$AA@		; `string'
PUBLIC	??_C@_07JCACPILL@shifted?$AA@			; `string'
PUBLIC	??_C@_03ICICOMAL@yes?$AA@			; `string'
PUBLIC	??_C@_02KAJCLHKP@no?$AA@			; `string'
PUBLIC	??_C@_09NONFHGEG@identical?$AA@			; `string'
PUBLIC	??_C@_0L@ELMCGPDC@quaternary?$AA@		; `string'
PUBLIC	??_C@_08HJMGKCFJ@tertiary?$AA@			; `string'
PUBLIC	??_C@_09EADLKHON@secondary?$AA@			; `string'
PUBLIC	??_C@_07CJDBHDIN@primary?$AA@			; `string'
PUBLIC	??_C@_0L@GIOKPIFB@colNumeric?$AA@		; `string'
PUBLIC	??_C@_0BB@GEHAKMHK@colNormalization?$AA@	; `string'
PUBLIC	??_C@_0N@NBABLAID@colAlternate?$AA@		; `string'
PUBLIC	??_C@_0N@BHIPNKLP@colCaseFirst?$AA@		; `string'
PUBLIC	??_C@_0N@GGDGMEBE@colCaseLevel?$AA@		; `string'
PUBLIC	??_C@_0N@HNLHEHAM@colBackwards?$AA@		; `string'
PUBLIC	??_C@_0M@ONDFJLOP@colStrength?$AA@		; `string'
PUBLIC	?value@?$integral_constant@_N$0A@@tr1@std@@2_NB	; std::tr1::integral_constant<bool,0>::value
PUBLIC	?value@?$integral_constant@_N$00@tr1@std@@2_NB	; std::tr1::integral_constant<bool,1>::value
PUBLIC	?value@?$integral_constant@I$0A@@tr1@std@@2IB	; std::tr1::integral_constant<unsigned int,0>::value
PUBLIC	?_Rank@?$_Arithmetic_traits@_N@std@@2HB		; std::_Arithmetic_traits<bool>::_Rank
PUBLIC	?_Rank@?$_Arithmetic_traits@D@std@@2HB		; std::_Arithmetic_traits<char>::_Rank
PUBLIC	?_Rank@?$_Arithmetic_traits@C@std@@2HB		; std::_Arithmetic_traits<signed char>::_Rank
PUBLIC	?_Rank@?$_Arithmetic_traits@E@std@@2HB		; std::_Arithmetic_traits<unsigned char>::_Rank
PUBLIC	?_Rank@?$_Arithmetic_traits@F@std@@2HB		; std::_Arithmetic_traits<short>::_Rank
PUBLIC	?_Rank@?$_Arithmetic_traits@G@std@@2HB		; std::_Arithmetic_traits<unsigned short>::_Rank
PUBLIC	?_Rank@?$_Arithmetic_traits@H@std@@2HB		; std::_Arithmetic_traits<int>::_Rank
PUBLIC	?_Rank@?$_Arithmetic_traits@I@std@@2HB		; std::_Arithmetic_traits<unsigned int>::_Rank
PUBLIC	?_Rank@?$_Arithmetic_traits@J@std@@2HB		; std::_Arithmetic_traits<long>::_Rank
PUBLIC	?_Rank@?$_Arithmetic_traits@K@std@@2HB		; std::_Arithmetic_traits<unsigned long>::_Rank
PUBLIC	?_Rank@?$_Arithmetic_traits@_J@std@@2HB		; std::_Arithmetic_traits<__int64>::_Rank
PUBLIC	?_Rank@?$_Arithmetic_traits@_K@std@@2HB		; std::_Arithmetic_traits<unsigned __int64>::_Rank
PUBLIC	?_Rank@?$_Arithmetic_traits@M@std@@2HB		; std::_Arithmetic_traits<float>::_Rank
PUBLIC	?_Rank@?$_Arithmetic_traits@N@std@@2HB		; std::_Arithmetic_traits<double>::_Rank
PUBLIC	?_Rank@?$_Arithmetic_traits@O@std@@2HB		; std::_Arithmetic_traits<long double>::_Rank
PUBLIC	?collate@?$_Locbase@H@std@@2HB			; std::_Locbase<int>::collate
PUBLIC	?ctype@?$_Locbase@H@std@@2HB			; std::_Locbase<int>::ctype
PUBLIC	?monetary@?$_Locbase@H@std@@2HB			; std::_Locbase<int>::monetary
PUBLIC	?numeric@?$_Locbase@H@std@@2HB			; std::_Locbase<int>::numeric
PUBLIC	?time@?$_Locbase@H@std@@2HB			; std::_Locbase<int>::time
PUBLIC	?messages@?$_Locbase@H@std@@2HB			; std::_Locbase<int>::messages
PUBLIC	?all@?$_Locbase@H@std@@2HB			; std::_Locbase<int>::all
PUBLIC	?none@?$_Locbase@H@std@@2HB			; std::_Locbase<int>::none
PUBLIC	?skipws@?$_Iosb@H@std@@2W4_Fmtflags@12@B	; std::_Iosb<int>::skipws
PUBLIC	?unitbuf@?$_Iosb@H@std@@2W4_Fmtflags@12@B	; std::_Iosb<int>::unitbuf
PUBLIC	?uppercase@?$_Iosb@H@std@@2W4_Fmtflags@12@B	; std::_Iosb<int>::uppercase
PUBLIC	?showbase@?$_Iosb@H@std@@2W4_Fmtflags@12@B	; std::_Iosb<int>::showbase
PUBLIC	?showpoint@?$_Iosb@H@std@@2W4_Fmtflags@12@B	; std::_Iosb<int>::showpoint
PUBLIC	?showpos@?$_Iosb@H@std@@2W4_Fmtflags@12@B	; std::_Iosb<int>::showpos
PUBLIC	?left@?$_Iosb@H@std@@2W4_Fmtflags@12@B		; std::_Iosb<int>::left
PUBLIC	?right@?$_Iosb@H@std@@2W4_Fmtflags@12@B		; std::_Iosb<int>::right
PUBLIC	?internal@?$_Iosb@H@std@@2W4_Fmtflags@12@B	; std::_Iosb<int>::internal
PUBLIC	?dec@?$_Iosb@H@std@@2W4_Fmtflags@12@B		; std::_Iosb<int>::dec
PUBLIC	?oct@?$_Iosb@H@std@@2W4_Fmtflags@12@B		; std::_Iosb<int>::oct
PUBLIC	?hex@?$_Iosb@H@std@@2W4_Fmtflags@12@B		; std::_Iosb<int>::hex
PUBLIC	?scientific@?$_Iosb@H@std@@2W4_Fmtflags@12@B	; std::_Iosb<int>::scientific
PUBLIC	?fixed@?$_Iosb@H@std@@2W4_Fmtflags@12@B		; std::_Iosb<int>::fixed
PUBLIC	?hexfloat@?$_Iosb@H@std@@2W4_Fmtflags@12@B	; std::_Iosb<int>::hexfloat
PUBLIC	?boolalpha@?$_Iosb@H@std@@2W4_Fmtflags@12@B	; std::_Iosb<int>::boolalpha
PUBLIC	?_Stdio@?$_Iosb@H@std@@2W4_Fmtflags@12@B	; std::_Iosb<int>::_Stdio
PUBLIC	?adjustfield@?$_Iosb@H@std@@2W4_Fmtflags@12@B	; std::_Iosb<int>::adjustfield
PUBLIC	?basefield@?$_Iosb@H@std@@2W4_Fmtflags@12@B	; std::_Iosb<int>::basefield
PUBLIC	?floatfield@?$_Iosb@H@std@@2W4_Fmtflags@12@B	; std::_Iosb<int>::floatfield
PUBLIC	?goodbit@?$_Iosb@H@std@@2W4_Iostate@12@B	; std::_Iosb<int>::goodbit
PUBLIC	?eofbit@?$_Iosb@H@std@@2W4_Iostate@12@B		; std::_Iosb<int>::eofbit
PUBLIC	?failbit@?$_Iosb@H@std@@2W4_Iostate@12@B	; std::_Iosb<int>::failbit
PUBLIC	?badbit@?$_Iosb@H@std@@2W4_Iostate@12@B		; std::_Iosb<int>::badbit
PUBLIC	?_Hardfail@?$_Iosb@H@std@@2W4_Iostate@12@B	; std::_Iosb<int>::_Hardfail
PUBLIC	?in@?$_Iosb@H@std@@2W4_Openmode@12@B		; std::_Iosb<int>::in
PUBLIC	?out@?$_Iosb@H@std@@2W4_Openmode@12@B		; std::_Iosb<int>::out
PUBLIC	?ate@?$_Iosb@H@std@@2W4_Openmode@12@B		; std::_Iosb<int>::ate
PUBLIC	?app@?$_Iosb@H@std@@2W4_Openmode@12@B		; std::_Iosb<int>::app
PUBLIC	?trunc@?$_Iosb@H@std@@2W4_Openmode@12@B		; std::_Iosb<int>::trunc
PUBLIC	?_Nocreate@?$_Iosb@H@std@@2W4_Openmode@12@B	; std::_Iosb<int>::_Nocreate
PUBLIC	?_Noreplace@?$_Iosb@H@std@@2W4_Openmode@12@B	; std::_Iosb<int>::_Noreplace
PUBLIC	?binary@?$_Iosb@H@std@@2W4_Openmode@12@B	; std::_Iosb<int>::binary
PUBLIC	?beg@?$_Iosb@H@std@@2W4_Seekdir@12@B		; std::_Iosb<int>::beg
PUBLIC	?cur@?$_Iosb@H@std@@2W4_Seekdir@12@B		; std::_Iosb<int>::cur
PUBLIC	?end@?$_Iosb@H@std@@2W4_Seekdir@12@B		; std::_Iosb<int>::end
PUBLIC	?TERMINATOR_BYTE@Collation@icu_56@@2EB		; icu_56::Collation::TERMINATOR_BYTE
PUBLIC	?LEVEL_SEPARATOR_BYTE@Collation@icu_56@@2EB	; icu_56::Collation::LEVEL_SEPARATOR_BYTE
PUBLIC	?BEFORE_WEIGHT16@Collation@icu_56@@2IB		; icu_56::Collation::BEFORE_WEIGHT16
PUBLIC	?MERGE_SEPARATOR_BYTE@Collation@icu_56@@2EB	; icu_56::Collation::MERGE_SEPARATOR_BYTE
PUBLIC	?MERGE_SEPARATOR_PRIMARY@Collation@icu_56@@2IB	; icu_56::Collation::MERGE_SEPARATOR_PRIMARY
PUBLIC	?MERGE_SEPARATOR_CE32@Collation@icu_56@@2IB	; icu_56::Collation::MERGE_SEPARATOR_CE32
PUBLIC	?PRIMARY_COMPRESSION_LOW_BYTE@Collation@icu_56@@2EB ; icu_56::Collation::PRIMARY_COMPRESSION_LOW_BYTE
PUBLIC	?PRIMARY_COMPRESSION_HIGH_BYTE@Collation@icu_56@@2EB ; icu_56::Collation::PRIMARY_COMPRESSION_HIGH_BYTE
PUBLIC	?COMMON_BYTE@Collation@icu_56@@2EB		; icu_56::Collation::COMMON_BYTE
PUBLIC	?COMMON_WEIGHT16@Collation@icu_56@@2IB		; icu_56::Collation::COMMON_WEIGHT16
PUBLIC	?COMMON_SECONDARY_CE@Collation@icu_56@@2IB	; icu_56::Collation::COMMON_SECONDARY_CE
PUBLIC	?COMMON_TERTIARY_CE@Collation@icu_56@@2IB	; icu_56::Collation::COMMON_TERTIARY_CE
PUBLIC	?COMMON_SEC_AND_TER_CE@Collation@icu_56@@2IB	; icu_56::Collation::COMMON_SEC_AND_TER_CE
PUBLIC	?SECONDARY_MASK@Collation@icu_56@@2IB		; icu_56::Collation::SECONDARY_MASK
PUBLIC	?CASE_MASK@Collation@icu_56@@2IB		; icu_56::Collation::CASE_MASK
PUBLIC	?SECONDARY_AND_CASE_MASK@Collation@icu_56@@2IB	; icu_56::Collation::SECONDARY_AND_CASE_MASK
PUBLIC	?ONLY_TERTIARY_MASK@Collation@icu_56@@2IB	; icu_56::Collation::ONLY_TERTIARY_MASK
PUBLIC	?ONLY_SEC_TER_MASK@Collation@icu_56@@2IB	; icu_56::Collation::ONLY_SEC_TER_MASK
PUBLIC	?CASE_AND_TERTIARY_MASK@Collation@icu_56@@2IB	; icu_56::Collation::CASE_AND_TERTIARY_MASK
PUBLIC	?QUATERNARY_MASK@Collation@icu_56@@2IB		; icu_56::Collation::QUATERNARY_MASK
PUBLIC	?CASE_AND_QUATERNARY_MASK@Collation@icu_56@@2IB	; icu_56::Collation::CASE_AND_QUATERNARY_MASK
PUBLIC	?UNASSIGNED_IMPLICIT_BYTE@Collation@icu_56@@2EB	; icu_56::Collation::UNASSIGNED_IMPLICIT_BYTE
PUBLIC	?FIRST_UNASSIGNED_PRIMARY@Collation@icu_56@@2IB	; icu_56::Collation::FIRST_UNASSIGNED_PRIMARY
PUBLIC	?TRAIL_WEIGHT_BYTE@Collation@icu_56@@2EB	; icu_56::Collation::TRAIL_WEIGHT_BYTE
PUBLIC	?FIRST_TRAILING_PRIMARY@Collation@icu_56@@2IB	; icu_56::Collation::FIRST_TRAILING_PRIMARY
PUBLIC	?MAX_PRIMARY@Collation@icu_56@@2IB		; icu_56::Collation::MAX_PRIMARY
PUBLIC	?MAX_REGULAR_CE32@Collation@icu_56@@2IB		; icu_56::Collation::MAX_REGULAR_CE32
PUBLIC	?FFFD_PRIMARY@Collation@icu_56@@2IB		; icu_56::Collation::FFFD_PRIMARY
PUBLIC	?FFFD_CE32@Collation@icu_56@@2IB		; icu_56::Collation::FFFD_CE32
PUBLIC	?SPECIAL_CE32_LOW_BYTE@Collation@icu_56@@2EB	; icu_56::Collation::SPECIAL_CE32_LOW_BYTE
PUBLIC	?FALLBACK_CE32@Collation@icu_56@@2IB		; icu_56::Collation::FALLBACK_CE32
PUBLIC	?LONG_PRIMARY_CE32_LOW_BYTE@Collation@icu_56@@2EB ; icu_56::Collation::LONG_PRIMARY_CE32_LOW_BYTE
PUBLIC	?UNASSIGNED_CE32@Collation@icu_56@@2IB		; icu_56::Collation::UNASSIGNED_CE32
PUBLIC	?NO_CE32@Collation@icu_56@@2IB			; icu_56::Collation::NO_CE32
PUBLIC	?NO_CE_PRIMARY@Collation@icu_56@@2IB		; icu_56::Collation::NO_CE_PRIMARY
PUBLIC	?NO_CE_WEIGHT16@Collation@icu_56@@2IB		; icu_56::Collation::NO_CE_WEIGHT16
PUBLIC	?NO_CE@Collation@icu_56@@2_JB			; icu_56::Collation::NO_CE
PUBLIC	?NO_LEVEL_FLAG@Collation@icu_56@@2IB		; icu_56::Collation::NO_LEVEL_FLAG
PUBLIC	?PRIMARY_LEVEL_FLAG@Collation@icu_56@@2IB	; icu_56::Collation::PRIMARY_LEVEL_FLAG
PUBLIC	?SECONDARY_LEVEL_FLAG@Collation@icu_56@@2IB	; icu_56::Collation::SECONDARY_LEVEL_FLAG
PUBLIC	?CASE_LEVEL_FLAG@Collation@icu_56@@2IB		; icu_56::Collation::CASE_LEVEL_FLAG
PUBLIC	?TERTIARY_LEVEL_FLAG@Collation@icu_56@@2IB	; icu_56::Collation::TERTIARY_LEVEL_FLAG
PUBLIC	?QUATERNARY_LEVEL_FLAG@Collation@icu_56@@2IB	; icu_56::Collation::QUATERNARY_LEVEL_FLAG
PUBLIC	?IDENTICAL_LEVEL_FLAG@Collation@icu_56@@2IB	; icu_56::Collation::IDENTICAL_LEVEL_FLAG
PUBLIC	?ZERO_LEVEL_FLAG@Collation@icu_56@@2IB		; icu_56::Collation::ZERO_LEVEL_FLAG
PUBLIC	?MAX_EXPANSION_LENGTH@Collation@icu_56@@2HB	; icu_56::Collation::MAX_EXPANSION_LENGTH
PUBLIC	?MAX_INDEX@Collation@icu_56@@2HB		; icu_56::Collation::MAX_INDEX
PUBLIC	?CONTRACT_SINGLE_CP_NO_MATCH@Collation@icu_56@@2IB ; icu_56::Collation::CONTRACT_SINGLE_CP_NO_MATCH
PUBLIC	?CONTRACT_NEXT_CCC@Collation@icu_56@@2IB	; icu_56::Collation::CONTRACT_NEXT_CCC
PUBLIC	?CONTRACT_TRAILING_CCC@Collation@icu_56@@2IB	; icu_56::Collation::CONTRACT_TRAILING_CCC
PUBLIC	?HANGUL_NO_SPECIAL_JAMO@Collation@icu_56@@2IB	; icu_56::Collation::HANGUL_NO_SPECIAL_JAMO
PUBLIC	?LEAD_ALL_UNASSIGNED@Collation@icu_56@@2IB	; icu_56::Collation::LEAD_ALL_UNASSIGNED
PUBLIC	?LEAD_ALL_FALLBACK@Collation@icu_56@@2IB	; icu_56::Collation::LEAD_ALL_FALLBACK
PUBLIC	?LEAD_MIXED@Collation@icu_56@@2IB		; icu_56::Collation::LEAD_MIXED
PUBLIC	?LEAD_TYPE_MASK@Collation@icu_56@@2IB		; icu_56::Collation::LEAD_TYPE_MASK
PUBLIC	?JAMO_CE32S_LENGTH@CollationData@icu_56@@2HB	; icu_56::CollationData::JAMO_CE32S_LENGTH
PUBLIC	?CHECK_FCD@CollationSettings@icu_56@@2HB	; icu_56::CollationSettings::CHECK_FCD
PUBLIC	?NUMERIC@CollationSettings@icu_56@@2HB		; icu_56::CollationSettings::NUMERIC
PUBLIC	?SHIFTED@CollationSettings@icu_56@@2HB		; icu_56::CollationSettings::SHIFTED
PUBLIC	?ALTERNATE_MASK@CollationSettings@icu_56@@2HB	; icu_56::CollationSettings::ALTERNATE_MASK
PUBLIC	?MAX_VARIABLE_SHIFT@CollationSettings@icu_56@@2HB ; icu_56::CollationSettings::MAX_VARIABLE_SHIFT
PUBLIC	?MAX_VARIABLE_MASK@CollationSettings@icu_56@@2HB ; icu_56::CollationSettings::MAX_VARIABLE_MASK
PUBLIC	?UPPER_FIRST@CollationSettings@icu_56@@2HB	; icu_56::CollationSettings::UPPER_FIRST
PUBLIC	?CASE_FIRST@CollationSettings@icu_56@@2HB	; icu_56::CollationSettings::CASE_FIRST
PUBLIC	?CASE_FIRST_AND_UPPER_MASK@CollationSettings@icu_56@@2HB ; icu_56::CollationSettings::CASE_FIRST_AND_UPPER_MASK
PUBLIC	?CASE_LEVEL@CollationSettings@icu_56@@2HB	; icu_56::CollationSettings::CASE_LEVEL
PUBLIC	?BACKWARD_SECONDARY@CollationSettings@icu_56@@2HB ; icu_56::CollationSettings::BACKWARD_SECONDARY
PUBLIC	?STRENGTH_SHIFT@CollationSettings@icu_56@@2HB	; icu_56::CollationSettings::STRENGTH_SHIFT
PUBLIC	?STRENGTH_MASK@CollationSettings@icu_56@@2HB	; icu_56::CollationSettings::STRENGTH_MASK
PUBLIC	?TRIED_SEARCH@CollationLoader@icu_56@@0IB	; icu_56::CollationLoader::TRIED_SEARCH
PUBLIC	?TRIED_DEFAULT@CollationLoader@icu_56@@0IB	; icu_56::CollationLoader::TRIED_DEFAULT
PUBLIC	?TRIED_STANDARD@CollationLoader@icu_56@@0IB	; icu_56::CollationLoader::TRIED_STANDARD
_BSS	SEGMENT
_availableLocaleList DD 01H DUP (?)
_gService DD	01H DUP (?)
_gServiceInitOnce DQ 01H DUP (?)
?classID@?1??getStaticClassID@CollationLocaleListEnumeration@icu_56@@SAPAXXZ@4DA DB 01H DUP (?) ; `icu_56::CollationLocaleListEnumeration::getStaticClassID'::`2'::classID
_BSS	ENDS
_DATA	SEGMENT
_collReorderCodes DD FLAT:??_C@_05OLNILLAB@space?$AA@
	DD	FLAT:??_C@_05KOBGHFJJ@punct?$AA@
	DD	FLAT:??_C@_06OJHAJCPM@symbol?$AA@
	DD	FLAT:??_C@_08JLPCGLMH@currency?$AA@
	DD	FLAT:??_C@_05ODNOIFML@digit?$AA@
_DATA	ENDS
;	COMDAT ??_C@_05ODNOIFML@digit?$AA@
CONST	SEGMENT
??_C@_05ODNOIFML@digit?$AA@ DB 'digit', 00H		; `string'
CONST	ENDS
;	COMDAT ??_C@_08JLPCGLMH@currency?$AA@
CONST	SEGMENT
??_C@_08JLPCGLMH@currency?$AA@ DB 'currency', 00H	; `string'
CONST	ENDS
;	COMDAT ??_C@_06OJHAJCPM@symbol?$AA@
CONST	SEGMENT
??_C@_06OJHAJCPM@symbol?$AA@ DB 'symbol', 00H		; `string'
CONST	ENDS
;	COMDAT ??_C@_05KOBGHFJJ@punct?$AA@
CONST	SEGMENT
??_C@_05KOBGHFJJ@punct?$AA@ DB 'punct', 00H		; `string'
CONST	ENDS
;	COMDAT ??_C@_05OLNILLAB@space?$AA@
CONST	SEGMENT
??_C@_05OLNILLAB@space?$AA@ DB 'space', 00H		; `string'
CONST	ENDS
;	COMDAT ??_C@_05NECKJAMC@upper?$AA@
CONST	SEGMENT
??_C@_05NECKJAMC@upper?$AA@ DB 'upper', 00H		; `string'
CONST	ENDS
;	COMDAT ??_C@_05IPJEPLHL@lower?$AA@
CONST	SEGMENT
??_C@_05IPJEPLHL@lower?$AA@ DB 'lower', 00H		; `string'
CONST	ENDS
;	COMDAT ??_C@_0O@ELFFADHH@non?9ignorable?$AA@
CONST	SEGMENT
??_C@_0O@ELFFADHH@non?9ignorable?$AA@ DB 'non-ignorable', 00H ; `string'
CONST	ENDS
;	COMDAT ??_C@_07JCACPILL@shifted?$AA@
CONST	SEGMENT
??_C@_07JCACPILL@shifted?$AA@ DB 'shifted', 00H		; `string'
CONST	ENDS
;	COMDAT ??_C@_03ICICOMAL@yes?$AA@
CONST	SEGMENT
??_C@_03ICICOMAL@yes?$AA@ DB 'yes', 00H			; `string'
CONST	ENDS
;	COMDAT ??_C@_02KAJCLHKP@no?$AA@
CONST	SEGMENT
??_C@_02KAJCLHKP@no?$AA@ DB 'no', 00H			; `string'
CONST	ENDS
;	COMDAT ??_C@_09NONFHGEG@identical?$AA@
CONST	SEGMENT
??_C@_09NONFHGEG@identical?$AA@ DB 'identical', 00H	; `string'
CONST	ENDS
;	COMDAT ??_C@_0L@ELMCGPDC@quaternary?$AA@
CONST	SEGMENT
??_C@_0L@ELMCGPDC@quaternary?$AA@ DB 'quaternary', 00H	; `string'
CONST	ENDS
;	COMDAT ??_C@_08HJMGKCFJ@tertiary?$AA@
CONST	SEGMENT
??_C@_08HJMGKCFJ@tertiary?$AA@ DB 'tertiary', 00H	; `string'
CONST	ENDS
;	COMDAT ??_C@_09EADLKHON@secondary?$AA@
CONST	SEGMENT
??_C@_09EADLKHON@secondary?$AA@ DB 'secondary', 00H	; `string'
CONST	ENDS
;	COMDAT ??_C@_07CJDBHDIN@primary?$AA@
CONST	SEGMENT
??_C@_07CJDBHDIN@primary?$AA@ DB 'primary', 00H		; `string'
CONST	ENDS
CONST	SEGMENT
_collAttributes DD FLAT:??_C@_0M@ONDFJLOP@colStrength?$AA@
	DD	05H
	DD	FLAT:??_C@_0N@HNLHEHAM@colBackwards?$AA@
	DD	00H
	DD	FLAT:??_C@_0N@GGDGMEBE@colCaseLevel?$AA@
	DD	03H
	DD	FLAT:??_C@_0N@BHIPNKLP@colCaseFirst?$AA@
	DD	02H
	DD	FLAT:??_C@_0N@NBABLAID@colAlternate?$AA@
	DD	01H
	DD	FLAT:??_C@_0BB@GEHAKMHK@colNormalization?$AA@
	DD	04H
	DD	FLAT:??_C@_0L@GIOKPIFB@colNumeric?$AA@
	DD	07H
_collAttributeValues DD FLAT:??_C@_07CJDBHDIN@primary?$AA@
	DD	00H
	DD	FLAT:??_C@_09EADLKHON@secondary?$AA@
	DD	01H
	DD	FLAT:??_C@_08HJMGKCFJ@tertiary?$AA@
	DD	02H
	DD	FLAT:??_C@_0L@ELMCGPDC@quaternary?$AA@
	DD	03H
	DD	FLAT:??_C@_09NONFHGEG@identical?$AA@
	DD	0fH
	DD	FLAT:??_C@_02KAJCLHKP@no?$AA@
	DD	010H
	DD	FLAT:??_C@_03ICICOMAL@yes?$AA@
	DD	011H
	DD	FLAT:??_C@_07JCACPILL@shifted?$AA@
	DD	014H
	DD	FLAT:??_C@_0O@ELFFADHH@non?9ignorable?$AA@
	DD	015H
	DD	FLAT:??_C@_05IPJEPLHL@lower?$AA@
	DD	018H
	DD	FLAT:??_C@_05NECKJAMC@upper?$AA@
	DD	019H
CONST	ENDS
;	COMDAT ??_C@_0L@GIOKPIFB@colNumeric?$AA@
CONST	SEGMENT
??_C@_0L@GIOKPIFB@colNumeric?$AA@ DB 'colNumeric', 00H	; `string'
CONST	ENDS
;	COMDAT ??_C@_0BB@GEHAKMHK@colNormalization?$AA@
CONST	SEGMENT
??_C@_0BB@GEHAKMHK@colNormalization?$AA@ DB 'colNormalization', 00H ; `string'
CONST	ENDS
;	COMDAT ??_C@_0N@NBABLAID@colAlternate?$AA@
CONST	SEGMENT
??_C@_0N@NBABLAID@colAlternate?$AA@ DB 'colAlternate', 00H ; `string'
CONST	ENDS
;	COMDAT ??_C@_0N@BHIPNKLP@colCaseFirst?$AA@
CONST	SEGMENT
??_C@_0N@BHIPNKLP@colCaseFirst?$AA@ DB 'colCaseFirst', 00H ; `string'
CONST	ENDS
;	COMDAT ??_C@_0N@GGDGMEBE@colCaseLevel?$AA@
CONST	SEGMENT
??_C@_0N@GGDGMEBE@colCaseLevel?$AA@ DB 'colCaseLevel', 00H ; `string'
CONST	ENDS
;	COMDAT ??_C@_0N@HNLHEHAM@colBackwards?$AA@
CONST	SEGMENT
??_C@_0N@HNLHEHAM@colBackwards?$AA@ DB 'colBackwards', 00H ; `string'
CONST	ENDS
;	COMDAT ??_C@_0M@ONDFJLOP@colStrength?$AA@
CONST	SEGMENT
??_C@_0M@ONDFJLOP@colStrength?$AA@ DB 'colStrength', 00H ; `string'
CONST	ENDS
;	COMDAT ?TRIED_STANDARD@CollationLoader@icu_56@@0IB
CONST	SEGMENT
?TRIED_STANDARD@CollationLoader@icu_56@@0IB DD 04H	; icu_56::CollationLoader::TRIED_STANDARD
CONST	ENDS
;	COMDAT ?TRIED_DEFAULT@CollationLoader@icu_56@@0IB
CONST	SEGMENT
?TRIED_DEFAULT@CollationLoader@icu_56@@0IB DD 02H	; icu_56::CollationLoader::TRIED_DEFAULT
CONST	ENDS
;	COMDAT ?TRIED_SEARCH@CollationLoader@icu_56@@0IB
CONST	SEGMENT
?TRIED_SEARCH@CollationLoader@icu_56@@0IB DD 01H	; icu_56::CollationLoader::TRIED_SEARCH
CONST	ENDS
;	COMDAT ?STRENGTH_MASK@CollationSettings@icu_56@@2HB
CONST	SEGMENT
?STRENGTH_MASK@CollationSettings@icu_56@@2HB DD 0f000H	; icu_56::CollationSettings::STRENGTH_MASK
CONST	ENDS
;	COMDAT ?STRENGTH_SHIFT@CollationSettings@icu_56@@2HB
CONST	SEGMENT
?STRENGTH_SHIFT@CollationSettings@icu_56@@2HB DD 0cH	; icu_56::CollationSettings::STRENGTH_SHIFT
CONST	ENDS
;	COMDAT ?BACKWARD_SECONDARY@CollationSettings@icu_56@@2HB
CONST	SEGMENT
?BACKWARD_SECONDARY@CollationSettings@icu_56@@2HB DD 0800H ; icu_56::CollationSettings::BACKWARD_SECONDARY
CONST	ENDS
;	COMDAT ?CASE_LEVEL@CollationSettings@icu_56@@2HB
CONST	SEGMENT
?CASE_LEVEL@CollationSettings@icu_56@@2HB DD 0400H	; icu_56::CollationSettings::CASE_LEVEL
CONST	ENDS
;	COMDAT ?CASE_FIRST_AND_UPPER_MASK@CollationSettings@icu_56@@2HB
CONST	SEGMENT
?CASE_FIRST_AND_UPPER_MASK@CollationSettings@icu_56@@2HB DD 0300H ; icu_56::CollationSettings::CASE_FIRST_AND_UPPER_MASK
CONST	ENDS
;	COMDAT ?CASE_FIRST@CollationSettings@icu_56@@2HB
CONST	SEGMENT
?CASE_FIRST@CollationSettings@icu_56@@2HB DD 0200H	; icu_56::CollationSettings::CASE_FIRST
CONST	ENDS
;	COMDAT ?UPPER_FIRST@CollationSettings@icu_56@@2HB
CONST	SEGMENT
?UPPER_FIRST@CollationSettings@icu_56@@2HB DD 0100H	; icu_56::CollationSettings::UPPER_FIRST
CONST	ENDS
;	COMDAT ?MAX_VARIABLE_MASK@CollationSettings@icu_56@@2HB
CONST	SEGMENT
?MAX_VARIABLE_MASK@CollationSettings@icu_56@@2HB DD 070H ; icu_56::CollationSettings::MAX_VARIABLE_MASK
CONST	ENDS
;	COMDAT ?MAX_VARIABLE_SHIFT@CollationSettings@icu_56@@2HB
CONST	SEGMENT
?MAX_VARIABLE_SHIFT@CollationSettings@icu_56@@2HB DD 04H ; icu_56::CollationSettings::MAX_VARIABLE_SHIFT
CONST	ENDS
;	COMDAT ?ALTERNATE_MASK@CollationSettings@icu_56@@2HB
CONST	SEGMENT
?ALTERNATE_MASK@CollationSettings@icu_56@@2HB DD 0cH	; icu_56::CollationSettings::ALTERNATE_MASK
CONST	ENDS
;	COMDAT ?SHIFTED@CollationSettings@icu_56@@2HB
CONST	SEGMENT
?SHIFTED@CollationSettings@icu_56@@2HB DD 04H		; icu_56::CollationSettings::SHIFTED
CONST	ENDS
;	COMDAT ?NUMERIC@CollationSettings@icu_56@@2HB
CONST	SEGMENT
?NUMERIC@CollationSettings@icu_56@@2HB DD 02H		; icu_56::CollationSettings::NUMERIC
CONST	ENDS
;	COMDAT ?CHECK_FCD@CollationSettings@icu_56@@2HB
CONST	SEGMENT
?CHECK_FCD@CollationSettings@icu_56@@2HB DD 01H		; icu_56::CollationSettings::CHECK_FCD
CONST	ENDS
;	COMDAT ?JAMO_CE32S_LENGTH@CollationData@icu_56@@2HB
CONST	SEGMENT
?JAMO_CE32S_LENGTH@CollationData@icu_56@@2HB DD 043H	; icu_56::CollationData::JAMO_CE32S_LENGTH
CONST	ENDS
;	COMDAT ?LEAD_TYPE_MASK@Collation@icu_56@@2IB
CONST	SEGMENT
?LEAD_TYPE_MASK@Collation@icu_56@@2IB DD 0300H		; icu_56::Collation::LEAD_TYPE_MASK
CONST	ENDS
;	COMDAT ?LEAD_MIXED@Collation@icu_56@@2IB
CONST	SEGMENT
?LEAD_MIXED@Collation@icu_56@@2IB DD 0200H		; icu_56::Collation::LEAD_MIXED
CONST	ENDS
;	COMDAT ?LEAD_ALL_FALLBACK@Collation@icu_56@@2IB
CONST	SEGMENT
?LEAD_ALL_FALLBACK@Collation@icu_56@@2IB DD 0100H	; icu_56::Collation::LEAD_ALL_FALLBACK
CONST	ENDS
;	COMDAT ?LEAD_ALL_UNASSIGNED@Collation@icu_56@@2IB
CONST	SEGMENT
?LEAD_ALL_UNASSIGNED@Collation@icu_56@@2IB DD 00H	; icu_56::Collation::LEAD_ALL_UNASSIGNED
CONST	ENDS
;	COMDAT ?HANGUL_NO_SPECIAL_JAMO@Collation@icu_56@@2IB
CONST	SEGMENT
?HANGUL_NO_SPECIAL_JAMO@Collation@icu_56@@2IB DD 0100H	; icu_56::Collation::HANGUL_NO_SPECIAL_JAMO
CONST	ENDS
;	COMDAT ?CONTRACT_TRAILING_CCC@Collation@icu_56@@2IB
CONST	SEGMENT
?CONTRACT_TRAILING_CCC@Collation@icu_56@@2IB DD 0400H	; icu_56::Collation::CONTRACT_TRAILING_CCC
CONST	ENDS
;	COMDAT ?CONTRACT_NEXT_CCC@Collation@icu_56@@2IB
CONST	SEGMENT
?CONTRACT_NEXT_CCC@Collation@icu_56@@2IB DD 0200H	; icu_56::Collation::CONTRACT_NEXT_CCC
CONST	ENDS
;	COMDAT ?CONTRACT_SINGLE_CP_NO_MATCH@Collation@icu_56@@2IB
CONST	SEGMENT
?CONTRACT_SINGLE_CP_NO_MATCH@Collation@icu_56@@2IB DD 0100H ; icu_56::Collation::CONTRACT_SINGLE_CP_NO_MATCH
CONST	ENDS
;	COMDAT ?MAX_INDEX@Collation@icu_56@@2HB
CONST	SEGMENT
?MAX_INDEX@Collation@icu_56@@2HB DD 07ffffH		; icu_56::Collation::MAX_INDEX
CONST	ENDS
;	COMDAT ?MAX_EXPANSION_LENGTH@Collation@icu_56@@2HB
CONST	SEGMENT
?MAX_EXPANSION_LENGTH@Collation@icu_56@@2HB DD 01fH	; icu_56::Collation::MAX_EXPANSION_LENGTH
CONST	ENDS
;	COMDAT ?ZERO_LEVEL_FLAG@Collation@icu_56@@2IB
CONST	SEGMENT
?ZERO_LEVEL_FLAG@Collation@icu_56@@2IB DD 080H		; icu_56::Collation::ZERO_LEVEL_FLAG
CONST	ENDS
;	COMDAT ?IDENTICAL_LEVEL_FLAG@Collation@icu_56@@2IB
CONST	SEGMENT
?IDENTICAL_LEVEL_FLAG@Collation@icu_56@@2IB DD 040H	; icu_56::Collation::IDENTICAL_LEVEL_FLAG
CONST	ENDS
;	COMDAT ?QUATERNARY_LEVEL_FLAG@Collation@icu_56@@2IB
CONST	SEGMENT
?QUATERNARY_LEVEL_FLAG@Collation@icu_56@@2IB DD 020H	; icu_56::Collation::QUATERNARY_LEVEL_FLAG
CONST	ENDS
;	COMDAT ?TERTIARY_LEVEL_FLAG@Collation@icu_56@@2IB
CONST	SEGMENT
?TERTIARY_LEVEL_FLAG@Collation@icu_56@@2IB DD 010H	; icu_56::Collation::TERTIARY_LEVEL_FLAG
CONST	ENDS
;	COMDAT ?CASE_LEVEL_FLAG@Collation@icu_56@@2IB
CONST	SEGMENT
?CASE_LEVEL_FLAG@Collation@icu_56@@2IB DD 08H		; icu_56::Collation::CASE_LEVEL_FLAG
CONST	ENDS
;	COMDAT ?SECONDARY_LEVEL_FLAG@Collation@icu_56@@2IB
CONST	SEGMENT
?SECONDARY_LEVEL_FLAG@Collation@icu_56@@2IB DD 04H	; icu_56::Collation::SECONDARY_LEVEL_FLAG
CONST	ENDS
;	COMDAT ?PRIMARY_LEVEL_FLAG@Collation@icu_56@@2IB
CONST	SEGMENT
?PRIMARY_LEVEL_FLAG@Collation@icu_56@@2IB DD 02H	; icu_56::Collation::PRIMARY_LEVEL_FLAG
CONST	ENDS
;	COMDAT ?NO_LEVEL_FLAG@Collation@icu_56@@2IB
CONST	SEGMENT
?NO_LEVEL_FLAG@Collation@icu_56@@2IB DD 01H		; icu_56::Collation::NO_LEVEL_FLAG
CONST	ENDS
;	COMDAT ?NO_CE@Collation@icu_56@@2_JB
CONST	SEGMENT
?NO_CE@Collation@icu_56@@2_JB DQ 0000000101000100H	; icu_56::Collation::NO_CE
CONST	ENDS
;	COMDAT ?NO_CE_WEIGHT16@Collation@icu_56@@2IB
CONST	SEGMENT
?NO_CE_WEIGHT16@Collation@icu_56@@2IB DD 0100H		; icu_56::Collation::NO_CE_WEIGHT16
CONST	ENDS
;	COMDAT ?NO_CE_PRIMARY@Collation@icu_56@@2IB
CONST	SEGMENT
?NO_CE_PRIMARY@Collation@icu_56@@2IB DD 01H		; icu_56::Collation::NO_CE_PRIMARY
CONST	ENDS
;	COMDAT ?NO_CE32@Collation@icu_56@@2IB
CONST	SEGMENT
?NO_CE32@Collation@icu_56@@2IB DD 01H			; icu_56::Collation::NO_CE32
CONST	ENDS
;	COMDAT ?UNASSIGNED_CE32@Collation@icu_56@@2IB
CONST	SEGMENT
?UNASSIGNED_CE32@Collation@icu_56@@2IB DD 0ffffffffH	; icu_56::Collation::UNASSIGNED_CE32
CONST	ENDS
;	COMDAT ?LONG_PRIMARY_CE32_LOW_BYTE@Collation@icu_56@@2EB
CONST	SEGMENT
?LONG_PRIMARY_CE32_LOW_BYTE@Collation@icu_56@@2EB DB 0c1H ; icu_56::Collation::LONG_PRIMARY_CE32_LOW_BYTE
CONST	ENDS
;	COMDAT ?FALLBACK_CE32@Collation@icu_56@@2IB
CONST	SEGMENT
?FALLBACK_CE32@Collation@icu_56@@2IB DD 0c0H		; icu_56::Collation::FALLBACK_CE32
CONST	ENDS
;	COMDAT ?SPECIAL_CE32_LOW_BYTE@Collation@icu_56@@2EB
CONST	SEGMENT
?SPECIAL_CE32_LOW_BYTE@Collation@icu_56@@2EB DB 0c0H	; icu_56::Collation::SPECIAL_CE32_LOW_BYTE
CONST	ENDS
;	COMDAT ?FFFD_CE32@Collation@icu_56@@2IB
CONST	SEGMENT
?FFFD_CE32@Collation@icu_56@@2IB DD 0fffd0505H		; icu_56::Collation::FFFD_CE32
CONST	ENDS
;	COMDAT ?FFFD_PRIMARY@Collation@icu_56@@2IB
CONST	SEGMENT
?FFFD_PRIMARY@Collation@icu_56@@2IB DD 0fffd0000H	; icu_56::Collation::FFFD_PRIMARY
CONST	ENDS
;	COMDAT ?MAX_REGULAR_CE32@Collation@icu_56@@2IB
CONST	SEGMENT
?MAX_REGULAR_CE32@Collation@icu_56@@2IB DD 0ffff0505H	; icu_56::Collation::MAX_REGULAR_CE32
CONST	ENDS
;	COMDAT ?MAX_PRIMARY@Collation@icu_56@@2IB
CONST	SEGMENT
?MAX_PRIMARY@Collation@icu_56@@2IB DD 0ffff0000H	; icu_56::Collation::MAX_PRIMARY
CONST	ENDS
;	COMDAT ?FIRST_TRAILING_PRIMARY@Collation@icu_56@@2IB
CONST	SEGMENT
?FIRST_TRAILING_PRIMARY@Collation@icu_56@@2IB DD 0ff020200H ; icu_56::Collation::FIRST_TRAILING_PRIMARY
CONST	ENDS
;	COMDAT ?TRAIL_WEIGHT_BYTE@Collation@icu_56@@2EB
CONST	SEGMENT
?TRAIL_WEIGHT_BYTE@Collation@icu_56@@2EB DB 0ffH	; icu_56::Collation::TRAIL_WEIGHT_BYTE
CONST	ENDS
;	COMDAT ?FIRST_UNASSIGNED_PRIMARY@Collation@icu_56@@2IB
CONST	SEGMENT
?FIRST_UNASSIGNED_PRIMARY@Collation@icu_56@@2IB DD 0fe040200H ; icu_56::Collation::FIRST_UNASSIGNED_PRIMARY
CONST	ENDS
;	COMDAT ?UNASSIGNED_IMPLICIT_BYTE@Collation@icu_56@@2EB
CONST	SEGMENT
?UNASSIGNED_IMPLICIT_BYTE@Collation@icu_56@@2EB DB 0feH	; icu_56::Collation::UNASSIGNED_IMPLICIT_BYTE
CONST	ENDS
;	COMDAT ?CASE_AND_QUATERNARY_MASK@Collation@icu_56@@2IB
CONST	SEGMENT
?CASE_AND_QUATERNARY_MASK@Collation@icu_56@@2IB DD 0c0c0H ; icu_56::Collation::CASE_AND_QUATERNARY_MASK
CONST	ENDS
;	COMDAT ?QUATERNARY_MASK@Collation@icu_56@@2IB
CONST	SEGMENT
?QUATERNARY_MASK@Collation@icu_56@@2IB DD 0c0H		; icu_56::Collation::QUATERNARY_MASK
CONST	ENDS
;	COMDAT ?CASE_AND_TERTIARY_MASK@Collation@icu_56@@2IB
CONST	SEGMENT
?CASE_AND_TERTIARY_MASK@Collation@icu_56@@2IB DD 0ff3fH	; icu_56::Collation::CASE_AND_TERTIARY_MASK
CONST	ENDS
;	COMDAT ?ONLY_SEC_TER_MASK@Collation@icu_56@@2IB
CONST	SEGMENT
?ONLY_SEC_TER_MASK@Collation@icu_56@@2IB DD 0ffff3f3fH	; icu_56::Collation::ONLY_SEC_TER_MASK
CONST	ENDS
;	COMDAT ?ONLY_TERTIARY_MASK@Collation@icu_56@@2IB
CONST	SEGMENT
?ONLY_TERTIARY_MASK@Collation@icu_56@@2IB DD 03f3fH	; icu_56::Collation::ONLY_TERTIARY_MASK
CONST	ENDS
;	COMDAT ?SECONDARY_AND_CASE_MASK@Collation@icu_56@@2IB
CONST	SEGMENT
?SECONDARY_AND_CASE_MASK@Collation@icu_56@@2IB DD 0ffffc000H ; icu_56::Collation::SECONDARY_AND_CASE_MASK
CONST	ENDS
;	COMDAT ?CASE_MASK@Collation@icu_56@@2IB
CONST	SEGMENT
?CASE_MASK@Collation@icu_56@@2IB DD 0c000H		; icu_56::Collation::CASE_MASK
CONST	ENDS
;	COMDAT ?SECONDARY_MASK@Collation@icu_56@@2IB
CONST	SEGMENT
?SECONDARY_MASK@Collation@icu_56@@2IB DD 0ffff0000H	; icu_56::Collation::SECONDARY_MASK
CONST	ENDS
;	COMDAT ?COMMON_SEC_AND_TER_CE@Collation@icu_56@@2IB
CONST	SEGMENT
?COMMON_SEC_AND_TER_CE@Collation@icu_56@@2IB DD 05000500H ; icu_56::Collation::COMMON_SEC_AND_TER_CE
CONST	ENDS
;	COMDAT ?COMMON_TERTIARY_CE@Collation@icu_56@@2IB
CONST	SEGMENT
?COMMON_TERTIARY_CE@Collation@icu_56@@2IB DD 0500H	; icu_56::Collation::COMMON_TERTIARY_CE
CONST	ENDS
;	COMDAT ?COMMON_SECONDARY_CE@Collation@icu_56@@2IB
CONST	SEGMENT
?COMMON_SECONDARY_CE@Collation@icu_56@@2IB DD 05000000H	; icu_56::Collation::COMMON_SECONDARY_CE
CONST	ENDS
;	COMDAT ?COMMON_WEIGHT16@Collation@icu_56@@2IB
CONST	SEGMENT
?COMMON_WEIGHT16@Collation@icu_56@@2IB DD 0500H		; icu_56::Collation::COMMON_WEIGHT16
CONST	ENDS
;	COMDAT ?COMMON_BYTE@Collation@icu_56@@2EB
CONST	SEGMENT
?COMMON_BYTE@Collation@icu_56@@2EB DB 05H		; icu_56::Collation::COMMON_BYTE
CONST	ENDS
;	COMDAT ?PRIMARY_COMPRESSION_HIGH_BYTE@Collation@icu_56@@2EB
CONST	SEGMENT
?PRIMARY_COMPRESSION_HIGH_BYTE@Collation@icu_56@@2EB DB 0ffH ; icu_56::Collation::PRIMARY_COMPRESSION_HIGH_BYTE
CONST	ENDS
;	COMDAT ?PRIMARY_COMPRESSION_LOW_BYTE@Collation@icu_56@@2EB
CONST	SEGMENT
?PRIMARY_COMPRESSION_LOW_BYTE@Collation@icu_56@@2EB DB 03H ; icu_56::Collation::PRIMARY_COMPRESSION_LOW_BYTE
CONST	ENDS
;	COMDAT ?MERGE_SEPARATOR_CE32@Collation@icu_56@@2IB
CONST	SEGMENT
?MERGE_SEPARATOR_CE32@Collation@icu_56@@2IB DD 02000505H ; icu_56::Collation::MERGE_SEPARATOR_CE32
CONST	ENDS
;	COMDAT ?MERGE_SEPARATOR_PRIMARY@Collation@icu_56@@2IB
CONST	SEGMENT
?MERGE_SEPARATOR_PRIMARY@Collation@icu_56@@2IB DD 02000000H ; icu_56::Collation::MERGE_SEPARATOR_PRIMARY
CONST	ENDS
;	COMDAT ?MERGE_SEPARATOR_BYTE@Collation@icu_56@@2EB
CONST	SEGMENT
?MERGE_SEPARATOR_BYTE@Collation@icu_56@@2EB DB 02H	; icu_56::Collation::MERGE_SEPARATOR_BYTE
CONST	ENDS
;	COMDAT ?BEFORE_WEIGHT16@Collation@icu_56@@2IB
CONST	SEGMENT
?BEFORE_WEIGHT16@Collation@icu_56@@2IB DD 0100H		; icu_56::Collation::BEFORE_WEIGHT16
CONST	ENDS
;	COMDAT ?LEVEL_SEPARATOR_BYTE@Collation@icu_56@@2EB
CONST	SEGMENT
?LEVEL_SEPARATOR_BYTE@Collation@icu_56@@2EB DB 01H	; icu_56::Collation::LEVEL_SEPARATOR_BYTE
CONST	ENDS
;	COMDAT ?TERMINATOR_BYTE@Collation@icu_56@@2EB
CONST	SEGMENT
?TERMINATOR_BYTE@Collation@icu_56@@2EB DB 00H		; icu_56::Collation::TERMINATOR_BYTE
CONST	ENDS
;	COMDAT ?end@?$_Iosb@H@std@@2W4_Seekdir@12@B
CONST	SEGMENT
?end@?$_Iosb@H@std@@2W4_Seekdir@12@B DD 02H		; std::_Iosb<int>::end
CONST	ENDS
;	COMDAT ?cur@?$_Iosb@H@std@@2W4_Seekdir@12@B
CONST	SEGMENT
?cur@?$_Iosb@H@std@@2W4_Seekdir@12@B DD 01H		; std::_Iosb<int>::cur
CONST	ENDS
;	COMDAT ?beg@?$_Iosb@H@std@@2W4_Seekdir@12@B
CONST	SEGMENT
?beg@?$_Iosb@H@std@@2W4_Seekdir@12@B DD 00H		; std::_Iosb<int>::beg
CONST	ENDS
;	COMDAT ?binary@?$_Iosb@H@std@@2W4_Openmode@12@B
CONST	SEGMENT
?binary@?$_Iosb@H@std@@2W4_Openmode@12@B DD 020H	; std::_Iosb<int>::binary
CONST	ENDS
;	COMDAT ?_Noreplace@?$_Iosb@H@std@@2W4_Openmode@12@B
CONST	SEGMENT
?_Noreplace@?$_Iosb@H@std@@2W4_Openmode@12@B DD 080H	; std::_Iosb<int>::_Noreplace
CONST	ENDS
;	COMDAT ?_Nocreate@?$_Iosb@H@std@@2W4_Openmode@12@B
CONST	SEGMENT
?_Nocreate@?$_Iosb@H@std@@2W4_Openmode@12@B DD 040H	; std::_Iosb<int>::_Nocreate
CONST	ENDS
;	COMDAT ?trunc@?$_Iosb@H@std@@2W4_Openmode@12@B
CONST	SEGMENT
?trunc@?$_Iosb@H@std@@2W4_Openmode@12@B DD 010H		; std::_Iosb<int>::trunc
CONST	ENDS
;	COMDAT ?app@?$_Iosb@H@std@@2W4_Openmode@12@B
CONST	SEGMENT
?app@?$_Iosb@H@std@@2W4_Openmode@12@B DD 08H		; std::_Iosb<int>::app
CONST	ENDS
;	COMDAT ?ate@?$_Iosb@H@std@@2W4_Openmode@12@B
CONST	SEGMENT
?ate@?$_Iosb@H@std@@2W4_Openmode@12@B DD 04H		; std::_Iosb<int>::ate
CONST	ENDS
;	COMDAT ?out@?$_Iosb@H@std@@2W4_Openmode@12@B
CONST	SEGMENT
?out@?$_Iosb@H@std@@2W4_Openmode@12@B DD 02H		; std::_Iosb<int>::out
CONST	ENDS
;	COMDAT ?in@?$_Iosb@H@std@@2W4_Openmode@12@B
CONST	SEGMENT
?in@?$_Iosb@H@std@@2W4_Openmode@12@B DD 01H		; std::_Iosb<int>::in
CONST	ENDS
;	COMDAT ?_Hardfail@?$_Iosb@H@std@@2W4_Iostate@12@B
CONST	SEGMENT
?_Hardfail@?$_Iosb@H@std@@2W4_Iostate@12@B DD 010H	; std::_Iosb<int>::_Hardfail
CONST	ENDS
;	COMDAT ?badbit@?$_Iosb@H@std@@2W4_Iostate@12@B
CONST	SEGMENT
?badbit@?$_Iosb@H@std@@2W4_Iostate@12@B DD 04H		; std::_Iosb<int>::badbit
CONST	ENDS
;	COMDAT ?failbit@?$_Iosb@H@std@@2W4_Iostate@12@B
CONST	SEGMENT
?failbit@?$_Iosb@H@std@@2W4_Iostate@12@B DD 02H		; std::_Iosb<int>::failbit
CONST	ENDS
;	COMDAT ?eofbit@?$_Iosb@H@std@@2W4_Iostate@12@B
CONST	SEGMENT
?eofbit@?$_Iosb@H@std@@2W4_Iostate@12@B DD 01H		; std::_Iosb<int>::eofbit
CONST	ENDS
;	COMDAT ?goodbit@?$_Iosb@H@std@@2W4_Iostate@12@B
CONST	SEGMENT
?goodbit@?$_Iosb@H@std@@2W4_Iostate@12@B DD 00H		; std::_Iosb<int>::goodbit
CONST	ENDS
;	COMDAT ?floatfield@?$_Iosb@H@std@@2W4_Fmtflags@12@B
CONST	SEGMENT
?floatfield@?$_Iosb@H@std@@2W4_Fmtflags@12@B DD 03000H	; std::_Iosb<int>::floatfield
CONST	ENDS
;	COMDAT ?basefield@?$_Iosb@H@std@@2W4_Fmtflags@12@B
CONST	SEGMENT
?basefield@?$_Iosb@H@std@@2W4_Fmtflags@12@B DD 0e00H	; std::_Iosb<int>::basefield
CONST	ENDS
;	COMDAT ?adjustfield@?$_Iosb@H@std@@2W4_Fmtflags@12@B
CONST	SEGMENT
?adjustfield@?$_Iosb@H@std@@2W4_Fmtflags@12@B DD 01c0H	; std::_Iosb<int>::adjustfield
CONST	ENDS
;	COMDAT ?_Stdio@?$_Iosb@H@std@@2W4_Fmtflags@12@B
CONST	SEGMENT
?_Stdio@?$_Iosb@H@std@@2W4_Fmtflags@12@B DD 08000H	; std::_Iosb<int>::_Stdio
CONST	ENDS
;	COMDAT ?boolalpha@?$_Iosb@H@std@@2W4_Fmtflags@12@B
CONST	SEGMENT
?boolalpha@?$_Iosb@H@std@@2W4_Fmtflags@12@B DD 04000H	; std::_Iosb<int>::boolalpha
CONST	ENDS
;	COMDAT ?hexfloat@?$_Iosb@H@std@@2W4_Fmtflags@12@B
CONST	SEGMENT
?hexfloat@?$_Iosb@H@std@@2W4_Fmtflags@12@B DD 03000H	; std::_Iosb<int>::hexfloat
CONST	ENDS
;	COMDAT ?fixed@?$_Iosb@H@std@@2W4_Fmtflags@12@B
CONST	SEGMENT
?fixed@?$_Iosb@H@std@@2W4_Fmtflags@12@B DD 02000H	; std::_Iosb<int>::fixed
CONST	ENDS
;	COMDAT ?scientific@?$_Iosb@H@std@@2W4_Fmtflags@12@B
CONST	SEGMENT
?scientific@?$_Iosb@H@std@@2W4_Fmtflags@12@B DD 01000H	; std::_Iosb<int>::scientific
CONST	ENDS
;	COMDAT ?hex@?$_Iosb@H@std@@2W4_Fmtflags@12@B
CONST	SEGMENT
?hex@?$_Iosb@H@std@@2W4_Fmtflags@12@B DD 0800H		; std::_Iosb<int>::hex
CONST	ENDS
;	COMDAT ?oct@?$_Iosb@H@std@@2W4_Fmtflags@12@B
CONST	SEGMENT
?oct@?$_Iosb@H@std@@2W4_Fmtflags@12@B DD 0400H		; std::_Iosb<int>::oct
CONST	ENDS
;	COMDAT ?dec@?$_Iosb@H@std@@2W4_Fmtflags@12@B
CONST	SEGMENT
?dec@?$_Iosb@H@std@@2W4_Fmtflags@12@B DD 0200H		; std::_Iosb<int>::dec
CONST	ENDS
;	COMDAT ?internal@?$_Iosb@H@std@@2W4_Fmtflags@12@B
CONST	SEGMENT
?internal@?$_Iosb@H@std@@2W4_Fmtflags@12@B DD 0100H	; std::_Iosb<int>::internal
CONST	ENDS
;	COMDAT ?right@?$_Iosb@H@std@@2W4_Fmtflags@12@B
CONST	SEGMENT
?right@?$_Iosb@H@std@@2W4_Fmtflags@12@B DD 080H		; std::_Iosb<int>::right
CONST	ENDS
;	COMDAT ?left@?$_Iosb@H@std@@2W4_Fmtflags@12@B
CONST	SEGMENT
?left@?$_Iosb@H@std@@2W4_Fmtflags@12@B DD 040H		; std::_Iosb<int>::left
CONST	ENDS
;	COMDAT ?showpos@?$_Iosb@H@std@@2W4_Fmtflags@12@B
CONST	SEGMENT
?showpos@?$_Iosb@H@std@@2W4_Fmtflags@12@B DD 020H	; std::_Iosb<int>::showpos
CONST	ENDS
;	COMDAT ?showpoint@?$_Iosb@H@std@@2W4_Fmtflags@12@B
CONST	SEGMENT
?showpoint@?$_Iosb@H@std@@2W4_Fmtflags@12@B DD 010H	; std::_Iosb<int>::showpoint
CONST	ENDS
;	COMDAT ?showbase@?$_Iosb@H@std@@2W4_Fmtflags@12@B
CONST	SEGMENT
?showbase@?$_Iosb@H@std@@2W4_Fmtflags@12@B DD 08H	; std::_Iosb<int>::showbase
CONST	ENDS
;	COMDAT ?uppercase@?$_Iosb@H@std@@2W4_Fmtflags@12@B
CONST	SEGMENT
?uppercase@?$_Iosb@H@std@@2W4_Fmtflags@12@B DD 04H	; std::_Iosb<int>::uppercase
CONST	ENDS
;	COMDAT ?unitbuf@?$_Iosb@H@std@@2W4_Fmtflags@12@B
CONST	SEGMENT
?unitbuf@?$_Iosb@H@std@@2W4_Fmtflags@12@B DD 02H	; std::_Iosb<int>::unitbuf
CONST	ENDS
;	COMDAT ?skipws@?$_Iosb@H@std@@2W4_Fmtflags@12@B
CONST	SEGMENT
?skipws@?$_Iosb@H@std@@2W4_Fmtflags@12@B DD 01H		; std::_Iosb<int>::skipws
CONST	ENDS
;	COMDAT ?none@?$_Locbase@H@std@@2HB
CONST	SEGMENT
?none@?$_Locbase@H@std@@2HB DD 00H			; std::_Locbase<int>::none
CONST	ENDS
;	COMDAT ?all@?$_Locbase@H@std@@2HB
CONST	SEGMENT
?all@?$_Locbase@H@std@@2HB DD 03fH			; std::_Locbase<int>::all
CONST	ENDS
;	COMDAT ?messages@?$_Locbase@H@std@@2HB
CONST	SEGMENT
?messages@?$_Locbase@H@std@@2HB DD 020H			; std::_Locbase<int>::messages
CONST	ENDS
;	COMDAT ?time@?$_Locbase@H@std@@2HB
CONST	SEGMENT
?time@?$_Locbase@H@std@@2HB DD 010H			; std::_Locbase<int>::time
CONST	ENDS
;	COMDAT ?numeric@?$_Locbase@H@std@@2HB
CONST	SEGMENT
?numeric@?$_Locbase@H@std@@2HB DD 08H			; std::_Locbase<int>::numeric
CONST	ENDS
;	COMDAT ?monetary@?$_Locbase@H@std@@2HB
CONST	SEGMENT
?monetary@?$_Locbase@H@std@@2HB DD 04H			; std::_Locbase<int>::monetary
CONST	ENDS
;	COMDAT ?ctype@?$_Locbase@H@std@@2HB
CONST	SEGMENT
?ctype@?$_Locbase@H@std@@2HB DD 02H			; std::_Locbase<int>::ctype
CONST	ENDS
;	COMDAT ?collate@?$_Locbase@H@std@@2HB
CONST	SEGMENT
?collate@?$_Locbase@H@std@@2HB DD 01H			; std::_Locbase<int>::collate
CONST	ENDS
;	COMDAT ?_Rank@?$_Arithmetic_traits@O@std@@2HB
CONST	SEGMENT
?_Rank@?$_Arithmetic_traits@O@std@@2HB DD 09H		; std::_Arithmetic_traits<long double>::_Rank
CONST	ENDS
;	COMDAT ?_Rank@?$_Arithmetic_traits@N@std@@2HB
CONST	SEGMENT
?_Rank@?$_Arithmetic_traits@N@std@@2HB DD 08H		; std::_Arithmetic_traits<double>::_Rank
CONST	ENDS
;	COMDAT ?_Rank@?$_Arithmetic_traits@M@std@@2HB
CONST	SEGMENT
?_Rank@?$_Arithmetic_traits@M@std@@2HB DD 07H		; std::_Arithmetic_traits<float>::_Rank
CONST	ENDS
;	COMDAT ?_Rank@?$_Arithmetic_traits@_K@std@@2HB
CONST	SEGMENT
?_Rank@?$_Arithmetic_traits@_K@std@@2HB DD 06H		; std::_Arithmetic_traits<unsigned __int64>::_Rank
CONST	ENDS
;	COMDAT ?_Rank@?$_Arithmetic_traits@_J@std@@2HB
CONST	SEGMENT
?_Rank@?$_Arithmetic_traits@_J@std@@2HB DD 06H		; std::_Arithmetic_traits<__int64>::_Rank
CONST	ENDS
;	COMDAT ?_Rank@?$_Arithmetic_traits@K@std@@2HB
CONST	SEGMENT
?_Rank@?$_Arithmetic_traits@K@std@@2HB DD 05H		; std::_Arithmetic_traits<unsigned long>::_Rank
CONST	ENDS
;	COMDAT ?_Rank@?$_Arithmetic_traits@J@std@@2HB
CONST	SEGMENT
?_Rank@?$_Arithmetic_traits@J@std@@2HB DD 05H		; std::_Arithmetic_traits<long>::_Rank
CONST	ENDS
;	COMDAT ?_Rank@?$_Arithmetic_traits@I@std@@2HB
CONST	SEGMENT
?_Rank@?$_Arithmetic_traits@I@std@@2HB DD 04H		; std::_Arithmetic_traits<unsigned int>::_Rank
CONST	ENDS
;	COMDAT ?_Rank@?$_Arithmetic_traits@H@std@@2HB
CONST	SEGMENT
?_Rank@?$_Arithmetic_traits@H@std@@2HB DD 04H		; std::_Arithmetic_traits<int>::_Rank
CONST	ENDS
;	COMDAT ?_Rank@?$_Arithmetic_traits@G@std@@2HB
CONST	SEGMENT
?_Rank@?$_Arithmetic_traits@G@std@@2HB DD 03H		; std::_Arithmetic_traits<unsigned short>::_Rank
CONST	ENDS
;	COMDAT ?_Rank@?$_Arithmetic_traits@F@std@@2HB
CONST	SEGMENT
?_Rank@?$_Arithmetic_traits@F@std@@2HB DD 03H		; std::_Arithmetic_traits<short>::_Rank
CONST	ENDS
;	COMDAT ?_Rank@?$_Arithmetic_traits@E@std@@2HB
CONST	SEGMENT
?_Rank@?$_Arithmetic_traits@E@std@@2HB DD 02H		; std::_Arithmetic_traits<unsigned char>::_Rank
CONST	ENDS
;	COMDAT ?_Rank@?$_Arithmetic_traits@C@std@@2HB
CONST	SEGMENT
?_Rank@?$_Arithmetic_traits@C@std@@2HB DD 02H		; std::_Arithmetic_traits<signed char>::_Rank
CONST	ENDS
;	COMDAT ?_Rank@?$_Arithmetic_traits@D@std@@2HB
CONST	SEGMENT
?_Rank@?$_Arithmetic_traits@D@std@@2HB DD 02H		; std::_Arithmetic_traits<char>::_Rank
CONST	ENDS
;	COMDAT ?_Rank@?$_Arithmetic_traits@_N@std@@2HB
CONST	SEGMENT
?_Rank@?$_Arithmetic_traits@_N@std@@2HB DD 01H		; std::_Arithmetic_traits<bool>::_Rank
CONST	ENDS
;	COMDAT ?value@?$integral_constant@I$0A@@tr1@std@@2IB
CONST	SEGMENT
?value@?$integral_constant@I$0A@@tr1@std@@2IB DD 00H	; std::tr1::integral_constant<unsigned int,0>::value
CONST	ENDS
;	COMDAT ?value@?$integral_constant@_N$00@tr1@std@@2_NB
CONST	SEGMENT
?value@?$integral_constant@_N$00@tr1@std@@2_NB DB 01H	; std::tr1::integral_constant<bool,1>::value
CONST	ENDS
;	COMDAT ?value@?$integral_constant@_N$0A@@tr1@std@@2_NB
CONST	SEGMENT
?value@?$integral_constant@_N$0A@@tr1@std@@2_NB DB 00H	; std::tr1::integral_constant<bool,0>::value
CONST	ENDS
PUBLIC	??2@YAPAXI@Z					; operator new
EXTRN	__RTC_Shutdown:PROC
EXTRN	__RTC_InitBase:PROC
;	COMDAT rtc$TMZ
; File d:\mozilla\intl\icu\include\unicode\utypes.h
rtc$TMZ	SEGMENT
__RTC_Shutdown.rtc$TMZ DD FLAT:__RTC_Shutdown
rtc$TMZ	ENDS
;	COMDAT rtc$IMZ
rtc$IMZ	SEGMENT
__RTC_InitBase.rtc$IMZ DD FLAT:__RTC_InitBase
; Function compile flags: /Odtp /RTCsu /ZI
rtc$IMZ	ENDS
;	COMDAT ??2@YAPAXI@Z
_TEXT	SEGMENT
_q$ = -8						; size = 4
___formal$ = 8						; size = 4
??2@YAPAXI@Z PROC					; operator new, COMDAT
; Line 411
	push	ebp
	mov	ebp, esp
	sub	esp, 204				; 000000ccH
	push	ebx
	push	esi
	push	edi
	lea	edi, DWORD PTR [ebp-204]
	mov	ecx, 51					; 00000033H
	mov	eax, -858993460				; ccccccccH
	rep stosd
; Line 412
	mov	DWORD PTR _q$[ebp], 0
; Line 413
	mov	eax, DWORD PTR _q$[ebp]
	mov	BYTE PTR [eax], 5
; Line 414
	mov	eax, DWORD PTR _q$[ebp]
; Line 415
	pop	edi
	pop	esi
	pop	ebx
	mov	esp, ebp
	pop	ebp
	ret	0
??2@YAPAXI@Z ENDP					; operator new
_TEXT	ENDS
PUBLIC	??3@YAXPAX@Z					; operator delete
; Function compile flags: /Odtp /RTCsu /ZI
;	COMDAT ??3@YAXPAX@Z
_TEXT	SEGMENT
_q$ = -8						; size = 4
___formal$ = 8						; size = 4
??3@YAXPAX@Z PROC					; operator delete, COMDAT
; Line 439
	push	ebp
	mov	ebp, esp
	sub	esp, 204				; 000000ccH
	push	ebx
	push	esi
	push	edi
	lea	edi, DWORD PTR [ebp-204]
	mov	ecx, 51					; 00000033H
	mov	eax, -858993460				; ccccccccH
	rep stosd
; Line 440
	mov	DWORD PTR _q$[ebp], 0
; Line 441
	mov	eax, DWORD PTR _q$[ebp]
	mov	BYTE PTR [eax], 5
; Line 442
	pop	edi
	pop	esi
	pop	ebx
	mov	esp, ebp
	pop	ebp
	ret	0
??3@YAXPAX@Z ENDP					; operator delete
_TEXT	ENDS
PUBLIC	?fromUCollator@Collator@icu_56@@SAPAV12@PAUUCollator@@@Z ; icu_56::Collator::fromUCollator
; Function compile flags: /Odtp /RTCsu /ZI
;	COMDAT ?fromUCollator@Collator@icu_56@@SAPAV12@PAUUCollator@@@Z
_TEXT	SEGMENT
_uc$ = 8						; size = 4
?fromUCollator@Collator@icu_56@@SAPAV12@PAUUCollator@@@Z PROC ; icu_56::Collator::fromUCollator, COMDAT
; File d:\mozilla\intl\icu\source\i18n\unicode\coll.h
; Line 1161
	push	ebp
	mov	ebp, esp
	sub	esp, 192				; 000000c0H
	push	ebx
	push	esi
	push	edi
	lea	edi, DWORD PTR [ebp-192]
	mov	ecx, 48					; 00000030H
	mov	eax, -858993460				; ccccccccH
	rep stosd
; Line 1162
	mov	eax, DWORD PTR _uc$[ebp]
; Line 1163
	pop	edi
	pop	esi
	pop	ebx
	mov	esp, ebp
	pop	ebp
	ret	0
?fromUCollator@Collator@icu_56@@SAPAV12@PAUUCollator@@@Z ENDP ; icu_56::Collator::fromUCollator
_TEXT	ENDS
PUBLIC	?fromUCollator@Collator@icu_56@@SAPBV12@PBUUCollator@@@Z ; icu_56::Collator::fromUCollator
; Function compile flags: /Odtp /RTCsu /ZI
;	COMDAT ?fromUCollator@Collator@icu_56@@SAPBV12@PBUUCollator@@@Z
_TEXT	SEGMENT
_uc$ = 8						; size = 4
?fromUCollator@Collator@icu_56@@SAPBV12@PBUUCollator@@@Z PROC ; icu_56::Collator::fromUCollator, COMDAT
; Line 1165
	push	ebp
	mov	ebp, esp
	sub	esp, 192				; 000000c0H
	push	ebx
	push	esi
	push	edi
	lea	edi, DWORD PTR [ebp-192]
	mov	ecx, 48					; 00000030H
	mov	eax, -858993460				; ccccccccH
	rep stosd
; Line 1166
	mov	eax, DWORD PTR _uc$[ebp]
; Line 1167
	pop	edi
	pop	esi
	pop	ebx
	mov	esp, ebp
	pop	ebp
	ret	0
?fromUCollator@Collator@icu_56@@SAPBV12@PBUUCollator@@@Z ENDP ; icu_56::Collator::fromUCollator
_TEXT	ENDS
PUBLIC	?toUCollator@Collator@icu_56@@QAEPAUUCollator@@XZ ; icu_56::Collator::toUCollator
; Function compile flags: /Odtp /RTCsu /ZI
;	COMDAT ?toUCollator@Collator@icu_56@@QAEPAUUCollator@@XZ
_TEXT	SEGMENT
_this$ = -8						; size = 4
?toUCollator@Collator@icu_56@@QAEPAUUCollator@@XZ PROC	; icu_56::Collator::toUCollator, COMDAT
; _this$ = ecx
; Line 1169
	push	ebp
	mov	ebp, esp
	sub	esp, 204				; 000000ccH
	push	ebx
	push	esi
	push	edi
	push	ecx
	lea	edi, DWORD PTR [ebp-204]
	mov	ecx, 51					; 00000033H
	mov	eax, -858993460				; ccccccccH
	rep stosd
	pop	ecx
	mov	DWORD PTR _this$[ebp], ecx
; Line 1170
	mov	eax, DWORD PTR _this$[ebp]
; Line 1171
	pop	edi
	pop	esi
	pop	ebx
	mov	esp, ebp
	pop	ebp
	ret	0
?toUCollator@Collator@icu_56@@QAEPAUUCollator@@XZ ENDP	; icu_56::Collator::toUCollator
_TEXT	ENDS
PUBLIC	?toUCollator@Collator@icu_56@@QBEPBUUCollator@@XZ ; icu_56::Collator::toUCollator
; Function compile flags: /Odtp /RTCsu /ZI
;	COMDAT ?toUCollator@Collator@icu_56@@QBEPBUUCollator@@XZ
_TEXT	SEGMENT
_this$ = -8						; size = 4
?toUCollator@Collator@icu_56@@QBEPBUUCollator@@XZ PROC	; icu_56::Collator::toUCollator, COMDAT
; _this$ = ecx
; Line 1173
	push	ebp
	mov	ebp, esp
	sub	esp, 204				; 000000ccH
	push	ebx
	push	esi
	push	edi
	push	ecx
	lea	edi, DWORD PTR [ebp-204]
	mov	ecx, 51					; 00000033H
	mov	eax, -858993460				; ccccccccH
	rep stosd
	pop	ecx
	mov	DWORD PTR _this$[ebp], ecx
; Line 1174
	mov	eax, DWORD PTR _this$[ebp]
; Line 1175
	pop	edi
	pop	esi
	pop	ebx
	mov	esp, ebp
	pop	ebp
	ret	0
?toUCollator@Collator@icu_56@@QBEPBUUCollator@@XZ ENDP	; icu_56::Collator::toUCollator
_TEXT	ENDS
PUBLIC	??1Collator@icu_56@@UAE@XZ			; icu_56::Collator::~Collator
PUBLIC	??_GCollator@icu_56@@UAEPAXI@Z			; icu_56::Collator::`scalar deleting destructor'
EXTRN	__imp_??3UMemory@icu_56@@SAXPAX@Z:PROC
EXTRN	__RTC_CheckEsp:PROC
; Function compile flags: /Odtp /RTCsu /ZI
;	COMDAT ??_GCollator@icu_56@@UAEPAXI@Z
_TEXT	SEGMENT
_this$ = -8						; size = 4
___flags$ = 8						; size = 4
??_GCollator@icu_56@@UAEPAXI@Z PROC			; icu_56::Collator::`scalar deleting destructor', COMDAT
; _this$ = ecx
	push	ebp
	mov	ebp, esp
	sub	esp, 204				; 000000ccH
	push	ebx
	push	esi
	push	edi
	push	ecx
	lea	edi, DWORD PTR [ebp-204]
	mov	ecx, 51					; 00000033H
	mov	eax, -858993460				; ccccccccH
	rep stosd
	pop	ecx
	mov	DWORD PTR _this$[ebp], ecx
	mov	ecx, DWORD PTR _this$[ebp]
	call	??1Collator@icu_56@@UAE@XZ		; icu_56::Collator::~Collator
	mov	eax, DWORD PTR ___flags$[ebp]
	and	eax, 1
	je	SHORT $LN1@scalar
	mov	esi, esp
	mov	eax, DWORD PTR _this$[ebp]
	push	eax
	call	DWORD PTR __imp_??3UMemory@icu_56@@SAXPAX@Z
	add	esp, 4
	cmp	esi, esp
	call	__RTC_CheckEsp
$LN1@scalar:
	mov	eax, DWORD PTR _this$[ebp]
	pop	edi
	pop	esi
	pop	ebx
	add	esp, 204				; 000000ccH
	cmp	ebp, esp
	call	__RTC_CheckEsp
	mov	esp, ebp
	pop	ebp
	ret	4
??_GCollator@icu_56@@UAEPAXI@Z ENDP			; icu_56::Collator::`scalar deleting destructor'
_TEXT	ENDS
PUBLIC	??_ECollator@icu_56@@UAEPAXI@Z			; icu_56::Collator::`vector deleting destructor'
EXTRN	__imp_??_VUMemory@icu_56@@SAXPAX@Z:PROC
EXTRN	??_M@YGXPAXIHP6EX0@Z@Z:PROC			; `eh vector destructor iterator'
; Function compile flags: /Odtp /RTCsu /ZI
;	COMDAT ??_ECollator@icu_56@@UAEPAXI@Z
_TEXT	SEGMENT
_this$ = -8						; size = 4
___flags$ = 8						; size = 4
??_ECollator@icu_56@@UAEPAXI@Z PROC			; icu_56::Collator::`vector deleting destructor', COMDAT
; _this$ = ecx
	push	ebp
	mov	ebp, esp
	sub	esp, 204				; 000000ccH
	push	ebx
	push	esi
	push	edi
	push	ecx
	lea	edi, DWORD PTR [ebp-204]
	mov	ecx, 51					; 00000033H
	mov	eax, -858993460				; ccccccccH
	rep stosd
	pop	ecx
	mov	DWORD PTR _this$[ebp], ecx
	mov	eax, DWORD PTR ___flags$[ebp]
	and	eax, 2
	je	SHORT $LN3@vector
	push	OFFSET ??1Collator@icu_56@@UAE@XZ	; icu_56::Collator::~Collator
	mov	eax, DWORD PTR _this$[ebp]
	mov	ecx, DWORD PTR [eax-4]
	push	ecx
	push	4
	mov	edx, DWORD PTR _this$[ebp]
	push	edx
	call	??_M@YGXPAXIHP6EX0@Z@Z
	mov	eax, DWORD PTR ___flags$[ebp]
	and	eax, 1
	je	SHORT $LN2@vector
	mov	eax, DWORD PTR _this$[ebp]
	sub	eax, 4
	mov	esi, esp
	push	eax
	call	DWORD PTR __imp_??_VUMemory@icu_56@@SAXPAX@Z
	add	esp, 4
	cmp	esi, esp
	call	__RTC_CheckEsp
$LN2@vector:
	mov	eax, DWORD PTR _this$[ebp]
	sub	eax, 4
	jmp	SHORT $LN4@vector
$LN3@vector:
	mov	ecx, DWORD PTR _this$[ebp]
	call	??1Collator@icu_56@@UAE@XZ		; icu_56::Collator::~Collator
	mov	eax, DWORD PTR ___flags$[ebp]
	and	eax, 1
	je	SHORT $LN1@vector
	mov	esi, esp
	mov	eax, DWORD PTR _this$[ebp]
	push	eax
	call	DWORD PTR __imp_??3UMemory@icu_56@@SAXPAX@Z
	add	esp, 4
	cmp	esi, esp
	call	__RTC_CheckEsp
$LN1@vector:
	mov	eax, DWORD PTR _this$[ebp]
$LN4@vector:
	pop	edi
	pop	esi
	pop	ebx
	add	esp, 204				; 000000ccH
	cmp	ebp, esp
	call	__RTC_CheckEsp
	mov	esp, ebp
	pop	ebp
	ret	4
??_ECollator@icu_56@@UAEPAXI@Z ENDP			; icu_56::Collator::`vector deleting destructor'
_TEXT	ENDS
PUBLIC	??_7CollatorFactory@icu_56@@6B@			; icu_56::CollatorFactory::`vftable'
PUBLIC	??0CollatorFactory@icu_56@@QAE@XZ		; icu_56::CollatorFactory::CollatorFactory
PUBLIC	??_R4CollatorFactory@icu_56@@6B@		; icu_56::CollatorFactory::`RTTI Complete Object Locator'
PUBLIC	??_R0?AVCollatorFactory@icu_56@@@8		; icu_56::CollatorFactory `RTTI Type Descriptor'
PUBLIC	??_R3CollatorFactory@icu_56@@8			; icu_56::CollatorFactory::`RTTI Class Hierarchy Descriptor'
PUBLIC	??_R2CollatorFactory@icu_56@@8			; icu_56::CollatorFactory::`RTTI Base Class Array'
PUBLIC	??_R1A@?0A@EA@CollatorFactory@icu_56@@8		; icu_56::CollatorFactory::`RTTI Base Class Descriptor at (0,-1,0,64)'
PUBLIC	??_R1A@?0A@EA@UObject@icu_56@@8			; icu_56::UObject::`RTTI Base Class Descriptor at (0,-1,0,64)'
PUBLIC	??_R0?AVUObject@icu_56@@@8			; icu_56::UObject `RTTI Type Descriptor'
PUBLIC	??_R3UObject@icu_56@@8				; icu_56::UObject::`RTTI Class Hierarchy Descriptor'
PUBLIC	??_R2UObject@icu_56@@8				; icu_56::UObject::`RTTI Base Class Array'
PUBLIC	??_R13?0A@EA@UMemory@icu_56@@8			; icu_56::UMemory::`RTTI Base Class Descriptor at (4,-1,0,64)'
PUBLIC	??_R0?AVUMemory@icu_56@@@8			; icu_56::UMemory `RTTI Type Descriptor'
PUBLIC	??_R3UMemory@icu_56@@8				; icu_56::UMemory::`RTTI Class Hierarchy Descriptor'
PUBLIC	??_R2UMemory@icu_56@@8				; icu_56::UMemory::`RTTI Base Class Array'
PUBLIC	??_R1A@?0A@EA@UMemory@icu_56@@8			; icu_56::UMemory::`RTTI Base Class Descriptor at (0,-1,0,64)'
PUBLIC	??_ECollatorFactory@icu_56@@UAEPAXI@Z		; icu_56::CollatorFactory::`vector deleting destructor'
PUBLIC	?visible@CollatorFactory@icu_56@@UBECXZ		; icu_56::CollatorFactory::visible
PUBLIC	?getDisplayName@CollatorFactory@icu_56@@UAEAAVUnicodeString@2@ABVLocale@2@0AAV32@@Z ; icu_56::CollatorFactory::getDisplayName
EXTRN	__imp_??0UObject@icu_56@@QAE@XZ:PROC
EXTRN	??_7type_info@@6B@:QWORD			; type_info::`vftable'
EXTRN	?getDynamicClassID@UObject@icu_56@@UBEPAXXZ:PROC ; icu_56::UObject::getDynamicClassID
EXTRN	__purecall:PROC
;	COMDAT ??_R1A@?0A@EA@UMemory@icu_56@@8
rdata$r	SEGMENT
??_R1A@?0A@EA@UMemory@icu_56@@8 DD FLAT:??_R0?AVUMemory@icu_56@@@8 ; icu_56::UMemory::`RTTI Base Class Descriptor at (0,-1,0,64)'
	DD	00H
	DD	00H
	DD	0ffffffffH
	DD	00H
	DD	040H
	DD	FLAT:??_R3UMemory@icu_56@@8
rdata$r	ENDS
;	COMDAT ??_R2UMemory@icu_56@@8
rdata$r	SEGMENT
??_R2UMemory@icu_56@@8 DD FLAT:??_R1A@?0A@EA@UMemory@icu_56@@8 ; icu_56::UMemory::`RTTI Base Class Array'
rdata$r	ENDS
;	COMDAT ??_R3UMemory@icu_56@@8
rdata$r	SEGMENT
??_R3UMemory@icu_56@@8 DD 00H				; icu_56::UMemory::`RTTI Class Hierarchy Descriptor'
	DD	00H
	DD	01H
	DD	FLAT:??_R2UMemory@icu_56@@8
rdata$r	ENDS
;	COMDAT ??_R0?AVUMemory@icu_56@@@8
_DATA	SEGMENT
??_R0?AVUMemory@icu_56@@@8 DD FLAT:??_7type_info@@6B@	; icu_56::UMemory `RTTI Type Descriptor'
	DD	00H
	DB	'.?AVUMemory@icu_56@@', 00H
_DATA	ENDS
;	COMDAT ??_R13?0A@EA@UMemory@icu_56@@8
rdata$r	SEGMENT
??_R13?0A@EA@UMemory@icu_56@@8 DD FLAT:??_R0?AVUMemory@icu_56@@@8 ; icu_56::UMemory::`RTTI Base Class Descriptor at (4,-1,0,64)'
	DD	00H
	DD	04H
	DD	0ffffffffH
	DD	00H
	DD	040H
	DD	FLAT:??_R3UMemory@icu_56@@8
rdata$r	ENDS
;	COMDAT ??_R2UObject@icu_56@@8
rdata$r	SEGMENT
??_R2UObject@icu_56@@8 DD FLAT:??_R1A@?0A@EA@UObject@icu_56@@8 ; icu_56::UObject::`RTTI Base Class Array'
	DD	FLAT:??_R13?0A@EA@UMemory@icu_56@@8
rdata$r	ENDS
;	COMDAT ??_R3UObject@icu_56@@8
rdata$r	SEGMENT
??_R3UObject@icu_56@@8 DD 00H				; icu_56::UObject::`RTTI Class Hierarchy Descriptor'
	DD	00H
	DD	02H
	DD	FLAT:??_R2UObject@icu_56@@8
rdata$r	ENDS
;	COMDAT ??_R0?AVUObject@icu_56@@@8
_DATA	SEGMENT
??_R0?AVUObject@icu_56@@@8 DD FLAT:??_7type_info@@6B@	; icu_56::UObject `RTTI Type Descriptor'
	DD	00H
	DB	'.?AVUObject@icu_56@@', 00H
_DATA	ENDS
;	COMDAT ??_R1A@?0A@EA@UObject@icu_56@@8
rdata$r	SEGMENT
??_R1A@?0A@EA@UObject@icu_56@@8 DD FLAT:??_R0?AVUObject@icu_56@@@8 ; icu_56::UObject::`RTTI Base Class Descriptor at (0,-1,0,64)'
	DD	01H
	DD	00H
	DD	0ffffffffH
	DD	00H
	DD	040H
	DD	FLAT:??_R3UObject@icu_56@@8
rdata$r	ENDS
;	COMDAT ??_R1A@?0A@EA@CollatorFactory@icu_56@@8
rdata$r	SEGMENT
??_R1A@?0A@EA@CollatorFactory@icu_56@@8 DD FLAT:??_R0?AVCollatorFactory@icu_56@@@8 ; icu_56::CollatorFactory::`RTTI Base Class Descriptor at (0,-1,0,64)'
	DD	02H
	DD	00H
	DD	0ffffffffH
	DD	00H
	DD	040H
	DD	FLAT:??_R3CollatorFactory@icu_56@@8
rdata$r	ENDS
;	COMDAT ??_R2CollatorFactory@icu_56@@8
rdata$r	SEGMENT
??_R2CollatorFactory@icu_56@@8 DD FLAT:??_R1A@?0A@EA@CollatorFactory@icu_56@@8 ; icu_56::CollatorFactory::`RTTI Base Class Array'
	DD	FLAT:??_R1A@?0A@EA@UObject@icu_56@@8
	DD	FLAT:??_R13?0A@EA@UMemory@icu_56@@8
rdata$r	ENDS
;	COMDAT ??_R3CollatorFactory@icu_56@@8
rdata$r	SEGMENT
??_R3CollatorFactory@icu_56@@8 DD 00H			; icu_56::CollatorFactory::`RTTI Class Hierarchy Descriptor'
	DD	00H
	DD	03H
	DD	FLAT:??_R2CollatorFactory@icu_56@@8
rdata$r	ENDS
;	COMDAT ??_R0?AVCollatorFactory@icu_56@@@8
_DATA	SEGMENT
??_R0?AVCollatorFactory@icu_56@@@8 DD FLAT:??_7type_info@@6B@ ; icu_56::CollatorFactory `RTTI Type Descriptor'
	DD	00H
	DB	'.?AVCollatorFactory@icu_56@@', 00H
_DATA	ENDS
;	COMDAT ??_R4CollatorFactory@icu_56@@6B@
rdata$r	SEGMENT
??_R4CollatorFactory@icu_56@@6B@ DD 00H			; icu_56::CollatorFactory::`RTTI Complete Object Locator'
	DD	00H
	DD	00H
	DD	FLAT:??_R0?AVCollatorFactory@icu_56@@@8
	DD	FLAT:??_R3CollatorFactory@icu_56@@8
rdata$r	ENDS
;	COMDAT ??_7CollatorFactory@icu_56@@6B@
CONST	SEGMENT
??_7CollatorFactory@icu_56@@6B@ DD FLAT:??_R4CollatorFactory@icu_56@@6B@ ; icu_56::CollatorFactory::`vftable'
	DD	FLAT:??_ECollatorFactory@icu_56@@UAEPAXI@Z
	DD	FLAT:?getDynamicClassID@UObject@icu_56@@UBEPAXXZ
	DD	FLAT:?visible@CollatorFactory@icu_56@@UBECXZ
	DD	FLAT:__purecall
	DD	FLAT:?getDisplayName@CollatorFactory@icu_56@@UAEAAVUnicodeString@2@ABVLocale@2@0AAV32@@Z
	DD	FLAT:__purecall
; Function compile flags: /Odtp /RTCsu /ZI
CONST	ENDS
;	COMDAT ??0CollatorFactory@icu_56@@QAE@XZ
_TEXT	SEGMENT
_this$ = -8						; size = 4
??0CollatorFactory@icu_56@@QAE@XZ PROC			; icu_56::CollatorFactory::CollatorFactory, COMDAT
; _this$ = ecx
	push	ebp
	mov	ebp, esp
	sub	esp, 204				; 000000ccH
	push	ebx
	push	esi
	push	edi
	push	ecx
	lea	edi, DWORD PTR [ebp-204]
	mov	ecx, 51					; 00000033H
	mov	eax, -858993460				; ccccccccH
	rep stosd
	pop	ecx
	mov	DWORD PTR _this$[ebp], ecx
	mov	esi, esp
	mov	ecx, DWORD PTR _this$[ebp]
	call	DWORD PTR __imp_??0UObject@icu_56@@QAE@XZ
	cmp	esi, esp
	call	__RTC_CheckEsp
	mov	eax, DWORD PTR _this$[ebp]
	mov	DWORD PTR [eax], OFFSET ??_7CollatorFactory@icu_56@@6B@
	mov	eax, DWORD PTR _this$[ebp]
	pop	edi
	pop	esi
	pop	ebx
	add	esp, 204				; 000000ccH
	cmp	ebp, esp
	call	__RTC_CheckEsp
	mov	esp, ebp
	pop	ebp
	ret	0
??0CollatorFactory@icu_56@@QAE@XZ ENDP			; icu_56::CollatorFactory::CollatorFactory
_TEXT	ENDS
PUBLIC	??0CollatorFactory@icu_56@@QAE@ABV01@@Z		; icu_56::CollatorFactory::CollatorFactory
EXTRN	__imp_??0UObject@icu_56@@QAE@ABV01@@Z:PROC
; Function compile flags: /Odtp /RTCsu /ZI
;	COMDAT ??0CollatorFactory@icu_56@@QAE@ABV01@@Z
_TEXT	SEGMENT
_this$ = -8						; size = 4
___that$ = 8						; size = 4
??0CollatorFactory@icu_56@@QAE@ABV01@@Z PROC		; icu_56::CollatorFactory::CollatorFactory, COMDAT
; _this$ = ecx
	push	ebp
	mov	ebp, esp
	sub	esp, 204				; 000000ccH
	push	ebx
	push	esi
	push	edi
	push	ecx
	lea	edi, DWORD PTR [ebp-204]
	mov	ecx, 51					; 00000033H
	mov	eax, -858993460				; ccccccccH
	rep stosd
	pop	ecx
	mov	DWORD PTR _this$[ebp], ecx
	mov	esi, esp
	mov	eax, DWORD PTR ___that$[ebp]
	push	eax
	mov	ecx, DWORD PTR _this$[ebp]
	call	DWORD PTR __imp_??0UObject@icu_56@@QAE@ABV01@@Z
	cmp	esi, esp
	call	__RTC_CheckEsp
	mov	eax, DWORD PTR _this$[ebp]
	mov	DWORD PTR [eax], OFFSET ??_7CollatorFactory@icu_56@@6B@
	mov	eax, DWORD PTR _this$[ebp]
	pop	edi
	pop	esi
	pop	ebx
	add	esp, 204				; 000000ccH
	cmp	ebp, esp
	call	__RTC_CheckEsp
	mov	esp, ebp
	pop	ebp
	ret	4
??0CollatorFactory@icu_56@@QAE@ABV01@@Z ENDP		; icu_56::CollatorFactory::CollatorFactory
_TEXT	ENDS
PUBLIC	??4CollatorFactory@icu_56@@QAEAAV01@ABV01@@Z	; icu_56::CollatorFactory::operator=
EXTRN	__imp_??4UObject@icu_56@@QAEAAV01@ABV01@@Z:PROC
; Function compile flags: /Odtp /RTCsu /ZI
;	COMDAT ??4CollatorFactory@icu_56@@QAEAAV01@ABV01@@Z
_TEXT	SEGMENT
_this$ = -8						; size = 4
___that$ = 8						; size = 4
??4CollatorFactory@icu_56@@QAEAAV01@ABV01@@Z PROC	; icu_56::CollatorFactory::operator=, COMDAT
; _this$ = ecx
	push	ebp
	mov	ebp, esp
	sub	esp, 204				; 000000ccH
	push	ebx
	push	esi
	push	edi
	push	ecx
	lea	edi, DWORD PTR [ebp-204]
	mov	ecx, 51					; 00000033H
	mov	eax, -858993460				; ccccccccH
	rep stosd
	pop	ecx
	mov	DWORD PTR _this$[ebp], ecx
	mov	esi, esp
	mov	eax, DWORD PTR ___that$[ebp]
	push	eax
	mov	ecx, DWORD PTR _this$[ebp]
	call	DWORD PTR __imp_??4UObject@icu_56@@QAEAAV01@ABV01@@Z
	cmp	esi, esp
	call	__RTC_CheckEsp
	mov	eax, DWORD PTR _this$[ebp]
	pop	edi
	pop	esi
	pop	ebx
	add	esp, 204				; 000000ccH
	cmp	ebp, esp
	call	__RTC_CheckEsp
	mov	esp, ebp
	pop	ebp
	ret	4
??4CollatorFactory@icu_56@@QAEAAV01@ABV01@@Z ENDP	; icu_56::CollatorFactory::operator=
_TEXT	ENDS
PUBLIC	??1CollatorFactory@icu_56@@UAE@XZ		; icu_56::CollatorFactory::~CollatorFactory
PUBLIC	??_GCollatorFactory@icu_56@@UAEPAXI@Z		; icu_56::CollatorFactory::`scalar deleting destructor'
; Function compile flags: /Odtp /RTCsu /ZI
;	COMDAT ??_GCollatorFactory@icu_56@@UAEPAXI@Z
_TEXT	SEGMENT
_this$ = -8						; size = 4
___flags$ = 8						; size = 4
??_GCollatorFactory@icu_56@@UAEPAXI@Z PROC		; icu_56::CollatorFactory::`scalar deleting destructor', COMDAT
; _this$ = ecx
	push	ebp
	mov	ebp, esp
	sub	esp, 204				; 000000ccH
	push	ebx
	push	esi
	push	edi
	push	ecx
	lea	edi, DWORD PTR [ebp-204]
	mov	ecx, 51					; 00000033H
	mov	eax, -858993460				; ccccccccH
	rep stosd
	pop	ecx
	mov	DWORD PTR _this$[ebp], ecx
	mov	ecx, DWORD PTR _this$[ebp]
	call	??1CollatorFactory@icu_56@@UAE@XZ	; icu_56::CollatorFactory::~CollatorFactory
	mov	eax, DWORD PTR ___flags$[ebp]
	and	eax, 1
	je	SHORT $LN1@scalar@2
	mov	esi, esp
	mov	eax, DWORD PTR _this$[ebp]
	push	eax
	call	DWORD PTR __imp_??3UMemory@icu_56@@SAXPAX@Z
	add	esp, 4
	cmp	esi, esp
	call	__RTC_CheckEsp
$LN1@scalar@2:
	mov	eax, DWORD PTR _this$[ebp]
	pop	edi
	pop	esi
	pop	ebx
	add	esp, 204				; 000000ccH
	cmp	ebp, esp
	call	__RTC_CheckEsp
	mov	esp, ebp
	pop	ebp
	ret	4
??_GCollatorFactory@icu_56@@UAEPAXI@Z ENDP		; icu_56::CollatorFactory::`scalar deleting destructor'
; Function compile flags: /Odtp /RTCsu /ZI
_TEXT	ENDS
;	COMDAT ??_ECollatorFactory@icu_56@@UAEPAXI@Z
_TEXT	SEGMENT
_this$ = -8						; size = 4
___flags$ = 8						; size = 4
??_ECollatorFactory@icu_56@@UAEPAXI@Z PROC		; icu_56::CollatorFactory::`vector deleting destructor', COMDAT
; _this$ = ecx
	push	ebp
	mov	ebp, esp
	sub	esp, 204				; 000000ccH
	push	ebx
	push	esi
	push	edi
	push	ecx
	lea	edi, DWORD PTR [ebp-204]
	mov	ecx, 51					; 00000033H
	mov	eax, -858993460				; ccccccccH
	rep stosd
	pop	ecx
	mov	DWORD PTR _this$[ebp], ecx
	mov	eax, DWORD PTR ___flags$[ebp]
	and	eax, 2
	je	SHORT $LN3@vector@2
	push	OFFSET ??1CollatorFactory@icu_56@@UAE@XZ ; icu_56::CollatorFactory::~CollatorFactory
	mov	eax, DWORD PTR _this$[ebp]
	mov	ecx, DWORD PTR [eax-4]
	push	ecx
	push	4
	mov	edx, DWORD PTR _this$[ebp]
	push	edx
	call	??_M@YGXPAXIHP6EX0@Z@Z
	mov	eax, DWORD PTR ___flags$[ebp]
	and	eax, 1
	je	SHORT $LN2@vector@2
	mov	eax, DWORD PTR _this$[ebp]
	sub	eax, 4
	mov	esi, esp
	push	eax
	call	DWORD PTR __imp_??_VUMemory@icu_56@@SAXPAX@Z
	add	esp, 4
	cmp	esi, esp
	call	__RTC_CheckEsp
$LN2@vector@2:
	mov	eax, DWORD PTR _this$[ebp]
	sub	eax, 4
	jmp	SHORT $LN4@vector@2
$LN3@vector@2:
	mov	ecx, DWORD PTR _this$[ebp]
	call	??1CollatorFactory@icu_56@@UAE@XZ	; icu_56::CollatorFactory::~CollatorFactory
	mov	eax, DWORD PTR ___flags$[ebp]
	and	eax, 1
	je	SHORT $LN1@vector@2
	mov	esi, esp
	mov	eax, DWORD PTR _this$[ebp]
	push	eax
	call	DWORD PTR __imp_??3UMemory@icu_56@@SAXPAX@Z
	add	esp, 4
	cmp	esi, esp
	call	__RTC_CheckEsp
$LN1@vector@2:
	mov	eax, DWORD PTR _this$[ebp]
$LN4@vector@2:
	pop	edi
	pop	esi
	pop	ebx
	add	esp, 204				; 000000ccH
	cmp	ebp, esp
	call	__RTC_CheckEsp
	mov	esp, ebp
	pop	ebp
	ret	4
??_ECollatorFactory@icu_56@@UAEPAXI@Z ENDP		; icu_56::CollatorFactory::`vector deleting destructor'
_TEXT	ENDS
PUBLIC	??_R0?AVCollator@icu_56@@@8			; icu_56::Collator `RTTI Type Descriptor'
PUBLIC	??_R0?AVRuleBasedCollator@icu_56@@@8		; icu_56::RuleBasedCollator `RTTI Type Descriptor'
PUBLIC	?rbcFromUCollator@RuleBasedCollator@icu_56@@SAPAV12@PAUUCollator@@@Z ; icu_56::RuleBasedCollator::rbcFromUCollator
EXTRN	___RTDynamicCast:PROC
;	COMDAT ??_R0?AVCollator@icu_56@@@8
; File d:\mozilla\intl\icu\source\i18n\unicode\tblcoll.h
_DATA	SEGMENT
??_R0?AVCollator@icu_56@@@8 DD FLAT:??_7type_info@@6B@	; icu_56::Collator `RTTI Type Descriptor'
	DD	00H
	DB	'.?AVCollator@icu_56@@', 00H
_DATA	ENDS
;	COMDAT ??_R0?AVRuleBasedCollator@icu_56@@@8
_DATA	SEGMENT
??_R0?AVRuleBasedCollator@icu_56@@@8 DD FLAT:??_7type_info@@6B@ ; icu_56::RuleBasedCollator `RTTI Type Descriptor'
	DD	00H
	DB	'.?AVRuleBasedCollator@icu_56@@', 00H
; Function compile flags: /Odtp /RTCsu /ZI
_DATA	ENDS
;	COMDAT ?rbcFromUCollator@RuleBasedCollator@icu_56@@SAPAV12@PAUUCollator@@@Z
_TEXT	SEGMENT
_uc$ = 8						; size = 4
?rbcFromUCollator@RuleBasedCollator@icu_56@@SAPAV12@PAUUCollator@@@Z PROC ; icu_56::RuleBasedCollator::rbcFromUCollator, COMDAT
; Line 777
	push	ebp
	mov	ebp, esp
	sub	esp, 192				; 000000c0H
	push	ebx
	push	esi
	push	edi
	lea	edi, DWORD PTR [ebp-192]
	mov	ecx, 48					; 00000030H
	mov	eax, -858993460				; ccccccccH
	rep stosd
; Line 778
	push	0
	push	OFFSET ??_R0?AVRuleBasedCollator@icu_56@@@8
	push	OFFSET ??_R0?AVCollator@icu_56@@@8
	mov	eax, DWORD PTR _uc$[ebp]
	push	eax
	call	?fromUCollator@Collator@icu_56@@SAPAV12@PAUUCollator@@@Z ; icu_56::Collator::fromUCollator
	add	esp, 4
	push	0
	push	eax
	call	___RTDynamicCast
	add	esp, 20					; 00000014H
; Line 779
	pop	edi
	pop	esi
	pop	ebx
	add	esp, 192				; 000000c0H
	cmp	ebp, esp
	call	__RTC_CheckEsp
	mov	esp, ebp
	pop	ebp
	ret	0
?rbcFromUCollator@RuleBasedCollator@icu_56@@SAPAV12@PAUUCollator@@@Z ENDP ; icu_56::RuleBasedCollator::rbcFromUCollator
_TEXT	ENDS
PUBLIC	?rbcFromUCollator@RuleBasedCollator@icu_56@@SAPBV12@PBUUCollator@@@Z ; icu_56::RuleBasedCollator::rbcFromUCollator
; Function compile flags: /Odtp /RTCsu /ZI
;	COMDAT ?rbcFromUCollator@RuleBasedCollator@icu_56@@SAPBV12@PBUUCollator@@@Z
_TEXT	SEGMENT
_uc$ = 8						; size = 4
?rbcFromUCollator@RuleBasedCollator@icu_56@@SAPBV12@PBUUCollator@@@Z PROC ; icu_56::RuleBasedCollator::rbcFromUCollator, COMDAT
; Line 781
	push	ebp
	mov	ebp, esp
	sub	esp, 192				; 000000c0H
	push	ebx
	push	esi
	push	edi
	lea	edi, DWORD PTR [ebp-192]
	mov	ecx, 48					; 00000030H
	mov	eax, -858993460				; ccccccccH
	rep stosd
; Line 782
	push	0
	push	OFFSET ??_R0?AVRuleBasedCollator@icu_56@@@8
	push	OFFSET ??_R0?AVCollator@icu_56@@@8
	mov	eax, DWORD PTR _uc$[ebp]
	push	eax
	call	?fromUCollator@Collator@icu_56@@SAPBV12@PBUUCollator@@@Z ; icu_56::Collator::fromUCollator
	add	esp, 4
	push	0
	push	eax
	call	___RTDynamicCast
	add	esp, 20					; 00000014H
; Line 783
	pop	edi
	pop	esi
	pop	ebx
	add	esp, 192				; 000000c0H
	cmp	ebp, esp
	call	__RTC_CheckEsp
	mov	esp, ebp
	pop	ebp
	ret	0
?rbcFromUCollator@RuleBasedCollator@icu_56@@SAPBV12@PBUUCollator@@@Z ENDP ; icu_56::RuleBasedCollator::rbcFromUCollator
_TEXT	ENDS
PUBLIC	?setAttributeDefault@RuleBasedCollator@icu_56@@AAEXH@Z ; icu_56::RuleBasedCollator::setAttributeDefault
; Function compile flags: /Odtp /RTCsu /ZI
;	COMDAT ?setAttributeDefault@RuleBasedCollator@icu_56@@AAEXH@Z
_TEXT	SEGMENT
_this$ = -8						; size = 4
_attribute$ = 8						; size = 4
?setAttributeDefault@RuleBasedCollator@icu_56@@AAEXH@Z PROC ; icu_56::RuleBasedCollator::setAttributeDefault, COMDAT
; _this$ = ecx
; Line 836
	push	ebp
	mov	ebp, esp
	sub	esp, 204				; 000000ccH
	push	ebx
	push	esi
	push	edi
	push	ecx
	lea	edi, DWORD PTR [ebp-204]
	mov	ecx, 51					; 00000033H
	mov	eax, -858993460				; ccccccccH
	rep stosd
	pop	ecx
	mov	DWORD PTR _this$[ebp], ecx
; Line 837
	mov	eax, 1
	mov	ecx, DWORD PTR _attribute$[ebp]
	shl	eax, cl
	not	eax
	mov	ecx, DWORD PTR _this$[ebp]
	and	eax, DWORD PTR [ecx+224]
	mov	edx, DWORD PTR _this$[ebp]
	mov	DWORD PTR [edx+224], eax
; Line 838
	pop	edi
	pop	esi
	pop	ebx
	mov	esp, ebp
	pop	ebp
	ret	4
?setAttributeDefault@RuleBasedCollator@icu_56@@AAEXH@Z ENDP ; icu_56::RuleBasedCollator::setAttributeDefault
_TEXT	ENDS
PUBLIC	?setAttributeExplicitly@RuleBasedCollator@icu_56@@AAEXH@Z ; icu_56::RuleBasedCollator::setAttributeExplicitly
; Function compile flags: /Odtp /RTCsu /ZI
;	COMDAT ?setAttributeExplicitly@RuleBasedCollator@icu_56@@AAEXH@Z
_TEXT	SEGMENT
_this$ = -8						; size = 4
_attribute$ = 8						; size = 4
?setAttributeExplicitly@RuleBasedCollator@icu_56@@AAEXH@Z PROC ; icu_56::RuleBasedCollator::setAttributeExplicitly, COMDAT
; _this$ = ecx
; Line 839
	push	ebp
	mov	ebp, esp
	sub	esp, 204				; 000000ccH
	push	ebx
	push	esi
	push	edi
	push	ecx
	lea	edi, DWORD PTR [ebp-204]
	mov	ecx, 51					; 00000033H
	mov	eax, -858993460				; ccccccccH
	rep stosd
	pop	ecx
	mov	DWORD PTR _this$[ebp], ecx
; Line 840
	mov	eax, 1
	mov	ecx, DWORD PTR _attribute$[ebp]
	shl	eax, cl
	mov	ecx, DWORD PTR _this$[ebp]
	or	eax, DWORD PTR [ecx+224]
	mov	edx, DWORD PTR _this$[ebp]
	mov	DWORD PTR [edx+224], eax
; Line 841
	pop	edi
	pop	esi
	pop	ebx
	mov	esp, ebp
	pop	ebp
	ret	4
?setAttributeExplicitly@RuleBasedCollator@icu_56@@AAEXH@Z ENDP ; icu_56::RuleBasedCollator::setAttributeExplicitly
_TEXT	ENDS
PUBLIC	?attributeHasBeenSetExplicitly@RuleBasedCollator@icu_56@@ABECH@Z ; icu_56::RuleBasedCollator::attributeHasBeenSetExplicitly
; Function compile flags: /Odtp /RTCsu /ZI
;	COMDAT ?attributeHasBeenSetExplicitly@RuleBasedCollator@icu_56@@ABECH@Z
_TEXT	SEGMENT
_this$ = -8						; size = 4
_attribute$ = 8						; size = 4
?attributeHasBeenSetExplicitly@RuleBasedCollator@icu_56@@ABECH@Z PROC ; icu_56::RuleBasedCollator::attributeHasBeenSetExplicitly, COMDAT
; _this$ = ecx
; Line 842
	push	ebp
	mov	ebp, esp
	sub	esp, 204				; 000000ccH
	push	ebx
	push	esi
	push	edi
	push	ecx
	lea	edi, DWORD PTR [ebp-204]
	mov	ecx, 51					; 00000033H
	mov	eax, -858993460				; ccccccccH
	rep stosd
	pop	ecx
	mov	DWORD PTR _this$[ebp], ecx
; Line 844
	mov	eax, 1
	mov	ecx, DWORD PTR _attribute$[ebp]
	shl	eax, cl
	mov	ecx, DWORD PTR _this$[ebp]
	and	eax, DWORD PTR [ecx+224]
	setne	al
; Line 845
	pop	edi
	pop	esi
	pop	ebx
	mov	esp, ebp
	pop	ebp
	ret	4
?attributeHasBeenSetExplicitly@RuleBasedCollator@icu_56@@ABECH@Z ENDP ; icu_56::RuleBasedCollator::attributeHasBeenSetExplicitly
_TEXT	ENDS
PUBLIC	?isAssignedCE32@Collation@icu_56@@SACI@Z	; icu_56::Collation::isAssignedCE32
; Function compile flags: /Odtp /RTCsu /ZI
;	COMDAT ?isAssignedCE32@Collation@icu_56@@SACI@Z
_TEXT	SEGMENT
tv66 = -193						; size = 1
_ce32$ = 8						; size = 4
?isAssignedCE32@Collation@icu_56@@SACI@Z PROC		; icu_56::Collation::isAssignedCE32, COMDAT
; File d:\mozilla\intl\icu\source\i18n\collation.h
; Line 275
	push	ebp
	mov	ebp, esp
	sub	esp, 196				; 000000c4H
	push	ebx
	push	esi
	push	edi
	lea	edi, DWORD PTR [ebp-196]
	mov	ecx, 49					; 00000031H
	mov	eax, -858993460				; ccccccccH
	rep stosd
; Line 276
	cmp	DWORD PTR _ce32$[ebp], 192		; 000000c0H
	je	SHORT $LN3@isAssigned
	cmp	DWORD PTR _ce32$[ebp], -1
	je	SHORT $LN3@isAssigned
	mov	BYTE PTR tv66[ebp], 1
	jmp	SHORT $LN4@isAssigned
$LN3@isAssigned:
	mov	BYTE PTR tv66[ebp], 0
$LN4@isAssigned:
	mov	al, BYTE PTR tv66[ebp]
; Line 277
	pop	edi
	pop	esi
	pop	ebx
	mov	esp, ebp
	pop	ebp
	ret	0
?isAssignedCE32@Collation@icu_56@@SACI@Z ENDP		; icu_56::Collation::isAssignedCE32
_TEXT	ENDS
PUBLIC	?makeLongPrimaryCE32@Collation@icu_56@@SAII@Z	; icu_56::Collation::makeLongPrimaryCE32
; Function compile flags: /Odtp /RTCsu /ZI
;	COMDAT ?makeLongPrimaryCE32@Collation@icu_56@@SAII@Z
_TEXT	SEGMENT
_p$ = 8							; size = 4
?makeLongPrimaryCE32@Collation@icu_56@@SAII@Z PROC	; icu_56::Collation::makeLongPrimaryCE32, COMDAT
; Line 308
	push	ebp
	mov	ebp, esp
	sub	esp, 192				; 000000c0H
	push	ebx
	push	esi
	push	edi
	lea	edi, DWORD PTR [ebp-192]
	mov	ecx, 48					; 00000030H
	mov	eax, -858993460				; ccccccccH
	rep stosd
	mov	eax, DWORD PTR _p$[ebp]
	or	eax, 193				; 000000c1H
	pop	edi
	pop	esi
	pop	ebx
	mov	esp, ebp
	pop	ebp
	ret	0
?makeLongPrimaryCE32@Collation@icu_56@@SAII@Z ENDP	; icu_56::Collation::makeLongPrimaryCE32
_TEXT	ENDS
PUBLIC	?primaryFromLongPrimaryCE32@Collation@icu_56@@SAII@Z ; icu_56::Collation::primaryFromLongPrimaryCE32
; Function compile flags: /Odtp /RTCsu /ZI
;	COMDAT ?primaryFromLongPrimaryCE32@Collation@icu_56@@SAII@Z
_TEXT	SEGMENT
_ce32$ = 8						; size = 4
?primaryFromLongPrimaryCE32@Collation@icu_56@@SAII@Z PROC ; icu_56::Collation::primaryFromLongPrimaryCE32, COMDAT
; Line 311
	push	ebp
	mov	ebp, esp
	sub	esp, 192				; 000000c0H
	push	ebx
	push	esi
	push	edi
	lea	edi, DWORD PTR [ebp-192]
	mov	ecx, 48					; 00000030H
	mov	eax, -858993460				; ccccccccH
	rep stosd
; Line 312
	mov	eax, DWORD PTR _ce32$[ebp]
	and	eax, -256				; ffffff00H
; Line 313
	pop	edi
	pop	esi
	pop	ebx
	mov	esp, ebp
	pop	ebp
	ret	0
?primaryFromLongPrimaryCE32@Collation@icu_56@@SAII@Z ENDP ; icu_56::Collation::primaryFromLongPrimaryCE32
_TEXT	ENDS
PUBLIC	?ceFromLongPrimaryCE32@Collation@icu_56@@SA_JI@Z ; icu_56::Collation::ceFromLongPrimaryCE32
EXTRN	__allshl:PROC
; Function compile flags: /Odtp /RTCsu /ZI
;	COMDAT ?ceFromLongPrimaryCE32@Collation@icu_56@@SA_JI@Z
_TEXT	SEGMENT
_ce32$ = 8						; size = 4
?ceFromLongPrimaryCE32@Collation@icu_56@@SA_JI@Z PROC	; icu_56::Collation::ceFromLongPrimaryCE32, COMDAT
; Line 314
	push	ebp
	mov	ebp, esp
	sub	esp, 192				; 000000c0H
	push	ebx
	push	esi
	push	edi
	lea	edi, DWORD PTR [ebp-192]
	mov	ecx, 48					; 00000030H
	mov	eax, -858993460				; ccccccccH
	rep stosd
; Line 315
	mov	eax, DWORD PTR _ce32$[ebp]
	and	eax, -256				; ffffff00H
	xor	edx, edx
	mov	cl, 32					; 00000020H
	call	__allshl
	or	eax, 83887360				; 05000500H
; Line 316
	pop	edi
	pop	esi
	pop	ebx
	add	esp, 192				; 000000c0H
	cmp	ebp, esp
	call	__RTC_CheckEsp
	mov	esp, ebp
	pop	ebp
	ret	0
?ceFromLongPrimaryCE32@Collation@icu_56@@SA_JI@Z ENDP	; icu_56::Collation::ceFromLongPrimaryCE32
_TEXT	ENDS
PUBLIC	?makeLongSecondaryCE32@Collation@icu_56@@SAII@Z	; icu_56::Collation::makeLongSecondaryCE32
; Function compile flags: /Odtp /RTCsu /ZI
;	COMDAT ?makeLongSecondaryCE32@Collation@icu_56@@SAII@Z
_TEXT	SEGMENT
_lower32$ = 8						; size = 4
?makeLongSecondaryCE32@Collation@icu_56@@SAII@Z PROC	; icu_56::Collation::makeLongSecondaryCE32, COMDAT
; Line 318
	push	ebp
	mov	ebp, esp
	sub	esp, 192				; 000000c0H
	push	ebx
	push	esi
	push	edi
	lea	edi, DWORD PTR [ebp-192]
	mov	ecx, 48					; 00000030H
	mov	eax, -858993460				; ccccccccH
	rep stosd
; Line 319
	mov	eax, DWORD PTR _lower32$[ebp]
	or	eax, 192				; 000000c0H
	or	eax, 2
; Line 320
	pop	edi
	pop	esi
	pop	ebx
	mov	esp, ebp
	pop	ebp
	ret	0
?makeLongSecondaryCE32@Collation@icu_56@@SAII@Z ENDP	; icu_56::Collation::makeLongSecondaryCE32
_TEXT	ENDS
PUBLIC	?ceFromLongSecondaryCE32@Collation@icu_56@@SA_JI@Z ; icu_56::Collation::ceFromLongSecondaryCE32
; Function compile flags: /Odtp /RTCsu /ZI
;	COMDAT ?ceFromLongSecondaryCE32@Collation@icu_56@@SA_JI@Z
_TEXT	SEGMENT
_ce32$ = 8						; size = 4
?ceFromLongSecondaryCE32@Collation@icu_56@@SA_JI@Z PROC	; icu_56::Collation::ceFromLongSecondaryCE32, COMDAT
; Line 321
	push	ebp
	mov	ebp, esp
	sub	esp, 192				; 000000c0H
	push	ebx
	push	esi
	push	edi
	lea	edi, DWORD PTR [ebp-192]
	mov	ecx, 48					; 00000030H
	mov	eax, -858993460				; ccccccccH
	rep stosd
; Line 322
	mov	eax, DWORD PTR _ce32$[ebp]
	and	eax, -256				; ffffff00H
	xor	edx, edx
; Line 323
	pop	edi
	pop	esi
	pop	ebx
	mov	esp, ebp
	pop	ebp
	ret	0
?ceFromLongSecondaryCE32@Collation@icu_56@@SA_JI@Z ENDP	; icu_56::Collation::ceFromLongSecondaryCE32
_TEXT	ENDS
PUBLIC	?makeCE32FromTagIndexAndLength@Collation@icu_56@@SAIHHH@Z ; icu_56::Collation::makeCE32FromTagIndexAndLength
; Function compile flags: /Odtp /RTCsu /ZI
;	COMDAT ?makeCE32FromTagIndexAndLength@Collation@icu_56@@SAIHHH@Z
_TEXT	SEGMENT
_tag$ = 8						; size = 4
_index$ = 12						; size = 4
_length$ = 16						; size = 4
?makeCE32FromTagIndexAndLength@Collation@icu_56@@SAIHHH@Z PROC ; icu_56::Collation::makeCE32FromTagIndexAndLength, COMDAT
; Line 326
	push	ebp
	mov	ebp, esp
	sub	esp, 192				; 000000c0H
	push	ebx
	push	esi
	push	edi
	lea	edi, DWORD PTR [ebp-192]
	mov	ecx, 48					; 00000030H
	mov	eax, -858993460				; ccccccccH
	rep stosd
; Line 327
	mov	eax, DWORD PTR _index$[ebp]
	shl	eax, 13					; 0000000dH
	mov	ecx, DWORD PTR _length$[ebp]
	shl	ecx, 8
	or	eax, ecx
	or	eax, 192				; 000000c0H
	or	eax, DWORD PTR _tag$[ebp]
; Line 328
	pop	edi
	pop	esi
	pop	ebx
	mov	esp, ebp
	pop	ebp
	ret	0
?makeCE32FromTagIndexAndLength@Collation@icu_56@@SAIHHH@Z ENDP ; icu_56::Collation::makeCE32FromTagIndexAndLength
_TEXT	ENDS
PUBLIC	?makeCE32FromTagAndIndex@Collation@icu_56@@SAIHH@Z ; icu_56::Collation::makeCE32FromTagAndIndex
; Function compile flags: /Odtp /RTCsu /ZI
;	COMDAT ?makeCE32FromTagAndIndex@Collation@icu_56@@SAIHH@Z
_TEXT	SEGMENT
_tag$ = 8						; size = 4
_index$ = 12						; size = 4
?makeCE32FromTagAndIndex@Collation@icu_56@@SAIHH@Z PROC	; icu_56::Collation::makeCE32FromTagAndIndex, COMDAT
; Line 330
	push	ebp
	mov	ebp, esp
	sub	esp, 192				; 000000c0H
	push	ebx
	push	esi
	push	edi
	lea	edi, DWORD PTR [ebp-192]
	mov	ecx, 48					; 00000030H
	mov	eax, -858993460				; ccccccccH
	rep stosd
; Line 331
	mov	eax, DWORD PTR _index$[ebp]
	shl	eax, 13					; 0000000dH
	or	eax, 192				; 000000c0H
	or	eax, DWORD PTR _tag$[ebp]
; Line 332
	pop	edi
	pop	esi
	pop	ebx
	mov	esp, ebp
	pop	ebp
	ret	0
?makeCE32FromTagAndIndex@Collation@icu_56@@SAIHH@Z ENDP	; icu_56::Collation::makeCE32FromTagAndIndex
_TEXT	ENDS
PUBLIC	?isSpecialCE32@Collation@icu_56@@SACI@Z		; icu_56::Collation::isSpecialCE32
; Function compile flags: /Odtp /RTCsu /ZI
;	COMDAT ?isSpecialCE32@Collation@icu_56@@SACI@Z
_TEXT	SEGMENT
_ce32$ = 8						; size = 4
?isSpecialCE32@Collation@icu_56@@SACI@Z PROC		; icu_56::Collation::isSpecialCE32, COMDAT
; Line 334
	push	ebp
	mov	ebp, esp
	sub	esp, 192				; 000000c0H
	push	ebx
	push	esi
	push	edi
	lea	edi, DWORD PTR [ebp-192]
	mov	ecx, 48					; 00000030H
	mov	eax, -858993460				; ccccccccH
	rep stosd
; Line 335
	mov	eax, DWORD PTR _ce32$[ebp]
	and	eax, 255				; 000000ffH
	cmp	eax, 192				; 000000c0H
	setae	al
; Line 336
	pop	edi
	pop	esi
	pop	ebx
	mov	esp, ebp
	pop	ebp
	ret	0
?isSpecialCE32@Collation@icu_56@@SACI@Z ENDP		; icu_56::Collation::isSpecialCE32
_TEXT	ENDS
PUBLIC	?tagFromCE32@Collation@icu_56@@SAHI@Z		; icu_56::Collation::tagFromCE32
; Function compile flags: /Odtp /RTCsu /ZI
;	COMDAT ?tagFromCE32@Collation@icu_56@@SAHI@Z
_TEXT	SEGMENT
_ce32$ = 8						; size = 4
?tagFromCE32@Collation@icu_56@@SAHI@Z PROC		; icu_56::Collation::tagFromCE32, COMDAT
; Line 338
	push	ebp
	mov	ebp, esp
	sub	esp, 192				; 000000c0H
	push	ebx
	push	esi
	push	edi
	lea	edi, DWORD PTR [ebp-192]
	mov	ecx, 48					; 00000030H
	mov	eax, -858993460				; ccccccccH
	rep stosd
; Line 339
	mov	eax, DWORD PTR _ce32$[ebp]
	and	eax, 15					; 0000000fH
; Line 340
	pop	edi
	pop	esi
	pop	ebx
	mov	esp, ebp
	pop	ebp
	ret	0
?tagFromCE32@Collation@icu_56@@SAHI@Z ENDP		; icu_56::Collation::tagFromCE32
_TEXT	ENDS
PUBLIC	?hasCE32Tag@Collation@icu_56@@SACIH@Z		; icu_56::Collation::hasCE32Tag
; Function compile flags: /Odtp /RTCsu /ZI
;	COMDAT ?hasCE32Tag@Collation@icu_56@@SACIH@Z
_TEXT	SEGMENT
tv71 = -193						; size = 1
_ce32$ = 8						; size = 4
_tag$ = 12						; size = 4
?hasCE32Tag@Collation@icu_56@@SACIH@Z PROC		; icu_56::Collation::hasCE32Tag, COMDAT
; Line 342
	push	ebp
	mov	ebp, esp
	sub	esp, 196				; 000000c4H
	push	ebx
	push	esi
	push	edi
	lea	edi, DWORD PTR [ebp-196]
	mov	ecx, 49					; 00000031H
	mov	eax, -858993460				; ccccccccH
	rep stosd
; Line 343
	mov	eax, DWORD PTR _ce32$[ebp]
	push	eax
	call	?isSpecialCE32@Collation@icu_56@@SACI@Z	; icu_56::Collation::isSpecialCE32
	add	esp, 4
	movsx	ecx, al
	test	ecx, ecx
	je	SHORT $LN3@hasCE32Tag
	mov	edx, DWORD PTR _ce32$[ebp]
	push	edx
	call	?tagFromCE32@Collation@icu_56@@SAHI@Z	; icu_56::Collation::tagFromCE32
	add	esp, 4
	cmp	eax, DWORD PTR _tag$[ebp]
	jne	SHORT $LN3@hasCE32Tag
	mov	BYTE PTR tv71[ebp], 1
	jmp	SHORT $LN4@hasCE32Tag
$LN3@hasCE32Tag:
	mov	BYTE PTR tv71[ebp], 0
$LN4@hasCE32Tag:
	mov	al, BYTE PTR tv71[ebp]
; Line 344
	pop	edi
	pop	esi
	pop	ebx
	add	esp, 196				; 000000c4H
	cmp	ebp, esp
	call	__RTC_CheckEsp
	mov	esp, ebp
	pop	ebp
	ret	0
?hasCE32Tag@Collation@icu_56@@SACIH@Z ENDP		; icu_56::Collation::hasCE32Tag
_TEXT	ENDS
PUBLIC	?isLongPrimaryCE32@Collation@icu_56@@SACI@Z	; icu_56::Collation::isLongPrimaryCE32
; Function compile flags: /Odtp /RTCsu /ZI
;	COMDAT ?isLongPrimaryCE32@Collation@icu_56@@SACI@Z
_TEXT	SEGMENT
_ce32$ = 8						; size = 4
?isLongPrimaryCE32@Collation@icu_56@@SACI@Z PROC	; icu_56::Collation::isLongPrimaryCE32, COMDAT
; Line 346
	push	ebp
	mov	ebp, esp
	sub	esp, 192				; 000000c0H
	push	ebx
	push	esi
	push	edi
	lea	edi, DWORD PTR [ebp-192]
	mov	ecx, 48					; 00000030H
	mov	eax, -858993460				; ccccccccH
	rep stosd
; Line 347
	push	1
	mov	eax, DWORD PTR _ce32$[ebp]
	push	eax
	call	?hasCE32Tag@Collation@icu_56@@SACIH@Z	; icu_56::Collation::hasCE32Tag
	add	esp, 8
; Line 348
	pop	edi
	pop	esi
	pop	ebx
	add	esp, 192				; 000000c0H
	cmp	ebp, esp
	call	__RTC_CheckEsp
	mov	esp, ebp
	pop	ebp
	ret	0
?isLongPrimaryCE32@Collation@icu_56@@SACI@Z ENDP	; icu_56::Collation::isLongPrimaryCE32
_TEXT	ENDS
PUBLIC	?isSimpleOrLongCE32@Collation@icu_56@@SACI@Z	; icu_56::Collation::isSimpleOrLongCE32
; Function compile flags: /Odtp /RTCsu /ZI
;	COMDAT ?isSimpleOrLongCE32@Collation@icu_56@@SACI@Z
_TEXT	SEGMENT
tv74 = -193						; size = 1
_ce32$ = 8						; size = 4
?isSimpleOrLongCE32@Collation@icu_56@@SACI@Z PROC	; icu_56::Collation::isSimpleOrLongCE32, COMDAT
; Line 350
	push	ebp
	mov	ebp, esp
	sub	esp, 196				; 000000c4H
	push	ebx
	push	esi
	push	edi
	lea	edi, DWORD PTR [ebp-196]
	mov	ecx, 49					; 00000031H
	mov	eax, -858993460				; ccccccccH
	rep stosd
; Line 353
	mov	eax, DWORD PTR _ce32$[ebp]
	push	eax
	call	?isSpecialCE32@Collation@icu_56@@SACI@Z	; icu_56::Collation::isSpecialCE32
	add	esp, 4
	movsx	ecx, al
	test	ecx, ecx
	je	SHORT $LN3@isSimpleOr
	mov	edx, DWORD PTR _ce32$[ebp]
	push	edx
	call	?tagFromCE32@Collation@icu_56@@SAHI@Z	; icu_56::Collation::tagFromCE32
	add	esp, 4
	cmp	eax, 1
	je	SHORT $LN3@isSimpleOr
	mov	eax, DWORD PTR _ce32$[ebp]
	push	eax
	call	?tagFromCE32@Collation@icu_56@@SAHI@Z	; icu_56::Collation::tagFromCE32
	add	esp, 4
	cmp	eax, 2
	je	SHORT $LN3@isSimpleOr
	mov	BYTE PTR tv74[ebp], 0
	jmp	SHORT $LN4@isSimpleOr
$LN3@isSimpleOr:
	mov	BYTE PTR tv74[ebp], 1
$LN4@isSimpleOr:
	mov	al, BYTE PTR tv74[ebp]
; Line 354
	pop	edi
	pop	esi
	pop	ebx
	add	esp, 196				; 000000c4H
	cmp	ebp, esp
	call	__RTC_CheckEsp
	mov	esp, ebp
	pop	ebp
	ret	0
?isSimpleOrLongCE32@Collation@icu_56@@SACI@Z ENDP	; icu_56::Collation::isSimpleOrLongCE32
_TEXT	ENDS
PUBLIC	?isSelfContainedCE32@Collation@icu_56@@SACI@Z	; icu_56::Collation::isSelfContainedCE32
; Function compile flags: /Odtp /RTCsu /ZI
;	COMDAT ?isSelfContainedCE32@Collation@icu_56@@SACI@Z
_TEXT	SEGMENT
tv77 = -193						; size = 1
_ce32$ = 8						; size = 4
?isSelfContainedCE32@Collation@icu_56@@SACI@Z PROC	; icu_56::Collation::isSelfContainedCE32, COMDAT
; Line 359
	push	ebp
	mov	ebp, esp
	sub	esp, 196				; 000000c4H
	push	ebx
	push	esi
	push	edi
	lea	edi, DWORD PTR [ebp-196]
	mov	ecx, 49					; 00000031H
	mov	eax, -858993460				; ccccccccH
	rep stosd
; Line 363
	mov	eax, DWORD PTR _ce32$[ebp]
	push	eax
	call	?isSpecialCE32@Collation@icu_56@@SACI@Z	; icu_56::Collation::isSpecialCE32
	add	esp, 4
	movsx	ecx, al
	test	ecx, ecx
	je	SHORT $LN3@isSelfCont
	mov	edx, DWORD PTR _ce32$[ebp]
	push	edx
	call	?tagFromCE32@Collation@icu_56@@SAHI@Z	; icu_56::Collation::tagFromCE32
	add	esp, 4
	cmp	eax, 1
	je	SHORT $LN3@isSelfCont
	mov	eax, DWORD PTR _ce32$[ebp]
	push	eax
	call	?tagFromCE32@Collation@icu_56@@SAHI@Z	; icu_56::Collation::tagFromCE32
	add	esp, 4
	cmp	eax, 2
	je	SHORT $LN3@isSelfCont
	mov	ecx, DWORD PTR _ce32$[ebp]
	push	ecx
	call	?tagFromCE32@Collation@icu_56@@SAHI@Z	; icu_56::Collation::tagFromCE32
	add	esp, 4
	cmp	eax, 4
	je	SHORT $LN3@isSelfCont
	mov	BYTE PTR tv77[ebp], 0
	jmp	SHORT $LN4@isSelfCont
$LN3@isSelfCont:
	mov	BYTE PTR tv77[ebp], 1
$LN4@isSelfCont:
	mov	al, BYTE PTR tv77[ebp]
; Line 364
	pop	edi
	pop	esi
	pop	ebx
	add	esp, 196				; 000000c4H
	cmp	ebp, esp
	call	__RTC_CheckEsp
	mov	esp, ebp
	pop	ebp
	ret	0
?isSelfContainedCE32@Collation@icu_56@@SACI@Z ENDP	; icu_56::Collation::isSelfContainedCE32
_TEXT	ENDS
PUBLIC	?isPrefixCE32@Collation@icu_56@@SACI@Z		; icu_56::Collation::isPrefixCE32
; Function compile flags: /Odtp /RTCsu /ZI
;	COMDAT ?isPrefixCE32@Collation@icu_56@@SACI@Z
_TEXT	SEGMENT
_ce32$ = 8						; size = 4
?isPrefixCE32@Collation@icu_56@@SACI@Z PROC		; icu_56::Collation::isPrefixCE32, COMDAT
; Line 366
	push	ebp
	mov	ebp, esp
	sub	esp, 192				; 000000c0H
	push	ebx
	push	esi
	push	edi
	lea	edi, DWORD PTR [ebp-192]
	mov	ecx, 48					; 00000030H
	mov	eax, -858993460				; ccccccccH
	rep stosd
; Line 367
	push	8
	mov	eax, DWORD PTR _ce32$[ebp]
	push	eax
	call	?hasCE32Tag@Collation@icu_56@@SACIH@Z	; icu_56::Collation::hasCE32Tag
	add	esp, 8
; Line 368
	pop	edi
	pop	esi
	pop	ebx
	add	esp, 192				; 000000c0H
	cmp	ebp, esp
	call	__RTC_CheckEsp
	mov	esp, ebp
	pop	ebp
	ret	0
?isPrefixCE32@Collation@icu_56@@SACI@Z ENDP		; icu_56::Collation::isPrefixCE32
_TEXT	ENDS
PUBLIC	?isContractionCE32@Collation@icu_56@@SACI@Z	; icu_56::Collation::isContractionCE32
; Function compile flags: /Odtp /RTCsu /ZI
;	COMDAT ?isContractionCE32@Collation@icu_56@@SACI@Z
_TEXT	SEGMENT
_ce32$ = 8						; size = 4
?isContractionCE32@Collation@icu_56@@SACI@Z PROC	; icu_56::Collation::isContractionCE32, COMDAT
; Line 370
	push	ebp
	mov	ebp, esp
	sub	esp, 192				; 000000c0H
	push	ebx
	push	esi
	push	edi
	lea	edi, DWORD PTR [ebp-192]
	mov	ecx, 48					; 00000030H
	mov	eax, -858993460				; ccccccccH
	rep stosd
; Line 371
	push	9
	mov	eax, DWORD PTR _ce32$[ebp]
	push	eax
	call	?hasCE32Tag@Collation@icu_56@@SACIH@Z	; icu_56::Collation::hasCE32Tag
	add	esp, 8
; Line 372
	pop	edi
	pop	esi
	pop	ebx
	add	esp, 192				; 000000c0H
	cmp	ebp, esp
	call	__RTC_CheckEsp
	mov	esp, ebp
	pop	ebp
	ret	0
?isContractionCE32@Collation@icu_56@@SACI@Z ENDP	; icu_56::Collation::isContractionCE32
_TEXT	ENDS
PUBLIC	?ce32HasContext@Collation@icu_56@@SACI@Z	; icu_56::Collation::ce32HasContext
; Function compile flags: /Odtp /RTCsu /ZI
;	COMDAT ?ce32HasContext@Collation@icu_56@@SACI@Z
_TEXT	SEGMENT
tv74 = -193						; size = 1
_ce32$ = 8						; size = 4
?ce32HasContext@Collation@icu_56@@SACI@Z PROC		; icu_56::Collation::ce32HasContext, COMDAT
; Line 374
	push	ebp
	mov	ebp, esp
	sub	esp, 196				; 000000c4H
	push	ebx
	push	esi
	push	edi
	lea	edi, DWORD PTR [ebp-196]
	mov	ecx, 49					; 00000031H
	mov	eax, -858993460				; ccccccccH
	rep stosd
; Line 377
	mov	eax, DWORD PTR _ce32$[ebp]
	push	eax
	call	?isSpecialCE32@Collation@icu_56@@SACI@Z	; icu_56::Collation::isSpecialCE32
	add	esp, 4
	movsx	ecx, al
	test	ecx, ecx
	je	SHORT $LN4@ce32HasCon
	mov	edx, DWORD PTR _ce32$[ebp]
	push	edx
	call	?tagFromCE32@Collation@icu_56@@SAHI@Z	; icu_56::Collation::tagFromCE32
	add	esp, 4
	cmp	eax, 8
	je	SHORT $LN3@ce32HasCon
	mov	eax, DWORD PTR _ce32$[ebp]
	push	eax
	call	?tagFromCE32@Collation@icu_56@@SAHI@Z	; icu_56::Collation::tagFromCE32
	add	esp, 4
	cmp	eax, 9
	jne	SHORT $LN4@ce32HasCon
$LN3@ce32HasCon:
	mov	BYTE PTR tv74[ebp], 1
	jmp	SHORT $LN5@ce32HasCon
$LN4@ce32HasCon:
	mov	BYTE PTR tv74[ebp], 0
$LN5@ce32HasCon:
	mov	al, BYTE PTR tv74[ebp]
; Line 378
	pop	edi
	pop	esi
	pop	ebx
	add	esp, 196				; 000000c4H
	cmp	ebp, esp
	call	__RTC_CheckEsp
	mov	esp, ebp
	pop	ebp
	ret	0
?ce32HasContext@Collation@icu_56@@SACI@Z ENDP		; icu_56::Collation::ce32HasContext
_TEXT	ENDS
PUBLIC	?latinCE0FromCE32@Collation@icu_56@@SA_JI@Z	; icu_56::Collation::latinCE0FromCE32
; Function compile flags: /Odtp /RTCsu /ZI
;	COMDAT ?latinCE0FromCE32@Collation@icu_56@@SA_JI@Z
_TEXT	SEGMENT
_ce32$ = 8						; size = 4
?latinCE0FromCE32@Collation@icu_56@@SA_JI@Z PROC	; icu_56::Collation::latinCE0FromCE32, COMDAT
; Line 384
	push	ebp
	mov	ebp, esp
	sub	esp, 192				; 000000c0H
	push	ebx
	push	esi
	push	edi
	lea	edi, DWORD PTR [ebp-192]
	mov	ecx, 48					; 00000030H
	mov	eax, -858993460				; ccccccccH
	rep stosd
; Line 385
	mov	eax, DWORD PTR _ce32$[ebp]
	and	eax, -16777216				; ff000000H
	xor	edx, edx
	mov	cl, 32					; 00000020H
	call	__allshl
	or	eax, 83886080				; 05000000H
	mov	ecx, DWORD PTR _ce32$[ebp]
	and	ecx, 16711680				; 00ff0000H
	shr	ecx, 8
	xor	esi, esi
	or	eax, ecx
	or	edx, esi
; Line 386
	pop	edi
	pop	esi
	pop	ebx
	add	esp, 192				; 000000c0H
	cmp	ebp, esp
	call	__RTC_CheckEsp
	mov	esp, ebp
	pop	ebp
	ret	0
?latinCE0FromCE32@Collation@icu_56@@SA_JI@Z ENDP	; icu_56::Collation::latinCE0FromCE32
_TEXT	ENDS
PUBLIC	?latinCE1FromCE32@Collation@icu_56@@SA_JI@Z	; icu_56::Collation::latinCE1FromCE32
; Function compile flags: /Odtp /RTCsu /ZI
;	COMDAT ?latinCE1FromCE32@Collation@icu_56@@SA_JI@Z
_TEXT	SEGMENT
_ce32$ = 8						; size = 4
?latinCE1FromCE32@Collation@icu_56@@SA_JI@Z PROC	; icu_56::Collation::latinCE1FromCE32, COMDAT
; Line 392
	push	ebp
	mov	ebp, esp
	sub	esp, 192				; 000000c0H
	push	ebx
	push	esi
	push	edi
	lea	edi, DWORD PTR [ebp-192]
	mov	ecx, 48					; 00000030H
	mov	eax, -858993460				; ccccccccH
	rep stosd
; Line 393
	mov	eax, DWORD PTR _ce32$[ebp]
	and	eax, 65280				; 0000ff00H
	shl	eax, 16					; 00000010H
	or	eax, 1280				; 00000500H
	xor	edx, edx
; Line 394
	pop	edi
	pop	esi
	pop	ebx
	mov	esp, ebp
	pop	ebp
	ret	0
?latinCE1FromCE32@Collation@icu_56@@SA_JI@Z ENDP	; icu_56::Collation::latinCE1FromCE32
_TEXT	ENDS
PUBLIC	?indexFromCE32@Collation@icu_56@@SAHI@Z		; icu_56::Collation::indexFromCE32
; Function compile flags: /Odtp /RTCsu /ZI
;	COMDAT ?indexFromCE32@Collation@icu_56@@SAHI@Z
_TEXT	SEGMENT
_ce32$ = 8						; size = 4
?indexFromCE32@Collation@icu_56@@SAHI@Z PROC		; icu_56::Collation::indexFromCE32, COMDAT
; Line 399
	push	ebp
	mov	ebp, esp
	sub	esp, 192				; 000000c0H
	push	ebx
	push	esi
	push	edi
	lea	edi, DWORD PTR [ebp-192]
	mov	ecx, 48					; 00000030H
	mov	eax, -858993460				; ccccccccH
	rep stosd
; Line 400
	mov	eax, DWORD PTR _ce32$[ebp]
	shr	eax, 13					; 0000000dH
; Line 401
	pop	edi
	pop	esi
	pop	ebx
	mov	esp, ebp
	pop	ebp
	ret	0
?indexFromCE32@Collation@icu_56@@SAHI@Z ENDP		; icu_56::Collation::indexFromCE32
_TEXT	ENDS
PUBLIC	?lengthFromCE32@Collation@icu_56@@SAHI@Z	; icu_56::Collation::lengthFromCE32
; Function compile flags: /Odtp /RTCsu /ZI
;	COMDAT ?lengthFromCE32@Collation@icu_56@@SAHI@Z
_TEXT	SEGMENT
_ce32$ = 8						; size = 4
?lengthFromCE32@Collation@icu_56@@SAHI@Z PROC		; icu_56::Collation::lengthFromCE32, COMDAT
; Line 406
	push	ebp
	mov	ebp, esp
	sub	esp, 192				; 000000c0H
	push	ebx
	push	esi
	push	edi
	lea	edi, DWORD PTR [ebp-192]
	mov	ecx, 48					; 00000030H
	mov	eax, -858993460				; ccccccccH
	rep stosd
; Line 407
	mov	eax, DWORD PTR _ce32$[ebp]
	shr	eax, 8
	and	eax, 31					; 0000001fH
; Line 408
	pop	edi
	pop	esi
	pop	ebx
	mov	esp, ebp
	pop	ebp
	ret	0
?lengthFromCE32@Collation@icu_56@@SAHI@Z ENDP		; icu_56::Collation::lengthFromCE32
_TEXT	ENDS
PUBLIC	?digitFromCE32@Collation@icu_56@@SADI@Z		; icu_56::Collation::digitFromCE32
; Function compile flags: /Odtp /RTCsu /ZI
;	COMDAT ?digitFromCE32@Collation@icu_56@@SADI@Z
_TEXT	SEGMENT
_ce32$ = 8						; size = 4
?digitFromCE32@Collation@icu_56@@SADI@Z PROC		; icu_56::Collation::digitFromCE32, COMDAT
; Line 413
	push	ebp
	mov	ebp, esp
	sub	esp, 192				; 000000c0H
	push	ebx
	push	esi
	push	edi
	lea	edi, DWORD PTR [ebp-192]
	mov	ecx, 48					; 00000030H
	mov	eax, -858993460				; ccccccccH
	rep stosd
; Line 414
	mov	eax, DWORD PTR _ce32$[ebp]
	shr	eax, 8
	and	eax, 15					; 0000000fH
; Line 415
	pop	edi
	pop	esi
	pop	ebx
	mov	esp, ebp
	pop	ebp
	ret	0
?digitFromCE32@Collation@icu_56@@SADI@Z ENDP		; icu_56::Collation::digitFromCE32
_TEXT	ENDS
PUBLIC	?ceFromSimpleCE32@Collation@icu_56@@SA_JI@Z	; icu_56::Collation::ceFromSimpleCE32
; Function compile flags: /Odtp /RTCsu /ZI
;	COMDAT ?ceFromSimpleCE32@Collation@icu_56@@SA_JI@Z
_TEXT	SEGMENT
_ce32$ = 8						; size = 4
?ceFromSimpleCE32@Collation@icu_56@@SA_JI@Z PROC	; icu_56::Collation::ceFromSimpleCE32, COMDAT
; Line 418
	push	ebp
	mov	ebp, esp
	sub	esp, 192				; 000000c0H
	push	ebx
	push	esi
	push	edi
	lea	edi, DWORD PTR [ebp-192]
	mov	ecx, 48					; 00000030H
	mov	eax, -858993460				; ccccccccH
	rep stosd
; Line 421
	mov	eax, DWORD PTR _ce32$[ebp]
	and	eax, -65536				; ffff0000H
	xor	edx, edx
	mov	cl, 32					; 00000020H
	call	__allshl
	mov	ecx, DWORD PTR _ce32$[ebp]
	and	ecx, 65280				; 0000ff00H
	shl	ecx, 16					; 00000010H
	xor	esi, esi
	or	eax, ecx
	or	edx, esi
	mov	ecx, DWORD PTR _ce32$[ebp]
	and	ecx, 255				; 000000ffH
	shl	ecx, 8
	xor	esi, esi
	or	eax, ecx
	or	edx, esi
; Line 422
	pop	edi
	pop	esi
	pop	ebx
	add	esp, 192				; 000000c0H
	cmp	ebp, esp
	call	__RTC_CheckEsp
	mov	esp, ebp
	pop	ebp
	ret	0
?ceFromSimpleCE32@Collation@icu_56@@SA_JI@Z ENDP	; icu_56::Collation::ceFromSimpleCE32
_TEXT	ENDS
PUBLIC	?ceFromCE32@Collation@icu_56@@SA_JI@Z		; icu_56::Collation::ceFromCE32
; Function compile flags: /Odtp /RTCsu /ZI
;	COMDAT ?ceFromCE32@Collation@icu_56@@SA_JI@Z
_TEXT	SEGMENT
_tertiary$ = -8						; size = 4
_ce32$ = 8						; size = 4
?ceFromCE32@Collation@icu_56@@SA_JI@Z PROC		; icu_56::Collation::ceFromCE32, COMDAT
; Line 425
	push	ebp
	mov	ebp, esp
	sub	esp, 204				; 000000ccH
	push	ebx
	push	esi
	push	edi
	lea	edi, DWORD PTR [ebp-204]
	mov	ecx, 51					; 00000033H
	mov	eax, -858993460				; ccccccccH
	rep stosd
; Line 426
	mov	eax, DWORD PTR _ce32$[ebp]
	and	eax, 255				; 000000ffH
	mov	DWORD PTR _tertiary$[ebp], eax
; Line 427
	cmp	DWORD PTR _tertiary$[ebp], 192		; 000000c0H
	jae	SHORT $LN4@ceFromCE32
; Line 429
	mov	eax, DWORD PTR _ce32$[ebp]
	and	eax, -65536				; ffff0000H
	xor	edx, edx
	mov	cl, 32					; 00000020H
	call	__allshl
	mov	ecx, DWORD PTR _ce32$[ebp]
	and	ecx, 65280				; 0000ff00H
	shl	ecx, 16					; 00000010H
	xor	esi, esi
	or	eax, ecx
	or	edx, esi
	mov	ecx, DWORD PTR _tertiary$[ebp]
	shl	ecx, 8
	xor	esi, esi
	or	eax, ecx
	or	edx, esi
	jmp	SHORT $LN5@ceFromCE32
; Line 430
	jmp	SHORT $LN5@ceFromCE32
$LN4@ceFromCE32:
; Line 431
	mov	eax, DWORD PTR _ce32$[ebp]
	sub	eax, DWORD PTR _tertiary$[ebp]
	mov	DWORD PTR _ce32$[ebp], eax
; Line 432
	mov	eax, DWORD PTR _tertiary$[ebp]
	and	eax, 15					; 0000000fH
	cmp	eax, 1
	jne	SHORT $LN2@ceFromCE32
; Line 434
	mov	eax, DWORD PTR _ce32$[ebp]
	xor	edx, edx
	mov	cl, 32					; 00000020H
	call	__allshl
	or	eax, 83887360				; 05000500H
	jmp	SHORT $LN5@ceFromCE32
; Line 435
	jmp	SHORT $LN5@ceFromCE32
$LN2@ceFromCE32:
; Line 438
	mov	eax, DWORD PTR _ce32$[ebp]
	xor	edx, edx
$LN5@ceFromCE32:
; Line 441
	pop	edi
	pop	esi
	pop	ebx
	add	esp, 204				; 000000ccH
	cmp	ebp, esp
	call	__RTC_CheckEsp
	mov	esp, ebp
	pop	ebp
	ret	0
?ceFromCE32@Collation@icu_56@@SA_JI@Z ENDP		; icu_56::Collation::ceFromCE32
_TEXT	ENDS
PUBLIC	?makeCE@Collation@icu_56@@SA_JI@Z		; icu_56::Collation::makeCE
; Function compile flags: /Odtp /RTCsu /ZI
;	COMDAT ?makeCE@Collation@icu_56@@SA_JI@Z
_TEXT	SEGMENT
_p$ = 8							; size = 4
?makeCE@Collation@icu_56@@SA_JI@Z PROC			; icu_56::Collation::makeCE, COMDAT
; Line 444
	push	ebp
	mov	ebp, esp
	sub	esp, 192				; 000000c0H
	push	ebx
	push	esi
	push	edi
	lea	edi, DWORD PTR [ebp-192]
	mov	ecx, 48					; 00000030H
	mov	eax, -858993460				; ccccccccH
	rep stosd
; Line 445
	mov	eax, DWORD PTR _p$[ebp]
	xor	edx, edx
	mov	cl, 32					; 00000020H
	call	__allshl
	or	eax, 83887360				; 05000500H
; Line 446
	pop	edi
	pop	esi
	pop	ebx
	add	esp, 192				; 000000c0H
	cmp	ebp, esp
	call	__RTC_CheckEsp
	mov	esp, ebp
	pop	ebp
	ret	0
?makeCE@Collation@icu_56@@SA_JI@Z ENDP			; icu_56::Collation::makeCE
_TEXT	ENDS
PUBLIC	?makeCE@Collation@icu_56@@SA_JIIII@Z		; icu_56::Collation::makeCE
; Function compile flags: /Odtp /RTCsu /ZI
;	COMDAT ?makeCE@Collation@icu_56@@SA_JIIII@Z
_TEXT	SEGMENT
_p$ = 8							; size = 4
_s$ = 12						; size = 4
_t$ = 16						; size = 4
_q$ = 20						; size = 4
?makeCE@Collation@icu_56@@SA_JIIII@Z PROC		; icu_56::Collation::makeCE, COMDAT
; Line 451
	push	ebp
	mov	ebp, esp
	sub	esp, 192				; 000000c0H
	push	ebx
	push	esi
	push	edi
	lea	edi, DWORD PTR [ebp-192]
	mov	ecx, 48					; 00000030H
	mov	eax, -858993460				; ccccccccH
	rep stosd
; Line 452
	mov	eax, DWORD PTR _p$[ebp]
	xor	edx, edx
	mov	cl, 32					; 00000020H
	call	__allshl
	mov	ecx, DWORD PTR _s$[ebp]
	shl	ecx, 16					; 00000010H
	xor	esi, esi
	or	eax, ecx
	or	edx, esi
	mov	ecx, DWORD PTR _t$[ebp]
	xor	esi, esi
	or	eax, ecx
	or	edx, esi
	mov	ecx, DWORD PTR _q$[ebp]
	shl	ecx, 6
	xor	esi, esi
	or	eax, ecx
	or	edx, esi
; Line 453
	pop	edi
	pop	esi
	pop	ebx
	add	esp, 192				; 000000c0H
	cmp	ebp, esp
	call	__RTC_CheckEsp
	mov	esp, ebp
	pop	ebp
	ret	0
?makeCE@Collation@icu_56@@SA_JIIII@Z ENDP		; icu_56::Collation::makeCE
_TEXT	ENDS
PUBLIC	?unassignedCEFromCodePoint@Collation@icu_56@@SA_JH@Z ; icu_56::Collation::unassignedCEFromCodePoint
EXTRN	?unassignedPrimaryFromCodePoint@Collation@icu_56@@SAIH@Z:PROC ; icu_56::Collation::unassignedPrimaryFromCodePoint
; Function compile flags: /Odtp /RTCsu /ZI
;	COMDAT ?unassignedCEFromCodePoint@Collation@icu_56@@SA_JH@Z
_TEXT	SEGMENT
_c$ = 8							; size = 4
?unassignedCEFromCodePoint@Collation@icu_56@@SA_JH@Z PROC ; icu_56::Collation::unassignedCEFromCodePoint, COMDAT
; Line 487
	push	ebp
	mov	ebp, esp
	sub	esp, 192				; 000000c0H
	push	ebx
	push	esi
	push	edi
	lea	edi, DWORD PTR [ebp-192]
	mov	ecx, 48					; 00000030H
	mov	eax, -858993460				; ccccccccH
	rep stosd
; Line 488
	mov	eax, DWORD PTR _c$[ebp]
	push	eax
	call	?unassignedPrimaryFromCodePoint@Collation@icu_56@@SAIH@Z ; icu_56::Collation::unassignedPrimaryFromCodePoint
	add	esp, 4
	push	eax
	call	?makeCE@Collation@icu_56@@SA_JI@Z	; icu_56::Collation::makeCE
	add	esp, 4
; Line 489
	pop	edi
	pop	esi
	pop	ebx
	add	esp, 192				; 000000c0H
	cmp	ebp, esp
	call	__RTC_CheckEsp
	mov	esp, ebp
	pop	ebp
	ret	0
?unassignedCEFromCodePoint@Collation@icu_56@@SA_JH@Z ENDP ; icu_56::Collation::unassignedCEFromCodePoint
_TEXT	ENDS
PUBLIC	??4Collation@icu_56@@QAEAAV01@ABV01@@Z		; icu_56::Collation::operator=
; Function compile flags: /Odtp /RTCsu /ZI
;	COMDAT ??4Collation@icu_56@@QAEAAV01@ABV01@@Z
_TEXT	SEGMENT
_this$ = -8						; size = 4
___that$ = 8						; size = 4
??4Collation@icu_56@@QAEAAV01@ABV01@@Z PROC		; icu_56::Collation::operator=, COMDAT
; _this$ = ecx
	push	ebp
	mov	ebp, esp
	sub	esp, 204				; 000000ccH
	push	ebx
	push	esi
	push	edi
	push	ecx
	lea	edi, DWORD PTR [ebp-204]
	mov	ecx, 51					; 00000033H
	mov	eax, -858993460				; ccccccccH
	rep stosd
	pop	ecx
	mov	DWORD PTR _this$[ebp], ecx
	mov	eax, DWORD PTR _this$[ebp]
	pop	edi
	pop	esi
	pop	ebx
	mov	esp, ebp
	pop	ebp
	ret	4
??4Collation@icu_56@@QAEAAV01@ABV01@@Z ENDP		; icu_56::Collation::operator=
_TEXT	ENDS
PUBLIC	??0CollationData@icu_56@@QAE@ABVNormalizer2Impl@1@@Z ; icu_56::CollationData::CollationData
; Function compile flags: /Odtp /RTCsu /ZI
;	COMDAT ??0CollationData@icu_56@@QAE@ABVNormalizer2Impl@1@@Z
_TEXT	SEGMENT
_this$ = -8						; size = 4
_nfc$ = 8						; size = 4
??0CollationData@icu_56@@QAE@ABVNormalizer2Impl@1@@Z PROC ; icu_56::CollationData::CollationData, COMDAT
; _this$ = ecx
; File d:\mozilla\intl\icu\source\i18n\collationdata.h
; Line 64
	push	ebp
	mov	ebp, esp
	sub	esp, 204				; 000000ccH
	push	ebx
	push	esi
	push	edi
	push	ecx
	lea	edi, DWORD PTR [ebp-204]
	mov	ecx, 51					; 00000033H
	mov	eax, -858993460				; ccccccccH
	rep stosd
	pop	ecx
	mov	DWORD PTR _this$[ebp], ecx
	mov	eax, DWORD PTR _this$[ebp]
	mov	DWORD PTR [eax], 0
	mov	eax, DWORD PTR _this$[ebp]
	mov	DWORD PTR [eax+4], 0
	mov	eax, DWORD PTR _this$[ebp]
	mov	DWORD PTR [eax+8], 0
	mov	eax, DWORD PTR _this$[ebp]
	mov	DWORD PTR [eax+12], 0
	mov	eax, DWORD PTR _this$[ebp]
	mov	DWORD PTR [eax+16], 0
	mov	eax, DWORD PTR _this$[ebp]
	mov	DWORD PTR [eax+20], 0
	mov	eax, DWORD PTR _this$[ebp]
	mov	ecx, DWORD PTR _nfc$[ebp]
	mov	DWORD PTR [eax+24], ecx
	mov	eax, DWORD PTR _this$[ebp]
	mov	DWORD PTR [eax+28], 301989888		; 12000000H
	mov	eax, DWORD PTR _this$[ebp]
	mov	DWORD PTR [eax+32], 0
	mov	eax, DWORD PTR _this$[ebp]
	mov	DWORD PTR [eax+36], 0
	mov	eax, DWORD PTR _this$[ebp]
	mov	DWORD PTR [eax+40], 0
	mov	eax, DWORD PTR _this$[ebp]
	mov	DWORD PTR [eax+44], 0
	mov	eax, DWORD PTR _this$[ebp]
	mov	DWORD PTR [eax+48], 0
	mov	eax, DWORD PTR _this$[ebp]
	mov	DWORD PTR [eax+52], 0
	mov	eax, DWORD PTR _this$[ebp]
	mov	DWORD PTR [eax+56], 0
	mov	eax, DWORD PTR _this$[ebp]
	mov	DWORD PTR [eax+60], 0
	mov	eax, DWORD PTR _this$[ebp]
	mov	DWORD PTR [eax+64], 0
	mov	eax, DWORD PTR _this$[ebp]
	mov	DWORD PTR [eax+68], 0
	mov	eax, DWORD PTR _this$[ebp]
	mov	DWORD PTR [eax+72], 0
	mov	eax, DWORD PTR _this$[ebp]
	mov	DWORD PTR [eax+76], 0
	mov	eax, DWORD PTR _this$[ebp]
	mov	DWORD PTR [eax+80], 0
	mov	eax, DWORD PTR _this$[ebp]
	pop	edi
	pop	esi
	pop	ebx
	mov	esp, ebp
	pop	ebp
	ret	4
??0CollationData@icu_56@@QAE@ABVNormalizer2Impl@1@@Z ENDP ; icu_56::CollationData::CollationData
_TEXT	ENDS
PUBLIC	?getCE32@CollationData@icu_56@@QBEIH@Z		; icu_56::CollationData::getCE32
; Function compile flags: /Odtp /RTCsu /ZI
;	COMDAT ?getCE32@CollationData@icu_56@@QBEIH@Z
_TEXT	SEGMENT
tv138 = -220						; size = 4
tv139 = -216						; size = 4
tv140 = -212						; size = 4
tv141 = -208						; size = 4
_this$ = -8						; size = 4
_c$ = 8							; size = 4
?getCE32@CollationData@icu_56@@QBEIH@Z PROC		; icu_56::CollationData::getCE32, COMDAT
; _this$ = ecx
; Line 66
	push	ebp
	mov	ebp, esp
	sub	esp, 220				; 000000dcH
	push	ebx
	push	esi
	push	edi
	push	ecx
	lea	edi, DWORD PTR [ebp-220]
	mov	ecx, 55					; 00000037H
	mov	eax, -858993460				; ccccccccH
	rep stosd
	pop	ecx
	mov	DWORD PTR _this$[ebp], ecx
; Line 67
	cmp	DWORD PTR _c$[ebp], 55296		; 0000d800H
	jae	SHORT $LN9@getCE32
	mov	eax, DWORD PTR _this$[ebp]
	mov	ecx, DWORD PTR [eax]
	mov	edx, DWORD PTR _c$[ebp]
	sar	edx, 5
	mov	eax, DWORD PTR [ecx]
	movzx	ecx, WORD PTR [eax+edx*2]
	mov	edx, DWORD PTR _c$[ebp]
	and	edx, 31					; 0000001fH
	lea	eax, DWORD PTR [edx+ecx*4]
	mov	DWORD PTR tv141[ebp], eax
	jmp	$LN10@getCE32
$LN9@getCE32:
	cmp	DWORD PTR _c$[ebp], 65535		; 0000ffffH
	ja	SHORT $LN7@getCE32
	mov	ecx, DWORD PTR _this$[ebp]
	mov	edx, DWORD PTR [ecx]
	xor	eax, eax
	cmp	DWORD PTR _c$[ebp], 56319		; 0000dbffH
	setg	al
	sub	eax, 1
	and	eax, 320				; 00000140H
	mov	ecx, DWORD PTR _c$[ebp]
	sar	ecx, 5
	add	eax, ecx
	mov	edx, DWORD PTR [edx]
	movzx	eax, WORD PTR [edx+eax*2]
	mov	ecx, DWORD PTR _c$[ebp]
	and	ecx, 31					; 0000001fH
	lea	edx, DWORD PTR [ecx+eax*4]
	mov	DWORD PTR tv140[ebp], edx
	jmp	$LN8@getCE32
$LN7@getCE32:
	cmp	DWORD PTR _c$[ebp], 1114111		; 0010ffffH
	jbe	SHORT $LN5@getCE32
	mov	DWORD PTR tv139[ebp], 128		; 00000080H
	jmp	SHORT $LN6@getCE32
$LN5@getCE32:
	mov	eax, DWORD PTR _this$[ebp]
	mov	ecx, DWORD PTR [eax]
	mov	edx, DWORD PTR _c$[ebp]
	cmp	edx, DWORD PTR [ecx+32]
	jl	SHORT $LN3@getCE32
	mov	eax, DWORD PTR _this$[ebp]
	mov	ecx, DWORD PTR [eax]
	mov	edx, DWORD PTR [ecx+36]
	mov	DWORD PTR tv138[ebp], edx
	jmp	SHORT $LN4@getCE32
$LN3@getCE32:
	mov	eax, DWORD PTR _this$[ebp]
	mov	ecx, DWORD PTR [eax]
	mov	edx, DWORD PTR _this$[ebp]
	mov	eax, DWORD PTR [edx]
	mov	edx, DWORD PTR _c$[ebp]
	sar	edx, 11					; 0000000bH
	mov	eax, DWORD PTR [eax]
	movzx	edx, WORD PTR [eax+edx*2+4160]
	mov	eax, DWORD PTR _c$[ebp]
	sar	eax, 5
	and	eax, 63					; 0000003fH
	add	edx, eax
	mov	ecx, DWORD PTR [ecx]
	movzx	edx, WORD PTR [ecx+edx*2]
	mov	eax, DWORD PTR _c$[ebp]
	and	eax, 31					; 0000001fH
	lea	ecx, DWORD PTR [eax+edx*4]
	mov	DWORD PTR tv138[ebp], ecx
$LN4@getCE32:
	mov	edx, DWORD PTR tv138[ebp]
	mov	DWORD PTR tv139[ebp], edx
$LN6@getCE32:
	mov	eax, DWORD PTR tv139[ebp]
	mov	DWORD PTR tv140[ebp], eax
$LN8@getCE32:
	mov	ecx, DWORD PTR tv140[ebp]
	mov	DWORD PTR tv141[ebp], ecx
$LN10@getCE32:
	mov	edx, DWORD PTR _this$[ebp]
	mov	eax, DWORD PTR [edx]
	mov	ecx, DWORD PTR [eax+8]
	mov	edx, DWORD PTR tv141[ebp]
	mov	eax, DWORD PTR [ecx+edx*4]
; Line 68
	pop	edi
	pop	esi
	pop	ebx
	mov	esp, ebp
	pop	ebp
	ret	4
?getCE32@CollationData@icu_56@@QBEIH@Z ENDP		; icu_56::CollationData::getCE32
_TEXT	ENDS
PUBLIC	?getCE32FromSupplementary@CollationData@icu_56@@QBEIH@Z ; icu_56::CollationData::getCE32FromSupplementary
; Function compile flags: /Odtp /RTCsu /ZI
;	COMDAT ?getCE32FromSupplementary@CollationData@icu_56@@QBEIH@Z
_TEXT	SEGMENT
tv84 = -208						; size = 4
_this$ = -8						; size = 4
_c$ = 8							; size = 4
?getCE32FromSupplementary@CollationData@icu_56@@QBEIH@Z PROC ; icu_56::CollationData::getCE32FromSupplementary, COMDAT
; _this$ = ecx
; Line 70
	push	ebp
	mov	ebp, esp
	sub	esp, 208				; 000000d0H
	push	ebx
	push	esi
	push	edi
	push	ecx
	lea	edi, DWORD PTR [ebp-208]
	mov	ecx, 52					; 00000034H
	mov	eax, -858993460				; ccccccccH
	rep stosd
	pop	ecx
	mov	DWORD PTR _this$[ebp], ecx
; Line 71
	mov	eax, DWORD PTR _this$[ebp]
	mov	ecx, DWORD PTR [eax]
	mov	edx, DWORD PTR _c$[ebp]
	cmp	edx, DWORD PTR [ecx+32]
	jl	SHORT $LN3@getCE32Fro
	mov	eax, DWORD PTR _this$[ebp]
	mov	ecx, DWORD PTR [eax]
	mov	edx, DWORD PTR [ecx+36]
	mov	DWORD PTR tv84[ebp], edx
	jmp	SHORT $LN4@getCE32Fro
$LN3@getCE32Fro:
	mov	eax, DWORD PTR _this$[ebp]
	mov	ecx, DWORD PTR [eax]
	mov	edx, DWORD PTR _this$[ebp]
	mov	eax, DWORD PTR [edx]
	mov	edx, DWORD PTR _c$[ebp]
	sar	edx, 11					; 0000000bH
	mov	eax, DWORD PTR [eax]
	movzx	edx, WORD PTR [eax+edx*2+4160]
	mov	eax, DWORD PTR _c$[ebp]
	sar	eax, 5
	and	eax, 63					; 0000003fH
	add	edx, eax
	mov	ecx, DWORD PTR [ecx]
	movzx	edx, WORD PTR [ecx+edx*2]
	mov	eax, DWORD PTR _c$[ebp]
	and	eax, 31					; 0000001fH
	lea	ecx, DWORD PTR [eax+edx*4]
	mov	DWORD PTR tv84[ebp], ecx
$LN4@getCE32Fro:
	mov	edx, DWORD PTR _this$[ebp]
	mov	eax, DWORD PTR [edx]
	mov	ecx, DWORD PTR [eax+8]
	mov	edx, DWORD PTR tv84[ebp]
	mov	eax, DWORD PTR [ecx+edx*4]
; Line 72
	pop	edi
	pop	esi
	pop	ebx
	mov	esp, ebp
	pop	ebp
	ret	4
?getCE32FromSupplementary@CollationData@icu_56@@QBEIH@Z ENDP ; icu_56::CollationData::getCE32FromSupplementary
_TEXT	ENDS
PUBLIC	?isDigit@CollationData@icu_56@@QBECH@Z		; icu_56::CollationData::isDigit
; Function compile flags: /Odtp /RTCsu /ZI
;	COMDAT ?isDigit@CollationData@icu_56@@QBECH@Z
_TEXT	SEGMENT
tv75 = -212						; size = 4
tv67 = -208						; size = 4
_this$ = -8						; size = 4
_c$ = 8							; size = 4
?isDigit@CollationData@icu_56@@QBECH@Z PROC		; icu_56::CollationData::isDigit, COMDAT
; _this$ = ecx
; Line 74
	push	ebp
	mov	ebp, esp
	sub	esp, 212				; 000000d4H
	push	ebx
	push	esi
	push	edi
	push	ecx
	lea	edi, DWORD PTR [ebp-212]
	mov	ecx, 53					; 00000035H
	mov	eax, -858993460				; ccccccccH
	rep stosd
	pop	ecx
	mov	DWORD PTR _this$[ebp], ecx
; Line 76
	cmp	DWORD PTR _c$[ebp], 1632		; 00000660H
	jge	SHORT $LN5@isDigit
	cmp	DWORD PTR _c$[ebp], 57			; 00000039H
	jg	SHORT $LN3@isDigit
	cmp	DWORD PTR _c$[ebp], 48			; 00000030H
	jl	SHORT $LN3@isDigit
	mov	DWORD PTR tv67[ebp], 1
	jmp	SHORT $LN4@isDigit
$LN3@isDigit:
	mov	DWORD PTR tv67[ebp], 0
$LN4@isDigit:
	mov	eax, DWORD PTR tv67[ebp]
	mov	DWORD PTR tv75[ebp], eax
	jmp	SHORT $LN6@isDigit
$LN5@isDigit:
	push	10					; 0000000aH
	mov	ecx, DWORD PTR _c$[ebp]
	push	ecx
	mov	ecx, DWORD PTR _this$[ebp]
	call	?getCE32@CollationData@icu_56@@QBEIH@Z	; icu_56::CollationData::getCE32
	push	eax
	call	?hasCE32Tag@Collation@icu_56@@SACIH@Z	; icu_56::Collation::hasCE32Tag
	add	esp, 8
	movsx	edx, al
	mov	DWORD PTR tv75[ebp], edx
$LN6@isDigit:
	mov	al, BYTE PTR tv75[ebp]
; Line 77
	pop	edi
	pop	esi
	pop	ebx
	add	esp, 212				; 000000d4H
	cmp	ebp, esp
	call	__RTC_CheckEsp
	mov	esp, ebp
	pop	ebp
	ret	4
?isDigit@CollationData@icu_56@@QBECH@Z ENDP		; icu_56::CollationData::isDigit
_TEXT	ENDS
PUBLIC	?isUnsafeBackward@CollationData@icu_56@@QBECHC@Z ; icu_56::CollationData::isUnsafeBackward
; Function compile flags: /Odtp /RTCsu /ZI
;	COMDAT ?isUnsafeBackward@CollationData@icu_56@@QBECHC@Z
_TEXT	SEGMENT
tv86 = -205						; size = 1
_this$ = -8						; size = 4
_c$ = 8							; size = 4
_numeric$ = 12						; size = 1
?isUnsafeBackward@CollationData@icu_56@@QBECHC@Z PROC	; icu_56::CollationData::isUnsafeBackward, COMDAT
; _this$ = ecx
; Line 79
	push	ebp
	mov	ebp, esp
	sub	esp, 208				; 000000d0H
	push	ebx
	push	esi
	push	edi
	push	ecx
	lea	edi, DWORD PTR [ebp-208]
	mov	ecx, 52					; 00000034H
	mov	eax, -858993460				; ccccccccH
	rep stosd
	pop	ecx
	mov	DWORD PTR _this$[ebp], ecx
; Line 80
	mov	esi, esp
	mov	eax, DWORD PTR _c$[ebp]
	push	eax
	mov	ecx, DWORD PTR _this$[ebp]
	mov	edx, DWORD PTR [ecx+48]
	mov	eax, DWORD PTR _this$[ebp]
	mov	ecx, DWORD PTR [eax+48]
	mov	edx, DWORD PTR [edx]
	mov	eax, DWORD PTR [edx+24]
	call	eax
	cmp	esi, esp
	call	__RTC_CheckEsp
	movsx	ecx, al
	test	ecx, ecx
	jne	SHORT $LN4@isUnsafeBa
	movsx	edx, BYTE PTR _numeric$[ebp]
	test	edx, edx
	je	SHORT $LN3@isUnsafeBa
	mov	eax, DWORD PTR _c$[ebp]
	push	eax
	mov	ecx, DWORD PTR _this$[ebp]
	call	?isDigit@CollationData@icu_56@@QBECH@Z	; icu_56::CollationData::isDigit
	movsx	ecx, al
	test	ecx, ecx
	jne	SHORT $LN4@isUnsafeBa
$LN3@isUnsafeBa:
	mov	BYTE PTR tv86[ebp], 0
	jmp	SHORT $LN5@isUnsafeBa
$LN4@isUnsafeBa:
	mov	BYTE PTR tv86[ebp], 1
$LN5@isUnsafeBa:
	mov	al, BYTE PTR tv86[ebp]
; Line 81
	pop	edi
	pop	esi
	pop	ebx
	add	esp, 208				; 000000d0H
	cmp	ebp, esp
	call	__RTC_CheckEsp
	mov	esp, ebp
	pop	ebp
	ret	8
?isUnsafeBackward@CollationData@icu_56@@QBECHC@Z ENDP	; icu_56::CollationData::isUnsafeBackward
_TEXT	ENDS
PUBLIC	?isCompressibleLeadByte@CollationData@icu_56@@QBECI@Z ; icu_56::CollationData::isCompressibleLeadByte
; Function compile flags: /Odtp /RTCsu /ZI
;	COMDAT ?isCompressibleLeadByte@CollationData@icu_56@@QBECI@Z
_TEXT	SEGMENT
_this$ = -8						; size = 4
_b$ = 8							; size = 4
?isCompressibleLeadByte@CollationData@icu_56@@QBECI@Z PROC ; icu_56::CollationData::isCompressibleLeadByte, COMDAT
; _this$ = ecx
; Line 83
	push	ebp
	mov	ebp, esp
	sub	esp, 204				; 000000ccH
	push	ebx
	push	esi
	push	edi
	push	ecx
	lea	edi, DWORD PTR [ebp-204]
	mov	ecx, 51					; 00000033H
	mov	eax, -858993460				; ccccccccH
	rep stosd
	pop	ecx
	mov	DWORD PTR _this$[ebp], ecx
; Line 84
	mov	eax, DWORD PTR _this$[ebp]
	mov	ecx, DWORD PTR [eax+44]
	mov	edx, DWORD PTR _b$[ebp]
	mov	al, BYTE PTR [ecx+edx]
; Line 85
	pop	edi
	pop	esi
	pop	ebx
	mov	esp, ebp
	pop	ebp
	ret	4
?isCompressibleLeadByte@CollationData@icu_56@@QBECI@Z ENDP ; icu_56::CollationData::isCompressibleLeadByte
_TEXT	ENDS
PUBLIC	?isCompressiblePrimary@CollationData@icu_56@@QBECI@Z ; icu_56::CollationData::isCompressiblePrimary
; Function compile flags: /Odtp /RTCsu /ZI
;	COMDAT ?isCompressiblePrimary@CollationData@icu_56@@QBECI@Z
_TEXT	SEGMENT
_this$ = -8						; size = 4
_p$ = 8							; size = 4
?isCompressiblePrimary@CollationData@icu_56@@QBECI@Z PROC ; icu_56::CollationData::isCompressiblePrimary, COMDAT
; _this$ = ecx
; Line 87
	push	ebp
	mov	ebp, esp
	sub	esp, 204				; 000000ccH
	push	ebx
	push	esi
	push	edi
	push	ecx
	lea	edi, DWORD PTR [ebp-204]
	mov	ecx, 51					; 00000033H
	mov	eax, -858993460				; ccccccccH
	rep stosd
	pop	ecx
	mov	DWORD PTR _this$[ebp], ecx
; Line 88
	mov	eax, DWORD PTR _p$[ebp]
	shr	eax, 24					; 00000018H
	push	eax
	mov	ecx, DWORD PTR _this$[ebp]
	call	?isCompressibleLeadByte@CollationData@icu_56@@QBECI@Z ; icu_56::CollationData::isCompressibleLeadByte
; Line 89
	pop	edi
	pop	esi
	pop	ebx
	add	esp, 204				; 000000ccH
	cmp	ebp, esp
	call	__RTC_CheckEsp
	mov	esp, ebp
	pop	ebp
	ret	4
?isCompressiblePrimary@CollationData@icu_56@@QBECI@Z ENDP ; icu_56::CollationData::isCompressiblePrimary
_TEXT	ENDS
PUBLIC	?readCE32@CollationData@icu_56@@SAIPB_W@Z	; icu_56::CollationData::readCE32
; Function compile flags: /Odtp /RTCsu /ZI
;	COMDAT ?readCE32@CollationData@icu_56@@SAIPB_W@Z
_TEXT	SEGMENT
_p$ = 8							; size = 4
?readCE32@CollationData@icu_56@@SAIPB_W@Z PROC		; icu_56::CollationData::readCE32, COMDAT
; Line 95
	push	ebp
	mov	ebp, esp
	sub	esp, 192				; 000000c0H
	push	ebx
	push	esi
	push	edi
	lea	edi, DWORD PTR [ebp-192]
	mov	ecx, 48					; 00000030H
	mov	eax, -858993460				; ccccccccH
	rep stosd
; Line 96
	mov	eax, DWORD PTR _p$[ebp]
	movzx	eax, WORD PTR [eax]
	shl	eax, 16					; 00000010H
	mov	ecx, DWORD PTR _p$[ebp]
	movzx	edx, WORD PTR [ecx+2]
	or	eax, edx
; Line 97
	pop	edi
	pop	esi
	pop	ebx
	mov	esp, ebp
	pop	ebp
	ret	0
?readCE32@CollationData@icu_56@@SAIPB_W@Z ENDP		; icu_56::CollationData::readCE32
_TEXT	ENDS
PUBLIC	?getCEFromOffsetCE32@CollationData@icu_56@@QBE_JHI@Z ; icu_56::CollationData::getCEFromOffsetCE32
EXTRN	?getThreeBytePrimaryForOffsetData@Collation@icu_56@@SAIH_J@Z:PROC ; icu_56::Collation::getThreeBytePrimaryForOffsetData
; Function compile flags: /Odtp /RTCsu /ZI
;	COMDAT ?getCEFromOffsetCE32@CollationData@icu_56@@QBE_JHI@Z
_TEXT	SEGMENT
_dataCE$ = -24						; size = 8
_this$ = -8						; size = 4
_c$ = 8							; size = 4
_ce32$ = 12						; size = 4
?getCEFromOffsetCE32@CollationData@icu_56@@QBE_JHI@Z PROC ; icu_56::CollationData::getCEFromOffsetCE32, COMDAT
; _this$ = ecx
; Line 113
	push	ebp
	mov	ebp, esp
	sub	esp, 220				; 000000dcH
	push	ebx
	push	esi
	push	edi
	push	ecx
	lea	edi, DWORD PTR [ebp-220]
	mov	ecx, 55					; 00000037H
	mov	eax, -858993460				; ccccccccH
	rep stosd
	pop	ecx
	mov	DWORD PTR _this$[ebp], ecx
; Line 114
	mov	eax, DWORD PTR _ce32$[ebp]
	push	eax
	call	?indexFromCE32@Collation@icu_56@@SAHI@Z	; icu_56::Collation::indexFromCE32
	add	esp, 4
	mov	ecx, DWORD PTR _this$[ebp]
	mov	edx, DWORD PTR [ecx+8]
	mov	ecx, DWORD PTR [edx+eax*8]
	mov	DWORD PTR _dataCE$[ebp], ecx
	mov	edx, DWORD PTR [edx+eax*8+4]
	mov	DWORD PTR _dataCE$[ebp+4], edx
; Line 115
	mov	eax, DWORD PTR _dataCE$[ebp+4]
	push	eax
	mov	ecx, DWORD PTR _dataCE$[ebp]
	push	ecx
	mov	edx, DWORD PTR _c$[ebp]
	push	edx
	call	?getThreeBytePrimaryForOffsetData@Collation@icu_56@@SAIH_J@Z ; icu_56::Collation::getThreeBytePrimaryForOffsetData
	add	esp, 12					; 0000000cH
	push	eax
	call	?makeCE@Collation@icu_56@@SA_JI@Z	; icu_56::Collation::makeCE
	add	esp, 4
; Line 116
	pop	edi
	pop	esi
	pop	ebx
	add	esp, 220				; 000000dcH
	cmp	ebp, esp
	call	__RTC_CheckEsp
	mov	esp, ebp
	pop	ebp
	ret	8
?getCEFromOffsetCE32@CollationData@icu_56@@QBE_JHI@Z ENDP ; icu_56::CollationData::getCEFromOffsetCE32
_TEXT	ENDS
PUBLIC	?getFCD16@CollationData@icu_56@@QBEGH@Z		; icu_56::CollationData::getFCD16
EXTRN	__imp_?getFCD16@Normalizer2Impl@icu_56@@QBEGH@Z:PROC
; Function compile flags: /Odtp /RTCsu /ZI
;	COMDAT ?getFCD16@CollationData@icu_56@@QBEGH@Z
_TEXT	SEGMENT
_this$ = -8						; size = 4
_c$ = 8							; size = 4
?getFCD16@CollationData@icu_56@@QBEGH@Z PROC		; icu_56::CollationData::getFCD16, COMDAT
; _this$ = ecx
; Line 127
	push	ebp
	mov	ebp, esp
	sub	esp, 204				; 000000ccH
	push	ebx
	push	esi
	push	edi
	push	ecx
	lea	edi, DWORD PTR [ebp-204]
	mov	ecx, 51					; 00000033H
	mov	eax, -858993460				; ccccccccH
	rep stosd
	pop	ecx
	mov	DWORD PTR _this$[ebp], ecx
; Line 128
	mov	esi, esp
	mov	eax, DWORD PTR _c$[ebp]
	push	eax
	mov	ecx, DWORD PTR _this$[ebp]
	mov	ecx, DWORD PTR [ecx+24]
	call	DWORD PTR __imp_?getFCD16@Normalizer2Impl@icu_56@@QBEGH@Z
	cmp	esi, esp
	call	__RTC_CheckEsp
; Line 129
	pop	edi
	pop	esi
	pop	ebx
	add	esp, 204				; 000000ccH
	cmp	ebp, esp
	call	__RTC_CheckEsp
	mov	esp, ebp
	pop	ebp
	ret	4
?getFCD16@CollationData@icu_56@@QBEGH@Z ENDP		; icu_56::CollationData::getFCD16
_TEXT	ENDS
PUBLIC	??4CollationRoot@icu_56@@QAEAAV01@ABV01@@Z	; icu_56::CollationRoot::operator=
; Function compile flags: /Odtp /RTCsu /ZI
;	COMDAT ??4CollationRoot@icu_56@@QAEAAV01@ABV01@@Z
_TEXT	SEGMENT
_this$ = -8						; size = 4
___that$ = 8						; size = 4
??4CollationRoot@icu_56@@QAEAAV01@ABV01@@Z PROC		; icu_56::CollationRoot::operator=, COMDAT
; _this$ = ecx
	push	ebp
	mov	ebp, esp
	sub	esp, 204				; 000000ccH
	push	ebx
	push	esi
	push	edi
	push	ecx
	lea	edi, DWORD PTR [ebp-204]
	mov	ecx, 51					; 00000033H
	mov	eax, -858993460				; ccccccccH
	rep stosd
	pop	ecx
	mov	DWORD PTR _this$[ebp], ecx
	mov	eax, DWORD PTR _this$[ebp]
	pop	edi
	pop	esi
	pop	ebx
	mov	esp, ebp
	pop	ebp
	ret	4
??4CollationRoot@icu_56@@QAEAAV01@ABV01@@Z ENDP		; icu_56::CollationRoot::operator=
_TEXT	ENDS
PUBLIC	??_7CollationSettings@icu_56@@6B@		; icu_56::CollationSettings::`vftable'
PUBLIC	??0CollationSettings@icu_56@@QAE@XZ		; icu_56::CollationSettings::CollationSettings
PUBLIC	??_R4CollationSettings@icu_56@@6B@		; icu_56::CollationSettings::`RTTI Complete Object Locator'
PUBLIC	??_R0?AUCollationSettings@icu_56@@@8		; icu_56::CollationSettings `RTTI Type Descriptor'
PUBLIC	??_R3CollationSettings@icu_56@@8		; icu_56::CollationSettings::`RTTI Class Hierarchy Descriptor'
PUBLIC	??_R2CollationSettings@icu_56@@8		; icu_56::CollationSettings::`RTTI Base Class Array'
PUBLIC	??_R1A@?0A@EA@CollationSettings@icu_56@@8	; icu_56::CollationSettings::`RTTI Base Class Descriptor at (0,-1,0,64)'
PUBLIC	??_R1A@?0A@EA@SharedObject@icu_56@@8		; icu_56::SharedObject::`RTTI Base Class Descriptor at (0,-1,0,64)'
PUBLIC	??_R0?AVSharedObject@icu_56@@@8			; icu_56::SharedObject `RTTI Type Descriptor'
PUBLIC	??_R3SharedObject@icu_56@@8			; icu_56::SharedObject::`RTTI Class Hierarchy Descriptor'
PUBLIC	??_R2SharedObject@icu_56@@8			; icu_56::SharedObject::`RTTI Base Class Array'
PUBLIC	??_ECollationSettings@icu_56@@UAEPAXI@Z		; icu_56::CollationSettings::`vector deleting destructor'
EXTRN	__imp_??0SharedObject@icu_56@@QAE@XZ:PROC
;	COMDAT ??_R2SharedObject@icu_56@@8
; File d:\mozilla\intl\icu\source\i18n\collationsettings.h
rdata$r	SEGMENT
??_R2SharedObject@icu_56@@8 DD FLAT:??_R1A@?0A@EA@SharedObject@icu_56@@8 ; icu_56::SharedObject::`RTTI Base Class Array'
	DD	FLAT:??_R1A@?0A@EA@UObject@icu_56@@8
	DD	FLAT:??_R13?0A@EA@UMemory@icu_56@@8
rdata$r	ENDS
;	COMDAT ??_R3SharedObject@icu_56@@8
rdata$r	SEGMENT
??_R3SharedObject@icu_56@@8 DD 00H			; icu_56::SharedObject::`RTTI Class Hierarchy Descriptor'
	DD	00H
	DD	03H
	DD	FLAT:??_R2SharedObject@icu_56@@8
rdata$r	ENDS
;	COMDAT ??_R0?AVSharedObject@icu_56@@@8
_DATA	SEGMENT
??_R0?AVSharedObject@icu_56@@@8 DD FLAT:??_7type_info@@6B@ ; icu_56::SharedObject `RTTI Type Descriptor'
	DD	00H
	DB	'.?AVSharedObject@icu_56@@', 00H
_DATA	ENDS
;	COMDAT ??_R1A@?0A@EA@SharedObject@icu_56@@8
rdata$r	SEGMENT
??_R1A@?0A@EA@SharedObject@icu_56@@8 DD FLAT:??_R0?AVSharedObject@icu_56@@@8 ; icu_56::SharedObject::`RTTI Base Class Descriptor at (0,-1,0,64)'
	DD	02H
	DD	00H
	DD	0ffffffffH
	DD	00H
	DD	040H
	DD	FLAT:??_R3SharedObject@icu_56@@8
rdata$r	ENDS
;	COMDAT ??_R1A@?0A@EA@CollationSettings@icu_56@@8
rdata$r	SEGMENT
??_R1A@?0A@EA@CollationSettings@icu_56@@8 DD FLAT:??_R0?AUCollationSettings@icu_56@@@8 ; icu_56::CollationSettings::`RTTI Base Class Descriptor at (0,-1,0,64)'
	DD	03H
	DD	00H
	DD	0ffffffffH
	DD	00H
	DD	040H
	DD	FLAT:??_R3CollationSettings@icu_56@@8
rdata$r	ENDS
;	COMDAT ??_R2CollationSettings@icu_56@@8
rdata$r	SEGMENT
??_R2CollationSettings@icu_56@@8 DD FLAT:??_R1A@?0A@EA@CollationSettings@icu_56@@8 ; icu_56::CollationSettings::`RTTI Base Class Array'
	DD	FLAT:??_R1A@?0A@EA@SharedObject@icu_56@@8
	DD	FLAT:??_R1A@?0A@EA@UObject@icu_56@@8
	DD	FLAT:??_R13?0A@EA@UMemory@icu_56@@8
rdata$r	ENDS
;	COMDAT ??_R3CollationSettings@icu_56@@8
rdata$r	SEGMENT
??_R3CollationSettings@icu_56@@8 DD 00H			; icu_56::CollationSettings::`RTTI Class Hierarchy Descriptor'
	DD	00H
	DD	04H
	DD	FLAT:??_R2CollationSettings@icu_56@@8
rdata$r	ENDS
;	COMDAT ??_R0?AUCollationSettings@icu_56@@@8
_DATA	SEGMENT
??_R0?AUCollationSettings@icu_56@@@8 DD FLAT:??_7type_info@@6B@ ; icu_56::CollationSettings `RTTI Type Descriptor'
	DD	00H
	DB	'.?AUCollationSettings@icu_56@@', 00H
_DATA	ENDS
;	COMDAT ??_R4CollationSettings@icu_56@@6B@
rdata$r	SEGMENT
??_R4CollationSettings@icu_56@@6B@ DD 00H		; icu_56::CollationSettings::`RTTI Complete Object Locator'
	DD	00H
	DD	00H
	DD	FLAT:??_R0?AUCollationSettings@icu_56@@@8
	DD	FLAT:??_R3CollationSettings@icu_56@@8
rdata$r	ENDS
;	COMDAT ??_7CollationSettings@icu_56@@6B@
CONST	SEGMENT
??_7CollationSettings@icu_56@@6B@ DD FLAT:??_R4CollationSettings@icu_56@@6B@ ; icu_56::CollationSettings::`vftable'
	DD	FLAT:??_ECollationSettings@icu_56@@UAEPAXI@Z
	DD	FLAT:?getDynamicClassID@UObject@icu_56@@UBEPAXXZ
; Function compile flags: /Odtp /RTCsu /ZI
CONST	ENDS
;	COMDAT ??0CollationSettings@icu_56@@QAE@XZ
_TEXT	SEGMENT
_this$ = -8						; size = 4
??0CollationSettings@icu_56@@QAE@XZ PROC		; icu_56::CollationSettings::CollationSettings, COMDAT
; _this$ = ecx
; Line 111
	push	ebp
	mov	ebp, esp
	sub	esp, 204				; 000000ccH
	push	ebx
	push	esi
	push	edi
	push	ecx
	lea	edi, DWORD PTR [ebp-204]
	mov	ecx, 51					; 00000033H
	mov	eax, -858993460				; ccccccccH
	rep stosd
	pop	ecx
	mov	DWORD PTR _this$[ebp], ecx
	mov	esi, esp
	mov	ecx, DWORD PTR _this$[ebp]
	call	DWORD PTR __imp_??0SharedObject@icu_56@@QAE@XZ
	cmp	esi, esp
	call	__RTC_CheckEsp
	mov	eax, DWORD PTR _this$[ebp]
	mov	DWORD PTR [eax], OFFSET ??_7CollationSettings@icu_56@@6B@
	mov	eax, DWORD PTR _this$[ebp]
	mov	DWORD PTR [eax+20], 8208		; 00002010H
	mov	eax, DWORD PTR _this$[ebp]
	mov	DWORD PTR [eax+24], 0
	mov	eax, DWORD PTR _this$[ebp]
	mov	DWORD PTR [eax+28], 0
	mov	eax, DWORD PTR _this$[ebp]
	mov	DWORD PTR [eax+32], 0
	mov	eax, DWORD PTR _this$[ebp]
	mov	DWORD PTR [eax+36], 0
	mov	eax, DWORD PTR _this$[ebp]
	mov	DWORD PTR [eax+40], 0
	mov	eax, DWORD PTR _this$[ebp]
	mov	DWORD PTR [eax+44], 0
	mov	eax, DWORD PTR _this$[ebp]
	mov	DWORD PTR [eax+48], 0
	mov	eax, DWORD PTR _this$[ebp]
	mov	DWORD PTR [eax+52], 0
	mov	eax, DWORD PTR _this$[ebp]
	mov	DWORD PTR [eax+56], -1
	mov	eax, DWORD PTR _this$[ebp]
	pop	edi
	pop	esi
	pop	ebx
	add	esp, 204				; 000000ccH
	cmp	ebp, esp
	call	__RTC_CheckEsp
	mov	esp, ebp
	pop	ebp
	ret	0
??0CollationSettings@icu_56@@QAE@XZ ENDP		; icu_56::CollationSettings::CollationSettings
_TEXT	ENDS
PUBLIC	??9CollationSettings@icu_56@@QBECABU01@@Z	; icu_56::CollationSettings::operator!=
EXTRN	??8CollationSettings@icu_56@@QBECABU01@@Z:PROC	; icu_56::CollationSettings::operator==
; Function compile flags: /Odtp /RTCsu /ZI
;	COMDAT ??9CollationSettings@icu_56@@QBECABU01@@Z
_TEXT	SEGMENT
_this$ = -8						; size = 4
_other$ = 8						; size = 4
??9CollationSettings@icu_56@@QBECABU01@@Z PROC		; icu_56::CollationSettings::operator!=, COMDAT
; _this$ = ecx
; Line 118
	push	ebp
	mov	ebp, esp
	sub	esp, 204				; 000000ccH
	push	ebx
	push	esi
	push	edi
	push	ecx
	lea	edi, DWORD PTR [ebp-204]
	mov	ecx, 51					; 00000033H
	mov	eax, -858993460				; ccccccccH
	rep stosd
	pop	ecx
	mov	DWORD PTR _this$[ebp], ecx
; Line 119
	mov	eax, DWORD PTR _other$[ebp]
	push	eax
	mov	ecx, DWORD PTR _this$[ebp]
	call	??8CollationSettings@icu_56@@QBECABU01@@Z ; icu_56::CollationSettings::operator==
	movsx	ecx, al
	test	ecx, ecx
	sete	al
; Line 120
	pop	edi
	pop	esi
	pop	ebx
	add	esp, 204				; 000000ccH
	cmp	ebp, esp
	call	__RTC_CheckEsp
	mov	esp, ebp
	pop	ebp
	ret	4
??9CollationSettings@icu_56@@QBECABU01@@Z ENDP		; icu_56::CollationSettings::operator!=
_TEXT	ENDS
PUBLIC	?hasReordering@CollationSettings@icu_56@@QBECXZ	; icu_56::CollationSettings::hasReordering
; Function compile flags: /Odtp /RTCsu /ZI
;	COMDAT ?hasReordering@CollationSettings@icu_56@@QBECXZ
_TEXT	SEGMENT
_this$ = -8						; size = 4
?hasReordering@CollationSettings@icu_56@@QBECXZ PROC	; icu_56::CollationSettings::hasReordering, COMDAT
; _this$ = ecx
; Line 132
	push	ebp
	mov	ebp, esp
	sub	esp, 204				; 000000ccH
	push	ebx
	push	esi
	push	edi
	push	ecx
	lea	edi, DWORD PTR [ebp-204]
	mov	ecx, 51					; 00000033H
	mov	eax, -858993460				; ccccccccH
	rep stosd
	pop	ecx
	mov	DWORD PTR _this$[ebp], ecx
	mov	eax, DWORD PTR _this$[ebp]
	cmp	DWORD PTR [eax+28], 0
	setne	al
	pop	edi
	pop	esi
	pop	ebx
	mov	esp, ebp
	pop	ebp
	ret	0
?hasReordering@CollationSettings@icu_56@@QBECXZ ENDP	; icu_56::CollationSettings::hasReordering
_TEXT	ENDS
PUBLIC	?reorder@CollationSettings@icu_56@@QBEII@Z	; icu_56::CollationSettings::reorder
EXTRN	?reorderEx@CollationSettings@icu_56@@ABEII@Z:PROC ; icu_56::CollationSettings::reorderEx
; Function compile flags: /Odtp /RTCsu /ZI
;	COMDAT ?reorder@CollationSettings@icu_56@@QBEII@Z
_TEXT	SEGMENT
_b$ = -17						; size = 1
_this$ = -8						; size = 4
_p$ = 8							; size = 4
?reorder@CollationSettings@icu_56@@QBEII@Z PROC		; icu_56::CollationSettings::reorder, COMDAT
; _this$ = ecx
; Line 134
	push	ebp
	mov	ebp, esp
	sub	esp, 216				; 000000d8H
	push	ebx
	push	esi
	push	edi
	push	ecx
	lea	edi, DWORD PTR [ebp-216]
	mov	ecx, 54					; 00000036H
	mov	eax, -858993460				; ccccccccH
	rep stosd
	pop	ecx
	mov	DWORD PTR _this$[ebp], ecx
; Line 135
	mov	eax, DWORD PTR _p$[ebp]
	shr	eax, 24					; 00000018H
	mov	ecx, DWORD PTR _this$[ebp]
	mov	edx, DWORD PTR [ecx+28]
	mov	al, BYTE PTR [eax+edx]
	mov	BYTE PTR _b$[ebp], al
; Line 136
	movzx	eax, BYTE PTR _b$[ebp]
	test	eax, eax
	jne	SHORT $LN2@reorder
	cmp	DWORD PTR _p$[ebp], 1
	ja	SHORT $LN3@reorder
$LN2@reorder:
; Line 137
	movzx	eax, BYTE PTR _b$[ebp]
	shl	eax, 24					; 00000018H
	mov	ecx, DWORD PTR _p$[ebp]
	and	ecx, 16777215				; 00ffffffH
	or	eax, ecx
	jmp	SHORT $LN4@reorder
; Line 138
	jmp	SHORT $LN4@reorder
$LN3@reorder:
; Line 139
	mov	eax, DWORD PTR _p$[ebp]
	push	eax
	mov	ecx, DWORD PTR _this$[ebp]
	call	?reorderEx@CollationSettings@icu_56@@ABEII@Z ; icu_56::CollationSettings::reorderEx
$LN4@reorder:
; Line 141
	pop	edi
	pop	esi
	pop	ebx
	add	esp, 216				; 000000d8H
	cmp	ebp, esp
	call	__RTC_CheckEsp
	mov	esp, ebp
	pop	ebp
	ret	4
?reorder@CollationSettings@icu_56@@QBEII@Z ENDP		; icu_56::CollationSettings::reorder
_TEXT	ENDS
PUBLIC	?getStrength@CollationSettings@icu_56@@SAHH@Z	; icu_56::CollationSettings::getStrength
; Function compile flags: /Odtp /RTCsu /ZI
;	COMDAT ?getStrength@CollationSettings@icu_56@@SAHH@Z
_TEXT	SEGMENT
_options$ = 8						; size = 4
?getStrength@CollationSettings@icu_56@@SAHH@Z PROC	; icu_56::CollationSettings::getStrength, COMDAT
; Line 145
	push	ebp
	mov	ebp, esp
	sub	esp, 192				; 000000c0H
	push	ebx
	push	esi
	push	edi
	lea	edi, DWORD PTR [ebp-192]
	mov	ecx, 48					; 00000030H
	mov	eax, -858993460				; ccccccccH
	rep stosd
; Line 146
	mov	eax, DWORD PTR _options$[ebp]
	sar	eax, 12					; 0000000cH
; Line 147
	pop	edi
	pop	esi
	pop	ebx
	mov	esp, ebp
	pop	ebp
	ret	0
?getStrength@CollationSettings@icu_56@@SAHH@Z ENDP	; icu_56::CollationSettings::getStrength
_TEXT	ENDS
PUBLIC	?getStrength@CollationSettings@icu_56@@QBEHXZ	; icu_56::CollationSettings::getStrength
; Function compile flags: /Odtp /RTCsu /ZI
;	COMDAT ?getStrength@CollationSettings@icu_56@@QBEHXZ
_TEXT	SEGMENT
_this$ = -8						; size = 4
?getStrength@CollationSettings@icu_56@@QBEHXZ PROC	; icu_56::CollationSettings::getStrength, COMDAT
; _this$ = ecx
; Line 149
	push	ebp
	mov	ebp, esp
	sub	esp, 204				; 000000ccH
	push	ebx
	push	esi
	push	edi
	push	ecx
	lea	edi, DWORD PTR [ebp-204]
	mov	ecx, 51					; 00000033H
	mov	eax, -858993460				; ccccccccH
	rep stosd
	pop	ecx
	mov	DWORD PTR _this$[ebp], ecx
; Line 150
	mov	eax, DWORD PTR _this$[ebp]
	mov	ecx, DWORD PTR [eax+20]
	push	ecx
	call	?getStrength@CollationSettings@icu_56@@SAHH@Z ; icu_56::CollationSettings::getStrength
	add	esp, 4
; Line 151
	pop	edi
	pop	esi
	pop	ebx
	add	esp, 204				; 000000ccH
	cmp	ebp, esp
	call	__RTC_CheckEsp
	mov	esp, ebp
	pop	ebp
	ret	0
?getStrength@CollationSettings@icu_56@@QBEHXZ ENDP	; icu_56::CollationSettings::getStrength
_TEXT	ENDS
PUBLIC	?getFlag@CollationSettings@icu_56@@QBE?AW4UColAttributeValue@@H@Z ; icu_56::CollationSettings::getFlag
; Function compile flags: /Odtp /RTCsu /ZI
;	COMDAT ?getFlag@CollationSettings@icu_56@@QBE?AW4UColAttributeValue@@H@Z
_TEXT	SEGMENT
_this$ = -8						; size = 4
_bit$ = 8						; size = 4
?getFlag@CollationSettings@icu_56@@QBE?AW4UColAttributeValue@@H@Z PROC ; icu_56::CollationSettings::getFlag, COMDAT
; _this$ = ecx
; Line 157
	push	ebp
	mov	ebp, esp
	sub	esp, 204				; 000000ccH
	push	ebx
	push	esi
	push	edi
	push	ecx
	lea	edi, DWORD PTR [ebp-204]
	mov	ecx, 51					; 00000033H
	mov	eax, -858993460				; ccccccccH
	rep stosd
	pop	ecx
	mov	DWORD PTR _this$[ebp], ecx
; Line 158
	mov	eax, DWORD PTR _this$[ebp]
	mov	eax, DWORD PTR [eax+20]
	and	eax, DWORD PTR _bit$[ebp]
	neg	eax
	sbb	eax, eax
	neg	eax
	add	eax, 16					; 00000010H
; Line 159
	pop	edi
	pop	esi
	pop	ebx
	mov	esp, ebp
	pop	ebp
	ret	4
?getFlag@CollationSettings@icu_56@@QBE?AW4UColAttributeValue@@H@Z ENDP ; icu_56::CollationSettings::getFlag
_TEXT	ENDS
PUBLIC	?getCaseFirst@CollationSettings@icu_56@@QBE?AW4UColAttributeValue@@XZ ; icu_56::CollationSettings::getCaseFirst
; Function compile flags: /Odtp /RTCsu /ZI
;	COMDAT ?getCaseFirst@CollationSettings@icu_56@@QBE?AW4UColAttributeValue@@XZ
_TEXT	SEGMENT
tv69 = -220						; size = 4
_option$ = -20						; size = 4
_this$ = -8						; size = 4
?getCaseFirst@CollationSettings@icu_56@@QBE?AW4UColAttributeValue@@XZ PROC ; icu_56::CollationSettings::getCaseFirst, COMDAT
; _this$ = ecx
; Line 163
	push	ebp
	mov	ebp, esp
	sub	esp, 220				; 000000dcH
	push	ebx
	push	esi
	push	edi
	push	ecx
	lea	edi, DWORD PTR [ebp-220]
	mov	ecx, 55					; 00000037H
	mov	eax, -858993460				; ccccccccH
	rep stosd
	pop	ecx
	mov	DWORD PTR _this$[ebp], ecx
; Line 164
	mov	eax, DWORD PTR _this$[ebp]
	mov	ecx, DWORD PTR [eax+20]
	and	ecx, 768				; 00000300H
	mov	DWORD PTR _option$[ebp], ecx
; Line 166
	jne	SHORT $LN3@getCaseFir
	mov	DWORD PTR tv69[ebp], 16			; 00000010H
	jmp	SHORT $LN4@getCaseFir
$LN3@getCaseFir:
	xor	eax, eax
	cmp	DWORD PTR _option$[ebp], 512		; 00000200H
	setne	al
	add	eax, 24					; 00000018H
	mov	DWORD PTR tv69[ebp], eax
$LN4@getCaseFir:
	mov	eax, DWORD PTR tv69[ebp]
; Line 167
	pop	edi
	pop	esi
	pop	ebx
	mov	esp, ebp
	pop	ebp
	ret	0
?getCaseFirst@CollationSettings@icu_56@@QBE?AW4UColAttributeValue@@XZ ENDP ; icu_56::CollationSettings::getCaseFirst
_TEXT	ENDS
PUBLIC	?getAlternateHandling@CollationSettings@icu_56@@QBE?AW4UColAttributeValue@@XZ ; icu_56::CollationSettings::getAlternateHandling
; Function compile flags: /Odtp /RTCsu /ZI
;	COMDAT ?getAlternateHandling@CollationSettings@icu_56@@QBE?AW4UColAttributeValue@@XZ
_TEXT	SEGMENT
_this$ = -8						; size = 4
?getAlternateHandling@CollationSettings@icu_56@@QBE?AW4UColAttributeValue@@XZ PROC ; icu_56::CollationSettings::getAlternateHandling, COMDAT
; _this$ = ecx
; Line 172
	push	ebp
	mov	ebp, esp
	sub	esp, 204				; 000000ccH
	push	ebx
	push	esi
	push	edi
	push	ecx
	lea	edi, DWORD PTR [ebp-204]
	mov	ecx, 51					; 00000033H
	mov	eax, -858993460				; ccccccccH
	rep stosd
	pop	ecx
	mov	DWORD PTR _this$[ebp], ecx
; Line 173
	mov	eax, DWORD PTR _this$[ebp]
	mov	eax, DWORD PTR [eax+20]
	and	eax, 12					; 0000000cH
	neg	eax
	sbb	eax, eax
	add	eax, 21					; 00000015H
; Line 174
	pop	edi
	pop	esi
	pop	ebx
	mov	esp, ebp
	pop	ebp
	ret	0
?getAlternateHandling@CollationSettings@icu_56@@QBE?AW4UColAttributeValue@@XZ ENDP ; icu_56::CollationSettings::getAlternateHandling
_TEXT	ENDS
PUBLIC	?getMaxVariable@CollationSettings@icu_56@@QBE?AW4MaxVariable@12@XZ ; icu_56::CollationSettings::getMaxVariable
; Function compile flags: /Odtp /RTCsu /ZI
;	COMDAT ?getMaxVariable@CollationSettings@icu_56@@QBE?AW4MaxVariable@12@XZ
_TEXT	SEGMENT
_this$ = -8						; size = 4
?getMaxVariable@CollationSettings@icu_56@@QBE?AW4MaxVariable@12@XZ PROC ; icu_56::CollationSettings::getMaxVariable, COMDAT
; _this$ = ecx
; Line 178
	push	ebp
	mov	ebp, esp
	sub	esp, 204				; 000000ccH
	push	ebx
	push	esi
	push	edi
	push	ecx
	lea	edi, DWORD PTR [ebp-204]
	mov	ecx, 51					; 00000033H
	mov	eax, -858993460				; ccccccccH
	rep stosd
	pop	ecx
	mov	DWORD PTR _this$[ebp], ecx
; Line 179
	mov	eax, DWORD PTR _this$[ebp]
	mov	eax, DWORD PTR [eax+20]
	and	eax, 112				; 00000070H
	sar	eax, 4
; Line 180
	pop	edi
	pop	esi
	pop	ebx
	mov	esp, ebp
	pop	ebp
	ret	0
?getMaxVariable@CollationSettings@icu_56@@QBE?AW4MaxVariable@12@XZ ENDP ; icu_56::CollationSettings::getMaxVariable
_TEXT	ENDS
PUBLIC	?isTertiaryWithCaseBits@CollationSettings@icu_56@@SACH@Z ; icu_56::CollationSettings::isTertiaryWithCaseBits
; Function compile flags: /Odtp /RTCsu /ZI
;	COMDAT ?isTertiaryWithCaseBits@CollationSettings@icu_56@@SACH@Z
_TEXT	SEGMENT
_options$ = 8						; size = 4
?isTertiaryWithCaseBits@CollationSettings@icu_56@@SACH@Z PROC ; icu_56::CollationSettings::isTertiaryWithCaseBits, COMDAT
; Line 185
	push	ebp
	mov	ebp, esp
	sub	esp, 192				; 000000c0H
	push	ebx
	push	esi
	push	edi
	lea	edi, DWORD PTR [ebp-192]
	mov	ecx, 48					; 00000030H
	mov	eax, -858993460				; ccccccccH
	rep stosd
; Line 186
	mov	eax, DWORD PTR _options$[ebp]
	and	eax, 1536				; 00000600H
	cmp	eax, 512				; 00000200H
	sete	al
; Line 187
	pop	edi
	pop	esi
	pop	ebx
	mov	esp, ebp
	pop	ebp
	ret	0
?isTertiaryWithCaseBits@CollationSettings@icu_56@@SACH@Z ENDP ; icu_56::CollationSettings::isTertiaryWithCaseBits
_TEXT	ENDS
PUBLIC	?getTertiaryMask@CollationSettings@icu_56@@SAIH@Z ; icu_56::CollationSettings::getTertiaryMask
; Function compile flags: /Odtp /RTCsu /ZI
;	COMDAT ?getTertiaryMask@CollationSettings@icu_56@@SAIH@Z
_TEXT	SEGMENT
_options$ = 8						; size = 4
?getTertiaryMask@CollationSettings@icu_56@@SAIH@Z PROC	; icu_56::CollationSettings::getTertiaryMask, COMDAT
; Line 188
	push	ebp
	mov	ebp, esp
	sub	esp, 192				; 000000c0H
	push	ebx
	push	esi
	push	edi
	lea	edi, DWORD PTR [ebp-192]
	mov	ecx, 48					; 00000030H
	mov	eax, -858993460				; ccccccccH
	rep stosd
; Line 191
	mov	eax, DWORD PTR _options$[ebp]
	push	eax
	call	?isTertiaryWithCaseBits@CollationSettings@icu_56@@SACH@Z ; icu_56::CollationSettings::isTertiaryWithCaseBits
	add	esp, 4
	movsx	eax, al
	neg	eax
	sbb	eax, eax
	and	eax, 49152				; 0000c000H
	add	eax, 16191				; 00003f3fH
; Line 192
	pop	edi
	pop	esi
	pop	ebx
	add	esp, 192				; 000000c0H
	cmp	ebp, esp
	call	__RTC_CheckEsp
	mov	esp, ebp
	pop	ebp
	ret	0
?getTertiaryMask@CollationSettings@icu_56@@SAIH@Z ENDP	; icu_56::CollationSettings::getTertiaryMask
_TEXT	ENDS
PUBLIC	?sortsTertiaryUpperCaseFirst@CollationSettings@icu_56@@SACH@Z ; icu_56::CollationSettings::sortsTertiaryUpperCaseFirst
; Function compile flags: /Odtp /RTCsu /ZI
;	COMDAT ?sortsTertiaryUpperCaseFirst@CollationSettings@icu_56@@SACH@Z
_TEXT	SEGMENT
_options$ = 8						; size = 4
?sortsTertiaryUpperCaseFirst@CollationSettings@icu_56@@SACH@Z PROC ; icu_56::CollationSettings::sortsTertiaryUpperCaseFirst, COMDAT
; Line 194
	push	ebp
	mov	ebp, esp
	sub	esp, 192				; 000000c0H
	push	ebx
	push	esi
	push	edi
	lea	edi, DWORD PTR [ebp-192]
	mov	ecx, 48					; 00000030H
	mov	eax, -858993460				; ccccccccH
	rep stosd
; Line 197
	mov	eax, DWORD PTR _options$[ebp]
	and	eax, 1792				; 00000700H
	cmp	eax, 768				; 00000300H
	sete	al
; Line 198
	pop	edi
	pop	esi
	pop	ebx
	mov	esp, ebp
	pop	ebp
	ret	0
?sortsTertiaryUpperCaseFirst@CollationSettings@icu_56@@SACH@Z ENDP ; icu_56::CollationSettings::sortsTertiaryUpperCaseFirst
_TEXT	ENDS
PUBLIC	?dontCheckFCD@CollationSettings@icu_56@@QBECXZ	; icu_56::CollationSettings::dontCheckFCD
; Function compile flags: /Odtp /RTCsu /ZI
;	COMDAT ?dontCheckFCD@CollationSettings@icu_56@@QBECXZ
_TEXT	SEGMENT
_this$ = -8						; size = 4
?dontCheckFCD@CollationSettings@icu_56@@QBECXZ PROC	; icu_56::CollationSettings::dontCheckFCD, COMDAT
; _this$ = ecx
; Line 200
	push	ebp
	mov	ebp, esp
	sub	esp, 204				; 000000ccH
	push	ebx
	push	esi
	push	edi
	push	ecx
	lea	edi, DWORD PTR [ebp-204]
	mov	ecx, 51					; 00000033H
	mov	eax, -858993460				; ccccccccH
	rep stosd
	pop	ecx
	mov	DWORD PTR _this$[ebp], ecx
; Line 201
	mov	eax, DWORD PTR _this$[ebp]
	mov	ecx, DWORD PTR [eax+20]
	and	ecx, 1
	sete	al
; Line 202
	pop	edi
	pop	esi
	pop	ebx
	mov	esp, ebp
	pop	ebp
	ret	0
?dontCheckFCD@CollationSettings@icu_56@@QBECXZ ENDP	; icu_56::CollationSettings::dontCheckFCD
_TEXT	ENDS
PUBLIC	?hasBackwardSecondary@CollationSettings@icu_56@@QBECXZ ; icu_56::CollationSettings::hasBackwardSecondary
; Function compile flags: /Odtp /RTCsu /ZI
;	COMDAT ?hasBackwardSecondary@CollationSettings@icu_56@@QBECXZ
_TEXT	SEGMENT
_this$ = -8						; size = 4
?hasBackwardSecondary@CollationSettings@icu_56@@QBECXZ PROC ; icu_56::CollationSettings::hasBackwardSecondary, COMDAT
; _this$ = ecx
; Line 204
	push	ebp
	mov	ebp, esp
	sub	esp, 204				; 000000ccH
	push	ebx
	push	esi
	push	edi
	push	ecx
	lea	edi, DWORD PTR [ebp-204]
	mov	ecx, 51					; 00000033H
	mov	eax, -858993460				; ccccccccH
	rep stosd
	pop	ecx
	mov	DWORD PTR _this$[ebp], ecx
; Line 205
	mov	eax, DWORD PTR _this$[ebp]
	mov	ecx, DWORD PTR [eax+20]
	and	ecx, 2048				; 00000800H
	setne	al
; Line 206
	pop	edi
	pop	esi
	pop	ebx
	mov	esp, ebp
	pop	ebp
	ret	0
?hasBackwardSecondary@CollationSettings@icu_56@@QBECXZ ENDP ; icu_56::CollationSettings::hasBackwardSecondary
_TEXT	ENDS
PUBLIC	?isNumeric@CollationSettings@icu_56@@QBECXZ	; icu_56::CollationSettings::isNumeric
; Function compile flags: /Odtp /RTCsu /ZI
;	COMDAT ?isNumeric@CollationSettings@icu_56@@QBECXZ
_TEXT	SEGMENT
_this$ = -8						; size = 4
?isNumeric@CollationSettings@icu_56@@QBECXZ PROC	; icu_56::CollationSettings::isNumeric, COMDAT
; _this$ = ecx
; Line 208
	push	ebp
	mov	ebp, esp
	sub	esp, 204				; 000000ccH
	push	ebx
	push	esi
	push	edi
	push	ecx
	lea	edi, DWORD PTR [ebp-204]
	mov	ecx, 51					; 00000033H
	mov	eax, -858993460				; ccccccccH
	rep stosd
	pop	ecx
	mov	DWORD PTR _this$[ebp], ecx
; Line 209
	mov	eax, DWORD PTR _this$[ebp]
	mov	ecx, DWORD PTR [eax+20]
	and	ecx, 2
	setne	al
; Line 210
	pop	edi
	pop	esi
	pop	ebx
	mov	esp, ebp
	pop	ebp
	ret	0
?isNumeric@CollationSettings@icu_56@@QBECXZ ENDP	; icu_56::CollationSettings::isNumeric
_TEXT	ENDS
PUBLIC	??4CollationSettings@icu_56@@QAEAAU01@ABU01@@Z	; icu_56::CollationSettings::operator=
EXTRN	__imp_??4SharedObject@icu_56@@QAEAAV01@ABV01@@Z:PROC
; Function compile flags: /Odtp /RTCsu /ZI
;	COMDAT ??4CollationSettings@icu_56@@QAEAAU01@ABU01@@Z
_TEXT	SEGMENT
_$S1$73078 = -20					; size = 4
_this$ = -8						; size = 4
___that$ = 8						; size = 4
??4CollationSettings@icu_56@@QAEAAU01@ABU01@@Z PROC	; icu_56::CollationSettings::operator=, COMDAT
; _this$ = ecx
	push	ebp
	mov	ebp, esp
	sub	esp, 216				; 000000d8H
	push	ebx
	push	esi
	push	edi
	push	ecx
	lea	edi, DWORD PTR [ebp-216]
	mov	ecx, 54					; 00000036H
	mov	eax, -858993460				; ccccccccH
	rep stosd
	pop	ecx
	mov	DWORD PTR _this$[ebp], ecx
	mov	esi, esp
	mov	eax, DWORD PTR ___that$[ebp]
	push	eax
	mov	ecx, DWORD PTR _this$[ebp]
	call	DWORD PTR __imp_??4SharedObject@icu_56@@QAEAAV01@ABV01@@Z
	cmp	esi, esp
	call	__RTC_CheckEsp
	mov	eax, DWORD PTR _this$[ebp]
	mov	ecx, DWORD PTR ___that$[ebp]
	mov	edx, DWORD PTR [ecx+20]
	mov	DWORD PTR [eax+20], edx
	mov	eax, DWORD PTR _this$[ebp]
	mov	ecx, DWORD PTR ___that$[ebp]
	mov	edx, DWORD PTR [ecx+24]
	mov	DWORD PTR [eax+24], edx
	mov	eax, DWORD PTR _this$[ebp]
	mov	ecx, DWORD PTR ___that$[ebp]
	mov	edx, DWORD PTR [ecx+28]
	mov	DWORD PTR [eax+28], edx
	mov	eax, DWORD PTR _this$[ebp]
	mov	ecx, DWORD PTR ___that$[ebp]
	mov	edx, DWORD PTR [ecx+32]
	mov	DWORD PTR [eax+32], edx
	mov	eax, DWORD PTR _this$[ebp]
	mov	ecx, DWORD PTR ___that$[ebp]
	mov	edx, DWORD PTR [ecx+36]
	mov	DWORD PTR [eax+36], edx
	mov	eax, DWORD PTR _this$[ebp]
	mov	ecx, DWORD PTR ___that$[ebp]
	mov	edx, DWORD PTR [ecx+40]
	mov	DWORD PTR [eax+40], edx
	mov	eax, DWORD PTR _this$[ebp]
	mov	ecx, DWORD PTR ___that$[ebp]
	mov	edx, DWORD PTR [ecx+44]
	mov	DWORD PTR [eax+44], edx
	mov	eax, DWORD PTR _this$[ebp]
	mov	ecx, DWORD PTR ___that$[ebp]
	mov	edx, DWORD PTR [ecx+48]
	mov	DWORD PTR [eax+48], edx
	mov	eax, DWORD PTR _this$[ebp]
	mov	ecx, DWORD PTR ___that$[ebp]
	mov	edx, DWORD PTR [ecx+52]
	mov	DWORD PTR [eax+52], edx
	mov	eax, DWORD PTR _this$[ebp]
	mov	ecx, DWORD PTR ___that$[ebp]
	mov	edx, DWORD PTR [ecx+56]
	mov	DWORD PTR [eax+56], edx
	mov	DWORD PTR _$S1$73078[ebp], 0
	jmp	SHORT $LN3@operator
$LN2@operator:
	mov	eax, DWORD PTR _$S1$73078[ebp]
	add	eax, 1
	mov	DWORD PTR _$S1$73078[ebp], eax
$LN3@operator:
	cmp	DWORD PTR _$S1$73078[ebp], 384		; 00000180H
	jae	SHORT $LN1@operator
	mov	eax, DWORD PTR _$S1$73078[ebp]
	mov	ecx, DWORD PTR _this$[ebp]
	mov	edx, DWORD PTR _$S1$73078[ebp]
	mov	esi, DWORD PTR ___that$[ebp]
	mov	dx, WORD PTR [esi+edx*2+60]
	mov	WORD PTR [ecx+eax*2+60], dx
	jmp	SHORT $LN2@operator
$LN1@operator:
	mov	eax, DWORD PTR _this$[ebp]
	pop	edi
	pop	esi
	pop	ebx
	add	esp, 216				; 000000d8H
	cmp	ebp, esp
	call	__RTC_CheckEsp
	mov	esp, ebp
	pop	ebp
	ret	4
??4CollationSettings@icu_56@@QAEAAU01@ABU01@@Z ENDP	; icu_56::CollationSettings::operator=
_TEXT	ENDS
PUBLIC	??_GCollationSettings@icu_56@@UAEPAXI@Z		; icu_56::CollationSettings::`scalar deleting destructor'
EXTRN	??1CollationSettings@icu_56@@UAE@XZ:PROC	; icu_56::CollationSettings::~CollationSettings
; Function compile flags: /Odtp /RTCsu /ZI
;	COMDAT ??_GCollationSettings@icu_56@@UAEPAXI@Z
_TEXT	SEGMENT
_this$ = -8						; size = 4
___flags$ = 8						; size = 4
??_GCollationSettings@icu_56@@UAEPAXI@Z PROC		; icu_56::CollationSettings::`scalar deleting destructor', COMDAT
; _this$ = ecx
	push	ebp
	mov	ebp, esp
	sub	esp, 204				; 000000ccH
	push	ebx
	push	esi
	push	edi
	push	ecx
	lea	edi, DWORD PTR [ebp-204]
	mov	ecx, 51					; 00000033H
	mov	eax, -858993460				; ccccccccH
	rep stosd
	pop	ecx
	mov	DWORD PTR _this$[ebp], ecx
	mov	ecx, DWORD PTR _this$[ebp]
	call	??1CollationSettings@icu_56@@UAE@XZ	; icu_56::CollationSettings::~CollationSettings
	mov	eax, DWORD PTR ___flags$[ebp]
	and	eax, 1
	je	SHORT $LN1@scalar@3
	mov	esi, esp
	mov	eax, DWORD PTR _this$[ebp]
	push	eax
	call	DWORD PTR __imp_??3UMemory@icu_56@@SAXPAX@Z
	add	esp, 4
	cmp	esi, esp
	call	__RTC_CheckEsp
$LN1@scalar@3:
	mov	eax, DWORD PTR _this$[ebp]
	pop	edi
	pop	esi
	pop	ebx
	add	esp, 204				; 000000ccH
	cmp	ebp, esp
	call	__RTC_CheckEsp
	mov	esp, ebp
	pop	ebp
	ret	4
??_GCollationSettings@icu_56@@UAEPAXI@Z ENDP		; icu_56::CollationSettings::`scalar deleting destructor'
; Function compile flags: /Odtp /RTCsu /ZI
_TEXT	ENDS
;	COMDAT ??_ECollationSettings@icu_56@@UAEPAXI@Z
_TEXT	SEGMENT
_this$ = -8						; size = 4
___flags$ = 8						; size = 4
??_ECollationSettings@icu_56@@UAEPAXI@Z PROC		; icu_56::CollationSettings::`vector deleting destructor', COMDAT
; _this$ = ecx
	push	ebp
	mov	ebp, esp
	sub	esp, 204				; 000000ccH
	push	ebx
	push	esi
	push	edi
	push	ecx
	lea	edi, DWORD PTR [ebp-204]
	mov	ecx, 51					; 00000033H
	mov	eax, -858993460				; ccccccccH
	rep stosd
	pop	ecx
	mov	DWORD PTR _this$[ebp], ecx
	mov	eax, DWORD PTR ___flags$[ebp]
	and	eax, 2
	je	SHORT $LN3@vector@3
	push	OFFSET ??1CollationSettings@icu_56@@UAE@XZ ; icu_56::CollationSettings::~CollationSettings
	mov	eax, DWORD PTR _this$[ebp]
	mov	ecx, DWORD PTR [eax-4]
	push	ecx
	push	828					; 0000033cH
	mov	edx, DWORD PTR _this$[ebp]
	push	edx
	call	??_M@YGXPAXIHP6EX0@Z@Z
	mov	eax, DWORD PTR ___flags$[ebp]
	and	eax, 1
	je	SHORT $LN2@vector@3
	mov	eax, DWORD PTR _this$[ebp]
	sub	eax, 4
	mov	esi, esp
	push	eax
	call	DWORD PTR __imp_??_VUMemory@icu_56@@SAXPAX@Z
	add	esp, 4
	cmp	esi, esp
	call	__RTC_CheckEsp
$LN2@vector@3:
	mov	eax, DWORD PTR _this$[ebp]
	sub	eax, 4
	jmp	SHORT $LN4@vector@3
$LN3@vector@3:
	mov	ecx, DWORD PTR _this$[ebp]
	call	??1CollationSettings@icu_56@@UAE@XZ	; icu_56::CollationSettings::~CollationSettings
	mov	eax, DWORD PTR ___flags$[ebp]
	and	eax, 1
	je	SHORT $LN1@vector@3
	mov	esi, esp
	mov	eax, DWORD PTR _this$[ebp]
	push	eax
	call	DWORD PTR __imp_??3UMemory@icu_56@@SAXPAX@Z
	add	esp, 4
	cmp	esi, esp
	call	__RTC_CheckEsp
$LN1@vector@3:
	mov	eax, DWORD PTR _this$[ebp]
$LN4@vector@3:
	pop	edi
	pop	esi
	pop	ebx
	add	esp, 204				; 000000ccH
	cmp	ebp, esp
	call	__RTC_CheckEsp
	mov	esp, ebp
	pop	ebp
	ret	4
??_ECollationSettings@icu_56@@UAEPAXI@Z ENDP		; icu_56::CollationSettings::`vector deleting destructor'
_TEXT	ENDS
PUBLIC	?isBogus@CollationTailoring@icu_56@@QAECXZ	; icu_56::CollationTailoring::isBogus
; Function compile flags: /Odtp /RTCsu /ZI
;	COMDAT ?isBogus@CollationTailoring@icu_56@@QAECXZ
_TEXT	SEGMENT
_this$ = -8						; size = 4
?isBogus@CollationTailoring@icu_56@@QAECXZ PROC		; icu_56::CollationTailoring::isBogus, COMDAT
; _this$ = ecx
; File d:\mozilla\intl\icu\source\i18n\collationtailoring.h
; Line 53
	push	ebp
	mov	ebp, esp
	sub	esp, 204				; 000000ccH
	push	ebx
	push	esi
	push	edi
	push	ecx
	lea	edi, DWORD PTR [ebp-204]
	mov	ecx, 51					; 00000033H
	mov	eax, -858993460				; ccccccccH
	rep stosd
	pop	ecx
	mov	DWORD PTR _this$[ebp], ecx
	mov	eax, DWORD PTR _this$[ebp]
	cmp	DWORD PTR [eax+24], 0
	sete	al
	pop	edi
	pop	esi
	pop	ebx
	mov	esp, ebp
	pop	ebp
	ret	0
?isBogus@CollationTailoring@icu_56@@QAECXZ ENDP		; icu_56::CollationTailoring::isBogus
_TEXT	ENDS
PUBLIC	??4CollationTailoring@icu_56@@QAEAAU01@ABU01@@Z	; icu_56::CollationTailoring::operator=
EXTRN	__imp_??4Locale@icu_56@@QAEAAV01@ABV01@@Z:PROC
EXTRN	__imp_??4UnicodeString@icu_56@@QAEAAV01@ABV01@@Z:PROC
; Function compile flags: /Odtp /RTCsu /ZI
;	COMDAT ??4CollationTailoring@icu_56@@QAEAAU01@ABU01@@Z
_TEXT	SEGMENT
_$S2$73608 = -20					; size = 4
_this$ = -8						; size = 4
___that$ = 8						; size = 4
??4CollationTailoring@icu_56@@QAEAAU01@ABU01@@Z PROC	; icu_56::CollationTailoring::operator=, COMDAT
; _this$ = ecx
	push	ebp
	mov	ebp, esp
	sub	esp, 216				; 000000d8H
	push	ebx
	push	esi
	push	edi
	push	ecx
	lea	edi, DWORD PTR [ebp-216]
	mov	ecx, 54					; 00000036H
	mov	eax, -858993460				; ccccccccH
	rep stosd
	pop	ecx
	mov	DWORD PTR _this$[ebp], ecx
	mov	esi, esp
	mov	eax, DWORD PTR ___that$[ebp]
	push	eax
	mov	ecx, DWORD PTR _this$[ebp]
	call	DWORD PTR __imp_??4SharedObject@icu_56@@QAEAAV01@ABV01@@Z
	cmp	esi, esp
	call	__RTC_CheckEsp
	mov	eax, DWORD PTR _this$[ebp]
	mov	ecx, DWORD PTR ___that$[ebp]
	mov	edx, DWORD PTR [ecx+20]
	mov	DWORD PTR [eax+20], edx
	mov	eax, DWORD PTR _this$[ebp]
	mov	ecx, DWORD PTR ___that$[ebp]
	mov	edx, DWORD PTR [ecx+24]
	mov	DWORD PTR [eax+24], edx
	mov	eax, DWORD PTR ___that$[ebp]
	add	eax, 28					; 0000001cH
	mov	esi, esp
	push	eax
	mov	ecx, DWORD PTR _this$[ebp]
	add	ecx, 28					; 0000001cH
	call	DWORD PTR __imp_??4UnicodeString@icu_56@@QAEAAV01@ABV01@@Z
	cmp	esi, esp
	call	__RTC_CheckEsp
	mov	eax, DWORD PTR ___that$[ebp]
	add	eax, 92					; 0000005cH
	mov	esi, esp
	push	eax
	mov	ecx, DWORD PTR _this$[ebp]
	add	ecx, 92					; 0000005cH
	call	DWORD PTR __imp_??4Locale@icu_56@@QAEAAV01@ABV01@@Z
	cmp	esi, esp
	call	__RTC_CheckEsp
	mov	DWORD PTR _$S2$73608[ebp], 0
	jmp	SHORT $LN3@operator@2
$LN2@operator@2:
	mov	eax, DWORD PTR _$S2$73608[ebp]
	add	eax, 1
	mov	DWORD PTR _$S2$73608[ebp], eax
$LN3@operator@2:
	cmp	DWORD PTR _$S2$73608[ebp], 4
	jae	SHORT $LN1@operator@2
	mov	eax, DWORD PTR _this$[ebp]
	add	eax, DWORD PTR _$S2$73608[ebp]
	mov	ecx, DWORD PTR ___that$[ebp]
	add	ecx, DWORD PTR _$S2$73608[ebp]
	mov	dl, BYTE PTR [ecx+296]
	mov	BYTE PTR [eax+296], dl
	jmp	SHORT $LN2@operator@2
$LN1@operator@2:
	mov	eax, DWORD PTR _this$[ebp]
	mov	ecx, DWORD PTR ___that$[ebp]
	mov	edx, DWORD PTR [ecx+300]
	mov	DWORD PTR [eax+300], edx
	mov	eax, DWORD PTR _this$[ebp]
	mov	ecx, DWORD PTR ___that$[ebp]
	mov	edx, DWORD PTR [ecx+304]
	mov	DWORD PTR [eax+304], edx
	mov	eax, DWORD PTR _this$[ebp]
	mov	ecx, DWORD PTR ___that$[ebp]
	mov	edx, DWORD PTR [ecx+308]
	mov	DWORD PTR [eax+308], edx
	mov	eax, DWORD PTR _this$[ebp]
	mov	ecx, DWORD PTR ___that$[ebp]
	mov	edx, DWORD PTR [ecx+312]
	mov	DWORD PTR [eax+312], edx
	mov	eax, DWORD PTR _this$[ebp]
	mov	ecx, DWORD PTR ___that$[ebp]
	mov	edx, DWORD PTR [ecx+316]
	mov	DWORD PTR [eax+316], edx
	mov	eax, DWORD PTR _this$[ebp]
	mov	ecx, DWORD PTR ___that$[ebp]
	mov	edx, DWORD PTR [ecx+320]
	mov	DWORD PTR [eax+320], edx
	mov	eax, DWORD PTR _this$[ebp]
	mov	ecx, DWORD PTR ___that$[ebp]
	mov	edx, DWORD PTR [ecx+324]
	mov	DWORD PTR [eax+324], edx
	mov	eax, DWORD PTR ___that$[ebp]
	mov	ecx, DWORD PTR [eax+328]
	mov	edx, DWORD PTR [eax+332]
	mov	eax, DWORD PTR _this$[ebp]
	mov	DWORD PTR [eax+328], ecx
	mov	DWORD PTR [eax+332], edx
	mov	eax, DWORD PTR _this$[ebp]
	pop	edi
	pop	esi
	pop	ebx
	add	esp, 216				; 000000d8H
	cmp	ebp, esp
	call	__RTC_CheckEsp
	mov	esp, ebp
	pop	ebp
	ret	4
??4CollationTailoring@icu_56@@QAEAAU01@ABU01@@Z ENDP	; icu_56::CollationTailoring::operator=
_TEXT	ENDS
EXTRN	__imp_??1UObject@icu_56@@UAE@XZ:PROC
; Function compile flags: /Odtp /RTCsu /ZI
;	COMDAT ??1CollatorFactory@icu_56@@UAE@XZ
_TEXT	SEGMENT
_this$ = -8						; size = 4
??1CollatorFactory@icu_56@@UAE@XZ PROC			; icu_56::CollatorFactory::~CollatorFactory, COMDAT
; _this$ = ecx
; File d:\mozilla\intl\icu\source\i18n\coll.cpp
; Line 102
	push	ebp
	mov	ebp, esp
	sub	esp, 204				; 000000ccH
	push	ebx
	push	esi
	push	edi
	push	ecx
	lea	edi, DWORD PTR [ebp-204]
	mov	ecx, 51					; 00000033H
	mov	eax, -858993460				; ccccccccH
	rep stosd
	pop	ecx
	mov	DWORD PTR _this$[ebp], ecx
	mov	eax, DWORD PTR _this$[ebp]
	mov	DWORD PTR [eax], OFFSET ??_7CollatorFactory@icu_56@@6B@
	mov	esi, esp
	mov	ecx, DWORD PTR _this$[ebp]
	call	DWORD PTR __imp_??1UObject@icu_56@@UAE@XZ
	cmp	esi, esp
	call	__RTC_CheckEsp
	pop	edi
	pop	esi
	pop	ebx
	add	esp, 204				; 000000ccH
	cmp	ebp, esp
	call	__RTC_CheckEsp
	mov	esp, ebp
	pop	ebp
	ret	0
??1CollatorFactory@icu_56@@UAE@XZ ENDP			; icu_56::CollatorFactory::~CollatorFactory
; Function compile flags: /Odtp /RTCsu /ZI
_TEXT	ENDS
;	COMDAT ?visible@CollatorFactory@icu_56@@UBECXZ
_TEXT	SEGMENT
_this$ = -8						; size = 4
?visible@CollatorFactory@icu_56@@UBECXZ PROC		; icu_56::CollatorFactory::visible, COMDAT
; _this$ = ecx
; Line 107
	push	ebp
	mov	ebp, esp
	sub	esp, 204				; 000000ccH
	push	ebx
	push	esi
	push	edi
	push	ecx
	lea	edi, DWORD PTR [ebp-204]
	mov	ecx, 51					; 00000033H
	mov	eax, -858993460				; ccccccccH
	rep stosd
	pop	ecx
	mov	DWORD PTR _this$[ebp], ecx
; Line 108
	mov	al, 1
; Line 109
	pop	edi
	pop	esi
	pop	ebx
	mov	esp, ebp
	pop	ebp
	ret	0
?visible@CollatorFactory@icu_56@@UBECXZ ENDP		; icu_56::CollatorFactory::visible
_TEXT	ENDS
EXTRN	__imp_?getDisplayName@Locale@icu_56@@QBEAAVUnicodeString@2@ABV12@AAV32@@Z:PROC
; Function compile flags: /Odtp /RTCsu /ZI
;	COMDAT ?getDisplayName@CollatorFactory@icu_56@@UAEAAVUnicodeString@2@ABVLocale@2@0AAV32@@Z
_TEXT	SEGMENT
_this$ = -8						; size = 4
_objectLocale$ = 8					; size = 4
_displayLocale$ = 12					; size = 4
_result$ = 16						; size = 4
?getDisplayName@CollatorFactory@icu_56@@UAEAAVUnicodeString@2@ABVLocale@2@0AAV32@@Z PROC ; icu_56::CollatorFactory::getDisplayName, COMDAT
; _this$ = ecx
; Line 117
	push	ebp
	mov	ebp, esp
	sub	esp, 204				; 000000ccH
	push	ebx
	push	esi
	push	edi
	push	ecx
	lea	edi, DWORD PTR [ebp-204]
	mov	ecx, 51					; 00000033H
	mov	eax, -858993460				; ccccccccH
	rep stosd
	pop	ecx
	mov	DWORD PTR _this$[ebp], ecx
; Line 118
	mov	esi, esp
	mov	eax, DWORD PTR _result$[ebp]
	push	eax
	mov	ecx, DWORD PTR _displayLocale$[ebp]
	push	ecx
	mov	ecx, DWORD PTR _objectLocale$[ebp]
	call	DWORD PTR __imp_?getDisplayName@Locale@icu_56@@QBEAAVUnicodeString@2@ABV12@AAV32@@Z
	cmp	esi, esp
	call	__RTC_CheckEsp
; Line 119
	pop	edi
	pop	esi
	pop	ebx
	add	esp, 204				; 000000ccH
	cmp	ebp, esp
	call	__RTC_CheckEsp
	mov	esp, ebp
	pop	ebp
	ret	12					; 0000000cH
?getDisplayName@CollatorFactory@icu_56@@UAEAAVUnicodeString@2@ABVLocale@2@0AAV32@@Z ENDP ; icu_56::CollatorFactory::getDisplayName
_TEXT	ENDS
PUBLIC	??_7ICUCollatorFactory@icu_56@@6B@		; icu_56::ICUCollatorFactory::`vftable'
PUBLIC	??1ICUCollatorFactory@icu_56@@UAE@XZ		; icu_56::ICUCollatorFactory::~ICUCollatorFactory
PUBLIC	??_R4ICUCollatorFactory@icu_56@@6B@		; icu_56::ICUCollatorFactory::`RTTI Complete Object Locator'
PUBLIC	??_R0?AVICUCollatorFactory@icu_56@@@8		; icu_56::ICUCollatorFactory `RTTI Type Descriptor'
PUBLIC	??_R3ICUCollatorFactory@icu_56@@8		; icu_56::ICUCollatorFactory::`RTTI Class Hierarchy Descriptor'
PUBLIC	??_R2ICUCollatorFactory@icu_56@@8		; icu_56::ICUCollatorFactory::`RTTI Base Class Array'
PUBLIC	??_R1A@?0A@EA@ICUCollatorFactory@icu_56@@8	; icu_56::ICUCollatorFactory::`RTTI Base Class Descriptor at (0,-1,0,64)'
PUBLIC	??_R1A@?0A@EA@ICUResourceBundleFactory@icu_56@@8 ; icu_56::ICUResourceBundleFactory::`RTTI Base Class Descriptor at (0,-1,0,64)'
PUBLIC	??_R0?AVICUResourceBundleFactory@icu_56@@@8	; icu_56::ICUResourceBundleFactory `RTTI Type Descriptor'
PUBLIC	??_R3ICUResourceBundleFactory@icu_56@@8		; icu_56::ICUResourceBundleFactory::`RTTI Class Hierarchy Descriptor'
PUBLIC	??_R2ICUResourceBundleFactory@icu_56@@8		; icu_56::ICUResourceBundleFactory::`RTTI Base Class Array'
PUBLIC	??_R1A@?0A@EA@LocaleKeyFactory@icu_56@@8	; icu_56::LocaleKeyFactory::`RTTI Base Class Descriptor at (0,-1,0,64)'
PUBLIC	??_R0?AVLocaleKeyFactory@icu_56@@@8		; icu_56::LocaleKeyFactory `RTTI Type Descriptor'
PUBLIC	??_R3LocaleKeyFactory@icu_56@@8			; icu_56::LocaleKeyFactory::`RTTI Class Hierarchy Descriptor'
PUBLIC	??_R2LocaleKeyFactory@icu_56@@8			; icu_56::LocaleKeyFactory::`RTTI Base Class Array'
PUBLIC	??_R1A@?0A@EA@ICUServiceFactory@icu_56@@8	; icu_56::ICUServiceFactory::`RTTI Base Class Descriptor at (0,-1,0,64)'
PUBLIC	??_R0?AVICUServiceFactory@icu_56@@@8		; icu_56::ICUServiceFactory `RTTI Type Descriptor'
PUBLIC	??_R3ICUServiceFactory@icu_56@@8		; icu_56::ICUServiceFactory::`RTTI Class Hierarchy Descriptor'
PUBLIC	??_R2ICUServiceFactory@icu_56@@8		; icu_56::ICUServiceFactory::`RTTI Base Class Array'
PUBLIC	?create@ICUCollatorFactory@icu_56@@MBEPAVUObject@2@ABVICUServiceKey@2@PBVICUService@2@AAW4UErrorCode@@@Z ; icu_56::ICUCollatorFactory::create
EXTRN	__imp_??1ICUResourceBundleFactory@icu_56@@UAE@XZ:PROC
EXTRN	??_EICUCollatorFactory@icu_56@@UAEPAXI@Z:PROC	; icu_56::ICUCollatorFactory::`vector deleting destructor'
EXTRN	?getDynamicClassID@ICUResourceBundleFactory@icu_56@@UBEPAXXZ:PROC ; icu_56::ICUResourceBundleFactory::getDynamicClassID
EXTRN	?updateVisibleIDs@LocaleKeyFactory@icu_56@@UBEXAAVHashtable@2@AAW4UErrorCode@@@Z:PROC ; icu_56::LocaleKeyFactory::updateVisibleIDs
EXTRN	?getDisplayName@LocaleKeyFactory@icu_56@@UBEAAVUnicodeString@2@ABV32@ABVLocale@2@AAV32@@Z:PROC ; icu_56::LocaleKeyFactory::getDisplayName
EXTRN	?handlesKey@LocaleKeyFactory@icu_56@@MBECABVICUServiceKey@2@AAW4UErrorCode@@@Z:PROC ; icu_56::LocaleKeyFactory::handlesKey
EXTRN	?handleCreate@ICUResourceBundleFactory@icu_56@@MBEPAVUObject@2@ABVLocale@2@HPBVICUService@2@AAW4UErrorCode@@@Z:PROC ; icu_56::ICUResourceBundleFactory::handleCreate
EXTRN	?getSupportedIDs@ICUResourceBundleFactory@icu_56@@MBEPBVHashtable@2@AAW4UErrorCode@@@Z:PROC ; icu_56::ICUResourceBundleFactory::getSupportedIDs
;	COMDAT ??_R2ICUServiceFactory@icu_56@@8
rdata$r	SEGMENT
??_R2ICUServiceFactory@icu_56@@8 DD FLAT:??_R1A@?0A@EA@ICUServiceFactory@icu_56@@8 ; icu_56::ICUServiceFactory::`RTTI Base Class Array'
	DD	FLAT:??_R1A@?0A@EA@UObject@icu_56@@8
	DD	FLAT:??_R13?0A@EA@UMemory@icu_56@@8
rdata$r	ENDS
;	COMDAT ??_R3ICUServiceFactory@icu_56@@8
rdata$r	SEGMENT
??_R3ICUServiceFactory@icu_56@@8 DD 00H			; icu_56::ICUServiceFactory::`RTTI Class Hierarchy Descriptor'
	DD	00H
	DD	03H
	DD	FLAT:??_R2ICUServiceFactory@icu_56@@8
rdata$r	ENDS
;	COMDAT ??_R0?AVICUServiceFactory@icu_56@@@8
_DATA	SEGMENT
??_R0?AVICUServiceFactory@icu_56@@@8 DD FLAT:??_7type_info@@6B@ ; icu_56::ICUServiceFactory `RTTI Type Descriptor'
	DD	00H
	DB	'.?AVICUServiceFactory@icu_56@@', 00H
_DATA	ENDS
;	COMDAT ??_R1A@?0A@EA@ICUServiceFactory@icu_56@@8
rdata$r	SEGMENT
??_R1A@?0A@EA@ICUServiceFactory@icu_56@@8 DD FLAT:??_R0?AVICUServiceFactory@icu_56@@@8 ; icu_56::ICUServiceFactory::`RTTI Base Class Descriptor at (0,-1,0,64)'
	DD	02H
	DD	00H
	DD	0ffffffffH
	DD	00H
	DD	040H
	DD	FLAT:??_R3ICUServiceFactory@icu_56@@8
rdata$r	ENDS
;	COMDAT ??_R2LocaleKeyFactory@icu_56@@8
rdata$r	SEGMENT
??_R2LocaleKeyFactory@icu_56@@8 DD FLAT:??_R1A@?0A@EA@LocaleKeyFactory@icu_56@@8 ; icu_56::LocaleKeyFactory::`RTTI Base Class Array'
	DD	FLAT:??_R1A@?0A@EA@ICUServiceFactory@icu_56@@8
	DD	FLAT:??_R1A@?0A@EA@UObject@icu_56@@8
	DD	FLAT:??_R13?0A@EA@UMemory@icu_56@@8
rdata$r	ENDS
;	COMDAT ??_R3LocaleKeyFactory@icu_56@@8
rdata$r	SEGMENT
??_R3LocaleKeyFactory@icu_56@@8 DD 00H			; icu_56::LocaleKeyFactory::`RTTI Class Hierarchy Descriptor'
	DD	00H
	DD	04H
	DD	FLAT:??_R2LocaleKeyFactory@icu_56@@8
rdata$r	ENDS
;	COMDAT ??_R0?AVLocaleKeyFactory@icu_56@@@8
_DATA	SEGMENT
??_R0?AVLocaleKeyFactory@icu_56@@@8 DD FLAT:??_7type_info@@6B@ ; icu_56::LocaleKeyFactory `RTTI Type Descriptor'
	DD	00H
	DB	'.?AVLocaleKeyFactory@icu_56@@', 00H
_DATA	ENDS
;	COMDAT ??_R1A@?0A@EA@LocaleKeyFactory@icu_56@@8
rdata$r	SEGMENT
??_R1A@?0A@EA@LocaleKeyFactory@icu_56@@8 DD FLAT:??_R0?AVLocaleKeyFactory@icu_56@@@8 ; icu_56::LocaleKeyFactory::`RTTI Base Class Descriptor at (0,-1,0,64)'
	DD	03H
	DD	00H
	DD	0ffffffffH
	DD	00H
	DD	040H
	DD	FLAT:??_R3LocaleKeyFactory@icu_56@@8
rdata$r	ENDS
;	COMDAT ??_R2ICUResourceBundleFactory@icu_56@@8
rdata$r	SEGMENT
??_R2ICUResourceBundleFactory@icu_56@@8 DD FLAT:??_R1A@?0A@EA@ICUResourceBundleFactory@icu_56@@8 ; icu_56::ICUResourceBundleFactory::`RTTI Base Class Array'
	DD	FLAT:??_R1A@?0A@EA@LocaleKeyFactory@icu_56@@8
	DD	FLAT:??_R1A@?0A@EA@ICUServiceFactory@icu_56@@8
	DD	FLAT:??_R1A@?0A@EA@UObject@icu_56@@8
	DD	FLAT:??_R13?0A@EA@UMemory@icu_56@@8
rdata$r	ENDS
;	COMDAT ??_R3ICUResourceBundleFactory@icu_56@@8
rdata$r	SEGMENT
??_R3ICUResourceBundleFactory@icu_56@@8 DD 00H		; icu_56::ICUResourceBundleFactory::`RTTI Class Hierarchy Descriptor'
	DD	00H
	DD	05H
	DD	FLAT:??_R2ICUResourceBundleFactory@icu_56@@8
rdata$r	ENDS
;	COMDAT ??_R0?AVICUResourceBundleFactory@icu_56@@@8
_DATA	SEGMENT
??_R0?AVICUResourceBundleFactory@icu_56@@@8 DD FLAT:??_7type_info@@6B@ ; icu_56::ICUResourceBundleFactory `RTTI Type Descriptor'
	DD	00H
	DB	'.?AVICUResourceBundleFactory@icu_56@@', 00H
_DATA	ENDS
;	COMDAT ??_R1A@?0A@EA@ICUResourceBundleFactory@icu_56@@8
rdata$r	SEGMENT
??_R1A@?0A@EA@ICUResourceBundleFactory@icu_56@@8 DD FLAT:??_R0?AVICUResourceBundleFactory@icu_56@@@8 ; icu_56::ICUResourceBundleFactory::`RTTI Base Class Descriptor at (0,-1,0,64)'
	DD	04H
	DD	00H
	DD	0ffffffffH
	DD	00H
	DD	040H
	DD	FLAT:??_R3ICUResourceBundleFactory@icu_56@@8
rdata$r	ENDS
;	COMDAT ??_R1A@?0A@EA@ICUCollatorFactory@icu_56@@8
rdata$r	SEGMENT
??_R1A@?0A@EA@ICUCollatorFactory@icu_56@@8 DD FLAT:??_R0?AVICUCollatorFactory@icu_56@@@8 ; icu_56::ICUCollatorFactory::`RTTI Base Class Descriptor at (0,-1,0,64)'
	DD	05H
	DD	00H
	DD	0ffffffffH
	DD	00H
	DD	040H
	DD	FLAT:??_R3ICUCollatorFactory@icu_56@@8
rdata$r	ENDS
;	COMDAT ??_R2ICUCollatorFactory@icu_56@@8
rdata$r	SEGMENT
??_R2ICUCollatorFactory@icu_56@@8 DD FLAT:??_R1A@?0A@EA@ICUCollatorFactory@icu_56@@8 ; icu_56::ICUCollatorFactory::`RTTI Base Class Array'
	DD	FLAT:??_R1A@?0A@EA@ICUResourceBundleFactory@icu_56@@8
	DD	FLAT:??_R1A@?0A@EA@LocaleKeyFactory@icu_56@@8
	DD	FLAT:??_R1A@?0A@EA@ICUServiceFactory@icu_56@@8
	DD	FLAT:??_R1A@?0A@EA@UObject@icu_56@@8
	DD	FLAT:??_R13?0A@EA@UMemory@icu_56@@8
rdata$r	ENDS
;	COMDAT ??_R3ICUCollatorFactory@icu_56@@8
rdata$r	SEGMENT
??_R3ICUCollatorFactory@icu_56@@8 DD 00H		; icu_56::ICUCollatorFactory::`RTTI Class Hierarchy Descriptor'
	DD	00H
	DD	06H
	DD	FLAT:??_R2ICUCollatorFactory@icu_56@@8
rdata$r	ENDS
;	COMDAT ??_R0?AVICUCollatorFactory@icu_56@@@8
_DATA	SEGMENT
??_R0?AVICUCollatorFactory@icu_56@@@8 DD FLAT:??_7type_info@@6B@ ; icu_56::ICUCollatorFactory `RTTI Type Descriptor'
	DD	00H
	DB	'.?AVICUCollatorFactory@icu_56@@', 00H
_DATA	ENDS
;	COMDAT ??_R4ICUCollatorFactory@icu_56@@6B@
rdata$r	SEGMENT
??_R4ICUCollatorFactory@icu_56@@6B@ DD 00H		; icu_56::ICUCollatorFactory::`RTTI Complete Object Locator'
	DD	00H
	DD	00H
	DD	FLAT:??_R0?AVICUCollatorFactory@icu_56@@@8
	DD	FLAT:??_R3ICUCollatorFactory@icu_56@@8
rdata$r	ENDS
;	COMDAT ??_7ICUCollatorFactory@icu_56@@6B@
CONST	SEGMENT
??_7ICUCollatorFactory@icu_56@@6B@ DD FLAT:??_R4ICUCollatorFactory@icu_56@@6B@ ; icu_56::ICUCollatorFactory::`vftable'
	DD	FLAT:??_EICUCollatorFactory@icu_56@@UAEPAXI@Z
	DD	FLAT:?getDynamicClassID@ICUResourceBundleFactory@icu_56@@UBEPAXXZ
	DD	FLAT:?create@ICUCollatorFactory@icu_56@@MBEPAVUObject@2@ABVICUServiceKey@2@PBVICUService@2@AAW4UErrorCode@@@Z
	DD	FLAT:?updateVisibleIDs@LocaleKeyFactory@icu_56@@UBEXAAVHashtable@2@AAW4UErrorCode@@@Z
	DD	FLAT:?getDisplayName@LocaleKeyFactory@icu_56@@UBEAAVUnicodeString@2@ABV32@ABVLocale@2@AAV32@@Z
	DD	FLAT:?handlesKey@LocaleKeyFactory@icu_56@@MBECABVICUServiceKey@2@AAW4UErrorCode@@@Z
	DD	FLAT:?handleCreate@ICUResourceBundleFactory@icu_56@@MBEPAVUObject@2@ABVLocale@2@HPBVICUService@2@AAW4UErrorCode@@@Z
	DD	FLAT:?getSupportedIDs@ICUResourceBundleFactory@icu_56@@MBEPBVHashtable@2@AAW4UErrorCode@@@Z
; Function compile flags: /Odtp /RTCsu /ZI
CONST	ENDS
;	COMDAT ??1ICUCollatorFactory@icu_56@@UAE@XZ
_TEXT	SEGMENT
_this$ = -8						; size = 4
??1ICUCollatorFactory@icu_56@@UAE@XZ PROC		; icu_56::ICUCollatorFactory::~ICUCollatorFactory, COMDAT
; _this$ = ecx
; Line 131
	push	ebp
	mov	ebp, esp
	sub	esp, 204				; 000000ccH
	push	ebx
	push	esi
	push	edi
	push	ecx
	lea	edi, DWORD PTR [ebp-204]
	mov	ecx, 51					; 00000033H
	mov	eax, -858993460				; ccccccccH
	rep stosd
	pop	ecx
	mov	DWORD PTR _this$[ebp], ecx
	mov	eax, DWORD PTR _this$[ebp]
	mov	DWORD PTR [eax], OFFSET ??_7ICUCollatorFactory@icu_56@@6B@
	mov	esi, esp
	mov	ecx, DWORD PTR _this$[ebp]
	call	DWORD PTR __imp_??1ICUResourceBundleFactory@icu_56@@UAE@XZ
	cmp	esi, esp
	call	__RTC_CheckEsp
	pop	edi
	pop	esi
	pop	ebx
	add	esp, 204				; 000000ccH
	cmp	ebp, esp
	call	__RTC_CheckEsp
	mov	esp, ebp
	pop	ebp
	ret	0
??1ICUCollatorFactory@icu_56@@UAE@XZ ENDP		; icu_56::ICUCollatorFactory::~ICUCollatorFactory
; Function compile flags: /Odtp /RTCsu /ZI
_TEXT	ENDS
;	COMDAT ??_GICUCollatorFactory@icu_56@@UAEPAXI@Z
_TEXT	SEGMENT
_this$ = -8						; size = 4
___flags$ = 8						; size = 4
??_GICUCollatorFactory@icu_56@@UAEPAXI@Z PROC		; icu_56::ICUCollatorFactory::`scalar deleting destructor', COMDAT
; _this$ = ecx
	push	ebp
	mov	ebp, esp
	sub	esp, 204				; 000000ccH
	push	ebx
	push	esi
	push	edi
	push	ecx
	lea	edi, DWORD PTR [ebp-204]
	mov	ecx, 51					; 00000033H
	mov	eax, -858993460				; ccccccccH
	rep stosd
	pop	ecx
	mov	DWORD PTR _this$[ebp], ecx
	mov	ecx, DWORD PTR _this$[ebp]
	call	??1ICUCollatorFactory@icu_56@@UAE@XZ	; icu_56::ICUCollatorFactory::~ICUCollatorFactory
	mov	eax, DWORD PTR ___flags$[ebp]
	and	eax, 1
	je	SHORT $LN1@scalar@4
	mov	esi, esp
	mov	eax, DWORD PTR _this$[ebp]
	push	eax
	call	DWORD PTR __imp_??3UMemory@icu_56@@SAXPAX@Z
	add	esp, 4
	cmp	esi, esp
	call	__RTC_CheckEsp
$LN1@scalar@4:
	mov	eax, DWORD PTR _this$[ebp]
	pop	edi
	pop	esi
	pop	ebx
	add	esp, 204				; 000000ccH
	cmp	ebp, esp
	call	__RTC_CheckEsp
	mov	esp, ebp
	pop	ebp
	ret	4
??_GICUCollatorFactory@icu_56@@UAEPAXI@Z ENDP		; icu_56::ICUCollatorFactory::`scalar deleting destructor'
_TEXT	ENDS
PUBLIC	?makeInstance@Collator@icu_56@@CAPAV12@ABVLocale@2@AAW4UErrorCode@@@Z ; icu_56::Collator::makeInstance
PUBLIC	__$ArrayPad$
EXTRN	__imp_??1Locale@icu_56@@UAE@XZ:PROC
EXTRN	__imp_??0Locale@icu_56@@QAE@XZ:PROC
EXTRN	___security_cookie:DWORD
EXTRN	___CxxFrameHandler3:PROC
EXTRN	@__security_check_cookie@4:PROC
EXTRN	@_RTC_CheckStackVars@8:PROC
;	COMDAT xdata$x
xdata$x	SEGMENT
__unwindtable$?create@ICUCollatorFactory@icu_56@@MBEPAVUObject@2@ABVICUServiceKey@2@PBVICUService@2@AAW4UErrorCode@@@Z DD 0ffffffffH
	DD	FLAT:__unwindfunclet$?create@ICUCollatorFactory@icu_56@@MBEPAVUObject@2@ABVICUServiceKey@2@PBVICUService@2@AAW4UErrorCode@@@Z$0
__ehfuncinfo$?create@ICUCollatorFactory@icu_56@@MBEPAVUObject@2@ABVICUServiceKey@2@PBVICUService@2@AAW4UErrorCode@@@Z DD 019930522H
	DD	01H
	DD	FLAT:__unwindtable$?create@ICUCollatorFactory@icu_56@@MBEPAVUObject@2@ABVICUServiceKey@2@PBVICUService@2@AAW4UErrorCode@@@Z
	DD	2 DUP(00H)
	DD	2 DUP(00H)
	DD	00H
	DD	01H
; Function compile flags: /Odtp /RTCsu /ZI
xdata$x	ENDS
;	COMDAT ?create@ICUCollatorFactory@icu_56@@MBEPAVUObject@2@ABVICUServiceKey@2@PBVICUService@2@AAW4UErrorCode@@@Z
_TEXT	SEGMENT
$T83823 = -452						; size = 4
_loc$75575 = -248					; size = 204
_lkey$75573 = -36					; size = 4
_this$ = -24						; size = 4
__$ArrayPad$ = -16					; size = 4
__$EHRec$ = -12						; size = 12
_key$ = 8						; size = 4
___formal$ = 12						; size = 4
_status$ = 16						; size = 4
?create@ICUCollatorFactory@icu_56@@MBEPAVUObject@2@ABVICUServiceKey@2@PBVICUService@2@AAW4UErrorCode@@@Z PROC ; icu_56::ICUCollatorFactory::create, COMDAT
; _this$ = ecx
; Line 134
	push	ebp
	mov	ebp, esp
	push	-1
	push	__ehhandler$?create@ICUCollatorFactory@icu_56@@MBEPAVUObject@2@ABVICUServiceKey@2@PBVICUService@2@AAW4UErrorCode@@@Z
	mov	eax, DWORD PTR fs:0
	push	eax
	sub	esp, 444				; 000001bcH
	push	ebx
	push	esi
	push	edi
	push	ecx
	lea	edi, DWORD PTR [ebp-456]
	mov	ecx, 111				; 0000006fH
	mov	eax, -858993460				; ccccccccH
	rep stosd
	pop	ecx
	mov	eax, DWORD PTR ___security_cookie
	xor	eax, ebp
	mov	DWORD PTR __$ArrayPad$[ebp], eax
	push	eax
	lea	eax, DWORD PTR __$EHRec$[ebp]
	mov	DWORD PTR fs:0, eax
	mov	DWORD PTR _this$[ebp], ecx
; Line 135
	mov	esi, esp
	mov	eax, DWORD PTR _status$[ebp]
	push	eax
	mov	ecx, DWORD PTR _key$[ebp]
	push	ecx
	mov	edx, DWORD PTR _this$[ebp]
	mov	eax, DWORD PTR [edx]
	mov	ecx, DWORD PTR _this$[ebp]
	mov	edx, DWORD PTR [eax+20]
	call	edx
	cmp	esi, esp
	call	__RTC_CheckEsp
	movsx	eax, al
	test	eax, eax
	je	SHORT $LN1@create
; Line 136
	mov	eax, DWORD PTR _key$[ebp]
	mov	DWORD PTR _lkey$75573[ebp], eax
; Line 137
	mov	esi, esp
	lea	ecx, DWORD PTR _loc$75575[ebp]
	call	DWORD PTR __imp_??0Locale@icu_56@@QAE@XZ
	cmp	esi, esp
	call	__RTC_CheckEsp
	mov	DWORD PTR __$EHRec$[ebp+8], 0
; Line 141
	mov	esi, esp
	lea	eax, DWORD PTR _loc$75575[ebp]
	push	eax
	mov	ecx, DWORD PTR _lkey$75573[ebp]
	mov	edx, DWORD PTR [ecx]
	mov	ecx, DWORD PTR _lkey$75573[ebp]
	mov	eax, DWORD PTR [edx+40]
	call	eax
	cmp	esi, esp
	call	__RTC_CheckEsp
; Line 143
	mov	eax, DWORD PTR _status$[ebp]
	push	eax
	lea	ecx, DWORD PTR _loc$75575[ebp]
	push	ecx
	call	?makeInstance@Collator@icu_56@@CAPAV12@ABVLocale@2@AAW4UErrorCode@@@Z ; icu_56::Collator::makeInstance
	add	esp, 8
	mov	DWORD PTR $T83823[ebp], eax
	mov	DWORD PTR __$EHRec$[ebp+8], -1
	mov	esi, esp
	lea	ecx, DWORD PTR _loc$75575[ebp]
	call	DWORD PTR __imp_??1Locale@icu_56@@UAE@XZ
	cmp	esi, esp
	call	__RTC_CheckEsp
	mov	eax, DWORD PTR $T83823[ebp]
	jmp	SHORT $LN2@create
$LN1@create:
; Line 145
	xor	eax, eax
$LN2@create:
; Line 146
	push	edx
	mov	ecx, ebp
	push	eax
	lea	edx, DWORD PTR $LN8@create
	call	@_RTC_CheckStackVars@8
	pop	eax
	pop	edx
	mov	ecx, DWORD PTR __$EHRec$[ebp]
	mov	DWORD PTR fs:0, ecx
	pop	ecx
	pop	edi
	pop	esi
	pop	ebx
	mov	ecx, DWORD PTR __$ArrayPad$[ebp]
	xor	ecx, ebp
	call	@__security_check_cookie@4
	add	esp, 456				; 000001c8H
	cmp	ebp, esp
	call	__RTC_CheckEsp
	mov	esp, ebp
	pop	ebp
	ret	12					; 0000000cH
$LN8@create:
	DD	1
	DD	$LN7@create
$LN7@create:
	DD	-248					; ffffff08H
	DD	204					; 000000ccH
	DD	$LN5@create
$LN5@create:
	DB	108					; 0000006cH
	DB	111					; 0000006fH
	DB	99					; 00000063H
	DB	0
_TEXT	ENDS
;	COMDAT text$x
text$x	SEGMENT
__unwindfunclet$?create@ICUCollatorFactory@icu_56@@MBEPAVUObject@2@ABVICUServiceKey@2@PBVICUService@2@AAW4UErrorCode@@@Z$0:
	mov	esi, esp
	lea	ecx, DWORD PTR _loc$75575[ebp]
	call	DWORD PTR __imp_??1Locale@icu_56@@UAE@XZ
	cmp	esi, esp
	jmp	__RTC_CheckEsp
__ehhandler$?create@ICUCollatorFactory@icu_56@@MBEPAVUObject@2@ABVICUServiceKey@2@PBVICUService@2@AAW4UErrorCode@@@Z:
	mov	edx, DWORD PTR [esp+8]
	lea	eax, DWORD PTR [edx+12]
	mov	ecx, DWORD PTR [edx-460]
	xor	ecx, eax
	call	@__security_check_cookie@4
	mov	ecx, DWORD PTR [edx-4]
	xor	ecx, eax
	call	@__security_check_cookie@4
	mov	eax, OFFSET __ehfuncinfo$?create@ICUCollatorFactory@icu_56@@MBEPAVUObject@2@ABVICUServiceKey@2@PBVICUService@2@AAW4UErrorCode@@@Z
	jmp	___CxxFrameHandler3
text$x	ENDS
?create@ICUCollatorFactory@icu_56@@MBEPAVUObject@2@ABVICUServiceKey@2@PBVICUService@2@AAW4UErrorCode@@@Z ENDP ; icu_56::ICUCollatorFactory::create
PUBLIC	??_7ICUCollatorService@icu_56@@6B@		; icu_56::ICUCollatorService::`vftable'
PUBLIC	??1ICUCollatorService@icu_56@@UAE@XZ		; icu_56::ICUCollatorService::~ICUCollatorService
PUBLIC	??_R4ICUCollatorService@icu_56@@6B@		; icu_56::ICUCollatorService::`RTTI Complete Object Locator'
PUBLIC	??_R0?AVICUCollatorService@icu_56@@@8		; icu_56::ICUCollatorService `RTTI Type Descriptor'
PUBLIC	??_R3ICUCollatorService@icu_56@@8		; icu_56::ICUCollatorService::`RTTI Class Hierarchy Descriptor'
PUBLIC	??_R2ICUCollatorService@icu_56@@8		; icu_56::ICUCollatorService::`RTTI Base Class Array'
PUBLIC	??_R1A@?0A@EA@ICUCollatorService@icu_56@@8	; icu_56::ICUCollatorService::`RTTI Base Class Descriptor at (0,-1,0,64)'
PUBLIC	??_R1A@?0A@EA@ICULocaleService@icu_56@@8	; icu_56::ICULocaleService::`RTTI Base Class Descriptor at (0,-1,0,64)'
PUBLIC	??_R0?AVICULocaleService@icu_56@@@8		; icu_56::ICULocaleService `RTTI Type Descriptor'
PUBLIC	??_R3ICULocaleService@icu_56@@8			; icu_56::ICULocaleService::`RTTI Class Hierarchy Descriptor'
PUBLIC	??_R2ICULocaleService@icu_56@@8			; icu_56::ICULocaleService::`RTTI Base Class Array'
PUBLIC	??_R1A@?0A@EA@ICUService@icu_56@@8		; icu_56::ICUService::`RTTI Base Class Descriptor at (0,-1,0,64)'
PUBLIC	??_R0?AVICUService@icu_56@@@8			; icu_56::ICUService `RTTI Type Descriptor'
PUBLIC	??_R3ICUService@icu_56@@8			; icu_56::ICUService::`RTTI Class Hierarchy Descriptor'
PUBLIC	??_R2ICUService@icu_56@@8			; icu_56::ICUService::`RTTI Base Class Array'
PUBLIC	??_R1A@?0A@EA@ICUNotifier@icu_56@@8		; icu_56::ICUNotifier::`RTTI Base Class Descriptor at (0,-1,0,64)'
PUBLIC	??_R0?AVICUNotifier@icu_56@@@8			; icu_56::ICUNotifier `RTTI Type Descriptor'
PUBLIC	??_R3ICUNotifier@icu_56@@8			; icu_56::ICUNotifier::`RTTI Class Hierarchy Descriptor'
PUBLIC	??_R2ICUNotifier@icu_56@@8			; icu_56::ICUNotifier::`RTTI Base Class Array'
PUBLIC	?getKey@ICUCollatorService@icu_56@@UBEPAVUObject@2@AAVICUServiceKey@2@PAVUnicodeString@2@AAW4UErrorCode@@@Z ; icu_56::ICUCollatorService::getKey
PUBLIC	?isDefault@ICUCollatorService@icu_56@@UBECXZ	; icu_56::ICUCollatorService::isDefault
PUBLIC	?cloneInstance@ICUCollatorService@icu_56@@UBEPAVUObject@2@PAV32@@Z ; icu_56::ICUCollatorService::cloneInstance
PUBLIC	?handleDefault@ICUCollatorService@icu_56@@UBEPAVUObject@2@ABVICUServiceKey@2@PAVUnicodeString@2@AAW4UErrorCode@@@Z ; icu_56::ICUCollatorService::handleDefault
EXTRN	__imp_??1ICULocaleService@icu_56@@UAE@XZ:PROC
EXTRN	??_EICUCollatorService@icu_56@@UAEPAXI@Z:PROC	; icu_56::ICUCollatorService::`vector deleting destructor'
EXTRN	?addListener@ICUNotifier@icu_56@@UAEXPBVEventListener@2@AAW4UErrorCode@@@Z:PROC ; icu_56::ICUNotifier::addListener
EXTRN	?removeListener@ICUNotifier@icu_56@@UAEXPBVEventListener@2@AAW4UErrorCode@@@Z:PROC ; icu_56::ICUNotifier::removeListener
EXTRN	?notifyChanged@ICUNotifier@icu_56@@UAEXXZ:PROC	; icu_56::ICUNotifier::notifyChanged
EXTRN	?acceptsListener@ICUService@icu_56@@MBECABVEventListener@2@@Z:PROC ; icu_56::ICUService::acceptsListener
EXTRN	?notifyListener@ICUService@icu_56@@MBEXAAVEventListener@2@@Z:PROC ; icu_56::ICUService::notifyListener
EXTRN	?registerInstance@ICULocaleService@icu_56@@UAEPBXPAVUObject@2@ABVUnicodeString@2@CAAW4UErrorCode@@@Z:PROC ; icu_56::ICULocaleService::registerInstance
EXTRN	?registerFactory@ICUService@icu_56@@UAEPBXPAVICUServiceFactory@2@AAW4UErrorCode@@@Z:PROC ; icu_56::ICUService::registerFactory
EXTRN	?unregister@ICUService@icu_56@@UAECPBXAAW4UErrorCode@@@Z:PROC ; icu_56::ICUService::unregister
EXTRN	?reset@ICUService@icu_56@@UAEXXZ:PROC		; icu_56::ICUService::reset
EXTRN	?createKey@ICULocaleService@icu_56@@MBEPAVICUServiceKey@2@PBVUnicodeString@2@AAW4UErrorCode@@@Z:PROC ; icu_56::ICULocaleService::createKey
EXTRN	?createSimpleFactory@ICUService@icu_56@@MAEPAVICUServiceFactory@2@PAVUObject@2@ABVUnicodeString@2@CAAW4UErrorCode@@@Z:PROC ; icu_56::ICUService::createSimpleFactory
EXTRN	?reInitializeFactories@ICUService@icu_56@@MAEXXZ:PROC ; icu_56::ICUService::reInitializeFactories
EXTRN	?clearCaches@ICUService@icu_56@@MAEXXZ:PROC	; icu_56::ICUService::clearCaches
EXTRN	?registerInstance@ICULocaleService@icu_56@@UAEPBXPAVUObject@2@ABVLocale@2@HHAAW4UErrorCode@@@Z:PROC ; icu_56::ICULocaleService::registerInstance
EXTRN	?registerInstance@ICULocaleService@icu_56@@UAEPBXPAVUObject@2@ABVLocale@2@HAAW4UErrorCode@@@Z:PROC ; icu_56::ICULocaleService::registerInstance
EXTRN	?registerInstance@ICULocaleService@icu_56@@UAEPBXPAVUObject@2@ABVLocale@2@AAW4UErrorCode@@@Z:PROC ; icu_56::ICULocaleService::registerInstance
EXTRN	?getAvailableLocales@ICULocaleService@icu_56@@UBEPAVStringEnumeration@2@XZ:PROC ; icu_56::ICULocaleService::getAvailableLocales
EXTRN	?createKey@ICULocaleService@icu_56@@MBEPAVICUServiceKey@2@PBVUnicodeString@2@HAAW4UErrorCode@@@Z:PROC ; icu_56::ICULocaleService::createKey
;	COMDAT ??_R2ICUNotifier@icu_56@@8
rdata$r	SEGMENT
??_R2ICUNotifier@icu_56@@8 DD FLAT:??_R1A@?0A@EA@ICUNotifier@icu_56@@8 ; icu_56::ICUNotifier::`RTTI Base Class Array'
	DD	FLAT:??_R13?0A@EA@UMemory@icu_56@@8
rdata$r	ENDS
;	COMDAT ??_R3ICUNotifier@icu_56@@8
rdata$r	SEGMENT
??_R3ICUNotifier@icu_56@@8 DD 00H			; icu_56::ICUNotifier::`RTTI Class Hierarchy Descriptor'
	DD	00H
	DD	02H
	DD	FLAT:??_R2ICUNotifier@icu_56@@8
rdata$r	ENDS
;	COMDAT ??_R0?AVICUNotifier@icu_56@@@8
_DATA	SEGMENT
??_R0?AVICUNotifier@icu_56@@@8 DD FLAT:??_7type_info@@6B@ ; icu_56::ICUNotifier `RTTI Type Descriptor'
	DD	00H
	DB	'.?AVICUNotifier@icu_56@@', 00H
_DATA	ENDS
;	COMDAT ??_R1A@?0A@EA@ICUNotifier@icu_56@@8
rdata$r	SEGMENT
??_R1A@?0A@EA@ICUNotifier@icu_56@@8 DD FLAT:??_R0?AVICUNotifier@icu_56@@@8 ; icu_56::ICUNotifier::`RTTI Base Class Descriptor at (0,-1,0,64)'
	DD	01H
	DD	00H
	DD	0ffffffffH
	DD	00H
	DD	040H
	DD	FLAT:??_R3ICUNotifier@icu_56@@8
rdata$r	ENDS
;	COMDAT ??_R2ICUService@icu_56@@8
rdata$r	SEGMENT
??_R2ICUService@icu_56@@8 DD FLAT:??_R1A@?0A@EA@ICUService@icu_56@@8 ; icu_56::ICUService::`RTTI Base Class Array'
	DD	FLAT:??_R1A@?0A@EA@ICUNotifier@icu_56@@8
	DD	FLAT:??_R13?0A@EA@UMemory@icu_56@@8
rdata$r	ENDS
;	COMDAT ??_R3ICUService@icu_56@@8
rdata$r	SEGMENT
??_R3ICUService@icu_56@@8 DD 00H			; icu_56::ICUService::`RTTI Class Hierarchy Descriptor'
	DD	00H
	DD	03H
	DD	FLAT:??_R2ICUService@icu_56@@8
rdata$r	ENDS
;	COMDAT ??_R0?AVICUService@icu_56@@@8
_DATA	SEGMENT
??_R0?AVICUService@icu_56@@@8 DD FLAT:??_7type_info@@6B@ ; icu_56::ICUService `RTTI Type Descriptor'
	DD	00H
	DB	'.?AVICUService@icu_56@@', 00H
_DATA	ENDS
;	COMDAT ??_R1A@?0A@EA@ICUService@icu_56@@8
rdata$r	SEGMENT
??_R1A@?0A@EA@ICUService@icu_56@@8 DD FLAT:??_R0?AVICUService@icu_56@@@8 ; icu_56::ICUService::`RTTI Base Class Descriptor at (0,-1,0,64)'
	DD	02H
	DD	00H
	DD	0ffffffffH
	DD	00H
	DD	040H
	DD	FLAT:??_R3ICUService@icu_56@@8
rdata$r	ENDS
;	COMDAT ??_R2ICULocaleService@icu_56@@8
rdata$r	SEGMENT
??_R2ICULocaleService@icu_56@@8 DD FLAT:??_R1A@?0A@EA@ICULocaleService@icu_56@@8 ; icu_56::ICULocaleService::`RTTI Base Class Array'
	DD	FLAT:??_R1A@?0A@EA@ICUService@icu_56@@8
	DD	FLAT:??_R1A@?0A@EA@ICUNotifier@icu_56@@8
	DD	FLAT:??_R13?0A@EA@UMemory@icu_56@@8
rdata$r	ENDS
;	COMDAT ??_R3ICULocaleService@icu_56@@8
rdata$r	SEGMENT
??_R3ICULocaleService@icu_56@@8 DD 00H			; icu_56::ICULocaleService::`RTTI Class Hierarchy Descriptor'
	DD	00H
	DD	04H
	DD	FLAT:??_R2ICULocaleService@icu_56@@8
rdata$r	ENDS
;	COMDAT ??_R0?AVICULocaleService@icu_56@@@8
_DATA	SEGMENT
??_R0?AVICULocaleService@icu_56@@@8 DD FLAT:??_7type_info@@6B@ ; icu_56::ICULocaleService `RTTI Type Descriptor'
	DD	00H
	DB	'.?AVICULocaleService@icu_56@@', 00H
_DATA	ENDS
;	COMDAT ??_R1A@?0A@EA@ICULocaleService@icu_56@@8
rdata$r	SEGMENT
??_R1A@?0A@EA@ICULocaleService@icu_56@@8 DD FLAT:??_R0?AVICULocaleService@icu_56@@@8 ; icu_56::ICULocaleService::`RTTI Base Class Descriptor at (0,-1,0,64)'
	DD	03H
	DD	00H
	DD	0ffffffffH
	DD	00H
	DD	040H
	DD	FLAT:??_R3ICULocaleService@icu_56@@8
rdata$r	ENDS
;	COMDAT ??_R1A@?0A@EA@ICUCollatorService@icu_56@@8
rdata$r	SEGMENT
??_R1A@?0A@EA@ICUCollatorService@icu_56@@8 DD FLAT:??_R0?AVICUCollatorService@icu_56@@@8 ; icu_56::ICUCollatorService::`RTTI Base Class Descriptor at (0,-1,0,64)'
	DD	04H
	DD	00H
	DD	0ffffffffH
	DD	00H
	DD	040H
	DD	FLAT:??_R3ICUCollatorService@icu_56@@8
rdata$r	ENDS
;	COMDAT ??_R2ICUCollatorService@icu_56@@8
rdata$r	SEGMENT
??_R2ICUCollatorService@icu_56@@8 DD FLAT:??_R1A@?0A@EA@ICUCollatorService@icu_56@@8 ; icu_56::ICUCollatorService::`RTTI Base Class Array'
	DD	FLAT:??_R1A@?0A@EA@ICULocaleService@icu_56@@8
	DD	FLAT:??_R1A@?0A@EA@ICUService@icu_56@@8
	DD	FLAT:??_R1A@?0A@EA@ICUNotifier@icu_56@@8
	DD	FLAT:??_R13?0A@EA@UMemory@icu_56@@8
rdata$r	ENDS
;	COMDAT ??_R3ICUCollatorService@icu_56@@8
rdata$r	SEGMENT
??_R3ICUCollatorService@icu_56@@8 DD 00H		; icu_56::ICUCollatorService::`RTTI Class Hierarchy Descriptor'
	DD	00H
	DD	05H
	DD	FLAT:??_R2ICUCollatorService@icu_56@@8
rdata$r	ENDS
;	COMDAT ??_R0?AVICUCollatorService@icu_56@@@8
_DATA	SEGMENT
??_R0?AVICUCollatorService@icu_56@@@8 DD FLAT:??_7type_info@@6B@ ; icu_56::ICUCollatorService `RTTI Type Descriptor'
	DD	00H
	DB	'.?AVICUCollatorService@icu_56@@', 00H
_DATA	ENDS
;	COMDAT ??_R4ICUCollatorService@icu_56@@6B@
rdata$r	SEGMENT
??_R4ICUCollatorService@icu_56@@6B@ DD 00H		; icu_56::ICUCollatorService::`RTTI Complete Object Locator'
	DD	00H
	DD	00H
	DD	FLAT:??_R0?AVICUCollatorService@icu_56@@@8
	DD	FLAT:??_R3ICUCollatorService@icu_56@@8
rdata$r	ENDS
;	COMDAT ??_7ICUCollatorService@icu_56@@6B@
CONST	SEGMENT
??_7ICUCollatorService@icu_56@@6B@ DD FLAT:??_R4ICUCollatorService@icu_56@@6B@ ; icu_56::ICUCollatorService::`vftable'
	DD	FLAT:??_EICUCollatorService@icu_56@@UAEPAXI@Z
	DD	FLAT:?addListener@ICUNotifier@icu_56@@UAEXPBVEventListener@2@AAW4UErrorCode@@@Z
	DD	FLAT:?removeListener@ICUNotifier@icu_56@@UAEXPBVEventListener@2@AAW4UErrorCode@@@Z
	DD	FLAT:?notifyChanged@ICUNotifier@icu_56@@UAEXXZ
	DD	FLAT:?acceptsListener@ICUService@icu_56@@MBECABVEventListener@2@@Z
	DD	FLAT:?notifyListener@ICUService@icu_56@@MBEXAAVEventListener@2@@Z
	DD	FLAT:?getKey@ICUCollatorService@icu_56@@UBEPAVUObject@2@AAVICUServiceKey@2@PAVUnicodeString@2@AAW4UErrorCode@@@Z
	DD	FLAT:?registerInstance@ICULocaleService@icu_56@@UAEPBXPAVUObject@2@ABVUnicodeString@2@CAAW4UErrorCode@@@Z
	DD	FLAT:?registerFactory@ICUService@icu_56@@UAEPBXPAVICUServiceFactory@2@AAW4UErrorCode@@@Z
	DD	FLAT:?unregister@ICUService@icu_56@@UAECPBXAAW4UErrorCode@@@Z
	DD	FLAT:?reset@ICUService@icu_56@@UAEXXZ
	DD	FLAT:?isDefault@ICUCollatorService@icu_56@@UBECXZ
	DD	FLAT:?createKey@ICULocaleService@icu_56@@MBEPAVICUServiceKey@2@PBVUnicodeString@2@AAW4UErrorCode@@@Z
	DD	FLAT:?cloneInstance@ICUCollatorService@icu_56@@UBEPAVUObject@2@PAV32@@Z
	DD	FLAT:?createSimpleFactory@ICUService@icu_56@@MAEPAVICUServiceFactory@2@PAVUObject@2@ABVUnicodeString@2@CAAW4UErrorCode@@@Z
	DD	FLAT:?reInitializeFactories@ICUService@icu_56@@MAEXXZ
	DD	FLAT:?handleDefault@ICUCollatorService@icu_56@@UBEPAVUObject@2@ABVICUServiceKey@2@PAVUnicodeString@2@AAW4UErrorCode@@@Z
	DD	FLAT:?clearCaches@ICUService@icu_56@@MAEXXZ
	DD	FLAT:?registerInstance@ICULocaleService@icu_56@@UAEPBXPAVUObject@2@ABVLocale@2@HHAAW4UErrorCode@@@Z
	DD	FLAT:?registerInstance@ICULocaleService@icu_56@@UAEPBXPAVUObject@2@ABVLocale@2@HAAW4UErrorCode@@@Z
	DD	FLAT:?registerInstance@ICULocaleService@icu_56@@UAEPBXPAVUObject@2@ABVLocale@2@AAW4UErrorCode@@@Z
	DD	FLAT:?getAvailableLocales@ICULocaleService@icu_56@@UBEPAVStringEnumeration@2@XZ
	DD	FLAT:?createKey@ICULocaleService@icu_56@@MBEPAVICUServiceKey@2@PBVUnicodeString@2@HAAW4UErrorCode@@@Z
; Function compile flags: /Odtp /RTCsu /ZI
CONST	ENDS
;	COMDAT ??1ICUCollatorService@icu_56@@UAE@XZ
_TEXT	SEGMENT
_this$ = -8						; size = 4
??1ICUCollatorService@icu_56@@UAE@XZ PROC		; icu_56::ICUCollatorService::~ICUCollatorService, COMDAT
; _this$ = ecx
; Line 191
	push	ebp
	mov	ebp, esp
	sub	esp, 204				; 000000ccH
	push	ebx
	push	esi
	push	edi
	push	ecx
	lea	edi, DWORD PTR [ebp-204]
	mov	ecx, 51					; 00000033H
	mov	eax, -858993460				; ccccccccH
	rep stosd
	pop	ecx
	mov	DWORD PTR _this$[ebp], ecx
	mov	eax, DWORD PTR _this$[ebp]
	mov	DWORD PTR [eax], OFFSET ??_7ICUCollatorService@icu_56@@6B@
	mov	esi, esp
	mov	ecx, DWORD PTR _this$[ebp]
	call	DWORD PTR __imp_??1ICULocaleService@icu_56@@UAE@XZ
	cmp	esi, esp
	call	__RTC_CheckEsp
	pop	edi
	pop	esi
	pop	ebx
	add	esp, 204				; 000000ccH
	cmp	ebp, esp
	call	__RTC_CheckEsp
	mov	esp, ebp
	pop	ebp
	ret	0
??1ICUCollatorService@icu_56@@UAE@XZ ENDP		; icu_56::ICUCollatorService::~ICUCollatorService
; Function compile flags: /Odtp /RTCsu /ZI
_TEXT	ENDS
;	COMDAT ?cloneInstance@ICUCollatorService@icu_56@@UBEPAVUObject@2@PAV32@@Z
_TEXT	SEGMENT
_this$ = -8						; size = 4
_instance$ = 8						; size = 4
?cloneInstance@ICUCollatorService@icu_56@@UBEPAVUObject@2@PAV32@@Z PROC ; icu_56::ICUCollatorService::cloneInstance, COMDAT
; _this$ = ecx
; Line 161
	push	ebp
	mov	ebp, esp
	sub	esp, 204				; 000000ccH
	push	ebx
	push	esi
	push	edi
	push	ecx
	lea	edi, DWORD PTR [ebp-204]
	mov	ecx, 51					; 00000033H
	mov	eax, -858993460				; ccccccccH
	rep stosd
	pop	ecx
	mov	DWORD PTR _this$[ebp], ecx
; Line 162
	mov	eax, DWORD PTR _instance$[ebp]
	mov	edx, DWORD PTR [eax]
	mov	esi, esp
	mov	ecx, DWORD PTR _instance$[ebp]
	mov	eax, DWORD PTR [edx+16]
	call	eax
	cmp	esi, esp
	call	__RTC_CheckEsp
; Line 163
	pop	edi
	pop	esi
	pop	ebx
	add	esp, 204				; 000000ccH
	cmp	ebp, esp
	call	__RTC_CheckEsp
	mov	esp, ebp
	pop	ebp
	ret	4
?cloneInstance@ICUCollatorService@icu_56@@UBEPAVUObject@2@PAV32@@Z ENDP ; icu_56::ICUCollatorService::cloneInstance
_TEXT	ENDS
PUBLIC	??_C@_00CNPNBAHC@?$AA@				; `string'
PUBLIC	__$ArrayPad$
EXTRN	__imp_??0Locale@icu_56@@QAE@PBD000@Z:PROC
EXTRN	__imp_?truncate@UnicodeString@icu_56@@QAECH@Z:PROC
;	COMDAT ??_C@_00CNPNBAHC@?$AA@
CONST	SEGMENT
??_C@_00CNPNBAHC@?$AA@ DB 00H				; `string'
CONST	ENDS
;	COMDAT xdata$x
xdata$x	SEGMENT
__unwindtable$?handleDefault@ICUCollatorService@icu_56@@UBEPAVUObject@2@ABVICUServiceKey@2@PAVUnicodeString@2@AAW4UErrorCode@@@Z DD 0ffffffffH
	DD	FLAT:__unwindfunclet$?handleDefault@ICUCollatorService@icu_56@@UBEPAVUObject@2@ABVICUServiceKey@2@PAVUnicodeString@2@AAW4UErrorCode@@@Z$0
__ehfuncinfo$?handleDefault@ICUCollatorService@icu_56@@UBEPAVUObject@2@ABVICUServiceKey@2@PAVUnicodeString@2@AAW4UErrorCode@@@Z DD 019930522H
	DD	01H
	DD	FLAT:__unwindtable$?handleDefault@ICUCollatorService@icu_56@@UBEPAVUObject@2@ABVICUServiceKey@2@PAVUnicodeString@2@AAW4UErrorCode@@@Z
	DD	2 DUP(00H)
	DD	2 DUP(00H)
	DD	00H
	DD	01H
; Function compile flags: /Odtp /RTCsu /ZI
xdata$x	ENDS
;	COMDAT ?handleDefault@ICUCollatorService@icu_56@@UBEPAVUObject@2@ABVICUServiceKey@2@PAVUnicodeString@2@AAW4UErrorCode@@@Z
_TEXT	SEGMENT
$T83848 = -452						; size = 4
_loc$ = -248						; size = 204
_lkey$ = -36						; size = 4
_this$ = -24						; size = 4
__$ArrayPad$ = -16					; size = 4
__$EHRec$ = -12						; size = 12
_key$ = 8						; size = 4
_actualID$ = 12						; size = 4
_status$ = 16						; size = 4
?handleDefault@ICUCollatorService@icu_56@@UBEPAVUObject@2@ABVICUServiceKey@2@PAVUnicodeString@2@AAW4UErrorCode@@@Z PROC ; icu_56::ICUCollatorService::handleDefault, COMDAT
; _this$ = ecx
; Line 165
	push	ebp
	mov	ebp, esp
	push	-1
	push	__ehhandler$?handleDefault@ICUCollatorService@icu_56@@UBEPAVUObject@2@ABVICUServiceKey@2@PAVUnicodeString@2@AAW4UErrorCode@@@Z
	mov	eax, DWORD PTR fs:0
	push	eax
	sub	esp, 444				; 000001bcH
	push	ebx
	push	esi
	push	edi
	push	ecx
	lea	edi, DWORD PTR [ebp-456]
	mov	ecx, 111				; 0000006fH
	mov	eax, -858993460				; ccccccccH
	rep stosd
	pop	ecx
	mov	eax, DWORD PTR ___security_cookie
	xor	eax, ebp
	mov	DWORD PTR __$ArrayPad$[ebp], eax
	push	eax
	lea	eax, DWORD PTR __$EHRec$[ebp]
	mov	DWORD PTR fs:0, eax
	mov	DWORD PTR _this$[ebp], ecx
; Line 166
	mov	eax, DWORD PTR _key$[ebp]
	mov	DWORD PTR _lkey$[ebp], eax
; Line 167
	cmp	DWORD PTR _actualID$[ebp], 0
	je	SHORT $LN1@handleDefa
; Line 171
	mov	esi, esp
	push	0
	mov	ecx, DWORD PTR _actualID$[ebp]
	call	DWORD PTR __imp_?truncate@UnicodeString@icu_56@@QAECH@Z
	cmp	esi, esp
	call	__RTC_CheckEsp
$LN1@handleDefa:
; Line 173
	mov	esi, esp
	push	0
	push	0
	push	0
	push	OFFSET ??_C@_00CNPNBAHC@?$AA@
	lea	ecx, DWORD PTR _loc$[ebp]
	call	DWORD PTR __imp_??0Locale@icu_56@@QAE@PBD000@Z
	cmp	esi, esp
	call	__RTC_CheckEsp
	mov	DWORD PTR __$EHRec$[ebp+8], 0
; Line 174
	mov	esi, esp
	lea	eax, DWORD PTR _loc$[ebp]
	push	eax
	mov	ecx, DWORD PTR _lkey$[ebp]
	mov	edx, DWORD PTR [ecx]
	mov	ecx, DWORD PTR _lkey$[ebp]
	mov	eax, DWORD PTR [edx+40]
	call	eax
	cmp	esi, esp
	call	__RTC_CheckEsp
; Line 175
	mov	eax, DWORD PTR _status$[ebp]
	push	eax
	lea	ecx, DWORD PTR _loc$[ebp]
	push	ecx
	call	?makeInstance@Collator@icu_56@@CAPAV12@ABVLocale@2@AAW4UErrorCode@@@Z ; icu_56::Collator::makeInstance
	add	esp, 8
	mov	DWORD PTR $T83848[ebp], eax
	mov	DWORD PTR __$EHRec$[ebp+8], -1
	mov	esi, esp
	lea	ecx, DWORD PTR _loc$[ebp]
	call	DWORD PTR __imp_??1Locale@icu_56@@UAE@XZ
	cmp	esi, esp
	call	__RTC_CheckEsp
	mov	eax, DWORD PTR $T83848[ebp]
; Line 176
	push	edx
	mov	ecx, ebp
	push	eax
	lea	edx, DWORD PTR $LN8@handleDefa
	call	@_RTC_CheckStackVars@8
	pop	eax
	pop	edx
	mov	ecx, DWORD PTR __$EHRec$[ebp]
	mov	DWORD PTR fs:0, ecx
	pop	ecx
	pop	edi
	pop	esi
	pop	ebx
	mov	ecx, DWORD PTR __$ArrayPad$[ebp]
	xor	ecx, ebp
	call	@__security_check_cookie@4
	add	esp, 456				; 000001c8H
	cmp	ebp, esp
	call	__RTC_CheckEsp
	mov	esp, ebp
	pop	ebp
	ret	12					; 0000000cH
$LN8@handleDefa:
	DD	1
	DD	$LN7@handleDefa
$LN7@handleDefa:
	DD	-248					; ffffff08H
	DD	204					; 000000ccH
	DD	$LN5@handleDefa
$LN5@handleDefa:
	DB	108					; 0000006cH
	DB	111					; 0000006fH
	DB	99					; 00000063H
	DB	0
_TEXT	ENDS
;	COMDAT text$x
text$x	SEGMENT
__unwindfunclet$?handleDefault@ICUCollatorService@icu_56@@UBEPAVUObject@2@ABVICUServiceKey@2@PAVUnicodeString@2@AAW4UErrorCode@@@Z$0:
	mov	esi, esp
	lea	ecx, DWORD PTR _loc$[ebp]
	call	DWORD PTR __imp_??1Locale@icu_56@@UAE@XZ
	cmp	esi, esp
	jmp	__RTC_CheckEsp
__ehhandler$?handleDefault@ICUCollatorService@icu_56@@UBEPAVUObject@2@ABVICUServiceKey@2@PAVUnicodeString@2@AAW4UErrorCode@@@Z:
	mov	edx, DWORD PTR [esp+8]
	lea	eax, DWORD PTR [edx+12]
	mov	ecx, DWORD PTR [edx-460]
	xor	ecx, eax
	call	@__security_check_cookie@4
	mov	ecx, DWORD PTR [edx-4]
	xor	ecx, eax
	call	@__security_check_cookie@4
	mov	eax, OFFSET __ehfuncinfo$?handleDefault@ICUCollatorService@icu_56@@UBEPAVUObject@2@ABVICUServiceKey@2@PAVUnicodeString@2@AAW4UErrorCode@@@Z
	jmp	___CxxFrameHandler3
text$x	ENDS
?handleDefault@ICUCollatorService@icu_56@@UBEPAVUObject@2@ABVICUServiceKey@2@PAVUnicodeString@2@AAW4UErrorCode@@@Z ENDP ; icu_56::ICUCollatorService::handleDefault
PUBLIC	__$ArrayPad$
EXTRN	__imp_??1UnicodeString@icu_56@@UAE@XZ:PROC
EXTRN	__imp_?getKey@ICUService@icu_56@@UBEPAVUObject@2@AAVICUServiceKey@2@PAVUnicodeString@2@AAW4UErrorCode@@@Z:PROC
EXTRN	__imp_??0UnicodeString@icu_56@@QAE@XZ:PROC
;	COMDAT xdata$x
xdata$x	SEGMENT
__unwindtable$?getKey@ICUCollatorService@icu_56@@UBEPAVUObject@2@AAVICUServiceKey@2@PAVUnicodeString@2@AAW4UErrorCode@@@Z DD 0ffffffffH
	DD	FLAT:__unwindfunclet$?getKey@ICUCollatorService@icu_56@@UBEPAVUObject@2@AAVICUServiceKey@2@PAVUnicodeString@2@AAW4UErrorCode@@@Z$0
__ehfuncinfo$?getKey@ICUCollatorService@icu_56@@UBEPAVUObject@2@AAVICUServiceKey@2@PAVUnicodeString@2@AAW4UErrorCode@@@Z DD 019930522H
	DD	01H
	DD	FLAT:__unwindtable$?getKey@ICUCollatorService@icu_56@@UBEPAVUObject@2@AAVICUServiceKey@2@PAVUnicodeString@2@AAW4UErrorCode@@@Z
	DD	2 DUP(00H)
	DD	2 DUP(00H)
	DD	00H
	DD	01H
; Function compile flags: /Odtp /RTCsu /ZI
xdata$x	ENDS
;	COMDAT ?getKey@ICUCollatorService@icu_56@@UBEPAVUObject@2@AAVICUServiceKey@2@PAVUnicodeString@2@AAW4UErrorCode@@@Z
_TEXT	SEGMENT
$T83862 = -300						; size = 4
_ar$ = -96						; size = 64
_this$ = -24						; size = 4
__$ArrayPad$ = -16					; size = 4
__$EHRec$ = -12						; size = 12
_key$ = 8						; size = 4
_actualReturn$ = 12					; size = 4
_status$ = 16						; size = 4
?getKey@ICUCollatorService@icu_56@@UBEPAVUObject@2@AAVICUServiceKey@2@PAVUnicodeString@2@AAW4UErrorCode@@@Z PROC ; icu_56::ICUCollatorService::getKey, COMDAT
; _this$ = ecx
; Line 178
	push	ebp
	mov	ebp, esp
	push	-1
	push	__ehhandler$?getKey@ICUCollatorService@icu_56@@UBEPAVUObject@2@AAVICUServiceKey@2@PAVUnicodeString@2@AAW4UErrorCode@@@Z
	mov	eax, DWORD PTR fs:0
	push	eax
	sub	esp, 292				; 00000124H
	push	ebx
	push	esi
	push	edi
	push	ecx
	lea	edi, DWORD PTR [ebp-304]
	mov	ecx, 73					; 00000049H
	mov	eax, -858993460				; ccccccccH
	rep stosd
	pop	ecx
	mov	eax, DWORD PTR ___security_cookie
	xor	eax, ebp
	mov	DWORD PTR __$ArrayPad$[ebp], eax
	push	eax
	lea	eax, DWORD PTR __$EHRec$[ebp]
	mov	DWORD PTR fs:0, eax
	mov	DWORD PTR _this$[ebp], ecx
; Line 179
	mov	esi, esp
	lea	ecx, DWORD PTR _ar$[ebp]
	call	DWORD PTR __imp_??0UnicodeString@icu_56@@QAE@XZ
	cmp	esi, esp
	call	__RTC_CheckEsp
	mov	DWORD PTR __$EHRec$[ebp+8], 0
; Line 180
	cmp	DWORD PTR _actualReturn$[ebp], 0
	jne	SHORT $LN1@getKey
; Line 181
	lea	eax, DWORD PTR _ar$[ebp]
	mov	DWORD PTR _actualReturn$[ebp], eax
$LN1@getKey:
; Line 183
	mov	esi, esp
	mov	eax, DWORD PTR _status$[ebp]
	push	eax
	mov	ecx, DWORD PTR _actualReturn$[ebp]
	push	ecx
	mov	edx, DWORD PTR _key$[ebp]
	push	edx
	mov	ecx, DWORD PTR _this$[ebp]
	call	DWORD PTR __imp_?getKey@ICUService@icu_56@@UBEPAVUObject@2@AAVICUServiceKey@2@PAVUnicodeString@2@AAW4UErrorCode@@@Z
	cmp	esi, esp
	call	__RTC_CheckEsp
	mov	DWORD PTR $T83862[ebp], eax
	mov	DWORD PTR __$EHRec$[ebp+8], -1
	mov	esi, esp
	lea	ecx, DWORD PTR _ar$[ebp]
	call	DWORD PTR __imp_??1UnicodeString@icu_56@@UAE@XZ
	cmp	esi, esp
	call	__RTC_CheckEsp
	mov	eax, DWORD PTR $T83862[ebp]
; Line 184
	push	edx
	mov	ecx, ebp
	push	eax
	lea	edx, DWORD PTR $LN8@getKey
	call	@_RTC_CheckStackVars@8
	pop	eax
	pop	edx
	mov	ecx, DWORD PTR __$EHRec$[ebp]
	mov	DWORD PTR fs:0, ecx
	pop	ecx
	pop	edi
	pop	esi
	pop	ebx
	mov	ecx, DWORD PTR __$ArrayPad$[ebp]
	xor	ecx, ebp
	call	@__security_check_cookie@4
	add	esp, 304				; 00000130H
	cmp	ebp, esp
	call	__RTC_CheckEsp
	mov	esp, ebp
	pop	ebp
	ret	12					; 0000000cH
	npad	3
$LN8@getKey:
	DD	1
	DD	$LN7@getKey
$LN7@getKey:
	DD	-96					; ffffffa0H
	DD	64					; 00000040H
	DD	$LN5@getKey
$LN5@getKey:
	DB	97					; 00000061H
	DB	114					; 00000072H
	DB	0
_TEXT	ENDS
;	COMDAT text$x
text$x	SEGMENT
__unwindfunclet$?getKey@ICUCollatorService@icu_56@@UBEPAVUObject@2@AAVICUServiceKey@2@PAVUnicodeString@2@AAW4UErrorCode@@@Z$0:
	mov	esi, esp
	lea	ecx, DWORD PTR _ar$[ebp]
	call	DWORD PTR __imp_??1UnicodeString@icu_56@@UAE@XZ
	cmp	esi, esp
	jmp	__RTC_CheckEsp
__ehhandler$?getKey@ICUCollatorService@icu_56@@UBEPAVUObject@2@AAVICUServiceKey@2@PAVUnicodeString@2@AAW4UErrorCode@@@Z:
	mov	edx, DWORD PTR [esp+8]
	lea	eax, DWORD PTR [edx+12]
	mov	ecx, DWORD PTR [edx-308]
	xor	ecx, eax
	call	@__security_check_cookie@4
	mov	ecx, DWORD PTR [edx-4]
	xor	ecx, eax
	call	@__security_check_cookie@4
	mov	eax, OFFSET __ehfuncinfo$?getKey@ICUCollatorService@icu_56@@UBEPAVUObject@2@AAVICUServiceKey@2@PAVUnicodeString@2@AAW4UErrorCode@@@Z
	jmp	___CxxFrameHandler3
text$x	ENDS
?getKey@ICUCollatorService@icu_56@@UBEPAVUObject@2@AAVICUServiceKey@2@PAVUnicodeString@2@AAW4UErrorCode@@@Z ENDP ; icu_56::ICUCollatorService::getKey
EXTRN	__imp_?countFactories@ICUService@icu_56@@IBEHXZ:PROC
; Function compile flags: /Odtp /RTCsu /ZI
;	COMDAT ?isDefault@ICUCollatorService@icu_56@@UBECXZ
_TEXT	SEGMENT
_this$ = -8						; size = 4
?isDefault@ICUCollatorService@icu_56@@UBECXZ PROC	; icu_56::ICUCollatorService::isDefault, COMDAT
; _this$ = ecx
; Line 186
	push	ebp
	mov	ebp, esp
	sub	esp, 204				; 000000ccH
	push	ebx
	push	esi
	push	edi
	push	ecx
	lea	edi, DWORD PTR [ebp-204]
	mov	ecx, 51					; 00000033H
	mov	eax, -858993460				; ccccccccH
	rep stosd
	pop	ecx
	mov	DWORD PTR _this$[ebp], ecx
; Line 187
	mov	esi, esp
	mov	ecx, DWORD PTR _this$[ebp]
	call	DWORD PTR __imp_?countFactories@ICUService@icu_56@@IBEHXZ
	cmp	esi, esp
	call	__RTC_CheckEsp
	cmp	eax, 1
	sete	al
; Line 188
	pop	edi
	pop	esi
	pop	ebx
	add	esp, 204				; 000000ccH
	cmp	ebp, esp
	call	__RTC_CheckEsp
	mov	esp, ebp
	pop	ebp
	ret	0
?isDefault@ICUCollatorService@icu_56@@UBECXZ ENDP	; icu_56::ICUCollatorService::isDefault
; Function compile flags: /Odtp /RTCsu /ZI
_TEXT	ENDS
;	COMDAT ??_GICUCollatorService@icu_56@@UAEPAXI@Z
_TEXT	SEGMENT
_this$ = -8						; size = 4
___flags$ = 8						; size = 4
??_GICUCollatorService@icu_56@@UAEPAXI@Z PROC		; icu_56::ICUCollatorService::`scalar deleting destructor', COMDAT
; _this$ = ecx
	push	ebp
	mov	ebp, esp
	sub	esp, 204				; 000000ccH
	push	ebx
	push	esi
	push	edi
	push	ecx
	lea	edi, DWORD PTR [ebp-204]
	mov	ecx, 51					; 00000033H
	mov	eax, -858993460				; ccccccccH
	rep stosd
	pop	ecx
	mov	DWORD PTR _this$[ebp], ecx
	mov	ecx, DWORD PTR _this$[ebp]
	call	??1ICUCollatorService@icu_56@@UAE@XZ	; icu_56::ICUCollatorService::~ICUCollatorService
	mov	eax, DWORD PTR ___flags$[ebp]
	and	eax, 1
	je	SHORT $LN1@scalar@5
	mov	esi, esp
	mov	eax, DWORD PTR _this$[ebp]
	push	eax
	call	DWORD PTR __imp_??3UMemory@icu_56@@SAXPAX@Z
	add	esp, 4
	cmp	esi, esp
	call	__RTC_CheckEsp
$LN1@scalar@5:
	mov	eax, DWORD PTR _this$[ebp]
	pop	edi
	pop	esi
	pop	ebx
	add	esp, 204				; 000000ccH
	cmp	ebp, esp
	call	__RTC_CheckEsp
	mov	esp, ebp
	pop	ebp
	ret	4
??_GICUCollatorService@icu_56@@UAEPAXI@Z ENDP		; icu_56::ICUCollatorService::`scalar deleting destructor'
_TEXT	ENDS
PUBLIC	??_ELocale@icu_56@@UAEPAXI@Z			; icu_56::Locale::`vector deleting destructor'
; Function compile flags: /Odtp /RTCsu /ZI
;	COMDAT ??_ELocale@icu_56@@UAEPAXI@Z
_TEXT	SEGMENT
_this$ = -8						; size = 4
___flags$ = 8						; size = 4
??_ELocale@icu_56@@UAEPAXI@Z PROC			; icu_56::Locale::`vector deleting destructor', COMDAT
; _this$ = ecx
	push	ebp
	mov	ebp, esp
	sub	esp, 204				; 000000ccH
	push	ebx
	push	esi
	push	edi
	push	ecx
	lea	edi, DWORD PTR [ebp-204]
	mov	ecx, 51					; 00000033H
	mov	eax, -858993460				; ccccccccH
	rep stosd
	pop	ecx
	mov	DWORD PTR _this$[ebp], ecx
	mov	eax, DWORD PTR ___flags$[ebp]
	and	eax, 2
	je	SHORT $LN3@vector@4
	mov	eax, DWORD PTR __imp_??1Locale@icu_56@@UAE@XZ
	push	eax
	mov	ecx, DWORD PTR _this$[ebp]
	mov	edx, DWORD PTR [ecx-4]
	push	edx
	push	204					; 000000ccH
	mov	eax, DWORD PTR _this$[ebp]
	push	eax
	call	??_M@YGXPAXIHP6EX0@Z@Z
	mov	eax, DWORD PTR ___flags$[ebp]
	and	eax, 1
	je	SHORT $LN2@vector@4
	mov	eax, DWORD PTR _this$[ebp]
	sub	eax, 4
	mov	esi, esp
	push	eax
	call	DWORD PTR __imp_??_VUMemory@icu_56@@SAXPAX@Z
	add	esp, 4
	cmp	esi, esp
	call	__RTC_CheckEsp
$LN2@vector@4:
	mov	eax, DWORD PTR _this$[ebp]
	sub	eax, 4
	jmp	SHORT $LN4@vector@4
$LN3@vector@4:
	mov	esi, esp
	mov	ecx, DWORD PTR _this$[ebp]
	call	DWORD PTR __imp_??1Locale@icu_56@@UAE@XZ
	cmp	esi, esp
	call	__RTC_CheckEsp
	mov	eax, DWORD PTR ___flags$[ebp]
	and	eax, 1
	je	SHORT $LN1@vector@4
	mov	esi, esp
	mov	eax, DWORD PTR _this$[ebp]
	push	eax
	call	DWORD PTR __imp_??3UMemory@icu_56@@SAXPAX@Z
	add	esp, 4
	cmp	esi, esp
	call	__RTC_CheckEsp
$LN1@vector@4:
	mov	eax, DWORD PTR _this$[ebp]
$LN4@vector@4:
	pop	edi
	pop	esi
	pop	ebx
	add	esp, 204				; 000000ccH
	cmp	ebp, esp
	call	__RTC_CheckEsp
	mov	esp, ebp
	pop	ebp
	ret	4
??_ELocale@icu_56@@UAEPAXI@Z ENDP			; icu_56::Locale::`vector deleting destructor'
_TEXT	ENDS
PUBLIC	?getReorderCode@?A0x0bf50f6f@icu_56@@YAHPBD@Z	; icu_56::`anonymous namespace'::getReorderCode
EXTRN	_uprv_stricmp_56:PROC
; Function compile flags: /Odtp /RTCsu /ZI
;	COMDAT ?getReorderCode@?A0x0bf50f6f@icu_56@@YAHPBD@Z
_TEXT	SEGMENT
_i$75742 = -8						; size = 4
_s$ = 8							; size = 4
?getReorderCode@?A0x0bf50f6f@icu_56@@YAHPBD@Z PROC	; icu_56::`anonymous namespace'::getReorderCode, COMDAT
; Line 296
	push	ebp
	mov	ebp, esp
	sub	esp, 204				; 000000ccH
	push	ebx
	push	esi
	push	edi
	lea	edi, DWORD PTR [ebp-204]
	mov	ecx, 51					; 00000033H
	mov	eax, -858993460				; ccccccccH
	rep stosd
; Line 297
	mov	DWORD PTR _i$75742[ebp], 0
	jmp	SHORT $LN4@getReorder
$LN3@getReorder:
	mov	eax, DWORD PTR _i$75742[ebp]
	add	eax, 1
	mov	DWORD PTR _i$75742[ebp], eax
$LN4@getReorder:
	cmp	DWORD PTR _i$75742[ebp], 5
	jge	SHORT $LN2@getReorder
; Line 298
	mov	eax, DWORD PTR _i$75742[ebp]
	mov	ecx, DWORD PTR _collReorderCodes[eax*4]
	push	ecx
	mov	edx, DWORD PTR _s$[ebp]
	push	edx
	call	_uprv_stricmp_56
	add	esp, 8
	test	eax, eax
	jne	SHORT $LN1@getReorder
; Line 299
	mov	eax, DWORD PTR _i$75742[ebp]
	add	eax, 4096				; 00001000H
	jmp	SHORT $LN5@getReorder
$LN1@getReorder:
; Line 301
	jmp	SHORT $LN3@getReorder
$LN2@getReorder:
; Line 305
	or	eax, -1
$LN5@getReorder:
; Line 306
	pop	edi
	pop	esi
	pop	ebx
	add	esp, 204				; 000000ccH
	cmp	ebp, esp
	call	__RTC_CheckEsp
	mov	esp, ebp
	pop	ebp
	ret	0
?getReorderCode@?A0x0bf50f6f@icu_56@@YAHPBD@Z ENDP	; icu_56::`anonymous namespace'::getReorderCode
_TEXT	ENDS
PUBLIC	??_C@_02DNFJNMFM@kv?$AA@			; `string'
PUBLIC	??_C@_0L@JEJJHIFF@colReorder?$AA@		; `string'
PUBLIC	??_C@_0M@NKCMJBMN@variableTop?$AA@		; `string'
PUBLIC	??_C@_0BG@FFJIGHMB@colHiraganaQuaternary?$AA@	; `string'
PUBLIC	__$ArrayPad$
PUBLIC	?setAttributesFromKeywords@?A0x0bf50f6f@icu_56@@YAXABVLocale@2@AAVCollator@2@AAW4UErrorCode@@@Z ; icu_56::`anonymous namespace'::setAttributesFromKeywords
EXTRN	_u_getPropertyValueEnum_56:PROC
EXTRN	__imp_?getKeywordValue@Locale@icu_56@@QBEHPBDPADHAAW4UErrorCode@@@Z:PROC
EXTRN	_strcmp:PROC
EXTRN	__imp_?getName@Locale@icu_56@@QBEPBDXZ:PROC
EXTRN	__imp_?getBaseName@Locale@icu_56@@QBEPBDXZ:PROC
;	COMDAT ??_C@_02DNFJNMFM@kv?$AA@
CONST	SEGMENT
??_C@_02DNFJNMFM@kv?$AA@ DB 'kv', 00H			; `string'
CONST	ENDS
;	COMDAT ??_C@_0L@JEJJHIFF@colReorder?$AA@
CONST	SEGMENT
??_C@_0L@JEJJHIFF@colReorder?$AA@ DB 'colReorder', 00H	; `string'
CONST	ENDS
;	COMDAT ??_C@_0M@NKCMJBMN@variableTop?$AA@
CONST	SEGMENT
??_C@_0M@NKCMJBMN@variableTop?$AA@ DB 'variableTop', 00H ; `string'
CONST	ENDS
;	COMDAT ??_C@_0BG@FFJIGHMB@colHiraganaQuaternary?$AA@
CONST	SEGMENT
??_C@_0BG@FFJIGHMB@colHiraganaQuaternary?$AA@ DB 'colHiraganaQuaternary', 00H ; `string'
; Function compile flags: /Odtp /RTCsu /ZI
CONST	ENDS
;	COMDAT ?setAttributesFromKeywords@?A0x0bf50f6f@icu_56@@YAXABVLocale@2@AAVCollator@2@AAW4UErrorCode@@@Z
_TEXT	SEGMENT
_code$75810 = -1836					; size = 4
_code$75800 = -1824					; size = 4
_c$75796 = -1809					; size = 1
_limit$75795 = -1800					; size = 4
_scriptName$75789 = -1788				; size = 4
_codesLength$75788 = -1776				; size = 4
_codes$75787 = -1764					; size = 688
_j$75775 = -1068					; size = 4
_i$75766 = -1056					; size = 4
_length$ = -1044					; size = 4
_value$ = -1032						; size = 1024
__$ArrayPad$ = -4					; size = 4
_loc$ = 8						; size = 4
_coll$ = 12						; size = 4
_errorCode$ = 16					; size = 4
?setAttributesFromKeywords@?A0x0bf50f6f@icu_56@@YAXABVLocale@2@AAVCollator@2@AAW4UErrorCode@@@Z PROC ; icu_56::`anonymous namespace'::setAttributesFromKeywords, COMDAT
; Line 316
	push	ebp
	mov	ebp, esp
	sub	esp, 2032				; 000007f0H
	push	ebx
	push	esi
	push	edi
	lea	edi, DWORD PTR [ebp-2032]
	mov	ecx, 508				; 000001fcH
	mov	eax, -858993460				; ccccccccH
	rep stosd
	mov	eax, DWORD PTR ___security_cookie
	xor	eax, ebp
	mov	DWORD PTR __$ArrayPad$[ebp], eax
; Line 317
	mov	eax, DWORD PTR _errorCode$[ebp]
	mov	ecx, DWORD PTR [eax]
	push	ecx
	call	?U_FAILURE@@YACW4UErrorCode@@@Z		; U_FAILURE
	add	esp, 4
	movsx	edx, al
	test	edx, edx
	je	SHORT $LN35@setAttribu
; Line 318
	jmp	$LN36@setAttribu
$LN35@setAttribu:
; Line 320
	mov	esi, esp
	mov	ecx, DWORD PTR _loc$[ebp]
	call	DWORD PTR __imp_?getBaseName@Locale@icu_56@@QBEPBDXZ
	cmp	esi, esp
	call	__RTC_CheckEsp
	push	eax
	mov	esi, esp
	mov	ecx, DWORD PTR _loc$[ebp]
	call	DWORD PTR __imp_?getName@Locale@icu_56@@QBEPBDXZ
	cmp	esi, esp
	call	__RTC_CheckEsp
	push	eax
	call	_strcmp
	add	esp, 8
	test	eax, eax
	jne	SHORT $LN34@setAttribu
; Line 322
	jmp	$LN36@setAttribu
$LN34@setAttribu:
; Line 327
	mov	esi, esp
	mov	eax, DWORD PTR _errorCode$[ebp]
	push	eax
	push	1024					; 00000400H
	lea	ecx, DWORD PTR _value$[ebp]
	push	ecx
	push	OFFSET ??_C@_0BG@FFJIGHMB@colHiraganaQuaternary?$AA@
	mov	ecx, DWORD PTR _loc$[ebp]
	call	DWORD PTR __imp_?getKeywordValue@Locale@icu_56@@QBEHPBDPADHAAW4UErrorCode@@@Z
	cmp	esi, esp
	call	__RTC_CheckEsp
	mov	DWORD PTR _length$[ebp], eax
; Line 328
	mov	eax, DWORD PTR _errorCode$[ebp]
	mov	ecx, DWORD PTR [eax]
	push	ecx
	call	?U_FAILURE@@YACW4UErrorCode@@@Z		; U_FAILURE
	add	esp, 4
	movsx	edx, al
	test	edx, edx
	je	SHORT $LN33@setAttribu
; Line 329
	mov	eax, DWORD PTR _errorCode$[ebp]
	mov	DWORD PTR [eax], 1
; Line 330
	jmp	$LN36@setAttribu
$LN33@setAttribu:
; Line 332
	cmp	DWORD PTR _length$[ebp], 0
	je	SHORT $LN32@setAttribu
; Line 333
	mov	eax, DWORD PTR _errorCode$[ebp]
	mov	DWORD PTR [eax], 16			; 00000010H
; Line 334
	jmp	$LN36@setAttribu
$LN32@setAttribu:
; Line 336
	mov	esi, esp
	mov	eax, DWORD PTR _errorCode$[ebp]
	push	eax
	push	1024					; 00000400H
	lea	ecx, DWORD PTR _value$[ebp]
	push	ecx
	push	OFFSET ??_C@_0M@NKCMJBMN@variableTop?$AA@
	mov	ecx, DWORD PTR _loc$[ebp]
	call	DWORD PTR __imp_?getKeywordValue@Locale@icu_56@@QBEHPBDPADHAAW4UErrorCode@@@Z
	cmp	esi, esp
	call	__RTC_CheckEsp
	mov	DWORD PTR _length$[ebp], eax
; Line 337
	mov	eax, DWORD PTR _errorCode$[ebp]
	mov	ecx, DWORD PTR [eax]
	push	ecx
	call	?U_FAILURE@@YACW4UErrorCode@@@Z		; U_FAILURE
	add	esp, 4
	movsx	edx, al
	test	edx, edx
	je	SHORT $LN31@setAttribu
; Line 338
	mov	eax, DWORD PTR _errorCode$[ebp]
	mov	DWORD PTR [eax], 1
; Line 339
	jmp	$LN36@setAttribu
$LN31@setAttribu:
; Line 341
	cmp	DWORD PTR _length$[ebp], 0
	je	SHORT $LN30@setAttribu
; Line 342
	mov	eax, DWORD PTR _errorCode$[ebp]
	mov	DWORD PTR [eax], 16			; 00000010H
; Line 343
	jmp	$LN36@setAttribu
$LN30@setAttribu:
; Line 346
	mov	eax, DWORD PTR _errorCode$[ebp]
	cmp	DWORD PTR [eax], -124			; ffffff84H
	jne	SHORT $LN29@setAttribu
; Line 347
	mov	eax, DWORD PTR _errorCode$[ebp]
	mov	DWORD PTR [eax], 0
$LN29@setAttribu:
; Line 349
	mov	DWORD PTR _i$75766[ebp], 0
	jmp	SHORT $LN28@setAttribu
$LN27@setAttribu:
	mov	eax, DWORD PTR _i$75766[ebp]
	add	eax, 1
	mov	DWORD PTR _i$75766[ebp], eax
$LN28@setAttribu:
	cmp	DWORD PTR _i$75766[ebp], 7
	jge	$LN26@setAttribu
; Line 350
	mov	esi, esp
	mov	eax, DWORD PTR _errorCode$[ebp]
	push	eax
	push	1024					; 00000400H
	lea	ecx, DWORD PTR _value$[ebp]
	push	ecx
	mov	edx, DWORD PTR _i$75766[ebp]
	mov	eax, DWORD PTR _collAttributes[edx*8]
	push	eax
	mov	ecx, DWORD PTR _loc$[ebp]
	call	DWORD PTR __imp_?getKeywordValue@Locale@icu_56@@QBEHPBDPADHAAW4UErrorCode@@@Z
	cmp	esi, esp
	call	__RTC_CheckEsp
	mov	DWORD PTR _length$[ebp], eax
; Line 351
	mov	eax, DWORD PTR _errorCode$[ebp]
	mov	ecx, DWORD PTR [eax]
	push	ecx
	call	?U_FAILURE@@YACW4UErrorCode@@@Z		; U_FAILURE
	add	esp, 4
	movsx	edx, al
	test	edx, edx
	jne	SHORT $LN24@setAttribu
	mov	eax, DWORD PTR _errorCode$[ebp]
	cmp	DWORD PTR [eax], -124			; ffffff84H
	jne	SHORT $LN25@setAttribu
$LN24@setAttribu:
; Line 352
	mov	eax, DWORD PTR _errorCode$[ebp]
	mov	DWORD PTR [eax], 1
; Line 353
	jmp	$LN36@setAttribu
$LN25@setAttribu:
; Line 355
	cmp	DWORD PTR _length$[ebp], 0
	jne	SHORT $LN23@setAttribu
	jmp	$LN27@setAttribu
$LN23@setAttribu:
; Line 356
	mov	DWORD PTR _j$75775[ebp], 0
	jmp	SHORT $LN22@setAttribu
$LN21@setAttribu:
	mov	eax, DWORD PTR _j$75775[ebp]
	add	eax, 1
	mov	DWORD PTR _j$75775[ebp], eax
$LN22@setAttribu:
; Line 357
	cmp	DWORD PTR _j$75775[ebp], 11		; 0000000bH
	jne	SHORT $LN19@setAttribu
; Line 358
	mov	eax, DWORD PTR _errorCode$[ebp]
	mov	DWORD PTR [eax], 1
; Line 359
	jmp	$LN36@setAttribu
$LN19@setAttribu:
; Line 361
	mov	eax, DWORD PTR _j$75775[ebp]
	mov	ecx, DWORD PTR _collAttributeValues[eax*8]
	push	ecx
	lea	edx, DWORD PTR _value$[ebp]
	push	edx
	call	_uprv_stricmp_56
	add	esp, 8
	test	eax, eax
	jne	SHORT $LN18@setAttribu
; Line 362
	mov	esi, esp
	mov	eax, DWORD PTR _errorCode$[ebp]
	push	eax
	mov	ecx, DWORD PTR _j$75775[ebp]
	mov	edx, DWORD PTR _collAttributeValues[ecx*8+4]
	push	edx
	mov	eax, DWORD PTR _i$75766[ebp]
	mov	ecx, DWORD PTR _collAttributes[eax*8+4]
	push	ecx
	mov	edx, DWORD PTR _coll$[ebp]
	mov	eax, DWORD PTR [edx]
	mov	ecx, DWORD PTR _coll$[ebp]
	mov	edx, DWORD PTR [eax+88]
	call	edx
	cmp	esi, esp
	call	__RTC_CheckEsp
; Line 363
	jmp	SHORT $LN20@setAttribu
$LN18@setAttribu:
; Line 365
	jmp	$LN21@setAttribu
$LN20@setAttribu:
; Line 366
	jmp	$LN27@setAttribu
$LN26@setAttribu:
; Line 367
	mov	esi, esp
	mov	eax, DWORD PTR _errorCode$[ebp]
	push	eax
	push	1024					; 00000400H
	lea	ecx, DWORD PTR _value$[ebp]
	push	ecx
	push	OFFSET ??_C@_0L@JEJJHIFF@colReorder?$AA@
	mov	ecx, DWORD PTR _loc$[ebp]
	call	DWORD PTR __imp_?getKeywordValue@Locale@icu_56@@QBEHPBDPADHAAW4UErrorCode@@@Z
	cmp	esi, esp
	call	__RTC_CheckEsp
	mov	DWORD PTR _length$[ebp], eax
; Line 368
	mov	eax, DWORD PTR _errorCode$[ebp]
	mov	ecx, DWORD PTR [eax]
	push	ecx
	call	?U_FAILURE@@YACW4UErrorCode@@@Z		; U_FAILURE
	add	esp, 4
	movsx	edx, al
	test	edx, edx
	jne	SHORT $LN16@setAttribu
	mov	eax, DWORD PTR _errorCode$[ebp]
	cmp	DWORD PTR [eax], -124			; ffffff84H
	jne	SHORT $LN17@setAttribu
$LN16@setAttribu:
; Line 369
	mov	eax, DWORD PTR _errorCode$[ebp]
	mov	DWORD PTR [eax], 1
; Line 370
	jmp	$LN36@setAttribu
$LN17@setAttribu:
; Line 372
	cmp	DWORD PTR _length$[ebp], 0
	je	$LN15@setAttribu
; Line 374
	mov	DWORD PTR _codesLength$75788[ebp], 0
; Line 375
	lea	eax, DWORD PTR _value$[ebp]
	mov	DWORD PTR _scriptName$75789[ebp], eax
$LN14@setAttribu:
; Line 377
	cmp	DWORD PTR _codesLength$75788[ebp], 172	; 000000acH
	jne	SHORT $LN12@setAttribu
; Line 378
	mov	eax, DWORD PTR _errorCode$[ebp]
	mov	DWORD PTR [eax], 1
; Line 379
	jmp	$LN36@setAttribu
$LN12@setAttribu:
; Line 381
	mov	eax, DWORD PTR _scriptName$75789[ebp]
	mov	DWORD PTR _limit$75795[ebp], eax
$LN11@setAttribu:
; Line 383
	mov	eax, DWORD PTR _limit$75795[ebp]
	mov	cl, BYTE PTR [eax]
	mov	BYTE PTR _c$75796[ebp], cl
	movsx	edx, BYTE PTR _c$75796[ebp]
	test	edx, edx
	je	SHORT $LN10@setAttribu
	movsx	eax, BYTE PTR _c$75796[ebp]
	cmp	eax, 45					; 0000002dH
	je	SHORT $LN10@setAttribu
	mov	eax, DWORD PTR _limit$75795[ebp]
	add	eax, 1
	mov	DWORD PTR _limit$75795[ebp], eax
	jmp	SHORT $LN11@setAttribu
$LN10@setAttribu:
; Line 384
	mov	eax, DWORD PTR _limit$75795[ebp]
	mov	BYTE PTR [eax], 0
; Line 386
	mov	eax, DWORD PTR _limit$75795[ebp]
	sub	eax, DWORD PTR _scriptName$75789[ebp]
	cmp	eax, 4
	jne	SHORT $LN9@setAttribu
; Line 388
	mov	eax, DWORD PTR _scriptName$75789[ebp]
	push	eax
	push	4106					; 0000100aH
	call	_u_getPropertyValueEnum_56
	add	esp, 8
	mov	DWORD PTR _code$75800[ebp], eax
; Line 389
	jmp	SHORT $LN8@setAttribu
$LN9@setAttribu:
; Line 390
	mov	eax, DWORD PTR _scriptName$75789[ebp]
	push	eax
	call	?getReorderCode@?A0x0bf50f6f@icu_56@@YAHPBD@Z ; icu_56::`anonymous namespace'::getReorderCode
	add	esp, 4
	mov	DWORD PTR _code$75800[ebp], eax
$LN8@setAttribu:
; Line 392
	cmp	DWORD PTR _code$75800[ebp], 0
	jge	SHORT $LN7@setAttribu
; Line 393
	mov	eax, DWORD PTR _errorCode$[ebp]
	mov	DWORD PTR [eax], 1
; Line 394
	jmp	$LN36@setAttribu
$LN7@setAttribu:
; Line 396
	mov	eax, DWORD PTR _codesLength$75788[ebp]
	mov	ecx, DWORD PTR _code$75800[ebp]
	mov	DWORD PTR _codes$75787[ebp+eax*4], ecx
	mov	edx, DWORD PTR _codesLength$75788[ebp]
	add	edx, 1
	mov	DWORD PTR _codesLength$75788[ebp], edx
; Line 397
	movsx	eax, BYTE PTR _c$75796[ebp]
	test	eax, eax
	jne	SHORT $LN6@setAttribu
	jmp	SHORT $LN13@setAttribu
$LN6@setAttribu:
; Line 398
	mov	eax, DWORD PTR _limit$75795[ebp]
	add	eax, 1
	mov	DWORD PTR _scriptName$75789[ebp], eax
; Line 399
	jmp	$LN14@setAttribu
$LN13@setAttribu:
; Line 400
	mov	esi, esp
	mov	eax, DWORD PTR _errorCode$[ebp]
	push	eax
	mov	ecx, DWORD PTR _codesLength$75788[ebp]
	push	ecx
	lea	edx, DWORD PTR _codes$75787[ebp]
	push	edx
	mov	eax, DWORD PTR _coll$[ebp]
	mov	edx, DWORD PTR [eax]
	mov	ecx, DWORD PTR _coll$[ebp]
	mov	eax, DWORD PTR [edx+80]
	call	eax
	cmp	esi, esp
	call	__RTC_CheckEsp
$LN15@setAttribu:
; Line 402
	mov	esi, esp
	mov	eax, DWORD PTR _errorCode$[ebp]
	push	eax
	push	1024					; 00000400H
	lea	ecx, DWORD PTR _value$[ebp]
	push	ecx
	push	OFFSET ??_C@_02DNFJNMFM@kv?$AA@
	mov	ecx, DWORD PTR _loc$[ebp]
	call	DWORD PTR __imp_?getKeywordValue@Locale@icu_56@@QBEHPBDPADHAAW4UErrorCode@@@Z
	cmp	esi, esp
	call	__RTC_CheckEsp
	mov	DWORD PTR _length$[ebp], eax
; Line 403
	mov	eax, DWORD PTR _errorCode$[ebp]
	mov	ecx, DWORD PTR [eax]
	push	ecx
	call	?U_FAILURE@@YACW4UErrorCode@@@Z		; U_FAILURE
	add	esp, 4
	movsx	edx, al
	test	edx, edx
	jne	SHORT $LN4@setAttribu
	mov	eax, DWORD PTR _errorCode$[ebp]
	cmp	DWORD PTR [eax], -124			; ffffff84H
	jne	SHORT $LN5@setAttribu
$LN4@setAttribu:
; Line 404
	mov	eax, DWORD PTR _errorCode$[ebp]
	mov	DWORD PTR [eax], 1
; Line 405
	jmp	SHORT $LN36@setAttribu
$LN5@setAttribu:
; Line 407
	cmp	DWORD PTR _length$[ebp], 0
	je	SHORT $LN3@setAttribu
; Line 408
	lea	eax, DWORD PTR _value$[ebp]
	push	eax
	call	?getReorderCode@?A0x0bf50f6f@icu_56@@YAHPBD@Z ; icu_56::`anonymous namespace'::getReorderCode
	add	esp, 4
	mov	DWORD PTR _code$75810[ebp], eax
; Line 409
	cmp	DWORD PTR _code$75810[ebp], 0
	jge	SHORT $LN2@setAttribu
; Line 410
	mov	eax, DWORD PTR _errorCode$[ebp]
	mov	DWORD PTR [eax], 1
; Line 411
	jmp	SHORT $LN36@setAttribu
$LN2@setAttribu:
; Line 413
	mov	esi, esp
	mov	eax, DWORD PTR _errorCode$[ebp]
	push	eax
	mov	ecx, DWORD PTR _code$75810[ebp]
	push	ecx
	mov	edx, DWORD PTR _coll$[ebp]
	mov	eax, DWORD PTR [edx]
	mov	ecx, DWORD PTR _coll$[ebp]
	mov	edx, DWORD PTR [eax+96]
	call	edx
	cmp	esi, esp
	call	__RTC_CheckEsp
$LN3@setAttribu:
; Line 415
	mov	eax, DWORD PTR _errorCode$[ebp]
	mov	ecx, DWORD PTR [eax]
	push	ecx
	call	?U_FAILURE@@YACW4UErrorCode@@@Z		; U_FAILURE
	add	esp, 4
	movsx	edx, al
	test	edx, edx
	je	SHORT $LN36@setAttribu
; Line 416
	mov	eax, DWORD PTR _errorCode$[ebp]
	mov	DWORD PTR [eax], 1
$LN36@setAttribu:
; Line 418
	push	edx
	mov	ecx, ebp
	push	eax
	lea	edx, DWORD PTR $LN41@setAttribu
	call	@_RTC_CheckStackVars@8
	pop	eax
	pop	edx
	pop	edi
	pop	esi
	pop	ebx
	mov	ecx, DWORD PTR __$ArrayPad$[ebp]
	xor	ecx, ebp
	call	@__security_check_cookie@4
	add	esp, 2032				; 000007f0H
	cmp	ebp, esp
	call	__RTC_CheckEsp
	mov	esp, ebp
	pop	ebp
	ret	0
	npad	3
$LN41@setAttribu:
	DD	2
	DD	$LN40@setAttribu
$LN40@setAttribu:
	DD	-1032					; fffffbf8H
	DD	1024					; 00000400H
	DD	$LN38@setAttribu
	DD	-1764					; fffff91cH
	DD	688					; 000002b0H
	DD	$LN39@setAttribu
$LN39@setAttribu:
	DB	99					; 00000063H
	DB	111					; 0000006fH
	DB	100					; 00000064H
	DB	101					; 00000065H
	DB	115					; 00000073H
	DB	0
$LN38@setAttribu:
	DB	118					; 00000076H
	DB	97					; 00000061H
	DB	108					; 0000006cH
	DB	117					; 00000075H
	DB	101					; 00000065H
	DB	0
?setAttributesFromKeywords@?A0x0bf50f6f@icu_56@@YAXABVLocale@2@AAVCollator@2@AAW4UErrorCode@@@Z ENDP ; icu_56::`anonymous namespace'::setAttributesFromKeywords
; Function compile flags: /Odtp /RTCsu /ZI
_TEXT	ENDS
;	COMDAT ?U_FAILURE@@YACW4UErrorCode@@@Z
_TEXT	SEGMENT
_code$ = 8						; size = 4
?U_FAILURE@@YACW4UErrorCode@@@Z PROC			; U_FAILURE, COMDAT
; File d:\mozilla\intl\icu\include\unicode\utypes.h
; Line 705
	push	ebp
	mov	ebp, esp
	sub	esp, 192				; 000000c0H
	push	ebx
	push	esi
	push	edi
	lea	edi, DWORD PTR [ebp-192]
	mov	ecx, 48					; 00000030H
	mov	eax, -858993460				; ccccccccH
	rep stosd
	cmp	DWORD PTR _code$[ebp], 0
	setg	al
	pop	edi
	pop	esi
	pop	ebx
	mov	esp, ebp
	pop	ebp
	ret	0
?U_FAILURE@@YACW4UErrorCode@@@Z ENDP			; U_FAILURE
_TEXT	ENDS
PUBLIC	?createInstance@Collator@icu_56@@SAPAV12@ABVLocale@2@AAW4UErrorCode@@@Z ; icu_56::Collator::createInstance
PUBLIC	?createInstance@Collator@icu_56@@SAPAV12@AAW4UErrorCode@@@Z ; icu_56::Collator::createInstance
EXTRN	__imp_?getDefault@Locale@icu_56@@SAABV12@XZ:PROC
; Function compile flags: /Odtp /RTCsu /ZI
;	COMDAT ?createInstance@Collator@icu_56@@SAPAV12@AAW4UErrorCode@@@Z
_TEXT	SEGMENT
_success$ = 8						; size = 4
?createInstance@Collator@icu_56@@SAPAV12@AAW4UErrorCode@@@Z PROC ; icu_56::Collator::createInstance, COMDAT
; File d:\mozilla\intl\icu\source\i18n\coll.cpp
; Line 423
	push	ebp
	mov	ebp, esp
	sub	esp, 192				; 000000c0H
	push	ebx
	push	esi
	push	edi
	lea	edi, DWORD PTR [ebp-192]
	mov	ecx, 48					; 00000030H
	mov	eax, -858993460				; ccccccccH
	rep stosd
; Line 424
	mov	eax, DWORD PTR _success$[ebp]
	push	eax
	mov	esi, esp
	call	DWORD PTR __imp_?getDefault@Locale@icu_56@@SAABV12@XZ
	cmp	esi, esp
	call	__RTC_CheckEsp
	push	eax
	call	?createInstance@Collator@icu_56@@SAPAV12@ABVLocale@2@AAW4UErrorCode@@@Z ; icu_56::Collator::createInstance
	add	esp, 8
; Line 425
	pop	edi
	pop	esi
	pop	ebx
	add	esp, 192				; 000000c0H
	cmp	ebp, esp
	call	__RTC_CheckEsp
	mov	esp, ebp
	pop	ebp
	ret	0
?createInstance@Collator@icu_56@@SAPAV12@AAW4UErrorCode@@@Z ENDP ; icu_56::Collator::createInstance
_TEXT	ENDS
PUBLIC	__$ArrayPad$
EXTRN	__imp_?get@ICULocaleService@icu_56@@QBEPAVUObject@2@ABVLocale@2@PAV42@AAW4UErrorCode@@@Z:PROC
EXTRN	__imp_?isBogus@Locale@icu_56@@QBECXZ:PROC
;	COMDAT xdata$x
xdata$x	SEGMENT
__unwindtable$?createInstance@Collator@icu_56@@SAPAV12@ABVLocale@2@AAW4UErrorCode@@@Z DD 0ffffffffH
	DD	FLAT:__unwindfunclet$?createInstance@Collator@icu_56@@SAPAV12@ABVLocale@2@AAW4UErrorCode@@@Z$0
__ehfuncinfo$?createInstance@Collator@icu_56@@SAPAV12@ABVLocale@2@AAW4UErrorCode@@@Z DD 019930522H
	DD	01H
	DD	FLAT:__unwindtable$?createInstance@Collator@icu_56@@SAPAV12@ABVLocale@2@AAW4UErrorCode@@@Z
	DD	2 DUP(00H)
	DD	2 DUP(00H)
	DD	00H
	DD	01H
; Function compile flags: /Odtp /RTCsu /ZI
xdata$x	ENDS
;	COMDAT ?createInstance@Collator@icu_56@@SAPAV12@ABVLocale@2@AAW4UErrorCode@@@Z
_TEXT	SEGMENT
tv139 = -460						; size = 4
$T83895 = -452						; size = 4
$T83896 = -440						; size = 4
_actualLoc$75825 = -236					; size = 204
_coll$ = -24						; size = 4
__$ArrayPad$ = -16					; size = 4
__$EHRec$ = -12						; size = 12
_desiredLocale$ = 8					; size = 4
_status$ = 12						; size = 4
?createInstance@Collator@icu_56@@SAPAV12@ABVLocale@2@AAW4UErrorCode@@@Z PROC ; icu_56::Collator::createInstance, COMDAT
; Line 429
	push	ebp
	mov	ebp, esp
	push	-1
	push	__ehhandler$?createInstance@Collator@icu_56@@SAPAV12@ABVLocale@2@AAW4UErrorCode@@@Z
	mov	eax, DWORD PTR fs:0
	push	eax
	sub	esp, 448				; 000001c0H
	push	ebx
	push	esi
	push	edi
	lea	edi, DWORD PTR [ebp-460]
	mov	ecx, 112				; 00000070H
	mov	eax, -858993460				; ccccccccH
	rep stosd
	mov	eax, DWORD PTR ___security_cookie
	xor	eax, ebp
	mov	DWORD PTR __$ArrayPad$[ebp], eax
	push	eax
	lea	eax, DWORD PTR __$EHRec$[ebp]
	mov	DWORD PTR fs:0, eax
; Line 430
	mov	eax, DWORD PTR _status$[ebp]
	mov	ecx, DWORD PTR [eax]
	push	ecx
	call	?U_FAILURE@@YACW4UErrorCode@@@Z		; U_FAILURE
	add	esp, 4
	movsx	edx, al
	test	edx, edx
	je	SHORT $LN5@createInst
; Line 431
	xor	eax, eax
	jmp	$LN6@createInst
$LN5@createInst:
; Line 432
	mov	esi, esp
	mov	ecx, DWORD PTR _desiredLocale$[ebp]
	call	DWORD PTR __imp_?isBogus@Locale@icu_56@@QBECXZ
	cmp	esi, esp
	call	__RTC_CheckEsp
	movsx	eax, al
	test	eax, eax
	je	SHORT $LN4@createInst
; Line 434
	mov	eax, DWORD PTR _status$[ebp]
	mov	DWORD PTR [eax], 1
; Line 435
	xor	eax, eax
	jmp	$LN6@createInst
$LN4@createInst:
; Line 440
	call	?hasService@icu_56@@YACXZ		; icu_56::hasService
	movsx	eax, al
	test	eax, eax
	je	SHORT $LN3@createInst
; Line 441
	mov	esi, esp
	lea	ecx, DWORD PTR _actualLoc$75825[ebp]
	call	DWORD PTR __imp_??0Locale@icu_56@@QAE@XZ
	cmp	esi, esp
	call	__RTC_CheckEsp
	mov	DWORD PTR __$EHRec$[ebp+8], 0
; Line 442
	mov	esi, esp
	mov	eax, DWORD PTR _status$[ebp]
	push	eax
	lea	ecx, DWORD PTR _actualLoc$75825[ebp]
	push	ecx
	mov	edx, DWORD PTR _desiredLocale$[ebp]
	push	edx
	mov	ecx, DWORD PTR _gService
	call	DWORD PTR __imp_?get@ICULocaleService@icu_56@@QBEPAVUObject@2@ABVLocale@2@PAV42@AAW4UErrorCode@@@Z
	cmp	esi, esp
	call	__RTC_CheckEsp
	mov	DWORD PTR _coll$[ebp], eax
; Line 443
	mov	DWORD PTR __$EHRec$[ebp+8], -1
	mov	esi, esp
	lea	ecx, DWORD PTR _actualLoc$75825[ebp]
	call	DWORD PTR __imp_??1Locale@icu_56@@UAE@XZ
	cmp	esi, esp
	call	__RTC_CheckEsp
	jmp	SHORT $LN2@createInst
$LN3@createInst:
; Line 446
	mov	eax, DWORD PTR _status$[ebp]
	push	eax
	mov	ecx, DWORD PTR _desiredLocale$[ebp]
	push	ecx
	call	?makeInstance@Collator@icu_56@@CAPAV12@ABVLocale@2@AAW4UErrorCode@@@Z ; icu_56::Collator::makeInstance
	add	esp, 8
	mov	DWORD PTR _coll$[ebp], eax
$LN2@createInst:
; Line 448
	mov	eax, DWORD PTR _status$[ebp]
	push	eax
	mov	ecx, DWORD PTR _coll$[ebp]
	push	ecx
	mov	edx, DWORD PTR _desiredLocale$[ebp]
	push	edx
	call	?setAttributesFromKeywords@?A0x0bf50f6f@icu_56@@YAXABVLocale@2@AAVCollator@2@AAW4UErrorCode@@@Z ; icu_56::`anonymous namespace'::setAttributesFromKeywords
	add	esp, 12					; 0000000cH
; Line 449
	mov	eax, DWORD PTR _status$[ebp]
	mov	ecx, DWORD PTR [eax]
	push	ecx
	call	?U_FAILURE@@YACW4UErrorCode@@@Z		; U_FAILURE
	add	esp, 4
	movsx	edx, al
	test	edx, edx
	je	SHORT $LN1@createInst
; Line 450
	mov	eax, DWORD PTR _coll$[ebp]
	mov	DWORD PTR $T83896[ebp], eax
	mov	ecx, DWORD PTR $T83896[ebp]
	mov	DWORD PTR $T83895[ebp], ecx
	cmp	DWORD PTR $T83895[ebp], 0
	je	SHORT $LN8@createInst
	mov	esi, esp
	push	1
	mov	edx, DWORD PTR $T83895[ebp]
	mov	eax, DWORD PTR [edx]
	mov	ecx, DWORD PTR $T83895[ebp]
	mov	edx, DWORD PTR [eax]
	call	edx
	cmp	esi, esp
	call	__RTC_CheckEsp
	mov	DWORD PTR tv139[ebp], eax
	jmp	SHORT $LN9@createInst
$LN8@createInst:
	mov	DWORD PTR tv139[ebp], 0
$LN9@createInst:
; Line 451
	xor	eax, eax
	jmp	SHORT $LN6@createInst
$LN1@createInst:
; Line 453
	mov	eax, DWORD PTR _coll$[ebp]
$LN6@createInst:
; Line 454
	push	edx
	mov	ecx, ebp
	push	eax
	lea	edx, DWORD PTR $LN14@createInst
	call	@_RTC_CheckStackVars@8
	pop	eax
	pop	edx
	mov	ecx, DWORD PTR __$EHRec$[ebp]
	mov	DWORD PTR fs:0, ecx
	pop	ecx
	pop	edi
	pop	esi
	pop	ebx
	mov	ecx, DWORD PTR __$ArrayPad$[ebp]
	xor	ecx, ebp
	call	@__security_check_cookie@4
	add	esp, 460				; 000001ccH
	cmp	ebp, esp
	call	__RTC_CheckEsp
	mov	esp, ebp
	pop	ebp
	ret	0
$LN14@createInst:
	DD	1
	DD	$LN13@createInst
$LN13@createInst:
	DD	-236					; ffffff14H
	DD	204					; 000000ccH
	DD	$LN11@createInst
$LN11@createInst:
	DB	97					; 00000061H
	DB	99					; 00000063H
	DB	116					; 00000074H
	DB	117					; 00000075H
	DB	97					; 00000061H
	DB	108					; 0000006cH
	DB	76					; 0000004cH
	DB	111					; 0000006fH
	DB	99					; 00000063H
	DB	0
_TEXT	ENDS
;	COMDAT text$x
text$x	SEGMENT
__unwindfunclet$?createInstance@Collator@icu_56@@SAPAV12@ABVLocale@2@AAW4UErrorCode@@@Z$0:
	mov	esi, esp
	lea	ecx, DWORD PTR _actualLoc$75825[ebp]
	call	DWORD PTR __imp_??1Locale@icu_56@@UAE@XZ
	cmp	esi, esp
	jmp	__RTC_CheckEsp
__ehhandler$?createInstance@Collator@icu_56@@SAPAV12@ABVLocale@2@AAW4UErrorCode@@@Z:
	mov	edx, DWORD PTR [esp+8]
	lea	eax, DWORD PTR [edx+12]
	mov	ecx, DWORD PTR [edx-464]
	xor	ecx, eax
	call	@__security_check_cookie@4
	mov	ecx, DWORD PTR [edx-4]
	xor	ecx, eax
	call	@__security_check_cookie@4
	mov	eax, OFFSET __ehfuncinfo$?createInstance@Collator@icu_56@@SAPAV12@ABVLocale@2@AAW4UErrorCode@@@Z
	jmp	___CxxFrameHandler3
text$x	ENDS
?createInstance@Collator@icu_56@@SAPAV12@ABVLocale@2@AAW4UErrorCode@@@Z ENDP ; icu_56::Collator::createInstance
PUBLIC	?isReset@UInitOnce@icu_56@@QAECXZ		; icu_56::UInitOnce::isReset
; Function compile flags: /Odtp /RTCsu /ZI
;	COMDAT ?hasService@icu_56@@YACXZ
_TEXT	SEGMENT
tv70 = -205						; size = 1
_retVal$ = -5						; size = 1
?hasService@icu_56@@YACXZ PROC				; icu_56::hasService, COMDAT
; Line 212
	push	ebp
	mov	ebp, esp
	sub	esp, 208				; 000000d0H
	push	ebx
	push	esi
	push	edi
	lea	edi, DWORD PTR [ebp-208]
	mov	ecx, 52					; 00000034H
	mov	eax, -858993460				; ccccccccH
	rep stosd
; Line 213
	mov	ecx, OFFSET _gServiceInitOnce
	call	?isReset@UInitOnce@icu_56@@QAECXZ	; icu_56::UInitOnce::isReset
	movsx	eax, al
	test	eax, eax
	jne	SHORT $LN3@hasService
	call	?getService@icu_56@@YAPAVICULocaleService@1@XZ ; icu_56::getService
	test	eax, eax
	je	SHORT $LN3@hasService
	mov	BYTE PTR tv70[ebp], 1
	jmp	SHORT $LN4@hasService
$LN3@hasService:
	mov	BYTE PTR tv70[ebp], 0
$LN4@hasService:
	mov	cl, BYTE PTR tv70[ebp]
	mov	BYTE PTR _retVal$[ebp], cl
; Line 214
	mov	al, BYTE PTR _retVal$[ebp]
; Line 215
	pop	edi
	pop	esi
	pop	ebx
	add	esp, 208				; 000000d0H
	cmp	ebp, esp
	call	__RTC_CheckEsp
	mov	esp, ebp
	pop	ebp
	ret	0
?hasService@icu_56@@YACXZ ENDP				; icu_56::hasService
_TEXT	ENDS
PUBLIC	?umtx_loadAcquire@icu_56@@YAHACJ@Z		; icu_56::umtx_loadAcquire
; Function compile flags: /Odtp /RTCsu /ZI
;	COMDAT ?isReset@UInitOnce@icu_56@@QAECXZ
_TEXT	SEGMENT
_this$ = -8						; size = 4
?isReset@UInitOnce@icu_56@@QAECXZ PROC			; icu_56::UInitOnce::isReset, COMDAT
; _this$ = ecx
; File d:\mozilla\intl\icu\source\common\umutex.h
; Line 221
	push	ebp
	mov	ebp, esp
	sub	esp, 204				; 000000ccH
	push	ebx
	push	esi
	push	edi
	push	ecx
	lea	edi, DWORD PTR [ebp-204]
	mov	ecx, 51					; 00000033H
	mov	eax, -858993460				; ccccccccH
	rep stosd
	pop	ecx
	mov	DWORD PTR _this$[ebp], ecx
	mov	eax, DWORD PTR _this$[ebp]
	push	eax
	call	?umtx_loadAcquire@icu_56@@YAHACJ@Z	; icu_56::umtx_loadAcquire
	add	esp, 4
	test	eax, eax
	sete	al
	pop	edi
	pop	esi
	pop	ebx
	add	esp, 204				; 000000ccH
	cmp	ebp, esp
	call	__RTC_CheckEsp
	mov	esp, ebp
	pop	ebp
	ret	0
?isReset@UInitOnce@icu_56@@QAECXZ ENDP			; icu_56::UInitOnce::isReset
_TEXT	ENDS
EXTRN	__imp__InterlockedCompareExchange@12:PROC
; Function compile flags: /Odtp /RTCsu /ZI
;	COMDAT ?umtx_loadAcquire@icu_56@@YAHACJ@Z
_TEXT	SEGMENT
_var$ = 8						; size = 4
?umtx_loadAcquire@icu_56@@YAHACJ@Z PROC			; icu_56::umtx_loadAcquire, COMDAT
; Line 102
	push	ebp
	mov	ebp, esp
	sub	esp, 192				; 000000c0H
	push	ebx
	push	esi
	push	edi
	lea	edi, DWORD PTR [ebp-192]
	mov	ecx, 48					; 00000030H
	mov	eax, -858993460				; ccccccccH
	rep stosd
; Line 103
	mov	esi, esp
	push	0
	push	0
	mov	eax, DWORD PTR _var$[ebp]
	push	eax
	call	DWORD PTR __imp__InterlockedCompareExchange@12
	cmp	esi, esp
	call	__RTC_CheckEsp
; Line 104
	pop	edi
	pop	esi
	pop	ebx
	add	esp, 192				; 000000c0H
	cmp	ebp, esp
	call	__RTC_CheckEsp
	mov	esp, ebp
	pop	ebp
	ret	0
?umtx_loadAcquire@icu_56@@YAHACJ@Z ENDP			; icu_56::umtx_loadAcquire
_TEXT	ENDS
PUBLIC	?umtx_initOnce@icu_56@@YAXAAUUInitOnce@1@P6AXXZ@Z ; icu_56::umtx_initOnce
; Function compile flags: /Odtp /RTCsu /ZI
;	COMDAT ?getService@icu_56@@YAPAVICULocaleService@1@XZ
_TEXT	SEGMENT
?getService@icu_56@@YAPAVICULocaleService@1@XZ PROC	; icu_56::getService, COMDAT
; File d:\mozilla\intl\icu\source\i18n\coll.cpp
; Line 203
	push	ebp
	mov	ebp, esp
	sub	esp, 192				; 000000c0H
	push	ebx
	push	esi
	push	edi
	lea	edi, DWORD PTR [ebp-192]
	mov	ecx, 48					; 00000030H
	mov	eax, -858993460				; ccccccccH
	rep stosd
; Line 204
	push	OFFSET ?initService@icu_56@@YAXXZ	; icu_56::initService
	push	OFFSET _gServiceInitOnce
	call	?umtx_initOnce@icu_56@@YAXAAUUInitOnce@1@P6AXXZ@Z ; icu_56::umtx_initOnce
	add	esp, 8
; Line 205
	mov	eax, DWORD PTR _gService
; Line 206
	pop	edi
	pop	esi
	pop	ebx
	add	esp, 192				; 000000c0H
	cmp	ebp, esp
	call	__RTC_CheckEsp
	mov	esp, ebp
	pop	ebp
	ret	0
?getService@icu_56@@YAPAVICULocaleService@1@XZ ENDP	; icu_56::getService
_TEXT	ENDS
EXTRN	__imp_?umtx_initImplPostInit@icu_56@@YAXAAUUInitOnce@1@@Z:PROC
EXTRN	__imp_?umtx_initImplPreInit@icu_56@@YACAAUUInitOnce@1@@Z:PROC
; Function compile flags: /Odtp /RTCsu /ZI
;	COMDAT ?umtx_initOnce@icu_56@@YAXAAUUInitOnce@1@P6AXXZ@Z
_TEXT	SEGMENT
_uio$ = 8						; size = 4
_fp$ = 12						; size = 4
?umtx_initOnce@icu_56@@YAXAAUUInitOnce@1@P6AXXZ@Z PROC	; icu_56::umtx_initOnce, COMDAT
; File d:\mozilla\intl\icu\source\common\umutex.h
; Line 245
	push	ebp
	mov	ebp, esp
	sub	esp, 192				; 000000c0H
	push	ebx
	push	esi
	push	edi
	lea	edi, DWORD PTR [ebp-192]
	mov	ecx, 48					; 00000030H
	mov	eax, -858993460				; ccccccccH
	rep stosd
; Line 246
	mov	eax, DWORD PTR _uio$[ebp]
	push	eax
	call	?umtx_loadAcquire@icu_56@@YAHACJ@Z	; icu_56::umtx_loadAcquire
	add	esp, 4
	cmp	eax, 2
	jne	SHORT $LN2@umtx_initO
; Line 247
	jmp	SHORT $LN3@umtx_initO
$LN2@umtx_initO:
; Line 249
	mov	esi, esp
	mov	eax, DWORD PTR _uio$[ebp]
	push	eax
	call	DWORD PTR __imp_?umtx_initImplPreInit@icu_56@@YACAAUUInitOnce@1@@Z
	add	esp, 4
	cmp	esi, esp
	call	__RTC_CheckEsp
	movsx	ecx, al
	test	ecx, ecx
	je	SHORT $LN3@umtx_initO
; Line 250
	mov	esi, esp
	call	DWORD PTR _fp$[ebp]
	cmp	esi, esp
	call	__RTC_CheckEsp
; Line 251
	mov	esi, esp
	mov	eax, DWORD PTR _uio$[ebp]
	push	eax
	call	DWORD PTR __imp_?umtx_initImplPostInit@icu_56@@YAXAAUUInitOnce@1@@Z
	add	esp, 4
	cmp	esi, esp
	call	__RTC_CheckEsp
$LN3@umtx_initO:
; Line 253
	pop	edi
	pop	esi
	pop	ebx
	add	esp, 192				; 000000c0H
	cmp	ebp, esp
	call	__RTC_CheckEsp
	mov	esp, ebp
	pop	ebp
	ret	0
?umtx_initOnce@icu_56@@YAXAAUUInitOnce@1@P6AXXZ@Z ENDP	; icu_56::umtx_initOnce
_TEXT	ENDS
PUBLIC	??0ICUCollatorService@icu_56@@QAE@XZ		; icu_56::ICUCollatorService::ICUCollatorService
EXTRN	_ucln_i18n_registerCleanup_56:PROC
EXTRN	__imp_??2UMemory@icu_56@@SAPAXI@Z:PROC
;	COMDAT xdata$x
; File d:\mozilla\intl\icu\source\i18n\coll.cpp
xdata$x	SEGMENT
__unwindtable$?initService@icu_56@@YAXXZ DD 0ffffffffH
	DD	FLAT:__unwindfunclet$?initService@icu_56@@YAXXZ$0
__ehfuncinfo$?initService@icu_56@@YAXXZ DD 019930522H
	DD	01H
	DD	FLAT:__unwindtable$?initService@icu_56@@YAXXZ
	DD	2 DUP(00H)
	DD	2 DUP(00H)
	DD	00H
	DD	01H
; Function compile flags: /Odtp /RTCsu /ZI
xdata$x	ENDS
;	COMDAT ?initService@icu_56@@YAXXZ
_TEXT	SEGMENT
tv74 = -232						; size = 4
$T83923 = -224						; size = 4
$T83924 = -212						; size = 4
__$EHRec$ = -12						; size = 12
?initService@icu_56@@YAXXZ PROC				; icu_56::initService, COMDAT
; Line 195
	push	ebp
	mov	ebp, esp
	push	-1
	push	__ehhandler$?initService@icu_56@@YAXXZ
	mov	eax, DWORD PTR fs:0
	push	eax
	sub	esp, 220				; 000000dcH
	push	ebx
	push	esi
	push	edi
	lea	edi, DWORD PTR [ebp-232]
	mov	ecx, 55					; 00000037H
	mov	eax, -858993460				; ccccccccH
	rep stosd
	mov	eax, DWORD PTR ___security_cookie
	xor	eax, ebp
	push	eax
	lea	eax, DWORD PTR __$EHRec$[ebp]
	mov	DWORD PTR fs:0, eax
; Line 196
	mov	esi, esp
	push	360					; 00000168H
	call	DWORD PTR __imp_??2UMemory@icu_56@@SAPAXI@Z
	add	esp, 4
	cmp	esi, esp
	call	__RTC_CheckEsp
	mov	DWORD PTR $T83924[ebp], eax
	mov	DWORD PTR __$EHRec$[ebp+8], 0
	cmp	DWORD PTR $T83924[ebp], 0
	je	SHORT $LN3@initServic
	mov	ecx, DWORD PTR $T83924[ebp]
	call	??0ICUCollatorService@icu_56@@QAE@XZ	; icu_56::ICUCollatorService::ICUCollatorService
	mov	DWORD PTR tv74[ebp], eax
	jmp	SHORT $LN4@initServic
$LN3@initServic:
	mov	DWORD PTR tv74[ebp], 0
$LN4@initServic:
	mov	eax, DWORD PTR tv74[ebp]
	mov	DWORD PTR $T83923[ebp], eax
	mov	DWORD PTR __$EHRec$[ebp+8], -1
	mov	ecx, DWORD PTR $T83923[ebp]
	mov	DWORD PTR _gService, ecx
; Line 197
	push	OFFSET _collator_cleanup
	push	21					; 00000015H
	call	_ucln_i18n_registerCleanup_56
	add	esp, 8
; Line 198
	mov	ecx, DWORD PTR __$EHRec$[ebp]
	mov	DWORD PTR fs:0, ecx
	pop	ecx
	pop	edi
	pop	esi
	pop	ebx
	add	esp, 232				; 000000e8H
	cmp	ebp, esp
	call	__RTC_CheckEsp
	mov	esp, ebp
	pop	ebp
	ret	0
_TEXT	ENDS
;	COMDAT text$x
text$x	SEGMENT
__unwindfunclet$?initService@icu_56@@YAXXZ$0:
	mov	esi, esp
	mov	eax, DWORD PTR $T83924[ebp]
	push	eax
	call	DWORD PTR __imp_??3UMemory@icu_56@@SAXPAX@Z
	add	esp, 4
	cmp	esi, esp
	jmp	__RTC_CheckEsp
__ehhandler$?initService@icu_56@@YAXXZ:
	mov	edx, DWORD PTR [esp+8]
	lea	eax, DWORD PTR [edx+12]
	mov	ecx, DWORD PTR [edx-236]
	xor	ecx, eax
	call	@__security_check_cookie@4
	mov	eax, OFFSET __ehfuncinfo$?initService@icu_56@@YAXXZ
	jmp	___CxxFrameHandler3
text$x	ENDS
?initService@icu_56@@YAXXZ ENDP				; icu_56::initService
PUBLIC	??_V@YAXPAX@Z					; operator delete[]
PUBLIC	?reset@UInitOnce@icu_56@@QAEXXZ			; icu_56::UInitOnce::reset
_BSS	SEGMENT
	ALIGN	4

_gAvailableLocaleListInitOnce DQ 01H DUP (?)
_availableLocaleListCount DD 01H DUP (?)
; Function compile flags: /Odtp /RTCsu /ZI
_BSS	ENDS
;	COMDAT _collator_cleanup
_TEXT	SEGMENT
tv93 = -260						; size = 4
tv92 = -256						; size = 4
tv75 = -256						; size = 4
$T83936 = -248						; size = 4
$T83937 = -236						; size = 4
$T83940 = -224						; size = 4
$T83941 = -212						; size = 4
$T83942 = -200						; size = 4
_collator_cleanup PROC					; COMDAT
; Line 72
	push	ebp
	mov	ebp, esp
	sub	esp, 260				; 00000104H
	push	ebx
	push	esi
	push	edi
	lea	edi, DWORD PTR [ebp-260]
	mov	ecx, 65					; 00000041H
	mov	eax, -858993460				; ccccccccH
	rep stosd
; Line 74
	cmp	DWORD PTR _gService, 0
	je	SHORT $LN2@collator_c
; Line 75
	mov	eax, DWORD PTR _gService
	mov	DWORD PTR $T83937[ebp], eax
	mov	ecx, DWORD PTR $T83937[ebp]
	mov	DWORD PTR $T83936[ebp], ecx
	cmp	DWORD PTR $T83936[ebp], 0
	je	SHORT $LN5@collator_c
	mov	esi, esp
	push	1
	mov	edx, DWORD PTR $T83936[ebp]
	mov	eax, DWORD PTR [edx]
	mov	ecx, DWORD PTR $T83936[ebp]
	mov	edx, DWORD PTR [eax]
	call	edx
	cmp	esi, esp
	call	__RTC_CheckEsp
	mov	DWORD PTR tv75[ebp], eax
	jmp	SHORT $LN6@collator_c
$LN5@collator_c:
	mov	DWORD PTR tv75[ebp], 0
$LN6@collator_c:
; Line 76
	mov	DWORD PTR _gService, 0
$LN2@collator_c:
; Line 78
	mov	ecx, OFFSET _gServiceInitOnce
	call	?reset@UInitOnce@icu_56@@QAEXXZ		; icu_56::UInitOnce::reset
; Line 80
	cmp	DWORD PTR _availableLocaleList, 0
	je	$LN1@collator_c
; Line 81
	mov	eax, DWORD PTR _availableLocaleList
	mov	DWORD PTR $T83942[ebp], eax
	mov	ecx, DWORD PTR $T83942[ebp]
	mov	DWORD PTR $T83941[ebp], ecx
	mov	edx, DWORD PTR $T83941[ebp]
	mov	DWORD PTR $T83940[ebp], edx
	cmp	DWORD PTR $T83940[ebp], 0
	je	SHORT $LN9@collator_c
	mov	eax, DWORD PTR $T83940[ebp]
	cmp	DWORD PTR [eax-4], 0
	je	SHORT $LN7@collator_c
	mov	esi, esp
	push	3
	mov	ecx, DWORD PTR $T83941[ebp]
	mov	edx, DWORD PTR [ecx]
	mov	ecx, DWORD PTR $T83941[ebp]
	mov	eax, DWORD PTR [edx]
	call	eax
	cmp	esi, esp
	call	__RTC_CheckEsp
	mov	DWORD PTR tv92[ebp], eax
	jmp	SHORT $LN8@collator_c
$LN7@collator_c:
	mov	ecx, DWORD PTR $T83940[ebp]
	sub	ecx, 4
	push	ecx
	call	??_V@YAXPAX@Z				; operator delete[]
	add	esp, 4
	mov	DWORD PTR tv92[ebp], 0
$LN8@collator_c:
	mov	edx, DWORD PTR tv92[ebp]
	mov	DWORD PTR tv93[ebp], edx
	jmp	SHORT $LN10@collator_c
$LN9@collator_c:
	mov	DWORD PTR tv93[ebp], 0
$LN10@collator_c:
; Line 82
	mov	DWORD PTR _availableLocaleList, 0
$LN1@collator_c:
; Line 84
	mov	DWORD PTR _availableLocaleListCount, 0
; Line 85
	mov	ecx, OFFSET _gAvailableLocaleListInitOnce
	call	?reset@UInitOnce@icu_56@@QAEXXZ		; icu_56::UInitOnce::reset
; Line 86
	mov	al, 1
; Line 87
	pop	edi
	pop	esi
	pop	ebx
	add	esp, 260				; 00000104H
	cmp	ebp, esp
	call	__RTC_CheckEsp
	mov	esp, ebp
	pop	ebp
	ret	0
_collator_cleanup ENDP
; Function compile flags: /Odtp /RTCsu /ZI
_TEXT	ENDS
;	COMDAT ??_V@YAXPAX@Z
_TEXT	SEGMENT
_q$ = -8						; size = 4
___formal$ = 8						; size = 4
??_V@YAXPAX@Z PROC					; operator delete[], COMDAT
; File d:\mozilla\intl\icu\include\unicode\utypes.h
; Line 450
	push	ebp
	mov	ebp, esp
	sub	esp, 204				; 000000ccH
	push	ebx
	push	esi
	push	edi
	lea	edi, DWORD PTR [ebp-204]
	mov	ecx, 51					; 00000033H
	mov	eax, -858993460				; ccccccccH
	rep stosd
; Line 451
	mov	DWORD PTR _q$[ebp], 0
; Line 452
	mov	eax, DWORD PTR _q$[ebp]
	mov	BYTE PTR [eax], 5
; Line 453
	pop	edi
	pop	esi
	pop	ebx
	mov	esp, ebp
	pop	ebp
	ret	0
??_V@YAXPAX@Z ENDP					; operator delete[]
; Function compile flags: /Odtp /RTCsu /ZI
_TEXT	ENDS
;	COMDAT ?reset@UInitOnce@icu_56@@QAEXXZ
_TEXT	SEGMENT
_this$ = -8						; size = 4
?reset@UInitOnce@icu_56@@QAEXXZ PROC			; icu_56::UInitOnce::reset, COMDAT
; _this$ = ecx
; File d:\mozilla\intl\icu\source\common\umutex.h
; Line 220
	push	ebp
	mov	ebp, esp
	sub	esp, 204				; 000000ccH
	push	ebx
	push	esi
	push	edi
	push	ecx
	lea	edi, DWORD PTR [ebp-204]
	mov	ecx, 51					; 00000033H
	mov	eax, -858993460				; ccccccccH
	rep stosd
	pop	ecx
	mov	DWORD PTR _this$[ebp], ecx
	mov	eax, DWORD PTR _this$[ebp]
	mov	DWORD PTR [eax], 0
	pop	edi
	pop	esi
	pop	ebx
	mov	esp, ebp
	pop	ebp
	ret	0
?reset@UInitOnce@icu_56@@QAEXXZ ENDP			; icu_56::UInitOnce::reset
_TEXT	ENDS
PUBLIC	??0ICUCollatorFactory@icu_56@@QAE@XZ		; icu_56::ICUCollatorFactory::ICUCollatorFactory
PUBLIC	??_C@_1BC@NKJPGNDM@?$AAC?$AAo?$AAl?$AAl?$AAa?$AAt?$AAo?$AAr?$AA?$AA@ ; `string'
PUBLIC	__$ArrayPad$
EXTRN	__imp_?registerFactory@ICUService@icu_56@@UAEPBXPAVICUServiceFactory@2@AAW4UErrorCode@@@Z:PROC
EXTRN	__imp_??0ICULocaleService@icu_56@@QAE@ABVUnicodeString@1@@Z:PROC
EXTRN	__imp_??0UnicodeString@icu_56@@QAE@CPB_WH@Z:PROC
;	COMDAT ??_C@_1BC@NKJPGNDM@?$AAC?$AAo?$AAl?$AAl?$AAa?$AAt?$AAo?$AAr?$AA?$AA@
; File d:\mozilla\intl\icu\source\i18n\coll.cpp
CONST	SEGMENT
??_C@_1BC@NKJPGNDM@?$AAC?$AAo?$AAl?$AAl?$AAa?$AAt?$AAo?$AAr?$AA?$AA@ DB 'C'
	DB	00H, 'o', 00H, 'l', 00H, 'l', 00H, 'a', 00H, 't', 00H, 'o', 00H
	DB	'r', 00H, 00H, 00H				; `string'
CONST	ENDS
;	COMDAT xdata$x
xdata$x	SEGMENT
__unwindtable$??0ICUCollatorService@icu_56@@QAE@XZ DD 0ffffffffH
	DD	FLAT:__unwindfunclet$??0ICUCollatorService@icu_56@@QAE@XZ$0
	DD	00H
	DD	FLAT:__unwindfunclet$??0ICUCollatorService@icu_56@@QAE@XZ$1
	DD	0ffffffffH
	DD	FLAT:__unwindfunclet$??0ICUCollatorService@icu_56@@QAE@XZ$1
	DD	02H
	DD	FLAT:__unwindfunclet$??0ICUCollatorService@icu_56@@QAE@XZ$2
__ehfuncinfo$??0ICUCollatorService@icu_56@@QAE@XZ DD 019930522H
	DD	04H
	DD	FLAT:__unwindtable$??0ICUCollatorService@icu_56@@QAE@XZ
	DD	2 DUP(00H)
	DD	2 DUP(00H)
	DD	00H
	DD	01H
; Function compile flags: /Odtp /RTCsu /ZI
xdata$x	ENDS
;	COMDAT ??0ICUCollatorService@icu_56@@QAE@XZ
_TEXT	SEGMENT
tv139 = -336						; size = 4
tv142 = -332						; size = 4
tv137 = -332						; size = 4
$T75601 = -324						; size = 64
$T83954 = -252						; size = 4
$T83955 = -240						; size = 4
_status$ = -36						; size = 4
_this$ = -24						; size = 4
__$ArrayPad$ = -16					; size = 4
__$EHRec$ = -12						; size = 12
??0ICUCollatorService@icu_56@@QAE@XZ PROC		; icu_56::ICUCollatorService::ICUCollatorService, COMDAT
; _this$ = ecx
; Line 154
	push	ebp
	mov	ebp, esp
	push	-1
	push	__ehhandler$??0ICUCollatorService@icu_56@@QAE@XZ
	mov	eax, DWORD PTR fs:0
	push	eax
	sub	esp, 324				; 00000144H
	push	ebx
	push	esi
	push	edi
	push	ecx
	lea	edi, DWORD PTR [ebp-336]
	mov	ecx, 81					; 00000051H
	mov	eax, -858993460				; ccccccccH
	rep stosd
	pop	ecx
	mov	eax, DWORD PTR ___security_cookie
	xor	eax, ebp
	mov	DWORD PTR __$ArrayPad$[ebp], eax
	push	eax
	lea	eax, DWORD PTR __$EHRec$[ebp]
	mov	DWORD PTR fs:0, eax
	mov	DWORD PTR _this$[ebp], ecx
	mov	esi, esp
	push	-1
	push	OFFSET ??_C@_1BC@NKJPGNDM@?$AAC?$AAo?$AAl?$AAl?$AAa?$AAt?$AAo?$AAr?$AA?$AA@
	push	1
	lea	ecx, DWORD PTR $T75601[ebp]
	call	DWORD PTR __imp_??0UnicodeString@icu_56@@QAE@CPB_WH@Z
	cmp	esi, esp
	call	__RTC_CheckEsp
	mov	DWORD PTR tv142[ebp], eax
	mov	eax, DWORD PTR tv142[ebp]
	mov	DWORD PTR tv139[ebp], eax
	mov	DWORD PTR __$EHRec$[ebp+8], 0
	mov	esi, esp
	mov	ecx, DWORD PTR tv139[ebp]
	push	ecx
	mov	ecx, DWORD PTR _this$[ebp]
	call	DWORD PTR __imp_??0ICULocaleService@icu_56@@QAE@ABVUnicodeString@1@@Z
	cmp	esi, esp
	call	__RTC_CheckEsp
	mov	BYTE PTR __$EHRec$[ebp+8], 2
	mov	esi, esp
	lea	ecx, DWORD PTR $T75601[ebp]
	call	DWORD PTR __imp_??1UnicodeString@icu_56@@UAE@XZ
	cmp	esi, esp
	call	__RTC_CheckEsp
	mov	eax, DWORD PTR _this$[ebp]
	mov	DWORD PTR [eax], OFFSET ??_7ICUCollatorService@icu_56@@6B@
; Line 155
	mov	DWORD PTR _status$[ebp], 0
; Line 156
	mov	esi, esp
	push	136					; 00000088H
	call	DWORD PTR __imp_??2UMemory@icu_56@@SAPAXI@Z
	add	esp, 4
	cmp	esi, esp
	call	__RTC_CheckEsp
	mov	DWORD PTR $T83955[ebp], eax
	mov	BYTE PTR __$EHRec$[ebp+8], 3
	cmp	DWORD PTR $T83955[ebp], 0
	je	SHORT $LN3@ICUCollato
	mov	ecx, DWORD PTR $T83955[ebp]
	call	??0ICUCollatorFactory@icu_56@@QAE@XZ	; icu_56::ICUCollatorFactory::ICUCollatorFactory
	mov	DWORD PTR tv137[ebp], eax
	jmp	SHORT $LN4@ICUCollato
$LN3@ICUCollato:
	mov	DWORD PTR tv137[ebp], 0
$LN4@ICUCollato:
	mov	eax, DWORD PTR tv137[ebp]
	mov	DWORD PTR $T83954[ebp], eax
	mov	BYTE PTR __$EHRec$[ebp+8], 2
	mov	esi, esp
	lea	ecx, DWORD PTR _status$[ebp]
	push	ecx
	mov	edx, DWORD PTR $T83954[ebp]
	push	edx
	mov	ecx, DWORD PTR _this$[ebp]
	call	DWORD PTR __imp_?registerFactory@ICUService@icu_56@@UAEPBXPAVICUServiceFactory@2@AAW4UErrorCode@@@Z
	cmp	esi, esp
	call	__RTC_CheckEsp
; Line 157
	mov	DWORD PTR __$EHRec$[ebp+8], -1
	mov	eax, DWORD PTR _this$[ebp]
	push	edx
	mov	ecx, ebp
	push	eax
	lea	edx, DWORD PTR $LN11@ICUCollato
	call	@_RTC_CheckStackVars@8
	pop	eax
	pop	edx
	mov	ecx, DWORD PTR __$EHRec$[ebp]
	mov	DWORD PTR fs:0, ecx
	pop	ecx
	pop	edi
	pop	esi
	pop	ebx
	mov	ecx, DWORD PTR __$ArrayPad$[ebp]
	xor	ecx, ebp
	call	@__security_check_cookie@4
	add	esp, 336				; 00000150H
	cmp	ebp, esp
	call	__RTC_CheckEsp
	mov	esp, ebp
	pop	ebp
	ret	0
	npad	2
$LN11@ICUCollato:
	DD	1
	DD	$LN10@ICUCollato
$LN10@ICUCollato:
	DD	-36					; ffffffdcH
	DD	4
	DD	$LN8@ICUCollato
$LN8@ICUCollato:
	DB	115					; 00000073H
	DB	116					; 00000074H
	DB	97					; 00000061H
	DB	116					; 00000074H
	DB	117					; 00000075H
	DB	115					; 00000073H
	DB	0
_TEXT	ENDS
;	COMDAT text$x
text$x	SEGMENT
__unwindfunclet$??0ICUCollatorService@icu_56@@QAE@XZ$0:
	mov	esi, esp
	lea	ecx, DWORD PTR $T75601[ebp]
	call	DWORD PTR __imp_??1UnicodeString@icu_56@@UAE@XZ
	cmp	esi, esp
	jmp	__RTC_CheckEsp
__unwindfunclet$??0ICUCollatorService@icu_56@@QAE@XZ$1:
	mov	esi, esp
	mov	ecx, DWORD PTR _this$[ebp]
	call	DWORD PTR __imp_??1ICULocaleService@icu_56@@UAE@XZ
	cmp	esi, esp
	jmp	__RTC_CheckEsp
__unwindfunclet$??0ICUCollatorService@icu_56@@QAE@XZ$2:
	mov	esi, esp
	mov	eax, DWORD PTR $T83955[ebp]
	push	eax
	call	DWORD PTR __imp_??3UMemory@icu_56@@SAXPAX@Z
	add	esp, 4
	cmp	esi, esp
	jmp	__RTC_CheckEsp
__ehhandler$??0ICUCollatorService@icu_56@@QAE@XZ:
	mov	edx, DWORD PTR [esp+8]
	lea	eax, DWORD PTR [edx+12]
	mov	ecx, DWORD PTR [edx-340]
	xor	ecx, eax
	call	@__security_check_cookie@4
	mov	ecx, DWORD PTR [edx-4]
	xor	ecx, eax
	call	@__security_check_cookie@4
	mov	eax, OFFSET __ehfuncinfo$??0ICUCollatorService@icu_56@@QAE@XZ
	jmp	___CxxFrameHandler3
text$x	ENDS
??0ICUCollatorService@icu_56@@QAE@XZ ENDP		; icu_56::ICUCollatorService::ICUCollatorService
PUBLIC	??_C@_0O@PJMCGFEE@icudt56l?9coll?$AA@		; `string'
PUBLIC	__$ArrayPad$
EXTRN	__imp_??0ICUResourceBundleFactory@icu_56@@QAE@ABVUnicodeString@1@@Z:PROC
EXTRN	__imp_??0UnicodeString@icu_56@@QAE@PBDHW4EInvariant@01@@Z:PROC
;	COMDAT ??_C@_0O@PJMCGFEE@icudt56l?9coll?$AA@
CONST	SEGMENT
??_C@_0O@PJMCGFEE@icudt56l?9coll?$AA@ DB 'icudt56l-coll', 00H ; `string'
CONST	ENDS
;	COMDAT xdata$x
xdata$x	SEGMENT
__unwindtable$??0ICUCollatorFactory@icu_56@@QAE@XZ DD 0ffffffffH
	DD	FLAT:__unwindfunclet$??0ICUCollatorFactory@icu_56@@QAE@XZ$0
	DD	00H
	DD	FLAT:__unwindfunclet$??0ICUCollatorFactory@icu_56@@QAE@XZ$1
	DD	0ffffffffH
	DD	FLAT:__unwindfunclet$??0ICUCollatorFactory@icu_56@@QAE@XZ$1
__ehfuncinfo$??0ICUCollatorFactory@icu_56@@QAE@XZ DD 019930522H
	DD	03H
	DD	FLAT:__unwindtable$??0ICUCollatorFactory@icu_56@@QAE@XZ
	DD	2 DUP(00H)
	DD	2 DUP(00H)
	DD	00H
	DD	01H
; Function compile flags: /Odtp /RTCsu /ZI
xdata$x	ENDS
;	COMDAT ??0ICUCollatorFactory@icu_56@@QAE@XZ
_TEXT	SEGMENT
tv89 = -300						; size = 4
tv91 = -296						; size = 4
$T75556 = -288						; size = 64
_this$ = -24						; size = 4
__$ArrayPad$ = -16					; size = 4
__$EHRec$ = -12						; size = 12
??0ICUCollatorFactory@icu_56@@QAE@XZ PROC		; icu_56::ICUCollatorFactory::ICUCollatorFactory, COMDAT
; _this$ = ecx
; Line 125
	push	ebp
	mov	ebp, esp
	push	-1
	push	__ehhandler$??0ICUCollatorFactory@icu_56@@QAE@XZ
	mov	eax, DWORD PTR fs:0
	push	eax
	sub	esp, 288				; 00000120H
	push	ebx
	push	esi
	push	edi
	push	ecx
	lea	edi, DWORD PTR [ebp-300]
	mov	ecx, 72					; 00000048H
	mov	eax, -858993460				; ccccccccH
	rep stosd
	pop	ecx
	mov	eax, DWORD PTR ___security_cookie
	xor	eax, ebp
	mov	DWORD PTR __$ArrayPad$[ebp], eax
	push	eax
	lea	eax, DWORD PTR __$EHRec$[ebp]
	mov	DWORD PTR fs:0, eax
	mov	DWORD PTR _this$[ebp], ecx
	mov	esi, esp
	push	0
	push	-1
	push	OFFSET ??_C@_0O@PJMCGFEE@icudt56l?9coll?$AA@
	lea	ecx, DWORD PTR $T75556[ebp]
	call	DWORD PTR __imp_??0UnicodeString@icu_56@@QAE@PBDHW4EInvariant@01@@Z
	cmp	esi, esp
	call	__RTC_CheckEsp
	mov	DWORD PTR tv91[ebp], eax
	mov	eax, DWORD PTR tv91[ebp]
	mov	DWORD PTR tv89[ebp], eax
	mov	DWORD PTR __$EHRec$[ebp+8], 0
	mov	esi, esp
	mov	ecx, DWORD PTR tv89[ebp]
	push	ecx
	mov	ecx, DWORD PTR _this$[ebp]
	call	DWORD PTR __imp_??0ICUResourceBundleFactory@icu_56@@QAE@ABVUnicodeString@1@@Z
	cmp	esi, esp
	call	__RTC_CheckEsp
	mov	BYTE PTR __$EHRec$[ebp+8], 2
	mov	esi, esp
	lea	ecx, DWORD PTR $T75556[ebp]
	call	DWORD PTR __imp_??1UnicodeString@icu_56@@UAE@XZ
	cmp	esi, esp
	call	__RTC_CheckEsp
	mov	eax, DWORD PTR _this$[ebp]
	mov	DWORD PTR [eax], OFFSET ??_7ICUCollatorFactory@icu_56@@6B@
	mov	DWORD PTR __$EHRec$[ebp+8], -1
	mov	eax, DWORD PTR _this$[ebp]
	mov	ecx, DWORD PTR __$EHRec$[ebp]
	mov	DWORD PTR fs:0, ecx
	pop	ecx
	pop	edi
	pop	esi
	pop	ebx
	mov	ecx, DWORD PTR __$ArrayPad$[ebp]
	xor	ecx, ebp
	call	@__security_check_cookie@4
	add	esp, 300				; 0000012cH
	cmp	ebp, esp
	call	__RTC_CheckEsp
	mov	esp, ebp
	pop	ebp
	ret	0
_TEXT	ENDS
;	COMDAT text$x
text$x	SEGMENT
__unwindfunclet$??0ICUCollatorFactory@icu_56@@QAE@XZ$0:
	mov	esi, esp
	lea	ecx, DWORD PTR $T75556[ebp]
	call	DWORD PTR __imp_??1UnicodeString@icu_56@@UAE@XZ
	cmp	esi, esp
	jmp	__RTC_CheckEsp
__unwindfunclet$??0ICUCollatorFactory@icu_56@@QAE@XZ$1:
	mov	esi, esp
	mov	ecx, DWORD PTR _this$[ebp]
	call	DWORD PTR __imp_??1ICUResourceBundleFactory@icu_56@@UAE@XZ
	cmp	esi, esp
	jmp	__RTC_CheckEsp
__ehhandler$??0ICUCollatorFactory@icu_56@@QAE@XZ:
	mov	edx, DWORD PTR [esp+8]
	lea	eax, DWORD PTR [edx+12]
	mov	ecx, DWORD PTR [edx-304]
	xor	ecx, eax
	call	@__security_check_cookie@4
	mov	ecx, DWORD PTR [edx-4]
	xor	ecx, eax
	call	@__security_check_cookie@4
	mov	eax, OFFSET __ehfuncinfo$??0ICUCollatorFactory@icu_56@@QAE@XZ
	jmp	___CxxFrameHandler3
text$x	ENDS
??0ICUCollatorFactory@icu_56@@QAE@XZ ENDP		; icu_56::ICUCollatorFactory::ICUCollatorFactory
EXTRN	__imp_?removeRef@SharedObject@icu_56@@QBEXXZ:PROC
EXTRN	??0RuleBasedCollator@icu_56@@AAE@PBUCollationCacheEntry@1@@Z:PROC ; icu_56::RuleBasedCollator::RuleBasedCollator
EXTRN	?loadTailoring@CollationLoader@icu_56@@SAPBUCollationCacheEntry@2@ABVLocale@2@AAW4UErrorCode@@@Z:PROC ; icu_56::CollationLoader::loadTailoring
;	COMDAT xdata$x
xdata$x	SEGMENT
__unwindtable$?makeInstance@Collator@icu_56@@CAPAV12@ABVLocale@2@AAW4UErrorCode@@@Z DD 0ffffffffH
	DD	FLAT:__unwindfunclet$?makeInstance@Collator@icu_56@@CAPAV12@ABVLocale@2@AAW4UErrorCode@@@Z$0
__ehfuncinfo$?makeInstance@Collator@icu_56@@CAPAV12@ABVLocale@2@AAW4UErrorCode@@@Z DD 019930522H
	DD	01H
	DD	FLAT:__unwindtable$?makeInstance@Collator@icu_56@@CAPAV12@ABVLocale@2@AAW4UErrorCode@@@Z
	DD	2 DUP(00H)
	DD	2 DUP(00H)
	DD	00H
	DD	01H
; Function compile flags: /Odtp /RTCsu /ZI
xdata$x	ENDS
;	COMDAT ?makeInstance@Collator@icu_56@@CAPAV12@ABVLocale@2@AAW4UErrorCode@@@Z
_TEXT	SEGMENT
tv82 = -256						; size = 4
$T83983 = -248						; size = 4
$T83984 = -236						; size = 4
_result$75837 = -32					; size = 4
_entry$ = -20						; size = 4
__$EHRec$ = -12						; size = 12
_desiredLocale$ = 8					; size = 4
_status$ = 12						; size = 4
?makeInstance@Collator@icu_56@@CAPAV12@ABVLocale@2@AAW4UErrorCode@@@Z PROC ; icu_56::Collator::makeInstance, COMDAT
; Line 457
	push	ebp
	mov	ebp, esp
	push	-1
	push	__ehhandler$?makeInstance@Collator@icu_56@@CAPAV12@ABVLocale@2@AAW4UErrorCode@@@Z
	mov	eax, DWORD PTR fs:0
	push	eax
	sub	esp, 244				; 000000f4H
	push	ebx
	push	esi
	push	edi
	lea	edi, DWORD PTR [ebp-256]
	mov	ecx, 61					; 0000003dH
	mov	eax, -858993460				; ccccccccH
	rep stosd
	mov	eax, DWORD PTR ___security_cookie
	xor	eax, ebp
	push	eax
	lea	eax, DWORD PTR __$EHRec$[ebp]
	mov	DWORD PTR fs:0, eax
; Line 458
	mov	eax, DWORD PTR _status$[ebp]
	push	eax
	mov	ecx, DWORD PTR _desiredLocale$[ebp]
	push	ecx
	call	?loadTailoring@CollationLoader@icu_56@@SAPBUCollationCacheEntry@2@ABVLocale@2@AAW4UErrorCode@@@Z ; icu_56::CollationLoader::loadTailoring
	add	esp, 8
	mov	DWORD PTR _entry$[ebp], eax
; Line 459
	mov	eax, DWORD PTR _status$[ebp]
	mov	ecx, DWORD PTR [eax]
	push	ecx
	call	?U_SUCCESS@@YACW4UErrorCode@@@Z		; U_SUCCESS
	add	esp, 4
	movsx	edx, al
	test	edx, edx
	je	$LN3@makeInstan
; Line 460
	mov	esi, esp
	push	232					; 000000e8H
	call	DWORD PTR __imp_??2UMemory@icu_56@@SAPAXI@Z
	add	esp, 4
	cmp	esi, esp
	call	__RTC_CheckEsp
	mov	DWORD PTR $T83984[ebp], eax
	mov	DWORD PTR __$EHRec$[ebp+8], 0
	cmp	DWORD PTR $T83984[ebp], 0
	je	SHORT $LN6@makeInstan
	mov	eax, DWORD PTR _entry$[ebp]
	push	eax
	mov	ecx, DWORD PTR $T83984[ebp]
	call	??0RuleBasedCollator@icu_56@@AAE@PBUCollationCacheEntry@1@@Z ; icu_56::RuleBasedCollator::RuleBasedCollator
	mov	DWORD PTR tv82[ebp], eax
	jmp	SHORT $LN7@makeInstan
$LN6@makeInstan:
	mov	DWORD PTR tv82[ebp], 0
$LN7@makeInstan:
	mov	ecx, DWORD PTR tv82[ebp]
	mov	DWORD PTR $T83983[ebp], ecx
	mov	DWORD PTR __$EHRec$[ebp+8], -1
	mov	edx, DWORD PTR $T83983[ebp]
	mov	DWORD PTR _result$75837[ebp], edx
; Line 461
	cmp	DWORD PTR _result$75837[ebp], 0
	je	SHORT $LN2@makeInstan
; Line 464
	mov	esi, esp
	mov	ecx, DWORD PTR _entry$[ebp]
	call	DWORD PTR __imp_?removeRef@SharedObject@icu_56@@QBEXXZ
	cmp	esi, esp
	call	__RTC_CheckEsp
; Line 465
	mov	eax, DWORD PTR _result$75837[ebp]
	jmp	SHORT $LN4@makeInstan
$LN2@makeInstan:
; Line 467
	mov	eax, DWORD PTR _status$[ebp]
	mov	DWORD PTR [eax], 7
$LN3@makeInstan:
; Line 469
	cmp	DWORD PTR _entry$[ebp], 0
	je	SHORT $LN1@makeInstan
; Line 471
	mov	esi, esp
	mov	ecx, DWORD PTR _entry$[ebp]
	call	DWORD PTR __imp_?removeRef@SharedObject@icu_56@@QBEXXZ
	cmp	esi, esp
	call	__RTC_CheckEsp
$LN1@makeInstan:
; Line 473
	xor	eax, eax
$LN4@makeInstan:
; Line 474
	mov	ecx, DWORD PTR __$EHRec$[ebp]
	mov	DWORD PTR fs:0, ecx
	pop	ecx
	pop	edi
	pop	esi
	pop	ebx
	add	esp, 256				; 00000100H
	cmp	ebp, esp
	call	__RTC_CheckEsp
	mov	esp, ebp
	pop	ebp
	ret	0
_TEXT	ENDS
;	COMDAT text$x
text$x	SEGMENT
__unwindfunclet$?makeInstance@Collator@icu_56@@CAPAV12@ABVLocale@2@AAW4UErrorCode@@@Z$0:
	mov	esi, esp
	mov	eax, DWORD PTR $T83984[ebp]
	push	eax
	call	DWORD PTR __imp_??3UMemory@icu_56@@SAXPAX@Z
	add	esp, 4
	cmp	esi, esp
	jmp	__RTC_CheckEsp
__ehhandler$?makeInstance@Collator@icu_56@@CAPAV12@ABVLocale@2@AAW4UErrorCode@@@Z:
	mov	edx, DWORD PTR [esp+8]
	lea	eax, DWORD PTR [edx+12]
	mov	ecx, DWORD PTR [edx-260]
	xor	ecx, eax
	call	@__security_check_cookie@4
	mov	eax, OFFSET __ehfuncinfo$?makeInstance@Collator@icu_56@@CAPAV12@ABVLocale@2@AAW4UErrorCode@@@Z
	jmp	___CxxFrameHandler3
text$x	ENDS
?makeInstance@Collator@icu_56@@CAPAV12@ABVLocale@2@AAW4UErrorCode@@@Z ENDP ; icu_56::Collator::makeInstance
; Function compile flags: /Odtp /RTCsu /ZI
;	COMDAT ?U_SUCCESS@@YACW4UErrorCode@@@Z
_TEXT	SEGMENT
_code$ = 8						; size = 4
?U_SUCCESS@@YACW4UErrorCode@@@Z PROC			; U_SUCCESS, COMDAT
; File d:\mozilla\intl\icu\include\unicode\utypes.h
; Line 699
	push	ebp
	mov	ebp, esp
	sub	esp, 192				; 000000c0H
	push	ebx
	push	esi
	push	edi
	lea	edi, DWORD PTR [ebp-192]
	mov	ecx, 48					; 00000030H
	mov	eax, -858993460				; ccccccccH
	rep stosd
	cmp	DWORD PTR _code$[ebp], 0
	setle	al
	pop	edi
	pop	esi
	pop	ebx
	mov	esp, ebp
	pop	ebp
	ret	0
?U_SUCCESS@@YACW4UErrorCode@@@Z ENDP			; U_SUCCESS
_TEXT	ENDS
PUBLIC	?safeClone@Collator@icu_56@@UBEPAV12@XZ		; icu_56::Collator::safeClone
; Function compile flags: /Odtp /RTCsu /ZI
;	COMDAT ?safeClone@Collator@icu_56@@UBEPAV12@XZ
_TEXT	SEGMENT
_this$ = -8						; size = 4
?safeClone@Collator@icu_56@@UBEPAV12@XZ PROC		; icu_56::Collator::safeClone, COMDAT
; _this$ = ecx
; File d:\mozilla\intl\icu\source\i18n\coll.cpp
; Line 477
	push	ebp
	mov	ebp, esp
	sub	esp, 204				; 000000ccH
	push	ebx
	push	esi
	push	edi
	push	ecx
	lea	edi, DWORD PTR [ebp-204]
	mov	ecx, 51					; 00000033H
	mov	eax, -858993460				; ccccccccH
	rep stosd
	pop	ecx
	mov	DWORD PTR _this$[ebp], ecx
; Line 478
	mov	eax, DWORD PTR _this$[ebp]
	mov	edx, DWORD PTR [eax]
	mov	esi, esp
	mov	ecx, DWORD PTR _this$[ebp]
	mov	eax, DWORD PTR [edx+16]
	call	eax
	cmp	esi, esp
	call	__RTC_CheckEsp
; Line 479
	pop	edi
	pop	esi
	pop	ebx
	add	esp, 204				; 000000ccH
	cmp	ebp, esp
	call	__RTC_CheckEsp
	mov	esp, ebp
	pop	ebp
	ret	0
?safeClone@Collator@icu_56@@UBEPAV12@XZ ENDP		; icu_56::Collator::safeClone
_TEXT	ENDS
PUBLIC	?compare@Collator@icu_56@@UBE?AW4EComparisonResult@12@ABVUnicodeString@2@0@Z ; icu_56::Collator::compare
; Function compile flags: /Odtp /RTCsu /ZI
;	COMDAT ?compare@Collator@icu_56@@UBE?AW4EComparisonResult@12@ABVUnicodeString@2@0@Z
_TEXT	SEGMENT
_ec$ = -20						; size = 4
_this$ = -8						; size = 4
_source$ = 8						; size = 4
_target$ = 12						; size = 4
?compare@Collator@icu_56@@UBE?AW4EComparisonResult@12@ABVUnicodeString@2@0@Z PROC ; icu_56::Collator::compare, COMDAT
; _this$ = ecx
; Line 484
	push	ebp
	mov	ebp, esp
	sub	esp, 216				; 000000d8H
	push	ebx
	push	esi
	push	edi
	push	ecx
	lea	edi, DWORD PTR [ebp-216]
	mov	ecx, 54					; 00000036H
	mov	eax, -858993460				; ccccccccH
	rep stosd
	pop	ecx
	mov	DWORD PTR _this$[ebp], ecx
; Line 485
	mov	DWORD PTR _ec$[ebp], 0
; Line 486
	mov	esi, esp
	lea	eax, DWORD PTR _ec$[ebp]
	push	eax
	mov	ecx, DWORD PTR _target$[ebp]
	push	ecx
	mov	edx, DWORD PTR _source$[ebp]
	push	edx
	mov	eax, DWORD PTR _this$[ebp]
	mov	edx, DWORD PTR [eax]
	mov	ecx, DWORD PTR _this$[ebp]
	mov	eax, DWORD PTR [edx+40]
	call	eax
	cmp	esi, esp
	call	__RTC_CheckEsp
; Line 487
	push	edx
	mov	ecx, ebp
	push	eax
