; Listing generated by Microsoft (R) Optimizing Compiler Version 16.00.40219.01 

	TITLE	D:\mozilla\intl\icu\source\i18n\collationsets.cpp
	.686P
	.XMM
	include listing.inc
	.model	flat

INCLUDELIB MSVCRTD
INCLUDELIB OLDNAMES

PUBLIC	?value@?$integral_constant@_N$0A@@tr1@std@@2_NB	; std::tr1::integral_constant<bool,0>::value
PUBLIC	?value@?$integral_constant@_N$00@tr1@std@@2_NB	; std::tr1::integral_constant<bool,1>::value
PUBLIC	?value@?$integral_constant@I$0A@@tr1@std@@2IB	; std::tr1::integral_constant<unsigned int,0>::value
PUBLIC	?_Rank@?$_Arithmetic_traits@_N@std@@2HB		; std::_Arithmetic_traits<bool>::_Rank
PUBLIC	?_Rank@?$_Arithmetic_traits@D@std@@2HB		; std::_Arithmetic_traits<char>::_Rank
PUBLIC	?_Rank@?$_Arithmetic_traits@C@std@@2HB		; std::_Arithmetic_traits<signed char>::_Rank
PUBLIC	?_Rank@?$_Arithmetic_traits@E@std@@2HB		; std::_Arithmetic_traits<unsigned char>::_Rank
PUBLIC	?_Rank@?$_Arithmetic_traits@F@std@@2HB		; std::_Arithmetic_traits<short>::_Rank
PUBLIC	?_Rank@?$_Arithmetic_traits@G@std@@2HB		; std::_Arithmetic_traits<unsigned short>::_Rank
PUBLIC	?_Rank@?$_Arithmetic_traits@H@std@@2HB		; std::_Arithmetic_traits<int>::_Rank
PUBLIC	?_Rank@?$_Arithmetic_traits@I@std@@2HB		; std::_Arithmetic_traits<unsigned int>::_Rank
PUBLIC	?_Rank@?$_Arithmetic_traits@J@std@@2HB		; std::_Arithmetic_traits<long>::_Rank
PUBLIC	?_Rank@?$_Arithmetic_traits@K@std@@2HB		; std::_Arithmetic_traits<unsigned long>::_Rank
PUBLIC	?_Rank@?$_Arithmetic_traits@_J@std@@2HB		; std::_Arithmetic_traits<__int64>::_Rank
PUBLIC	?_Rank@?$_Arithmetic_traits@_K@std@@2HB		; std::_Arithmetic_traits<unsigned __int64>::_Rank
PUBLIC	?_Rank@?$_Arithmetic_traits@M@std@@2HB		; std::_Arithmetic_traits<float>::_Rank
PUBLIC	?_Rank@?$_Arithmetic_traits@N@std@@2HB		; std::_Arithmetic_traits<double>::_Rank
PUBLIC	?_Rank@?$_Arithmetic_traits@O@std@@2HB		; std::_Arithmetic_traits<long double>::_Rank
PUBLIC	?collate@?$_Locbase@H@std@@2HB			; std::_Locbase<int>::collate
PUBLIC	?ctype@?$_Locbase@H@std@@2HB			; std::_Locbase<int>::ctype
PUBLIC	?monetary@?$_Locbase@H@std@@2HB			; std::_Locbase<int>::monetary
PUBLIC	?numeric@?$_Locbase@H@std@@2HB			; std::_Locbase<int>::numeric
PUBLIC	?time@?$_Locbase@H@std@@2HB			; std::_Locbase<int>::time
PUBLIC	?messages@?$_Locbase@H@std@@2HB			; std::_Locbase<int>::messages
PUBLIC	?all@?$_Locbase@H@std@@2HB			; std::_Locbase<int>::all
PUBLIC	?none@?$_Locbase@H@std@@2HB			; std::_Locbase<int>::none
PUBLIC	?skipws@?$_Iosb@H@std@@2W4_Fmtflags@12@B	; std::_Iosb<int>::skipws
PUBLIC	?unitbuf@?$_Iosb@H@std@@2W4_Fmtflags@12@B	; std::_Iosb<int>::unitbuf
PUBLIC	?uppercase@?$_Iosb@H@std@@2W4_Fmtflags@12@B	; std::_Iosb<int>::uppercase
PUBLIC	?showbase@?$_Iosb@H@std@@2W4_Fmtflags@12@B	; std::_Iosb<int>::showbase
PUBLIC	?showpoint@?$_Iosb@H@std@@2W4_Fmtflags@12@B	; std::_Iosb<int>::showpoint
PUBLIC	?showpos@?$_Iosb@H@std@@2W4_Fmtflags@12@B	; std::_Iosb<int>::showpos
PUBLIC	?left@?$_Iosb@H@std@@2W4_Fmtflags@12@B		; std::_Iosb<int>::left
PUBLIC	?right@?$_Iosb@H@std@@2W4_Fmtflags@12@B		; std::_Iosb<int>::right
PUBLIC	?internal@?$_Iosb@H@std@@2W4_Fmtflags@12@B	; std::_Iosb<int>::internal
PUBLIC	?dec@?$_Iosb@H@std@@2W4_Fmtflags@12@B		; std::_Iosb<int>::dec
PUBLIC	?oct@?$_Iosb@H@std@@2W4_Fmtflags@12@B		; std::_Iosb<int>::oct
PUBLIC	?hex@?$_Iosb@H@std@@2W4_Fmtflags@12@B		; std::_Iosb<int>::hex
PUBLIC	?scientific@?$_Iosb@H@std@@2W4_Fmtflags@12@B	; std::_Iosb<int>::scientific
PUBLIC	?fixed@?$_Iosb@H@std@@2W4_Fmtflags@12@B		; std::_Iosb<int>::fixed
PUBLIC	?hexfloat@?$_Iosb@H@std@@2W4_Fmtflags@12@B	; std::_Iosb<int>::hexfloat
PUBLIC	?boolalpha@?$_Iosb@H@std@@2W4_Fmtflags@12@B	; std::_Iosb<int>::boolalpha
PUBLIC	?_Stdio@?$_Iosb@H@std@@2W4_Fmtflags@12@B	; std::_Iosb<int>::_Stdio
PUBLIC	?adjustfield@?$_Iosb@H@std@@2W4_Fmtflags@12@B	; std::_Iosb<int>::adjustfield
PUBLIC	?basefield@?$_Iosb@H@std@@2W4_Fmtflags@12@B	; std::_Iosb<int>::basefield
PUBLIC	?floatfield@?$_Iosb@H@std@@2W4_Fmtflags@12@B	; std::_Iosb<int>::floatfield
PUBLIC	?goodbit@?$_Iosb@H@std@@2W4_Iostate@12@B	; std::_Iosb<int>::goodbit
PUBLIC	?eofbit@?$_Iosb@H@std@@2W4_Iostate@12@B		; std::_Iosb<int>::eofbit
PUBLIC	?failbit@?$_Iosb@H@std@@2W4_Iostate@12@B	; std::_Iosb<int>::failbit
PUBLIC	?badbit@?$_Iosb@H@std@@2W4_Iostate@12@B		; std::_Iosb<int>::badbit
PUBLIC	?_Hardfail@?$_Iosb@H@std@@2W4_Iostate@12@B	; std::_Iosb<int>::_Hardfail
PUBLIC	?in@?$_Iosb@H@std@@2W4_Openmode@12@B		; std::_Iosb<int>::in
PUBLIC	?out@?$_Iosb@H@std@@2W4_Openmode@12@B		; std::_Iosb<int>::out
PUBLIC	?ate@?$_Iosb@H@std@@2W4_Openmode@12@B		; std::_Iosb<int>::ate
PUBLIC	?app@?$_Iosb@H@std@@2W4_Openmode@12@B		; std::_Iosb<int>::app
PUBLIC	?trunc@?$_Iosb@H@std@@2W4_Openmode@12@B		; std::_Iosb<int>::trunc
PUBLIC	?_Nocreate@?$_Iosb@H@std@@2W4_Openmode@12@B	; std::_Iosb<int>::_Nocreate
PUBLIC	?_Noreplace@?$_Iosb@H@std@@2W4_Openmode@12@B	; std::_Iosb<int>::_Noreplace
PUBLIC	?binary@?$_Iosb@H@std@@2W4_Openmode@12@B	; std::_Iosb<int>::binary
PUBLIC	?beg@?$_Iosb@H@std@@2W4_Seekdir@12@B		; std::_Iosb<int>::beg
PUBLIC	?cur@?$_Iosb@H@std@@2W4_Seekdir@12@B		; std::_Iosb<int>::cur
PUBLIC	?end@?$_Iosb@H@std@@2W4_Seekdir@12@B		; std::_Iosb<int>::end
PUBLIC	?TERMINATOR_BYTE@Collation@icu_56@@2EB		; icu_56::Collation::TERMINATOR_BYTE
PUBLIC	?LEVEL_SEPARATOR_BYTE@Collation@icu_56@@2EB	; icu_56::Collation::LEVEL_SEPARATOR_BYTE
PUBLIC	?BEFORE_WEIGHT16@Collation@icu_56@@2IB		; icu_56::Collation::BEFORE_WEIGHT16
PUBLIC	?MERGE_SEPARATOR_BYTE@Collation@icu_56@@2EB	; icu_56::Collation::MERGE_SEPARATOR_BYTE
PUBLIC	?MERGE_SEPARATOR_PRIMARY@Collation@icu_56@@2IB	; icu_56::Collation::MERGE_SEPARATOR_PRIMARY
PUBLIC	?MERGE_SEPARATOR_CE32@Collation@icu_56@@2IB	; icu_56::Collation::MERGE_SEPARATOR_CE32
PUBLIC	?PRIMARY_COMPRESSION_LOW_BYTE@Collation@icu_56@@2EB ; icu_56::Collation::PRIMARY_COMPRESSION_LOW_BYTE
PUBLIC	?PRIMARY_COMPRESSION_HIGH_BYTE@Collation@icu_56@@2EB ; icu_56::Collation::PRIMARY_COMPRESSION_HIGH_BYTE
PUBLIC	?COMMON_BYTE@Collation@icu_56@@2EB		; icu_56::Collation::COMMON_BYTE
PUBLIC	?COMMON_WEIGHT16@Collation@icu_56@@2IB		; icu_56::Collation::COMMON_WEIGHT16
PUBLIC	?COMMON_SECONDARY_CE@Collation@icu_56@@2IB	; icu_56::Collation::COMMON_SECONDARY_CE
PUBLIC	?COMMON_TERTIARY_CE@Collation@icu_56@@2IB	; icu_56::Collation::COMMON_TERTIARY_CE
PUBLIC	?COMMON_SEC_AND_TER_CE@Collation@icu_56@@2IB	; icu_56::Collation::COMMON_SEC_AND_TER_CE
PUBLIC	?SECONDARY_MASK@Collation@icu_56@@2IB		; icu_56::Collation::SECONDARY_MASK
PUBLIC	?CASE_MASK@Collation@icu_56@@2IB		; icu_56::Collation::CASE_MASK
PUBLIC	?SECONDARY_AND_CASE_MASK@Collation@icu_56@@2IB	; icu_56::Collation::SECONDARY_AND_CASE_MASK
PUBLIC	?ONLY_TERTIARY_MASK@Collation@icu_56@@2IB	; icu_56::Collation::ONLY_TERTIARY_MASK
PUBLIC	?ONLY_SEC_TER_MASK@Collation@icu_56@@2IB	; icu_56::Collation::ONLY_SEC_TER_MASK
PUBLIC	?CASE_AND_TERTIARY_MASK@Collation@icu_56@@2IB	; icu_56::Collation::CASE_AND_TERTIARY_MASK
PUBLIC	?QUATERNARY_MASK@Collation@icu_56@@2IB		; icu_56::Collation::QUATERNARY_MASK
PUBLIC	?CASE_AND_QUATERNARY_MASK@Collation@icu_56@@2IB	; icu_56::Collation::CASE_AND_QUATERNARY_MASK
PUBLIC	?UNASSIGNED_IMPLICIT_BYTE@Collation@icu_56@@2EB	; icu_56::Collation::UNASSIGNED_IMPLICIT_BYTE
PUBLIC	?FIRST_UNASSIGNED_PRIMARY@Collation@icu_56@@2IB	; icu_56::Collation::FIRST_UNASSIGNED_PRIMARY
PUBLIC	?TRAIL_WEIGHT_BYTE@Collation@icu_56@@2EB	; icu_56::Collation::TRAIL_WEIGHT_BYTE
PUBLIC	?FIRST_TRAILING_PRIMARY@Collation@icu_56@@2IB	; icu_56::Collation::FIRST_TRAILING_PRIMARY
PUBLIC	?MAX_PRIMARY@Collation@icu_56@@2IB		; icu_56::Collation::MAX_PRIMARY
PUBLIC	?MAX_REGULAR_CE32@Collation@icu_56@@2IB		; icu_56::Collation::MAX_REGULAR_CE32
PUBLIC	?FFFD_PRIMARY@Collation@icu_56@@2IB		; icu_56::Collation::FFFD_PRIMARY
PUBLIC	?FFFD_CE32@Collation@icu_56@@2IB		; icu_56::Collation::FFFD_CE32
PUBLIC	?SPECIAL_CE32_LOW_BYTE@Collation@icu_56@@2EB	; icu_56::Collation::SPECIAL_CE32_LOW_BYTE
PUBLIC	?FALLBACK_CE32@Collation@icu_56@@2IB		; icu_56::Collation::FALLBACK_CE32
PUBLIC	?LONG_PRIMARY_CE32_LOW_BYTE@Collation@icu_56@@2EB ; icu_56::Collation::LONG_PRIMARY_CE32_LOW_BYTE
PUBLIC	?UNASSIGNED_CE32@Collation@icu_56@@2IB		; icu_56::Collation::UNASSIGNED_CE32
PUBLIC	?NO_CE32@Collation@icu_56@@2IB			; icu_56::Collation::NO_CE32
PUBLIC	?NO_CE_PRIMARY@Collation@icu_56@@2IB		; icu_56::Collation::NO_CE_PRIMARY
PUBLIC	?NO_CE_WEIGHT16@Collation@icu_56@@2IB		; icu_56::Collation::NO_CE_WEIGHT16
PUBLIC	?NO_CE@Collation@icu_56@@2_JB			; icu_56::Collation::NO_CE
PUBLIC	?NO_LEVEL_FLAG@Collation@icu_56@@2IB		; icu_56::Collation::NO_LEVEL_FLAG
PUBLIC	?PRIMARY_LEVEL_FLAG@Collation@icu_56@@2IB	; icu_56::Collation::PRIMARY_LEVEL_FLAG
PUBLIC	?SECONDARY_LEVEL_FLAG@Collation@icu_56@@2IB	; icu_56::Collation::SECONDARY_LEVEL_FLAG
PUBLIC	?CASE_LEVEL_FLAG@Collation@icu_56@@2IB		; icu_56::Collation::CASE_LEVEL_FLAG
PUBLIC	?TERTIARY_LEVEL_FLAG@Collation@icu_56@@2IB	; icu_56::Collation::TERTIARY_LEVEL_FLAG
PUBLIC	?QUATERNARY_LEVEL_FLAG@Collation@icu_56@@2IB	; icu_56::Collation::QUATERNARY_LEVEL_FLAG
PUBLIC	?IDENTICAL_LEVEL_FLAG@Collation@icu_56@@2IB	; icu_56::Collation::IDENTICAL_LEVEL_FLAG
PUBLIC	?ZERO_LEVEL_FLAG@Collation@icu_56@@2IB		; icu_56::Collation::ZERO_LEVEL_FLAG
PUBLIC	?MAX_EXPANSION_LENGTH@Collation@icu_56@@2HB	; icu_56::Collation::MAX_EXPANSION_LENGTH
PUBLIC	?MAX_INDEX@Collation@icu_56@@2HB		; icu_56::Collation::MAX_INDEX
PUBLIC	?CONTRACT_SINGLE_CP_NO_MATCH@Collation@icu_56@@2IB ; icu_56::Collation::CONTRACT_SINGLE_CP_NO_MATCH
PUBLIC	?CONTRACT_NEXT_CCC@Collation@icu_56@@2IB	; icu_56::Collation::CONTRACT_NEXT_CCC
PUBLIC	?CONTRACT_TRAILING_CCC@Collation@icu_56@@2IB	; icu_56::Collation::CONTRACT_TRAILING_CCC
PUBLIC	?HANGUL_NO_SPECIAL_JAMO@Collation@icu_56@@2IB	; icu_56::Collation::HANGUL_NO_SPECIAL_JAMO
PUBLIC	?LEAD_ALL_UNASSIGNED@Collation@icu_56@@2IB	; icu_56::Collation::LEAD_ALL_UNASSIGNED
PUBLIC	?LEAD_ALL_FALLBACK@Collation@icu_56@@2IB	; icu_56::Collation::LEAD_ALL_FALLBACK
PUBLIC	?LEAD_MIXED@Collation@icu_56@@2IB		; icu_56::Collation::LEAD_MIXED
PUBLIC	?LEAD_TYPE_MASK@Collation@icu_56@@2IB		; icu_56::Collation::LEAD_TYPE_MASK
PUBLIC	?JAMO_CE32S_LENGTH@CollationData@icu_56@@2HB	; icu_56::CollationData::JAMO_CE32S_LENGTH
PUBLIC	?INITIAL_CAPACITY@CEBuffer@CollationIterator@icu_56@@0HB ; icu_56::CollationIterator::CEBuffer::INITIAL_CAPACITY
;	COMDAT ?INITIAL_CAPACITY@CEBuffer@CollationIterator@icu_56@@0HB
CONST	SEGMENT
?INITIAL_CAPACITY@CEBuffer@CollationIterator@icu_56@@0HB DD 028H ; icu_56::CollationIterator::CEBuffer::INITIAL_CAPACITY
CONST	ENDS
;	COMDAT ?JAMO_CE32S_LENGTH@CollationData@icu_56@@2HB
CONST	SEGMENT
?JAMO_CE32S_LENGTH@CollationData@icu_56@@2HB DD 043H	; icu_56::CollationData::JAMO_CE32S_LENGTH
CONST	ENDS
;	COMDAT ?LEAD_TYPE_MASK@Collation@icu_56@@2IB
CONST	SEGMENT
?LEAD_TYPE_MASK@Collation@icu_56@@2IB DD 0300H		; icu_56::Collation::LEAD_TYPE_MASK
CONST	ENDS
;	COMDAT ?LEAD_MIXED@Collation@icu_56@@2IB
CONST	SEGMENT
?LEAD_MIXED@Collation@icu_56@@2IB DD 0200H		; icu_56::Collation::LEAD_MIXED
CONST	ENDS
;	COMDAT ?LEAD_ALL_FALLBACK@Collation@icu_56@@2IB
CONST	SEGMENT
?LEAD_ALL_FALLBACK@Collation@icu_56@@2IB DD 0100H	; icu_56::Collation::LEAD_ALL_FALLBACK
CONST	ENDS
;	COMDAT ?LEAD_ALL_UNASSIGNED@Collation@icu_56@@2IB
CONST	SEGMENT
?LEAD_ALL_UNASSIGNED@Collation@icu_56@@2IB DD 00H	; icu_56::Collation::LEAD_ALL_UNASSIGNED
CONST	ENDS
;	COMDAT ?HANGUL_NO_SPECIAL_JAMO@Collation@icu_56@@2IB
CONST	SEGMENT
?HANGUL_NO_SPECIAL_JAMO@Collation@icu_56@@2IB DD 0100H	; icu_56::Collation::HANGUL_NO_SPECIAL_JAMO
CONST	ENDS
;	COMDAT ?CONTRACT_TRAILING_CCC@Collation@icu_56@@2IB
CONST	SEGMENT
?CONTRACT_TRAILING_CCC@Collation@icu_56@@2IB DD 0400H	; icu_56::Collation::CONTRACT_TRAILING_CCC
CONST	ENDS
;	COMDAT ?CONTRACT_NEXT_CCC@Collation@icu_56@@2IB
CONST	SEGMENT
?CONTRACT_NEXT_CCC@Collation@icu_56@@2IB DD 0200H	; icu_56::Collation::CONTRACT_NEXT_CCC
CONST	ENDS
;	COMDAT ?CONTRACT_SINGLE_CP_NO_MATCH@Collation@icu_56@@2IB
CONST	SEGMENT
?CONTRACT_SINGLE_CP_NO_MATCH@Collation@icu_56@@2IB DD 0100H ; icu_56::Collation::CONTRACT_SINGLE_CP_NO_MATCH
CONST	ENDS
;	COMDAT ?MAX_INDEX@Collation@icu_56@@2HB
CONST	SEGMENT
?MAX_INDEX@Collation@icu_56@@2HB DD 07ffffH		; icu_56::Collation::MAX_INDEX
CONST	ENDS
;	COMDAT ?MAX_EXPANSION_LENGTH@Collation@icu_56@@2HB
CONST	SEGMENT
?MAX_EXPANSION_LENGTH@Collation@icu_56@@2HB DD 01fH	; icu_56::Collation::MAX_EXPANSION_LENGTH
CONST	ENDS
;	COMDAT ?ZERO_LEVEL_FLAG@Collation@icu_56@@2IB
CONST	SEGMENT
?ZERO_LEVEL_FLAG@Collation@icu_56@@2IB DD 080H		; icu_56::Collation::ZERO_LEVEL_FLAG
CONST	ENDS
;	COMDAT ?IDENTICAL_LEVEL_FLAG@Collation@icu_56@@2IB
CONST	SEGMENT
?IDENTICAL_LEVEL_FLAG@Collation@icu_56@@2IB DD 040H	; icu_56::Collation::IDENTICAL_LEVEL_FLAG
CONST	ENDS
;	COMDAT ?QUATERNARY_LEVEL_FLAG@Collation@icu_56@@2IB
CONST	SEGMENT
?QUATERNARY_LEVEL_FLAG@Collation@icu_56@@2IB DD 020H	; icu_56::Collation::QUATERNARY_LEVEL_FLAG
CONST	ENDS
;	COMDAT ?TERTIARY_LEVEL_FLAG@Collation@icu_56@@2IB
CONST	SEGMENT
?TERTIARY_LEVEL_FLAG@Collation@icu_56@@2IB DD 010H	; icu_56::Collation::TERTIARY_LEVEL_FLAG
CONST	ENDS
;	COMDAT ?CASE_LEVEL_FLAG@Collation@icu_56@@2IB
CONST	SEGMENT
?CASE_LEVEL_FLAG@Collation@icu_56@@2IB DD 08H		; icu_56::Collation::CASE_LEVEL_FLAG
CONST	ENDS
;	COMDAT ?SECONDARY_LEVEL_FLAG@Collation@icu_56@@2IB
CONST	SEGMENT
?SECONDARY_LEVEL_FLAG@Collation@icu_56@@2IB DD 04H	; icu_56::Collation::SECONDARY_LEVEL_FLAG
CONST	ENDS
;	COMDAT ?PRIMARY_LEVEL_FLAG@Collation@icu_56@@2IB
CONST	SEGMENT
?PRIMARY_LEVEL_FLAG@Collation@icu_56@@2IB DD 02H	; icu_56::Collation::PRIMARY_LEVEL_FLAG
CONST	ENDS
;	COMDAT ?NO_LEVEL_FLAG@Collation@icu_56@@2IB
CONST	SEGMENT
?NO_LEVEL_FLAG@Collation@icu_56@@2IB DD 01H		; icu_56::Collation::NO_LEVEL_FLAG
CONST	ENDS
;	COMDAT ?NO_CE@Collation@icu_56@@2_JB
CONST	SEGMENT
?NO_CE@Collation@icu_56@@2_JB DQ 0000000101000100H	; icu_56::Collation::NO_CE
CONST	ENDS
;	COMDAT ?NO_CE_WEIGHT16@Collation@icu_56@@2IB
CONST	SEGMENT
?NO_CE_WEIGHT16@Collation@icu_56@@2IB DD 0100H		; icu_56::Collation::NO_CE_WEIGHT16
CONST	ENDS
;	COMDAT ?NO_CE_PRIMARY@Collation@icu_56@@2IB
CONST	SEGMENT
?NO_CE_PRIMARY@Collation@icu_56@@2IB DD 01H		; icu_56::Collation::NO_CE_PRIMARY
CONST	ENDS
;	COMDAT ?NO_CE32@Collation@icu_56@@2IB
CONST	SEGMENT
?NO_CE32@Collation@icu_56@@2IB DD 01H			; icu_56::Collation::NO_CE32
CONST	ENDS
;	COMDAT ?UNASSIGNED_CE32@Collation@icu_56@@2IB
CONST	SEGMENT
?UNASSIGNED_CE32@Collation@icu_56@@2IB DD 0ffffffffH	; icu_56::Collation::UNASSIGNED_CE32
CONST	ENDS
;	COMDAT ?LONG_PRIMARY_CE32_LOW_BYTE@Collation@icu_56@@2EB
CONST	SEGMENT
?LONG_PRIMARY_CE32_LOW_BYTE@Collation@icu_56@@2EB DB 0c1H ; icu_56::Collation::LONG_PRIMARY_CE32_LOW_BYTE
CONST	ENDS
;	COMDAT ?FALLBACK_CE32@Collation@icu_56@@2IB
CONST	SEGMENT
?FALLBACK_CE32@Collation@icu_56@@2IB DD 0c0H		; icu_56::Collation::FALLBACK_CE32
CONST	ENDS
;	COMDAT ?SPECIAL_CE32_LOW_BYTE@Collation@icu_56@@2EB
CONST	SEGMENT
?SPECIAL_CE32_LOW_BYTE@Collation@icu_56@@2EB DB 0c0H	; icu_56::Collation::SPECIAL_CE32_LOW_BYTE
CONST	ENDS
;	COMDAT ?FFFD_CE32@Collation@icu_56@@2IB
CONST	SEGMENT
?FFFD_CE32@Collation@icu_56@@2IB DD 0fffd0505H		; icu_56::Collation::FFFD_CE32
CONST	ENDS
;	COMDAT ?FFFD_PRIMARY@Collation@icu_56@@2IB
CONST	SEGMENT
?FFFD_PRIMARY@Collation@icu_56@@2IB DD 0fffd0000H	; icu_56::Collation::FFFD_PRIMARY
CONST	ENDS
;	COMDAT ?MAX_REGULAR_CE32@Collation@icu_56@@2IB
CONST	SEGMENT
?MAX_REGULAR_CE32@Collation@icu_56@@2IB DD 0ffff0505H	; icu_56::Collation::MAX_REGULAR_CE32
CONST	ENDS
;	COMDAT ?MAX_PRIMARY@Collation@icu_56@@2IB
CONST	SEGMENT
?MAX_PRIMARY@Collation@icu_56@@2IB DD 0ffff0000H	; icu_56::Collation::MAX_PRIMARY
CONST	ENDS
;	COMDAT ?FIRST_TRAILING_PRIMARY@Collation@icu_56@@2IB
CONST	SEGMENT
?FIRST_TRAILING_PRIMARY@Collation@icu_56@@2IB DD 0ff020200H ; icu_56::Collation::FIRST_TRAILING_PRIMARY
CONST	ENDS
;	COMDAT ?TRAIL_WEIGHT_BYTE@Collation@icu_56@@2EB
CONST	SEGMENT
?TRAIL_WEIGHT_BYTE@Collation@icu_56@@2EB DB 0ffH	; icu_56::Collation::TRAIL_WEIGHT_BYTE
CONST	ENDS
;	COMDAT ?FIRST_UNASSIGNED_PRIMARY@Collation@icu_56@@2IB
CONST	SEGMENT
?FIRST_UNASSIGNED_PRIMARY@Collation@icu_56@@2IB DD 0fe040200H ; icu_56::Collation::FIRST_UNASSIGNED_PRIMARY
CONST	ENDS
;	COMDAT ?UNASSIGNED_IMPLICIT_BYTE@Collation@icu_56@@2EB
CONST	SEGMENT
?UNASSIGNED_IMPLICIT_BYTE@Collation@icu_56@@2EB DB 0feH	; icu_56::Collation::UNASSIGNED_IMPLICIT_BYTE
CONST	ENDS
;	COMDAT ?CASE_AND_QUATERNARY_MASK@Collation@icu_56@@2IB
CONST	SEGMENT
?CASE_AND_QUATERNARY_MASK@Collation@icu_56@@2IB DD 0c0c0H ; icu_56::Collation::CASE_AND_QUATERNARY_MASK
CONST	ENDS
;	COMDAT ?QUATERNARY_MASK@Collation@icu_56@@2IB
CONST	SEGMENT
?QUATERNARY_MASK@Collation@icu_56@@2IB DD 0c0H		; icu_56::Collation::QUATERNARY_MASK
CONST	ENDS
;	COMDAT ?CASE_AND_TERTIARY_MASK@Collation@icu_56@@2IB
CONST	SEGMENT
?CASE_AND_TERTIARY_MASK@Collation@icu_56@@2IB DD 0ff3fH	; icu_56::Collation::CASE_AND_TERTIARY_MASK
CONST	ENDS
;	COMDAT ?ONLY_SEC_TER_MASK@Collation@icu_56@@2IB
CONST	SEGMENT
?ONLY_SEC_TER_MASK@Collation@icu_56@@2IB DD 0ffff3f3fH	; icu_56::Collation::ONLY_SEC_TER_MASK
CONST	ENDS
;	COMDAT ?ONLY_TERTIARY_MASK@Collation@icu_56@@2IB
CONST	SEGMENT
?ONLY_TERTIARY_MASK@Collation@icu_56@@2IB DD 03f3fH	; icu_56::Collation::ONLY_TERTIARY_MASK
CONST	ENDS
;	COMDAT ?SECONDARY_AND_CASE_MASK@Collation@icu_56@@2IB
CONST	SEGMENT
?SECONDARY_AND_CASE_MASK@Collation@icu_56@@2IB DD 0ffffc000H ; icu_56::Collation::SECONDARY_AND_CASE_MASK
CONST	ENDS
;	COMDAT ?CASE_MASK@Collation@icu_56@@2IB
CONST	SEGMENT
?CASE_MASK@Collation@icu_56@@2IB DD 0c000H		; icu_56::Collation::CASE_MASK
CONST	ENDS
;	COMDAT ?SECONDARY_MASK@Collation@icu_56@@2IB
CONST	SEGMENT
?SECONDARY_MASK@Collation@icu_56@@2IB DD 0ffff0000H	; icu_56::Collation::SECONDARY_MASK
CONST	ENDS
;	COMDAT ?COMMON_SEC_AND_TER_CE@Collation@icu_56@@2IB
CONST	SEGMENT
?COMMON_SEC_AND_TER_CE@Collation@icu_56@@2IB DD 05000500H ; icu_56::Collation::COMMON_SEC_AND_TER_CE
CONST	ENDS
;	COMDAT ?COMMON_TERTIARY_CE@Collation@icu_56@@2IB
CONST	SEGMENT
?COMMON_TERTIARY_CE@Collation@icu_56@@2IB DD 0500H	; icu_56::Collation::COMMON_TERTIARY_CE
CONST	ENDS
;	COMDAT ?COMMON_SECONDARY_CE@Collation@icu_56@@2IB
CONST	SEGMENT
?COMMON_SECONDARY_CE@Collation@icu_56@@2IB DD 05000000H	; icu_56::Collation::COMMON_SECONDARY_CE
CONST	ENDS
;	COMDAT ?COMMON_WEIGHT16@Collation@icu_56@@2IB
CONST	SEGMENT
?COMMON_WEIGHT16@Collation@icu_56@@2IB DD 0500H		; icu_56::Collation::COMMON_WEIGHT16
CONST	ENDS
;	COMDAT ?COMMON_BYTE@Collation@icu_56@@2EB
CONST	SEGMENT
?COMMON_BYTE@Collation@icu_56@@2EB DB 05H		; icu_56::Collation::COMMON_BYTE
CONST	ENDS
;	COMDAT ?PRIMARY_COMPRESSION_HIGH_BYTE@Collation@icu_56@@2EB
CONST	SEGMENT
?PRIMARY_COMPRESSION_HIGH_BYTE@Collation@icu_56@@2EB DB 0ffH ; icu_56::Collation::PRIMARY_COMPRESSION_HIGH_BYTE
CONST	ENDS
;	COMDAT ?PRIMARY_COMPRESSION_LOW_BYTE@Collation@icu_56@@2EB
CONST	SEGMENT
?PRIMARY_COMPRESSION_LOW_BYTE@Collation@icu_56@@2EB DB 03H ; icu_56::Collation::PRIMARY_COMPRESSION_LOW_BYTE
CONST	ENDS
;	COMDAT ?MERGE_SEPARATOR_CE32@Collation@icu_56@@2IB
CONST	SEGMENT
?MERGE_SEPARATOR_CE32@Collation@icu_56@@2IB DD 02000505H ; icu_56::Collation::MERGE_SEPARATOR_CE32
CONST	ENDS
;	COMDAT ?MERGE_SEPARATOR_PRIMARY@Collation@icu_56@@2IB
CONST	SEGMENT
?MERGE_SEPARATOR_PRIMARY@Collation@icu_56@@2IB DD 02000000H ; icu_56::Collation::MERGE_SEPARATOR_PRIMARY
CONST	ENDS
;	COMDAT ?MERGE_SEPARATOR_BYTE@Collation@icu_56@@2EB
CONST	SEGMENT
?MERGE_SEPARATOR_BYTE@Collation@icu_56@@2EB DB 02H	; icu_56::Collation::MERGE_SEPARATOR_BYTE
CONST	ENDS
;	COMDAT ?BEFORE_WEIGHT16@Collation@icu_56@@2IB
CONST	SEGMENT
?BEFORE_WEIGHT16@Collation@icu_56@@2IB DD 0100H		; icu_56::Collation::BEFORE_WEIGHT16
CONST	ENDS
;	COMDAT ?LEVEL_SEPARATOR_BYTE@Collation@icu_56@@2EB
CONST	SEGMENT
?LEVEL_SEPARATOR_BYTE@Collation@icu_56@@2EB DB 01H	; icu_56::Collation::LEVEL_SEPARATOR_BYTE
CONST	ENDS
;	COMDAT ?TERMINATOR_BYTE@Collation@icu_56@@2EB
CONST	SEGMENT
?TERMINATOR_BYTE@Collation@icu_56@@2EB DB 00H		; icu_56::Collation::TERMINATOR_BYTE
CONST	ENDS
;	COMDAT ?end@?$_Iosb@H@std@@2W4_Seekdir@12@B
CONST	SEGMENT
?end@?$_Iosb@H@std@@2W4_Seekdir@12@B DD 02H		; std::_Iosb<int>::end
CONST	ENDS
;	COMDAT ?cur@?$_Iosb@H@std@@2W4_Seekdir@12@B
CONST	SEGMENT
?cur@?$_Iosb@H@std@@2W4_Seekdir@12@B DD 01H		; std::_Iosb<int>::cur
CONST	ENDS
;	COMDAT ?beg@?$_Iosb@H@std@@2W4_Seekdir@12@B
CONST	SEGMENT
?beg@?$_Iosb@H@std@@2W4_Seekdir@12@B DD 00H		; std::_Iosb<int>::beg
CONST	ENDS
;	COMDAT ?binary@?$_Iosb@H@std@@2W4_Openmode@12@B
CONST	SEGMENT
?binary@?$_Iosb@H@std@@2W4_Openmode@12@B DD 020H	; std::_Iosb<int>::binary
CONST	ENDS
;	COMDAT ?_Noreplace@?$_Iosb@H@std@@2W4_Openmode@12@B
CONST	SEGMENT
?_Noreplace@?$_Iosb@H@std@@2W4_Openmode@12@B DD 080H	; std::_Iosb<int>::_Noreplace
CONST	ENDS
;	COMDAT ?_Nocreate@?$_Iosb@H@std@@2W4_Openmode@12@B
CONST	SEGMENT
?_Nocreate@?$_Iosb@H@std@@2W4_Openmode@12@B DD 040H	; std::_Iosb<int>::_Nocreate
CONST	ENDS
;	COMDAT ?trunc@?$_Iosb@H@std@@2W4_Openmode@12@B
CONST	SEGMENT
?trunc@?$_Iosb@H@std@@2W4_Openmode@12@B DD 010H		; std::_Iosb<int>::trunc
CONST	ENDS
;	COMDAT ?app@?$_Iosb@H@std@@2W4_Openmode@12@B
CONST	SEGMENT
?app@?$_Iosb@H@std@@2W4_Openmode@12@B DD 08H		; std::_Iosb<int>::app
CONST	ENDS
;	COMDAT ?ate@?$_Iosb@H@std@@2W4_Openmode@12@B
CONST	SEGMENT
?ate@?$_Iosb@H@std@@2W4_Openmode@12@B DD 04H		; std::_Iosb<int>::ate
CONST	ENDS
;	COMDAT ?out@?$_Iosb@H@std@@2W4_Openmode@12@B
CONST	SEGMENT
?out@?$_Iosb@H@std@@2W4_Openmode@12@B DD 02H		; std::_Iosb<int>::out
CONST	ENDS
;	COMDAT ?in@?$_Iosb@H@std@@2W4_Openmode@12@B
CONST	SEGMENT
?in@?$_Iosb@H@std@@2W4_Openmode@12@B DD 01H		; std::_Iosb<int>::in
CONST	ENDS
;	COMDAT ?_Hardfail@?$_Iosb@H@std@@2W4_Iostate@12@B
CONST	SEGMENT
?_Hardfail@?$_Iosb@H@std@@2W4_Iostate@12@B DD 010H	; std::_Iosb<int>::_Hardfail
CONST	ENDS
;	COMDAT ?badbit@?$_Iosb@H@std@@2W4_Iostate@12@B
CONST	SEGMENT
?badbit@?$_Iosb@H@std@@2W4_Iostate@12@B DD 04H		; std::_Iosb<int>::badbit
CONST	ENDS
;	COMDAT ?failbit@?$_Iosb@H@std@@2W4_Iostate@12@B
CONST	SEGMENT
?failbit@?$_Iosb@H@std@@2W4_Iostate@12@B DD 02H		; std::_Iosb<int>::failbit
CONST	ENDS
;	COMDAT ?eofbit@?$_Iosb@H@std@@2W4_Iostate@12@B
CONST	SEGMENT
?eofbit@?$_Iosb@H@std@@2W4_Iostate@12@B DD 01H		; std::_Iosb<int>::eofbit
CONST	ENDS
;	COMDAT ?goodbit@?$_Iosb@H@std@@2W4_Iostate@12@B
CONST	SEGMENT
?goodbit@?$_Iosb@H@std@@2W4_Iostate@12@B DD 00H		; std::_Iosb<int>::goodbit
CONST	ENDS
;	COMDAT ?floatfield@?$_Iosb@H@std@@2W4_Fmtflags@12@B
CONST	SEGMENT
?floatfield@?$_Iosb@H@std@@2W4_Fmtflags@12@B DD 03000H	; std::_Iosb<int>::floatfield
CONST	ENDS
;	COMDAT ?basefield@?$_Iosb@H@std@@2W4_Fmtflags@12@B
CONST	SEGMENT
?basefield@?$_Iosb@H@std@@2W4_Fmtflags@12@B DD 0e00H	; std::_Iosb<int>::basefield
CONST	ENDS
;	COMDAT ?adjustfield@?$_Iosb@H@std@@2W4_Fmtflags@12@B
CONST	SEGMENT
?adjustfield@?$_Iosb@H@std@@2W4_Fmtflags@12@B DD 01c0H	; std::_Iosb<int>::adjustfield
CONST	ENDS
;	COMDAT ?_Stdio@?$_Iosb@H@std@@2W4_Fmtflags@12@B
CONST	SEGMENT
?_Stdio@?$_Iosb@H@std@@2W4_Fmtflags@12@B DD 08000H	; std::_Iosb<int>::_Stdio
CONST	ENDS
;	COMDAT ?boolalpha@?$_Iosb@H@std@@2W4_Fmtflags@12@B
CONST	SEGMENT
?boolalpha@?$_Iosb@H@std@@2W4_Fmtflags@12@B DD 04000H	; std::_Iosb<int>::boolalpha
CONST	ENDS
;	COMDAT ?hexfloat@?$_Iosb@H@std@@2W4_Fmtflags@12@B
CONST	SEGMENT
?hexfloat@?$_Iosb@H@std@@2W4_Fmtflags@12@B DD 03000H	; std::_Iosb<int>::hexfloat
CONST	ENDS
;	COMDAT ?fixed@?$_Iosb@H@std@@2W4_Fmtflags@12@B
CONST	SEGMENT
?fixed@?$_Iosb@H@std@@2W4_Fmtflags@12@B DD 02000H	; std::_Iosb<int>::fixed
CONST	ENDS
;	COMDAT ?scientific@?$_Iosb@H@std@@2W4_Fmtflags@12@B
CONST	SEGMENT
?scientific@?$_Iosb@H@std@@2W4_Fmtflags@12@B DD 01000H	; std::_Iosb<int>::scientific
CONST	ENDS
;	COMDAT ?hex@?$_Iosb@H@std@@2W4_Fmtflags@12@B
CONST	SEGMENT
?hex@?$_Iosb@H@std@@2W4_Fmtflags@12@B DD 0800H		; std::_Iosb<int>::hex
CONST	ENDS
;	COMDAT ?oct@?$_Iosb@H@std@@2W4_Fmtflags@12@B
CONST	SEGMENT
?oct@?$_Iosb@H@std@@2W4_Fmtflags@12@B DD 0400H		; std::_Iosb<int>::oct
CONST	ENDS
;	COMDAT ?dec@?$_Iosb@H@std@@2W4_Fmtflags@12@B
CONST	SEGMENT
?dec@?$_Iosb@H@std@@2W4_Fmtflags@12@B DD 0200H		; std::_Iosb<int>::dec
CONST	ENDS
;	COMDAT ?internal@?$_Iosb@H@std@@2W4_Fmtflags@12@B
CONST	SEGMENT
?internal@?$_Iosb@H@std@@2W4_Fmtflags@12@B DD 0100H	; std::_Iosb<int>::internal
CONST	ENDS
;	COMDAT ?right@?$_Iosb@H@std@@2W4_Fmtflags@12@B
CONST	SEGMENT
?right@?$_Iosb@H@std@@2W4_Fmtflags@12@B DD 080H		; std::_Iosb<int>::right
CONST	ENDS
;	COMDAT ?left@?$_Iosb@H@std@@2W4_Fmtflags@12@B
CONST	SEGMENT
?left@?$_Iosb@H@std@@2W4_Fmtflags@12@B DD 040H		; std::_Iosb<int>::left
CONST	ENDS
;	COMDAT ?showpos@?$_Iosb@H@std@@2W4_Fmtflags@12@B
CONST	SEGMENT
?showpos@?$_Iosb@H@std@@2W4_Fmtflags@12@B DD 020H	; std::_Iosb<int>::showpos
CONST	ENDS
;	COMDAT ?showpoint@?$_Iosb@H@std@@2W4_Fmtflags@12@B
CONST	SEGMENT
?showpoint@?$_Iosb@H@std@@2W4_Fmtflags@12@B DD 010H	; std::_Iosb<int>::showpoint
CONST	ENDS
;	COMDAT ?showbase@?$_Iosb@H@std@@2W4_Fmtflags@12@B
CONST	SEGMENT
?showbase@?$_Iosb@H@std@@2W4_Fmtflags@12@B DD 08H	; std::_Iosb<int>::showbase
CONST	ENDS
;	COMDAT ?uppercase@?$_Iosb@H@std@@2W4_Fmtflags@12@B
CONST	SEGMENT
?uppercase@?$_Iosb@H@std@@2W4_Fmtflags@12@B DD 04H	; std::_Iosb<int>::uppercase
CONST	ENDS
;	COMDAT ?unitbuf@?$_Iosb@H@std@@2W4_Fmtflags@12@B
CONST	SEGMENT
?unitbuf@?$_Iosb@H@std@@2W4_Fmtflags@12@B DD 02H	; std::_Iosb<int>::unitbuf
CONST	ENDS
;	COMDAT ?skipws@?$_Iosb@H@std@@2W4_Fmtflags@12@B
CONST	SEGMENT
?skipws@?$_Iosb@H@std@@2W4_Fmtflags@12@B DD 01H		; std::_Iosb<int>::skipws
CONST	ENDS
;	COMDAT ?none@?$_Locbase@H@std@@2HB
CONST	SEGMENT
?none@?$_Locbase@H@std@@2HB DD 00H			; std::_Locbase<int>::none
CONST	ENDS
;	COMDAT ?all@?$_Locbase@H@std@@2HB
CONST	SEGMENT
?all@?$_Locbase@H@std@@2HB DD 03fH			; std::_Locbase<int>::all
CONST	ENDS
;	COMDAT ?messages@?$_Locbase@H@std@@2HB
CONST	SEGMENT
?messages@?$_Locbase@H@std@@2HB DD 020H			; std::_Locbase<int>::messages
CONST	ENDS
;	COMDAT ?time@?$_Locbase@H@std@@2HB
CONST	SEGMENT
?time@?$_Locbase@H@std@@2HB DD 010H			; std::_Locbase<int>::time
CONST	ENDS
;	COMDAT ?numeric@?$_Locbase@H@std@@2HB
CONST	SEGMENT
?numeric@?$_Locbase@H@std@@2HB DD 08H			; std::_Locbase<int>::numeric
CONST	ENDS
;	COMDAT ?monetary@?$_Locbase@H@std@@2HB
CONST	SEGMENT
?monetary@?$_Locbase@H@std@@2HB DD 04H			; std::_Locbase<int>::monetary
CONST	ENDS
;	COMDAT ?ctype@?$_Locbase@H@std@@2HB
CONST	SEGMENT
?ctype@?$_Locbase@H@std@@2HB DD 02H			; std::_Locbase<int>::ctype
CONST	ENDS
;	COMDAT ?collate@?$_Locbase@H@std@@2HB
CONST	SEGMENT
?collate@?$_Locbase@H@std@@2HB DD 01H			; std::_Locbase<int>::collate
CONST	ENDS
;	COMDAT ?_Rank@?$_Arithmetic_traits@O@std@@2HB
CONST	SEGMENT
?_Rank@?$_Arithmetic_traits@O@std@@2HB DD 09H		; std::_Arithmetic_traits<long double>::_Rank
CONST	ENDS
;	COMDAT ?_Rank@?$_Arithmetic_traits@N@std@@2HB
CONST	SEGMENT
?_Rank@?$_Arithmetic_traits@N@std@@2HB DD 08H		; std::_Arithmetic_traits<double>::_Rank
CONST	ENDS
;	COMDAT ?_Rank@?$_Arithmetic_traits@M@std@@2HB
CONST	SEGMENT
?_Rank@?$_Arithmetic_traits@M@std@@2HB DD 07H		; std::_Arithmetic_traits<float>::_Rank
CONST	ENDS
;	COMDAT ?_Rank@?$_Arithmetic_traits@_K@std@@2HB
CONST	SEGMENT
?_Rank@?$_Arithmetic_traits@_K@std@@2HB DD 06H		; std::_Arithmetic_traits<unsigned __int64>::_Rank
CONST	ENDS
;	COMDAT ?_Rank@?$_Arithmetic_traits@_J@std@@2HB
CONST	SEGMENT
?_Rank@?$_Arithmetic_traits@_J@std@@2HB DD 06H		; std::_Arithmetic_traits<__int64>::_Rank
CONST	ENDS
;	COMDAT ?_Rank@?$_Arithmetic_traits@K@std@@2HB
CONST	SEGMENT
?_Rank@?$_Arithmetic_traits@K@std@@2HB DD 05H		; std::_Arithmetic_traits<unsigned long>::_Rank
CONST	ENDS
;	COMDAT ?_Rank@?$_Arithmetic_traits@J@std@@2HB
CONST	SEGMENT
?_Rank@?$_Arithmetic_traits@J@std@@2HB DD 05H		; std::_Arithmetic_traits<long>::_Rank
CONST	ENDS
;	COMDAT ?_Rank@?$_Arithmetic_traits@I@std@@2HB
CONST	SEGMENT
?_Rank@?$_Arithmetic_traits@I@std@@2HB DD 04H		; std::_Arithmetic_traits<unsigned int>::_Rank
CONST	ENDS
;	COMDAT ?_Rank@?$_Arithmetic_traits@H@std@@2HB
CONST	SEGMENT
?_Rank@?$_Arithmetic_traits@H@std@@2HB DD 04H		; std::_Arithmetic_traits<int>::_Rank
CONST	ENDS
;	COMDAT ?_Rank@?$_Arithmetic_traits@G@std@@2HB
CONST	SEGMENT
?_Rank@?$_Arithmetic_traits@G@std@@2HB DD 03H		; std::_Arithmetic_traits<unsigned short>::_Rank
CONST	ENDS
;	COMDAT ?_Rank@?$_Arithmetic_traits@F@std@@2HB
CONST	SEGMENT
?_Rank@?$_Arithmetic_traits@F@std@@2HB DD 03H		; std::_Arithmetic_traits<short>::_Rank
CONST	ENDS
;	COMDAT ?_Rank@?$_Arithmetic_traits@E@std@@2HB
CONST	SEGMENT
?_Rank@?$_Arithmetic_traits@E@std@@2HB DD 02H		; std::_Arithmetic_traits<unsigned char>::_Rank
CONST	ENDS
;	COMDAT ?_Rank@?$_Arithmetic_traits@C@std@@2HB
CONST	SEGMENT
?_Rank@?$_Arithmetic_traits@C@std@@2HB DD 02H		; std::_Arithmetic_traits<signed char>::_Rank
CONST	ENDS
;	COMDAT ?_Rank@?$_Arithmetic_traits@D@std@@2HB
CONST	SEGMENT
?_Rank@?$_Arithmetic_traits@D@std@@2HB DD 02H		; std::_Arithmetic_traits<char>::_Rank
CONST	ENDS
;	COMDAT ?_Rank@?$_Arithmetic_traits@_N@std@@2HB
CONST	SEGMENT
?_Rank@?$_Arithmetic_traits@_N@std@@2HB DD 01H		; std::_Arithmetic_traits<bool>::_Rank
CONST	ENDS
;	COMDAT ?value@?$integral_constant@I$0A@@tr1@std@@2IB
CONST	SEGMENT
?value@?$integral_constant@I$0A@@tr1@std@@2IB DD 00H	; std::tr1::integral_constant<unsigned int,0>::value
CONST	ENDS
;	COMDAT ?value@?$integral_constant@_N$00@tr1@std@@2_NB
CONST	SEGMENT
?value@?$integral_constant@_N$00@tr1@std@@2_NB DB 01H	; std::tr1::integral_constant<bool,1>::value
CONST	ENDS
;	COMDAT ?value@?$integral_constant@_N$0A@@tr1@std@@2_NB
CONST	SEGMENT
?value@?$integral_constant@_N$0A@@tr1@std@@2_NB DB 00H	; std::tr1::integral_constant<bool,0>::value
CONST	ENDS
PUBLIC	??2@YAPAXI@Z					; operator new
EXTRN	__RTC_Shutdown:PROC
EXTRN	__RTC_InitBase:PROC
;	COMDAT rtc$TMZ
; File d:\mozilla\intl\icu\include\unicode\utypes.h
rtc$TMZ	SEGMENT
__RTC_Shutdown.rtc$TMZ DD FLAT:__RTC_Shutdown
rtc$TMZ	ENDS
;	COMDAT rtc$IMZ
rtc$IMZ	SEGMENT
__RTC_InitBase.rtc$IMZ DD FLAT:__RTC_InitBase
; Function compile flags: /Odtp /RTCsu /ZI
rtc$IMZ	ENDS
;	COMDAT ??2@YAPAXI@Z
_TEXT	SEGMENT
_q$ = -8						; size = 4
___formal$ = 8						; size = 4
??2@YAPAXI@Z PROC					; operator new, COMDAT
; Line 411
	push	ebp
	mov	ebp, esp
	sub	esp, 204				; 000000ccH
	push	ebx
	push	esi
	push	edi
	lea	edi, DWORD PTR [ebp-204]
	mov	ecx, 51					; 00000033H
	mov	eax, -858993460				; ccccccccH
	rep stosd
; Line 412
	mov	DWORD PTR _q$[ebp], 0
; Line 413
	mov	eax, DWORD PTR _q$[ebp]
	mov	BYTE PTR [eax], 5
; Line 414
	mov	eax, DWORD PTR _q$[ebp]
; Line 415
	pop	edi
	pop	esi
	pop	ebx
	mov	esp, ebp
	pop	ebp
	ret	0
??2@YAPAXI@Z ENDP					; operator new
_TEXT	ENDS
PUBLIC	??3@YAXPAX@Z					; operator delete
; Function compile flags: /Odtp /RTCsu /ZI
;	COMDAT ??3@YAXPAX@Z
_TEXT	SEGMENT
_q$ = -8						; size = 4
___formal$ = 8						; size = 4
??3@YAXPAX@Z PROC					; operator delete, COMDAT
; Line 439
	push	ebp
	mov	ebp, esp
	sub	esp, 204				; 000000ccH
	push	ebx
	push	esi
	push	edi
	lea	edi, DWORD PTR [ebp-204]
	mov	ecx, 51					; 00000033H
	mov	eax, -858993460				; ccccccccH
	rep stosd
; Line 440
	mov	DWORD PTR _q$[ebp], 0
; Line 441
	mov	eax, DWORD PTR _q$[ebp]
	mov	BYTE PTR [eax], 5
; Line 442
	pop	edi
	pop	esi
	pop	ebx
	mov	esp, ebp
	pop	ebp
	ret	0
??3@YAXPAX@Z ENDP					; operator delete
_TEXT	ENDS
PUBLIC	?isAssignedCE32@Collation@icu_56@@SACI@Z	; icu_56::Collation::isAssignedCE32
; Function compile flags: /Odtp /RTCsu /ZI
;	COMDAT ?isAssignedCE32@Collation@icu_56@@SACI@Z
_TEXT	SEGMENT
tv66 = -193						; size = 1
_ce32$ = 8						; size = 4
?isAssignedCE32@Collation@icu_56@@SACI@Z PROC		; icu_56::Collation::isAssignedCE32, COMDAT
; File d:\mozilla\intl\icu\source\i18n\collation.h
; Line 275
	push	ebp
	mov	ebp, esp
	sub	esp, 196				; 000000c4H
	push	ebx
	push	esi
	push	edi
	lea	edi, DWORD PTR [ebp-196]
	mov	ecx, 49					; 00000031H
	mov	eax, -858993460				; ccccccccH
	rep stosd
; Line 276
	cmp	DWORD PTR _ce32$[ebp], 192		; 000000c0H
	je	SHORT $LN3@isAssigned
	cmp	DWORD PTR _ce32$[ebp], -1
	je	SHORT $LN3@isAssigned
	mov	BYTE PTR tv66[ebp], 1
	jmp	SHORT $LN4@isAssigned
$LN3@isAssigned:
	mov	BYTE PTR tv66[ebp], 0
$LN4@isAssigned:
	mov	al, BYTE PTR tv66[ebp]
; Line 277
	pop	edi
	pop	esi
	pop	ebx
	mov	esp, ebp
	pop	ebp
	ret	0
?isAssignedCE32@Collation@icu_56@@SACI@Z ENDP		; icu_56::Collation::isAssignedCE32
_TEXT	ENDS
PUBLIC	?makeLongPrimaryCE32@Collation@icu_56@@SAII@Z	; icu_56::Collation::makeLongPrimaryCE32
; Function compile flags: /Odtp /RTCsu /ZI
;	COMDAT ?makeLongPrimaryCE32@Collation@icu_56@@SAII@Z
_TEXT	SEGMENT
_p$ = 8							; size = 4
?makeLongPrimaryCE32@Collation@icu_56@@SAII@Z PROC	; icu_56::Collation::makeLongPrimaryCE32, COMDAT
; Line 308
	push	ebp
	mov	ebp, esp
	sub	esp, 192				; 000000c0H
	push	ebx
	push	esi
	push	edi
	lea	edi, DWORD PTR [ebp-192]
	mov	ecx, 48					; 00000030H
	mov	eax, -858993460				; ccccccccH
	rep stosd
	mov	eax, DWORD PTR _p$[ebp]
	or	eax, 193				; 000000c1H
	pop	edi
	pop	esi
	pop	ebx
	mov	esp, ebp
	pop	ebp
	ret	0
?makeLongPrimaryCE32@Collation@icu_56@@SAII@Z ENDP	; icu_56::Collation::makeLongPrimaryCE32
_TEXT	ENDS
PUBLIC	?primaryFromLongPrimaryCE32@Collation@icu_56@@SAII@Z ; icu_56::Collation::primaryFromLongPrimaryCE32
; Function compile flags: /Odtp /RTCsu /ZI
;	COMDAT ?primaryFromLongPrimaryCE32@Collation@icu_56@@SAII@Z
_TEXT	SEGMENT
_ce32$ = 8						; size = 4
?primaryFromLongPrimaryCE32@Collation@icu_56@@SAII@Z PROC ; icu_56::Collation::primaryFromLongPrimaryCE32, COMDAT
; Line 311
	push	ebp
	mov	ebp, esp
	sub	esp, 192				; 000000c0H
	push	ebx
	push	esi
	push	edi
	lea	edi, DWORD PTR [ebp-192]
	mov	ecx, 48					; 00000030H
	mov	eax, -858993460				; ccccccccH
	rep stosd
; Line 312
	mov	eax, DWORD PTR _ce32$[ebp]
	and	eax, -256				; ffffff00H
; Line 313
	pop	edi
	pop	esi
	pop	ebx
	mov	esp, ebp
	pop	ebp
	ret	0
?primaryFromLongPrimaryCE32@Collation@icu_56@@SAII@Z ENDP ; icu_56::Collation::primaryFromLongPrimaryCE32
_TEXT	ENDS
PUBLIC	?ceFromLongPrimaryCE32@Collation@icu_56@@SA_JI@Z ; icu_56::Collation::ceFromLongPrimaryCE32
EXTRN	__RTC_CheckEsp:PROC
EXTRN	__allshl:PROC
; Function compile flags: /Odtp /RTCsu /ZI
;	COMDAT ?ceFromLongPrimaryCE32@Collation@icu_56@@SA_JI@Z
_TEXT	SEGMENT
_ce32$ = 8						; size = 4
?ceFromLongPrimaryCE32@Collation@icu_56@@SA_JI@Z PROC	; icu_56::Collation::ceFromLongPrimaryCE32, COMDAT
; Line 314
	push	ebp
	mov	ebp, esp
	sub	esp, 192				; 000000c0H
	push	ebx
	push	esi
	push	edi
	lea	edi, DWORD PTR [ebp-192]
	mov	ecx, 48					; 00000030H
	mov	eax, -858993460				; ccccccccH
	rep stosd
; Line 315
	mov	eax, DWORD PTR _ce32$[ebp]
	and	eax, -256				; ffffff00H
	xor	edx, edx
	mov	cl, 32					; 00000020H
	call	__allshl
	or	eax, 83887360				; 05000500H
; Line 316
	pop	edi
	pop	esi
	pop	ebx
	add	esp, 192				; 000000c0H
	cmp	ebp, esp
	call	__RTC_CheckEsp
	mov	esp, ebp
	pop	ebp
	ret	0
?ceFromLongPrimaryCE32@Collation@icu_56@@SA_JI@Z ENDP	; icu_56::Collation::ceFromLongPrimaryCE32
_TEXT	ENDS
PUBLIC	?makeLongSecondaryCE32@Collation@icu_56@@SAII@Z	; icu_56::Collation::makeLongSecondaryCE32
; Function compile flags: /Odtp /RTCsu /ZI
;	COMDAT ?makeLongSecondaryCE32@Collation@icu_56@@SAII@Z
_TEXT	SEGMENT
_lower32$ = 8						; size = 4
?makeLongSecondaryCE32@Collation@icu_56@@SAII@Z PROC	; icu_56::Collation::makeLongSecondaryCE32, COMDAT
; Line 318
	push	ebp
	mov	ebp, esp
	sub	esp, 192				; 000000c0H
	push	ebx
	push	esi
	push	edi
	lea	edi, DWORD PTR [ebp-192]
	mov	ecx, 48					; 00000030H
	mov	eax, -858993460				; ccccccccH
	rep stosd
; Line 319
	mov	eax, DWORD PTR _lower32$[ebp]
	or	eax, 192				; 000000c0H
	or	eax, 2
; Line 320
	pop	edi
	pop	esi
	pop	ebx
	mov	esp, ebp
	pop	ebp
	ret	0
?makeLongSecondaryCE32@Collation@icu_56@@SAII@Z ENDP	; icu_56::Collation::makeLongSecondaryCE32
_TEXT	ENDS
PUBLIC	?ceFromLongSecondaryCE32@Collation@icu_56@@SA_JI@Z ; icu_56::Collation::ceFromLongSecondaryCE32
; Function compile flags: /Odtp /RTCsu /ZI
;	COMDAT ?ceFromLongSecondaryCE32@Collation@icu_56@@SA_JI@Z
_TEXT	SEGMENT
_ce32$ = 8						; size = 4
?ceFromLongSecondaryCE32@Collation@icu_56@@SA_JI@Z PROC	; icu_56::Collation::ceFromLongSecondaryCE32, COMDAT
; Line 321
	push	ebp
	mov	ebp, esp
	sub	esp, 192				; 000000c0H
	push	ebx
	push	esi
	push	edi
	lea	edi, DWORD PTR [ebp-192]
	mov	ecx, 48					; 00000030H
	mov	eax, -858993460				; ccccccccH
	rep stosd
; Line 322
	mov	eax, DWORD PTR _ce32$[ebp]
	and	eax, -256				; ffffff00H
	xor	edx, edx
; Line 323
	pop	edi
	pop	esi
	pop	ebx
	mov	esp, ebp
	pop	ebp
	ret	0
?ceFromLongSecondaryCE32@Collation@icu_56@@SA_JI@Z ENDP	; icu_56::Collation::ceFromLongSecondaryCE32
_TEXT	ENDS
PUBLIC	?makeCE32FromTagIndexAndLength@Collation@icu_56@@SAIHHH@Z ; icu_56::Collation::makeCE32FromTagIndexAndLength
; Function compile flags: /Odtp /RTCsu /ZI
;	COMDAT ?makeCE32FromTagIndexAndLength@Collation@icu_56@@SAIHHH@Z
_TEXT	SEGMENT
_tag$ = 8						; size = 4
_index$ = 12						; size = 4
_length$ = 16						; size = 4
?makeCE32FromTagIndexAndLength@Collation@icu_56@@SAIHHH@Z PROC ; icu_56::Collation::makeCE32FromTagIndexAndLength, COMDAT
; Line 326
	push	ebp
	mov	ebp, esp
	sub	esp, 192				; 000000c0H
	push	ebx
	push	esi
	push	edi
	lea	edi, DWORD PTR [ebp-192]
	mov	ecx, 48					; 00000030H
	mov	eax, -858993460				; ccccccccH
	rep stosd
; Line 327
	mov	eax, DWORD PTR _index$[ebp]
	shl	eax, 13					; 0000000dH
	mov	ecx, DWORD PTR _length$[ebp]
	shl	ecx, 8
	or	eax, ecx
	or	eax, 192				; 000000c0H
	or	eax, DWORD PTR _tag$[ebp]
; Line 328
	pop	edi
	pop	esi
	pop	ebx
	mov	esp, ebp
	pop	ebp
	ret	0
?makeCE32FromTagIndexAndLength@Collation@icu_56@@SAIHHH@Z ENDP ; icu_56::Collation::makeCE32FromTagIndexAndLength
_TEXT	ENDS
PUBLIC	?makeCE32FromTagAndIndex@Collation@icu_56@@SAIHH@Z ; icu_56::Collation::makeCE32FromTagAndIndex
; Function compile flags: /Odtp /RTCsu /ZI
;	COMDAT ?makeCE32FromTagAndIndex@Collation@icu_56@@SAIHH@Z
_TEXT	SEGMENT
_tag$ = 8						; size = 4
_index$ = 12						; size = 4
?makeCE32FromTagAndIndex@Collation@icu_56@@SAIHH@Z PROC	; icu_56::Collation::makeCE32FromTagAndIndex, COMDAT
; Line 330
	push	ebp
	mov	ebp, esp
	sub	esp, 192				; 000000c0H
	push	ebx
	push	esi
	push	edi
	lea	edi, DWORD PTR [ebp-192]
	mov	ecx, 48					; 00000030H
	mov	eax, -858993460				; ccccccccH
	rep stosd
; Line 331
	mov	eax, DWORD PTR _index$[ebp]
	shl	eax, 13					; 0000000dH
	or	eax, 192				; 000000c0H
	or	eax, DWORD PTR _tag$[ebp]
; Line 332
	pop	edi
	pop	esi
	pop	ebx
	mov	esp, ebp
	pop	ebp
	ret	0
?makeCE32FromTagAndIndex@Collation@icu_56@@SAIHH@Z ENDP	; icu_56::Collation::makeCE32FromTagAndIndex
_TEXT	ENDS
PUBLIC	?isSpecialCE32@Collation@icu_56@@SACI@Z		; icu_56::Collation::isSpecialCE32
; Function compile flags: /Odtp /RTCsu /ZI
;	COMDAT ?isSpecialCE32@Collation@icu_56@@SACI@Z
_TEXT	SEGMENT
_ce32$ = 8						; size = 4
?isSpecialCE32@Collation@icu_56@@SACI@Z PROC		; icu_56::Collation::isSpecialCE32, COMDAT
; Line 334
	push	ebp
	mov	ebp, esp
	sub	esp, 192				; 000000c0H
	push	ebx
	push	esi
	push	edi
	lea	edi, DWORD PTR [ebp-192]
	mov	ecx, 48					; 00000030H
	mov	eax, -858993460				; ccccccccH
	rep stosd
; Line 335
	mov	eax, DWORD PTR _ce32$[ebp]
	and	eax, 255				; 000000ffH
	cmp	eax, 192				; 000000c0H
	setae	al
; Line 336
	pop	edi
	pop	esi
	pop	ebx
	mov	esp, ebp
	pop	ebp
	ret	0
?isSpecialCE32@Collation@icu_56@@SACI@Z ENDP		; icu_56::Collation::isSpecialCE32
_TEXT	ENDS
PUBLIC	?tagFromCE32@Collation@icu_56@@SAHI@Z		; icu_56::Collation::tagFromCE32
; Function compile flags: /Odtp /RTCsu /ZI
;	COMDAT ?tagFromCE32@Collation@icu_56@@SAHI@Z
_TEXT	SEGMENT
_ce32$ = 8						; size = 4
?tagFromCE32@Collation@icu_56@@SAHI@Z PROC		; icu_56::Collation::tagFromCE32, COMDAT
; Line 338
	push	ebp
	mov	ebp, esp
	sub	esp, 192				; 000000c0H
	push	ebx
	push	esi
	push	edi
	lea	edi, DWORD PTR [ebp-192]
	mov	ecx, 48					; 00000030H
	mov	eax, -858993460				; ccccccccH
	rep stosd
; Line 339
	mov	eax, DWORD PTR _ce32$[ebp]
	and	eax, 15					; 0000000fH
; Line 340
	pop	edi
	pop	esi
	pop	ebx
	mov	esp, ebp
	pop	ebp
	ret	0
?tagFromCE32@Collation@icu_56@@SAHI@Z ENDP		; icu_56::Collation::tagFromCE32
_TEXT	ENDS
PUBLIC	?hasCE32Tag@Collation@icu_56@@SACIH@Z		; icu_56::Collation::hasCE32Tag
; Function compile flags: /Odtp /RTCsu /ZI
;	COMDAT ?hasCE32Tag@Collation@icu_56@@SACIH@Z
_TEXT	SEGMENT
tv71 = -193						; size = 1
_ce32$ = 8						; size = 4
_tag$ = 12						; size = 4
?hasCE32Tag@Collation@icu_56@@SACIH@Z PROC		; icu_56::Collation::hasCE32Tag, COMDAT
; Line 342
	push	ebp
	mov	ebp, esp
	sub	esp, 196				; 000000c4H
	push	ebx
	push	esi
	push	edi
	lea	edi, DWORD PTR [ebp-196]
	mov	ecx, 49					; 00000031H
	mov	eax, -858993460				; ccccccccH
	rep stosd
; Line 343
	mov	eax, DWORD PTR _ce32$[ebp]
	push	eax
	call	?isSpecialCE32@Collation@icu_56@@SACI@Z	; icu_56::Collation::isSpecialCE32
	add	esp, 4
	movsx	ecx, al
	test	ecx, ecx
	je	SHORT $LN3@hasCE32Tag
	mov	edx, DWORD PTR _ce32$[ebp]
	push	edx
	call	?tagFromCE32@Collation@icu_56@@SAHI@Z	; icu_56::Collation::tagFromCE32
	add	esp, 4
	cmp	eax, DWORD PTR _tag$[ebp]
	jne	SHORT $LN3@hasCE32Tag
	mov	BYTE PTR tv71[ebp], 1
	jmp	SHORT $LN4@hasCE32Tag
$LN3@hasCE32Tag:
	mov	BYTE PTR tv71[ebp], 0
$LN4@hasCE32Tag:
	mov	al, BYTE PTR tv71[ebp]
; Line 344
	pop	edi
	pop	esi
	pop	ebx
	add	esp, 196				; 000000c4H
	cmp	ebp, esp
	call	__RTC_CheckEsp
	mov	esp, ebp
	pop	ebp
	ret	0
?hasCE32Tag@Collation@icu_56@@SACIH@Z ENDP		; icu_56::Collation::hasCE32Tag
_TEXT	ENDS
PUBLIC	?isLongPrimaryCE32@Collation@icu_56@@SACI@Z	; icu_56::Collation::isLongPrimaryCE32
; Function compile flags: /Odtp /RTCsu /ZI
;	COMDAT ?isLongPrimaryCE32@Collation@icu_56@@SACI@Z
_TEXT	SEGMENT
_ce32$ = 8						; size = 4
?isLongPrimaryCE32@Collation@icu_56@@SACI@Z PROC	; icu_56::Collation::isLongPrimaryCE32, COMDAT
; Line 346
	push	ebp
	mov	ebp, esp
	sub	esp, 192				; 000000c0H
	push	ebx
	push	esi
	push	edi
	lea	edi, DWORD PTR [ebp-192]
	mov	ecx, 48					; 00000030H
	mov	eax, -858993460				; ccccccccH
	rep stosd
; Line 347
	push	1
	mov	eax, DWORD PTR _ce32$[ebp]
	push	eax
	call	?hasCE32Tag@Collation@icu_56@@SACIH@Z	; icu_56::Collation::hasCE32Tag
	add	esp, 8
; Line 348
	pop	edi
	pop	esi
	pop	ebx
	add	esp, 192				; 000000c0H
	cmp	ebp, esp
	call	__RTC_CheckEsp
	mov	esp, ebp
	pop	ebp
	ret	0
?isLongPrimaryCE32@Collation@icu_56@@SACI@Z ENDP	; icu_56::Collation::isLongPrimaryCE32
_TEXT	ENDS
PUBLIC	?isSimpleOrLongCE32@Collation@icu_56@@SACI@Z	; icu_56::Collation::isSimpleOrLongCE32
; Function compile flags: /Odtp /RTCsu /ZI
;	COMDAT ?isSimpleOrLongCE32@Collation@icu_56@@SACI@Z
_TEXT	SEGMENT
tv74 = -193						; size = 1
_ce32$ = 8						; size = 4
?isSimpleOrLongCE32@Collation@icu_56@@SACI@Z PROC	; icu_56::Collation::isSimpleOrLongCE32, COMDAT
; Line 350
	push	ebp
	mov	ebp, esp
	sub	esp, 196				; 000000c4H
	push	ebx
	push	esi
	push	edi
	lea	edi, DWORD PTR [ebp-196]
	mov	ecx, 49					; 00000031H
	mov	eax, -858993460				; ccccccccH
	rep stosd
; Line 353
	mov	eax, DWORD PTR _ce32$[ebp]
	push	eax
	call	?isSpecialCE32@Collation@icu_56@@SACI@Z	; icu_56::Collation::isSpecialCE32
	add	esp, 4
	movsx	ecx, al
	test	ecx, ecx
	je	SHORT $LN3@isSimpleOr
	mov	edx, DWORD PTR _ce32$[ebp]
	push	edx
	call	?tagFromCE32@Collation@icu_56@@SAHI@Z	; icu_56::Collation::tagFromCE32
	add	esp, 4
	cmp	eax, 1
	je	SHORT $LN3@isSimpleOr
	mov	eax, DWORD PTR _ce32$[ebp]
	push	eax
	call	?tagFromCE32@Collation@icu_56@@SAHI@Z	; icu_56::Collation::tagFromCE32
	add	esp, 4
	cmp	eax, 2
	je	SHORT $LN3@isSimpleOr
	mov	BYTE PTR tv74[ebp], 0
	jmp	SHORT $LN4@isSimpleOr
$LN3@isSimpleOr:
	mov	BYTE PTR tv74[ebp], 1
$LN4@isSimpleOr:
	mov	al, BYTE PTR tv74[ebp]
; Line 354
	pop	edi
	pop	esi
	pop	ebx
	add	esp, 196				; 000000c4H
	cmp	ebp, esp
	call	__RTC_CheckEsp
	mov	esp, ebp
	pop	ebp
	ret	0
?isSimpleOrLongCE32@Collation@icu_56@@SACI@Z ENDP	; icu_56::Collation::isSimpleOrLongCE32
_TEXT	ENDS
PUBLIC	?isSelfContainedCE32@Collation@icu_56@@SACI@Z	; icu_56::Collation::isSelfContainedCE32
; Function compile flags: /Odtp /RTCsu /ZI
;	COMDAT ?isSelfContainedCE32@Collation@icu_56@@SACI@Z
_TEXT	SEGMENT
tv77 = -193						; size = 1
_ce32$ = 8						; size = 4
?isSelfContainedCE32@Collation@icu_56@@SACI@Z PROC	; icu_56::Collation::isSelfContainedCE32, COMDAT
; Line 359
	push	ebp
	mov	ebp, esp
	sub	esp, 196				; 000000c4H
	push	ebx
	push	esi
	push	edi
	lea	edi, DWORD PTR [ebp-196]
	mov	ecx, 49					; 00000031H
	mov	eax, -858993460				; ccccccccH
	rep stosd
; Line 363
	mov	eax, DWORD PTR _ce32$[ebp]
	push	eax
	call	?isSpecialCE32@Collation@icu_56@@SACI@Z	; icu_56::Collation::isSpecialCE32
	add	esp, 4
	movsx	ecx, al
	test	ecx, ecx
	je	SHORT $LN3@isSelfCont
	mov	edx, DWORD PTR _ce32$[ebp]
	push	edx
	call	?tagFromCE32@Collation@icu_56@@SAHI@Z	; icu_56::Collation::tagFromCE32
	add	esp, 4
	cmp	eax, 1
	je	SHORT $LN3@isSelfCont
	mov	eax, DWORD PTR _ce32$[ebp]
	push	eax
	call	?tagFromCE32@Collation@icu_56@@SAHI@Z	; icu_56::Collation::tagFromCE32
	add	esp, 4
	cmp	eax, 2
	je	SHORT $LN3@isSelfCont
	mov	ecx, DWORD PTR _ce32$[ebp]
	push	ecx
	call	?tagFromCE32@Collation@icu_56@@SAHI@Z	; icu_56::Collation::tagFromCE32
	add	esp, 4
	cmp	eax, 4
	je	SHORT $LN3@isSelfCont
	mov	BYTE PTR tv77[ebp], 0
	jmp	SHORT $LN4@isSelfCont
$LN3@isSelfCont:
	mov	BYTE PTR tv77[ebp], 1
$LN4@isSelfCont:
	mov	al, BYTE PTR tv77[ebp]
; Line 364
	pop	edi
	pop	esi
	pop	ebx
	add	esp, 196				; 000000c4H
	cmp	ebp, esp
	call	__RTC_CheckEsp
	mov	esp, ebp
	pop	ebp
	ret	0
?isSelfContainedCE32@Collation@icu_56@@SACI@Z ENDP	; icu_56::Collation::isSelfContainedCE32
_TEXT	ENDS
PUBLIC	?isPrefixCE32@Collation@icu_56@@SACI@Z		; icu_56::Collation::isPrefixCE32
; Function compile flags: /Odtp /RTCsu /ZI
;	COMDAT ?isPrefixCE32@Collation@icu_56@@SACI@Z
_TEXT	SEGMENT
_ce32$ = 8						; size = 4
?isPrefixCE32@Collation@icu_56@@SACI@Z PROC		; icu_56::Collation::isPrefixCE32, COMDAT
; Line 366
	push	ebp
	mov	ebp, esp
	sub	esp, 192				; 000000c0H
	push	ebx
	push	esi
	push	edi
	lea	edi, DWORD PTR [ebp-192]
	mov	ecx, 48					; 00000030H
	mov	eax, -858993460				; ccccccccH
	rep stosd
; Line 367
	push	8
	mov	eax, DWORD PTR _ce32$[ebp]
	push	eax
	call	?hasCE32Tag@Collation@icu_56@@SACIH@Z	; icu_56::Collation::hasCE32Tag
	add	esp, 8
; Line 368
	pop	edi
	pop	esi
	pop	ebx
	add	esp, 192				; 000000c0H
	cmp	ebp, esp
	call	__RTC_CheckEsp
	mov	esp, ebp
	pop	ebp
	ret	0
?isPrefixCE32@Collation@icu_56@@SACI@Z ENDP		; icu_56::Collation::isPrefixCE32
_TEXT	ENDS
PUBLIC	?isContractionCE32@Collation@icu_56@@SACI@Z	; icu_56::Collation::isContractionCE32
; Function compile flags: /Odtp /RTCsu /ZI
;	COMDAT ?isContractionCE32@Collation@icu_56@@SACI@Z
_TEXT	SEGMENT
_ce32$ = 8						; size = 4
?isContractionCE32@Collation@icu_56@@SACI@Z PROC	; icu_56::Collation::isContractionCE32, COMDAT
; Line 370
	push	ebp
	mov	ebp, esp
	sub	esp, 192				; 000000c0H
	push	ebx
	push	esi
	push	edi
	lea	edi, DWORD PTR [ebp-192]
	mov	ecx, 48					; 00000030H
	mov	eax, -858993460				; ccccccccH
	rep stosd
; Line 371
	push	9
	mov	eax, DWORD PTR _ce32$[ebp]
	push	eax
	call	?hasCE32Tag@Collation@icu_56@@SACIH@Z	; icu_56::Collation::hasCE32Tag
	add	esp, 8
; Line 372
	pop	edi
	pop	esi
	pop	ebx
	add	esp, 192				; 000000c0H
	cmp	ebp, esp
	call	__RTC_CheckEsp
	mov	esp, ebp
	pop	ebp
	ret	0
?isContractionCE32@Collation@icu_56@@SACI@Z ENDP	; icu_56::Collation::isContractionCE32
_TEXT	ENDS
PUBLIC	?ce32HasContext@Collation@icu_56@@SACI@Z	; icu_56::Collation::ce32HasContext
; Function compile flags: /Odtp /RTCsu /ZI
;	COMDAT ?ce32HasContext@Collation@icu_56@@SACI@Z
_TEXT	SEGMENT
tv74 = -193						; size = 1
_ce32$ = 8						; size = 4
?ce32HasContext@Collation@icu_56@@SACI@Z PROC		; icu_56::Collation::ce32HasContext, COMDAT
; Line 374
	push	ebp
	mov	ebp, esp
	sub	esp, 196				; 000000c4H
	push	ebx
	push	esi
	push	edi
	lea	edi, DWORD PTR [ebp-196]
	mov	ecx, 49					; 00000031H
	mov	eax, -858993460				; ccccccccH
	rep stosd
; Line 377
	mov	eax, DWORD PTR _ce32$[ebp]
	push	eax
	call	?isSpecialCE32@Collation@icu_56@@SACI@Z	; icu_56::Collation::isSpecialCE32
	add	esp, 4
	movsx	ecx, al
	test	ecx, ecx
	je	SHORT $LN4@ce32HasCon
	mov	edx, DWORD PTR _ce32$[ebp]
	push	edx
	call	?tagFromCE32@Collation@icu_56@@SAHI@Z	; icu_56::Collation::tagFromCE32
	add	esp, 4
	cmp	eax, 8
	je	SHORT $LN3@ce32HasCon
	mov	eax, DWORD PTR _ce32$[ebp]
	push	eax
	call	?tagFromCE32@Collation@icu_56@@SAHI@Z	; icu_56::Collation::tagFromCE32
	add	esp, 4
	cmp	eax, 9
	jne	SHORT $LN4@ce32HasCon
$LN3@ce32HasCon:
	mov	BYTE PTR tv74[ebp], 1
	jmp	SHORT $LN5@ce32HasCon
$LN4@ce32HasCon:
	mov	BYTE PTR tv74[ebp], 0
$LN5@ce32HasCon:
	mov	al, BYTE PTR tv74[ebp]
; Line 378
	pop	edi
	pop	esi
	pop	ebx
	add	esp, 196				; 000000c4H
	cmp	ebp, esp
	call	__RTC_CheckEsp
	mov	esp, ebp
	pop	ebp
	ret	0
?ce32HasContext@Collation@icu_56@@SACI@Z ENDP		; icu_56::Collation::ce32HasContext
_TEXT	ENDS
PUBLIC	?latinCE0FromCE32@Collation@icu_56@@SA_JI@Z	; icu_56::Collation::latinCE0FromCE32
; Function compile flags: /Odtp /RTCsu /ZI
;	COMDAT ?latinCE0FromCE32@Collation@icu_56@@SA_JI@Z
_TEXT	SEGMENT
_ce32$ = 8						; size = 4
?latinCE0FromCE32@Collation@icu_56@@SA_JI@Z PROC	; icu_56::Collation::latinCE0FromCE32, COMDAT
; Line 384
	push	ebp
	mov	ebp, esp
	sub	esp, 192				; 000000c0H
	push	ebx
	push	esi
	push	edi
	lea	edi, DWORD PTR [ebp-192]
	mov	ecx, 48					; 00000030H
	mov	eax, -858993460				; ccccccccH
	rep stosd
; Line 385
	mov	eax, DWORD PTR _ce32$[ebp]
	and	eax, -16777216				; ff000000H
	xor	edx, edx
	mov	cl, 32					; 00000020H
	call	__allshl
	or	eax, 83886080				; 05000000H
	mov	ecx, DWORD PTR _ce32$[ebp]
	and	ecx, 16711680				; 00ff0000H
	shr	ecx, 8
	xor	esi, esi
	or	eax, ecx
	or	edx, esi
; Line 386
	pop	edi
	pop	esi
	pop	ebx
	add	esp, 192				; 000000c0H
	cmp	ebp, esp
	call	__RTC_CheckEsp
	mov	esp, ebp
	pop	ebp
	ret	0
?latinCE0FromCE32@Collation@icu_56@@SA_JI@Z ENDP	; icu_56::Collation::latinCE0FromCE32
_TEXT	ENDS
PUBLIC	?latinCE1FromCE32@Collation@icu_56@@SA_JI@Z	; icu_56::Collation::latinCE1FromCE32
; Function compile flags: /Odtp /RTCsu /ZI
;	COMDAT ?latinCE1FromCE32@Collation@icu_56@@SA_JI@Z
_TEXT	SEGMENT
_ce32$ = 8						; size = 4
?latinCE1FromCE32@Collation@icu_56@@SA_JI@Z PROC	; icu_56::Collation::latinCE1FromCE32, COMDAT
; Line 392
	push	ebp
	mov	ebp, esp
	sub	esp, 192				; 000000c0H
	push	ebx
	push	esi
	push	edi
	lea	edi, DWORD PTR [ebp-192]
	mov	ecx, 48					; 00000030H
	mov	eax, -858993460				; ccccccccH
	rep stosd
; Line 393
	mov	eax, DWORD PTR _ce32$[ebp]
	and	eax, 65280				; 0000ff00H
	shl	eax, 16					; 00000010H
	or	eax, 1280				; 00000500H
	xor	edx, edx
; Line 394
	pop	edi
	pop	esi
	pop	ebx
	mov	esp, ebp
	pop	ebp
	ret	0
?latinCE1FromCE32@Collation@icu_56@@SA_JI@Z ENDP	; icu_56::Collation::latinCE1FromCE32
_TEXT	ENDS
PUBLIC	?indexFromCE32@Collation@icu_56@@SAHI@Z		; icu_56::Collation::indexFromCE32
; Function compile flags: /Odtp /RTCsu /ZI
;	COMDAT ?indexFromCE32@Collation@icu_56@@SAHI@Z
_TEXT	SEGMENT
_ce32$ = 8						; size = 4
?indexFromCE32@Collation@icu_56@@SAHI@Z PROC		; icu_56::Collation::indexFromCE32, COMDAT
; Line 399
	push	ebp
	mov	ebp, esp
	sub	esp, 192				; 000000c0H
	push	ebx
	push	esi
	push	edi
	lea	edi, DWORD PTR [ebp-192]
	mov	ecx, 48					; 00000030H
	mov	eax, -858993460				; ccccccccH
	rep stosd
; Line 400
	mov	eax, DWORD PTR _ce32$[ebp]
	shr	eax, 13					; 0000000dH
; Line 401
	pop	edi
	pop	esi
	pop	ebx
	mov	esp, ebp
	pop	ebp
	ret	0
?indexFromCE32@Collation@icu_56@@SAHI@Z ENDP		; icu_56::Collation::indexFromCE32
_TEXT	ENDS
PUBLIC	?lengthFromCE32@Collation@icu_56@@SAHI@Z	; icu_56::Collation::lengthFromCE32
; Function compile flags: /Odtp /RTCsu /ZI
;	COMDAT ?lengthFromCE32@Collation@icu_56@@SAHI@Z
_TEXT	SEGMENT
_ce32$ = 8						; size = 4
?lengthFromCE32@Collation@icu_56@@SAHI@Z PROC		; icu_56::Collation::lengthFromCE32, COMDAT
; Line 406
	push	ebp
	mov	ebp, esp
	sub	esp, 192				; 000000c0H
	push	ebx
	push	esi
	push	edi
	lea	edi, DWORD PTR [ebp-192]
	mov	ecx, 48					; 00000030H
	mov	eax, -858993460				; ccccccccH
	rep stosd
; Line 407
	mov	eax, DWORD PTR _ce32$[ebp]
	shr	eax, 8
	and	eax, 31					; 0000001fH
; Line 408
	pop	edi
	pop	esi
	pop	ebx
	mov	esp, ebp
	pop	ebp
	ret	0
?lengthFromCE32@Collation@icu_56@@SAHI@Z ENDP		; icu_56::Collation::lengthFromCE32
_TEXT	ENDS
PUBLIC	?digitFromCE32@Collation@icu_56@@SADI@Z		; icu_56::Collation::digitFromCE32
; Function compile flags: /Odtp /RTCsu /ZI
;	COMDAT ?digitFromCE32@Collation@icu_56@@SADI@Z
_TEXT	SEGMENT
_ce32$ = 8						; size = 4
?digitFromCE32@Collation@icu_56@@SADI@Z PROC		; icu_56::Collation::digitFromCE32, COMDAT
; Line 413
	push	ebp
	mov	ebp, esp
	sub	esp, 192				; 000000c0H
	push	ebx
	push	esi
	push	edi
	lea	edi, DWORD PTR [ebp-192]
	mov	ecx, 48					; 00000030H
	mov	eax, -858993460				; ccccccccH
	rep stosd
; Line 414
	mov	eax, DWORD PTR _ce32$[ebp]
	shr	eax, 8
	and	eax, 15					; 0000000fH
; Line 415
	pop	edi
	pop	esi
	pop	ebx
	mov	esp, ebp
	pop	ebp
	ret	0
?digitFromCE32@Collation@icu_56@@SADI@Z ENDP		; icu_56::Collation::digitFromCE32
_TEXT	ENDS
PUBLIC	?ceFromSimpleCE32@Collation@icu_56@@SA_JI@Z	; icu_56::Collation::ceFromSimpleCE32
; Function compile flags: /Odtp /RTCsu /ZI
;	COMDAT ?ceFromSimpleCE32@Collation@icu_56@@SA_JI@Z
_TEXT	SEGMENT
_ce32$ = 8						; size = 4
?ceFromSimpleCE32@Collation@icu_56@@SA_JI@Z PROC	; icu_56::Collation::ceFromSimpleCE32, COMDAT
; Line 418
	push	ebp
	mov	ebp, esp
	sub	esp, 192				; 000000c0H
	push	ebx
	push	esi
	push	edi
	lea	edi, DWORD PTR [ebp-192]
	mov	ecx, 48					; 00000030H
	mov	eax, -858993460				; ccccccccH
	rep stosd
; Line 421
	mov	eax, DWORD PTR _ce32$[ebp]
	and	eax, -65536				; ffff0000H
	xor	edx, edx
	mov	cl, 32					; 00000020H
	call	__allshl
	mov	ecx, DWORD PTR _ce32$[ebp]
	and	ecx, 65280				; 0000ff00H
	shl	ecx, 16					; 00000010H
	xor	esi, esi
	or	eax, ecx
	or	edx, esi
	mov	ecx, DWORD PTR _ce32$[ebp]
	and	ecx, 255				; 000000ffH
	shl	ecx, 8
	xor	esi, esi
	or	eax, ecx
	or	edx, esi
; Line 422
	pop	edi
	pop	esi
	pop	ebx
	add	esp, 192				; 000000c0H
	cmp	ebp, esp
	call	__RTC_CheckEsp
	mov	esp, ebp
	pop	ebp
	ret	0
?ceFromSimpleCE32@Collation@icu_56@@SA_JI@Z ENDP	; icu_56::Collation::ceFromSimpleCE32
_TEXT	ENDS
PUBLIC	?ceFromCE32@Collation@icu_56@@SA_JI@Z		; icu_56::Collation::ceFromCE32
; Function compile flags: /Odtp /RTCsu /ZI
;	COMDAT ?ceFromCE32@Collation@icu_56@@SA_JI@Z
_TEXT	SEGMENT
_tertiary$ = -8						; size = 4
_ce32$ = 8						; size = 4
?ceFromCE32@Collation@icu_56@@SA_JI@Z PROC		; icu_56::Collation::ceFromCE32, COMDAT
; Line 425
	push	ebp
	mov	ebp, esp
	sub	esp, 204				; 000000ccH
	push	ebx
	push	esi
	push	edi
	lea	edi, DWORD PTR [ebp-204]
	mov	ecx, 51					; 00000033H
	mov	eax, -858993460				; ccccccccH
	rep stosd
; Line 426
	mov	eax, DWORD PTR _ce32$[ebp]
	and	eax, 255				; 000000ffH
	mov	DWORD PTR _tertiary$[ebp], eax
; Line 427
	cmp	DWORD PTR _tertiary$[ebp], 192		; 000000c0H
	jae	SHORT $LN4@ceFromCE32
; Line 429
	mov	eax, DWORD PTR _ce32$[ebp]
	and	eax, -65536				; ffff0000H
	xor	edx, edx
	mov	cl, 32					; 00000020H
	call	__allshl
	mov	ecx, DWORD PTR _ce32$[ebp]
	and	ecx, 65280				; 0000ff00H
	shl	ecx, 16					; 00000010H
	xor	esi, esi
	or	eax, ecx
	or	edx, esi
	mov	ecx, DWORD PTR _tertiary$[ebp]
	shl	ecx, 8
	xor	esi, esi
	or	eax, ecx
	or	edx, esi
	jmp	SHORT $LN5@ceFromCE32
; Line 430
	jmp	SHORT $LN5@ceFromCE32
$LN4@ceFromCE32:
; Line 431
	mov	eax, DWORD PTR _ce32$[ebp]
	sub	eax, DWORD PTR _tertiary$[ebp]
	mov	DWORD PTR _ce32$[ebp], eax
; Line 432
	mov	eax, DWORD PTR _tertiary$[ebp]
	and	eax, 15					; 0000000fH
	cmp	eax, 1
	jne	SHORT $LN2@ceFromCE32
; Line 434
	mov	eax, DWORD PTR _ce32$[ebp]
	xor	edx, edx
	mov	cl, 32					; 00000020H
	call	__allshl
	or	eax, 83887360				; 05000500H
	jmp	SHORT $LN5@ceFromCE32
; Line 435
	jmp	SHORT $LN5@ceFromCE32
$LN2@ceFromCE32:
; Line 438
	mov	eax, DWORD PTR _ce32$[ebp]
	xor	edx, edx
$LN5@ceFromCE32:
; Line 441
	pop	edi
	pop	esi
	pop	ebx
	add	esp, 204				; 000000ccH
	cmp	ebp, esp
	call	__RTC_CheckEsp
	mov	esp, ebp
	pop	ebp
	ret	0
?ceFromCE32@Collation@icu_56@@SA_JI@Z ENDP		; icu_56::Collation::ceFromCE32
_TEXT	ENDS
PUBLIC	?makeCE@Collation@icu_56@@SA_JI@Z		; icu_56::Collation::makeCE
; Function compile flags: /Odtp /RTCsu /ZI
;	COMDAT ?makeCE@Collation@icu_56@@SA_JI@Z
_TEXT	SEGMENT
_p$ = 8							; size = 4
?makeCE@Collation@icu_56@@SA_JI@Z PROC			; icu_56::Collation::makeCE, COMDAT
; Line 444
	push	ebp
	mov	ebp, esp
	sub	esp, 192				; 000000c0H
	push	ebx
	push	esi
	push	edi
	lea	edi, DWORD PTR [ebp-192]
	mov	ecx, 48					; 00000030H
	mov	eax, -858993460				; ccccccccH
	rep stosd
; Line 445
	mov	eax, DWORD PTR _p$[ebp]
	xor	edx, edx
	mov	cl, 32					; 00000020H
	call	__allshl
	or	eax, 83887360				; 05000500H
; Line 446
	pop	edi
	pop	esi
	pop	ebx
	add	esp, 192				; 000000c0H
	cmp	ebp, esp
	call	__RTC_CheckEsp
	mov	esp, ebp
	pop	ebp
	ret	0
?makeCE@Collation@icu_56@@SA_JI@Z ENDP			; icu_56::Collation::makeCE
_TEXT	ENDS
PUBLIC	?makeCE@Collation@icu_56@@SA_JIIII@Z		; icu_56::Collation::makeCE
; Function compile flags: /Odtp /RTCsu /ZI
;	COMDAT ?makeCE@Collation@icu_56@@SA_JIIII@Z
_TEXT	SEGMENT
_p$ = 8							; size = 4
_s$ = 12						; size = 4
_t$ = 16						; size = 4
_q$ = 20						; size = 4
?makeCE@Collation@icu_56@@SA_JIIII@Z PROC		; icu_56::Collation::makeCE, COMDAT
; Line 451
	push	ebp
	mov	ebp, esp
	sub	esp, 192				; 000000c0H
	push	ebx
	push	esi
	push	edi
	lea	edi, DWORD PTR [ebp-192]
	mov	ecx, 48					; 00000030H
	mov	eax, -858993460				; ccccccccH
	rep stosd
; Line 452
	mov	eax, DWORD PTR _p$[ebp]
	xor	edx, edx
	mov	cl, 32					; 00000020H
	call	__allshl
	mov	ecx, DWORD PTR _s$[ebp]
	shl	ecx, 16					; 00000010H
	xor	esi, esi
	or	eax, ecx
	or	edx, esi
	mov	ecx, DWORD PTR _t$[ebp]
	xor	esi, esi
	or	eax, ecx
	or	edx, esi
	mov	ecx, DWORD PTR _q$[ebp]
	shl	ecx, 6
	xor	esi, esi
	or	eax, ecx
	or	edx, esi
; Line 453
	pop	edi
	pop	esi
	pop	ebx
	add	esp, 192				; 000000c0H
	cmp	ebp, esp
	call	__RTC_CheckEsp
	mov	esp, ebp
	pop	ebp
	ret	0
?makeCE@Collation@icu_56@@SA_JIIII@Z ENDP		; icu_56::Collation::makeCE
_TEXT	ENDS
PUBLIC	?unassignedCEFromCodePoint@Collation@icu_56@@SA_JH@Z ; icu_56::Collation::unassignedCEFromCodePoint
EXTRN	?unassignedPrimaryFromCodePoint@Collation@icu_56@@SAIH@Z:PROC ; icu_56::Collation::unassignedPrimaryFromCodePoint
; Function compile flags: /Odtp /RTCsu /ZI
;	COMDAT ?unassignedCEFromCodePoint@Collation@icu_56@@SA_JH@Z
_TEXT	SEGMENT
_c$ = 8							; size = 4
?unassignedCEFromCodePoint@Collation@icu_56@@SA_JH@Z PROC ; icu_56::Collation::unassignedCEFromCodePoint, COMDAT
; Line 487
	push	ebp
	mov	ebp, esp
	sub	esp, 192				; 000000c0H
	push	ebx
	push	esi
	push	edi
	lea	edi, DWORD PTR [ebp-192]
	mov	ecx, 48					; 00000030H
	mov	eax, -858993460				; ccccccccH
	rep stosd
; Line 488
	mov	eax, DWORD PTR _c$[ebp]
	push	eax
	call	?unassignedPrimaryFromCodePoint@Collation@icu_56@@SAIH@Z ; icu_56::Collation::unassignedPrimaryFromCodePoint
	add	esp, 4
	push	eax
	call	?makeCE@Collation@icu_56@@SA_JI@Z	; icu_56::Collation::makeCE
	add	esp, 4
; Line 489
	pop	edi
	pop	esi
	pop	ebx
	add	esp, 192				; 000000c0H
	cmp	ebp, esp
	call	__RTC_CheckEsp
	mov	esp, ebp
	pop	ebp
	ret	0
?unassignedCEFromCodePoint@Collation@icu_56@@SA_JH@Z ENDP ; icu_56::Collation::unassignedCEFromCodePoint
_TEXT	ENDS
PUBLIC	??4Collation@icu_56@@QAEAAV01@ABV01@@Z		; icu_56::Collation::operator=
; Function compile flags: /Odtp /RTCsu /ZI
;	COMDAT ??4Collation@icu_56@@QAEAAV01@ABV01@@Z
_TEXT	SEGMENT
_this$ = -8						; size = 4
___that$ = 8						; size = 4
??4Collation@icu_56@@QAEAAV01@ABV01@@Z PROC		; icu_56::Collation::operator=, COMDAT
; _this$ = ecx
	push	ebp
	mov	ebp, esp
	sub	esp, 204				; 000000ccH
	push	ebx
	push	esi
	push	edi
	push	ecx
	lea	edi, DWORD PTR [ebp-204]
	mov	ecx, 51					; 00000033H
	mov	eax, -858993460				; ccccccccH
	rep stosd
	pop	ecx
	mov	DWORD PTR _this$[ebp], ecx
	mov	eax, DWORD PTR _this$[ebp]
	pop	edi
	pop	esi
	pop	ebx
	mov	esp, ebp
	pop	ebp
	ret	4
??4Collation@icu_56@@QAEAAV01@ABV01@@Z ENDP		; icu_56::Collation::operator=
_TEXT	ENDS
PUBLIC	??0CollationData@icu_56@@QAE@ABVNormalizer2Impl@1@@Z ; icu_56::CollationData::CollationData
; Function compile flags: /Odtp /RTCsu /ZI
;	COMDAT ??0CollationData@icu_56@@QAE@ABVNormalizer2Impl@1@@Z
_TEXT	SEGMENT
_this$ = -8						; size = 4
_nfc$ = 8						; size = 4
??0CollationData@icu_56@@QAE@ABVNormalizer2Impl@1@@Z PROC ; icu_56::CollationData::CollationData, COMDAT
; _this$ = ecx
; File d:\mozilla\intl\icu\source\i18n\collationdata.h
; Line 64
	push	ebp
	mov	ebp, esp
	sub	esp, 204				; 000000ccH
	push	ebx
	push	esi
	push	edi
	push	ecx
	lea	edi, DWORD PTR [ebp-204]
	mov	ecx, 51					; 00000033H
	mov	eax, -858993460				; ccccccccH
	rep stosd
	pop	ecx
	mov	DWORD PTR _this$[ebp], ecx
	mov	eax, DWORD PTR _this$[ebp]
	mov	DWORD PTR [eax], 0
	mov	eax, DWORD PTR _this$[ebp]
	mov	DWORD PTR [eax+4], 0
	mov	eax, DWORD PTR _this$[ebp]
	mov	DWORD PTR [eax+8], 0
	mov	eax, DWORD PTR _this$[ebp]
	mov	DWORD PTR [eax+12], 0
	mov	eax, DWORD PTR _this$[ebp]
	mov	DWORD PTR [eax+16], 0
	mov	eax, DWORD PTR _this$[ebp]
	mov	DWORD PTR [eax+20], 0
	mov	eax, DWORD PTR _this$[ebp]
	mov	ecx, DWORD PTR _nfc$[ebp]
	mov	DWORD PTR [eax+24], ecx
	mov	eax, DWORD PTR _this$[ebp]
	mov	DWORD PTR [eax+28], 301989888		; 12000000H
	mov	eax, DWORD PTR _this$[ebp]
	mov	DWORD PTR [eax+32], 0
	mov	eax, DWORD PTR _this$[ebp]
	mov	DWORD PTR [eax+36], 0
	mov	eax, DWORD PTR _this$[ebp]
	mov	DWORD PTR [eax+40], 0
	mov	eax, DWORD PTR _this$[ebp]
	mov	DWORD PTR [eax+44], 0
	mov	eax, DWORD PTR _this$[ebp]
	mov	DWORD PTR [eax+48], 0
	mov	eax, DWORD PTR _this$[ebp]
	mov	DWORD PTR [eax+52], 0
	mov	eax, DWORD PTR _this$[ebp]
	mov	DWORD PTR [eax+56], 0
	mov	eax, DWORD PTR _this$[ebp]
	mov	DWORD PTR [eax+60], 0
	mov	eax, DWORD PTR _this$[ebp]
	mov	DWORD PTR [eax+64], 0
	mov	eax, DWORD PTR _this$[ebp]
	mov	DWORD PTR [eax+68], 0
	mov	eax, DWORD PTR _this$[ebp]
	mov	DWORD PTR [eax+72], 0
	mov	eax, DWORD PTR _this$[ebp]
	mov	DWORD PTR [eax+76], 0
	mov	eax, DWORD PTR _this$[ebp]
	mov	DWORD PTR [eax+80], 0
	mov	eax, DWORD PTR _this$[ebp]
	pop	edi
	pop	esi
	pop	ebx
	mov	esp, ebp
	pop	ebp
	ret	4
??0CollationData@icu_56@@QAE@ABVNormalizer2Impl@1@@Z ENDP ; icu_56::CollationData::CollationData
_TEXT	ENDS
PUBLIC	?getCE32@CollationData@icu_56@@QBEIH@Z		; icu_56::CollationData::getCE32
; Function compile flags: /Odtp /RTCsu /ZI
;	COMDAT ?getCE32@CollationData@icu_56@@QBEIH@Z
_TEXT	SEGMENT
tv138 = -220						; size = 4
tv139 = -216						; size = 4
tv140 = -212						; size = 4
tv141 = -208						; size = 4
_this$ = -8						; size = 4
_c$ = 8							; size = 4
?getCE32@CollationData@icu_56@@QBEIH@Z PROC		; icu_56::CollationData::getCE32, COMDAT
; _this$ = ecx
; Line 66
	push	ebp
	mov	ebp, esp
	sub	esp, 220				; 000000dcH
	push	ebx
	push	esi
	push	edi
	push	ecx
	lea	edi, DWORD PTR [ebp-220]
	mov	ecx, 55					; 00000037H
	mov	eax, -858993460				; ccccccccH
	rep stosd
	pop	ecx
	mov	DWORD PTR _this$[ebp], ecx
; Line 67
	cmp	DWORD PTR _c$[ebp], 55296		; 0000d800H
	jae	SHORT $LN9@getCE32
	mov	eax, DWORD PTR _this$[ebp]
	mov	ecx, DWORD PTR [eax]
	mov	edx, DWORD PTR _c$[ebp]
	sar	edx, 5
	mov	eax, DWORD PTR [ecx]
	movzx	ecx, WORD PTR [eax+edx*2]
	mov	edx, DWORD PTR _c$[ebp]
	and	edx, 31					; 0000001fH
	lea	eax, DWORD PTR [edx+ecx*4]
	mov	DWORD PTR tv141[ebp], eax
	jmp	$LN10@getCE32
$LN9@getCE32:
	cmp	DWORD PTR _c$[ebp], 65535		; 0000ffffH
	ja	SHORT $LN7@getCE32
	mov	ecx, DWORD PTR _this$[ebp]
	mov	edx, DWORD PTR [ecx]
	xor	eax, eax
	cmp	DWORD PTR _c$[ebp], 56319		; 0000dbffH
	setg	al
	sub	eax, 1
	and	eax, 320				; 00000140H
	mov	ecx, DWORD PTR _c$[ebp]
	sar	ecx, 5
	add	eax, ecx
	mov	edx, DWORD PTR [edx]
	movzx	eax, WORD PTR [edx+eax*2]
	mov	ecx, DWORD PTR _c$[ebp]
	and	ecx, 31					; 0000001fH
	lea	edx, DWORD PTR [ecx+eax*4]
	mov	DWORD PTR tv140[ebp], edx
	jmp	$LN8@getCE32
$LN7@getCE32:
	cmp	DWORD PTR _c$[ebp], 1114111		; 0010ffffH
	jbe	SHORT $LN5@getCE32
	mov	DWORD PTR tv139[ebp], 128		; 00000080H
	jmp	SHORT $LN6@getCE32
$LN5@getCE32:
	mov	eax, DWORD PTR _this$[ebp]
	mov	ecx, DWORD PTR [eax]
	mov	edx, DWORD PTR _c$[ebp]
	cmp	edx, DWORD PTR [ecx+32]
	jl	SHORT $LN3@getCE32
	mov	eax, DWORD PTR _this$[ebp]
	mov	ecx, DWORD PTR [eax]
	mov	edx, DWORD PTR [ecx+36]
	mov	DWORD PTR tv138[ebp], edx
	jmp	SHORT $LN4@getCE32
$LN3@getCE32:
	mov	eax, DWORD PTR _this$[ebp]
	mov	ecx, DWORD PTR [eax]
	mov	edx, DWORD PTR _this$[ebp]
	mov	eax, DWORD PTR [edx]
	mov	edx, DWORD PTR _c$[ebp]
	sar	edx, 11					; 0000000bH
	mov	eax, DWORD PTR [eax]
	movzx	edx, WORD PTR [eax+edx*2+4160]
	mov	eax, DWORD PTR _c$[ebp]
	sar	eax, 5
	and	eax, 63					; 0000003fH
	add	edx, eax
	mov	ecx, DWORD PTR [ecx]
	movzx	edx, WORD PTR [ecx+edx*2]
	mov	eax, DWORD PTR _c$[ebp]
	and	eax, 31					; 0000001fH
	lea	ecx, DWORD PTR [eax+edx*4]
	mov	DWORD PTR tv138[ebp], ecx
$LN4@getCE32:
	mov	edx, DWORD PTR tv138[ebp]
	mov	DWORD PTR tv139[ebp], edx
$LN6@getCE32:
	mov	eax, DWORD PTR tv139[ebp]
	mov	DWORD PTR tv140[ebp], eax
$LN8@getCE32:
	mov	ecx, DWORD PTR tv140[ebp]
	mov	DWORD PTR tv141[ebp], ecx
$LN10@getCE32:
	mov	edx, DWORD PTR _this$[ebp]
	mov	eax, DWORD PTR [edx]
	mov	ecx, DWORD PTR [eax+8]
	mov	edx, DWORD PTR tv141[ebp]
	mov	eax, DWORD PTR [ecx+edx*4]
; Line 68
	pop	edi
	pop	esi
	pop	ebx
	mov	esp, ebp
	pop	ebp
	ret	4
?getCE32@CollationData@icu_56@@QBEIH@Z ENDP		; icu_56::CollationData::getCE32
_TEXT	ENDS
PUBLIC	?getCE32FromSupplementary@CollationData@icu_56@@QBEIH@Z ; icu_56::CollationData::getCE32FromSupplementary
; Function compile flags: /Odtp /RTCsu /ZI
;	COMDAT ?getCE32FromSupplementary@CollationData@icu_56@@QBEIH@Z
_TEXT	SEGMENT
tv84 = -208						; size = 4
_this$ = -8						; size = 4
_c$ = 8							; size = 4
?getCE32FromSupplementary@CollationData@icu_56@@QBEIH@Z PROC ; icu_56::CollationData::getCE32FromSupplementary, COMDAT
; _this$ = ecx
; Line 70
	push	ebp
	mov	ebp, esp
	sub	esp, 208				; 000000d0H
	push	ebx
	push	esi
	push	edi
	push	ecx
	lea	edi, DWORD PTR [ebp-208]
	mov	ecx, 52					; 00000034H
	mov	eax, -858993460				; ccccccccH
	rep stosd
	pop	ecx
	mov	DWORD PTR _this$[ebp], ecx
; Line 71
	mov	eax, DWORD PTR _this$[ebp]
	mov	ecx, DWORD PTR [eax]
	mov	edx, DWORD PTR _c$[ebp]
	cmp	edx, DWORD PTR [ecx+32]
	jl	SHORT $LN3@getCE32Fro
	mov	eax, DWORD PTR _this$[ebp]
	mov	ecx, DWORD PTR [eax]
	mov	edx, DWORD PTR [ecx+36]
	mov	DWORD PTR tv84[ebp], edx
	jmp	SHORT $LN4@getCE32Fro
$LN3@getCE32Fro:
	mov	eax, DWORD PTR _this$[ebp]
	mov	ecx, DWORD PTR [eax]
	mov	edx, DWORD PTR _this$[ebp]
	mov	eax, DWORD PTR [edx]
	mov	edx, DWORD PTR _c$[ebp]
	sar	edx, 11					; 0000000bH
	mov	eax, DWORD PTR [eax]
	movzx	edx, WORD PTR [eax+edx*2+4160]
	mov	eax, DWORD PTR _c$[ebp]
	sar	eax, 5
	and	eax, 63					; 0000003fH
	add	edx, eax
	mov	ecx, DWORD PTR [ecx]
	movzx	edx, WORD PTR [ecx+edx*2]
	mov	eax, DWORD PTR _c$[ebp]
	and	eax, 31					; 0000001fH
	lea	ecx, DWORD PTR [eax+edx*4]
	mov	DWORD PTR tv84[ebp], ecx
$LN4@getCE32Fro:
	mov	edx, DWORD PTR _this$[ebp]
	mov	eax, DWORD PTR [edx]
	mov	ecx, DWORD PTR [eax+8]
	mov	edx, DWORD PTR tv84[ebp]
	mov	eax, DWORD PTR [ecx+edx*4]
; Line 72
	pop	edi
	pop	esi
	pop	ebx
	mov	esp, ebp
	pop	ebp
	ret	4
?getCE32FromSupplementary@CollationData@icu_56@@QBEIH@Z ENDP ; icu_56::CollationData::getCE32FromSupplementary
_TEXT	ENDS
PUBLIC	?isDigit@CollationData@icu_56@@QBECH@Z		; icu_56::CollationData::isDigit
; Function compile flags: /Odtp /RTCsu /ZI
;	COMDAT ?isDigit@CollationData@icu_56@@QBECH@Z
_TEXT	SEGMENT
tv75 = -212						; size = 4
tv67 = -208						; size = 4
_this$ = -8						; size = 4
_c$ = 8							; size = 4
?isDigit@CollationData@icu_56@@QBECH@Z PROC		; icu_56::CollationData::isDigit, COMDAT
; _this$ = ecx
; Line 74
	push	ebp
	mov	ebp, esp
	sub	esp, 212				; 000000d4H
	push	ebx
	push	esi
	push	edi
	push	ecx
	lea	edi, DWORD PTR [ebp-212]
	mov	ecx, 53					; 00000035H
	mov	eax, -858993460				; ccccccccH
	rep stosd
	pop	ecx
	mov	DWORD PTR _this$[ebp], ecx
; Line 76
	cmp	DWORD PTR _c$[ebp], 1632		; 00000660H
	jge	SHORT $LN5@isDigit
	cmp	DWORD PTR _c$[ebp], 57			; 00000039H
	jg	SHORT $LN3@isDigit
	cmp	DWORD PTR _c$[ebp], 48			; 00000030H
	jl	SHORT $LN3@isDigit
	mov	DWORD PTR tv67[ebp], 1
	jmp	SHORT $LN4@isDigit
$LN3@isDigit:
	mov	DWORD PTR tv67[ebp], 0
$LN4@isDigit:
	mov	eax, DWORD PTR tv67[ebp]
	mov	DWORD PTR tv75[ebp], eax
	jmp	SHORT $LN6@isDigit
$LN5@isDigit:
	push	10					; 0000000aH
	mov	ecx, DWORD PTR _c$[ebp]
	push	ecx
	mov	ecx, DWORD PTR _this$[ebp]
	call	?getCE32@CollationData@icu_56@@QBEIH@Z	; icu_56::CollationData::getCE32
	push	eax
	call	?hasCE32Tag@Collation@icu_56@@SACIH@Z	; icu_56::Collation::hasCE32Tag
	add	esp, 8
	movsx	edx, al
	mov	DWORD PTR tv75[ebp], edx
$LN6@isDigit:
	mov	al, BYTE PTR tv75[ebp]
; Line 77
	pop	edi
	pop	esi
	pop	ebx
	add	esp, 212				; 000000d4H
	cmp	ebp, esp
	call	__RTC_CheckEsp
	mov	esp, ebp
	pop	ebp
	ret	4
?isDigit@CollationData@icu_56@@QBECH@Z ENDP		; icu_56::CollationData::isDigit
_TEXT	ENDS
PUBLIC	?isUnsafeBackward@CollationData@icu_56@@QBECHC@Z ; icu_56::CollationData::isUnsafeBackward
; Function compile flags: /Odtp /RTCsu /ZI
;	COMDAT ?isUnsafeBackward@CollationData@icu_56@@QBECHC@Z
_TEXT	SEGMENT
tv86 = -205						; size = 1
_this$ = -8						; size = 4
_c$ = 8							; size = 4
_numeric$ = 12						; size = 1
?isUnsafeBackward@CollationData@icu_56@@QBECHC@Z PROC	; icu_56::CollationData::isUnsafeBackward, COMDAT
; _this$ = ecx
; Line 79
	push	ebp
	mov	ebp, esp
	sub	esp, 208				; 000000d0H
	push	ebx
	push	esi
	push	edi
	push	ecx
	lea	edi, DWORD PTR [ebp-208]
	mov	ecx, 52					; 00000034H
	mov	eax, -858993460				; ccccccccH
	rep stosd
	pop	ecx
	mov	DWORD PTR _this$[ebp], ecx
; Line 80
	mov	esi, esp
	mov	eax, DWORD PTR _c$[ebp]
	push	eax
	mov	ecx, DWORD PTR _this$[ebp]
	mov	edx, DWORD PTR [ecx+48]
	mov	eax, DWORD PTR _this$[ebp]
	mov	ecx, DWORD PTR [eax+48]
	mov	edx, DWORD PTR [edx]
	mov	eax, DWORD PTR [edx+24]
	call	eax
	cmp	esi, esp
	call	__RTC_CheckEsp
	movsx	ecx, al
	test	ecx, ecx
	jne	SHORT $LN4@isUnsafeBa
	movsx	edx, BYTE PTR _numeric$[ebp]
	test	edx, edx
	je	SHORT $LN3@isUnsafeBa
	mov	eax, DWORD PTR _c$[ebp]
	push	eax
	mov	ecx, DWORD PTR _this$[ebp]
	call	?isDigit@CollationData@icu_56@@QBECH@Z	; icu_56::CollationData::isDigit
	movsx	ecx, al
	test	ecx, ecx
	jne	SHORT $LN4@isUnsafeBa
$LN3@isUnsafeBa:
	mov	BYTE PTR tv86[ebp], 0
	jmp	SHORT $LN5@isUnsafeBa
$LN4@isUnsafeBa:
	mov	BYTE PTR tv86[ebp], 1
$LN5@isUnsafeBa:
	mov	al, BYTE PTR tv86[ebp]
; Line 81
	pop	edi
	pop	esi
	pop	ebx
	add	esp, 208				; 000000d0H
	cmp	ebp, esp
	call	__RTC_CheckEsp
	mov	esp, ebp
	pop	ebp
	ret	8
?isUnsafeBackward@CollationData@icu_56@@QBECHC@Z ENDP	; icu_56::CollationData::isUnsafeBackward
_TEXT	ENDS
PUBLIC	?isCompressibleLeadByte@CollationData@icu_56@@QBECI@Z ; icu_56::CollationData::isCompressibleLeadByte
; Function compile flags: /Odtp /RTCsu /ZI
;	COMDAT ?isCompressibleLeadByte@CollationData@icu_56@@QBECI@Z
_TEXT	SEGMENT
_this$ = -8						; size = 4
_b$ = 8							; size = 4
?isCompressibleLeadByte@CollationData@icu_56@@QBECI@Z PROC ; icu_56::CollationData::isCompressibleLeadByte, COMDAT
; _this$ = ecx
; Line 83
	push	ebp
	mov	ebp, esp
	sub	esp, 204				; 000000ccH
	push	ebx
	push	esi
	push	edi
	push	ecx
	lea	edi, DWORD PTR [ebp-204]
	mov	ecx, 51					; 00000033H
	mov	eax, -858993460				; ccccccccH
	rep stosd
	pop	ecx
	mov	DWORD PTR _this$[ebp], ecx
; Line 84
	mov	eax, DWORD PTR _this$[ebp]
	mov	ecx, DWORD PTR [eax+44]
	mov	edx, DWORD PTR _b$[ebp]
	mov	al, BYTE PTR [ecx+edx]
; Line 85
	pop	edi
	pop	esi
	pop	ebx
	mov	esp, ebp
	pop	ebp
	ret	4
?isCompressibleLeadByte@CollationData@icu_56@@QBECI@Z ENDP ; icu_56::CollationData::isCompressibleLeadByte
_TEXT	ENDS
PUBLIC	?isCompressiblePrimary@CollationData@icu_56@@QBECI@Z ; icu_56::CollationData::isCompressiblePrimary
; Function compile flags: /Odtp /RTCsu /ZI
;	COMDAT ?isCompressiblePrimary@CollationData@icu_56@@QBECI@Z
_TEXT	SEGMENT
_this$ = -8						; size = 4
_p$ = 8							; size = 4
?isCompressiblePrimary@CollationData@icu_56@@QBECI@Z PROC ; icu_56::CollationData::isCompressiblePrimary, COMDAT
; _this$ = ecx
; Line 87
	push	ebp
	mov	ebp, esp
	sub	esp, 204				; 000000ccH
	push	ebx
	push	esi
	push	edi
	push	ecx
	lea	edi, DWORD PTR [ebp-204]
	mov	ecx, 51					; 00000033H
	mov	eax, -858993460				; ccccccccH
	rep stosd
	pop	ecx
	mov	DWORD PTR _this$[ebp], ecx
; Line 88
	mov	eax, DWORD PTR _p$[ebp]
	shr	eax, 24					; 00000018H
	push	eax
	mov	ecx, DWORD PTR _this$[ebp]
	call	?isCompressibleLeadByte@CollationData@icu_56@@QBECI@Z ; icu_56::CollationData::isCompressibleLeadByte
; Line 89
	pop	edi
	pop	esi
	pop	ebx
	add	esp, 204				; 000000ccH
	cmp	ebp, esp
	call	__RTC_CheckEsp
	mov	esp, ebp
	pop	ebp
	ret	4
?isCompressiblePrimary@CollationData@icu_56@@QBECI@Z ENDP ; icu_56::CollationData::isCompressiblePrimary
_TEXT	ENDS
PUBLIC	?readCE32@CollationData@icu_56@@SAIPB_W@Z	; icu_56::CollationData::readCE32
; Function compile flags: /Odtp /RTCsu /ZI
;	COMDAT ?readCE32@CollationData@icu_56@@SAIPB_W@Z
_TEXT	SEGMENT
_p$ = 8							; size = 4
?readCE32@CollationData@icu_56@@SAIPB_W@Z PROC		; icu_56::CollationData::readCE32, COMDAT
; Line 95
	push	ebp
	mov	ebp, esp
	sub	esp, 192				; 000000c0H
	push	ebx
	push	esi
	push	edi
	lea	edi, DWORD PTR [ebp-192]
	mov	ecx, 48					; 00000030H
	mov	eax, -858993460				; ccccccccH
	rep stosd
; Line 96
	mov	eax, DWORD PTR _p$[ebp]
	movzx	eax, WORD PTR [eax]
	shl	eax, 16					; 00000010H
	mov	ecx, DWORD PTR _p$[ebp]
	movzx	edx, WORD PTR [ecx+2]
	or	eax, edx
; Line 97
	pop	edi
	pop	esi
	pop	ebx
	mov	esp, ebp
	pop	ebp
	ret	0
?readCE32@CollationData@icu_56@@SAIPB_W@Z ENDP		; icu_56::CollationData::readCE32
_TEXT	ENDS
PUBLIC	?getCEFromOffsetCE32@CollationData@icu_56@@QBE_JHI@Z ; icu_56::CollationData::getCEFromOffsetCE32
EXTRN	?getThreeBytePrimaryForOffsetData@Collation@icu_56@@SAIH_J@Z:PROC ; icu_56::Collation::getThreeBytePrimaryForOffsetData
; Function compile flags: /Odtp /RTCsu /ZI
;	COMDAT ?getCEFromOffsetCE32@CollationData@icu_56@@QBE_JHI@Z
_TEXT	SEGMENT
_dataCE$ = -24						; size = 8
_this$ = -8						; size = 4
_c$ = 8							; size = 4
_ce32$ = 12						; size = 4
?getCEFromOffsetCE32@CollationData@icu_56@@QBE_JHI@Z PROC ; icu_56::CollationData::getCEFromOffsetCE32, COMDAT
; _this$ = ecx
; Line 113
	push	ebp
	mov	ebp, esp
	sub	esp, 220				; 000000dcH
	push	ebx
	push	esi
	push	edi
	push	ecx
	lea	edi, DWORD PTR [ebp-220]
	mov	ecx, 55					; 00000037H
	mov	eax, -858993460				; ccccccccH
	rep stosd
	pop	ecx
	mov	DWORD PTR _this$[ebp], ecx
; Line 114
	mov	eax, DWORD PTR _ce32$[ebp]
	push	eax
	call	?indexFromCE32@Collation@icu_56@@SAHI@Z	; icu_56::Collation::indexFromCE32
	add	esp, 4
	mov	ecx, DWORD PTR _this$[ebp]
	mov	edx, DWORD PTR [ecx+8]
	mov	ecx, DWORD PTR [edx+eax*8]
	mov	DWORD PTR _dataCE$[ebp], ecx
	mov	edx, DWORD PTR [edx+eax*8+4]
	mov	DWORD PTR _dataCE$[ebp+4], edx
; Line 115
	mov	eax, DWORD PTR _dataCE$[ebp+4]
	push	eax
	mov	ecx, DWORD PTR _dataCE$[ebp]
	push	ecx
	mov	edx, DWORD PTR _c$[ebp]
	push	edx
	call	?getThreeBytePrimaryForOffsetData@Collation@icu_56@@SAIH_J@Z ; icu_56::Collation::getThreeBytePrimaryForOffsetData
	add	esp, 12					; 0000000cH
	push	eax
	call	?makeCE@Collation@icu_56@@SA_JI@Z	; icu_56::Collation::makeCE
	add	esp, 4
; Line 116
	pop	edi
	pop	esi
	pop	ebx
	add	esp, 220				; 000000dcH
	cmp	ebp, esp
	call	__RTC_CheckEsp
	mov	esp, ebp
	pop	ebp
	ret	8
?getCEFromOffsetCE32@CollationData@icu_56@@QBE_JHI@Z ENDP ; icu_56::CollationData::getCEFromOffsetCE32
_TEXT	ENDS
PUBLIC	?getFCD16@CollationData@icu_56@@QBEGH@Z		; icu_56::CollationData::getFCD16
EXTRN	__imp_?getFCD16@Normalizer2Impl@icu_56@@QBEGH@Z:PROC
; Function compile flags: /Odtp /RTCsu /ZI
;	COMDAT ?getFCD16@CollationData@icu_56@@QBEGH@Z
_TEXT	SEGMENT
_this$ = -8						; size = 4
_c$ = 8							; size = 4
?getFCD16@CollationData@icu_56@@QBEGH@Z PROC		; icu_56::CollationData::getFCD16, COMDAT
; _this$ = ecx
; Line 127
	push	ebp
	mov	ebp, esp
	sub	esp, 204				; 000000ccH
	push	ebx
	push	esi
	push	edi
	push	ecx
	lea	edi, DWORD PTR [ebp-204]
	mov	ecx, 51					; 00000033H
	mov	eax, -858993460				; ccccccccH
	rep stosd
	pop	ecx
	mov	DWORD PTR _this$[ebp], ecx
; Line 128
	mov	esi, esp
	mov	eax, DWORD PTR _c$[ebp]
	push	eax
	mov	ecx, DWORD PTR _this$[ebp]
	mov	ecx, DWORD PTR [ecx+24]
	call	DWORD PTR __imp_?getFCD16@Normalizer2Impl@icu_56@@QBEGH@Z
	cmp	esi, esp
	call	__RTC_CheckEsp
; Line 129
	pop	edi
	pop	esi
	pop	ebx
	add	esp, 204				; 000000ccH
	cmp	ebp, esp
	call	__RTC_CheckEsp
	mov	esp, ebp
	pop	ebp
	ret	4
?getFCD16@CollationData@icu_56@@QBEGH@Z ENDP		; icu_56::CollationData::getFCD16
_TEXT	ENDS
PUBLIC	??0CEBuffer@CollationIterator@icu_56@@QAE@XZ	; icu_56::CollationIterator::CEBuffer::CEBuffer
PUBLIC	??_7CollationIterator@icu_56@@6B@		; icu_56::CollationIterator::`vftable'
PUBLIC	??0CollationIterator@icu_56@@QAE@PBUCollationData@1@C@Z ; icu_56::CollationIterator::CollationIterator
PUBLIC	??_R4CollationIterator@icu_56@@6B@		; icu_56::CollationIterator::`RTTI Complete Object Locator'
PUBLIC	??_R0?AVCollationIterator@icu_56@@@8		; icu_56::CollationIterator `RTTI Type Descriptor'
PUBLIC	??_R3CollationIterator@icu_56@@8		; icu_56::CollationIterator::`RTTI Class Hierarchy Descriptor'
PUBLIC	??_R2CollationIterator@icu_56@@8		; icu_56::CollationIterator::`RTTI Base Class Array'
PUBLIC	??_R1A@?0A@EA@CollationIterator@icu_56@@8	; icu_56::CollationIterator::`RTTI Base Class Descriptor at (0,-1,0,64)'
PUBLIC	??_R1A@?0A@EA@UObject@icu_56@@8			; icu_56::UObject::`RTTI Base Class Descriptor at (0,-1,0,64)'
PUBLIC	??_R0?AVUObject@icu_56@@@8			; icu_56::UObject `RTTI Type Descriptor'
PUBLIC	??_R3UObject@icu_56@@8				; icu_56::UObject::`RTTI Class Hierarchy Descriptor'
PUBLIC	??_R2UObject@icu_56@@8				; icu_56::UObject::`RTTI Base Class Array'
PUBLIC	??_R13?0A@EA@UMemory@icu_56@@8			; icu_56::UMemory::`RTTI Base Class Descriptor at (4,-1,0,64)'
PUBLIC	??_R0?AVUMemory@icu_56@@@8			; icu_56::UMemory `RTTI Type Descriptor'
PUBLIC	??_R3UMemory@icu_56@@8				; icu_56::UMemory::`RTTI Class Hierarchy Descriptor'
PUBLIC	??_R2UMemory@icu_56@@8				; icu_56::UMemory::`RTTI Base Class Array'
PUBLIC	??_R1A@?0A@EA@UMemory@icu_56@@8			; icu_56::UMemory::`RTTI Base Class Descriptor at (0,-1,0,64)'
PUBLIC	??_ECollationIterator@icu_56@@UAEPAXI@Z		; icu_56::CollationIterator::`vector deleting destructor'
EXTRN	__imp_??1UObject@icu_56@@UAE@XZ:PROC
EXTRN	__imp_??0UObject@icu_56@@QAE@XZ:PROC
EXTRN	___security_cookie:DWORD
EXTRN	___CxxFrameHandler3:PROC
EXTRN	@__security_check_cookie@4:PROC
EXTRN	??_7type_info@@6B@:QWORD			; type_info::`vftable'
EXTRN	?getDynamicClassID@UObject@icu_56@@UBEPAXXZ:PROC ; icu_56::UObject::getDynamicClassID
EXTRN	??8CollationIterator@icu_56@@UBECABV01@@Z:PROC	; icu_56::CollationIterator::operator==
EXTRN	__purecall:PROC
EXTRN	?handleNextCE32@CollationIterator@icu_56@@MAEIAAHAAW4UErrorCode@@@Z:PROC ; icu_56::CollationIterator::handleNextCE32
EXTRN	?handleGetTrailSurrogate@CollationIterator@icu_56@@MAE_WXZ:PROC ; icu_56::CollationIterator::handleGetTrailSurrogate
EXTRN	?foundNULTerminator@CollationIterator@icu_56@@MAECXZ:PROC ; icu_56::CollationIterator::foundNULTerminator
EXTRN	?forbidSurrogateCodePoints@CollationIterator@icu_56@@MBECXZ:PROC ; icu_56::CollationIterator::forbidSurrogateCodePoints
EXTRN	?getDataCE32@CollationIterator@icu_56@@MBEIH@Z:PROC ; icu_56::CollationIterator::getDataCE32
EXTRN	?getCE32FromBuilderData@CollationIterator@icu_56@@MAEIIAAW4UErrorCode@@@Z:PROC ; icu_56::CollationIterator::getCE32FromBuilderData
;	COMDAT ??_R1A@?0A@EA@UMemory@icu_56@@8
; File d:\mozilla\intl\icu\source\i18n\collationiterator.h
rdata$r	SEGMENT
??_R1A@?0A@EA@UMemory@icu_56@@8 DD FLAT:??_R0?AVUMemory@icu_56@@@8 ; icu_56::UMemory::`RTTI Base Class Descriptor at (0,-1,0,64)'
	DD	00H
	DD	00H
	DD	0ffffffffH
	DD	00H
	DD	040H
	DD	FLAT:??_R3UMemory@icu_56@@8
rdata$r	ENDS
;	COMDAT ??_R2UMemory@icu_56@@8
rdata$r	SEGMENT
??_R2UMemory@icu_56@@8 DD FLAT:??_R1A@?0A@EA@UMemory@icu_56@@8 ; icu_56::UMemory::`RTTI Base Class Array'
rdata$r	ENDS
;	COMDAT ??_R3UMemory@icu_56@@8
rdata$r	SEGMENT
??_R3UMemory@icu_56@@8 DD 00H				; icu_56::UMemory::`RTTI Class Hierarchy Descriptor'
	DD	00H
	DD	01H
	DD	FLAT:??_R2UMemory@icu_56@@8
rdata$r	ENDS
;	COMDAT ??_R0?AVUMemory@icu_56@@@8
_DATA	SEGMENT
??_R0?AVUMemory@icu_56@@@8 DD FLAT:??_7type_info@@6B@	; icu_56::UMemory `RTTI Type Descriptor'
	DD	00H
	DB	'.?AVUMemory@icu_56@@', 00H
_DATA	ENDS
;	COMDAT ??_R13?0A@EA@UMemory@icu_56@@8
rdata$r	SEGMENT
??_R13?0A@EA@UMemory@icu_56@@8 DD FLAT:??_R0?AVUMemory@icu_56@@@8 ; icu_56::UMemory::`RTTI Base Class Descriptor at (4,-1,0,64)'
	DD	00H
	DD	04H
	DD	0ffffffffH
	DD	00H
	DD	040H
	DD	FLAT:??_R3UMemory@icu_56@@8
rdata$r	ENDS
;	COMDAT ??_R2UObject@icu_56@@8
rdata$r	SEGMENT
??_R2UObject@icu_56@@8 DD FLAT:??_R1A@?0A@EA@UObject@icu_56@@8 ; icu_56::UObject::`RTTI Base Class Array'
	DD	FLAT:??_R13?0A@EA@UMemory@icu_56@@8
rdata$r	ENDS
;	COMDAT ??_R3UObject@icu_56@@8
rdata$r	SEGMENT
??_R3UObject@icu_56@@8 DD 00H				; icu_56::UObject::`RTTI Class Hierarchy Descriptor'
	DD	00H
	DD	02H
	DD	FLAT:??_R2UObject@icu_56@@8
rdata$r	ENDS
;	COMDAT ??_R0?AVUObject@icu_56@@@8
_DATA	SEGMENT
??_R0?AVUObject@icu_56@@@8 DD FLAT:??_7type_info@@6B@	; icu_56::UObject `RTTI Type Descriptor'
	DD	00H
	DB	'.?AVUObject@icu_56@@', 00H
_DATA	ENDS
;	COMDAT ??_R1A@?0A@EA@UObject@icu_56@@8
rdata$r	SEGMENT
??_R1A@?0A@EA@UObject@icu_56@@8 DD FLAT:??_R0?AVUObject@icu_56@@@8 ; icu_56::UObject::`RTTI Base Class Descriptor at (0,-1,0,64)'
	DD	01H
	DD	00H
	DD	0ffffffffH
	DD	00H
	DD	040H
	DD	FLAT:??_R3UObject@icu_56@@8
rdata$r	ENDS
;	COMDAT ??_R1A@?0A@EA@CollationIterator@icu_56@@8
rdata$r	SEGMENT
??_R1A@?0A@EA@CollationIterator@icu_56@@8 DD FLAT:??_R0?AVCollationIterator@icu_56@@@8 ; icu_56::CollationIterator::`RTTI Base Class Descriptor at (0,-1,0,64)'
	DD	02H
	DD	00H
	DD	0ffffffffH
	DD	00H
	DD	040H
	DD	FLAT:??_R3CollationIterator@icu_56@@8
rdata$r	ENDS
;	COMDAT ??_R2CollationIterator@icu_56@@8
rdata$r	SEGMENT
??_R2CollationIterator@icu_56@@8 DD FLAT:??_R1A@?0A@EA@CollationIterator@icu_56@@8 ; icu_56::CollationIterator::`RTTI Base Class Array'
	DD	FLAT:??_R1A@?0A@EA@UObject@icu_56@@8
	DD	FLAT:??_R13?0A@EA@UMemory@icu_56@@8
rdata$r	ENDS
;	COMDAT ??_R3CollationIterator@icu_56@@8
rdata$r	SEGMENT
??_R3CollationIterator@icu_56@@8 DD 00H			; icu_56::CollationIterator::`RTTI Class Hierarchy Descriptor'
	DD	00H
	DD	03H
	DD	FLAT:??_R2CollationIterator@icu_56@@8
rdata$r	ENDS
;	COMDAT ??_R0?AVCollationIterator@icu_56@@@8
_DATA	SEGMENT
??_R0?AVCollationIterator@icu_56@@@8 DD FLAT:??_7type_info@@6B@ ; icu_56::CollationIterator `RTTI Type Descriptor'
	DD	00H
	DB	'.?AVCollationIterator@icu_56@@', 00H
_DATA	ENDS
;	COMDAT ??_R4CollationIterator@icu_56@@6B@
rdata$r	SEGMENT
??_R4CollationIterator@icu_56@@6B@ DD 00H		; icu_56::CollationIterator::`RTTI Complete Object Locator'
	DD	00H
	DD	00H
	DD	FLAT:??_R0?AVCollationIterator@icu_56@@@8
	DD	FLAT:??_R3CollationIterator@icu_56@@8
rdata$r	ENDS
;	COMDAT ??_7CollationIterator@icu_56@@6B@
CONST	SEGMENT
??_7CollationIterator@icu_56@@6B@ DD FLAT:??_R4CollationIterator@icu_56@@6B@ ; icu_56::CollationIterator::`vftable'
	DD	FLAT:??_ECollationIterator@icu_56@@UAEPAXI@Z
	DD	FLAT:?getDynamicClassID@UObject@icu_56@@UBEPAXXZ
	DD	FLAT:??8CollationIterator@icu_56@@UBECABV01@@Z
	DD	FLAT:__purecall
	DD	FLAT:__purecall
	DD	FLAT:__purecall
	DD	FLAT:__purecall
	DD	FLAT:?handleNextCE32@CollationIterator@icu_56@@MAEIAAHAAW4UErrorCode@@@Z
	DD	FLAT:?handleGetTrailSurrogate@CollationIterator@icu_56@@MAE_WXZ
	DD	FLAT:?foundNULTerminator@CollationIterator@icu_56@@MAECXZ
	DD	FLAT:?forbidSurrogateCodePoints@CollationIterator@icu_56@@MBECXZ
	DD	FLAT:__purecall
	DD	FLAT:__purecall
	DD	FLAT:?getDataCE32@CollationIterator@icu_56@@MBEIH@Z
	DD	FLAT:?getCE32FromBuilderData@CollationIterator@icu_56@@MAEIIAAW4UErrorCode@@@Z
CONST	ENDS
;	COMDAT xdata$x
xdata$x	SEGMENT
__unwindtable$??0CollationIterator@icu_56@@QAE@PBUCollationData@1@C@Z DD 0ffffffffH
	DD	FLAT:__unwindfunclet$??0CollationIterator@icu_56@@QAE@PBUCollationData@1@C@Z$0
__ehfuncinfo$??0CollationIterator@icu_56@@QAE@PBUCollationData@1@C@Z DD 019930522H
	DD	01H
	DD	FLAT:__unwindtable$??0CollationIterator@icu_56@@QAE@PBUCollationData@1@C@Z
	DD	2 DUP(00H)
	DD	2 DUP(00H)
	DD	00H
	DD	01H
; Function compile flags: /Odtp /RTCsu /ZI
xdata$x	ENDS
;	COMDAT ??0CollationIterator@icu_56@@QAE@PBUCollationData@1@C@Z
_TEXT	SEGMENT
_this$ = -20						; size = 4
__$EHRec$ = -12						; size = 12
_d$ = 8							; size = 4
_numeric$ = 12						; size = 1
??0CollationIterator@icu_56@@QAE@PBUCollationData@1@C@Z PROC ; icu_56::CollationIterator::CollationIterator, COMDAT
; _this$ = ecx
; Line 91
	push	ebp
	mov	ebp, esp
	push	-1
	push	__ehhandler$??0CollationIterator@icu_56@@QAE@PBUCollationData@1@C@Z
	mov	eax, DWORD PTR fs:0
	push	eax
	sub	esp, 204				; 000000ccH
	push	ebx
	push	esi
	push	edi
	push	ecx
	lea	edi, DWORD PTR [ebp-216]
	mov	ecx, 51					; 00000033H
	mov	eax, -858993460				; ccccccccH
	rep stosd
	pop	ecx
	mov	eax, DWORD PTR ___security_cookie
	xor	eax, ebp
	push	eax
	lea	eax, DWORD PTR __$EHRec$[ebp]
	mov	DWORD PTR fs:0, eax
	mov	DWORD PTR _this$[ebp], ecx
	mov	esi, esp
	mov	ecx, DWORD PTR _this$[ebp]
	call	DWORD PTR __imp_??0UObject@icu_56@@QAE@XZ
	cmp	esi, esp
	call	__RTC_CheckEsp
	mov	DWORD PTR __$EHRec$[ebp+8], 0
	mov	eax, DWORD PTR _this$[ebp]
	mov	DWORD PTR [eax], OFFSET ??_7CollationIterator@icu_56@@6B@
	mov	eax, DWORD PTR _this$[ebp]
	mov	ecx, DWORD PTR _d$[ebp]
	mov	edx, DWORD PTR [ecx]
	mov	DWORD PTR [eax+4], edx
	mov	eax, DWORD PTR _this$[ebp]
	mov	ecx, DWORD PTR _d$[ebp]
	mov	DWORD PTR [eax+8], ecx
	mov	ecx, DWORD PTR _this$[ebp]
	add	ecx, 16					; 00000010H
	call	??0CEBuffer@CollationIterator@icu_56@@QAE@XZ ; icu_56::CollationIterator::CEBuffer::CEBuffer
	mov	eax, DWORD PTR _this$[ebp]
	mov	DWORD PTR [eax+360], 0
	mov	eax, DWORD PTR _this$[ebp]
	mov	DWORD PTR [eax+364], 0
	mov	eax, DWORD PTR _this$[ebp]
	mov	DWORD PTR [eax+368], -1
	mov	eax, DWORD PTR _this$[ebp]
	mov	cl, BYTE PTR _numeric$[ebp]
	mov	BYTE PTR [eax+372], cl
	mov	DWORD PTR __$EHRec$[ebp+8], -1
	mov	eax, DWORD PTR _this$[ebp]
	mov	ecx, DWORD PTR __$EHRec$[ebp]
	mov	DWORD PTR fs:0, ecx
	pop	ecx
	pop	edi
	pop	esi
	pop	ebx
	add	esp, 216				; 000000d8H
	cmp	ebp, esp
	call	__RTC_CheckEsp
	mov	esp, ebp
	pop	ebp
	ret	8
_TEXT	ENDS
;	COMDAT text$x
text$x	SEGMENT
__unwindfunclet$??0CollationIterator@icu_56@@QAE@PBUCollationData@1@C@Z$0:
	mov	esi, esp
	mov	ecx, DWORD PTR _this$[ebp]
	call	DWORD PTR __imp_??1UObject@icu_56@@UAE@XZ
	cmp	esi, esp
	jmp	__RTC_CheckEsp
__ehhandler$??0CollationIterator@icu_56@@QAE@PBUCollationData@1@C@Z:
	mov	edx, DWORD PTR [esp+8]
	lea	eax, DWORD PTR [edx+12]
	mov	ecx, DWORD PTR [edx-220]
	xor	ecx, eax
	call	@__security_check_cookie@4
	mov	eax, OFFSET __ehfuncinfo$??0CollationIterator@icu_56@@QAE@PBUCollationData@1@C@Z
	jmp	___CxxFrameHandler3
text$x	ENDS
??0CollationIterator@icu_56@@QAE@PBUCollationData@1@C@Z ENDP ; icu_56::CollationIterator::CollationIterator
PUBLIC	??0?$MaybeStackArray@_J$0CI@@icu_56@@QAE@XZ	; icu_56::MaybeStackArray<__int64,40>::MaybeStackArray<__int64,40>
; Function compile flags: /Odtp /RTCsu /ZI
;	COMDAT ??0CEBuffer@CollationIterator@icu_56@@QAE@XZ
_TEXT	SEGMENT
_this$ = -8						; size = 4
??0CEBuffer@CollationIterator@icu_56@@QAE@XZ PROC	; icu_56::CollationIterator::CEBuffer::CEBuffer, COMDAT
; _this$ = ecx
; Line 42
	push	ebp
	mov	ebp, esp
	sub	esp, 204				; 000000ccH
	push	ebx
	push	esi
	push	edi
	push	ecx
	lea	edi, DWORD PTR [ebp-204]
	mov	ecx, 51					; 00000033H
	mov	eax, -858993460				; ccccccccH
	rep stosd
	pop	ecx
	mov	DWORD PTR _this$[ebp], ecx
	mov	eax, DWORD PTR _this$[ebp]
	mov	DWORD PTR [eax], 0
	mov	ecx, DWORD PTR _this$[ebp]
	add	ecx, 8
	call	??0?$MaybeStackArray@_J$0CI@@icu_56@@QAE@XZ ; icu_56::MaybeStackArray<__int64,40>::MaybeStackArray<__int64,40>
	mov	eax, DWORD PTR _this$[ebp]
	pop	edi
	pop	esi
	pop	ebx
	add	esp, 204				; 000000ccH
	cmp	ebp, esp
	call	__RTC_CheckEsp
	mov	esp, ebp
	pop	ebp
	ret	0
??0CEBuffer@CollationIterator@icu_56@@QAE@XZ ENDP	; icu_56::CollationIterator::CEBuffer::CEBuffer
_TEXT	ENDS
PUBLIC	??9CollationIterator@icu_56@@QBECABV01@@Z	; icu_56::CollationIterator::operator!=
; Function compile flags: /Odtp /RTCsu /ZI
;	COMDAT ??9CollationIterator@icu_56@@QBECABV01@@Z
_TEXT	SEGMENT
_this$ = -8						; size = 4
_other$ = 8						; size = 4
??9CollationIterator@icu_56@@QBECABV01@@Z PROC		; icu_56::CollationIterator::operator!=, COMDAT
; _this$ = ecx
; Line 96
	push	ebp
	mov	ebp, esp
	sub	esp, 204				; 000000ccH
	push	ebx
	push	esi
	push	edi
	push	ecx
	lea	edi, DWORD PTR [ebp-204]
	mov	ecx, 51					; 00000033H
	mov	eax, -858993460				; ccccccccH
	rep stosd
	pop	ecx
	mov	DWORD PTR _this$[ebp], ecx
; Line 97
	mov	esi, esp
	mov	eax, DWORD PTR _other$[ebp]
	push	eax
	mov	ecx, DWORD PTR _this$[ebp]
	mov	edx, DWORD PTR [ecx]
	mov	ecx, DWORD PTR _this$[ebp]
	mov	eax, DWORD PTR [edx+8]
	call	eax
	cmp	esi, esp
	call	__RTC_CheckEsp
	movsx	ecx, al
	test	ecx, ecx
	sete	al
; Line 98
	pop	edi
	pop	esi
	pop	ebx
	add	esp, 204				; 000000ccH
	cmp	ebp, esp
	call	__RTC_CheckEsp
	mov	esp, ebp
	pop	ebp
	ret	4
??9CollationIterator@icu_56@@QBECABV01@@Z ENDP		; icu_56::CollationIterator::operator!=
_TEXT	ENDS
PUBLIC	?set@CEBuffer@CollationIterator@icu_56@@QAE_JH_J@Z ; icu_56::CollationIterator::CEBuffer::set
PUBLIC	?incLength@CEBuffer@CollationIterator@icu_56@@QAECAAW4UErrorCode@@@Z ; icu_56::CollationIterator::CEBuffer::incLength
PUBLIC	?get@CEBuffer@CollationIterator@icu_56@@QBE_JH@Z ; icu_56::CollationIterator::CEBuffer::get
PUBLIC	?nextCE@CollationIterator@icu_56@@QAE_JAAW4UErrorCode@@@Z ; icu_56::CollationIterator::nextCE
EXTRN	?nextCEFromCE32@CollationIterator@icu_56@@AAE_JPBUCollationData@2@HIAAW4UErrorCode@@@Z:PROC ; icu_56::CollationIterator::nextCEFromCE32
EXTRN	@_RTC_CheckStackVars@8:PROC
; Function compile flags: /Odtp /RTCsu /ZI
;	COMDAT ?nextCE@CollationIterator@icu_56@@QAE_JAAW4UErrorCode@@@Z
_TEXT	SEGMENT
tv379 = -260						; size = 4
tv377 = -260						; size = 4
tv196 = -256						; size = 4
tv180 = -256						; size = 4
tv153 = -256						; size = 4
tv141 = -256						; size = 4
tv75 = -256						; size = 4
_d$ = -56						; size = 4
_t$ = -44						; size = 4
_ce32$ = -32						; size = 4
_c$ = -20						; size = 4
_this$ = -8						; size = 4
_errorCode$ = 8						; size = 4
?nextCE@CollationIterator@icu_56@@QAE_JAAW4UErrorCode@@@Z PROC ; icu_56::CollationIterator::nextCE, COMDAT
; _this$ = ecx
; Line 112
	push	ebp
	mov	ebp, esp
	sub	esp, 260				; 00000104H
	push	ebx
	push	esi
	push	edi
	push	ecx
	lea	edi, DWORD PTR [ebp-260]
	mov	ecx, 65					; 00000041H
	mov	eax, -858993460				; ccccccccH
	rep stosd
	pop	ecx
	mov	DWORD PTR _this$[ebp], ecx
; Line 113
	mov	eax, DWORD PTR _this$[ebp]
	mov	ecx, DWORD PTR _this$[ebp]
	mov	edx, DWORD PTR [eax+360]
	cmp	edx, DWORD PTR [ecx+16]
	jge	SHORT $LN8@nextCE
; Line 115
	mov	eax, DWORD PTR _this$[ebp]
	mov	ecx, DWORD PTR [eax+360]
	mov	DWORD PTR tv75[ebp], ecx
	mov	edx, DWORD PTR _this$[ebp]
	mov	eax, DWORD PTR [edx+360]
	add	eax, 1
	mov	ecx, DWORD PTR _this$[ebp]
	mov	DWORD PTR [ecx+360], eax
	mov	edx, DWORD PTR tv75[ebp]
	push	edx
	mov	ecx, DWORD PTR _this$[ebp]
	add	ecx, 16					; 00000010H
	call	?get@CEBuffer@CollationIterator@icu_56@@QBE_JH@Z ; icu_56::CollationIterator::CEBuffer::get
	jmp	$LN9@nextCE
$LN8@nextCE:
; Line 118
	mov	eax, DWORD PTR _errorCode$[ebp]
	push	eax
	mov	ecx, DWORD PTR _this$[ebp]
	add	ecx, 16					; 00000010H
	call	?incLength@CEBuffer@CollationIterator@icu_56@@QAECAAW4UErrorCode@@@Z ; icu_56::CollationIterator::CEBuffer::incLength
	movsx	ecx, al
	test	ecx, ecx
	jne	SHORT $LN7@nextCE
; Line 119
	mov	eax, 16777472				; 01000100H
	mov	edx, 1
	jmp	$LN9@nextCE
$LN7@nextCE:
; Line 122
	mov	esi, esp
	mov	eax, DWORD PTR _errorCode$[ebp]
	push	eax
	lea	ecx, DWORD PTR _c$[ebp]
	push	ecx
	mov	edx, DWORD PTR _this$[ebp]
	mov	eax, DWORD PTR [edx]
	mov	ecx, DWORD PTR _this$[ebp]
	mov	edx, DWORD PTR [eax+28]
	call	edx
	cmp	esi, esp
	call	__RTC_CheckEsp
	mov	DWORD PTR _ce32$[ebp], eax
; Line 123
	mov	eax, DWORD PTR _ce32$[ebp]
	and	eax, 255				; 000000ffH
	mov	DWORD PTR _t$[ebp], eax
; Line 124
	cmp	DWORD PTR _t$[ebp], 192			; 000000c0H
	jae	SHORT $LN6@nextCE
; Line 128
	mov	eax, DWORD PTR _this$[ebp]
	mov	ecx, DWORD PTR [eax+360]
	mov	DWORD PTR tv141[ebp], ecx
	mov	edx, DWORD PTR _this$[ebp]
	mov	eax, DWORD PTR [edx+360]
	add	eax, 1
	mov	ecx, DWORD PTR _this$[ebp]
	mov	DWORD PTR [ecx+360], eax
	mov	edx, DWORD PTR _t$[ebp]
	shl	edx, 8
	mov	esi, edx
	xor	edi, edi
	mov	eax, DWORD PTR _ce32$[ebp]
	and	eax, 65280				; 0000ff00H
	shl	eax, 16					; 00000010H
	mov	ebx, eax
	xor	eax, eax
	mov	ecx, DWORD PTR _ce32$[ebp]
	and	ecx, -65536				; ffff0000H
	xor	edx, edx
	mov	DWORD PTR tv377[ebp], eax
	mov	eax, ecx
	mov	cl, 32					; 00000020H
	call	__allshl
	or	eax, ebx
	mov	ebx, DWORD PTR tv377[ebp]
	or	edx, ebx
	or	eax, esi
	or	edx, edi
	push	edx
	push	eax
	mov	edx, DWORD PTR tv141[ebp]
	push	edx
	mov	ecx, DWORD PTR _this$[ebp]
	add	ecx, 16					; 00000010H
	call	?set@CEBuffer@CollationIterator@icu_56@@QAE_JH_J@Z ; icu_56::CollationIterator::CEBuffer::set
	jmp	$LN9@nextCE
$LN6@nextCE:
; Line 133
	cmp	DWORD PTR _t$[ebp], 192			; 000000c0H
	jne	$LN5@nextCE
; Line 134
	cmp	DWORD PTR _c$[ebp], 0
	jge	SHORT $LN4@nextCE
; Line 135
	mov	eax, DWORD PTR _this$[ebp]
	mov	ecx, DWORD PTR [eax+360]
	mov	DWORD PTR tv153[ebp], ecx
	mov	edx, DWORD PTR _this$[ebp]
	mov	eax, DWORD PTR [edx+360]
	add	eax, 1
	mov	ecx, DWORD PTR _this$[ebp]
	mov	DWORD PTR [ecx+360], eax
	push	1
	push	16777472				; 01000100H
	mov	edx, DWORD PTR tv153[ebp]
	push	edx
	mov	ecx, DWORD PTR _this$[ebp]
	add	ecx, 16					; 00000010H
	call	?set@CEBuffer@CollationIterator@icu_56@@QAE_JH_J@Z ; icu_56::CollationIterator::CEBuffer::set
	jmp	$LN9@nextCE
$LN4@nextCE:
; Line 137
	mov	eax, DWORD PTR _this$[ebp]
	mov	ecx, DWORD PTR [eax+8]
	mov	edx, DWORD PTR [ecx+16]
	mov	DWORD PTR _d$[ebp], edx
; Line 138
	mov	eax, DWORD PTR _c$[ebp]
	push	eax
	mov	ecx, DWORD PTR _d$[ebp]
	call	?getCE32@CollationData@icu_56@@QBEIH@Z	; icu_56::CollationData::getCE32
	mov	DWORD PTR _ce32$[ebp], eax
; Line 139
	mov	eax, DWORD PTR _ce32$[ebp]
	and	eax, 255				; 000000ffH
	mov	DWORD PTR _t$[ebp], eax
; Line 140
	cmp	DWORD PTR _t$[ebp], 192			; 000000c0H
	jae	SHORT $LN3@nextCE
; Line 143
	mov	eax, DWORD PTR _this$[ebp]
	mov	ecx, DWORD PTR [eax+360]
	mov	DWORD PTR tv180[ebp], ecx
	mov	edx, DWORD PTR _this$[ebp]
	mov	eax, DWORD PTR [edx+360]
	add	eax, 1
	mov	ecx, DWORD PTR _this$[ebp]
	mov	DWORD PTR [ecx+360], eax
	mov	edx, DWORD PTR _t$[ebp]
	shl	edx, 8
	mov	esi, edx
	xor	edi, edi
	mov	eax, DWORD PTR _ce32$[ebp]
	and	eax, 65280				; 0000ff00H
	shl	eax, 16					; 00000010H
	mov	ebx, eax
	xor	eax, eax
	mov	ecx, DWORD PTR _ce32$[ebp]
	and	ecx, -65536				; ffff0000H
	xor	edx, edx
	mov	DWORD PTR tv379[ebp], eax
	mov	eax, ecx
	mov	cl, 32					; 00000020H
	call	__allshl
	or	eax, ebx
	mov	ebx, DWORD PTR tv379[ebp]
	or	edx, ebx
	or	eax, esi
	or	edx, edi
	push	edx
	push	eax
	mov	edx, DWORD PTR tv180[ebp]
	push	edx
	mov	ecx, DWORD PTR _this$[ebp]
	add	ecx, 16					; 00000010H
	call	?set@CEBuffer@CollationIterator@icu_56@@QAE_JH_J@Z ; icu_56::CollationIterator::CEBuffer::set
	jmp	SHORT $LN9@nextCE
$LN3@nextCE:
; Line 145
	jmp	SHORT $LN2@nextCE
$LN5@nextCE:
; Line 146
	mov	eax, DWORD PTR _this$[ebp]
	mov	ecx, DWORD PTR [eax+8]
	mov	DWORD PTR _d$[ebp], ecx
$LN2@nextCE:
; Line 148
	cmp	DWORD PTR _t$[ebp], 193			; 000000c1H
	jne	SHORT $LN1@nextCE
; Line 151
	mov	eax, DWORD PTR _this$[ebp]
	mov	ecx, DWORD PTR [eax+360]
	mov	DWORD PTR tv196[ebp], ecx
	mov	edx, DWORD PTR _this$[ebp]
	mov	eax, DWORD PTR [edx+360]
	add	eax, 1
	mov	ecx, DWORD PTR _this$[ebp]
	mov	DWORD PTR [ecx+360], eax
	mov	eax, DWORD PTR _ce32$[ebp]
	sub	eax, DWORD PTR _t$[ebp]
	xor	edx, edx
	mov	cl, 32					; 00000020H
	call	__allshl
	or	eax, 83887360				; 05000500H
	push	edx
	push	eax
	mov	edx, DWORD PTR tv196[ebp]
	push	edx
	mov	ecx, DWORD PTR _this$[ebp]
	add	ecx, 16					; 00000010H
	call	?set@CEBuffer@CollationIterator@icu_56@@QAE_JH_J@Z ; icu_56::CollationIterator::CEBuffer::set
	jmp	SHORT $LN9@nextCE
$LN1@nextCE:
; Line 153
	mov	eax, DWORD PTR _errorCode$[ebp]
	push	eax
	mov	ecx, DWORD PTR _ce32$[ebp]
	push	ecx
	mov	edx, DWORD PTR _c$[ebp]
	push	edx
	mov	eax, DWORD PTR _d$[ebp]
	push	eax
	mov	ecx, DWORD PTR _this$[ebp]
	call	?nextCEFromCE32@CollationIterator@icu_56@@AAE_JPBUCollationData@2@HIAAW4UErrorCode@@@Z ; icu_56::CollationIterator::nextCEFromCE32
$LN9@nextCE:
; Line 154
	push	edx
	mov	ecx, ebp
	push	eax
	lea	edx, DWORD PTR $LN13@nextCE
	call	@_RTC_CheckStackVars@8
	pop	eax
	pop	edx
	pop	edi
	pop	esi
	pop	ebx
	add	esp, 260				; 00000104H
	cmp	ebp, esp
	call	__RTC_CheckEsp
	mov	esp, ebp
	pop	ebp
	ret	4
	npad	1
$LN13@nextCE:
	DD	1
	DD	$LN12@nextCE
$LN12@nextCE:
	DD	-20					; ffffffecH
	DD	4
	DD	$LN11@nextCE
$LN11@nextCE:
	DB	99					; 00000063H
	DB	0
?nextCE@CollationIterator@icu_56@@QAE_JAAW4UErrorCode@@@Z ENDP ; icu_56::CollationIterator::nextCE
_TEXT	ENDS
EXTRN	?ensureAppendCapacity@CEBuffer@CollationIterator@icu_56@@QAECHAAW4UErrorCode@@@Z:PROC ; icu_56::CollationIterator::CEBuffer::ensureAppendCapacity
; Function compile flags: /Odtp /RTCsu /ZI
;	COMDAT ?incLength@CEBuffer@CollationIterator@icu_56@@QAECAAW4UErrorCode@@@Z
_TEXT	SEGMENT
_this$ = -8						; size = 4
_errorCode$ = 8						; size = 4
?incLength@CEBuffer@CollationIterator@icu_56@@QAECAAW4UErrorCode@@@Z PROC ; icu_56::CollationIterator::CEBuffer::incLength, COMDAT
; _this$ = ecx
; Line 57
	push	ebp
	mov	ebp, esp
	sub	esp, 204				; 000000ccH
	push	ebx
	push	esi
	push	edi
	push	ecx
	lea	edi, DWORD PTR [ebp-204]
	mov	ecx, 51					; 00000033H
	mov	eax, -858993460				; ccccccccH
	rep stosd
	pop	ecx
	mov	DWORD PTR _this$[ebp], ecx
; Line 60
	mov	eax, DWORD PTR _this$[ebp]
	cmp	DWORD PTR [eax], 40			; 00000028H
	jl	SHORT $LN2@incLength
	mov	eax, DWORD PTR _errorCode$[ebp]
	push	eax
	push	1
	mov	ecx, DWORD PTR _this$[ebp]
	call	?ensureAppendCapacity@CEBuffer@CollationIterator@icu_56@@QAECHAAW4UErrorCode@@@Z ; icu_56::CollationIterator::CEBuffer::ensureAppendCapacity
	movsx	ecx, al
	test	ecx, ecx
	je	SHORT $LN3@incLength
$LN2@incLength:
; Line 61
	mov	eax, DWORD PTR _this$[ebp]
	mov	ecx, DWORD PTR [eax]
	add	ecx, 1
	mov	edx, DWORD PTR _this$[ebp]
	mov	DWORD PTR [edx], ecx
; Line 62
	mov	al, 1
	jmp	SHORT $LN4@incLength
; Line 63
	jmp	SHORT $LN4@incLength
$LN3@incLength:
; Line 64
	xor	al, al
$LN4@incLength:
; Line 66
	pop	edi
	pop	esi
	pop	ebx
	add	esp, 204				; 000000ccH
	cmp	ebp, esp
	call	__RTC_CheckEsp
	mov	esp, ebp
	pop	ebp
	ret	4
?incLength@CEBuffer@CollationIterator@icu_56@@QAECAAW4UErrorCode@@@Z ENDP ; icu_56::CollationIterator::CEBuffer::incLength
_TEXT	ENDS
PUBLIC	??A?$MaybeStackArray@_J$0CI@@icu_56@@QAEAA_JH@Z	; icu_56::MaybeStackArray<__int64,40>::operator[]
; Function compile flags: /Odtp /RTCsu /ZI
;	COMDAT ?set@CEBuffer@CollationIterator@icu_56@@QAE_JH_J@Z
_TEXT	SEGMENT
_this$ = -8						; size = 4
_i$ = 8							; size = 4
_ce$ = 12						; size = 8
?set@CEBuffer@CollationIterator@icu_56@@QAE_JH_J@Z PROC	; icu_56::CollationIterator::CEBuffer::set, COMDAT
; _this$ = ecx
; Line 68
	push	ebp
	mov	ebp, esp
	sub	esp, 204				; 000000ccH
	push	ebx
	push	esi
	push	edi
	push	ecx
	lea	edi, DWORD PTR [ebp-204]
	mov	ecx, 51					; 00000033H
	mov	eax, -858993460				; ccccccccH
	rep stosd
	pop	ecx
	mov	DWORD PTR _this$[ebp], ecx
; Line 69
	mov	eax, DWORD PTR _i$[ebp]
	push	eax
	mov	ecx, DWORD PTR _this$[ebp]
	add	ecx, 8
	call	??A?$MaybeStackArray@_J$0CI@@icu_56@@QAEAA_JH@Z ; icu_56::MaybeStackArray<__int64,40>::operator[]
	mov	ecx, DWORD PTR _ce$[ebp]
	mov	DWORD PTR [eax], ecx
	mov	edx, DWORD PTR _ce$[ebp+4]
	mov	DWORD PTR [eax+4], edx
	mov	eax, DWORD PTR _ce$[ebp]
	mov	edx, DWORD PTR _ce$[ebp+4]
; Line 70
	pop	edi
	pop	esi
	pop	ebx
	add	esp, 204				; 000000ccH
	cmp	ebp, esp
	call	__RTC_CheckEsp
	mov	esp, ebp
	pop	ebp
	ret	12					; 0000000cH
?set@CEBuffer@CollationIterator@icu_56@@QAE_JH_J@Z ENDP	; icu_56::CollationIterator::CEBuffer::set
_TEXT	ENDS
PUBLIC	??A?$MaybeStackArray@_J$0CI@@icu_56@@QBEAB_JH@Z	; icu_56::MaybeStackArray<__int64,40>::operator[]
; Function compile flags: /Odtp /RTCsu /ZI
;	COMDAT ?get@CEBuffer@CollationIterator@icu_56@@QBE_JH@Z
_TEXT	SEGMENT
_this$ = -8						; size = 4
_i$ = 8							; size = 4
?get@CEBuffer@CollationIterator@icu_56@@QBE_JH@Z PROC	; icu_56::CollationIterator::CEBuffer::get, COMDAT
; _this$ = ecx
; Line 71
	push	ebp
	mov	ebp, esp
	sub	esp, 204				; 000000ccH
	push	ebx
	push	esi
	push	edi
	push	ecx
	lea	edi, DWORD PTR [ebp-204]
	mov	ecx, 51					; 00000033H
	mov	eax, -858993460				; ccccccccH
	rep stosd
	pop	ecx
	mov	DWORD PTR _this$[ebp], ecx
	mov	eax, DWORD PTR _i$[ebp]
	push	eax
	mov	ecx, DWORD PTR _this$[ebp]
	add	ecx, 8
	call	??A?$MaybeStackArray@_J$0CI@@icu_56@@QBEAB_JH@Z ; icu_56::MaybeStackArray<__int64,40>::operator[]
	mov	ecx, eax
	mov	eax, DWORD PTR [ecx]
	mov	edx, DWORD PTR [ecx+4]
	pop	edi
	pop	esi
	pop	ebx
	add	esp, 204				; 000000ccH
	cmp	ebp, esp
	call	__RTC_CheckEsp
	mov	esp, ebp
	pop	ebp
	ret	4
?get@CEBuffer@CollationIterator@icu_56@@QBE_JH@Z ENDP	; icu_56::CollationIterator::CEBuffer::get
_TEXT	ENDS
PUBLIC	?setCurrentCE@CollationIterator@icu_56@@QAEX_J@Z ; icu_56::CollationIterator::setCurrentCE
; Function compile flags: /Odtp /RTCsu /ZI
;	COMDAT ?setCurrentCE@CollationIterator@icu_56@@QAEX_J@Z
_TEXT	SEGMENT
_this$ = -8						; size = 4
_ce$ = 8						; size = 8
?setCurrentCE@CollationIterator@icu_56@@QAEX_J@Z PROC	; icu_56::CollationIterator::setCurrentCE, COMDAT
; _this$ = ecx
; Line 165
	push	ebp
	mov	ebp, esp
	sub	esp, 204				; 000000ccH
	push	ebx
	push	esi
	push	edi
	push	ecx
	lea	edi, DWORD PTR [ebp-204]
	mov	ecx, 51					; 00000033H
	mov	eax, -858993460				; ccccccccH
	rep stosd
	pop	ecx
	mov	DWORD PTR _this$[ebp], ecx
; Line 167
	mov	eax, DWORD PTR _ce$[ebp+4]
	push	eax
	mov	ecx, DWORD PTR _ce$[ebp]
	push	ecx
	mov	edx, DWORD PTR _this$[ebp]
	mov	eax, DWORD PTR [edx+360]
	sub	eax, 1
	push	eax
	mov	ecx, DWORD PTR _this$[ebp]
	add	ecx, 16					; 00000010H
	call	?set@CEBuffer@CollationIterator@icu_56@@QAE_JH_J@Z ; icu_56::CollationIterator::CEBuffer::set
; Line 168
	pop	edi
	pop	esi
	pop	ebx
	add	esp, 204				; 000000ccH
	cmp	ebp, esp
	call	__RTC_CheckEsp
	mov	esp, ebp
	pop	ebp
	ret	8
?setCurrentCE@CollationIterator@icu_56@@QAEX_J@Z ENDP	; icu_56::CollationIterator::setCurrentCE
_TEXT	ENDS
PUBLIC	?getCEsLength@CollationIterator@icu_56@@QBEHXZ	; icu_56::CollationIterator::getCEsLength
; Function compile flags: /Odtp /RTCsu /ZI
;	COMDAT ?getCEsLength@CollationIterator@icu_56@@QBEHXZ
_TEXT	SEGMENT
_this$ = -8						; size = 4
?getCEsLength@CollationIterator@icu_56@@QBEHXZ PROC	; icu_56::CollationIterator::getCEsLength, COMDAT
; _this$ = ecx
; Line 175
	push	ebp
	mov	ebp, esp
	sub	esp, 204				; 000000ccH
	push	ebx
	push	esi
	push	edi
	push	ecx
	lea	edi, DWORD PTR [ebp-204]
	mov	ecx, 51					; 00000033H
	mov	eax, -858993460				; ccccccccH
	rep stosd
	pop	ecx
	mov	DWORD PTR _this$[ebp], ecx
; Line 176
	mov	eax, DWORD PTR _this$[ebp]
	mov	eax, DWORD PTR [eax+16]
; Line 177
	pop	edi
	pop	esi
	pop	ebx
	mov	esp, ebp
	pop	ebp
	ret	0
?getCEsLength@CollationIterator@icu_56@@QBEHXZ ENDP	; icu_56::CollationIterator::getCEsLength
_TEXT	ENDS
PUBLIC	?getCE@CollationIterator@icu_56@@QBE_JH@Z	; icu_56::CollationIterator::getCE
; Function compile flags: /Odtp /RTCsu /ZI
;	COMDAT ?getCE@CollationIterator@icu_56@@QBE_JH@Z
_TEXT	SEGMENT
_this$ = -8						; size = 4
_i$ = 8							; size = 4
?getCE@CollationIterator@icu_56@@QBE_JH@Z PROC		; icu_56::CollationIterator::getCE, COMDAT
; _this$ = ecx
; Line 179
	push	ebp
	mov	ebp, esp
	sub	esp, 204				; 000000ccH
	push	ebx
	push	esi
	push	edi
	push	ecx
	lea	edi, DWORD PTR [ebp-204]
	mov	ecx, 51					; 00000033H
	mov	eax, -858993460				; ccccccccH
	rep stosd
	pop	ecx
	mov	DWORD PTR _this$[ebp], ecx
; Line 180
	mov	eax, DWORD PTR _i$[ebp]
	push	eax
	mov	ecx, DWORD PTR _this$[ebp]
	add	ecx, 16					; 00000010H
	call	?get@CEBuffer@CollationIterator@icu_56@@QBE_JH@Z ; icu_56::CollationIterator::CEBuffer::get
; Line 181
	pop	edi
	pop	esi
	pop	ebx
	add	esp, 204				; 000000ccH
	cmp	ebp, esp
	call	__RTC_CheckEsp
	mov	esp, ebp
	pop	ebp
	ret	4
?getCE@CollationIterator@icu_56@@QBE_JH@Z ENDP		; icu_56::CollationIterator::getCE
_TEXT	ENDS
PUBLIC	?getCEs@CEBuffer@CollationIterator@icu_56@@QBEPB_JXZ ; icu_56::CollationIterator::CEBuffer::getCEs
PUBLIC	?getCEs@CollationIterator@icu_56@@QBEPB_JXZ	; icu_56::CollationIterator::getCEs
; Function compile flags: /Odtp /RTCsu /ZI
;	COMDAT ?getCEs@CollationIterator@icu_56@@QBEPB_JXZ
_TEXT	SEGMENT
_this$ = -8						; size = 4
?getCEs@CollationIterator@icu_56@@QBEPB_JXZ PROC	; icu_56::CollationIterator::getCEs, COMDAT
; _this$ = ecx
; Line 183
	push	ebp
	mov	ebp, esp
	sub	esp, 204				; 000000ccH
	push	ebx
	push	esi
	push	edi
	push	ecx
	lea	edi, DWORD PTR [ebp-204]
	mov	ecx, 51					; 00000033H
	mov	eax, -858993460				; ccccccccH
	rep stosd
	pop	ecx
	mov	DWORD PTR _this$[ebp], ecx
; Line 184
	mov	ecx, DWORD PTR _this$[ebp]
	add	ecx, 16					; 00000010H
	call	?getCEs@CEBuffer@CollationIterator@icu_56@@QBEPB_JXZ ; icu_56::CollationIterator::CEBuffer::getCEs
; Line 185
	pop	edi
	pop	esi
	pop	ebx
	add	esp, 204				; 000000ccH
	cmp	ebp, esp
	call	__RTC_CheckEsp
	mov	esp, ebp
	pop	ebp
	ret	0
?getCEs@CollationIterator@icu_56@@QBEPB_JXZ ENDP	; icu_56::CollationIterator::getCEs
_TEXT	ENDS
PUBLIC	?getAlias@?$MaybeStackArray@_J$0CI@@icu_56@@QBEPA_JXZ ; icu_56::MaybeStackArray<__int64,40>::getAlias
; Function compile flags: /Odtp /RTCsu /ZI
;	COMDAT ?getCEs@CEBuffer@CollationIterator@icu_56@@QBEPB_JXZ
_TEXT	SEGMENT
_this$ = -8						; size = 4
?getCEs@CEBuffer@CollationIterator@icu_56@@QBEPB_JXZ PROC ; icu_56::CollationIterator::CEBuffer::getCEs, COMDAT
; _this$ = ecx
; Line 73
	push	ebp
	mov	ebp, esp
	sub	esp, 204				; 000000ccH
	push	ebx
	push	esi
	push	edi
	push	ecx
	lea	edi, DWORD PTR [ebp-204]
	mov	ecx, 51					; 00000033H
	mov	eax, -858993460				; ccccccccH
	rep stosd
	pop	ecx
	mov	DWORD PTR _this$[ebp], ecx
	mov	ecx, DWORD PTR _this$[ebp]
	add	ecx, 8
	call	?getAlias@?$MaybeStackArray@_J$0CI@@icu_56@@QBEPA_JXZ ; icu_56::MaybeStackArray<__int64,40>::getAlias
	pop	edi
	pop	esi
	pop	ebx
	add	esp, 204				; 000000ccH
	cmp	ebp, esp
	call	__RTC_CheckEsp
	mov	esp, ebp
	pop	ebp
	ret	0
?getCEs@CEBuffer@CollationIterator@icu_56@@QBEPB_JXZ ENDP ; icu_56::CollationIterator::CEBuffer::getCEs
_TEXT	ENDS
PUBLIC	?clearCEs@CollationIterator@icu_56@@QAEXXZ	; icu_56::CollationIterator::clearCEs
; Function compile flags: /Odtp /RTCsu /ZI
;	COMDAT ?clearCEs@CollationIterator@icu_56@@QAEXXZ
_TEXT	SEGMENT
_this$ = -8						; size = 4
?clearCEs@CollationIterator@icu_56@@QAEXXZ PROC		; icu_56::CollationIterator::clearCEs, COMDAT
; _this$ = ecx
; Line 187
	push	ebp
	mov	ebp, esp
	sub	esp, 204				; 000000ccH
	push	ebx
	push	esi
	push	edi
	push	ecx
	lea	edi, DWORD PTR [ebp-204]
	mov	ecx, 51					; 00000033H
	mov	eax, -858993460				; ccccccccH
	rep stosd
	pop	ecx
	mov	DWORD PTR _this$[ebp], ecx
; Line 188
	mov	eax, DWORD PTR _this$[ebp]
	mov	DWORD PTR [eax+16], 0
	mov	ecx, DWORD PTR _this$[ebp]
	mov	DWORD PTR [ecx+360], 0
; Line 189
	pop	edi
	pop	esi
	pop	ebx
	mov	esp, ebp
	pop	ebp
	ret	0
?clearCEs@CollationIterator@icu_56@@QAEXXZ ENDP		; icu_56::CollationIterator::clearCEs
_TEXT	ENDS
PUBLIC	?clearCEsIfNoneRemaining@CollationIterator@icu_56@@QAEXXZ ; icu_56::CollationIterator::clearCEsIfNoneRemaining
; Function compile flags: /Odtp /RTCsu /ZI
;	COMDAT ?clearCEsIfNoneRemaining@CollationIterator@icu_56@@QAEXXZ
_TEXT	SEGMENT
_this$ = -8						; size = 4
?clearCEsIfNoneRemaining@CollationIterator@icu_56@@QAEXXZ PROC ; icu_56::CollationIterator::clearCEsIfNoneRemaining, COMDAT
; _this$ = ecx
; Line 191
	push	ebp
	mov	ebp, esp
	sub	esp, 204				; 000000ccH
	push	ebx
	push	esi
	push	edi
	push	ecx
	lea	edi, DWORD PTR [ebp-204]
	mov	ecx, 51					; 00000033H
	mov	eax, -858993460				; ccccccccH
	rep stosd
	pop	ecx
	mov	DWORD PTR _this$[ebp], ecx
; Line 192
	mov	eax, DWORD PTR _this$[ebp]
	mov	ecx, DWORD PTR _this$[ebp]
	mov	edx, DWORD PTR [eax+360]
	cmp	edx, DWORD PTR [ecx+16]
	jne	SHORT $LN2@clearCEsIf
	mov	ecx, DWORD PTR _this$[ebp]
	call	?clearCEs@CollationIterator@icu_56@@QAEXXZ ; icu_56::CollationIterator::clearCEs
$LN2@clearCEsIf:
; Line 193
	pop	edi
	pop	esi
	pop	ebx
	add	esp, 204				; 000000ccH
	cmp	ebp, esp
	call	__RTC_CheckEsp
	mov	esp, ebp
	pop	ebp
	ret	0
?clearCEsIfNoneRemaining@CollationIterator@icu_56@@QAEXXZ ENDP ; icu_56::CollationIterator::clearCEsIfNoneRemaining
_TEXT	ENDS
PUBLIC	??_GCollationIterator@icu_56@@UAEPAXI@Z		; icu_56::CollationIterator::`scalar deleting destructor'
EXTRN	__imp_??3UMemory@icu_56@@SAXPAX@Z:PROC
EXTRN	??1CollationIterator@icu_56@@UAE@XZ:PROC	; icu_56::CollationIterator::~CollationIterator
; Function compile flags: /Odtp /RTCsu /ZI
;	COMDAT ??_GCollationIterator@icu_56@@UAEPAXI@Z
_TEXT	SEGMENT
_this$ = -8						; size = 4
___flags$ = 8						; size = 4
??_GCollationIterator@icu_56@@UAEPAXI@Z PROC		; icu_56::CollationIterator::`scalar deleting destructor', COMDAT
; _this$ = ecx
	push	ebp
	mov	ebp, esp
	sub	esp, 204				; 000000ccH
	push	ebx
	push	esi
	push	edi
	push	ecx
	lea	edi, DWORD PTR [ebp-204]
	mov	ecx, 51					; 00000033H
	mov	eax, -858993460				; ccccccccH
	rep stosd
	pop	ecx
	mov	DWORD PTR _this$[ebp], ecx
	mov	ecx, DWORD PTR _this$[ebp]
	call	??1CollationIterator@icu_56@@UAE@XZ	; icu_56::CollationIterator::~CollationIterator
	mov	eax, DWORD PTR ___flags$[ebp]
	and	eax, 1
	je	SHORT $LN1@scalar
	mov	esi, esp
	mov	eax, DWORD PTR _this$[ebp]
	push	eax
	call	DWORD PTR __imp_??3UMemory@icu_56@@SAXPAX@Z
	add	esp, 4
	cmp	esi, esp
	call	__RTC_CheckEsp
$LN1@scalar:
	mov	eax, DWORD PTR _this$[ebp]
	pop	edi
	pop	esi
	pop	ebx
	add	esp, 204				; 000000ccH
	cmp	ebp, esp
	call	__RTC_CheckEsp
	mov	esp, ebp
	pop	ebp
	ret	4
??_GCollationIterator@icu_56@@UAEPAXI@Z ENDP		; icu_56::CollationIterator::`scalar deleting destructor'
_TEXT	ENDS
EXTRN	__imp_??_VUMemory@icu_56@@SAXPAX@Z:PROC
EXTRN	??_M@YGXPAXIHP6EX0@Z@Z:PROC			; `eh vector destructor iterator'
; Function compile flags: /Odtp /RTCsu /ZI
;	COMDAT ??_ECollationIterator@icu_56@@UAEPAXI@Z
_TEXT	SEGMENT
_this$ = -8						; size = 4
___flags$ = 8						; size = 4
??_ECollationIterator@icu_56@@UAEPAXI@Z PROC		; icu_56::CollationIterator::`vector deleting destructor', COMDAT
; _this$ = ecx
	push	ebp
	mov	ebp, esp
	sub	esp, 204				; 000000ccH
	push	ebx
	push	esi
	push	edi
	push	ecx
	lea	edi, DWORD PTR [ebp-204]
	mov	ecx, 51					; 00000033H
	mov	eax, -858993460				; ccccccccH
	rep stosd
	pop	ecx
	mov	DWORD PTR _this$[ebp], ecx
	mov	eax, DWORD PTR ___flags$[ebp]
	and	eax, 2
	je	SHORT $LN3@vector
	push	OFFSET ??1CollationIterator@icu_56@@UAE@XZ ; icu_56::CollationIterator::~CollationIterator
	mov	eax, DWORD PTR _this$[ebp]
	mov	ecx, DWORD PTR [eax-4]
	push	ecx
	push	376					; 00000178H
	mov	edx, DWORD PTR _this$[ebp]
	push	edx
	call	??_M@YGXPAXIHP6EX0@Z@Z
	mov	eax, DWORD PTR ___flags$[ebp]
	and	eax, 1
	je	SHORT $LN2@vector
	mov	eax, DWORD PTR _this$[ebp]
	sub	eax, 4
	mov	esi, esp
	push	eax
	call	DWORD PTR __imp_??_VUMemory@icu_56@@SAXPAX@Z
	add	esp, 4
	cmp	esi, esp
	call	__RTC_CheckEsp
$LN2@vector:
	mov	eax, DWORD PTR _this$[ebp]
	sub	eax, 4
	jmp	SHORT $LN4@vector
$LN3@vector:
	mov	ecx, DWORD PTR _this$[ebp]
	call	??1CollationIterator@icu_56@@UAE@XZ	; icu_56::CollationIterator::~CollationIterator
	mov	eax, DWORD PTR ___flags$[ebp]
	and	eax, 1
	je	SHORT $LN1@vector
	mov	esi, esp
	mov	eax, DWORD PTR _this$[ebp]
	push	eax
	call	DWORD PTR __imp_??3UMemory@icu_56@@SAXPAX@Z
	add	esp, 4
	cmp	esi, esp
	call	__RTC_CheckEsp
$LN1@vector:
	mov	eax, DWORD PTR _this$[ebp]
$LN4@vector:
	pop	edi
	pop	esi
	pop	ebx
	add	esp, 204				; 000000ccH
	cmp	ebp, esp
	call	__RTC_CheckEsp
	mov	esp, ebp
	pop	ebp
	ret	4
??_ECollationIterator@icu_56@@UAEPAXI@Z ENDP		; icu_56::CollationIterator::`vector deleting destructor'
_TEXT	ENDS
PUBLIC	??_7UTF16CollationIterator@icu_56@@6B@		; icu_56::UTF16CollationIterator::`vftable'
PUBLIC	??0UTF16CollationIterator@icu_56@@QAE@PBUCollationData@1@CPB_W11@Z ; icu_56::UTF16CollationIterator::UTF16CollationIterator
PUBLIC	??_R4UTF16CollationIterator@icu_56@@6B@		; icu_56::UTF16CollationIterator::`RTTI Complete Object Locator'
PUBLIC	??_R0?AVUTF16CollationIterator@icu_56@@@8	; icu_56::UTF16CollationIterator `RTTI Type Descriptor'
PUBLIC	??_R3UTF16CollationIterator@icu_56@@8		; icu_56::UTF16CollationIterator::`RTTI Class Hierarchy Descriptor'
PUBLIC	??_R2UTF16CollationIterator@icu_56@@8		; icu_56::UTF16CollationIterator::`RTTI Base Class Array'
PUBLIC	??_R1A@?0A@EA@UTF16CollationIterator@icu_56@@8	; icu_56::UTF16CollationIterator::`RTTI Base Class Descriptor at (0,-1,0,64)'
PUBLIC	??_EUTF16CollationIterator@icu_56@@UAEPAXI@Z	; icu_56::UTF16CollationIterator::`vector deleting destructor'
EXTRN	??8UTF16CollationIterator@icu_56@@UBECABVCollationIterator@1@@Z:PROC ; icu_56::UTF16CollationIterator::operator==
EXTRN	?resetToOffset@UTF16CollationIterator@icu_56@@UAEXH@Z:PROC ; icu_56::UTF16CollationIterator::resetToOffset
EXTRN	?getOffset@UTF16CollationIterator@icu_56@@UBEHXZ:PROC ; icu_56::UTF16CollationIterator::getOffset
EXTRN	?nextCodePoint@UTF16CollationIterator@icu_56@@UAEHAAW4UErrorCode@@@Z:PROC ; icu_56::UTF16CollationIterator::nextCodePoint
EXTRN	?previousCodePoint@UTF16CollationIterator@icu_56@@UAEHAAW4UErrorCode@@@Z:PROC ; icu_56::UTF16CollationIterator::previousCodePoint
EXTRN	?handleNextCE32@UTF16CollationIterator@icu_56@@MAEIAAHAAW4UErrorCode@@@Z:PROC ; icu_56::UTF16CollationIterator::handleNextCE32
EXTRN	?handleGetTrailSurrogate@UTF16CollationIterator@icu_56@@MAE_WXZ:PROC ; icu_56::UTF16CollationIterator::handleGetTrailSurrogate
EXTRN	?foundNULTerminator@UTF16CollationIterator@icu_56@@MAECXZ:PROC ; icu_56::UTF16CollationIterator::foundNULTerminator
EXTRN	?forwardNumCodePoints@UTF16CollationIterator@icu_56@@MAEXHAAW4UErrorCode@@@Z:PROC ; icu_56::UTF16CollationIterator::forwardNumCodePoints
EXTRN	?backwardNumCodePoints@UTF16CollationIterator@icu_56@@MAEXHAAW4UErrorCode@@@Z:PROC ; icu_56::UTF16CollationIterator::backwardNumCodePoints
;	COMDAT ??_R1A@?0A@EA@UTF16CollationIterator@icu_56@@8
; File d:\mozilla\intl\icu\source\i18n\utf16collationiterator.h
rdata$r	SEGMENT
??_R1A@?0A@EA@UTF16CollationIterator@icu_56@@8 DD FLAT:??_R0?AVUTF16CollationIterator@icu_56@@@8 ; icu_56::UTF16CollationIterator::`RTTI Base Class Descriptor at (0,-1,0,64)'
	DD	03H
	DD	00H
	DD	0ffffffffH
	DD	00H
	DD	040H
	DD	FLAT:??_R3UTF16CollationIterator@icu_56@@8
rdata$r	ENDS
;	COMDAT ??_R2UTF16CollationIterator@icu_56@@8
rdata$r	SEGMENT
??_R2UTF16CollationIterator@icu_56@@8 DD FLAT:??_R1A@?0A@EA@UTF16CollationIterator@icu_56@@8 ; icu_56::UTF16CollationIterator::`RTTI Base Class Array'
	DD	FLAT:??_R1A@?0A@EA@CollationIterator@icu_56@@8
	DD	FLAT:??_R1A@?0A@EA@UObject@icu_56@@8
	DD	FLAT:??_R13?0A@EA@UMemory@icu_56@@8
rdata$r	ENDS
;	COMDAT ??_R3UTF16CollationIterator@icu_56@@8
rdata$r	SEGMENT
??_R3UTF16CollationIterator@icu_56@@8 DD 00H		; icu_56::UTF16CollationIterator::`RTTI Class Hierarchy Descriptor'
	DD	00H
	DD	04H
	DD	FLAT:??_R2UTF16CollationIterator@icu_56@@8
rdata$r	ENDS
;	COMDAT ??_R0?AVUTF16CollationIterator@icu_56@@@8
_DATA	SEGMENT
??_R0?AVUTF16CollationIterator@icu_56@@@8 DD FLAT:??_7type_info@@6B@ ; icu_56::UTF16CollationIterator `RTTI Type Descriptor'
	DD	00H
	DB	'.?AVUTF16CollationIterator@icu_56@@', 00H
_DATA	ENDS
;	COMDAT ??_R4UTF16CollationIterator@icu_56@@6B@
rdata$r	SEGMENT
??_R4UTF16CollationIterator@icu_56@@6B@ DD 00H		; icu_56::UTF16CollationIterator::`RTTI Complete Object Locator'
	DD	00H
	DD	00H
	DD	FLAT:??_R0?AVUTF16CollationIterator@icu_56@@@8
	DD	FLAT:??_R3UTF16CollationIterator@icu_56@@8
rdata$r	ENDS
;	COMDAT ??_7UTF16CollationIterator@icu_56@@6B@
CONST	SEGMENT
??_7UTF16CollationIterator@icu_56@@6B@ DD FLAT:??_R4UTF16CollationIterator@icu_56@@6B@ ; icu_56::UTF16CollationIterator::`vftable'
	DD	FLAT:??_EUTF16CollationIterator@icu_56@@UAEPAXI@Z
	DD	FLAT:?getDynamicClassID@UObject@icu_56@@UBEPAXXZ
	DD	FLAT:??8UTF16CollationIterator@icu_56@@UBECABVCollationIterator@1@@Z
	DD	FLAT:?resetToOffset@UTF16CollationIterator@icu_56@@UAEXH@Z
	DD	FLAT:?getOffset@UTF16CollationIterator@icu_56@@UBEHXZ
	DD	FLAT:?nextCodePoint@UTF16CollationIterator@icu_56@@UAEHAAW4UErrorCode@@@Z
	DD	FLAT:?previousCodePoint@UTF16CollationIterator@icu_56@@UAEHAAW4UErrorCode@@@Z
	DD	FLAT:?handleNextCE32@UTF16CollationIterator@icu_56@@MAEIAAHAAW4UErrorCode@@@Z
	DD	FLAT:?handleGetTrailSurrogate@UTF16CollationIterator@icu_56@@MAE_WXZ
	DD	FLAT:?foundNULTerminator@UTF16CollationIterator@icu_56@@MAECXZ
	DD	FLAT:?forbidSurrogateCodePoints@CollationIterator@icu_56@@MBECXZ
	DD	FLAT:?forwardNumCodePoints@UTF16CollationIterator@icu_56@@MAEXHAAW4UErrorCode@@@Z
	DD	FLAT:?backwardNumCodePoints@UTF16CollationIterator@icu_56@@MAEXHAAW4UErrorCode@@@Z
	DD	FLAT:?getDataCE32@CollationIterator@icu_56@@MBEIH@Z
	DD	FLAT:?getCE32FromBuilderData@CollationIterator@icu_56@@MAEIIAAW4UErrorCode@@@Z
; Function compile flags: /Odtp /RTCsu /ZI
CONST	ENDS
;	COMDAT ??0UTF16CollationIterator@icu_56@@QAE@PBUCollationData@1@CPB_W11@Z
_TEXT	SEGMENT
_this$ = -8						; size = 4
_d$ = 8							; size = 4
_numeric$ = 12						; size = 1
_s$ = 16						; size = 4
_p$ = 20						; size = 4
_lim$ = 24						; size = 4
??0UTF16CollationIterator@icu_56@@QAE@PBUCollationData@1@CPB_W11@Z PROC ; icu_56::UTF16CollationIterator::UTF16CollationIterator, COMDAT
; _this$ = ecx
; Line 37
	push	ebp
	mov	ebp, esp
	sub	esp, 204				; 000000ccH
	push	ebx
	push	esi
	push	edi
	push	ecx
	lea	edi, DWORD PTR [ebp-204]
	mov	ecx, 51					; 00000033H
	mov	eax, -858993460				; ccccccccH
	rep stosd
	pop	ecx
	mov	DWORD PTR _this$[ebp], ecx
	movzx	eax, BYTE PTR _numeric$[ebp]
	push	eax
	mov	ecx, DWORD PTR _d$[ebp]
	push	ecx
	mov	ecx, DWORD PTR _this$[ebp]
	call	??0CollationIterator@icu_56@@QAE@PBUCollationData@1@C@Z ; icu_56::CollationIterator::CollationIterator
	mov	eax, DWORD PTR _this$[ebp]
	mov	DWORD PTR [eax], OFFSET ??_7UTF16CollationIterator@icu_56@@6B@
	mov	eax, DWORD PTR _this$[ebp]
	mov	ecx, DWORD PTR _s$[ebp]
	mov	DWORD PTR [eax+376], ecx
	mov	eax, DWORD PTR _this$[ebp]
	mov	ecx, DWORD PTR _p$[ebp]
	mov	DWORD PTR [eax+380], ecx
	mov	eax, DWORD PTR _this$[ebp]
	mov	ecx, DWORD PTR _lim$[ebp]
	mov	DWORD PTR [eax+384], ecx
	mov	eax, DWORD PTR _this$[ebp]
	pop	edi
	pop	esi
	pop	ebx
	add	esp, 204				; 000000ccH
	cmp	ebp, esp
	call	__RTC_CheckEsp
	mov	esp, ebp
	pop	ebp
	ret	20					; 00000014H
??0UTF16CollationIterator@icu_56@@QAE@PBUCollationData@1@CPB_W11@Z ENDP ; icu_56::UTF16CollationIterator::UTF16CollationIterator
_TEXT	ENDS
PUBLIC	?setText@UTF16CollationIterator@icu_56@@QAEXPB_W0@Z ; icu_56::UTF16CollationIterator::setText
EXTRN	?reset@CollationIterator@icu_56@@IAEXXZ:PROC	; icu_56::CollationIterator::reset
; Function compile flags: /Odtp /RTCsu /ZI
;	COMDAT ?setText@UTF16CollationIterator@icu_56@@QAEXPB_W0@Z
_TEXT	SEGMENT
_this$ = -8						; size = 4
_s$ = 8							; size = 4
_lim$ = 12						; size = 4
?setText@UTF16CollationIterator@icu_56@@QAEXPB_W0@Z PROC ; icu_56::UTF16CollationIterator::setText, COMDAT
; _this$ = ecx
; Line 49
	push	ebp
	mov	ebp, esp
	sub	esp, 204				; 000000ccH
	push	ebx
	push	esi
	push	edi
	push	ecx
	lea	edi, DWORD PTR [ebp-204]
	mov	ecx, 51					; 00000033H
	mov	eax, -858993460				; ccccccccH
	rep stosd
	pop	ecx
	mov	DWORD PTR _this$[ebp], ecx
; Line 50
	mov	ecx, DWORD PTR _this$[ebp]
	call	?reset@CollationIterator@icu_56@@IAEXXZ	; icu_56::CollationIterator::reset
; Line 51
	mov	eax, DWORD PTR _this$[ebp]
	mov	ecx, DWORD PTR _s$[ebp]
	mov	DWORD PTR [eax+380], ecx
	mov	edx, DWORD PTR _this$[ebp]
	mov	eax, DWORD PTR _s$[ebp]
	mov	DWORD PTR [edx+376], eax
; Line 52
	mov	eax, DWORD PTR _this$[ebp]
	mov	ecx, DWORD PTR _lim$[ebp]
	mov	DWORD PTR [eax+384], ecx
; Line 53
	pop	edi
	pop	esi
	pop	ebx
	add	esp, 204				; 000000ccH
	cmp	ebp, esp
	call	__RTC_CheckEsp
	mov	esp, ebp
	pop	ebp
	ret	8
?setText@UTF16CollationIterator@icu_56@@QAEXPB_W0@Z ENDP ; icu_56::UTF16CollationIterator::setText
_TEXT	ENDS
PUBLIC	??0UTF16CollationIterator@icu_56@@IAE@ABV01@@Z	; icu_56::UTF16CollationIterator::UTF16CollationIterator
EXTRN	??0CollationIterator@icu_56@@IAE@ABV01@@Z:PROC	; icu_56::CollationIterator::CollationIterator
; Function compile flags: /Odtp /RTCsu /ZI
;	COMDAT ??0UTF16CollationIterator@icu_56@@IAE@ABV01@@Z
_TEXT	SEGMENT
_this$ = -8						; size = 4
_other$ = 8						; size = 4
??0UTF16CollationIterator@icu_56@@IAE@ABV01@@Z PROC	; icu_56::UTF16CollationIterator::UTF16CollationIterator, COMDAT
; _this$ = ecx
; Line 63
	push	ebp
	mov	ebp, esp
	sub	esp, 204				; 000000ccH
	push	ebx
	push	esi
	push	edi
	push	ecx
	lea	edi, DWORD PTR [ebp-204]
	mov	ecx, 51					; 00000033H
	mov	eax, -858993460				; ccccccccH
	rep stosd
	pop	ecx
	mov	DWORD PTR _this$[ebp], ecx
	mov	eax, DWORD PTR _other$[ebp]
	push	eax
	mov	ecx, DWORD PTR _this$[ebp]
	call	??0CollationIterator@icu_56@@IAE@ABV01@@Z ; icu_56::CollationIterator::CollationIterator
	mov	eax, DWORD PTR _this$[ebp]
	mov	DWORD PTR [eax], OFFSET ??_7UTF16CollationIterator@icu_56@@6B@
	mov	eax, DWORD PTR _this$[ebp]
	mov	DWORD PTR [eax+376], 0
	mov	eax, DWORD PTR _this$[ebp]
	mov	DWORD PTR [eax+380], 0
	mov	eax, DWORD PTR _this$[ebp]
	mov	DWORD PTR [eax+384], 0
	mov	eax, DWORD PTR _this$[ebp]
	pop	edi
	pop	esi
	pop	ebx
	add	esp, 204				; 000000ccH
	cmp	ebp, esp
	call	__RTC_CheckEsp
	mov	esp, ebp
	pop	ebp
	ret	4
??0UTF16CollationIterator@icu_56@@IAE@ABV01@@Z ENDP	; icu_56::UTF16CollationIterator::UTF16CollationIterator
_TEXT	ENDS
PUBLIC	??_GUTF16CollationIterator@icu_56@@UAEPAXI@Z	; icu_56::UTF16CollationIterator::`scalar deleting destructor'
EXTRN	??1UTF16CollationIterator@icu_56@@UAE@XZ:PROC	; icu_56::UTF16CollationIterator::~UTF16CollationIterator
; Function compile flags: /Odtp /RTCsu /ZI
;	COMDAT ??_GUTF16CollationIterator@icu_56@@UAEPAXI@Z
_TEXT	SEGMENT
_this$ = -8						; size = 4
___flags$ = 8						; size = 4
??_GUTF16CollationIterator@icu_56@@UAEPAXI@Z PROC	; icu_56::UTF16CollationIterator::`scalar deleting destructor', COMDAT
; _this$ = ecx
	push	ebp
	mov	ebp, esp
	sub	esp, 204				; 000000ccH
	push	ebx
	push	esi
	push	edi
	push	ecx
	lea	edi, DWORD PTR [ebp-204]
	mov	ecx, 51					; 00000033H
	mov	eax, -858993460				; ccccccccH
	rep stosd
	pop	ecx
	mov	DWORD PTR _this$[ebp], ecx
	mov	ecx, DWORD PTR _this$[ebp]
	call	??1UTF16CollationIterator@icu_56@@UAE@XZ ; icu_56::UTF16CollationIterator::~UTF16CollationIterator
	mov	eax, DWORD PTR ___flags$[ebp]
	and	eax, 1
	je	SHORT $LN1@scalar@2
	mov	esi, esp
	mov	eax, DWORD PTR _this$[ebp]
	push	eax
	call	DWORD PTR __imp_??3UMemory@icu_56@@SAXPAX@Z
	add	esp, 4
	cmp	esi, esp
	call	__RTC_CheckEsp
$LN1@scalar@2:
	mov	eax, DWORD PTR _this$[ebp]
	pop	edi
	pop	esi
	pop	ebx
	add	esp, 204				; 000000ccH
	cmp	ebp, esp
	call	__RTC_CheckEsp
	mov	esp, ebp
	pop	ebp
	ret	4
??_GUTF16CollationIterator@icu_56@@UAEPAXI@Z ENDP	; icu_56::UTF16CollationIterator::`scalar deleting destructor'
; Function compile flags: /Odtp /RTCsu /ZI
_TEXT	ENDS
;	COMDAT ??_EUTF16CollationIterator@icu_56@@UAEPAXI@Z
_TEXT	SEGMENT
_this$ = -8						; size = 4
___flags$ = 8						; size = 4
??_EUTF16CollationIterator@icu_56@@UAEPAXI@Z PROC	; icu_56::UTF16CollationIterator::`vector deleting destructor', COMDAT
; _this$ = ecx
	push	ebp
	mov	ebp, esp
	sub	esp, 204				; 000000ccH
	push	ebx
	push	esi
	push	edi
	push	ecx
	lea	edi, DWORD PTR [ebp-204]
	mov	ecx, 51					; 00000033H
	mov	eax, -858993460				; ccccccccH
	rep stosd
	pop	ecx
	mov	DWORD PTR _this$[ebp], ecx
	mov	eax, DWORD PTR ___flags$[ebp]
	and	eax, 2
	je	SHORT $LN3@vector@2
	push	OFFSET ??1UTF16CollationIterator@icu_56@@UAE@XZ ; icu_56::UTF16CollationIterator::~UTF16CollationIterator
	mov	eax, DWORD PTR _this$[ebp]
	mov	ecx, DWORD PTR [eax-4]
	push	ecx
	push	392					; 00000188H
	mov	edx, DWORD PTR _this$[ebp]
	push	edx
	call	??_M@YGXPAXIHP6EX0@Z@Z
	mov	eax, DWORD PTR ___flags$[ebp]
	and	eax, 1
	je	SHORT $LN2@vector@2
	mov	eax, DWORD PTR _this$[ebp]
	sub	eax, 4
	mov	esi, esp
	push	eax
	call	DWORD PTR __imp_??_VUMemory@icu_56@@SAXPAX@Z
	add	esp, 4
	cmp	esi, esp
	call	__RTC_CheckEsp
$LN2@vector@2:
	mov	eax, DWORD PTR _this$[ebp]
	sub	eax, 4
	jmp	SHORT $LN4@vector@2
$LN3@vector@2:
	mov	ecx, DWORD PTR _this$[ebp]
	call	??1UTF16CollationIterator@icu_56@@UAE@XZ ; icu_56::UTF16CollationIterator::~UTF16CollationIterator
	mov	eax, DWORD PTR ___flags$[ebp]
	and	eax, 1
	je	SHORT $LN1@vector@2
	mov	esi, esp
	mov	eax, DWORD PTR _this$[ebp]
	push	eax
	call	DWORD PTR __imp_??3UMemory@icu_56@@SAXPAX@Z
	add	esp, 4
	cmp	esi, esp
	call	__RTC_CheckEsp
$LN1@vector@2:
	mov	eax, DWORD PTR _this$[ebp]
$LN4@vector@2:
	pop	edi
	pop	esi
	pop	ebx
	add	esp, 204				; 000000ccH
	cmp	ebp, esp
	call	__RTC_CheckEsp
	mov	esp, ebp
	pop	ebp
	ret	4
??_EUTF16CollationIterator@icu_56@@UAEPAXI@Z ENDP	; icu_56::UTF16CollationIterator::`vector deleting destructor'
_TEXT	ENDS
PUBLIC	??_7FCDUTF16CollationIterator@icu_56@@6B@	; icu_56::FCDUTF16CollationIterator::`vftable'
PUBLIC	??0FCDUTF16CollationIterator@icu_56@@QAE@PBUCollationData@1@CPB_W11@Z ; icu_56::FCDUTF16CollationIterator::FCDUTF16CollationIterator
PUBLIC	??_R4FCDUTF16CollationIterator@icu_56@@6B@	; icu_56::FCDUTF16CollationIterator::`RTTI Complete Object Locator'
PUBLIC	??_R0?AVFCDUTF16CollationIterator@icu_56@@@8	; icu_56::FCDUTF16CollationIterator `RTTI Type Descriptor'
PUBLIC	??_R3FCDUTF16CollationIterator@icu_56@@8	; icu_56::FCDUTF16CollationIterator::`RTTI Class Hierarchy Descriptor'
PUBLIC	??_R2FCDUTF16CollationIterator@icu_56@@8	; icu_56::FCDUTF16CollationIterator::`RTTI Base Class Array'
PUBLIC	??_R1A@?0A@EA@FCDUTF16CollationIterator@icu_56@@8 ; icu_56::FCDUTF16CollationIterator::`RTTI Base Class Descriptor at (0,-1,0,64)'
PUBLIC	??_EFCDUTF16CollationIterator@icu_56@@UAEPAXI@Z	; icu_56::FCDUTF16CollationIterator::`vector deleting destructor'
EXTRN	__imp_??0UnicodeString@icu_56@@QAE@XZ:PROC
EXTRN	??8FCDUTF16CollationIterator@icu_56@@UBECABVCollationIterator@1@@Z:PROC ; icu_56::FCDUTF16CollationIterator::operator==
EXTRN	?resetToOffset@FCDUTF16CollationIterator@icu_56@@UAEXH@Z:PROC ; icu_56::FCDUTF16CollationIterator::resetToOffset
EXTRN	?getOffset@FCDUTF16CollationIterator@icu_56@@UBEHXZ:PROC ; icu_56::FCDUTF16CollationIterator::getOffset
EXTRN	?nextCodePoint@FCDUTF16CollationIterator@icu_56@@UAEHAAW4UErrorCode@@@Z:PROC ; icu_56::FCDUTF16CollationIterator::nextCodePoint
EXTRN	?previousCodePoint@FCDUTF16CollationIterator@icu_56@@UAEHAAW4UErrorCode@@@Z:PROC ; icu_56::FCDUTF16CollationIterator::previousCodePoint
EXTRN	?handleNextCE32@FCDUTF16CollationIterator@icu_56@@MAEIAAHAAW4UErrorCode@@@Z:PROC ; icu_56::FCDUTF16CollationIterator::handleNextCE32
EXTRN	?foundNULTerminator@FCDUTF16CollationIterator@icu_56@@MAECXZ:PROC ; icu_56::FCDUTF16CollationIterator::foundNULTerminator
EXTRN	?forwardNumCodePoints@FCDUTF16CollationIterator@icu_56@@MAEXHAAW4UErrorCode@@@Z:PROC ; icu_56::FCDUTF16CollationIterator::forwardNumCodePoints
EXTRN	?backwardNumCodePoints@FCDUTF16CollationIterator@icu_56@@MAEXHAAW4UErrorCode@@@Z:PROC ; icu_56::FCDUTF16CollationIterator::backwardNumCodePoints
;	COMDAT ??_R1A@?0A@EA@FCDUTF16CollationIterator@icu_56@@8
rdata$r	SEGMENT
??_R1A@?0A@EA@FCDUTF16CollationIterator@icu_56@@8 DD FLAT:??_R0?AVFCDUTF16CollationIterator@icu_56@@@8 ; icu_56::FCDUTF16CollationIterator::`RTTI Base Class Descriptor at (0,-1,0,64)'
	DD	04H
	DD	00H
	DD	0ffffffffH
	DD	00H
	DD	040H
	DD	FLAT:??_R3FCDUTF16CollationIterator@icu_56@@8
rdata$r	ENDS
;	COMDAT ??_R2FCDUTF16CollationIterator@icu_56@@8
rdata$r	SEGMENT
??_R2FCDUTF16CollationIterator@icu_56@@8 DD FLAT:??_R1A@?0A@EA@FCDUTF16CollationIterator@icu_56@@8 ; icu_56::FCDUTF16CollationIterator::`RTTI Base Class Array'
	DD	FLAT:??_R1A@?0A@EA@UTF16CollationIterator@icu_56@@8
	DD	FLAT:??_R1A@?0A@EA@CollationIterator@icu_56@@8
	DD	FLAT:??_R1A@?0A@EA@UObject@icu_56@@8
	DD	FLAT:??_R13?0A@EA@UMemory@icu_56@@8
rdata$r	ENDS
;	COMDAT ??_R3FCDUTF16CollationIterator@icu_56@@8
rdata$r	SEGMENT
??_R3FCDUTF16CollationIterator@icu_56@@8 DD 00H		; icu_56::FCDUTF16CollationIterator::`RTTI Class Hierarchy Descriptor'
	DD	00H
	DD	05H
	DD	FLAT:??_R2FCDUTF16CollationIterator@icu_56@@8
rdata$r	ENDS
;	COMDAT ??_R0?AVFCDUTF16CollationIterator@icu_56@@@8
_DATA	SEGMENT
??_R0?AVFCDUTF16CollationIterator@icu_56@@@8 DD FLAT:??_7type_info@@6B@ ; icu_56::FCDUTF16CollationIterator `RTTI Type Descriptor'
	DD	00H
	DB	'.?AVFCDUTF16CollationIterator@icu_56@@', 00H
_DATA	ENDS
;	COMDAT ??_R4FCDUTF16CollationIterator@icu_56@@6B@
rdata$r	SEGMENT
??_R4FCDUTF16CollationIterator@icu_56@@6B@ DD 00H	; icu_56::FCDUTF16CollationIterator::`RTTI Complete Object Locator'
	DD	00H
	DD	00H
	DD	FLAT:??_R0?AVFCDUTF16CollationIterator@icu_56@@@8
	DD	FLAT:??_R3FCDUTF16CollationIterator@icu_56@@8
rdata$r	ENDS
;	COMDAT ??_7FCDUTF16CollationIterator@icu_56@@6B@
CONST	SEGMENT
??_7FCDUTF16CollationIterator@icu_56@@6B@ DD FLAT:??_R4FCDUTF16CollationIterator@icu_56@@6B@ ; icu_56::FCDUTF16CollationIterator::`vftable'
	DD	FLAT:??_EFCDUTF16CollationIterator@icu_56@@UAEPAXI@Z
	DD	FLAT:?getDynamicClassID@UObject@icu_56@@UBEPAXXZ
	DD	FLAT:??8FCDUTF16CollationIterator@icu_56@@UBECABVCollationIterator@1@@Z
	DD	FLAT:?resetToOffset@FCDUTF16CollationIterator@icu_56@@UAEXH@Z
	DD	FLAT:?getOffset@FCDUTF16CollationIterator@icu_56@@UBEHXZ
	DD	FLAT:?nextCodePoint@FCDUTF16CollationIterator@icu_56@@UAEHAAW4UErrorCode@@@Z
	DD	FLAT:?previousCodePoint@FCDUTF16CollationIterator@icu_56@@UAEHAAW4UErrorCode@@@Z
	DD	FLAT:?handleNextCE32@FCDUTF16CollationIterator@icu_56@@MAEIAAHAAW4UErrorCode@@@Z
	DD	FLAT:?handleGetTrailSurrogate@UTF16CollationIterator@icu_56@@MAE_WXZ
	DD	FLAT:?foundNULTerminator@FCDUTF16CollationIterator@icu_56@@MAECXZ
	DD	FLAT:?forbidSurrogateCodePoints@CollationIterator@icu_56@@MBECXZ
	DD	FLAT:?forwardNumCodePoints@FCDUTF16CollationIterator@icu_56@@MAEXHAAW4UErrorCode@@@Z
	DD	FLAT:?backwardNumCodePoints@FCDUTF16CollationIterator@icu_56@@MAEXHAAW4UErrorCode@@@Z
	DD	FLAT:?getDataCE32@CollationIterator@icu_56@@MBEIH@Z
	DD	FLAT:?getCE32FromBuilderData@CollationIterator@icu_56@@MAEIIAAW4UErrorCode@@@Z
CONST	ENDS
;	COMDAT xdata$x
xdata$x	SEGMENT
__unwindtable$??0FCDUTF16CollationIterator@icu_56@@QAE@PBUCollationData@1@CPB_W11@Z DD 0ffffffffH
	DD	FLAT:__unwindfunclet$??0FCDUTF16CollationIterator@icu_56@@QAE@PBUCollationData@1@CPB_W11@Z$0
__ehfuncinfo$??0FCDUTF16CollationIterator@icu_56@@QAE@PBUCollationData@1@CPB_W11@Z DD 019930522H
	DD	01H
	DD	FLAT:__unwindtable$??0FCDUTF16CollationIterator@icu_56@@QAE@PBUCollationData@1@CPB_W11@Z
	DD	2 DUP(00H)
	DD	2 DUP(00H)
	DD	00H
	DD	01H
; Function compile flags: /Odtp /RTCsu /ZI
xdata$x	ENDS
;	COMDAT ??0FCDUTF16CollationIterator@icu_56@@QAE@PBUCollationData@1@CPB_W11@Z
_TEXT	SEGMENT
_this$ = -20						; size = 4
__$EHRec$ = -12						; size = 12
_data$ = 8						; size = 4
_numeric$ = 12						; size = 1
_s$ = 16						; size = 4
_p$ = 20						; size = 4
_lim$ = 24						; size = 4
??0FCDUTF16CollationIterator@icu_56@@QAE@PBUCollationData@1@CPB_W11@Z PROC ; icu_56::FCDUTF16CollationIterator::FCDUTF16CollationIterator, COMDAT
; _this$ = ecx
; Line 90
	push	ebp
	mov	ebp, esp
	push	-1
	push	__ehhandler$??0FCDUTF16CollationIterator@icu_56@@QAE@PBUCollationData@1@CPB_W11@Z
	mov	eax, DWORD PTR fs:0
	push	eax
	sub	esp, 204				; 000000ccH
	push	ebx
	push	esi
	push	edi
	push	ecx
	lea	edi, DWORD PTR [ebp-216]
	mov	ecx, 51					; 00000033H
	mov	eax, -858993460				; ccccccccH
	rep stosd
	pop	ecx
	mov	eax, DWORD PTR ___security_cookie
	xor	eax, ebp
	push	eax
	lea	eax, DWORD PTR __$EHRec$[ebp]
	mov	DWORD PTR fs:0, eax
	mov	DWORD PTR _this$[ebp], ecx
	mov	eax, DWORD PTR _lim$[ebp]
	push	eax
	mov	ecx, DWORD PTR _p$[ebp]
	push	ecx
	mov	edx, DWORD PTR _s$[ebp]
	push	edx
	movzx	eax, BYTE PTR _numeric$[ebp]
	push	eax
	mov	ecx, DWORD PTR _data$[ebp]
	push	ecx
	mov	ecx, DWORD PTR _this$[ebp]
	call	??0UTF16CollationIterator@icu_56@@QAE@PBUCollationData@1@CPB_W11@Z ; icu_56::UTF16CollationIterator::UTF16CollationIterator
	mov	DWORD PTR __$EHRec$[ebp+8], 0
	mov	eax, DWORD PTR _this$[ebp]
	mov	DWORD PTR [eax], OFFSET ??_7FCDUTF16CollationIterator@icu_56@@6B@
	mov	eax, DWORD PTR _this$[ebp]
	mov	ecx, DWORD PTR _s$[ebp]
	mov	DWORD PTR [eax+392], ecx
	mov	eax, DWORD PTR _this$[ebp]
	mov	ecx, DWORD PTR _p$[ebp]
	mov	DWORD PTR [eax+396], ecx
	mov	eax, DWORD PTR _this$[ebp]
	mov	DWORD PTR [eax+400], 0
	mov	eax, DWORD PTR _this$[ebp]
	mov	ecx, DWORD PTR _lim$[ebp]
	mov	DWORD PTR [eax+404], ecx
	mov	eax, DWORD PTR _this$[ebp]
	mov	ecx, DWORD PTR _data$[ebp]
	mov	edx, DWORD PTR [ecx+24]
	mov	DWORD PTR [eax+408], edx
	mov	ecx, DWORD PTR _this$[ebp]
	add	ecx, 412				; 0000019cH
	mov	esi, esp
	call	DWORD PTR __imp_??0UnicodeString@icu_56@@QAE@XZ
	cmp	esi, esp
	call	__RTC_CheckEsp
	mov	eax, DWORD PTR _this$[ebp]
	mov	BYTE PTR [eax+476], 1
	mov	DWORD PTR __$EHRec$[ebp+8], -1
	mov	eax, DWORD PTR _this$[ebp]
	mov	ecx, DWORD PTR __$EHRec$[ebp]
	mov	DWORD PTR fs:0, ecx
	pop	ecx
	pop	edi
	pop	esi
	pop	ebx
	add	esp, 216				; 000000d8H
	cmp	ebp, esp
	call	__RTC_CheckEsp
	mov	esp, ebp
	pop	ebp
	ret	20					; 00000014H
_TEXT	ENDS
;	COMDAT text$x
text$x	SEGMENT
__unwindfunclet$??0FCDUTF16CollationIterator@icu_56@@QAE@PBUCollationData@1@CPB_W11@Z$0:
	mov	ecx, DWORD PTR _this$[ebp]
	jmp	??1UTF16CollationIterator@icu_56@@UAE@XZ ; icu_56::UTF16CollationIterator::~UTF16CollationIterator
__ehhandler$??0FCDUTF16CollationIterator@icu_56@@QAE@PBUCollationData@1@CPB_W11@Z:
	mov	edx, DWORD PTR [esp+8]
	lea	eax, DWORD PTR [edx+12]
	mov	ecx, DWORD PTR [edx-220]
	xor	ecx, eax
	call	@__security_check_cookie@4
	mov	eax, OFFSET __ehfuncinfo$??0FCDUTF16CollationIterator@icu_56@@QAE@PBUCollationData@1@CPB_W11@Z
	jmp	___CxxFrameHandler3
text$x	ENDS
??0FCDUTF16CollationIterator@icu_56@@QAE@PBUCollationData@1@CPB_W11@Z ENDP ; icu_56::FCDUTF16CollationIterator::FCDUTF16CollationIterator
PUBLIC	??0FCDUTF16CollationIterator@icu_56@@QAE@ABV01@@Z ; icu_56::FCDUTF16CollationIterator::FCDUTF16CollationIterator
EXTRN	__imp_??0UnicodeString@icu_56@@QAE@ABV01@@Z:PROC
;	COMDAT xdata$x
xdata$x	SEGMENT
__unwindtable$??0FCDUTF16CollationIterator@icu_56@@QAE@ABV01@@Z DD 0ffffffffH
	DD	FLAT:__unwindfunclet$??0FCDUTF16CollationIterator@icu_56@@QAE@ABV01@@Z$0
__ehfuncinfo$??0FCDUTF16CollationIterator@icu_56@@QAE@ABV01@@Z DD 019930522H
	DD	01H
	DD	FLAT:__unwindtable$??0FCDUTF16CollationIterator@icu_56@@QAE@ABV01@@Z
	DD	2 DUP(00H)
	DD	2 DUP(00H)
	DD	00H
	DD	01H
; Function compile flags: /Odtp /RTCsu /ZI
xdata$x	ENDS
;	COMDAT ??0FCDUTF16CollationIterator@icu_56@@QAE@ABV01@@Z
_TEXT	SEGMENT
_this$ = -20						; size = 4
__$EHRec$ = -12						; size = 12
___that$ = 8						; size = 4
??0FCDUTF16CollationIterator@icu_56@@QAE@ABV01@@Z PROC	; icu_56::FCDUTF16CollationIterator::FCDUTF16CollationIterator, COMDAT
; _this$ = ecx
	push	ebp
	mov	ebp, esp
	push	-1
	push	__ehhandler$??0FCDUTF16CollationIterator@icu_56@@QAE@ABV01@@Z
	mov	eax, DWORD PTR fs:0
	push	eax
	sub	esp, 204				; 000000ccH
	push	ebx
	push	esi
	push	edi
	push	ecx
	lea	edi, DWORD PTR [ebp-216]
	mov	ecx, 51					; 00000033H
	mov	eax, -858993460				; ccccccccH
	rep stosd
	pop	ecx
	mov	eax, DWORD PTR ___security_cookie
	xor	eax, ebp
	push	eax
	lea	eax, DWORD PTR __$EHRec$[ebp]
	mov	DWORD PTR fs:0, eax
	mov	DWORD PTR _this$[ebp], ecx
	mov	eax, DWORD PTR ___that$[ebp]
	push	eax
	mov	ecx, DWORD PTR _this$[ebp]
	call	??0UTF16CollationIterator@icu_56@@IAE@ABV01@@Z ; icu_56::UTF16CollationIterator::UTF16CollationIterator
	mov	DWORD PTR __$EHRec$[ebp+8], 0
	mov	eax, DWORD PTR _this$[ebp]
	mov	DWORD PTR [eax], OFFSET ??_7FCDUTF16CollationIterator@icu_56@@6B@
	mov	eax, DWORD PTR _this$[ebp]
	mov	ecx, DWORD PTR ___that$[ebp]
	mov	edx, DWORD PTR [ecx+392]
	mov	DWORD PTR [eax+392], edx
	mov	eax, DWORD PTR _this$[ebp]
	mov	ecx, DWORD PTR ___that$[ebp]
	mov	edx, DWORD PTR [ecx+396]
	mov	DWORD PTR [eax+396], edx
	mov	eax, DWORD PTR _this$[ebp]
	mov	ecx, DWORD PTR ___that$[ebp]
	mov	edx, DWORD PTR [ecx+400]
	mov	DWORD PTR [eax+400], edx
	mov	eax, DWORD PTR _this$[ebp]
	mov	ecx, DWORD PTR ___that$[ebp]
	mov	edx, DWORD PTR [ecx+404]
	mov	DWORD PTR [eax+404], edx
	mov	eax, DWORD PTR _this$[ebp]
	mov	ecx, DWORD PTR ___that$[ebp]
	mov	edx, DWORD PTR [ecx+408]
	mov	DWORD PTR [eax+408], edx
	mov	eax, DWORD PTR ___that$[ebp]
	add	eax, 412				; 0000019cH
	mov	esi, esp
	push	eax
	mov	ecx, DWORD PTR _this$[ebp]
	add	ecx, 412				; 0000019cH
	call	DWORD PTR __imp_??0UnicodeString@icu_56@@QAE@ABV01@@Z
	cmp	esi, esp
	call	__RTC_CheckEsp
	mov	eax, DWORD PTR _this$[ebp]
	mov	ecx, DWORD PTR ___that$[ebp]
	mov	dl, BYTE PTR [ecx+476]
	mov	BYTE PTR [eax+476], dl
	mov	DWORD PTR __$EHRec$[ebp+8], -1
	mov	eax, DWORD PTR _this$[ebp]
	mov	ecx, DWORD PTR __$EHRec$[ebp]
	mov	DWORD PTR fs:0, ecx
	pop	ecx
	pop	edi
	pop	esi
	pop	ebx
	add	esp, 216				; 000000d8H
	cmp	ebp, esp
	call	__RTC_CheckEsp
	mov	esp, ebp
	pop	ebp
	ret	4
_TEXT	ENDS
;	COMDAT text$x
text$x	SEGMENT
__unwindfunclet$??0FCDUTF16CollationIterator@icu_56@@QAE@ABV01@@Z$0:
	mov	ecx, DWORD PTR _this$[ebp]
	jmp	??1UTF16CollationIterator@icu_56@@UAE@XZ ; icu_56::UTF16CollationIterator::~UTF16CollationIterator
__ehhandler$??0FCDUTF16CollationIterator@icu_56@@QAE@ABV01@@Z:
	mov	edx, DWORD PTR [esp+8]
	lea	eax, DWORD PTR [edx+12]
	mov	ecx, DWORD PTR [edx-220]
	xor	ecx, eax
	call	@__security_check_cookie@4
	mov	eax, OFFSET __ehfuncinfo$??0FCDUTF16CollationIterator@icu_56@@QAE@ABV01@@Z
	jmp	___CxxFrameHandler3
text$x	ENDS
??0FCDUTF16CollationIterator@icu_56@@QAE@ABV01@@Z ENDP	; icu_56::FCDUTF16CollationIterator::FCDUTF16CollationIterator
PUBLIC	??_GFCDUTF16CollationIterator@icu_56@@UAEPAXI@Z	; icu_56::FCDUTF16CollationIterator::`scalar deleting destructor'
EXTRN	??1FCDUTF16CollationIterator@icu_56@@UAE@XZ:PROC ; icu_56::FCDUTF16CollationIterator::~FCDUTF16CollationIterator
; Function compile flags: /Odtp /RTCsu /ZI
;	COMDAT ??_GFCDUTF16CollationIterator@icu_56@@UAEPAXI@Z
_TEXT	SEGMENT
_this$ = -8						; size = 4
___flags$ = 8						; size = 4
??_GFCDUTF16CollationIterator@icu_56@@UAEPAXI@Z PROC	; icu_56::FCDUTF16CollationIterator::`scalar deleting destructor', COMDAT
; _this$ = ecx
	push	ebp
	mov	ebp, esp
	sub	esp, 204				; 000000ccH
	push	ebx
	push	esi
	push	edi
	push	ecx
	lea	edi, DWORD PTR [ebp-204]
	mov	ecx, 51					; 00000033H
	mov	eax, -858993460				; ccccccccH
	rep stosd
	pop	ecx
	mov	DWORD PTR _this$[ebp], ecx
	mov	ecx, DWORD PTR _this$[ebp]
	call	??1FCDUTF16CollationIterator@icu_56@@UAE@XZ ; icu_56::FCDUTF16CollationIterator::~FCDUTF16CollationIterator
	mov	eax, DWORD PTR ___flags$[ebp]
	and	eax, 1
	je	SHORT $LN1@scalar@3
	mov	esi, esp
	mov	eax, DWORD PTR _this$[ebp]
	push	eax
	call	DWORD PTR __imp_??3UMemory@icu_56@@SAXPAX@Z
	add	esp, 4
	cmp	esi, esp
	call	__RTC_CheckEsp
$LN1@scalar@3:
	mov	eax, DWORD PTR _this$[ebp]
	pop	edi
	pop	esi
	pop	ebx
	add	esp, 204				; 000000ccH
	cmp	ebp, esp
	call	__RTC_CheckEsp
	mov	esp, ebp
	pop	ebp
	ret	4
??_GFCDUTF16CollationIterator@icu_56@@UAEPAXI@Z ENDP	; icu_56::FCDUTF16CollationIterator::`scalar deleting destructor'
; Function compile flags: /Odtp /RTCsu /ZI
_TEXT	ENDS
;	COMDAT ??_EFCDUTF16CollationIterator@icu_56@@UAEPAXI@Z
_TEXT	SEGMENT
_this$ = -8						; size = 4
___flags$ = 8						; size = 4
??_EFCDUTF16CollationIterator@icu_56@@UAEPAXI@Z PROC	; icu_56::FCDUTF16CollationIterator::`vector deleting destructor', COMDAT
; _this$ = ecx
	push	ebp
	mov	ebp, esp
	sub	esp, 204				; 000000ccH
	push	ebx
	push	esi
	push	edi
	push	ecx
	lea	edi, DWORD PTR [ebp-204]
	mov	ecx, 51					; 00000033H
	mov	eax, -858993460				; ccccccccH
	rep stosd
	pop	ecx
	mov	DWORD PTR _this$[ebp], ecx
	mov	eax, DWORD PTR ___flags$[ebp]
	and	eax, 2
	je	SHORT $LN3@vector@3
	push	OFFSET ??1FCDUTF16CollationIterator@icu_56@@UAE@XZ ; icu_56::FCDUTF16CollationIterator::~FCDUTF16CollationIterator
	mov	eax, DWORD PTR _this$[ebp]
	mov	ecx, DWORD PTR [eax-4]
	push	ecx
	push	480					; 000001e0H
	mov	edx, DWORD PTR _this$[ebp]
	push	edx
	call	??_M@YGXPAXIHP6EX0@Z@Z
	mov	eax, DWORD PTR ___flags$[ebp]
	and	eax, 1
	je	SHORT $LN2@vector@3
	mov	eax, DWORD PTR _this$[ebp]
	sub	eax, 4
	mov	esi, esp
	push	eax
	call	DWORD PTR __imp_??_VUMemory@icu_56@@SAXPAX@Z
	add	esp, 4
	cmp	esi, esp
	call	__RTC_CheckEsp
$LN2@vector@3:
	mov	eax, DWORD PTR _this$[ebp]
	sub	eax, 4
	jmp	SHORT $LN4@vector@3
$LN3@vector@3:
	mov	ecx, DWORD PTR _this$[ebp]
	call	??1FCDUTF16CollationIterator@icu_56@@UAE@XZ ; icu_56::FCDUTF16CollationIterator::~FCDUTF16CollationIterator
	mov	eax, DWORD PTR ___flags$[ebp]
	and	eax, 1
	je	SHORT $LN1@vector@3
	mov	esi, esp
	mov	eax, DWORD PTR _this$[ebp]
	push	eax
	call	DWORD PTR __imp_??3UMemory@icu_56@@SAXPAX@Z
	add	esp, 4
	cmp	esi, esp
	call	__RTC_CheckEsp
$LN1@vector@3:
	mov	eax, DWORD PTR _this$[ebp]
$LN4@vector@3:
	pop	edi
	pop	esi
	pop	ebx
	add	esp, 204				; 000000ccH
	cmp	ebp, esp
	call	__RTC_CheckEsp
	mov	esp, ebp
	pop	ebp
	ret	4
??_EFCDUTF16CollationIterator@icu_56@@UAEPAXI@Z ENDP	; icu_56::FCDUTF16CollationIterator::`vector deleting destructor'
_TEXT	ENDS
PUBLIC	??_C@_1BM@EFPJNPMF@?$AAb?$AAa?$AAs?$AAe?$AAD?$AAa?$AAt?$AAa?$AA?5?$AA?$CB?$AA?$DN?$AA?5?$AA0?$AA?$AA@ ; `string'
PUBLIC	??_C@_1GE@DBOIFKIN@?$AAd?$AA?3?$AA?2?$AAm?$AAo?$AAz?$AAi?$AAl?$AAl?$AAa?$AA?2?$AAi?$AAn?$AAt?$AAl?$AA?2?$AAi?$AAc?$AAu?$AA?2?$AAs?$AAo?$AAu?$AAr?$AAc?$AAe?$AA?2?$AAi?$AA1?$AA8?$AAn?$AA?2@ ; `string'
PUBLIC	?__LINE__Var@?1??forData@TailoredSet@icu_56@@QAEXPBUCollationData@3@AAW4UErrorCode@@@Z@4JA ; `icu_56::TailoredSet::forData'::`2'::__LINE__Var
PUBLIC	?forData@TailoredSet@icu_56@@QAEXPBUCollationData@2@AAW4UErrorCode@@@Z ; icu_56::TailoredSet::forData
EXTRN	_utrie2_enum_56:PROC
EXTRN	__imp___wassert:PROC
;	COMDAT ??_C@_1BM@EFPJNPMF@?$AAb?$AAa?$AAs?$AAe?$AAD?$AAa?$AAt?$AAa?$AA?5?$AA?$CB?$AA?$DN?$AA?5?$AA0?$AA?$AA@
; File d:\mozilla\intl\icu\source\i18n\collationsets.cpp
CONST	SEGMENT
??_C@_1BM@EFPJNPMF@?$AAb?$AAa?$AAs?$AAe?$AAD?$AAa?$AAt?$AAa?$AA?5?$AA?$CB?$AA?$DN?$AA?5?$AA0?$AA?$AA@ DB 'b'
	DB	00H, 'a', 00H, 's', 00H, 'e', 00H, 'D', 00H, 'a', 00H, 't', 00H
	DB	'a', 00H, ' ', 00H, '!', 00H, '=', 00H, ' ', 00H, '0', 00H, 00H
	DB	00H						; `string'
CONST	ENDS
;	COMDAT ??_C@_1GE@DBOIFKIN@?$AAd?$AA?3?$AA?2?$AAm?$AAo?$AAz?$AAi?$AAl?$AAl?$AAa?$AA?2?$AAi?$AAn?$AAt?$AAl?$AA?2?$AAi?$AAc?$AAu?$AA?2?$AAs?$AAo?$AAu?$AAr?$AAc?$AAe?$AA?2?$AAi?$AA1?$AA8?$AAn?$AA?2@
CONST	SEGMENT
??_C@_1GE@DBOIFKIN@?$AAd?$AA?3?$AA?2?$AAm?$AAo?$AAz?$AAi?$AAl?$AAl?$AAa?$AA?2?$AAi?$AAn?$AAt?$AAl?$AA?2?$AAi?$AAc?$AAu?$AA?2?$AAs?$AAo?$AAu?$AAr?$AAc?$AAe?$AA?2?$AAi?$AA1?$AA8?$AAn?$AA?2@ DB 'd'
	DB	00H, ':', 00H, '\', 00H, 'm', 00H, 'o', 00H, 'z', 00H, 'i', 00H
	DB	'l', 00H, 'l', 00H, 'a', 00H, '\', 00H, 'i', 00H, 'n', 00H, 't'
	DB	00H, 'l', 00H, '\', 00H, 'i', 00H, 'c', 00H, 'u', 00H, '\', 00H
	DB	's', 00H, 'o', 00H, 'u', 00H, 'r', 00H, 'c', 00H, 'e', 00H, '\'
	DB	00H, 'i', 00H, '1', 00H, '8', 00H, 'n', 00H, '\', 00H, 'c', 00H
	DB	'o', 00H, 'l', 00H, 'l', 00H, 'a', 00H, 't', 00H, 'i', 00H, 'o'
	DB	00H, 'n', 00H, 's', 00H, 'e', 00H, 't', 00H, 's', 00H, '.', 00H
	DB	'c', 00H, 'p', 00H, 'p', 00H, 00H, 00H	; `string'
CONST	ENDS
;	COMDAT ?__LINE__Var@?1??forData@TailoredSet@icu_56@@QAEXPBUCollationData@3@AAW4UErrorCode@@@Z@4JA
_DATA	SEGMENT
?__LINE__Var@?1??forData@TailoredSet@icu_56@@QAEXPBUCollationData@3@AAW4UErrorCode@@@Z@4JA DD 02cH ; `icu_56::TailoredSet::forData'::`2'::__LINE__Var
; Function compile flags: /Odtp /RTCsu /ZI
_DATA	ENDS
;	COMDAT ?forData@TailoredSet@icu_56@@QAEXPBUCollationData@2@AAW4UErrorCode@@@Z
_TEXT	SEGMENT
_this$ = -8						; size = 4
_d$ = 8							; size = 4
_ec$ = 12						; size = 4
?forData@TailoredSet@icu_56@@QAEXPBUCollationData@2@AAW4UErrorCode@@@Z PROC ; icu_56::TailoredSet::forData, COMDAT
; _this$ = ecx
; Line 44
	push	ebp
	mov	ebp, esp
	sub	esp, 204				; 000000ccH
	push	ebx
	push	esi
	push	edi
	push	ecx
	lea	edi, DWORD PTR [ebp-204]
	mov	ecx, 51					; 00000033H
	mov	eax, -858993460				; ccccccccH
	rep stosd
	pop	ecx
	mov	DWORD PTR _this$[ebp], ecx
; Line 45
	mov	eax, DWORD PTR _ec$[ebp]
	mov	ecx, DWORD PTR [eax]
	push	ecx
	call	?U_FAILURE@@YACW4UErrorCode@@@Z		; U_FAILURE
	add	esp, 4
	movsx	edx, al
	test	edx, edx
	je	SHORT $LN1@forData
	jmp	SHORT $LN2@forData
$LN1@forData:
; Line 46
	mov	eax, DWORD PTR _this$[ebp]
	mov	ecx, DWORD PTR _ec$[ebp]
	mov	edx, DWORD PTR [ecx]
	mov	DWORD PTR [eax+80], edx
; Line 47
	mov	eax, DWORD PTR _this$[ebp]
	mov	ecx, DWORD PTR _d$[ebp]
	mov	DWORD PTR [eax], ecx
; Line 48
	mov	eax, DWORD PTR _this$[ebp]
	mov	ecx, DWORD PTR _d$[ebp]
	mov	edx, DWORD PTR [ecx+16]
	mov	DWORD PTR [eax+4], edx
; Line 49
	mov	eax, DWORD PTR _this$[ebp]
	cmp	DWORD PTR [eax+4], 0
	jne	SHORT $LN4@forData
	mov	ecx, DWORD PTR ?__LINE__Var@?1??forData@TailoredSet@icu_56@@QAEXPBUCollationData@3@AAW4UErrorCode@@@Z@4JA
	add	ecx, 5
	mov	esi, esp
	push	ecx
	push	OFFSET ??_C@_1GE@DBOIFKIN@?$AAd?$AA?3?$AA?2?$AAm?$AAo?$AAz?$AAi?$AAl?$AAl?$AAa?$AA?2?$AAi?$AAn?$AAt?$AAl?$AA?2?$AAi?$AAc?$AAu?$AA?2?$AAs?$AAo?$AAu?$AAr?$AAc?$AAe?$AA?2?$AAi?$AA1?$AA8?$AAn?$AA?2@
	push	OFFSET ??_C@_1BM@EFPJNPMF@?$AAb?$AAa?$AAs?$AAe?$AAD?$AAa?$AAt?$AAa?$AA?5?$AA?$CB?$AA?$DN?$AA?5?$AA0?$AA?$AA@
	call	DWORD PTR __imp___wassert
	add	esp, 12					; 0000000cH
	cmp	esi, esp
	call	__RTC_CheckEsp
$LN4@forData:
; Line 50
	mov	eax, DWORD PTR _this$[ebp]
	push	eax
	push	OFFSET _enumTailoredRange
	push	0
	mov	ecx, DWORD PTR _this$[ebp]
	mov	edx, DWORD PTR [ecx]
	mov	eax, DWORD PTR [edx]
	push	eax
	call	_utrie2_enum_56
	add	esp, 16					; 00000010H
; Line 51
	mov	eax, DWORD PTR _ec$[ebp]
	mov	ecx, DWORD PTR _this$[ebp]
	mov	edx, DWORD PTR [ecx+80]
	mov	DWORD PTR [eax], edx
$LN2@forData:
; Line 52
	pop	edi
	pop	esi
	pop	ebx
	add	esp, 204				; 000000ccH
	cmp	ebp, esp
	call	__RTC_CheckEsp
	mov	esp, ebp
	pop	ebp
	ret	8
?forData@TailoredSet@icu_56@@QAEXPBUCollationData@2@AAW4UErrorCode@@@Z ENDP ; icu_56::TailoredSet::forData
; Function compile flags: /Odtp /RTCsu /ZI
_TEXT	ENDS
;	COMDAT ?U_FAILURE@@YACW4UErrorCode@@@Z
_TEXT	SEGMENT
_code$ = 8						; size = 4
?U_FAILURE@@YACW4UErrorCode@@@Z PROC			; U_FAILURE, COMDAT
; File d:\mozilla\intl\icu\include\unicode\utypes.h
; Line 705
	push	ebp
	mov	ebp, esp
	sub	esp, 192				; 000000c0H
	push	ebx
	push	esi
	push	edi
	lea	edi, DWORD PTR [ebp-192]
	mov	ecx, 48					; 00000030H
	mov	eax, -858993460				; ccccccccH
	rep stosd
	cmp	DWORD PTR _code$[ebp], 0
	setg	al
	pop	edi
	pop	esi
	pop	ebx
	mov	esp, ebp
	pop	ebp
	ret	0
?U_FAILURE@@YACW4UErrorCode@@@Z ENDP			; U_FAILURE
_TEXT	ENDS
PUBLIC	?handleCE32@TailoredSet@icu_56@@QAECHHI@Z	; icu_56::TailoredSet::handleCE32
; Function compile flags: /Odtp /RTCsu /ZI
;	COMDAT _enumTailoredRange
_TEXT	SEGMENT
_ts$ = -8						; size = 4
_context$ = 8						; size = 4
_start$ = 12						; size = 4
_end$ = 16						; size = 4
_ce32$ = 20						; size = 4
_enumTailoredRange PROC					; COMDAT
; File d:\mozilla\intl\icu\source\i18n\collationsets.cpp
; Line 33
	push	ebp
	mov	ebp, esp
	sub	esp, 204				; 000000ccH
	push	ebx
	push	esi
	push	edi
	lea	edi, DWORD PTR [ebp-204]
	mov	ecx, 51					; 00000033H
	mov	eax, -858993460				; ccccccccH
	rep stosd
; Line 34
	cmp	DWORD PTR _ce32$[ebp], 192		; 000000c0H
	jne	SHORT $LN1@enumTailor
; Line 35
	mov	al, 1
	jmp	SHORT $LN2@enumTailor
$LN1@enumTailor:
; Line 37
	mov	eax, DWORD PTR _context$[ebp]
	mov	DWORD PTR _ts$[ebp], eax
; Line 38
	mov	eax, DWORD PTR _ce32$[ebp]
	push	eax
	mov	ecx, DWORD PTR _end$[ebp]
	push	ecx
	mov	edx, DWORD PTR _start$[ebp]
	push	edx
	mov	ecx, DWORD PTR _ts$[ebp]
	call	?handleCE32@TailoredSet@icu_56@@QAECHHI@Z ; icu_56::TailoredSet::handleCE32
$LN2@enumTailor:
; Line 39
	pop	edi
	pop	esi
	pop	ebx
	add	esp, 204				; 000000ccH
	cmp	ebp, esp
	call	__RTC_CheckEsp
	mov	esp, ebp
	pop	ebp
	ret	0
_enumTailoredRange ENDP
_TEXT	ENDS
PUBLIC	?compare@TailoredSet@icu_56@@AAEXHII@Z		; icu_56::TailoredSet::compare
PUBLIC	??_C@_1EC@KPNMIMPP@?$AAc?$AAe?$AA3?$AA2?$AA?5?$AA?$CB?$AA?$DN?$AA?5?$AAC?$AAo?$AAl?$AAl?$AAa?$AAt?$AAi?$AAo?$AAn?$AA?3?$AA?3?$AAF?$AAA?$AAL?$AAL?$AAB?$AAA?$AAC?$AAK?$AA_?$AAC?$AAE?$AA3?$AA2@ ; `string'
PUBLIC	?__LINE__Var@?1??handleCE32@TailoredSet@icu_56@@QAECHHI@Z@4JA ; `icu_56::TailoredSet::handleCE32'::`2'::__LINE__Var
EXTRN	__imp_?add@UnicodeSet@icu_56@@QAEAAV12@H@Z:PROC
EXTRN	?getFinalCE32@CollationData@icu_56@@QBEII@Z:PROC ; icu_56::CollationData::getFinalCE32
EXTRN	?getIndirectCE32@CollationData@icu_56@@QBEII@Z:PROC ; icu_56::CollationData::getIndirectCE32
;	COMDAT ??_C@_1EC@KPNMIMPP@?$AAc?$AAe?$AA3?$AA2?$AA?5?$AA?$CB?$AA?$DN?$AA?5?$AAC?$AAo?$AAl?$AAl?$AAa?$AAt?$AAi?$AAo?$AAn?$AA?3?$AA?3?$AAF?$AAA?$AAL?$AAL?$AAB?$AAA?$AAC?$AAK?$AA_?$AAC?$AAE?$AA3?$AA2@
CONST	SEGMENT
??_C@_1EC@KPNMIMPP@?$AAc?$AAe?$AA3?$AA2?$AA?5?$AA?$CB?$AA?$DN?$AA?5?$AAC?$AAo?$AAl?$AAl?$AAa?$AAt?$AAi?$AAo?$AAn?$AA?3?$AA?3?$AAF?$AAA?$AAL?$AAL?$AAB?$AAA?$AAC?$AAK?$AA_?$AAC?$AAE?$AA3?$AA2@ DB 'c'
	DB	00H, 'e', 00H, '3', 00H, '2', 00H, ' ', 00H, '!', 00H, '=', 00H
	DB	' ', 00H, 'C', 00H, 'o', 00H, 'l', 00H, 'l', 00H, 'a', 00H, 't'
	DB	00H, 'i', 00H, 'o', 00H, 'n', 00H, ':', 00H, ':', 00H, 'F', 00H
	DB	'A', 00H, 'L', 00H, 'L', 00H, 'B', 00H, 'A', 00H, 'C', 00H, 'K'
	DB	00H, '_', 00H, 'C', 00H, 'E', 00H, '3', 00H, '2', 00H, 00H, 00H ; `string'
CONST	ENDS
;	COMDAT ?__LINE__Var@?1??handleCE32@TailoredSet@icu_56@@QAECHHI@Z@4JA
_DATA	SEGMENT
?__LINE__Var@?1??handleCE32@TailoredSet@icu_56@@QAECHHI@Z@4JA DD 037H ; `icu_56::TailoredSet::handleCE32'::`2'::__LINE__Var
; Function compile flags: /Odtp /RTCsu /ZI
_DATA	ENDS
;	COMDAT ?handleCE32@TailoredSet@icu_56@@QAECHHI@Z
_TEXT	SEGMENT
_baseCE32$72698 = -20					; size = 4
_this$ = -8						; size = 4
_start$ = 8						; size = 4
_end$ = 12						; size = 4
_ce32$ = 16						; size = 4
?handleCE32@TailoredSet@icu_56@@QAECHHI@Z PROC		; icu_56::TailoredSet::handleCE32, COMDAT
; _this$ = ecx
; Line 55
	push	ebp
	mov	ebp, esp
	sub	esp, 216				; 000000d8H
	push	ebx
	push	esi
	push	edi
	push	ecx
	lea	edi, DWORD PTR [ebp-216]
	mov	ecx, 54					; 00000036H
	mov	eax, -858993460				; ccccccccH
	rep stosd
	pop	ecx
	mov	DWORD PTR _this$[ebp], ecx
; Line 56
	cmp	DWORD PTR _ce32$[ebp], 192		; 000000c0H
	jne	SHORT $LN11@handleCE32
	mov	eax, DWORD PTR ?__LINE__Var@?1??handleCE32@TailoredSet@icu_56@@QAECHHI@Z@4JA
	add	eax, 1
	mov	esi, esp
	push	eax
	push	OFFSET ??_C@_1GE@DBOIFKIN@?$AAd?$AA?3?$AA?2?$AAm?$AAo?$AAz?$AAi?$AAl?$AAl?$AAa?$AA?2?$AAi?$AAn?$AAt?$AAl?$AA?2?$AAi?$AAc?$AAu?$AA?2?$AAs?$AAo?$AAu?$AAr?$AAc?$AAe?$AA?2?$AAi?$AA1?$AA8?$AAn?$AA?2@
	push	OFFSET ??_C@_1EC@KPNMIMPP@?$AAc?$AAe?$AA3?$AA2?$AA?5?$AA?$CB?$AA?$DN?$AA?5?$AAC?$AAo?$AAl?$AAl?$AAa?$AAt?$AAi?$AAo?$AAn?$AA?3?$AA?3?$AAF?$AAA?$AAL?$AAL?$AAB?$AAA?$AAC?$AAK?$AA_?$AAC?$AAE?$AA3?$AA2@
	call	DWORD PTR __imp___wassert
	add	esp, 12					; 0000000cH
	cmp	esi, esp
	call	__RTC_CheckEsp
$LN11@handleCE32:
; Line 57
	mov	eax, DWORD PTR _ce32$[ebp]
	push	eax
	call	?isSpecialCE32@Collation@icu_56@@SACI@Z	; icu_56::Collation::isSpecialCE32
	add	esp, 4
	movsx	ecx, al
	test	ecx, ecx
	je	SHORT $LN6@handleCE32
; Line 58
	mov	eax, DWORD PTR _ce32$[ebp]
	push	eax
	mov	ecx, DWORD PTR _this$[ebp]
	mov	ecx, DWORD PTR [ecx]
	call	?getIndirectCE32@CollationData@icu_56@@QBEII@Z ; icu_56::CollationData::getIndirectCE32
	mov	DWORD PTR _ce32$[ebp], eax
; Line 59
	cmp	DWORD PTR _ce32$[ebp], 192		; 000000c0H
	jne	SHORT $LN6@handleCE32
; Line 60
	mov	eax, DWORD PTR _this$[ebp]
	mov	ecx, DWORD PTR [eax+80]
	push	ecx
	call	?U_SUCCESS@@YACW4UErrorCode@@@Z		; U_SUCCESS
	add	esp, 4
	jmp	$LN9@handleCE32
$LN6@handleCE32:
; Line 64
	mov	eax, DWORD PTR _start$[ebp]
	push	eax
	mov	ecx, DWORD PTR _this$[ebp]
	mov	ecx, DWORD PTR [ecx+4]
	call	?getCE32@CollationData@icu_56@@QBEIH@Z	; icu_56::CollationData::getCE32
	push	eax
	mov	edx, DWORD PTR _this$[ebp]
	mov	ecx, DWORD PTR [edx+4]
	call	?getFinalCE32@CollationData@icu_56@@QBEII@Z ; icu_56::CollationData::getFinalCE32
	mov	DWORD PTR _baseCE32$72698[ebp], eax
; Line 68
	mov	eax, DWORD PTR _ce32$[ebp]
	push	eax
	call	?isSelfContainedCE32@Collation@icu_56@@SACI@Z ; icu_56::Collation::isSelfContainedCE32
	add	esp, 4
	movsx	ecx, al
	test	ecx, ecx
	je	SHORT $LN3@handleCE32
	mov	eax, DWORD PTR _baseCE32$72698[ebp]
	push	eax
	call	?isSelfContainedCE32@Collation@icu_56@@SACI@Z ; icu_56::Collation::isSelfContainedCE32
	add	esp, 4
	movsx	ecx, al
	test	ecx, ecx
	je	SHORT $LN3@handleCE32
; Line 70
	mov	eax, DWORD PTR _ce32$[ebp]
	cmp	eax, DWORD PTR _baseCE32$72698[ebp]
	je	SHORT $LN2@handleCE32
; Line 71
	mov	esi, esp
	mov	eax, DWORD PTR _start$[ebp]
	push	eax
	mov	ecx, DWORD PTR _this$[ebp]
	mov	ecx, DWORD PTR [ecx+8]
	call	DWORD PTR __imp_?add@UnicodeSet@icu_56@@QAEAAV12@H@Z
	cmp	esi, esp
	call	__RTC_CheckEsp
$LN2@handleCE32:
; Line 73
	jmp	SHORT $LN5@handleCE32
$LN3@handleCE32:
; Line 74
	mov	eax, DWORD PTR _baseCE32$72698[ebp]
	push	eax
	mov	ecx, DWORD PTR _ce32$[ebp]
	push	ecx
	mov	edx, DWORD PTR _start$[ebp]
	push	edx
	mov	ecx, DWORD PTR _this$[ebp]
	call	?compare@TailoredSet@icu_56@@AAEXHII@Z	; icu_56::TailoredSet::compare
$LN5@handleCE32:
; Line 76
	mov	eax, DWORD PTR _start$[ebp]
	add	eax, 1
	mov	DWORD PTR _start$[ebp], eax
	mov	ecx, DWORD PTR _start$[ebp]
	cmp	ecx, DWORD PTR _end$[ebp]
	jle	$LN6@handleCE32
; Line 77
	mov	eax, DWORD PTR _this$[ebp]
	mov	ecx, DWORD PTR [eax+80]
	push	ecx
	call	?U_SUCCESS@@YACW4UErrorCode@@@Z		; U_SUCCESS
	add	esp, 4
$LN9@handleCE32:
; Line 78
	pop	edi
	pop	esi
	pop	ebx
	add	esp, 216				; 000000d8H
	cmp	ebp, esp
	call	__RTC_CheckEsp
	mov	esp, ebp
	pop	ebp
	ret	12					; 0000000cH
?handleCE32@TailoredSet@icu_56@@QAECHHI@Z ENDP		; icu_56::TailoredSet::handleCE32
; Function compile flags: /Odtp /RTCsu /ZI
_TEXT	ENDS
;	COMDAT ?U_SUCCESS@@YACW4UErrorCode@@@Z
_TEXT	SEGMENT
_code$ = 8						; size = 4
?U_SUCCESS@@YACW4UErrorCode@@@Z PROC			; U_SUCCESS, COMDAT
; File d:\mozilla\intl\icu\include\unicode\utypes.h
; Line 699
	push	ebp
	mov	ebp, esp
	sub	esp, 192				; 000000c0H
	push	ebx
	push	esi
	push	edi
	lea	edi, DWORD PTR [ebp-192]
	mov	ecx, 48					; 00000030H
	mov	eax, -858993460				; ccccccccH
	rep stosd
	cmp	DWORD PTR _code$[ebp], 0
	setle	al
	pop	edi
	pop	esi
	pop	ebx
	mov	esp, ebp
	pop	ebp
	ret	0
?U_SUCCESS@@YACW4UErrorCode@@@Z ENDP			; U_SUCCESS
_TEXT	ENDS
PUBLIC	?add@TailoredSet@icu_56@@AAEXH@Z		; icu_56::TailoredSet::add
PUBLIC	??_C@_1EM@BFEDMACD@?$AAb?$AAa?$AAs?$AAe?$AAT?$AAa?$AAg?$AA?5?$AA?$CB?$AA?$DN?$AA?5?$AAC?$AAo?$AAl?$AAl?$AAa?$AAt?$AAi?$AAo?$AAn?$AA?3?$AA?3?$AAC?$AAO?$AAN?$AAT?$AAR?$AAA?$AAC?$AAT?$AAI?$AAO@ ; `string'
PUBLIC	??_C@_1EC@ONGEBLIE@?$AAb?$AAa?$AAs?$AAe?$AAT?$AAa?$AAg?$AA?5?$AA?$CB?$AA?$DN?$AA?5?$AAC?$AAo?$AAl?$AAl?$AAa?$AAt?$AAi?$AAo?$AAn?$AA?3?$AA?3?$AAP?$AAR?$AAE?$AAF?$AAI?$AAX?$AA_?$AAT?$AAA?$AAG@ ; `string'
PUBLIC	??_C@_1DK@GPJIMIKN@?$AAt?$AAa?$AAg?$AA?5?$AA?$CB?$AA?$DN?$AA?5?$AAC?$AAo?$AAl?$AAl?$AAa?$AAt?$AAi?$AAo?$AAn?$AA?3?$AA?3?$AAO?$AAF?$AAF?$AAS?$AAE?$AAT?$AA_?$AAT?$AAA?$AAG?$AA?$AA@ ; `string'
PUBLIC	??_C@_1EE@MAJHOMOG@?$AAt?$AAa?$AAg?$AA?5?$AA?$CB?$AA?$DN?$AA?5?$AAC?$AAo?$AAl?$AAl?$AAa?$AAt?$AAi?$AAo?$AAn?$AA?3?$AA?3?$AAC?$AAO?$AAN?$AAT?$AAR?$AAA?$AAC?$AAT?$AAI?$AAO?$AAN?$AA_?$AAT?$AAA@ ; `string'
PUBLIC	??_C@_1DK@ONNJDIJG@?$AAt?$AAa?$AAg?$AA?5?$AA?$CB?$AA?$DN?$AA?5?$AAC?$AAo?$AAl?$AAl?$AAa?$AAt?$AAi?$AAo?$AAn?$AA?3?$AA?3?$AAP?$AAR?$AAE?$AAF?$AAI?$AAX?$AA_?$AAT?$AAA?$AAG?$AA?$AA@ ; `string'
PUBLIC	?__LINE__Var@?1??compare@TailoredSet@icu_56@@AAEXHII@Z@4JA ; `icu_56::TailoredSet::compare'::`2'::__LINE__Var
PUBLIC	?addContractions@TailoredSet@icu_56@@AAEXHPB_W@Z ; icu_56::TailoredSet::addContractions
PUBLIC	?compareContractions@TailoredSet@icu_56@@AAEXHPB_W0@Z ; icu_56::TailoredSet::compareContractions
PUBLIC	?addPrefixes@TailoredSet@icu_56@@AAEXPBUCollationData@2@HPB_W@Z ; icu_56::TailoredSet::addPrefixes
PUBLIC	?comparePrefixes@TailoredSet@icu_56@@AAEXHPB_W0@Z ; icu_56::TailoredSet::comparePrefixes
PUBLIC	__$ArrayPad$
EXTRN	__imp_?decompose@Hangul@icu_56@@SAHHQA_W@Z:PROC
;	COMDAT ??_C@_1EM@BFEDMACD@?$AAb?$AAa?$AAs?$AAe?$AAT?$AAa?$AAg?$AA?5?$AA?$CB?$AA?$DN?$AA?5?$AAC?$AAo?$AAl?$AAl?$AAa?$AAt?$AAi?$AAo?$AAn?$AA?3?$AA?3?$AAC?$AAO?$AAN?$AAT?$AAR?$AAA?$AAC?$AAT?$AAI?$AAO@
; File d:\mozilla\intl\icu\source\i18n\collationsets.cpp
CONST	SEGMENT
??_C@_1EM@BFEDMACD@?$AAb?$AAa?$AAs?$AAe?$AAT?$AAa?$AAg?$AA?5?$AA?$CB?$AA?$DN?$AA?5?$AAC?$AAo?$AAl?$AAl?$AAa?$AAt?$AAi?$AAo?$AAn?$AA?3?$AA?3?$AAC?$AAO?$AAN?$AAT?$AAR?$AAA?$AAC?$AAT?$AAI?$AAO@ DB 'b'
	DB	00H, 'a', 00H, 's', 00H, 'e', 00H, 'T', 00H, 'a', 00H, 'g', 00H
	DB	' ', 00H, '!', 00H, '=', 00H, ' ', 00H, 'C', 00H, 'o', 00H, 'l'
	DB	00H, 'l', 00H, 'a', 00H, 't', 00H, 'i', 00H, 'o', 00H, 'n', 00H
	DB	':', 00H, ':', 00H, 'C', 00H, 'O', 00H, 'N', 00H, 'T', 00H, 'R'
	DB	00H, 'A', 00H, 'C', 00H, 'T', 00H, 'I', 00H, 'O', 00H, 'N', 00H
	DB	'_', 00H, 'T', 00H, 'A', 00H, 'G', 00H, 00H, 00H ; `string'
CONST	ENDS
;	COMDAT ??_C@_1EC@ONGEBLIE@?$AAb?$AAa?$AAs?$AAe?$AAT?$AAa?$AAg?$AA?5?$AA?$CB?$AA?$DN?$AA?5?$AAC?$AAo?$AAl?$AAl?$AAa?$AAt?$AAi?$AAo?$AAn?$AA?3?$AA?3?$AAP?$AAR?$AAE?$AAF?$AAI?$AAX?$AA_?$AAT?$AAA?$AAG@
CONST	SEGMENT
??_C@_1EC@ONGEBLIE@?$AAb?$AAa?$AAs?$AAe?$AAT?$AAa?$AAg?$AA?5?$AA?$CB?$AA?$DN?$AA?5?$AAC?$AAo?$AAl?$AAl?$AAa?$AAt?$AAi?$AAo?$AAn?$AA?3?$AA?3?$AAP?$AAR?$AAE?$AAF?$AAI?$AAX?$AA_?$AAT?$AAA?$AAG@ DB 'b'
	DB	00H, 'a', 00H, 's', 00H, 'e', 00H, 'T', 00H, 'a', 00H, 'g', 00H
	DB	' ', 00H, '!', 00H, '=', 00H, ' ', 00H, 'C', 00H, 'o', 00H, 'l'
	DB	00H, 'l', 00H, 'a', 00H, 't', 00H, 'i', 00H, 'o', 00H, 'n', 00H
	DB	':', 00H, ':', 00H, 'P', 00H, 'R', 00H, 'E', 00H, 'F', 00H, 'I'
	DB	00H, 'X', 00H, '_', 00H, 'T', 00H, 'A', 00H, 'G', 00H, 00H, 00H ; `string'
CONST	ENDS
;	COMDAT ??_C@_1DK@GPJIMIKN@?$AAt?$AAa?$AAg?$AA?5?$AA?$CB?$AA?$DN?$AA?5?$AAC?$AAo?$AAl?$AAl?$AAa?$AAt?$AAi?$AAo?$AAn?$AA?3?$AA?3?$AAO?$AAF?$AAF?$AAS?$AAE?$AAT?$AA_?$AAT?$AAA?$AAG?$AA?$AA@
CONST	SEGMENT
??_C@_1DK@GPJIMIKN@?$AAt?$AAa?$AAg?$AA?5?$AA?$CB?$AA?$DN?$AA?5?$AAC?$AAo?$AAl?$AAl?$AAa?$AAt?$AAi?$AAo?$AAn?$AA?3?$AA?3?$AAO?$AAF?$AAF?$AAS?$AAE?$AAT?$AA_?$AAT?$AAA?$AAG?$AA?$AA@ DB 't'
	DB	00H, 'a', 00H, 'g', 00H, ' ', 00H, '!', 00H, '=', 00H, ' ', 00H
	DB	'C', 00H, 'o', 00H, 'l', 00H, 'l', 00H, 'a', 00H, 't', 00H, 'i'
	DB	00H, 'o', 00H, 'n', 00H, ':', 00H, ':', 00H, 'O', 00H, 'F', 00H
	DB	'F', 00H, 'S', 00H, 'E', 00H, 'T', 00H, '_', 00H, 'T', 00H, 'A'
	DB	00H, 'G', 00H, 00H, 00H			; `string'
CONST	ENDS
;	COMDAT ??_C@_1EE@MAJHOMOG@?$AAt?$AAa?$AAg?$AA?5?$AA?$CB?$AA?$DN?$AA?5?$AAC?$AAo?$AAl?$AAl?$AAa?$AAt?$AAi?$AAo?$AAn?$AA?3?$AA?3?$AAC?$AAO?$AAN?$AAT?$AAR?$AAA?$AAC?$AAT?$AAI?$AAO?$AAN?$AA_?$AAT?$AAA@
CONST	SEGMENT
??_C@_1EE@MAJHOMOG@?$AAt?$AAa?$AAg?$AA?5?$AA?$CB?$AA?$DN?$AA?5?$AAC?$AAo?$AAl?$AAl?$AAa?$AAt?$AAi?$AAo?$AAn?$AA?3?$AA?3?$AAC?$AAO?$AAN?$AAT?$AAR?$AAA?$AAC?$AAT?$AAI?$AAO?$AAN?$AA_?$AAT?$AAA@ DB 't'
	DB	00H, 'a', 00H, 'g', 00H, ' ', 00H, '!', 00H, '=', 00H, ' ', 00H
	DB	'C', 00H, 'o', 00H, 'l', 00H, 'l', 00H, 'a', 00H, 't', 00H, 'i'
	DB	00H, 'o', 00H, 'n', 00H, ':', 00H, ':', 00H, 'C', 00H, 'O', 00H
	DB	'N', 00H, 'T', 00H, 'R', 00H, 'A', 00H, 'C', 00H, 'T', 00H, 'I'
	DB	00H, 'O', 00H, 'N', 00H, '_', 00H, 'T', 00H, 'A', 00H, 'G', 00H
	DB	00H, 00H					; `string'
CONST	ENDS
;	COMDAT ??_C@_1DK@ONNJDIJG@?$AAt?$AAa?$AAg?$AA?5?$AA?$CB?$AA?$DN?$AA?5?$AAC?$AAo?$AAl?$AAl?$AAa?$AAt?$AAi?$AAo?$AAn?$AA?3?$AA?3?$AAP?$AAR?$AAE?$AAF?$AAI?$AAX?$AA_?$AAT?$AAA?$AAG?$AA?$AA@
CONST	SEGMENT
??_C@_1DK@ONNJDIJG@?$AAt?$AAa?$AAg?$AA?5?$AA?$CB?$AA?$DN?$AA?5?$AAC?$AAo?$AAl?$AAl?$AAa?$AAt?$AAi?$AAo?$AAn?$AA?3?$AA?3?$AAP?$AAR?$AAE?$AAF?$AAI?$AAX?$AA_?$AAT?$AAA?$AAG?$AA?$AA@ DB 't'
	DB	00H, 'a', 00H, 'g', 00H, ' ', 00H, '!', 00H, '=', 00H, ' ', 00H
	DB	'C', 00H, 'o', 00H, 'l', 00H, 'l', 00H, 'a', 00H, 't', 00H, 'i'
	DB	00H, 'o', 00H, 'n', 00H, ':', 00H, ':', 00H, 'P', 00H, 'R', 00H
	DB	'E', 00H, 'F', 00H, 'I', 00H, 'X', 00H, '_', 00H, 'T', 00H, 'A'
	DB	00H, 'G', 00H, 00H, 00H			; `string'
CONST	ENDS
;	COMDAT ?__LINE__Var@?1??compare@TailoredSet@icu_56@@AAEXHII@Z@4JA
_DATA	SEGMENT
?__LINE__Var@?1??compare@TailoredSet@icu_56@@AAEXHII@Z@4JA DD 051H ; `icu_56::TailoredSet::compare'::`2'::__LINE__Var
; Function compile flags: /Odtp /RTCsu /ZI
_DATA	ENDS
;	COMDAT ?compare@TailoredSet@icu_56@@AAEXHII@Z
_TEXT	SEGMENT
tv626 = -496						; size = 4
tv625 = -492						; size = 4
tv624 = -488						; size = 4
tv623 = -484						; size = 4
_length$72777 = -284					; size = 4
_jamos$72776 = -272					; size = 6
_i$72769 = -256						; size = 4
_baseLength$72767 = -244				; size = 4
_baseCEs$72766 = -232					; size = 4
_length$72765 = -220					; size = 4
_ces$72764 = -208					; size = 4
_i$72757 = -196						; size = 4
_baseLength$72755 = -184				; size = 4
_baseCE32s$72754 = -172					; size = 4
_length$72753 = -160					; size = 4
_ce32s$72752 = -148					; size = 4
_p$72748 = -136						; size = 4
_dataCE$72747 = -124					; size = 8
_baseTag$ = -108					; size = 4
_tag$ = -96						; size = 4
_q$72727 = -84						; size = 4
_q$72721 = -72						; size = 4
_p$72717 = -60						; size = 4
_q$72715 = -48						; size = 4
_q$72711 = -36						; size = 4
_p$72709 = -24						; size = 4
_this$ = -12						; size = 4
__$ArrayPad$ = -4					; size = 4
_c$ = 8							; size = 4
_ce32$ = 12						; size = 4
_baseCE32$ = 16						; size = 4
?compare@TailoredSet@icu_56@@AAEXHII@Z PROC		; icu_56::TailoredSet::compare, COMDAT
; _this$ = ecx
; Line 81
	push	ebp
	mov	ebp, esp
	sub	esp, 496				; 000001f0H
	push	ebx
	push	esi
	push	edi
	push	ecx
	lea	edi, DWORD PTR [ebp-496]
	mov	ecx, 124				; 0000007cH
	mov	eax, -858993460				; ccccccccH
	rep stosd
	pop	ecx
	mov	eax, DWORD PTR ___security_cookie
	xor	eax, ebp
	mov	DWORD PTR __$ArrayPad$[ebp], eax
	mov	DWORD PTR _this$[ebp], ecx
; Line 82
	mov	eax, DWORD PTR _ce32$[ebp]
	push	eax
	call	?isPrefixCE32@Collation@icu_56@@SACI@Z	; icu_56::Collation::isPrefixCE32
	add	esp, 4
	movsx	ecx, al
	test	ecx, ecx
	je	$LN41@compare
; Line 83
	mov	eax, DWORD PTR _this$[ebp]
	mov	esi, DWORD PTR [eax]
	mov	ecx, DWORD PTR _ce32$[ebp]
	push	ecx
	call	?indexFromCE32@Collation@icu_56@@SAHI@Z	; icu_56::Collation::indexFromCE32
	add	esp, 4
	mov	edx, DWORD PTR [esi+12]
	lea	eax, DWORD PTR [edx+eax*2]
	mov	DWORD PTR _p$72709[ebp], eax
; Line 84
	mov	eax, DWORD PTR _p$72709[ebp]
	push	eax
	call	?readCE32@CollationData@icu_56@@SAIPB_W@Z ; icu_56::CollationData::readCE32
	add	esp, 4
	push	eax
	mov	ecx, DWORD PTR _this$[ebp]
	mov	ecx, DWORD PTR [ecx]
	call	?getFinalCE32@CollationData@icu_56@@QBEII@Z ; icu_56::CollationData::getFinalCE32
	mov	DWORD PTR _ce32$[ebp], eax
; Line 85
	mov	eax, DWORD PTR _baseCE32$[ebp]
	push	eax
	call	?isPrefixCE32@Collation@icu_56@@SACI@Z	; icu_56::Collation::isPrefixCE32
	add	esp, 4
	movsx	ecx, al
	test	ecx, ecx
	je	SHORT $LN40@compare
; Line 86
	mov	eax, DWORD PTR _this$[ebp]
	mov	esi, DWORD PTR [eax+4]
	mov	ecx, DWORD PTR _baseCE32$[ebp]
	push	ecx
	call	?indexFromCE32@Collation@icu_56@@SAHI@Z	; icu_56::Collation::indexFromCE32
	add	esp, 4
	mov	edx, DWORD PTR [esi+12]
	lea	eax, DWORD PTR [edx+eax*2]
	mov	DWORD PTR _q$72711[ebp], eax
; Line 87
	mov	eax, DWORD PTR _q$72711[ebp]
	push	eax
	call	?readCE32@CollationData@icu_56@@SAIPB_W@Z ; icu_56::CollationData::readCE32
	add	esp, 4
	push	eax
	mov	ecx, DWORD PTR _this$[ebp]
	mov	ecx, DWORD PTR [ecx+4]
	call	?getFinalCE32@CollationData@icu_56@@QBEII@Z ; icu_56::CollationData::getFinalCE32
	mov	DWORD PTR _baseCE32$[ebp], eax
; Line 88
	mov	eax, DWORD PTR _q$72711[ebp]
	add	eax, 4
	push	eax
	mov	ecx, DWORD PTR _p$72709[ebp]
	add	ecx, 4
	push	ecx
	mov	edx, DWORD PTR _c$[ebp]
	push	edx
	mov	ecx, DWORD PTR _this$[ebp]
	call	?comparePrefixes@TailoredSet@icu_56@@AAEXHPB_W0@Z ; icu_56::TailoredSet::comparePrefixes
; Line 89
	jmp	SHORT $LN39@compare
$LN40@compare:
; Line 90
	mov	eax, DWORD PTR _p$72709[ebp]
	add	eax, 4
	push	eax
	mov	ecx, DWORD PTR _c$[ebp]
	push	ecx
	mov	edx, DWORD PTR _this$[ebp]
	mov	eax, DWORD PTR [edx]
	push	eax
	mov	ecx, DWORD PTR _this$[ebp]
	call	?addPrefixes@TailoredSet@icu_56@@AAEXPBUCollationData@2@HPB_W@Z ; icu_56::TailoredSet::addPrefixes
$LN39@compare:
; Line 91
	jmp	SHORT $LN38@compare
$LN41@compare:
; Line 92
	mov	eax, DWORD PTR _baseCE32$[ebp]
	push	eax
	call	?isPrefixCE32@Collation@icu_56@@SACI@Z	; icu_56::Collation::isPrefixCE32
	add	esp, 4
	movsx	ecx, al
	test	ecx, ecx
	je	SHORT $LN38@compare
; Line 93
	mov	eax, DWORD PTR _this$[ebp]
	mov	esi, DWORD PTR [eax+4]
	mov	ecx, DWORD PTR _baseCE32$[ebp]
	push	ecx
	call	?indexFromCE32@Collation@icu_56@@SAHI@Z	; icu_56::Collation::indexFromCE32
	add	esp, 4
	mov	edx, DWORD PTR [esi+12]
	lea	eax, DWORD PTR [edx+eax*2]
	mov	DWORD PTR _q$72715[ebp], eax
; Line 94
	mov	eax, DWORD PTR _q$72715[ebp]
	push	eax
	call	?readCE32@CollationData@icu_56@@SAIPB_W@Z ; icu_56::CollationData::readCE32
	add	esp, 4
	push	eax
	mov	ecx, DWORD PTR _this$[ebp]
	mov	ecx, DWORD PTR [ecx+4]
	call	?getFinalCE32@CollationData@icu_56@@QBEII@Z ; icu_56::CollationData::getFinalCE32
	mov	DWORD PTR _baseCE32$[ebp], eax
; Line 95
	mov	eax, DWORD PTR _q$72715[ebp]
	add	eax, 4
	push	eax
	mov	ecx, DWORD PTR _c$[ebp]
	push	ecx
	mov	edx, DWORD PTR _this$[ebp]
	mov	eax, DWORD PTR [edx+4]
	push	eax
	mov	ecx, DWORD PTR _this$[ebp]
	call	?addPrefixes@TailoredSet@icu_56@@AAEXPBUCollationData@2@HPB_W@Z ; icu_56::TailoredSet::addPrefixes
$LN38@compare:
; Line 98
	mov	eax, DWORD PTR _ce32$[ebp]
	push	eax
	call	?isContractionCE32@Collation@icu_56@@SACI@Z ; icu_56::Collation::isContractionCE32
	add	esp, 4
	movsx	ecx, al
	test	ecx, ecx
	je	$LN36@compare
; Line 99
	mov	eax, DWORD PTR _this$[ebp]
	mov	esi, DWORD PTR [eax]
	mov	ecx, DWORD PTR _ce32$[ebp]
	push	ecx
	call	?indexFromCE32@Collation@icu_56@@SAHI@Z	; icu_56::Collation::indexFromCE32
	add	esp, 4
	mov	edx, DWORD PTR [esi+12]
	lea	eax, DWORD PTR [edx+eax*2]
	mov	DWORD PTR _p$72717[ebp], eax
; Line 100
	mov	eax, DWORD PTR _ce32$[ebp]
	and	eax, 256				; 00000100H
	je	SHORT $LN35@compare
; Line 101
	mov	DWORD PTR _ce32$[ebp], 1
; Line 102
	jmp	SHORT $LN34@compare
$LN35@compare:
; Line 103
	mov	eax, DWORD PTR _p$72717[ebp]
	push	eax
	call	?readCE32@CollationData@icu_56@@SAIPB_W@Z ; icu_56::CollationData::readCE32
	add	esp, 4
	push	eax
	mov	ecx, DWORD PTR _this$[ebp]
	mov	ecx, DWORD PTR [ecx]
	call	?getFinalCE32@CollationData@icu_56@@QBEII@Z ; icu_56::CollationData::getFinalCE32
	mov	DWORD PTR _ce32$[ebp], eax
$LN34@compare:
; Line 105
	mov	eax, DWORD PTR _baseCE32$[ebp]
	push	eax
	call	?isContractionCE32@Collation@icu_56@@SACI@Z ; icu_56::Collation::isContractionCE32
	add	esp, 4
	movsx	ecx, al
	test	ecx, ecx
	je	SHORT $LN33@compare
; Line 106
	mov	eax, DWORD PTR _this$[ebp]
	mov	esi, DWORD PTR [eax+4]
	mov	ecx, DWORD PTR _baseCE32$[ebp]
	push	ecx
	call	?indexFromCE32@Collation@icu_56@@SAHI@Z	; icu_56::Collation::indexFromCE32
	add	esp, 4
	mov	edx, DWORD PTR [esi+12]
	lea	eax, DWORD PTR [edx+eax*2]
	mov	DWORD PTR _q$72721[ebp], eax
; Line 107
	mov	eax, DWORD PTR _baseCE32$[ebp]
	and	eax, 256				; 00000100H
	je	SHORT $LN32@compare
; Line 108
	mov	DWORD PTR _baseCE32$[ebp], 1
; Line 109
	jmp	SHORT $LN31@compare
$LN32@compare:
; Line 110
	mov	eax, DWORD PTR _q$72721[ebp]
	push	eax
	call	?readCE32@CollationData@icu_56@@SAIPB_W@Z ; icu_56::CollationData::readCE32
	add	esp, 4
	push	eax
	mov	ecx, DWORD PTR _this$[ebp]
	mov	ecx, DWORD PTR [ecx+4]
	call	?getFinalCE32@CollationData@icu_56@@QBEII@Z ; icu_56::CollationData::getFinalCE32
	mov	DWORD PTR _baseCE32$[ebp], eax
$LN31@compare:
; Line 112
	mov	eax, DWORD PTR _q$72721[ebp]
	add	eax, 4
	push	eax
	mov	ecx, DWORD PTR _p$72717[ebp]
	add	ecx, 4
	push	ecx
	mov	edx, DWORD PTR _c$[ebp]
	push	edx
	mov	ecx, DWORD PTR _this$[ebp]
	call	?compareContractions@TailoredSet@icu_56@@AAEXHPB_W0@Z ; icu_56::TailoredSet::compareContractions
; Line 113
	jmp	SHORT $LN30@compare
$LN33@compare:
; Line 114
	mov	eax, DWORD PTR _p$72717[ebp]
	add	eax, 4
	push	eax
	mov	ecx, DWORD PTR _c$[ebp]
	push	ecx
	mov	ecx, DWORD PTR _this$[ebp]
	call	?addContractions@TailoredSet@icu_56@@AAEXHPB_W@Z ; icu_56::TailoredSet::addContractions
$LN30@compare:
; Line 115
	jmp	SHORT $LN29@compare
$LN36@compare:
; Line 116
	mov	eax, DWORD PTR _baseCE32$[ebp]
	push	eax
	call	?isContractionCE32@Collation@icu_56@@SACI@Z ; icu_56::Collation::isContractionCE32
	add	esp, 4
	movsx	ecx, al
	test	ecx, ecx
	je	SHORT $LN29@compare
; Line 117
	mov	eax, DWORD PTR _this$[ebp]
	mov	esi, DWORD PTR [eax+4]
	mov	ecx, DWORD PTR _baseCE32$[ebp]
	push	ecx
	call	?indexFromCE32@Collation@icu_56@@SAHI@Z	; icu_56::Collation::indexFromCE32
	add	esp, 4
	mov	edx, DWORD PTR [esi+12]
	lea	eax, DWORD PTR [edx+eax*2]
	mov	DWORD PTR _q$72727[ebp], eax
; Line 118
	mov	eax, DWORD PTR _q$72727[ebp]
	push	eax
	call	?readCE32@CollationData@icu_56@@SAIPB_W@Z ; icu_56::CollationData::readCE32
	add	esp, 4
	push	eax
	mov	ecx, DWORD PTR _this$[ebp]
	mov	ecx, DWORD PTR [ecx+4]
	call	?getFinalCE32@CollationData@icu_56@@QBEII@Z ; icu_56::CollationData::getFinalCE32
	mov	DWORD PTR _baseCE32$[ebp], eax
; Line 119
	mov	eax, DWORD PTR _q$72727[ebp]
	add	eax, 4
	push	eax
	mov	ecx, DWORD PTR _c$[ebp]
	push	ecx
	mov	ecx, DWORD PTR _this$[ebp]
	call	?addContractions@TailoredSet@icu_56@@AAEXHPB_W@Z ; icu_56::TailoredSet::addContractions
$LN29@compare:
; Line 123
	mov	eax, DWORD PTR _ce32$[ebp]
	push	eax
	call	?isSpecialCE32@Collation@icu_56@@SACI@Z	; icu_56::Collation::isSpecialCE32
	add	esp, 4
	movsx	ecx, al
	test	ecx, ecx
	je	$LN27@compare
; Line 124
	mov	eax, DWORD PTR _ce32$[ebp]
	push	eax
	call	?tagFromCE32@Collation@icu_56@@SAHI@Z	; icu_56::Collation::tagFromCE32
	add	esp, 4
	mov	DWORD PTR _tag$[ebp], eax
; Line 125
	cmp	DWORD PTR _tag$[ebp], 8
	jne	SHORT $LN44@compare
	mov	eax, DWORD PTR ?__LINE__Var@?1??compare@TailoredSet@icu_56@@AAEXHII@Z@4JA
	add	eax, 44					; 0000002cH
	mov	esi, esp
	push	eax
	push	OFFSET ??_C@_1GE@DBOIFKIN@?$AAd?$AA?3?$AA?2?$AAm?$AAo?$AAz?$AAi?$AAl?$AAl?$AAa?$AA?2?$AAi?$AAn?$AAt?$AAl?$AA?2?$AAi?$AAc?$AAu?$AA?2?$AAs?$AAo?$AAu?$AAr?$AAc?$AAe?$AA?2?$AAi?$AA1?$AA8?$AAn?$AA?2@
	push	OFFSET ??_C@_1DK@ONNJDIJG@?$AAt?$AAa?$AAg?$AA?5?$AA?$CB?$AA?$DN?$AA?5?$AAC?$AAo?$AAl?$AAl?$AAa?$AAt?$AAi?$AAo?$AAn?$AA?3?$AA?3?$AAP?$AAR?$AAE?$AAF?$AAI?$AAX?$AA_?$AAT?$AAA?$AAG?$AA?$AA@
	call	DWORD PTR __imp___wassert
	add	esp, 12					; 0000000cH
	cmp	esi, esp
	call	__RTC_CheckEsp
$LN44@compare:
; Line 126
	cmp	DWORD PTR _tag$[ebp], 9
	jne	SHORT $LN45@compare
	mov	eax, DWORD PTR ?__LINE__Var@?1??compare@TailoredSet@icu_56@@AAEXHII@Z@4JA
	add	eax, 45					; 0000002dH
	mov	esi, esp
	push	eax
	push	OFFSET ??_C@_1GE@DBOIFKIN@?$AAd?$AA?3?$AA?2?$AAm?$AAo?$AAz?$AAi?$AAl?$AAl?$AAa?$AA?2?$AAi?$AAn?$AAt?$AAl?$AA?2?$AAi?$AAc?$AAu?$AA?2?$AAs?$AAo?$AAu?$AAr?$AAc?$AAe?$AA?2?$AAi?$AA1?$AA8?$AAn?$AA?2@
	push	OFFSET ??_C@_1EE@MAJHOMOG@?$AAt?$AAa?$AAg?$AA?5?$AA?$CB?$AA?$DN?$AA?5?$AAC?$AAo?$AAl?$AAl?$AAa?$AAt?$AAi?$AAo?$AAn?$AA?3?$AA?3?$AAC?$AAO?$AAN?$AAT?$AAR?$AAA?$AAC?$AAT?$AAI?$AAO?$AAN?$AA_?$AAT?$AAA@
	call	DWORD PTR __imp___wassert
	add	esp, 12					; 0000000cH
	cmp	esi, esp
	call	__RTC_CheckEsp
$LN45@compare:
; Line 131
	cmp	DWORD PTR _tag$[ebp], 14		; 0000000eH
	jne	SHORT $LN46@compare
	mov	eax, DWORD PTR ?__LINE__Var@?1??compare@TailoredSet@icu_56@@AAEXHII@Z@4JA
	add	eax, 50					; 00000032H
	mov	esi, esp
	push	eax
	push	OFFSET ??_C@_1GE@DBOIFKIN@?$AAd?$AA?3?$AA?2?$AAm?$AAo?$AAz?$AAi?$AAl?$AAl?$AAa?$AA?2?$AAi?$AAn?$AAt?$AAl?$AA?2?$AAi?$AAc?$AAu?$AA?2?$AAs?$AAo?$AAu?$AAr?$AAc?$AAe?$AA?2?$AAi?$AA1?$AA8?$AAn?$AA?2@
	push	OFFSET ??_C@_1DK@GPJIMIKN@?$AAt?$AAa?$AAg?$AA?5?$AA?$CB?$AA?$DN?$AA?5?$AAC?$AAo?$AAl?$AAl?$AAa?$AAt?$AAi?$AAo?$AAn?$AA?3?$AA?3?$AAO?$AAF?$AAF?$AAS?$AAE?$AAT?$AA_?$AAT?$AAA?$AAG?$AA?$AA@
	call	DWORD PTR __imp___wassert
	add	esp, 12					; 0000000cH
	cmp	esi, esp
	call	__RTC_CheckEsp
$LN46@compare:
; Line 132
	jmp	SHORT $LN26@compare
$LN27@compare:
; Line 133
	mov	DWORD PTR _tag$[ebp], -1
$LN26@compare:
; Line 136
	mov	eax, DWORD PTR _baseCE32$[ebp]
	push	eax
	call	?isSpecialCE32@Collation@icu_56@@SACI@Z	; icu_56::Collation::isSpecialCE32
	add	esp, 4
	movsx	ecx, al
	test	ecx, ecx
	je	SHORT $LN25@compare
; Line 137
	mov	eax, DWORD PTR _baseCE32$[ebp]
	push	eax
	call	?tagFromCE32@Collation@icu_56@@SAHI@Z	; icu_56::Collation::tagFromCE32
	add	esp, 4
	mov	DWORD PTR _baseTag$[ebp], eax
; Line 138
	cmp	DWORD PTR _baseTag$[ebp], 8
	jne	SHORT $LN47@compare
	mov	eax, DWORD PTR ?__LINE__Var@?1??compare@TailoredSet@icu_56@@AAEXHII@Z@4JA
	add	eax, 57					; 00000039H
	mov	esi, esp
	push	eax
	push	OFFSET ??_C@_1GE@DBOIFKIN@?$AAd?$AA?3?$AA?2?$AAm?$AAo?$AAz?$AAi?$AAl?$AAl?$AAa?$AA?2?$AAi?$AAn?$AAt?$AAl?$AA?2?$AAi?$AAc?$AAu?$AA?2?$AAs?$AAo?$AAu?$AAr?$AAc?$AAe?$AA?2?$AAi?$AA1?$AA8?$AAn?$AA?2@
	push	OFFSET ??_C@_1EC@ONGEBLIE@?$AAb?$AAa?$AAs?$AAe?$AAT?$AAa?$AAg?$AA?5?$AA?$CB?$AA?$DN?$AA?5?$AAC?$AAo?$AAl?$AAl?$AAa?$AAt?$AAi?$AAo?$AAn?$AA?3?$AA?3?$AAP?$AAR?$AAE?$AAF?$AAI?$AAX?$AA_?$AAT?$AAA?$AAG@
	call	DWORD PTR __imp___wassert
	add	esp, 12					; 0000000cH
	cmp	esi, esp
	call	__RTC_CheckEsp
$LN47@compare:
; Line 139
	cmp	DWORD PTR _baseTag$[ebp], 9
	jne	SHORT $LN48@compare
	mov	eax, DWORD PTR ?__LINE__Var@?1??compare@TailoredSet@icu_56@@AAEXHII@Z@4JA
	add	eax, 58					; 0000003aH
	mov	esi, esp
	push	eax
	push	OFFSET ??_C@_1GE@DBOIFKIN@?$AAd?$AA?3?$AA?2?$AAm?$AAo?$AAz?$AAi?$AAl?$AAl?$AAa?$AA?2?$AAi?$AAn?$AAt?$AAl?$AA?2?$AAi?$AAc?$AAu?$AA?2?$AAs?$AAo?$AAu?$AAr?$AAc?$AAe?$AA?2?$AAi?$AA1?$AA8?$AAn?$AA?2@
	push	OFFSET ??_C@_1EM@BFEDMACD@?$AAb?$AAa?$AAs?$AAe?$AAT?$AAa?$AAg?$AA?5?$AA?$CB?$AA?$DN?$AA?5?$AAC?$AAo?$AAl?$AAl?$AAa?$AAt?$AAi?$AAo?$AAn?$AA?3?$AA?3?$AAC?$AAO?$AAN?$AAT?$AAR?$AAA?$AAC?$AAT?$AAI?$AAO@
	call	DWORD PTR __imp___wassert
	add	esp, 12					; 0000000cH
	cmp	esi, esp
	call	__RTC_CheckEsp
$LN48@compare:
; Line 140
	jmp	SHORT $LN24@compare
$LN25@compare:
; Line 141
	mov	DWORD PTR _baseTag$[ebp], -1
$LN24@compare:
; Line 145
	cmp	DWORD PTR _baseTag$[ebp], 14		; 0000000eH
	jne	$LN23@compare
; Line 151
	mov	eax, DWORD PTR _ce32$[ebp]
	push	eax
	call	?isLongPrimaryCE32@Collation@icu_56@@SACI@Z ; icu_56::Collation::isLongPrimaryCE32
	add	esp, 4
	movsx	ecx, al
	test	ecx, ecx
	jne	SHORT $LN22@compare
; Line 152
	mov	eax, DWORD PTR _c$[ebp]
	push	eax
	mov	ecx, DWORD PTR _this$[ebp]
	call	?add@TailoredSet@icu_56@@AAEXH@Z	; icu_56::TailoredSet::add
; Line 153
	jmp	$LN42@compare
$LN22@compare:
; Line 155
	mov	eax, DWORD PTR _this$[ebp]
	mov	esi, DWORD PTR [eax+4]
	mov	ecx, DWORD PTR _baseCE32$[ebp]
	push	ecx
	call	?indexFromCE32@Collation@icu_56@@SAHI@Z	; icu_56::Collation::indexFromCE32
	add	esp, 4
	mov	edx, DWORD PTR [esi+8]
	mov	ecx, DWORD PTR [edx+eax*8]
	mov	DWORD PTR _dataCE$72747[ebp], ecx
	mov	edx, DWORD PTR [edx+eax*8+4]
	mov	DWORD PTR _dataCE$72747[ebp+4], edx
; Line 156
	mov	eax, DWORD PTR _dataCE$72747[ebp+4]
	push	eax
	mov	ecx, DWORD PTR _dataCE$72747[ebp]
	push	ecx
	mov	edx, DWORD PTR _c$[ebp]
	push	edx
	call	?getThreeBytePrimaryForOffsetData@Collation@icu_56@@SAIH_J@Z ; icu_56::Collation::getThreeBytePrimaryForOffsetData
	add	esp, 12					; 0000000cH
	mov	DWORD PTR _p$72748[ebp], eax
; Line 157
	mov	eax, DWORD PTR _ce32$[ebp]
	push	eax
	call	?primaryFromLongPrimaryCE32@Collation@icu_56@@SAII@Z ; icu_56::Collation::primaryFromLongPrimaryCE32
	add	esp, 4
	cmp	eax, DWORD PTR _p$72748[ebp]
	je	SHORT $LN23@compare
; Line 158
	mov	eax, DWORD PTR _c$[ebp]
	push	eax
	mov	ecx, DWORD PTR _this$[ebp]
	call	?add@TailoredSet@icu_56@@AAEXH@Z	; icu_56::TailoredSet::add
; Line 159
	jmp	$LN42@compare
$LN23@compare:
; Line 163
	mov	eax, DWORD PTR _tag$[ebp]
	cmp	eax, DWORD PTR _baseTag$[ebp]
	je	SHORT $LN20@compare
; Line 164
	mov	eax, DWORD PTR _c$[ebp]
	push	eax
	mov	ecx, DWORD PTR _this$[ebp]
	call	?add@TailoredSet@icu_56@@AAEXH@Z	; icu_56::TailoredSet::add
; Line 165
	jmp	$LN42@compare
$LN20@compare:
; Line 168
	cmp	DWORD PTR _tag$[ebp], 5
	jne	$LN19@compare
; Line 169
	mov	eax, DWORD PTR _this$[ebp]
	mov	esi, DWORD PTR [eax]
	mov	ecx, DWORD PTR _ce32$[ebp]
	push	ecx
	call	?indexFromCE32@Collation@icu_56@@SAHI@Z	; icu_56::Collation::indexFromCE32
	add	esp, 4
	mov	edx, DWORD PTR [esi+4]
	lea	eax, DWORD PTR [edx+eax*4]
	mov	DWORD PTR _ce32s$72752[ebp], eax
; Line 170
	mov	eax, DWORD PTR _ce32$[ebp]
	push	eax
	call	?lengthFromCE32@Collation@icu_56@@SAHI@Z ; icu_56::Collation::lengthFromCE32
	add	esp, 4
	mov	DWORD PTR _length$72753[ebp], eax
; Line 172
	mov	eax, DWORD PTR _this$[ebp]
	mov	esi, DWORD PTR [eax+4]
	mov	ecx, DWORD PTR _baseCE32$[ebp]
	push	ecx
	call	?indexFromCE32@Collation@icu_56@@SAHI@Z	; icu_56::Collation::indexFromCE32
	add	esp, 4
	mov	edx, DWORD PTR [esi+4]
	lea	eax, DWORD PTR [edx+eax*4]
	mov	DWORD PTR _baseCE32s$72754[ebp], eax
; Line 173
	mov	eax, DWORD PTR _baseCE32$[ebp]
	push	eax
	call	?lengthFromCE32@Collation@icu_56@@SAHI@Z ; icu_56::Collation::lengthFromCE32
	add	esp, 4
	mov	DWORD PTR _baseLength$72755[ebp], eax
; Line 175
	mov	eax, DWORD PTR _length$72753[ebp]
	cmp	eax, DWORD PTR _baseLength$72755[ebp]
	je	SHORT $LN18@compare
; Line 176
	mov	eax, DWORD PTR _c$[ebp]
	push	eax
	mov	ecx, DWORD PTR _this$[ebp]
	call	?add@TailoredSet@icu_56@@AAEXH@Z	; icu_56::TailoredSet::add
; Line 177
	jmp	$LN42@compare
$LN18@compare:
; Line 179
	mov	DWORD PTR _i$72757[ebp], 0
	jmp	SHORT $LN17@compare
$LN16@compare:
	mov	eax, DWORD PTR _i$72757[ebp]
	add	eax, 1
	mov	DWORD PTR _i$72757[ebp], eax
$LN17@compare:
	mov	eax, DWORD PTR _i$72757[ebp]
	cmp	eax, DWORD PTR _length$72753[ebp]
	jge	SHORT $LN15@compare
; Line 180
	mov	eax, DWORD PTR _i$72757[ebp]
	mov	ecx, DWORD PTR _ce32s$72752[ebp]
	mov	edx, DWORD PTR _i$72757[ebp]
	mov	esi, DWORD PTR _baseCE32s$72754[ebp]
	mov	eax, DWORD PTR [ecx+eax*4]
	cmp	eax, DWORD PTR [esi+edx*4]
	je	SHORT $LN14@compare
; Line 181
	mov	eax, DWORD PTR _c$[ebp]
	push	eax
	mov	ecx, DWORD PTR _this$[ebp]
	call	?add@TailoredSet@icu_56@@AAEXH@Z	; icu_56::TailoredSet::add
; Line 182
	jmp	SHORT $LN15@compare
$LN14@compare:
; Line 184
	jmp	SHORT $LN16@compare
$LN15@compare:
	jmp	$LN42@compare
$LN19@compare:
; Line 185
	cmp	DWORD PTR _tag$[ebp], 6
	jne	$LN12@compare
; Line 186
	mov	eax, DWORD PTR _this$[ebp]
	mov	esi, DWORD PTR [eax]
	mov	ecx, DWORD PTR _ce32$[ebp]
	push	ecx
	call	?indexFromCE32@Collation@icu_56@@SAHI@Z	; icu_56::Collation::indexFromCE32
	add	esp, 4
	mov	edx, DWORD PTR [esi+8]
	lea	eax, DWORD PTR [edx+eax*8]
	mov	DWORD PTR _ces$72764[ebp], eax
; Line 187
	mov	eax, DWORD PTR _ce32$[ebp]
	push	eax
	call	?lengthFromCE32@Collation@icu_56@@SAHI@Z ; icu_56::Collation::lengthFromCE32
	add	esp, 4
	mov	DWORD PTR _length$72765[ebp], eax
; Line 189
	mov	eax, DWORD PTR _this$[ebp]
	mov	esi, DWORD PTR [eax+4]
	mov	ecx, DWORD PTR _baseCE32$[ebp]
	push	ecx
	call	?indexFromCE32@Collation@icu_56@@SAHI@Z	; icu_56::Collation::indexFromCE32
	add	esp, 4
	mov	edx, DWORD PTR [esi+8]
	lea	eax, DWORD PTR [edx+eax*8]
	mov	DWORD PTR _baseCEs$72766[ebp], eax
; Line 190
	mov	eax, DWORD PTR _baseCE32$[ebp]
	push	eax
	call	?lengthFromCE32@Collation@icu_56@@SAHI@Z ; icu_56::Collation::lengthFromCE32
	add	esp, 4
	mov	DWORD PTR _baseLength$72767[ebp], eax
; Line 192
	mov	eax, DWORD PTR _length$72765[ebp]
	cmp	eax, DWORD PTR _baseLength$72767[ebp]
	je	SHORT $LN11@compare
; Line 193
	mov	eax, DWORD PTR _c$[ebp]
	push	eax
	mov	ecx, DWORD PTR _this$[ebp]
	call	?add@TailoredSet@icu_56@@AAEXH@Z	; icu_56::TailoredSet::add
; Line 194
	jmp	$LN42@compare
$LN11@compare:
; Line 196
	mov	DWORD PTR _i$72769[ebp], 0
	jmp	SHORT $LN10@compare
$LN9@compare:
	mov	eax, DWORD PTR _i$72769[ebp]
	add	eax, 1
	mov	DWORD PTR _i$72769[ebp], eax
$LN10@compare:
	mov	eax, DWORD PTR _i$72769[ebp]
	cmp	eax, DWORD PTR _length$72765[ebp]
	jge	$LN8@compare
; Line 197
	mov	eax, DWORD PTR _i$72769[ebp]
	mov	ecx, DWORD PTR _ces$72764[ebp]
	mov	edx, DWORD PTR _i$72769[ebp]
	mov	esi, DWORD PTR _baseCEs$72766[ebp]
	mov	DWORD PTR tv623[ebp], ecx
	mov	DWORD PTR tv624[ebp], eax
	mov	DWORD PTR tv625[ebp], esi
	mov	DWORD PTR tv626[ebp], edx
	mov	eax, DWORD PTR tv624[ebp]
	mov	ecx, DWORD PTR tv623[ebp]
	mov	edx, DWORD PTR tv626[ebp]
	mov	esi, DWORD PTR tv625[ebp]
	mov	eax, DWORD PTR [ecx+eax*8]
	cmp	eax, DWORD PTR [esi+edx*8]
	jne	SHORT $LN49@compare
	mov	ecx, DWORD PTR tv624[ebp]
	mov	edx, DWORD PTR tv623[ebp]
	mov	eax, DWORD PTR tv626[ebp]
	mov	esi, DWORD PTR tv625[ebp]
	mov	ecx, DWORD PTR [edx+ecx*8+4]
	cmp	ecx, DWORD PTR [esi+eax*8+4]
	je	SHORT $LN7@compare
$LN49@compare:
; Line 198
	mov	eax, DWORD PTR _c$[ebp]
	push	eax
	mov	ecx, DWORD PTR _this$[ebp]
	call	?add@TailoredSet@icu_56@@AAEXH@Z	; icu_56::TailoredSet::add
; Line 199
	jmp	SHORT $LN8@compare
$LN7@compare:
; Line 201
	jmp	$LN9@compare
$LN8@compare:
	jmp	$LN42@compare
$LN12@compare:
; Line 202
	cmp	DWORD PTR _tag$[ebp], 12		; 0000000cH
	jne	$LN5@compare
; Line 204
	mov	esi, esp
	lea	eax, DWORD PTR _jamos$72776[ebp]
	push	eax
	mov	ecx, DWORD PTR _c$[ebp]
	push	ecx
	call	DWORD PTR __imp_?decompose@Hangul@icu_56@@SAHHQA_W@Z
	add	esp, 8
	cmp	esi, esp
	call	__RTC_CheckEsp
	mov	DWORD PTR _length$72777[ebp], eax
; Line 206
	movzx	eax, WORD PTR _jamos$72776[ebp]
	mov	esi, esp
	push	eax
	mov	ecx, DWORD PTR _this$[ebp]
	mov	edx, DWORD PTR [ecx+8]
	mov	eax, DWORD PTR _this$[ebp]
	mov	ecx, DWORD PTR [eax+8]
	mov	edx, DWORD PTR [edx]
	mov	eax, DWORD PTR [edx+24]
	call	eax
	cmp	esi, esp
	call	__RTC_CheckEsp
	movsx	ecx, al
	test	ecx, ecx
	jne	SHORT $LN3@compare
	movzx	eax, WORD PTR _jamos$72776[ebp+2]
	mov	esi, esp
	push	eax
	mov	ecx, DWORD PTR _this$[ebp]
	mov	edx, DWORD PTR [ecx+8]
	mov	eax, DWORD PTR _this$[ebp]
	mov	ecx, DWORD PTR [eax+8]
	mov	edx, DWORD PTR [edx]
	mov	eax, DWORD PTR [edx+24]
	call	eax
	cmp	esi, esp
	call	__RTC_CheckEsp
	movsx	ecx, al
	test	ecx, ecx
	jne	SHORT $LN3@compare
	cmp	DWORD PTR _length$72777[ebp], 3
	jne	SHORT $LN4@compare
	movzx	eax, WORD PTR _jamos$72776[ebp+4]
	mov	esi, esp
	push	eax
	mov	ecx, DWORD PTR _this$[ebp]
	mov	edx, DWORD PTR [ecx+8]
	mov	eax, DWORD PTR _this$[ebp]
	mov	ecx, DWORD PTR [eax+8]
	mov	edx, DWORD PTR [edx]
	mov	eax, DWORD PTR [edx+24]
	call	eax
	cmp	esi, esp
	call	__RTC_CheckEsp
	movsx	ecx, al
	test	ecx, ecx
	je	SHORT $LN4@compare
$LN3@compare:
; Line 207
	mov	eax, DWORD PTR _c$[ebp]
	push	eax
	mov	ecx, DWORD PTR _this$[ebp]
	call	?add@TailoredSet@icu_56@@AAEXH@Z	; icu_56::TailoredSet::add
$LN4@compare:
; Line 208
	jmp	SHORT $LN42@compare
$LN5@compare:
; Line 209
	mov	eax, DWORD PTR _ce32$[ebp]
	cmp	eax, DWORD PTR _baseCE32$[ebp]
	je	SHORT $LN42@compare
; Line 210
	mov	eax, DWORD PTR _c$[ebp]
	push	eax
	mov	ecx, DWORD PTR _this$[ebp]
	call	?add@TailoredSet@icu_56@@AAEXH@Z	; icu_56::TailoredSet::add
$LN42@compare:
; Line 212
	push	edx
	mov	ecx, ebp
	push	eax
	lea	edx, DWORD PTR $LN52@compare
	call	@_RTC_CheckStackVars@8
	pop	eax
	pop	edx
	pop	edi
	pop	esi
	pop	ebx
	mov	ecx, DWORD PTR __$ArrayPad$[ebp]
	xor	ecx, ebp
	call	@__security_check_cookie@4
	add	esp, 496				; 000001f0H
	cmp	ebp, esp
	call	__RTC_CheckEsp
	mov	esp, ebp
	pop	ebp
	ret	12					; 0000000cH
	npad	2
$LN52@compare:
	DD	1
	DD	$LN51@compare
$LN51@compare:
	DD	-272					; fffffef0H
	DD	6
	DD	$LN50@compare
$LN50@compare:
	DB	106					; 0000006aH
	DB	97					; 00000061H
	DB	109					; 0000006dH
	DB	111					; 0000006fH
	DB	115					; 00000073H
	DB	0
?compare@TailoredSet@icu_56@@AAEXHII@Z ENDP		; icu_56::TailoredSet::compare
_TEXT	ENDS
PUBLIC	?resetPrefix@TailoredSet@icu_56@@AAEXXZ		; icu_56::TailoredSet::resetPrefix
PUBLIC	?setPrefix@TailoredSet@icu_56@@AAEXABVUnicodeString@2@@Z ; icu_56::TailoredSet::setPrefix
PUBLIC	?addPrefix@TailoredSet@icu_56@@AAEXPBUCollationData@2@ABVUnicodeString@2@HI@Z ; icu_56::TailoredSet::addPrefix
PUBLIC	__$ArrayPad$
EXTRN	__imp_??1Iterator@UCharsTrie@icu_56@@QAE@XZ:PROC
EXTRN	__imp_??1UnicodeString@icu_56@@UAE@XZ:PROC
EXTRN	__imp_?getValue@Iterator@UCharsTrie@icu_56@@QBEHXZ:PROC
EXTRN	__imp_?compare@UnicodeString@icu_56@@QBECABV12@@Z:PROC
EXTRN	__imp_?getString@Iterator@UCharsTrie@icu_56@@QBEABVUnicodeString@3@XZ:PROC
EXTRN	__imp_?next@Iterator@UCharsTrie@icu_56@@QAECAAW4UErrorCode@@@Z:PROC
EXTRN	__imp_??0UnicodeString@icu_56@@QAE@_W@Z:PROC
EXTRN	__imp_??0Iterator@UCharsTrie@icu_56@@QAE@PB_WHAAW4UErrorCode@@@Z:PROC
;	COMDAT xdata$x
xdata$x	SEGMENT
__unwindtable$?comparePrefixes@TailoredSet@icu_56@@AAEXHPB_W0@Z DD 0ffffffffH
	DD	FLAT:__unwindfunclet$?comparePrefixes@TailoredSet@icu_56@@AAEXHPB_W0@Z$0
	DD	00H
	DD	FLAT:__unwindfunclet$?comparePrefixes@TailoredSet@icu_56@@AAEXHPB_W0@Z$1
	DD	01H
	DD	FLAT:__unwindfunclet$?comparePrefixes@TailoredSet@icu_56@@AAEXHPB_W0@Z$2
__ehfuncinfo$?comparePrefixes@TailoredSet@icu_56@@AAEXHPB_W0@Z DD 019930522H
	DD	03H
	DD	FLAT:__unwindtable$?comparePrefixes@TailoredSet@icu_56@@AAEXHPB_W0@Z
	DD	2 DUP(00H)
	DD	2 DUP(00H)
	DD	00H
	DD	01H
; Function compile flags: /Odtp /RTCsu /ZI
xdata$x	ENDS
;	COMDAT ?comparePrefixes@TailoredSet@icu_56@@AAEXHPB_W0@Z
_TEXT	SEGMENT
_cmp$72804 = -348					; size = 4
_none$ = -336						; size = 64
_bp$ = -264						; size = 4
_tp$ = -252						; size = 4
_basePrefixes$ = -240					; size = 100
_prefixes$ = -132					; size = 100
_this$ = -24						; size = 4
__$ArrayPad$ = -16					; size = 4
__$EHRec$ = -12						; size = 12
_c$ = 8							; size = 4
_p$ = 12						; size = 4
_q$ = 16						; size = 4
?comparePrefixes@TailoredSet@icu_56@@AAEXHPB_W0@Z PROC	; icu_56::TailoredSet::comparePrefixes, COMDAT
; _this$ = ecx
; Line 215
	push	ebp
	mov	ebp, esp
	push	-1
	push	__ehhandler$?comparePrefixes@TailoredSet@icu_56@@AAEXHPB_W0@Z
	mov	eax, DWORD PTR fs:0
	push	eax
	sub	esp, 532				; 00000214H
	push	ebx
	push	esi
	push	edi
	push	ecx
	lea	edi, DWORD PTR [ebp-544]
	mov	ecx, 133				; 00000085H
	mov	eax, -858993460				; ccccccccH
	rep stosd
	pop	ecx
	mov	eax, DWORD PTR ___security_cookie
	xor	eax, ebp
	mov	DWORD PTR __$ArrayPad$[ebp], eax
	push	eax
	lea	eax, DWORD PTR __$EHRec$[ebp]
	mov	DWORD PTR fs:0, eax
	mov	DWORD PTR _this$[ebp], ecx
; Line 217
	mov	eax, DWORD PTR _this$[ebp]
	add	eax, 80					; 00000050H
	mov	esi, esp
	push	eax
	push	0
	mov	ecx, DWORD PTR _p$[ebp]
	push	ecx
	lea	ecx, DWORD PTR _prefixes$[ebp]
	call	DWORD PTR __imp_??0Iterator@UCharsTrie@icu_56@@QAE@PB_WHAAW4UErrorCode@@@Z
	cmp	esi, esp
	call	__RTC_CheckEsp
	mov	DWORD PTR __$EHRec$[ebp+8], 0
; Line 218
	mov	eax, DWORD PTR _this$[ebp]
	add	eax, 80					; 00000050H
	mov	esi, esp
	push	eax
	push	0
	mov	ecx, DWORD PTR _q$[ebp]
	push	ecx
	lea	ecx, DWORD PTR _basePrefixes$[ebp]
	call	DWORD PTR __imp_??0Iterator@UCharsTrie@icu_56@@QAE@PB_WHAAW4UErrorCode@@@Z
	cmp	esi, esp
	call	__RTC_CheckEsp
	mov	BYTE PTR __$EHRec$[ebp+8], 1
; Line 219
	mov	DWORD PTR _tp$[ebp], 0
; Line 220
	mov	DWORD PTR _bp$[ebp], 0
; Line 223
	mov	esi, esp
	push	65535					; 0000ffffH
	lea	ecx, DWORD PTR _none$[ebp]
	call	DWORD PTR __imp_??0UnicodeString@icu_56@@QAE@_W@Z
	cmp	esi, esp
	call	__RTC_CheckEsp
	mov	BYTE PTR __$EHRec$[ebp+8], 2
$LN13@comparePre:
; Line 225
	cmp	DWORD PTR _tp$[ebp], 0
	jne	SHORT $LN11@comparePre
; Line 226
	mov	eax, DWORD PTR _this$[ebp]
	add	eax, 80					; 00000050H
	mov	esi, esp
	push	eax
	lea	ecx, DWORD PTR _prefixes$[ebp]
	call	DWORD PTR __imp_?next@Iterator@UCharsTrie@icu_56@@QAECAAW4UErrorCode@@@Z
	cmp	esi, esp
	call	__RTC_CheckEsp
	movsx	ecx, al
	test	ecx, ecx
	je	SHORT $LN10@comparePre
; Line 227
	mov	esi, esp
	lea	ecx, DWORD PTR _prefixes$[ebp]
	call	DWORD PTR __imp_?getString@Iterator@UCharsTrie@icu_56@@QBEABVUnicodeString@3@XZ
	cmp	esi, esp
	call	__RTC_CheckEsp
	mov	DWORD PTR _tp$[ebp], eax
; Line 228
	jmp	SHORT $LN11@comparePre
$LN10@comparePre:
; Line 229
	lea	eax, DWORD PTR _none$[ebp]
	mov	DWORD PTR _tp$[ebp], eax
$LN11@comparePre:
; Line 232
	cmp	DWORD PTR _bp$[ebp], 0
	jne	SHORT $LN8@comparePre
; Line 233
	mov	eax, DWORD PTR _this$[ebp]
	add	eax, 80					; 00000050H
	mov	esi, esp
	push	eax
	lea	ecx, DWORD PTR _basePrefixes$[ebp]
	call	DWORD PTR __imp_?next@Iterator@UCharsTrie@icu_56@@QAECAAW4UErrorCode@@@Z
	cmp	esi, esp
	call	__RTC_CheckEsp
	movsx	ecx, al
	test	ecx, ecx
	je	SHORT $LN7@comparePre
; Line 234
	mov	esi, esp
	lea	ecx, DWORD PTR _basePrefixes$[ebp]
	call	DWORD PTR __imp_?getString@Iterator@UCharsTrie@icu_56@@QBEABVUnicodeString@3@XZ
	cmp	esi, esp
	call	__RTC_CheckEsp
	mov	DWORD PTR _bp$[ebp], eax
; Line 235
	jmp	SHORT $LN8@comparePre
$LN7@comparePre:
; Line 236
	lea	eax, DWORD PTR _none$[ebp]
	mov	DWORD PTR _bp$[ebp], eax
$LN8@comparePre:
; Line 239
	mov	eax, DWORD PTR _tp$[ebp]
	lea	ecx, DWORD PTR _none$[ebp]
	cmp	eax, ecx
	jne	SHORT $LN5@comparePre
	mov	eax, DWORD PTR _bp$[ebp]
	lea	ecx, DWORD PTR _none$[ebp]
	cmp	eax, ecx
	jne	SHORT $LN5@comparePre
	jmp	$LN12@comparePre
$LN5@comparePre:
; Line 240
	mov	esi, esp
	mov	eax, DWORD PTR _bp$[ebp]
	push	eax
	mov	ecx, DWORD PTR _tp$[ebp]
	call	DWORD PTR __imp_?compare@UnicodeString@icu_56@@QBECABV12@@Z
	cmp	esi, esp
	call	__RTC_CheckEsp
	movsx	ecx, al
	mov	DWORD PTR _cmp$72804[ebp], ecx
; Line 241
	cmp	DWORD PTR _cmp$72804[ebp], 0
	jge	SHORT $LN4@comparePre
; Line 243
	mov	esi, esp
	lea	ecx, DWORD PTR _prefixes$[ebp]
	call	DWORD PTR __imp_?getValue@Iterator@UCharsTrie@icu_56@@QBEHXZ
	cmp	esi, esp
	call	__RTC_CheckEsp
	push	eax
	mov	eax, DWORD PTR _c$[ebp]
	push	eax
	mov	ecx, DWORD PTR _tp$[ebp]
	push	ecx
	mov	edx, DWORD PTR _this$[ebp]
	mov	eax, DWORD PTR [edx]
	push	eax
	mov	ecx, DWORD PTR _this$[ebp]
	call	?addPrefix@TailoredSet@icu_56@@AAEXPBUCollationData@2@ABVUnicodeString@2@HI@Z ; icu_56::TailoredSet::addPrefix
; Line 244
	mov	DWORD PTR _tp$[ebp], 0
	jmp	$LN3@comparePre
$LN4@comparePre:
; Line 245
	cmp	DWORD PTR _cmp$72804[ebp], 0
	jle	SHORT $LN2@comparePre
; Line 247
	mov	esi, esp
	lea	ecx, DWORD PTR _basePrefixes$[ebp]
	call	DWORD PTR __imp_?getValue@Iterator@UCharsTrie@icu_56@@QBEHXZ
	cmp	esi, esp
	call	__RTC_CheckEsp
	push	eax
	mov	eax, DWORD PTR _c$[ebp]
	push	eax
	mov	ecx, DWORD PTR _bp$[ebp]
	push	ecx
	mov	edx, DWORD PTR _this$[ebp]
	mov	eax, DWORD PTR [edx+4]
	push	eax
	mov	ecx, DWORD PTR _this$[ebp]
	call	?addPrefix@TailoredSet@icu_56@@AAEXPBUCollationData@2@ABVUnicodeString@2@HI@Z ; icu_56::TailoredSet::addPrefix
; Line 248
	mov	DWORD PTR _bp$[ebp], 0
; Line 249
	jmp	SHORT $LN3@comparePre
$LN2@comparePre:
; Line 250
	mov	eax, DWORD PTR _tp$[ebp]
	push	eax
	mov	ecx, DWORD PTR _this$[ebp]
	call	?setPrefix@TailoredSet@icu_56@@AAEXABVUnicodeString@2@@Z ; icu_56::TailoredSet::setPrefix
; Line 251
	mov	esi, esp
	lea	ecx, DWORD PTR _basePrefixes$[ebp]
	call	DWORD PTR __imp_?getValue@Iterator@UCharsTrie@icu_56@@QBEHXZ
	cmp	esi, esp
	call	__RTC_CheckEsp
	push	eax
	mov	esi, esp
	lea	ecx, DWORD PTR _prefixes$[ebp]
	call	DWORD PTR __imp_?getValue@Iterator@UCharsTrie@icu_56@@QBEHXZ
	cmp	esi, esp
	call	__RTC_CheckEsp
	push	eax
	mov	eax, DWORD PTR _c$[ebp]
	push	eax
	mov	ecx, DWORD PTR _this$[ebp]
	call	?compare@TailoredSet@icu_56@@AAEXHII@Z	; icu_56::TailoredSet::compare
; Line 252
	mov	ecx, DWORD PTR _this$[ebp]
	call	?resetPrefix@TailoredSet@icu_56@@AAEXXZ	; icu_56::TailoredSet::resetPrefix
; Line 253
	mov	DWORD PTR _tp$[ebp], 0
; Line 254
	mov	DWORD PTR _bp$[ebp], 0
$LN3@comparePre:
; Line 256
	jmp	$LN13@comparePre
$LN12@comparePre:
; Line 257
	mov	BYTE PTR __$EHRec$[ebp+8], 1
	mov	esi, esp
	lea	ecx, DWORD PTR _none$[ebp]
	call	DWORD PTR __imp_??1UnicodeString@icu_56@@UAE@XZ
	cmp	esi, esp
	call	__RTC_CheckEsp
	mov	BYTE PTR __$EHRec$[ebp+8], 0
	mov	esi, esp
	lea	ecx, DWORD PTR _basePrefixes$[ebp]
	call	DWORD PTR __imp_??1Iterator@UCharsTrie@icu_56@@QAE@XZ
	cmp	esi, esp
	call	__RTC_CheckEsp
	mov	DWORD PTR __$EHRec$[ebp+8], -1
	mov	esi, esp
	lea	ecx, DWORD PTR _prefixes$[ebp]
	call	DWORD PTR __imp_??1Iterator@UCharsTrie@icu_56@@QAE@XZ
	cmp	esi, esp
	call	__RTC_CheckEsp
	push	edx
	mov	ecx, ebp
	push	eax
	lea	edx, DWORD PTR $LN24@comparePre
	call	@_RTC_CheckStackVars@8
	pop	eax
	pop	edx
	mov	ecx, DWORD PTR __$EHRec$[ebp]
	mov	DWORD PTR fs:0, ecx
	pop	ecx
	pop	edi
	pop	esi
	pop	ebx
	mov	ecx, DWORD PTR __$ArrayPad$[ebp]
	xor	ecx, ebp
	call	@__security_check_cookie@4
	add	esp, 544				; 00000220H
	cmp	ebp, esp
	call	__RTC_CheckEsp
	mov	esp, ebp
	pop	ebp
	ret	12					; 0000000cH
$LN24@comparePre:
	DD	3
	DD	$LN23@comparePre
$LN23@comparePre:
	DD	-132					; ffffff7cH
	DD	100					; 00000064H
	DD	$LN19@comparePre
	DD	-240					; ffffff10H
	DD	100					; 00000064H
	DD	$LN20@comparePre
	DD	-336					; fffffeb0H
	DD	64					; 00000040H
	DD	$LN21@comparePre
$LN21@comparePre:
	DB	110					; 0000006eH
	DB	111					; 0000006fH
	DB	110					; 0000006eH
	DB	101					; 00000065H
	DB	0
$LN20@comparePre:
	DB	98					; 00000062H
	DB	97					; 00000061H
	DB	115					; 00000073H
	DB	101					; 00000065H
	DB	80					; 00000050H
	DB	114					; 00000072H
	DB	101					; 00000065H
	DB	102					; 00000066H
	DB	105					; 00000069H
	DB	120					; 00000078H
	DB	101					; 00000065H
	DB	115					; 00000073H
	DB	0
$LN19@comparePre:
	DB	112					; 00000070H
	DB	114					; 00000072H
	DB	101					; 00000065H
	DB	102					; 00000066H
	DB	105					; 00000069H
	DB	120					; 00000078H
	DB	101					; 00000065H
	DB	115					; 00000073H
	DB	0
_TEXT	ENDS
;	COMDAT text$x
text$x	SEGMENT
__unwindfunclet$?comparePrefixes@TailoredSet@icu_56@@AAEXHPB_W0@Z$0:
	mov	esi, esp
	lea	ecx, DWORD PTR _prefixes$[ebp]
	call	DWORD PTR __imp_??1Iterator@UCharsTrie@icu_56@@QAE@XZ
	cmp	esi, esp
	jmp	__RTC_CheckEsp
__unwindfunclet$?comparePrefixes@TailoredSet@icu_56@@AAEXHPB_W0@Z$1:
	mov	esi, esp
	lea	ecx, DWORD PTR _basePrefixes$[ebp]
	call	DWORD PTR __imp_??1Iterator@UCharsTrie@icu_56@@QAE@XZ
	cmp	esi, esp
	jmp	__RTC_CheckEsp
__unwindfunclet$?comparePrefixes@TailoredSet@icu_56@@AAEXHPB_W0@Z$2:
	mov	esi, esp
	lea	ecx, DWORD PTR _none$[ebp]
	call	DWORD PTR __imp_??1UnicodeString@icu_56@@UAE@XZ
	cmp	esi, esp
	jmp	__RTC_CheckEsp
__ehhandler$?comparePrefixes@TailoredSet@icu_56@@AAEXHPB_W0@Z:
	mov	edx, DWORD PTR [esp+8]
	lea	eax, DWORD PTR [edx+12]
	mov	ecx, DWORD PTR [edx-548]
	xor	ecx, eax
	call	@__security_check_cookie@4
	mov	ecx, DWORD PTR [edx-4]
	xor	ecx, eax
	call	@__security_check_cookie@4
	mov	eax, OFFSET __ehfuncinfo$?comparePrefixes@TailoredSet@icu_56@@AAEXHPB_W0@Z
	jmp	___CxxFrameHandler3
text$x	ENDS
?comparePrefixes@TailoredSet@icu_56@@AAEXHPB_W0@Z ENDP	; icu_56::TailoredSet::comparePrefixes
EXTRN	__imp_?reverse@UnicodeString@icu_56@@QAEAAV12@XZ:PROC
EXTRN	__imp_??4UnicodeString@icu_56@@QAEAAV01@ABV01@@Z:PROC
; Function compile flags: /Odtp /RTCsu /ZI
;	COMDAT ?setPrefix@TailoredSet@icu_56@@AAEXABVUnicodeString@2@@Z
_TEXT	SEGMENT
_this$ = -8						; size = 4
_pfx$ = 8						; size = 4
?setPrefix@TailoredSet@icu_56@@AAEXABVUnicodeString@2@@Z PROC ; icu_56::TailoredSet::setPrefix, COMDAT
; _this$ = ecx
; File d:\mozilla\intl\icu\source\i18n\collationsets.h
; Line 69
	push	ebp
	mov	ebp, esp
	sub	esp, 204				; 000000ccH
	push	ebx
	push	esi
	push	edi
	push	ecx
	lea	edi, DWORD PTR [ebp-204]
	mov	ecx, 51					; 00000033H
	mov	eax, -858993460				; ccccccccH
	rep stosd
	pop	ecx
	mov	DWORD PTR _this$[ebp], ecx
; Line 70
	mov	esi, esp
	mov	eax, DWORD PTR _pfx$[ebp]
	push	eax
	mov	ecx, DWORD PTR _this$[ebp]
	add	ecx, 12					; 0000000cH
	call	DWORD PTR __imp_??4UnicodeString@icu_56@@QAEAAV01@ABV01@@Z
	cmp	esi, esp
	call	__RTC_CheckEsp
; Line 71
	mov	ecx, DWORD PTR _this$[ebp]
	add	ecx, 12					; 0000000cH
	mov	esi, esp
	call	DWORD PTR __imp_?reverse@UnicodeString@icu_56@@QAEAAV12@XZ
	cmp	esi, esp
	call	__RTC_CheckEsp
; Line 72
	pop	edi
	pop	esi
	pop	ebx
	add	esp, 204				; 000000ccH
	cmp	ebp, esp
	call	__RTC_CheckEsp
	mov	esp, ebp
	pop	ebp
	ret	4
?setPrefix@TailoredSet@icu_56@@AAEXABVUnicodeString@2@@Z ENDP ; icu_56::TailoredSet::setPrefix
_TEXT	ENDS
EXTRN	__imp_?remove@UnicodeString@icu_56@@QAEAAV12@XZ:PROC
; Function compile flags: /Odtp /RTCsu /ZI
;	COMDAT ?resetPrefix@TailoredSet@icu_56@@AAEXXZ
_TEXT	SEGMENT
_this$ = -8						; size = 4
?resetPrefix@TailoredSet@icu_56@@AAEXXZ PROC		; icu_56::TailoredSet::resetPrefix, COMDAT
; _this$ = ecx
; Line 73
	push	ebp
	mov	ebp, esp
	sub	esp, 204				; 000000ccH
	push	ebx
	push	esi
	push	edi
	push	ecx
	lea	edi, DWORD PTR [ebp-204]
	mov	ecx, 51					; 00000033H
	mov	eax, -858993460				; ccccccccH
	rep stosd
	pop	ecx
	mov	DWORD PTR _this$[ebp], ecx
; Line 74
	mov	ecx, DWORD PTR _this$[ebp]
	add	ecx, 12					; 0000000cH
	mov	esi, esp
	call	DWORD PTR __imp_?remove@UnicodeString@icu_56@@QAEAAV12@XZ
	cmp	esi, esp
	call	__RTC_CheckEsp
; Line 75
	pop	edi
	pop	esi
	pop	ebx
	add	esp, 204				; 000000ccH
	cmp	ebp, esp
	call	__RTC_CheckEsp
	mov	esp, ebp
	pop	ebp
	ret	0
?resetPrefix@TailoredSet@icu_56@@AAEXXZ ENDP		; icu_56::TailoredSet::resetPrefix
_TEXT	ENDS
PUBLIC	?addSuffix@TailoredSet@icu_56@@AAEXHABVUnicodeString@2@@Z ; icu_56::TailoredSet::addSuffix
PUBLIC	__$ArrayPad$
EXTRN	__imp_?append@UnicodeString@icu_56@@QAEAAV12@_W@Z:PROC
;	COMDAT xdata$x
; File d:\mozilla\intl\icu\source\i18n\collationsets.cpp
xdata$x	SEGMENT
__unwindtable$?compareContractions@TailoredSet@icu_56@@AAEXHPB_W0@Z DD 0ffffffffH
	DD	FLAT:__unwindfunclet$?compareContractions@TailoredSet@icu_56@@AAEXHPB_W0@Z$0
	DD	00H
	DD	FLAT:__unwindfunclet$?compareContractions@TailoredSet@icu_56@@AAEXHPB_W0@Z$1
	DD	01H
	DD	FLAT:__unwindfunclet$?compareContractions@TailoredSet@icu_56@@AAEXHPB_W0@Z$2
__ehfuncinfo$?compareContractions@TailoredSet@icu_56@@AAEXHPB_W0@Z DD 019930522H
	DD	03H
	DD	FLAT:__unwindtable$?compareContractions@TailoredSet@icu_56@@AAEXHPB_W0@Z
	DD	2 DUP(00H)
	DD	2 DUP(00H)
	DD	00H
	DD	01H
; Function compile flags: /Odtp /RTCsu /ZI
xdata$x	ENDS
;	COMDAT ?compareContractions@TailoredSet@icu_56@@AAEXHPB_W0@Z
_TEXT	SEGMENT
_cmp$72836 = -348					; size = 4
_none$ = -336						; size = 64
_bs$ = -264						; size = 4
_ts$ = -252						; size = 4
_baseSuffixes$ = -240					; size = 100
_suffixes$ = -132					; size = 100
_this$ = -24						; size = 4
__$ArrayPad$ = -16					; size = 4
__$EHRec$ = -12						; size = 12
_c$ = 8							; size = 4
_p$ = 12						; size = 4
_q$ = 16						; size = 4
?compareContractions@TailoredSet@icu_56@@AAEXHPB_W0@Z PROC ; icu_56::TailoredSet::compareContractions, COMDAT
; _this$ = ecx
; Line 260
	push	ebp
	mov	ebp, esp
	push	-1
	push	__ehhandler$?compareContractions@TailoredSet@icu_56@@AAEXHPB_W0@Z
	mov	eax, DWORD PTR fs:0
	push	eax
	sub	esp, 532				; 00000214H
	push	ebx
	push	esi
	push	edi
	push	ecx
	lea	edi, DWORD PTR [ebp-544]
	mov	ecx, 133				; 00000085H
	mov	eax, -858993460				; ccccccccH
	rep stosd
	pop	ecx
	mov	eax, DWORD PTR ___security_cookie
	xor	eax, ebp
	mov	DWORD PTR __$ArrayPad$[ebp], eax
	push	eax
	lea	eax, DWORD PTR __$EHRec$[ebp]
	mov	DWORD PTR fs:0, eax
	mov	DWORD PTR _this$[ebp], ecx
; Line 262
	mov	eax, DWORD PTR _this$[ebp]
	add	eax, 80					; 00000050H
	mov	esi, esp
	push	eax
	push	0
	mov	ecx, DWORD PTR _p$[ebp]
	push	ecx
	lea	ecx, DWORD PTR _suffixes$[ebp]
	call	DWORD PTR __imp_??0Iterator@UCharsTrie@icu_56@@QAE@PB_WHAAW4UErrorCode@@@Z
	cmp	esi, esp
	call	__RTC_CheckEsp
	mov	DWORD PTR __$EHRec$[ebp+8], 0
; Line 263
	mov	eax, DWORD PTR _this$[ebp]
	add	eax, 80					; 00000050H
	mov	esi, esp
	push	eax
	push	0
	mov	ecx, DWORD PTR _q$[ebp]
	push	ecx
	lea	ecx, DWORD PTR _baseSuffixes$[ebp]
	call	DWORD PTR __imp_??0Iterator@UCharsTrie@icu_56@@QAE@PB_WHAAW4UErrorCode@@@Z
	cmp	esi, esp
	call	__RTC_CheckEsp
	mov	BYTE PTR __$EHRec$[ebp+8], 1
; Line 264
	mov	DWORD PTR _ts$[ebp], 0
; Line 265
	mov	DWORD PTR _bs$[ebp], 0
; Line 269
	mov	esi, esp
	push	65535					; 0000ffffH
	lea	ecx, DWORD PTR _none$[ebp]
	call	DWORD PTR __imp_??0UnicodeString@icu_56@@QAE@_W@Z
	cmp	esi, esp
	call	__RTC_CheckEsp
	mov	BYTE PTR __$EHRec$[ebp+8], 2
; Line 270
	mov	esi, esp
	push	65535					; 0000ffffH
	lea	ecx, DWORD PTR _none$[ebp]
	call	DWORD PTR __imp_?append@UnicodeString@icu_56@@QAEAAV12@_W@Z
	cmp	esi, esp
	call	__RTC_CheckEsp
$LN13@compareCon:
; Line 272
	cmp	DWORD PTR _ts$[ebp], 0
	jne	SHORT $LN11@compareCon
; Line 273
	mov	eax, DWORD PTR _this$[ebp]
	add	eax, 80					; 00000050H
	mov	esi, esp
	push	eax
	lea	ecx, DWORD PTR _suffixes$[ebp]
	call	DWORD PTR __imp_?next@Iterator@UCharsTrie@icu_56@@QAECAAW4UErrorCode@@@Z
	cmp	esi, esp
	call	__RTC_CheckEsp
	movsx	ecx, al
	test	ecx, ecx
	je	SHORT $LN10@compareCon
; Line 274
	mov	esi, esp
	lea	ecx, DWORD PTR _suffixes$[ebp]
	call	DWORD PTR __imp_?getString@Iterator@UCharsTrie@icu_56@@QBEABVUnicodeString@3@XZ
	cmp	esi, esp
	call	__RTC_CheckEsp
	mov	DWORD PTR _ts$[ebp], eax
; Line 275
	jmp	SHORT $LN11@compareCon
$LN10@compareCon:
; Line 276
	lea	eax, DWORD PTR _none$[ebp]
	mov	DWORD PTR _ts$[ebp], eax
$LN11@compareCon:
; Line 279
	cmp	DWORD PTR _bs$[ebp], 0
	jne	SHORT $LN8@compareCon
; Line 280
	mov	eax, DWORD PTR _this$[ebp]
	add	eax, 80					; 00000050H
	mov	esi, esp
	push	eax
	lea	ecx, DWORD PTR _baseSuffixes$[ebp]
	call	DWORD PTR __imp_?next@Iterator@UCharsTrie@icu_56@@QAECAAW4UErrorCode@@@Z
	cmp	esi, esp
	call	__RTC_CheckEsp
	movsx	ecx, al
	test	ecx, ecx
	je	SHORT $LN7@compareCon
; Line 281
	mov	esi, esp
	lea	ecx, DWORD PTR _baseSuffixes$[ebp]
	call	DWORD PTR __imp_?getString@Iterator@UCharsTrie@icu_56@@QBEABVUnicodeString@3@XZ
	cmp	esi, esp
	call	__RTC_CheckEsp
	mov	DWORD PTR _bs$[ebp], eax
; Line 282
	jmp	SHORT $LN8@compareCon
$LN7@compareCon:
; Line 283
	lea	eax, DWORD PTR _none$[ebp]
	mov	DWORD PTR _bs$[ebp], eax
$LN8@compareCon:
; Line 286
	mov	eax, DWORD PTR _ts$[ebp]
	lea	ecx, DWORD PTR _none$[ebp]
	cmp	eax, ecx
	jne	SHORT $LN5@compareCon
	mov	eax, DWORD PTR _bs$[ebp]
	lea	ecx, DWORD PTR _none$[ebp]
	cmp	eax, ecx
	jne	SHORT $LN5@compareCon
	jmp	$LN12@compareCon
$LN5@compareCon:
; Line 287
	mov	esi, esp
	mov	eax, DWORD PTR _bs$[ebp]
	push	eax
	mov	ecx, DWORD PTR _ts$[ebp]
	call	DWORD PTR __imp_?compare@UnicodeString@icu_56@@QBECABV12@@Z
	cmp	esi, esp
	call	__RTC_CheckEsp
	movsx	ecx, al
	mov	DWORD PTR _cmp$72836[ebp], ecx
; Line 288
	cmp	DWORD PTR _cmp$72836[ebp], 0
	jge	SHORT $LN4@compareCon
; Line 290
	mov	eax, DWORD PTR _ts$[ebp]
	push	eax
	mov	ecx, DWORD PTR _c$[ebp]
	push	ecx
	mov	ecx, DWORD PTR _this$[ebp]
	call	?addSuffix@TailoredSet@icu_56@@AAEXHABVUnicodeString@2@@Z ; icu_56::TailoredSet::addSuffix
; Line 291
	mov	DWORD PTR _ts$[ebp], 0
	jmp	$LN3@compareCon
$LN4@compareCon:
; Line 292
	cmp	DWORD PTR _cmp$72836[ebp], 0
	jle	SHORT $LN2@compareCon
; Line 294
	mov	eax, DWORD PTR _bs$[ebp]
	push	eax
	mov	ecx, DWORD PTR _c$[ebp]
	push	ecx
	mov	ecx, DWORD PTR _this$[ebp]
	call	?addSuffix@TailoredSet@icu_56@@AAEXHABVUnicodeString@2@@Z ; icu_56::TailoredSet::addSuffix
; Line 295
	mov	DWORD PTR _bs$[ebp], 0
; Line 296
	jmp	SHORT $LN3@compareCon
$LN2@compareCon:
; Line 297
	mov	eax, DWORD PTR _this$[ebp]
	mov	ecx, DWORD PTR _ts$[ebp]
	mov	DWORD PTR [eax+76], ecx
; Line 298
	mov	esi, esp
	lea	ecx, DWORD PTR _baseSuffixes$[ebp]
	call	DWORD PTR __imp_?getValue@Iterator@UCharsTrie@icu_56@@QBEHXZ
	cmp	esi, esp
	call	__RTC_CheckEsp
	push	eax
	mov	esi, esp
	lea	ecx, DWORD PTR _suffixes$[ebp]
	call	DWORD PTR __imp_?getValue@Iterator@UCharsTrie@icu_56@@QBEHXZ
	cmp	esi, esp
	call	__RTC_CheckEsp
	push	eax
	mov	eax, DWORD PTR _c$[ebp]
	push	eax
	mov	ecx, DWORD PTR _this$[ebp]
	call	?compare@TailoredSet@icu_56@@AAEXHII@Z	; icu_56::TailoredSet::compare
; Line 299
	mov	eax, DWORD PTR _this$[ebp]
	mov	DWORD PTR [eax+76], 0
; Line 300
	mov	DWORD PTR _ts$[ebp], 0
; Line 301
	mov	DWORD PTR _bs$[ebp], 0
$LN3@compareCon:
; Line 303
	jmp	$LN13@compareCon
$LN12@compareCon:
; Line 304
	mov	BYTE PTR __$EHRec$[ebp+8], 1
	mov	esi, esp
	lea	ecx, DWORD PTR _none$[ebp]
	call	DWORD PTR __imp_??1UnicodeString@icu_56@@UAE@XZ
	cmp	esi, esp
	call	__RTC_CheckEsp
	mov	BYTE PTR __$EHRec$[ebp+8], 0
	mov	esi, esp
	lea	ecx, DWORD PTR _baseSuffixes$[ebp]
	call	DWORD PTR __imp_??1Iterator@UCharsTrie@icu_56@@QAE@XZ
	cmp	esi, esp
	call	__RTC_CheckEsp
	mov	DWORD PTR __$EHRec$[ebp+8], -1
	mov	esi, esp
	lea	ecx, DWORD PTR _suffixes$[ebp]
	call	DWORD PTR __imp_??1Iterator@UCharsTrie@icu_56@@QAE@XZ
	cmp	esi, esp
	call	__RTC_CheckEsp
	push	edx
	mov	ecx, ebp
	push	eax
	lea	edx, DWORD PTR $LN24@compareCon
	call	@_RTC_CheckStackVars@8
	pop	eax
	pop	edx
	mov	ecx, DWORD PTR __$EHRec$[ebp]
	mov	DWORD PTR fs:0, ecx
	pop	ecx
	pop	edi
	pop	esi
	pop	ebx
	mov	ecx, DWORD PTR __$ArrayPad$[ebp]
	xor	ecx, ebp
	call	@__security_check_cookie@4
	add	esp, 544				; 00000220H
	cmp	ebp, esp
	call	__RTC_CheckEsp
	mov	esp, ebp
	pop	ebp
	ret	12					; 0000000cH
$LN24@compareCon:
	DD	3
	DD	$LN23@compareCon
$LN23@compareCon:
	DD	-132					; ffffff7cH
	DD	100					; 00000064H
	DD	$LN19@compareCon
	DD	-240					; ffffff10H
	DD	100					; 00000064H
	DD	$LN20@compareCon
	DD	-336					; fffffeb0H
	DD	64					; 00000040H
	DD	$LN21@compareCon
$LN21@compareCon:
	DB	110					; 0000006eH
	DB	111					; 0000006fH
	DB	110					; 0000006eH
	DB	101					; 00000065H
	DB	0
$LN20@compareCon:
	DB	98					; 00000062H
	DB	97					; 00000061H
	DB	115					; 00000073H
	DB	101					; 00000065H
	DB	83					; 00000053H
	DB	117					; 00000075H
	DB	102					; 00000066H
	DB	102					; 00000066H
	DB	105					; 00000069H
	DB	120					; 00000078H
	DB	101					; 00000065H
	DB	115					; 00000073H
	DB	0
$LN19@compareCon:
	DB	115					; 00000073H
	DB	117					; 00000075H
	DB	102					; 00000066H
	DB	102					; 00000066H
	DB	105					; 00000069H
	DB	120					; 00000078H
	DB	101					; 00000065H
	DB	115					; 00000073H
	DB	0
_TEXT	ENDS
;	COMDAT text$x
text$x	SEGMENT
__unwindfunclet$?compareContractions@TailoredSet@icu_56@@AAEXHPB_W0@Z$0:
	mov	esi, esp
	lea	ecx, DWORD PTR _suffixes$[ebp]
	call	DWORD PTR __imp_??1Iterator@UCharsTrie@icu_56@@QAE@XZ
	cmp	esi, esp
	jmp	__RTC_CheckEsp
__unwindfunclet$?compareContractions@TailoredSet@icu_56@@AAEXHPB_W0@Z$1:
	mov	esi, esp
	lea	ecx, DWORD PTR _baseSuffixes$[ebp]
	call	DWORD PTR __imp_??1Iterator@UCharsTrie@icu_56@@QAE@XZ
	cmp	esi, esp
	jmp	__RTC_CheckEsp
__unwindfunclet$?compareContractions@TailoredSet@icu_56@@AAEXHPB_W0@Z$2:
	mov	esi, esp
	lea	ecx, DWORD PTR _none$[ebp]
	call	DWORD PTR __imp_??1UnicodeString@icu_56@@UAE@XZ
	cmp	esi, esp
	jmp	__RTC_CheckEsp
__ehhandler$?compareContractions@TailoredSet@icu_56@@AAEXHPB_W0@Z:
	mov	edx, DWORD PTR [esp+8]
	lea	eax, DWORD PTR [edx+12]
	mov	ecx, DWORD PTR [edx-548]
	xor	ecx, eax
	call	@__security_check_cookie@4
	mov	ecx, DWORD PTR [edx-4]
	xor	ecx, eax
	call	@__security_check_cookie@4
	mov	eax, OFFSET __ehfuncinfo$?compareContractions@TailoredSet@icu_56@@AAEXHPB_W0@Z
	jmp	___CxxFrameHandler3
text$x	ENDS
?compareContractions@TailoredSet@icu_56@@AAEXHPB_W0@Z ENDP ; icu_56::TailoredSet::compareContractions
PUBLIC	__$ArrayPad$
;	COMDAT xdata$x
xdata$x	SEGMENT
__unwindtable$?addPrefixes@TailoredSet@icu_56@@AAEXPBUCollationData@2@HPB_W@Z DD 0ffffffffH
	DD	FLAT:__unwindfunclet$?addPrefixes@TailoredSet@icu_56@@AAEXPBUCollationData@2@HPB_W@Z$0
__ehfuncinfo$?addPrefixes@TailoredSet@icu_56@@AAEXPBUCollationData@2@HPB_W@Z DD 019930522H
	DD	01H
	DD	FLAT:__unwindtable$?addPrefixes@TailoredSet@icu_56@@AAEXPBUCollationData@2@HPB_W@Z
	DD	2 DUP(00H)
	DD	2 DUP(00H)
	DD	00H
	DD	01H
; Function compile flags: /Odtp /RTCsu /ZI
xdata$x	ENDS
;	COMDAT ?addPrefixes@TailoredSet@icu_56@@AAEXPBUCollationData@2@HPB_W@Z
_TEXT	SEGMENT
_prefixes$ = -132					; size = 100
_this$ = -24						; size = 4
__$ArrayPad$ = -16					; size = 4
__$EHRec$ = -12						; size = 12
_d$ = 8							; size = 4
_c$ = 12						; size = 4
_p$ = 16						; size = 4
?addPrefixes@TailoredSet@icu_56@@AAEXPBUCollationData@2@HPB_W@Z PROC ; icu_56::TailoredSet::addPrefixes, COMDAT
; _this$ = ecx
; Line 307
	push	ebp
	mov	ebp, esp
	push	-1
	push	__ehhandler$?addPrefixes@TailoredSet@icu_56@@AAEXPBUCollationData@2@HPB_W@Z
	mov	eax, DWORD PTR fs:0
	push	eax
	sub	esp, 316				; 0000013cH
	push	ebx
	push	esi
	push	edi
	push	ecx
	lea	edi, DWORD PTR [ebp-328]
	mov	ecx, 79					; 0000004fH
	mov	eax, -858993460				; ccccccccH
	rep stosd
	pop	ecx
	mov	eax, DWORD PTR ___security_cookie
	xor	eax, ebp
	mov	DWORD PTR __$ArrayPad$[ebp], eax
	push	eax
	lea	eax, DWORD PTR __$EHRec$[ebp]
	mov	DWORD PTR fs:0, eax
	mov	DWORD PTR _this$[ebp], ecx
; Line 308
	mov	eax, DWORD PTR _this$[ebp]
	add	eax, 80					; 00000050H
	mov	esi, esp
	push	eax
	push	0
	mov	ecx, DWORD PTR _p$[ebp]
	push	ecx
	lea	ecx, DWORD PTR _prefixes$[ebp]
	call	DWORD PTR __imp_??0Iterator@UCharsTrie@icu_56@@QAE@PB_WHAAW4UErrorCode@@@Z
	cmp	esi, esp
	call	__RTC_CheckEsp
	mov	DWORD PTR __$EHRec$[ebp+8], 0
$LN2@addPrefixe:
; Line 309
	mov	eax, DWORD PTR _this$[ebp]
	add	eax, 80					; 00000050H
	mov	esi, esp
	push	eax
	lea	ecx, DWORD PTR _prefixes$[ebp]
	call	DWORD PTR __imp_?next@Iterator@UCharsTrie@icu_56@@QAECAAW4UErrorCode@@@Z
	cmp	esi, esp
	call	__RTC_CheckEsp
	movsx	ecx, al
	test	ecx, ecx
	je	SHORT $LN1@addPrefixe
; Line 310
	mov	esi, esp
	lea	ecx, DWORD PTR _prefixes$[ebp]
	call	DWORD PTR __imp_?getValue@Iterator@UCharsTrie@icu_56@@QBEHXZ
	cmp	esi, esp
	call	__RTC_CheckEsp
	push	eax
	mov	eax, DWORD PTR _c$[ebp]
	push	eax
	mov	esi, esp
	lea	ecx, DWORD PTR _prefixes$[ebp]
	call	DWORD PTR __imp_?getString@Iterator@UCharsTrie@icu_56@@QBEABVUnicodeString@3@XZ
	cmp	esi, esp
	call	__RTC_CheckEsp
	push	eax
	mov	ecx, DWORD PTR _d$[ebp]
	push	ecx
	mov	ecx, DWORD PTR _this$[ebp]
	call	?addPrefix@TailoredSet@icu_56@@AAEXPBUCollationData@2@ABVUnicodeString@2@HI@Z ; icu_56::TailoredSet::addPrefix
; Line 311
	jmp	SHORT $LN2@addPrefixe
$LN1@addPrefixe:
; Line 312
	mov	DWORD PTR __$EHRec$[ebp+8], -1
	mov	esi, esp
	lea	ecx, DWORD PTR _prefixes$[ebp]
	call	DWORD PTR __imp_??1Iterator@UCharsTrie@icu_56@@QAE@XZ
	cmp	esi, esp
	call	__RTC_CheckEsp
	push	edx
	mov	ecx, ebp
	push	eax
	lea	edx, DWORD PTR $LN9@addPrefixe
	call	@_RTC_CheckStackVars@8
	pop	eax
	pop	edx
	mov	ecx, DWORD PTR __$EHRec$[ebp]
	mov	DWORD PTR fs:0, ecx
	pop	ecx
	pop	edi
	pop	esi
	pop	ebx
	mov	ecx, DWORD PTR __$ArrayPad$[ebp]
	xor	ecx, ebp
	call	@__security_check_cookie@4
	add	esp, 328				; 00000148H
	cmp	ebp, esp
	call	__RTC_CheckEsp
	mov	esp, ebp
	pop	ebp
	ret	12					; 0000000cH
	npad	1
$LN9@addPrefixe:
	DD	1
	DD	$LN8@addPrefixe
$LN8@addPrefixe:
	DD	-132					; ffffff7cH
	DD	100					; 00000064H
	DD	$LN6@addPrefixe
$LN6@addPrefixe:
	DB	112					; 00000070H
	DB	114					; 00000072H
	DB	101					; 00000065H
	DB	102					; 00000066H
	DB	105					; 00000069H
	DB	120					; 00000078H
	DB	101					; 00000065H
	DB	115					; 00000073H
	DB	0
_TEXT	ENDS
;	COMDAT text$x
text$x	SEGMENT
__unwindfunclet$?addPrefixes@TailoredSet@icu_56@@AAEXPBUCollationData@2@HPB_W@Z$0:
	mov	esi, esp
	lea	ecx, DWORD PTR _prefixes$[ebp]
	call	DWORD PTR __imp_??1Iterator@UCharsTrie@icu_56@@QAE@XZ
	cmp	esi, esp
	jmp	__RTC_CheckEsp
__ehhandler$?addPrefixes@TailoredSet@icu_56@@AAEXPBUCollationData@2@HPB_W@Z:
	mov	edx, DWORD PTR [esp+8]
	lea	eax, DWORD PTR [edx+12]
	mov	ecx, DWORD PTR [edx-332]
	xor	ecx, eax
	call	@__security_check_cookie@4
	mov	ecx, DWORD PTR [edx-4]
	xor	ecx, eax
	call	@__security_check_cookie@4
	mov	eax, OFFSET __ehfuncinfo$?addPrefixes@TailoredSet@icu_56@@AAEXPBUCollationData@2@HPB_W@Z
	jmp	___CxxFrameHandler3
text$x	ENDS
?addPrefixes@TailoredSet@icu_56@@AAEXPBUCollationData@2@HPB_W@Z ENDP ; icu_56::TailoredSet::addPrefixes
PUBLIC	__$ArrayPad$
EXTRN	__imp_?add@UnicodeSet@icu_56@@QAEAAV12@ABVUnicodeString@2@@Z:PROC
EXTRN	__imp_?append@UnicodeString@icu_56@@QAEAAV12@H@Z:PROC
;	COMDAT xdata$x
xdata$x	SEGMENT
__unwindtable$?addPrefix@TailoredSet@icu_56@@AAEXPBUCollationData@2@ABVUnicodeString@2@HI@Z DD 0ffffffffH
	DD	FLAT:__unwindfunclet$?addPrefix@TailoredSet@icu_56@@AAEXPBUCollationData@2@ABVUnicodeString@2@HI@Z$0
__ehfuncinfo$?addPrefix@TailoredSet@icu_56@@AAEXPBUCollationData@2@ABVUnicodeString@2@HI@Z DD 019930522H
	DD	01H
	DD	FLAT:__unwindtable$?addPrefix@TailoredSet@icu_56@@AAEXPBUCollationData@2@ABVUnicodeString@2@HI@Z
	DD	2 DUP(00H)
	DD	2 DUP(00H)
	DD	00H
	DD	01H
; Function compile flags: /Odtp /RTCsu /ZI
xdata$x	ENDS
;	COMDAT ?addPrefix@TailoredSet@icu_56@@AAEXPBUCollationData@2@ABVUnicodeString@2@HI@Z
_TEXT	SEGMENT
tv128 = -312						; size = 4
tv129 = -308						; size = 4
$T72863 = -300						; size = 64
_p$72862 = -36						; size = 4
_this$ = -24						; size = 4
__$ArrayPad$ = -16					; size = 4
__$EHRec$ = -12						; size = 12
_d$ = 8							; size = 4
_pfx$ = 12						; size = 4
_c$ = 16						; size = 4
_ce32$ = 20						; size = 4
?addPrefix@TailoredSet@icu_56@@AAEXPBUCollationData@2@ABVUnicodeString@2@HI@Z PROC ; icu_56::TailoredSet::addPrefix, COMDAT
; _this$ = ecx
; Line 315
	push	ebp
	mov	ebp, esp
	push	-1
	push	__ehhandler$?addPrefix@TailoredSet@icu_56@@AAEXPBUCollationData@2@ABVUnicodeString@2@HI@Z
	mov	eax, DWORD PTR fs:0
	push	eax
	sub	esp, 300				; 0000012cH
	push	ebx
	push	esi
	push	edi
	push	ecx
	lea	edi, DWORD PTR [ebp-312]
	mov	ecx, 75					; 0000004bH
	mov	eax, -858993460				; ccccccccH
	rep stosd
	pop	ecx
	mov	eax, DWORD PTR ___security_cookie
	xor	eax, ebp
	mov	DWORD PTR __$ArrayPad$[ebp], eax
	push	eax
	lea	eax, DWORD PTR __$EHRec$[ebp]
	mov	DWORD PTR fs:0, eax
	mov	DWORD PTR _this$[ebp], ecx
; Line 316
	mov	eax, DWORD PTR _pfx$[ebp]
	push	eax
	mov	ecx, DWORD PTR _this$[ebp]
	call	?setPrefix@TailoredSet@icu_56@@AAEXABVUnicodeString@2@@Z ; icu_56::TailoredSet::setPrefix
; Line 317
	mov	eax, DWORD PTR _ce32$[ebp]
	push	eax
	mov	ecx, DWORD PTR _d$[ebp]
	call	?getFinalCE32@CollationData@icu_56@@QBEII@Z ; icu_56::CollationData::getFinalCE32
	mov	DWORD PTR _ce32$[ebp], eax
; Line 318
	mov	eax, DWORD PTR _ce32$[ebp]
	push	eax
	call	?isContractionCE32@Collation@icu_56@@SACI@Z ; icu_56::Collation::isContractionCE32
	add	esp, 4
	movsx	ecx, al
	test	ecx, ecx
	je	SHORT $LN1@addPrefix
; Line 319
	mov	eax, DWORD PTR _ce32$[ebp]
	push	eax
	call	?indexFromCE32@Collation@icu_56@@SAHI@Z	; icu_56::Collation::indexFromCE32
	add	esp, 4
	mov	ecx, DWORD PTR _d$[ebp]
	mov	edx, DWORD PTR [ecx+12]
	lea	eax, DWORD PTR [edx+eax*2]
	mov	DWORD PTR _p$72862[ebp], eax
; Line 320
	mov	eax, DWORD PTR _p$72862[ebp]
	add	eax, 4
	push	eax
	mov	ecx, DWORD PTR _c$[ebp]
	push	ecx
	mov	ecx, DWORD PTR _this$[ebp]
	call	?addContractions@TailoredSet@icu_56@@AAEXHPB_W@Z ; icu_56::TailoredSet::addContractions
$LN1@addPrefix:
; Line 322
	mov	esi, esp
	mov	eax, DWORD PTR _c$[ebp]
	push	eax
	mov	ecx, DWORD PTR _this$[ebp]
	add	ecx, 12					; 0000000cH
	mov	edi, esp
	push	ecx
	lea	ecx, DWORD PTR $T72863[ebp]
	call	DWORD PTR __imp_??0UnicodeString@icu_56@@QAE@ABV01@@Z
	cmp	edi, esp
	call	__RTC_CheckEsp
	mov	DWORD PTR tv129[ebp], eax
	mov	edx, DWORD PTR tv129[ebp]
	mov	DWORD PTR tv128[ebp], edx
	mov	DWORD PTR __$EHRec$[ebp+8], 0
	mov	ecx, DWORD PTR tv128[ebp]
	call	DWORD PTR __imp_?append@UnicodeString@icu_56@@QAEAAV12@H@Z
	cmp	esi, esp
	call	__RTC_CheckEsp
	mov	esi, esp
	push	eax
	mov	eax, DWORD PTR _this$[ebp]
	mov	ecx, DWORD PTR [eax+8]
	call	DWORD PTR __imp_?add@UnicodeSet@icu_56@@QAEAAV12@ABVUnicodeString@2@@Z
	cmp	esi, esp
	call	__RTC_CheckEsp
	mov	DWORD PTR __$EHRec$[ebp+8], -1
	mov	esi, esp
	lea	ecx, DWORD PTR $T72863[ebp]
	call	DWORD PTR __imp_??1UnicodeString@icu_56@@UAE@XZ
	cmp	esi, esp
	call	__RTC_CheckEsp
; Line 323
	mov	ecx, DWORD PTR _this$[ebp]
	call	?resetPrefix@TailoredSet@icu_56@@AAEXXZ	; icu_56::TailoredSet::resetPrefix
; Line 324
	mov	ecx, DWORD PTR __$EHRec$[ebp]
	mov	DWORD PTR fs:0, ecx
	pop	ecx
	pop	edi
	pop	esi
	pop	ebx
	mov	ecx, DWORD PTR __$ArrayPad$[ebp]
	xor	ecx, ebp
	call	@__security_check_cookie@4
	add	esp, 312				; 00000138H
	cmp	ebp, esp
	call	__RTC_CheckEsp
	mov	esp, ebp
	pop	ebp
	ret	16					; 00000010H
_TEXT	ENDS
;	COMDAT text$x
text$x	SEGMENT
__unwindfunclet$?addPrefix@TailoredSet@icu_56@@AAEXPBUCollationData@2@ABVUnicodeString@2@HI@Z$0:
	mov	esi, esp
	lea	ecx, DWORD PTR $T72863[ebp]
	call	DWORD PTR __imp_??1UnicodeString@icu_56@@UAE@XZ
	cmp	esi, esp
	jmp	__RTC_CheckEsp
__ehhandler$?addPrefix@TailoredSet@icu_56@@AAEXPBUCollationData@2@ABVUnicodeString@2@HI@Z:
	mov	edx, DWORD PTR [esp+8]
	lea	eax, DWORD PTR [edx+12]
	mov	ecx, DWORD PTR [edx-316]
	xor	ecx, eax
	call	@__security_check_cookie@4
	mov	ecx, DWORD PTR [edx-4]
	xor	ecx, eax
	call	@__security_check_cookie@4
	mov	eax, OFFSET __ehfuncinfo$?addPrefix@TailoredSet@icu_56@@AAEXPBUCollationData@2@ABVUnicodeString@2@HI@Z
	jmp	___CxxFrameHandler3
text$x	ENDS
?addPrefix@TailoredSet@icu_56@@AAEXPBUCollationData@2@ABVUnicodeString@2@HI@Z ENDP ; icu_56::TailoredSet::addPrefix
PUBLIC	__$ArrayPad$
;	COMDAT xdata$x
xdata$x	SEGMENT
__unwindtable$?addContractions@TailoredSet@icu_56@@AAEXHPB_W@Z DD 0ffffffffH
	DD	FLAT:__unwindfunclet$?addContractions@TailoredSet@icu_56@@AAEXHPB_W@Z$0
__ehfuncinfo$?addContractions@TailoredSet@icu_56@@AAEXHPB_W@Z DD 019930522H
	DD	01H
	DD	FLAT:__unwindtable$?addContractions@TailoredSet@icu_56@@AAEXHPB_W@Z
	DD	2 DUP(00H)
	DD	2 DUP(00H)
	DD	00H
	DD	01H
; Function compile flags: /Odtp /RTCsu /ZI
xdata$x	ENDS
;	COMDAT ?addContractions@TailoredSet@icu_56@@AAEXHPB_W@Z
_TEXT	SEGMENT
_suffixes$ = -132					; size = 100
_this$ = -24						; size = 4
__$ArrayPad$ = -16					; size = 4
__$EHRec$ = -12						; size = 12
_c$ = 8							; size = 4
_p$ = 12						; size = 4
?addContractions@TailoredSet@icu_56@@AAEXHPB_W@Z PROC	; icu_56::TailoredSet::addContractions, COMDAT
; _this$ = ecx
; Line 327
	push	ebp
	mov	ebp, esp
	push	-1
	push	__ehhandler$?addContractions@TailoredSet@icu_56@@AAEXHPB_W@Z
	mov	eax, DWORD PTR fs:0
	push	eax
	sub	esp, 316				; 0000013cH
	push	ebx
	push	esi
	push	edi
	push	ecx
	lea	edi, DWORD PTR [ebp-328]
	mov	ecx, 79					; 0000004fH
	mov	eax, -858993460				; ccccccccH
	rep stosd
	pop	ecx
	mov	eax, DWORD PTR ___security_cookie
	xor	eax, ebp
	mov	DWORD PTR __$ArrayPad$[ebp], eax
	push	eax
	lea	eax, DWORD PTR __$EHRec$[ebp]
	mov	DWORD PTR fs:0, eax
	mov	DWORD PTR _this$[ebp], ecx
; Line 328
	mov	eax, DWORD PTR _this$[ebp]
	add	eax, 80					; 00000050H
	mov	esi, esp
	push	eax
	push	0
	mov	ecx, DWORD PTR _p$[ebp]
	push	ecx
	lea	ecx, DWORD PTR _suffixes$[ebp]
	call	DWORD PTR __imp_??0Iterator@UCharsTrie@icu_56@@QAE@PB_WHAAW4UErrorCode@@@Z
	cmp	esi, esp
	call	__RTC_CheckEsp
	mov	DWORD PTR __$EHRec$[ebp+8], 0
$LN2@addContrac:
; Line 329
	mov	eax, DWORD PTR _this$[ebp]
	add	eax, 80					; 00000050H
	mov	esi, esp
	push	eax
	lea	ecx, DWORD PTR _suffixes$[ebp]
	call	DWORD PTR __imp_?next@Iterator@UCharsTrie@icu_56@@QAECAAW4UErrorCode@@@Z
	cmp	esi, esp
	call	__RTC_CheckEsp
	movsx	ecx, al
	test	ecx, ecx
	je	SHORT $LN1@addContrac
; Line 330
	mov	esi, esp
	lea	ecx, DWORD PTR _suffixes$[ebp]
	call	DWORD PTR __imp_?getString@Iterator@UCharsTrie@icu_56@@QBEABVUnicodeString@3@XZ
	cmp	esi, esp
	call	__RTC_CheckEsp
	push	eax
	mov	eax, DWORD PTR _c$[ebp]
	push	eax
	mov	ecx, DWORD PTR _this$[ebp]
	call	?addSuffix@TailoredSet@icu_56@@AAEXHABVUnicodeString@2@@Z ; icu_56::TailoredSet::addSuffix
; Line 331
	jmp	SHORT $LN2@addContrac
$LN1@addContrac:
; Line 332
	mov	DWORD PTR __$EHRec$[ebp+8], -1
	mov	esi, esp
	lea	ecx, DWORD PTR _suffixes$[ebp]
	call	DWORD PTR __imp_??1Iterator@UCharsTrie@icu_56@@QAE@XZ
	cmp	esi, esp
	call	__RTC_CheckEsp
	push	edx
	mov	ecx, ebp
	push	eax
	lea	edx, DWORD PTR $LN9@addContrac
	call	@_RTC_CheckStackVars@8
	pop	eax
	pop	edx
	mov	ecx, DWORD PTR __$EHRec$[ebp]
	mov	DWORD PTR fs:0, ecx
	pop	ecx
	pop	edi
	pop	esi
	pop	ebx
	mov	ecx, DWORD PTR __$ArrayPad$[ebp]
	xor	ecx, ebp
	call	@__security_check_cookie@4
	add	esp, 328				; 00000148H
	cmp	ebp, esp
	call	__RTC_CheckEsp
	mov	esp, ebp
	pop	ebp
	ret	8
	npad	3
$LN9@addContrac:
	DD	1
	DD	$LN8@addContrac
$LN8@addContrac:
	DD	-132					; ffffff7cH
	DD	100					; 00000064H
	DD	$LN6@addContrac
$LN6@addContrac:
	DB	115					; 00000073H
	DB	117					; 00000075H
	DB	102					; 00000066H
	DB	102					; 00000066H
	DB	105					; 00000069H
	DB	120					; 00000078H
	DB	101					; 00000065H
	DB	115					; 00000073H
	DB	0
_TEXT	ENDS
;	COMDAT text$x
text$x	SEGMENT
__unwindfunclet$?addContractions@TailoredSet@icu_56@@AAEXHPB_W@Z$0:
	mov	esi, esp
	lea	ecx, DWORD PTR _suffixes$[ebp]
	call	DWORD PTR __imp_??1Iterator@UCharsTrie@icu_56@@QAE@XZ
	cmp	esi, esp
	jmp	__RTC_CheckEsp
__ehhandler$?addContractions@TailoredSet@icu_56@@AAEXHPB_W@Z:
	mov	edx, DWORD PTR [esp+8]
	lea	eax, DWORD PTR [edx+12]
	mov	ecx, DWORD PTR [edx-332]
	xor	ecx, eax
	call	@__security_check_cookie@4
	mov	ecx, DWORD PTR [edx-4]
	xor	ecx, eax
	call	@__security_check_cookie@4
	mov	eax, OFFSET __ehfuncinfo$?addContractions@TailoredSet@icu_56@@AAEXHPB_W@Z
	jmp	___CxxFrameHandler3
text$x	ENDS
?addContractions@TailoredSet@icu_56@@AAEXHPB_W@Z ENDP	; icu_56::TailoredSet::addContractions
PUBLIC	__$ArrayPad$
EXTRN	__imp_?append@UnicodeString@icu_56@@QAEAAV12@ABV12@@Z:PROC
;	COMDAT xdata$x
xdata$x	SEGMENT
__unwindtable$?addSuffix@TailoredSet@icu_56@@AAEXHABVUnicodeString@2@@Z DD 0ffffffffH
	DD	FLAT:__unwindfunclet$?addSuffix@TailoredSet@icu_56@@AAEXHABVUnicodeString@2@@Z$0
__ehfuncinfo$?addSuffix@TailoredSet@icu_56@@AAEXHABVUnicodeString@2@@Z DD 019930522H
	DD	01H
	DD	FLAT:__unwindtable$?addSuffix@TailoredSet@icu_56@@AAEXHABVUnicodeString@2@@Z
	DD	2 DUP(00H)
	DD	2 DUP(00H)
	DD	00H
	DD	01H
; Function compile flags: /Odtp /RTCsu /ZI
xdata$x	ENDS
;	COMDAT ?addSuffix@TailoredSet@icu_56@@AAEXHABVUnicodeString@2@@Z
_TEXT	SEGMENT
tv80 = -300						; size = 4
tv81 = -296						; size = 4
$T72878 = -288						; size = 64
_this$ = -24						; size = 4
__$ArrayPad$ = -16					; size = 4
__$EHRec$ = -12						; size = 12
_c$ = 8							; size = 4
_sfx$ = 12						; size = 4
?addSuffix@TailoredSet@icu_56@@AAEXHABVUnicodeString@2@@Z PROC ; icu_56::TailoredSet::addSuffix, COMDAT
; _this$ = ecx
; Line 335
	push	ebp
	mov	ebp, esp
	push	-1
	push	__ehhandler$?addSuffix@TailoredSet@icu_56@@AAEXHABVUnicodeString@2@@Z
	mov	eax, DWORD PTR fs:0
	push	eax
	sub	esp, 288				; 00000120H
	push	ebx
	push	esi
	push	edi
	push	ecx
	lea	edi, DWORD PTR [ebp-300]
	mov	ecx, 72					; 00000048H
	mov	eax, -858993460				; ccccccccH
	rep stosd
	pop	ecx
	mov	eax, DWORD PTR ___security_cookie
	xor	eax, ebp
	mov	DWORD PTR __$ArrayPad$[ebp], eax
	push	eax
	lea	eax, DWORD PTR __$EHRec$[ebp]
	mov	DWORD PTR fs:0, eax
	mov	DWORD PTR _this$[ebp], ecx
; Line 336
	mov	esi, esp
	mov	eax, DWORD PTR _sfx$[ebp]
	push	eax
	mov	edi, esp
	mov	ecx, DWORD PTR _c$[ebp]
	push	ecx
	mov	edx, DWORD PTR _this$[ebp]
	add	edx, 12					; 0000000cH
	mov	ebx, esp
	push	edx
	lea	ecx, DWORD PTR $T72878[ebp]
	call	DWORD PTR __imp_??0UnicodeString@icu_56@@QAE@ABV01@@Z
	cmp	ebx, esp
	call	__RTC_CheckEsp
	mov	DWORD PTR tv81[ebp], eax
	mov	eax, DWORD PTR tv81[ebp]
	mov	DWORD PTR tv80[ebp], eax
	mov	DWORD PTR __$EHRec$[ebp+8], 0
	mov	ecx, DWORD PTR tv80[ebp]
	call	DWORD PTR __imp_?append@UnicodeString@icu_56@@QAEAAV12@H@Z
	cmp	edi, esp
	call	__RTC_CheckEsp
	mov	ecx, eax
	call	DWORD PTR __imp_?append@UnicodeString@icu_56@@QAEAAV12@ABV12@@Z
	cmp	esi, esp
	call	__RTC_CheckEsp
	mov	esi, esp
	push	eax
	mov	ecx, DWORD PTR _this$[ebp]
	mov	ecx, DWORD PTR [ecx+8]
	call	DWORD PTR __imp_?add@UnicodeSet@icu_56@@QAEAAV12@ABVUnicodeString@2@@Z
	cmp	esi, esp
	call	__RTC_CheckEsp
	mov	DWORD PTR __$EHRec$[ebp+8], -1
	mov	esi, esp
	lea	ecx, DWORD PTR $T72878[ebp]
	call	DWORD PTR __imp_??1UnicodeString@icu_56@@UAE@XZ
	cmp	esi, esp
	call	__RTC_CheckEsp
; Line 337
	mov	ecx, DWORD PTR __$EHRec$[ebp]
	mov	DWORD PTR fs:0, ecx
	pop	ecx
	pop	edi
	pop	esi
	pop	ebx
	mov	ecx, DWORD PTR __$ArrayPad$[ebp]
	xor	ecx, ebp
	call	@__security_check_cookie@4
	add	esp, 300				; 0000012cH
	cmp	ebp, esp
	call	__RTC_CheckEsp
	mov	esp, ebp
	pop	ebp
	ret	8
_TEXT	ENDS
;	COMDAT text$x
text$x	SEGMENT
__unwindfunclet$?addSuffix@TailoredSet@icu_56@@AAEXHABVUnicodeString@2@@Z$0:
	mov	esi, esp
	lea	ecx, DWORD PTR $T72878[ebp]
	call	DWORD PTR __imp_??1UnicodeString@icu_56@@UAE@XZ
	cmp	esi, esp
	jmp	__RTC_CheckEsp
__ehhandler$?addSuffix@TailoredSet@icu_56@@AAEXHABVUnicodeString@2@@Z:
	mov	edx, DWORD PTR [esp+8]
	lea	eax, DWORD PTR [edx+12]
	mov	ecx, DWORD PTR [edx-304]
	xor	ecx, eax
	call	@__security_check_cookie@4
	mov	ecx, DWORD PTR [edx-4]
	xor	ecx, eax
	call	@__security_check_cookie@4
	mov	eax, OFFSET __ehfuncinfo$?addSuffix@TailoredSet@icu_56@@AAEXHABVUnicodeString@2@@Z
	jmp	___CxxFrameHandler3
text$x	ENDS
?addSuffix@TailoredSet@icu_56@@AAEXHABVUnicodeString@2@@Z ENDP ; icu_56::TailoredSet::addSuffix
PUBLIC	__$ArrayPad$
EXTRN	__imp_?isEmpty@UnicodeString@icu_56@@QBECXZ:PROC
;	COMDAT xdata$x
xdata$x	SEGMENT
__unwindtable$?add@TailoredSet@icu_56@@AAEXH@Z DD 0ffffffffH
	DD	FLAT:__unwindfunclet$?add@TailoredSet@icu_56@@AAEXH@Z$0
__ehfuncinfo$?add@TailoredSet@icu_56@@AAEXH@Z DD 019930522H
	DD	01H
	DD	FLAT:__unwindtable$?add@TailoredSet@icu_56@@AAEXH@Z
	DD	2 DUP(00H)
	DD	2 DUP(00H)
	DD	00H
	DD	01H
; Function compile flags: /Odtp /RTCsu /ZI
xdata$x	ENDS
;	COMDAT ?add@TailoredSet@icu_56@@AAEXH@Z
_TEXT	SEGMENT
_s$72885 = -96						; size = 64
_this$ = -24						; size = 4
__$ArrayPad$ = -16					; size = 4
__$EHRec$ = -12						; size = 12
_c$ = 8							; size = 4
?add@TailoredSet@icu_56@@AAEXH@Z PROC			; icu_56::TailoredSet::add, COMDAT
; _this$ = ecx
; Line 340
	push	ebp
	mov	ebp, esp
	push	-1
	push	__ehhandler$?add@TailoredSet@icu_56@@AAEXH@Z
	mov	eax, DWORD PTR fs:0
	push	eax
	sub	esp, 280				; 00000118H
	push	ebx
	push	esi
	push	edi
	push	ecx
	lea	edi, DWORD PTR [ebp-292]
	mov	ecx, 70					; 00000046H
	mov	eax, -858993460				; ccccccccH
	rep stosd
	pop	ecx
	mov	eax, DWORD PTR ___security_cookie
	xor	eax, ebp
	mov	DWORD PTR __$ArrayPad$[ebp], eax
	push	eax
	lea	eax, DWORD PTR __$EHRec$[ebp]
	mov	DWORD PTR fs:0, eax
	mov	DWORD PTR _this$[ebp], ecx
; Line 341
	mov	ecx, DWORD PTR _this$[ebp]
	add	ecx, 12					; 0000000cH
	mov	esi, esp
	call	DWORD PTR __imp_?isEmpty@UnicodeString@icu_56@@QBECXZ
	cmp	esi, esp
	call	__RTC_CheckEsp
	movsx	eax, al
	test	eax, eax
	je	SHORT $LN3@add
	mov	eax, DWORD PTR _this$[ebp]
	cmp	DWORD PTR [eax+76], 0
	jne	SHORT $LN3@add
; Line 342
	mov	esi, esp
	mov	eax, DWORD PTR _c$[ebp]
	push	eax
	mov	ecx, DWORD PTR _this$[ebp]
	mov	ecx, DWORD PTR [ecx+8]
	call	DWORD PTR __imp_?add@UnicodeSet@icu_56@@QAEAAV12@H@Z
	cmp	esi, esp
	call	__RTC_CheckEsp
; Line 343
	jmp	$LN4@add
$LN3@add:
; Line 344
	mov	eax, DWORD PTR _this$[ebp]
	add	eax, 12					; 0000000cH
	mov	esi, esp
	push	eax
	lea	ecx, DWORD PTR _s$72885[ebp]
	call	DWORD PTR __imp_??0UnicodeString@icu_56@@QAE@ABV01@@Z
	cmp	esi, esp
	call	__RTC_CheckEsp
	mov	DWORD PTR __$EHRec$[ebp+8], 0
; Line 345
	mov	esi, esp
	mov	eax, DWORD PTR _c$[ebp]
	push	eax
	lea	ecx, DWORD PTR _s$72885[ebp]
	call	DWORD PTR __imp_?append@UnicodeString@icu_56@@QAEAAV12@H@Z
	cmp	esi, esp
	call	__RTC_CheckEsp
; Line 346
	mov	eax, DWORD PTR _this$[ebp]
	cmp	DWORD PTR [eax+76], 0
	je	SHORT $LN1@add
; Line 347
	mov	esi, esp
	mov	eax, DWORD PTR _this$[ebp]
	mov	ecx, DWORD PTR [eax+76]
	push	ecx
	lea	ecx, DWORD PTR _s$72885[ebp]
	call	DWORD PTR __imp_?append@UnicodeString@icu_56@@QAEAAV12@ABV12@@Z
	cmp	esi, esp
	call	__RTC_CheckEsp
$LN1@add:
; Line 349
	mov	esi, esp
	lea	eax, DWORD PTR _s$72885[ebp]
	push	eax
	mov	ecx, DWORD PTR _this$[ebp]
	mov	ecx, DWORD PTR [ecx+8]
	call	DWORD PTR __imp_?add@UnicodeSet@icu_56@@QAEAAV12@ABVUnicodeString@2@@Z
	cmp	esi, esp
	call	__RTC_CheckEsp
; Line 350
	mov	DWORD PTR __$EHRec$[ebp+8], -1
	mov	esi, esp
	lea	ecx, DWORD PTR _s$72885[ebp]
	call	DWORD PTR __imp_??1UnicodeString@icu_56@@UAE@XZ
	cmp	esi, esp
	call	__RTC_CheckEsp
$LN4@add:
; Line 351
	push	edx
	mov	ecx, ebp
	push	eax
	lea	edx, DWORD PTR $LN10@add
	call	@_RTC_CheckStackVars@8
	pop	eax
	pop	edx
	mov	ecx, DWORD PTR __$EHRec$[ebp]
	mov	DWORD PTR fs:0, ecx
	pop	ecx
	pop	edi
	pop	esi
	pop	ebx
	mov	ecx, DWORD PTR __$ArrayPad$[ebp]
	xor	ecx, ebp
	call	@__security_check_cookie@4
	add	esp, 292				; 00000124H
	cmp	ebp, esp
	call	__RTC_CheckEsp
	mov	esp, ebp
	pop	ebp
	ret	4
	npad	2
$LN10@add:
	DD	1
	DD	$LN9@add
$LN9@add:
	DD	-96					; ffffffa0H
	DD	64					; 00000040H
	DD	$LN7@add
$LN7@add:
	DB	115					; 00000073H
	DB	0
_TEXT	ENDS
;	COMDAT text$x
text$x	SEGMENT
__unwindfunclet$?add@TailoredSet@icu_56@@AAEXH@Z$0:
	mov	esi, esp
	lea	ecx, DWORD PTR _s$72885[ebp]
	call	DWORD PTR __imp_??1UnicodeString@icu_56@@UAE@XZ
	cmp	esi, esp
	jmp	__RTC_CheckEsp
__ehhandler$?add@TailoredSet@icu_56@@AAEXH@Z:
	mov	edx, DWORD PTR [esp+8]
	lea	eax, DWORD PTR [edx+12]
	mov	ecx, DWORD PTR [edx-296]
	xor	ecx, eax
	call	@__security_check_cookie@4
	mov	ecx, DWORD PTR [edx-4]
	xor	ecx, eax
	call	@__security_check_cookie@4
	mov	eax, OFFSET __ehfuncinfo$?add@TailoredSet@icu_56@@AAEXH@Z
	jmp	___CxxFrameHandler3
text$x	ENDS
?add@TailoredSet@icu_56@@AAEXH@Z ENDP			; icu_56::TailoredSet::add
PUBLIC	??_7CESink@ContractionsAndExpansions@icu_56@@6B@ ; icu_56::ContractionsAndExpansions::CESink::`vftable'
PUBLIC	??1CESink@ContractionsAndExpansions@icu_56@@UAE@XZ ; icu_56::ContractionsAndExpansions::CESink::~CESink
PUBLIC	??_R4CESink@ContractionsAndExpansions@icu_56@@6B@ ; icu_56::ContractionsAndExpansions::CESink::`RTTI Complete Object Locator'
PUBLIC	??_R0?AVCESink@ContractionsAndExpansions@icu_56@@@8 ; icu_56::ContractionsAndExpansions::CESink `RTTI Type Descriptor'
PUBLIC	??_R3CESink@ContractionsAndExpansions@icu_56@@8	; icu_56::ContractionsAndExpansions::CESink::`RTTI Class Hierarchy Descriptor'
PUBLIC	??_R2CESink@ContractionsAndExpansions@icu_56@@8	; icu_56::ContractionsAndExpansions::CESink::`RTTI Base Class Array'
PUBLIC	??_R1A@?0A@EA@CESink@ContractionsAndExpansions@icu_56@@8 ; icu_56::ContractionsAndExpansions::CESink::`RTTI Base Class Descriptor at (0,-1,0,64)'
EXTRN	??_ECESink@ContractionsAndExpansions@icu_56@@UAEPAXI@Z:PROC ; icu_56::ContractionsAndExpansions::CESink::`vector deleting destructor'
;	COMDAT ??_R1A@?0A@EA@CESink@ContractionsAndExpansions@icu_56@@8
rdata$r	SEGMENT
??_R1A@?0A@EA@CESink@ContractionsAndExpansions@icu_56@@8 DD FLAT:??_R0?AVCESink@ContractionsAndExpansions@icu_56@@@8 ; icu_56::ContractionsAndExpansions::CESink::`RTTI Base Class Descriptor at (0,-1,0,64)'
	DD	01H
	DD	00H
	DD	0ffffffffH
	DD	00H
	DD	040H
	DD	FLAT:??_R3CESink@ContractionsAndExpansions@icu_56@@8
rdata$r	ENDS
;	COMDAT ??_R2CESink@ContractionsAndExpansions@icu_56@@8
rdata$r	SEGMENT
??_R2CESink@ContractionsAndExpansions@icu_56@@8 DD FLAT:??_R1A@?0A@EA@CESink@ContractionsAndExpansions@icu_56@@8 ; icu_56::ContractionsAndExpansions::CESink::`RTTI Base Class Array'
	DD	FLAT:??_R13?0A@EA@UMemory@icu_56@@8
rdata$r	ENDS
;	COMDAT ??_R3CESink@ContractionsAndExpansions@icu_56@@8
rdata$r	SEGMENT
??_R3CESink@ContractionsAndExpansions@icu_56@@8 DD 00H	; icu_56::ContractionsAndExpansions::CESink::`RTTI Class Hierarchy Descriptor'
	DD	00H
	DD	02H
	DD	FLAT:??_R2CESink@ContractionsAndExpansions@icu_56@@8
rdata$r	ENDS
;	COMDAT ??_R0?AVCESink@ContractionsAndExpansions@icu_56@@@8
_DATA	SEGMENT
??_R0?AVCESink@ContractionsAndExpansions@icu_56@@@8 DD FLAT:??_7type_info@@6B@ ; icu_56::ContractionsAndExpansions::CESink `RTTI Type Descriptor'
	DD	00H
	DB	'.?AVCESink@ContractionsAndExpansions@icu_56@@', 00H
_DATA	ENDS
;	COMDAT ??_R4CESink@ContractionsAndExpansions@icu_56@@6B@
rdata$r	SEGMENT
??_R4CESink@ContractionsAndExpansions@icu_56@@6B@ DD 00H ; icu_56::ContractionsAndExpansions::CESink::`RTTI Complete Object Locator'
	DD	00H
	DD	00H
	DD	FLAT:??_R0?AVCESink@ContractionsAndExpansions@icu_56@@@8
	DD	FLAT:??_R3CESink@ContractionsAndExpansions@icu_56@@8
rdata$r	ENDS
;	COMDAT ??_7CESink@ContractionsAndExpansions@icu_56@@6B@
CONST	SEGMENT
??_7CESink@ContractionsAndExpansions@icu_56@@6B@ DD FLAT:??_R4CESink@ContractionsAndExpansions@icu_56@@6B@ ; icu_56::ContractionsAndExpansions::CESink::`vftable'
	DD	FLAT:??_ECESink@ContractionsAndExpansions@icu_56@@UAEPAXI@Z
	DD	FLAT:__purecall
	DD	FLAT:__purecall
; Function compile flags: /Odtp /RTCsu /ZI
CONST	ENDS
;	COMDAT ??1CESink@ContractionsAndExpansions@icu_56@@UAE@XZ
_TEXT	SEGMENT
_this$ = -8						; size = 4
??1CESink@ContractionsAndExpansions@icu_56@@UAE@XZ PROC	; icu_56::ContractionsAndExpansions::CESink::~CESink, COMDAT
; _this$ = ecx
; Line 353
	push	ebp
	mov	ebp, esp
	sub	esp, 204				; 000000ccH
	push	ebx
	push	esi
	push	edi
	push	ecx
	lea	edi, DWORD PTR [ebp-204]
	mov	ecx, 51					; 00000033H
	mov	eax, -858993460				; ccccccccH
	rep stosd
	pop	ecx
	mov	DWORD PTR _this$[ebp], ecx
	mov	eax, DWORD PTR _this$[ebp]
	mov	DWORD PTR [eax], OFFSET ??_7CESink@ContractionsAndExpansions@icu_56@@6B@
	pop	edi
	pop	esi
	pop	ebx
	mov	esp, ebp
	pop	ebp
	ret	0
??1CESink@ContractionsAndExpansions@icu_56@@UAE@XZ ENDP	; icu_56::ContractionsAndExpansions::CESink::~CESink
; Function compile flags: /Odtp /RTCsu /ZI
_TEXT	ENDS
;	COMDAT ??_GCESink@ContractionsAndExpansions@icu_56@@UAEPAXI@Z
_TEXT	SEGMENT
_this$ = -8						; size = 4
___flags$ = 8						; size = 4
??_GCESink@ContractionsAndExpansions@icu_56@@UAEPAXI@Z PROC ; icu_56::ContractionsAndExpansions::CESink::`scalar deleting destructor', COMDAT
; _this$ = ecx
	push	ebp
	mov	ebp, esp
	sub	esp, 204				; 000000ccH
	push	ebx
	push	esi
	push	edi
	push	ecx
	lea	edi, DWORD PTR [ebp-204]
	mov	ecx, 51					; 00000033H
	mov	eax, -858993460				; ccccccccH
	rep stosd
	pop	ecx
	mov	DWORD PTR _this$[ebp], ecx
	mov	ecx, DWORD PTR _this$[ebp]
	call	??1CESink@ContractionsAndExpansions@icu_56@@UAE@XZ ; icu_56::ContractionsAndExpansions::CESink::~CESink
	mov	eax, DWORD PTR ___flags$[ebp]
	and	eax, 1
	je	SHORT $LN1@scalar@4
	mov	esi, esp
	mov	eax, DWORD PTR _this$[ebp]
	push	eax
	call	DWORD PTR __imp_??3UMemory@icu_56@@SAXPAX@Z
	add	esp, 4
	cmp	esi, esp
	call	__RTC_CheckEsp
$LN1@scalar@4:
	mov	eax, DWORD PTR _this$[ebp]
	pop	edi
	pop	esi
	pop	ebx
	add	esp, 204				; 000000ccH
	cmp	ebp, esp
	call	__RTC_CheckEsp
	mov	esp, ebp
	pop	ebp
	ret	4
??_GCESink@ContractionsAndExpansions@icu_56@@UAEPAXI@Z ENDP ; icu_56::ContractionsAndExpansions::CESink::`scalar deleting destructor'
_TEXT	ENDS
PUBLIC	?forData@ContractionsAndExpansions@icu_56@@QAEXPBUCollationData@2@AAW4UErrorCode@@@Z ; icu_56::ContractionsAndExpansions::forData
EXTRN	__imp_?freeze@UnicodeSet@icu_56@@QAEPAVUnicodeFunctor@2@XZ:PROC
; Function compile flags: /Odtp /RTCsu /ZI
;	COMDAT ?forData@ContractionsAndExpansions@icu_56@@QAEXPBUCollationData@2@AAW4UErrorCode@@@Z
_TEXT	SEGMENT
_this$ = -8						; size = 4
_d$ = 8							; size = 4
_ec$ = 12						; size = 4
?forData@ContractionsAndExpansions@icu_56@@QAEXPBUCollationData@2@AAW4UErrorCode@@@Z PROC ; icu_56::ContractionsAndExpansions::forData, COMDAT
; _this$ = ecx
; Line 390
	push	ebp
	mov	ebp, esp
	sub	esp, 204				; 000000ccH
	push	ebx
	push	esi
	push	edi
	push	ecx
	lea	edi, DWORD PTR [ebp-204]
	mov	ecx, 51					; 00000033H
	mov	eax, -858993460				; ccccccccH
	rep stosd
	pop	ecx
	mov	DWORD PTR _this$[ebp], ecx
; Line 391
	mov	eax, DWORD PTR _ec$[ebp]
	mov	ecx, DWORD PTR [eax]
	push	ecx
	call	?U_FAILURE@@YACW4UErrorCode@@@Z		; U_FAILURE
	add	esp, 4
	movsx	edx, al
	test	edx, edx
	je	SHORT $LN4@forData@2
	jmp	$LN5@forData@2
$LN4@forData@2:
; Line 392
	mov	eax, DWORD PTR _this$[ebp]
	mov	ecx, DWORD PTR _ec$[ebp]
	mov	edx, DWORD PTR [ecx]
	mov	DWORD PTR [eax+440], edx
; Line 394
	mov	eax, DWORD PTR _d$[ebp]
	cmp	DWORD PTR [eax+16], 0
	je	SHORT $LN3@forData@2
; Line 395
	mov	eax, DWORD PTR _this$[ebp]
	mov	BYTE PTR [eax+17], -1
$LN3@forData@2:
; Line 397
	mov	eax, DWORD PTR _this$[ebp]
	mov	ecx, DWORD PTR _d$[ebp]
	mov	DWORD PTR [eax], ecx
; Line 398
	mov	eax, DWORD PTR _this$[ebp]
	push	eax
	push	OFFSET _enumCnERange
	push	0
	mov	ecx, DWORD PTR _this$[ebp]
	mov	edx, DWORD PTR [ecx]
	mov	eax, DWORD PTR [edx]
	push	eax
	call	_utrie2_enum_56
	add	esp, 16					; 00000010H
; Line 399
	mov	eax, DWORD PTR _d$[ebp]
	cmp	DWORD PTR [eax+16], 0
	je	SHORT $LN1@forData@2
	mov	eax, DWORD PTR _this$[ebp]
	mov	ecx, DWORD PTR [eax+440]
	push	ecx
	call	?U_FAILURE@@YACW4UErrorCode@@@Z		; U_FAILURE
	add	esp, 4
	movsx	edx, al
	test	edx, edx
	je	SHORT $LN2@forData@2
$LN1@forData@2:
; Line 400
	mov	eax, DWORD PTR _ec$[ebp]
	mov	ecx, DWORD PTR _this$[ebp]
	mov	edx, DWORD PTR [ecx+440]
	mov	DWORD PTR [eax], edx
; Line 401
	jmp	SHORT $LN5@forData@2
$LN2@forData@2:
; Line 404
	mov	ecx, DWORD PTR _this$[ebp]
	add	ecx, 20					; 00000014H
	mov	esi, esp
	call	DWORD PTR __imp_?freeze@UnicodeSet@icu_56@@QAEPAVUnicodeFunctor@2@XZ
	cmp	esi, esp
	call	__RTC_CheckEsp
; Line 405
	mov	eax, DWORD PTR _this$[ebp]
	mov	BYTE PTR [eax+17], 1
; Line 406
	mov	eax, DWORD PTR _this$[ebp]
	mov	ecx, DWORD PTR _d$[ebp]
	mov	edx, DWORD PTR [ecx+16]
	mov	DWORD PTR [eax], edx
; Line 407
	mov	eax, DWORD PTR _this$[ebp]
	push	eax
	push	OFFSET _enumCnERange
	push	0
	mov	ecx, DWORD PTR _this$[ebp]
	mov	edx, DWORD PTR [ecx]
	mov	eax, DWORD PTR [edx]
	push	eax
	call	_utrie2_enum_56
	add	esp, 16					; 00000010H
; Line 408
	mov	eax, DWORD PTR _ec$[ebp]
	mov	ecx, DWORD PTR _this$[ebp]
	mov	edx, DWORD PTR [ecx+440]
	mov	DWORD PTR [eax], edx
$LN5@forData@2:
; Line 409
	pop	edi
	pop	esi
	pop	ebx
	add	esp, 204				; 000000ccH
	cmp	ebp, esp
	call	__RTC_CheckEsp
	mov	esp, ebp
	pop	ebp
	ret	8
?forData@ContractionsAndExpansions@icu_56@@QAEXPBUCollationData@2@AAW4UErrorCode@@@Z ENDP ; icu_56::ContractionsAndExpansions::forData
_TEXT	ENDS
PUBLIC	?handleCE32@ContractionsAndExpansions@icu_56@@QAEXHHI@Z ; icu_56::ContractionsAndExpansions::handleCE32
EXTRN	__imp_?set@UnicodeSet@icu_56@@QAEAAV12@HH@Z:PROC
EXTRN	__imp_?containsSome@UnicodeSet@icu_56@@QBECHH@Z:PROC
; Function compile flags: /Odtp /RTCsu /ZI
;	COMDAT _enumCnERange
_TEXT	SEGMENT
tv137 = -232						; size = 4
_i$72913 = -32						; size = 4
_count$72912 = -20					; size = 4
_cne$ = -8						; size = 4
_context$ = 8						; size = 4
_start$ = 12						; size = 4
_end$ = 16						; size = 4
_ce32$ = 20						; size = 4
_enumCnERange PROC					; COMDAT
; Line 358
	push	ebp
	mov	ebp, esp
	sub	esp, 232				; 000000e8H
	push	ebx
	push	esi
	push	edi
	lea	edi, DWORD PTR [ebp-232]
	mov	ecx, 58					; 0000003aH
	mov	eax, -858993460				; ccccccccH
	rep stosd
; Line 359
	mov	eax, DWORD PTR _context$[ebp]
	mov	DWORD PTR _cne$[ebp], eax
; Line 360
	mov	eax, DWORD PTR _cne$[ebp]
	movsx	ecx, BYTE PTR [eax+17]
	test	ecx, ecx
	jne	SHORT $LN13@enumCnERan
	jmp	$LN12@enumCnERan
$LN13@enumCnERan:
; Line 363
	mov	eax, DWORD PTR _cne$[ebp]
	movsx	ecx, BYTE PTR [eax+17]
	test	ecx, ecx
	jge	SHORT $LN11@enumCnERan
; Line 365
	cmp	DWORD PTR _ce32$[ebp], 192		; 000000c0H
	jne	SHORT $LN10@enumCnERan
; Line 366
	mov	al, 1
	jmp	$LN14@enumCnERan
; Line 367
	jmp	SHORT $LN9@enumCnERan
$LN10@enumCnERan:
; Line 368
	mov	esi, esp
	mov	eax, DWORD PTR _end$[ebp]
	push	eax
	mov	ecx, DWORD PTR _start$[ebp]
	push	ecx
	mov	ecx, DWORD PTR _cne$[ebp]
	add	ecx, 20					; 00000014H
	mov	edx, DWORD PTR _cne$[ebp]
	mov	eax, DWORD PTR [edx+20]
	mov	edx, DWORD PTR [eax+52]
	call	edx
	cmp	esi, esp
	call	__RTC_CheckEsp
$LN9@enumCnERan:
; Line 369
	jmp	$LN12@enumCnERan
$LN11@enumCnERan:
; Line 371
	mov	eax, DWORD PTR _start$[ebp]
	cmp	eax, DWORD PTR _end$[ebp]
	jne	SHORT $LN7@enumCnERan
; Line 372
	mov	esi, esp
	mov	eax, DWORD PTR _start$[ebp]
	push	eax
	mov	ecx, DWORD PTR _cne$[ebp]
	add	ecx, 20					; 00000014H
	mov	edx, DWORD PTR _cne$[ebp]
	mov	eax, DWORD PTR [edx+20]
	mov	edx, DWORD PTR [eax+24]
	call	edx
	cmp	esi, esp
	call	__RTC_CheckEsp
	movsx	eax, al
	test	eax, eax
	je	SHORT $LN6@enumCnERan
; Line 373
	mov	al, 1
	jmp	$LN14@enumCnERan
$LN6@enumCnERan:
; Line 374
	jmp	$LN12@enumCnERan
$LN7@enumCnERan:
; Line 375
	mov	esi, esp
	mov	eax, DWORD PTR _end$[ebp]
	push	eax
	mov	ecx, DWORD PTR _start$[ebp]
	push	ecx
	mov	ecx, DWORD PTR _cne$[ebp]
	add	ecx, 20					; 00000014H
	call	DWORD PTR __imp_?containsSome@UnicodeSet@icu_56@@QBECHH@Z
	cmp	esi, esp
	call	__RTC_CheckEsp
	movsx	edx, al
	test	edx, edx
	je	$LN12@enumCnERan
; Line 376
	mov	esi, esp
	mov	eax, DWORD PTR _end$[ebp]
	push	eax
	mov	ecx, DWORD PTR _start$[ebp]
	push	ecx
	mov	ecx, DWORD PTR _cne$[ebp]
	add	ecx, 72					; 00000048H
	call	DWORD PTR __imp_?set@UnicodeSet@icu_56@@QAEAAV12@HH@Z
	cmp	esi, esp
	call	__RTC_CheckEsp
	mov	DWORD PTR tv137[ebp], eax
	mov	edx, DWORD PTR _cne$[ebp]
	add	edx, 20					; 00000014H
	mov	esi, esp
	push	edx
	mov	eax, DWORD PTR tv137[ebp]
	mov	edx, DWORD PTR [eax]
	mov	ecx, DWORD PTR tv137[ebp]
	mov	eax, DWORD PTR [edx+68]
	call	eax
	cmp	esi, esp
	call	__RTC_CheckEsp
; Line 377
	mov	ecx, DWORD PTR _cne$[ebp]
	add	ecx, 72					; 00000048H
	mov	eax, DWORD PTR _cne$[ebp]
	mov	edx, DWORD PTR [eax+72]
	mov	esi, esp
	mov	eax, DWORD PTR [edx+96]
	call	eax
	cmp	esi, esp
	call	__RTC_CheckEsp
	mov	DWORD PTR _count$72912[ebp], eax
; Line 378
	mov	DWORD PTR _i$72913[ebp], 0
	jmp	SHORT $LN3@enumCnERan
$LN2@enumCnERan:
	mov	eax, DWORD PTR _i$72913[ebp]
	add	eax, 1
	mov	DWORD PTR _i$72913[ebp], eax
$LN3@enumCnERan:
	mov	eax, DWORD PTR _i$72913[ebp]
	cmp	eax, DWORD PTR _count$72912[ebp]
	jge	SHORT $LN1@enumCnERan
; Line 379
	mov	eax, DWORD PTR _ce32$[ebp]
	push	eax
	mov	esi, esp
	mov	ecx, DWORD PTR _i$72913[ebp]
	push	ecx
	mov	ecx, DWORD PTR _cne$[ebp]
	add	ecx, 72					; 00000048H
	mov	edx, DWORD PTR _cne$[ebp]
	mov	eax, DWORD PTR [edx+72]
	mov	edx, DWORD PTR [eax+104]
	call	edx
	cmp	esi, esp
	call	__RTC_CheckEsp
	push	eax
	mov	esi, esp
	mov	eax, DWORD PTR _i$72913[ebp]
	push	eax
	mov	ecx, DWORD PTR _cne$[ebp]
	add	ecx, 72					; 00000048H
	mov	edx, DWORD PTR _cne$[ebp]
	mov	eax, DWORD PTR [edx+72]
	mov	edx, DWORD PTR [eax+100]
	call	edx
	cmp	esi, esp
	call	__RTC_CheckEsp
	push	eax
	mov	ecx, DWORD PTR _cne$[ebp]
	call	?handleCE32@ContractionsAndExpansions@icu_56@@QAEXHHI@Z ; icu_56::ContractionsAndExpansions::handleCE32
; Line 380
	jmp	SHORT $LN2@enumCnERan
$LN1@enumCnERan:
; Line 381
	mov	eax, DWORD PTR _cne$[ebp]
	mov	ecx, DWORD PTR [eax+440]
	push	ecx
	call	?U_SUCCESS@@YACW4UErrorCode@@@Z		; U_SUCCESS
	add	esp, 4
	jmp	SHORT $LN14@enumCnERan
$LN12@enumCnERan:
; Line 383
	mov	eax, DWORD PTR _ce32$[ebp]
	push	eax
	mov	ecx, DWORD PTR _end$[ebp]
	push	ecx
	mov	edx, DWORD PTR _start$[ebp]
	push	edx
	mov	ecx, DWORD PTR _cne$[ebp]
	call	?handleCE32@ContractionsAndExpansions@icu_56@@QAEXHHI@Z ; icu_56::ContractionsAndExpansions::handleCE32
; Line 384
	mov	eax, DWORD PTR _cne$[ebp]
	mov	ecx, DWORD PTR [eax+440]
	push	ecx
	call	?U_SUCCESS@@YACW4UErrorCode@@@Z		; U_SUCCESS
	add	esp, 4
$LN14@enumCnERan:
; Line 385
	pop	edi
	pop	esi
	pop	ebx
	add	esp, 232				; 000000e8H
	cmp	ebp, esp
	call	__RTC_CheckEsp
	mov	esp, ebp
	pop	ebp
	ret	0
_enumCnERange ENDP
_TEXT	ENDS
PUBLIC	?forCodePoint@ContractionsAndExpansions@icu_56@@QAEXPBUCollationData@2@HAAW4UErrorCode@@@Z ; icu_56::ContractionsAndExpansions::forCodePoint
; Function compile flags: /Odtp /RTCsu /ZI
;	COMDAT ?forCodePoint@ContractionsAndExpansions@icu_56@@QAEXPBUCollationData@2@HAAW4UErrorCode@@@Z
_TEXT	SEGMENT
_ce32$ = -20						; size = 4
_this$ = -8						; size = 4
_d$ = 8							; size = 4
_c$ = 12						; size = 4
_ec$ = 16						; size = 4
?forCodePoint@ContractionsAndExpansions@icu_56@@QAEXPBUCollationData@2@HAAW4UErrorCode@@@Z PROC ; icu_56::ContractionsAndExpansions::forCodePoint, COMDAT
; _this$ = ecx
; Line 412
	push	ebp
	mov	ebp, esp
	sub	esp, 216				; 000000d8H
	push	ebx
	push	esi
	push	edi
	push	ecx
	lea	edi, DWORD PTR [ebp-216]
	mov	ecx, 54					; 00000036H
	mov	eax, -858993460				; ccccccccH
	rep stosd
	pop	ecx
	mov	DWORD PTR _this$[ebp], ecx
; Line 413
	mov	eax, DWORD PTR _ec$[ebp]
	mov	ecx, DWORD PTR [eax]
	push	ecx
	call	?U_FAILURE@@YACW4UErrorCode@@@Z		; U_FAILURE
	add	esp, 4
	movsx	edx, al
	test	edx, edx
	je	SHORT $LN2@forCodePoi
	jmp	SHORT $LN3@forCodePoi
$LN2@forCodePoi:
; Line 414
	mov	eax, DWORD PTR _this$[ebp]
	mov	ecx, DWORD PTR _ec$[ebp]
	mov	edx, DWORD PTR [ecx]
	mov	DWORD PTR [eax+440], edx
; Line 415
	mov	eax, DWORD PTR _c$[ebp]
	push	eax
	mov	ecx, DWORD PTR _d$[ebp]
	call	?getCE32@CollationData@icu_56@@QBEIH@Z	; icu_56::CollationData::getCE32
	mov	DWORD PTR _ce32$[ebp], eax
; Line 416
	cmp	DWORD PTR _ce32$[ebp], 192		; 000000c0H
	jne	SHORT $LN1@forCodePoi
; Line 417
	mov	eax, DWORD PTR _d$[ebp]
	mov	ecx, DWORD PTR [eax+16]
	mov	DWORD PTR _d$[ebp], ecx
; Line 418
	mov	eax, DWORD PTR _c$[ebp]
	push	eax
	mov	ecx, DWORD PTR _d$[ebp]
	call	?getCE32@CollationData@icu_56@@QBEIH@Z	; icu_56::CollationData::getCE32
	mov	DWORD PTR _ce32$[ebp], eax
$LN1@forCodePoi:
; Line 420
	mov	eax, DWORD PTR _this$[ebp]
	mov	ecx, DWORD PTR _d$[ebp]
	mov	DWORD PTR [eax], ecx
; Line 421
	mov	eax, DWORD PTR _ce32$[ebp]
	push	eax
	mov	ecx, DWORD PTR _c$[ebp]
	push	ecx
	mov	edx, DWORD PTR _c$[ebp]
	push	edx
	mov	ecx, DWORD PTR _this$[ebp]
	call	?handleCE32@ContractionsAndExpansions@icu_56@@QAEXHHI@Z ; icu_56::ContractionsAndExpansions::handleCE32
; Line 422
	mov	eax, DWORD PTR _ec$[ebp]
	mov	ecx, DWORD PTR _this$[ebp]
	mov	edx, DWORD PTR [ecx+440]
	mov	DWORD PTR [eax], edx
$LN3@forCodePoi:
; Line 423
	pop	edi
	pop	esi
	pop	ebx
	add	esp, 216				; 000000d8H
	cmp	ebp, esp
	call	__RTC_CheckEsp
	mov	esp, ebp
	pop	ebp
	ret	12					; 0000000cH
?forCodePoint@ContractionsAndExpansions@icu_56@@QAEXPBUCollationData@2@HAAW4UErrorCode@@@Z ENDP ; icu_56::ContractionsAndExpansions::forCodePoint
_TEXT	ENDS
PUBLIC	??_C@_1HE@PAICGHFN@?$AAl?$AAe?$AAn?$AAg?$AAt?$AAh?$AA?5?$AA?$DO?$AA?$DN?$AA?5?$AA2?$AA?5?$AA?$CG?$AA?$CG?$AA?5?$AAi?$AAt?$AAe?$AAr?$AA?4?$AAg?$AAe?$AAt?$AAC?$AAE?$AA?$CI?$AAl?$AAe?$AAn?$AAg?$AAt?$AAh@ ; `string'
PUBLIC	??_C@_1CO@OIPOFMFC@?$AAs?$AAt?$AAa?$AAr?$AAt?$AA?5?$AA?$DN?$AA?$DN?$AA?5?$AA0?$AA?5?$AA?$CG?$AA?$CG?$AA?5?$AAe?$AAn?$AAd?$AA?5?$AA?$DN?$AA?$DN?$AA?5?$AA0?$AA?$AA@ ; `string'
PUBLIC	?__LINE__Var@?1??handleCE32@ContractionsAndExpansions@icu_56@@QAEXHHI@Z@4JA ; `icu_56::ContractionsAndExpansions::handleCE32'::`2'::__LINE__Var
PUBLIC	?handleContractions@ContractionsAndExpansions@icu_56@@QAEXHHI@Z ; icu_56::ContractionsAndExpansions::handleContractions
PUBLIC	?handlePrefixes@ContractionsAndExpansions@icu_56@@QAEXHHI@Z ; icu_56::ContractionsAndExpansions::handlePrefixes
PUBLIC	?addExpansions@ContractionsAndExpansions@icu_56@@QAEXHH@Z ; icu_56::ContractionsAndExpansions::addExpansions
PUBLIC	__$ArrayPad$
