; Listing generated by Microsoft (R) Optimizing Compiler Version 16.00.40219.01 

	TITLE	D:\mozilla\intl\icu\source\i18n\csdetect.cpp
	.686P
	.XMM
	include listing.inc
	.model	flat

INCLUDELIB MSVCRTD
INCLUDELIB OLDNAMES

PUBLIC	?value@?$integral_constant@_N$0A@@tr1@std@@2_NB	; std::tr1::integral_constant<bool,0>::value
PUBLIC	?value@?$integral_constant@_N$00@tr1@std@@2_NB	; std::tr1::integral_constant<bool,1>::value
PUBLIC	?value@?$integral_constant@I$0A@@tr1@std@@2IB	; std::tr1::integral_constant<unsigned int,0>::value
PUBLIC	?_Rank@?$_Arithmetic_traits@_N@std@@2HB		; std::_Arithmetic_traits<bool>::_Rank
PUBLIC	?_Rank@?$_Arithmetic_traits@D@std@@2HB		; std::_Arithmetic_traits<char>::_Rank
PUBLIC	?_Rank@?$_Arithmetic_traits@C@std@@2HB		; std::_Arithmetic_traits<signed char>::_Rank
PUBLIC	?_Rank@?$_Arithmetic_traits@E@std@@2HB		; std::_Arithmetic_traits<unsigned char>::_Rank
PUBLIC	?_Rank@?$_Arithmetic_traits@F@std@@2HB		; std::_Arithmetic_traits<short>::_Rank
PUBLIC	?_Rank@?$_Arithmetic_traits@G@std@@2HB		; std::_Arithmetic_traits<unsigned short>::_Rank
PUBLIC	?_Rank@?$_Arithmetic_traits@H@std@@2HB		; std::_Arithmetic_traits<int>::_Rank
PUBLIC	?_Rank@?$_Arithmetic_traits@I@std@@2HB		; std::_Arithmetic_traits<unsigned int>::_Rank
PUBLIC	?_Rank@?$_Arithmetic_traits@J@std@@2HB		; std::_Arithmetic_traits<long>::_Rank
PUBLIC	?_Rank@?$_Arithmetic_traits@K@std@@2HB		; std::_Arithmetic_traits<unsigned long>::_Rank
PUBLIC	?_Rank@?$_Arithmetic_traits@_J@std@@2HB		; std::_Arithmetic_traits<__int64>::_Rank
PUBLIC	?_Rank@?$_Arithmetic_traits@_K@std@@2HB		; std::_Arithmetic_traits<unsigned __int64>::_Rank
PUBLIC	?_Rank@?$_Arithmetic_traits@M@std@@2HB		; std::_Arithmetic_traits<float>::_Rank
PUBLIC	?_Rank@?$_Arithmetic_traits@N@std@@2HB		; std::_Arithmetic_traits<double>::_Rank
PUBLIC	?_Rank@?$_Arithmetic_traits@O@std@@2HB		; std::_Arithmetic_traits<long double>::_Rank
PUBLIC	?collate@?$_Locbase@H@std@@2HB			; std::_Locbase<int>::collate
PUBLIC	?ctype@?$_Locbase@H@std@@2HB			; std::_Locbase<int>::ctype
PUBLIC	?monetary@?$_Locbase@H@std@@2HB			; std::_Locbase<int>::monetary
PUBLIC	?numeric@?$_Locbase@H@std@@2HB			; std::_Locbase<int>::numeric
PUBLIC	?time@?$_Locbase@H@std@@2HB			; std::_Locbase<int>::time
PUBLIC	?messages@?$_Locbase@H@std@@2HB			; std::_Locbase<int>::messages
PUBLIC	?all@?$_Locbase@H@std@@2HB			; std::_Locbase<int>::all
PUBLIC	?none@?$_Locbase@H@std@@2HB			; std::_Locbase<int>::none
PUBLIC	?skipws@?$_Iosb@H@std@@2W4_Fmtflags@12@B	; std::_Iosb<int>::skipws
PUBLIC	?unitbuf@?$_Iosb@H@std@@2W4_Fmtflags@12@B	; std::_Iosb<int>::unitbuf
PUBLIC	?uppercase@?$_Iosb@H@std@@2W4_Fmtflags@12@B	; std::_Iosb<int>::uppercase
PUBLIC	?showbase@?$_Iosb@H@std@@2W4_Fmtflags@12@B	; std::_Iosb<int>::showbase
PUBLIC	?showpoint@?$_Iosb@H@std@@2W4_Fmtflags@12@B	; std::_Iosb<int>::showpoint
PUBLIC	?showpos@?$_Iosb@H@std@@2W4_Fmtflags@12@B	; std::_Iosb<int>::showpos
PUBLIC	?left@?$_Iosb@H@std@@2W4_Fmtflags@12@B		; std::_Iosb<int>::left
PUBLIC	?right@?$_Iosb@H@std@@2W4_Fmtflags@12@B		; std::_Iosb<int>::right
PUBLIC	?internal@?$_Iosb@H@std@@2W4_Fmtflags@12@B	; std::_Iosb<int>::internal
PUBLIC	?dec@?$_Iosb@H@std@@2W4_Fmtflags@12@B		; std::_Iosb<int>::dec
PUBLIC	?oct@?$_Iosb@H@std@@2W4_Fmtflags@12@B		; std::_Iosb<int>::oct
PUBLIC	?hex@?$_Iosb@H@std@@2W4_Fmtflags@12@B		; std::_Iosb<int>::hex
PUBLIC	?scientific@?$_Iosb@H@std@@2W4_Fmtflags@12@B	; std::_Iosb<int>::scientific
PUBLIC	?fixed@?$_Iosb@H@std@@2W4_Fmtflags@12@B		; std::_Iosb<int>::fixed
PUBLIC	?hexfloat@?$_Iosb@H@std@@2W4_Fmtflags@12@B	; std::_Iosb<int>::hexfloat
PUBLIC	?boolalpha@?$_Iosb@H@std@@2W4_Fmtflags@12@B	; std::_Iosb<int>::boolalpha
PUBLIC	?_Stdio@?$_Iosb@H@std@@2W4_Fmtflags@12@B	; std::_Iosb<int>::_Stdio
PUBLIC	?adjustfield@?$_Iosb@H@std@@2W4_Fmtflags@12@B	; std::_Iosb<int>::adjustfield
PUBLIC	?basefield@?$_Iosb@H@std@@2W4_Fmtflags@12@B	; std::_Iosb<int>::basefield
PUBLIC	?floatfield@?$_Iosb@H@std@@2W4_Fmtflags@12@B	; std::_Iosb<int>::floatfield
PUBLIC	?goodbit@?$_Iosb@H@std@@2W4_Iostate@12@B	; std::_Iosb<int>::goodbit
PUBLIC	?eofbit@?$_Iosb@H@std@@2W4_Iostate@12@B		; std::_Iosb<int>::eofbit
PUBLIC	?failbit@?$_Iosb@H@std@@2W4_Iostate@12@B	; std::_Iosb<int>::failbit
PUBLIC	?badbit@?$_Iosb@H@std@@2W4_Iostate@12@B		; std::_Iosb<int>::badbit
PUBLIC	?_Hardfail@?$_Iosb@H@std@@2W4_Iostate@12@B	; std::_Iosb<int>::_Hardfail
PUBLIC	?in@?$_Iosb@H@std@@2W4_Openmode@12@B		; std::_Iosb<int>::in
PUBLIC	?out@?$_Iosb@H@std@@2W4_Openmode@12@B		; std::_Iosb<int>::out
PUBLIC	?ate@?$_Iosb@H@std@@2W4_Openmode@12@B		; std::_Iosb<int>::ate
PUBLIC	?app@?$_Iosb@H@std@@2W4_Openmode@12@B		; std::_Iosb<int>::app
PUBLIC	?trunc@?$_Iosb@H@std@@2W4_Openmode@12@B		; std::_Iosb<int>::trunc
PUBLIC	?_Nocreate@?$_Iosb@H@std@@2W4_Openmode@12@B	; std::_Iosb<int>::_Nocreate
PUBLIC	?_Noreplace@?$_Iosb@H@std@@2W4_Openmode@12@B	; std::_Iosb<int>::_Noreplace
PUBLIC	?binary@?$_Iosb@H@std@@2W4_Openmode@12@B	; std::_Iosb<int>::binary
PUBLIC	?beg@?$_Iosb@H@std@@2W4_Seekdir@12@B		; std::_Iosb<int>::beg
PUBLIC	?cur@?$_Iosb@H@std@@2W4_Seekdir@12@B		; std::_Iosb<int>::cur
PUBLIC	?end@?$_Iosb@H@std@@2W4_Seekdir@12@B		; std::_Iosb<int>::end
EXTRN	_uenum_unextDefault_56:PROC
_BSS	SEGMENT
_fCSRecognizers DD 01H DUP (?)
_fCSRecognizers_size DD 01H DUP (?)
_BSS	ENDS
CONST	SEGMENT
_gCSDetEnumeration DD 00H
	DD	00H
	DD	FLAT:_enumClose
	DD	FLAT:_enumCount
	DD	FLAT:_uenum_unextDefault_56
	DD	FLAT:_enumNext
	DD	FLAT:_enumReset
CONST	ENDS
;	COMDAT ?end@?$_Iosb@H@std@@2W4_Seekdir@12@B
CONST	SEGMENT
?end@?$_Iosb@H@std@@2W4_Seekdir@12@B DD 02H		; std::_Iosb<int>::end
CONST	ENDS
;	COMDAT ?cur@?$_Iosb@H@std@@2W4_Seekdir@12@B
CONST	SEGMENT
?cur@?$_Iosb@H@std@@2W4_Seekdir@12@B DD 01H		; std::_Iosb<int>::cur
CONST	ENDS
;	COMDAT ?beg@?$_Iosb@H@std@@2W4_Seekdir@12@B
CONST	SEGMENT
?beg@?$_Iosb@H@std@@2W4_Seekdir@12@B DD 00H		; std::_Iosb<int>::beg
CONST	ENDS
;	COMDAT ?binary@?$_Iosb@H@std@@2W4_Openmode@12@B
CONST	SEGMENT
?binary@?$_Iosb@H@std@@2W4_Openmode@12@B DD 020H	; std::_Iosb<int>::binary
CONST	ENDS
;	COMDAT ?_Noreplace@?$_Iosb@H@std@@2W4_Openmode@12@B
CONST	SEGMENT
?_Noreplace@?$_Iosb@H@std@@2W4_Openmode@12@B DD 080H	; std::_Iosb<int>::_Noreplace
CONST	ENDS
;	COMDAT ?_Nocreate@?$_Iosb@H@std@@2W4_Openmode@12@B
CONST	SEGMENT
?_Nocreate@?$_Iosb@H@std@@2W4_Openmode@12@B DD 040H	; std::_Iosb<int>::_Nocreate
CONST	ENDS
;	COMDAT ?trunc@?$_Iosb@H@std@@2W4_Openmode@12@B
CONST	SEGMENT
?trunc@?$_Iosb@H@std@@2W4_Openmode@12@B DD 010H		; std::_Iosb<int>::trunc
CONST	ENDS
;	COMDAT ?app@?$_Iosb@H@std@@2W4_Openmode@12@B
CONST	SEGMENT
?app@?$_Iosb@H@std@@2W4_Openmode@12@B DD 08H		; std::_Iosb<int>::app
CONST	ENDS
;	COMDAT ?ate@?$_Iosb@H@std@@2W4_Openmode@12@B
CONST	SEGMENT
?ate@?$_Iosb@H@std@@2W4_Openmode@12@B DD 04H		; std::_Iosb<int>::ate
CONST	ENDS
;	COMDAT ?out@?$_Iosb@H@std@@2W4_Openmode@12@B
CONST	SEGMENT
?out@?$_Iosb@H@std@@2W4_Openmode@12@B DD 02H		; std::_Iosb<int>::out
CONST	ENDS
;	COMDAT ?in@?$_Iosb@H@std@@2W4_Openmode@12@B
CONST	SEGMENT
?in@?$_Iosb@H@std@@2W4_Openmode@12@B DD 01H		; std::_Iosb<int>::in
CONST	ENDS
;	COMDAT ?_Hardfail@?$_Iosb@H@std@@2W4_Iostate@12@B
CONST	SEGMENT
?_Hardfail@?$_Iosb@H@std@@2W4_Iostate@12@B DD 010H	; std::_Iosb<int>::_Hardfail
CONST	ENDS
;	COMDAT ?badbit@?$_Iosb@H@std@@2W4_Iostate@12@B
CONST	SEGMENT
?badbit@?$_Iosb@H@std@@2W4_Iostate@12@B DD 04H		; std::_Iosb<int>::badbit
CONST	ENDS
;	COMDAT ?failbit@?$_Iosb@H@std@@2W4_Iostate@12@B
CONST	SEGMENT
?failbit@?$_Iosb@H@std@@2W4_Iostate@12@B DD 02H		; std::_Iosb<int>::failbit
CONST	ENDS
;	COMDAT ?eofbit@?$_Iosb@H@std@@2W4_Iostate@12@B
CONST	SEGMENT
?eofbit@?$_Iosb@H@std@@2W4_Iostate@12@B DD 01H		; std::_Iosb<int>::eofbit
CONST	ENDS
;	COMDAT ?goodbit@?$_Iosb@H@std@@2W4_Iostate@12@B
CONST	SEGMENT
?goodbit@?$_Iosb@H@std@@2W4_Iostate@12@B DD 00H		; std::_Iosb<int>::goodbit
CONST	ENDS
;	COMDAT ?floatfield@?$_Iosb@H@std@@2W4_Fmtflags@12@B
CONST	SEGMENT
?floatfield@?$_Iosb@H@std@@2W4_Fmtflags@12@B DD 03000H	; std::_Iosb<int>::floatfield
CONST	ENDS
;	COMDAT ?basefield@?$_Iosb@H@std@@2W4_Fmtflags@12@B
CONST	SEGMENT
?basefield@?$_Iosb@H@std@@2W4_Fmtflags@12@B DD 0e00H	; std::_Iosb<int>::basefield
CONST	ENDS
;	COMDAT ?adjustfield@?$_Iosb@H@std@@2W4_Fmtflags@12@B
CONST	SEGMENT
?adjustfield@?$_Iosb@H@std@@2W4_Fmtflags@12@B DD 01c0H	; std::_Iosb<int>::adjustfield
CONST	ENDS
;	COMDAT ?_Stdio@?$_Iosb@H@std@@2W4_Fmtflags@12@B
CONST	SEGMENT
?_Stdio@?$_Iosb@H@std@@2W4_Fmtflags@12@B DD 08000H	; std::_Iosb<int>::_Stdio
CONST	ENDS
;	COMDAT ?boolalpha@?$_Iosb@H@std@@2W4_Fmtflags@12@B
CONST	SEGMENT
?boolalpha@?$_Iosb@H@std@@2W4_Fmtflags@12@B DD 04000H	; std::_Iosb<int>::boolalpha
CONST	ENDS
;	COMDAT ?hexfloat@?$_Iosb@H@std@@2W4_Fmtflags@12@B
CONST	SEGMENT
?hexfloat@?$_Iosb@H@std@@2W4_Fmtflags@12@B DD 03000H	; std::_Iosb<int>::hexfloat
CONST	ENDS
;	COMDAT ?fixed@?$_Iosb@H@std@@2W4_Fmtflags@12@B
CONST	SEGMENT
?fixed@?$_Iosb@H@std@@2W4_Fmtflags@12@B DD 02000H	; std::_Iosb<int>::fixed
CONST	ENDS
;	COMDAT ?scientific@?$_Iosb@H@std@@2W4_Fmtflags@12@B
CONST	SEGMENT
?scientific@?$_Iosb@H@std@@2W4_Fmtflags@12@B DD 01000H	; std::_Iosb<int>::scientific
CONST	ENDS
;	COMDAT ?hex@?$_Iosb@H@std@@2W4_Fmtflags@12@B
CONST	SEGMENT
?hex@?$_Iosb@H@std@@2W4_Fmtflags@12@B DD 0800H		; std::_Iosb<int>::hex
CONST	ENDS
;	COMDAT ?oct@?$_Iosb@H@std@@2W4_Fmtflags@12@B
CONST	SEGMENT
?oct@?$_Iosb@H@std@@2W4_Fmtflags@12@B DD 0400H		; std::_Iosb<int>::oct
CONST	ENDS
;	COMDAT ?dec@?$_Iosb@H@std@@2W4_Fmtflags@12@B
CONST	SEGMENT
?dec@?$_Iosb@H@std@@2W4_Fmtflags@12@B DD 0200H		; std::_Iosb<int>::dec
CONST	ENDS
;	COMDAT ?internal@?$_Iosb@H@std@@2W4_Fmtflags@12@B
CONST	SEGMENT
?internal@?$_Iosb@H@std@@2W4_Fmtflags@12@B DD 0100H	; std::_Iosb<int>::internal
CONST	ENDS
;	COMDAT ?right@?$_Iosb@H@std@@2W4_Fmtflags@12@B
CONST	SEGMENT
?right@?$_Iosb@H@std@@2W4_Fmtflags@12@B DD 080H		; std::_Iosb<int>::right
CONST	ENDS
;	COMDAT ?left@?$_Iosb@H@std@@2W4_Fmtflags@12@B
CONST	SEGMENT
?left@?$_Iosb@H@std@@2W4_Fmtflags@12@B DD 040H		; std::_Iosb<int>::left
CONST	ENDS
;	COMDAT ?showpos@?$_Iosb@H@std@@2W4_Fmtflags@12@B
CONST	SEGMENT
?showpos@?$_Iosb@H@std@@2W4_Fmtflags@12@B DD 020H	; std::_Iosb<int>::showpos
CONST	ENDS
;	COMDAT ?showpoint@?$_Iosb@H@std@@2W4_Fmtflags@12@B
CONST	SEGMENT
?showpoint@?$_Iosb@H@std@@2W4_Fmtflags@12@B DD 010H	; std::_Iosb<int>::showpoint
CONST	ENDS
;	COMDAT ?showbase@?$_Iosb@H@std@@2W4_Fmtflags@12@B
CONST	SEGMENT
?showbase@?$_Iosb@H@std@@2W4_Fmtflags@12@B DD 08H	; std::_Iosb<int>::showbase
CONST	ENDS
;	COMDAT ?uppercase@?$_Iosb@H@std@@2W4_Fmtflags@12@B
CONST	SEGMENT
?uppercase@?$_Iosb@H@std@@2W4_Fmtflags@12@B DD 04H	; std::_Iosb<int>::uppercase
CONST	ENDS
;	COMDAT ?unitbuf@?$_Iosb@H@std@@2W4_Fmtflags@12@B
CONST	SEGMENT
?unitbuf@?$_Iosb@H@std@@2W4_Fmtflags@12@B DD 02H	; std::_Iosb<int>::unitbuf
CONST	ENDS
;	COMDAT ?skipws@?$_Iosb@H@std@@2W4_Fmtflags@12@B
CONST	SEGMENT
?skipws@?$_Iosb@H@std@@2W4_Fmtflags@12@B DD 01H		; std::_Iosb<int>::skipws
CONST	ENDS
;	COMDAT ?none@?$_Locbase@H@std@@2HB
CONST	SEGMENT
?none@?$_Locbase@H@std@@2HB DD 00H			; std::_Locbase<int>::none
CONST	ENDS
;	COMDAT ?all@?$_Locbase@H@std@@2HB
CONST	SEGMENT
?all@?$_Locbase@H@std@@2HB DD 03fH			; std::_Locbase<int>::all
CONST	ENDS
;	COMDAT ?messages@?$_Locbase@H@std@@2HB
CONST	SEGMENT
?messages@?$_Locbase@H@std@@2HB DD 020H			; std::_Locbase<int>::messages
CONST	ENDS
;	COMDAT ?time@?$_Locbase@H@std@@2HB
CONST	SEGMENT
?time@?$_Locbase@H@std@@2HB DD 010H			; std::_Locbase<int>::time
CONST	ENDS
;	COMDAT ?numeric@?$_Locbase@H@std@@2HB
CONST	SEGMENT
?numeric@?$_Locbase@H@std@@2HB DD 08H			; std::_Locbase<int>::numeric
CONST	ENDS
;	COMDAT ?monetary@?$_Locbase@H@std@@2HB
CONST	SEGMENT
?monetary@?$_Locbase@H@std@@2HB DD 04H			; std::_Locbase<int>::monetary
CONST	ENDS
;	COMDAT ?ctype@?$_Locbase@H@std@@2HB
CONST	SEGMENT
?ctype@?$_Locbase@H@std@@2HB DD 02H			; std::_Locbase<int>::ctype
CONST	ENDS
;	COMDAT ?collate@?$_Locbase@H@std@@2HB
CONST	SEGMENT
?collate@?$_Locbase@H@std@@2HB DD 01H			; std::_Locbase<int>::collate
CONST	ENDS
;	COMDAT ?_Rank@?$_Arithmetic_traits@O@std@@2HB
CONST	SEGMENT
?_Rank@?$_Arithmetic_traits@O@std@@2HB DD 09H		; std::_Arithmetic_traits<long double>::_Rank
CONST	ENDS
;	COMDAT ?_Rank@?$_Arithmetic_traits@N@std@@2HB
CONST	SEGMENT
?_Rank@?$_Arithmetic_traits@N@std@@2HB DD 08H		; std::_Arithmetic_traits<double>::_Rank
CONST	ENDS
;	COMDAT ?_Rank@?$_Arithmetic_traits@M@std@@2HB
CONST	SEGMENT
?_Rank@?$_Arithmetic_traits@M@std@@2HB DD 07H		; std::_Arithmetic_traits<float>::_Rank
CONST	ENDS
;	COMDAT ?_Rank@?$_Arithmetic_traits@_K@std@@2HB
CONST	SEGMENT
?_Rank@?$_Arithmetic_traits@_K@std@@2HB DD 06H		; std::_Arithmetic_traits<unsigned __int64>::_Rank
CONST	ENDS
;	COMDAT ?_Rank@?$_Arithmetic_traits@_J@std@@2HB
CONST	SEGMENT
?_Rank@?$_Arithmetic_traits@_J@std@@2HB DD 06H		; std::_Arithmetic_traits<__int64>::_Rank
CONST	ENDS
;	COMDAT ?_Rank@?$_Arithmetic_traits@K@std@@2HB
CONST	SEGMENT
?_Rank@?$_Arithmetic_traits@K@std@@2HB DD 05H		; std::_Arithmetic_traits<unsigned long>::_Rank
CONST	ENDS
;	COMDAT ?_Rank@?$_Arithmetic_traits@J@std@@2HB
CONST	SEGMENT
?_Rank@?$_Arithmetic_traits@J@std@@2HB DD 05H		; std::_Arithmetic_traits<long>::_Rank
CONST	ENDS
;	COMDAT ?_Rank@?$_Arithmetic_traits@I@std@@2HB
CONST	SEGMENT
?_Rank@?$_Arithmetic_traits@I@std@@2HB DD 04H		; std::_Arithmetic_traits<unsigned int>::_Rank
CONST	ENDS
;	COMDAT ?_Rank@?$_Arithmetic_traits@H@std@@2HB
CONST	SEGMENT
?_Rank@?$_Arithmetic_traits@H@std@@2HB DD 04H		; std::_Arithmetic_traits<int>::_Rank
CONST	ENDS
;	COMDAT ?_Rank@?$_Arithmetic_traits@G@std@@2HB
CONST	SEGMENT
?_Rank@?$_Arithmetic_traits@G@std@@2HB DD 03H		; std::_Arithmetic_traits<unsigned short>::_Rank
CONST	ENDS
;	COMDAT ?_Rank@?$_Arithmetic_traits@F@std@@2HB
CONST	SEGMENT
?_Rank@?$_Arithmetic_traits@F@std@@2HB DD 03H		; std::_Arithmetic_traits<short>::_Rank
CONST	ENDS
;	COMDAT ?_Rank@?$_Arithmetic_traits@E@std@@2HB
CONST	SEGMENT
?_Rank@?$_Arithmetic_traits@E@std@@2HB DD 02H		; std::_Arithmetic_traits<unsigned char>::_Rank
CONST	ENDS
;	COMDAT ?_Rank@?$_Arithmetic_traits@C@std@@2HB
CONST	SEGMENT
?_Rank@?$_Arithmetic_traits@C@std@@2HB DD 02H		; std::_Arithmetic_traits<signed char>::_Rank
CONST	ENDS
;	COMDAT ?_Rank@?$_Arithmetic_traits@D@std@@2HB
CONST	SEGMENT
?_Rank@?$_Arithmetic_traits@D@std@@2HB DD 02H		; std::_Arithmetic_traits<char>::_Rank
CONST	ENDS
;	COMDAT ?_Rank@?$_Arithmetic_traits@_N@std@@2HB
CONST	SEGMENT
?_Rank@?$_Arithmetic_traits@_N@std@@2HB DD 01H		; std::_Arithmetic_traits<bool>::_Rank
CONST	ENDS
;	COMDAT ?value@?$integral_constant@I$0A@@tr1@std@@2IB
CONST	SEGMENT
?value@?$integral_constant@I$0A@@tr1@std@@2IB DD 00H	; std::tr1::integral_constant<unsigned int,0>::value
CONST	ENDS
;	COMDAT ?value@?$integral_constant@_N$00@tr1@std@@2_NB
CONST	SEGMENT
?value@?$integral_constant@_N$00@tr1@std@@2_NB DB 01H	; std::tr1::integral_constant<bool,1>::value
CONST	ENDS
;	COMDAT ?value@?$integral_constant@_N$0A@@tr1@std@@2_NB
CONST	SEGMENT
?value@?$integral_constant@_N$0A@@tr1@std@@2_NB DB 00H	; std::tr1::integral_constant<bool,0>::value
CONST	ENDS
PUBLIC	??2@YAPAXI@Z					; operator new
EXTRN	__RTC_Shutdown:PROC
EXTRN	__RTC_InitBase:PROC
;	COMDAT rtc$TMZ
; File d:\mozilla\intl\icu\include\unicode\utypes.h
rtc$TMZ	SEGMENT
__RTC_Shutdown.rtc$TMZ DD FLAT:__RTC_Shutdown
rtc$TMZ	ENDS
;	COMDAT rtc$IMZ
rtc$IMZ	SEGMENT
__RTC_InitBase.rtc$IMZ DD FLAT:__RTC_InitBase
; Function compile flags: /Odtp /RTCsu /ZI
rtc$IMZ	ENDS
;	COMDAT ??2@YAPAXI@Z
_TEXT	SEGMENT
_q$ = -8						; size = 4
___formal$ = 8						; size = 4
??2@YAPAXI@Z PROC					; operator new, COMDAT
; Line 411
	push	ebp
	mov	ebp, esp
	sub	esp, 204				; 000000ccH
	push	ebx
	push	esi
	push	edi
	lea	edi, DWORD PTR [ebp-204]
	mov	ecx, 51					; 00000033H
	mov	eax, -858993460				; ccccccccH
	rep stosd
; Line 412
	mov	DWORD PTR _q$[ebp], 0
; Line 413
	mov	eax, DWORD PTR _q$[ebp]
	mov	BYTE PTR [eax], 5
; Line 414
	mov	eax, DWORD PTR _q$[ebp]
; Line 415
	pop	edi
	pop	esi
	pop	ebx
	mov	esp, ebp
	pop	ebp
	ret	0
??2@YAPAXI@Z ENDP					; operator new
_TEXT	ENDS
PUBLIC	??3@YAXPAX@Z					; operator delete
; Function compile flags: /Odtp /RTCsu /ZI
;	COMDAT ??3@YAXPAX@Z
_TEXT	SEGMENT
_q$ = -8						; size = 4
___formal$ = 8						; size = 4
??3@YAXPAX@Z PROC					; operator delete, COMDAT
; Line 439
	push	ebp
	mov	ebp, esp
	sub	esp, 204				; 000000ccH
	push	ebx
	push	esi
	push	edi
	lea	edi, DWORD PTR [ebp-204]
	mov	ecx, 51					; 00000033H
	mov	eax, -858993460				; ccccccccH
	rep stosd
; Line 440
	mov	DWORD PTR _q$[ebp], 0
; Line 441
	mov	eax, DWORD PTR _q$[ebp]
	mov	BYTE PTR [eax], 5
; Line 442
	pop	edi
	pop	esi
	pop	ebx
	mov	esp, ebp
	pop	ebp
	ret	0
??3@YAXPAX@Z ENDP					; operator delete
_TEXT	ENDS
PUBLIC	?umtx_initOnce@icu_56@@YAXAAUUInitOnce@1@P6AXAAW4UErrorCode@@@Z1@Z ; icu_56::umtx_initOnce
PUBLIC	?setRecognizers@CharsetDetector@icu_56@@CAXAAW4UErrorCode@@@Z ; icu_56::CharsetDetector::setRecognizers
EXTRN	__RTC_CheckEsp:PROC
_BSS	SEGMENT
_gCSRecognizersInitOnce DQ 01H DUP (?)
; Function compile flags: /Odtp /RTCsu /ZI
_BSS	ENDS
;	COMDAT ?setRecognizers@CharsetDetector@icu_56@@CAXAAW4UErrorCode@@@Z
_TEXT	SEGMENT
_status$ = 8						; size = 4
?setRecognizers@CharsetDetector@icu_56@@CAXAAW4UErrorCode@@@Z PROC ; icu_56::CharsetDetector::setRecognizers, COMDAT
; File d:\mozilla\intl\icu\source\i18n\csdetect.cpp
; Line 146
	push	ebp
	mov	ebp, esp
	sub	esp, 192				; 000000c0H
	push	ebx
	push	esi
	push	edi
	lea	edi, DWORD PTR [ebp-192]
	mov	ecx, 48					; 00000030H
	mov	eax, -858993460				; ccccccccH
	rep stosd
; Line 147
	mov	eax, DWORD PTR _status$[ebp]
	push	eax
	push	OFFSET _initRecognizers
	push	OFFSET _gCSRecognizersInitOnce
	call	?umtx_initOnce@icu_56@@YAXAAUUInitOnce@1@P6AXAAW4UErrorCode@@@Z1@Z ; icu_56::umtx_initOnce
	add	esp, 12					; 0000000cH
; Line 148
	pop	edi
	pop	esi
	pop	ebx
	add	esp, 192				; 000000c0H
	cmp	ebp, esp
	call	__RTC_CheckEsp
	mov	esp, ebp
	pop	ebp
	ret	0
?setRecognizers@CharsetDetector@icu_56@@CAXAAW4UErrorCode@@@Z ENDP ; icu_56::CharsetDetector::setRecognizers
_TEXT	ENDS
PUBLIC	?umtx_loadAcquire@icu_56@@YAHACJ@Z		; icu_56::umtx_loadAcquire
EXTRN	__imp_?umtx_initImplPostInit@icu_56@@YAXAAUUInitOnce@1@@Z:PROC
EXTRN	__imp_?umtx_initImplPreInit@icu_56@@YACAAUUInitOnce@1@@Z:PROC
; Function compile flags: /Odtp /RTCsu /ZI
;	COMDAT ?umtx_initOnce@icu_56@@YAXAAUUInitOnce@1@P6AXAAW4UErrorCode@@@Z1@Z
_TEXT	SEGMENT
_uio$ = 8						; size = 4
_fp$ = 12						; size = 4
_errCode$ = 16						; size = 4
?umtx_initOnce@icu_56@@YAXAAUUInitOnce@1@P6AXAAW4UErrorCode@@@Z1@Z PROC ; icu_56::umtx_initOnce, COMDAT
; File d:\mozilla\intl\icu\source\common\umutex.h
; Line 257
	push	ebp
	mov	ebp, esp
	sub	esp, 192				; 000000c0H
	push	ebx
	push	esi
	push	edi
	lea	edi, DWORD PTR [ebp-192]
	mov	ecx, 48					; 00000030H
	mov	eax, -858993460				; ccccccccH
	rep stosd
; Line 258
	mov	eax, DWORD PTR _errCode$[ebp]
	mov	ecx, DWORD PTR [eax]
	push	ecx
	call	?U_FAILURE@@YACW4UErrorCode@@@Z		; U_FAILURE
	add	esp, 4
	movsx	edx, al
	test	edx, edx
	je	SHORT $LN4@umtx_initO
; Line 259
	jmp	$LN5@umtx_initO
$LN4@umtx_initO:
; Line 261
	mov	eax, DWORD PTR _uio$[ebp]
	push	eax
	call	?umtx_loadAcquire@icu_56@@YAHACJ@Z	; icu_56::umtx_loadAcquire
	add	esp, 4
	cmp	eax, 2
	je	SHORT $LN3@umtx_initO
	mov	esi, esp
	mov	eax, DWORD PTR _uio$[ebp]
	push	eax
	call	DWORD PTR __imp_?umtx_initImplPreInit@icu_56@@YACAAUUInitOnce@1@@Z
	add	esp, 4
	cmp	esi, esp
	call	__RTC_CheckEsp
	movsx	ecx, al
	test	ecx, ecx
	je	SHORT $LN3@umtx_initO
; Line 263
	mov	esi, esp
	mov	eax, DWORD PTR _errCode$[ebp]
	push	eax
	call	DWORD PTR _fp$[ebp]
	add	esp, 4
	cmp	esi, esp
	call	__RTC_CheckEsp
; Line 264
	mov	eax, DWORD PTR _uio$[ebp]
	mov	ecx, DWORD PTR _errCode$[ebp]
	mov	edx, DWORD PTR [ecx]
	mov	DWORD PTR [eax+4], edx
; Line 265
	mov	esi, esp
	mov	eax, DWORD PTR _uio$[ebp]
	push	eax
	call	DWORD PTR __imp_?umtx_initImplPostInit@icu_56@@YAXAAUUInitOnce@1@@Z
	add	esp, 4
	cmp	esi, esp
	call	__RTC_CheckEsp
; Line 266
	jmp	SHORT $LN5@umtx_initO
$LN3@umtx_initO:
; Line 268
	mov	eax, DWORD PTR _uio$[ebp]
	mov	ecx, DWORD PTR [eax+4]
	push	ecx
	call	?U_FAILURE@@YACW4UErrorCode@@@Z		; U_FAILURE
	add	esp, 4
	movsx	edx, al
	test	edx, edx
	je	SHORT $LN5@umtx_initO
; Line 269
	mov	eax, DWORD PTR _errCode$[ebp]
	mov	ecx, DWORD PTR _uio$[ebp]
	mov	edx, DWORD PTR [ecx+4]
	mov	DWORD PTR [eax], edx
$LN5@umtx_initO:
; Line 272
	pop	edi
	pop	esi
	pop	ebx
	add	esp, 192				; 000000c0H
	cmp	ebp, esp
	call	__RTC_CheckEsp
	mov	esp, ebp
	pop	ebp
	ret	0
?umtx_initOnce@icu_56@@YAXAAUUInitOnce@1@P6AXAAW4UErrorCode@@@Z1@Z ENDP ; icu_56::umtx_initOnce
; Function compile flags: /Odtp /RTCsu /ZI
_TEXT	ENDS
;	COMDAT ?U_FAILURE@@YACW4UErrorCode@@@Z
_TEXT	SEGMENT
_code$ = 8						; size = 4
?U_FAILURE@@YACW4UErrorCode@@@Z PROC			; U_FAILURE, COMDAT
; File d:\mozilla\intl\icu\include\unicode\utypes.h
; Line 705
	push	ebp
	mov	ebp, esp
	sub	esp, 192				; 000000c0H
	push	ebx
	push	esi
	push	edi
	lea	edi, DWORD PTR [ebp-192]
	mov	ecx, 48					; 00000030H
	mov	eax, -858993460				; ccccccccH
	rep stosd
	cmp	DWORD PTR _code$[ebp], 0
	setg	al
	pop	edi
	pop	esi
	pop	ebx
	mov	esp, ebp
	pop	ebp
	ret	0
?U_FAILURE@@YACW4UErrorCode@@@Z ENDP			; U_FAILURE
_TEXT	ENDS
EXTRN	__imp__InterlockedCompareExchange@12:PROC
; Function compile flags: /Odtp /RTCsu /ZI
;	COMDAT ?umtx_loadAcquire@icu_56@@YAHACJ@Z
_TEXT	SEGMENT
_var$ = 8						; size = 4
?umtx_loadAcquire@icu_56@@YAHACJ@Z PROC			; icu_56::umtx_loadAcquire, COMDAT
; File d:\mozilla\intl\icu\source\common\umutex.h
; Line 102
	push	ebp
	mov	ebp, esp
	sub	esp, 192				; 000000c0H
	push	ebx
	push	esi
	push	edi
	lea	edi, DWORD PTR [ebp-192]
	mov	ecx, 48					; 00000030H
	mov	eax, -858993460				; ccccccccH
	rep stosd
; Line 103
	mov	esi, esp
	push	0
	push	0
	mov	eax, DWORD PTR _var$[ebp]
	push	eax
	call	DWORD PTR __imp__InterlockedCompareExchange@12
	cmp	esi, esp
	call	__RTC_CheckEsp
; Line 104
	pop	edi
	pop	esi
	pop	ebx
	add	esp, 192				; 000000c0H
	cmp	ebp, esp
	call	__RTC_CheckEsp
	mov	esp, ebp
	pop	ebp
	ret	0
?umtx_loadAcquire@icu_56@@YAHACJ@Z ENDP			; icu_56::umtx_loadAcquire
_TEXT	ENDS
PUBLIC	??0CharsetRecog_IBM420_ar_ltr@icu_56@@QAE@XZ	; icu_56::CharsetRecog_IBM420_ar_ltr::CharsetRecog_IBM420_ar_ltr
PUBLIC	??0CharsetRecog_IBM420_ar_rtl@icu_56@@QAE@XZ	; icu_56::CharsetRecog_IBM420_ar_rtl::CharsetRecog_IBM420_ar_rtl
PUBLIC	??0CharsetRecog_IBM424_he_ltr@icu_56@@QAE@XZ	; icu_56::CharsetRecog_IBM424_he_ltr::CharsetRecog_IBM424_he_ltr
PUBLIC	??0CharsetRecog_IBM424_he_rtl@icu_56@@QAE@XZ	; icu_56::CharsetRecog_IBM424_he_rtl::CharsetRecog_IBM424_he_rtl
PUBLIC	??0CharsetRecog_2022CN@icu_56@@QAE@XZ		; icu_56::CharsetRecog_2022CN::CharsetRecog_2022CN
PUBLIC	??0CharsetRecog_2022KR@icu_56@@QAE@XZ		; icu_56::CharsetRecog_2022KR::CharsetRecog_2022KR
PUBLIC	??0CharsetRecog_2022JP@icu_56@@QAE@XZ		; icu_56::CharsetRecog_2022JP::CharsetRecog_2022JP
PUBLIC	??0CharsetRecog_big5@icu_56@@QAE@XZ		; icu_56::CharsetRecog_big5::CharsetRecog_big5
PUBLIC	??0CharsetRecog_euc_kr@icu_56@@QAE@XZ		; icu_56::CharsetRecog_euc_kr::CharsetRecog_euc_kr
PUBLIC	??0CharsetRecog_euc_jp@icu_56@@QAE@XZ		; icu_56::CharsetRecog_euc_jp::CharsetRecog_euc_jp
PUBLIC	??0CharsetRecog_gb_18030@icu_56@@QAE@XZ		; icu_56::CharsetRecog_gb_18030::CharsetRecog_gb_18030
PUBLIC	??0CharsetRecog_sjis@icu_56@@QAE@XZ		; icu_56::CharsetRecog_sjis::CharsetRecog_sjis
PUBLIC	??0CharsetRecog_8859_9_tr@icu_56@@QAE@XZ	; icu_56::CharsetRecog_8859_9_tr::CharsetRecog_8859_9_tr
PUBLIC	??0CharsetRecog_KOI8_R@icu_56@@QAE@XZ		; icu_56::CharsetRecog_KOI8_R::CharsetRecog_KOI8_R
PUBLIC	??0CharsetRecog_windows_1256@icu_56@@QAE@XZ	; icu_56::CharsetRecog_windows_1256::CharsetRecog_windows_1256
PUBLIC	??0CharsetRecog_windows_1251@icu_56@@QAE@XZ	; icu_56::CharsetRecog_windows_1251::CharsetRecog_windows_1251
PUBLIC	??0CharsetRecog_8859_8_he@icu_56@@QAE@XZ	; icu_56::CharsetRecog_8859_8_he::CharsetRecog_8859_8_he
PUBLIC	??0CharsetRecog_8859_8_I_he@icu_56@@QAE@XZ	; icu_56::CharsetRecog_8859_8_I_he::CharsetRecog_8859_8_I_he
PUBLIC	??0CharsetRecog_8859_7_el@icu_56@@QAE@XZ	; icu_56::CharsetRecog_8859_7_el::CharsetRecog_8859_7_el
PUBLIC	??0CharsetRecog_8859_6_ar@icu_56@@QAE@XZ	; icu_56::CharsetRecog_8859_6_ar::CharsetRecog_8859_6_ar
PUBLIC	??0CharsetRecog_8859_5_ru@icu_56@@QAE@XZ	; icu_56::CharsetRecog_8859_5_ru::CharsetRecog_8859_5_ru
PUBLIC	??0CharsetRecog_8859_2@icu_56@@QAE@XZ		; icu_56::CharsetRecog_8859_2::CharsetRecog_8859_2
PUBLIC	??0CharsetRecog_8859_1@icu_56@@QAE@XZ		; icu_56::CharsetRecog_8859_1::CharsetRecog_8859_1
PUBLIC	??0CharsetRecog_UTF_32_LE@icu_56@@QAE@XZ	; icu_56::CharsetRecog_UTF_32_LE::CharsetRecog_UTF_32_LE
PUBLIC	??0CharsetRecog_UTF_32_BE@icu_56@@QAE@XZ	; icu_56::CharsetRecog_UTF_32_BE::CharsetRecog_UTF_32_BE
PUBLIC	??0CharsetRecog_UTF_16_LE@icu_56@@QAE@XZ	; icu_56::CharsetRecog_UTF_16_LE::CharsetRecog_UTF_16_LE
PUBLIC	??0CharsetRecog_UTF_16_BE@icu_56@@QAE@XZ	; icu_56::CharsetRecog_UTF_16_BE::CharsetRecog_UTF_16_BE
PUBLIC	??0CSRecognizerInfo@icu_56@@QAE@PAVCharsetRecognizer@1@C@Z ; icu_56::CSRecognizerInfo::CSRecognizerInfo
PUBLIC	??0CharsetRecog_UTF8@icu_56@@QAE@XZ		; icu_56::CharsetRecog_UTF8::CharsetRecog_UTF8
EXTRN	_uprv_malloc_56:PROC
EXTRN	__imp_??2UMemory@icu_56@@SAPAXI@Z:PROC
EXTRN	_ucln_i18n_registerCleanup_56:PROC
EXTRN	@_RTC_CheckStackVars@8:PROC
; Function compile flags: /Odtp /RTCsu /ZI
;	COMDAT _initRecognizers
_TEXT	SEGMENT
tv773 = -1532						; size = 4
tv753 = -1532						; size = 4
tv733 = -1532						; size = 4
tv713 = -1532						; size = 4
tv661 = -1532						; size = 4
tv642 = -1532						; size = 4
tv623 = -1532						; size = 4
tv604 = -1532						; size = 4
tv585 = -1532						; size = 4
tv566 = -1532						; size = 4
tv547 = -1532						; size = 4
tv496 = -1532						; size = 4
tv477 = -1532						; size = 4
tv457 = -1532						; size = 4
tv437 = -1532						; size = 4
tv417 = -1532						; size = 4
tv397 = -1532						; size = 4
tv345 = -1532						; size = 4
tv325 = -1532						; size = 4
tv305 = -1532						; size = 4
tv285 = -1532						; size = 4
tv265 = -1532						; size = 4
tv213 = -1532						; size = 4
tv193 = -1532						; size = 4
tv174 = -1532						; size = 4
tv155 = -1532						; size = 4
tv136 = -1532						; size = 4
tv85 = -1532						; size = 4
tv771 = -1528						; size = 4
tv751 = -1528						; size = 4
tv731 = -1528						; size = 4
tv711 = -1528						; size = 4
tv658 = -1528						; size = 4
tv639 = -1528						; size = 4
tv620 = -1528						; size = 4
tv601 = -1528						; size = 4
tv582 = -1528						; size = 4
tv563 = -1528						; size = 4
tv544 = -1528						; size = 4
tv493 = -1528						; size = 4
tv475 = -1528						; size = 4
tv455 = -1528						; size = 4
tv435 = -1528						; size = 4
tv415 = -1528						; size = 4
tv395 = -1528						; size = 4
tv343 = -1528						; size = 4
tv323 = -1528						; size = 4
tv303 = -1528						; size = 4
tv283 = -1528						; size = 4
tv263 = -1528						; size = 4
tv211 = -1528						; size = 4
tv190 = -1528						; size = 4
tv171 = -1528						; size = 4
tv152 = -1528						; size = 4
tv133 = -1528						; size = 4
tv82 = -1528						; size = 4
$T76581 = -1520						; size = 4
$T76582 = -1508						; size = 4
$T76583 = -1496						; size = 4
$T76588 = -1484						; size = 4
$T76589 = -1472						; size = 4
$T76590 = -1460						; size = 4
$T76595 = -1448						; size = 4
$T76596 = -1436						; size = 4
$T76597 = -1424						; size = 4
$T76602 = -1412						; size = 4
$T76603 = -1400						; size = 4
$T76604 = -1388						; size = 4
$T76609 = -1376						; size = 4
$T76610 = -1364						; size = 4
$T76611 = -1352						; size = 4
$T76616 = -1340						; size = 4
$T76617 = -1328						; size = 4
$T76618 = -1316						; size = 4
$T76619 = -1304						; size = 4
$T76624 = -1292						; size = 4
$T76625 = -1280						; size = 4
$T76626 = -1268						; size = 4
$T76627 = -1256						; size = 4
$T76632 = -1244						; size = 4
$T76633 = -1232						; size = 4
$T76634 = -1220						; size = 4
$T76635 = -1208						; size = 4
$T76640 = -1196						; size = 4
$T76641 = -1184						; size = 4
$T76642 = -1172						; size = 4
$T76643 = -1160						; size = 4
$T76648 = -1148						; size = 4
$T76649 = -1136						; size = 4
$T76650 = -1124						; size = 4
$T76651 = -1112						; size = 4
$T76656 = -1100						; size = 4
$T76657 = -1088						; size = 4
$T76658 = -1076						; size = 4
$T76659 = -1064						; size = 4
$T76664 = -1052						; size = 4
$T76665 = -1040						; size = 4
$T76666 = -1028						; size = 4
$T76667 = -1016						; size = 4
$T76672 = -1004						; size = 4
$T76673 = -992						; size = 4
$T76674 = -980						; size = 4
$T76675 = -968						; size = 4
$T76680 = -956						; size = 4
$T76681 = -944						; size = 4
$T76682 = -932						; size = 4
$T76683 = -920						; size = 4
$T76688 = -908						; size = 4
$T76689 = -896						; size = 4
$T76690 = -884						; size = 4
$T76691 = -872						; size = 4
$T76696 = -860						; size = 4
$T76697 = -848						; size = 4
$T76698 = -836						; size = 4
$T76699 = -824						; size = 4
$T76704 = -812						; size = 4
$T76705 = -800						; size = 4
$T76706 = -788						; size = 4
$T76711 = -776						; size = 4
$T76712 = -764						; size = 4
$T76713 = -752						; size = 4
$T76718 = -740						; size = 4
$T76719 = -728						; size = 4
$T76720 = -716						; size = 4
$T76725 = -704						; size = 4
$T76726 = -692						; size = 4
$T76727 = -680						; size = 4
$T76732 = -668						; size = 4
$T76733 = -656						; size = 4
$T76734 = -644						; size = 4
$T76739 = -632						; size = 4
$T76740 = -620						; size = 4
$T76741 = -608						; size = 4
$T76746 = -596						; size = 4
$T76747 = -584						; size = 4
$T76748 = -572						; size = 4
$T76753 = -560						; size = 4
$T76754 = -548						; size = 4
$T76755 = -536						; size = 4
$T76760 = -524						; size = 4
$T76761 = -512						; size = 4
$T76762 = -500						; size = 4
$T76763 = -488						; size = 4
$T76768 = -476						; size = 4
$T76769 = -464						; size = 4
$T76770 = -452						; size = 4
$T76771 = -440						; size = 4
$T76776 = -428						; size = 4
$T76777 = -416						; size = 4
$T76778 = -404						; size = 4
$T76779 = -392						; size = 4
$T76784 = -380						; size = 4
$T76785 = -368						; size = 4
$T76786 = -356						; size = 4
$T76787 = -344						; size = 4
_r$68948 = -140						; size = 4
_rCount$ = -128						; size = 4
_tempArray$ = -116					; size = 112
_status$ = 8						; size = 4
_initRecognizers PROC					; COMDAT
; File d:\mozilla\intl\icu\source\i18n\csdetect.cpp
; Line 84
	push	ebp
	mov	ebp, esp
	sub	esp, 1532				; 000005fcH
	push	ebx
	push	esi
	push	edi
	lea	edi, DWORD PTR [ebp-1532]
	mov	ecx, 383				; 0000017fH
	mov	eax, -858993460				; ccccccccH
	rep stosd
; Line 86
	push	OFFSET _csdet_cleanup
	push	23					; 00000017H
	call	_ucln_i18n_registerCleanup_56
	add	esp, 8
; Line 88
	mov	esi, esp
	push	8
	call	DWORD PTR __imp_??2UMemory@icu_56@@SAPAXI@Z
	add	esp, 4
	cmp	esi, esp
	call	__RTC_CheckEsp
	mov	DWORD PTR $T76582[ebp], eax
	cmp	DWORD PTR $T76582[ebp], 0
	je	SHORT $LN11@initRecogn
	mov	esi, esp
	push	4
	call	DWORD PTR __imp_??2UMemory@icu_56@@SAPAXI@Z
	add	esp, 4
	cmp	esi, esp
	call	__RTC_CheckEsp
	mov	DWORD PTR $T76583[ebp], eax
	cmp	DWORD PTR $T76583[ebp], 0
	je	SHORT $LN9@initRecogn
	mov	ecx, DWORD PTR $T76583[ebp]
	call	??0CharsetRecog_UTF8@icu_56@@QAE@XZ
	mov	DWORD PTR tv82[ebp], eax
	jmp	SHORT $LN10@initRecogn
$LN9@initRecogn:
	mov	DWORD PTR tv82[ebp], 0
$LN10@initRecogn:
	push	1
	mov	eax, DWORD PTR tv82[ebp]
	push	eax
	mov	ecx, DWORD PTR $T76582[ebp]
	call	??0CSRecognizerInfo@icu_56@@QAE@PAVCharsetRecognizer@1@C@Z ; icu_56::CSRecognizerInfo::CSRecognizerInfo
	mov	DWORD PTR tv85[ebp], eax
	jmp	SHORT $LN12@initRecogn
$LN11@initRecogn:
	mov	DWORD PTR tv85[ebp], 0
$LN12@initRecogn:
	mov	ecx, DWORD PTR tv85[ebp]
	mov	DWORD PTR $T76581[ebp], ecx
	mov	edx, DWORD PTR $T76581[ebp]
	mov	DWORD PTR _tempArray$[ebp], edx
; Line 90
	mov	esi, esp
	push	8
	call	DWORD PTR __imp_??2UMemory@icu_56@@SAPAXI@Z
	add	esp, 4
	cmp	esi, esp
	call	__RTC_CheckEsp
	mov	DWORD PTR $T76589[ebp], eax
	cmp	DWORD PTR $T76589[ebp], 0
	je	SHORT $LN15@initRecogn
	mov	esi, esp
	push	4
	call	DWORD PTR __imp_??2UMemory@icu_56@@SAPAXI@Z
	add	esp, 4
	cmp	esi, esp
	call	__RTC_CheckEsp
	mov	DWORD PTR $T76590[ebp], eax
	cmp	DWORD PTR $T76590[ebp], 0
	je	SHORT $LN13@initRecogn
	mov	ecx, DWORD PTR $T76590[ebp]
	call	??0CharsetRecog_UTF_16_BE@icu_56@@QAE@XZ
	mov	DWORD PTR tv133[ebp], eax
	jmp	SHORT $LN14@initRecogn
$LN13@initRecogn:
	mov	DWORD PTR tv133[ebp], 0
$LN14@initRecogn:
	push	1
	mov	eax, DWORD PTR tv133[ebp]
	push	eax
	mov	ecx, DWORD PTR $T76589[ebp]
	call	??0CSRecognizerInfo@icu_56@@QAE@PAVCharsetRecognizer@1@C@Z ; icu_56::CSRecognizerInfo::CSRecognizerInfo
	mov	DWORD PTR tv136[ebp], eax
	jmp	SHORT $LN16@initRecogn
$LN15@initRecogn:
	mov	DWORD PTR tv136[ebp], 0
$LN16@initRecogn:
	mov	ecx, DWORD PTR tv136[ebp]
	mov	DWORD PTR $T76588[ebp], ecx
	mov	edx, DWORD PTR $T76588[ebp]
	mov	DWORD PTR _tempArray$[ebp+4], edx
; Line 91
	mov	esi, esp
	push	8
	call	DWORD PTR __imp_??2UMemory@icu_56@@SAPAXI@Z
	add	esp, 4
	cmp	esi, esp
	call	__RTC_CheckEsp
	mov	DWORD PTR $T76596[ebp], eax
	cmp	DWORD PTR $T76596[ebp], 0
	je	SHORT $LN19@initRecogn
	mov	esi, esp
	push	4
	call	DWORD PTR __imp_??2UMemory@icu_56@@SAPAXI@Z
	add	esp, 4
	cmp	esi, esp
	call	__RTC_CheckEsp
	mov	DWORD PTR $T76597[ebp], eax
	cmp	DWORD PTR $T76597[ebp], 0
	je	SHORT $LN17@initRecogn
	mov	ecx, DWORD PTR $T76597[ebp]
	call	??0CharsetRecog_UTF_16_LE@icu_56@@QAE@XZ
	mov	DWORD PTR tv152[ebp], eax
	jmp	SHORT $LN18@initRecogn
$LN17@initRecogn:
	mov	DWORD PTR tv152[ebp], 0
$LN18@initRecogn:
	push	1
	mov	eax, DWORD PTR tv152[ebp]
	push	eax
	mov	ecx, DWORD PTR $T76596[ebp]
	call	??0CSRecognizerInfo@icu_56@@QAE@PAVCharsetRecognizer@1@C@Z ; icu_56::CSRecognizerInfo::CSRecognizerInfo
	mov	DWORD PTR tv155[ebp], eax
	jmp	SHORT $LN20@initRecogn
$LN19@initRecogn:
	mov	DWORD PTR tv155[ebp], 0
$LN20@initRecogn:
	mov	ecx, DWORD PTR tv155[ebp]
	mov	DWORD PTR $T76595[ebp], ecx
	mov	edx, DWORD PTR $T76595[ebp]
	mov	DWORD PTR _tempArray$[ebp+8], edx
; Line 92
	mov	esi, esp
	push	8
	call	DWORD PTR __imp_??2UMemory@icu_56@@SAPAXI@Z
	add	esp, 4
	cmp	esi, esp
	call	__RTC_CheckEsp
	mov	DWORD PTR $T76603[ebp], eax
	cmp	DWORD PTR $T76603[ebp], 0
	je	SHORT $LN23@initRecogn
	mov	esi, esp
	push	4
	call	DWORD PTR __imp_??2UMemory@icu_56@@SAPAXI@Z
	add	esp, 4
	cmp	esi, esp
	call	__RTC_CheckEsp
	mov	DWORD PTR $T76604[ebp], eax
	cmp	DWORD PTR $T76604[ebp], 0
	je	SHORT $LN21@initRecogn
	mov	ecx, DWORD PTR $T76604[ebp]
	call	??0CharsetRecog_UTF_32_BE@icu_56@@QAE@XZ
	mov	DWORD PTR tv171[ebp], eax
	jmp	SHORT $LN22@initRecogn
$LN21@initRecogn:
	mov	DWORD PTR tv171[ebp], 0
$LN22@initRecogn:
	push	1
	mov	eax, DWORD PTR tv171[ebp]
	push	eax
	mov	ecx, DWORD PTR $T76603[ebp]
	call	??0CSRecognizerInfo@icu_56@@QAE@PAVCharsetRecognizer@1@C@Z ; icu_56::CSRecognizerInfo::CSRecognizerInfo
	mov	DWORD PTR tv174[ebp], eax
	jmp	SHORT $LN24@initRecogn
$LN23@initRecogn:
	mov	DWORD PTR tv174[ebp], 0
$LN24@initRecogn:
	mov	ecx, DWORD PTR tv174[ebp]
	mov	DWORD PTR $T76602[ebp], ecx
	mov	edx, DWORD PTR $T76602[ebp]
	mov	DWORD PTR _tempArray$[ebp+12], edx
; Line 93
	mov	esi, esp
	push	8
	call	DWORD PTR __imp_??2UMemory@icu_56@@SAPAXI@Z
	add	esp, 4
	cmp	esi, esp
	call	__RTC_CheckEsp
	mov	DWORD PTR $T76610[ebp], eax
	cmp	DWORD PTR $T76610[ebp], 0
	je	SHORT $LN27@initRecogn
	mov	esi, esp
	push	4
	call	DWORD PTR __imp_??2UMemory@icu_56@@SAPAXI@Z
	add	esp, 4
	cmp	esi, esp
	call	__RTC_CheckEsp
	mov	DWORD PTR $T76611[ebp], eax
	cmp	DWORD PTR $T76611[ebp], 0
	je	SHORT $LN25@initRecogn
	mov	ecx, DWORD PTR $T76611[ebp]
	call	??0CharsetRecog_UTF_32_LE@icu_56@@QAE@XZ
	mov	DWORD PTR tv190[ebp], eax
	jmp	SHORT $LN26@initRecogn
$LN25@initRecogn:
	mov	DWORD PTR tv190[ebp], 0
$LN26@initRecogn:
	push	1
	mov	eax, DWORD PTR tv190[ebp]
	push	eax
	mov	ecx, DWORD PTR $T76610[ebp]
	call	??0CSRecognizerInfo@icu_56@@QAE@PAVCharsetRecognizer@1@C@Z ; icu_56::CSRecognizerInfo::CSRecognizerInfo
	mov	DWORD PTR tv193[ebp], eax
	jmp	SHORT $LN28@initRecogn
$LN27@initRecogn:
	mov	DWORD PTR tv193[ebp], 0
$LN28@initRecogn:
	mov	ecx, DWORD PTR tv193[ebp]
	mov	DWORD PTR $T76609[ebp], ecx
	mov	edx, DWORD PTR $T76609[ebp]
	mov	DWORD PTR _tempArray$[ebp+16], edx
; Line 95
	mov	esi, esp
	push	8
	call	DWORD PTR __imp_??2UMemory@icu_56@@SAPAXI@Z
	add	esp, 4
	cmp	esi, esp
	call	__RTC_CheckEsp
	mov	DWORD PTR $T76617[ebp], eax
	cmp	DWORD PTR $T76617[ebp], 0
	je	SHORT $LN31@initRecogn
	mov	esi, esp
	push	4
	call	DWORD PTR __imp_??2UMemory@icu_56@@SAPAXI@Z
	add	esp, 4
	cmp	esi, esp
	call	__RTC_CheckEsp
	mov	DWORD PTR $T76619[ebp], eax
	cmp	DWORD PTR $T76619[ebp], 0
	je	SHORT $LN29@initRecogn
	mov	ecx, DWORD PTR $T76619[ebp]
	call	??0CharsetRecog_8859_1@icu_56@@QAE@XZ
	mov	DWORD PTR tv211[ebp], eax
	jmp	SHORT $LN30@initRecogn
$LN29@initRecogn:
	mov	DWORD PTR tv211[ebp], 0
$LN30@initRecogn:
	mov	eax, DWORD PTR tv211[ebp]
	mov	DWORD PTR $T76618[ebp], eax
	push	1
	mov	ecx, DWORD PTR $T76618[ebp]
	push	ecx
	mov	ecx, DWORD PTR $T76617[ebp]
	call	??0CSRecognizerInfo@icu_56@@QAE@PAVCharsetRecognizer@1@C@Z ; icu_56::CSRecognizerInfo::CSRecognizerInfo
	mov	DWORD PTR tv213[ebp], eax
	jmp	SHORT $LN32@initRecogn
$LN31@initRecogn:
	mov	DWORD PTR tv213[ebp], 0
$LN32@initRecogn:
	mov	edx, DWORD PTR tv213[ebp]
	mov	DWORD PTR $T76616[ebp], edx
	mov	eax, DWORD PTR $T76616[ebp]
	mov	DWORD PTR _tempArray$[ebp+20], eax
; Line 96
	mov	esi, esp
	push	8
	call	DWORD PTR __imp_??2UMemory@icu_56@@SAPAXI@Z
	add	esp, 4
	cmp	esi, esp
	call	__RTC_CheckEsp
	mov	DWORD PTR $T76625[ebp], eax
	cmp	DWORD PTR $T76625[ebp], 0
	je	SHORT $LN35@initRecogn
	mov	esi, esp
	push	4
	call	DWORD PTR __imp_??2UMemory@icu_56@@SAPAXI@Z
	add	esp, 4
	cmp	esi, esp
	call	__RTC_CheckEsp
	mov	DWORD PTR $T76627[ebp], eax
	cmp	DWORD PTR $T76627[ebp], 0
	je	SHORT $LN33@initRecogn
	mov	ecx, DWORD PTR $T76627[ebp]
	call	??0CharsetRecog_8859_2@icu_56@@QAE@XZ
	mov	DWORD PTR tv263[ebp], eax
	jmp	SHORT $LN34@initRecogn
$LN33@initRecogn:
	mov	DWORD PTR tv263[ebp], 0
$LN34@initRecogn:
	mov	eax, DWORD PTR tv263[ebp]
	mov	DWORD PTR $T76626[ebp], eax
	push	1
	mov	ecx, DWORD PTR $T76626[ebp]
	push	ecx
	mov	ecx, DWORD PTR $T76625[ebp]
	call	??0CSRecognizerInfo@icu_56@@QAE@PAVCharsetRecognizer@1@C@Z ; icu_56::CSRecognizerInfo::CSRecognizerInfo
	mov	DWORD PTR tv265[ebp], eax
	jmp	SHORT $LN36@initRecogn
$LN35@initRecogn:
	mov	DWORD PTR tv265[ebp], 0
$LN36@initRecogn:
	mov	edx, DWORD PTR tv265[ebp]
	mov	DWORD PTR $T76624[ebp], edx
	mov	eax, DWORD PTR $T76624[ebp]
	mov	DWORD PTR _tempArray$[ebp+24], eax
; Line 97
	mov	esi, esp
	push	8
	call	DWORD PTR __imp_??2UMemory@icu_56@@SAPAXI@Z
	add	esp, 4
	cmp	esi, esp
	call	__RTC_CheckEsp
	mov	DWORD PTR $T76633[ebp], eax
	cmp	DWORD PTR $T76633[ebp], 0
	je	SHORT $LN39@initRecogn
	mov	esi, esp
	push	4
	call	DWORD PTR __imp_??2UMemory@icu_56@@SAPAXI@Z
	add	esp, 4
	cmp	esi, esp
	call	__RTC_CheckEsp
	mov	DWORD PTR $T76635[ebp], eax
	cmp	DWORD PTR $T76635[ebp], 0
	je	SHORT $LN37@initRecogn
	mov	ecx, DWORD PTR $T76635[ebp]
	call	??0CharsetRecog_8859_5_ru@icu_56@@QAE@XZ
	mov	DWORD PTR tv283[ebp], eax
	jmp	SHORT $LN38@initRecogn
$LN37@initRecogn:
	mov	DWORD PTR tv283[ebp], 0
$LN38@initRecogn:
	mov	eax, DWORD PTR tv283[ebp]
	mov	DWORD PTR $T76634[ebp], eax
	push	1
	mov	ecx, DWORD PTR $T76634[ebp]
	push	ecx
	mov	ecx, DWORD PTR $T76633[ebp]
	call	??0CSRecognizerInfo@icu_56@@QAE@PAVCharsetRecognizer@1@C@Z ; icu_56::CSRecognizerInfo::CSRecognizerInfo
	mov	DWORD PTR tv285[ebp], eax
	jmp	SHORT $LN40@initRecogn
$LN39@initRecogn:
	mov	DWORD PTR tv285[ebp], 0
$LN40@initRecogn:
	mov	edx, DWORD PTR tv285[ebp]
	mov	DWORD PTR $T76632[ebp], edx
	mov	eax, DWORD PTR $T76632[ebp]
	mov	DWORD PTR _tempArray$[ebp+28], eax
; Line 98
	mov	esi, esp
	push	8
	call	DWORD PTR __imp_??2UMemory@icu_56@@SAPAXI@Z
	add	esp, 4
	cmp	esi, esp
	call	__RTC_CheckEsp
	mov	DWORD PTR $T76641[ebp], eax
	cmp	DWORD PTR $T76641[ebp], 0
	je	SHORT $LN43@initRecogn
	mov	esi, esp
	push	4
	call	DWORD PTR __imp_??2UMemory@icu_56@@SAPAXI@Z
	add	esp, 4
	cmp	esi, esp
	call	__RTC_CheckEsp
	mov	DWORD PTR $T76643[ebp], eax
	cmp	DWORD PTR $T76643[ebp], 0
	je	SHORT $LN41@initRecogn
	mov	ecx, DWORD PTR $T76643[ebp]
	call	??0CharsetRecog_8859_6_ar@icu_56@@QAE@XZ
	mov	DWORD PTR tv303[ebp], eax
	jmp	SHORT $LN42@initRecogn
$LN41@initRecogn:
	mov	DWORD PTR tv303[ebp], 0
$LN42@initRecogn:
	mov	eax, DWORD PTR tv303[ebp]
	mov	DWORD PTR $T76642[ebp], eax
	push	1
	mov	ecx, DWORD PTR $T76642[ebp]
	push	ecx
	mov	ecx, DWORD PTR $T76641[ebp]
	call	??0CSRecognizerInfo@icu_56@@QAE@PAVCharsetRecognizer@1@C@Z ; icu_56::CSRecognizerInfo::CSRecognizerInfo
	mov	DWORD PTR tv305[ebp], eax
	jmp	SHORT $LN44@initRecogn
$LN43@initRecogn:
	mov	DWORD PTR tv305[ebp], 0
$LN44@initRecogn:
	mov	edx, DWORD PTR tv305[ebp]
	mov	DWORD PTR $T76640[ebp], edx
	mov	eax, DWORD PTR $T76640[ebp]
	mov	DWORD PTR _tempArray$[ebp+32], eax
; Line 99
	mov	esi, esp
	push	8
	call	DWORD PTR __imp_??2UMemory@icu_56@@SAPAXI@Z
	add	esp, 4
	cmp	esi, esp
	call	__RTC_CheckEsp
	mov	DWORD PTR $T76649[ebp], eax
	cmp	DWORD PTR $T76649[ebp], 0
	je	SHORT $LN47@initRecogn
	mov	esi, esp
	push	4
	call	DWORD PTR __imp_??2UMemory@icu_56@@SAPAXI@Z
	add	esp, 4
	cmp	esi, esp
	call	__RTC_CheckEsp
	mov	DWORD PTR $T76651[ebp], eax
	cmp	DWORD PTR $T76651[ebp], 0
	je	SHORT $LN45@initRecogn
	mov	ecx, DWORD PTR $T76651[ebp]
	call	??0CharsetRecog_8859_7_el@icu_56@@QAE@XZ
	mov	DWORD PTR tv323[ebp], eax
	jmp	SHORT $LN46@initRecogn
$LN45@initRecogn:
	mov	DWORD PTR tv323[ebp], 0
$LN46@initRecogn:
	mov	eax, DWORD PTR tv323[ebp]
	mov	DWORD PTR $T76650[ebp], eax
	push	1
	mov	ecx, DWORD PTR $T76650[ebp]
	push	ecx
	mov	ecx, DWORD PTR $T76649[ebp]
	call	??0CSRecognizerInfo@icu_56@@QAE@PAVCharsetRecognizer@1@C@Z ; icu_56::CSRecognizerInfo::CSRecognizerInfo
	mov	DWORD PTR tv325[ebp], eax
	jmp	SHORT $LN48@initRecogn
$LN47@initRecogn:
	mov	DWORD PTR tv325[ebp], 0
$LN48@initRecogn:
	mov	edx, DWORD PTR tv325[ebp]
	mov	DWORD PTR $T76648[ebp], edx
	mov	eax, DWORD PTR $T76648[ebp]
	mov	DWORD PTR _tempArray$[ebp+36], eax
; Line 100
	mov	esi, esp
	push	8
	call	DWORD PTR __imp_??2UMemory@icu_56@@SAPAXI@Z
	add	esp, 4
	cmp	esi, esp
	call	__RTC_CheckEsp
	mov	DWORD PTR $T76657[ebp], eax
	cmp	DWORD PTR $T76657[ebp], 0
	je	SHORT $LN51@initRecogn
	mov	esi, esp
	push	4
	call	DWORD PTR __imp_??2UMemory@icu_56@@SAPAXI@Z
	add	esp, 4
	cmp	esi, esp
	call	__RTC_CheckEsp
	mov	DWORD PTR $T76659[ebp], eax
	cmp	DWORD PTR $T76659[ebp], 0
	je	SHORT $LN49@initRecogn
	mov	ecx, DWORD PTR $T76659[ebp]
	call	??0CharsetRecog_8859_8_I_he@icu_56@@QAE@XZ
	mov	DWORD PTR tv343[ebp], eax
	jmp	SHORT $LN50@initRecogn
$LN49@initRecogn:
	mov	DWORD PTR tv343[ebp], 0
$LN50@initRecogn:
	mov	eax, DWORD PTR tv343[ebp]
	mov	DWORD PTR $T76658[ebp], eax
	push	1
	mov	ecx, DWORD PTR $T76658[ebp]
	push	ecx
	mov	ecx, DWORD PTR $T76657[ebp]
	call	??0CSRecognizerInfo@icu_56@@QAE@PAVCharsetRecognizer@1@C@Z ; icu_56::CSRecognizerInfo::CSRecognizerInfo
	mov	DWORD PTR tv345[ebp], eax
	jmp	SHORT $LN52@initRecogn
$LN51@initRecogn:
	mov	DWORD PTR tv345[ebp], 0
$LN52@initRecogn:
	mov	edx, DWORD PTR tv345[ebp]
	mov	DWORD PTR $T76656[ebp], edx
	mov	eax, DWORD PTR $T76656[ebp]
	mov	DWORD PTR _tempArray$[ebp+40], eax
; Line 101
	mov	esi, esp
	push	8
	call	DWORD PTR __imp_??2UMemory@icu_56@@SAPAXI@Z
	add	esp, 4
	cmp	esi, esp
	call	__RTC_CheckEsp
	mov	DWORD PTR $T76665[ebp], eax
	cmp	DWORD PTR $T76665[ebp], 0
	je	SHORT $LN55@initRecogn
	mov	esi, esp
	push	4
	call	DWORD PTR __imp_??2UMemory@icu_56@@SAPAXI@Z
	add	esp, 4
	cmp	esi, esp
	call	__RTC_CheckEsp
	mov	DWORD PTR $T76667[ebp], eax
	cmp	DWORD PTR $T76667[ebp], 0
	je	SHORT $LN53@initRecogn
	mov	ecx, DWORD PTR $T76667[ebp]
	call	??0CharsetRecog_8859_8_he@icu_56@@QAE@XZ
	mov	DWORD PTR tv395[ebp], eax
	jmp	SHORT $LN54@initRecogn
$LN53@initRecogn:
	mov	DWORD PTR tv395[ebp], 0
$LN54@initRecogn:
	mov	eax, DWORD PTR tv395[ebp]
	mov	DWORD PTR $T76666[ebp], eax
	push	1
	mov	ecx, DWORD PTR $T76666[ebp]
	push	ecx
	mov	ecx, DWORD PTR $T76665[ebp]
	call	??0CSRecognizerInfo@icu_56@@QAE@PAVCharsetRecognizer@1@C@Z ; icu_56::CSRecognizerInfo::CSRecognizerInfo
	mov	DWORD PTR tv397[ebp], eax
	jmp	SHORT $LN56@initRecogn
$LN55@initRecogn:
	mov	DWORD PTR tv397[ebp], 0
$LN56@initRecogn:
	mov	edx, DWORD PTR tv397[ebp]
	mov	DWORD PTR $T76664[ebp], edx
	mov	eax, DWORD PTR $T76664[ebp]
	mov	DWORD PTR _tempArray$[ebp+44], eax
; Line 102
	mov	esi, esp
	push	8
	call	DWORD PTR __imp_??2UMemory@icu_56@@SAPAXI@Z
	add	esp, 4
	cmp	esi, esp
	call	__RTC_CheckEsp
	mov	DWORD PTR $T76673[ebp], eax
	cmp	DWORD PTR $T76673[ebp], 0
	je	SHORT $LN59@initRecogn
	mov	esi, esp
	push	4
	call	DWORD PTR __imp_??2UMemory@icu_56@@SAPAXI@Z
	add	esp, 4
	cmp	esi, esp
	call	__RTC_CheckEsp
	mov	DWORD PTR $T76675[ebp], eax
	cmp	DWORD PTR $T76675[ebp], 0
	je	SHORT $LN57@initRecogn
	mov	ecx, DWORD PTR $T76675[ebp]
	call	??0CharsetRecog_windows_1251@icu_56@@QAE@XZ
	mov	DWORD PTR tv415[ebp], eax
	jmp	SHORT $LN58@initRecogn
$LN57@initRecogn:
	mov	DWORD PTR tv415[ebp], 0
$LN58@initRecogn:
	mov	eax, DWORD PTR tv415[ebp]
	mov	DWORD PTR $T76674[ebp], eax
	push	1
	mov	ecx, DWORD PTR $T76674[ebp]
	push	ecx
	mov	ecx, DWORD PTR $T76673[ebp]
	call	??0CSRecognizerInfo@icu_56@@QAE@PAVCharsetRecognizer@1@C@Z ; icu_56::CSRecognizerInfo::CSRecognizerInfo
	mov	DWORD PTR tv417[ebp], eax
	jmp	SHORT $LN60@initRecogn
$LN59@initRecogn:
	mov	DWORD PTR tv417[ebp], 0
$LN60@initRecogn:
	mov	edx, DWORD PTR tv417[ebp]
	mov	DWORD PTR $T76672[ebp], edx
	mov	eax, DWORD PTR $T76672[ebp]
	mov	DWORD PTR _tempArray$[ebp+48], eax
; Line 103
	mov	esi, esp
	push	8
	call	DWORD PTR __imp_??2UMemory@icu_56@@SAPAXI@Z
	add	esp, 4
	cmp	esi, esp
	call	__RTC_CheckEsp
	mov	DWORD PTR $T76681[ebp], eax
	cmp	DWORD PTR $T76681[ebp], 0
	je	SHORT $LN63@initRecogn
	mov	esi, esp
	push	4
	call	DWORD PTR __imp_??2UMemory@icu_56@@SAPAXI@Z
	add	esp, 4
	cmp	esi, esp
	call	__RTC_CheckEsp
	mov	DWORD PTR $T76683[ebp], eax
	cmp	DWORD PTR $T76683[ebp], 0
	je	SHORT $LN61@initRecogn
	mov	ecx, DWORD PTR $T76683[ebp]
	call	??0CharsetRecog_windows_1256@icu_56@@QAE@XZ
	mov	DWORD PTR tv435[ebp], eax
	jmp	SHORT $LN62@initRecogn
$LN61@initRecogn:
	mov	DWORD PTR tv435[ebp], 0
$LN62@initRecogn:
	mov	eax, DWORD PTR tv435[ebp]
	mov	DWORD PTR $T76682[ebp], eax
	push	1
	mov	ecx, DWORD PTR $T76682[ebp]
	push	ecx
	mov	ecx, DWORD PTR $T76681[ebp]
	call	??0CSRecognizerInfo@icu_56@@QAE@PAVCharsetRecognizer@1@C@Z ; icu_56::CSRecognizerInfo::CSRecognizerInfo
	mov	DWORD PTR tv437[ebp], eax
	jmp	SHORT $LN64@initRecogn
$LN63@initRecogn:
	mov	DWORD PTR tv437[ebp], 0
$LN64@initRecogn:
	mov	edx, DWORD PTR tv437[ebp]
	mov	DWORD PTR $T76680[ebp], edx
	mov	eax, DWORD PTR $T76680[ebp]
	mov	DWORD PTR _tempArray$[ebp+52], eax
; Line 104
	mov	esi, esp
	push	8
	call	DWORD PTR __imp_??2UMemory@icu_56@@SAPAXI@Z
	add	esp, 4
	cmp	esi, esp
	call	__RTC_CheckEsp
	mov	DWORD PTR $T76689[ebp], eax
	cmp	DWORD PTR $T76689[ebp], 0
	je	SHORT $LN67@initRecogn
	mov	esi, esp
	push	4
	call	DWORD PTR __imp_??2UMemory@icu_56@@SAPAXI@Z
	add	esp, 4
	cmp	esi, esp
	call	__RTC_CheckEsp
	mov	DWORD PTR $T76691[ebp], eax
	cmp	DWORD PTR $T76691[ebp], 0
	je	SHORT $LN65@initRecogn
	mov	ecx, DWORD PTR $T76691[ebp]
	call	??0CharsetRecog_KOI8_R@icu_56@@QAE@XZ
	mov	DWORD PTR tv455[ebp], eax
	jmp	SHORT $LN66@initRecogn
$LN65@initRecogn:
	mov	DWORD PTR tv455[ebp], 0
$LN66@initRecogn:
	mov	eax, DWORD PTR tv455[ebp]
	mov	DWORD PTR $T76690[ebp], eax
	push	1
	mov	ecx, DWORD PTR $T76690[ebp]
	push	ecx
	mov	ecx, DWORD PTR $T76689[ebp]
	call	??0CSRecognizerInfo@icu_56@@QAE@PAVCharsetRecognizer@1@C@Z ; icu_56::CSRecognizerInfo::CSRecognizerInfo
	mov	DWORD PTR tv457[ebp], eax
	jmp	SHORT $LN68@initRecogn
$LN67@initRecogn:
	mov	DWORD PTR tv457[ebp], 0
$LN68@initRecogn:
	mov	edx, DWORD PTR tv457[ebp]
	mov	DWORD PTR $T76688[ebp], edx
	mov	eax, DWORD PTR $T76688[ebp]
	mov	DWORD PTR _tempArray$[ebp+56], eax
; Line 105
	mov	esi, esp
	push	8
	call	DWORD PTR __imp_??2UMemory@icu_56@@SAPAXI@Z
	add	esp, 4
	cmp	esi, esp
	call	__RTC_CheckEsp
	mov	DWORD PTR $T76697[ebp], eax
	cmp	DWORD PTR $T76697[ebp], 0
	je	SHORT $LN71@initRecogn
	mov	esi, esp
	push	4
	call	DWORD PTR __imp_??2UMemory@icu_56@@SAPAXI@Z
	add	esp, 4
	cmp	esi, esp
	call	__RTC_CheckEsp
	mov	DWORD PTR $T76699[ebp], eax
	cmp	DWORD PTR $T76699[ebp], 0
	je	SHORT $LN69@initRecogn
	mov	ecx, DWORD PTR $T76699[ebp]
	call	??0CharsetRecog_8859_9_tr@icu_56@@QAE@XZ
	mov	DWORD PTR tv475[ebp], eax
	jmp	SHORT $LN70@initRecogn
$LN69@initRecogn:
	mov	DWORD PTR tv475[ebp], 0
$LN70@initRecogn:
	mov	eax, DWORD PTR tv475[ebp]
	mov	DWORD PTR $T76698[ebp], eax
	push	1
	mov	ecx, DWORD PTR $T76698[ebp]
	push	ecx
	mov	ecx, DWORD PTR $T76697[ebp]
	call	??0CSRecognizerInfo@icu_56@@QAE@PAVCharsetRecognizer@1@C@Z ; icu_56::CSRecognizerInfo::CSRecognizerInfo
	mov	DWORD PTR tv477[ebp], eax
	jmp	SHORT $LN72@initRecogn
$LN71@initRecogn:
	mov	DWORD PTR tv477[ebp], 0
$LN72@initRecogn:
	mov	edx, DWORD PTR tv477[ebp]
	mov	DWORD PTR $T76696[ebp], edx
	mov	eax, DWORD PTR $T76696[ebp]
	mov	DWORD PTR _tempArray$[ebp+60], eax
; Line 106
	mov	esi, esp
	push	8
	call	DWORD PTR __imp_??2UMemory@icu_56@@SAPAXI@Z
	add	esp, 4
	cmp	esi, esp
	call	__RTC_CheckEsp
	mov	DWORD PTR $T76705[ebp], eax
	cmp	DWORD PTR $T76705[ebp], 0
	je	SHORT $LN75@initRecogn
	mov	esi, esp
	push	4
	call	DWORD PTR __imp_??2UMemory@icu_56@@SAPAXI@Z
	add	esp, 4
	cmp	esi, esp
	call	__RTC_CheckEsp
	mov	DWORD PTR $T76706[ebp], eax
	cmp	DWORD PTR $T76706[ebp], 0
	je	SHORT $LN73@initRecogn
	mov	ecx, DWORD PTR $T76706[ebp]
	call	??0CharsetRecog_sjis@icu_56@@QAE@XZ
	mov	DWORD PTR tv493[ebp], eax
	jmp	SHORT $LN74@initRecogn
$LN73@initRecogn:
	mov	DWORD PTR tv493[ebp], 0
$LN74@initRecogn:
	push	1
	mov	eax, DWORD PTR tv493[ebp]
	push	eax
	mov	ecx, DWORD PTR $T76705[ebp]
	call	??0CSRecognizerInfo@icu_56@@QAE@PAVCharsetRecognizer@1@C@Z ; icu_56::CSRecognizerInfo::CSRecognizerInfo
	mov	DWORD PTR tv496[ebp], eax
	jmp	SHORT $LN76@initRecogn
$LN75@initRecogn:
	mov	DWORD PTR tv496[ebp], 0
$LN76@initRecogn:
	mov	ecx, DWORD PTR tv496[ebp]
	mov	DWORD PTR $T76704[ebp], ecx
	mov	edx, DWORD PTR $T76704[ebp]
	mov	DWORD PTR _tempArray$[ebp+64], edx
; Line 107
	mov	esi, esp
	push	8
	call	DWORD PTR __imp_??2UMemory@icu_56@@SAPAXI@Z
	add	esp, 4
	cmp	esi, esp
	call	__RTC_CheckEsp
	mov	DWORD PTR $T76712[ebp], eax
	cmp	DWORD PTR $T76712[ebp], 0
	je	SHORT $LN79@initRecogn
	mov	esi, esp
	push	4
	call	DWORD PTR __imp_??2UMemory@icu_56@@SAPAXI@Z
	add	esp, 4
	cmp	esi, esp
	call	__RTC_CheckEsp
	mov	DWORD PTR $T76713[ebp], eax
	cmp	DWORD PTR $T76713[ebp], 0
	je	SHORT $LN77@initRecogn
	mov	ecx, DWORD PTR $T76713[ebp]
	call	??0CharsetRecog_gb_18030@icu_56@@QAE@XZ
	mov	DWORD PTR tv544[ebp], eax
	jmp	SHORT $LN78@initRecogn
$LN77@initRecogn:
	mov	DWORD PTR tv544[ebp], 0
$LN78@initRecogn:
	push	1
	mov	eax, DWORD PTR tv544[ebp]
	push	eax
	mov	ecx, DWORD PTR $T76712[ebp]
	call	??0CSRecognizerInfo@icu_56@@QAE@PAVCharsetRecognizer@1@C@Z ; icu_56::CSRecognizerInfo::CSRecognizerInfo
	mov	DWORD PTR tv547[ebp], eax
	jmp	SHORT $LN80@initRecogn
$LN79@initRecogn:
	mov	DWORD PTR tv547[ebp], 0
$LN80@initRecogn:
	mov	ecx, DWORD PTR tv547[ebp]
	mov	DWORD PTR $T76711[ebp], ecx
	mov	edx, DWORD PTR $T76711[ebp]
	mov	DWORD PTR _tempArray$[ebp+68], edx
; Line 108
	mov	esi, esp
	push	8
	call	DWORD PTR __imp_??2UMemory@icu_56@@SAPAXI@Z
	add	esp, 4
	cmp	esi, esp
	call	__RTC_CheckEsp
	mov	DWORD PTR $T76719[ebp], eax
	cmp	DWORD PTR $T76719[ebp], 0
	je	SHORT $LN83@initRecogn
	mov	esi, esp
	push	4
	call	DWORD PTR __imp_??2UMemory@icu_56@@SAPAXI@Z
	add	esp, 4
	cmp	esi, esp
	call	__RTC_CheckEsp
	mov	DWORD PTR $T76720[ebp], eax
	cmp	DWORD PTR $T76720[ebp], 0
	je	SHORT $LN81@initRecogn
	mov	ecx, DWORD PTR $T76720[ebp]
	call	??0CharsetRecog_euc_jp@icu_56@@QAE@XZ
	mov	DWORD PTR tv563[ebp], eax
	jmp	SHORT $LN82@initRecogn
$LN81@initRecogn:
	mov	DWORD PTR tv563[ebp], 0
$LN82@initRecogn:
	push	1
	mov	eax, DWORD PTR tv563[ebp]
	push	eax
	mov	ecx, DWORD PTR $T76719[ebp]
	call	??0CSRecognizerInfo@icu_56@@QAE@PAVCharsetRecognizer@1@C@Z ; icu_56::CSRecognizerInfo::CSRecognizerInfo
	mov	DWORD PTR tv566[ebp], eax
	jmp	SHORT $LN84@initRecogn
$LN83@initRecogn:
	mov	DWORD PTR tv566[ebp], 0
$LN84@initRecogn:
	mov	ecx, DWORD PTR tv566[ebp]
	mov	DWORD PTR $T76718[ebp], ecx
	mov	edx, DWORD PTR $T76718[ebp]
	mov	DWORD PTR _tempArray$[ebp+72], edx
; Line 109
	mov	esi, esp
	push	8
	call	DWORD PTR __imp_??2UMemory@icu_56@@SAPAXI@Z
	add	esp, 4
	cmp	esi, esp
	call	__RTC_CheckEsp
	mov	DWORD PTR $T76726[ebp], eax
	cmp	DWORD PTR $T76726[ebp], 0
	je	SHORT $LN87@initRecogn
	mov	esi, esp
	push	4
	call	DWORD PTR __imp_??2UMemory@icu_56@@SAPAXI@Z
	add	esp, 4
	cmp	esi, esp
	call	__RTC_CheckEsp
	mov	DWORD PTR $T76727[ebp], eax
	cmp	DWORD PTR $T76727[ebp], 0
	je	SHORT $LN85@initRecogn
	mov	ecx, DWORD PTR $T76727[ebp]
	call	??0CharsetRecog_euc_kr@icu_56@@QAE@XZ
	mov	DWORD PTR tv582[ebp], eax
	jmp	SHORT $LN86@initRecogn
$LN85@initRecogn:
	mov	DWORD PTR tv582[ebp], 0
$LN86@initRecogn:
	push	1
	mov	eax, DWORD PTR tv582[ebp]
	push	eax
	mov	ecx, DWORD PTR $T76726[ebp]
	call	??0CSRecognizerInfo@icu_56@@QAE@PAVCharsetRecognizer@1@C@Z ; icu_56::CSRecognizerInfo::CSRecognizerInfo
	mov	DWORD PTR tv585[ebp], eax
	jmp	SHORT $LN88@initRecogn
$LN87@initRecogn:
	mov	DWORD PTR tv585[ebp], 0
$LN88@initRecogn:
	mov	ecx, DWORD PTR tv585[ebp]
	mov	DWORD PTR $T76725[ebp], ecx
	mov	edx, DWORD PTR $T76725[ebp]
	mov	DWORD PTR _tempArray$[ebp+76], edx
; Line 110
	mov	esi, esp
	push	8
	call	DWORD PTR __imp_??2UMemory@icu_56@@SAPAXI@Z
	add	esp, 4
	cmp	esi, esp
	call	__RTC_CheckEsp
	mov	DWORD PTR $T76733[ebp], eax
	cmp	DWORD PTR $T76733[ebp], 0
	je	SHORT $LN91@initRecogn
	mov	esi, esp
	push	4
	call	DWORD PTR __imp_??2UMemory@icu_56@@SAPAXI@Z
	add	esp, 4
	cmp	esi, esp
	call	__RTC_CheckEsp
	mov	DWORD PTR $T76734[ebp], eax
	cmp	DWORD PTR $T76734[ebp], 0
	je	SHORT $LN89@initRecogn
	mov	ecx, DWORD PTR $T76734[ebp]
	call	??0CharsetRecog_big5@icu_56@@QAE@XZ
	mov	DWORD PTR tv601[ebp], eax
	jmp	SHORT $LN90@initRecogn
$LN89@initRecogn:
	mov	DWORD PTR tv601[ebp], 0
$LN90@initRecogn:
	push	1
	mov	eax, DWORD PTR tv601[ebp]
	push	eax
	mov	ecx, DWORD PTR $T76733[ebp]
	call	??0CSRecognizerInfo@icu_56@@QAE@PAVCharsetRecognizer@1@C@Z ; icu_56::CSRecognizerInfo::CSRecognizerInfo
	mov	DWORD PTR tv604[ebp], eax
	jmp	SHORT $LN92@initRecogn
$LN91@initRecogn:
	mov	DWORD PTR tv604[ebp], 0
$LN92@initRecogn:
	mov	ecx, DWORD PTR tv604[ebp]
	mov	DWORD PTR $T76732[ebp], ecx
	mov	edx, DWORD PTR $T76732[ebp]
	mov	DWORD PTR _tempArray$[ebp+80], edx
; Line 112
	mov	esi, esp
	push	8
	call	DWORD PTR __imp_??2UMemory@icu_56@@SAPAXI@Z
	add	esp, 4
	cmp	esi, esp
	call	__RTC_CheckEsp
	mov	DWORD PTR $T76740[ebp], eax
	cmp	DWORD PTR $T76740[ebp], 0
	je	SHORT $LN95@initRecogn
	mov	esi, esp
	push	4
	call	DWORD PTR __imp_??2UMemory@icu_56@@SAPAXI@Z
	add	esp, 4
	cmp	esi, esp
	call	__RTC_CheckEsp
	mov	DWORD PTR $T76741[ebp], eax
	cmp	DWORD PTR $T76741[ebp], 0
	je	SHORT $LN93@initRecogn
	mov	ecx, DWORD PTR $T76741[ebp]
	call	??0CharsetRecog_2022JP@icu_56@@QAE@XZ
	mov	DWORD PTR tv620[ebp], eax
	jmp	SHORT $LN94@initRecogn
$LN93@initRecogn:
	mov	DWORD PTR tv620[ebp], 0
$LN94@initRecogn:
	push	1
	mov	eax, DWORD PTR tv620[ebp]
	push	eax
	mov	ecx, DWORD PTR $T76740[ebp]
	call	??0CSRecognizerInfo@icu_56@@QAE@PAVCharsetRecognizer@1@C@Z ; icu_56::CSRecognizerInfo::CSRecognizerInfo
	mov	DWORD PTR tv623[ebp], eax
	jmp	SHORT $LN96@initRecogn
$LN95@initRecogn:
	mov	DWORD PTR tv623[ebp], 0
$LN96@initRecogn:
	mov	ecx, DWORD PTR tv623[ebp]
	mov	DWORD PTR $T76739[ebp], ecx
	mov	edx, DWORD PTR $T76739[ebp]
	mov	DWORD PTR _tempArray$[ebp+84], edx
; Line 114
	mov	esi, esp
	push	8
	call	DWORD PTR __imp_??2UMemory@icu_56@@SAPAXI@Z
	add	esp, 4
	cmp	esi, esp
	call	__RTC_CheckEsp
	mov	DWORD PTR $T76747[ebp], eax
	cmp	DWORD PTR $T76747[ebp], 0
	je	SHORT $LN99@initRecogn
	mov	esi, esp
	push	4
	call	DWORD PTR __imp_??2UMemory@icu_56@@SAPAXI@Z
	add	esp, 4
	cmp	esi, esp
	call	__RTC_CheckEsp
	mov	DWORD PTR $T76748[ebp], eax
	cmp	DWORD PTR $T76748[ebp], 0
	je	SHORT $LN97@initRecogn
	mov	ecx, DWORD PTR $T76748[ebp]
	call	??0CharsetRecog_2022KR@icu_56@@QAE@XZ
	mov	DWORD PTR tv639[ebp], eax
	jmp	SHORT $LN98@initRecogn
$LN97@initRecogn:
	mov	DWORD PTR tv639[ebp], 0
$LN98@initRecogn:
	push	1
	mov	eax, DWORD PTR tv639[ebp]
	push	eax
	mov	ecx, DWORD PTR $T76747[ebp]
	call	??0CSRecognizerInfo@icu_56@@QAE@PAVCharsetRecognizer@1@C@Z ; icu_56::CSRecognizerInfo::CSRecognizerInfo
	mov	DWORD PTR tv642[ebp], eax
	jmp	SHORT $LN100@initRecogn
$LN99@initRecogn:
	mov	DWORD PTR tv642[ebp], 0
$LN100@initRecogn:
	mov	ecx, DWORD PTR tv642[ebp]
	mov	DWORD PTR $T76746[ebp], ecx
	mov	edx, DWORD PTR $T76746[ebp]
	mov	DWORD PTR _tempArray$[ebp+88], edx
; Line 115
	mov	esi, esp
	push	8
	call	DWORD PTR __imp_??2UMemory@icu_56@@SAPAXI@Z
	add	esp, 4
	cmp	esi, esp
	call	__RTC_CheckEsp
	mov	DWORD PTR $T76754[ebp], eax
	cmp	DWORD PTR $T76754[ebp], 0
	je	SHORT $LN103@initRecogn
	mov	esi, esp
	push	4
	call	DWORD PTR __imp_??2UMemory@icu_56@@SAPAXI@Z
	add	esp, 4
	cmp	esi, esp
	call	__RTC_CheckEsp
	mov	DWORD PTR $T76755[ebp], eax
	cmp	DWORD PTR $T76755[ebp], 0
	je	SHORT $LN101@initRecogn
	mov	ecx, DWORD PTR $T76755[ebp]
	call	??0CharsetRecog_2022CN@icu_56@@QAE@XZ
	mov	DWORD PTR tv658[ebp], eax
	jmp	SHORT $LN102@initRecogn
$LN101@initRecogn:
	mov	DWORD PTR tv658[ebp], 0
$LN102@initRecogn:
	push	1
	mov	eax, DWORD PTR tv658[ebp]
	push	eax
	mov	ecx, DWORD PTR $T76754[ebp]
	call	??0CSRecognizerInfo@icu_56@@QAE@PAVCharsetRecognizer@1@C@Z ; icu_56::CSRecognizerInfo::CSRecognizerInfo
	mov	DWORD PTR tv661[ebp], eax
	jmp	SHORT $LN104@initRecogn
$LN103@initRecogn:
	mov	DWORD PTR tv661[ebp], 0
$LN104@initRecogn:
	mov	ecx, DWORD PTR tv661[ebp]
	mov	DWORD PTR $T76753[ebp], ecx
	mov	edx, DWORD PTR $T76753[ebp]
	mov	DWORD PTR _tempArray$[ebp+92], edx
; Line 117
	mov	esi, esp
	push	8
	call	DWORD PTR __imp_??2UMemory@icu_56@@SAPAXI@Z
	add	esp, 4
	cmp	esi, esp
	call	__RTC_CheckEsp
	mov	DWORD PTR $T76761[ebp], eax
	cmp	DWORD PTR $T76761[ebp], 0
	je	SHORT $LN107@initRecogn
	mov	esi, esp
	push	4
	call	DWORD PTR __imp_??2UMemory@icu_56@@SAPAXI@Z
	add	esp, 4
	cmp	esi, esp
	call	__RTC_CheckEsp
	mov	DWORD PTR $T76763[ebp], eax
	cmp	DWORD PTR $T76763[ebp], 0
	je	SHORT $LN105@initRecogn
	mov	ecx, DWORD PTR $T76763[ebp]
	call	??0CharsetRecog_IBM424_he_rtl@icu_56@@QAE@XZ
	mov	DWORD PTR tv711[ebp], eax
	jmp	SHORT $LN106@initRecogn
$LN105@initRecogn:
	mov	DWORD PTR tv711[ebp], 0
$LN106@initRecogn:
	mov	eax, DWORD PTR tv711[ebp]
	mov	DWORD PTR $T76762[ebp], eax
	push	0
	mov	ecx, DWORD PTR $T76762[ebp]
	push	ecx
	mov	ecx, DWORD PTR $T76761[ebp]
	call	??0CSRecognizerInfo@icu_56@@QAE@PAVCharsetRecognizer@1@C@Z ; icu_56::CSRecognizerInfo::CSRecognizerInfo
	mov	DWORD PTR tv713[ebp], eax
	jmp	SHORT $LN108@initRecogn
$LN107@initRecogn:
	mov	DWORD PTR tv713[ebp], 0
$LN108@initRecogn:
	mov	edx, DWORD PTR tv713[ebp]
	mov	DWORD PTR $T76760[ebp], edx
	mov	eax, DWORD PTR $T76760[ebp]
	mov	DWORD PTR _tempArray$[ebp+96], eax
; Line 118
	mov	esi, esp
	push	8
	call	DWORD PTR __imp_??2UMemory@icu_56@@SAPAXI@Z
	add	esp, 4
	cmp	esi, esp
	call	__RTC_CheckEsp
	mov	DWORD PTR $T76769[ebp], eax
	cmp	DWORD PTR $T76769[ebp], 0
	je	SHORT $LN111@initRecogn
	mov	esi, esp
	push	4
	call	DWORD PTR __imp_??2UMemory@icu_56@@SAPAXI@Z
	add	esp, 4
	cmp	esi, esp
	call	__RTC_CheckEsp
	mov	DWORD PTR $T76771[ebp], eax
	cmp	DWORD PTR $T76771[ebp], 0
	je	SHORT $LN109@initRecogn
	mov	ecx, DWORD PTR $T76771[ebp]
	call	??0CharsetRecog_IBM424_he_ltr@icu_56@@QAE@XZ
	mov	DWORD PTR tv731[ebp], eax
	jmp	SHORT $LN110@initRecogn
$LN109@initRecogn:
	mov	DWORD PTR tv731[ebp], 0
$LN110@initRecogn:
	mov	eax, DWORD PTR tv731[ebp]
	mov	DWORD PTR $T76770[ebp], eax
	push	0
	mov	ecx, DWORD PTR $T76770[ebp]
	push	ecx
	mov	ecx, DWORD PTR $T76769[ebp]
	call	??0CSRecognizerInfo@icu_56@@QAE@PAVCharsetRecognizer@1@C@Z ; icu_56::CSRecognizerInfo::CSRecognizerInfo
	mov	DWORD PTR tv733[ebp], eax
	jmp	SHORT $LN112@initRecogn
$LN111@initRecogn:
	mov	DWORD PTR tv733[ebp], 0
$LN112@initRecogn:
	mov	edx, DWORD PTR tv733[ebp]
	mov	DWORD PTR $T76768[ebp], edx
	mov	eax, DWORD PTR $T76768[ebp]
	mov	DWORD PTR _tempArray$[ebp+100], eax
; Line 119
	mov	esi, esp
	push	8
	call	DWORD PTR __imp_??2UMemory@icu_56@@SAPAXI@Z
	add	esp, 4
	cmp	esi, esp
	call	__RTC_CheckEsp
	mov	DWORD PTR $T76777[ebp], eax
	cmp	DWORD PTR $T76777[ebp], 0
	je	SHORT $LN115@initRecogn
	mov	esi, esp
	push	4
	call	DWORD PTR __imp_??2UMemory@icu_56@@SAPAXI@Z
	add	esp, 4
	cmp	esi, esp
	call	__RTC_CheckEsp
	mov	DWORD PTR $T76779[ebp], eax
	cmp	DWORD PTR $T76779[ebp], 0
	je	SHORT $LN113@initRecogn
	mov	ecx, DWORD PTR $T76779[ebp]
	call	??0CharsetRecog_IBM420_ar_rtl@icu_56@@QAE@XZ
	mov	DWORD PTR tv751[ebp], eax
	jmp	SHORT $LN114@initRecogn
$LN113@initRecogn:
	mov	DWORD PTR tv751[ebp], 0
$LN114@initRecogn:
	mov	eax, DWORD PTR tv751[ebp]
	mov	DWORD PTR $T76778[ebp], eax
	push	0
	mov	ecx, DWORD PTR $T76778[ebp]
	push	ecx
	mov	ecx, DWORD PTR $T76777[ebp]
	call	??0CSRecognizerInfo@icu_56@@QAE@PAVCharsetRecognizer@1@C@Z ; icu_56::CSRecognizerInfo::CSRecognizerInfo
	mov	DWORD PTR tv753[ebp], eax
	jmp	SHORT $LN116@initRecogn
$LN115@initRecogn:
	mov	DWORD PTR tv753[ebp], 0
$LN116@initRecogn:
	mov	edx, DWORD PTR tv753[ebp]
	mov	DWORD PTR $T76776[ebp], edx
	mov	eax, DWORD PTR $T76776[ebp]
	mov	DWORD PTR _tempArray$[ebp+104], eax
; Line 122
	mov	esi, esp
	push	8
	call	DWORD PTR __imp_??2UMemory@icu_56@@SAPAXI@Z
	add	esp, 4
	cmp	esi, esp
	call	__RTC_CheckEsp
	mov	DWORD PTR $T76785[ebp], eax
	cmp	DWORD PTR $T76785[ebp], 0
	je	SHORT $LN119@initRecogn
	mov	esi, esp
	push	4
	call	DWORD PTR __imp_??2UMemory@icu_56@@SAPAXI@Z
	add	esp, 4
	cmp	esi, esp
	call	__RTC_CheckEsp
	mov	DWORD PTR $T76787[ebp], eax
	cmp	DWORD PTR $T76787[ebp], 0
	je	SHORT $LN117@initRecogn
	mov	ecx, DWORD PTR $T76787[ebp]
	call	??0CharsetRecog_IBM420_ar_ltr@icu_56@@QAE@XZ
	mov	DWORD PTR tv771[ebp], eax
	jmp	SHORT $LN118@initRecogn
$LN117@initRecogn:
	mov	DWORD PTR tv771[ebp], 0
$LN118@initRecogn:
	mov	eax, DWORD PTR tv771[ebp]
	mov	DWORD PTR $T76786[ebp], eax
	push	0
	mov	ecx, DWORD PTR $T76786[ebp]
	push	ecx
	mov	ecx, DWORD PTR $T76785[ebp]
	call	??0CSRecognizerInfo@icu_56@@QAE@PAVCharsetRecognizer@1@C@Z ; icu_56::CSRecognizerInfo::CSRecognizerInfo
	mov	DWORD PTR tv773[ebp], eax
	jmp	SHORT $LN120@initRecogn
$LN119@initRecogn:
	mov	DWORD PTR tv773[ebp], 0
$LN120@initRecogn:
	mov	edx, DWORD PTR tv773[ebp]
	mov	DWORD PTR $T76784[ebp], edx
	mov	eax, DWORD PTR $T76784[ebp]
	mov	DWORD PTR _tempArray$[ebp+108], eax
; Line 123
	mov	DWORD PTR _rCount$[ebp], 28		; 0000001cH
; Line 125
	mov	eax, DWORD PTR _rCount$[ebp]
	shl	eax, 2
	push	eax
	call	_uprv_malloc_56
	add	esp, 4
	mov	DWORD PTR _fCSRecognizers, eax
; Line 127
	cmp	DWORD PTR _fCSRecognizers, 0
	jne	SHORT $LN6@initRecogn
; Line 128
	mov	eax, DWORD PTR _status$[ebp]
	mov	DWORD PTR [eax], 7
; Line 130
	jmp	SHORT $LN7@initRecogn
$LN6@initRecogn:
; Line 131
	mov	eax, DWORD PTR _rCount$[ebp]
	mov	DWORD PTR _fCSRecognizers_size, eax
; Line 132
	mov	DWORD PTR _r$68948[ebp], 0
	jmp	SHORT $LN4@initRecogn
$LN3@initRecogn:
	mov	eax, DWORD PTR _r$68948[ebp]
	add	eax, 1
	mov	DWORD PTR _r$68948[ebp], eax
$LN4@initRecogn:
	mov	eax, DWORD PTR _r$68948[ebp]
	cmp	eax, DWORD PTR _rCount$[ebp]
	jge	SHORT $LN7@initRecogn
; Line 133
	mov	eax, DWORD PTR _r$68948[ebp]
	mov	ecx, DWORD PTR _fCSRecognizers
	mov	edx, DWORD PTR _r$68948[ebp]
	mov	edx, DWORD PTR _tempArray$[ebp+edx*4]
	mov	DWORD PTR [ecx+eax*4], edx
; Line 134
	mov	eax, DWORD PTR _r$68948[ebp]
	mov	ecx, DWORD PTR _fCSRecognizers
	cmp	DWORD PTR [ecx+eax*4], 0
	jne	SHORT $LN1@initRecogn
; Line 135
	mov	eax, DWORD PTR _status$[ebp]
	mov	DWORD PTR [eax], 7
$LN1@initRecogn:
; Line 137
	jmp	SHORT $LN3@initRecogn
$LN7@initRecogn:
; Line 139
	push	edx
	mov	ecx, ebp
	push	eax
	lea	edx, DWORD PTR $LN123@initRecogn
	call	@_RTC_CheckStackVars@8
	pop	eax
	pop	edx
	pop	edi
	pop	esi
	pop	ebx
	add	esp, 1532				; 000005fcH
	cmp	ebp, esp
	call	__RTC_CheckEsp
	mov	esp, ebp
	pop	ebp
	ret	0
	npad	3
$LN123@initRecogn:
	DD	1
	DD	$LN122@initRecogn
$LN122@initRecogn:
	DD	-116					; ffffff8cH
	DD	112					; 00000070H
	DD	$LN121@initRecogn
$LN121@initRecogn:
	DB	116					; 00000074H
	DB	101					; 00000065H
	DB	109					; 0000006dH
	DB	112					; 00000070H
	DB	65					; 00000041H
	DB	114					; 00000072H
	DB	114					; 00000072H
	DB	97					; 00000061H
	DB	121					; 00000079H
	DB	0
_initRecognizers ENDP
; Function compile flags: /Odtp /RTCsu /ZI
_TEXT	ENDS
;	COMDAT ??0CSRecognizerInfo@icu_56@@QAE@PAVCharsetRecognizer@1@C@Z
_TEXT	SEGMENT
_this$ = -8						; size = 4
_recognizer$ = 8					; size = 4
_isDefaultEnabled$ = 12					; size = 1
??0CSRecognizerInfo@icu_56@@QAE@PAVCharsetRecognizer@1@C@Z PROC ; icu_56::CSRecognizerInfo::CSRecognizerInfo, COMDAT
; _this$ = ecx
; Line 38
	push	ebp
	mov	ebp, esp
	sub	esp, 204				; 000000ccH
	push	ebx
	push	esi
	push	edi
	push	ecx
	lea	edi, DWORD PTR [ebp-204]
	mov	ecx, 51					; 00000033H
	mov	eax, -858993460				; ccccccccH
	rep stosd
	pop	ecx
	mov	DWORD PTR _this$[ebp], ecx
	mov	eax, DWORD PTR _this$[ebp]
	mov	ecx, DWORD PTR _recognizer$[ebp]
	mov	DWORD PTR [eax], ecx
	mov	eax, DWORD PTR _this$[ebp]
	mov	cl, BYTE PTR _isDefaultEnabled$[ebp]
	mov	BYTE PTR [eax+4], cl
	mov	eax, DWORD PTR _this$[ebp]
	pop	edi
	pop	esi
	pop	ebx
	mov	esp, ebp
	pop	ebp
	ret	8
??0CSRecognizerInfo@icu_56@@QAE@PAVCharsetRecognizer@1@C@Z ENDP ; icu_56::CSRecognizerInfo::CSRecognizerInfo
_TEXT	ENDS
PUBLIC	?reset@UInitOnce@icu_56@@QAEXXZ			; icu_56::UInitOnce::reset
PUBLIC	??_GCSRecognizerInfo@icu_56@@QAEPAXI@Z		; icu_56::CSRecognizerInfo::`scalar deleting destructor'
EXTRN	_uprv_free_56:PROC
; Function compile flags: /Odtp /RTCsu /ZI
;	COMDAT _csdet_cleanup
_TEXT	SEGMENT
tv73 = -232						; size = 4
$T76800 = -224						; size = 4
$T76801 = -212						; size = 4
_r$68721 = -8						; size = 4
_csdet_cleanup PROC					; COMDAT
; Line 55
	push	ebp
	mov	ebp, esp
	sub	esp, 232				; 000000e8H
	push	ebx
	push	esi
	push	edi
	lea	edi, DWORD PTR [ebp-232]
	mov	ecx, 58					; 0000003aH
	mov	eax, -858993460				; ccccccccH
	rep stosd
; Line 57
	cmp	DWORD PTR _fCSRecognizers, 0
	je	$LN4@csdet_clea
; Line 58
	mov	DWORD PTR _r$68721[ebp], 0
	jmp	SHORT $LN3@csdet_clea
$LN2@csdet_clea:
	mov	eax, DWORD PTR _r$68721[ebp]
	add	eax, 1
	mov	DWORD PTR _r$68721[ebp], eax
$LN3@csdet_clea:
	mov	eax, DWORD PTR _r$68721[ebp]
	cmp	eax, DWORD PTR _fCSRecognizers_size
	jge	SHORT $LN1@csdet_clea
; Line 59
	mov	eax, DWORD PTR _r$68721[ebp]
	mov	ecx, DWORD PTR _fCSRecognizers
	mov	edx, DWORD PTR [ecx+eax*4]
	mov	DWORD PTR $T76801[ebp], edx
	mov	eax, DWORD PTR $T76801[ebp]
	mov	DWORD PTR $T76800[ebp], eax
	cmp	DWORD PTR $T76800[ebp], 0
	je	SHORT $LN7@csdet_clea
	push	1
	mov	ecx, DWORD PTR $T76800[ebp]
	call	??_GCSRecognizerInfo@icu_56@@QAEPAXI@Z
	mov	DWORD PTR tv73[ebp], eax
	jmp	SHORT $LN8@csdet_clea
$LN7@csdet_clea:
	mov	DWORD PTR tv73[ebp], 0
$LN8@csdet_clea:
; Line 60
	mov	eax, DWORD PTR _r$68721[ebp]
	mov	ecx, DWORD PTR _fCSRecognizers
	mov	DWORD PTR [ecx+eax*4], 0
; Line 61
	jmp	SHORT $LN2@csdet_clea
$LN1@csdet_clea:
; Line 63
	mov	eax, DWORD PTR _fCSRecognizers
	push	eax
	call	_uprv_free_56
	add	esp, 4
; Line 64
	mov	DWORD PTR _fCSRecognizers, 0
; Line 65
	mov	DWORD PTR _fCSRecognizers_size, 0
$LN4@csdet_clea:
; Line 67
	mov	ecx, OFFSET _gCSRecognizersInitOnce
	call	?reset@UInitOnce@icu_56@@QAEXXZ		; icu_56::UInitOnce::reset
; Line 69
	mov	al, 1
; Line 70
	pop	edi
	pop	esi
	pop	ebx
	add	esp, 232				; 000000e8H
	cmp	ebp, esp
	call	__RTC_CheckEsp
	mov	esp, ebp
	pop	ebp
	ret	0
_csdet_cleanup ENDP
; Function compile flags: /Odtp /RTCsu /ZI
_TEXT	ENDS
;	COMDAT ?reset@UInitOnce@icu_56@@QAEXXZ
_TEXT	SEGMENT
_this$ = -8						; size = 4
?reset@UInitOnce@icu_56@@QAEXXZ PROC			; icu_56::UInitOnce::reset, COMDAT
; _this$ = ecx
; File d:\mozilla\intl\icu\source\common\umutex.h
; Line 220
	push	ebp
	mov	ebp, esp
	sub	esp, 204				; 000000ccH
	push	ebx
	push	esi
	push	edi
	push	ecx
	lea	edi, DWORD PTR [ebp-204]
	mov	ecx, 51					; 00000033H
	mov	eax, -858993460				; ccccccccH
	rep stosd
	pop	ecx
	mov	DWORD PTR _this$[ebp], ecx
	mov	eax, DWORD PTR _this$[ebp]
	mov	DWORD PTR [eax], 0
	pop	edi
	pop	esi
	pop	ebx
	mov	esp, ebp
	pop	ebp
	ret	0
?reset@UInitOnce@icu_56@@QAEXXZ ENDP			; icu_56::UInitOnce::reset
_TEXT	ENDS
PUBLIC	??1CSRecognizerInfo@icu_56@@QAE@XZ		; icu_56::CSRecognizerInfo::~CSRecognizerInfo
EXTRN	__imp_??3UMemory@icu_56@@SAXPAX@Z:PROC
; Function compile flags: /Odtp /RTCsu /ZI
;	COMDAT ??_GCSRecognizerInfo@icu_56@@QAEPAXI@Z
_TEXT	SEGMENT
_this$ = -8						; size = 4
___flags$ = 8						; size = 4
??_GCSRecognizerInfo@icu_56@@QAEPAXI@Z PROC		; icu_56::CSRecognizerInfo::`scalar deleting destructor', COMDAT
; _this$ = ecx
	push	ebp
	mov	ebp, esp
	sub	esp, 204				; 000000ccH
	push	ebx
	push	esi
	push	edi
	push	ecx
	lea	edi, DWORD PTR [ebp-204]
	mov	ecx, 51					; 00000033H
	mov	eax, -858993460				; ccccccccH
	rep stosd
	pop	ecx
	mov	DWORD PTR _this$[ebp], ecx
	mov	ecx, DWORD PTR _this$[ebp]
	call	??1CSRecognizerInfo@icu_56@@QAE@XZ	; icu_56::CSRecognizerInfo::~CSRecognizerInfo
	mov	eax, DWORD PTR ___flags$[ebp]
	and	eax, 1
	je	SHORT $LN1@scalar
	mov	esi, esp
	mov	eax, DWORD PTR _this$[ebp]
	push	eax
	call	DWORD PTR __imp_??3UMemory@icu_56@@SAXPAX@Z
	add	esp, 4
	cmp	esi, esp
	call	__RTC_CheckEsp
$LN1@scalar:
	mov	eax, DWORD PTR _this$[ebp]
	pop	edi
	pop	esi
	pop	ebx
	add	esp, 204				; 000000ccH
	cmp	ebp, esp
	call	__RTC_CheckEsp
	mov	esp, ebp
	pop	ebp
	ret	4
??_GCSRecognizerInfo@icu_56@@QAEPAXI@Z ENDP		; icu_56::CSRecognizerInfo::`scalar deleting destructor'
; Function compile flags: /Odtp /RTCsu /ZI
_TEXT	ENDS
;	COMDAT ??1CSRecognizerInfo@icu_56@@QAE@XZ
_TEXT	SEGMENT
tv70 = -232						; size = 4
$T76810 = -224						; size = 4
$T76811 = -212						; size = 4
_this$ = -8						; size = 4
??1CSRecognizerInfo@icu_56@@QAE@XZ PROC			; icu_56::CSRecognizerInfo::~CSRecognizerInfo, COMDAT
; _this$ = ecx
; File d:\mozilla\intl\icu\source\i18n\csdetect.cpp
; Line 41
	push	ebp
	mov	ebp, esp
	sub	esp, 232				; 000000e8H
	push	ebx
	push	esi
	push	edi
	push	ecx
	lea	edi, DWORD PTR [ebp-232]
	mov	ecx, 58					; 0000003aH
	mov	eax, -858993460				; ccccccccH
	rep stosd
	pop	ecx
	mov	DWORD PTR _this$[ebp], ecx
	mov	eax, DWORD PTR _this$[ebp]
	mov	ecx, DWORD PTR [eax]
	mov	DWORD PTR $T76811[ebp], ecx
	mov	edx, DWORD PTR $T76811[ebp]
	mov	DWORD PTR $T76810[ebp], edx
	cmp	DWORD PTR $T76810[ebp], 0
	je	SHORT $LN3@CSRecogniz
	mov	esi, esp
	push	1
	mov	eax, DWORD PTR $T76810[ebp]
	mov	edx, DWORD PTR [eax]
	mov	ecx, DWORD PTR $T76810[ebp]
	mov	eax, DWORD PTR [edx+12]
	call	eax
	cmp	esi, esp
	call	__RTC_CheckEsp
	mov	DWORD PTR tv70[ebp], eax
	jmp	SHORT $LN1@CSRecogniz
$LN3@CSRecogniz:
	mov	DWORD PTR tv70[ebp], 0
$LN1@CSRecogniz:
	pop	edi
	pop	esi
	pop	ebx
	add	esp, 232				; 000000e8H
	cmp	ebp, esp
	call	__RTC_CheckEsp
	mov	esp, ebp
	pop	ebp
	ret	0
??1CSRecognizerInfo@icu_56@@QAE@XZ ENDP			; icu_56::CSRecognizerInfo::~CSRecognizerInfo
_TEXT	ENDS
PUBLIC	??_7CharsetRecog_UTF8@icu_56@@6B@		; icu_56::CharsetRecog_UTF8::`vftable'
PUBLIC	??0CharsetRecognizer@icu_56@@QAE@XZ		; icu_56::CharsetRecognizer::CharsetRecognizer
PUBLIC	??_R4CharsetRecog_UTF8@icu_56@@6B@		; icu_56::CharsetRecog_UTF8::`RTTI Complete Object Locator'
PUBLIC	??_R0?AVCharsetRecog_UTF8@icu_56@@@8		; icu_56::CharsetRecog_UTF8 `RTTI Type Descriptor'
PUBLIC	??_R3CharsetRecog_UTF8@icu_56@@8		; icu_56::CharsetRecog_UTF8::`RTTI Class Hierarchy Descriptor'
PUBLIC	??_R2CharsetRecog_UTF8@icu_56@@8		; icu_56::CharsetRecog_UTF8::`RTTI Base Class Array'
PUBLIC	??_R1A@?0A@EA@CharsetRecog_UTF8@icu_56@@8	; icu_56::CharsetRecog_UTF8::`RTTI Base Class Descriptor at (0,-1,0,64)'
PUBLIC	??_R1A@?0A@EA@CharsetRecognizer@icu_56@@8	; icu_56::CharsetRecognizer::`RTTI Base Class Descriptor at (0,-1,0,64)'
PUBLIC	??_R0?AVCharsetRecognizer@icu_56@@@8		; icu_56::CharsetRecognizer `RTTI Type Descriptor'
PUBLIC	??_R3CharsetRecognizer@icu_56@@8		; icu_56::CharsetRecognizer::`RTTI Class Hierarchy Descriptor'
PUBLIC	??_R2CharsetRecognizer@icu_56@@8		; icu_56::CharsetRecognizer::`RTTI Base Class Array'
PUBLIC	??_R13?0A@EA@UMemory@icu_56@@8			; icu_56::UMemory::`RTTI Base Class Descriptor at (4,-1,0,64)'
PUBLIC	??_R0?AVUMemory@icu_56@@@8			; icu_56::UMemory `RTTI Type Descriptor'
PUBLIC	??_R3UMemory@icu_56@@8				; icu_56::UMemory::`RTTI Class Hierarchy Descriptor'
PUBLIC	??_R2UMemory@icu_56@@8				; icu_56::UMemory::`RTTI Base Class Array'
PUBLIC	??_R1A@?0A@EA@UMemory@icu_56@@8			; icu_56::UMemory::`RTTI Base Class Descriptor at (0,-1,0,64)'
EXTRN	??_7type_info@@6B@:QWORD			; type_info::`vftable'
EXTRN	?getName@CharsetRecog_UTF8@icu_56@@UBEPBDXZ:PROC ; icu_56::CharsetRecog_UTF8::getName
EXTRN	?getLanguage@CharsetRecognizer@icu_56@@UBEPBDXZ:PROC ; icu_56::CharsetRecognizer::getLanguage
EXTRN	?match@CharsetRecog_UTF8@icu_56@@UBECPAVInputText@2@PAVCharsetMatch@2@@Z:PROC ; icu_56::CharsetRecog_UTF8::match
EXTRN	??_ECharsetRecog_UTF8@icu_56@@UAEPAXI@Z:PROC	; icu_56::CharsetRecog_UTF8::`vector deleting destructor'
;	COMDAT ??_R1A@?0A@EA@UMemory@icu_56@@8
rdata$r	SEGMENT
??_R1A@?0A@EA@UMemory@icu_56@@8 DD FLAT:??_R0?AVUMemory@icu_56@@@8 ; icu_56::UMemory::`RTTI Base Class Descriptor at (0,-1,0,64)'
	DD	00H
	DD	00H
	DD	0ffffffffH
	DD	00H
	DD	040H
	DD	FLAT:??_R3UMemory@icu_56@@8
rdata$r	ENDS
;	COMDAT ??_R2UMemory@icu_56@@8
rdata$r	SEGMENT
??_R2UMemory@icu_56@@8 DD FLAT:??_R1A@?0A@EA@UMemory@icu_56@@8 ; icu_56::UMemory::`RTTI Base Class Array'
rdata$r	ENDS
;	COMDAT ??_R3UMemory@icu_56@@8
rdata$r	SEGMENT
??_R3UMemory@icu_56@@8 DD 00H				; icu_56::UMemory::`RTTI Class Hierarchy Descriptor'
	DD	00H
	DD	01H
	DD	FLAT:??_R2UMemory@icu_56@@8
rdata$r	ENDS
;	COMDAT ??_R0?AVUMemory@icu_56@@@8
_DATA	SEGMENT
??_R0?AVUMemory@icu_56@@@8 DD FLAT:??_7type_info@@6B@	; icu_56::UMemory `RTTI Type Descriptor'
	DD	00H
	DB	'.?AVUMemory@icu_56@@', 00H
_DATA	ENDS
;	COMDAT ??_R13?0A@EA@UMemory@icu_56@@8
rdata$r	SEGMENT
??_R13?0A@EA@UMemory@icu_56@@8 DD FLAT:??_R0?AVUMemory@icu_56@@@8 ; icu_56::UMemory::`RTTI Base Class Descriptor at (4,-1,0,64)'
	DD	00H
	DD	04H
	DD	0ffffffffH
	DD	00H
	DD	040H
	DD	FLAT:??_R3UMemory@icu_56@@8
rdata$r	ENDS
;	COMDAT ??_R2CharsetRecognizer@icu_56@@8
rdata$r	SEGMENT
??_R2CharsetRecognizer@icu_56@@8 DD FLAT:??_R1A@?0A@EA@CharsetRecognizer@icu_56@@8 ; icu_56::CharsetRecognizer::`RTTI Base Class Array'
	DD	FLAT:??_R13?0A@EA@UMemory@icu_56@@8
rdata$r	ENDS
;	COMDAT ??_R3CharsetRecognizer@icu_56@@8
rdata$r	SEGMENT
??_R3CharsetRecognizer@icu_56@@8 DD 00H			; icu_56::CharsetRecognizer::`RTTI Class Hierarchy Descriptor'
	DD	00H
	DD	02H
	DD	FLAT:??_R2CharsetRecognizer@icu_56@@8
rdata$r	ENDS
;	COMDAT ??_R0?AVCharsetRecognizer@icu_56@@@8
_DATA	SEGMENT
??_R0?AVCharsetRecognizer@icu_56@@@8 DD FLAT:??_7type_info@@6B@ ; icu_56::CharsetRecognizer `RTTI Type Descriptor'
	DD	00H
	DB	'.?AVCharsetRecognizer@icu_56@@', 00H
_DATA	ENDS
;	COMDAT ??_R1A@?0A@EA@CharsetRecognizer@icu_56@@8
rdata$r	SEGMENT
??_R1A@?0A@EA@CharsetRecognizer@icu_56@@8 DD FLAT:??_R0?AVCharsetRecognizer@icu_56@@@8 ; icu_56::CharsetRecognizer::`RTTI Base Class Descriptor at (0,-1,0,64)'
	DD	01H
	DD	00H
	DD	0ffffffffH
	DD	00H
	DD	040H
	DD	FLAT:??_R3CharsetRecognizer@icu_56@@8
rdata$r	ENDS
;	COMDAT ??_R1A@?0A@EA@CharsetRecog_UTF8@icu_56@@8
rdata$r	SEGMENT
??_R1A@?0A@EA@CharsetRecog_UTF8@icu_56@@8 DD FLAT:??_R0?AVCharsetRecog_UTF8@icu_56@@@8 ; icu_56::CharsetRecog_UTF8::`RTTI Base Class Descriptor at (0,-1,0,64)'
	DD	02H
	DD	00H
	DD	0ffffffffH
	DD	00H
	DD	040H
	DD	FLAT:??_R3CharsetRecog_UTF8@icu_56@@8
rdata$r	ENDS
;	COMDAT ??_R2CharsetRecog_UTF8@icu_56@@8
rdata$r	SEGMENT
??_R2CharsetRecog_UTF8@icu_56@@8 DD FLAT:??_R1A@?0A@EA@CharsetRecog_UTF8@icu_56@@8 ; icu_56::CharsetRecog_UTF8::`RTTI Base Class Array'
	DD	FLAT:??_R1A@?0A@EA@CharsetRecognizer@icu_56@@8
	DD	FLAT:??_R13?0A@EA@UMemory@icu_56@@8
rdata$r	ENDS
;	COMDAT ??_R3CharsetRecog_UTF8@icu_56@@8
rdata$r	SEGMENT
??_R3CharsetRecog_UTF8@icu_56@@8 DD 00H			; icu_56::CharsetRecog_UTF8::`RTTI Class Hierarchy Descriptor'
	DD	00H
	DD	03H
	DD	FLAT:??_R2CharsetRecog_UTF8@icu_56@@8
rdata$r	ENDS
;	COMDAT ??_R0?AVCharsetRecog_UTF8@icu_56@@@8
_DATA	SEGMENT
??_R0?AVCharsetRecog_UTF8@icu_56@@@8 DD FLAT:??_7type_info@@6B@ ; icu_56::CharsetRecog_UTF8 `RTTI Type Descriptor'
	DD	00H
	DB	'.?AVCharsetRecog_UTF8@icu_56@@', 00H
_DATA	ENDS
;	COMDAT ??_R4CharsetRecog_UTF8@icu_56@@6B@
rdata$r	SEGMENT
??_R4CharsetRecog_UTF8@icu_56@@6B@ DD 00H		; icu_56::CharsetRecog_UTF8::`RTTI Complete Object Locator'
	DD	00H
	DD	00H
	DD	FLAT:??_R0?AVCharsetRecog_UTF8@icu_56@@@8
	DD	FLAT:??_R3CharsetRecog_UTF8@icu_56@@8
rdata$r	ENDS
;	COMDAT ??_7CharsetRecog_UTF8@icu_56@@6B@
CONST	SEGMENT
??_7CharsetRecog_UTF8@icu_56@@6B@ DD FLAT:??_R4CharsetRecog_UTF8@icu_56@@6B@ ; icu_56::CharsetRecog_UTF8::`vftable'
	DD	FLAT:?getName@CharsetRecog_UTF8@icu_56@@UBEPBDXZ
	DD	FLAT:?getLanguage@CharsetRecognizer@icu_56@@UBEPBDXZ
	DD	FLAT:?match@CharsetRecog_UTF8@icu_56@@UBECPAVInputText@2@PAVCharsetMatch@2@@Z
	DD	FLAT:??_ECharsetRecog_UTF8@icu_56@@UAEPAXI@Z
; Function compile flags: /Odtp /RTCsu /ZI
CONST	ENDS
;	COMDAT ??0CharsetRecog_UTF8@icu_56@@QAE@XZ
_TEXT	SEGMENT
_this$ = -8						; size = 4
??0CharsetRecog_UTF8@icu_56@@QAE@XZ PROC		; icu_56::CharsetRecog_UTF8::CharsetRecog_UTF8, COMDAT
; _this$ = ecx
	push	ebp
	mov	ebp, esp
	sub	esp, 204				; 000000ccH
	push	ebx
	push	esi
	push	edi
	push	ecx
	lea	edi, DWORD PTR [ebp-204]
	mov	ecx, 51					; 00000033H
	mov	eax, -858993460				; ccccccccH
	rep stosd
	pop	ecx
	mov	DWORD PTR _this$[ebp], ecx
	mov	ecx, DWORD PTR _this$[ebp]
	call	??0CharsetRecognizer@icu_56@@QAE@XZ
	mov	eax, DWORD PTR _this$[ebp]
	mov	DWORD PTR [eax], OFFSET ??_7CharsetRecog_UTF8@icu_56@@6B@
	mov	eax, DWORD PTR _this$[ebp]
	pop	edi
	pop	esi
	pop	ebx
	add	esp, 204				; 000000ccH
	cmp	ebp, esp
	call	__RTC_CheckEsp
	mov	esp, ebp
	pop	ebp
	ret	0
??0CharsetRecog_UTF8@icu_56@@QAE@XZ ENDP		; icu_56::CharsetRecog_UTF8::CharsetRecog_UTF8
_TEXT	ENDS
PUBLIC	??_7CharsetRecog_UTF_16_BE@icu_56@@6B@		; icu_56::CharsetRecog_UTF_16_BE::`vftable'
PUBLIC	??0CharsetRecog_Unicode@icu_56@@QAE@XZ		; icu_56::CharsetRecog_Unicode::CharsetRecog_Unicode
PUBLIC	??_R4CharsetRecog_UTF_16_BE@icu_56@@6B@		; icu_56::CharsetRecog_UTF_16_BE::`RTTI Complete Object Locator'
PUBLIC	??_R0?AVCharsetRecog_UTF_16_BE@icu_56@@@8	; icu_56::CharsetRecog_UTF_16_BE `RTTI Type Descriptor'
PUBLIC	??_R3CharsetRecog_UTF_16_BE@icu_56@@8		; icu_56::CharsetRecog_UTF_16_BE::`RTTI Class Hierarchy Descriptor'
PUBLIC	??_R2CharsetRecog_UTF_16_BE@icu_56@@8		; icu_56::CharsetRecog_UTF_16_BE::`RTTI Base Class Array'
PUBLIC	??_R1A@?0A@EA@CharsetRecog_UTF_16_BE@icu_56@@8	; icu_56::CharsetRecog_UTF_16_BE::`RTTI Base Class Descriptor at (0,-1,0,64)'
PUBLIC	??_R1A@?0A@EA@CharsetRecog_Unicode@icu_56@@8	; icu_56::CharsetRecog_Unicode::`RTTI Base Class Descriptor at (0,-1,0,64)'
PUBLIC	??_R0?AVCharsetRecog_Unicode@icu_56@@@8		; icu_56::CharsetRecog_Unicode `RTTI Type Descriptor'
PUBLIC	??_R3CharsetRecog_Unicode@icu_56@@8		; icu_56::CharsetRecog_Unicode::`RTTI Class Hierarchy Descriptor'
PUBLIC	??_R2CharsetRecog_Unicode@icu_56@@8		; icu_56::CharsetRecog_Unicode::`RTTI Base Class Array'
EXTRN	?getName@CharsetRecog_UTF_16_BE@icu_56@@UBEPBDXZ:PROC ; icu_56::CharsetRecog_UTF_16_BE::getName
EXTRN	?match@CharsetRecog_UTF_16_BE@icu_56@@UBECPAVInputText@2@PAVCharsetMatch@2@@Z:PROC ; icu_56::CharsetRecog_UTF_16_BE::match
EXTRN	??_ECharsetRecog_UTF_16_BE@icu_56@@UAEPAXI@Z:PROC ; icu_56::CharsetRecog_UTF_16_BE::`vector deleting destructor'
;	COMDAT ??_R2CharsetRecog_Unicode@icu_56@@8
rdata$r	SEGMENT
??_R2CharsetRecog_Unicode@icu_56@@8 DD FLAT:??_R1A@?0A@EA@CharsetRecog_Unicode@icu_56@@8 ; icu_56::CharsetRecog_Unicode::`RTTI Base Class Array'
	DD	FLAT:??_R1A@?0A@EA@CharsetRecognizer@icu_56@@8
	DD	FLAT:??_R13?0A@EA@UMemory@icu_56@@8
rdata$r	ENDS
;	COMDAT ??_R3CharsetRecog_Unicode@icu_56@@8
rdata$r	SEGMENT
??_R3CharsetRecog_Unicode@icu_56@@8 DD 00H		; icu_56::CharsetRecog_Unicode::`RTTI Class Hierarchy Descriptor'
	DD	00H
	DD	03H
	DD	FLAT:??_R2CharsetRecog_Unicode@icu_56@@8
rdata$r	ENDS
;	COMDAT ??_R0?AVCharsetRecog_Unicode@icu_56@@@8
_DATA	SEGMENT
??_R0?AVCharsetRecog_Unicode@icu_56@@@8 DD FLAT:??_7type_info@@6B@ ; icu_56::CharsetRecog_Unicode `RTTI Type Descriptor'
	DD	00H
	DB	'.?AVCharsetRecog_Unicode@icu_56@@', 00H
_DATA	ENDS
;	COMDAT ??_R1A@?0A@EA@CharsetRecog_Unicode@icu_56@@8
rdata$r	SEGMENT
??_R1A@?0A@EA@CharsetRecog_Unicode@icu_56@@8 DD FLAT:??_R0?AVCharsetRecog_Unicode@icu_56@@@8 ; icu_56::CharsetRecog_Unicode::`RTTI Base Class Descriptor at (0,-1,0,64)'
	DD	02H
	DD	00H
	DD	0ffffffffH
	DD	00H
	DD	040H
	DD	FLAT:??_R3CharsetRecog_Unicode@icu_56@@8
rdata$r	ENDS
;	COMDAT ??_R1A@?0A@EA@CharsetRecog_UTF_16_BE@icu_56@@8
rdata$r	SEGMENT
??_R1A@?0A@EA@CharsetRecog_UTF_16_BE@icu_56@@8 DD FLAT:??_R0?AVCharsetRecog_UTF_16_BE@icu_56@@@8 ; icu_56::CharsetRecog_UTF_16_BE::`RTTI Base Class Descriptor at (0,-1,0,64)'
	DD	03H
	DD	00H
	DD	0ffffffffH
	DD	00H
	DD	040H
	DD	FLAT:??_R3CharsetRecog_UTF_16_BE@icu_56@@8
rdata$r	ENDS
;	COMDAT ??_R2CharsetRecog_UTF_16_BE@icu_56@@8
rdata$r	SEGMENT
??_R2CharsetRecog_UTF_16_BE@icu_56@@8 DD FLAT:??_R1A@?0A@EA@CharsetRecog_UTF_16_BE@icu_56@@8 ; icu_56::CharsetRecog_UTF_16_BE::`RTTI Base Class Array'
	DD	FLAT:??_R1A@?0A@EA@CharsetRecog_Unicode@icu_56@@8
	DD	FLAT:??_R1A@?0A@EA@CharsetRecognizer@icu_56@@8
	DD	FLAT:??_R13?0A@EA@UMemory@icu_56@@8
rdata$r	ENDS
;	COMDAT ??_R3CharsetRecog_UTF_16_BE@icu_56@@8
rdata$r	SEGMENT
??_R3CharsetRecog_UTF_16_BE@icu_56@@8 DD 00H		; icu_56::CharsetRecog_UTF_16_BE::`RTTI Class Hierarchy Descriptor'
	DD	00H
	DD	04H
	DD	FLAT:??_R2CharsetRecog_UTF_16_BE@icu_56@@8
rdata$r	ENDS
;	COMDAT ??_R0?AVCharsetRecog_UTF_16_BE@icu_56@@@8
_DATA	SEGMENT
??_R0?AVCharsetRecog_UTF_16_BE@icu_56@@@8 DD FLAT:??_7type_info@@6B@ ; icu_56::CharsetRecog_UTF_16_BE `RTTI Type Descriptor'
	DD	00H
	DB	'.?AVCharsetRecog_UTF_16_BE@icu_56@@', 00H
_DATA	ENDS
;	COMDAT ??_R4CharsetRecog_UTF_16_BE@icu_56@@6B@
rdata$r	SEGMENT
??_R4CharsetRecog_UTF_16_BE@icu_56@@6B@ DD 00H		; icu_56::CharsetRecog_UTF_16_BE::`RTTI Complete Object Locator'
	DD	00H
	DD	00H
	DD	FLAT:??_R0?AVCharsetRecog_UTF_16_BE@icu_56@@@8
	DD	FLAT:??_R3CharsetRecog_UTF_16_BE@icu_56@@8
rdata$r	ENDS
;	COMDAT ??_7CharsetRecog_UTF_16_BE@icu_56@@6B@
CONST	SEGMENT
??_7CharsetRecog_UTF_16_BE@icu_56@@6B@ DD FLAT:??_R4CharsetRecog_UTF_16_BE@icu_56@@6B@ ; icu_56::CharsetRecog_UTF_16_BE::`vftable'
	DD	FLAT:?getName@CharsetRecog_UTF_16_BE@icu_56@@UBEPBDXZ
	DD	FLAT:?getLanguage@CharsetRecognizer@icu_56@@UBEPBDXZ
	DD	FLAT:?match@CharsetRecog_UTF_16_BE@icu_56@@UBECPAVInputText@2@PAVCharsetMatch@2@@Z
	DD	FLAT:??_ECharsetRecog_UTF_16_BE@icu_56@@UAEPAXI@Z
; Function compile flags: /Odtp /RTCsu /ZI
CONST	ENDS
;	COMDAT ??0CharsetRecog_UTF_16_BE@icu_56@@QAE@XZ
_TEXT	SEGMENT
_this$ = -8						; size = 4
??0CharsetRecog_UTF_16_BE@icu_56@@QAE@XZ PROC		; icu_56::CharsetRecog_UTF_16_BE::CharsetRecog_UTF_16_BE, COMDAT
; _this$ = ecx
	push	ebp
	mov	ebp, esp
	sub	esp, 204				; 000000ccH
	push	ebx
	push	esi
	push	edi
	push	ecx
	lea	edi, DWORD PTR [ebp-204]
	mov	ecx, 51					; 00000033H
	mov	eax, -858993460				; ccccccccH
	rep stosd
	pop	ecx
	mov	DWORD PTR _this$[ebp], ecx
	mov	ecx, DWORD PTR _this$[ebp]
	call	??0CharsetRecog_Unicode@icu_56@@QAE@XZ
	mov	eax, DWORD PTR _this$[ebp]
	mov	DWORD PTR [eax], OFFSET ??_7CharsetRecog_UTF_16_BE@icu_56@@6B@
	mov	eax, DWORD PTR _this$[ebp]
	pop	edi
	pop	esi
	pop	ebx
	add	esp, 204				; 000000ccH
	cmp	ebp, esp
	call	__RTC_CheckEsp
	mov	esp, ebp
	pop	ebp
	ret	0
??0CharsetRecog_UTF_16_BE@icu_56@@QAE@XZ ENDP		; icu_56::CharsetRecog_UTF_16_BE::CharsetRecog_UTF_16_BE
_TEXT	ENDS
PUBLIC	??_7CharsetRecog_UTF_16_LE@icu_56@@6B@		; icu_56::CharsetRecog_UTF_16_LE::`vftable'
PUBLIC	??_R4CharsetRecog_UTF_16_LE@icu_56@@6B@		; icu_56::CharsetRecog_UTF_16_LE::`RTTI Complete Object Locator'
PUBLIC	??_R0?AVCharsetRecog_UTF_16_LE@icu_56@@@8	; icu_56::CharsetRecog_UTF_16_LE `RTTI Type Descriptor'
PUBLIC	??_R3CharsetRecog_UTF_16_LE@icu_56@@8		; icu_56::CharsetRecog_UTF_16_LE::`RTTI Class Hierarchy Descriptor'
PUBLIC	??_R2CharsetRecog_UTF_16_LE@icu_56@@8		; icu_56::CharsetRecog_UTF_16_LE::`RTTI Base Class Array'
PUBLIC	??_R1A@?0A@EA@CharsetRecog_UTF_16_LE@icu_56@@8	; icu_56::CharsetRecog_UTF_16_LE::`RTTI Base Class Descriptor at (0,-1,0,64)'
EXTRN	?getName@CharsetRecog_UTF_16_LE@icu_56@@UBEPBDXZ:PROC ; icu_56::CharsetRecog_UTF_16_LE::getName
EXTRN	?match@CharsetRecog_UTF_16_LE@icu_56@@UBECPAVInputText@2@PAVCharsetMatch@2@@Z:PROC ; icu_56::CharsetRecog_UTF_16_LE::match
EXTRN	??_ECharsetRecog_UTF_16_LE@icu_56@@UAEPAXI@Z:PROC ; icu_56::CharsetRecog_UTF_16_LE::`vector deleting destructor'
;	COMDAT ??_R1A@?0A@EA@CharsetRecog_UTF_16_LE@icu_56@@8
rdata$r	SEGMENT
??_R1A@?0A@EA@CharsetRecog_UTF_16_LE@icu_56@@8 DD FLAT:??_R0?AVCharsetRecog_UTF_16_LE@icu_56@@@8 ; icu_56::CharsetRecog_UTF_16_LE::`RTTI Base Class Descriptor at (0,-1,0,64)'
	DD	03H
	DD	00H
	DD	0ffffffffH
	DD	00H
	DD	040H
	DD	FLAT:??_R3CharsetRecog_UTF_16_LE@icu_56@@8
rdata$r	ENDS
;	COMDAT ??_R2CharsetRecog_UTF_16_LE@icu_56@@8
rdata$r	SEGMENT
??_R2CharsetRecog_UTF_16_LE@icu_56@@8 DD FLAT:??_R1A@?0A@EA@CharsetRecog_UTF_16_LE@icu_56@@8 ; icu_56::CharsetRecog_UTF_16_LE::`RTTI Base Class Array'
	DD	FLAT:??_R1A@?0A@EA@CharsetRecog_Unicode@icu_56@@8
	DD	FLAT:??_R1A@?0A@EA@CharsetRecognizer@icu_56@@8
	DD	FLAT:??_R13?0A@EA@UMemory@icu_56@@8
rdata$r	ENDS
;	COMDAT ??_R3CharsetRecog_UTF_16_LE@icu_56@@8
rdata$r	SEGMENT
??_R3CharsetRecog_UTF_16_LE@icu_56@@8 DD 00H		; icu_56::CharsetRecog_UTF_16_LE::`RTTI Class Hierarchy Descriptor'
	DD	00H
	DD	04H
	DD	FLAT:??_R2CharsetRecog_UTF_16_LE@icu_56@@8
rdata$r	ENDS
;	COMDAT ??_R0?AVCharsetRecog_UTF_16_LE@icu_56@@@8
_DATA	SEGMENT
??_R0?AVCharsetRecog_UTF_16_LE@icu_56@@@8 DD FLAT:??_7type_info@@6B@ ; icu_56::CharsetRecog_UTF_16_LE `RTTI Type Descriptor'
	DD	00H
	DB	'.?AVCharsetRecog_UTF_16_LE@icu_56@@', 00H
_DATA	ENDS
;	COMDAT ??_R4CharsetRecog_UTF_16_LE@icu_56@@6B@
rdata$r	SEGMENT
??_R4CharsetRecog_UTF_16_LE@icu_56@@6B@ DD 00H		; icu_56::CharsetRecog_UTF_16_LE::`RTTI Complete Object Locator'
	DD	00H
	DD	00H
	DD	FLAT:??_R0?AVCharsetRecog_UTF_16_LE@icu_56@@@8
	DD	FLAT:??_R3CharsetRecog_UTF_16_LE@icu_56@@8
rdata$r	ENDS
;	COMDAT ??_7CharsetRecog_UTF_16_LE@icu_56@@6B@
CONST	SEGMENT
??_7CharsetRecog_UTF_16_LE@icu_56@@6B@ DD FLAT:??_R4CharsetRecog_UTF_16_LE@icu_56@@6B@ ; icu_56::CharsetRecog_UTF_16_LE::`vftable'
	DD	FLAT:?getName@CharsetRecog_UTF_16_LE@icu_56@@UBEPBDXZ
	DD	FLAT:?getLanguage@CharsetRecognizer@icu_56@@UBEPBDXZ
	DD	FLAT:?match@CharsetRecog_UTF_16_LE@icu_56@@UBECPAVInputText@2@PAVCharsetMatch@2@@Z
	DD	FLAT:??_ECharsetRecog_UTF_16_LE@icu_56@@UAEPAXI@Z
; Function compile flags: /Odtp /RTCsu /ZI
CONST	ENDS
;	COMDAT ??0CharsetRecog_UTF_16_LE@icu_56@@QAE@XZ
_TEXT	SEGMENT
_this$ = -8						; size = 4
??0CharsetRecog_UTF_16_LE@icu_56@@QAE@XZ PROC		; icu_56::CharsetRecog_UTF_16_LE::CharsetRecog_UTF_16_LE, COMDAT
; _this$ = ecx
	push	ebp
	mov	ebp, esp
	sub	esp, 204				; 000000ccH
	push	ebx
	push	esi
	push	edi
	push	ecx
	lea	edi, DWORD PTR [ebp-204]
	mov	ecx, 51					; 00000033H
	mov	eax, -858993460				; ccccccccH
	rep stosd
	pop	ecx
	mov	DWORD PTR _this$[ebp], ecx
	mov	ecx, DWORD PTR _this$[ebp]
	call	??0CharsetRecog_Unicode@icu_56@@QAE@XZ
	mov	eax, DWORD PTR _this$[ebp]
	mov	DWORD PTR [eax], OFFSET ??_7CharsetRecog_UTF_16_LE@icu_56@@6B@
	mov	eax, DWORD PTR _this$[ebp]
	pop	edi
	pop	esi
	pop	ebx
	add	esp, 204				; 000000ccH
	cmp	ebp, esp
	call	__RTC_CheckEsp
	mov	esp, ebp
	pop	ebp
	ret	0
??0CharsetRecog_UTF_16_LE@icu_56@@QAE@XZ ENDP		; icu_56::CharsetRecog_UTF_16_LE::CharsetRecog_UTF_16_LE
_TEXT	ENDS
PUBLIC	??_7CharsetRecog_UTF_32_BE@icu_56@@6B@		; icu_56::CharsetRecog_UTF_32_BE::`vftable'
PUBLIC	??0CharsetRecog_UTF_32@icu_56@@QAE@XZ		; icu_56::CharsetRecog_UTF_32::CharsetRecog_UTF_32
PUBLIC	??_R4CharsetRecog_UTF_32_BE@icu_56@@6B@		; icu_56::CharsetRecog_UTF_32_BE::`RTTI Complete Object Locator'
PUBLIC	??_R0?AVCharsetRecog_UTF_32_BE@icu_56@@@8	; icu_56::CharsetRecog_UTF_32_BE `RTTI Type Descriptor'
PUBLIC	??_R3CharsetRecog_UTF_32_BE@icu_56@@8		; icu_56::CharsetRecog_UTF_32_BE::`RTTI Class Hierarchy Descriptor'
PUBLIC	??_R2CharsetRecog_UTF_32_BE@icu_56@@8		; icu_56::CharsetRecog_UTF_32_BE::`RTTI Base Class Array'
PUBLIC	??_R1A@?0A@EA@CharsetRecog_UTF_32_BE@icu_56@@8	; icu_56::CharsetRecog_UTF_32_BE::`RTTI Base Class Descriptor at (0,-1,0,64)'
PUBLIC	??_R1A@?0A@EA@CharsetRecog_UTF_32@icu_56@@8	; icu_56::CharsetRecog_UTF_32::`RTTI Base Class Descriptor at (0,-1,0,64)'
PUBLIC	??_R0?AVCharsetRecog_UTF_32@icu_56@@@8		; icu_56::CharsetRecog_UTF_32 `RTTI Type Descriptor'
PUBLIC	??_R3CharsetRecog_UTF_32@icu_56@@8		; icu_56::CharsetRecog_UTF_32::`RTTI Class Hierarchy Descriptor'
PUBLIC	??_R2CharsetRecog_UTF_32@icu_56@@8		; icu_56::CharsetRecog_UTF_32::`RTTI Base Class Array'
EXTRN	?getName@CharsetRecog_UTF_32_BE@icu_56@@UBEPBDXZ:PROC ; icu_56::CharsetRecog_UTF_32_BE::getName
EXTRN	?match@CharsetRecog_UTF_32@icu_56@@UBECPAVInputText@2@PAVCharsetMatch@2@@Z:PROC ; icu_56::CharsetRecog_UTF_32::match
EXTRN	??_ECharsetRecog_UTF_32_BE@icu_56@@UAEPAXI@Z:PROC ; icu_56::CharsetRecog_UTF_32_BE::`vector deleting destructor'
EXTRN	?getChar@CharsetRecog_UTF_32_BE@icu_56@@MBEHPBEH@Z:PROC ; icu_56::CharsetRecog_UTF_32_BE::getChar
;	COMDAT ??_R2CharsetRecog_UTF_32@icu_56@@8
rdata$r	SEGMENT
??_R2CharsetRecog_UTF_32@icu_56@@8 DD FLAT:??_R1A@?0A@EA@CharsetRecog_UTF_32@icu_56@@8 ; icu_56::CharsetRecog_UTF_32::`RTTI Base Class Array'
	DD	FLAT:??_R1A@?0A@EA@CharsetRecog_Unicode@icu_56@@8
	DD	FLAT:??_R1A@?0A@EA@CharsetRecognizer@icu_56@@8
	DD	FLAT:??_R13?0A@EA@UMemory@icu_56@@8
rdata$r	ENDS
;	COMDAT ??_R3CharsetRecog_UTF_32@icu_56@@8
rdata$r	SEGMENT
??_R3CharsetRecog_UTF_32@icu_56@@8 DD 00H		; icu_56::CharsetRecog_UTF_32::`RTTI Class Hierarchy Descriptor'
	DD	00H
	DD	04H
	DD	FLAT:??_R2CharsetRecog_UTF_32@icu_56@@8
rdata$r	ENDS
;	COMDAT ??_R0?AVCharsetRecog_UTF_32@icu_56@@@8
_DATA	SEGMENT
??_R0?AVCharsetRecog_UTF_32@icu_56@@@8 DD FLAT:??_7type_info@@6B@ ; icu_56::CharsetRecog_UTF_32 `RTTI Type Descriptor'
	DD	00H
	DB	'.?AVCharsetRecog_UTF_32@icu_56@@', 00H
_DATA	ENDS
;	COMDAT ??_R1A@?0A@EA@CharsetRecog_UTF_32@icu_56@@8
rdata$r	SEGMENT
??_R1A@?0A@EA@CharsetRecog_UTF_32@icu_56@@8 DD FLAT:??_R0?AVCharsetRecog_UTF_32@icu_56@@@8 ; icu_56::CharsetRecog_UTF_32::`RTTI Base Class Descriptor at (0,-1,0,64)'
	DD	03H
	DD	00H
	DD	0ffffffffH
	DD	00H
	DD	040H
	DD	FLAT:??_R3CharsetRecog_UTF_32@icu_56@@8
rdata$r	ENDS
;	COMDAT ??_R1A@?0A@EA@CharsetRecog_UTF_32_BE@icu_56@@8
rdata$r	SEGMENT
??_R1A@?0A@EA@CharsetRecog_UTF_32_BE@icu_56@@8 DD FLAT:??_R0?AVCharsetRecog_UTF_32_BE@icu_56@@@8 ; icu_56::CharsetRecog_UTF_32_BE::`RTTI Base Class Descriptor at (0,-1,0,64)'
	DD	04H
	DD	00H
	DD	0ffffffffH
	DD	00H
	DD	040H
	DD	FLAT:??_R3CharsetRecog_UTF_32_BE@icu_56@@8
rdata$r	ENDS
;	COMDAT ??_R2CharsetRecog_UTF_32_BE@icu_56@@8
rdata$r	SEGMENT
??_R2CharsetRecog_UTF_32_BE@icu_56@@8 DD FLAT:??_R1A@?0A@EA@CharsetRecog_UTF_32_BE@icu_56@@8 ; icu_56::CharsetRecog_UTF_32_BE::`RTTI Base Class Array'
	DD	FLAT:??_R1A@?0A@EA@CharsetRecog_UTF_32@icu_56@@8
	DD	FLAT:??_R1A@?0A@EA@CharsetRecog_Unicode@icu_56@@8
	DD	FLAT:??_R1A@?0A@EA@CharsetRecognizer@icu_56@@8
	DD	FLAT:??_R13?0A@EA@UMemory@icu_56@@8
rdata$r	ENDS
;	COMDAT ??_R3CharsetRecog_UTF_32_BE@icu_56@@8
rdata$r	SEGMENT
??_R3CharsetRecog_UTF_32_BE@icu_56@@8 DD 00H		; icu_56::CharsetRecog_UTF_32_BE::`RTTI Class Hierarchy Descriptor'
	DD	00H
	DD	05H
	DD	FLAT:??_R2CharsetRecog_UTF_32_BE@icu_56@@8
rdata$r	ENDS
;	COMDAT ??_R0?AVCharsetRecog_UTF_32_BE@icu_56@@@8
_DATA	SEGMENT
??_R0?AVCharsetRecog_UTF_32_BE@icu_56@@@8 DD FLAT:??_7type_info@@6B@ ; icu_56::CharsetRecog_UTF_32_BE `RTTI Type Descriptor'
	DD	00H
	DB	'.?AVCharsetRecog_UTF_32_BE@icu_56@@', 00H
_DATA	ENDS
;	COMDAT ??_R4CharsetRecog_UTF_32_BE@icu_56@@6B@
rdata$r	SEGMENT
??_R4CharsetRecog_UTF_32_BE@icu_56@@6B@ DD 00H		; icu_56::CharsetRecog_UTF_32_BE::`RTTI Complete Object Locator'
	DD	00H
	DD	00H
	DD	FLAT:??_R0?AVCharsetRecog_UTF_32_BE@icu_56@@@8
	DD	FLAT:??_R3CharsetRecog_UTF_32_BE@icu_56@@8
rdata$r	ENDS
;	COMDAT ??_7CharsetRecog_UTF_32_BE@icu_56@@6B@
CONST	SEGMENT
??_7CharsetRecog_UTF_32_BE@icu_56@@6B@ DD FLAT:??_R4CharsetRecog_UTF_32_BE@icu_56@@6B@ ; icu_56::CharsetRecog_UTF_32_BE::`vftable'
	DD	FLAT:?getName@CharsetRecog_UTF_32_BE@icu_56@@UBEPBDXZ
	DD	FLAT:?getLanguage@CharsetRecognizer@icu_56@@UBEPBDXZ
	DD	FLAT:?match@CharsetRecog_UTF_32@icu_56@@UBECPAVInputText@2@PAVCharsetMatch@2@@Z
	DD	FLAT:??_ECharsetRecog_UTF_32_BE@icu_56@@UAEPAXI@Z
	DD	FLAT:?getChar@CharsetRecog_UTF_32_BE@icu_56@@MBEHPBEH@Z
; Function compile flags: /Odtp /RTCsu /ZI
CONST	ENDS
;	COMDAT ??0CharsetRecog_UTF_32_BE@icu_56@@QAE@XZ
_TEXT	SEGMENT
_this$ = -8						; size = 4
??0CharsetRecog_UTF_32_BE@icu_56@@QAE@XZ PROC		; icu_56::CharsetRecog_UTF_32_BE::CharsetRecog_UTF_32_BE, COMDAT
; _this$ = ecx
	push	ebp
	mov	ebp, esp
	sub	esp, 204				; 000000ccH
	push	ebx
	push	esi
	push	edi
	push	ecx
	lea	edi, DWORD PTR [ebp-204]
	mov	ecx, 51					; 00000033H
	mov	eax, -858993460				; ccccccccH
	rep stosd
	pop	ecx
	mov	DWORD PTR _this$[ebp], ecx
	mov	ecx, DWORD PTR _this$[ebp]
	call	??0CharsetRecog_UTF_32@icu_56@@QAE@XZ
	mov	eax, DWORD PTR _this$[ebp]
	mov	DWORD PTR [eax], OFFSET ??_7CharsetRecog_UTF_32_BE@icu_56@@6B@
	mov	eax, DWORD PTR _this$[ebp]
	pop	edi
	pop	esi
	pop	ebx
	add	esp, 204				; 000000ccH
	cmp	ebp, esp
	call	__RTC_CheckEsp
	mov	esp, ebp
	pop	ebp
	ret	0
??0CharsetRecog_UTF_32_BE@icu_56@@QAE@XZ ENDP		; icu_56::CharsetRecog_UTF_32_BE::CharsetRecog_UTF_32_BE
_TEXT	ENDS
PUBLIC	??_7CharsetRecog_UTF_32_LE@icu_56@@6B@		; icu_56::CharsetRecog_UTF_32_LE::`vftable'
PUBLIC	??_R4CharsetRecog_UTF_32_LE@icu_56@@6B@		; icu_56::CharsetRecog_UTF_32_LE::`RTTI Complete Object Locator'
PUBLIC	??_R0?AVCharsetRecog_UTF_32_LE@icu_56@@@8	; icu_56::CharsetRecog_UTF_32_LE `RTTI Type Descriptor'
PUBLIC	??_R3CharsetRecog_UTF_32_LE@icu_56@@8		; icu_56::CharsetRecog_UTF_32_LE::`RTTI Class Hierarchy Descriptor'
PUBLIC	??_R2CharsetRecog_UTF_32_LE@icu_56@@8		; icu_56::CharsetRecog_UTF_32_LE::`RTTI Base Class Array'
PUBLIC	??_R1A@?0A@EA@CharsetRecog_UTF_32_LE@icu_56@@8	; icu_56::CharsetRecog_UTF_32_LE::`RTTI Base Class Descriptor at (0,-1,0,64)'
EXTRN	?getName@CharsetRecog_UTF_32_LE@icu_56@@UBEPBDXZ:PROC ; icu_56::CharsetRecog_UTF_32_LE::getName
EXTRN	??_ECharsetRecog_UTF_32_LE@icu_56@@UAEPAXI@Z:PROC ; icu_56::CharsetRecog_UTF_32_LE::`vector deleting destructor'
EXTRN	?getChar@CharsetRecog_UTF_32_LE@icu_56@@MBEHPBEH@Z:PROC ; icu_56::CharsetRecog_UTF_32_LE::getChar
;	COMDAT ??_R1A@?0A@EA@CharsetRecog_UTF_32_LE@icu_56@@8
rdata$r	SEGMENT
??_R1A@?0A@EA@CharsetRecog_UTF_32_LE@icu_56@@8 DD FLAT:??_R0?AVCharsetRecog_UTF_32_LE@icu_56@@@8 ; icu_56::CharsetRecog_UTF_32_LE::`RTTI Base Class Descriptor at (0,-1,0,64)'
	DD	04H
	DD	00H
	DD	0ffffffffH
	DD	00H
	DD	040H
	DD	FLAT:??_R3CharsetRecog_UTF_32_LE@icu_56@@8
rdata$r	ENDS
;	COMDAT ??_R2CharsetRecog_UTF_32_LE@icu_56@@8
rdata$r	SEGMENT
??_R2CharsetRecog_UTF_32_LE@icu_56@@8 DD FLAT:??_R1A@?0A@EA@CharsetRecog_UTF_32_LE@icu_56@@8 ; icu_56::CharsetRecog_UTF_32_LE::`RTTI Base Class Array'
	DD	FLAT:??_R1A@?0A@EA@CharsetRecog_UTF_32@icu_56@@8
	DD	FLAT:??_R1A@?0A@EA@CharsetRecog_Unicode@icu_56@@8
	DD	FLAT:??_R1A@?0A@EA@CharsetRecognizer@icu_56@@8
	DD	FLAT:??_R13?0A@EA@UMemory@icu_56@@8
rdata$r	ENDS
;	COMDAT ??_R3CharsetRecog_UTF_32_LE@icu_56@@8
rdata$r	SEGMENT
??_R3CharsetRecog_UTF_32_LE@icu_56@@8 DD 00H		; icu_56::CharsetRecog_UTF_32_LE::`RTTI Class Hierarchy Descriptor'
	DD	00H
	DD	05H
	DD	FLAT:??_R2CharsetRecog_UTF_32_LE@icu_56@@8
rdata$r	ENDS
;	COMDAT ??_R0?AVCharsetRecog_UTF_32_LE@icu_56@@@8
_DATA	SEGMENT
??_R0?AVCharsetRecog_UTF_32_LE@icu_56@@@8 DD FLAT:??_7type_info@@6B@ ; icu_56::CharsetRecog_UTF_32_LE `RTTI Type Descriptor'
	DD	00H
	DB	'.?AVCharsetRecog_UTF_32_LE@icu_56@@', 00H
_DATA	ENDS
;	COMDAT ??_R4CharsetRecog_UTF_32_LE@icu_56@@6B@
rdata$r	SEGMENT
??_R4CharsetRecog_UTF_32_LE@icu_56@@6B@ DD 00H		; icu_56::CharsetRecog_UTF_32_LE::`RTTI Complete Object Locator'
	DD	00H
	DD	00H
	DD	FLAT:??_R0?AVCharsetRecog_UTF_32_LE@icu_56@@@8
	DD	FLAT:??_R3CharsetRecog_UTF_32_LE@icu_56@@8
rdata$r	ENDS
;	COMDAT ??_7CharsetRecog_UTF_32_LE@icu_56@@6B@
CONST	SEGMENT
??_7CharsetRecog_UTF_32_LE@icu_56@@6B@ DD FLAT:??_R4CharsetRecog_UTF_32_LE@icu_56@@6B@ ; icu_56::CharsetRecog_UTF_32_LE::`vftable'
	DD	FLAT:?getName@CharsetRecog_UTF_32_LE@icu_56@@UBEPBDXZ
	DD	FLAT:?getLanguage@CharsetRecognizer@icu_56@@UBEPBDXZ
	DD	FLAT:?match@CharsetRecog_UTF_32@icu_56@@UBECPAVInputText@2@PAVCharsetMatch@2@@Z
	DD	FLAT:??_ECharsetRecog_UTF_32_LE@icu_56@@UAEPAXI@Z
	DD	FLAT:?getChar@CharsetRecog_UTF_32_LE@icu_56@@MBEHPBEH@Z
; Function compile flags: /Odtp /RTCsu /ZI
CONST	ENDS
;	COMDAT ??0CharsetRecog_UTF_32_LE@icu_56@@QAE@XZ
_TEXT	SEGMENT
_this$ = -8						; size = 4
??0CharsetRecog_UTF_32_LE@icu_56@@QAE@XZ PROC		; icu_56::CharsetRecog_UTF_32_LE::CharsetRecog_UTF_32_LE, COMDAT
; _this$ = ecx
	push	ebp
	mov	ebp, esp
	sub	esp, 204				; 000000ccH
	push	ebx
	push	esi
	push	edi
	push	ecx
	lea	edi, DWORD PTR [ebp-204]
	mov	ecx, 51					; 00000033H
	mov	eax, -858993460				; ccccccccH
	rep stosd
	pop	ecx
	mov	DWORD PTR _this$[ebp], ecx
	mov	ecx, DWORD PTR _this$[ebp]
	call	??0CharsetRecog_UTF_32@icu_56@@QAE@XZ
	mov	eax, DWORD PTR _this$[ebp]
	mov	DWORD PTR [eax], OFFSET ??_7CharsetRecog_UTF_32_LE@icu_56@@6B@
	mov	eax, DWORD PTR _this$[ebp]
	pop	edi
	pop	esi
	pop	ebx
	add	esp, 204				; 000000ccH
	cmp	ebp, esp
	call	__RTC_CheckEsp
	mov	esp, ebp
	pop	ebp
	ret	0
??0CharsetRecog_UTF_32_LE@icu_56@@QAE@XZ ENDP		; icu_56::CharsetRecog_UTF_32_LE::CharsetRecog_UTF_32_LE
_TEXT	ENDS
PUBLIC	??_7CharsetRecog_8859_1@icu_56@@6B@		; icu_56::CharsetRecog_8859_1::`vftable'
PUBLIC	??_R4CharsetRecog_8859_1@icu_56@@6B@		; icu_56::CharsetRecog_8859_1::`RTTI Complete Object Locator'
PUBLIC	??_R0?AVCharsetRecog_8859_1@icu_56@@@8		; icu_56::CharsetRecog_8859_1 `RTTI Type Descriptor'
PUBLIC	??_R3CharsetRecog_8859_1@icu_56@@8		; icu_56::CharsetRecog_8859_1::`RTTI Class Hierarchy Descriptor'
PUBLIC	??_R2CharsetRecog_8859_1@icu_56@@8		; icu_56::CharsetRecog_8859_1::`RTTI Base Class Array'
PUBLIC	??_R1A@?0A@EA@CharsetRecog_8859_1@icu_56@@8	; icu_56::CharsetRecog_8859_1::`RTTI Base Class Descriptor at (0,-1,0,64)'
PUBLIC	??_R1A@?0A@EA@CharsetRecog_sbcs@icu_56@@8	; icu_56::CharsetRecog_sbcs::`RTTI Base Class Descriptor at (0,-1,0,64)'
PUBLIC	??_R0?AVCharsetRecog_sbcs@icu_56@@@8		; icu_56::CharsetRecog_sbcs `RTTI Type Descriptor'
PUBLIC	??_R3CharsetRecog_sbcs@icu_56@@8		; icu_56::CharsetRecog_sbcs::`RTTI Class Hierarchy Descriptor'
PUBLIC	??_R2CharsetRecog_sbcs@icu_56@@8		; icu_56::CharsetRecog_sbcs::`RTTI Base Class Array'
EXTRN	??0CharsetRecog_sbcs@icu_56@@QAE@XZ:PROC	; icu_56::CharsetRecog_sbcs::CharsetRecog_sbcs
EXTRN	?getName@CharsetRecog_8859_1@icu_56@@UBEPBDXZ:PROC ; icu_56::CharsetRecog_8859_1::getName
EXTRN	?match@CharsetRecog_8859_1@icu_56@@UBECPAVInputText@2@PAVCharsetMatch@2@@Z:PROC ; icu_56::CharsetRecog_8859_1::match
EXTRN	??_ECharsetRecog_8859_1@icu_56@@UAEPAXI@Z:PROC	; icu_56::CharsetRecog_8859_1::`vector deleting destructor'
EXTRN	?match_sbcs@CharsetRecog_sbcs@icu_56@@UBEHPAVInputText@2@QBHQBE@Z:PROC ; icu_56::CharsetRecog_sbcs::match_sbcs
;	COMDAT ??_R2CharsetRecog_sbcs@icu_56@@8
rdata$r	SEGMENT
??_R2CharsetRecog_sbcs@icu_56@@8 DD FLAT:??_R1A@?0A@EA@CharsetRecog_sbcs@icu_56@@8 ; icu_56::CharsetRecog_sbcs::`RTTI Base Class Array'
	DD	FLAT:??_R1A@?0A@EA@CharsetRecognizer@icu_56@@8
	DD	FLAT:??_R13?0A@EA@UMemory@icu_56@@8
rdata$r	ENDS
;	COMDAT ??_R3CharsetRecog_sbcs@icu_56@@8
rdata$r	SEGMENT
??_R3CharsetRecog_sbcs@icu_56@@8 DD 00H			; icu_56::CharsetRecog_sbcs::`RTTI Class Hierarchy Descriptor'
	DD	00H
	DD	03H
	DD	FLAT:??_R2CharsetRecog_sbcs@icu_56@@8
rdata$r	ENDS
;	COMDAT ??_R0?AVCharsetRecog_sbcs@icu_56@@@8
_DATA	SEGMENT
??_R0?AVCharsetRecog_sbcs@icu_56@@@8 DD FLAT:??_7type_info@@6B@ ; icu_56::CharsetRecog_sbcs `RTTI Type Descriptor'
	DD	00H
	DB	'.?AVCharsetRecog_sbcs@icu_56@@', 00H
_DATA	ENDS
;	COMDAT ??_R1A@?0A@EA@CharsetRecog_sbcs@icu_56@@8
rdata$r	SEGMENT
??_R1A@?0A@EA@CharsetRecog_sbcs@icu_56@@8 DD FLAT:??_R0?AVCharsetRecog_sbcs@icu_56@@@8 ; icu_56::CharsetRecog_sbcs::`RTTI Base Class Descriptor at (0,-1,0,64)'
	DD	02H
	DD	00H
	DD	0ffffffffH
	DD	00H
	DD	040H
	DD	FLAT:??_R3CharsetRecog_sbcs@icu_56@@8
rdata$r	ENDS
;	COMDAT ??_R1A@?0A@EA@CharsetRecog_8859_1@icu_56@@8
rdata$r	SEGMENT
??_R1A@?0A@EA@CharsetRecog_8859_1@icu_56@@8 DD FLAT:??_R0?AVCharsetRecog_8859_1@icu_56@@@8 ; icu_56::CharsetRecog_8859_1::`RTTI Base Class Descriptor at (0,-1,0,64)'
	DD	03H
	DD	00H
	DD	0ffffffffH
	DD	00H
	DD	040H
	DD	FLAT:??_R3CharsetRecog_8859_1@icu_56@@8
rdata$r	ENDS
;	COMDAT ??_R2CharsetRecog_8859_1@icu_56@@8
rdata$r	SEGMENT
??_R2CharsetRecog_8859_1@icu_56@@8 DD FLAT:??_R1A@?0A@EA@CharsetRecog_8859_1@icu_56@@8 ; icu_56::CharsetRecog_8859_1::`RTTI Base Class Array'
	DD	FLAT:??_R1A@?0A@EA@CharsetRecog_sbcs@icu_56@@8
	DD	FLAT:??_R1A@?0A@EA@CharsetRecognizer@icu_56@@8
	DD	FLAT:??_R13?0A@EA@UMemory@icu_56@@8
rdata$r	ENDS
;	COMDAT ??_R3CharsetRecog_8859_1@icu_56@@8
rdata$r	SEGMENT
??_R3CharsetRecog_8859_1@icu_56@@8 DD 00H		; icu_56::CharsetRecog_8859_1::`RTTI Class Hierarchy Descriptor'
	DD	00H
	DD	04H
	DD	FLAT:??_R2CharsetRecog_8859_1@icu_56@@8
rdata$r	ENDS
;	COMDAT ??_R0?AVCharsetRecog_8859_1@icu_56@@@8
_DATA	SEGMENT
??_R0?AVCharsetRecog_8859_1@icu_56@@@8 DD FLAT:??_7type_info@@6B@ ; icu_56::CharsetRecog_8859_1 `RTTI Type Descriptor'
	DD	00H
	DB	'.?AVCharsetRecog_8859_1@icu_56@@', 00H
_DATA	ENDS
;	COMDAT ??_R4CharsetRecog_8859_1@icu_56@@6B@
rdata$r	SEGMENT
??_R4CharsetRecog_8859_1@icu_56@@6B@ DD 00H		; icu_56::CharsetRecog_8859_1::`RTTI Complete Object Locator'
	DD	00H
	DD	00H
	DD	FLAT:??_R0?AVCharsetRecog_8859_1@icu_56@@@8
	DD	FLAT:??_R3CharsetRecog_8859_1@icu_56@@8
rdata$r	ENDS
;	COMDAT ??_7CharsetRecog_8859_1@icu_56@@6B@
CONST	SEGMENT
??_7CharsetRecog_8859_1@icu_56@@6B@ DD FLAT:??_R4CharsetRecog_8859_1@icu_56@@6B@ ; icu_56::CharsetRecog_8859_1::`vftable'
	DD	FLAT:?getName@CharsetRecog_8859_1@icu_56@@UBEPBDXZ
	DD	FLAT:?getLanguage@CharsetRecognizer@icu_56@@UBEPBDXZ
	DD	FLAT:?match@CharsetRecog_8859_1@icu_56@@UBECPAVInputText@2@PAVCharsetMatch@2@@Z
	DD	FLAT:??_ECharsetRecog_8859_1@icu_56@@UAEPAXI@Z
	DD	FLAT:?match_sbcs@CharsetRecog_sbcs@icu_56@@UBEHPAVInputText@2@QBHQBE@Z
; Function compile flags: /Odtp /RTCsu /ZI
CONST	ENDS
;	COMDAT ??0CharsetRecog_8859_1@icu_56@@QAE@XZ
_TEXT	SEGMENT
_this$ = -8						; size = 4
??0CharsetRecog_8859_1@icu_56@@QAE@XZ PROC		; icu_56::CharsetRecog_8859_1::CharsetRecog_8859_1, COMDAT
; _this$ = ecx
	push	ebp
	mov	ebp, esp
	sub	esp, 204				; 000000ccH
	push	ebx
	push	esi
	push	edi
	push	ecx
	lea	edi, DWORD PTR [ebp-204]
	mov	ecx, 51					; 00000033H
	mov	eax, -858993460				; ccccccccH
	rep stosd
	pop	ecx
	mov	DWORD PTR _this$[ebp], ecx
	mov	ecx, DWORD PTR _this$[ebp]
	call	??0CharsetRecog_sbcs@icu_56@@QAE@XZ	; icu_56::CharsetRecog_sbcs::CharsetRecog_sbcs
	mov	eax, DWORD PTR _this$[ebp]
	mov	DWORD PTR [eax], OFFSET ??_7CharsetRecog_8859_1@icu_56@@6B@
	mov	eax, DWORD PTR _this$[ebp]
	pop	edi
	pop	esi
	pop	ebx
	add	esp, 204				; 000000ccH
	cmp	ebp, esp
	call	__RTC_CheckEsp
	mov	esp, ebp
	pop	ebp
	ret	0
??0CharsetRecog_8859_1@icu_56@@QAE@XZ ENDP		; icu_56::CharsetRecog_8859_1::CharsetRecog_8859_1
_TEXT	ENDS
PUBLIC	??_7CharsetRecog_8859_2@icu_56@@6B@		; icu_56::CharsetRecog_8859_2::`vftable'
PUBLIC	??_R4CharsetRecog_8859_2@icu_56@@6B@		; icu_56::CharsetRecog_8859_2::`RTTI Complete Object Locator'
PUBLIC	??_R0?AVCharsetRecog_8859_2@icu_56@@@8		; icu_56::CharsetRecog_8859_2 `RTTI Type Descriptor'
PUBLIC	??_R3CharsetRecog_8859_2@icu_56@@8		; icu_56::CharsetRecog_8859_2::`RTTI Class Hierarchy Descriptor'
PUBLIC	??_R2CharsetRecog_8859_2@icu_56@@8		; icu_56::CharsetRecog_8859_2::`RTTI Base Class Array'
PUBLIC	??_R1A@?0A@EA@CharsetRecog_8859_2@icu_56@@8	; icu_56::CharsetRecog_8859_2::`RTTI Base Class Descriptor at (0,-1,0,64)'
EXTRN	?getName@CharsetRecog_8859_2@icu_56@@UBEPBDXZ:PROC ; icu_56::CharsetRecog_8859_2::getName
EXTRN	?match@CharsetRecog_8859_2@icu_56@@UBECPAVInputText@2@PAVCharsetMatch@2@@Z:PROC ; icu_56::CharsetRecog_8859_2::match
EXTRN	??_ECharsetRecog_8859_2@icu_56@@UAEPAXI@Z:PROC	; icu_56::CharsetRecog_8859_2::`vector deleting destructor'
;	COMDAT ??_R1A@?0A@EA@CharsetRecog_8859_2@icu_56@@8
rdata$r	SEGMENT
??_R1A@?0A@EA@CharsetRecog_8859_2@icu_56@@8 DD FLAT:??_R0?AVCharsetRecog_8859_2@icu_56@@@8 ; icu_56::CharsetRecog_8859_2::`RTTI Base Class Descriptor at (0,-1,0,64)'
	DD	03H
	DD	00H
	DD	0ffffffffH
	DD	00H
	DD	040H
	DD	FLAT:??_R3CharsetRecog_8859_2@icu_56@@8
rdata$r	ENDS
;	COMDAT ??_R2CharsetRecog_8859_2@icu_56@@8
rdata$r	SEGMENT
??_R2CharsetRecog_8859_2@icu_56@@8 DD FLAT:??_R1A@?0A@EA@CharsetRecog_8859_2@icu_56@@8 ; icu_56::CharsetRecog_8859_2::`RTTI Base Class Array'
	DD	FLAT:??_R1A@?0A@EA@CharsetRecog_sbcs@icu_56@@8
	DD	FLAT:??_R1A@?0A@EA@CharsetRecognizer@icu_56@@8
	DD	FLAT:??_R13?0A@EA@UMemory@icu_56@@8
rdata$r	ENDS
;	COMDAT ??_R3CharsetRecog_8859_2@icu_56@@8
rdata$r	SEGMENT
??_R3CharsetRecog_8859_2@icu_56@@8 DD 00H		; icu_56::CharsetRecog_8859_2::`RTTI Class Hierarchy Descriptor'
	DD	00H
	DD	04H
	DD	FLAT:??_R2CharsetRecog_8859_2@icu_56@@8
rdata$r	ENDS
;	COMDAT ??_R0?AVCharsetRecog_8859_2@icu_56@@@8
_DATA	SEGMENT
??_R0?AVCharsetRecog_8859_2@icu_56@@@8 DD FLAT:??_7type_info@@6B@ ; icu_56::CharsetRecog_8859_2 `RTTI Type Descriptor'
	DD	00H
	DB	'.?AVCharsetRecog_8859_2@icu_56@@', 00H
_DATA	ENDS
;	COMDAT ??_R4CharsetRecog_8859_2@icu_56@@6B@
rdata$r	SEGMENT
??_R4CharsetRecog_8859_2@icu_56@@6B@ DD 00H		; icu_56::CharsetRecog_8859_2::`RTTI Complete Object Locator'
	DD	00H
	DD	00H
	DD	FLAT:??_R0?AVCharsetRecog_8859_2@icu_56@@@8
	DD	FLAT:??_R3CharsetRecog_8859_2@icu_56@@8
rdata$r	ENDS
;	COMDAT ??_7CharsetRecog_8859_2@icu_56@@6B@
CONST	SEGMENT
??_7CharsetRecog_8859_2@icu_56@@6B@ DD FLAT:??_R4CharsetRecog_8859_2@icu_56@@6B@ ; icu_56::CharsetRecog_8859_2::`vftable'
	DD	FLAT:?getName@CharsetRecog_8859_2@icu_56@@UBEPBDXZ
	DD	FLAT:?getLanguage@CharsetRecognizer@icu_56@@UBEPBDXZ
	DD	FLAT:?match@CharsetRecog_8859_2@icu_56@@UBECPAVInputText@2@PAVCharsetMatch@2@@Z
	DD	FLAT:??_ECharsetRecog_8859_2@icu_56@@UAEPAXI@Z
	DD	FLAT:?match_sbcs@CharsetRecog_sbcs@icu_56@@UBEHPAVInputText@2@QBHQBE@Z
; Function compile flags: /Odtp /RTCsu /ZI
CONST	ENDS
;	COMDAT ??0CharsetRecog_8859_2@icu_56@@QAE@XZ
_TEXT	SEGMENT
_this$ = -8						; size = 4
??0CharsetRecog_8859_2@icu_56@@QAE@XZ PROC		; icu_56::CharsetRecog_8859_2::CharsetRecog_8859_2, COMDAT
; _this$ = ecx
	push	ebp
	mov	ebp, esp
	sub	esp, 204				; 000000ccH
	push	ebx
	push	esi
	push	edi
	push	ecx
	lea	edi, DWORD PTR [ebp-204]
	mov	ecx, 51					; 00000033H
	mov	eax, -858993460				; ccccccccH
	rep stosd
	pop	ecx
	mov	DWORD PTR _this$[ebp], ecx
	mov	ecx, DWORD PTR _this$[ebp]
	call	??0CharsetRecog_sbcs@icu_56@@QAE@XZ	; icu_56::CharsetRecog_sbcs::CharsetRecog_sbcs
	mov	eax, DWORD PTR _this$[ebp]
	mov	DWORD PTR [eax], OFFSET ??_7CharsetRecog_8859_2@icu_56@@6B@
	mov	eax, DWORD PTR _this$[ebp]
	pop	edi
	pop	esi
	pop	ebx
	add	esp, 204				; 000000ccH
	cmp	ebp, esp
	call	__RTC_CheckEsp
	mov	esp, ebp
	pop	ebp
	ret	0
??0CharsetRecog_8859_2@icu_56@@QAE@XZ ENDP		; icu_56::CharsetRecog_8859_2::CharsetRecog_8859_2
_TEXT	ENDS
PUBLIC	??_7CharsetRecog_8859_5_ru@icu_56@@6B@		; icu_56::CharsetRecog_8859_5_ru::`vftable'
PUBLIC	??0CharsetRecog_8859_5@icu_56@@QAE@XZ		; icu_56::CharsetRecog_8859_5::CharsetRecog_8859_5
PUBLIC	??_R4CharsetRecog_8859_5_ru@icu_56@@6B@		; icu_56::CharsetRecog_8859_5_ru::`RTTI Complete Object Locator'
PUBLIC	??_R0?AVCharsetRecog_8859_5_ru@icu_56@@@8	; icu_56::CharsetRecog_8859_5_ru `RTTI Type Descriptor'
PUBLIC	??_R3CharsetRecog_8859_5_ru@icu_56@@8		; icu_56::CharsetRecog_8859_5_ru::`RTTI Class Hierarchy Descriptor'
PUBLIC	??_R2CharsetRecog_8859_5_ru@icu_56@@8		; icu_56::CharsetRecog_8859_5_ru::`RTTI Base Class Array'
PUBLIC	??_R1A@?0A@EA@CharsetRecog_8859_5_ru@icu_56@@8	; icu_56::CharsetRecog_8859_5_ru::`RTTI Base Class Descriptor at (0,-1,0,64)'
PUBLIC	??_R1A@?0A@EA@CharsetRecog_8859_5@icu_56@@8	; icu_56::CharsetRecog_8859_5::`RTTI Base Class Descriptor at (0,-1,0,64)'
PUBLIC	??_R0?AVCharsetRecog_8859_5@icu_56@@@8		; icu_56::CharsetRecog_8859_5 `RTTI Type Descriptor'
PUBLIC	??_R3CharsetRecog_8859_5@icu_56@@8		; icu_56::CharsetRecog_8859_5::`RTTI Class Hierarchy Descriptor'
PUBLIC	??_R2CharsetRecog_8859_5@icu_56@@8		; icu_56::CharsetRecog_8859_5::`RTTI Base Class Array'
EXTRN	?getName@CharsetRecog_8859_5@icu_56@@UBEPBDXZ:PROC ; icu_56::CharsetRecog_8859_5::getName
EXTRN	?getLanguage@CharsetRecog_8859_5_ru@icu_56@@UBEPBDXZ:PROC ; icu_56::CharsetRecog_8859_5_ru::getLanguage
EXTRN	?match@CharsetRecog_8859_5_ru@icu_56@@UBECPAVInputText@2@PAVCharsetMatch@2@@Z:PROC ; icu_56::CharsetRecog_8859_5_ru::match
EXTRN	??_ECharsetRecog_8859_5_ru@icu_56@@UAEPAXI@Z:PROC ; icu_56::CharsetRecog_8859_5_ru::`vector deleting destructor'
;	COMDAT ??_R2CharsetRecog_8859_5@icu_56@@8
rdata$r	SEGMENT
??_R2CharsetRecog_8859_5@icu_56@@8 DD FLAT:??_R1A@?0A@EA@CharsetRecog_8859_5@icu_56@@8 ; icu_56::CharsetRecog_8859_5::`RTTI Base Class Array'
	DD	FLAT:??_R1A@?0A@EA@CharsetRecog_sbcs@icu_56@@8
	DD	FLAT:??_R1A@?0A@EA@CharsetRecognizer@icu_56@@8
	DD	FLAT:??_R13?0A@EA@UMemory@icu_56@@8
rdata$r	ENDS
;	COMDAT ??_R3CharsetRecog_8859_5@icu_56@@8
rdata$r	SEGMENT
??_R3CharsetRecog_8859_5@icu_56@@8 DD 00H		; icu_56::CharsetRecog_8859_5::`RTTI Class Hierarchy Descriptor'
	DD	00H
	DD	04H
	DD	FLAT:??_R2CharsetRecog_8859_5@icu_56@@8
rdata$r	ENDS
;	COMDAT ??_R0?AVCharsetRecog_8859_5@icu_56@@@8
_DATA	SEGMENT
??_R0?AVCharsetRecog_8859_5@icu_56@@@8 DD FLAT:??_7type_info@@6B@ ; icu_56::CharsetRecog_8859_5 `RTTI Type Descriptor'
	DD	00H
	DB	'.?AVCharsetRecog_8859_5@icu_56@@', 00H
_DATA	ENDS
;	COMDAT ??_R1A@?0A@EA@CharsetRecog_8859_5@icu_56@@8
rdata$r	SEGMENT
??_R1A@?0A@EA@CharsetRecog_8859_5@icu_56@@8 DD FLAT:??_R0?AVCharsetRecog_8859_5@icu_56@@@8 ; icu_56::CharsetRecog_8859_5::`RTTI Base Class Descriptor at (0,-1,0,64)'
	DD	03H
	DD	00H
	DD	0ffffffffH
	DD	00H
	DD	040H
	DD	FLAT:??_R3CharsetRecog_8859_5@icu_56@@8
rdata$r	ENDS
;	COMDAT ??_R1A@?0A@EA@CharsetRecog_8859_5_ru@icu_56@@8
rdata$r	SEGMENT
??_R1A@?0A@EA@CharsetRecog_8859_5_ru@icu_56@@8 DD FLAT:??_R0?AVCharsetRecog_8859_5_ru@icu_56@@@8 ; icu_56::CharsetRecog_8859_5_ru::`RTTI Base Class Descriptor at (0,-1,0,64)'
	DD	04H
	DD	00H
	DD	0ffffffffH
	DD	00H
	DD	040H
	DD	FLAT:??_R3CharsetRecog_8859_5_ru@icu_56@@8
rdata$r	ENDS
;	COMDAT ??_R2CharsetRecog_8859_5_ru@icu_56@@8
rdata$r	SEGMENT
??_R2CharsetRecog_8859_5_ru@icu_56@@8 DD FLAT:??_R1A@?0A@EA@CharsetRecog_8859_5_ru@icu_56@@8 ; icu_56::CharsetRecog_8859_5_ru::`RTTI Base Class Array'
	DD	FLAT:??_R1A@?0A@EA@CharsetRecog_8859_5@icu_56@@8
	DD	FLAT:??_R1A@?0A@EA@CharsetRecog_sbcs@icu_56@@8
	DD	FLAT:??_R1A@?0A@EA@CharsetRecognizer@icu_56@@8
	DD	FLAT:??_R13?0A@EA@UMemory@icu_56@@8
rdata$r	ENDS
;	COMDAT ??_R3CharsetRecog_8859_5_ru@icu_56@@8
rdata$r	SEGMENT
??_R3CharsetRecog_8859_5_ru@icu_56@@8 DD 00H		; icu_56::CharsetRecog_8859_5_ru::`RTTI Class Hierarchy Descriptor'
	DD	00H
	DD	05H
	DD	FLAT:??_R2CharsetRecog_8859_5_ru@icu_56@@8
rdata$r	ENDS
;	COMDAT ??_R0?AVCharsetRecog_8859_5_ru@icu_56@@@8
_DATA	SEGMENT
??_R0?AVCharsetRecog_8859_5_ru@icu_56@@@8 DD FLAT:??_7type_info@@6B@ ; icu_56::CharsetRecog_8859_5_ru `RTTI Type Descriptor'
	DD	00H
	DB	'.?AVCharsetRecog_8859_5_ru@icu_56@@', 00H
_DATA	ENDS
;	COMDAT ??_R4CharsetRecog_8859_5_ru@icu_56@@6B@
rdata$r	SEGMENT
??_R4CharsetRecog_8859_5_ru@icu_56@@6B@ DD 00H		; icu_56::CharsetRecog_8859_5_ru::`RTTI Complete Object Locator'
	DD	00H
	DD	00H
	DD	FLAT:??_R0?AVCharsetRecog_8859_5_ru@icu_56@@@8
	DD	FLAT:??_R3CharsetRecog_8859_5_ru@icu_56@@8
rdata$r	ENDS
;	COMDAT ??_7CharsetRecog_8859_5_ru@icu_56@@6B@
CONST	SEGMENT
??_7CharsetRecog_8859_5_ru@icu_56@@6B@ DD FLAT:??_R4CharsetRecog_8859_5_ru@icu_56@@6B@ ; icu_56::CharsetRecog_8859_5_ru::`vftable'
	DD	FLAT:?getName@CharsetRecog_8859_5@icu_56@@UBEPBDXZ
	DD	FLAT:?getLanguage@CharsetRecog_8859_5_ru@icu_56@@UBEPBDXZ
	DD	FLAT:?match@CharsetRecog_8859_5_ru@icu_56@@UBECPAVInputText@2@PAVCharsetMatch@2@@Z
	DD	FLAT:??_ECharsetRecog_8859_5_ru@icu_56@@UAEPAXI@Z
	DD	FLAT:?match_sbcs@CharsetRecog_sbcs@icu_56@@UBEHPAVInputText@2@QBHQBE@Z
; Function compile flags: /Odtp /RTCsu /ZI
CONST	ENDS
;	COMDAT ??0CharsetRecog_8859_5_ru@icu_56@@QAE@XZ
_TEXT	SEGMENT
_this$ = -8						; size = 4
??0CharsetRecog_8859_5_ru@icu_56@@QAE@XZ PROC		; icu_56::CharsetRecog_8859_5_ru::CharsetRecog_8859_5_ru, COMDAT
; _this$ = ecx
	push	ebp
	mov	ebp, esp
	sub	esp, 204				; 000000ccH
	push	ebx
	push	esi
	push	edi
	push	ecx
	lea	edi, DWORD PTR [ebp-204]
	mov	ecx, 51					; 00000033H
	mov	eax, -858993460				; ccccccccH
	rep stosd
	pop	ecx
	mov	DWORD PTR _this$[ebp], ecx
	mov	ecx, DWORD PTR _this$[ebp]
	call	??0CharsetRecog_8859_5@icu_56@@QAE@XZ
	mov	eax, DWORD PTR _this$[ebp]
	mov	DWORD PTR [eax], OFFSET ??_7CharsetRecog_8859_5_ru@icu_56@@6B@
	mov	eax, DWORD PTR _this$[ebp]
	pop	edi
	pop	esi
	pop	ebx
	add	esp, 204				; 000000ccH
	cmp	ebp, esp
	call	__RTC_CheckEsp
	mov	esp, ebp
	pop	ebp
	ret	0
??0CharsetRecog_8859_5_ru@icu_56@@QAE@XZ ENDP		; icu_56::CharsetRecog_8859_5_ru::CharsetRecog_8859_5_ru
_TEXT	ENDS
PUBLIC	??_7CharsetRecog_8859_6_ar@icu_56@@6B@		; icu_56::CharsetRecog_8859_6_ar::`vftable'
PUBLIC	??0CharsetRecog_8859_6@icu_56@@QAE@XZ		; icu_56::CharsetRecog_8859_6::CharsetRecog_8859_6
PUBLIC	??_R4CharsetRecog_8859_6_ar@icu_56@@6B@		; icu_56::CharsetRecog_8859_6_ar::`RTTI Complete Object Locator'
PUBLIC	??_R0?AVCharsetRecog_8859_6_ar@icu_56@@@8	; icu_56::CharsetRecog_8859_6_ar `RTTI Type Descriptor'
PUBLIC	??_R3CharsetRecog_8859_6_ar@icu_56@@8		; icu_56::CharsetRecog_8859_6_ar::`RTTI Class Hierarchy Descriptor'
PUBLIC	??_R2CharsetRecog_8859_6_ar@icu_56@@8		; icu_56::CharsetRecog_8859_6_ar::`RTTI Base Class Array'
PUBLIC	??_R1A@?0A@EA@CharsetRecog_8859_6_ar@icu_56@@8	; icu_56::CharsetRecog_8859_6_ar::`RTTI Base Class Descriptor at (0,-1,0,64)'
PUBLIC	??_R1A@?0A@EA@CharsetRecog_8859_6@icu_56@@8	; icu_56::CharsetRecog_8859_6::`RTTI Base Class Descriptor at (0,-1,0,64)'
PUBLIC	??_R0?AVCharsetRecog_8859_6@icu_56@@@8		; icu_56::CharsetRecog_8859_6 `RTTI Type Descriptor'
PUBLIC	??_R3CharsetRecog_8859_6@icu_56@@8		; icu_56::CharsetRecog_8859_6::`RTTI Class Hierarchy Descriptor'
PUBLIC	??_R2CharsetRecog_8859_6@icu_56@@8		; icu_56::CharsetRecog_8859_6::`RTTI Base Class Array'
EXTRN	?getName@CharsetRecog_8859_6@icu_56@@UBEPBDXZ:PROC ; icu_56::CharsetRecog_8859_6::getName
EXTRN	?getLanguage@CharsetRecog_8859_6_ar@icu_56@@UBEPBDXZ:PROC ; icu_56::CharsetRecog_8859_6_ar::getLanguage
EXTRN	?match@CharsetRecog_8859_6_ar@icu_56@@UBECPAVInputText@2@PAVCharsetMatch@2@@Z:PROC ; icu_56::CharsetRecog_8859_6_ar::match
EXTRN	??_ECharsetRecog_8859_6_ar@icu_56@@UAEPAXI@Z:PROC ; icu_56::CharsetRecog_8859_6_ar::`vector deleting destructor'
;	COMDAT ??_R2CharsetRecog_8859_6@icu_56@@8
rdata$r	SEGMENT
??_R2CharsetRecog_8859_6@icu_56@@8 DD FLAT:??_R1A@?0A@EA@CharsetRecog_8859_6@icu_56@@8 ; icu_56::CharsetRecog_8859_6::`RTTI Base Class Array'
	DD	FLAT:??_R1A@?0A@EA@CharsetRecog_sbcs@icu_56@@8
	DD	FLAT:??_R1A@?0A@EA@CharsetRecognizer@icu_56@@8
	DD	FLAT:??_R13?0A@EA@UMemory@icu_56@@8
rdata$r	ENDS
;	COMDAT ??_R3CharsetRecog_8859_6@icu_56@@8
rdata$r	SEGMENT
??_R3CharsetRecog_8859_6@icu_56@@8 DD 00H		; icu_56::CharsetRecog_8859_6::`RTTI Class Hierarchy Descriptor'
	DD	00H
	DD	04H
	DD	FLAT:??_R2CharsetRecog_8859_6@icu_56@@8
rdata$r	ENDS
;	COMDAT ??_R0?AVCharsetRecog_8859_6@icu_56@@@8
_DATA	SEGMENT
??_R0?AVCharsetRecog_8859_6@icu_56@@@8 DD FLAT:??_7type_info@@6B@ ; icu_56::CharsetRecog_8859_6 `RTTI Type Descriptor'
	DD	00H
	DB	'.?AVCharsetRecog_8859_6@icu_56@@', 00H
_DATA	ENDS
;	COMDAT ??_R1A@?0A@EA@CharsetRecog_8859_6@icu_56@@8
rdata$r	SEGMENT
??_R1A@?0A@EA@CharsetRecog_8859_6@icu_56@@8 DD FLAT:??_R0?AVCharsetRecog_8859_6@icu_56@@@8 ; icu_56::CharsetRecog_8859_6::`RTTI Base Class Descriptor at (0,-1,0,64)'
	DD	03H
	DD	00H
	DD	0ffffffffH
	DD	00H
	DD	040H
	DD	FLAT:??_R3CharsetRecog_8859_6@icu_56@@8
rdata$r	ENDS
;	COMDAT ??_R1A@?0A@EA@CharsetRecog_8859_6_ar@icu_56@@8
rdata$r	SEGMENT
??_R1A@?0A@EA@CharsetRecog_8859_6_ar@icu_56@@8 DD FLAT:??_R0?AVCharsetRecog_8859_6_ar@icu_56@@@8 ; icu_56::CharsetRecog_8859_6_ar::`RTTI Base Class Descriptor at (0,-1,0,64)'
	DD	04H
	DD	00H
	DD	0ffffffffH
	DD	00H
	DD	040H
	DD	FLAT:??_R3CharsetRecog_8859_6_ar@icu_56@@8
rdata$r	ENDS
;	COMDAT ??_R2CharsetRecog_8859_6_ar@icu_56@@8
rdata$r	SEGMENT
??_R2CharsetRecog_8859_6_ar@icu_56@@8 DD FLAT:??_R1A@?0A@EA@CharsetRecog_8859_6_ar@icu_56@@8 ; icu_56::CharsetRecog_8859_6_ar::`RTTI Base Class Array'
	DD	FLAT:??_R1A@?0A@EA@CharsetRecog_8859_6@icu_56@@8
	DD	FLAT:??_R1A@?0A@EA@CharsetRecog_sbcs@icu_56@@8
	DD	FLAT:??_R1A@?0A@EA@CharsetRecognizer@icu_56@@8
	DD	FLAT:??_R13?0A@EA@UMemory@icu_56@@8
rdata$r	ENDS
;	COMDAT ??_R3CharsetRecog_8859_6_ar@icu_56@@8
rdata$r	SEGMENT
??_R3CharsetRecog_8859_6_ar@icu_56@@8 DD 00H		; icu_56::CharsetRecog_8859_6_ar::`RTTI Class Hierarchy Descriptor'
	DD	00H
	DD	05H
	DD	FLAT:??_R2CharsetRecog_8859_6_ar@icu_56@@8
rdata$r	ENDS
;	COMDAT ??_R0?AVCharsetRecog_8859_6_ar@icu_56@@@8
_DATA	SEGMENT
??_R0?AVCharsetRecog_8859_6_ar@icu_56@@@8 DD FLAT:??_7type_info@@6B@ ; icu_56::CharsetRecog_8859_6_ar `RTTI Type Descriptor'
	DD	00H
	DB	'.?AVCharsetRecog_8859_6_ar@icu_56@@', 00H
_DATA	ENDS
;	COMDAT ??_R4CharsetRecog_8859_6_ar@icu_56@@6B@
rdata$r	SEGMENT
??_R4CharsetRecog_8859_6_ar@icu_56@@6B@ DD 00H		; icu_56::CharsetRecog_8859_6_ar::`RTTI Complete Object Locator'
	DD	00H
	DD	00H
	DD	FLAT:??_R0?AVCharsetRecog_8859_6_ar@icu_56@@@8
	DD	FLAT:??_R3CharsetRecog_8859_6_ar@icu_56@@8
rdata$r	ENDS
;	COMDAT ??_7CharsetRecog_8859_6_ar@icu_56@@6B@
CONST	SEGMENT
??_7CharsetRecog_8859_6_ar@icu_56@@6B@ DD FLAT:??_R4CharsetRecog_8859_6_ar@icu_56@@6B@ ; icu_56::CharsetRecog_8859_6_ar::`vftable'
	DD	FLAT:?getName@CharsetRecog_8859_6@icu_56@@UBEPBDXZ
	DD	FLAT:?getLanguage@CharsetRecog_8859_6_ar@icu_56@@UBEPBDXZ
	DD	FLAT:?match@CharsetRecog_8859_6_ar@icu_56@@UBECPAVInputText@2@PAVCharsetMatch@2@@Z
	DD	FLAT:??_ECharsetRecog_8859_6_ar@icu_56@@UAEPAXI@Z
	DD	FLAT:?match_sbcs@CharsetRecog_sbcs@icu_56@@UBEHPAVInputText@2@QBHQBE@Z
; Function compile flags: /Odtp /RTCsu /ZI
CONST	ENDS
;	COMDAT ??0CharsetRecog_8859_6_ar@icu_56@@QAE@XZ
_TEXT	SEGMENT
_this$ = -8						; size = 4
??0CharsetRecog_8859_6_ar@icu_56@@QAE@XZ PROC		; icu_56::CharsetRecog_8859_6_ar::CharsetRecog_8859_6_ar, COMDAT
; _this$ = ecx
	push	ebp
	mov	ebp, esp
	sub	esp, 204				; 000000ccH
	push	ebx
	push	esi
	push	edi
	push	ecx
	lea	edi, DWORD PTR [ebp-204]
	mov	ecx, 51					; 00000033H
	mov	eax, -858993460				; ccccccccH
	rep stosd
	pop	ecx
	mov	DWORD PTR _this$[ebp], ecx
	mov	ecx, DWORD PTR _this$[ebp]
	call	??0CharsetRecog_8859_6@icu_56@@QAE@XZ
	mov	eax, DWORD PTR _this$[ebp]
	mov	DWORD PTR [eax], OFFSET ??_7CharsetRecog_8859_6_ar@icu_56@@6B@
	mov	eax, DWORD PTR _this$[ebp]
	pop	edi
	pop	esi
	pop	ebx
	add	esp, 204				; 000000ccH
	cmp	ebp, esp
	call	__RTC_CheckEsp
	mov	esp, ebp
	pop	ebp
	ret	0
??0CharsetRecog_8859_6_ar@icu_56@@QAE@XZ ENDP		; icu_56::CharsetRecog_8859_6_ar::CharsetRecog_8859_6_ar
_TEXT	ENDS
PUBLIC	??_7CharsetRecog_8859_7_el@icu_56@@6B@		; icu_56::CharsetRecog_8859_7_el::`vftable'
PUBLIC	??0CharsetRecog_8859_7@icu_56@@QAE@XZ		; icu_56::CharsetRecog_8859_7::CharsetRecog_8859_7
PUBLIC	??_R4CharsetRecog_8859_7_el@icu_56@@6B@		; icu_56::CharsetRecog_8859_7_el::`RTTI Complete Object Locator'
PUBLIC	??_R0?AVCharsetRecog_8859_7_el@icu_56@@@8	; icu_56::CharsetRecog_8859_7_el `RTTI Type Descriptor'
PUBLIC	??_R3CharsetRecog_8859_7_el@icu_56@@8		; icu_56::CharsetRecog_8859_7_el::`RTTI Class Hierarchy Descriptor'
PUBLIC	??_R2CharsetRecog_8859_7_el@icu_56@@8		; icu_56::CharsetRecog_8859_7_el::`RTTI Base Class Array'
PUBLIC	??_R1A@?0A@EA@CharsetRecog_8859_7_el@icu_56@@8	; icu_56::CharsetRecog_8859_7_el::`RTTI Base Class Descriptor at (0,-1,0,64)'
PUBLIC	??_R1A@?0A@EA@CharsetRecog_8859_7@icu_56@@8	; icu_56::CharsetRecog_8859_7::`RTTI Base Class Descriptor at (0,-1,0,64)'
PUBLIC	??_R0?AVCharsetRecog_8859_7@icu_56@@@8		; icu_56::CharsetRecog_8859_7 `RTTI Type Descriptor'
PUBLIC	??_R3CharsetRecog_8859_7@icu_56@@8		; icu_56::CharsetRecog_8859_7::`RTTI Class Hierarchy Descriptor'
PUBLIC	??_R2CharsetRecog_8859_7@icu_56@@8		; icu_56::CharsetRecog_8859_7::`RTTI Base Class Array'
EXTRN	?getName@CharsetRecog_8859_7@icu_56@@UBEPBDXZ:PROC ; icu_56::CharsetRecog_8859_7::getName
EXTRN	?getLanguage@CharsetRecog_8859_7_el@icu_56@@UBEPBDXZ:PROC ; icu_56::CharsetRecog_8859_7_el::getLanguage
EXTRN	?match@CharsetRecog_8859_7_el@icu_56@@UBECPAVInputText@2@PAVCharsetMatch@2@@Z:PROC ; icu_56::CharsetRecog_8859_7_el::match
EXTRN	??_ECharsetRecog_8859_7_el@icu_56@@UAEPAXI@Z:PROC ; icu_56::CharsetRecog_8859_7_el::`vector deleting destructor'
;	COMDAT ??_R2CharsetRecog_8859_7@icu_56@@8
rdata$r	SEGMENT
??_R2CharsetRecog_8859_7@icu_56@@8 DD FLAT:??_R1A@?0A@EA@CharsetRecog_8859_7@icu_56@@8 ; icu_56::CharsetRecog_8859_7::`RTTI Base Class Array'
	DD	FLAT:??_R1A@?0A@EA@CharsetRecog_sbcs@icu_56@@8
	DD	FLAT:??_R1A@?0A@EA@CharsetRecognizer@icu_56@@8
	DD	FLAT:??_R13?0A@EA@UMemory@icu_56@@8
rdata$r	ENDS
;	COMDAT ??_R3CharsetRecog_8859_7@icu_56@@8
rdata$r	SEGMENT
??_R3CharsetRecog_8859_7@icu_56@@8 DD 00H		; icu_56::CharsetRecog_8859_7::`RTTI Class Hierarchy Descriptor'
	DD	00H
	DD	04H
	DD	FLAT:??_R2CharsetRecog_8859_7@icu_56@@8
rdata$r	ENDS
;	COMDAT ??_R0?AVCharsetRecog_8859_7@icu_56@@@8
_DATA	SEGMENT
??_R0?AVCharsetRecog_8859_7@icu_56@@@8 DD FLAT:??_7type_info@@6B@ ; icu_56::CharsetRecog_8859_7 `RTTI Type Descriptor'
	DD	00H
	DB	'.?AVCharsetRecog_8859_7@icu_56@@', 00H
_DATA	ENDS
;	COMDAT ??_R1A@?0A@EA@CharsetRecog_8859_7@icu_56@@8
rdata$r	SEGMENT
??_R1A@?0A@EA@CharsetRecog_8859_7@icu_56@@8 DD FLAT:??_R0?AVCharsetRecog_8859_7@icu_56@@@8 ; icu_56::CharsetRecog_8859_7::`RTTI Base Class Descriptor at (0,-1,0,64)'
	DD	03H
	DD	00H
	DD	0ffffffffH
	DD	00H
	DD	040H
	DD	FLAT:??_R3CharsetRecog_8859_7@icu_56@@8
rdata$r	ENDS
;	COMDAT ??_R1A@?0A@EA@CharsetRecog_8859_7_el@icu_56@@8
rdata$r	SEGMENT
??_R1A@?0A@EA@CharsetRecog_8859_7_el@icu_56@@8 DD FLAT:??_R0?AVCharsetRecog_8859_7_el@icu_56@@@8 ; icu_56::CharsetRecog_8859_7_el::`RTTI Base Class Descriptor at (0,-1,0,64)'
	DD	04H
	DD	00H
	DD	0ffffffffH
	DD	00H
	DD	040H
	DD	FLAT:??_R3CharsetRecog_8859_7_el@icu_56@@8
rdata$r	ENDS
;	COMDAT ??_R2CharsetRecog_8859_7_el@icu_56@@8
rdata$r	SEGMENT
??_R2CharsetRecog_8859_7_el@icu_56@@8 DD FLAT:??_R1A@?0A@EA@CharsetRecog_8859_7_el@icu_56@@8 ; icu_56::CharsetRecog_8859_7_el::`RTTI Base Class Array'
	DD	FLAT:??_R1A@?0A@EA@CharsetRecog_8859_7@icu_56@@8
	DD	FLAT:??_R1A@?0A@EA@CharsetRecog_sbcs@icu_56@@8
	DD	FLAT:??_R1A@?0A@EA@CharsetRecognizer@icu_56@@8
	DD	FLAT:??_R13?0A@EA@UMemory@icu_56@@8
rdata$r	ENDS
;	COMDAT ??_R3CharsetRecog_8859_7_el@icu_56@@8
rdata$r	SEGMENT
??_R3CharsetRecog_8859_7_el@icu_56@@8 DD 00H		; icu_56::CharsetRecog_8859_7_el::`RTTI Class Hierarchy Descriptor'
	DD	00H
	DD	05H
	DD	FLAT:??_R2CharsetRecog_8859_7_el@icu_56@@8
rdata$r	ENDS
;	COMDAT ??_R0?AVCharsetRecog_8859_7_el@icu_56@@@8
_DATA	SEGMENT
??_R0?AVCharsetRecog_8859_7_el@icu_56@@@8 DD FLAT:??_7type_info@@6B@ ; icu_56::CharsetRecog_8859_7_el `RTTI Type Descriptor'
	DD	00H
	DB	'.?AVCharsetRecog_8859_7_el@icu_56@@', 00H
_DATA	ENDS
;	COMDAT ??_R4CharsetRecog_8859_7_el@icu_56@@6B@
rdata$r	SEGMENT
??_R4CharsetRecog_8859_7_el@icu_56@@6B@ DD 00H		; icu_56::CharsetRecog_8859_7_el::`RTTI Complete Object Locator'
	DD	00H
	DD	00H
	DD	FLAT:??_R0?AVCharsetRecog_8859_7_el@icu_56@@@8
	DD	FLAT:??_R3CharsetRecog_8859_7_el@icu_56@@8
rdata$r	ENDS
;	COMDAT ??_7CharsetRecog_8859_7_el@icu_56@@6B@
CONST	SEGMENT
??_7CharsetRecog_8859_7_el@icu_56@@6B@ DD FLAT:??_R4CharsetRecog_8859_7_el@icu_56@@6B@ ; icu_56::CharsetRecog_8859_7_el::`vftable'
	DD	FLAT:?getName@CharsetRecog_8859_7@icu_56@@UBEPBDXZ
	DD	FLAT:?getLanguage@CharsetRecog_8859_7_el@icu_56@@UBEPBDXZ
	DD	FLAT:?match@CharsetRecog_8859_7_el@icu_56@@UBECPAVInputText@2@PAVCharsetMatch@2@@Z
	DD	FLAT:??_ECharsetRecog_8859_7_el@icu_56@@UAEPAXI@Z
	DD	FLAT:?match_sbcs@CharsetRecog_sbcs@icu_56@@UBEHPAVInputText@2@QBHQBE@Z
; Function compile flags: /Odtp /RTCsu /ZI
CONST	ENDS
;	COMDAT ??0CharsetRecog_8859_7_el@icu_56@@QAE@XZ
_TEXT	SEGMENT
_this$ = -8						; size = 4
??0CharsetRecog_8859_7_el@icu_56@@QAE@XZ PROC		; icu_56::CharsetRecog_8859_7_el::CharsetRecog_8859_7_el, COMDAT
; _this$ = ecx
	push	ebp
	mov	ebp, esp
	sub	esp, 204				; 000000ccH
	push	ebx
	push	esi
	push	edi
	push	ecx
	lea	edi, DWORD PTR [ebp-204]
	mov	ecx, 51					; 00000033H
	mov	eax, -858993460				; ccccccccH
	rep stosd
	pop	ecx
	mov	DWORD PTR _this$[ebp], ecx
	mov	ecx, DWORD PTR _this$[ebp]
	call	??0CharsetRecog_8859_7@icu_56@@QAE@XZ
	mov	eax, DWORD PTR _this$[ebp]
	mov	DWORD PTR [eax], OFFSET ??_7CharsetRecog_8859_7_el@icu_56@@6B@
	mov	eax, DWORD PTR _this$[ebp]
	pop	edi
	pop	esi
	pop	ebx
	add	esp, 204				; 000000ccH
	cmp	ebp, esp
	call	__RTC_CheckEsp
	mov	esp, ebp
	pop	ebp
	ret	0
??0CharsetRecog_8859_7_el@icu_56@@QAE@XZ ENDP		; icu_56::CharsetRecog_8859_7_el::CharsetRecog_8859_7_el
_TEXT	ENDS
PUBLIC	??_7CharsetRecog_8859_8_I_he@icu_56@@6B@	; icu_56::CharsetRecog_8859_8_I_he::`vftable'
PUBLIC	??0CharsetRecog_8859_8@icu_56@@QAE@XZ		; icu_56::CharsetRecog_8859_8::CharsetRecog_8859_8
PUBLIC	??_R4CharsetRecog_8859_8_I_he@icu_56@@6B@	; icu_56::CharsetRecog_8859_8_I_he::`RTTI Complete Object Locator'
PUBLIC	??_R0?AVCharsetRecog_8859_8_I_he@icu_56@@@8	; icu_56::CharsetRecog_8859_8_I_he `RTTI Type Descriptor'
PUBLIC	??_R3CharsetRecog_8859_8_I_he@icu_56@@8		; icu_56::CharsetRecog_8859_8_I_he::`RTTI Class Hierarchy Descriptor'
PUBLIC	??_R2CharsetRecog_8859_8_I_he@icu_56@@8		; icu_56::CharsetRecog_8859_8_I_he::`RTTI Base Class Array'
PUBLIC	??_R1A@?0A@EA@CharsetRecog_8859_8_I_he@icu_56@@8 ; icu_56::CharsetRecog_8859_8_I_he::`RTTI Base Class Descriptor at (0,-1,0,64)'
PUBLIC	??_R1A@?0A@EA@CharsetRecog_8859_8@icu_56@@8	; icu_56::CharsetRecog_8859_8::`RTTI Base Class Descriptor at (0,-1,0,64)'
PUBLIC	??_R0?AVCharsetRecog_8859_8@icu_56@@@8		; icu_56::CharsetRecog_8859_8 `RTTI Type Descriptor'
PUBLIC	??_R3CharsetRecog_8859_8@icu_56@@8		; icu_56::CharsetRecog_8859_8::`RTTI Class Hierarchy Descriptor'
PUBLIC	??_R2CharsetRecog_8859_8@icu_56@@8		; icu_56::CharsetRecog_8859_8::`RTTI Base Class Array'
EXTRN	?getName@CharsetRecog_8859_8_I_he@icu_56@@UBEPBDXZ:PROC ; icu_56::CharsetRecog_8859_8_I_he::getName
EXTRN	?getLanguage@CharsetRecog_8859_8_I_he@icu_56@@UBEPBDXZ:PROC ; icu_56::CharsetRecog_8859_8_I_he::getLanguage
EXTRN	?match@CharsetRecog_8859_8_I_he@icu_56@@UBECPAVInputText@2@PAVCharsetMatch@2@@Z:PROC ; icu_56::CharsetRecog_8859_8_I_he::match
EXTRN	??_ECharsetRecog_8859_8_I_he@icu_56@@UAEPAXI@Z:PROC ; icu_56::CharsetRecog_8859_8_I_he::`vector deleting destructor'
;	COMDAT ??_R2CharsetRecog_8859_8@icu_56@@8
rdata$r	SEGMENT
??_R2CharsetRecog_8859_8@icu_56@@8 DD FLAT:??_R1A@?0A@EA@CharsetRecog_8859_8@icu_56@@8 ; icu_56::CharsetRecog_8859_8::`RTTI Base Class Array'
	DD	FLAT:??_R1A@?0A@EA@CharsetRecog_sbcs@icu_56@@8
	DD	FLAT:??_R1A@?0A@EA@CharsetRecognizer@icu_56@@8
	DD	FLAT:??_R13?0A@EA@UMemory@icu_56@@8
rdata$r	ENDS
;	COMDAT ??_R3CharsetRecog_8859_8@icu_56@@8
rdata$r	SEGMENT
??_R3CharsetRecog_8859_8@icu_56@@8 DD 00H		; icu_56::CharsetRecog_8859_8::`RTTI Class Hierarchy Descriptor'
	DD	00H
	DD	04H
	DD	FLAT:??_R2CharsetRecog_8859_8@icu_56@@8
rdata$r	ENDS
;	COMDAT ??_R0?AVCharsetRecog_8859_8@icu_56@@@8
_DATA	SEGMENT
??_R0?AVCharsetRecog_8859_8@icu_56@@@8 DD FLAT:??_7type_info@@6B@ ; icu_56::CharsetRecog_8859_8 `RTTI Type Descriptor'
	DD	00H
	DB	'.?AVCharsetRecog_8859_8@icu_56@@', 00H
_DATA	ENDS
;	COMDAT ??_R1A@?0A@EA@CharsetRecog_8859_8@icu_56@@8
rdata$r	SEGMENT
??_R1A@?0A@EA@CharsetRecog_8859_8@icu_56@@8 DD FLAT:??_R0?AVCharsetRecog_8859_8@icu_56@@@8 ; icu_56::CharsetRecog_8859_8::`RTTI Base Class Descriptor at (0,-1,0,64)'
	DD	03H
	DD	00H
	DD	0ffffffffH
	DD	00H
	DD	040H
	DD	FLAT:??_R3CharsetRecog_8859_8@icu_56@@8
rdata$r	ENDS
;	COMDAT ??_R1A@?0A@EA@CharsetRecog_8859_8_I_he@icu_56@@8
rdata$r	SEGMENT
??_R1A@?0A@EA@CharsetRecog_8859_8_I_he@icu_56@@8 DD FLAT:??_R0?AVCharsetRecog_8859_8_I_he@icu_56@@@8 ; icu_56::CharsetRecog_8859_8_I_he::`RTTI Base Class Descriptor at (0,-1,0,64)'
	DD	04H
	DD	00H
	DD	0ffffffffH
	DD	00H
	DD	040H
	DD	FLAT:??_R3CharsetRecog_8859_8_I_he@icu_56@@8
rdata$r	ENDS
;	COMDAT ??_R2CharsetRecog_8859_8_I_he@icu_56@@8
rdata$r	SEGMENT
??_R2CharsetRecog_8859_8_I_he@icu_56@@8 DD FLAT:??_R1A@?0A@EA@CharsetRecog_8859_8_I_he@icu_56@@8 ; icu_56::CharsetRecog_8859_8_I_he::`RTTI Base Class Array'
	DD	FLAT:??_R1A@?0A@EA@CharsetRecog_8859_8@icu_56@@8
	DD	FLAT:??_R1A@?0A@EA@CharsetRecog_sbcs@icu_56@@8
	DD	FLAT:??_R1A@?0A@EA@CharsetRecognizer@icu_56@@8
	DD	FLAT:??_R13?0A@EA@UMemory@icu_56@@8
rdata$r	ENDS
;	COMDAT ??_R3CharsetRecog_8859_8_I_he@icu_56@@8
rdata$r	SEGMENT
??_R3CharsetRecog_8859_8_I_he@icu_56@@8 DD 00H		; icu_56::CharsetRecog_8859_8_I_he::`RTTI Class Hierarchy Descriptor'
	DD	00H
	DD	05H
	DD	FLAT:??_R2CharsetRecog_8859_8_I_he@icu_56@@8
rdata$r	ENDS
;	COMDAT ??_R0?AVCharsetRecog_8859_8_I_he@icu_56@@@8
_DATA	SEGMENT
??_R0?AVCharsetRecog_8859_8_I_he@icu_56@@@8 DD FLAT:??_7type_info@@6B@ ; icu_56::CharsetRecog_8859_8_I_he `RTTI Type Descriptor'
	DD	00H
	DB	'.?AVCharsetRecog_8859_8_I_he@icu_56@@', 00H
_DATA	ENDS
;	COMDAT ??_R4CharsetRecog_8859_8_I_he@icu_56@@6B@
rdata$r	SEGMENT
??_R4CharsetRecog_8859_8_I_he@icu_56@@6B@ DD 00H	; icu_56::CharsetRecog_8859_8_I_he::`RTTI Complete Object Locator'
	DD	00H
	DD	00H
	DD	FLAT:??_R0?AVCharsetRecog_8859_8_I_he@icu_56@@@8
	DD	FLAT:??_R3CharsetRecog_8859_8_I_he@icu_56@@8
rdata$r	ENDS
;	COMDAT ??_7CharsetRecog_8859_8_I_he@icu_56@@6B@
CONST	SEGMENT
??_7CharsetRecog_8859_8_I_he@icu_56@@6B@ DD FLAT:??_R4CharsetRecog_8859_8_I_he@icu_56@@6B@ ; icu_56::CharsetRecog_8859_8_I_he::`vftable'
	DD	FLAT:?getName@CharsetRecog_8859_8_I_he@icu_56@@UBEPBDXZ
	DD	FLAT:?getLanguage@CharsetRecog_8859_8_I_he@icu_56@@UBEPBDXZ
	DD	FLAT:?match@CharsetRecog_8859_8_I_he@icu_56@@UBECPAVInputText@2@PAVCharsetMatch@2@@Z
	DD	FLAT:??_ECharsetRecog_8859_8_I_he@icu_56@@UAEPAXI@Z
	DD	FLAT:?match_sbcs@CharsetRecog_sbcs@icu_56@@UBEHPAVInputText@2@QBHQBE@Z
; Function compile flags: /Odtp /RTCsu /ZI
CONST	ENDS
;	COMDAT ??0CharsetRecog_8859_8_I_he@icu_56@@QAE@XZ
_TEXT	SEGMENT
_this$ = -8						; size = 4
??0CharsetRecog_8859_8_I_he@icu_56@@QAE@XZ PROC		; icu_56::CharsetRecog_8859_8_I_he::CharsetRecog_8859_8_I_he, COMDAT
; _this$ = ecx
	push	ebp
	mov	ebp, esp
	sub	esp, 204				; 000000ccH
	push	ebx
	push	esi
	push	edi
	push	ecx
	lea	edi, DWORD PTR [ebp-204]
	mov	ecx, 51					; 00000033H
	mov	eax, -858993460				; ccccccccH
	rep stosd
	pop	ecx
	mov	DWORD PTR _this$[ebp], ecx
	mov	ecx, DWORD PTR _this$[ebp]
	call	??0CharsetRecog_8859_8@icu_56@@QAE@XZ
	mov	eax, DWORD PTR _this$[ebp]
	mov	DWORD PTR [eax], OFFSET ??_7CharsetRecog_8859_8_I_he@icu_56@@6B@
	mov	eax, DWORD PTR _this$[ebp]
	pop	edi
	pop	esi
	pop	ebx
	add	esp, 204				; 000000ccH
	cmp	ebp, esp
	call	__RTC_CheckEsp
	mov	esp, ebp
	pop	ebp
	ret	0
??0CharsetRecog_8859_8_I_he@icu_56@@QAE@XZ ENDP		; icu_56::CharsetRecog_8859_8_I_he::CharsetRecog_8859_8_I_he
_TEXT	ENDS
PUBLIC	??_7CharsetRecog_8859_8_he@icu_56@@6B@		; icu_56::CharsetRecog_8859_8_he::`vftable'
PUBLIC	??_R4CharsetRecog_8859_8_he@icu_56@@6B@		; icu_56::CharsetRecog_8859_8_he::`RTTI Complete Object Locator'
PUBLIC	??_R0?AVCharsetRecog_8859_8_he@icu_56@@@8	; icu_56::CharsetRecog_8859_8_he `RTTI Type Descriptor'
PUBLIC	??_R3CharsetRecog_8859_8_he@icu_56@@8		; icu_56::CharsetRecog_8859_8_he::`RTTI Class Hierarchy Descriptor'
PUBLIC	??_R2CharsetRecog_8859_8_he@icu_56@@8		; icu_56::CharsetRecog_8859_8_he::`RTTI Base Class Array'
PUBLIC	??_R1A@?0A@EA@CharsetRecog_8859_8_he@icu_56@@8	; icu_56::CharsetRecog_8859_8_he::`RTTI Base Class Descriptor at (0,-1,0,64)'
EXTRN	?getName@CharsetRecog_8859_8@icu_56@@UBEPBDXZ:PROC ; icu_56::CharsetRecog_8859_8::getName
EXTRN	?getLanguage@CharsetRecog_8859_8_he@icu_56@@UBEPBDXZ:PROC ; icu_56::CharsetRecog_8859_8_he::getLanguage
EXTRN	?match@CharsetRecog_8859_8_he@icu_56@@UBECPAVInputText@2@PAVCharsetMatch@2@@Z:PROC ; icu_56::CharsetRecog_8859_8_he::match
EXTRN	??_ECharsetRecog_8859_8_he@icu_56@@UAEPAXI@Z:PROC ; icu_56::CharsetRecog_8859_8_he::`vector deleting destructor'
;	COMDAT ??_R1A@?0A@EA@CharsetRecog_8859_8_he@icu_56@@8
rdata$r	SEGMENT
??_R1A@?0A@EA@CharsetRecog_8859_8_he@icu_56@@8 DD FLAT:??_R0?AVCharsetRecog_8859_8_he@icu_56@@@8 ; icu_56::CharsetRecog_8859_8_he::`RTTI Base Class Descriptor at (0,-1,0,64)'
	DD	04H
	DD	00H
	DD	0ffffffffH
	DD	00H
	DD	040H
	DD	FLAT:??_R3CharsetRecog_8859_8_he@icu_56@@8
rdata$r	ENDS
;	COMDAT ??_R2CharsetRecog_8859_8_he@icu_56@@8
rdata$r	SEGMENT
??_R2CharsetRecog_8859_8_he@icu_56@@8 DD FLAT:??_R1A@?0A@EA@CharsetRecog_8859_8_he@icu_56@@8 ; icu_56::CharsetRecog_8859_8_he::`RTTI Base Class Array'
	DD	FLAT:??_R1A@?0A@EA@CharsetRecog_8859_8@icu_56@@8
	DD	FLAT:??_R1A@?0A@EA@CharsetRecog_sbcs@icu_56@@8
	DD	FLAT:??_R1A@?0A@EA@CharsetRecognizer@icu_56@@8
	DD	FLAT:??_R13?0A@EA@UMemory@icu_56@@8
rdata$r	ENDS
;	COMDAT ??_R3CharsetRecog_8859_8_he@icu_56@@8
rdata$r	SEGMENT
??_R3CharsetRecog_8859_8_he@icu_56@@8 DD 00H		; icu_56::CharsetRecog_8859_8_he::`RTTI Class Hierarchy Descriptor'
	DD	00H
	DD	05H
	DD	FLAT:??_R2CharsetRecog_8859_8_he@icu_56@@8
rdata$r	ENDS
;	COMDAT ??_R0?AVCharsetRecog_8859_8_he@icu_56@@@8
_DATA	SEGMENT
??_R0?AVCharsetRecog_8859_8_he@icu_56@@@8 DD FLAT:??_7type_info@@6B@ ; icu_56::CharsetRecog_8859_8_he `RTTI Type Descriptor'
	DD	00H
	DB	'.?AVCharsetRecog_8859_8_he@icu_56@@', 00H
_DATA	ENDS
;	COMDAT ??_R4CharsetRecog_8859_8_he@icu_56@@6B@
rdata$r	SEGMENT
??_R4CharsetRecog_8859_8_he@icu_56@@6B@ DD 00H		; icu_56::CharsetRecog_8859_8_he::`RTTI Complete Object Locator'
	DD	00H
	DD	00H
	DD	FLAT:??_R0?AVCharsetRecog_8859_8_he@icu_56@@@8
	DD	FLAT:??_R3CharsetRecog_8859_8_he@icu_56@@8
rdata$r	ENDS
;	COMDAT ??_7CharsetRecog_8859_8_he@icu_56@@6B@
CONST	SEGMENT
??_7CharsetRecog_8859_8_he@icu_56@@6B@ DD FLAT:??_R4CharsetRecog_8859_8_he@icu_56@@6B@ ; icu_56::CharsetRecog_8859_8_he::`vftable'
	DD	FLAT:?getName@CharsetRecog_8859_8@icu_56@@UBEPBDXZ
	DD	FLAT:?getLanguage@CharsetRecog_8859_8_he@icu_56@@UBEPBDXZ
	DD	FLAT:?match@CharsetRecog_8859_8_he@icu_56@@UBECPAVInputText@2@PAVCharsetMatch@2@@Z
	DD	FLAT:??_ECharsetRecog_8859_8_he@icu_56@@UAEPAXI@Z
	DD	FLAT:?match_sbcs@CharsetRecog_sbcs@icu_56@@UBEHPAVInputText@2@QBHQBE@Z
; Function compile flags: /Odtp /RTCsu /ZI
CONST	ENDS
;	COMDAT ??0CharsetRecog_8859_8_he@icu_56@@QAE@XZ
_TEXT	SEGMENT
_this$ = -8						; size = 4
??0CharsetRecog_8859_8_he@icu_56@@QAE@XZ PROC		; icu_56::CharsetRecog_8859_8_he::CharsetRecog_8859_8_he, COMDAT
; _this$ = ecx
	push	ebp
	mov	ebp, esp
	sub	esp, 204				; 000000ccH
	push	ebx
	push	esi
	push	edi
	push	ecx
	lea	edi, DWORD PTR [ebp-204]
	mov	ecx, 51					; 00000033H
	mov	eax, -858993460				; ccccccccH
	rep stosd
	pop	ecx
	mov	DWORD PTR _this$[ebp], ecx
	mov	ecx, DWORD PTR _this$[ebp]
	call	??0CharsetRecog_8859_8@icu_56@@QAE@XZ
	mov	eax, DWORD PTR _this$[ebp]
	mov	DWORD PTR [eax], OFFSET ??_7CharsetRecog_8859_8_he@icu_56@@6B@
	mov	eax, DWORD PTR _this$[ebp]
	pop	edi
	pop	esi
	pop	ebx
	add	esp, 204				; 000000ccH
	cmp	ebp, esp
	call	__RTC_CheckEsp
	mov	esp, ebp
	pop	ebp
	ret	0
??0CharsetRecog_8859_8_he@icu_56@@QAE@XZ ENDP		; icu_56::CharsetRecog_8859_8_he::CharsetRecog_8859_8_he
_TEXT	ENDS
PUBLIC	??_7CharsetRecog_windows_1251@icu_56@@6B@	; icu_56::CharsetRecog_windows_1251::`vftable'
PUBLIC	??_R4CharsetRecog_windows_1251@icu_56@@6B@	; icu_56::CharsetRecog_windows_1251::`RTTI Complete Object Locator'
PUBLIC	??_R0?AVCharsetRecog_windows_1251@icu_56@@@8	; icu_56::CharsetRecog_windows_1251 `RTTI Type Descriptor'
PUBLIC	??_R3CharsetRecog_windows_1251@icu_56@@8	; icu_56::CharsetRecog_windows_1251::`RTTI Class Hierarchy Descriptor'
PUBLIC	??_R2CharsetRecog_windows_1251@icu_56@@8	; icu_56::CharsetRecog_windows_1251::`RTTI Base Class Array'
PUBLIC	??_R1A@?0A@EA@CharsetRecog_windows_1251@icu_56@@8 ; icu_56::CharsetRecog_windows_1251::`RTTI Base Class Descriptor at (0,-1,0,64)'
EXTRN	?getName@CharsetRecog_windows_1251@icu_56@@UBEPBDXZ:PROC ; icu_56::CharsetRecog_windows_1251::getName
EXTRN	?getLanguage@CharsetRecog_windows_1251@icu_56@@UBEPBDXZ:PROC ; icu_56::CharsetRecog_windows_1251::getLanguage
EXTRN	?match@CharsetRecog_windows_1251@icu_56@@UBECPAVInputText@2@PAVCharsetMatch@2@@Z:PROC ; icu_56::CharsetRecog_windows_1251::match
EXTRN	??_ECharsetRecog_windows_1251@icu_56@@UAEPAXI@Z:PROC ; icu_56::CharsetRecog_windows_1251::`vector deleting destructor'
;	COMDAT ??_R1A@?0A@EA@CharsetRecog_windows_1251@icu_56@@8
rdata$r	SEGMENT
??_R1A@?0A@EA@CharsetRecog_windows_1251@icu_56@@8 DD FLAT:??_R0?AVCharsetRecog_windows_1251@icu_56@@@8 ; icu_56::CharsetRecog_windows_1251::`RTTI Base Class Descriptor at (0,-1,0,64)'
	DD	03H
	DD	00H
	DD	0ffffffffH
	DD	00H
	DD	040H
	DD	FLAT:??_R3CharsetRecog_windows_1251@icu_56@@8
rdata$r	ENDS
;	COMDAT ??_R2CharsetRecog_windows_1251@icu_56@@8
rdata$r	SEGMENT
??_R2CharsetRecog_windows_1251@icu_56@@8 DD FLAT:??_R1A@?0A@EA@CharsetRecog_windows_1251@icu_56@@8 ; icu_56::CharsetRecog_windows_1251::`RTTI Base Class Array'
	DD	FLAT:??_R1A@?0A@EA@CharsetRecog_sbcs@icu_56@@8
	DD	FLAT:??_R1A@?0A@EA@CharsetRecognizer@icu_56@@8
	DD	FLAT:??_R13?0A@EA@UMemory@icu_56@@8
rdata$r	ENDS
;	COMDAT ??_R3CharsetRecog_windows_1251@icu_56@@8
rdata$r	SEGMENT
??_R3CharsetRecog_windows_1251@icu_56@@8 DD 00H		; icu_56::CharsetRecog_windows_1251::`RTTI Class Hierarchy Descriptor'
	DD	00H
	DD	04H
	DD	FLAT:??_R2CharsetRecog_windows_1251@icu_56@@8
rdata$r	ENDS
;	COMDAT ??_R0?AVCharsetRecog_windows_1251@icu_56@@@8
_DATA	SEGMENT
??_R0?AVCharsetRecog_windows_1251@icu_56@@@8 DD FLAT:??_7type_info@@6B@ ; icu_56::CharsetRecog_windows_1251 `RTTI Type Descriptor'
	DD	00H
	DB	'.?AVCharsetRecog_windows_1251@icu_56@@', 00H
_DATA	ENDS
;	COMDAT ??_R4CharsetRecog_windows_1251@icu_56@@6B@
rdata$r	SEGMENT
??_R4CharsetRecog_windows_1251@icu_56@@6B@ DD 00H	; icu_56::CharsetRecog_windows_1251::`RTTI Complete Object Locator'
	DD	00H
	DD	00H
	DD	FLAT:??_R0?AVCharsetRecog_windows_1251@icu_56@@@8
	DD	FLAT:??_R3CharsetRecog_windows_1251@icu_56@@8
rdata$r	ENDS
;	COMDAT ??_7CharsetRecog_windows_1251@icu_56@@6B@
CONST	SEGMENT
??_7CharsetRecog_windows_1251@icu_56@@6B@ DD FLAT:??_R4CharsetRecog_windows_1251@icu_56@@6B@ ; icu_56::CharsetRecog_windows_1251::`vftable'
	DD	FLAT:?getName@CharsetRecog_windows_1251@icu_56@@UBEPBDXZ
	DD	FLAT:?getLanguage@CharsetRecog_windows_1251@icu_56@@UBEPBDXZ
	DD	FLAT:?match@CharsetRecog_windows_1251@icu_56@@UBECPAVInputText@2@PAVCharsetMatch@2@@Z
	DD	FLAT:??_ECharsetRecog_windows_1251@icu_56@@UAEPAXI@Z
	DD	FLAT:?match_sbcs@CharsetRecog_sbcs@icu_56@@UBEHPAVInputText@2@QBHQBE@Z
; Function compile flags: /Odtp /RTCsu /ZI
CONST	ENDS
;	COMDAT ??0CharsetRecog_windows_1251@icu_56@@QAE@XZ
_TEXT	SEGMENT
_this$ = -8						; size = 4
??0CharsetRecog_windows_1251@icu_56@@QAE@XZ PROC	; icu_56::CharsetRecog_windows_1251::CharsetRecog_windows_1251, COMDAT
; _this$ = ecx
	push	ebp
	mov	ebp, esp
	sub	esp, 204				; 000000ccH
	push	ebx
	push	esi
	push	edi
	push	ecx
	lea	edi, DWORD PTR [ebp-204]
	mov	ecx, 51					; 00000033H
	mov	eax, -858993460				; ccccccccH
	rep stosd
	pop	ecx
	mov	DWORD PTR _this$[ebp], ecx
	mov	ecx, DWORD PTR _this$[ebp]
	call	??0CharsetRecog_sbcs@icu_56@@QAE@XZ	; icu_56::CharsetRecog_sbcs::CharsetRecog_sbcs
	mov	eax, DWORD PTR _this$[ebp]
	mov	DWORD PTR [eax], OFFSET ??_7CharsetRecog_windows_1251@icu_56@@6B@
	mov	eax, DWORD PTR _this$[ebp]
	pop	edi
	pop	esi
	pop	ebx
	add	esp, 204				; 000000ccH
	cmp	ebp, esp
	call	__RTC_CheckEsp
	mov	esp, ebp
	pop	ebp
	ret	0
??0CharsetRecog_windows_1251@icu_56@@QAE@XZ ENDP	; icu_56::CharsetRecog_windows_1251::CharsetRecog_windows_1251
_TEXT	ENDS
PUBLIC	??_7CharsetRecog_windows_1256@icu_56@@6B@	; icu_56::CharsetRecog_windows_1256::`vftable'
PUBLIC	??_R4CharsetRecog_windows_1256@icu_56@@6B@	; icu_56::CharsetRecog_windows_1256::`RTTI Complete Object Locator'
PUBLIC	??_R0?AVCharsetRecog_windows_1256@icu_56@@@8	; icu_56::CharsetRecog_windows_1256 `RTTI Type Descriptor'
PUBLIC	??_R3CharsetRecog_windows_1256@icu_56@@8	; icu_56::CharsetRecog_windows_1256::`RTTI Class Hierarchy Descriptor'
PUBLIC	??_R2CharsetRecog_windows_1256@icu_56@@8	; icu_56::CharsetRecog_windows_1256::`RTTI Base Class Array'
PUBLIC	??_R1A@?0A@EA@CharsetRecog_windows_1256@icu_56@@8 ; icu_56::CharsetRecog_windows_1256::`RTTI Base Class Descriptor at (0,-1,0,64)'
EXTRN	?getName@CharsetRecog_windows_1256@icu_56@@UBEPBDXZ:PROC ; icu_56::CharsetRecog_windows_1256::getName
EXTRN	?getLanguage@CharsetRecog_windows_1256@icu_56@@UBEPBDXZ:PROC ; icu_56::CharsetRecog_windows_1256::getLanguage
EXTRN	?match@CharsetRecog_windows_1256@icu_56@@UBECPAVInputText@2@PAVCharsetMatch@2@@Z:PROC ; icu_56::CharsetRecog_windows_1256::match
EXTRN	??_ECharsetRecog_windows_1256@icu_56@@UAEPAXI@Z:PROC ; icu_56::CharsetRecog_windows_1256::`vector deleting destructor'
;	COMDAT ??_R1A@?0A@EA@CharsetRecog_windows_1256@icu_56@@8
rdata$r	SEGMENT
??_R1A@?0A@EA@CharsetRecog_windows_1256@icu_56@@8 DD FLAT:??_R0?AVCharsetRecog_windows_1256@icu_56@@@8 ; icu_56::CharsetRecog_windows_1256::`RTTI Base Class Descriptor at (0,-1,0,64)'
	DD	03H
	DD	00H
	DD	0ffffffffH
	DD	00H
	DD	040H
	DD	FLAT:??_R3CharsetRecog_windows_1256@icu_56@@8
rdata$r	ENDS
;	COMDAT ??_R2CharsetRecog_windows_1256@icu_56@@8
rdata$r	SEGMENT
??_R2CharsetRecog_windows_1256@icu_56@@8 DD FLAT:??_R1A@?0A@EA@CharsetRecog_windows_1256@icu_56@@8 ; icu_56::CharsetRecog_windows_1256::`RTTI Base Class Array'
	DD	FLAT:??_R1A@?0A@EA@CharsetRecog_sbcs@icu_56@@8
	DD	FLAT:??_R1A@?0A@EA@CharsetRecognizer@icu_56@@8
	DD	FLAT:??_R13?0A@EA@UMemory@icu_56@@8
rdata$r	ENDS
;	COMDAT ??_R3CharsetRecog_windows_1256@icu_56@@8
rdata$r	SEGMENT
??_R3CharsetRecog_windows_1256@icu_56@@8 DD 00H		; icu_56::CharsetRecog_windows_1256::`RTTI Class Hierarchy Descriptor'
	DD	00H
	DD	04H
	DD	FLAT:??_R2CharsetRecog_windows_1256@icu_56@@8
rdata$r	ENDS
;	COMDAT ??_R0?AVCharsetRecog_windows_1256@icu_56@@@8
_DATA	SEGMENT
??_R0?AVCharsetRecog_windows_1256@icu_56@@@8 DD FLAT:??_7type_info@@6B@ ; icu_56::CharsetRecog_windows_1256 `RTTI Type Descriptor'
	DD	00H
	DB	'.?AVCharsetRecog_windows_1256@icu_56@@', 00H
_DATA	ENDS
;	COMDAT ??_R4CharsetRecog_windows_1256@icu_56@@6B@
rdata$r	SEGMENT
??_R4CharsetRecog_windows_1256@icu_56@@6B@ DD 00H	; icu_56::CharsetRecog_windows_1256::`RTTI Complete Object Locator'
	DD	00H
	DD	00H
	DD	FLAT:??_R0?AVCharsetRecog_windows_1256@icu_56@@@8
	DD	FLAT:??_R3CharsetRecog_windows_1256@icu_56@@8
rdata$r	ENDS
;	COMDAT ??_7CharsetRecog_windows_1256@icu_56@@6B@
CONST	SEGMENT
??_7CharsetRecog_windows_1256@icu_56@@6B@ DD FLAT:??_R4CharsetRecog_windows_1256@icu_56@@6B@ ; icu_56::CharsetRecog_windows_1256::`vftable'
	DD	FLAT:?getName@CharsetRecog_windows_1256@icu_56@@UBEPBDXZ
	DD	FLAT:?getLanguage@CharsetRecog_windows_1256@icu_56@@UBEPBDXZ
	DD	FLAT:?match@CharsetRecog_windows_1256@icu_56@@UBECPAVInputText@2@PAVCharsetMatch@2@@Z
	DD	FLAT:??_ECharsetRecog_windows_1256@icu_56@@UAEPAXI@Z
	DD	FLAT:?match_sbcs@CharsetRecog_sbcs@icu_56@@UBEHPAVInputText@2@QBHQBE@Z
; Function compile flags: /Odtp /RTCsu /ZI
CONST	ENDS
;	COMDAT ??0CharsetRecog_windows_1256@icu_56@@QAE@XZ
_TEXT	SEGMENT
_this$ = -8						; size = 4
??0CharsetRecog_windows_1256@icu_56@@QAE@XZ PROC	; icu_56::CharsetRecog_windows_1256::CharsetRecog_windows_1256, COMDAT
; _this$ = ecx
	push	ebp
	mov	ebp, esp
	sub	esp, 204				; 000000ccH
	push	ebx
	push	esi
	push	edi
	push	ecx
	lea	edi, DWORD PTR [ebp-204]
	mov	ecx, 51					; 00000033H
	mov	eax, -858993460				; ccccccccH
	rep stosd
	pop	ecx
	mov	DWORD PTR _this$[ebp], ecx
	mov	ecx, DWORD PTR _this$[ebp]
	call	??0CharsetRecog_sbcs@icu_56@@QAE@XZ	; icu_56::CharsetRecog_sbcs::CharsetRecog_sbcs
	mov	eax, DWORD PTR _this$[ebp]
	mov	DWORD PTR [eax], OFFSET ??_7CharsetRecog_windows_1256@icu_56@@6B@
	mov	eax, DWORD PTR _this$[ebp]
	pop	edi
	pop	esi
	pop	ebx
	add	esp, 204				; 000000ccH
	cmp	ebp, esp
	call	__RTC_CheckEsp
	mov	esp, ebp
	pop	ebp
	ret	0
??0CharsetRecog_windows_1256@icu_56@@QAE@XZ ENDP	; icu_56::CharsetRecog_windows_1256::CharsetRecog_windows_1256
_TEXT	ENDS
PUBLIC	??_7CharsetRecog_KOI8_R@icu_56@@6B@		; icu_56::CharsetRecog_KOI8_R::`vftable'
PUBLIC	??_R4CharsetRecog_KOI8_R@icu_56@@6B@		; icu_56::CharsetRecog_KOI8_R::`RTTI Complete Object Locator'
PUBLIC	??_R0?AVCharsetRecog_KOI8_R@icu_56@@@8		; icu_56::CharsetRecog_KOI8_R `RTTI Type Descriptor'
PUBLIC	??_R3CharsetRecog_KOI8_R@icu_56@@8		; icu_56::CharsetRecog_KOI8_R::`RTTI Class Hierarchy Descriptor'
PUBLIC	??_R2CharsetRecog_KOI8_R@icu_56@@8		; icu_56::CharsetRecog_KOI8_R::`RTTI Base Class Array'
PUBLIC	??_R1A@?0A@EA@CharsetRecog_KOI8_R@icu_56@@8	; icu_56::CharsetRecog_KOI8_R::`RTTI Base Class Descriptor at (0,-1,0,64)'
EXTRN	?getName@CharsetRecog_KOI8_R@icu_56@@UBEPBDXZ:PROC ; icu_56::CharsetRecog_KOI8_R::getName
EXTRN	?getLanguage@CharsetRecog_KOI8_R@icu_56@@UBEPBDXZ:PROC ; icu_56::CharsetRecog_KOI8_R::getLanguage
EXTRN	?match@CharsetRecog_KOI8_R@icu_56@@UBECPAVInputText@2@PAVCharsetMatch@2@@Z:PROC ; icu_56::CharsetRecog_KOI8_R::match
EXTRN	??_ECharsetRecog_KOI8_R@icu_56@@UAEPAXI@Z:PROC	; icu_56::CharsetRecog_KOI8_R::`vector deleting destructor'
;	COMDAT ??_R1A@?0A@EA@CharsetRecog_KOI8_R@icu_56@@8
rdata$r	SEGMENT
??_R1A@?0A@EA@CharsetRecog_KOI8_R@icu_56@@8 DD FLAT:??_R0?AVCharsetRecog_KOI8_R@icu_56@@@8 ; icu_56::CharsetRecog_KOI8_R::`RTTI Base Class Descriptor at (0,-1,0,64)'
	DD	03H
	DD	00H
	DD	0ffffffffH
	DD	00H
	DD	040H
	DD	FLAT:??_R3CharsetRecog_KOI8_R@icu_56@@8
rdata$r	ENDS
;	COMDAT ??_R2CharsetRecog_KOI8_R@icu_56@@8
rdata$r	SEGMENT
??_R2CharsetRecog_KOI8_R@icu_56@@8 DD FLAT:??_R1A@?0A@EA@CharsetRecog_KOI8_R@icu_56@@8 ; icu_56::CharsetRecog_KOI8_R::`RTTI Base Class Array'
	DD	FLAT:??_R1A@?0A@EA@CharsetRecog_sbcs@icu_56@@8
	DD	FLAT:??_R1A@?0A@EA@CharsetRecognizer@icu_56@@8
	DD	FLAT:??_R13?0A@EA@UMemory@icu_56@@8
rdata$r	ENDS
;	COMDAT ??_R3CharsetRecog_KOI8_R@icu_56@@8
rdata$r	SEGMENT
??_R3CharsetRecog_KOI8_R@icu_56@@8 DD 00H		; icu_56::CharsetRecog_KOI8_R::`RTTI Class Hierarchy Descriptor'
	DD	00H
	DD	04H
	DD	FLAT:??_R2CharsetRecog_KOI8_R@icu_56@@8
rdata$r	ENDS
;	COMDAT ??_R0?AVCharsetRecog_KOI8_R@icu_56@@@8
_DATA	SEGMENT
??_R0?AVCharsetRecog_KOI8_R@icu_56@@@8 DD FLAT:??_7type_info@@6B@ ; icu_56::CharsetRecog_KOI8_R `RTTI Type Descriptor'
	DD	00H
	DB	'.?AVCharsetRecog_KOI8_R@icu_56@@', 00H
_DATA	ENDS
;	COMDAT ??_R4CharsetRecog_KOI8_R@icu_56@@6B@
rdata$r	SEGMENT
??_R4CharsetRecog_KOI8_R@icu_56@@6B@ DD 00H		; icu_56::CharsetRecog_KOI8_R::`RTTI Complete Object Locator'
	DD	00H
	DD	00H
	DD	FLAT:??_R0?AVCharsetRecog_KOI8_R@icu_56@@@8
	DD	FLAT:??_R3CharsetRecog_KOI8_R@icu_56@@8
rdata$r	ENDS
;	COMDAT ??_7CharsetRecog_KOI8_R@icu_56@@6B@
CONST	SEGMENT
??_7CharsetRecog_KOI8_R@icu_56@@6B@ DD FLAT:??_R4CharsetRecog_KOI8_R@icu_56@@6B@ ; icu_56::CharsetRecog_KOI8_R::`vftable'
	DD	FLAT:?getName@CharsetRecog_KOI8_R@icu_56@@UBEPBDXZ
	DD	FLAT:?getLanguage@CharsetRecog_KOI8_R@icu_56@@UBEPBDXZ
	DD	FLAT:?match@CharsetRecog_KOI8_R@icu_56@@UBECPAVInputText@2@PAVCharsetMatch@2@@Z
	DD	FLAT:??_ECharsetRecog_KOI8_R@icu_56@@UAEPAXI@Z
	DD	FLAT:?match_sbcs@CharsetRecog_sbcs@icu_56@@UBEHPAVInputText@2@QBHQBE@Z
; Function compile flags: /Odtp /RTCsu /ZI
CONST	ENDS
;	COMDAT ??0CharsetRecog_KOI8_R@icu_56@@QAE@XZ
_TEXT	SEGMENT
_this$ = -8						; size = 4
??0CharsetRecog_KOI8_R@icu_56@@QAE@XZ PROC		; icu_56::CharsetRecog_KOI8_R::CharsetRecog_KOI8_R, COMDAT
; _this$ = ecx
	push	ebp
	mov	ebp, esp
	sub	esp, 204				; 000000ccH
	push	ebx
	push	esi
	push	edi
	push	ecx
	lea	edi, DWORD PTR [ebp-204]
	mov	ecx, 51					; 00000033H
	mov	eax, -858993460				; ccccccccH
	rep stosd
	pop	ecx
	mov	DWORD PTR _this$[ebp], ecx
	mov	ecx, DWORD PTR _this$[ebp]
	call	??0CharsetRecog_sbcs@icu_56@@QAE@XZ	; icu_56::CharsetRecog_sbcs::CharsetRecog_sbcs
	mov	eax, DWORD PTR _this$[ebp]
	mov	DWORD PTR [eax], OFFSET ??_7CharsetRecog_KOI8_R@icu_56@@6B@
	mov	eax, DWORD PTR _this$[ebp]
	pop	edi
	pop	esi
	pop	ebx
	add	esp, 204				; 000000ccH
	cmp	ebp, esp
	call	__RTC_CheckEsp
	mov	esp, ebp
	pop	ebp
	ret	0
??0CharsetRecog_KOI8_R@icu_56@@QAE@XZ ENDP		; icu_56::CharsetRecog_KOI8_R::CharsetRecog_KOI8_R
_TEXT	ENDS
PUBLIC	??_7CharsetRecog_8859_9_tr@icu_56@@6B@		; icu_56::CharsetRecog_8859_9_tr::`vftable'
PUBLIC	??0CharsetRecog_8859_9@icu_56@@QAE@XZ		; icu_56::CharsetRecog_8859_9::CharsetRecog_8859_9
PUBLIC	??_R4CharsetRecog_8859_9_tr@icu_56@@6B@		; icu_56::CharsetRecog_8859_9_tr::`RTTI Complete Object Locator'
PUBLIC	??_R0?AVCharsetRecog_8859_9_tr@icu_56@@@8	; icu_56::CharsetRecog_8859_9_tr `RTTI Type Descriptor'
PUBLIC	??_R3CharsetRecog_8859_9_tr@icu_56@@8		; icu_56::CharsetRecog_8859_9_tr::`RTTI Class Hierarchy Descriptor'
PUBLIC	??_R2CharsetRecog_8859_9_tr@icu_56@@8		; icu_56::CharsetRecog_8859_9_tr::`RTTI Base Class Array'
PUBLIC	??_R1A@?0A@EA@CharsetRecog_8859_9_tr@icu_56@@8	; icu_56::CharsetRecog_8859_9_tr::`RTTI Base Class Descriptor at (0,-1,0,64)'
PUBLIC	??_R1A@?0A@EA@CharsetRecog_8859_9@icu_56@@8	; icu_56::CharsetRecog_8859_9::`RTTI Base Class Descriptor at (0,-1,0,64)'
PUBLIC	??_R0?AVCharsetRecog_8859_9@icu_56@@@8		; icu_56::CharsetRecog_8859_9 `RTTI Type Descriptor'
PUBLIC	??_R3CharsetRecog_8859_9@icu_56@@8		; icu_56::CharsetRecog_8859_9::`RTTI Class Hierarchy Descriptor'
PUBLIC	??_R2CharsetRecog_8859_9@icu_56@@8		; icu_56::CharsetRecog_8859_9::`RTTI Base Class Array'
EXTRN	?getName@CharsetRecog_8859_9@icu_56@@UBEPBDXZ:PROC ; icu_56::CharsetRecog_8859_9::getName
EXTRN	?getLanguage@CharsetRecog_8859_9_tr@icu_56@@UBEPBDXZ:PROC ; icu_56::CharsetRecog_8859_9_tr::getLanguage
EXTRN	?match@CharsetRecog_8859_9_tr@icu_56@@UBECPAVInputText@2@PAVCharsetMatch@2@@Z:PROC ; icu_56::CharsetRecog_8859_9_tr::match
EXTRN	??_ECharsetRecog_8859_9_tr@icu_56@@UAEPAXI@Z:PROC ; icu_56::CharsetRecog_8859_9_tr::`vector deleting destructor'
;	COMDAT ??_R2CharsetRecog_8859_9@icu_56@@8
rdata$r	SEGMENT
??_R2CharsetRecog_8859_9@icu_56@@8 DD FLAT:??_R1A@?0A@EA@CharsetRecog_8859_9@icu_56@@8 ; icu_56::CharsetRecog_8859_9::`RTTI Base Class Array'
	DD	FLAT:??_R1A@?0A@EA@CharsetRecog_sbcs@icu_56@@8
	DD	FLAT:??_R1A@?0A@EA@CharsetRecognizer@icu_56@@8
	DD	FLAT:??_R13?0A@EA@UMemory@icu_56@@8
rdata$r	ENDS
;	COMDAT ??_R3CharsetRecog_8859_9@icu_56@@8
rdata$r	SEGMENT
??_R3CharsetRecog_8859_9@icu_56@@8 DD 00H		; icu_56::CharsetRecog_8859_9::`RTTI Class Hierarchy Descriptor'
	DD	00H
	DD	04H
	DD	FLAT:??_R2CharsetRecog_8859_9@icu_56@@8
rdata$r	ENDS
;	COMDAT ??_R0?AVCharsetRecog_8859_9@icu_56@@@8
_DATA	SEGMENT
??_R0?AVCharsetRecog_8859_9@icu_56@@@8 DD FLAT:??_7type_info@@6B@ ; icu_56::CharsetRecog_8859_9 `RTTI Type Descriptor'
	DD	00H
	DB	'.?AVCharsetRecog_8859_9@icu_56@@', 00H
_DATA	ENDS
;	COMDAT ??_R1A@?0A@EA@CharsetRecog_8859_9@icu_56@@8
rdata$r	SEGMENT
??_R1A@?0A@EA@CharsetRecog_8859_9@icu_56@@8 DD FLAT:??_R0?AVCharsetRecog_8859_9@icu_56@@@8 ; icu_56::CharsetRecog_8859_9::`RTTI Base Class Descriptor at (0,-1,0,64)'
	DD	03H
	DD	00H
	DD	0ffffffffH
	DD	00H
	DD	040H
	DD	FLAT:??_R3CharsetRecog_8859_9@icu_56@@8
rdata$r	ENDS
;	COMDAT ??_R1A@?0A@EA@CharsetRecog_8859_9_tr@icu_56@@8
rdata$r	SEGMENT
??_R1A@?0A@EA@CharsetRecog_8859_9_tr@icu_56@@8 DD FLAT:??_R0?AVCharsetRecog_8859_9_tr@icu_56@@@8 ; icu_56::CharsetRecog_8859_9_tr::`RTTI Base Class Descriptor at (0,-1,0,64)'
	DD	04H
	DD	00H
	DD	0ffffffffH
	DD	00H
	DD	040H
	DD	FLAT:??_R3CharsetRecog_8859_9_tr@icu_56@@8
rdata$r	ENDS
;	COMDAT ??_R2CharsetRecog_8859_9_tr@icu_56@@8
rdata$r	SEGMENT
??_R2CharsetRecog_8859_9_tr@icu_56@@8 DD FLAT:??_R1A@?0A@EA@CharsetRecog_8859_9_tr@icu_56@@8 ; icu_56::CharsetRecog_8859_9_tr::`RTTI Base Class Array'
	DD	FLAT:??_R1A@?0A@EA@CharsetRecog_8859_9@icu_56@@8
	DD	FLAT:??_R1A@?0A@EA@CharsetRecog_sbcs@icu_56@@8
	DD	FLAT:??_R1A@?0A@EA@CharsetRecognizer@icu_56@@8
	DD	FLAT:??_R13?0A@EA@UMemory@icu_56@@8
rdata$r	ENDS
;	COMDAT ??_R3CharsetRecog_8859_9_tr@icu_56@@8
rdata$r	SEGMENT
??_R3CharsetRecog_8859_9_tr@icu_56@@8 DD 00H		; icu_56::CharsetRecog_8859_9_tr::`RTTI Class Hierarchy Descriptor'
	DD	00H
	DD	05H
	DD	FLAT:??_R2CharsetRecog_8859_9_tr@icu_56@@8
rdata$r	ENDS
;	COMDAT ??_R0?AVCharsetRecog_8859_9_tr@icu_56@@@8
_DATA	SEGMENT
??_R0?AVCharsetRecog_8859_9_tr@icu_56@@@8 DD FLAT:??_7type_info@@6B@ ; icu_56::CharsetRecog_8859_9_tr `RTTI Type Descriptor'
	DD	00H
	DB	'.?AVCharsetRecog_8859_9_tr@icu_56@@', 00H
_DATA	ENDS
;	COMDAT ??_R4CharsetRecog_8859_9_tr@icu_56@@6B@
rdata$r	SEGMENT
??_R4CharsetRecog_8859_9_tr@icu_56@@6B@ DD 00H		; icu_56::CharsetRecog_8859_9_tr::`RTTI Complete Object Locator'
	DD	00H
	DD	00H
	DD	FLAT:??_R0?AVCharsetRecog_8859_9_tr@icu_56@@@8
	DD	FLAT:??_R3CharsetRecog_8859_9_tr@icu_56@@8
rdata$r	ENDS
;	COMDAT ??_7CharsetRecog_8859_9_tr@icu_56@@6B@
CONST	SEGMENT
??_7CharsetRecog_8859_9_tr@icu_56@@6B@ DD FLAT:??_R4CharsetRecog_8859_9_tr@icu_56@@6B@ ; icu_56::CharsetRecog_8859_9_tr::`vftable'
	DD	FLAT:?getName@CharsetRecog_8859_9@icu_56@@UBEPBDXZ
	DD	FLAT:?getLanguage@CharsetRecog_8859_9_tr@icu_56@@UBEPBDXZ
	DD	FLAT:?match@CharsetRecog_8859_9_tr@icu_56@@UBECPAVInputText@2@PAVCharsetMatch@2@@Z
	DD	FLAT:??_ECharsetRecog_8859_9_tr@icu_56@@UAEPAXI@Z
	DD	FLAT:?match_sbcs@CharsetRecog_sbcs@icu_56@@UBEHPAVInputText@2@QBHQBE@Z
; Function compile flags: /Odtp /RTCsu /ZI
CONST	ENDS
;	COMDAT ??0CharsetRecog_8859_9_tr@icu_56@@QAE@XZ
_TEXT	SEGMENT
_this$ = -8						; size = 4
??0CharsetRecog_8859_9_tr@icu_56@@QAE@XZ PROC		; icu_56::CharsetRecog_8859_9_tr::CharsetRecog_8859_9_tr, COMDAT
; _this$ = ecx
	push	ebp
	mov	ebp, esp
	sub	esp, 204				; 000000ccH
	push	ebx
	push	esi
	push	edi
	push	ecx
	lea	edi, DWORD PTR [ebp-204]
	mov	ecx, 51					; 00000033H
	mov	eax, -858993460				; ccccccccH
	rep stosd
	pop	ecx
	mov	DWORD PTR _this$[ebp], ecx
	mov	ecx, DWORD PTR _this$[ebp]
	call	??0CharsetRecog_8859_9@icu_56@@QAE@XZ
	mov	eax, DWORD PTR _this$[ebp]
	mov	DWORD PTR [eax], OFFSET ??_7CharsetRecog_8859_9_tr@icu_56@@6B@
	mov	eax, DWORD PTR _this$[ebp]
	pop	edi
	pop	esi
	pop	ebx
	add	esp, 204				; 000000ccH
	cmp	ebp, esp
	call	__RTC_CheckEsp
	mov	esp, ebp
	pop	ebp
	ret	0
??0CharsetRecog_8859_9_tr@icu_56@@QAE@XZ ENDP		; icu_56::CharsetRecog_8859_9_tr::CharsetRecog_8859_9_tr
_TEXT	ENDS
PUBLIC	??_7CharsetRecog_sjis@icu_56@@6B@		; icu_56::CharsetRecog_sjis::`vftable'
PUBLIC	??0CharsetRecog_mbcs@icu_56@@QAE@XZ		; icu_56::CharsetRecog_mbcs::CharsetRecog_mbcs
PUBLIC	??_R4CharsetRecog_sjis@icu_56@@6B@		; icu_56::CharsetRecog_sjis::`RTTI Complete Object Locator'
PUBLIC	??_R0?AVCharsetRecog_sjis@icu_56@@@8		; icu_56::CharsetRecog_sjis `RTTI Type Descriptor'
PUBLIC	??_R3CharsetRecog_sjis@icu_56@@8		; icu_56::CharsetRecog_sjis::`RTTI Class Hierarchy Descriptor'
PUBLIC	??_R2CharsetRecog_sjis@icu_56@@8		; icu_56::CharsetRecog_sjis::`RTTI Base Class Array'
PUBLIC	??_R1A@?0A@EA@CharsetRecog_sjis@icu_56@@8	; icu_56::CharsetRecog_sjis::`RTTI Base Class Descriptor at (0,-1,0,64)'
PUBLIC	??_R1A@?0A@EA@CharsetRecog_mbcs@icu_56@@8	; icu_56::CharsetRecog_mbcs::`RTTI Base Class Descriptor at (0,-1,0,64)'
PUBLIC	??_R0?AVCharsetRecog_mbcs@icu_56@@@8		; icu_56::CharsetRecog_mbcs `RTTI Type Descriptor'
PUBLIC	??_R3CharsetRecog_mbcs@icu_56@@8		; icu_56::CharsetRecog_mbcs::`RTTI Class Hierarchy Descriptor'
PUBLIC	??_R2CharsetRecog_mbcs@icu_56@@8		; icu_56::CharsetRecog_mbcs::`RTTI Base Class Array'
EXTRN	?getName@CharsetRecog_sjis@icu_56@@UBEPBDXZ:PROC ; icu_56::CharsetRecog_sjis::getName
EXTRN	?getLanguage@CharsetRecog_sjis@icu_56@@UBEPBDXZ:PROC ; icu_56::CharsetRecog_sjis::getLanguage
EXTRN	?match@CharsetRecog_sjis@icu_56@@UBECPAVInputText@2@PAVCharsetMatch@2@@Z:PROC ; icu_56::CharsetRecog_sjis::match
EXTRN	??_ECharsetRecog_sjis@icu_56@@UAEPAXI@Z:PROC	; icu_56::CharsetRecog_sjis::`vector deleting destructor'
EXTRN	?nextChar@CharsetRecog_sjis@icu_56@@UBECPAVIteratedChar@2@PAVInputText@2@@Z:PROC ; icu_56::CharsetRecog_sjis::nextChar
;	COMDAT ??_R2CharsetRecog_mbcs@icu_56@@8
rdata$r	SEGMENT
??_R2CharsetRecog_mbcs@icu_56@@8 DD FLAT:??_R1A@?0A@EA@CharsetRecog_mbcs@icu_56@@8 ; icu_56::CharsetRecog_mbcs::`RTTI Base Class Array'
	DD	FLAT:??_R1A@?0A@EA@CharsetRecognizer@icu_56@@8
	DD	FLAT:??_R13?0A@EA@UMemory@icu_56@@8
rdata$r	ENDS
;	COMDAT ??_R3CharsetRecog_mbcs@icu_56@@8
rdata$r	SEGMENT
??_R3CharsetRecog_mbcs@icu_56@@8 DD 00H			; icu_56::CharsetRecog_mbcs::`RTTI Class Hierarchy Descriptor'
	DD	00H
	DD	03H
	DD	FLAT:??_R2CharsetRecog_mbcs@icu_56@@8
rdata$r	ENDS
;	COMDAT ??_R0?AVCharsetRecog_mbcs@icu_56@@@8
_DATA	SEGMENT
??_R0?AVCharsetRecog_mbcs@icu_56@@@8 DD FLAT:??_7type_info@@6B@ ; icu_56::CharsetRecog_mbcs `RTTI Type Descriptor'
	DD	00H
	DB	'.?AVCharsetRecog_mbcs@icu_56@@', 00H
_DATA	ENDS
;	COMDAT ??_R1A@?0A@EA@CharsetRecog_mbcs@icu_56@@8
rdata$r	SEGMENT
??_R1A@?0A@EA@CharsetRecog_mbcs@icu_56@@8 DD FLAT:??_R0?AVCharsetRecog_mbcs@icu_56@@@8 ; icu_56::CharsetRecog_mbcs::`RTTI Base Class Descriptor at (0,-1,0,64)'
	DD	02H
	DD	00H
	DD	0ffffffffH
	DD	00H
	DD	040H
	DD	FLAT:??_R3CharsetRecog_mbcs@icu_56@@8
rdata$r	ENDS
;	COMDAT ??_R1A@?0A@EA@CharsetRecog_sjis@icu_56@@8
rdata$r	SEGMENT
??_R1A@?0A@EA@CharsetRecog_sjis@icu_56@@8 DD FLAT:??_R0?AVCharsetRecog_sjis@icu_56@@@8 ; icu_56::CharsetRecog_sjis::`RTTI Base Class Descriptor at (0,-1,0,64)'
	DD	03H
	DD	00H
	DD	0ffffffffH
	DD	00H
	DD	040H
	DD	FLAT:??_R3CharsetRecog_sjis@icu_56@@8
rdata$r	ENDS
;	COMDAT ??_R2CharsetRecog_sjis@icu_56@@8
rdata$r	SEGMENT
??_R2CharsetRecog_sjis@icu_56@@8 DD FLAT:??_R1A@?0A@EA@CharsetRecog_sjis@icu_56@@8 ; icu_56::CharsetRecog_sjis::`RTTI Base Class Array'
	DD	FLAT:??_R1A@?0A@EA@CharsetRecog_mbcs@icu_56@@8
	DD	FLAT:??_R1A@?0A@EA@CharsetRecognizer@icu_56@@8
	DD	FLAT:??_R13?0A@EA@UMemory@icu_56@@8
rdata$r	ENDS
;	COMDAT ??_R3CharsetRecog_sjis@icu_56@@8
rdata$r	SEGMENT
??_R3CharsetRecog_sjis@icu_56@@8 DD 00H			; icu_56::CharsetRecog_sjis::`RTTI Class Hierarchy Descriptor'
	DD	00H
	DD	04H
	DD	FLAT:??_R2CharsetRecog_sjis@icu_56@@8
rdata$r	ENDS
;	COMDAT ??_R0?AVCharsetRecog_sjis@icu_56@@@8
_DATA	SEGMENT
??_R0?AVCharsetRecog_sjis@icu_56@@@8 DD FLAT:??_7type_info@@6B@ ; icu_56::CharsetRecog_sjis `RTTI Type Descriptor'
	DD	00H
	DB	'.?AVCharsetRecog_sjis@icu_56@@', 00H
_DATA	ENDS
;	COMDAT ??_R4CharsetRecog_sjis@icu_56@@6B@
rdata$r	SEGMENT
??_R4CharsetRecog_sjis@icu_56@@6B@ DD 00H		; icu_56::CharsetRecog_sjis::`RTTI Complete Object Locator'
	DD	00H
	DD	00H
	DD	FLAT:??_R0?AVCharsetRecog_sjis@icu_56@@@8
	DD	FLAT:??_R3CharsetRecog_sjis@icu_56@@8
rdata$r	ENDS
;	COMDAT ??_7CharsetRecog_sjis@icu_56@@6B@
CONST	SEGMENT
??_7CharsetRecog_sjis@icu_56@@6B@ DD FLAT:??_R4CharsetRecog_sjis@icu_56@@6B@ ; icu_56::CharsetRecog_sjis::`vftable'
	DD	FLAT:?getName@CharsetRecog_sjis@icu_56@@UBEPBDXZ
	DD	FLAT:?getLanguage@CharsetRecog_sjis@icu_56@@UBEPBDXZ
	DD	FLAT:?match@CharsetRecog_sjis@icu_56@@UBECPAVInputText@2@PAVCharsetMatch@2@@Z
	DD	FLAT:??_ECharsetRecog_sjis@icu_56@@UAEPAXI@Z
	DD	FLAT:?nextChar@CharsetRecog_sjis@icu_56@@UBECPAVIteratedChar@2@PAVInputText@2@@Z
; Function compile flags: /Odtp /RTCsu /ZI
CONST	ENDS
;	COMDAT ??0CharsetRecog_sjis@icu_56@@QAE@XZ
_TEXT	SEGMENT
_this$ = -8						; size = 4
??0CharsetRecog_sjis@icu_56@@QAE@XZ PROC		; icu_56::CharsetRecog_sjis::CharsetRecog_sjis, COMDAT
; _this$ = ecx
	push	ebp
	mov	ebp, esp
	sub	esp, 204				; 000000ccH
	push	ebx
	push	esi
	push	edi
	push	ecx
	lea	edi, DWORD PTR [ebp-204]
	mov	ecx, 51					; 00000033H
	mov	eax, -858993460				; ccccccccH
	rep stosd
	pop	ecx
	mov	DWORD PTR _this$[ebp], ecx
	mov	ecx, DWORD PTR _this$[ebp]
	call	??0CharsetRecog_mbcs@icu_56@@QAE@XZ
	mov	eax, DWORD PTR _this$[ebp]
	mov	DWORD PTR [eax], OFFSET ??_7CharsetRecog_sjis@icu_56@@6B@
	mov	eax, DWORD PTR _this$[ebp]
	pop	edi
	pop	esi
	pop	ebx
	add	esp, 204				; 000000ccH
	cmp	ebp, esp
	call	__RTC_CheckEsp
	mov	esp, ebp
	pop	ebp
	ret	0
??0CharsetRecog_sjis@icu_56@@QAE@XZ ENDP		; icu_56::CharsetRecog_sjis::CharsetRecog_sjis
_TEXT	ENDS
PUBLIC	??_7CharsetRecog_gb_18030@icu_56@@6B@		; icu_56::CharsetRecog_gb_18030::`vftable'
PUBLIC	??_R4CharsetRecog_gb_18030@icu_56@@6B@		; icu_56::CharsetRecog_gb_18030::`RTTI Complete Object Locator'
PUBLIC	??_R0?AVCharsetRecog_gb_18030@icu_56@@@8	; icu_56::CharsetRecog_gb_18030 `RTTI Type Descriptor'
PUBLIC	??_R3CharsetRecog_gb_18030@icu_56@@8		; icu_56::CharsetRecog_gb_18030::`RTTI Class Hierarchy Descriptor'
PUBLIC	??_R2CharsetRecog_gb_18030@icu_56@@8		; icu_56::CharsetRecog_gb_18030::`RTTI Base Class Array'
PUBLIC	??_R1A@?0A@EA@CharsetRecog_gb_18030@icu_56@@8	; icu_56::CharsetRecog_gb_18030::`RTTI Base Class Descriptor at (0,-1,0,64)'
EXTRN	?getName@CharsetRecog_gb_18030@icu_56@@UBEPBDXZ:PROC ; icu_56::CharsetRecog_gb_18030::getName
EXTRN	?getLanguage@CharsetRecog_gb_18030@icu_56@@UBEPBDXZ:PROC ; icu_56::CharsetRecog_gb_18030::getLanguage
EXTRN	?match@CharsetRecog_gb_18030@icu_56@@UBECPAVInputText@2@PAVCharsetMatch@2@@Z:PROC ; icu_56::CharsetRecog_gb_18030::match
EXTRN	??_ECharsetRecog_gb_18030@icu_56@@UAEPAXI@Z:PROC ; icu_56::CharsetRecog_gb_18030::`vector deleting destructor'
EXTRN	?nextChar@CharsetRecog_gb_18030@icu_56@@UBECPAVIteratedChar@2@PAVInputText@2@@Z:PROC ; icu_56::CharsetRecog_gb_18030::nextChar
;	COMDAT ??_R1A@?0A@EA@CharsetRecog_gb_18030@icu_56@@8
rdata$r	SEGMENT
??_R1A@?0A@EA@CharsetRecog_gb_18030@icu_56@@8 DD FLAT:??_R0?AVCharsetRecog_gb_18030@icu_56@@@8 ; icu_56::CharsetRecog_gb_18030::`RTTI Base Class Descriptor at (0,-1,0,64)'
	DD	03H
	DD	00H
	DD	0ffffffffH
	DD	00H
	DD	040H
	DD	FLAT:??_R3CharsetRecog_gb_18030@icu_56@@8
rdata$r	ENDS
;	COMDAT ??_R2CharsetRecog_gb_18030@icu_56@@8
rdata$r	SEGMENT
??_R2CharsetRecog_gb_18030@icu_56@@8 DD FLAT:??_R1A@?0A@EA@CharsetRecog_gb_18030@icu_56@@8 ; icu_56::CharsetRecog_gb_18030::`RTTI Base Class Array'
	DD	FLAT:??_R1A@?0A@EA@CharsetRecog_mbcs@icu_56@@8
	DD	FLAT:??_R1A@?0A@EA@CharsetRecognizer@icu_56@@8
	DD	FLAT:??_R13?0A@EA@UMemory@icu_56@@8
rdata$r	ENDS
;	COMDAT ??_R3CharsetRecog_gb_18030@icu_56@@8
rdata$r	SEGMENT
??_R3CharsetRecog_gb_18030@icu_56@@8 DD 00H		; icu_56::CharsetRecog_gb_18030::`RTTI Class Hierarchy Descriptor'
	DD	00H
	DD	04H
	DD	FLAT:??_R2CharsetRecog_gb_18030@icu_56@@8
rdata$r	ENDS
;	COMDAT ??_R0?AVCharsetRecog_gb_18030@icu_56@@@8
_DATA	SEGMENT
??_R0?AVCharsetRecog_gb_18030@icu_56@@@8 DD FLAT:??_7type_info@@6B@ ; icu_56::CharsetRecog_gb_18030 `RTTI Type Descriptor'
	DD	00H
	DB	'.?AVCharsetRecog_gb_18030@icu_56@@', 00H
_DATA	ENDS
;	COMDAT ??_R4CharsetRecog_gb_18030@icu_56@@6B@
rdata$r	SEGMENT
??_R4CharsetRecog_gb_18030@icu_56@@6B@ DD 00H		; icu_56::CharsetRecog_gb_18030::`RTTI Complete Object Locator'
	DD	00H
	DD	00H
	DD	FLAT:??_R0?AVCharsetRecog_gb_18030@icu_56@@@8
	DD	FLAT:??_R3CharsetRecog_gb_18030@icu_56@@8
rdata$r	ENDS
;	COMDAT ??_7CharsetRecog_gb_18030@icu_56@@6B@
CONST	SEGMENT
??_7CharsetRecog_gb_18030@icu_56@@6B@ DD FLAT:??_R4CharsetRecog_gb_18030@icu_56@@6B@ ; icu_56::CharsetRecog_gb_18030::`vftable'
	DD	FLAT:?getName@CharsetRecog_gb_18030@icu_56@@UBEPBDXZ
	DD	FLAT:?getLanguage@CharsetRecog_gb_18030@icu_56@@UBEPBDXZ
	DD	FLAT:?match@CharsetRecog_gb_18030@icu_56@@UBECPAVInputText@2@PAVCharsetMatch@2@@Z
	DD	FLAT:??_ECharsetRecog_gb_18030@icu_56@@UAEPAXI@Z
	DD	FLAT:?nextChar@CharsetRecog_gb_18030@icu_56@@UBECPAVIteratedChar@2@PAVInputText@2@@Z
; Function compile flags: /Odtp /RTCsu /ZI
CONST	ENDS
;	COMDAT ??0CharsetRecog_gb_18030@icu_56@@QAE@XZ
_TEXT	SEGMENT
_this$ = -8						; size = 4
??0CharsetRecog_gb_18030@icu_56@@QAE@XZ PROC		; icu_56::CharsetRecog_gb_18030::CharsetRecog_gb_18030, COMDAT
; _this$ = ecx
	push	ebp
	mov	ebp, esp
	sub	esp, 204				; 000000ccH
	push	ebx
	push	esi
	push	edi
	push	ecx
	lea	edi, DWORD PTR [ebp-204]
	mov	ecx, 51					; 00000033H
	mov	eax, -858993460				; ccccccccH
	rep stosd
	pop	ecx
	mov	DWORD PTR _this$[ebp], ecx
	mov	ecx, DWORD PTR _this$[ebp]
	call	??0CharsetRecog_mbcs@icu_56@@QAE@XZ
	mov	eax, DWORD PTR _this$[ebp]
	mov	DWORD PTR [eax], OFFSET ??_7CharsetRecog_gb_18030@icu_56@@6B@
	mov	eax, DWORD PTR _this$[ebp]
	pop	edi
	pop	esi
	pop	ebx
	add	esp, 204				; 000000ccH
	cmp	ebp, esp
	call	__RTC_CheckEsp
	mov	esp, ebp
	pop	ebp
	ret	0
??0CharsetRecog_gb_18030@icu_56@@QAE@XZ ENDP		; icu_56::CharsetRecog_gb_18030::CharsetRecog_gb_18030
_TEXT	ENDS
PUBLIC	??_7CharsetRecog_euc_jp@icu_56@@6B@		; icu_56::CharsetRecog_euc_jp::`vftable'
PUBLIC	??0CharsetRecog_euc@icu_56@@QAE@XZ		; icu_56::CharsetRecog_euc::CharsetRecog_euc
PUBLIC	??_R4CharsetRecog_euc_jp@icu_56@@6B@		; icu_56::CharsetRecog_euc_jp::`RTTI Complete Object Locator'
PUBLIC	??_R0?AVCharsetRecog_euc_jp@icu_56@@@8		; icu_56::CharsetRecog_euc_jp `RTTI Type Descriptor'
PUBLIC	??_R3CharsetRecog_euc_jp@icu_56@@8		; icu_56::CharsetRecog_euc_jp::`RTTI Class Hierarchy Descriptor'
PUBLIC	??_R2CharsetRecog_euc_jp@icu_56@@8		; icu_56::CharsetRecog_euc_jp::`RTTI Base Class Array'
PUBLIC	??_R1A@?0A@EA@CharsetRecog_euc_jp@icu_56@@8	; icu_56::CharsetRecog_euc_jp::`RTTI Base Class Descriptor at (0,-1,0,64)'
PUBLIC	??_R1A@?0A@EA@CharsetRecog_euc@icu_56@@8	; icu_56::CharsetRecog_euc::`RTTI Base Class Descriptor at (0,-1,0,64)'
PUBLIC	??_R0?AVCharsetRecog_euc@icu_56@@@8		; icu_56::CharsetRecog_euc `RTTI Type Descriptor'
PUBLIC	??_R3CharsetRecog_euc@icu_56@@8			; icu_56::CharsetRecog_euc::`RTTI Class Hierarchy Descriptor'
PUBLIC	??_R2CharsetRecog_euc@icu_56@@8			; icu_56::CharsetRecog_euc::`RTTI Base Class Array'
EXTRN	?getName@CharsetRecog_euc_jp@icu_56@@UBEPBDXZ:PROC ; icu_56::CharsetRecog_euc_jp::getName
EXTRN	?getLanguage@CharsetRecog_euc_jp@icu_56@@UBEPBDXZ:PROC ; icu_56::CharsetRecog_euc_jp::getLanguage
EXTRN	?match@CharsetRecog_euc_jp@icu_56@@UBECPAVInputText@2@PAVCharsetMatch@2@@Z:PROC ; icu_56::CharsetRecog_euc_jp::match
EXTRN	??_ECharsetRecog_euc_jp@icu_56@@UAEPAXI@Z:PROC	; icu_56::CharsetRecog_euc_jp::`vector deleting destructor'
EXTRN	?nextChar@CharsetRecog_euc@icu_56@@UBECPAVIteratedChar@2@PAVInputText@2@@Z:PROC ; icu_56::CharsetRecog_euc::nextChar
;	COMDAT ??_R2CharsetRecog_euc@icu_56@@8
rdata$r	SEGMENT
??_R2CharsetRecog_euc@icu_56@@8 DD FLAT:??_R1A@?0A@EA@CharsetRecog_euc@icu_56@@8 ; icu_56::CharsetRecog_euc::`RTTI Base Class Array'
	DD	FLAT:??_R1A@?0A@EA@CharsetRecog_mbcs@icu_56@@8
	DD	FLAT:??_R1A@?0A@EA@CharsetRecognizer@icu_56@@8
	DD	FLAT:??_R13?0A@EA@UMemory@icu_56@@8
rdata$r	ENDS
;	COMDAT ??_R3CharsetRecog_euc@icu_56@@8
rdata$r	SEGMENT
??_R3CharsetRecog_euc@icu_56@@8 DD 00H			; icu_56::CharsetRecog_euc::`RTTI Class Hierarchy Descriptor'
	DD	00H
	DD	04H
	DD	FLAT:??_R2CharsetRecog_euc@icu_56@@8
rdata$r	ENDS
;	COMDAT ??_R0?AVCharsetRecog_euc@icu_56@@@8
_DATA	SEGMENT
??_R0?AVCharsetRecog_euc@icu_56@@@8 DD FLAT:??_7type_info@@6B@ ; icu_56::CharsetRecog_euc `RTTI Type Descriptor'
	DD	00H
	DB	'.?AVCharsetRecog_euc@icu_56@@', 00H
_DATA	ENDS
;	COMDAT ??_R1A@?0A@EA@CharsetRecog_euc@icu_56@@8
rdata$r	SEGMENT
??_R1A@?0A@EA@CharsetRecog_euc@icu_56@@8 DD FLAT:??_R0?AVCharsetRecog_euc@icu_56@@@8 ; icu_56::CharsetRecog_euc::`RTTI Base Class Descriptor at (0,-1,0,64)'
	DD	03H
	DD	00H
	DD	0ffffffffH
	DD	00H
	DD	040H
	DD	FLAT:??_R3CharsetRecog_euc@icu_56@@8
rdata$r	ENDS
;	COMDAT ??_R1A@?0A@EA@CharsetRecog_euc_jp@icu_56@@8
rdata$r	SEGMENT
??_R1A@?0A@EA@CharsetRecog_euc_jp@icu_56@@8 DD FLAT:??_R0?AVCharsetRecog_euc_jp@icu_56@@@8 ; icu_56::CharsetRecog_euc_jp::`RTTI Base Class Descriptor at (0,-1,0,64)'
	DD	04H
	DD	00H
	DD	0ffffffffH
	DD	00H
	DD	040H
	DD	FLAT:??_R3CharsetRecog_euc_jp@icu_56@@8
rdata$r	ENDS
;	COMDAT ??_R2CharsetRecog_euc_jp@icu_56@@8
rdata$r	SEGMENT
??_R2CharsetRecog_euc_jp@icu_56@@8 DD FLAT:??_R1A@?0A@EA@CharsetRecog_euc_jp@icu_56@@8 ; icu_56::CharsetRecog_euc_jp::`RTTI Base Class Array'
	DD	FLAT:??_R1A@?0A@EA@CharsetRecog_euc@icu_56@@8
	DD	FLAT:??_R1A@?0A@EA@CharsetRecog_mbcs@icu_56@@8
	DD	FLAT:??_R1A@?0A@EA@CharsetRecognizer@icu_56@@8
	DD	FLAT:??_R13?0A@EA@UMemory@icu_56@@8
rdata$r	ENDS
;	COMDAT ??_R3CharsetRecog_euc_jp@icu_56@@8
rdata$r	SEGMENT
??_R3CharsetRecog_euc_jp@icu_56@@8 DD 00H		; icu_56::CharsetRecog_euc_jp::`RTTI Class Hierarchy Descriptor'
	DD	00H
	DD	05H
	DD	FLAT:??_R2CharsetRecog_euc_jp@icu_56@@8
rdata$r	ENDS
;	COMDAT ??_R0?AVCharsetRecog_euc_jp@icu_56@@@8
_DATA	SEGMENT
??_R0?AVCharsetRecog_euc_jp@icu_56@@@8 DD FLAT:??_7type_info@@6B@ ; icu_56::CharsetRecog_euc_jp `RTTI Type Descriptor'
	DD	00H
	DB	'.?AVCharsetRecog_euc_jp@icu_56@@', 00H
_DATA	ENDS
;	COMDAT ??_R4CharsetRecog_euc_jp@icu_56@@6B@
rdata$r	SEGMENT
??_R4CharsetRecog_euc_jp@icu_56@@6B@ DD 00H		; icu_56::CharsetRecog_euc_jp::`RTTI Complete Object Locator'
	DD	00H
	DD	00H
	DD	FLAT:??_R0?AVCharsetRecog_euc_jp@icu_56@@@8
	DD	FLAT:??_R3CharsetRecog_euc_jp@icu_56@@8
rdata$r	ENDS
;	COMDAT ??_7CharsetRecog_euc_jp@icu_56@@6B@
CONST	SEGMENT
??_7CharsetRecog_euc_jp@icu_56@@6B@ DD FLAT:??_R4CharsetRecog_euc_jp@icu_56@@6B@ ; icu_56::CharsetRecog_euc_jp::`vftable'
	DD	FLAT:?getName@CharsetRecog_euc_jp@icu_56@@UBEPBDXZ
	DD	FLAT:?getLanguage@CharsetRecog_euc_jp@icu_56@@UBEPBDXZ
	DD	FLAT:?match@CharsetRecog_euc_jp@icu_56@@UBECPAVInputText@2@PAVCharsetMatch@2@@Z
	DD	FLAT:??_ECharsetRecog_euc_jp@icu_56@@UAEPAXI@Z
	DD	FLAT:?nextChar@CharsetRecog_euc@icu_56@@UBECPAVIteratedChar@2@PAVInputText@2@@Z
; Function compile flags: /Odtp /RTCsu /ZI
CONST	ENDS
;	COMDAT ??0CharsetRecog_euc_jp@icu_56@@QAE@XZ
_TEXT	SEGMENT
_this$ = -8						; size = 4
??0CharsetRecog_euc_jp@icu_56@@QAE@XZ PROC		; icu_56::CharsetRecog_euc_jp::CharsetRecog_euc_jp, COMDAT
; _this$ = ecx
	push	ebp
	mov	ebp, esp
	sub	esp, 204				; 000000ccH
	push	ebx
	push	esi
	push	edi
	push	ecx
	lea	edi, DWORD PTR [ebp-204]
	mov	ecx, 51					; 00000033H
	mov	eax, -858993460				; ccccccccH
	rep stosd
	pop	ecx
	mov	DWORD PTR _this$[ebp], ecx
	mov	ecx, DWORD PTR _this$[ebp]
	call	??0CharsetRecog_euc@icu_56@@QAE@XZ
	mov	eax, DWORD PTR _this$[ebp]
	mov	DWORD PTR [eax], OFFSET ??_7CharsetRecog_euc_jp@icu_56@@6B@
	mov	eax, DWORD PTR _this$[ebp]
	pop	edi
	pop	esi
	pop	ebx
	add	esp, 204				; 000000ccH
	cmp	ebp, esp
	call	__RTC_CheckEsp
	mov	esp, ebp
	pop	ebp
	ret	0
??0CharsetRecog_euc_jp@icu_56@@QAE@XZ ENDP		; icu_56::CharsetRecog_euc_jp::CharsetRecog_euc_jp
_TEXT	ENDS
PUBLIC	??_7CharsetRecog_euc_kr@icu_56@@6B@		; icu_56::CharsetRecog_euc_kr::`vftable'
PUBLIC	??_R4CharsetRecog_euc_kr@icu_56@@6B@		; icu_56::CharsetRecog_euc_kr::`RTTI Complete Object Locator'
PUBLIC	??_R0?AVCharsetRecog_euc_kr@icu_56@@@8		; icu_56::CharsetRecog_euc_kr `RTTI Type Descriptor'
PUBLIC	??_R3CharsetRecog_euc_kr@icu_56@@8		; icu_56::CharsetRecog_euc_kr::`RTTI Class Hierarchy Descriptor'
PUBLIC	??_R2CharsetRecog_euc_kr@icu_56@@8		; icu_56::CharsetRecog_euc_kr::`RTTI Base Class Array'
PUBLIC	??_R1A@?0A@EA@CharsetRecog_euc_kr@icu_56@@8	; icu_56::CharsetRecog_euc_kr::`RTTI Base Class Descriptor at (0,-1,0,64)'
EXTRN	?getName@CharsetRecog_euc_kr@icu_56@@UBEPBDXZ:PROC ; icu_56::CharsetRecog_euc_kr::getName
EXTRN	?getLanguage@CharsetRecog_euc_kr@icu_56@@UBEPBDXZ:PROC ; icu_56::CharsetRecog_euc_kr::getLanguage
EXTRN	?match@CharsetRecog_euc_kr@icu_56@@UBECPAVInputText@2@PAVCharsetMatch@2@@Z:PROC ; icu_56::CharsetRecog_euc_kr::match
EXTRN	??_ECharsetRecog_euc_kr@icu_56@@UAEPAXI@Z:PROC	; icu_56::CharsetRecog_euc_kr::`vector deleting destructor'
;	COMDAT ??_R1A@?0A@EA@CharsetRecog_euc_kr@icu_56@@8
rdata$r	SEGMENT
??_R1A@?0A@EA@CharsetRecog_euc_kr@icu_56@@8 DD FLAT:??_R0?AVCharsetRecog_euc_kr@icu_56@@@8 ; icu_56::CharsetRecog_euc_kr::`RTTI Base Class Descriptor at (0,-1,0,64)'
	DD	04H
	DD	00H
	DD	0ffffffffH
	DD	00H
	DD	040H
	DD	FLAT:??_R3CharsetRecog_euc_kr@icu_56@@8
rdata$r	ENDS
;	COMDAT ??_R2CharsetRecog_euc_kr@icu_56@@8
rdata$r	SEGMENT
??_R2CharsetRecog_euc_kr@icu_56@@8 DD FLAT:??_R1A@?0A@EA@CharsetRecog_euc_kr@icu_56@@8 ; icu_56::CharsetRecog_euc_kr::`RTTI Base Class Array'
	DD	FLAT:??_R1A@?0A@EA@CharsetRecog_euc@icu_56@@8
	DD	FLAT:??_R1A@?0A@EA@CharsetRecog_mbcs@icu_56@@8
	DD	FLAT:??_R1A@?0A@EA@CharsetRecognizer@icu_56@@8
	DD	FLAT:??_R13?0A@EA@UMemory@icu_56@@8
rdata$r	ENDS
;	COMDAT ??_R3CharsetRecog_euc_kr@icu_56@@8
rdata$r	SEGMENT
??_R3CharsetRecog_euc_kr@icu_56@@8 DD 00H		; icu_56::CharsetRecog_euc_kr::`RTTI Class Hierarchy Descriptor'
	DD	00H
	DD	05H
	DD	FLAT:??_R2CharsetRecog_euc_kr@icu_56@@8
rdata$r	ENDS
;	COMDAT ??_R0?AVCharsetRecog_euc_kr@icu_56@@@8
_DATA	SEGMENT
??_R0?AVCharsetRecog_euc_kr@icu_56@@@8 DD FLAT:??_7type_info@@6B@ ; icu_56::CharsetRecog_euc_kr `RTTI Type Descriptor'
	DD	00H
	DB	'.?AVCharsetRecog_euc_kr@icu_56@@', 00H
_DATA	ENDS
;	COMDAT ??_R4CharsetRecog_euc_kr@icu_56@@6B@
rdata$r	SEGMENT
??_R4CharsetRecog_euc_kr@icu_56@@6B@ DD 00H		; icu_56::CharsetRecog_euc_kr::`RTTI Complete Object Locator'
	DD	00H
	DD	00H
	DD	FLAT:??_R0?AVCharsetRecog_euc_kr@icu_56@@@8
	DD	FLAT:??_R3CharsetRecog_euc_kr@icu_56@@8
rdata$r	ENDS
;	COMDAT ??_7CharsetRecog_euc_kr@icu_56@@6B@
CONST	SEGMENT
??_7CharsetRecog_euc_kr@icu_56@@6B@ DD FLAT:??_R4CharsetRecog_euc_kr@icu_56@@6B@ ; icu_56::CharsetRecog_euc_kr::`vftable'
	DD	FLAT:?getName@CharsetRecog_euc_kr@icu_56@@UBEPBDXZ
	DD	FLAT:?getLanguage@CharsetRecog_euc_kr@icu_56@@UBEPBDXZ
	DD	FLAT:?match@CharsetRecog_euc_kr@icu_56@@UBECPAVInputText@2@PAVCharsetMatch@2@@Z
	DD	FLAT:??_ECharsetRecog_euc_kr@icu_56@@UAEPAXI@Z
	DD	FLAT:?nextChar@CharsetRecog_euc@icu_56@@UBECPAVIteratedChar@2@PAVInputText@2@@Z
; Function compile flags: /Odtp /RTCsu /ZI
CONST	ENDS
;	COMDAT ??0CharsetRecog_euc_kr@icu_56@@QAE@XZ
_TEXT	SEGMENT
_this$ = -8						; size = 4
??0CharsetRecog_euc_kr@icu_56@@QAE@XZ PROC		; icu_56::CharsetRecog_euc_kr::CharsetRecog_euc_kr, COMDAT
; _this$ = ecx
	push	ebp
	mov	ebp, esp
	sub	esp, 204				; 000000ccH
	push	ebx
	push	esi
	push	edi
	push	ecx
	lea	edi, DWORD PTR [ebp-204]
	mov	ecx, 51					; 00000033H
	mov	eax, -858993460				; ccccccccH
	rep stosd
	pop	ecx
	mov	DWORD PTR _this$[ebp], ecx
	mov	ecx, DWORD PTR _this$[ebp]
	call	??0CharsetRecog_euc@icu_56@@QAE@XZ
	mov	eax, DWORD PTR _this$[ebp]
	mov	DWORD PTR [eax], OFFSET ??_7CharsetRecog_euc_kr@icu_56@@6B@
	mov	eax, DWORD PTR _this$[ebp]
	pop	edi
	pop	esi
	pop	ebx
	add	esp, 204				; 000000ccH
	cmp	ebp, esp
	call	__RTC_CheckEsp
	mov	esp, ebp
	pop	ebp
	ret	0
??0CharsetRecog_euc_kr@icu_56@@QAE@XZ ENDP		; icu_56::CharsetRecog_euc_kr::CharsetRecog_euc_kr
_TEXT	ENDS
PUBLIC	??_7CharsetRecog_big5@icu_56@@6B@		; icu_56::CharsetRecog_big5::`vftable'
PUBLIC	??_R4CharsetRecog_big5@icu_56@@6B@		; icu_56::CharsetRecog_big5::`RTTI Complete Object Locator'
PUBLIC	??_R0?AVCharsetRecog_big5@icu_56@@@8		; icu_56::CharsetRecog_big5 `RTTI Type Descriptor'
PUBLIC	??_R3CharsetRecog_big5@icu_56@@8		; icu_56::CharsetRecog_big5::`RTTI Class Hierarchy Descriptor'
PUBLIC	??_R2CharsetRecog_big5@icu_56@@8		; icu_56::CharsetRecog_big5::`RTTI Base Class Array'
PUBLIC	??_R1A@?0A@EA@CharsetRecog_big5@icu_56@@8	; icu_56::CharsetRecog_big5::`RTTI Base Class Descriptor at (0,-1,0,64)'
EXTRN	?getName@CharsetRecog_big5@icu_56@@UBEPBDXZ:PROC ; icu_56::CharsetRecog_big5::getName
EXTRN	?getLanguage@CharsetRecog_big5@icu_56@@UBEPBDXZ:PROC ; icu_56::CharsetRecog_big5::getLanguage
EXTRN	?match@CharsetRecog_big5@icu_56@@UBECPAVInputText@2@PAVCharsetMatch@2@@Z:PROC ; icu_56::CharsetRecog_big5::match
EXTRN	??_ECharsetRecog_big5@icu_56@@UAEPAXI@Z:PROC	; icu_56::CharsetRecog_big5::`vector deleting destructor'
EXTRN	?nextChar@CharsetRecog_big5@icu_56@@UBECPAVIteratedChar@2@PAVInputText@2@@Z:PROC ; icu_56::CharsetRecog_big5::nextChar
;	COMDAT ??_R1A@?0A@EA@CharsetRecog_big5@icu_56@@8
rdata$r	SEGMENT
??_R1A@?0A@EA@CharsetRecog_big5@icu_56@@8 DD FLAT:??_R0?AVCharsetRecog_big5@icu_56@@@8 ; icu_56::CharsetRecog_big5::`RTTI Base Class Descriptor at (0,-1,0,64)'
	DD	03H
	DD	00H
	DD	0ffffffffH
	DD	00H
	DD	040H
	DD	FLAT:??_R3CharsetRecog_big5@icu_56@@8
rdata$r	ENDS
;	COMDAT ??_R2CharsetRecog_big5@icu_56@@8
rdata$r	SEGMENT
??_R2CharsetRecog_big5@icu_56@@8 DD FLAT:??_R1A@?0A@EA@CharsetRecog_big5@icu_56@@8 ; icu_56::CharsetRecog_big5::`RTTI Base Class Array'
	DD	FLAT:??_R1A@?0A@EA@CharsetRecog_mbcs@icu_56@@8
	DD	FLAT:??_R1A@?0A@EA@CharsetRecognizer@icu_56@@8
	DD	FLAT:??_R13?0A@EA@UMemory@icu_56@@8
rdata$r	ENDS
;	COMDAT ??_R3CharsetRecog_big5@icu_56@@8
rdata$r	SEGMENT
??_R3CharsetRecog_big5@icu_56@@8 DD 00H			; icu_56::CharsetRecog_big5::`RTTI Class Hierarchy Descriptor'
	DD	00H
	DD	04H
	DD	FLAT:??_R2CharsetRecog_big5@icu_56@@8
rdata$r	ENDS
;	COMDAT ??_R0?AVCharsetRecog_big5@icu_56@@@8
_DATA	SEGMENT
??_R0?AVCharsetRecog_big5@icu_56@@@8 DD FLAT:??_7type_info@@6B@ ; icu_56::CharsetRecog_big5 `RTTI Type Descriptor'
	DD	00H
	DB	'.?AVCharsetRecog_big5@icu_56@@', 00H
_DATA	ENDS
;	COMDAT ??_R4CharsetRecog_big5@icu_56@@6B@
rdata$r	SEGMENT
??_R4CharsetRecog_big5@icu_56@@6B@ DD 00H		; icu_56::CharsetRecog_big5::`RTTI Complete Object Locator'
	DD	00H
	DD	00H
	DD	FLAT:??_R0?AVCharsetRecog_big5@icu_56@@@8
	DD	FLAT:??_R3CharsetRecog_big5@icu_56@@8
rdata$r	ENDS
;	COMDAT ??_7CharsetRecog_big5@icu_56@@6B@
CONST	SEGMENT
??_7CharsetRecog_big5@icu_56@@6B@ DD FLAT:??_R4CharsetRecog_big5@icu_56@@6B@ ; icu_56::CharsetRecog_big5::`vftable'
	DD	FLAT:?getName@CharsetRecog_big5@icu_56@@UBEPBDXZ
	DD	FLAT:?getLanguage@CharsetRecog_big5@icu_56@@UBEPBDXZ
	DD	FLAT:?match@CharsetRecog_big5@icu_56@@UBECPAVInputText@2@PAVCharsetMatch@2@@Z
	DD	FLAT:??_ECharsetRecog_big5@icu_56@@UAEPAXI@Z
	DD	FLAT:?nextChar@CharsetRecog_big5@icu_56@@UBECPAVIteratedChar@2@PAVInputText@2@@Z
; Function compile flags: /Odtp /RTCsu /ZI
CONST	ENDS
;	COMDAT ??0CharsetRecog_big5@icu_56@@QAE@XZ
_TEXT	SEGMENT
_this$ = -8						; size = 4
??0CharsetRecog_big5@icu_56@@QAE@XZ PROC		; icu_56::CharsetRecog_big5::CharsetRecog_big5, COMDAT
; _this$ = ecx
	push	ebp
	mov	ebp, esp
	sub	esp, 204				; 000000ccH
	push	ebx
	push	esi
	push	edi
	push	ecx
	lea	edi, DWORD PTR [ebp-204]
	mov	ecx, 51					; 00000033H
	mov	eax, -858993460				; ccccccccH
	rep stosd
	pop	ecx
	mov	DWORD PTR _this$[ebp], ecx
	mov	ecx, DWORD PTR _this$[ebp]
	call	??0CharsetRecog_mbcs@icu_56@@QAE@XZ
	mov	eax, DWORD PTR _this$[ebp]
	mov	DWORD PTR [eax], OFFSET ??_7CharsetRecog_big5@icu_56@@6B@
	mov	eax, DWORD PTR _this$[ebp]
	pop	edi
	pop	esi
	pop	ebx
	add	esp, 204				; 000000ccH
	cmp	ebp, esp
	call	__RTC_CheckEsp
	mov	esp, ebp
	pop	ebp
	ret	0
??0CharsetRecog_big5@icu_56@@QAE@XZ ENDP		; icu_56::CharsetRecog_big5::CharsetRecog_big5
_TEXT	ENDS
PUBLIC	??_7CharsetRecog_2022JP@icu_56@@6B@		; icu_56::CharsetRecog_2022JP::`vftable'
PUBLIC	??0CharsetRecog_2022@icu_56@@QAE@XZ		; icu_56::CharsetRecog_2022::CharsetRecog_2022
PUBLIC	??_R4CharsetRecog_2022JP@icu_56@@6B@		; icu_56::CharsetRecog_2022JP::`RTTI Complete Object Locator'
PUBLIC	??_R0?AVCharsetRecog_2022JP@icu_56@@@8		; icu_56::CharsetRecog_2022JP `RTTI Type Descriptor'
PUBLIC	??_R3CharsetRecog_2022JP@icu_56@@8		; icu_56::CharsetRecog_2022JP::`RTTI Class Hierarchy Descriptor'
PUBLIC	??_R2CharsetRecog_2022JP@icu_56@@8		; icu_56::CharsetRecog_2022JP::`RTTI Base Class Array'
PUBLIC	??_R1A@?0A@EA@CharsetRecog_2022JP@icu_56@@8	; icu_56::CharsetRecog_2022JP::`RTTI Base Class Descriptor at (0,-1,0,64)'
PUBLIC	??_R1A@?0A@EA@CharsetRecog_2022@icu_56@@8	; icu_56::CharsetRecog_2022::`RTTI Base Class Descriptor at (0,-1,0,64)'
PUBLIC	??_R0?AVCharsetRecog_2022@icu_56@@@8		; icu_56::CharsetRecog_2022 `RTTI Type Descriptor'
PUBLIC	??_R3CharsetRecog_2022@icu_56@@8		; icu_56::CharsetRecog_2022::`RTTI Class Hierarchy Descriptor'
PUBLIC	??_R2CharsetRecog_2022@icu_56@@8		; icu_56::CharsetRecog_2022::`RTTI Base Class Array'
EXTRN	?getName@CharsetRecog_2022JP@icu_56@@UBEPBDXZ:PROC ; icu_56::CharsetRecog_2022JP::getName
EXTRN	?match@CharsetRecog_2022JP@icu_56@@UBECPAVInputText@2@PAVCharsetMatch@2@@Z:PROC ; icu_56::CharsetRecog_2022JP::match
EXTRN	??_ECharsetRecog_2022JP@icu_56@@UAEPAXI@Z:PROC	; icu_56::CharsetRecog_2022JP::`vector deleting destructor'
;	COMDAT ??_R2CharsetRecog_2022@icu_56@@8
rdata$r	SEGMENT
??_R2CharsetRecog_2022@icu_56@@8 DD FLAT:??_R1A@?0A@EA@CharsetRecog_2022@icu_56@@8 ; icu_56::CharsetRecog_2022::`RTTI Base Class Array'
	DD	FLAT:??_R1A@?0A@EA@CharsetRecognizer@icu_56@@8
	DD	FLAT:??_R13?0A@EA@UMemory@icu_56@@8
rdata$r	ENDS
;	COMDAT ??_R3CharsetRecog_2022@icu_56@@8
rdata$r	SEGMENT
??_R3CharsetRecog_2022@icu_56@@8 DD 00H			; icu_56::CharsetRecog_2022::`RTTI Class Hierarchy Descriptor'
	DD	00H
	DD	03H
	DD	FLAT:??_R2CharsetRecog_2022@icu_56@@8
rdata$r	ENDS
;	COMDAT ??_R0?AVCharsetRecog_2022@icu_56@@@8
_DATA	SEGMENT
??_R0?AVCharsetRecog_2022@icu_56@@@8 DD FLAT:??_7type_info@@6B@ ; icu_56::CharsetRecog_2022 `RTTI Type Descriptor'
	DD	00H
	DB	'.?AVCharsetRecog_2022@icu_56@@', 00H
_DATA	ENDS
;	COMDAT ??_R1A@?0A@EA@CharsetRecog_2022@icu_56@@8
rdata$r	SEGMENT
??_R1A@?0A@EA@CharsetRecog_2022@icu_56@@8 DD FLAT:??_R0?AVCharsetRecog_2022@icu_56@@@8 ; icu_56::CharsetRecog_2022::`RTTI Base Class Descriptor at (0,-1,0,64)'
	DD	02H
	DD	00H
	DD	0ffffffffH
	DD	00H
	DD	040H
	DD	FLAT:??_R3CharsetRecog_2022@icu_56@@8
rdata$r	ENDS
;	COMDAT ??_R1A@?0A@EA@CharsetRecog_2022JP@icu_56@@8
rdata$r	SEGMENT
??_R1A@?0A@EA@CharsetRecog_2022JP@icu_56@@8 DD FLAT:??_R0?AVCharsetRecog_2022JP@icu_56@@@8 ; icu_56::CharsetRecog_2022JP::`RTTI Base Class Descriptor at (0,-1,0,64)'
	DD	03H
	DD	00H
	DD	0ffffffffH
	DD	00H
	DD	040H
	DD	FLAT:??_R3CharsetRecog_2022JP@icu_56@@8
rdata$r	ENDS
;	COMDAT ??_R2CharsetRecog_2022JP@icu_56@@8
rdata$r	SEGMENT
??_R2CharsetRecog_2022JP@icu_56@@8 DD FLAT:??_R1A@?0A@EA@CharsetRecog_2022JP@icu_56@@8 ; icu_56::CharsetRecog_2022JP::`RTTI Base Class Array'
	DD	FLAT:??_R1A@?0A@EA@CharsetRecog_2022@icu_56@@8
	DD	FLAT:??_R1A@?0A@EA@CharsetRecognizer@icu_56@@8
	DD	FLAT:??_R13?0A@EA@UMemory@icu_56@@8
rdata$r	ENDS
;	COMDAT ??_R3CharsetRecog_2022JP@icu_56@@8
rdata$r	SEGMENT
??_R3CharsetRecog_2022JP@icu_56@@8 DD 00H		; icu_56::CharsetRecog_2022JP::`RTTI Class Hierarchy Descriptor'
	DD	00H
	DD	04H
	DD	FLAT:??_R2CharsetRecog_2022JP@icu_56@@8
rdata$r	ENDS
;	COMDAT ??_R0?AVCharsetRecog_2022JP@icu_56@@@8
_DATA	SEGMENT
??_R0?AVCharsetRecog_2022JP@icu_56@@@8 DD FLAT:??_7type_info@@6B@ ; icu_56::CharsetRecog_2022JP `RTTI Type Descriptor'
	DD	00H
	DB	'.?AVCharsetRecog_2022JP@icu_56@@', 00H
_DATA	ENDS
;	COMDAT ??_R4CharsetRecog_2022JP@icu_56@@6B@
rdata$r	SEGMENT
??_R4CharsetRecog_2022JP@icu_56@@6B@ DD 00H		; icu_56::CharsetRecog_2022JP::`RTTI Complete Object Locator'
	DD	00H
	DD	00H
	DD	FLAT:??_R0?AVCharsetRecog_2022JP@icu_56@@@8
	DD	FLAT:??_R3CharsetRecog_2022JP@icu_56@@8
rdata$r	ENDS
;	COMDAT ??_7CharsetRecog_2022JP@icu_56@@6B@
CONST	SEGMENT
??_7CharsetRecog_2022JP@icu_56@@6B@ DD FLAT:??_R4CharsetRecog_2022JP@icu_56@@6B@ ; icu_56::CharsetRecog_2022JP::`vftable'
	DD	FLAT:?getName@CharsetRecog_2022JP@icu_56@@UBEPBDXZ
	DD	FLAT:?getLanguage@CharsetRecognizer@icu_56@@UBEPBDXZ
	DD	FLAT:?match@CharsetRecog_2022JP@icu_56@@UBECPAVInputText@2@PAVCharsetMatch@2@@Z
	DD	FLAT:??_ECharsetRecog_2022JP@icu_56@@UAEPAXI@Z
; Function compile flags: /Odtp /RTCsu /ZI
CONST	ENDS
;	COMDAT ??0CharsetRecog_2022JP@icu_56@@QAE@XZ
_TEXT	SEGMENT
_this$ = -8						; size = 4
??0CharsetRecog_2022JP@icu_56@@QAE@XZ PROC		; icu_56::CharsetRecog_2022JP::CharsetRecog_2022JP, COMDAT
; _this$ = ecx
	push	ebp
	mov	ebp, esp
	sub	esp, 204				; 000000ccH
	push	ebx
	push	esi
	push	edi
	push	ecx
	lea	edi, DWORD PTR [ebp-204]
	mov	ecx, 51					; 00000033H
	mov	eax, -858993460				; ccccccccH
	rep stosd
	pop	ecx
	mov	DWORD PTR _this$[ebp], ecx
	mov	ecx, DWORD PTR _this$[ebp]
	call	??0CharsetRecog_2022@icu_56@@QAE@XZ
	mov	eax, DWORD PTR _this$[ebp]
	mov	DWORD PTR [eax], OFFSET ??_7CharsetRecog_2022JP@icu_56@@6B@
	mov	eax, DWORD PTR _this$[ebp]
	pop	edi
	pop	esi
	pop	ebx
	add	esp, 204				; 000000ccH
	cmp	ebp, esp
	call	__RTC_CheckEsp
	mov	esp, ebp
	pop	ebp
	ret	0
??0CharsetRecog_2022JP@icu_56@@QAE@XZ ENDP		; icu_56::CharsetRecog_2022JP::CharsetRecog_2022JP
_TEXT	ENDS
PUBLIC	??_7CharsetRecog_2022KR@icu_56@@6B@		; icu_56::CharsetRecog_2022KR::`vftable'
PUBLIC	??_R4CharsetRecog_2022KR@icu_56@@6B@		; icu_56::CharsetRecog_2022KR::`RTTI Complete Object Locator'
PUBLIC	??_R0?AVCharsetRecog_2022KR@icu_56@@@8		; icu_56::CharsetRecog_2022KR `RTTI Type Descriptor'
PUBLIC	??_R3CharsetRecog_2022KR@icu_56@@8		; icu_56::CharsetRecog_2022KR::`RTTI Class Hierarchy Descriptor'
PUBLIC	??_R2CharsetRecog_2022KR@icu_56@@8		; icu_56::CharsetRecog_2022KR::`RTTI Base Class Array'
PUBLIC	??_R1A@?0A@EA@CharsetRecog_2022KR@icu_56@@8	; icu_56::CharsetRecog_2022KR::`RTTI Base Class Descriptor at (0,-1,0,64)'
EXTRN	?getName@CharsetRecog_2022KR@icu_56@@UBEPBDXZ:PROC ; icu_56::CharsetRecog_2022KR::getName
EXTRN	?match@CharsetRecog_2022KR@icu_56@@UBECPAVInputText@2@PAVCharsetMatch@2@@Z:PROC ; icu_56::CharsetRecog_2022KR::match
EXTRN	??_ECharsetRecog_2022KR@icu_56@@UAEPAXI@Z:PROC	; icu_56::CharsetRecog_2022KR::`vector deleting destructor'
;	COMDAT ??_R1A@?0A@EA@CharsetRecog_2022KR@icu_56@@8
rdata$r	SEGMENT
??_R1A@?0A@EA@CharsetRecog_2022KR@icu_56@@8 DD FLAT:??_R0?AVCharsetRecog_2022KR@icu_56@@@8 ; icu_56::CharsetRecog_2022KR::`RTTI Base Class Descriptor at (0,-1,0,64)'
	DD	03H
	DD	00H
	DD	0ffffffffH
	DD	00H
	DD	040H
	DD	FLAT:??_R3CharsetRecog_2022KR@icu_56@@8
rdata$r	ENDS
;	COMDAT ??_R2CharsetRecog_2022KR@icu_56@@8
rdata$r	SEGMENT
??_R2CharsetRecog_2022KR@icu_56@@8 DD FLAT:??_R1A@?0A@EA@CharsetRecog_2022KR@icu_56@@8 ; icu_56::CharsetRecog_2022KR::`RTTI Base Class Array'
	DD	FLAT:??_R1A@?0A@EA@CharsetRecog_2022@icu_56@@8
	DD	FLAT:??_R1A@?0A@EA@CharsetRecognizer@icu_56@@8
	DD	FLAT:??_R13?0A@EA@UMemory@icu_56@@8
rdata$r	ENDS
;	COMDAT ??_R3CharsetRecog_2022KR@icu_56@@8
rdata$r	SEGMENT
??_R3CharsetRecog_2022KR@icu_56@@8 DD 00H		; icu_56::CharsetRecog_2022KR::`RTTI Class Hierarchy Descriptor'
	DD	00H
	DD	04H
	DD	FLAT:??_R2CharsetRecog_2022KR@icu_56@@8
rdata$r	ENDS
;	COMDAT ??_R0?AVCharsetRecog_2022KR@icu_56@@@8
_DATA	SEGMENT
??_R0?AVCharsetRecog_2022KR@icu_56@@@8 DD FLAT:??_7type_info@@6B@ ; icu_56::CharsetRecog_2022KR `RTTI Type Descriptor'
	DD	00H
	DB	'.?AVCharsetRecog_2022KR@icu_56@@', 00H
_DATA	ENDS
;	COMDAT ??_R4CharsetRecog_2022KR@icu_56@@6B@
rdata$r	SEGMENT
??_R4CharsetRecog_2022KR@icu_56@@6B@ DD 00H		; icu_56::CharsetRecog_2022KR::`RTTI Complete Object Locator'
	DD	00H
	DD	00H
	DD	FLAT:??_R0?AVCharsetRecog_2022KR@icu_56@@@8
	DD	FLAT:??_R3CharsetRecog_2022KR@icu_56@@8
rdata$r	ENDS
;	COMDAT ??_7CharsetRecog_2022KR@icu_56@@6B@
CONST	SEGMENT
??_7CharsetRecog_2022KR@icu_56@@6B@ DD FLAT:??_R4CharsetRecog_2022KR@icu_56@@6B@ ; icu_56::CharsetRecog_2022KR::`vftable'
	DD	FLAT:?getName@CharsetRecog_2022KR@icu_56@@UBEPBDXZ
	DD	FLAT:?getLanguage@CharsetRecognizer@icu_56@@UBEPBDXZ
	DD	FLAT:?match@CharsetRecog_2022KR@icu_56@@UBECPAVInputText@2@PAVCharsetMatch@2@@Z
	DD	FLAT:??_ECharsetRecog_2022KR@icu_56@@UAEPAXI@Z
; Function compile flags: /Odtp /RTCsu /ZI
CONST	ENDS
;	COMDAT ??0CharsetRecog_2022KR@icu_56@@QAE@XZ
_TEXT	SEGMENT
_this$ = -8						; size = 4
??0CharsetRecog_2022KR@icu_56@@QAE@XZ PROC		; icu_56::CharsetRecog_2022KR::CharsetRecog_2022KR, COMDAT
; _this$ = ecx
	push	ebp
	mov	ebp, esp
	sub	esp, 204				; 000000ccH
	push	ebx
	push	esi
	push	edi
	push	ecx
	lea	edi, DWORD PTR [ebp-204]
	mov	ecx, 51					; 00000033H
	mov	eax, -858993460				; ccccccccH
	rep stosd
	pop	ecx
	mov	DWORD PTR _this$[ebp], ecx
	mov	ecx, DWORD PTR _this$[ebp]
	call	??0CharsetRecog_2022@icu_56@@QAE@XZ
	mov	eax, DWORD PTR _this$[ebp]
	mov	DWORD PTR [eax], OFFSET ??_7CharsetRecog_2022KR@icu_56@@6B@
	mov	eax, DWORD PTR _this$[ebp]
	pop	edi
	pop	esi
	pop	ebx
	add	esp, 204				; 000000ccH
	cmp	ebp, esp
	call	__RTC_CheckEsp
	mov	esp, ebp
	pop	ebp
	ret	0
??0CharsetRecog_2022KR@icu_56@@QAE@XZ ENDP		; icu_56::CharsetRecog_2022KR::CharsetRecog_2022KR
_TEXT	ENDS
PUBLIC	??_7CharsetRecog_2022CN@icu_56@@6B@		; icu_56::CharsetRecog_2022CN::`vftable'
PUBLIC	??_R4CharsetRecog_2022CN@icu_56@@6B@		; icu_56::CharsetRecog_2022CN::`RTTI Complete Object Locator'
PUBLIC	??_R0?AVCharsetRecog_2022CN@icu_56@@@8		; icu_56::CharsetRecog_2022CN `RTTI Type Descriptor'
PUBLIC	??_R3CharsetRecog_2022CN@icu_56@@8		; icu_56::CharsetRecog_2022CN::`RTTI Class Hierarchy Descriptor'
PUBLIC	??_R2CharsetRecog_2022CN@icu_56@@8		; icu_56::CharsetRecog_2022CN::`RTTI Base Class Array'
PUBLIC	??_R1A@?0A@EA@CharsetRecog_2022CN@icu_56@@8	; icu_56::CharsetRecog_2022CN::`RTTI Base Class Descriptor at (0,-1,0,64)'
EXTRN	?getName@CharsetRecog_2022CN@icu_56@@UBEPBDXZ:PROC ; icu_56::CharsetRecog_2022CN::getName
EXTRN	?match@CharsetRecog_2022CN@icu_56@@UBECPAVInputText@2@PAVCharsetMatch@2@@Z:PROC ; icu_56::CharsetRecog_2022CN::match
EXTRN	??_ECharsetRecog_2022CN@icu_56@@UAEPAXI@Z:PROC	; icu_56::CharsetRecog_2022CN::`vector deleting destructor'
;	COMDAT ??_R1A@?0A@EA@CharsetRecog_2022CN@icu_56@@8
rdata$r	SEGMENT
??_R1A@?0A@EA@CharsetRecog_2022CN@icu_56@@8 DD FLAT:??_R0?AVCharsetRecog_2022CN@icu_56@@@8 ; icu_56::CharsetRecog_2022CN::`RTTI Base Class Descriptor at (0,-1,0,64)'
	DD	03H
	DD	00H
	DD	0ffffffffH
	DD	00H
	DD	040H
	DD	FLAT:??_R3CharsetRecog_2022CN@icu_56@@8
rdata$r	ENDS
;	COMDAT ??_R2CharsetRecog_2022CN@icu_56@@8
rdata$r	SEGMENT
??_R2CharsetRecog_2022CN@icu_56@@8 DD FLAT:??_R1A@?0A@EA@CharsetRecog_2022CN@icu_56@@8 ; icu_56::CharsetRecog_2022CN::`RTTI Base Class Array'
	DD	FLAT:??_R1A@?0A@EA@CharsetRecog_2022@icu_56@@8
	DD	FLAT:??_R1A@?0A@EA@CharsetRecognizer@icu_56@@8
	DD	FLAT:??_R13?0A@EA@UMemory@icu_56@@8
rdata$r	ENDS
;	COMDAT ??_R3CharsetRecog_2022CN@icu_56@@8
rdata$r	SEGMENT
??_R3CharsetRecog_2022CN@icu_56@@8 DD 00H		; icu_56::CharsetRecog_2022CN::`RTTI Class Hierarchy Descriptor'
	DD	00H
	DD	04H
	DD	FLAT:??_R2CharsetRecog_2022CN@icu_56@@8
rdata$r	ENDS
;	COMDAT ??_R0?AVCharsetRecog_2022CN@icu_56@@@8
_DATA	SEGMENT
??_R0?AVCharsetRecog_2022CN@icu_56@@@8 DD FLAT:??_7type_info@@6B@ ; icu_56::CharsetRecog_2022CN `RTTI Type Descriptor'
	DD	00H
	DB	'.?AVCharsetRecog_2022CN@icu_56@@', 00H
_DATA	ENDS
;	COMDAT ??_R4CharsetRecog_2022CN@icu_56@@6B@
rdata$r	SEGMENT
??_R4CharsetRecog_2022CN@icu_56@@6B@ DD 00H		; icu_56::CharsetRecog_2022CN::`RTTI Complete Object Locator'
	DD	00H
	DD	00H
	DD	FLAT:??_R0?AVCharsetRecog_2022CN@icu_56@@@8
	DD	FLAT:??_R3CharsetRecog_2022CN@icu_56@@8
rdata$r	ENDS
;	COMDAT ??_7CharsetRecog_2022CN@icu_56@@6B@
CONST	SEGMENT
??_7CharsetRecog_2022CN@icu_56@@6B@ DD FLAT:??_R4CharsetRecog_2022CN@icu_56@@6B@ ; icu_56::CharsetRecog_2022CN::`vftable'
	DD	FLAT:?getName@CharsetRecog_2022CN@icu_56@@UBEPBDXZ
	DD	FLAT:?getLanguage@CharsetRecognizer@icu_56@@UBEPBDXZ
	DD	FLAT:?match@CharsetRecog_2022CN@icu_56@@UBECPAVInputText@2@PAVCharsetMatch@2@@Z
	DD	FLAT:??_ECharsetRecog_2022CN@icu_56@@UAEPAXI@Z
; Function compile flags: /Odtp /RTCsu /ZI
CONST	ENDS
;	COMDAT ??0CharsetRecog_2022CN@icu_56@@QAE@XZ
_TEXT	SEGMENT
_this$ = -8						; size = 4
??0CharsetRecog_2022CN@icu_56@@QAE@XZ PROC		; icu_56::CharsetRecog_2022CN::CharsetRecog_2022CN, COMDAT
; _this$ = ecx
	push	ebp
	mov	ebp, esp
	sub	esp, 204				; 000000ccH
	push	ebx
	push	esi
	push	edi
	push	ecx
	lea	edi, DWORD PTR [ebp-204]
	mov	ecx, 51					; 00000033H
	mov	eax, -858993460				; ccccccccH
	rep stosd
	pop	ecx
	mov	DWORD PTR _this$[ebp], ecx
	mov	ecx, DWORD PTR _this$[ebp]
	call	??0CharsetRecog_2022@icu_56@@QAE@XZ
	mov	eax, DWORD PTR _this$[ebp]
	mov	DWORD PTR [eax], OFFSET ??_7CharsetRecog_2022CN@icu_56@@6B@
	mov	eax, DWORD PTR _this$[ebp]
	pop	edi
	pop	esi
	pop	ebx
	add	esp, 204				; 000000ccH
	cmp	ebp, esp
	call	__RTC_CheckEsp
	mov	esp, ebp
	pop	ebp
	ret	0
??0CharsetRecog_2022CN@icu_56@@QAE@XZ ENDP		; icu_56::CharsetRecog_2022CN::CharsetRecog_2022CN
_TEXT	ENDS
PUBLIC	??_7CharsetRecog_IBM424_he_rtl@icu_56@@6B@	; icu_56::CharsetRecog_IBM424_he_rtl::`vftable'
PUBLIC	??0CharsetRecog_IBM424_he@icu_56@@QAE@XZ	; icu_56::CharsetRecog_IBM424_he::CharsetRecog_IBM424_he
PUBLIC	??_R4CharsetRecog_IBM424_he_rtl@icu_56@@6B@	; icu_56::CharsetRecog_IBM424_he_rtl::`RTTI Complete Object Locator'
PUBLIC	??_R0?AVCharsetRecog_IBM424_he_rtl@icu_56@@@8	; icu_56::CharsetRecog_IBM424_he_rtl `RTTI Type Descriptor'
PUBLIC	??_R3CharsetRecog_IBM424_he_rtl@icu_56@@8	; icu_56::CharsetRecog_IBM424_he_rtl::`RTTI Class Hierarchy Descriptor'
PUBLIC	??_R2CharsetRecog_IBM424_he_rtl@icu_56@@8	; icu_56::CharsetRecog_IBM424_he_rtl::`RTTI Base Class Array'
PUBLIC	??_R1A@?0A@EA@CharsetRecog_IBM424_he_rtl@icu_56@@8 ; icu_56::CharsetRecog_IBM424_he_rtl::`RTTI Base Class Descriptor at (0,-1,0,64)'
PUBLIC	??_R1A@?0A@EA@CharsetRecog_IBM424_he@icu_56@@8	; icu_56::CharsetRecog_IBM424_he::`RTTI Base Class Descriptor at (0,-1,0,64)'
PUBLIC	??_R0?AVCharsetRecog_IBM424_he@icu_56@@@8	; icu_56::CharsetRecog_IBM424_he `RTTI Type Descriptor'
PUBLIC	??_R3CharsetRecog_IBM424_he@icu_56@@8		; icu_56::CharsetRecog_IBM424_he::`RTTI Class Hierarchy Descriptor'
PUBLIC	??_R2CharsetRecog_IBM424_he@icu_56@@8		; icu_56::CharsetRecog_IBM424_he::`RTTI Base Class Array'
EXTRN	?getName@CharsetRecog_IBM424_he_rtl@icu_56@@UBEPBDXZ:PROC ; icu_56::CharsetRecog_IBM424_he_rtl::getName
EXTRN	?getLanguage@CharsetRecog_IBM424_he@icu_56@@UBEPBDXZ:PROC ; icu_56::CharsetRecog_IBM424_he::getLanguage
EXTRN	?match@CharsetRecog_IBM424_he_rtl@icu_56@@UBECPAVInputText@2@PAVCharsetMatch@2@@Z:PROC ; icu_56::CharsetRecog_IBM424_he_rtl::match
EXTRN	??_ECharsetRecog_IBM424_he_rtl@icu_56@@UAEPAXI@Z:PROC ; icu_56::CharsetRecog_IBM424_he_rtl::`vector deleting destructor'
;	COMDAT ??_R2CharsetRecog_IBM424_he@icu_56@@8
rdata$r	SEGMENT
??_R2CharsetRecog_IBM424_he@icu_56@@8 DD FLAT:??_R1A@?0A@EA@CharsetRecog_IBM424_he@icu_56@@8 ; icu_56::CharsetRecog_IBM424_he::`RTTI Base Class Array'
	DD	FLAT:??_R1A@?0A@EA@CharsetRecog_sbcs@icu_56@@8
	DD	FLAT:??_R1A@?0A@EA@CharsetRecognizer@icu_56@@8
	DD	FLAT:??_R13?0A@EA@UMemory@icu_56@@8
rdata$r	ENDS
;	COMDAT ??_R3CharsetRecog_IBM424_he@icu_56@@8
rdata$r	SEGMENT
??_R3CharsetRecog_IBM424_he@icu_56@@8 DD 00H		; icu_56::CharsetRecog_IBM424_he::`RTTI Class Hierarchy Descriptor'
	DD	00H
	DD	04H
	DD	FLAT:??_R2CharsetRecog_IBM424_he@icu_56@@8
rdata$r	ENDS
;	COMDAT ??_R0?AVCharsetRecog_IBM424_he@icu_56@@@8
_DATA	SEGMENT
??_R0?AVCharsetRecog_IBM424_he@icu_56@@@8 DD FLAT:??_7type_info@@6B@ ; icu_56::CharsetRecog_IBM424_he `RTTI Type Descriptor'
	DD	00H
	DB	'.?AVCharsetRecog_IBM424_he@icu_56@@', 00H
_DATA	ENDS
;	COMDAT ??_R1A@?0A@EA@CharsetRecog_IBM424_he@icu_56@@8
rdata$r	SEGMENT
??_R1A@?0A@EA@CharsetRecog_IBM424_he@icu_56@@8 DD FLAT:??_R0?AVCharsetRecog_IBM424_he@icu_56@@@8 ; icu_56::CharsetRecog_IBM424_he::`RTTI Base Class Descriptor at (0,-1,0,64)'
	DD	03H
	DD	00H
	DD	0ffffffffH
	DD	00H
	DD	040H
	DD	FLAT:??_R3CharsetRecog_IBM424_he@icu_56@@8
rdata$r	ENDS
;	COMDAT ??_R1A@?0A@EA@CharsetRecog_IBM424_he_rtl@icu_56@@8
rdata$r	SEGMENT
??_R1A@?0A@EA@CharsetRecog_IBM424_he_rtl@icu_56@@8 DD FLAT:??_R0?AVCharsetRecog_IBM424_he_rtl@icu_56@@@8 ; icu_56::CharsetRecog_IBM424_he_rtl::`RTTI Base Class Descriptor at (0,-1,0,64)'
	DD	04H
	DD	00H
	DD	0ffffffffH
	DD	00H
	DD	040H
	DD	FLAT:??_R3CharsetRecog_IBM424_he_rtl@icu_56@@8
rdata$r	ENDS
;	COMDAT ??_R2CharsetRecog_IBM424_he_rtl@icu_56@@8
rdata$r	SEGMENT
??_R2CharsetRecog_IBM424_he_rtl@icu_56@@8 DD FLAT:??_R1A@?0A@EA@CharsetRecog_IBM424_he_rtl@icu_56@@8 ; icu_56::CharsetRecog_IBM424_he_rtl::`RTTI Base Class Array'
	DD	FLAT:??_R1A@?0A@EA@CharsetRecog_IBM424_he@icu_56@@8
	DD	FLAT:??_R1A@?0A@EA@CharsetRecog_sbcs@icu_56@@8
	DD	FLAT:??_R1A@?0A@EA@CharsetRecognizer@icu_56@@8
	DD	FLAT:??_R13?0A@EA@UMemory@icu_56@@8
rdata$r	ENDS
;	COMDAT ??_R3CharsetRecog_IBM424_he_rtl@icu_56@@8
rdata$r	SEGMENT
??_R3CharsetRecog_IBM424_he_rtl@icu_56@@8 DD 00H	; icu_56::CharsetRecog_IBM424_he_rtl::`RTTI Class Hierarchy Descriptor'
	DD	00H
	DD	05H
	DD	FLAT:??_R2CharsetRecog_IBM424_he_rtl@icu_56@@8
rdata$r	ENDS
;	COMDAT ??_R0?AVCharsetRecog_IBM424_he_rtl@icu_56@@@8
_DATA	SEGMENT
??_R0?AVCharsetRecog_IBM424_he_rtl@icu_56@@@8 DD FLAT:??_7type_info@@6B@ ; icu_56::CharsetRecog_IBM424_he_rtl `RTTI Type Descriptor'
	DD	00H
	DB	'.?AVCharsetRecog_IBM424_he_rtl@icu_56@@', 00H
_DATA	ENDS
;	COMDAT ??_R4CharsetRecog_IBM424_he_rtl@icu_56@@6B@
rdata$r	SEGMENT
??_R4CharsetRecog_IBM424_he_rtl@icu_56@@6B@ DD 00H	; icu_56::CharsetRecog_IBM424_he_rtl::`RTTI Complete Object Locator'
	DD	00H
	DD	00H
	DD	FLAT:??_R0?AVCharsetRecog_IBM424_he_rtl@icu_56@@@8
	DD	FLAT:??_R3CharsetRecog_IBM424_he_rtl@icu_56@@8
rdata$r	ENDS
;	COMDAT ??_7CharsetRecog_IBM424_he_rtl@icu_56@@6B@
CONST	SEGMENT
??_7CharsetRecog_IBM424_he_rtl@icu_56@@6B@ DD FLAT:??_R4CharsetRecog_IBM424_he_rtl@icu_56@@6B@ ; icu_56::CharsetRecog_IBM424_he_rtl::`vftable'
	DD	FLAT:?getName@CharsetRecog_IBM424_he_rtl@icu_56@@UBEPBDXZ
	DD	FLAT:?getLanguage@CharsetRecog_IBM424_he@icu_56@@UBEPBDXZ
	DD	FLAT:?match@CharsetRecog_IBM424_he_rtl@icu_56@@UBECPAVInputText@2@PAVCharsetMatch@2@@Z
	DD	FLAT:??_ECharsetRecog_IBM424_he_rtl@icu_56@@UAEPAXI@Z
	DD	FLAT:?match_sbcs@CharsetRecog_sbcs@icu_56@@UBEHPAVInputText@2@QBHQBE@Z
; Function compile flags: /Odtp /RTCsu /ZI
CONST	ENDS
;	COMDAT ??0CharsetRecog_IBM424_he_rtl@icu_56@@QAE@XZ
_TEXT	SEGMENT
_this$ = -8						; size = 4
??0CharsetRecog_IBM424_he_rtl@icu_56@@QAE@XZ PROC	; icu_56::CharsetRecog_IBM424_he_rtl::CharsetRecog_IBM424_he_rtl, COMDAT
; _this$ = ecx
	push	ebp
	mov	ebp, esp
	sub	esp, 204				; 000000ccH
	push	ebx
	push	esi
	push	edi
	push	ecx
	lea	edi, DWORD PTR [ebp-204]
	mov	ecx, 51					; 00000033H
	mov	eax, -858993460				; ccccccccH
	rep stosd
	pop	ecx
	mov	DWORD PTR _this$[ebp], ecx
	mov	ecx, DWORD PTR _this$[ebp]
	call	??0CharsetRecog_IBM424_he@icu_56@@QAE@XZ
	mov	eax, DWORD PTR _this$[ebp]
	mov	DWORD PTR [eax], OFFSET ??_7CharsetRecog_IBM424_he_rtl@icu_56@@6B@
	mov	eax, DWORD PTR _this$[ebp]
	pop	edi
	pop	esi
	pop	ebx
	add	esp, 204				; 000000ccH
	cmp	ebp, esp
	call	__RTC_CheckEsp
	mov	esp, ebp
	pop	ebp
	ret	0
??0CharsetRecog_IBM424_he_rtl@icu_56@@QAE@XZ ENDP	; icu_56::CharsetRecog_IBM424_he_rtl::CharsetRecog_IBM424_he_rtl
_TEXT	ENDS
PUBLIC	??_7CharsetRecog_IBM424_he_ltr@icu_56@@6B@	; icu_56::CharsetRecog_IBM424_he_ltr::`vftable'
PUBLIC	??_R4CharsetRecog_IBM424_he_ltr@icu_56@@6B@	; icu_56::CharsetRecog_IBM424_he_ltr::`RTTI Complete Object Locator'
PUBLIC	??_R0?AVCharsetRecog_IBM424_he_ltr@icu_56@@@8	; icu_56::CharsetRecog_IBM424_he_ltr `RTTI Type Descriptor'
PUBLIC	??_R3CharsetRecog_IBM424_he_ltr@icu_56@@8	; icu_56::CharsetRecog_IBM424_he_ltr::`RTTI Class Hierarchy Descriptor'
PUBLIC	??_R2CharsetRecog_IBM424_he_ltr@icu_56@@8	; icu_56::CharsetRecog_IBM424_he_ltr::`RTTI Base Class Array'
PUBLIC	??_R1A@?0A@EA@CharsetRecog_IBM424_he_ltr@icu_56@@8 ; icu_56::CharsetRecog_IBM424_he_ltr::`RTTI Base Class Descriptor at (0,-1,0,64)'
EXTRN	?getName@CharsetRecog_IBM424_he_ltr@icu_56@@EBEPBDXZ:PROC ; icu_56::CharsetRecog_IBM424_he_ltr::getName
EXTRN	?match@CharsetRecog_IBM424_he_ltr@icu_56@@EBECPAVInputText@2@PAVCharsetMatch@2@@Z:PROC ; icu_56::CharsetRecog_IBM424_he_ltr::match
EXTRN	??_ECharsetRecog_IBM424_he_ltr@icu_56@@EAEPAXI@Z:PROC ; icu_56::CharsetRecog_IBM424_he_ltr::`vector deleting destructor'
;	COMDAT ??_R1A@?0A@EA@CharsetRecog_IBM424_he_ltr@icu_56@@8
rdata$r	SEGMENT
??_R1A@?0A@EA@CharsetRecog_IBM424_he_ltr@icu_56@@8 DD FLAT:??_R0?AVCharsetRecog_IBM424_he_ltr@icu_56@@@8 ; icu_56::CharsetRecog_IBM424_he_ltr::`RTTI Base Class Descriptor at (0,-1,0,64)'
	DD	04H
	DD	00H
	DD	0ffffffffH
	DD	00H
	DD	040H
	DD	FLAT:??_R3CharsetRecog_IBM424_he_ltr@icu_56@@8
rdata$r	ENDS
;	COMDAT ??_R2CharsetRecog_IBM424_he_ltr@icu_56@@8
rdata$r	SEGMENT
??_R2CharsetRecog_IBM424_he_ltr@icu_56@@8 DD FLAT:??_R1A@?0A@EA@CharsetRecog_IBM424_he_ltr@icu_56@@8 ; icu_56::CharsetRecog_IBM424_he_ltr::`RTTI Base Class Array'
	DD	FLAT:??_R1A@?0A@EA@CharsetRecog_IBM424_he@icu_56@@8
	DD	FLAT:??_R1A@?0A@EA@CharsetRecog_sbcs@icu_56@@8
	DD	FLAT:??_R1A@?0A@EA@CharsetRecognizer@icu_56@@8
	DD	FLAT:??_R13?0A@EA@UMemory@icu_56@@8
rdata$r	ENDS
;	COMDAT ??_R3CharsetRecog_IBM424_he_ltr@icu_56@@8
rdata$r	SEGMENT
??_R3CharsetRecog_IBM424_he_ltr@icu_56@@8 DD 00H	; icu_56::CharsetRecog_IBM424_he_ltr::`RTTI Class Hierarchy Descriptor'
	DD	00H
	DD	05H
	DD	FLAT:??_R2CharsetRecog_IBM424_he_ltr@icu_56@@8
rdata$r	ENDS
;	COMDAT ??_R0?AVCharsetRecog_IBM424_he_ltr@icu_56@@@8
_DATA	SEGMENT
??_R0?AVCharsetRecog_IBM424_he_ltr@icu_56@@@8 DD FLAT:??_7type_info@@6B@ ; icu_56::CharsetRecog_IBM424_he_ltr `RTTI Type Descriptor'
	DD	00H
	DB	'.?AVCharsetRecog_IBM424_he_ltr@icu_56@@', 00H
_DATA	ENDS
;	COMDAT ??_R4CharsetRecog_IBM424_he_ltr@icu_56@@6B@
rdata$r	SEGMENT
??_R4CharsetRecog_IBM424_he_ltr@icu_56@@6B@ DD 00H	; icu_56::CharsetRecog_IBM424_he_ltr::`RTTI Complete Object Locator'
	DD	00H
	DD	00H
	DD	FLAT:??_R0?AVCharsetRecog_IBM424_he_ltr@icu_56@@@8
	DD	FLAT:??_R3CharsetRecog_IBM424_he_ltr@icu_56@@8
rdata$r	ENDS
;	COMDAT ??_7CharsetRecog_IBM424_he_ltr@icu_56@@6B@
CONST	SEGMENT
??_7CharsetRecog_IBM424_he_ltr@icu_56@@6B@ DD FLAT:??_R4CharsetRecog_IBM424_he_ltr@icu_56@@6B@ ; icu_56::CharsetRecog_IBM424_he_ltr::`vftable'
	DD	FLAT:?getName@CharsetRecog_IBM424_he_ltr@icu_56@@EBEPBDXZ
	DD	FLAT:?getLanguage@CharsetRecog_IBM424_he@icu_56@@UBEPBDXZ
	DD	FLAT:?match@CharsetRecog_IBM424_he_ltr@icu_56@@EBECPAVInputText@2@PAVCharsetMatch@2@@Z
	DD	FLAT:??_ECharsetRecog_IBM424_he_ltr@icu_56@@EAEPAXI@Z
	DD	FLAT:?match_sbcs@CharsetRecog_sbcs@icu_56@@UBEHPAVInputText@2@QBHQBE@Z
; Function compile flags: /Odtp /RTCsu /ZI
CONST	ENDS
;	COMDAT ??0CharsetRecog_IBM424_he_ltr@icu_56@@QAE@XZ
_TEXT	SEGMENT
_this$ = -8						; size = 4
??0CharsetRecog_IBM424_he_ltr@icu_56@@QAE@XZ PROC	; icu_56::CharsetRecog_IBM424_he_ltr::CharsetRecog_IBM424_he_ltr, COMDAT
; _this$ = ecx
	push	ebp
	mov	ebp, esp
	sub	esp, 204				; 000000ccH
	push	ebx
	push	esi
	push	edi
	push	ecx
	lea	edi, DWORD PTR [ebp-204]
	mov	ecx, 51					; 00000033H
	mov	eax, -858993460				; ccccccccH
	rep stosd
	pop	ecx
	mov	DWORD PTR _this$[ebp], ecx
	mov	ecx, DWORD PTR _this$[ebp]
	call	??0CharsetRecog_IBM424_he@icu_56@@QAE@XZ
	mov	eax, DWORD PTR _this$[ebp]
	mov	DWORD PTR [eax], OFFSET ??_7CharsetRecog_IBM424_he_ltr@icu_56@@6B@
	mov	eax, DWORD PTR _this$[ebp]
	pop	edi
	pop	esi
	pop	ebx
	add	esp, 204				; 000000ccH
	cmp	ebp, esp
	call	__RTC_CheckEsp
	mov	esp, ebp
	pop	ebp
	ret	0
??0CharsetRecog_IBM424_he_ltr@icu_56@@QAE@XZ ENDP	; icu_56::CharsetRecog_IBM424_he_ltr::CharsetRecog_IBM424_he_ltr
_TEXT	ENDS
PUBLIC	??_7CharsetRecog_IBM420_ar_rtl@icu_56@@6B@	; icu_56::CharsetRecog_IBM420_ar_rtl::`vftable'
PUBLIC	??0CharsetRecog_IBM420_ar@icu_56@@QAE@XZ	; icu_56::CharsetRecog_IBM420_ar::CharsetRecog_IBM420_ar
PUBLIC	??_R4CharsetRecog_IBM420_ar_rtl@icu_56@@6B@	; icu_56::CharsetRecog_IBM420_ar_rtl::`RTTI Complete Object Locator'
PUBLIC	??_R0?AVCharsetRecog_IBM420_ar_rtl@icu_56@@@8	; icu_56::CharsetRecog_IBM420_ar_rtl `RTTI Type Descriptor'
PUBLIC	??_R3CharsetRecog_IBM420_ar_rtl@icu_56@@8	; icu_56::CharsetRecog_IBM420_ar_rtl::`RTTI Class Hierarchy Descriptor'
PUBLIC	??_R2CharsetRecog_IBM420_ar_rtl@icu_56@@8	; icu_56::CharsetRecog_IBM420_ar_rtl::`RTTI Base Class Array'
PUBLIC	??_R1A@?0A@EA@CharsetRecog_IBM420_ar_rtl@icu_56@@8 ; icu_56::CharsetRecog_IBM420_ar_rtl::`RTTI Base Class Descriptor at (0,-1,0,64)'
PUBLIC	??_R1A@?0A@EA@CharsetRecog_IBM420_ar@icu_56@@8	; icu_56::CharsetRecog_IBM420_ar::`RTTI Base Class Descriptor at (0,-1,0,64)'
PUBLIC	??_R0?AVCharsetRecog_IBM420_ar@icu_56@@@8	; icu_56::CharsetRecog_IBM420_ar `RTTI Type Descriptor'
PUBLIC	??_R3CharsetRecog_IBM420_ar@icu_56@@8		; icu_56::CharsetRecog_IBM420_ar::`RTTI Class Hierarchy Descriptor'
PUBLIC	??_R2CharsetRecog_IBM420_ar@icu_56@@8		; icu_56::CharsetRecog_IBM420_ar::`RTTI Base Class Array'
EXTRN	?getName@CharsetRecog_IBM420_ar_rtl@icu_56@@UBEPBDXZ:PROC ; icu_56::CharsetRecog_IBM420_ar_rtl::getName
EXTRN	?getLanguage@CharsetRecog_IBM420_ar@icu_56@@UBEPBDXZ:PROC ; icu_56::CharsetRecog_IBM420_ar::getLanguage
EXTRN	?match@CharsetRecog_IBM420_ar_rtl@icu_56@@UBECPAVInputText@2@PAVCharsetMatch@2@@Z:PROC ; icu_56::CharsetRecog_IBM420_ar_rtl::match
EXTRN	??_ECharsetRecog_IBM420_ar_rtl@icu_56@@UAEPAXI@Z:PROC ; icu_56::CharsetRecog_IBM420_ar_rtl::`vector deleting destructor'
EXTRN	?match_sbcs@CharsetRecog_IBM420_ar@icu_56@@UBEHPAVInputText@2@QBHQBE@Z:PROC ; icu_56::CharsetRecog_IBM420_ar::match_sbcs
;	COMDAT ??_R2CharsetRecog_IBM420_ar@icu_56@@8
rdata$r	SEGMENT
??_R2CharsetRecog_IBM420_ar@icu_56@@8 DD FLAT:??_R1A@?0A@EA@CharsetRecog_IBM420_ar@icu_56@@8 ; icu_56::CharsetRecog_IBM420_ar::`RTTI Base Class Array'
	DD	FLAT:??_R1A@?0A@EA@CharsetRecog_sbcs@icu_56@@8
	DD	FLAT:??_R1A@?0A@EA@CharsetRecognizer@icu_56@@8
	DD	FLAT:??_R13?0A@EA@UMemory@icu_56@@8
rdata$r	ENDS
;	COMDAT ??_R3CharsetRecog_IBM420_ar@icu_56@@8
rdata$r	SEGMENT
??_R3CharsetRecog_IBM420_ar@icu_56@@8 DD 00H		; icu_56::CharsetRecog_IBM420_ar::`RTTI Class Hierarchy Descriptor'
	DD	00H
	DD	04H
	DD	FLAT:??_R2CharsetRecog_IBM420_ar@icu_56@@8
rdata$r	ENDS
;	COMDAT ??_R0?AVCharsetRecog_IBM420_ar@icu_56@@@8
_DATA	SEGMENT
??_R0?AVCharsetRecog_IBM420_ar@icu_56@@@8 DD FLAT:??_7type_info@@6B@ ; icu_56::CharsetRecog_IBM420_ar `RTTI Type Descriptor'
	DD	00H
	DB	'.?AVCharsetRecog_IBM420_ar@icu_56@@', 00H
_DATA	ENDS
;	COMDAT ??_R1A@?0A@EA@CharsetRecog_IBM420_ar@icu_56@@8
rdata$r	SEGMENT
??_R1A@?0A@EA@CharsetRecog_IBM420_ar@icu_56@@8 DD FLAT:??_R0?AVCharsetRecog_IBM420_ar@icu_56@@@8 ; icu_56::CharsetRecog_IBM420_ar::`RTTI Base Class Descriptor at (0,-1,0,64)'
	DD	03H
	DD	00H
	DD	0ffffffffH
	DD	00H
	DD	040H
	DD	FLAT:??_R3CharsetRecog_IBM420_ar@icu_56@@8
rdata$r	ENDS
;	COMDAT ??_R1A@?0A@EA@CharsetRecog_IBM420_ar_rtl@icu_56@@8
rdata$r	SEGMENT
??_R1A@?0A@EA@CharsetRecog_IBM420_ar_rtl@icu_56@@8 DD FLAT:??_R0?AVCharsetRecog_IBM420_ar_rtl@icu_56@@@8 ; icu_56::CharsetRecog_IBM420_ar_rtl::`RTTI Base Class Descriptor at (0,-1,0,64)'
	DD	04H
	DD	00H
	DD	0ffffffffH
	DD	00H
	DD	040H
	DD	FLAT:??_R3CharsetRecog_IBM420_ar_rtl@icu_56@@8
rdata$r	ENDS
;	COMDAT ??_R2CharsetRecog_IBM420_ar_rtl@icu_56@@8
rdata$r	SEGMENT
??_R2CharsetRecog_IBM420_ar_rtl@icu_56@@8 DD FLAT:??_R1A@?0A@EA@CharsetRecog_IBM420_ar_rtl@icu_56@@8 ; icu_56::CharsetRecog_IBM420_ar_rtl::`RTTI Base Class Array'
	DD	FLAT:??_R1A@?0A@EA@CharsetRecog_IBM420_ar@icu_56@@8
	DD	FLAT:??_R1A@?0A@EA@CharsetRecog_sbcs@icu_56@@8
	DD	FLAT:??_R1A@?0A@EA@CharsetRecognizer@icu_56@@8
	DD	FLAT:??_R13?0A@EA@UMemory@icu_56@@8
rdata$r	ENDS
;	COMDAT ??_R3CharsetRecog_IBM420_ar_rtl@icu_56@@8
rdata$r	SEGMENT
??_R3CharsetRecog_IBM420_ar_rtl@icu_56@@8 DD 00H	; icu_56::CharsetRecog_IBM420_ar_rtl::`RTTI Class Hierarchy Descriptor'
	DD	00H
	DD	05H
	DD	FLAT:??_R2CharsetRecog_IBM420_ar_rtl@icu_56@@8
rdata$r	ENDS
;	COMDAT ??_R0?AVCharsetRecog_IBM420_ar_rtl@icu_56@@@8
_DATA	SEGMENT
??_R0?AVCharsetRecog_IBM420_ar_rtl@icu_56@@@8 DD FLAT:??_7type_info@@6B@ ; icu_56::CharsetRecog_IBM420_ar_rtl `RTTI Type Descriptor'
	DD	00H
	DB	'.?AVCharsetRecog_IBM420_ar_rtl@icu_56@@', 00H
_DATA	ENDS
;	COMDAT ??_R4CharsetRecog_IBM420_ar_rtl@icu_56@@6B@
rdata$r	SEGMENT
??_R4CharsetRecog_IBM420_ar_rtl@icu_56@@6B@ DD 00H	; icu_56::CharsetRecog_IBM420_ar_rtl::`RTTI Complete Object Locator'
	DD	00H
	DD	00H
	DD	FLAT:??_R0?AVCharsetRecog_IBM420_ar_rtl@icu_56@@@8
	DD	FLAT:??_R3CharsetRecog_IBM420_ar_rtl@icu_56@@8
rdata$r	ENDS
;	COMDAT ??_7CharsetRecog_IBM420_ar_rtl@icu_56@@6B@
CONST	SEGMENT
??_7CharsetRecog_IBM420_ar_rtl@icu_56@@6B@ DD FLAT:??_R4CharsetRecog_IBM420_ar_rtl@icu_56@@6B@ ; icu_56::CharsetRecog_IBM420_ar_rtl::`vftable'
	DD	FLAT:?getName@CharsetRecog_IBM420_ar_rtl@icu_56@@UBEPBDXZ
	DD	FLAT:?getLanguage@CharsetRecog_IBM420_ar@icu_56@@UBEPBDXZ
	DD	FLAT:?match@CharsetRecog_IBM420_ar_rtl@icu_56@@UBECPAVInputText@2@PAVCharsetMatch@2@@Z
	DD	FLAT:??_ECharsetRecog_IBM420_ar_rtl@icu_56@@UAEPAXI@Z
	DD	FLAT:?match_sbcs@CharsetRecog_IBM420_ar@icu_56@@UBEHPAVInputText@2@QBHQBE@Z
; Function compile flags: /Odtp /RTCsu /ZI
CONST	ENDS
;	COMDAT ??0CharsetRecog_IBM420_ar_rtl@icu_56@@QAE@XZ
_TEXT	SEGMENT
_this$ = -8						; size = 4
??0CharsetRecog_IBM420_ar_rtl@icu_56@@QAE@XZ PROC	; icu_56::CharsetRecog_IBM420_ar_rtl::CharsetRecog_IBM420_ar_rtl, COMDAT
; _this$ = ecx
	push	ebp
	mov	ebp, esp
	sub	esp, 204				; 000000ccH
	push	ebx
	push	esi
	push	edi
	push	ecx
	lea	edi, DWORD PTR [ebp-204]
	mov	ecx, 51					; 00000033H
	mov	eax, -858993460				; ccccccccH
	rep stosd
	pop	ecx
	mov	DWORD PTR _this$[ebp], ecx
	mov	ecx, DWORD PTR _this$[ebp]
	call	??0CharsetRecog_IBM420_ar@icu_56@@QAE@XZ
	mov	eax, DWORD PTR _this$[ebp]
	mov	DWORD PTR [eax], OFFSET ??_7CharsetRecog_IBM420_ar_rtl@icu_56@@6B@
	mov	eax, DWORD PTR _this$[ebp]
	pop	edi
	pop	esi
	pop	ebx
	add	esp, 204				; 000000ccH
	cmp	ebp, esp
	call	__RTC_CheckEsp
	mov	esp, ebp
	pop	ebp
	ret	0
??0CharsetRecog_IBM420_ar_rtl@icu_56@@QAE@XZ ENDP	; icu_56::CharsetRecog_IBM420_ar_rtl::CharsetRecog_IBM420_ar_rtl
_TEXT	ENDS
PUBLIC	??_7CharsetRecog_IBM420_ar_ltr@icu_56@@6B@	; icu_56::CharsetRecog_IBM420_ar_ltr::`vftable'
PUBLIC	??_R4CharsetRecog_IBM420_ar_ltr@icu_56@@6B@	; icu_56::CharsetRecog_IBM420_ar_ltr::`RTTI Complete Object Locator'
PUBLIC	??_R0?AVCharsetRecog_IBM420_ar_ltr@icu_56@@@8	; icu_56::CharsetRecog_IBM420_ar_ltr `RTTI Type Descriptor'
PUBLIC	??_R3CharsetRecog_IBM420_ar_ltr@icu_56@@8	; icu_56::CharsetRecog_IBM420_ar_ltr::`RTTI Class Hierarchy Descriptor'
PUBLIC	??_R2CharsetRecog_IBM420_ar_ltr@icu_56@@8	; icu_56::CharsetRecog_IBM420_ar_ltr::`RTTI Base Class Array'
PUBLIC	??_R1A@?0A@EA@CharsetRecog_IBM420_ar_ltr@icu_56@@8 ; icu_56::CharsetRecog_IBM420_ar_ltr::`RTTI Base Class Descriptor at (0,-1,0,64)'
EXTRN	?getName@CharsetRecog_IBM420_ar_ltr@icu_56@@EBEPBDXZ:PROC ; icu_56::CharsetRecog_IBM420_ar_ltr::getName
EXTRN	?match@CharsetRecog_IBM420_ar_ltr@icu_56@@EBECPAVInputText@2@PAVCharsetMatch@2@@Z:PROC ; icu_56::CharsetRecog_IBM420_ar_ltr::match
EXTRN	??_ECharsetRecog_IBM420_ar_ltr@icu_56@@EAEPAXI@Z:PROC ; icu_56::CharsetRecog_IBM420_ar_ltr::`vector deleting destructor'
;	COMDAT ??_R1A@?0A@EA@CharsetRecog_IBM420_ar_ltr@icu_56@@8
rdata$r	SEGMENT
??_R1A@?0A@EA@CharsetRecog_IBM420_ar_ltr@icu_56@@8 DD FLAT:??_R0?AVCharsetRecog_IBM420_ar_ltr@icu_56@@@8 ; icu_56::CharsetRecog_IBM420_ar_ltr::`RTTI Base Class Descriptor at (0,-1,0,64)'
	DD	04H
	DD	00H
	DD	0ffffffffH
	DD	00H
	DD	040H
	DD	FLAT:??_R3CharsetRecog_IBM420_ar_ltr@icu_56@@8
rdata$r	ENDS
;	COMDAT ??_R2CharsetRecog_IBM420_ar_ltr@icu_56@@8
rdata$r	SEGMENT
??_R2CharsetRecog_IBM420_ar_ltr@icu_56@@8 DD FLAT:??_R1A@?0A@EA@CharsetRecog_IBM420_ar_ltr@icu_56@@8 ; icu_56::CharsetRecog_IBM420_ar_ltr::`RTTI Base Class Array'
	DD	FLAT:??_R1A@?0A@EA@CharsetRecog_IBM420_ar@icu_56@@8
	DD	FLAT:??_R1A@?0A@EA@CharsetRecog_sbcs@icu_56@@8
	DD	FLAT:??_R1A@?0A@EA@CharsetRecognizer@icu_56@@8
	DD	FLAT:??_R13?0A@EA@UMemory@icu_56@@8
rdata$r	ENDS
;	COMDAT ??_R3CharsetRecog_IBM420_ar_ltr@icu_56@@8
rdata$r	SEGMENT
??_R3CharsetRecog_IBM420_ar_ltr@icu_56@@8 DD 00H	; icu_56::CharsetRecog_IBM420_ar_ltr::`RTTI Class Hierarchy Descriptor'
	DD	00H
	DD	05H
	DD	FLAT:??_R2CharsetRecog_IBM420_ar_ltr@icu_56@@8
rdata$r	ENDS
;	COMDAT ??_R0?AVCharsetRecog_IBM420_ar_ltr@icu_56@@@8
_DATA	SEGMENT
??_R0?AVCharsetRecog_IBM420_ar_ltr@icu_56@@@8 DD FLAT:??_7type_info@@6B@ ; icu_56::CharsetRecog_IBM420_ar_ltr `RTTI Type Descriptor'
	DD	00H
	DB	'.?AVCharsetRecog_IBM420_ar_ltr@icu_56@@', 00H
_DATA	ENDS
;	COMDAT ??_R4CharsetRecog_IBM420_ar_ltr@icu_56@@6B@
rdata$r	SEGMENT
??_R4CharsetRecog_IBM420_ar_ltr@icu_56@@6B@ DD 00H	; icu_56::CharsetRecog_IBM420_ar_ltr::`RTTI Complete Object Locator'
	DD	00H
	DD	00H
	DD	FLAT:??_R0?AVCharsetRecog_IBM420_ar_ltr@icu_56@@@8
	DD	FLAT:??_R3CharsetRecog_IBM420_ar_ltr@icu_56@@8
rdata$r	ENDS
;	COMDAT ??_7CharsetRecog_IBM420_ar_ltr@icu_56@@6B@
CONST	SEGMENT
??_7CharsetRecog_IBM420_ar_ltr@icu_56@@6B@ DD FLAT:??_R4CharsetRecog_IBM420_ar_ltr@icu_56@@6B@ ; icu_56::CharsetRecog_IBM420_ar_ltr::`vftable'
	DD	FLAT:?getName@CharsetRecog_IBM420_ar_ltr@icu_56@@EBEPBDXZ
	DD	FLAT:?getLanguage@CharsetRecog_IBM420_ar@icu_56@@UBEPBDXZ
	DD	FLAT:?match@CharsetRecog_IBM420_ar_ltr@icu_56@@EBECPAVInputText@2@PAVCharsetMatch@2@@Z
	DD	FLAT:??_ECharsetRecog_IBM420_ar_ltr@icu_56@@EAEPAXI@Z
	DD	FLAT:?match_sbcs@CharsetRecog_IBM420_ar@icu_56@@UBEHPAVInputText@2@QBHQBE@Z
; Function compile flags: /Odtp /RTCsu /ZI
CONST	ENDS
;	COMDAT ??0CharsetRecog_IBM420_ar_ltr@icu_56@@QAE@XZ
_TEXT	SEGMENT
_this$ = -8						; size = 4
??0CharsetRecog_IBM420_ar_ltr@icu_56@@QAE@XZ PROC	; icu_56::CharsetRecog_IBM420_ar_ltr::CharsetRecog_IBM420_ar_ltr, COMDAT
; _this$ = ecx
	push	ebp
	mov	ebp, esp
	sub	esp, 204				; 000000ccH
	push	ebx
	push	esi
	push	edi
	push	ecx
	lea	edi, DWORD PTR [ebp-204]
	mov	ecx, 51					; 00000033H
	mov	eax, -858993460				; ccccccccH
	rep stosd
	pop	ecx
	mov	DWORD PTR _this$[ebp], ecx
	mov	ecx, DWORD PTR _this$[ebp]
	call	??0CharsetRecog_IBM420_ar@icu_56@@QAE@XZ
	mov	eax, DWORD PTR _this$[ebp]
	mov	DWORD PTR [eax], OFFSET ??_7CharsetRecog_IBM420_ar_ltr@icu_56@@6B@
	mov	eax, DWORD PTR _this$[ebp]
	pop	edi
	pop	esi
	pop	ebx
	add	esp, 204				; 000000ccH
	cmp	ebp, esp
	call	__RTC_CheckEsp
	mov	esp, ebp
	pop	ebp
	ret	0
??0CharsetRecog_IBM420_ar_ltr@icu_56@@QAE@XZ ENDP	; icu_56::CharsetRecog_IBM420_ar_ltr::CharsetRecog_IBM420_ar_ltr
_TEXT	ENDS
EXTRN	??1CharsetRecog_UTF8@icu_56@@UAE@XZ:PROC	; icu_56::CharsetRecog_UTF8::~CharsetRecog_UTF8
; Function compile flags: /Odtp /RTCsu /ZI
;	COMDAT ??_GCharsetRecog_UTF8@icu_56@@UAEPAXI@Z
_TEXT	SEGMENT
_this$ = -8						; size = 4
___flags$ = 8						; size = 4
??_GCharsetRecog_UTF8@icu_56@@UAEPAXI@Z PROC		; icu_56::CharsetRecog_UTF8::`scalar deleting destructor', COMDAT
; _this$ = ecx
	push	ebp
	mov	ebp, esp
	sub	esp, 204				; 000000ccH
	push	ebx
	push	esi
	push	edi
	push	ecx
	lea	edi, DWORD PTR [ebp-204]
	mov	ecx, 51					; 00000033H
	mov	eax, -858993460				; ccccccccH
	rep stosd
	pop	ecx
	mov	DWORD PTR _this$[ebp], ecx
	mov	ecx, DWORD PTR _this$[ebp]
	call	??1CharsetRecog_UTF8@icu_56@@UAE@XZ	; icu_56::CharsetRecog_UTF8::~CharsetRecog_UTF8
	mov	eax, DWORD PTR ___flags$[ebp]
	and	eax, 1
	je	SHORT $LN1@scalar@2
	mov	esi, esp
	mov	eax, DWORD PTR _this$[ebp]
	push	eax
	call	DWORD PTR __imp_??3UMemory@icu_56@@SAXPAX@Z
	add	esp, 4
	cmp	esi, esp
	call	__RTC_CheckEsp
$LN1@scalar@2:
	mov	eax, DWORD PTR _this$[ebp]
	pop	edi
	pop	esi
	pop	ebx
	add	esp, 204				; 000000ccH
	cmp	ebp, esp
	call	__RTC_CheckEsp
	mov	esp, ebp
	pop	ebp
	ret	4
??_GCharsetRecog_UTF8@icu_56@@UAEPAXI@Z ENDP		; icu_56::CharsetRecog_UTF8::`scalar deleting destructor'
_TEXT	ENDS
PUBLIC	??_7CharsetRecognizer@icu_56@@6B@		; icu_56::CharsetRecognizer::`vftable'
PUBLIC	??_R4CharsetRecognizer@icu_56@@6B@		; icu_56::CharsetRecognizer::`RTTI Complete Object Locator'
EXTRN	__purecall:PROC
EXTRN	??_ECharsetRecognizer@icu_56@@UAEPAXI@Z:PROC	; icu_56::CharsetRecognizer::`vector deleting destructor'
;	COMDAT ??_R4CharsetRecognizer@icu_56@@6B@
rdata$r	SEGMENT
??_R4CharsetRecognizer@icu_56@@6B@ DD 00H		; icu_56::CharsetRecognizer::`RTTI Complete Object Locator'
	DD	00H
	DD	00H
	DD	FLAT:??_R0?AVCharsetRecognizer@icu_56@@@8
	DD	FLAT:??_R3CharsetRecognizer@icu_56@@8
rdata$r	ENDS
;	COMDAT ??_7CharsetRecognizer@icu_56@@6B@
CONST	SEGMENT
??_7CharsetRecognizer@icu_56@@6B@ DD FLAT:??_R4CharsetRecognizer@icu_56@@6B@ ; icu_56::CharsetRecognizer::`vftable'
	DD	FLAT:__purecall
	DD	FLAT:?getLanguage@CharsetRecognizer@icu_56@@UBEPBDXZ
	DD	FLAT:__purecall
	DD	FLAT:??_ECharsetRecognizer@icu_56@@UAEPAXI@Z
; Function compile flags: /Odtp /RTCsu /ZI
CONST	ENDS
;	COMDAT ??0CharsetRecognizer@icu_56@@QAE@XZ
_TEXT	SEGMENT
_this$ = -8						; size = 4
??0CharsetRecognizer@icu_56@@QAE@XZ PROC		; icu_56::CharsetRecognizer::CharsetRecognizer, COMDAT
; _this$ = ecx
	push	ebp
	mov	ebp, esp
	sub	esp, 204				; 000000ccH
	push	ebx
	push	esi
	push	edi
	push	ecx
	lea	edi, DWORD PTR [ebp-204]
	mov	ecx, 51					; 00000033H
	mov	eax, -858993460				; ccccccccH
	rep stosd
	pop	ecx
	mov	DWORD PTR _this$[ebp], ecx
	mov	eax, DWORD PTR _this$[ebp]
	mov	DWORD PTR [eax], OFFSET ??_7CharsetRecognizer@icu_56@@6B@
	mov	eax, DWORD PTR _this$[ebp]
	pop	edi
	pop	esi
	pop	ebx
	mov	esp, ebp
	pop	ebp
	ret	0
??0CharsetRecognizer@icu_56@@QAE@XZ ENDP		; icu_56::CharsetRecognizer::CharsetRecognizer
_TEXT	ENDS
EXTRN	??1CharsetRecog_UTF_16_BE@icu_56@@UAE@XZ:PROC	; icu_56::CharsetRecog_UTF_16_BE::~CharsetRecog_UTF_16_BE
; Function compile flags: /Odtp /RTCsu /ZI
;	COMDAT ??_GCharsetRecog_UTF_16_BE@icu_56@@UAEPAXI@Z
_TEXT	SEGMENT
_this$ = -8						; size = 4
___flags$ = 8						; size = 4
??_GCharsetRecog_UTF_16_BE@icu_56@@UAEPAXI@Z PROC	; icu_56::CharsetRecog_UTF_16_BE::`scalar deleting destructor', COMDAT
; _this$ = ecx
	push	ebp
	mov	ebp, esp
	sub	esp, 204				; 000000ccH
	push	ebx
	push	esi
	push	edi
	push	ecx
	lea	edi, DWORD PTR [ebp-204]
	mov	ecx, 51					; 00000033H
	mov	eax, -858993460				; ccccccccH
	rep stosd
	pop	ecx
	mov	DWORD PTR _this$[ebp], ecx
	mov	ecx, DWORD PTR _this$[ebp]
	call	??1CharsetRecog_UTF_16_BE@icu_56@@UAE@XZ ; icu_56::CharsetRecog_UTF_16_BE::~CharsetRecog_UTF_16_BE
	mov	eax, DWORD PTR ___flags$[ebp]
	and	eax, 1
	je	SHORT $LN1@scalar@3
	mov	esi, esp
	mov	eax, DWORD PTR _this$[ebp]
	push	eax
	call	DWORD PTR __imp_??3UMemory@icu_56@@SAXPAX@Z
	add	esp, 4
	cmp	esi, esp
	call	__RTC_CheckEsp
$LN1@scalar@3:
	mov	eax, DWORD PTR _this$[ebp]
	pop	edi
	pop	esi
	pop	ebx
	add	esp, 204				; 000000ccH
	cmp	ebp, esp
	call	__RTC_CheckEsp
	mov	esp, ebp
	pop	ebp
	ret	4
??_GCharsetRecog_UTF_16_BE@icu_56@@UAEPAXI@Z ENDP	; icu_56::CharsetRecog_UTF_16_BE::`scalar deleting destructor'
_TEXT	ENDS
PUBLIC	??_7CharsetRecog_Unicode@icu_56@@6B@		; icu_56::CharsetRecog_Unicode::`vftable'
PUBLIC	??_R4CharsetRecog_Unicode@icu_56@@6B@		; icu_56::CharsetRecog_Unicode::`RTTI Complete Object Locator'
EXTRN	??_ECharsetRecog_Unicode@icu_56@@UAEPAXI@Z:PROC	; icu_56::CharsetRecog_Unicode::`vector deleting destructor'
;	COMDAT ??_R4CharsetRecog_Unicode@icu_56@@6B@
rdata$r	SEGMENT
??_R4CharsetRecog_Unicode@icu_56@@6B@ DD 00H		; icu_56::CharsetRecog_Unicode::`RTTI Complete Object Locator'
	DD	00H
	DD	00H
	DD	FLAT:??_R0?AVCharsetRecog_Unicode@icu_56@@@8
	DD	FLAT:??_R3CharsetRecog_Unicode@icu_56@@8
rdata$r	ENDS
;	COMDAT ??_7CharsetRecog_Unicode@icu_56@@6B@
CONST	SEGMENT
??_7CharsetRecog_Unicode@icu_56@@6B@ DD FLAT:??_R4CharsetRecog_Unicode@icu_56@@6B@ ; icu_56::CharsetRecog_Unicode::`vftable'
	DD	FLAT:__purecall
	DD	FLAT:?getLanguage@CharsetRecognizer@icu_56@@UBEPBDXZ
	DD	FLAT:__purecall
	DD	FLAT:??_ECharsetRecog_Unicode@icu_56@@UAEPAXI@Z
; Function compile flags: /Odtp /RTCsu /ZI
CONST	ENDS
;	COMDAT ??0CharsetRecog_Unicode@icu_56@@QAE@XZ
_TEXT	SEGMENT
_this$ = -8						; size = 4
??0CharsetRecog_Unicode@icu_56@@QAE@XZ PROC		; icu_56::CharsetRecog_Unicode::CharsetRecog_Unicode, COMDAT
; _this$ = ecx
	push	ebp
	mov	ebp, esp
	sub	esp, 204				; 000000ccH
	push	ebx
	push	esi
	push	edi
	push	ecx
	lea	edi, DWORD PTR [ebp-204]
	mov	ecx, 51					; 00000033H
	mov	eax, -858993460				; ccccccccH
	rep stosd
	pop	ecx
	mov	DWORD PTR _this$[ebp], ecx
	mov	ecx, DWORD PTR _this$[ebp]
	call	??0CharsetRecognizer@icu_56@@QAE@XZ
	mov	eax, DWORD PTR _this$[ebp]
	mov	DWORD PTR [eax], OFFSET ??_7CharsetRecog_Unicode@icu_56@@6B@
	mov	eax, DWORD PTR _this$[ebp]
	pop	edi
	pop	esi
	pop	ebx
	add	esp, 204				; 000000ccH
	cmp	ebp, esp
	call	__RTC_CheckEsp
	mov	esp, ebp
	pop	ebp
	ret	0
??0CharsetRecog_Unicode@icu_56@@QAE@XZ ENDP		; icu_56::CharsetRecog_Unicode::CharsetRecog_Unicode
_TEXT	ENDS
EXTRN	??1CharsetRecog_UTF_16_LE@icu_56@@UAE@XZ:PROC	; icu_56::CharsetRecog_UTF_16_LE::~CharsetRecog_UTF_16_LE
; Function compile flags: /Odtp /RTCsu /ZI
;	COMDAT ??_GCharsetRecog_UTF_16_LE@icu_56@@UAEPAXI@Z
_TEXT	SEGMENT
_this$ = -8						; size = 4
___flags$ = 8						; size = 4
??_GCharsetRecog_UTF_16_LE@icu_56@@UAEPAXI@Z PROC	; icu_56::CharsetRecog_UTF_16_LE::`scalar deleting destructor', COMDAT
; _this$ = ecx
	push	ebp
	mov	ebp, esp
	sub	esp, 204				; 000000ccH
	push	ebx
	push	esi
	push	edi
	push	ecx
	lea	edi, DWORD PTR [ebp-204]
	mov	ecx, 51					; 00000033H
	mov	eax, -858993460				; ccccccccH
	rep stosd
	pop	ecx
	mov	DWORD PTR _this$[ebp], ecx
	mov	ecx, DWORD PTR _this$[ebp]
	call	??1CharsetRecog_UTF_16_LE@icu_56@@UAE@XZ ; icu_56::CharsetRecog_UTF_16_LE::~CharsetRecog_UTF_16_LE
	mov	eax, DWORD PTR ___flags$[ebp]
	and	eax, 1
	je	SHORT $LN1@scalar@4
	mov	esi, esp
	mov	eax, DWORD PTR _this$[ebp]
	push	eax
	call	DWORD PTR __imp_??3UMemory@icu_56@@SAXPAX@Z
	add	esp, 4
	cmp	esi, esp
	call	__RTC_CheckEsp
$LN1@scalar@4:
	mov	eax, DWORD PTR _this$[ebp]
	pop	edi
	pop	esi
	pop	ebx
	add	esp, 204				; 000000ccH
	cmp	ebp, esp
	call	__RTC_CheckEsp
	mov	esp, ebp
	pop	ebp
	ret	4
??_GCharsetRecog_UTF_16_LE@icu_56@@UAEPAXI@Z ENDP	; icu_56::CharsetRecog_UTF_16_LE::`scalar deleting destructor'
_TEXT	ENDS
EXTRN	??1CharsetRecog_UTF_32_BE@icu_56@@UAE@XZ:PROC	; icu_56::CharsetRecog_UTF_32_BE::~CharsetRecog_UTF_32_BE
; Function compile flags: /Odtp /RTCsu /ZI
;	COMDAT ??_GCharsetRecog_UTF_32_BE@icu_56@@UAEPAXI@Z
_TEXT	SEGMENT
_this$ = -8						; size = 4
___flags$ = 8						; size = 4
??_GCharsetRecog_UTF_32_BE@icu_56@@UAEPAXI@Z PROC	; icu_56::CharsetRecog_UTF_32_BE::`scalar deleting destructor', COMDAT
; _this$ = ecx
	push	ebp
	mov	ebp, esp
	sub	esp, 204				; 000000ccH
	push	ebx
	push	esi
	push	edi
	push	ecx
	lea	edi, DWORD PTR [ebp-204]
	mov	ecx, 51					; 00000033H
	mov	eax, -858993460				; ccccccccH
	rep stosd
	pop	ecx
	mov	DWORD PTR _this$[ebp], ecx
	mov	ecx, DWORD PTR _this$[ebp]
	call	??1CharsetRecog_UTF_32_BE@icu_56@@UAE@XZ ; icu_56::CharsetRecog_UTF_32_BE::~CharsetRecog_UTF_32_BE
	mov	eax, DWORD PTR ___flags$[ebp]
	and	eax, 1
	je	SHORT $LN1@scalar@5
	mov	esi, esp
	mov	eax, DWORD PTR _this$[ebp]
	push	eax
	call	DWORD PTR __imp_??3UMemory@icu_56@@SAXPAX@Z
	add	esp, 4
	cmp	esi, esp
	call	__RTC_CheckEsp
$LN1@scalar@5:
	mov	eax, DWORD PTR _this$[ebp]
	pop	edi
	pop	esi
	pop	ebx
	add	esp, 204				; 000000ccH
	cmp	ebp, esp
	call	__RTC_CheckEsp
	mov	esp, ebp
	pop	ebp
	ret	4
??_GCharsetRecog_UTF_32_BE@icu_56@@UAEPAXI@Z ENDP	; icu_56::CharsetRecog_UTF_32_BE::`scalar deleting destructor'
_TEXT	ENDS
PUBLIC	??_7CharsetRecog_UTF_32@icu_56@@6B@		; icu_56::CharsetRecog_UTF_32::`vftable'
PUBLIC	??_R4CharsetRecog_UTF_32@icu_56@@6B@		; icu_56::CharsetRecog_UTF_32::`RTTI Complete Object Locator'
EXTRN	??_ECharsetRecog_UTF_32@icu_56@@UAEPAXI@Z:PROC	; icu_56::CharsetRecog_UTF_32::`vector deleting destructor'
;	COMDAT ??_R4CharsetRecog_UTF_32@icu_56@@6B@
rdata$r	SEGMENT
??_R4CharsetRecog_UTF_32@icu_56@@6B@ DD 00H		; icu_56::CharsetRecog_UTF_32::`RTTI Complete Object Locator'
	DD	00H
	DD	00H
	DD	FLAT:??_R0?AVCharsetRecog_UTF_32@icu_56@@@8
	DD	FLAT:??_R3CharsetRecog_UTF_32@icu_56@@8
rdata$r	ENDS
;	COMDAT ??_7CharsetRecog_UTF_32@icu_56@@6B@
CONST	SEGMENT
??_7CharsetRecog_UTF_32@icu_56@@6B@ DD FLAT:??_R4CharsetRecog_UTF_32@icu_56@@6B@ ; icu_56::CharsetRecog_UTF_32::`vftable'
	DD	FLAT:__purecall
	DD	FLAT:?getLanguage@CharsetRecognizer@icu_56@@UBEPBDXZ
	DD	FLAT:?match@CharsetRecog_UTF_32@icu_56@@UBECPAVInputText@2@PAVCharsetMatch@2@@Z
	DD	FLAT:??_ECharsetRecog_UTF_32@icu_56@@UAEPAXI@Z
	DD	FLAT:__purecall
; Function compile flags: /Odtp /RTCsu /ZI
CONST	ENDS
;	COMDAT ??0CharsetRecog_UTF_32@icu_56@@QAE@XZ
_TEXT	SEGMENT
_this$ = -8						; size = 4
??0CharsetRecog_UTF_32@icu_56@@QAE@XZ PROC		; icu_56::CharsetRecog_UTF_32::CharsetRecog_UTF_32, COMDAT
; _this$ = ecx
	push	ebp
	mov	ebp, esp
	sub	esp, 204				; 000000ccH
	push	ebx
	push	esi
	push	edi
	push	ecx
	lea	edi, DWORD PTR [ebp-204]
	mov	ecx, 51					; 00000033H
	mov	eax, -858993460				; ccccccccH
	rep stosd
	pop	ecx
	mov	DWORD PTR _this$[ebp], ecx
	mov	ecx, DWORD PTR _this$[ebp]
	call	??0CharsetRecog_Unicode@icu_56@@QAE@XZ
	mov	eax, DWORD PTR _this$[ebp]
	mov	DWORD PTR [eax], OFFSET ??_7CharsetRecog_UTF_32@icu_56@@6B@
	mov	eax, DWORD PTR _this$[ebp]
	pop	edi
	pop	esi
	pop	ebx
	add	esp, 204				; 000000ccH
	cmp	ebp, esp
	call	__RTC_CheckEsp
	mov	esp, ebp
	pop	ebp
	ret	0
??0CharsetRecog_UTF_32@icu_56@@QAE@XZ ENDP		; icu_56::CharsetRecog_UTF_32::CharsetRecog_UTF_32
_TEXT	ENDS
EXTRN	??1CharsetRecog_UTF_32_LE@icu_56@@UAE@XZ:PROC	; icu_56::CharsetRecog_UTF_32_LE::~CharsetRecog_UTF_32_LE
; Function compile flags: /Odtp /RTCsu /ZI
;	COMDAT ??_GCharsetRecog_UTF_32_LE@icu_56@@UAEPAXI@Z
_TEXT	SEGMENT
_this$ = -8						; size = 4
___flags$ = 8						; size = 4
??_GCharsetRecog_UTF_32_LE@icu_56@@UAEPAXI@Z PROC	; icu_56::CharsetRecog_UTF_32_LE::`scalar deleting destructor', COMDAT
; _this$ = ecx
	push	ebp
	mov	ebp, esp
	sub	esp, 204				; 000000ccH
	push	ebx
	push	esi
	push	edi
	push	ecx
	lea	edi, DWORD PTR [ebp-204]
	mov	ecx, 51					; 00000033H
	mov	eax, -858993460				; ccccccccH
	rep stosd
	pop	ecx
	mov	DWORD PTR _this$[ebp], ecx
	mov	ecx, DWORD PTR _this$[ebp]
	call	??1CharsetRecog_UTF_32_LE@icu_56@@UAE@XZ ; icu_56::CharsetRecog_UTF_32_LE::~CharsetRecog_UTF_32_LE
	mov	eax, DWORD PTR ___flags$[ebp]
	and	eax, 1
	je	SHORT $LN1@scalar@6
	mov	esi, esp
	mov	eax, DWORD PTR _this$[ebp]
	push	eax
	call	DWORD PTR __imp_??3UMemory@icu_56@@SAXPAX@Z
	add	esp, 4
	cmp	esi, esp
	call	__RTC_CheckEsp
$LN1@scalar@6:
	mov	eax, DWORD PTR _this$[ebp]
	pop	edi
	pop	esi
	pop	ebx
	add	esp, 204				; 000000ccH
	cmp	ebp, esp
	call	__RTC_CheckEsp
	mov	esp, ebp
	pop	ebp
	ret	4
??_GCharsetRecog_UTF_32_LE@icu_56@@UAEPAXI@Z ENDP	; icu_56::CharsetRecog_UTF_32_LE::`scalar deleting destructor'
_TEXT	ENDS
EXTRN	??1CharsetRecog_8859_1@icu_56@@UAE@XZ:PROC	; icu_56::CharsetRecog_8859_1::~CharsetRecog_8859_1
; Function compile flags: /Odtp /RTCsu /ZI
;	COMDAT ??_GCharsetRecog_8859_1@icu_56@@UAEPAXI@Z
_TEXT	SEGMENT
_this$ = -8						; size = 4
___flags$ = 8						; size = 4
??_GCharsetRecog_8859_1@icu_56@@UAEPAXI@Z PROC		; icu_56::CharsetRecog_8859_1::`scalar deleting destructor', COMDAT
; _this$ = ecx
	push	ebp
	mov	ebp, esp
	sub	esp, 204				; 000000ccH
	push	ebx
	push	esi
	push	edi
	push	ecx
	lea	edi, DWORD PTR [ebp-204]
	mov	ecx, 51					; 00000033H
	mov	eax, -858993460				; ccccccccH
	rep stosd
	pop	ecx
	mov	DWORD PTR _this$[ebp], ecx
	mov	ecx, DWORD PTR _this$[ebp]
	call	??1CharsetRecog_8859_1@icu_56@@UAE@XZ	; icu_56::CharsetRecog_8859_1::~CharsetRecog_8859_1
	mov	eax, DWORD PTR ___flags$[ebp]
	and	eax, 1
	je	SHORT $LN1@scalar@7
	mov	esi, esp
	mov	eax, DWORD PTR _this$[ebp]
	push	eax
	call	DWORD PTR __imp_??3UMemory@icu_56@@SAXPAX@Z
	add	esp, 4
	cmp	esi, esp
	call	__RTC_CheckEsp
$LN1@scalar@7:
	mov	eax, DWORD PTR _this$[ebp]
	pop	edi
	pop	esi
	pop	ebx
	add	esp, 204				; 000000ccH
	cmp	ebp, esp
	call	__RTC_CheckEsp
	mov	esp, ebp
	pop	ebp
	ret	4
??_GCharsetRecog_8859_1@icu_56@@UAEPAXI@Z ENDP		; icu_56::CharsetRecog_8859_1::`scalar deleting destructor'
_TEXT	ENDS
EXTRN	??1CharsetRecog_8859_2@icu_56@@UAE@XZ:PROC	; icu_56::CharsetRecog_8859_2::~CharsetRecog_8859_2
; Function compile flags: /Odtp /RTCsu /ZI
;	COMDAT ??_GCharsetRecog_8859_2@icu_56@@UAEPAXI@Z
_TEXT	SEGMENT
_this$ = -8						; size = 4
___flags$ = 8						; size = 4
??_GCharsetRecog_8859_2@icu_56@@UAEPAXI@Z PROC		; icu_56::CharsetRecog_8859_2::`scalar deleting destructor', COMDAT
; _this$ = ecx
	push	ebp
	mov	ebp, esp
	sub	esp, 204				; 000000ccH
	push	ebx
	push	esi
	push	edi
	push	ecx
	lea	edi, DWORD PTR [ebp-204]
	mov	ecx, 51					; 00000033H
	mov	eax, -858993460				; ccccccccH
	rep stosd
	pop	ecx
	mov	DWORD PTR _this$[ebp], ecx
	mov	ecx, DWORD PTR _this$[ebp]
	call	??1CharsetRecog_8859_2@icu_56@@UAE@XZ	; icu_56::CharsetRecog_8859_2::~CharsetRecog_8859_2
	mov	eax, DWORD PTR ___flags$[ebp]
	and	eax, 1
	je	SHORT $LN1@scalar@8
	mov	esi, esp
	mov	eax, DWORD PTR _this$[ebp]
	push	eax
	call	DWORD PTR __imp_??3UMemory@icu_56@@SAXPAX@Z
	add	esp, 4
	cmp	esi, esp
	call	__RTC_CheckEsp
$LN1@scalar@8:
	mov	eax, DWORD PTR _this$[ebp]
	pop	edi
	pop	esi
	pop	ebx
	add	esp, 204				; 000000ccH
	cmp	ebp, esp
	call	__RTC_CheckEsp
	mov	esp, ebp
	pop	ebp
	ret	4
??_GCharsetRecog_8859_2@icu_56@@UAEPAXI@Z ENDP		; icu_56::CharsetRecog_8859_2::`scalar deleting destructor'
_TEXT	ENDS
EXTRN	??1CharsetRecog_8859_5_ru@icu_56@@UAE@XZ:PROC	; icu_56::CharsetRecog_8859_5_ru::~CharsetRecog_8859_5_ru
; Function compile flags: /Odtp /RTCsu /ZI
;	COMDAT ??_GCharsetRecog_8859_5_ru@icu_56@@UAEPAXI@Z
_TEXT	SEGMENT
_this$ = -8						; size = 4
___flags$ = 8						; size = 4
??_GCharsetRecog_8859_5_ru@icu_56@@UAEPAXI@Z PROC	; icu_56::CharsetRecog_8859_5_ru::`scalar deleting destructor', COMDAT
; _this$ = ecx
	push	ebp
	mov	ebp, esp
	sub	esp, 204				; 000000ccH
	push	ebx
	push	esi
	push	edi
	push	ecx
	lea	edi, DWORD PTR [ebp-204]
	mov	ecx, 51					; 00000033H
	mov	eax, -858993460				; ccccccccH
	rep stosd
	pop	ecx
	mov	DWORD PTR _this$[ebp], ecx
	mov	ecx, DWORD PTR _this$[ebp]
	call	??1CharsetRecog_8859_5_ru@icu_56@@UAE@XZ ; icu_56::CharsetRecog_8859_5_ru::~CharsetRecog_8859_5_ru
	mov	eax, DWORD PTR ___flags$[ebp]
	and	eax, 1
	je	SHORT $LN1@scalar@9
	mov	esi, esp
	mov	eax, DWORD PTR _this$[ebp]
	push	eax
	call	DWORD PTR __imp_??3UMemory@icu_56@@SAXPAX@Z
	add	esp, 4
	cmp	esi, esp
	call	__RTC_CheckEsp
$LN1@scalar@9:
	mov	eax, DWORD PTR _this$[ebp]
	pop	edi
	pop	esi
	pop	ebx
	add	esp, 204				; 000000ccH
	cmp	ebp, esp
	call	__RTC_CheckEsp
	mov	esp, ebp
	pop	ebp
	ret	4
??_GCharsetRecog_8859_5_ru@icu_56@@UAEPAXI@Z ENDP	; icu_56::CharsetRecog_8859_5_ru::`scalar deleting destructor'
_TEXT	ENDS
PUBLIC	??_7CharsetRecog_8859_5@icu_56@@6B@		; icu_56::CharsetRecog_8859_5::`vftable'
PUBLIC	??_R4CharsetRecog_8859_5@icu_56@@6B@		; icu_56::CharsetRecog_8859_5::`RTTI Complete Object Locator'
EXTRN	??_ECharsetRecog_8859_5@icu_56@@UAEPAXI@Z:PROC	; icu_56::CharsetRecog_8859_5::`vector deleting destructor'
;	COMDAT ??_R4CharsetRecog_8859_5@icu_56@@6B@
rdata$r	SEGMENT
??_R4CharsetRecog_8859_5@icu_56@@6B@ DD 00H		; icu_56::CharsetRecog_8859_5::`RTTI Complete Object Locator'
	DD	00H
	DD	00H
	DD	FLAT:??_R0?AVCharsetRecog_8859_5@icu_56@@@8
	DD	FLAT:??_R3CharsetRecog_8859_5@icu_56@@8
rdata$r	ENDS
;	COMDAT ??_7CharsetRecog_8859_5@icu_56@@6B@
CONST	SEGMENT
??_7CharsetRecog_8859_5@icu_56@@6B@ DD FLAT:??_R4CharsetRecog_8859_5@icu_56@@6B@ ; icu_56::CharsetRecog_8859_5::`vftable'
	DD	FLAT:?getName@CharsetRecog_8859_5@icu_56@@UBEPBDXZ
	DD	FLAT:?getLanguage@CharsetRecognizer@icu_56@@UBEPBDXZ
	DD	FLAT:__purecall
	DD	FLAT:??_ECharsetRecog_8859_5@icu_56@@UAEPAXI@Z
	DD	FLAT:?match_sbcs@CharsetRecog_sbcs@icu_56@@UBEHPAVInputText@2@QBHQBE@Z
; Function compile flags: /Odtp /RTCsu /ZI
CONST	ENDS
;	COMDAT ??0CharsetRecog_8859_5@icu_56@@QAE@XZ
_TEXT	SEGMENT
_this$ = -8						; size = 4
??0CharsetRecog_8859_5@icu_56@@QAE@XZ PROC		; icu_56::CharsetRecog_8859_5::CharsetRecog_8859_5, COMDAT
; _this$ = ecx
	push	ebp
	mov	ebp, esp
	sub	esp, 204				; 000000ccH
	push	ebx
	push	esi
	push	edi
	push	ecx
	lea	edi, DWORD PTR [ebp-204]
	mov	ecx, 51					; 00000033H
	mov	eax, -858993460				; ccccccccH
	rep stosd
	pop	ecx
	mov	DWORD PTR _this$[ebp], ecx
	mov	ecx, DWORD PTR _this$[ebp]
	call	??0CharsetRecog_sbcs@icu_56@@QAE@XZ	; icu_56::CharsetRecog_sbcs::CharsetRecog_sbcs
	mov	eax, DWORD PTR _this$[ebp]
	mov	DWORD PTR [eax], OFFSET ??_7CharsetRecog_8859_5@icu_56@@6B@
	mov	eax, DWORD PTR _this$[ebp]
	pop	edi
	pop	esi
	pop	ebx
	add	esp, 204				; 000000ccH
	cmp	ebp, esp
	call	__RTC_CheckEsp
	mov	esp, ebp
	pop	ebp
	ret	0
??0CharsetRecog_8859_5@icu_56@@QAE@XZ ENDP		; icu_56::CharsetRecog_8859_5::CharsetRecog_8859_5
_TEXT	ENDS
EXTRN	??1CharsetRecog_8859_6_ar@icu_56@@UAE@XZ:PROC	; icu_56::CharsetRecog_8859_6_ar::~CharsetRecog_8859_6_ar
; Function compile flags: /Odtp /RTCsu /ZI
;	COMDAT ??_GCharsetRecog_8859_6_ar@icu_56@@UAEPAXI@Z
_TEXT	SEGMENT
_this$ = -8						; size = 4
___flags$ = 8						; size = 4
??_GCharsetRecog_8859_6_ar@icu_56@@UAEPAXI@Z PROC	; icu_56::CharsetRecog_8859_6_ar::`scalar deleting destructor', COMDAT
; _this$ = ecx
	push	ebp
	mov	ebp, esp
	sub	esp, 204				; 000000ccH
	push	ebx
	push	esi
	push	edi
	push	ecx
	lea	edi, DWORD PTR [ebp-204]
	mov	ecx, 51					; 00000033H
	mov	eax, -858993460				; ccccccccH
	rep stosd
	pop	ecx
	mov	DWORD PTR _this$[ebp], ecx
	mov	ecx, DWORD PTR _this$[ebp]
	call	??1CharsetRecog_8859_6_ar@icu_56@@UAE@XZ ; icu_56::CharsetRecog_8859_6_ar::~CharsetRecog_8859_6_ar
	mov	eax, DWORD PTR ___flags$[ebp]
	and	eax, 1
	je	SHORT $LN1@scalar@10
	mov	esi, esp
	mov	eax, DWORD PTR _this$[ebp]
	push	eax
	call	DWORD PTR __imp_??3UMemory@icu_56@@SAXPAX@Z
	add	esp, 4
	cmp	esi, esp
	call	__RTC_CheckEsp
$LN1@scalar@10:
	mov	eax, DWORD PTR _this$[ebp]
	pop	edi
	pop	esi
	pop	ebx
	add	esp, 204				; 000000ccH
	cmp	ebp, esp
	call	__RTC_CheckEsp
	mov	esp, ebp
	pop	ebp
	ret	4
??_GCharsetRecog_8859_6_ar@icu_56@@UAEPAXI@Z ENDP	; icu_56::CharsetRecog_8859_6_ar::`scalar deleting destructor'
_TEXT	ENDS
PUBLIC	??_7CharsetRecog_8859_6@icu_56@@6B@		; icu_56::CharsetRecog_8859_6::`vftable'
PUBLIC	??_R4CharsetRecog_8859_6@icu_56@@6B@		; icu_56::CharsetRecog_8859_6::`RTTI Complete Object Locator'
EXTRN	??_ECharsetRecog_8859_6@icu_56@@UAEPAXI@Z:PROC	; icu_56::CharsetRecog_8859_6::`vector deleting destructor'
;	COMDAT ??_R4CharsetRecog_8859_6@icu_56@@6B@
rdata$r	SEGMENT
??_R4CharsetRecog_8859_6@icu_56@@6B@ DD 00H		; icu_56::CharsetRecog_8859_6::`RTTI Complete Object Locator'
	DD	00H
	DD	00H
	DD	FLAT:??_R0?AVCharsetRecog_8859_6@icu_56@@@8
	DD	FLAT:??_R3CharsetRecog_8859_6@icu_56@@8
rdata$r	ENDS
;	COMDAT ??_7CharsetRecog_8859_6@icu_56@@6B@
CONST	SEGMENT
??_7CharsetRecog_8859_6@icu_56@@6B@ DD FLAT:??_R4CharsetRecog_8859_6@icu_56@@6B@ ; icu_56::CharsetRecog_8859_6::`vftable'
	DD	FLAT:?getName@CharsetRecog_8859_6@icu_56@@UBEPBDXZ
	DD	FLAT:?getLanguage@CharsetRecognizer@icu_56@@UBEPBDXZ
	DD	FLAT:__purecall
	DD	FLAT:??_ECharsetRecog_8859_6@icu_56@@UAEPAXI@Z
	DD	FLAT:?match_sbcs@CharsetRecog_sbcs@icu_56@@UBEHPAVInputText@2@QBHQBE@Z
; Function compile flags: /Odtp /RTCsu /ZI
CONST	ENDS
;	COMDAT ??0CharsetRecog_8859_6@icu_56@@QAE@XZ
_TEXT	SEGMENT
_this$ = -8						; size = 4
??0CharsetRecog_8859_6@icu_56@@QAE@XZ PROC		; icu_56::CharsetRecog_8859_6::CharsetRecog_8859_6, COMDAT
; _this$ = ecx
	push	ebp
	mov	ebp, esp
	sub	esp, 204				; 000000ccH
	push	ebx
	push	esi
	push	edi
	push	ecx
	lea	edi, DWORD PTR [ebp-204]
	mov	ecx, 51					; 00000033H
	mov	eax, -858993460				; ccccccccH
	rep stosd
	pop	ecx
	mov	DWORD PTR _this$[ebp], ecx
	mov	ecx, DWORD PTR _this$[ebp]
	call	??0CharsetRecog_sbcs@icu_56@@QAE@XZ	; icu_56::CharsetRecog_sbcs::CharsetRecog_sbcs
	mov	eax, DWORD PTR _this$[ebp]
	mov	DWORD PTR [eax], OFFSET ??_7CharsetRecog_8859_6@icu_56@@6B@
	mov	eax, DWORD PTR _this$[ebp]
	pop	edi
	pop	esi
	pop	ebx
	add	esp, 204				; 000000ccH
	cmp	ebp, esp
	call	__RTC_CheckEsp
	mov	esp, ebp
	pop	ebp
	ret	0
??0CharsetRecog_8859_6@icu_56@@QAE@XZ ENDP		; icu_56::CharsetRecog_8859_6::CharsetRecog_8859_6
_TEXT	ENDS
EXTRN	??1CharsetRecog_8859_7_el@icu_56@@UAE@XZ:PROC	; icu_56::CharsetRecog_8859_7_el::~CharsetRecog_8859_7_el
; Function compile flags: /Odtp /RTCsu /ZI
;	COMDAT ??_GCharsetRecog_8859_7_el@icu_56@@UAEPAXI@Z
_TEXT	SEGMENT
_this$ = -8						; size = 4
___flags$ = 8						; size = 4
??_GCharsetRecog_8859_7_el@icu_56@@UAEPAXI@Z PROC	; icu_56::CharsetRecog_8859_7_el::`scalar deleting destructor', COMDAT
; _this$ = ecx
	push	ebp
	mov	ebp, esp
	sub	esp, 204				; 000000ccH
	push	ebx
	push	esi
	push	edi
	push	ecx
	lea	edi, DWORD PTR [ebp-204]
	mov	ecx, 51					; 00000033H
	mov	eax, -858993460				; ccccccccH
	rep stosd
	pop	ecx
	mov	DWORD PTR _this$[ebp], ecx
	mov	ecx, DWORD PTR _this$[ebp]
	call	??1CharsetRecog_8859_7_el@icu_56@@UAE@XZ ; icu_56::CharsetRecog_8859_7_el::~CharsetRecog_8859_7_el
	mov	eax, DWORD PTR ___flags$[ebp]
	and	eax, 1
	je	SHORT $LN1@scalar@11
	mov	esi, esp
	mov	eax, DWORD PTR _this$[ebp]
	push	eax
	call	DWORD PTR __imp_??3UMemory@icu_56@@SAXPAX@Z
	add	esp, 4
	cmp	esi, esp
	call	__RTC_CheckEsp
$LN1@scalar@11:
	mov	eax, DWORD PTR _this$[ebp]
	pop	edi
	pop	esi
	pop	ebx
	add	esp, 204				; 000000ccH
	cmp	ebp, esp
	call	__RTC_CheckEsp
	mov	esp, ebp
	pop	ebp
	ret	4
??_GCharsetRecog_8859_7_el@icu_56@@UAEPAXI@Z ENDP	; icu_56::CharsetRecog_8859_7_el::`scalar deleting destructor'
_TEXT	ENDS
PUBLIC	??_7CharsetRecog_8859_7@icu_56@@6B@		; icu_56::CharsetRecog_8859_7::`vftable'
PUBLIC	??_R4CharsetRecog_8859_7@icu_56@@6B@		; icu_56::CharsetRecog_8859_7::`RTTI Complete Object Locator'
EXTRN	??_ECharsetRecog_8859_7@icu_56@@UAEPAXI@Z:PROC	; icu_56::CharsetRecog_8859_7::`vector deleting destructor'
;	COMDAT ??_R4CharsetRecog_8859_7@icu_56@@6B@
rdata$r	SEGMENT
??_R4CharsetRecog_8859_7@icu_56@@6B@ DD 00H		; icu_56::CharsetRecog_8859_7::`RTTI Complete Object Locator'
	DD	00H
	DD	00H
	DD	FLAT:??_R0?AVCharsetRecog_8859_7@icu_56@@@8
	DD	FLAT:??_R3CharsetRecog_8859_7@icu_56@@8
rdata$r	ENDS
;	COMDAT ??_7CharsetRecog_8859_7@icu_56@@6B@
CONST	SEGMENT
??_7CharsetRecog_8859_7@icu_56@@6B@ DD FLAT:??_R4CharsetRecog_8859_7@icu_56@@6B@ ; icu_56::CharsetRecog_8859_7::`vftable'
	DD	FLAT:?getName@CharsetRecog_8859_7@icu_56@@UBEPBDXZ
	DD	FLAT:?getLanguage@CharsetRecognizer@icu_56@@UBEPBDXZ
	DD	FLAT:__purecall
	DD	FLAT:??_ECharsetRecog_8859_7@icu_56@@UAEPAXI@Z
	DD	FLAT:?match_sbcs@CharsetRecog_sbcs@icu_56@@UBEHPAVInputText@2@QBHQBE@Z
; Function compile flags: /Odtp /RTCsu /ZI
CONST	ENDS
;	COMDAT ??0CharsetRecog_8859_7@icu_56@@QAE@XZ
_TEXT	SEGMENT
_this$ = -8						; size = 4
??0CharsetRecog_8859_7@icu_56@@QAE@XZ PROC		; icu_56::CharsetRecog_8859_7::CharsetRecog_8859_7, COMDAT
; _this$ = ecx
	push	ebp
	mov	ebp, esp
	sub	esp, 204				; 000000ccH
	push	ebx
	push	esi
	push	edi
	push	ecx
	lea	edi, DWORD PTR [ebp-204]
	mov	ecx, 51					; 00000033H
	mov	eax, -858993460				; ccccccccH
	rep stosd
	pop	ecx
	mov	DWORD PTR _this$[ebp], ecx
	mov	ecx, DWORD PTR _this$[ebp]
	call	??0CharsetRecog_sbcs@icu_56@@QAE@XZ	; icu_56::CharsetRecog_sbcs::CharsetRecog_sbcs
	mov	eax, DWORD PTR _this$[ebp]
	mov	DWORD PTR [eax], OFFSET ??_7CharsetRecog_8859_7@icu_56@@6B@
	mov	eax, DWORD PTR _this$[ebp]
	pop	edi
	pop	esi
	pop	ebx
	add	esp, 204				; 000000ccH
	cmp	ebp, esp
	call	__RTC_CheckEsp
	mov	esp, ebp
	pop	ebp
	ret	0
??0CharsetRecog_8859_7@icu_56@@QAE@XZ ENDP		; icu_56::CharsetRecog_8859_7::CharsetRecog_8859_7
_TEXT	ENDS
EXTRN	??1CharsetRecog_8859_8_I_he@icu_56@@UAE@XZ:PROC	; icu_56::CharsetRecog_8859_8_I_he::~CharsetRecog_8859_8_I_he
; Function compile flags: /Odtp /RTCsu /ZI
;	COMDAT ??_GCharsetRecog_8859_8_I_he@icu_56@@UAEPAXI@Z
_TEXT	SEGMENT
_this$ = -8						; size = 4
___flags$ = 8						; size = 4
??_GCharsetRecog_8859_8_I_he@icu_56@@UAEPAXI@Z PROC	; icu_56::CharsetRecog_8859_8_I_he::`scalar deleting destructor', COMDAT
; _this$ = ecx
	push	ebp
	mov	ebp, esp
	sub	esp, 204				; 000000ccH
	push	ebx
	push	esi
	push	edi
	push	ecx
	lea	edi, DWORD PTR [ebp-204]
	mov	ecx, 51					; 00000033H
	mov	eax, -858993460				; ccccccccH
	rep stosd
	pop	ecx
	mov	DWORD PTR _this$[ebp], ecx
	mov	ecx, DWORD PTR _this$[ebp]
	call	??1CharsetRecog_8859_8_I_he@icu_56@@UAE@XZ ; icu_56::CharsetRecog_8859_8_I_he::~CharsetRecog_8859_8_I_he
	mov	eax, DWORD PTR ___flags$[ebp]
	and	eax, 1
	je	SHORT $LN1@scalar@12
	mov	esi, esp
	mov	eax, DWORD PTR _this$[ebp]
	push	eax
	call	DWORD PTR __imp_??3UMemory@icu_56@@SAXPAX@Z
	add	esp, 4
	cmp	esi, esp
	call	__RTC_CheckEsp
$LN1@scalar@12:
	mov	eax, DWORD PTR _this$[ebp]
	pop	edi
	pop	esi
	pop	ebx
	add	esp, 204				; 000000ccH
	cmp	ebp, esp
	call	__RTC_CheckEsp
	mov	esp, ebp
	pop	ebp
	ret	4
??_GCharsetRecog_8859_8_I_he@icu_56@@UAEPAXI@Z ENDP	; icu_56::CharsetRecog_8859_8_I_he::`scalar deleting destructor'
_TEXT	ENDS
PUBLIC	??_7CharsetRecog_8859_8@icu_56@@6B@		; icu_56::CharsetRecog_8859_8::`vftable'
PUBLIC	??_R4CharsetRecog_8859_8@icu_56@@6B@		; icu_56::CharsetRecog_8859_8::`RTTI Complete Object Locator'
EXTRN	??_ECharsetRecog_8859_8@icu_56@@UAEPAXI@Z:PROC	; icu_56::CharsetRecog_8859_8::`vector deleting destructor'
;	COMDAT ??_R4CharsetRecog_8859_8@icu_56@@6B@
rdata$r	SEGMENT
??_R4CharsetRecog_8859_8@icu_56@@6B@ DD 00H		; icu_56::CharsetRecog_8859_8::`RTTI Complete Object Locator'
	DD	00H
	DD	00H
	DD	FLAT:??_R0?AVCharsetRecog_8859_8@icu_56@@@8
	DD	FLAT:??_R3CharsetRecog_8859_8@icu_56@@8
rdata$r	ENDS
;	COMDAT ??_7CharsetRecog_8859_8@icu_56@@6B@
CONST	SEGMENT
??_7CharsetRecog_8859_8@icu_56@@6B@ DD FLAT:??_R4CharsetRecog_8859_8@icu_56@@6B@ ; icu_56::CharsetRecog_8859_8::`vftable'
	DD	FLAT:?getName@CharsetRecog_8859_8@icu_56@@UBEPBDXZ
	DD	FLAT:?getLanguage@CharsetRecognizer@icu_56@@UBEPBDXZ
	DD	FLAT:__purecall
	DD	FLAT:??_ECharsetRecog_8859_8@icu_56@@UAEPAXI@Z
	DD	FLAT:?match_sbcs@CharsetRecog_sbcs@icu_56@@UBEHPAVInputText@2@QBHQBE@Z
; Function compile flags: /Odtp /RTCsu /ZI
CONST	ENDS
;	COMDAT ??0CharsetRecog_8859_8@icu_56@@QAE@XZ
_TEXT	SEGMENT
_this$ = -8						; size = 4
??0CharsetRecog_8859_8@icu_56@@QAE@XZ PROC		; icu_56::CharsetRecog_8859_8::CharsetRecog_8859_8, COMDAT
; _this$ = ecx
	push	ebp
	mov	ebp, esp
	sub	esp, 204				; 000000ccH
	push	ebx
	push	esi
	push	edi
	push	ecx
	lea	edi, DWORD PTR [ebp-204]
	mov	ecx, 51					; 00000033H
	mov	eax, -858993460				; ccccccccH
	rep stosd
	pop	ecx
	mov	DWORD PTR _this$[ebp], ecx
	mov	ecx, DWORD PTR _this$[ebp]
	call	??0CharsetRecog_sbcs@icu_56@@QAE@XZ	; icu_56::CharsetRecog_sbcs::CharsetRecog_sbcs
	mov	eax, DWORD PTR _this$[ebp]
	mov	DWORD PTR [eax], OFFSET ??_7CharsetRecog_8859_8@icu_56@@6B@
	mov	eax, DWORD PTR _this$[ebp]
	pop	edi
	pop	esi
	pop	ebx
	add	esp, 204				; 000000ccH
	cmp	ebp, esp
	call	__RTC_CheckEsp
	mov	esp, ebp
	pop	ebp
	ret	0
??0CharsetRecog_8859_8@icu_56@@QAE@XZ ENDP		; icu_56::CharsetRecog_8859_8::CharsetRecog_8859_8
_TEXT	ENDS
EXTRN	??1CharsetRecog_8859_8_he@icu_56@@UAE@XZ:PROC	; icu_56::CharsetRecog_8859_8_he::~CharsetRecog_8859_8_he
; Function compile flags: /Odtp /RTCsu /ZI
;	COMDAT ??_GCharsetRecog_8859_8_he@icu_56@@UAEPAXI@Z
_TEXT	SEGMENT
_this$ = -8						; size = 4
___flags$ = 8						; size = 4
??_GCharsetRecog_8859_8_he@icu_56@@UAEPAXI@Z PROC	; icu_56::CharsetRecog_8859_8_he::`scalar deleting destructor', COMDAT
; _this$ = ecx
	push	ebp
	mov	ebp, esp
	sub	esp, 204				; 000000ccH
	push	ebx
	push	esi
	push	edi
	push	ecx
	lea	edi, DWORD PTR [ebp-204]
	mov	ecx, 51					; 00000033H
	mov	eax, -858993460				; ccccccccH
	rep stosd
	pop	ecx
	mov	DWORD PTR _this$[ebp], ecx
	mov	ecx, DWORD PTR _this$[ebp]
	call	??1CharsetRecog_8859_8_he@icu_56@@UAE@XZ ; icu_56::CharsetRecog_8859_8_he::~CharsetRecog_8859_8_he
	mov	eax, DWORD PTR ___flags$[ebp]
	and	eax, 1
	je	SHORT $LN1@scalar@13
	mov	esi, esp
	mov	eax, DWORD PTR _this$[ebp]
	push	eax
	call	DWORD PTR __imp_??3UMemory@icu_56@@SAXPAX@Z
	add	esp, 4
	cmp	esi, esp
	call	__RTC_CheckEsp
$LN1@scalar@13:
	mov	eax, DWORD PTR _this$[ebp]
	pop	edi
	pop	esi
	pop	ebx
	add	esp, 204				; 000000ccH
	cmp	ebp, esp
	call	__RTC_CheckEsp
	mov	esp, ebp
	pop	ebp
	ret	4
??_GCharsetRecog_8859_8_he@icu_56@@UAEPAXI@Z ENDP	; icu_56::CharsetRecog_8859_8_he::`scalar deleting destructor'
_TEXT	ENDS
EXTRN	??1CharsetRecog_windows_1251@icu_56@@UAE@XZ:PROC ; icu_56::CharsetRecog_windows_1251::~CharsetRecog_windows_1251
; Function compile flags: /Odtp /RTCsu /ZI
;	COMDAT ??_GCharsetRecog_windows_1251@icu_56@@UAEPAXI@Z
_TEXT	SEGMENT
_this$ = -8						; size = 4
___flags$ = 8						; size = 4
??_GCharsetRecog_windows_1251@icu_56@@UAEPAXI@Z PROC	; icu_56::CharsetRecog_windows_1251::`scalar deleting destructor', COMDAT
; _this$ = ecx
	push	ebp
	mov	ebp, esp
	sub	esp, 204				; 000000ccH
	push	ebx
	push	esi
	push	edi
	push	ecx
	lea	edi, DWORD PTR [ebp-204]
	mov	ecx, 51					; 00000033H
	mov	eax, -858993460				; ccccccccH
	rep stosd
	pop	ecx
	mov	DWORD PTR _this$[ebp], ecx
	mov	ecx, DWORD PTR _this$[ebp]
	call	??1CharsetRecog_windows_1251@icu_56@@UAE@XZ ; icu_56::CharsetRecog_windows_1251::~CharsetRecog_windows_1251
	mov	eax, DWORD PTR ___flags$[ebp]
	and	eax, 1
	je	SHORT $LN1@scalar@14
	mov	esi, esp
	mov	eax, DWORD PTR _this$[ebp]
	push	eax
	call	DWORD PTR __imp_??3UMemory@icu_56@@SAXPAX@Z
	add	esp, 4
	cmp	esi, esp
	call	__RTC_CheckEsp
$LN1@scalar@14:
	mov	eax, DWORD PTR _this$[ebp]
	pop	edi
	pop	esi
	pop	ebx
	add	esp, 204				; 000000ccH
	cmp	ebp, esp
	call	__RTC_CheckEsp
	mov	esp, ebp
	pop	ebp
	ret	4
??_GCharsetRecog_windows_1251@icu_56@@UAEPAXI@Z ENDP	; icu_56::CharsetRecog_windows_1251::`scalar deleting destructor'
_TEXT	ENDS
EXTRN	??1CharsetRecog_windows_1256@icu_56@@UAE@XZ:PROC ; icu_56::CharsetRecog_windows_1256::~CharsetRecog_windows_1256
; Function compile flags: /Odtp /RTCsu /ZI
;	COMDAT ??_GCharsetRecog_windows_1256@icu_56@@UAEPAXI@Z
_TEXT	SEGMENT
_this$ = -8						; size = 4
___flags$ = 8						; size = 4
??_GCharsetRecog_windows_1256@icu_56@@UAEPAXI@Z PROC	; icu_56::CharsetRecog_windows_1256::`scalar deleting destructor', COMDAT
; _this$ = ecx
	push	ebp
	mov	ebp, esp
	sub	esp, 204				; 000000ccH
	push	ebx
	push	esi
	push	edi
	push	ecx
	lea	edi, DWORD PTR [ebp-204]
	mov	ecx, 51					; 00000033H
	mov	eax, -858993460				; ccccccccH
	rep stosd
	pop	ecx
	mov	DWORD PTR _this$[ebp], ecx
	mov	ecx, DWORD PTR _this$[ebp]
	call	??1CharsetRecog_windows_1256@icu_56@@UAE@XZ ; icu_56::CharsetRecog_windows_1256::~CharsetRecog_windows_1256
	mov	eax, DWORD PTR ___flags$[ebp]
	and	eax, 1
	je	SHORT $LN1@scalar@15
	mov	esi, esp
	mov	eax, DWORD PTR _this$[ebp]
	push	eax
	call	DWORD PTR __imp_??3UMemory@icu_56@@SAXPAX@Z
	add	esp, 4
	cmp	esi, esp
	call	__RTC_CheckEsp
$LN1@scalar@15:
	mov	eax, DWORD PTR _this$[ebp]
	pop	edi
	pop	esi
	pop	ebx
	add	esp, 204				; 000000ccH
	cmp	ebp, esp
	call	__RTC_CheckEsp
	mov	esp, ebp
	pop	ebp
	ret	4
??_GCharsetRecog_windows_1256@icu_56@@UAEPAXI@Z ENDP	; icu_56::CharsetRecog_windows_1256::`scalar deleting destructor'
_TEXT	ENDS
EXTRN	??1CharsetRecog_KOI8_R@icu_56@@UAE@XZ:PROC	; icu_56::CharsetRecog_KOI8_R::~CharsetRecog_KOI8_R
; Function compile flags: /Odtp /RTCsu /ZI
;	COMDAT ??_GCharsetRecog_KOI8_R@icu_56@@UAEPAXI@Z
_TEXT	SEGMENT
_this$ = -8						; size = 4
___flags$ = 8						; size = 4
??_GCharsetRecog_KOI8_R@icu_56@@UAEPAXI@Z PROC		; icu_56::CharsetRecog_KOI8_R::`scalar deleting destructor', COMDAT
; _this$ = ecx
	push	ebp
	mov	ebp, esp
	sub	esp, 204				; 000000ccH
	push	ebx
	push	esi
	push	edi
	push	ecx
	lea	edi, DWORD PTR [ebp-204]
	mov	ecx, 51					; 00000033H
	mov	eax, -858993460				; ccccccccH
	rep stosd
	pop	ecx
	mov	DWORD PTR _this$[ebp], ecx
	mov	ecx, DWORD PTR _this$[ebp]
	call	??1CharsetRecog_KOI8_R@icu_56@@UAE@XZ	; icu_56::CharsetRecog_KOI8_R::~CharsetRecog_KOI8_R
	mov	eax, DWORD PTR ___flags$[ebp]
	and	eax, 1
	je	SHORT $LN1@scalar@16
	mov	esi, esp
	mov	eax, DWORD PTR _this$[ebp]
	push	eax
	call	DWORD PTR __imp_??3UMemory@icu_56@@SAXPAX@Z
	add	esp, 4
	cmp	esi, esp
	call	__RTC_CheckEsp
$LN1@scalar@16:
	mov	eax, DWORD PTR _this$[ebp]
	pop	edi
	pop	esi
	pop	ebx
	add	esp, 204				; 000000ccH
	cmp	ebp, esp
	call	__RTC_CheckEsp
	mov	esp, ebp
	pop	ebp
	ret	4
