; Listing generated by Microsoft (R) Optimizing Compiler Version 16.00.40219.01 

	TITLE	D:\mozilla\intl\icu\source\i18n\csrmbcs.cpp
	.686P
	.XMM
	include listing.inc
	.model	flat

INCLUDELIB MSVCRTD
INCLUDELIB OLDNAMES

CONST	SEGMENT
_commonChars_sjis DW 08140H
	DW	08141H
	DW	08142H
	DW	08145H
	DW	0815bH
	DW	08169H
	DW	0816aH
	DW	08175H
	DW	08176H
	DW	082a0H
	DW	082a2H
	DW	082a4H
	DW	082a9H
	DW	082aaH
	DW	082abH
	DW	082adH
	DW	082afH
	DW	082b1H
	DW	082b3H
	DW	082b5H
	DW	082b7H
	DW	082bdH
	DW	082beH
	DW	082c1H
	DW	082c4H
	DW	082c5H
	DW	082c6H
	DW	082c8H
	DW	082c9H
	DW	082ccH
	DW	082cdH
	DW	082dcH
	DW	082e0H
	DW	082e7H
	DW	082e8H
	DW	082e9H
	DW	082eaH
	DW	082f0H
	DW	082f1H
	DW	08341H
	DW	08343H
	DW	0834eH
	DW	0834fH
	DW	08358H
	DW	0835eH
	DW	08362H
	DW	08367H
	DW	08375H
	DW	08376H
	DW	08389H
	DW	0838aH
	DW	0838bH
	DW	0838dH
	DW	08393H
	DW	08e96H
	DW	093faH
	DW	095aaH
	ORG $+6
_commonChars_euc_jp DW 0a1a1H
	DW	0a1a2H
	DW	0a1a3H
	DW	0a1a6H
	DW	0a1bcH
	DW	0a1caH
	DW	0a1cbH
	DW	0a1d6H
	DW	0a1d7H
	DW	0a4a2H
	DW	0a4a4H
	DW	0a4a6H
	DW	0a4a8H
	DW	0a4aaH
	DW	0a4abH
	DW	0a4acH
	DW	0a4adH
	DW	0a4afH
	DW	0a4b1H
	DW	0a4b3H
	DW	0a4b5H
	DW	0a4b7H
	DW	0a4b9H
	DW	0a4bbH
	DW	0a4bdH
	DW	0a4bfH
	DW	0a4c0H
	DW	0a4c1H
	DW	0a4c3H
	DW	0a4c4H
	DW	0a4c6H
	DW	0a4c7H
	DW	0a4c8H
	DW	0a4c9H
	DW	0a4caH
	DW	0a4cbH
	DW	0a4ceH
	DW	0a4cfH
	DW	0a4d0H
	DW	0a4deH
	DW	0a4dfH
	DW	0a4e1H
	DW	0a4e2H
	DW	0a4e4H
	DW	0a4e8H
	DW	0a4e9H
	DW	0a4eaH
	DW	0a4ebH
	DW	0a4ecH
	DW	0a4efH
	DW	0a4f2H
	DW	0a4f3H
	DW	0a5a2H
	DW	0a5a3H
	DW	0a5a4H
	DW	0a5a6H
	DW	0a5a7H
	DW	0a5aaH
	DW	0a5adH
	DW	0a5afH
	DW	0a5b0H
	DW	0a5b3H
	DW	0a5b5H
	DW	0a5b7H
	DW	0a5b8H
	DW	0a5b9H
	DW	0a5bfH
	DW	0a5c3H
	DW	0a5c6H
	DW	0a5c7H
	DW	0a5c8H
	DW	0a5c9H
	DW	0a5cbH
	DW	0a5d0H
	DW	0a5d5H
	DW	0a5d6H
	DW	0a5d7H
	DW	0a5deH
	DW	0a5e0H
	DW	0a5e1H
	DW	0a5e5H
	DW	0a5e9H
	DW	0a5eaH
	DW	0a5ebH
	DW	0a5ecH
	DW	0a5edH
	DW	0a5f3H
	DW	0b8a9H
	DW	0b9d4H
	DW	0baeeH
	DW	0bbc8H
	DW	0bef0H
	DW	0bfb7H
	DW	0c4eaH
	DW	0c6fcH
	DW	0c7bdH
	DW	0cab8H
	DW	0caf3H
	DW	0cbdcH
	DW	0cdd1H
_commonChars_euc_kr DW 0b0a1H
	DW	0b0b3H
	DW	0b0c5H
	DW	0b0cdH
	DW	0b0d4H
	DW	0b0e6H
	DW	0b0edH
	DW	0b0f8H
	DW	0b0faH
	DW	0b0fcH
	DW	0b1b8H
	DW	0b1b9H
	DW	0b1c7H
	DW	0b1d7H
	DW	0b1e2H
	DW	0b3aaH
	DW	0b3bbH
	DW	0b4c2H
	DW	0b4cfH
	DW	0b4d9H
	DW	0b4ebH
	DW	0b5a5H
	DW	0b5b5H
	DW	0b5bfH
	DW	0b5c7H
	DW	0b5e9H
	DW	0b6f3H
	DW	0b7afH
	DW	0b7c2H
	DW	0b7ceH
	DW	0b8a6H
	DW	0b8aeH
	DW	0b8b6H
	DW	0b8b8H
	DW	0b8bbH
	DW	0b8e9H
	DW	0b9abH
	DW	0b9aeH
	DW	0b9ccH
	DW	0b9ceH
	DW	0b9fdH
	DW	0bab8H
	DW	0baceH
	DW	0bad0H
	DW	0baf1H
	DW	0bbe7H
	DW	0bbf3H
	DW	0bbfdH
	DW	0bcadH
	DW	0bcbaH
	DW	0bcd2H
	DW	0bcf6H
	DW	0bdbaH
	DW	0bdc0H
	DW	0bdc3H
	DW	0bdc5H
	DW	0bec6H
	DW	0bec8H
	DW	0bedfH
	DW	0beeeH
	DW	0bef8H
	DW	0befaH
	DW	0bfa1H
	DW	0bfa9H
	DW	0bfc0H
	DW	0bfe4H
	DW	0bfebH
	DW	0bfecH
	DW	0bff8H
	DW	0c0a7H
	DW	0c0afH
	DW	0c0b8H
	DW	0c0baH
	DW	0c0bbH
	DW	0c0bdH
	DW	0c0c7H
	DW	0c0ccH
	DW	0c0ceH
	DW	0c0cfH
	DW	0c0d6H
	DW	0c0daH
	DW	0c0e5H
	DW	0c0fbH
	DW	0c0fcH
	DW	0c1a4H
	DW	0c1a6H
	DW	0c1b6H
	DW	0c1d6H
	DW	0c1dfH
	DW	0c1f6H
	DW	0c1f8H
	DW	0c4a1H
	DW	0c5cdH
	DW	0c6aeH
	DW	0c7cfH
	DW	0c7d1H
	DW	0c7d2H
	DW	0c7d8H
	DW	0c7e5H
	DW	0c8adH
_commonChars_big5 DW 0a140H
	DW	0a141H
	DW	0a142H
	DW	0a143H
	DW	0a147H
	DW	0a149H
	DW	0a175H
	DW	0a176H
	DW	0a440H
	DW	0a446H
	DW	0a447H
	DW	0a448H
	DW	0a451H
	DW	0a454H
	DW	0a457H
	DW	0a464H
	DW	0a46aH
	DW	0a46cH
	DW	0a477H
	DW	0a4a3H
	DW	0a4a4H
	DW	0a4a7H
	DW	0a4c1H
	DW	0a4ceH
	DW	0a4d1H
	DW	0a4dfH
	DW	0a4e8H
	DW	0a4fdH
	DW	0a540H
	DW	0a548H
	DW	0a558H
	DW	0a569H
	DW	0a5cdH
	DW	0a5e7H
	DW	0a657H
	DW	0a661H
	DW	0a662H
	DW	0a668H
	DW	0a670H
	DW	0a6a8H
	DW	0a6b3H
	DW	0a6b9H
	DW	0a6d3H
	DW	0a6dbH
	DW	0a6e6H
	DW	0a6f2H
	DW	0a740H
	DW	0a751H
	DW	0a759H
	DW	0a7daH
	DW	0a8a3H
	DW	0a8a5H
	DW	0a8adH
	DW	0a8d1H
	DW	0a8d3H
	DW	0a8e4H
	DW	0a8fcH
	DW	0a9c0H
	DW	0a9d2H
	DW	0a9f3H
	DW	0aa6bH
	DW	0aabaH
	DW	0aabeH
	DW	0aaccH
	DW	0aafcH
	DW	0ac47H
	DW	0ac4fH
	DW	0acb0H
	DW	0acd2H
	DW	0ad59H
	DW	0aec9H
	DW	0afe0H
	DW	0b0eaH
	DW	0b16fH
	DW	0b2b3H
	DW	0b2c4H
	DW	0b36fH
	DW	0b44cH
	DW	0b44eH
	DW	0b54cH
	DW	0b5a5H
	DW	0b5bdH
	DW	0b5d0H
	DW	0b5d8H
	DW	0b671H
	DW	0b7edH
	DW	0b867H
	DW	0b944H
	DW	0bad8H
	DW	0bb44H
	DW	0bba1H
	DW	0bdd1H
	DW	0c2c4H
	DW	0c3b9H
	DW	0c440H
	DW	0c45fH
_commonChars_gb_18030 DW 0a1a1H
	DW	0a1a2H
	DW	0a1a3H
	DW	0a1a4H
	DW	0a1b0H
	DW	0a1b1H
	DW	0a1f1H
	DW	0a1f3H
	DW	0a3a1H
	DW	0a3acH
	DW	0a3baH
	DW	0b1a8H
	DW	0b1b8H
	DW	0b1beH
	DW	0b2bbH
	DW	0b3c9H
	DW	0b3f6H
	DW	0b4f3H
	DW	0b5bdH
	DW	0b5c4H
	DW	0b5e3H
	DW	0b6afH
	DW	0b6d4H
	DW	0b6e0H
	DW	0b7a2H
	DW	0b7a8H
	DW	0b7bdH
	DW	0b7d6H
	DW	0b7ddH
	DW	0b8b4H
	DW	0b8dfH
	DW	0b8f6H
	DW	0b9abH
	DW	0b9c9H
	DW	0b9d8H
	DW	0b9faH
	DW	0b9fdH
	DW	0bacdH
	DW	0bba7H
	DW	0bbd6H
	DW	0bbe1H
	DW	0bbfaH
	DW	0bcbcH
	DW	0bcdbH
	DW	0bcfeH
	DW	0bdccH
	DW	0becdH
	DW	0beddH
	DW	0bfb4H
	DW	0bfc6H
	DW	0bfc9H
	DW	0c0b4H
	DW	0c0edH
	DW	0c1cbH
	DW	0c2dbH
	DW	0c3c7H
	DW	0c4dcH
	DW	0c4eaH
	DW	0c5ccH
	DW	0c6f7H
	DW	0c7f8H
	DW	0c8abH
	DW	0c8cbH
	DW	0c8d5H
	DW	0c8e7H
	DW	0c9cfH
	DW	0c9faH
	DW	0cab1H
	DW	0cab5H
	DW	0cac7H
	DW	0cad0H
	DW	0cad6H
	DW	0caf5H
	DW	0cafdH
	DW	0ccecH
	DW	0cdf8H
	DW	0ceaaH
	DW	0cec4H
	DW	0ced2H
	DW	0cee5H
	DW	0cfb5H
	DW	0cfc2H
	DW	0cfd6H
	DW	0d0c2H
	DW	0d0c5H
	DW	0d0d0H
	DW	0d0d4H
	DW	0d1a7H
	DW	0d2aaH
	DW	0d2b2H
	DW	0d2b5H
	DW	0d2bbH
	DW	0d2d4H
	DW	0d3c3H
	DW	0d3d0H
	DW	0d3fdH
	DW	0d4c2H
	DW	0d4daH
	DW	0d5e2H
	DW	0d6d0H
CONST	ENDS
PUBLIC	??2@YAPAXI@Z					; operator new
EXTRN	__RTC_Shutdown:PROC
EXTRN	__RTC_InitBase:PROC
;	COMDAT rtc$TMZ
; File d:\mozilla\intl\icu\include\unicode\utypes.h
rtc$TMZ	SEGMENT
__RTC_Shutdown.rtc$TMZ DD FLAT:__RTC_Shutdown
rtc$TMZ	ENDS
;	COMDAT rtc$IMZ
rtc$IMZ	SEGMENT
__RTC_InitBase.rtc$IMZ DD FLAT:__RTC_InitBase
; Function compile flags: /Odtp /RTCsu /ZI
rtc$IMZ	ENDS
;	COMDAT ??2@YAPAXI@Z
_TEXT	SEGMENT
_q$ = -8						; size = 4
___formal$ = 8						; size = 4
??2@YAPAXI@Z PROC					; operator new, COMDAT
; Line 411
	push	ebp
	mov	ebp, esp
	sub	esp, 204				; 000000ccH
	push	ebx
	push	esi
	push	edi
	lea	edi, DWORD PTR [ebp-204]
	mov	ecx, 51					; 00000033H
	mov	eax, -858993460				; ccccccccH
	rep stosd
; Line 412
	mov	DWORD PTR _q$[ebp], 0
; Line 413
	mov	eax, DWORD PTR _q$[ebp]
	mov	BYTE PTR [eax], 5
; Line 414
	mov	eax, DWORD PTR _q$[ebp]
; Line 415
	pop	edi
	pop	esi
	pop	ebx
	mov	esp, ebp
	pop	ebp
	ret	0
??2@YAPAXI@Z ENDP					; operator new
_TEXT	ENDS
PUBLIC	??3@YAXPAX@Z					; operator delete
; Function compile flags: /Odtp /RTCsu /ZI
;	COMDAT ??3@YAXPAX@Z
_TEXT	SEGMENT
_q$ = -8						; size = 4
___formal$ = 8						; size = 4
??3@YAXPAX@Z PROC					; operator delete, COMDAT
; Line 439
	push	ebp
	mov	ebp, esp
	sub	esp, 204				; 000000ccH
	push	ebx
	push	esi
	push	edi
	lea	edi, DWORD PTR [ebp-204]
	mov	ecx, 51					; 00000033H
	mov	eax, -858993460				; ccccccccH
	rep stosd
; Line 440
	mov	DWORD PTR _q$[ebp], 0
; Line 441
	mov	eax, DWORD PTR _q$[ebp]
	mov	BYTE PTR [eax], 5
; Line 442
	pop	edi
	pop	esi
	pop	ebx
	mov	esp, ebp
	pop	ebp
	ret	0
??3@YAXPAX@Z ENDP					; operator delete
_TEXT	ENDS
PUBLIC	??0IteratedChar@icu_56@@QAE@XZ			; icu_56::IteratedChar::IteratedChar
; Function compile flags: /Odtp /RTCsu /ZI
;	COMDAT ??0IteratedChar@icu_56@@QAE@XZ
_TEXT	SEGMENT
_this$ = -8						; size = 4
??0IteratedChar@icu_56@@QAE@XZ PROC			; icu_56::IteratedChar::IteratedChar, COMDAT
; _this$ = ecx
; File d:\mozilla\intl\icu\source\i18n\csrmbcs.cpp
; Line 118
	push	ebp
	mov	ebp, esp
	sub	esp, 204				; 000000ccH
	push	ebx
	push	esi
	push	edi
	push	ecx
	lea	edi, DWORD PTR [ebp-204]
	mov	ecx, 51					; 00000033H
	mov	eax, -858993460				; ccccccccH
	rep stosd
	pop	ecx
	mov	DWORD PTR _this$[ebp], ecx
	mov	eax, DWORD PTR _this$[ebp]
	mov	DWORD PTR [eax], 0
	mov	eax, DWORD PTR _this$[ebp]
	mov	DWORD PTR [eax+4], -1
	mov	eax, DWORD PTR _this$[ebp]
	mov	DWORD PTR [eax+8], 0
	mov	eax, DWORD PTR _this$[ebp]
	mov	BYTE PTR [eax+12], 0
	mov	eax, DWORD PTR _this$[ebp]
	mov	BYTE PTR [eax+13], 0
; Line 120
	mov	eax, DWORD PTR _this$[ebp]
	pop	edi
	pop	esi
	pop	ebx
	mov	esp, ebp
	pop	ebp
	ret	0
??0IteratedChar@icu_56@@QAE@XZ ENDP			; icu_56::IteratedChar::IteratedChar
_TEXT	ENDS
PUBLIC	?nextByte@IteratedChar@icu_56@@QAEHPAVInputText@2@@Z ; icu_56::IteratedChar::nextByte
; Function compile flags: /Odtp /RTCsu /ZI
;	COMDAT ?nextByte@IteratedChar@icu_56@@QAEHPAVInputText@2@@Z
_TEXT	SEGMENT
tv75 = -208						; size = 4
_this$ = -8						; size = 4
_det$ = 8						; size = 4
?nextByte@IteratedChar@icu_56@@QAEHPAVInputText@2@@Z PROC ; icu_56::IteratedChar::nextByte, COMDAT
; _this$ = ecx
; Line 132
	push	ebp
	mov	ebp, esp
	sub	esp, 208				; 000000d0H
	push	ebx
	push	esi
	push	edi
	push	ecx
	lea	edi, DWORD PTR [ebp-208]
	mov	ecx, 52					; 00000034H
	mov	eax, -858993460				; ccccccccH
	rep stosd
	pop	ecx
	mov	DWORD PTR _this$[ebp], ecx
; Line 133
	mov	eax, DWORD PTR _this$[ebp]
	mov	ecx, DWORD PTR _det$[ebp]
	mov	edx, DWORD PTR [eax+8]
	cmp	edx, DWORD PTR [ecx+24]
	jl	SHORT $LN1@nextByte
; Line 134
	mov	eax, DWORD PTR _this$[ebp]
	mov	BYTE PTR [eax+13], 1
; Line 136
	or	eax, -1
	jmp	SHORT $LN2@nextByte
$LN1@nextByte:
; Line 139
	mov	eax, DWORD PTR _det$[ebp]
	mov	ecx, DWORD PTR [eax+20]
	mov	edx, DWORD PTR _this$[ebp]
	mov	eax, DWORD PTR [edx+8]
	movzx	ecx, BYTE PTR [ecx+eax]
	mov	DWORD PTR tv75[ebp], ecx
	mov	edx, DWORD PTR _this$[ebp]
	mov	eax, DWORD PTR [edx+8]
	add	eax, 1
	mov	ecx, DWORD PTR _this$[ebp]
	mov	DWORD PTR [ecx+8], eax
	mov	eax, DWORD PTR tv75[ebp]
$LN2@nextByte:
; Line 140
	pop	edi
	pop	esi
	pop	ebx
	mov	esp, ebp
	pop	ebp
	ret	4
?nextByte@IteratedChar@icu_56@@QAEHPAVInputText@2@@Z ENDP ; icu_56::IteratedChar::nextByte
_TEXT	ENDS
PUBLIC	??_7CharsetRecog_mbcs@icu_56@@6B@		; icu_56::CharsetRecog_mbcs::`vftable'
PUBLIC	??1CharsetRecog_mbcs@icu_56@@UAE@XZ		; icu_56::CharsetRecog_mbcs::~CharsetRecog_mbcs
PUBLIC	??_R4CharsetRecog_mbcs@icu_56@@6B@		; icu_56::CharsetRecog_mbcs::`RTTI Complete Object Locator'
PUBLIC	??_R0?AVCharsetRecog_mbcs@icu_56@@@8		; icu_56::CharsetRecog_mbcs `RTTI Type Descriptor'
PUBLIC	??_R3CharsetRecog_mbcs@icu_56@@8		; icu_56::CharsetRecog_mbcs::`RTTI Class Hierarchy Descriptor'
PUBLIC	??_R2CharsetRecog_mbcs@icu_56@@8		; icu_56::CharsetRecog_mbcs::`RTTI Base Class Array'
PUBLIC	??_R1A@?0A@EA@CharsetRecog_mbcs@icu_56@@8	; icu_56::CharsetRecog_mbcs::`RTTI Base Class Descriptor at (0,-1,0,64)'
PUBLIC	??_R1A@?0A@EA@CharsetRecognizer@icu_56@@8	; icu_56::CharsetRecognizer::`RTTI Base Class Descriptor at (0,-1,0,64)'
PUBLIC	??_R0?AVCharsetRecognizer@icu_56@@@8		; icu_56::CharsetRecognizer `RTTI Type Descriptor'
PUBLIC	??_R3CharsetRecognizer@icu_56@@8		; icu_56::CharsetRecognizer::`RTTI Class Hierarchy Descriptor'
PUBLIC	??_R2CharsetRecognizer@icu_56@@8		; icu_56::CharsetRecognizer::`RTTI Base Class Array'
PUBLIC	??_R13?0A@EA@UMemory@icu_56@@8			; icu_56::UMemory::`RTTI Base Class Descriptor at (4,-1,0,64)'
PUBLIC	??_R0?AVUMemory@icu_56@@@8			; icu_56::UMemory `RTTI Type Descriptor'
PUBLIC	??_R3UMemory@icu_56@@8				; icu_56::UMemory::`RTTI Class Hierarchy Descriptor'
PUBLIC	??_R2UMemory@icu_56@@8				; icu_56::UMemory::`RTTI Base Class Array'
PUBLIC	??_R1A@?0A@EA@UMemory@icu_56@@8			; icu_56::UMemory::`RTTI Base Class Descriptor at (0,-1,0,64)'
EXTRN	??1CharsetRecognizer@icu_56@@UAE@XZ:PROC	; icu_56::CharsetRecognizer::~CharsetRecognizer
EXTRN	__RTC_CheckEsp:PROC
EXTRN	??_7type_info@@6B@:QWORD			; type_info::`vftable'
EXTRN	__purecall:PROC
EXTRN	??_ECharsetRecog_mbcs@icu_56@@UAEPAXI@Z:PROC	; icu_56::CharsetRecog_mbcs::`vector deleting destructor'
;	COMDAT ??_R1A@?0A@EA@UMemory@icu_56@@8
rdata$r	SEGMENT
??_R1A@?0A@EA@UMemory@icu_56@@8 DD FLAT:??_R0?AVUMemory@icu_56@@@8 ; icu_56::UMemory::`RTTI Base Class Descriptor at (0,-1,0,64)'
	DD	00H
	DD	00H
	DD	0ffffffffH
	DD	00H
	DD	040H
	DD	FLAT:??_R3UMemory@icu_56@@8
rdata$r	ENDS
;	COMDAT ??_R2UMemory@icu_56@@8
rdata$r	SEGMENT
??_R2UMemory@icu_56@@8 DD FLAT:??_R1A@?0A@EA@UMemory@icu_56@@8 ; icu_56::UMemory::`RTTI Base Class Array'
rdata$r	ENDS
;	COMDAT ??_R3UMemory@icu_56@@8
rdata$r	SEGMENT
??_R3UMemory@icu_56@@8 DD 00H				; icu_56::UMemory::`RTTI Class Hierarchy Descriptor'
	DD	00H
	DD	01H
	DD	FLAT:??_R2UMemory@icu_56@@8
rdata$r	ENDS
;	COMDAT ??_R0?AVUMemory@icu_56@@@8
_DATA	SEGMENT
??_R0?AVUMemory@icu_56@@@8 DD FLAT:??_7type_info@@6B@	; icu_56::UMemory `RTTI Type Descriptor'
	DD	00H
	DB	'.?AVUMemory@icu_56@@', 00H
_DATA	ENDS
;	COMDAT ??_R13?0A@EA@UMemory@icu_56@@8
rdata$r	SEGMENT
??_R13?0A@EA@UMemory@icu_56@@8 DD FLAT:??_R0?AVUMemory@icu_56@@@8 ; icu_56::UMemory::`RTTI Base Class Descriptor at (4,-1,0,64)'
	DD	00H
	DD	04H
	DD	0ffffffffH
	DD	00H
	DD	040H
	DD	FLAT:??_R3UMemory@icu_56@@8
rdata$r	ENDS
;	COMDAT ??_R2CharsetRecognizer@icu_56@@8
rdata$r	SEGMENT
??_R2CharsetRecognizer@icu_56@@8 DD FLAT:??_R1A@?0A@EA@CharsetRecognizer@icu_56@@8 ; icu_56::CharsetRecognizer::`RTTI Base Class Array'
	DD	FLAT:??_R13?0A@EA@UMemory@icu_56@@8
rdata$r	ENDS
;	COMDAT ??_R3CharsetRecognizer@icu_56@@8
rdata$r	SEGMENT
??_R3CharsetRecognizer@icu_56@@8 DD 00H			; icu_56::CharsetRecognizer::`RTTI Class Hierarchy Descriptor'
	DD	00H
	DD	02H
	DD	FLAT:??_R2CharsetRecognizer@icu_56@@8
rdata$r	ENDS
;	COMDAT ??_R0?AVCharsetRecognizer@icu_56@@@8
_DATA	SEGMENT
??_R0?AVCharsetRecognizer@icu_56@@@8 DD FLAT:??_7type_info@@6B@ ; icu_56::CharsetRecognizer `RTTI Type Descriptor'
	DD	00H
	DB	'.?AVCharsetRecognizer@icu_56@@', 00H
_DATA	ENDS
;	COMDAT ??_R1A@?0A@EA@CharsetRecognizer@icu_56@@8
rdata$r	SEGMENT
??_R1A@?0A@EA@CharsetRecognizer@icu_56@@8 DD FLAT:??_R0?AVCharsetRecognizer@icu_56@@@8 ; icu_56::CharsetRecognizer::`RTTI Base Class Descriptor at (0,-1,0,64)'
	DD	01H
	DD	00H
	DD	0ffffffffH
	DD	00H
	DD	040H
	DD	FLAT:??_R3CharsetRecognizer@icu_56@@8
rdata$r	ENDS
;	COMDAT ??_R1A@?0A@EA@CharsetRecog_mbcs@icu_56@@8
rdata$r	SEGMENT
??_R1A@?0A@EA@CharsetRecog_mbcs@icu_56@@8 DD FLAT:??_R0?AVCharsetRecog_mbcs@icu_56@@@8 ; icu_56::CharsetRecog_mbcs::`RTTI Base Class Descriptor at (0,-1,0,64)'
	DD	02H
	DD	00H
	DD	0ffffffffH
	DD	00H
	DD	040H
	DD	FLAT:??_R3CharsetRecog_mbcs@icu_56@@8
rdata$r	ENDS
;	COMDAT ??_R2CharsetRecog_mbcs@icu_56@@8
rdata$r	SEGMENT
??_R2CharsetRecog_mbcs@icu_56@@8 DD FLAT:??_R1A@?0A@EA@CharsetRecog_mbcs@icu_56@@8 ; icu_56::CharsetRecog_mbcs::`RTTI Base Class Array'
	DD	FLAT:??_R1A@?0A@EA@CharsetRecognizer@icu_56@@8
	DD	FLAT:??_R13?0A@EA@UMemory@icu_56@@8
rdata$r	ENDS
;	COMDAT ??_R3CharsetRecog_mbcs@icu_56@@8
rdata$r	SEGMENT
??_R3CharsetRecog_mbcs@icu_56@@8 DD 00H			; icu_56::CharsetRecog_mbcs::`RTTI Class Hierarchy Descriptor'
	DD	00H
	DD	03H
	DD	FLAT:??_R2CharsetRecog_mbcs@icu_56@@8
rdata$r	ENDS
;	COMDAT ??_R0?AVCharsetRecog_mbcs@icu_56@@@8
_DATA	SEGMENT
??_R0?AVCharsetRecog_mbcs@icu_56@@@8 DD FLAT:??_7type_info@@6B@ ; icu_56::CharsetRecog_mbcs `RTTI Type Descriptor'
	DD	00H
	DB	'.?AVCharsetRecog_mbcs@icu_56@@', 00H
_DATA	ENDS
;	COMDAT ??_R4CharsetRecog_mbcs@icu_56@@6B@
rdata$r	SEGMENT
??_R4CharsetRecog_mbcs@icu_56@@6B@ DD 00H		; icu_56::CharsetRecog_mbcs::`RTTI Complete Object Locator'
	DD	00H
	DD	00H
	DD	FLAT:??_R0?AVCharsetRecog_mbcs@icu_56@@@8
	DD	FLAT:??_R3CharsetRecog_mbcs@icu_56@@8
rdata$r	ENDS
;	COMDAT ??_7CharsetRecog_mbcs@icu_56@@6B@
CONST	SEGMENT
??_7CharsetRecog_mbcs@icu_56@@6B@ DD FLAT:??_R4CharsetRecog_mbcs@icu_56@@6B@ ; icu_56::CharsetRecog_mbcs::`vftable'
	DD	FLAT:__purecall
	DD	FLAT:__purecall
	DD	FLAT:__purecall
	DD	FLAT:??_ECharsetRecog_mbcs@icu_56@@UAEPAXI@Z
	DD	FLAT:__purecall
; Function compile flags: /Odtp /RTCsu /ZI
CONST	ENDS
;	COMDAT ??1CharsetRecog_mbcs@icu_56@@UAE@XZ
_TEXT	SEGMENT
_this$ = -8						; size = 4
??1CharsetRecog_mbcs@icu_56@@UAE@XZ PROC		; icu_56::CharsetRecog_mbcs::~CharsetRecog_mbcs, COMDAT
; _this$ = ecx
; Line 143
	push	ebp
	mov	ebp, esp
	sub	esp, 204				; 000000ccH
	push	ebx
	push	esi
	push	edi
	push	ecx
	lea	edi, DWORD PTR [ebp-204]
	mov	ecx, 51					; 00000033H
	mov	eax, -858993460				; ccccccccH
	rep stosd
	pop	ecx
	mov	DWORD PTR _this$[ebp], ecx
	mov	eax, DWORD PTR _this$[ebp]
	mov	DWORD PTR [eax], OFFSET ??_7CharsetRecog_mbcs@icu_56@@6B@
; Line 145
	mov	ecx, DWORD PTR _this$[ebp]
	call	??1CharsetRecognizer@icu_56@@UAE@XZ	; icu_56::CharsetRecognizer::~CharsetRecognizer
	pop	edi
	pop	esi
	pop	ebx
	add	esp, 204				; 000000ccH
	cmp	ebp, esp
	call	__RTC_CheckEsp
	mov	esp, ebp
	pop	ebp
	ret	0
??1CharsetRecog_mbcs@icu_56@@UAE@XZ ENDP		; icu_56::CharsetRecog_mbcs::~CharsetRecog_mbcs
_TEXT	ENDS
EXTRN	__imp_??3UMemory@icu_56@@SAXPAX@Z:PROC
; Function compile flags: /Odtp /RTCsu /ZI
;	COMDAT ??_GCharsetRecog_mbcs@icu_56@@UAEPAXI@Z
_TEXT	SEGMENT
_this$ = -8						; size = 4
___flags$ = 8						; size = 4
??_GCharsetRecog_mbcs@icu_56@@UAEPAXI@Z PROC		; icu_56::CharsetRecog_mbcs::`scalar deleting destructor', COMDAT
; _this$ = ecx
	push	ebp
	mov	ebp, esp
	sub	esp, 204				; 000000ccH
	push	ebx
	push	esi
	push	edi
	push	ecx
	lea	edi, DWORD PTR [ebp-204]
	mov	ecx, 51					; 00000033H
	mov	eax, -858993460				; ccccccccH
	rep stosd
	pop	ecx
	mov	DWORD PTR _this$[ebp], ecx
	mov	ecx, DWORD PTR _this$[ebp]
	call	??1CharsetRecog_mbcs@icu_56@@UAE@XZ	; icu_56::CharsetRecog_mbcs::~CharsetRecog_mbcs
	mov	eax, DWORD PTR ___flags$[ebp]
	and	eax, 1
	je	SHORT $LN1@scalar
	mov	esi, esp
	mov	eax, DWORD PTR _this$[ebp]
	push	eax
	call	DWORD PTR __imp_??3UMemory@icu_56@@SAXPAX@Z
	add	esp, 4
	cmp	esi, esp
	call	__RTC_CheckEsp
$LN1@scalar:
	mov	eax, DWORD PTR _this$[ebp]
	pop	edi
	pop	esi
	pop	ebx
	add	esp, 204				; 000000ccH
	cmp	ebp, esp
	call	__RTC_CheckEsp
	mov	esp, ebp
	pop	ebp
	ret	4
??_GCharsetRecog_mbcs@icu_56@@UAEPAXI@Z ENDP		; icu_56::CharsetRecog_mbcs::`scalar deleting destructor'
_TEXT	ENDS
PUBLIC	__real@4024000000000000
PUBLIC	__real@3ff0000000000000
PUBLIC	__real@4056800000000000
PUBLIC	__real@4010000000000000
PUBLIC	?match_mbcs@CharsetRecog_mbcs@icu_56@@IBEHPAVInputText@2@QBGH@Z ; icu_56::CharsetRecog_mbcs::match_mbcs
EXTRN	_log:PROC
EXTRN	__fltused:DWORD
EXTRN	@_RTC_CheckStackVars@8:PROC
EXTRN	__ftol2_sse:PROC
;	COMDAT __real@4024000000000000
CONST	SEGMENT
__real@4024000000000000 DQ 04024000000000000r	; 10
CONST	ENDS
;	COMDAT __real@3ff0000000000000
CONST	SEGMENT
__real@3ff0000000000000 DQ 03ff0000000000000r	; 1
CONST	ENDS
;	COMDAT __real@4056800000000000
CONST	SEGMENT
__real@4056800000000000 DQ 04056800000000000r	; 90
CONST	ENDS
;	COMDAT __real@4010000000000000
CONST	SEGMENT
__real@4010000000000000 DQ 04010000000000000r	; 4
; Function compile flags: /Odtp /RTCsu /ZI
CONST	ENDS
;	COMDAT ?match_mbcs@CharsetRecog_mbcs@icu_56@@IBEHPAVInputText@2@QBGH@Z
_TEXT	SEGMENT
tv147 = -336						; size = 4
_scaleFactor$7285 = -136				; size = 8
_maxVal$7283 = -120					; size = 8
_iter$ = -104						; size = 16
_confidence$ = -80					; size = 4
_totalCharCount$ = -68					; size = 4
_badCharCount$ = -56					; size = 4
_commonCharCount$ = -44					; size = 4
_doubleByteCharCount$ = -32				; size = 4
_singleByteCharCount$ = -20				; size = 4
_this$ = -8						; size = 4
_det$ = 8						; size = 4
_commonChars$ = 12					; size = 4
_commonCharsLen$ = 16					; size = 4
?match_mbcs@CharsetRecog_mbcs@icu_56@@IBEHPAVInputText@2@QBGH@Z PROC ; icu_56::CharsetRecog_mbcs::match_mbcs, COMDAT
; _this$ = ecx
; Line 147
	push	ebp
	mov	ebp, esp
	sub	esp, 336				; 00000150H
	push	ebx
	push	esi
	push	edi
	push	ecx
	lea	edi, DWORD PTR [ebp-336]
	mov	ecx, 84					; 00000054H
	mov	eax, -858993460				; ccccccccH
	rep stosd
	pop	ecx
	mov	DWORD PTR _this$[ebp], ecx
; Line 148
	mov	DWORD PTR _singleByteCharCount$[ebp], 0
; Line 149
	mov	DWORD PTR _doubleByteCharCount$[ebp], 0
; Line 150
	mov	DWORD PTR _commonCharCount$[ebp], 0
; Line 151
	mov	DWORD PTR _badCharCount$[ebp], 0
; Line 152
	mov	DWORD PTR _totalCharCount$[ebp], 0
; Line 153
	mov	DWORD PTR _confidence$[ebp], 0
; Line 154
	lea	ecx, DWORD PTR _iter$[ebp]
	call	??0IteratedChar@icu_56@@QAE@XZ		; icu_56::IteratedChar::IteratedChar
$LN17@match_mbcs:
; Line 156
	mov	esi, esp
	mov	eax, DWORD PTR _det$[ebp]
	push	eax
	lea	ecx, DWORD PTR _iter$[ebp]
	push	ecx
	mov	edx, DWORD PTR _this$[ebp]
	mov	eax, DWORD PTR [edx]
	mov	ecx, DWORD PTR _this$[ebp]
	mov	edx, DWORD PTR [eax+16]
	call	edx
	cmp	esi, esp
	call	__RTC_CheckEsp
	movsx	eax, al
	test	eax, eax
	je	SHORT $LN16@match_mbcs
; Line 157
	mov	eax, DWORD PTR _totalCharCount$[ebp]
	add	eax, 1
	mov	DWORD PTR _totalCharCount$[ebp], eax
; Line 159
	movsx	eax, BYTE PTR _iter$[ebp+12]
	test	eax, eax
	je	SHORT $LN15@match_mbcs
; Line 160
	mov	eax, DWORD PTR _badCharCount$[ebp]
	add	eax, 1
	mov	DWORD PTR _badCharCount$[ebp], eax
; Line 161
	jmp	SHORT $LN10@match_mbcs
$LN15@match_mbcs:
; Line 162
	cmp	DWORD PTR _iter$[ebp], 255		; 000000ffH
	ja	SHORT $LN13@match_mbcs
; Line 163
	mov	eax, DWORD PTR _singleByteCharCount$[ebp]
	add	eax, 1
	mov	DWORD PTR _singleByteCharCount$[ebp], eax
; Line 164
	jmp	SHORT $LN10@match_mbcs
$LN13@match_mbcs:
; Line 165
	mov	eax, DWORD PTR _doubleByteCharCount$[ebp]
	add	eax, 1
	mov	DWORD PTR _doubleByteCharCount$[ebp], eax
; Line 167
	cmp	DWORD PTR _commonChars$[ebp], 0
	je	SHORT $LN10@match_mbcs
; Line 168
	movzx	eax, WORD PTR _iter$[ebp]
	push	eax
	mov	ecx, DWORD PTR _commonCharsLen$[ebp]
	push	ecx
	mov	edx, DWORD PTR _commonChars$[ebp]
	push	edx
	call	?binarySearch@icu_56@@YAHPBGHG@Z	; icu_56::binarySearch
	add	esp, 12					; 0000000cH
	test	eax, eax
	jl	SHORT $LN10@match_mbcs
; Line 169
	mov	eax, DWORD PTR _commonCharCount$[ebp]
	add	eax, 1
	mov	DWORD PTR _commonCharCount$[ebp], eax
$LN10@match_mbcs:
; Line 176
	cmp	DWORD PTR _badCharCount$[ebp], 2
	jl	SHORT $LN9@match_mbcs
	mov	eax, DWORD PTR _badCharCount$[ebp]
	imul	eax, 5
	cmp	eax, DWORD PTR _doubleByteCharCount$[ebp]
	jl	SHORT $LN9@match_mbcs
; Line 179
	mov	eax, DWORD PTR _confidence$[ebp]
	jmp	$LN18@match_mbcs
$LN9@match_mbcs:
; Line 181
	jmp	$LN17@match_mbcs
$LN16@match_mbcs:
; Line 183
	cmp	DWORD PTR _doubleByteCharCount$[ebp], 10 ; 0000000aH
	jg	SHORT $LN8@match_mbcs
	cmp	DWORD PTR _badCharCount$[ebp], 0
	jne	SHORT $LN8@match_mbcs
; Line 185
	cmp	DWORD PTR _doubleByteCharCount$[ebp], 0
	jne	SHORT $LN7@match_mbcs
	cmp	DWORD PTR _totalCharCount$[ebp], 10	; 0000000aH
	jge	SHORT $LN7@match_mbcs
; Line 189
	mov	DWORD PTR _confidence$[ebp], 0
; Line 191
	jmp	SHORT $LN6@match_mbcs
$LN7@match_mbcs:
; Line 194
	mov	DWORD PTR _confidence$[ebp], 10		; 0000000aH
$LN6@match_mbcs:
; Line 197
	mov	eax, DWORD PTR _confidence$[ebp]
	jmp	$LN18@match_mbcs
$LN8@match_mbcs:
; Line 204
	mov	eax, DWORD PTR _badCharCount$[ebp]
	imul	eax, 20					; 00000014H
	cmp	DWORD PTR _doubleByteCharCount$[ebp], eax
	jge	SHORT $LN5@match_mbcs
; Line 205
	mov	DWORD PTR _confidence$[ebp], 0
; Line 207
	mov	eax, DWORD PTR _confidence$[ebp]
	jmp	$LN18@match_mbcs
$LN5@match_mbcs:
; Line 210
	cmp	DWORD PTR _commonChars$[ebp], 0
	jne	SHORT $LN4@match_mbcs
; Line 214
	mov	eax, DWORD PTR _doubleByteCharCount$[ebp]
	add	eax, 30					; 0000001eH
	mov	ecx, DWORD PTR _badCharCount$[ebp]
	imul	ecx, 20					; 00000014H
	sub	eax, ecx
	mov	DWORD PTR _confidence$[ebp], eax
; Line 216
	cmp	DWORD PTR _confidence$[ebp], 100	; 00000064H
	jle	SHORT $LN3@match_mbcs
; Line 217
	mov	DWORD PTR _confidence$[ebp], 100	; 00000064H
$LN3@match_mbcs:
; Line 219
	jmp	SHORT $LN2@match_mbcs
$LN4@match_mbcs:
; Line 224
	fild	DWORD PTR _doubleByteCharCount$[ebp]
	fdiv	QWORD PTR __real@4010000000000000
	sub	esp, 8
	fstp	QWORD PTR [esp]
	call	_log
	add	esp, 8
	fstp	QWORD PTR _maxVal$7283[ebp]
; Line 225
	fld	QWORD PTR __real@4056800000000000
	fdiv	QWORD PTR _maxVal$7283[ebp]
	fstp	QWORD PTR _scaleFactor$7285[ebp]
; Line 226
	fild	DWORD PTR _commonCharCount$[ebp]
	fadd	QWORD PTR __real@3ff0000000000000
	sub	esp, 8
	fstp	QWORD PTR [esp]
	call	_log
	add	esp, 8
	fmul	QWORD PTR _scaleFactor$7285[ebp]
	fadd	QWORD PTR __real@4024000000000000
	call	__ftol2_sse
	mov	DWORD PTR _confidence$[ebp], eax
; Line 228
	cmp	DWORD PTR _confidence$[ebp], 100	; 00000064H
	jge	SHORT $LN20@match_mbcs
	mov	eax, DWORD PTR _confidence$[ebp]
	mov	DWORD PTR tv147[ebp], eax
	jmp	SHORT $LN21@match_mbcs
$LN20@match_mbcs:
	mov	DWORD PTR tv147[ebp], 100		; 00000064H
$LN21@match_mbcs:
	mov	ecx, DWORD PTR tv147[ebp]
	mov	DWORD PTR _confidence$[ebp], ecx
$LN2@match_mbcs:
; Line 231
	cmp	DWORD PTR _confidence$[ebp], 0
	jge	SHORT $LN1@match_mbcs
; Line 232
	mov	DWORD PTR _confidence$[ebp], 0
$LN1@match_mbcs:
; Line 235
	mov	eax, DWORD PTR _confidence$[ebp]
$LN18@match_mbcs:
; Line 236
	push	edx
	mov	ecx, ebp
	push	eax
	lea	edx, DWORD PTR $LN24@match_mbcs
	call	@_RTC_CheckStackVars@8
	pop	eax
	pop	edx
	pop	edi
	pop	esi
	pop	ebx
	add	esp, 336				; 00000150H
	cmp	ebp, esp
	call	__RTC_CheckEsp
	mov	esp, ebp
	pop	ebp
	ret	12					; 0000000cH
$LN24@match_mbcs:
	DD	1
	DD	$LN23@match_mbcs
$LN23@match_mbcs:
	DD	-104					; ffffff98H
	DD	16					; 00000010H
	DD	$LN22@match_mbcs
$LN22@match_mbcs:
	DB	105					; 00000069H
	DB	116					; 00000074H
	DB	101					; 00000065H
	DB	114					; 00000072H
	DB	0
?match_mbcs@CharsetRecog_mbcs@icu_56@@IBEHPAVInputText@2@QBGH@Z ENDP ; icu_56::CharsetRecog_mbcs::match_mbcs
; Function compile flags: /Odtp /RTCsu /ZI
_TEXT	ENDS
;	COMDAT ?binarySearch@icu_56@@YAHPBGHG@Z
_TEXT	SEGMENT
_mid$ = -32						; size = 4
_end$ = -20						; size = 4
_start$ = -8						; size = 4
_array$ = 8						; size = 4
_len$ = 12						; size = 4
_value$ = 16						; size = 2
?binarySearch@icu_56@@YAHPBGHG@Z PROC			; icu_56::binarySearch, COMDAT
; Line 95
	push	ebp
	mov	ebp, esp
	sub	esp, 228				; 000000e4H
	push	ebx
	push	esi
	push	edi
	lea	edi, DWORD PTR [ebp-228]
	mov	ecx, 57					; 00000039H
	mov	eax, -858993460				; ccccccccH
	rep stosd
; Line 96
	mov	DWORD PTR _start$[ebp], 0
	mov	eax, DWORD PTR _len$[ebp]
	sub	eax, 1
	mov	DWORD PTR _end$[ebp], eax
; Line 97
	mov	eax, DWORD PTR _start$[ebp]
	add	eax, DWORD PTR _end$[ebp]
	cdq
	sub	eax, edx
	sar	eax, 1
	mov	DWORD PTR _mid$[ebp], eax
$LN5@binarySear:
; Line 99
	mov	eax, DWORD PTR _start$[ebp]
	cmp	eax, DWORD PTR _end$[ebp]
	jg	SHORT $LN4@binarySear
; Line 100
	mov	eax, DWORD PTR _mid$[ebp]
	mov	ecx, DWORD PTR _array$[ebp]
	movzx	edx, WORD PTR [ecx+eax*2]
	movzx	eax, WORD PTR _value$[ebp]
	cmp	edx, eax
	jne	SHORT $LN3@binarySear
; Line 101
	mov	eax, DWORD PTR _mid$[ebp]
	jmp	SHORT $LN6@binarySear
$LN3@binarySear:
; Line 104
	mov	eax, DWORD PTR _mid$[ebp]
	mov	ecx, DWORD PTR _array$[ebp]
	movzx	edx, WORD PTR [ecx+eax*2]
	movzx	eax, WORD PTR _value$[ebp]
	cmp	edx, eax
	jge	SHORT $LN2@binarySear
; Line 105
	mov	eax, DWORD PTR _mid$[ebp]
	add	eax, 1
	mov	DWORD PTR _start$[ebp], eax
; Line 106
	jmp	SHORT $LN1@binarySear
$LN2@binarySear:
; Line 107
	mov	eax, DWORD PTR _mid$[ebp]
	sub	eax, 1
	mov	DWORD PTR _end$[ebp], eax
$LN1@binarySear:
; Line 110
	mov	eax, DWORD PTR _start$[ebp]
	add	eax, DWORD PTR _end$[ebp]
	cdq
	sub	eax, edx
	sar	eax, 1
	mov	DWORD PTR _mid$[ebp], eax
; Line 111
	jmp	SHORT $LN5@binarySear
$LN4@binarySear:
; Line 113
	or	eax, -1
$LN6@binarySear:
; Line 114
	pop	edi
	pop	esi
	pop	ebx
	mov	esp, ebp
	pop	ebp
	ret	0
?binarySearch@icu_56@@YAHPBGHG@Z ENDP			; icu_56::binarySearch
_TEXT	ENDS
PUBLIC	??_7CharsetRecog_sjis@icu_56@@6B@		; icu_56::CharsetRecog_sjis::`vftable'
PUBLIC	??1CharsetRecog_sjis@icu_56@@UAE@XZ		; icu_56::CharsetRecog_sjis::~CharsetRecog_sjis
PUBLIC	??_R4CharsetRecog_sjis@icu_56@@6B@		; icu_56::CharsetRecog_sjis::`RTTI Complete Object Locator'
PUBLIC	??_R0?AVCharsetRecog_sjis@icu_56@@@8		; icu_56::CharsetRecog_sjis `RTTI Type Descriptor'
PUBLIC	??_R3CharsetRecog_sjis@icu_56@@8		; icu_56::CharsetRecog_sjis::`RTTI Class Hierarchy Descriptor'
PUBLIC	??_R2CharsetRecog_sjis@icu_56@@8		; icu_56::CharsetRecog_sjis::`RTTI Base Class Array'
PUBLIC	??_R1A@?0A@EA@CharsetRecog_sjis@icu_56@@8	; icu_56::CharsetRecog_sjis::`RTTI Base Class Descriptor at (0,-1,0,64)'
PUBLIC	?getName@CharsetRecog_sjis@icu_56@@UBEPBDXZ	; icu_56::CharsetRecog_sjis::getName
PUBLIC	?getLanguage@CharsetRecog_sjis@icu_56@@UBEPBDXZ	; icu_56::CharsetRecog_sjis::getLanguage
PUBLIC	?match@CharsetRecog_sjis@icu_56@@UBECPAVInputText@2@PAVCharsetMatch@2@@Z ; icu_56::CharsetRecog_sjis::match
PUBLIC	?nextChar@CharsetRecog_sjis@icu_56@@UBECPAVIteratedChar@2@PAVInputText@2@@Z ; icu_56::CharsetRecog_sjis::nextChar
EXTRN	??_ECharsetRecog_sjis@icu_56@@UAEPAXI@Z:PROC	; icu_56::CharsetRecog_sjis::`vector deleting destructor'
;	COMDAT ??_R1A@?0A@EA@CharsetRecog_sjis@icu_56@@8
rdata$r	SEGMENT
??_R1A@?0A@EA@CharsetRecog_sjis@icu_56@@8 DD FLAT:??_R0?AVCharsetRecog_sjis@icu_56@@@8 ; icu_56::CharsetRecog_sjis::`RTTI Base Class Descriptor at (0,-1,0,64)'
	DD	03H
	DD	00H
	DD	0ffffffffH
	DD	00H
	DD	040H
	DD	FLAT:??_R3CharsetRecog_sjis@icu_56@@8
rdata$r	ENDS
;	COMDAT ??_R2CharsetRecog_sjis@icu_56@@8
rdata$r	SEGMENT
??_R2CharsetRecog_sjis@icu_56@@8 DD FLAT:??_R1A@?0A@EA@CharsetRecog_sjis@icu_56@@8 ; icu_56::CharsetRecog_sjis::`RTTI Base Class Array'
	DD	FLAT:??_R1A@?0A@EA@CharsetRecog_mbcs@icu_56@@8
	DD	FLAT:??_R1A@?0A@EA@CharsetRecognizer@icu_56@@8
	DD	FLAT:??_R13?0A@EA@UMemory@icu_56@@8
rdata$r	ENDS
;	COMDAT ??_R3CharsetRecog_sjis@icu_56@@8
rdata$r	SEGMENT
??_R3CharsetRecog_sjis@icu_56@@8 DD 00H			; icu_56::CharsetRecog_sjis::`RTTI Class Hierarchy Descriptor'
	DD	00H
	DD	04H
	DD	FLAT:??_R2CharsetRecog_sjis@icu_56@@8
rdata$r	ENDS
;	COMDAT ??_R0?AVCharsetRecog_sjis@icu_56@@@8
_DATA	SEGMENT
??_R0?AVCharsetRecog_sjis@icu_56@@@8 DD FLAT:??_7type_info@@6B@ ; icu_56::CharsetRecog_sjis `RTTI Type Descriptor'
	DD	00H
	DB	'.?AVCharsetRecog_sjis@icu_56@@', 00H
_DATA	ENDS
;	COMDAT ??_R4CharsetRecog_sjis@icu_56@@6B@
rdata$r	SEGMENT
??_R4CharsetRecog_sjis@icu_56@@6B@ DD 00H		; icu_56::CharsetRecog_sjis::`RTTI Complete Object Locator'
	DD	00H
	DD	00H
	DD	FLAT:??_R0?AVCharsetRecog_sjis@icu_56@@@8
	DD	FLAT:??_R3CharsetRecog_sjis@icu_56@@8
rdata$r	ENDS
;	COMDAT ??_7CharsetRecog_sjis@icu_56@@6B@
CONST	SEGMENT
??_7CharsetRecog_sjis@icu_56@@6B@ DD FLAT:??_R4CharsetRecog_sjis@icu_56@@6B@ ; icu_56::CharsetRecog_sjis::`vftable'
	DD	FLAT:?getName@CharsetRecog_sjis@icu_56@@UBEPBDXZ
	DD	FLAT:?getLanguage@CharsetRecog_sjis@icu_56@@UBEPBDXZ
	DD	FLAT:?match@CharsetRecog_sjis@icu_56@@UBECPAVInputText@2@PAVCharsetMatch@2@@Z
	DD	FLAT:??_ECharsetRecog_sjis@icu_56@@UAEPAXI@Z
	DD	FLAT:?nextChar@CharsetRecog_sjis@icu_56@@UBECPAVIteratedChar@2@PAVInputText@2@@Z
; Function compile flags: /Odtp /RTCsu /ZI
CONST	ENDS
;	COMDAT ??1CharsetRecog_sjis@icu_56@@UAE@XZ
_TEXT	SEGMENT
_this$ = -8						; size = 4
??1CharsetRecog_sjis@icu_56@@UAE@XZ PROC		; icu_56::CharsetRecog_sjis::~CharsetRecog_sjis, COMDAT
; _this$ = ecx
; Line 239
	push	ebp
	mov	ebp, esp
	sub	esp, 204				; 000000ccH
	push	ebx
	push	esi
	push	edi
	push	ecx
	lea	edi, DWORD PTR [ebp-204]
	mov	ecx, 51					; 00000033H
	mov	eax, -858993460				; ccccccccH
	rep stosd
	pop	ecx
	mov	DWORD PTR _this$[ebp], ecx
	mov	eax, DWORD PTR _this$[ebp]
	mov	DWORD PTR [eax], OFFSET ??_7CharsetRecog_sjis@icu_56@@6B@
; Line 241
	mov	ecx, DWORD PTR _this$[ebp]
	call	??1CharsetRecog_mbcs@icu_56@@UAE@XZ	; icu_56::CharsetRecog_mbcs::~CharsetRecog_mbcs
	pop	edi
	pop	esi
	pop	ebx
	add	esp, 204				; 000000ccH
	cmp	ebp, esp
	call	__RTC_CheckEsp
	mov	esp, ebp
	pop	ebp
	ret	0
??1CharsetRecog_sjis@icu_56@@UAE@XZ ENDP		; icu_56::CharsetRecog_sjis::~CharsetRecog_sjis
; Function compile flags: /Odtp /RTCsu /ZI
_TEXT	ENDS
;	COMDAT ??_GCharsetRecog_sjis@icu_56@@UAEPAXI@Z
_TEXT	SEGMENT
_this$ = -8						; size = 4
___flags$ = 8						; size = 4
??_GCharsetRecog_sjis@icu_56@@UAEPAXI@Z PROC		; icu_56::CharsetRecog_sjis::`scalar deleting destructor', COMDAT
; _this$ = ecx
	push	ebp
	mov	ebp, esp
	sub	esp, 204				; 000000ccH
	push	ebx
	push	esi
	push	edi
	push	ecx
	lea	edi, DWORD PTR [ebp-204]
	mov	ecx, 51					; 00000033H
	mov	eax, -858993460				; ccccccccH
	rep stosd
	pop	ecx
	mov	DWORD PTR _this$[ebp], ecx
	mov	ecx, DWORD PTR _this$[ebp]
	call	??1CharsetRecog_sjis@icu_56@@UAE@XZ	; icu_56::CharsetRecog_sjis::~CharsetRecog_sjis
	mov	eax, DWORD PTR ___flags$[ebp]
	and	eax, 1
	je	SHORT $LN1@scalar@2
	mov	esi, esp
	mov	eax, DWORD PTR _this$[ebp]
	push	eax
	call	DWORD PTR __imp_??3UMemory@icu_56@@SAXPAX@Z
	add	esp, 4
	cmp	esi, esp
	call	__RTC_CheckEsp
$LN1@scalar@2:
	mov	eax, DWORD PTR _this$[ebp]
	pop	edi
	pop	esi
	pop	ebx
	add	esp, 204				; 000000ccH
	cmp	ebp, esp
	call	__RTC_CheckEsp
	mov	esp, ebp
	pop	ebp
	ret	4
??_GCharsetRecog_sjis@icu_56@@UAEPAXI@Z ENDP		; icu_56::CharsetRecog_sjis::`scalar deleting destructor'
; Function compile flags: /Odtp /RTCsu /ZI
_TEXT	ENDS
;	COMDAT ?nextChar@CharsetRecog_sjis@icu_56@@UBECPAVIteratedChar@2@PAVInputText@2@@Z
_TEXT	SEGMENT
_secondByte$ = -32					; size = 4
_firstByte$ = -20					; size = 4
_this$ = -8						; size = 4
_it$ = 8						; size = 4
_det$ = 12						; size = 4
?nextChar@CharsetRecog_sjis@icu_56@@UBECPAVIteratedChar@2@PAVInputText@2@@Z PROC ; icu_56::CharsetRecog_sjis::nextChar, COMDAT
; _this$ = ecx
; Line 243
	push	ebp
	mov	ebp, esp
	sub	esp, 228				; 000000e4H
	push	ebx
	push	esi
	push	edi
	push	ecx
	lea	edi, DWORD PTR [ebp-228]
	mov	ecx, 57					; 00000039H
	mov	eax, -858993460				; ccccccccH
	rep stosd
	pop	ecx
	mov	DWORD PTR _this$[ebp], ecx
; Line 244
	mov	eax, DWORD PTR _it$[ebp]
	mov	ecx, DWORD PTR _it$[ebp]
	mov	edx, DWORD PTR [ecx+8]
	mov	DWORD PTR [eax+4], edx
; Line 245
	mov	eax, DWORD PTR _it$[ebp]
	mov	BYTE PTR [eax+12], 0
; Line 247
	mov	eax, DWORD PTR _det$[ebp]
	push	eax
	mov	ecx, DWORD PTR _it$[ebp]
	call	?nextByte@IteratedChar@icu_56@@QAEHPAVInputText@2@@Z ; icu_56::IteratedChar::nextByte
	mov	ecx, DWORD PTR _it$[ebp]
	mov	DWORD PTR [ecx], eax
	mov	edx, DWORD PTR _it$[ebp]
	mov	eax, DWORD PTR [edx]
	mov	DWORD PTR _firstByte$[ebp], eax
; Line 249
	cmp	DWORD PTR _firstByte$[ebp], 0
	jge	SHORT $LN7@nextChar
; Line 250
	xor	al, al
	jmp	SHORT $LN8@nextChar
$LN7@nextChar:
; Line 253
	cmp	DWORD PTR _firstByte$[ebp], 127		; 0000007fH
	jle	SHORT $LN5@nextChar
	cmp	DWORD PTR _firstByte$[ebp], 160		; 000000a0H
	jle	SHORT $LN6@nextChar
	cmp	DWORD PTR _firstByte$[ebp], 223		; 000000dfH
	jg	SHORT $LN6@nextChar
$LN5@nextChar:
; Line 254
	mov	al, 1
	jmp	SHORT $LN8@nextChar
$LN6@nextChar:
; Line 257
	mov	eax, DWORD PTR _det$[ebp]
	push	eax
	mov	ecx, DWORD PTR _it$[ebp]
	call	?nextByte@IteratedChar@icu_56@@QAEHPAVInputText@2@@Z ; icu_56::IteratedChar::nextByte
	mov	DWORD PTR _secondByte$[ebp], eax
; Line 258
	cmp	DWORD PTR _secondByte$[ebp], 0
	jl	SHORT $LN4@nextChar
; Line 259
	mov	eax, DWORD PTR _firstByte$[ebp]
	shl	eax, 8
	or	eax, DWORD PTR _secondByte$[ebp]
	mov	ecx, DWORD PTR _it$[ebp]
	mov	DWORD PTR [ecx], eax
$LN4@nextChar:
; Line 263
	cmp	DWORD PTR _secondByte$[ebp], 64		; 00000040H
	jl	SHORT $LN2@nextChar
	cmp	DWORD PTR _secondByte$[ebp], 127	; 0000007fH
	jle	SHORT $LN3@nextChar
$LN2@nextChar:
	cmp	DWORD PTR _secondByte$[ebp], 128	; 00000080H
	jl	SHORT $LN1@nextChar
	cmp	DWORD PTR _secondByte$[ebp], 254	; 000000feH
	jle	SHORT $LN3@nextChar
$LN1@nextChar:
; Line 265
	mov	eax, DWORD PTR _it$[ebp]
	mov	BYTE PTR [eax+12], 1
$LN3@nextChar:
; Line 268
	mov	al, 1
$LN8@nextChar:
; Line 269
	pop	edi
	pop	esi
	pop	ebx
	add	esp, 228				; 000000e4H
	cmp	ebp, esp
	call	__RTC_CheckEsp
	mov	esp, ebp
	pop	ebp
	ret	8
?nextChar@CharsetRecog_sjis@icu_56@@UBECPAVIteratedChar@2@PAVInputText@2@@Z ENDP ; icu_56::CharsetRecog_sjis::nextChar
_TEXT	ENDS
EXTRN	?set@CharsetMatch@icu_56@@QAEXPAVInputText@2@PBVCharsetRecognizer@2@HPBD2@Z:PROC ; icu_56::CharsetMatch::set
; Function compile flags: /Odtp /RTCsu /ZI
;	COMDAT ?match@CharsetRecog_sjis@icu_56@@UBECPAVInputText@2@PAVCharsetMatch@2@@Z
_TEXT	SEGMENT
_confidence$ = -20					; size = 4
_this$ = -8						; size = 4
_det$ = 8						; size = 4
_results$ = 12						; size = 4
?match@CharsetRecog_sjis@icu_56@@UBECPAVInputText@2@PAVCharsetMatch@2@@Z PROC ; icu_56::CharsetRecog_sjis::match, COMDAT
; _this$ = ecx
; Line 271
	push	ebp
	mov	ebp, esp
	sub	esp, 216				; 000000d8H
	push	ebx
	push	esi
	push	edi
	push	ecx
	lea	edi, DWORD PTR [ebp-216]
	mov	ecx, 54					; 00000036H
	mov	eax, -858993460				; ccccccccH
	rep stosd
	pop	ecx
	mov	DWORD PTR _this$[ebp], ecx
; Line 272
	push	57					; 00000039H
	push	OFFSET _commonChars_sjis
	mov	eax, DWORD PTR _det$[ebp]
	push	eax
	mov	ecx, DWORD PTR _this$[ebp]
	call	?match_mbcs@CharsetRecog_mbcs@icu_56@@IBEHPAVInputText@2@QBGH@Z ; icu_56::CharsetRecog_mbcs::match_mbcs
	mov	DWORD PTR _confidence$[ebp], eax
; Line 273
	push	0
	push	0
	mov	eax, DWORD PTR _confidence$[ebp]
	push	eax
	mov	ecx, DWORD PTR _this$[ebp]
	push	ecx
	mov	edx, DWORD PTR _det$[ebp]
	push	edx
	mov	ecx, DWORD PTR _results$[ebp]
	call	?set@CharsetMatch@icu_56@@QAEXPAVInputText@2@PBVCharsetRecognizer@2@HPBD2@Z ; icu_56::CharsetMatch::set
; Line 274
	cmp	DWORD PTR _confidence$[ebp], 0
	setg	al
; Line 275
	pop	edi
	pop	esi
	pop	ebx
	add	esp, 216				; 000000d8H
	cmp	ebp, esp
	call	__RTC_CheckEsp
	mov	esp, ebp
	pop	ebp
	ret	8
?match@CharsetRecog_sjis@icu_56@@UBECPAVInputText@2@PAVCharsetMatch@2@@Z ENDP ; icu_56::CharsetRecog_sjis::match
_TEXT	ENDS
PUBLIC	??_C@_09LOKLFMHN@Shift_JIS?$AA@			; `string'
;	COMDAT ??_C@_09LOKLFMHN@Shift_JIS?$AA@
CONST	SEGMENT
??_C@_09LOKLFMHN@Shift_JIS?$AA@ DB 'Shift_JIS', 00H	; `string'
; Function compile flags: /Odtp /RTCsu /ZI
CONST	ENDS
;	COMDAT ?getName@CharsetRecog_sjis@icu_56@@UBEPBDXZ
_TEXT	SEGMENT
_this$ = -8						; size = 4
?getName@CharsetRecog_sjis@icu_56@@UBEPBDXZ PROC	; icu_56::CharsetRecog_sjis::getName, COMDAT
; _this$ = ecx
; Line 278
	push	ebp
	mov	ebp, esp
	sub	esp, 204				; 000000ccH
	push	ebx
	push	esi
	push	edi
	push	ecx
	lea	edi, DWORD PTR [ebp-204]
	mov	ecx, 51					; 00000033H
	mov	eax, -858993460				; ccccccccH
	rep stosd
	pop	ecx
	mov	DWORD PTR _this$[ebp], ecx
; Line 279
	mov	eax, OFFSET ??_C@_09LOKLFMHN@Shift_JIS?$AA@
; Line 280
	pop	edi
	pop	esi
	pop	ebx
	mov	esp, ebp
	pop	ebp
	ret	0
?getName@CharsetRecog_sjis@icu_56@@UBEPBDXZ ENDP	; icu_56::CharsetRecog_sjis::getName
_TEXT	ENDS
PUBLIC	??_C@_02DJBIDCPN@ja?$AA@			; `string'
;	COMDAT ??_C@_02DJBIDCPN@ja?$AA@
CONST	SEGMENT
??_C@_02DJBIDCPN@ja?$AA@ DB 'ja', 00H			; `string'
; Function compile flags: /Odtp /RTCsu /ZI
CONST	ENDS
;	COMDAT ?getLanguage@CharsetRecog_sjis@icu_56@@UBEPBDXZ
_TEXT	SEGMENT
_this$ = -8						; size = 4
?getLanguage@CharsetRecog_sjis@icu_56@@UBEPBDXZ PROC	; icu_56::CharsetRecog_sjis::getLanguage, COMDAT
; _this$ = ecx
; Line 283
	push	ebp
	mov	ebp, esp
	sub	esp, 204				; 000000ccH
	push	ebx
	push	esi
	push	edi
	push	ecx
	lea	edi, DWORD PTR [ebp-204]
	mov	ecx, 51					; 00000033H
	mov	eax, -858993460				; ccccccccH
	rep stosd
	pop	ecx
	mov	DWORD PTR _this$[ebp], ecx
; Line 284
	mov	eax, OFFSET ??_C@_02DJBIDCPN@ja?$AA@
; Line 285
	pop	edi
	pop	esi
	pop	ebx
	mov	esp, ebp
	pop	ebp
	ret	0
?getLanguage@CharsetRecog_sjis@icu_56@@UBEPBDXZ ENDP	; icu_56::CharsetRecog_sjis::getLanguage
_TEXT	ENDS
PUBLIC	??_7CharsetRecog_euc@icu_56@@6B@		; icu_56::CharsetRecog_euc::`vftable'
PUBLIC	??1CharsetRecog_euc@icu_56@@UAE@XZ		; icu_56::CharsetRecog_euc::~CharsetRecog_euc
PUBLIC	??_R4CharsetRecog_euc@icu_56@@6B@		; icu_56::CharsetRecog_euc::`RTTI Complete Object Locator'
PUBLIC	??_R0?AVCharsetRecog_euc@icu_56@@@8		; icu_56::CharsetRecog_euc `RTTI Type Descriptor'
PUBLIC	??_R3CharsetRecog_euc@icu_56@@8			; icu_56::CharsetRecog_euc::`RTTI Class Hierarchy Descriptor'
PUBLIC	??_R2CharsetRecog_euc@icu_56@@8			; icu_56::CharsetRecog_euc::`RTTI Base Class Array'
PUBLIC	??_R1A@?0A@EA@CharsetRecog_euc@icu_56@@8	; icu_56::CharsetRecog_euc::`RTTI Base Class Descriptor at (0,-1,0,64)'
PUBLIC	?nextChar@CharsetRecog_euc@icu_56@@UBECPAVIteratedChar@2@PAVInputText@2@@Z ; icu_56::CharsetRecog_euc::nextChar
EXTRN	??_ECharsetRecog_euc@icu_56@@UAEPAXI@Z:PROC	; icu_56::CharsetRecog_euc::`vector deleting destructor'
;	COMDAT ??_R1A@?0A@EA@CharsetRecog_euc@icu_56@@8
rdata$r	SEGMENT
??_R1A@?0A@EA@CharsetRecog_euc@icu_56@@8 DD FLAT:??_R0?AVCharsetRecog_euc@icu_56@@@8 ; icu_56::CharsetRecog_euc::`RTTI Base Class Descriptor at (0,-1,0,64)'
	DD	03H
	DD	00H
	DD	0ffffffffH
	DD	00H
	DD	040H
	DD	FLAT:??_R3CharsetRecog_euc@icu_56@@8
rdata$r	ENDS
;	COMDAT ??_R2CharsetRecog_euc@icu_56@@8
rdata$r	SEGMENT
??_R2CharsetRecog_euc@icu_56@@8 DD FLAT:??_R1A@?0A@EA@CharsetRecog_euc@icu_56@@8 ; icu_56::CharsetRecog_euc::`RTTI Base Class Array'
	DD	FLAT:??_R1A@?0A@EA@CharsetRecog_mbcs@icu_56@@8
	DD	FLAT:??_R1A@?0A@EA@CharsetRecognizer@icu_56@@8
	DD	FLAT:??_R13?0A@EA@UMemory@icu_56@@8
rdata$r	ENDS
;	COMDAT ??_R3CharsetRecog_euc@icu_56@@8
rdata$r	SEGMENT
??_R3CharsetRecog_euc@icu_56@@8 DD 00H			; icu_56::CharsetRecog_euc::`RTTI Class Hierarchy Descriptor'
	DD	00H
	DD	04H
	DD	FLAT:??_R2CharsetRecog_euc@icu_56@@8
rdata$r	ENDS
;	COMDAT ??_R0?AVCharsetRecog_euc@icu_56@@@8
_DATA	SEGMENT
??_R0?AVCharsetRecog_euc@icu_56@@@8 DD FLAT:??_7type_info@@6B@ ; icu_56::CharsetRecog_euc `RTTI Type Descriptor'
	DD	00H
	DB	'.?AVCharsetRecog_euc@icu_56@@', 00H
_DATA	ENDS
;	COMDAT ??_R4CharsetRecog_euc@icu_56@@6B@
rdata$r	SEGMENT
??_R4CharsetRecog_euc@icu_56@@6B@ DD 00H		; icu_56::CharsetRecog_euc::`RTTI Complete Object Locator'
	DD	00H
	DD	00H
	DD	FLAT:??_R0?AVCharsetRecog_euc@icu_56@@@8
	DD	FLAT:??_R3CharsetRecog_euc@icu_56@@8
rdata$r	ENDS
;	COMDAT ??_7CharsetRecog_euc@icu_56@@6B@
CONST	SEGMENT
??_7CharsetRecog_euc@icu_56@@6B@ DD FLAT:??_R4CharsetRecog_euc@icu_56@@6B@ ; icu_56::CharsetRecog_euc::`vftable'
	DD	FLAT:__purecall
	DD	FLAT:__purecall
	DD	FLAT:__purecall
	DD	FLAT:??_ECharsetRecog_euc@icu_56@@UAEPAXI@Z
	DD	FLAT:?nextChar@CharsetRecog_euc@icu_56@@UBECPAVIteratedChar@2@PAVInputText@2@@Z
; Function compile flags: /Odtp /RTCsu /ZI
CONST	ENDS
;	COMDAT ??1CharsetRecog_euc@icu_56@@UAE@XZ
_TEXT	SEGMENT
_this$ = -8						; size = 4
??1CharsetRecog_euc@icu_56@@UAE@XZ PROC			; icu_56::CharsetRecog_euc::~CharsetRecog_euc, COMDAT
; _this$ = ecx
; Line 288
	push	ebp
	mov	ebp, esp
	sub	esp, 204				; 000000ccH
	push	ebx
	push	esi
	push	edi
	push	ecx
	lea	edi, DWORD PTR [ebp-204]
	mov	ecx, 51					; 00000033H
	mov	eax, -858993460				; ccccccccH
	rep stosd
	pop	ecx
	mov	DWORD PTR _this$[ebp], ecx
	mov	eax, DWORD PTR _this$[ebp]
	mov	DWORD PTR [eax], OFFSET ??_7CharsetRecog_euc@icu_56@@6B@
; Line 290
	mov	ecx, DWORD PTR _this$[ebp]
	call	??1CharsetRecog_mbcs@icu_56@@UAE@XZ	; icu_56::CharsetRecog_mbcs::~CharsetRecog_mbcs
	pop	edi
	pop	esi
	pop	ebx
	add	esp, 204				; 000000ccH
	cmp	ebp, esp
	call	__RTC_CheckEsp
	mov	esp, ebp
	pop	ebp
	ret	0
??1CharsetRecog_euc@icu_56@@UAE@XZ ENDP			; icu_56::CharsetRecog_euc::~CharsetRecog_euc
; Function compile flags: /Odtp /RTCsu /ZI
_TEXT	ENDS
;	COMDAT ??_GCharsetRecog_euc@icu_56@@UAEPAXI@Z
_TEXT	SEGMENT
_this$ = -8						; size = 4
___flags$ = 8						; size = 4
??_GCharsetRecog_euc@icu_56@@UAEPAXI@Z PROC		; icu_56::CharsetRecog_euc::`scalar deleting destructor', COMDAT
; _this$ = ecx
	push	ebp
	mov	ebp, esp
	sub	esp, 204				; 000000ccH
	push	ebx
	push	esi
	push	edi
	push	ecx
	lea	edi, DWORD PTR [ebp-204]
	mov	ecx, 51					; 00000033H
	mov	eax, -858993460				; ccccccccH
	rep stosd
	pop	ecx
	mov	DWORD PTR _this$[ebp], ecx
	mov	ecx, DWORD PTR _this$[ebp]
	call	??1CharsetRecog_euc@icu_56@@UAE@XZ	; icu_56::CharsetRecog_euc::~CharsetRecog_euc
	mov	eax, DWORD PTR ___flags$[ebp]
	and	eax, 1
	je	SHORT $LN1@scalar@3
	mov	esi, esp
	mov	eax, DWORD PTR _this$[ebp]
	push	eax
	call	DWORD PTR __imp_??3UMemory@icu_56@@SAXPAX@Z
	add	esp, 4
	cmp	esi, esp
	call	__RTC_CheckEsp
$LN1@scalar@3:
	mov	eax, DWORD PTR _this$[ebp]
	pop	edi
	pop	esi
	pop	ebx
	add	esp, 204				; 000000ccH
	cmp	ebp, esp
	call	__RTC_CheckEsp
	mov	esp, ebp
	pop	ebp
	ret	4
??_GCharsetRecog_euc@icu_56@@UAEPAXI@Z ENDP		; icu_56::CharsetRecog_euc::`scalar deleting destructor'
; Function compile flags: /Odtp /RTCsu /ZI
_TEXT	ENDS
;	COMDAT ?nextChar@CharsetRecog_euc@icu_56@@UBECPAVIteratedChar@2@PAVInputText@2@@Z
_TEXT	SEGMENT
_thirdByte$ = -44					; size = 4
_secondByte$ = -32					; size = 4
_firstByte$ = -20					; size = 4
_this$ = -8						; size = 4
_it$ = 8						; size = 4
_det$ = 12						; size = 4
?nextChar@CharsetRecog_euc@icu_56@@UBECPAVIteratedChar@2@PAVInputText@2@@Z PROC ; icu_56::CharsetRecog_euc::nextChar, COMDAT
; _this$ = ecx
; Line 292
	push	ebp
	mov	ebp, esp
	sub	esp, 240				; 000000f0H
	push	ebx
	push	esi
	push	edi
	push	ecx
	lea	edi, DWORD PTR [ebp-240]
	mov	ecx, 60					; 0000003cH
	mov	eax, -858993460				; ccccccccH
	rep stosd
	pop	ecx
	mov	DWORD PTR _this$[ebp], ecx
; Line 293
	mov	DWORD PTR _firstByte$[ebp], 0
; Line 294
	mov	DWORD PTR _secondByte$[ebp], 0
; Line 295
	mov	DWORD PTR _thirdByte$[ebp], 0
; Line 297
	mov	eax, DWORD PTR _it$[ebp]
	mov	ecx, DWORD PTR _it$[ebp]
	mov	edx, DWORD PTR [ecx+8]
	mov	DWORD PTR [eax+4], edx
; Line 298
	mov	eax, DWORD PTR _it$[ebp]
	mov	BYTE PTR [eax+12], 0
; Line 299
	mov	eax, DWORD PTR _det$[ebp]
	push	eax
	mov	ecx, DWORD PTR _it$[ebp]
	call	?nextByte@IteratedChar@icu_56@@QAEHPAVInputText@2@@Z ; icu_56::IteratedChar::nextByte
	mov	ecx, DWORD PTR _it$[ebp]
	mov	DWORD PTR [ecx], eax
	mov	edx, DWORD PTR _it$[ebp]
	mov	eax, DWORD PTR [edx]
	mov	DWORD PTR _firstByte$[ebp], eax
; Line 301
	cmp	DWORD PTR _firstByte$[ebp], 0
	jge	SHORT $LN9@nextChar@2
; Line 303
	xor	al, al
	jmp	$LN10@nextChar@2
$LN9@nextChar@2:
; Line 306
	cmp	DWORD PTR _firstByte$[ebp], 141		; 0000008dH
	jg	SHORT $LN8@nextChar@2
; Line 308
	mov	al, 1
	jmp	$LN10@nextChar@2
$LN8@nextChar@2:
; Line 311
	mov	eax, DWORD PTR _det$[ebp]
	push	eax
	mov	ecx, DWORD PTR _it$[ebp]
	call	?nextByte@IteratedChar@icu_56@@QAEHPAVInputText@2@@Z ; icu_56::IteratedChar::nextByte
	mov	DWORD PTR _secondByte$[ebp], eax
; Line 312
	cmp	DWORD PTR _secondByte$[ebp], 0
	jl	SHORT $LN7@nextChar@2
; Line 313
	mov	eax, DWORD PTR _it$[ebp]
	mov	ecx, DWORD PTR [eax]
	shl	ecx, 8
	or	ecx, DWORD PTR _secondByte$[ebp]
	mov	edx, DWORD PTR _it$[ebp]
	mov	DWORD PTR [edx], ecx
$LN7@nextChar@2:
; Line 317
	cmp	DWORD PTR _firstByte$[ebp], 161		; 000000a1H
	jl	SHORT $LN6@nextChar@2
	cmp	DWORD PTR _firstByte$[ebp], 254		; 000000feH
	jg	SHORT $LN6@nextChar@2
; Line 319
	cmp	DWORD PTR _secondByte$[ebp], 161	; 000000a1H
	jge	SHORT $LN5@nextChar@2
; Line 320
	mov	eax, DWORD PTR _it$[ebp]
	mov	BYTE PTR [eax+12], 1
$LN5@nextChar@2:
; Line 323
	mov	al, 1
	jmp	SHORT $LN10@nextChar@2
$LN6@nextChar@2:
; Line 326
	cmp	DWORD PTR _firstByte$[ebp], 142		; 0000008eH
	jne	SHORT $LN4@nextChar@2
; Line 333
	cmp	DWORD PTR _secondByte$[ebp], 161	; 000000a1H
	jge	SHORT $LN3@nextChar@2
; Line 334
	mov	eax, DWORD PTR _it$[ebp]
	mov	BYTE PTR [eax+12], 1
$LN3@nextChar@2:
; Line 337
	mov	al, 1
	jmp	SHORT $LN10@nextChar@2
$LN4@nextChar@2:
; Line 340
	cmp	DWORD PTR _firstByte$[ebp], 143		; 0000008fH
	jne	SHORT $LN2@nextChar@2
; Line 343
	mov	eax, DWORD PTR _det$[ebp]
	push	eax
	mov	ecx, DWORD PTR _it$[ebp]
	call	?nextByte@IteratedChar@icu_56@@QAEHPAVInputText@2@@Z ; icu_56::IteratedChar::nextByte
	mov	DWORD PTR _thirdByte$[ebp], eax
; Line 344
	mov	eax, DWORD PTR _it$[ebp]
	mov	ecx, DWORD PTR [eax]
	shl	ecx, 8
	or	ecx, DWORD PTR _thirdByte$[ebp]
	mov	edx, DWORD PTR _it$[ebp]
	mov	DWORD PTR [edx], ecx
; Line 346
	cmp	DWORD PTR _thirdByte$[ebp], 161		; 000000a1H
	jge	SHORT $LN2@nextChar@2
; Line 348
	mov	eax, DWORD PTR _it$[ebp]
	mov	BYTE PTR [eax+12], 1
$LN2@nextChar@2:
; Line 352
	mov	al, 1
$LN10@nextChar@2:
; Line 354
	pop	edi
	pop	esi
	pop	ebx
	add	esp, 240				; 000000f0H
	cmp	ebp, esp
	call	__RTC_CheckEsp
	mov	esp, ebp
	pop	ebp
	ret	8
?nextChar@CharsetRecog_euc@icu_56@@UBECPAVIteratedChar@2@PAVInputText@2@@Z ENDP ; icu_56::CharsetRecog_euc::nextChar
_TEXT	ENDS
PUBLIC	??_7CharsetRecog_euc_jp@icu_56@@6B@		; icu_56::CharsetRecog_euc_jp::`vftable'
PUBLIC	??1CharsetRecog_euc_jp@icu_56@@UAE@XZ		; icu_56::CharsetRecog_euc_jp::~CharsetRecog_euc_jp
PUBLIC	??_R4CharsetRecog_euc_jp@icu_56@@6B@		; icu_56::CharsetRecog_euc_jp::`RTTI Complete Object Locator'
PUBLIC	??_R0?AVCharsetRecog_euc_jp@icu_56@@@8		; icu_56::CharsetRecog_euc_jp `RTTI Type Descriptor'
PUBLIC	??_R3CharsetRecog_euc_jp@icu_56@@8		; icu_56::CharsetRecog_euc_jp::`RTTI Class Hierarchy Descriptor'
PUBLIC	??_R2CharsetRecog_euc_jp@icu_56@@8		; icu_56::CharsetRecog_euc_jp::`RTTI Base Class Array'
PUBLIC	??_R1A@?0A@EA@CharsetRecog_euc_jp@icu_56@@8	; icu_56::CharsetRecog_euc_jp::`RTTI Base Class Descriptor at (0,-1,0,64)'
PUBLIC	?getName@CharsetRecog_euc_jp@icu_56@@UBEPBDXZ	; icu_56::CharsetRecog_euc_jp::getName
PUBLIC	?getLanguage@CharsetRecog_euc_jp@icu_56@@UBEPBDXZ ; icu_56::CharsetRecog_euc_jp::getLanguage
PUBLIC	?match@CharsetRecog_euc_jp@icu_56@@UBECPAVInputText@2@PAVCharsetMatch@2@@Z ; icu_56::CharsetRecog_euc_jp::match
EXTRN	??_ECharsetRecog_euc_jp@icu_56@@UAEPAXI@Z:PROC	; icu_56::CharsetRecog_euc_jp::`vector deleting destructor'
;	COMDAT ??_R1A@?0A@EA@CharsetRecog_euc_jp@icu_56@@8
rdata$r	SEGMENT
??_R1A@?0A@EA@CharsetRecog_euc_jp@icu_56@@8 DD FLAT:??_R0?AVCharsetRecog_euc_jp@icu_56@@@8 ; icu_56::CharsetRecog_euc_jp::`RTTI Base Class Descriptor at (0,-1,0,64)'
	DD	04H
	DD	00H
	DD	0ffffffffH
	DD	00H
	DD	040H
	DD	FLAT:??_R3CharsetRecog_euc_jp@icu_56@@8
rdata$r	ENDS
;	COMDAT ??_R2CharsetRecog_euc_jp@icu_56@@8
rdata$r	SEGMENT
??_R2CharsetRecog_euc_jp@icu_56@@8 DD FLAT:??_R1A@?0A@EA@CharsetRecog_euc_jp@icu_56@@8 ; icu_56::CharsetRecog_euc_jp::`RTTI Base Class Array'
	DD	FLAT:??_R1A@?0A@EA@CharsetRecog_euc@icu_56@@8
	DD	FLAT:??_R1A@?0A@EA@CharsetRecog_mbcs@icu_56@@8
	DD	FLAT:??_R1A@?0A@EA@CharsetRecognizer@icu_56@@8
	DD	FLAT:??_R13?0A@EA@UMemory@icu_56@@8
rdata$r	ENDS
;	COMDAT ??_R3CharsetRecog_euc_jp@icu_56@@8
rdata$r	SEGMENT
??_R3CharsetRecog_euc_jp@icu_56@@8 DD 00H		; icu_56::CharsetRecog_euc_jp::`RTTI Class Hierarchy Descriptor'
	DD	00H
	DD	05H
	DD	FLAT:??_R2CharsetRecog_euc_jp@icu_56@@8
rdata$r	ENDS
;	COMDAT ??_R0?AVCharsetRecog_euc_jp@icu_56@@@8
_DATA	SEGMENT
??_R0?AVCharsetRecog_euc_jp@icu_56@@@8 DD FLAT:??_7type_info@@6B@ ; icu_56::CharsetRecog_euc_jp `RTTI Type Descriptor'
	DD	00H
	DB	'.?AVCharsetRecog_euc_jp@icu_56@@', 00H
_DATA	ENDS
;	COMDAT ??_R4CharsetRecog_euc_jp@icu_56@@6B@
rdata$r	SEGMENT
??_R4CharsetRecog_euc_jp@icu_56@@6B@ DD 00H		; icu_56::CharsetRecog_euc_jp::`RTTI Complete Object Locator'
	DD	00H
	DD	00H
	DD	FLAT:??_R0?AVCharsetRecog_euc_jp@icu_56@@@8
	DD	FLAT:??_R3CharsetRecog_euc_jp@icu_56@@8
rdata$r	ENDS
;	COMDAT ??_7CharsetRecog_euc_jp@icu_56@@6B@
CONST	SEGMENT
??_7CharsetRecog_euc_jp@icu_56@@6B@ DD FLAT:??_R4CharsetRecog_euc_jp@icu_56@@6B@ ; icu_56::CharsetRecog_euc_jp::`vftable'
	DD	FLAT:?getName@CharsetRecog_euc_jp@icu_56@@UBEPBDXZ
	DD	FLAT:?getLanguage@CharsetRecog_euc_jp@icu_56@@UBEPBDXZ
	DD	FLAT:?match@CharsetRecog_euc_jp@icu_56@@UBECPAVInputText@2@PAVCharsetMatch@2@@Z
	DD	FLAT:??_ECharsetRecog_euc_jp@icu_56@@UAEPAXI@Z
	DD	FLAT:?nextChar@CharsetRecog_euc@icu_56@@UBECPAVIteratedChar@2@PAVInputText@2@@Z
; Function compile flags: /Odtp /RTCsu /ZI
CONST	ENDS
;	COMDAT ??1CharsetRecog_euc_jp@icu_56@@UAE@XZ
_TEXT	SEGMENT
_this$ = -8						; size = 4
??1CharsetRecog_euc_jp@icu_56@@UAE@XZ PROC		; icu_56::CharsetRecog_euc_jp::~CharsetRecog_euc_jp, COMDAT
; _this$ = ecx
; Line 357
	push	ebp
	mov	ebp, esp
	sub	esp, 204				; 000000ccH
	push	ebx
	push	esi
	push	edi
	push	ecx
	lea	edi, DWORD PTR [ebp-204]
	mov	ecx, 51					; 00000033H
	mov	eax, -858993460				; ccccccccH
	rep stosd
	pop	ecx
	mov	DWORD PTR _this$[ebp], ecx
	mov	eax, DWORD PTR _this$[ebp]
	mov	DWORD PTR [eax], OFFSET ??_7CharsetRecog_euc_jp@icu_56@@6B@
; Line 359
	mov	ecx, DWORD PTR _this$[ebp]
	call	??1CharsetRecog_euc@icu_56@@UAE@XZ	; icu_56::CharsetRecog_euc::~CharsetRecog_euc
	pop	edi
	pop	esi
	pop	ebx
	add	esp, 204				; 000000ccH
	cmp	ebp, esp
	call	__RTC_CheckEsp
	mov	esp, ebp
	pop	ebp
	ret	0
??1CharsetRecog_euc_jp@icu_56@@UAE@XZ ENDP		; icu_56::CharsetRecog_euc_jp::~CharsetRecog_euc_jp
; Function compile flags: /Odtp /RTCsu /ZI
_TEXT	ENDS
;	COMDAT ??_GCharsetRecog_euc_jp@icu_56@@UAEPAXI@Z
_TEXT	SEGMENT
_this$ = -8						; size = 4
___flags$ = 8						; size = 4
??_GCharsetRecog_euc_jp@icu_56@@UAEPAXI@Z PROC		; icu_56::CharsetRecog_euc_jp::`scalar deleting destructor', COMDAT
; _this$ = ecx
	push	ebp
	mov	ebp, esp
	sub	esp, 204				; 000000ccH
	push	ebx
	push	esi
	push	edi
	push	ecx
	lea	edi, DWORD PTR [ebp-204]
	mov	ecx, 51					; 00000033H
	mov	eax, -858993460				; ccccccccH
	rep stosd
	pop	ecx
	mov	DWORD PTR _this$[ebp], ecx
	mov	ecx, DWORD PTR _this$[ebp]
	call	??1CharsetRecog_euc_jp@icu_56@@UAE@XZ	; icu_56::CharsetRecog_euc_jp::~CharsetRecog_euc_jp
	mov	eax, DWORD PTR ___flags$[ebp]
	and	eax, 1
	je	SHORT $LN1@scalar@4
	mov	esi, esp
	mov	eax, DWORD PTR _this$[ebp]
	push	eax
	call	DWORD PTR __imp_??3UMemory@icu_56@@SAXPAX@Z
	add	esp, 4
	cmp	esi, esp
	call	__RTC_CheckEsp
$LN1@scalar@4:
	mov	eax, DWORD PTR _this$[ebp]
	pop	edi
	pop	esi
	pop	ebx
	add	esp, 204				; 000000ccH
	cmp	ebp, esp
	call	__RTC_CheckEsp
	mov	esp, ebp
	pop	ebp
	ret	4
??_GCharsetRecog_euc_jp@icu_56@@UAEPAXI@Z ENDP		; icu_56::CharsetRecog_euc_jp::`scalar deleting destructor'
_TEXT	ENDS
PUBLIC	??_C@_06KCFOODCD@EUC?9JP?$AA@			; `string'
;	COMDAT ??_C@_06KCFOODCD@EUC?9JP?$AA@
CONST	SEGMENT
??_C@_06KCFOODCD@EUC?9JP?$AA@ DB 'EUC-JP', 00H		; `string'
; Function compile flags: /Odtp /RTCsu /ZI
CONST	ENDS
;	COMDAT ?getName@CharsetRecog_euc_jp@icu_56@@UBEPBDXZ
_TEXT	SEGMENT
_this$ = -8						; size = 4
?getName@CharsetRecog_euc_jp@icu_56@@UBEPBDXZ PROC	; icu_56::CharsetRecog_euc_jp::getName, COMDAT
; _this$ = ecx
; Line 362
	push	ebp
	mov	ebp, esp
	sub	esp, 204				; 000000ccH
	push	ebx
	push	esi
	push	edi
	push	ecx
	lea	edi, DWORD PTR [ebp-204]
	mov	ecx, 51					; 00000033H
	mov	eax, -858993460				; ccccccccH
	rep stosd
	pop	ecx
	mov	DWORD PTR _this$[ebp], ecx
; Line 363
	mov	eax, OFFSET ??_C@_06KCFOODCD@EUC?9JP?$AA@
; Line 364
	pop	edi
	pop	esi
	pop	ebx
	mov	esp, ebp
	pop	ebp
	ret	0
?getName@CharsetRecog_euc_jp@icu_56@@UBEPBDXZ ENDP	; icu_56::CharsetRecog_euc_jp::getName
; Function compile flags: /Odtp /RTCsu /ZI
_TEXT	ENDS
;	COMDAT ?getLanguage@CharsetRecog_euc_jp@icu_56@@UBEPBDXZ
_TEXT	SEGMENT
_this$ = -8						; size = 4
?getLanguage@CharsetRecog_euc_jp@icu_56@@UBEPBDXZ PROC	; icu_56::CharsetRecog_euc_jp::getLanguage, COMDAT
; _this$ = ecx
; Line 367
	push	ebp
	mov	ebp, esp
	sub	esp, 204				; 000000ccH
	push	ebx
	push	esi
	push	edi
	push	ecx
	lea	edi, DWORD PTR [ebp-204]
	mov	ecx, 51					; 00000033H
	mov	eax, -858993460				; ccccccccH
	rep stosd
	pop	ecx
	mov	DWORD PTR _this$[ebp], ecx
; Line 368
	mov	eax, OFFSET ??_C@_02DJBIDCPN@ja?$AA@
; Line 369
	pop	edi
	pop	esi
	pop	ebx
	mov	esp, ebp
	pop	ebp
	ret	0
?getLanguage@CharsetRecog_euc_jp@icu_56@@UBEPBDXZ ENDP	; icu_56::CharsetRecog_euc_jp::getLanguage
; Function compile flags: /Odtp /RTCsu /ZI
_TEXT	ENDS
;	COMDAT ?match@CharsetRecog_euc_jp@icu_56@@UBECPAVInputText@2@PAVCharsetMatch@2@@Z
_TEXT	SEGMENT
_confidence$ = -20					; size = 4
_this$ = -8						; size = 4
_det$ = 8						; size = 4
_results$ = 12						; size = 4
?match@CharsetRecog_euc_jp@icu_56@@UBECPAVInputText@2@PAVCharsetMatch@2@@Z PROC ; icu_56::CharsetRecog_euc_jp::match, COMDAT
; _this$ = ecx
; Line 372
	push	ebp
	mov	ebp, esp
	sub	esp, 216				; 000000d8H
	push	ebx
	push	esi
	push	edi
	push	ecx
	lea	edi, DWORD PTR [ebp-216]
	mov	ecx, 54					; 00000036H
	mov	eax, -858993460				; ccccccccH
	rep stosd
	pop	ecx
	mov	DWORD PTR _this$[ebp], ecx
; Line 373
	push	100					; 00000064H
	push	OFFSET _commonChars_euc_jp
	mov	eax, DWORD PTR _det$[ebp]
	push	eax
	mov	ecx, DWORD PTR _this$[ebp]
	call	?match_mbcs@CharsetRecog_mbcs@icu_56@@IBEHPAVInputText@2@QBGH@Z ; icu_56::CharsetRecog_mbcs::match_mbcs
	mov	DWORD PTR _confidence$[ebp], eax
; Line 374
	push	0
	push	0
	mov	eax, DWORD PTR _confidence$[ebp]
	push	eax
	mov	ecx, DWORD PTR _this$[ebp]
	push	ecx
	mov	edx, DWORD PTR _det$[ebp]
	push	edx
	mov	ecx, DWORD PTR _results$[ebp]
	call	?set@CharsetMatch@icu_56@@QAEXPAVInputText@2@PBVCharsetRecognizer@2@HPBD2@Z ; icu_56::CharsetMatch::set
; Line 375
	cmp	DWORD PTR _confidence$[ebp], 0
	setg	al
; Line 376
	pop	edi
	pop	esi
	pop	ebx
	add	esp, 216				; 000000d8H
	cmp	ebp, esp
	call	__RTC_CheckEsp
	mov	esp, ebp
	pop	ebp
	ret	8
?match@CharsetRecog_euc_jp@icu_56@@UBECPAVInputText@2@PAVCharsetMatch@2@@Z ENDP ; icu_56::CharsetRecog_euc_jp::match
_TEXT	ENDS
PUBLIC	??_7CharsetRecog_euc_kr@icu_56@@6B@		; icu_56::CharsetRecog_euc_kr::`vftable'
PUBLIC	??1CharsetRecog_euc_kr@icu_56@@UAE@XZ		; icu_56::CharsetRecog_euc_kr::~CharsetRecog_euc_kr
PUBLIC	??_R4CharsetRecog_euc_kr@icu_56@@6B@		; icu_56::CharsetRecog_euc_kr::`RTTI Complete Object Locator'
PUBLIC	??_R0?AVCharsetRecog_euc_kr@icu_56@@@8		; icu_56::CharsetRecog_euc_kr `RTTI Type Descriptor'
PUBLIC	??_R3CharsetRecog_euc_kr@icu_56@@8		; icu_56::CharsetRecog_euc_kr::`RTTI Class Hierarchy Descriptor'
PUBLIC	??_R2CharsetRecog_euc_kr@icu_56@@8		; icu_56::CharsetRecog_euc_kr::`RTTI Base Class Array'
PUBLIC	??_R1A@?0A@EA@CharsetRecog_euc_kr@icu_56@@8	; icu_56::CharsetRecog_euc_kr::`RTTI Base Class Descriptor at (0,-1,0,64)'
PUBLIC	?getName@CharsetRecog_euc_kr@icu_56@@UBEPBDXZ	; icu_56::CharsetRecog_euc_kr::getName
PUBLIC	?getLanguage@CharsetRecog_euc_kr@icu_56@@UBEPBDXZ ; icu_56::CharsetRecog_euc_kr::getLanguage
PUBLIC	?match@CharsetRecog_euc_kr@icu_56@@UBECPAVInputText@2@PAVCharsetMatch@2@@Z ; icu_56::CharsetRecog_euc_kr::match
EXTRN	??_ECharsetRecog_euc_kr@icu_56@@UAEPAXI@Z:PROC	; icu_56::CharsetRecog_euc_kr::`vector deleting destructor'
;	COMDAT ??_R1A@?0A@EA@CharsetRecog_euc_kr@icu_56@@8
rdata$r	SEGMENT
??_R1A@?0A@EA@CharsetRecog_euc_kr@icu_56@@8 DD FLAT:??_R0?AVCharsetRecog_euc_kr@icu_56@@@8 ; icu_56::CharsetRecog_euc_kr::`RTTI Base Class Descriptor at (0,-1,0,64)'
	DD	04H
	DD	00H
	DD	0ffffffffH
	DD	00H
	DD	040H
	DD	FLAT:??_R3CharsetRecog_euc_kr@icu_56@@8
rdata$r	ENDS
;	COMDAT ??_R2CharsetRecog_euc_kr@icu_56@@8
rdata$r	SEGMENT
??_R2CharsetRecog_euc_kr@icu_56@@8 DD FLAT:??_R1A@?0A@EA@CharsetRecog_euc_kr@icu_56@@8 ; icu_56::CharsetRecog_euc_kr::`RTTI Base Class Array'
	DD	FLAT:??_R1A@?0A@EA@CharsetRecog_euc@icu_56@@8
	DD	FLAT:??_R1A@?0A@EA@CharsetRecog_mbcs@icu_56@@8
	DD	FLAT:??_R1A@?0A@EA@CharsetRecognizer@icu_56@@8
	DD	FLAT:??_R13?0A@EA@UMemory@icu_56@@8
rdata$r	ENDS
;	COMDAT ??_R3CharsetRecog_euc_kr@icu_56@@8
rdata$r	SEGMENT
??_R3CharsetRecog_euc_kr@icu_56@@8 DD 00H		; icu_56::CharsetRecog_euc_kr::`RTTI Class Hierarchy Descriptor'
	DD	00H
	DD	05H
	DD	FLAT:??_R2CharsetRecog_euc_kr@icu_56@@8
rdata$r	ENDS
;	COMDAT ??_R0?AVCharsetRecog_euc_kr@icu_56@@@8
_DATA	SEGMENT
??_R0?AVCharsetRecog_euc_kr@icu_56@@@8 DD FLAT:??_7type_info@@6B@ ; icu_56::CharsetRecog_euc_kr `RTTI Type Descriptor'
	DD	00H
	DB	'.?AVCharsetRecog_euc_kr@icu_56@@', 00H
_DATA	ENDS
;	COMDAT ??_R4CharsetRecog_euc_kr@icu_56@@6B@
rdata$r	SEGMENT
??_R4CharsetRecog_euc_kr@icu_56@@6B@ DD 00H		; icu_56::CharsetRecog_euc_kr::`RTTI Complete Object Locator'
	DD	00H
	DD	00H
	DD	FLAT:??_R0?AVCharsetRecog_euc_kr@icu_56@@@8
	DD	FLAT:??_R3CharsetRecog_euc_kr@icu_56@@8
rdata$r	ENDS
;	COMDAT ??_7CharsetRecog_euc_kr@icu_56@@6B@
CONST	SEGMENT
??_7CharsetRecog_euc_kr@icu_56@@6B@ DD FLAT:??_R4CharsetRecog_euc_kr@icu_56@@6B@ ; icu_56::CharsetRecog_euc_kr::`vftable'
	DD	FLAT:?getName@CharsetRecog_euc_kr@icu_56@@UBEPBDXZ
	DD	FLAT:?getLanguage@CharsetRecog_euc_kr@icu_56@@UBEPBDXZ
	DD	FLAT:?match@CharsetRecog_euc_kr@icu_56@@UBECPAVInputText@2@PAVCharsetMatch@2@@Z
	DD	FLAT:??_ECharsetRecog_euc_kr@icu_56@@UAEPAXI@Z
	DD	FLAT:?nextChar@CharsetRecog_euc@icu_56@@UBECPAVIteratedChar@2@PAVInputText@2@@Z
; Function compile flags: /Odtp /RTCsu /ZI
CONST	ENDS
;	COMDAT ??1CharsetRecog_euc_kr@icu_56@@UAE@XZ
_TEXT	SEGMENT
_this$ = -8						; size = 4
??1CharsetRecog_euc_kr@icu_56@@UAE@XZ PROC		; icu_56::CharsetRecog_euc_kr::~CharsetRecog_euc_kr, COMDAT
; _this$ = ecx
; Line 379
	push	ebp
	mov	ebp, esp
	sub	esp, 204				; 000000ccH
	push	ebx
	push	esi
	push	edi
	push	ecx
	lea	edi, DWORD PTR [ebp-204]
	mov	ecx, 51					; 00000033H
	mov	eax, -858993460				; ccccccccH
	rep stosd
	pop	ecx
	mov	DWORD PTR _this$[ebp], ecx
	mov	eax, DWORD PTR _this$[ebp]
	mov	DWORD PTR [eax], OFFSET ??_7CharsetRecog_euc_kr@icu_56@@6B@
; Line 381
	mov	ecx, DWORD PTR _this$[ebp]
	call	??1CharsetRecog_euc@icu_56@@UAE@XZ	; icu_56::CharsetRecog_euc::~CharsetRecog_euc
	pop	edi
	pop	esi
	pop	ebx
	add	esp, 204				; 000000ccH
	cmp	ebp, esp
	call	__RTC_CheckEsp
	mov	esp, ebp
	pop	ebp
	ret	0
??1CharsetRecog_euc_kr@icu_56@@UAE@XZ ENDP		; icu_56::CharsetRecog_euc_kr::~CharsetRecog_euc_kr
; Function compile flags: /Odtp /RTCsu /ZI
_TEXT	ENDS
;	COMDAT ??_GCharsetRecog_euc_kr@icu_56@@UAEPAXI@Z
_TEXT	SEGMENT
_this$ = -8						; size = 4
___flags$ = 8						; size = 4
??_GCharsetRecog_euc_kr@icu_56@@UAEPAXI@Z PROC		; icu_56::CharsetRecog_euc_kr::`scalar deleting destructor', COMDAT
; _this$ = ecx
	push	ebp
	mov	ebp, esp
	sub	esp, 204				; 000000ccH
	push	ebx
	push	esi
	push	edi
	push	ecx
	lea	edi, DWORD PTR [ebp-204]
	mov	ecx, 51					; 00000033H
	mov	eax, -858993460				; ccccccccH
	rep stosd
	pop	ecx
	mov	DWORD PTR _this$[ebp], ecx
	mov	ecx, DWORD PTR _this$[ebp]
	call	??1CharsetRecog_euc_kr@icu_56@@UAE@XZ	; icu_56::CharsetRecog_euc_kr::~CharsetRecog_euc_kr
	mov	eax, DWORD PTR ___flags$[ebp]
	and	eax, 1
	je	SHORT $LN1@scalar@5
	mov	esi, esp
	mov	eax, DWORD PTR _this$[ebp]
	push	eax
	call	DWORD PTR __imp_??3UMemory@icu_56@@SAXPAX@Z
	add	esp, 4
	cmp	esi, esp
	call	__RTC_CheckEsp
$LN1@scalar@5:
	mov	eax, DWORD PTR _this$[ebp]
	pop	edi
	pop	esi
	pop	ebx
	add	esp, 204				; 000000ccH
	cmp	ebp, esp
	call	__RTC_CheckEsp
	mov	esp, ebp
	pop	ebp
	ret	4
??_GCharsetRecog_euc_kr@icu_56@@UAEPAXI@Z ENDP		; icu_56::CharsetRecog_euc_kr::`scalar deleting destructor'
_TEXT	ENDS
PUBLIC	??_C@_06JBKKOLJG@EUC?9KR?$AA@			; `string'
;	COMDAT ??_C@_06JBKKOLJG@EUC?9KR?$AA@
CONST	SEGMENT
??_C@_06JBKKOLJG@EUC?9KR?$AA@ DB 'EUC-KR', 00H		; `string'
; Function compile flags: /Odtp /RTCsu /ZI
CONST	ENDS
;	COMDAT ?getName@CharsetRecog_euc_kr@icu_56@@UBEPBDXZ
_TEXT	SEGMENT
_this$ = -8						; size = 4
?getName@CharsetRecog_euc_kr@icu_56@@UBEPBDXZ PROC	; icu_56::CharsetRecog_euc_kr::getName, COMDAT
; _this$ = ecx
; Line 384
	push	ebp
	mov	ebp, esp
	sub	esp, 204				; 000000ccH
	push	ebx
	push	esi
	push	edi
	push	ecx
	lea	edi, DWORD PTR [ebp-204]
	mov	ecx, 51					; 00000033H
	mov	eax, -858993460				; ccccccccH
	rep stosd
	pop	ecx
	mov	DWORD PTR _this$[ebp], ecx
; Line 385
	mov	eax, OFFSET ??_C@_06JBKKOLJG@EUC?9KR?$AA@
; Line 386
	pop	edi
	pop	esi
	pop	ebx
	mov	esp, ebp
	pop	ebp
	ret	0
?getName@CharsetRecog_euc_kr@icu_56@@UBEPBDXZ ENDP	; icu_56::CharsetRecog_euc_kr::getName
_TEXT	ENDS
PUBLIC	??_C@_02KGFJHFEE@ko?$AA@			; `string'
;	COMDAT ??_C@_02KGFJHFEE@ko?$AA@
CONST	SEGMENT
??_C@_02KGFJHFEE@ko?$AA@ DB 'ko', 00H			; `string'
; Function compile flags: /Odtp /RTCsu /ZI
CONST	ENDS
;	COMDAT ?getLanguage@CharsetRecog_euc_kr@icu_56@@UBEPBDXZ
_TEXT	SEGMENT
_this$ = -8						; size = 4
?getLanguage@CharsetRecog_euc_kr@icu_56@@UBEPBDXZ PROC	; icu_56::CharsetRecog_euc_kr::getLanguage, COMDAT
; _this$ = ecx
; Line 389
	push	ebp
	mov	ebp, esp
	sub	esp, 204				; 000000ccH
	push	ebx
	push	esi
	push	edi
	push	ecx
	lea	edi, DWORD PTR [ebp-204]
	mov	ecx, 51					; 00000033H
	mov	eax, -858993460				; ccccccccH
	rep stosd
	pop	ecx
	mov	DWORD PTR _this$[ebp], ecx
; Line 390
	mov	eax, OFFSET ??_C@_02KGFJHFEE@ko?$AA@
; Line 391
	pop	edi
	pop	esi
	pop	ebx
	mov	esp, ebp
	pop	ebp
	ret	0
?getLanguage@CharsetRecog_euc_kr@icu_56@@UBEPBDXZ ENDP	; icu_56::CharsetRecog_euc_kr::getLanguage
; Function compile flags: /Odtp /RTCsu /ZI
_TEXT	ENDS
;	COMDAT ?match@CharsetRecog_euc_kr@icu_56@@UBECPAVInputText@2@PAVCharsetMatch@2@@Z
_TEXT	SEGMENT
_confidence$ = -20					; size = 4
_this$ = -8						; size = 4
_det$ = 8						; size = 4
_results$ = 12						; size = 4
?match@CharsetRecog_euc_kr@icu_56@@UBECPAVInputText@2@PAVCharsetMatch@2@@Z PROC ; icu_56::CharsetRecog_euc_kr::match, COMDAT
; _this$ = ecx
; Line 394
	push	ebp
	mov	ebp, esp
	sub	esp, 216				; 000000d8H
	push	ebx
	push	esi
	push	edi
	push	ecx
	lea	edi, DWORD PTR [ebp-216]
	mov	ecx, 54					; 00000036H
	mov	eax, -858993460				; ccccccccH
	rep stosd
	pop	ecx
	mov	DWORD PTR _this$[ebp], ecx
; Line 395
	push	100					; 00000064H
	push	OFFSET _commonChars_euc_kr
	mov	eax, DWORD PTR _det$[ebp]
	push	eax
	mov	ecx, DWORD PTR _this$[ebp]
	call	?match_mbcs@CharsetRecog_mbcs@icu_56@@IBEHPAVInputText@2@QBGH@Z ; icu_56::CharsetRecog_mbcs::match_mbcs
	mov	DWORD PTR _confidence$[ebp], eax
; Line 396
	push	0
	push	0
	mov	eax, DWORD PTR _confidence$[ebp]
	push	eax
	mov	ecx, DWORD PTR _this$[ebp]
	push	ecx
	mov	edx, DWORD PTR _det$[ebp]
	push	edx
	mov	ecx, DWORD PTR _results$[ebp]
	call	?set@CharsetMatch@icu_56@@QAEXPAVInputText@2@PBVCharsetRecognizer@2@HPBD2@Z ; icu_56::CharsetMatch::set
; Line 397
	cmp	DWORD PTR _confidence$[ebp], 0
	setg	al
; Line 398
	pop	edi
	pop	esi
	pop	ebx
	add	esp, 216				; 000000d8H
	cmp	ebp, esp
	call	__RTC_CheckEsp
	mov	esp, ebp
	pop	ebp
	ret	8
?match@CharsetRecog_euc_kr@icu_56@@UBECPAVInputText@2@PAVCharsetMatch@2@@Z ENDP ; icu_56::CharsetRecog_euc_kr::match
_TEXT	ENDS
PUBLIC	??_7CharsetRecog_big5@icu_56@@6B@		; icu_56::CharsetRecog_big5::`vftable'
PUBLIC	??1CharsetRecog_big5@icu_56@@UAE@XZ		; icu_56::CharsetRecog_big5::~CharsetRecog_big5
PUBLIC	??_R4CharsetRecog_big5@icu_56@@6B@		; icu_56::CharsetRecog_big5::`RTTI Complete Object Locator'
PUBLIC	??_R0?AVCharsetRecog_big5@icu_56@@@8		; icu_56::CharsetRecog_big5 `RTTI Type Descriptor'
PUBLIC	??_R3CharsetRecog_big5@icu_56@@8		; icu_56::CharsetRecog_big5::`RTTI Class Hierarchy Descriptor'
PUBLIC	??_R2CharsetRecog_big5@icu_56@@8		; icu_56::CharsetRecog_big5::`RTTI Base Class Array'
PUBLIC	??_R1A@?0A@EA@CharsetRecog_big5@icu_56@@8	; icu_56::CharsetRecog_big5::`RTTI Base Class Descriptor at (0,-1,0,64)'
PUBLIC	?getName@CharsetRecog_big5@icu_56@@UBEPBDXZ	; icu_56::CharsetRecog_big5::getName
PUBLIC	?getLanguage@CharsetRecog_big5@icu_56@@UBEPBDXZ	; icu_56::CharsetRecog_big5::getLanguage
PUBLIC	?match@CharsetRecog_big5@icu_56@@UBECPAVInputText@2@PAVCharsetMatch@2@@Z ; icu_56::CharsetRecog_big5::match
PUBLIC	?nextChar@CharsetRecog_big5@icu_56@@UBECPAVIteratedChar@2@PAVInputText@2@@Z ; icu_56::CharsetRecog_big5::nextChar
EXTRN	??_ECharsetRecog_big5@icu_56@@UAEPAXI@Z:PROC	; icu_56::CharsetRecog_big5::`vector deleting destructor'
;	COMDAT ??_R1A@?0A@EA@CharsetRecog_big5@icu_56@@8
rdata$r	SEGMENT
??_R1A@?0A@EA@CharsetRecog_big5@icu_56@@8 DD FLAT:??_R0?AVCharsetRecog_big5@icu_56@@@8 ; icu_56::CharsetRecog_big5::`RTTI Base Class Descriptor at (0,-1,0,64)'
	DD	03H
	DD	00H
	DD	0ffffffffH
	DD	00H
	DD	040H
	DD	FLAT:??_R3CharsetRecog_big5@icu_56@@8
rdata$r	ENDS
;	COMDAT ??_R2CharsetRecog_big5@icu_56@@8
rdata$r	SEGMENT
??_R2CharsetRecog_big5@icu_56@@8 DD FLAT:??_R1A@?0A@EA@CharsetRecog_big5@icu_56@@8 ; icu_56::CharsetRecog_big5::`RTTI Base Class Array'
	DD	FLAT:??_R1A@?0A@EA@CharsetRecog_mbcs@icu_56@@8
	DD	FLAT:??_R1A@?0A@EA@CharsetRecognizer@icu_56@@8
	DD	FLAT:??_R13?0A@EA@UMemory@icu_56@@8
rdata$r	ENDS
;	COMDAT ??_R3CharsetRecog_big5@icu_56@@8
rdata$r	SEGMENT
??_R3CharsetRecog_big5@icu_56@@8 DD 00H			; icu_56::CharsetRecog_big5::`RTTI Class Hierarchy Descriptor'
	DD	00H
	DD	04H
	DD	FLAT:??_R2CharsetRecog_big5@icu_56@@8
rdata$r	ENDS
;	COMDAT ??_R0?AVCharsetRecog_big5@icu_56@@@8
_DATA	SEGMENT
??_R0?AVCharsetRecog_big5@icu_56@@@8 DD FLAT:??_7type_info@@6B@ ; icu_56::CharsetRecog_big5 `RTTI Type Descriptor'
	DD	00H
	DB	'.?AVCharsetRecog_big5@icu_56@@', 00H
_DATA	ENDS
;	COMDAT ??_R4CharsetRecog_big5@icu_56@@6B@
rdata$r	SEGMENT
??_R4CharsetRecog_big5@icu_56@@6B@ DD 00H		; icu_56::CharsetRecog_big5::`RTTI Complete Object Locator'
	DD	00H
	DD	00H
	DD	FLAT:??_R0?AVCharsetRecog_big5@icu_56@@@8
	DD	FLAT:??_R3CharsetRecog_big5@icu_56@@8
rdata$r	ENDS
;	COMDAT ??_7CharsetRecog_big5@icu_56@@6B@
CONST	SEGMENT
??_7CharsetRecog_big5@icu_56@@6B@ DD FLAT:??_R4CharsetRecog_big5@icu_56@@6B@ ; icu_56::CharsetRecog_big5::`vftable'
	DD	FLAT:?getName@CharsetRecog_big5@icu_56@@UBEPBDXZ
	DD	FLAT:?getLanguage@CharsetRecog_big5@icu_56@@UBEPBDXZ
	DD	FLAT:?match@CharsetRecog_big5@icu_56@@UBECPAVInputText@2@PAVCharsetMatch@2@@Z
	DD	FLAT:??_ECharsetRecog_big5@icu_56@@UAEPAXI@Z
	DD	FLAT:?nextChar@CharsetRecog_big5@icu_56@@UBECPAVIteratedChar@2@PAVInputText@2@@Z
; Function compile flags: /Odtp /RTCsu /ZI
CONST	ENDS
;	COMDAT ??1CharsetRecog_big5@icu_56@@UAE@XZ
_TEXT	SEGMENT
_this$ = -8						; size = 4
??1CharsetRecog_big5@icu_56@@UAE@XZ PROC		; icu_56::CharsetRecog_big5::~CharsetRecog_big5, COMDAT
; _this$ = ecx
; Line 401
	push	ebp
	mov	ebp, esp
	sub	esp, 204				; 000000ccH
	push	ebx
	push	esi
	push	edi
	push	ecx
	lea	edi, DWORD PTR [ebp-204]
	mov	ecx, 51					; 00000033H
	mov	eax, -858993460				; ccccccccH
	rep stosd
	pop	ecx
	mov	DWORD PTR _this$[ebp], ecx
	mov	eax, DWORD PTR _this$[ebp]
	mov	DWORD PTR [eax], OFFSET ??_7CharsetRecog_big5@icu_56@@6B@
; Line 403
	mov	ecx, DWORD PTR _this$[ebp]
	call	??1CharsetRecog_mbcs@icu_56@@UAE@XZ	; icu_56::CharsetRecog_mbcs::~CharsetRecog_mbcs
	pop	edi
	pop	esi
	pop	ebx
	add	esp, 204				; 000000ccH
	cmp	ebp, esp
	call	__RTC_CheckEsp
	mov	esp, ebp
	pop	ebp
	ret	0
??1CharsetRecog_big5@icu_56@@UAE@XZ ENDP		; icu_56::CharsetRecog_big5::~CharsetRecog_big5
; Function compile flags: /Odtp /RTCsu /ZI
_TEXT	ENDS
;	COMDAT ??_GCharsetRecog_big5@icu_56@@UAEPAXI@Z
_TEXT	SEGMENT
_this$ = -8						; size = 4
___flags$ = 8						; size = 4
??_GCharsetRecog_big5@icu_56@@UAEPAXI@Z PROC		; icu_56::CharsetRecog_big5::`scalar deleting destructor', COMDAT
; _this$ = ecx
	push	ebp
	mov	ebp, esp
	sub	esp, 204				; 000000ccH
	push	ebx
	push	esi
	push	edi
	push	ecx
	lea	edi, DWORD PTR [ebp-204]
	mov	ecx, 51					; 00000033H
	mov	eax, -858993460				; ccccccccH
	rep stosd
	pop	ecx
	mov	DWORD PTR _this$[ebp], ecx
	mov	ecx, DWORD PTR _this$[ebp]
	call	??1CharsetRecog_big5@icu_56@@UAE@XZ	; icu_56::CharsetRecog_big5::~CharsetRecog_big5
	mov	eax, DWORD PTR ___flags$[ebp]
	and	eax, 1
	je	SHORT $LN1@scalar@6
	mov	esi, esp
	mov	eax, DWORD PTR _this$[ebp]
	push	eax
	call	DWORD PTR __imp_??3UMemory@icu_56@@SAXPAX@Z
	add	esp, 4
	cmp	esi, esp
	call	__RTC_CheckEsp
$LN1@scalar@6:
	mov	eax, DWORD PTR _this$[ebp]
	pop	edi
	pop	esi
	pop	ebx
	add	esp, 204				; 000000ccH
	cmp	ebp, esp
	call	__RTC_CheckEsp
	mov	esp, ebp
	pop	ebp
	ret	4
??_GCharsetRecog_big5@icu_56@@UAEPAXI@Z ENDP		; icu_56::CharsetRecog_big5::`scalar deleting destructor'
; Function compile flags: /Odtp /RTCsu /ZI
_TEXT	ENDS
;	COMDAT ?nextChar@CharsetRecog_big5@icu_56@@UBECPAVIteratedChar@2@PAVInputText@2@@Z
_TEXT	SEGMENT
_secondByte$ = -32					; size = 4
_firstByte$ = -20					; size = 4
_this$ = -8						; size = 4
_it$ = 8						; size = 4
_det$ = 12						; size = 4
?nextChar@CharsetRecog_big5@icu_56@@UBECPAVIteratedChar@2@PAVInputText@2@@Z PROC ; icu_56::CharsetRecog_big5::nextChar, COMDAT
; _this$ = ecx
; Line 406
	push	ebp
	mov	ebp, esp
	sub	esp, 228				; 000000e4H
	push	ebx
	push	esi
	push	edi
	push	ecx
	lea	edi, DWORD PTR [ebp-228]
	mov	ecx, 57					; 00000039H
	mov	eax, -858993460				; ccccccccH
	rep stosd
	pop	ecx
	mov	DWORD PTR _this$[ebp], ecx
; Line 409
	mov	eax, DWORD PTR _it$[ebp]
	mov	ecx, DWORD PTR _it$[ebp]
	mov	edx, DWORD PTR [ecx+8]
	mov	DWORD PTR [eax+4], edx
; Line 410
	mov	eax, DWORD PTR _it$[ebp]
	mov	BYTE PTR [eax+12], 0
; Line 411
	mov	eax, DWORD PTR _det$[ebp]
	push	eax
	mov	ecx, DWORD PTR _it$[ebp]
	call	?nextByte@IteratedChar@icu_56@@QAEHPAVInputText@2@@Z ; icu_56::IteratedChar::nextByte
	mov	ecx, DWORD PTR _it$[ebp]
	mov	DWORD PTR [ecx], eax
	mov	edx, DWORD PTR _it$[ebp]
	mov	eax, DWORD PTR [edx]
	mov	DWORD PTR _firstByte$[ebp], eax
; Line 413
	cmp	DWORD PTR _firstByte$[ebp], 0
	jge	SHORT $LN6@nextChar@3
; Line 414
	xor	al, al
	jmp	SHORT $LN7@nextChar@3
$LN6@nextChar@3:
; Line 417
	cmp	DWORD PTR _firstByte$[ebp], 127		; 0000007fH
	jle	SHORT $LN4@nextChar@3
	cmp	DWORD PTR _firstByte$[ebp], 255		; 000000ffH
	jne	SHORT $LN5@nextChar@3
$LN4@nextChar@3:
; Line 419
	mov	al, 1
	jmp	SHORT $LN7@nextChar@3
$LN5@nextChar@3:
; Line 422
	mov	eax, DWORD PTR _det$[ebp]
	push	eax
	mov	ecx, DWORD PTR _it$[ebp]
	call	?nextByte@IteratedChar@icu_56@@QAEHPAVInputText@2@@Z ; icu_56::IteratedChar::nextByte
	mov	DWORD PTR _secondByte$[ebp], eax
; Line 423
	cmp	DWORD PTR _secondByte$[ebp], 0
	jl	SHORT $LN3@nextChar@3
; Line 424
	mov	eax, DWORD PTR _it$[ebp]
	mov	ecx, DWORD PTR [eax]
	shl	ecx, 8
	or	ecx, DWORD PTR _secondByte$[ebp]
	mov	edx, DWORD PTR _it$[ebp]
	mov	DWORD PTR [edx], ecx
$LN3@nextChar@3:
; Line 428
	cmp	DWORD PTR _secondByte$[ebp], 64		; 00000040H
	jl	SHORT $LN1@nextChar@3
	cmp	DWORD PTR _secondByte$[ebp], 127	; 0000007fH
	je	SHORT $LN1@nextChar@3
	cmp	DWORD PTR _secondByte$[ebp], 255	; 000000ffH
	jne	SHORT $LN2@nextChar@3
$LN1@nextChar@3:
; Line 429
	mov	eax, DWORD PTR _it$[ebp]
	mov	BYTE PTR [eax+12], 1
$LN2@nextChar@3:
; Line 432
	mov	al, 1
$LN7@nextChar@3:
; Line 433
	pop	edi
	pop	esi
	pop	ebx
	add	esp, 228				; 000000e4H
	cmp	ebp, esp
	call	__RTC_CheckEsp
	mov	esp, ebp
	pop	ebp
	ret	8
?nextChar@CharsetRecog_big5@icu_56@@UBECPAVIteratedChar@2@PAVInputText@2@@Z ENDP ; icu_56::CharsetRecog_big5::nextChar
_TEXT	ENDS
PUBLIC	??_C@_04LCGJKEFB@Big5?$AA@			; `string'
;	COMDAT ??_C@_04LCGJKEFB@Big5?$AA@
CONST	SEGMENT
??_C@_04LCGJKEFB@Big5?$AA@ DB 'Big5', 00H		; `string'
; Function compile flags: /Odtp /RTCsu /ZI
CONST	ENDS
;	COMDAT ?getName@CharsetRecog_big5@icu_56@@UBEPBDXZ
_TEXT	SEGMENT
_this$ = -8						; size = 4
?getName@CharsetRecog_big5@icu_56@@UBEPBDXZ PROC	; icu_56::CharsetRecog_big5::getName, COMDAT
; _this$ = ecx
; Line 436
	push	ebp
	mov	ebp, esp
	sub	esp, 204				; 000000ccH
	push	ebx
	push	esi
	push	edi
	push	ecx
	lea	edi, DWORD PTR [ebp-204]
	mov	ecx, 51					; 00000033H
	mov	eax, -858993460				; ccccccccH
	rep stosd
	pop	ecx
	mov	DWORD PTR _this$[ebp], ecx
; Line 437
	mov	eax, OFFSET ??_C@_04LCGJKEFB@Big5?$AA@
; Line 438
	pop	edi
	pop	esi
	pop	ebx
	mov	esp, ebp
	pop	ebp
	ret	0
?getName@CharsetRecog_big5@icu_56@@UBEPBDXZ ENDP	; icu_56::CharsetRecog_big5::getName
_TEXT	ENDS
PUBLIC	??_C@_02PEPMCKME@zh?$AA@			; `string'
;	COMDAT ??_C@_02PEPMCKME@zh?$AA@
CONST	SEGMENT
??_C@_02PEPMCKME@zh?$AA@ DB 'zh', 00H			; `string'
; Function compile flags: /Odtp /RTCsu /ZI
CONST	ENDS
;	COMDAT ?getLanguage@CharsetRecog_big5@icu_56@@UBEPBDXZ
_TEXT	SEGMENT
_this$ = -8						; size = 4
?getLanguage@CharsetRecog_big5@icu_56@@UBEPBDXZ PROC	; icu_56::CharsetRecog_big5::getLanguage, COMDAT
; _this$ = ecx
; Line 441
	push	ebp
	mov	ebp, esp
	sub	esp, 204				; 000000ccH
	push	ebx
	push	esi
	push	edi
	push	ecx
	lea	edi, DWORD PTR [ebp-204]
	mov	ecx, 51					; 00000033H
	mov	eax, -858993460				; ccccccccH
	rep stosd
	pop	ecx
	mov	DWORD PTR _this$[ebp], ecx
; Line 442
	mov	eax, OFFSET ??_C@_02PEPMCKME@zh?$AA@
; Line 443
	pop	edi
	pop	esi
	pop	ebx
	mov	esp, ebp
	pop	ebp
	ret	0
?getLanguage@CharsetRecog_big5@icu_56@@UBEPBDXZ ENDP	; icu_56::CharsetRecog_big5::getLanguage
; Function compile flags: /Odtp /RTCsu /ZI
_TEXT	ENDS
;	COMDAT ?match@CharsetRecog_big5@icu_56@@UBECPAVInputText@2@PAVCharsetMatch@2@@Z
_TEXT	SEGMENT
_confidence$ = -20					; size = 4
_this$ = -8						; size = 4
_det$ = 8						; size = 4
_results$ = 12						; size = 4
?match@CharsetRecog_big5@icu_56@@UBECPAVInputText@2@PAVCharsetMatch@2@@Z PROC ; icu_56::CharsetRecog_big5::match, COMDAT
; _this$ = ecx
; Line 446
	push	ebp
	mov	ebp, esp
	sub	esp, 216				; 000000d8H
	push	ebx
	push	esi
	push	edi
	push	ecx
	lea	edi, DWORD PTR [ebp-216]
	mov	ecx, 54					; 00000036H
	mov	eax, -858993460				; ccccccccH
	rep stosd
	pop	ecx
	mov	DWORD PTR _this$[ebp], ecx
; Line 447
	push	96					; 00000060H
	push	OFFSET _commonChars_big5
	mov	eax, DWORD PTR _det$[ebp]
	push	eax
	mov	ecx, DWORD PTR _this$[ebp]
	call	?match_mbcs@CharsetRecog_mbcs@icu_56@@IBEHPAVInputText@2@QBGH@Z ; icu_56::CharsetRecog_mbcs::match_mbcs
	mov	DWORD PTR _confidence$[ebp], eax
; Line 448
	push	0
	push	0
	mov	eax, DWORD PTR _confidence$[ebp]
	push	eax
	mov	ecx, DWORD PTR _this$[ebp]
	push	ecx
	mov	edx, DWORD PTR _det$[ebp]
	push	edx
	mov	ecx, DWORD PTR _results$[ebp]
	call	?set@CharsetMatch@icu_56@@QAEXPAVInputText@2@PBVCharsetRecognizer@2@HPBD2@Z ; icu_56::CharsetMatch::set
; Line 449
	cmp	DWORD PTR _confidence$[ebp], 0
	setg	al
; Line 450
	pop	edi
	pop	esi
	pop	ebx
	add	esp, 216				; 000000d8H
	cmp	ebp, esp
	call	__RTC_CheckEsp
	mov	esp, ebp
	pop	ebp
	ret	8
?match@CharsetRecog_big5@icu_56@@UBECPAVInputText@2@PAVCharsetMatch@2@@Z ENDP ; icu_56::CharsetRecog_big5::match
_TEXT	ENDS
PUBLIC	??_7CharsetRecog_gb_18030@icu_56@@6B@		; icu_56::CharsetRecog_gb_18030::`vftable'
PUBLIC	??1CharsetRecog_gb_18030@icu_56@@UAE@XZ		; icu_56::CharsetRecog_gb_18030::~CharsetRecog_gb_18030
PUBLIC	??_R4CharsetRecog_gb_18030@icu_56@@6B@		; icu_56::CharsetRecog_gb_18030::`RTTI Complete Object Locator'
PUBLIC	??_R0?AVCharsetRecog_gb_18030@icu_56@@@8	; icu_56::CharsetRecog_gb_18030 `RTTI Type Descriptor'
PUBLIC	??_R3CharsetRecog_gb_18030@icu_56@@8		; icu_56::CharsetRecog_gb_18030::`RTTI Class Hierarchy Descriptor'
PUBLIC	??_R2CharsetRecog_gb_18030@icu_56@@8		; icu_56::CharsetRecog_gb_18030::`RTTI Base Class Array'
PUBLIC	??_R1A@?0A@EA@CharsetRecog_gb_18030@icu_56@@8	; icu_56::CharsetRecog_gb_18030::`RTTI Base Class Descriptor at (0,-1,0,64)'
PUBLIC	?getName@CharsetRecog_gb_18030@icu_56@@UBEPBDXZ	; icu_56::CharsetRecog_gb_18030::getName
PUBLIC	?getLanguage@CharsetRecog_gb_18030@icu_56@@UBEPBDXZ ; icu_56::CharsetRecog_gb_18030::getLanguage
PUBLIC	?match@CharsetRecog_gb_18030@icu_56@@UBECPAVInputText@2@PAVCharsetMatch@2@@Z ; icu_56::CharsetRecog_gb_18030::match
PUBLIC	?nextChar@CharsetRecog_gb_18030@icu_56@@UBECPAVIteratedChar@2@PAVInputText@2@@Z ; icu_56::CharsetRecog_gb_18030::nextChar
EXTRN	??_ECharsetRecog_gb_18030@icu_56@@UAEPAXI@Z:PROC ; icu_56::CharsetRecog_gb_18030::`vector deleting destructor'
;	COMDAT ??_R1A@?0A@EA@CharsetRecog_gb_18030@icu_56@@8
rdata$r	SEGMENT
??_R1A@?0A@EA@CharsetRecog_gb_18030@icu_56@@8 DD FLAT:??_R0?AVCharsetRecog_gb_18030@icu_56@@@8 ; icu_56::CharsetRecog_gb_18030::`RTTI Base Class Descriptor at (0,-1,0,64)'
	DD	03H
	DD	00H
	DD	0ffffffffH
	DD	00H
	DD	040H
	DD	FLAT:??_R3CharsetRecog_gb_18030@icu_56@@8
rdata$r	ENDS
;	COMDAT ??_R2CharsetRecog_gb_18030@icu_56@@8
rdata$r	SEGMENT
??_R2CharsetRecog_gb_18030@icu_56@@8 DD FLAT:??_R1A@?0A@EA@CharsetRecog_gb_18030@icu_56@@8 ; icu_56::CharsetRecog_gb_18030::`RTTI Base Class Array'
	DD	FLAT:??_R1A@?0A@EA@CharsetRecog_mbcs@icu_56@@8
	DD	FLAT:??_R1A@?0A@EA@CharsetRecognizer@icu_56@@8
	DD	FLAT:??_R13?0A@EA@UMemory@icu_56@@8
rdata$r	ENDS
;	COMDAT ??_R3CharsetRecog_gb_18030@icu_56@@8
rdata$r	SEGMENT
??_R3CharsetRecog_gb_18030@icu_56@@8 DD 00H		; icu_56::CharsetRecog_gb_18030::`RTTI Class Hierarchy Descriptor'
	DD	00H
	DD	04H
	DD	FLAT:??_R2CharsetRecog_gb_18030@icu_56@@8
rdata$r	ENDS
;	COMDAT ??_R0?AVCharsetRecog_gb_18030@icu_56@@@8
_DATA	SEGMENT
??_R0?AVCharsetRecog_gb_18030@icu_56@@@8 DD FLAT:??_7type_info@@6B@ ; icu_56::CharsetRecog_gb_18030 `RTTI Type Descriptor'
	DD	00H
	DB	'.?AVCharsetRecog_gb_18030@icu_56@@', 00H
_DATA	ENDS
;	COMDAT ??_R4CharsetRecog_gb_18030@icu_56@@6B@
rdata$r	SEGMENT
??_R4CharsetRecog_gb_18030@icu_56@@6B@ DD 00H		; icu_56::CharsetRecog_gb_18030::`RTTI Complete Object Locator'
	DD	00H
	DD	00H
	DD	FLAT:??_R0?AVCharsetRecog_gb_18030@icu_56@@@8
	DD	FLAT:??_R3CharsetRecog_gb_18030@icu_56@@8
rdata$r	ENDS
;	COMDAT ??_7CharsetRecog_gb_18030@icu_56@@6B@
CONST	SEGMENT
??_7CharsetRecog_gb_18030@icu_56@@6B@ DD FLAT:??_R4CharsetRecog_gb_18030@icu_56@@6B@ ; icu_56::CharsetRecog_gb_18030::`vftable'
	DD	FLAT:?getName@CharsetRecog_gb_18030@icu_56@@UBEPBDXZ
	DD	FLAT:?getLanguage@CharsetRecog_gb_18030@icu_56@@UBEPBDXZ
	DD	FLAT:?match@CharsetRecog_gb_18030@icu_56@@UBECPAVInputText@2@PAVCharsetMatch@2@@Z
	DD	FLAT:??_ECharsetRecog_gb_18030@icu_56@@UAEPAXI@Z
	DD	FLAT:?nextChar@CharsetRecog_gb_18030@icu_56@@UBECPAVIteratedChar@2@PAVInputText@2@@Z
; Function compile flags: /Odtp /RTCsu /ZI
CONST	ENDS
;	COMDAT ??1CharsetRecog_gb_18030@icu_56@@UAE@XZ
_TEXT	SEGMENT
_this$ = -8						; size = 4
??1CharsetRecog_gb_18030@icu_56@@UAE@XZ PROC		; icu_56::CharsetRecog_gb_18030::~CharsetRecog_gb_18030, COMDAT
; _this$ = ecx
; Line 453
	push	ebp
	mov	ebp, esp
	sub	esp, 204				; 000000ccH
	push	ebx
	push	esi
	push	edi
	push	ecx
	lea	edi, DWORD PTR [ebp-204]
	mov	ecx, 51					; 00000033H
	mov	eax, -858993460				; ccccccccH
	rep stosd
	pop	ecx
	mov	DWORD PTR _this$[ebp], ecx
	mov	eax, DWORD PTR _this$[ebp]
	mov	DWORD PTR [eax], OFFSET ??_7CharsetRecog_gb_18030@icu_56@@6B@
; Line 455
	mov	ecx, DWORD PTR _this$[ebp]
	call	??1CharsetRecog_mbcs@icu_56@@UAE@XZ	; icu_56::CharsetRecog_mbcs::~CharsetRecog_mbcs
	pop	edi
	pop	esi
	pop	ebx
	add	esp, 204				; 000000ccH
	cmp	ebp, esp
	call	__RTC_CheckEsp
	mov	esp, ebp
	pop	ebp
	ret	0
??1CharsetRecog_gb_18030@icu_56@@UAE@XZ ENDP		; icu_56::CharsetRecog_gb_18030::~CharsetRecog_gb_18030
; Function compile flags: /Odtp /RTCsu /ZI
_TEXT	ENDS
;	COMDAT ??_GCharsetRecog_gb_18030@icu_56@@UAEPAXI@Z
_TEXT	SEGMENT
_this$ = -8						; size = 4
___flags$ = 8						; size = 4
??_GCharsetRecog_gb_18030@icu_56@@UAEPAXI@Z PROC	; icu_56::CharsetRecog_gb_18030::`scalar deleting destructor', COMDAT
; _this$ = ecx
	push	ebp
	mov	ebp, esp
	sub	esp, 204				; 000000ccH
	push	ebx
	push	esi
	push	edi
	push	ecx
	lea	edi, DWORD PTR [ebp-204]
	mov	ecx, 51					; 00000033H
	mov	eax, -858993460				; ccccccccH
	rep stosd
	pop	ecx
	mov	DWORD PTR _this$[ebp], ecx
	mov	ecx, DWORD PTR _this$[ebp]
	call	??1CharsetRecog_gb_18030@icu_56@@UAE@XZ	; icu_56::CharsetRecog_gb_18030::~CharsetRecog_gb_18030
	mov	eax, DWORD PTR ___flags$[ebp]
	and	eax, 1
	je	SHORT $LN1@scalar@7
	mov	esi, esp
	mov	eax, DWORD PTR _this$[ebp]
	push	eax
	call	DWORD PTR __imp_??3UMemory@icu_56@@SAXPAX@Z
	add	esp, 4
	cmp	esi, esp
	call	__RTC_CheckEsp
$LN1@scalar@7:
	mov	eax, DWORD PTR _this$[ebp]
	pop	edi
	pop	esi
	pop	ebx
	add	esp, 204				; 000000ccH
	cmp	ebp, esp
	call	__RTC_CheckEsp
	mov	esp, ebp
	pop	ebp
	ret	4
??_GCharsetRecog_gb_18030@icu_56@@UAEPAXI@Z ENDP	; icu_56::CharsetRecog_gb_18030::`scalar deleting destructor'
; Function compile flags: /Odtp /RTCsu /ZI
_TEXT	ENDS
;	COMDAT ?nextChar@CharsetRecog_gb_18030@icu_56@@UBECPAVIteratedChar@2@PAVInputText@2@@Z
_TEXT	SEGMENT
_fourthByte$ = -56					; size = 4
_thirdByte$ = -44					; size = 4
_secondByte$ = -32					; size = 4
_firstByte$ = -20					; size = 4
_this$ = -8						; size = 4
_it$ = 8						; size = 4
_det$ = 12						; size = 4
?nextChar@CharsetRecog_gb_18030@icu_56@@UBECPAVIteratedChar@2@PAVInputText@2@@Z PROC ; icu_56::CharsetRecog_gb_18030::nextChar, COMDAT
; _this$ = ecx
; Line 457
	push	ebp
	mov	ebp, esp
	sub	esp, 252				; 000000fcH
	push	ebx
	push	esi
	push	edi
	push	ecx
	lea	edi, DWORD PTR [ebp-252]
	mov	ecx, 63					; 0000003fH
	mov	eax, -858993460				; ccccccccH
	rep stosd
	pop	ecx
	mov	DWORD PTR _this$[ebp], ecx
; Line 458
	mov	DWORD PTR _firstByte$[ebp], 0
; Line 459
	mov	DWORD PTR _secondByte$[ebp], 0
; Line 460
	mov	DWORD PTR _thirdByte$[ebp], 0
; Line 461
	mov	DWORD PTR _fourthByte$[ebp], 0
; Line 463
	mov	eax, DWORD PTR _it$[ebp]
	mov	ecx, DWORD PTR _it$[ebp]
	mov	edx, DWORD PTR [ecx+8]
	mov	DWORD PTR [eax+4], edx
; Line 464
	mov	eax, DWORD PTR _it$[ebp]
	mov	BYTE PTR [eax+12], 0
; Line 465
	mov	eax, DWORD PTR _det$[ebp]
	push	eax
	mov	ecx, DWORD PTR _it$[ebp]
	call	?nextByte@IteratedChar@icu_56@@QAEHPAVInputText@2@@Z ; icu_56::IteratedChar::nextByte
	mov	ecx, DWORD PTR _it$[ebp]
	mov	DWORD PTR [ecx], eax
	mov	edx, DWORD PTR _it$[ebp]
	mov	eax, DWORD PTR [edx]
	mov	DWORD PTR _firstByte$[ebp], eax
; Line 467
	cmp	DWORD PTR _firstByte$[ebp], 0
	jge	SHORT $LN10@nextChar@4
; Line 469
	xor	al, al
	jmp	$LN11@nextChar@4
$LN10@nextChar@4:
; Line 472
	cmp	DWORD PTR _firstByte$[ebp], 128		; 00000080H
	jg	SHORT $LN9@nextChar@4
; Line 474
	mov	al, 1
	jmp	$LN11@nextChar@4
$LN9@nextChar@4:
; Line 477
	mov	eax, DWORD PTR _det$[ebp]
	push	eax
	mov	ecx, DWORD PTR _it$[ebp]
	call	?nextByte@IteratedChar@icu_56@@QAEHPAVInputText@2@@Z ; icu_56::IteratedChar::nextByte
	mov	DWORD PTR _secondByte$[ebp], eax
; Line 478
	cmp	DWORD PTR _secondByte$[ebp], 0
	jl	SHORT $LN8@nextChar@4
; Line 479
	mov	eax, DWORD PTR _it$[ebp]
	mov	ecx, DWORD PTR [eax]
	shl	ecx, 8
	or	ecx, DWORD PTR _secondByte$[ebp]
	mov	edx, DWORD PTR _it$[ebp]
	mov	DWORD PTR [edx], ecx
$LN8@nextChar@4:
; Line 483
	cmp	DWORD PTR _firstByte$[ebp], 129		; 00000081H
	jl	$LN7@nextChar@4
	cmp	DWORD PTR _firstByte$[ebp], 254		; 000000feH
	jg	$LN7@nextChar@4
; Line 485
	cmp	DWORD PTR _secondByte$[ebp], 64		; 00000040H
	jl	SHORT $LN4@nextChar@4
	cmp	DWORD PTR _secondByte$[ebp], 126	; 0000007eH
	jle	SHORT $LN5@nextChar@4
$LN4@nextChar@4:
	cmp	DWORD PTR _secondByte$[ebp], 80		; 00000050H
	jl	SHORT $LN6@nextChar@4
	cmp	DWORD PTR _secondByte$[ebp], 254	; 000000feH
	jg	SHORT $LN6@nextChar@4
$LN5@nextChar@4:
; Line 486
	mov	al, 1
	jmp	SHORT $LN11@nextChar@4
$LN6@nextChar@4:
; Line 490
	cmp	DWORD PTR _secondByte$[ebp], 48		; 00000030H
	jl	SHORT $LN3@nextChar@4
	cmp	DWORD PTR _secondByte$[ebp], 57		; 00000039H
	jg	SHORT $LN3@nextChar@4
; Line 491
	mov	eax, DWORD PTR _det$[ebp]
	push	eax
	mov	ecx, DWORD PTR _it$[ebp]
	call	?nextByte@IteratedChar@icu_56@@QAEHPAVInputText@2@@Z ; icu_56::IteratedChar::nextByte
	mov	DWORD PTR _thirdByte$[ebp], eax
; Line 493
	cmp	DWORD PTR _thirdByte$[ebp], 129		; 00000081H
	jl	SHORT $LN3@nextChar@4
	cmp	DWORD PTR _thirdByte$[ebp], 254		; 000000feH
	jg	SHORT $LN3@nextChar@4
; Line 494
	mov	eax, DWORD PTR _det$[ebp]
	push	eax
	mov	ecx, DWORD PTR _it$[ebp]
	call	?nextByte@IteratedChar@icu_56@@QAEHPAVInputText@2@@Z ; icu_56::IteratedChar::nextByte
	mov	DWORD PTR _fourthByte$[ebp], eax
; Line 496
	cmp	DWORD PTR _fourthByte$[ebp], 48		; 00000030H
	jl	SHORT $LN3@nextChar@4
	cmp	DWORD PTR _fourthByte$[ebp], 57		; 00000039H
	jg	SHORT $LN3@nextChar@4
; Line 497
	mov	eax, DWORD PTR _it$[ebp]
	mov	ecx, DWORD PTR [eax]
	shl	ecx, 16					; 00000010H
	mov	edx, DWORD PTR _thirdByte$[ebp]
	shl	edx, 8
	or	ecx, edx
	or	ecx, DWORD PTR _fourthByte$[ebp]
	mov	eax, DWORD PTR _it$[ebp]
	mov	DWORD PTR [eax], ecx
; Line 499
	mov	al, 1
	jmp	SHORT $LN11@nextChar@4
$LN3@nextChar@4:
; Line 505
	mov	eax, DWORD PTR _it$[ebp]
	mov	BYTE PTR [eax+12], 1
$LN7@nextChar@4:
; Line 508
	mov	al, 1
$LN11@nextChar@4:
; Line 509
	pop	edi
	pop	esi
	pop	ebx
	add	esp, 252				; 000000fcH
	cmp	ebp, esp
	call	__RTC_CheckEsp
	mov	esp, ebp
	pop	ebp
	ret	8
?nextChar@CharsetRecog_gb_18030@icu_56@@UBECPAVIteratedChar@2@PAVInputText@2@@Z ENDP ; icu_56::CharsetRecog_gb_18030::nextChar
_TEXT	ENDS
PUBLIC	??_C@_07DNCGDNOG@GB18030?$AA@			; `string'
;	COMDAT ??_C@_07DNCGDNOG@GB18030?$AA@
CONST	SEGMENT
??_C@_07DNCGDNOG@GB18030?$AA@ DB 'GB18030', 00H		; `string'
; Function compile flags: /Odtp /RTCsu /ZI
CONST	ENDS
;	COMDAT ?getName@CharsetRecog_gb_18030@icu_56@@UBEPBDXZ
_TEXT	SEGMENT
_this$ = -8						; size = 4
?getName@CharsetRecog_gb_18030@icu_56@@UBEPBDXZ PROC	; icu_56::CharsetRecog_gb_18030::getName, COMDAT
; _this$ = ecx
; Line 512
	push	ebp
	mov	ebp, esp
	sub	esp, 204				; 000000ccH
	push	ebx
	push	esi
	push	edi
	push	ecx
	lea	edi, DWORD PTR [ebp-204]
	mov	ecx, 51					; 00000033H
	mov	eax, -858993460				; ccccccccH
	rep stosd
	pop	ecx
	mov	DWORD PTR _this$[ebp], ecx
; Line 513
	mov	eax, OFFSET ??_C@_07DNCGDNOG@GB18030?$AA@
; Line 514
	pop	edi
	pop	esi
	pop	ebx
	mov	esp, ebp
	pop	ebp
	ret	0
?getName@CharsetRecog_gb_18030@icu_56@@UBEPBDXZ ENDP	; icu_56::CharsetRecog_gb_18030::getName
; Function compile flags: /Odtp /RTCsu /ZI
_TEXT	ENDS
;	COMDAT ?getLanguage@CharsetRecog_gb_18030@icu_56@@UBEPBDXZ
_TEXT	SEGMENT
_this$ = -8						; size = 4
?getLanguage@CharsetRecog_gb_18030@icu_56@@UBEPBDXZ PROC ; icu_56::CharsetRecog_gb_18030::getLanguage, COMDAT
; _this$ = ecx
; Line 517
	push	ebp
	mov	ebp, esp
	sub	esp, 204				; 000000ccH
	push	ebx
	push	esi
	push	edi
	push	ecx
	lea	edi, DWORD PTR [ebp-204]
	mov	ecx, 51					; 00000033H
	mov	eax, -858993460				; ccccccccH
	rep stosd
	pop	ecx
	mov	DWORD PTR _this$[ebp], ecx
; Line 518
	mov	eax, OFFSET ??_C@_02PEPMCKME@zh?$AA@
; Line 519
	pop	edi
	pop	esi
	pop	ebx
	mov	esp, ebp
	pop	ebp
	ret	0
?getLanguage@CharsetRecog_gb_18030@icu_56@@UBEPBDXZ ENDP ; icu_56::CharsetRecog_gb_18030::getLanguage
; Function compile flags: /Odtp /RTCsu /ZI
_TEXT	ENDS
;	COMDAT ?match@CharsetRecog_gb_18030@icu_56@@UBECPAVInputText@2@PAVCharsetMatch@2@@Z
_TEXT	SEGMENT
_confidence$ = -20					; size = 4
_this$ = -8						; size = 4
_det$ = 8						; size = 4
_results$ = 12						; size = 4
?match@CharsetRecog_gb_18030@icu_56@@UBECPAVInputText@2@PAVCharsetMatch@2@@Z PROC ; icu_56::CharsetRecog_gb_18030::match, COMDAT
; _this$ = ecx
; Line 522
	push	ebp
	mov	ebp, esp
	sub	esp, 216				; 000000d8H
	push	ebx
	push	esi
	push	edi
	push	ecx
	lea	edi, DWORD PTR [ebp-216]
	mov	ecx, 54					; 00000036H
	mov	eax, -858993460				; ccccccccH
	rep stosd
	pop	ecx
	mov	DWORD PTR _this$[ebp], ecx
; Line 523
	push	100					; 00000064H
	push	OFFSET _commonChars_gb_18030
	mov	eax, DWORD PTR _det$[ebp]
	push	eax
	mov	ecx, DWORD PTR _this$[ebp]
	call	?match_mbcs@CharsetRecog_mbcs@icu_56@@IBEHPAVInputText@2@QBGH@Z ; icu_56::CharsetRecog_mbcs::match_mbcs
	mov	DWORD PTR _confidence$[ebp], eax
; Line 524
	push	0
	push	0
	mov	eax, DWORD PTR _confidence$[ebp]
	push	eax
	mov	ecx, DWORD PTR _this$[ebp]
	push	ecx
	mov	edx, DWORD PTR _det$[ebp]
	push	edx
	mov	ecx, DWORD PTR _results$[ebp]
	call	?set@CharsetMatch@icu_56@@QAEXPAVInputText@2@PBVCharsetRecognizer@2@HPBD2@Z ; icu_56::CharsetMatch::set
; Line 525
	cmp	DWORD PTR _confidence$[ebp], 0
	setg	al
; Line 526
	pop	edi
	pop	esi
	pop	ebx
	add	esp, 216				; 000000d8H
	cmp	ebp, esp
	call	__RTC_CheckEsp
	mov	esp, ebp
	pop	ebp
	ret	8
?match@CharsetRecog_gb_18030@icu_56@@UBECPAVInputText@2@PAVCharsetMatch@2@@Z ENDP ; icu_56::CharsetRecog_gb_18030::match
_TEXT	ENDS
END
