; Listing generated by Microsoft (R) Optimizing Compiler Version 16.00.40219.01 

	TITLE	D:\mozilla\intl\icu\source\i18n\csrsbcs.cpp
	.686P
	.XMM
	include listing.inc
	.model	flat

INCLUDELIB MSVCRTD
INCLUDELIB OLDNAMES

CONST	SEGMENT
_unshapeMap_IBM420 DB 040H
	DB	040H
	DB	040H
	DB	040H
	DB	040H
	DB	040H
	DB	040H
	DB	040H
	DB	040H
	DB	040H
	DB	040H
	DB	040H
	DB	040H
	DB	040H
	DB	040H
	DB	040H
	DB	040H
	DB	040H
	DB	040H
	DB	040H
	DB	040H
	DB	040H
	DB	040H
	DB	040H
	DB	040H
	DB	040H
	DB	040H
	DB	040H
	DB	040H
	DB	040H
	DB	040H
	DB	040H
	DB	040H
	DB	040H
	DB	040H
	DB	040H
	DB	040H
	DB	040H
	DB	040H
	DB	040H
	DB	040H
	DB	040H
	DB	040H
	DB	040H
	DB	040H
	DB	040H
	DB	040H
	DB	040H
	DB	040H
	DB	040H
	DB	040H
	DB	040H
	DB	040H
	DB	040H
	DB	040H
	DB	040H
	DB	040H
	DB	040H
	DB	040H
	DB	040H
	DB	040H
	DB	040H
	DB	040H
	DB	040H
	DB	040H
	DB	040H
	DB	042H
	DB	042H
	DB	044H
	DB	045H
	DB	046H
	DB	047H
	DB	047H
	DB	049H
	DB	04aH
	DB	04bH
	DB	04cH
	DB	04dH
	DB	04eH
	DB	04fH
	DB	050H
	DB	049H
	DB	052H
	DB	053H
	DB	054H
	DB	055H
	DB	056H
	DB	056H
	DB	058H
	DB	058H
	DB	05aH
	DB	05bH
	DB	05cH
	DB	05dH
	DB	05eH
	DB	05fH
	DB	060H
	DB	061H
	DB	062H
	DB	063H
	DB	063H
	DB	065H
	DB	065H
	DB	067H
	DB	067H
	DB	069H
	DB	06aH
	DB	06bH
	DB	06cH
	DB	06dH
	DB	06eH
	DB	06fH
	DB	069H
	DB	071H
	DB	071H
	DB	073H
	DB	074H
	DB	075H
	DB	076H
	DB	077H
	DB	077H
	DB	079H
	DB	07aH
	DB	07bH
	DB	07cH
	DB	07dH
	DB	07eH
	DB	07fH
	DB	080H
	DB	081H
	DB	082H
	DB	083H
	DB	084H
	DB	085H
	DB	086H
	DB	087H
	DB	088H
	DB	089H
	DB	080H
	DB	08bH
	DB	08bH
	DB	08dH
	DB	08dH
	DB	08fH
	DB	090H
	DB	091H
	DB	092H
	DB	093H
	DB	094H
	DB	095H
	DB	096H
	DB	097H
	DB	098H
	DB	099H
	DB	09aH
	DB	09aH
	DB	09aH
	DB	09aH
	DB	09eH
	DB	09eH
	DB	09eH
	DB	0a1H
	DB	0a2H
	DB	0a3H
	DB	0a4H
	DB	0a5H
	DB	0a6H
	DB	0a7H
	DB	0a8H
	DB	0a9H
	DB	09eH
	DB	0abH
	DB	0abH
	DB	0adH
	DB	0adH
	DB	0afH
	DB	0afH
	DB	0b1H
	DB	0b2H
	DB	0b3H
	DB	0b4H
	DB	0b5H
	DB	0b6H
	DB	0b7H
	DB	0b8H
	DB	0b9H
	DB	0b1H
	DB	0bbH
	DB	0bbH
	DB	0bdH
	DB	0bdH
	DB	0bfH
	DB	0c0H
	DB	0c1H
	DB	0c2H
	DB	0c3H
	DB	0c4H
	DB	0c5H
	DB	0c6H
	DB	0c7H
	DB	0c8H
	DB	0c9H
	DB	0caH
	DB	0bfH
	DB	0ccH
	DB	0bfH
	DB	0ceH
	DB	0cfH
	DB	0d0H
	DB	0d1H
	DB	0d2H
	DB	0d3H
	DB	0d4H
	DB	0d5H
	DB	0d6H
	DB	0d7H
	DB	0d8H
	DB	0d9H
	DB	0daH
	DB	0daH
	DB	0dcH
	DB	0dcH
	DB	0dcH
	DB	0dfH
	DB	0e0H
	DB	0e1H
	DB	0e2H
	DB	0e3H
	DB	0e4H
	DB	0e5H
	DB	0e6H
	DB	0e7H
	DB	0e8H
	DB	0e9H
	DB	0eaH
	DB	0ebH
	DB	0ecH
	DB	0edH
	DB	0eeH
	DB	0efH
	DB	0f0H
	DB	0f1H
	DB	0f2H
	DB	0f3H
	DB	0f4H
	DB	0f5H
	DB	0f6H
	DB	0f7H
	DB	0f8H
	DB	0f9H
	DB	0faH
	DB	0fbH
	DB	0fcH
	DB	0fdH
	DB	0feH
	DB	0ffH
_charMap_8859_1 DB 020H
	DB	020H
	DB	020H
	DB	020H
	DB	020H
	DB	020H
	DB	020H
	DB	020H
	DB	020H
	DB	020H
	DB	020H
	DB	020H
	DB	020H
	DB	020H
	DB	020H
	DB	020H
	DB	020H
	DB	020H
	DB	020H
	DB	020H
	DB	020H
	DB	020H
	DB	020H
	DB	020H
	DB	020H
	DB	020H
	DB	020H
	DB	020H
	DB	020H
	DB	020H
	DB	020H
	DB	020H
	DB	020H
	DB	020H
	DB	020H
	DB	020H
	DB	020H
	DB	020H
	DB	020H
	DB	00H
	DB	020H
	DB	020H
	DB	020H
	DB	020H
	DB	020H
	DB	020H
	DB	020H
	DB	020H
	DB	020H
	DB	020H
	DB	020H
	DB	020H
	DB	020H
	DB	020H
	DB	020H
	DB	020H
	DB	020H
	DB	020H
	DB	020H
	DB	020H
	DB	020H
	DB	020H
	DB	020H
	DB	020H
	DB	020H
	DB	061H
	DB	062H
	DB	063H
	DB	064H
	DB	065H
	DB	066H
	DB	067H
	DB	068H
	DB	069H
	DB	06aH
	DB	06bH
	DB	06cH
	DB	06dH
	DB	06eH
	DB	06fH
	DB	070H
	DB	071H
	DB	072H
	DB	073H
	DB	074H
	DB	075H
	DB	076H
	DB	077H
	DB	078H
	DB	079H
	DB	07aH
	DB	020H
	DB	020H
	DB	020H
	DB	020H
	DB	020H
	DB	020H
	DB	061H
	DB	062H
	DB	063H
	DB	064H
	DB	065H
	DB	066H
	DB	067H
	DB	068H
	DB	069H
	DB	06aH
	DB	06bH
	DB	06cH
	DB	06dH
	DB	06eH
	DB	06fH
	DB	070H
	DB	071H
	DB	072H
	DB	073H
	DB	074H
	DB	075H
	DB	076H
	DB	077H
	DB	078H
	DB	079H
	DB	07aH
	DB	020H
	DB	020H
	DB	020H
	DB	020H
	DB	020H
	DB	020H
	DB	020H
	DB	020H
	DB	020H
	DB	020H
	DB	020H
	DB	020H
	DB	020H
	DB	020H
	DB	020H
	DB	020H
	DB	020H
	DB	020H
	DB	020H
	DB	020H
	DB	020H
	DB	020H
	DB	020H
	DB	020H
	DB	020H
	DB	020H
	DB	020H
	DB	020H
	DB	020H
	DB	020H
	DB	020H
	DB	020H
	DB	020H
	DB	020H
	DB	020H
	DB	020H
	DB	020H
	DB	020H
	DB	020H
	DB	020H
	DB	020H
	DB	020H
	DB	020H
	DB	020H
	DB	020H
	DB	020H
	DB	020H
	DB	0aaH
	DB	020H
	DB	020H
	DB	020H
	DB	020H
	DB	020H
	DB	020H
	DB	020H
	DB	020H
	DB	020H
	DB	020H
	DB	0b5H
	DB	020H
	DB	020H
	DB	020H
	DB	020H
	DB	0baH
	DB	020H
	DB	020H
	DB	020H
	DB	020H
	DB	020H
	DB	0e0H
	DB	0e1H
	DB	0e2H
	DB	0e3H
	DB	0e4H
	DB	0e5H
	DB	0e6H
	DB	0e7H
	DB	0e8H
	DB	0e9H
	DB	0eaH
	DB	0ebH
	DB	0ecH
	DB	0edH
	DB	0eeH
	DB	0efH
	DB	0f0H
	DB	0f1H
	DB	0f2H
	DB	0f3H
	DB	0f4H
	DB	0f5H
	DB	0f6H
	DB	020H
	DB	0f8H
	DB	0f9H
	DB	0faH
	DB	0fbH
	DB	0fcH
	DB	0fdH
	DB	0feH
	DB	0dfH
	DB	0e0H
	DB	0e1H
	DB	0e2H
	DB	0e3H
	DB	0e4H
	DB	0e5H
	DB	0e6H
	DB	0e7H
	DB	0e8H
	DB	0e9H
	DB	0eaH
	DB	0ebH
	DB	0ecH
	DB	0edH
	DB	0eeH
	DB	0efH
	DB	0f0H
	DB	0f1H
	DB	0f2H
	DB	0f3H
	DB	0f4H
	DB	0f5H
	DB	0f6H
	DB	020H
	DB	0f8H
	DB	0f9H
	DB	0faH
	DB	0fbH
	DB	0fcH
	DB	0fdH
	DB	0feH
	DB	0ffH
_charMap_8859_2 DB 020H
	DB	020H
	DB	020H
	DB	020H
	DB	020H
	DB	020H
	DB	020H
	DB	020H
	DB	020H
	DB	020H
	DB	020H
	DB	020H
	DB	020H
	DB	020H
	DB	020H
	DB	020H
	DB	020H
	DB	020H
	DB	020H
	DB	020H
	DB	020H
	DB	020H
	DB	020H
	DB	020H
	DB	020H
	DB	020H
	DB	020H
	DB	020H
	DB	020H
	DB	020H
	DB	020H
	DB	020H
	DB	020H
	DB	020H
	DB	020H
	DB	020H
	DB	020H
	DB	020H
	DB	020H
	DB	00H
	DB	020H
	DB	020H
	DB	020H
	DB	020H
	DB	020H
	DB	020H
	DB	020H
	DB	020H
	DB	020H
	DB	020H
	DB	020H
	DB	020H
	DB	020H
	DB	020H
	DB	020H
	DB	020H
	DB	020H
	DB	020H
	DB	020H
	DB	020H
	DB	020H
	DB	020H
	DB	020H
	DB	020H
	DB	020H
	DB	061H
	DB	062H
	DB	063H
	DB	064H
	DB	065H
	DB	066H
	DB	067H
	DB	068H
	DB	069H
	DB	06aH
	DB	06bH
	DB	06cH
	DB	06dH
	DB	06eH
	DB	06fH
	DB	070H
	DB	071H
	DB	072H
	DB	073H
	DB	074H
	DB	075H
	DB	076H
	DB	077H
	DB	078H
	DB	079H
	DB	07aH
	DB	020H
	DB	020H
	DB	020H
	DB	020H
	DB	020H
	DB	020H
	DB	061H
	DB	062H
	DB	063H
	DB	064H
	DB	065H
	DB	066H
	DB	067H
	DB	068H
	DB	069H
	DB	06aH
	DB	06bH
	DB	06cH
	DB	06dH
	DB	06eH
	DB	06fH
	DB	070H
	DB	071H
	DB	072H
	DB	073H
	DB	074H
	DB	075H
	DB	076H
	DB	077H
	DB	078H
	DB	079H
	DB	07aH
	DB	020H
	DB	020H
	DB	020H
	DB	020H
	DB	020H
	DB	020H
	DB	020H
	DB	020H
	DB	020H
	DB	020H
	DB	020H
	DB	020H
	DB	020H
	DB	020H
	DB	020H
	DB	020H
	DB	020H
	DB	020H
	DB	020H
	DB	020H
	DB	020H
	DB	020H
	DB	020H
	DB	020H
	DB	020H
	DB	020H
	DB	020H
	DB	020H
	DB	020H
	DB	020H
	DB	020H
	DB	020H
	DB	020H
	DB	020H
	DB	020H
	DB	020H
	DB	020H
	DB	020H
	DB	0b1H
	DB	020H
	DB	0b3H
	DB	020H
	DB	0b5H
	DB	0b6H
	DB	020H
	DB	020H
	DB	0b9H
	DB	0baH
	DB	0bbH
	DB	0bcH
	DB	020H
	DB	0beH
	DB	0bfH
	DB	020H
	DB	0b1H
	DB	020H
	DB	0b3H
	DB	020H
	DB	0b5H
	DB	0b6H
	DB	0b7H
	DB	020H
	DB	0b9H
	DB	0baH
	DB	0bbH
	DB	0bcH
	DB	020H
	DB	0beH
	DB	0bfH
	DB	0e0H
	DB	0e1H
	DB	0e2H
	DB	0e3H
	DB	0e4H
	DB	0e5H
	DB	0e6H
	DB	0e7H
	DB	0e8H
	DB	0e9H
	DB	0eaH
	DB	0ebH
	DB	0ecH
	DB	0edH
	DB	0eeH
	DB	0efH
	DB	0f0H
	DB	0f1H
	DB	0f2H
	DB	0f3H
	DB	0f4H
	DB	0f5H
	DB	0f6H
	DB	020H
	DB	0f8H
	DB	0f9H
	DB	0faH
	DB	0fbH
	DB	0fcH
	DB	0fdH
	DB	0feH
	DB	0dfH
	DB	0e0H
	DB	0e1H
	DB	0e2H
	DB	0e3H
	DB	0e4H
	DB	0e5H
	DB	0e6H
	DB	0e7H
	DB	0e8H
	DB	0e9H
	DB	0eaH
	DB	0ebH
	DB	0ecH
	DB	0edH
	DB	0eeH
	DB	0efH
	DB	0f0H
	DB	0f1H
	DB	0f2H
	DB	0f3H
	DB	0f4H
	DB	0f5H
	DB	0f6H
	DB	020H
	DB	0f8H
	DB	0f9H
	DB	0faH
	DB	0fbH
	DB	0fcH
	DB	0fdH
	DB	0feH
	DB	020H
_charMap_8859_5 DB 020H
	DB	020H
	DB	020H
	DB	020H
	DB	020H
	DB	020H
	DB	020H
	DB	020H
	DB	020H
	DB	020H
	DB	020H
	DB	020H
	DB	020H
	DB	020H
	DB	020H
	DB	020H
	DB	020H
	DB	020H
	DB	020H
	DB	020H
	DB	020H
	DB	020H
	DB	020H
	DB	020H
	DB	020H
	DB	020H
	DB	020H
	DB	020H
	DB	020H
	DB	020H
	DB	020H
	DB	020H
	DB	020H
	DB	020H
	DB	020H
	DB	020H
	DB	020H
	DB	020H
	DB	020H
	DB	00H
	DB	020H
	DB	020H
	DB	020H
	DB	020H
	DB	020H
	DB	020H
	DB	020H
	DB	020H
	DB	020H
	DB	020H
	DB	020H
	DB	020H
	DB	020H
	DB	020H
	DB	020H
	DB	020H
	DB	020H
	DB	020H
	DB	020H
	DB	020H
	DB	020H
	DB	020H
	DB	020H
	DB	020H
	DB	020H
	DB	061H
	DB	062H
	DB	063H
	DB	064H
	DB	065H
	DB	066H
	DB	067H
	DB	068H
	DB	069H
	DB	06aH
	DB	06bH
	DB	06cH
	DB	06dH
	DB	06eH
	DB	06fH
	DB	070H
	DB	071H
	DB	072H
	DB	073H
	DB	074H
	DB	075H
	DB	076H
	DB	077H
	DB	078H
	DB	079H
	DB	07aH
	DB	020H
	DB	020H
	DB	020H
	DB	020H
	DB	020H
	DB	020H
	DB	061H
	DB	062H
	DB	063H
	DB	064H
	DB	065H
	DB	066H
	DB	067H
	DB	068H
	DB	069H
	DB	06aH
	DB	06bH
	DB	06cH
	DB	06dH
	DB	06eH
	DB	06fH
	DB	070H
	DB	071H
	DB	072H
	DB	073H
	DB	074H
	DB	075H
	DB	076H
	DB	077H
	DB	078H
	DB	079H
	DB	07aH
	DB	020H
	DB	020H
	DB	020H
	DB	020H
	DB	020H
	DB	020H
	DB	020H
	DB	020H
	DB	020H
	DB	020H
	DB	020H
	DB	020H
	DB	020H
	DB	020H
	DB	020H
	DB	020H
	DB	020H
	DB	020H
	DB	020H
	DB	020H
	DB	020H
	DB	020H
	DB	020H
	DB	020H
	DB	020H
	DB	020H
	DB	020H
	DB	020H
	DB	020H
	DB	020H
	DB	020H
	DB	020H
	DB	020H
	DB	020H
	DB	020H
	DB	020H
	DB	020H
	DB	020H
	DB	0f1H
	DB	0f2H
	DB	0f3H
	DB	0f4H
	DB	0f5H
	DB	0f6H
	DB	0f7H
	DB	0f8H
	DB	0f9H
	DB	0faH
	DB	0fbH
	DB	0fcH
	DB	020H
	DB	0feH
	DB	0ffH
	DB	0d0H
	DB	0d1H
	DB	0d2H
	DB	0d3H
	DB	0d4H
	DB	0d5H
	DB	0d6H
	DB	0d7H
	DB	0d8H
	DB	0d9H
	DB	0daH
	DB	0dbH
	DB	0dcH
	DB	0ddH
	DB	0deH
	DB	0dfH
	DB	0e0H
	DB	0e1H
	DB	0e2H
	DB	0e3H
	DB	0e4H
	DB	0e5H
	DB	0e6H
	DB	0e7H
	DB	0e8H
	DB	0e9H
	DB	0eaH
	DB	0ebH
	DB	0ecH
	DB	0edH
	DB	0eeH
	DB	0efH
	DB	0d0H
	DB	0d1H
	DB	0d2H
	DB	0d3H
	DB	0d4H
	DB	0d5H
	DB	0d6H
	DB	0d7H
	DB	0d8H
	DB	0d9H
	DB	0daH
	DB	0dbH
	DB	0dcH
	DB	0ddH
	DB	0deH
	DB	0dfH
	DB	0e0H
	DB	0e1H
	DB	0e2H
	DB	0e3H
	DB	0e4H
	DB	0e5H
	DB	0e6H
	DB	0e7H
	DB	0e8H
	DB	0e9H
	DB	0eaH
	DB	0ebH
	DB	0ecH
	DB	0edH
	DB	0eeH
	DB	0efH
	DB	020H
	DB	0f1H
	DB	0f2H
	DB	0f3H
	DB	0f4H
	DB	0f5H
	DB	0f6H
	DB	0f7H
	DB	0f8H
	DB	0f9H
	DB	0faH
	DB	0fbH
	DB	0fcH
	DB	020H
	DB	0feH
	DB	0ffH
_charMap_8859_6 DB 020H
	DB	020H
	DB	020H
	DB	020H
	DB	020H
	DB	020H
	DB	020H
	DB	020H
	DB	020H
	DB	020H
	DB	020H
	DB	020H
	DB	020H
	DB	020H
	DB	020H
	DB	020H
	DB	020H
	DB	020H
	DB	020H
	DB	020H
	DB	020H
	DB	020H
	DB	020H
	DB	020H
	DB	020H
	DB	020H
	DB	020H
	DB	020H
	DB	020H
	DB	020H
	DB	020H
	DB	020H
	DB	020H
	DB	020H
	DB	020H
	DB	020H
	DB	020H
	DB	020H
	DB	020H
	DB	00H
	DB	020H
	DB	020H
	DB	020H
	DB	020H
	DB	020H
	DB	020H
	DB	020H
	DB	020H
	DB	020H
	DB	020H
	DB	020H
	DB	020H
	DB	020H
	DB	020H
	DB	020H
	DB	020H
	DB	020H
	DB	020H
	DB	020H
	DB	020H
	DB	020H
	DB	020H
	DB	020H
	DB	020H
	DB	020H
	DB	061H
	DB	062H
	DB	063H
	DB	064H
	DB	065H
	DB	066H
	DB	067H
	DB	068H
	DB	069H
	DB	06aH
	DB	06bH
	DB	06cH
	DB	06dH
	DB	06eH
	DB	06fH
	DB	070H
	DB	071H
	DB	072H
	DB	073H
	DB	074H
	DB	075H
	DB	076H
	DB	077H
	DB	078H
	DB	079H
	DB	07aH
	DB	020H
	DB	020H
	DB	020H
	DB	020H
	DB	020H
	DB	020H
	DB	061H
	DB	062H
	DB	063H
	DB	064H
	DB	065H
	DB	066H
	DB	067H
	DB	068H
	DB	069H
	DB	06aH
	DB	06bH
	DB	06cH
	DB	06dH
	DB	06eH
	DB	06fH
	DB	070H
	DB	071H
	DB	072H
	DB	073H
	DB	074H
	DB	075H
	DB	076H
	DB	077H
	DB	078H
	DB	079H
	DB	07aH
	DB	020H
	DB	020H
	DB	020H
	DB	020H
	DB	020H
	DB	020H
	DB	020H
	DB	020H
	DB	020H
	DB	020H
	DB	020H
	DB	020H
	DB	020H
	DB	020H
	DB	020H
	DB	020H
	DB	020H
	DB	020H
	DB	020H
	DB	020H
	DB	020H
	DB	020H
	DB	020H
	DB	020H
	DB	020H
	DB	020H
	DB	020H
	DB	020H
	DB	020H
	DB	020H
	DB	020H
	DB	020H
	DB	020H
	DB	020H
	DB	020H
	DB	020H
	DB	020H
	DB	020H
	DB	020H
	DB	020H
	DB	020H
	DB	020H
	DB	020H
	DB	020H
	DB	020H
	DB	020H
	DB	020H
	DB	020H
	DB	020H
	DB	020H
	DB	020H
	DB	020H
	DB	020H
	DB	020H
	DB	020H
	DB	020H
	DB	020H
	DB	020H
	DB	020H
	DB	020H
	DB	020H
	DB	020H
	DB	020H
	DB	020H
	DB	020H
	DB	020H
	DB	020H
	DB	020H
	DB	020H
	DB	020H
	DB	0c1H
	DB	0c2H
	DB	0c3H
	DB	0c4H
	DB	0c5H
	DB	0c6H
	DB	0c7H
	DB	0c8H
	DB	0c9H
	DB	0caH
	DB	0cbH
	DB	0ccH
	DB	0cdH
	DB	0ceH
	DB	0cfH
	DB	0d0H
	DB	0d1H
	DB	0d2H
	DB	0d3H
	DB	0d4H
	DB	0d5H
	DB	0d6H
	DB	0d7H
	DB	0d8H
	DB	0d9H
	DB	0daH
	DB	020H
	DB	020H
	DB	020H
	DB	020H
	DB	020H
	DB	0e0H
	DB	0e1H
	DB	0e2H
	DB	0e3H
	DB	0e4H
	DB	0e5H
	DB	0e6H
	DB	0e7H
	DB	0e8H
	DB	0e9H
	DB	0eaH
	DB	020H
	DB	020H
	DB	020H
	DB	020H
	DB	020H
	DB	020H
	DB	020H
	DB	020H
	DB	020H
	DB	020H
	DB	020H
	DB	020H
	DB	020H
	DB	020H
	DB	020H
	DB	020H
	DB	020H
	DB	020H
	DB	020H
	DB	020H
	DB	020H
_charMap_8859_7 DB 020H
	DB	020H
	DB	020H
	DB	020H
	DB	020H
	DB	020H
	DB	020H
	DB	020H
	DB	020H
	DB	020H
	DB	020H
	DB	020H
	DB	020H
	DB	020H
	DB	020H
	DB	020H
	DB	020H
	DB	020H
	DB	020H
	DB	020H
	DB	020H
	DB	020H
	DB	020H
	DB	020H
	DB	020H
	DB	020H
	DB	020H
	DB	020H
	DB	020H
	DB	020H
	DB	020H
	DB	020H
	DB	020H
	DB	020H
	DB	020H
	DB	020H
	DB	020H
	DB	020H
	DB	020H
	DB	00H
	DB	020H
	DB	020H
	DB	020H
	DB	020H
	DB	020H
	DB	020H
	DB	020H
	DB	020H
	DB	020H
	DB	020H
	DB	020H
	DB	020H
	DB	020H
	DB	020H
	DB	020H
	DB	020H
	DB	020H
	DB	020H
	DB	020H
	DB	020H
	DB	020H
	DB	020H
	DB	020H
	DB	020H
	DB	020H
	DB	061H
	DB	062H
	DB	063H
	DB	064H
	DB	065H
	DB	066H
	DB	067H
	DB	068H
	DB	069H
	DB	06aH
	DB	06bH
	DB	06cH
	DB	06dH
	DB	06eH
	DB	06fH
	DB	070H
	DB	071H
	DB	072H
	DB	073H
	DB	074H
	DB	075H
	DB	076H
	DB	077H
	DB	078H
	DB	079H
	DB	07aH
	DB	020H
	DB	020H
	DB	020H
	DB	020H
	DB	020H
	DB	020H
	DB	061H
	DB	062H
	DB	063H
	DB	064H
	DB	065H
	DB	066H
	DB	067H
	DB	068H
	DB	069H
	DB	06aH
	DB	06bH
	DB	06cH
	DB	06dH
	DB	06eH
	DB	06fH
	DB	070H
	DB	071H
	DB	072H
	DB	073H
	DB	074H
	DB	075H
	DB	076H
	DB	077H
	DB	078H
	DB	079H
	DB	07aH
	DB	020H
	DB	020H
	DB	020H
	DB	020H
	DB	020H
	DB	020H
	DB	020H
	DB	020H
	DB	020H
	DB	020H
	DB	020H
	DB	020H
	DB	020H
	DB	020H
	DB	020H
	DB	020H
	DB	020H
	DB	020H
	DB	020H
	DB	020H
	DB	020H
	DB	020H
	DB	020H
	DB	020H
	DB	020H
	DB	020H
	DB	020H
	DB	020H
	DB	020H
	DB	020H
	DB	020H
	DB	020H
	DB	020H
	DB	020H
	DB	020H
	DB	020H
	DB	020H
	DB	020H
	DB	0a1H
	DB	0a2H
	DB	020H
	DB	020H
	DB	020H
	DB	020H
	DB	020H
	DB	020H
	DB	020H
	DB	020H
	DB	020H
	DB	020H
	DB	020H
	DB	020H
	DB	020H
	DB	020H
	DB	020H
	DB	020H
	DB	020H
	DB	020H
	DB	020H
	DB	0dcH
	DB	020H
	DB	0ddH
	DB	0deH
	DB	0dfH
	DB	020H
	DB	0fcH
	DB	020H
	DB	0fdH
	DB	0feH
	DB	0c0H
	DB	0e1H
	DB	0e2H
	DB	0e3H
	DB	0e4H
	DB	0e5H
	DB	0e6H
	DB	0e7H
	DB	0e8H
	DB	0e9H
	DB	0eaH
	DB	0ebH
	DB	0ecH
	DB	0edH
	DB	0eeH
	DB	0efH
	DB	0f0H
	DB	0f1H
	DB	020H
	DB	0f3H
	DB	0f4H
	DB	0f5H
	DB	0f6H
	DB	0f7H
	DB	0f8H
	DB	0f9H
	DB	0faH
	DB	0fbH
	DB	0dcH
	DB	0ddH
	DB	0deH
	DB	0dfH
	DB	0e0H
	DB	0e1H
	DB	0e2H
	DB	0e3H
	DB	0e4H
	DB	0e5H
	DB	0e6H
	DB	0e7H
	DB	0e8H
	DB	0e9H
	DB	0eaH
	DB	0ebH
	DB	0ecH
	DB	0edH
	DB	0eeH
	DB	0efH
	DB	0f0H
	DB	0f1H
	DB	0f2H
	DB	0f3H
	DB	0f4H
	DB	0f5H
	DB	0f6H
	DB	0f7H
	DB	0f8H
	DB	0f9H
	DB	0faH
	DB	0fbH
	DB	0fcH
	DB	0fdH
	DB	0feH
	DB	020H
_charMap_8859_8 DB 020H
	DB	020H
	DB	020H
	DB	020H
	DB	020H
	DB	020H
	DB	020H
	DB	020H
	DB	020H
	DB	020H
	DB	020H
	DB	020H
	DB	020H
	DB	020H
	DB	020H
	DB	020H
	DB	020H
	DB	020H
	DB	020H
	DB	020H
	DB	020H
	DB	020H
	DB	020H
	DB	020H
	DB	020H
	DB	020H
	DB	020H
	DB	020H
	DB	020H
	DB	020H
	DB	020H
	DB	020H
	DB	020H
	DB	020H
	DB	020H
	DB	020H
	DB	020H
	DB	020H
	DB	020H
	DB	00H
	DB	020H
	DB	020H
	DB	020H
	DB	020H
	DB	020H
	DB	020H
	DB	020H
	DB	020H
	DB	020H
	DB	020H
	DB	020H
	DB	020H
	DB	020H
	DB	020H
	DB	020H
	DB	020H
	DB	020H
	DB	020H
	DB	020H
	DB	020H
	DB	020H
	DB	020H
	DB	020H
	DB	020H
	DB	020H
	DB	061H
	DB	062H
	DB	063H
	DB	064H
	DB	065H
	DB	066H
	DB	067H
	DB	068H
	DB	069H
	DB	06aH
	DB	06bH
	DB	06cH
	DB	06dH
	DB	06eH
	DB	06fH
	DB	070H
	DB	071H
	DB	072H
	DB	073H
	DB	074H
	DB	075H
	DB	076H
	DB	077H
	DB	078H
	DB	079H
	DB	07aH
	DB	020H
	DB	020H
	DB	020H
	DB	020H
	DB	020H
	DB	020H
	DB	061H
	DB	062H
	DB	063H
	DB	064H
	DB	065H
	DB	066H
	DB	067H
	DB	068H
	DB	069H
	DB	06aH
	DB	06bH
	DB	06cH
	DB	06dH
	DB	06eH
	DB	06fH
	DB	070H
	DB	071H
	DB	072H
	DB	073H
	DB	074H
	DB	075H
	DB	076H
	DB	077H
	DB	078H
	DB	079H
	DB	07aH
	DB	020H
	DB	020H
	DB	020H
	DB	020H
	DB	020H
	DB	020H
	DB	020H
	DB	020H
	DB	020H
	DB	020H
	DB	020H
	DB	020H
	DB	020H
	DB	020H
	DB	020H
	DB	020H
	DB	020H
	DB	020H
	DB	020H
	DB	020H
	DB	020H
	DB	020H
	DB	020H
	DB	020H
	DB	020H
	DB	020H
	DB	020H
	DB	020H
	DB	020H
	DB	020H
	DB	020H
	DB	020H
	DB	020H
	DB	020H
	DB	020H
	DB	020H
	DB	020H
	DB	020H
	DB	020H
	DB	020H
	DB	020H
	DB	020H
	DB	020H
	DB	020H
	DB	020H
	DB	020H
	DB	020H
	DB	020H
	DB	020H
	DB	020H
	DB	020H
	DB	020H
	DB	020H
	DB	020H
	DB	020H
	DB	020H
	DB	020H
	DB	020H
	DB	0b5H
	DB	020H
	DB	020H
	DB	020H
	DB	020H
	DB	020H
	DB	020H
	DB	020H
	DB	020H
	DB	020H
	DB	020H
	DB	020H
	DB	020H
	DB	020H
	DB	020H
	DB	020H
	DB	020H
	DB	020H
	DB	020H
	DB	020H
	DB	020H
	DB	020H
	DB	020H
	DB	020H
	DB	020H
	DB	020H
	DB	020H
	DB	020H
	DB	020H
	DB	020H
	DB	020H
	DB	020H
	DB	020H
	DB	020H
	DB	020H
	DB	020H
	DB	020H
	DB	020H
	DB	020H
	DB	020H
	DB	020H
	DB	020H
	DB	020H
	DB	0e0H
	DB	0e1H
	DB	0e2H
	DB	0e3H
	DB	0e4H
	DB	0e5H
	DB	0e6H
	DB	0e7H
	DB	0e8H
	DB	0e9H
	DB	0eaH
	DB	0ebH
	DB	0ecH
	DB	0edH
	DB	0eeH
	DB	0efH
	DB	0f0H
	DB	0f1H
	DB	0f2H
	DB	0f3H
	DB	0f4H
	DB	0f5H
	DB	0f6H
	DB	0f7H
	DB	0f8H
	DB	0f9H
	DB	0faH
	DB	020H
	DB	020H
	DB	020H
	DB	020H
	DB	020H
_charMap_8859_9 DB 020H
	DB	020H
	DB	020H
	DB	020H
	DB	020H
	DB	020H
	DB	020H
	DB	020H
	DB	020H
	DB	020H
	DB	020H
	DB	020H
	DB	020H
	DB	020H
	DB	020H
	DB	020H
	DB	020H
	DB	020H
	DB	020H
	DB	020H
	DB	020H
	DB	020H
	DB	020H
	DB	020H
	DB	020H
	DB	020H
	DB	020H
	DB	020H
	DB	020H
	DB	020H
	DB	020H
	DB	020H
	DB	020H
	DB	020H
	DB	020H
	DB	020H
	DB	020H
	DB	020H
	DB	020H
	DB	00H
	DB	020H
	DB	020H
	DB	020H
	DB	020H
	DB	020H
	DB	020H
	DB	020H
	DB	020H
	DB	020H
	DB	020H
	DB	020H
	DB	020H
	DB	020H
	DB	020H
	DB	020H
	DB	020H
	DB	020H
	DB	020H
	DB	020H
	DB	020H
	DB	020H
	DB	020H
	DB	020H
	DB	020H
	DB	020H
	DB	061H
	DB	062H
	DB	063H
	DB	064H
	DB	065H
	DB	066H
	DB	067H
	DB	068H
	DB	069H
	DB	06aH
	DB	06bH
	DB	06cH
	DB	06dH
	DB	06eH
	DB	06fH
	DB	070H
	DB	071H
	DB	072H
	DB	073H
	DB	074H
	DB	075H
	DB	076H
	DB	077H
	DB	078H
	DB	079H
	DB	07aH
	DB	020H
	DB	020H
	DB	020H
	DB	020H
	DB	020H
	DB	020H
	DB	061H
	DB	062H
	DB	063H
	DB	064H
	DB	065H
	DB	066H
	DB	067H
	DB	068H
	DB	069H
	DB	06aH
	DB	06bH
	DB	06cH
	DB	06dH
	DB	06eH
	DB	06fH
	DB	070H
	DB	071H
	DB	072H
	DB	073H
	DB	074H
	DB	075H
	DB	076H
	DB	077H
	DB	078H
	DB	079H
	DB	07aH
	DB	020H
	DB	020H
	DB	020H
	DB	020H
	DB	020H
	DB	020H
	DB	020H
	DB	020H
	DB	020H
	DB	020H
	DB	020H
	DB	020H
	DB	020H
	DB	020H
	DB	020H
	DB	020H
	DB	020H
	DB	020H
	DB	020H
	DB	020H
	DB	020H
	DB	020H
	DB	020H
	DB	020H
	DB	020H
	DB	020H
	DB	020H
	DB	020H
	DB	020H
	DB	020H
	DB	020H
	DB	020H
	DB	020H
	DB	020H
	DB	020H
	DB	020H
	DB	020H
	DB	020H
	DB	020H
	DB	020H
	DB	020H
	DB	020H
	DB	020H
	DB	020H
	DB	020H
	DB	020H
	DB	020H
	DB	0aaH
	DB	020H
	DB	020H
	DB	020H
	DB	020H
	DB	020H
	DB	020H
	DB	020H
	DB	020H
	DB	020H
	DB	020H
	DB	0b5H
	DB	020H
	DB	020H
	DB	020H
	DB	020H
	DB	0baH
	DB	020H
	DB	020H
	DB	020H
	DB	020H
	DB	020H
	DB	0e0H
	DB	0e1H
	DB	0e2H
	DB	0e3H
	DB	0e4H
	DB	0e5H
	DB	0e6H
	DB	0e7H
	DB	0e8H
	DB	0e9H
	DB	0eaH
	DB	0ebH
	DB	0ecH
	DB	0edH
	DB	0eeH
	DB	0efH
	DB	0f0H
	DB	0f1H
	DB	0f2H
	DB	0f3H
	DB	0f4H
	DB	0f5H
	DB	0f6H
	DB	020H
	DB	0f8H
	DB	0f9H
	DB	0faH
	DB	0fbH
	DB	0fcH
	DB	069H
	DB	0feH
	DB	0dfH
	DB	0e0H
	DB	0e1H
	DB	0e2H
	DB	0e3H
	DB	0e4H
	DB	0e5H
	DB	0e6H
	DB	0e7H
	DB	0e8H
	DB	0e9H
	DB	0eaH
	DB	0ebH
	DB	0ecH
	DB	0edH
	DB	0eeH
	DB	0efH
	DB	0f0H
	DB	0f1H
	DB	0f2H
	DB	0f3H
	DB	0f4H
	DB	0f5H
	DB	0f6H
	DB	020H
	DB	0f8H
	DB	0f9H
	DB	0faH
	DB	0fbH
	DB	0fcH
	DB	0fdH
	DB	0feH
	DB	0ffH
_ngrams_windows_1251 DD 020e220H
	DD	020e2eeH
	DD	020e4eeH
	DD	020e7e0H
	DD	020e820H
	DD	020eae0H
	DD	020eaeeH
	DD	020ede0H
	DD	020ede5H
	DD	020eee1H
	DD	020efeeH
	DD	020eff0H
	DD	020f0e0H
	DD	020f1eeH
	DD	020f1f2H
	DD	020f2eeH
	DD	020f7f2H
	DD	020fdf2H
	DD	0e0ede8H
	DD	0e0f2fcH
	DD	0e3ee20H
	DD	0e5ebfcH
	DD	0e5ede8H
	DD	0e5f1f2H
	DD	0e5f220H
	DD	0e820efH
	DD	0e8e520H
	DD	0e8e820H
	DD	0e8ff20H
	DD	0ebe5edH
	DD	0ebe820H
	DD	0ebfcedH
	DD	0ede020H
	DD	0ede520H
	DD	0ede8e5H
	DD	0ede8ffH
	DD	0edee20H
	DD	0edeee2H
	DD	0ee20e2H
	DD	0ee20efH
	DD	0ee20f1H
	DD	0eee220H
	DD	0eee2e0H
	DD	0eee3eeH
	DD	0eee920H
	DD	0eeebfcH
	DD	0eeec20H
	DD	0eef1f2H
	DD	0efeeebH
	DD	0eff0e5H
	DD	0eff0e8H
	DD	0eff0eeH
	DD	0f0e0e2H
	DD	0f0e5e4H
	DD	0f1f2e0H
	DD	0f1f2e2H
	DD	0f1f2e8H
	DD	0f1ff20H
	DD	0f2e5ebH
	DD	0f2ee20H
	DD	0f2eef0H
	DD	0f2fc20H
	DD	0f7f2eeH
	DD	0fbf520H
_charMap_windows_1251 DB 020H
	DB	020H
	DB	020H
	DB	020H
	DB	020H
	DB	020H
	DB	020H
	DB	020H
	DB	020H
	DB	020H
	DB	020H
	DB	020H
	DB	020H
	DB	020H
	DB	020H
	DB	020H
	DB	020H
	DB	020H
	DB	020H
	DB	020H
	DB	020H
	DB	020H
	DB	020H
	DB	020H
	DB	020H
	DB	020H
	DB	020H
	DB	020H
	DB	020H
	DB	020H
	DB	020H
	DB	020H
	DB	020H
	DB	020H
	DB	020H
	DB	020H
	DB	020H
	DB	020H
	DB	020H
	DB	00H
	DB	020H
	DB	020H
	DB	020H
	DB	020H
	DB	020H
	DB	020H
	DB	020H
	DB	020H
	DB	020H
	DB	020H
	DB	020H
	DB	020H
	DB	020H
	DB	020H
	DB	020H
	DB	020H
	DB	020H
	DB	020H
	DB	020H
	DB	020H
	DB	020H
	DB	020H
	DB	020H
	DB	020H
	DB	020H
	DB	061H
	DB	062H
	DB	063H
	DB	064H
	DB	065H
	DB	066H
	DB	067H
	DB	068H
	DB	069H
	DB	06aH
	DB	06bH
	DB	06cH
	DB	06dH
	DB	06eH
	DB	06fH
	DB	070H
	DB	071H
	DB	072H
	DB	073H
	DB	074H
	DB	075H
	DB	076H
	DB	077H
	DB	078H
	DB	079H
	DB	07aH
	DB	020H
	DB	020H
	DB	020H
	DB	020H
	DB	020H
	DB	020H
	DB	061H
	DB	062H
	DB	063H
	DB	064H
	DB	065H
	DB	066H
	DB	067H
	DB	068H
	DB	069H
	DB	06aH
	DB	06bH
	DB	06cH
	DB	06dH
	DB	06eH
	DB	06fH
	DB	070H
	DB	071H
	DB	072H
	DB	073H
	DB	074H
	DB	075H
	DB	076H
	DB	077H
	DB	078H
	DB	079H
	DB	07aH
	DB	020H
	DB	020H
	DB	020H
	DB	020H
	DB	020H
	DB	090H
	DB	083H
	DB	020H
	DB	083H
	DB	020H
	DB	020H
	DB	020H
	DB	020H
	DB	020H
	DB	020H
	DB	09aH
	DB	020H
	DB	09cH
	DB	09dH
	DB	09eH
	DB	09fH
	DB	090H
	DB	020H
	DB	020H
	DB	020H
	DB	020H
	DB	020H
	DB	020H
	DB	020H
	DB	020H
	DB	020H
	DB	09aH
	DB	020H
	DB	09cH
	DB	09dH
	DB	09eH
	DB	09fH
	DB	020H
	DB	0a2H
	DB	0a2H
	DB	0bcH
	DB	020H
	DB	0b4H
	DB	020H
	DB	020H
	DB	0b8H
	DB	020H
	DB	0baH
	DB	020H
	DB	020H
	DB	020H
	DB	020H
	DB	0bfH
	DB	020H
	DB	020H
	DB	0b3H
	DB	0b3H
	DB	0b4H
	DB	0b5H
	DB	020H
	DB	020H
	DB	0b8H
	DB	020H
	DB	0baH
	DB	020H
	DB	0bcH
	DB	0beH
	DB	0beH
	DB	0bfH
	DB	0e0H
	DB	0e1H
	DB	0e2H
	DB	0e3H
	DB	0e4H
	DB	0e5H
	DB	0e6H
	DB	0e7H
	DB	0e8H
	DB	0e9H
	DB	0eaH
	DB	0ebH
	DB	0ecH
	DB	0edH
	DB	0eeH
	DB	0efH
	DB	0f0H
	DB	0f1H
	DB	0f2H
	DB	0f3H
	DB	0f4H
	DB	0f5H
	DB	0f6H
	DB	0f7H
	DB	0f8H
	DB	0f9H
	DB	0faH
	DB	0fbH
	DB	0fcH
	DB	0fdH
	DB	0feH
	DB	0ffH
	DB	0e0H
	DB	0e1H
	DB	0e2H
	DB	0e3H
	DB	0e4H
	DB	0e5H
	DB	0e6H
	DB	0e7H
	DB	0e8H
	DB	0e9H
	DB	0eaH
	DB	0ebH
	DB	0ecH
	DB	0edH
	DB	0eeH
	DB	0efH
	DB	0f0H
	DB	0f1H
	DB	0f2H
	DB	0f3H
	DB	0f4H
	DB	0f5H
	DB	0f6H
	DB	0f7H
	DB	0f8H
	DB	0f9H
	DB	0faH
	DB	0fbH
	DB	0fcH
	DB	0fdH
	DB	0feH
	DB	0ffH
_ngrams_windows_1256 DD 020c7e1H
	DD	020c7e4H
	DD	020c8c7H
	DD	020dae1H
	DD	020ddedH
	DD	020e1e1H
	DD	020e3e4H
	DD	020e6c7H
	DD	0c720c7H
	DD	0c7c120H
	DD	0c7ca20H
	DD	0c7d120H
	DD	0c7e120H
	DD	0c7e1c3H
	DD	0c7e1c7H
	DD	0c7e1c8H
	DD	0c7e1caH
	DD	0c7e1ccH
	DD	0c7e1cdH
	DD	0c7e1cfH
	DD	0c7e1d3H
	DD	0c7e1daH
	DD	0c7e1deH
	DD	0c7e1e3H
	DD	0c7e1e6H
	DD	0c7e1edH
	DD	0c7e320H
	DD	0c7e420H
	DD	0c7e4caH
	DD	0c820c7H
	DD	0c920c7H
	DD	0c920ddH
	DD	0c920e1H
	DD	0c920e3H
	DD	0c920e6H
	DD	0ca20c7H
	DD	0cf20c7H
	DD	0cfc920H
	DD	0d120c7H
	DD	0d1c920H
	DD	0d320c7H
	DD	0da20c7H
	DD	0dae1ecH
	DD	0dded20H
	DD	0e120c7H
	DD	0e1c920H
	DD	0e1ec20H
	DD	0e1ed20H
	DD	0e320c7H
	DD	0e3c720H
	DD	0e3c920H
	DD	0e3e420H
	DD	0e420c7H
	DD	0e520c7H
	DD	0e5c720H
	DD	0e6c7e1H
	DD	0e6e420H
	DD	0ec20c7H
	DD	0ed20c7H
	DD	0ed20e3H
	DD	0ed20e6H
	DD	0edc920H
	DD	0edd120H
	DD	0ede420H
_charMap_windows_1256 DB 020H
	DB	020H
	DB	020H
	DB	020H
	DB	020H
	DB	020H
	DB	020H
	DB	020H
	DB	020H
	DB	020H
	DB	020H
	DB	020H
	DB	020H
	DB	020H
	DB	020H
	DB	020H
	DB	020H
	DB	020H
	DB	020H
	DB	020H
	DB	020H
	DB	020H
	DB	020H
	DB	020H
	DB	020H
	DB	020H
	DB	020H
	DB	020H
	DB	020H
	DB	020H
	DB	020H
	DB	020H
	DB	020H
	DB	020H
	DB	020H
	DB	020H
	DB	020H
	DB	020H
	DB	020H
	DB	00H
	DB	020H
	DB	020H
	DB	020H
	DB	020H
	DB	020H
	DB	020H
	DB	020H
	DB	020H
	DB	020H
	DB	020H
	DB	020H
	DB	020H
	DB	020H
	DB	020H
	DB	020H
	DB	020H
	DB	020H
	DB	020H
	DB	020H
	DB	020H
	DB	020H
	DB	020H
	DB	020H
	DB	020H
	DB	020H
	DB	061H
	DB	062H
	DB	063H
	DB	064H
	DB	065H
	DB	066H
	DB	067H
	DB	068H
	DB	069H
	DB	06aH
	DB	06bH
	DB	06cH
	DB	06dH
	DB	06eH
	DB	06fH
	DB	070H
	DB	071H
	DB	072H
	DB	073H
	DB	074H
	DB	075H
	DB	076H
	DB	077H
	DB	078H
	DB	079H
	DB	07aH
	DB	020H
	DB	020H
	DB	020H
	DB	020H
	DB	020H
	DB	020H
	DB	061H
	DB	062H
	DB	063H
	DB	064H
	DB	065H
	DB	066H
	DB	067H
	DB	068H
	DB	069H
	DB	06aH
	DB	06bH
	DB	06cH
	DB	06dH
	DB	06eH
	DB	06fH
	DB	070H
	DB	071H
	DB	072H
	DB	073H
	DB	074H
	DB	075H
	DB	076H
	DB	077H
	DB	078H
	DB	079H
	DB	07aH
	DB	020H
	DB	020H
	DB	020H
	DB	020H
	DB	020H
	DB	020H
	DB	081H
	DB	020H
	DB	083H
	DB	020H
	DB	020H
	DB	020H
	DB	020H
	DB	088H
	DB	020H
	DB	08aH
	DB	020H
	DB	09cH
	DB	08dH
	DB	08eH
	DB	08fH
	DB	090H
	DB	020H
	DB	020H
	DB	020H
	DB	020H
	DB	020H
	DB	020H
	DB	020H
	DB	098H
	DB	020H
	DB	09aH
	DB	020H
	DB	09cH
	DB	020H
	DB	020H
	DB	09fH
	DB	020H
	DB	020H
	DB	020H
	DB	020H
	DB	020H
	DB	020H
	DB	020H
	DB	020H
	DB	020H
	DB	020H
	DB	0aaH
	DB	020H
	DB	020H
	DB	020H
	DB	020H
	DB	020H
	DB	020H
	DB	020H
	DB	020H
	DB	020H
	DB	020H
	DB	0b5H
	DB	020H
	DB	020H
	DB	020H
	DB	020H
	DB	020H
	DB	020H
	DB	020H
	DB	020H
	DB	020H
	DB	020H
	DB	0c0H
	DB	0c1H
	DB	0c2H
	DB	0c3H
	DB	0c4H
	DB	0c5H
	DB	0c6H
	DB	0c7H
	DB	0c8H
	DB	0c9H
	DB	0caH
	DB	0cbH
	DB	0ccH
	DB	0cdH
	DB	0ceH
	DB	0cfH
	DB	0d0H
	DB	0d1H
	DB	0d2H
	DB	0d3H
	DB	0d4H
	DB	0d5H
	DB	0d6H
	DB	020H
	DB	0d8H
	DB	0d9H
	DB	0daH
	DB	0dbH
	DB	0dcH
	DB	0ddH
	DB	0deH
	DB	0dfH
	DB	0e0H
	DB	0e1H
	DB	0e2H
	DB	0e3H
	DB	0e4H
	DB	0e5H
	DB	0e6H
	DB	0e7H
	DB	0e8H
	DB	0e9H
	DB	0eaH
	DB	0ebH
	DB	0ecH
	DB	0edH
	DB	0eeH
	DB	0efH
	DB	020H
	DB	020H
	DB	020H
	DB	020H
	DB	0f4H
	DB	020H
	DB	020H
	DB	020H
	DB	020H
	DB	0f9H
	DB	020H
	DB	0fbH
	DB	0fcH
	DB	020H
	DB	020H
	DB	0ffH
_ngrams_KOI8_R DD 020c4cfH
	DD	020c920H
	DD	020cbc1H
	DD	020cbcfH
	DD	020cec1H
	DD	020cec5H
	DD	020cfc2H
	DD	020d0cfH
	DD	020d0d2H
	DD	020d2c1H
	DD	020d3cfH
	DD	020d3d4H
	DD	020d4cfH
	DD	020d720H
	DD	020d7cfH
	DD	020dac1H
	DD	020dcd4H
	DD	020ded4H
	DD	0c1cec9H
	DD	0c1d4d8H
	DD	0c5ccd8H
	DD	0c5cec9H
	DD	0c5d3d4H
	DD	0c5d420H
	DD	0c7cf20H
	DD	0c920d0H
	DD	0c9c520H
	DD	0c9c920H
	DD	0c9d120H
	DD	0ccc5ceH
	DD	0ccc920H
	DD	0ccd8ceH
	DD	0cec120H
	DD	0cec520H
	DD	0cec9c5H
	DD	0cec9d1H
	DD	0cecf20H
	DD	0cecfd7H
	DD	0cf20d0H
	DD	0cf20d3H
	DD	0cf20d7H
	DD	0cfc7cfH
	DD	0cfca20H
	DD	0cfccd8H
	DD	0cfcd20H
	DD	0cfd3d4H
	DD	0cfd720H
	DD	0cfd7c1H
	DD	0d0cfccH
	DD	0d0d2c5H
	DD	0d0d2c9H
	DD	0d0d2cfH
	DD	0d2c1d7H
	DD	0d2c5c4H
	DD	0d3d120H
	DD	0d3d4c1H
	DD	0d3d4c9H
	DD	0d3d4d7H
	DD	0d4c5ccH
	DD	0d4cf20H
	DD	0d4cfd2H
	DD	0d4d820H
	DD	0d9c820H
	DD	0ded4cfH
_charMap_KOI8_R DB 020H
	DB	020H
	DB	020H
	DB	020H
	DB	020H
	DB	020H
	DB	020H
	DB	020H
	DB	020H
	DB	020H
	DB	020H
	DB	020H
	DB	020H
	DB	020H
	DB	020H
	DB	020H
	DB	020H
	DB	020H
	DB	020H
	DB	020H
	DB	020H
	DB	020H
	DB	020H
	DB	020H
	DB	020H
	DB	020H
	DB	020H
	DB	020H
	DB	020H
	DB	020H
	DB	020H
	DB	020H
	DB	020H
	DB	020H
	DB	020H
	DB	020H
	DB	020H
	DB	020H
	DB	020H
	DB	00H
	DB	020H
	DB	020H
	DB	020H
	DB	020H
	DB	020H
	DB	020H
	DB	020H
	DB	020H
	DB	020H
	DB	020H
	DB	020H
	DB	020H
	DB	020H
	DB	020H
	DB	020H
	DB	020H
	DB	020H
	DB	020H
	DB	020H
	DB	020H
	DB	020H
	DB	020H
	DB	020H
	DB	020H
	DB	020H
	DB	061H
	DB	062H
	DB	063H
	DB	064H
	DB	065H
	DB	066H
	DB	067H
	DB	068H
	DB	069H
	DB	06aH
	DB	06bH
	DB	06cH
	DB	06dH
	DB	06eH
	DB	06fH
	DB	070H
	DB	071H
	DB	072H
	DB	073H
	DB	074H
	DB	075H
	DB	076H
	DB	077H
	DB	078H
	DB	079H
	DB	07aH
	DB	020H
	DB	020H
	DB	020H
	DB	020H
	DB	020H
	DB	020H
	DB	061H
	DB	062H
	DB	063H
	DB	064H
	DB	065H
	DB	066H
	DB	067H
	DB	068H
	DB	069H
	DB	06aH
	DB	06bH
	DB	06cH
	DB	06dH
	DB	06eH
	DB	06fH
	DB	070H
	DB	071H
	DB	072H
	DB	073H
	DB	074H
	DB	075H
	DB	076H
	DB	077H
	DB	078H
	DB	079H
	DB	07aH
	DB	020H
	DB	020H
	DB	020H
	DB	020H
	DB	020H
	DB	020H
	DB	020H
	DB	020H
	DB	020H
	DB	020H
	DB	020H
	DB	020H
	DB	020H
	DB	020H
	DB	020H
	DB	020H
	DB	020H
	DB	020H
	DB	020H
	DB	020H
	DB	020H
	DB	020H
	DB	020H
	DB	020H
	DB	020H
	DB	020H
	DB	020H
	DB	020H
	DB	020H
	DB	020H
	DB	020H
	DB	020H
	DB	020H
	DB	020H
	DB	020H
	DB	020H
	DB	020H
	DB	020H
	DB	020H
	DB	020H
	DB	0a3H
	DB	020H
	DB	020H
	DB	020H
	DB	020H
	DB	020H
	DB	020H
	DB	020H
	DB	020H
	DB	020H
	DB	020H
	DB	020H
	DB	020H
	DB	020H
	DB	020H
	DB	020H
	DB	0a3H
	DB	020H
	DB	020H
	DB	020H
	DB	020H
	DB	020H
	DB	020H
	DB	020H
	DB	020H
	DB	020H
	DB	020H
	DB	020H
	DB	020H
	DB	0c0H
	DB	0c1H
	DB	0c2H
	DB	0c3H
	DB	0c4H
	DB	0c5H
	DB	0c6H
	DB	0c7H
	DB	0c8H
	DB	0c9H
	DB	0caH
	DB	0cbH
	DB	0ccH
	DB	0cdH
	DB	0ceH
	DB	0cfH
	DB	0d0H
	DB	0d1H
	DB	0d2H
	DB	0d3H
	DB	0d4H
	DB	0d5H
	DB	0d6H
	DB	0d7H
	DB	0d8H
	DB	0d9H
	DB	0daH
	DB	0dbH
	DB	0dcH
	DB	0ddH
	DB	0deH
	DB	0dfH
	DB	0c0H
	DB	0c1H
	DB	0c2H
	DB	0c3H
	DB	0c4H
	DB	0c5H
	DB	0c6H
	DB	0c7H
	DB	0c8H
	DB	0c9H
	DB	0caH
	DB	0cbH
	DB	0ccH
	DB	0cdH
	DB	0ceH
	DB	0cfH
	DB	0d0H
	DB	0d1H
	DB	0d2H
	DB	0d3H
	DB	0d4H
	DB	0d5H
	DB	0d6H
	DB	0d7H
	DB	0d8H
	DB	0d9H
	DB	0daH
	DB	0dbH
	DB	0dcH
	DB	0ddH
	DB	0deH
	DB	0dfH
_ngrams_IBM424_he_rtl DD 0404146H
	DD	0404148H
	DD	0404151H
	DD	0404171H
	DD	0404251H
	DD	0404256H
	DD	0404541H
	DD	0404546H
	DD	0404551H
	DD	0404556H
	DD	0404562H
	DD	0404569H
	DD	0404571H
	DD	0405441H
	DD	0405445H
	DD	0405641H
	DD	0406254H
	DD	0406954H
	DD	0417140H
	DD	0454041H
	DD	0454042H
	DD	0454045H
	DD	0454054H
	DD	0454056H
	DD	0454069H
	DD	0454641H
	DD	0464140H
	DD	0465540H
	DD	0465740H
	DD	0466840H
	DD	0467140H
	DD	0514045H
	DD	0514540H
	DD	0514671H
	DD	0515155H
	DD	0515540H
	DD	0515740H
	DD	0516840H
	DD	0517140H
	DD	0544041H
	DD	0544045H
	DD	0544140H
	DD	0544540H
	DD	0554041H
	DD	0554042H
	DD	0554045H
	DD	0554054H
	DD	0554056H
	DD	0554069H
	DD	0564540H
	DD	0574045H
	DD	0584540H
	DD	0585140H
	DD	0585155H
	DD	0625440H
	DD	0684045H
	DD	0685155H
	DD	0695440H
	DD	0714041H
	DD	0714042H
	DD	0714045H
	DD	0714054H
	DD	0714056H
	DD	0714069H
_ngrams_IBM424_he_ltr DD 0404146H
	DD	0404154H
	DD	0404551H
	DD	0404554H
	DD	0404556H
	DD	0404558H
	DD	0405158H
	DD	0405462H
	DD	0405469H
	DD	0405546H
	DD	0405551H
	DD	0405746H
	DD	0405751H
	DD	0406846H
	DD	0406851H
	DD	0407141H
	DD	0407146H
	DD	0407151H
	DD	0414045H
	DD	0414054H
	DD	0414055H
	DD	0414071H
	DD	0414540H
	DD	0414645H
	DD	0415440H
	DD	0415640H
	DD	0424045H
	DD	0424055H
	DD	0424071H
	DD	0454045H
	DD	0454051H
	DD	0454054H
	DD	0454055H
	DD	0454057H
	DD	0454068H
	DD	0454071H
	DD	0455440H
	DD	0464140H
	DD	0464540H
	DD	0484140H
	DD	0514140H
	DD	0514240H
	DD	0514540H
	DD	0544045H
	DD	0544055H
	DD	0544071H
	DD	0546240H
	DD	0546940H
	DD	0555151H
	DD	0555158H
	DD	0555168H
	DD	0564045H
	DD	0564055H
	DD	0564071H
	DD	0564240H
	DD	0564540H
	DD	0624540H
	DD	0694045H
	DD	0694055H
	DD	0694071H
	DD	0694540H
	DD	0714140H
	DD	0714540H
	DD	0714651H
_charMap_IBM424_he DB 040H
	DB	040H
	DB	040H
	DB	040H
	DB	040H
	DB	040H
	DB	040H
	DB	040H
	DB	040H
	DB	040H
	DB	040H
	DB	040H
	DB	040H
	DB	040H
	DB	040H
	DB	040H
	DB	040H
	DB	040H
	DB	040H
	DB	040H
	DB	040H
	DB	040H
	DB	040H
	DB	040H
	DB	040H
	DB	040H
	DB	040H
	DB	040H
	DB	040H
	DB	040H
	DB	040H
	DB	040H
	DB	040H
	DB	040H
	DB	040H
	DB	040H
	DB	040H
	DB	040H
	DB	040H
	DB	040H
	DB	040H
	DB	040H
	DB	040H
	DB	040H
	DB	040H
	DB	040H
	DB	040H
	DB	040H
	DB	040H
	DB	040H
	DB	040H
	DB	040H
	DB	040H
	DB	040H
	DB	040H
	DB	040H
	DB	040H
	DB	040H
	DB	040H
	DB	040H
	DB	040H
	DB	040H
	DB	040H
	DB	040H
	DB	040H
	DB	041H
	DB	042H
	DB	043H
	DB	044H
	DB	045H
	DB	046H
	DB	047H
	DB	048H
	DB	049H
	DB	040H
	DB	040H
	DB	040H
	DB	040H
	DB	040H
	DB	040H
	DB	040H
	DB	051H
	DB	052H
	DB	053H
	DB	054H
	DB	055H
	DB	056H
	DB	057H
	DB	058H
	DB	059H
	DB	040H
	DB	040H
	DB	040H
	DB	040H
	DB	040H
	DB	040H
	DB	040H
	DB	040H
	DB	062H
	DB	063H
	DB	064H
	DB	065H
	DB	066H
	DB	067H
	DB	068H
	DB	069H
	DB	040H
	DB	040H
	DB	040H
	DB	040H
	DB	040H
	DB	040H
	DB	040H
	DB	071H
	DB	040H
	DB	040H
	DB	040H
	DB	040H
	DB	040H
	DB	040H
	DB	040H
	DB	040H
	DB	040H
	DB	040H
	DB	040H
	DB	00H
	DB	040H
	DB	040H
	DB	040H
	DB	081H
	DB	082H
	DB	083H
	DB	084H
	DB	085H
	DB	086H
	DB	087H
	DB	088H
	DB	089H
	DB	040H
	DB	040H
	DB	040H
	DB	040H
	DB	040H
	DB	040H
	DB	040H
	DB	091H
	DB	092H
	DB	093H
	DB	094H
	DB	095H
	DB	096H
	DB	097H
	DB	098H
	DB	099H
	DB	040H
	DB	040H
	DB	040H
	DB	040H
	DB	040H
	DB	040H
	DB	0a0H
	DB	040H
	DB	0a2H
	DB	0a3H
	DB	0a4H
	DB	0a5H
	DB	0a6H
	DB	0a7H
	DB	0a8H
	DB	0a9H
	DB	040H
	DB	040H
	DB	040H
	DB	040H
	DB	040H
	DB	040H
	DB	040H
	DB	040H
	DB	040H
	DB	040H
	DB	040H
	DB	040H
	DB	040H
	DB	040H
	DB	040H
	DB	040H
	DB	040H
	DB	040H
	DB	040H
	DB	040H
	DB	040H
	DB	040H
	DB	040H
	DB	081H
	DB	082H
	DB	083H
	DB	084H
	DB	085H
	DB	086H
	DB	087H
	DB	088H
	DB	089H
	DB	040H
	DB	040H
	DB	040H
	DB	040H
	DB	040H
	DB	040H
	DB	040H
	DB	091H
	DB	092H
	DB	093H
	DB	094H
	DB	095H
	DB	096H
	DB	097H
	DB	098H
	DB	099H
	DB	040H
	DB	040H
	DB	040H
	DB	040H
	DB	040H
	DB	040H
	DB	040H
	DB	040H
	DB	0a2H
	DB	0a3H
	DB	0a4H
	DB	0a5H
	DB	0a6H
	DB	0a7H
	DB	0a8H
	DB	0a9H
	DB	040H
	DB	040H
	DB	040H
	DB	040H
	DB	040H
	DB	040H
	DB	040H
	DB	040H
	DB	040H
	DB	040H
	DB	040H
	DB	040H
	DB	040H
	DB	040H
	DB	040H
	DB	040H
	DB	040H
	DB	040H
	DB	040H
	DB	040H
	DB	040H
	DB	040H
_ngrams_IBM420_ar_rtl DD 04056b1H
	DD	04056bdH
	DD	0405856H
	DD	0409ab1H
	DD	040abdcH
	DD	040b1b1H
	DD	040bbbdH
	DD	040cf56H
	DD	0564056H
	DD	0564640H
	DD	0566340H
	DD	0567540H
	DD	056b140H
	DD	056b149H
	DD	056b156H
	DD	056b158H
	DD	056b163H
	DD	056b167H
	DD	056b169H
	DD	056b173H
	DD	056b178H
	DD	056b19aH
	DD	056b1adH
	DD	056b1bbH
	DD	056b1cfH
	DD	056b1dcH
	DD	056bb40H
	DD	056bd40H
	DD	056bd63H
	DD	0584056H
	DD	0624056H
	DD	06240abH
	DD	06240b1H
	DD	06240bbH
	DD	06240cfH
	DD	0634056H
	DD	0734056H
	DD	0736240H
	DD	0754056H
	DD	0756240H
	DD	0784056H
	DD	09a4056H
	DD	09ab1daH
	DD	0abdc40H
	DD	0b14056H
	DD	0b16240H
	DD	0b1da40H
	DD	0b1dc40H
	DD	0bb4056H
	DD	0bb5640H
	DD	0bb6240H
	DD	0bbbd40H
	DD	0bd4056H
	DD	0bf4056H
	DD	0bf5640H
	DD	0cf56b1H
	DD	0cfbd40H
	DD	0da4056H
	DD	0dc4056H
	DD	0dc40bbH
	DD	0dc40cfH
	DD	0dc6240H
	DD	0dc7540H
	DD	0dcbd40H
_ngrams_IBM420_ar_ltr DD 0404656H
	DD	04056bbH
	DD	04056bfH
	DD	0406273H
	DD	0406275H
	DD	04062b1H
	DD	04062bbH
	DD	04062dcH
	DD	0406356H
	DD	0407556H
	DD	04075dcH
	DD	040b156H
	DD	040bb56H
	DD	040bd56H
	DD	040bdbbH
	DD	040bdcfH
	DD	040bddcH
	DD	040dab1H
	DD	040dcabH
	DD	040dcb1H
	DD	049b156H
	DD	0564056H
	DD	0564058H
	DD	0564062H
	DD	0564063H
	DD	0564073H
	DD	0564075H
	DD	0564078H
	DD	056409aH
	DD	05640b1H
	DD	05640bbH
	DD	05640bdH
	DD	05640bfH
	DD	05640daH
	DD	05640dcH
	DD	0565840H
	DD	056b156H
	DD	056cf40H
	DD	058b156H
	DD	063b156H
	DD	063bd56H
	DD	067b156H
	DD	069b156H
	DD	073b156H
	DD	078b156H
	DD	09ab156H
	DD	0ab4062H
	DD	0adb156H
	DD	0b14062H
	DD	0b15640H
	DD	0b156cfH
	DD	0b19a40H
	DD	0b1b140H
	DD	0bb4062H
	DD	0bb40dcH
	DD	0bbb156H
	DD	0bd5640H
	DD	0bdbb40H
	DD	0cf4062H
	DD	0cf40dcH
	DD	0cfb156H
	DD	0dab19aH
	DD	0dcab40H
	DD	0dcb156H
_charMap_IBM420_ar DB 040H
	DB	040H
	DB	040H
	DB	040H
	DB	040H
	DB	040H
	DB	040H
	DB	040H
	DB	040H
	DB	040H
	DB	040H
	DB	040H
	DB	040H
	DB	040H
	DB	040H
	DB	040H
	DB	040H
	DB	040H
	DB	040H
	DB	040H
	DB	040H
	DB	040H
	DB	040H
	DB	040H
	DB	040H
	DB	040H
	DB	040H
	DB	040H
	DB	040H
	DB	040H
	DB	040H
	DB	040H
	DB	040H
	DB	040H
	DB	040H
	DB	040H
	DB	040H
	DB	040H
	DB	040H
	DB	040H
	DB	040H
	DB	040H
	DB	040H
	DB	040H
	DB	040H
	DB	040H
	DB	040H
	DB	040H
	DB	040H
	DB	040H
	DB	040H
	DB	040H
	DB	040H
	DB	040H
	DB	040H
	DB	040H
	DB	040H
	DB	040H
	DB	040H
	DB	040H
	DB	040H
	DB	040H
	DB	040H
	DB	040H
	DB	040H
	DB	040H
	DB	042H
	DB	043H
	DB	044H
	DB	045H
	DB	046H
	DB	047H
	DB	048H
	DB	049H
	DB	040H
	DB	040H
	DB	040H
	DB	040H
	DB	040H
	DB	040H
	DB	040H
	DB	051H
	DB	052H
	DB	040H
	DB	040H
	DB	055H
	DB	056H
	DB	057H
	DB	058H
	DB	059H
	DB	040H
	DB	040H
	DB	040H
	DB	040H
	DB	040H
	DB	040H
	DB	040H
	DB	040H
	DB	062H
	DB	063H
	DB	064H
	DB	065H
	DB	066H
	DB	067H
	DB	068H
	DB	069H
	DB	040H
	DB	040H
	DB	040H
	DB	040H
	DB	040H
	DB	040H
	DB	070H
	DB	071H
	DB	072H
	DB	073H
	DB	074H
	DB	075H
	DB	076H
	DB	077H
	DB	078H
	DB	079H
	DB	040H
	DB	040H
	DB	040H
	DB	040H
	DB	040H
	DB	040H
	DB	080H
	DB	081H
	DB	082H
	DB	083H
	DB	084H
	DB	085H
	DB	086H
	DB	087H
	DB	088H
	DB	089H
	DB	08aH
	DB	08bH
	DB	08cH
	DB	08dH
	DB	08eH
	DB	08fH
	DB	090H
	DB	091H
	DB	092H
	DB	093H
	DB	094H
	DB	095H
	DB	096H
	DB	097H
	DB	098H
	DB	099H
	DB	09aH
	DB	09bH
	DB	09cH
	DB	09dH
	DB	09eH
	DB	09fH
	DB	0a0H
	DB	040H
	DB	0a2H
	DB	0a3H
	DB	0a4H
	DB	0a5H
	DB	0a6H
	DB	0a7H
	DB	0a8H
	DB	0a9H
	DB	0aaH
	DB	0abH
	DB	0acH
	DB	0adH
	DB	0aeH
	DB	0afH
	DB	0b0H
	DB	0b1H
	DB	0b2H
	DB	0b3H
	DB	0b4H
	DB	0b5H
	DB	040H
	DB	040H
	DB	0b8H
	DB	0b9H
	DB	0baH
	DB	0bbH
	DB	0bcH
	DB	0bdH
	DB	0beH
	DB	0bfH
	DB	040H
	DB	081H
	DB	082H
	DB	083H
	DB	084H
	DB	085H
	DB	086H
	DB	087H
	DB	088H
	DB	089H
	DB	040H
	DB	0cbH
	DB	040H
	DB	0cdH
	DB	040H
	DB	0cfH
	DB	040H
	DB	091H
	DB	092H
	DB	093H
	DB	094H
	DB	095H
	DB	096H
	DB	097H
	DB	098H
	DB	099H
	DB	0daH
	DB	0dbH
	DB	0dcH
	DB	0ddH
	DB	0deH
	DB	0dfH
	DB	040H
	DB	040H
	DB	0a2H
	DB	0a3H
	DB	0a4H
	DB	0a5H
	DB	0a6H
	DB	0a7H
	DB	0a8H
	DB	0a9H
	DB	0eaH
	DB	0ebH
	DB	040H
	DB	0edH
	DB	0eeH
	DB	0efH
	DB	040H
	DB	040H
	DB	040H
	DB	040H
	DB	040H
	DB	040H
	DB	040H
	DB	040H
	DB	040H
	DB	040H
	DB	040H
	DB	0fbH
	DB	0fcH
	DB	0fdH
	DB	0feH
	DB	040H
_ngrams_8859_5_ru DD 020d220H
	DD	020d2deH
	DD	020d4deH
	DD	020d7d0H
	DD	020d820H
	DD	020dad0H
	DD	020dadeH
	DD	020ddd0H
	DD	020ddd5H
	DD	020ded1H
	DD	020dfdeH
	DD	020dfe0H
	DD	020e0d0H
	DD	020e1deH
	DD	020e1e2H
	DD	020e2deH
	DD	020e7e2H
	DD	020ede2H
	DD	0d0ddd8H
	DD	0d0e2ecH
	DD	0d3de20H
	DD	0d5dbecH
	DD	0d5ddd8H
	DD	0d5e1e2H
	DD	0d5e220H
	DD	0d820dfH
	DD	0d8d520H
	DD	0d8d820H
	DD	0d8ef20H
	DD	0dbd5ddH
	DD	0dbd820H
	DD	0dbecddH
	DD	0ddd020H
	DD	0ddd520H
	DD	0ddd8d5H
	DD	0ddd8efH
	DD	0ddde20H
	DD	0ddded2H
	DD	0de20d2H
	DD	0de20dfH
	DD	0de20e1H
	DD	0ded220H
	DD	0ded2d0H
	DD	0ded3deH
	DD	0ded920H
	DD	0dedbecH
	DD	0dedc20H
	DD	0dee1e2H
	DD	0dfdedbH
	DD	0dfe0d5H
	DD	0dfe0d8H
	DD	0dfe0deH
	DD	0e0d0d2H
	DD	0e0d5d4H
	DD	0e1e2d0H
	DD	0e1e2d2H
	DD	0e1e2d8H
	DD	0e1ef20H
	DD	0e2d5dbH
	DD	0e2de20H
	DD	0e2dee0H
	DD	0e2ec20H
	DD	0e7e2deH
	DD	0ebe520H
_ngrams_8859_6_ar DD 020c7e4H
	DD	020c7e6H
	DD	020c8c7H
	DD	020d9e4H
	DD	020e1eaH
	DD	020e4e4H
	DD	020e5e6H
	DD	020e8c7H
	DD	0c720c7H
	DD	0c7c120H
	DD	0c7ca20H
	DD	0c7d120H
	DD	0c7e420H
	DD	0c7e4c3H
	DD	0c7e4c7H
	DD	0c7e4c8H
	DD	0c7e4caH
	DD	0c7e4ccH
	DD	0c7e4cdH
	DD	0c7e4cfH
	DD	0c7e4d3H
	DD	0c7e4d9H
	DD	0c7e4e2H
	DD	0c7e4e5H
	DD	0c7e4e8H
	DD	0c7e4eaH
	DD	0c7e520H
	DD	0c7e620H
	DD	0c7e6caH
	DD	0c820c7H
	DD	0c920c7H
	DD	0c920e1H
	DD	0c920e4H
	DD	0c920e5H
	DD	0c920e8H
	DD	0ca20c7H
	DD	0cf20c7H
	DD	0cfc920H
	DD	0d120c7H
	DD	0d1c920H
	DD	0d320c7H
	DD	0d920c7H
	DD	0d9e4e9H
	DD	0e1ea20H
	DD	0e420c7H
	DD	0e4c920H
	DD	0e4e920H
	DD	0e4ea20H
	DD	0e520c7H
	DD	0e5c720H
	DD	0e5c920H
	DD	0e5e620H
	DD	0e620c7H
	DD	0e720c7H
	DD	0e7c720H
	DD	0e8c7e4H
	DD	0e8e620H
	DD	0e920c7H
	DD	0ea20c7H
	DD	0ea20e5H
	DD	0ea20e8H
	DD	0eac920H
	DD	0ead120H
	DD	0eae620H
_ngrams_8859_7_el DD 020e1edH
	DD	020e1f0H
	DD	020e3e9H
	DD	020e4e9H
	DD	020e5f0H
	DD	020e720H
	DD	020eae1H
	DD	020ece5H
	DD	020ede1H
	DD	020ef20H
	DD	020f0e1H
	DD	020f0efH
	DD	020f0f1H
	DD	020f3f4H
	DD	020f3f5H
	DD	020f4e7H
	DD	020f4efH
	DD	0dfe120H
	DD	0e120e1H
	DD	0e120f4H
	DD	0e1e920H
	DD	0e1ed20H
	DD	0e1f0fcH
	DD	0e1f220H
	DD	0e3e9e1H
	DD	0e5e920H
	DD	0e5f220H
	DD	0e720f4H
	DD	0e7ed20H
	DD	0e7f220H
	DD	0e920f4H
	DD	0e9e120H
	DD	0e9eadeH
	DD	0e9f220H
	DD	0eae1e9H
	DD	0eae1f4H
	DD	0ece520H
	DD	0ed20e1H
	DD	0ed20e5H
	DD	0ed20f0H
	DD	0ede120H
	DD	0eff220H
	DD	0eff520H
	DD	0f0eff5H
	DD	0f0f1efH
	DD	0f0fc20H
	DD	0f220e1H
	DD	0f220e5H
	DD	0f220eaH
	DD	0f220f0H
	DD	0f220f4H
	DD	0f3e520H
	DD	0f3e720H
	DD	0f3f4efH
	DD	0f4e120H
	DD	0f4e1e9H
	DD	0f4e7edH
	DD	0f4e7f2H
	DD	0f4e9eaH
	DD	0f4ef20H
	DD	0f4eff5H
	DD	0f4f9edH
	DD	0f9ed20H
	DD	0feed20H
_ngrams_8859_8_I_he DD 020e0e5H
	DD	020e0e7H
	DD	020e0e9H
	DD	020e0faH
	DD	020e1e9H
	DD	020e1eeH
	DD	020e4e0H
	DD	020e4e5H
	DD	020e4e9H
	DD	020e4eeH
	DD	020e4f2H
	DD	020e4f9H
	DD	020e4faH
	DD	020ece0H
	DD	020ece4H
	DD	020eee0H
	DD	020f2ecH
	DD	020f9ecH
	DD	0e0fa20H
	DD	0e420e0H
	DD	0e420e1H
	DD	0e420e4H
	DD	0e420ecH
	DD	0e420eeH
	DD	0e420f9H
	DD	0e4e5e0H
	DD	0e5e020H
	DD	0e5ed20H
	DD	0e5ef20H
	DD	0e5f820H
	DD	0e5fa20H
	DD	0e920e4H
	DD	0e9e420H
	DD	0e9e5faH
	DD	0e9e9edH
	DD	0e9ed20H
	DD	0e9ef20H
	DD	0e9f820H
	DD	0e9fa20H
	DD	0ec20e0H
	DD	0ec20e4H
	DD	0ece020H
	DD	0ece420H
	DD	0ed20e0H
	DD	0ed20e1H
	DD	0ed20e4H
	DD	0ed20ecH
	DD	0ed20eeH
	DD	0ed20f9H
	DD	0eee420H
	DD	0ef20e4H
	DD	0f0e420H
	DD	0f0e920H
	DD	0f0e9edH
	DD	0f2ec20H
	DD	0f820e4H
	DD	0f8e9edH
	DD	0f9ec20H
	DD	0fa20e0H
	DD	0fa20e1H
	DD	0fa20e4H
	DD	0fa20ecH
	DD	0fa20eeH
	DD	0fa20f9H
_ngrams_8859_8_he DD 020e0e5H
	DD	020e0ecH
	DD	020e4e9H
	DD	020e4ecH
	DD	020e4eeH
	DD	020e4f0H
	DD	020e9f0H
	DD	020ecf2H
	DD	020ecf9H
	DD	020ede5H
	DD	020ede9H
	DD	020efe5H
	DD	020efe9H
	DD	020f8e5H
	DD	020f8e9H
	DD	020fae0H
	DD	020fae5H
	DD	020fae9H
	DD	0e020e4H
	DD	0e020ecH
	DD	0e020edH
	DD	0e020faH
	DD	0e0e420H
	DD	0e0e5e4H
	DD	0e0ec20H
	DD	0e0ee20H
	DD	0e120e4H
	DD	0e120edH
	DD	0e120faH
	DD	0e420e4H
	DD	0e420e9H
	DD	0e420ecH
	DD	0e420edH
	DD	0e420efH
	DD	0e420f8H
	DD	0e420faH
	DD	0e4ec20H
	DD	0e5e020H
	DD	0e5e420H
	DD	0e7e020H
	DD	0e9e020H
	DD	0e9e120H
	DD	0e9e420H
	DD	0ec20e4H
	DD	0ec20edH
	DD	0ec20faH
	DD	0ecf220H
	DD	0ecf920H
	DD	0ede9e9H
	DD	0ede9f0H
	DD	0ede9f8H
	DD	0ee20e4H
	DD	0ee20edH
	DD	0ee20faH
	DD	0eee120H
	DD	0eee420H
	DD	0f2e420H
	DD	0f920e4H
	DD	0f920edH
	DD	0f920faH
	DD	0f9e420H
	DD	0fae020H
	DD	0fae420H
	DD	0fae5e9H
_ngrams_8859_9_tr DD 0206261H
	DD	0206269H
	DD	0206275H
	DD	0206461H
	DD	0206465H
	DD	0206765H
	DD	0206861H
	DD	020696cH
	DD	0206b61H
	DD	0206b6fH
	DD	0206d61H
	DD	0206f6cH
	DD	0207361H
	DD	0207461H
	DD	0207665H
	DD	0207961H
	DD	0612062H
	DD	0616b20H
	DD	0616c61H
	DD	0616d61H
	DD	0616e20H
	DD	0616efdH
	DD	0617220H
	DD	0617261H
	DD	06172fdH
	DD	06173fdH
	DD	0617961H
	DD	0626972H
	DD	0646120H
	DD	0646520H
	DD	0646920H
	DD	0652062H
	DD	065206bH
	DD	0656469H
	DD	0656e20H
	DD	0657220H
	DD	0657269H
	DD	0657369H
	DD	0696c65H
	DD	0696e20H
	DD	0696e69H
	DD	0697220H
	DD	06c616eH
	DD	06c6172H
	DD	06c6520H
	DD	06c6572H
	DD	06e2061H
	DD	06e2062H
	DD	06e206bH
	DD	06e6461H
	DD	06e6465H
	DD	06e6520H
	DD	06e6920H
	DD	06e696eH
	DD	06efd20H
	DD	072696eH
	DD	072fd6eH
	DD	0766520H
	DD	0796120H
	DD	0796f72H
	DD	0fd6e20H
	DD	0fd6e64H
	DD	0fd6efdH
	DD	0fdf0fdH
CONST	ENDS
PUBLIC	??2@YAPAXI@Z					; operator new
EXTRN	__RTC_Shutdown:PROC
EXTRN	__RTC_InitBase:PROC
;	COMDAT rtc$TMZ
; File d:\mozilla\intl\icu\include\unicode\utypes.h
rtc$TMZ	SEGMENT
__RTC_Shutdown.rtc$TMZ DD FLAT:__RTC_Shutdown
rtc$TMZ	ENDS
;	COMDAT rtc$IMZ
rtc$IMZ	SEGMENT
__RTC_InitBase.rtc$IMZ DD FLAT:__RTC_InitBase
; Function compile flags: /Odtp /RTCsu /ZI
rtc$IMZ	ENDS
;	COMDAT ??2@YAPAXI@Z
_TEXT	SEGMENT
_q$ = -8						; size = 4
___formal$ = 8						; size = 4
??2@YAPAXI@Z PROC					; operator new, COMDAT
; Line 411
	push	ebp
	mov	ebp, esp
	sub	esp, 204				; 000000ccH
	push	ebx
	push	esi
	push	edi
	lea	edi, DWORD PTR [ebp-204]
	mov	ecx, 51					; 00000033H
	mov	eax, -858993460				; ccccccccH
	rep stosd
; Line 412
	mov	DWORD PTR _q$[ebp], 0
; Line 413
	mov	eax, DWORD PTR _q$[ebp]
	mov	BYTE PTR [eax], 5
; Line 414
	mov	eax, DWORD PTR _q$[ebp]
; Line 415
	pop	edi
	pop	esi
	pop	ebx
	mov	esp, ebp
	pop	ebp
	ret	0
??2@YAPAXI@Z ENDP					; operator new
_TEXT	ENDS
PUBLIC	??3@YAXPAX@Z					; operator delete
; Function compile flags: /Odtp /RTCsu /ZI
;	COMDAT ??3@YAXPAX@Z
_TEXT	SEGMENT
_q$ = -8						; size = 4
___formal$ = 8						; size = 4
??3@YAXPAX@Z PROC					; operator delete, COMDAT
; Line 439
	push	ebp
	mov	ebp, esp
	sub	esp, 204				; 000000ccH
	push	ebx
	push	esi
	push	edi
	lea	edi, DWORD PTR [ebp-204]
	mov	ecx, 51					; 00000033H
	mov	eax, -858993460				; ccccccccH
	rep stosd
; Line 440
	mov	DWORD PTR _q$[ebp], 0
; Line 441
	mov	eax, DWORD PTR _q$[ebp]
	mov	BYTE PTR [eax], 5
; Line 442
	pop	edi
	pop	esi
	pop	ebx
	mov	esp, ebp
	pop	ebp
	ret	0
??3@YAXPAX@Z ENDP					; operator delete
_TEXT	ENDS
PUBLIC	??_7NGramParser@icu_56@@6B@			; icu_56::NGramParser::`vftable'
PUBLIC	??0NGramParser@icu_56@@QAE@PBHPBE@Z		; icu_56::NGramParser::NGramParser
PUBLIC	??_R4NGramParser@icu_56@@6B@			; icu_56::NGramParser::`RTTI Complete Object Locator'
PUBLIC	??_R0?AVNGramParser@icu_56@@@8			; icu_56::NGramParser `RTTI Type Descriptor'
PUBLIC	??_R3NGramParser@icu_56@@8			; icu_56::NGramParser::`RTTI Class Hierarchy Descriptor'
PUBLIC	??_R2NGramParser@icu_56@@8			; icu_56::NGramParser::`RTTI Base Class Array'
PUBLIC	??_R1A@?0A@EA@NGramParser@icu_56@@8		; icu_56::NGramParser::`RTTI Base Class Descriptor at (0,-1,0,64)'
PUBLIC	??_R13?0A@EA@UMemory@icu_56@@8			; icu_56::UMemory::`RTTI Base Class Descriptor at (4,-1,0,64)'
PUBLIC	??_R0?AVUMemory@icu_56@@@8			; icu_56::UMemory `RTTI Type Descriptor'
PUBLIC	??_R3UMemory@icu_56@@8				; icu_56::UMemory::`RTTI Class Hierarchy Descriptor'
PUBLIC	??_R2UMemory@icu_56@@8				; icu_56::UMemory::`RTTI Base Class Array'
PUBLIC	??_R1A@?0A@EA@UMemory@icu_56@@8			; icu_56::UMemory::`RTTI Base Class Descriptor at (0,-1,0,64)'
PUBLIC	?nextByte@NGramParser@icu_56@@EAEHPAVInputText@2@@Z ; icu_56::NGramParser::nextByte
PUBLIC	?parseCharacters@NGramParser@icu_56@@EAEXPAVInputText@2@@Z ; icu_56::NGramParser::parseCharacters
EXTRN	??_7type_info@@6B@:QWORD			; type_info::`vftable'
EXTRN	??_ENGramParser@icu_56@@UAEPAXI@Z:PROC		; icu_56::NGramParser::`vector deleting destructor'
;	COMDAT ??_R1A@?0A@EA@UMemory@icu_56@@8
; File d:\mozilla\intl\icu\source\i18n\csrsbcs.cpp
rdata$r	SEGMENT
??_R1A@?0A@EA@UMemory@icu_56@@8 DD FLAT:??_R0?AVUMemory@icu_56@@@8 ; icu_56::UMemory::`RTTI Base Class Descriptor at (0,-1,0,64)'
	DD	00H
	DD	00H
	DD	0ffffffffH
	DD	00H
	DD	040H
	DD	FLAT:??_R3UMemory@icu_56@@8
rdata$r	ENDS
;	COMDAT ??_R2UMemory@icu_56@@8
rdata$r	SEGMENT
??_R2UMemory@icu_56@@8 DD FLAT:??_R1A@?0A@EA@UMemory@icu_56@@8 ; icu_56::UMemory::`RTTI Base Class Array'
rdata$r	ENDS
;	COMDAT ??_R3UMemory@icu_56@@8
rdata$r	SEGMENT
??_R3UMemory@icu_56@@8 DD 00H				; icu_56::UMemory::`RTTI Class Hierarchy Descriptor'
	DD	00H
	DD	01H
	DD	FLAT:??_R2UMemory@icu_56@@8
rdata$r	ENDS
;	COMDAT ??_R0?AVUMemory@icu_56@@@8
_DATA	SEGMENT
??_R0?AVUMemory@icu_56@@@8 DD FLAT:??_7type_info@@6B@	; icu_56::UMemory `RTTI Type Descriptor'
	DD	00H
	DB	'.?AVUMemory@icu_56@@', 00H
_DATA	ENDS
;	COMDAT ??_R13?0A@EA@UMemory@icu_56@@8
rdata$r	SEGMENT
??_R13?0A@EA@UMemory@icu_56@@8 DD FLAT:??_R0?AVUMemory@icu_56@@@8 ; icu_56::UMemory::`RTTI Base Class Descriptor at (4,-1,0,64)'
	DD	00H
	DD	04H
	DD	0ffffffffH
	DD	00H
	DD	040H
	DD	FLAT:??_R3UMemory@icu_56@@8
rdata$r	ENDS
;	COMDAT ??_R1A@?0A@EA@NGramParser@icu_56@@8
rdata$r	SEGMENT
??_R1A@?0A@EA@NGramParser@icu_56@@8 DD FLAT:??_R0?AVNGramParser@icu_56@@@8 ; icu_56::NGramParser::`RTTI Base Class Descriptor at (0,-1,0,64)'
	DD	01H
	DD	00H
	DD	0ffffffffH
	DD	00H
	DD	040H
	DD	FLAT:??_R3NGramParser@icu_56@@8
rdata$r	ENDS
;	COMDAT ??_R2NGramParser@icu_56@@8
rdata$r	SEGMENT
??_R2NGramParser@icu_56@@8 DD FLAT:??_R1A@?0A@EA@NGramParser@icu_56@@8 ; icu_56::NGramParser::`RTTI Base Class Array'
	DD	FLAT:??_R13?0A@EA@UMemory@icu_56@@8
rdata$r	ENDS
;	COMDAT ??_R3NGramParser@icu_56@@8
rdata$r	SEGMENT
??_R3NGramParser@icu_56@@8 DD 00H			; icu_56::NGramParser::`RTTI Class Hierarchy Descriptor'
	DD	00H
	DD	02H
	DD	FLAT:??_R2NGramParser@icu_56@@8
rdata$r	ENDS
;	COMDAT ??_R0?AVNGramParser@icu_56@@@8
_DATA	SEGMENT
??_R0?AVNGramParser@icu_56@@@8 DD FLAT:??_7type_info@@6B@ ; icu_56::NGramParser `RTTI Type Descriptor'
	DD	00H
	DB	'.?AVNGramParser@icu_56@@', 00H
_DATA	ENDS
;	COMDAT ??_R4NGramParser@icu_56@@6B@
rdata$r	SEGMENT
??_R4NGramParser@icu_56@@6B@ DD 00H			; icu_56::NGramParser::`RTTI Complete Object Locator'
	DD	00H
	DD	00H
	DD	FLAT:??_R0?AVNGramParser@icu_56@@@8
	DD	FLAT:??_R3NGramParser@icu_56@@8
rdata$r	ENDS
;	COMDAT ??_7NGramParser@icu_56@@6B@
CONST	SEGMENT
??_7NGramParser@icu_56@@6B@ DD FLAT:??_R4NGramParser@icu_56@@6B@ ; icu_56::NGramParser::`vftable'
	DD	FLAT:??_ENGramParser@icu_56@@UAEPAXI@Z
	DD	FLAT:?nextByte@NGramParser@icu_56@@EAEHPAVInputText@2@@Z
	DD	FLAT:?parseCharacters@NGramParser@icu_56@@EAEXPAVInputText@2@@Z
; Function compile flags: /Odtp /RTCsu /ZI
CONST	ENDS
;	COMDAT ??0NGramParser@icu_56@@QAE@PBHPBE@Z
_TEXT	SEGMENT
_this$ = -8						; size = 4
_theNgramList$ = 8					; size = 4
_theCharMap$ = 12					; size = 4
??0NGramParser@icu_56@@QAE@PBHPBE@Z PROC		; icu_56::NGramParser::NGramParser, COMDAT
; _this$ = ecx
; Line 24
	push	ebp
	mov	ebp, esp
	sub	esp, 204				; 000000ccH
	push	ebx
	push	esi
	push	edi
	push	ecx
	lea	edi, DWORD PTR [ebp-204]
	mov	ecx, 51					; 00000033H
	mov	eax, -858993460				; ccccccccH
	rep stosd
	pop	ecx
	mov	DWORD PTR _this$[ebp], ecx
	mov	eax, DWORD PTR _this$[ebp]
	mov	DWORD PTR [eax], OFFSET ??_7NGramParser@icu_56@@6B@
	mov	eax, DWORD PTR _this$[ebp]
	mov	DWORD PTR [eax+4], 0
	mov	eax, DWORD PTR _this$[ebp]
	mov	DWORD PTR [eax+20], 0
; Line 25
	mov	eax, DWORD PTR _this$[ebp]
	mov	ecx, DWORD PTR _theNgramList$[ebp]
	mov	DWORD PTR [eax+8], ecx
; Line 26
	mov	eax, DWORD PTR _this$[ebp]
	mov	ecx, DWORD PTR _theCharMap$[ebp]
	mov	DWORD PTR [eax+24], ecx
; Line 28
	mov	eax, DWORD PTR _this$[ebp]
	mov	DWORD PTR [eax+16], 0
	mov	ecx, DWORD PTR _this$[ebp]
	mov	DWORD PTR [ecx+12], 0
; Line 29
	mov	eax, DWORD PTR _this$[ebp]
	pop	edi
	pop	esi
	pop	ebx
	mov	esp, ebp
	pop	ebp
	ret	8
??0NGramParser@icu_56@@QAE@PBHPBE@Z ENDP		; icu_56::NGramParser::NGramParser
_TEXT	ENDS
PUBLIC	??1NGramParser@icu_56@@UAE@XZ			; icu_56::NGramParser::~NGramParser
EXTRN	__imp_??3UMemory@icu_56@@SAXPAX@Z:PROC
EXTRN	__RTC_CheckEsp:PROC
; Function compile flags: /Odtp /RTCsu /ZI
;	COMDAT ??_GNGramParser@icu_56@@UAEPAXI@Z
_TEXT	SEGMENT
_this$ = -8						; size = 4
___flags$ = 8						; size = 4
??_GNGramParser@icu_56@@UAEPAXI@Z PROC			; icu_56::NGramParser::`scalar deleting destructor', COMDAT
; _this$ = ecx
	push	ebp
	mov	ebp, esp
	sub	esp, 204				; 000000ccH
	push	ebx
	push	esi
	push	edi
	push	ecx
	lea	edi, DWORD PTR [ebp-204]
	mov	ecx, 51					; 00000033H
	mov	eax, -858993460				; ccccccccH
	rep stosd
	pop	ecx
	mov	DWORD PTR _this$[ebp], ecx
	mov	ecx, DWORD PTR _this$[ebp]
	call	??1NGramParser@icu_56@@UAE@XZ		; icu_56::NGramParser::~NGramParser
	mov	eax, DWORD PTR ___flags$[ebp]
	and	eax, 1
	je	SHORT $LN1@scalar
	mov	esi, esp
	mov	eax, DWORD PTR _this$[ebp]
	push	eax
	call	DWORD PTR __imp_??3UMemory@icu_56@@SAXPAX@Z
	add	esp, 4
	cmp	esi, esp
	call	__RTC_CheckEsp
$LN1@scalar:
	mov	eax, DWORD PTR _this$[ebp]
	pop	edi
	pop	esi
	pop	ebx
	add	esp, 204				; 000000ccH
	cmp	ebp, esp
	call	__RTC_CheckEsp
	mov	esp, ebp
	pop	ebp
	ret	4
??_GNGramParser@icu_56@@UAEPAXI@Z ENDP			; icu_56::NGramParser::`scalar deleting destructor'
; Function compile flags: /Odtp /RTCsu /ZI
_TEXT	ENDS
;	COMDAT ??1NGramParser@icu_56@@UAE@XZ
_TEXT	SEGMENT
_this$ = -8						; size = 4
??1NGramParser@icu_56@@UAE@XZ PROC			; icu_56::NGramParser::~NGramParser, COMDAT
; _this$ = ecx
; Line 32
	push	ebp
	mov	ebp, esp
	sub	esp, 204				; 000000ccH
	push	ebx
	push	esi
	push	edi
	push	ecx
	lea	edi, DWORD PTR [ebp-204]
	mov	ecx, 51					; 00000033H
	mov	eax, -858993460				; ccccccccH
	rep stosd
	pop	ecx
	mov	DWORD PTR _this$[ebp], ecx
	mov	eax, DWORD PTR _this$[ebp]
	mov	DWORD PTR [eax], OFFSET ??_7NGramParser@icu_56@@6B@
; Line 33
	pop	edi
	pop	esi
	pop	ebx
	mov	esp, ebp
	pop	ebp
	ret	0
??1NGramParser@icu_56@@UAE@XZ ENDP			; icu_56::NGramParser::~NGramParser
_TEXT	ENDS
PUBLIC	?search@NGramParser@icu_56@@AAEHPBHH@Z		; icu_56::NGramParser::search
; Function compile flags: /Odtp /RTCsu /ZI
;	COMDAT ?search@NGramParser@icu_56@@AAEHPBHH@Z
_TEXT	SEGMENT
_index$ = -20						; size = 4
_this$ = -8						; size = 4
_table$ = 8						; size = 4
_value$ = 12						; size = 4
?search@NGramParser@icu_56@@AAEHPBHH@Z PROC		; icu_56::NGramParser::search, COMDAT
; _this$ = ecx
; Line 40
	push	ebp
	mov	ebp, esp
	sub	esp, 216				; 000000d8H
	push	ebx
	push	esi
	push	edi
	push	ecx
	lea	edi, DWORD PTR [ebp-216]
	mov	ecx, 54					; 00000036H
	mov	eax, -858993460				; ccccccccH
	rep stosd
	pop	ecx
	mov	DWORD PTR _this$[ebp], ecx
; Line 41
	mov	DWORD PTR _index$[ebp], 0
; Line 43
	mov	eax, DWORD PTR _index$[ebp]
	mov	ecx, DWORD PTR _table$[ebp]
	mov	edx, DWORD PTR [ecx+eax*4+128]
	cmp	edx, DWORD PTR _value$[ebp]
	jg	SHORT $LN9@search
; Line 44
	mov	eax, DWORD PTR _index$[ebp]
	add	eax, 32					; 00000020H
	mov	DWORD PTR _index$[ebp], eax
$LN9@search:
; Line 47
	mov	eax, DWORD PTR _index$[ebp]
	mov	ecx, DWORD PTR _table$[ebp]
	mov	edx, DWORD PTR [ecx+eax*4+64]
	cmp	edx, DWORD PTR _value$[ebp]
	jg	SHORT $LN8@search
; Line 48
	mov	eax, DWORD PTR _index$[ebp]
	add	eax, 16					; 00000010H
	mov	DWORD PTR _index$[ebp], eax
$LN8@search:
; Line 51
	mov	eax, DWORD PTR _index$[ebp]
	mov	ecx, DWORD PTR _table$[ebp]
	mov	edx, DWORD PTR [ecx+eax*4+32]
	cmp	edx, DWORD PTR _value$[ebp]
	jg	SHORT $LN7@search
; Line 52
	mov	eax, DWORD PTR _index$[ebp]
	add	eax, 8
	mov	DWORD PTR _index$[ebp], eax
$LN7@search:
; Line 55
	mov	eax, DWORD PTR _index$[ebp]
	mov	ecx, DWORD PTR _table$[ebp]
	mov	edx, DWORD PTR [ecx+eax*4+16]
	cmp	edx, DWORD PTR _value$[ebp]
	jg	SHORT $LN6@search
; Line 56
	mov	eax, DWORD PTR _index$[ebp]
	add	eax, 4
	mov	DWORD PTR _index$[ebp], eax
$LN6@search:
; Line 59
	mov	eax, DWORD PTR _index$[ebp]
	mov	ecx, DWORD PTR _table$[ebp]
	mov	edx, DWORD PTR [ecx+eax*4+8]
	cmp	edx, DWORD PTR _value$[ebp]
	jg	SHORT $LN5@search
; Line 60
	mov	eax, DWORD PTR _index$[ebp]
	add	eax, 2
	mov	DWORD PTR _index$[ebp], eax
$LN5@search:
; Line 63
	mov	eax, DWORD PTR _index$[ebp]
	mov	ecx, DWORD PTR _table$[ebp]
	mov	edx, DWORD PTR [ecx+eax*4+4]
	cmp	edx, DWORD PTR _value$[ebp]
	jg	SHORT $LN4@search
; Line 64
	mov	eax, DWORD PTR _index$[ebp]
	add	eax, 1
	mov	DWORD PTR _index$[ebp], eax
$LN4@search:
; Line 67
	mov	eax, DWORD PTR _index$[ebp]
	mov	ecx, DWORD PTR _table$[ebp]
	mov	edx, DWORD PTR [ecx+eax*4]
	cmp	edx, DWORD PTR _value$[ebp]
	jle	SHORT $LN3@search
; Line 68
	mov	eax, DWORD PTR _index$[ebp]
	sub	eax, 1
	mov	DWORD PTR _index$[ebp], eax
$LN3@search:
; Line 71
	cmp	DWORD PTR _index$[ebp], 0
	jl	SHORT $LN1@search
	mov	eax, DWORD PTR _index$[ebp]
	mov	ecx, DWORD PTR _table$[ebp]
	mov	edx, DWORD PTR [ecx+eax*4]
	cmp	edx, DWORD PTR _value$[ebp]
	je	SHORT $LN2@search
$LN1@search:
; Line 72
	or	eax, -1
	jmp	SHORT $LN10@search
$LN2@search:
; Line 75
	mov	eax, DWORD PTR _index$[ebp]
$LN10@search:
; Line 76
	pop	edi
	pop	esi
	pop	ebx
	mov	esp, ebp
	pop	ebp
	ret	8
?search@NGramParser@icu_56@@AAEHPBHH@Z ENDP		; icu_56::NGramParser::search
_TEXT	ENDS
PUBLIC	?lookup@NGramParser@icu_56@@AAEXH@Z		; icu_56::NGramParser::lookup
; Function compile flags: /Odtp /RTCsu /ZI
;	COMDAT ?lookup@NGramParser@icu_56@@AAEXH@Z
_TEXT	SEGMENT
_this$ = -8						; size = 4
_thisNgram$ = 8						; size = 4
?lookup@NGramParser@icu_56@@AAEXH@Z PROC		; icu_56::NGramParser::lookup, COMDAT
; _this$ = ecx
; Line 79
	push	ebp
	mov	ebp, esp
	sub	esp, 204				; 000000ccH
	push	ebx
	push	esi
	push	edi
	push	ecx
	lea	edi, DWORD PTR [ebp-204]
	mov	ecx, 51					; 00000033H
	mov	eax, -858993460				; ccccccccH
	rep stosd
	pop	ecx
	mov	DWORD PTR _this$[ebp], ecx
; Line 80
	mov	eax, DWORD PTR _this$[ebp]
	mov	ecx, DWORD PTR [eax+12]
	add	ecx, 1
	mov	edx, DWORD PTR _this$[ebp]
	mov	DWORD PTR [edx+12], ecx
; Line 82
	mov	eax, DWORD PTR _thisNgram$[ebp]
	push	eax
	mov	ecx, DWORD PTR _this$[ebp]
	mov	edx, DWORD PTR [ecx+8]
	push	edx
	mov	ecx, DWORD PTR _this$[ebp]
	call	?search@NGramParser@icu_56@@AAEHPBHH@Z	; icu_56::NGramParser::search
	test	eax, eax
	jl	SHORT $LN2@lookup
; Line 83
	mov	eax, DWORD PTR _this$[ebp]
	mov	ecx, DWORD PTR [eax+16]
	add	ecx, 1
	mov	edx, DWORD PTR _this$[ebp]
	mov	DWORD PTR [edx+16], ecx
$LN2@lookup:
; Line 86
	pop	edi
	pop	esi
	pop	ebx
	add	esp, 204				; 000000ccH
	cmp	ebp, esp
	call	__RTC_CheckEsp
	mov	esp, ebp
	pop	ebp
	ret	4
?lookup@NGramParser@icu_56@@AAEXH@Z ENDP		; icu_56::NGramParser::lookup
_TEXT	ENDS
PUBLIC	?addByte@NGramParser@icu_56@@IAEXH@Z		; icu_56::NGramParser::addByte
; Function compile flags: /Odtp /RTCsu /ZI
;	COMDAT ?addByte@NGramParser@icu_56@@IAEXH@Z
_TEXT	SEGMENT
_this$ = -8						; size = 4
_b$ = 8							; size = 4
?addByte@NGramParser@icu_56@@IAEXH@Z PROC		; icu_56::NGramParser::addByte, COMDAT
; _this$ = ecx
; Line 89
	push	ebp
	mov	ebp, esp
	sub	esp, 204				; 000000ccH
	push	ebx
	push	esi
	push	edi
	push	ecx
	lea	edi, DWORD PTR [ebp-204]
	mov	ecx, 51					; 00000033H
	mov	eax, -858993460				; ccccccccH
	rep stosd
	pop	ecx
	mov	DWORD PTR _this$[ebp], ecx
; Line 90
	mov	eax, DWORD PTR _this$[ebp]
	mov	ecx, DWORD PTR [eax+4]
	shl	ecx, 8
	add	ecx, DWORD PTR _b$[ebp]
	and	ecx, 16777215				; 00ffffffH
	mov	edx, DWORD PTR _this$[ebp]
	mov	DWORD PTR [edx+4], ecx
; Line 91
	mov	eax, DWORD PTR _this$[ebp]
	mov	ecx, DWORD PTR [eax+4]
	push	ecx
	mov	ecx, DWORD PTR _this$[ebp]
	call	?lookup@NGramParser@icu_56@@AAEXH@Z	; icu_56::NGramParser::lookup
; Line 92
	pop	edi
	pop	esi
	pop	ebx
	add	esp, 204				; 000000ccH
	cmp	ebp, esp
	call	__RTC_CheckEsp
	mov	esp, ebp
	pop	ebp
	ret	4
?addByte@NGramParser@icu_56@@IAEXH@Z ENDP		; icu_56::NGramParser::addByte
; Function compile flags: /Odtp /RTCsu /ZI
_TEXT	ENDS
;	COMDAT ?nextByte@NGramParser@icu_56@@EAEHPAVInputText@2@@Z
_TEXT	SEGMENT
tv73 = -208						; size = 4
_this$ = -8						; size = 4
_det$ = 8						; size = 4
?nextByte@NGramParser@icu_56@@EAEHPAVInputText@2@@Z PROC ; icu_56::NGramParser::nextByte, COMDAT
; _this$ = ecx
; Line 95
	push	ebp
	mov	ebp, esp
	sub	esp, 208				; 000000d0H
	push	ebx
	push	esi
	push	edi
	push	ecx
	lea	edi, DWORD PTR [ebp-208]
	mov	ecx, 52					; 00000034H
	mov	eax, -858993460				; ccccccccH
	rep stosd
	pop	ecx
	mov	DWORD PTR _this$[ebp], ecx
; Line 96
	mov	eax, DWORD PTR _this$[ebp]
	mov	ecx, DWORD PTR _det$[ebp]
	mov	edx, DWORD PTR [eax+20]
	cmp	edx, DWORD PTR [ecx+4]
	jl	SHORT $LN1@nextByte
; Line 97
	or	eax, -1
	jmp	SHORT $LN2@nextByte
$LN1@nextByte:
; Line 100
	mov	eax, DWORD PTR _det$[ebp]
	mov	ecx, DWORD PTR [eax]
	mov	edx, DWORD PTR _this$[ebp]
	mov	eax, DWORD PTR [edx+20]
	movzx	ecx, BYTE PTR [ecx+eax]
	mov	DWORD PTR tv73[ebp], ecx
	mov	edx, DWORD PTR _this$[ebp]
	mov	eax, DWORD PTR [edx+20]
	add	eax, 1
	mov	ecx, DWORD PTR _this$[ebp]
	mov	DWORD PTR [ecx+20], eax
	mov	eax, DWORD PTR tv73[ebp]
$LN2@nextByte:
; Line 101
	pop	edi
	pop	esi
	pop	ebx
	mov	esp, ebp
	pop	ebp
	ret	4
?nextByte@NGramParser@icu_56@@EAEHPAVInputText@2@@Z ENDP ; icu_56::NGramParser::nextByte
; Function compile flags: /Odtp /RTCsu /ZI
_TEXT	ENDS
;	COMDAT ?parseCharacters@NGramParser@icu_56@@EAEXPAVInputText@2@@Z
_TEXT	SEGMENT
_mb$7918 = -41						; size = 1
_ignoreSpace$ = -29					; size = 1
_b$ = -20						; size = 4
_this$ = -8						; size = 4
_det$ = 8						; size = 4
?parseCharacters@NGramParser@icu_56@@EAEXPAVInputText@2@@Z PROC ; icu_56::NGramParser::parseCharacters, COMDAT
; _this$ = ecx
; Line 104
	push	ebp
	mov	ebp, esp
	sub	esp, 240				; 000000f0H
	push	ebx
	push	esi
	push	edi
	push	ecx
	lea	edi, DWORD PTR [ebp-240]
	mov	ecx, 60					; 0000003cH
	mov	eax, -858993460				; ccccccccH
	rep stosd
	pop	ecx
	mov	DWORD PTR _this$[ebp], ecx
; Line 106
	mov	BYTE PTR _ignoreSpace$[ebp], 0
$LN5@parseChara:
; Line 108
	mov	esi, esp
	mov	eax, DWORD PTR _det$[ebp]
	push	eax
	mov	ecx, DWORD PTR _this$[ebp]
	mov	edx, DWORD PTR [ecx]
	mov	ecx, DWORD PTR _this$[ebp]
	mov	eax, DWORD PTR [edx+4]
	call	eax
	cmp	esi, esp
	call	__RTC_CheckEsp
	mov	DWORD PTR _b$[ebp], eax
	cmp	DWORD PTR _b$[ebp], 0
	jl	SHORT $LN6@parseChara
; Line 109
	mov	eax, DWORD PTR _this$[ebp]
	mov	ecx, DWORD PTR [eax+24]
	mov	edx, DWORD PTR _b$[ebp]
	mov	al, BYTE PTR [ecx+edx]
	mov	BYTE PTR _mb$7918[ebp], al
; Line 112
	movzx	eax, BYTE PTR _mb$7918[ebp]
	test	eax, eax
	je	SHORT $LN3@parseChara
; Line 113
	movzx	eax, BYTE PTR _mb$7918[ebp]
	cmp	eax, 32					; 00000020H
	jne	SHORT $LN1@parseChara
	movzx	eax, BYTE PTR _ignoreSpace$[ebp]
	test	eax, eax
	jne	SHORT $LN2@parseChara
$LN1@parseChara:
; Line 114
	movzx	eax, BYTE PTR _mb$7918[ebp]
	push	eax
	mov	ecx, DWORD PTR _this$[ebp]
	call	?addByte@NGramParser@icu_56@@IAEXH@Z	; icu_56::NGramParser::addByte
$LN2@parseChara:
; Line 117
	movzx	eax, BYTE PTR _mb$7918[ebp]
	xor	ecx, ecx
	cmp	eax, 32					; 00000020H
	sete	cl
	mov	BYTE PTR _ignoreSpace$[ebp], cl
$LN3@parseChara:
; Line 119
	jmp	SHORT $LN5@parseChara
$LN6@parseChara:
; Line 120
	pop	edi
	pop	esi
	pop	ebx
	add	esp, 240				; 000000f0H
	cmp	ebp, esp
	call	__RTC_CheckEsp
	mov	esp, ebp
	pop	ebp
	ret	4
?parseCharacters@NGramParser@icu_56@@EAEXPAVInputText@2@@Z ENDP ; icu_56::NGramParser::parseCharacters
_TEXT	ENDS
PUBLIC	__real@4072c00000000000
PUBLIC	__real@3fd51eb851eb851f
PUBLIC	?parse@NGramParser@icu_56@@QAEHPAVInputText@2@@Z ; icu_56::NGramParser::parse
EXTRN	__fltused:DWORD
EXTRN	__ftol2_sse:PROC
;	COMDAT __real@4072c00000000000
CONST	SEGMENT
__real@4072c00000000000 DQ 04072c00000000000r	; 300
CONST	ENDS
;	COMDAT __real@3fd51eb851eb851f
CONST	SEGMENT
__real@3fd51eb851eb851f DQ 03fd51eb851eb851fr	; 0.33
; Function compile flags: /Odtp /RTCsu /ZI
CONST	ENDS
;	COMDAT ?parse@NGramParser@icu_56@@QAEHPAVInputText@2@@Z
_TEXT	SEGMENT
_rawPercent$ = -24					; size = 8
_this$ = -8						; size = 4
_det$ = 8						; size = 4
?parse@NGramParser@icu_56@@QAEHPAVInputText@2@@Z PROC	; icu_56::NGramParser::parse, COMDAT
; _this$ = ecx
; Line 123
	push	ebp
	mov	ebp, esp
	sub	esp, 220				; 000000dcH
	push	ebx
	push	esi
	push	edi
	push	ecx
	lea	edi, DWORD PTR [ebp-220]
	mov	ecx, 55					; 00000037H
	mov	eax, -858993460				; ccccccccH
	rep stosd
	pop	ecx
	mov	DWORD PTR _this$[ebp], ecx
; Line 124
	mov	esi, esp
	mov	eax, DWORD PTR _det$[ebp]
	push	eax
	mov	ecx, DWORD PTR _this$[ebp]
	mov	edx, DWORD PTR [ecx]
	mov	ecx, DWORD PTR _this$[ebp]
	mov	eax, DWORD PTR [edx+8]
	call	eax
	cmp	esi, esp
	call	__RTC_CheckEsp
; Line 127
	push	32					; 00000020H
	mov	ecx, DWORD PTR _this$[ebp]
	call	?addByte@NGramParser@icu_56@@IAEXH@Z	; icu_56::NGramParser::addByte
; Line 129
	mov	eax, DWORD PTR _this$[ebp]
	fild	DWORD PTR [eax+16]
	mov	ecx, DWORD PTR _this$[ebp]
	fidiv	DWORD PTR [ecx+12]
	fstp	QWORD PTR _rawPercent$[ebp]
; Line 137
	fld	QWORD PTR __real@3fd51eb851eb851f
	fcomp	QWORD PTR _rawPercent$[ebp]
	fnstsw	ax
	test	ah, 5
	jp	SHORT $LN1@parse
; Line 138
	mov	eax, 98					; 00000062H
	jmp	SHORT $LN2@parse
$LN1@parse:
; Line 141
	fld	QWORD PTR _rawPercent$[ebp]
	fmul	QWORD PTR __real@4072c00000000000
	call	__ftol2_sse
$LN2@parse:
; Line 142
	pop	edi
	pop	esi
	pop	ebx
	add	esp, 220				; 000000dcH
	cmp	ebp, esp
	call	__RTC_CheckEsp
	mov	esp, ebp
	pop	ebp
	ret	4
?parse@NGramParser@icu_56@@QAEHPAVInputText@2@@Z ENDP	; icu_56::NGramParser::parse
_TEXT	ENDS
PUBLIC	??_7NGramParser_IBM420@icu_56@@6B@		; icu_56::NGramParser_IBM420::`vftable'
PUBLIC	??0NGramParser_IBM420@icu_56@@QAE@PBHPBE@Z	; icu_56::NGramParser_IBM420::NGramParser_IBM420
PUBLIC	??_R4NGramParser_IBM420@icu_56@@6B@		; icu_56::NGramParser_IBM420::`RTTI Complete Object Locator'
PUBLIC	??_R0?AVNGramParser_IBM420@icu_56@@@8		; icu_56::NGramParser_IBM420 `RTTI Type Descriptor'
PUBLIC	??_R3NGramParser_IBM420@icu_56@@8		; icu_56::NGramParser_IBM420::`RTTI Class Hierarchy Descriptor'
PUBLIC	??_R2NGramParser_IBM420@icu_56@@8		; icu_56::NGramParser_IBM420::`RTTI Base Class Array'
PUBLIC	??_R1A@?0A@EA@NGramParser_IBM420@icu_56@@8	; icu_56::NGramParser_IBM420::`RTTI Base Class Descriptor at (0,-1,0,64)'
PUBLIC	?nextByte@NGramParser_IBM420@icu_56@@EAEHPAVInputText@2@@Z ; icu_56::NGramParser_IBM420::nextByte
PUBLIC	?parseCharacters@NGramParser_IBM420@icu_56@@EAEXPAVInputText@2@@Z ; icu_56::NGramParser_IBM420::parseCharacters
EXTRN	??_ENGramParser_IBM420@icu_56@@UAEPAXI@Z:PROC	; icu_56::NGramParser_IBM420::`vector deleting destructor'
;	COMDAT ??_R1A@?0A@EA@NGramParser_IBM420@icu_56@@8
rdata$r	SEGMENT
??_R1A@?0A@EA@NGramParser_IBM420@icu_56@@8 DD FLAT:??_R0?AVNGramParser_IBM420@icu_56@@@8 ; icu_56::NGramParser_IBM420::`RTTI Base Class Descriptor at (0,-1,0,64)'
	DD	02H
	DD	00H
	DD	0ffffffffH
	DD	00H
	DD	040H
	DD	FLAT:??_R3NGramParser_IBM420@icu_56@@8
rdata$r	ENDS
;	COMDAT ??_R2NGramParser_IBM420@icu_56@@8
rdata$r	SEGMENT
??_R2NGramParser_IBM420@icu_56@@8 DD FLAT:??_R1A@?0A@EA@NGramParser_IBM420@icu_56@@8 ; icu_56::NGramParser_IBM420::`RTTI Base Class Array'
	DD	FLAT:??_R1A@?0A@EA@NGramParser@icu_56@@8
	DD	FLAT:??_R13?0A@EA@UMemory@icu_56@@8
rdata$r	ENDS
;	COMDAT ??_R3NGramParser_IBM420@icu_56@@8
rdata$r	SEGMENT
??_R3NGramParser_IBM420@icu_56@@8 DD 00H		; icu_56::NGramParser_IBM420::`RTTI Class Hierarchy Descriptor'
	DD	00H
	DD	03H
	DD	FLAT:??_R2NGramParser_IBM420@icu_56@@8
rdata$r	ENDS
;	COMDAT ??_R0?AVNGramParser_IBM420@icu_56@@@8
_DATA	SEGMENT
??_R0?AVNGramParser_IBM420@icu_56@@@8 DD FLAT:??_7type_info@@6B@ ; icu_56::NGramParser_IBM420 `RTTI Type Descriptor'
	DD	00H
	DB	'.?AVNGramParser_IBM420@icu_56@@', 00H
_DATA	ENDS
;	COMDAT ??_R4NGramParser_IBM420@icu_56@@6B@
rdata$r	SEGMENT
??_R4NGramParser_IBM420@icu_56@@6B@ DD 00H		; icu_56::NGramParser_IBM420::`RTTI Complete Object Locator'
	DD	00H
	DD	00H
	DD	FLAT:??_R0?AVNGramParser_IBM420@icu_56@@@8
	DD	FLAT:??_R3NGramParser_IBM420@icu_56@@8
rdata$r	ENDS
;	COMDAT ??_7NGramParser_IBM420@icu_56@@6B@
CONST	SEGMENT
??_7NGramParser_IBM420@icu_56@@6B@ DD FLAT:??_R4NGramParser_IBM420@icu_56@@6B@ ; icu_56::NGramParser_IBM420::`vftable'
	DD	FLAT:??_ENGramParser_IBM420@icu_56@@UAEPAXI@Z
	DD	FLAT:?nextByte@NGramParser_IBM420@icu_56@@EAEHPAVInputText@2@@Z
	DD	FLAT:?parseCharacters@NGramParser_IBM420@icu_56@@EAEXPAVInputText@2@@Z
; Function compile flags: /Odtp /RTCsu /ZI
CONST	ENDS
;	COMDAT ??0NGramParser_IBM420@icu_56@@QAE@PBHPBE@Z
_TEXT	SEGMENT
_this$ = -8						; size = 4
_theNgramList$ = 8					; size = 4
_theCharMap$ = 12					; size = 4
??0NGramParser_IBM420@icu_56@@QAE@PBHPBE@Z PROC		; icu_56::NGramParser_IBM420::NGramParser_IBM420, COMDAT
; _this$ = ecx
; Line 166
	push	ebp
	mov	ebp, esp
	sub	esp, 204				; 000000ccH
	push	ebx
	push	esi
	push	edi
	push	ecx
	lea	edi, DWORD PTR [ebp-204]
	mov	ecx, 51					; 00000033H
	mov	eax, -858993460				; ccccccccH
	rep stosd
	pop	ecx
	mov	DWORD PTR _this$[ebp], ecx
	mov	eax, DWORD PTR _theCharMap$[ebp]
	push	eax
	mov	ecx, DWORD PTR _theNgramList$[ebp]
	push	ecx
	mov	ecx, DWORD PTR _this$[ebp]
	call	??0NGramParser@icu_56@@QAE@PBHPBE@Z	; icu_56::NGramParser::NGramParser
	mov	eax, DWORD PTR _this$[ebp]
	mov	DWORD PTR [eax], OFFSET ??_7NGramParser_IBM420@icu_56@@6B@
; Line 167
	mov	eax, DWORD PTR _this$[ebp]
	mov	DWORD PTR [eax+28], 0
; Line 168
	mov	eax, DWORD PTR _this$[ebp]
	pop	edi
	pop	esi
	pop	ebx
	add	esp, 204				; 000000ccH
	cmp	ebp, esp
	call	__RTC_CheckEsp
	mov	esp, ebp
	pop	ebp
	ret	8
??0NGramParser_IBM420@icu_56@@QAE@PBHPBE@Z ENDP		; icu_56::NGramParser_IBM420::NGramParser_IBM420
_TEXT	ENDS
PUBLIC	??1NGramParser_IBM420@icu_56@@UAE@XZ		; icu_56::NGramParser_IBM420::~NGramParser_IBM420
; Function compile flags: /Odtp /RTCsu /ZI
;	COMDAT ??_GNGramParser_IBM420@icu_56@@UAEPAXI@Z
_TEXT	SEGMENT
_this$ = -8						; size = 4
___flags$ = 8						; size = 4
??_GNGramParser_IBM420@icu_56@@UAEPAXI@Z PROC		; icu_56::NGramParser_IBM420::`scalar deleting destructor', COMDAT
; _this$ = ecx
	push	ebp
	mov	ebp, esp
	sub	esp, 204				; 000000ccH
	push	ebx
	push	esi
	push	edi
	push	ecx
	lea	edi, DWORD PTR [ebp-204]
	mov	ecx, 51					; 00000033H
	mov	eax, -858993460				; ccccccccH
	rep stosd
	pop	ecx
	mov	DWORD PTR _this$[ebp], ecx
	mov	ecx, DWORD PTR _this$[ebp]
	call	??1NGramParser_IBM420@icu_56@@UAE@XZ	; icu_56::NGramParser_IBM420::~NGramParser_IBM420
	mov	eax, DWORD PTR ___flags$[ebp]
	and	eax, 1
	je	SHORT $LN1@scalar@2
	mov	esi, esp
	mov	eax, DWORD PTR _this$[ebp]
	push	eax
	call	DWORD PTR __imp_??3UMemory@icu_56@@SAXPAX@Z
	add	esp, 4
	cmp	esi, esp
	call	__RTC_CheckEsp
$LN1@scalar@2:
	mov	eax, DWORD PTR _this$[ebp]
	pop	edi
	pop	esi
	pop	ebx
	add	esp, 204				; 000000ccH
	cmp	ebp, esp
	call	__RTC_CheckEsp
	mov	esp, ebp
	pop	ebp
	ret	4
??_GNGramParser_IBM420@icu_56@@UAEPAXI@Z ENDP		; icu_56::NGramParser_IBM420::`scalar deleting destructor'
; Function compile flags: /Odtp /RTCsu /ZI
_TEXT	ENDS
;	COMDAT ??1NGramParser_IBM420@icu_56@@UAE@XZ
_TEXT	SEGMENT
_this$ = -8						; size = 4
??1NGramParser_IBM420@icu_56@@UAE@XZ PROC		; icu_56::NGramParser_IBM420::~NGramParser_IBM420, COMDAT
; _this$ = ecx
; Line 170
	push	ebp
	mov	ebp, esp
	sub	esp, 204				; 000000ccH
	push	ebx
	push	esi
	push	edi
	push	ecx
	lea	edi, DWORD PTR [ebp-204]
	mov	ecx, 51					; 00000033H
	mov	eax, -858993460				; ccccccccH
	rep stosd
	pop	ecx
	mov	DWORD PTR _this$[ebp], ecx
	mov	eax, DWORD PTR _this$[ebp]
	mov	DWORD PTR [eax], OFFSET ??_7NGramParser_IBM420@icu_56@@6B@
	mov	ecx, DWORD PTR _this$[ebp]
	call	??1NGramParser@icu_56@@UAE@XZ		; icu_56::NGramParser::~NGramParser
	pop	edi
	pop	esi
	pop	ebx
	add	esp, 204				; 000000ccH
	cmp	ebp, esp
	call	__RTC_CheckEsp
	mov	esp, ebp
	pop	ebp
	ret	0
??1NGramParser_IBM420@icu_56@@UAE@XZ ENDP		; icu_56::NGramParser_IBM420::~NGramParser_IBM420
_TEXT	ENDS
PUBLIC	?isLamAlef@NGramParser_IBM420@icu_56@@AAEHH@Z	; icu_56::NGramParser_IBM420::isLamAlef
; Function compile flags: /Odtp /RTCsu /ZI
;	COMDAT ?isLamAlef@NGramParser_IBM420@icu_56@@AAEHH@Z
_TEXT	SEGMENT
_this$ = -8						; size = 4
_b$ = 8							; size = 4
?isLamAlef@NGramParser_IBM420@icu_56@@AAEHH@Z PROC	; icu_56::NGramParser_IBM420::isLamAlef, COMDAT
; _this$ = ecx
; Line 173
	push	ebp
	mov	ebp, esp
	sub	esp, 204				; 000000ccH
	push	ebx
	push	esi
	push	edi
	push	ecx
	lea	edi, DWORD PTR [ebp-204]
	mov	ecx, 51					; 00000033H
	mov	eax, -858993460				; ccccccccH
	rep stosd
	pop	ecx
	mov	DWORD PTR _this$[ebp], ecx
; Line 174
	cmp	DWORD PTR _b$[ebp], 178			; 000000b2H
	je	SHORT $LN8@isLamAlef
	cmp	DWORD PTR _b$[ebp], 179			; 000000b3H
	jne	SHORT $LN9@isLamAlef
$LN8@isLamAlef:
; Line 175
	mov	eax, 71					; 00000047H
	jmp	SHORT $LN10@isLamAlef
	jmp	SHORT $LN10@isLamAlef
$LN9@isLamAlef:
; Line 176
	cmp	DWORD PTR _b$[ebp], 180			; 000000b4H
	je	SHORT $LN5@isLamAlef
	cmp	DWORD PTR _b$[ebp], 181			; 000000b5H
	jne	SHORT $LN6@isLamAlef
$LN5@isLamAlef:
; Line 177
	mov	eax, 73					; 00000049H
	jmp	SHORT $LN10@isLamAlef
	jmp	SHORT $LN10@isLamAlef
$LN6@isLamAlef:
; Line 178
	cmp	DWORD PTR _b$[ebp], 184			; 000000b8H
	je	SHORT $LN2@isLamAlef
	cmp	DWORD PTR _b$[ebp], 185			; 000000b9H
	jne	SHORT $LN3@isLamAlef
$LN2@isLamAlef:
; Line 179
	mov	eax, 86					; 00000056H
	jmp	SHORT $LN10@isLamAlef
; Line 180
	jmp	SHORT $LN10@isLamAlef
$LN3@isLamAlef:
; Line 181
	xor	eax, eax
$LN10@isLamAlef:
; Line 182
	pop	edi
	pop	esi
	pop	ebx
	mov	esp, ebp
	pop	ebp
	ret	4
?isLamAlef@NGramParser_IBM420@icu_56@@AAEHH@Z ENDP	; icu_56::NGramParser_IBM420::isLamAlef
; Function compile flags: /Odtp /RTCsu /ZI
_TEXT	ENDS
;	COMDAT ?nextByte@NGramParser_IBM420@icu_56@@EAEHPAVInputText@2@@Z
_TEXT	SEGMENT
_next$ = -20						; size = 4
_this$ = -8						; size = 4
_det$ = 8						; size = 4
?nextByte@NGramParser_IBM420@icu_56@@EAEHPAVInputText@2@@Z PROC ; icu_56::NGramParser_IBM420::nextByte, COMDAT
; _this$ = ecx
; Line 192
	push	ebp
	mov	ebp, esp
	sub	esp, 216				; 000000d8H
	push	ebx
	push	esi
	push	edi
	push	ecx
	lea	edi, DWORD PTR [ebp-216]
	mov	ecx, 54					; 00000036H
	mov	eax, -858993460				; ccccccccH
	rep stosd
	pop	ecx
	mov	DWORD PTR _this$[ebp], ecx
; Line 194
	mov	eax, DWORD PTR _this$[ebp]
	mov	ecx, DWORD PTR _det$[ebp]
	mov	edx, DWORD PTR [eax+20]
	cmp	edx, DWORD PTR [ecx+4]
	jge	SHORT $LN3@nextByte@2
	mov	eax, DWORD PTR _det$[ebp]
	mov	ecx, DWORD PTR [eax]
	mov	edx, DWORD PTR _this$[ebp]
	mov	eax, DWORD PTR [edx+20]
	movzx	ecx, BYTE PTR [ecx+eax]
	test	ecx, ecx
	jne	SHORT $LN4@nextByte@2
$LN3@nextByte@2:
; Line 195
	or	eax, -1
	jmp	SHORT $LN5@nextByte@2
$LN4@nextByte@2:
; Line 199
	mov	eax, DWORD PTR _det$[ebp]
	mov	ecx, DWORD PTR [eax]
	mov	edx, DWORD PTR _this$[ebp]
	mov	eax, DWORD PTR [edx+20]
	movzx	ecx, BYTE PTR [ecx+eax]
	push	ecx
	mov	ecx, DWORD PTR _this$[ebp]
	call	?isLamAlef@NGramParser_IBM420@icu_56@@AAEHH@Z ; icu_56::NGramParser_IBM420::isLamAlef
	mov	edx, DWORD PTR _this$[ebp]
	mov	DWORD PTR [edx+28], eax
; Line 200
	mov	eax, DWORD PTR _this$[ebp]
	cmp	DWORD PTR [eax+28], 0
	je	SHORT $LN2@nextByte@2
; Line 201
	mov	DWORD PTR _next$[ebp], 177		; 000000b1H
; Line 202
	jmp	SHORT $LN1@nextByte@2
$LN2@nextByte@2:
; Line 203
	mov	eax, DWORD PTR _det$[ebp]
	mov	ecx, DWORD PTR [eax]
	mov	edx, DWORD PTR _this$[ebp]
	mov	eax, DWORD PTR [edx+20]
	movzx	ecx, BYTE PTR [ecx+eax]
	and	ecx, 255				; 000000ffH
	movzx	edx, BYTE PTR _unshapeMap_IBM420[ecx]
	and	edx, 255				; 000000ffH
	mov	DWORD PTR _next$[ebp], edx
$LN1@nextByte@2:
; Line 205
	mov	eax, DWORD PTR _this$[ebp]
	mov	ecx, DWORD PTR [eax+20]
	add	ecx, 1
	mov	edx, DWORD PTR _this$[ebp]
	mov	DWORD PTR [edx+20], ecx
; Line 207
	mov	eax, DWORD PTR _next$[ebp]
$LN5@nextByte@2:
; Line 208
	pop	edi
	pop	esi
	pop	ebx
	add	esp, 216				; 000000d8H
	cmp	ebp, esp
	call	__RTC_CheckEsp
	mov	esp, ebp
	pop	ebp
	ret	4
?nextByte@NGramParser_IBM420@icu_56@@EAEHPAVInputText@2@@Z ENDP ; icu_56::NGramParser_IBM420::nextByte
; Function compile flags: /Odtp /RTCsu /ZI
_TEXT	ENDS
;	COMDAT ?parseCharacters@NGramParser_IBM420@icu_56@@EAEXPAVInputText@2@@Z
_TEXT	SEGMENT
_mb$7975 = -41						; size = 1
_ignoreSpace$ = -29					; size = 1
_b$ = -20						; size = 4
_this$ = -8						; size = 4
_det$ = 8						; size = 4
?parseCharacters@NGramParser_IBM420@icu_56@@EAEXPAVInputText@2@@Z PROC ; icu_56::NGramParser_IBM420::parseCharacters, COMDAT
; _this$ = ecx
; Line 211
	push	ebp
	mov	ebp, esp
	sub	esp, 240				; 000000f0H
	push	ebx
	push	esi
	push	edi
	push	ecx
	lea	edi, DWORD PTR [ebp-240]
	mov	ecx, 60					; 0000003cH
	mov	eax, -858993460				; ccccccccH
	rep stosd
	pop	ecx
	mov	DWORD PTR _this$[ebp], ecx
; Line 213
	mov	BYTE PTR _ignoreSpace$[ebp], 0
$LN9@parseChara@2:
; Line 215
	mov	esi, esp
	mov	eax, DWORD PTR _det$[ebp]
	push	eax
	mov	ecx, DWORD PTR _this$[ebp]
	mov	edx, DWORD PTR [ecx]
	mov	ecx, DWORD PTR _this$[ebp]
	mov	eax, DWORD PTR [edx+4]
	call	eax
	cmp	esi, esp
	call	__RTC_CheckEsp
	mov	DWORD PTR _b$[ebp], eax
	cmp	DWORD PTR _b$[ebp], 0
	jl	$LN10@parseChara@2
; Line 216
	mov	eax, DWORD PTR _this$[ebp]
	mov	ecx, DWORD PTR [eax+24]
	mov	edx, DWORD PTR _b$[ebp]
	mov	al, BYTE PTR [ecx+edx]
	mov	BYTE PTR _mb$7975[ebp], al
; Line 219
	movzx	eax, BYTE PTR _mb$7975[ebp]
	test	eax, eax
	je	SHORT $LN7@parseChara@2
; Line 220
	movzx	eax, BYTE PTR _mb$7975[ebp]
	cmp	eax, 32					; 00000020H
	jne	SHORT $LN5@parseChara@2
	movzx	eax, BYTE PTR _ignoreSpace$[ebp]
	test	eax, eax
	jne	SHORT $LN6@parseChara@2
$LN5@parseChara@2:
; Line 221
	movzx	eax, BYTE PTR _mb$7975[ebp]
	push	eax
	mov	ecx, DWORD PTR _this$[ebp]
	call	?addByte@NGramParser@icu_56@@IAEXH@Z	; icu_56::NGramParser::addByte
$LN6@parseChara@2:
; Line 223
	movzx	eax, BYTE PTR _mb$7975[ebp]
	xor	ecx, ecx
	cmp	eax, 32					; 00000020H
	sete	cl
	mov	BYTE PTR _ignoreSpace$[ebp], cl
$LN7@parseChara@2:
; Line 226
	mov	eax, DWORD PTR _this$[ebp]
	cmp	DWORD PTR [eax+28], 0
	je	SHORT $LN4@parseChara@2
; Line 227
	mov	eax, DWORD PTR _this$[ebp]
	mov	ecx, DWORD PTR [eax+28]
	and	ecx, 255				; 000000ffH
	mov	edx, DWORD PTR _this$[ebp]
	mov	eax, DWORD PTR [edx+24]
	mov	cl, BYTE PTR [ecx+eax]
	mov	BYTE PTR _mb$7975[ebp], cl
; Line 230
	movzx	eax, BYTE PTR _mb$7975[ebp]
	test	eax, eax
	je	SHORT $LN4@parseChara@2
; Line 231
	movzx	eax, BYTE PTR _mb$7975[ebp]
	cmp	eax, 32					; 00000020H
	jne	SHORT $LN1@parseChara@2
	movzx	eax, BYTE PTR _ignoreSpace$[ebp]
	test	eax, eax
	jne	SHORT $LN2@parseChara@2
$LN1@parseChara@2:
; Line 232
	movzx	eax, BYTE PTR _mb$7975[ebp]
	push	eax
	mov	ecx, DWORD PTR _this$[ebp]
	call	?addByte@NGramParser@icu_56@@IAEXH@Z	; icu_56::NGramParser::addByte
$LN2@parseChara@2:
; Line 235
	movzx	eax, BYTE PTR _mb$7975[ebp]
	xor	ecx, ecx
	cmp	eax, 32					; 00000020H
	sete	cl
	mov	BYTE PTR _ignoreSpace$[ebp], cl
$LN4@parseChara@2:
; Line 239
	jmp	$LN9@parseChara@2
$LN10@parseChara@2:
; Line 240
	pop	edi
	pop	esi
	pop	ebx
	add	esp, 240				; 000000f0H
	cmp	ebp, esp
	call	__RTC_CheckEsp
	mov	esp, ebp
	pop	ebp
	ret	4
?parseCharacters@NGramParser_IBM420@icu_56@@EAEXPAVInputText@2@@Z ENDP ; icu_56::NGramParser_IBM420::parseCharacters
_TEXT	ENDS
PUBLIC	??_7CharsetRecog_sbcs@icu_56@@6B@		; icu_56::CharsetRecog_sbcs::`vftable'
PUBLIC	??0CharsetRecognizer@icu_56@@QAE@XZ		; icu_56::CharsetRecognizer::CharsetRecognizer
PUBLIC	??0CharsetRecog_sbcs@icu_56@@QAE@XZ		; icu_56::CharsetRecog_sbcs::CharsetRecog_sbcs
PUBLIC	??_R4CharsetRecog_sbcs@icu_56@@6B@		; icu_56::CharsetRecog_sbcs::`RTTI Complete Object Locator'
PUBLIC	??_R0?AVCharsetRecog_sbcs@icu_56@@@8		; icu_56::CharsetRecog_sbcs `RTTI Type Descriptor'
PUBLIC	??_R3CharsetRecog_sbcs@icu_56@@8		; icu_56::CharsetRecog_sbcs::`RTTI Class Hierarchy Descriptor'
PUBLIC	??_R2CharsetRecog_sbcs@icu_56@@8		; icu_56::CharsetRecog_sbcs::`RTTI Base Class Array'
PUBLIC	??_R1A@?0A@EA@CharsetRecog_sbcs@icu_56@@8	; icu_56::CharsetRecog_sbcs::`RTTI Base Class Descriptor at (0,-1,0,64)'
PUBLIC	??_R1A@?0A@EA@CharsetRecognizer@icu_56@@8	; icu_56::CharsetRecognizer::`RTTI Base Class Descriptor at (0,-1,0,64)'
PUBLIC	??_R0?AVCharsetRecognizer@icu_56@@@8		; icu_56::CharsetRecognizer `RTTI Type Descriptor'
PUBLIC	??_R3CharsetRecognizer@icu_56@@8		; icu_56::CharsetRecognizer::`RTTI Class Hierarchy Descriptor'
PUBLIC	??_R2CharsetRecognizer@icu_56@@8		; icu_56::CharsetRecognizer::`RTTI Base Class Array'
PUBLIC	?match_sbcs@CharsetRecog_sbcs@icu_56@@UBEHPAVInputText@2@QBHQBE@Z ; icu_56::CharsetRecog_sbcs::match_sbcs
EXTRN	__purecall:PROC
EXTRN	?getLanguage@CharsetRecognizer@icu_56@@UBEPBDXZ:PROC ; icu_56::CharsetRecognizer::getLanguage
EXTRN	??_ECharsetRecog_sbcs@icu_56@@UAEPAXI@Z:PROC	; icu_56::CharsetRecog_sbcs::`vector deleting destructor'
;	COMDAT ??_R2CharsetRecognizer@icu_56@@8
rdata$r	SEGMENT
??_R2CharsetRecognizer@icu_56@@8 DD FLAT:??_R1A@?0A@EA@CharsetRecognizer@icu_56@@8 ; icu_56::CharsetRecognizer::`RTTI Base Class Array'
	DD	FLAT:??_R13?0A@EA@UMemory@icu_56@@8
rdata$r	ENDS
;	COMDAT ??_R3CharsetRecognizer@icu_56@@8
rdata$r	SEGMENT
??_R3CharsetRecognizer@icu_56@@8 DD 00H			; icu_56::CharsetRecognizer::`RTTI Class Hierarchy Descriptor'
	DD	00H
	DD	02H
	DD	FLAT:??_R2CharsetRecognizer@icu_56@@8
rdata$r	ENDS
;	COMDAT ??_R0?AVCharsetRecognizer@icu_56@@@8
_DATA	SEGMENT
??_R0?AVCharsetRecognizer@icu_56@@@8 DD FLAT:??_7type_info@@6B@ ; icu_56::CharsetRecognizer `RTTI Type Descriptor'
	DD	00H
	DB	'.?AVCharsetRecognizer@icu_56@@', 00H
_DATA	ENDS
;	COMDAT ??_R1A@?0A@EA@CharsetRecognizer@icu_56@@8
rdata$r	SEGMENT
??_R1A@?0A@EA@CharsetRecognizer@icu_56@@8 DD FLAT:??_R0?AVCharsetRecognizer@icu_56@@@8 ; icu_56::CharsetRecognizer::`RTTI Base Class Descriptor at (0,-1,0,64)'
	DD	01H
	DD	00H
	DD	0ffffffffH
	DD	00H
	DD	040H
	DD	FLAT:??_R3CharsetRecognizer@icu_56@@8
rdata$r	ENDS
;	COMDAT ??_R1A@?0A@EA@CharsetRecog_sbcs@icu_56@@8
rdata$r	SEGMENT
??_R1A@?0A@EA@CharsetRecog_sbcs@icu_56@@8 DD FLAT:??_R0?AVCharsetRecog_sbcs@icu_56@@@8 ; icu_56::CharsetRecog_sbcs::`RTTI Base Class Descriptor at (0,-1,0,64)'
	DD	02H
	DD	00H
	DD	0ffffffffH
	DD	00H
	DD	040H
	DD	FLAT:??_R3CharsetRecog_sbcs@icu_56@@8
rdata$r	ENDS
;	COMDAT ??_R2CharsetRecog_sbcs@icu_56@@8
rdata$r	SEGMENT
??_R2CharsetRecog_sbcs@icu_56@@8 DD FLAT:??_R1A@?0A@EA@CharsetRecog_sbcs@icu_56@@8 ; icu_56::CharsetRecog_sbcs::`RTTI Base Class Array'
	DD	FLAT:??_R1A@?0A@EA@CharsetRecognizer@icu_56@@8
	DD	FLAT:??_R13?0A@EA@UMemory@icu_56@@8
rdata$r	ENDS
;	COMDAT ??_R3CharsetRecog_sbcs@icu_56@@8
rdata$r	SEGMENT
??_R3CharsetRecog_sbcs@icu_56@@8 DD 00H			; icu_56::CharsetRecog_sbcs::`RTTI Class Hierarchy Descriptor'
	DD	00H
	DD	03H
	DD	FLAT:??_R2CharsetRecog_sbcs@icu_56@@8
rdata$r	ENDS
;	COMDAT ??_R0?AVCharsetRecog_sbcs@icu_56@@@8
_DATA	SEGMENT
??_R0?AVCharsetRecog_sbcs@icu_56@@@8 DD FLAT:??_7type_info@@6B@ ; icu_56::CharsetRecog_sbcs `RTTI Type Descriptor'
	DD	00H
	DB	'.?AVCharsetRecog_sbcs@icu_56@@', 00H
_DATA	ENDS
;	COMDAT ??_R4CharsetRecog_sbcs@icu_56@@6B@
rdata$r	SEGMENT
??_R4CharsetRecog_sbcs@icu_56@@6B@ DD 00H		; icu_56::CharsetRecog_sbcs::`RTTI Complete Object Locator'
	DD	00H
	DD	00H
	DD	FLAT:??_R0?AVCharsetRecog_sbcs@icu_56@@@8
	DD	FLAT:??_R3CharsetRecog_sbcs@icu_56@@8
rdata$r	ENDS
;	COMDAT ??_7CharsetRecog_sbcs@icu_56@@6B@
CONST	SEGMENT
??_7CharsetRecog_sbcs@icu_56@@6B@ DD FLAT:??_R4CharsetRecog_sbcs@icu_56@@6B@ ; icu_56::CharsetRecog_sbcs::`vftable'
	DD	FLAT:__purecall
	DD	FLAT:?getLanguage@CharsetRecognizer@icu_56@@UBEPBDXZ
	DD	FLAT:__purecall
	DD	FLAT:??_ECharsetRecog_sbcs@icu_56@@UAEPAXI@Z
	DD	FLAT:?match_sbcs@CharsetRecog_sbcs@icu_56@@UBEHPAVInputText@2@QBHQBE@Z
; Function compile flags: /Odtp /RTCsu /ZI
CONST	ENDS
;	COMDAT ??0CharsetRecog_sbcs@icu_56@@QAE@XZ
_TEXT	SEGMENT
_this$ = -8						; size = 4
??0CharsetRecog_sbcs@icu_56@@QAE@XZ PROC		; icu_56::CharsetRecog_sbcs::CharsetRecog_sbcs, COMDAT
; _this$ = ecx
; Line 244
	push	ebp
	mov	ebp, esp
	sub	esp, 204				; 000000ccH
	push	ebx
	push	esi
	push	edi
	push	ecx
	lea	edi, DWORD PTR [ebp-204]
	mov	ecx, 51					; 00000033H
	mov	eax, -858993460				; ccccccccH
	rep stosd
	pop	ecx
	mov	DWORD PTR _this$[ebp], ecx
	mov	ecx, DWORD PTR _this$[ebp]
	call	??0CharsetRecognizer@icu_56@@QAE@XZ
	mov	eax, DWORD PTR _this$[ebp]
	mov	DWORD PTR [eax], OFFSET ??_7CharsetRecog_sbcs@icu_56@@6B@
; Line 246
	mov	eax, DWORD PTR _this$[ebp]
	pop	edi
	pop	esi
	pop	ebx
	add	esp, 204				; 000000ccH
	cmp	ebp, esp
	call	__RTC_CheckEsp
	mov	esp, ebp
	pop	ebp
	ret	0
??0CharsetRecog_sbcs@icu_56@@QAE@XZ ENDP		; icu_56::CharsetRecog_sbcs::CharsetRecog_sbcs
_TEXT	ENDS
PUBLIC	??1CharsetRecog_sbcs@icu_56@@UAE@XZ		; icu_56::CharsetRecog_sbcs::~CharsetRecog_sbcs
; Function compile flags: /Odtp /RTCsu /ZI
;	COMDAT ??_GCharsetRecog_sbcs@icu_56@@UAEPAXI@Z
_TEXT	SEGMENT
_this$ = -8						; size = 4
___flags$ = 8						; size = 4
??_GCharsetRecog_sbcs@icu_56@@UAEPAXI@Z PROC		; icu_56::CharsetRecog_sbcs::`scalar deleting destructor', COMDAT
; _this$ = ecx
	push	ebp
	mov	ebp, esp
	sub	esp, 204				; 000000ccH
	push	ebx
	push	esi
	push	edi
	push	ecx
	lea	edi, DWORD PTR [ebp-204]
	mov	ecx, 51					; 00000033H
	mov	eax, -858993460				; ccccccccH
	rep stosd
	pop	ecx
	mov	DWORD PTR _this$[ebp], ecx
	mov	ecx, DWORD PTR _this$[ebp]
	call	??1CharsetRecog_sbcs@icu_56@@UAE@XZ	; icu_56::CharsetRecog_sbcs::~CharsetRecog_sbcs
	mov	eax, DWORD PTR ___flags$[ebp]
	and	eax, 1
	je	SHORT $LN1@scalar@3
	mov	esi, esp
	mov	eax, DWORD PTR _this$[ebp]
	push	eax
	call	DWORD PTR __imp_??3UMemory@icu_56@@SAXPAX@Z
	add	esp, 4
	cmp	esi, esp
	call	__RTC_CheckEsp
$LN1@scalar@3:
	mov	eax, DWORD PTR _this$[ebp]
	pop	edi
	pop	esi
	pop	ebx
	add	esp, 204				; 000000ccH
	cmp	ebp, esp
	call	__RTC_CheckEsp
	mov	esp, ebp
	pop	ebp
	ret	4
??_GCharsetRecog_sbcs@icu_56@@UAEPAXI@Z ENDP		; icu_56::CharsetRecog_sbcs::`scalar deleting destructor'
_TEXT	ENDS
PUBLIC	??_7CharsetRecognizer@icu_56@@6B@		; icu_56::CharsetRecognizer::`vftable'
PUBLIC	??_R4CharsetRecognizer@icu_56@@6B@		; icu_56::CharsetRecognizer::`RTTI Complete Object Locator'
EXTRN	??_ECharsetRecognizer@icu_56@@UAEPAXI@Z:PROC	; icu_56::CharsetRecognizer::`vector deleting destructor'
;	COMDAT ??_R4CharsetRecognizer@icu_56@@6B@
rdata$r	SEGMENT
??_R4CharsetRecognizer@icu_56@@6B@ DD 00H		; icu_56::CharsetRecognizer::`RTTI Complete Object Locator'
	DD	00H
	DD	00H
	DD	FLAT:??_R0?AVCharsetRecognizer@icu_56@@@8
	DD	FLAT:??_R3CharsetRecognizer@icu_56@@8
rdata$r	ENDS
;	COMDAT ??_7CharsetRecognizer@icu_56@@6B@
CONST	SEGMENT
??_7CharsetRecognizer@icu_56@@6B@ DD FLAT:??_R4CharsetRecognizer@icu_56@@6B@ ; icu_56::CharsetRecognizer::`vftable'
	DD	FLAT:__purecall
	DD	FLAT:?getLanguage@CharsetRecognizer@icu_56@@UBEPBDXZ
	DD	FLAT:__purecall
	DD	FLAT:??_ECharsetRecognizer@icu_56@@UAEPAXI@Z
; Function compile flags: /Odtp /RTCsu /ZI
CONST	ENDS
;	COMDAT ??0CharsetRecognizer@icu_56@@QAE@XZ
_TEXT	SEGMENT
_this$ = -8						; size = 4
??0CharsetRecognizer@icu_56@@QAE@XZ PROC		; icu_56::CharsetRecognizer::CharsetRecognizer, COMDAT
; _this$ = ecx
	push	ebp
	mov	ebp, esp
	sub	esp, 204				; 000000ccH
	push	ebx
	push	esi
	push	edi
	push	ecx
	lea	edi, DWORD PTR [ebp-204]
	mov	ecx, 51					; 00000033H
	mov	eax, -858993460				; ccccccccH
	rep stosd
	pop	ecx
	mov	DWORD PTR _this$[ebp], ecx
	mov	eax, DWORD PTR _this$[ebp]
	mov	DWORD PTR [eax], OFFSET ??_7CharsetRecognizer@icu_56@@6B@
	mov	eax, DWORD PTR _this$[ebp]
	pop	edi
	pop	esi
	pop	ebx
	mov	esp, ebp
	pop	ebp
	ret	0
??0CharsetRecognizer@icu_56@@QAE@XZ ENDP		; icu_56::CharsetRecognizer::CharsetRecognizer
_TEXT	ENDS
EXTRN	??1CharsetRecognizer@icu_56@@UAE@XZ:PROC	; icu_56::CharsetRecognizer::~CharsetRecognizer
; Function compile flags: /Odtp /RTCsu /ZI
;	COMDAT ??_GCharsetRecognizer@icu_56@@UAEPAXI@Z
_TEXT	SEGMENT
_this$ = -8						; size = 4
___flags$ = 8						; size = 4
??_GCharsetRecognizer@icu_56@@UAEPAXI@Z PROC		; icu_56::CharsetRecognizer::`scalar deleting destructor', COMDAT
; _this$ = ecx
	push	ebp
	mov	ebp, esp
	sub	esp, 204				; 000000ccH
	push	ebx
	push	esi
	push	edi
	push	ecx
	lea	edi, DWORD PTR [ebp-204]
	mov	ecx, 51					; 00000033H
	mov	eax, -858993460				; ccccccccH
	rep stosd
	pop	ecx
	mov	DWORD PTR _this$[ebp], ecx
	mov	ecx, DWORD PTR _this$[ebp]
	call	??1CharsetRecognizer@icu_56@@UAE@XZ	; icu_56::CharsetRecognizer::~CharsetRecognizer
	mov	eax, DWORD PTR ___flags$[ebp]
	and	eax, 1
	je	SHORT $LN1@scalar@4
	mov	esi, esp
	mov	eax, DWORD PTR _this$[ebp]
	push	eax
	call	DWORD PTR __imp_??3UMemory@icu_56@@SAXPAX@Z
	add	esp, 4
	cmp	esi, esp
	call	__RTC_CheckEsp
$LN1@scalar@4:
	mov	eax, DWORD PTR _this$[ebp]
	pop	edi
	pop	esi
	pop	ebx
	add	esp, 204				; 000000ccH
	cmp	ebp, esp
	call	__RTC_CheckEsp
	mov	esp, ebp
	pop	ebp
	ret	4
??_GCharsetRecognizer@icu_56@@UAEPAXI@Z ENDP		; icu_56::CharsetRecognizer::`scalar deleting destructor'
; Function compile flags: /Odtp /RTCsu /ZI
_TEXT	ENDS
;	COMDAT ??1CharsetRecog_sbcs@icu_56@@UAE@XZ
_TEXT	SEGMENT
_this$ = -8						; size = 4
??1CharsetRecog_sbcs@icu_56@@UAE@XZ PROC		; icu_56::CharsetRecog_sbcs::~CharsetRecog_sbcs, COMDAT
; _this$ = ecx
; Line 249
	push	ebp
	mov	ebp, esp
	sub	esp, 204				; 000000ccH
	push	ebx
	push	esi
	push	edi
	push	ecx
	lea	edi, DWORD PTR [ebp-204]
	mov	ecx, 51					; 00000033H
	mov	eax, -858993460				; ccccccccH
	rep stosd
	pop	ecx
	mov	DWORD PTR _this$[ebp], ecx
	mov	eax, DWORD PTR _this$[ebp]
	mov	DWORD PTR [eax], OFFSET ??_7CharsetRecog_sbcs@icu_56@@6B@
; Line 251
	mov	ecx, DWORD PTR _this$[ebp]
	call	??1CharsetRecognizer@icu_56@@UAE@XZ	; icu_56::CharsetRecognizer::~CharsetRecognizer
	pop	edi
	pop	esi
	pop	ebx
	add	esp, 204				; 000000ccH
	cmp	ebp, esp
	call	__RTC_CheckEsp
	mov	esp, ebp
	pop	ebp
	ret	0
??1CharsetRecog_sbcs@icu_56@@UAE@XZ ENDP		; icu_56::CharsetRecog_sbcs::~CharsetRecog_sbcs
_TEXT	ENDS
EXTRN	___security_cookie:DWORD
EXTRN	___CxxFrameHandler3:PROC
EXTRN	@__security_check_cookie@4:PROC
EXTRN	@_RTC_CheckStackVars@8:PROC
;	COMDAT xdata$x
xdata$x	SEGMENT
__unwindtable$?match_sbcs@CharsetRecog_sbcs@icu_56@@UBEHPAVInputText@2@QBHQBE@Z DD 0ffffffffH
	DD	FLAT:__unwindfunclet$?match_sbcs@CharsetRecog_sbcs@icu_56@@UBEHPAVInputText@2@QBHQBE@Z$0
__ehfuncinfo$?match_sbcs@CharsetRecog_sbcs@icu_56@@UBEHPAVInputText@2@QBHQBE@Z DD 019930522H
	DD	01H
	DD	FLAT:__unwindtable$?match_sbcs@CharsetRecog_sbcs@icu_56@@UBEHPAVInputText@2@QBHQBE@Z
	DD	2 DUP(00H)
	DD	2 DUP(00H)
	DD	00H
	DD	01H
; Function compile flags: /Odtp /RTCsu /ZI
xdata$x	ENDS
;	COMDAT ?match_sbcs@CharsetRecog_sbcs@icu_56@@UBEHPAVInputText@2@QBHQBE@Z
_TEXT	SEGMENT
$T8992 = -272						; size = 4
_result$ = -68						; size = 4
_parser$ = -56						; size = 28
_this$ = -20						; size = 4
__$EHRec$ = -12						; size = 12
_det$ = 8						; size = 4
_ngrams$ = 12						; size = 4
_byteMap$ = 16						; size = 4
?match_sbcs@CharsetRecog_sbcs@icu_56@@UBEHPAVInputText@2@QBHQBE@Z PROC ; icu_56::CharsetRecog_sbcs::match_sbcs, COMDAT
; _this$ = ecx
; Line 254
	push	ebp
	mov	ebp, esp
	push	-1
	push	__ehhandler$?match_sbcs@CharsetRecog_sbcs@icu_56@@UBEHPAVInputText@2@QBHQBE@Z
	mov	eax, DWORD PTR fs:0
	push	eax
	sub	esp, 264				; 00000108H
	push	ebx
	push	esi
	push	edi
	push	ecx
	lea	edi, DWORD PTR [ebp-276]
	mov	ecx, 66					; 00000042H
	mov	eax, -858993460				; ccccccccH
	rep stosd
	pop	ecx
	mov	eax, DWORD PTR ___security_cookie
	xor	eax, ebp
	push	eax
	lea	eax, DWORD PTR __$EHRec$[ebp]
	mov	DWORD PTR fs:0, eax
	mov	DWORD PTR _this$[ebp], ecx
; Line 255
	mov	eax, DWORD PTR _byteMap$[ebp]
	push	eax
	mov	ecx, DWORD PTR _ngrams$[ebp]
	push	ecx
	lea	ecx, DWORD PTR _parser$[ebp]
	call	??0NGramParser@icu_56@@QAE@PBHPBE@Z	; icu_56::NGramParser::NGramParser
	mov	DWORD PTR __$EHRec$[ebp+8], 0
; Line 258
	mov	eax, DWORD PTR _det$[ebp]
	push	eax
	lea	ecx, DWORD PTR _parser$[ebp]
	call	?parse@NGramParser@icu_56@@QAEHPAVInputText@2@@Z ; icu_56::NGramParser::parse
	mov	DWORD PTR _result$[ebp], eax
; Line 260
	mov	eax, DWORD PTR _result$[ebp]
	mov	DWORD PTR $T8992[ebp], eax
	mov	DWORD PTR __$EHRec$[ebp+8], -1
	lea	ecx, DWORD PTR _parser$[ebp]
	call	??1NGramParser@icu_56@@UAE@XZ		; icu_56::NGramParser::~NGramParser
	mov	eax, DWORD PTR $T8992[ebp]
; Line 261
	push	edx
	mov	ecx, ebp
	push	eax
	lea	edx, DWORD PTR $LN7@match_sbcs
	call	@_RTC_CheckStackVars@8
	pop	eax
	pop	edx
	mov	ecx, DWORD PTR __$EHRec$[ebp]
	mov	DWORD PTR fs:0, ecx
	pop	ecx
	pop	edi
	pop	esi
	pop	ebx
	add	esp, 276				; 00000114H
	cmp	ebp, esp
	call	__RTC_CheckEsp
	mov	esp, ebp
	pop	ebp
	ret	12					; 0000000cH
$LN7@match_sbcs:
	DD	1
	DD	$LN6@match_sbcs
$LN6@match_sbcs:
	DD	-56					; ffffffc8H
	DD	28					; 0000001cH
	DD	$LN4@match_sbcs
$LN4@match_sbcs:
	DB	112					; 00000070H
	DB	97					; 00000061H
	DB	114					; 00000072H
	DB	115					; 00000073H
	DB	101					; 00000065H
	DB	114					; 00000072H
	DB	0
_TEXT	ENDS
;	COMDAT text$x
text$x	SEGMENT
__unwindfunclet$?match_sbcs@CharsetRecog_sbcs@icu_56@@UBEHPAVInputText@2@QBHQBE@Z$0:
	lea	ecx, DWORD PTR _parser$[ebp]
	jmp	??1NGramParser@icu_56@@UAE@XZ		; icu_56::NGramParser::~NGramParser
__ehhandler$?match_sbcs@CharsetRecog_sbcs@icu_56@@UBEHPAVInputText@2@QBHQBE@Z:
	mov	edx, DWORD PTR [esp+8]
	lea	eax, DWORD PTR [edx+12]
	mov	ecx, DWORD PTR [edx-280]
	xor	ecx, eax
	call	@__security_check_cookie@4
	mov	eax, OFFSET __ehfuncinfo$?match_sbcs@CharsetRecog_sbcs@icu_56@@UBEHPAVInputText@2@QBHQBE@Z
	jmp	___CxxFrameHandler3
text$x	ENDS
?match_sbcs@CharsetRecog_sbcs@icu_56@@UBEHPAVInputText@2@QBHQBE@Z ENDP ; icu_56::CharsetRecog_sbcs::match_sbcs
PUBLIC	??_7CharsetRecog_8859_1@icu_56@@6B@		; icu_56::CharsetRecog_8859_1::`vftable'
PUBLIC	??1CharsetRecog_8859_1@icu_56@@UAE@XZ		; icu_56::CharsetRecog_8859_1::~CharsetRecog_8859_1
PUBLIC	??_R4CharsetRecog_8859_1@icu_56@@6B@		; icu_56::CharsetRecog_8859_1::`RTTI Complete Object Locator'
PUBLIC	??_R0?AVCharsetRecog_8859_1@icu_56@@@8		; icu_56::CharsetRecog_8859_1 `RTTI Type Descriptor'
PUBLIC	??_R3CharsetRecog_8859_1@icu_56@@8		; icu_56::CharsetRecog_8859_1::`RTTI Class Hierarchy Descriptor'
PUBLIC	??_R2CharsetRecog_8859_1@icu_56@@8		; icu_56::CharsetRecog_8859_1::`RTTI Base Class Array'
PUBLIC	??_R1A@?0A@EA@CharsetRecog_8859_1@icu_56@@8	; icu_56::CharsetRecog_8859_1::`RTTI Base Class Descriptor at (0,-1,0,64)'
PUBLIC	?getName@CharsetRecog_8859_1@icu_56@@UBEPBDXZ	; icu_56::CharsetRecog_8859_1::getName
PUBLIC	?match@CharsetRecog_8859_1@icu_56@@UBECPAVInputText@2@PAVCharsetMatch@2@@Z ; icu_56::CharsetRecog_8859_1::match
EXTRN	??_ECharsetRecog_8859_1@icu_56@@UAEPAXI@Z:PROC	; icu_56::CharsetRecog_8859_1::`vector deleting destructor'
;	COMDAT ??_R1A@?0A@EA@CharsetRecog_8859_1@icu_56@@8
rdata$r	SEGMENT
??_R1A@?0A@EA@CharsetRecog_8859_1@icu_56@@8 DD FLAT:??_R0?AVCharsetRecog_8859_1@icu_56@@@8 ; icu_56::CharsetRecog_8859_1::`RTTI Base Class Descriptor at (0,-1,0,64)'
	DD	03H
	DD	00H
	DD	0ffffffffH
	DD	00H
	DD	040H
	DD	FLAT:??_R3CharsetRecog_8859_1@icu_56@@8
rdata$r	ENDS
;	COMDAT ??_R2CharsetRecog_8859_1@icu_56@@8
rdata$r	SEGMENT
??_R2CharsetRecog_8859_1@icu_56@@8 DD FLAT:??_R1A@?0A@EA@CharsetRecog_8859_1@icu_56@@8 ; icu_56::CharsetRecog_8859_1::`RTTI Base Class Array'
	DD	FLAT:??_R1A@?0A@EA@CharsetRecog_sbcs@icu_56@@8
	DD	FLAT:??_R1A@?0A@EA@CharsetRecognizer@icu_56@@8
	DD	FLAT:??_R13?0A@EA@UMemory@icu_56@@8
rdata$r	ENDS
;	COMDAT ??_R3CharsetRecog_8859_1@icu_56@@8
rdata$r	SEGMENT
??_R3CharsetRecog_8859_1@icu_56@@8 DD 00H		; icu_56::CharsetRecog_8859_1::`RTTI Class Hierarchy Descriptor'
	DD	00H
	DD	04H
	DD	FLAT:??_R2CharsetRecog_8859_1@icu_56@@8
rdata$r	ENDS
;	COMDAT ??_R0?AVCharsetRecog_8859_1@icu_56@@@8
_DATA	SEGMENT
??_R0?AVCharsetRecog_8859_1@icu_56@@@8 DD FLAT:??_7type_info@@6B@ ; icu_56::CharsetRecog_8859_1 `RTTI Type Descriptor'
	DD	00H
	DB	'.?AVCharsetRecog_8859_1@icu_56@@', 00H
_DATA	ENDS
;	COMDAT ??_R4CharsetRecog_8859_1@icu_56@@6B@
rdata$r	SEGMENT
??_R4CharsetRecog_8859_1@icu_56@@6B@ DD 00H		; icu_56::CharsetRecog_8859_1::`RTTI Complete Object Locator'
	DD	00H
	DD	00H
	DD	FLAT:??_R0?AVCharsetRecog_8859_1@icu_56@@@8
	DD	FLAT:??_R3CharsetRecog_8859_1@icu_56@@8
rdata$r	ENDS
;	COMDAT ??_7CharsetRecog_8859_1@icu_56@@6B@
CONST	SEGMENT
??_7CharsetRecog_8859_1@icu_56@@6B@ DD FLAT:??_R4CharsetRecog_8859_1@icu_56@@6B@ ; icu_56::CharsetRecog_8859_1::`vftable'
	DD	FLAT:?getName@CharsetRecog_8859_1@icu_56@@UBEPBDXZ
	DD	FLAT:?getLanguage@CharsetRecognizer@icu_56@@UBEPBDXZ
	DD	FLAT:?match@CharsetRecog_8859_1@icu_56@@UBECPAVInputText@2@PAVCharsetMatch@2@@Z
	DD	FLAT:??_ECharsetRecog_8859_1@icu_56@@UAEPAXI@Z
	DD	FLAT:?match_sbcs@CharsetRecog_sbcs@icu_56@@UBEHPAVInputText@2@QBHQBE@Z
; Function compile flags: /Odtp /RTCsu /ZI
CONST	ENDS
;	COMDAT ??1CharsetRecog_8859_1@icu_56@@UAE@XZ
_TEXT	SEGMENT
_this$ = -8						; size = 4
??1CharsetRecog_8859_1@icu_56@@UAE@XZ PROC		; icu_56::CharsetRecog_8859_1::~CharsetRecog_8859_1, COMDAT
; _this$ = ecx
; Line 887
	push	ebp
	mov	ebp, esp
	sub	esp, 204				; 000000ccH
	push	ebx
	push	esi
	push	edi
	push	ecx
	lea	edi, DWORD PTR [ebp-204]
	mov	ecx, 51					; 00000033H
	mov	eax, -858993460				; ccccccccH
	rep stosd
	pop	ecx
	mov	DWORD PTR _this$[ebp], ecx
	mov	eax, DWORD PTR _this$[ebp]
	mov	DWORD PTR [eax], OFFSET ??_7CharsetRecog_8859_1@icu_56@@6B@
; Line 889
	mov	ecx, DWORD PTR _this$[ebp]
	call	??1CharsetRecog_sbcs@icu_56@@UAE@XZ	; icu_56::CharsetRecog_sbcs::~CharsetRecog_sbcs
	pop	edi
	pop	esi
	pop	ebx
	add	esp, 204				; 000000ccH
	cmp	ebp, esp
	call	__RTC_CheckEsp
	mov	esp, ebp
	pop	ebp
	ret	0
??1CharsetRecog_8859_1@icu_56@@UAE@XZ ENDP		; icu_56::CharsetRecog_8859_1::~CharsetRecog_8859_1
; Function compile flags: /Odtp /RTCsu /ZI
_TEXT	ENDS
;	COMDAT ??_GCharsetRecog_8859_1@icu_56@@UAEPAXI@Z
_TEXT	SEGMENT
_this$ = -8						; size = 4
___flags$ = 8						; size = 4
??_GCharsetRecog_8859_1@icu_56@@UAEPAXI@Z PROC		; icu_56::CharsetRecog_8859_1::`scalar deleting destructor', COMDAT
; _this$ = ecx
	push	ebp
	mov	ebp, esp
	sub	esp, 204				; 000000ccH
	push	ebx
	push	esi
	push	edi
	push	ecx
	lea	edi, DWORD PTR [ebp-204]
	mov	ecx, 51					; 00000033H
	mov	eax, -858993460				; ccccccccH
	rep stosd
	pop	ecx
	mov	DWORD PTR _this$[ebp], ecx
	mov	ecx, DWORD PTR _this$[ebp]
	call	??1CharsetRecog_8859_1@icu_56@@UAE@XZ	; icu_56::CharsetRecog_8859_1::~CharsetRecog_8859_1
	mov	eax, DWORD PTR ___flags$[ebp]
	and	eax, 1
	je	SHORT $LN1@scalar@5
	mov	esi, esp
	mov	eax, DWORD PTR _this$[ebp]
	push	eax
	call	DWORD PTR __imp_??3UMemory@icu_56@@SAXPAX@Z
	add	esp, 4
	cmp	esi, esp
	call	__RTC_CheckEsp
$LN1@scalar@5:
	mov	eax, DWORD PTR _this$[ebp]
	pop	edi
	pop	esi
	pop	ebx
	add	esp, 204				; 000000ccH
	cmp	ebp, esp
	call	__RTC_CheckEsp
	mov	esp, ebp
	pop	ebp
	ret	4
??_GCharsetRecog_8859_1@icu_56@@UAEPAXI@Z ENDP		; icu_56::CharsetRecog_8859_1::`scalar deleting destructor'
_TEXT	ENDS
PUBLIC	??_C@_0L@GJIJNDEK@ISO?98859?91?$AA@		; `string'
PUBLIC	??_C@_0N@BCBHFELI@windows?91252?$AA@		; `string'
EXTRN	?set@CharsetMatch@icu_56@@QAEXPAVInputText@2@PBVCharsetRecognizer@2@HPBD2@Z:PROC ; icu_56::CharsetMatch::set
;	COMDAT ??_C@_0L@GJIJNDEK@ISO?98859?91?$AA@
CONST	SEGMENT
??_C@_0L@GJIJNDEK@ISO?98859?91?$AA@ DB 'ISO-8859-1', 00H ; `string'
CONST	ENDS
;	COMDAT ??_C@_0N@BCBHFELI@windows?91252?$AA@
CONST	SEGMENT
??_C@_0N@BCBHFELI@windows?91252?$AA@ DB 'windows-1252', 00H ; `string'
; Function compile flags: /Odtp /RTCsu /ZI
CONST	ENDS
;	COMDAT ?match@CharsetRecog_8859_1@icu_56@@UBECPAVInputText@2@PAVCharsetMatch@2@@Z
_TEXT	SEGMENT
tv67 = -280						; size = 4
_confidence$8107 = -80					; size = 4
_lang$8106 = -68					; size = 4
_ngrams$8105 = -56					; size = 4
_bestConfidenceSoFar$ = -44				; size = 4
_i$ = -32						; size = 4
_name$ = -20						; size = 4
_this$ = -8						; size = 4
_textIn$ = 8						; size = 4
_results$ = 12						; size = 4
?match@CharsetRecog_8859_1@icu_56@@UBECPAVInputText@2@PAVCharsetMatch@2@@Z PROC ; icu_56::CharsetRecog_8859_1::match, COMDAT
; _this$ = ecx
; Line 891
	push	ebp
	mov	ebp, esp
	sub	esp, 280				; 00000118H
	push	ebx
	push	esi
	push	edi
	push	ecx
	lea	edi, DWORD PTR [ebp-280]
	mov	ecx, 70					; 00000046H
	mov	eax, -858993460				; ccccccccH
	rep stosd
	pop	ecx
	mov	DWORD PTR _this$[ebp], ecx
; Line 892
	mov	eax, DWORD PTR _textIn$[ebp]
	movsx	ecx, BYTE PTR [eax+12]
	test	ecx, ecx
	je	SHORT $LN7@match
	mov	DWORD PTR tv67[ebp], OFFSET ??_C@_0N@BCBHFELI@windows?91252?$AA@
	jmp	SHORT $LN8@match
$LN7@match:
	mov	DWORD PTR tv67[ebp], OFFSET ??_C@_0L@GJIJNDEK@ISO?98859?91?$AA@
$LN8@match:
	mov	edx, DWORD PTR tv67[ebp]
	mov	DWORD PTR _name$[ebp], edx
; Line 894
	mov	DWORD PTR _bestConfidenceSoFar$[ebp], -1
; Line 895
	mov	DWORD PTR _i$[ebp], 0
	jmp	SHORT $LN4@match
$LN3@match:
	mov	eax, DWORD PTR _i$[ebp]
	add	eax, 1
	mov	DWORD PTR _i$[ebp], eax
$LN4@match:
	cmp	DWORD PTR _i$[ebp], 10			; 0000000aH
	jae	SHORT $LN2@match
; Line 896
	mov	eax, DWORD PTR _i$[ebp]
	imul	eax, 260				; 00000104H
	add	eax, OFFSET _ngrams_8859_1
	mov	DWORD PTR _ngrams$8105[ebp], eax
; Line 897
	mov	eax, DWORD PTR _i$[ebp]
	imul	eax, 260				; 00000104H
	mov	ecx, DWORD PTR _ngrams_8859_1[eax+256]
	mov	DWORD PTR _lang$8106[ebp], ecx
; Line 898
	mov	esi, esp
	push	OFFSET _charMap_8859_1
	mov	eax, DWORD PTR _ngrams$8105[ebp]
	push	eax
	mov	ecx, DWORD PTR _textIn$[ebp]
	push	ecx
	mov	edx, DWORD PTR _this$[ebp]
	mov	eax, DWORD PTR [edx]
	mov	ecx, DWORD PTR _this$[ebp]
	mov	edx, DWORD PTR [eax+16]
	call	edx
	cmp	esi, esp
	call	__RTC_CheckEsp
	mov	DWORD PTR _confidence$8107[ebp], eax
; Line 899
	mov	eax, DWORD PTR _confidence$8107[ebp]
	cmp	eax, DWORD PTR _bestConfidenceSoFar$[ebp]
	jle	SHORT $LN1@match
; Line 900
	mov	eax, DWORD PTR _lang$8106[ebp]
	push	eax
	mov	ecx, DWORD PTR _name$[ebp]
	push	ecx
	mov	edx, DWORD PTR _confidence$8107[ebp]
	push	edx
	mov	eax, DWORD PTR _this$[ebp]
	push	eax
	mov	ecx, DWORD PTR _textIn$[ebp]
	push	ecx
	mov	ecx, DWORD PTR _results$[ebp]
	call	?set@CharsetMatch@icu_56@@QAEXPAVInputText@2@PBVCharsetRecognizer@2@HPBD2@Z ; icu_56::CharsetMatch::set
; Line 901
	mov	eax, DWORD PTR _confidence$8107[ebp]
	mov	DWORD PTR _bestConfidenceSoFar$[ebp], eax
$LN1@match:
; Line 903
	jmp	$LN3@match
$LN2@match:
; Line 904
	cmp	DWORD PTR _bestConfidenceSoFar$[ebp], 0
	setg	al
; Line 905
	pop	edi
	pop	esi
	pop	ebx
	add	esp, 280				; 00000118H
	cmp	ebp, esp
	call	__RTC_CheckEsp
	mov	esp, ebp
	pop	ebp
	ret	8
?match@CharsetRecog_8859_1@icu_56@@UBECPAVInputText@2@PAVCharsetMatch@2@@Z ENDP ; icu_56::CharsetRecog_8859_1::match
; Function compile flags: /Odtp /RTCsu /ZI
_TEXT	ENDS
;	COMDAT ?getName@CharsetRecog_8859_1@icu_56@@UBEPBDXZ
_TEXT	SEGMENT
_this$ = -8						; size = 4
?getName@CharsetRecog_8859_1@icu_56@@UBEPBDXZ PROC	; icu_56::CharsetRecog_8859_1::getName, COMDAT
; _this$ = ecx
; Line 908
	push	ebp
	mov	ebp, esp
	sub	esp, 204				; 000000ccH
	push	ebx
	push	esi
	push	edi
	push	ecx
	lea	edi, DWORD PTR [ebp-204]
	mov	ecx, 51					; 00000033H
	mov	eax, -858993460				; ccccccccH
	rep stosd
	pop	ecx
	mov	DWORD PTR _this$[ebp], ecx
; Line 909
	mov	eax, OFFSET ??_C@_0L@GJIJNDEK@ISO?98859?91?$AA@
; Line 910
	pop	edi
	pop	esi
	pop	ebx
	mov	esp, ebp
	pop	ebp
	ret	0
?getName@CharsetRecog_8859_1@icu_56@@UBEPBDXZ ENDP	; icu_56::CharsetRecog_8859_1::getName
_TEXT	ENDS
PUBLIC	??_7CharsetRecog_8859_2@icu_56@@6B@		; icu_56::CharsetRecog_8859_2::`vftable'
PUBLIC	??1CharsetRecog_8859_2@icu_56@@UAE@XZ		; icu_56::CharsetRecog_8859_2::~CharsetRecog_8859_2
PUBLIC	??_R4CharsetRecog_8859_2@icu_56@@6B@		; icu_56::CharsetRecog_8859_2::`RTTI Complete Object Locator'
PUBLIC	??_R0?AVCharsetRecog_8859_2@icu_56@@@8		; icu_56::CharsetRecog_8859_2 `RTTI Type Descriptor'
PUBLIC	??_R3CharsetRecog_8859_2@icu_56@@8		; icu_56::CharsetRecog_8859_2::`RTTI Class Hierarchy Descriptor'
PUBLIC	??_R2CharsetRecog_8859_2@icu_56@@8		; icu_56::CharsetRecog_8859_2::`RTTI Base Class Array'
PUBLIC	??_R1A@?0A@EA@CharsetRecog_8859_2@icu_56@@8	; icu_56::CharsetRecog_8859_2::`RTTI Base Class Descriptor at (0,-1,0,64)'
PUBLIC	?getName@CharsetRecog_8859_2@icu_56@@UBEPBDXZ	; icu_56::CharsetRecog_8859_2::getName
PUBLIC	?match@CharsetRecog_8859_2@icu_56@@UBECPAVInputText@2@PAVCharsetMatch@2@@Z ; icu_56::CharsetRecog_8859_2::match
EXTRN	??_ECharsetRecog_8859_2@icu_56@@UAEPAXI@Z:PROC	; icu_56::CharsetRecog_8859_2::`vector deleting destructor'
;	COMDAT ??_R1A@?0A@EA@CharsetRecog_8859_2@icu_56@@8
rdata$r	SEGMENT
??_R1A@?0A@EA@CharsetRecog_8859_2@icu_56@@8 DD FLAT:??_R0?AVCharsetRecog_8859_2@icu_56@@@8 ; icu_56::CharsetRecog_8859_2::`RTTI Base Class Descriptor at (0,-1,0,64)'
	DD	03H
	DD	00H
	DD	0ffffffffH
	DD	00H
	DD	040H
	DD	FLAT:??_R3CharsetRecog_8859_2@icu_56@@8
rdata$r	ENDS
;	COMDAT ??_R2CharsetRecog_8859_2@icu_56@@8
rdata$r	SEGMENT
??_R2CharsetRecog_8859_2@icu_56@@8 DD FLAT:??_R1A@?0A@EA@CharsetRecog_8859_2@icu_56@@8 ; icu_56::CharsetRecog_8859_2::`RTTI Base Class Array'
	DD	FLAT:??_R1A@?0A@EA@CharsetRecog_sbcs@icu_56@@8
	DD	FLAT:??_R1A@?0A@EA@CharsetRecognizer@icu_56@@8
	DD	FLAT:??_R13?0A@EA@UMemory@icu_56@@8
rdata$r	ENDS
;	COMDAT ??_R3CharsetRecog_8859_2@icu_56@@8
rdata$r	SEGMENT
??_R3CharsetRecog_8859_2@icu_56@@8 DD 00H		; icu_56::CharsetRecog_8859_2::`RTTI Class Hierarchy Descriptor'
	DD	00H
	DD	04H
	DD	FLAT:??_R2CharsetRecog_8859_2@icu_56@@8
rdata$r	ENDS
;	COMDAT ??_R0?AVCharsetRecog_8859_2@icu_56@@@8
_DATA	SEGMENT
??_R0?AVCharsetRecog_8859_2@icu_56@@@8 DD FLAT:??_7type_info@@6B@ ; icu_56::CharsetRecog_8859_2 `RTTI Type Descriptor'
	DD	00H
	DB	'.?AVCharsetRecog_8859_2@icu_56@@', 00H
_DATA	ENDS
;	COMDAT ??_R4CharsetRecog_8859_2@icu_56@@6B@
rdata$r	SEGMENT
??_R4CharsetRecog_8859_2@icu_56@@6B@ DD 00H		; icu_56::CharsetRecog_8859_2::`RTTI Complete Object Locator'
	DD	00H
	DD	00H
	DD	FLAT:??_R0?AVCharsetRecog_8859_2@icu_56@@@8
	DD	FLAT:??_R3CharsetRecog_8859_2@icu_56@@8
rdata$r	ENDS
;	COMDAT ??_7CharsetRecog_8859_2@icu_56@@6B@
CONST	SEGMENT
??_7CharsetRecog_8859_2@icu_56@@6B@ DD FLAT:??_R4CharsetRecog_8859_2@icu_56@@6B@ ; icu_56::CharsetRecog_8859_2::`vftable'
	DD	FLAT:?getName@CharsetRecog_8859_2@icu_56@@UBEPBDXZ
	DD	FLAT:?getLanguage@CharsetRecognizer@icu_56@@UBEPBDXZ
	DD	FLAT:?match@CharsetRecog_8859_2@icu_56@@UBECPAVInputText@2@PAVCharsetMatch@2@@Z
	DD	FLAT:??_ECharsetRecog_8859_2@icu_56@@UAEPAXI@Z
	DD	FLAT:?match_sbcs@CharsetRecog_sbcs@icu_56@@UBEHPAVInputText@2@QBHQBE@Z
; Function compile flags: /Odtp /RTCsu /ZI
CONST	ENDS
;	COMDAT ??1CharsetRecog_8859_2@icu_56@@UAE@XZ
_TEXT	SEGMENT
_this$ = -8						; size = 4
??1CharsetRecog_8859_2@icu_56@@UAE@XZ PROC		; icu_56::CharsetRecog_8859_2::~CharsetRecog_8859_2, COMDAT
; _this$ = ecx
; Line 914
	push	ebp
	mov	ebp, esp
	sub	esp, 204				; 000000ccH
	push	ebx
	push	esi
	push	edi
	push	ecx
	lea	edi, DWORD PTR [ebp-204]
	mov	ecx, 51					; 00000033H
	mov	eax, -858993460				; ccccccccH
	rep stosd
	pop	ecx
	mov	DWORD PTR _this$[ebp], ecx
	mov	eax, DWORD PTR _this$[ebp]
	mov	DWORD PTR [eax], OFFSET ??_7CharsetRecog_8859_2@icu_56@@6B@
; Line 916
	mov	ecx, DWORD PTR _this$[ebp]
	call	??1CharsetRecog_sbcs@icu_56@@UAE@XZ	; icu_56::CharsetRecog_sbcs::~CharsetRecog_sbcs
	pop	edi
	pop	esi
	pop	ebx
	add	esp, 204				; 000000ccH
	cmp	ebp, esp
	call	__RTC_CheckEsp
	mov	esp, ebp
	pop	ebp
	ret	0
??1CharsetRecog_8859_2@icu_56@@UAE@XZ ENDP		; icu_56::CharsetRecog_8859_2::~CharsetRecog_8859_2
; Function compile flags: /Odtp /RTCsu /ZI
_TEXT	ENDS
;	COMDAT ??_GCharsetRecog_8859_2@icu_56@@UAEPAXI@Z
_TEXT	SEGMENT
_this$ = -8						; size = 4
___flags$ = 8						; size = 4
??_GCharsetRecog_8859_2@icu_56@@UAEPAXI@Z PROC		; icu_56::CharsetRecog_8859_2::`scalar deleting destructor', COMDAT
; _this$ = ecx
	push	ebp
	mov	ebp, esp
	sub	esp, 204				; 000000ccH
	push	ebx
	push	esi
	push	edi
	push	ecx
	lea	edi, DWORD PTR [ebp-204]
	mov	ecx, 51					; 00000033H
	mov	eax, -858993460				; ccccccccH
	rep stosd
	pop	ecx
	mov	DWORD PTR _this$[ebp], ecx
	mov	ecx, DWORD PTR _this$[ebp]
	call	??1CharsetRecog_8859_2@icu_56@@UAE@XZ	; icu_56::CharsetRecog_8859_2::~CharsetRecog_8859_2
	mov	eax, DWORD PTR ___flags$[ebp]
	and	eax, 1
	je	SHORT $LN1@scalar@6
	mov	esi, esp
	mov	eax, DWORD PTR _this$[ebp]
	push	eax
	call	DWORD PTR __imp_??3UMemory@icu_56@@SAXPAX@Z
	add	esp, 4
	cmp	esi, esp
	call	__RTC_CheckEsp
$LN1@scalar@6:
	mov	eax, DWORD PTR _this$[ebp]
	pop	edi
	pop	esi
	pop	ebx
	add	esp, 204				; 000000ccH
	cmp	ebp, esp
	call	__RTC_CheckEsp
	mov	esp, ebp
	pop	ebp
	ret	4
??_GCharsetRecog_8859_2@icu_56@@UAEPAXI@Z ENDP		; icu_56::CharsetRecog_8859_2::`scalar deleting destructor'
_TEXT	ENDS
PUBLIC	??_C@_0L@ECKEIAIJ@ISO?98859?92?$AA@		; `string'
PUBLIC	??_C@_0N@CACBDGDK@windows?91250?$AA@		; `string'
;	COMDAT ??_C@_0L@ECKEIAIJ@ISO?98859?92?$AA@
CONST	SEGMENT
??_C@_0L@ECKEIAIJ@ISO?98859?92?$AA@ DB 'ISO-8859-2', 00H ; `string'
CONST	ENDS
;	COMDAT ??_C@_0N@CACBDGDK@windows?91250?$AA@
CONST	SEGMENT
??_C@_0N@CACBDGDK@windows?91250?$AA@ DB 'windows-1250', 00H ; `string'
; Function compile flags: /Odtp /RTCsu /ZI
CONST	ENDS
;	COMDAT ?match@CharsetRecog_8859_2@icu_56@@UBECPAVInputText@2@PAVCharsetMatch@2@@Z
_TEXT	SEGMENT
tv67 = -280						; size = 4
_confidence$8134 = -80					; size = 4
_lang$8133 = -68					; size = 4
_ngrams$8132 = -56					; size = 4
_bestConfidenceSoFar$ = -44				; size = 4
_i$ = -32						; size = 4
_name$ = -20						; size = 4
_this$ = -8						; size = 4
_textIn$ = 8						; size = 4
_results$ = 12						; size = 4
?match@CharsetRecog_8859_2@icu_56@@UBECPAVInputText@2@PAVCharsetMatch@2@@Z PROC ; icu_56::CharsetRecog_8859_2::match, COMDAT
; _this$ = ecx
; Line 918
	push	ebp
	mov	ebp, esp
	sub	esp, 280				; 00000118H
	push	ebx
	push	esi
	push	edi
	push	ecx
	lea	edi, DWORD PTR [ebp-280]
	mov	ecx, 70					; 00000046H
	mov	eax, -858993460				; ccccccccH
	rep stosd
	pop	ecx
	mov	DWORD PTR _this$[ebp], ecx
; Line 919
	mov	eax, DWORD PTR _textIn$[ebp]
	movsx	ecx, BYTE PTR [eax+12]
	test	ecx, ecx
	je	SHORT $LN7@match@2
	mov	DWORD PTR tv67[ebp], OFFSET ??_C@_0N@CACBDGDK@windows?91250?$AA@
	jmp	SHORT $LN8@match@2
$LN7@match@2:
	mov	DWORD PTR tv67[ebp], OFFSET ??_C@_0L@ECKEIAIJ@ISO?98859?92?$AA@
$LN8@match@2:
	mov	edx, DWORD PTR tv67[ebp]
	mov	DWORD PTR _name$[ebp], edx
; Line 921
	mov	DWORD PTR _bestConfidenceSoFar$[ebp], -1
; Line 922
	mov	DWORD PTR _i$[ebp], 0
	jmp	SHORT $LN4@match@2
$LN3@match@2:
	mov	eax, DWORD PTR _i$[ebp]
	add	eax, 1
	mov	DWORD PTR _i$[ebp], eax
$LN4@match@2:
	cmp	DWORD PTR _i$[ebp], 4
	jae	SHORT $LN2@match@2
; Line 923
	mov	eax, DWORD PTR _i$[ebp]
	imul	eax, 260				; 00000104H
	add	eax, OFFSET _ngrams_8859_2
	mov	DWORD PTR _ngrams$8132[ebp], eax
; Line 924
	mov	eax, DWORD PTR _i$[ebp]
	imul	eax, 260				; 00000104H
	mov	ecx, DWORD PTR _ngrams_8859_2[eax+256]
	mov	DWORD PTR _lang$8133[ebp], ecx
; Line 925
	mov	esi, esp
	push	OFFSET _charMap_8859_2
	mov	eax, DWORD PTR _ngrams$8132[ebp]
	push	eax
	mov	ecx, DWORD PTR _textIn$[ebp]
	push	ecx
	mov	edx, DWORD PTR _this$[ebp]
	mov	eax, DWORD PTR [edx]
	mov	ecx, DWORD PTR _this$[ebp]
	mov	edx, DWORD PTR [eax+16]
	call	edx
	cmp	esi, esp
	call	__RTC_CheckEsp
	mov	DWORD PTR _confidence$8134[ebp], eax
; Line 926
	mov	eax, DWORD PTR _confidence$8134[ebp]
	cmp	eax, DWORD PTR _bestConfidenceSoFar$[ebp]
	jle	SHORT $LN1@match@2
; Line 927
	mov	eax, DWORD PTR _lang$8133[ebp]
	push	eax
	mov	ecx, DWORD PTR _name$[ebp]
	push	ecx
	mov	edx, DWORD PTR _confidence$8134[ebp]
	push	edx
	mov	eax, DWORD PTR _this$[ebp]
	push	eax
	mov	ecx, DWORD PTR _textIn$[ebp]
	push	ecx
	mov	ecx, DWORD PTR _results$[ebp]
	call	?set@CharsetMatch@icu_56@@QAEXPAVInputText@2@PBVCharsetRecognizer@2@HPBD2@Z ; icu_56::CharsetMatch::set
; Line 928
	mov	eax, DWORD PTR _confidence$8134[ebp]
	mov	DWORD PTR _bestConfidenceSoFar$[ebp], eax
$LN1@match@2:
; Line 930
	jmp	$LN3@match@2
$LN2@match@2:
; Line 931
	cmp	DWORD PTR _bestConfidenceSoFar$[ebp], 0
	setg	al
; Line 932
	pop	edi
	pop	esi
	pop	ebx
	add	esp, 280				; 00000118H
	cmp	ebp, esp
	call	__RTC_CheckEsp
	mov	esp, ebp
	pop	ebp
	ret	8
?match@CharsetRecog_8859_2@icu_56@@UBECPAVInputText@2@PAVCharsetMatch@2@@Z ENDP ; icu_56::CharsetRecog_8859_2::match
; Function compile flags: /Odtp /RTCsu /ZI
_TEXT	ENDS
;	COMDAT ?getName@CharsetRecog_8859_2@icu_56@@UBEPBDXZ
_TEXT	SEGMENT
_this$ = -8						; size = 4
?getName@CharsetRecog_8859_2@icu_56@@UBEPBDXZ PROC	; icu_56::CharsetRecog_8859_2::getName, COMDAT
; _this$ = ecx
; Line 935
	push	ebp
	mov	ebp, esp
	sub	esp, 204				; 000000ccH
	push	ebx
	push	esi
	push	edi
	push	ecx
	lea	edi, DWORD PTR [ebp-204]
	mov	ecx, 51					; 00000033H
	mov	eax, -858993460				; ccccccccH
	rep stosd
	pop	ecx
	mov	DWORD PTR _this$[ebp], ecx
; Line 936
	mov	eax, OFFSET ??_C@_0L@ECKEIAIJ@ISO?98859?92?$AA@
; Line 937
	pop	edi
	pop	esi
	pop	ebx
	mov	esp, ebp
	pop	ebp
	ret	0
?getName@CharsetRecog_8859_2@icu_56@@UBEPBDXZ ENDP	; icu_56::CharsetRecog_8859_2::getName
_TEXT	ENDS
PUBLIC	??_7CharsetRecog_8859_5@icu_56@@6B@		; icu_56::CharsetRecog_8859_5::`vftable'
PUBLIC	??1CharsetRecog_8859_5@icu_56@@UAE@XZ		; icu_56::CharsetRecog_8859_5::~CharsetRecog_8859_5
PUBLIC	??_R4CharsetRecog_8859_5@icu_56@@6B@		; icu_56::CharsetRecog_8859_5::`RTTI Complete Object Locator'
PUBLIC	??_R0?AVCharsetRecog_8859_5@icu_56@@@8		; icu_56::CharsetRecog_8859_5 `RTTI Type Descriptor'
PUBLIC	??_R3CharsetRecog_8859_5@icu_56@@8		; icu_56::CharsetRecog_8859_5::`RTTI Class Hierarchy Descriptor'
PUBLIC	??_R2CharsetRecog_8859_5@icu_56@@8		; icu_56::CharsetRecog_8859_5::`RTTI Base Class Array'
PUBLIC	??_R1A@?0A@EA@CharsetRecog_8859_5@icu_56@@8	; icu_56::CharsetRecog_8859_5::`RTTI Base Class Descriptor at (0,-1,0,64)'
PUBLIC	?getName@CharsetRecog_8859_5@icu_56@@UBEPBDXZ	; icu_56::CharsetRecog_8859_5::getName
EXTRN	??_ECharsetRecog_8859_5@icu_56@@UAEPAXI@Z:PROC	; icu_56::CharsetRecog_8859_5::`vector deleting destructor'
;	COMDAT ??_R1A@?0A@EA@CharsetRecog_8859_5@icu_56@@8
rdata$r	SEGMENT
??_R1A@?0A@EA@CharsetRecog_8859_5@icu_56@@8 DD FLAT:??_R0?AVCharsetRecog_8859_5@icu_56@@@8 ; icu_56::CharsetRecog_8859_5::`RTTI Base Class Descriptor at (0,-1,0,64)'
	DD	03H
	DD	00H
	DD	0ffffffffH
	DD	00H
	DD	040H
	DD	FLAT:??_R3CharsetRecog_8859_5@icu_56@@8
rdata$r	ENDS
;	COMDAT ??_R2CharsetRecog_8859_5@icu_56@@8
rdata$r	SEGMENT
??_R2CharsetRecog_8859_5@icu_56@@8 DD FLAT:??_R1A@?0A@EA@CharsetRecog_8859_5@icu_56@@8 ; icu_56::CharsetRecog_8859_5::`RTTI Base Class Array'
	DD	FLAT:??_R1A@?0A@EA@CharsetRecog_sbcs@icu_56@@8
	DD	FLAT:??_R1A@?0A@EA@CharsetRecognizer@icu_56@@8
	DD	FLAT:??_R13?0A@EA@UMemory@icu_56@@8
rdata$r	ENDS
;	COMDAT ??_R3CharsetRecog_8859_5@icu_56@@8
rdata$r	SEGMENT
??_R3CharsetRecog_8859_5@icu_56@@8 DD 00H		; icu_56::CharsetRecog_8859_5::`RTTI Class Hierarchy Descriptor'
	DD	00H
	DD	04H
	DD	FLAT:??_R2CharsetRecog_8859_5@icu_56@@8
rdata$r	ENDS
;	COMDAT ??_R0?AVCharsetRecog_8859_5@icu_56@@@8
_DATA	SEGMENT
??_R0?AVCharsetRecog_8859_5@icu_56@@@8 DD FLAT:??_7type_info@@6B@ ; icu_56::CharsetRecog_8859_5 `RTTI Type Descriptor'
	DD	00H
	DB	'.?AVCharsetRecog_8859_5@icu_56@@', 00H
_DATA	ENDS
;	COMDAT ??_R4CharsetRecog_8859_5@icu_56@@6B@
rdata$r	SEGMENT
??_R4CharsetRecog_8859_5@icu_56@@6B@ DD 00H		; icu_56::CharsetRecog_8859_5::`RTTI Complete Object Locator'
	DD	00H
	DD	00H
	DD	FLAT:??_R0?AVCharsetRecog_8859_5@icu_56@@@8
	DD	FLAT:??_R3CharsetRecog_8859_5@icu_56@@8
rdata$r	ENDS
;	COMDAT ??_7CharsetRecog_8859_5@icu_56@@6B@
CONST	SEGMENT
??_7CharsetRecog_8859_5@icu_56@@6B@ DD FLAT:??_R4CharsetRecog_8859_5@icu_56@@6B@ ; icu_56::CharsetRecog_8859_5::`vftable'
	DD	FLAT:?getName@CharsetRecog_8859_5@icu_56@@UBEPBDXZ
	DD	FLAT:?getLanguage@CharsetRecognizer@icu_56@@UBEPBDXZ
	DD	FLAT:__purecall
	DD	FLAT:??_ECharsetRecog_8859_5@icu_56@@UAEPAXI@Z
	DD	FLAT:?match_sbcs@CharsetRecog_sbcs@icu_56@@UBEHPAVInputText@2@QBHQBE@Z
; Function compile flags: /Odtp /RTCsu /ZI
CONST	ENDS
;	COMDAT ??1CharsetRecog_8859_5@icu_56@@UAE@XZ
_TEXT	SEGMENT
_this$ = -8						; size = 4
??1CharsetRecog_8859_5@icu_56@@UAE@XZ PROC		; icu_56::CharsetRecog_8859_5::~CharsetRecog_8859_5, COMDAT
; _this$ = ecx
; Line 941
	push	ebp
	mov	ebp, esp
	sub	esp, 204				; 000000ccH
	push	ebx
	push	esi
	push	edi
	push	ecx
	lea	edi, DWORD PTR [ebp-204]
	mov	ecx, 51					; 00000033H
	mov	eax, -858993460				; ccccccccH
	rep stosd
	pop	ecx
	mov	DWORD PTR _this$[ebp], ecx
	mov	eax, DWORD PTR _this$[ebp]
	mov	DWORD PTR [eax], OFFSET ??_7CharsetRecog_8859_5@icu_56@@6B@
; Line 943
	mov	ecx, DWORD PTR _this$[ebp]
	call	??1CharsetRecog_sbcs@icu_56@@UAE@XZ	; icu_56::CharsetRecog_sbcs::~CharsetRecog_sbcs
	pop	edi
	pop	esi
	pop	ebx
	add	esp, 204				; 000000ccH
	cmp	ebp, esp
	call	__RTC_CheckEsp
	mov	esp, ebp
	pop	ebp
	ret	0
??1CharsetRecog_8859_5@icu_56@@UAE@XZ ENDP		; icu_56::CharsetRecog_8859_5::~CharsetRecog_8859_5
; Function compile flags: /Odtp /RTCsu /ZI
_TEXT	ENDS
;	COMDAT ??_GCharsetRecog_8859_5@icu_56@@UAEPAXI@Z
_TEXT	SEGMENT
_this$ = -8						; size = 4
___flags$ = 8						; size = 4
??_GCharsetRecog_8859_5@icu_56@@UAEPAXI@Z PROC		; icu_56::CharsetRecog_8859_5::`scalar deleting destructor', COMDAT
; _this$ = ecx
	push	ebp
	mov	ebp, esp
	sub	esp, 204				; 000000ccH
	push	ebx
	push	esi
	push	edi
	push	ecx
	lea	edi, DWORD PTR [ebp-204]
	mov	ecx, 51					; 00000033H
	mov	eax, -858993460				; ccccccccH
	rep stosd
	pop	ecx
	mov	DWORD PTR _this$[ebp], ecx
	mov	ecx, DWORD PTR _this$[ebp]
	call	??1CharsetRecog_8859_5@icu_56@@UAE@XZ	; icu_56::CharsetRecog_8859_5::~CharsetRecog_8859_5
	mov	eax, DWORD PTR ___flags$[ebp]
	and	eax, 1
	je	SHORT $LN1@scalar@7
	mov	esi, esp
	mov	eax, DWORD PTR _this$[ebp]
	push	eax
	call	DWORD PTR __imp_??3UMemory@icu_56@@SAXPAX@Z
	add	esp, 4
	cmp	esi, esp
	call	__RTC_CheckEsp
$LN1@scalar@7:
	mov	eax, DWORD PTR _this$[ebp]
	pop	edi
	pop	esi
	pop	ebx
	add	esp, 204				; 000000ccH
	cmp	ebp, esp
	call	__RTC_CheckEsp
	mov	esp, ebp
	pop	ebp
	ret	4
??_GCharsetRecog_8859_5@icu_56@@UAEPAXI@Z ENDP		; icu_56::CharsetRecog_8859_5::`scalar deleting destructor'
_TEXT	ENDS
PUBLIC	??_C@_0L@NOFBGEO@ISO?98859?95?$AA@		; `string'
;	COMDAT ??_C@_0L@NOFBGEO@ISO?98859?95?$AA@
CONST	SEGMENT
??_C@_0L@NOFBGEO@ISO?98859?95?$AA@ DB 'ISO-8859-5', 00H	; `string'
; Function compile flags: /Odtp /RTCsu /ZI
CONST	ENDS
;	COMDAT ?getName@CharsetRecog_8859_5@icu_56@@UBEPBDXZ
_TEXT	SEGMENT
_this$ = -8						; size = 4
?getName@CharsetRecog_8859_5@icu_56@@UBEPBDXZ PROC	; icu_56::CharsetRecog_8859_5::getName, COMDAT
; _this$ = ecx
; Line 946
	push	ebp
	mov	ebp, esp
	sub	esp, 204				; 000000ccH
	push	ebx
	push	esi
	push	edi
	push	ecx
	lea	edi, DWORD PTR [ebp-204]
	mov	ecx, 51					; 00000033H
	mov	eax, -858993460				; ccccccccH
	rep stosd
	pop	ecx
	mov	DWORD PTR _this$[ebp], ecx
; Line 947
	mov	eax, OFFSET ??_C@_0L@NOFBGEO@ISO?98859?95?$AA@
; Line 948
	pop	edi
	pop	esi
	pop	ebx
	mov	esp, ebp
	pop	ebp
	ret	0
?getName@CharsetRecog_8859_5@icu_56@@UBEPBDXZ ENDP	; icu_56::CharsetRecog_8859_5::getName
_TEXT	ENDS
PUBLIC	??_7CharsetRecog_8859_5_ru@icu_56@@6B@		; icu_56::CharsetRecog_8859_5_ru::`vftable'
PUBLIC	??1CharsetRecog_8859_5_ru@icu_56@@UAE@XZ	; icu_56::CharsetRecog_8859_5_ru::~CharsetRecog_8859_5_ru
PUBLIC	??_R4CharsetRecog_8859_5_ru@icu_56@@6B@		; icu_56::CharsetRecog_8859_5_ru::`RTTI Complete Object Locator'
PUBLIC	??_R0?AVCharsetRecog_8859_5_ru@icu_56@@@8	; icu_56::CharsetRecog_8859_5_ru `RTTI Type Descriptor'
PUBLIC	??_R3CharsetRecog_8859_5_ru@icu_56@@8		; icu_56::CharsetRecog_8859_5_ru::`RTTI Class Hierarchy Descriptor'
PUBLIC	??_R2CharsetRecog_8859_5_ru@icu_56@@8		; icu_56::CharsetRecog_8859_5_ru::`RTTI Base Class Array'
PUBLIC	??_R1A@?0A@EA@CharsetRecog_8859_5_ru@icu_56@@8	; icu_56::CharsetRecog_8859_5_ru::`RTTI Base Class Descriptor at (0,-1,0,64)'
PUBLIC	?getLanguage@CharsetRecog_8859_5_ru@icu_56@@UBEPBDXZ ; icu_56::CharsetRecog_8859_5_ru::getLanguage
PUBLIC	?match@CharsetRecog_8859_5_ru@icu_56@@UBECPAVInputText@2@PAVCharsetMatch@2@@Z ; icu_56::CharsetRecog_8859_5_ru::match
EXTRN	??_ECharsetRecog_8859_5_ru@icu_56@@UAEPAXI@Z:PROC ; icu_56::CharsetRecog_8859_5_ru::`vector deleting destructor'
;	COMDAT ??_R1A@?0A@EA@CharsetRecog_8859_5_ru@icu_56@@8
rdata$r	SEGMENT
??_R1A@?0A@EA@CharsetRecog_8859_5_ru@icu_56@@8 DD FLAT:??_R0?AVCharsetRecog_8859_5_ru@icu_56@@@8 ; icu_56::CharsetRecog_8859_5_ru::`RTTI Base Class Descriptor at (0,-1,0,64)'
	DD	04H
	DD	00H
	DD	0ffffffffH
	DD	00H
	DD	040H
	DD	FLAT:??_R3CharsetRecog_8859_5_ru@icu_56@@8
rdata$r	ENDS
;	COMDAT ??_R2CharsetRecog_8859_5_ru@icu_56@@8
rdata$r	SEGMENT
??_R2CharsetRecog_8859_5_ru@icu_56@@8 DD FLAT:??_R1A@?0A@EA@CharsetRecog_8859_5_ru@icu_56@@8 ; icu_56::CharsetRecog_8859_5_ru::`RTTI Base Class Array'
	DD	FLAT:??_R1A@?0A@EA@CharsetRecog_8859_5@icu_56@@8
	DD	FLAT:??_R1A@?0A@EA@CharsetRecog_sbcs@icu_56@@8
	DD	FLAT:??_R1A@?0A@EA@CharsetRecognizer@icu_56@@8
	DD	FLAT:??_R13?0A@EA@UMemory@icu_56@@8
rdata$r	ENDS
;	COMDAT ??_R3CharsetRecog_8859_5_ru@icu_56@@8
rdata$r	SEGMENT
??_R3CharsetRecog_8859_5_ru@icu_56@@8 DD 00H		; icu_56::CharsetRecog_8859_5_ru::`RTTI Class Hierarchy Descriptor'
	DD	00H
	DD	05H
	DD	FLAT:??_R2CharsetRecog_8859_5_ru@icu_56@@8
rdata$r	ENDS
;	COMDAT ??_R0?AVCharsetRecog_8859_5_ru@icu_56@@@8
_DATA	SEGMENT
??_R0?AVCharsetRecog_8859_5_ru@icu_56@@@8 DD FLAT:??_7type_info@@6B@ ; icu_56::CharsetRecog_8859_5_ru `RTTI Type Descriptor'
	DD	00H
	DB	'.?AVCharsetRecog_8859_5_ru@icu_56@@', 00H
_DATA	ENDS
;	COMDAT ??_R4CharsetRecog_8859_5_ru@icu_56@@6B@
rdata$r	SEGMENT
??_R4CharsetRecog_8859_5_ru@icu_56@@6B@ DD 00H		; icu_56::CharsetRecog_8859_5_ru::`RTTI Complete Object Locator'
	DD	00H
	DD	00H
	DD	FLAT:??_R0?AVCharsetRecog_8859_5_ru@icu_56@@@8
	DD	FLAT:??_R3CharsetRecog_8859_5_ru@icu_56@@8
rdata$r	ENDS
;	COMDAT ??_7CharsetRecog_8859_5_ru@icu_56@@6B@
CONST	SEGMENT
??_7CharsetRecog_8859_5_ru@icu_56@@6B@ DD FLAT:??_R4CharsetRecog_8859_5_ru@icu_56@@6B@ ; icu_56::CharsetRecog_8859_5_ru::`vftable'
	DD	FLAT:?getName@CharsetRecog_8859_5@icu_56@@UBEPBDXZ
	DD	FLAT:?getLanguage@CharsetRecog_8859_5_ru@icu_56@@UBEPBDXZ
	DD	FLAT:?match@CharsetRecog_8859_5_ru@icu_56@@UBECPAVInputText@2@PAVCharsetMatch@2@@Z
	DD	FLAT:??_ECharsetRecog_8859_5_ru@icu_56@@UAEPAXI@Z
	DD	FLAT:?match_sbcs@CharsetRecog_sbcs@icu_56@@UBEHPAVInputText@2@QBHQBE@Z
; Function compile flags: /Odtp /RTCsu /ZI
CONST	ENDS
;	COMDAT ??1CharsetRecog_8859_5_ru@icu_56@@UAE@XZ
_TEXT	SEGMENT
_this$ = -8						; size = 4
??1CharsetRecog_8859_5_ru@icu_56@@UAE@XZ PROC		; icu_56::CharsetRecog_8859_5_ru::~CharsetRecog_8859_5_ru, COMDAT
; _this$ = ecx
; Line 951
	push	ebp
	mov	ebp, esp
	sub	esp, 204				; 000000ccH
	push	ebx
	push	esi
	push	edi
	push	ecx
	lea	edi, DWORD PTR [ebp-204]
	mov	ecx, 51					; 00000033H
	mov	eax, -858993460				; ccccccccH
	rep stosd
	pop	ecx
	mov	DWORD PTR _this$[ebp], ecx
	mov	eax, DWORD PTR _this$[ebp]
	mov	DWORD PTR [eax], OFFSET ??_7CharsetRecog_8859_5_ru@icu_56@@6B@
; Line 953
	mov	ecx, DWORD PTR _this$[ebp]
	call	??1CharsetRecog_8859_5@icu_56@@UAE@XZ	; icu_56::CharsetRecog_8859_5::~CharsetRecog_8859_5
	pop	edi
	pop	esi
	pop	ebx
	add	esp, 204				; 000000ccH
	cmp	ebp, esp
	call	__RTC_CheckEsp
	mov	esp, ebp
	pop	ebp
	ret	0
??1CharsetRecog_8859_5_ru@icu_56@@UAE@XZ ENDP		; icu_56::CharsetRecog_8859_5_ru::~CharsetRecog_8859_5_ru
; Function compile flags: /Odtp /RTCsu /ZI
_TEXT	ENDS
;	COMDAT ??_GCharsetRecog_8859_5_ru@icu_56@@UAEPAXI@Z
_TEXT	SEGMENT
_this$ = -8						; size = 4
___flags$ = 8						; size = 4
??_GCharsetRecog_8859_5_ru@icu_56@@UAEPAXI@Z PROC	; icu_56::CharsetRecog_8859_5_ru::`scalar deleting destructor', COMDAT
; _this$ = ecx
	push	ebp
	mov	ebp, esp
	sub	esp, 204				; 000000ccH
	push	ebx
	push	esi
	push	edi
	push	ecx
	lea	edi, DWORD PTR [ebp-204]
	mov	ecx, 51					; 00000033H
	mov	eax, -858993460				; ccccccccH
	rep stosd
	pop	ecx
	mov	DWORD PTR _this$[ebp], ecx
	mov	ecx, DWORD PTR _this$[ebp]
	call	??1CharsetRecog_8859_5_ru@icu_56@@UAE@XZ ; icu_56::CharsetRecog_8859_5_ru::~CharsetRecog_8859_5_ru
	mov	eax, DWORD PTR ___flags$[ebp]
	and	eax, 1
	je	SHORT $LN1@scalar@8
	mov	esi, esp
	mov	eax, DWORD PTR _this$[ebp]
	push	eax
	call	DWORD PTR __imp_??3UMemory@icu_56@@SAXPAX@Z
	add	esp, 4
	cmp	esi, esp
	call	__RTC_CheckEsp
$LN1@scalar@8:
	mov	eax, DWORD PTR _this$[ebp]
	pop	edi
	pop	esi
	pop	ebx
	add	esp, 204				; 000000ccH
	cmp	ebp, esp
	call	__RTC_CheckEsp
	mov	esp, ebp
	pop	ebp
	ret	4
??_GCharsetRecog_8859_5_ru@icu_56@@UAEPAXI@Z ENDP	; icu_56::CharsetRecog_8859_5_ru::`scalar deleting destructor'
_TEXT	ENDS
PUBLIC	??_C@_02FIDBHGA@ru?$AA@				; `string'
;	COMDAT ??_C@_02FIDBHGA@ru?$AA@
CONST	SEGMENT
??_C@_02FIDBHGA@ru?$AA@ DB 'ru', 00H			; `string'
; Function compile flags: /Odtp /RTCsu /ZI
CONST	ENDS
;	COMDAT ?getLanguage@CharsetRecog_8859_5_ru@icu_56@@UBEPBDXZ
_TEXT	SEGMENT
_this$ = -8						; size = 4
?getLanguage@CharsetRecog_8859_5_ru@icu_56@@UBEPBDXZ PROC ; icu_56::CharsetRecog_8859_5_ru::getLanguage, COMDAT
; _this$ = ecx
; Line 956
	push	ebp
	mov	ebp, esp
	sub	esp, 204				; 000000ccH
	push	ebx
	push	esi
	push	edi
	push	ecx
	lea	edi, DWORD PTR [ebp-204]
	mov	ecx, 51					; 00000033H
	mov	eax, -858993460				; ccccccccH
	rep stosd
	pop	ecx
	mov	DWORD PTR _this$[ebp], ecx
; Line 957
	mov	eax, OFFSET ??_C@_02FIDBHGA@ru?$AA@
; Line 958
	pop	edi
	pop	esi
	pop	ebx
	mov	esp, ebp
	pop	ebp
	ret	0
?getLanguage@CharsetRecog_8859_5_ru@icu_56@@UBEPBDXZ ENDP ; icu_56::CharsetRecog_8859_5_ru::getLanguage
; Function compile flags: /Odtp /RTCsu /ZI
_TEXT	ENDS
;	COMDAT ?match@CharsetRecog_8859_5_ru@icu_56@@UBECPAVInputText@2@PAVCharsetMatch@2@@Z
_TEXT	SEGMENT
_confidence$ = -20					; size = 4
_this$ = -8						; size = 4
_textIn$ = 8						; size = 4
_results$ = 12						; size = 4
?match@CharsetRecog_8859_5_ru@icu_56@@UBECPAVInputText@2@PAVCharsetMatch@2@@Z PROC ; icu_56::CharsetRecog_8859_5_ru::match, COMDAT
; _this$ = ecx
; Line 961
	push	ebp
	mov	ebp, esp
	sub	esp, 216				; 000000d8H
	push	ebx
	push	esi
	push	edi
	push	ecx
	lea	edi, DWORD PTR [ebp-216]
	mov	ecx, 54					; 00000036H
	mov	eax, -858993460				; ccccccccH
	rep stosd
	pop	ecx
	mov	DWORD PTR _this$[ebp], ecx
; Line 962
	mov	esi, esp
	push	OFFSET _charMap_8859_5
	push	OFFSET _ngrams_8859_5_ru
	mov	eax, DWORD PTR _textIn$[ebp]
	push	eax
	mov	ecx, DWORD PTR _this$[ebp]
	mov	edx, DWORD PTR [ecx]
	mov	ecx, DWORD PTR _this$[ebp]
	mov	eax, DWORD PTR [edx+16]
	call	eax
	cmp	esi, esp
	call	__RTC_CheckEsp
	mov	DWORD PTR _confidence$[ebp], eax
; Line 963
	push	0
	push	0
	mov	eax, DWORD PTR _confidence$[ebp]
	push	eax
	mov	ecx, DWORD PTR _this$[ebp]
	push	ecx
	mov	edx, DWORD PTR _textIn$[ebp]
	push	edx
	mov	ecx, DWORD PTR _results$[ebp]
	call	?set@CharsetMatch@icu_56@@QAEXPAVInputText@2@PBVCharsetRecognizer@2@HPBD2@Z ; icu_56::CharsetMatch::set
; Line 964
	cmp	DWORD PTR _confidence$[ebp], 0
	setg	al
; Line 965
	pop	edi
	pop	esi
	pop	ebx
	add	esp, 216				; 000000d8H
	cmp	ebp, esp
	call	__RTC_CheckEsp
	mov	esp, ebp
	pop	ebp
	ret	8
?match@CharsetRecog_8859_5_ru@icu_56@@UBECPAVInputText@2@PAVCharsetMatch@2@@Z ENDP ; icu_56::CharsetRecog_8859_5_ru::match
_TEXT	ENDS
PUBLIC	??_7CharsetRecog_8859_6@icu_56@@6B@		; icu_56::CharsetRecog_8859_6::`vftable'
PUBLIC	??1CharsetRecog_8859_6@icu_56@@UAE@XZ		; icu_56::CharsetRecog_8859_6::~CharsetRecog_8859_6
PUBLIC	??_R4CharsetRecog_8859_6@icu_56@@6B@		; icu_56::CharsetRecog_8859_6::`RTTI Complete Object Locator'
PUBLIC	??_R0?AVCharsetRecog_8859_6@icu_56@@@8		; icu_56::CharsetRecog_8859_6 `RTTI Type Descriptor'
PUBLIC	??_R3CharsetRecog_8859_6@icu_56@@8		; icu_56::CharsetRecog_8859_6::`RTTI Class Hierarchy Descriptor'
PUBLIC	??_R2CharsetRecog_8859_6@icu_56@@8		; icu_56::CharsetRecog_8859_6::`RTTI Base Class Array'
PUBLIC	??_R1A@?0A@EA@CharsetRecog_8859_6@icu_56@@8	; icu_56::CharsetRecog_8859_6::`RTTI Base Class Descriptor at (0,-1,0,64)'
PUBLIC	?getName@CharsetRecog_8859_6@icu_56@@UBEPBDXZ	; icu_56::CharsetRecog_8859_6::getName
EXTRN	??_ECharsetRecog_8859_6@icu_56@@UAEPAXI@Z:PROC	; icu_56::CharsetRecog_8859_6::`vector deleting destructor'
;	COMDAT ??_R1A@?0A@EA@CharsetRecog_8859_6@icu_56@@8
rdata$r	SEGMENT
??_R1A@?0A@EA@CharsetRecog_8859_6@icu_56@@8 DD FLAT:??_R0?AVCharsetRecog_8859_6@icu_56@@@8 ; icu_56::CharsetRecog_8859_6::`RTTI Base Class Descriptor at (0,-1,0,64)'
	DD	03H
	DD	00H
	DD	0ffffffffH
	DD	00H
	DD	040H
	DD	FLAT:??_R3CharsetRecog_8859_6@icu_56@@8
rdata$r	ENDS
;	COMDAT ??_R2CharsetRecog_8859_6@icu_56@@8
rdata$r	SEGMENT
??_R2CharsetRecog_8859_6@icu_56@@8 DD FLAT:??_R1A@?0A@EA@CharsetRecog_8859_6@icu_56@@8 ; icu_56::CharsetRecog_8859_6::`RTTI Base Class Array'
	DD	FLAT:??_R1A@?0A@EA@CharsetRecog_sbcs@icu_56@@8
	DD	FLAT:??_R1A@?0A@EA@CharsetRecognizer@icu_56@@8
	DD	FLAT:??_R13?0A@EA@UMemory@icu_56@@8
rdata$r	ENDS
;	COMDAT ??_R3CharsetRecog_8859_6@icu_56@@8
rdata$r	SEGMENT
??_R3CharsetRecog_8859_6@icu_56@@8 DD 00H		; icu_56::CharsetRecog_8859_6::`RTTI Class Hierarchy Descriptor'
	DD	00H
	DD	04H
	DD	FLAT:??_R2CharsetRecog_8859_6@icu_56@@8
rdata$r	ENDS
;	COMDAT ??_R0?AVCharsetRecog_8859_6@icu_56@@@8
_DATA	SEGMENT
??_R0?AVCharsetRecog_8859_6@icu_56@@@8 DD FLAT:??_7type_info@@6B@ ; icu_56::CharsetRecog_8859_6 `RTTI Type Descriptor'
	DD	00H
	DB	'.?AVCharsetRecog_8859_6@icu_56@@', 00H
_DATA	ENDS
;	COMDAT ??_R4CharsetRecog_8859_6@icu_56@@6B@
rdata$r	SEGMENT
??_R4CharsetRecog_8859_6@icu_56@@6B@ DD 00H		; icu_56::CharsetRecog_8859_6::`RTTI Complete Object Locator'
	DD	00H
	DD	00H
	DD	FLAT:??_R0?AVCharsetRecog_8859_6@icu_56@@@8
	DD	FLAT:??_R3CharsetRecog_8859_6@icu_56@@8
rdata$r	ENDS
;	COMDAT ??_7CharsetRecog_8859_6@icu_56@@6B@
CONST	SEGMENT
??_7CharsetRecog_8859_6@icu_56@@6B@ DD FLAT:??_R4CharsetRecog_8859_6@icu_56@@6B@ ; icu_56::CharsetRecog_8859_6::`vftable'
	DD	FLAT:?getName@CharsetRecog_8859_6@icu_56@@UBEPBDXZ
	DD	FLAT:?getLanguage@CharsetRecognizer@icu_56@@UBEPBDXZ
	DD	FLAT:__purecall
	DD	FLAT:??_ECharsetRecog_8859_6@icu_56@@UAEPAXI@Z
	DD	FLAT:?match_sbcs@CharsetRecog_sbcs@icu_56@@UBEHPAVInputText@2@QBHQBE@Z
; Function compile flags: /Odtp /RTCsu /ZI
CONST	ENDS
;	COMDAT ??1CharsetRecog_8859_6@icu_56@@UAE@XZ
_TEXT	SEGMENT
_this$ = -8						; size = 4
??1CharsetRecog_8859_6@icu_56@@UAE@XZ PROC		; icu_56::CharsetRecog_8859_6::~CharsetRecog_8859_6, COMDAT
; _this$ = ecx
; Line 968
	push	ebp
	mov	ebp, esp
	sub	esp, 204				; 000000ccH
	push	ebx
	push	esi
	push	edi
	push	ecx
	lea	edi, DWORD PTR [ebp-204]
	mov	ecx, 51					; 00000033H
	mov	eax, -858993460				; ccccccccH
	rep stosd
	pop	ecx
	mov	DWORD PTR _this$[ebp], ecx
	mov	eax, DWORD PTR _this$[ebp]
	mov	DWORD PTR [eax], OFFSET ??_7CharsetRecog_8859_6@icu_56@@6B@
; Line 970
	mov	ecx, DWORD PTR _this$[ebp]
	call	??1CharsetRecog_sbcs@icu_56@@UAE@XZ	; icu_56::CharsetRecog_sbcs::~CharsetRecog_sbcs
	pop	edi
	pop	esi
	pop	ebx
	add	esp, 204				; 000000ccH
	cmp	ebp, esp
	call	__RTC_CheckEsp
	mov	esp, ebp
	pop	ebp
	ret	0
??1CharsetRecog_8859_6@icu_56@@UAE@XZ ENDP		; icu_56::CharsetRecog_8859_6::~CharsetRecog_8859_6
; Function compile flags: /Odtp /RTCsu /ZI
_TEXT	ENDS
;	COMDAT ??_GCharsetRecog_8859_6@icu_56@@UAEPAXI@Z
_TEXT	SEGMENT
_this$ = -8						; size = 4
___flags$ = 8						; size = 4
??_GCharsetRecog_8859_6@icu_56@@UAEPAXI@Z PROC		; icu_56::CharsetRecog_8859_6::`scalar deleting destructor', COMDAT
; _this$ = ecx
	push	ebp
	mov	ebp, esp
	sub	esp, 204				; 000000ccH
	push	ebx
	push	esi
	push	edi
	push	ecx
	lea	edi, DWORD PTR [ebp-204]
	mov	ecx, 51					; 00000033H
	mov	eax, -858993460				; ccccccccH
	rep stosd
	pop	ecx
	mov	DWORD PTR _this$[ebp], ecx
	mov	ecx, DWORD PTR _this$[ebp]
	call	??1CharsetRecog_8859_6@icu_56@@UAE@XZ	; icu_56::CharsetRecog_8859_6::~CharsetRecog_8859_6
	mov	eax, DWORD PTR ___flags$[ebp]
	and	eax, 1
	je	SHORT $LN1@scalar@9
	mov	esi, esp
	mov	eax, DWORD PTR _this$[ebp]
	push	eax
	call	DWORD PTR __imp_??3UMemory@icu_56@@SAXPAX@Z
	add	esp, 4
	cmp	esi, esp
	call	__RTC_CheckEsp
$LN1@scalar@9:
	mov	eax, DWORD PTR _this$[ebp]
	pop	edi
	pop	esi
	pop	ebx
	add	esp, 204				; 000000ccH
	cmp	ebp, esp
	call	__RTC_CheckEsp
	mov	esp, ebp
	pop	ebp
	ret	4
??_GCharsetRecog_8859_6@icu_56@@UAEPAXI@Z ENDP		; icu_56::CharsetRecog_8859_6::`scalar deleting destructor'
_TEXT	ENDS
PUBLIC	??_C@_0L@CGMIEFIN@ISO?98859?96?$AA@		; `string'
;	COMDAT ??_C@_0L@CGMIEFIN@ISO?98859?96?$AA@
CONST	SEGMENT
??_C@_0L@CGMIEFIN@ISO?98859?96?$AA@ DB 'ISO-8859-6', 00H ; `string'
; Function compile flags: /Odtp /RTCsu /ZI
CONST	ENDS
;	COMDAT ?getName@CharsetRecog_8859_6@icu_56@@UBEPBDXZ
_TEXT	SEGMENT
_this$ = -8						; size = 4
?getName@CharsetRecog_8859_6@icu_56@@UBEPBDXZ PROC	; icu_56::CharsetRecog_8859_6::getName, COMDAT
; _this$ = ecx
; Line 973
	push	ebp
	mov	ebp, esp
	sub	esp, 204				; 000000ccH
	push	ebx
	push	esi
	push	edi
	push	ecx
	lea	edi, DWORD PTR [ebp-204]
	mov	ecx, 51					; 00000033H
	mov	eax, -858993460				; ccccccccH
	rep stosd
	pop	ecx
	mov	DWORD PTR _this$[ebp], ecx
; Line 974
	mov	eax, OFFSET ??_C@_0L@CGMIEFIN@ISO?98859?96?$AA@
; Line 975
	pop	edi
	pop	esi
	pop	ebx
	mov	esp, ebp
	pop	ebp
	ret	0
?getName@CharsetRecog_8859_6@icu_56@@UBEPBDXZ ENDP	; icu_56::CharsetRecog_8859_6::getName
_TEXT	ENDS
PUBLIC	??_7CharsetRecog_8859_6_ar@icu_56@@6B@		; icu_56::CharsetRecog_8859_6_ar::`vftable'
PUBLIC	??1CharsetRecog_8859_6_ar@icu_56@@UAE@XZ	; icu_56::CharsetRecog_8859_6_ar::~CharsetRecog_8859_6_ar
PUBLIC	??_R4CharsetRecog_8859_6_ar@icu_56@@6B@		; icu_56::CharsetRecog_8859_6_ar::`RTTI Complete Object Locator'
PUBLIC	??_R0?AVCharsetRecog_8859_6_ar@icu_56@@@8	; icu_56::CharsetRecog_8859_6_ar `RTTI Type Descriptor'
PUBLIC	??_R3CharsetRecog_8859_6_ar@icu_56@@8		; icu_56::CharsetRecog_8859_6_ar::`RTTI Class Hierarchy Descriptor'
PUBLIC	??_R2CharsetRecog_8859_6_ar@icu_56@@8		; icu_56::CharsetRecog_8859_6_ar::`RTTI Base Class Array'
PUBLIC	??_R1A@?0A@EA@CharsetRecog_8859_6_ar@icu_56@@8	; icu_56::CharsetRecog_8859_6_ar::`RTTI Base Class Descriptor at (0,-1,0,64)'
PUBLIC	?getLanguage@CharsetRecog_8859_6_ar@icu_56@@UBEPBDXZ ; icu_56::CharsetRecog_8859_6_ar::getLanguage
PUBLIC	?match@CharsetRecog_8859_6_ar@icu_56@@UBECPAVInputText@2@PAVCharsetMatch@2@@Z ; icu_56::CharsetRecog_8859_6_ar::match
EXTRN	??_ECharsetRecog_8859_6_ar@icu_56@@UAEPAXI@Z:PROC ; icu_56::CharsetRecog_8859_6_ar::`vector deleting destructor'
;	COMDAT ??_R1A@?0A@EA@CharsetRecog_8859_6_ar@icu_56@@8
rdata$r	SEGMENT
??_R1A@?0A@EA@CharsetRecog_8859_6_ar@icu_56@@8 DD FLAT:??_R0?AVCharsetRecog_8859_6_ar@icu_56@@@8 ; icu_56::CharsetRecog_8859_6_ar::`RTTI Base Class Descriptor at (0,-1,0,64)'
	DD	04H
	DD	00H
	DD	0ffffffffH
	DD	00H
	DD	040H
	DD	FLAT:??_R3CharsetRecog_8859_6_ar@icu_56@@8
rdata$r	ENDS
;	COMDAT ??_R2CharsetRecog_8859_6_ar@icu_56@@8
rdata$r	SEGMENT
??_R2CharsetRecog_8859_6_ar@icu_56@@8 DD FLAT:??_R1A@?0A@EA@CharsetRecog_8859_6_ar@icu_56@@8 ; icu_56::CharsetRecog_8859_6_ar::`RTTI Base Class Array'
	DD	FLAT:??_R1A@?0A@EA@CharsetRecog_8859_6@icu_56@@8
	DD	FLAT:??_R1A@?0A@EA@CharsetRecog_sbcs@icu_56@@8
	DD	FLAT:??_R1A@?0A@EA@CharsetRecognizer@icu_56@@8
	DD	FLAT:??_R13?0A@EA@UMemory@icu_56@@8
rdata$r	ENDS
;	COMDAT ??_R3CharsetRecog_8859_6_ar@icu_56@@8
rdata$r	SEGMENT
??_R3CharsetRecog_8859_6_ar@icu_56@@8 DD 00H		; icu_56::CharsetRecog_8859_6_ar::`RTTI Class Hierarchy Descriptor'
	DD	00H
	DD	05H
	DD	FLAT:??_R2CharsetRecog_8859_6_ar@icu_56@@8
rdata$r	ENDS
;	COMDAT ??_R0?AVCharsetRecog_8859_6_ar@icu_56@@@8
_DATA	SEGMENT
??_R0?AVCharsetRecog_8859_6_ar@icu_56@@@8 DD FLAT:??_7type_info@@6B@ ; icu_56::CharsetRecog_8859_6_ar `RTTI Type Descriptor'
	DD	00H
	DB	'.?AVCharsetRecog_8859_6_ar@icu_56@@', 00H
_DATA	ENDS
;	COMDAT ??_R4CharsetRecog_8859_6_ar@icu_56@@6B@
rdata$r	SEGMENT
??_R4CharsetRecog_8859_6_ar@icu_56@@6B@ DD 00H		; icu_56::CharsetRecog_8859_6_ar::`RTTI Complete Object Locator'
	DD	00H
	DD	00H
	DD	FLAT:??_R0?AVCharsetRecog_8859_6_ar@icu_56@@@8
	DD	FLAT:??_R3CharsetRecog_8859_6_ar@icu_56@@8
rdata$r	ENDS
;	COMDAT ??_7CharsetRecog_8859_6_ar@icu_56@@6B@
CONST	SEGMENT
??_7CharsetRecog_8859_6_ar@icu_56@@6B@ DD FLAT:??_R4CharsetRecog_8859_6_ar@icu_56@@6B@ ; icu_56::CharsetRecog_8859_6_ar::`vftable'
	DD	FLAT:?getName@CharsetRecog_8859_6@icu_56@@UBEPBDXZ
	DD	FLAT:?getLanguage@CharsetRecog_8859_6_ar@icu_56@@UBEPBDXZ
	DD	FLAT:?match@CharsetRecog_8859_6_ar@icu_56@@UBECPAVInputText@2@PAVCharsetMatch@2@@Z
	DD	FLAT:??_ECharsetRecog_8859_6_ar@icu_56@@UAEPAXI@Z
	DD	FLAT:?match_sbcs@CharsetRecog_sbcs@icu_56@@UBEHPAVInputText@2@QBHQBE@Z
; Function compile flags: /Odtp /RTCsu /ZI
CONST	ENDS
;	COMDAT ??1CharsetRecog_8859_6_ar@icu_56@@UAE@XZ
_TEXT	SEGMENT
_this$ = -8						; size = 4
??1CharsetRecog_8859_6_ar@icu_56@@UAE@XZ PROC		; icu_56::CharsetRecog_8859_6_ar::~CharsetRecog_8859_6_ar, COMDAT
; _this$ = ecx
; Line 978
	push	ebp
	mov	ebp, esp
	sub	esp, 204				; 000000ccH
	push	ebx
	push	esi
	push	edi
	push	ecx
	lea	edi, DWORD PTR [ebp-204]
	mov	ecx, 51					; 00000033H
	mov	eax, -858993460				; ccccccccH
	rep stosd
	pop	ecx
	mov	DWORD PTR _this$[ebp], ecx
	mov	eax, DWORD PTR _this$[ebp]
	mov	DWORD PTR [eax], OFFSET ??_7CharsetRecog_8859_6_ar@icu_56@@6B@
; Line 980
	mov	ecx, DWORD PTR _this$[ebp]
	call	??1CharsetRecog_8859_6@icu_56@@UAE@XZ	; icu_56::CharsetRecog_8859_6::~CharsetRecog_8859_6
	pop	edi
	pop	esi
	pop	ebx
	add	esp, 204				; 000000ccH
	cmp	ebp, esp
	call	__RTC_CheckEsp
	mov	esp, ebp
	pop	ebp
	ret	0
??1CharsetRecog_8859_6_ar@icu_56@@UAE@XZ ENDP		; icu_56::CharsetRecog_8859_6_ar::~CharsetRecog_8859_6_ar
; Function compile flags: /Odtp /RTCsu /ZI
_TEXT	ENDS
;	COMDAT ??_GCharsetRecog_8859_6_ar@icu_56@@UAEPAXI@Z
_TEXT	SEGMENT
_this$ = -8						; size = 4
___flags$ = 8						; size = 4
??_GCharsetRecog_8859_6_ar@icu_56@@UAEPAXI@Z PROC	; icu_56::CharsetRecog_8859_6_ar::`scalar deleting destructor', COMDAT
; _this$ = ecx
	push	ebp
	mov	ebp, esp
	sub	esp, 204				; 000000ccH
	push	ebx
	push	esi
	push	edi
	push	ecx
	lea	edi, DWORD PTR [ebp-204]
	mov	ecx, 51					; 00000033H
	mov	eax, -858993460				; ccccccccH
	rep stosd
	pop	ecx
	mov	DWORD PTR _this$[ebp], ecx
	mov	ecx, DWORD PTR _this$[ebp]
	call	??1CharsetRecog_8859_6_ar@icu_56@@UAE@XZ ; icu_56::CharsetRecog_8859_6_ar::~CharsetRecog_8859_6_ar
	mov	eax, DWORD PTR ___flags$[ebp]
	and	eax, 1
	je	SHORT $LN1@scalar@10
	mov	esi, esp
	mov	eax, DWORD PTR _this$[ebp]
	push	eax
	call	DWORD PTR __imp_??3UMemory@icu_56@@SAXPAX@Z
	add	esp, 4
	cmp	esi, esp
	call	__RTC_CheckEsp
$LN1@scalar@10:
	mov	eax, DWORD PTR _this$[ebp]
	pop	edi
	pop	esi
	pop	ebx
	add	esp, 204				; 000000ccH
	cmp	ebp, esp
	call	__RTC_CheckEsp
	mov	esp, ebp
	pop	ebp
	ret	4
??_GCharsetRecog_8859_6_ar@icu_56@@UAEPAXI@Z ENDP	; icu_56::CharsetRecog_8859_6_ar::`scalar deleting destructor'
_TEXT	ENDS
PUBLIC	??_C@_02FEKCJMIO@ar?$AA@			; `string'
;	COMDAT ??_C@_02FEKCJMIO@ar?$AA@
CONST	SEGMENT
??_C@_02FEKCJMIO@ar?$AA@ DB 'ar', 00H			; `string'
; Function compile flags: /Odtp /RTCsu /ZI
CONST	ENDS
;	COMDAT ?getLanguage@CharsetRecog_8859_6_ar@icu_56@@UBEPBDXZ
_TEXT	SEGMENT
_this$ = -8						; size = 4
?getLanguage@CharsetRecog_8859_6_ar@icu_56@@UBEPBDXZ PROC ; icu_56::CharsetRecog_8859_6_ar::getLanguage, COMDAT
; _this$ = ecx
; Line 983
	push	ebp
	mov	ebp, esp
	sub	esp, 204				; 000000ccH
	push	ebx
	push	esi
	push	edi
	push	ecx
	lea	edi, DWORD PTR [ebp-204]
	mov	ecx, 51					; 00000033H
	mov	eax, -858993460				; ccccccccH
	rep stosd
	pop	ecx
	mov	DWORD PTR _this$[ebp], ecx
; Line 984
	mov	eax, OFFSET ??_C@_02FEKCJMIO@ar?$AA@
; Line 985
	pop	edi
	pop	esi
	pop	ebx
	mov	esp, ebp
	pop	ebp
	ret	0
?getLanguage@CharsetRecog_8859_6_ar@icu_56@@UBEPBDXZ ENDP ; icu_56::CharsetRecog_8859_6_ar::getLanguage
; Function compile flags: /Odtp /RTCsu /ZI
_TEXT	ENDS
;	COMDAT ?match@CharsetRecog_8859_6_ar@icu_56@@UBECPAVInputText@2@PAVCharsetMatch@2@@Z
_TEXT	SEGMENT
_confidence$ = -20					; size = 4
_this$ = -8						; size = 4
_textIn$ = 8						; size = 4
_results$ = 12						; size = 4
?match@CharsetRecog_8859_6_ar@icu_56@@UBECPAVInputText@2@PAVCharsetMatch@2@@Z PROC ; icu_56::CharsetRecog_8859_6_ar::match, COMDAT
; _this$ = ecx
; Line 988
	push	ebp
	mov	ebp, esp
	sub	esp, 216				; 000000d8H
	push	ebx
	push	esi
	push	edi
	push	ecx
	lea	edi, DWORD PTR [ebp-216]
	mov	ecx, 54					; 00000036H
	mov	eax, -858993460				; ccccccccH
	rep stosd
	pop	ecx
	mov	DWORD PTR _this$[ebp], ecx
; Line 989
	mov	esi, esp
	push	OFFSET _charMap_8859_6
	push	OFFSET _ngrams_8859_6_ar
	mov	eax, DWORD PTR _textIn$[ebp]
	push	eax
	mov	ecx, DWORD PTR _this$[ebp]
	mov	edx, DWORD PTR [ecx]
	mov	ecx, DWORD PTR _this$[ebp]
	mov	eax, DWORD PTR [edx+16]
	call	eax
	cmp	esi, esp
	call	__RTC_CheckEsp
	mov	DWORD PTR _confidence$[ebp], eax
; Line 990
	push	0
	push	0
	mov	eax, DWORD PTR _confidence$[ebp]
	push	eax
	mov	ecx, DWORD PTR _this$[ebp]
	push	ecx
	mov	edx, DWORD PTR _textIn$[ebp]
	push	edx
	mov	ecx, DWORD PTR _results$[ebp]
	call	?set@CharsetMatch@icu_56@@QAEXPAVInputText@2@PBVCharsetRecognizer@2@HPBD2@Z ; icu_56::CharsetMatch::set
; Line 991
	cmp	DWORD PTR _confidence$[ebp], 0
	setg	al
; Line 992
	pop	edi
	pop	esi
	pop	ebx
	add	esp, 216				; 000000d8H
	cmp	ebp, esp
	call	__RTC_CheckEsp
	mov	esp, ebp
	pop	ebp
	ret	8
?match@CharsetRecog_8859_6_ar@icu_56@@UBECPAVInputText@2@PAVCharsetMatch@2@@Z ENDP ; icu_56::CharsetRecog_8859_6_ar::match
_TEXT	ENDS
PUBLIC	??_7CharsetRecog_8859_7@icu_56@@6B@		; icu_56::CharsetRecog_8859_7::`vftable'
PUBLIC	??1CharsetRecog_8859_7@icu_56@@UAE@XZ		; icu_56::CharsetRecog_8859_7::~CharsetRecog_8859_7
PUBLIC	??_R4CharsetRecog_8859_7@icu_56@@6B@		; icu_56::CharsetRecog_8859_7::`RTTI Complete Object Locator'
PUBLIC	??_R0?AVCharsetRecog_8859_7@icu_56@@@8		; icu_56::CharsetRecog_8859_7 `RTTI Type Descriptor'
PUBLIC	??_R3CharsetRecog_8859_7@icu_56@@8		; icu_56::CharsetRecog_8859_7::`RTTI Class Hierarchy Descriptor'
PUBLIC	??_R2CharsetRecog_8859_7@icu_56@@8		; icu_56::CharsetRecog_8859_7::`RTTI Base Class Array'
PUBLIC	??_R1A@?0A@EA@CharsetRecog_8859_7@icu_56@@8	; icu_56::CharsetRecog_8859_7::`RTTI Base Class Descriptor at (0,-1,0,64)'
PUBLIC	?getName@CharsetRecog_8859_7@icu_56@@UBEPBDXZ	; icu_56::CharsetRecog_8859_7::getName
EXTRN	??_ECharsetRecog_8859_7@icu_56@@UAEPAXI@Z:PROC	; icu_56::CharsetRecog_8859_7::`vector deleting destructor'
;	COMDAT ??_R1A@?0A@EA@CharsetRecog_8859_7@icu_56@@8
rdata$r	SEGMENT
??_R1A@?0A@EA@CharsetRecog_8859_7@icu_56@@8 DD FLAT:??_R0?AVCharsetRecog_8859_7@icu_56@@@8 ; icu_56::CharsetRecog_8859_7::`RTTI Base Class Descriptor at (0,-1,0,64)'
	DD	03H
	DD	00H
	DD	0ffffffffH
	DD	00H
	DD	040H
	DD	FLAT:??_R3CharsetRecog_8859_7@icu_56@@8
rdata$r	ENDS
;	COMDAT ??_R2CharsetRecog_8859_7@icu_56@@8
rdata$r	SEGMENT
??_R2CharsetRecog_8859_7@icu_56@@8 DD FLAT:??_R1A@?0A@EA@CharsetRecog_8859_7@icu_56@@8 ; icu_56::CharsetRecog_8859_7::`RTTI Base Class Array'
	DD	FLAT:??_R1A@?0A@EA@CharsetRecog_sbcs@icu_56@@8
	DD	FLAT:??_R1A@?0A@EA@CharsetRecognizer@icu_56@@8
	DD	FLAT:??_R13?0A@EA@UMemory@icu_56@@8
rdata$r	ENDS
;	COMDAT ??_R3CharsetRecog_8859_7@icu_56@@8
rdata$r	SEGMENT
??_R3CharsetRecog_8859_7@icu_56@@8 DD 00H		; icu_56::CharsetRecog_8859_7::`RTTI Class Hierarchy Descriptor'
	DD	00H
	DD	04H
	DD	FLAT:??_R2CharsetRecog_8859_7@icu_56@@8
rdata$r	ENDS
;	COMDAT ??_R0?AVCharsetRecog_8859_7@icu_56@@@8
_DATA	SEGMENT
??_R0?AVCharsetRecog_8859_7@icu_56@@@8 DD FLAT:??_7type_info@@6B@ ; icu_56::CharsetRecog_8859_7 `RTTI Type Descriptor'
	DD	00H
	DB	'.?AVCharsetRecog_8859_7@icu_56@@', 00H
_DATA	ENDS
;	COMDAT ??_R4CharsetRecog_8859_7@icu_56@@6B@
rdata$r	SEGMENT
??_R4CharsetRecog_8859_7@icu_56@@6B@ DD 00H		; icu_56::CharsetRecog_8859_7::`RTTI Complete Object Locator'
	DD	00H
	DD	00H
	DD	FLAT:??_R0?AVCharsetRecog_8859_7@icu_56@@@8
	DD	FLAT:??_R3CharsetRecog_8859_7@icu_56@@8
rdata$r	ENDS
;	COMDAT ??_7CharsetRecog_8859_7@icu_56@@6B@
CONST	SEGMENT
??_7CharsetRecog_8859_7@icu_56@@6B@ DD FLAT:??_R4CharsetRecog_8859_7@icu_56@@6B@ ; icu_56::CharsetRecog_8859_7::`vftable'
	DD	FLAT:?getName@CharsetRecog_8859_7@icu_56@@UBEPBDXZ
	DD	FLAT:?getLanguage@CharsetRecognizer@icu_56@@UBEPBDXZ
	DD	FLAT:__purecall
	DD	FLAT:??_ECharsetRecog_8859_7@icu_56@@UAEPAXI@Z
	DD	FLAT:?match_sbcs@CharsetRecog_sbcs@icu_56@@UBEHPAVInputText@2@QBHQBE@Z
; Function compile flags: /Odtp /RTCsu /ZI
CONST	ENDS
;	COMDAT ??1CharsetRecog_8859_7@icu_56@@UAE@XZ
_TEXT	SEGMENT
_this$ = -8						; size = 4
??1CharsetRecog_8859_7@icu_56@@UAE@XZ PROC		; icu_56::CharsetRecog_8859_7::~CharsetRecog_8859_7, COMDAT
; _this$ = ecx
; Line 995
	push	ebp
	mov	ebp, esp
	sub	esp, 204				; 000000ccH
	push	ebx
	push	esi
	push	edi
	push	ecx
	lea	edi, DWORD PTR [ebp-204]
	mov	ecx, 51					; 00000033H
	mov	eax, -858993460				; ccccccccH
	rep stosd
	pop	ecx
	mov	DWORD PTR _this$[ebp], ecx
	mov	eax, DWORD PTR _this$[ebp]
	mov	DWORD PTR [eax], OFFSET ??_7CharsetRecog_8859_7@icu_56@@6B@
; Line 997
	mov	ecx, DWORD PTR _this$[ebp]
	call	??1CharsetRecog_sbcs@icu_56@@UAE@XZ	; icu_56::CharsetRecog_sbcs::~CharsetRecog_sbcs
	pop	edi
	pop	esi
	pop	ebx
	add	esp, 204				; 000000ccH
	cmp	ebp, esp
	call	__RTC_CheckEsp
	mov	esp, ebp
	pop	ebp
	ret	0
??1CharsetRecog_8859_7@icu_56@@UAE@XZ ENDP		; icu_56::CharsetRecog_8859_7::~CharsetRecog_8859_7
; Function compile flags: /Odtp /RTCsu /ZI
_TEXT	ENDS
;	COMDAT ??_GCharsetRecog_8859_7@icu_56@@UAEPAXI@Z
_TEXT	SEGMENT
_this$ = -8						; size = 4
___flags$ = 8						; size = 4
??_GCharsetRecog_8859_7@icu_56@@UAEPAXI@Z PROC		; icu_56::CharsetRecog_8859_7::`scalar deleting destructor', COMDAT
; _this$ = ecx
	push	ebp
	mov	ebp, esp
	sub	esp, 204				; 000000ccH
	push	ebx
	push	esi
	push	edi
	push	ecx
	lea	edi, DWORD PTR [ebp-204]
	mov	ecx, 51					; 00000033H
	mov	eax, -858993460				; ccccccccH
	rep stosd
	pop	ecx
	mov	DWORD PTR _this$[ebp], ecx
	mov	ecx, DWORD PTR _this$[ebp]
	call	??1CharsetRecog_8859_7@icu_56@@UAE@XZ	; icu_56::CharsetRecog_8859_7::~CharsetRecog_8859_7
	mov	eax, DWORD PTR ___flags$[ebp]
	and	eax, 1
	je	SHORT $LN1@scalar@11
	mov	esi, esp
	mov	eax, DWORD PTR _this$[ebp]
	push	eax
	call	DWORD PTR __imp_??3UMemory@icu_56@@SAXPAX@Z
	add	esp, 4
	cmp	esi, esp
	call	__RTC_CheckEsp
$LN1@scalar@11:
	mov	eax, DWORD PTR _this$[ebp]
	pop	edi
	pop	esi
	pop	ebx
	add	esp, 204				; 000000ccH
	cmp	ebp, esp
	call	__RTC_CheckEsp
	mov	esp, ebp
	pop	ebp
	ret	4
??_GCharsetRecog_8859_7@icu_56@@UAEPAXI@Z ENDP		; icu_56::CharsetRecog_8859_7::`scalar deleting destructor'
_TEXT	ENDS
PUBLIC	??_C@_0L@DPNDHEMM@ISO?98859?97?$AA@		; `string'
;	COMDAT ??_C@_0L@DPNDHEMM@ISO?98859?97?$AA@
CONST	SEGMENT
??_C@_0L@DPNDHEMM@ISO?98859?97?$AA@ DB 'ISO-8859-7', 00H ; `string'
; Function compile flags: /Odtp /RTCsu /ZI
CONST	ENDS
;	COMDAT ?getName@CharsetRecog_8859_7@icu_56@@UBEPBDXZ
_TEXT	SEGMENT
_this$ = -8						; size = 4
?getName@CharsetRecog_8859_7@icu_56@@UBEPBDXZ PROC	; icu_56::CharsetRecog_8859_7::getName, COMDAT
; _this$ = ecx
; Line 1000
	push	ebp
	mov	ebp, esp
	sub	esp, 204				; 000000ccH
	push	ebx
	push	esi
	push	edi
	push	ecx
	lea	edi, DWORD PTR [ebp-204]
	mov	ecx, 51					; 00000033H
	mov	eax, -858993460				; ccccccccH
	rep stosd
	pop	ecx
	mov	DWORD PTR _this$[ebp], ecx
; Line 1001
	mov	eax, OFFSET ??_C@_0L@DPNDHEMM@ISO?98859?97?$AA@
; Line 1002
	pop	edi
	pop	esi
	pop	ebx
	mov	esp, ebp
	pop	ebp
	ret	0
?getName@CharsetRecog_8859_7@icu_56@@UBEPBDXZ ENDP	; icu_56::CharsetRecog_8859_7::getName
_TEXT	ENDS
PUBLIC	??_7CharsetRecog_8859_7_el@icu_56@@6B@		; icu_56::CharsetRecog_8859_7_el::`vftable'
PUBLIC	??1CharsetRecog_8859_7_el@icu_56@@UAE@XZ	; icu_56::CharsetRecog_8859_7_el::~CharsetRecog_8859_7_el
PUBLIC	??_R4CharsetRecog_8859_7_el@icu_56@@6B@		; icu_56::CharsetRecog_8859_7_el::`RTTI Complete Object Locator'
PUBLIC	??_R0?AVCharsetRecog_8859_7_el@icu_56@@@8	; icu_56::CharsetRecog_8859_7_el `RTTI Type Descriptor'
PUBLIC	??_R3CharsetRecog_8859_7_el@icu_56@@8		; icu_56::CharsetRecog_8859_7_el::`RTTI Class Hierarchy Descriptor'
PUBLIC	??_R2CharsetRecog_8859_7_el@icu_56@@8		; icu_56::CharsetRecog_8859_7_el::`RTTI Base Class Array'
PUBLIC	??_R1A@?0A@EA@CharsetRecog_8859_7_el@icu_56@@8	; icu_56::CharsetRecog_8859_7_el::`RTTI Base Class Descriptor at (0,-1,0,64)'
PUBLIC	?getLanguage@CharsetRecog_8859_7_el@icu_56@@UBEPBDXZ ; icu_56::CharsetRecog_8859_7_el::getLanguage
PUBLIC	?match@CharsetRecog_8859_7_el@icu_56@@UBECPAVInputText@2@PAVCharsetMatch@2@@Z ; icu_56::CharsetRecog_8859_7_el::match
EXTRN	??_ECharsetRecog_8859_7_el@icu_56@@UAEPAXI@Z:PROC ; icu_56::CharsetRecog_8859_7_el::`vector deleting destructor'
;	COMDAT ??_R1A@?0A@EA@CharsetRecog_8859_7_el@icu_56@@8
rdata$r	SEGMENT
??_R1A@?0A@EA@CharsetRecog_8859_7_el@icu_56@@8 DD FLAT:??_R0?AVCharsetRecog_8859_7_el@icu_56@@@8 ; icu_56::CharsetRecog_8859_7_el::`RTTI Base Class Descriptor at (0,-1,0,64)'
	DD	04H
	DD	00H
	DD	0ffffffffH
	DD	00H
	DD	040H
	DD	FLAT:??_R3CharsetRecog_8859_7_el@icu_56@@8
rdata$r	ENDS
;	COMDAT ??_R2CharsetRecog_8859_7_el@icu_56@@8
rdata$r	SEGMENT
??_R2CharsetRecog_8859_7_el@icu_56@@8 DD FLAT:??_R1A@?0A@EA@CharsetRecog_8859_7_el@icu_56@@8 ; icu_56::CharsetRecog_8859_7_el::`RTTI Base Class Array'
	DD	FLAT:??_R1A@?0A@EA@CharsetRecog_8859_7@icu_56@@8
	DD	FLAT:??_R1A@?0A@EA@CharsetRecog_sbcs@icu_56@@8
	DD	FLAT:??_R1A@?0A@EA@CharsetRecognizer@icu_56@@8
	DD	FLAT:??_R13?0A@EA@UMemory@icu_56@@8
rdata$r	ENDS
;	COMDAT ??_R3CharsetRecog_8859_7_el@icu_56@@8
rdata$r	SEGMENT
??_R3CharsetRecog_8859_7_el@icu_56@@8 DD 00H		; icu_56::CharsetRecog_8859_7_el::`RTTI Class Hierarchy Descriptor'
	DD	00H
	DD	05H
	DD	FLAT:??_R2CharsetRecog_8859_7_el@icu_56@@8
rdata$r	ENDS
;	COMDAT ??_R0?AVCharsetRecog_8859_7_el@icu_56@@@8
_DATA	SEGMENT
??_R0?AVCharsetRecog_8859_7_el@icu_56@@@8 DD FLAT:??_7type_info@@6B@ ; icu_56::CharsetRecog_8859_7_el `RTTI Type Descriptor'
	DD	00H
	DB	'.?AVCharsetRecog_8859_7_el@icu_56@@', 00H
_DATA	ENDS
;	COMDAT ??_R4CharsetRecog_8859_7_el@icu_56@@6B@
rdata$r	SEGMENT
??_R4CharsetRecog_8859_7_el@icu_56@@6B@ DD 00H		; icu_56::CharsetRecog_8859_7_el::`RTTI Complete Object Locator'
	DD	00H
	DD	00H
	DD	FLAT:??_R0?AVCharsetRecog_8859_7_el@icu_56@@@8
	DD	FLAT:??_R3CharsetRecog_8859_7_el@icu_56@@8
rdata$r	ENDS
;	COMDAT ??_7CharsetRecog_8859_7_el@icu_56@@6B@
CONST	SEGMENT
??_7CharsetRecog_8859_7_el@icu_56@@6B@ DD FLAT:??_R4CharsetRecog_8859_7_el@icu_56@@6B@ ; icu_56::CharsetRecog_8859_7_el::`vftable'
	DD	FLAT:?getName@CharsetRecog_8859_7@icu_56@@UBEPBDXZ
	DD	FLAT:?getLanguage@CharsetRecog_8859_7_el@icu_56@@UBEPBDXZ
	DD	FLAT:?match@CharsetRecog_8859_7_el@icu_56@@UBECPAVInputText@2@PAVCharsetMatch@2@@Z
	DD	FLAT:??_ECharsetRecog_8859_7_el@icu_56@@UAEPAXI@Z
	DD	FLAT:?match_sbcs@CharsetRecog_sbcs@icu_56@@UBEHPAVInputText@2@QBHQBE@Z
; Function compile flags: /Odtp /RTCsu /ZI
CONST	ENDS
;	COMDAT ??1CharsetRecog_8859_7_el@icu_56@@UAE@XZ
_TEXT	SEGMENT
_this$ = -8						; size = 4
??1CharsetRecog_8859_7_el@icu_56@@UAE@XZ PROC		; icu_56::CharsetRecog_8859_7_el::~CharsetRecog_8859_7_el, COMDAT
; _this$ = ecx
; Line 1005
	push	ebp
	mov	ebp, esp
	sub	esp, 204				; 000000ccH
	push	ebx
	push	esi
	push	edi
	push	ecx
	lea	edi, DWORD PTR [ebp-204]
	mov	ecx, 51					; 00000033H
	mov	eax, -858993460				; ccccccccH
	rep stosd
	pop	ecx
	mov	DWORD PTR _this$[ebp], ecx
	mov	eax, DWORD PTR _this$[ebp]
	mov	DWORD PTR [eax], OFFSET ??_7CharsetRecog_8859_7_el@icu_56@@6B@
; Line 1007
	mov	ecx, DWORD PTR _this$[ebp]
	call	??1CharsetRecog_8859_7@icu_56@@UAE@XZ	; icu_56::CharsetRecog_8859_7::~CharsetRecog_8859_7
	pop	edi
	pop	esi
	pop	ebx
	add	esp, 204				; 000000ccH
	cmp	ebp, esp
	call	__RTC_CheckEsp
	mov	esp, ebp
	pop	ebp
	ret	0
??1CharsetRecog_8859_7_el@icu_56@@UAE@XZ ENDP		; icu_56::CharsetRecog_8859_7_el::~CharsetRecog_8859_7_el
; Function compile flags: /Odtp /RTCsu /ZI
_TEXT	ENDS
;	COMDAT ??_GCharsetRecog_8859_7_el@icu_56@@UAEPAXI@Z
_TEXT	SEGMENT
_this$ = -8						; size = 4
___flags$ = 8						; size = 4
??_GCharsetRecog_8859_7_el@icu_56@@UAEPAXI@Z PROC	; icu_56::CharsetRecog_8859_7_el::`scalar deleting destructor', COMDAT
; _this$ = ecx
	push	ebp
	mov	ebp, esp
	sub	esp, 204				; 000000ccH
	push	ebx
	push	esi
	push	edi
	push	ecx
	lea	edi, DWORD PTR [ebp-204]
	mov	ecx, 51					; 00000033H
	mov	eax, -858993460				; ccccccccH
	rep stosd
	pop	ecx
	mov	DWORD PTR _this$[ebp], ecx
	mov	ecx, DWORD PTR _this$[ebp]
	call	??1CharsetRecog_8859_7_el@icu_56@@UAE@XZ ; icu_56::CharsetRecog_8859_7_el::~CharsetRecog_8859_7_el
	mov	eax, DWORD PTR ___flags$[ebp]
	and	eax, 1
	je	SHORT $LN1@scalar@12
	mov	esi, esp
	mov	eax, DWORD PTR _this$[ebp]
	push	eax
	call	DWORD PTR __imp_??3UMemory@icu_56@@SAXPAX@Z
	add	esp, 4
	cmp	esi, esp
	call	__RTC_CheckEsp
$LN1@scalar@12:
	mov	eax, DWORD PTR _this$[ebp]
	pop	edi
	pop	esi
	pop	ebx
	add	esp, 204				; 000000ccH
	cmp	ebp, esp
	call	__RTC_CheckEsp
	mov	esp, ebp
	pop	ebp
	ret	4
??_GCharsetRecog_8859_7_el@icu_56@@UAEPAXI@Z ENDP	; icu_56::CharsetRecog_8859_7_el::`scalar deleting destructor'
_TEXT	ENDS
PUBLIC	??_C@_02IHOKALIN@el?$AA@			; `string'
;	COMDAT ??_C@_02IHOKALIN@el?$AA@
CONST	SEGMENT
??_C@_02IHOKALIN@el?$AA@ DB 'el', 00H			; `string'
; Function compile flags: /Odtp /RTCsu /ZI
CONST	ENDS
;	COMDAT ?getLanguage@CharsetRecog_8859_7_el@icu_56@@UBEPBDXZ
_TEXT	SEGMENT
_this$ = -8						; size = 4
?getLanguage@CharsetRecog_8859_7_el@icu_56@@UBEPBDXZ PROC ; icu_56::CharsetRecog_8859_7_el::getLanguage, COMDAT
; _this$ = ecx
; Line 1010
	push	ebp
	mov	ebp, esp
	sub	esp, 204				; 000000ccH
	push	ebx
	push	esi
	push	edi
	push	ecx
	lea	edi, DWORD PTR [ebp-204]
	mov	ecx, 51					; 00000033H
	mov	eax, -858993460				; ccccccccH
	rep stosd
	pop	ecx
	mov	DWORD PTR _this$[ebp], ecx
; Line 1011
	mov	eax, OFFSET ??_C@_02IHOKALIN@el?$AA@
; Line 1012
	pop	edi
	pop	esi
	pop	ebx
	mov	esp, ebp
	pop	ebp
	ret	0
?getLanguage@CharsetRecog_8859_7_el@icu_56@@UBEPBDXZ ENDP ; icu_56::CharsetRecog_8859_7_el::getLanguage
_TEXT	ENDS
PUBLIC	??_C@_0N@LAMGFPJ@windows?91253?$AA@		; `string'
;	COMDAT ??_C@_0N@LAMGFPJ@windows?91253?$AA@
CONST	SEGMENT
??_C@_0N@LAMGFPJ@windows?91253?$AA@ DB 'windows-1253', 00H ; `string'
; Function compile flags: /Odtp /RTCsu /ZI
CONST	ENDS
;	COMDAT ?match@CharsetRecog_8859_7_el@icu_56@@UBECPAVInputText@2@PAVCharsetMatch@2@@Z
_TEXT	SEGMENT
tv67 = -232						; size = 4
_confidence$ = -32					; size = 4
_name$ = -20						; size = 4
_this$ = -8						; size = 4
_textIn$ = 8						; size = 4
_results$ = 12						; size = 4
?match@CharsetRecog_8859_7_el@icu_56@@UBECPAVInputText@2@PAVCharsetMatch@2@@Z PROC ; icu_56::CharsetRecog_8859_7_el::match, COMDAT
; _this$ = ecx
; Line 1015
	push	ebp
	mov	ebp, esp
	sub	esp, 232				; 000000e8H
	push	ebx
	push	esi
	push	edi
	push	ecx
	lea	edi, DWORD PTR [ebp-232]
	mov	ecx, 58					; 0000003aH
	mov	eax, -858993460				; ccccccccH
	rep stosd
	pop	ecx
	mov	DWORD PTR _this$[ebp], ecx
; Line 1016
	mov	eax, DWORD PTR _textIn$[ebp]
	movsx	ecx, BYTE PTR [eax+12]
	test	ecx, ecx
	je	SHORT $LN3@match@3
	mov	DWORD PTR tv67[ebp], OFFSET ??_C@_0N@LAMGFPJ@windows?91253?$AA@
	jmp	SHORT $LN4@match@3
$LN3@match@3:
	mov	DWORD PTR tv67[ebp], OFFSET ??_C@_0L@DPNDHEMM@ISO?98859?97?$AA@
$LN4@match@3:
	mov	edx, DWORD PTR tv67[ebp]
	mov	DWORD PTR _name$[ebp], edx
; Line 1017
	mov	esi, esp
	push	OFFSET _charMap_8859_7
	push	OFFSET _ngrams_8859_7_el
	mov	eax, DWORD PTR _textIn$[ebp]
	push	eax
	mov	ecx, DWORD PTR _this$[ebp]
	mov	edx, DWORD PTR [ecx]
	mov	ecx, DWORD PTR _this$[ebp]
	mov	eax, DWORD PTR [edx+16]
	call	eax
	cmp	esi, esp
	call	__RTC_CheckEsp
	mov	DWORD PTR _confidence$[ebp], eax
; Line 1018
	push	OFFSET ??_C@_02IHOKALIN@el?$AA@
	mov	eax, DWORD PTR _name$[ebp]
	push	eax
	mov	ecx, DWORD PTR _confidence$[ebp]
	push	ecx
	mov	edx, DWORD PTR _this$[ebp]
	push	edx
	mov	eax, DWORD PTR _textIn$[ebp]
	push	eax
	mov	ecx, DWORD PTR _results$[ebp]
	call	?set@CharsetMatch@icu_56@@QAEXPAVInputText@2@PBVCharsetRecognizer@2@HPBD2@Z ; icu_56::CharsetMatch::set
; Line 1019
	cmp	DWORD PTR _confidence$[ebp], 0
	setg	al
; Line 1020
	pop	edi
	pop	esi
	pop	ebx
	add	esp, 232				; 000000e8H
	cmp	ebp, esp
	call	__RTC_CheckEsp
	mov	esp, ebp
	pop	ebp
	ret	8
?match@CharsetRecog_8859_7_el@icu_56@@UBECPAVInputText@2@PAVCharsetMatch@2@@Z ENDP ; icu_56::CharsetRecog_8859_7_el::match
_TEXT	ENDS
PUBLIC	??_7CharsetRecog_8859_8@icu_56@@6B@		; icu_56::CharsetRecog_8859_8::`vftable'
PUBLIC	??1CharsetRecog_8859_8@icu_56@@UAE@XZ		; icu_56::CharsetRecog_8859_8::~CharsetRecog_8859_8
PUBLIC	??_R4CharsetRecog_8859_8@icu_56@@6B@		; icu_56::CharsetRecog_8859_8::`RTTI Complete Object Locator'
PUBLIC	??_R0?AVCharsetRecog_8859_8@icu_56@@@8		; icu_56::CharsetRecog_8859_8 `RTTI Type Descriptor'
PUBLIC	??_R3CharsetRecog_8859_8@icu_56@@8		; icu_56::CharsetRecog_8859_8::`RTTI Class Hierarchy Descriptor'
PUBLIC	??_R2CharsetRecog_8859_8@icu_56@@8		; icu_56::CharsetRecog_8859_8::`RTTI Base Class Array'
PUBLIC	??_R1A@?0A@EA@CharsetRecog_8859_8@icu_56@@8	; icu_56::CharsetRecog_8859_8::`RTTI Base Class Descriptor at (0,-1,0,64)'
PUBLIC	?getName@CharsetRecog_8859_8@icu_56@@UBEPBDXZ	; icu_56::CharsetRecog_8859_8::getName
EXTRN	??_ECharsetRecog_8859_8@icu_56@@UAEPAXI@Z:PROC	; icu_56::CharsetRecog_8859_8::`vector deleting destructor'
;	COMDAT ??_R1A@?0A@EA@CharsetRecog_8859_8@icu_56@@8
rdata$r	SEGMENT
??_R1A@?0A@EA@CharsetRecog_8859_8@icu_56@@8 DD FLAT:??_R0?AVCharsetRecog_8859_8@icu_56@@@8 ; icu_56::CharsetRecog_8859_8::`RTTI Base Class Descriptor at (0,-1,0,64)'
	DD	03H
	DD	00H
	DD	0ffffffffH
	DD	00H
	DD	040H
	DD	FLAT:??_R3CharsetRecog_8859_8@icu_56@@8
rdata$r	ENDS
;	COMDAT ??_R2CharsetRecog_8859_8@icu_56@@8
rdata$r	SEGMENT
??_R2CharsetRecog_8859_8@icu_56@@8 DD FLAT:??_R1A@?0A@EA@CharsetRecog_8859_8@icu_56@@8 ; icu_56::CharsetRecog_8859_8::`RTTI Base Class Array'
	DD	FLAT:??_R1A@?0A@EA@CharsetRecog_sbcs@icu_56@@8
	DD	FLAT:??_R1A@?0A@EA@CharsetRecognizer@icu_56@@8
	DD	FLAT:??_R13?0A@EA@UMemory@icu_56@@8
rdata$r	ENDS
;	COMDAT ??_R3CharsetRecog_8859_8@icu_56@@8
rdata$r	SEGMENT
??_R3CharsetRecog_8859_8@icu_56@@8 DD 00H		; icu_56::CharsetRecog_8859_8::`RTTI Class Hierarchy Descriptor'
	DD	00H
	DD	04H
	DD	FLAT:??_R2CharsetRecog_8859_8@icu_56@@8
rdata$r	ENDS
;	COMDAT ??_R0?AVCharsetRecog_8859_8@icu_56@@@8
_DATA	SEGMENT
??_R0?AVCharsetRecog_8859_8@icu_56@@@8 DD FLAT:??_7type_info@@6B@ ; icu_56::CharsetRecog_8859_8 `RTTI Type Descriptor'
	DD	00H
	DB	'.?AVCharsetRecog_8859_8@icu_56@@', 00H
_DATA	ENDS
;	COMDAT ??_R4CharsetRecog_8859_8@icu_56@@6B@
rdata$r	SEGMENT
??_R4CharsetRecog_8859_8@icu_56@@6B@ DD 00H		; icu_56::CharsetRecog_8859_8::`RTTI Complete Object Locator'
	DD	00H
	DD	00H
	DD	FLAT:??_R0?AVCharsetRecog_8859_8@icu_56@@@8
	DD	FLAT:??_R3CharsetRecog_8859_8@icu_56@@8
rdata$r	ENDS
;	COMDAT ??_7CharsetRecog_8859_8@icu_56@@6B@
CONST	SEGMENT
??_7CharsetRecog_8859_8@icu_56@@6B@ DD FLAT:??_R4CharsetRecog_8859_8@icu_56@@6B@ ; icu_56::CharsetRecog_8859_8::`vftable'
	DD	FLAT:?getName@CharsetRecog_8859_8@icu_56@@UBEPBDXZ
	DD	FLAT:?getLanguage@CharsetRecognizer@icu_56@@UBEPBDXZ
	DD	FLAT:__purecall
	DD	FLAT:??_ECharsetRecog_8859_8@icu_56@@UAEPAXI@Z
	DD	FLAT:?match_sbcs@CharsetRecog_sbcs@icu_56@@UBEHPAVInputText@2@QBHQBE@Z
; Function compile flags: /Odtp /RTCsu /ZI
CONST	ENDS
;	COMDAT ??1CharsetRecog_8859_8@icu_56@@UAE@XZ
_TEXT	SEGMENT
_this$ = -8						; size = 4
??1CharsetRecog_8859_8@icu_56@@UAE@XZ PROC		; icu_56::CharsetRecog_8859_8::~CharsetRecog_8859_8, COMDAT
; _this$ = ecx
; Line 1023
	push	ebp
	mov	ebp, esp
	sub	esp, 204				; 000000ccH
	push	ebx
	push	esi
	push	edi
	push	ecx
	lea	edi, DWORD PTR [ebp-204]
	mov	ecx, 51					; 00000033H
	mov	eax, -858993460				; ccccccccH
	rep stosd
	pop	ecx
	mov	DWORD PTR _this$[ebp], ecx
	mov	eax, DWORD PTR _this$[ebp]
	mov	DWORD PTR [eax], OFFSET ??_7CharsetRecog_8859_8@icu_56@@6B@
; Line 1025
	mov	ecx, DWORD PTR _this$[ebp]
	call	??1CharsetRecog_sbcs@icu_56@@UAE@XZ	; icu_56::CharsetRecog_sbcs::~CharsetRecog_sbcs
	pop	edi
	pop	esi
	pop	ebx
	add	esp, 204				; 000000ccH
	cmp	ebp, esp
	call	__RTC_CheckEsp
	mov	esp, ebp
	pop	ebp
	ret	0
??1CharsetRecog_8859_8@icu_56@@UAE@XZ ENDP		; icu_56::CharsetRecog_8859_8::~CharsetRecog_8859_8
; Function compile flags: /Odtp /RTCsu /ZI
_TEXT	ENDS
;	COMDAT ??_GCharsetRecog_8859_8@icu_56@@UAEPAXI@Z
_TEXT	SEGMENT
_this$ = -8						; size = 4
___flags$ = 8						; size = 4
??_GCharsetRecog_8859_8@icu_56@@UAEPAXI@Z PROC		; icu_56::CharsetRecog_8859_8::`scalar deleting destructor', COMDAT
; _this$ = ecx
	push	ebp
	mov	ebp, esp
	sub	esp, 204				; 000000ccH
	push	ebx
	push	esi
	push	edi
	push	ecx
	lea	edi, DWORD PTR [ebp-204]
	mov	ecx, 51					; 00000033H
	mov	eax, -858993460				; ccccccccH
	rep stosd
	pop	ecx
	mov	DWORD PTR _this$[ebp], ecx
	mov	ecx, DWORD PTR _this$[ebp]
	call	??1CharsetRecog_8859_8@icu_56@@UAE@XZ	; icu_56::CharsetRecog_8859_8::~CharsetRecog_8859_8
	mov	eax, DWORD PTR ___flags$[ebp]
	and	eax, 1
	je	SHORT $LN1@scalar@13
	mov	esi, esp
	mov	eax, DWORD PTR _this$[ebp]
	push	eax
	call	DWORD PTR __imp_??3UMemory@icu_56@@SAXPAX@Z
	add	esp, 4
	cmp	esi, esp
	call	__RTC_CheckEsp
$LN1@scalar@13:
	mov	eax, DWORD PTR _this$[ebp]
	pop	edi
	pop	esi
	pop	ebx
	add	esp, 204				; 000000ccH
	cmp	ebp, esp
	call	__RTC_CheckEsp
	mov	esp, ebp
	pop	ebp
	ret	4
??_GCharsetRecog_8859_8@icu_56@@UAEPAXI@Z ENDP		; icu_56::CharsetRecog_8859_8::`scalar deleting destructor'
_TEXT	ENDS
PUBLIC	??_C@_0L@LIELGIAD@ISO?98859?98?$AA@		; `string'
;	COMDAT ??_C@_0L@LIELGIAD@ISO?98859?98?$AA@
CONST	SEGMENT
??_C@_0L@LIELGIAD@ISO?98859?98?$AA@ DB 'ISO-8859-8', 00H ; `string'
; Function compile flags: /Odtp /RTCsu /ZI
CONST	ENDS
;	COMDAT ?getName@CharsetRecog_8859_8@icu_56@@UBEPBDXZ
_TEXT	SEGMENT
_this$ = -8						; size = 4
?getName@CharsetRecog_8859_8@icu_56@@UBEPBDXZ PROC	; icu_56::CharsetRecog_8859_8::getName, COMDAT
; _this$ = ecx
; Line 1028
	push	ebp
	mov	ebp, esp
	sub	esp, 204				; 000000ccH
	push	ebx
	push	esi
	push	edi
	push	ecx
	lea	edi, DWORD PTR [ebp-204]
	mov	ecx, 51					; 00000033H
	mov	eax, -858993460				; ccccccccH
	rep stosd
	pop	ecx
	mov	DWORD PTR _this$[ebp], ecx
; Line 1029
	mov	eax, OFFSET ??_C@_0L@LIELGIAD@ISO?98859?98?$AA@
; Line 1030
	pop	edi
	pop	esi
	pop	ebx
	mov	esp, ebp
	pop	ebp
	ret	0
?getName@CharsetRecog_8859_8@icu_56@@UBEPBDXZ ENDP	; icu_56::CharsetRecog_8859_8::getName
_TEXT	ENDS
PUBLIC	??_7CharsetRecog_8859_8_I_he@icu_56@@6B@	; icu_56::CharsetRecog_8859_8_I_he::`vftable'
PUBLIC	??1CharsetRecog_8859_8_I_he@icu_56@@UAE@XZ	; icu_56::CharsetRecog_8859_8_I_he::~CharsetRecog_8859_8_I_he
PUBLIC	??_R4CharsetRecog_8859_8_I_he@icu_56@@6B@	; icu_56::CharsetRecog_8859_8_I_he::`RTTI Complete Object Locator'
PUBLIC	??_R0?AVCharsetRecog_8859_8_I_he@icu_56@@@8	; icu_56::CharsetRecog_8859_8_I_he `RTTI Type Descriptor'
PUBLIC	??_R3CharsetRecog_8859_8_I_he@icu_56@@8		; icu_56::CharsetRecog_8859_8_I_he::`RTTI Class Hierarchy Descriptor'
PUBLIC	??_R2CharsetRecog_8859_8_I_he@icu_56@@8		; icu_56::CharsetRecog_8859_8_I_he::`RTTI Base Class Array'
PUBLIC	??_R1A@?0A@EA@CharsetRecog_8859_8_I_he@icu_56@@8 ; icu_56::CharsetRecog_8859_8_I_he::`RTTI Base Class Descriptor at (0,-1,0,64)'
PUBLIC	?getName@CharsetRecog_8859_8_I_he@icu_56@@UBEPBDXZ ; icu_56::CharsetRecog_8859_8_I_he::getName
PUBLIC	?getLanguage@CharsetRecog_8859_8_I_he@icu_56@@UBEPBDXZ ; icu_56::CharsetRecog_8859_8_I_he::getLanguage
PUBLIC	?match@CharsetRecog_8859_8_I_he@icu_56@@UBECPAVInputText@2@PAVCharsetMatch@2@@Z ; icu_56::CharsetRecog_8859_8_I_he::match
EXTRN	??_ECharsetRecog_8859_8_I_he@icu_56@@UAEPAXI@Z:PROC ; icu_56::CharsetRecog_8859_8_I_he::`vector deleting destructor'
;	COMDAT ??_R1A@?0A@EA@CharsetRecog_8859_8_I_he@icu_56@@8
rdata$r	SEGMENT
??_R1A@?0A@EA@CharsetRecog_8859_8_I_he@icu_56@@8 DD FLAT:??_R0?AVCharsetRecog_8859_8_I_he@icu_56@@@8 ; icu_56::CharsetRecog_8859_8_I_he::`RTTI Base Class Descriptor at (0,-1,0,64)'
	DD	04H
	DD	00H
	DD	0ffffffffH
	DD	00H
	DD	040H
	DD	FLAT:??_R3CharsetRecog_8859_8_I_he@icu_56@@8
rdata$r	ENDS
;	COMDAT ??_R2CharsetRecog_8859_8_I_he@icu_56@@8
rdata$r	SEGMENT
??_R2CharsetRecog_8859_8_I_he@icu_56@@8 DD FLAT:??_R1A@?0A@EA@CharsetRecog_8859_8_I_he@icu_56@@8 ; icu_56::CharsetRecog_8859_8_I_he::`RTTI Base Class Array'
	DD	FLAT:??_R1A@?0A@EA@CharsetRecog_8859_8@icu_56@@8
	DD	FLAT:??_R1A@?0A@EA@CharsetRecog_sbcs@icu_56@@8
	DD	FLAT:??_R1A@?0A@EA@CharsetRecognizer@icu_56@@8
	DD	FLAT:??_R13?0A@EA@UMemory@icu_56@@8
rdata$r	ENDS
;	COMDAT ??_R3CharsetRecog_8859_8_I_he@icu_56@@8
rdata$r	SEGMENT
??_R3CharsetRecog_8859_8_I_he@icu_56@@8 DD 00H		; icu_56::CharsetRecog_8859_8_I_he::`RTTI Class Hierarchy Descriptor'
	DD	00H
	DD	05H
	DD	FLAT:??_R2CharsetRecog_8859_8_I_he@icu_56@@8
rdata$r	ENDS
;	COMDAT ??_R0?AVCharsetRecog_8859_8_I_he@icu_56@@@8
_DATA	SEGMENT
??_R0?AVCharsetRecog_8859_8_I_he@icu_56@@@8 DD FLAT:??_7type_info@@6B@ ; icu_56::CharsetRecog_8859_8_I_he `RTTI Type Descriptor'
	DD	00H
	DB	'.?AVCharsetRecog_8859_8_I_he@icu_56@@', 00H
_DATA	ENDS
;	COMDAT ??_R4CharsetRecog_8859_8_I_he@icu_56@@6B@
rdata$r	SEGMENT
??_R4CharsetRecog_8859_8_I_he@icu_56@@6B@ DD 00H	; icu_56::CharsetRecog_8859_8_I_he::`RTTI Complete Object Locator'
	DD	00H
	DD	00H
	DD	FLAT:??_R0?AVCharsetRecog_8859_8_I_he@icu_56@@@8
	DD	FLAT:??_R3CharsetRecog_8859_8_I_he@icu_56@@8
rdata$r	ENDS
;	COMDAT ??_7CharsetRecog_8859_8_I_he@icu_56@@6B@
CONST	SEGMENT
??_7CharsetRecog_8859_8_I_he@icu_56@@6B@ DD FLAT:??_R4CharsetRecog_8859_8_I_he@icu_56@@6B@ ; icu_56::CharsetRecog_8859_8_I_he::`vftable'
	DD	FLAT:?getName@CharsetRecog_8859_8_I_he@icu_56@@UBEPBDXZ
	DD	FLAT:?getLanguage@CharsetRecog_8859_8_I_he@icu_56@@UBEPBDXZ
	DD	FLAT:?match@CharsetRecog_8859_8_I_he@icu_56@@UBECPAVInputText@2@PAVCharsetMatch@2@@Z
	DD	FLAT:??_ECharsetRecog_8859_8_I_he@icu_56@@UAEPAXI@Z
	DD	FLAT:?match_sbcs@CharsetRecog_sbcs@icu_56@@UBEHPAVInputText@2@QBHQBE@Z
; Function compile flags: /Odtp /RTCsu /ZI
CONST	ENDS
;	COMDAT ??1CharsetRecog_8859_8_I_he@icu_56@@UAE@XZ
_TEXT	SEGMENT
_this$ = -8						; size = 4
??1CharsetRecog_8859_8_I_he@icu_56@@UAE@XZ PROC		; icu_56::CharsetRecog_8859_8_I_he::~CharsetRecog_8859_8_I_he, COMDAT
; _this$ = ecx
; Line 1033
	push	ebp
	mov	ebp, esp
	sub	esp, 204				; 000000ccH
	push	ebx
	push	esi
	push	edi
	push	ecx
	lea	edi, DWORD PTR [ebp-204]
	mov	ecx, 51					; 00000033H
	mov	eax, -858993460				; ccccccccH
	rep stosd
	pop	ecx
	mov	DWORD PTR _this$[ebp], ecx
	mov	eax, DWORD PTR _this$[ebp]
	mov	DWORD PTR [eax], OFFSET ??_7CharsetRecog_8859_8_I_he@icu_56@@6B@
; Line 1035
	mov	ecx, DWORD PTR _this$[ebp]
	call	??1CharsetRecog_8859_8@icu_56@@UAE@XZ	; icu_56::CharsetRecog_8859_8::~CharsetRecog_8859_8
	pop	edi
	pop	esi
	pop	ebx
	add	esp, 204				; 000000ccH
	cmp	ebp, esp
	call	__RTC_CheckEsp
	mov	esp, ebp
	pop	ebp
	ret	0
??1CharsetRecog_8859_8_I_he@icu_56@@UAE@XZ ENDP		; icu_56::CharsetRecog_8859_8_I_he::~CharsetRecog_8859_8_I_he
; Function compile flags: /Odtp /RTCsu /ZI
_TEXT	ENDS
;	COMDAT ??_GCharsetRecog_8859_8_I_he@icu_56@@UAEPAXI@Z
_TEXT	SEGMENT
_this$ = -8						; size = 4
___flags$ = 8						; size = 4
??_GCharsetRecog_8859_8_I_he@icu_56@@UAEPAXI@Z PROC	; icu_56::CharsetRecog_8859_8_I_he::`scalar deleting destructor', COMDAT
; _this$ = ecx
	push	ebp
	mov	ebp, esp
	sub	esp, 204				; 000000ccH
	push	ebx
	push	esi
	push	edi
	push	ecx
	lea	edi, DWORD PTR [ebp-204]
	mov	ecx, 51					; 00000033H
	mov	eax, -858993460				; ccccccccH
	rep stosd
	pop	ecx
	mov	DWORD PTR _this$[ebp], ecx
	mov	ecx, DWORD PTR _this$[ebp]
	call	??1CharsetRecog_8859_8_I_he@icu_56@@UAE@XZ ; icu_56::CharsetRecog_8859_8_I_he::~CharsetRecog_8859_8_I_he
	mov	eax, DWORD PTR ___flags$[ebp]
	and	eax, 1
	je	SHORT $LN1@scalar@14
	mov	esi, esp
	mov	eax, DWORD PTR _this$[ebp]
	push	eax
	call	DWORD PTR __imp_??3UMemory@icu_56@@SAXPAX@Z
	add	esp, 4
	cmp	esi, esp
	call	__RTC_CheckEsp
$LN1@scalar@14:
	mov	eax, DWORD PTR _this$[ebp]
	pop	edi
	pop	esi
	pop	ebx
	add	esp, 204				; 000000ccH
	cmp	ebp, esp
	call	__RTC_CheckEsp
	mov	esp, ebp
	pop	ebp
	ret	4
??_GCharsetRecog_8859_8_I_he@icu_56@@UAEPAXI@Z ENDP	; icu_56::CharsetRecog_8859_8_I_he::`scalar deleting destructor'
_TEXT	ENDS
PUBLIC	??_C@_0N@HJGKCDBN@ISO?98859?98?9I?$AA@		; `string'
;	COMDAT ??_C@_0N@HJGKCDBN@ISO?98859?98?9I?$AA@
CONST	SEGMENT
??_C@_0N@HJGKCDBN@ISO?98859?98?9I?$AA@ DB 'ISO-8859-8-I', 00H ; `string'
; Function compile flags: /Odtp /RTCsu /ZI
CONST	ENDS
;	COMDAT ?getName@CharsetRecog_8859_8_I_he@icu_56@@UBEPBDXZ
_TEXT	SEGMENT
_this$ = -8						; size = 4
?getName@CharsetRecog_8859_8_I_he@icu_56@@UBEPBDXZ PROC	; icu_56::CharsetRecog_8859_8_I_he::getName, COMDAT
; _this$ = ecx
; Line 1038
	push	ebp
	mov	ebp, esp
	sub	esp, 204				; 000000ccH
	push	ebx
	push	esi
	push	edi
	push	ecx
	lea	edi, DWORD PTR [ebp-204]
	mov	ecx, 51					; 00000033H
	mov	eax, -858993460				; ccccccccH
	rep stosd
	pop	ecx
	mov	DWORD PTR _this$[ebp], ecx
; Line 1039
	mov	eax, OFFSET ??_C@_0N@HJGKCDBN@ISO?98859?98?9I?$AA@
; Line 1040
	pop	edi
	pop	esi
	pop	ebx
	mov	esp, ebp
	pop	ebp
	ret	0
?getName@CharsetRecog_8859_8_I_he@icu_56@@UBEPBDXZ ENDP	; icu_56::CharsetRecog_8859_8_I_he::getName
_TEXT	ENDS
PUBLIC	??_C@_02FOPACDJH@he?$AA@			; `string'
;	COMDAT ??_C@_02FOPACDJH@he?$AA@
CONST	SEGMENT
??_C@_02FOPACDJH@he?$AA@ DB 'he', 00H			; `string'
; Function compile flags: /Odtp /RTCsu /ZI
CONST	ENDS
;	COMDAT ?getLanguage@CharsetRecog_8859_8_I_he@icu_56@@UBEPBDXZ
_TEXT	SEGMENT
_this$ = -8						; size = 4
?getLanguage@CharsetRecog_8859_8_I_he@icu_56@@UBEPBDXZ PROC ; icu_56::CharsetRecog_8859_8_I_he::getLanguage, COMDAT
; _this$ = ecx
; Line 1043
	push	ebp
	mov	ebp, esp
	sub	esp, 204				; 000000ccH
	push	ebx
	push	esi
	push	edi
	push	ecx
	lea	edi, DWORD PTR [ebp-204]
	mov	ecx, 51					; 00000033H
	mov	eax, -858993460				; ccccccccH
	rep stosd
	pop	ecx
	mov	DWORD PTR _this$[ebp], ecx
; Line 1044
	mov	eax, OFFSET ??_C@_02FOPACDJH@he?$AA@
; Line 1045
	pop	edi
	pop	esi
	pop	ebx
	mov	esp, ebp
	pop	ebp
	ret	0
?getLanguage@CharsetRecog_8859_8_I_he@icu_56@@UBEPBDXZ ENDP ; icu_56::CharsetRecog_8859_8_I_he::getLanguage
_TEXT	ENDS
PUBLIC	??_C@_0N@FNFGMCHP@windows?91255?$AA@		; `string'
;	COMDAT ??_C@_0N@FNFGMCHP@windows?91255?$AA@
CONST	SEGMENT
??_C@_0N@FNFGMCHP@windows?91255?$AA@ DB 'windows-1255', 00H ; `string'
; Function compile flags: /Odtp /RTCsu /ZI
CONST	ENDS
;	COMDAT ?match@CharsetRecog_8859_8_I_he@icu_56@@UBECPAVInputText@2@PAVCharsetMatch@2@@Z
_TEXT	SEGMENT
tv67 = -232						; size = 4
_confidence$ = -32					; size = 4
_name$ = -20						; size = 4
_this$ = -8						; size = 4
_textIn$ = 8						; size = 4
_results$ = 12						; size = 4
?match@CharsetRecog_8859_8_I_he@icu_56@@UBECPAVInputText@2@PAVCharsetMatch@2@@Z PROC ; icu_56::CharsetRecog_8859_8_I_he::match, COMDAT
; _this$ = ecx
; Line 1048
	push	ebp
	mov	ebp, esp
	sub	esp, 232				; 000000e8H
	push	ebx
	push	esi
	push	edi
	push	ecx
	lea	edi, DWORD PTR [ebp-232]
	mov	ecx, 58					; 0000003aH
	mov	eax, -858993460				; ccccccccH
	rep stosd
	pop	ecx
	mov	DWORD PTR _this$[ebp], ecx
; Line 1049
	mov	eax, DWORD PTR _textIn$[ebp]
	movsx	ecx, BYTE PTR [eax+12]
	test	ecx, ecx
	je	SHORT $LN3@match@4
	mov	DWORD PTR tv67[ebp], OFFSET ??_C@_0N@FNFGMCHP@windows?91255?$AA@
	jmp	SHORT $LN4@match@4
$LN3@match@4:
	mov	DWORD PTR tv67[ebp], OFFSET ??_C@_0N@HJGKCDBN@ISO?98859?98?9I?$AA@
$LN4@match@4:
	mov	edx, DWORD PTR tv67[ebp]
	mov	DWORD PTR _name$[ebp], edx
; Line 1050
	mov	esi, esp
	push	OFFSET _charMap_8859_8
	push	OFFSET _ngrams_8859_8_I_he
	mov	eax, DWORD PTR _textIn$[ebp]
	push	eax
	mov	ecx, DWORD PTR _this$[ebp]
	mov	edx, DWORD PTR [ecx]
	mov	ecx, DWORD PTR _this$[ebp]
	mov	eax, DWORD PTR [edx+16]
	call	eax
	cmp	esi, esp
	call	__RTC_CheckEsp
	mov	DWORD PTR _confidence$[ebp], eax
; Line 1051
	push	OFFSET ??_C@_02FOPACDJH@he?$AA@
	mov	eax, DWORD PTR _name$[ebp]
	push	eax
	mov	ecx, DWORD PTR _confidence$[ebp]
	push	ecx
	mov	edx, DWORD PTR _this$[ebp]
	push	edx
	mov	eax, DWORD PTR _textIn$[ebp]
	push	eax
	mov	ecx, DWORD PTR _results$[ebp]
	call	?set@CharsetMatch@icu_56@@QAEXPAVInputText@2@PBVCharsetRecognizer@2@HPBD2@Z ; icu_56::CharsetMatch::set
; Line 1052
	cmp	DWORD PTR _confidence$[ebp], 0
	setg	al
; Line 1053
	pop	edi
	pop	esi
	pop	ebx
	add	esp, 232				; 000000e8H
	cmp	ebp, esp
	call	__RTC_CheckEsp
	mov	esp, ebp
	pop	ebp
	ret	8
?match@CharsetRecog_8859_8_I_he@icu_56@@UBECPAVInputText@2@PAVCharsetMatch@2@@Z ENDP ; icu_56::CharsetRecog_8859_8_I_he::match
_TEXT	ENDS
PUBLIC	??_7CharsetRecog_8859_8_he@icu_56@@6B@		; icu_56::CharsetRecog_8859_8_he::`vftable'
PUBLIC	??1CharsetRecog_8859_8_he@icu_56@@UAE@XZ	; icu_56::CharsetRecog_8859_8_he::~CharsetRecog_8859_8_he
PUBLIC	??_R4CharsetRecog_8859_8_he@icu_56@@6B@		; icu_56::CharsetRecog_8859_8_he::`RTTI Complete Object Locator'
PUBLIC	??_R0?AVCharsetRecog_8859_8_he@icu_56@@@8	; icu_56::CharsetRecog_8859_8_he `RTTI Type Descriptor'
PUBLIC	??_R3CharsetRecog_8859_8_he@icu_56@@8		; icu_56::CharsetRecog_8859_8_he::`RTTI Class Hierarchy Descriptor'
PUBLIC	??_R2CharsetRecog_8859_8_he@icu_56@@8		; icu_56::CharsetRecog_8859_8_he::`RTTI Base Class Array'
PUBLIC	??_R1A@?0A@EA@CharsetRecog_8859_8_he@icu_56@@8	; icu_56::CharsetRecog_8859_8_he::`RTTI Base Class Descriptor at (0,-1,0,64)'
PUBLIC	?getLanguage@CharsetRecog_8859_8_he@icu_56@@UBEPBDXZ ; icu_56::CharsetRecog_8859_8_he::getLanguage
PUBLIC	?match@CharsetRecog_8859_8_he@icu_56@@UBECPAVInputText@2@PAVCharsetMatch@2@@Z ; icu_56::CharsetRecog_8859_8_he::match
EXTRN	??_ECharsetRecog_8859_8_he@icu_56@@UAEPAXI@Z:PROC ; icu_56::CharsetRecog_8859_8_he::`vector deleting destructor'
;	COMDAT ??_R1A@?0A@EA@CharsetRecog_8859_8_he@icu_56@@8
rdata$r	SEGMENT
??_R1A@?0A@EA@CharsetRecog_8859_8_he@icu_56@@8 DD FLAT:??_R0?AVCharsetRecog_8859_8_he@icu_56@@@8 ; icu_56::CharsetRecog_8859_8_he::`RTTI Base Class Descriptor at (0,-1,0,64)'
	DD	04H
	DD	00H
	DD	0ffffffffH
	DD	00H
	DD	040H
	DD	FLAT:??_R3CharsetRecog_8859_8_he@icu_56@@8
rdata$r	ENDS
;	COMDAT ??_R2CharsetRecog_8859_8_he@icu_56@@8
rdata$r	SEGMENT
??_R2CharsetRecog_8859_8_he@icu_56@@8 DD FLAT:??_R1A@?0A@EA@CharsetRecog_8859_8_he@icu_56@@8 ; icu_56::CharsetRecog_8859_8_he::`RTTI Base Class Array'
	DD	FLAT:??_R1A@?0A@EA@CharsetRecog_8859_8@icu_56@@8
	DD	FLAT:??_R1A@?0A@EA@CharsetRecog_sbcs@icu_56@@8
	DD	FLAT:??_R1A@?0A@EA@CharsetRecognizer@icu_56@@8
	DD	FLAT:??_R13?0A@EA@UMemory@icu_56@@8
rdata$r	ENDS
;	COMDAT ??_R3CharsetRecog_8859_8_he@icu_56@@8
rdata$r	SEGMENT
??_R3CharsetRecog_8859_8_he@icu_56@@8 DD 00H		; icu_56::CharsetRecog_8859_8_he::`RTTI Class Hierarchy Descriptor'
	DD	00H
	DD	05H
	DD	FLAT:??_R2CharsetRecog_8859_8_he@icu_56@@8
rdata$r	ENDS
;	COMDAT ??_R0?AVCharsetRecog_8859_8_he@icu_56@@@8
_DATA	SEGMENT
??_R0?AVCharsetRecog_8859_8_he@icu_56@@@8 DD FLAT:??_7type_info@@6B@ ; icu_56::CharsetRecog_8859_8_he `RTTI Type Descriptor'
	DD	00H
	DB	'.?AVCharsetRecog_8859_8_he@icu_56@@', 00H
_DATA	ENDS
;	COMDAT ??_R4CharsetRecog_8859_8_he@icu_56@@6B@
rdata$r	SEGMENT
??_R4CharsetRecog_8859_8_he@icu_56@@6B@ DD 00H		; icu_56::CharsetRecog_8859_8_he::`RTTI Complete Object Locator'
	DD	00H
	DD	00H
	DD	FLAT:??_R0?AVCharsetRecog_8859_8_he@icu_56@@@8
	DD	FLAT:??_R3CharsetRecog_8859_8_he@icu_56@@8
rdata$r	ENDS
;	COMDAT ??_7CharsetRecog_8859_8_he@icu_56@@6B@
CONST	SEGMENT
??_7CharsetRecog_8859_8_he@icu_56@@6B@ DD FLAT:??_R4CharsetRecog_8859_8_he@icu_56@@6B@ ; icu_56::CharsetRecog_8859_8_he::`vftable'
	DD	FLAT:?getName@CharsetRecog_8859_8@icu_56@@UBEPBDXZ
	DD	FLAT:?getLanguage@CharsetRecog_8859_8_he@icu_56@@UBEPBDXZ
	DD	FLAT:?match@CharsetRecog_8859_8_he@icu_56@@UBECPAVInputText@2@PAVCharsetMatch@2@@Z
	DD	FLAT:??_ECharsetRecog_8859_8_he@icu_56@@UAEPAXI@Z
	DD	FLAT:?match_sbcs@CharsetRecog_sbcs@icu_56@@UBEHPAVInputText@2@QBHQBE@Z
; Function compile flags: /Odtp /RTCsu /ZI
CONST	ENDS
;	COMDAT ??1CharsetRecog_8859_8_he@icu_56@@UAE@XZ
_TEXT	SEGMENT
_this$ = -8						; size = 4
??1CharsetRecog_8859_8_he@icu_56@@UAE@XZ PROC		; icu_56::CharsetRecog_8859_8_he::~CharsetRecog_8859_8_he, COMDAT
; _this$ = ecx
; Line 1056
	push	ebp
	mov	ebp, esp
	sub	esp, 204				; 000000ccH
	push	ebx
	push	esi
	push	edi
	push	ecx
	lea	edi, DWORD PTR [ebp-204]
	mov	ecx, 51					; 00000033H
	mov	eax, -858993460				; ccccccccH
	rep stosd
	pop	ecx
	mov	DWORD PTR _this$[ebp], ecx
	mov	eax, DWORD PTR _this$[ebp]
	mov	DWORD PTR [eax], OFFSET ??_7CharsetRecog_8859_8_he@icu_56@@6B@
; Line 1058
	mov	ecx, DWORD PTR _this$[ebp]
	call	??1CharsetRecog_8859_8@icu_56@@UAE@XZ	; icu_56::CharsetRecog_8859_8::~CharsetRecog_8859_8
	pop	edi
	pop	esi
	pop	ebx
	add	esp, 204				; 000000ccH
	cmp	ebp, esp
	call	__RTC_CheckEsp
	mov	esp, ebp
	pop	ebp
	ret	0
??1CharsetRecog_8859_8_he@icu_56@@UAE@XZ ENDP		; icu_56::CharsetRecog_8859_8_he::~CharsetRecog_8859_8_he
; Function compile flags: /Odtp /RTCsu /ZI
_TEXT	ENDS
;	COMDAT ??_GCharsetRecog_8859_8_he@icu_56@@UAEPAXI@Z
_TEXT	SEGMENT
_this$ = -8						; size = 4
___flags$ = 8						; size = 4
??_GCharsetRecog_8859_8_he@icu_56@@UAEPAXI@Z PROC	; icu_56::CharsetRecog_8859_8_he::`scalar deleting destructor', COMDAT
; _this$ = ecx
	push	ebp
	mov	ebp, esp
	sub	esp, 204				; 000000ccH
	push	ebx
	push	esi
	push	edi
	push	ecx
	lea	edi, DWORD PTR [ebp-204]
	mov	ecx, 51					; 00000033H
	mov	eax, -858993460				; ccccccccH
	rep stosd
	pop	ecx
	mov	DWORD PTR _this$[ebp], ecx
	mov	ecx, DWORD PTR _this$[ebp]
	call	??1CharsetRecog_8859_8_he@icu_56@@UAE@XZ ; icu_56::CharsetRecog_8859_8_he::~CharsetRecog_8859_8_he
	mov	eax, DWORD PTR ___flags$[ebp]
	and	eax, 1
	je	SHORT $LN1@scalar@15
	mov	esi, esp
	mov	eax, DWORD PTR _this$[ebp]
	push	eax
	call	DWORD PTR __imp_??3UMemory@icu_56@@SAXPAX@Z
	add	esp, 4
	cmp	esi, esp
	call	__RTC_CheckEsp
$LN1@scalar@15:
	mov	eax, DWORD PTR _this$[ebp]
	pop	edi
	pop	esi
	pop	ebx
	add	esp, 204				; 000000ccH
	cmp	ebp, esp
	call	__RTC_CheckEsp
	mov	esp, ebp
	pop	ebp
	ret	4
??_GCharsetRecog_8859_8_he@icu_56@@UAEPAXI@Z ENDP	; icu_56::CharsetRecog_8859_8_he::`scalar deleting destructor'
; Function compile flags: /Odtp /RTCsu /ZI
_TEXT	ENDS
;	COMDAT ?getLanguage@CharsetRecog_8859_8_he@icu_56@@UBEPBDXZ
_TEXT	SEGMENT
_this$ = -8						; size = 4
?getLanguage@CharsetRecog_8859_8_he@icu_56@@UBEPBDXZ PROC ; icu_56::CharsetRecog_8859_8_he::getLanguage, COMDAT
; _this$ = ecx
; Line 1061
	push	ebp
	mov	ebp, esp
	sub	esp, 204				; 000000ccH
	push	ebx
	push	esi
	push	edi
	push	ecx
	lea	edi, DWORD PTR [ebp-204]
	mov	ecx, 51					; 00000033H
	mov	eax, -858993460				; ccccccccH
	rep stosd
	pop	ecx
	mov	DWORD PTR _this$[ebp], ecx
; Line 1062
	mov	eax, OFFSET ??_C@_02FOPACDJH@he?$AA@
; Line 1063
	pop	edi
	pop	esi
	pop	ebx
	mov	esp, ebp
	pop	ebp
	ret	0
?getLanguage@CharsetRecog_8859_8_he@icu_56@@UBEPBDXZ ENDP ; icu_56::CharsetRecog_8859_8_he::getLanguage
; Function compile flags: /Odtp /RTCsu /ZI
_TEXT	ENDS
;	COMDAT ?match@CharsetRecog_8859_8_he@icu_56@@UBECPAVInputText@2@PAVCharsetMatch@2@@Z
_TEXT	SEGMENT
tv67 = -232						; size = 4
_confidence$ = -32					; size = 4
_name$ = -20						; size = 4
_this$ = -8						; size = 4
_textIn$ = 8						; size = 4
_results$ = 12						; size = 4
?match@CharsetRecog_8859_8_he@icu_56@@UBECPAVInputText@2@PAVCharsetMatch@2@@Z PROC ; icu_56::CharsetRecog_8859_8_he::match, COMDAT
; _this$ = ecx
; Line 1066
	push	ebp
	mov	ebp, esp
	sub	esp, 232				; 000000e8H
	push	ebx
	push	esi
	push	edi
	push	ecx
	lea	edi, DWORD PTR [ebp-232]
	mov	ecx, 58					; 0000003aH
	mov	eax, -858993460				; ccccccccH
	rep stosd
	pop	ecx
	mov	DWORD PTR _this$[ebp], ecx
; Line 1067
	mov	eax, DWORD PTR _textIn$[ebp]
	movsx	ecx, BYTE PTR [eax+12]
	test	ecx, ecx
	je	SHORT $LN3@match@5
	mov	DWORD PTR tv67[ebp], OFFSET ??_C@_0N@FNFGMCHP@windows?91255?$AA@
	jmp	SHORT $LN4@match@5
$LN3@match@5:
	mov	DWORD PTR tv67[ebp], OFFSET ??_C@_0L@LIELGIAD@ISO?98859?98?$AA@
$LN4@match@5:
	mov	edx, DWORD PTR tv67[ebp]
	mov	DWORD PTR _name$[ebp], edx
; Line 1068
	mov	esi, esp
	push	OFFSET _charMap_8859_8
	push	OFFSET _ngrams_8859_8_he
	mov	eax, DWORD PTR _textIn$[ebp]
	push	eax
	mov	ecx, DWORD PTR _this$[ebp]
	mov	edx, DWORD PTR [ecx]
	mov	ecx, DWORD PTR _this$[ebp]
	mov	eax, DWORD PTR [edx+16]
	call	eax
	cmp	esi, esp
	call	__RTC_CheckEsp
	mov	DWORD PTR _confidence$[ebp], eax
; Line 1069
	push	OFFSET ??_C@_02FOPACDJH@he?$AA@
	mov	eax, DWORD PTR _name$[ebp]
	push	eax
	mov	ecx, DWORD PTR _confidence$[ebp]
	push	ecx
	mov	edx, DWORD PTR _this$[ebp]
	push	edx
	mov	eax, DWORD PTR _textIn$[ebp]
	push	eax
	mov	ecx, DWORD PTR _results$[ebp]
	call	?set@CharsetMatch@icu_56@@QAEXPAVInputText@2@PBVCharsetRecognizer@2@HPBD2@Z ; icu_56::CharsetMatch::set
; Line 1070
	cmp	DWORD PTR _confidence$[ebp], 0
	setg	al
; Line 1071
	pop	edi
	pop	esi
	pop	ebx
	add	esp, 232				; 000000e8H
	cmp	ebp, esp
	call	__RTC_CheckEsp
	mov	esp, ebp
	pop	ebp
	ret	8
?match@CharsetRecog_8859_8_he@icu_56@@UBECPAVInputText@2@PAVCharsetMatch@2@@Z ENDP ; icu_56::CharsetRecog_8859_8_he::match
_TEXT	ENDS
PUBLIC	??_7CharsetRecog_8859_9@icu_56@@6B@		; icu_56::CharsetRecog_8859_9::`vftable'
PUBLIC	??1CharsetRecog_8859_9@icu_56@@UAE@XZ		; icu_56::CharsetRecog_8859_9::~CharsetRecog_8859_9
PUBLIC	??_R4CharsetRecog_8859_9@icu_56@@6B@		; icu_56::CharsetRecog_8859_9::`RTTI Complete Object Locator'
PUBLIC	??_R0?AVCharsetRecog_8859_9@icu_56@@@8		; icu_56::CharsetRecog_8859_9 `RTTI Type Descriptor'
PUBLIC	??_R3CharsetRecog_8859_9@icu_56@@8		; icu_56::CharsetRecog_8859_9::`RTTI Class Hierarchy Descriptor'
PUBLIC	??_R2CharsetRecog_8859_9@icu_56@@8		; icu_56::CharsetRecog_8859_9::`RTTI Base Class Array'
PUBLIC	??_R1A@?0A@EA@CharsetRecog_8859_9@icu_56@@8	; icu_56::CharsetRecog_8859_9::`RTTI Base Class Descriptor at (0,-1,0,64)'
PUBLIC	?getName@CharsetRecog_8859_9@icu_56@@UBEPBDXZ	; icu_56::CharsetRecog_8859_9::getName
EXTRN	??_ECharsetRecog_8859_9@icu_56@@UAEPAXI@Z:PROC	; icu_56::CharsetRecog_8859_9::`vector deleting destructor'
;	COMDAT ??_R1A@?0A@EA@CharsetRecog_8859_9@icu_56@@8
rdata$r	SEGMENT
??_R1A@?0A@EA@CharsetRecog_8859_9@icu_56@@8 DD FLAT:??_R0?AVCharsetRecog_8859_9@icu_56@@@8 ; icu_56::CharsetRecog_8859_9::`RTTI Base Class Descriptor at (0,-1,0,64)'
	DD	03H
	DD	00H
	DD	0ffffffffH
	DD	00H
	DD	040H
	DD	FLAT:??_R3CharsetRecog_8859_9@icu_56@@8
rdata$r	ENDS
;	COMDAT ??_R2CharsetRecog_8859_9@icu_56@@8
rdata$r	SEGMENT
??_R2CharsetRecog_8859_9@icu_56@@8 DD FLAT:??_R1A@?0A@EA@CharsetRecog_8859_9@icu_56@@8 ; icu_56::CharsetRecog_8859_9::`RTTI Base Class Array'
	DD	FLAT:??_R1A@?0A@EA@CharsetRecog_sbcs@icu_56@@8
	DD	FLAT:??_R1A@?0A@EA@CharsetRecognizer@icu_56@@8
	DD	FLAT:??_R13?0A@EA@UMemory@icu_56@@8
rdata$r	ENDS
;	COMDAT ??_R3CharsetRecog_8859_9@icu_56@@8
rdata$r	SEGMENT
??_R3CharsetRecog_8859_9@icu_56@@8 DD 00H		; icu_56::CharsetRecog_8859_9::`RTTI Class Hierarchy Descriptor'
	DD	00H
	DD	04H
	DD	FLAT:??_R2CharsetRecog_8859_9@icu_56@@8
rdata$r	ENDS
;	COMDAT ??_R0?AVCharsetRecog_8859_9@icu_56@@@8
_DATA	SEGMENT
??_R0?AVCharsetRecog_8859_9@icu_56@@@8 DD FLAT:??_7type_info@@6B@ ; icu_56::CharsetRecog_8859_9 `RTTI Type Descriptor'
	DD	00H
	DB	'.?AVCharsetRecog_8859_9@icu_56@@', 00H
_DATA	ENDS
;	COMDAT ??_R4CharsetRecog_8859_9@icu_56@@6B@
rdata$r	SEGMENT
??_R4CharsetRecog_8859_9@icu_56@@6B@ DD 00H		; icu_56::CharsetRecog_8859_9::`RTTI Complete Object Locator'
	DD	00H
	DD	00H
	DD	FLAT:??_R0?AVCharsetRecog_8859_9@icu_56@@@8
	DD	FLAT:??_R3CharsetRecog_8859_9@icu_56@@8
rdata$r	ENDS
;	COMDAT ??_7CharsetRecog_8859_9@icu_56@@6B@
CONST	SEGMENT
??_7CharsetRecog_8859_9@icu_56@@6B@ DD FLAT:??_R4CharsetRecog_8859_9@icu_56@@6B@ ; icu_56::CharsetRecog_8859_9::`vftable'
	DD	FLAT:?getName@CharsetRecog_8859_9@icu_56@@UBEPBDXZ
	DD	FLAT:?getLanguage@CharsetRecognizer@icu_56@@UBEPBDXZ
	DD	FLAT:__purecall
	DD	FLAT:??_ECharsetRecog_8859_9@icu_56@@UAEPAXI@Z
	DD	FLAT:?match_sbcs@CharsetRecog_sbcs@icu_56@@UBEHPAVInputText@2@QBHQBE@Z
; Function compile flags: /Odtp /RTCsu /ZI
CONST	ENDS
;	COMDAT ??1CharsetRecog_8859_9@icu_56@@UAE@XZ
_TEXT	SEGMENT
_this$ = -8						; size = 4
??1CharsetRecog_8859_9@icu_56@@UAE@XZ PROC		; icu_56::CharsetRecog_8859_9::~CharsetRecog_8859_9, COMDAT
; _this$ = ecx
; Line 1074
	push	ebp
	mov	ebp, esp
	sub	esp, 204				; 000000ccH
	push	ebx
	push	esi
	push	edi
	push	ecx
	lea	edi, DWORD PTR [ebp-204]
	mov	ecx, 51					; 00000033H
	mov	eax, -858993460				; ccccccccH
	rep stosd
	pop	ecx
	mov	DWORD PTR _this$[ebp], ecx
	mov	eax, DWORD PTR _this$[ebp]
	mov	DWORD PTR [eax], OFFSET ??_7CharsetRecog_8859_9@icu_56@@6B@
; Line 1076
	mov	ecx, DWORD PTR _this$[ebp]
	call	??1CharsetRecog_sbcs@icu_56@@UAE@XZ	; icu_56::CharsetRecog_sbcs::~CharsetRecog_sbcs
	pop	edi
	pop	esi
	pop	ebx
	add	esp, 204				; 000000ccH
	cmp	ebp, esp
	call	__RTC_CheckEsp
	mov	esp, ebp
	pop	ebp
	ret	0
??1CharsetRecog_8859_9@icu_56@@UAE@XZ ENDP		; icu_56::CharsetRecog_8859_9::~CharsetRecog_8859_9
; Function compile flags: /Odtp /RTCsu /ZI
_TEXT	ENDS
;	COMDAT ??_GCharsetRecog_8859_9@icu_56@@UAEPAXI@Z
_TEXT	SEGMENT
_this$ = -8						; size = 4
___flags$ = 8						; size = 4
??_GCharsetRecog_8859_9@icu_56@@UAEPAXI@Z PROC		; icu_56::CharsetRecog_8859_9::`scalar deleting destructor', COMDAT
; _this$ = ecx
	push	ebp
	mov	ebp, esp
	sub	esp, 204				; 000000ccH
	push	ebx
	push	esi
	push	edi
	push	ecx
	lea	edi, DWORD PTR [ebp-204]
	mov	ecx, 51					; 00000033H
	mov	eax, -858993460				; ccccccccH
	rep stosd
	pop	ecx
	mov	DWORD PTR _this$[ebp], ecx
	mov	ecx, DWORD PTR _this$[ebp]
	call	??1CharsetRecog_8859_9@icu_56@@UAE@XZ	; icu_56::CharsetRecog_8859_9::~CharsetRecog_8859_9
	mov	eax, DWORD PTR ___flags$[ebp]
	and	eax, 1
	je	SHORT $LN1@scalar@16
	mov	esi, esp
	mov	eax, DWORD PTR _this$[ebp]
	push	eax
	call	DWORD PTR __imp_??3UMemory@icu_56@@SAXPAX@Z
	add	esp, 4
	cmp	esi, esp
	call	__RTC_CheckEsp
$LN1@scalar@16:
	mov	eax, DWORD PTR _this$[ebp]
	pop	edi
	pop	esi
	pop	ebx
	add	esp, 204				; 000000ccH
	cmp	ebp, esp
	call	__RTC_CheckEsp
	mov	esp, ebp
	pop	ebp
	ret	4
??_GCharsetRecog_8859_9@icu_56@@UAEPAXI@Z ENDP		; icu_56::CharsetRecog_8859_9::`scalar deleting destructor'
_TEXT	ENDS
PUBLIC	??_C@_0L@KBFAFJEC@ISO?98859?99?$AA@		; `string'
;	COMDAT ??_C@_0L@KBFAFJEC@ISO?98859?99?$AA@
CONST	SEGMENT
??_C@_0L@KBFAFJEC@ISO?98859?99?$AA@ DB 'ISO-8859-9', 00H ; `string'
; Function compile flags: /Odtp /RTCsu /ZI
CONST	ENDS
;	COMDAT ?getName@CharsetRecog_8859_9@icu_56@@UBEPBDXZ
_TEXT	SEGMENT
_this$ = -8						; size = 4
?getName@CharsetRecog_8859_9@icu_56@@UBEPBDXZ PROC	; icu_56::CharsetRecog_8859_9::getName, COMDAT
; _this$ = ecx
; Line 1079
	push	ebp
	mov	ebp, esp
	sub	esp, 204				; 000000ccH
	push	ebx
	push	esi
	push	edi
	push	ecx
	lea	edi, DWORD PTR [ebp-204]
	mov	ecx, 51					; 00000033H
	mov	eax, -858993460				; ccccccccH
	rep stosd
	pop	ecx
	mov	DWORD PTR _this$[ebp], ecx
; Line 1080
	mov	eax, OFFSET ??_C@_0L@KBFAFJEC@ISO?98859?99?$AA@
; Line 1081
	pop	edi
	pop	esi
	pop	ebx
	mov	esp, ebp
	pop	ebp
	ret	0
?getName@CharsetRecog_8859_9@icu_56@@UBEPBDXZ ENDP	; icu_56::CharsetRecog_8859_9::getName
_TEXT	ENDS
PUBLIC	??_7CharsetRecog_8859_9_tr@icu_56@@6B@		; icu_56::CharsetRecog_8859_9_tr::`vftable'
PUBLIC	??1CharsetRecog_8859_9_tr@icu_56@@UAE@XZ	; icu_56::CharsetRecog_8859_9_tr::~CharsetRecog_8859_9_tr
PUBLIC	??_R4CharsetRecog_8859_9_tr@icu_56@@6B@		; icu_56::CharsetRecog_8859_9_tr::`RTTI Complete Object Locator'
PUBLIC	??_R0?AVCharsetRecog_8859_9_tr@icu_56@@@8	; icu_56::CharsetRecog_8859_9_tr `RTTI Type Descriptor'
PUBLIC	??_R3CharsetRecog_8859_9_tr@icu_56@@8		; icu_56::CharsetRecog_8859_9_tr::`RTTI Class Hierarchy Descriptor'
PUBLIC	??_R2CharsetRecog_8859_9_tr@icu_56@@8		; icu_56::CharsetRecog_8859_9_tr::`RTTI Base Class Array'
PUBLIC	??_R1A@?0A@EA@CharsetRecog_8859_9_tr@icu_56@@8	; icu_56::CharsetRecog_8859_9_tr::`RTTI Base Class Descriptor at (0,-1,0,64)'
PUBLIC	?getLanguage@CharsetRecog_8859_9_tr@icu_56@@UBEPBDXZ ; icu_56::CharsetRecog_8859_9_tr::getLanguage
PUBLIC	?match@CharsetRecog_8859_9_tr@icu_56@@UBECPAVInputText@2@PAVCharsetMatch@2@@Z ; icu_56::CharsetRecog_8859_9_tr::match
EXTRN	??_ECharsetRecog_8859_9_tr@icu_56@@UAEPAXI@Z:PROC ; icu_56::CharsetRecog_8859_9_tr::`vector deleting destructor'
;	COMDAT ??_R1A@?0A@EA@CharsetRecog_8859_9_tr@icu_56@@8
rdata$r	SEGMENT
??_R1A@?0A@EA@CharsetRecog_8859_9_tr@icu_56@@8 DD FLAT:??_R0?AVCharsetRecog_8859_9_tr@icu_56@@@8 ; icu_56::CharsetRecog_8859_9_tr::`RTTI Base Class Descriptor at (0,-1,0,64)'
	DD	04H
	DD	00H
	DD	0ffffffffH
	DD	00H
	DD	040H
	DD	FLAT:??_R3CharsetRecog_8859_9_tr@icu_56@@8
rdata$r	ENDS
;	COMDAT ??_R2CharsetRecog_8859_9_tr@icu_56@@8
rdata$r	SEGMENT
??_R2CharsetRecog_8859_9_tr@icu_56@@8 DD FLAT:??_R1A@?0A@EA@CharsetRecog_8859_9_tr@icu_56@@8 ; icu_56::CharsetRecog_8859_9_tr::`RTTI Base Class Array'
	DD	FLAT:??_R1A@?0A@EA@CharsetRecog_8859_9@icu_56@@8
	DD	FLAT:??_R1A@?0A@EA@CharsetRecog_sbcs@icu_56@@8
	DD	FLAT:??_R1A@?0A@EA@CharsetRecognizer@icu_56@@8
	DD	FLAT:??_R13?0A@EA@UMemory@icu_56@@8
rdata$r	ENDS
;	COMDAT ??_R3CharsetRecog_8859_9_tr@icu_56@@8
rdata$r	SEGMENT
??_R3CharsetRecog_8859_9_tr@icu_56@@8 DD 00H		; icu_56::CharsetRecog_8859_9_tr::`RTTI Class Hierarchy Descriptor'
	DD	00H
	DD	05H
	DD	FLAT:??_R2CharsetRecog_8859_9_tr@icu_56@@8
rdata$r	ENDS
;	COMDAT ??_R0?AVCharsetRecog_8859_9_tr@icu_56@@@8
_DATA	SEGMENT
??_R0?AVCharsetRecog_8859_9_tr@icu_56@@@8 DD FLAT:??_7type_info@@6B@ ; icu_56::CharsetRecog_8859_9_tr `RTTI Type Descriptor'
	DD	00H
	DB	'.?AVCharsetRecog_8859_9_tr@icu_56@@', 00H
_DATA	ENDS
;	COMDAT ??_R4CharsetRecog_8859_9_tr@icu_56@@6B@
rdata$r	SEGMENT
??_R4CharsetRecog_8859_9_tr@icu_56@@6B@ DD 00H		; icu_56::CharsetRecog_8859_9_tr::`RTTI Complete Object Locator'
	DD	00H
	DD	00H
	DD	FLAT:??_R0?AVCharsetRecog_8859_9_tr@icu_56@@@8
	DD	FLAT:??_R3CharsetRecog_8859_9_tr@icu_56@@8
rdata$r	ENDS
;	COMDAT ??_7CharsetRecog_8859_9_tr@icu_56@@6B@
CONST	SEGMENT
??_7CharsetRecog_8859_9_tr@icu_56@@6B@ DD FLAT:??_R4CharsetRecog_8859_9_tr@icu_56@@6B@ ; icu_56::CharsetRecog_8859_9_tr::`vftable'
	DD	FLAT:?getName@CharsetRecog_8859_9@icu_56@@UBEPBDXZ
	DD	FLAT:?getLanguage@CharsetRecog_8859_9_tr@icu_56@@UBEPBDXZ
	DD	FLAT:?match@CharsetRecog_8859_9_tr@icu_56@@UBECPAVInputText@2@PAVCharsetMatch@2@@Z
	DD	FLAT:??_ECharsetRecog_8859_9_tr@icu_56@@UAEPAXI@Z
	DD	FLAT:?match_sbcs@CharsetRecog_sbcs@icu_56@@UBEHPAVInputText@2@QBHQBE@Z
; Function compile flags: /Odtp /RTCsu /ZI
CONST	ENDS
;	COMDAT ??1CharsetRecog_8859_9_tr@icu_56@@UAE@XZ
_TEXT	SEGMENT
_this$ = -8						; size = 4
??1CharsetRecog_8859_9_tr@icu_56@@UAE@XZ PROC		; icu_56::CharsetRecog_8859_9_tr::~CharsetRecog_8859_9_tr, COMDAT
; _this$ = ecx
; Line 1084
	push	ebp
	mov	ebp, esp
	sub	esp, 204				; 000000ccH
	push	ebx
	push	esi
	push	edi
	push	ecx
	lea	edi, DWORD PTR [ebp-204]
	mov	ecx, 51					; 00000033H
	mov	eax, -858993460				; ccccccccH
	rep stosd
	pop	ecx
	mov	DWORD PTR _this$[ebp], ecx
	mov	eax, DWORD PTR _this$[ebp]
	mov	DWORD PTR [eax], OFFSET ??_7CharsetRecog_8859_9_tr@icu_56@@6B@
; Line 1086
	mov	ecx, DWORD PTR _this$[ebp]
	call	??1CharsetRecog_8859_9@icu_56@@UAE@XZ	; icu_56::CharsetRecog_8859_9::~CharsetRecog_8859_9
	pop	edi
	pop	esi
	pop	ebx
	add	esp, 204				; 000000ccH
	cmp	ebp, esp
	call	__RTC_CheckEsp
	mov	esp, ebp
	pop	ebp
	ret	0
??1CharsetRecog_8859_9_tr@icu_56@@UAE@XZ ENDP		; icu_56::CharsetRecog_8859_9_tr::~CharsetRecog_8859_9_tr
; Function compile flags: /Odtp /RTCsu /ZI
_TEXT	ENDS
;	COMDAT ??_GCharsetRecog_8859_9_tr@icu_56@@UAEPAXI@Z
_TEXT	SEGMENT
_this$ = -8						; size = 4
___flags$ = 8						; size = 4
??_GCharsetRecog_8859_9_tr@icu_56@@UAEPAXI@Z PROC	; icu_56::CharsetRecog_8859_9_tr::`scalar deleting destructor', COMDAT
; _this$ = ecx
	push	ebp
	mov	ebp, esp
	sub	esp, 204				; 000000ccH
	push	ebx
	push	esi
	push	edi
	push	ecx
	lea	edi, DWORD PTR [ebp-204]
	mov	ecx, 51					; 00000033H
	mov	eax, -858993460				; ccccccccH
	rep stosd
	pop	ecx
	mov	DWORD PTR _this$[ebp], ecx
	mov	ecx, DWORD PTR _this$[ebp]
	call	??1CharsetRecog_8859_9_tr@icu_56@@UAE@XZ ; icu_56::CharsetRecog_8859_9_tr::~CharsetRecog_8859_9_tr
	mov	eax, DWORD PTR ___flags$[ebp]
	and	eax, 1
	je	SHORT $LN1@scalar@17
	mov	esi, esp
	mov	eax, DWORD PTR _this$[ebp]
	push	eax
	call	DWORD PTR __imp_??3UMemory@icu_56@@SAXPAX@Z
	add	esp, 4
	cmp	esi, esp
	call	__RTC_CheckEsp
$LN1@scalar@17:
	mov	eax, DWORD PTR _this$[ebp]
	pop	edi
	pop	esi
	pop	ebx
	add	esp, 204				; 000000ccH
	cmp	ebp, esp
	call	__RTC_CheckEsp
	mov	esp, ebp
	pop	ebp
	ret	4
??_GCharsetRecog_8859_9_tr@icu_56@@UAEPAXI@Z ENDP	; icu_56::CharsetRecog_8859_9_tr::`scalar deleting destructor'
_TEXT	ENDS
PUBLIC	??_C@_02EOEPPNBF@tr?$AA@			; `string'
;	COMDAT ??_C@_02EOEPPNBF@tr?$AA@
CONST	SEGMENT
??_C@_02EOEPPNBF@tr?$AA@ DB 'tr', 00H			; `string'
; Function compile flags: /Odtp /RTCsu /ZI
CONST	ENDS
;	COMDAT ?getLanguage@CharsetRecog_8859_9_tr@icu_56@@UBEPBDXZ
_TEXT	SEGMENT
_this$ = -8						; size = 4
?getLanguage@CharsetRecog_8859_9_tr@icu_56@@UBEPBDXZ PROC ; icu_56::CharsetRecog_8859_9_tr::getLanguage, COMDAT
; _this$ = ecx
; Line 1089
	push	ebp
	mov	ebp, esp
	sub	esp, 204				; 000000ccH
	push	ebx
	push	esi
	push	edi
	push	ecx
	lea	edi, DWORD PTR [ebp-204]
	mov	ecx, 51					; 00000033H
	mov	eax, -858993460				; ccccccccH
	rep stosd
	pop	ecx
	mov	DWORD PTR _this$[ebp], ecx
; Line 1090
	mov	eax, OFFSET ??_C@_02EOEPPNBF@tr?$AA@
; Line 1091
	pop	edi
	pop	esi
	pop	ebx
	mov	esp, ebp
	pop	ebp
	ret	0
?getLanguage@CharsetRecog_8859_9_tr@icu_56@@UBEPBDXZ ENDP ; icu_56::CharsetRecog_8859_9_tr::getLanguage
_TEXT	ENDS
PUBLIC	??_C@_0N@EEENPDDO@windows?91254?$AA@		; `string'
;	COMDAT ??_C@_0N@EEENPDDO@windows?91254?$AA@
CONST	SEGMENT
??_C@_0N@EEENPDDO@windows?91254?$AA@ DB 'windows-1254', 00H ; `string'
; Function compile flags: /Odtp /RTCsu /ZI
CONST	ENDS
;	COMDAT ?match@CharsetRecog_8859_9_tr@icu_56@@UBECPAVInputText@2@PAVCharsetMatch@2@@Z
_TEXT	SEGMENT
tv67 = -232						; size = 4
_confidence$ = -32					; size = 4
_name$ = -20						; size = 4
_this$ = -8						; size = 4
_textIn$ = 8						; size = 4
_results$ = 12						; size = 4
?match@CharsetRecog_8859_9_tr@icu_56@@UBECPAVInputText@2@PAVCharsetMatch@2@@Z PROC ; icu_56::CharsetRecog_8859_9_tr::match, COMDAT
; _this$ = ecx
; Line 1094
	push	ebp
	mov	ebp, esp
	sub	esp, 232				; 000000e8H
	push	ebx
	push	esi
	push	edi
	push	ecx
	lea	edi, DWORD PTR [ebp-232]
	mov	ecx, 58					; 0000003aH
	mov	eax, -858993460				; ccccccccH
	rep stosd
	pop	ecx
	mov	DWORD PTR _this$[ebp], ecx
; Line 1095
	mov	eax, DWORD PTR _textIn$[ebp]
	movsx	ecx, BYTE PTR [eax+12]
	test	ecx, ecx
	je	SHORT $LN3@match@6
	mov	DWORD PTR tv67[ebp], OFFSET ??_C@_0N@EEENPDDO@windows?91254?$AA@
	jmp	SHORT $LN4@match@6
$LN3@match@6:
	mov	DWORD PTR tv67[ebp], OFFSET ??_C@_0L@KBFAFJEC@ISO?98859?99?$AA@
$LN4@match@6:
	mov	edx, DWORD PTR tv67[ebp]
	mov	DWORD PTR _name$[ebp], edx
; Line 1096
	mov	esi, esp
	push	OFFSET _charMap_8859_9
	push	OFFSET _ngrams_8859_9_tr
	mov	eax, DWORD PTR _textIn$[ebp]
	push	eax
	mov	ecx, DWORD PTR _this$[ebp]
	mov	edx, DWORD PTR [ecx]
	mov	ecx, DWORD PTR _this$[ebp]
	mov	eax, DWORD PTR [edx+16]
	call	eax
	cmp	esi, esp
	call	__RTC_CheckEsp
	mov	DWORD PTR _confidence$[ebp], eax
; Line 1097
	push	OFFSET ??_C@_02EOEPPNBF@tr?$AA@
	mov	eax, DWORD PTR _name$[ebp]
	push	eax
	mov	ecx, DWORD PTR _confidence$[ebp]
	push	ecx
	mov	edx, DWORD PTR _this$[ebp]
	push	edx
	mov	eax, DWORD PTR _textIn$[ebp]
	push	eax
	mov	ecx, DWORD PTR _results$[ebp]
	call	?set@CharsetMatch@icu_56@@QAEXPAVInputText@2@PBVCharsetRecognizer@2@HPBD2@Z ; icu_56::CharsetMatch::set
; Line 1098
	cmp	DWORD PTR _confidence$[ebp], 0
	setg	al
; Line 1099
	pop	edi
	pop	esi
	pop	ebx
	add	esp, 232				; 000000e8H
	cmp	ebp, esp
	call	__RTC_CheckEsp
	mov	esp, ebp
	pop	ebp
	ret	8
?match@CharsetRecog_8859_9_tr@icu_56@@UBECPAVInputText@2@PAVCharsetMatch@2@@Z ENDP ; icu_56::CharsetRecog_8859_9_tr::match
_TEXT	ENDS
PUBLIC	??_7CharsetRecog_windows_1256@icu_56@@6B@	; icu_56::CharsetRecog_windows_1256::`vftable'
PUBLIC	??1CharsetRecog_windows_1256@icu_56@@UAE@XZ	; icu_56::CharsetRecog_windows_1256::~CharsetRecog_windows_1256
PUBLIC	??_R4CharsetRecog_windows_1256@icu_56@@6B@	; icu_56::CharsetRecog_windows_1256::`RTTI Complete Object Locator'
PUBLIC	??_R0?AVCharsetRecog_windows_1256@icu_56@@@8	; icu_56::CharsetRecog_windows_1256 `RTTI Type Descriptor'
PUBLIC	??_R3CharsetRecog_windows_1256@icu_56@@8	; icu_56::CharsetRecog_windows_1256::`RTTI Class Hierarchy Descriptor'
PUBLIC	??_R2CharsetRecog_windows_1256@icu_56@@8	; icu_56::CharsetRecog_windows_1256::`RTTI Base Class Array'
PUBLIC	??_R1A@?0A@EA@CharsetRecog_windows_1256@icu_56@@8 ; icu_56::CharsetRecog_windows_1256::`RTTI Base Class Descriptor at (0,-1,0,64)'
PUBLIC	?getName@CharsetRecog_windows_1256@icu_56@@UBEPBDXZ ; icu_56::CharsetRecog_windows_1256::getName
PUBLIC	?getLanguage@CharsetRecog_windows_1256@icu_56@@UBEPBDXZ ; icu_56::CharsetRecog_windows_1256::getLanguage
PUBLIC	?match@CharsetRecog_windows_1256@icu_56@@UBECPAVInputText@2@PAVCharsetMatch@2@@Z ; icu_56::CharsetRecog_windows_1256::match
EXTRN	??_ECharsetRecog_windows_1256@icu_56@@UAEPAXI@Z:PROC ; icu_56::CharsetRecog_windows_1256::`vector deleting destructor'
;	COMDAT ??_R1A@?0A@EA@CharsetRecog_windows_1256@icu_56@@8
rdata$r	SEGMENT
??_R1A@?0A@EA@CharsetRecog_windows_1256@icu_56@@8 DD FLAT:??_R0?AVCharsetRecog_windows_1256@icu_56@@@8 ; icu_56::CharsetRecog_windows_1256::`RTTI Base Class Descriptor at (0,-1,0,64)'
	DD	03H
	DD	00H
	DD	0ffffffffH
	DD	00H
	DD	040H
	DD	FLAT:??_R3CharsetRecog_windows_1256@icu_56@@8
rdata$r	ENDS
;	COMDAT ??_R2CharsetRecog_windows_1256@icu_56@@8
rdata$r	SEGMENT
??_R2CharsetRecog_windows_1256@icu_56@@8 DD FLAT:??_R1A@?0A@EA@CharsetRecog_windows_1256@icu_56@@8 ; icu_56::CharsetRecog_windows_1256::`RTTI Base Class Array'
	DD	FLAT:??_R1A@?0A@EA@CharsetRecog_sbcs@icu_56@@8
	DD	FLAT:??_R1A@?0A@EA@CharsetRecognizer@icu_56@@8
	DD	FLAT:??_R13?0A@EA@UMemory@icu_56@@8
rdata$r	ENDS
;	COMDAT ??_R3CharsetRecog_windows_1256@icu_56@@8
rdata$r	SEGMENT
??_R3CharsetRecog_windows_1256@icu_56@@8 DD 00H		; icu_56::CharsetRecog_windows_1256::`RTTI Class Hierarchy Descriptor'
	DD	00H
	DD	04H
	DD	FLAT:??_R2CharsetRecog_windows_1256@icu_56@@8
rdata$r	ENDS
;	COMDAT ??_R0?AVCharsetRecog_windows_1256@icu_56@@@8
_DATA	SEGMENT
??_R0?AVCharsetRecog_windows_1256@icu_56@@@8 DD FLAT:??_7type_info@@6B@ ; icu_56::CharsetRecog_windows_1256 `RTTI Type Descriptor'
	DD	00H
	DB	'.?AVCharsetRecog_windows_1256@icu_56@@', 00H
_DATA	ENDS
;	COMDAT ??_R4CharsetRecog_windows_1256@icu_56@@6B@
rdata$r	SEGMENT
??_R4CharsetRecog_windows_1256@icu_56@@6B@ DD 00H	; icu_56::CharsetRecog_windows_1256::`RTTI Complete Object Locator'
	DD	00H
	DD	00H
	DD	FLAT:??_R0?AVCharsetRecog_windows_1256@icu_56@@@8
	DD	FLAT:??_R3CharsetRecog_windows_1256@icu_56@@8
rdata$r	ENDS
;	COMDAT ??_7CharsetRecog_windows_1256@icu_56@@6B@
CONST	SEGMENT
??_7CharsetRecog_windows_1256@icu_56@@6B@ DD FLAT:??_R4CharsetRecog_windows_1256@icu_56@@6B@ ; icu_56::CharsetRecog_windows_1256::`vftable'
	DD	FLAT:?getName@CharsetRecog_windows_1256@icu_56@@UBEPBDXZ
	DD	FLAT:?getLanguage@CharsetRecog_windows_1256@icu_56@@UBEPBDXZ
	DD	FLAT:?match@CharsetRecog_windows_1256@icu_56@@UBECPAVInputText@2@PAVCharsetMatch@2@@Z
	DD	FLAT:??_ECharsetRecog_windows_1256@icu_56@@UAEPAXI@Z
	DD	FLAT:?match_sbcs@CharsetRecog_sbcs@icu_56@@UBEHPAVInputText@2@QBHQBE@Z
; Function compile flags: /Odtp /RTCsu /ZI
CONST	ENDS
;	COMDAT ??1CharsetRecog_windows_1256@icu_56@@UAE@XZ
_TEXT	SEGMENT
_this$ = -8						; size = 4
??1CharsetRecog_windows_1256@icu_56@@UAE@XZ PROC	; icu_56::CharsetRecog_windows_1256::~CharsetRecog_windows_1256, COMDAT
; _this$ = ecx
; Line 1102
	push	ebp
	mov	ebp, esp
	sub	esp, 204				; 000000ccH
	push	ebx
	push	esi
	push	edi
	push	ecx
	lea	edi, DWORD PTR [ebp-204]
	mov	ecx, 51					; 00000033H
	mov	eax, -858993460				; ccccccccH
	rep stosd
	pop	ecx
	mov	DWORD PTR _this$[ebp], ecx
	mov	eax, DWORD PTR _this$[ebp]
	mov	DWORD PTR [eax], OFFSET ??_7CharsetRecog_windows_1256@icu_56@@6B@
; Line 1104
	mov	ecx, DWORD PTR _this$[ebp]
	call	??1CharsetRecog_sbcs@icu_56@@UAE@XZ	; icu_56::CharsetRecog_sbcs::~CharsetRecog_sbcs
	pop	edi
	pop	esi
	pop	ebx
	add	esp, 204				; 000000ccH
	cmp	ebp, esp
	call	__RTC_CheckEsp
	mov	esp, ebp
	pop	ebp
	ret	0
??1CharsetRecog_windows_1256@icu_56@@UAE@XZ ENDP	; icu_56::CharsetRecog_windows_1256::~CharsetRecog_windows_1256
; Function compile flags: /Odtp /RTCsu /ZI
_TEXT	ENDS
;	COMDAT ??_GCharsetRecog_windows_1256@icu_56@@UAEPAXI@Z
_TEXT	SEGMENT
_this$ = -8						; size = 4
___flags$ = 8						; size = 4
??_GCharsetRecog_windows_1256@icu_56@@UAEPAXI@Z PROC	; icu_56::CharsetRecog_windows_1256::`scalar deleting destructor', COMDAT
; _this$ = ecx
	push	ebp
	mov	ebp, esp
	sub	esp, 204				; 000000ccH
	push	ebx
	push	esi
	push	edi
	push	ecx
	lea	edi, DWORD PTR [ebp-204]
	mov	ecx, 51					; 00000033H
	mov	eax, -858993460				; ccccccccH
	rep stosd
	pop	ecx
	mov	DWORD PTR _this$[ebp], ecx
	mov	ecx, DWORD PTR _this$[ebp]
	call	??1CharsetRecog_windows_1256@icu_56@@UAE@XZ ; icu_56::CharsetRecog_windows_1256::~CharsetRecog_windows_1256
	mov	eax, DWORD PTR ___flags$[ebp]
	and	eax, 1
	je	SHORT $LN1@scalar@18
	mov	esi, esp
	mov	eax, DWORD PTR _this$[ebp]
	push	eax
	call	DWORD PTR __imp_??3UMemory@icu_56@@SAXPAX@Z
	add	esp, 4
	cmp	esi, esp
	call	__RTC_CheckEsp
$LN1@scalar@18:
	mov	eax, DWORD PTR _this$[ebp]
	pop	edi
	pop	esi
	pop	ebx
	add	esp, 204				; 000000ccH
	cmp	ebp, esp
	call	__RTC_CheckEsp
	mov	esp, ebp
	pop	ebp
	ret	4
??_GCharsetRecog_windows_1256@icu_56@@UAEPAXI@Z ENDP	; icu_56::CharsetRecog_windows_1256::`scalar deleting destructor'
_TEXT	ENDS
PUBLIC	??_C@_0N@HGHLJBLM@windows?91256?$AA@		; `string'
;	COMDAT ??_C@_0N@HGHLJBLM@windows?91256?$AA@
CONST	SEGMENT
??_C@_0N@HGHLJBLM@windows?91256?$AA@ DB 'windows-1256', 00H ; `string'
; Function compile flags: /Odtp /RTCsu /ZI
CONST	ENDS
;	COMDAT ?getName@CharsetRecog_windows_1256@icu_56@@UBEPBDXZ
_TEXT	SEGMENT
_this$ = -8						; size = 4
?getName@CharsetRecog_windows_1256@icu_56@@UBEPBDXZ PROC ; icu_56::CharsetRecog_windows_1256::getName, COMDAT
; _this$ = ecx
; Line 1107
	push	ebp
	mov	ebp, esp
	sub	esp, 204				; 000000ccH
	push	ebx
	push	esi
	push	edi
	push	ecx
	lea	edi, DWORD PTR [ebp-204]
	mov	ecx, 51					; 00000033H
	mov	eax, -858993460				; ccccccccH
	rep stosd
	pop	ecx
	mov	DWORD PTR _this$[ebp], ecx
; Line 1108
	mov	eax, OFFSET ??_C@_0N@HGHLJBLM@windows?91256?$AA@
; Line 1109
	pop	edi
	pop	esi
	pop	ebx
	mov	esp, ebp
	pop	ebp
	ret	0
?getName@CharsetRecog_windows_1256@icu_56@@UBEPBDXZ ENDP ; icu_56::CharsetRecog_windows_1256::getName
; Function compile flags: /Odtp /RTCsu /ZI
_TEXT	ENDS
;	COMDAT ?getLanguage@CharsetRecog_windows_1256@icu_56@@UBEPBDXZ
_TEXT	SEGMENT
_this$ = -8						; size = 4
?getLanguage@CharsetRecog_windows_1256@icu_56@@UBEPBDXZ PROC ; icu_56::CharsetRecog_windows_1256::getLanguage, COMDAT
; _this$ = ecx
; Line 1112
	push	ebp
	mov	ebp, esp
	sub	esp, 204				; 000000ccH
	push	ebx
	push	esi
	push	edi
	push	ecx
	lea	edi, DWORD PTR [ebp-204]
	mov	ecx, 51					; 00000033H
	mov	eax, -858993460				; ccccccccH
	rep stosd
	pop	ecx
	mov	DWORD PTR _this$[ebp], ecx
; Line 1113
	mov	eax, OFFSET ??_C@_02FEKCJMIO@ar?$AA@
; Line 1114
	pop	edi
	pop	esi
	pop	ebx
	mov	esp, ebp
	pop	ebp
	ret	0
?getLanguage@CharsetRecog_windows_1256@icu_56@@UBEPBDXZ ENDP ; icu_56::CharsetRecog_windows_1256::getLanguage
; Function compile flags: /Odtp /RTCsu /ZI
_TEXT	ENDS
;	COMDAT ?match@CharsetRecog_windows_1256@icu_56@@UBECPAVInputText@2@PAVCharsetMatch@2@@Z
_TEXT	SEGMENT
_confidence$ = -20					; size = 4
_this$ = -8						; size = 4
_textIn$ = 8						; size = 4
_results$ = 12						; size = 4
?match@CharsetRecog_windows_1256@icu_56@@UBECPAVInputText@2@PAVCharsetMatch@2@@Z PROC ; icu_56::CharsetRecog_windows_1256::match, COMDAT
; _this$ = ecx
; Line 1117
	push	ebp
	mov	ebp, esp
	sub	esp, 216				; 000000d8H
	push	ebx
	push	esi
	push	edi
	push	ecx
	lea	edi, DWORD PTR [ebp-216]
	mov	ecx, 54					; 00000036H
	mov	eax, -858993460				; ccccccccH
	rep stosd
	pop	ecx
	mov	DWORD PTR _this$[ebp], ecx
; Line 1118
	mov	esi, esp
	push	OFFSET _charMap_windows_1256
	push	OFFSET _ngrams_windows_1256
	mov	eax, DWORD PTR _textIn$[ebp]
	push	eax
	mov	ecx, DWORD PTR _this$[ebp]
	mov	edx, DWORD PTR [ecx]
	mov	ecx, DWORD PTR _this$[ebp]
	mov	eax, DWORD PTR [edx+16]
	call	eax
	cmp	esi, esp
	call	__RTC_CheckEsp
	mov	DWORD PTR _confidence$[ebp], eax
; Line 1119
	push	0
	push	0
	mov	eax, DWORD PTR _confidence$[ebp]
	push	eax
	mov	ecx, DWORD PTR _this$[ebp]
	push	ecx
	mov	edx, DWORD PTR _textIn$[ebp]
	push	edx
	mov	ecx, DWORD PTR _results$[ebp]
	call	?set@CharsetMatch@icu_56@@QAEXPAVInputText@2@PBVCharsetRecognizer@2@HPBD2@Z ; icu_56::CharsetMatch::set
; Line 1120
	cmp	DWORD PTR _confidence$[ebp], 0
	setg	al
; Line 1121
	pop	edi
	pop	esi
	pop	ebx
	add	esp, 216				; 000000d8H
	cmp	ebp, esp
	call	__RTC_CheckEsp
	mov	esp, ebp
	pop	ebp
	ret	8
?match@CharsetRecog_windows_1256@icu_56@@UBECPAVInputText@2@PAVCharsetMatch@2@@Z ENDP ; icu_56::CharsetRecog_windows_1256::match
_TEXT	ENDS
PUBLIC	??_7CharsetRecog_windows_1251@icu_56@@6B@	; icu_56::CharsetRecog_windows_1251::`vftable'
PUBLIC	??1CharsetRecog_windows_1251@icu_56@@UAE@XZ	; icu_56::CharsetRecog_windows_1251::~CharsetRecog_windows_1251
PUBLIC	??_R4CharsetRecog_windows_1251@icu_56@@6B@	; icu_56::CharsetRecog_windows_1251::`RTTI Complete Object Locator'
PUBLIC	??_R0?AVCharsetRecog_windows_1251@icu_56@@@8	; icu_56::CharsetRecog_windows_1251 `RTTI Type Descriptor'
PUBLIC	??_R3CharsetRecog_windows_1251@icu_56@@8	; icu_56::CharsetRecog_windows_1251::`RTTI Class Hierarchy Descriptor'
PUBLIC	??_R2CharsetRecog_windows_1251@icu_56@@8	; icu_56::CharsetRecog_windows_1251::`RTTI Base Class Array'
PUBLIC	??_R1A@?0A@EA@CharsetRecog_windows_1251@icu_56@@8 ; icu_56::CharsetRecog_windows_1251::`RTTI Base Class Descriptor at (0,-1,0,64)'
PUBLIC	?getName@CharsetRecog_windows_1251@icu_56@@UBEPBDXZ ; icu_56::CharsetRecog_windows_1251::getName
PUBLIC	?getLanguage@CharsetRecog_windows_1251@icu_56@@UBEPBDXZ ; icu_56::CharsetRecog_windows_1251::getLanguage
PUBLIC	?match@CharsetRecog_windows_1251@icu_56@@UBECPAVInputText@2@PAVCharsetMatch@2@@Z ; icu_56::CharsetRecog_windows_1251::match
EXTRN	??_ECharsetRecog_windows_1251@icu_56@@UAEPAXI@Z:PROC ; icu_56::CharsetRecog_windows_1251::`vector deleting destructor'
;	COMDAT ??_R1A@?0A@EA@CharsetRecog_windows_1251@icu_56@@8
rdata$r	SEGMENT
??_R1A@?0A@EA@CharsetRecog_windows_1251@icu_56@@8 DD FLAT:??_R0?AVCharsetRecog_windows_1251@icu_56@@@8 ; icu_56::CharsetRecog_windows_1251::`RTTI Base Class Descriptor at (0,-1,0,64)'
	DD	03H
	DD	00H
	DD	0ffffffffH
	DD	00H
	DD	040H
	DD	FLAT:??_R3CharsetRecog_windows_1251@icu_56@@8
rdata$r	ENDS
;	COMDAT ??_R2CharsetRecog_windows_1251@icu_56@@8
rdata$r	SEGMENT
??_R2CharsetRecog_windows_1251@icu_56@@8 DD FLAT:??_R1A@?0A@EA@CharsetRecog_windows_1251@icu_56@@8 ; icu_56::CharsetRecog_windows_1251::`RTTI Base Class Array'
	DD	FLAT:??_R1A@?0A@EA@CharsetRecog_sbcs@icu_56@@8
	DD	FLAT:??_R1A@?0A@EA@CharsetRecognizer@icu_56@@8
	DD	FLAT:??_R13?0A@EA@UMemory@icu_56@@8
rdata$r	ENDS
;	COMDAT ??_R3CharsetRecog_windows_1251@icu_56@@8
rdata$r	SEGMENT
??_R3CharsetRecog_windows_1251@icu_56@@8 DD 00H		; icu_56::CharsetRecog_windows_1251::`RTTI Class Hierarchy Descriptor'
	DD	00H
	DD	04H
	DD	FLAT:??_R2CharsetRecog_windows_1251@icu_56@@8
rdata$r	ENDS
;	COMDAT ??_R0?AVCharsetRecog_windows_1251@icu_56@@@8
_DATA	SEGMENT
??_R0?AVCharsetRecog_windows_1251@icu_56@@@8 DD FLAT:??_7type_info@@6B@ ; icu_56::CharsetRecog_windows_1251 `RTTI Type Descriptor'
	DD	00H
	DB	'.?AVCharsetRecog_windows_1251@icu_56@@', 00H
_DATA	ENDS
;	COMDAT ??_R4CharsetRecog_windows_1251@icu_56@@6B@
rdata$r	SEGMENT
??_R4CharsetRecog_windows_1251@icu_56@@6B@ DD 00H	; icu_56::CharsetRecog_windows_1251::`RTTI Complete Object Locator'
	DD	00H
	DD	00H
	DD	FLAT:??_R0?AVCharsetRecog_windows_1251@icu_56@@@8
	DD	FLAT:??_R3CharsetRecog_windows_1251@icu_56@@8
rdata$r	ENDS
;	COMDAT ??_7CharsetRecog_windows_1251@icu_56@@6B@
CONST	SEGMENT
??_7CharsetRecog_windows_1251@icu_56@@6B@ DD FLAT:??_R4CharsetRecog_windows_1251@icu_56@@6B@ ; icu_56::CharsetRecog_windows_1251::`vftable'
	DD	FLAT:?getName@CharsetRecog_windows_1251@icu_56@@UBEPBDXZ
	DD	FLAT:?getLanguage@CharsetRecog_windows_1251@icu_56@@UBEPBDXZ
	DD	FLAT:?match@CharsetRecog_windows_1251@icu_56@@UBECPAVInputText@2@PAVCharsetMatch@2@@Z
	DD	FLAT:??_ECharsetRecog_windows_1251@icu_56@@UAEPAXI@Z
	DD	FLAT:?match_sbcs@CharsetRecog_sbcs@icu_56@@UBEHPAVInputText@2@QBHQBE@Z
; Function compile flags: /Odtp /RTCsu /ZI
CONST	ENDS
;	COMDAT ??1CharsetRecog_windows_1251@icu_56@@UAE@XZ
_TEXT	SEGMENT
_this$ = -8						; size = 4
??1CharsetRecog_windows_1251@icu_56@@UAE@XZ PROC	; icu_56::CharsetRecog_windows_1251::~CharsetRecog_windows_1251, COMDAT
; _this$ = ecx
; Line 1124
	push	ebp
	mov	ebp, esp
	sub	esp, 204				; 000000ccH
	push	ebx
	push	esi
	push	edi
	push	ecx
	lea	edi, DWORD PTR [ebp-204]
	mov	ecx, 51					; 00000033H
	mov	eax, -858993460				; ccccccccH
	rep stosd
	pop	ecx
	mov	DWORD PTR _this$[ebp], ecx
	mov	eax, DWORD PTR _this$[ebp]
	mov	DWORD PTR [eax], OFFSET ??_7CharsetRecog_windows_1251@icu_56@@6B@
; Line 1126
	mov	ecx, DWORD PTR _this$[ebp]
	call	??1CharsetRecog_sbcs@icu_56@@UAE@XZ	; icu_56::CharsetRecog_sbcs::~CharsetRecog_sbcs
	pop	edi
	pop	esi
	pop	ebx
	add	esp, 204				; 000000ccH
	cmp	ebp, esp
	call	__RTC_CheckEsp
	mov	esp, ebp
	pop	ebp
	ret	0
??1CharsetRecog_windows_1251@icu_56@@UAE@XZ ENDP	; icu_56::CharsetRecog_windows_1251::~CharsetRecog_windows_1251
; Function compile flags: /Odtp /RTCsu /ZI
_TEXT	ENDS
;	COMDAT ??_GCharsetRecog_windows_1251@icu_56@@UAEPAXI@Z
_TEXT	SEGMENT
_this$ = -8						; size = 4
___flags$ = 8						; size = 4
??_GCharsetRecog_windows_1251@icu_56@@UAEPAXI@Z PROC	; icu_56::CharsetRecog_windows_1251::`scalar deleting destructor', COMDAT
; _this$ = ecx
	push	ebp
	mov	ebp, esp
	sub	esp, 204				; 000000ccH
	push	ebx
	push	esi
	push	edi
	push	ecx
	lea	edi, DWORD PTR [ebp-204]
	mov	ecx, 51					; 00000033H
	mov	eax, -858993460				; ccccccccH
	rep stosd
	pop	ecx
	mov	DWORD PTR _this$[ebp], ecx
	mov	ecx, DWORD PTR _this$[ebp]
	call	??1CharsetRecog_windows_1251@icu_56@@UAE@XZ ; icu_56::CharsetRecog_windows_1251::~CharsetRecog_windows_1251
	mov	eax, DWORD PTR ___flags$[ebp]
	and	eax, 1
	je	SHORT $LN1@scalar@19
	mov	esi, esp
	mov	eax, DWORD PTR _this$[ebp]
	push	eax
	call	DWORD PTR __imp_??3UMemory@icu_56@@SAXPAX@Z
	add	esp, 4
	cmp	esi, esp
	call	__RTC_CheckEsp
$LN1@scalar@19:
	mov	eax, DWORD PTR _this$[ebp]
	pop	edi
	pop	esi
	pop	ebx
	add	esp, 204				; 000000ccH
	cmp	ebp, esp
	call	__RTC_CheckEsp
	mov	esp, ebp
	pop	ebp
	ret	4
??_GCharsetRecog_windows_1251@icu_56@@UAEPAXI@Z ENDP	; icu_56::CharsetRecog_windows_1251::`scalar deleting destructor'
_TEXT	ENDS
PUBLIC	??_C@_0N@DJDKAHHL@windows?91251?$AA@		; `string'
;	COMDAT ??_C@_0N@DJDKAHHL@windows?91251?$AA@
CONST	SEGMENT
??_C@_0N@DJDKAHHL@windows?91251?$AA@ DB 'windows-1251', 00H ; `string'
; Function compile flags: /Odtp /RTCsu /ZI
CONST	ENDS
;	COMDAT ?getName@CharsetRecog_windows_1251@icu_56@@UBEPBDXZ
_TEXT	SEGMENT
_this$ = -8						; size = 4
?getName@CharsetRecog_windows_1251@icu_56@@UBEPBDXZ PROC ; icu_56::CharsetRecog_windows_1251::getName, COMDAT
; _this$ = ecx
; Line 1129
	push	ebp
	mov	ebp, esp
	sub	esp, 204				; 000000ccH
	push	ebx
	push	esi
	push	edi
	push	ecx
	lea	edi, DWORD PTR [ebp-204]
	mov	ecx, 51					; 00000033H
	mov	eax, -858993460				; ccccccccH
	rep stosd
	pop	ecx
	mov	DWORD PTR _this$[ebp], ecx
; Line 1130
	mov	eax, OFFSET ??_C@_0N@DJDKAHHL@windows?91251?$AA@
; Line 1131
	pop	edi
	pop	esi
	pop	ebx
	mov	esp, ebp
	pop	ebp
	ret	0
?getName@CharsetRecog_windows_1251@icu_56@@UBEPBDXZ ENDP ; icu_56::CharsetRecog_windows_1251::getName
; Function compile flags: /Odtp /RTCsu /ZI
_TEXT	ENDS
;	COMDAT ?getLanguage@CharsetRecog_windows_1251@icu_56@@UBEPBDXZ
_TEXT	SEGMENT
_this$ = -8						; size = 4
?getLanguage@CharsetRecog_windows_1251@icu_56@@UBEPBDXZ PROC ; icu_56::CharsetRecog_windows_1251::getLanguage, COMDAT
; _this$ = ecx
; Line 1134
	push	ebp
	mov	ebp, esp
	sub	esp, 204				; 000000ccH
	push	ebx
	push	esi
	push	edi
	push	ecx
	lea	edi, DWORD PTR [ebp-204]
	mov	ecx, 51					; 00000033H
	mov	eax, -858993460				; ccccccccH
	rep stosd
	pop	ecx
	mov	DWORD PTR _this$[ebp], ecx
; Line 1135
	mov	eax, OFFSET ??_C@_02FIDBHGA@ru?$AA@
; Line 1136
	pop	edi
	pop	esi
	pop	ebx
	mov	esp, ebp
	pop	ebp
	ret	0
?getLanguage@CharsetRecog_windows_1251@icu_56@@UBEPBDXZ ENDP ; icu_56::CharsetRecog_windows_1251::getLanguage
; Function compile flags: /Odtp /RTCsu /ZI
_TEXT	ENDS
;	COMDAT ?match@CharsetRecog_windows_1251@icu_56@@UBECPAVInputText@2@PAVCharsetMatch@2@@Z
_TEXT	SEGMENT
_confidence$ = -20					; size = 4
_this$ = -8						; size = 4
_textIn$ = 8						; size = 4
_results$ = 12						; size = 4
?match@CharsetRecog_windows_1251@icu_56@@UBECPAVInputText@2@PAVCharsetMatch@2@@Z PROC ; icu_56::CharsetRecog_windows_1251::match, COMDAT
; _this$ = ecx
; Line 1139
	push	ebp
	mov	ebp, esp
	sub	esp, 216				; 000000d8H
	push	ebx
	push	esi
	push	edi
	push	ecx
	lea	edi, DWORD PTR [ebp-216]
	mov	ecx, 54					; 00000036H
	mov	eax, -858993460				; ccccccccH
	rep stosd
	pop	ecx
	mov	DWORD PTR _this$[ebp], ecx
; Line 1140
	mov	esi, esp
	push	OFFSET _charMap_windows_1251
	push	OFFSET _ngrams_windows_1251
	mov	eax, DWORD PTR _textIn$[ebp]
	push	eax
	mov	ecx, DWORD PTR _this$[ebp]
	mov	edx, DWORD PTR [ecx]
	mov	ecx, DWORD PTR _this$[ebp]
	mov	eax, DWORD PTR [edx+16]
	call	eax
	cmp	esi, esp
	call	__RTC_CheckEsp
	mov	DWORD PTR _confidence$[ebp], eax
; Line 1141
	push	0
	push	0
	mov	eax, DWORD PTR _confidence$[ebp]
	push	eax
	mov	ecx, DWORD PTR _this$[ebp]
	push	ecx
	mov	edx, DWORD PTR _textIn$[ebp]
	push	edx
	mov	ecx, DWORD PTR _results$[ebp]
	call	?set@CharsetMatch@icu_56@@QAEXPAVInputText@2@PBVCharsetRecognizer@2@HPBD2@Z ; icu_56::CharsetMatch::set
; Line 1142
	cmp	DWORD PTR _confidence$[ebp], 0
	setg	al
; Line 1143
	pop	edi
	pop	esi
	pop	ebx
	add	esp, 216				; 000000d8H
	cmp	ebp, esp
	call	__RTC_CheckEsp
	mov	esp, ebp
	pop	ebp
	ret	8
?match@CharsetRecog_windows_1251@icu_56@@UBECPAVInputText@2@PAVCharsetMatch@2@@Z ENDP ; icu_56::CharsetRecog_windows_1251::match
_TEXT	ENDS
PUBLIC	??_7CharsetRecog_KOI8_R@icu_56@@6B@		; icu_56::CharsetRecog_KOI8_R::`vftable'
PUBLIC	??1CharsetRecog_KOI8_R@icu_56@@UAE@XZ		; icu_56::CharsetRecog_KOI8_R::~CharsetRecog_KOI8_R
PUBLIC	??_R4CharsetRecog_KOI8_R@icu_56@@6B@		; icu_56::CharsetRecog_KOI8_R::`RTTI Complete Object Locator'
PUBLIC	??_R0?AVCharsetRecog_KOI8_R@icu_56@@@8		; icu_56::CharsetRecog_KOI8_R `RTTI Type Descriptor'
PUBLIC	??_R3CharsetRecog_KOI8_R@icu_56@@8		; icu_56::CharsetRecog_KOI8_R::`RTTI Class Hierarchy Descriptor'
PUBLIC	??_R2CharsetRecog_KOI8_R@icu_56@@8		; icu_56::CharsetRecog_KOI8_R::`RTTI Base Class Array'
PUBLIC	??_R1A@?0A@EA@CharsetRecog_KOI8_R@icu_56@@8	; icu_56::CharsetRecog_KOI8_R::`RTTI Base Class Descriptor at (0,-1,0,64)'
PUBLIC	?getName@CharsetRecog_KOI8_R@icu_56@@UBEPBDXZ	; icu_56::CharsetRecog_KOI8_R::getName
PUBLIC	?getLanguage@CharsetRecog_KOI8_R@icu_56@@UBEPBDXZ ; icu_56::CharsetRecog_KOI8_R::getLanguage
PUBLIC	?match@CharsetRecog_KOI8_R@icu_56@@UBECPAVInputText@2@PAVCharsetMatch@2@@Z ; icu_56::CharsetRecog_KOI8_R::match
EXTRN	??_ECharsetRecog_KOI8_R@icu_56@@UAEPAXI@Z:PROC	; icu_56::CharsetRecog_KOI8_R::`vector deleting destructor'
;	COMDAT ??_R1A@?0A@EA@CharsetRecog_KOI8_R@icu_56@@8
rdata$r	SEGMENT
??_R1A@?0A@EA@CharsetRecog_KOI8_R@icu_56@@8 DD FLAT:??_R0?AVCharsetRecog_KOI8_R@icu_56@@@8 ; icu_56::CharsetRecog_KOI8_R::`RTTI Base Class Descriptor at (0,-1,0,64)'
	DD	03H
	DD	00H
	DD	0ffffffffH
	DD	00H
	DD	040H
	DD	FLAT:??_R3CharsetRecog_KOI8_R@icu_56@@8
rdata$r	ENDS
;	COMDAT ??_R2CharsetRecog_KOI8_R@icu_56@@8
rdata$r	SEGMENT
??_R2CharsetRecog_KOI8_R@icu_56@@8 DD FLAT:??_R1A@?0A@EA@CharsetRecog_KOI8_R@icu_56@@8 ; icu_56::CharsetRecog_KOI8_R::`RTTI Base Class Array'
	DD	FLAT:??_R1A@?0A@EA@CharsetRecog_sbcs@icu_56@@8
	DD	FLAT:??_R1A@?0A@EA@CharsetRecognizer@icu_56@@8
	DD	FLAT:??_R13?0A@EA@UMemory@icu_56@@8
rdata$r	ENDS
;	COMDAT ??_R3CharsetRecog_KOI8_R@icu_56@@8
rdata$r	SEGMENT
??_R3CharsetRecog_KOI8_R@icu_56@@8 DD 00H		; icu_56::CharsetRecog_KOI8_R::`RTTI Class Hierarchy Descriptor'
	DD	00H
	DD	04H
	DD	FLAT:??_R2CharsetRecog_KOI8_R@icu_56@@8
rdata$r	ENDS
;	COMDAT ??_R0?AVCharsetRecog_KOI8_R@icu_56@@@8
_DATA	SEGMENT
??_R0?AVCharsetRecog_KOI8_R@icu_56@@@8 DD FLAT:??_7type_info@@6B@ ; icu_56::CharsetRecog_KOI8_R `RTTI Type Descriptor'
	DD	00H
	DB	'.?AVCharsetRecog_KOI8_R@icu_56@@', 00H
_DATA	ENDS
;	COMDAT ??_R4CharsetRecog_KOI8_R@icu_56@@6B@
rdata$r	SEGMENT
??_R4CharsetRecog_KOI8_R@icu_56@@6B@ DD 00H		; icu_56::CharsetRecog_KOI8_R::`RTTI Complete Object Locator'
	DD	00H
	DD	00H
	DD	FLAT:??_R0?AVCharsetRecog_KOI8_R@icu_56@@@8
	DD	FLAT:??_R3CharsetRecog_KOI8_R@icu_56@@8
rdata$r	ENDS
;	COMDAT ??_7CharsetRecog_KOI8_R@icu_56@@6B@
CONST	SEGMENT
??_7CharsetRecog_KOI8_R@icu_56@@6B@ DD FLAT:??_R4CharsetRecog_KOI8_R@icu_56@@6B@ ; icu_56::CharsetRecog_KOI8_R::`vftable'
	DD	FLAT:?getName@CharsetRecog_KOI8_R@icu_56@@UBEPBDXZ
	DD	FLAT:?getLanguage@CharsetRecog_KOI8_R@icu_56@@UBEPBDXZ
	DD	FLAT:?match@CharsetRecog_KOI8_R@icu_56@@UBECPAVInputText@2@PAVCharsetMatch@2@@Z
	DD	FLAT:??_ECharsetRecog_KOI8_R@icu_56@@UAEPAXI@Z
	DD	FLAT:?match_sbcs@CharsetRecog_sbcs@icu_56@@UBEHPAVInputText@2@QBHQBE@Z
; Function compile flags: /Odtp /RTCsu /ZI
CONST	ENDS
;	COMDAT ??1CharsetRecog_KOI8_R@icu_56@@UAE@XZ
_TEXT	SEGMENT
_this$ = -8						; size = 4
??1CharsetRecog_KOI8_R@icu_56@@UAE@XZ PROC		; icu_56::CharsetRecog_KOI8_R::~CharsetRecog_KOI8_R, COMDAT
; _this$ = ecx
; Line 1146
	push	ebp
	mov	ebp, esp
	sub	esp, 204				; 000000ccH
	push	ebx
	push	esi
	push	edi
	push	ecx
	lea	edi, DWORD PTR [ebp-204]
	mov	ecx, 51					; 00000033H
	mov	eax, -858993460				; ccccccccH
	rep stosd
	pop	ecx
	mov	DWORD PTR _this$[ebp], ecx
	mov	eax, DWORD PTR _this$[ebp]
	mov	DWORD PTR [eax], OFFSET ??_7CharsetRecog_KOI8_R@icu_56@@6B@
; Line 1148
	mov	ecx, DWORD PTR _this$[ebp]
	call	??1CharsetRecog_sbcs@icu_56@@UAE@XZ	; icu_56::CharsetRecog_sbcs::~CharsetRecog_sbcs
	pop	edi
	pop	esi
	pop	ebx
	add	esp, 204				; 000000ccH
	cmp	ebp, esp
	call	__RTC_CheckEsp
	mov	esp, ebp
	pop	ebp
	ret	0
??1CharsetRecog_KOI8_R@icu_56@@UAE@XZ ENDP		; icu_56::CharsetRecog_KOI8_R::~CharsetRecog_KOI8_R
; Function compile flags: /Odtp /RTCsu /ZI
_TEXT	ENDS
;	COMDAT ??_GCharsetRecog_KOI8_R@icu_56@@UAEPAXI@Z
_TEXT	SEGMENT
_this$ = -8						; size = 4
___flags$ = 8						; size = 4
??_GCharsetRecog_KOI8_R@icu_56@@UAEPAXI@Z PROC		; icu_56::CharsetRecog_KOI8_R::`scalar deleting destructor', COMDAT
; _this$ = ecx
	push	ebp
	mov	ebp, esp
	sub	esp, 204				; 000000ccH
	push	ebx
	push	esi
	push	edi
	push	ecx
	lea	edi, DWORD PTR [ebp-204]
	mov	ecx, 51					; 00000033H
	mov	eax, -858993460				; ccccccccH
	rep stosd
	pop	ecx
	mov	DWORD PTR _this$[ebp], ecx
	mov	ecx, DWORD PTR _this$[ebp]
	call	??1CharsetRecog_KOI8_R@icu_56@@UAE@XZ	; icu_56::CharsetRecog_KOI8_R::~CharsetRecog_KOI8_R
	mov	eax, DWORD PTR ___flags$[ebp]
	and	eax, 1
	je	SHORT $LN1@scalar@20
	mov	esi, esp
	mov	eax, DWORD PTR _this$[ebp]
	push	eax
	call	DWORD PTR __imp_??3UMemory@icu_56@@SAXPAX@Z
	add	esp, 4
	cmp	esi, esp
	call	__RTC_CheckEsp
$LN1@scalar@20:
	mov	eax, DWORD PTR _this$[ebp]
	pop	edi
	pop	esi
	pop	ebx
	add	esp, 204				; 000000ccH
	cmp	ebp, esp
	call	__RTC_CheckEsp
	mov	esp, ebp
	pop	ebp
	ret	4
??_GCharsetRecog_KOI8_R@icu_56@@UAEPAXI@Z ENDP		; icu_56::CharsetRecog_KOI8_R::`scalar deleting destructor'
_TEXT	ENDS
PUBLIC	??_C@_06CPFLJKI@KOI8?9R?$AA@			; `string'
;	COMDAT ??_C@_06CPFLJKI@KOI8?9R?$AA@
CONST	SEGMENT
??_C@_06CPFLJKI@KOI8?9R?$AA@ DB 'KOI8-R', 00H		; `string'
; Function compile flags: /Odtp /RTCsu /ZI
CONST	ENDS
;	COMDAT ?getName@CharsetRecog_KOI8_R@icu_56@@UBEPBDXZ
_TEXT	SEGMENT
_this$ = -8						; size = 4
?getName@CharsetRecog_KOI8_R@icu_56@@UBEPBDXZ PROC	; icu_56::CharsetRecog_KOI8_R::getName, COMDAT
; _this$ = ecx
; Line 1151
	push	ebp
	mov	ebp, esp
	sub	esp, 204				; 000000ccH
	push	ebx
	push	esi
	push	edi
	push	ecx
	lea	edi, DWORD PTR [ebp-204]
	mov	ecx, 51					; 00000033H
	mov	eax, -858993460				; ccccccccH
	rep stosd
	pop	ecx
	mov	DWORD PTR _this$[ebp], ecx
; Line 1152
	mov	eax, OFFSET ??_C@_06CPFLJKI@KOI8?9R?$AA@
; Line 1153
	pop	edi
	pop	esi
	pop	ebx
	mov	esp, ebp
	pop	ebp
	ret	0
?getName@CharsetRecog_KOI8_R@icu_56@@UBEPBDXZ ENDP	; icu_56::CharsetRecog_KOI8_R::getName
; Function compile flags: /Odtp /RTCsu /ZI
_TEXT	ENDS
;	COMDAT ?getLanguage@CharsetRecog_KOI8_R@icu_56@@UBEPBDXZ
_TEXT	SEGMENT
_this$ = -8						; size = 4
?getLanguage@CharsetRecog_KOI8_R@icu_56@@UBEPBDXZ PROC	; icu_56::CharsetRecog_KOI8_R::getLanguage, COMDAT
; _this$ = ecx
; Line 1156
	push	ebp
	mov	ebp, esp
	sub	esp, 204				; 000000ccH
	push	ebx
	push	esi
	push	edi
	push	ecx
	lea	edi, DWORD PTR [ebp-204]
	mov	ecx, 51					; 00000033H
	mov	eax, -858993460				; ccccccccH
	rep stosd
	pop	ecx
	mov	DWORD PTR _this$[ebp], ecx
; Line 1157
	mov	eax, OFFSET ??_C@_02FIDBHGA@ru?$AA@
; Line 1158
	pop	edi
	pop	esi
	pop	ebx
	mov	esp, ebp
	pop	ebp
	ret	0
?getLanguage@CharsetRecog_KOI8_R@icu_56@@UBEPBDXZ ENDP	; icu_56::CharsetRecog_KOI8_R::getLanguage
; Function compile flags: /Odtp /RTCsu /ZI
_TEXT	ENDS
;	COMDAT ?match@CharsetRecog_KOI8_R@icu_56@@UBECPAVInputText@2@PAVCharsetMatch@2@@Z
_TEXT	SEGMENT
_confidence$ = -20					; size = 4
_this$ = -8						; size = 4
_textIn$ = 8						; size = 4
_results$ = 12						; size = 4
?match@CharsetRecog_KOI8_R@icu_56@@UBECPAVInputText@2@PAVCharsetMatch@2@@Z PROC ; icu_56::CharsetRecog_KOI8_R::match, COMDAT
; _this$ = ecx
; Line 1161
	push	ebp
	mov	ebp, esp
	sub	esp, 216				; 000000d8H
	push	ebx
	push	esi
	push	edi
	push	ecx
	lea	edi, DWORD PTR [ebp-216]
	mov	ecx, 54					; 00000036H
	mov	eax, -858993460				; ccccccccH
	rep stosd
	pop	ecx
	mov	DWORD PTR _this$[ebp], ecx
; Line 1162
	mov	esi, esp
	push	OFFSET _charMap_KOI8_R
	push	OFFSET _ngrams_KOI8_R
	mov	eax, DWORD PTR _textIn$[ebp]
	push	eax
	mov	ecx, DWORD PTR _this$[ebp]
	mov	edx, DWORD PTR [ecx]
	mov	ecx, DWORD PTR _this$[ebp]
	mov	eax, DWORD PTR [edx+16]
	call	eax
	cmp	esi, esp
	call	__RTC_CheckEsp
	mov	DWORD PTR _confidence$[ebp], eax
; Line 1163
	push	0
	push	0
	mov	eax, DWORD PTR _confidence$[ebp]
	push	eax
	mov	ecx, DWORD PTR _this$[ebp]
	push	ecx
	mov	edx, DWORD PTR _textIn$[ebp]
	push	edx
	mov	ecx, DWORD PTR _results$[ebp]
	call	?set@CharsetMatch@icu_56@@QAEXPAVInputText@2@PBVCharsetRecognizer@2@HPBD2@Z ; icu_56::CharsetMatch::set
; Line 1164
	cmp	DWORD PTR _confidence$[ebp], 0
	setg	al
; Line 1165
	pop	edi
	pop	esi
	pop	ebx
	add	esp, 216				; 000000d8H
	cmp	ebp, esp
	call	__RTC_CheckEsp
	mov	esp, ebp
	pop	ebp
	ret	8
?match@CharsetRecog_KOI8_R@icu_56@@UBECPAVInputText@2@PAVCharsetMatch@2@@Z ENDP ; icu_56::CharsetRecog_KOI8_R::match
_TEXT	ENDS
PUBLIC	??_7CharsetRecog_IBM424_he@icu_56@@6B@		; icu_56::CharsetRecog_IBM424_he::`vftable'
PUBLIC	??1CharsetRecog_IBM424_he@icu_56@@UAE@XZ	; icu_56::CharsetRecog_IBM424_he::~CharsetRecog_IBM424_he
PUBLIC	??_R4CharsetRecog_IBM424_he@icu_56@@6B@		; icu_56::CharsetRecog_IBM424_he::`RTTI Complete Object Locator'
PUBLIC	??_R0?AVCharsetRecog_IBM424_he@icu_56@@@8	; icu_56::CharsetRecog_IBM424_he `RTTI Type Descriptor'
PUBLIC	??_R3CharsetRecog_IBM424_he@icu_56@@8		; icu_56::CharsetRecog_IBM424_he::`RTTI Class Hierarchy Descriptor'
PUBLIC	??_R2CharsetRecog_IBM424_he@icu_56@@8		; icu_56::CharsetRecog_IBM424_he::`RTTI Base Class Array'
PUBLIC	??_R1A@?0A@EA@CharsetRecog_IBM424_he@icu_56@@8	; icu_56::CharsetRecog_IBM424_he::`RTTI Base Class Descriptor at (0,-1,0,64)'
PUBLIC	?getLanguage@CharsetRecog_IBM424_he@icu_56@@UBEPBDXZ ; icu_56::CharsetRecog_IBM424_he::getLanguage
EXTRN	??_ECharsetRecog_IBM424_he@icu_56@@UAEPAXI@Z:PROC ; icu_56::CharsetRecog_IBM424_he::`vector deleting destructor'
;	COMDAT ??_R1A@?0A@EA@CharsetRecog_IBM424_he@icu_56@@8
rdata$r	SEGMENT
??_R1A@?0A@EA@CharsetRecog_IBM424_he@icu_56@@8 DD FLAT:??_R0?AVCharsetRecog_IBM424_he@icu_56@@@8 ; icu_56::CharsetRecog_IBM424_he::`RTTI Base Class Descriptor at (0,-1,0,64)'
	DD	03H
	DD	00H
	DD	0ffffffffH
	DD	00H
	DD	040H
	DD	FLAT:??_R3CharsetRecog_IBM424_he@icu_56@@8
rdata$r	ENDS
;	COMDAT ??_R2CharsetRecog_IBM424_he@icu_56@@8
rdata$r	SEGMENT
??_R2CharsetRecog_IBM424_he@icu_56@@8 DD FLAT:??_R1A@?0A@EA@CharsetRecog_IBM424_he@icu_56@@8 ; icu_56::CharsetRecog_IBM424_he::`RTTI Base Class Array'
	DD	FLAT:??_R1A@?0A@EA@CharsetRecog_sbcs@icu_56@@8
	DD	FLAT:??_R1A@?0A@EA@CharsetRecognizer@icu_56@@8
	DD	FLAT:??_R13?0A@EA@UMemory@icu_56@@8
rdata$r	ENDS
;	COMDAT ??_R3CharsetRecog_IBM424_he@icu_56@@8
rdata$r	SEGMENT
??_R3CharsetRecog_IBM424_he@icu_56@@8 DD 00H		; icu_56::CharsetRecog_IBM424_he::`RTTI Class Hierarchy Descriptor'
	DD	00H
	DD	04H
	DD	FLAT:??_R2CharsetRecog_IBM424_he@icu_56@@8
rdata$r	ENDS
;	COMDAT ??_R0?AVCharsetRecog_IBM424_he@icu_56@@@8
_DATA	SEGMENT
??_R0?AVCharsetRecog_IBM424_he@icu_56@@@8 DD FLAT:??_7type_info@@6B@ ; icu_56::CharsetRecog_IBM424_he `RTTI Type Descriptor'
	DD	00H
	DB	'.?AVCharsetRecog_IBM424_he@icu_56@@', 00H
_DATA	ENDS
;	COMDAT ??_R4CharsetRecog_IBM424_he@icu_56@@6B@
rdata$r	SEGMENT
??_R4CharsetRecog_IBM424_he@icu_56@@6B@ DD 00H		; icu_56::CharsetRecog_IBM424_he::`RTTI Complete Object Locator'
	DD	00H
	DD	00H
	DD	FLAT:??_R0?AVCharsetRecog_IBM424_he@icu_56@@@8
	DD	FLAT:??_R3CharsetRecog_IBM424_he@icu_56@@8
rdata$r	ENDS
;	COMDAT ??_7CharsetRecog_IBM424_he@icu_56@@6B@
CONST	SEGMENT
??_7CharsetRecog_IBM424_he@icu_56@@6B@ DD FLAT:??_R4CharsetRecog_IBM424_he@icu_56@@6B@ ; icu_56::CharsetRecog_IBM424_he::`vftable'
	DD	FLAT:__purecall
	DD	FLAT:?getLanguage@CharsetRecog_IBM424_he@icu_56@@UBEPBDXZ
	DD	FLAT:__purecall
	DD	FLAT:??_ECharsetRecog_IBM424_he@icu_56@@UAEPAXI@Z
	DD	FLAT:?match_sbcs@CharsetRecog_sbcs@icu_56@@UBEHPAVInputText@2@QBHQBE@Z
; Function compile flags: /Odtp /RTCsu /ZI
CONST	ENDS
;	COMDAT ??1CharsetRecog_IBM424_he@icu_56@@UAE@XZ
_TEXT	SEGMENT
_this$ = -8						; size = 4
??1CharsetRecog_IBM424_he@icu_56@@UAE@XZ PROC		; icu_56::CharsetRecog_IBM424_he::~CharsetRecog_IBM424_he, COMDAT
; _this$ = ecx
; Line 1169
	push	ebp
	mov	ebp, esp
	sub	esp, 204				; 000000ccH
	push	ebx
	push	esi
	push	edi
	push	ecx
	lea	edi, DWORD PTR [ebp-204]
	mov	ecx, 51					; 00000033H
	mov	eax, -858993460				; ccccccccH
	rep stosd
	pop	ecx
	mov	DWORD PTR _this$[ebp], ecx
	mov	eax, DWORD PTR _this$[ebp]
	mov	DWORD PTR [eax], OFFSET ??_7CharsetRecog_IBM424_he@icu_56@@6B@
; Line 1171
	mov	ecx, DWORD PTR _this$[ebp]
	call	??1CharsetRecog_sbcs@icu_56@@UAE@XZ	; icu_56::CharsetRecog_sbcs::~CharsetRecog_sbcs
	pop	edi
	pop	esi
	pop	ebx
	add	esp, 204				; 000000ccH
	cmp	ebp, esp
	call	__RTC_CheckEsp
	mov	esp, ebp
	pop	ebp
	ret	0
??1CharsetRecog_IBM424_he@icu_56@@UAE@XZ ENDP		; icu_56::CharsetRecog_IBM424_he::~CharsetRecog_IBM424_he
; Function compile flags: /Odtp /RTCsu /ZI
_TEXT	ENDS
;	COMDAT ??_GCharsetRecog_IBM424_he@icu_56@@UAEPAXI@Z
_TEXT	SEGMENT
_this$ = -8						; size = 4
___flags$ = 8						; size = 4
??_GCharsetRecog_IBM424_he@icu_56@@UAEPAXI@Z PROC	; icu_56::CharsetRecog_IBM424_he::`scalar deleting destructor', COMDAT
; _this$ = ecx
	push	ebp
	mov	ebp, esp
	sub	esp, 204				; 000000ccH
	push	ebx
	push	esi
	push	edi
	push	ecx
	lea	edi, DWORD PTR [ebp-204]
	mov	ecx, 51					; 00000033H
	mov	eax, -858993460				; ccccccccH
	rep stosd
	pop	ecx
	mov	DWORD PTR _this$[ebp], ecx
	mov	ecx, DWORD PTR _this$[ebp]
	call	??1CharsetRecog_IBM424_he@icu_56@@UAE@XZ ; icu_56::CharsetRecog_IBM424_he::~CharsetRecog_IBM424_he
	mov	eax, DWORD PTR ___flags$[ebp]
	and	eax, 1
	je	SHORT $LN1@scalar@21
	mov	esi, esp
	mov	eax, DWORD PTR _this$[ebp]
	push	eax
	call	DWORD PTR __imp_??3UMemory@icu_56@@SAXPAX@Z
	add	esp, 4
	cmp	esi, esp
	call	__RTC_CheckEsp
$LN1@scalar@21:
	mov	eax, DWORD PTR _this$[ebp]
	pop	edi
	pop	esi
	pop	ebx
	add	esp, 204				; 000000ccH
	cmp	ebp, esp
	call	__RTC_CheckEsp
	mov	esp, ebp
	pop	ebp
	ret	4
??_GCharsetRecog_IBM424_he@icu_56@@UAEPAXI@Z ENDP	; icu_56::CharsetRecog_IBM424_he::`scalar deleting destructor'
; Function compile flags: /Odtp /RTCsu /ZI
_TEXT	ENDS
;	COMDAT ?getLanguage@CharsetRecog_IBM424_he@icu_56@@UBEPBDXZ
_TEXT	SEGMENT
_this$ = -8						; size = 4
?getLanguage@CharsetRecog_IBM424_he@icu_56@@UBEPBDXZ PROC ; icu_56::CharsetRecog_IBM424_he::getLanguage, COMDAT
; _this$ = ecx
; Line 1174
	push	ebp
	mov	ebp, esp
	sub	esp, 204				; 000000ccH
	push	ebx
	push	esi
	push	edi
	push	ecx
	lea	edi, DWORD PTR [ebp-204]
	mov	ecx, 51					; 00000033H
	mov	eax, -858993460				; ccccccccH
	rep stosd
	pop	ecx
	mov	DWORD PTR _this$[ebp], ecx
; Line 1175
	mov	eax, OFFSET ??_C@_02FOPACDJH@he?$AA@
; Line 1176
	pop	edi
	pop	esi
	pop	ebx
	mov	esp, ebp
	pop	ebp
	ret	0
?getLanguage@CharsetRecog_IBM424_he@icu_56@@UBEPBDXZ ENDP ; icu_56::CharsetRecog_IBM424_he::getLanguage
_TEXT	ENDS
PUBLIC	??_7CharsetRecog_IBM424_he_rtl@icu_56@@6B@	; icu_56::CharsetRecog_IBM424_he_rtl::`vftable'
PUBLIC	??1CharsetRecog_IBM424_he_rtl@icu_56@@UAE@XZ	; icu_56::CharsetRecog_IBM424_he_rtl::~CharsetRecog_IBM424_he_rtl
PUBLIC	??_R4CharsetRecog_IBM424_he_rtl@icu_56@@6B@	; icu_56::CharsetRecog_IBM424_he_rtl::`RTTI Complete Object Locator'
PUBLIC	??_R0?AVCharsetRecog_IBM424_he_rtl@icu_56@@@8	; icu_56::CharsetRecog_IBM424_he_rtl `RTTI Type Descriptor'
PUBLIC	??_R3CharsetRecog_IBM424_he_rtl@icu_56@@8	; icu_56::CharsetRecog_IBM424_he_rtl::`RTTI Class Hierarchy Descriptor'
PUBLIC	??_R2CharsetRecog_IBM424_he_rtl@icu_56@@8	; icu_56::CharsetRecog_IBM424_he_rtl::`RTTI Base Class Array'
PUBLIC	??_R1A@?0A@EA@CharsetRecog_IBM424_he_rtl@icu_56@@8 ; icu_56::CharsetRecog_IBM424_he_rtl::`RTTI Base Class Descriptor at (0,-1,0,64)'
PUBLIC	?getName@CharsetRecog_IBM424_he_rtl@icu_56@@UBEPBDXZ ; icu_56::CharsetRecog_IBM424_he_rtl::getName
PUBLIC	?match@CharsetRecog_IBM424_he_rtl@icu_56@@UBECPAVInputText@2@PAVCharsetMatch@2@@Z ; icu_56::CharsetRecog_IBM424_he_rtl::match
EXTRN	??_ECharsetRecog_IBM424_he_rtl@icu_56@@UAEPAXI@Z:PROC ; icu_56::CharsetRecog_IBM424_he_rtl::`vector deleting destructor'
;	COMDAT ??_R1A@?0A@EA@CharsetRecog_IBM424_he_rtl@icu_56@@8
rdata$r	SEGMENT
??_R1A@?0A@EA@CharsetRecog_IBM424_he_rtl@icu_56@@8 DD FLAT:??_R0?AVCharsetRecog_IBM424_he_rtl@icu_56@@@8 ; icu_56::CharsetRecog_IBM424_he_rtl::`RTTI Base Class Descriptor at (0,-1,0,64)'
	DD	04H
	DD	00H
	DD	0ffffffffH
	DD	00H
	DD	040H
	DD	FLAT:??_R3CharsetRecog_IBM424_he_rtl@icu_56@@8
rdata$r	ENDS
;	COMDAT ??_R2CharsetRecog_IBM424_he_rtl@icu_56@@8
rdata$r	SEGMENT
??_R2CharsetRecog_IBM424_he_rtl@icu_56@@8 DD FLAT:??_R1A@?0A@EA@CharsetRecog_IBM424_he_rtl@icu_56@@8 ; icu_56::CharsetRecog_IBM424_he_rtl::`RTTI Base Class Array'
	DD	FLAT:??_R1A@?0A@EA@CharsetRecog_IBM424_he@icu_56@@8
	DD	FLAT:??_R1A@?0A@EA@CharsetRecog_sbcs@icu_56@@8
	DD	FLAT:??_R1A@?0A@EA@CharsetRecognizer@icu_56@@8
	DD	FLAT:??_R13?0A@EA@UMemory@icu_56@@8
rdata$r	ENDS
;	COMDAT ??_R3CharsetRecog_IBM424_he_rtl@icu_56@@8
rdata$r	SEGMENT
??_R3CharsetRecog_IBM424_he_rtl@icu_56@@8 DD 00H	; icu_56::CharsetRecog_IBM424_he_rtl::`RTTI Class Hierarchy Descriptor'
	DD	00H
	DD	05H
	DD	FLAT:??_R2CharsetRecog_IBM424_he_rtl@icu_56@@8
rdata$r	ENDS
;	COMDAT ??_R0?AVCharsetRecog_IBM424_he_rtl@icu_56@@@8
_DATA	SEGMENT
??_R0?AVCharsetRecog_IBM424_he_rtl@icu_56@@@8 DD FLAT:??_7type_info@@6B@ ; icu_56::CharsetRecog_IBM424_he_rtl `RTTI Type Descriptor'
	DD	00H
	DB	'.?AVCharsetRecog_IBM424_he_rtl@icu_56@@', 00H
_DATA	ENDS
;	COMDAT ??_R4CharsetRecog_IBM424_he_rtl@icu_56@@6B@
rdata$r	SEGMENT
??_R4CharsetRecog_IBM424_he_rtl@icu_56@@6B@ DD 00H	; icu_56::CharsetRecog_IBM424_he_rtl::`RTTI Complete Object Locator'
	DD	00H
	DD	00H
	DD	FLAT:??_R0?AVCharsetRecog_IBM424_he_rtl@icu_56@@@8
	DD	FLAT:??_R3CharsetRecog_IBM424_he_rtl@icu_56@@8
rdata$r	ENDS
;	COMDAT ??_7CharsetRecog_IBM424_he_rtl@icu_56@@6B@
CONST	SEGMENT
??_7CharsetRecog_IBM424_he_rtl@icu_56@@6B@ DD FLAT:??_R4CharsetRecog_IBM424_he_rtl@icu_56@@6B@ ; icu_56::CharsetRecog_IBM424_he_rtl::`vftable'
	DD	FLAT:?getName@CharsetRecog_IBM424_he_rtl@icu_56@@UBEPBDXZ
	DD	FLAT:?getLanguage@CharsetRecog_IBM424_he@icu_56@@UBEPBDXZ
	DD	FLAT:?match@CharsetRecog_IBM424_he_rtl@icu_56@@UBECPAVInputText@2@PAVCharsetMatch@2@@Z
	DD	FLAT:??_ECharsetRecog_IBM424_he_rtl@icu_56@@UAEPAXI@Z
	DD	FLAT:?match_sbcs@CharsetRecog_sbcs@icu_56@@UBEHPAVInputText@2@QBHQBE@Z
; Function compile flags: /Odtp /RTCsu /ZI
CONST	ENDS
;	COMDAT ??1CharsetRecog_IBM424_he_rtl@icu_56@@UAE@XZ
_TEXT	SEGMENT
_this$ = -8						; size = 4
??1CharsetRecog_IBM424_he_rtl@icu_56@@UAE@XZ PROC	; icu_56::CharsetRecog_IBM424_he_rtl::~CharsetRecog_IBM424_he_rtl, COMDAT
; _this$ = ecx
; Line 1179
	push	ebp
	mov	ebp, esp
	sub	esp, 204				; 000000ccH
	push	ebx
	push	esi
	push	edi
	push	ecx
	lea	edi, DWORD PTR [ebp-204]
	mov	ecx, 51					; 00000033H
	mov	eax, -858993460				; ccccccccH
	rep stosd
	pop	ecx
	mov	DWORD PTR _this$[ebp], ecx
	mov	eax, DWORD PTR _this$[ebp]
	mov	DWORD PTR [eax], OFFSET ??_7CharsetRecog_IBM424_he_rtl@icu_56@@6B@
; Line 1181
	mov	ecx, DWORD PTR _this$[ebp]
	call	??1CharsetRecog_IBM424_he@icu_56@@UAE@XZ ; icu_56::CharsetRecog_IBM424_he::~CharsetRecog_IBM424_he
	pop	edi
	pop	esi
	pop	ebx
	add	esp, 204				; 000000ccH
	cmp	ebp, esp
	call	__RTC_CheckEsp
	mov	esp, ebp
	pop	ebp
	ret	0
??1CharsetRecog_IBM424_he_rtl@icu_56@@UAE@XZ ENDP	; icu_56::CharsetRecog_IBM424_he_rtl::~CharsetRecog_IBM424_he_rtl
; Function compile flags: /Odtp /RTCsu /ZI
_TEXT	ENDS
;	COMDAT ??_GCharsetRecog_IBM424_he_rtl@icu_56@@UAEPAXI@Z
_TEXT	SEGMENT
_this$ = -8						; size = 4
___flags$ = 8						; size = 4
??_GCharsetRecog_IBM424_he_rtl@icu_56@@UAEPAXI@Z PROC	; icu_56::CharsetRecog_IBM424_he_rtl::`scalar deleting destructor', COMDAT
; _this$ = ecx
	push	ebp
	mov	ebp, esp
	sub	esp, 204				; 000000ccH
	push	ebx
	push	esi
	push	edi
	push	ecx
	lea	edi, DWORD PTR [ebp-204]
	mov	ecx, 51					; 00000033H
	mov	eax, -858993460				; ccccccccH
	rep stosd
	pop	ecx
	mov	DWORD PTR _this$[ebp], ecx
	mov	ecx, DWORD PTR _this$[ebp]
	call	??1CharsetRecog_IBM424_he_rtl@icu_56@@UAE@XZ ; icu_56::CharsetRecog_IBM424_he_rtl::~CharsetRecog_IBM424_he_rtl
	mov	eax, DWORD PTR ___flags$[ebp]
	and	eax, 1
	je	SHORT $LN1@scalar@22
	mov	esi, esp
	mov	eax, DWORD PTR _this$[ebp]
	push	eax
	call	DWORD PTR __imp_??3UMemory@icu_56@@SAXPAX@Z
	add	esp, 4
	cmp	esi, esp
	call	__RTC_CheckEsp
$LN1@scalar@22:
	mov	eax, DWORD PTR _this$[ebp]
	pop	edi
	pop	esi
	pop	ebx
	add	esp, 204				; 000000ccH
	cmp	ebp, esp
	call	__RTC_CheckEsp
	mov	esp, ebp
	pop	ebp
	ret	4
??_GCharsetRecog_IBM424_he_rtl@icu_56@@UAEPAXI@Z ENDP	; icu_56::CharsetRecog_IBM424_he_rtl::`scalar deleting destructor'
_TEXT	ENDS
PUBLIC	??_C@_0L@MMLKCCNJ@IBM424_rtl?$AA@		; `string'
;	COMDAT ??_C@_0L@MMLKCCNJ@IBM424_rtl?$AA@
CONST	SEGMENT
??_C@_0L@MMLKCCNJ@IBM424_rtl?$AA@ DB 'IBM424_rtl', 00H	; `string'
; Function compile flags: /Odtp /RTCsu /ZI
CONST	ENDS
;	COMDAT ?getName@CharsetRecog_IBM424_he_rtl@icu_56@@UBEPBDXZ
_TEXT	SEGMENT
_this$ = -8						; size = 4
?getName@CharsetRecog_IBM424_he_rtl@icu_56@@UBEPBDXZ PROC ; icu_56::CharsetRecog_IBM424_he_rtl::getName, COMDAT
; _this$ = ecx
; Line 1184
	push	ebp
	mov	ebp, esp
	sub	esp, 204				; 000000ccH
	push	ebx
	push	esi
	push	edi
	push	ecx
	lea	edi, DWORD PTR [ebp-204]
	mov	ecx, 51					; 00000033H
	mov	eax, -858993460				; ccccccccH
	rep stosd
	pop	ecx
	mov	DWORD PTR _this$[ebp], ecx
; Line 1185
	mov	eax, OFFSET ??_C@_0L@MMLKCCNJ@IBM424_rtl?$AA@
; Line 1186
	pop	edi
	pop	esi
	pop	ebx
	mov	esp, ebp
	pop	ebp
	ret	0
?getName@CharsetRecog_IBM424_he_rtl@icu_56@@UBEPBDXZ ENDP ; icu_56::CharsetRecog_IBM424_he_rtl::getName
; Function compile flags: /Odtp /RTCsu /ZI
_TEXT	ENDS
;	COMDAT ?match@CharsetRecog_IBM424_he_rtl@icu_56@@UBECPAVInputText@2@PAVCharsetMatch@2@@Z
_TEXT	SEGMENT
_confidence$ = -20					; size = 4
_this$ = -8						; size = 4
_textIn$ = 8						; size = 4
_results$ = 12						; size = 4
?match@CharsetRecog_IBM424_he_rtl@icu_56@@UBECPAVInputText@2@PAVCharsetMatch@2@@Z PROC ; icu_56::CharsetRecog_IBM424_he_rtl::match, COMDAT
; _this$ = ecx
; Line 1189
	push	ebp
	mov	ebp, esp
	sub	esp, 216				; 000000d8H
	push	ebx
	push	esi
	push	edi
	push	ecx
	lea	edi, DWORD PTR [ebp-216]
	mov	ecx, 54					; 00000036H
	mov	eax, -858993460				; ccccccccH
	rep stosd
	pop	ecx
	mov	DWORD PTR _this$[ebp], ecx
; Line 1190
	mov	esi, esp
	push	OFFSET _charMap_IBM424_he
	push	OFFSET _ngrams_IBM424_he_rtl
	mov	eax, DWORD PTR _textIn$[ebp]
	push	eax
	mov	ecx, DWORD PTR _this$[ebp]
	mov	edx, DWORD PTR [ecx]
	mov	ecx, DWORD PTR _this$[ebp]
	mov	eax, DWORD PTR [edx+16]
	call	eax
	cmp	esi, esp
	call	__RTC_CheckEsp
	mov	DWORD PTR _confidence$[ebp], eax
; Line 1191
	push	0
	push	0
	mov	eax, DWORD PTR _confidence$[ebp]
	push	eax
	mov	ecx, DWORD PTR _this$[ebp]
	push	ecx
	mov	edx, DWORD PTR _textIn$[ebp]
	push	edx
	mov	ecx, DWORD PTR _results$[ebp]
	call	?set@CharsetMatch@icu_56@@QAEXPAVInputText@2@PBVCharsetRecognizer@2@HPBD2@Z ; icu_56::CharsetMatch::set
; Line 1192
	cmp	DWORD PTR _confidence$[ebp], 0
	setg	al
; Line 1193
	pop	edi
	pop	esi
	pop	ebx
	add	esp, 216				; 000000d8H
	cmp	ebp, esp
	call	__RTC_CheckEsp
	mov	esp, ebp
	pop	ebp
	ret	8
?match@CharsetRecog_IBM424_he_rtl@icu_56@@UBECPAVInputText@2@PAVCharsetMatch@2@@Z ENDP ; icu_56::CharsetRecog_IBM424_he_rtl::match
_TEXT	ENDS
PUBLIC	??_7CharsetRecog_IBM424_he_ltr@icu_56@@6B@	; icu_56::CharsetRecog_IBM424_he_ltr::`vftable'
PUBLIC	??1CharsetRecog_IBM424_he_ltr@icu_56@@EAE@XZ	; icu_56::CharsetRecog_IBM424_he_ltr::~CharsetRecog_IBM424_he_ltr
PUBLIC	??_R4CharsetRecog_IBM424_he_ltr@icu_56@@6B@	; icu_56::CharsetRecog_IBM424_he_ltr::`RTTI Complete Object Locator'
PUBLIC	??_R0?AVCharsetRecog_IBM424_he_ltr@icu_56@@@8	; icu_56::CharsetRecog_IBM424_he_ltr `RTTI Type Descriptor'
PUBLIC	??_R3CharsetRecog_IBM424_he_ltr@icu_56@@8	; icu_56::CharsetRecog_IBM424_he_ltr::`RTTI Class Hierarchy Descriptor'
PUBLIC	??_R2CharsetRecog_IBM424_he_ltr@icu_56@@8	; icu_56::CharsetRecog_IBM424_he_ltr::`RTTI Base Class Array'
PUBLIC	??_R1A@?0A@EA@CharsetRecog_IBM424_he_ltr@icu_56@@8 ; icu_56::CharsetRecog_IBM424_he_ltr::`RTTI Base Class Descriptor at (0,-1,0,64)'
PUBLIC	?getName@CharsetRecog_IBM424_he_ltr@icu_56@@EBEPBDXZ ; icu_56::CharsetRecog_IBM424_he_ltr::getName
PUBLIC	?match@CharsetRecog_IBM424_he_ltr@icu_56@@EBECPAVInputText@2@PAVCharsetMatch@2@@Z ; icu_56::CharsetRecog_IBM424_he_ltr::match
EXTRN	??_ECharsetRecog_IBM424_he_ltr@icu_56@@EAEPAXI@Z:PROC ; icu_56::CharsetRecog_IBM424_he_ltr::`vector deleting destructor'
;	COMDAT ??_R1A@?0A@EA@CharsetRecog_IBM424_he_ltr@icu_56@@8
rdata$r	SEGMENT
??_R1A@?0A@EA@CharsetRecog_IBM424_he_ltr@icu_56@@8 DD FLAT:??_R0?AVCharsetRecog_IBM424_he_ltr@icu_56@@@8 ; icu_56::CharsetRecog_IBM424_he_ltr::`RTTI Base Class Descriptor at (0,-1,0,64)'
	DD	04H
	DD	00H
	DD	0ffffffffH
	DD	00H
	DD	040H
	DD	FLAT:??_R3CharsetRecog_IBM424_he_ltr@icu_56@@8
rdata$r	ENDS
;	COMDAT ??_R2CharsetRecog_IBM424_he_ltr@icu_56@@8
rdata$r	SEGMENT
??_R2CharsetRecog_IBM424_he_ltr@icu_56@@8 DD FLAT:??_R1A@?0A@EA@CharsetRecog_IBM424_he_ltr@icu_56@@8 ; icu_56::CharsetRecog_IBM424_he_ltr::`RTTI Base Class Array'
	DD	FLAT:??_R1A@?0A@EA@CharsetRecog_IBM424_he@icu_56@@8
	DD	FLAT:??_R1A@?0A@EA@CharsetRecog_sbcs@icu_56@@8
	DD	FLAT:??_R1A@?0A@EA@CharsetRecognizer@icu_56@@8
	DD	FLAT:??_R13?0A@EA@UMemory@icu_56@@8
rdata$r	ENDS
;	COMDAT ??_R3CharsetRecog_IBM424_he_ltr@icu_56@@8
rdata$r	SEGMENT
??_R3CharsetRecog_IBM424_he_ltr@icu_56@@8 DD 00H	; icu_56::CharsetRecog_IBM424_he_ltr::`RTTI Class Hierarchy Descriptor'
	DD	00H
	DD	05H
	DD	FLAT:??_R2CharsetRecog_IBM424_he_ltr@icu_56@@8
rdata$r	ENDS
;	COMDAT ??_R0?AVCharsetRecog_IBM424_he_ltr@icu_56@@@8
_DATA	SEGMENT
??_R0?AVCharsetRecog_IBM424_he_ltr@icu_56@@@8 DD FLAT:??_7type_info@@6B@ ; icu_56::CharsetRecog_IBM424_he_ltr `RTTI Type Descriptor'
	DD	00H
	DB	'.?AVCharsetRecog_IBM424_he_ltr@icu_56@@', 00H
_DATA	ENDS
;	COMDAT ??_R4CharsetRecog_IBM424_he_ltr@icu_56@@6B@
rdata$r	SEGMENT
??_R4CharsetRecog_IBM424_he_ltr@icu_56@@6B@ DD 00H	; icu_56::CharsetRecog_IBM424_he_ltr::`RTTI Complete Object Locator'
	DD	00H
	DD	00H
	DD	FLAT:??_R0?AVCharsetRecog_IBM424_he_ltr@icu_56@@@8
	DD	FLAT:??_R3CharsetRecog_IBM424_he_ltr@icu_56@@8
rdata$r	ENDS
;	COMDAT ??_7CharsetRecog_IBM424_he_ltr@icu_56@@6B@
CONST	SEGMENT
??_7CharsetRecog_IBM424_he_ltr@icu_56@@6B@ DD FLAT:??_R4CharsetRecog_IBM424_he_ltr@icu_56@@6B@ ; icu_56::CharsetRecog_IBM424_he_ltr::`vftable'
	DD	FLAT:?getName@CharsetRecog_IBM424_he_ltr@icu_56@@EBEPBDXZ
	DD	FLAT:?getLanguage@CharsetRecog_IBM424_he@icu_56@@UBEPBDXZ
	DD	FLAT:?match@CharsetRecog_IBM424_he_ltr@icu_56@@EBECPAVInputText@2@PAVCharsetMatch@2@@Z
	DD	FLAT:??_ECharsetRecog_IBM424_he_ltr@icu_56@@EAEPAXI@Z
	DD	FLAT:?match_sbcs@CharsetRecog_sbcs@icu_56@@UBEHPAVInputText@2@QBHQBE@Z
; Function compile flags: /Odtp /RTCsu /ZI
CONST	ENDS
;	COMDAT ??1CharsetRecog_IBM424_he_ltr@icu_56@@EAE@XZ
_TEXT	SEGMENT
_this$ = -8						; size = 4
??1CharsetRecog_IBM424_he_ltr@icu_56@@EAE@XZ PROC	; icu_56::CharsetRecog_IBM424_he_ltr::~CharsetRecog_IBM424_he_ltr, COMDAT
; _this$ = ecx
; Line 1196
	push	ebp
	mov	ebp, esp
	sub	esp, 204				; 000000ccH
	push	ebx
	push	esi
	push	edi
	push	ecx
	lea	edi, DWORD PTR [ebp-204]
	mov	ecx, 51					; 00000033H
	mov	eax, -858993460				; ccccccccH
	rep stosd
	pop	ecx
	mov	DWORD PTR _this$[ebp], ecx
	mov	eax, DWORD PTR _this$[ebp]
	mov	DWORD PTR [eax], OFFSET ??_7CharsetRecog_IBM424_he_ltr@icu_56@@6B@
; Line 1198
	mov	ecx, DWORD PTR _this$[ebp]
	call	??1CharsetRecog_IBM424_he@icu_56@@UAE@XZ ; icu_56::CharsetRecog_IBM424_he::~CharsetRecog_IBM424_he
	pop	edi
	pop	esi
	pop	ebx
	add	esp, 204				; 000000ccH
	cmp	ebp, esp
	call	__RTC_CheckEsp
	mov	esp, ebp
	pop	ebp
	ret	0
??1CharsetRecog_IBM424_he_ltr@icu_56@@EAE@XZ ENDP	; icu_56::CharsetRecog_IBM424_he_ltr::~CharsetRecog_IBM424_he_ltr
; Function compile flags: /Odtp /RTCsu /ZI
_TEXT	ENDS
;	COMDAT ??_GCharsetRecog_IBM424_he_ltr@icu_56@@EAEPAXI@Z
_TEXT	SEGMENT
_this$ = -8						; size = 4
___flags$ = 8						; size = 4
??_GCharsetRecog_IBM424_he_ltr@icu_56@@EAEPAXI@Z PROC	; icu_56::CharsetRecog_IBM424_he_ltr::`scalar deleting destructor', COMDAT
; _this$ = ecx
	push	ebp
	mov	ebp, esp
	sub	esp, 204				; 000000ccH
	push	ebx
	push	esi
	push	edi
	push	ecx
	lea	edi, DWORD PTR [ebp-204]
	mov	ecx, 51					; 00000033H
	mov	eax, -858993460				; ccccccccH
	rep stosd
	pop	ecx
	mov	DWORD PTR _this$[ebp], ecx
	mov	ecx, DWORD PTR _this$[ebp]
	call	??1CharsetRecog_IBM424_he_ltr@icu_56@@EAE@XZ ; icu_56::CharsetRecog_IBM424_he_ltr::~CharsetRecog_IBM424_he_ltr
	mov	eax, DWORD PTR ___flags$[ebp]
	and	eax, 1
	je	SHORT $LN1@scalar@23
	mov	esi, esp
	mov	eax, DWORD PTR _this$[ebp]
	push	eax
	call	DWORD PTR __imp_??3UMemory@icu_56@@SAXPAX@Z
	add	esp, 4
	cmp	esi, esp
	call	__RTC_CheckEsp
$LN1@scalar@23:
	mov	eax, DWORD PTR _this$[ebp]
	pop	edi
	pop	esi
	pop	ebx
	add	esp, 204				; 000000ccH
	cmp	ebp, esp
	call	__RTC_CheckEsp
	mov	esp, ebp
	pop	ebp
	ret	4
??_GCharsetRecog_IBM424_he_ltr@icu_56@@EAEPAXI@Z ENDP	; icu_56::CharsetRecog_IBM424_he_ltr::`scalar deleting destructor'
_TEXT	ENDS
PUBLIC	??_C@_0L@KIDNDNKK@IBM424_ltr?$AA@		; `string'
;	COMDAT ??_C@_0L@KIDNDNKK@IBM424_ltr?$AA@
CONST	SEGMENT
??_C@_0L@KIDNDNKK@IBM424_ltr?$AA@ DB 'IBM424_ltr', 00H	; `string'
; Function compile flags: /Odtp /RTCsu /ZI
CONST	ENDS
;	COMDAT ?getName@CharsetRecog_IBM424_he_ltr@icu_56@@EBEPBDXZ
_TEXT	SEGMENT
_this$ = -8						; size = 4
?getName@CharsetRecog_IBM424_he_ltr@icu_56@@EBEPBDXZ PROC ; icu_56::CharsetRecog_IBM424_he_ltr::getName, COMDAT
; _this$ = ecx
; Line 1201
	push	ebp
	mov	ebp, esp
	sub	esp, 204				; 000000ccH
	push	ebx
	push	esi
	push	edi
	push	ecx
	lea	edi, DWORD PTR [ebp-204]
	mov	ecx, 51					; 00000033H
	mov	eax, -858993460				; ccccccccH
	rep stosd
	pop	ecx
	mov	DWORD PTR _this$[ebp], ecx
; Line 1202
	mov	eax, OFFSET ??_C@_0L@KIDNDNKK@IBM424_ltr?$AA@
; Line 1203
	pop	edi
	pop	esi
	pop	ebx
	mov	esp, ebp
	pop	ebp
	ret	0
?getName@CharsetRecog_IBM424_he_ltr@icu_56@@EBEPBDXZ ENDP ; icu_56::CharsetRecog_IBM424_he_ltr::getName
; Function compile flags: /Odtp /RTCsu /ZI
_TEXT	ENDS
;	COMDAT ?match@CharsetRecog_IBM424_he_ltr@icu_56@@EBECPAVInputText@2@PAVCharsetMatch@2@@Z
_TEXT	SEGMENT
_confidence$ = -20					; size = 4
_this$ = -8						; size = 4
_textIn$ = 8						; size = 4
_results$ = 12						; size = 4
?match@CharsetRecog_IBM424_he_ltr@icu_56@@EBECPAVInputText@2@PAVCharsetMatch@2@@Z PROC ; icu_56::CharsetRecog_IBM424_he_ltr::match, COMDAT
; _this$ = ecx
; Line 1206
	push	ebp
	mov	ebp, esp
	sub	esp, 216				; 000000d8H
	push	ebx
	push	esi
	push	edi
	push	ecx
	lea	edi, DWORD PTR [ebp-216]
	mov	ecx, 54					; 00000036H
	mov	eax, -858993460				; ccccccccH
	rep stosd
	pop	ecx
	mov	DWORD PTR _this$[ebp], ecx
; Line 1207
	mov	esi, esp
	push	OFFSET _charMap_IBM424_he
	push	OFFSET _ngrams_IBM424_he_ltr
	mov	eax, DWORD PTR _textIn$[ebp]
	push	eax
	mov	ecx, DWORD PTR _this$[ebp]
	mov	edx, DWORD PTR [ecx]
	mov	ecx, DWORD PTR _this$[ebp]
	mov	eax, DWORD PTR [edx+16]
	call	eax
	cmp	esi, esp
	call	__RTC_CheckEsp
	mov	DWORD PTR _confidence$[ebp], eax
; Line 1208
	push	0
	push	0
	mov	eax, DWORD PTR _confidence$[ebp]
	push	eax
	mov	ecx, DWORD PTR _this$[ebp]
	push	ecx
	mov	edx, DWORD PTR _textIn$[ebp]
	push	edx
	mov	ecx, DWORD PTR _results$[ebp]
	call	?set@CharsetMatch@icu_56@@QAEXPAVInputText@2@PBVCharsetRecognizer@2@HPBD2@Z ; icu_56::CharsetMatch::set
; Line 1209
	cmp	DWORD PTR _confidence$[ebp], 0
	setg	al
; Line 1210
	pop	edi
	pop	esi
	pop	ebx
	add	esp, 216				; 000000d8H
	cmp	ebp, esp
	call	__RTC_CheckEsp
	mov	esp, ebp
	pop	ebp
	ret	8
?match@CharsetRecog_IBM424_he_ltr@icu_56@@EBECPAVInputText@2@PAVCharsetMatch@2@@Z ENDP ; icu_56::CharsetRecog_IBM424_he_ltr::match
_TEXT	ENDS
PUBLIC	??_7CharsetRecog_IBM420_ar@icu_56@@6B@		; icu_56::CharsetRecog_IBM420_ar::`vftable'
PUBLIC	??1CharsetRecog_IBM420_ar@icu_56@@UAE@XZ	; icu_56::CharsetRecog_IBM420_ar::~CharsetRecog_IBM420_ar
PUBLIC	??_R4CharsetRecog_IBM420_ar@icu_56@@6B@		; icu_56::CharsetRecog_IBM420_ar::`RTTI Complete Object Locator'
PUBLIC	??_R0?AVCharsetRecog_IBM420_ar@icu_56@@@8	; icu_56::CharsetRecog_IBM420_ar `RTTI Type Descriptor'
PUBLIC	??_R3CharsetRecog_IBM420_ar@icu_56@@8		; icu_56::CharsetRecog_IBM420_ar::`RTTI Class Hierarchy Descriptor'
PUBLIC	??_R2CharsetRecog_IBM420_ar@icu_56@@8		; icu_56::CharsetRecog_IBM420_ar::`RTTI Base Class Array'
PUBLIC	??_R1A@?0A@EA@CharsetRecog_IBM420_ar@icu_56@@8	; icu_56::CharsetRecog_IBM420_ar::`RTTI Base Class Descriptor at (0,-1,0,64)'
PUBLIC	?getLanguage@CharsetRecog_IBM420_ar@icu_56@@UBEPBDXZ ; icu_56::CharsetRecog_IBM420_ar::getLanguage
PUBLIC	?match_sbcs@CharsetRecog_IBM420_ar@icu_56@@UBEHPAVInputText@2@QBHQBE@Z ; icu_56::CharsetRecog_IBM420_ar::match_sbcs
EXTRN	??_ECharsetRecog_IBM420_ar@icu_56@@UAEPAXI@Z:PROC ; icu_56::CharsetRecog_IBM420_ar::`vector deleting destructor'
;	COMDAT ??_R1A@?0A@EA@CharsetRecog_IBM420_ar@icu_56@@8
rdata$r	SEGMENT
??_R1A@?0A@EA@CharsetRecog_IBM420_ar@icu_56@@8 DD FLAT:??_R0?AVCharsetRecog_IBM420_ar@icu_56@@@8 ; icu_56::CharsetRecog_IBM420_ar::`RTTI Base Class Descriptor at (0,-1,0,64)'
	DD	03H
	DD	00H
	DD	0ffffffffH
	DD	00H
	DD	040H
	DD	FLAT:??_R3CharsetRecog_IBM420_ar@icu_56@@8
rdata$r	ENDS
;	COMDAT ??_R2CharsetRecog_IBM420_ar@icu_56@@8
rdata$r	SEGMENT
