; Listing generated by Microsoft (R) Optimizing Compiler Version 16.00.40219.01 

	TITLE	D:\mozilla\intl\icu\source\i18n\csrutf8.cpp
	.686P
	.XMM
	include listing.inc
	.model	flat

INCLUDELIB MSVCRTD
INCLUDELIB OLDNAMES

PUBLIC	??2@YAPAXI@Z					; operator new
EXTRN	__RTC_Shutdown:PROC
EXTRN	__RTC_InitBase:PROC
;	COMDAT rtc$TMZ
; File d:\mozilla\intl\icu\include\unicode\utypes.h
rtc$TMZ	SEGMENT
__RTC_Shutdown.rtc$TMZ DD FLAT:__RTC_Shutdown
rtc$TMZ	ENDS
;	COMDAT rtc$IMZ
rtc$IMZ	SEGMENT
__RTC_InitBase.rtc$IMZ DD FLAT:__RTC_InitBase
; Function compile flags: /Odtp /RTCsu /ZI
rtc$IMZ	ENDS
;	COMDAT ??2@YAPAXI@Z
_TEXT	SEGMENT
_q$ = -8						; size = 4
___formal$ = 8						; size = 4
??2@YAPAXI@Z PROC					; operator new, COMDAT
; Line 411
	push	ebp
	mov	ebp, esp
	sub	esp, 204				; 000000ccH
	push	ebx
	push	esi
	push	edi
	lea	edi, DWORD PTR [ebp-204]
	mov	ecx, 51					; 00000033H
	mov	eax, -858993460				; ccccccccH
	rep stosd
; Line 412
	mov	DWORD PTR _q$[ebp], 0
; Line 413
	mov	eax, DWORD PTR _q$[ebp]
	mov	BYTE PTR [eax], 5
; Line 414
	mov	eax, DWORD PTR _q$[ebp]
; Line 415
	pop	edi
	pop	esi
	pop	ebx
	mov	esp, ebp
	pop	ebp
	ret	0
??2@YAPAXI@Z ENDP					; operator new
_TEXT	ENDS
PUBLIC	??3@YAXPAX@Z					; operator delete
; Function compile flags: /Odtp /RTCsu /ZI
;	COMDAT ??3@YAXPAX@Z
_TEXT	SEGMENT
_q$ = -8						; size = 4
___formal$ = 8						; size = 4
??3@YAXPAX@Z PROC					; operator delete, COMDAT
; Line 439
	push	ebp
	mov	ebp, esp
	sub	esp, 204				; 000000ccH
	push	ebx
	push	esi
	push	edi
	lea	edi, DWORD PTR [ebp-204]
	mov	ecx, 51					; 00000033H
	mov	eax, -858993460				; ccccccccH
	rep stosd
; Line 440
	mov	DWORD PTR _q$[ebp], 0
; Line 441
	mov	eax, DWORD PTR _q$[ebp]
	mov	BYTE PTR [eax], 5
; Line 442
	pop	edi
	pop	esi
	pop	ebx
	mov	esp, ebp
	pop	ebp
	ret	0
??3@YAXPAX@Z ENDP					; operator delete
_TEXT	ENDS
PUBLIC	??_7CharsetRecog_UTF8@icu_56@@6B@		; icu_56::CharsetRecog_UTF8::`vftable'
PUBLIC	??1CharsetRecog_UTF8@icu_56@@UAE@XZ		; icu_56::CharsetRecog_UTF8::~CharsetRecog_UTF8
PUBLIC	??_R4CharsetRecog_UTF8@icu_56@@6B@		; icu_56::CharsetRecog_UTF8::`RTTI Complete Object Locator'
PUBLIC	??_R0?AVCharsetRecog_UTF8@icu_56@@@8		; icu_56::CharsetRecog_UTF8 `RTTI Type Descriptor'
PUBLIC	??_R3CharsetRecog_UTF8@icu_56@@8		; icu_56::CharsetRecog_UTF8::`RTTI Class Hierarchy Descriptor'
PUBLIC	??_R2CharsetRecog_UTF8@icu_56@@8		; icu_56::CharsetRecog_UTF8::`RTTI Base Class Array'
PUBLIC	??_R1A@?0A@EA@CharsetRecog_UTF8@icu_56@@8	; icu_56::CharsetRecog_UTF8::`RTTI Base Class Descriptor at (0,-1,0,64)'
PUBLIC	??_R1A@?0A@EA@CharsetRecognizer@icu_56@@8	; icu_56::CharsetRecognizer::`RTTI Base Class Descriptor at (0,-1,0,64)'
PUBLIC	??_R0?AVCharsetRecognizer@icu_56@@@8		; icu_56::CharsetRecognizer `RTTI Type Descriptor'
PUBLIC	??_R3CharsetRecognizer@icu_56@@8		; icu_56::CharsetRecognizer::`RTTI Class Hierarchy Descriptor'
PUBLIC	??_R2CharsetRecognizer@icu_56@@8		; icu_56::CharsetRecognizer::`RTTI Base Class Array'
PUBLIC	??_R13?0A@EA@UMemory@icu_56@@8			; icu_56::UMemory::`RTTI Base Class Descriptor at (4,-1,0,64)'
PUBLIC	??_R0?AVUMemory@icu_56@@@8			; icu_56::UMemory `RTTI Type Descriptor'
PUBLIC	??_R3UMemory@icu_56@@8				; icu_56::UMemory::`RTTI Class Hierarchy Descriptor'
PUBLIC	??_R2UMemory@icu_56@@8				; icu_56::UMemory::`RTTI Base Class Array'
PUBLIC	??_R1A@?0A@EA@UMemory@icu_56@@8			; icu_56::UMemory::`RTTI Base Class Descriptor at (0,-1,0,64)'
PUBLIC	?getName@CharsetRecog_UTF8@icu_56@@UBEPBDXZ	; icu_56::CharsetRecog_UTF8::getName
PUBLIC	?match@CharsetRecog_UTF8@icu_56@@UBECPAVInputText@2@PAVCharsetMatch@2@@Z ; icu_56::CharsetRecog_UTF8::match
EXTRN	??1CharsetRecognizer@icu_56@@UAE@XZ:PROC	; icu_56::CharsetRecognizer::~CharsetRecognizer
EXTRN	__RTC_CheckEsp:PROC
EXTRN	??_7type_info@@6B@:QWORD			; type_info::`vftable'
EXTRN	?getLanguage@CharsetRecognizer@icu_56@@UBEPBDXZ:PROC ; icu_56::CharsetRecognizer::getLanguage
EXTRN	??_ECharsetRecog_UTF8@icu_56@@UAEPAXI@Z:PROC	; icu_56::CharsetRecog_UTF8::`vector deleting destructor'
;	COMDAT ??_R1A@?0A@EA@UMemory@icu_56@@8
; File d:\mozilla\intl\icu\source\i18n\csrutf8.cpp
rdata$r	SEGMENT
??_R1A@?0A@EA@UMemory@icu_56@@8 DD FLAT:??_R0?AVUMemory@icu_56@@@8 ; icu_56::UMemory::`RTTI Base Class Descriptor at (0,-1,0,64)'
	DD	00H
	DD	00H
	DD	0ffffffffH
	DD	00H
	DD	040H
	DD	FLAT:??_R3UMemory@icu_56@@8
rdata$r	ENDS
;	COMDAT ??_R2UMemory@icu_56@@8
rdata$r	SEGMENT
??_R2UMemory@icu_56@@8 DD FLAT:??_R1A@?0A@EA@UMemory@icu_56@@8 ; icu_56::UMemory::`RTTI Base Class Array'
rdata$r	ENDS
;	COMDAT ??_R3UMemory@icu_56@@8
rdata$r	SEGMENT
??_R3UMemory@icu_56@@8 DD 00H				; icu_56::UMemory::`RTTI Class Hierarchy Descriptor'
	DD	00H
	DD	01H
	DD	FLAT:??_R2UMemory@icu_56@@8
rdata$r	ENDS
;	COMDAT ??_R0?AVUMemory@icu_56@@@8
_DATA	SEGMENT
??_R0?AVUMemory@icu_56@@@8 DD FLAT:??_7type_info@@6B@	; icu_56::UMemory `RTTI Type Descriptor'
	DD	00H
	DB	'.?AVUMemory@icu_56@@', 00H
_DATA	ENDS
;	COMDAT ??_R13?0A@EA@UMemory@icu_56@@8
rdata$r	SEGMENT
??_R13?0A@EA@UMemory@icu_56@@8 DD FLAT:??_R0?AVUMemory@icu_56@@@8 ; icu_56::UMemory::`RTTI Base Class Descriptor at (4,-1,0,64)'
	DD	00H
	DD	04H
	DD	0ffffffffH
	DD	00H
	DD	040H
	DD	FLAT:??_R3UMemory@icu_56@@8
rdata$r	ENDS
;	COMDAT ??_R2CharsetRecognizer@icu_56@@8
rdata$r	SEGMENT
??_R2CharsetRecognizer@icu_56@@8 DD FLAT:??_R1A@?0A@EA@CharsetRecognizer@icu_56@@8 ; icu_56::CharsetRecognizer::`RTTI Base Class Array'
	DD	FLAT:??_R13?0A@EA@UMemory@icu_56@@8
rdata$r	ENDS
;	COMDAT ??_R3CharsetRecognizer@icu_56@@8
rdata$r	SEGMENT
??_R3CharsetRecognizer@icu_56@@8 DD 00H			; icu_56::CharsetRecognizer::`RTTI Class Hierarchy Descriptor'
	DD	00H
	DD	02H
	DD	FLAT:??_R2CharsetRecognizer@icu_56@@8
rdata$r	ENDS
;	COMDAT ??_R0?AVCharsetRecognizer@icu_56@@@8
_DATA	SEGMENT
??_R0?AVCharsetRecognizer@icu_56@@@8 DD FLAT:??_7type_info@@6B@ ; icu_56::CharsetRecognizer `RTTI Type Descriptor'
	DD	00H
	DB	'.?AVCharsetRecognizer@icu_56@@', 00H
_DATA	ENDS
;	COMDAT ??_R1A@?0A@EA@CharsetRecognizer@icu_56@@8
rdata$r	SEGMENT
??_R1A@?0A@EA@CharsetRecognizer@icu_56@@8 DD FLAT:??_R0?AVCharsetRecognizer@icu_56@@@8 ; icu_56::CharsetRecognizer::`RTTI Base Class Descriptor at (0,-1,0,64)'
	DD	01H
	DD	00H
	DD	0ffffffffH
	DD	00H
	DD	040H
	DD	FLAT:??_R3CharsetRecognizer@icu_56@@8
rdata$r	ENDS
;	COMDAT ??_R1A@?0A@EA@CharsetRecog_UTF8@icu_56@@8
rdata$r	SEGMENT
??_R1A@?0A@EA@CharsetRecog_UTF8@icu_56@@8 DD FLAT:??_R0?AVCharsetRecog_UTF8@icu_56@@@8 ; icu_56::CharsetRecog_UTF8::`RTTI Base Class Descriptor at (0,-1,0,64)'
	DD	02H
	DD	00H
	DD	0ffffffffH
	DD	00H
	DD	040H
	DD	FLAT:??_R3CharsetRecog_UTF8@icu_56@@8
rdata$r	ENDS
;	COMDAT ??_R2CharsetRecog_UTF8@icu_56@@8
rdata$r	SEGMENT
??_R2CharsetRecog_UTF8@icu_56@@8 DD FLAT:??_R1A@?0A@EA@CharsetRecog_UTF8@icu_56@@8 ; icu_56::CharsetRecog_UTF8::`RTTI Base Class Array'
	DD	FLAT:??_R1A@?0A@EA@CharsetRecognizer@icu_56@@8
	DD	FLAT:??_R13?0A@EA@UMemory@icu_56@@8
rdata$r	ENDS
;	COMDAT ??_R3CharsetRecog_UTF8@icu_56@@8
rdata$r	SEGMENT
??_R3CharsetRecog_UTF8@icu_56@@8 DD 00H			; icu_56::CharsetRecog_UTF8::`RTTI Class Hierarchy Descriptor'
	DD	00H
	DD	03H
	DD	FLAT:??_R2CharsetRecog_UTF8@icu_56@@8
rdata$r	ENDS
;	COMDAT ??_R0?AVCharsetRecog_UTF8@icu_56@@@8
_DATA	SEGMENT
??_R0?AVCharsetRecog_UTF8@icu_56@@@8 DD FLAT:??_7type_info@@6B@ ; icu_56::CharsetRecog_UTF8 `RTTI Type Descriptor'
	DD	00H
	DB	'.?AVCharsetRecog_UTF8@icu_56@@', 00H
_DATA	ENDS
;	COMDAT ??_R4CharsetRecog_UTF8@icu_56@@6B@
rdata$r	SEGMENT
??_R4CharsetRecog_UTF8@icu_56@@6B@ DD 00H		; icu_56::CharsetRecog_UTF8::`RTTI Complete Object Locator'
	DD	00H
	DD	00H
	DD	FLAT:??_R0?AVCharsetRecog_UTF8@icu_56@@@8
	DD	FLAT:??_R3CharsetRecog_UTF8@icu_56@@8
rdata$r	ENDS
;	COMDAT ??_7CharsetRecog_UTF8@icu_56@@6B@
CONST	SEGMENT
??_7CharsetRecog_UTF8@icu_56@@6B@ DD FLAT:??_R4CharsetRecog_UTF8@icu_56@@6B@ ; icu_56::CharsetRecog_UTF8::`vftable'
	DD	FLAT:?getName@CharsetRecog_UTF8@icu_56@@UBEPBDXZ
	DD	FLAT:?getLanguage@CharsetRecognizer@icu_56@@UBEPBDXZ
	DD	FLAT:?match@CharsetRecog_UTF8@icu_56@@UBECPAVInputText@2@PAVCharsetMatch@2@@Z
	DD	FLAT:??_ECharsetRecog_UTF8@icu_56@@UAEPAXI@Z
; Function compile flags: /Odtp /RTCsu /ZI
CONST	ENDS
;	COMDAT ??1CharsetRecog_UTF8@icu_56@@UAE@XZ
_TEXT	SEGMENT
_this$ = -8						; size = 4
??1CharsetRecog_UTF8@icu_56@@UAE@XZ PROC		; icu_56::CharsetRecog_UTF8::~CharsetRecog_UTF8, COMDAT
; _this$ = ecx
; Line 18
	push	ebp
	mov	ebp, esp
	sub	esp, 204				; 000000ccH
	push	ebx
	push	esi
	push	edi
	push	ecx
	lea	edi, DWORD PTR [ebp-204]
	mov	ecx, 51					; 00000033H
	mov	eax, -858993460				; ccccccccH
	rep stosd
	pop	ecx
	mov	DWORD PTR _this$[ebp], ecx
	mov	eax, DWORD PTR _this$[ebp]
	mov	DWORD PTR [eax], OFFSET ??_7CharsetRecog_UTF8@icu_56@@6B@
; Line 20
	mov	ecx, DWORD PTR _this$[ebp]
	call	??1CharsetRecognizer@icu_56@@UAE@XZ	; icu_56::CharsetRecognizer::~CharsetRecognizer
	pop	edi
	pop	esi
	pop	ebx
	add	esp, 204				; 000000ccH
	cmp	ebp, esp
	call	__RTC_CheckEsp
	mov	esp, ebp
	pop	ebp
	ret	0
??1CharsetRecog_UTF8@icu_56@@UAE@XZ ENDP		; icu_56::CharsetRecog_UTF8::~CharsetRecog_UTF8
_TEXT	ENDS
EXTRN	__imp_??3UMemory@icu_56@@SAXPAX@Z:PROC
; Function compile flags: /Odtp /RTCsu /ZI
;	COMDAT ??_GCharsetRecog_UTF8@icu_56@@UAEPAXI@Z
_TEXT	SEGMENT
_this$ = -8						; size = 4
___flags$ = 8						; size = 4
??_GCharsetRecog_UTF8@icu_56@@UAEPAXI@Z PROC		; icu_56::CharsetRecog_UTF8::`scalar deleting destructor', COMDAT
; _this$ = ecx
	push	ebp
	mov	ebp, esp
	sub	esp, 204				; 000000ccH
	push	ebx
	push	esi
	push	edi
	push	ecx
	lea	edi, DWORD PTR [ebp-204]
	mov	ecx, 51					; 00000033H
	mov	eax, -858993460				; ccccccccH
	rep stosd
	pop	ecx
	mov	DWORD PTR _this$[ebp], ecx
	mov	ecx, DWORD PTR _this$[ebp]
	call	??1CharsetRecog_UTF8@icu_56@@UAE@XZ	; icu_56::CharsetRecog_UTF8::~CharsetRecog_UTF8
	mov	eax, DWORD PTR ___flags$[ebp]
	and	eax, 1
	je	SHORT $LN1@scalar
	mov	esi, esp
	mov	eax, DWORD PTR _this$[ebp]
	push	eax
	call	DWORD PTR __imp_??3UMemory@icu_56@@SAXPAX@Z
	add	esp, 4
	cmp	esi, esp
	call	__RTC_CheckEsp
$LN1@scalar:
	mov	eax, DWORD PTR _this$[ebp]
	pop	edi
	pop	esi
	pop	ebx
	add	esp, 204				; 000000ccH
	cmp	ebp, esp
	call	__RTC_CheckEsp
	mov	esp, ebp
	pop	ebp
	ret	4
??_GCharsetRecog_UTF8@icu_56@@UAEPAXI@Z ENDP		; icu_56::CharsetRecog_UTF8::`scalar deleting destructor'
_TEXT	ENDS
PUBLIC	??_C@_05EGJIMALK@UTF?98?$AA@			; `string'
;	COMDAT ??_C@_05EGJIMALK@UTF?98?$AA@
CONST	SEGMENT
??_C@_05EGJIMALK@UTF?98?$AA@ DB 'UTF-8', 00H		; `string'
; Function compile flags: /Odtp /RTCsu /ZI
CONST	ENDS
;	COMDAT ?getName@CharsetRecog_UTF8@icu_56@@UBEPBDXZ
_TEXT	SEGMENT
_this$ = -8						; size = 4
?getName@CharsetRecog_UTF8@icu_56@@UBEPBDXZ PROC	; icu_56::CharsetRecog_UTF8::getName, COMDAT
; _this$ = ecx
; Line 23
	push	ebp
	mov	ebp, esp
	sub	esp, 204				; 000000ccH
	push	ebx
	push	esi
	push	edi
	push	ecx
	lea	edi, DWORD PTR [ebp-204]
	mov	ecx, 51					; 00000033H
	mov	eax, -858993460				; ccccccccH
	rep stosd
	pop	ecx
	mov	DWORD PTR _this$[ebp], ecx
; Line 24
	mov	eax, OFFSET ??_C@_05EGJIMALK@UTF?98?$AA@
; Line 25
	pop	edi
	pop	esi
	pop	ebx
	mov	esp, ebp
	pop	ebp
	ret	0
?getName@CharsetRecog_UTF8@icu_56@@UBEPBDXZ ENDP	; icu_56::CharsetRecog_UTF8::getName
_TEXT	ENDS
EXTRN	?set@CharsetMatch@icu_56@@QAEXPAVInputText@2@PBVCharsetRecognizer@2@HPBD2@Z:PROC ; icu_56::CharsetMatch::set
; Function compile flags: /Odtp /RTCsu /ZI
;	COMDAT ?match@CharsetRecog_UTF8@icu_56@@UBECPAVInputText@2@PAVCharsetMatch@2@@Z
_TEXT	SEGMENT
_b$6473 = -104						; size = 4
_confidence$ = -92					; size = 4
_trailBytes$ = -80					; size = 4
_i$ = -68						; size = 4
_inputBytes$ = -56					; size = 4
_numInvalid$ = -44					; size = 4
_numValid$ = -32					; size = 4
_hasBOM$ = -17						; size = 1
_this$ = -8						; size = 4
_input$ = 8						; size = 4
_results$ = 12						; size = 4
?match@CharsetRecog_UTF8@icu_56@@UBECPAVInputText@2@PAVCharsetMatch@2@@Z PROC ; icu_56::CharsetRecog_UTF8::match, COMDAT
; _this$ = ecx
; Line 27
	push	ebp
	mov	ebp, esp
	sub	esp, 300				; 0000012cH
	push	ebx
	push	esi
	push	edi
	push	ecx
	lea	edi, DWORD PTR [ebp-300]
	mov	ecx, 75					; 0000004bH
	mov	eax, -858993460				; ccccccccH
	rep stosd
	pop	ecx
	mov	DWORD PTR _this$[ebp], ecx
; Line 28
	mov	BYTE PTR _hasBOM$[ebp], 0
; Line 29
	mov	DWORD PTR _numValid$[ebp], 0
; Line 30
	mov	DWORD PTR _numInvalid$[ebp], 0
; Line 31
	mov	eax, DWORD PTR _input$[ebp]
	mov	ecx, DWORD PTR [eax+20]
	mov	DWORD PTR _inputBytes$[ebp], ecx
; Line 33
	mov	DWORD PTR _trailBytes$[ebp], 0
; Line 37
	mov	eax, DWORD PTR _input$[ebp]
	cmp	DWORD PTR [eax+24], 3
	jl	SHORT $LN27@match
	mov	eax, DWORD PTR _inputBytes$[ebp]
	movzx	ecx, BYTE PTR [eax]
	cmp	ecx, 239				; 000000efH
	jne	SHORT $LN27@match
	mov	eax, DWORD PTR _inputBytes$[ebp]
	movzx	ecx, BYTE PTR [eax+1]
	cmp	ecx, 187				; 000000bbH
	jne	SHORT $LN27@match
	mov	eax, DWORD PTR _inputBytes$[ebp]
	movzx	ecx, BYTE PTR [eax+2]
	cmp	ecx, 191				; 000000bfH
	jne	SHORT $LN27@match
; Line 38
	mov	BYTE PTR _hasBOM$[ebp], 1
$LN27@match:
; Line 42
	mov	DWORD PTR _i$[ebp], 0
	jmp	SHORT $LN26@match
$LN25@match:
	mov	eax, DWORD PTR _i$[ebp]
	add	eax, 1
	mov	DWORD PTR _i$[ebp], eax
$LN26@match:
	mov	eax, DWORD PTR _input$[ebp]
	mov	ecx, DWORD PTR _i$[ebp]
	cmp	ecx, DWORD PTR [eax+24]
	jge	$LN24@match
; Line 43
	mov	eax, DWORD PTR _inputBytes$[ebp]
	add	eax, DWORD PTR _i$[ebp]
	movzx	ecx, BYTE PTR [eax]
	mov	DWORD PTR _b$6473[ebp], ecx
; Line 45
	mov	eax, DWORD PTR _b$6473[ebp]
	and	eax, 128				; 00000080H
	jne	SHORT $LN23@match
; Line 46
	jmp	SHORT $LN25@match
$LN23@match:
; Line 50
	mov	eax, DWORD PTR _b$6473[ebp]
	and	eax, 224				; 000000e0H
	cmp	eax, 192				; 000000c0H
	jne	SHORT $LN22@match
; Line 51
	mov	DWORD PTR _trailBytes$[ebp], 1
	jmp	SHORT $LN16@match
$LN22@match:
; Line 52
	mov	eax, DWORD PTR _b$6473[ebp]
	and	eax, 240				; 000000f0H
	cmp	eax, 224				; 000000e0H
	jne	SHORT $LN20@match
; Line 53
	mov	DWORD PTR _trailBytes$[ebp], 2
	jmp	SHORT $LN16@match
$LN20@match:
; Line 54
	mov	eax, DWORD PTR _b$6473[ebp]
	and	eax, 248				; 000000f8H
	cmp	eax, 240				; 000000f0H
	jne	SHORT $LN18@match
; Line 55
	mov	DWORD PTR _trailBytes$[ebp], 3
; Line 56
	jmp	SHORT $LN16@match
$LN18@match:
; Line 57
	mov	eax, DWORD PTR _numInvalid$[ebp]
	add	eax, 1
	mov	DWORD PTR _numInvalid$[ebp], eax
; Line 58
	jmp	$LN25@match
$LN16@match:
; Line 63
	mov	eax, DWORD PTR _i$[ebp]
	add	eax, 1
	mov	DWORD PTR _i$[ebp], eax
; Line 65
	mov	eax, DWORD PTR _input$[ebp]
	mov	ecx, DWORD PTR _i$[ebp]
	cmp	ecx, DWORD PTR [eax+24]
	jl	SHORT $LN14@match
; Line 66
	jmp	SHORT $LN15@match
$LN14@match:
; Line 69
	mov	eax, DWORD PTR _inputBytes$[ebp]
	add	eax, DWORD PTR _i$[ebp]
	movzx	ecx, BYTE PTR [eax]
	mov	DWORD PTR _b$6473[ebp], ecx
; Line 71
	mov	eax, DWORD PTR _b$6473[ebp]
	and	eax, 192				; 000000c0H
	cmp	eax, 128				; 00000080H
	je	SHORT $LN13@match
; Line 72
	mov	eax, DWORD PTR _numInvalid$[ebp]
	add	eax, 1
	mov	DWORD PTR _numInvalid$[ebp], eax
; Line 73
	jmp	SHORT $LN15@match
$LN13@match:
; Line 76
	mov	eax, DWORD PTR _trailBytes$[ebp]
	sub	eax, 1
	mov	DWORD PTR _trailBytes$[ebp], eax
	jne	SHORT $LN12@match
; Line 77
	mov	eax, DWORD PTR _numValid$[ebp]
	add	eax, 1
	mov	DWORD PTR _numValid$[ebp], eax
; Line 78
	jmp	SHORT $LN15@match
$LN12@match:
; Line 80
	jmp	SHORT $LN16@match
$LN15@match:
; Line 82
	jmp	$LN25@match
$LN24@match:
; Line 86
	mov	DWORD PTR _confidence$[ebp], 0
; Line 87
	movzx	eax, BYTE PTR _hasBOM$[ebp]
	test	eax, eax
	je	SHORT $LN11@match
	cmp	DWORD PTR _numInvalid$[ebp], 0
	jne	SHORT $LN11@match
; Line 88
	mov	DWORD PTR _confidence$[ebp], 100	; 00000064H
	jmp	SHORT $LN10@match
$LN11@match:
; Line 89
	movzx	eax, BYTE PTR _hasBOM$[ebp]
	test	eax, eax
	je	SHORT $LN9@match
	mov	eax, DWORD PTR _numInvalid$[ebp]
	imul	eax, 10					; 0000000aH
	cmp	DWORD PTR _numValid$[ebp], eax
	jle	SHORT $LN9@match
; Line 90
	mov	DWORD PTR _confidence$[ebp], 80		; 00000050H
	jmp	SHORT $LN10@match
$LN9@match:
; Line 91
	cmp	DWORD PTR _numValid$[ebp], 3
	jle	SHORT $LN7@match
	cmp	DWORD PTR _numInvalid$[ebp], 0
	jne	SHORT $LN7@match
; Line 92
	mov	DWORD PTR _confidence$[ebp], 100	; 00000064H
	jmp	SHORT $LN10@match
$LN7@match:
; Line 93
	cmp	DWORD PTR _numValid$[ebp], 0
	jle	SHORT $LN5@match
	cmp	DWORD PTR _numInvalid$[ebp], 0
	jne	SHORT $LN5@match
; Line 94
	mov	DWORD PTR _confidence$[ebp], 80		; 00000050H
	jmp	SHORT $LN10@match
$LN5@match:
; Line 95
	cmp	DWORD PTR _numValid$[ebp], 0
	jne	SHORT $LN3@match
	cmp	DWORD PTR _numInvalid$[ebp], 0
	jne	SHORT $LN3@match
; Line 98
	mov	DWORD PTR _confidence$[ebp], 15		; 0000000fH
	jmp	SHORT $LN10@match
$LN3@match:
; Line 99
	mov	eax, DWORD PTR _numInvalid$[ebp]
	imul	eax, 10					; 0000000aH
	cmp	DWORD PTR _numValid$[ebp], eax
	jle	SHORT $LN10@match
; Line 101
	mov	DWORD PTR _confidence$[ebp], 25		; 00000019H
$LN10@match:
; Line 104
	push	0
	push	0
	mov	eax, DWORD PTR _confidence$[ebp]
	push	eax
	mov	ecx, DWORD PTR _this$[ebp]
	push	ecx
	mov	edx, DWORD PTR _input$[ebp]
	push	edx
	mov	ecx, DWORD PTR _results$[ebp]
	call	?set@CharsetMatch@icu_56@@QAEXPAVInputText@2@PBVCharsetRecognizer@2@HPBD2@Z ; icu_56::CharsetMatch::set
; Line 105
	cmp	DWORD PTR _confidence$[ebp], 0
	setg	al
; Line 106
	pop	edi
	pop	esi
	pop	ebx
	add	esp, 300				; 0000012cH
	cmp	ebp, esp
	call	__RTC_CheckEsp
	mov	esp, ebp
	pop	ebp
	ret	8
?match@CharsetRecog_UTF8@icu_56@@UBECPAVInputText@2@PAVCharsetMatch@2@@Z ENDP ; icu_56::CharsetRecog_UTF8::match
_TEXT	ENDS
END
