; Listing generated by Microsoft (R) Optimizing Compiler Version 16.00.40219.01 

	TITLE	D:\mozilla\intl\icu\source\i18n\decimfmt.cpp
	.686P
	.XMM
	include listing.inc
	.model	flat

INCLUDELIB MSVCRTD
INCLUDELIB OLDNAMES

PUBLIC	?value@?$integral_constant@_N$0A@@tr1@std@@2_NB	; std::tr1::integral_constant<bool,0>::value
PUBLIC	?value@?$integral_constant@_N$00@tr1@std@@2_NB	; std::tr1::integral_constant<bool,1>::value
PUBLIC	?value@?$integral_constant@I$0A@@tr1@std@@2IB	; std::tr1::integral_constant<unsigned int,0>::value
PUBLIC	?_Rank@?$_Arithmetic_traits@_N@std@@2HB		; std::_Arithmetic_traits<bool>::_Rank
PUBLIC	?_Rank@?$_Arithmetic_traits@D@std@@2HB		; std::_Arithmetic_traits<char>::_Rank
PUBLIC	?_Rank@?$_Arithmetic_traits@C@std@@2HB		; std::_Arithmetic_traits<signed char>::_Rank
PUBLIC	?_Rank@?$_Arithmetic_traits@E@std@@2HB		; std::_Arithmetic_traits<unsigned char>::_Rank
PUBLIC	?_Rank@?$_Arithmetic_traits@F@std@@2HB		; std::_Arithmetic_traits<short>::_Rank
PUBLIC	?_Rank@?$_Arithmetic_traits@G@std@@2HB		; std::_Arithmetic_traits<unsigned short>::_Rank
PUBLIC	?_Rank@?$_Arithmetic_traits@H@std@@2HB		; std::_Arithmetic_traits<int>::_Rank
PUBLIC	?_Rank@?$_Arithmetic_traits@I@std@@2HB		; std::_Arithmetic_traits<unsigned int>::_Rank
PUBLIC	?_Rank@?$_Arithmetic_traits@J@std@@2HB		; std::_Arithmetic_traits<long>::_Rank
PUBLIC	?_Rank@?$_Arithmetic_traits@K@std@@2HB		; std::_Arithmetic_traits<unsigned long>::_Rank
PUBLIC	?_Rank@?$_Arithmetic_traits@_J@std@@2HB		; std::_Arithmetic_traits<__int64>::_Rank
PUBLIC	?_Rank@?$_Arithmetic_traits@_K@std@@2HB		; std::_Arithmetic_traits<unsigned __int64>::_Rank
PUBLIC	?_Rank@?$_Arithmetic_traits@M@std@@2HB		; std::_Arithmetic_traits<float>::_Rank
PUBLIC	?_Rank@?$_Arithmetic_traits@N@std@@2HB		; std::_Arithmetic_traits<double>::_Rank
PUBLIC	?_Rank@?$_Arithmetic_traits@O@std@@2HB		; std::_Arithmetic_traits<long double>::_Rank
PUBLIC	?collate@?$_Locbase@H@std@@2HB			; std::_Locbase<int>::collate
PUBLIC	?ctype@?$_Locbase@H@std@@2HB			; std::_Locbase<int>::ctype
PUBLIC	?monetary@?$_Locbase@H@std@@2HB			; std::_Locbase<int>::monetary
PUBLIC	?numeric@?$_Locbase@H@std@@2HB			; std::_Locbase<int>::numeric
PUBLIC	?time@?$_Locbase@H@std@@2HB			; std::_Locbase<int>::time
PUBLIC	?messages@?$_Locbase@H@std@@2HB			; std::_Locbase<int>::messages
PUBLIC	?all@?$_Locbase@H@std@@2HB			; std::_Locbase<int>::all
PUBLIC	?none@?$_Locbase@H@std@@2HB			; std::_Locbase<int>::none
PUBLIC	?skipws@?$_Iosb@H@std@@2W4_Fmtflags@12@B	; std::_Iosb<int>::skipws
PUBLIC	?unitbuf@?$_Iosb@H@std@@2W4_Fmtflags@12@B	; std::_Iosb<int>::unitbuf
PUBLIC	?uppercase@?$_Iosb@H@std@@2W4_Fmtflags@12@B	; std::_Iosb<int>::uppercase
PUBLIC	?showbase@?$_Iosb@H@std@@2W4_Fmtflags@12@B	; std::_Iosb<int>::showbase
PUBLIC	?showpoint@?$_Iosb@H@std@@2W4_Fmtflags@12@B	; std::_Iosb<int>::showpoint
PUBLIC	?showpos@?$_Iosb@H@std@@2W4_Fmtflags@12@B	; std::_Iosb<int>::showpos
PUBLIC	?left@?$_Iosb@H@std@@2W4_Fmtflags@12@B		; std::_Iosb<int>::left
PUBLIC	?right@?$_Iosb@H@std@@2W4_Fmtflags@12@B		; std::_Iosb<int>::right
PUBLIC	?internal@?$_Iosb@H@std@@2W4_Fmtflags@12@B	; std::_Iosb<int>::internal
PUBLIC	?dec@?$_Iosb@H@std@@2W4_Fmtflags@12@B		; std::_Iosb<int>::dec
PUBLIC	?oct@?$_Iosb@H@std@@2W4_Fmtflags@12@B		; std::_Iosb<int>::oct
PUBLIC	?hex@?$_Iosb@H@std@@2W4_Fmtflags@12@B		; std::_Iosb<int>::hex
PUBLIC	?scientific@?$_Iosb@H@std@@2W4_Fmtflags@12@B	; std::_Iosb<int>::scientific
PUBLIC	?fixed@?$_Iosb@H@std@@2W4_Fmtflags@12@B		; std::_Iosb<int>::fixed
PUBLIC	?hexfloat@?$_Iosb@H@std@@2W4_Fmtflags@12@B	; std::_Iosb<int>::hexfloat
PUBLIC	?boolalpha@?$_Iosb@H@std@@2W4_Fmtflags@12@B	; std::_Iosb<int>::boolalpha
PUBLIC	?_Stdio@?$_Iosb@H@std@@2W4_Fmtflags@12@B	; std::_Iosb<int>::_Stdio
PUBLIC	?adjustfield@?$_Iosb@H@std@@2W4_Fmtflags@12@B	; std::_Iosb<int>::adjustfield
PUBLIC	?basefield@?$_Iosb@H@std@@2W4_Fmtflags@12@B	; std::_Iosb<int>::basefield
PUBLIC	?floatfield@?$_Iosb@H@std@@2W4_Fmtflags@12@B	; std::_Iosb<int>::floatfield
PUBLIC	?goodbit@?$_Iosb@H@std@@2W4_Iostate@12@B	; std::_Iosb<int>::goodbit
PUBLIC	?eofbit@?$_Iosb@H@std@@2W4_Iostate@12@B		; std::_Iosb<int>::eofbit
PUBLIC	?failbit@?$_Iosb@H@std@@2W4_Iostate@12@B	; std::_Iosb<int>::failbit
PUBLIC	?badbit@?$_Iosb@H@std@@2W4_Iostate@12@B		; std::_Iosb<int>::badbit
PUBLIC	?_Hardfail@?$_Iosb@H@std@@2W4_Iostate@12@B	; std::_Iosb<int>::_Hardfail
PUBLIC	?in@?$_Iosb@H@std@@2W4_Openmode@12@B		; std::_Iosb<int>::in
PUBLIC	?out@?$_Iosb@H@std@@2W4_Openmode@12@B		; std::_Iosb<int>::out
PUBLIC	?ate@?$_Iosb@H@std@@2W4_Openmode@12@B		; std::_Iosb<int>::ate
PUBLIC	?app@?$_Iosb@H@std@@2W4_Openmode@12@B		; std::_Iosb<int>::app
PUBLIC	?trunc@?$_Iosb@H@std@@2W4_Openmode@12@B		; std::_Iosb<int>::trunc
PUBLIC	?_Nocreate@?$_Iosb@H@std@@2W4_Openmode@12@B	; std::_Iosb<int>::_Nocreate
PUBLIC	?_Noreplace@?$_Iosb@H@std@@2W4_Openmode@12@B	; std::_Iosb<int>::_Noreplace
PUBLIC	?binary@?$_Iosb@H@std@@2W4_Openmode@12@B	; std::_Iosb<int>::binary
PUBLIC	?beg@?$_Iosb@H@std@@2W4_Seekdir@12@B		; std::_Iosb<int>::beg
PUBLIC	?cur@?$_Iosb@H@std@@2W4_Seekdir@12@B		; std::_Iosb<int>::cur
PUBLIC	?end@?$_Iosb@H@std@@2W4_Seekdir@12@B		; std::_Iosb<int>::end
PUBLIC	?kDoubleIntegerDigits@DecimalFormat@icu_56@@1HB	; icu_56::DecimalFormat::kDoubleIntegerDigits
PUBLIC	?kDoubleFractionDigits@DecimalFormat@icu_56@@1HB ; icu_56::DecimalFormat::kDoubleFractionDigits
PUBLIC	?kMaxScientificIntegerDigits@DecimalFormat@icu_56@@1HB ; icu_56::DecimalFormat::kMaxScientificIntegerDigits
PUBLIC	?fgNumberPatterns@DecimalFormat@icu_56@@2QBDB	; icu_56::DecimalFormat::fgNumberPatterns
_BSS	SEGMENT
?classID@?1??getStaticClassID@DecimalFormat@icu_56@@SAPAXXZ@4DA DB 01H DUP (?) ; `icu_56::DecimalFormat::getStaticClassID'::`2'::classID
_BSS	ENDS
CONST	SEGMENT
?kDoubleIntegerDigits@DecimalFormat@icu_56@@1HB DD 0135H ; icu_56::DecimalFormat::kDoubleIntegerDigits
?kDoubleFractionDigits@DecimalFormat@icu_56@@1HB DD 0154H ; icu_56::DecimalFormat::kDoubleFractionDigits
?kMaxScientificIntegerDigits@DecimalFormat@icu_56@@1HB DD 08H ; icu_56::DecimalFormat::kMaxScientificIntegerDigits
?fgNumberPatterns@DecimalFormat@icu_56@@2QBDB DB 'NumberPatterns', 00H ; icu_56::DecimalFormat::fgNumberPatterns
	ORG $+1
_fgNumberElements DB 'NumberElements', 00H
	ORG $+1
_fgLatn	DB	'latn', 00H
	ORG $+3
_fgPatterns DB	'patterns', 00H
	ORG $+3
_fgDecimalFormat DB 'decimalFormat', 00H
	ORG $+2
_fgCurrencyFormat DB 'currencyFormat', 00H
CONST	ENDS
;	COMDAT ?end@?$_Iosb@H@std@@2W4_Seekdir@12@B
CONST	SEGMENT
?end@?$_Iosb@H@std@@2W4_Seekdir@12@B DD 02H		; std::_Iosb<int>::end
CONST	ENDS
;	COMDAT ?cur@?$_Iosb@H@std@@2W4_Seekdir@12@B
CONST	SEGMENT
?cur@?$_Iosb@H@std@@2W4_Seekdir@12@B DD 01H		; std::_Iosb<int>::cur
CONST	ENDS
;	COMDAT ?beg@?$_Iosb@H@std@@2W4_Seekdir@12@B
CONST	SEGMENT
?beg@?$_Iosb@H@std@@2W4_Seekdir@12@B DD 00H		; std::_Iosb<int>::beg
CONST	ENDS
;	COMDAT ?binary@?$_Iosb@H@std@@2W4_Openmode@12@B
CONST	SEGMENT
?binary@?$_Iosb@H@std@@2W4_Openmode@12@B DD 020H	; std::_Iosb<int>::binary
CONST	ENDS
;	COMDAT ?_Noreplace@?$_Iosb@H@std@@2W4_Openmode@12@B
CONST	SEGMENT
?_Noreplace@?$_Iosb@H@std@@2W4_Openmode@12@B DD 080H	; std::_Iosb<int>::_Noreplace
CONST	ENDS
;	COMDAT ?_Nocreate@?$_Iosb@H@std@@2W4_Openmode@12@B
CONST	SEGMENT
?_Nocreate@?$_Iosb@H@std@@2W4_Openmode@12@B DD 040H	; std::_Iosb<int>::_Nocreate
CONST	ENDS
;	COMDAT ?trunc@?$_Iosb@H@std@@2W4_Openmode@12@B
CONST	SEGMENT
?trunc@?$_Iosb@H@std@@2W4_Openmode@12@B DD 010H		; std::_Iosb<int>::trunc
CONST	ENDS
;	COMDAT ?app@?$_Iosb@H@std@@2W4_Openmode@12@B
CONST	SEGMENT
?app@?$_Iosb@H@std@@2W4_Openmode@12@B DD 08H		; std::_Iosb<int>::app
CONST	ENDS
;	COMDAT ?ate@?$_Iosb@H@std@@2W4_Openmode@12@B
CONST	SEGMENT
?ate@?$_Iosb@H@std@@2W4_Openmode@12@B DD 04H		; std::_Iosb<int>::ate
CONST	ENDS
;	COMDAT ?out@?$_Iosb@H@std@@2W4_Openmode@12@B
CONST	SEGMENT
?out@?$_Iosb@H@std@@2W4_Openmode@12@B DD 02H		; std::_Iosb<int>::out
CONST	ENDS
;	COMDAT ?in@?$_Iosb@H@std@@2W4_Openmode@12@B
CONST	SEGMENT
?in@?$_Iosb@H@std@@2W4_Openmode@12@B DD 01H		; std::_Iosb<int>::in
CONST	ENDS
;	COMDAT ?_Hardfail@?$_Iosb@H@std@@2W4_Iostate@12@B
CONST	SEGMENT
?_Hardfail@?$_Iosb@H@std@@2W4_Iostate@12@B DD 010H	; std::_Iosb<int>::_Hardfail
CONST	ENDS
;	COMDAT ?badbit@?$_Iosb@H@std@@2W4_Iostate@12@B
CONST	SEGMENT
?badbit@?$_Iosb@H@std@@2W4_Iostate@12@B DD 04H		; std::_Iosb<int>::badbit
CONST	ENDS
;	COMDAT ?failbit@?$_Iosb@H@std@@2W4_Iostate@12@B
CONST	SEGMENT
?failbit@?$_Iosb@H@std@@2W4_Iostate@12@B DD 02H		; std::_Iosb<int>::failbit
CONST	ENDS
;	COMDAT ?eofbit@?$_Iosb@H@std@@2W4_Iostate@12@B
CONST	SEGMENT
?eofbit@?$_Iosb@H@std@@2W4_Iostate@12@B DD 01H		; std::_Iosb<int>::eofbit
CONST	ENDS
;	COMDAT ?goodbit@?$_Iosb@H@std@@2W4_Iostate@12@B
CONST	SEGMENT
?goodbit@?$_Iosb@H@std@@2W4_Iostate@12@B DD 00H		; std::_Iosb<int>::goodbit
CONST	ENDS
;	COMDAT ?floatfield@?$_Iosb@H@std@@2W4_Fmtflags@12@B
CONST	SEGMENT
?floatfield@?$_Iosb@H@std@@2W4_Fmtflags@12@B DD 03000H	; std::_Iosb<int>::floatfield
CONST	ENDS
;	COMDAT ?basefield@?$_Iosb@H@std@@2W4_Fmtflags@12@B
CONST	SEGMENT
?basefield@?$_Iosb@H@std@@2W4_Fmtflags@12@B DD 0e00H	; std::_Iosb<int>::basefield
CONST	ENDS
;	COMDAT ?adjustfield@?$_Iosb@H@std@@2W4_Fmtflags@12@B
CONST	SEGMENT
?adjustfield@?$_Iosb@H@std@@2W4_Fmtflags@12@B DD 01c0H	; std::_Iosb<int>::adjustfield
CONST	ENDS
;	COMDAT ?_Stdio@?$_Iosb@H@std@@2W4_Fmtflags@12@B
CONST	SEGMENT
?_Stdio@?$_Iosb@H@std@@2W4_Fmtflags@12@B DD 08000H	; std::_Iosb<int>::_Stdio
CONST	ENDS
;	COMDAT ?boolalpha@?$_Iosb@H@std@@2W4_Fmtflags@12@B
CONST	SEGMENT
?boolalpha@?$_Iosb@H@std@@2W4_Fmtflags@12@B DD 04000H	; std::_Iosb<int>::boolalpha
CONST	ENDS
;	COMDAT ?hexfloat@?$_Iosb@H@std@@2W4_Fmtflags@12@B
CONST	SEGMENT
?hexfloat@?$_Iosb@H@std@@2W4_Fmtflags@12@B DD 03000H	; std::_Iosb<int>::hexfloat
CONST	ENDS
;	COMDAT ?fixed@?$_Iosb@H@std@@2W4_Fmtflags@12@B
CONST	SEGMENT
?fixed@?$_Iosb@H@std@@2W4_Fmtflags@12@B DD 02000H	; std::_Iosb<int>::fixed
CONST	ENDS
;	COMDAT ?scientific@?$_Iosb@H@std@@2W4_Fmtflags@12@B
CONST	SEGMENT
?scientific@?$_Iosb@H@std@@2W4_Fmtflags@12@B DD 01000H	; std::_Iosb<int>::scientific
CONST	ENDS
;	COMDAT ?hex@?$_Iosb@H@std@@2W4_Fmtflags@12@B
CONST	SEGMENT
?hex@?$_Iosb@H@std@@2W4_Fmtflags@12@B DD 0800H		; std::_Iosb<int>::hex
CONST	ENDS
;	COMDAT ?oct@?$_Iosb@H@std@@2W4_Fmtflags@12@B
CONST	SEGMENT
?oct@?$_Iosb@H@std@@2W4_Fmtflags@12@B DD 0400H		; std::_Iosb<int>::oct
CONST	ENDS
;	COMDAT ?dec@?$_Iosb@H@std@@2W4_Fmtflags@12@B
CONST	SEGMENT
?dec@?$_Iosb@H@std@@2W4_Fmtflags@12@B DD 0200H		; std::_Iosb<int>::dec
CONST	ENDS
;	COMDAT ?internal@?$_Iosb@H@std@@2W4_Fmtflags@12@B
CONST	SEGMENT
?internal@?$_Iosb@H@std@@2W4_Fmtflags@12@B DD 0100H	; std::_Iosb<int>::internal
CONST	ENDS
;	COMDAT ?right@?$_Iosb@H@std@@2W4_Fmtflags@12@B
CONST	SEGMENT
?right@?$_Iosb@H@std@@2W4_Fmtflags@12@B DD 080H		; std::_Iosb<int>::right
CONST	ENDS
;	COMDAT ?left@?$_Iosb@H@std@@2W4_Fmtflags@12@B
CONST	SEGMENT
?left@?$_Iosb@H@std@@2W4_Fmtflags@12@B DD 040H		; std::_Iosb<int>::left
CONST	ENDS
;	COMDAT ?showpos@?$_Iosb@H@std@@2W4_Fmtflags@12@B
CONST	SEGMENT
?showpos@?$_Iosb@H@std@@2W4_Fmtflags@12@B DD 020H	; std::_Iosb<int>::showpos
CONST	ENDS
;	COMDAT ?showpoint@?$_Iosb@H@std@@2W4_Fmtflags@12@B
CONST	SEGMENT
?showpoint@?$_Iosb@H@std@@2W4_Fmtflags@12@B DD 010H	; std::_Iosb<int>::showpoint
CONST	ENDS
;	COMDAT ?showbase@?$_Iosb@H@std@@2W4_Fmtflags@12@B
CONST	SEGMENT
?showbase@?$_Iosb@H@std@@2W4_Fmtflags@12@B DD 08H	; std::_Iosb<int>::showbase
CONST	ENDS
;	COMDAT ?uppercase@?$_Iosb@H@std@@2W4_Fmtflags@12@B
CONST	SEGMENT
?uppercase@?$_Iosb@H@std@@2W4_Fmtflags@12@B DD 04H	; std::_Iosb<int>::uppercase
CONST	ENDS
;	COMDAT ?unitbuf@?$_Iosb@H@std@@2W4_Fmtflags@12@B
CONST	SEGMENT
?unitbuf@?$_Iosb@H@std@@2W4_Fmtflags@12@B DD 02H	; std::_Iosb<int>::unitbuf
CONST	ENDS
;	COMDAT ?skipws@?$_Iosb@H@std@@2W4_Fmtflags@12@B
CONST	SEGMENT
?skipws@?$_Iosb@H@std@@2W4_Fmtflags@12@B DD 01H		; std::_Iosb<int>::skipws
CONST	ENDS
;	COMDAT ?none@?$_Locbase@H@std@@2HB
CONST	SEGMENT
?none@?$_Locbase@H@std@@2HB DD 00H			; std::_Locbase<int>::none
CONST	ENDS
;	COMDAT ?all@?$_Locbase@H@std@@2HB
CONST	SEGMENT
?all@?$_Locbase@H@std@@2HB DD 03fH			; std::_Locbase<int>::all
CONST	ENDS
;	COMDAT ?messages@?$_Locbase@H@std@@2HB
CONST	SEGMENT
?messages@?$_Locbase@H@std@@2HB DD 020H			; std::_Locbase<int>::messages
CONST	ENDS
;	COMDAT ?time@?$_Locbase@H@std@@2HB
CONST	SEGMENT
?time@?$_Locbase@H@std@@2HB DD 010H			; std::_Locbase<int>::time
CONST	ENDS
;	COMDAT ?numeric@?$_Locbase@H@std@@2HB
CONST	SEGMENT
?numeric@?$_Locbase@H@std@@2HB DD 08H			; std::_Locbase<int>::numeric
CONST	ENDS
;	COMDAT ?monetary@?$_Locbase@H@std@@2HB
CONST	SEGMENT
?monetary@?$_Locbase@H@std@@2HB DD 04H			; std::_Locbase<int>::monetary
CONST	ENDS
;	COMDAT ?ctype@?$_Locbase@H@std@@2HB
CONST	SEGMENT
?ctype@?$_Locbase@H@std@@2HB DD 02H			; std::_Locbase<int>::ctype
CONST	ENDS
;	COMDAT ?collate@?$_Locbase@H@std@@2HB
CONST	SEGMENT
?collate@?$_Locbase@H@std@@2HB DD 01H			; std::_Locbase<int>::collate
CONST	ENDS
;	COMDAT ?_Rank@?$_Arithmetic_traits@O@std@@2HB
CONST	SEGMENT
?_Rank@?$_Arithmetic_traits@O@std@@2HB DD 09H		; std::_Arithmetic_traits<long double>::_Rank
CONST	ENDS
;	COMDAT ?_Rank@?$_Arithmetic_traits@N@std@@2HB
CONST	SEGMENT
?_Rank@?$_Arithmetic_traits@N@std@@2HB DD 08H		; std::_Arithmetic_traits<double>::_Rank
CONST	ENDS
;	COMDAT ?_Rank@?$_Arithmetic_traits@M@std@@2HB
CONST	SEGMENT
?_Rank@?$_Arithmetic_traits@M@std@@2HB DD 07H		; std::_Arithmetic_traits<float>::_Rank
CONST	ENDS
;	COMDAT ?_Rank@?$_Arithmetic_traits@_K@std@@2HB
CONST	SEGMENT
?_Rank@?$_Arithmetic_traits@_K@std@@2HB DD 06H		; std::_Arithmetic_traits<unsigned __int64>::_Rank
CONST	ENDS
;	COMDAT ?_Rank@?$_Arithmetic_traits@_J@std@@2HB
CONST	SEGMENT
?_Rank@?$_Arithmetic_traits@_J@std@@2HB DD 06H		; std::_Arithmetic_traits<__int64>::_Rank
CONST	ENDS
;	COMDAT ?_Rank@?$_Arithmetic_traits@K@std@@2HB
CONST	SEGMENT
?_Rank@?$_Arithmetic_traits@K@std@@2HB DD 05H		; std::_Arithmetic_traits<unsigned long>::_Rank
CONST	ENDS
;	COMDAT ?_Rank@?$_Arithmetic_traits@J@std@@2HB
CONST	SEGMENT
?_Rank@?$_Arithmetic_traits@J@std@@2HB DD 05H		; std::_Arithmetic_traits<long>::_Rank
CONST	ENDS
;	COMDAT ?_Rank@?$_Arithmetic_traits@I@std@@2HB
CONST	SEGMENT
?_Rank@?$_Arithmetic_traits@I@std@@2HB DD 04H		; std::_Arithmetic_traits<unsigned int>::_Rank
CONST	ENDS
;	COMDAT ?_Rank@?$_Arithmetic_traits@H@std@@2HB
CONST	SEGMENT
?_Rank@?$_Arithmetic_traits@H@std@@2HB DD 04H		; std::_Arithmetic_traits<int>::_Rank
CONST	ENDS
;	COMDAT ?_Rank@?$_Arithmetic_traits@G@std@@2HB
CONST	SEGMENT
?_Rank@?$_Arithmetic_traits@G@std@@2HB DD 03H		; std::_Arithmetic_traits<unsigned short>::_Rank
CONST	ENDS
;	COMDAT ?_Rank@?$_Arithmetic_traits@F@std@@2HB
CONST	SEGMENT
?_Rank@?$_Arithmetic_traits@F@std@@2HB DD 03H		; std::_Arithmetic_traits<short>::_Rank
CONST	ENDS
;	COMDAT ?_Rank@?$_Arithmetic_traits@E@std@@2HB
CONST	SEGMENT
?_Rank@?$_Arithmetic_traits@E@std@@2HB DD 02H		; std::_Arithmetic_traits<unsigned char>::_Rank
CONST	ENDS
;	COMDAT ?_Rank@?$_Arithmetic_traits@C@std@@2HB
CONST	SEGMENT
?_Rank@?$_Arithmetic_traits@C@std@@2HB DD 02H		; std::_Arithmetic_traits<signed char>::_Rank
CONST	ENDS
;	COMDAT ?_Rank@?$_Arithmetic_traits@D@std@@2HB
CONST	SEGMENT
?_Rank@?$_Arithmetic_traits@D@std@@2HB DD 02H		; std::_Arithmetic_traits<char>::_Rank
CONST	ENDS
;	COMDAT ?_Rank@?$_Arithmetic_traits@_N@std@@2HB
CONST	SEGMENT
?_Rank@?$_Arithmetic_traits@_N@std@@2HB DD 01H		; std::_Arithmetic_traits<bool>::_Rank
CONST	ENDS
;	COMDAT ?value@?$integral_constant@I$0A@@tr1@std@@2IB
CONST	SEGMENT
?value@?$integral_constant@I$0A@@tr1@std@@2IB DD 00H	; std::tr1::integral_constant<unsigned int,0>::value
CONST	ENDS
;	COMDAT ?value@?$integral_constant@_N$00@tr1@std@@2_NB
CONST	SEGMENT
?value@?$integral_constant@_N$00@tr1@std@@2_NB DB 01H	; std::tr1::integral_constant<bool,1>::value
CONST	ENDS
;	COMDAT ?value@?$integral_constant@_N$0A@@tr1@std@@2_NB
CONST	SEGMENT
?value@?$integral_constant@_N$0A@@tr1@std@@2_NB DB 00H	; std::tr1::integral_constant<bool,0>::value
CONST	ENDS
PUBLIC	??2@YAPAXI@Z					; operator new
EXTRN	__RTC_Shutdown:PROC
EXTRN	__RTC_InitBase:PROC
;	COMDAT rtc$TMZ
; File d:\mozilla\intl\icu\include\unicode\utypes.h
rtc$TMZ	SEGMENT
__RTC_Shutdown.rtc$TMZ DD FLAT:__RTC_Shutdown
rtc$TMZ	ENDS
;	COMDAT rtc$IMZ
rtc$IMZ	SEGMENT
__RTC_InitBase.rtc$IMZ DD FLAT:__RTC_InitBase
; Function compile flags: /Odtp /RTCsu /ZI
rtc$IMZ	ENDS
;	COMDAT ??2@YAPAXI@Z
_TEXT	SEGMENT
_q$ = -8						; size = 4
___formal$ = 8						; size = 4
??2@YAPAXI@Z PROC					; operator new, COMDAT
; Line 411
	push	ebp
	mov	ebp, esp
	sub	esp, 204				; 000000ccH
	push	ebx
	push	esi
	push	edi
	lea	edi, DWORD PTR [ebp-204]
	mov	ecx, 51					; 00000033H
	mov	eax, -858993460				; ccccccccH
	rep stosd
; Line 412
	mov	DWORD PTR _q$[ebp], 0
; Line 413
	mov	eax, DWORD PTR _q$[ebp]
	mov	BYTE PTR [eax], 5
; Line 414
	mov	eax, DWORD PTR _q$[ebp]
; Line 415
	pop	edi
	pop	esi
	pop	ebx
	mov	esp, ebp
	pop	ebp
	ret	0
??2@YAPAXI@Z ENDP					; operator new
_TEXT	ENDS
PUBLIC	??3@YAXPAX@Z					; operator delete
; Function compile flags: /Odtp /RTCsu /ZI
;	COMDAT ??3@YAXPAX@Z
_TEXT	SEGMENT
_q$ = -8						; size = 4
___formal$ = 8						; size = 4
??3@YAXPAX@Z PROC					; operator delete, COMDAT
; Line 439
	push	ebp
	mov	ebp, esp
	sub	esp, 204				; 000000ccH
	push	ebx
	push	esi
	push	edi
	lea	edi, DWORD PTR [ebp-204]
	mov	ecx, 51					; 00000033H
	mov	eax, -858993460				; ccccccccH
	rep stosd
; Line 440
	mov	DWORD PTR _q$[ebp], 0
; Line 441
	mov	eax, DWORD PTR _q$[ebp]
	mov	BYTE PTR [eax], 5
; Line 442
	pop	edi
	pop	esi
	pop	ebx
	mov	esp, ebp
	pop	ebp
	ret	0
??3@YAXPAX@Z ENDP					; operator delete
_TEXT	ENDS
PUBLIC	??9CurrencyPluralInfo@icu_56@@QBECABV01@@Z	; icu_56::CurrencyPluralInfo::operator!=
EXTRN	??8CurrencyPluralInfo@icu_56@@QBECABV01@@Z:PROC	; icu_56::CurrencyPluralInfo::operator==
EXTRN	__RTC_CheckEsp:PROC
; Function compile flags: /Odtp /RTCsu /ZI
;	COMDAT ??9CurrencyPluralInfo@icu_56@@QBECABV01@@Z
_TEXT	SEGMENT
_this$ = -8						; size = 4
_info$ = 8						; size = 4
??9CurrencyPluralInfo@icu_56@@QBECABV01@@Z PROC		; icu_56::CurrencyPluralInfo::operator!=, COMDAT
; _this$ = ecx
; File d:\mozilla\intl\icu\source\i18n\unicode\currpinf.h
; Line 252
	push	ebp
	mov	ebp, esp
	sub	esp, 204				; 000000ccH
	push	ebx
	push	esi
	push	edi
	push	ecx
	lea	edi, DWORD PTR [ebp-204]
	mov	ecx, 51					; 00000033H
	mov	eax, -858993460				; ccccccccH
	rep stosd
	pop	ecx
	mov	DWORD PTR _this$[ebp], ecx
	mov	eax, DWORD PTR _info$[ebp]
	push	eax
	mov	ecx, DWORD PTR _this$[ebp]
	call	??8CurrencyPluralInfo@icu_56@@QBECABV01@@Z ; icu_56::CurrencyPluralInfo::operator==
	movsx	ecx, al
	test	ecx, ecx
	sete	al
	pop	edi
	pop	esi
	pop	ebx
	add	esp, 204				; 000000ccH
	cmp	ebp, esp
	call	__RTC_CheckEsp
	mov	esp, ebp
	pop	ebp
	ret	4
??9CurrencyPluralInfo@icu_56@@QBECABV01@@Z ENDP		; icu_56::CurrencyPluralInfo::operator!=
_TEXT	ENDS
PUBLIC	??9Formattable@icu_56@@QBECABV01@@Z		; icu_56::Formattable::operator!=
EXTRN	??8Formattable@icu_56@@QBECABV01@@Z:PROC	; icu_56::Formattable::operator==
; Function compile flags: /Odtp /RTCsu /ZI
;	COMDAT ??9Formattable@icu_56@@QBECABV01@@Z
_TEXT	SEGMENT
_this$ = -8						; size = 4
_other$ = 8						; size = 4
??9Formattable@icu_56@@QBECABV01@@Z PROC		; icu_56::Formattable::operator!=, COMDAT
; _this$ = ecx
; File d:\mozilla\intl\icu\source\i18n\unicode\fmtable.h
; Line 196
	push	ebp
	mov	ebp, esp
	sub	esp, 204				; 000000ccH
	push	ebx
	push	esi
	push	edi
	push	ecx
	lea	edi, DWORD PTR [ebp-204]
	mov	ecx, 51					; 00000033H
	mov	eax, -858993460				; ccccccccH
	rep stosd
	pop	ecx
	mov	DWORD PTR _this$[ebp], ecx
	mov	eax, DWORD PTR _other$[ebp]
	push	eax
	mov	ecx, DWORD PTR _this$[ebp]
	call	??8Formattable@icu_56@@QBECABV01@@Z	; icu_56::Formattable::operator==
	movsx	ecx, al
	test	ecx, ecx
	sete	al
	pop	edi
	pop	esi
	pop	ebx
	add	esp, 204				; 000000ccH
	cmp	ebp, esp
	call	__RTC_CheckEsp
	mov	esp, ebp
	pop	ebp
	ret	4
??9Formattable@icu_56@@QBECABV01@@Z ENDP		; icu_56::Formattable::operator!=
_TEXT	ENDS
PUBLIC	?getDouble@Formattable@icu_56@@QBENXZ		; icu_56::Formattable::getDouble
EXTRN	__fltused:DWORD
; Function compile flags: /Odtp /RTCsu /ZI
;	COMDAT ?getDouble@Formattable@icu_56@@QBENXZ
_TEXT	SEGMENT
_this$ = -8						; size = 4
?getDouble@Formattable@icu_56@@QBENXZ PROC		; icu_56::Formattable::getDouble, COMDAT
; _this$ = ecx
; Line 295
	push	ebp
	mov	ebp, esp
	sub	esp, 204				; 000000ccH
	push	ebx
	push	esi
	push	edi
	push	ecx
	lea	edi, DWORD PTR [ebp-204]
	mov	ecx, 51					; 00000033H
	mov	eax, -858993460				; ccccccccH
	rep stosd
	pop	ecx
	mov	DWORD PTR _this$[ebp], ecx
	mov	eax, DWORD PTR _this$[ebp]
	fld	QWORD PTR [eax+8]
	pop	edi
	pop	esi
	pop	ebx
	mov	esp, ebp
	pop	ebp
	ret	0
?getDouble@Formattable@icu_56@@QBENXZ ENDP		; icu_56::Formattable::getDouble
_TEXT	ENDS
PUBLIC	?getLong@Formattable@icu_56@@QBEHXZ		; icu_56::Formattable::getLong
; Function compile flags: /Odtp /RTCsu /ZI
;	COMDAT ?getLong@Formattable@icu_56@@QBEHXZ
_TEXT	SEGMENT
_this$ = -8						; size = 4
?getLong@Formattable@icu_56@@QBEHXZ PROC		; icu_56::Formattable::getLong, COMDAT
; _this$ = ecx
; Line 317
	push	ebp
	mov	ebp, esp
	sub	esp, 204				; 000000ccH
	push	ebx
	push	esi
	push	edi
	push	ecx
	lea	edi, DWORD PTR [ebp-204]
	mov	ecx, 51					; 00000033H
	mov	eax, -858993460				; ccccccccH
	rep stosd
	pop	ecx
	mov	DWORD PTR _this$[ebp], ecx
	mov	eax, DWORD PTR _this$[ebp]
	mov	eax, DWORD PTR [eax+8]
	pop	edi
	pop	esi
	pop	ebx
	mov	esp, ebp
	pop	ebp
	ret	0
?getLong@Formattable@icu_56@@QBEHXZ ENDP		; icu_56::Formattable::getLong
_TEXT	ENDS
PUBLIC	?getInt64@Formattable@icu_56@@QBE_JXZ		; icu_56::Formattable::getInt64
; Function compile flags: /Odtp /RTCsu /ZI
;	COMDAT ?getInt64@Formattable@icu_56@@QBE_JXZ
_TEXT	SEGMENT
_this$ = -8						; size = 4
?getInt64@Formattable@icu_56@@QBE_JXZ PROC		; icu_56::Formattable::getInt64, COMDAT
; _this$ = ecx
; Line 343
	push	ebp
	mov	ebp, esp
	sub	esp, 204				; 000000ccH
	push	ebx
	push	esi
	push	edi
	push	ecx
	lea	edi, DWORD PTR [ebp-204]
	mov	ecx, 51					; 00000033H
	mov	eax, -858993460				; ccccccccH
	rep stosd
	pop	ecx
	mov	DWORD PTR _this$[ebp], ecx
	mov	ecx, DWORD PTR _this$[ebp]
	mov	eax, DWORD PTR [ecx+8]
	mov	edx, DWORD PTR [ecx+12]
	pop	edi
	pop	esi
	pop	ebx
	mov	esp, ebp
	pop	ebp
	ret	0
?getInt64@Formattable@icu_56@@QBE_JXZ ENDP		; icu_56::Formattable::getInt64
_TEXT	ENDS
PUBLIC	?getDate@Formattable@icu_56@@QBENXZ		; icu_56::Formattable::getDate
; Function compile flags: /Odtp /RTCsu /ZI
;	COMDAT ?getDate@Formattable@icu_56@@QBENXZ
_TEXT	SEGMENT
_this$ = -8						; size = 4
?getDate@Formattable@icu_56@@QBENXZ PROC		; icu_56::Formattable::getDate, COMDAT
; _this$ = ecx
; Line 368
	push	ebp
	mov	ebp, esp
	sub	esp, 204				; 000000ccH
	push	ebx
	push	esi
	push	edi
	push	ecx
	lea	edi, DWORD PTR [ebp-204]
	mov	ecx, 51					; 00000033H
	mov	eax, -858993460				; ccccccccH
	rep stosd
	pop	ecx
	mov	DWORD PTR _this$[ebp], ecx
	mov	eax, DWORD PTR _this$[ebp]
	fld	QWORD PTR [eax+8]
	pop	edi
	pop	esi
	pop	ebx
	mov	esp, ebp
	pop	ebp
	ret	0
?getDate@Formattable@icu_56@@QBENXZ ENDP		; icu_56::Formattable::getDate
_TEXT	ENDS
PUBLIC	?getString@Formattable@icu_56@@QBEAAVUnicodeString@2@AAV32@@Z ; icu_56::Formattable::getString
EXTRN	__imp_??4UnicodeString@icu_56@@QAEAAV01@ABV01@@Z:PROC
; Function compile flags: /Odtp /RTCsu /ZI
;	COMDAT ?getString@Formattable@icu_56@@QBEAAVUnicodeString@2@AAV32@@Z
_TEXT	SEGMENT
_this$ = -8						; size = 4
_result$ = 8						; size = 4
?getString@Formattable@icu_56@@QBEAAVUnicodeString@2@AAV32@@Z PROC ; icu_56::Formattable::getString, COMDAT
; _this$ = ecx
; Line 388
	push	ebp
	mov	ebp, esp
	sub	esp, 204				; 000000ccH
	push	ebx
	push	esi
	push	edi
	push	ecx
	lea	edi, DWORD PTR [ebp-204]
	mov	ecx, 51					; 00000033H
	mov	eax, -858993460				; ccccccccH
	rep stosd
	pop	ecx
	mov	DWORD PTR _this$[ebp], ecx
	mov	esi, esp
	mov	eax, DWORD PTR _this$[ebp]
	mov	ecx, DWORD PTR [eax+8]
	push	ecx
	mov	ecx, DWORD PTR _result$[ebp]
	call	DWORD PTR __imp_??4UnicodeString@icu_56@@QAEAAV01@ABV01@@Z
	cmp	esi, esp
	call	__RTC_CheckEsp
	mov	eax, DWORD PTR _result$[ebp]
	pop	edi
	pop	esi
	pop	ebx
	add	esp, 204				; 000000ccH
	cmp	ebp, esp
	call	__RTC_CheckEsp
	mov	esp, ebp
	pop	ebp
	ret	4
?getString@Formattable@icu_56@@QBEAAVUnicodeString@2@AAV32@@Z ENDP ; icu_56::Formattable::getString
_TEXT	ENDS
PUBLIC	?getArray@Formattable@icu_56@@QBEPBV12@AAH@Z	; icu_56::Formattable::getArray
; Function compile flags: /Odtp /RTCsu /ZI
;	COMDAT ?getArray@Formattable@icu_56@@QBEPBV12@AAH@Z
_TEXT	SEGMENT
_this$ = -8						; size = 4
_count$ = 8						; size = 4
?getArray@Formattable@icu_56@@QBEPBV12@AAH@Z PROC	; icu_56::Formattable::getArray, COMDAT
; _this$ = ecx
; Line 446
	push	ebp
	mov	ebp, esp
	sub	esp, 204				; 000000ccH
	push	ebx
	push	esi
	push	edi
	push	ecx
	lea	edi, DWORD PTR [ebp-204]
	mov	ecx, 51					; 00000033H
	mov	eax, -858993460				; ccccccccH
	rep stosd
	pop	ecx
	mov	DWORD PTR _this$[ebp], ecx
	mov	eax, DWORD PTR _count$[ebp]
	mov	ecx, DWORD PTR _this$[ebp]
	mov	edx, DWORD PTR [ecx+12]
	mov	DWORD PTR [eax], edx
	mov	eax, DWORD PTR _this$[ebp]
	mov	eax, DWORD PTR [eax+8]
	pop	edi
	pop	esi
	pop	ebx
	mov	esp, ebp
	pop	ebp
	ret	4
?getArray@Formattable@icu_56@@QBEPBV12@AAH@Z ENDP	; icu_56::Formattable::getArray
_TEXT	ENDS
PUBLIC	??AFormattable@icu_56@@QAEAAV01@H@Z		; icu_56::Formattable::operator[]
; Function compile flags: /Odtp /RTCsu /ZI
;	COMDAT ??AFormattable@icu_56@@QAEAAV01@H@Z
_TEXT	SEGMENT
_this$ = -8						; size = 4
_index$ = 8						; size = 4
??AFormattable@icu_56@@QAEAAV01@H@Z PROC		; icu_56::Formattable::operator[], COMDAT
; _this$ = ecx
; Line 467
	push	ebp
	mov	ebp, esp
	sub	esp, 204				; 000000ccH
	push	ebx
	push	esi
	push	edi
	push	ecx
	lea	edi, DWORD PTR [ebp-204]
	mov	ecx, 51					; 00000033H
	mov	eax, -858993460				; ccccccccH
	rep stosd
	pop	ecx
	mov	DWORD PTR _this$[ebp], ecx
	mov	eax, DWORD PTR _index$[ebp]
	imul	eax, 224				; 000000e0H
	mov	ecx, DWORD PTR _this$[ebp]
	add	eax, DWORD PTR [ecx+8]
	pop	edi
	pop	esi
	pop	ebx
	mov	esp, ebp
	pop	ebp
	ret	4
??AFormattable@icu_56@@QAEAAV01@H@Z ENDP		; icu_56::Formattable::operator[]
_TEXT	ENDS
PUBLIC	?getDigitList@Formattable@icu_56@@QBEPAVDigitList@2@XZ ; icu_56::Formattable::getDigitList
; Function compile flags: /Odtp /RTCsu /ZI
;	COMDAT ?getDigitList@Formattable@icu_56@@QBEPAVDigitList@2@XZ
_TEXT	SEGMENT
_this$ = -8						; size = 4
?getDigitList@Formattable@icu_56@@QBEPAVDigitList@2@XZ PROC ; icu_56::Formattable::getDigitList, COMDAT
; _this$ = ecx
; Line 654
	push	ebp
	mov	ebp, esp
	sub	esp, 204				; 000000ccH
	push	ebx
	push	esi
	push	edi
	push	ecx
	lea	edi, DWORD PTR [ebp-204]
	mov	ecx, 51					; 00000033H
	mov	eax, -858993460				; ccccccccH
	rep stosd
	pop	ecx
	mov	DWORD PTR _this$[ebp], ecx
	mov	eax, DWORD PTR _this$[ebp]
	mov	eax, DWORD PTR [eax+20]
	pop	edi
	pop	esi
	pop	ebx
	mov	esp, ebp
	pop	ebp
	ret	0
?getDigitList@Formattable@icu_56@@QBEPAVDigitList@2@XZ ENDP ; icu_56::Formattable::getDigitList
_TEXT	ENDS
PUBLIC	__real@0000000000000000
PUBLIC	?getDate@Formattable@icu_56@@QBENAAW4UErrorCode@@@Z ; icu_56::Formattable::getDate
;	COMDAT __real@0000000000000000
CONST	SEGMENT
__real@0000000000000000 DQ 00000000000000000r	; 0
; Function compile flags: /Odtp /RTCsu /ZI
CONST	ENDS
;	COMDAT ?getDate@Formattable@icu_56@@QBENAAW4UErrorCode@@@Z
_TEXT	SEGMENT
_this$ = -8						; size = 4
_status$ = 8						; size = 4
?getDate@Formattable@icu_56@@QBENAAW4UErrorCode@@@Z PROC ; icu_56::Formattable::getDate, COMDAT
; _this$ = ecx
; Line 715
	push	ebp
	mov	ebp, esp
	sub	esp, 204				; 000000ccH
	push	ebx
	push	esi
	push	edi
	push	ecx
	lea	edi, DWORD PTR [ebp-204]
	mov	ecx, 51					; 00000033H
	mov	eax, -858993460				; ccccccccH
	rep stosd
	pop	ecx
	mov	DWORD PTR _this$[ebp], ecx
; Line 716
	mov	eax, DWORD PTR _this$[ebp]
	cmp	DWORD PTR [eax+152], 0
	je	SHORT $LN2@getDate
; Line 717
	mov	eax, DWORD PTR _status$[ebp]
	mov	ecx, DWORD PTR [eax]
	push	ecx
	call	?U_SUCCESS@@YACW4UErrorCode@@@Z		; U_SUCCESS
	add	esp, 4
	movsx	edx, al
	test	edx, edx
	je	SHORT $LN1@getDate
; Line 718
	mov	eax, DWORD PTR _status$[ebp]
	mov	DWORD PTR [eax], 3
$LN1@getDate:
; Line 720
	fldz
	jmp	SHORT $LN3@getDate
$LN2@getDate:
; Line 722
	mov	eax, DWORD PTR _this$[ebp]
	fld	QWORD PTR [eax+8]
$LN3@getDate:
; Line 723
	pop	edi
	pop	esi
	pop	ebx
	add	esp, 204				; 000000ccH
	cmp	ebp, esp
	call	__RTC_CheckEsp
	mov	esp, ebp
	pop	ebp
	ret	4
?getDate@Formattable@icu_56@@QBENAAW4UErrorCode@@@Z ENDP ; icu_56::Formattable::getDate
; Function compile flags: /Odtp /RTCsu /ZI
_TEXT	ENDS
;	COMDAT ?U_SUCCESS@@YACW4UErrorCode@@@Z
_TEXT	SEGMENT
_code$ = 8						; size = 4
?U_SUCCESS@@YACW4UErrorCode@@@Z PROC			; U_SUCCESS, COMDAT
; File d:\mozilla\intl\icu\include\unicode\utypes.h
; Line 699
	push	ebp
	mov	ebp, esp
	sub	esp, 192				; 000000c0H
	push	ebx
	push	esi
	push	edi
	lea	edi, DWORD PTR [ebp-192]
	mov	ecx, 48					; 00000030H
	mov	eax, -858993460				; ccccccccH
	rep stosd
	cmp	DWORD PTR _code$[ebp], 0
	setle	al
	pop	edi
	pop	esi
	pop	ebx
	mov	esp, ebp
	pop	ebp
	ret	0
?U_SUCCESS@@YACW4UErrorCode@@@Z ENDP			; U_SUCCESS
_TEXT	ENDS
PUBLIC	?getString@Formattable@icu_56@@QBEABVUnicodeString@2@XZ ; icu_56::Formattable::getString
; Function compile flags: /Odtp /RTCsu /ZI
;	COMDAT ?getString@Formattable@icu_56@@QBEABVUnicodeString@2@XZ
_TEXT	SEGMENT
_this$ = -8						; size = 4
?getString@Formattable@icu_56@@QBEABVUnicodeString@2@XZ PROC ; icu_56::Formattable::getString, COMDAT
; _this$ = ecx
; File d:\mozilla\intl\icu\source\i18n\unicode\fmtable.h
; Line 725
	push	ebp
	mov	ebp, esp
	sub	esp, 204				; 000000ccH
	push	ebx
	push	esi
	push	edi
	push	ecx
	lea	edi, DWORD PTR [ebp-204]
	mov	ecx, 51					; 00000033H
	mov	eax, -858993460				; ccccccccH
	rep stosd
	pop	ecx
	mov	DWORD PTR _this$[ebp], ecx
; Line 726
	mov	eax, DWORD PTR _this$[ebp]
	mov	eax, DWORD PTR [eax+8]
; Line 727
	pop	edi
	pop	esi
	pop	ebx
	mov	esp, ebp
	pop	ebp
	ret	0
?getString@Formattable@icu_56@@QBEABVUnicodeString@2@XZ ENDP ; icu_56::Formattable::getString
_TEXT	ENDS
PUBLIC	?getString@Formattable@icu_56@@QAEAAVUnicodeString@2@XZ ; icu_56::Formattable::getString
; Function compile flags: /Odtp /RTCsu /ZI
;	COMDAT ?getString@Formattable@icu_56@@QAEAAVUnicodeString@2@XZ
_TEXT	SEGMENT
_this$ = -8						; size = 4
?getString@Formattable@icu_56@@QAEAAVUnicodeString@2@XZ PROC ; icu_56::Formattable::getString, COMDAT
; _this$ = ecx
; Line 729
	push	ebp
	mov	ebp, esp
	sub	esp, 204				; 000000ccH
	push	ebx
	push	esi
	push	edi
	push	ecx
	lea	edi, DWORD PTR [ebp-204]
	mov	ecx, 51					; 00000033H
	mov	eax, -858993460				; ccccccccH
	rep stosd
	pop	ecx
	mov	DWORD PTR _this$[ebp], ecx
; Line 730
	mov	eax, DWORD PTR _this$[ebp]
	mov	eax, DWORD PTR [eax+8]
; Line 731
	pop	edi
	pop	esi
	pop	ebx
	mov	esp, ebp
	pop	ebp
	ret	0
?getString@Formattable@icu_56@@QAEAAVUnicodeString@2@XZ ENDP ; icu_56::Formattable::getString
_TEXT	ENDS
PUBLIC	?getLong@Formattable@icu_56@@QBEHPAW4UErrorCode@@@Z ; icu_56::Formattable::getLong
EXTRN	?getLong@Formattable@icu_56@@QBEHAAW4UErrorCode@@@Z:PROC ; icu_56::Formattable::getLong
; Function compile flags: /Odtp /RTCsu /ZI
;	COMDAT ?getLong@Formattable@icu_56@@QBEHPAW4UErrorCode@@@Z
_TEXT	SEGMENT
_this$ = -8						; size = 4
_status$ = 8						; size = 4
?getLong@Formattable@icu_56@@QBEHPAW4UErrorCode@@@Z PROC ; icu_56::Formattable::getLong, COMDAT
; _this$ = ecx
; Line 734
	push	ebp
	mov	ebp, esp
	sub	esp, 204				; 000000ccH
	push	ebx
	push	esi
	push	edi
	push	ecx
	lea	edi, DWORD PTR [ebp-204]
	mov	ecx, 51					; 00000033H
	mov	eax, -858993460				; ccccccccH
	rep stosd
	pop	ecx
	mov	DWORD PTR _this$[ebp], ecx
; Line 735
	mov	eax, DWORD PTR _status$[ebp]
	push	eax
	mov	ecx, DWORD PTR _this$[ebp]
	call	?getLong@Formattable@icu_56@@QBEHAAW4UErrorCode@@@Z ; icu_56::Formattable::getLong
; Line 736
	pop	edi
	pop	esi
	pop	ebx
	add	esp, 204				; 000000ccH
	cmp	ebp, esp
	call	__RTC_CheckEsp
	mov	esp, ebp
	pop	ebp
	ret	4
?getLong@Formattable@icu_56@@QBEHPAW4UErrorCode@@@Z ENDP ; icu_56::Formattable::getLong
_TEXT	ENDS
PUBLIC	?toUFormattable@Formattable@icu_56@@QAEPAPAXXZ	; icu_56::Formattable::toUFormattable
; Function compile flags: /Odtp /RTCsu /ZI
;	COMDAT ?toUFormattable@Formattable@icu_56@@QAEPAPAXXZ
_TEXT	SEGMENT
_this$ = -8						; size = 4
?toUFormattable@Formattable@icu_56@@QAEPAPAXXZ PROC	; icu_56::Formattable::toUFormattable, COMDAT
; _this$ = ecx
; Line 739
	push	ebp
	mov	ebp, esp
	sub	esp, 204				; 000000ccH
	push	ebx
	push	esi
	push	edi
	push	ecx
	lea	edi, DWORD PTR [ebp-204]
	mov	ecx, 51					; 00000033H
	mov	eax, -858993460				; ccccccccH
	rep stosd
	pop	ecx
	mov	DWORD PTR _this$[ebp], ecx
; Line 740
	mov	eax, DWORD PTR _this$[ebp]
; Line 741
	pop	edi
	pop	esi
	pop	ebx
	mov	esp, ebp
	pop	ebp
	ret	0
?toUFormattable@Formattable@icu_56@@QAEPAPAXXZ ENDP	; icu_56::Formattable::toUFormattable
_TEXT	ENDS
PUBLIC	?toUFormattable@Formattable@icu_56@@QBEPBQAXXZ	; icu_56::Formattable::toUFormattable
; Function compile flags: /Odtp /RTCsu /ZI
;	COMDAT ?toUFormattable@Formattable@icu_56@@QBEPBQAXXZ
_TEXT	SEGMENT
_this$ = -8						; size = 4
?toUFormattable@Formattable@icu_56@@QBEPBQAXXZ PROC	; icu_56::Formattable::toUFormattable, COMDAT
; _this$ = ecx
; Line 743
	push	ebp
	mov	ebp, esp
	sub	esp, 204				; 000000ccH
	push	ebx
	push	esi
	push	edi
	push	ecx
	lea	edi, DWORD PTR [ebp-204]
	mov	ecx, 51					; 00000033H
	mov	eax, -858993460				; ccccccccH
	rep stosd
	pop	ecx
	mov	DWORD PTR _this$[ebp], ecx
; Line 744
	mov	eax, DWORD PTR _this$[ebp]
; Line 745
	pop	edi
	pop	esi
	pop	ebx
	mov	esp, ebp
	pop	ebp
	ret	0
?toUFormattable@Formattable@icu_56@@QBEPBQAXXZ ENDP	; icu_56::Formattable::toUFormattable
_TEXT	ENDS
PUBLIC	?fromUFormattable@Formattable@icu_56@@SAPAV12@PAPAX@Z ; icu_56::Formattable::fromUFormattable
; Function compile flags: /Odtp /RTCsu /ZI
;	COMDAT ?fromUFormattable@Formattable@icu_56@@SAPAV12@PAPAX@Z
_TEXT	SEGMENT
_fmt$ = 8						; size = 4
?fromUFormattable@Formattable@icu_56@@SAPAV12@PAPAX@Z PROC ; icu_56::Formattable::fromUFormattable, COMDAT
; Line 747
	push	ebp
	mov	ebp, esp
	sub	esp, 192				; 000000c0H
	push	ebx
	push	esi
	push	edi
	lea	edi, DWORD PTR [ebp-192]
	mov	ecx, 48					; 00000030H
	mov	eax, -858993460				; ccccccccH
	rep stosd
; Line 748
	mov	eax, DWORD PTR _fmt$[ebp]
; Line 749
	pop	edi
	pop	esi
	pop	ebx
	mov	esp, ebp
	pop	ebp
	ret	0
?fromUFormattable@Formattable@icu_56@@SAPAV12@PAPAX@Z ENDP ; icu_56::Formattable::fromUFormattable
_TEXT	ENDS
PUBLIC	?fromUFormattable@Formattable@icu_56@@SAPBV12@PBQAX@Z ; icu_56::Formattable::fromUFormattable
; Function compile flags: /Odtp /RTCsu /ZI
;	COMDAT ?fromUFormattable@Formattable@icu_56@@SAPBV12@PBQAX@Z
_TEXT	SEGMENT
_fmt$ = 8						; size = 4
?fromUFormattable@Formattable@icu_56@@SAPBV12@PBQAX@Z PROC ; icu_56::Formattable::fromUFormattable, COMDAT
; Line 751
	push	ebp
	mov	ebp, esp
	sub	esp, 192				; 000000c0H
	push	ebx
	push	esi
	push	edi
	lea	edi, DWORD PTR [ebp-192]
	mov	ecx, 48					; 00000030H
	mov	eax, -858993460				; ccccccccH
	rep stosd
; Line 752
	mov	eax, DWORD PTR _fmt$[ebp]
; Line 753
	pop	edi
	pop	esi
	pop	ebx
	mov	esp, ebp
	pop	ebp
	ret	0
?fromUFormattable@Formattable@icu_56@@SAPBV12@PBQAX@Z ENDP ; icu_56::Formattable::fromUFormattable
_TEXT	ENDS
PUBLIC	??_7FieldPosition@icu_56@@6B@			; icu_56::FieldPosition::`vftable'
PUBLIC	??0FieldPosition@icu_56@@QAE@XZ			; icu_56::FieldPosition::FieldPosition
PUBLIC	??_R4FieldPosition@icu_56@@6B@			; icu_56::FieldPosition::`RTTI Complete Object Locator'
PUBLIC	??_R0?AVFieldPosition@icu_56@@@8		; icu_56::FieldPosition `RTTI Type Descriptor'
PUBLIC	??_R3FieldPosition@icu_56@@8			; icu_56::FieldPosition::`RTTI Class Hierarchy Descriptor'
PUBLIC	??_R2FieldPosition@icu_56@@8			; icu_56::FieldPosition::`RTTI Base Class Array'
PUBLIC	??_R1A@?0A@EA@FieldPosition@icu_56@@8		; icu_56::FieldPosition::`RTTI Base Class Descriptor at (0,-1,0,64)'
PUBLIC	??_R1A@?0A@EA@UObject@icu_56@@8			; icu_56::UObject::`RTTI Base Class Descriptor at (0,-1,0,64)'
PUBLIC	??_R0?AVUObject@icu_56@@@8			; icu_56::UObject `RTTI Type Descriptor'
PUBLIC	??_R3UObject@icu_56@@8				; icu_56::UObject::`RTTI Class Hierarchy Descriptor'
PUBLIC	??_R2UObject@icu_56@@8				; icu_56::UObject::`RTTI Base Class Array'
PUBLIC	??_R13?0A@EA@UMemory@icu_56@@8			; icu_56::UMemory::`RTTI Base Class Descriptor at (4,-1,0,64)'
PUBLIC	??_R0?AVUMemory@icu_56@@@8			; icu_56::UMemory `RTTI Type Descriptor'
PUBLIC	??_R3UMemory@icu_56@@8				; icu_56::UMemory::`RTTI Class Hierarchy Descriptor'
PUBLIC	??_R2UMemory@icu_56@@8				; icu_56::UMemory::`RTTI Base Class Array'
PUBLIC	??_R1A@?0A@EA@UMemory@icu_56@@8			; icu_56::UMemory::`RTTI Base Class Descriptor at (0,-1,0,64)'
PUBLIC	??_EFieldPosition@icu_56@@UAEPAXI@Z		; icu_56::FieldPosition::`vector deleting destructor'
EXTRN	__imp_??0UObject@icu_56@@QAE@XZ:PROC
EXTRN	??_7type_info@@6B@:QWORD			; type_info::`vftable'
EXTRN	?getDynamicClassID@FieldPosition@icu_56@@UBEPAXXZ:PROC ; icu_56::FieldPosition::getDynamicClassID
;	COMDAT ??_R1A@?0A@EA@UMemory@icu_56@@8
; File d:\mozilla\intl\icu\source\i18n\unicode\fieldpos.h
rdata$r	SEGMENT
??_R1A@?0A@EA@UMemory@icu_56@@8 DD FLAT:??_R0?AVUMemory@icu_56@@@8 ; icu_56::UMemory::`RTTI Base Class Descriptor at (0,-1,0,64)'
	DD	00H
	DD	00H
	DD	0ffffffffH
	DD	00H
	DD	040H
	DD	FLAT:??_R3UMemory@icu_56@@8
rdata$r	ENDS
;	COMDAT ??_R2UMemory@icu_56@@8
rdata$r	SEGMENT
??_R2UMemory@icu_56@@8 DD FLAT:??_R1A@?0A@EA@UMemory@icu_56@@8 ; icu_56::UMemory::`RTTI Base Class Array'
rdata$r	ENDS
;	COMDAT ??_R3UMemory@icu_56@@8
rdata$r	SEGMENT
??_R3UMemory@icu_56@@8 DD 00H				; icu_56::UMemory::`RTTI Class Hierarchy Descriptor'
	DD	00H
	DD	01H
	DD	FLAT:??_R2UMemory@icu_56@@8
rdata$r	ENDS
;	COMDAT ??_R0?AVUMemory@icu_56@@@8
_DATA	SEGMENT
??_R0?AVUMemory@icu_56@@@8 DD FLAT:??_7type_info@@6B@	; icu_56::UMemory `RTTI Type Descriptor'
	DD	00H
	DB	'.?AVUMemory@icu_56@@', 00H
_DATA	ENDS
;	COMDAT ??_R13?0A@EA@UMemory@icu_56@@8
rdata$r	SEGMENT
??_R13?0A@EA@UMemory@icu_56@@8 DD FLAT:??_R0?AVUMemory@icu_56@@@8 ; icu_56::UMemory::`RTTI Base Class Descriptor at (4,-1,0,64)'
	DD	00H
	DD	04H
	DD	0ffffffffH
	DD	00H
	DD	040H
	DD	FLAT:??_R3UMemory@icu_56@@8
rdata$r	ENDS
;	COMDAT ??_R2UObject@icu_56@@8
rdata$r	SEGMENT
??_R2UObject@icu_56@@8 DD FLAT:??_R1A@?0A@EA@UObject@icu_56@@8 ; icu_56::UObject::`RTTI Base Class Array'
	DD	FLAT:??_R13?0A@EA@UMemory@icu_56@@8
rdata$r	ENDS
;	COMDAT ??_R3UObject@icu_56@@8
rdata$r	SEGMENT
??_R3UObject@icu_56@@8 DD 00H				; icu_56::UObject::`RTTI Class Hierarchy Descriptor'
	DD	00H
	DD	02H
	DD	FLAT:??_R2UObject@icu_56@@8
rdata$r	ENDS
;	COMDAT ??_R0?AVUObject@icu_56@@@8
_DATA	SEGMENT
??_R0?AVUObject@icu_56@@@8 DD FLAT:??_7type_info@@6B@	; icu_56::UObject `RTTI Type Descriptor'
	DD	00H
	DB	'.?AVUObject@icu_56@@', 00H
_DATA	ENDS
;	COMDAT ??_R1A@?0A@EA@UObject@icu_56@@8
rdata$r	SEGMENT
??_R1A@?0A@EA@UObject@icu_56@@8 DD FLAT:??_R0?AVUObject@icu_56@@@8 ; icu_56::UObject::`RTTI Base Class Descriptor at (0,-1,0,64)'
	DD	01H
	DD	00H
	DD	0ffffffffH
	DD	00H
	DD	040H
	DD	FLAT:??_R3UObject@icu_56@@8
rdata$r	ENDS
;	COMDAT ??_R1A@?0A@EA@FieldPosition@icu_56@@8
rdata$r	SEGMENT
??_R1A@?0A@EA@FieldPosition@icu_56@@8 DD FLAT:??_R0?AVFieldPosition@icu_56@@@8 ; icu_56::FieldPosition::`RTTI Base Class Descriptor at (0,-1,0,64)'
	DD	02H
	DD	00H
	DD	0ffffffffH
	DD	00H
	DD	040H
	DD	FLAT:??_R3FieldPosition@icu_56@@8
rdata$r	ENDS
;	COMDAT ??_R2FieldPosition@icu_56@@8
rdata$r	SEGMENT
??_R2FieldPosition@icu_56@@8 DD FLAT:??_R1A@?0A@EA@FieldPosition@icu_56@@8 ; icu_56::FieldPosition::`RTTI Base Class Array'
	DD	FLAT:??_R1A@?0A@EA@UObject@icu_56@@8
	DD	FLAT:??_R13?0A@EA@UMemory@icu_56@@8
rdata$r	ENDS
;	COMDAT ??_R3FieldPosition@icu_56@@8
rdata$r	SEGMENT
??_R3FieldPosition@icu_56@@8 DD 00H			; icu_56::FieldPosition::`RTTI Class Hierarchy Descriptor'
	DD	00H
	DD	03H
	DD	FLAT:??_R2FieldPosition@icu_56@@8
rdata$r	ENDS
;	COMDAT ??_R0?AVFieldPosition@icu_56@@@8
_DATA	SEGMENT
??_R0?AVFieldPosition@icu_56@@@8 DD FLAT:??_7type_info@@6B@ ; icu_56::FieldPosition `RTTI Type Descriptor'
	DD	00H
	DB	'.?AVFieldPosition@icu_56@@', 00H
_DATA	ENDS
;	COMDAT ??_R4FieldPosition@icu_56@@6B@
rdata$r	SEGMENT
??_R4FieldPosition@icu_56@@6B@ DD 00H			; icu_56::FieldPosition::`RTTI Complete Object Locator'
	DD	00H
	DD	00H
	DD	FLAT:??_R0?AVFieldPosition@icu_56@@@8
	DD	FLAT:??_R3FieldPosition@icu_56@@8
rdata$r	ENDS
;	COMDAT ??_7FieldPosition@icu_56@@6B@
CONST	SEGMENT
??_7FieldPosition@icu_56@@6B@ DD FLAT:??_R4FieldPosition@icu_56@@6B@ ; icu_56::FieldPosition::`vftable'
	DD	FLAT:??_EFieldPosition@icu_56@@UAEPAXI@Z
	DD	FLAT:?getDynamicClassID@FieldPosition@icu_56@@UBEPAXXZ
; Function compile flags: /Odtp /RTCsu /ZI
CONST	ENDS
;	COMDAT ??0FieldPosition@icu_56@@QAE@XZ
_TEXT	SEGMENT
_this$ = -8						; size = 4
??0FieldPosition@icu_56@@QAE@XZ PROC			; icu_56::FieldPosition::FieldPosition, COMDAT
; _this$ = ecx
; Line 118
	push	ebp
	mov	ebp, esp
	sub	esp, 204				; 000000ccH
	push	ebx
	push	esi
	push	edi
	push	ecx
	lea	edi, DWORD PTR [ebp-204]
	mov	ecx, 51					; 00000033H
	mov	eax, -858993460				; ccccccccH
	rep stosd
	pop	ecx
	mov	DWORD PTR _this$[ebp], ecx
	mov	esi, esp
	mov	ecx, DWORD PTR _this$[ebp]
	call	DWORD PTR __imp_??0UObject@icu_56@@QAE@XZ
	cmp	esi, esp
	call	__RTC_CheckEsp
	mov	eax, DWORD PTR _this$[ebp]
	mov	DWORD PTR [eax], OFFSET ??_7FieldPosition@icu_56@@6B@
	mov	eax, DWORD PTR _this$[ebp]
	mov	DWORD PTR [eax+4], -1
	mov	eax, DWORD PTR _this$[ebp]
	mov	DWORD PTR [eax+8], 0
	mov	eax, DWORD PTR _this$[ebp]
	mov	DWORD PTR [eax+12], 0
	mov	eax, DWORD PTR _this$[ebp]
	pop	edi
	pop	esi
	pop	ebx
	add	esp, 204				; 000000ccH
	cmp	ebp, esp
	call	__RTC_CheckEsp
	mov	esp, ebp
	pop	ebp
	ret	0
??0FieldPosition@icu_56@@QAE@XZ ENDP			; icu_56::FieldPosition::FieldPosition
_TEXT	ENDS
PUBLIC	??0FieldPosition@icu_56@@QAE@H@Z		; icu_56::FieldPosition::FieldPosition
; Function compile flags: /Odtp /RTCsu /ZI
;	COMDAT ??0FieldPosition@icu_56@@QAE@H@Z
_TEXT	SEGMENT
_this$ = -8						; size = 4
_field$ = 8						; size = 4
??0FieldPosition@icu_56@@QAE@H@Z PROC			; icu_56::FieldPosition::FieldPosition, COMDAT
; _this$ = ecx
; Line 132
	push	ebp
	mov	ebp, esp
	sub	esp, 204				; 000000ccH
	push	ebx
	push	esi
	push	edi
	push	ecx
	lea	edi, DWORD PTR [ebp-204]
	mov	ecx, 51					; 00000033H
	mov	eax, -858993460				; ccccccccH
	rep stosd
	pop	ecx
	mov	DWORD PTR _this$[ebp], ecx
	mov	esi, esp
	mov	ecx, DWORD PTR _this$[ebp]
	call	DWORD PTR __imp_??0UObject@icu_56@@QAE@XZ
	cmp	esi, esp
	call	__RTC_CheckEsp
	mov	eax, DWORD PTR _this$[ebp]
	mov	DWORD PTR [eax], OFFSET ??_7FieldPosition@icu_56@@6B@
	mov	eax, DWORD PTR _this$[ebp]
	mov	ecx, DWORD PTR _field$[ebp]
	mov	DWORD PTR [eax+4], ecx
	mov	eax, DWORD PTR _this$[ebp]
	mov	DWORD PTR [eax+8], 0
	mov	eax, DWORD PTR _this$[ebp]
	mov	DWORD PTR [eax+12], 0
	mov	eax, DWORD PTR _this$[ebp]
	pop	edi
	pop	esi
	pop	ebx
	add	esp, 204				; 000000ccH
	cmp	ebp, esp
	call	__RTC_CheckEsp
	mov	esp, ebp
	pop	ebp
	ret	4
??0FieldPosition@icu_56@@QAE@H@Z ENDP			; icu_56::FieldPosition::FieldPosition
_TEXT	ENDS
PUBLIC	??0FieldPosition@icu_56@@QAE@ABV01@@Z		; icu_56::FieldPosition::FieldPosition
EXTRN	__imp_??0UObject@icu_56@@QAE@ABV01@@Z:PROC
; Function compile flags: /Odtp /RTCsu /ZI
;	COMDAT ??0FieldPosition@icu_56@@QAE@ABV01@@Z
_TEXT	SEGMENT
_this$ = -8						; size = 4
_copy$ = 8						; size = 4
??0FieldPosition@icu_56@@QAE@ABV01@@Z PROC		; icu_56::FieldPosition::FieldPosition, COMDAT
; _this$ = ecx
; Line 140
	push	ebp
	mov	ebp, esp
	sub	esp, 204				; 000000ccH
	push	ebx
	push	esi
	push	edi
	push	ecx
	lea	edi, DWORD PTR [ebp-204]
	mov	ecx, 51					; 00000033H
	mov	eax, -858993460				; ccccccccH
	rep stosd
	pop	ecx
	mov	DWORD PTR _this$[ebp], ecx
	mov	esi, esp
	mov	eax, DWORD PTR _copy$[ebp]
	push	eax
	mov	ecx, DWORD PTR _this$[ebp]
	call	DWORD PTR __imp_??0UObject@icu_56@@QAE@ABV01@@Z
	cmp	esi, esp
	call	__RTC_CheckEsp
	mov	eax, DWORD PTR _this$[ebp]
	mov	DWORD PTR [eax], OFFSET ??_7FieldPosition@icu_56@@6B@
	mov	eax, DWORD PTR _this$[ebp]
	mov	ecx, DWORD PTR _copy$[ebp]
	mov	edx, DWORD PTR [ecx+4]
	mov	DWORD PTR [eax+4], edx
	mov	eax, DWORD PTR _this$[ebp]
	mov	ecx, DWORD PTR _copy$[ebp]
	mov	edx, DWORD PTR [ecx+8]
	mov	DWORD PTR [eax+8], edx
	mov	eax, DWORD PTR _this$[ebp]
	mov	ecx, DWORD PTR _copy$[ebp]
	mov	edx, DWORD PTR [ecx+12]
	mov	DWORD PTR [eax+12], edx
	mov	eax, DWORD PTR _this$[ebp]
	pop	edi
	pop	esi
	pop	ebx
	add	esp, 204				; 000000ccH
	cmp	ebp, esp
	call	__RTC_CheckEsp
	mov	esp, ebp
	pop	ebp
	ret	4
??0FieldPosition@icu_56@@QAE@ABV01@@Z ENDP		; icu_56::FieldPosition::FieldPosition
_TEXT	ENDS
PUBLIC	?getField@FieldPosition@icu_56@@QBEHXZ		; icu_56::FieldPosition::getField
; Function compile flags: /Odtp /RTCsu /ZI
;	COMDAT ?getField@FieldPosition@icu_56@@QBEHXZ
_TEXT	SEGMENT
_this$ = -8						; size = 4
?getField@FieldPosition@icu_56@@QBEHXZ PROC		; icu_56::FieldPosition::getField, COMDAT
; _this$ = ecx
; Line 190
	push	ebp
	mov	ebp, esp
	sub	esp, 204				; 000000ccH
	push	ebx
	push	esi
	push	edi
	push	ecx
	lea	edi, DWORD PTR [ebp-204]
	mov	ecx, 51					; 00000033H
	mov	eax, -858993460				; ccccccccH
	rep stosd
	pop	ecx
	mov	DWORD PTR _this$[ebp], ecx
	mov	eax, DWORD PTR _this$[ebp]
	mov	eax, DWORD PTR [eax+4]
	pop	edi
	pop	esi
	pop	ebx
	mov	esp, ebp
	pop	ebp
	ret	0
?getField@FieldPosition@icu_56@@QBEHXZ ENDP		; icu_56::FieldPosition::getField
_TEXT	ENDS
PUBLIC	?getBeginIndex@FieldPosition@icu_56@@QBEHXZ	; icu_56::FieldPosition::getBeginIndex
; Function compile flags: /Odtp /RTCsu /ZI
;	COMDAT ?getBeginIndex@FieldPosition@icu_56@@QBEHXZ
_TEXT	SEGMENT
_this$ = -8						; size = 4
?getBeginIndex@FieldPosition@icu_56@@QBEHXZ PROC	; icu_56::FieldPosition::getBeginIndex, COMDAT
; _this$ = ecx
; Line 197
	push	ebp
	mov	ebp, esp
	sub	esp, 204				; 000000ccH
	push	ebx
	push	esi
	push	edi
	push	ecx
	lea	edi, DWORD PTR [ebp-204]
	mov	ecx, 51					; 00000033H
	mov	eax, -858993460				; ccccccccH
	rep stosd
	pop	ecx
	mov	DWORD PTR _this$[ebp], ecx
	mov	eax, DWORD PTR _this$[ebp]
	mov	eax, DWORD PTR [eax+8]
	pop	edi
	pop	esi
	pop	ebx
	mov	esp, ebp
	pop	ebp
	ret	0
?getBeginIndex@FieldPosition@icu_56@@QBEHXZ ENDP	; icu_56::FieldPosition::getBeginIndex
_TEXT	ENDS
PUBLIC	?getEndIndex@FieldPosition@icu_56@@QBEHXZ	; icu_56::FieldPosition::getEndIndex
; Function compile flags: /Odtp /RTCsu /ZI
;	COMDAT ?getEndIndex@FieldPosition@icu_56@@QBEHXZ
_TEXT	SEGMENT
_this$ = -8						; size = 4
?getEndIndex@FieldPosition@icu_56@@QBEHXZ PROC		; icu_56::FieldPosition::getEndIndex, COMDAT
; _this$ = ecx
; Line 206
	push	ebp
	mov	ebp, esp
	sub	esp, 204				; 000000ccH
	push	ebx
	push	esi
	push	edi
	push	ecx
	lea	edi, DWORD PTR [ebp-204]
	mov	ecx, 51					; 00000033H
	mov	eax, -858993460				; ccccccccH
	rep stosd
	pop	ecx
	mov	DWORD PTR _this$[ebp], ecx
	mov	eax, DWORD PTR _this$[ebp]
	mov	eax, DWORD PTR [eax+12]
	pop	edi
	pop	esi
	pop	ebx
	mov	esp, ebp
	pop	ebp
	ret	0
?getEndIndex@FieldPosition@icu_56@@QBEHXZ ENDP		; icu_56::FieldPosition::getEndIndex
_TEXT	ENDS
PUBLIC	?setField@FieldPosition@icu_56@@QAEXH@Z		; icu_56::FieldPosition::setField
; Function compile flags: /Odtp /RTCsu /ZI
;	COMDAT ?setField@FieldPosition@icu_56@@QAEXH@Z
_TEXT	SEGMENT
_this$ = -8						; size = 4
_f$ = 8							; size = 4
?setField@FieldPosition@icu_56@@QAEXH@Z PROC		; icu_56::FieldPosition::setField, COMDAT
; _this$ = ecx
; Line 213
	push	ebp
	mov	ebp, esp
	sub	esp, 204				; 000000ccH
	push	ebx
	push	esi
	push	edi
	push	ecx
	lea	edi, DWORD PTR [ebp-204]
	mov	ecx, 51					; 00000033H
	mov	eax, -858993460				; ccccccccH
	rep stosd
	pop	ecx
	mov	DWORD PTR _this$[ebp], ecx
	mov	eax, DWORD PTR _this$[ebp]
	mov	ecx, DWORD PTR _f$[ebp]
	mov	DWORD PTR [eax+4], ecx
	pop	edi
	pop	esi
	pop	ebx
	mov	esp, ebp
	pop	ebp
	ret	4
?setField@FieldPosition@icu_56@@QAEXH@Z ENDP		; icu_56::FieldPosition::setField
_TEXT	ENDS
PUBLIC	?setBeginIndex@FieldPosition@icu_56@@QAEXH@Z	; icu_56::FieldPosition::setBeginIndex
; Function compile flags: /Odtp /RTCsu /ZI
;	COMDAT ?setBeginIndex@FieldPosition@icu_56@@QAEXH@Z
_TEXT	SEGMENT
_this$ = -8						; size = 4
_bi$ = 8						; size = 4
?setBeginIndex@FieldPosition@icu_56@@QAEXH@Z PROC	; icu_56::FieldPosition::setBeginIndex, COMDAT
; _this$ = ecx
; Line 220
	push	ebp
	mov	ebp, esp
	sub	esp, 204				; 000000ccH
	push	ebx
	push	esi
	push	edi
	push	ecx
	lea	edi, DWORD PTR [ebp-204]
	mov	ecx, 51					; 00000033H
	mov	eax, -858993460				; ccccccccH
	rep stosd
	pop	ecx
	mov	DWORD PTR _this$[ebp], ecx
	mov	eax, DWORD PTR _this$[ebp]
	mov	ecx, DWORD PTR _bi$[ebp]
	mov	DWORD PTR [eax+8], ecx
	pop	edi
	pop	esi
	pop	ebx
	mov	esp, ebp
	pop	ebp
	ret	4
?setBeginIndex@FieldPosition@icu_56@@QAEXH@Z ENDP	; icu_56::FieldPosition::setBeginIndex
_TEXT	ENDS
PUBLIC	?setEndIndex@FieldPosition@icu_56@@QAEXH@Z	; icu_56::FieldPosition::setEndIndex
; Function compile flags: /Odtp /RTCsu /ZI
;	COMDAT ?setEndIndex@FieldPosition@icu_56@@QAEXH@Z
_TEXT	SEGMENT
_this$ = -8						; size = 4
_ei$ = 8						; size = 4
?setEndIndex@FieldPosition@icu_56@@QAEXH@Z PROC		; icu_56::FieldPosition::setEndIndex, COMDAT
; _this$ = ecx
; Line 227
	push	ebp
	mov	ebp, esp
	sub	esp, 204				; 000000ccH
	push	ebx
	push	esi
	push	edi
	push	ecx
	lea	edi, DWORD PTR [ebp-204]
	mov	ecx, 51					; 00000033H
	mov	eax, -858993460				; ccccccccH
	rep stosd
	pop	ecx
	mov	DWORD PTR _this$[ebp], ecx
	mov	eax, DWORD PTR _this$[ebp]
	mov	ecx, DWORD PTR _ei$[ebp]
	mov	DWORD PTR [eax+12], ecx
	pop	edi
	pop	esi
	pop	ebx
	mov	esp, ebp
	pop	ebp
	ret	4
?setEndIndex@FieldPosition@icu_56@@QAEXH@Z ENDP		; icu_56::FieldPosition::setEndIndex
_TEXT	ENDS
PUBLIC	??_GFieldPosition@icu_56@@UAEPAXI@Z		; icu_56::FieldPosition::`scalar deleting destructor'
EXTRN	__imp_??3UMemory@icu_56@@SAXPAX@Z:PROC
EXTRN	??1FieldPosition@icu_56@@UAE@XZ:PROC		; icu_56::FieldPosition::~FieldPosition
; Function compile flags: /Odtp /RTCsu /ZI
;	COMDAT ??_GFieldPosition@icu_56@@UAEPAXI@Z
_TEXT	SEGMENT
_this$ = -8						; size = 4
___flags$ = 8						; size = 4
??_GFieldPosition@icu_56@@UAEPAXI@Z PROC		; icu_56::FieldPosition::`scalar deleting destructor', COMDAT
; _this$ = ecx
	push	ebp
	mov	ebp, esp
	sub	esp, 204				; 000000ccH
	push	ebx
	push	esi
	push	edi
	push	ecx
	lea	edi, DWORD PTR [ebp-204]
	mov	ecx, 51					; 00000033H
	mov	eax, -858993460				; ccccccccH
	rep stosd
	pop	ecx
	mov	DWORD PTR _this$[ebp], ecx
	mov	ecx, DWORD PTR _this$[ebp]
	call	??1FieldPosition@icu_56@@UAE@XZ		; icu_56::FieldPosition::~FieldPosition
	mov	eax, DWORD PTR ___flags$[ebp]
	and	eax, 1
	je	SHORT $LN1@scalar
	mov	esi, esp
	mov	eax, DWORD PTR _this$[ebp]
	push	eax
	call	DWORD PTR __imp_??3UMemory@icu_56@@SAXPAX@Z
	add	esp, 4
	cmp	esi, esp
	call	__RTC_CheckEsp
$LN1@scalar:
	mov	eax, DWORD PTR _this$[ebp]
	pop	edi
	pop	esi
	pop	ebx
	add	esp, 204				; 000000ccH
	cmp	ebp, esp
	call	__RTC_CheckEsp
	mov	esp, ebp
	pop	ebp
	ret	4
??_GFieldPosition@icu_56@@UAEPAXI@Z ENDP		; icu_56::FieldPosition::`scalar deleting destructor'
_TEXT	ENDS
EXTRN	__imp_??_VUMemory@icu_56@@SAXPAX@Z:PROC
EXTRN	??_M@YGXPAXIHP6EX0@Z@Z:PROC			; `eh vector destructor iterator'
; Function compile flags: /Odtp /RTCsu /ZI
;	COMDAT ??_EFieldPosition@icu_56@@UAEPAXI@Z
_TEXT	SEGMENT
_this$ = -8						; size = 4
___flags$ = 8						; size = 4
??_EFieldPosition@icu_56@@UAEPAXI@Z PROC		; icu_56::FieldPosition::`vector deleting destructor', COMDAT
; _this$ = ecx
	push	ebp
	mov	ebp, esp
	sub	esp, 204				; 000000ccH
	push	ebx
	push	esi
	push	edi
	push	ecx
	lea	edi, DWORD PTR [ebp-204]
	mov	ecx, 51					; 00000033H
	mov	eax, -858993460				; ccccccccH
	rep stosd
	pop	ecx
	mov	DWORD PTR _this$[ebp], ecx
	mov	eax, DWORD PTR ___flags$[ebp]
	and	eax, 2
	je	SHORT $LN3@vector
	push	OFFSET ??1FieldPosition@icu_56@@UAE@XZ	; icu_56::FieldPosition::~FieldPosition
	mov	eax, DWORD PTR _this$[ebp]
	mov	ecx, DWORD PTR [eax-4]
	push	ecx
	push	16					; 00000010H
	mov	edx, DWORD PTR _this$[ebp]
	push	edx
	call	??_M@YGXPAXIHP6EX0@Z@Z
	mov	eax, DWORD PTR ___flags$[ebp]
	and	eax, 1
	je	SHORT $LN2@vector
	mov	eax, DWORD PTR _this$[ebp]
	sub	eax, 4
	mov	esi, esp
	push	eax
	call	DWORD PTR __imp_??_VUMemory@icu_56@@SAXPAX@Z
	add	esp, 4
	cmp	esi, esp
	call	__RTC_CheckEsp
$LN2@vector:
	mov	eax, DWORD PTR _this$[ebp]
	sub	eax, 4
	jmp	SHORT $LN4@vector
$LN3@vector:
	mov	ecx, DWORD PTR _this$[ebp]
	call	??1FieldPosition@icu_56@@UAE@XZ		; icu_56::FieldPosition::~FieldPosition
	mov	eax, DWORD PTR ___flags$[ebp]
	and	eax, 1
	je	SHORT $LN1@vector
	mov	esi, esp
	mov	eax, DWORD PTR _this$[ebp]
	push	eax
	call	DWORD PTR __imp_??3UMemory@icu_56@@SAXPAX@Z
	add	esp, 4
	cmp	esi, esp
	call	__RTC_CheckEsp
$LN1@vector:
	mov	eax, DWORD PTR _this$[ebp]
$LN4@vector:
	pop	edi
	pop	esi
	pop	ebx
	add	esp, 204				; 000000ccH
	cmp	ebp, esp
	call	__RTC_CheckEsp
	mov	esp, ebp
	pop	ebp
	ret	4
??_EFieldPosition@icu_56@@UAEPAXI@Z ENDP		; icu_56::FieldPosition::`vector deleting destructor'
_TEXT	ENDS
PUBLIC	??4FieldPosition@icu_56@@QAEAAV01@ABV01@@Z	; icu_56::FieldPosition::operator=
; Function compile flags: /Odtp /RTCsu /ZI
;	COMDAT ??4FieldPosition@icu_56@@QAEAAV01@ABV01@@Z
_TEXT	SEGMENT
_this$ = -8						; size = 4
_copy$ = 8						; size = 4
??4FieldPosition@icu_56@@QAEAAV01@ABV01@@Z PROC		; icu_56::FieldPosition::operator=, COMDAT
; _this$ = ecx
; Line 265
	push	ebp
	mov	ebp, esp
	sub	esp, 204				; 000000ccH
	push	ebx
	push	esi
	push	edi
	push	ecx
	lea	edi, DWORD PTR [ebp-204]
	mov	ecx, 51					; 00000033H
	mov	eax, -858993460				; ccccccccH
	rep stosd
	pop	ecx
	mov	DWORD PTR _this$[ebp], ecx
; Line 266
	mov	eax, DWORD PTR _this$[ebp]
	mov	ecx, DWORD PTR _copy$[ebp]
	mov	edx, DWORD PTR [ecx+4]
	mov	DWORD PTR [eax+4], edx
; Line 267
	mov	eax, DWORD PTR _this$[ebp]
	mov	ecx, DWORD PTR _copy$[ebp]
	mov	edx, DWORD PTR [ecx+12]
	mov	DWORD PTR [eax+12], edx
; Line 268
	mov	eax, DWORD PTR _this$[ebp]
	mov	ecx, DWORD PTR _copy$[ebp]
	mov	edx, DWORD PTR [ecx+8]
	mov	DWORD PTR [eax+8], edx
; Line 269
	mov	eax, DWORD PTR _this$[ebp]
; Line 270
	pop	edi
	pop	esi
	pop	ebx
	mov	esp, ebp
	pop	ebp
	ret	4
??4FieldPosition@icu_56@@QAEAAV01@ABV01@@Z ENDP		; icu_56::FieldPosition::operator=
_TEXT	ENDS
PUBLIC	??8FieldPosition@icu_56@@QBECABV01@@Z		; icu_56::FieldPosition::operator==
; Function compile flags: /Odtp /RTCsu /ZI
;	COMDAT ??8FieldPosition@icu_56@@QBECABV01@@Z
_TEXT	SEGMENT
tv73 = -205						; size = 1
_this$ = -8						; size = 4
_copy$ = 8						; size = 4
??8FieldPosition@icu_56@@QBECABV01@@Z PROC		; icu_56::FieldPosition::operator==, COMDAT
; _this$ = ecx
; Line 274
	push	ebp
	mov	ebp, esp
	sub	esp, 208				; 000000d0H
	push	ebx
	push	esi
	push	edi
	push	ecx
	lea	edi, DWORD PTR [ebp-208]
	mov	ecx, 52					; 00000034H
	mov	eax, -858993460				; ccccccccH
	rep stosd
	pop	ecx
	mov	DWORD PTR _this$[ebp], ecx
; Line 277
	mov	eax, DWORD PTR _this$[ebp]
	mov	ecx, DWORD PTR _copy$[ebp]
	mov	edx, DWORD PTR [eax+4]
	cmp	edx, DWORD PTR [ecx+4]
	jne	SHORT $LN3@operator
	mov	eax, DWORD PTR _this$[ebp]
	mov	ecx, DWORD PTR _copy$[ebp]
	mov	edx, DWORD PTR [eax+12]
	cmp	edx, DWORD PTR [ecx+12]
	jne	SHORT $LN3@operator
	mov	eax, DWORD PTR _this$[ebp]
	mov	ecx, DWORD PTR _copy$[ebp]
	mov	edx, DWORD PTR [eax+8]
	cmp	edx, DWORD PTR [ecx+8]
	jne	SHORT $LN3@operator
	mov	BYTE PTR tv73[ebp], 1
	jmp	SHORT $LN4@operator
$LN3@operator:
	mov	BYTE PTR tv73[ebp], 0
$LN4@operator:
	mov	al, BYTE PTR tv73[ebp]
; Line 278
	pop	edi
	pop	esi
	pop	ebx
	mov	esp, ebp
	pop	ebp
	ret	4
??8FieldPosition@icu_56@@QBECABV01@@Z ENDP		; icu_56::FieldPosition::operator==
_TEXT	ENDS
PUBLIC	??9FieldPosition@icu_56@@QBECABV01@@Z		; icu_56::FieldPosition::operator!=
; Function compile flags: /Odtp /RTCsu /ZI
;	COMDAT ??9FieldPosition@icu_56@@QBECABV01@@Z
_TEXT	SEGMENT
_this$ = -8						; size = 4
_copy$ = 8						; size = 4
??9FieldPosition@icu_56@@QBECABV01@@Z PROC		; icu_56::FieldPosition::operator!=, COMDAT
; _this$ = ecx
; Line 282
	push	ebp
	mov	ebp, esp
	sub	esp, 204				; 000000ccH
	push	ebx
	push	esi
	push	edi
	push	ecx
	lea	edi, DWORD PTR [ebp-204]
	mov	ecx, 51					; 00000033H
	mov	eax, -858993460				; ccccccccH
	rep stosd
	pop	ecx
	mov	DWORD PTR _this$[ebp], ecx
; Line 283
	mov	eax, DWORD PTR _copy$[ebp]
	push	eax
	mov	ecx, DWORD PTR _this$[ebp]
	call	??8FieldPosition@icu_56@@QBECABV01@@Z	; icu_56::FieldPosition::operator==
	movsx	ecx, al
	test	ecx, ecx
	sete	al
; Line 284
	pop	edi
	pop	esi
	pop	ebx
	add	esp, 204				; 000000ccH
	cmp	ebp, esp
	call	__RTC_CheckEsp
	mov	esp, ebp
	pop	ebp
	ret	4
??9FieldPosition@icu_56@@QBECABV01@@Z ENDP		; icu_56::FieldPosition::operator!=
_TEXT	ENDS
PUBLIC	??9FieldPositionIterator@icu_56@@QBECABV01@@Z	; icu_56::FieldPositionIterator::operator!=
EXTRN	??8FieldPositionIterator@icu_56@@QBECABV01@@Z:PROC ; icu_56::FieldPositionIterator::operator==
; Function compile flags: /Odtp /RTCsu /ZI
;	COMDAT ??9FieldPositionIterator@icu_56@@QBECABV01@@Z
_TEXT	SEGMENT
_this$ = -8						; size = 4
_rhs$ = 8						; size = 4
??9FieldPositionIterator@icu_56@@QBECABV01@@Z PROC	; icu_56::FieldPositionIterator::operator!=, COMDAT
; _this$ = ecx
; File d:\mozilla\intl\icu\source\i18n\unicode\fpositer.h
; Line 90
	push	ebp
	mov	ebp, esp
	sub	esp, 204				; 000000ccH
	push	ebx
	push	esi
	push	edi
	push	ecx
	lea	edi, DWORD PTR [ebp-204]
	mov	ecx, 51					; 00000033H
	mov	eax, -858993460				; ccccccccH
	rep stosd
	pop	ecx
	mov	DWORD PTR _this$[ebp], ecx
	mov	eax, DWORD PTR _rhs$[ebp]
	push	eax
	mov	ecx, DWORD PTR _this$[ebp]
	call	??8FieldPositionIterator@icu_56@@QBECABV01@@Z ; icu_56::FieldPositionIterator::operator==
	movsx	ecx, al
	test	ecx, ecx
	sete	al
	pop	edi
	pop	esi
	pop	ebx
	add	esp, 204				; 000000ccH
	cmp	ebp, esp
	call	__RTC_CheckEsp
	mov	esp, ebp
	pop	ebp
	ret	4
??9FieldPositionIterator@icu_56@@QBECABV01@@Z ENDP	; icu_56::FieldPositionIterator::operator!=
_TEXT	ENDS
PUBLIC	??4FieldPositionIterator@icu_56@@QAEAAV01@ABV01@@Z ; icu_56::FieldPositionIterator::operator=
EXTRN	__imp_??4UObject@icu_56@@QAEAAV01@ABV01@@Z:PROC
; Function compile flags: /Odtp /RTCsu /ZI
;	COMDAT ??4FieldPositionIterator@icu_56@@QAEAAV01@ABV01@@Z
_TEXT	SEGMENT
_this$ = -8						; size = 4
___that$ = 8						; size = 4
??4FieldPositionIterator@icu_56@@QAEAAV01@ABV01@@Z PROC	; icu_56::FieldPositionIterator::operator=, COMDAT
; _this$ = ecx
	push	ebp
	mov	ebp, esp
	sub	esp, 204				; 000000ccH
	push	ebx
	push	esi
	push	edi
	push	ecx
	lea	edi, DWORD PTR [ebp-204]
	mov	ecx, 51					; 00000033H
	mov	eax, -858993460				; ccccccccH
	rep stosd
	pop	ecx
	mov	DWORD PTR _this$[ebp], ecx
	mov	esi, esp
	mov	eax, DWORD PTR ___that$[ebp]
	push	eax
	mov	ecx, DWORD PTR _this$[ebp]
	call	DWORD PTR __imp_??4UObject@icu_56@@QAEAAV01@ABV01@@Z
	cmp	esi, esp
	call	__RTC_CheckEsp
	mov	eax, DWORD PTR _this$[ebp]
	mov	ecx, DWORD PTR ___that$[ebp]
	mov	edx, DWORD PTR [ecx+4]
	mov	DWORD PTR [eax+4], edx
	mov	eax, DWORD PTR _this$[ebp]
	mov	ecx, DWORD PTR ___that$[ebp]
	mov	edx, DWORD PTR [ecx+8]
	mov	DWORD PTR [eax+8], edx
	mov	eax, DWORD PTR _this$[ebp]
	pop	edi
	pop	esi
	pop	ebx
	add	esp, 204				; 000000ccH
	cmp	ebp, esp
	call	__RTC_CheckEsp
	mov	esp, ebp
	pop	ebp
	ret	4
??4FieldPositionIterator@icu_56@@QAEAAV01@ABV01@@Z ENDP	; icu_56::FieldPositionIterator::operator=
_TEXT	ENDS
PUBLIC	??9Format@icu_56@@QBECABV01@@Z			; icu_56::Format::operator!=
; Function compile flags: /Odtp /RTCsu /ZI
;	COMDAT ??9Format@icu_56@@QBECABV01@@Z
_TEXT	SEGMENT
_this$ = -8						; size = 4
_other$ = 8						; size = 4
??9Format@icu_56@@QBECABV01@@Z PROC			; icu_56::Format::operator!=, COMDAT
; _this$ = ecx
; File d:\mozilla\intl\icu\source\i18n\unicode\format.h
; Line 119
	push	ebp
	mov	ebp, esp
	sub	esp, 204				; 000000ccH
	push	ebx
	push	esi
	push	edi
	push	ecx
	lea	edi, DWORD PTR [ebp-204]
	mov	ecx, 51					; 00000033H
	mov	eax, -858993460				; ccccccccH
	rep stosd
	pop	ecx
	mov	DWORD PTR _this$[ebp], ecx
	mov	esi, esp
	mov	eax, DWORD PTR _other$[ebp]
	push	eax
	mov	ecx, DWORD PTR _this$[ebp]
	mov	edx, DWORD PTR [ecx]
	mov	ecx, DWORD PTR _this$[ebp]
	mov	eax, DWORD PTR [edx+8]
	call	eax
	cmp	esi, esp
	call	__RTC_CheckEsp
	movsx	ecx, al
	test	ecx, ecx
	sete	al
	pop	edi
	pop	esi
	pop	ebx
	add	esp, 204				; 000000ccH
	cmp	ebp, esp
	call	__RTC_CheckEsp
	mov	esp, ebp
	pop	ebp
	ret	4
??9Format@icu_56@@QBECABV01@@Z ENDP			; icu_56::Format::operator!=
_TEXT	ENDS
PUBLIC	??9PluralRules@icu_56@@QBECABV01@@Z		; icu_56::PluralRules::operator!=
; Function compile flags: /Odtp /RTCsu /ZI
;	COMDAT ??9PluralRules@icu_56@@QBECABV01@@Z
_TEXT	SEGMENT
_this$ = -8						; size = 4
_other$ = 8						; size = 4
??9PluralRules@icu_56@@QBECABV01@@Z PROC		; icu_56::PluralRules::operator!=, COMDAT
; _this$ = ecx
; File d:\mozilla\intl\icu\source\i18n\unicode\plurrule.h
; Line 474
	push	ebp
	mov	ebp, esp
	sub	esp, 204				; 000000ccH
	push	ebx
	push	esi
	push	edi
	push	ecx
	lea	edi, DWORD PTR [ebp-204]
	mov	ecx, 51					; 00000033H
	mov	eax, -858993460				; ccccccccH
	rep stosd
	pop	ecx
	mov	DWORD PTR _this$[ebp], ecx
	mov	esi, esp
	mov	eax, DWORD PTR _other$[ebp]
	push	eax
	mov	ecx, DWORD PTR _this$[ebp]
	mov	edx, DWORD PTR [ecx]
	mov	ecx, DWORD PTR _this$[ebp]
	mov	eax, DWORD PTR [edx+8]
	call	eax
	cmp	esi, esp
	call	__RTC_CheckEsp
	movsx	ecx, al
	test	ecx, ecx
	sete	al
	pop	edi
	pop	esi
	pop	ebx
	add	esp, 204				; 000000ccH
	cmp	ebp, esp
	call	__RTC_CheckEsp
	mov	esp, ebp
	pop	ebp
	ret	4
??9PluralRules@icu_56@@QBECABV01@@Z ENDP		; icu_56::PluralRules::operator!=
_TEXT	ENDS
PUBLIC	??4NumberingSystem@icu_56@@QAEAAV01@ABV01@@Z	; icu_56::NumberingSystem::operator=
; Function compile flags: /Odtp /RTCsu /ZI
;	COMDAT ??4NumberingSystem@icu_56@@QAEAAV01@ABV01@@Z
_TEXT	SEGMENT
_$S1$37247 = -20					; size = 4
_this$ = -8						; size = 4
___that$ = 8						; size = 4
??4NumberingSystem@icu_56@@QAEAAV01@ABV01@@Z PROC	; icu_56::NumberingSystem::operator=, COMDAT
; _this$ = ecx
	push	ebp
	mov	ebp, esp
	sub	esp, 216				; 000000d8H
	push	ebx
	push	esi
	push	edi
	push	ecx
	lea	edi, DWORD PTR [ebp-216]
	mov	ecx, 54					; 00000036H
	mov	eax, -858993460				; ccccccccH
	rep stosd
	pop	ecx
	mov	DWORD PTR _this$[ebp], ecx
	mov	esi, esp
	mov	eax, DWORD PTR ___that$[ebp]
	push	eax
	mov	ecx, DWORD PTR _this$[ebp]
	call	DWORD PTR __imp_??4UObject@icu_56@@QAEAAV01@ABV01@@Z
	cmp	esi, esp
	call	__RTC_CheckEsp
	mov	eax, DWORD PTR ___that$[ebp]
	add	eax, 4
	mov	esi, esp
	push	eax
	mov	ecx, DWORD PTR _this$[ebp]
	add	ecx, 4
	call	DWORD PTR __imp_??4UnicodeString@icu_56@@QAEAAV01@ABV01@@Z
	cmp	esi, esp
	call	__RTC_CheckEsp
	mov	eax, DWORD PTR _this$[ebp]
	mov	ecx, DWORD PTR ___that$[ebp]
	mov	edx, DWORD PTR [ecx+68]
	mov	DWORD PTR [eax+68], edx
	mov	eax, DWORD PTR _this$[ebp]
	mov	ecx, DWORD PTR ___that$[ebp]
	mov	dl, BYTE PTR [ecx+72]
	mov	BYTE PTR [eax+72], dl
	mov	DWORD PTR _$S1$37247[ebp], 0
	jmp	SHORT $LN3@operator@2
$LN2@operator@2:
	mov	eax, DWORD PTR _$S1$37247[ebp]
	add	eax, 1
	mov	DWORD PTR _$S1$37247[ebp], eax
$LN3@operator@2:
	cmp	DWORD PTR _$S1$37247[ebp], 9
	jae	SHORT $LN1@operator@2
	mov	eax, DWORD PTR _this$[ebp]
	add	eax, DWORD PTR _$S1$37247[ebp]
	mov	ecx, DWORD PTR ___that$[ebp]
	add	ecx, DWORD PTR _$S1$37247[ebp]
	mov	dl, BYTE PTR [ecx+73]
	mov	BYTE PTR [eax+73], dl
	jmp	SHORT $LN2@operator@2
$LN1@operator@2:
	mov	eax, DWORD PTR _this$[ebp]
	pop	edi
	pop	esi
	pop	ebx
	add	esp, 216				; 000000d8H
	cmp	ebp, esp
	call	__RTC_CheckEsp
	mov	esp, ebp
	pop	ebp
	ret	4
??4NumberingSystem@icu_56@@QAEAAV01@ABV01@@Z ENDP	; icu_56::NumberingSystem::operator=
_TEXT	ENDS
PUBLIC	??4FixedDecimal@icu_56@@QAEAAV01@ABV01@@Z	; icu_56::FixedDecimal::operator=
; Function compile flags: /Odtp /RTCsu /ZI
;	COMDAT ??4FixedDecimal@icu_56@@QAEAAV01@ABV01@@Z
_TEXT	SEGMENT
_this$ = -8						; size = 4
___that$ = 8						; size = 4
??4FixedDecimal@icu_56@@QAEAAV01@ABV01@@Z PROC		; icu_56::FixedDecimal::operator=, COMDAT
; _this$ = ecx
	push	ebp
	mov	ebp, esp
	sub	esp, 204				; 000000ccH
	push	ebx
	push	esi
	push	edi
	push	ecx
	lea	edi, DWORD PTR [ebp-204]
	mov	ecx, 51					; 00000033H
	mov	eax, -858993460				; ccccccccH
	rep stosd
	pop	ecx
	mov	DWORD PTR _this$[ebp], ecx
	mov	esi, DWORD PTR ___that$[ebp]
	mov	ecx, 12					; 0000000cH
	mov	edi, DWORD PTR _this$[ebp]
	rep movsd
	mov	eax, DWORD PTR _this$[ebp]
	pop	edi
	pop	esi
	pop	ebx
	mov	esp, ebp
	pop	ebp
	ret	4
??4FixedDecimal@icu_56@@QAEAAV01@ABV01@@Z ENDP		; icu_56::FixedDecimal::operator=
_TEXT	ENDS
PUBLIC	??_7PluralAvailableLocalesEnumeration@icu_56@@6B@ ; icu_56::PluralAvailableLocalesEnumeration::`vftable'
PUBLIC	??0PluralAvailableLocalesEnumeration@icu_56@@QAE@ABV01@@Z ; icu_56::PluralAvailableLocalesEnumeration::PluralAvailableLocalesEnumeration
PUBLIC	??_R4PluralAvailableLocalesEnumeration@icu_56@@6B@ ; icu_56::PluralAvailableLocalesEnumeration::`RTTI Complete Object Locator'
PUBLIC	??_R0?AVPluralAvailableLocalesEnumeration@icu_56@@@8 ; icu_56::PluralAvailableLocalesEnumeration `RTTI Type Descriptor'
PUBLIC	??_R3PluralAvailableLocalesEnumeration@icu_56@@8 ; icu_56::PluralAvailableLocalesEnumeration::`RTTI Class Hierarchy Descriptor'
PUBLIC	??_R2PluralAvailableLocalesEnumeration@icu_56@@8 ; icu_56::PluralAvailableLocalesEnumeration::`RTTI Base Class Array'
PUBLIC	??_R1A@?0A@EA@PluralAvailableLocalesEnumeration@icu_56@@8 ; icu_56::PluralAvailableLocalesEnumeration::`RTTI Base Class Descriptor at (0,-1,0,64)'
PUBLIC	??_R1A@?0A@EA@StringEnumeration@icu_56@@8	; icu_56::StringEnumeration::`RTTI Base Class Descriptor at (0,-1,0,64)'
PUBLIC	??_R0?AVStringEnumeration@icu_56@@@8		; icu_56::StringEnumeration `RTTI Type Descriptor'
PUBLIC	??_R3StringEnumeration@icu_56@@8		; icu_56::StringEnumeration::`RTTI Class Hierarchy Descriptor'
PUBLIC	??_R2StringEnumeration@icu_56@@8		; icu_56::StringEnumeration::`RTTI Base Class Array'
PUBLIC	??_EPluralAvailableLocalesEnumeration@icu_56@@UAEPAXI@Z ; icu_56::PluralAvailableLocalesEnumeration::`vector deleting destructor'
EXTRN	__imp_??0StringEnumeration@icu_56@@QAE@ABV01@@Z:PROC
EXTRN	?getDynamicClassID@UObject@icu_56@@UBEPAXXZ:PROC ; icu_56::UObject::getDynamicClassID
EXTRN	?clone@StringEnumeration@icu_56@@UBEPAV12@XZ:PROC ; icu_56::StringEnumeration::clone
EXTRN	?count@PluralAvailableLocalesEnumeration@icu_56@@UBEHAAW4UErrorCode@@@Z:PROC ; icu_56::PluralAvailableLocalesEnumeration::count
EXTRN	?next@PluralAvailableLocalesEnumeration@icu_56@@UAEPBDPAHAAW4UErrorCode@@@Z:PROC ; icu_56::PluralAvailableLocalesEnumeration::next
EXTRN	?unext@StringEnumeration@icu_56@@UAEPB_WPAHAAW4UErrorCode@@@Z:PROC ; icu_56::StringEnumeration::unext
EXTRN	?snext@StringEnumeration@icu_56@@UAEPBVUnicodeString@2@AAW4UErrorCode@@@Z:PROC ; icu_56::StringEnumeration::snext
EXTRN	?reset@PluralAvailableLocalesEnumeration@icu_56@@UAEXAAW4UErrorCode@@@Z:PROC ; icu_56::PluralAvailableLocalesEnumeration::reset
EXTRN	??8StringEnumeration@icu_56@@UBECABV01@@Z:PROC	; icu_56::StringEnumeration::operator==
EXTRN	??9StringEnumeration@icu_56@@UBECABV01@@Z:PROC	; icu_56::StringEnumeration::operator!=
;	COMDAT ??_R2StringEnumeration@icu_56@@8
rdata$r	SEGMENT
??_R2StringEnumeration@icu_56@@8 DD FLAT:??_R1A@?0A@EA@StringEnumeration@icu_56@@8 ; icu_56::StringEnumeration::`RTTI Base Class Array'
	DD	FLAT:??_R1A@?0A@EA@UObject@icu_56@@8
	DD	FLAT:??_R13?0A@EA@UMemory@icu_56@@8
rdata$r	ENDS
;	COMDAT ??_R3StringEnumeration@icu_56@@8
rdata$r	SEGMENT
??_R3StringEnumeration@icu_56@@8 DD 00H			; icu_56::StringEnumeration::`RTTI Class Hierarchy Descriptor'
	DD	00H
	DD	03H
	DD	FLAT:??_R2StringEnumeration@icu_56@@8
rdata$r	ENDS
;	COMDAT ??_R0?AVStringEnumeration@icu_56@@@8
_DATA	SEGMENT
??_R0?AVStringEnumeration@icu_56@@@8 DD FLAT:??_7type_info@@6B@ ; icu_56::StringEnumeration `RTTI Type Descriptor'
	DD	00H
	DB	'.?AVStringEnumeration@icu_56@@', 00H
_DATA	ENDS
;	COMDAT ??_R1A@?0A@EA@StringEnumeration@icu_56@@8
rdata$r	SEGMENT
??_R1A@?0A@EA@StringEnumeration@icu_56@@8 DD FLAT:??_R0?AVStringEnumeration@icu_56@@@8 ; icu_56::StringEnumeration::`RTTI Base Class Descriptor at (0,-1,0,64)'
	DD	02H
	DD	00H
	DD	0ffffffffH
	DD	00H
	DD	040H
	DD	FLAT:??_R3StringEnumeration@icu_56@@8
rdata$r	ENDS
;	COMDAT ??_R1A@?0A@EA@PluralAvailableLocalesEnumeration@icu_56@@8
rdata$r	SEGMENT
??_R1A@?0A@EA@PluralAvailableLocalesEnumeration@icu_56@@8 DD FLAT:??_R0?AVPluralAvailableLocalesEnumeration@icu_56@@@8 ; icu_56::PluralAvailableLocalesEnumeration::`RTTI Base Class Descriptor at (0,-1,0,64)'
	DD	03H
	DD	00H
	DD	0ffffffffH
	DD	00H
	DD	040H
	DD	FLAT:??_R3PluralAvailableLocalesEnumeration@icu_56@@8
rdata$r	ENDS
;	COMDAT ??_R2PluralAvailableLocalesEnumeration@icu_56@@8
rdata$r	SEGMENT
??_R2PluralAvailableLocalesEnumeration@icu_56@@8 DD FLAT:??_R1A@?0A@EA@PluralAvailableLocalesEnumeration@icu_56@@8 ; icu_56::PluralAvailableLocalesEnumeration::`RTTI Base Class Array'
	DD	FLAT:??_R1A@?0A@EA@StringEnumeration@icu_56@@8
	DD	FLAT:??_R1A@?0A@EA@UObject@icu_56@@8
	DD	FLAT:??_R13?0A@EA@UMemory@icu_56@@8
rdata$r	ENDS
;	COMDAT ??_R3PluralAvailableLocalesEnumeration@icu_56@@8
rdata$r	SEGMENT
??_R3PluralAvailableLocalesEnumeration@icu_56@@8 DD 00H	; icu_56::PluralAvailableLocalesEnumeration::`RTTI Class Hierarchy Descriptor'
	DD	00H
	DD	04H
	DD	FLAT:??_R2PluralAvailableLocalesEnumeration@icu_56@@8
rdata$r	ENDS
;	COMDAT ??_R0?AVPluralAvailableLocalesEnumeration@icu_56@@@8
_DATA	SEGMENT
??_R0?AVPluralAvailableLocalesEnumeration@icu_56@@@8 DD FLAT:??_7type_info@@6B@ ; icu_56::PluralAvailableLocalesEnumeration `RTTI Type Descriptor'
	DD	00H
	DB	'.?AVPluralAvailableLocalesEnumeration@icu_56@@', 00H
_DATA	ENDS
;	COMDAT ??_R4PluralAvailableLocalesEnumeration@icu_56@@6B@
rdata$r	SEGMENT
??_R4PluralAvailableLocalesEnumeration@icu_56@@6B@ DD 00H ; icu_56::PluralAvailableLocalesEnumeration::`RTTI Complete Object Locator'
	DD	00H
	DD	00H
	DD	FLAT:??_R0?AVPluralAvailableLocalesEnumeration@icu_56@@@8
	DD	FLAT:??_R3PluralAvailableLocalesEnumeration@icu_56@@8
rdata$r	ENDS
;	COMDAT ??_7PluralAvailableLocalesEnumeration@icu_56@@6B@
CONST	SEGMENT
??_7PluralAvailableLocalesEnumeration@icu_56@@6B@ DD FLAT:??_R4PluralAvailableLocalesEnumeration@icu_56@@6B@ ; icu_56::PluralAvailableLocalesEnumeration::`vftable'
	DD	FLAT:??_EPluralAvailableLocalesEnumeration@icu_56@@UAEPAXI@Z
	DD	FLAT:?getDynamicClassID@UObject@icu_56@@UBEPAXXZ
	DD	FLAT:?clone@StringEnumeration@icu_56@@UBEPAV12@XZ
	DD	FLAT:?count@PluralAvailableLocalesEnumeration@icu_56@@UBEHAAW4UErrorCode@@@Z
	DD	FLAT:?next@PluralAvailableLocalesEnumeration@icu_56@@UAEPBDPAHAAW4UErrorCode@@@Z
	DD	FLAT:?unext@StringEnumeration@icu_56@@UAEPB_WPAHAAW4UErrorCode@@@Z
	DD	FLAT:?snext@StringEnumeration@icu_56@@UAEPBVUnicodeString@2@AAW4UErrorCode@@@Z
	DD	FLAT:?reset@PluralAvailableLocalesEnumeration@icu_56@@UAEXAAW4UErrorCode@@@Z
	DD	FLAT:??8StringEnumeration@icu_56@@UBECABV01@@Z
	DD	FLAT:??9StringEnumeration@icu_56@@UBECABV01@@Z
; Function compile flags: /Odtp /RTCsu /ZI
CONST	ENDS
;	COMDAT ??0PluralAvailableLocalesEnumeration@icu_56@@QAE@ABV01@@Z
_TEXT	SEGMENT
_this$ = -8						; size = 4
___that$ = 8						; size = 4
??0PluralAvailableLocalesEnumeration@icu_56@@QAE@ABV01@@Z PROC ; icu_56::PluralAvailableLocalesEnumeration::PluralAvailableLocalesEnumeration, COMDAT
; _this$ = ecx
	push	ebp
	mov	ebp, esp
	sub	esp, 204				; 000000ccH
	push	ebx
	push	esi
	push	edi
	push	ecx
	lea	edi, DWORD PTR [ebp-204]
	mov	ecx, 51					; 00000033H
	mov	eax, -858993460				; ccccccccH
	rep stosd
	pop	ecx
	mov	DWORD PTR _this$[ebp], ecx
	mov	esi, esp
	mov	eax, DWORD PTR ___that$[ebp]
	push	eax
	mov	ecx, DWORD PTR _this$[ebp]
	call	DWORD PTR __imp_??0StringEnumeration@icu_56@@QAE@ABV01@@Z
	cmp	esi, esp
	call	__RTC_CheckEsp
	mov	eax, DWORD PTR _this$[ebp]
	mov	DWORD PTR [eax], OFFSET ??_7PluralAvailableLocalesEnumeration@icu_56@@6B@
	mov	eax, DWORD PTR _this$[ebp]
	mov	ecx, DWORD PTR ___that$[ebp]
	mov	edx, DWORD PTR [ecx+108]
	mov	DWORD PTR [eax+108], edx
	mov	eax, DWORD PTR _this$[ebp]
	mov	ecx, DWORD PTR ___that$[ebp]
	mov	edx, DWORD PTR [ecx+112]
	mov	DWORD PTR [eax+112], edx
	mov	eax, DWORD PTR _this$[ebp]
	mov	ecx, DWORD PTR ___that$[ebp]
	mov	edx, DWORD PTR [ecx+116]
	mov	DWORD PTR [eax+116], edx
	mov	eax, DWORD PTR _this$[ebp]
	pop	edi
	pop	esi
	pop	ebx
	add	esp, 204				; 000000ccH
	cmp	ebp, esp
	call	__RTC_CheckEsp
	mov	esp, ebp
	pop	ebp
	ret	4
??0PluralAvailableLocalesEnumeration@icu_56@@QAE@ABV01@@Z ENDP ; icu_56::PluralAvailableLocalesEnumeration::PluralAvailableLocalesEnumeration
_TEXT	ENDS
PUBLIC	??4PluralAvailableLocalesEnumeration@icu_56@@QAEAAV01@ABV01@@Z ; icu_56::PluralAvailableLocalesEnumeration::operator=
EXTRN	__imp_??4StringEnumeration@icu_56@@QAEAAV01@ABV01@@Z:PROC
; Function compile flags: /Odtp /RTCsu /ZI
;	COMDAT ??4PluralAvailableLocalesEnumeration@icu_56@@QAEAAV01@ABV01@@Z
_TEXT	SEGMENT
_this$ = -8						; size = 4
___that$ = 8						; size = 4
??4PluralAvailableLocalesEnumeration@icu_56@@QAEAAV01@ABV01@@Z PROC ; icu_56::PluralAvailableLocalesEnumeration::operator=, COMDAT
; _this$ = ecx
	push	ebp
	mov	ebp, esp
	sub	esp, 204				; 000000ccH
	push	ebx
	push	esi
	push	edi
	push	ecx
	lea	edi, DWORD PTR [ebp-204]
	mov	ecx, 51					; 00000033H
	mov	eax, -858993460				; ccccccccH
	rep stosd
	pop	ecx
	mov	DWORD PTR _this$[ebp], ecx
	mov	esi, esp
	mov	eax, DWORD PTR ___that$[ebp]
	push	eax
	mov	ecx, DWORD PTR _this$[ebp]
	call	DWORD PTR __imp_??4StringEnumeration@icu_56@@QAEAAV01@ABV01@@Z
	cmp	esi, esp
	call	__RTC_CheckEsp
	mov	eax, DWORD PTR _this$[ebp]
	mov	ecx, DWORD PTR ___that$[ebp]
	mov	edx, DWORD PTR [ecx+108]
	mov	DWORD PTR [eax+108], edx
	mov	eax, DWORD PTR _this$[ebp]
	mov	ecx, DWORD PTR ___that$[ebp]
	mov	edx, DWORD PTR [ecx+112]
	mov	DWORD PTR [eax+112], edx
	mov	eax, DWORD PTR _this$[ebp]
	mov	ecx, DWORD PTR ___that$[ebp]
	mov	edx, DWORD PTR [ecx+116]
	mov	DWORD PTR [eax+116], edx
	mov	eax, DWORD PTR _this$[ebp]
	pop	edi
	pop	esi
	pop	ebx
	add	esp, 204				; 000000ccH
	cmp	ebp, esp
	call	__RTC_CheckEsp
	mov	esp, ebp
	pop	ebp
	ret	4
??4PluralAvailableLocalesEnumeration@icu_56@@QAEAAV01@ABV01@@Z ENDP ; icu_56::PluralAvailableLocalesEnumeration::operator=
_TEXT	ENDS
PUBLIC	??_GPluralAvailableLocalesEnumeration@icu_56@@UAEPAXI@Z ; icu_56::PluralAvailableLocalesEnumeration::`scalar deleting destructor'
EXTRN	??1PluralAvailableLocalesEnumeration@icu_56@@UAE@XZ:PROC ; icu_56::PluralAvailableLocalesEnumeration::~PluralAvailableLocalesEnumeration
; Function compile flags: /Odtp /RTCsu /ZI
;	COMDAT ??_GPluralAvailableLocalesEnumeration@icu_56@@UAEPAXI@Z
_TEXT	SEGMENT
_this$ = -8						; size = 4
___flags$ = 8						; size = 4
??_GPluralAvailableLocalesEnumeration@icu_56@@UAEPAXI@Z PROC ; icu_56::PluralAvailableLocalesEnumeration::`scalar deleting destructor', COMDAT
; _this$ = ecx
	push	ebp
	mov	ebp, esp
	sub	esp, 204				; 000000ccH
	push	ebx
	push	esi
	push	edi
	push	ecx
	lea	edi, DWORD PTR [ebp-204]
	mov	ecx, 51					; 00000033H
	mov	eax, -858993460				; ccccccccH
	rep stosd
	pop	ecx
	mov	DWORD PTR _this$[ebp], ecx
	mov	ecx, DWORD PTR _this$[ebp]
	call	??1PluralAvailableLocalesEnumeration@icu_56@@UAE@XZ ; icu_56::PluralAvailableLocalesEnumeration::~PluralAvailableLocalesEnumeration
	mov	eax, DWORD PTR ___flags$[ebp]
	and	eax, 1
	je	SHORT $LN1@scalar@2
	mov	esi, esp
	mov	eax, DWORD PTR _this$[ebp]
	push	eax
	call	DWORD PTR __imp_??3UMemory@icu_56@@SAXPAX@Z
	add	esp, 4
	cmp	esi, esp
	call	__RTC_CheckEsp
$LN1@scalar@2:
	mov	eax, DWORD PTR _this$[ebp]
	pop	edi
	pop	esi
	pop	ebx
	add	esp, 204				; 000000ccH
	cmp	ebp, esp
	call	__RTC_CheckEsp
	mov	esp, ebp
	pop	ebp
	ret	4
??_GPluralAvailableLocalesEnumeration@icu_56@@UAEPAXI@Z ENDP ; icu_56::PluralAvailableLocalesEnumeration::`scalar deleting destructor'
; Function compile flags: /Odtp /RTCsu /ZI
_TEXT	ENDS
;	COMDAT ??_EPluralAvailableLocalesEnumeration@icu_56@@UAEPAXI@Z
_TEXT	SEGMENT
_this$ = -8						; size = 4
___flags$ = 8						; size = 4
??_EPluralAvailableLocalesEnumeration@icu_56@@UAEPAXI@Z PROC ; icu_56::PluralAvailableLocalesEnumeration::`vector deleting destructor', COMDAT
; _this$ = ecx
	push	ebp
	mov	ebp, esp
	sub	esp, 204				; 000000ccH
	push	ebx
	push	esi
	push	edi
	push	ecx
	lea	edi, DWORD PTR [ebp-204]
	mov	ecx, 51					; 00000033H
	mov	eax, -858993460				; ccccccccH
	rep stosd
	pop	ecx
	mov	DWORD PTR _this$[ebp], ecx
	mov	eax, DWORD PTR ___flags$[ebp]
	and	eax, 2
	je	SHORT $LN3@vector@2
	push	OFFSET ??1PluralAvailableLocalesEnumeration@icu_56@@UAE@XZ ; icu_56::PluralAvailableLocalesEnumeration::~PluralAvailableLocalesEnumeration
	mov	eax, DWORD PTR _this$[ebp]
	mov	ecx, DWORD PTR [eax-4]
	push	ecx
	push	120					; 00000078H
	mov	edx, DWORD PTR _this$[ebp]
	push	edx
	call	??_M@YGXPAXIHP6EX0@Z@Z
	mov	eax, DWORD PTR ___flags$[ebp]
	and	eax, 1
	je	SHORT $LN2@vector@2
	mov	eax, DWORD PTR _this$[ebp]
	sub	eax, 4
	mov	esi, esp
	push	eax
	call	DWORD PTR __imp_??_VUMemory@icu_56@@SAXPAX@Z
	add	esp, 4
	cmp	esi, esp
	call	__RTC_CheckEsp
$LN2@vector@2:
	mov	eax, DWORD PTR _this$[ebp]
	sub	eax, 4
	jmp	SHORT $LN4@vector@2
$LN3@vector@2:
	mov	ecx, DWORD PTR _this$[ebp]
	call	??1PluralAvailableLocalesEnumeration@icu_56@@UAE@XZ ; icu_56::PluralAvailableLocalesEnumeration::~PluralAvailableLocalesEnumeration
	mov	eax, DWORD PTR ___flags$[ebp]
	and	eax, 1
	je	SHORT $LN1@vector@2
	mov	esi, esp
	mov	eax, DWORD PTR _this$[ebp]
	push	eax
	call	DWORD PTR __imp_??3UMemory@icu_56@@SAXPAX@Z
	add	esp, 4
	cmp	esi, esp
	call	__RTC_CheckEsp
$LN1@vector@2:
	mov	eax, DWORD PTR _this$[ebp]
$LN4@vector@2:
	pop	edi
	pop	esi
	pop	ebx
	add	esp, 204				; 000000ccH
	cmp	ebp, esp
	call	__RTC_CheckEsp
	mov	esp, ebp
	pop	ebp
	ret	4
??_EPluralAvailableLocalesEnumeration@icu_56@@UAEPAXI@Z ENDP ; icu_56::PluralAvailableLocalesEnumeration::`vector deleting destructor'
_TEXT	ENDS
PUBLIC	??9DecimalFormatSymbols@icu_56@@QBECABV01@@Z	; icu_56::DecimalFormatSymbols::operator!=
EXTRN	??8DecimalFormatSymbols@icu_56@@QBECABV01@@Z:PROC ; icu_56::DecimalFormatSymbols::operator==
; Function compile flags: /Odtp /RTCsu /ZI
;	COMDAT ??9DecimalFormatSymbols@icu_56@@QBECABV01@@Z
_TEXT	SEGMENT
_this$ = -8						; size = 4
_other$ = 8						; size = 4
??9DecimalFormatSymbols@icu_56@@QBECABV01@@Z PROC	; icu_56::DecimalFormatSymbols::operator!=, COMDAT
; _this$ = ecx
; File d:\mozilla\intl\icu\source\i18n\unicode\dcfmtsym.h
; Line 247
	push	ebp
	mov	ebp, esp
	sub	esp, 204				; 000000ccH
	push	ebx
	push	esi
	push	edi
	push	ecx
	lea	edi, DWORD PTR [ebp-204]
	mov	ecx, 51					; 00000033H
	mov	eax, -858993460				; ccccccccH
	rep stosd
	pop	ecx
	mov	DWORD PTR _this$[ebp], ecx
	mov	eax, DWORD PTR _other$[ebp]
	push	eax
	mov	ecx, DWORD PTR _this$[ebp]
	call	??8DecimalFormatSymbols@icu_56@@QBECABV01@@Z ; icu_56::DecimalFormatSymbols::operator==
	movsx	ecx, al
	test	ecx, ecx
	sete	al
	pop	edi
	pop	esi
	pop	ebx
	add	esp, 204				; 000000ccH
	cmp	ebp, esp
	call	__RTC_CheckEsp
	mov	esp, ebp
	pop	ebp
	ret	4
??9DecimalFormatSymbols@icu_56@@QBECABV01@@Z ENDP	; icu_56::DecimalFormatSymbols::operator!=
_TEXT	ENDS
PUBLIC	?isCustomCurrencySymbol@DecimalFormatSymbols@icu_56@@QBECXZ ; icu_56::DecimalFormatSymbols::isCustomCurrencySymbol
; Function compile flags: /Odtp /RTCsu /ZI
;	COMDAT ?isCustomCurrencySymbol@DecimalFormatSymbols@icu_56@@QBECXZ
_TEXT	SEGMENT
_this$ = -8						; size = 4
?isCustomCurrencySymbol@DecimalFormatSymbols@icu_56@@QBECXZ PROC ; icu_56::DecimalFormatSymbols::isCustomCurrencySymbol, COMDAT
; _this$ = ecx
; Line 362
	push	ebp
	mov	ebp, esp
	sub	esp, 204				; 000000ccH
	push	ebx
	push	esi
	push	edi
	push	ecx
	lea	edi, DWORD PTR [ebp-204]
	mov	ecx, 51					; 00000033H
	mov	eax, -858993460				; ccccccccH
	rep stosd
	pop	ecx
	mov	DWORD PTR _this$[ebp], ecx
; Line 363
	mov	eax, DWORD PTR _this$[ebp]
	mov	al, BYTE PTR [eax+2768]
; Line 364
	pop	edi
	pop	esi
	pop	ebx
	mov	esp, ebp
	pop	ebp
	ret	0
?isCustomCurrencySymbol@DecimalFormatSymbols@icu_56@@QBECXZ ENDP ; icu_56::DecimalFormatSymbols::isCustomCurrencySymbol
_TEXT	ENDS
PUBLIC	?isCustomIntlCurrencySymbol@DecimalFormatSymbols@icu_56@@QBECXZ ; icu_56::DecimalFormatSymbols::isCustomIntlCurrencySymbol
; Function compile flags: /Odtp /RTCsu /ZI
;	COMDAT ?isCustomIntlCurrencySymbol@DecimalFormatSymbols@icu_56@@QBECXZ
_TEXT	SEGMENT
_this$ = -8						; size = 4
?isCustomIntlCurrencySymbol@DecimalFormatSymbols@icu_56@@QBECXZ PROC ; icu_56::DecimalFormatSymbols::isCustomIntlCurrencySymbol, COMDAT
; _this$ = ecx
; Line 369
	push	ebp
	mov	ebp, esp
	sub	esp, 204				; 000000ccH
	push	ebx
	push	esi
	push	edi
	push	ecx
	lea	edi, DWORD PTR [ebp-204]
	mov	ecx, 51					; 00000033H
	mov	eax, -858993460				; ccccccccH
	rep stosd
	pop	ecx
	mov	DWORD PTR _this$[ebp], ecx
; Line 370
	mov	eax, DWORD PTR _this$[ebp]
	mov	al, BYTE PTR [eax+2769]
; Line 371
	pop	edi
	pop	esi
	pop	ebx
	mov	esp, ebp
	pop	ebp
	ret	0
?isCustomIntlCurrencySymbol@DecimalFormatSymbols@icu_56@@QBECXZ ENDP ; icu_56::DecimalFormatSymbols::isCustomIntlCurrencySymbol
_TEXT	ENDS
PUBLIC	?getSymbol@DecimalFormatSymbols@icu_56@@QBE?AVUnicodeString@2@W4ENumberFormatSymbol@12@@Z ; icu_56::DecimalFormatSymbols::getSymbol
EXTRN	__imp_??0UnicodeString@icu_56@@QAE@ABV01@@Z:PROC
; Function compile flags: /Odtp /RTCsu /ZI
;	COMDAT ?getSymbol@DecimalFormatSymbols@icu_56@@QBE?AVUnicodeString@2@W4ENumberFormatSymbol@12@@Z
_TEXT	SEGMENT
$T53488 = -224						; size = 4
_strPtr$ = -20						; size = 4
_this$ = -8						; size = 4
___$ReturnUdt$ = 8					; size = 4
_symbol$ = 12						; size = 4
?getSymbol@DecimalFormatSymbols@icu_56@@QBE?AVUnicodeString@2@W4ENumberFormatSymbol@12@@Z PROC ; icu_56::DecimalFormatSymbols::getSymbol, COMDAT
; _this$ = ecx
; Line 435
	push	ebp
	mov	ebp, esp
	sub	esp, 228				; 000000e4H
	push	ebx
	push	esi
	push	edi
	push	ecx
	lea	edi, DWORD PTR [ebp-228]
	mov	ecx, 57					; 00000039H
	mov	eax, -858993460				; ccccccccH
	rep stosd
	pop	ecx
	mov	DWORD PTR _this$[ebp], ecx
	mov	DWORD PTR $T53488[ebp], 0
; Line 437
	cmp	DWORD PTR _symbol$[ebp], 28		; 0000001cH
	jge	SHORT $LN2@getSymbol
; Line 438
	mov	eax, DWORD PTR _symbol$[ebp]
	shl	eax, 6
	mov	ecx, DWORD PTR _this$[ebp]
	lea	edx, DWORD PTR [ecx+eax+4]
	mov	DWORD PTR _strPtr$[ebp], edx
; Line 439
	jmp	SHORT $LN1@getSymbol
$LN2@getSymbol:
; Line 440
	mov	eax, DWORD PTR _this$[ebp]
	add	eax, 1796				; 00000704H
	mov	DWORD PTR _strPtr$[ebp], eax
$LN1@getSymbol:
; Line 442
	mov	esi, esp
	mov	eax, DWORD PTR _strPtr$[ebp]
	push	eax
	mov	ecx, DWORD PTR ___$ReturnUdt$[ebp]
	call	DWORD PTR __imp_??0UnicodeString@icu_56@@QAE@ABV01@@Z
	cmp	esi, esp
	call	__RTC_CheckEsp
	mov	ecx, DWORD PTR $T53488[ebp]
	or	ecx, 1
	mov	DWORD PTR $T53488[ebp], ecx
	mov	eax, DWORD PTR ___$ReturnUdt$[ebp]
; Line 443
	pop	edi
	pop	esi
	pop	ebx
	add	esp, 228				; 000000e4H
	cmp	ebp, esp
	call	__RTC_CheckEsp
	mov	esp, ebp
	pop	ebp
	ret	8
?getSymbol@DecimalFormatSymbols@icu_56@@QBE?AVUnicodeString@2@W4ENumberFormatSymbol@12@@Z ENDP ; icu_56::DecimalFormatSymbols::getSymbol
_TEXT	ENDS
PUBLIC	?getConstSymbol@DecimalFormatSymbols@icu_56@@QBEABVUnicodeString@2@W4ENumberFormatSymbol@12@@Z ; icu_56::DecimalFormatSymbols::getConstSymbol
; Function compile flags: /Odtp /RTCsu /ZI
;	COMDAT ?getConstSymbol@DecimalFormatSymbols@icu_56@@QBEABVUnicodeString@2@W4ENumberFormatSymbol@12@@Z
_TEXT	SEGMENT
_strPtr$ = -20						; size = 4
_this$ = -8						; size = 4
_symbol$ = 8						; size = 4
?getConstSymbol@DecimalFormatSymbols@icu_56@@QBEABVUnicodeString@2@W4ENumberFormatSymbol@12@@Z PROC ; icu_56::DecimalFormatSymbols::getConstSymbol, COMDAT
; _this$ = ecx
; Line 448
	push	ebp
	mov	ebp, esp
	sub	esp, 216				; 000000d8H
	push	ebx
	push	esi
	push	edi
	push	ecx
	lea	edi, DWORD PTR [ebp-216]
	mov	ecx, 54					; 00000036H
	mov	eax, -858993460				; ccccccccH
	rep stosd
	pop	ecx
	mov	DWORD PTR _this$[ebp], ecx
; Line 450
	cmp	DWORD PTR _symbol$[ebp], 28		; 0000001cH
	jge	SHORT $LN2@getConstSy
; Line 451
	mov	eax, DWORD PTR _symbol$[ebp]
	shl	eax, 6
	mov	ecx, DWORD PTR _this$[ebp]
	lea	edx, DWORD PTR [ecx+eax+4]
	mov	DWORD PTR _strPtr$[ebp], edx
; Line 452
	jmp	SHORT $LN1@getConstSy
$LN2@getConstSy:
; Line 453
	mov	eax, DWORD PTR _this$[ebp]
	add	eax, 1796				; 00000704H
	mov	DWORD PTR _strPtr$[ebp], eax
$LN1@getConstSy:
; Line 455
	mov	eax, DWORD PTR _strPtr$[ebp]
; Line 456
	pop	edi
	pop	esi
	pop	ebx
	mov	esp, ebp
	pop	ebp
	ret	4
?getConstSymbol@DecimalFormatSymbols@icu_56@@QBEABVUnicodeString@2@W4ENumberFormatSymbol@12@@Z ENDP ; icu_56::DecimalFormatSymbols::getConstSymbol
_TEXT	ENDS
PUBLIC	__$ArrayPad$
PUBLIC	?setSymbol@DecimalFormatSymbols@icu_56@@QAEXW4ENumberFormatSymbol@12@ABVUnicodeString@2@C@Z ; icu_56::DecimalFormatSymbols::setSymbol
EXTRN	__imp_??1UnicodeString@icu_56@@UAE@XZ:PROC
EXTRN	__imp_??4UnicodeString@icu_56@@QAEAAV01@$$QAV01@@Z:PROC
EXTRN	__imp_??0UnicodeString@icu_56@@QAE@H@Z:PROC
EXTRN	_u_charDigitValue_56:PROC
EXTRN	__imp_?char32At@UnicodeString@icu_56@@QBEHH@Z:PROC
EXTRN	__imp_?countChar32@UnicodeString@icu_56@@QBEHHH@Z:PROC
EXTRN	___security_cookie:DWORD
EXTRN	___CxxFrameHandler3:PROC
EXTRN	@__security_check_cookie@4:PROC
;	COMDAT xdata$x
xdata$x	SEGMENT
__unwindtable$?setSymbol@DecimalFormatSymbols@icu_56@@QAEXW4ENumberFormatSymbol@12@ABVUnicodeString@2@C@Z DD 0ffffffffH
	DD	FLAT:__unwindfunclet$?setSymbol@DecimalFormatSymbols@icu_56@@QAEXW4ENumberFormatSymbol@12@ABVUnicodeString@2@C@Z$0
__ehfuncinfo$?setSymbol@DecimalFormatSymbols@icu_56@@QAEXW4ENumberFormatSymbol@12@ABVUnicodeString@2@C@Z DD 019930522H
	DD	01H
	DD	FLAT:__unwindtable$?setSymbol@DecimalFormatSymbols@icu_56@@QAEXW4ENumberFormatSymbol@12@ABVUnicodeString@2@C@Z
	DD	2 DUP(00H)
	DD	2 DUP(00H)
	DD	00H
	DD	01H
; Function compile flags: /Odtp /RTCsu /ZI
xdata$x	ENDS
;	COMDAT ?setSymbol@DecimalFormatSymbols@icu_56@@QAEXW4ENumberFormatSymbol@12@ABVUnicodeString@2@C@Z
_TEXT	SEGMENT
tv138 = -324						; size = 4
tv139 = -320						; size = 4
$T40338 = -312						; size = 64
_i$40333 = -45						; size = 1
_sym$40331 = -36					; size = 4
_this$ = -24						; size = 4
__$ArrayPad$ = -16					; size = 4
__$EHRec$ = -12						; size = 12
_symbol$ = 8						; size = 4
_value$ = 12						; size = 4
_propogateDigits$ = 16					; size = 1
?setSymbol@DecimalFormatSymbols@icu_56@@QAEXW4ENumberFormatSymbol@12@ABVUnicodeString@2@C@Z PROC ; icu_56::DecimalFormatSymbols::setSymbol, COMDAT
; _this$ = ecx
; Line 464
	push	ebp
	mov	ebp, esp
	push	-1
	push	__ehhandler$?setSymbol@DecimalFormatSymbols@icu_56@@QAEXW4ENumberFormatSymbol@12@ABVUnicodeString@2@C@Z
	mov	eax, DWORD PTR fs:0
	push	eax
	sub	esp, 312				; 00000138H
	push	ebx
	push	esi
	push	edi
	push	ecx
	lea	edi, DWORD PTR [ebp-324]
	mov	ecx, 78					; 0000004eH
	mov	eax, -858993460				; ccccccccH
	rep stosd
	pop	ecx
	mov	eax, DWORD PTR ___security_cookie
	xor	eax, ebp
	mov	DWORD PTR __$ArrayPad$[ebp], eax
	push	eax
	lea	eax, DWORD PTR __$EHRec$[ebp]
	mov	DWORD PTR fs:0, eax
	mov	DWORD PTR _this$[ebp], ecx
; Line 465
	cmp	DWORD PTR _symbol$[ebp], 8
	jne	SHORT $LN9@setSymbol
; Line 466
	mov	eax, DWORD PTR _this$[ebp]
	mov	BYTE PTR [eax+2768], 1
	jmp	SHORT $LN8@setSymbol
$LN9@setSymbol:
; Line 468
	cmp	DWORD PTR _symbol$[ebp], 9
	jne	SHORT $LN8@setSymbol
; Line 469
	mov	eax, DWORD PTR _this$[ebp]
	mov	BYTE PTR [eax+2769], 1
$LN8@setSymbol:
; Line 471
	cmp	DWORD PTR _symbol$[ebp], 28		; 0000001cH
	jge	SHORT $LN6@setSymbol
; Line 472
	mov	esi, esp
	mov	eax, DWORD PTR _value$[ebp]
	push	eax
	mov	ecx, DWORD PTR _symbol$[ebp]
	shl	ecx, 6
	mov	edx, DWORD PTR _this$[ebp]
	lea	ecx, DWORD PTR [edx+ecx+4]
	call	DWORD PTR __imp_??4UnicodeString@icu_56@@QAEAAV01@ABV01@@Z
	cmp	esi, esp
	call	__RTC_CheckEsp
$LN6@setSymbol:
; Line 477
	movsx	eax, BYTE PTR _propogateDigits$[ebp]
	test	eax, eax
	je	$LN10@setSymbol
	cmp	DWORD PTR _symbol$[ebp], 4
	jne	$LN10@setSymbol
	mov	esi, esp
	push	2147483647				; 7fffffffH
	push	0
	mov	ecx, DWORD PTR _value$[ebp]
	call	DWORD PTR __imp_?countChar32@UnicodeString@icu_56@@QBEHHH@Z
	cmp	esi, esp
	call	__RTC_CheckEsp
	cmp	eax, 1
	jne	$LN10@setSymbol
; Line 478
	mov	esi, esp
	push	0
	mov	ecx, DWORD PTR _value$[ebp]
	call	DWORD PTR __imp_?char32At@UnicodeString@icu_56@@QBEHH@Z
	cmp	esi, esp
	call	__RTC_CheckEsp
	mov	DWORD PTR _sym$40331[ebp], eax
; Line 479
	mov	eax, DWORD PTR _sym$40331[ebp]
	push	eax
	call	_u_charDigitValue_56
	add	esp, 4
	test	eax, eax
	jne	$LN10@setSymbol
; Line 480
	mov	BYTE PTR _i$40333[ebp], 1
	jmp	SHORT $LN3@setSymbol
$LN2@setSymbol:
	mov	al, BYTE PTR _i$40333[ebp]
	add	al, 1
	mov	BYTE PTR _i$40333[ebp], al
$LN3@setSymbol:
	movsx	eax, BYTE PTR _i$40333[ebp]
	cmp	eax, 9
	jg	$LN10@setSymbol
; Line 481
	mov	eax, DWORD PTR _sym$40331[ebp]
	add	eax, 1
	mov	DWORD PTR _sym$40331[ebp], eax
; Line 482
	mov	esi, esp
	mov	eax, DWORD PTR _sym$40331[ebp]
	push	eax
	lea	ecx, DWORD PTR $T40338[ebp]
	call	DWORD PTR __imp_??0UnicodeString@icu_56@@QAE@H@Z
	cmp	esi, esp
	call	__RTC_CheckEsp
	mov	DWORD PTR tv139[ebp], eax
	mov	ecx, DWORD PTR tv139[ebp]
	mov	DWORD PTR tv138[ebp], ecx
	mov	DWORD PTR __$EHRec$[ebp+8], 0
	mov	esi, esp
	mov	edx, DWORD PTR tv138[ebp]
	push	edx
	movsx	eax, BYTE PTR _i$40333[ebp]
	add	eax, 17					; 00000011H
	shl	eax, 6
	mov	ecx, DWORD PTR _this$[ebp]
	lea	ecx, DWORD PTR [ecx+eax+4]
	call	DWORD PTR __imp_??4UnicodeString@icu_56@@QAEAAV01@$$QAV01@@Z
	cmp	esi, esp
	call	__RTC_CheckEsp
	mov	DWORD PTR __$EHRec$[ebp+8], -1
	mov	esi, esp
	lea	ecx, DWORD PTR $T40338[ebp]
	call	DWORD PTR __imp_??1UnicodeString@icu_56@@UAE@XZ
	cmp	esi, esp
	call	__RTC_CheckEsp
; Line 483
	jmp	$LN2@setSymbol
$LN10@setSymbol:
; Line 486
	mov	ecx, DWORD PTR __$EHRec$[ebp]
	mov	DWORD PTR fs:0, ecx
	pop	ecx
	pop	edi
	pop	esi
	pop	ebx
	mov	ecx, DWORD PTR __$ArrayPad$[ebp]
	xor	ecx, ebp
	call	@__security_check_cookie@4
	add	esp, 324				; 00000144H
	cmp	ebp, esp
	call	__RTC_CheckEsp
	mov	esp, ebp
	pop	ebp
	ret	12					; 0000000cH
_TEXT	ENDS
;	COMDAT text$x
text$x	SEGMENT
__unwindfunclet$?setSymbol@DecimalFormatSymbols@icu_56@@QAEXW4ENumberFormatSymbol@12@ABVUnicodeString@2@C@Z$0:
	mov	esi, esp
	lea	ecx, DWORD PTR $T40338[ebp]
	call	DWORD PTR __imp_??1UnicodeString@icu_56@@UAE@XZ
	cmp	esi, esp
	jmp	__RTC_CheckEsp
__ehhandler$?setSymbol@DecimalFormatSymbols@icu_56@@QAEXW4ENumberFormatSymbol@12@ABVUnicodeString@2@C@Z:
	mov	edx, DWORD PTR [esp+8]
	lea	eax, DWORD PTR [edx+12]
	mov	ecx, DWORD PTR [edx-328]
	xor	ecx, eax
	call	@__security_check_cookie@4
	mov	ecx, DWORD PTR [edx-4]
	xor	ecx, eax
	call	@__security_check_cookie@4
	mov	eax, OFFSET __ehfuncinfo$?setSymbol@DecimalFormatSymbols@icu_56@@QAEXW4ENumberFormatSymbol@12@ABVUnicodeString@2@C@Z
	jmp	___CxxFrameHandler3
text$x	ENDS
?setSymbol@DecimalFormatSymbols@icu_56@@QAEXW4ENumberFormatSymbol@12@ABVUnicodeString@2@C@Z ENDP ; icu_56::DecimalFormatSymbols::setSymbol
PUBLIC	?getLocale@DecimalFormatSymbols@icu_56@@QBE?AVLocale@2@XZ ; icu_56::DecimalFormatSymbols::getLocale
EXTRN	__imp_??0Locale@icu_56@@QAE@ABV01@@Z:PROC
; Function compile flags: /Odtp /RTCsu /ZI
;	COMDAT ?getLocale@DecimalFormatSymbols@icu_56@@QBE?AVLocale@2@XZ
_TEXT	SEGMENT
$T53510 = -212						; size = 4
_this$ = -8						; size = 4
___$ReturnUdt$ = 8					; size = 4
?getLocale@DecimalFormatSymbols@icu_56@@QBE?AVLocale@2@XZ PROC ; icu_56::DecimalFormatSymbols::getLocale, COMDAT
; _this$ = ecx
; Line 491
	push	ebp
	mov	ebp, esp
	sub	esp, 216				; 000000d8H
	push	ebx
	push	esi
	push	edi
	push	ecx
	lea	edi, DWORD PTR [ebp-216]
	mov	ecx, 54					; 00000036H
	mov	eax, -858993460				; ccccccccH
	rep stosd
	pop	ecx
	mov	DWORD PTR _this$[ebp], ecx
	mov	DWORD PTR $T53510[ebp], 0
; Line 492
	mov	eax, DWORD PTR _this$[ebp]
	add	eax, 1860				; 00000744H
	mov	esi, esp
	push	eax
	mov	ecx, DWORD PTR ___$ReturnUdt$[ebp]
	call	DWORD PTR __imp_??0Locale@icu_56@@QAE@ABV01@@Z
	cmp	esi, esp
	call	__RTC_CheckEsp
	mov	ecx, DWORD PTR $T53510[ebp]
	or	ecx, 1
	mov	DWORD PTR $T53510[ebp], ecx
	mov	eax, DWORD PTR ___$ReturnUdt$[ebp]
; Line 493
	pop	edi
	pop	esi
	pop	ebx
	add	esp, 216				; 000000d8H
	cmp	ebp, esp
	call	__RTC_CheckEsp
	mov	esp, ebp
	pop	ebp
	ret	4
?getLocale@DecimalFormatSymbols@icu_56@@QBE?AVLocale@2@XZ ENDP ; icu_56::DecimalFormatSymbols::getLocale
_TEXT	ENDS
PUBLIC	?getCurrencyPattern@DecimalFormatSymbols@icu_56@@QBEPB_WXZ ; icu_56::DecimalFormatSymbols::getCurrencyPattern
; Function compile flags: /Odtp /RTCsu /ZI
;	COMDAT ?getCurrencyPattern@DecimalFormatSymbols@icu_56@@QBEPB_WXZ
_TEXT	SEGMENT
_this$ = -8						; size = 4
?getCurrencyPattern@DecimalFormatSymbols@icu_56@@QBEPB_WXZ PROC ; icu_56::DecimalFormatSymbols::getCurrencyPattern, COMDAT
; _this$ = ecx
; Line 497
	push	ebp
	mov	ebp, esp
	sub	esp, 204				; 000000ccH
	push	ebx
	push	esi
	push	edi
	push	ecx
	lea	edi, DWORD PTR [ebp-204]
	mov	ecx, 51					; 00000033H
	mov	eax, -858993460				; ccccccccH
	rep stosd
	pop	ecx
	mov	DWORD PTR _this$[ebp], ecx
; Line 498
	mov	eax, DWORD PTR _this$[ebp]
	mov	eax, DWORD PTR [eax+2380]
; Line 499
	pop	edi
	pop	esi
	pop	ebx
	mov	esp, ebp
	pop	ebp
	ret	0
?getCurrencyPattern@DecimalFormatSymbols@icu_56@@QBEPB_WXZ ENDP ; icu_56::DecimalFormatSymbols::getCurrencyPattern
_TEXT	ENDS
PUBLIC	?getNumber@Measure@icu_56@@QBEABVFormattable@2@XZ ; icu_56::Measure::getNumber
; Function compile flags: /Odtp /RTCsu /ZI
;	COMDAT ?getNumber@Measure@icu_56@@QBEABVFormattable@2@XZ
_TEXT	SEGMENT
_this$ = -8						; size = 4
?getNumber@Measure@icu_56@@QBEABVFormattable@2@XZ PROC	; icu_56::Measure::getNumber, COMDAT
; _this$ = ecx
; File d:\mozilla\intl\icu\source\i18n\unicode\measure.h
; Line 148
	push	ebp
	mov	ebp, esp
	sub	esp, 204				; 000000ccH
	push	ebx
	push	esi
	push	edi
	push	ecx
	lea	edi, DWORD PTR [ebp-204]
	mov	ecx, 51					; 00000033H
	mov	eax, -858993460				; ccccccccH
	rep stosd
	pop	ecx
	mov	DWORD PTR _this$[ebp], ecx
; Line 149
	mov	eax, DWORD PTR _this$[ebp]
	add	eax, 8
; Line 150
	pop	edi
	pop	esi
	pop	ebx
	mov	esp, ebp
	pop	ebp
	ret	0
?getNumber@Measure@icu_56@@QBEABVFormattable@2@XZ ENDP	; icu_56::Measure::getNumber
_TEXT	ENDS
PUBLIC	?getUnit@Measure@icu_56@@QBEABVMeasureUnit@2@XZ	; icu_56::Measure::getUnit
; Function compile flags: /Odtp /RTCsu /ZI
;	COMDAT ?getUnit@Measure@icu_56@@QBEABVMeasureUnit@2@XZ
_TEXT	SEGMENT
_this$ = -8						; size = 4
?getUnit@Measure@icu_56@@QBEABVMeasureUnit@2@XZ PROC	; icu_56::Measure::getUnit, COMDAT
; _this$ = ecx
; Line 152
	push	ebp
	mov	ebp, esp
	sub	esp, 204				; 000000ccH
	push	ebx
	push	esi
	push	edi
	push	ecx
	lea	edi, DWORD PTR [ebp-204]
	mov	ecx, 51					; 00000033H
	mov	eax, -858993460				; ccccccccH
	rep stosd
	pop	ecx
	mov	DWORD PTR _this$[ebp], ecx
; Line 153
	mov	eax, DWORD PTR _this$[ebp]
	mov	eax, DWORD PTR [eax+232]
; Line 154
	pop	edi
	pop	esi
	pop	ebx
	mov	esp, ebp
	pop	ebp
	ret	0
?getUnit@Measure@icu_56@@QBEABVMeasureUnit@2@XZ ENDP	; icu_56::Measure::getUnit
_TEXT	ENDS
PUBLIC	??_7MeasureUnit@icu_56@@6B@			; icu_56::MeasureUnit::`vftable'
PUBLIC	??0MeasureUnit@icu_56@@QAE@XZ			; icu_56::MeasureUnit::MeasureUnit
PUBLIC	??_R4MeasureUnit@icu_56@@6B@			; icu_56::MeasureUnit::`RTTI Complete Object Locator'
PUBLIC	??_R0?AVMeasureUnit@icu_56@@@8			; icu_56::MeasureUnit `RTTI Type Descriptor'
PUBLIC	??_R3MeasureUnit@icu_56@@8			; icu_56::MeasureUnit::`RTTI Class Hierarchy Descriptor'
PUBLIC	??_R2MeasureUnit@icu_56@@8			; icu_56::MeasureUnit::`RTTI Base Class Array'
PUBLIC	??_R1A@?0A@EA@MeasureUnit@icu_56@@8		; icu_56::MeasureUnit::`RTTI Base Class Descriptor at (0,-1,0,64)'
PUBLIC	??_EMeasureUnit@icu_56@@UAEPAXI@Z		; icu_56::MeasureUnit::`vector deleting destructor'
EXTRN	?getDynamicClassID@MeasureUnit@icu_56@@UBEPAXXZ:PROC ; icu_56::MeasureUnit::getDynamicClassID
EXTRN	?clone@MeasureUnit@icu_56@@UBEPAVUObject@2@XZ:PROC ; icu_56::MeasureUnit::clone
EXTRN	??8MeasureUnit@icu_56@@UBECABVUObject@1@@Z:PROC	; icu_56::MeasureUnit::operator==
;	COMDAT ??_R1A@?0A@EA@MeasureUnit@icu_56@@8
; File d:\mozilla\intl\icu\source\i18n\unicode\measunit.h
rdata$r	SEGMENT
??_R1A@?0A@EA@MeasureUnit@icu_56@@8 DD FLAT:??_R0?AVMeasureUnit@icu_56@@@8 ; icu_56::MeasureUnit::`RTTI Base Class Descriptor at (0,-1,0,64)'
	DD	02H
	DD	00H
	DD	0ffffffffH
	DD	00H
	DD	040H
	DD	FLAT:??_R3MeasureUnit@icu_56@@8
rdata$r	ENDS
;	COMDAT ??_R2MeasureUnit@icu_56@@8
rdata$r	SEGMENT
??_R2MeasureUnit@icu_56@@8 DD FLAT:??_R1A@?0A@EA@MeasureUnit@icu_56@@8 ; icu_56::MeasureUnit::`RTTI Base Class Array'
	DD	FLAT:??_R1A@?0A@EA@UObject@icu_56@@8
	DD	FLAT:??_R13?0A@EA@UMemory@icu_56@@8
rdata$r	ENDS
;	COMDAT ??_R3MeasureUnit@icu_56@@8
rdata$r	SEGMENT
??_R3MeasureUnit@icu_56@@8 DD 00H			; icu_56::MeasureUnit::`RTTI Class Hierarchy Descriptor'
	DD	00H
	DD	03H
	DD	FLAT:??_R2MeasureUnit@icu_56@@8
rdata$r	ENDS
;	COMDAT ??_R0?AVMeasureUnit@icu_56@@@8
_DATA	SEGMENT
??_R0?AVMeasureUnit@icu_56@@@8 DD FLAT:??_7type_info@@6B@ ; icu_56::MeasureUnit `RTTI Type Descriptor'
	DD	00H
	DB	'.?AVMeasureUnit@icu_56@@', 00H
_DATA	ENDS
;	COMDAT ??_R4MeasureUnit@icu_56@@6B@
rdata$r	SEGMENT
??_R4MeasureUnit@icu_56@@6B@ DD 00H			; icu_56::MeasureUnit::`RTTI Complete Object Locator'
	DD	00H
	DD	00H
	DD	FLAT:??_R0?AVMeasureUnit@icu_56@@@8
	DD	FLAT:??_R3MeasureUnit@icu_56@@8
rdata$r	ENDS
;	COMDAT ??_7MeasureUnit@icu_56@@6B@
CONST	SEGMENT
??_7MeasureUnit@icu_56@@6B@ DD FLAT:??_R4MeasureUnit@icu_56@@6B@ ; icu_56::MeasureUnit::`vftable'
	DD	FLAT:??_EMeasureUnit@icu_56@@UAEPAXI@Z
	DD	FLAT:?getDynamicClassID@MeasureUnit@icu_56@@UBEPAXXZ
	DD	FLAT:?clone@MeasureUnit@icu_56@@UBEPAVUObject@2@XZ
	DD	FLAT:??8MeasureUnit@icu_56@@UBECABVUObject@1@@Z
; Function compile flags: /Odtp /RTCsu /ZI
CONST	ENDS
;	COMDAT ??0MeasureUnit@icu_56@@QAE@XZ
_TEXT	SEGMENT
_this$ = -8						; size = 4
??0MeasureUnit@icu_56@@QAE@XZ PROC			; icu_56::MeasureUnit::MeasureUnit, COMDAT
; _this$ = ecx
; Line 43
	push	ebp
	mov	ebp, esp
	sub	esp, 204				; 000000ccH
	push	ebx
	push	esi
	push	edi
	push	ecx
	lea	edi, DWORD PTR [ebp-204]
	mov	ecx, 51					; 00000033H
	mov	eax, -858993460				; ccccccccH
	rep stosd
	pop	ecx
	mov	DWORD PTR _this$[ebp], ecx
	mov	esi, esp
	mov	ecx, DWORD PTR _this$[ebp]
	call	DWORD PTR __imp_??0UObject@icu_56@@QAE@XZ
	cmp	esi, esp
	call	__RTC_CheckEsp
	mov	eax, DWORD PTR _this$[ebp]
	mov	DWORD PTR [eax], OFFSET ??_7MeasureUnit@icu_56@@6B@
	mov	eax, DWORD PTR _this$[ebp]
	mov	DWORD PTR [eax+4], 0
	mov	eax, DWORD PTR _this$[ebp]
	mov	DWORD PTR [eax+8], 0
; Line 44
	mov	eax, DWORD PTR _this$[ebp]
	mov	BYTE PTR [eax+12], 0
; Line 45
	mov	eax, DWORD PTR _this$[ebp]
	pop	edi
	pop	esi
	pop	ebx
	add	esp, 204				; 000000ccH
	cmp	ebp, esp
	call	__RTC_CheckEsp
	mov	esp, ebp
	pop	ebp
	ret	0
??0MeasureUnit@icu_56@@QAE@XZ ENDP			; icu_56::MeasureUnit::MeasureUnit
_TEXT	ENDS
PUBLIC	??9MeasureUnit@icu_56@@QBECABVUObject@1@@Z	; icu_56::MeasureUnit::operator!=
; Function compile flags: /Odtp /RTCsu /ZI
;	COMDAT ??9MeasureUnit@icu_56@@QBECABVUObject@1@@Z
_TEXT	SEGMENT
_this$ = -8						; size = 4
_other$ = 8						; size = 4
??9MeasureUnit@icu_56@@QBECABVUObject@1@@Z PROC		; icu_56::MeasureUnit::operator!=, COMDAT
; _this$ = ecx
; Line 84
	push	ebp
	mov	ebp, esp
	sub	esp, 204				; 000000ccH
	push	ebx
	push	esi
	push	edi
	push	ecx
	lea	edi, DWORD PTR [ebp-204]
	mov	ecx, 51					; 00000033H
	mov	eax, -858993460				; ccccccccH
	rep stosd
	pop	ecx
	mov	DWORD PTR _this$[ebp], ecx
; Line 85
	mov	esi, esp
	mov	eax, DWORD PTR _other$[ebp]
	push	eax
	mov	ecx, DWORD PTR _this$[ebp]
	mov	edx, DWORD PTR [ecx]
	mov	ecx, DWORD PTR _this$[ebp]
	mov	eax, DWORD PTR [edx+12]
	call	eax
	cmp	esi, esp
	call	__RTC_CheckEsp
	movsx	ecx, al
	test	ecx, ecx
	sete	al
; Line 86
	pop	edi
	pop	esi
	pop	ebx
	add	esp, 204				; 000000ccH
	cmp	ebp, esp
	call	__RTC_CheckEsp
	mov	esp, ebp
	pop	ebp
	ret	4
??9MeasureUnit@icu_56@@QBECABVUObject@1@@Z ENDP		; icu_56::MeasureUnit::operator!=
_TEXT	ENDS
PUBLIC	??0MeasureUnit@icu_56@@AAE@HH@Z			; icu_56::MeasureUnit::MeasureUnit
; Function compile flags: /Odtp /RTCsu /ZI
;	COMDAT ??0MeasureUnit@icu_56@@AAE@HH@Z
_TEXT	SEGMENT
_this$ = -8						; size = 4
_typeId$ = 8						; size = 4
_subTypeId$ = 12					; size = 4
??0MeasureUnit@icu_56@@AAE@HH@Z PROC			; icu_56::MeasureUnit::MeasureUnit, COMDAT
; _this$ = ecx
; Line 1275
	push	ebp
	mov	ebp, esp
	sub	esp, 204				; 000000ccH
	push	ebx
	push	esi
	push	edi
	push	ecx
	lea	edi, DWORD PTR [ebp-204]
	mov	ecx, 51					; 00000033H
	mov	eax, -858993460				; ccccccccH
	rep stosd
	pop	ecx
	mov	DWORD PTR _this$[ebp], ecx
	mov	esi, esp
	mov	ecx, DWORD PTR _this$[ebp]
	call	DWORD PTR __imp_??0UObject@icu_56@@QAE@XZ
	cmp	esi, esp
	call	__RTC_CheckEsp
	mov	eax, DWORD PTR _this$[ebp]
	mov	DWORD PTR [eax], OFFSET ??_7MeasureUnit@icu_56@@6B@
	mov	eax, DWORD PTR _this$[ebp]
	mov	ecx, DWORD PTR _typeId$[ebp]
	mov	DWORD PTR [eax+4], ecx
	mov	eax, DWORD PTR _this$[ebp]
	mov	ecx, DWORD PTR _subTypeId$[ebp]
	mov	DWORD PTR [eax+8], ecx
; Line 1276
	mov	eax, DWORD PTR _this$[ebp]
	mov	BYTE PTR [eax+12], 0
; Line 1277
	mov	eax, DWORD PTR _this$[ebp]
	pop	edi
	pop	esi
	pop	ebx
	add	esp, 204				; 000000ccH
	cmp	ebp, esp
	call	__RTC_CheckEsp
	mov	esp, ebp
	pop	ebp
	ret	8
??0MeasureUnit@icu_56@@AAE@HH@Z ENDP			; icu_56::MeasureUnit::MeasureUnit
_TEXT	ENDS
PUBLIC	??_GMeasureUnit@icu_56@@UAEPAXI@Z		; icu_56::MeasureUnit::`scalar deleting destructor'
EXTRN	??1MeasureUnit@icu_56@@UAE@XZ:PROC		; icu_56::MeasureUnit::~MeasureUnit
; Function compile flags: /Odtp /RTCsu /ZI
;	COMDAT ??_GMeasureUnit@icu_56@@UAEPAXI@Z
_TEXT	SEGMENT
_this$ = -8						; size = 4
___flags$ = 8						; size = 4
??_GMeasureUnit@icu_56@@UAEPAXI@Z PROC			; icu_56::MeasureUnit::`scalar deleting destructor', COMDAT
; _this$ = ecx
	push	ebp
	mov	ebp, esp
	sub	esp, 204				; 000000ccH
	push	ebx
	push	esi
	push	edi
	push	ecx
	lea	edi, DWORD PTR [ebp-204]
	mov	ecx, 51					; 00000033H
	mov	eax, -858993460				; ccccccccH
	rep stosd
	pop	ecx
	mov	DWORD PTR _this$[ebp], ecx
	mov	ecx, DWORD PTR _this$[ebp]
	call	??1MeasureUnit@icu_56@@UAE@XZ		; icu_56::MeasureUnit::~MeasureUnit
	mov	eax, DWORD PTR ___flags$[ebp]
	and	eax, 1
	je	SHORT $LN1@scalar@3
	mov	esi, esp
	mov	eax, DWORD PTR _this$[ebp]
	push	eax
	call	DWORD PTR __imp_??3UMemory@icu_56@@SAXPAX@Z
	add	esp, 4
	cmp	esi, esp
	call	__RTC_CheckEsp
$LN1@scalar@3:
	mov	eax, DWORD PTR _this$[ebp]
	pop	edi
	pop	esi
	pop	ebx
	add	esp, 204				; 000000ccH
	cmp	ebp, esp
	call	__RTC_CheckEsp
	mov	esp, ebp
	pop	ebp
	ret	4
??_GMeasureUnit@icu_56@@UAEPAXI@Z ENDP			; icu_56::MeasureUnit::`scalar deleting destructor'
; Function compile flags: /Odtp /RTCsu /ZI
_TEXT	ENDS
;	COMDAT ??_EMeasureUnit@icu_56@@UAEPAXI@Z
_TEXT	SEGMENT
_this$ = -8						; size = 4
___flags$ = 8						; size = 4
??_EMeasureUnit@icu_56@@UAEPAXI@Z PROC			; icu_56::MeasureUnit::`vector deleting destructor', COMDAT
; _this$ = ecx
	push	ebp
	mov	ebp, esp
	sub	esp, 204				; 000000ccH
	push	ebx
	push	esi
	push	edi
	push	ecx
	lea	edi, DWORD PTR [ebp-204]
	mov	ecx, 51					; 00000033H
	mov	eax, -858993460				; ccccccccH
	rep stosd
	pop	ecx
	mov	DWORD PTR _this$[ebp], ecx
	mov	eax, DWORD PTR ___flags$[ebp]
	and	eax, 2
	je	SHORT $LN3@vector@3
	push	OFFSET ??1MeasureUnit@icu_56@@UAE@XZ	; icu_56::MeasureUnit::~MeasureUnit
	mov	eax, DWORD PTR _this$[ebp]
	mov	ecx, DWORD PTR [eax-4]
	push	ecx
	push	16					; 00000010H
	mov	edx, DWORD PTR _this$[ebp]
	push	edx
	call	??_M@YGXPAXIHP6EX0@Z@Z
	mov	eax, DWORD PTR ___flags$[ebp]
	and	eax, 1
	je	SHORT $LN2@vector@3
	mov	eax, DWORD PTR _this$[ebp]
	sub	eax, 4
	mov	esi, esp
	push	eax
	call	DWORD PTR __imp_??_VUMemory@icu_56@@SAXPAX@Z
	add	esp, 4
	cmp	esi, esp
	call	__RTC_CheckEsp
$LN2@vector@3:
	mov	eax, DWORD PTR _this$[ebp]
	sub	eax, 4
	jmp	SHORT $LN4@vector@3
$LN3@vector@3:
	mov	ecx, DWORD PTR _this$[ebp]
	call	??1MeasureUnit@icu_56@@UAE@XZ		; icu_56::MeasureUnit::~MeasureUnit
	mov	eax, DWORD PTR ___flags$[ebp]
	and	eax, 1
	je	SHORT $LN1@vector@3
	mov	esi, esp
	mov	eax, DWORD PTR _this$[ebp]
	push	eax
	call	DWORD PTR __imp_??3UMemory@icu_56@@SAXPAX@Z
	add	esp, 4
	cmp	esi, esp
	call	__RTC_CheckEsp
$LN1@vector@3:
	mov	eax, DWORD PTR _this$[ebp]
$LN4@vector@3:
	pop	edi
	pop	esi
	pop	ebx
	add	esp, 204				; 000000ccH
	cmp	ebp, esp
	call	__RTC_CheckEsp
	mov	esp, ebp
	pop	ebp
	ret	4
??_EMeasureUnit@icu_56@@UAEPAXI@Z ENDP			; icu_56::MeasureUnit::`vector deleting destructor'
_TEXT	ENDS
PUBLIC	?getISOCurrency@CurrencyUnit@icu_56@@QBEPB_WXZ	; icu_56::CurrencyUnit::getISOCurrency
; Function compile flags: /Odtp /RTCsu /ZI
;	COMDAT ?getISOCurrency@CurrencyUnit@icu_56@@QBEPB_WXZ
_TEXT	SEGMENT
_this$ = -8						; size = 4
?getISOCurrency@CurrencyUnit@icu_56@@QBEPB_WXZ PROC	; icu_56::CurrencyUnit::getISOCurrency, COMDAT
; _this$ = ecx
; File d:\mozilla\intl\icu\source\i18n\unicode\currunit.h
; Line 103
	push	ebp
	mov	ebp, esp
	sub	esp, 204				; 000000ccH
	push	ebx
	push	esi
	push	edi
	push	ecx
	lea	edi, DWORD PTR [ebp-204]
	mov	ecx, 51					; 00000033H
	mov	eax, -858993460				; ccccccccH
	rep stosd
	pop	ecx
	mov	DWORD PTR _this$[ebp], ecx
; Line 104
	mov	eax, DWORD PTR _this$[ebp]
	add	eax, 16					; 00000010H
; Line 105
	pop	edi
	pop	esi
	pop	ebx
	mov	esp, ebp
	pop	ebp
	ret	0
?getISOCurrency@CurrencyUnit@icu_56@@QBEPB_WXZ ENDP	; icu_56::CurrencyUnit::getISOCurrency
_TEXT	ENDS
PUBLIC	?getCurrency@CurrencyAmount@icu_56@@QBEABVCurrencyUnit@2@XZ ; icu_56::CurrencyAmount::getCurrency
; Function compile flags: /Odtp /RTCsu /ZI
;	COMDAT ?getCurrency@CurrencyAmount@icu_56@@QBEABVCurrencyUnit@2@XZ
_TEXT	SEGMENT
_this$ = -8						; size = 4
?getCurrency@CurrencyAmount@icu_56@@QBEABVCurrencyUnit@2@XZ PROC ; icu_56::CurrencyAmount::getCurrency, COMDAT
; _this$ = ecx
; File d:\mozilla\intl\icu\source\i18n\unicode\curramt.h
; Line 119
	push	ebp
	mov	ebp, esp
	sub	esp, 204				; 000000ccH
	push	ebx
	push	esi
	push	edi
	push	ecx
	lea	edi, DWORD PTR [ebp-204]
	mov	ecx, 51					; 00000033H
	mov	eax, -858993460				; ccccccccH
	rep stosd
	pop	ecx
	mov	DWORD PTR _this$[ebp], ecx
; Line 120
	mov	ecx, DWORD PTR _this$[ebp]
	call	?getUnit@Measure@icu_56@@QBEABVMeasureUnit@2@XZ ; icu_56::Measure::getUnit
; Line 121
	pop	edi
	pop	esi
	pop	ebx
	add	esp, 204				; 000000ccH
	cmp	ebp, esp
	call	__RTC_CheckEsp
	mov	esp, ebp
	pop	ebp
	ret	0
?getCurrency@CurrencyAmount@icu_56@@QBEABVCurrencyUnit@2@XZ ENDP ; icu_56::CurrencyAmount::getCurrency
_TEXT	ENDS
PUBLIC	?getISOCurrency@CurrencyAmount@icu_56@@QBEPB_WXZ ; icu_56::CurrencyAmount::getISOCurrency
; Function compile flags: /Odtp /RTCsu /ZI
;	COMDAT ?getISOCurrency@CurrencyAmount@icu_56@@QBEPB_WXZ
_TEXT	SEGMENT
_this$ = -8						; size = 4
?getISOCurrency@CurrencyAmount@icu_56@@QBEPB_WXZ PROC	; icu_56::CurrencyAmount::getISOCurrency, COMDAT
; _this$ = ecx
; Line 123
	push	ebp
	mov	ebp, esp
	sub	esp, 204				; 000000ccH
	push	ebx
	push	esi
	push	edi
	push	ecx
	lea	edi, DWORD PTR [ebp-204]
	mov	ecx, 51					; 00000033H
	mov	eax, -858993460				; ccccccccH
	rep stosd
	pop	ecx
	mov	DWORD PTR _this$[ebp], ecx
; Line 124
	mov	ecx, DWORD PTR _this$[ebp]
	call	?getCurrency@CurrencyAmount@icu_56@@QBEABVCurrencyUnit@2@XZ ; icu_56::CurrencyAmount::getCurrency
	mov	ecx, eax
	call	?getISOCurrency@CurrencyUnit@icu_56@@QBEPB_WXZ ; icu_56::CurrencyUnit::getISOCurrency
; Line 125
	pop	edi
	pop	esi
	pop	ebx
	add	esp, 204				; 000000ccH
	cmp	ebp, esp
	call	__RTC_CheckEsp
	mov	esp, ebp
	pop	ebp
	ret	0
?getISOCurrency@CurrencyAmount@icu_56@@QBEPB_WXZ ENDP	; icu_56::CurrencyAmount::getISOCurrency
_TEXT	ENDS
PUBLIC	??_7NumberFormatFactory@icu_56@@6B@		; icu_56::NumberFormatFactory::`vftable'
PUBLIC	??0NumberFormatFactory@icu_56@@QAE@XZ		; icu_56::NumberFormatFactory::NumberFormatFactory
PUBLIC	??_R4NumberFormatFactory@icu_56@@6B@		; icu_56::NumberFormatFactory::`RTTI Complete Object Locator'
PUBLIC	??_R0?AVNumberFormatFactory@icu_56@@@8		; icu_56::NumberFormatFactory `RTTI Type Descriptor'
PUBLIC	??_R3NumberFormatFactory@icu_56@@8		; icu_56::NumberFormatFactory::`RTTI Class Hierarchy Descriptor'
PUBLIC	??_R2NumberFormatFactory@icu_56@@8		; icu_56::NumberFormatFactory::`RTTI Base Class Array'
PUBLIC	??_R1A@?0A@EA@NumberFormatFactory@icu_56@@8	; icu_56::NumberFormatFactory::`RTTI Base Class Descriptor at (0,-1,0,64)'
PUBLIC	??_ENumberFormatFactory@icu_56@@UAEPAXI@Z	; icu_56::NumberFormatFactory::`vector deleting destructor'
EXTRN	__purecall:PROC
;	COMDAT ??_R1A@?0A@EA@NumberFormatFactory@icu_56@@8
rdata$r	SEGMENT
??_R1A@?0A@EA@NumberFormatFactory@icu_56@@8 DD FLAT:??_R0?AVNumberFormatFactory@icu_56@@@8 ; icu_56::NumberFormatFactory::`RTTI Base Class Descriptor at (0,-1,0,64)'
	DD	02H
	DD	00H
	DD	0ffffffffH
	DD	00H
	DD	040H
	DD	FLAT:??_R3NumberFormatFactory@icu_56@@8
rdata$r	ENDS
;	COMDAT ??_R2NumberFormatFactory@icu_56@@8
rdata$r	SEGMENT
??_R2NumberFormatFactory@icu_56@@8 DD FLAT:??_R1A@?0A@EA@NumberFormatFactory@icu_56@@8 ; icu_56::NumberFormatFactory::`RTTI Base Class Array'
	DD	FLAT:??_R1A@?0A@EA@UObject@icu_56@@8
	DD	FLAT:??_R13?0A@EA@UMemory@icu_56@@8
rdata$r	ENDS
;	COMDAT ??_R3NumberFormatFactory@icu_56@@8
rdata$r	SEGMENT
??_R3NumberFormatFactory@icu_56@@8 DD 00H		; icu_56::NumberFormatFactory::`RTTI Class Hierarchy Descriptor'
	DD	00H
	DD	03H
	DD	FLAT:??_R2NumberFormatFactory@icu_56@@8
rdata$r	ENDS
;	COMDAT ??_R0?AVNumberFormatFactory@icu_56@@@8
_DATA	SEGMENT
??_R0?AVNumberFormatFactory@icu_56@@@8 DD FLAT:??_7type_info@@6B@ ; icu_56::NumberFormatFactory `RTTI Type Descriptor'
	DD	00H
	DB	'.?AVNumberFormatFactory@icu_56@@', 00H
_DATA	ENDS
;	COMDAT ??_R4NumberFormatFactory@icu_56@@6B@
rdata$r	SEGMENT
??_R4NumberFormatFactory@icu_56@@6B@ DD 00H		; icu_56::NumberFormatFactory::`RTTI Complete Object Locator'
	DD	00H
	DD	00H
	DD	FLAT:??_R0?AVNumberFormatFactory@icu_56@@@8
	DD	FLAT:??_R3NumberFormatFactory@icu_56@@8
rdata$r	ENDS
;	COMDAT ??_7NumberFormatFactory@icu_56@@6B@
CONST	SEGMENT
??_7NumberFormatFactory@icu_56@@6B@ DD FLAT:??_R4NumberFormatFactory@icu_56@@6B@ ; icu_56::NumberFormatFactory::`vftable'
	DD	FLAT:??_ENumberFormatFactory@icu_56@@UAEPAXI@Z
	DD	FLAT:?getDynamicClassID@UObject@icu_56@@UBEPAXXZ
	DD	FLAT:__purecall
	DD	FLAT:__purecall
	DD	FLAT:__purecall
; Function compile flags: /Odtp /RTCsu /ZI
CONST	ENDS
;	COMDAT ??0NumberFormatFactory@icu_56@@QAE@XZ
_TEXT	SEGMENT
_this$ = -8						; size = 4
??0NumberFormatFactory@icu_56@@QAE@XZ PROC		; icu_56::NumberFormatFactory::NumberFormatFactory, COMDAT
; _this$ = ecx
	push	ebp
	mov	ebp, esp
	sub	esp, 204				; 000000ccH
	push	ebx
	push	esi
	push	edi
	push	ecx
	lea	edi, DWORD PTR [ebp-204]
	mov	ecx, 51					; 00000033H
	mov	eax, -858993460				; ccccccccH
	rep stosd
	pop	ecx
	mov	DWORD PTR _this$[ebp], ecx
	mov	esi, esp
	mov	ecx, DWORD PTR _this$[ebp]
	call	DWORD PTR __imp_??0UObject@icu_56@@QAE@XZ
	cmp	esi, esp
	call	__RTC_CheckEsp
	mov	eax, DWORD PTR _this$[ebp]
	mov	DWORD PTR [eax], OFFSET ??_7NumberFormatFactory@icu_56@@6B@
	mov	eax, DWORD PTR _this$[ebp]
	pop	edi
	pop	esi
	pop	ebx
	add	esp, 204				; 000000ccH
	cmp	ebp, esp
	call	__RTC_CheckEsp
	mov	esp, ebp
	pop	ebp
	ret	0
??0NumberFormatFactory@icu_56@@QAE@XZ ENDP		; icu_56::NumberFormatFactory::NumberFormatFactory
_TEXT	ENDS
PUBLIC	??0NumberFormatFactory@icu_56@@QAE@ABV01@@Z	; icu_56::NumberFormatFactory::NumberFormatFactory
; Function compile flags: /Odtp /RTCsu /ZI
;	COMDAT ??0NumberFormatFactory@icu_56@@QAE@ABV01@@Z
_TEXT	SEGMENT
_this$ = -8						; size = 4
___that$ = 8						; size = 4
??0NumberFormatFactory@icu_56@@QAE@ABV01@@Z PROC	; icu_56::NumberFormatFactory::NumberFormatFactory, COMDAT
; _this$ = ecx
	push	ebp
	mov	ebp, esp
	sub	esp, 204				; 000000ccH
	push	ebx
	push	esi
	push	edi
	push	ecx
	lea	edi, DWORD PTR [ebp-204]
	mov	ecx, 51					; 00000033H
	mov	eax, -858993460				; ccccccccH
	rep stosd
	pop	ecx
	mov	DWORD PTR _this$[ebp], ecx
	mov	esi, esp
	mov	eax, DWORD PTR ___that$[ebp]
	push	eax
	mov	ecx, DWORD PTR _this$[ebp]
	call	DWORD PTR __imp_??0UObject@icu_56@@QAE@ABV01@@Z
	cmp	esi, esp
	call	__RTC_CheckEsp
	mov	eax, DWORD PTR _this$[ebp]
	mov	DWORD PTR [eax], OFFSET ??_7NumberFormatFactory@icu_56@@6B@
	mov	eax, DWORD PTR _this$[ebp]
	pop	edi
	pop	esi
	pop	ebx
	add	esp, 204				; 000000ccH
	cmp	ebp, esp
	call	__RTC_CheckEsp
	mov	esp, ebp
	pop	ebp
	ret	4
??0NumberFormatFactory@icu_56@@QAE@ABV01@@Z ENDP	; icu_56::NumberFormatFactory::NumberFormatFactory
_TEXT	ENDS
PUBLIC	??4NumberFormatFactory@icu_56@@QAEAAV01@ABV01@@Z ; icu_56::NumberFormatFactory::operator=
; Function compile flags: /Odtp /RTCsu /ZI
;	COMDAT ??4NumberFormatFactory@icu_56@@QAEAAV01@ABV01@@Z
_TEXT	SEGMENT
_this$ = -8						; size = 4
___that$ = 8						; size = 4
??4NumberFormatFactory@icu_56@@QAEAAV01@ABV01@@Z PROC	; icu_56::NumberFormatFactory::operator=, COMDAT
; _this$ = ecx
	push	ebp
	mov	ebp, esp
	sub	esp, 204				; 000000ccH
	push	ebx
	push	esi
	push	edi
	push	ecx
	lea	edi, DWORD PTR [ebp-204]
	mov	ecx, 51					; 00000033H
	mov	eax, -858993460				; ccccccccH
	rep stosd
	pop	ecx
	mov	DWORD PTR _this$[ebp], ecx
	mov	esi, esp
	mov	eax, DWORD PTR ___that$[ebp]
	push	eax
	mov	ecx, DWORD PTR _this$[ebp]
	call	DWORD PTR __imp_??4UObject@icu_56@@QAEAAV01@ABV01@@Z
	cmp	esi, esp
	call	__RTC_CheckEsp
	mov	eax, DWORD PTR _this$[ebp]
	pop	edi
	pop	esi
	pop	ebx
	add	esp, 204				; 000000ccH
	cmp	ebp, esp
	call	__RTC_CheckEsp
	mov	esp, ebp
	pop	ebp
	ret	4
??4NumberFormatFactory@icu_56@@QAEAAV01@ABV01@@Z ENDP	; icu_56::NumberFormatFactory::operator=
_TEXT	ENDS
PUBLIC	??_GNumberFormatFactory@icu_56@@UAEPAXI@Z	; icu_56::NumberFormatFactory::`scalar deleting destructor'
EXTRN	??1NumberFormatFactory@icu_56@@UAE@XZ:PROC	; icu_56::NumberFormatFactory::~NumberFormatFactory
; Function compile flags: /Odtp /RTCsu /ZI
;	COMDAT ??_GNumberFormatFactory@icu_56@@UAEPAXI@Z
_TEXT	SEGMENT
_this$ = -8						; size = 4
___flags$ = 8						; size = 4
??_GNumberFormatFactory@icu_56@@UAEPAXI@Z PROC		; icu_56::NumberFormatFactory::`scalar deleting destructor', COMDAT
; _this$ = ecx
	push	ebp
	mov	ebp, esp
	sub	esp, 204				; 000000ccH
	push	ebx
	push	esi
	push	edi
	push	ecx
	lea	edi, DWORD PTR [ebp-204]
	mov	ecx, 51					; 00000033H
	mov	eax, -858993460				; ccccccccH
	rep stosd
	pop	ecx
	mov	DWORD PTR _this$[ebp], ecx
	mov	ecx, DWORD PTR _this$[ebp]
	call	??1NumberFormatFactory@icu_56@@UAE@XZ	; icu_56::NumberFormatFactory::~NumberFormatFactory
	mov	eax, DWORD PTR ___flags$[ebp]
	and	eax, 1
	je	SHORT $LN1@scalar@4
	mov	esi, esp
	mov	eax, DWORD PTR _this$[ebp]
	push	eax
	call	DWORD PTR __imp_??3UMemory@icu_56@@SAXPAX@Z
	add	esp, 4
	cmp	esi, esp
	call	__RTC_CheckEsp
$LN1@scalar@4:
	mov	eax, DWORD PTR _this$[ebp]
	pop	edi
	pop	esi
	pop	ebx
	add	esp, 204				; 000000ccH
	cmp	ebp, esp
	call	__RTC_CheckEsp
	mov	esp, ebp
	pop	ebp
	ret	4
??_GNumberFormatFactory@icu_56@@UAEPAXI@Z ENDP		; icu_56::NumberFormatFactory::`scalar deleting destructor'
; Function compile flags: /Odtp /RTCsu /ZI
_TEXT	ENDS
;	COMDAT ??_ENumberFormatFactory@icu_56@@UAEPAXI@Z
_TEXT	SEGMENT
_this$ = -8						; size = 4
___flags$ = 8						; size = 4
??_ENumberFormatFactory@icu_56@@UAEPAXI@Z PROC		; icu_56::NumberFormatFactory::`vector deleting destructor', COMDAT
; _this$ = ecx
	push	ebp
	mov	ebp, esp
	sub	esp, 204				; 000000ccH
	push	ebx
	push	esi
	push	edi
	push	ecx
	lea	edi, DWORD PTR [ebp-204]
	mov	ecx, 51					; 00000033H
	mov	eax, -858993460				; ccccccccH
	rep stosd
	pop	ecx
	mov	DWORD PTR _this$[ebp], ecx
	mov	eax, DWORD PTR ___flags$[ebp]
	and	eax, 2
	je	SHORT $LN3@vector@4
	push	OFFSET ??1NumberFormatFactory@icu_56@@UAE@XZ ; icu_56::NumberFormatFactory::~NumberFormatFactory
	mov	eax, DWORD PTR _this$[ebp]
	mov	ecx, DWORD PTR [eax-4]
	push	ecx
	push	4
	mov	edx, DWORD PTR _this$[ebp]
	push	edx
	call	??_M@YGXPAXIHP6EX0@Z@Z
	mov	eax, DWORD PTR ___flags$[ebp]
	and	eax, 1
	je	SHORT $LN2@vector@4
	mov	eax, DWORD PTR _this$[ebp]
	sub	eax, 4
	mov	esi, esp
	push	eax
	call	DWORD PTR __imp_??_VUMemory@icu_56@@SAXPAX@Z
	add	esp, 4
	cmp	esi, esp
	call	__RTC_CheckEsp
$LN2@vector@4:
	mov	eax, DWORD PTR _this$[ebp]
	sub	eax, 4
	jmp	SHORT $LN4@vector@4
$LN3@vector@4:
	mov	ecx, DWORD PTR _this$[ebp]
	call	??1NumberFormatFactory@icu_56@@UAE@XZ	; icu_56::NumberFormatFactory::~NumberFormatFactory
	mov	eax, DWORD PTR ___flags$[ebp]
	and	eax, 1
	je	SHORT $LN1@vector@4
	mov	esi, esp
	mov	eax, DWORD PTR _this$[ebp]
	push	eax
	call	DWORD PTR __imp_??3UMemory@icu_56@@SAXPAX@Z
	add	esp, 4
	cmp	esi, esp
	call	__RTC_CheckEsp
$LN1@vector@4:
	mov	eax, DWORD PTR _this$[ebp]
$LN4@vector@4:
	pop	edi
	pop	esi
	pop	ebx
	add	esp, 204				; 000000ccH
	cmp	ebp, esp
	call	__RTC_CheckEsp
	mov	esp, ebp
	pop	ebp
	ret	4
??_ENumberFormatFactory@icu_56@@UAEPAXI@Z ENDP		; icu_56::NumberFormatFactory::`vector deleting destructor'
_TEXT	ENDS
PUBLIC	??_7SimpleNumberFormatFactory@icu_56@@6B@	; icu_56::SimpleNumberFormatFactory::`vftable'
PUBLIC	??0SimpleNumberFormatFactory@icu_56@@QAE@ABV01@@Z ; icu_56::SimpleNumberFormatFactory::SimpleNumberFormatFactory
PUBLIC	??_R4SimpleNumberFormatFactory@icu_56@@6B@	; icu_56::SimpleNumberFormatFactory::`RTTI Complete Object Locator'
PUBLIC	??_R0?AVSimpleNumberFormatFactory@icu_56@@@8	; icu_56::SimpleNumberFormatFactory `RTTI Type Descriptor'
PUBLIC	??_R3SimpleNumberFormatFactory@icu_56@@8	; icu_56::SimpleNumberFormatFactory::`RTTI Class Hierarchy Descriptor'
PUBLIC	??_R2SimpleNumberFormatFactory@icu_56@@8	; icu_56::SimpleNumberFormatFactory::`RTTI Base Class Array'
PUBLIC	??_R1A@?0A@EA@SimpleNumberFormatFactory@icu_56@@8 ; icu_56::SimpleNumberFormatFactory::`RTTI Base Class Descriptor at (0,-1,0,64)'
PUBLIC	??_ESimpleNumberFormatFactory@icu_56@@UAEPAXI@Z	; icu_56::SimpleNumberFormatFactory::`vector deleting destructor'
EXTRN	?visible@SimpleNumberFormatFactory@icu_56@@UBECXZ:PROC ; icu_56::SimpleNumberFormatFactory::visible
EXTRN	?getSupportedIDs@SimpleNumberFormatFactory@icu_56@@UBEPBVUnicodeString@2@AAHAAW4UErrorCode@@@Z:PROC ; icu_56::SimpleNumberFormatFactory::getSupportedIDs
;	COMDAT ??_R1A@?0A@EA@SimpleNumberFormatFactory@icu_56@@8
rdata$r	SEGMENT
??_R1A@?0A@EA@SimpleNumberFormatFactory@icu_56@@8 DD FLAT:??_R0?AVSimpleNumberFormatFactory@icu_56@@@8 ; icu_56::SimpleNumberFormatFactory::`RTTI Base Class Descriptor at (0,-1,0,64)'
	DD	03H
	DD	00H
	DD	0ffffffffH
	DD	00H
	DD	040H
	DD	FLAT:??_R3SimpleNumberFormatFactory@icu_56@@8
rdata$r	ENDS
;	COMDAT ??_R2SimpleNumberFormatFactory@icu_56@@8
rdata$r	SEGMENT
??_R2SimpleNumberFormatFactory@icu_56@@8 DD FLAT:??_R1A@?0A@EA@SimpleNumberFormatFactory@icu_56@@8 ; icu_56::SimpleNumberFormatFactory::`RTTI Base Class Array'
	DD	FLAT:??_R1A@?0A@EA@NumberFormatFactory@icu_56@@8
	DD	FLAT:??_R1A@?0A@EA@UObject@icu_56@@8
	DD	FLAT:??_R13?0A@EA@UMemory@icu_56@@8
rdata$r	ENDS
;	COMDAT ??_R3SimpleNumberFormatFactory@icu_56@@8
rdata$r	SEGMENT
??_R3SimpleNumberFormatFactory@icu_56@@8 DD 00H		; icu_56::SimpleNumberFormatFactory::`RTTI Class Hierarchy Descriptor'
	DD	00H
	DD	04H
	DD	FLAT:??_R2SimpleNumberFormatFactory@icu_56@@8
rdata$r	ENDS
;	COMDAT ??_R0?AVSimpleNumberFormatFactory@icu_56@@@8
_DATA	SEGMENT
??_R0?AVSimpleNumberFormatFactory@icu_56@@@8 DD FLAT:??_7type_info@@6B@ ; icu_56::SimpleNumberFormatFactory `RTTI Type Descriptor'
	DD	00H
	DB	'.?AVSimpleNumberFormatFactory@icu_56@@', 00H
_DATA	ENDS
;	COMDAT ??_R4SimpleNumberFormatFactory@icu_56@@6B@
rdata$r	SEGMENT
??_R4SimpleNumberFormatFactory@icu_56@@6B@ DD 00H	; icu_56::SimpleNumberFormatFactory::`RTTI Complete Object Locator'
	DD	00H
	DD	00H
	DD	FLAT:??_R0?AVSimpleNumberFormatFactory@icu_56@@@8
	DD	FLAT:??_R3SimpleNumberFormatFactory@icu_56@@8
rdata$r	ENDS
;	COMDAT ??_7SimpleNumberFormatFactory@icu_56@@6B@
CONST	SEGMENT
??_7SimpleNumberFormatFactory@icu_56@@6B@ DD FLAT:??_R4SimpleNumberFormatFactory@icu_56@@6B@ ; icu_56::SimpleNumberFormatFactory::`vftable'
	DD	FLAT:??_ESimpleNumberFormatFactory@icu_56@@UAEPAXI@Z
	DD	FLAT:?getDynamicClassID@UObject@icu_56@@UBEPAXXZ
	DD	FLAT:?visible@SimpleNumberFormatFactory@icu_56@@UBECXZ
	DD	FLAT:?getSupportedIDs@SimpleNumberFormatFactory@icu_56@@UBEPBVUnicodeString@2@AAHAAW4UErrorCode@@@Z
	DD	FLAT:__purecall
CONST	ENDS
;	COMDAT xdata$x
xdata$x	SEGMENT
__unwindtable$??0SimpleNumberFormatFactory@icu_56@@QAE@ABV01@@Z DD 0ffffffffH
	DD	FLAT:__unwindfunclet$??0SimpleNumberFormatFactory@icu_56@@QAE@ABV01@@Z$0
__ehfuncinfo$??0SimpleNumberFormatFactory@icu_56@@QAE@ABV01@@Z DD 019930522H
	DD	01H
	DD	FLAT:__unwindtable$??0SimpleNumberFormatFactory@icu_56@@QAE@ABV01@@Z
	DD	2 DUP(00H)
	DD	2 DUP(00H)
	DD	00H
	DD	01H
; Function compile flags: /Odtp /RTCsu /ZI
xdata$x	ENDS
;	COMDAT ??0SimpleNumberFormatFactory@icu_56@@QAE@ABV01@@Z
_TEXT	SEGMENT
_this$ = -20						; size = 4
__$EHRec$ = -12						; size = 12
___that$ = 8						; size = 4
??0SimpleNumberFormatFactory@icu_56@@QAE@ABV01@@Z PROC	; icu_56::SimpleNumberFormatFactory::SimpleNumberFormatFactory, COMDAT
; _this$ = ecx
	push	ebp
	mov	ebp, esp
	push	-1
	push	__ehhandler$??0SimpleNumberFormatFactory@icu_56@@QAE@ABV01@@Z
	mov	eax, DWORD PTR fs:0
	push	eax
	sub	esp, 204				; 000000ccH
	push	ebx
	push	esi
	push	edi
	push	ecx
	lea	edi, DWORD PTR [ebp-216]
	mov	ecx, 51					; 00000033H
	mov	eax, -858993460				; ccccccccH
	rep stosd
	pop	ecx
	mov	eax, DWORD PTR ___security_cookie
	xor	eax, ebp
	push	eax
	lea	eax, DWORD PTR __$EHRec$[ebp]
	mov	DWORD PTR fs:0, eax
	mov	DWORD PTR _this$[ebp], ecx
	mov	eax, DWORD PTR ___that$[ebp]
	push	eax
	mov	ecx, DWORD PTR _this$[ebp]
	call	??0NumberFormatFactory@icu_56@@QAE@ABV01@@Z
	mov	DWORD PTR __$EHRec$[ebp+8], 0
	mov	eax, DWORD PTR _this$[ebp]
	mov	DWORD PTR [eax], OFFSET ??_7SimpleNumberFormatFactory@icu_56@@6B@
	mov	eax, DWORD PTR _this$[ebp]
	mov	ecx, DWORD PTR ___that$[ebp]
	mov	dl, BYTE PTR [ecx+4]
	mov	BYTE PTR [eax+4], dl
	mov	eax, DWORD PTR ___that$[ebp]
	add	eax, 8
	mov	esi, esp
	push	eax
	mov	ecx, DWORD PTR _this$[ebp]
	add	ecx, 8
	call	DWORD PTR __imp_??0UnicodeString@icu_56@@QAE@ABV01@@Z
	cmp	esi, esp
	call	__RTC_CheckEsp
	mov	DWORD PTR __$EHRec$[ebp+8], -1
	mov	eax, DWORD PTR _this$[ebp]
	mov	ecx, DWORD PTR __$EHRec$[ebp]
	mov	DWORD PTR fs:0, ecx
	pop	ecx
	pop	edi
	pop	esi
	pop	ebx
	add	esp, 216				; 000000d8H
	cmp	ebp, esp
	call	__RTC_CheckEsp
	mov	esp, ebp
	pop	ebp
	ret	4
_TEXT	ENDS
;	COMDAT text$x
text$x	SEGMENT
__unwindfunclet$??0SimpleNumberFormatFactory@icu_56@@QAE@ABV01@@Z$0:
	mov	ecx, DWORD PTR _this$[ebp]
	jmp	??1NumberFormatFactory@icu_56@@UAE@XZ	; icu_56::NumberFormatFactory::~NumberFormatFactory
__ehhandler$??0SimpleNumberFormatFactory@icu_56@@QAE@ABV01@@Z:
	mov	edx, DWORD PTR [esp+8]
	lea	eax, DWORD PTR [edx+12]
	mov	ecx, DWORD PTR [edx-220]
	xor	ecx, eax
	call	@__security_check_cookie@4
	mov	eax, OFFSET __ehfuncinfo$??0SimpleNumberFormatFactory@icu_56@@QAE@ABV01@@Z
	jmp	___CxxFrameHandler3
text$x	ENDS
??0SimpleNumberFormatFactory@icu_56@@QAE@ABV01@@Z ENDP	; icu_56::SimpleNumberFormatFactory::SimpleNumberFormatFactory
PUBLIC	??_GSimpleNumberFormatFactory@icu_56@@UAEPAXI@Z	; icu_56::SimpleNumberFormatFactory::`scalar deleting destructor'
EXTRN	??1SimpleNumberFormatFactory@icu_56@@UAE@XZ:PROC ; icu_56::SimpleNumberFormatFactory::~SimpleNumberFormatFactory
; Function compile flags: /Odtp /RTCsu /ZI
;	COMDAT ??_GSimpleNumberFormatFactory@icu_56@@UAEPAXI@Z
_TEXT	SEGMENT
_this$ = -8						; size = 4
___flags$ = 8						; size = 4
??_GSimpleNumberFormatFactory@icu_56@@UAEPAXI@Z PROC	; icu_56::SimpleNumberFormatFactory::`scalar deleting destructor', COMDAT
; _this$ = ecx
	push	ebp
	mov	ebp, esp
	sub	esp, 204				; 000000ccH
	push	ebx
	push	esi
	push	edi
	push	ecx
	lea	edi, DWORD PTR [ebp-204]
	mov	ecx, 51					; 00000033H
	mov	eax, -858993460				; ccccccccH
	rep stosd
	pop	ecx
	mov	DWORD PTR _this$[ebp], ecx
	mov	ecx, DWORD PTR _this$[ebp]
	call	??1SimpleNumberFormatFactory@icu_56@@UAE@XZ ; icu_56::SimpleNumberFormatFactory::~SimpleNumberFormatFactory
	mov	eax, DWORD PTR ___flags$[ebp]
	and	eax, 1
	je	SHORT $LN1@scalar@5
	mov	esi, esp
	mov	eax, DWORD PTR _this$[ebp]
	push	eax
	call	DWORD PTR __imp_??3UMemory@icu_56@@SAXPAX@Z
	add	esp, 4
	cmp	esi, esp
	call	__RTC_CheckEsp
$LN1@scalar@5:
	mov	eax, DWORD PTR _this$[ebp]
	pop	edi
	pop	esi
	pop	ebx
	add	esp, 204				; 000000ccH
	cmp	ebp, esp
	call	__RTC_CheckEsp
	mov	esp, ebp
	pop	ebp
	ret	4
??_GSimpleNumberFormatFactory@icu_56@@UAEPAXI@Z ENDP	; icu_56::SimpleNumberFormatFactory::`scalar deleting destructor'
; Function compile flags: /Odtp /RTCsu /ZI
_TEXT	ENDS
;	COMDAT ??_ESimpleNumberFormatFactory@icu_56@@UAEPAXI@Z
_TEXT	SEGMENT
_this$ = -8						; size = 4
___flags$ = 8						; size = 4
??_ESimpleNumberFormatFactory@icu_56@@UAEPAXI@Z PROC	; icu_56::SimpleNumberFormatFactory::`vector deleting destructor', COMDAT
; _this$ = ecx
	push	ebp
	mov	ebp, esp
	sub	esp, 204				; 000000ccH
	push	ebx
	push	esi
	push	edi
	push	ecx
	lea	edi, DWORD PTR [ebp-204]
	mov	ecx, 51					; 00000033H
	mov	eax, -858993460				; ccccccccH
	rep stosd
	pop	ecx
	mov	DWORD PTR _this$[ebp], ecx
	mov	eax, DWORD PTR ___flags$[ebp]
	and	eax, 2
	je	SHORT $LN3@vector@5
	push	OFFSET ??1SimpleNumberFormatFactory@icu_56@@UAE@XZ ; icu_56::SimpleNumberFormatFactory::~SimpleNumberFormatFactory
	mov	eax, DWORD PTR _this$[ebp]
	mov	ecx, DWORD PTR [eax-4]
	push	ecx
	push	72					; 00000048H
	mov	edx, DWORD PTR _this$[ebp]
	push	edx
	call	??_M@YGXPAXIHP6EX0@Z@Z
	mov	eax, DWORD PTR ___flags$[ebp]
	and	eax, 1
	je	SHORT $LN2@vector@5
	mov	eax, DWORD PTR _this$[ebp]
	sub	eax, 4
	mov	esi, esp
	push	eax
	call	DWORD PTR __imp_??_VUMemory@icu_56@@SAXPAX@Z
	add	esp, 4
	cmp	esi, esp
	call	__RTC_CheckEsp
$LN2@vector@5:
	mov	eax, DWORD PTR _this$[ebp]
	sub	eax, 4
	jmp	SHORT $LN4@vector@5
$LN3@vector@5:
	mov	ecx, DWORD PTR _this$[ebp]
	call	??1SimpleNumberFormatFactory@icu_56@@UAE@XZ ; icu_56::SimpleNumberFormatFactory::~SimpleNumberFormatFactory
	mov	eax, DWORD PTR ___flags$[ebp]
	and	eax, 1
	je	SHORT $LN1@vector@5
	mov	esi, esp
	mov	eax, DWORD PTR _this$[ebp]
	push	eax
	call	DWORD PTR __imp_??3UMemory@icu_56@@SAXPAX@Z
	add	esp, 4
	cmp	esi, esp
	call	__RTC_CheckEsp
$LN1@vector@5:
	mov	eax, DWORD PTR _this$[ebp]
$LN4@vector@5:
	pop	edi
	pop	esi
	pop	ebx
	add	esp, 204				; 000000ccH
	cmp	ebp, esp
	call	__RTC_CheckEsp
	mov	esp, ebp
	pop	ebp
	ret	4
??_ESimpleNumberFormatFactory@icu_56@@UAEPAXI@Z ENDP	; icu_56::SimpleNumberFormatFactory::`vector deleting destructor'
_TEXT	ENDS
PUBLIC	?isParseIntegerOnly@NumberFormat@icu_56@@QBECXZ	; icu_56::NumberFormat::isParseIntegerOnly
; Function compile flags: /Odtp /RTCsu /ZI
;	COMDAT ?isParseIntegerOnly@NumberFormat@icu_56@@QBECXZ
_TEXT	SEGMENT
_this$ = -8						; size = 4
?isParseIntegerOnly@NumberFormat@icu_56@@QBECXZ PROC	; icu_56::NumberFormat::isParseIntegerOnly, COMDAT
; _this$ = ecx
; File d:\mozilla\intl\icu\source\i18n\unicode\numfmt.h
; Line 1170
	push	ebp
	mov	ebp, esp
	sub	esp, 204				; 000000ccH
	push	ebx
	push	esi
	push	edi
	push	ecx
	lea	edi, DWORD PTR [ebp-204]
	mov	ecx, 51					; 00000033H
	mov	eax, -858993460				; ccccccccH
	rep stosd
	pop	ecx
	mov	DWORD PTR _this$[ebp], ecx
; Line 1171
	mov	eax, DWORD PTR _this$[ebp]
	mov	al, BYTE PTR [eax+340]
; Line 1172
	pop	edi
	pop	esi
	pop	ebx
	mov	esp, ebp
	pop	ebp
	ret	0
?isParseIntegerOnly@NumberFormat@icu_56@@QBECXZ ENDP	; icu_56::NumberFormat::isParseIntegerOnly
_TEXT	ENDS
PUBLIC	?isLenient@NumberFormat@icu_56@@UBECXZ		; icu_56::NumberFormat::isLenient
; Function compile flags: /Odtp /RTCsu /ZI
;	COMDAT ?isLenient@NumberFormat@icu_56@@UBECXZ
_TEXT	SEGMENT
_this$ = -8						; size = 4
?isLenient@NumberFormat@icu_56@@UBECXZ PROC		; icu_56::NumberFormat::isLenient, COMDAT
; _this$ = ecx
; Line 1176
	push	ebp
	mov	ebp, esp
	sub	esp, 204				; 000000ccH
	push	ebx
	push	esi
	push	edi
	push	ecx
	lea	edi, DWORD PTR [ebp-204]
	mov	ecx, 51					; 00000033H
	mov	eax, -858993460				; ccccccccH
	rep stosd
	pop	ecx
	mov	DWORD PTR _this$[ebp], ecx
; Line 1177
	mov	eax, DWORD PTR _this$[ebp]
	mov	al, BYTE PTR [eax+341]
; Line 1178
	pop	edi
	pop	esi
	pop	ebx
	mov	esp, ebp
	pop	ebp
	ret	0
?isLenient@NumberFormat@icu_56@@UBECXZ ENDP		; icu_56::NumberFormat::isLenient
_TEXT	ENDS
PUBLIC	??1DecimalFormat@icu_56@@UAE@XZ			; icu_56::DecimalFormat::~DecimalFormat
PUBLIC	??_GDecimalFormat@icu_56@@UAEPAXI@Z		; icu_56::DecimalFormat::`scalar deleting destructor'
; Function compile flags: /Odtp /RTCsu /ZI
;	COMDAT ??_GDecimalFormat@icu_56@@UAEPAXI@Z
_TEXT	SEGMENT
_this$ = -8						; size = 4
___flags$ = 8						; size = 4
??_GDecimalFormat@icu_56@@UAEPAXI@Z PROC		; icu_56::DecimalFormat::`scalar deleting destructor', COMDAT
; _this$ = ecx
	push	ebp
	mov	ebp, esp
	sub	esp, 204				; 000000ccH
	push	ebx
	push	esi
	push	edi
	push	ecx
	lea	edi, DWORD PTR [ebp-204]
	mov	ecx, 51					; 00000033H
	mov	eax, -858993460				; ccccccccH
	rep stosd
	pop	ecx
	mov	DWORD PTR _this$[ebp], ecx
	mov	ecx, DWORD PTR _this$[ebp]
	call	??1DecimalFormat@icu_56@@UAE@XZ		; icu_56::DecimalFormat::~DecimalFormat
	mov	eax, DWORD PTR ___flags$[ebp]
	and	eax, 1
	je	SHORT $LN1@scalar@6
	mov	esi, esp
	mov	eax, DWORD PTR _this$[ebp]
	push	eax
	call	DWORD PTR __imp_??3UMemory@icu_56@@SAXPAX@Z
	add	esp, 4
	cmp	esi, esp
	call	__RTC_CheckEsp
$LN1@scalar@6:
	mov	eax, DWORD PTR _this$[ebp]
	pop	edi
	pop	esi
	pop	ebx
	add	esp, 204				; 000000ccH
	cmp	ebp, esp
	call	__RTC_CheckEsp
	mov	esp, ebp
	pop	ebp
	ret	4
??_GDecimalFormat@icu_56@@UAEPAXI@Z ENDP		; icu_56::DecimalFormat::`scalar deleting destructor'
_TEXT	ENDS
PUBLIC	??_EDecimalFormat@icu_56@@UAEPAXI@Z		; icu_56::DecimalFormat::`vector deleting destructor'
; Function compile flags: /Odtp /RTCsu /ZI
;	COMDAT ??_EDecimalFormat@icu_56@@UAEPAXI@Z
_TEXT	SEGMENT
_this$ = -8						; size = 4
___flags$ = 8						; size = 4
??_EDecimalFormat@icu_56@@UAEPAXI@Z PROC		; icu_56::DecimalFormat::`vector deleting destructor', COMDAT
; _this$ = ecx
	push	ebp
	mov	ebp, esp
	sub	esp, 204				; 000000ccH
	push	ebx
	push	esi
	push	edi
	push	ecx
	lea	edi, DWORD PTR [ebp-204]
	mov	ecx, 51					; 00000033H
	mov	eax, -858993460				; ccccccccH
	rep stosd
	pop	ecx
	mov	DWORD PTR _this$[ebp], ecx
	mov	eax, DWORD PTR ___flags$[ebp]
	and	eax, 2
	je	SHORT $LN3@vector@6
	push	OFFSET ??1DecimalFormat@icu_56@@UAE@XZ	; icu_56::DecimalFormat::~DecimalFormat
	mov	eax, DWORD PTR _this$[ebp]
	mov	ecx, DWORD PTR [eax-4]
	push	ecx
	push	388					; 00000184H
	mov	edx, DWORD PTR _this$[ebp]
	push	edx
	call	??_M@YGXPAXIHP6EX0@Z@Z
	mov	eax, DWORD PTR ___flags$[ebp]
	and	eax, 1
	je	SHORT $LN2@vector@6
	mov	eax, DWORD PTR _this$[ebp]
	sub	eax, 4
	mov	esi, esp
	push	eax
	call	DWORD PTR __imp_??_VUMemory@icu_56@@SAXPAX@Z
	add	esp, 4
	cmp	esi, esp
	call	__RTC_CheckEsp
$LN2@vector@6:
	mov	eax, DWORD PTR _this$[ebp]
	sub	eax, 4
	jmp	SHORT $LN4@vector@6
$LN3@vector@6:
	mov	ecx, DWORD PTR _this$[ebp]
	call	??1DecimalFormat@icu_56@@UAE@XZ		; icu_56::DecimalFormat::~DecimalFormat
	mov	eax, DWORD PTR ___flags$[ebp]
	and	eax, 1
	je	SHORT $LN1@vector@6
	mov	esi, esp
	mov	eax, DWORD PTR _this$[ebp]
	push	eax
	call	DWORD PTR __imp_??3UMemory@icu_56@@SAXPAX@Z
	add	esp, 4
	cmp	esi, esp
	call	__RTC_CheckEsp
$LN1@vector@6:
	mov	eax, DWORD PTR _this$[ebp]
$LN4@vector@6:
	pop	edi
	pop	esi
	pop	ebx
	add	esp, 204				; 000000ccH
	cmp	ebp, esp
	call	__RTC_CheckEsp
	mov	esp, ebp
	pop	ebp
	ret	4
??_EDecimalFormat@icu_56@@UAEPAXI@Z ENDP		; icu_56::DecimalFormat::`vector deleting destructor'
_TEXT	ENDS
PUBLIC	??9DigitList@icu_56@@QBECABV01@@Z		; icu_56::DigitList::operator!=
EXTRN	??8DigitList@icu_56@@QBECABV01@@Z:PROC		; icu_56::DigitList::operator==
; Function compile flags: /Odtp /RTCsu /ZI
;	COMDAT ??9DigitList@icu_56@@QBECABV01@@Z
_TEXT	SEGMENT
_this$ = -8						; size = 4
_other$ = 8						; size = 4
??9DigitList@icu_56@@QBECABV01@@Z PROC			; icu_56::DigitList::operator!=, COMDAT
; _this$ = ecx
; File d:\mozilla\intl\icu\source\i18n\digitlst.h
; Line 156
	push	ebp
	mov	ebp, esp
	sub	esp, 204				; 000000ccH
	push	ebx
	push	esi
	push	edi
	push	ecx
	lea	edi, DWORD PTR [ebp-204]
	mov	ecx, 51					; 00000033H
	mov	eax, -858993460				; ccccccccH
	rep stosd
	pop	ecx
	mov	DWORD PTR _this$[ebp], ecx
	mov	eax, DWORD PTR _other$[ebp]
	push	eax
	mov	ecx, DWORD PTR _this$[ebp]
	call	??8DigitList@icu_56@@QBECABV01@@Z	; icu_56::DigitList::operator==
	movsx	ecx, al
	test	ecx, ecx
	sete	al
	pop	edi
	pop	esi
	pop	ebx
	add	esp, 204				; 000000ccH
	cmp	ebp, esp
	call	__RTC_CheckEsp
	mov	esp, ebp
	pop	ebp
	ret	4
??9DigitList@icu_56@@QBECABV01@@Z ENDP			; icu_56::DigitList::operator!=
_TEXT	ENDS
PUBLIC	?isNaN@DigitList@icu_56@@QBECXZ			; icu_56::DigitList::isNaN
; Function compile flags: /Odtp /RTCsu /ZI
;	COMDAT ?isNaN@DigitList@icu_56@@QBECXZ
_TEXT	SEGMENT
_this$ = -8						; size = 4
?isNaN@DigitList@icu_56@@QBECXZ PROC			; icu_56::DigitList::isNaN, COMDAT
; _this$ = ecx
; Line 297
	push	ebp
	mov	ebp, esp
	sub	esp, 204				; 000000ccH
	push	ebx
	push	esi
	push	edi
	push	ecx
	lea	edi, DWORD PTR [ebp-204]
	mov	ecx, 51					; 00000033H
	mov	eax, -858993460				; ccccccccH
	rep stosd
	pop	ecx
	mov	DWORD PTR _this$[ebp], ecx
	mov	eax, DWORD PTR _this$[ebp]
	mov	ecx, DWORD PTR [eax+28]
	movzx	edx, BYTE PTR [ecx+8]
	and	edx, 48					; 00000030H
	setne	al
	pop	edi
	pop	esi
	pop	ebx
	mov	esp, ebp
	pop	ebp
	ret	0
?isNaN@DigitList@icu_56@@QBECXZ ENDP			; icu_56::DigitList::isNaN
_TEXT	ENDS
PUBLIC	?isInfinite@DigitList@icu_56@@QBECXZ		; icu_56::DigitList::isInfinite
; Function compile flags: /Odtp /RTCsu /ZI
;	COMDAT ?isInfinite@DigitList@icu_56@@QBECXZ
_TEXT	SEGMENT
_this$ = -8						; size = 4
?isInfinite@DigitList@icu_56@@QBECXZ PROC		; icu_56::DigitList::isInfinite, COMDAT
; _this$ = ecx
; Line 299
	push	ebp
	mov	ebp, esp
	sub	esp, 204				; 000000ccH
	push	ebx
	push	esi
	push	edi
	push	ecx
	lea	edi, DWORD PTR [ebp-204]
	mov	ecx, 51					; 00000033H
	mov	eax, -858993460				; ccccccccH
	rep stosd
	pop	ecx
	mov	DWORD PTR _this$[ebp], ecx
	mov	eax, DWORD PTR _this$[ebp]
	mov	ecx, DWORD PTR [eax+28]
	movzx	edx, BYTE PTR [ecx+8]
	and	edx, 64					; 00000040H
	setne	al
	pop	edi
	pop	esi
	pop	ebx
	mov	esp, ebp
	pop	ebp
	ret	0
?isInfinite@DigitList@icu_56@@QBECXZ ENDP		; icu_56::DigitList::isInfinite
_TEXT	ENDS
PUBLIC	?setToZero@DigitList@icu_56@@QAEXXZ		; icu_56::DigitList::setToZero
EXTRN	_uprv_decNumberZero_56:PROC
; Function compile flags: /Odtp /RTCsu /ZI
;	COMDAT ?setToZero@DigitList@icu_56@@QAEXXZ
_TEXT	SEGMENT
_this$ = -8						; size = 4
?setToZero@DigitList@icu_56@@QAEXXZ PROC		; icu_56::DigitList::setToZero, COMDAT
; _this$ = ecx
; Line 308
	push	ebp
	mov	ebp, esp
	sub	esp, 204				; 000000ccH
	push	ebx
	push	esi
	push	edi
	push	ecx
	lea	edi, DWORD PTR [ebp-204]
	mov	ecx, 51					; 00000033H
	mov	eax, -858993460				; ccccccccH
	rep stosd
	pop	ecx
	mov	DWORD PTR _this$[ebp], ecx
	mov	eax, DWORD PTR _this$[ebp]
	mov	ecx, DWORD PTR [eax+28]
	push	ecx
	call	_uprv_decNumberZero_56
	add	esp, 4
	pop	edi
	pop	esi
	pop	ebx
	add	esp, 204				; 000000ccH
	cmp	ebp, esp
	call	__RTC_CheckEsp
	mov	esp, ebp
	pop	ebp
	ret	0
?setToZero@DigitList@icu_56@@QAEXXZ ENDP		; icu_56::DigitList::setToZero
_TEXT	ENDS
PUBLIC	?digits@DigitList@icu_56@@QBEHXZ		; icu_56::DigitList::digits
; Function compile flags: /Odtp /RTCsu /ZI
;	COMDAT ?digits@DigitList@icu_56@@QBEHXZ
_TEXT	SEGMENT
_this$ = -8						; size = 4
?digits@DigitList@icu_56@@QBEHXZ PROC			; icu_56::DigitList::digits, COMDAT
; _this$ = ecx
; Line 311
	push	ebp
	mov	ebp, esp
	sub	esp, 204				; 000000ccH
	push	ebx
	push	esi
	push	edi
	push	ecx
	lea	edi, DWORD PTR [ebp-204]
	mov	ecx, 51					; 00000033H
	mov	eax, -858993460				; ccccccccH
	rep stosd
	pop	ecx
	mov	DWORD PTR _this$[ebp], ecx
	mov	eax, DWORD PTR _this$[ebp]
	mov	ecx, DWORD PTR [eax+28]
	mov	eax, DWORD PTR [ecx]
	pop	edi
	pop	esi
	pop	ebx
	mov	esp, ebp
	pop	ebp
	ret	0
?digits@DigitList@icu_56@@QBEHXZ ENDP			; icu_56::DigitList::digits
_TEXT	ENDS
PUBLIC	?isPositive@DigitList@icu_56@@QBECXZ		; icu_56::DigitList::isPositive
; Function compile flags: /Odtp /RTCsu /ZI
;	COMDAT ?isPositive@DigitList@icu_56@@QBECXZ
_TEXT	SEGMENT
_this$ = -8						; size = 4
?isPositive@DigitList@icu_56@@QBECXZ PROC		; icu_56::DigitList::isPositive, COMDAT
; _this$ = ecx
; Line 329
	push	ebp
	mov	ebp, esp
	sub	esp, 204				; 000000ccH
	push	ebx
	push	esi
	push	edi
	push	ecx
	lea	edi, DWORD PTR [ebp-204]
	mov	ecx, 51					; 00000033H
	mov	eax, -858993460				; ccccccccH
	rep stosd
	pop	ecx
	mov	DWORD PTR _this$[ebp], ecx
	mov	eax, DWORD PTR _this$[ebp]
	mov	ecx, DWORD PTR [eax+28]
	movzx	edx, BYTE PTR [ecx+8]
	and	edx, 128				; 00000080H
	neg	edx
	sbb	edx, edx
	neg	edx
	sete	al
	pop	edi
	pop	esi
	pop	ebx
	mov	esp, ebp
	pop	ebp
	ret	0
?isPositive@DigitList@icu_56@@QBECXZ ENDP		; icu_56::DigitList::isPositive
_TEXT	ENDS
PUBLIC	?getLowerExponent@DigitList@icu_56@@QBEHXZ	; icu_56::DigitList::getLowerExponent
; Function compile flags: /Odtp /RTCsu /ZI
;	COMDAT ?getLowerExponent@DigitList@icu_56@@QBEHXZ
_TEXT	SEGMENT
_this$ = -8						; size = 4
?getLowerExponent@DigitList@icu_56@@QBEHXZ PROC		; icu_56::DigitList::getLowerExponent, COMDAT
; _this$ = ecx
; Line 372
	push	ebp
	mov	ebp, esp
	sub	esp, 204				; 000000ccH
	push	ebx
	push	esi
	push	edi
	push	ecx
	lea	edi, DWORD PTR [ebp-204]
	mov	ecx, 51					; 00000033H
	mov	eax, -858993460				; ccccccccH
	rep stosd
	pop	ecx
	mov	DWORD PTR _this$[ebp], ecx
	mov	eax, DWORD PTR _this$[ebp]
	mov	ecx, DWORD PTR [eax+28]
	mov	eax, DWORD PTR [ecx+4]
	pop	edi
	pop	esi
	pop	ebx
	mov	esp, ebp
	pop	ebp
	ret	0
?getLowerExponent@DigitList@icu_56@@QBEHXZ ENDP		; icu_56::DigitList::getLowerExponent
_TEXT	ENDS
PUBLIC	??2DigitList@icu_56@@SAPAXIPAXW4EStackMode@1@@Z	; icu_56::DigitList::operator new
; Function compile flags: /Odtp /RTCsu /ZI
;	COMDAT ??2DigitList@icu_56@@SAPAXIPAXW4EStackMode@1@@Z
_TEXT	SEGMENT
___formal$ = 8						; size = 4
_onStack$ = 12						; size = 4
___formal$ = 16						; size = 4
??2DigitList@icu_56@@SAPAXIPAXW4EStackMode@1@@Z PROC	; icu_56::DigitList::operator new, COMDAT
; Line 503
	push	ebp
	mov	ebp, esp
	sub	esp, 192				; 000000c0H
	push	ebx
	push	esi
	push	edi
	lea	edi, DWORD PTR [ebp-192]
	mov	ecx, 48					; 00000030H
	mov	eax, -858993460				; ccccccccH
	rep stosd
	mov	eax, DWORD PTR _onStack$[ebp]
	pop	edi
	pop	esi
	pop	ebx
	mov	esp, ebp
	pop	ebp
	ret	0
??2DigitList@icu_56@@SAPAXIPAXW4EStackMode@1@@Z ENDP	; icu_56::DigitList::operator new
_TEXT	ENDS
PUBLIC	??3DigitList@icu_56@@SAXPAX0W4EStackMode@1@@Z	; icu_56::DigitList::operator delete
; Function compile flags: /Odtp /RTCsu /ZI
;	COMDAT ??3DigitList@icu_56@@SAXPAX0W4EStackMode@1@@Z
_TEXT	SEGMENT
___formal$ = 8						; size = 4
___formal$ = 12						; size = 4
___formal$ = 16						; size = 4
??3DigitList@icu_56@@SAXPAX0W4EStackMode@1@@Z PROC	; icu_56::DigitList::operator delete, COMDAT
; Line 509
	push	ebp
	mov	ebp, esp
	sub	esp, 192				; 000000c0H
	push	ebx
	push	esi
	push	edi
	lea	edi, DWORD PTR [ebp-192]
	mov	ecx, 48					; 00000030H
	mov	eax, -858993460				; ccccccccH
	rep stosd
	pop	edi
	pop	esi
	pop	ebx
	mov	esp, ebp
	pop	ebp
	ret	0
??3DigitList@icu_56@@SAXPAX0W4EStackMode@1@@Z ENDP	; icu_56::DigitList::operator delete
_TEXT	ENDS
PUBLIC	?internalSetDouble@DigitList@icu_56@@AAEXN@Z	; icu_56::DigitList::internalSetDouble
; Function compile flags: /Odtp /RTCsu /ZI
;	COMDAT ?internalSetDouble@DigitList@icu_56@@AAEXN@Z
_TEXT	SEGMENT
_this$ = -8						; size = 4
_d$ = 8							; size = 8
?internalSetDouble@DigitList@icu_56@@AAEXN@Z PROC	; icu_56::DigitList::internalSetDouble, COMDAT
; _this$ = ecx
; Line 512
	push	ebp
	mov	ebp, esp
	sub	esp, 204				; 000000ccH
	push	ebx
	push	esi
	push	edi
	push	ecx
	lea	edi, DWORD PTR [ebp-204]
	mov	ecx, 51					; 00000033H
	mov	eax, -858993460				; ccccccccH
	rep stosd
	pop	ecx
	mov	DWORD PTR _this$[ebp], ecx
; Line 513
	mov	eax, DWORD PTR _this$[ebp]
	mov	DWORD PTR [eax+104], 1
; Line 514
	mov	eax, DWORD PTR _this$[ebp]
	fld	QWORD PTR _d$[ebp]
	fstp	QWORD PTR [eax+96]
; Line 515
	pop	edi
	pop	esi
	pop	ebx
	mov	esp, ebp
	pop	ebp
	ret	8
?internalSetDouble@DigitList@icu_56@@AAEXN@Z ENDP	; icu_56::DigitList::internalSetDouble
_TEXT	ENDS
PUBLIC	?internalSetInt64@DigitList@icu_56@@AAEX_J@Z	; icu_56::DigitList::internalSetInt64
; Function compile flags: /Odtp /RTCsu /ZI
;	COMDAT ?internalSetInt64@DigitList@icu_56@@AAEX_J@Z
_TEXT	SEGMENT
_this$ = -8						; size = 4
_d$ = 8							; size = 8
?internalSetInt64@DigitList@icu_56@@AAEX_J@Z PROC	; icu_56::DigitList::internalSetInt64, COMDAT
; _this$ = ecx
; Line 516
	push	ebp
	mov	ebp, esp
	sub	esp, 204				; 000000ccH
	push	ebx
	push	esi
	push	edi
	push	ecx
	lea	edi, DWORD PTR [ebp-204]
	mov	ecx, 51					; 00000033H
	mov	eax, -858993460				; ccccccccH
	rep stosd
	pop	ecx
	mov	DWORD PTR _this$[ebp], ecx
; Line 517
	mov	eax, DWORD PTR _this$[ebp]
	mov	DWORD PTR [eax+104], 2
; Line 518
	mov	eax, DWORD PTR _this$[ebp]
	mov	ecx, DWORD PTR _d$[ebp]
	mov	DWORD PTR [eax+96], ecx
	mov	edx, DWORD PTR _d$[ebp+4]
	mov	DWORD PTR [eax+100], edx
; Line 519
	pop	edi
	pop	esi
	pop	ebx
	mov	esp, ebp
	pop	ebp
	ret	8
?internalSetInt64@DigitList@icu_56@@AAEX_J@Z ENDP	; icu_56::DigitList::internalSetInt64
_TEXT	ENDS
PUBLIC	?internalClear@DigitList@icu_56@@AAEXXZ		; icu_56::DigitList::internalClear
; Function compile flags: /Odtp /RTCsu /ZI
;	COMDAT ?internalClear@DigitList@icu_56@@AAEXXZ
_TEXT	SEGMENT
_this$ = -8						; size = 4
?internalClear@DigitList@icu_56@@AAEXXZ PROC		; icu_56::DigitList::internalClear, COMDAT
; _this$ = ecx
; Line 520
	push	ebp
	mov	ebp, esp
	sub	esp, 204				; 000000ccH
	push	ebx
	push	esi
	push	edi
	push	ecx
	lea	edi, DWORD PTR [ebp-204]
	mov	ecx, 51					; 00000033H
	mov	eax, -858993460				; ccccccccH
	rep stosd
	pop	ecx
	mov	DWORD PTR _this$[ebp], ecx
; Line 521
	mov	eax, DWORD PTR _this$[ebp]
	mov	DWORD PTR [eax+104], 0
; Line 522
	pop	edi
	pop	esi
	pop	ebx
	mov	esp, ebp
	pop	ebp
	ret	0
?internalClear@DigitList@icu_56@@AAEXXZ ENDP		; icu_56::DigitList::internalClear
_TEXT	ENDS
PUBLIC	?countChar32@DigitAffix@icu_56@@QBEHXZ		; icu_56::DigitAffix::countChar32
; Function compile flags: /Odtp /RTCsu /ZI
;	COMDAT ?countChar32@DigitAffix@icu_56@@QBEHXZ
_TEXT	SEGMENT
_this$ = -8						; size = 4
?countChar32@DigitAffix@icu_56@@QBEHXZ PROC		; icu_56::DigitAffix::countChar32, COMDAT
; _this$ = ecx
; File d:\mozilla\intl\icu\source\i18n\digitaffix.h
; Line 81
	push	ebp
	mov	ebp, esp
	sub	esp, 204				; 000000ccH
	push	ebx
	push	esi
	push	edi
	push	ecx
	lea	edi, DWORD PTR [ebp-204]
	mov	ecx, 51					; 00000033H
	mov	eax, -858993460				; ccccccccH
	rep stosd
	pop	ecx
	mov	DWORD PTR _this$[ebp], ecx
	mov	esi, esp
	push	2147483647				; 7fffffffH
	push	0
	mov	ecx, DWORD PTR _this$[ebp]
	call	DWORD PTR __imp_?countChar32@UnicodeString@icu_56@@QBEHHH@Z
	cmp	esi, esp
	call	__RTC_CheckEsp
	pop	edi
	pop	esi
	pop	ebx
	add	esp, 204				; 000000ccH
	cmp	ebp, esp
	call	__RTC_CheckEsp
	mov	esp, ebp
	pop	ebp
	ret	0
?countChar32@DigitAffix@icu_56@@QBEHXZ ENDP		; icu_56::DigitAffix::countChar32
_TEXT	ENDS
PUBLIC	?toString@DigitAffix@icu_56@@QBEABVUnicodeString@2@XZ ; icu_56::DigitAffix::toString
; Function compile flags: /Odtp /RTCsu /ZI
;	COMDAT ?toString@DigitAffix@icu_56@@QBEABVUnicodeString@2@XZ
_TEXT	SEGMENT
_this$ = -8						; size = 4
?toString@DigitAffix@icu_56@@QBEABVUnicodeString@2@XZ PROC ; icu_56::DigitAffix::toString, COMDAT
; _this$ = ecx
; Line 86
	push	ebp
	mov	ebp, esp
	sub	esp, 204				; 000000ccH
	push	ebx
	push	esi
	push	edi
	push	ecx
	lea	edi, DWORD PTR [ebp-204]
	mov	ecx, 51					; 00000033H
	mov	eax, -858993460				; ccccccccH
	rep stosd
	pop	ecx
	mov	DWORD PTR _this$[ebp], ecx
	mov	eax, DWORD PTR _this$[ebp]
	pop	edi
	pop	esi
	pop	ebx
	mov	esp, ebp
	pop	ebp
	ret	0
?toString@DigitAffix@icu_56@@QBEABVUnicodeString@2@XZ ENDP ; icu_56::DigitAffix::toString
_TEXT	ENDS
PUBLIC	?equals@DigitAffix@icu_56@@QBECABV12@@Z		; icu_56::DigitAffix::equals
EXTRN	__imp_??8UnicodeString@icu_56@@QBECABV01@@Z:PROC
; Function compile flags: /Odtp /RTCsu /ZI
;	COMDAT ?equals@DigitAffix@icu_56@@QBECABV12@@Z
_TEXT	SEGMENT
tv76 = -205						; size = 1
_this$ = -8						; size = 4
_rhs$ = 8						; size = 4
?equals@DigitAffix@icu_56@@QBECABV12@@Z PROC		; icu_56::DigitAffix::equals, COMDAT
; _this$ = ecx
; Line 91
	push	ebp
	mov	ebp, esp
	sub	esp, 208				; 000000d0H
	push	ebx
	push	esi
	push	edi
	push	ecx
	lea	edi, DWORD PTR [ebp-208]
	mov	ecx, 52					; 00000034H
	mov	eax, -858993460				; ccccccccH
	rep stosd
	pop	ecx
	mov	DWORD PTR _this$[ebp], ecx
; Line 92
	mov	esi, esp
	mov	eax, DWORD PTR _rhs$[ebp]
	push	eax
	mov	ecx, DWORD PTR _this$[ebp]
	call	DWORD PTR __imp_??8UnicodeString@icu_56@@QBECABV01@@Z
	cmp	esi, esp
	call	__RTC_CheckEsp
	movsx	ecx, al
	test	ecx, ecx
	je	SHORT $LN3@equals
	mov	edx, DWORD PTR _rhs$[ebp]
	add	edx, 64					; 00000040H
	mov	esi, esp
	push	edx
	mov	ecx, DWORD PTR _this$[ebp]
	add	ecx, 64					; 00000040H
	call	DWORD PTR __imp_??8UnicodeString@icu_56@@QBECABV01@@Z
	cmp	esi, esp
	call	__RTC_CheckEsp
	movsx	eax, al
	test	eax, eax
	je	SHORT $LN3@equals
	mov	BYTE PTR tv76[ebp], 1
	jmp	SHORT $LN4@equals
$LN3@equals:
	mov	BYTE PTR tv76[ebp], 0
$LN4@equals:
	mov	al, BYTE PTR tv76[ebp]
; Line 93
	pop	edi
	pop	esi
	pop	ebx
	add	esp, 208				; 000000d0H
	cmp	ebp, esp
	call	__RTC_CheckEsp
	mov	esp, ebp
	pop	ebp
	ret	4
?equals@DigitAffix@icu_56@@QBECABV12@@Z ENDP		; icu_56::DigitAffix::equals
_TEXT	ENDS
PUBLIC	??1DigitAffix@icu_56@@QAE@XZ			; icu_56::DigitAffix::~DigitAffix
;	COMDAT xdata$x
xdata$x	SEGMENT
__unwindtable$??1DigitAffix@icu_56@@QAE@XZ DD 0ffffffffH
	DD	FLAT:__unwindfunclet$??1DigitAffix@icu_56@@QAE@XZ$0
__ehfuncinfo$??1DigitAffix@icu_56@@QAE@XZ DD 019930522H
	DD	01H
	DD	FLAT:__unwindtable$??1DigitAffix@icu_56@@QAE@XZ
	DD	2 DUP(00H)
	DD	2 DUP(00H)
	DD	00H
	DD	01H
; Function compile flags: /Odtp /RTCsu /ZI
xdata$x	ENDS
;	COMDAT ??1DigitAffix@icu_56@@QAE@XZ
_TEXT	SEGMENT
_this$ = -20						; size = 4
__$EHRec$ = -12						; size = 12
??1DigitAffix@icu_56@@QAE@XZ PROC			; icu_56::DigitAffix::~DigitAffix, COMDAT
; _this$ = ecx
	push	ebp
	mov	ebp, esp
	push	-1
	push	__ehhandler$??1DigitAffix@icu_56@@QAE@XZ
	mov	eax, DWORD PTR fs:0
	push	eax
	sub	esp, 204				; 000000ccH
	push	ebx
	push	esi
	push	edi
	push	ecx
	lea	edi, DWORD PTR [ebp-216]
	mov	ecx, 51					; 00000033H
	mov	eax, -858993460				; ccccccccH
	rep stosd
	pop	ecx
	mov	eax, DWORD PTR ___security_cookie
	xor	eax, ebp
	push	eax
	lea	eax, DWORD PTR __$EHRec$[ebp]
	mov	DWORD PTR fs:0, eax
	mov	DWORD PTR _this$[ebp], ecx
	mov	DWORD PTR __$EHRec$[ebp+8], 0
	mov	ecx, DWORD PTR _this$[ebp]
	add	ecx, 64					; 00000040H
	mov	esi, esp
	call	DWORD PTR __imp_??1UnicodeString@icu_56@@UAE@XZ
	cmp	esi, esp
	call	__RTC_CheckEsp
	mov	DWORD PTR __$EHRec$[ebp+8], -1
	mov	esi, esp
	mov	ecx, DWORD PTR _this$[ebp]
	call	DWORD PTR __imp_??1UnicodeString@icu_56@@UAE@XZ
	cmp	esi, esp
	call	__RTC_CheckEsp
	mov	ecx, DWORD PTR __$EHRec$[ebp]
	mov	DWORD PTR fs:0, ecx
	pop	ecx
	pop	edi
	pop	esi
	pop	ebx
	add	esp, 216				; 000000d8H
	cmp	ebp, esp
	call	__RTC_CheckEsp
	mov	esp, ebp
	pop	ebp
	ret	0
_TEXT	ENDS
;	COMDAT text$x
text$x	SEGMENT
__unwindfunclet$??1DigitAffix@icu_56@@QAE@XZ$0:
	mov	esi, esp
	mov	ecx, DWORD PTR _this$[ebp]
	call	DWORD PTR __imp_??1UnicodeString@icu_56@@UAE@XZ
	cmp	esi, esp
	jmp	__RTC_CheckEsp
__ehhandler$??1DigitAffix@icu_56@@QAE@XZ:
	mov	edx, DWORD PTR [esp+8]
	lea	eax, DWORD PTR [edx+12]
	mov	ecx, DWORD PTR [edx-220]
	xor	ecx, eax
	call	@__security_check_cookie@4
	mov	eax, OFFSET __ehfuncinfo$??1DigitAffix@icu_56@@QAE@XZ
	jmp	___CxxFrameHandler3
text$x	ENDS
??1DigitAffix@icu_56@@QAE@XZ ENDP			; icu_56::DigitAffix::~DigitAffix
PUBLIC	??0DigitAffix@icu_56@@QAE@ABV01@@Z		; icu_56::DigitAffix::DigitAffix
;	COMDAT xdata$x
xdata$x	SEGMENT
__unwindtable$??0DigitAffix@icu_56@@QAE@ABV01@@Z DD 0ffffffffH
	DD	FLAT:__unwindfunclet$??0DigitAffix@icu_56@@QAE@ABV01@@Z$0
__ehfuncinfo$??0DigitAffix@icu_56@@QAE@ABV01@@Z DD 019930522H
	DD	01H
	DD	FLAT:__unwindtable$??0DigitAffix@icu_56@@QAE@ABV01@@Z
	DD	2 DUP(00H)
	DD	2 DUP(00H)
	DD	00H
	DD	01H
; Function compile flags: /Odtp /RTCsu /ZI
xdata$x	ENDS
;	COMDAT ??0DigitAffix@icu_56@@QAE@ABV01@@Z
_TEXT	SEGMENT
_this$ = -20						; size = 4
__$EHRec$ = -12						; size = 12
___that$ = 8						; size = 4
??0DigitAffix@icu_56@@QAE@ABV01@@Z PROC			; icu_56::DigitAffix::DigitAffix, COMDAT
; _this$ = ecx
	push	ebp
	mov	ebp, esp
	push	-1
	push	__ehhandler$??0DigitAffix@icu_56@@QAE@ABV01@@Z
	mov	eax, DWORD PTR fs:0
	push	eax
	sub	esp, 204				; 000000ccH
	push	ebx
	push	esi
	push	edi
	push	ecx
	lea	edi, DWORD PTR [ebp-216]
	mov	ecx, 51					; 00000033H
	mov	eax, -858993460				; ccccccccH
	rep stosd
	pop	ecx
	mov	eax, DWORD PTR ___security_cookie
	xor	eax, ebp
	push	eax
	lea	eax, DWORD PTR __$EHRec$[ebp]
	mov	DWORD PTR fs:0, eax
	mov	DWORD PTR _this$[ebp], ecx
	mov	esi, esp
	mov	eax, DWORD PTR ___that$[ebp]
	push	eax
	mov	ecx, DWORD PTR _this$[ebp]
	call	DWORD PTR __imp_??0UnicodeString@icu_56@@QAE@ABV01@@Z
	cmp	esi, esp
	call	__RTC_CheckEsp
	mov	DWORD PTR __$EHRec$[ebp+8], 0
	mov	eax, DWORD PTR ___that$[ebp]
	add	eax, 64					; 00000040H
	mov	esi, esp
	push	eax
	mov	ecx, DWORD PTR _this$[ebp]
	add	ecx, 64					; 00000040H
	call	DWORD PTR __imp_??0UnicodeString@icu_56@@QAE@ABV01@@Z
	cmp	esi, esp
	call	__RTC_CheckEsp
	mov	DWORD PTR __$EHRec$[ebp+8], -1
	mov	eax, DWORD PTR _this$[ebp]
	mov	ecx, DWORD PTR __$EHRec$[ebp]
	mov	DWORD PTR fs:0, ecx
	pop	ecx
	pop	edi
	pop	esi
	pop	ebx
	add	esp, 216				; 000000d8H
	cmp	ebp, esp
	call	__RTC_CheckEsp
	mov	esp, ebp
	pop	ebp
	ret	4
_TEXT	ENDS
;	COMDAT text$x
text$x	SEGMENT
__unwindfunclet$??0DigitAffix@icu_56@@QAE@ABV01@@Z$0:
	mov	esi, esp
	mov	ecx, DWORD PTR _this$[ebp]
	call	DWORD PTR __imp_??1UnicodeString@icu_56@@UAE@XZ
	cmp	esi, esp
	jmp	__RTC_CheckEsp
__ehhandler$??0DigitAffix@icu_56@@QAE@ABV01@@Z:
	mov	edx, DWORD PTR [esp+8]
	lea	eax, DWORD PTR [edx+12]
	mov	ecx, DWORD PTR [edx-220]
	xor	ecx, eax
	call	@__security_check_cookie@4
	mov	eax, OFFSET __ehfuncinfo$??0DigitAffix@icu_56@@QAE@ABV01@@Z
	jmp	___CxxFrameHandler3
text$x	ENDS
??0DigitAffix@icu_56@@QAE@ABV01@@Z ENDP			; icu_56::DigitAffix::DigitAffix
PUBLIC	??4DigitAffix@icu_56@@QAEAAV01@ABV01@@Z		; icu_56::DigitAffix::operator=
; Function compile flags: /Odtp /RTCsu /ZI
;	COMDAT ??4DigitAffix@icu_56@@QAEAAV01@ABV01@@Z
_TEXT	SEGMENT
_this$ = -8						; size = 4
___that$ = 8						; size = 4
??4DigitAffix@icu_56@@QAEAAV01@ABV01@@Z PROC		; icu_56::DigitAffix::operator=, COMDAT
; _this$ = ecx
	push	ebp
	mov	ebp, esp
	sub	esp, 204				; 000000ccH
	push	ebx
	push	esi
	push	edi
	push	ecx
	lea	edi, DWORD PTR [ebp-204]
	mov	ecx, 51					; 00000033H
	mov	eax, -858993460				; ccccccccH
	rep stosd
	pop	ecx
	mov	DWORD PTR _this$[ebp], ecx
	mov	esi, esp
	mov	eax, DWORD PTR ___that$[ebp]
	push	eax
	mov	ecx, DWORD PTR _this$[ebp]
	call	DWORD PTR __imp_??4UnicodeString@icu_56@@QAEAAV01@ABV01@@Z
	cmp	esi, esp
	call	__RTC_CheckEsp
	mov	eax, DWORD PTR ___that$[ebp]
	add	eax, 64					; 00000040H
	mov	esi, esp
	push	eax
	mov	ecx, DWORD PTR _this$[ebp]
	add	ecx, 64					; 00000040H
	call	DWORD PTR __imp_??4UnicodeString@icu_56@@QAEAAV01@ABV01@@Z
	cmp	esi, esp
	call	__RTC_CheckEsp
	mov	eax, DWORD PTR _this$[ebp]
	pop	edi
	pop	esi
	pop	ebx
	add	esp, 204				; 000000ccH
	cmp	ebp, esp
	call	__RTC_CheckEsp
	mov	esp, ebp
	pop	ebp
	ret	4
??4DigitAffix@icu_56@@QAEAAV01@ABV01@@Z ENDP		; icu_56::DigitAffix::operator=
_TEXT	ENDS
PUBLIC	??0?$PluralMap@VDigitAffix@icu_56@@@icu_56@@QAE@XZ ; icu_56::PluralMap<icu_56::DigitAffix>::PluralMap<icu_56::DigitAffix>
PUBLIC	??0PluralAffix@icu_56@@QAE@XZ			; icu_56::PluralAffix::PluralAffix
; Function compile flags: /Odtp /RTCsu /ZI
;	COMDAT ??0PluralAffix@icu_56@@QAE@XZ
_TEXT	SEGMENT
_this$ = -8						; size = 4
??0PluralAffix@icu_56@@QAE@XZ PROC			; icu_56::PluralAffix::PluralAffix, COMDAT
; _this$ = ecx
; File d:\mozilla\intl\icu\source\i18n\pluralaffix.h
; Line 78
	push	ebp
	mov	ebp, esp
	sub	esp, 204				; 000000ccH
	push	ebx
	push	esi
	push	edi
	push	ecx
	lea	edi, DWORD PTR [ebp-204]
	mov	ecx, 51					; 00000033H
	mov	eax, -858993460				; ccccccccH
	rep stosd
	pop	ecx
	mov	DWORD PTR _this$[ebp], ecx
	mov	ecx, DWORD PTR _this$[ebp]
	call	??0?$PluralMap@VDigitAffix@icu_56@@@icu_56@@QAE@XZ ; icu_56::PluralMap<icu_56::DigitAffix>::PluralMap<icu_56::DigitAffix>
	mov	eax, DWORD PTR _this$[ebp]
	pop	edi
	pop	esi
	pop	ebx
	add	esp, 204				; 000000ccH
	cmp	ebp, esp
	call	__RTC_CheckEsp
	mov	esp, ebp
	pop	ebp
	ret	0
??0PluralAffix@icu_56@@QAE@XZ ENDP			; icu_56::PluralAffix::PluralAffix
_TEXT	ENDS
PUBLIC	??0?$PluralMap@VDigitAffix@icu_56@@@icu_56@@QAE@ABVDigitAffix@1@@Z ; icu_56::PluralMap<icu_56::DigitAffix>::PluralMap<icu_56::DigitAffix>
PUBLIC	??0PluralAffix@icu_56@@QAE@ABVDigitAffix@1@@Z	; icu_56::PluralAffix::PluralAffix
; Function compile flags: /Odtp /RTCsu /ZI
;	COMDAT ??0PluralAffix@icu_56@@QAE@ABVDigitAffix@1@@Z
_TEXT	SEGMENT
_this$ = -8						; size = 4
_otherVariant$ = 8					; size = 4
??0PluralAffix@icu_56@@QAE@ABVDigitAffix@1@@Z PROC	; icu_56::PluralAffix::PluralAffix, COMDAT
; _this$ = ecx
; Line 83
	push	ebp
	mov	ebp, esp
	sub	esp, 204				; 000000ccH
	push	ebx
	push	esi
	push	edi
	push	ecx
	lea	edi, DWORD PTR [ebp-204]
	mov	ecx, 51					; 00000033H
	mov	eax, -858993460				; ccccccccH
	rep stosd
	pop	ecx
	mov	DWORD PTR _this$[ebp], ecx
	mov	eax, DWORD PTR _otherVariant$[ebp]
	push	eax
	mov	ecx, DWORD PTR _this$[ebp]
	call	??0?$PluralMap@VDigitAffix@icu_56@@@icu_56@@QAE@ABVDigitAffix@1@@Z ; icu_56::PluralMap<icu_56::DigitAffix>::PluralMap<icu_56::DigitAffix>
	mov	eax, DWORD PTR _this$[ebp]
	pop	edi
	pop	esi
	pop	ebx
	add	esp, 204				; 000000ccH
	cmp	ebp, esp
	call	__RTC_CheckEsp
	mov	esp, ebp
	pop	ebp
	ret	4
??0PluralAffix@icu_56@@QAE@ABVDigitAffix@1@@Z ENDP	; icu_56::PluralAffix::PluralAffix
_TEXT	ENDS
PUBLIC	?getOther@?$PluralMap@VDigitAffix@icu_56@@@icu_56@@QBEABVDigitAffix@2@XZ ; icu_56::PluralMap<icu_56::DigitAffix>::getOther
PUBLIC	?getOtherVariant@PluralAffix@icu_56@@QBEABVDigitAffix@2@XZ ; icu_56::PluralAffix::getOtherVariant
; Function compile flags: /Odtp /RTCsu /ZI
;	COMDAT ?getOtherVariant@PluralAffix@icu_56@@QBEABVDigitAffix@2@XZ
_TEXT	SEGMENT
_this$ = -8						; size = 4
?getOtherVariant@PluralAffix@icu_56@@QBEABVDigitAffix@2@XZ PROC ; icu_56::PluralAffix::getOtherVariant, COMDAT
; _this$ = ecx
; Line 147
	push	ebp
	mov	ebp, esp
	sub	esp, 204				; 000000ccH
	push	ebx
	push	esi
	push	edi
	push	ecx
	lea	edi, DWORD PTR [ebp-204]
	mov	ecx, 51					; 00000033H
	mov	eax, -858993460				; ccccccccH
	rep stosd
	pop	ecx
	mov	DWORD PTR _this$[ebp], ecx
; Line 148
	mov	ecx, DWORD PTR _this$[ebp]
	call	?getOther@?$PluralMap@VDigitAffix@icu_56@@@icu_56@@QBEABVDigitAffix@2@XZ ; icu_56::PluralMap<icu_56::DigitAffix>::getOther
; Line 149
	pop	edi
	pop	esi
	pop	ebx
	add	esp, 204				; 000000ccH
	cmp	ebp, esp
	call	__RTC_CheckEsp
	mov	esp, ebp
	pop	ebp
	ret	0
?getOtherVariant@PluralAffix@icu_56@@QBEABVDigitAffix@2@XZ ENDP ; icu_56::PluralAffix::getOtherVariant
_TEXT	ENDS
PUBLIC	?equals@?$PluralMap@VDigitAffix@icu_56@@@icu_56@@QBECABV12@P6ACABVDigitAffix@2@1@Z@Z ; icu_56::PluralMap<icu_56::DigitAffix>::equals
PUBLIC	?eq@PluralAffix@icu_56@@CACABVDigitAffix@2@0@Z	; icu_56::PluralAffix::eq
PUBLIC	?equals@PluralAffix@icu_56@@QBECABV12@@Z	; icu_56::PluralAffix::equals
; Function compile flags: /Odtp /RTCsu /ZI
;	COMDAT ?equals@PluralAffix@icu_56@@QBECABV12@@Z
_TEXT	SEGMENT
_this$ = -8						; size = 4
_rhs$ = 8						; size = 4
?equals@PluralAffix@icu_56@@QBECABV12@@Z PROC		; icu_56::PluralAffix::equals, COMDAT
; _this$ = ecx
; Line 160
	push	ebp
	mov	ebp, esp
	sub	esp, 204				; 000000ccH
	push	ebx
	push	esi
	push	edi
	push	ecx
	lea	edi, DWORD PTR [ebp-204]
	mov	ecx, 51					; 00000033H
	mov	eax, -858993460				; ccccccccH
	rep stosd
	pop	ecx
	mov	DWORD PTR _this$[ebp], ecx
; Line 161
	push	OFFSET ?eq@PluralAffix@icu_56@@CACABVDigitAffix@2@0@Z ; icu_56::PluralAffix::eq
	mov	eax, DWORD PTR _rhs$[ebp]
	push	eax
	mov	ecx, DWORD PTR _this$[ebp]
	call	?equals@?$PluralMap@VDigitAffix@icu_56@@@icu_56@@QBECABV12@P6ACABVDigitAffix@2@1@Z@Z ; icu_56::PluralMap<icu_56::DigitAffix>::equals
; Line 162
	pop	edi
	pop	esi
	pop	ebx
	add	esp, 204				; 000000ccH
	cmp	ebp, esp
	call	__RTC_CheckEsp
	mov	esp, ebp
	pop	ebp
	ret	4
?equals@PluralAffix@icu_56@@QBECABV12@@Z ENDP		; icu_56::PluralAffix::equals
; Function compile flags: /Odtp /RTCsu /ZI
_TEXT	ENDS
;	COMDAT ?eq@PluralAffix@icu_56@@CACABVDigitAffix@2@0@Z
_TEXT	SEGMENT
_x$ = 8							; size = 4
_y$ = 12						; size = 4
?eq@PluralAffix@icu_56@@CACABVDigitAffix@2@0@Z PROC	; icu_56::PluralAffix::eq, COMDAT
; Line 167
	push	ebp
	mov	ebp, esp
	sub	esp, 192				; 000000c0H
	push	ebx
	push	esi
	push	edi
	lea	edi, DWORD PTR [ebp-192]
	mov	ecx, 48					; 00000030H
	mov	eax, -858993460				; ccccccccH
	rep stosd
; Line 168
	mov	eax, DWORD PTR _y$[ebp]
	push	eax
	mov	ecx, DWORD PTR _x$[ebp]
	call	?equals@DigitAffix@icu_56@@QBECABV12@@Z	; icu_56::DigitAffix::equals
; Line 169
	pop	edi
	pop	esi
	pop	ebx
	add	esp, 192				; 000000c0H
	cmp	ebp, esp
	call	__RTC_CheckEsp
	mov	esp, ebp
	pop	ebp
	ret	0
?eq@PluralAffix@icu_56@@CACABVDigitAffix@2@0@Z ENDP	; icu_56::PluralAffix::eq
_TEXT	ENDS
PUBLIC	??1?$PluralMap@VDigitAffix@icu_56@@@icu_56@@QAE@XZ ; icu_56::PluralMap<icu_56::DigitAffix>::~PluralMap<icu_56::DigitAffix>
PUBLIC	??1PluralAffix@icu_56@@QAE@XZ			; icu_56::PluralAffix::~PluralAffix
; Function compile flags: /Odtp /RTCsu /ZI
;	COMDAT ??1PluralAffix@icu_56@@QAE@XZ
_TEXT	SEGMENT
_this$ = -8						; size = 4
??1PluralAffix@icu_56@@QAE@XZ PROC			; icu_56::PluralAffix::~PluralAffix, COMDAT
; _this$ = ecx
	push	ebp
	mov	ebp, esp
	sub	esp, 204				; 000000ccH
	push	ebx
	push	esi
	push	edi
	push	ecx
	lea	edi, DWORD PTR [ebp-204]
	mov	ecx, 51					; 00000033H
	mov	eax, -858993460				; ccccccccH
	rep stosd
	pop	ecx
	mov	DWORD PTR _this$[ebp], ecx
	mov	ecx, DWORD PTR _this$[ebp]
	call	??1?$PluralMap@VDigitAffix@icu_56@@@icu_56@@QAE@XZ ; icu_56::PluralMap<icu_56::DigitAffix>::~PluralMap<icu_56::DigitAffix>
	pop	edi
	pop	esi
	pop	ebx
	add	esp, 204				; 000000ccH
	cmp	ebp, esp
	call	__RTC_CheckEsp
	mov	esp, ebp
	pop	ebp
	ret	0
??1PluralAffix@icu_56@@QAE@XZ ENDP			; icu_56::PluralAffix::~PluralAffix
_TEXT	ENDS
PUBLIC	??0?$PluralMap@VDigitAffix@icu_56@@@icu_56@@QAE@ABV01@@Z ; icu_56::PluralMap<icu_56::DigitAffix>::PluralMap<icu_56::DigitAffix>
PUBLIC	??0PluralAffix@icu_56@@QAE@ABV01@@Z		; icu_56::PluralAffix::PluralAffix
; Function compile flags: /Odtp /RTCsu /ZI
;	COMDAT ??0PluralAffix@icu_56@@QAE@ABV01@@Z
_TEXT	SEGMENT
_this$ = -8						; size = 4
___that$ = 8						; size = 4
??0PluralAffix@icu_56@@QAE@ABV01@@Z PROC		; icu_56::PluralAffix::PluralAffix, COMDAT
; _this$ = ecx
	push	ebp
	mov	ebp, esp
	sub	esp, 204				; 000000ccH
	push	ebx
	push	esi
	push	edi
	push	ecx
	lea	edi, DWORD PTR [ebp-204]
	mov	ecx, 51					; 00000033H
	mov	eax, -858993460				; ccccccccH
	rep stosd
	pop	ecx
	mov	DWORD PTR _this$[ebp], ecx
	mov	eax, DWORD PTR ___that$[ebp]
	push	eax
	mov	ecx, DWORD PTR _this$[ebp]
	call	??0?$PluralMap@VDigitAffix@icu_56@@@icu_56@@QAE@ABV01@@Z ; icu_56::PluralMap<icu_56::DigitAffix>::PluralMap<icu_56::DigitAffix>
	mov	eax, DWORD PTR _this$[ebp]
	pop	edi
	pop	esi
	pop	ebx
	add	esp, 204				; 000000ccH
	cmp	ebp, esp
	call	__RTC_CheckEsp
	mov	esp, ebp
	pop	ebp
	ret	4
??0PluralAffix@icu_56@@QAE@ABV01@@Z ENDP		; icu_56::PluralAffix::PluralAffix
_TEXT	ENDS
PUBLIC	??4?$PluralMap@VDigitAffix@icu_56@@@icu_56@@QAEAAV01@ABV01@@Z ; icu_56::PluralMap<icu_56::DigitAffix>::operator=
PUBLIC	??4PluralAffix@icu_56@@QAEAAV01@ABV01@@Z	; icu_56::PluralAffix::operator=
; Function compile flags: /Odtp /RTCsu /ZI
;	COMDAT ??4PluralAffix@icu_56@@QAEAAV01@ABV01@@Z
_TEXT	SEGMENT
_this$ = -8						; size = 4
___that$ = 8						; size = 4
??4PluralAffix@icu_56@@QAEAAV01@ABV01@@Z PROC		; icu_56::PluralAffix::operator=, COMDAT
; _this$ = ecx
	push	ebp
	mov	ebp, esp
	sub	esp, 204				; 000000ccH
	push	ebx
	push	esi
	push	edi
	push	ecx
	lea	edi, DWORD PTR [ebp-204]
	mov	ecx, 51					; 00000033H
	mov	eax, -858993460				; ccccccccH
	rep stosd
	pop	ecx
	mov	DWORD PTR _this$[ebp], ecx
	mov	eax, DWORD PTR ___that$[ebp]
	push	eax
	mov	ecx, DWORD PTR _this$[ebp]
	call	??4?$PluralMap@VDigitAffix@icu_56@@@icu_56@@QAEAAV01@ABV01@@Z ; icu_56::PluralMap<icu_56::DigitAffix>::operator=
	mov	eax, DWORD PTR _this$[ebp]
	pop	edi
	pop	esi
	pop	ebx
	add	esp, 204				; 000000ccH
	cmp	ebp, esp
	call	__RTC_CheckEsp
	mov	esp, ebp
	pop	ebp
	ret	4
??4PluralAffix@icu_56@@QAEAAV01@ABV01@@Z ENDP		; icu_56::PluralAffix::operator=
_TEXT	ENDS
PUBLIC	?getSymbol@CurrencyAffixInfo@icu_56@@QBEABVUnicodeString@2@XZ ; icu_56::CurrencyAffixInfo::getSymbol
; Function compile flags: /Odtp /RTCsu /ZI
;	COMDAT ?getSymbol@CurrencyAffixInfo@icu_56@@QBEABVUnicodeString@2@XZ
_TEXT	SEGMENT
_this$ = -8						; size = 4
?getSymbol@CurrencyAffixInfo@icu_56@@QBEABVUnicodeString@2@XZ PROC ; icu_56::CurrencyAffixInfo::getSymbol, COMDAT
; _this$ = ecx
; File d:\mozilla\intl\icu\source\i18n\affixpatternparser.h
; Line 44
	push	ebp
	mov	ebp, esp
	sub	esp, 204				; 000000ccH
	push	ebx
	push	esi
	push	edi
	push	ecx
	lea	edi, DWORD PTR [ebp-204]
	mov	ecx, 51					; 00000033H
	mov	eax, -858993460				; ccccccccH
	rep stosd
	pop	ecx
	mov	DWORD PTR _this$[ebp], ecx
	mov	eax, DWORD PTR _this$[ebp]
	pop	edi
	pop	esi
	pop	ebx
	mov	esp, ebp
	pop	ebp
	ret	0
?getSymbol@CurrencyAffixInfo@icu_56@@QBEABVUnicodeString@2@XZ ENDP ; icu_56::CurrencyAffixInfo::getSymbol
_TEXT	ENDS
PUBLIC	?getISO@CurrencyAffixInfo@icu_56@@QBEABVUnicodeString@2@XZ ; icu_56::CurrencyAffixInfo::getISO
; Function compile flags: /Odtp /RTCsu /ZI
;	COMDAT ?getISO@CurrencyAffixInfo@icu_56@@QBEABVUnicodeString@2@XZ
_TEXT	SEGMENT
_this$ = -8						; size = 4
?getISO@CurrencyAffixInfo@icu_56@@QBEABVUnicodeString@2@XZ PROC ; icu_56::CurrencyAffixInfo::getISO, COMDAT
; _this$ = ecx
; Line 45
	push	ebp
	mov	ebp, esp
	sub	esp, 204				; 000000ccH
	push	ebx
	push	esi
	push	edi
	push	ecx
	lea	edi, DWORD PTR [ebp-204]
	mov	ecx, 51					; 00000033H
	mov	eax, -858993460				; ccccccccH
	rep stosd
	pop	ecx
	mov	DWORD PTR _this$[ebp], ecx
	mov	eax, DWORD PTR _this$[ebp]
	add	eax, 64					; 00000040H
	pop	edi
	pop	esi
	pop	ebx
	mov	esp, ebp
	pop	ebp
	ret	0
?getISO@CurrencyAffixInfo@icu_56@@QBEABVUnicodeString@2@XZ ENDP ; icu_56::CurrencyAffixInfo::getISO
_TEXT	ENDS
PUBLIC	?getLong@CurrencyAffixInfo@icu_56@@QBEABVPluralAffix@2@XZ ; icu_56::CurrencyAffixInfo::getLong
; Function compile flags: /Odtp /RTCsu /ZI
;	COMDAT ?getLong@CurrencyAffixInfo@icu_56@@QBEABVPluralAffix@2@XZ
_TEXT	SEGMENT
_this$ = -8						; size = 4
?getLong@CurrencyAffixInfo@icu_56@@QBEABVPluralAffix@2@XZ PROC ; icu_56::CurrencyAffixInfo::getLong, COMDAT
; _this$ = ecx
; Line 46
	push	ebp
	mov	ebp, esp
	sub	esp, 204				; 000000ccH
	push	ebx
	push	esi
	push	edi
	push	ecx
	lea	edi, DWORD PTR [ebp-204]
	mov	ecx, 51					; 00000033H
	mov	eax, -858993460				; ccccccccH
	rep stosd
	pop	ecx
	mov	DWORD PTR _this$[ebp], ecx
	mov	eax, DWORD PTR _this$[ebp]
	add	eax, 128				; 00000080H
	pop	edi
	pop	esi
	pop	ebx
	mov	esp, ebp
	pop	ebp
	ret	0
?getLong@CurrencyAffixInfo@icu_56@@QBEABVPluralAffix@2@XZ ENDP ; icu_56::CurrencyAffixInfo::getLong
_TEXT	ENDS
PUBLIC	?setSymbol@CurrencyAffixInfo@icu_56@@QAEXABVUnicodeString@2@@Z ; icu_56::CurrencyAffixInfo::setSymbol
; Function compile flags: /Odtp /RTCsu /ZI
;	COMDAT ?setSymbol@CurrencyAffixInfo@icu_56@@QAEXABVUnicodeString@2@@Z
_TEXT	SEGMENT
_this$ = -8						; size = 4
_symbol$ = 8						; size = 4
?setSymbol@CurrencyAffixInfo@icu_56@@QAEXABVUnicodeString@2@@Z PROC ; icu_56::CurrencyAffixInfo::setSymbol, COMDAT
; _this$ = ecx
; Line 47
	push	ebp
	mov	ebp, esp
	sub	esp, 204				; 000000ccH
	push	ebx
	push	esi
	push	edi
	push	ecx
	lea	edi, DWORD PTR [ebp-204]
	mov	ecx, 51					; 00000033H
	mov	eax, -858993460				; ccccccccH
	rep stosd
	pop	ecx
	mov	DWORD PTR _this$[ebp], ecx
; Line 48
	mov	esi, esp
	mov	eax, DWORD PTR _symbol$[ebp]
	push	eax
	mov	ecx, DWORD PTR _this$[ebp]
	call	DWORD PTR __imp_??4UnicodeString@icu_56@@QAEAAV01@ABV01@@Z
	cmp	esi, esp
	call	__RTC_CheckEsp
; Line 49
	mov	eax, DWORD PTR _this$[ebp]
	mov	BYTE PTR [eax+280], 0
; Line 50
	pop	edi
	pop	esi
	pop	ebx
	add	esp, 204				; 000000ccH
	cmp	ebp, esp
	call	__RTC_CheckEsp
	mov	esp, ebp
	pop	ebp
	ret	4
?setSymbol@CurrencyAffixInfo@icu_56@@QAEXABVUnicodeString@2@@Z ENDP ; icu_56::CurrencyAffixInfo::setSymbol
_TEXT	ENDS
PUBLIC	?setISO@CurrencyAffixInfo@icu_56@@QAEXABVUnicodeString@2@@Z ; icu_56::CurrencyAffixInfo::setISO
; Function compile flags: /Odtp /RTCsu /ZI
;	COMDAT ?setISO@CurrencyAffixInfo@icu_56@@QAEXABVUnicodeString@2@@Z
_TEXT	SEGMENT
_this$ = -8						; size = 4
_iso$ = 8						; size = 4
?setISO@CurrencyAffixInfo@icu_56@@QAEXABVUnicodeString@2@@Z PROC ; icu_56::CurrencyAffixInfo::setISO, COMDAT
; _this$ = ecx
; Line 51
	push	ebp
	mov	ebp, esp
	sub	esp, 204				; 000000ccH
	push	ebx
	push	esi
	push	edi
	push	ecx
	lea	edi, DWORD PTR [ebp-204]
	mov	ecx, 51					; 00000033H
	mov	eax, -858993460				; ccccccccH
	rep stosd
	pop	ecx
	mov	DWORD PTR _this$[ebp], ecx
; Line 52
	mov	esi, esp
	mov	eax, DWORD PTR _iso$[ebp]
	push	eax
	mov	ecx, DWORD PTR _this$[ebp]
	add	ecx, 64					; 00000040H
	call	DWORD PTR __imp_??4UnicodeString@icu_56@@QAEAAV01@ABV01@@Z
	cmp	esi, esp
	call	__RTC_CheckEsp
; Line 53
	mov	eax, DWORD PTR _this$[ebp]
	mov	BYTE PTR [eax+280], 0
; Line 54
	pop	edi
	pop	esi
	pop	ebx
	add	esp, 204				; 000000ccH
	cmp	ebp, esp
	call	__RTC_CheckEsp
	mov	esp, ebp
	pop	ebp
	ret	4
?setISO@CurrencyAffixInfo@icu_56@@QAEXABVUnicodeString@2@@Z ENDP ; icu_56::CurrencyAffixInfo::setISO
_TEXT	ENDS
PUBLIC	?equals@CurrencyAffixInfo@icu_56@@QBECABV12@@Z	; icu_56::CurrencyAffixInfo::equals
; Function compile flags: /Odtp /RTCsu /ZI
;	COMDAT ?equals@CurrencyAffixInfo@icu_56@@QBECABV12@@Z
_TEXT	SEGMENT
tv88 = -205						; size = 1
_this$ = -8						; size = 4
_other$ = 8						; size = 4
?equals@CurrencyAffixInfo@icu_56@@QBECABV12@@Z PROC	; icu_56::CurrencyAffixInfo::equals, COMDAT
; _this$ = ecx
; Line 56
	push	ebp
	mov	ebp, esp
	sub	esp, 208				; 000000d0H
	push	ebx
	push	esi
	push	edi
	push	ecx
	lea	edi, DWORD PTR [ebp-208]
	mov	ecx, 52					; 00000034H
	mov	eax, -858993460				; ccccccccH
	rep stosd
	pop	ecx
	mov	DWORD PTR _this$[ebp], ecx
; Line 60
	mov	esi, esp
	mov	eax, DWORD PTR _other$[ebp]
	push	eax
	mov	ecx, DWORD PTR _this$[ebp]
	call	DWORD PTR __imp_??8UnicodeString@icu_56@@QBECABV01@@Z
	cmp	esi, esp
	call	__RTC_CheckEsp
	movsx	ecx, al
	test	ecx, ecx
	je	SHORT $LN3@equals@2
	mov	edx, DWORD PTR _other$[ebp]
	add	edx, 64					; 00000040H
	mov	esi, esp
	push	edx
	mov	ecx, DWORD PTR _this$[ebp]
	add	ecx, 64					; 00000040H
	call	DWORD PTR __imp_??8UnicodeString@icu_56@@QBECABV01@@Z
	cmp	esi, esp
	call	__RTC_CheckEsp
	movsx	eax, al
	test	eax, eax
	je	SHORT $LN3@equals@2
	mov	ecx, DWORD PTR _other$[ebp]
	add	ecx, 128				; 00000080H
	push	ecx
	mov	ecx, DWORD PTR _this$[ebp]
	add	ecx, 128				; 00000080H
	call	?equals@PluralAffix@icu_56@@QBECABV12@@Z ; icu_56::PluralAffix::equals
	movsx	edx, al
	test	edx, edx
	je	SHORT $LN3@equals@2
	mov	eax, DWORD PTR _this$[ebp]
	movsx	ecx, BYTE PTR [eax+280]
	mov	edx, DWORD PTR _other$[ebp]
	movsx	eax, BYTE PTR [edx+280]
	cmp	ecx, eax
	jne	SHORT $LN3@equals@2
	mov	BYTE PTR tv88[ebp], 1
	jmp	SHORT $LN4@equals@2
$LN3@equals@2:
	mov	BYTE PTR tv88[ebp], 0
$LN4@equals@2:
	mov	al, BYTE PTR tv88[ebp]
; Line 61
	pop	edi
	pop	esi
	pop	ebx
	add	esp, 208				; 000000d0H
	cmp	ebp, esp
	call	__RTC_CheckEsp
	mov	esp, ebp
	pop	ebp
	ret	4
?equals@CurrencyAffixInfo@icu_56@@QBECABV12@@Z ENDP	; icu_56::CurrencyAffixInfo::equals
_TEXT	ENDS
PUBLIC	?isDefault@CurrencyAffixInfo@icu_56@@QBECXZ	; icu_56::CurrencyAffixInfo::isDefault
; Function compile flags: /Odtp /RTCsu /ZI
;	COMDAT ?isDefault@CurrencyAffixInfo@icu_56@@QBECXZ
_TEXT	SEGMENT
_this$ = -8						; size = 4
?isDefault@CurrencyAffixInfo@icu_56@@QBECXZ PROC	; icu_56::CurrencyAffixInfo::isDefault, COMDAT
; _this$ = ecx
; Line 82
	push	ebp
	mov	ebp, esp
	sub	esp, 204				; 000000ccH
	push	ebx
	push	esi
	push	edi
	push	ecx
	lea	edi, DWORD PTR [ebp-204]
	mov	ecx, 51					; 00000033H
	mov	eax, -858993460				; ccccccccH
	rep stosd
	pop	ecx
	mov	DWORD PTR _this$[ebp], ecx
	mov	eax, DWORD PTR _this$[ebp]
	mov	al, BYTE PTR [eax+280]
	pop	edi
	pop	esi
	pop	ebx
	mov	esp, ebp
	pop	ebp
	ret	0
?isDefault@CurrencyAffixInfo@icu_56@@QBECXZ ENDP	; icu_56::CurrencyAffixInfo::isDefault
_TEXT	ENDS
PUBLIC	??1CurrencyAffixInfo@icu_56@@QAE@XZ		; icu_56::CurrencyAffixInfo::~CurrencyAffixInfo
;	COMDAT xdata$x
xdata$x	SEGMENT
__unwindtable$??1CurrencyAffixInfo@icu_56@@QAE@XZ DD 0ffffffffH
	DD	FLAT:__unwindfunclet$??1CurrencyAffixInfo@icu_56@@QAE@XZ$0
	DD	00H
	DD	FLAT:__unwindfunclet$??1CurrencyAffixInfo@icu_56@@QAE@XZ$1
__ehfuncinfo$??1CurrencyAffixInfo@icu_56@@QAE@XZ DD 019930522H
	DD	02H
	DD	FLAT:__unwindtable$??1CurrencyAffixInfo@icu_56@@QAE@XZ
	DD	2 DUP(00H)
	DD	2 DUP(00H)
	DD	00H
	DD	01H
; Function compile flags: /Odtp /RTCsu /ZI
xdata$x	ENDS
;	COMDAT ??1CurrencyAffixInfo@icu_56@@QAE@XZ
_TEXT	SEGMENT
_this$ = -20						; size = 4
__$EHRec$ = -12						; size = 12
??1CurrencyAffixInfo@icu_56@@QAE@XZ PROC		; icu_56::CurrencyAffixInfo::~CurrencyAffixInfo, COMDAT
; _this$ = ecx
	push	ebp
	mov	ebp, esp
	push	-1
	push	__ehhandler$??1CurrencyAffixInfo@icu_56@@QAE@XZ
	mov	eax, DWORD PTR fs:0
	push	eax
	sub	esp, 204				; 000000ccH
	push	ebx
	push	esi
	push	edi
	push	ecx
	lea	edi, DWORD PTR [ebp-216]
	mov	ecx, 51					; 00000033H
	mov	eax, -858993460				; ccccccccH
	rep stosd
	pop	ecx
	mov	eax, DWORD PTR ___security_cookie
	xor	eax, ebp
	push	eax
	lea	eax, DWORD PTR __$EHRec$[ebp]
	mov	DWORD PTR fs:0, eax
	mov	DWORD PTR _this$[ebp], ecx
	mov	DWORD PTR __$EHRec$[ebp+8], 1
	mov	ecx, DWORD PTR _this$[ebp]
	add	ecx, 128				; 00000080H
	call	??1PluralAffix@icu_56@@QAE@XZ
	mov	BYTE PTR __$EHRec$[ebp+8], 0
	mov	ecx, DWORD PTR _this$[ebp]
	add	ecx, 64					; 00000040H
	mov	esi, esp
	call	DWORD PTR __imp_??1UnicodeString@icu_56@@UAE@XZ
	cmp	esi, esp
	call	__RTC_CheckEsp
	mov	DWORD PTR __$EHRec$[ebp+8], -1
	mov	esi, esp
	mov	ecx, DWORD PTR _this$[ebp]
	call	DWORD PTR __imp_??1UnicodeString@icu_56@@UAE@XZ
	cmp	esi, esp
	call	__RTC_CheckEsp
	mov	ecx, DWORD PTR __$EHRec$[ebp]
	mov	DWORD PTR fs:0, ecx
	pop	ecx
	pop	edi
	pop	esi
	pop	ebx
	add	esp, 216				; 000000d8H
	cmp	ebp, esp
	call	__RTC_CheckEsp
	mov	esp, ebp
	pop	ebp
	ret	0
_TEXT	ENDS
;	COMDAT text$x
text$x	SEGMENT
__unwindfunclet$??1CurrencyAffixInfo@icu_56@@QAE@XZ$0:
	mov	esi, esp
	mov	ecx, DWORD PTR _this$[ebp]
	call	DWORD PTR __imp_??1UnicodeString@icu_56@@UAE@XZ
	cmp	esi, esp
	jmp	__RTC_CheckEsp
__unwindfunclet$??1CurrencyAffixInfo@icu_56@@QAE@XZ$1:
	mov	ecx, DWORD PTR _this$[ebp]
	add	ecx, 64					; 00000040H
	mov	esi, esp
	call	DWORD PTR __imp_??1UnicodeString@icu_56@@UAE@XZ
	cmp	esi, esp
	jmp	__RTC_CheckEsp
__ehhandler$??1CurrencyAffixInfo@icu_56@@QAE@XZ:
	mov	edx, DWORD PTR [esp+8]
	lea	eax, DWORD PTR [edx+12]
	mov	ecx, DWORD PTR [edx-220]
	xor	ecx, eax
	call	@__security_check_cookie@4
	mov	eax, OFFSET __ehfuncinfo$??1CurrencyAffixInfo@icu_56@@QAE@XZ
	jmp	___CxxFrameHandler3
text$x	ENDS
??1CurrencyAffixInfo@icu_56@@QAE@XZ ENDP		; icu_56::CurrencyAffixInfo::~CurrencyAffixInfo
PUBLIC	??0CurrencyAffixInfo@icu_56@@QAE@ABV01@@Z	; icu_56::CurrencyAffixInfo::CurrencyAffixInfo
;	COMDAT xdata$x
xdata$x	SEGMENT
__unwindtable$??0CurrencyAffixInfo@icu_56@@QAE@ABV01@@Z DD 0ffffffffH
	DD	FLAT:__unwindfunclet$??0CurrencyAffixInfo@icu_56@@QAE@ABV01@@Z$0
	DD	00H
	DD	FLAT:__unwindfunclet$??0CurrencyAffixInfo@icu_56@@QAE@ABV01@@Z$1
__ehfuncinfo$??0CurrencyAffixInfo@icu_56@@QAE@ABV01@@Z DD 019930522H
	DD	02H
	DD	FLAT:__unwindtable$??0CurrencyAffixInfo@icu_56@@QAE@ABV01@@Z
	DD	2 DUP(00H)
	DD	2 DUP(00H)
	DD	00H
	DD	01H
; Function compile flags: /Odtp /RTCsu /ZI
xdata$x	ENDS
;	COMDAT ??0CurrencyAffixInfo@icu_56@@QAE@ABV01@@Z
_TEXT	SEGMENT
_this$ = -20						; size = 4
__$EHRec$ = -12						; size = 12
___that$ = 8						; size = 4
??0CurrencyAffixInfo@icu_56@@QAE@ABV01@@Z PROC		; icu_56::CurrencyAffixInfo::CurrencyAffixInfo, COMDAT
; _this$ = ecx
	push	ebp
	mov	ebp, esp
	push	-1
	push	__ehhandler$??0CurrencyAffixInfo@icu_56@@QAE@ABV01@@Z
	mov	eax, DWORD PTR fs:0
	push	eax
	sub	esp, 204				; 000000ccH
	push	ebx
	push	esi
	push	edi
	push	ecx
	lea	edi, DWORD PTR [ebp-216]
	mov	ecx, 51					; 00000033H
	mov	eax, -858993460				; ccccccccH
	rep stosd
	pop	ecx
	mov	eax, DWORD PTR ___security_cookie
	xor	eax, ebp
	push	eax
	lea	eax, DWORD PTR __$EHRec$[ebp]
	mov	DWORD PTR fs:0, eax
	mov	DWORD PTR _this$[ebp], ecx
	mov	esi, esp
	mov	eax, DWORD PTR ___that$[ebp]
	push	eax
	mov	ecx, DWORD PTR _this$[ebp]
	call	DWORD PTR __imp_??0UnicodeString@icu_56@@QAE@ABV01@@Z
	cmp	esi, esp
	call	__RTC_CheckEsp
	mov	DWORD PTR __$EHRec$[ebp+8], 0
	mov	eax, DWORD PTR ___that$[ebp]
	add	eax, 64					; 00000040H
	mov	esi, esp
	push	eax
	mov	ecx, DWORD PTR _this$[ebp]
	add	ecx, 64					; 00000040H
	call	DWORD PTR __imp_??0UnicodeString@icu_56@@QAE@ABV01@@Z
	cmp	esi, esp
	call	__RTC_CheckEsp
	mov	BYTE PTR __$EHRec$[ebp+8], 1
	mov	eax, DWORD PTR ___that$[ebp]
	add	eax, 128				; 00000080H
	push	eax
	mov	ecx, DWORD PTR _this$[ebp]
	add	ecx, 128				; 00000080H
	call	??0PluralAffix@icu_56@@QAE@ABV01@@Z
	mov	eax, DWORD PTR _this$[ebp]
	mov	ecx, DWORD PTR ___that$[ebp]
	mov	dl, BYTE PTR [ecx+280]
	mov	BYTE PTR [eax+280], dl
	mov	DWORD PTR __$EHRec$[ebp+8], -1
	mov	eax, DWORD PTR _this$[ebp]
	mov	ecx, DWORD PTR __$EHRec$[ebp]
	mov	DWORD PTR fs:0, ecx
	pop	ecx
	pop	edi
	pop	esi
	pop	ebx
	add	esp, 216				; 000000d8H
	cmp	ebp, esp
	call	__RTC_CheckEsp
	mov	esp, ebp
	pop	ebp
	ret	4
_TEXT	ENDS
;	COMDAT text$x
text$x	SEGMENT
__unwindfunclet$??0CurrencyAffixInfo@icu_56@@QAE@ABV01@@Z$0:
	mov	esi, esp
	mov	ecx, DWORD PTR _this$[ebp]
	call	DWORD PTR __imp_??1UnicodeString@icu_56@@UAE@XZ
	cmp	esi, esp
	jmp	__RTC_CheckEsp
__unwindfunclet$??0CurrencyAffixInfo@icu_56@@QAE@ABV01@@Z$1:
	mov	ecx, DWORD PTR _this$[ebp]
	add	ecx, 64					; 00000040H
	mov	esi, esp
	call	DWORD PTR __imp_??1UnicodeString@icu_56@@UAE@XZ
	cmp	esi, esp
	jmp	__RTC_CheckEsp
__ehhandler$??0CurrencyAffixInfo@icu_56@@QAE@ABV01@@Z:
	mov	edx, DWORD PTR [esp+8]
	lea	eax, DWORD PTR [edx+12]
	mov	ecx, DWORD PTR [edx-220]
	xor	ecx, eax
	call	@__security_check_cookie@4
	mov	eax, OFFSET __ehfuncinfo$??0CurrencyAffixInfo@icu_56@@QAE@ABV01@@Z
	jmp	___CxxFrameHandler3
text$x	ENDS
??0CurrencyAffixInfo@icu_56@@QAE@ABV01@@Z ENDP		; icu_56::CurrencyAffixInfo::CurrencyAffixInfo
PUBLIC	??4CurrencyAffixInfo@icu_56@@QAEAAV01@ABV01@@Z	; icu_56::CurrencyAffixInfo::operator=
; Function compile flags: /Odtp /RTCsu /ZI
;	COMDAT ??4CurrencyAffixInfo@icu_56@@QAEAAV01@ABV01@@Z
_TEXT	SEGMENT
_this$ = -8						; size = 4
___that$ = 8						; size = 4
??4CurrencyAffixInfo@icu_56@@QAEAAV01@ABV01@@Z PROC	; icu_56::CurrencyAffixInfo::operator=, COMDAT
; _this$ = ecx
	push	ebp
	mov	ebp, esp
	sub	esp, 204				; 000000ccH
	push	ebx
	push	esi
	push	edi
	push	ecx
	lea	edi, DWORD PTR [ebp-204]
	mov	ecx, 51					; 00000033H
	mov	eax, -858993460				; ccccccccH
	rep stosd
	pop	ecx
	mov	DWORD PTR _this$[ebp], ecx
	mov	esi, esp
	mov	eax, DWORD PTR ___that$[ebp]
	push	eax
	mov	ecx, DWORD PTR _this$[ebp]
	call	DWORD PTR __imp_??4UnicodeString@icu_56@@QAEAAV01@ABV01@@Z
	cmp	esi, esp
	call	__RTC_CheckEsp
	mov	eax, DWORD PTR ___that$[ebp]
	add	eax, 64					; 00000040H
	mov	esi, esp
	push	eax
	mov	ecx, DWORD PTR _this$[ebp]
	add	ecx, 64					; 00000040H
	call	DWORD PTR __imp_??4UnicodeString@icu_56@@QAEAAV01@ABV01@@Z
	cmp	esi, esp
	call	__RTC_CheckEsp
	mov	eax, DWORD PTR ___that$[ebp]
	add	eax, 128				; 00000080H
	push	eax
	mov	ecx, DWORD PTR _this$[ebp]
	add	ecx, 128				; 00000080H
	call	??4PluralAffix@icu_56@@QAEAAV01@ABV01@@Z
	mov	eax, DWORD PTR _this$[ebp]
	mov	ecx, DWORD PTR ___that$[ebp]
	mov	dl, BYTE PTR [ecx+280]
	mov	BYTE PTR [eax+280], dl
	mov	eax, DWORD PTR _this$[ebp]
	pop	edi
	pop	esi
	pop	ebx
	add	esp, 204				; 000000ccH
	cmp	ebp, esp
	call	__RTC_CheckEsp
	mov	esp, ebp
	pop	ebp
	ret	4
??4CurrencyAffixInfo@icu_56@@QAEAAV01@ABV01@@Z ENDP	; icu_56::CurrencyAffixInfo::operator=
_TEXT	ENDS
PUBLIC	??0AffixPattern@icu_56@@QAE@XZ			; icu_56::AffixPattern::AffixPattern
EXTRN	__imp_??0UnicodeString@icu_56@@QAE@XZ:PROC
;	COMDAT xdata$x
xdata$x	SEGMENT
__unwindtable$??0AffixPattern@icu_56@@QAE@XZ DD 0ffffffffH
	DD	FLAT:__unwindfunclet$??0AffixPattern@icu_56@@QAE@XZ$0
__ehfuncinfo$??0AffixPattern@icu_56@@QAE@XZ DD 019930522H
	DD	01H
	DD	FLAT:__unwindtable$??0AffixPattern@icu_56@@QAE@XZ
	DD	2 DUP(00H)
	DD	2 DUP(00H)
	DD	00H
	DD	01H
; Function compile flags: /Odtp /RTCsu /ZI
xdata$x	ENDS
;	COMDAT ??0AffixPattern@icu_56@@QAE@XZ
_TEXT	SEGMENT
_this$ = -20						; size = 4
__$EHRec$ = -12						; size = 12
??0AffixPattern@icu_56@@QAE@XZ PROC			; icu_56::AffixPattern::AffixPattern, COMDAT
; _this$ = ecx
; Line 142
	push	ebp
	mov	ebp, esp
	push	-1
	push	__ehhandler$??0AffixPattern@icu_56@@QAE@XZ
	mov	eax, DWORD PTR fs:0
	push	eax
	sub	esp, 204				; 000000ccH
	push	ebx
	push	esi
	push	edi
	push	ecx
	lea	edi, DWORD PTR [ebp-216]
	mov	ecx, 51					; 00000033H
	mov	eax, -858993460				; ccccccccH
	rep stosd
	pop	ecx
	mov	eax, DWORD PTR ___security_cookie
	xor	eax, ebp
	push	eax
	lea	eax, DWORD PTR __$EHRec$[ebp]
	mov	DWORD PTR fs:0, eax
	mov	DWORD PTR _this$[ebp], ecx
	mov	esi, esp
	mov	ecx, DWORD PTR _this$[ebp]
	call	DWORD PTR __imp_??0UnicodeString@icu_56@@QAE@XZ
	cmp	esi, esp
	call	__RTC_CheckEsp
	mov	DWORD PTR __$EHRec$[ebp+8], 0
	mov	ecx, DWORD PTR _this$[ebp]
	add	ecx, 64					; 00000040H
	mov	esi, esp
	call	DWORD PTR __imp_??0UnicodeString@icu_56@@QAE@XZ
	cmp	esi, esp
	call	__RTC_CheckEsp
	mov	eax, DWORD PTR _this$[ebp]
	mov	BYTE PTR [eax+128], 0
	mov	eax, DWORD PTR _this$[ebp]
	mov	BYTE PTR [eax+129], 0
	mov	eax, DWORD PTR _this$[ebp]
	mov	BYTE PTR [eax+130], 0
	mov	eax, DWORD PTR _this$[ebp]
	mov	DWORD PTR [eax+132], 0
; Line 143
	mov	DWORD PTR __$EHRec$[ebp+8], -1
	mov	eax, DWORD PTR _this$[ebp]
	mov	ecx, DWORD PTR __$EHRec$[ebp]
	mov	DWORD PTR fs:0, ecx
	pop	ecx
	pop	edi
	pop	esi
	pop	ebx
	add	esp, 216				; 000000d8H
	cmp	ebp, esp
	call	__RTC_CheckEsp
	mov	esp, ebp
	pop	ebp
	ret	0
_TEXT	ENDS
;	COMDAT text$x
text$x	SEGMENT
__unwindfunclet$??0AffixPattern@icu_56@@QAE@XZ$0:
	mov	esi, esp
	mov	ecx, DWORD PTR _this$[ebp]
	call	DWORD PTR __imp_??1UnicodeString@icu_56@@UAE@XZ
	cmp	esi, esp
	jmp	__RTC_CheckEsp
__ehhandler$??0AffixPattern@icu_56@@QAE@XZ:
	mov	edx, DWORD PTR [esp+8]
	lea	eax, DWORD PTR [edx+12]
	mov	ecx, DWORD PTR [edx-220]
	xor	ecx, eax
	call	@__security_check_cookie@4
	mov	eax, OFFSET __ehfuncinfo$??0AffixPattern@icu_56@@QAE@XZ
	jmp	___CxxFrameHandler3
text$x	ENDS
??0AffixPattern@icu_56@@QAE@XZ ENDP			; icu_56::AffixPattern::AffixPattern
PUBLIC	?usesCurrency@AffixPattern@icu_56@@QBECXZ	; icu_56::AffixPattern::usesCurrency
; Function compile flags: /Odtp /RTCsu /ZI
;	COMDAT ?usesCurrency@AffixPattern@icu_56@@QBECXZ
_TEXT	SEGMENT
_this$ = -8						; size = 4
?usesCurrency@AffixPattern@icu_56@@QBECXZ PROC		; icu_56::AffixPattern::usesCurrency, COMDAT
; _this$ = ecx
; Line 185
	push	ebp
	mov	ebp, esp
	sub	esp, 204				; 000000ccH
	push	ebx
	push	esi
	push	edi
	push	ecx
	lea	edi, DWORD PTR [ebp-204]
	mov	ecx, 51					; 00000033H
	mov	eax, -858993460				; ccccccccH
	rep stosd
	pop	ecx
	mov	DWORD PTR _this$[ebp], ecx
; Line 186
	mov	eax, DWORD PTR _this$[ebp]
	mov	al, BYTE PTR [eax+128]
; Line 187
	pop	edi
	pop	esi
	pop	ebx
	mov	esp, ebp
	pop	ebp
	ret	0
?usesCurrency@AffixPattern@icu_56@@QBECXZ ENDP		; icu_56::AffixPattern::usesCurrency
_TEXT	ENDS
PUBLIC	?usesPercent@AffixPattern@icu_56@@QBECXZ	; icu_56::AffixPattern::usesPercent
; Function compile flags: /Odtp /RTCsu /ZI
;	COMDAT ?usesPercent@AffixPattern@icu_56@@QBECXZ
_TEXT	SEGMENT
_this$ = -8						; size = 4
?usesPercent@AffixPattern@icu_56@@QBECXZ PROC		; icu_56::AffixPattern::usesPercent, COMDAT
; _this$ = ecx
; Line 189
	push	ebp
	mov	ebp, esp
	sub	esp, 204				; 000000ccH
	push	ebx
	push	esi
	push	edi
	push	ecx
	lea	edi, DWORD PTR [ebp-204]
	mov	ecx, 51					; 00000033H
	mov	eax, -858993460				; ccccccccH
	rep stosd
	pop	ecx
	mov	DWORD PTR _this$[ebp], ecx
; Line 190
	mov	eax, DWORD PTR _this$[ebp]
	mov	al, BYTE PTR [eax+129]
; Line 191
	pop	edi
	pop	esi
	pop	ebx
	mov	esp, ebp
	pop	ebp
	ret	0
?usesPercent@AffixPattern@icu_56@@QBECXZ ENDP		; icu_56::AffixPattern::usesPercent
_TEXT	ENDS
PUBLIC	?usesPermill@AffixPattern@icu_56@@QBECXZ	; icu_56::AffixPattern::usesPermill
; Function compile flags: /Odtp /RTCsu /ZI
;	COMDAT ?usesPermill@AffixPattern@icu_56@@QBECXZ
_TEXT	SEGMENT
_this$ = -8						; size = 4
?usesPermill@AffixPattern@icu_56@@QBECXZ PROC		; icu_56::AffixPattern::usesPermill, COMDAT
; _this$ = ecx
; Line 193
	push	ebp
	mov	ebp, esp
	sub	esp, 204				; 000000ccH
	push	ebx
	push	esi
	push	edi
	push	ecx
	lea	edi, DWORD PTR [ebp-204]
	mov	ecx, 51					; 00000033H
	mov	eax, -858993460				; ccccccccH
	rep stosd
	pop	ecx
	mov	DWORD PTR _this$[ebp], ecx
; Line 194
	mov	eax, DWORD PTR _this$[ebp]
	mov	al, BYTE PTR [eax+130]
; Line 195
	pop	edi
	pop	esi
	pop	ebx
	mov	esp, ebp
	pop	ebp
	ret	0
?usesPermill@AffixPattern@icu_56@@QBECXZ ENDP		; icu_56::AffixPattern::usesPermill
_TEXT	ENDS
PUBLIC	?countChar32@AffixPattern@icu_56@@QBEHXZ	; icu_56::AffixPattern::countChar32
; Function compile flags: /Odtp /RTCsu /ZI
;	COMDAT ?countChar32@AffixPattern@icu_56@@QBEHXZ
_TEXT	SEGMENT
_this$ = -8						; size = 4
?countChar32@AffixPattern@icu_56@@QBEHXZ PROC		; icu_56::AffixPattern::countChar32, COMDAT
; _this$ = ecx
; Line 202
	push	ebp
	mov	ebp, esp
	sub	esp, 204				; 000000ccH
	push	ebx
	push	esi
	push	edi
	push	ecx
	lea	edi, DWORD PTR [ebp-204]
	mov	ecx, 51					; 00000033H
	mov	eax, -858993460				; ccccccccH
	rep stosd
	pop	ecx
	mov	DWORD PTR _this$[ebp], ecx
; Line 203
	mov	eax, DWORD PTR _this$[ebp]
	mov	eax, DWORD PTR [eax+132]
; Line 204
	pop	edi
	pop	esi
	pop	ebx
	mov	esp, ebp
	pop	ebp
	ret	0
?countChar32@AffixPattern@icu_56@@QBEHXZ ENDP		; icu_56::AffixPattern::countChar32
_TEXT	ENDS
PUBLIC	?equals@AffixPattern@icu_56@@QBECABV12@@Z	; icu_56::AffixPattern::equals
; Function compile flags: /Odtp /RTCsu /ZI
;	COMDAT ?equals@AffixPattern@icu_56@@QBECABV12@@Z
_TEXT	SEGMENT
tv94 = -205						; size = 1
_this$ = -8						; size = 4
_other$ = 8						; size = 4
?equals@AffixPattern@icu_56@@QBECABV12@@Z PROC		; icu_56::AffixPattern::equals, COMDAT
; _this$ = ecx
; Line 272
	push	ebp
	mov	ebp, esp
	sub	esp, 208				; 000000d0H
	push	ebx
	push	esi
	push	edi
	push	ecx
	lea	edi, DWORD PTR [ebp-208]
	mov	ecx, 52					; 00000034H
	mov	eax, -858993460				; ccccccccH
	rep stosd
	pop	ecx
	mov	DWORD PTR _this$[ebp], ecx
; Line 278
	mov	esi, esp
	mov	eax, DWORD PTR _other$[ebp]
	push	eax
	mov	ecx, DWORD PTR _this$[ebp]
	call	DWORD PTR __imp_??8UnicodeString@icu_56@@QBECABV01@@Z
	cmp	esi, esp
	call	__RTC_CheckEsp
	movsx	ecx, al
	test	ecx, ecx
	je	$LN3@equals@3
	mov	edx, DWORD PTR _other$[ebp]
	add	edx, 64					; 00000040H
	mov	esi, esp
	push	edx
	mov	ecx, DWORD PTR _this$[ebp]
	add	ecx, 64					; 00000040H
	call	DWORD PTR __imp_??8UnicodeString@icu_56@@QBECABV01@@Z
	cmp	esi, esp
	call	__RTC_CheckEsp
	movsx	eax, al
	test	eax, eax
	je	SHORT $LN3@equals@3
	mov	ecx, DWORD PTR _this$[ebp]
	movsx	edx, BYTE PTR [ecx+128]
	mov	eax, DWORD PTR _other$[ebp]
	movsx	ecx, BYTE PTR [eax+128]
	cmp	edx, ecx
	jne	SHORT $LN3@equals@3
	mov	edx, DWORD PTR _this$[ebp]
	movsx	eax, BYTE PTR [edx+129]
	mov	ecx, DWORD PTR _other$[ebp]
	movsx	edx, BYTE PTR [ecx+129]
	cmp	eax, edx
	jne	SHORT $LN3@equals@3
	mov	eax, DWORD PTR _this$[ebp]
	movsx	ecx, BYTE PTR [eax+130]
	mov	edx, DWORD PTR _other$[ebp]
	movsx	eax, BYTE PTR [edx+130]
	cmp	ecx, eax
	jne	SHORT $LN3@equals@3
	mov	ecx, DWORD PTR _this$[ebp]
	mov	edx, DWORD PTR _other$[ebp]
	mov	eax, DWORD PTR [ecx+132]
	cmp	eax, DWORD PTR [edx+132]
	jne	SHORT $LN3@equals@3
	mov	BYTE PTR tv94[ebp], 1
	jmp	SHORT $LN4@equals@3
$LN3@equals@3:
	mov	BYTE PTR tv94[ebp], 0
$LN4@equals@3:
	mov	al, BYTE PTR tv94[ebp]
; Line 279
	pop	edi
	pop	esi
	pop	ebx
	add	esp, 208				; 000000d0H
	cmp	ebp, esp
	call	__RTC_CheckEsp
	mov	esp, ebp
	pop	ebp
	ret	4
?equals@AffixPattern@icu_56@@QBECABV12@@Z ENDP		; icu_56::AffixPattern::equals
_TEXT	ENDS
PUBLIC	??1AffixPattern@icu_56@@QAE@XZ			; icu_56::AffixPattern::~AffixPattern
;	COMDAT xdata$x
xdata$x	SEGMENT
__unwindtable$??1AffixPattern@icu_56@@QAE@XZ DD 0ffffffffH
	DD	FLAT:__unwindfunclet$??1AffixPattern@icu_56@@QAE@XZ$0
__ehfuncinfo$??1AffixPattern@icu_56@@QAE@XZ DD 019930522H
	DD	01H
	DD	FLAT:__unwindtable$??1AffixPattern@icu_56@@QAE@XZ
	DD	2 DUP(00H)
	DD	2 DUP(00H)
	DD	00H
	DD	01H
; Function compile flags: /Odtp /RTCsu /ZI
xdata$x	ENDS
;	COMDAT ??1AffixPattern@icu_56@@QAE@XZ
_TEXT	SEGMENT
_this$ = -20						; size = 4
__$EHRec$ = -12						; size = 12
??1AffixPattern@icu_56@@QAE@XZ PROC			; icu_56::AffixPattern::~AffixPattern, COMDAT
; _this$ = ecx
	push	ebp
	mov	ebp, esp
	push	-1
	push	__ehhandler$??1AffixPattern@icu_56@@QAE@XZ
	mov	eax, DWORD PTR fs:0
	push	eax
	sub	esp, 204				; 000000ccH
	push	ebx
	push	esi
	push	edi
	push	ecx
	lea	edi, DWORD PTR [ebp-216]
	mov	ecx, 51					; 00000033H
	mov	eax, -858993460				; ccccccccH
	rep stosd
	pop	ecx
	mov	eax, DWORD PTR ___security_cookie
	xor	eax, ebp
	push	eax
	lea	eax, DWORD PTR __$EHRec$[ebp]
	mov	DWORD PTR fs:0, eax
	mov	DWORD PTR _this$[ebp], ecx
	mov	DWORD PTR __$EHRec$[ebp+8], 0
	mov	ecx, DWORD PTR _this$[ebp]
	add	ecx, 64					; 00000040H
	mov	esi, esp
	call	DWORD PTR __imp_??1UnicodeString@icu_56@@UAE@XZ
	cmp	esi, esp
	call	__RTC_CheckEsp
	mov	DWORD PTR __$EHRec$[ebp+8], -1
	mov	esi, esp
	mov	ecx, DWORD PTR _this$[ebp]
	call	DWORD PTR __imp_??1UnicodeString@icu_56@@UAE@XZ
	cmp	esi, esp
	call	__RTC_CheckEsp
	mov	ecx, DWORD PTR __$EHRec$[ebp]
	mov	DWORD PTR fs:0, ecx
	pop	ecx
	pop	edi
	pop	esi
	pop	ebx
	add	esp, 216				; 000000d8H
	cmp	ebp, esp
	call	__RTC_CheckEsp
	mov	esp, ebp
	pop	ebp
	ret	0
_TEXT	ENDS
;	COMDAT text$x
text$x	SEGMENT
__unwindfunclet$??1AffixPattern@icu_56@@QAE@XZ$0:
	mov	esi, esp
	mov	ecx, DWORD PTR _this$[ebp]
	call	DWORD PTR __imp_??1UnicodeString@icu_56@@UAE@XZ
	cmp	esi, esp
	jmp	__RTC_CheckEsp
__ehhandler$??1AffixPattern@icu_56@@QAE@XZ:
	mov	edx, DWORD PTR [esp+8]
	lea	eax, DWORD PTR [edx+12]
	mov	ecx, DWORD PTR [edx-220]
	xor	ecx, eax
	call	@__security_check_cookie@4
	mov	eax, OFFSET __ehfuncinfo$??1AffixPattern@icu_56@@QAE@XZ
	jmp	___CxxFrameHandler3
text$x	ENDS
??1AffixPattern@icu_56@@QAE@XZ ENDP			; icu_56::AffixPattern::~AffixPattern
PUBLIC	??0AffixPattern@icu_56@@QAE@ABV01@@Z		; icu_56::AffixPattern::AffixPattern
;	COMDAT xdata$x
xdata$x	SEGMENT
__unwindtable$??0AffixPattern@icu_56@@QAE@ABV01@@Z DD 0ffffffffH
	DD	FLAT:__unwindfunclet$??0AffixPattern@icu_56@@QAE@ABV01@@Z$0
__ehfuncinfo$??0AffixPattern@icu_56@@QAE@ABV01@@Z DD 019930522H
	DD	01H
	DD	FLAT:__unwindtable$??0AffixPattern@icu_56@@QAE@ABV01@@Z
	DD	2 DUP(00H)
	DD	2 DUP(00H)
	DD	00H
	DD	01H
; Function compile flags: /Odtp /RTCsu /ZI
xdata$x	ENDS
;	COMDAT ??0AffixPattern@icu_56@@QAE@ABV01@@Z
_TEXT	SEGMENT
_this$ = -20						; size = 4
__$EHRec$ = -12						; size = 12
___that$ = 8						; size = 4
??0AffixPattern@icu_56@@QAE@ABV01@@Z PROC		; icu_56::AffixPattern::AffixPattern, COMDAT
; _this$ = ecx
	push	ebp
	mov	ebp, esp
	push	-1
	push	__ehhandler$??0AffixPattern@icu_56@@QAE@ABV01@@Z
	mov	eax, DWORD PTR fs:0
	push	eax
	sub	esp, 204				; 000000ccH
	push	ebx
	push	esi
	push	edi
	push	ecx
	lea	edi, DWORD PTR [ebp-216]
	mov	ecx, 51					; 00000033H
	mov	eax, -858993460				; ccccccccH
	rep stosd
	pop	ecx
	mov	eax, DWORD PTR ___security_cookie
	xor	eax, ebp
	push	eax
	lea	eax, DWORD PTR __$EHRec$[ebp]
	mov	DWORD PTR fs:0, eax
	mov	DWORD PTR _this$[ebp], ecx
	mov	esi, esp
	mov	eax, DWORD PTR ___that$[ebp]
	push	eax
	mov	ecx, DWORD PTR _this$[ebp]
	call	DWORD PTR __imp_??0UnicodeString@icu_56@@QAE@ABV01@@Z
	cmp	esi, esp
	call	__RTC_CheckEsp
	mov	DWORD PTR __$EHRec$[ebp+8], 0
	mov	eax, DWORD PTR ___that$[ebp]
	add	eax, 64					; 00000040H
	mov	esi, esp
	push	eax
	mov	ecx, DWORD PTR _this$[ebp]
	add	ecx, 64					; 00000040H
	call	DWORD PTR __imp_??0UnicodeString@icu_56@@QAE@ABV01@@Z
	cmp	esi, esp
	call	__RTC_CheckEsp
	mov	eax, DWORD PTR _this$[ebp]
	mov	ecx, DWORD PTR ___that$[ebp]
	mov	dl, BYTE PTR [ecx+128]
	mov	BYTE PTR [eax+128], dl
	mov	eax, DWORD PTR _this$[ebp]
	mov	ecx, DWORD PTR ___that$[ebp]
	mov	dl, BYTE PTR [ecx+129]
	mov	BYTE PTR [eax+129], dl
	mov	eax, DWORD PTR _this$[ebp]
	mov	ecx, DWORD PTR ___that$[ebp]
	mov	dl, BYTE PTR [ecx+130]
	mov	BYTE PTR [eax+130], dl
	mov	eax, DWORD PTR _this$[ebp]
	mov	ecx, DWORD PTR ___that$[ebp]
	mov	edx, DWORD PTR [ecx+132]
	mov	DWORD PTR [eax+132], edx
	mov	DWORD PTR __$EHRec$[ebp+8], -1
	mov	eax, DWORD PTR _this$[ebp]
	mov	ecx, DWORD PTR __$EHRec$[ebp]
	mov	DWORD PTR fs:0, ecx
	pop	ecx
	pop	edi
	pop	esi
	pop	ebx
	add	esp, 216				; 000000d8H
	cmp	ebp, esp
	call	__RTC_CheckEsp
	mov	esp, ebp
	pop	ebp
	ret	4
_TEXT	ENDS
;	COMDAT text$x
text$x	SEGMENT
__unwindfunclet$??0AffixPattern@icu_56@@QAE@ABV01@@Z$0:
	mov	esi, esp
	mov	ecx, DWORD PTR _this$[ebp]
	call	DWORD PTR __imp_??1UnicodeString@icu_56@@UAE@XZ
	cmp	esi, esp
	jmp	__RTC_CheckEsp
__ehhandler$??0AffixPattern@icu_56@@QAE@ABV01@@Z:
	mov	edx, DWORD PTR [esp+8]
	lea	eax, DWORD PTR [edx+12]
	mov	ecx, DWORD PTR [edx-220]
	xor	ecx, eax
	call	@__security_check_cookie@4
	mov	eax, OFFSET __ehfuncinfo$??0AffixPattern@icu_56@@QAE@ABV01@@Z
	jmp	___CxxFrameHandler3
text$x	ENDS
??0AffixPattern@icu_56@@QAE@ABV01@@Z ENDP		; icu_56::AffixPattern::AffixPattern
PUBLIC	??4AffixPattern@icu_56@@QAEAAV01@ABV01@@Z	; icu_56::AffixPattern::operator=
; Function compile flags: /Odtp /RTCsu /ZI
;	COMDAT ??4AffixPattern@icu_56@@QAEAAV01@ABV01@@Z
_TEXT	SEGMENT
_this$ = -8						; size = 4
___that$ = 8						; size = 4
??4AffixPattern@icu_56@@QAEAAV01@ABV01@@Z PROC		; icu_56::AffixPattern::operator=, COMDAT
; _this$ = ecx
	push	ebp
	mov	ebp, esp
	sub	esp, 204				; 000000ccH
	push	ebx
	push	esi
	push	edi
	push	ecx
	lea	edi, DWORD PTR [ebp-204]
	mov	ecx, 51					; 00000033H
	mov	eax, -858993460				; ccccccccH
	rep stosd
	pop	ecx
	mov	DWORD PTR _this$[ebp], ecx
	mov	esi, esp
	mov	eax, DWORD PTR ___that$[ebp]
	push	eax
	mov	ecx, DWORD PTR _this$[ebp]
	call	DWORD PTR __imp_??4UnicodeString@icu_56@@QAEAAV01@ABV01@@Z
	cmp	esi, esp
	call	__RTC_CheckEsp
	mov	eax, DWORD PTR ___that$[ebp]
	add	eax, 64					; 00000040H
	mov	esi, esp
	push	eax
	mov	ecx, DWORD PTR _this$[ebp]
	add	ecx, 64					; 00000040H
	call	DWORD PTR __imp_??4UnicodeString@icu_56@@QAEAAV01@ABV01@@Z
	cmp	esi, esp
	call	__RTC_CheckEsp
	mov	eax, DWORD PTR _this$[ebp]
	mov	ecx, DWORD PTR ___that$[ebp]
	mov	dl, BYTE PTR [ecx+128]
	mov	BYTE PTR [eax+128], dl
	mov	eax, DWORD PTR _this$[ebp]
	mov	ecx, DWORD PTR ___that$[ebp]
	mov	dl, BYTE PTR [ecx+129]
	mov	BYTE PTR [eax+129], dl
	mov	eax, DWORD PTR _this$[ebp]
	mov	ecx, DWORD PTR ___that$[ebp]
	mov	dl, BYTE PTR [ecx+130]
	mov	BYTE PTR [eax+130], dl
	mov	eax, DWORD PTR _this$[ebp]
	mov	ecx, DWORD PTR ___that$[ebp]
	mov	edx, DWORD PTR [ecx+132]
	mov	DWORD PTR [eax+132], edx
	mov	eax, DWORD PTR _this$[ebp]
	pop	edi
	pop	esi
	pop	ebx
	add	esp, 204				; 000000ccH
	cmp	ebp, esp
	call	__RTC_CheckEsp
	mov	esp, ebp
	pop	ebp
	ret	4
??4AffixPattern@icu_56@@QAEAAV01@ABV01@@Z ENDP		; icu_56::AffixPattern::operator=
_TEXT	ENDS
PUBLIC	??0AffixPatternIterator@icu_56@@QAE@XZ		; icu_56::AffixPatternIterator::AffixPatternIterator
; Function compile flags: /Odtp /RTCsu /ZI
;	COMDAT ??0AffixPatternIterator@icu_56@@QAE@XZ
_TEXT	SEGMENT
_this$ = -8						; size = 4
??0AffixPatternIterator@icu_56@@QAE@XZ PROC		; icu_56::AffixPatternIterator::AffixPatternIterator, COMDAT
; _this$ = ecx
; Line 322
	push	ebp
	mov	ebp, esp
	sub	esp, 204				; 000000ccH
	push	ebx
	push	esi
	push	edi
	push	ecx
	lea	edi, DWORD PTR [ebp-204]
	mov	ecx, 51					; 00000033H
	mov	eax, -858993460				; ccccccccH
	rep stosd
	pop	ecx
	mov	DWORD PTR _this$[ebp], ecx
	mov	eax, DWORD PTR _this$[ebp]
	mov	DWORD PTR [eax], 0
	mov	eax, DWORD PTR _this$[ebp]
	mov	DWORD PTR [eax+4], 0
	mov	eax, DWORD PTR _this$[ebp]
	mov	DWORD PTR [eax+8], 0
	mov	eax, DWORD PTR _this$[ebp]
	mov	DWORD PTR [eax+12], 0
	mov	eax, DWORD PTR _this$[ebp]
	mov	DWORD PTR [eax+16], 0
	mov	eax, DWORD PTR _this$[ebp]
	pop	edi
	pop	esi
	pop	ebx
	mov	esp, ebp
	pop	ebp
	ret	0
??0AffixPatternIterator@icu_56@@QAE@XZ ENDP		; icu_56::AffixPatternIterator::AffixPatternIterator
_TEXT	ENDS
PUBLIC	?equals@AffixPatternParser@icu_56@@QBECABV12@@Z	; icu_56::AffixPatternParser::equals
; Function compile flags: /Odtp /RTCsu /ZI
;	COMDAT ?equals@AffixPatternParser@icu_56@@QBECABV12@@Z
_TEXT	SEGMENT
tv90 = -205						; size = 1
_this$ = -8						; size = 4
_other$ = 8						; size = 4
?equals@AffixPatternParser@icu_56@@QBECABV12@@Z PROC	; icu_56::AffixPatternParser::equals, COMDAT
; _this$ = ecx
; Line 383
	push	ebp
	mov	ebp, esp
	sub	esp, 208				; 000000d0H
	push	ebx
	push	esi
	push	edi
	push	ecx
	lea	edi, DWORD PTR [ebp-208]
	mov	ecx, 52					; 00000034H
	mov	eax, -858993460				; ccccccccH
	rep stosd
	pop	ecx
	mov	DWORD PTR _this$[ebp], ecx
; Line 387
	mov	esi, esp
	mov	eax, DWORD PTR _other$[ebp]
	push	eax
	mov	ecx, DWORD PTR _this$[ebp]
	call	DWORD PTR __imp_??8UnicodeString@icu_56@@QBECABV01@@Z
	cmp	esi, esp
	call	__RTC_CheckEsp
	movsx	ecx, al
	test	ecx, ecx
	je	SHORT $LN3@equals@4
	mov	edx, DWORD PTR _other$[ebp]
	add	edx, 64					; 00000040H
	mov	esi, esp
	push	edx
	mov	ecx, DWORD PTR _this$[ebp]
	add	ecx, 64					; 00000040H
	call	DWORD PTR __imp_??8UnicodeString@icu_56@@QBECABV01@@Z
	cmp	esi, esp
	call	__RTC_CheckEsp
	movsx	eax, al
	test	eax, eax
	je	SHORT $LN3@equals@4
	mov	ecx, DWORD PTR _other$[ebp]
	add	ecx, 128				; 00000080H
	mov	esi, esp
	push	ecx
	mov	ecx, DWORD PTR _this$[ebp]
	add	ecx, 128				; 00000080H
	call	DWORD PTR __imp_??8UnicodeString@icu_56@@QBECABV01@@Z
	cmp	esi, esp
	call	__RTC_CheckEsp
	movsx	edx, al
	test	edx, edx
	je	SHORT $LN3@equals@4
	mov	eax, DWORD PTR _other$[ebp]
	add	eax, 192				; 000000c0H
	mov	esi, esp
	push	eax
	mov	ecx, DWORD PTR _this$[ebp]
	add	ecx, 192				; 000000c0H
	call	DWORD PTR __imp_??8UnicodeString@icu_56@@QBECABV01@@Z
	cmp	esi, esp
	call	__RTC_CheckEsp
	movsx	ecx, al
	test	ecx, ecx
	je	SHORT $LN3@equals@4
	mov	BYTE PTR tv90[ebp], 1
	jmp	SHORT $LN4@equals@4
$LN3@equals@4:
	mov	BYTE PTR tv90[ebp], 0
$LN4@equals@4:
	mov	al, BYTE PTR tv90[ebp]
; Line 388
	pop	edi
	pop	esi
	pop	ebx
	add	esp, 208				; 000000d0H
	cmp	ebp, esp
	call	__RTC_CheckEsp
	mov	esp, ebp
	pop	ebp
	ret	4
?equals@AffixPatternParser@icu_56@@QBECABV12@@Z ENDP	; icu_56::AffixPatternParser::equals
_TEXT	ENDS
PUBLIC	??1AffixPatternParser@icu_56@@QAE@XZ		; icu_56::AffixPatternParser::~AffixPatternParser
;	COMDAT xdata$x
xdata$x	SEGMENT
__unwindtable$??1AffixPatternParser@icu_56@@QAE@XZ DD 0ffffffffH
	DD	FLAT:__unwindfunclet$??1AffixPatternParser@icu_56@@QAE@XZ$0
	DD	00H
	DD	FLAT:__unwindfunclet$??1AffixPatternParser@icu_56@@QAE@XZ$1
	DD	01H
	DD	FLAT:__unwindfunclet$??1AffixPatternParser@icu_56@@QAE@XZ$2
__ehfuncinfo$??1AffixPatternParser@icu_56@@QAE@XZ DD 019930522H
	DD	03H
	DD	FLAT:__unwindtable$??1AffixPatternParser@icu_56@@QAE@XZ
	DD	2 DUP(00H)
	DD	2 DUP(00H)
	DD	00H
	DD	01H
; Function compile flags: /Odtp /RTCsu /ZI
xdata$x	ENDS
;	COMDAT ??1AffixPatternParser@icu_56@@QAE@XZ
_TEXT	SEGMENT
_this$ = -20						; size = 4
__$EHRec$ = -12						; size = 12
??1AffixPatternParser@icu_56@@QAE@XZ PROC		; icu_56::AffixPatternParser::~AffixPatternParser, COMDAT
; _this$ = ecx
	push	ebp
	mov	ebp, esp
	push	-1
	push	__ehhandler$??1AffixPatternParser@icu_56@@QAE@XZ
	mov	eax, DWORD PTR fs:0
	push	eax
	sub	esp, 204				; 000000ccH
	push	ebx
	push	esi
	push	edi
	push	ecx
	lea	edi, DWORD PTR [ebp-216]
	mov	ecx, 51					; 00000033H
	mov	eax, -858993460				; ccccccccH
	rep stosd
	pop	ecx
	mov	eax, DWORD PTR ___security_cookie
	xor	eax, ebp
	push	eax
	lea	eax, DWORD PTR __$EHRec$[ebp]
	mov	DWORD PTR fs:0, eax
	mov	DWORD PTR _this$[ebp], ecx
	mov	DWORD PTR __$EHRec$[ebp+8], 2
	mov	ecx, DWORD PTR _this$[ebp]
	add	ecx, 192				; 000000c0H
	mov	esi, esp
	call	DWORD PTR __imp_??1UnicodeString@icu_56@@UAE@XZ
	cmp	esi, esp
	call	__RTC_CheckEsp
	mov	BYTE PTR __$EHRec$[ebp+8], 1
	mov	ecx, DWORD PTR _this$[ebp]
	add	ecx, 128				; 00000080H
	mov	esi, esp
	call	DWORD PTR __imp_??1UnicodeString@icu_56@@UAE@XZ
	cmp	esi, esp
	call	__RTC_CheckEsp
	mov	BYTE PTR __$EHRec$[ebp+8], 0
	mov	ecx, DWORD PTR _this$[ebp]
	add	ecx, 64					; 00000040H
	mov	esi, esp
	call	DWORD PTR __imp_??1UnicodeString@icu_56@@UAE@XZ
	cmp	esi, esp
	call	__RTC_CheckEsp
	mov	DWORD PTR __$EHRec$[ebp+8], -1
	mov	esi, esp
	mov	ecx, DWORD PTR _this$[ebp]
	call	DWORD PTR __imp_??1UnicodeString@icu_56@@UAE@XZ
	cmp	esi, esp
	call	__RTC_CheckEsp
	mov	ecx, DWORD PTR __$EHRec$[ebp]
	mov	DWORD PTR fs:0, ecx
	pop	ecx
	pop	edi
	pop	esi
	pop	ebx
	add	esp, 216				; 000000d8H
	cmp	ebp, esp
	call	__RTC_CheckEsp
	mov	esp, ebp
	pop	ebp
	ret	0
_TEXT	ENDS
;	COMDAT text$x
text$x	SEGMENT
__unwindfunclet$??1AffixPatternParser@icu_56@@QAE@XZ$0:
	mov	esi, esp
	mov	ecx, DWORD PTR _this$[ebp]
	call	DWORD PTR __imp_??1UnicodeString@icu_56@@UAE@XZ
	cmp	esi, esp
	jmp	__RTC_CheckEsp
__unwindfunclet$??1AffixPatternParser@icu_56@@QAE@XZ$1:
	mov	ecx, DWORD PTR _this$[ebp]
	add	ecx, 64					; 00000040H
	mov	esi, esp
	call	DWORD PTR __imp_??1UnicodeString@icu_56@@UAE@XZ
	cmp	esi, esp
	jmp	__RTC_CheckEsp
__unwindfunclet$??1AffixPatternParser@icu_56@@QAE@XZ$2:
	mov	ecx, DWORD PTR _this$[ebp]
	add	ecx, 128				; 00000080H
	mov	esi, esp
	call	DWORD PTR __imp_??1UnicodeString@icu_56@@UAE@XZ
	cmp	esi, esp
	jmp	__RTC_CheckEsp
__ehhandler$??1AffixPatternParser@icu_56@@QAE@XZ:
	mov	edx, DWORD PTR [esp+8]
	lea	eax, DWORD PTR [edx+12]
	mov	ecx, DWORD PTR [edx-220]
	xor	ecx, eax
	call	@__security_check_cookie@4
	mov	eax, OFFSET __ehfuncinfo$??1AffixPatternParser@icu_56@@QAE@XZ
	jmp	___CxxFrameHandler3
text$x	ENDS
??1AffixPatternParser@icu_56@@QAE@XZ ENDP		; icu_56::AffixPatternParser::~AffixPatternParser
PUBLIC	??0AffixPatternParser@icu_56@@QAE@ABV01@@Z	; icu_56::AffixPatternParser::AffixPatternParser
;	COMDAT xdata$x
xdata$x	SEGMENT
__unwindtable$??0AffixPatternParser@icu_56@@QAE@ABV01@@Z DD 0ffffffffH
	DD	FLAT:__unwindfunclet$??0AffixPatternParser@icu_56@@QAE@ABV01@@Z$0
	DD	00H
	DD	FLAT:__unwindfunclet$??0AffixPatternParser@icu_56@@QAE@ABV01@@Z$1
	DD	01H
	DD	FLAT:__unwindfunclet$??0AffixPatternParser@icu_56@@QAE@ABV01@@Z$2
__ehfuncinfo$??0AffixPatternParser@icu_56@@QAE@ABV01@@Z DD 019930522H
	DD	03H
	DD	FLAT:__unwindtable$??0AffixPatternParser@icu_56@@QAE@ABV01@@Z
	DD	2 DUP(00H)
	DD	2 DUP(00H)
	DD	00H
	DD	01H
; Function compile flags: /Odtp /RTCsu /ZI
xdata$x	ENDS
;	COMDAT ??0AffixPatternParser@icu_56@@QAE@ABV01@@Z
_TEXT	SEGMENT
_this$ = -20						; size = 4
__$EHRec$ = -12						; size = 12
___that$ = 8						; size = 4
??0AffixPatternParser@icu_56@@QAE@ABV01@@Z PROC		; icu_56::AffixPatternParser::AffixPatternParser, COMDAT
; _this$ = ecx
	push	ebp
	mov	ebp, esp
	push	-1
	push	__ehhandler$??0AffixPatternParser@icu_56@@QAE@ABV01@@Z
	mov	eax, DWORD PTR fs:0
	push	eax
	sub	esp, 204				; 000000ccH
	push	ebx
	push	esi
	push	edi
	push	ecx
	lea	edi, DWORD PTR [ebp-216]
	mov	ecx, 51					; 00000033H
	mov	eax, -858993460				; ccccccccH
	rep stosd
	pop	ecx
	mov	eax, DWORD PTR ___security_cookie
	xor	eax, ebp
	push	eax
	lea	eax, DWORD PTR __$EHRec$[ebp]
	mov	DWORD PTR fs:0, eax
	mov	DWORD PTR _this$[ebp], ecx
	mov	esi, esp
	mov	eax, DWORD PTR ___that$[ebp]
	push	eax
	mov	ecx, DWORD PTR _this$[ebp]
	call	DWORD PTR __imp_??0UnicodeString@icu_56@@QAE@ABV01@@Z
	cmp	esi, esp
	call	__RTC_CheckEsp
	mov	DWORD PTR __$EHRec$[ebp+8], 0
	mov	eax, DWORD PTR ___that$[ebp]
	add	eax, 64					; 00000040H
	mov	esi, esp
	push	eax
	mov	ecx, DWORD PTR _this$[ebp]
	add	ecx, 64					; 00000040H
	call	DWORD PTR __imp_??0UnicodeString@icu_56@@QAE@ABV01@@Z
	cmp	esi, esp
	call	__RTC_CheckEsp
	mov	BYTE PTR __$EHRec$[ebp+8], 1
	mov	eax, DWORD PTR ___that$[ebp]
	add	eax, 128				; 00000080H
	mov	esi, esp
	push	eax
	mov	ecx, DWORD PTR _this$[ebp]
	add	ecx, 128				; 00000080H
	call	DWORD PTR __imp_??0UnicodeString@icu_56@@QAE@ABV01@@Z
	cmp	esi, esp
	call	__RTC_CheckEsp
	mov	BYTE PTR __$EHRec$[ebp+8], 2
	mov	eax, DWORD PTR ___that$[ebp]
	add	eax, 192				; 000000c0H
	mov	esi, esp
	push	eax
	mov	ecx, DWORD PTR _this$[ebp]
	add	ecx, 192				; 000000c0H
	call	DWORD PTR __imp_??0UnicodeString@icu_56@@QAE@ABV01@@Z
	cmp	esi, esp
	call	__RTC_CheckEsp
	mov	DWORD PTR __$EHRec$[ebp+8], -1
	mov	eax, DWORD PTR _this$[ebp]
	mov	ecx, DWORD PTR __$EHRec$[ebp]
	mov	DWORD PTR fs:0, ecx
	pop	ecx
	pop	edi
	pop	esi
	pop	ebx
	add	esp, 216				; 000000d8H
	cmp	ebp, esp
	call	__RTC_CheckEsp
	mov	esp, ebp
	pop	ebp
	ret	4
_TEXT	ENDS
;	COMDAT text$x
text$x	SEGMENT
__unwindfunclet$??0AffixPatternParser@icu_56@@QAE@ABV01@@Z$0:
	mov	esi, esp
	mov	ecx, DWORD PTR _this$[ebp]
	call	DWORD PTR __imp_??1UnicodeString@icu_56@@UAE@XZ
	cmp	esi, esp
	jmp	__RTC_CheckEsp
__unwindfunclet$??0AffixPatternParser@icu_56@@QAE@ABV01@@Z$1:
	mov	ecx, DWORD PTR _this$[ebp]
	add	ecx, 64					; 00000040H
	mov	esi, esp
	call	DWORD PTR __imp_??1UnicodeString@icu_56@@UAE@XZ
	cmp	esi, esp
	jmp	__RTC_CheckEsp
__unwindfunclet$??0AffixPatternParser@icu_56@@QAE@ABV01@@Z$2:
	mov	ecx, DWORD PTR _this$[ebp]
	add	ecx, 128				; 00000080H
	mov	esi, esp
	call	DWORD PTR __imp_??1UnicodeString@icu_56@@UAE@XZ
	cmp	esi, esp
	jmp	__RTC_CheckEsp
__ehhandler$??0AffixPatternParser@icu_56@@QAE@ABV01@@Z:
	mov	edx, DWORD PTR [esp+8]
	lea	eax, DWORD PTR [edx+12]
	mov	ecx, DWORD PTR [edx-220]
	xor	ecx, eax
	call	@__security_check_cookie@4
	mov	eax, OFFSET __ehfuncinfo$??0AffixPatternParser@icu_56@@QAE@ABV01@@Z
	jmp	___CxxFrameHandler3
text$x	ENDS
??0AffixPatternParser@icu_56@@QAE@ABV01@@Z ENDP		; icu_56::AffixPatternParser::AffixPatternParser
PUBLIC	??4AffixPatternParser@icu_56@@QAEAAV01@ABV01@@Z	; icu_56::AffixPatternParser::operator=
; Function compile flags: /Odtp /RTCsu /ZI
;	COMDAT ??4AffixPatternParser@icu_56@@QAEAAV01@ABV01@@Z
_TEXT	SEGMENT
_this$ = -8						; size = 4
___that$ = 8						; size = 4
??4AffixPatternParser@icu_56@@QAEAAV01@ABV01@@Z PROC	; icu_56::AffixPatternParser::operator=, COMDAT
; _this$ = ecx
	push	ebp
	mov	ebp, esp
	sub	esp, 204				; 000000ccH
	push	ebx
	push	esi
	push	edi
	push	ecx
	lea	edi, DWORD PTR [ebp-204]
	mov	ecx, 51					; 00000033H
	mov	eax, -858993460				; ccccccccH
	rep stosd
	pop	ecx
	mov	DWORD PTR _this$[ebp], ecx
	mov	esi, esp
	mov	eax, DWORD PTR ___that$[ebp]
	push	eax
	mov	ecx, DWORD PTR _this$[ebp]
	call	DWORD PTR __imp_??4UnicodeString@icu_56@@QAEAAV01@ABV01@@Z
	cmp	esi, esp
	call	__RTC_CheckEsp
	mov	eax, DWORD PTR ___that$[ebp]
	add	eax, 64					; 00000040H
	mov	esi, esp
	push	eax
	mov	ecx, DWORD PTR _this$[ebp]
	add	ecx, 64					; 00000040H
	call	DWORD PTR __imp_??4UnicodeString@icu_56@@QAEAAV01@ABV01@@Z
	cmp	esi, esp
	call	__RTC_CheckEsp
	mov	eax, DWORD PTR ___that$[ebp]
	add	eax, 128				; 00000080H
	mov	esi, esp
	push	eax
	mov	ecx, DWORD PTR _this$[ebp]
	add	ecx, 128				; 00000080H
	call	DWORD PTR __imp_??4UnicodeString@icu_56@@QAEAAV01@ABV01@@Z
	cmp	esi, esp
	call	__RTC_CheckEsp
	mov	eax, DWORD PTR ___that$[ebp]
	add	eax, 192				; 000000c0H
	mov	esi, esp
	push	eax
	mov	ecx, DWORD PTR _this$[ebp]
	add	ecx, 192				; 000000c0H
	call	DWORD PTR __imp_??4UnicodeString@icu_56@@QAEAAV01@ABV01@@Z
	cmp	esi, esp
	call	__RTC_CheckEsp
	mov	eax, DWORD PTR _this$[ebp]
	pop	edi
	pop	esi
	pop	ebx
	add	esp, 204				; 000000ccH
	cmp	ebp, esp
	call	__RTC_CheckEsp
	mov	esp, ebp
	pop	ebp
	ret	4
??4AffixPatternParser@icu_56@@QAEAAV01@ABV01@@Z ENDP	; icu_56::AffixPatternParser::operator=
_TEXT	ENDS
PUBLIC	??0DigitAffixesAndPadding@icu_56@@QAE@XZ	; icu_56::DigitAffixesAndPadding::DigitAffixesAndPadding
;	COMDAT xdata$x
; File d:\mozilla\intl\icu\source\i18n\digitaffixesandpadding.h
xdata$x	SEGMENT
__unwindtable$??0DigitAffixesAndPadding@icu_56@@QAE@XZ DD 0ffffffffH
	DD	FLAT:__unwindfunclet$??0DigitAffixesAndPadding@icu_56@@QAE@XZ$0
	DD	00H
	DD	FLAT:__unwindfunclet$??0DigitAffixesAndPadding@icu_56@@QAE@XZ$1
	DD	01H
	DD	FLAT:__unwindfunclet$??0DigitAffixesAndPadding@icu_56@@QAE@XZ$2
__ehfuncinfo$??0DigitAffixesAndPadding@icu_56@@QAE@XZ DD 019930522H
	DD	03H
	DD	FLAT:__unwindtable$??0DigitAffixesAndPadding@icu_56@@QAE@XZ
	DD	2 DUP(00H)
	DD	2 DUP(00H)
	DD	00H
	DD	01H
; Function compile flags: /Odtp /RTCsu /ZI
xdata$x	ENDS
;	COMDAT ??0DigitAffixesAndPadding@icu_56@@QAE@XZ
_TEXT	SEGMENT
_this$ = -20						; size = 4
__$EHRec$ = -12						; size = 12
??0DigitAffixesAndPadding@icu_56@@QAE@XZ PROC		; icu_56::DigitAffixesAndPadding::DigitAffixesAndPadding, COMDAT
; _this$ = ecx
; Line 95
	push	ebp
	mov	ebp, esp
	push	-1
	push	__ehhandler$??0DigitAffixesAndPadding@icu_56@@QAE@XZ
	mov	eax, DWORD PTR fs:0
	push	eax
	sub	esp, 204				; 000000ccH
	push	ebx
	push	esi
	push	edi
	push	ecx
	lea	edi, DWORD PTR [ebp-216]
	mov	ecx, 51					; 00000033H
	mov	eax, -858993460				; ccccccccH
	rep stosd
	pop	ecx
	mov	eax, DWORD PTR ___security_cookie
	xor	eax, ebp
	push	eax
	lea	eax, DWORD PTR __$EHRec$[ebp]
	mov	DWORD PTR fs:0, eax
	mov	DWORD PTR _this$[ebp], ecx
	mov	ecx, DWORD PTR _this$[ebp]
	call	??0PluralAffix@icu_56@@QAE@XZ		; icu_56::PluralAffix::PluralAffix
	mov	DWORD PTR __$EHRec$[ebp+8], 0
	mov	ecx, DWORD PTR _this$[ebp]
	add	ecx, 152				; 00000098H
	call	??0PluralAffix@icu_56@@QAE@XZ		; icu_56::PluralAffix::PluralAffix
	mov	BYTE PTR __$EHRec$[ebp+8], 1
	mov	ecx, DWORD PTR _this$[ebp]
	add	ecx, 304				; 00000130H
	call	??0PluralAffix@icu_56@@QAE@XZ		; icu_56::PluralAffix::PluralAffix
	mov	BYTE PTR __$EHRec$[ebp+8], 2
	mov	ecx, DWORD PTR _this$[ebp]
	add	ecx, 456				; 000001c8H
	call	??0PluralAffix@icu_56@@QAE@XZ		; icu_56::PluralAffix::PluralAffix
	mov	eax, DWORD PTR _this$[ebp]
	mov	DWORD PTR [eax+608], 0
	mov	eax, DWORD PTR _this$[ebp]
	mov	DWORD PTR [eax+612], 42			; 0000002aH
	mov	eax, DWORD PTR _this$[ebp]
	mov	DWORD PTR [eax+616], 0
	mov	DWORD PTR __$EHRec$[ebp+8], -1
	mov	eax, DWORD PTR _this$[ebp]
	mov	ecx, DWORD PTR __$EHRec$[ebp]
	mov	DWORD PTR fs:0, ecx
	pop	ecx
	pop	edi
	pop	esi
	pop	ebx
	add	esp, 216				; 000000d8H
	cmp	ebp, esp
	call	__RTC_CheckEsp
	mov	esp, ebp
	pop	ebp
	ret	0
_TEXT	ENDS
;	COMDAT text$x
text$x	SEGMENT
__unwindfunclet$??0DigitAffixesAndPadding@icu_56@@QAE@XZ$0:
	mov	ecx, DWORD PTR _this$[ebp]
	jmp	??1PluralAffix@icu_56@@QAE@XZ
__unwindfunclet$??0DigitAffixesAndPadding@icu_56@@QAE@XZ$1:
	mov	ecx, DWORD PTR _this$[ebp]
	add	ecx, 152				; 00000098H
	jmp	??1PluralAffix@icu_56@@QAE@XZ
__unwindfunclet$??0DigitAffixesAndPadding@icu_56@@QAE@XZ$2:
	mov	ecx, DWORD PTR _this$[ebp]
	add	ecx, 304				; 00000130H
	jmp	??1PluralAffix@icu_56@@QAE@XZ
__ehhandler$??0DigitAffixesAndPadding@icu_56@@QAE@XZ:
	mov	edx, DWORD PTR [esp+8]
	lea	eax, DWORD PTR [edx+12]
	mov	ecx, DWORD PTR [edx-220]
	xor	ecx, eax
	call	@__security_check_cookie@4
	mov	eax, OFFSET __ehfuncinfo$??0DigitAffixesAndPadding@icu_56@@QAE@XZ
	jmp	___CxxFrameHandler3
text$x	ENDS
??0DigitAffixesAndPadding@icu_56@@QAE@XZ ENDP		; icu_56::DigitAffixesAndPadding::DigitAffixesAndPadding
PUBLIC	?equals@DigitAffixesAndPadding@icu_56@@QBECABV12@@Z ; icu_56::DigitAffixesAndPadding::equals
; Function compile flags: /Odtp /RTCsu /ZI
;	COMDAT ?equals@DigitAffixesAndPadding@icu_56@@QBECABV12@@Z
_TEXT	SEGMENT
tv131 = -205						; size = 1
_this$ = -8						; size = 4
_rhs$ = 8						; size = 4
?equals@DigitAffixesAndPadding@icu_56@@QBECABV12@@Z PROC ; icu_56::DigitAffixesAndPadding::equals, COMDAT
; _this$ = ecx
; Line 101
	push	ebp
	mov	ebp, esp
	sub	esp, 208				; 000000d0H
	push	ebx
	push	esi
	push	edi
	push	ecx
	lea	edi, DWORD PTR [ebp-208]
	mov	ecx, 52					; 00000034H
	mov	eax, -858993460				; ccccccccH
	rep stosd
	pop	ecx
	mov	DWORD PTR _this$[ebp], ecx
; Line 108
	mov	eax, DWORD PTR _rhs$[ebp]
	push	eax
	mov	ecx, DWORD PTR _this$[ebp]
	call	?equals@PluralAffix@icu_56@@QBECABV12@@Z ; icu_56::PluralAffix::equals
	movsx	ecx, al
	test	ecx, ecx
	je	$LN3@equals@5
	mov	edx, DWORD PTR _rhs$[ebp]
	add	edx, 152				; 00000098H
	push	edx
	mov	ecx, DWORD PTR _this$[ebp]
	add	ecx, 152				; 00000098H
	call	?equals@PluralAffix@icu_56@@QBECABV12@@Z ; icu_56::PluralAffix::equals
	movsx	eax, al
	test	eax, eax
	je	$LN3@equals@5
	mov	ecx, DWORD PTR _rhs$[ebp]
	add	ecx, 304				; 00000130H
	push	ecx
	mov	ecx, DWORD PTR _this$[ebp]
	add	ecx, 304				; 00000130H
	call	?equals@PluralAffix@icu_56@@QBECABV12@@Z ; icu_56::PluralAffix::equals
	movsx	edx, al
	test	edx, edx
	je	SHORT $LN3@equals@5
	mov	eax, DWORD PTR _rhs$[ebp]
	add	eax, 456				; 000001c8H
	push	eax
	mov	ecx, DWORD PTR _this$[ebp]
	add	ecx, 456				; 000001c8H
	call	?equals@PluralAffix@icu_56@@QBECABV12@@Z ; icu_56::PluralAffix::equals
	movsx	ecx, al
	test	ecx, ecx
	je	SHORT $LN3@equals@5
	mov	edx, DWORD PTR _this$[ebp]
	mov	eax, DWORD PTR _rhs$[ebp]
	mov	ecx, DWORD PTR [edx+608]
	cmp	ecx, DWORD PTR [eax+608]
	jne	SHORT $LN3@equals@5
	mov	edx, DWORD PTR _this$[ebp]
	mov	eax, DWORD PTR _rhs$[ebp]
	mov	ecx, DWORD PTR [edx+616]
	cmp	ecx, DWORD PTR [eax+616]
	jne	SHORT $LN3@equals@5
	mov	edx, DWORD PTR _this$[ebp]
	mov	eax, DWORD PTR _rhs$[ebp]
	mov	ecx, DWORD PTR [edx+612]
	cmp	ecx, DWORD PTR [eax+612]
	jne	SHORT $LN3@equals@5
	mov	BYTE PTR tv131[ebp], 1
	jmp	SHORT $LN4@equals@5
$LN3@equals@5:
	mov	BYTE PTR tv131[ebp], 0
$LN4@equals@5:
	mov	al, BYTE PTR tv131[ebp]
; Line 109
	pop	edi
	pop	esi
	pop	ebx
	add	esp, 208				; 000000d0H
	cmp	ebp, esp
	call	__RTC_CheckEsp
	mov	esp, ebp
	pop	ebp
	ret	4
?equals@DigitAffixesAndPadding@icu_56@@QBECABV12@@Z ENDP ; icu_56::DigitAffixesAndPadding::equals
_TEXT	ENDS
PUBLIC	??1DigitAffixesAndPadding@icu_56@@QAE@XZ	; icu_56::DigitAffixesAndPadding::~DigitAffixesAndPadding
;	COMDAT xdata$x
xdata$x	SEGMENT
__unwindtable$??1DigitAffixesAndPadding@icu_56@@QAE@XZ DD 0ffffffffH
	DD	FLAT:__unwindfunclet$??1DigitAffixesAndPadding@icu_56@@QAE@XZ$0
	DD	00H
	DD	FLAT:__unwindfunclet$??1DigitAffixesAndPadding@icu_56@@QAE@XZ$1
	DD	01H
	DD	FLAT:__unwindfunclet$??1DigitAffixesAndPadding@icu_56@@QAE@XZ$2
__ehfuncinfo$??1DigitAffixesAndPadding@icu_56@@QAE@XZ DD 019930522H
	DD	03H
	DD	FLAT:__unwindtable$??1DigitAffixesAndPadding@icu_56@@QAE@XZ
	DD	2 DUP(00H)
	DD	2 DUP(00H)
	DD	00H
	DD	01H
; Function compile flags: /Odtp /RTCsu /ZI
xdata$x	ENDS
;	COMDAT ??1DigitAffixesAndPadding@icu_56@@QAE@XZ
_TEXT	SEGMENT
_this$ = -20						; size = 4
__$EHRec$ = -12						; size = 12
??1DigitAffixesAndPadding@icu_56@@QAE@XZ PROC		; icu_56::DigitAffixesAndPadding::~DigitAffixesAndPadding, COMDAT
; _this$ = ecx
	push	ebp
	mov	ebp, esp
	push	-1
	push	__ehhandler$??1DigitAffixesAndPadding@icu_56@@QAE@XZ
	mov	eax, DWORD PTR fs:0
	push	eax
	sub	esp, 204				; 000000ccH
	push	ebx
	push	esi
	push	edi
	push	ecx
	lea	edi, DWORD PTR [ebp-216]
	mov	ecx, 51					; 00000033H
	mov	eax, -858993460				; ccccccccH
	rep stosd
	pop	ecx
	mov	eax, DWORD PTR ___security_cookie
	xor	eax, ebp
	push	eax
	lea	eax, DWORD PTR __$EHRec$[ebp]
	mov	DWORD PTR fs:0, eax
	mov	DWORD PTR _this$[ebp], ecx
	mov	DWORD PTR __$EHRec$[ebp+8], 2
	mov	ecx, DWORD PTR _this$[ebp]
	add	ecx, 456				; 000001c8H
	call	??1PluralAffix@icu_56@@QAE@XZ
	mov	BYTE PTR __$EHRec$[ebp+8], 1
	mov	ecx, DWORD PTR _this$[ebp]
	add	ecx, 304				; 00000130H
	call	??1PluralAffix@icu_56@@QAE@XZ
	mov	BYTE PTR __$EHRec$[ebp+8], 0
	mov	ecx, DWORD PTR _this$[ebp]
	add	ecx, 152				; 00000098H
	call	??1PluralAffix@icu_56@@QAE@XZ
	mov	DWORD PTR __$EHRec$[ebp+8], -1
	mov	ecx, DWORD PTR _this$[ebp]
	call	??1PluralAffix@icu_56@@QAE@XZ
	mov	ecx, DWORD PTR __$EHRec$[ebp]
	mov	DWORD PTR fs:0, ecx
	pop	ecx
	pop	edi
	pop	esi
	pop	ebx
	add	esp, 216				; 000000d8H
	cmp	ebp, esp
	call	__RTC_CheckEsp
	mov	esp, ebp
	pop	ebp
	ret	0
_TEXT	ENDS
;	COMDAT text$x
text$x	SEGMENT
__unwindfunclet$??1DigitAffixesAndPadding@icu_56@@QAE@XZ$0:
	mov	ecx, DWORD PTR _this$[ebp]
	jmp	??1PluralAffix@icu_56@@QAE@XZ
__unwindfunclet$??1DigitAffixesAndPadding@icu_56@@QAE@XZ$1:
	mov	ecx, DWORD PTR _this$[ebp]
	add	ecx, 152				; 00000098H
	jmp	??1PluralAffix@icu_56@@QAE@XZ
__unwindfunclet$??1DigitAffixesAndPadding@icu_56@@QAE@XZ$2:
	mov	ecx, DWORD PTR _this$[ebp]
	add	ecx, 304				; 00000130H
	jmp	??1PluralAffix@icu_56@@QAE@XZ
__ehhandler$??1DigitAffixesAndPadding@icu_56@@QAE@XZ:
	mov	edx, DWORD PTR [esp+8]
	lea	eax, DWORD PTR [edx+12]
	mov	ecx, DWORD PTR [edx-220]
	xor	ecx, eax
	call	@__security_check_cookie@4
	mov	eax, OFFSET __ehfuncinfo$??1DigitAffixesAndPadding@icu_56@@QAE@XZ
	jmp	___CxxFrameHandler3
text$x	ENDS
??1DigitAffixesAndPadding@icu_56@@QAE@XZ ENDP		; icu_56::DigitAffixesAndPadding::~DigitAffixesAndPadding
PUBLIC	??0DigitAffixesAndPadding@icu_56@@QAE@ABV01@@Z	; icu_56::DigitAffixesAndPadding::DigitAffixesAndPadding
;	COMDAT xdata$x
xdata$x	SEGMENT
__unwindtable$??0DigitAffixesAndPadding@icu_56@@QAE@ABV01@@Z DD 0ffffffffH
	DD	FLAT:__unwindfunclet$??0DigitAffixesAndPadding@icu_56@@QAE@ABV01@@Z$0
	DD	00H
	DD	FLAT:__unwindfunclet$??0DigitAffixesAndPadding@icu_56@@QAE@ABV01@@Z$1
	DD	01H
	DD	FLAT:__unwindfunclet$??0DigitAffixesAndPadding@icu_56@@QAE@ABV01@@Z$2
__ehfuncinfo$??0DigitAffixesAndPadding@icu_56@@QAE@ABV01@@Z DD 019930522H
	DD	03H
	DD	FLAT:__unwindtable$??0DigitAffixesAndPadding@icu_56@@QAE@ABV01@@Z
	DD	2 DUP(00H)
	DD	2 DUP(00H)
	DD	00H
	DD	01H
; Function compile flags: /Odtp /RTCsu /ZI
xdata$x	ENDS
;	COMDAT ??0DigitAffixesAndPadding@icu_56@@QAE@ABV01@@Z
_TEXT	SEGMENT
_this$ = -20						; size = 4
__$EHRec$ = -12						; size = 12
___that$ = 8						; size = 4
??0DigitAffixesAndPadding@icu_56@@QAE@ABV01@@Z PROC	; icu_56::DigitAffixesAndPadding::DigitAffixesAndPadding, COMDAT
; _this$ = ecx
	push	ebp
	mov	ebp, esp
	push	-1
	push	__ehhandler$??0DigitAffixesAndPadding@icu_56@@QAE@ABV01@@Z
	mov	eax, DWORD PTR fs:0
	push	eax
	sub	esp, 204				; 000000ccH
	push	ebx
	push	esi
	push	edi
	push	ecx
	lea	edi, DWORD PTR [ebp-216]
	mov	ecx, 51					; 00000033H
	mov	eax, -858993460				; ccccccccH
	rep stosd
	pop	ecx
	mov	eax, DWORD PTR ___security_cookie
	xor	eax, ebp
	push	eax
	lea	eax, DWORD PTR __$EHRec$[ebp]
	mov	DWORD PTR fs:0, eax
	mov	DWORD PTR _this$[ebp], ecx
	mov	eax, DWORD PTR ___that$[ebp]
	push	eax
	mov	ecx, DWORD PTR _this$[ebp]
	call	??0PluralAffix@icu_56@@QAE@ABV01@@Z
	mov	DWORD PTR __$EHRec$[ebp+8], 0
	mov	eax, DWORD PTR ___that$[ebp]
	add	eax, 152				; 00000098H
	push	eax
	mov	ecx, DWORD PTR _this$[ebp]
	add	ecx, 152				; 00000098H
	call	??0PluralAffix@icu_56@@QAE@ABV01@@Z
	mov	BYTE PTR __$EHRec$[ebp+8], 1
	mov	eax, DWORD PTR ___that$[ebp]
	add	eax, 304				; 00000130H
	push	eax
	mov	ecx, DWORD PTR _this$[ebp]
	add	ecx, 304				; 00000130H
	call	??0PluralAffix@icu_56@@QAE@ABV01@@Z
	mov	BYTE PTR __$EHRec$[ebp+8], 2
	mov	eax, DWORD PTR ___that$[ebp]
	add	eax, 456				; 000001c8H
	push	eax
	mov	ecx, DWORD PTR _this$[ebp]
	add	ecx, 456				; 000001c8H
	call	??0PluralAffix@icu_56@@QAE@ABV01@@Z
	mov	eax, DWORD PTR _this$[ebp]
	mov	ecx, DWORD PTR ___that$[ebp]
	mov	edx, DWORD PTR [ecx+608]
	mov	DWORD PTR [eax+608], edx
	mov	eax, DWORD PTR _this$[ebp]
	mov	ecx, DWORD PTR ___that$[ebp]
	mov	edx, DWORD PTR [ecx+612]
	mov	DWORD PTR [eax+612], edx
	mov	eax, DWORD PTR _this$[ebp]
	mov	ecx, DWORD PTR ___that$[ebp]
	mov	edx, DWORD PTR [ecx+616]
	mov	DWORD PTR [eax+616], edx
	mov	DWORD PTR __$EHRec$[ebp+8], -1
	mov	eax, DWORD PTR _this$[ebp]
	mov	ecx, DWORD PTR __$EHRec$[ebp]
	mov	DWORD PTR fs:0, ecx
	pop	ecx
	pop	edi
	pop	esi
	pop	ebx
	add	esp, 216				; 000000d8H
	cmp	ebp, esp
	call	__RTC_CheckEsp
	mov	esp, ebp
	pop	ebp
	ret	4
_TEXT	ENDS
;	COMDAT text$x
text$x	SEGMENT
__unwindfunclet$??0DigitAffixesAndPadding@icu_56@@QAE@ABV01@@Z$0:
	mov	ecx, DWORD PTR _this$[ebp]
	jmp	??1PluralAffix@icu_56@@QAE@XZ
__unwindfunclet$??0DigitAffixesAndPadding@icu_56@@QAE@ABV01@@Z$1:
	mov	ecx, DWORD PTR _this$[ebp]
	add	ecx, 152				; 00000098H
	jmp	??1PluralAffix@icu_56@@QAE@XZ
__unwindfunclet$??0DigitAffixesAndPadding@icu_56@@QAE@ABV01@@Z$2:
	mov	ecx, DWORD PTR _this$[ebp]
	add	ecx, 304				; 00000130H
	jmp	??1PluralAffix@icu_56@@QAE@XZ
__ehhandler$??0DigitAffixesAndPadding@icu_56@@QAE@ABV01@@Z:
	mov	edx, DWORD PTR [esp+8]
	lea	eax, DWORD PTR [edx+12]
	mov	ecx, DWORD PTR [edx-220]
	xor	ecx, eax
	call	@__security_check_cookie@4
	mov	eax, OFFSET __ehfuncinfo$??0DigitAffixesAndPadding@icu_56@@QAE@ABV01@@Z
	jmp	___CxxFrameHandler3
text$x	ENDS
??0DigitAffixesAndPadding@icu_56@@QAE@ABV01@@Z ENDP	; icu_56::DigitAffixesAndPadding::DigitAffixesAndPadding
PUBLIC	??4DigitAffixesAndPadding@icu_56@@QAEAAV01@ABV01@@Z ; icu_56::DigitAffixesAndPadding::operator=
; Function compile flags: /Odtp /RTCsu /ZI
;	COMDAT ??4DigitAffixesAndPadding@icu_56@@QAEAAV01@ABV01@@Z
_TEXT	SEGMENT
_this$ = -8						; size = 4
___that$ = 8						; size = 4
??4DigitAffixesAndPadding@icu_56@@QAEAAV01@ABV01@@Z PROC ; icu_56::DigitAffixesAndPadding::operator=, COMDAT
; _this$ = ecx
	push	ebp
	mov	ebp, esp
	sub	esp, 204				; 000000ccH
	push	ebx
	push	esi
	push	edi
	push	ecx
	lea	edi, DWORD PTR [ebp-204]
	mov	ecx, 51					; 00000033H
	mov	eax, -858993460				; ccccccccH
	rep stosd
	pop	ecx
	mov	DWORD PTR _this$[ebp], ecx
	mov	eax, DWORD PTR ___that$[ebp]
	push	eax
	mov	ecx, DWORD PTR _this$[ebp]
	call	??4PluralAffix@icu_56@@QAEAAV01@ABV01@@Z
	mov	eax, DWORD PTR ___that$[ebp]
	add	eax, 152				; 00000098H
	push	eax
	mov	ecx, DWORD PTR _this$[ebp]
	add	ecx, 152				; 00000098H
	call	??4PluralAffix@icu_56@@QAEAAV01@ABV01@@Z
	mov	eax, DWORD PTR ___that$[ebp]
	add	eax, 304				; 00000130H
	push	eax
	mov	ecx, DWORD PTR _this$[ebp]
	add	ecx, 304				; 00000130H
	call	??4PluralAffix@icu_56@@QAEAAV01@ABV01@@Z
	mov	eax, DWORD PTR ___that$[ebp]
	add	eax, 456				; 000001c8H
	push	eax
	mov	ecx, DWORD PTR _this$[ebp]
	add	ecx, 456				; 000001c8H
	call	??4PluralAffix@icu_56@@QAEAAV01@ABV01@@Z
	mov	eax, DWORD PTR _this$[ebp]
	mov	ecx, DWORD PTR ___that$[ebp]
	mov	edx, DWORD PTR [ecx+608]
	mov	DWORD PTR [eax+608], edx
	mov	eax, DWORD PTR _this$[ebp]
	mov	ecx, DWORD PTR ___that$[ebp]
	mov	edx, DWORD PTR [ecx+612]
	mov	DWORD PTR [eax+612], edx
	mov	eax, DWORD PTR _this$[ebp]
	mov	ecx, DWORD PTR ___that$[ebp]
	mov	edx, DWORD PTR [ecx+616]
	mov	DWORD PTR [eax+616], edx
	mov	eax, DWORD PTR _this$[ebp]
	pop	edi
	pop	esi
	pop	ebx
	add	esp, 204				; 000000ccH
	cmp	ebp, esp
	call	__RTC_CheckEsp
	mov	esp, ebp
	pop	ebp
	ret	4
??4DigitAffixesAndPadding@icu_56@@QAEAAV01@ABV01@@Z ENDP ; icu_56::DigitAffixesAndPadding::operator=
_TEXT	ENDS
PUBLIC	??0DigitFormatterOptions@icu_56@@QAE@XZ		; icu_56::DigitFormatterOptions::DigitFormatterOptions
; Function compile flags: /Odtp /RTCsu /ZI
;	COMDAT ??0DigitFormatterOptions@icu_56@@QAE@XZ
_TEXT	SEGMENT
_this$ = -8						; size = 4
??0DigitFormatterOptions@icu_56@@QAE@XZ PROC		; icu_56::DigitFormatterOptions::DigitFormatterOptions, COMDAT
; _this$ = ecx
; File d:\mozilla\intl\icu\source\i18n\digitformatter.h
; Line 40
	push	ebp
	mov	ebp, esp
	sub	esp, 204				; 000000ccH
	push	ebx
	push	esi
	push	edi
	push	ecx
	lea	edi, DWORD PTR [ebp-204]
	mov	ecx, 51					; 00000033H
	mov	eax, -858993460				; ccccccccH
	rep stosd
	pop	ecx
	mov	DWORD PTR _this$[ebp], ecx
	mov	eax, DWORD PTR _this$[ebp]
	mov	BYTE PTR [eax], 0
	mov	eax, DWORD PTR _this$[ebp]
	pop	edi
	pop	esi
	pop	ebx
	mov	esp, ebp
	pop	ebp
	ret	0
??0DigitFormatterOptions@icu_56@@QAE@XZ ENDP		; icu_56::DigitFormatterOptions::DigitFormatterOptions
_TEXT	ENDS
PUBLIC	?equals@DigitFormatterOptions@icu_56@@QBECABV12@@Z ; icu_56::DigitFormatterOptions::equals
; Function compile flags: /Odtp /RTCsu /ZI
;	COMDAT ?equals@DigitFormatterOptions@icu_56@@QBECABV12@@Z
_TEXT	SEGMENT
_this$ = -8						; size = 4
_rhs$ = 8						; size = 4
?equals@DigitFormatterOptions@icu_56@@QBECABV12@@Z PROC	; icu_56::DigitFormatterOptions::equals, COMDAT
; _this$ = ecx
; Line 45
	push	ebp
	mov	ebp, esp
	sub	esp, 204				; 000000ccH
	push	ebx
	push	esi
	push	edi
	push	ecx
	lea	edi, DWORD PTR [ebp-204]
	mov	ecx, 51					; 00000033H
	mov	eax, -858993460				; ccccccccH
	rep stosd
	pop	ecx
	mov	DWORD PTR _this$[ebp], ecx
; Line 47
	mov	eax, DWORD PTR _this$[ebp]
	movsx	ecx, BYTE PTR [eax]
	mov	edx, DWORD PTR _rhs$[ebp]
	movsx	eax, BYTE PTR [edx]
	cmp	ecx, eax
	sete	al
; Line 48
	pop	edi
	pop	esi
	pop	ebx
	mov	esp, ebp
	pop	ebp
	ret	4
?equals@DigitFormatterOptions@icu_56@@QBECABV12@@Z ENDP	; icu_56::DigitFormatterOptions::equals
_TEXT	ENDS
PUBLIC	?isFastFormattable@DigitFormatterOptions@icu_56@@QBECXZ ; icu_56::DigitFormatterOptions::isFastFormattable
; Function compile flags: /Odtp /RTCsu /ZI
;	COMDAT ?isFastFormattable@DigitFormatterOptions@icu_56@@QBECXZ
_TEXT	SEGMENT
_this$ = -8						; size = 4
?isFastFormattable@DigitFormatterOptions@icu_56@@QBECXZ PROC ; icu_56::DigitFormatterOptions::isFastFormattable, COMDAT
; _this$ = ecx
; Line 54
	push	ebp
	mov	ebp, esp
	sub	esp, 204				; 000000ccH
	push	ebx
	push	esi
	push	edi
	push	ecx
	lea	edi, DWORD PTR [ebp-204]
	mov	ecx, 51					; 00000033H
	mov	eax, -858993460				; ccccccccH
	rep stosd
	pop	ecx
	mov	DWORD PTR _this$[ebp], ecx
; Line 55
	mov	eax, DWORD PTR _this$[ebp]
	movsx	ecx, BYTE PTR [eax]
	test	ecx, ecx
	sete	al
; Line 56
	pop	edi
	pop	esi
	pop	ebx
	mov	esp, ebp
	pop	ebp
	ret	0
?isFastFormattable@DigitFormatterOptions@icu_56@@QBECXZ ENDP ; icu_56::DigitFormatterOptions::isFastFormattable
_TEXT	ENDS
PUBLIC	??4DigitFormatterOptions@icu_56@@QAEAAV01@ABV01@@Z ; icu_56::DigitFormatterOptions::operator=
; Function compile flags: /Odtp /RTCsu /ZI
;	COMDAT ??4DigitFormatterOptions@icu_56@@QAEAAV01@ABV01@@Z
_TEXT	SEGMENT
_this$ = -8						; size = 4
___that$ = 8						; size = 4
??4DigitFormatterOptions@icu_56@@QAEAAV01@ABV01@@Z PROC	; icu_56::DigitFormatterOptions::operator=, COMDAT
; _this$ = ecx
	push	ebp
	mov	ebp, esp
	sub	esp, 204				; 000000ccH
	push	ebx
	push	esi
	push	edi
	push	ecx
	lea	edi, DWORD PTR [ebp-204]
	mov	ecx, 51					; 00000033H
	mov	eax, -858993460				; ccccccccH
	rep stosd
	pop	ecx
	mov	DWORD PTR _this$[ebp], ecx
	mov	eax, DWORD PTR ___that$[ebp]
	mov	cl, BYTE PTR [eax]
	mov	edx, DWORD PTR _this$[ebp]
	mov	BYTE PTR [edx], cl
	mov	eax, DWORD PTR _this$[ebp]
	pop	edi
	pop	esi
	pop	ebx
	mov	esp, ebp
	pop	ebp
	ret	4
??4DigitFormatterOptions@icu_56@@QAEAAV01@ABV01@@Z ENDP	; icu_56::DigitFormatterOptions::operator=
_TEXT	ENDS
PUBLIC	??0DigitFormatterIntOptions@icu_56@@QAE@XZ	; icu_56::DigitFormatterIntOptions::DigitFormatterIntOptions
; Function compile flags: /Odtp /RTCsu /ZI
;	COMDAT ??0DigitFormatterIntOptions@icu_56@@QAE@XZ
_TEXT	SEGMENT
_this$ = -8						; size = 4
??0DigitFormatterIntOptions@icu_56@@QAE@XZ PROC		; icu_56::DigitFormatterIntOptions::DigitFormatterIntOptions, COMDAT
; _this$ = ecx
; Line 70
	push	ebp
	mov	ebp, esp
	sub	esp, 204				; 000000ccH
	push	ebx
	push	esi
	push	edi
	push	ecx
	lea	edi, DWORD PTR [ebp-204]
	mov	ecx, 51					; 00000033H
	mov	eax, -858993460				; ccccccccH
	rep stosd
	pop	ecx
	mov	DWORD PTR _this$[ebp], ecx
	mov	eax, DWORD PTR _this$[ebp]
	mov	BYTE PTR [eax], 0
	mov	eax, DWORD PTR _this$[ebp]
	pop	edi
	pop	esi
	pop	ebx
	mov	esp, ebp
	pop	ebp
	ret	0
??0DigitFormatterIntOptions@icu_56@@QAE@XZ ENDP		; icu_56::DigitFormatterIntOptions::DigitFormatterIntOptions
_TEXT	ENDS
PUBLIC	?equals@DigitFormatterIntOptions@icu_56@@QBECABV12@@Z ; icu_56::DigitFormatterIntOptions::equals
; Function compile flags: /Odtp /RTCsu /ZI
;	COMDAT ?equals@DigitFormatterIntOptions@icu_56@@QBECABV12@@Z
_TEXT	SEGMENT
_this$ = -8						; size = 4
_rhs$ = 8						; size = 4
?equals@DigitFormatterIntOptions@icu_56@@QBECABV12@@Z PROC ; icu_56::DigitFormatterIntOptions::equals, COMDAT
; _this$ = ecx
; Line 75
	push	ebp
	mov	ebp, esp
	sub	esp, 204				; 000000ccH
	push	ebx
	push	esi
	push	edi
	push	ecx
	lea	edi, DWORD PTR [ebp-204]
	mov	ecx, 51					; 00000033H
	mov	eax, -858993460				; ccccccccH
	rep stosd
	pop	ecx
	mov	DWORD PTR _this$[ebp], ecx
; Line 76
	mov	eax, DWORD PTR _this$[ebp]
	movsx	ecx, BYTE PTR [eax]
	mov	edx, DWORD PTR _rhs$[ebp]
	movsx	eax, BYTE PTR [edx]
	cmp	ecx, eax
	sete	al
; Line 77
	pop	edi
	pop	esi
	pop	ebx
	mov	esp, ebp
	pop	ebp
	ret	4
?equals@DigitFormatterIntOptions@icu_56@@QBECABV12@@Z ENDP ; icu_56::DigitFormatterIntOptions::equals
_TEXT	ENDS
PUBLIC	??4DigitFormatterIntOptions@icu_56@@QAEAAV01@ABV01@@Z ; icu_56::DigitFormatterIntOptions::operator=
; Function compile flags: /Odtp /RTCsu /ZI
;	COMDAT ??4DigitFormatterIntOptions@icu_56@@QAEAAV01@ABV01@@Z
_TEXT	SEGMENT
_this$ = -8						; size = 4
___that$ = 8						; size = 4
??4DigitFormatterIntOptions@icu_56@@QAEAAV01@ABV01@@Z PROC ; icu_56::DigitFormatterIntOptions::operator=, COMDAT
; _this$ = ecx
	push	ebp
	mov	ebp, esp
	sub	esp, 204				; 000000ccH
	push	ebx
	push	esi
	push	edi
	push	ecx
	lea	edi, DWORD PTR [ebp-204]
	mov	ecx, 51					; 00000033H
	mov	eax, -858993460				; ccccccccH
	rep stosd
	pop	ecx
	mov	DWORD PTR _this$[ebp], ecx
	mov	eax, DWORD PTR ___that$[ebp]
	mov	cl, BYTE PTR [eax]
	mov	edx, DWORD PTR _this$[ebp]
	mov	BYTE PTR [edx], cl
	mov	eax, DWORD PTR _this$[ebp]
	pop	edi
	pop	esi
	pop	ebx
	mov	esp, ebp
	pop	ebp
	ret	4
??4DigitFormatterIntOptions@icu_56@@QAEAAV01@ABV01@@Z ENDP ; icu_56::DigitFormatterIntOptions::operator=
_TEXT	ENDS
PUBLIC	?equals@SciFormatterOptions@icu_56@@QBECABV12@@Z ; icu_56::SciFormatterOptions::equals
; Function compile flags: /Odtp /RTCsu /ZI
;	COMDAT ?equals@SciFormatterOptions@icu_56@@QBECABV12@@Z
_TEXT	SEGMENT
tv76 = -205						; size = 1
_this$ = -8						; size = 4
_rhs$ = 8						; size = 4
?equals@SciFormatterOptions@icu_56@@QBECABV12@@Z PROC	; icu_56::SciFormatterOptions::equals, COMDAT
; _this$ = ecx
; Line 95
	push	ebp
	mov	ebp, esp
	sub	esp, 208				; 000000d0H
	push	ebx
	push	esi
	push	edi
	push	ecx
	lea	edi, DWORD PTR [ebp-208]
	mov	ecx, 52					; 00000034H
	mov	eax, -858993460				; ccccccccH
	rep stosd
	pop	ecx
	mov	DWORD PTR _this$[ebp], ecx
; Line 97
	mov	eax, DWORD PTR _rhs$[ebp]
	push	eax
	mov	ecx, DWORD PTR _this$[ebp]
	call	?equals@DigitFormatterOptions@icu_56@@QBECABV12@@Z ; icu_56::DigitFormatterOptions::equals
	movsx	ecx, al
	test	ecx, ecx
	je	SHORT $LN3@equals@6
	mov	edx, DWORD PTR _rhs$[ebp]
	add	edx, 1
	push	edx
	mov	ecx, DWORD PTR _this$[ebp]
	add	ecx, 1
	call	?equals@DigitFormatterIntOptions@icu_56@@QBECABV12@@Z ; icu_56::DigitFormatterIntOptions::equals
	movsx	eax, al
	test	eax, eax
	je	SHORT $LN3@equals@6
	mov	BYTE PTR tv76[ebp], 1
	jmp	SHORT $LN4@equals@6
$LN3@equals@6:
	mov	BYTE PTR tv76[ebp], 0
$LN4@equals@6:
	mov	al, BYTE PTR tv76[ebp]
; Line 98
	pop	edi
	pop	esi
	pop	ebx
	add	esp, 208				; 000000d0H
	cmp	ebp, esp
	call	__RTC_CheckEsp
	mov	esp, ebp
	pop	ebp
	ret	4
?equals@SciFormatterOptions@icu_56@@QBECABV12@@Z ENDP	; icu_56::SciFormatterOptions::equals
_TEXT	ENDS
PUBLIC	??0SciFormatterOptions@icu_56@@QAE@XZ		; icu_56::SciFormatterOptions::SciFormatterOptions
; Function compile flags: /Odtp /RTCsu /ZI
;	COMDAT ??0SciFormatterOptions@icu_56@@QAE@XZ
_TEXT	SEGMENT
_this$ = -8						; size = 4
??0SciFormatterOptions@icu_56@@QAE@XZ PROC		; icu_56::SciFormatterOptions::SciFormatterOptions, COMDAT
; _this$ = ecx
	push	ebp
	mov	ebp, esp
	sub	esp, 204				; 000000ccH
	push	ebx
	push	esi
	push	edi
	push	ecx
	lea	edi, DWORD PTR [ebp-204]
	mov	ecx, 51					; 00000033H
	mov	eax, -858993460				; ccccccccH
	rep stosd
	pop	ecx
	mov	DWORD PTR _this$[ebp], ecx
	mov	ecx, DWORD PTR _this$[ebp]
	call	??0DigitFormatterOptions@icu_56@@QAE@XZ	; icu_56::DigitFormatterOptions::DigitFormatterOptions
	mov	ecx, DWORD PTR _this$[ebp]
	add	ecx, 1
	call	??0DigitFormatterIntOptions@icu_56@@QAE@XZ ; icu_56::DigitFormatterIntOptions::DigitFormatterIntOptions
	mov	eax, DWORD PTR _this$[ebp]
	pop	edi
	pop	esi
	pop	ebx
	add	esp, 204				; 000000ccH
	cmp	ebp, esp
	call	__RTC_CheckEsp
	mov	esp, ebp
	pop	ebp
	ret	0
??0SciFormatterOptions@icu_56@@QAE@XZ ENDP		; icu_56::SciFormatterOptions::SciFormatterOptions
_TEXT	ENDS
PUBLIC	??4SciFormatterOptions@icu_56@@QAEAAV01@ABV01@@Z ; icu_56::SciFormatterOptions::operator=
; Function compile flags: /Odtp /RTCsu /ZI
;	COMDAT ??4SciFormatterOptions@icu_56@@QAEAAV01@ABV01@@Z
_TEXT	SEGMENT
_this$ = -8						; size = 4
___that$ = 8						; size = 4
??4SciFormatterOptions@icu_56@@QAEAAV01@ABV01@@Z PROC	; icu_56::SciFormatterOptions::operator=, COMDAT
; _this$ = ecx
	push	ebp
	mov	ebp, esp
	sub	esp, 204				; 000000ccH
	push	ebx
	push	esi
	push	edi
	push	ecx
	lea	edi, DWORD PTR [ebp-204]
	mov	ecx, 51					; 00000033H
	mov	eax, -858993460				; ccccccccH
	rep stosd
	pop	ecx
	mov	DWORD PTR _this$[ebp], ecx
	mov	eax, DWORD PTR ___that$[ebp]
	mov	cx, WORD PTR [eax]
	mov	edx, DWORD PTR _this$[ebp]
	mov	WORD PTR [edx], cx
	mov	eax, DWORD PTR _this$[ebp]
	pop	edi
	pop	esi
	pop	ebx
	mov	esp, ebp
	pop	ebp
	ret	4
??4SciFormatterOptions@icu_56@@QAEAAV01@ABV01@@Z ENDP	; icu_56::SciFormatterOptions::operator=
_TEXT	ENDS
PUBLIC	?formatNaN@DigitFormatter@icu_56@@ABEAAVUnicodeString@2@AAVFieldPositionHandler@2@AAV32@@Z ; icu_56::DigitFormatter::formatNaN
EXTRN	?format@DigitAffix@icu_56@@QBEAAVUnicodeString@2@AAVFieldPositionHandler@2@AAV32@@Z:PROC ; icu_56::DigitAffix::format
; Function compile flags: /Odtp /RTCsu /ZI
;	COMDAT ?formatNaN@DigitFormatter@icu_56@@ABEAAVUnicodeString@2@AAVFieldPositionHandler@2@AAV32@@Z
_TEXT	SEGMENT
_this$ = -8						; size = 4
_handler$ = 8						; size = 4
_appendTo$ = 12						; size = 4
?formatNaN@DigitFormatter@icu_56@@ABEAAVUnicodeString@2@AAVFieldPositionHandler@2@AAV32@@Z PROC ; icu_56::DigitFormatter::formatNaN, COMDAT
; _this$ = ecx
; Line 246
	push	ebp
	mov	ebp, esp
	sub	esp, 204				; 000000ccH
	push	ebx
	push	esi
	push	edi
	push	ecx
	lea	edi, DWORD PTR [ebp-204]
	mov	ecx, 51					; 00000033H
	mov	eax, -858993460				; ccccccccH
	rep stosd
	pop	ecx
	mov	DWORD PTR _this$[ebp], ecx
; Line 247
	mov	eax, DWORD PTR _appendTo$[ebp]
	push	eax
	mov	ecx, DWORD PTR _handler$[ebp]
	push	ecx
	mov	ecx, DWORD PTR _this$[ebp]
	add	ecx, 424				; 000001a8H
	call	?format@DigitAffix@icu_56@@QBEAAVUnicodeString@2@AAVFieldPositionHandler@2@AAV32@@Z ; icu_56::DigitAffix::format
; Line 248
	pop	edi
	pop	esi
	pop	ebx
	add	esp, 204				; 000000ccH
	cmp	ebp, esp
	call	__RTC_CheckEsp
	mov	esp, ebp
	pop	ebp
	ret	8
?formatNaN@DigitFormatter@icu_56@@ABEAAVUnicodeString@2@AAVFieldPositionHandler@2@AAV32@@Z ENDP ; icu_56::DigitFormatter::formatNaN
_TEXT	ENDS
PUBLIC	?countChar32ForNaN@DigitFormatter@icu_56@@ABEHXZ ; icu_56::DigitFormatter::countChar32ForNaN
; Function compile flags: /Odtp /RTCsu /ZI
;	COMDAT ?countChar32ForNaN@DigitFormatter@icu_56@@ABEHXZ
_TEXT	SEGMENT
_this$ = -8						; size = 4
?countChar32ForNaN@DigitFormatter@icu_56@@ABEHXZ PROC	; icu_56::DigitFormatter::countChar32ForNaN, COMDAT
; _this$ = ecx
; Line 250
	push	ebp
	mov	ebp, esp
	sub	esp, 204				; 000000ccH
	push	ebx
	push	esi
	push	edi
	push	ecx
	lea	edi, DWORD PTR [ebp-204]
	mov	ecx, 51					; 00000033H
	mov	eax, -858993460				; ccccccccH
	rep stosd
	pop	ecx
	mov	DWORD PTR _this$[ebp], ecx
; Line 251
	mov	esi, esp
	push	2147483647				; 7fffffffH
	push	0
	mov	ecx, DWORD PTR _this$[ebp]
	add	ecx, 424				; 000001a8H
	call	?toString@DigitAffix@icu_56@@QBEABVUnicodeString@2@XZ ; icu_56::DigitAffix::toString
	mov	ecx, eax
	call	DWORD PTR __imp_?countChar32@UnicodeString@icu_56@@QBEHHH@Z
	cmp	esi, esp
	call	__RTC_CheckEsp
; Line 252
	pop	edi
	pop	esi
	pop	ebx
	add	esp, 204				; 000000ccH
	cmp	ebp, esp
	call	__RTC_CheckEsp
	mov	esp, ebp
	pop	ebp
	ret	0
?countChar32ForNaN@DigitFormatter@icu_56@@ABEHXZ ENDP	; icu_56::DigitFormatter::countChar32ForNaN
_TEXT	ENDS
PUBLIC	?formatInfinity@DigitFormatter@icu_56@@ABEAAVUnicodeString@2@AAVFieldPositionHandler@2@AAV32@@Z ; icu_56::DigitFormatter::formatInfinity
; Function compile flags: /Odtp /RTCsu /ZI
;	COMDAT ?formatInfinity@DigitFormatter@icu_56@@ABEAAVUnicodeString@2@AAVFieldPositionHandler@2@AAV32@@Z
_TEXT	SEGMENT
_this$ = -8						; size = 4
_handler$ = 8						; size = 4
_appendTo$ = 12						; size = 4
?formatInfinity@DigitFormatter@icu_56@@ABEAAVUnicodeString@2@AAVFieldPositionHandler@2@AAV32@@Z PROC ; icu_56::DigitFormatter::formatInfinity, COMDAT
; _this$ = ecx
; Line 256
	push	ebp
	mov	ebp, esp
	sub	esp, 204				; 000000ccH
	push	ebx
	push	esi
	push	edi
	push	ecx
	lea	edi, DWORD PTR [ebp-204]
	mov	ecx, 51					; 00000033H
	mov	eax, -858993460				; ccccccccH
	rep stosd
	pop	ecx
	mov	DWORD PTR _this$[ebp], ecx
; Line 257
	mov	eax, DWORD PTR _appendTo$[ebp]
	push	eax
	mov	ecx, DWORD PTR _handler$[ebp]
	push	ecx
	mov	ecx, DWORD PTR _this$[ebp]
	add	ecx, 296				; 00000128H
	call	?format@DigitAffix@icu_56@@QBEAAVUnicodeString@2@AAVFieldPositionHandler@2@AAV32@@Z ; icu_56::DigitAffix::format
; Line 258
	pop	edi
	pop	esi
	pop	ebx
	add	esp, 204				; 000000ccH
	cmp	ebp, esp
	call	__RTC_CheckEsp
	mov	esp, ebp
	pop	ebp
	ret	8
?formatInfinity@DigitFormatter@icu_56@@ABEAAVUnicodeString@2@AAVFieldPositionHandler@2@AAV32@@Z ENDP ; icu_56::DigitFormatter::formatInfinity
_TEXT	ENDS
PUBLIC	?countChar32ForInfinity@DigitFormatter@icu_56@@ABEHXZ ; icu_56::DigitFormatter::countChar32ForInfinity
; Function compile flags: /Odtp /RTCsu /ZI
;	COMDAT ?countChar32ForInfinity@DigitFormatter@icu_56@@ABEHXZ
_TEXT	SEGMENT
_this$ = -8						; size = 4
?countChar32ForInfinity@DigitFormatter@icu_56@@ABEHXZ PROC ; icu_56::DigitFormatter::countChar32ForInfinity, COMDAT
; _this$ = ecx
; Line 260
	push	ebp
	mov	ebp, esp
	sub	esp, 204				; 000000ccH
	push	ebx
	push	esi
	push	edi
	push	ecx
	lea	edi, DWORD PTR [ebp-204]
	mov	ecx, 51					; 00000033H
	mov	eax, -858993460				; ccccccccH
	rep stosd
	pop	ecx
	mov	DWORD PTR _this$[ebp], ecx
; Line 261
	mov	esi, esp
	push	2147483647				; 7fffffffH
	push	0
	mov	ecx, DWORD PTR _this$[ebp]
	add	ecx, 296				; 00000128H
	call	?toString@DigitAffix@icu_56@@QBEABVUnicodeString@2@XZ ; icu_56::DigitAffix::toString
	mov	ecx, eax
	call	DWORD PTR __imp_?countChar32@UnicodeString@icu_56@@QBEHHH@Z
	cmp	esi, esp
	call	__RTC_CheckEsp
; Line 262
	pop	edi
	pop	esi
	pop	ebx
	add	esp, 204				; 000000ccH
	cmp	ebp, esp
	call	__RTC_CheckEsp
	mov	esp, ebp
	pop	ebp
	ret	0
?countChar32ForInfinity@DigitFormatter@icu_56@@ABEHXZ ENDP ; icu_56::DigitFormatter::countChar32ForInfinity
_TEXT	ENDS
PUBLIC	??1DigitFormatter@icu_56@@QAE@XZ		; icu_56::DigitFormatter::~DigitFormatter
;	COMDAT xdata$x
xdata$x	SEGMENT
__ehfuncinfo$??1DigitFormatter@icu_56@@QAE@XZ DD 019930522H
	DD	06H
	DD	FLAT:__unwindtable$??1DigitFormatter@icu_56@@QAE@XZ
	DD	2 DUP(00H)
	DD	2 DUP(00H)
	DD	00H
	DD	01H
__unwindtable$??1DigitFormatter@icu_56@@QAE@XZ DD 0ffffffffH
	DD	FLAT:__unwindfunclet$??1DigitFormatter@icu_56@@QAE@XZ$0
	DD	00H
	DD	FLAT:__unwindfunclet$??1DigitFormatter@icu_56@@QAE@XZ$1
	DD	01H
	DD	FLAT:__unwindfunclet$??1DigitFormatter@icu_56@@QAE@XZ$2
	DD	02H
	DD	FLAT:__unwindfunclet$??1DigitFormatter@icu_56@@QAE@XZ$3
	DD	03H
	DD	FLAT:__unwindfunclet$??1DigitFormatter@icu_56@@QAE@XZ$4
	DD	04H
	DD	FLAT:__unwindfunclet$??1DigitFormatter@icu_56@@QAE@XZ$5
; Function compile flags: /Odtp /RTCsu /ZI
xdata$x	ENDS
;	COMDAT ??1DigitFormatter@icu_56@@QAE@XZ
_TEXT	SEGMENT
_this$ = -20						; size = 4
__$EHRec$ = -12						; size = 12
??1DigitFormatter@icu_56@@QAE@XZ PROC			; icu_56::DigitFormatter::~DigitFormatter, COMDAT
; _this$ = ecx
	push	ebp
	mov	ebp, esp
	push	-1
	push	__ehhandler$??1DigitFormatter@icu_56@@QAE@XZ
	mov	eax, DWORD PTR fs:0
	push	eax
	sub	esp, 204				; 000000ccH
	push	ebx
	push	esi
	push	edi
	push	ecx
	lea	edi, DWORD PTR [ebp-216]
	mov	ecx, 51					; 00000033H
	mov	eax, -858993460				; ccccccccH
	rep stosd
	pop	ecx
	mov	eax, DWORD PTR ___security_cookie
	xor	eax, ebp
	push	eax
	lea	eax, DWORD PTR __$EHRec$[ebp]
	mov	DWORD PTR fs:0, eax
	mov	DWORD PTR _this$[ebp], ecx
	mov	DWORD PTR __$EHRec$[ebp+8], 5
	mov	ecx, DWORD PTR _this$[ebp]
	add	ecx, 556				; 0000022cH
	mov	esi, esp
	call	DWORD PTR __imp_??1UnicodeString@icu_56@@UAE@XZ
	cmp	esi, esp
	call	__RTC_CheckEsp
	mov	BYTE PTR __$EHRec$[ebp+8], 4
	mov	ecx, DWORD PTR _this$[ebp]
	add	ecx, 424				; 000001a8H
	call	??1DigitAffix@icu_56@@QAE@XZ
	mov	BYTE PTR __$EHRec$[ebp+8], 3
	mov	ecx, DWORD PTR _this$[ebp]
	add	ecx, 296				; 00000128H
	call	??1DigitAffix@icu_56@@QAE@XZ
	mov	BYTE PTR __$EHRec$[ebp+8], 2
	mov	ecx, DWORD PTR _this$[ebp]
	add	ecx, 232				; 000000e8H
	mov	esi, esp
	call	DWORD PTR __imp_??1UnicodeString@icu_56@@UAE@XZ
	cmp	esi, esp
	call	__RTC_CheckEsp
	mov	BYTE PTR __$EHRec$[ebp+8], 1
	mov	ecx, DWORD PTR _this$[ebp]
	add	ecx, 168				; 000000a8H
	mov	esi, esp
	call	DWORD PTR __imp_??1UnicodeString@icu_56@@UAE@XZ
	cmp	esi, esp
	call	__RTC_CheckEsp
	mov	BYTE PTR __$EHRec$[ebp+8], 0
	mov	ecx, DWORD PTR _this$[ebp]
	add	ecx, 104				; 00000068H
	mov	esi, esp
	call	DWORD PTR __imp_??1UnicodeString@icu_56@@UAE@XZ
	cmp	esi, esp
	call	__RTC_CheckEsp
	mov	DWORD PTR __$EHRec$[ebp+8], -1
	mov	ecx, DWORD PTR _this$[ebp]
	add	ecx, 40					; 00000028H
	mov	esi, esp
	call	DWORD PTR __imp_??1UnicodeString@icu_56@@UAE@XZ
	cmp	esi, esp
	call	__RTC_CheckEsp
	mov	ecx, DWORD PTR __$EHRec$[ebp]
	mov	DWORD PTR fs:0, ecx
	pop	ecx
	pop	edi
	pop	esi
	pop	ebx
	add	esp, 216				; 000000d8H
	cmp	ebp, esp
	call	__RTC_CheckEsp
	mov	esp, ebp
	pop	ebp
	ret	0
_TEXT	ENDS
;	COMDAT text$x
text$x	SEGMENT
__unwindfunclet$??1DigitFormatter@icu_56@@QAE@XZ$0:
	mov	ecx, DWORD PTR _this$[ebp]
	add	ecx, 40					; 00000028H
	mov	esi, esp
	call	DWORD PTR __imp_??1UnicodeString@icu_56@@UAE@XZ
	cmp	esi, esp
	jmp	__RTC_CheckEsp
__unwindfunclet$??1DigitFormatter@icu_56@@QAE@XZ$1:
	mov	ecx, DWORD PTR _this$[ebp]
	add	ecx, 104				; 00000068H
	mov	esi, esp
	call	DWORD PTR __imp_??1UnicodeString@icu_56@@UAE@XZ
	cmp	esi, esp
	jmp	__RTC_CheckEsp
__unwindfunclet$??1DigitFormatter@icu_56@@QAE@XZ$2:
	mov	ecx, DWORD PTR _this$[ebp]
	add	ecx, 168				; 000000a8H
	mov	esi, esp
	call	DWORD PTR __imp_??1UnicodeString@icu_56@@UAE@XZ
	cmp	esi, esp
	jmp	__RTC_CheckEsp
__unwindfunclet$??1DigitFormatter@icu_56@@QAE@XZ$3:
	mov	ecx, DWORD PTR _this$[ebp]
	add	ecx, 232				; 000000e8H
	mov	esi, esp
	call	DWORD PTR __imp_??1UnicodeString@icu_56@@UAE@XZ
	cmp	esi, esp
	jmp	__RTC_CheckEsp
__unwindfunclet$??1DigitFormatter@icu_56@@QAE@XZ$4:
	mov	ecx, DWORD PTR _this$[ebp]
	add	ecx, 296				; 00000128H
	jmp	??1DigitAffix@icu_56@@QAE@XZ
__unwindfunclet$??1DigitFormatter@icu_56@@QAE@XZ$5:
	mov	ecx, DWORD PTR _this$[ebp]
	add	ecx, 424				; 000001a8H
	jmp	??1DigitAffix@icu_56@@QAE@XZ
__ehhandler$??1DigitFormatter@icu_56@@QAE@XZ:
	mov	edx, DWORD PTR [esp+8]
	lea	eax, DWORD PTR [edx+12]
	mov	ecx, DWORD PTR [edx-220]
	xor	ecx, eax
	call	@__security_check_cookie@4
	mov	eax, OFFSET __ehfuncinfo$??1DigitFormatter@icu_56@@QAE@XZ
	jmp	___CxxFrameHandler3
text$x	ENDS
??1DigitFormatter@icu_56@@QAE@XZ ENDP			; icu_56::DigitFormatter::~DigitFormatter
PUBLIC	??0DigitFormatter@icu_56@@QAE@ABV01@@Z		; icu_56::DigitFormatter::DigitFormatter
;	COMDAT xdata$x
xdata$x	SEGMENT
__ehfuncinfo$??0DigitFormatter@icu_56@@QAE@ABV01@@Z DD 019930522H
	DD	06H
	DD	FLAT:__unwindtable$??0DigitFormatter@icu_56@@QAE@ABV01@@Z
	DD	2 DUP(00H)
	DD	2 DUP(00H)
	DD	00H
	DD	01H
__unwindtable$??0DigitFormatter@icu_56@@QAE@ABV01@@Z DD 0ffffffffH
	DD	FLAT:__unwindfunclet$??0DigitFormatter@icu_56@@QAE@ABV01@@Z$0
	DD	00H
	DD	FLAT:__unwindfunclet$??0DigitFormatter@icu_56@@QAE@ABV01@@Z$1
	DD	01H
	DD	FLAT:__unwindfunclet$??0DigitFormatter@icu_56@@QAE@ABV01@@Z$2
	DD	02H
	DD	FLAT:__unwindfunclet$??0DigitFormatter@icu_56@@QAE@ABV01@@Z$3
	DD	03H
	DD	FLAT:__unwindfunclet$??0DigitFormatter@icu_56@@QAE@ABV01@@Z$4
	DD	04H
	DD	FLAT:__unwindfunclet$??0DigitFormatter@icu_56@@QAE@ABV01@@Z$5
; Function compile flags: /Odtp /RTCsu /ZI
xdata$x	ENDS
;	COMDAT ??0DigitFormatter@icu_56@@QAE@ABV01@@Z
_TEXT	SEGMENT
_this$ = -20						; size = 4
__$EHRec$ = -12						; size = 12
___that$ = 8						; size = 4
??0DigitFormatter@icu_56@@QAE@ABV01@@Z PROC		; icu_56::DigitFormatter::DigitFormatter, COMDAT
; _this$ = ecx
	push	ebp
	mov	ebp, esp
	push	-1
	push	__ehhandler$??0DigitFormatter@icu_56@@QAE@ABV01@@Z
	mov	eax, DWORD PTR fs:0
	push	eax
	sub	esp, 204				; 000000ccH
	push	ebx
	push	esi
	push	edi
	push	ecx
	lea	edi, DWORD PTR [ebp-216]
	mov	ecx, 51					; 00000033H
	mov	eax, -858993460				; ccccccccH
	rep stosd
	pop	ecx
	mov	eax, DWORD PTR ___security_cookie
	xor	eax, ebp
	push	eax
	lea	eax, DWORD PTR __$EHRec$[ebp]
	mov	DWORD PTR fs:0, eax
	mov	DWORD PTR _this$[ebp], ecx
	mov	ecx, 10					; 0000000aH
	mov	esi, DWORD PTR ___that$[ebp]
	mov	edi, DWORD PTR _this$[ebp]
	rep movsd
	mov	eax, DWORD PTR ___that$[ebp]
	add	eax, 40					; 00000028H
	mov	esi, esp
	push	eax
	mov	ecx, DWORD PTR _this$[ebp]
	add	ecx, 40					; 00000028H
	call	DWORD PTR __imp_??0UnicodeString@icu_56@@QAE@ABV01@@Z
	cmp	esi, esp
	call	__RTC_CheckEsp
	mov	DWORD PTR __$EHRec$[ebp+8], 0
	mov	eax, DWORD PTR ___that$[ebp]
	add	eax, 104				; 00000068H
	mov	esi, esp
	push	eax
	mov	ecx, DWORD PTR _this$[ebp]
	add	ecx, 104				; 00000068H
	call	DWORD PTR __imp_??0UnicodeString@icu_56@@QAE@ABV01@@Z
	cmp	esi, esp
	call	__RTC_CheckEsp
	mov	BYTE PTR __$EHRec$[ebp+8], 1
	mov	eax, DWORD PTR ___that$[ebp]
	add	eax, 168				; 000000a8H
	mov	esi, esp
	push	eax
	mov	ecx, DWORD PTR _this$[ebp]
	add	ecx, 168				; 000000a8H
	call	DWORD PTR __imp_??0UnicodeString@icu_56@@QAE@ABV01@@Z
	cmp	esi, esp
	call	__RTC_CheckEsp
	mov	BYTE PTR __$EHRec$[ebp+8], 2
	mov	eax, DWORD PTR ___that$[ebp]
	add	eax, 232				; 000000e8H
	mov	esi, esp
	push	eax
	mov	ecx, DWORD PTR _this$[ebp]
	add	ecx, 232				; 000000e8H
	call	DWORD PTR __imp_??0UnicodeString@icu_56@@QAE@ABV01@@Z
	cmp	esi, esp
	call	__RTC_CheckEsp
	mov	BYTE PTR __$EHRec$[ebp+8], 3
	mov	eax, DWORD PTR ___that$[ebp]
	add	eax, 296				; 00000128H
	push	eax
	mov	ecx, DWORD PTR _this$[ebp]
	add	ecx, 296				; 00000128H
	call	??0DigitAffix@icu_56@@QAE@ABV01@@Z
	mov	BYTE PTR __$EHRec$[ebp+8], 4
	mov	eax, DWORD PTR ___that$[ebp]
	add	eax, 424				; 000001a8H
	push	eax
	mov	ecx, DWORD PTR _this$[ebp]
	add	ecx, 424				; 000001a8H
	call	??0DigitAffix@icu_56@@QAE@ABV01@@Z
	mov	BYTE PTR __$EHRec$[ebp+8], 5
	mov	eax, DWORD PTR _this$[ebp]
	mov	ecx, DWORD PTR ___that$[ebp]
	mov	dl, BYTE PTR [ecx+552]
	mov	BYTE PTR [eax+552], dl
	mov	eax, DWORD PTR ___that$[ebp]
	add	eax, 556				; 0000022cH
	mov	esi, esp
	push	eax
	mov	ecx, DWORD PTR _this$[ebp]
	add	ecx, 556				; 0000022cH
	call	DWORD PTR __imp_??0UnicodeString@icu_56@@QAE@ABV01@@Z
	cmp	esi, esp
	call	__RTC_CheckEsp
	mov	DWORD PTR __$EHRec$[ebp+8], -1
	mov	eax, DWORD PTR _this$[ebp]
	mov	ecx, DWORD PTR __$EHRec$[ebp]
	mov	DWORD PTR fs:0, ecx
	pop	ecx
	pop	edi
	pop	esi
	pop	ebx
	add	esp, 216				; 000000d8H
	cmp	ebp, esp
	call	__RTC_CheckEsp
	mov	esp, ebp
	pop	ebp
	ret	4
_TEXT	ENDS
;	COMDAT text$x
text$x	SEGMENT
__unwindfunclet$??0DigitFormatter@icu_56@@QAE@ABV01@@Z$0:
	mov	ecx, DWORD PTR _this$[ebp]
	add	ecx, 40					; 00000028H
	mov	esi, esp
	call	DWORD PTR __imp_??1UnicodeString@icu_56@@UAE@XZ
	cmp	esi, esp
	jmp	__RTC_CheckEsp
__unwindfunclet$??0DigitFormatter@icu_56@@QAE@ABV01@@Z$1:
	mov	ecx, DWORD PTR _this$[ebp]
	add	ecx, 104				; 00000068H
	mov	esi, esp
	call	DWORD PTR __imp_??1UnicodeString@icu_56@@UAE@XZ
	cmp	esi, esp
	jmp	__RTC_CheckEsp
__unwindfunclet$??0DigitFormatter@icu_56@@QAE@ABV01@@Z$2:
	mov	ecx, DWORD PTR _this$[ebp]
	add	ecx, 168				; 000000a8H
	mov	esi, esp
	call	DWORD PTR __imp_??1UnicodeString@icu_56@@UAE@XZ
	cmp	esi, esp
	jmp	__RTC_CheckEsp
__unwindfunclet$??0DigitFormatter@icu_56@@QAE@ABV01@@Z$3:
	mov	ecx, DWORD PTR _this$[ebp]
	add	ecx, 232				; 000000e8H
	mov	esi, esp
	call	DWORD PTR __imp_??1UnicodeString@icu_56@@UAE@XZ
	cmp	esi, esp
	jmp	__RTC_CheckEsp
__unwindfunclet$??0DigitFormatter@icu_56@@QAE@ABV01@@Z$4:
	mov	ecx, DWORD PTR _this$[ebp]
	add	ecx, 296				; 00000128H
	jmp	??1DigitAffix@icu_56@@QAE@XZ
__unwindfunclet$??0DigitFormatter@icu_56@@QAE@ABV01@@Z$5:
	mov	ecx, DWORD PTR _this$[ebp]
	add	ecx, 424				; 000001a8H
	jmp	??1DigitAffix@icu_56@@QAE@XZ
__ehhandler$??0DigitFormatter@icu_56@@QAE@ABV01@@Z:
	mov	edx, DWORD PTR [esp+8]
	lea	eax, DWORD PTR [edx+12]
	mov	ecx, DWORD PTR [edx-220]
	xor	ecx, eax
	call	@__security_check_cookie@4
	mov	eax, OFFSET __ehfuncinfo$??0DigitFormatter@icu_56@@QAE@ABV01@@Z
	jmp	___CxxFrameHandler3
text$x	ENDS
??0DigitFormatter@icu_56@@QAE@ABV01@@Z ENDP		; icu_56::DigitFormatter::DigitFormatter
PUBLIC	??4DigitFormatter@icu_56@@QAEAAV01@ABV01@@Z	; icu_56::DigitFormatter::operator=
; Function compile flags: /Odtp /RTCsu /ZI
;	COMDAT ??4DigitFormatter@icu_56@@QAEAAV01@ABV01@@Z
_TEXT	SEGMENT
_$S3$43131 = -20					; size = 4
_this$ = -8						; size = 4
___that$ = 8						; size = 4
??4DigitFormatter@icu_56@@QAEAAV01@ABV01@@Z PROC	; icu_56::DigitFormatter::operator=, COMDAT
; _this$ = ecx
	push	ebp
	mov	ebp, esp
	sub	esp, 216				; 000000d8H
	push	ebx
	push	esi
	push	edi
	push	ecx
	lea	edi, DWORD PTR [ebp-216]
	mov	ecx, 54					; 00000036H
	mov	eax, -858993460				; ccccccccH
	rep stosd
	pop	ecx
	mov	DWORD PTR _this$[ebp], ecx
	mov	DWORD PTR _$S3$43131[ebp], 0
	jmp	SHORT $LN3@operator@3
$LN2@operator@3:
	mov	eax, DWORD PTR _$S3$43131[ebp]
	add	eax, 1
	mov	DWORD PTR _$S3$43131[ebp], eax
$LN3@operator@3:
	cmp	DWORD PTR _$S3$43131[ebp], 10		; 0000000aH
	jae	SHORT $LN1@operator@3
	mov	eax, DWORD PTR _$S3$43131[ebp]
	mov	ecx, DWORD PTR _this$[ebp]
	mov	edx, DWORD PTR _$S3$43131[ebp]
	mov	esi, DWORD PTR ___that$[ebp]
	mov	edx, DWORD PTR [esi+edx*4]
	mov	DWORD PTR [ecx+eax*4], edx
