; Listing generated by Microsoft (R) Optimizing Compiler Version 16.00.40219.01 

	TITLE	D:\mozilla\intl\icu\source\i18n\numsys.cpp
	.686P
	.XMM
	include listing.inc
	.model	flat

INCLUDELIB MSVCRTD
INCLUDELIB OLDNAMES

PUBLIC	?value@?$integral_constant@_N$0A@@tr1@std@@2_NB	; std::tr1::integral_constant<bool,0>::value
PUBLIC	?value@?$integral_constant@_N$00@tr1@std@@2_NB	; std::tr1::integral_constant<bool,1>::value
PUBLIC	?value@?$integral_constant@I$0A@@tr1@std@@2IB	; std::tr1::integral_constant<unsigned int,0>::value
PUBLIC	?_Rank@?$_Arithmetic_traits@_N@std@@2HB		; std::_Arithmetic_traits<bool>::_Rank
PUBLIC	?_Rank@?$_Arithmetic_traits@D@std@@2HB		; std::_Arithmetic_traits<char>::_Rank
PUBLIC	?_Rank@?$_Arithmetic_traits@C@std@@2HB		; std::_Arithmetic_traits<signed char>::_Rank
PUBLIC	?_Rank@?$_Arithmetic_traits@E@std@@2HB		; std::_Arithmetic_traits<unsigned char>::_Rank
PUBLIC	?_Rank@?$_Arithmetic_traits@F@std@@2HB		; std::_Arithmetic_traits<short>::_Rank
PUBLIC	?_Rank@?$_Arithmetic_traits@G@std@@2HB		; std::_Arithmetic_traits<unsigned short>::_Rank
PUBLIC	?_Rank@?$_Arithmetic_traits@H@std@@2HB		; std::_Arithmetic_traits<int>::_Rank
PUBLIC	?_Rank@?$_Arithmetic_traits@I@std@@2HB		; std::_Arithmetic_traits<unsigned int>::_Rank
PUBLIC	?_Rank@?$_Arithmetic_traits@J@std@@2HB		; std::_Arithmetic_traits<long>::_Rank
PUBLIC	?_Rank@?$_Arithmetic_traits@K@std@@2HB		; std::_Arithmetic_traits<unsigned long>::_Rank
PUBLIC	?_Rank@?$_Arithmetic_traits@_J@std@@2HB		; std::_Arithmetic_traits<__int64>::_Rank
PUBLIC	?_Rank@?$_Arithmetic_traits@_K@std@@2HB		; std::_Arithmetic_traits<unsigned __int64>::_Rank
PUBLIC	?_Rank@?$_Arithmetic_traits@M@std@@2HB		; std::_Arithmetic_traits<float>::_Rank
PUBLIC	?_Rank@?$_Arithmetic_traits@N@std@@2HB		; std::_Arithmetic_traits<double>::_Rank
PUBLIC	?_Rank@?$_Arithmetic_traits@O@std@@2HB		; std::_Arithmetic_traits<long double>::_Rank
PUBLIC	?collate@?$_Locbase@H@std@@2HB			; std::_Locbase<int>::collate
PUBLIC	?ctype@?$_Locbase@H@std@@2HB			; std::_Locbase<int>::ctype
PUBLIC	?monetary@?$_Locbase@H@std@@2HB			; std::_Locbase<int>::monetary
PUBLIC	?numeric@?$_Locbase@H@std@@2HB			; std::_Locbase<int>::numeric
PUBLIC	?time@?$_Locbase@H@std@@2HB			; std::_Locbase<int>::time
PUBLIC	?messages@?$_Locbase@H@std@@2HB			; std::_Locbase<int>::messages
PUBLIC	?all@?$_Locbase@H@std@@2HB			; std::_Locbase<int>::all
PUBLIC	?none@?$_Locbase@H@std@@2HB			; std::_Locbase<int>::none
PUBLIC	?skipws@?$_Iosb@H@std@@2W4_Fmtflags@12@B	; std::_Iosb<int>::skipws
PUBLIC	?unitbuf@?$_Iosb@H@std@@2W4_Fmtflags@12@B	; std::_Iosb<int>::unitbuf
PUBLIC	?uppercase@?$_Iosb@H@std@@2W4_Fmtflags@12@B	; std::_Iosb<int>::uppercase
PUBLIC	?showbase@?$_Iosb@H@std@@2W4_Fmtflags@12@B	; std::_Iosb<int>::showbase
PUBLIC	?showpoint@?$_Iosb@H@std@@2W4_Fmtflags@12@B	; std::_Iosb<int>::showpoint
PUBLIC	?showpos@?$_Iosb@H@std@@2W4_Fmtflags@12@B	; std::_Iosb<int>::showpos
PUBLIC	?left@?$_Iosb@H@std@@2W4_Fmtflags@12@B		; std::_Iosb<int>::left
PUBLIC	?right@?$_Iosb@H@std@@2W4_Fmtflags@12@B		; std::_Iosb<int>::right
PUBLIC	?internal@?$_Iosb@H@std@@2W4_Fmtflags@12@B	; std::_Iosb<int>::internal
PUBLIC	?dec@?$_Iosb@H@std@@2W4_Fmtflags@12@B		; std::_Iosb<int>::dec
PUBLIC	?oct@?$_Iosb@H@std@@2W4_Fmtflags@12@B		; std::_Iosb<int>::oct
PUBLIC	?hex@?$_Iosb@H@std@@2W4_Fmtflags@12@B		; std::_Iosb<int>::hex
PUBLIC	?scientific@?$_Iosb@H@std@@2W4_Fmtflags@12@B	; std::_Iosb<int>::scientific
PUBLIC	?fixed@?$_Iosb@H@std@@2W4_Fmtflags@12@B		; std::_Iosb<int>::fixed
PUBLIC	?hexfloat@?$_Iosb@H@std@@2W4_Fmtflags@12@B	; std::_Iosb<int>::hexfloat
PUBLIC	?boolalpha@?$_Iosb@H@std@@2W4_Fmtflags@12@B	; std::_Iosb<int>::boolalpha
PUBLIC	?_Stdio@?$_Iosb@H@std@@2W4_Fmtflags@12@B	; std::_Iosb<int>::_Stdio
PUBLIC	?adjustfield@?$_Iosb@H@std@@2W4_Fmtflags@12@B	; std::_Iosb<int>::adjustfield
PUBLIC	?basefield@?$_Iosb@H@std@@2W4_Fmtflags@12@B	; std::_Iosb<int>::basefield
PUBLIC	?floatfield@?$_Iosb@H@std@@2W4_Fmtflags@12@B	; std::_Iosb<int>::floatfield
PUBLIC	?goodbit@?$_Iosb@H@std@@2W4_Iostate@12@B	; std::_Iosb<int>::goodbit
PUBLIC	?eofbit@?$_Iosb@H@std@@2W4_Iostate@12@B		; std::_Iosb<int>::eofbit
PUBLIC	?failbit@?$_Iosb@H@std@@2W4_Iostate@12@B	; std::_Iosb<int>::failbit
PUBLIC	?badbit@?$_Iosb@H@std@@2W4_Iostate@12@B		; std::_Iosb<int>::badbit
PUBLIC	?_Hardfail@?$_Iosb@H@std@@2W4_Iostate@12@B	; std::_Iosb<int>::_Hardfail
PUBLIC	?in@?$_Iosb@H@std@@2W4_Openmode@12@B		; std::_Iosb<int>::in
PUBLIC	?out@?$_Iosb@H@std@@2W4_Openmode@12@B		; std::_Iosb<int>::out
PUBLIC	?ate@?$_Iosb@H@std@@2W4_Openmode@12@B		; std::_Iosb<int>::ate
PUBLIC	?app@?$_Iosb@H@std@@2W4_Openmode@12@B		; std::_Iosb<int>::app
PUBLIC	?trunc@?$_Iosb@H@std@@2W4_Openmode@12@B		; std::_Iosb<int>::trunc
PUBLIC	?_Nocreate@?$_Iosb@H@std@@2W4_Openmode@12@B	; std::_Iosb<int>::_Nocreate
PUBLIC	?_Noreplace@?$_Iosb@H@std@@2W4_Openmode@12@B	; std::_Iosb<int>::_Noreplace
PUBLIC	?binary@?$_Iosb@H@std@@2W4_Openmode@12@B	; std::_Iosb<int>::binary
PUBLIC	?beg@?$_Iosb@H@std@@2W4_Seekdir@12@B		; std::_Iosb<int>::beg
PUBLIC	?cur@?$_Iosb@H@std@@2W4_Seekdir@12@B		; std::_Iosb<int>::cur
PUBLIC	?end@?$_Iosb@H@std@@2W4_Seekdir@12@B		; std::_Iosb<int>::end
_BSS	SEGMENT
?classID@?1??getStaticClassID@NumberingSystem@icu_56@@SAPAXXZ@4DA DB 01H DUP (?) ; `icu_56::NumberingSystem::getStaticClassID'::`2'::classID
	ALIGN	4

?classID@?1??getStaticClassID@NumsysNameEnumeration@icu_56@@SAPAXXZ@4DA DB 01H DUP (?) ; `icu_56::NumsysNameEnumeration::getStaticClassID'::`2'::classID
	ALIGN	4

?availableNames@?1??getAvailableNames@NumberingSystem@icu_56@@SAPAVStringEnumeration@3@AAW4UErrorCode@@@Z@4PAV43@A DD 01H DUP (?) ; `icu_56::NumberingSystem::getAvailableNames'::`2'::availableNames
_BSS	ENDS
CONST	SEGMENT
_gNumberingSystems DB 'numberingSystems', 00H
	ORG $+3
_gNumberElements DB 'NumberElements', 00H
	ORG $+1
_gDefault DB	'default', 00H
_gNative DB	'native', 00H
	ORG $+1
_gTraditional DB 'traditional', 00H
_gFinance DB	'finance', 00H
_gDesc	DB	'desc', 00H
	ORG $+3
_gRadix	DB	'radix', 00H
	ORG $+2
_gAlgorithmic DB 'algorithmic', 00H
_gLatn	DB	'latn', 00H
CONST	ENDS
;	COMDAT ?end@?$_Iosb@H@std@@2W4_Seekdir@12@B
CONST	SEGMENT
?end@?$_Iosb@H@std@@2W4_Seekdir@12@B DD 02H		; std::_Iosb<int>::end
CONST	ENDS
;	COMDAT ?cur@?$_Iosb@H@std@@2W4_Seekdir@12@B
CONST	SEGMENT
?cur@?$_Iosb@H@std@@2W4_Seekdir@12@B DD 01H		; std::_Iosb<int>::cur
CONST	ENDS
;	COMDAT ?beg@?$_Iosb@H@std@@2W4_Seekdir@12@B
CONST	SEGMENT
?beg@?$_Iosb@H@std@@2W4_Seekdir@12@B DD 00H		; std::_Iosb<int>::beg
CONST	ENDS
;	COMDAT ?binary@?$_Iosb@H@std@@2W4_Openmode@12@B
CONST	SEGMENT
?binary@?$_Iosb@H@std@@2W4_Openmode@12@B DD 020H	; std::_Iosb<int>::binary
CONST	ENDS
;	COMDAT ?_Noreplace@?$_Iosb@H@std@@2W4_Openmode@12@B
CONST	SEGMENT
?_Noreplace@?$_Iosb@H@std@@2W4_Openmode@12@B DD 080H	; std::_Iosb<int>::_Noreplace
CONST	ENDS
;	COMDAT ?_Nocreate@?$_Iosb@H@std@@2W4_Openmode@12@B
CONST	SEGMENT
?_Nocreate@?$_Iosb@H@std@@2W4_Openmode@12@B DD 040H	; std::_Iosb<int>::_Nocreate
CONST	ENDS
;	COMDAT ?trunc@?$_Iosb@H@std@@2W4_Openmode@12@B
CONST	SEGMENT
?trunc@?$_Iosb@H@std@@2W4_Openmode@12@B DD 010H		; std::_Iosb<int>::trunc
CONST	ENDS
;	COMDAT ?app@?$_Iosb@H@std@@2W4_Openmode@12@B
CONST	SEGMENT
?app@?$_Iosb@H@std@@2W4_Openmode@12@B DD 08H		; std::_Iosb<int>::app
CONST	ENDS
;	COMDAT ?ate@?$_Iosb@H@std@@2W4_Openmode@12@B
CONST	SEGMENT
?ate@?$_Iosb@H@std@@2W4_Openmode@12@B DD 04H		; std::_Iosb<int>::ate
CONST	ENDS
;	COMDAT ?out@?$_Iosb@H@std@@2W4_Openmode@12@B
CONST	SEGMENT
?out@?$_Iosb@H@std@@2W4_Openmode@12@B DD 02H		; std::_Iosb<int>::out
CONST	ENDS
;	COMDAT ?in@?$_Iosb@H@std@@2W4_Openmode@12@B
CONST	SEGMENT
?in@?$_Iosb@H@std@@2W4_Openmode@12@B DD 01H		; std::_Iosb<int>::in
CONST	ENDS
;	COMDAT ?_Hardfail@?$_Iosb@H@std@@2W4_Iostate@12@B
CONST	SEGMENT
?_Hardfail@?$_Iosb@H@std@@2W4_Iostate@12@B DD 010H	; std::_Iosb<int>::_Hardfail
CONST	ENDS
;	COMDAT ?badbit@?$_Iosb@H@std@@2W4_Iostate@12@B
CONST	SEGMENT
?badbit@?$_Iosb@H@std@@2W4_Iostate@12@B DD 04H		; std::_Iosb<int>::badbit
CONST	ENDS
;	COMDAT ?failbit@?$_Iosb@H@std@@2W4_Iostate@12@B
CONST	SEGMENT
?failbit@?$_Iosb@H@std@@2W4_Iostate@12@B DD 02H		; std::_Iosb<int>::failbit
CONST	ENDS
;	COMDAT ?eofbit@?$_Iosb@H@std@@2W4_Iostate@12@B
CONST	SEGMENT
?eofbit@?$_Iosb@H@std@@2W4_Iostate@12@B DD 01H		; std::_Iosb<int>::eofbit
CONST	ENDS
;	COMDAT ?goodbit@?$_Iosb@H@std@@2W4_Iostate@12@B
CONST	SEGMENT
?goodbit@?$_Iosb@H@std@@2W4_Iostate@12@B DD 00H		; std::_Iosb<int>::goodbit
CONST	ENDS
;	COMDAT ?floatfield@?$_Iosb@H@std@@2W4_Fmtflags@12@B
CONST	SEGMENT
?floatfield@?$_Iosb@H@std@@2W4_Fmtflags@12@B DD 03000H	; std::_Iosb<int>::floatfield
CONST	ENDS
;	COMDAT ?basefield@?$_Iosb@H@std@@2W4_Fmtflags@12@B
CONST	SEGMENT
?basefield@?$_Iosb@H@std@@2W4_Fmtflags@12@B DD 0e00H	; std::_Iosb<int>::basefield
CONST	ENDS
;	COMDAT ?adjustfield@?$_Iosb@H@std@@2W4_Fmtflags@12@B
CONST	SEGMENT
?adjustfield@?$_Iosb@H@std@@2W4_Fmtflags@12@B DD 01c0H	; std::_Iosb<int>::adjustfield
CONST	ENDS
;	COMDAT ?_Stdio@?$_Iosb@H@std@@2W4_Fmtflags@12@B
CONST	SEGMENT
?_Stdio@?$_Iosb@H@std@@2W4_Fmtflags@12@B DD 08000H	; std::_Iosb<int>::_Stdio
CONST	ENDS
;	COMDAT ?boolalpha@?$_Iosb@H@std@@2W4_Fmtflags@12@B
CONST	SEGMENT
?boolalpha@?$_Iosb@H@std@@2W4_Fmtflags@12@B DD 04000H	; std::_Iosb<int>::boolalpha
CONST	ENDS
;	COMDAT ?hexfloat@?$_Iosb@H@std@@2W4_Fmtflags@12@B
CONST	SEGMENT
?hexfloat@?$_Iosb@H@std@@2W4_Fmtflags@12@B DD 03000H	; std::_Iosb<int>::hexfloat
CONST	ENDS
;	COMDAT ?fixed@?$_Iosb@H@std@@2W4_Fmtflags@12@B
CONST	SEGMENT
?fixed@?$_Iosb@H@std@@2W4_Fmtflags@12@B DD 02000H	; std::_Iosb<int>::fixed
CONST	ENDS
;	COMDAT ?scientific@?$_Iosb@H@std@@2W4_Fmtflags@12@B
CONST	SEGMENT
?scientific@?$_Iosb@H@std@@2W4_Fmtflags@12@B DD 01000H	; std::_Iosb<int>::scientific
CONST	ENDS
;	COMDAT ?hex@?$_Iosb@H@std@@2W4_Fmtflags@12@B
CONST	SEGMENT
?hex@?$_Iosb@H@std@@2W4_Fmtflags@12@B DD 0800H		; std::_Iosb<int>::hex
CONST	ENDS
;	COMDAT ?oct@?$_Iosb@H@std@@2W4_Fmtflags@12@B
CONST	SEGMENT
?oct@?$_Iosb@H@std@@2W4_Fmtflags@12@B DD 0400H		; std::_Iosb<int>::oct
CONST	ENDS
;	COMDAT ?dec@?$_Iosb@H@std@@2W4_Fmtflags@12@B
CONST	SEGMENT
?dec@?$_Iosb@H@std@@2W4_Fmtflags@12@B DD 0200H		; std::_Iosb<int>::dec
CONST	ENDS
;	COMDAT ?internal@?$_Iosb@H@std@@2W4_Fmtflags@12@B
CONST	SEGMENT
?internal@?$_Iosb@H@std@@2W4_Fmtflags@12@B DD 0100H	; std::_Iosb<int>::internal
CONST	ENDS
;	COMDAT ?right@?$_Iosb@H@std@@2W4_Fmtflags@12@B
CONST	SEGMENT
?right@?$_Iosb@H@std@@2W4_Fmtflags@12@B DD 080H		; std::_Iosb<int>::right
CONST	ENDS
;	COMDAT ?left@?$_Iosb@H@std@@2W4_Fmtflags@12@B
CONST	SEGMENT
?left@?$_Iosb@H@std@@2W4_Fmtflags@12@B DD 040H		; std::_Iosb<int>::left
CONST	ENDS
;	COMDAT ?showpos@?$_Iosb@H@std@@2W4_Fmtflags@12@B
CONST	SEGMENT
?showpos@?$_Iosb@H@std@@2W4_Fmtflags@12@B DD 020H	; std::_Iosb<int>::showpos
CONST	ENDS
;	COMDAT ?showpoint@?$_Iosb@H@std@@2W4_Fmtflags@12@B
CONST	SEGMENT
?showpoint@?$_Iosb@H@std@@2W4_Fmtflags@12@B DD 010H	; std::_Iosb<int>::showpoint
CONST	ENDS
;	COMDAT ?showbase@?$_Iosb@H@std@@2W4_Fmtflags@12@B
CONST	SEGMENT
?showbase@?$_Iosb@H@std@@2W4_Fmtflags@12@B DD 08H	; std::_Iosb<int>::showbase
CONST	ENDS
;	COMDAT ?uppercase@?$_Iosb@H@std@@2W4_Fmtflags@12@B
CONST	SEGMENT
?uppercase@?$_Iosb@H@std@@2W4_Fmtflags@12@B DD 04H	; std::_Iosb<int>::uppercase
CONST	ENDS
;	COMDAT ?unitbuf@?$_Iosb@H@std@@2W4_Fmtflags@12@B
CONST	SEGMENT
?unitbuf@?$_Iosb@H@std@@2W4_Fmtflags@12@B DD 02H	; std::_Iosb<int>::unitbuf
CONST	ENDS
;	COMDAT ?skipws@?$_Iosb@H@std@@2W4_Fmtflags@12@B
CONST	SEGMENT
?skipws@?$_Iosb@H@std@@2W4_Fmtflags@12@B DD 01H		; std::_Iosb<int>::skipws
CONST	ENDS
;	COMDAT ?none@?$_Locbase@H@std@@2HB
CONST	SEGMENT
?none@?$_Locbase@H@std@@2HB DD 00H			; std::_Locbase<int>::none
CONST	ENDS
;	COMDAT ?all@?$_Locbase@H@std@@2HB
CONST	SEGMENT
?all@?$_Locbase@H@std@@2HB DD 03fH			; std::_Locbase<int>::all
CONST	ENDS
;	COMDAT ?messages@?$_Locbase@H@std@@2HB
CONST	SEGMENT
?messages@?$_Locbase@H@std@@2HB DD 020H			; std::_Locbase<int>::messages
CONST	ENDS
;	COMDAT ?time@?$_Locbase@H@std@@2HB
CONST	SEGMENT
?time@?$_Locbase@H@std@@2HB DD 010H			; std::_Locbase<int>::time
CONST	ENDS
;	COMDAT ?numeric@?$_Locbase@H@std@@2HB
CONST	SEGMENT
?numeric@?$_Locbase@H@std@@2HB DD 08H			; std::_Locbase<int>::numeric
CONST	ENDS
;	COMDAT ?monetary@?$_Locbase@H@std@@2HB
CONST	SEGMENT
?monetary@?$_Locbase@H@std@@2HB DD 04H			; std::_Locbase<int>::monetary
CONST	ENDS
;	COMDAT ?ctype@?$_Locbase@H@std@@2HB
CONST	SEGMENT
?ctype@?$_Locbase@H@std@@2HB DD 02H			; std::_Locbase<int>::ctype
CONST	ENDS
;	COMDAT ?collate@?$_Locbase@H@std@@2HB
CONST	SEGMENT
?collate@?$_Locbase@H@std@@2HB DD 01H			; std::_Locbase<int>::collate
CONST	ENDS
;	COMDAT ?_Rank@?$_Arithmetic_traits@O@std@@2HB
CONST	SEGMENT
?_Rank@?$_Arithmetic_traits@O@std@@2HB DD 09H		; std::_Arithmetic_traits<long double>::_Rank
CONST	ENDS
;	COMDAT ?_Rank@?$_Arithmetic_traits@N@std@@2HB
CONST	SEGMENT
?_Rank@?$_Arithmetic_traits@N@std@@2HB DD 08H		; std::_Arithmetic_traits<double>::_Rank
CONST	ENDS
;	COMDAT ?_Rank@?$_Arithmetic_traits@M@std@@2HB
CONST	SEGMENT
?_Rank@?$_Arithmetic_traits@M@std@@2HB DD 07H		; std::_Arithmetic_traits<float>::_Rank
CONST	ENDS
;	COMDAT ?_Rank@?$_Arithmetic_traits@_K@std@@2HB
CONST	SEGMENT
?_Rank@?$_Arithmetic_traits@_K@std@@2HB DD 06H		; std::_Arithmetic_traits<unsigned __int64>::_Rank
CONST	ENDS
;	COMDAT ?_Rank@?$_Arithmetic_traits@_J@std@@2HB
CONST	SEGMENT
?_Rank@?$_Arithmetic_traits@_J@std@@2HB DD 06H		; std::_Arithmetic_traits<__int64>::_Rank
CONST	ENDS
;	COMDAT ?_Rank@?$_Arithmetic_traits@K@std@@2HB
CONST	SEGMENT
?_Rank@?$_Arithmetic_traits@K@std@@2HB DD 05H		; std::_Arithmetic_traits<unsigned long>::_Rank
CONST	ENDS
;	COMDAT ?_Rank@?$_Arithmetic_traits@J@std@@2HB
CONST	SEGMENT
?_Rank@?$_Arithmetic_traits@J@std@@2HB DD 05H		; std::_Arithmetic_traits<long>::_Rank
CONST	ENDS
;	COMDAT ?_Rank@?$_Arithmetic_traits@I@std@@2HB
CONST	SEGMENT
?_Rank@?$_Arithmetic_traits@I@std@@2HB DD 04H		; std::_Arithmetic_traits<unsigned int>::_Rank
CONST	ENDS
;	COMDAT ?_Rank@?$_Arithmetic_traits@H@std@@2HB
CONST	SEGMENT
?_Rank@?$_Arithmetic_traits@H@std@@2HB DD 04H		; std::_Arithmetic_traits<int>::_Rank
CONST	ENDS
;	COMDAT ?_Rank@?$_Arithmetic_traits@G@std@@2HB
CONST	SEGMENT
?_Rank@?$_Arithmetic_traits@G@std@@2HB DD 03H		; std::_Arithmetic_traits<unsigned short>::_Rank
CONST	ENDS
;	COMDAT ?_Rank@?$_Arithmetic_traits@F@std@@2HB
CONST	SEGMENT
?_Rank@?$_Arithmetic_traits@F@std@@2HB DD 03H		; std::_Arithmetic_traits<short>::_Rank
CONST	ENDS
;	COMDAT ?_Rank@?$_Arithmetic_traits@E@std@@2HB
CONST	SEGMENT
?_Rank@?$_Arithmetic_traits@E@std@@2HB DD 02H		; std::_Arithmetic_traits<unsigned char>::_Rank
CONST	ENDS
;	COMDAT ?_Rank@?$_Arithmetic_traits@C@std@@2HB
CONST	SEGMENT
?_Rank@?$_Arithmetic_traits@C@std@@2HB DD 02H		; std::_Arithmetic_traits<signed char>::_Rank
CONST	ENDS
;	COMDAT ?_Rank@?$_Arithmetic_traits@D@std@@2HB
CONST	SEGMENT
?_Rank@?$_Arithmetic_traits@D@std@@2HB DD 02H		; std::_Arithmetic_traits<char>::_Rank
CONST	ENDS
;	COMDAT ?_Rank@?$_Arithmetic_traits@_N@std@@2HB
CONST	SEGMENT
?_Rank@?$_Arithmetic_traits@_N@std@@2HB DD 01H		; std::_Arithmetic_traits<bool>::_Rank
CONST	ENDS
;	COMDAT ?value@?$integral_constant@I$0A@@tr1@std@@2IB
CONST	SEGMENT
?value@?$integral_constant@I$0A@@tr1@std@@2IB DD 00H	; std::tr1::integral_constant<unsigned int,0>::value
CONST	ENDS
;	COMDAT ?value@?$integral_constant@_N$00@tr1@std@@2_NB
CONST	SEGMENT
?value@?$integral_constant@_N$00@tr1@std@@2_NB DB 01H	; std::tr1::integral_constant<bool,1>::value
CONST	ENDS
;	COMDAT ?value@?$integral_constant@_N$0A@@tr1@std@@2_NB
CONST	SEGMENT
?value@?$integral_constant@_N$0A@@tr1@std@@2_NB DB 00H	; std::tr1::integral_constant<bool,0>::value
CONST	ENDS
PUBLIC	??2@YAPAXI@Z					; operator new
EXTRN	__RTC_Shutdown:PROC
EXTRN	__RTC_InitBase:PROC
;	COMDAT rtc$TMZ
; File d:\mozilla\intl\icu\include\unicode\utypes.h
rtc$TMZ	SEGMENT
__RTC_Shutdown.rtc$TMZ DD FLAT:__RTC_Shutdown
rtc$TMZ	ENDS
;	COMDAT rtc$IMZ
rtc$IMZ	SEGMENT
__RTC_InitBase.rtc$IMZ DD FLAT:__RTC_InitBase
; Function compile flags: /Odtp /RTCsu /ZI
rtc$IMZ	ENDS
;	COMDAT ??2@YAPAXI@Z
_TEXT	SEGMENT
_q$ = -8						; size = 4
___formal$ = 8						; size = 4
??2@YAPAXI@Z PROC					; operator new, COMDAT
; Line 411
	push	ebp
	mov	ebp, esp
	sub	esp, 204				; 000000ccH
	push	ebx
	push	esi
	push	edi
	lea	edi, DWORD PTR [ebp-204]
	mov	ecx, 51					; 00000033H
	mov	eax, -858993460				; ccccccccH
	rep stosd
; Line 412
	mov	DWORD PTR _q$[ebp], 0
; Line 413
	mov	eax, DWORD PTR _q$[ebp]
	mov	BYTE PTR [eax], 5
; Line 414
	mov	eax, DWORD PTR _q$[ebp]
; Line 415
	pop	edi
	pop	esi
	pop	ebx
	mov	esp, ebp
	pop	ebp
	ret	0
??2@YAPAXI@Z ENDP					; operator new
_TEXT	ENDS
PUBLIC	??3@YAXPAX@Z					; operator delete
; Function compile flags: /Odtp /RTCsu /ZI
;	COMDAT ??3@YAXPAX@Z
_TEXT	SEGMENT
_q$ = -8						; size = 4
___formal$ = 8						; size = 4
??3@YAXPAX@Z PROC					; operator delete, COMDAT
; Line 439
	push	ebp
	mov	ebp, esp
	sub	esp, 204				; 000000ccH
	push	ebx
	push	esi
	push	edi
	lea	edi, DWORD PTR [ebp-204]
	mov	ecx, 51					; 00000033H
	mov	eax, -858993460				; ccccccccH
	rep stosd
; Line 440
	mov	DWORD PTR _q$[ebp], 0
; Line 441
	mov	eax, DWORD PTR _q$[ebp]
	mov	BYTE PTR [eax], 5
; Line 442
	pop	edi
	pop	esi
	pop	ebx
	mov	esp, ebp
	pop	ebp
	ret	0
??3@YAXPAX@Z ENDP					; operator delete
_TEXT	ENDS
PUBLIC	??9Formattable@icu_56@@QBECABV01@@Z		; icu_56::Formattable::operator!=
EXTRN	??8Formattable@icu_56@@QBECABV01@@Z:PROC	; icu_56::Formattable::operator==
EXTRN	__RTC_CheckEsp:PROC
; Function compile flags: /Odtp /RTCsu /ZI
;	COMDAT ??9Formattable@icu_56@@QBECABV01@@Z
_TEXT	SEGMENT
_this$ = -8						; size = 4
_other$ = 8						; size = 4
??9Formattable@icu_56@@QBECABV01@@Z PROC		; icu_56::Formattable::operator!=, COMDAT
; _this$ = ecx
; File d:\mozilla\intl\icu\source\i18n\unicode\fmtable.h
; Line 196
	push	ebp
	mov	ebp, esp
	sub	esp, 204				; 000000ccH
	push	ebx
	push	esi
	push	edi
	push	ecx
	lea	edi, DWORD PTR [ebp-204]
	mov	ecx, 51					; 00000033H
	mov	eax, -858993460				; ccccccccH
	rep stosd
	pop	ecx
	mov	DWORD PTR _this$[ebp], ecx
	mov	eax, DWORD PTR _other$[ebp]
	push	eax
	mov	ecx, DWORD PTR _this$[ebp]
	call	??8Formattable@icu_56@@QBECABV01@@Z	; icu_56::Formattable::operator==
	movsx	ecx, al
	test	ecx, ecx
	sete	al
	pop	edi
	pop	esi
	pop	ebx
	add	esp, 204				; 000000ccH
	cmp	ebp, esp
	call	__RTC_CheckEsp
	mov	esp, ebp
	pop	ebp
	ret	4
??9Formattable@icu_56@@QBECABV01@@Z ENDP		; icu_56::Formattable::operator!=
_TEXT	ENDS
PUBLIC	?getDouble@Formattable@icu_56@@QBENXZ		; icu_56::Formattable::getDouble
EXTRN	__fltused:DWORD
; Function compile flags: /Odtp /RTCsu /ZI
;	COMDAT ?getDouble@Formattable@icu_56@@QBENXZ
_TEXT	SEGMENT
_this$ = -8						; size = 4
?getDouble@Formattable@icu_56@@QBENXZ PROC		; icu_56::Formattable::getDouble, COMDAT
; _this$ = ecx
; Line 295
	push	ebp
	mov	ebp, esp
	sub	esp, 204				; 000000ccH
	push	ebx
	push	esi
	push	edi
	push	ecx
	lea	edi, DWORD PTR [ebp-204]
	mov	ecx, 51					; 00000033H
	mov	eax, -858993460				; ccccccccH
	rep stosd
	pop	ecx
	mov	DWORD PTR _this$[ebp], ecx
	mov	eax, DWORD PTR _this$[ebp]
	fld	QWORD PTR [eax+8]
	pop	edi
	pop	esi
	pop	ebx
	mov	esp, ebp
	pop	ebp
	ret	0
?getDouble@Formattable@icu_56@@QBENXZ ENDP		; icu_56::Formattable::getDouble
_TEXT	ENDS
PUBLIC	?getLong@Formattable@icu_56@@QBEHXZ		; icu_56::Formattable::getLong
; Function compile flags: /Odtp /RTCsu /ZI
;	COMDAT ?getLong@Formattable@icu_56@@QBEHXZ
_TEXT	SEGMENT
_this$ = -8						; size = 4
?getLong@Formattable@icu_56@@QBEHXZ PROC		; icu_56::Formattable::getLong, COMDAT
; _this$ = ecx
; Line 317
	push	ebp
	mov	ebp, esp
	sub	esp, 204				; 000000ccH
	push	ebx
	push	esi
	push	edi
	push	ecx
	lea	edi, DWORD PTR [ebp-204]
	mov	ecx, 51					; 00000033H
	mov	eax, -858993460				; ccccccccH
	rep stosd
	pop	ecx
	mov	DWORD PTR _this$[ebp], ecx
	mov	eax, DWORD PTR _this$[ebp]
	mov	eax, DWORD PTR [eax+8]
	pop	edi
	pop	esi
	pop	ebx
	mov	esp, ebp
	pop	ebp
	ret	0
?getLong@Formattable@icu_56@@QBEHXZ ENDP		; icu_56::Formattable::getLong
_TEXT	ENDS
PUBLIC	?getInt64@Formattable@icu_56@@QBE_JXZ		; icu_56::Formattable::getInt64
; Function compile flags: /Odtp /RTCsu /ZI
;	COMDAT ?getInt64@Formattable@icu_56@@QBE_JXZ
_TEXT	SEGMENT
_this$ = -8						; size = 4
?getInt64@Formattable@icu_56@@QBE_JXZ PROC		; icu_56::Formattable::getInt64, COMDAT
; _this$ = ecx
; Line 343
	push	ebp
	mov	ebp, esp
	sub	esp, 204				; 000000ccH
	push	ebx
	push	esi
	push	edi
	push	ecx
	lea	edi, DWORD PTR [ebp-204]
	mov	ecx, 51					; 00000033H
	mov	eax, -858993460				; ccccccccH
	rep stosd
	pop	ecx
	mov	DWORD PTR _this$[ebp], ecx
	mov	ecx, DWORD PTR _this$[ebp]
	mov	eax, DWORD PTR [ecx+8]
	mov	edx, DWORD PTR [ecx+12]
	pop	edi
	pop	esi
	pop	ebx
	mov	esp, ebp
	pop	ebp
	ret	0
?getInt64@Formattable@icu_56@@QBE_JXZ ENDP		; icu_56::Formattable::getInt64
_TEXT	ENDS
PUBLIC	?getDate@Formattable@icu_56@@QBENXZ		; icu_56::Formattable::getDate
; Function compile flags: /Odtp /RTCsu /ZI
;	COMDAT ?getDate@Formattable@icu_56@@QBENXZ
_TEXT	SEGMENT
_this$ = -8						; size = 4
?getDate@Formattable@icu_56@@QBENXZ PROC		; icu_56::Formattable::getDate, COMDAT
; _this$ = ecx
; Line 368
	push	ebp
	mov	ebp, esp
	sub	esp, 204				; 000000ccH
	push	ebx
	push	esi
	push	edi
	push	ecx
	lea	edi, DWORD PTR [ebp-204]
	mov	ecx, 51					; 00000033H
	mov	eax, -858993460				; ccccccccH
	rep stosd
	pop	ecx
	mov	DWORD PTR _this$[ebp], ecx
	mov	eax, DWORD PTR _this$[ebp]
	fld	QWORD PTR [eax+8]
	pop	edi
	pop	esi
	pop	ebx
	mov	esp, ebp
	pop	ebp
	ret	0
?getDate@Formattable@icu_56@@QBENXZ ENDP		; icu_56::Formattable::getDate
_TEXT	ENDS
PUBLIC	?getString@Formattable@icu_56@@QBEAAVUnicodeString@2@AAV32@@Z ; icu_56::Formattable::getString
EXTRN	__imp_??4UnicodeString@icu_56@@QAEAAV01@ABV01@@Z:PROC
; Function compile flags: /Odtp /RTCsu /ZI
;	COMDAT ?getString@Formattable@icu_56@@QBEAAVUnicodeString@2@AAV32@@Z
_TEXT	SEGMENT
_this$ = -8						; size = 4
_result$ = 8						; size = 4
?getString@Formattable@icu_56@@QBEAAVUnicodeString@2@AAV32@@Z PROC ; icu_56::Formattable::getString, COMDAT
; _this$ = ecx
; Line 388
	push	ebp
	mov	ebp, esp
	sub	esp, 204				; 000000ccH
	push	ebx
	push	esi
	push	edi
	push	ecx
	lea	edi, DWORD PTR [ebp-204]
	mov	ecx, 51					; 00000033H
	mov	eax, -858993460				; ccccccccH
	rep stosd
	pop	ecx
	mov	DWORD PTR _this$[ebp], ecx
	mov	esi, esp
	mov	eax, DWORD PTR _this$[ebp]
	mov	ecx, DWORD PTR [eax+8]
	push	ecx
	mov	ecx, DWORD PTR _result$[ebp]
	call	DWORD PTR __imp_??4UnicodeString@icu_56@@QAEAAV01@ABV01@@Z
	cmp	esi, esp
	call	__RTC_CheckEsp
	mov	eax, DWORD PTR _result$[ebp]
	pop	edi
	pop	esi
	pop	ebx
	add	esp, 204				; 000000ccH
	cmp	ebp, esp
	call	__RTC_CheckEsp
	mov	esp, ebp
	pop	ebp
	ret	4
?getString@Formattable@icu_56@@QBEAAVUnicodeString@2@AAV32@@Z ENDP ; icu_56::Formattable::getString
_TEXT	ENDS
PUBLIC	?getArray@Formattable@icu_56@@QBEPBV12@AAH@Z	; icu_56::Formattable::getArray
; Function compile flags: /Odtp /RTCsu /ZI
;	COMDAT ?getArray@Formattable@icu_56@@QBEPBV12@AAH@Z
_TEXT	SEGMENT
_this$ = -8						; size = 4
_count$ = 8						; size = 4
?getArray@Formattable@icu_56@@QBEPBV12@AAH@Z PROC	; icu_56::Formattable::getArray, COMDAT
; _this$ = ecx
; Line 446
	push	ebp
	mov	ebp, esp
	sub	esp, 204				; 000000ccH
	push	ebx
	push	esi
	push	edi
	push	ecx
	lea	edi, DWORD PTR [ebp-204]
	mov	ecx, 51					; 00000033H
	mov	eax, -858993460				; ccccccccH
	rep stosd
	pop	ecx
	mov	DWORD PTR _this$[ebp], ecx
	mov	eax, DWORD PTR _count$[ebp]
	mov	ecx, DWORD PTR _this$[ebp]
	mov	edx, DWORD PTR [ecx+12]
	mov	DWORD PTR [eax], edx
	mov	eax, DWORD PTR _this$[ebp]
	mov	eax, DWORD PTR [eax+8]
	pop	edi
	pop	esi
	pop	ebx
	mov	esp, ebp
	pop	ebp
	ret	4
?getArray@Formattable@icu_56@@QBEPBV12@AAH@Z ENDP	; icu_56::Formattable::getArray
_TEXT	ENDS
PUBLIC	??AFormattable@icu_56@@QAEAAV01@H@Z		; icu_56::Formattable::operator[]
; Function compile flags: /Odtp /RTCsu /ZI
;	COMDAT ??AFormattable@icu_56@@QAEAAV01@H@Z
_TEXT	SEGMENT
_this$ = -8						; size = 4
_index$ = 8						; size = 4
??AFormattable@icu_56@@QAEAAV01@H@Z PROC		; icu_56::Formattable::operator[], COMDAT
; _this$ = ecx
; Line 467
	push	ebp
	mov	ebp, esp
	sub	esp, 204				; 000000ccH
	push	ebx
	push	esi
	push	edi
	push	ecx
	lea	edi, DWORD PTR [ebp-204]
	mov	ecx, 51					; 00000033H
	mov	eax, -858993460				; ccccccccH
	rep stosd
	pop	ecx
	mov	DWORD PTR _this$[ebp], ecx
	mov	eax, DWORD PTR _index$[ebp]
	imul	eax, 224				; 000000e0H
	mov	ecx, DWORD PTR _this$[ebp]
	add	eax, DWORD PTR [ecx+8]
	pop	edi
	pop	esi
	pop	ebx
	mov	esp, ebp
	pop	ebp
	ret	4
??AFormattable@icu_56@@QAEAAV01@H@Z ENDP		; icu_56::Formattable::operator[]
_TEXT	ENDS
PUBLIC	?getDigitList@Formattable@icu_56@@QBEPAVDigitList@2@XZ ; icu_56::Formattable::getDigitList
; Function compile flags: /Odtp /RTCsu /ZI
;	COMDAT ?getDigitList@Formattable@icu_56@@QBEPAVDigitList@2@XZ
_TEXT	SEGMENT
_this$ = -8						; size = 4
?getDigitList@Formattable@icu_56@@QBEPAVDigitList@2@XZ PROC ; icu_56::Formattable::getDigitList, COMDAT
; _this$ = ecx
; Line 654
	push	ebp
	mov	ebp, esp
	sub	esp, 204				; 000000ccH
	push	ebx
	push	esi
	push	edi
	push	ecx
	lea	edi, DWORD PTR [ebp-204]
	mov	ecx, 51					; 00000033H
	mov	eax, -858993460				; ccccccccH
	rep stosd
	pop	ecx
	mov	DWORD PTR _this$[ebp], ecx
	mov	eax, DWORD PTR _this$[ebp]
	mov	eax, DWORD PTR [eax+20]
	pop	edi
	pop	esi
	pop	ebx
	mov	esp, ebp
	pop	ebp
	ret	0
?getDigitList@Formattable@icu_56@@QBEPAVDigitList@2@XZ ENDP ; icu_56::Formattable::getDigitList
_TEXT	ENDS
PUBLIC	__real@0000000000000000
PUBLIC	?getDate@Formattable@icu_56@@QBENAAW4UErrorCode@@@Z ; icu_56::Formattable::getDate
;	COMDAT __real@0000000000000000
CONST	SEGMENT
__real@0000000000000000 DQ 00000000000000000r	; 0
; Function compile flags: /Odtp /RTCsu /ZI
CONST	ENDS
;	COMDAT ?getDate@Formattable@icu_56@@QBENAAW4UErrorCode@@@Z
_TEXT	SEGMENT
_this$ = -8						; size = 4
_status$ = 8						; size = 4
?getDate@Formattable@icu_56@@QBENAAW4UErrorCode@@@Z PROC ; icu_56::Formattable::getDate, COMDAT
; _this$ = ecx
; Line 715
	push	ebp
	mov	ebp, esp
	sub	esp, 204				; 000000ccH
	push	ebx
	push	esi
	push	edi
	push	ecx
	lea	edi, DWORD PTR [ebp-204]
	mov	ecx, 51					; 00000033H
	mov	eax, -858993460				; ccccccccH
	rep stosd
	pop	ecx
	mov	DWORD PTR _this$[ebp], ecx
; Line 716
	mov	eax, DWORD PTR _this$[ebp]
	cmp	DWORD PTR [eax+152], 0
	je	SHORT $LN2@getDate
; Line 717
	mov	eax, DWORD PTR _status$[ebp]
	mov	ecx, DWORD PTR [eax]
	push	ecx
	call	?U_SUCCESS@@YACW4UErrorCode@@@Z		; U_SUCCESS
	add	esp, 4
	movsx	edx, al
	test	edx, edx
	je	SHORT $LN1@getDate
; Line 718
	mov	eax, DWORD PTR _status$[ebp]
	mov	DWORD PTR [eax], 3
$LN1@getDate:
; Line 720
	fldz
	jmp	SHORT $LN3@getDate
$LN2@getDate:
; Line 722
	mov	eax, DWORD PTR _this$[ebp]
	fld	QWORD PTR [eax+8]
$LN3@getDate:
; Line 723
	pop	edi
	pop	esi
	pop	ebx
	add	esp, 204				; 000000ccH
	cmp	ebp, esp
	call	__RTC_CheckEsp
	mov	esp, ebp
	pop	ebp
	ret	4
?getDate@Formattable@icu_56@@QBENAAW4UErrorCode@@@Z ENDP ; icu_56::Formattable::getDate
; Function compile flags: /Odtp /RTCsu /ZI
_TEXT	ENDS
;	COMDAT ?U_SUCCESS@@YACW4UErrorCode@@@Z
_TEXT	SEGMENT
_code$ = 8						; size = 4
?U_SUCCESS@@YACW4UErrorCode@@@Z PROC			; U_SUCCESS, COMDAT
; File d:\mozilla\intl\icu\include\unicode\utypes.h
; Line 699
	push	ebp
	mov	ebp, esp
	sub	esp, 192				; 000000c0H
	push	ebx
	push	esi
	push	edi
	lea	edi, DWORD PTR [ebp-192]
	mov	ecx, 48					; 00000030H
	mov	eax, -858993460				; ccccccccH
	rep stosd
	cmp	DWORD PTR _code$[ebp], 0
	setle	al
	pop	edi
	pop	esi
	pop	ebx
	mov	esp, ebp
	pop	ebp
	ret	0
?U_SUCCESS@@YACW4UErrorCode@@@Z ENDP			; U_SUCCESS
_TEXT	ENDS
PUBLIC	?getString@Formattable@icu_56@@QBEABVUnicodeString@2@XZ ; icu_56::Formattable::getString
; Function compile flags: /Odtp /RTCsu /ZI
;	COMDAT ?getString@Formattable@icu_56@@QBEABVUnicodeString@2@XZ
_TEXT	SEGMENT
_this$ = -8						; size = 4
?getString@Formattable@icu_56@@QBEABVUnicodeString@2@XZ PROC ; icu_56::Formattable::getString, COMDAT
; _this$ = ecx
; File d:\mozilla\intl\icu\source\i18n\unicode\fmtable.h
; Line 725
	push	ebp
	mov	ebp, esp
	sub	esp, 204				; 000000ccH
	push	ebx
	push	esi
	push	edi
	push	ecx
	lea	edi, DWORD PTR [ebp-204]
	mov	ecx, 51					; 00000033H
	mov	eax, -858993460				; ccccccccH
	rep stosd
	pop	ecx
	mov	DWORD PTR _this$[ebp], ecx
; Line 726
	mov	eax, DWORD PTR _this$[ebp]
	mov	eax, DWORD PTR [eax+8]
; Line 727
	pop	edi
	pop	esi
	pop	ebx
	mov	esp, ebp
	pop	ebp
	ret	0
?getString@Formattable@icu_56@@QBEABVUnicodeString@2@XZ ENDP ; icu_56::Formattable::getString
_TEXT	ENDS
PUBLIC	?getString@Formattable@icu_56@@QAEAAVUnicodeString@2@XZ ; icu_56::Formattable::getString
; Function compile flags: /Odtp /RTCsu /ZI
;	COMDAT ?getString@Formattable@icu_56@@QAEAAVUnicodeString@2@XZ
_TEXT	SEGMENT
_this$ = -8						; size = 4
?getString@Formattable@icu_56@@QAEAAVUnicodeString@2@XZ PROC ; icu_56::Formattable::getString, COMDAT
; _this$ = ecx
; Line 729
	push	ebp
	mov	ebp, esp
	sub	esp, 204				; 000000ccH
	push	ebx
	push	esi
	push	edi
	push	ecx
	lea	edi, DWORD PTR [ebp-204]
	mov	ecx, 51					; 00000033H
	mov	eax, -858993460				; ccccccccH
	rep stosd
	pop	ecx
	mov	DWORD PTR _this$[ebp], ecx
; Line 730
	mov	eax, DWORD PTR _this$[ebp]
	mov	eax, DWORD PTR [eax+8]
; Line 731
	pop	edi
	pop	esi
	pop	ebx
	mov	esp, ebp
	pop	ebp
	ret	0
?getString@Formattable@icu_56@@QAEAAVUnicodeString@2@XZ ENDP ; icu_56::Formattable::getString
_TEXT	ENDS
PUBLIC	?getLong@Formattable@icu_56@@QBEHPAW4UErrorCode@@@Z ; icu_56::Formattable::getLong
EXTRN	?getLong@Formattable@icu_56@@QBEHAAW4UErrorCode@@@Z:PROC ; icu_56::Formattable::getLong
; Function compile flags: /Odtp /RTCsu /ZI
;	COMDAT ?getLong@Formattable@icu_56@@QBEHPAW4UErrorCode@@@Z
_TEXT	SEGMENT
_this$ = -8						; size = 4
_status$ = 8						; size = 4
?getLong@Formattable@icu_56@@QBEHPAW4UErrorCode@@@Z PROC ; icu_56::Formattable::getLong, COMDAT
; _this$ = ecx
; Line 734
	push	ebp
	mov	ebp, esp
	sub	esp, 204				; 000000ccH
	push	ebx
	push	esi
	push	edi
	push	ecx
	lea	edi, DWORD PTR [ebp-204]
	mov	ecx, 51					; 00000033H
	mov	eax, -858993460				; ccccccccH
	rep stosd
	pop	ecx
	mov	DWORD PTR _this$[ebp], ecx
; Line 735
	mov	eax, DWORD PTR _status$[ebp]
	push	eax
	mov	ecx, DWORD PTR _this$[ebp]
	call	?getLong@Formattable@icu_56@@QBEHAAW4UErrorCode@@@Z ; icu_56::Formattable::getLong
; Line 736
	pop	edi
	pop	esi
	pop	ebx
	add	esp, 204				; 000000ccH
	cmp	ebp, esp
	call	__RTC_CheckEsp
	mov	esp, ebp
	pop	ebp
	ret	4
?getLong@Formattable@icu_56@@QBEHPAW4UErrorCode@@@Z ENDP ; icu_56::Formattable::getLong
_TEXT	ENDS
PUBLIC	?toUFormattable@Formattable@icu_56@@QAEPAPAXXZ	; icu_56::Formattable::toUFormattable
; Function compile flags: /Odtp /RTCsu /ZI
;	COMDAT ?toUFormattable@Formattable@icu_56@@QAEPAPAXXZ
_TEXT	SEGMENT
_this$ = -8						; size = 4
?toUFormattable@Formattable@icu_56@@QAEPAPAXXZ PROC	; icu_56::Formattable::toUFormattable, COMDAT
; _this$ = ecx
; Line 739
	push	ebp
	mov	ebp, esp
	sub	esp, 204				; 000000ccH
	push	ebx
	push	esi
	push	edi
	push	ecx
	lea	edi, DWORD PTR [ebp-204]
	mov	ecx, 51					; 00000033H
	mov	eax, -858993460				; ccccccccH
	rep stosd
	pop	ecx
	mov	DWORD PTR _this$[ebp], ecx
; Line 740
	mov	eax, DWORD PTR _this$[ebp]
; Line 741
	pop	edi
	pop	esi
	pop	ebx
	mov	esp, ebp
	pop	ebp
	ret	0
?toUFormattable@Formattable@icu_56@@QAEPAPAXXZ ENDP	; icu_56::Formattable::toUFormattable
_TEXT	ENDS
PUBLIC	?toUFormattable@Formattable@icu_56@@QBEPBQAXXZ	; icu_56::Formattable::toUFormattable
; Function compile flags: /Odtp /RTCsu /ZI
;	COMDAT ?toUFormattable@Formattable@icu_56@@QBEPBQAXXZ
_TEXT	SEGMENT
_this$ = -8						; size = 4
?toUFormattable@Formattable@icu_56@@QBEPBQAXXZ PROC	; icu_56::Formattable::toUFormattable, COMDAT
; _this$ = ecx
; Line 743
	push	ebp
	mov	ebp, esp
	sub	esp, 204				; 000000ccH
	push	ebx
	push	esi
	push	edi
	push	ecx
	lea	edi, DWORD PTR [ebp-204]
	mov	ecx, 51					; 00000033H
	mov	eax, -858993460				; ccccccccH
	rep stosd
	pop	ecx
	mov	DWORD PTR _this$[ebp], ecx
; Line 744
	mov	eax, DWORD PTR _this$[ebp]
; Line 745
	pop	edi
	pop	esi
	pop	ebx
	mov	esp, ebp
	pop	ebp
	ret	0
?toUFormattable@Formattable@icu_56@@QBEPBQAXXZ ENDP	; icu_56::Formattable::toUFormattable
_TEXT	ENDS
PUBLIC	?fromUFormattable@Formattable@icu_56@@SAPAV12@PAPAX@Z ; icu_56::Formattable::fromUFormattable
; Function compile flags: /Odtp /RTCsu /ZI
;	COMDAT ?fromUFormattable@Formattable@icu_56@@SAPAV12@PAPAX@Z
_TEXT	SEGMENT
_fmt$ = 8						; size = 4
?fromUFormattable@Formattable@icu_56@@SAPAV12@PAPAX@Z PROC ; icu_56::Formattable::fromUFormattable, COMDAT
; Line 747
	push	ebp
	mov	ebp, esp
	sub	esp, 192				; 000000c0H
	push	ebx
	push	esi
	push	edi
	lea	edi, DWORD PTR [ebp-192]
	mov	ecx, 48					; 00000030H
	mov	eax, -858993460				; ccccccccH
	rep stosd
; Line 748
	mov	eax, DWORD PTR _fmt$[ebp]
; Line 749
	pop	edi
	pop	esi
	pop	ebx
	mov	esp, ebp
	pop	ebp
	ret	0
?fromUFormattable@Formattable@icu_56@@SAPAV12@PAPAX@Z ENDP ; icu_56::Formattable::fromUFormattable
_TEXT	ENDS
PUBLIC	?fromUFormattable@Formattable@icu_56@@SAPBV12@PBQAX@Z ; icu_56::Formattable::fromUFormattable
; Function compile flags: /Odtp /RTCsu /ZI
;	COMDAT ?fromUFormattable@Formattable@icu_56@@SAPBV12@PBQAX@Z
_TEXT	SEGMENT
_fmt$ = 8						; size = 4
?fromUFormattable@Formattable@icu_56@@SAPBV12@PBQAX@Z PROC ; icu_56::Formattable::fromUFormattable, COMDAT
; Line 751
	push	ebp
	mov	ebp, esp
	sub	esp, 192				; 000000c0H
	push	ebx
	push	esi
	push	edi
	lea	edi, DWORD PTR [ebp-192]
	mov	ecx, 48					; 00000030H
	mov	eax, -858993460				; ccccccccH
	rep stosd
; Line 752
	mov	eax, DWORD PTR _fmt$[ebp]
; Line 753
	pop	edi
	pop	esi
	pop	ebx
	mov	esp, ebp
	pop	ebp
	ret	0
?fromUFormattable@Formattable@icu_56@@SAPBV12@PBQAX@Z ENDP ; icu_56::Formattable::fromUFormattable
_TEXT	ENDS
PUBLIC	??_7FieldPosition@icu_56@@6B@			; icu_56::FieldPosition::`vftable'
PUBLIC	??0FieldPosition@icu_56@@QAE@XZ			; icu_56::FieldPosition::FieldPosition
PUBLIC	??_R4FieldPosition@icu_56@@6B@			; icu_56::FieldPosition::`RTTI Complete Object Locator'
PUBLIC	??_R0?AVFieldPosition@icu_56@@@8		; icu_56::FieldPosition `RTTI Type Descriptor'
PUBLIC	??_R3FieldPosition@icu_56@@8			; icu_56::FieldPosition::`RTTI Class Hierarchy Descriptor'
PUBLIC	??_R2FieldPosition@icu_56@@8			; icu_56::FieldPosition::`RTTI Base Class Array'
PUBLIC	??_R1A@?0A@EA@FieldPosition@icu_56@@8		; icu_56::FieldPosition::`RTTI Base Class Descriptor at (0,-1,0,64)'
PUBLIC	??_R1A@?0A@EA@UObject@icu_56@@8			; icu_56::UObject::`RTTI Base Class Descriptor at (0,-1,0,64)'
PUBLIC	??_R0?AVUObject@icu_56@@@8			; icu_56::UObject `RTTI Type Descriptor'
PUBLIC	??_R3UObject@icu_56@@8				; icu_56::UObject::`RTTI Class Hierarchy Descriptor'
PUBLIC	??_R2UObject@icu_56@@8				; icu_56::UObject::`RTTI Base Class Array'
PUBLIC	??_R13?0A@EA@UMemory@icu_56@@8			; icu_56::UMemory::`RTTI Base Class Descriptor at (4,-1,0,64)'
PUBLIC	??_R0?AVUMemory@icu_56@@@8			; icu_56::UMemory `RTTI Type Descriptor'
PUBLIC	??_R3UMemory@icu_56@@8				; icu_56::UMemory::`RTTI Class Hierarchy Descriptor'
PUBLIC	??_R2UMemory@icu_56@@8				; icu_56::UMemory::`RTTI Base Class Array'
PUBLIC	??_R1A@?0A@EA@UMemory@icu_56@@8			; icu_56::UMemory::`RTTI Base Class Descriptor at (0,-1,0,64)'
PUBLIC	??_EFieldPosition@icu_56@@UAEPAXI@Z		; icu_56::FieldPosition::`vector deleting destructor'
EXTRN	__imp_??0UObject@icu_56@@QAE@XZ:PROC
EXTRN	??_7type_info@@6B@:QWORD			; type_info::`vftable'
EXTRN	?getDynamicClassID@FieldPosition@icu_56@@UBEPAXXZ:PROC ; icu_56::FieldPosition::getDynamicClassID
;	COMDAT ??_R1A@?0A@EA@UMemory@icu_56@@8
; File d:\mozilla\intl\icu\source\i18n\unicode\fieldpos.h
rdata$r	SEGMENT
??_R1A@?0A@EA@UMemory@icu_56@@8 DD FLAT:??_R0?AVUMemory@icu_56@@@8 ; icu_56::UMemory::`RTTI Base Class Descriptor at (0,-1,0,64)'
	DD	00H
	DD	00H
	DD	0ffffffffH
	DD	00H
	DD	040H
	DD	FLAT:??_R3UMemory@icu_56@@8
rdata$r	ENDS
;	COMDAT ??_R2UMemory@icu_56@@8
rdata$r	SEGMENT
??_R2UMemory@icu_56@@8 DD FLAT:??_R1A@?0A@EA@UMemory@icu_56@@8 ; icu_56::UMemory::`RTTI Base Class Array'
rdata$r	ENDS
;	COMDAT ??_R3UMemory@icu_56@@8
rdata$r	SEGMENT
??_R3UMemory@icu_56@@8 DD 00H				; icu_56::UMemory::`RTTI Class Hierarchy Descriptor'
	DD	00H
	DD	01H
	DD	FLAT:??_R2UMemory@icu_56@@8
rdata$r	ENDS
;	COMDAT ??_R0?AVUMemory@icu_56@@@8
_DATA	SEGMENT
??_R0?AVUMemory@icu_56@@@8 DD FLAT:??_7type_info@@6B@	; icu_56::UMemory `RTTI Type Descriptor'
	DD	00H
	DB	'.?AVUMemory@icu_56@@', 00H
_DATA	ENDS
;	COMDAT ??_R13?0A@EA@UMemory@icu_56@@8
rdata$r	SEGMENT
??_R13?0A@EA@UMemory@icu_56@@8 DD FLAT:??_R0?AVUMemory@icu_56@@@8 ; icu_56::UMemory::`RTTI Base Class Descriptor at (4,-1,0,64)'
	DD	00H
	DD	04H
	DD	0ffffffffH
	DD	00H
	DD	040H
	DD	FLAT:??_R3UMemory@icu_56@@8
rdata$r	ENDS
;	COMDAT ??_R2UObject@icu_56@@8
rdata$r	SEGMENT
??_R2UObject@icu_56@@8 DD FLAT:??_R1A@?0A@EA@UObject@icu_56@@8 ; icu_56::UObject::`RTTI Base Class Array'
	DD	FLAT:??_R13?0A@EA@UMemory@icu_56@@8
rdata$r	ENDS
;	COMDAT ??_R3UObject@icu_56@@8
rdata$r	SEGMENT
??_R3UObject@icu_56@@8 DD 00H				; icu_56::UObject::`RTTI Class Hierarchy Descriptor'
	DD	00H
	DD	02H
	DD	FLAT:??_R2UObject@icu_56@@8
rdata$r	ENDS
;	COMDAT ??_R0?AVUObject@icu_56@@@8
_DATA	SEGMENT
??_R0?AVUObject@icu_56@@@8 DD FLAT:??_7type_info@@6B@	; icu_56::UObject `RTTI Type Descriptor'
	DD	00H
	DB	'.?AVUObject@icu_56@@', 00H
_DATA	ENDS
;	COMDAT ??_R1A@?0A@EA@UObject@icu_56@@8
rdata$r	SEGMENT
??_R1A@?0A@EA@UObject@icu_56@@8 DD FLAT:??_R0?AVUObject@icu_56@@@8 ; icu_56::UObject::`RTTI Base Class Descriptor at (0,-1,0,64)'
	DD	01H
	DD	00H
	DD	0ffffffffH
	DD	00H
	DD	040H
	DD	FLAT:??_R3UObject@icu_56@@8
rdata$r	ENDS
;	COMDAT ??_R1A@?0A@EA@FieldPosition@icu_56@@8
rdata$r	SEGMENT
??_R1A@?0A@EA@FieldPosition@icu_56@@8 DD FLAT:??_R0?AVFieldPosition@icu_56@@@8 ; icu_56::FieldPosition::`RTTI Base Class Descriptor at (0,-1,0,64)'
	DD	02H
	DD	00H
	DD	0ffffffffH
	DD	00H
	DD	040H
	DD	FLAT:??_R3FieldPosition@icu_56@@8
rdata$r	ENDS
;	COMDAT ??_R2FieldPosition@icu_56@@8
rdata$r	SEGMENT
??_R2FieldPosition@icu_56@@8 DD FLAT:??_R1A@?0A@EA@FieldPosition@icu_56@@8 ; icu_56::FieldPosition::`RTTI Base Class Array'
	DD	FLAT:??_R1A@?0A@EA@UObject@icu_56@@8
	DD	FLAT:??_R13?0A@EA@UMemory@icu_56@@8
rdata$r	ENDS
;	COMDAT ??_R3FieldPosition@icu_56@@8
rdata$r	SEGMENT
??_R3FieldPosition@icu_56@@8 DD 00H			; icu_56::FieldPosition::`RTTI Class Hierarchy Descriptor'
	DD	00H
	DD	03H
	DD	FLAT:??_R2FieldPosition@icu_56@@8
rdata$r	ENDS
;	COMDAT ??_R0?AVFieldPosition@icu_56@@@8
_DATA	SEGMENT
??_R0?AVFieldPosition@icu_56@@@8 DD FLAT:??_7type_info@@6B@ ; icu_56::FieldPosition `RTTI Type Descriptor'
	DD	00H
	DB	'.?AVFieldPosition@icu_56@@', 00H
_DATA	ENDS
;	COMDAT ??_R4FieldPosition@icu_56@@6B@
rdata$r	SEGMENT
??_R4FieldPosition@icu_56@@6B@ DD 00H			; icu_56::FieldPosition::`RTTI Complete Object Locator'
	DD	00H
	DD	00H
	DD	FLAT:??_R0?AVFieldPosition@icu_56@@@8
	DD	FLAT:??_R3FieldPosition@icu_56@@8
rdata$r	ENDS
;	COMDAT ??_7FieldPosition@icu_56@@6B@
CONST	SEGMENT
??_7FieldPosition@icu_56@@6B@ DD FLAT:??_R4FieldPosition@icu_56@@6B@ ; icu_56::FieldPosition::`vftable'
	DD	FLAT:??_EFieldPosition@icu_56@@UAEPAXI@Z
	DD	FLAT:?getDynamicClassID@FieldPosition@icu_56@@UBEPAXXZ
; Function compile flags: /Odtp /RTCsu /ZI
CONST	ENDS
;	COMDAT ??0FieldPosition@icu_56@@QAE@XZ
_TEXT	SEGMENT
_this$ = -8						; size = 4
??0FieldPosition@icu_56@@QAE@XZ PROC			; icu_56::FieldPosition::FieldPosition, COMDAT
; _this$ = ecx
; Line 118
	push	ebp
	mov	ebp, esp
	sub	esp, 204				; 000000ccH
	push	ebx
	push	esi
	push	edi
	push	ecx
	lea	edi, DWORD PTR [ebp-204]
	mov	ecx, 51					; 00000033H
	mov	eax, -858993460				; ccccccccH
	rep stosd
	pop	ecx
	mov	DWORD PTR _this$[ebp], ecx
	mov	esi, esp
	mov	ecx, DWORD PTR _this$[ebp]
	call	DWORD PTR __imp_??0UObject@icu_56@@QAE@XZ
	cmp	esi, esp
	call	__RTC_CheckEsp
	mov	eax, DWORD PTR _this$[ebp]
	mov	DWORD PTR [eax], OFFSET ??_7FieldPosition@icu_56@@6B@
	mov	eax, DWORD PTR _this$[ebp]
	mov	DWORD PTR [eax+4], -1
	mov	eax, DWORD PTR _this$[ebp]
	mov	DWORD PTR [eax+8], 0
	mov	eax, DWORD PTR _this$[ebp]
	mov	DWORD PTR [eax+12], 0
	mov	eax, DWORD PTR _this$[ebp]
	pop	edi
	pop	esi
	pop	ebx
	add	esp, 204				; 000000ccH
	cmp	ebp, esp
	call	__RTC_CheckEsp
	mov	esp, ebp
	pop	ebp
	ret	0
??0FieldPosition@icu_56@@QAE@XZ ENDP			; icu_56::FieldPosition::FieldPosition
_TEXT	ENDS
PUBLIC	??0FieldPosition@icu_56@@QAE@H@Z		; icu_56::FieldPosition::FieldPosition
; Function compile flags: /Odtp /RTCsu /ZI
;	COMDAT ??0FieldPosition@icu_56@@QAE@H@Z
_TEXT	SEGMENT
_this$ = -8						; size = 4
_field$ = 8						; size = 4
??0FieldPosition@icu_56@@QAE@H@Z PROC			; icu_56::FieldPosition::FieldPosition, COMDAT
; _this$ = ecx
; Line 132
	push	ebp
	mov	ebp, esp
	sub	esp, 204				; 000000ccH
	push	ebx
	push	esi
	push	edi
	push	ecx
	lea	edi, DWORD PTR [ebp-204]
	mov	ecx, 51					; 00000033H
	mov	eax, -858993460				; ccccccccH
	rep stosd
	pop	ecx
	mov	DWORD PTR _this$[ebp], ecx
	mov	esi, esp
	mov	ecx, DWORD PTR _this$[ebp]
	call	DWORD PTR __imp_??0UObject@icu_56@@QAE@XZ
	cmp	esi, esp
	call	__RTC_CheckEsp
	mov	eax, DWORD PTR _this$[ebp]
	mov	DWORD PTR [eax], OFFSET ??_7FieldPosition@icu_56@@6B@
	mov	eax, DWORD PTR _this$[ebp]
	mov	ecx, DWORD PTR _field$[ebp]
	mov	DWORD PTR [eax+4], ecx
	mov	eax, DWORD PTR _this$[ebp]
	mov	DWORD PTR [eax+8], 0
	mov	eax, DWORD PTR _this$[ebp]
	mov	DWORD PTR [eax+12], 0
	mov	eax, DWORD PTR _this$[ebp]
	pop	edi
	pop	esi
	pop	ebx
	add	esp, 204				; 000000ccH
	cmp	ebp, esp
	call	__RTC_CheckEsp
	mov	esp, ebp
	pop	ebp
	ret	4
??0FieldPosition@icu_56@@QAE@H@Z ENDP			; icu_56::FieldPosition::FieldPosition
_TEXT	ENDS
PUBLIC	??0FieldPosition@icu_56@@QAE@ABV01@@Z		; icu_56::FieldPosition::FieldPosition
EXTRN	__imp_??0UObject@icu_56@@QAE@ABV01@@Z:PROC
; Function compile flags: /Odtp /RTCsu /ZI
;	COMDAT ??0FieldPosition@icu_56@@QAE@ABV01@@Z
_TEXT	SEGMENT
_this$ = -8						; size = 4
_copy$ = 8						; size = 4
??0FieldPosition@icu_56@@QAE@ABV01@@Z PROC		; icu_56::FieldPosition::FieldPosition, COMDAT
; _this$ = ecx
; Line 140
	push	ebp
	mov	ebp, esp
	sub	esp, 204				; 000000ccH
	push	ebx
	push	esi
	push	edi
	push	ecx
	lea	edi, DWORD PTR [ebp-204]
	mov	ecx, 51					; 00000033H
	mov	eax, -858993460				; ccccccccH
	rep stosd
	pop	ecx
	mov	DWORD PTR _this$[ebp], ecx
	mov	esi, esp
	mov	eax, DWORD PTR _copy$[ebp]
	push	eax
	mov	ecx, DWORD PTR _this$[ebp]
	call	DWORD PTR __imp_??0UObject@icu_56@@QAE@ABV01@@Z
	cmp	esi, esp
	call	__RTC_CheckEsp
	mov	eax, DWORD PTR _this$[ebp]
	mov	DWORD PTR [eax], OFFSET ??_7FieldPosition@icu_56@@6B@
	mov	eax, DWORD PTR _this$[ebp]
	mov	ecx, DWORD PTR _copy$[ebp]
	mov	edx, DWORD PTR [ecx+4]
	mov	DWORD PTR [eax+4], edx
	mov	eax, DWORD PTR _this$[ebp]
	mov	ecx, DWORD PTR _copy$[ebp]
	mov	edx, DWORD PTR [ecx+8]
	mov	DWORD PTR [eax+8], edx
	mov	eax, DWORD PTR _this$[ebp]
	mov	ecx, DWORD PTR _copy$[ebp]
	mov	edx, DWORD PTR [ecx+12]
	mov	DWORD PTR [eax+12], edx
	mov	eax, DWORD PTR _this$[ebp]
	pop	edi
	pop	esi
	pop	ebx
	add	esp, 204				; 000000ccH
	cmp	ebp, esp
	call	__RTC_CheckEsp
	mov	esp, ebp
	pop	ebp
	ret	4
??0FieldPosition@icu_56@@QAE@ABV01@@Z ENDP		; icu_56::FieldPosition::FieldPosition
_TEXT	ENDS
PUBLIC	?getField@FieldPosition@icu_56@@QBEHXZ		; icu_56::FieldPosition::getField
; Function compile flags: /Odtp /RTCsu /ZI
;	COMDAT ?getField@FieldPosition@icu_56@@QBEHXZ
_TEXT	SEGMENT
_this$ = -8						; size = 4
?getField@FieldPosition@icu_56@@QBEHXZ PROC		; icu_56::FieldPosition::getField, COMDAT
; _this$ = ecx
; Line 190
	push	ebp
	mov	ebp, esp
	sub	esp, 204				; 000000ccH
	push	ebx
	push	esi
	push	edi
	push	ecx
	lea	edi, DWORD PTR [ebp-204]
	mov	ecx, 51					; 00000033H
	mov	eax, -858993460				; ccccccccH
	rep stosd
	pop	ecx
	mov	DWORD PTR _this$[ebp], ecx
	mov	eax, DWORD PTR _this$[ebp]
	mov	eax, DWORD PTR [eax+4]
	pop	edi
	pop	esi
	pop	ebx
	mov	esp, ebp
	pop	ebp
	ret	0
?getField@FieldPosition@icu_56@@QBEHXZ ENDP		; icu_56::FieldPosition::getField
_TEXT	ENDS
PUBLIC	?getBeginIndex@FieldPosition@icu_56@@QBEHXZ	; icu_56::FieldPosition::getBeginIndex
; Function compile flags: /Odtp /RTCsu /ZI
;	COMDAT ?getBeginIndex@FieldPosition@icu_56@@QBEHXZ
_TEXT	SEGMENT
_this$ = -8						; size = 4
?getBeginIndex@FieldPosition@icu_56@@QBEHXZ PROC	; icu_56::FieldPosition::getBeginIndex, COMDAT
; _this$ = ecx
; Line 197
	push	ebp
	mov	ebp, esp
	sub	esp, 204				; 000000ccH
	push	ebx
	push	esi
	push	edi
	push	ecx
	lea	edi, DWORD PTR [ebp-204]
	mov	ecx, 51					; 00000033H
	mov	eax, -858993460				; ccccccccH
	rep stosd
	pop	ecx
	mov	DWORD PTR _this$[ebp], ecx
	mov	eax, DWORD PTR _this$[ebp]
	mov	eax, DWORD PTR [eax+8]
	pop	edi
	pop	esi
	pop	ebx
	mov	esp, ebp
	pop	ebp
	ret	0
?getBeginIndex@FieldPosition@icu_56@@QBEHXZ ENDP	; icu_56::FieldPosition::getBeginIndex
_TEXT	ENDS
PUBLIC	?getEndIndex@FieldPosition@icu_56@@QBEHXZ	; icu_56::FieldPosition::getEndIndex
; Function compile flags: /Odtp /RTCsu /ZI
;	COMDAT ?getEndIndex@FieldPosition@icu_56@@QBEHXZ
_TEXT	SEGMENT
_this$ = -8						; size = 4
?getEndIndex@FieldPosition@icu_56@@QBEHXZ PROC		; icu_56::FieldPosition::getEndIndex, COMDAT
; _this$ = ecx
; Line 206
	push	ebp
	mov	ebp, esp
	sub	esp, 204				; 000000ccH
	push	ebx
	push	esi
	push	edi
	push	ecx
	lea	edi, DWORD PTR [ebp-204]
	mov	ecx, 51					; 00000033H
	mov	eax, -858993460				; ccccccccH
	rep stosd
	pop	ecx
	mov	DWORD PTR _this$[ebp], ecx
	mov	eax, DWORD PTR _this$[ebp]
	mov	eax, DWORD PTR [eax+12]
	pop	edi
	pop	esi
	pop	ebx
	mov	esp, ebp
	pop	ebp
	ret	0
?getEndIndex@FieldPosition@icu_56@@QBEHXZ ENDP		; icu_56::FieldPosition::getEndIndex
_TEXT	ENDS
PUBLIC	?setField@FieldPosition@icu_56@@QAEXH@Z		; icu_56::FieldPosition::setField
; Function compile flags: /Odtp /RTCsu /ZI
;	COMDAT ?setField@FieldPosition@icu_56@@QAEXH@Z
_TEXT	SEGMENT
_this$ = -8						; size = 4
_f$ = 8							; size = 4
?setField@FieldPosition@icu_56@@QAEXH@Z PROC		; icu_56::FieldPosition::setField, COMDAT
; _this$ = ecx
; Line 213
	push	ebp
	mov	ebp, esp
	sub	esp, 204				; 000000ccH
	push	ebx
	push	esi
	push	edi
	push	ecx
	lea	edi, DWORD PTR [ebp-204]
	mov	ecx, 51					; 00000033H
	mov	eax, -858993460				; ccccccccH
	rep stosd
	pop	ecx
	mov	DWORD PTR _this$[ebp], ecx
	mov	eax, DWORD PTR _this$[ebp]
	mov	ecx, DWORD PTR _f$[ebp]
	mov	DWORD PTR [eax+4], ecx
	pop	edi
	pop	esi
	pop	ebx
	mov	esp, ebp
	pop	ebp
	ret	4
?setField@FieldPosition@icu_56@@QAEXH@Z ENDP		; icu_56::FieldPosition::setField
_TEXT	ENDS
PUBLIC	?setBeginIndex@FieldPosition@icu_56@@QAEXH@Z	; icu_56::FieldPosition::setBeginIndex
; Function compile flags: /Odtp /RTCsu /ZI
;	COMDAT ?setBeginIndex@FieldPosition@icu_56@@QAEXH@Z
_TEXT	SEGMENT
_this$ = -8						; size = 4
_bi$ = 8						; size = 4
?setBeginIndex@FieldPosition@icu_56@@QAEXH@Z PROC	; icu_56::FieldPosition::setBeginIndex, COMDAT
; _this$ = ecx
; Line 220
	push	ebp
	mov	ebp, esp
	sub	esp, 204				; 000000ccH
	push	ebx
	push	esi
	push	edi
	push	ecx
	lea	edi, DWORD PTR [ebp-204]
	mov	ecx, 51					; 00000033H
	mov	eax, -858993460				; ccccccccH
	rep stosd
	pop	ecx
	mov	DWORD PTR _this$[ebp], ecx
	mov	eax, DWORD PTR _this$[ebp]
	mov	ecx, DWORD PTR _bi$[ebp]
	mov	DWORD PTR [eax+8], ecx
	pop	edi
	pop	esi
	pop	ebx
	mov	esp, ebp
	pop	ebp
	ret	4
?setBeginIndex@FieldPosition@icu_56@@QAEXH@Z ENDP	; icu_56::FieldPosition::setBeginIndex
_TEXT	ENDS
PUBLIC	?setEndIndex@FieldPosition@icu_56@@QAEXH@Z	; icu_56::FieldPosition::setEndIndex
; Function compile flags: /Odtp /RTCsu /ZI
;	COMDAT ?setEndIndex@FieldPosition@icu_56@@QAEXH@Z
_TEXT	SEGMENT
_this$ = -8						; size = 4
_ei$ = 8						; size = 4
?setEndIndex@FieldPosition@icu_56@@QAEXH@Z PROC		; icu_56::FieldPosition::setEndIndex, COMDAT
; _this$ = ecx
; Line 227
	push	ebp
	mov	ebp, esp
	sub	esp, 204				; 000000ccH
	push	ebx
	push	esi
	push	edi
	push	ecx
	lea	edi, DWORD PTR [ebp-204]
	mov	ecx, 51					; 00000033H
	mov	eax, -858993460				; ccccccccH
	rep stosd
	pop	ecx
	mov	DWORD PTR _this$[ebp], ecx
	mov	eax, DWORD PTR _this$[ebp]
	mov	ecx, DWORD PTR _ei$[ebp]
	mov	DWORD PTR [eax+12], ecx
	pop	edi
	pop	esi
	pop	ebx
	mov	esp, ebp
	pop	ebp
	ret	4
?setEndIndex@FieldPosition@icu_56@@QAEXH@Z ENDP		; icu_56::FieldPosition::setEndIndex
_TEXT	ENDS
PUBLIC	??_GFieldPosition@icu_56@@UAEPAXI@Z		; icu_56::FieldPosition::`scalar deleting destructor'
EXTRN	__imp_??3UMemory@icu_56@@SAXPAX@Z:PROC
EXTRN	??1FieldPosition@icu_56@@UAE@XZ:PROC		; icu_56::FieldPosition::~FieldPosition
; Function compile flags: /Odtp /RTCsu /ZI
;	COMDAT ??_GFieldPosition@icu_56@@UAEPAXI@Z
_TEXT	SEGMENT
_this$ = -8						; size = 4
___flags$ = 8						; size = 4
??_GFieldPosition@icu_56@@UAEPAXI@Z PROC		; icu_56::FieldPosition::`scalar deleting destructor', COMDAT
; _this$ = ecx
	push	ebp
	mov	ebp, esp
	sub	esp, 204				; 000000ccH
	push	ebx
	push	esi
	push	edi
	push	ecx
	lea	edi, DWORD PTR [ebp-204]
	mov	ecx, 51					; 00000033H
	mov	eax, -858993460				; ccccccccH
	rep stosd
	pop	ecx
	mov	DWORD PTR _this$[ebp], ecx
	mov	ecx, DWORD PTR _this$[ebp]
	call	??1FieldPosition@icu_56@@UAE@XZ		; icu_56::FieldPosition::~FieldPosition
	mov	eax, DWORD PTR ___flags$[ebp]
	and	eax, 1
	je	SHORT $LN1@scalar
	mov	esi, esp
	mov	eax, DWORD PTR _this$[ebp]
	push	eax
	call	DWORD PTR __imp_??3UMemory@icu_56@@SAXPAX@Z
	add	esp, 4
	cmp	esi, esp
	call	__RTC_CheckEsp
$LN1@scalar:
	mov	eax, DWORD PTR _this$[ebp]
	pop	edi
	pop	esi
	pop	ebx
	add	esp, 204				; 000000ccH
	cmp	ebp, esp
	call	__RTC_CheckEsp
	mov	esp, ebp
	pop	ebp
	ret	4
??_GFieldPosition@icu_56@@UAEPAXI@Z ENDP		; icu_56::FieldPosition::`scalar deleting destructor'
_TEXT	ENDS
EXTRN	__imp_??_VUMemory@icu_56@@SAXPAX@Z:PROC
EXTRN	??_M@YGXPAXIHP6EX0@Z@Z:PROC			; `eh vector destructor iterator'
; Function compile flags: /Odtp /RTCsu /ZI
;	COMDAT ??_EFieldPosition@icu_56@@UAEPAXI@Z
_TEXT	SEGMENT
_this$ = -8						; size = 4
___flags$ = 8						; size = 4
??_EFieldPosition@icu_56@@UAEPAXI@Z PROC		; icu_56::FieldPosition::`vector deleting destructor', COMDAT
; _this$ = ecx
	push	ebp
	mov	ebp, esp
	sub	esp, 204				; 000000ccH
	push	ebx
	push	esi
	push	edi
	push	ecx
	lea	edi, DWORD PTR [ebp-204]
	mov	ecx, 51					; 00000033H
	mov	eax, -858993460				; ccccccccH
	rep stosd
	pop	ecx
	mov	DWORD PTR _this$[ebp], ecx
	mov	eax, DWORD PTR ___flags$[ebp]
	and	eax, 2
	je	SHORT $LN3@vector
	push	OFFSET ??1FieldPosition@icu_56@@UAE@XZ	; icu_56::FieldPosition::~FieldPosition
	mov	eax, DWORD PTR _this$[ebp]
	mov	ecx, DWORD PTR [eax-4]
	push	ecx
	push	16					; 00000010H
	mov	edx, DWORD PTR _this$[ebp]
	push	edx
	call	??_M@YGXPAXIHP6EX0@Z@Z
	mov	eax, DWORD PTR ___flags$[ebp]
	and	eax, 1
	je	SHORT $LN2@vector
	mov	eax, DWORD PTR _this$[ebp]
	sub	eax, 4
	mov	esi, esp
	push	eax
	call	DWORD PTR __imp_??_VUMemory@icu_56@@SAXPAX@Z
	add	esp, 4
	cmp	esi, esp
	call	__RTC_CheckEsp
$LN2@vector:
	mov	eax, DWORD PTR _this$[ebp]
	sub	eax, 4
	jmp	SHORT $LN4@vector
$LN3@vector:
	mov	ecx, DWORD PTR _this$[ebp]
	call	??1FieldPosition@icu_56@@UAE@XZ		; icu_56::FieldPosition::~FieldPosition
	mov	eax, DWORD PTR ___flags$[ebp]
	and	eax, 1
	je	SHORT $LN1@vector
	mov	esi, esp
	mov	eax, DWORD PTR _this$[ebp]
	push	eax
	call	DWORD PTR __imp_??3UMemory@icu_56@@SAXPAX@Z
	add	esp, 4
	cmp	esi, esp
	call	__RTC_CheckEsp
$LN1@vector:
	mov	eax, DWORD PTR _this$[ebp]
$LN4@vector:
	pop	edi
	pop	esi
	pop	ebx
	add	esp, 204				; 000000ccH
	cmp	ebp, esp
	call	__RTC_CheckEsp
	mov	esp, ebp
	pop	ebp
	ret	4
??_EFieldPosition@icu_56@@UAEPAXI@Z ENDP		; icu_56::FieldPosition::`vector deleting destructor'
_TEXT	ENDS
PUBLIC	??4FieldPosition@icu_56@@QAEAAV01@ABV01@@Z	; icu_56::FieldPosition::operator=
; Function compile flags: /Odtp /RTCsu /ZI
;	COMDAT ??4FieldPosition@icu_56@@QAEAAV01@ABV01@@Z
_TEXT	SEGMENT
_this$ = -8						; size = 4
_copy$ = 8						; size = 4
??4FieldPosition@icu_56@@QAEAAV01@ABV01@@Z PROC		; icu_56::FieldPosition::operator=, COMDAT
; _this$ = ecx
; Line 265
	push	ebp
	mov	ebp, esp
	sub	esp, 204				; 000000ccH
	push	ebx
	push	esi
	push	edi
	push	ecx
	lea	edi, DWORD PTR [ebp-204]
	mov	ecx, 51					; 00000033H
	mov	eax, -858993460				; ccccccccH
	rep stosd
	pop	ecx
	mov	DWORD PTR _this$[ebp], ecx
; Line 266
	mov	eax, DWORD PTR _this$[ebp]
	mov	ecx, DWORD PTR _copy$[ebp]
	mov	edx, DWORD PTR [ecx+4]
	mov	DWORD PTR [eax+4], edx
; Line 267
	mov	eax, DWORD PTR _this$[ebp]
	mov	ecx, DWORD PTR _copy$[ebp]
	mov	edx, DWORD PTR [ecx+12]
	mov	DWORD PTR [eax+12], edx
; Line 268
	mov	eax, DWORD PTR _this$[ebp]
	mov	ecx, DWORD PTR _copy$[ebp]
	mov	edx, DWORD PTR [ecx+8]
	mov	DWORD PTR [eax+8], edx
; Line 269
	mov	eax, DWORD PTR _this$[ebp]
; Line 270
	pop	edi
	pop	esi
	pop	ebx
	mov	esp, ebp
	pop	ebp
	ret	4
??4FieldPosition@icu_56@@QAEAAV01@ABV01@@Z ENDP		; icu_56::FieldPosition::operator=
_TEXT	ENDS
PUBLIC	??8FieldPosition@icu_56@@QBECABV01@@Z		; icu_56::FieldPosition::operator==
; Function compile flags: /Odtp /RTCsu /ZI
;	COMDAT ??8FieldPosition@icu_56@@QBECABV01@@Z
_TEXT	SEGMENT
tv73 = -205						; size = 1
_this$ = -8						; size = 4
_copy$ = 8						; size = 4
??8FieldPosition@icu_56@@QBECABV01@@Z PROC		; icu_56::FieldPosition::operator==, COMDAT
; _this$ = ecx
; Line 274
	push	ebp
	mov	ebp, esp
	sub	esp, 208				; 000000d0H
	push	ebx
	push	esi
	push	edi
	push	ecx
	lea	edi, DWORD PTR [ebp-208]
	mov	ecx, 52					; 00000034H
	mov	eax, -858993460				; ccccccccH
	rep stosd
	pop	ecx
	mov	DWORD PTR _this$[ebp], ecx
; Line 277
	mov	eax, DWORD PTR _this$[ebp]
	mov	ecx, DWORD PTR _copy$[ebp]
	mov	edx, DWORD PTR [eax+4]
	cmp	edx, DWORD PTR [ecx+4]
	jne	SHORT $LN3@operator
	mov	eax, DWORD PTR _this$[ebp]
	mov	ecx, DWORD PTR _copy$[ebp]
	mov	edx, DWORD PTR [eax+12]
	cmp	edx, DWORD PTR [ecx+12]
	jne	SHORT $LN3@operator
	mov	eax, DWORD PTR _this$[ebp]
	mov	ecx, DWORD PTR _copy$[ebp]
	mov	edx, DWORD PTR [eax+8]
	cmp	edx, DWORD PTR [ecx+8]
	jne	SHORT $LN3@operator
	mov	BYTE PTR tv73[ebp], 1
	jmp	SHORT $LN4@operator
$LN3@operator:
	mov	BYTE PTR tv73[ebp], 0
$LN4@operator:
	mov	al, BYTE PTR tv73[ebp]
; Line 278
	pop	edi
	pop	esi
	pop	ebx
	mov	esp, ebp
	pop	ebp
	ret	4
??8FieldPosition@icu_56@@QBECABV01@@Z ENDP		; icu_56::FieldPosition::operator==
_TEXT	ENDS
PUBLIC	??9FieldPosition@icu_56@@QBECABV01@@Z		; icu_56::FieldPosition::operator!=
; Function compile flags: /Odtp /RTCsu /ZI
;	COMDAT ??9FieldPosition@icu_56@@QBECABV01@@Z
_TEXT	SEGMENT
_this$ = -8						; size = 4
_copy$ = 8						; size = 4
??9FieldPosition@icu_56@@QBECABV01@@Z PROC		; icu_56::FieldPosition::operator!=, COMDAT
; _this$ = ecx
; Line 282
	push	ebp
	mov	ebp, esp
	sub	esp, 204				; 000000ccH
	push	ebx
	push	esi
	push	edi
	push	ecx
	lea	edi, DWORD PTR [ebp-204]
	mov	ecx, 51					; 00000033H
	mov	eax, -858993460				; ccccccccH
	rep stosd
	pop	ecx
	mov	DWORD PTR _this$[ebp], ecx
; Line 283
	mov	eax, DWORD PTR _copy$[ebp]
	push	eax
	mov	ecx, DWORD PTR _this$[ebp]
	call	??8FieldPosition@icu_56@@QBECABV01@@Z	; icu_56::FieldPosition::operator==
	movsx	ecx, al
	test	ecx, ecx
	sete	al
; Line 284
	pop	edi
	pop	esi
	pop	ebx
	add	esp, 204				; 000000ccH
	cmp	ebp, esp
	call	__RTC_CheckEsp
	mov	esp, ebp
	pop	ebp
	ret	4
??9FieldPosition@icu_56@@QBECABV01@@Z ENDP		; icu_56::FieldPosition::operator!=
_TEXT	ENDS
PUBLIC	??9FieldPositionIterator@icu_56@@QBECABV01@@Z	; icu_56::FieldPositionIterator::operator!=
EXTRN	??8FieldPositionIterator@icu_56@@QBECABV01@@Z:PROC ; icu_56::FieldPositionIterator::operator==
; Function compile flags: /Odtp /RTCsu /ZI
;	COMDAT ??9FieldPositionIterator@icu_56@@QBECABV01@@Z
_TEXT	SEGMENT
_this$ = -8						; size = 4
_rhs$ = 8						; size = 4
??9FieldPositionIterator@icu_56@@QBECABV01@@Z PROC	; icu_56::FieldPositionIterator::operator!=, COMDAT
; _this$ = ecx
; File d:\mozilla\intl\icu\source\i18n\unicode\fpositer.h
; Line 90
	push	ebp
	mov	ebp, esp
	sub	esp, 204				; 000000ccH
	push	ebx
	push	esi
	push	edi
	push	ecx
	lea	edi, DWORD PTR [ebp-204]
	mov	ecx, 51					; 00000033H
	mov	eax, -858993460				; ccccccccH
	rep stosd
	pop	ecx
	mov	DWORD PTR _this$[ebp], ecx
	mov	eax, DWORD PTR _rhs$[ebp]
	push	eax
	mov	ecx, DWORD PTR _this$[ebp]
	call	??8FieldPositionIterator@icu_56@@QBECABV01@@Z ; icu_56::FieldPositionIterator::operator==
	movsx	ecx, al
	test	ecx, ecx
	sete	al
	pop	edi
	pop	esi
	pop	ebx
	add	esp, 204				; 000000ccH
	cmp	ebp, esp
	call	__RTC_CheckEsp
	mov	esp, ebp
	pop	ebp
	ret	4
??9FieldPositionIterator@icu_56@@QBECABV01@@Z ENDP	; icu_56::FieldPositionIterator::operator!=
_TEXT	ENDS
PUBLIC	??4FieldPositionIterator@icu_56@@QAEAAV01@ABV01@@Z ; icu_56::FieldPositionIterator::operator=
EXTRN	__imp_??4UObject@icu_56@@QAEAAV01@ABV01@@Z:PROC
; Function compile flags: /Odtp /RTCsu /ZI
;	COMDAT ??4FieldPositionIterator@icu_56@@QAEAAV01@ABV01@@Z
_TEXT	SEGMENT
_this$ = -8						; size = 4
___that$ = 8						; size = 4
??4FieldPositionIterator@icu_56@@QAEAAV01@ABV01@@Z PROC	; icu_56::FieldPositionIterator::operator=, COMDAT
; _this$ = ecx
	push	ebp
	mov	ebp, esp
	sub	esp, 204				; 000000ccH
	push	ebx
	push	esi
	push	edi
	push	ecx
	lea	edi, DWORD PTR [ebp-204]
	mov	ecx, 51					; 00000033H
	mov	eax, -858993460				; ccccccccH
	rep stosd
	pop	ecx
	mov	DWORD PTR _this$[ebp], ecx
	mov	esi, esp
	mov	eax, DWORD PTR ___that$[ebp]
	push	eax
	mov	ecx, DWORD PTR _this$[ebp]
	call	DWORD PTR __imp_??4UObject@icu_56@@QAEAAV01@ABV01@@Z
	cmp	esi, esp
	call	__RTC_CheckEsp
	mov	eax, DWORD PTR _this$[ebp]
	mov	ecx, DWORD PTR ___that$[ebp]
	mov	edx, DWORD PTR [ecx+4]
	mov	DWORD PTR [eax+4], edx
	mov	eax, DWORD PTR _this$[ebp]
	mov	ecx, DWORD PTR ___that$[ebp]
	mov	edx, DWORD PTR [ecx+8]
	mov	DWORD PTR [eax+8], edx
	mov	eax, DWORD PTR _this$[ebp]
	pop	edi
	pop	esi
	pop	ebx
	add	esp, 204				; 000000ccH
	cmp	ebp, esp
	call	__RTC_CheckEsp
	mov	esp, ebp
	pop	ebp
	ret	4
??4FieldPositionIterator@icu_56@@QAEAAV01@ABV01@@Z ENDP	; icu_56::FieldPositionIterator::operator=
_TEXT	ENDS
PUBLIC	??9Format@icu_56@@QBECABV01@@Z			; icu_56::Format::operator!=
; Function compile flags: /Odtp /RTCsu /ZI
;	COMDAT ??9Format@icu_56@@QBECABV01@@Z
_TEXT	SEGMENT
_this$ = -8						; size = 4
_other$ = 8						; size = 4
??9Format@icu_56@@QBECABV01@@Z PROC			; icu_56::Format::operator!=, COMDAT
; _this$ = ecx
; File d:\mozilla\intl\icu\source\i18n\unicode\format.h
; Line 119
	push	ebp
	mov	ebp, esp
	sub	esp, 204				; 000000ccH
	push	ebx
	push	esi
	push	edi
	push	ecx
	lea	edi, DWORD PTR [ebp-204]
	mov	ecx, 51					; 00000033H
	mov	eax, -858993460				; ccccccccH
	rep stosd
	pop	ecx
	mov	DWORD PTR _this$[ebp], ecx
	mov	esi, esp
	mov	eax, DWORD PTR _other$[ebp]
	push	eax
	mov	ecx, DWORD PTR _this$[ebp]
	mov	edx, DWORD PTR [ecx]
	mov	ecx, DWORD PTR _this$[ebp]
	mov	eax, DWORD PTR [edx+8]
	call	eax
	cmp	esi, esp
	call	__RTC_CheckEsp
	movsx	ecx, al
	test	ecx, ecx
	sete	al
	pop	edi
	pop	esi
	pop	ebx
	add	esp, 204				; 000000ccH
	cmp	ebp, esp
	call	__RTC_CheckEsp
	mov	esp, ebp
	pop	ebp
	ret	4
??9Format@icu_56@@QBECABV01@@Z ENDP			; icu_56::Format::operator!=
_TEXT	ENDS
PUBLIC	??4NumberingSystem@icu_56@@QAEAAV01@ABV01@@Z	; icu_56::NumberingSystem::operator=
; Function compile flags: /Odtp /RTCsu /ZI
;	COMDAT ??4NumberingSystem@icu_56@@QAEAAV01@ABV01@@Z
_TEXT	SEGMENT
_$S1$36612 = -20					; size = 4
_this$ = -8						; size = 4
___that$ = 8						; size = 4
??4NumberingSystem@icu_56@@QAEAAV01@ABV01@@Z PROC	; icu_56::NumberingSystem::operator=, COMDAT
; _this$ = ecx
	push	ebp
	mov	ebp, esp
	sub	esp, 216				; 000000d8H
	push	ebx
	push	esi
	push	edi
	push	ecx
	lea	edi, DWORD PTR [ebp-216]
	mov	ecx, 54					; 00000036H
	mov	eax, -858993460				; ccccccccH
	rep stosd
	pop	ecx
	mov	DWORD PTR _this$[ebp], ecx
	mov	esi, esp
	mov	eax, DWORD PTR ___that$[ebp]
	push	eax
	mov	ecx, DWORD PTR _this$[ebp]
	call	DWORD PTR __imp_??4UObject@icu_56@@QAEAAV01@ABV01@@Z
	cmp	esi, esp
	call	__RTC_CheckEsp
	mov	eax, DWORD PTR ___that$[ebp]
	add	eax, 4
	mov	esi, esp
	push	eax
	mov	ecx, DWORD PTR _this$[ebp]
	add	ecx, 4
	call	DWORD PTR __imp_??4UnicodeString@icu_56@@QAEAAV01@ABV01@@Z
	cmp	esi, esp
	call	__RTC_CheckEsp
	mov	eax, DWORD PTR _this$[ebp]
	mov	ecx, DWORD PTR ___that$[ebp]
	mov	edx, DWORD PTR [ecx+68]
	mov	DWORD PTR [eax+68], edx
	mov	eax, DWORD PTR _this$[ebp]
	mov	ecx, DWORD PTR ___that$[ebp]
	mov	dl, BYTE PTR [ecx+72]
	mov	BYTE PTR [eax+72], dl
	mov	DWORD PTR _$S1$36612[ebp], 0
	jmp	SHORT $LN3@operator@2
$LN2@operator@2:
	mov	eax, DWORD PTR _$S1$36612[ebp]
	add	eax, 1
	mov	DWORD PTR _$S1$36612[ebp], eax
$LN3@operator@2:
	cmp	DWORD PTR _$S1$36612[ebp], 9
	jae	SHORT $LN1@operator@2
	mov	eax, DWORD PTR _this$[ebp]
	add	eax, DWORD PTR _$S1$36612[ebp]
	mov	ecx, DWORD PTR ___that$[ebp]
	add	ecx, DWORD PTR _$S1$36612[ebp]
	mov	dl, BYTE PTR [ecx+73]
	mov	BYTE PTR [eax+73], dl
	jmp	SHORT $LN2@operator@2
$LN1@operator@2:
	mov	eax, DWORD PTR _this$[ebp]
	pop	edi
	pop	esi
	pop	ebx
	add	esp, 216				; 000000d8H
	cmp	ebp, esp
	call	__RTC_CheckEsp
	mov	esp, ebp
	pop	ebp
	ret	4
??4NumberingSystem@icu_56@@QAEAAV01@ABV01@@Z ENDP	; icu_56::NumberingSystem::operator=
_TEXT	ENDS
PUBLIC	??1NumberingSystem@icu_56@@UAE@XZ		; icu_56::NumberingSystem::~NumberingSystem
PUBLIC	??_GNumberingSystem@icu_56@@UAEPAXI@Z		; icu_56::NumberingSystem::`scalar deleting destructor'
; Function compile flags: /Odtp /RTCsu /ZI
;	COMDAT ??_GNumberingSystem@icu_56@@UAEPAXI@Z
_TEXT	SEGMENT
_this$ = -8						; size = 4
___flags$ = 8						; size = 4
??_GNumberingSystem@icu_56@@UAEPAXI@Z PROC		; icu_56::NumberingSystem::`scalar deleting destructor', COMDAT
; _this$ = ecx
	push	ebp
	mov	ebp, esp
	sub	esp, 204				; 000000ccH
	push	ebx
	push	esi
	push	edi
	push	ecx
	lea	edi, DWORD PTR [ebp-204]
	mov	ecx, 51					; 00000033H
	mov	eax, -858993460				; ccccccccH
	rep stosd
	pop	ecx
	mov	DWORD PTR _this$[ebp], ecx
	mov	ecx, DWORD PTR _this$[ebp]
	call	??1NumberingSystem@icu_56@@UAE@XZ	; icu_56::NumberingSystem::~NumberingSystem
	mov	eax, DWORD PTR ___flags$[ebp]
	and	eax, 1
	je	SHORT $LN1@scalar@2
	mov	esi, esp
	mov	eax, DWORD PTR _this$[ebp]
	push	eax
	call	DWORD PTR __imp_??3UMemory@icu_56@@SAXPAX@Z
	add	esp, 4
	cmp	esi, esp
	call	__RTC_CheckEsp
$LN1@scalar@2:
	mov	eax, DWORD PTR _this$[ebp]
	pop	edi
	pop	esi
	pop	ebx
	add	esp, 204				; 000000ccH
	cmp	ebp, esp
	call	__RTC_CheckEsp
	mov	esp, ebp
	pop	ebp
	ret	4
??_GNumberingSystem@icu_56@@UAEPAXI@Z ENDP		; icu_56::NumberingSystem::`scalar deleting destructor'
_TEXT	ENDS
PUBLIC	??_ENumberingSystem@icu_56@@UAEPAXI@Z		; icu_56::NumberingSystem::`vector deleting destructor'
; Function compile flags: /Odtp /RTCsu /ZI
;	COMDAT ??_ENumberingSystem@icu_56@@UAEPAXI@Z
_TEXT	SEGMENT
_this$ = -8						; size = 4
___flags$ = 8						; size = 4
??_ENumberingSystem@icu_56@@UAEPAXI@Z PROC		; icu_56::NumberingSystem::`vector deleting destructor', COMDAT
; _this$ = ecx
	push	ebp
	mov	ebp, esp
	sub	esp, 204				; 000000ccH
	push	ebx
	push	esi
	push	edi
	push	ecx
	lea	edi, DWORD PTR [ebp-204]
	mov	ecx, 51					; 00000033H
	mov	eax, -858993460				; ccccccccH
	rep stosd
	pop	ecx
	mov	DWORD PTR _this$[ebp], ecx
	mov	eax, DWORD PTR ___flags$[ebp]
	and	eax, 2
	je	SHORT $LN3@vector@2
	push	OFFSET ??1NumberingSystem@icu_56@@UAE@XZ ; icu_56::NumberingSystem::~NumberingSystem
	mov	eax, DWORD PTR _this$[ebp]
	mov	ecx, DWORD PTR [eax-4]
	push	ecx
	push	84					; 00000054H
	mov	edx, DWORD PTR _this$[ebp]
	push	edx
	call	??_M@YGXPAXIHP6EX0@Z@Z
	mov	eax, DWORD PTR ___flags$[ebp]
	and	eax, 1
	je	SHORT $LN2@vector@2
	mov	eax, DWORD PTR _this$[ebp]
	sub	eax, 4
	mov	esi, esp
	push	eax
	call	DWORD PTR __imp_??_VUMemory@icu_56@@SAXPAX@Z
	add	esp, 4
	cmp	esi, esp
	call	__RTC_CheckEsp
$LN2@vector@2:
	mov	eax, DWORD PTR _this$[ebp]
	sub	eax, 4
	jmp	SHORT $LN4@vector@2
$LN3@vector@2:
	mov	ecx, DWORD PTR _this$[ebp]
	call	??1NumberingSystem@icu_56@@UAE@XZ	; icu_56::NumberingSystem::~NumberingSystem
	mov	eax, DWORD PTR ___flags$[ebp]
	and	eax, 1
	je	SHORT $LN1@vector@2
	mov	esi, esp
	mov	eax, DWORD PTR _this$[ebp]
	push	eax
	call	DWORD PTR __imp_??3UMemory@icu_56@@SAXPAX@Z
	add	esp, 4
	cmp	esi, esp
	call	__RTC_CheckEsp
$LN1@vector@2:
	mov	eax, DWORD PTR _this$[ebp]
$LN4@vector@2:
	pop	edi
	pop	esi
	pop	ebx
	add	esp, 204				; 000000ccH
	cmp	ebp, esp
	call	__RTC_CheckEsp
	mov	esp, ebp
	pop	ebp
	ret	4
??_ENumberingSystem@icu_56@@UAEPAXI@Z ENDP		; icu_56::NumberingSystem::`vector deleting destructor'
_TEXT	ENDS
PUBLIC	?getStaticClassID@NumberingSystem@icu_56@@SAPAXXZ ; icu_56::NumberingSystem::getStaticClassID
; Function compile flags: /Odtp /RTCsu /ZI
;	COMDAT ?getStaticClassID@NumberingSystem@icu_56@@SAPAXXZ
_TEXT	SEGMENT
?getStaticClassID@NumberingSystem@icu_56@@SAPAXXZ PROC	; icu_56::NumberingSystem::getStaticClassID, COMDAT
; File d:\mozilla\intl\icu\source\i18n\numsys.cpp
; Line 48
	push	ebp
	mov	ebp, esp
	sub	esp, 192				; 000000c0H
	push	ebx
	push	esi
	push	edi
	lea	edi, DWORD PTR [ebp-192]
	mov	ecx, 48					; 00000030H
	mov	eax, -858993460				; ccccccccH
	rep stosd
	mov	eax, OFFSET ?classID@?1??getStaticClassID@NumberingSystem@icu_56@@SAPAXXZ@4DA
	pop	edi
	pop	esi
	pop	ebx
	mov	esp, ebp
	pop	ebp
	ret	0
?getStaticClassID@NumberingSystem@icu_56@@SAPAXXZ ENDP	; icu_56::NumberingSystem::getStaticClassID
_TEXT	ENDS
PUBLIC	?getDynamicClassID@NumberingSystem@icu_56@@UBEPAXXZ ; icu_56::NumberingSystem::getDynamicClassID
; Function compile flags: /Odtp /RTCsu /ZI
;	COMDAT ?getDynamicClassID@NumberingSystem@icu_56@@UBEPAXXZ
_TEXT	SEGMENT
_this$ = -8						; size = 4
?getDynamicClassID@NumberingSystem@icu_56@@UBEPAXXZ PROC ; icu_56::NumberingSystem::getDynamicClassID, COMDAT
; _this$ = ecx
; Line 48
	push	ebp
	mov	ebp, esp
	sub	esp, 204				; 000000ccH
	push	ebx
	push	esi
	push	edi
	push	ecx
	lea	edi, DWORD PTR [ebp-204]
	mov	ecx, 51					; 00000033H
	mov	eax, -858993460				; ccccccccH
	rep stosd
	pop	ecx
	mov	DWORD PTR _this$[ebp], ecx
	call	?getStaticClassID@NumberingSystem@icu_56@@SAPAXXZ ; icu_56::NumberingSystem::getStaticClassID
	pop	edi
	pop	esi
	pop	ebx
	add	esp, 204				; 000000ccH
	cmp	ebp, esp
	call	__RTC_CheckEsp
	mov	esp, ebp
	pop	ebp
	ret	0
?getDynamicClassID@NumberingSystem@icu_56@@UBEPAXXZ ENDP ; icu_56::NumberingSystem::getDynamicClassID
_TEXT	ENDS
PUBLIC	?getStaticClassID@NumsysNameEnumeration@icu_56@@SAPAXXZ ; icu_56::NumsysNameEnumeration::getStaticClassID
; Function compile flags: /Odtp /RTCsu /ZI
;	COMDAT ?getStaticClassID@NumsysNameEnumeration@icu_56@@SAPAXXZ
_TEXT	SEGMENT
?getStaticClassID@NumsysNameEnumeration@icu_56@@SAPAXXZ PROC ; icu_56::NumsysNameEnumeration::getStaticClassID, COMDAT
; Line 49
	push	ebp
	mov	ebp, esp
	sub	esp, 192				; 000000c0H
	push	ebx
	push	esi
	push	edi
	lea	edi, DWORD PTR [ebp-192]
	mov	ecx, 48					; 00000030H
	mov	eax, -858993460				; ccccccccH
	rep stosd
	mov	eax, OFFSET ?classID@?1??getStaticClassID@NumsysNameEnumeration@icu_56@@SAPAXXZ@4DA
	pop	edi
	pop	esi
	pop	ebx
	mov	esp, ebp
	pop	ebp
	ret	0
?getStaticClassID@NumsysNameEnumeration@icu_56@@SAPAXXZ ENDP ; icu_56::NumsysNameEnumeration::getStaticClassID
_TEXT	ENDS
PUBLIC	?getDynamicClassID@NumsysNameEnumeration@icu_56@@UBEPAXXZ ; icu_56::NumsysNameEnumeration::getDynamicClassID
; Function compile flags: /Odtp /RTCsu /ZI
;	COMDAT ?getDynamicClassID@NumsysNameEnumeration@icu_56@@UBEPAXXZ
_TEXT	SEGMENT
_this$ = -8						; size = 4
?getDynamicClassID@NumsysNameEnumeration@icu_56@@UBEPAXXZ PROC ; icu_56::NumsysNameEnumeration::getDynamicClassID, COMDAT
; _this$ = ecx
; Line 49
	push	ebp
	mov	ebp, esp
	sub	esp, 204				; 000000ccH
	push	ebx
	push	esi
	push	edi
	push	ecx
	lea	edi, DWORD PTR [ebp-204]
	mov	ecx, 51					; 00000033H
	mov	eax, -858993460				; ccccccccH
	rep stosd
	pop	ecx
	mov	DWORD PTR _this$[ebp], ecx
	call	?getStaticClassID@NumsysNameEnumeration@icu_56@@SAPAXXZ ; icu_56::NumsysNameEnumeration::getStaticClassID
	pop	edi
	pop	esi
	pop	ebx
	add	esp, 204				; 000000ccH
	cmp	ebp, esp
	call	__RTC_CheckEsp
	mov	esp, ebp
	pop	ebp
	ret	0
?getDynamicClassID@NumsysNameEnumeration@icu_56@@UBEPAXXZ ENDP ; icu_56::NumsysNameEnumeration::getDynamicClassID
_TEXT	ENDS
PUBLIC	??_C@_1BG@PGBNDIAE@?$AA0?$AA1?$AA2?$AA3?$AA4?$AA5?$AA6?$AA7?$AA8?$AA9?$AA?$AA@ ; `string'
PUBLIC	??_7NumberingSystem@icu_56@@6B@			; icu_56::NumberingSystem::`vftable'
PUBLIC	__$ArrayPad$
PUBLIC	??0NumberingSystem@icu_56@@QAE@XZ		; icu_56::NumberingSystem::NumberingSystem
PUBLIC	??_R4NumberingSystem@icu_56@@6B@		; icu_56::NumberingSystem::`RTTI Complete Object Locator'
PUBLIC	??_R0?AVNumberingSystem@icu_56@@@8		; icu_56::NumberingSystem `RTTI Type Descriptor'
PUBLIC	??_R3NumberingSystem@icu_56@@8			; icu_56::NumberingSystem::`RTTI Class Hierarchy Descriptor'
PUBLIC	??_R2NumberingSystem@icu_56@@8			; icu_56::NumberingSystem::`RTTI Base Class Array'
PUBLIC	??_R1A@?0A@EA@NumberingSystem@icu_56@@8		; icu_56::NumberingSystem::`RTTI Base Class Descriptor at (0,-1,0,64)'
PUBLIC	?getDescription@NumberingSystem@icu_56@@UBE?AVUnicodeString@2@XZ ; icu_56::NumberingSystem::getDescription
EXTRN	__imp_??1UObject@icu_56@@UAE@XZ:PROC
EXTRN	__imp_??1UnicodeString@icu_56@@UAE@XZ:PROC
EXTRN	_strcpy:PROC
EXTRN	__imp_?setTo@UnicodeString@icu_56@@QAEAAV12@ABV12@@Z:PROC
EXTRN	__imp_??0UnicodeString@icu_56@@QAE@CPB_WH@Z:PROC
EXTRN	__imp_??0UnicodeString@icu_56@@QAE@XZ:PROC
EXTRN	___security_cookie:DWORD
EXTRN	___CxxFrameHandler3:PROC
EXTRN	@__security_check_cookie@4:PROC
EXTRN	@_RTC_CheckStackVars@8:PROC
;	COMDAT ??_R1A@?0A@EA@NumberingSystem@icu_56@@8
rdata$r	SEGMENT
??_R1A@?0A@EA@NumberingSystem@icu_56@@8 DD FLAT:??_R0?AVNumberingSystem@icu_56@@@8 ; icu_56::NumberingSystem::`RTTI Base Class Descriptor at (0,-1,0,64)'
	DD	02H
	DD	00H
	DD	0ffffffffH
	DD	00H
	DD	040H
	DD	FLAT:??_R3NumberingSystem@icu_56@@8
rdata$r	ENDS
;	COMDAT ??_R2NumberingSystem@icu_56@@8
rdata$r	SEGMENT
??_R2NumberingSystem@icu_56@@8 DD FLAT:??_R1A@?0A@EA@NumberingSystem@icu_56@@8 ; icu_56::NumberingSystem::`RTTI Base Class Array'
	DD	FLAT:??_R1A@?0A@EA@UObject@icu_56@@8
	DD	FLAT:??_R13?0A@EA@UMemory@icu_56@@8
rdata$r	ENDS
;	COMDAT ??_R3NumberingSystem@icu_56@@8
rdata$r	SEGMENT
??_R3NumberingSystem@icu_56@@8 DD 00H			; icu_56::NumberingSystem::`RTTI Class Hierarchy Descriptor'
	DD	00H
	DD	03H
	DD	FLAT:??_R2NumberingSystem@icu_56@@8
rdata$r	ENDS
;	COMDAT ??_R0?AVNumberingSystem@icu_56@@@8
_DATA	SEGMENT
??_R0?AVNumberingSystem@icu_56@@@8 DD FLAT:??_7type_info@@6B@ ; icu_56::NumberingSystem `RTTI Type Descriptor'
	DD	00H
	DB	'.?AVNumberingSystem@icu_56@@', 00H
_DATA	ENDS
;	COMDAT ??_R4NumberingSystem@icu_56@@6B@
rdata$r	SEGMENT
??_R4NumberingSystem@icu_56@@6B@ DD 00H			; icu_56::NumberingSystem::`RTTI Complete Object Locator'
	DD	00H
	DD	00H
	DD	FLAT:??_R0?AVNumberingSystem@icu_56@@@8
	DD	FLAT:??_R3NumberingSystem@icu_56@@8
rdata$r	ENDS
;	COMDAT ??_C@_1BG@PGBNDIAE@?$AA0?$AA1?$AA2?$AA3?$AA4?$AA5?$AA6?$AA7?$AA8?$AA9?$AA?$AA@
CONST	SEGMENT
??_C@_1BG@PGBNDIAE@?$AA0?$AA1?$AA2?$AA3?$AA4?$AA5?$AA6?$AA7?$AA8?$AA9?$AA?$AA@ DB '0'
	DB	00H, '1', 00H, '2', 00H, '3', 00H, '4', 00H, '5', 00H, '6', 00H
	DB	'7', 00H, '8', 00H, '9', 00H, 00H, 00H	; `string'
CONST	ENDS
;	COMDAT ??_7NumberingSystem@icu_56@@6B@
CONST	SEGMENT
??_7NumberingSystem@icu_56@@6B@ DD FLAT:??_R4NumberingSystem@icu_56@@6B@ ; icu_56::NumberingSystem::`vftable'
	DD	FLAT:??_ENumberingSystem@icu_56@@UAEPAXI@Z
	DD	FLAT:?getDynamicClassID@NumberingSystem@icu_56@@UBEPAXXZ
	DD	FLAT:?getDescription@NumberingSystem@icu_56@@UBE?AVUnicodeString@2@XZ
CONST	ENDS
;	COMDAT xdata$x
xdata$x	SEGMENT
__unwindtable$??0NumberingSystem@icu_56@@QAE@XZ DD 0ffffffffH
	DD	FLAT:__unwindfunclet$??0NumberingSystem@icu_56@@QAE@XZ$0
	DD	00H
	DD	FLAT:__unwindfunclet$??0NumberingSystem@icu_56@@QAE@XZ$1
	DD	01H
	DD	FLAT:__unwindfunclet$??0NumberingSystem@icu_56@@QAE@XZ$2
__ehfuncinfo$??0NumberingSystem@icu_56@@QAE@XZ DD 019930522H
	DD	03H
	DD	FLAT:__unwindtable$??0NumberingSystem@icu_56@@QAE@XZ
	DD	2 DUP(00H)
	DD	2 DUP(00H)
	DD	00H
	DD	01H
; Function compile flags: /Odtp /RTCsu /ZI
xdata$x	ENDS
;	COMDAT ??0NumberingSystem@icu_56@@QAE@XZ
_TEXT	SEGMENT
_defaultDigits$ = -96					; size = 64
_this$ = -24						; size = 4
__$ArrayPad$ = -16					; size = 4
__$EHRec$ = -12						; size = 12
??0NumberingSystem@icu_56@@QAE@XZ PROC			; icu_56::NumberingSystem::NumberingSystem, COMDAT
; _this$ = ecx
; Line 57
	push	ebp
	mov	ebp, esp
	push	-1
	push	__ehhandler$??0NumberingSystem@icu_56@@QAE@XZ
	mov	eax, DWORD PTR fs:0
	push	eax
	sub	esp, 280				; 00000118H
	push	ebx
	push	esi
	push	edi
	push	ecx
	lea	edi, DWORD PTR [ebp-292]
	mov	ecx, 70					; 00000046H
	mov	eax, -858993460				; ccccccccH
	rep stosd
	pop	ecx
	mov	eax, DWORD PTR ___security_cookie
	xor	eax, ebp
	mov	DWORD PTR __$ArrayPad$[ebp], eax
	push	eax
	lea	eax, DWORD PTR __$EHRec$[ebp]
	mov	DWORD PTR fs:0, eax
	mov	DWORD PTR _this$[ebp], ecx
	mov	esi, esp
	mov	ecx, DWORD PTR _this$[ebp]
	call	DWORD PTR __imp_??0UObject@icu_56@@QAE@XZ
	cmp	esi, esp
	call	__RTC_CheckEsp
	mov	DWORD PTR __$EHRec$[ebp+8], 0
	mov	eax, DWORD PTR _this$[ebp]
	mov	DWORD PTR [eax], OFFSET ??_7NumberingSystem@icu_56@@6B@
	mov	ecx, DWORD PTR _this$[ebp]
	add	ecx, 4
	mov	esi, esp
	call	DWORD PTR __imp_??0UnicodeString@icu_56@@QAE@XZ
	cmp	esi, esp
	call	__RTC_CheckEsp
	mov	BYTE PTR __$EHRec$[ebp+8], 1
; Line 58
	mov	eax, DWORD PTR _this$[ebp]
	mov	DWORD PTR [eax+68], 10			; 0000000aH
; Line 59
	mov	eax, DWORD PTR _this$[ebp]
	mov	BYTE PTR [eax+72], 0
; Line 60
	mov	esi, esp
	push	-1
	push	OFFSET ??_C@_1BG@PGBNDIAE@?$AA0?$AA1?$AA2?$AA3?$AA4?$AA5?$AA6?$AA7?$AA8?$AA9?$AA?$AA@
	push	1
	lea	ecx, DWORD PTR _defaultDigits$[ebp]
	call	DWORD PTR __imp_??0UnicodeString@icu_56@@QAE@CPB_WH@Z
	cmp	esi, esp
	call	__RTC_CheckEsp
	mov	BYTE PTR __$EHRec$[ebp+8], 2
; Line 61
	mov	esi, esp
	lea	eax, DWORD PTR _defaultDigits$[ebp]
	push	eax
	mov	ecx, DWORD PTR _this$[ebp]
	add	ecx, 4
	call	DWORD PTR __imp_?setTo@UnicodeString@icu_56@@QAEAAV12@ABV12@@Z
	cmp	esi, esp
	call	__RTC_CheckEsp
; Line 62
	push	OFFSET _gLatn
	mov	eax, DWORD PTR _this$[ebp]
	add	eax, 73					; 00000049H
	push	eax
	call	_strcpy
	add	esp, 8
; Line 63
	mov	BYTE PTR __$EHRec$[ebp+8], 1
	mov	esi, esp
	lea	ecx, DWORD PTR _defaultDigits$[ebp]
	call	DWORD PTR __imp_??1UnicodeString@icu_56@@UAE@XZ
	cmp	esi, esp
	call	__RTC_CheckEsp
	mov	DWORD PTR __$EHRec$[ebp+8], -1
	mov	eax, DWORD PTR _this$[ebp]
	push	edx
	mov	ecx, ebp
	push	eax
	lea	edx, DWORD PTR $LN9@NumberingS
	call	@_RTC_CheckStackVars@8
	pop	eax
	pop	edx
	mov	ecx, DWORD PTR __$EHRec$[ebp]
	mov	DWORD PTR fs:0, ecx
	pop	ecx
	pop	edi
	pop	esi
	pop	ebx
	mov	ecx, DWORD PTR __$ArrayPad$[ebp]
	xor	ecx, ebp
	call	@__security_check_cookie@4
	add	esp, 292				; 00000124H
	cmp	ebp, esp
	call	__RTC_CheckEsp
	mov	esp, ebp
	pop	ebp
	ret	0
	npad	1
$LN9@NumberingS:
	DD	1
	DD	$LN8@NumberingS
$LN8@NumberingS:
	DD	-96					; ffffffa0H
	DD	64					; 00000040H
	DD	$LN6@NumberingS
$LN6@NumberingS:
	DB	100					; 00000064H
	DB	101					; 00000065H
	DB	102					; 00000066H
	DB	97					; 00000061H
	DB	117					; 00000075H
	DB	108					; 0000006cH
	DB	116					; 00000074H
	DB	68					; 00000044H
	DB	105					; 00000069H
	DB	103					; 00000067H
	DB	105					; 00000069H
	DB	116					; 00000074H
	DB	115					; 00000073H
	DB	0
_TEXT	ENDS
;	COMDAT text$x
text$x	SEGMENT
__unwindfunclet$??0NumberingSystem@icu_56@@QAE@XZ$0:
	mov	esi, esp
	mov	ecx, DWORD PTR _this$[ebp]
	call	DWORD PTR __imp_??1UObject@icu_56@@UAE@XZ
	cmp	esi, esp
	jmp	__RTC_CheckEsp
__unwindfunclet$??0NumberingSystem@icu_56@@QAE@XZ$1:
	mov	ecx, DWORD PTR _this$[ebp]
	add	ecx, 4
	mov	esi, esp
	call	DWORD PTR __imp_??1UnicodeString@icu_56@@UAE@XZ
	cmp	esi, esp
	jmp	__RTC_CheckEsp
__unwindfunclet$??0NumberingSystem@icu_56@@QAE@XZ$2:
	mov	esi, esp
	lea	ecx, DWORD PTR _defaultDigits$[ebp]
	call	DWORD PTR __imp_??1UnicodeString@icu_56@@UAE@XZ
	cmp	esi, esp
	jmp	__RTC_CheckEsp
__ehhandler$??0NumberingSystem@icu_56@@QAE@XZ:
	mov	edx, DWORD PTR [esp+8]
	lea	eax, DWORD PTR [edx+12]
	mov	ecx, DWORD PTR [edx-296]
	xor	ecx, eax
	call	@__security_check_cookie@4
	mov	ecx, DWORD PTR [edx-4]
	xor	ecx, eax
	call	@__security_check_cookie@4
	mov	eax, OFFSET __ehfuncinfo$??0NumberingSystem@icu_56@@QAE@XZ
	jmp	___CxxFrameHandler3
text$x	ENDS
??0NumberingSystem@icu_56@@QAE@XZ ENDP			; icu_56::NumberingSystem::NumberingSystem
PUBLIC	??0NumberingSystem@icu_56@@QAE@ABV01@@Z		; icu_56::NumberingSystem::NumberingSystem
;	COMDAT xdata$x
xdata$x	SEGMENT
__unwindtable$??0NumberingSystem@icu_56@@QAE@ABV01@@Z DD 0ffffffffH
	DD	FLAT:__unwindfunclet$??0NumberingSystem@icu_56@@QAE@ABV01@@Z$0
	DD	00H
	DD	FLAT:__unwindfunclet$??0NumberingSystem@icu_56@@QAE@ABV01@@Z$1
__ehfuncinfo$??0NumberingSystem@icu_56@@QAE@ABV01@@Z DD 019930522H
	DD	02H
	DD	FLAT:__unwindtable$??0NumberingSystem@icu_56@@QAE@ABV01@@Z
	DD	2 DUP(00H)
	DD	2 DUP(00H)
	DD	00H
	DD	01H
; Function compile flags: /Odtp /RTCsu /ZI
xdata$x	ENDS
;	COMDAT ??0NumberingSystem@icu_56@@QAE@ABV01@@Z
_TEXT	SEGMENT
_this$ = -20						; size = 4
__$EHRec$ = -12						; size = 12
_other$ = 8						; size = 4
??0NumberingSystem@icu_56@@QAE@ABV01@@Z PROC		; icu_56::NumberingSystem::NumberingSystem, COMDAT
; _this$ = ecx
; Line 71
	push	ebp
	mov	ebp, esp
	push	-1
	push	__ehhandler$??0NumberingSystem@icu_56@@QAE@ABV01@@Z
	mov	eax, DWORD PTR fs:0
	push	eax
	sub	esp, 204				; 000000ccH
	push	ebx
	push	esi
	push	edi
	push	ecx
	lea	edi, DWORD PTR [ebp-216]
	mov	ecx, 51					; 00000033H
	mov	eax, -858993460				; ccccccccH
	rep stosd
	pop	ecx
	mov	eax, DWORD PTR ___security_cookie
	xor	eax, ebp
	push	eax
	lea	eax, DWORD PTR __$EHRec$[ebp]
	mov	DWORD PTR fs:0, eax
	mov	DWORD PTR _this$[ebp], ecx
	mov	esi, esp
	mov	eax, DWORD PTR _other$[ebp]
	push	eax
	mov	ecx, DWORD PTR _this$[ebp]
	call	DWORD PTR __imp_??0UObject@icu_56@@QAE@ABV01@@Z
	cmp	esi, esp
	call	__RTC_CheckEsp
	mov	DWORD PTR __$EHRec$[ebp+8], 0
	mov	eax, DWORD PTR _this$[ebp]
	mov	DWORD PTR [eax], OFFSET ??_7NumberingSystem@icu_56@@6B@
	mov	ecx, DWORD PTR _this$[ebp]
	add	ecx, 4
	mov	esi, esp
	call	DWORD PTR __imp_??0UnicodeString@icu_56@@QAE@XZ
	cmp	esi, esp
	call	__RTC_CheckEsp
	mov	BYTE PTR __$EHRec$[ebp+8], 1
; Line 72
	mov	eax, DWORD PTR _other$[ebp]
	push	eax
	mov	ecx, DWORD PTR _this$[ebp]
	call	??4NumberingSystem@icu_56@@QAEAAV01@ABV01@@Z
; Line 73
	mov	DWORD PTR __$EHRec$[ebp+8], -1
	mov	eax, DWORD PTR _this$[ebp]
	mov	ecx, DWORD PTR __$EHRec$[ebp]
	mov	DWORD PTR fs:0, ecx
	pop	ecx
	pop	edi
	pop	esi
	pop	ebx
	add	esp, 216				; 000000d8H
	cmp	ebp, esp
	call	__RTC_CheckEsp
	mov	esp, ebp
	pop	ebp
	ret	4
_TEXT	ENDS
;	COMDAT text$x
text$x	SEGMENT
__unwindfunclet$??0NumberingSystem@icu_56@@QAE@ABV01@@Z$0:
	mov	esi, esp
	mov	ecx, DWORD PTR _this$[ebp]
	call	DWORD PTR __imp_??1UObject@icu_56@@UAE@XZ
	cmp	esi, esp
	jmp	__RTC_CheckEsp
__unwindfunclet$??0NumberingSystem@icu_56@@QAE@ABV01@@Z$1:
	mov	ecx, DWORD PTR _this$[ebp]
	add	ecx, 4
	mov	esi, esp
	call	DWORD PTR __imp_??1UnicodeString@icu_56@@UAE@XZ
	cmp	esi, esp
	jmp	__RTC_CheckEsp
__ehhandler$??0NumberingSystem@icu_56@@QAE@ABV01@@Z:
	mov	edx, DWORD PTR [esp+8]
	lea	eax, DWORD PTR [edx+12]
	mov	ecx, DWORD PTR [edx-220]
	xor	ecx, eax
	call	@__security_check_cookie@4
	mov	eax, OFFSET __ehfuncinfo$??0NumberingSystem@icu_56@@QAE@ABV01@@Z
	jmp	___CxxFrameHandler3
text$x	ENDS
??0NumberingSystem@icu_56@@QAE@ABV01@@Z ENDP		; icu_56::NumberingSystem::NumberingSystem
PUBLIC	?setName@NumberingSystem@icu_56@@AAEXPBD@Z	; icu_56::NumberingSystem::setName
PUBLIC	?setAlgorithmic@NumberingSystem@icu_56@@AAEXC@Z	; icu_56::NumberingSystem::setAlgorithmic
PUBLIC	?setDesc@NumberingSystem@icu_56@@AAEXVUnicodeString@2@@Z ; icu_56::NumberingSystem::setDesc
PUBLIC	?setRadix@NumberingSystem@icu_56@@AAEXH@Z	; icu_56::NumberingSystem::setRadix
PUBLIC	?createInstance@NumberingSystem@icu_56@@SAPAV12@HCABVUnicodeString@2@AAW4UErrorCode@@@Z ; icu_56::NumberingSystem::createInstance
EXTRN	__imp_??0UnicodeString@icu_56@@QAE@ABV01@@Z:PROC
EXTRN	__imp_??2UMemory@icu_56@@SAPAXI@Z:PROC
EXTRN	__imp_?countChar32@UnicodeString@icu_56@@QBEHHH@Z:PROC
;	COMDAT xdata$x
xdata$x	SEGMENT
__unwindtable$?createInstance@NumberingSystem@icu_56@@SAPAV12@HCABVUnicodeString@2@AAW4UErrorCode@@@Z DD 0ffffffffH
	DD	FLAT:__unwindfunclet$?createInstance@NumberingSystem@icu_56@@SAPAV12@HCABVUnicodeString@2@AAW4UErrorCode@@@Z$0
__ehfuncinfo$?createInstance@NumberingSystem@icu_56@@SAPAV12@HCABVUnicodeString@2@AAW4UErrorCode@@@Z DD 019930522H
	DD	01H
	DD	FLAT:__unwindtable$?createInstance@NumberingSystem@icu_56@@SAPAV12@HCABVUnicodeString@2@AAW4UErrorCode@@@Z
	DD	2 DUP(00H)
	DD	2 DUP(00H)
	DD	00H
	DD	01H
; Function compile flags: /Odtp /RTCsu /ZI
xdata$x	ENDS
;	COMDAT ?createInstance@NumberingSystem@icu_56@@SAPAV12@HCABVUnicodeString@2@AAW4UErrorCode@@@Z
_TEXT	SEGMENT
tv138 = -256						; size = 4
tv83 = -256						; size = 4
$T45058 = -248						; size = 4
$T45059 = -236						; size = 4
$T45062 = -224						; size = 4
_ns$ = -20						; size = 4
__$EHRec$ = -12						; size = 12
_radix_in$ = 8						; size = 4
_isAlgorithmic_in$ = 12					; size = 1
_desc_in$ = 16						; size = 4
_status$ = 20						; size = 4
?createInstance@NumberingSystem@icu_56@@SAPAV12@HCABVUnicodeString@2@AAW4UErrorCode@@@Z PROC ; icu_56::NumberingSystem::createInstance, COMDAT
; Line 76
	push	ebp
	mov	ebp, esp
	push	-1
	push	__ehhandler$?createInstance@NumberingSystem@icu_56@@SAPAV12@HCABVUnicodeString@2@AAW4UErrorCode@@@Z
	mov	eax, DWORD PTR fs:0
	push	eax
	sub	esp, 244				; 000000f4H
	push	ebx
	push	esi
	push	edi
	lea	edi, DWORD PTR [ebp-256]
	mov	ecx, 61					; 0000003dH
	mov	eax, -858993460				; ccccccccH
	rep stosd
	mov	eax, DWORD PTR ___security_cookie
	xor	eax, ebp
	push	eax
	lea	eax, DWORD PTR __$EHRec$[ebp]
	mov	DWORD PTR fs:0, eax
; Line 78
	mov	eax, DWORD PTR _status$[ebp]
	mov	ecx, DWORD PTR [eax]
	push	ecx
	call	?U_FAILURE@@YACW4UErrorCode@@@Z		; U_FAILURE
	add	esp, 4
	movsx	edx, al
	test	edx, edx
	je	SHORT $LN4@createInst
; Line 79
	xor	eax, eax
	jmp	$LN5@createInst
$LN4@createInst:
; Line 82
	cmp	DWORD PTR _radix_in$[ebp], 2
	jge	SHORT $LN3@createInst
; Line 83
	mov	eax, DWORD PTR _status$[ebp]
	mov	DWORD PTR [eax], 1
; Line 84
	xor	eax, eax
	jmp	$LN5@createInst
$LN3@createInst:
; Line 87
	movsx	eax, BYTE PTR _isAlgorithmic_in$[ebp]
	test	eax, eax
	jne	SHORT $LN2@createInst
; Line 88
	mov	esi, esp
	push	2147483647				; 7fffffffH
	push	0
	mov	ecx, DWORD PTR _desc_in$[ebp]
	call	DWORD PTR __imp_?countChar32@UnicodeString@icu_56@@QBEHHH@Z
	cmp	esi, esp
	call	__RTC_CheckEsp
	cmp	eax, DWORD PTR _radix_in$[ebp]
	je	SHORT $LN2@createInst
; Line 89
	mov	eax, DWORD PTR _status$[ebp]
	mov	DWORD PTR [eax], 1
; Line 90
	xor	eax, eax
	jmp	$LN5@createInst
$LN2@createInst:
; Line 94
	mov	esi, esp
	push	84					; 00000054H
	call	DWORD PTR __imp_??2UMemory@icu_56@@SAPAXI@Z
	add	esp, 4
	cmp	esi, esp
	call	__RTC_CheckEsp
	mov	DWORD PTR $T45059[ebp], eax
	mov	DWORD PTR __$EHRec$[ebp+8], 0
	cmp	DWORD PTR $T45059[ebp], 0
	je	SHORT $LN7@createInst
	mov	ecx, DWORD PTR $T45059[ebp]
	call	??0NumberingSystem@icu_56@@QAE@XZ	; icu_56::NumberingSystem::NumberingSystem
	mov	DWORD PTR tv83[ebp], eax
	jmp	SHORT $LN8@createInst
$LN7@createInst:
	mov	DWORD PTR tv83[ebp], 0
$LN8@createInst:
	mov	eax, DWORD PTR tv83[ebp]
	mov	DWORD PTR $T45058[ebp], eax
	mov	DWORD PTR __$EHRec$[ebp+8], -1
	mov	ecx, DWORD PTR $T45058[ebp]
	mov	DWORD PTR _ns$[ebp], ecx
; Line 96
	mov	eax, DWORD PTR _radix_in$[ebp]
	push	eax
	mov	ecx, DWORD PTR _ns$[ebp]
	call	?setRadix@NumberingSystem@icu_56@@AAEXH@Z ; icu_56::NumberingSystem::setRadix
; Line 97
	sub	esp, 64					; 00000040H
	mov	ecx, esp
	mov	DWORD PTR $T45062[ebp], esp
	mov	esi, esp
	mov	eax, DWORD PTR _desc_in$[ebp]
	push	eax
	call	DWORD PTR __imp_??0UnicodeString@icu_56@@QAE@ABV01@@Z
	cmp	esi, esp
	call	__RTC_CheckEsp
	mov	DWORD PTR tv138[ebp], eax
	mov	ecx, DWORD PTR _ns$[ebp]
	call	?setDesc@NumberingSystem@icu_56@@AAEXVUnicodeString@2@@Z ; icu_56::NumberingSystem::setDesc
; Line 98
	movzx	eax, BYTE PTR _isAlgorithmic_in$[ebp]
	push	eax
	mov	ecx, DWORD PTR _ns$[ebp]
	call	?setAlgorithmic@NumberingSystem@icu_56@@AAEXC@Z ; icu_56::NumberingSystem::setAlgorithmic
; Line 99
	push	0
	mov	ecx, DWORD PTR _ns$[ebp]
	call	?setName@NumberingSystem@icu_56@@AAEXPBD@Z ; icu_56::NumberingSystem::setName
; Line 100
	mov	eax, DWORD PTR _ns$[ebp]
$LN5@createInst:
; Line 102
	mov	ecx, DWORD PTR __$EHRec$[ebp]
	mov	DWORD PTR fs:0, ecx
	pop	ecx
	pop	edi
	pop	esi
	pop	ebx
	add	esp, 256				; 00000100H
	cmp	ebp, esp
	call	__RTC_CheckEsp
	mov	esp, ebp
	pop	ebp
	ret	0
_TEXT	ENDS
;	COMDAT text$x
text$x	SEGMENT
__unwindfunclet$?createInstance@NumberingSystem@icu_56@@SAPAV12@HCABVUnicodeString@2@AAW4UErrorCode@@@Z$0:
	mov	esi, esp
	mov	eax, DWORD PTR $T45059[ebp]
	push	eax
	call	DWORD PTR __imp_??3UMemory@icu_56@@SAXPAX@Z
	add	esp, 4
	cmp	esi, esp
	jmp	__RTC_CheckEsp
__ehhandler$?createInstance@NumberingSystem@icu_56@@SAPAV12@HCABVUnicodeString@2@AAW4UErrorCode@@@Z:
	mov	edx, DWORD PTR [esp+8]
	lea	eax, DWORD PTR [edx+12]
	mov	ecx, DWORD PTR [edx-260]
	xor	ecx, eax
	call	@__security_check_cookie@4
	mov	eax, OFFSET __ehfuncinfo$?createInstance@NumberingSystem@icu_56@@SAPAV12@HCABVUnicodeString@2@AAW4UErrorCode@@@Z
	jmp	___CxxFrameHandler3
text$x	ENDS
?createInstance@NumberingSystem@icu_56@@SAPAV12@HCABVUnicodeString@2@AAW4UErrorCode@@@Z ENDP ; icu_56::NumberingSystem::createInstance
; Function compile flags: /Odtp /RTCsu /ZI
;	COMDAT ?U_FAILURE@@YACW4UErrorCode@@@Z
_TEXT	SEGMENT
_code$ = 8						; size = 4
?U_FAILURE@@YACW4UErrorCode@@@Z PROC			; U_FAILURE, COMDAT
; File d:\mozilla\intl\icu\include\unicode\utypes.h
; Line 705
	push	ebp
	mov	ebp, esp
	sub	esp, 192				; 000000c0H
	push	ebx
	push	esi
	push	edi
	lea	edi, DWORD PTR [ebp-192]
	mov	ecx, 48					; 00000030H
	mov	eax, -858993460				; ccccccccH
	rep stosd
	cmp	DWORD PTR _code$[ebp], 0
	setg	al
	pop	edi
	pop	esi
	pop	ebx
	mov	esp, ebp
	pop	ebp
	ret	0
?U_FAILURE@@YACW4UErrorCode@@@Z ENDP			; U_FAILURE
_TEXT	ENDS
PUBLIC	?createInstanceByName@NumberingSystem@icu_56@@SAPAV12@PBDAAW4UErrorCode@@@Z ; icu_56::NumberingSystem::createInstanceByName
PUBLIC	??_C@_07OJOLMEAA@numbers?$AA@			; `string'
PUBLIC	__$ArrayPad$
PUBLIC	?createInstance@NumberingSystem@icu_56@@SAPAV12@ABVLocale@2@AAW4UErrorCode@@@Z ; icu_56::NumberingSystem::createInstance
EXTRN	_ures_close_56:PROC
EXTRN	_u_UCharsToChars_56:PROC
EXTRN	_ures_getStringByKeyWithFallback_56:PROC
EXTRN	_ures_getByKey_56:PROC
EXTRN	_ures_open_56:PROC
EXTRN	__imp_?getName@Locale@icu_56@@QBEPBDXZ:PROC
EXTRN	_strcmp:PROC
EXTRN	__imp_?getKeywordValue@Locale@icu_56@@QBEHPBDPADHAAW4UErrorCode@@@Z:PROC
;	COMDAT ??_C@_07OJOLMEAA@numbers?$AA@
; File d:\mozilla\intl\icu\source\i18n\numsys.cpp
CONST	SEGMENT
??_C@_07OJOLMEAA@numbers?$AA@ DB 'numbers', 00H		; `string'
CONST	ENDS
;	COMDAT xdata$x
xdata$x	SEGMENT
__unwindtable$?createInstance@NumberingSystem@icu_56@@SAPAV12@ABVLocale@2@AAW4UErrorCode@@@Z DD 0ffffffffH
	DD	FLAT:__unwindfunclet$?createInstance@NumberingSystem@icu_56@@SAPAV12@ABVLocale@2@AAW4UErrorCode@@@Z$0
__ehfuncinfo$?createInstance@NumberingSystem@icu_56@@SAPAV12@ABVLocale@2@AAW4UErrorCode@@@Z DD 019930522H
	DD	01H
	DD	FLAT:__unwindtable$?createInstance@NumberingSystem@icu_56@@SAPAV12@ABVLocale@2@AAW4UErrorCode@@@Z
	DD	2 DUP(00H)
	DD	2 DUP(00H)
	DD	00H
	DD	01H
; Function compile flags: /Odtp /RTCsu /ZI
xdata$x	ENDS
;	COMDAT ?createInstance@NumberingSystem@icu_56@@SAPAV12@ABVLocale@2@AAW4UErrorCode@@@Z
_TEXT	SEGMENT
tv181 = -436						; size = 4
$T45076 = -428						; size = 4
$T45077 = -416						; size = 4
_ns$37903 = -212					; size = 4
_nsName$37894 = -200					; size = 4
_numberElementsRes$37890 = -188				; size = 4
_resource$37889 = -176					; size = 4
_localStatus$37888 = -164				; size = 4
_count$ = -152						; size = 4
_buffer$ = -140						; size = 96
_usingFallback$ = -33					; size = 1
_nsResolved$ = -21					; size = 1
__$ArrayPad$ = -16					; size = 4
__$EHRec$ = -12						; size = 12
_inLocale$ = 8						; size = 4
_status$ = 12						; size = 4
?createInstance@NumberingSystem@icu_56@@SAPAV12@ABVLocale@2@AAW4UErrorCode@@@Z PROC ; icu_56::NumberingSystem::createInstance, COMDAT
; Line 106
	push	ebp
	mov	ebp, esp
	push	-1
	push	__ehhandler$?createInstance@NumberingSystem@icu_56@@SAPAV12@ABVLocale@2@AAW4UErrorCode@@@Z
	mov	eax, DWORD PTR fs:0
	push	eax
	sub	esp, 424				; 000001a8H
	push	ebx
	push	esi
	push	edi
	lea	edi, DWORD PTR [ebp-436]
	mov	ecx, 106				; 0000006aH
	mov	eax, -858993460				; ccccccccH
	rep stosd
	mov	eax, DWORD PTR ___security_cookie
	xor	eax, ebp
	mov	DWORD PTR __$ArrayPad$[ebp], eax
	push	eax
	lea	eax, DWORD PTR __$EHRec$[ebp]
	mov	DWORD PTR fs:0, eax
; Line 108
	mov	eax, DWORD PTR _status$[ebp]
	mov	ecx, DWORD PTR [eax]
	push	ecx
	call	?U_FAILURE@@YACW4UErrorCode@@@Z		; U_FAILURE
	add	esp, 4
	movsx	edx, al
	test	edx, edx
	je	SHORT $LN17@createInst@2
; Line 109
	xor	eax, eax
	jmp	$LN18@createInst@2
$LN17@createInst@2:
; Line 112
	mov	BYTE PTR _nsResolved$[ebp], 1
; Line 113
	mov	BYTE PTR _usingFallback$[ebp], 0
; Line 115
	mov	esi, esp
	mov	eax, DWORD PTR _status$[ebp]
	push	eax
	push	96					; 00000060H
	lea	ecx, DWORD PTR _buffer$[ebp]
	push	ecx
	push	OFFSET ??_C@_07OJOLMEAA@numbers?$AA@
	mov	ecx, DWORD PTR _inLocale$[ebp]
	call	DWORD PTR __imp_?getKeywordValue@Locale@icu_56@@QBEHPBDPADHAAW4UErrorCode@@@Z
	cmp	esi, esp
	call	__RTC_CheckEsp
	mov	DWORD PTR _count$[ebp], eax
; Line 116
	cmp	DWORD PTR _count$[ebp], 0
	jle	SHORT $LN16@createInst@2
; Line 117
	mov	eax, DWORD PTR _count$[ebp]
	mov	BYTE PTR _buffer$[ebp+eax], 0
; Line 119
	push	OFFSET _gDefault
	lea	eax, DWORD PTR _buffer$[ebp]
	push	eax
	call	_strcmp
	add	esp, 8
	test	eax, eax
	je	SHORT $LN14@createInst@2
	push	OFFSET _gNative
	lea	eax, DWORD PTR _buffer$[ebp]
	push	eax
	call	_strcmp
	add	esp, 8
	test	eax, eax
	je	SHORT $LN14@createInst@2
	push	OFFSET _gTraditional
	lea	eax, DWORD PTR _buffer$[ebp]
	push	eax
	call	_strcmp
	add	esp, 8
	test	eax, eax
	je	SHORT $LN14@createInst@2
	push	OFFSET _gFinance
	lea	eax, DWORD PTR _buffer$[ebp]
	push	eax
	call	_strcmp
	add	esp, 8
	test	eax, eax
	jne	SHORT $LN15@createInst@2
$LN14@createInst@2:
; Line 120
	mov	BYTE PTR _nsResolved$[ebp], 0
$LN15@createInst@2:
; Line 122
	jmp	SHORT $LN13@createInst@2
$LN16@createInst@2:
; Line 123
	push	OFFSET _gDefault
	lea	eax, DWORD PTR _buffer$[ebp]
	push	eax
	call	_strcpy
	add	esp, 8
; Line 124
	mov	BYTE PTR _nsResolved$[ebp], 0
$LN13@createInst@2:
; Line 127
	movsx	eax, BYTE PTR _nsResolved$[ebp]
	test	eax, eax
	jne	$LN12@createInst@2
; Line 128
	mov	DWORD PTR _localStatus$37888[ebp], 0
; Line 129
	lea	eax, DWORD PTR _localStatus$37888[ebp]
	push	eax
	mov	esi, esp
	mov	ecx, DWORD PTR _inLocale$[ebp]
	call	DWORD PTR __imp_?getName@Locale@icu_56@@QBEPBDXZ
	cmp	esi, esp
	call	__RTC_CheckEsp
	push	eax
	push	0
	call	_ures_open_56
	add	esp, 12					; 0000000cH
	mov	DWORD PTR _resource$37889[ebp], eax
; Line 130
	lea	eax, DWORD PTR _localStatus$37888[ebp]
	push	eax
	push	0
	push	OFFSET _gNumberElements
	mov	ecx, DWORD PTR _resource$37889[ebp]
	push	ecx
	call	_ures_getByKey_56
	add	esp, 16					; 00000010H
	mov	DWORD PTR _numberElementsRes$37890[ebp], eax
$LN11@createInst@2:
; Line 131
	movsx	eax, BYTE PTR _nsResolved$[ebp]
	test	eax, eax
	jne	$LN10@createInst@2
; Line 132
	mov	DWORD PTR _localStatus$37888[ebp], 0
; Line 133
	mov	DWORD PTR _count$[ebp], 0
; Line 134
	lea	eax, DWORD PTR _localStatus$37888[ebp]
	push	eax
	lea	ecx, DWORD PTR _count$[ebp]
	push	ecx
	lea	edx, DWORD PTR _buffer$[ebp]
	push	edx
	mov	eax, DWORD PTR _numberElementsRes$37890[ebp]
	push	eax
	call	_ures_getStringByKeyWithFallback_56
	add	esp, 16					; 00000010H
	mov	DWORD PTR _nsName$37894[ebp], eax
; Line 135
	cmp	DWORD PTR _count$[ebp], 0
	jle	SHORT $LN9@createInst@2
	cmp	DWORD PTR _count$[ebp], 96		; 00000060H
	jge	SHORT $LN9@createInst@2
; Line 136
	mov	eax, DWORD PTR _count$[ebp]
	push	eax
	lea	ecx, DWORD PTR _buffer$[ebp]
	push	ecx
	mov	edx, DWORD PTR _nsName$37894[ebp]
	push	edx
	call	_u_UCharsToChars_56
	add	esp, 12					; 0000000cH
; Line 137
	mov	eax, DWORD PTR _count$[ebp]
	mov	BYTE PTR _buffer$[ebp+eax], 0
; Line 138
	mov	BYTE PTR _nsResolved$[ebp], 1
$LN9@createInst@2:
; Line 141
	movsx	eax, BYTE PTR _nsResolved$[ebp]
	test	eax, eax
	jne	SHORT $LN8@createInst@2
; Line 142
	push	OFFSET _gNative
	lea	eax, DWORD PTR _buffer$[ebp]
	push	eax
	call	_strcmp
	add	esp, 8
	test	eax, eax
	je	SHORT $LN6@createInst@2
	push	OFFSET _gFinance
	lea	eax, DWORD PTR _buffer$[ebp]
	push	eax
	call	_strcmp
	add	esp, 8
	test	eax, eax
	jne	SHORT $LN7@createInst@2
$LN6@createInst@2:
; Line 143
	push	OFFSET _gDefault
	lea	eax, DWORD PTR _buffer$[ebp]
	push	eax
	call	_strcpy
	add	esp, 8
	jmp	SHORT $LN8@createInst@2
$LN7@createInst@2:
; Line 144
	push	OFFSET _gTraditional
	lea	eax, DWORD PTR _buffer$[ebp]
	push	eax
	call	_strcmp
	add	esp, 8
	test	eax, eax
	jne	SHORT $LN4@createInst@2
; Line 145
	push	OFFSET _gNative
	lea	eax, DWORD PTR _buffer$[ebp]
	push	eax
	call	_strcpy
	add	esp, 8
; Line 146
	jmp	SHORT $LN8@createInst@2
$LN4@createInst@2:
; Line 147
	mov	BYTE PTR _usingFallback$[ebp], 1
; Line 148
	mov	BYTE PTR _nsResolved$[ebp], 1
$LN8@createInst@2:
; Line 151
	jmp	$LN11@createInst@2
$LN10@createInst@2:
; Line 152
	mov	eax, DWORD PTR _numberElementsRes$37890[ebp]
	push	eax
	call	_ures_close_56
	add	esp, 4
; Line 153
	mov	eax, DWORD PTR _resource$37889[ebp]
	push	eax
	call	_ures_close_56
	add	esp, 4
$LN12@createInst@2:
; Line 156
	movsx	eax, BYTE PTR _usingFallback$[ebp]
	test	eax, eax
	je	SHORT $LN2@createInst@2
; Line 157
	mov	eax, DWORD PTR _status$[ebp]
	mov	DWORD PTR [eax], -128			; ffffff80H
; Line 158
	mov	esi, esp
	push	84					; 00000054H
	call	DWORD PTR __imp_??2UMemory@icu_56@@SAPAXI@Z
	add	esp, 4
	cmp	esi, esp
	call	__RTC_CheckEsp
	mov	DWORD PTR $T45077[ebp], eax
	mov	DWORD PTR __$EHRec$[ebp+8], 0
	cmp	DWORD PTR $T45077[ebp], 0
	je	SHORT $LN20@createInst@2
	mov	ecx, DWORD PTR $T45077[ebp]
	call	??0NumberingSystem@icu_56@@QAE@XZ	; icu_56::NumberingSystem::NumberingSystem
	mov	DWORD PTR tv181[ebp], eax
	jmp	SHORT $LN21@createInst@2
$LN20@createInst@2:
	mov	DWORD PTR tv181[ebp], 0
$LN21@createInst@2:
	mov	eax, DWORD PTR tv181[ebp]
	mov	DWORD PTR $T45076[ebp], eax
	mov	DWORD PTR __$EHRec$[ebp+8], -1
	mov	ecx, DWORD PTR $T45076[ebp]
	mov	DWORD PTR _ns$37903[ebp], ecx
; Line 159
	mov	eax, DWORD PTR _ns$37903[ebp]
	jmp	SHORT $LN18@createInst@2
; Line 160
	jmp	SHORT $LN18@createInst@2
$LN2@createInst@2:
; Line 161
	mov	eax, DWORD PTR _status$[ebp]
	push	eax
	lea	ecx, DWORD PTR _buffer$[ebp]
	push	ecx
	call	?createInstanceByName@NumberingSystem@icu_56@@SAPAV12@PBDAAW4UErrorCode@@@Z ; icu_56::NumberingSystem::createInstanceByName
	add	esp, 8
$LN18@createInst@2:
; Line 163
	push	edx
	mov	ecx, ebp
	push	eax
	lea	edx, DWORD PTR $LN28@createInst@2
	call	@_RTC_CheckStackVars@8
	pop	eax
	pop	edx
	mov	ecx, DWORD PTR __$EHRec$[ebp]
	mov	DWORD PTR fs:0, ecx
	pop	ecx
	pop	edi
	pop	esi
	pop	ebx
	mov	ecx, DWORD PTR __$ArrayPad$[ebp]
	xor	ecx, ebp
	call	@__security_check_cookie@4
	add	esp, 436				; 000001b4H
	cmp	ebp, esp
	call	__RTC_CheckEsp
	mov	esp, ebp
	pop	ebp
	ret	0
	npad	2
$LN28@createInst@2:
	DD	3
	DD	$LN27@createInst@2
$LN27@createInst@2:
	DD	-140					; ffffff74H
	DD	96					; 00000060H
	DD	$LN23@createInst@2
	DD	-152					; ffffff68H
	DD	4
	DD	$LN24@createInst@2
	DD	-164					; ffffff5cH
	DD	4
	DD	$LN25@createInst@2
$LN25@createInst@2:
	DB	108					; 0000006cH
	DB	111					; 0000006fH
	DB	99					; 00000063H
	DB	97					; 00000061H
	DB	108					; 0000006cH
	DB	83					; 00000053H
	DB	116					; 00000074H
	DB	97					; 00000061H
	DB	116					; 00000074H
	DB	117					; 00000075H
	DB	115					; 00000073H
	DB	0
$LN24@createInst@2:
	DB	99					; 00000063H
	DB	111					; 0000006fH
	DB	117					; 00000075H
	DB	110					; 0000006eH
	DB	116					; 00000074H
	DB	0
$LN23@createInst@2:
	DB	98					; 00000062H
	DB	117					; 00000075H
	DB	102					; 00000066H
	DB	102					; 00000066H
	DB	101					; 00000065H
	DB	114					; 00000072H
	DB	0
_TEXT	ENDS
;	COMDAT text$x
text$x	SEGMENT
__unwindfunclet$?createInstance@NumberingSystem@icu_56@@SAPAV12@ABVLocale@2@AAW4UErrorCode@@@Z$0:
	mov	esi, esp
	mov	eax, DWORD PTR $T45077[ebp]
	push	eax
	call	DWORD PTR __imp_??3UMemory@icu_56@@SAXPAX@Z
	add	esp, 4
	cmp	esi, esp
	jmp	__RTC_CheckEsp
__ehhandler$?createInstance@NumberingSystem@icu_56@@SAPAV12@ABVLocale@2@AAW4UErrorCode@@@Z:
	mov	edx, DWORD PTR [esp+8]
	lea	eax, DWORD PTR [edx+12]
	mov	ecx, DWORD PTR [edx-440]
	xor	ecx, eax
	call	@__security_check_cookie@4
	mov	ecx, DWORD PTR [edx-4]
	xor	ecx, eax
	call	@__security_check_cookie@4
	mov	eax, OFFSET __ehfuncinfo$?createInstance@NumberingSystem@icu_56@@SAPAV12@ABVLocale@2@AAW4UErrorCode@@@Z
	jmp	___CxxFrameHandler3
text$x	ENDS
?createInstance@NumberingSystem@icu_56@@SAPAV12@ABVLocale@2@AAW4UErrorCode@@@Z ENDP ; icu_56::NumberingSystem::createInstance
PUBLIC	?createInstance@NumberingSystem@icu_56@@SAPAV12@AAW4UErrorCode@@@Z ; icu_56::NumberingSystem::createInstance
EXTRN	__imp_?getDefault@Locale@icu_56@@SAABV12@XZ:PROC
; Function compile flags: /Odtp /RTCsu /ZI
;	COMDAT ?createInstance@NumberingSystem@icu_56@@SAPAV12@AAW4UErrorCode@@@Z
_TEXT	SEGMENT
_status$ = 8						; size = 4
?createInstance@NumberingSystem@icu_56@@SAPAV12@AAW4UErrorCode@@@Z PROC ; icu_56::NumberingSystem::createInstance, COMDAT
; Line 166
	push	ebp
	mov	ebp, esp
	sub	esp, 192				; 000000c0H
	push	ebx
	push	esi
	push	edi
	lea	edi, DWORD PTR [ebp-192]
	mov	ecx, 48					; 00000030H
	mov	eax, -858993460				; ccccccccH
	rep stosd
; Line 167
	mov	eax, DWORD PTR _status$[ebp]
	push	eax
	mov	esi, esp
	call	DWORD PTR __imp_?getDefault@Locale@icu_56@@SAABV12@XZ
	cmp	esi, esp
	call	__RTC_CheckEsp
	push	eax
	call	?createInstance@NumberingSystem@icu_56@@SAPAV12@ABVLocale@2@AAW4UErrorCode@@@Z ; icu_56::NumberingSystem::createInstance
	add	esp, 8
; Line 168
	pop	edi
	pop	esi
	pop	ebx
	add	esp, 192				; 000000c0H
	cmp	ebp, esp
	call	__RTC_CheckEsp
	mov	esp, ebp
	pop	ebp
	ret	0
?createInstance@NumberingSystem@icu_56@@SAPAV12@AAW4UErrorCode@@@Z ENDP ; icu_56::NumberingSystem::createInstance
_TEXT	ENDS
PUBLIC	?ures_getUnicodeStringByKey@icu_56@@YA?AVUnicodeString@1@PBUUResourceBundle@@PBDPAW4UErrorCode@@@Z ; icu_56::ures_getUnicodeStringByKey
PUBLIC	__$ArrayPad$
EXTRN	_ures_getInt_56:PROC
EXTRN	_ures_openDirect_56:PROC
;	COMDAT xdata$x
xdata$x	SEGMENT
__unwindtable$?createInstanceByName@NumberingSystem@icu_56@@SAPAV12@PBDAAW4UErrorCode@@@Z DD 0ffffffffH
	DD	FLAT:__unwindfunclet$?createInstanceByName@NumberingSystem@icu_56@@SAPAV12@PBDAAW4UErrorCode@@@Z$0
__ehfuncinfo$?createInstanceByName@NumberingSystem@icu_56@@SAPAV12@PBDAAW4UErrorCode@@@Z DD 019930522H
	DD	01H
	DD	FLAT:__unwindtable$?createInstanceByName@NumberingSystem@icu_56@@SAPAV12@PBDAAW4UErrorCode@@@Z
	DD	2 DUP(00H)
	DD	2 DUP(00H)
	DD	00H
	DD	01H
; Function compile flags: /Odtp /RTCsu /ZI
xdata$x	ENDS
;	COMDAT ?createInstanceByName@NumberingSystem@icu_56@@SAPAV12@PBDAAW4UErrorCode@@@Z
_TEXT	SEGMENT
$T45097 = -384						; size = 4
$T45098 = -372						; size = 4
_ns$ = -168						; size = 4
_isAlgorithmic$ = -153					; size = 1
_nsd$ = -144						; size = 64
_algorithmic$ = -72					; size = 4
_radix$ = -60						; size = 4
_nsCurrent$ = -48					; size = 4
_nsTop$ = -36						; size = 4
_numberingSystemsInfo$ = -24				; size = 4
__$ArrayPad$ = -16					; size = 4
__$EHRec$ = -12						; size = 12
_name$ = 8						; size = 4
_status$ = 12						; size = 4
?createInstanceByName@NumberingSystem@icu_56@@SAPAV12@PBDAAW4UErrorCode@@@Z PROC ; icu_56::NumberingSystem::createInstanceByName, COMDAT
; Line 171
	push	ebp
	mov	ebp, esp
	push	-1
	push	__ehhandler$?createInstanceByName@NumberingSystem@icu_56@@SAPAV12@PBDAAW4UErrorCode@@@Z
	mov	eax, DWORD PTR fs:0
	push	eax
	sub	esp, 376				; 00000178H
	push	ebx
	push	esi
	push	edi
	lea	edi, DWORD PTR [ebp-388]
	mov	ecx, 94					; 0000005eH
	mov	eax, -858993460				; ccccccccH
	rep stosd
	mov	eax, DWORD PTR ___security_cookie
	xor	eax, ebp
	mov	DWORD PTR __$ArrayPad$[ebp], eax
	push	eax
	lea	eax, DWORD PTR __$EHRec$[ebp]
	mov	DWORD PTR fs:0, eax
; Line 172
	mov	DWORD PTR _numberingSystemsInfo$[ebp], 0
; Line 174
	mov	DWORD PTR _radix$[ebp], 10		; 0000000aH
; Line 175
	mov	DWORD PTR _algorithmic$[ebp], 0
; Line 177
	mov	eax, DWORD PTR _status$[ebp]
	push	eax
	push	OFFSET _gNumberingSystems
	push	0
	call	_ures_openDirect_56
	add	esp, 12					; 0000000cH
	mov	DWORD PTR _numberingSystemsInfo$[ebp], eax
; Line 178
	mov	eax, DWORD PTR _status$[ebp]
	push	eax
	push	0
	push	OFFSET _gNumberingSystems
	mov	ecx, DWORD PTR _numberingSystemsInfo$[ebp]
	push	ecx
	call	_ures_getByKey_56
	add	esp, 16					; 00000010H
	mov	DWORD PTR _nsCurrent$[ebp], eax
; Line 179
	mov	eax, DWORD PTR _status$[ebp]
	push	eax
	push	0
	mov	ecx, DWORD PTR _name$[ebp]
	push	ecx
	mov	edx, DWORD PTR _nsCurrent$[ebp]
	push	edx
	call	_ures_getByKey_56
	add	esp, 16					; 00000010H
	mov	DWORD PTR _nsTop$[ebp], eax
; Line 180
	mov	eax, DWORD PTR _status$[ebp]
	push	eax
	push	OFFSET _gDesc
	mov	ecx, DWORD PTR _nsTop$[ebp]
	push	ecx
	lea	edx, DWORD PTR _nsd$[ebp]
	push	edx
	call	?ures_getUnicodeStringByKey@icu_56@@YA?AVUnicodeString@1@PBUUResourceBundle@@PBDPAW4UErrorCode@@@Z ; icu_56::ures_getUnicodeStringByKey
	add	esp, 16					; 00000010H
	mov	DWORD PTR __$EHRec$[ebp+8], 0
; Line 182
	mov	eax, DWORD PTR _status$[ebp]
	push	eax
	mov	ecx, DWORD PTR _nsCurrent$[ebp]
	push	ecx
	push	OFFSET _gRadix
	mov	edx, DWORD PTR _nsTop$[ebp]
	push	edx
	call	_ures_getByKey_56
	add	esp, 16					; 00000010H
; Line 183
	mov	eax, DWORD PTR _status$[ebp]
	push	eax
	mov	ecx, DWORD PTR _nsCurrent$[ebp]
	push	ecx
	call	_ures_getInt_56
	add	esp, 8
	mov	DWORD PTR _radix$[ebp], eax
; Line 185
	mov	eax, DWORD PTR _status$[ebp]
	push	eax
	mov	ecx, DWORD PTR _nsCurrent$[ebp]
	push	ecx
	push	OFFSET _gAlgorithmic
	mov	edx, DWORD PTR _nsTop$[ebp]
	push	edx
	call	_ures_getByKey_56
	add	esp, 16					; 00000010H
; Line 186
	mov	eax, DWORD PTR _status$[ebp]
	push	eax
	mov	ecx, DWORD PTR _nsCurrent$[ebp]
	push	ecx
	call	_ures_getInt_56
	add	esp, 8
	mov	DWORD PTR _algorithmic$[ebp], eax
; Line 188
	cmp	DWORD PTR _algorithmic$[ebp], 1
	sete	al
	mov	BYTE PTR _isAlgorithmic$[ebp], al
; Line 190
	mov	eax, DWORD PTR _nsCurrent$[ebp]
	push	eax
	call	_ures_close_56
	add	esp, 4
; Line 191
	mov	eax, DWORD PTR _nsTop$[ebp]
	push	eax
	call	_ures_close_56
	add	esp, 4
; Line 192
	mov	eax, DWORD PTR _numberingSystemsInfo$[ebp]
	push	eax
	call	_ures_close_56
	add	esp, 4
; Line 194
	mov	eax, DWORD PTR _status$[ebp]
	mov	ecx, DWORD PTR [eax]
	push	ecx
	call	?U_FAILURE@@YACW4UErrorCode@@@Z		; U_FAILURE
	add	esp, 4
	movsx	edx, al
	test	edx, edx
	je	SHORT $LN1@createInst@3
; Line 195
	mov	eax, DWORD PTR _status$[ebp]
	mov	DWORD PTR [eax], 16			; 00000010H
; Line 196
	mov	DWORD PTR $T45097[ebp], 0
	mov	DWORD PTR __$EHRec$[ebp+8], -1
	mov	esi, esp
	lea	ecx, DWORD PTR _nsd$[ebp]
	call	DWORD PTR __imp_??1UnicodeString@icu_56@@UAE@XZ
	cmp	esi, esp
	call	__RTC_CheckEsp
	mov	eax, DWORD PTR $T45097[ebp]
	jmp	SHORT $LN2@createInst@3
$LN1@createInst@3:
; Line 199
	mov	eax, DWORD PTR _status$[ebp]
	push	eax
	lea	ecx, DWORD PTR _nsd$[ebp]
	push	ecx
	movzx	edx, BYTE PTR _isAlgorithmic$[ebp]
	push	edx
	mov	eax, DWORD PTR _radix$[ebp]
	push	eax
	call	?createInstance@NumberingSystem@icu_56@@SAPAV12@HCABVUnicodeString@2@AAW4UErrorCode@@@Z ; icu_56::NumberingSystem::createInstance
	add	esp, 16					; 00000010H
	mov	DWORD PTR _ns$[ebp], eax
; Line 200
	mov	eax, DWORD PTR _name$[ebp]
	push	eax
	mov	ecx, DWORD PTR _ns$[ebp]
	call	?setName@NumberingSystem@icu_56@@AAEXPBD@Z ; icu_56::NumberingSystem::setName
; Line 201
	mov	eax, DWORD PTR _ns$[ebp]
	mov	DWORD PTR $T45098[ebp], eax
	mov	DWORD PTR __$EHRec$[ebp+8], -1
	mov	esi, esp
	lea	ecx, DWORD PTR _nsd$[ebp]
	call	DWORD PTR __imp_??1UnicodeString@icu_56@@UAE@XZ
	cmp	esi, esp
	call	__RTC_CheckEsp
	mov	eax, DWORD PTR $T45098[ebp]
$LN2@createInst@3:
; Line 202
	push	edx
	mov	ecx, ebp
	push	eax
	lea	edx, DWORD PTR $LN8@createInst@3
	call	@_RTC_CheckStackVars@8
	pop	eax
	pop	edx
	mov	ecx, DWORD PTR __$EHRec$[ebp]
	mov	DWORD PTR fs:0, ecx
	pop	ecx
	pop	edi
	pop	esi
	pop	ebx
	mov	ecx, DWORD PTR __$ArrayPad$[ebp]
	xor	ecx, ebp
	call	@__security_check_cookie@4
	add	esp, 388				; 00000184H
	cmp	ebp, esp
	call	__RTC_CheckEsp
	mov	esp, ebp
	pop	ebp
	ret	0
	npad	2
$LN8@createInst@3:
	DD	1
	DD	$LN7@createInst@3
$LN7@createInst@3:
	DD	-144					; ffffff70H
	DD	64					; 00000040H
	DD	$LN5@createInst@3
$LN5@createInst@3:
	DB	110					; 0000006eH
	DB	115					; 00000073H
	DB	100					; 00000064H
	DB	0
_TEXT	ENDS
;	COMDAT text$x
text$x	SEGMENT
__unwindfunclet$?createInstanceByName@NumberingSystem@icu_56@@SAPAV12@PBDAAW4UErrorCode@@@Z$0:
	mov	esi, esp
	lea	ecx, DWORD PTR _nsd$[ebp]
	call	DWORD PTR __imp_??1UnicodeString@icu_56@@UAE@XZ
	cmp	esi, esp
	jmp	__RTC_CheckEsp
__ehhandler$?createInstanceByName@NumberingSystem@icu_56@@SAPAV12@PBDAAW4UErrorCode@@@Z:
	mov	edx, DWORD PTR [esp+8]
	lea	eax, DWORD PTR [edx+12]
	mov	ecx, DWORD PTR [edx-392]
	xor	ecx, eax
	call	@__security_check_cookie@4
	mov	ecx, DWORD PTR [edx-4]
	xor	ecx, eax
	call	@__security_check_cookie@4
	mov	eax, OFFSET __ehfuncinfo$?createInstanceByName@NumberingSystem@icu_56@@SAPAV12@PBDAAW4UErrorCode@@@Z
	jmp	___CxxFrameHandler3
text$x	ENDS
?createInstanceByName@NumberingSystem@icu_56@@SAPAV12@PBDAAW4UErrorCode@@@Z ENDP ; icu_56::NumberingSystem::createInstanceByName
EXTRN	_ures_getStringByKey_56:PROC
; Function compile flags: /Odtp /RTCsu /ZI
;	COMDAT ?ures_getUnicodeStringByKey@icu_56@@YA?AVUnicodeString@1@PBUUResourceBundle@@PBDPAW4UErrorCode@@@Z
_TEXT	SEGMENT
$T45112 = -224						; size = 4
_r$ = -20						; size = 4
_len$ = -8						; size = 4
___$ReturnUdt$ = 8					; size = 4
_resB$ = 12						; size = 4
_key$ = 16						; size = 4
_status$ = 20						; size = 4
?ures_getUnicodeStringByKey@icu_56@@YA?AVUnicodeString@1@PBUUResourceBundle@@PBDPAW4UErrorCode@@@Z PROC ; icu_56::ures_getUnicodeStringByKey, COMDAT
; File d:\mozilla\intl\icu\include\unicode\ures.h
; Line 864
	push	ebp
	mov	ebp, esp
	sub	esp, 228				; 000000e4H
	push	ebx
	push	esi
	push	edi
	lea	edi, DWORD PTR [ebp-228]
	mov	ecx, 57					; 00000039H
	mov	eax, -858993460				; ccccccccH
	rep stosd
	mov	DWORD PTR $T45112[ebp], 0
; Line 865
	mov	DWORD PTR _len$[ebp], 0
; Line 866
	mov	eax, DWORD PTR _status$[ebp]
	push	eax
	lea	ecx, DWORD PTR _len$[ebp]
	push	ecx
	mov	edx, DWORD PTR _key$[ebp]
	push	edx
	mov	eax, DWORD PTR _resB$[ebp]
	push	eax
	call	_ures_getStringByKey_56
	add	esp, 16					; 00000010H
	mov	DWORD PTR _r$[ebp], eax
; Line 867
	mov	esi, esp
	mov	eax, DWORD PTR _len$[ebp]
	push	eax
	mov	ecx, DWORD PTR _r$[ebp]
	push	ecx
	push	1
	mov	ecx, DWORD PTR ___$ReturnUdt$[ebp]
	call	DWORD PTR __imp_??0UnicodeString@icu_56@@QAE@CPB_WH@Z
	cmp	esi, esp
	call	__RTC_CheckEsp
	mov	edx, DWORD PTR $T45112[ebp]
	or	edx, 1
	mov	DWORD PTR $T45112[ebp], edx
	mov	eax, DWORD PTR ___$ReturnUdt$[ebp]
; Line 868
	push	edx
	mov	ecx, ebp
	push	eax
	lea	edx, DWORD PTR $LN7@ures_getUn
	call	@_RTC_CheckStackVars@8
	pop	eax
	pop	edx
	pop	edi
	pop	esi
	pop	ebx
	add	esp, 228				; 000000e4H
	cmp	ebp, esp
	call	__RTC_CheckEsp
	mov	esp, ebp
	pop	ebp
	ret	0
	npad	3
$LN7@ures_getUn:
	DD	1
	DD	$LN6@ures_getUn
$LN6@ures_getUn:
	DD	-8					; fffffff8H
	DD	4
	DD	$LN5@ures_getUn
$LN5@ures_getUn:
	DB	108					; 0000006cH
	DB	101					; 00000065H
	DB	110					; 0000006eH
	DB	0
?ures_getUnicodeStringByKey@icu_56@@YA?AVUnicodeString@1@PBUUResourceBundle@@PBDPAW4UErrorCode@@@Z ENDP ; icu_56::ures_getUnicodeStringByKey
_TEXT	ENDS
;	COMDAT xdata$x
; File d:\mozilla\intl\icu\source\i18n\numsys.cpp
xdata$x	SEGMENT
__unwindtable$??1NumberingSystem@icu_56@@UAE@XZ DD 0ffffffffH
	DD	FLAT:__unwindfunclet$??1NumberingSystem@icu_56@@UAE@XZ$0
__ehfuncinfo$??1NumberingSystem@icu_56@@UAE@XZ DD 019930522H
	DD	01H
	DD	FLAT:__unwindtable$??1NumberingSystem@icu_56@@UAE@XZ
	DD	2 DUP(00H)
	DD	2 DUP(00H)
	DD	00H
	DD	01H
; Function compile flags: /Odtp /RTCsu /ZI
xdata$x	ENDS
;	COMDAT ??1NumberingSystem@icu_56@@UAE@XZ
_TEXT	SEGMENT
_this$ = -20						; size = 4
__$EHRec$ = -12						; size = 12
??1NumberingSystem@icu_56@@UAE@XZ PROC			; icu_56::NumberingSystem::~NumberingSystem, COMDAT
; _this$ = ecx
; Line 208
	push	ebp
	mov	ebp, esp
	push	-1
	push	__ehhandler$??1NumberingSystem@icu_56@@UAE@XZ
	mov	eax, DWORD PTR fs:0
	push	eax
	sub	esp, 204				; 000000ccH
	push	ebx
	push	esi
	push	edi
	push	ecx
	lea	edi, DWORD PTR [ebp-216]
	mov	ecx, 51					; 00000033H
	mov	eax, -858993460				; ccccccccH
	rep stosd
	pop	ecx
	mov	eax, DWORD PTR ___security_cookie
	xor	eax, ebp
	push	eax
	lea	eax, DWORD PTR __$EHRec$[ebp]
	mov	DWORD PTR fs:0, eax
	mov	DWORD PTR _this$[ebp], ecx
	mov	eax, DWORD PTR _this$[ebp]
	mov	DWORD PTR [eax], OFFSET ??_7NumberingSystem@icu_56@@6B@
	mov	DWORD PTR __$EHRec$[ebp+8], 0
; Line 209
	mov	ecx, DWORD PTR _this$[ebp]
	add	ecx, 4
	mov	esi, esp
	call	DWORD PTR __imp_??1UnicodeString@icu_56@@UAE@XZ
	cmp	esi, esp
	call	__RTC_CheckEsp
	mov	DWORD PTR __$EHRec$[ebp+8], -1
	mov	esi, esp
	mov	ecx, DWORD PTR _this$[ebp]
	call	DWORD PTR __imp_??1UObject@icu_56@@UAE@XZ
	cmp	esi, esp
	call	__RTC_CheckEsp
	mov	ecx, DWORD PTR __$EHRec$[ebp]
	mov	DWORD PTR fs:0, ecx
	pop	ecx
	pop	edi
	pop	esi
	pop	ebx
	add	esp, 216				; 000000d8H
	cmp	ebp, esp
	call	__RTC_CheckEsp
	mov	esp, ebp
	pop	ebp
	ret	0
_TEXT	ENDS
;	COMDAT text$x
text$x	SEGMENT
__unwindfunclet$??1NumberingSystem@icu_56@@UAE@XZ$0:
	mov	esi, esp
	mov	ecx, DWORD PTR _this$[ebp]
	call	DWORD PTR __imp_??1UObject@icu_56@@UAE@XZ
	cmp	esi, esp
	jmp	__RTC_CheckEsp
__ehhandler$??1NumberingSystem@icu_56@@UAE@XZ:
	mov	edx, DWORD PTR [esp+8]
	lea	eax, DWORD PTR [edx+12]
	mov	ecx, DWORD PTR [edx-220]
	xor	ecx, eax
	call	@__security_check_cookie@4
	mov	eax, OFFSET __ehfuncinfo$??1NumberingSystem@icu_56@@UAE@XZ
	jmp	___CxxFrameHandler3
text$x	ENDS
??1NumberingSystem@icu_56@@UAE@XZ ENDP			; icu_56::NumberingSystem::~NumberingSystem
PUBLIC	?getRadix@NumberingSystem@icu_56@@QBEHXZ	; icu_56::NumberingSystem::getRadix
; Function compile flags: /Odtp /RTCsu /ZI
;	COMDAT ?getRadix@NumberingSystem@icu_56@@QBEHXZ
_TEXT	SEGMENT
_this$ = -8						; size = 4
?getRadix@NumberingSystem@icu_56@@QBEHXZ PROC		; icu_56::NumberingSystem::getRadix, COMDAT
; _this$ = ecx
; Line 211
	push	ebp
	mov	ebp, esp
	sub	esp, 204				; 000000ccH
	push	ebx
	push	esi
	push	edi
	push	ecx
	lea	edi, DWORD PTR [ebp-204]
	mov	ecx, 51					; 00000033H
	mov	eax, -858993460				; ccccccccH
	rep stosd
	pop	ecx
	mov	DWORD PTR _this$[ebp], ecx
; Line 212
	mov	eax, DWORD PTR _this$[ebp]
	mov	eax, DWORD PTR [eax+68]
; Line 213
	pop	edi
	pop	esi
	pop	ebx
	mov	esp, ebp
	pop	ebp
	ret	0
?getRadix@NumberingSystem@icu_56@@QBEHXZ ENDP		; icu_56::NumberingSystem::getRadix
; Function compile flags: /Odtp /RTCsu /ZI
_TEXT	ENDS
;	COMDAT ?getDescription@NumberingSystem@icu_56@@UBE?AVUnicodeString@2@XZ
_TEXT	SEGMENT
$T45132 = -212						; size = 4
_this$ = -8						; size = 4
___$ReturnUdt$ = 8					; size = 4
?getDescription@NumberingSystem@icu_56@@UBE?AVUnicodeString@2@XZ PROC ; icu_56::NumberingSystem::getDescription, COMDAT
; _this$ = ecx
; Line 215
	push	ebp
	mov	ebp, esp
	sub	esp, 216				; 000000d8H
	push	ebx
	push	esi
	push	edi
	push	ecx
	lea	edi, DWORD PTR [ebp-216]
	mov	ecx, 54					; 00000036H
	mov	eax, -858993460				; ccccccccH
	rep stosd
	pop	ecx
	mov	DWORD PTR _this$[ebp], ecx
	mov	DWORD PTR $T45132[ebp], 0
; Line 216
	mov	eax, DWORD PTR _this$[ebp]
	add	eax, 4
	mov	esi, esp
	push	eax
	mov	ecx, DWORD PTR ___$ReturnUdt$[ebp]
	call	DWORD PTR __imp_??0UnicodeString@icu_56@@QAE@ABV01@@Z
	cmp	esi, esp
	call	__RTC_CheckEsp
	mov	ecx, DWORD PTR $T45132[ebp]
	or	ecx, 1
	mov	DWORD PTR $T45132[ebp], ecx
	mov	eax, DWORD PTR ___$ReturnUdt$[ebp]
; Line 217
	pop	edi
	pop	esi
	pop	ebx
	add	esp, 216				; 000000d8H
	cmp	ebp, esp
	call	__RTC_CheckEsp
	mov	esp, ebp
	pop	ebp
	ret	4
?getDescription@NumberingSystem@icu_56@@UBE?AVUnicodeString@2@XZ ENDP ; icu_56::NumberingSystem::getDescription
_TEXT	ENDS
PUBLIC	?getName@NumberingSystem@icu_56@@QBEPBDXZ	; icu_56::NumberingSystem::getName
; Function compile flags: /Odtp /RTCsu /ZI
;	COMDAT ?getName@NumberingSystem@icu_56@@QBEPBDXZ
_TEXT	SEGMENT
_this$ = -8						; size = 4
?getName@NumberingSystem@icu_56@@QBEPBDXZ PROC		; icu_56::NumberingSystem::getName, COMDAT
; _this$ = ecx
; Line 219
	push	ebp
	mov	ebp, esp
	sub	esp, 204				; 000000ccH
	push	ebx
	push	esi
	push	edi
	push	ecx
	lea	edi, DWORD PTR [ebp-204]
	mov	ecx, 51					; 00000033H
	mov	eax, -858993460				; ccccccccH
	rep stosd
	pop	ecx
	mov	DWORD PTR _this$[ebp], ecx
; Line 220
	mov	eax, DWORD PTR _this$[ebp]
	add	eax, 73					; 00000049H
; Line 221
	pop	edi
	pop	esi
	pop	ebx
	mov	esp, ebp
	pop	ebp
	ret	0
?getName@NumberingSystem@icu_56@@QBEPBDXZ ENDP		; icu_56::NumberingSystem::getName
; Function compile flags: /Odtp /RTCsu /ZI
_TEXT	ENDS
;	COMDAT ?setRadix@NumberingSystem@icu_56@@AAEXH@Z
_TEXT	SEGMENT
_this$ = -8						; size = 4
_r$ = 8							; size = 4
?setRadix@NumberingSystem@icu_56@@AAEXH@Z PROC		; icu_56::NumberingSystem::setRadix, COMDAT
; _this$ = ecx
; Line 223
	push	ebp
	mov	ebp, esp
	sub	esp, 204				; 000000ccH
	push	ebx
	push	esi
	push	edi
	push	ecx
	lea	edi, DWORD PTR [ebp-204]
	mov	ecx, 51					; 00000033H
	mov	eax, -858993460				; ccccccccH
	rep stosd
	pop	ecx
	mov	DWORD PTR _this$[ebp], ecx
; Line 224
	mov	eax, DWORD PTR _this$[ebp]
	mov	ecx, DWORD PTR _r$[ebp]
	mov	DWORD PTR [eax+68], ecx
; Line 225
	pop	edi
	pop	esi
	pop	ebx
	mov	esp, ebp
	pop	ebp
	ret	4
?setRadix@NumberingSystem@icu_56@@AAEXH@Z ENDP		; icu_56::NumberingSystem::setRadix
; Function compile flags: /Odtp /RTCsu /ZI
_TEXT	ENDS
;	COMDAT ?setAlgorithmic@NumberingSystem@icu_56@@AAEXC@Z
_TEXT	SEGMENT
_this$ = -8						; size = 4
_c$ = 8							; size = 1
?setAlgorithmic@NumberingSystem@icu_56@@AAEXC@Z PROC	; icu_56::NumberingSystem::setAlgorithmic, COMDAT
; _this$ = ecx
; Line 227
	push	ebp
	mov	ebp, esp
	sub	esp, 204				; 000000ccH
	push	ebx
	push	esi
	push	edi
	push	ecx
	lea	edi, DWORD PTR [ebp-204]
	mov	ecx, 51					; 00000033H
	mov	eax, -858993460				; ccccccccH
	rep stosd
	pop	ecx
	mov	DWORD PTR _this$[ebp], ecx
; Line 228
	mov	eax, DWORD PTR _this$[ebp]
	mov	cl, BYTE PTR _c$[ebp]
	mov	BYTE PTR [eax+72], cl
; Line 229
	pop	edi
	pop	esi
	pop	ebx
	mov	esp, ebp
	pop	ebp
	ret	4
?setAlgorithmic@NumberingSystem@icu_56@@AAEXC@Z ENDP	; icu_56::NumberingSystem::setAlgorithmic
_TEXT	ENDS
;	COMDAT xdata$x
xdata$x	SEGMENT
__unwindtable$?setDesc@NumberingSystem@icu_56@@AAEXVUnicodeString@2@@Z DD 0ffffffffH
	DD	FLAT:__unwindfunclet$?setDesc@NumberingSystem@icu_56@@AAEXVUnicodeString@2@@Z$0
__ehfuncinfo$?setDesc@NumberingSystem@icu_56@@AAEXVUnicodeString@2@@Z DD 019930522H
	DD	01H
	DD	FLAT:__unwindtable$?setDesc@NumberingSystem@icu_56@@AAEXVUnicodeString@2@@Z
	DD	2 DUP(00H)
	DD	2 DUP(00H)
	DD	00H
	DD	01H
; Function compile flags: /Odtp /RTCsu /ZI
xdata$x	ENDS
;	COMDAT ?setDesc@NumberingSystem@icu_56@@AAEXVUnicodeString@2@@Z
_TEXT	SEGMENT
_this$ = -20						; size = 4
__$EHRec$ = -12						; size = 12
_d$ = 8							; size = 64
?setDesc@NumberingSystem@icu_56@@AAEXVUnicodeString@2@@Z PROC ; icu_56::NumberingSystem::setDesc, COMDAT
; _this$ = ecx
; Line 231
	push	ebp
	mov	ebp, esp
	push	-1
	push	__ehhandler$?setDesc@NumberingSystem@icu_56@@AAEXVUnicodeString@2@@Z
	mov	eax, DWORD PTR fs:0
	push	eax
	sub	esp, 216				; 000000d8H
	push	ebx
	push	esi
	push	edi
	push	ecx
	lea	edi, DWORD PTR [ebp-228]
	mov	ecx, 54					; 00000036H
	mov	eax, -858993460				; ccccccccH
	rep stosd
	pop	ecx
	mov	eax, DWORD PTR ___security_cookie
	xor	eax, ebp
	push	eax
	lea	eax, DWORD PTR __$EHRec$[ebp]
	mov	DWORD PTR fs:0, eax
	mov	DWORD PTR _this$[ebp], ecx
	mov	DWORD PTR __$EHRec$[ebp+8], 0
; Line 232
	mov	esi, esp
	lea	eax, DWORD PTR _d$[ebp]
	push	eax
	mov	ecx, DWORD PTR _this$[ebp]
	add	ecx, 4
	call	DWORD PTR __imp_?setTo@UnicodeString@icu_56@@QAEAAV12@ABV12@@Z
	cmp	esi, esp
	call	__RTC_CheckEsp
; Line 233
	mov	DWORD PTR __$EHRec$[ebp+8], -1
	mov	esi, esp
	lea	ecx, DWORD PTR _d$[ebp]
	call	DWORD PTR __imp_??1UnicodeString@icu_56@@UAE@XZ
	cmp	esi, esp
	call	__RTC_CheckEsp
	push	edx
	mov	ecx, ebp
	push	eax
	lea	edx, DWORD PTR $LN7@setDesc
	call	@_RTC_CheckStackVars@8
	pop	eax
	pop	edx
	mov	ecx, DWORD PTR __$EHRec$[ebp]
	mov	DWORD PTR fs:0, ecx
	pop	ecx
	pop	edi
	pop	esi
	pop	ebx
	add	esp, 228				; 000000e4H
	cmp	ebp, esp
	call	__RTC_CheckEsp
	mov	esp, ebp
	pop	ebp
	ret	64					; 00000040H
	npad	3
$LN7@setDesc:
	DD	1
	DD	$LN6@setDesc
$LN6@setDesc:
	DD	-32					; ffffffe0H
	DD	4
	DD	$LN4@setDesc
$LN4@setDesc:
	DB	95					; 0000005fH
	DB	36					; 00000024H
	DB	65					; 00000041H
	DB	114					; 00000072H
	DB	114					; 00000072H
	DB	97					; 00000061H
	DB	121					; 00000079H
	DB	80					; 00000050H
	DB	97					; 00000061H
	DB	100					; 00000064H
	DB	0
_TEXT	ENDS
;	COMDAT text$x
text$x	SEGMENT
__unwindfunclet$?setDesc@NumberingSystem@icu_56@@AAEXVUnicodeString@2@@Z$0:
	mov	esi, esp
	lea	ecx, DWORD PTR _d$[ebp]
	call	DWORD PTR __imp_??1UnicodeString@icu_56@@UAE@XZ
	cmp	esi, esp
	jmp	__RTC_CheckEsp
__ehhandler$?setDesc@NumberingSystem@icu_56@@AAEXVUnicodeString@2@@Z:
	mov	edx, DWORD PTR [esp+8]
	lea	eax, DWORD PTR [edx+12]
	mov	ecx, DWORD PTR [edx-232]
	xor	ecx, eax
	call	@__security_check_cookie@4
	mov	eax, OFFSET __ehfuncinfo$?setDesc@NumberingSystem@icu_56@@AAEXVUnicodeString@2@@Z
	jmp	___CxxFrameHandler3
text$x	ENDS
?setDesc@NumberingSystem@icu_56@@AAEXVUnicodeString@2@@Z ENDP ; icu_56::NumberingSystem::setDesc
EXTRN	__imp__strncpy:PROC
EXTRN	_uprv_checkValidMemory:PROC
; Function compile flags: /Odtp /RTCsu /ZI
;	COMDAT ?setName@NumberingSystem@icu_56@@AAEXPBD@Z
_TEXT	SEGMENT
_this$ = -8						; size = 4
_n$ = 8							; size = 4
?setName@NumberingSystem@icu_56@@AAEXPBD@Z PROC		; icu_56::NumberingSystem::setName, COMDAT
; _this$ = ecx
; Line 234
	push	ebp
	mov	ebp, esp
	sub	esp, 204				; 000000ccH
	push	ebx
	push	esi
	push	edi
	push	ecx
	lea	edi, DWORD PTR [ebp-204]
	mov	ecx, 51					; 00000033H
	mov	eax, -858993460				; ccccccccH
	rep stosd
	pop	ecx
	mov	DWORD PTR _this$[ebp], ecx
; Line 235
	cmp	DWORD PTR _n$[ebp], 0
	jne	SHORT $LN2@setName
; Line 236
	mov	eax, DWORD PTR _this$[ebp]
	mov	BYTE PTR [eax+73], 0
; Line 237
	jmp	SHORT $LN3@setName
$LN2@setName:
; Line 238
	push	1
	mov	eax, DWORD PTR _n$[ebp]
	push	eax
	call	_uprv_checkValidMemory
	add	esp, 8
	mov	esi, esp
	push	8
	mov	ecx, DWORD PTR _n$[ebp]
	push	ecx
	mov	edx, DWORD PTR _this$[ebp]
	add	edx, 73					; 00000049H
	push	edx
	call	DWORD PTR __imp__strncpy
	add	esp, 12					; 0000000cH
	cmp	esi, esp
	call	__RTC_CheckEsp
; Line 239
	mov	eax, DWORD PTR _this$[ebp]
	mov	BYTE PTR [eax+81], 0
$LN3@setName:
; Line 241
	pop	edi
	pop	esi
	pop	ebx
	add	esp, 204				; 000000ccH
	cmp	ebp, esp
	call	__RTC_CheckEsp
	mov	esp, ebp
	pop	ebp
	ret	4
?setName@NumberingSystem@icu_56@@AAEXPBD@Z ENDP		; icu_56::NumberingSystem::setName
_TEXT	ENDS
PUBLIC	?isAlgorithmic@NumberingSystem@icu_56@@QBECXZ	; icu_56::NumberingSystem::isAlgorithmic
; Function compile flags: /Odtp /RTCsu /ZI
;	COMDAT ?isAlgorithmic@NumberingSystem@icu_56@@QBECXZ
_TEXT	SEGMENT
_this$ = -8						; size = 4
?isAlgorithmic@NumberingSystem@icu_56@@QBECXZ PROC	; icu_56::NumberingSystem::isAlgorithmic, COMDAT
; _this$ = ecx
; Line 242
	push	ebp
	mov	ebp, esp
	sub	esp, 204				; 000000ccH
	push	ebx
	push	esi
	push	edi
	push	ecx
	lea	edi, DWORD PTR [ebp-204]
	mov	ecx, 51					; 00000033H
	mov	eax, -858993460				; ccccccccH
	rep stosd
	pop	ecx
	mov	DWORD PTR _this$[ebp], ecx
; Line 243
	mov	eax, DWORD PTR _this$[ebp]
	mov	al, BYTE PTR [eax+72]
; Line 244
	pop	edi
	pop	esi
	pop	ebx
	mov	esp, ebp
	pop	ebp
	ret	0
?isAlgorithmic@NumberingSystem@icu_56@@QBECXZ ENDP	; icu_56::NumberingSystem::isAlgorithmic
_TEXT	ENDS
PUBLIC	?orphan@?$LocalPointerBase@VUVector@icu_56@@@icu_56@@QAEPAVUVector@2@XZ ; icu_56::LocalPointerBase<icu_56::UVector>::orphan
PUBLIC	??0NumsysNameEnumeration@icu_56@@QAE@PAVUVector@1@AAW4UErrorCode@@@Z ; icu_56::NumsysNameEnumeration::NumsysNameEnumeration
PUBLIC	?getAlias@?$LocalPointerBase@VUVector@icu_56@@@icu_56@@QBEPAVUVector@2@XZ ; icu_56::LocalPointerBase<icu_56::UVector>::getAlias
PUBLIC	??C?$LocalPointerBase@VUVector@icu_56@@@icu_56@@QBEPAVUVector@1@XZ ; icu_56::LocalPointerBase<icu_56::UVector>::operator->
PUBLIC	??_SUnicodeString@icu_56@@6B@			; icu_56::UnicodeString::`local vftable'
PUBLIC	??_C@_0BB@BOCNJIEB@numberingSystems?$AA@	; `string'
PUBLIC	??1?$LocalPointer@VUVector@icu_56@@@icu_56@@QAE@XZ ; icu_56::LocalPointer<icu_56::UVector>::~LocalPointer<icu_56::UVector>
PUBLIC	??0?$LocalPointer@VUVector@icu_56@@@icu_56@@QAE@PAVUVector@1@AAW4UErrorCode@@@Z ; icu_56::LocalPointer<icu_56::UVector>::LocalPointer<icu_56::UVector>
PUBLIC	??_SUVector@icu_56@@6B@				; icu_56::UVector::`local vftable'
PUBLIC	?getAvailableNames@NumberingSystem@icu_56@@SAPAVStringEnumeration@2@AAW4UErrorCode@@@Z ; icu_56::NumberingSystem::getAvailableNames
PUBLIC	??_R4UVector@icu_56@@6B@			; icu_56::UVector::`RTTI Complete Object Locator'
PUBLIC	??_R0?AVUVector@icu_56@@@8			; icu_56::UVector `RTTI Type Descriptor'
PUBLIC	??_R3UVector@icu_56@@8				; icu_56::UVector::`RTTI Class Hierarchy Descriptor'
PUBLIC	??_R2UVector@icu_56@@8				; icu_56::UVector::`RTTI Base Class Array'
PUBLIC	??_R1A@?0A@EA@UVector@icu_56@@8			; icu_56::UVector::`RTTI Base Class Descriptor at (0,-1,0,64)'
PUBLIC	??_R4UnicodeString@icu_56@@6B@			; icu_56::UnicodeString::`RTTI Complete Object Locator'
PUBLIC	??_R0?AVUnicodeString@icu_56@@@8		; icu_56::UnicodeString `RTTI Type Descriptor'
PUBLIC	??_R3UnicodeString@icu_56@@8			; icu_56::UnicodeString::`RTTI Class Hierarchy Descriptor'
PUBLIC	??_R2UnicodeString@icu_56@@8			; icu_56::UnicodeString::`RTTI Base Class Array'
PUBLIC	??_R1A@?0A@EA@UnicodeString@icu_56@@8		; icu_56::UnicodeString::`RTTI Base Class Descriptor at (0,-1,0,64)'
PUBLIC	??_R1A@?0A@EA@Replaceable@icu_56@@8		; icu_56::Replaceable::`RTTI Base Class Descriptor at (0,-1,0,64)'
PUBLIC	??_R0?AVReplaceable@icu_56@@@8			; icu_56::Replaceable `RTTI Type Descriptor'
PUBLIC	??_R3Replaceable@icu_56@@8			; icu_56::Replaceable::`RTTI Class Hierarchy Descriptor'
PUBLIC	??_R2Replaceable@icu_56@@8			; icu_56::Replaceable::`RTTI Base Class Array'
EXTRN	__imp_?addElement@UVector@icu_56@@QAEXPAXAAW4UErrorCode@@@Z:PROC
EXTRN	__imp_??0UnicodeString@icu_56@@QAE@PBDHW4EInvariant@01@@Z:PROC
EXTRN	_ures_getKey_56:PROC
EXTRN	_ures_getNextResource_56:PROC
EXTRN	_ures_hasNext_56:PROC
EXTRN	__imp_??0UVector@icu_56@@QAE@P6AXPAX@ZP6ACTUElement@@2@ZAAW4UErrorCode@@@Z:PROC
EXTRN	_uprv_deleteUObject_56:PROC
EXTRN	??_EUVector@icu_56@@UAEPAXI@Z:PROC		; icu_56::UVector::`vector deleting destructor'
EXTRN	?getDynamicClassID@UVector@icu_56@@UBEPAXXZ:PROC ; icu_56::UVector::getDynamicClassID
EXTRN	??_EUnicodeString@icu_56@@UAEPAXI@Z:PROC	; icu_56::UnicodeString::`vector deleting destructor'
EXTRN	?getDynamicClassID@UnicodeString@icu_56@@UBEPAXXZ:PROC ; icu_56::UnicodeString::getDynamicClassID
EXTRN	?extractBetween@UnicodeString@icu_56@@UBEXHHAAV12@@Z:PROC ; icu_56::UnicodeString::extractBetween
EXTRN	?handleReplaceBetween@UnicodeString@icu_56@@UAEXHHABV12@@Z:PROC ; icu_56::UnicodeString::handleReplaceBetween
EXTRN	?copy@UnicodeString@icu_56@@UAEXHHH@Z:PROC	; icu_56::UnicodeString::copy
EXTRN	?hasMetaData@UnicodeString@icu_56@@UBECXZ:PROC	; icu_56::UnicodeString::hasMetaData
EXTRN	?clone@UnicodeString@icu_56@@UBEPAVReplaceable@2@XZ:PROC ; icu_56::UnicodeString::clone
EXTRN	?getLength@UnicodeString@icu_56@@MBEHXZ:PROC	; icu_56::UnicodeString::getLength
EXTRN	?getCharAt@UnicodeString@icu_56@@MBE_WH@Z:PROC	; icu_56::UnicodeString::getCharAt
EXTRN	?getChar32At@UnicodeString@icu_56@@MBEHH@Z:PROC	; icu_56::UnicodeString::getChar32At
;	COMDAT ??_R2Replaceable@icu_56@@8
rdata$r	SEGMENT
??_R2Replaceable@icu_56@@8 DD FLAT:??_R1A@?0A@EA@Replaceable@icu_56@@8 ; icu_56::Replaceable::`RTTI Base Class Array'
	DD	FLAT:??_R1A@?0A@EA@UObject@icu_56@@8
	DD	FLAT:??_R13?0A@EA@UMemory@icu_56@@8
rdata$r	ENDS
;	COMDAT ??_R3Replaceable@icu_56@@8
rdata$r	SEGMENT
??_R3Replaceable@icu_56@@8 DD 00H			; icu_56::Replaceable::`RTTI Class Hierarchy Descriptor'
	DD	00H
	DD	03H
	DD	FLAT:??_R2Replaceable@icu_56@@8
rdata$r	ENDS
;	COMDAT ??_R0?AVReplaceable@icu_56@@@8
_DATA	SEGMENT
??_R0?AVReplaceable@icu_56@@@8 DD FLAT:??_7type_info@@6B@ ; icu_56::Replaceable `RTTI Type Descriptor'
	DD	00H
	DB	'.?AVReplaceable@icu_56@@', 00H
_DATA	ENDS
;	COMDAT ??_R1A@?0A@EA@Replaceable@icu_56@@8
rdata$r	SEGMENT
??_R1A@?0A@EA@Replaceable@icu_56@@8 DD FLAT:??_R0?AVReplaceable@icu_56@@@8 ; icu_56::Replaceable::`RTTI Base Class Descriptor at (0,-1,0,64)'
	DD	02H
	DD	00H
	DD	0ffffffffH
	DD	00H
	DD	040H
	DD	FLAT:??_R3Replaceable@icu_56@@8
rdata$r	ENDS
;	COMDAT ??_R1A@?0A@EA@UnicodeString@icu_56@@8
rdata$r	SEGMENT
??_R1A@?0A@EA@UnicodeString@icu_56@@8 DD FLAT:??_R0?AVUnicodeString@icu_56@@@8 ; icu_56::UnicodeString::`RTTI Base Class Descriptor at (0,-1,0,64)'
	DD	03H
	DD	00H
	DD	0ffffffffH
	DD	00H
	DD	040H
	DD	FLAT:??_R3UnicodeString@icu_56@@8
rdata$r	ENDS
;	COMDAT ??_R2UnicodeString@icu_56@@8
rdata$r	SEGMENT
??_R2UnicodeString@icu_56@@8 DD FLAT:??_R1A@?0A@EA@UnicodeString@icu_56@@8 ; icu_56::UnicodeString::`RTTI Base Class Array'
	DD	FLAT:??_R1A@?0A@EA@Replaceable@icu_56@@8
	DD	FLAT:??_R1A@?0A@EA@UObject@icu_56@@8
	DD	FLAT:??_R13?0A@EA@UMemory@icu_56@@8
rdata$r	ENDS
;	COMDAT ??_R3UnicodeString@icu_56@@8
rdata$r	SEGMENT
??_R3UnicodeString@icu_56@@8 DD 00H			; icu_56::UnicodeString::`RTTI Class Hierarchy Descriptor'
	DD	00H
	DD	04H
	DD	FLAT:??_R2UnicodeString@icu_56@@8
rdata$r	ENDS
;	COMDAT ??_R0?AVUnicodeString@icu_56@@@8
_DATA	SEGMENT
??_R0?AVUnicodeString@icu_56@@@8 DD FLAT:??_7type_info@@6B@ ; icu_56::UnicodeString `RTTI Type Descriptor'
	DD	00H
	DB	'.?AVUnicodeString@icu_56@@', 00H
_DATA	ENDS
;	COMDAT ??_R4UnicodeString@icu_56@@6B@
rdata$r	SEGMENT
??_R4UnicodeString@icu_56@@6B@ DD 00H			; icu_56::UnicodeString::`RTTI Complete Object Locator'
	DD	00H
	DD	00H
	DD	FLAT:??_R0?AVUnicodeString@icu_56@@@8
	DD	FLAT:??_R3UnicodeString@icu_56@@8
rdata$r	ENDS
;	COMDAT ??_R1A@?0A@EA@UVector@icu_56@@8
rdata$r	SEGMENT
??_R1A@?0A@EA@UVector@icu_56@@8 DD FLAT:??_R0?AVUVector@icu_56@@@8 ; icu_56::UVector::`RTTI Base Class Descriptor at (0,-1,0,64)'
	DD	02H
	DD	00H
	DD	0ffffffffH
	DD	00H
	DD	040H
	DD	FLAT:??_R3UVector@icu_56@@8
rdata$r	ENDS
;	COMDAT ??_R2UVector@icu_56@@8
rdata$r	SEGMENT
??_R2UVector@icu_56@@8 DD FLAT:??_R1A@?0A@EA@UVector@icu_56@@8 ; icu_56::UVector::`RTTI Base Class Array'
	DD	FLAT:??_R1A@?0A@EA@UObject@icu_56@@8
	DD	FLAT:??_R13?0A@EA@UMemory@icu_56@@8
rdata$r	ENDS
;	COMDAT ??_R3UVector@icu_56@@8
rdata$r	SEGMENT
??_R3UVector@icu_56@@8 DD 00H				; icu_56::UVector::`RTTI Class Hierarchy Descriptor'
	DD	00H
	DD	03H
	DD	FLAT:??_R2UVector@icu_56@@8
rdata$r	ENDS
;	COMDAT ??_R0?AVUVector@icu_56@@@8
_DATA	SEGMENT
??_R0?AVUVector@icu_56@@@8 DD FLAT:??_7type_info@@6B@	; icu_56::UVector `RTTI Type Descriptor'
	DD	00H
	DB	'.?AVUVector@icu_56@@', 00H
_DATA	ENDS
;	COMDAT ??_R4UVector@icu_56@@6B@
rdata$r	SEGMENT
??_R4UVector@icu_56@@6B@ DD 00H				; icu_56::UVector::`RTTI Complete Object Locator'
	DD	00H
	DD	00H
	DD	FLAT:??_R0?AVUVector@icu_56@@@8
	DD	FLAT:??_R3UVector@icu_56@@8
rdata$r	ENDS
;	COMDAT ??_SUnicodeString@icu_56@@6B@
CONST	SEGMENT
??_SUnicodeString@icu_56@@6B@ DD FLAT:??_R4UnicodeString@icu_56@@6B@ ; icu_56::UnicodeString::`local vftable'
	DD	FLAT:??_EUnicodeString@icu_56@@UAEPAXI@Z
	DD	FLAT:?getDynamicClassID@UnicodeString@icu_56@@UBEPAXXZ
	DD	FLAT:?extractBetween@UnicodeString@icu_56@@UBEXHHAAV12@@Z
	DD	FLAT:?handleReplaceBetween@UnicodeString@icu_56@@UAEXHHABV12@@Z
	DD	FLAT:?copy@UnicodeString@icu_56@@UAEXHHH@Z
	DD	FLAT:?hasMetaData@UnicodeString@icu_56@@UBECXZ
	DD	FLAT:?clone@UnicodeString@icu_56@@UBEPAVReplaceable@2@XZ
	DD	FLAT:?getLength@UnicodeString@icu_56@@MBEHXZ
	DD	FLAT:?getCharAt@UnicodeString@icu_56@@MBE_WH@Z
	DD	FLAT:?getChar32At@UnicodeString@icu_56@@MBEHH@Z
CONST	ENDS
;	COMDAT ??_C@_0BB@BOCNJIEB@numberingSystems?$AA@
CONST	SEGMENT
??_C@_0BB@BOCNJIEB@numberingSystems?$AA@ DB 'numberingSystems', 00H ; `string'
CONST	ENDS
;	COMDAT ??_SUVector@icu_56@@6B@
CONST	SEGMENT
??_SUVector@icu_56@@6B@ DD FLAT:??_R4UVector@icu_56@@6B@ ; icu_56::UVector::`local vftable'
	DD	FLAT:??_EUVector@icu_56@@UAEPAXI@Z
	DD	FLAT:?getDynamicClassID@UVector@icu_56@@UBEPAXXZ
CONST	ENDS
;	COMDAT xdata$x
xdata$x	SEGMENT
__unwindtable$?getAvailableNames@NumberingSystem@icu_56@@SAPAVStringEnumeration@2@AAW4UErrorCode@@@Z DD 0ffffffffH
	DD	FLAT:__unwindfunclet$?getAvailableNames@NumberingSystem@icu_56@@SAPAVStringEnumeration@2@AAW4UErrorCode@@@Z$0
	DD	0ffffffffH
	DD	FLAT:__unwindfunclet$?getAvailableNames@NumberingSystem@icu_56@@SAPAVStringEnumeration@2@AAW4UErrorCode@@@Z$1
	DD	01H
	DD	FLAT:__unwindfunclet$?getAvailableNames@NumberingSystem@icu_56@@SAPAVStringEnumeration@2@AAW4UErrorCode@@@Z$2
	DD	01H
	DD	FLAT:__unwindfunclet$?getAvailableNames@NumberingSystem@icu_56@@SAPAVStringEnumeration@2@AAW4UErrorCode@@@Z$3
__ehfuncinfo$?getAvailableNames@NumberingSystem@icu_56@@SAPAVStringEnumeration@2@AAW4UErrorCode@@@Z DD 019930522H
	DD	04H
	DD	FLAT:__unwindtable$?getAvailableNames@NumberingSystem@icu_56@@SAPAVStringEnumeration@2@AAW4UErrorCode@@@Z
	DD	2 DUP(00H)
	DD	2 DUP(00H)
	DD	00H
	DD	01H
; Function compile flags: /Odtp /RTCsu /ZI
xdata$x	ENDS
;	COMDAT ?getAvailableNames@NumberingSystem@icu_56@@SAPAVStringEnumeration@2@AAW4UErrorCode@@@Z
_TEXT	SEGMENT
tv185 = -388						; size = 4
tv157 = -388						; size = 4
tv78 = -388						; size = 4
$T45159 = -380						; size = 4
$T45160 = -368						; size = 4
$T45163 = -356						; size = 4
$T45164 = -344						; size = 4
$T45165 = -332						; size = 4
$T45166 = -320						; size = 4
$T45169 = -308						; size = 4
$T45170 = -296						; size = 4
$T45171 = -284						; size = 4
$T45174 = -272						; size = 4
_nsName$38075 = -68					; size = 4
_nsCurrent$38074 = -56					; size = 4
_numberingSystemsInfo$38067 = -44			; size = 4
_rbstatus$38066 = -32					; size = 4
_numsysNames$38063 = -20				; size = 4
__$EHRec$ = -12						; size = 12
_status$ = 8						; size = 4
?getAvailableNames@NumberingSystem@icu_56@@SAPAVStringEnumeration@2@AAW4UErrorCode@@@Z PROC ; icu_56::NumberingSystem::getAvailableNames, COMDAT
; Line 246
	push	ebp
	mov	ebp, esp
	push	-1
	push	__ehhandler$?getAvailableNames@NumberingSystem@icu_56@@SAPAVStringEnumeration@2@AAW4UErrorCode@@@Z
	mov	eax, DWORD PTR fs:0
	push	eax
	sub	esp, 376				; 00000178H
	push	ebx
	push	esi
	push	edi
	lea	edi, DWORD PTR [ebp-388]
	mov	ecx, 94					; 0000005eH
	mov	eax, -858993460				; ccccccccH
	rep stosd
	mov	eax, DWORD PTR ___security_cookie
	xor	eax, ebp
	push	eax
	lea	eax, DWORD PTR __$EHRec$[ebp]
	mov	DWORD PTR fs:0, eax
; Line 250
	mov	eax, DWORD PTR _status$[ebp]
	mov	ecx, DWORD PTR [eax]
	push	ecx
	call	?U_FAILURE@@YACW4UErrorCode@@@Z		; U_FAILURE
	add	esp, 4
	movsx	edx, al
	test	edx, edx
	je	SHORT $LN8@getAvailab
; Line 251
	xor	eax, eax
	jmp	$LN9@getAvailab
$LN8@getAvailab:
; Line 254
	cmp	DWORD PTR ?availableNames@?1??getAvailableNames@NumberingSystem@icu_56@@SAPAVStringEnumeration@3@AAW4UErrorCode@@@Z@4PAV43@A, 0
	jne	$LN7@getAvailab
; Line 256
	mov	esi, esp
	push	24					; 00000018H
	call	DWORD PTR __imp_??2UMemory@icu_56@@SAPAXI@Z
	add	esp, 4
	cmp	esi, esp
	call	__RTC_CheckEsp
	mov	DWORD PTR $T45160[ebp], eax
	mov	DWORD PTR __$EHRec$[ebp+8], 0
	cmp	DWORD PTR $T45160[ebp], 0
	je	SHORT $LN11@getAvailab
	mov	esi, esp
	mov	eax, DWORD PTR _status$[ebp]
	push	eax
	push	0
	push	OFFSET _uprv_deleteUObject_56
	mov	ecx, DWORD PTR $T45160[ebp]
	call	DWORD PTR __imp_??0UVector@icu_56@@QAE@P6AXPAX@ZP6ACTUElement@@2@ZAAW4UErrorCode@@@Z
	cmp	esi, esp
	call	__RTC_CheckEsp
	mov	ecx, DWORD PTR $T45160[ebp]
	mov	DWORD PTR [ecx], OFFSET ??_SUVector@icu_56@@6B@
	mov	edx, DWORD PTR $T45160[ebp]
	mov	DWORD PTR tv78[ebp], edx
	jmp	SHORT $LN12@getAvailab
$LN11@getAvailab:
	mov	DWORD PTR tv78[ebp], 0
$LN12@getAvailab:
	mov	eax, DWORD PTR tv78[ebp]
	mov	DWORD PTR $T45159[ebp], eax
	mov	DWORD PTR __$EHRec$[ebp+8], -1
	mov	ecx, DWORD PTR _status$[ebp]
	push	ecx
	mov	edx, DWORD PTR $T45159[ebp]
	push	edx
	lea	ecx, DWORD PTR _numsysNames$38063[ebp]
	call	??0?$LocalPointer@VUVector@icu_56@@@icu_56@@QAE@PAVUVector@1@AAW4UErrorCode@@@Z ; icu_56::LocalPointer<icu_56::UVector>::LocalPointer<icu_56::UVector>
	mov	DWORD PTR __$EHRec$[ebp+8], 1
; Line 257
	mov	eax, DWORD PTR _status$[ebp]
	mov	ecx, DWORD PTR [eax]
	push	ecx
	call	?U_FAILURE@@YACW4UErrorCode@@@Z		; U_FAILURE
	add	esp, 4
	movsx	edx, al
	test	edx, edx
	je	SHORT $LN6@getAvailab
; Line 258
	mov	DWORD PTR $T45163[ebp], 0
	mov	DWORD PTR __$EHRec$[ebp+8], -1
	lea	ecx, DWORD PTR _numsysNames$38063[ebp]
	call	??1?$LocalPointer@VUVector@icu_56@@@icu_56@@QAE@XZ ; icu_56::LocalPointer<icu_56::UVector>::~LocalPointer<icu_56::UVector>
	mov	eax, DWORD PTR $T45163[ebp]
	jmp	$LN9@getAvailab
$LN6@getAvailab:
; Line 261
	mov	DWORD PTR _rbstatus$38066[ebp], 0
; Line 262
	lea	eax, DWORD PTR _rbstatus$38066[ebp]
	push	eax
	push	OFFSET ??_C@_0BB@BOCNJIEB@numberingSystems?$AA@
	push	0
	call	_ures_openDirect_56
	add	esp, 12					; 0000000cH
	mov	DWORD PTR _numberingSystemsInfo$38067[ebp], eax
; Line 263
	lea	eax, DWORD PTR _rbstatus$38066[ebp]
	push	eax
	mov	ecx, DWORD PTR _numberingSystemsInfo$38067[ebp]
	push	ecx
	push	OFFSET ??_C@_0BB@BOCNJIEB@numberingSystems?$AA@
	mov	edx, DWORD PTR _numberingSystemsInfo$38067[ebp]
	push	edx
	call	_ures_getByKey_56
	add	esp, 16					; 00000010H
	mov	DWORD PTR _numberingSystemsInfo$38067[ebp], eax
; Line 264
	mov	eax, DWORD PTR _rbstatus$38066[ebp]
	push	eax
	call	?U_FAILURE@@YACW4UErrorCode@@@Z		; U_FAILURE
	add	esp, 4
	movsx	ecx, al
	test	ecx, ecx
	je	SHORT $LN4@getAvailab
; Line 265
	mov	eax, DWORD PTR _status$[ebp]
	mov	DWORD PTR [eax], 2
; Line 266
	mov	eax, DWORD PTR _numberingSystemsInfo$38067[ebp]
	push	eax
	call	_ures_close_56
	add	esp, 4
; Line 267
	mov	DWORD PTR $T45164[ebp], 0
	mov	DWORD PTR __$EHRec$[ebp+8], -1
	lea	ecx, DWORD PTR _numsysNames$38063[ebp]
	call	??1?$LocalPointer@VUVector@icu_56@@@icu_56@@QAE@XZ ; icu_56::LocalPointer<icu_56::UVector>::~LocalPointer<icu_56::UVector>
	mov	eax, DWORD PTR $T45164[ebp]
	jmp	$LN9@getAvailab
$LN4@getAvailab:
; Line 270
	mov	eax, DWORD PTR _numberingSystemsInfo$38067[ebp]
	push	eax
	call	_ures_hasNext_56
	add	esp, 4
	movsx	ecx, al
	test	ecx, ecx
	je	$LN3@getAvailab
; Line 271
	lea	eax, DWORD PTR _rbstatus$38066[ebp]
	push	eax
	push	0
	mov	ecx, DWORD PTR _numberingSystemsInfo$38067[ebp]
	push	ecx
	call	_ures_getNextResource_56
	add	esp, 12					; 0000000cH
	mov	DWORD PTR _nsCurrent$38074[ebp], eax
; Line 272
	mov	eax, DWORD PTR _nsCurrent$38074[ebp]
	push	eax
	call	_ures_getKey_56
	add	esp, 4
	mov	DWORD PTR _nsName$38075[ebp], eax
; Line 273
	mov	esi, esp
	push	64					; 00000040H
	call	DWORD PTR __imp_??2UMemory@icu_56@@SAPAXI@Z
	add	esp, 4
	cmp	esi, esp
	call	__RTC_CheckEsp
	mov	DWORD PTR $T45166[ebp], eax
	mov	BYTE PTR __$EHRec$[ebp+8], 2
	cmp	DWORD PTR $T45166[ebp], 0
	je	SHORT $LN13@getAvailab
	mov	esi, esp
	push	0
	push	-1
	mov	eax, DWORD PTR _nsName$38075[ebp]
	push	eax
	mov	ecx, DWORD PTR $T45166[ebp]
	call	DWORD PTR __imp_??0UnicodeString@icu_56@@QAE@PBDHW4EInvariant@01@@Z
	cmp	esi, esp
	call	__RTC_CheckEsp
	mov	ecx, DWORD PTR $T45166[ebp]
	mov	DWORD PTR [ecx], OFFSET ??_SUnicodeString@icu_56@@6B@
	mov	edx, DWORD PTR $T45166[ebp]
	mov	DWORD PTR tv157[ebp], edx
	jmp	SHORT $LN14@getAvailab
$LN13@getAvailab:
	mov	DWORD PTR tv157[ebp], 0
$LN14@getAvailab:
	mov	eax, DWORD PTR tv157[ebp]
	mov	DWORD PTR $T45165[ebp], eax
	mov	BYTE PTR __$EHRec$[ebp+8], 1
	mov	esi, esp
	mov	ecx, DWORD PTR _status$[ebp]
	push	ecx
	mov	edx, DWORD PTR $T45165[ebp]
	push	edx
	lea	ecx, DWORD PTR _numsysNames$38063[ebp]
	call	??C?$LocalPointerBase@VUVector@icu_56@@@icu_56@@QBEPAVUVector@1@XZ ; icu_56::LocalPointerBase<icu_56::UVector>::operator->
	mov	ecx, eax
	call	DWORD PTR __imp_?addElement@UVector@icu_56@@QAEXPAXAAW4UErrorCode@@@Z
	cmp	esi, esp
	call	__RTC_CheckEsp
; Line 274
	mov	eax, DWORD PTR _nsCurrent$38074[ebp]
	push	eax
	call	_ures_close_56
	add	esp, 4
; Line 275
	jmp	$LN4@getAvailab
$LN3@getAvailab:
; Line 277
	mov	eax, DWORD PTR _numberingSystemsInfo$38067[ebp]
	push	eax
	call	_ures_close_56
	add	esp, 4
; Line 278
	mov	eax, DWORD PTR _status$[ebp]
	mov	ecx, DWORD PTR [eax]
	push	ecx
	call	?U_FAILURE@@YACW4UErrorCode@@@Z		; U_FAILURE
	add	esp, 4
	movsx	edx, al
	test	edx, edx
	je	SHORT $LN2@getAvailab
; Line 279
	mov	DWORD PTR $T45169[ebp], 0
	mov	DWORD PTR __$EHRec$[ebp+8], -1
	lea	ecx, DWORD PTR _numsysNames$38063[ebp]
	call	??1?$LocalPointer@VUVector@icu_56@@@icu_56@@QAE@XZ ; icu_56::LocalPointer<icu_56::UVector>::~LocalPointer<icu_56::UVector>
	mov	eax, DWORD PTR $T45169[ebp]
	jmp	$LN9@getAvailab
$LN2@getAvailab:
; Line 281
	mov	esi, esp
	push	116					; 00000074H
	call	DWORD PTR __imp_??2UMemory@icu_56@@SAPAXI@Z
	add	esp, 4
	cmp	esi, esp
	call	__RTC_CheckEsp
	mov	DWORD PTR $T45171[ebp], eax
	mov	BYTE PTR __$EHRec$[ebp+8], 3
	cmp	DWORD PTR $T45171[ebp], 0
	je	SHORT $LN15@getAvailab
	mov	eax, DWORD PTR _status$[ebp]
	push	eax
	lea	ecx, DWORD PTR _numsysNames$38063[ebp]
	call	?getAlias@?$LocalPointerBase@VUVector@icu_56@@@icu_56@@QBEPAVUVector@2@XZ ; icu_56::LocalPointerBase<icu_56::UVector>::getAlias
	push	eax
	mov	ecx, DWORD PTR $T45171[ebp]
	call	??0NumsysNameEnumeration@icu_56@@QAE@PAVUVector@1@AAW4UErrorCode@@@Z ; icu_56::NumsysNameEnumeration::NumsysNameEnumeration
	mov	DWORD PTR tv185[ebp], eax
	jmp	SHORT $LN16@getAvailab
$LN15@getAvailab:
	mov	DWORD PTR tv185[ebp], 0
$LN16@getAvailab:
	mov	ecx, DWORD PTR tv185[ebp]
	mov	DWORD PTR $T45170[ebp], ecx
	mov	BYTE PTR __$EHRec$[ebp+8], 1
	mov	edx, DWORD PTR $T45170[ebp]
	mov	DWORD PTR ?availableNames@?1??getAvailableNames@NumberingSystem@icu_56@@SAPAVStringEnumeration@3@AAW4UErrorCode@@@Z@4PAV43@A, edx
; Line 282
	cmp	DWORD PTR ?availableNames@?1??getAvailableNames@NumberingSystem@icu_56@@SAPAVStringEnumeration@3@AAW4UErrorCode@@@Z@4PAV43@A, 0
	jne	SHORT $LN1@getAvailab
; Line 283
	mov	eax, DWORD PTR _status$[ebp]
	mov	DWORD PTR [eax], 7
; Line 284
	mov	DWORD PTR $T45174[ebp], 0
	mov	DWORD PTR __$EHRec$[ebp+8], -1
	lea	ecx, DWORD PTR _numsysNames$38063[ebp]
	call	??1?$LocalPointer@VUVector@icu_56@@@icu_56@@QAE@XZ ; icu_56::LocalPointer<icu_56::UVector>::~LocalPointer<icu_56::UVector>
	mov	eax, DWORD PTR $T45174[ebp]
	jmp	SHORT $LN9@getAvailab
$LN1@getAvailab:
; Line 286
	lea	ecx, DWORD PTR _numsysNames$38063[ebp]
	call	?orphan@?$LocalPointerBase@VUVector@icu_56@@@icu_56@@QAEPAVUVector@2@XZ ; icu_56::LocalPointerBase<icu_56::UVector>::orphan
; Line 287
	mov	DWORD PTR __$EHRec$[ebp+8], -1
	lea	ecx, DWORD PTR _numsysNames$38063[ebp]
	call	??1?$LocalPointer@VUVector@icu_56@@@icu_56@@QAE@XZ ; icu_56::LocalPointer<icu_56::UVector>::~LocalPointer<icu_56::UVector>
$LN7@getAvailab:
; Line 289
	mov	eax, DWORD PTR ?availableNames@?1??getAvailableNames@NumberingSystem@icu_56@@SAPAVStringEnumeration@3@AAW4UErrorCode@@@Z@4PAV43@A
$LN9@getAvailab:
; Line 290
	push	edx
	mov	ecx, ebp
	push	eax
	lea	edx, DWORD PTR $LN25@getAvailab
	call	@_RTC_CheckStackVars@8
	pop	eax
	pop	edx
	mov	ecx, DWORD PTR __$EHRec$[ebp]
	mov	DWORD PTR fs:0, ecx
	pop	ecx
	pop	edi
	pop	esi
	pop	ebx
	add	esp, 388				; 00000184H
	cmp	ebp, esp
	call	__RTC_CheckEsp
	mov	esp, ebp
	pop	ebp
	ret	0
$LN25@getAvailab:
	DD	2
	DD	$LN24@getAvailab
$LN24@getAvailab:
	DD	-20					; ffffffecH
	DD	4
	DD	$LN21@getAvailab
	DD	-32					; ffffffe0H
	DD	4
	DD	$LN22@getAvailab
$LN22@getAvailab:
	DB	114					; 00000072H
	DB	98					; 00000062H
	DB	115					; 00000073H
	DB	116					; 00000074H
	DB	97					; 00000061H
	DB	116					; 00000074H
	DB	117					; 00000075H
	DB	115					; 00000073H
	DB	0
$LN21@getAvailab:
	DB	110					; 0000006eH
	DB	117					; 00000075H
	DB	109					; 0000006dH
	DB	115					; 00000073H
	DB	121					; 00000079H
	DB	115					; 00000073H
	DB	78					; 0000004eH
	DB	97					; 00000061H
	DB	109					; 0000006dH
	DB	101					; 00000065H
	DB	115					; 00000073H
	DB	0
_TEXT	ENDS
;	COMDAT text$x
text$x	SEGMENT
__unwindfunclet$?getAvailableNames@NumberingSystem@icu_56@@SAPAVStringEnumeration@2@AAW4UErrorCode@@@Z$0:
	mov	esi, esp
	mov	eax, DWORD PTR $T45160[ebp]
	push	eax
	call	DWORD PTR __imp_??3UMemory@icu_56@@SAXPAX@Z
	add	esp, 4
	cmp	esi, esp
	jmp	__RTC_CheckEsp
__unwindfunclet$?getAvailableNames@NumberingSystem@icu_56@@SAPAVStringEnumeration@2@AAW4UErrorCode@@@Z$1:
	lea	ecx, DWORD PTR _numsysNames$38063[ebp]
	jmp	??1?$LocalPointer@VUVector@icu_56@@@icu_56@@QAE@XZ ; icu_56::LocalPointer<icu_56::UVector>::~LocalPointer<icu_56::UVector>
__unwindfunclet$?getAvailableNames@NumberingSystem@icu_56@@SAPAVStringEnumeration@2@AAW4UErrorCode@@@Z$2:
	mov	esi, esp
	mov	eax, DWORD PTR $T45166[ebp]
	push	eax
	call	DWORD PTR __imp_??3UMemory@icu_56@@SAXPAX@Z
	add	esp, 4
	cmp	esi, esp
	jmp	__RTC_CheckEsp
__unwindfunclet$?getAvailableNames@NumberingSystem@icu_56@@SAPAVStringEnumeration@2@AAW4UErrorCode@@@Z$3:
	mov	esi, esp
	mov	eax, DWORD PTR $T45171[ebp]
	push	eax
	call	DWORD PTR __imp_??3UMemory@icu_56@@SAXPAX@Z
	add	esp, 4
	cmp	esi, esp
	jmp	__RTC_CheckEsp
__ehhandler$?getAvailableNames@NumberingSystem@icu_56@@SAPAVStringEnumeration@2@AAW4UErrorCode@@@Z:
	mov	edx, DWORD PTR [esp+8]
	lea	eax, DWORD PTR [edx+12]
	mov	ecx, DWORD PTR [edx-392]
	xor	ecx, eax
	call	@__security_check_cookie@4
	mov	eax, OFFSET __ehfuncinfo$?getAvailableNames@NumberingSystem@icu_56@@SAPAVStringEnumeration@2@AAW4UErrorCode@@@Z
	jmp	___CxxFrameHandler3
text$x	ENDS
?getAvailableNames@NumberingSystem@icu_56@@SAPAVStringEnumeration@2@AAW4UErrorCode@@@Z ENDP ; icu_56::NumberingSystem::getAvailableNames
; Function compile flags: /Odtp /RTCsu /ZI
;	COMDAT ??_GUnicodeString@icu_56@@UAEPAXI@Z
_TEXT	SEGMENT
_this$ = -8						; size = 4
___flags$ = 8						; size = 4
??_GUnicodeString@icu_56@@UAEPAXI@Z PROC		; icu_56::UnicodeString::`scalar deleting destructor', COMDAT
; _this$ = ecx
	push	ebp
	mov	ebp, esp
	sub	esp, 204				; 000000ccH
	push	ebx
	push	esi
	push	edi
	push	ecx
	lea	edi, DWORD PTR [ebp-204]
	mov	ecx, 51					; 00000033H
	mov	eax, -858993460				; ccccccccH
	rep stosd
	pop	ecx
	mov	DWORD PTR _this$[ebp], ecx
	mov	esi, esp
	mov	ecx, DWORD PTR _this$[ebp]
	call	DWORD PTR __imp_??1UnicodeString@icu_56@@UAE@XZ
	cmp	esi, esp
	call	__RTC_CheckEsp
	mov	eax, DWORD PTR ___flags$[ebp]
	and	eax, 1
	je	SHORT $LN1@scalar@3
	mov	esi, esp
	mov	eax, DWORD PTR _this$[ebp]
	push	eax
	call	DWORD PTR __imp_??3UMemory@icu_56@@SAXPAX@Z
	add	esp, 4
	cmp	esi, esp
	call	__RTC_CheckEsp
$LN1@scalar@3:
	mov	eax, DWORD PTR _this$[ebp]
	pop	edi
	pop	esi
	pop	ebx
	add	esp, 204				; 000000ccH
	cmp	ebp, esp
	call	__RTC_CheckEsp
	mov	esp, ebp
	pop	ebp
	ret	4
??_GUnicodeString@icu_56@@UAEPAXI@Z ENDP		; icu_56::UnicodeString::`scalar deleting destructor'
_TEXT	ENDS
EXTRN	__imp_??1UVector@icu_56@@UAE@XZ:PROC
; Function compile flags: /Odtp /RTCsu /ZI
;	COMDAT ??_GUVector@icu_56@@UAEPAXI@Z
_TEXT	SEGMENT
_this$ = -8						; size = 4
___flags$ = 8						; size = 4
??_GUVector@icu_56@@UAEPAXI@Z PROC			; icu_56::UVector::`scalar deleting destructor', COMDAT
; _this$ = ecx
	push	ebp
	mov	ebp, esp
	sub	esp, 204				; 000000ccH
	push	ebx
	push	esi
	push	edi
	push	ecx
	lea	edi, DWORD PTR [ebp-204]
	mov	ecx, 51					; 00000033H
	mov	eax, -858993460				; ccccccccH
	rep stosd
	pop	ecx
	mov	DWORD PTR _this$[ebp], ecx
	mov	esi, esp
	mov	ecx, DWORD PTR _this$[ebp]
	call	DWORD PTR __imp_??1UVector@icu_56@@UAE@XZ
	cmp	esi, esp
	call	__RTC_CheckEsp
	mov	eax, DWORD PTR ___flags$[ebp]
	and	eax, 1
	je	SHORT $LN1@scalar@4
	mov	esi, esp
	mov	eax, DWORD PTR _this$[ebp]
	push	eax
	call	DWORD PTR __imp_??3UMemory@icu_56@@SAXPAX@Z
	add	esp, 4
	cmp	esi, esp
	call	__RTC_CheckEsp
$LN1@scalar@4:
	mov	eax, DWORD PTR _this$[ebp]
	pop	edi
	pop	esi
	pop	ebx
	add	esp, 204				; 000000ccH
	cmp	ebp, esp
	call	__RTC_CheckEsp
	mov	esp, ebp
	pop	ebp
	ret	4
??_GUVector@icu_56@@UAEPAXI@Z ENDP			; icu_56::UVector::`scalar deleting destructor'
_TEXT	ENDS
PUBLIC	??_7NumsysNameEnumeration@icu_56@@6B@		; icu_56::NumsysNameEnumeration::`vftable'
PUBLIC	??_R4NumsysNameEnumeration@icu_56@@6B@		; icu_56::NumsysNameEnumeration::`RTTI Complete Object Locator'
PUBLIC	??_R0?AVNumsysNameEnumeration@icu_56@@@8	; icu_56::NumsysNameEnumeration `RTTI Type Descriptor'
PUBLIC	??_R3NumsysNameEnumeration@icu_56@@8		; icu_56::NumsysNameEnumeration::`RTTI Class Hierarchy Descriptor'
PUBLIC	??_R2NumsysNameEnumeration@icu_56@@8		; icu_56::NumsysNameEnumeration::`RTTI Base Class Array'
PUBLIC	??_R1A@?0A@EA@NumsysNameEnumeration@icu_56@@8	; icu_56::NumsysNameEnumeration::`RTTI Base Class Descriptor at (0,-1,0,64)'
PUBLIC	??_R1A@?0A@EA@StringEnumeration@icu_56@@8	; icu_56::StringEnumeration::`RTTI Base Class Descriptor at (0,-1,0,64)'
PUBLIC	??_R0?AVStringEnumeration@icu_56@@@8		; icu_56::StringEnumeration `RTTI Type Descriptor'
PUBLIC	??_R3StringEnumeration@icu_56@@8		; icu_56::StringEnumeration::`RTTI Class Hierarchy Descriptor'
PUBLIC	??_R2StringEnumeration@icu_56@@8		; icu_56::StringEnumeration::`RTTI Base Class Array'
PUBLIC	?count@NumsysNameEnumeration@icu_56@@UBEHAAW4UErrorCode@@@Z ; icu_56::NumsysNameEnumeration::count
PUBLIC	?snext@NumsysNameEnumeration@icu_56@@UAEPBVUnicodeString@2@AAW4UErrorCode@@@Z ; icu_56::NumsysNameEnumeration::snext
PUBLIC	?reset@NumsysNameEnumeration@icu_56@@UAEXAAW4UErrorCode@@@Z ; icu_56::NumsysNameEnumeration::reset
EXTRN	__imp_??0StringEnumeration@icu_56@@IAE@XZ:PROC
EXTRN	??_ENumsysNameEnumeration@icu_56@@UAEPAXI@Z:PROC ; icu_56::NumsysNameEnumeration::`vector deleting destructor'
EXTRN	?clone@StringEnumeration@icu_56@@UBEPAV12@XZ:PROC ; icu_56::StringEnumeration::clone
EXTRN	?next@StringEnumeration@icu_56@@UAEPBDPAHAAW4UErrorCode@@@Z:PROC ; icu_56::StringEnumeration::next
EXTRN	?unext@StringEnumeration@icu_56@@UAEPB_WPAHAAW4UErrorCode@@@Z:PROC ; icu_56::StringEnumeration::unext
EXTRN	??8StringEnumeration@icu_56@@UBECABV01@@Z:PROC	; icu_56::StringEnumeration::operator==
EXTRN	??9StringEnumeration@icu_56@@UBECABV01@@Z:PROC	; icu_56::StringEnumeration::operator!=
;	COMDAT ??_R2StringEnumeration@icu_56@@8
rdata$r	SEGMENT
??_R2StringEnumeration@icu_56@@8 DD FLAT:??_R1A@?0A@EA@StringEnumeration@icu_56@@8 ; icu_56::StringEnumeration::`RTTI Base Class Array'
	DD	FLAT:??_R1A@?0A@EA@UObject@icu_56@@8
	DD	FLAT:??_R13?0A@EA@UMemory@icu_56@@8
rdata$r	ENDS
;	COMDAT ??_R3StringEnumeration@icu_56@@8
rdata$r	SEGMENT
??_R3StringEnumeration@icu_56@@8 DD 00H			; icu_56::StringEnumeration::`RTTI Class Hierarchy Descriptor'
	DD	00H
	DD	03H
	DD	FLAT:??_R2StringEnumeration@icu_56@@8
rdata$r	ENDS
;	COMDAT ??_R0?AVStringEnumeration@icu_56@@@8
_DATA	SEGMENT
??_R0?AVStringEnumeration@icu_56@@@8 DD FLAT:??_7type_info@@6B@ ; icu_56::StringEnumeration `RTTI Type Descriptor'
	DD	00H
	DB	'.?AVStringEnumeration@icu_56@@', 00H
_DATA	ENDS
;	COMDAT ??_R1A@?0A@EA@StringEnumeration@icu_56@@8
rdata$r	SEGMENT
??_R1A@?0A@EA@StringEnumeration@icu_56@@8 DD FLAT:??_R0?AVStringEnumeration@icu_56@@@8 ; icu_56::StringEnumeration::`RTTI Base Class Descriptor at (0,-1,0,64)'
	DD	02H
	DD	00H
	DD	0ffffffffH
	DD	00H
	DD	040H
	DD	FLAT:??_R3StringEnumeration@icu_56@@8
rdata$r	ENDS
;	COMDAT ??_R1A@?0A@EA@NumsysNameEnumeration@icu_56@@8
rdata$r	SEGMENT
??_R1A@?0A@EA@NumsysNameEnumeration@icu_56@@8 DD FLAT:??_R0?AVNumsysNameEnumeration@icu_56@@@8 ; icu_56::NumsysNameEnumeration::`RTTI Base Class Descriptor at (0,-1,0,64)'
	DD	03H
	DD	00H
	DD	0ffffffffH
	DD	00H
	DD	040H
	DD	FLAT:??_R3NumsysNameEnumeration@icu_56@@8
rdata$r	ENDS
;	COMDAT ??_R2NumsysNameEnumeration@icu_56@@8
rdata$r	SEGMENT
??_R2NumsysNameEnumeration@icu_56@@8 DD FLAT:??_R1A@?0A@EA@NumsysNameEnumeration@icu_56@@8 ; icu_56::NumsysNameEnumeration::`RTTI Base Class Array'
	DD	FLAT:??_R1A@?0A@EA@StringEnumeration@icu_56@@8
	DD	FLAT:??_R1A@?0A@EA@UObject@icu_56@@8
	DD	FLAT:??_R13?0A@EA@UMemory@icu_56@@8
rdata$r	ENDS
;	COMDAT ??_R3NumsysNameEnumeration@icu_56@@8
rdata$r	SEGMENT
??_R3NumsysNameEnumeration@icu_56@@8 DD 00H		; icu_56::NumsysNameEnumeration::`RTTI Class Hierarchy Descriptor'
	DD	00H
	DD	04H
	DD	FLAT:??_R2NumsysNameEnumeration@icu_56@@8
rdata$r	ENDS
;	COMDAT ??_R0?AVNumsysNameEnumeration@icu_56@@@8
_DATA	SEGMENT
??_R0?AVNumsysNameEnumeration@icu_56@@@8 DD FLAT:??_7type_info@@6B@ ; icu_56::NumsysNameEnumeration `RTTI Type Descriptor'
	DD	00H
	DB	'.?AVNumsysNameEnumeration@icu_56@@', 00H
_DATA	ENDS
;	COMDAT ??_R4NumsysNameEnumeration@icu_56@@6B@
rdata$r	SEGMENT
??_R4NumsysNameEnumeration@icu_56@@6B@ DD 00H		; icu_56::NumsysNameEnumeration::`RTTI Complete Object Locator'
	DD	00H
	DD	00H
	DD	FLAT:??_R0?AVNumsysNameEnumeration@icu_56@@@8
	DD	FLAT:??_R3NumsysNameEnumeration@icu_56@@8
rdata$r	ENDS
;	COMDAT ??_7NumsysNameEnumeration@icu_56@@6B@
CONST	SEGMENT
??_7NumsysNameEnumeration@icu_56@@6B@ DD FLAT:??_R4NumsysNameEnumeration@icu_56@@6B@ ; icu_56::NumsysNameEnumeration::`vftable'
	DD	FLAT:??_ENumsysNameEnumeration@icu_56@@UAEPAXI@Z
	DD	FLAT:?getDynamicClassID@NumsysNameEnumeration@icu_56@@UBEPAXXZ
	DD	FLAT:?clone@StringEnumeration@icu_56@@UBEPAV12@XZ
	DD	FLAT:?count@NumsysNameEnumeration@icu_56@@UBEHAAW4UErrorCode@@@Z
	DD	FLAT:?next@StringEnumeration@icu_56@@UAEPBDPAHAAW4UErrorCode@@@Z
	DD	FLAT:?unext@StringEnumeration@icu_56@@UAEPB_WPAHAAW4UErrorCode@@@Z
	DD	FLAT:?snext@NumsysNameEnumeration@icu_56@@UAEPBVUnicodeString@2@AAW4UErrorCode@@@Z
	DD	FLAT:?reset@NumsysNameEnumeration@icu_56@@UAEXAAW4UErrorCode@@@Z
	DD	FLAT:??8StringEnumeration@icu_56@@UBECABV01@@Z
	DD	FLAT:??9StringEnumeration@icu_56@@UBECABV01@@Z
; Function compile flags: /Odtp /RTCsu /ZI
CONST	ENDS
;	COMDAT ??0NumsysNameEnumeration@icu_56@@QAE@PAVUVector@1@AAW4UErrorCode@@@Z
_TEXT	SEGMENT
_this$ = -8						; size = 4
_numsysNames$ = 8					; size = 4
___formal$ = 12						; size = 4
??0NumsysNameEnumeration@icu_56@@QAE@PAVUVector@1@AAW4UErrorCode@@@Z PROC ; icu_56::NumsysNameEnumeration::NumsysNameEnumeration, COMDAT
; _this$ = ecx
; Line 292
	push	ebp
	mov	ebp, esp
	sub	esp, 204				; 000000ccH
	push	ebx
	push	esi
	push	edi
	push	ecx
	lea	edi, DWORD PTR [ebp-204]
	mov	ecx, 51					; 00000033H
	mov	eax, -858993460				; ccccccccH
	rep stosd
	pop	ecx
	mov	DWORD PTR _this$[ebp], ecx
	mov	esi, esp
	mov	ecx, DWORD PTR _this$[ebp]
	call	DWORD PTR __imp_??0StringEnumeration@icu_56@@IAE@XZ
	cmp	esi, esp
	call	__RTC_CheckEsp
	mov	eax, DWORD PTR _this$[ebp]
	mov	DWORD PTR [eax], OFFSET ??_7NumsysNameEnumeration@icu_56@@6B@
; Line 293
	mov	eax, DWORD PTR _this$[ebp]
	mov	DWORD PTR [eax+108], 0
; Line 294
	mov	eax, DWORD PTR _this$[ebp]
	mov	ecx, DWORD PTR _numsysNames$[ebp]
	mov	DWORD PTR [eax+112], ecx
; Line 295
	mov	eax, DWORD PTR _this$[ebp]
	pop	edi
	pop	esi
	pop	ebx
	add	esp, 204				; 000000ccH
	cmp	ebp, esp
	call	__RTC_CheckEsp
	mov	esp, ebp
	pop	ebp
	ret	8
??0NumsysNameEnumeration@icu_56@@QAE@PAVUVector@1@AAW4UErrorCode@@@Z ENDP ; icu_56::NumsysNameEnumeration::NumsysNameEnumeration
_TEXT	ENDS
PUBLIC	??1NumsysNameEnumeration@icu_56@@UAE@XZ		; icu_56::NumsysNameEnumeration::~NumsysNameEnumeration
; Function compile flags: /Odtp /RTCsu /ZI
;	COMDAT ??_GNumsysNameEnumeration@icu_56@@UAEPAXI@Z
_TEXT	SEGMENT
_this$ = -8						; size = 4
___flags$ = 8						; size = 4
??_GNumsysNameEnumeration@icu_56@@UAEPAXI@Z PROC	; icu_56::NumsysNameEnumeration::`scalar deleting destructor', COMDAT
; _this$ = ecx
	push	ebp
	mov	ebp, esp
	sub	esp, 204				; 000000ccH
	push	ebx
	push	esi
	push	edi
	push	ecx
	lea	edi, DWORD PTR [ebp-204]
	mov	ecx, 51					; 00000033H
	mov	eax, -858993460				; ccccccccH
	rep stosd
	pop	ecx
	mov	DWORD PTR _this$[ebp], ecx
	mov	ecx, DWORD PTR _this$[ebp]
	call	??1NumsysNameEnumeration@icu_56@@UAE@XZ	; icu_56::NumsysNameEnumeration::~NumsysNameEnumeration
	mov	eax, DWORD PTR ___flags$[ebp]
	and	eax, 1
	je	SHORT $LN1@scalar@5
	mov	esi, esp
	mov	eax, DWORD PTR _this$[ebp]
	push	eax
	call	DWORD PTR __imp_??3UMemory@icu_56@@SAXPAX@Z
	add	esp, 4
	cmp	esi, esp
	call	__RTC_CheckEsp
$LN1@scalar@5:
	mov	eax, DWORD PTR _this$[ebp]
	pop	edi
	pop	esi
	pop	ebx
	add	esp, 204				; 000000ccH
	cmp	ebp, esp
	call	__RTC_CheckEsp
	mov	esp, ebp
	pop	ebp
	ret	4
??_GNumsysNameEnumeration@icu_56@@UAEPAXI@Z ENDP	; icu_56::NumsysNameEnumeration::`scalar deleting destructor'
_TEXT	ENDS
EXTRN	__imp_?elementAt@UVector@icu_56@@QBEPAXH@Z:PROC
EXTRN	__imp_?size@UVector@icu_56@@QBEHXZ:PROC
; Function compile flags: /Odtp /RTCsu /ZI
;	COMDAT ?snext@NumsysNameEnumeration@icu_56@@UAEPBVUnicodeString@2@AAW4UErrorCode@@@Z
_TEXT	SEGMENT
tv80 = -208						; size = 4
_this$ = -8						; size = 4
_status$ = 8						; size = 4
?snext@NumsysNameEnumeration@icu_56@@UAEPBVUnicodeString@2@AAW4UErrorCode@@@Z PROC ; icu_56::NumsysNameEnumeration::snext, COMDAT
; _this$ = ecx
; Line 298
	push	ebp
	mov	ebp, esp
	sub	esp, 208				; 000000d0H
	push	ebx
	push	esi
	push	edi
	push	ecx
	lea	edi, DWORD PTR [ebp-208]
	mov	ecx, 52					; 00000034H
	mov	eax, -858993460				; ccccccccH
	rep stosd
	pop	ecx
	mov	DWORD PTR _this$[ebp], ecx
; Line 299
	mov	eax, DWORD PTR _status$[ebp]
	mov	ecx, DWORD PTR [eax]
	push	ecx
	call	?U_SUCCESS@@YACW4UErrorCode@@@Z		; U_SUCCESS
	add	esp, 4
	movsx	edx, al
	test	edx, edx
	je	SHORT $LN1@snext
	mov	esi, esp
	mov	eax, DWORD PTR _this$[ebp]
	mov	ecx, DWORD PTR [eax+112]
	call	DWORD PTR __imp_?size@UVector@icu_56@@QBEHXZ
	cmp	esi, esp
	call	__RTC_CheckEsp
	mov	ecx, DWORD PTR _this$[ebp]
	cmp	DWORD PTR [ecx+108], eax
	jge	SHORT $LN1@snext
; Line 300
	mov	eax, DWORD PTR _this$[ebp]
	mov	ecx, DWORD PTR [eax+108]
	mov	DWORD PTR tv80[ebp], ecx
	mov	edx, DWORD PTR _this$[ebp]
	mov	eax, DWORD PTR [edx+108]
	add	eax, 1
	mov	ecx, DWORD PTR _this$[ebp]
	mov	DWORD PTR [ecx+108], eax
	mov	esi, esp
	mov	edx, DWORD PTR tv80[ebp]
	push	edx
	mov	eax, DWORD PTR _this$[ebp]
	mov	ecx, DWORD PTR [eax+112]
	call	DWORD PTR __imp_?elementAt@UVector@icu_56@@QBEPAXH@Z
	cmp	esi, esp
	call	__RTC_CheckEsp
	jmp	SHORT $LN2@snext
$LN1@snext:
; Line 302
	xor	eax, eax
$LN2@snext:
; Line 303
	pop	edi
	pop	esi
	pop	ebx
	add	esp, 208				; 000000d0H
	cmp	ebp, esp
	call	__RTC_CheckEsp
	mov	esp, ebp
	pop	ebp
	ret	4
?snext@NumsysNameEnumeration@icu_56@@UAEPBVUnicodeString@2@AAW4UErrorCode@@@Z ENDP ; icu_56::NumsysNameEnumeration::snext
; Function compile flags: /Odtp /RTCsu /ZI
_TEXT	ENDS
;	COMDAT ?reset@NumsysNameEnumeration@icu_56@@UAEXAAW4UErrorCode@@@Z
_TEXT	SEGMENT
_this$ = -8						; size = 4
___formal$ = 8						; size = 4
?reset@NumsysNameEnumeration@icu_56@@UAEXAAW4UErrorCode@@@Z PROC ; icu_56::NumsysNameEnumeration::reset, COMDAT
; _this$ = ecx
; Line 306
	push	ebp
	mov	ebp, esp
	sub	esp, 204				; 000000ccH
	push	ebx
	push	esi
	push	edi
	push	ecx
	lea	edi, DWORD PTR [ebp-204]
	mov	ecx, 51					; 00000033H
	mov	eax, -858993460				; ccccccccH
	rep stosd
	pop	ecx
	mov	DWORD PTR _this$[ebp], ecx
; Line 307
	mov	eax, DWORD PTR _this$[ebp]
	mov	DWORD PTR [eax+108], 0
; Line 308
	pop	edi
	pop	esi
	pop	ebx
	mov	esp, ebp
	pop	ebp
	ret	4
?reset@NumsysNameEnumeration@icu_56@@UAEXAAW4UErrorCode@@@Z ENDP ; icu_56::NumsysNameEnumeration::reset
; Function compile flags: /Odtp /RTCsu /ZI
_TEXT	ENDS
;	COMDAT ?count@NumsysNameEnumeration@icu_56@@UBEHAAW4UErrorCode@@@Z
_TEXT	SEGMENT
tv69 = -208						; size = 4
_this$ = -8						; size = 4
___formal$ = 8						; size = 4
?count@NumsysNameEnumeration@icu_56@@UBEHAAW4UErrorCode@@@Z PROC ; icu_56::NumsysNameEnumeration::count, COMDAT
; _this$ = ecx
; Line 311
	push	ebp
	mov	ebp, esp
	sub	esp, 208				; 000000d0H
	push	ebx
	push	esi
	push	edi
	push	ecx
	lea	edi, DWORD PTR [ebp-208]
	mov	ecx, 52					; 00000034H
	mov	eax, -858993460				; ccccccccH
	rep stosd
	pop	ecx
	mov	DWORD PTR _this$[ebp], ecx
; Line 312
	mov	eax, DWORD PTR _this$[ebp]
	cmp	DWORD PTR [eax+112], 0
	jne	SHORT $LN3@count
	mov	DWORD PTR tv69[ebp], 0
	jmp	SHORT $LN4@count
$LN3@count:
	mov	esi, esp
	mov	ecx, DWORD PTR _this$[ebp]
	mov	ecx, DWORD PTR [ecx+112]
	call	DWORD PTR __imp_?size@UVector@icu_56@@QBEHXZ
	cmp	esi, esp
	call	__RTC_CheckEsp
	mov	DWORD PTR tv69[ebp], eax
$LN4@count:
	mov	eax, DWORD PTR tv69[ebp]
; Line 313
	pop	edi
	pop	esi
	pop	ebx
	add	esp, 208				; 000000d0H
	cmp	ebp, esp
	call	__RTC_CheckEsp
	mov	esp, ebp
	pop	ebp
	ret	4
?count@NumsysNameEnumeration@icu_56@@UBEHAAW4UErrorCode@@@Z ENDP ; icu_56::NumsysNameEnumeration::count
_TEXT	ENDS
EXTRN	__imp_??1StringEnumeration@icu_56@@UAE@XZ:PROC
;	COMDAT xdata$x
xdata$x	SEGMENT
__unwindtable$??1NumsysNameEnumeration@icu_56@@UAE@XZ DD 0ffffffffH
	DD	FLAT:__unwindfunclet$??1NumsysNameEnumeration@icu_56@@UAE@XZ$0
__ehfuncinfo$??1NumsysNameEnumeration@icu_56@@UAE@XZ DD 019930522H
	DD	01H
	DD	FLAT:__unwindtable$??1NumsysNameEnumeration@icu_56@@UAE@XZ
	DD	2 DUP(00H)
	DD	2 DUP(00H)
	DD	00H
	DD	01H
; Function compile flags: /Odtp /RTCsu /ZI
xdata$x	ENDS
;	COMDAT ??1NumsysNameEnumeration@icu_56@@UAE@XZ
_TEXT	SEGMENT
tv85 = -244						; size = 4
$T45208 = -236						; size = 4
$T45209 = -224						; size = 4
_this$ = -20						; size = 4
__$EHRec$ = -12						; size = 12
??1NumsysNameEnumeration@icu_56@@UAE@XZ PROC		; icu_56::NumsysNameEnumeration::~NumsysNameEnumeration, COMDAT
; _this$ = ecx
; Line 315
	push	ebp
	mov	ebp, esp
	push	-1
	push	__ehhandler$??1NumsysNameEnumeration@icu_56@@UAE@XZ
	mov	eax, DWORD PTR fs:0
	push	eax
	sub	esp, 232				; 000000e8H
	push	ebx
	push	esi
	push	edi
	push	ecx
	lea	edi, DWORD PTR [ebp-244]
	mov	ecx, 58					; 0000003aH
	mov	eax, -858993460				; ccccccccH
	rep stosd
	pop	ecx
	mov	eax, DWORD PTR ___security_cookie
	xor	eax, ebp
	push	eax
	lea	eax, DWORD PTR __$EHRec$[ebp]
	mov	DWORD PTR fs:0, eax
	mov	DWORD PTR _this$[ebp], ecx
	mov	eax, DWORD PTR _this$[ebp]
	mov	DWORD PTR [eax], OFFSET ??_7NumsysNameEnumeration@icu_56@@6B@
	mov	DWORD PTR __$EHRec$[ebp+8], 0
; Line 316
	mov	eax, DWORD PTR _this$[ebp]
	mov	ecx, DWORD PTR [eax+112]
	mov	DWORD PTR $T45209[ebp], ecx
	mov	edx, DWORD PTR $T45209[ebp]
	mov	DWORD PTR $T45208[ebp], edx
	cmp	DWORD PTR $T45208[ebp], 0
	je	SHORT $LN3@NumsysName
	mov	esi, esp
	push	1
	mov	eax, DWORD PTR $T45208[ebp]
	mov	edx, DWORD PTR [eax]
	mov	ecx, DWORD PTR $T45208[ebp]
	mov	eax, DWORD PTR [edx]
	call	eax
	cmp	esi, esp
	call	__RTC_CheckEsp
	mov	DWORD PTR tv85[ebp], eax
	jmp	SHORT $LN1@NumsysName
$LN3@NumsysName:
	mov	DWORD PTR tv85[ebp], 0
$LN1@NumsysName:
; Line 317
	mov	DWORD PTR __$EHRec$[ebp+8], -1
	mov	esi, esp
	mov	ecx, DWORD PTR _this$[ebp]
	call	DWORD PTR __imp_??1StringEnumeration@icu_56@@UAE@XZ
	cmp	esi, esp
	call	__RTC_CheckEsp
	mov	ecx, DWORD PTR __$EHRec$[ebp]
	mov	DWORD PTR fs:0, ecx
	pop	ecx
	pop	edi
	pop	esi
	pop	ebx
	add	esp, 244				; 000000f4H
	cmp	ebp, esp
	call	__RTC_CheckEsp
	mov	esp, ebp
	pop	ebp
	ret	0
_TEXT	ENDS
;	COMDAT text$x
text$x	SEGMENT
__unwindfunclet$??1NumsysNameEnumeration@icu_56@@UAE@XZ$0:
	mov	esi, esp
	mov	ecx, DWORD PTR _this$[ebp]
	call	DWORD PTR __imp_??1StringEnumeration@icu_56@@UAE@XZ
	cmp	esi, esp
	jmp	__RTC_CheckEsp
__ehhandler$??1NumsysNameEnumeration@icu_56@@UAE@XZ:
	mov	edx, DWORD PTR [esp+8]
	lea	eax, DWORD PTR [edx+12]
	mov	ecx, DWORD PTR [edx-248]
	xor	ecx, eax
	call	@__security_check_cookie@4
	mov	eax, OFFSET __ehfuncinfo$??1NumsysNameEnumeration@icu_56@@UAE@XZ
	jmp	___CxxFrameHandler3
text$x	ENDS
??1NumsysNameEnumeration@icu_56@@UAE@XZ ENDP		; icu_56::NumsysNameEnumeration::~NumsysNameEnumeration
PUBLIC	??1?$LocalPointerBase@VUVector@icu_56@@@icu_56@@QAE@XZ ; icu_56::LocalPointerBase<icu_56::UVector>::~LocalPointerBase<icu_56::UVector>
PUBLIC	??0?$LocalPointerBase@VUVector@icu_56@@@icu_56@@QAE@PAVUVector@1@@Z ; icu_56::LocalPointerBase<icu_56::UVector>::LocalPointerBase<icu_56::UVector>
;	COMDAT xdata$x
; File d:\mozilla\intl\icu\include\unicode\localpointer.h
xdata$x	SEGMENT
__unwindtable$??0?$LocalPointer@VUVector@icu_56@@@icu_56@@QAE@PAVUVector@1@AAW4UErrorCode@@@Z DD 0ffffffffH
	DD	FLAT:__unwindfunclet$??0?$LocalPointer@VUVector@icu_56@@@icu_56@@QAE@PAVUVector@1@AAW4UErrorCode@@@Z$0
__ehfuncinfo$??0?$LocalPointer@VUVector@icu_56@@@icu_56@@QAE@PAVUVector@1@AAW4UErrorCode@@@Z DD 019930522H
	DD	01H
	DD	FLAT:__unwindtable$??0?$LocalPointer@VUVector@icu_56@@@icu_56@@QAE@PAVUVector@1@AAW4UErrorCode@@@Z
	DD	2 DUP(00H)
	DD	2 DUP(00H)
	DD	00H
	DD	01H
; Function compile flags: /Odtp /RTCsu /ZI
xdata$x	ENDS
;	COMDAT ??0?$LocalPointer@VUVector@icu_56@@@icu_56@@QAE@PAVUVector@1@AAW4UErrorCode@@@Z
_TEXT	SEGMENT
_this$ = -20						; size = 4
__$EHRec$ = -12						; size = 12
_p$ = 8							; size = 4
_errorCode$ = 12					; size = 4
??0?$LocalPointer@VUVector@icu_56@@@icu_56@@QAE@PAVUVector@1@AAW4UErrorCode@@@Z PROC ; icu_56::LocalPointer<icu_56::UVector>::LocalPointer<icu_56::UVector>, COMDAT
; _this$ = ecx
; Line 208
	push	ebp
	mov	ebp, esp
	push	-1
	push	__ehhandler$??0?$LocalPointer@VUVector@icu_56@@@icu_56@@QAE@PAVUVector@1@AAW4UErrorCode@@@Z
	mov	eax, DWORD PTR fs:0
	push	eax
	sub	esp, 204				; 000000ccH
	push	ebx
	push	esi
	push	edi
	push	ecx
	lea	edi, DWORD PTR [ebp-216]
	mov	ecx, 51					; 00000033H
	mov	eax, -858993460				; ccccccccH
	rep stosd
	pop	ecx
	mov	eax, DWORD PTR ___security_cookie
	xor	eax, ebp
	push	eax
	lea	eax, DWORD PTR __$EHRec$[ebp]
	mov	DWORD PTR fs:0, eax
	mov	DWORD PTR _this$[ebp], ecx
	mov	eax, DWORD PTR _p$[ebp]
	push	eax
	mov	ecx, DWORD PTR _this$[ebp]
	call	??0?$LocalPointerBase@VUVector@icu_56@@@icu_56@@QAE@PAVUVector@1@@Z ; icu_56::LocalPointerBase<icu_56::UVector>::LocalPointerBase<icu_56::UVector>
	mov	DWORD PTR __$EHRec$[ebp+8], 0
; Line 209
	cmp	DWORD PTR _p$[ebp], 0
	jne	SHORT $LN2@LocalPoint
	mov	eax, DWORD PTR _errorCode$[ebp]
	mov	ecx, DWORD PTR [eax]
	push	ecx
	call	?U_SUCCESS@@YACW4UErrorCode@@@Z		; U_SUCCESS
	add	esp, 4
	movsx	edx, al
	test	edx, edx
	je	SHORT $LN2@LocalPoint
; Line 210
	mov	eax, DWORD PTR _errorCode$[ebp]
	mov	DWORD PTR [eax], 7
$LN2@LocalPoint:
; Line 212
	mov	DWORD PTR __$EHRec$[ebp+8], -1
	mov	eax, DWORD PTR _this$[ebp]
	mov	ecx, DWORD PTR __$EHRec$[ebp]
	mov	DWORD PTR fs:0, ecx
	pop	ecx
	pop	edi
	pop	esi
	pop	ebx
	add	esp, 216				; 000000d8H
	cmp	ebp, esp
	call	__RTC_CheckEsp
	mov	esp, ebp
	pop	ebp
	ret	8
_TEXT	ENDS
;	COMDAT text$x
text$x	SEGMENT
__unwindfunclet$??0?$LocalPointer@VUVector@icu_56@@@icu_56@@QAE@PAVUVector@1@AAW4UErrorCode@@@Z$0:
	mov	ecx, DWORD PTR _this$[ebp]
	jmp	??1?$LocalPointerBase@VUVector@icu_56@@@icu_56@@QAE@XZ ; icu_56::LocalPointerBase<icu_56::UVector>::~LocalPointerBase<icu_56::UVector>
__ehhandler$??0?$LocalPointer@VUVector@icu_56@@@icu_56@@QAE@PAVUVector@1@AAW4UErrorCode@@@Z:
	mov	edx, DWORD PTR [esp+8]
	lea	eax, DWORD PTR [edx+12]
	mov	ecx, DWORD PTR [edx-220]
	xor	ecx, eax
	call	@__security_check_cookie@4
	mov	eax, OFFSET __ehfuncinfo$??0?$LocalPointer@VUVector@icu_56@@@icu_56@@QAE@PAVUVector@1@AAW4UErrorCode@@@Z
	jmp	___CxxFrameHandler3
text$x	ENDS
??0?$LocalPointer@VUVector@icu_56@@@icu_56@@QAE@PAVUVector@1@AAW4UErrorCode@@@Z ENDP ; icu_56::LocalPointer<icu_56::UVector>::LocalPointer<icu_56::UVector>
;	COMDAT xdata$x
xdata$x	SEGMENT
__unwindtable$??1?$LocalPointer@VUVector@icu_56@@@icu_56@@QAE@XZ DD 0ffffffffH
	DD	FLAT:__unwindfunclet$??1?$LocalPointer@VUVector@icu_56@@@icu_56@@QAE@XZ$0
__ehfuncinfo$??1?$LocalPointer@VUVector@icu_56@@@icu_56@@QAE@XZ DD 019930522H
	DD	01H
	DD	FLAT:__unwindtable$??1?$LocalPointer@VUVector@icu_56@@@icu_56@@QAE@XZ
	DD	2 DUP(00H)
	DD	2 DUP(00H)
	DD	00H
	DD	01H
; Function compile flags: /Odtp /RTCsu /ZI
xdata$x	ENDS
;	COMDAT ??1?$LocalPointer@VUVector@icu_56@@@icu_56@@QAE@XZ
_TEXT	SEGMENT
tv84 = -244						; size = 4
$T45230 = -236						; size = 4
$T45231 = -224						; size = 4
_this$ = -20						; size = 4
__$EHRec$ = -12						; size = 12
??1?$LocalPointer@VUVector@icu_56@@@icu_56@@QAE@XZ PROC	; icu_56::LocalPointer<icu_56::UVector>::~LocalPointer<icu_56::UVector>, COMDAT
; _this$ = ecx
; Line 228
	push	ebp
	mov	ebp, esp
	push	-1
	push	__ehhandler$??1?$LocalPointer@VUVector@icu_56@@@icu_56@@QAE@XZ
	mov	eax, DWORD PTR fs:0
	push	eax
	sub	esp, 232				; 000000e8H
	push	ebx
	push	esi
	push	edi
	push	ecx
	lea	edi, DWORD PTR [ebp-244]
	mov	ecx, 58					; 0000003aH
	mov	eax, -858993460				; ccccccccH
	rep stosd
	pop	ecx
	mov	eax, DWORD PTR ___security_cookie
	xor	eax, ebp
	push	eax
	lea	eax, DWORD PTR __$EHRec$[ebp]
	mov	DWORD PTR fs:0, eax
	mov	DWORD PTR _this$[ebp], ecx
	mov	DWORD PTR __$EHRec$[ebp+8], 0
; Line 229
	mov	eax, DWORD PTR _this$[ebp]
	mov	ecx, DWORD PTR [eax]
	mov	DWORD PTR $T45231[ebp], ecx
	mov	edx, DWORD PTR $T45231[ebp]
	mov	DWORD PTR $T45230[ebp], edx
	cmp	DWORD PTR $T45230[ebp], 0
	je	SHORT $LN3@LocalPoint@2
	mov	esi, esp
	push	1
	mov	eax, DWORD PTR $T45230[ebp]
	mov	edx, DWORD PTR [eax]
	mov	ecx, DWORD PTR $T45230[ebp]
	mov	eax, DWORD PTR [edx]
	call	eax
	cmp	esi, esp
	call	__RTC_CheckEsp
	mov	DWORD PTR tv84[ebp], eax
	jmp	SHORT $LN1@LocalPoint@2
$LN3@LocalPoint@2:
	mov	DWORD PTR tv84[ebp], 0
$LN1@LocalPoint@2:
; Line 230
	mov	DWORD PTR __$EHRec$[ebp+8], -1
	mov	ecx, DWORD PTR _this$[ebp]
	call	??1?$LocalPointerBase@VUVector@icu_56@@@icu_56@@QAE@XZ ; icu_56::LocalPointerBase<icu_56::UVector>::~LocalPointerBase<icu_56::UVector>
	mov	ecx, DWORD PTR __$EHRec$[ebp]
	mov	DWORD PTR fs:0, ecx
	pop	ecx
	pop	edi
	pop	esi
	pop	ebx
	add	esp, 244				; 000000f4H
	cmp	ebp, esp
	call	__RTC_CheckEsp
	mov	esp, ebp
	pop	ebp
	ret	0
_TEXT	ENDS
;	COMDAT text$x
text$x	SEGMENT
__unwindfunclet$??1?$LocalPointer@VUVector@icu_56@@@icu_56@@QAE@XZ$0:
	mov	ecx, DWORD PTR _this$[ebp]
	jmp	??1?$LocalPointerBase@VUVector@icu_56@@@icu_56@@QAE@XZ ; icu_56::LocalPointerBase<icu_56::UVector>::~LocalPointerBase<icu_56::UVector>
__ehhandler$??1?$LocalPointer@VUVector@icu_56@@@icu_56@@QAE@XZ:
	mov	edx, DWORD PTR [esp+8]
	lea	eax, DWORD PTR [edx+12]
	mov	ecx, DWORD PTR [edx-248]
	xor	ecx, eax
	call	@__security_check_cookie@4
	mov	eax, OFFSET __ehfuncinfo$??1?$LocalPointer@VUVector@icu_56@@@icu_56@@QAE@XZ
	jmp	___CxxFrameHandler3
text$x	ENDS
??1?$LocalPointer@VUVector@icu_56@@@icu_56@@QAE@XZ ENDP	; icu_56::LocalPointer<icu_56::UVector>::~LocalPointer<icu_56::UVector>
; Function compile flags: /Odtp /RTCsu /ZI
;	COMDAT ?getAlias@?$LocalPointerBase@VUVector@icu_56@@@icu_56@@QBEPAVUVector@2@XZ
_TEXT	SEGMENT
_this$ = -8						; size = 4
?getAlias@?$LocalPointerBase@VUVector@icu_56@@@icu_56@@QBEPAVUVector@2@XZ PROC ; icu_56::LocalPointerBase<icu_56::UVector>::getAlias, COMDAT
; _this$ = ecx
; Line 111
	push	ebp
	mov	ebp, esp
	sub	esp, 204				; 000000ccH
	push	ebx
	push	esi
	push	edi
	push	ecx
	lea	edi, DWORD PTR [ebp-204]
	mov	ecx, 51					; 00000033H
	mov	eax, -858993460				; ccccccccH
	rep stosd
	pop	ecx
	mov	DWORD PTR _this$[ebp], ecx
	mov	eax, DWORD PTR _this$[ebp]
	mov	eax, DWORD PTR [eax]
	pop	edi
	pop	esi
	pop	ebx
	mov	esp, ebp
	pop	ebp
	ret	0
?getAlias@?$LocalPointerBase@VUVector@icu_56@@@icu_56@@QBEPAVUVector@2@XZ ENDP ; icu_56::LocalPointerBase<icu_56::UVector>::getAlias
; Function compile flags: /Odtp /RTCsu /ZI
_TEXT	ENDS
;	COMDAT ??C?$LocalPointerBase@VUVector@icu_56@@@icu_56@@QBEPAVUVector@1@XZ
_TEXT	SEGMENT
_this$ = -8						; size = 4
??C?$LocalPointerBase@VUVector@icu_56@@@icu_56@@QBEPAVUVector@1@XZ PROC ; icu_56::LocalPointerBase<icu_56::UVector>::operator->, COMDAT
; _this$ = ecx
; Line 123
	push	ebp
	mov	ebp, esp
	sub	esp, 204				; 000000ccH
	push	ebx
	push	esi
	push	edi
	push	ecx
	lea	edi, DWORD PTR [ebp-204]
	mov	ecx, 51					; 00000033H
	mov	eax, -858993460				; ccccccccH
	rep stosd
	pop	ecx
	mov	DWORD PTR _this$[ebp], ecx
	mov	eax, DWORD PTR _this$[ebp]
	mov	eax, DWORD PTR [eax]
	pop	edi
	pop	esi
	pop	ebx
	mov	esp, ebp
	pop	ebp
	ret	0
??C?$LocalPointerBase@VUVector@icu_56@@@icu_56@@QBEPAVUVector@1@XZ ENDP ; icu_56::LocalPointerBase<icu_56::UVector>::operator->
; Function compile flags: /Odtp /RTCsu /ZI
_TEXT	ENDS
;	COMDAT ?orphan@?$LocalPointerBase@VUVector@icu_56@@@icu_56@@QAEPAVUVector@2@XZ
_TEXT	SEGMENT
_p$ = -20						; size = 4
_this$ = -8						; size = 4
?orphan@?$LocalPointerBase@VUVector@icu_56@@@icu_56@@QAEPAVUVector@2@XZ PROC ; icu_56::LocalPointerBase<icu_56::UVector>::orphan, COMDAT
; _this$ = ecx
; Line 130
	push	ebp
	mov	ebp, esp
	sub	esp, 216				; 000000d8H
	push	ebx
	push	esi
	push	edi
	push	ecx
	lea	edi, DWORD PTR [ebp-216]
	mov	ecx, 54					; 00000036H
	mov	eax, -858993460				; ccccccccH
	rep stosd
	pop	ecx
	mov	DWORD PTR _this$[ebp], ecx
; Line 131
	mov	eax, DWORD PTR _this$[ebp]
	mov	ecx, DWORD PTR [eax]
	mov	DWORD PTR _p$[ebp], ecx
; Line 132
	mov	eax, DWORD PTR _this$[ebp]
	mov	DWORD PTR [eax], 0
; Line 133
	mov	eax, DWORD PTR _p$[ebp]
; Line 134
	pop	edi
	pop	esi
	pop	ebx
	mov	esp, ebp
	pop	ebp
	ret	0
?orphan@?$LocalPointerBase@VUVector@icu_56@@@icu_56@@QAEPAVUVector@2@XZ ENDP ; icu_56::LocalPointerBase<icu_56::UVector>::orphan
; Function compile flags: /Odtp /RTCsu /ZI
_TEXT	ENDS
;	COMDAT ??0?$LocalPointerBase@VUVector@icu_56@@@icu_56@@QAE@PAVUVector@1@@Z
_TEXT	SEGMENT
_this$ = -8						; size = 4
_p$ = 8							; size = 4
??0?$LocalPointerBase@VUVector@icu_56@@@icu_56@@QAE@PAVUVector@1@@Z PROC ; icu_56::LocalPointerBase<icu_56::UVector>::LocalPointerBase<icu_56::UVector>, COMDAT
; _this$ = ecx
; Line 71
	push	ebp
	mov	ebp, esp
	sub	esp, 204				; 000000ccH
	push	ebx
	push	esi
	push	edi
	push	ecx
	lea	edi, DWORD PTR [ebp-204]
	mov	ecx, 51					; 00000033H
	mov	eax, -858993460				; ccccccccH
	rep stosd
	pop	ecx
	mov	DWORD PTR _this$[ebp], ecx
	mov	eax, DWORD PTR _this$[ebp]
	mov	ecx, DWORD PTR _p$[ebp]
	mov	DWORD PTR [eax], ecx
	mov	eax, DWORD PTR _this$[ebp]
	pop	edi
	pop	esi
	pop	ebx
	mov	esp, ebp
	pop	ebp
	ret	4
??0?$LocalPointerBase@VUVector@icu_56@@@icu_56@@QAE@PAVUVector@1@@Z ENDP ; icu_56::LocalPointerBase<icu_56::UVector>::LocalPointerBase<icu_56::UVector>
; Function compile flags: /Odtp /RTCsu /ZI
_TEXT	ENDS
;	COMDAT ??1?$LocalPointerBase@VUVector@icu_56@@@icu_56@@QAE@XZ
_TEXT	SEGMENT
_this$ = -8						; size = 4
??1?$LocalPointerBase@VUVector@icu_56@@@icu_56@@QAE@XZ PROC ; icu_56::LocalPointerBase<icu_56::UVector>::~LocalPointerBase<icu_56::UVector>, COMDAT
; _this$ = ecx
; Line 77
	push	ebp
	mov	ebp, esp
	sub	esp, 204				; 000000ccH
	push	ebx
	push	esi
	push	edi
	push	ecx
	lea	edi, DWORD PTR [ebp-204]
	mov	ecx, 51					; 00000033H
	mov	eax, -858993460				; ccccccccH
	rep stosd
	pop	ecx
	mov	DWORD PTR _this$[ebp], ecx
	pop	edi
	pop	esi
	pop	ebx
	mov	esp, ebp
	pop	ebp
	ret	0
??1?$LocalPointerBase@VUVector@icu_56@@@icu_56@@QAE@XZ ENDP ; icu_56::LocalPointerBase<icu_56::UVector>::~LocalPointerBase<icu_56::UVector>
_TEXT	ENDS
END
