; Listing generated by Microsoft (R) Optimizing Compiler Version 16.00.40219.01 

	TITLE	D:\mozilla\intl\icu\source\i18n\plurrule.cpp
	.686P
	.XMM
	include listing.inc
	.model	flat

INCLUDELIB MSVCRTD
INCLUDELIB OLDNAMES

PUBLIC	?value@?$integral_constant@_N$0A@@tr1@std@@2_NB	; std::tr1::integral_constant<bool,0>::value
PUBLIC	?value@?$integral_constant@_N$00@tr1@std@@2_NB	; std::tr1::integral_constant<bool,1>::value
PUBLIC	?value@?$integral_constant@I$0A@@tr1@std@@2IB	; std::tr1::integral_constant<unsigned int,0>::value
PUBLIC	?_Rank@?$_Arithmetic_traits@_N@std@@2HB		; std::_Arithmetic_traits<bool>::_Rank
PUBLIC	?_Rank@?$_Arithmetic_traits@D@std@@2HB		; std::_Arithmetic_traits<char>::_Rank
PUBLIC	?_Rank@?$_Arithmetic_traits@C@std@@2HB		; std::_Arithmetic_traits<signed char>::_Rank
PUBLIC	?_Rank@?$_Arithmetic_traits@E@std@@2HB		; std::_Arithmetic_traits<unsigned char>::_Rank
PUBLIC	?_Rank@?$_Arithmetic_traits@F@std@@2HB		; std::_Arithmetic_traits<short>::_Rank
PUBLIC	?_Rank@?$_Arithmetic_traits@G@std@@2HB		; std::_Arithmetic_traits<unsigned short>::_Rank
PUBLIC	?_Rank@?$_Arithmetic_traits@H@std@@2HB		; std::_Arithmetic_traits<int>::_Rank
PUBLIC	?_Rank@?$_Arithmetic_traits@I@std@@2HB		; std::_Arithmetic_traits<unsigned int>::_Rank
PUBLIC	?_Rank@?$_Arithmetic_traits@J@std@@2HB		; std::_Arithmetic_traits<long>::_Rank
PUBLIC	?_Rank@?$_Arithmetic_traits@K@std@@2HB		; std::_Arithmetic_traits<unsigned long>::_Rank
PUBLIC	?_Rank@?$_Arithmetic_traits@_J@std@@2HB		; std::_Arithmetic_traits<__int64>::_Rank
PUBLIC	?_Rank@?$_Arithmetic_traits@_K@std@@2HB		; std::_Arithmetic_traits<unsigned __int64>::_Rank
PUBLIC	?_Rank@?$_Arithmetic_traits@M@std@@2HB		; std::_Arithmetic_traits<float>::_Rank
PUBLIC	?_Rank@?$_Arithmetic_traits@N@std@@2HB		; std::_Arithmetic_traits<double>::_Rank
PUBLIC	?_Rank@?$_Arithmetic_traits@O@std@@2HB		; std::_Arithmetic_traits<long double>::_Rank
PUBLIC	?collate@?$_Locbase@H@std@@2HB			; std::_Locbase<int>::collate
PUBLIC	?ctype@?$_Locbase@H@std@@2HB			; std::_Locbase<int>::ctype
PUBLIC	?monetary@?$_Locbase@H@std@@2HB			; std::_Locbase<int>::monetary
PUBLIC	?numeric@?$_Locbase@H@std@@2HB			; std::_Locbase<int>::numeric
PUBLIC	?time@?$_Locbase@H@std@@2HB			; std::_Locbase<int>::time
PUBLIC	?messages@?$_Locbase@H@std@@2HB			; std::_Locbase<int>::messages
PUBLIC	?all@?$_Locbase@H@std@@2HB			; std::_Locbase<int>::all
PUBLIC	?none@?$_Locbase@H@std@@2HB			; std::_Locbase<int>::none
PUBLIC	?skipws@?$_Iosb@H@std@@2W4_Fmtflags@12@B	; std::_Iosb<int>::skipws
PUBLIC	?unitbuf@?$_Iosb@H@std@@2W4_Fmtflags@12@B	; std::_Iosb<int>::unitbuf
PUBLIC	?uppercase@?$_Iosb@H@std@@2W4_Fmtflags@12@B	; std::_Iosb<int>::uppercase
PUBLIC	?showbase@?$_Iosb@H@std@@2W4_Fmtflags@12@B	; std::_Iosb<int>::showbase
PUBLIC	?showpoint@?$_Iosb@H@std@@2W4_Fmtflags@12@B	; std::_Iosb<int>::showpoint
PUBLIC	?showpos@?$_Iosb@H@std@@2W4_Fmtflags@12@B	; std::_Iosb<int>::showpos
PUBLIC	?left@?$_Iosb@H@std@@2W4_Fmtflags@12@B		; std::_Iosb<int>::left
PUBLIC	?right@?$_Iosb@H@std@@2W4_Fmtflags@12@B		; std::_Iosb<int>::right
PUBLIC	?internal@?$_Iosb@H@std@@2W4_Fmtflags@12@B	; std::_Iosb<int>::internal
PUBLIC	?dec@?$_Iosb@H@std@@2W4_Fmtflags@12@B		; std::_Iosb<int>::dec
PUBLIC	?oct@?$_Iosb@H@std@@2W4_Fmtflags@12@B		; std::_Iosb<int>::oct
PUBLIC	?hex@?$_Iosb@H@std@@2W4_Fmtflags@12@B		; std::_Iosb<int>::hex
PUBLIC	?scientific@?$_Iosb@H@std@@2W4_Fmtflags@12@B	; std::_Iosb<int>::scientific
PUBLIC	?fixed@?$_Iosb@H@std@@2W4_Fmtflags@12@B		; std::_Iosb<int>::fixed
PUBLIC	?hexfloat@?$_Iosb@H@std@@2W4_Fmtflags@12@B	; std::_Iosb<int>::hexfloat
PUBLIC	?boolalpha@?$_Iosb@H@std@@2W4_Fmtflags@12@B	; std::_Iosb<int>::boolalpha
PUBLIC	?_Stdio@?$_Iosb@H@std@@2W4_Fmtflags@12@B	; std::_Iosb<int>::_Stdio
PUBLIC	?adjustfield@?$_Iosb@H@std@@2W4_Fmtflags@12@B	; std::_Iosb<int>::adjustfield
PUBLIC	?basefield@?$_Iosb@H@std@@2W4_Fmtflags@12@B	; std::_Iosb<int>::basefield
PUBLIC	?floatfield@?$_Iosb@H@std@@2W4_Fmtflags@12@B	; std::_Iosb<int>::floatfield
PUBLIC	?goodbit@?$_Iosb@H@std@@2W4_Iostate@12@B	; std::_Iosb<int>::goodbit
PUBLIC	?eofbit@?$_Iosb@H@std@@2W4_Iostate@12@B		; std::_Iosb<int>::eofbit
PUBLIC	?failbit@?$_Iosb@H@std@@2W4_Iostate@12@B	; std::_Iosb<int>::failbit
PUBLIC	?badbit@?$_Iosb@H@std@@2W4_Iostate@12@B		; std::_Iosb<int>::badbit
PUBLIC	?_Hardfail@?$_Iosb@H@std@@2W4_Iostate@12@B	; std::_Iosb<int>::_Hardfail
PUBLIC	?in@?$_Iosb@H@std@@2W4_Openmode@12@B		; std::_Iosb<int>::in
PUBLIC	?out@?$_Iosb@H@std@@2W4_Openmode@12@B		; std::_Iosb<int>::out
PUBLIC	?ate@?$_Iosb@H@std@@2W4_Openmode@12@B		; std::_Iosb<int>::ate
PUBLIC	?app@?$_Iosb@H@std@@2W4_Openmode@12@B		; std::_Iosb<int>::app
PUBLIC	?trunc@?$_Iosb@H@std@@2W4_Openmode@12@B		; std::_Iosb<int>::trunc
PUBLIC	?_Nocreate@?$_Iosb@H@std@@2W4_Openmode@12@B	; std::_Iosb<int>::_Nocreate
PUBLIC	?_Noreplace@?$_Iosb@H@std@@2W4_Openmode@12@B	; std::_Iosb<int>::_Noreplace
PUBLIC	?binary@?$_Iosb@H@std@@2W4_Openmode@12@B	; std::_Iosb<int>::binary
PUBLIC	?beg@?$_Iosb@H@std@@2W4_Seekdir@12@B		; std::_Iosb<int>::beg
PUBLIC	?cur@?$_Iosb@H@std@@2W4_Seekdir@12@B		; std::_Iosb<int>::cur
PUBLIC	?end@?$_Iosb@H@std@@2W4_Seekdir@12@B		; std::_Iosb<int>::end
_BSS	SEGMENT
?classID@?1??getStaticClassID@PluralRules@icu_56@@SAPAXXZ@4DA DB 01H DUP (?) ; `icu_56::PluralRules::getStaticClassID'::`2'::classID
?classID@?1??getStaticClassID@PluralKeywordEnumeration@icu_56@@SAPAXXZ@4DA DB 01H DUP (?) ; `icu_56::PluralKeywordEnumeration::getStaticClassID'::`2'::classID
_BSS	ENDS
_DATA	SEGMENT
_p10	DD	01H
	DD	0aH
	DD	064H
	DD	03e8H
	DD	02710H
_DATA	ENDS
CONST	SEGMENT
_PLURAL_KEYWORD_OTHER DW 06fH
	DW	074H
	DW	068H
	DW	065H
	DW	072H
	DW	00H
_PLURAL_DEFAULT_RULE DW 06fH
	DW	074H
	DW	068H
	DW	065H
	DW	072H
	DW	03aH
	DW	020H
	DW	06eH
	DW	00H
	ORG $+2
_PK_IN	DW	069H
	DW	06eH
	DW	00H
	ORG $+2
_PK_NOT	DW	06eH
	DW	06fH
	DW	074H
	DW	00H
_PK_IS	DW	069H
	DW	073H
	DW	00H
	ORG $+2
_PK_MOD	DW	06dH
	DW	06fH
	DW	064H
	DW	00H
_PK_AND	DW	061H
	DW	06eH
	DW	064H
	DW	00H
_PK_OR	DW	06fH
	DW	072H
	DW	00H
	ORG $+2
_PK_VAR_N DW	06eH
	DW	00H
_PK_VAR_I DW	069H
	DW	00H
_PK_VAR_F DW	066H
	DW	00H
_PK_VAR_T DW	074H
	DW	00H
_PK_VAR_V DW	076H
	DW	00H
_PK_WITHIN DW	077H
	DW	069H
	DW	074H
	DW	068H
	DW	069H
	DW	06eH
	DW	00H
	ORG $+2
_PK_DECIMAL DW	064H
	DW	065H
	DW	063H
	DW	069H
	DW	06dH
	DW	061H
	DW	06cH
	DW	00H
_PK_INTEGER DW	069H
	DW	06eH
	DW	074H
	DW	065H
	DW	067H
	DW	065H
	DW	072H
	DW	00H
CONST	ENDS
;	COMDAT ?end@?$_Iosb@H@std@@2W4_Seekdir@12@B
CONST	SEGMENT
?end@?$_Iosb@H@std@@2W4_Seekdir@12@B DD 02H		; std::_Iosb<int>::end
CONST	ENDS
;	COMDAT ?cur@?$_Iosb@H@std@@2W4_Seekdir@12@B
CONST	SEGMENT
?cur@?$_Iosb@H@std@@2W4_Seekdir@12@B DD 01H		; std::_Iosb<int>::cur
CONST	ENDS
;	COMDAT ?beg@?$_Iosb@H@std@@2W4_Seekdir@12@B
CONST	SEGMENT
?beg@?$_Iosb@H@std@@2W4_Seekdir@12@B DD 00H		; std::_Iosb<int>::beg
CONST	ENDS
;	COMDAT ?binary@?$_Iosb@H@std@@2W4_Openmode@12@B
CONST	SEGMENT
?binary@?$_Iosb@H@std@@2W4_Openmode@12@B DD 020H	; std::_Iosb<int>::binary
CONST	ENDS
;	COMDAT ?_Noreplace@?$_Iosb@H@std@@2W4_Openmode@12@B
CONST	SEGMENT
?_Noreplace@?$_Iosb@H@std@@2W4_Openmode@12@B DD 080H	; std::_Iosb<int>::_Noreplace
CONST	ENDS
;	COMDAT ?_Nocreate@?$_Iosb@H@std@@2W4_Openmode@12@B
CONST	SEGMENT
?_Nocreate@?$_Iosb@H@std@@2W4_Openmode@12@B DD 040H	; std::_Iosb<int>::_Nocreate
CONST	ENDS
;	COMDAT ?trunc@?$_Iosb@H@std@@2W4_Openmode@12@B
CONST	SEGMENT
?trunc@?$_Iosb@H@std@@2W4_Openmode@12@B DD 010H		; std::_Iosb<int>::trunc
CONST	ENDS
;	COMDAT ?app@?$_Iosb@H@std@@2W4_Openmode@12@B
CONST	SEGMENT
?app@?$_Iosb@H@std@@2W4_Openmode@12@B DD 08H		; std::_Iosb<int>::app
CONST	ENDS
;	COMDAT ?ate@?$_Iosb@H@std@@2W4_Openmode@12@B
CONST	SEGMENT
?ate@?$_Iosb@H@std@@2W4_Openmode@12@B DD 04H		; std::_Iosb<int>::ate
CONST	ENDS
;	COMDAT ?out@?$_Iosb@H@std@@2W4_Openmode@12@B
CONST	SEGMENT
?out@?$_Iosb@H@std@@2W4_Openmode@12@B DD 02H		; std::_Iosb<int>::out
CONST	ENDS
;	COMDAT ?in@?$_Iosb@H@std@@2W4_Openmode@12@B
CONST	SEGMENT
?in@?$_Iosb@H@std@@2W4_Openmode@12@B DD 01H		; std::_Iosb<int>::in
CONST	ENDS
;	COMDAT ?_Hardfail@?$_Iosb@H@std@@2W4_Iostate@12@B
CONST	SEGMENT
?_Hardfail@?$_Iosb@H@std@@2W4_Iostate@12@B DD 010H	; std::_Iosb<int>::_Hardfail
CONST	ENDS
;	COMDAT ?badbit@?$_Iosb@H@std@@2W4_Iostate@12@B
CONST	SEGMENT
?badbit@?$_Iosb@H@std@@2W4_Iostate@12@B DD 04H		; std::_Iosb<int>::badbit
CONST	ENDS
;	COMDAT ?failbit@?$_Iosb@H@std@@2W4_Iostate@12@B
CONST	SEGMENT
?failbit@?$_Iosb@H@std@@2W4_Iostate@12@B DD 02H		; std::_Iosb<int>::failbit
CONST	ENDS
;	COMDAT ?eofbit@?$_Iosb@H@std@@2W4_Iostate@12@B
CONST	SEGMENT
?eofbit@?$_Iosb@H@std@@2W4_Iostate@12@B DD 01H		; std::_Iosb<int>::eofbit
CONST	ENDS
;	COMDAT ?goodbit@?$_Iosb@H@std@@2W4_Iostate@12@B
CONST	SEGMENT
?goodbit@?$_Iosb@H@std@@2W4_Iostate@12@B DD 00H		; std::_Iosb<int>::goodbit
CONST	ENDS
;	COMDAT ?floatfield@?$_Iosb@H@std@@2W4_Fmtflags@12@B
CONST	SEGMENT
?floatfield@?$_Iosb@H@std@@2W4_Fmtflags@12@B DD 03000H	; std::_Iosb<int>::floatfield
CONST	ENDS
;	COMDAT ?basefield@?$_Iosb@H@std@@2W4_Fmtflags@12@B
CONST	SEGMENT
?basefield@?$_Iosb@H@std@@2W4_Fmtflags@12@B DD 0e00H	; std::_Iosb<int>::basefield
CONST	ENDS
;	COMDAT ?adjustfield@?$_Iosb@H@std@@2W4_Fmtflags@12@B
CONST	SEGMENT
?adjustfield@?$_Iosb@H@std@@2W4_Fmtflags@12@B DD 01c0H	; std::_Iosb<int>::adjustfield
CONST	ENDS
;	COMDAT ?_Stdio@?$_Iosb@H@std@@2W4_Fmtflags@12@B
CONST	SEGMENT
?_Stdio@?$_Iosb@H@std@@2W4_Fmtflags@12@B DD 08000H	; std::_Iosb<int>::_Stdio
CONST	ENDS
;	COMDAT ?boolalpha@?$_Iosb@H@std@@2W4_Fmtflags@12@B
CONST	SEGMENT
?boolalpha@?$_Iosb@H@std@@2W4_Fmtflags@12@B DD 04000H	; std::_Iosb<int>::boolalpha
CONST	ENDS
;	COMDAT ?hexfloat@?$_Iosb@H@std@@2W4_Fmtflags@12@B
CONST	SEGMENT
?hexfloat@?$_Iosb@H@std@@2W4_Fmtflags@12@B DD 03000H	; std::_Iosb<int>::hexfloat
CONST	ENDS
;	COMDAT ?fixed@?$_Iosb@H@std@@2W4_Fmtflags@12@B
CONST	SEGMENT
?fixed@?$_Iosb@H@std@@2W4_Fmtflags@12@B DD 02000H	; std::_Iosb<int>::fixed
CONST	ENDS
;	COMDAT ?scientific@?$_Iosb@H@std@@2W4_Fmtflags@12@B
CONST	SEGMENT
?scientific@?$_Iosb@H@std@@2W4_Fmtflags@12@B DD 01000H	; std::_Iosb<int>::scientific
CONST	ENDS
;	COMDAT ?hex@?$_Iosb@H@std@@2W4_Fmtflags@12@B
CONST	SEGMENT
?hex@?$_Iosb@H@std@@2W4_Fmtflags@12@B DD 0800H		; std::_Iosb<int>::hex
CONST	ENDS
;	COMDAT ?oct@?$_Iosb@H@std@@2W4_Fmtflags@12@B
CONST	SEGMENT
?oct@?$_Iosb@H@std@@2W4_Fmtflags@12@B DD 0400H		; std::_Iosb<int>::oct
CONST	ENDS
;	COMDAT ?dec@?$_Iosb@H@std@@2W4_Fmtflags@12@B
CONST	SEGMENT
?dec@?$_Iosb@H@std@@2W4_Fmtflags@12@B DD 0200H		; std::_Iosb<int>::dec
CONST	ENDS
;	COMDAT ?internal@?$_Iosb@H@std@@2W4_Fmtflags@12@B
CONST	SEGMENT
?internal@?$_Iosb@H@std@@2W4_Fmtflags@12@B DD 0100H	; std::_Iosb<int>::internal
CONST	ENDS
;	COMDAT ?right@?$_Iosb@H@std@@2W4_Fmtflags@12@B
CONST	SEGMENT
?right@?$_Iosb@H@std@@2W4_Fmtflags@12@B DD 080H		; std::_Iosb<int>::right
CONST	ENDS
;	COMDAT ?left@?$_Iosb@H@std@@2W4_Fmtflags@12@B
CONST	SEGMENT
?left@?$_Iosb@H@std@@2W4_Fmtflags@12@B DD 040H		; std::_Iosb<int>::left
CONST	ENDS
;	COMDAT ?showpos@?$_Iosb@H@std@@2W4_Fmtflags@12@B
CONST	SEGMENT
?showpos@?$_Iosb@H@std@@2W4_Fmtflags@12@B DD 020H	; std::_Iosb<int>::showpos
CONST	ENDS
;	COMDAT ?showpoint@?$_Iosb@H@std@@2W4_Fmtflags@12@B
CONST	SEGMENT
?showpoint@?$_Iosb@H@std@@2W4_Fmtflags@12@B DD 010H	; std::_Iosb<int>::showpoint
CONST	ENDS
;	COMDAT ?showbase@?$_Iosb@H@std@@2W4_Fmtflags@12@B
CONST	SEGMENT
?showbase@?$_Iosb@H@std@@2W4_Fmtflags@12@B DD 08H	; std::_Iosb<int>::showbase
CONST	ENDS
;	COMDAT ?uppercase@?$_Iosb@H@std@@2W4_Fmtflags@12@B
CONST	SEGMENT
?uppercase@?$_Iosb@H@std@@2W4_Fmtflags@12@B DD 04H	; std::_Iosb<int>::uppercase
CONST	ENDS
;	COMDAT ?unitbuf@?$_Iosb@H@std@@2W4_Fmtflags@12@B
CONST	SEGMENT
?unitbuf@?$_Iosb@H@std@@2W4_Fmtflags@12@B DD 02H	; std::_Iosb<int>::unitbuf
CONST	ENDS
;	COMDAT ?skipws@?$_Iosb@H@std@@2W4_Fmtflags@12@B
CONST	SEGMENT
?skipws@?$_Iosb@H@std@@2W4_Fmtflags@12@B DD 01H		; std::_Iosb<int>::skipws
CONST	ENDS
;	COMDAT ?none@?$_Locbase@H@std@@2HB
CONST	SEGMENT
?none@?$_Locbase@H@std@@2HB DD 00H			; std::_Locbase<int>::none
CONST	ENDS
;	COMDAT ?all@?$_Locbase@H@std@@2HB
CONST	SEGMENT
?all@?$_Locbase@H@std@@2HB DD 03fH			; std::_Locbase<int>::all
CONST	ENDS
;	COMDAT ?messages@?$_Locbase@H@std@@2HB
CONST	SEGMENT
?messages@?$_Locbase@H@std@@2HB DD 020H			; std::_Locbase<int>::messages
CONST	ENDS
;	COMDAT ?time@?$_Locbase@H@std@@2HB
CONST	SEGMENT
?time@?$_Locbase@H@std@@2HB DD 010H			; std::_Locbase<int>::time
CONST	ENDS
;	COMDAT ?numeric@?$_Locbase@H@std@@2HB
CONST	SEGMENT
?numeric@?$_Locbase@H@std@@2HB DD 08H			; std::_Locbase<int>::numeric
CONST	ENDS
;	COMDAT ?monetary@?$_Locbase@H@std@@2HB
CONST	SEGMENT
?monetary@?$_Locbase@H@std@@2HB DD 04H			; std::_Locbase<int>::monetary
CONST	ENDS
;	COMDAT ?ctype@?$_Locbase@H@std@@2HB
CONST	SEGMENT
?ctype@?$_Locbase@H@std@@2HB DD 02H			; std::_Locbase<int>::ctype
CONST	ENDS
;	COMDAT ?collate@?$_Locbase@H@std@@2HB
CONST	SEGMENT
?collate@?$_Locbase@H@std@@2HB DD 01H			; std::_Locbase<int>::collate
CONST	ENDS
;	COMDAT ?_Rank@?$_Arithmetic_traits@O@std@@2HB
CONST	SEGMENT
?_Rank@?$_Arithmetic_traits@O@std@@2HB DD 09H		; std::_Arithmetic_traits<long double>::_Rank
CONST	ENDS
;	COMDAT ?_Rank@?$_Arithmetic_traits@N@std@@2HB
CONST	SEGMENT
?_Rank@?$_Arithmetic_traits@N@std@@2HB DD 08H		; std::_Arithmetic_traits<double>::_Rank
CONST	ENDS
;	COMDAT ?_Rank@?$_Arithmetic_traits@M@std@@2HB
CONST	SEGMENT
?_Rank@?$_Arithmetic_traits@M@std@@2HB DD 07H		; std::_Arithmetic_traits<float>::_Rank
CONST	ENDS
;	COMDAT ?_Rank@?$_Arithmetic_traits@_K@std@@2HB
CONST	SEGMENT
?_Rank@?$_Arithmetic_traits@_K@std@@2HB DD 06H		; std::_Arithmetic_traits<unsigned __int64>::_Rank
CONST	ENDS
;	COMDAT ?_Rank@?$_Arithmetic_traits@_J@std@@2HB
CONST	SEGMENT
?_Rank@?$_Arithmetic_traits@_J@std@@2HB DD 06H		; std::_Arithmetic_traits<__int64>::_Rank
CONST	ENDS
;	COMDAT ?_Rank@?$_Arithmetic_traits@K@std@@2HB
CONST	SEGMENT
?_Rank@?$_Arithmetic_traits@K@std@@2HB DD 05H		; std::_Arithmetic_traits<unsigned long>::_Rank
CONST	ENDS
;	COMDAT ?_Rank@?$_Arithmetic_traits@J@std@@2HB
CONST	SEGMENT
?_Rank@?$_Arithmetic_traits@J@std@@2HB DD 05H		; std::_Arithmetic_traits<long>::_Rank
CONST	ENDS
;	COMDAT ?_Rank@?$_Arithmetic_traits@I@std@@2HB
CONST	SEGMENT
?_Rank@?$_Arithmetic_traits@I@std@@2HB DD 04H		; std::_Arithmetic_traits<unsigned int>::_Rank
CONST	ENDS
;	COMDAT ?_Rank@?$_Arithmetic_traits@H@std@@2HB
CONST	SEGMENT
?_Rank@?$_Arithmetic_traits@H@std@@2HB DD 04H		; std::_Arithmetic_traits<int>::_Rank
CONST	ENDS
;	COMDAT ?_Rank@?$_Arithmetic_traits@G@std@@2HB
CONST	SEGMENT
?_Rank@?$_Arithmetic_traits@G@std@@2HB DD 03H		; std::_Arithmetic_traits<unsigned short>::_Rank
CONST	ENDS
;	COMDAT ?_Rank@?$_Arithmetic_traits@F@std@@2HB
CONST	SEGMENT
?_Rank@?$_Arithmetic_traits@F@std@@2HB DD 03H		; std::_Arithmetic_traits<short>::_Rank
CONST	ENDS
;	COMDAT ?_Rank@?$_Arithmetic_traits@E@std@@2HB
CONST	SEGMENT
?_Rank@?$_Arithmetic_traits@E@std@@2HB DD 02H		; std::_Arithmetic_traits<unsigned char>::_Rank
CONST	ENDS
;	COMDAT ?_Rank@?$_Arithmetic_traits@C@std@@2HB
CONST	SEGMENT
?_Rank@?$_Arithmetic_traits@C@std@@2HB DD 02H		; std::_Arithmetic_traits<signed char>::_Rank
CONST	ENDS
;	COMDAT ?_Rank@?$_Arithmetic_traits@D@std@@2HB
CONST	SEGMENT
?_Rank@?$_Arithmetic_traits@D@std@@2HB DD 02H		; std::_Arithmetic_traits<char>::_Rank
CONST	ENDS
;	COMDAT ?_Rank@?$_Arithmetic_traits@_N@std@@2HB
CONST	SEGMENT
?_Rank@?$_Arithmetic_traits@_N@std@@2HB DD 01H		; std::_Arithmetic_traits<bool>::_Rank
CONST	ENDS
;	COMDAT ?value@?$integral_constant@I$0A@@tr1@std@@2IB
CONST	SEGMENT
?value@?$integral_constant@I$0A@@tr1@std@@2IB DD 00H	; std::tr1::integral_constant<unsigned int,0>::value
CONST	ENDS
;	COMDAT ?value@?$integral_constant@_N$00@tr1@std@@2_NB
CONST	SEGMENT
?value@?$integral_constant@_N$00@tr1@std@@2_NB DB 01H	; std::tr1::integral_constant<bool,1>::value
CONST	ENDS
;	COMDAT ?value@?$integral_constant@_N$0A@@tr1@std@@2_NB
CONST	SEGMENT
?value@?$integral_constant@_N$0A@@tr1@std@@2_NB DB 00H	; std::tr1::integral_constant<bool,0>::value
CONST	ENDS
PUBLIC	??2@YAPAXI@Z					; operator new
EXTRN	__RTC_Shutdown:PROC
EXTRN	__RTC_InitBase:PROC
;	COMDAT rtc$TMZ
; File d:\mozilla\intl\icu\include\unicode\utypes.h
rtc$TMZ	SEGMENT
__RTC_Shutdown.rtc$TMZ DD FLAT:__RTC_Shutdown
rtc$TMZ	ENDS
;	COMDAT rtc$IMZ
rtc$IMZ	SEGMENT
__RTC_InitBase.rtc$IMZ DD FLAT:__RTC_InitBase
; Function compile flags: /Odtp /RTCsu /ZI
rtc$IMZ	ENDS
;	COMDAT ??2@YAPAXI@Z
_TEXT	SEGMENT
_q$ = -8						; size = 4
___formal$ = 8						; size = 4
??2@YAPAXI@Z PROC					; operator new, COMDAT
; Line 411
	push	ebp
	mov	ebp, esp
	sub	esp, 204				; 000000ccH
	push	ebx
	push	esi
	push	edi
	lea	edi, DWORD PTR [ebp-204]
	mov	ecx, 51					; 00000033H
	mov	eax, -858993460				; ccccccccH
	rep stosd
; Line 412
	mov	DWORD PTR _q$[ebp], 0
; Line 413
	mov	eax, DWORD PTR _q$[ebp]
	mov	BYTE PTR [eax], 5
; Line 414
	mov	eax, DWORD PTR _q$[ebp]
; Line 415
	pop	edi
	pop	esi
	pop	ebx
	mov	esp, ebp
	pop	ebp
	ret	0
??2@YAPAXI@Z ENDP					; operator new
_TEXT	ENDS
PUBLIC	??3@YAXPAX@Z					; operator delete
; Function compile flags: /Odtp /RTCsu /ZI
;	COMDAT ??3@YAXPAX@Z
_TEXT	SEGMENT
_q$ = -8						; size = 4
___formal$ = 8						; size = 4
??3@YAXPAX@Z PROC					; operator delete, COMDAT
; Line 439
	push	ebp
	mov	ebp, esp
	sub	esp, 204				; 000000ccH
	push	ebx
	push	esi
	push	edi
	lea	edi, DWORD PTR [ebp-204]
	mov	ecx, 51					; 00000033H
	mov	eax, -858993460				; ccccccccH
	rep stosd
; Line 440
	mov	DWORD PTR _q$[ebp], 0
; Line 441
	mov	eax, DWORD PTR _q$[ebp]
	mov	BYTE PTR [eax], 5
; Line 442
	pop	edi
	pop	esi
	pop	ebx
	mov	esp, ebp
	pop	ebp
	ret	0
??3@YAXPAX@Z ENDP					; operator delete
_TEXT	ENDS
PUBLIC	??9Formattable@icu_56@@QBECABV01@@Z		; icu_56::Formattable::operator!=
EXTRN	??8Formattable@icu_56@@QBECABV01@@Z:PROC	; icu_56::Formattable::operator==
EXTRN	__RTC_CheckEsp:PROC
; Function compile flags: /Odtp /RTCsu /ZI
;	COMDAT ??9Formattable@icu_56@@QBECABV01@@Z
_TEXT	SEGMENT
_this$ = -8						; size = 4
_other$ = 8						; size = 4
??9Formattable@icu_56@@QBECABV01@@Z PROC		; icu_56::Formattable::operator!=, COMDAT
; _this$ = ecx
; File d:\mozilla\intl\icu\source\i18n\unicode\fmtable.h
; Line 196
	push	ebp
	mov	ebp, esp
	sub	esp, 204				; 000000ccH
	push	ebx
	push	esi
	push	edi
	push	ecx
	lea	edi, DWORD PTR [ebp-204]
	mov	ecx, 51					; 00000033H
	mov	eax, -858993460				; ccccccccH
	rep stosd
	pop	ecx
	mov	DWORD PTR _this$[ebp], ecx
	mov	eax, DWORD PTR _other$[ebp]
	push	eax
	mov	ecx, DWORD PTR _this$[ebp]
	call	??8Formattable@icu_56@@QBECABV01@@Z	; icu_56::Formattable::operator==
	movsx	ecx, al
	test	ecx, ecx
	sete	al
	pop	edi
	pop	esi
	pop	ebx
	add	esp, 204				; 000000ccH
	cmp	ebp, esp
	call	__RTC_CheckEsp
	mov	esp, ebp
	pop	ebp
	ret	4
??9Formattable@icu_56@@QBECABV01@@Z ENDP		; icu_56::Formattable::operator!=
_TEXT	ENDS
PUBLIC	?getDouble@Formattable@icu_56@@QBENXZ		; icu_56::Formattable::getDouble
EXTRN	__fltused:DWORD
; Function compile flags: /Odtp /RTCsu /ZI
;	COMDAT ?getDouble@Formattable@icu_56@@QBENXZ
_TEXT	SEGMENT
_this$ = -8						; size = 4
?getDouble@Formattable@icu_56@@QBENXZ PROC		; icu_56::Formattable::getDouble, COMDAT
; _this$ = ecx
; Line 295
	push	ebp
	mov	ebp, esp
	sub	esp, 204				; 000000ccH
	push	ebx
	push	esi
	push	edi
	push	ecx
	lea	edi, DWORD PTR [ebp-204]
	mov	ecx, 51					; 00000033H
	mov	eax, -858993460				; ccccccccH
	rep stosd
	pop	ecx
	mov	DWORD PTR _this$[ebp], ecx
	mov	eax, DWORD PTR _this$[ebp]
	fld	QWORD PTR [eax+8]
	pop	edi
	pop	esi
	pop	ebx
	mov	esp, ebp
	pop	ebp
	ret	0
?getDouble@Formattable@icu_56@@QBENXZ ENDP		; icu_56::Formattable::getDouble
_TEXT	ENDS
PUBLIC	?getLong@Formattable@icu_56@@QBEHXZ		; icu_56::Formattable::getLong
; Function compile flags: /Odtp /RTCsu /ZI
;	COMDAT ?getLong@Formattable@icu_56@@QBEHXZ
_TEXT	SEGMENT
_this$ = -8						; size = 4
?getLong@Formattable@icu_56@@QBEHXZ PROC		; icu_56::Formattable::getLong, COMDAT
; _this$ = ecx
; Line 317
	push	ebp
	mov	ebp, esp
	sub	esp, 204				; 000000ccH
	push	ebx
	push	esi
	push	edi
	push	ecx
	lea	edi, DWORD PTR [ebp-204]
	mov	ecx, 51					; 00000033H
	mov	eax, -858993460				; ccccccccH
	rep stosd
	pop	ecx
	mov	DWORD PTR _this$[ebp], ecx
	mov	eax, DWORD PTR _this$[ebp]
	mov	eax, DWORD PTR [eax+8]
	pop	edi
	pop	esi
	pop	ebx
	mov	esp, ebp
	pop	ebp
	ret	0
?getLong@Formattable@icu_56@@QBEHXZ ENDP		; icu_56::Formattable::getLong
_TEXT	ENDS
PUBLIC	?getInt64@Formattable@icu_56@@QBE_JXZ		; icu_56::Formattable::getInt64
; Function compile flags: /Odtp /RTCsu /ZI
;	COMDAT ?getInt64@Formattable@icu_56@@QBE_JXZ
_TEXT	SEGMENT
_this$ = -8						; size = 4
?getInt64@Formattable@icu_56@@QBE_JXZ PROC		; icu_56::Formattable::getInt64, COMDAT
; _this$ = ecx
; Line 343
	push	ebp
	mov	ebp, esp
	sub	esp, 204				; 000000ccH
	push	ebx
	push	esi
	push	edi
	push	ecx
	lea	edi, DWORD PTR [ebp-204]
	mov	ecx, 51					; 00000033H
	mov	eax, -858993460				; ccccccccH
	rep stosd
	pop	ecx
	mov	DWORD PTR _this$[ebp], ecx
	mov	ecx, DWORD PTR _this$[ebp]
	mov	eax, DWORD PTR [ecx+8]
	mov	edx, DWORD PTR [ecx+12]
	pop	edi
	pop	esi
	pop	ebx
	mov	esp, ebp
	pop	ebp
	ret	0
?getInt64@Formattable@icu_56@@QBE_JXZ ENDP		; icu_56::Formattable::getInt64
_TEXT	ENDS
PUBLIC	?getDate@Formattable@icu_56@@QBENXZ		; icu_56::Formattable::getDate
; Function compile flags: /Odtp /RTCsu /ZI
;	COMDAT ?getDate@Formattable@icu_56@@QBENXZ
_TEXT	SEGMENT
_this$ = -8						; size = 4
?getDate@Formattable@icu_56@@QBENXZ PROC		; icu_56::Formattable::getDate, COMDAT
; _this$ = ecx
; Line 368
	push	ebp
	mov	ebp, esp
	sub	esp, 204				; 000000ccH
	push	ebx
	push	esi
	push	edi
	push	ecx
	lea	edi, DWORD PTR [ebp-204]
	mov	ecx, 51					; 00000033H
	mov	eax, -858993460				; ccccccccH
	rep stosd
	pop	ecx
	mov	DWORD PTR _this$[ebp], ecx
	mov	eax, DWORD PTR _this$[ebp]
	fld	QWORD PTR [eax+8]
	pop	edi
	pop	esi
	pop	ebx
	mov	esp, ebp
	pop	ebp
	ret	0
?getDate@Formattable@icu_56@@QBENXZ ENDP		; icu_56::Formattable::getDate
_TEXT	ENDS
PUBLIC	?getString@Formattable@icu_56@@QBEAAVUnicodeString@2@AAV32@@Z ; icu_56::Formattable::getString
EXTRN	__imp_??4UnicodeString@icu_56@@QAEAAV01@ABV01@@Z:PROC
; Function compile flags: /Odtp /RTCsu /ZI
;	COMDAT ?getString@Formattable@icu_56@@QBEAAVUnicodeString@2@AAV32@@Z
_TEXT	SEGMENT
_this$ = -8						; size = 4
_result$ = 8						; size = 4
?getString@Formattable@icu_56@@QBEAAVUnicodeString@2@AAV32@@Z PROC ; icu_56::Formattable::getString, COMDAT
; _this$ = ecx
; Line 388
	push	ebp
	mov	ebp, esp
	sub	esp, 204				; 000000ccH
	push	ebx
	push	esi
	push	edi
	push	ecx
	lea	edi, DWORD PTR [ebp-204]
	mov	ecx, 51					; 00000033H
	mov	eax, -858993460				; ccccccccH
	rep stosd
	pop	ecx
	mov	DWORD PTR _this$[ebp], ecx
	mov	esi, esp
	mov	eax, DWORD PTR _this$[ebp]
	mov	ecx, DWORD PTR [eax+8]
	push	ecx
	mov	ecx, DWORD PTR _result$[ebp]
	call	DWORD PTR __imp_??4UnicodeString@icu_56@@QAEAAV01@ABV01@@Z
	cmp	esi, esp
	call	__RTC_CheckEsp
	mov	eax, DWORD PTR _result$[ebp]
	pop	edi
	pop	esi
	pop	ebx
	add	esp, 204				; 000000ccH
	cmp	ebp, esp
	call	__RTC_CheckEsp
	mov	esp, ebp
	pop	ebp
	ret	4
?getString@Formattable@icu_56@@QBEAAVUnicodeString@2@AAV32@@Z ENDP ; icu_56::Formattable::getString
_TEXT	ENDS
PUBLIC	?getArray@Formattable@icu_56@@QBEPBV12@AAH@Z	; icu_56::Formattable::getArray
; Function compile flags: /Odtp /RTCsu /ZI
;	COMDAT ?getArray@Formattable@icu_56@@QBEPBV12@AAH@Z
_TEXT	SEGMENT
_this$ = -8						; size = 4
_count$ = 8						; size = 4
?getArray@Formattable@icu_56@@QBEPBV12@AAH@Z PROC	; icu_56::Formattable::getArray, COMDAT
; _this$ = ecx
; Line 446
	push	ebp
	mov	ebp, esp
	sub	esp, 204				; 000000ccH
	push	ebx
	push	esi
	push	edi
	push	ecx
	lea	edi, DWORD PTR [ebp-204]
	mov	ecx, 51					; 00000033H
	mov	eax, -858993460				; ccccccccH
	rep stosd
	pop	ecx
	mov	DWORD PTR _this$[ebp], ecx
	mov	eax, DWORD PTR _count$[ebp]
	mov	ecx, DWORD PTR _this$[ebp]
	mov	edx, DWORD PTR [ecx+12]
	mov	DWORD PTR [eax], edx
	mov	eax, DWORD PTR _this$[ebp]
	mov	eax, DWORD PTR [eax+8]
	pop	edi
	pop	esi
	pop	ebx
	mov	esp, ebp
	pop	ebp
	ret	4
?getArray@Formattable@icu_56@@QBEPBV12@AAH@Z ENDP	; icu_56::Formattable::getArray
_TEXT	ENDS
PUBLIC	??AFormattable@icu_56@@QAEAAV01@H@Z		; icu_56::Formattable::operator[]
; Function compile flags: /Odtp /RTCsu /ZI
;	COMDAT ??AFormattable@icu_56@@QAEAAV01@H@Z
_TEXT	SEGMENT
_this$ = -8						; size = 4
_index$ = 8						; size = 4
??AFormattable@icu_56@@QAEAAV01@H@Z PROC		; icu_56::Formattable::operator[], COMDAT
; _this$ = ecx
; Line 467
	push	ebp
	mov	ebp, esp
	sub	esp, 204				; 000000ccH
	push	ebx
	push	esi
	push	edi
	push	ecx
	lea	edi, DWORD PTR [ebp-204]
	mov	ecx, 51					; 00000033H
	mov	eax, -858993460				; ccccccccH
	rep stosd
	pop	ecx
	mov	DWORD PTR _this$[ebp], ecx
	mov	eax, DWORD PTR _index$[ebp]
	imul	eax, 224				; 000000e0H
	mov	ecx, DWORD PTR _this$[ebp]
	add	eax, DWORD PTR [ecx+8]
	pop	edi
	pop	esi
	pop	ebx
	mov	esp, ebp
	pop	ebp
	ret	4
??AFormattable@icu_56@@QAEAAV01@H@Z ENDP		; icu_56::Formattable::operator[]
_TEXT	ENDS
PUBLIC	?getDigitList@Formattable@icu_56@@QBEPAVDigitList@2@XZ ; icu_56::Formattable::getDigitList
; Function compile flags: /Odtp /RTCsu /ZI
;	COMDAT ?getDigitList@Formattable@icu_56@@QBEPAVDigitList@2@XZ
_TEXT	SEGMENT
_this$ = -8						; size = 4
?getDigitList@Formattable@icu_56@@QBEPAVDigitList@2@XZ PROC ; icu_56::Formattable::getDigitList, COMDAT
; _this$ = ecx
; Line 654
	push	ebp
	mov	ebp, esp
	sub	esp, 204				; 000000ccH
	push	ebx
	push	esi
	push	edi
	push	ecx
	lea	edi, DWORD PTR [ebp-204]
	mov	ecx, 51					; 00000033H
	mov	eax, -858993460				; ccccccccH
	rep stosd
	pop	ecx
	mov	DWORD PTR _this$[ebp], ecx
	mov	eax, DWORD PTR _this$[ebp]
	mov	eax, DWORD PTR [eax+20]
	pop	edi
	pop	esi
	pop	ebx
	mov	esp, ebp
	pop	ebp
	ret	0
?getDigitList@Formattable@icu_56@@QBEPAVDigitList@2@XZ ENDP ; icu_56::Formattable::getDigitList
_TEXT	ENDS
PUBLIC	__real@0000000000000000
PUBLIC	?getDate@Formattable@icu_56@@QBENAAW4UErrorCode@@@Z ; icu_56::Formattable::getDate
;	COMDAT __real@0000000000000000
CONST	SEGMENT
__real@0000000000000000 DQ 00000000000000000r	; 0
; Function compile flags: /Odtp /RTCsu /ZI
CONST	ENDS
;	COMDAT ?getDate@Formattable@icu_56@@QBENAAW4UErrorCode@@@Z
_TEXT	SEGMENT
_this$ = -8						; size = 4
_status$ = 8						; size = 4
?getDate@Formattable@icu_56@@QBENAAW4UErrorCode@@@Z PROC ; icu_56::Formattable::getDate, COMDAT
; _this$ = ecx
; Line 715
	push	ebp
	mov	ebp, esp
	sub	esp, 204				; 000000ccH
	push	ebx
	push	esi
	push	edi
	push	ecx
	lea	edi, DWORD PTR [ebp-204]
	mov	ecx, 51					; 00000033H
	mov	eax, -858993460				; ccccccccH
	rep stosd
	pop	ecx
	mov	DWORD PTR _this$[ebp], ecx
; Line 716
	mov	eax, DWORD PTR _this$[ebp]
	cmp	DWORD PTR [eax+152], 0
	je	SHORT $LN2@getDate
; Line 717
	mov	eax, DWORD PTR _status$[ebp]
	mov	ecx, DWORD PTR [eax]
	push	ecx
	call	?U_SUCCESS@@YACW4UErrorCode@@@Z		; U_SUCCESS
	add	esp, 4
	movsx	edx, al
	test	edx, edx
	je	SHORT $LN1@getDate
; Line 718
	mov	eax, DWORD PTR _status$[ebp]
	mov	DWORD PTR [eax], 3
$LN1@getDate:
; Line 720
	fldz
	jmp	SHORT $LN3@getDate
$LN2@getDate:
; Line 722
	mov	eax, DWORD PTR _this$[ebp]
	fld	QWORD PTR [eax+8]
$LN3@getDate:
; Line 723
	pop	edi
	pop	esi
	pop	ebx
	add	esp, 204				; 000000ccH
	cmp	ebp, esp
	call	__RTC_CheckEsp
	mov	esp, ebp
	pop	ebp
	ret	4
?getDate@Formattable@icu_56@@QBENAAW4UErrorCode@@@Z ENDP ; icu_56::Formattable::getDate
; Function compile flags: /Odtp /RTCsu /ZI
_TEXT	ENDS
;	COMDAT ?U_SUCCESS@@YACW4UErrorCode@@@Z
_TEXT	SEGMENT
_code$ = 8						; size = 4
?U_SUCCESS@@YACW4UErrorCode@@@Z PROC			; U_SUCCESS, COMDAT
; File d:\mozilla\intl\icu\include\unicode\utypes.h
; Line 699
	push	ebp
	mov	ebp, esp
	sub	esp, 192				; 000000c0H
	push	ebx
	push	esi
	push	edi
	lea	edi, DWORD PTR [ebp-192]
	mov	ecx, 48					; 00000030H
	mov	eax, -858993460				; ccccccccH
	rep stosd
	cmp	DWORD PTR _code$[ebp], 0
	setle	al
	pop	edi
	pop	esi
	pop	ebx
	mov	esp, ebp
	pop	ebp
	ret	0
?U_SUCCESS@@YACW4UErrorCode@@@Z ENDP			; U_SUCCESS
_TEXT	ENDS
PUBLIC	?getString@Formattable@icu_56@@QBEABVUnicodeString@2@XZ ; icu_56::Formattable::getString
; Function compile flags: /Odtp /RTCsu /ZI
;	COMDAT ?getString@Formattable@icu_56@@QBEABVUnicodeString@2@XZ
_TEXT	SEGMENT
_this$ = -8						; size = 4
?getString@Formattable@icu_56@@QBEABVUnicodeString@2@XZ PROC ; icu_56::Formattable::getString, COMDAT
; _this$ = ecx
; File d:\mozilla\intl\icu\source\i18n\unicode\fmtable.h
; Line 725
	push	ebp
	mov	ebp, esp
	sub	esp, 204				; 000000ccH
	push	ebx
	push	esi
	push	edi
	push	ecx
	lea	edi, DWORD PTR [ebp-204]
	mov	ecx, 51					; 00000033H
	mov	eax, -858993460				; ccccccccH
	rep stosd
	pop	ecx
	mov	DWORD PTR _this$[ebp], ecx
; Line 726
	mov	eax, DWORD PTR _this$[ebp]
	mov	eax, DWORD PTR [eax+8]
; Line 727
	pop	edi
	pop	esi
	pop	ebx
	mov	esp, ebp
	pop	ebp
	ret	0
?getString@Formattable@icu_56@@QBEABVUnicodeString@2@XZ ENDP ; icu_56::Formattable::getString
_TEXT	ENDS
PUBLIC	?getString@Formattable@icu_56@@QAEAAVUnicodeString@2@XZ ; icu_56::Formattable::getString
; Function compile flags: /Odtp /RTCsu /ZI
;	COMDAT ?getString@Formattable@icu_56@@QAEAAVUnicodeString@2@XZ
_TEXT	SEGMENT
_this$ = -8						; size = 4
?getString@Formattable@icu_56@@QAEAAVUnicodeString@2@XZ PROC ; icu_56::Formattable::getString, COMDAT
; _this$ = ecx
; Line 729
	push	ebp
	mov	ebp, esp
	sub	esp, 204				; 000000ccH
	push	ebx
	push	esi
	push	edi
	push	ecx
	lea	edi, DWORD PTR [ebp-204]
	mov	ecx, 51					; 00000033H
	mov	eax, -858993460				; ccccccccH
	rep stosd
	pop	ecx
	mov	DWORD PTR _this$[ebp], ecx
; Line 730
	mov	eax, DWORD PTR _this$[ebp]
	mov	eax, DWORD PTR [eax+8]
; Line 731
	pop	edi
	pop	esi
	pop	ebx
	mov	esp, ebp
	pop	ebp
	ret	0
?getString@Formattable@icu_56@@QAEAAVUnicodeString@2@XZ ENDP ; icu_56::Formattable::getString
_TEXT	ENDS
PUBLIC	?getLong@Formattable@icu_56@@QBEHPAW4UErrorCode@@@Z ; icu_56::Formattable::getLong
EXTRN	?getLong@Formattable@icu_56@@QBEHAAW4UErrorCode@@@Z:PROC ; icu_56::Formattable::getLong
; Function compile flags: /Odtp /RTCsu /ZI
;	COMDAT ?getLong@Formattable@icu_56@@QBEHPAW4UErrorCode@@@Z
_TEXT	SEGMENT
_this$ = -8						; size = 4
_status$ = 8						; size = 4
?getLong@Formattable@icu_56@@QBEHPAW4UErrorCode@@@Z PROC ; icu_56::Formattable::getLong, COMDAT
; _this$ = ecx
; Line 734
	push	ebp
	mov	ebp, esp
	sub	esp, 204				; 000000ccH
	push	ebx
	push	esi
	push	edi
	push	ecx
	lea	edi, DWORD PTR [ebp-204]
	mov	ecx, 51					; 00000033H
	mov	eax, -858993460				; ccccccccH
	rep stosd
	pop	ecx
	mov	DWORD PTR _this$[ebp], ecx
; Line 735
	mov	eax, DWORD PTR _status$[ebp]
	push	eax
	mov	ecx, DWORD PTR _this$[ebp]
	call	?getLong@Formattable@icu_56@@QBEHAAW4UErrorCode@@@Z ; icu_56::Formattable::getLong
; Line 736
	pop	edi
	pop	esi
	pop	ebx
	add	esp, 204				; 000000ccH
	cmp	ebp, esp
	call	__RTC_CheckEsp
	mov	esp, ebp
	pop	ebp
	ret	4
?getLong@Formattable@icu_56@@QBEHPAW4UErrorCode@@@Z ENDP ; icu_56::Formattable::getLong
_TEXT	ENDS
PUBLIC	?toUFormattable@Formattable@icu_56@@QAEPAPAXXZ	; icu_56::Formattable::toUFormattable
; Function compile flags: /Odtp /RTCsu /ZI
;	COMDAT ?toUFormattable@Formattable@icu_56@@QAEPAPAXXZ
_TEXT	SEGMENT
_this$ = -8						; size = 4
?toUFormattable@Formattable@icu_56@@QAEPAPAXXZ PROC	; icu_56::Formattable::toUFormattable, COMDAT
; _this$ = ecx
; Line 739
	push	ebp
	mov	ebp, esp
	sub	esp, 204				; 000000ccH
	push	ebx
	push	esi
	push	edi
	push	ecx
	lea	edi, DWORD PTR [ebp-204]
	mov	ecx, 51					; 00000033H
	mov	eax, -858993460				; ccccccccH
	rep stosd
	pop	ecx
	mov	DWORD PTR _this$[ebp], ecx
; Line 740
	mov	eax, DWORD PTR _this$[ebp]
; Line 741
	pop	edi
	pop	esi
	pop	ebx
	mov	esp, ebp
	pop	ebp
	ret	0
?toUFormattable@Formattable@icu_56@@QAEPAPAXXZ ENDP	; icu_56::Formattable::toUFormattable
_TEXT	ENDS
PUBLIC	?toUFormattable@Formattable@icu_56@@QBEPBQAXXZ	; icu_56::Formattable::toUFormattable
; Function compile flags: /Odtp /RTCsu /ZI
;	COMDAT ?toUFormattable@Formattable@icu_56@@QBEPBQAXXZ
_TEXT	SEGMENT
_this$ = -8						; size = 4
?toUFormattable@Formattable@icu_56@@QBEPBQAXXZ PROC	; icu_56::Formattable::toUFormattable, COMDAT
; _this$ = ecx
; Line 743
	push	ebp
	mov	ebp, esp
	sub	esp, 204				; 000000ccH
	push	ebx
	push	esi
	push	edi
	push	ecx
	lea	edi, DWORD PTR [ebp-204]
	mov	ecx, 51					; 00000033H
	mov	eax, -858993460				; ccccccccH
	rep stosd
	pop	ecx
	mov	DWORD PTR _this$[ebp], ecx
; Line 744
	mov	eax, DWORD PTR _this$[ebp]
; Line 745
	pop	edi
	pop	esi
	pop	ebx
	mov	esp, ebp
	pop	ebp
	ret	0
?toUFormattable@Formattable@icu_56@@QBEPBQAXXZ ENDP	; icu_56::Formattable::toUFormattable
_TEXT	ENDS
PUBLIC	?fromUFormattable@Formattable@icu_56@@SAPAV12@PAPAX@Z ; icu_56::Formattable::fromUFormattable
; Function compile flags: /Odtp /RTCsu /ZI
;	COMDAT ?fromUFormattable@Formattable@icu_56@@SAPAV12@PAPAX@Z
_TEXT	SEGMENT
_fmt$ = 8						; size = 4
?fromUFormattable@Formattable@icu_56@@SAPAV12@PAPAX@Z PROC ; icu_56::Formattable::fromUFormattable, COMDAT
; Line 747
	push	ebp
	mov	ebp, esp
	sub	esp, 192				; 000000c0H
	push	ebx
	push	esi
	push	edi
	lea	edi, DWORD PTR [ebp-192]
	mov	ecx, 48					; 00000030H
	mov	eax, -858993460				; ccccccccH
	rep stosd
; Line 748
	mov	eax, DWORD PTR _fmt$[ebp]
; Line 749
	pop	edi
	pop	esi
	pop	ebx
	mov	esp, ebp
	pop	ebp
	ret	0
?fromUFormattable@Formattable@icu_56@@SAPAV12@PAPAX@Z ENDP ; icu_56::Formattable::fromUFormattable
_TEXT	ENDS
PUBLIC	?fromUFormattable@Formattable@icu_56@@SAPBV12@PBQAX@Z ; icu_56::Formattable::fromUFormattable
; Function compile flags: /Odtp /RTCsu /ZI
;	COMDAT ?fromUFormattable@Formattable@icu_56@@SAPBV12@PBQAX@Z
_TEXT	SEGMENT
_fmt$ = 8						; size = 4
?fromUFormattable@Formattable@icu_56@@SAPBV12@PBQAX@Z PROC ; icu_56::Formattable::fromUFormattable, COMDAT
; Line 751
	push	ebp
	mov	ebp, esp
	sub	esp, 192				; 000000c0H
	push	ebx
	push	esi
	push	edi
	lea	edi, DWORD PTR [ebp-192]
	mov	ecx, 48					; 00000030H
	mov	eax, -858993460				; ccccccccH
	rep stosd
; Line 752
	mov	eax, DWORD PTR _fmt$[ebp]
; Line 753
	pop	edi
	pop	esi
	pop	ebx
	mov	esp, ebp
	pop	ebp
	ret	0
?fromUFormattable@Formattable@icu_56@@SAPBV12@PBQAX@Z ENDP ; icu_56::Formattable::fromUFormattable
_TEXT	ENDS
PUBLIC	??_7FieldPosition@icu_56@@6B@			; icu_56::FieldPosition::`vftable'
PUBLIC	??0FieldPosition@icu_56@@QAE@XZ			; icu_56::FieldPosition::FieldPosition
PUBLIC	??_R4FieldPosition@icu_56@@6B@			; icu_56::FieldPosition::`RTTI Complete Object Locator'
PUBLIC	??_R0?AVFieldPosition@icu_56@@@8		; icu_56::FieldPosition `RTTI Type Descriptor'
PUBLIC	??_R3FieldPosition@icu_56@@8			; icu_56::FieldPosition::`RTTI Class Hierarchy Descriptor'
PUBLIC	??_R2FieldPosition@icu_56@@8			; icu_56::FieldPosition::`RTTI Base Class Array'
PUBLIC	??_R1A@?0A@EA@FieldPosition@icu_56@@8		; icu_56::FieldPosition::`RTTI Base Class Descriptor at (0,-1,0,64)'
PUBLIC	??_R1A@?0A@EA@UObject@icu_56@@8			; icu_56::UObject::`RTTI Base Class Descriptor at (0,-1,0,64)'
PUBLIC	??_R0?AVUObject@icu_56@@@8			; icu_56::UObject `RTTI Type Descriptor'
PUBLIC	??_R3UObject@icu_56@@8				; icu_56::UObject::`RTTI Class Hierarchy Descriptor'
PUBLIC	??_R2UObject@icu_56@@8				; icu_56::UObject::`RTTI Base Class Array'
PUBLIC	??_R13?0A@EA@UMemory@icu_56@@8			; icu_56::UMemory::`RTTI Base Class Descriptor at (4,-1,0,64)'
PUBLIC	??_R0?AVUMemory@icu_56@@@8			; icu_56::UMemory `RTTI Type Descriptor'
PUBLIC	??_R3UMemory@icu_56@@8				; icu_56::UMemory::`RTTI Class Hierarchy Descriptor'
PUBLIC	??_R2UMemory@icu_56@@8				; icu_56::UMemory::`RTTI Base Class Array'
PUBLIC	??_R1A@?0A@EA@UMemory@icu_56@@8			; icu_56::UMemory::`RTTI Base Class Descriptor at (0,-1,0,64)'
PUBLIC	??_EFieldPosition@icu_56@@UAEPAXI@Z		; icu_56::FieldPosition::`vector deleting destructor'
EXTRN	__imp_??0UObject@icu_56@@QAE@XZ:PROC
EXTRN	??_7type_info@@6B@:QWORD			; type_info::`vftable'
EXTRN	?getDynamicClassID@FieldPosition@icu_56@@UBEPAXXZ:PROC ; icu_56::FieldPosition::getDynamicClassID
;	COMDAT ??_R1A@?0A@EA@UMemory@icu_56@@8
; File d:\mozilla\intl\icu\source\i18n\unicode\fieldpos.h
rdata$r	SEGMENT
??_R1A@?0A@EA@UMemory@icu_56@@8 DD FLAT:??_R0?AVUMemory@icu_56@@@8 ; icu_56::UMemory::`RTTI Base Class Descriptor at (0,-1,0,64)'
	DD	00H
	DD	00H
	DD	0ffffffffH
	DD	00H
	DD	040H
	DD	FLAT:??_R3UMemory@icu_56@@8
rdata$r	ENDS
;	COMDAT ??_R2UMemory@icu_56@@8
rdata$r	SEGMENT
??_R2UMemory@icu_56@@8 DD FLAT:??_R1A@?0A@EA@UMemory@icu_56@@8 ; icu_56::UMemory::`RTTI Base Class Array'
rdata$r	ENDS
;	COMDAT ??_R3UMemory@icu_56@@8
rdata$r	SEGMENT
??_R3UMemory@icu_56@@8 DD 00H				; icu_56::UMemory::`RTTI Class Hierarchy Descriptor'
	DD	00H
	DD	01H
	DD	FLAT:??_R2UMemory@icu_56@@8
rdata$r	ENDS
;	COMDAT ??_R0?AVUMemory@icu_56@@@8
_DATA	SEGMENT
??_R0?AVUMemory@icu_56@@@8 DD FLAT:??_7type_info@@6B@	; icu_56::UMemory `RTTI Type Descriptor'
	DD	00H
	DB	'.?AVUMemory@icu_56@@', 00H
_DATA	ENDS
;	COMDAT ??_R13?0A@EA@UMemory@icu_56@@8
rdata$r	SEGMENT
??_R13?0A@EA@UMemory@icu_56@@8 DD FLAT:??_R0?AVUMemory@icu_56@@@8 ; icu_56::UMemory::`RTTI Base Class Descriptor at (4,-1,0,64)'
	DD	00H
	DD	04H
	DD	0ffffffffH
	DD	00H
	DD	040H
	DD	FLAT:??_R3UMemory@icu_56@@8
rdata$r	ENDS
;	COMDAT ??_R2UObject@icu_56@@8
rdata$r	SEGMENT
??_R2UObject@icu_56@@8 DD FLAT:??_R1A@?0A@EA@UObject@icu_56@@8 ; icu_56::UObject::`RTTI Base Class Array'
	DD	FLAT:??_R13?0A@EA@UMemory@icu_56@@8
rdata$r	ENDS
;	COMDAT ??_R3UObject@icu_56@@8
rdata$r	SEGMENT
??_R3UObject@icu_56@@8 DD 00H				; icu_56::UObject::`RTTI Class Hierarchy Descriptor'
	DD	00H
	DD	02H
	DD	FLAT:??_R2UObject@icu_56@@8
rdata$r	ENDS
;	COMDAT ??_R0?AVUObject@icu_56@@@8
_DATA	SEGMENT
??_R0?AVUObject@icu_56@@@8 DD FLAT:??_7type_info@@6B@	; icu_56::UObject `RTTI Type Descriptor'
	DD	00H
	DB	'.?AVUObject@icu_56@@', 00H
_DATA	ENDS
;	COMDAT ??_R1A@?0A@EA@UObject@icu_56@@8
rdata$r	SEGMENT
??_R1A@?0A@EA@UObject@icu_56@@8 DD FLAT:??_R0?AVUObject@icu_56@@@8 ; icu_56::UObject::`RTTI Base Class Descriptor at (0,-1,0,64)'
	DD	01H
	DD	00H
	DD	0ffffffffH
	DD	00H
	DD	040H
	DD	FLAT:??_R3UObject@icu_56@@8
rdata$r	ENDS
;	COMDAT ??_R1A@?0A@EA@FieldPosition@icu_56@@8
rdata$r	SEGMENT
??_R1A@?0A@EA@FieldPosition@icu_56@@8 DD FLAT:??_R0?AVFieldPosition@icu_56@@@8 ; icu_56::FieldPosition::`RTTI Base Class Descriptor at (0,-1,0,64)'
	DD	02H
	DD	00H
	DD	0ffffffffH
	DD	00H
	DD	040H
	DD	FLAT:??_R3FieldPosition@icu_56@@8
rdata$r	ENDS
;	COMDAT ??_R2FieldPosition@icu_56@@8
rdata$r	SEGMENT
??_R2FieldPosition@icu_56@@8 DD FLAT:??_R1A@?0A@EA@FieldPosition@icu_56@@8 ; icu_56::FieldPosition::`RTTI Base Class Array'
	DD	FLAT:??_R1A@?0A@EA@UObject@icu_56@@8
	DD	FLAT:??_R13?0A@EA@UMemory@icu_56@@8
rdata$r	ENDS
;	COMDAT ??_R3FieldPosition@icu_56@@8
rdata$r	SEGMENT
??_R3FieldPosition@icu_56@@8 DD 00H			; icu_56::FieldPosition::`RTTI Class Hierarchy Descriptor'
	DD	00H
	DD	03H
	DD	FLAT:??_R2FieldPosition@icu_56@@8
rdata$r	ENDS
;	COMDAT ??_R0?AVFieldPosition@icu_56@@@8
_DATA	SEGMENT
??_R0?AVFieldPosition@icu_56@@@8 DD FLAT:??_7type_info@@6B@ ; icu_56::FieldPosition `RTTI Type Descriptor'
	DD	00H
	DB	'.?AVFieldPosition@icu_56@@', 00H
_DATA	ENDS
;	COMDAT ??_R4FieldPosition@icu_56@@6B@
rdata$r	SEGMENT
??_R4FieldPosition@icu_56@@6B@ DD 00H			; icu_56::FieldPosition::`RTTI Complete Object Locator'
	DD	00H
	DD	00H
	DD	FLAT:??_R0?AVFieldPosition@icu_56@@@8
	DD	FLAT:??_R3FieldPosition@icu_56@@8
rdata$r	ENDS
;	COMDAT ??_7FieldPosition@icu_56@@6B@
CONST	SEGMENT
??_7FieldPosition@icu_56@@6B@ DD FLAT:??_R4FieldPosition@icu_56@@6B@ ; icu_56::FieldPosition::`vftable'
	DD	FLAT:??_EFieldPosition@icu_56@@UAEPAXI@Z
	DD	FLAT:?getDynamicClassID@FieldPosition@icu_56@@UBEPAXXZ
; Function compile flags: /Odtp /RTCsu /ZI
CONST	ENDS
;	COMDAT ??0FieldPosition@icu_56@@QAE@XZ
_TEXT	SEGMENT
_this$ = -8						; size = 4
??0FieldPosition@icu_56@@QAE@XZ PROC			; icu_56::FieldPosition::FieldPosition, COMDAT
; _this$ = ecx
; Line 118
	push	ebp
	mov	ebp, esp
	sub	esp, 204				; 000000ccH
	push	ebx
	push	esi
	push	edi
	push	ecx
	lea	edi, DWORD PTR [ebp-204]
	mov	ecx, 51					; 00000033H
	mov	eax, -858993460				; ccccccccH
	rep stosd
	pop	ecx
	mov	DWORD PTR _this$[ebp], ecx
	mov	esi, esp
	mov	ecx, DWORD PTR _this$[ebp]
	call	DWORD PTR __imp_??0UObject@icu_56@@QAE@XZ
	cmp	esi, esp
	call	__RTC_CheckEsp
	mov	eax, DWORD PTR _this$[ebp]
	mov	DWORD PTR [eax], OFFSET ??_7FieldPosition@icu_56@@6B@
	mov	eax, DWORD PTR _this$[ebp]
	mov	DWORD PTR [eax+4], -1
	mov	eax, DWORD PTR _this$[ebp]
	mov	DWORD PTR [eax+8], 0
	mov	eax, DWORD PTR _this$[ebp]
	mov	DWORD PTR [eax+12], 0
	mov	eax, DWORD PTR _this$[ebp]
	pop	edi
	pop	esi
	pop	ebx
	add	esp, 204				; 000000ccH
	cmp	ebp, esp
	call	__RTC_CheckEsp
	mov	esp, ebp
	pop	ebp
	ret	0
??0FieldPosition@icu_56@@QAE@XZ ENDP			; icu_56::FieldPosition::FieldPosition
_TEXT	ENDS
PUBLIC	??0FieldPosition@icu_56@@QAE@H@Z		; icu_56::FieldPosition::FieldPosition
; Function compile flags: /Odtp /RTCsu /ZI
;	COMDAT ??0FieldPosition@icu_56@@QAE@H@Z
_TEXT	SEGMENT
_this$ = -8						; size = 4
_field$ = 8						; size = 4
??0FieldPosition@icu_56@@QAE@H@Z PROC			; icu_56::FieldPosition::FieldPosition, COMDAT
; _this$ = ecx
; Line 132
	push	ebp
	mov	ebp, esp
	sub	esp, 204				; 000000ccH
	push	ebx
	push	esi
	push	edi
	push	ecx
	lea	edi, DWORD PTR [ebp-204]
	mov	ecx, 51					; 00000033H
	mov	eax, -858993460				; ccccccccH
	rep stosd
	pop	ecx
	mov	DWORD PTR _this$[ebp], ecx
	mov	esi, esp
	mov	ecx, DWORD PTR _this$[ebp]
	call	DWORD PTR __imp_??0UObject@icu_56@@QAE@XZ
	cmp	esi, esp
	call	__RTC_CheckEsp
	mov	eax, DWORD PTR _this$[ebp]
	mov	DWORD PTR [eax], OFFSET ??_7FieldPosition@icu_56@@6B@
	mov	eax, DWORD PTR _this$[ebp]
	mov	ecx, DWORD PTR _field$[ebp]
	mov	DWORD PTR [eax+4], ecx
	mov	eax, DWORD PTR _this$[ebp]
	mov	DWORD PTR [eax+8], 0
	mov	eax, DWORD PTR _this$[ebp]
	mov	DWORD PTR [eax+12], 0
	mov	eax, DWORD PTR _this$[ebp]
	pop	edi
	pop	esi
	pop	ebx
	add	esp, 204				; 000000ccH
	cmp	ebp, esp
	call	__RTC_CheckEsp
	mov	esp, ebp
	pop	ebp
	ret	4
??0FieldPosition@icu_56@@QAE@H@Z ENDP			; icu_56::FieldPosition::FieldPosition
_TEXT	ENDS
PUBLIC	??0FieldPosition@icu_56@@QAE@ABV01@@Z		; icu_56::FieldPosition::FieldPosition
EXTRN	__imp_??0UObject@icu_56@@QAE@ABV01@@Z:PROC
; Function compile flags: /Odtp /RTCsu /ZI
;	COMDAT ??0FieldPosition@icu_56@@QAE@ABV01@@Z
_TEXT	SEGMENT
_this$ = -8						; size = 4
_copy$ = 8						; size = 4
??0FieldPosition@icu_56@@QAE@ABV01@@Z PROC		; icu_56::FieldPosition::FieldPosition, COMDAT
; _this$ = ecx
; Line 140
	push	ebp
	mov	ebp, esp
	sub	esp, 204				; 000000ccH
	push	ebx
	push	esi
	push	edi
	push	ecx
	lea	edi, DWORD PTR [ebp-204]
	mov	ecx, 51					; 00000033H
	mov	eax, -858993460				; ccccccccH
	rep stosd
	pop	ecx
	mov	DWORD PTR _this$[ebp], ecx
	mov	esi, esp
	mov	eax, DWORD PTR _copy$[ebp]
	push	eax
	mov	ecx, DWORD PTR _this$[ebp]
	call	DWORD PTR __imp_??0UObject@icu_56@@QAE@ABV01@@Z
	cmp	esi, esp
	call	__RTC_CheckEsp
	mov	eax, DWORD PTR _this$[ebp]
	mov	DWORD PTR [eax], OFFSET ??_7FieldPosition@icu_56@@6B@
	mov	eax, DWORD PTR _this$[ebp]
	mov	ecx, DWORD PTR _copy$[ebp]
	mov	edx, DWORD PTR [ecx+4]
	mov	DWORD PTR [eax+4], edx
	mov	eax, DWORD PTR _this$[ebp]
	mov	ecx, DWORD PTR _copy$[ebp]
	mov	edx, DWORD PTR [ecx+8]
	mov	DWORD PTR [eax+8], edx
	mov	eax, DWORD PTR _this$[ebp]
	mov	ecx, DWORD PTR _copy$[ebp]
	mov	edx, DWORD PTR [ecx+12]
	mov	DWORD PTR [eax+12], edx
	mov	eax, DWORD PTR _this$[ebp]
	pop	edi
	pop	esi
	pop	ebx
	add	esp, 204				; 000000ccH
	cmp	ebp, esp
	call	__RTC_CheckEsp
	mov	esp, ebp
	pop	ebp
	ret	4
??0FieldPosition@icu_56@@QAE@ABV01@@Z ENDP		; icu_56::FieldPosition::FieldPosition
_TEXT	ENDS
PUBLIC	?getField@FieldPosition@icu_56@@QBEHXZ		; icu_56::FieldPosition::getField
; Function compile flags: /Odtp /RTCsu /ZI
;	COMDAT ?getField@FieldPosition@icu_56@@QBEHXZ
_TEXT	SEGMENT
_this$ = -8						; size = 4
?getField@FieldPosition@icu_56@@QBEHXZ PROC		; icu_56::FieldPosition::getField, COMDAT
; _this$ = ecx
; Line 190
	push	ebp
	mov	ebp, esp
	sub	esp, 204				; 000000ccH
	push	ebx
	push	esi
	push	edi
	push	ecx
	lea	edi, DWORD PTR [ebp-204]
	mov	ecx, 51					; 00000033H
	mov	eax, -858993460				; ccccccccH
	rep stosd
	pop	ecx
	mov	DWORD PTR _this$[ebp], ecx
	mov	eax, DWORD PTR _this$[ebp]
	mov	eax, DWORD PTR [eax+4]
	pop	edi
	pop	esi
	pop	ebx
	mov	esp, ebp
	pop	ebp
	ret	0
?getField@FieldPosition@icu_56@@QBEHXZ ENDP		; icu_56::FieldPosition::getField
_TEXT	ENDS
PUBLIC	?getBeginIndex@FieldPosition@icu_56@@QBEHXZ	; icu_56::FieldPosition::getBeginIndex
; Function compile flags: /Odtp /RTCsu /ZI
;	COMDAT ?getBeginIndex@FieldPosition@icu_56@@QBEHXZ
_TEXT	SEGMENT
_this$ = -8						; size = 4
?getBeginIndex@FieldPosition@icu_56@@QBEHXZ PROC	; icu_56::FieldPosition::getBeginIndex, COMDAT
; _this$ = ecx
; Line 197
	push	ebp
	mov	ebp, esp
	sub	esp, 204				; 000000ccH
	push	ebx
	push	esi
	push	edi
	push	ecx
	lea	edi, DWORD PTR [ebp-204]
	mov	ecx, 51					; 00000033H
	mov	eax, -858993460				; ccccccccH
	rep stosd
	pop	ecx
	mov	DWORD PTR _this$[ebp], ecx
	mov	eax, DWORD PTR _this$[ebp]
	mov	eax, DWORD PTR [eax+8]
	pop	edi
	pop	esi
	pop	ebx
	mov	esp, ebp
	pop	ebp
	ret	0
?getBeginIndex@FieldPosition@icu_56@@QBEHXZ ENDP	; icu_56::FieldPosition::getBeginIndex
_TEXT	ENDS
PUBLIC	?getEndIndex@FieldPosition@icu_56@@QBEHXZ	; icu_56::FieldPosition::getEndIndex
; Function compile flags: /Odtp /RTCsu /ZI
;	COMDAT ?getEndIndex@FieldPosition@icu_56@@QBEHXZ
_TEXT	SEGMENT
_this$ = -8						; size = 4
?getEndIndex@FieldPosition@icu_56@@QBEHXZ PROC		; icu_56::FieldPosition::getEndIndex, COMDAT
; _this$ = ecx
; Line 206
	push	ebp
	mov	ebp, esp
	sub	esp, 204				; 000000ccH
	push	ebx
	push	esi
	push	edi
	push	ecx
	lea	edi, DWORD PTR [ebp-204]
	mov	ecx, 51					; 00000033H
	mov	eax, -858993460				; ccccccccH
	rep stosd
	pop	ecx
	mov	DWORD PTR _this$[ebp], ecx
	mov	eax, DWORD PTR _this$[ebp]
	mov	eax, DWORD PTR [eax+12]
	pop	edi
	pop	esi
	pop	ebx
	mov	esp, ebp
	pop	ebp
	ret	0
?getEndIndex@FieldPosition@icu_56@@QBEHXZ ENDP		; icu_56::FieldPosition::getEndIndex
_TEXT	ENDS
PUBLIC	?setField@FieldPosition@icu_56@@QAEXH@Z		; icu_56::FieldPosition::setField
; Function compile flags: /Odtp /RTCsu /ZI
;	COMDAT ?setField@FieldPosition@icu_56@@QAEXH@Z
_TEXT	SEGMENT
_this$ = -8						; size = 4
_f$ = 8							; size = 4
?setField@FieldPosition@icu_56@@QAEXH@Z PROC		; icu_56::FieldPosition::setField, COMDAT
; _this$ = ecx
; Line 213
	push	ebp
	mov	ebp, esp
	sub	esp, 204				; 000000ccH
	push	ebx
	push	esi
	push	edi
	push	ecx
	lea	edi, DWORD PTR [ebp-204]
	mov	ecx, 51					; 00000033H
	mov	eax, -858993460				; ccccccccH
	rep stosd
	pop	ecx
	mov	DWORD PTR _this$[ebp], ecx
	mov	eax, DWORD PTR _this$[ebp]
	mov	ecx, DWORD PTR _f$[ebp]
	mov	DWORD PTR [eax+4], ecx
	pop	edi
	pop	esi
	pop	ebx
	mov	esp, ebp
	pop	ebp
	ret	4
?setField@FieldPosition@icu_56@@QAEXH@Z ENDP		; icu_56::FieldPosition::setField
_TEXT	ENDS
PUBLIC	?setBeginIndex@FieldPosition@icu_56@@QAEXH@Z	; icu_56::FieldPosition::setBeginIndex
; Function compile flags: /Odtp /RTCsu /ZI
;	COMDAT ?setBeginIndex@FieldPosition@icu_56@@QAEXH@Z
_TEXT	SEGMENT
_this$ = -8						; size = 4
_bi$ = 8						; size = 4
?setBeginIndex@FieldPosition@icu_56@@QAEXH@Z PROC	; icu_56::FieldPosition::setBeginIndex, COMDAT
; _this$ = ecx
; Line 220
	push	ebp
	mov	ebp, esp
	sub	esp, 204				; 000000ccH
	push	ebx
	push	esi
	push	edi
	push	ecx
	lea	edi, DWORD PTR [ebp-204]
	mov	ecx, 51					; 00000033H
	mov	eax, -858993460				; ccccccccH
	rep stosd
	pop	ecx
	mov	DWORD PTR _this$[ebp], ecx
	mov	eax, DWORD PTR _this$[ebp]
	mov	ecx, DWORD PTR _bi$[ebp]
	mov	DWORD PTR [eax+8], ecx
	pop	edi
	pop	esi
	pop	ebx
	mov	esp, ebp
	pop	ebp
	ret	4
?setBeginIndex@FieldPosition@icu_56@@QAEXH@Z ENDP	; icu_56::FieldPosition::setBeginIndex
_TEXT	ENDS
PUBLIC	?setEndIndex@FieldPosition@icu_56@@QAEXH@Z	; icu_56::FieldPosition::setEndIndex
; Function compile flags: /Odtp /RTCsu /ZI
;	COMDAT ?setEndIndex@FieldPosition@icu_56@@QAEXH@Z
_TEXT	SEGMENT
_this$ = -8						; size = 4
_ei$ = 8						; size = 4
?setEndIndex@FieldPosition@icu_56@@QAEXH@Z PROC		; icu_56::FieldPosition::setEndIndex, COMDAT
; _this$ = ecx
; Line 227
	push	ebp
	mov	ebp, esp
	sub	esp, 204				; 000000ccH
	push	ebx
	push	esi
	push	edi
	push	ecx
	lea	edi, DWORD PTR [ebp-204]
	mov	ecx, 51					; 00000033H
	mov	eax, -858993460				; ccccccccH
	rep stosd
	pop	ecx
	mov	DWORD PTR _this$[ebp], ecx
	mov	eax, DWORD PTR _this$[ebp]
	mov	ecx, DWORD PTR _ei$[ebp]
	mov	DWORD PTR [eax+12], ecx
	pop	edi
	pop	esi
	pop	ebx
	mov	esp, ebp
	pop	ebp
	ret	4
?setEndIndex@FieldPosition@icu_56@@QAEXH@Z ENDP		; icu_56::FieldPosition::setEndIndex
_TEXT	ENDS
PUBLIC	??_GFieldPosition@icu_56@@UAEPAXI@Z		; icu_56::FieldPosition::`scalar deleting destructor'
EXTRN	__imp_??3UMemory@icu_56@@SAXPAX@Z:PROC
EXTRN	??1FieldPosition@icu_56@@UAE@XZ:PROC		; icu_56::FieldPosition::~FieldPosition
; Function compile flags: /Odtp /RTCsu /ZI
;	COMDAT ??_GFieldPosition@icu_56@@UAEPAXI@Z
_TEXT	SEGMENT
_this$ = -8						; size = 4
___flags$ = 8						; size = 4
??_GFieldPosition@icu_56@@UAEPAXI@Z PROC		; icu_56::FieldPosition::`scalar deleting destructor', COMDAT
; _this$ = ecx
	push	ebp
	mov	ebp, esp
	sub	esp, 204				; 000000ccH
	push	ebx
	push	esi
	push	edi
	push	ecx
	lea	edi, DWORD PTR [ebp-204]
	mov	ecx, 51					; 00000033H
	mov	eax, -858993460				; ccccccccH
	rep stosd
	pop	ecx
	mov	DWORD PTR _this$[ebp], ecx
	mov	ecx, DWORD PTR _this$[ebp]
	call	??1FieldPosition@icu_56@@UAE@XZ		; icu_56::FieldPosition::~FieldPosition
	mov	eax, DWORD PTR ___flags$[ebp]
	and	eax, 1
	je	SHORT $LN1@scalar
	mov	esi, esp
	mov	eax, DWORD PTR _this$[ebp]
	push	eax
	call	DWORD PTR __imp_??3UMemory@icu_56@@SAXPAX@Z
	add	esp, 4
	cmp	esi, esp
	call	__RTC_CheckEsp
$LN1@scalar:
	mov	eax, DWORD PTR _this$[ebp]
	pop	edi
	pop	esi
	pop	ebx
	add	esp, 204				; 000000ccH
	cmp	ebp, esp
	call	__RTC_CheckEsp
	mov	esp, ebp
	pop	ebp
	ret	4
??_GFieldPosition@icu_56@@UAEPAXI@Z ENDP		; icu_56::FieldPosition::`scalar deleting destructor'
_TEXT	ENDS
EXTRN	__imp_??_VUMemory@icu_56@@SAXPAX@Z:PROC
EXTRN	??_M@YGXPAXIHP6EX0@Z@Z:PROC			; `eh vector destructor iterator'
; Function compile flags: /Odtp /RTCsu /ZI
;	COMDAT ??_EFieldPosition@icu_56@@UAEPAXI@Z
_TEXT	SEGMENT
_this$ = -8						; size = 4
___flags$ = 8						; size = 4
??_EFieldPosition@icu_56@@UAEPAXI@Z PROC		; icu_56::FieldPosition::`vector deleting destructor', COMDAT
; _this$ = ecx
	push	ebp
	mov	ebp, esp
	sub	esp, 204				; 000000ccH
	push	ebx
	push	esi
	push	edi
	push	ecx
	lea	edi, DWORD PTR [ebp-204]
	mov	ecx, 51					; 00000033H
	mov	eax, -858993460				; ccccccccH
	rep stosd
	pop	ecx
	mov	DWORD PTR _this$[ebp], ecx
	mov	eax, DWORD PTR ___flags$[ebp]
	and	eax, 2
	je	SHORT $LN3@vector
	push	OFFSET ??1FieldPosition@icu_56@@UAE@XZ	; icu_56::FieldPosition::~FieldPosition
	mov	eax, DWORD PTR _this$[ebp]
	mov	ecx, DWORD PTR [eax-4]
	push	ecx
	push	16					; 00000010H
	mov	edx, DWORD PTR _this$[ebp]
	push	edx
	call	??_M@YGXPAXIHP6EX0@Z@Z
	mov	eax, DWORD PTR ___flags$[ebp]
	and	eax, 1
	je	SHORT $LN2@vector
	mov	eax, DWORD PTR _this$[ebp]
	sub	eax, 4
	mov	esi, esp
	push	eax
	call	DWORD PTR __imp_??_VUMemory@icu_56@@SAXPAX@Z
	add	esp, 4
	cmp	esi, esp
	call	__RTC_CheckEsp
$LN2@vector:
	mov	eax, DWORD PTR _this$[ebp]
	sub	eax, 4
	jmp	SHORT $LN4@vector
$LN3@vector:
	mov	ecx, DWORD PTR _this$[ebp]
	call	??1FieldPosition@icu_56@@UAE@XZ		; icu_56::FieldPosition::~FieldPosition
	mov	eax, DWORD PTR ___flags$[ebp]
	and	eax, 1
	je	SHORT $LN1@vector
	mov	esi, esp
	mov	eax, DWORD PTR _this$[ebp]
	push	eax
	call	DWORD PTR __imp_??3UMemory@icu_56@@SAXPAX@Z
	add	esp, 4
	cmp	esi, esp
	call	__RTC_CheckEsp
$LN1@vector:
	mov	eax, DWORD PTR _this$[ebp]
$LN4@vector:
	pop	edi
	pop	esi
	pop	ebx
	add	esp, 204				; 000000ccH
	cmp	ebp, esp
	call	__RTC_CheckEsp
	mov	esp, ebp
	pop	ebp
	ret	4
??_EFieldPosition@icu_56@@UAEPAXI@Z ENDP		; icu_56::FieldPosition::`vector deleting destructor'
_TEXT	ENDS
PUBLIC	??4FieldPosition@icu_56@@QAEAAV01@ABV01@@Z	; icu_56::FieldPosition::operator=
; Function compile flags: /Odtp /RTCsu /ZI
;	COMDAT ??4FieldPosition@icu_56@@QAEAAV01@ABV01@@Z
_TEXT	SEGMENT
_this$ = -8						; size = 4
_copy$ = 8						; size = 4
??4FieldPosition@icu_56@@QAEAAV01@ABV01@@Z PROC		; icu_56::FieldPosition::operator=, COMDAT
; _this$ = ecx
; Line 265
	push	ebp
	mov	ebp, esp
	sub	esp, 204				; 000000ccH
	push	ebx
	push	esi
	push	edi
	push	ecx
	lea	edi, DWORD PTR [ebp-204]
	mov	ecx, 51					; 00000033H
	mov	eax, -858993460				; ccccccccH
	rep stosd
	pop	ecx
	mov	DWORD PTR _this$[ebp], ecx
; Line 266
	mov	eax, DWORD PTR _this$[ebp]
	mov	ecx, DWORD PTR _copy$[ebp]
	mov	edx, DWORD PTR [ecx+4]
	mov	DWORD PTR [eax+4], edx
; Line 267
	mov	eax, DWORD PTR _this$[ebp]
	mov	ecx, DWORD PTR _copy$[ebp]
	mov	edx, DWORD PTR [ecx+12]
	mov	DWORD PTR [eax+12], edx
; Line 268
	mov	eax, DWORD PTR _this$[ebp]
	mov	ecx, DWORD PTR _copy$[ebp]
	mov	edx, DWORD PTR [ecx+8]
	mov	DWORD PTR [eax+8], edx
; Line 269
	mov	eax, DWORD PTR _this$[ebp]
; Line 270
	pop	edi
	pop	esi
	pop	ebx
	mov	esp, ebp
	pop	ebp
	ret	4
??4FieldPosition@icu_56@@QAEAAV01@ABV01@@Z ENDP		; icu_56::FieldPosition::operator=
_TEXT	ENDS
PUBLIC	??8FieldPosition@icu_56@@QBECABV01@@Z		; icu_56::FieldPosition::operator==
; Function compile flags: /Odtp /RTCsu /ZI
;	COMDAT ??8FieldPosition@icu_56@@QBECABV01@@Z
_TEXT	SEGMENT
tv73 = -205						; size = 1
_this$ = -8						; size = 4
_copy$ = 8						; size = 4
??8FieldPosition@icu_56@@QBECABV01@@Z PROC		; icu_56::FieldPosition::operator==, COMDAT
; _this$ = ecx
; Line 274
	push	ebp
	mov	ebp, esp
	sub	esp, 208				; 000000d0H
	push	ebx
	push	esi
	push	edi
	push	ecx
	lea	edi, DWORD PTR [ebp-208]
	mov	ecx, 52					; 00000034H
	mov	eax, -858993460				; ccccccccH
	rep stosd
	pop	ecx
	mov	DWORD PTR _this$[ebp], ecx
; Line 277
	mov	eax, DWORD PTR _this$[ebp]
	mov	ecx, DWORD PTR _copy$[ebp]
	mov	edx, DWORD PTR [eax+4]
	cmp	edx, DWORD PTR [ecx+4]
	jne	SHORT $LN3@operator
	mov	eax, DWORD PTR _this$[ebp]
	mov	ecx, DWORD PTR _copy$[ebp]
	mov	edx, DWORD PTR [eax+12]
	cmp	edx, DWORD PTR [ecx+12]
	jne	SHORT $LN3@operator
	mov	eax, DWORD PTR _this$[ebp]
	mov	ecx, DWORD PTR _copy$[ebp]
	mov	edx, DWORD PTR [eax+8]
	cmp	edx, DWORD PTR [ecx+8]
	jne	SHORT $LN3@operator
	mov	BYTE PTR tv73[ebp], 1
	jmp	SHORT $LN4@operator
$LN3@operator:
	mov	BYTE PTR tv73[ebp], 0
$LN4@operator:
	mov	al, BYTE PTR tv73[ebp]
; Line 278
	pop	edi
	pop	esi
	pop	ebx
	mov	esp, ebp
	pop	ebp
	ret	4
??8FieldPosition@icu_56@@QBECABV01@@Z ENDP		; icu_56::FieldPosition::operator==
_TEXT	ENDS
PUBLIC	??9FieldPosition@icu_56@@QBECABV01@@Z		; icu_56::FieldPosition::operator!=
; Function compile flags: /Odtp /RTCsu /ZI
;	COMDAT ??9FieldPosition@icu_56@@QBECABV01@@Z
_TEXT	SEGMENT
_this$ = -8						; size = 4
_copy$ = 8						; size = 4
??9FieldPosition@icu_56@@QBECABV01@@Z PROC		; icu_56::FieldPosition::operator!=, COMDAT
; _this$ = ecx
; Line 282
	push	ebp
	mov	ebp, esp
	sub	esp, 204				; 000000ccH
	push	ebx
	push	esi
	push	edi
	push	ecx
	lea	edi, DWORD PTR [ebp-204]
	mov	ecx, 51					; 00000033H
	mov	eax, -858993460				; ccccccccH
	rep stosd
	pop	ecx
	mov	DWORD PTR _this$[ebp], ecx
; Line 283
	mov	eax, DWORD PTR _copy$[ebp]
	push	eax
	mov	ecx, DWORD PTR _this$[ebp]
	call	??8FieldPosition@icu_56@@QBECABV01@@Z	; icu_56::FieldPosition::operator==
	movsx	ecx, al
	test	ecx, ecx
	sete	al
; Line 284
	pop	edi
	pop	esi
	pop	ebx
	add	esp, 204				; 000000ccH
	cmp	ebp, esp
	call	__RTC_CheckEsp
	mov	esp, ebp
	pop	ebp
	ret	4
??9FieldPosition@icu_56@@QBECABV01@@Z ENDP		; icu_56::FieldPosition::operator!=
_TEXT	ENDS
PUBLIC	??9FieldPositionIterator@icu_56@@QBECABV01@@Z	; icu_56::FieldPositionIterator::operator!=
EXTRN	??8FieldPositionIterator@icu_56@@QBECABV01@@Z:PROC ; icu_56::FieldPositionIterator::operator==
; Function compile flags: /Odtp /RTCsu /ZI
;	COMDAT ??9FieldPositionIterator@icu_56@@QBECABV01@@Z
_TEXT	SEGMENT
_this$ = -8						; size = 4
_rhs$ = 8						; size = 4
??9FieldPositionIterator@icu_56@@QBECABV01@@Z PROC	; icu_56::FieldPositionIterator::operator!=, COMDAT
; _this$ = ecx
; File d:\mozilla\intl\icu\source\i18n\unicode\fpositer.h
; Line 90
	push	ebp
	mov	ebp, esp
	sub	esp, 204				; 000000ccH
	push	ebx
	push	esi
	push	edi
	push	ecx
	lea	edi, DWORD PTR [ebp-204]
	mov	ecx, 51					; 00000033H
	mov	eax, -858993460				; ccccccccH
	rep stosd
	pop	ecx
	mov	DWORD PTR _this$[ebp], ecx
	mov	eax, DWORD PTR _rhs$[ebp]
	push	eax
	mov	ecx, DWORD PTR _this$[ebp]
	call	??8FieldPositionIterator@icu_56@@QBECABV01@@Z ; icu_56::FieldPositionIterator::operator==
	movsx	ecx, al
	test	ecx, ecx
	sete	al
	pop	edi
	pop	esi
	pop	ebx
	add	esp, 204				; 000000ccH
	cmp	ebp, esp
	call	__RTC_CheckEsp
	mov	esp, ebp
	pop	ebp
	ret	4
??9FieldPositionIterator@icu_56@@QBECABV01@@Z ENDP	; icu_56::FieldPositionIterator::operator!=
_TEXT	ENDS
PUBLIC	??4FieldPositionIterator@icu_56@@QAEAAV01@ABV01@@Z ; icu_56::FieldPositionIterator::operator=
EXTRN	__imp_??4UObject@icu_56@@QAEAAV01@ABV01@@Z:PROC
; Function compile flags: /Odtp /RTCsu /ZI
;	COMDAT ??4FieldPositionIterator@icu_56@@QAEAAV01@ABV01@@Z
_TEXT	SEGMENT
_this$ = -8						; size = 4
___that$ = 8						; size = 4
??4FieldPositionIterator@icu_56@@QAEAAV01@ABV01@@Z PROC	; icu_56::FieldPositionIterator::operator=, COMDAT
; _this$ = ecx
	push	ebp
	mov	ebp, esp
	sub	esp, 204				; 000000ccH
	push	ebx
	push	esi
	push	edi
	push	ecx
	lea	edi, DWORD PTR [ebp-204]
	mov	ecx, 51					; 00000033H
	mov	eax, -858993460				; ccccccccH
	rep stosd
	pop	ecx
	mov	DWORD PTR _this$[ebp], ecx
	mov	esi, esp
	mov	eax, DWORD PTR ___that$[ebp]
	push	eax
	mov	ecx, DWORD PTR _this$[ebp]
	call	DWORD PTR __imp_??4UObject@icu_56@@QAEAAV01@ABV01@@Z
	cmp	esi, esp
	call	__RTC_CheckEsp
	mov	eax, DWORD PTR _this$[ebp]
	mov	ecx, DWORD PTR ___that$[ebp]
	mov	edx, DWORD PTR [ecx+4]
	mov	DWORD PTR [eax+4], edx
	mov	eax, DWORD PTR _this$[ebp]
	mov	ecx, DWORD PTR ___that$[ebp]
	mov	edx, DWORD PTR [ecx+8]
	mov	DWORD PTR [eax+8], edx
	mov	eax, DWORD PTR _this$[ebp]
	pop	edi
	pop	esi
	pop	ebx
	add	esp, 204				; 000000ccH
	cmp	ebp, esp
	call	__RTC_CheckEsp
	mov	esp, ebp
	pop	ebp
	ret	4
??4FieldPositionIterator@icu_56@@QAEAAV01@ABV01@@Z ENDP	; icu_56::FieldPositionIterator::operator=
_TEXT	ENDS
PUBLIC	??9Format@icu_56@@QBECABV01@@Z			; icu_56::Format::operator!=
; Function compile flags: /Odtp /RTCsu /ZI
;	COMDAT ??9Format@icu_56@@QBECABV01@@Z
_TEXT	SEGMENT
_this$ = -8						; size = 4
_other$ = 8						; size = 4
??9Format@icu_56@@QBECABV01@@Z PROC			; icu_56::Format::operator!=, COMDAT
; _this$ = ecx
; File d:\mozilla\intl\icu\source\i18n\unicode\format.h
; Line 119
	push	ebp
	mov	ebp, esp
	sub	esp, 204				; 000000ccH
	push	ebx
	push	esi
	push	edi
	push	ecx
	lea	edi, DWORD PTR [ebp-204]
	mov	ecx, 51					; 00000033H
	mov	eax, -858993460				; ccccccccH
	rep stosd
	pop	ecx
	mov	DWORD PTR _this$[ebp], ecx
	mov	esi, esp
	mov	eax, DWORD PTR _other$[ebp]
	push	eax
	mov	ecx, DWORD PTR _this$[ebp]
	mov	edx, DWORD PTR [ecx]
	mov	ecx, DWORD PTR _this$[ebp]
	mov	eax, DWORD PTR [edx+8]
	call	eax
	cmp	esi, esp
	call	__RTC_CheckEsp
	movsx	ecx, al
	test	ecx, ecx
	sete	al
	pop	edi
	pop	esi
	pop	ebx
	add	esp, 204				; 000000ccH
	cmp	ebp, esp
	call	__RTC_CheckEsp
	mov	esp, ebp
	pop	ebp
	ret	4
??9Format@icu_56@@QBECABV01@@Z ENDP			; icu_56::Format::operator!=
_TEXT	ENDS
PUBLIC	??9PluralRules@icu_56@@QBECABV01@@Z		; icu_56::PluralRules::operator!=
; Function compile flags: /Odtp /RTCsu /ZI
;	COMDAT ??9PluralRules@icu_56@@QBECABV01@@Z
_TEXT	SEGMENT
_this$ = -8						; size = 4
_other$ = 8						; size = 4
??9PluralRules@icu_56@@QBECABV01@@Z PROC		; icu_56::PluralRules::operator!=, COMDAT
; _this$ = ecx
; File d:\mozilla\intl\icu\source\i18n\unicode\plurrule.h
; Line 474
	push	ebp
	mov	ebp, esp
	sub	esp, 204				; 000000ccH
	push	ebx
	push	esi
	push	edi
	push	ecx
	lea	edi, DWORD PTR [ebp-204]
	mov	ecx, 51					; 00000033H
	mov	eax, -858993460				; ccccccccH
	rep stosd
	pop	ecx
	mov	DWORD PTR _this$[ebp], ecx
	mov	esi, esp
	mov	eax, DWORD PTR _other$[ebp]
	push	eax
	mov	ecx, DWORD PTR _this$[ebp]
	mov	edx, DWORD PTR [ecx]
	mov	ecx, DWORD PTR _this$[ebp]
	mov	eax, DWORD PTR [edx+8]
	call	eax
	cmp	esi, esp
	call	__RTC_CheckEsp
	movsx	ecx, al
	test	ecx, ecx
	sete	al
	pop	edi
	pop	esi
	pop	ebx
	add	esp, 204				; 000000ccH
	cmp	ebp, esp
	call	__RTC_CheckEsp
	mov	esp, ebp
	pop	ebp
	ret	4
??9PluralRules@icu_56@@QBECABV01@@Z ENDP		; icu_56::PluralRules::operator!=
_TEXT	ENDS
PUBLIC	??1PluralRules@icu_56@@UAE@XZ			; icu_56::PluralRules::~PluralRules
PUBLIC	??_GPluralRules@icu_56@@UAEPAXI@Z		; icu_56::PluralRules::`scalar deleting destructor'
; Function compile flags: /Odtp /RTCsu /ZI
;	COMDAT ??_GPluralRules@icu_56@@UAEPAXI@Z
_TEXT	SEGMENT
_this$ = -8						; size = 4
___flags$ = 8						; size = 4
??_GPluralRules@icu_56@@UAEPAXI@Z PROC			; icu_56::PluralRules::`scalar deleting destructor', COMDAT
; _this$ = ecx
	push	ebp
	mov	ebp, esp
	sub	esp, 204				; 000000ccH
	push	ebx
	push	esi
	push	edi
	push	ecx
	lea	edi, DWORD PTR [ebp-204]
	mov	ecx, 51					; 00000033H
	mov	eax, -858993460				; ccccccccH
	rep stosd
	pop	ecx
	mov	DWORD PTR _this$[ebp], ecx
	mov	ecx, DWORD PTR _this$[ebp]
	call	??1PluralRules@icu_56@@UAE@XZ		; icu_56::PluralRules::~PluralRules
	mov	eax, DWORD PTR ___flags$[ebp]
	and	eax, 1
	je	SHORT $LN1@scalar@2
	mov	esi, esp
	mov	eax, DWORD PTR _this$[ebp]
	push	eax
	call	DWORD PTR __imp_??3UMemory@icu_56@@SAXPAX@Z
	add	esp, 4
	cmp	esi, esp
	call	__RTC_CheckEsp
$LN1@scalar@2:
	mov	eax, DWORD PTR _this$[ebp]
	pop	edi
	pop	esi
	pop	ebx
	add	esp, 204				; 000000ccH
	cmp	ebp, esp
	call	__RTC_CheckEsp
	mov	esp, ebp
	pop	ebp
	ret	4
??_GPluralRules@icu_56@@UAEPAXI@Z ENDP			; icu_56::PluralRules::`scalar deleting destructor'
_TEXT	ENDS
PUBLIC	??_EPluralRules@icu_56@@UAEPAXI@Z		; icu_56::PluralRules::`vector deleting destructor'
; Function compile flags: /Odtp /RTCsu /ZI
;	COMDAT ??_EPluralRules@icu_56@@UAEPAXI@Z
_TEXT	SEGMENT
_this$ = -8						; size = 4
___flags$ = 8						; size = 4
??_EPluralRules@icu_56@@UAEPAXI@Z PROC			; icu_56::PluralRules::`vector deleting destructor', COMDAT
; _this$ = ecx
	push	ebp
	mov	ebp, esp
	sub	esp, 204				; 000000ccH
	push	ebx
	push	esi
	push	edi
	push	ecx
	lea	edi, DWORD PTR [ebp-204]
	mov	ecx, 51					; 00000033H
	mov	eax, -858993460				; ccccccccH
	rep stosd
	pop	ecx
	mov	DWORD PTR _this$[ebp], ecx
	mov	eax, DWORD PTR ___flags$[ebp]
	and	eax, 2
	je	SHORT $LN3@vector@2
	push	OFFSET ??1PluralRules@icu_56@@UAE@XZ	; icu_56::PluralRules::~PluralRules
	mov	eax, DWORD PTR _this$[ebp]
	mov	ecx, DWORD PTR [eax-4]
	push	ecx
	push	8
	mov	edx, DWORD PTR _this$[ebp]
	push	edx
	call	??_M@YGXPAXIHP6EX0@Z@Z
	mov	eax, DWORD PTR ___flags$[ebp]
	and	eax, 1
	je	SHORT $LN2@vector@2
	mov	eax, DWORD PTR _this$[ebp]
	sub	eax, 4
	mov	esi, esp
	push	eax
	call	DWORD PTR __imp_??_VUMemory@icu_56@@SAXPAX@Z
	add	esp, 4
	cmp	esi, esp
	call	__RTC_CheckEsp
$LN2@vector@2:
	mov	eax, DWORD PTR _this$[ebp]
	sub	eax, 4
	jmp	SHORT $LN4@vector@2
$LN3@vector@2:
	mov	ecx, DWORD PTR _this$[ebp]
	call	??1PluralRules@icu_56@@UAE@XZ		; icu_56::PluralRules::~PluralRules
	mov	eax, DWORD PTR ___flags$[ebp]
	and	eax, 1
	je	SHORT $LN1@vector@2
	mov	esi, esp
	mov	eax, DWORD PTR _this$[ebp]
	push	eax
	call	DWORD PTR __imp_??3UMemory@icu_56@@SAXPAX@Z
	add	esp, 4
	cmp	esi, esp
	call	__RTC_CheckEsp
$LN1@vector@2:
	mov	eax, DWORD PTR _this$[ebp]
$LN4@vector@2:
	pop	edi
	pop	esi
	pop	ebx
	add	esp, 204				; 000000ccH
	cmp	ebp, esp
	call	__RTC_CheckEsp
	mov	esp, ebp
	pop	ebp
	ret	4
??_EPluralRules@icu_56@@UAEPAXI@Z ENDP			; icu_56::PluralRules::`vector deleting destructor'
_TEXT	ENDS
PUBLIC	??9DecimalFormatSymbols@icu_56@@QBECABV01@@Z	; icu_56::DecimalFormatSymbols::operator!=
EXTRN	??8DecimalFormatSymbols@icu_56@@QBECABV01@@Z:PROC ; icu_56::DecimalFormatSymbols::operator==
; Function compile flags: /Odtp /RTCsu /ZI
;	COMDAT ??9DecimalFormatSymbols@icu_56@@QBECABV01@@Z
_TEXT	SEGMENT
_this$ = -8						; size = 4
_other$ = 8						; size = 4
??9DecimalFormatSymbols@icu_56@@QBECABV01@@Z PROC	; icu_56::DecimalFormatSymbols::operator!=, COMDAT
; _this$ = ecx
; File d:\mozilla\intl\icu\source\i18n\unicode\dcfmtsym.h
; Line 247
	push	ebp
	mov	ebp, esp
	sub	esp, 204				; 000000ccH
	push	ebx
	push	esi
	push	edi
	push	ecx
	lea	edi, DWORD PTR [ebp-204]
	mov	ecx, 51					; 00000033H
	mov	eax, -858993460				; ccccccccH
	rep stosd
	pop	ecx
	mov	DWORD PTR _this$[ebp], ecx
	mov	eax, DWORD PTR _other$[ebp]
	push	eax
	mov	ecx, DWORD PTR _this$[ebp]
	call	??8DecimalFormatSymbols@icu_56@@QBECABV01@@Z ; icu_56::DecimalFormatSymbols::operator==
	movsx	ecx, al
	test	ecx, ecx
	sete	al
	pop	edi
	pop	esi
	pop	ebx
	add	esp, 204				; 000000ccH
	cmp	ebp, esp
	call	__RTC_CheckEsp
	mov	esp, ebp
	pop	ebp
	ret	4
??9DecimalFormatSymbols@icu_56@@QBECABV01@@Z ENDP	; icu_56::DecimalFormatSymbols::operator!=
_TEXT	ENDS
PUBLIC	?isCustomCurrencySymbol@DecimalFormatSymbols@icu_56@@QBECXZ ; icu_56::DecimalFormatSymbols::isCustomCurrencySymbol
; Function compile flags: /Odtp /RTCsu /ZI
;	COMDAT ?isCustomCurrencySymbol@DecimalFormatSymbols@icu_56@@QBECXZ
_TEXT	SEGMENT
_this$ = -8						; size = 4
?isCustomCurrencySymbol@DecimalFormatSymbols@icu_56@@QBECXZ PROC ; icu_56::DecimalFormatSymbols::isCustomCurrencySymbol, COMDAT
; _this$ = ecx
; Line 362
	push	ebp
	mov	ebp, esp
	sub	esp, 204				; 000000ccH
	push	ebx
	push	esi
	push	edi
	push	ecx
	lea	edi, DWORD PTR [ebp-204]
	mov	ecx, 51					; 00000033H
	mov	eax, -858993460				; ccccccccH
	rep stosd
	pop	ecx
	mov	DWORD PTR _this$[ebp], ecx
; Line 363
	mov	eax, DWORD PTR _this$[ebp]
	mov	al, BYTE PTR [eax+2768]
; Line 364
	pop	edi
	pop	esi
	pop	ebx
	mov	esp, ebp
	pop	ebp
	ret	0
?isCustomCurrencySymbol@DecimalFormatSymbols@icu_56@@QBECXZ ENDP ; icu_56::DecimalFormatSymbols::isCustomCurrencySymbol
_TEXT	ENDS
PUBLIC	?isCustomIntlCurrencySymbol@DecimalFormatSymbols@icu_56@@QBECXZ ; icu_56::DecimalFormatSymbols::isCustomIntlCurrencySymbol
; Function compile flags: /Odtp /RTCsu /ZI
;	COMDAT ?isCustomIntlCurrencySymbol@DecimalFormatSymbols@icu_56@@QBECXZ
_TEXT	SEGMENT
_this$ = -8						; size = 4
?isCustomIntlCurrencySymbol@DecimalFormatSymbols@icu_56@@QBECXZ PROC ; icu_56::DecimalFormatSymbols::isCustomIntlCurrencySymbol, COMDAT
; _this$ = ecx
; Line 369
	push	ebp
	mov	ebp, esp
	sub	esp, 204				; 000000ccH
	push	ebx
	push	esi
	push	edi
	push	ecx
	lea	edi, DWORD PTR [ebp-204]
	mov	ecx, 51					; 00000033H
	mov	eax, -858993460				; ccccccccH
	rep stosd
	pop	ecx
	mov	DWORD PTR _this$[ebp], ecx
; Line 370
	mov	eax, DWORD PTR _this$[ebp]
	mov	al, BYTE PTR [eax+2769]
; Line 371
	pop	edi
	pop	esi
	pop	ebx
	mov	esp, ebp
	pop	ebp
	ret	0
?isCustomIntlCurrencySymbol@DecimalFormatSymbols@icu_56@@QBECXZ ENDP ; icu_56::DecimalFormatSymbols::isCustomIntlCurrencySymbol
_TEXT	ENDS
PUBLIC	?getSymbol@DecimalFormatSymbols@icu_56@@QBE?AVUnicodeString@2@W4ENumberFormatSymbol@12@@Z ; icu_56::DecimalFormatSymbols::getSymbol
EXTRN	__imp_??0UnicodeString@icu_56@@QAE@ABV01@@Z:PROC
; Function compile flags: /Odtp /RTCsu /ZI
;	COMDAT ?getSymbol@DecimalFormatSymbols@icu_56@@QBE?AVUnicodeString@2@W4ENumberFormatSymbol@12@@Z
_TEXT	SEGMENT
$T84347 = -224						; size = 4
_strPtr$ = -20						; size = 4
_this$ = -8						; size = 4
___$ReturnUdt$ = 8					; size = 4
_symbol$ = 12						; size = 4
?getSymbol@DecimalFormatSymbols@icu_56@@QBE?AVUnicodeString@2@W4ENumberFormatSymbol@12@@Z PROC ; icu_56::DecimalFormatSymbols::getSymbol, COMDAT
; _this$ = ecx
; Line 435
	push	ebp
	mov	ebp, esp
	sub	esp, 228				; 000000e4H
	push	ebx
	push	esi
	push	edi
	push	ecx
	lea	edi, DWORD PTR [ebp-228]
	mov	ecx, 57					; 00000039H
	mov	eax, -858993460				; ccccccccH
	rep stosd
	pop	ecx
	mov	DWORD PTR _this$[ebp], ecx
	mov	DWORD PTR $T84347[ebp], 0
; Line 437
	cmp	DWORD PTR _symbol$[ebp], 28		; 0000001cH
	jge	SHORT $LN2@getSymbol
; Line 438
	mov	eax, DWORD PTR _symbol$[ebp]
	shl	eax, 6
	mov	ecx, DWORD PTR _this$[ebp]
	lea	edx, DWORD PTR [ecx+eax+4]
	mov	DWORD PTR _strPtr$[ebp], edx
; Line 439
	jmp	SHORT $LN1@getSymbol
$LN2@getSymbol:
; Line 440
	mov	eax, DWORD PTR _this$[ebp]
	add	eax, 1796				; 00000704H
	mov	DWORD PTR _strPtr$[ebp], eax
$LN1@getSymbol:
; Line 442
	mov	esi, esp
	mov	eax, DWORD PTR _strPtr$[ebp]
	push	eax
	mov	ecx, DWORD PTR ___$ReturnUdt$[ebp]
	call	DWORD PTR __imp_??0UnicodeString@icu_56@@QAE@ABV01@@Z
	cmp	esi, esp
	call	__RTC_CheckEsp
	mov	ecx, DWORD PTR $T84347[ebp]
	or	ecx, 1
	mov	DWORD PTR $T84347[ebp], ecx
	mov	eax, DWORD PTR ___$ReturnUdt$[ebp]
; Line 443
	pop	edi
	pop	esi
	pop	ebx
	add	esp, 228				; 000000e4H
	cmp	ebp, esp
	call	__RTC_CheckEsp
	mov	esp, ebp
	pop	ebp
	ret	8
?getSymbol@DecimalFormatSymbols@icu_56@@QBE?AVUnicodeString@2@W4ENumberFormatSymbol@12@@Z ENDP ; icu_56::DecimalFormatSymbols::getSymbol
_TEXT	ENDS
PUBLIC	?getConstSymbol@DecimalFormatSymbols@icu_56@@QBEABVUnicodeString@2@W4ENumberFormatSymbol@12@@Z ; icu_56::DecimalFormatSymbols::getConstSymbol
; Function compile flags: /Odtp /RTCsu /ZI
;	COMDAT ?getConstSymbol@DecimalFormatSymbols@icu_56@@QBEABVUnicodeString@2@W4ENumberFormatSymbol@12@@Z
_TEXT	SEGMENT
_strPtr$ = -20						; size = 4
_this$ = -8						; size = 4
_symbol$ = 8						; size = 4
?getConstSymbol@DecimalFormatSymbols@icu_56@@QBEABVUnicodeString@2@W4ENumberFormatSymbol@12@@Z PROC ; icu_56::DecimalFormatSymbols::getConstSymbol, COMDAT
; _this$ = ecx
; Line 448
	push	ebp
	mov	ebp, esp
	sub	esp, 216				; 000000d8H
	push	ebx
	push	esi
	push	edi
	push	ecx
	lea	edi, DWORD PTR [ebp-216]
	mov	ecx, 54					; 00000036H
	mov	eax, -858993460				; ccccccccH
	rep stosd
	pop	ecx
	mov	DWORD PTR _this$[ebp], ecx
; Line 450
	cmp	DWORD PTR _symbol$[ebp], 28		; 0000001cH
	jge	SHORT $LN2@getConstSy
; Line 451
	mov	eax, DWORD PTR _symbol$[ebp]
	shl	eax, 6
	mov	ecx, DWORD PTR _this$[ebp]
	lea	edx, DWORD PTR [ecx+eax+4]
	mov	DWORD PTR _strPtr$[ebp], edx
; Line 452
	jmp	SHORT $LN1@getConstSy
$LN2@getConstSy:
; Line 453
	mov	eax, DWORD PTR _this$[ebp]
	add	eax, 1796				; 00000704H
	mov	DWORD PTR _strPtr$[ebp], eax
$LN1@getConstSy:
; Line 455
	mov	eax, DWORD PTR _strPtr$[ebp]
; Line 456
	pop	edi
	pop	esi
	pop	ebx
	mov	esp, ebp
	pop	ebp
	ret	4
?getConstSymbol@DecimalFormatSymbols@icu_56@@QBEABVUnicodeString@2@W4ENumberFormatSymbol@12@@Z ENDP ; icu_56::DecimalFormatSymbols::getConstSymbol
_TEXT	ENDS
PUBLIC	__$ArrayPad$
PUBLIC	?setSymbol@DecimalFormatSymbols@icu_56@@QAEXW4ENumberFormatSymbol@12@ABVUnicodeString@2@C@Z ; icu_56::DecimalFormatSymbols::setSymbol
EXTRN	__imp_??1UnicodeString@icu_56@@UAE@XZ:PROC
EXTRN	__imp_??4UnicodeString@icu_56@@QAEAAV01@$$QAV01@@Z:PROC
EXTRN	__imp_??0UnicodeString@icu_56@@QAE@H@Z:PROC
EXTRN	_u_charDigitValue_56:PROC
EXTRN	__imp_?char32At@UnicodeString@icu_56@@QBEHH@Z:PROC
EXTRN	__imp_?countChar32@UnicodeString@icu_56@@QBEHHH@Z:PROC
EXTRN	___security_cookie:DWORD
EXTRN	___CxxFrameHandler3:PROC
EXTRN	@__security_check_cookie@4:PROC
;	COMDAT xdata$x
xdata$x	SEGMENT
__unwindtable$?setSymbol@DecimalFormatSymbols@icu_56@@QAEXW4ENumberFormatSymbol@12@ABVUnicodeString@2@C@Z DD 0ffffffffH
	DD	FLAT:__unwindfunclet$?setSymbol@DecimalFormatSymbols@icu_56@@QAEXW4ENumberFormatSymbol@12@ABVUnicodeString@2@C@Z$0
__ehfuncinfo$?setSymbol@DecimalFormatSymbols@icu_56@@QAEXW4ENumberFormatSymbol@12@ABVUnicodeString@2@C@Z DD 019930522H
	DD	01H
	DD	FLAT:__unwindtable$?setSymbol@DecimalFormatSymbols@icu_56@@QAEXW4ENumberFormatSymbol@12@ABVUnicodeString@2@C@Z
	DD	2 DUP(00H)
	DD	2 DUP(00H)
	DD	00H
	DD	01H
; Function compile flags: /Odtp /RTCsu /ZI
xdata$x	ENDS
;	COMDAT ?setSymbol@DecimalFormatSymbols@icu_56@@QAEXW4ENumberFormatSymbol@12@ABVUnicodeString@2@C@Z
_TEXT	SEGMENT
tv138 = -324						; size = 4
tv139 = -320						; size = 4
$T37480 = -312						; size = 64
_i$37475 = -45						; size = 1
_sym$37473 = -36					; size = 4
_this$ = -24						; size = 4
__$ArrayPad$ = -16					; size = 4
__$EHRec$ = -12						; size = 12
_symbol$ = 8						; size = 4
_value$ = 12						; size = 4
_propogateDigits$ = 16					; size = 1
?setSymbol@DecimalFormatSymbols@icu_56@@QAEXW4ENumberFormatSymbol@12@ABVUnicodeString@2@C@Z PROC ; icu_56::DecimalFormatSymbols::setSymbol, COMDAT
; _this$ = ecx
; Line 464
	push	ebp
	mov	ebp, esp
	push	-1
	push	__ehhandler$?setSymbol@DecimalFormatSymbols@icu_56@@QAEXW4ENumberFormatSymbol@12@ABVUnicodeString@2@C@Z
	mov	eax, DWORD PTR fs:0
	push	eax
	sub	esp, 312				; 00000138H
	push	ebx
	push	esi
	push	edi
	push	ecx
	lea	edi, DWORD PTR [ebp-324]
	mov	ecx, 78					; 0000004eH
	mov	eax, -858993460				; ccccccccH
	rep stosd
	pop	ecx
	mov	eax, DWORD PTR ___security_cookie
	xor	eax, ebp
	mov	DWORD PTR __$ArrayPad$[ebp], eax
	push	eax
	lea	eax, DWORD PTR __$EHRec$[ebp]
	mov	DWORD PTR fs:0, eax
	mov	DWORD PTR _this$[ebp], ecx
; Line 465
	cmp	DWORD PTR _symbol$[ebp], 8
	jne	SHORT $LN9@setSymbol
; Line 466
	mov	eax, DWORD PTR _this$[ebp]
	mov	BYTE PTR [eax+2768], 1
	jmp	SHORT $LN8@setSymbol
$LN9@setSymbol:
; Line 468
	cmp	DWORD PTR _symbol$[ebp], 9
	jne	SHORT $LN8@setSymbol
; Line 469
	mov	eax, DWORD PTR _this$[ebp]
	mov	BYTE PTR [eax+2769], 1
$LN8@setSymbol:
; Line 471
	cmp	DWORD PTR _symbol$[ebp], 28		; 0000001cH
	jge	SHORT $LN6@setSymbol
; Line 472
	mov	esi, esp
	mov	eax, DWORD PTR _value$[ebp]
	push	eax
	mov	ecx, DWORD PTR _symbol$[ebp]
	shl	ecx, 6
	mov	edx, DWORD PTR _this$[ebp]
	lea	ecx, DWORD PTR [edx+ecx+4]
	call	DWORD PTR __imp_??4UnicodeString@icu_56@@QAEAAV01@ABV01@@Z
	cmp	esi, esp
	call	__RTC_CheckEsp
$LN6@setSymbol:
; Line 477
	movsx	eax, BYTE PTR _propogateDigits$[ebp]
	test	eax, eax
	je	$LN10@setSymbol
	cmp	DWORD PTR _symbol$[ebp], 4
	jne	$LN10@setSymbol
	mov	esi, esp
	push	2147483647				; 7fffffffH
	push	0
	mov	ecx, DWORD PTR _value$[ebp]
	call	DWORD PTR __imp_?countChar32@UnicodeString@icu_56@@QBEHHH@Z
	cmp	esi, esp
	call	__RTC_CheckEsp
	cmp	eax, 1
	jne	$LN10@setSymbol
; Line 478
	mov	esi, esp
	push	0
	mov	ecx, DWORD PTR _value$[ebp]
	call	DWORD PTR __imp_?char32At@UnicodeString@icu_56@@QBEHH@Z
	cmp	esi, esp
	call	__RTC_CheckEsp
	mov	DWORD PTR _sym$37473[ebp], eax
; Line 479
	mov	eax, DWORD PTR _sym$37473[ebp]
	push	eax
	call	_u_charDigitValue_56
	add	esp, 4
	test	eax, eax
	jne	$LN10@setSymbol
; Line 480
	mov	BYTE PTR _i$37475[ebp], 1
	jmp	SHORT $LN3@setSymbol
$LN2@setSymbol:
	mov	al, BYTE PTR _i$37475[ebp]
	add	al, 1
	mov	BYTE PTR _i$37475[ebp], al
$LN3@setSymbol:
	movsx	eax, BYTE PTR _i$37475[ebp]
	cmp	eax, 9
	jg	$LN10@setSymbol
; Line 481
	mov	eax, DWORD PTR _sym$37473[ebp]
	add	eax, 1
	mov	DWORD PTR _sym$37473[ebp], eax
; Line 482
	mov	esi, esp
	mov	eax, DWORD PTR _sym$37473[ebp]
	push	eax
	lea	ecx, DWORD PTR $T37480[ebp]
	call	DWORD PTR __imp_??0UnicodeString@icu_56@@QAE@H@Z
	cmp	esi, esp
	call	__RTC_CheckEsp
	mov	DWORD PTR tv139[ebp], eax
	mov	ecx, DWORD PTR tv139[ebp]
	mov	DWORD PTR tv138[ebp], ecx
	mov	DWORD PTR __$EHRec$[ebp+8], 0
	mov	esi, esp
	mov	edx, DWORD PTR tv138[ebp]
	push	edx
	movsx	eax, BYTE PTR _i$37475[ebp]
	add	eax, 17					; 00000011H
	shl	eax, 6
	mov	ecx, DWORD PTR _this$[ebp]
	lea	ecx, DWORD PTR [ecx+eax+4]
	call	DWORD PTR __imp_??4UnicodeString@icu_56@@QAEAAV01@$$QAV01@@Z
	cmp	esi, esp
	call	__RTC_CheckEsp
	mov	DWORD PTR __$EHRec$[ebp+8], -1
	mov	esi, esp
	lea	ecx, DWORD PTR $T37480[ebp]
	call	DWORD PTR __imp_??1UnicodeString@icu_56@@UAE@XZ
	cmp	esi, esp
	call	__RTC_CheckEsp
; Line 483
	jmp	$LN2@setSymbol
$LN10@setSymbol:
; Line 486
	mov	ecx, DWORD PTR __$EHRec$[ebp]
	mov	DWORD PTR fs:0, ecx
	pop	ecx
	pop	edi
	pop	esi
	pop	ebx
	mov	ecx, DWORD PTR __$ArrayPad$[ebp]
	xor	ecx, ebp
	call	@__security_check_cookie@4
	add	esp, 324				; 00000144H
	cmp	ebp, esp
	call	__RTC_CheckEsp
	mov	esp, ebp
	pop	ebp
	ret	12					; 0000000cH
_TEXT	ENDS
;	COMDAT text$x
text$x	SEGMENT
__unwindfunclet$?setSymbol@DecimalFormatSymbols@icu_56@@QAEXW4ENumberFormatSymbol@12@ABVUnicodeString@2@C@Z$0:
	mov	esi, esp
	lea	ecx, DWORD PTR $T37480[ebp]
	call	DWORD PTR __imp_??1UnicodeString@icu_56@@UAE@XZ
	cmp	esi, esp
	jmp	__RTC_CheckEsp
__ehhandler$?setSymbol@DecimalFormatSymbols@icu_56@@QAEXW4ENumberFormatSymbol@12@ABVUnicodeString@2@C@Z:
	mov	edx, DWORD PTR [esp+8]
	lea	eax, DWORD PTR [edx+12]
	mov	ecx, DWORD PTR [edx-328]
	xor	ecx, eax
	call	@__security_check_cookie@4
	mov	ecx, DWORD PTR [edx-4]
	xor	ecx, eax
	call	@__security_check_cookie@4
	mov	eax, OFFSET __ehfuncinfo$?setSymbol@DecimalFormatSymbols@icu_56@@QAEXW4ENumberFormatSymbol@12@ABVUnicodeString@2@C@Z
	jmp	___CxxFrameHandler3
text$x	ENDS
?setSymbol@DecimalFormatSymbols@icu_56@@QAEXW4ENumberFormatSymbol@12@ABVUnicodeString@2@C@Z ENDP ; icu_56::DecimalFormatSymbols::setSymbol
PUBLIC	?getLocale@DecimalFormatSymbols@icu_56@@QBE?AVLocale@2@XZ ; icu_56::DecimalFormatSymbols::getLocale
EXTRN	__imp_??0Locale@icu_56@@QAE@ABV01@@Z:PROC
; Function compile flags: /Odtp /RTCsu /ZI
;	COMDAT ?getLocale@DecimalFormatSymbols@icu_56@@QBE?AVLocale@2@XZ
_TEXT	SEGMENT
$T84369 = -212						; size = 4
_this$ = -8						; size = 4
___$ReturnUdt$ = 8					; size = 4
?getLocale@DecimalFormatSymbols@icu_56@@QBE?AVLocale@2@XZ PROC ; icu_56::DecimalFormatSymbols::getLocale, COMDAT
; _this$ = ecx
; Line 491
	push	ebp
	mov	ebp, esp
	sub	esp, 216				; 000000d8H
	push	ebx
	push	esi
	push	edi
	push	ecx
	lea	edi, DWORD PTR [ebp-216]
	mov	ecx, 54					; 00000036H
	mov	eax, -858993460				; ccccccccH
	rep stosd
	pop	ecx
	mov	DWORD PTR _this$[ebp], ecx
	mov	DWORD PTR $T84369[ebp], 0
; Line 492
	mov	eax, DWORD PTR _this$[ebp]
	add	eax, 1860				; 00000744H
	mov	esi, esp
	push	eax
	mov	ecx, DWORD PTR ___$ReturnUdt$[ebp]
	call	DWORD PTR __imp_??0Locale@icu_56@@QAE@ABV01@@Z
	cmp	esi, esp
	call	__RTC_CheckEsp
	mov	ecx, DWORD PTR $T84369[ebp]
	or	ecx, 1
	mov	DWORD PTR $T84369[ebp], ecx
	mov	eax, DWORD PTR ___$ReturnUdt$[ebp]
; Line 493
	pop	edi
	pop	esi
	pop	ebx
	add	esp, 216				; 000000d8H
	cmp	ebp, esp
	call	__RTC_CheckEsp
	mov	esp, ebp
	pop	ebp
	ret	4
?getLocale@DecimalFormatSymbols@icu_56@@QBE?AVLocale@2@XZ ENDP ; icu_56::DecimalFormatSymbols::getLocale
_TEXT	ENDS
PUBLIC	?getCurrencyPattern@DecimalFormatSymbols@icu_56@@QBEPB_WXZ ; icu_56::DecimalFormatSymbols::getCurrencyPattern
; Function compile flags: /Odtp /RTCsu /ZI
;	COMDAT ?getCurrencyPattern@DecimalFormatSymbols@icu_56@@QBEPB_WXZ
_TEXT	SEGMENT
_this$ = -8						; size = 4
?getCurrencyPattern@DecimalFormatSymbols@icu_56@@QBEPB_WXZ PROC ; icu_56::DecimalFormatSymbols::getCurrencyPattern, COMDAT
; _this$ = ecx
; Line 497
	push	ebp
	mov	ebp, esp
	sub	esp, 204				; 000000ccH
	push	ebx
	push	esi
	push	edi
	push	ecx
	lea	edi, DWORD PTR [ebp-204]
	mov	ecx, 51					; 00000033H
	mov	eax, -858993460				; ccccccccH
	rep stosd
	pop	ecx
	mov	DWORD PTR _this$[ebp], ecx
; Line 498
	mov	eax, DWORD PTR _this$[ebp]
	mov	eax, DWORD PTR [eax+2380]
; Line 499
	pop	edi
	pop	esi
	pop	ebx
	mov	esp, ebp
	pop	ebp
	ret	0
?getCurrencyPattern@DecimalFormatSymbols@icu_56@@QBEPB_WXZ ENDP ; icu_56::DecimalFormatSymbols::getCurrencyPattern
_TEXT	ENDS
PUBLIC	?getNumber@Measure@icu_56@@QBEABVFormattable@2@XZ ; icu_56::Measure::getNumber
; Function compile flags: /Odtp /RTCsu /ZI
;	COMDAT ?getNumber@Measure@icu_56@@QBEABVFormattable@2@XZ
_TEXT	SEGMENT
_this$ = -8						; size = 4
?getNumber@Measure@icu_56@@QBEABVFormattable@2@XZ PROC	; icu_56::Measure::getNumber, COMDAT
; _this$ = ecx
; File d:\mozilla\intl\icu\source\i18n\unicode\measure.h
; Line 148
	push	ebp
	mov	ebp, esp
	sub	esp, 204				; 000000ccH
	push	ebx
	push	esi
	push	edi
	push	ecx
	lea	edi, DWORD PTR [ebp-204]
	mov	ecx, 51					; 00000033H
	mov	eax, -858993460				; ccccccccH
	rep stosd
	pop	ecx
	mov	DWORD PTR _this$[ebp], ecx
; Line 149
	mov	eax, DWORD PTR _this$[ebp]
	add	eax, 8
; Line 150
	pop	edi
	pop	esi
	pop	ebx
	mov	esp, ebp
	pop	ebp
	ret	0
?getNumber@Measure@icu_56@@QBEABVFormattable@2@XZ ENDP	; icu_56::Measure::getNumber
_TEXT	ENDS
PUBLIC	?getUnit@Measure@icu_56@@QBEABVMeasureUnit@2@XZ	; icu_56::Measure::getUnit
; Function compile flags: /Odtp /RTCsu /ZI
;	COMDAT ?getUnit@Measure@icu_56@@QBEABVMeasureUnit@2@XZ
_TEXT	SEGMENT
_this$ = -8						; size = 4
?getUnit@Measure@icu_56@@QBEABVMeasureUnit@2@XZ PROC	; icu_56::Measure::getUnit, COMDAT
; _this$ = ecx
; Line 152
	push	ebp
	mov	ebp, esp
	sub	esp, 204				; 000000ccH
	push	ebx
	push	esi
	push	edi
	push	ecx
	lea	edi, DWORD PTR [ebp-204]
	mov	ecx, 51					; 00000033H
	mov	eax, -858993460				; ccccccccH
	rep stosd
	pop	ecx
	mov	DWORD PTR _this$[ebp], ecx
; Line 153
	mov	eax, DWORD PTR _this$[ebp]
	mov	eax, DWORD PTR [eax+232]
; Line 154
	pop	edi
	pop	esi
	pop	ebx
	mov	esp, ebp
	pop	ebp
	ret	0
?getUnit@Measure@icu_56@@QBEABVMeasureUnit@2@XZ ENDP	; icu_56::Measure::getUnit
_TEXT	ENDS
PUBLIC	??_7MeasureUnit@icu_56@@6B@			; icu_56::MeasureUnit::`vftable'
PUBLIC	??0MeasureUnit@icu_56@@QAE@XZ			; icu_56::MeasureUnit::MeasureUnit
PUBLIC	??_R4MeasureUnit@icu_56@@6B@			; icu_56::MeasureUnit::`RTTI Complete Object Locator'
PUBLIC	??_R0?AVMeasureUnit@icu_56@@@8			; icu_56::MeasureUnit `RTTI Type Descriptor'
PUBLIC	??_R3MeasureUnit@icu_56@@8			; icu_56::MeasureUnit::`RTTI Class Hierarchy Descriptor'
PUBLIC	??_R2MeasureUnit@icu_56@@8			; icu_56::MeasureUnit::`RTTI Base Class Array'
PUBLIC	??_R1A@?0A@EA@MeasureUnit@icu_56@@8		; icu_56::MeasureUnit::`RTTI Base Class Descriptor at (0,-1,0,64)'
PUBLIC	??_EMeasureUnit@icu_56@@UAEPAXI@Z		; icu_56::MeasureUnit::`vector deleting destructor'
EXTRN	?getDynamicClassID@MeasureUnit@icu_56@@UBEPAXXZ:PROC ; icu_56::MeasureUnit::getDynamicClassID
EXTRN	?clone@MeasureUnit@icu_56@@UBEPAVUObject@2@XZ:PROC ; icu_56::MeasureUnit::clone
EXTRN	??8MeasureUnit@icu_56@@UBECABVUObject@1@@Z:PROC	; icu_56::MeasureUnit::operator==
;	COMDAT ??_R1A@?0A@EA@MeasureUnit@icu_56@@8
; File d:\mozilla\intl\icu\source\i18n\unicode\measunit.h
rdata$r	SEGMENT
??_R1A@?0A@EA@MeasureUnit@icu_56@@8 DD FLAT:??_R0?AVMeasureUnit@icu_56@@@8 ; icu_56::MeasureUnit::`RTTI Base Class Descriptor at (0,-1,0,64)'
	DD	02H
	DD	00H
	DD	0ffffffffH
	DD	00H
	DD	040H
	DD	FLAT:??_R3MeasureUnit@icu_56@@8
rdata$r	ENDS
;	COMDAT ??_R2MeasureUnit@icu_56@@8
rdata$r	SEGMENT
??_R2MeasureUnit@icu_56@@8 DD FLAT:??_R1A@?0A@EA@MeasureUnit@icu_56@@8 ; icu_56::MeasureUnit::`RTTI Base Class Array'
	DD	FLAT:??_R1A@?0A@EA@UObject@icu_56@@8
	DD	FLAT:??_R13?0A@EA@UMemory@icu_56@@8
rdata$r	ENDS
;	COMDAT ??_R3MeasureUnit@icu_56@@8
rdata$r	SEGMENT
??_R3MeasureUnit@icu_56@@8 DD 00H			; icu_56::MeasureUnit::`RTTI Class Hierarchy Descriptor'
	DD	00H
	DD	03H
	DD	FLAT:??_R2MeasureUnit@icu_56@@8
rdata$r	ENDS
;	COMDAT ??_R0?AVMeasureUnit@icu_56@@@8
_DATA	SEGMENT
??_R0?AVMeasureUnit@icu_56@@@8 DD FLAT:??_7type_info@@6B@ ; icu_56::MeasureUnit `RTTI Type Descriptor'
	DD	00H
	DB	'.?AVMeasureUnit@icu_56@@', 00H
_DATA	ENDS
;	COMDAT ??_R4MeasureUnit@icu_56@@6B@
rdata$r	SEGMENT
??_R4MeasureUnit@icu_56@@6B@ DD 00H			; icu_56::MeasureUnit::`RTTI Complete Object Locator'
	DD	00H
	DD	00H
	DD	FLAT:??_R0?AVMeasureUnit@icu_56@@@8
	DD	FLAT:??_R3MeasureUnit@icu_56@@8
rdata$r	ENDS
;	COMDAT ??_7MeasureUnit@icu_56@@6B@
CONST	SEGMENT
??_7MeasureUnit@icu_56@@6B@ DD FLAT:??_R4MeasureUnit@icu_56@@6B@ ; icu_56::MeasureUnit::`vftable'
	DD	FLAT:??_EMeasureUnit@icu_56@@UAEPAXI@Z
	DD	FLAT:?getDynamicClassID@MeasureUnit@icu_56@@UBEPAXXZ
	DD	FLAT:?clone@MeasureUnit@icu_56@@UBEPAVUObject@2@XZ
	DD	FLAT:??8MeasureUnit@icu_56@@UBECABVUObject@1@@Z
; Function compile flags: /Odtp /RTCsu /ZI
CONST	ENDS
;	COMDAT ??0MeasureUnit@icu_56@@QAE@XZ
_TEXT	SEGMENT
_this$ = -8						; size = 4
??0MeasureUnit@icu_56@@QAE@XZ PROC			; icu_56::MeasureUnit::MeasureUnit, COMDAT
; _this$ = ecx
; Line 43
	push	ebp
	mov	ebp, esp
	sub	esp, 204				; 000000ccH
	push	ebx
	push	esi
	push	edi
	push	ecx
	lea	edi, DWORD PTR [ebp-204]
	mov	ecx, 51					; 00000033H
	mov	eax, -858993460				; ccccccccH
	rep stosd
	pop	ecx
	mov	DWORD PTR _this$[ebp], ecx
	mov	esi, esp
	mov	ecx, DWORD PTR _this$[ebp]
	call	DWORD PTR __imp_??0UObject@icu_56@@QAE@XZ
	cmp	esi, esp
	call	__RTC_CheckEsp
	mov	eax, DWORD PTR _this$[ebp]
	mov	DWORD PTR [eax], OFFSET ??_7MeasureUnit@icu_56@@6B@
	mov	eax, DWORD PTR _this$[ebp]
	mov	DWORD PTR [eax+4], 0
	mov	eax, DWORD PTR _this$[ebp]
	mov	DWORD PTR [eax+8], 0
; Line 44
	mov	eax, DWORD PTR _this$[ebp]
	mov	BYTE PTR [eax+12], 0
; Line 45
	mov	eax, DWORD PTR _this$[ebp]
	pop	edi
	pop	esi
	pop	ebx
	add	esp, 204				; 000000ccH
	cmp	ebp, esp
	call	__RTC_CheckEsp
	mov	esp, ebp
	pop	ebp
	ret	0
??0MeasureUnit@icu_56@@QAE@XZ ENDP			; icu_56::MeasureUnit::MeasureUnit
_TEXT	ENDS
PUBLIC	??9MeasureUnit@icu_56@@QBECABVUObject@1@@Z	; icu_56::MeasureUnit::operator!=
; Function compile flags: /Odtp /RTCsu /ZI
;	COMDAT ??9MeasureUnit@icu_56@@QBECABVUObject@1@@Z
_TEXT	SEGMENT
_this$ = -8						; size = 4
_other$ = 8						; size = 4
??9MeasureUnit@icu_56@@QBECABVUObject@1@@Z PROC		; icu_56::MeasureUnit::operator!=, COMDAT
; _this$ = ecx
; Line 84
	push	ebp
	mov	ebp, esp
	sub	esp, 204				; 000000ccH
	push	ebx
	push	esi
	push	edi
	push	ecx
	lea	edi, DWORD PTR [ebp-204]
	mov	ecx, 51					; 00000033H
	mov	eax, -858993460				; ccccccccH
	rep stosd
	pop	ecx
	mov	DWORD PTR _this$[ebp], ecx
; Line 85
	mov	esi, esp
	mov	eax, DWORD PTR _other$[ebp]
	push	eax
	mov	ecx, DWORD PTR _this$[ebp]
	mov	edx, DWORD PTR [ecx]
	mov	ecx, DWORD PTR _this$[ebp]
	mov	eax, DWORD PTR [edx+12]
	call	eax
	cmp	esi, esp
	call	__RTC_CheckEsp
	movsx	ecx, al
	test	ecx, ecx
	sete	al
; Line 86
	pop	edi
	pop	esi
	pop	ebx
	add	esp, 204				; 000000ccH
	cmp	ebp, esp
	call	__RTC_CheckEsp
	mov	esp, ebp
	pop	ebp
	ret	4
??9MeasureUnit@icu_56@@QBECABVUObject@1@@Z ENDP		; icu_56::MeasureUnit::operator!=
_TEXT	ENDS
PUBLIC	??0MeasureUnit@icu_56@@AAE@HH@Z			; icu_56::MeasureUnit::MeasureUnit
; Function compile flags: /Odtp /RTCsu /ZI
;	COMDAT ??0MeasureUnit@icu_56@@AAE@HH@Z
_TEXT	SEGMENT
_this$ = -8						; size = 4
_typeId$ = 8						; size = 4
_subTypeId$ = 12					; size = 4
??0MeasureUnit@icu_56@@AAE@HH@Z PROC			; icu_56::MeasureUnit::MeasureUnit, COMDAT
; _this$ = ecx
; Line 1275
	push	ebp
	mov	ebp, esp
	sub	esp, 204				; 000000ccH
	push	ebx
	push	esi
	push	edi
	push	ecx
	lea	edi, DWORD PTR [ebp-204]
	mov	ecx, 51					; 00000033H
	mov	eax, -858993460				; ccccccccH
	rep stosd
	pop	ecx
	mov	DWORD PTR _this$[ebp], ecx
	mov	esi, esp
	mov	ecx, DWORD PTR _this$[ebp]
	call	DWORD PTR __imp_??0UObject@icu_56@@QAE@XZ
	cmp	esi, esp
	call	__RTC_CheckEsp
	mov	eax, DWORD PTR _this$[ebp]
	mov	DWORD PTR [eax], OFFSET ??_7MeasureUnit@icu_56@@6B@
	mov	eax, DWORD PTR _this$[ebp]
	mov	ecx, DWORD PTR _typeId$[ebp]
	mov	DWORD PTR [eax+4], ecx
	mov	eax, DWORD PTR _this$[ebp]
	mov	ecx, DWORD PTR _subTypeId$[ebp]
	mov	DWORD PTR [eax+8], ecx
; Line 1276
	mov	eax, DWORD PTR _this$[ebp]
	mov	BYTE PTR [eax+12], 0
; Line 1277
	mov	eax, DWORD PTR _this$[ebp]
	pop	edi
	pop	esi
	pop	ebx
	add	esp, 204				; 000000ccH
	cmp	ebp, esp
	call	__RTC_CheckEsp
	mov	esp, ebp
	pop	ebp
	ret	8
??0MeasureUnit@icu_56@@AAE@HH@Z ENDP			; icu_56::MeasureUnit::MeasureUnit
_TEXT	ENDS
PUBLIC	??_GMeasureUnit@icu_56@@UAEPAXI@Z		; icu_56::MeasureUnit::`scalar deleting destructor'
EXTRN	??1MeasureUnit@icu_56@@UAE@XZ:PROC		; icu_56::MeasureUnit::~MeasureUnit
; Function compile flags: /Odtp /RTCsu /ZI
;	COMDAT ??_GMeasureUnit@icu_56@@UAEPAXI@Z
_TEXT	SEGMENT
_this$ = -8						; size = 4
___flags$ = 8						; size = 4
??_GMeasureUnit@icu_56@@UAEPAXI@Z PROC			; icu_56::MeasureUnit::`scalar deleting destructor', COMDAT
; _this$ = ecx
	push	ebp
	mov	ebp, esp
	sub	esp, 204				; 000000ccH
	push	ebx
	push	esi
	push	edi
	push	ecx
	lea	edi, DWORD PTR [ebp-204]
	mov	ecx, 51					; 00000033H
	mov	eax, -858993460				; ccccccccH
	rep stosd
	pop	ecx
	mov	DWORD PTR _this$[ebp], ecx
	mov	ecx, DWORD PTR _this$[ebp]
	call	??1MeasureUnit@icu_56@@UAE@XZ		; icu_56::MeasureUnit::~MeasureUnit
	mov	eax, DWORD PTR ___flags$[ebp]
	and	eax, 1
	je	SHORT $LN1@scalar@3
	mov	esi, esp
	mov	eax, DWORD PTR _this$[ebp]
	push	eax
	call	DWORD PTR __imp_??3UMemory@icu_56@@SAXPAX@Z
	add	esp, 4
	cmp	esi, esp
	call	__RTC_CheckEsp
$LN1@scalar@3:
	mov	eax, DWORD PTR _this$[ebp]
	pop	edi
	pop	esi
	pop	ebx
	add	esp, 204				; 000000ccH
	cmp	ebp, esp
	call	__RTC_CheckEsp
	mov	esp, ebp
	pop	ebp
	ret	4
??_GMeasureUnit@icu_56@@UAEPAXI@Z ENDP			; icu_56::MeasureUnit::`scalar deleting destructor'
; Function compile flags: /Odtp /RTCsu /ZI
_TEXT	ENDS
;	COMDAT ??_EMeasureUnit@icu_56@@UAEPAXI@Z
_TEXT	SEGMENT
_this$ = -8						; size = 4
___flags$ = 8						; size = 4
??_EMeasureUnit@icu_56@@UAEPAXI@Z PROC			; icu_56::MeasureUnit::`vector deleting destructor', COMDAT
; _this$ = ecx
	push	ebp
	mov	ebp, esp
	sub	esp, 204				; 000000ccH
	push	ebx
	push	esi
	push	edi
	push	ecx
	lea	edi, DWORD PTR [ebp-204]
	mov	ecx, 51					; 00000033H
	mov	eax, -858993460				; ccccccccH
	rep stosd
	pop	ecx
	mov	DWORD PTR _this$[ebp], ecx
	mov	eax, DWORD PTR ___flags$[ebp]
	and	eax, 2
	je	SHORT $LN3@vector@3
	push	OFFSET ??1MeasureUnit@icu_56@@UAE@XZ	; icu_56::MeasureUnit::~MeasureUnit
	mov	eax, DWORD PTR _this$[ebp]
	mov	ecx, DWORD PTR [eax-4]
	push	ecx
	push	16					; 00000010H
	mov	edx, DWORD PTR _this$[ebp]
	push	edx
	call	??_M@YGXPAXIHP6EX0@Z@Z
	mov	eax, DWORD PTR ___flags$[ebp]
	and	eax, 1
	je	SHORT $LN2@vector@3
	mov	eax, DWORD PTR _this$[ebp]
	sub	eax, 4
	mov	esi, esp
	push	eax
	call	DWORD PTR __imp_??_VUMemory@icu_56@@SAXPAX@Z
	add	esp, 4
	cmp	esi, esp
	call	__RTC_CheckEsp
$LN2@vector@3:
	mov	eax, DWORD PTR _this$[ebp]
	sub	eax, 4
	jmp	SHORT $LN4@vector@3
$LN3@vector@3:
	mov	ecx, DWORD PTR _this$[ebp]
	call	??1MeasureUnit@icu_56@@UAE@XZ		; icu_56::MeasureUnit::~MeasureUnit
	mov	eax, DWORD PTR ___flags$[ebp]
	and	eax, 1
	je	SHORT $LN1@vector@3
	mov	esi, esp
	mov	eax, DWORD PTR _this$[ebp]
	push	eax
	call	DWORD PTR __imp_??3UMemory@icu_56@@SAXPAX@Z
	add	esp, 4
	cmp	esi, esp
	call	__RTC_CheckEsp
$LN1@vector@3:
	mov	eax, DWORD PTR _this$[ebp]
$LN4@vector@3:
	pop	edi
	pop	esi
	pop	ebx
	add	esp, 204				; 000000ccH
	cmp	ebp, esp
	call	__RTC_CheckEsp
	mov	esp, ebp
	pop	ebp
	ret	4
??_EMeasureUnit@icu_56@@UAEPAXI@Z ENDP			; icu_56::MeasureUnit::`vector deleting destructor'
_TEXT	ENDS
PUBLIC	?getISOCurrency@CurrencyUnit@icu_56@@QBEPB_WXZ	; icu_56::CurrencyUnit::getISOCurrency
; Function compile flags: /Odtp /RTCsu /ZI
;	COMDAT ?getISOCurrency@CurrencyUnit@icu_56@@QBEPB_WXZ
_TEXT	SEGMENT
_this$ = -8						; size = 4
?getISOCurrency@CurrencyUnit@icu_56@@QBEPB_WXZ PROC	; icu_56::CurrencyUnit::getISOCurrency, COMDAT
; _this$ = ecx
; File d:\mozilla\intl\icu\source\i18n\unicode\currunit.h
; Line 103
	push	ebp
	mov	ebp, esp
	sub	esp, 204				; 000000ccH
	push	ebx
	push	esi
	push	edi
	push	ecx
	lea	edi, DWORD PTR [ebp-204]
	mov	ecx, 51					; 00000033H
	mov	eax, -858993460				; ccccccccH
	rep stosd
	pop	ecx
	mov	DWORD PTR _this$[ebp], ecx
; Line 104
	mov	eax, DWORD PTR _this$[ebp]
	add	eax, 16					; 00000010H
; Line 105
	pop	edi
	pop	esi
	pop	ebx
	mov	esp, ebp
	pop	ebp
	ret	0
?getISOCurrency@CurrencyUnit@icu_56@@QBEPB_WXZ ENDP	; icu_56::CurrencyUnit::getISOCurrency
_TEXT	ENDS
PUBLIC	?getCurrency@CurrencyAmount@icu_56@@QBEABVCurrencyUnit@2@XZ ; icu_56::CurrencyAmount::getCurrency
; Function compile flags: /Odtp /RTCsu /ZI
;	COMDAT ?getCurrency@CurrencyAmount@icu_56@@QBEABVCurrencyUnit@2@XZ
_TEXT	SEGMENT
_this$ = -8						; size = 4
?getCurrency@CurrencyAmount@icu_56@@QBEABVCurrencyUnit@2@XZ PROC ; icu_56::CurrencyAmount::getCurrency, COMDAT
; _this$ = ecx
; File d:\mozilla\intl\icu\source\i18n\unicode\curramt.h
; Line 119
	push	ebp
	mov	ebp, esp
	sub	esp, 204				; 000000ccH
	push	ebx
	push	esi
	push	edi
	push	ecx
	lea	edi, DWORD PTR [ebp-204]
	mov	ecx, 51					; 00000033H
	mov	eax, -858993460				; ccccccccH
	rep stosd
	pop	ecx
	mov	DWORD PTR _this$[ebp], ecx
; Line 120
	mov	ecx, DWORD PTR _this$[ebp]
	call	?getUnit@Measure@icu_56@@QBEABVMeasureUnit@2@XZ ; icu_56::Measure::getUnit
; Line 121
	pop	edi
	pop	esi
	pop	ebx
	add	esp, 204				; 000000ccH
	cmp	ebp, esp
	call	__RTC_CheckEsp
	mov	esp, ebp
	pop	ebp
	ret	0
?getCurrency@CurrencyAmount@icu_56@@QBEABVCurrencyUnit@2@XZ ENDP ; icu_56::CurrencyAmount::getCurrency
_TEXT	ENDS
PUBLIC	?getISOCurrency@CurrencyAmount@icu_56@@QBEPB_WXZ ; icu_56::CurrencyAmount::getISOCurrency
; Function compile flags: /Odtp /RTCsu /ZI
;	COMDAT ?getISOCurrency@CurrencyAmount@icu_56@@QBEPB_WXZ
_TEXT	SEGMENT
_this$ = -8						; size = 4
?getISOCurrency@CurrencyAmount@icu_56@@QBEPB_WXZ PROC	; icu_56::CurrencyAmount::getISOCurrency, COMDAT
; _this$ = ecx
; Line 123
	push	ebp
	mov	ebp, esp
	sub	esp, 204				; 000000ccH
	push	ebx
	push	esi
	push	edi
	push	ecx
	lea	edi, DWORD PTR [ebp-204]
	mov	ecx, 51					; 00000033H
	mov	eax, -858993460				; ccccccccH
	rep stosd
	pop	ecx
	mov	DWORD PTR _this$[ebp], ecx
; Line 124
	mov	ecx, DWORD PTR _this$[ebp]
	call	?getCurrency@CurrencyAmount@icu_56@@QBEABVCurrencyUnit@2@XZ ; icu_56::CurrencyAmount::getCurrency
	mov	ecx, eax
	call	?getISOCurrency@CurrencyUnit@icu_56@@QBEPB_WXZ ; icu_56::CurrencyUnit::getISOCurrency
; Line 125
	pop	edi
	pop	esi
	pop	ebx
	add	esp, 204				; 000000ccH
	cmp	ebp, esp
	call	__RTC_CheckEsp
	mov	esp, ebp
	pop	ebp
	ret	0
?getISOCurrency@CurrencyAmount@icu_56@@QBEPB_WXZ ENDP	; icu_56::CurrencyAmount::getISOCurrency
_TEXT	ENDS
PUBLIC	??_7NumberFormatFactory@icu_56@@6B@		; icu_56::NumberFormatFactory::`vftable'
PUBLIC	??0NumberFormatFactory@icu_56@@QAE@XZ		; icu_56::NumberFormatFactory::NumberFormatFactory
PUBLIC	??_R4NumberFormatFactory@icu_56@@6B@		; icu_56::NumberFormatFactory::`RTTI Complete Object Locator'
PUBLIC	??_R0?AVNumberFormatFactory@icu_56@@@8		; icu_56::NumberFormatFactory `RTTI Type Descriptor'
PUBLIC	??_R3NumberFormatFactory@icu_56@@8		; icu_56::NumberFormatFactory::`RTTI Class Hierarchy Descriptor'
PUBLIC	??_R2NumberFormatFactory@icu_56@@8		; icu_56::NumberFormatFactory::`RTTI Base Class Array'
PUBLIC	??_R1A@?0A@EA@NumberFormatFactory@icu_56@@8	; icu_56::NumberFormatFactory::`RTTI Base Class Descriptor at (0,-1,0,64)'
PUBLIC	??_ENumberFormatFactory@icu_56@@UAEPAXI@Z	; icu_56::NumberFormatFactory::`vector deleting destructor'
EXTRN	?getDynamicClassID@UObject@icu_56@@UBEPAXXZ:PROC ; icu_56::UObject::getDynamicClassID
EXTRN	__purecall:PROC
;	COMDAT ??_R1A@?0A@EA@NumberFormatFactory@icu_56@@8
rdata$r	SEGMENT
??_R1A@?0A@EA@NumberFormatFactory@icu_56@@8 DD FLAT:??_R0?AVNumberFormatFactory@icu_56@@@8 ; icu_56::NumberFormatFactory::`RTTI Base Class Descriptor at (0,-1,0,64)'
	DD	02H
	DD	00H
	DD	0ffffffffH
	DD	00H
	DD	040H
	DD	FLAT:??_R3NumberFormatFactory@icu_56@@8
rdata$r	ENDS
;	COMDAT ??_R2NumberFormatFactory@icu_56@@8
rdata$r	SEGMENT
??_R2NumberFormatFactory@icu_56@@8 DD FLAT:??_R1A@?0A@EA@NumberFormatFactory@icu_56@@8 ; icu_56::NumberFormatFactory::`RTTI Base Class Array'
	DD	FLAT:??_R1A@?0A@EA@UObject@icu_56@@8
	DD	FLAT:??_R13?0A@EA@UMemory@icu_56@@8
rdata$r	ENDS
;	COMDAT ??_R3NumberFormatFactory@icu_56@@8
rdata$r	SEGMENT
??_R3NumberFormatFactory@icu_56@@8 DD 00H		; icu_56::NumberFormatFactory::`RTTI Class Hierarchy Descriptor'
	DD	00H
	DD	03H
	DD	FLAT:??_R2NumberFormatFactory@icu_56@@8
rdata$r	ENDS
;	COMDAT ??_R0?AVNumberFormatFactory@icu_56@@@8
_DATA	SEGMENT
??_R0?AVNumberFormatFactory@icu_56@@@8 DD FLAT:??_7type_info@@6B@ ; icu_56::NumberFormatFactory `RTTI Type Descriptor'
	DD	00H
	DB	'.?AVNumberFormatFactory@icu_56@@', 00H
_DATA	ENDS
;	COMDAT ??_R4NumberFormatFactory@icu_56@@6B@
rdata$r	SEGMENT
??_R4NumberFormatFactory@icu_56@@6B@ DD 00H		; icu_56::NumberFormatFactory::`RTTI Complete Object Locator'
	DD	00H
	DD	00H
	DD	FLAT:??_R0?AVNumberFormatFactory@icu_56@@@8
	DD	FLAT:??_R3NumberFormatFactory@icu_56@@8
rdata$r	ENDS
;	COMDAT ??_7NumberFormatFactory@icu_56@@6B@
CONST	SEGMENT
??_7NumberFormatFactory@icu_56@@6B@ DD FLAT:??_R4NumberFormatFactory@icu_56@@6B@ ; icu_56::NumberFormatFactory::`vftable'
	DD	FLAT:??_ENumberFormatFactory@icu_56@@UAEPAXI@Z
	DD	FLAT:?getDynamicClassID@UObject@icu_56@@UBEPAXXZ
	DD	FLAT:__purecall
	DD	FLAT:__purecall
	DD	FLAT:__purecall
; Function compile flags: /Odtp /RTCsu /ZI
CONST	ENDS
;	COMDAT ??0NumberFormatFactory@icu_56@@QAE@XZ
_TEXT	SEGMENT
_this$ = -8						; size = 4
??0NumberFormatFactory@icu_56@@QAE@XZ PROC		; icu_56::NumberFormatFactory::NumberFormatFactory, COMDAT
; _this$ = ecx
	push	ebp
	mov	ebp, esp
	sub	esp, 204				; 000000ccH
	push	ebx
	push	esi
	push	edi
	push	ecx
	lea	edi, DWORD PTR [ebp-204]
	mov	ecx, 51					; 00000033H
	mov	eax, -858993460				; ccccccccH
	rep stosd
	pop	ecx
	mov	DWORD PTR _this$[ebp], ecx
	mov	esi, esp
	mov	ecx, DWORD PTR _this$[ebp]
	call	DWORD PTR __imp_??0UObject@icu_56@@QAE@XZ
	cmp	esi, esp
	call	__RTC_CheckEsp
	mov	eax, DWORD PTR _this$[ebp]
	mov	DWORD PTR [eax], OFFSET ??_7NumberFormatFactory@icu_56@@6B@
	mov	eax, DWORD PTR _this$[ebp]
	pop	edi
	pop	esi
	pop	ebx
	add	esp, 204				; 000000ccH
	cmp	ebp, esp
	call	__RTC_CheckEsp
	mov	esp, ebp
	pop	ebp
	ret	0
??0NumberFormatFactory@icu_56@@QAE@XZ ENDP		; icu_56::NumberFormatFactory::NumberFormatFactory
_TEXT	ENDS
PUBLIC	??0NumberFormatFactory@icu_56@@QAE@ABV01@@Z	; icu_56::NumberFormatFactory::NumberFormatFactory
; Function compile flags: /Odtp /RTCsu /ZI
;	COMDAT ??0NumberFormatFactory@icu_56@@QAE@ABV01@@Z
_TEXT	SEGMENT
_this$ = -8						; size = 4
___that$ = 8						; size = 4
??0NumberFormatFactory@icu_56@@QAE@ABV01@@Z PROC	; icu_56::NumberFormatFactory::NumberFormatFactory, COMDAT
; _this$ = ecx
	push	ebp
	mov	ebp, esp
	sub	esp, 204				; 000000ccH
	push	ebx
	push	esi
	push	edi
	push	ecx
	lea	edi, DWORD PTR [ebp-204]
	mov	ecx, 51					; 00000033H
	mov	eax, -858993460				; ccccccccH
	rep stosd
	pop	ecx
	mov	DWORD PTR _this$[ebp], ecx
	mov	esi, esp
	mov	eax, DWORD PTR ___that$[ebp]
	push	eax
	mov	ecx, DWORD PTR _this$[ebp]
	call	DWORD PTR __imp_??0UObject@icu_56@@QAE@ABV01@@Z
	cmp	esi, esp
	call	__RTC_CheckEsp
	mov	eax, DWORD PTR _this$[ebp]
	mov	DWORD PTR [eax], OFFSET ??_7NumberFormatFactory@icu_56@@6B@
	mov	eax, DWORD PTR _this$[ebp]
	pop	edi
	pop	esi
	pop	ebx
	add	esp, 204				; 000000ccH
	cmp	ebp, esp
	call	__RTC_CheckEsp
	mov	esp, ebp
	pop	ebp
	ret	4
??0NumberFormatFactory@icu_56@@QAE@ABV01@@Z ENDP	; icu_56::NumberFormatFactory::NumberFormatFactory
_TEXT	ENDS
PUBLIC	??4NumberFormatFactory@icu_56@@QAEAAV01@ABV01@@Z ; icu_56::NumberFormatFactory::operator=
; Function compile flags: /Odtp /RTCsu /ZI
;	COMDAT ??4NumberFormatFactory@icu_56@@QAEAAV01@ABV01@@Z
_TEXT	SEGMENT
_this$ = -8						; size = 4
___that$ = 8						; size = 4
??4NumberFormatFactory@icu_56@@QAEAAV01@ABV01@@Z PROC	; icu_56::NumberFormatFactory::operator=, COMDAT
; _this$ = ecx
	push	ebp
	mov	ebp, esp
	sub	esp, 204				; 000000ccH
	push	ebx
	push	esi
	push	edi
	push	ecx
	lea	edi, DWORD PTR [ebp-204]
	mov	ecx, 51					; 00000033H
	mov	eax, -858993460				; ccccccccH
	rep stosd
	pop	ecx
	mov	DWORD PTR _this$[ebp], ecx
	mov	esi, esp
	mov	eax, DWORD PTR ___that$[ebp]
	push	eax
	mov	ecx, DWORD PTR _this$[ebp]
	call	DWORD PTR __imp_??4UObject@icu_56@@QAEAAV01@ABV01@@Z
	cmp	esi, esp
	call	__RTC_CheckEsp
	mov	eax, DWORD PTR _this$[ebp]
	pop	edi
	pop	esi
	pop	ebx
	add	esp, 204				; 000000ccH
	cmp	ebp, esp
	call	__RTC_CheckEsp
	mov	esp, ebp
	pop	ebp
	ret	4
??4NumberFormatFactory@icu_56@@QAEAAV01@ABV01@@Z ENDP	; icu_56::NumberFormatFactory::operator=
_TEXT	ENDS
PUBLIC	??_GNumberFormatFactory@icu_56@@UAEPAXI@Z	; icu_56::NumberFormatFactory::`scalar deleting destructor'
EXTRN	??1NumberFormatFactory@icu_56@@UAE@XZ:PROC	; icu_56::NumberFormatFactory::~NumberFormatFactory
; Function compile flags: /Odtp /RTCsu /ZI
;	COMDAT ??_GNumberFormatFactory@icu_56@@UAEPAXI@Z
_TEXT	SEGMENT
_this$ = -8						; size = 4
___flags$ = 8						; size = 4
??_GNumberFormatFactory@icu_56@@UAEPAXI@Z PROC		; icu_56::NumberFormatFactory::`scalar deleting destructor', COMDAT
; _this$ = ecx
	push	ebp
	mov	ebp, esp
	sub	esp, 204				; 000000ccH
	push	ebx
	push	esi
	push	edi
	push	ecx
	lea	edi, DWORD PTR [ebp-204]
	mov	ecx, 51					; 00000033H
	mov	eax, -858993460				; ccccccccH
	rep stosd
	pop	ecx
	mov	DWORD PTR _this$[ebp], ecx
	mov	ecx, DWORD PTR _this$[ebp]
	call	??1NumberFormatFactory@icu_56@@UAE@XZ	; icu_56::NumberFormatFactory::~NumberFormatFactory
	mov	eax, DWORD PTR ___flags$[ebp]
	and	eax, 1
	je	SHORT $LN1@scalar@4
	mov	esi, esp
	mov	eax, DWORD PTR _this$[ebp]
	push	eax
	call	DWORD PTR __imp_??3UMemory@icu_56@@SAXPAX@Z
	add	esp, 4
	cmp	esi, esp
	call	__RTC_CheckEsp
$LN1@scalar@4:
	mov	eax, DWORD PTR _this$[ebp]
	pop	edi
	pop	esi
	pop	ebx
	add	esp, 204				; 000000ccH
	cmp	ebp, esp
	call	__RTC_CheckEsp
	mov	esp, ebp
	pop	ebp
	ret	4
??_GNumberFormatFactory@icu_56@@UAEPAXI@Z ENDP		; icu_56::NumberFormatFactory::`scalar deleting destructor'
; Function compile flags: /Odtp /RTCsu /ZI
_TEXT	ENDS
;	COMDAT ??_ENumberFormatFactory@icu_56@@UAEPAXI@Z
_TEXT	SEGMENT
_this$ = -8						; size = 4
___flags$ = 8						; size = 4
??_ENumberFormatFactory@icu_56@@UAEPAXI@Z PROC		; icu_56::NumberFormatFactory::`vector deleting destructor', COMDAT
; _this$ = ecx
	push	ebp
	mov	ebp, esp
	sub	esp, 204				; 000000ccH
	push	ebx
	push	esi
	push	edi
	push	ecx
	lea	edi, DWORD PTR [ebp-204]
	mov	ecx, 51					; 00000033H
	mov	eax, -858993460				; ccccccccH
	rep stosd
	pop	ecx
	mov	DWORD PTR _this$[ebp], ecx
	mov	eax, DWORD PTR ___flags$[ebp]
	and	eax, 2
	je	SHORT $LN3@vector@4
	push	OFFSET ??1NumberFormatFactory@icu_56@@UAE@XZ ; icu_56::NumberFormatFactory::~NumberFormatFactory
	mov	eax, DWORD PTR _this$[ebp]
	mov	ecx, DWORD PTR [eax-4]
	push	ecx
	push	4
	mov	edx, DWORD PTR _this$[ebp]
	push	edx
	call	??_M@YGXPAXIHP6EX0@Z@Z
	mov	eax, DWORD PTR ___flags$[ebp]
	and	eax, 1
	je	SHORT $LN2@vector@4
	mov	eax, DWORD PTR _this$[ebp]
	sub	eax, 4
	mov	esi, esp
	push	eax
	call	DWORD PTR __imp_??_VUMemory@icu_56@@SAXPAX@Z
	add	esp, 4
	cmp	esi, esp
	call	__RTC_CheckEsp
$LN2@vector@4:
	mov	eax, DWORD PTR _this$[ebp]
	sub	eax, 4
	jmp	SHORT $LN4@vector@4
$LN3@vector@4:
	mov	ecx, DWORD PTR _this$[ebp]
	call	??1NumberFormatFactory@icu_56@@UAE@XZ	; icu_56::NumberFormatFactory::~NumberFormatFactory
	mov	eax, DWORD PTR ___flags$[ebp]
	and	eax, 1
	je	SHORT $LN1@vector@4
	mov	esi, esp
	mov	eax, DWORD PTR _this$[ebp]
	push	eax
	call	DWORD PTR __imp_??3UMemory@icu_56@@SAXPAX@Z
	add	esp, 4
	cmp	esi, esp
	call	__RTC_CheckEsp
$LN1@vector@4:
	mov	eax, DWORD PTR _this$[ebp]
$LN4@vector@4:
	pop	edi
	pop	esi
	pop	ebx
	add	esp, 204				; 000000ccH
	cmp	ebp, esp
	call	__RTC_CheckEsp
	mov	esp, ebp
	pop	ebp
	ret	4
??_ENumberFormatFactory@icu_56@@UAEPAXI@Z ENDP		; icu_56::NumberFormatFactory::`vector deleting destructor'
_TEXT	ENDS
PUBLIC	??_7SimpleNumberFormatFactory@icu_56@@6B@	; icu_56::SimpleNumberFormatFactory::`vftable'
PUBLIC	??0SimpleNumberFormatFactory@icu_56@@QAE@ABV01@@Z ; icu_56::SimpleNumberFormatFactory::SimpleNumberFormatFactory
PUBLIC	??_R4SimpleNumberFormatFactory@icu_56@@6B@	; icu_56::SimpleNumberFormatFactory::`RTTI Complete Object Locator'
PUBLIC	??_R0?AVSimpleNumberFormatFactory@icu_56@@@8	; icu_56::SimpleNumberFormatFactory `RTTI Type Descriptor'
PUBLIC	??_R3SimpleNumberFormatFactory@icu_56@@8	; icu_56::SimpleNumberFormatFactory::`RTTI Class Hierarchy Descriptor'
PUBLIC	??_R2SimpleNumberFormatFactory@icu_56@@8	; icu_56::SimpleNumberFormatFactory::`RTTI Base Class Array'
PUBLIC	??_R1A@?0A@EA@SimpleNumberFormatFactory@icu_56@@8 ; icu_56::SimpleNumberFormatFactory::`RTTI Base Class Descriptor at (0,-1,0,64)'
PUBLIC	??_ESimpleNumberFormatFactory@icu_56@@UAEPAXI@Z	; icu_56::SimpleNumberFormatFactory::`vector deleting destructor'
EXTRN	?visible@SimpleNumberFormatFactory@icu_56@@UBECXZ:PROC ; icu_56::SimpleNumberFormatFactory::visible
EXTRN	?getSupportedIDs@SimpleNumberFormatFactory@icu_56@@UBEPBVUnicodeString@2@AAHAAW4UErrorCode@@@Z:PROC ; icu_56::SimpleNumberFormatFactory::getSupportedIDs
;	COMDAT ??_R1A@?0A@EA@SimpleNumberFormatFactory@icu_56@@8
rdata$r	SEGMENT
??_R1A@?0A@EA@SimpleNumberFormatFactory@icu_56@@8 DD FLAT:??_R0?AVSimpleNumberFormatFactory@icu_56@@@8 ; icu_56::SimpleNumberFormatFactory::`RTTI Base Class Descriptor at (0,-1,0,64)'
	DD	03H
	DD	00H
	DD	0ffffffffH
	DD	00H
	DD	040H
	DD	FLAT:??_R3SimpleNumberFormatFactory@icu_56@@8
rdata$r	ENDS
;	COMDAT ??_R2SimpleNumberFormatFactory@icu_56@@8
rdata$r	SEGMENT
??_R2SimpleNumberFormatFactory@icu_56@@8 DD FLAT:??_R1A@?0A@EA@SimpleNumberFormatFactory@icu_56@@8 ; icu_56::SimpleNumberFormatFactory::`RTTI Base Class Array'
	DD	FLAT:??_R1A@?0A@EA@NumberFormatFactory@icu_56@@8
	DD	FLAT:??_R1A@?0A@EA@UObject@icu_56@@8
	DD	FLAT:??_R13?0A@EA@UMemory@icu_56@@8
rdata$r	ENDS
;	COMDAT ??_R3SimpleNumberFormatFactory@icu_56@@8
rdata$r	SEGMENT
??_R3SimpleNumberFormatFactory@icu_56@@8 DD 00H		; icu_56::SimpleNumberFormatFactory::`RTTI Class Hierarchy Descriptor'
	DD	00H
	DD	04H
	DD	FLAT:??_R2SimpleNumberFormatFactory@icu_56@@8
rdata$r	ENDS
;	COMDAT ??_R0?AVSimpleNumberFormatFactory@icu_56@@@8
_DATA	SEGMENT
??_R0?AVSimpleNumberFormatFactory@icu_56@@@8 DD FLAT:??_7type_info@@6B@ ; icu_56::SimpleNumberFormatFactory `RTTI Type Descriptor'
	DD	00H
	DB	'.?AVSimpleNumberFormatFactory@icu_56@@', 00H
_DATA	ENDS
;	COMDAT ??_R4SimpleNumberFormatFactory@icu_56@@6B@
rdata$r	SEGMENT
??_R4SimpleNumberFormatFactory@icu_56@@6B@ DD 00H	; icu_56::SimpleNumberFormatFactory::`RTTI Complete Object Locator'
	DD	00H
	DD	00H
	DD	FLAT:??_R0?AVSimpleNumberFormatFactory@icu_56@@@8
	DD	FLAT:??_R3SimpleNumberFormatFactory@icu_56@@8
rdata$r	ENDS
;	COMDAT ??_7SimpleNumberFormatFactory@icu_56@@6B@
CONST	SEGMENT
??_7SimpleNumberFormatFactory@icu_56@@6B@ DD FLAT:??_R4SimpleNumberFormatFactory@icu_56@@6B@ ; icu_56::SimpleNumberFormatFactory::`vftable'
	DD	FLAT:??_ESimpleNumberFormatFactory@icu_56@@UAEPAXI@Z
	DD	FLAT:?getDynamicClassID@UObject@icu_56@@UBEPAXXZ
	DD	FLAT:?visible@SimpleNumberFormatFactory@icu_56@@UBECXZ
	DD	FLAT:?getSupportedIDs@SimpleNumberFormatFactory@icu_56@@UBEPBVUnicodeString@2@AAHAAW4UErrorCode@@@Z
	DD	FLAT:__purecall
CONST	ENDS
;	COMDAT xdata$x
xdata$x	SEGMENT
__unwindtable$??0SimpleNumberFormatFactory@icu_56@@QAE@ABV01@@Z DD 0ffffffffH
	DD	FLAT:__unwindfunclet$??0SimpleNumberFormatFactory@icu_56@@QAE@ABV01@@Z$0
__ehfuncinfo$??0SimpleNumberFormatFactory@icu_56@@QAE@ABV01@@Z DD 019930522H
	DD	01H
	DD	FLAT:__unwindtable$??0SimpleNumberFormatFactory@icu_56@@QAE@ABV01@@Z
	DD	2 DUP(00H)
	DD	2 DUP(00H)
	DD	00H
	DD	01H
; Function compile flags: /Odtp /RTCsu /ZI
xdata$x	ENDS
;	COMDAT ??0SimpleNumberFormatFactory@icu_56@@QAE@ABV01@@Z
_TEXT	SEGMENT
_this$ = -20						; size = 4
__$EHRec$ = -12						; size = 12
___that$ = 8						; size = 4
??0SimpleNumberFormatFactory@icu_56@@QAE@ABV01@@Z PROC	; icu_56::SimpleNumberFormatFactory::SimpleNumberFormatFactory, COMDAT
; _this$ = ecx
	push	ebp
	mov	ebp, esp
	push	-1
	push	__ehhandler$??0SimpleNumberFormatFactory@icu_56@@QAE@ABV01@@Z
	mov	eax, DWORD PTR fs:0
	push	eax
	sub	esp, 204				; 000000ccH
	push	ebx
	push	esi
	push	edi
	push	ecx
	lea	edi, DWORD PTR [ebp-216]
	mov	ecx, 51					; 00000033H
	mov	eax, -858993460				; ccccccccH
	rep stosd
	pop	ecx
	mov	eax, DWORD PTR ___security_cookie
	xor	eax, ebp
	push	eax
	lea	eax, DWORD PTR __$EHRec$[ebp]
	mov	DWORD PTR fs:0, eax
	mov	DWORD PTR _this$[ebp], ecx
	mov	eax, DWORD PTR ___that$[ebp]
	push	eax
	mov	ecx, DWORD PTR _this$[ebp]
	call	??0NumberFormatFactory@icu_56@@QAE@ABV01@@Z
	mov	DWORD PTR __$EHRec$[ebp+8], 0
	mov	eax, DWORD PTR _this$[ebp]
	mov	DWORD PTR [eax], OFFSET ??_7SimpleNumberFormatFactory@icu_56@@6B@
	mov	eax, DWORD PTR _this$[ebp]
	mov	ecx, DWORD PTR ___that$[ebp]
	mov	dl, BYTE PTR [ecx+4]
	mov	BYTE PTR [eax+4], dl
	mov	eax, DWORD PTR ___that$[ebp]
	add	eax, 8
	mov	esi, esp
	push	eax
	mov	ecx, DWORD PTR _this$[ebp]
	add	ecx, 8
	call	DWORD PTR __imp_??0UnicodeString@icu_56@@QAE@ABV01@@Z
	cmp	esi, esp
	call	__RTC_CheckEsp
	mov	DWORD PTR __$EHRec$[ebp+8], -1
	mov	eax, DWORD PTR _this$[ebp]
	mov	ecx, DWORD PTR __$EHRec$[ebp]
	mov	DWORD PTR fs:0, ecx
	pop	ecx
	pop	edi
	pop	esi
	pop	ebx
	add	esp, 216				; 000000d8H
	cmp	ebp, esp
	call	__RTC_CheckEsp
	mov	esp, ebp
	pop	ebp
	ret	4
_TEXT	ENDS
;	COMDAT text$x
text$x	SEGMENT
__unwindfunclet$??0SimpleNumberFormatFactory@icu_56@@QAE@ABV01@@Z$0:
	mov	ecx, DWORD PTR _this$[ebp]
	jmp	??1NumberFormatFactory@icu_56@@UAE@XZ	; icu_56::NumberFormatFactory::~NumberFormatFactory
__ehhandler$??0SimpleNumberFormatFactory@icu_56@@QAE@ABV01@@Z:
	mov	edx, DWORD PTR [esp+8]
	lea	eax, DWORD PTR [edx+12]
	mov	ecx, DWORD PTR [edx-220]
	xor	ecx, eax
	call	@__security_check_cookie@4
	mov	eax, OFFSET __ehfuncinfo$??0SimpleNumberFormatFactory@icu_56@@QAE@ABV01@@Z
	jmp	___CxxFrameHandler3
text$x	ENDS
??0SimpleNumberFormatFactory@icu_56@@QAE@ABV01@@Z ENDP	; icu_56::SimpleNumberFormatFactory::SimpleNumberFormatFactory
PUBLIC	??_GSimpleNumberFormatFactory@icu_56@@UAEPAXI@Z	; icu_56::SimpleNumberFormatFactory::`scalar deleting destructor'
EXTRN	??1SimpleNumberFormatFactory@icu_56@@UAE@XZ:PROC ; icu_56::SimpleNumberFormatFactory::~SimpleNumberFormatFactory
; Function compile flags: /Odtp /RTCsu /ZI
;	COMDAT ??_GSimpleNumberFormatFactory@icu_56@@UAEPAXI@Z
_TEXT	SEGMENT
_this$ = -8						; size = 4
___flags$ = 8						; size = 4
??_GSimpleNumberFormatFactory@icu_56@@UAEPAXI@Z PROC	; icu_56::SimpleNumberFormatFactory::`scalar deleting destructor', COMDAT
; _this$ = ecx
	push	ebp
	mov	ebp, esp
	sub	esp, 204				; 000000ccH
	push	ebx
	push	esi
	push	edi
	push	ecx
	lea	edi, DWORD PTR [ebp-204]
	mov	ecx, 51					; 00000033H
	mov	eax, -858993460				; ccccccccH
	rep stosd
	pop	ecx
	mov	DWORD PTR _this$[ebp], ecx
	mov	ecx, DWORD PTR _this$[ebp]
	call	??1SimpleNumberFormatFactory@icu_56@@UAE@XZ ; icu_56::SimpleNumberFormatFactory::~SimpleNumberFormatFactory
	mov	eax, DWORD PTR ___flags$[ebp]
	and	eax, 1
	je	SHORT $LN1@scalar@5
	mov	esi, esp
	mov	eax, DWORD PTR _this$[ebp]
	push	eax
	call	DWORD PTR __imp_??3UMemory@icu_56@@SAXPAX@Z
	add	esp, 4
	cmp	esi, esp
	call	__RTC_CheckEsp
$LN1@scalar@5:
	mov	eax, DWORD PTR _this$[ebp]
	pop	edi
	pop	esi
	pop	ebx
	add	esp, 204				; 000000ccH
	cmp	ebp, esp
	call	__RTC_CheckEsp
	mov	esp, ebp
	pop	ebp
	ret	4
??_GSimpleNumberFormatFactory@icu_56@@UAEPAXI@Z ENDP	; icu_56::SimpleNumberFormatFactory::`scalar deleting destructor'
; Function compile flags: /Odtp /RTCsu /ZI
_TEXT	ENDS
;	COMDAT ??_ESimpleNumberFormatFactory@icu_56@@UAEPAXI@Z
_TEXT	SEGMENT
_this$ = -8						; size = 4
___flags$ = 8						; size = 4
??_ESimpleNumberFormatFactory@icu_56@@UAEPAXI@Z PROC	; icu_56::SimpleNumberFormatFactory::`vector deleting destructor', COMDAT
; _this$ = ecx
	push	ebp
	mov	ebp, esp
	sub	esp, 204				; 000000ccH
	push	ebx
	push	esi
	push	edi
	push	ecx
	lea	edi, DWORD PTR [ebp-204]
	mov	ecx, 51					; 00000033H
	mov	eax, -858993460				; ccccccccH
	rep stosd
	pop	ecx
	mov	DWORD PTR _this$[ebp], ecx
	mov	eax, DWORD PTR ___flags$[ebp]
	and	eax, 2
	je	SHORT $LN3@vector@5
	push	OFFSET ??1SimpleNumberFormatFactory@icu_56@@UAE@XZ ; icu_56::SimpleNumberFormatFactory::~SimpleNumberFormatFactory
	mov	eax, DWORD PTR _this$[ebp]
	mov	ecx, DWORD PTR [eax-4]
	push	ecx
	push	72					; 00000048H
	mov	edx, DWORD PTR _this$[ebp]
	push	edx
	call	??_M@YGXPAXIHP6EX0@Z@Z
	mov	eax, DWORD PTR ___flags$[ebp]
	and	eax, 1
	je	SHORT $LN2@vector@5
	mov	eax, DWORD PTR _this$[ebp]
	sub	eax, 4
	mov	esi, esp
	push	eax
	call	DWORD PTR __imp_??_VUMemory@icu_56@@SAXPAX@Z
	add	esp, 4
	cmp	esi, esp
	call	__RTC_CheckEsp
$LN2@vector@5:
	mov	eax, DWORD PTR _this$[ebp]
	sub	eax, 4
	jmp	SHORT $LN4@vector@5
$LN3@vector@5:
	mov	ecx, DWORD PTR _this$[ebp]
	call	??1SimpleNumberFormatFactory@icu_56@@UAE@XZ ; icu_56::SimpleNumberFormatFactory::~SimpleNumberFormatFactory
	mov	eax, DWORD PTR ___flags$[ebp]
	and	eax, 1
	je	SHORT $LN1@vector@5
	mov	esi, esp
	mov	eax, DWORD PTR _this$[ebp]
	push	eax
	call	DWORD PTR __imp_??3UMemory@icu_56@@SAXPAX@Z
	add	esp, 4
	cmp	esi, esp
	call	__RTC_CheckEsp
$LN1@vector@5:
	mov	eax, DWORD PTR _this$[ebp]
$LN4@vector@5:
	pop	edi
	pop	esi
	pop	ebx
	add	esp, 204				; 000000ccH
	cmp	ebp, esp
	call	__RTC_CheckEsp
	mov	esp, ebp
	pop	ebp
	ret	4
??_ESimpleNumberFormatFactory@icu_56@@UAEPAXI@Z ENDP	; icu_56::SimpleNumberFormatFactory::`vector deleting destructor'
_TEXT	ENDS
PUBLIC	?isParseIntegerOnly@NumberFormat@icu_56@@QBECXZ	; icu_56::NumberFormat::isParseIntegerOnly
; Function compile flags: /Odtp /RTCsu /ZI
;	COMDAT ?isParseIntegerOnly@NumberFormat@icu_56@@QBECXZ
_TEXT	SEGMENT
_this$ = -8						; size = 4
?isParseIntegerOnly@NumberFormat@icu_56@@QBECXZ PROC	; icu_56::NumberFormat::isParseIntegerOnly, COMDAT
; _this$ = ecx
; File d:\mozilla\intl\icu\source\i18n\unicode\numfmt.h
; Line 1170
	push	ebp
	mov	ebp, esp
	sub	esp, 204				; 000000ccH
	push	ebx
	push	esi
	push	edi
	push	ecx
	lea	edi, DWORD PTR [ebp-204]
	mov	ecx, 51					; 00000033H
	mov	eax, -858993460				; ccccccccH
	rep stosd
	pop	ecx
	mov	DWORD PTR _this$[ebp], ecx
; Line 1171
	mov	eax, DWORD PTR _this$[ebp]
	mov	al, BYTE PTR [eax+340]
; Line 1172
	pop	edi
	pop	esi
	pop	ebx
	mov	esp, ebp
	pop	ebp
	ret	0
?isParseIntegerOnly@NumberFormat@icu_56@@QBECXZ ENDP	; icu_56::NumberFormat::isParseIntegerOnly
_TEXT	ENDS
PUBLIC	?isLenient@NumberFormat@icu_56@@UBECXZ		; icu_56::NumberFormat::isLenient
; Function compile flags: /Odtp /RTCsu /ZI
;	COMDAT ?isLenient@NumberFormat@icu_56@@UBECXZ
_TEXT	SEGMENT
_this$ = -8						; size = 4
?isLenient@NumberFormat@icu_56@@UBECXZ PROC		; icu_56::NumberFormat::isLenient, COMDAT
; _this$ = ecx
; Line 1176
	push	ebp
	mov	ebp, esp
	sub	esp, 204				; 000000ccH
	push	ebx
	push	esi
	push	edi
	push	ecx
	lea	edi, DWORD PTR [ebp-204]
	mov	ecx, 51					; 00000033H
	mov	eax, -858993460				; ccccccccH
	rep stosd
	pop	ecx
	mov	DWORD PTR _this$[ebp], ecx
; Line 1177
	mov	eax, DWORD PTR _this$[ebp]
	mov	al, BYTE PTR [eax+341]
; Line 1178
	pop	edi
	pop	esi
	pop	ebx
	mov	esp, ebp
	pop	ebp
	ret	0
?isLenient@NumberFormat@icu_56@@UBECXZ ENDP		; icu_56::NumberFormat::isLenient
_TEXT	ENDS
PUBLIC	??9DigitList@icu_56@@QBECABV01@@Z		; icu_56::DigitList::operator!=
EXTRN	??8DigitList@icu_56@@QBECABV01@@Z:PROC		; icu_56::DigitList::operator==
; Function compile flags: /Odtp /RTCsu /ZI
;	COMDAT ??9DigitList@icu_56@@QBECABV01@@Z
_TEXT	SEGMENT
_this$ = -8						; size = 4
_other$ = 8						; size = 4
??9DigitList@icu_56@@QBECABV01@@Z PROC			; icu_56::DigitList::operator!=, COMDAT
; _this$ = ecx
; File d:\mozilla\intl\icu\source\i18n\digitlst.h
; Line 156
	push	ebp
	mov	ebp, esp
	sub	esp, 204				; 000000ccH
	push	ebx
	push	esi
	push	edi
	push	ecx
	lea	edi, DWORD PTR [ebp-204]
	mov	ecx, 51					; 00000033H
	mov	eax, -858993460				; ccccccccH
	rep stosd
	pop	ecx
	mov	DWORD PTR _this$[ebp], ecx
	mov	eax, DWORD PTR _other$[ebp]
	push	eax
	mov	ecx, DWORD PTR _this$[ebp]
	call	??8DigitList@icu_56@@QBECABV01@@Z	; icu_56::DigitList::operator==
	movsx	ecx, al
	test	ecx, ecx
	sete	al
	pop	edi
	pop	esi
	pop	ebx
	add	esp, 204				; 000000ccH
	cmp	ebp, esp
	call	__RTC_CheckEsp
	mov	esp, ebp
	pop	ebp
	ret	4
??9DigitList@icu_56@@QBECABV01@@Z ENDP			; icu_56::DigitList::operator!=
_TEXT	ENDS
PUBLIC	?isNaN@DigitList@icu_56@@QBECXZ			; icu_56::DigitList::isNaN
; Function compile flags: /Odtp /RTCsu /ZI
;	COMDAT ?isNaN@DigitList@icu_56@@QBECXZ
_TEXT	SEGMENT
_this$ = -8						; size = 4
?isNaN@DigitList@icu_56@@QBECXZ PROC			; icu_56::DigitList::isNaN, COMDAT
; _this$ = ecx
; Line 297
	push	ebp
	mov	ebp, esp
	sub	esp, 204				; 000000ccH
	push	ebx
	push	esi
	push	edi
	push	ecx
	lea	edi, DWORD PTR [ebp-204]
	mov	ecx, 51					; 00000033H
	mov	eax, -858993460				; ccccccccH
	rep stosd
	pop	ecx
	mov	DWORD PTR _this$[ebp], ecx
	mov	eax, DWORD PTR _this$[ebp]
	mov	ecx, DWORD PTR [eax+28]
	movzx	edx, BYTE PTR [ecx+8]
	and	edx, 48					; 00000030H
	setne	al
	pop	edi
	pop	esi
	pop	ebx
	mov	esp, ebp
	pop	ebp
	ret	0
?isNaN@DigitList@icu_56@@QBECXZ ENDP			; icu_56::DigitList::isNaN
_TEXT	ENDS
PUBLIC	?isInfinite@DigitList@icu_56@@QBECXZ		; icu_56::DigitList::isInfinite
; Function compile flags: /Odtp /RTCsu /ZI
;	COMDAT ?isInfinite@DigitList@icu_56@@QBECXZ
_TEXT	SEGMENT
_this$ = -8						; size = 4
?isInfinite@DigitList@icu_56@@QBECXZ PROC		; icu_56::DigitList::isInfinite, COMDAT
; _this$ = ecx
; Line 299
	push	ebp
	mov	ebp, esp
	sub	esp, 204				; 000000ccH
	push	ebx
	push	esi
	push	edi
	push	ecx
	lea	edi, DWORD PTR [ebp-204]
	mov	ecx, 51					; 00000033H
	mov	eax, -858993460				; ccccccccH
	rep stosd
	pop	ecx
	mov	DWORD PTR _this$[ebp], ecx
	mov	eax, DWORD PTR _this$[ebp]
	mov	ecx, DWORD PTR [eax+28]
	movzx	edx, BYTE PTR [ecx+8]
	and	edx, 64					; 00000040H
	setne	al
	pop	edi
	pop	esi
	pop	ebx
	mov	esp, ebp
	pop	ebp
	ret	0
?isInfinite@DigitList@icu_56@@QBECXZ ENDP		; icu_56::DigitList::isInfinite
_TEXT	ENDS
PUBLIC	?setToZero@DigitList@icu_56@@QAEXXZ		; icu_56::DigitList::setToZero
EXTRN	_uprv_decNumberZero_56:PROC
; Function compile flags: /Odtp /RTCsu /ZI
;	COMDAT ?setToZero@DigitList@icu_56@@QAEXXZ
_TEXT	SEGMENT
_this$ = -8						; size = 4
?setToZero@DigitList@icu_56@@QAEXXZ PROC		; icu_56::DigitList::setToZero, COMDAT
; _this$ = ecx
; Line 308
	push	ebp
	mov	ebp, esp
	sub	esp, 204				; 000000ccH
	push	ebx
	push	esi
	push	edi
	push	ecx
	lea	edi, DWORD PTR [ebp-204]
	mov	ecx, 51					; 00000033H
	mov	eax, -858993460				; ccccccccH
	rep stosd
	pop	ecx
	mov	DWORD PTR _this$[ebp], ecx
	mov	eax, DWORD PTR _this$[ebp]
	mov	ecx, DWORD PTR [eax+28]
	push	ecx
	call	_uprv_decNumberZero_56
	add	esp, 4
	pop	edi
	pop	esi
	pop	ebx
	add	esp, 204				; 000000ccH
	cmp	ebp, esp
	call	__RTC_CheckEsp
	mov	esp, ebp
	pop	ebp
	ret	0
?setToZero@DigitList@icu_56@@QAEXXZ ENDP		; icu_56::DigitList::setToZero
_TEXT	ENDS
PUBLIC	?digits@DigitList@icu_56@@QBEHXZ		; icu_56::DigitList::digits
; Function compile flags: /Odtp /RTCsu /ZI
;	COMDAT ?digits@DigitList@icu_56@@QBEHXZ
_TEXT	SEGMENT
_this$ = -8						; size = 4
?digits@DigitList@icu_56@@QBEHXZ PROC			; icu_56::DigitList::digits, COMDAT
; _this$ = ecx
; Line 311
	push	ebp
	mov	ebp, esp
	sub	esp, 204				; 000000ccH
	push	ebx
	push	esi
	push	edi
	push	ecx
	lea	edi, DWORD PTR [ebp-204]
	mov	ecx, 51					; 00000033H
	mov	eax, -858993460				; ccccccccH
	rep stosd
	pop	ecx
	mov	DWORD PTR _this$[ebp], ecx
	mov	eax, DWORD PTR _this$[ebp]
	mov	ecx, DWORD PTR [eax+28]
	mov	eax, DWORD PTR [ecx]
	pop	edi
	pop	esi
	pop	ebx
	mov	esp, ebp
	pop	ebp
	ret	0
?digits@DigitList@icu_56@@QBEHXZ ENDP			; icu_56::DigitList::digits
_TEXT	ENDS
PUBLIC	?isPositive@DigitList@icu_56@@QBECXZ		; icu_56::DigitList::isPositive
; Function compile flags: /Odtp /RTCsu /ZI
;	COMDAT ?isPositive@DigitList@icu_56@@QBECXZ
_TEXT	SEGMENT
_this$ = -8						; size = 4
?isPositive@DigitList@icu_56@@QBECXZ PROC		; icu_56::DigitList::isPositive, COMDAT
; _this$ = ecx
; Line 329
	push	ebp
	mov	ebp, esp
	sub	esp, 204				; 000000ccH
	push	ebx
	push	esi
	push	edi
	push	ecx
	lea	edi, DWORD PTR [ebp-204]
	mov	ecx, 51					; 00000033H
	mov	eax, -858993460				; ccccccccH
	rep stosd
	pop	ecx
	mov	DWORD PTR _this$[ebp], ecx
	mov	eax, DWORD PTR _this$[ebp]
	mov	ecx, DWORD PTR [eax+28]
	movzx	edx, BYTE PTR [ecx+8]
	and	edx, 128				; 00000080H
	neg	edx
	sbb	edx, edx
	neg	edx
	sete	al
	pop	edi
	pop	esi
	pop	ebx
	mov	esp, ebp
	pop	ebp
	ret	0
?isPositive@DigitList@icu_56@@QBECXZ ENDP		; icu_56::DigitList::isPositive
_TEXT	ENDS
PUBLIC	?getLowerExponent@DigitList@icu_56@@QBEHXZ	; icu_56::DigitList::getLowerExponent
; Function compile flags: /Odtp /RTCsu /ZI
;	COMDAT ?getLowerExponent@DigitList@icu_56@@QBEHXZ
_TEXT	SEGMENT
_this$ = -8						; size = 4
?getLowerExponent@DigitList@icu_56@@QBEHXZ PROC		; icu_56::DigitList::getLowerExponent, COMDAT
; _this$ = ecx
; Line 372
	push	ebp
	mov	ebp, esp
	sub	esp, 204				; 000000ccH
	push	ebx
	push	esi
	push	edi
	push	ecx
	lea	edi, DWORD PTR [ebp-204]
	mov	ecx, 51					; 00000033H
	mov	eax, -858993460				; ccccccccH
	rep stosd
	pop	ecx
	mov	DWORD PTR _this$[ebp], ecx
	mov	eax, DWORD PTR _this$[ebp]
	mov	ecx, DWORD PTR [eax+28]
	mov	eax, DWORD PTR [ecx+4]
	pop	edi
	pop	esi
	pop	ebx
	mov	esp, ebp
	pop	ebp
	ret	0
?getLowerExponent@DigitList@icu_56@@QBEHXZ ENDP		; icu_56::DigitList::getLowerExponent
_TEXT	ENDS
PUBLIC	??2DigitList@icu_56@@SAPAXIPAXW4EStackMode@1@@Z	; icu_56::DigitList::operator new
; Function compile flags: /Odtp /RTCsu /ZI
;	COMDAT ??2DigitList@icu_56@@SAPAXIPAXW4EStackMode@1@@Z
_TEXT	SEGMENT
___formal$ = 8						; size = 4
_onStack$ = 12						; size = 4
___formal$ = 16						; size = 4
??2DigitList@icu_56@@SAPAXIPAXW4EStackMode@1@@Z PROC	; icu_56::DigitList::operator new, COMDAT
; Line 503
	push	ebp
	mov	ebp, esp
	sub	esp, 192				; 000000c0H
	push	ebx
	push	esi
	push	edi
	lea	edi, DWORD PTR [ebp-192]
	mov	ecx, 48					; 00000030H
	mov	eax, -858993460				; ccccccccH
	rep stosd
	mov	eax, DWORD PTR _onStack$[ebp]
	pop	edi
	pop	esi
	pop	ebx
	mov	esp, ebp
	pop	ebp
	ret	0
??2DigitList@icu_56@@SAPAXIPAXW4EStackMode@1@@Z ENDP	; icu_56::DigitList::operator new
_TEXT	ENDS
PUBLIC	??3DigitList@icu_56@@SAXPAX0W4EStackMode@1@@Z	; icu_56::DigitList::operator delete
; Function compile flags: /Odtp /RTCsu /ZI
;	COMDAT ??3DigitList@icu_56@@SAXPAX0W4EStackMode@1@@Z
_TEXT	SEGMENT
___formal$ = 8						; size = 4
___formal$ = 12						; size = 4
___formal$ = 16						; size = 4
??3DigitList@icu_56@@SAXPAX0W4EStackMode@1@@Z PROC	; icu_56::DigitList::operator delete, COMDAT
; Line 509
	push	ebp
	mov	ebp, esp
	sub	esp, 192				; 000000c0H
	push	ebx
	push	esi
	push	edi
	lea	edi, DWORD PTR [ebp-192]
	mov	ecx, 48					; 00000030H
	mov	eax, -858993460				; ccccccccH
	rep stosd
	pop	edi
	pop	esi
	pop	ebx
	mov	esp, ebp
	pop	ebp
	ret	0
??3DigitList@icu_56@@SAXPAX0W4EStackMode@1@@Z ENDP	; icu_56::DigitList::operator delete
_TEXT	ENDS
PUBLIC	?internalSetDouble@DigitList@icu_56@@AAEXN@Z	; icu_56::DigitList::internalSetDouble
; Function compile flags: /Odtp /RTCsu /ZI
;	COMDAT ?internalSetDouble@DigitList@icu_56@@AAEXN@Z
_TEXT	SEGMENT
_this$ = -8						; size = 4
_d$ = 8							; size = 8
?internalSetDouble@DigitList@icu_56@@AAEXN@Z PROC	; icu_56::DigitList::internalSetDouble, COMDAT
; _this$ = ecx
; Line 512
	push	ebp
	mov	ebp, esp
	sub	esp, 204				; 000000ccH
	push	ebx
	push	esi
	push	edi
	push	ecx
	lea	edi, DWORD PTR [ebp-204]
	mov	ecx, 51					; 00000033H
	mov	eax, -858993460				; ccccccccH
	rep stosd
	pop	ecx
	mov	DWORD PTR _this$[ebp], ecx
; Line 513
	mov	eax, DWORD PTR _this$[ebp]
	mov	DWORD PTR [eax+104], 1
; Line 514
	mov	eax, DWORD PTR _this$[ebp]
	fld	QWORD PTR _d$[ebp]
	fstp	QWORD PTR [eax+96]
; Line 515
	pop	edi
	pop	esi
	pop	ebx
	mov	esp, ebp
	pop	ebp
	ret	8
?internalSetDouble@DigitList@icu_56@@AAEXN@Z ENDP	; icu_56::DigitList::internalSetDouble
_TEXT	ENDS
PUBLIC	?internalSetInt64@DigitList@icu_56@@AAEX_J@Z	; icu_56::DigitList::internalSetInt64
; Function compile flags: /Odtp /RTCsu /ZI
;	COMDAT ?internalSetInt64@DigitList@icu_56@@AAEX_J@Z
_TEXT	SEGMENT
_this$ = -8						; size = 4
_d$ = 8							; size = 8
?internalSetInt64@DigitList@icu_56@@AAEX_J@Z PROC	; icu_56::DigitList::internalSetInt64, COMDAT
; _this$ = ecx
; Line 516
	push	ebp
	mov	ebp, esp
	sub	esp, 204				; 000000ccH
	push	ebx
	push	esi
	push	edi
	push	ecx
	lea	edi, DWORD PTR [ebp-204]
	mov	ecx, 51					; 00000033H
	mov	eax, -858993460				; ccccccccH
	rep stosd
	pop	ecx
	mov	DWORD PTR _this$[ebp], ecx
; Line 517
	mov	eax, DWORD PTR _this$[ebp]
	mov	DWORD PTR [eax+104], 2
; Line 518
	mov	eax, DWORD PTR _this$[ebp]
	mov	ecx, DWORD PTR _d$[ebp]
	mov	DWORD PTR [eax+96], ecx
	mov	edx, DWORD PTR _d$[ebp+4]
	mov	DWORD PTR [eax+100], edx
; Line 519
	pop	edi
	pop	esi
	pop	ebx
	mov	esp, ebp
	pop	ebp
	ret	8
?internalSetInt64@DigitList@icu_56@@AAEX_J@Z ENDP	; icu_56::DigitList::internalSetInt64
_TEXT	ENDS
PUBLIC	?internalClear@DigitList@icu_56@@AAEXXZ		; icu_56::DigitList::internalClear
; Function compile flags: /Odtp /RTCsu /ZI
;	COMDAT ?internalClear@DigitList@icu_56@@AAEXXZ
_TEXT	SEGMENT
_this$ = -8						; size = 4
?internalClear@DigitList@icu_56@@AAEXXZ PROC		; icu_56::DigitList::internalClear, COMDAT
; _this$ = ecx
; Line 520
	push	ebp
	mov	ebp, esp
	sub	esp, 204				; 000000ccH
	push	ebx
	push	esi
	push	edi
	push	ecx
	lea	edi, DWORD PTR [ebp-204]
	mov	ecx, 51					; 00000033H
	mov	eax, -858993460				; ccccccccH
	rep stosd
	pop	ecx
	mov	DWORD PTR _this$[ebp], ecx
; Line 521
	mov	eax, DWORD PTR _this$[ebp]
	mov	DWORD PTR [eax+104], 0
; Line 522
	pop	edi
	pop	esi
	pop	ebx
	mov	esp, ebp
	pop	ebp
	ret	0
?internalClear@DigitList@icu_56@@AAEXXZ ENDP		; icu_56::DigitList::internalClear
_TEXT	ENDS
PUBLIC	??4FixedDecimal@icu_56@@QAEAAV01@ABV01@@Z	; icu_56::FixedDecimal::operator=
; Function compile flags: /Odtp /RTCsu /ZI
;	COMDAT ??4FixedDecimal@icu_56@@QAEAAV01@ABV01@@Z
_TEXT	SEGMENT
_this$ = -8						; size = 4
___that$ = 8						; size = 4
??4FixedDecimal@icu_56@@QAEAAV01@ABV01@@Z PROC		; icu_56::FixedDecimal::operator=, COMDAT
; _this$ = ecx
	push	ebp
	mov	ebp, esp
	sub	esp, 204				; 000000ccH
	push	ebx
	push	esi
	push	edi
	push	ecx
	lea	edi, DWORD PTR [ebp-204]
	mov	ecx, 51					; 00000033H
	mov	eax, -858993460				; ccccccccH
	rep stosd
	pop	ecx
	mov	DWORD PTR _this$[ebp], ecx
	mov	esi, DWORD PTR ___that$[ebp]
	mov	ecx, 12					; 0000000cH
	mov	edi, DWORD PTR _this$[ebp]
	rep movsd
	mov	eax, DWORD PTR _this$[ebp]
	pop	edi
	pop	esi
	pop	ebx
	mov	esp, ebp
	pop	ebp
	ret	4
??4FixedDecimal@icu_56@@QAEAAV01@ABV01@@Z ENDP		; icu_56::FixedDecimal::operator=
_TEXT	ENDS
PUBLIC	??_7PluralAvailableLocalesEnumeration@icu_56@@6B@ ; icu_56::PluralAvailableLocalesEnumeration::`vftable'
PUBLIC	??0PluralAvailableLocalesEnumeration@icu_56@@QAE@ABV01@@Z ; icu_56::PluralAvailableLocalesEnumeration::PluralAvailableLocalesEnumeration
PUBLIC	??_R4PluralAvailableLocalesEnumeration@icu_56@@6B@ ; icu_56::PluralAvailableLocalesEnumeration::`RTTI Complete Object Locator'
PUBLIC	??_R0?AVPluralAvailableLocalesEnumeration@icu_56@@@8 ; icu_56::PluralAvailableLocalesEnumeration `RTTI Type Descriptor'
PUBLIC	??_R3PluralAvailableLocalesEnumeration@icu_56@@8 ; icu_56::PluralAvailableLocalesEnumeration::`RTTI Class Hierarchy Descriptor'
PUBLIC	??_R2PluralAvailableLocalesEnumeration@icu_56@@8 ; icu_56::PluralAvailableLocalesEnumeration::`RTTI Base Class Array'
PUBLIC	??_R1A@?0A@EA@PluralAvailableLocalesEnumeration@icu_56@@8 ; icu_56::PluralAvailableLocalesEnumeration::`RTTI Base Class Descriptor at (0,-1,0,64)'
PUBLIC	??_R1A@?0A@EA@StringEnumeration@icu_56@@8	; icu_56::StringEnumeration::`RTTI Base Class Descriptor at (0,-1,0,64)'
PUBLIC	??_R0?AVStringEnumeration@icu_56@@@8		; icu_56::StringEnumeration `RTTI Type Descriptor'
PUBLIC	??_R3StringEnumeration@icu_56@@8		; icu_56::StringEnumeration::`RTTI Class Hierarchy Descriptor'
PUBLIC	??_R2StringEnumeration@icu_56@@8		; icu_56::StringEnumeration::`RTTI Base Class Array'
PUBLIC	??_EPluralAvailableLocalesEnumeration@icu_56@@UAEPAXI@Z ; icu_56::PluralAvailableLocalesEnumeration::`vector deleting destructor'
PUBLIC	?count@PluralAvailableLocalesEnumeration@icu_56@@UBEHAAW4UErrorCode@@@Z ; icu_56::PluralAvailableLocalesEnumeration::count
PUBLIC	?next@PluralAvailableLocalesEnumeration@icu_56@@UAEPBDPAHAAW4UErrorCode@@@Z ; icu_56::PluralAvailableLocalesEnumeration::next
PUBLIC	?reset@PluralAvailableLocalesEnumeration@icu_56@@UAEXAAW4UErrorCode@@@Z ; icu_56::PluralAvailableLocalesEnumeration::reset
EXTRN	__imp_??0StringEnumeration@icu_56@@QAE@ABV01@@Z:PROC
EXTRN	?clone@StringEnumeration@icu_56@@UBEPAV12@XZ:PROC ; icu_56::StringEnumeration::clone
EXTRN	?unext@StringEnumeration@icu_56@@UAEPB_WPAHAAW4UErrorCode@@@Z:PROC ; icu_56::StringEnumeration::unext
EXTRN	?snext@StringEnumeration@icu_56@@UAEPBVUnicodeString@2@AAW4UErrorCode@@@Z:PROC ; icu_56::StringEnumeration::snext
EXTRN	??8StringEnumeration@icu_56@@UBECABV01@@Z:PROC	; icu_56::StringEnumeration::operator==
EXTRN	??9StringEnumeration@icu_56@@UBECABV01@@Z:PROC	; icu_56::StringEnumeration::operator!=
;	COMDAT ??_R2StringEnumeration@icu_56@@8
rdata$r	SEGMENT
??_R2StringEnumeration@icu_56@@8 DD FLAT:??_R1A@?0A@EA@StringEnumeration@icu_56@@8 ; icu_56::StringEnumeration::`RTTI Base Class Array'
	DD	FLAT:??_R1A@?0A@EA@UObject@icu_56@@8
	DD	FLAT:??_R13?0A@EA@UMemory@icu_56@@8
rdata$r	ENDS
;	COMDAT ??_R3StringEnumeration@icu_56@@8
rdata$r	SEGMENT
??_R3StringEnumeration@icu_56@@8 DD 00H			; icu_56::StringEnumeration::`RTTI Class Hierarchy Descriptor'
	DD	00H
	DD	03H
	DD	FLAT:??_R2StringEnumeration@icu_56@@8
rdata$r	ENDS
;	COMDAT ??_R0?AVStringEnumeration@icu_56@@@8
_DATA	SEGMENT
??_R0?AVStringEnumeration@icu_56@@@8 DD FLAT:??_7type_info@@6B@ ; icu_56::StringEnumeration `RTTI Type Descriptor'
	DD	00H
	DB	'.?AVStringEnumeration@icu_56@@', 00H
_DATA	ENDS
;	COMDAT ??_R1A@?0A@EA@StringEnumeration@icu_56@@8
rdata$r	SEGMENT
??_R1A@?0A@EA@StringEnumeration@icu_56@@8 DD FLAT:??_R0?AVStringEnumeration@icu_56@@@8 ; icu_56::StringEnumeration::`RTTI Base Class Descriptor at (0,-1,0,64)'
	DD	02H
	DD	00H
	DD	0ffffffffH
	DD	00H
	DD	040H
	DD	FLAT:??_R3StringEnumeration@icu_56@@8
rdata$r	ENDS
;	COMDAT ??_R1A@?0A@EA@PluralAvailableLocalesEnumeration@icu_56@@8
rdata$r	SEGMENT
??_R1A@?0A@EA@PluralAvailableLocalesEnumeration@icu_56@@8 DD FLAT:??_R0?AVPluralAvailableLocalesEnumeration@icu_56@@@8 ; icu_56::PluralAvailableLocalesEnumeration::`RTTI Base Class Descriptor at (0,-1,0,64)'
	DD	03H
	DD	00H
	DD	0ffffffffH
	DD	00H
	DD	040H
	DD	FLAT:??_R3PluralAvailableLocalesEnumeration@icu_56@@8
rdata$r	ENDS
;	COMDAT ??_R2PluralAvailableLocalesEnumeration@icu_56@@8
rdata$r	SEGMENT
??_R2PluralAvailableLocalesEnumeration@icu_56@@8 DD FLAT:??_R1A@?0A@EA@PluralAvailableLocalesEnumeration@icu_56@@8 ; icu_56::PluralAvailableLocalesEnumeration::`RTTI Base Class Array'
	DD	FLAT:??_R1A@?0A@EA@StringEnumeration@icu_56@@8
	DD	FLAT:??_R1A@?0A@EA@UObject@icu_56@@8
	DD	FLAT:??_R13?0A@EA@UMemory@icu_56@@8
rdata$r	ENDS
;	COMDAT ??_R3PluralAvailableLocalesEnumeration@icu_56@@8
rdata$r	SEGMENT
??_R3PluralAvailableLocalesEnumeration@icu_56@@8 DD 00H	; icu_56::PluralAvailableLocalesEnumeration::`RTTI Class Hierarchy Descriptor'
	DD	00H
	DD	04H
	DD	FLAT:??_R2PluralAvailableLocalesEnumeration@icu_56@@8
rdata$r	ENDS
;	COMDAT ??_R0?AVPluralAvailableLocalesEnumeration@icu_56@@@8
_DATA	SEGMENT
??_R0?AVPluralAvailableLocalesEnumeration@icu_56@@@8 DD FLAT:??_7type_info@@6B@ ; icu_56::PluralAvailableLocalesEnumeration `RTTI Type Descriptor'
	DD	00H
	DB	'.?AVPluralAvailableLocalesEnumeration@icu_56@@', 00H
_DATA	ENDS
;	COMDAT ??_R4PluralAvailableLocalesEnumeration@icu_56@@6B@
rdata$r	SEGMENT
??_R4PluralAvailableLocalesEnumeration@icu_56@@6B@ DD 00H ; icu_56::PluralAvailableLocalesEnumeration::`RTTI Complete Object Locator'
	DD	00H
	DD	00H
	DD	FLAT:??_R0?AVPluralAvailableLocalesEnumeration@icu_56@@@8
	DD	FLAT:??_R3PluralAvailableLocalesEnumeration@icu_56@@8
rdata$r	ENDS
;	COMDAT ??_7PluralAvailableLocalesEnumeration@icu_56@@6B@
CONST	SEGMENT
??_7PluralAvailableLocalesEnumeration@icu_56@@6B@ DD FLAT:??_R4PluralAvailableLocalesEnumeration@icu_56@@6B@ ; icu_56::PluralAvailableLocalesEnumeration::`vftable'
	DD	FLAT:??_EPluralAvailableLocalesEnumeration@icu_56@@UAEPAXI@Z
	DD	FLAT:?getDynamicClassID@UObject@icu_56@@UBEPAXXZ
	DD	FLAT:?clone@StringEnumeration@icu_56@@UBEPAV12@XZ
	DD	FLAT:?count@PluralAvailableLocalesEnumeration@icu_56@@UBEHAAW4UErrorCode@@@Z
	DD	FLAT:?next@PluralAvailableLocalesEnumeration@icu_56@@UAEPBDPAHAAW4UErrorCode@@@Z
	DD	FLAT:?unext@StringEnumeration@icu_56@@UAEPB_WPAHAAW4UErrorCode@@@Z
	DD	FLAT:?snext@StringEnumeration@icu_56@@UAEPBVUnicodeString@2@AAW4UErrorCode@@@Z
	DD	FLAT:?reset@PluralAvailableLocalesEnumeration@icu_56@@UAEXAAW4UErrorCode@@@Z
	DD	FLAT:??8StringEnumeration@icu_56@@UBECABV01@@Z
	DD	FLAT:??9StringEnumeration@icu_56@@UBECABV01@@Z
; Function compile flags: /Odtp /RTCsu /ZI
CONST	ENDS
;	COMDAT ??0PluralAvailableLocalesEnumeration@icu_56@@QAE@ABV01@@Z
_TEXT	SEGMENT
_this$ = -8						; size = 4
___that$ = 8						; size = 4
??0PluralAvailableLocalesEnumeration@icu_56@@QAE@ABV01@@Z PROC ; icu_56::PluralAvailableLocalesEnumeration::PluralAvailableLocalesEnumeration, COMDAT
; _this$ = ecx
	push	ebp
	mov	ebp, esp
	sub	esp, 204				; 000000ccH
	push	ebx
	push	esi
	push	edi
	push	ecx
	lea	edi, DWORD PTR [ebp-204]
	mov	ecx, 51					; 00000033H
	mov	eax, -858993460				; ccccccccH
	rep stosd
	pop	ecx
	mov	DWORD PTR _this$[ebp], ecx
	mov	esi, esp
	mov	eax, DWORD PTR ___that$[ebp]
	push	eax
	mov	ecx, DWORD PTR _this$[ebp]
	call	DWORD PTR __imp_??0StringEnumeration@icu_56@@QAE@ABV01@@Z
	cmp	esi, esp
	call	__RTC_CheckEsp
	mov	eax, DWORD PTR _this$[ebp]
	mov	DWORD PTR [eax], OFFSET ??_7PluralAvailableLocalesEnumeration@icu_56@@6B@
	mov	eax, DWORD PTR _this$[ebp]
	mov	ecx, DWORD PTR ___that$[ebp]
	mov	edx, DWORD PTR [ecx+108]
	mov	DWORD PTR [eax+108], edx
	mov	eax, DWORD PTR _this$[ebp]
	mov	ecx, DWORD PTR ___that$[ebp]
	mov	edx, DWORD PTR [ecx+112]
	mov	DWORD PTR [eax+112], edx
	mov	eax, DWORD PTR _this$[ebp]
	mov	ecx, DWORD PTR ___that$[ebp]
	mov	edx, DWORD PTR [ecx+116]
	mov	DWORD PTR [eax+116], edx
	mov	eax, DWORD PTR _this$[ebp]
	pop	edi
	pop	esi
	pop	ebx
	add	esp, 204				; 000000ccH
	cmp	ebp, esp
	call	__RTC_CheckEsp
	mov	esp, ebp
	pop	ebp
	ret	4
??0PluralAvailableLocalesEnumeration@icu_56@@QAE@ABV01@@Z ENDP ; icu_56::PluralAvailableLocalesEnumeration::PluralAvailableLocalesEnumeration
_TEXT	ENDS
PUBLIC	??4PluralAvailableLocalesEnumeration@icu_56@@QAEAAV01@ABV01@@Z ; icu_56::PluralAvailableLocalesEnumeration::operator=
EXTRN	__imp_??4StringEnumeration@icu_56@@QAEAAV01@ABV01@@Z:PROC
; Function compile flags: /Odtp /RTCsu /ZI
;	COMDAT ??4PluralAvailableLocalesEnumeration@icu_56@@QAEAAV01@ABV01@@Z
_TEXT	SEGMENT
_this$ = -8						; size = 4
___that$ = 8						; size = 4
??4PluralAvailableLocalesEnumeration@icu_56@@QAEAAV01@ABV01@@Z PROC ; icu_56::PluralAvailableLocalesEnumeration::operator=, COMDAT
; _this$ = ecx
	push	ebp
	mov	ebp, esp
	sub	esp, 204				; 000000ccH
	push	ebx
	push	esi
	push	edi
	push	ecx
	lea	edi, DWORD PTR [ebp-204]
	mov	ecx, 51					; 00000033H
	mov	eax, -858993460				; ccccccccH
	rep stosd
	pop	ecx
	mov	DWORD PTR _this$[ebp], ecx
	mov	esi, esp
	mov	eax, DWORD PTR ___that$[ebp]
	push	eax
	mov	ecx, DWORD PTR _this$[ebp]
	call	DWORD PTR __imp_??4StringEnumeration@icu_56@@QAEAAV01@ABV01@@Z
	cmp	esi, esp
	call	__RTC_CheckEsp
	mov	eax, DWORD PTR _this$[ebp]
	mov	ecx, DWORD PTR ___that$[ebp]
	mov	edx, DWORD PTR [ecx+108]
	mov	DWORD PTR [eax+108], edx
	mov	eax, DWORD PTR _this$[ebp]
	mov	ecx, DWORD PTR ___that$[ebp]
	mov	edx, DWORD PTR [ecx+112]
	mov	DWORD PTR [eax+112], edx
	mov	eax, DWORD PTR _this$[ebp]
	mov	ecx, DWORD PTR ___that$[ebp]
	mov	edx, DWORD PTR [ecx+116]
	mov	DWORD PTR [eax+116], edx
	mov	eax, DWORD PTR _this$[ebp]
	pop	edi
	pop	esi
	pop	ebx
	add	esp, 204				; 000000ccH
	cmp	ebp, esp
	call	__RTC_CheckEsp
	mov	esp, ebp
	pop	ebp
	ret	4
??4PluralAvailableLocalesEnumeration@icu_56@@QAEAAV01@ABV01@@Z ENDP ; icu_56::PluralAvailableLocalesEnumeration::operator=
_TEXT	ENDS
PUBLIC	??1PluralAvailableLocalesEnumeration@icu_56@@UAE@XZ ; icu_56::PluralAvailableLocalesEnumeration::~PluralAvailableLocalesEnumeration
PUBLIC	??_GPluralAvailableLocalesEnumeration@icu_56@@UAEPAXI@Z ; icu_56::PluralAvailableLocalesEnumeration::`scalar deleting destructor'
; Function compile flags: /Odtp /RTCsu /ZI
;	COMDAT ??_GPluralAvailableLocalesEnumeration@icu_56@@UAEPAXI@Z
_TEXT	SEGMENT
_this$ = -8						; size = 4
___flags$ = 8						; size = 4
??_GPluralAvailableLocalesEnumeration@icu_56@@UAEPAXI@Z PROC ; icu_56::PluralAvailableLocalesEnumeration::`scalar deleting destructor', COMDAT
; _this$ = ecx
	push	ebp
	mov	ebp, esp
	sub	esp, 204				; 000000ccH
	push	ebx
	push	esi
	push	edi
	push	ecx
	lea	edi, DWORD PTR [ebp-204]
	mov	ecx, 51					; 00000033H
	mov	eax, -858993460				; ccccccccH
	rep stosd
	pop	ecx
	mov	DWORD PTR _this$[ebp], ecx
	mov	ecx, DWORD PTR _this$[ebp]
	call	??1PluralAvailableLocalesEnumeration@icu_56@@UAE@XZ ; icu_56::PluralAvailableLocalesEnumeration::~PluralAvailableLocalesEnumeration
	mov	eax, DWORD PTR ___flags$[ebp]
	and	eax, 1
	je	SHORT $LN1@scalar@6
	mov	esi, esp
	mov	eax, DWORD PTR _this$[ebp]
	push	eax
	call	DWORD PTR __imp_??3UMemory@icu_56@@SAXPAX@Z
	add	esp, 4
	cmp	esi, esp
	call	__RTC_CheckEsp
$LN1@scalar@6:
	mov	eax, DWORD PTR _this$[ebp]
	pop	edi
	pop	esi
	pop	ebx
	add	esp, 204				; 000000ccH
	cmp	ebp, esp
	call	__RTC_CheckEsp
	mov	esp, ebp
	pop	ebp
	ret	4
??_GPluralAvailableLocalesEnumeration@icu_56@@UAEPAXI@Z ENDP ; icu_56::PluralAvailableLocalesEnumeration::`scalar deleting destructor'
; Function compile flags: /Odtp /RTCsu /ZI
_TEXT	ENDS
;	COMDAT ??_EPluralAvailableLocalesEnumeration@icu_56@@UAEPAXI@Z
_TEXT	SEGMENT
_this$ = -8						; size = 4
___flags$ = 8						; size = 4
??_EPluralAvailableLocalesEnumeration@icu_56@@UAEPAXI@Z PROC ; icu_56::PluralAvailableLocalesEnumeration::`vector deleting destructor', COMDAT
; _this$ = ecx
	push	ebp
	mov	ebp, esp
	sub	esp, 204				; 000000ccH
	push	ebx
	push	esi
	push	edi
	push	ecx
	lea	edi, DWORD PTR [ebp-204]
	mov	ecx, 51					; 00000033H
	mov	eax, -858993460				; ccccccccH
	rep stosd
	pop	ecx
	mov	DWORD PTR _this$[ebp], ecx
	mov	eax, DWORD PTR ___flags$[ebp]
	and	eax, 2
	je	SHORT $LN3@vector@6
	push	OFFSET ??1PluralAvailableLocalesEnumeration@icu_56@@UAE@XZ ; icu_56::PluralAvailableLocalesEnumeration::~PluralAvailableLocalesEnumeration
	mov	eax, DWORD PTR _this$[ebp]
	mov	ecx, DWORD PTR [eax-4]
	push	ecx
	push	120					; 00000078H
	mov	edx, DWORD PTR _this$[ebp]
	push	edx
	call	??_M@YGXPAXIHP6EX0@Z@Z
	mov	eax, DWORD PTR ___flags$[ebp]
	and	eax, 1
	je	SHORT $LN2@vector@6
	mov	eax, DWORD PTR _this$[ebp]
	sub	eax, 4
	mov	esi, esp
	push	eax
	call	DWORD PTR __imp_??_VUMemory@icu_56@@SAXPAX@Z
	add	esp, 4
	cmp	esi, esp
	call	__RTC_CheckEsp
$LN2@vector@6:
	mov	eax, DWORD PTR _this$[ebp]
	sub	eax, 4
	jmp	SHORT $LN4@vector@6
$LN3@vector@6:
	mov	ecx, DWORD PTR _this$[ebp]
	call	??1PluralAvailableLocalesEnumeration@icu_56@@UAE@XZ ; icu_56::PluralAvailableLocalesEnumeration::~PluralAvailableLocalesEnumeration
	mov	eax, DWORD PTR ___flags$[ebp]
	and	eax, 1
	je	SHORT $LN1@vector@6
	mov	esi, esp
	mov	eax, DWORD PTR _this$[ebp]
	push	eax
	call	DWORD PTR __imp_??3UMemory@icu_56@@SAXPAX@Z
	add	esp, 4
	cmp	esi, esp
	call	__RTC_CheckEsp
$LN1@vector@6:
	mov	eax, DWORD PTR _this$[ebp]
$LN4@vector@6:
	pop	edi
	pop	esi
	pop	ebx
	add	esp, 204				; 000000ccH
	cmp	ebp, esp
	call	__RTC_CheckEsp
	mov	esp, ebp
	pop	ebp
	ret	4
??_EPluralAvailableLocalesEnumeration@icu_56@@UAEPAXI@Z ENDP ; icu_56::PluralAvailableLocalesEnumeration::`vector deleting destructor'
_TEXT	ENDS
PUBLIC	??_7SharedPluralRules@icu_56@@6B@		; icu_56::SharedPluralRules::`vftable'
PUBLIC	??0SharedPluralRules@icu_56@@QAE@PAVPluralRules@1@@Z ; icu_56::SharedPluralRules::SharedPluralRules
PUBLIC	??_R4SharedPluralRules@icu_56@@6B@		; icu_56::SharedPluralRules::`RTTI Complete Object Locator'
PUBLIC	??_R0?AVSharedPluralRules@icu_56@@@8		; icu_56::SharedPluralRules `RTTI Type Descriptor'
PUBLIC	??_R3SharedPluralRules@icu_56@@8		; icu_56::SharedPluralRules::`RTTI Class Hierarchy Descriptor'
PUBLIC	??_R2SharedPluralRules@icu_56@@8		; icu_56::SharedPluralRules::`RTTI Base Class Array'
PUBLIC	??_R1A@?0A@EA@SharedPluralRules@icu_56@@8	; icu_56::SharedPluralRules::`RTTI Base Class Descriptor at (0,-1,0,64)'
PUBLIC	??_R1A@?0A@EA@SharedObject@icu_56@@8		; icu_56::SharedObject::`RTTI Base Class Descriptor at (0,-1,0,64)'
PUBLIC	??_R0?AVSharedObject@icu_56@@@8			; icu_56::SharedObject `RTTI Type Descriptor'
PUBLIC	??_R3SharedObject@icu_56@@8			; icu_56::SharedObject::`RTTI Class Hierarchy Descriptor'
PUBLIC	??_R2SharedObject@icu_56@@8			; icu_56::SharedObject::`RTTI Base Class Array'
PUBLIC	??_ESharedPluralRules@icu_56@@UAEPAXI@Z		; icu_56::SharedPluralRules::`vector deleting destructor'
EXTRN	__imp_??0SharedObject@icu_56@@QAE@XZ:PROC
;	COMDAT ??_R2SharedObject@icu_56@@8
; File d:\mozilla\intl\icu\source\i18n\sharedpluralrules.h
rdata$r	SEGMENT
??_R2SharedObject@icu_56@@8 DD FLAT:??_R1A@?0A@EA@SharedObject@icu_56@@8 ; icu_56::SharedObject::`RTTI Base Class Array'
	DD	FLAT:??_R1A@?0A@EA@UObject@icu_56@@8
	DD	FLAT:??_R13?0A@EA@UMemory@icu_56@@8
rdata$r	ENDS
;	COMDAT ??_R3SharedObject@icu_56@@8
rdata$r	SEGMENT
??_R3SharedObject@icu_56@@8 DD 00H			; icu_56::SharedObject::`RTTI Class Hierarchy Descriptor'
	DD	00H
	DD	03H
	DD	FLAT:??_R2SharedObject@icu_56@@8
rdata$r	ENDS
;	COMDAT ??_R0?AVSharedObject@icu_56@@@8
_DATA	SEGMENT
??_R0?AVSharedObject@icu_56@@@8 DD FLAT:??_7type_info@@6B@ ; icu_56::SharedObject `RTTI Type Descriptor'
	DD	00H
	DB	'.?AVSharedObject@icu_56@@', 00H
_DATA	ENDS
;	COMDAT ??_R1A@?0A@EA@SharedObject@icu_56@@8
rdata$r	SEGMENT
??_R1A@?0A@EA@SharedObject@icu_56@@8 DD FLAT:??_R0?AVSharedObject@icu_56@@@8 ; icu_56::SharedObject::`RTTI Base Class Descriptor at (0,-1,0,64)'
	DD	02H
	DD	00H
	DD	0ffffffffH
	DD	00H
	DD	040H
	DD	FLAT:??_R3SharedObject@icu_56@@8
rdata$r	ENDS
;	COMDAT ??_R1A@?0A@EA@SharedPluralRules@icu_56@@8
rdata$r	SEGMENT
??_R1A@?0A@EA@SharedPluralRules@icu_56@@8 DD FLAT:??_R0?AVSharedPluralRules@icu_56@@@8 ; icu_56::SharedPluralRules::`RTTI Base Class Descriptor at (0,-1,0,64)'
	DD	03H
	DD	00H
	DD	0ffffffffH
	DD	00H
	DD	040H
	DD	FLAT:??_R3SharedPluralRules@icu_56@@8
rdata$r	ENDS
;	COMDAT ??_R2SharedPluralRules@icu_56@@8
rdata$r	SEGMENT
??_R2SharedPluralRules@icu_56@@8 DD FLAT:??_R1A@?0A@EA@SharedPluralRules@icu_56@@8 ; icu_56::SharedPluralRules::`RTTI Base Class Array'
	DD	FLAT:??_R1A@?0A@EA@SharedObject@icu_56@@8
	DD	FLAT:??_R1A@?0A@EA@UObject@icu_56@@8
	DD	FLAT:??_R13?0A@EA@UMemory@icu_56@@8
rdata$r	ENDS
;	COMDAT ??_R3SharedPluralRules@icu_56@@8
rdata$r	SEGMENT
??_R3SharedPluralRules@icu_56@@8 DD 00H			; icu_56::SharedPluralRules::`RTTI Class Hierarchy Descriptor'
	DD	00H
	DD	04H
	DD	FLAT:??_R2SharedPluralRules@icu_56@@8
rdata$r	ENDS
;	COMDAT ??_R0?AVSharedPluralRules@icu_56@@@8
_DATA	SEGMENT
??_R0?AVSharedPluralRules@icu_56@@@8 DD FLAT:??_7type_info@@6B@ ; icu_56::SharedPluralRules `RTTI Type Descriptor'
	DD	00H
	DB	'.?AVSharedPluralRules@icu_56@@', 00H
_DATA	ENDS
;	COMDAT ??_R4SharedPluralRules@icu_56@@6B@
rdata$r	SEGMENT
??_R4SharedPluralRules@icu_56@@6B@ DD 00H		; icu_56::SharedPluralRules::`RTTI Complete Object Locator'
	DD	00H
	DD	00H
	DD	FLAT:??_R0?AVSharedPluralRules@icu_56@@@8
	DD	FLAT:??_R3SharedPluralRules@icu_56@@8
rdata$r	ENDS
;	COMDAT ??_7SharedPluralRules@icu_56@@6B@
CONST	SEGMENT
??_7SharedPluralRules@icu_56@@6B@ DD FLAT:??_R4SharedPluralRules@icu_56@@6B@ ; icu_56::SharedPluralRules::`vftable'
	DD	FLAT:??_ESharedPluralRules@icu_56@@UAEPAXI@Z
	DD	FLAT:?getDynamicClassID@UObject@icu_56@@UBEPAXXZ
; Function compile flags: /Odtp /RTCsu /ZI
CONST	ENDS
;	COMDAT ??0SharedPluralRules@icu_56@@QAE@PAVPluralRules@1@@Z
_TEXT	SEGMENT
_this$ = -8						; size = 4
_prToAdopt$ = 8						; size = 4
??0SharedPluralRules@icu_56@@QAE@PAVPluralRules@1@@Z PROC ; icu_56::SharedPluralRules::SharedPluralRules, COMDAT
; _this$ = ecx
; Line 21
	push	ebp
	mov	ebp, esp
	sub	esp, 204				; 000000ccH
	push	ebx
	push	esi
	push	edi
	push	ecx
	lea	edi, DWORD PTR [ebp-204]
	mov	ecx, 51					; 00000033H
	mov	eax, -858993460				; ccccccccH
	rep stosd
	pop	ecx
	mov	DWORD PTR _this$[ebp], ecx
	mov	esi, esp
	mov	ecx, DWORD PTR _this$[ebp]
	call	DWORD PTR __imp_??0SharedObject@icu_56@@QAE@XZ
	cmp	esi, esp
	call	__RTC_CheckEsp
	mov	eax, DWORD PTR _this$[ebp]
	mov	DWORD PTR [eax], OFFSET ??_7SharedPluralRules@icu_56@@6B@
	mov	eax, DWORD PTR _this$[ebp]
	mov	ecx, DWORD PTR _prToAdopt$[ebp]
	mov	DWORD PTR [eax+20], ecx
	mov	eax, DWORD PTR _this$[ebp]
	pop	edi
	pop	esi
	pop	ebx
	add	esp, 204				; 000000ccH
	cmp	ebp, esp
	call	__RTC_CheckEsp
	mov	esp, ebp
	pop	ebp
	ret	4
??0SharedPluralRules@icu_56@@QAE@PAVPluralRules@1@@Z ENDP ; icu_56::SharedPluralRules::SharedPluralRules
_TEXT	ENDS
PUBLIC	??CSharedPluralRules@icu_56@@QBEPBVPluralRules@1@XZ ; icu_56::SharedPluralRules::operator->
; Function compile flags: /Odtp /RTCsu /ZI
;	COMDAT ??CSharedPluralRules@icu_56@@QBEPBVPluralRules@1@XZ
_TEXT	SEGMENT
_this$ = -8						; size = 4
??CSharedPluralRules@icu_56@@QBEPBVPluralRules@1@XZ PROC ; icu_56::SharedPluralRules::operator->, COMDAT
; _this$ = ecx
; Line 23
	push	ebp
	mov	ebp, esp
	sub	esp, 204				; 000000ccH
	push	ebx
	push	esi
	push	edi
	push	ecx
	lea	edi, DWORD PTR [ebp-204]
	mov	ecx, 51					; 00000033H
	mov	eax, -858993460				; ccccccccH
	rep stosd
	pop	ecx
	mov	DWORD PTR _this$[ebp], ecx
	mov	eax, DWORD PTR _this$[ebp]
	mov	eax, DWORD PTR [eax+20]
	pop	edi
	pop	esi
	pop	ebx
	mov	esp, ebp
	pop	ebp
	ret	0
??CSharedPluralRules@icu_56@@QBEPBVPluralRules@1@XZ ENDP ; icu_56::SharedPluralRules::operator->
_TEXT	ENDS
PUBLIC	??DSharedPluralRules@icu_56@@QBEABVPluralRules@1@XZ ; icu_56::SharedPluralRules::operator*
; Function compile flags: /Odtp /RTCsu /ZI
;	COMDAT ??DSharedPluralRules@icu_56@@QBEABVPluralRules@1@XZ
_TEXT	SEGMENT
_this$ = -8						; size = 4
??DSharedPluralRules@icu_56@@QBEABVPluralRules@1@XZ PROC ; icu_56::SharedPluralRules::operator*, COMDAT
; _this$ = ecx
; Line 24
	push	ebp
	mov	ebp, esp
	sub	esp, 204				; 000000ccH
	push	ebx
	push	esi
	push	edi
	push	ecx
	lea	edi, DWORD PTR [ebp-204]
	mov	ecx, 51					; 00000033H
	mov	eax, -858993460				; ccccccccH
	rep stosd
	pop	ecx
	mov	DWORD PTR _this$[ebp], ecx
	mov	eax, DWORD PTR _this$[ebp]
	mov	eax, DWORD PTR [eax+20]
	pop	edi
	pop	esi
	pop	ebx
	mov	esp, ebp
	pop	ebp
	ret	0
??DSharedPluralRules@icu_56@@QBEABVPluralRules@1@XZ ENDP ; icu_56::SharedPluralRules::operator*
_TEXT	ENDS
PUBLIC	??1SharedPluralRules@icu_56@@UAE@XZ		; icu_56::SharedPluralRules::~SharedPluralRules
PUBLIC	??_GSharedPluralRules@icu_56@@UAEPAXI@Z		; icu_56::SharedPluralRules::`scalar deleting destructor'
; Function compile flags: /Odtp /RTCsu /ZI
;	COMDAT ??_GSharedPluralRules@icu_56@@UAEPAXI@Z
_TEXT	SEGMENT
_this$ = -8						; size = 4
___flags$ = 8						; size = 4
??_GSharedPluralRules@icu_56@@UAEPAXI@Z PROC		; icu_56::SharedPluralRules::`scalar deleting destructor', COMDAT
; _this$ = ecx
	push	ebp
	mov	ebp, esp
	sub	esp, 204				; 000000ccH
	push	ebx
	push	esi
	push	edi
	push	ecx
	lea	edi, DWORD PTR [ebp-204]
	mov	ecx, 51					; 00000033H
	mov	eax, -858993460				; ccccccccH
	rep stosd
	pop	ecx
	mov	DWORD PTR _this$[ebp], ecx
	mov	ecx, DWORD PTR _this$[ebp]
	call	??1SharedPluralRules@icu_56@@UAE@XZ	; icu_56::SharedPluralRules::~SharedPluralRules
	mov	eax, DWORD PTR ___flags$[ebp]
	and	eax, 1
	je	SHORT $LN1@scalar@7
	mov	esi, esp
	mov	eax, DWORD PTR _this$[ebp]
	push	eax
	call	DWORD PTR __imp_??3UMemory@icu_56@@SAXPAX@Z
	add	esp, 4
	cmp	esi, esp
	call	__RTC_CheckEsp
$LN1@scalar@7:
	mov	eax, DWORD PTR _this$[ebp]
	pop	edi
	pop	esi
	pop	ebx
	add	esp, 204				; 000000ccH
	cmp	ebp, esp
	call	__RTC_CheckEsp
	mov	esp, ebp
	pop	ebp
	ret	4
??_GSharedPluralRules@icu_56@@UAEPAXI@Z ENDP		; icu_56::SharedPluralRules::`scalar deleting destructor'
; Function compile flags: /Odtp /RTCsu /ZI
_TEXT	ENDS
;	COMDAT ??_ESharedPluralRules@icu_56@@UAEPAXI@Z
_TEXT	SEGMENT
_this$ = -8						; size = 4
___flags$ = 8						; size = 4
??_ESharedPluralRules@icu_56@@UAEPAXI@Z PROC		; icu_56::SharedPluralRules::`vector deleting destructor', COMDAT
; _this$ = ecx
	push	ebp
	mov	ebp, esp
	sub	esp, 204				; 000000ccH
	push	ebx
	push	esi
	push	edi
	push	ecx
	lea	edi, DWORD PTR [ebp-204]
	mov	ecx, 51					; 00000033H
	mov	eax, -858993460				; ccccccccH
	rep stosd
	pop	ecx
	mov	DWORD PTR _this$[ebp], ecx
	mov	eax, DWORD PTR ___flags$[ebp]
	and	eax, 2
	je	SHORT $LN3@vector@7
	push	OFFSET ??1SharedPluralRules@icu_56@@UAE@XZ ; icu_56::SharedPluralRules::~SharedPluralRules
	mov	eax, DWORD PTR _this$[ebp]
	mov	ecx, DWORD PTR [eax-4]
	push	ecx
	push	24					; 00000018H
	mov	edx, DWORD PTR _this$[ebp]
	push	edx
	call	??_M@YGXPAXIHP6EX0@Z@Z
	mov	eax, DWORD PTR ___flags$[ebp]
	and	eax, 1
	je	SHORT $LN2@vector@7
	mov	eax, DWORD PTR _this$[ebp]
	sub	eax, 4
	mov	esi, esp
	push	eax
	call	DWORD PTR __imp_??_VUMemory@icu_56@@SAXPAX@Z
	add	esp, 4
	cmp	esi, esp
	call	__RTC_CheckEsp
$LN2@vector@7:
	mov	eax, DWORD PTR _this$[ebp]
	sub	eax, 4
	jmp	SHORT $LN4@vector@7
$LN3@vector@7:
	mov	ecx, DWORD PTR _this$[ebp]
	call	??1SharedPluralRules@icu_56@@UAE@XZ	; icu_56::SharedPluralRules::~SharedPluralRules
	mov	eax, DWORD PTR ___flags$[ebp]
	and	eax, 1
	je	SHORT $LN1@vector@7
	mov	esi, esp
	mov	eax, DWORD PTR _this$[ebp]
	push	eax
	call	DWORD PTR __imp_??3UMemory@icu_56@@SAXPAX@Z
	add	esp, 4
	cmp	esi, esp
	call	__RTC_CheckEsp
$LN1@vector@7:
	mov	eax, DWORD PTR _this$[ebp]
$LN4@vector@7:
	pop	edi
	pop	esi
	pop	ebx
	add	esp, 204				; 000000ccH
	cmp	ebp, esp
	call	__RTC_CheckEsp
	mov	esp, ebp
	pop	ebp
	ret	4
??_ESharedPluralRules@icu_56@@UAEPAXI@Z ENDP		; icu_56::SharedPluralRules::`vector deleting destructor'
_TEXT	ENDS
PUBLIC	??0DigitInterval@icu_56@@QAE@XZ			; icu_56::DigitInterval::DigitInterval
; Function compile flags: /Odtp /RTCsu /ZI
;	COMDAT ??0DigitInterval@icu_56@@QAE@XZ
_TEXT	SEGMENT
_this$ = -8						; size = 4
??0DigitInterval@icu_56@@QAE@XZ PROC			; icu_56::DigitInterval::DigitInterval, COMDAT
; _this$ = ecx
; File d:\mozilla\intl\icu\source\i18n\digitinterval.h
; Line 35
	push	ebp
	mov	ebp, esp
	sub	esp, 204				; 000000ccH
	push	ebx
	push	esi
	push	edi
	push	ecx
	lea	edi, DWORD PTR [ebp-204]
	mov	ecx, 51					; 00000033H
	mov	eax, -858993460				; ccccccccH
	rep stosd
	pop	ecx
	mov	DWORD PTR _this$[ebp], ecx
	mov	eax, DWORD PTR _this$[ebp]
	mov	DWORD PTR [eax], 2147483647		; 7fffffffH
	mov	eax, DWORD PTR _this$[ebp]
	mov	DWORD PTR [eax+4], -2147483648		; 80000000H
	mov	eax, DWORD PTR _this$[ebp]
	pop	edi
	pop	esi
	pop	ebx
	mov	esp, ebp
	pop	ebp
	ret	0
??0DigitInterval@icu_56@@QAE@XZ ENDP			; icu_56::DigitInterval::DigitInterval
_TEXT	ENDS
PUBLIC	?clear@DigitInterval@icu_56@@QAEXXZ		; icu_56::DigitInterval::clear
; Function compile flags: /Odtp /RTCsu /ZI
;	COMDAT ?clear@DigitInterval@icu_56@@QAEXXZ
_TEXT	SEGMENT
_this$ = -8						; size = 4
?clear@DigitInterval@icu_56@@QAEXXZ PROC		; icu_56::DigitInterval::clear, COMDAT
; _this$ = ecx
; Line 42
	push	ebp
	mov	ebp, esp
	sub	esp, 204				; 000000ccH
	push	ebx
	push	esi
	push	edi
	push	ecx
	lea	edi, DWORD PTR [ebp-204]
	mov	ecx, 51					; 00000033H
	mov	eax, -858993460				; ccccccccH
	rep stosd
	pop	ecx
	mov	DWORD PTR _this$[ebp], ecx
; Line 43
	mov	eax, DWORD PTR _this$[ebp]
	mov	DWORD PTR [eax], 2147483647		; 7fffffffH
; Line 44
	mov	eax, DWORD PTR _this$[ebp]
	mov	DWORD PTR [eax+4], -2147483648		; 80000000H
; Line 45
	pop	edi
	pop	esi
	pop	ebx
	mov	esp, ebp
	pop	ebp
	ret	0
?clear@DigitInterval@icu_56@@QAEXXZ ENDP		; icu_56::DigitInterval::clear
_TEXT	ENDS
PUBLIC	?equals@DigitInterval@icu_56@@QBECABV12@@Z	; icu_56::DigitInterval::equals
; Function compile flags: /Odtp /RTCsu /ZI
;	COMDAT ?equals@DigitInterval@icu_56@@QBECABV12@@Z
_TEXT	SEGMENT
tv68 = -205						; size = 1
_this$ = -8						; size = 4
_rhs$ = 8						; size = 4
?equals@DigitInterval@icu_56@@QBECABV12@@Z PROC		; icu_56::DigitInterval::equals, COMDAT
; _this$ = ecx
; Line 55
	push	ebp
	mov	ebp, esp
	sub	esp, 208				; 000000d0H
	push	ebx
	push	esi
	push	edi
	push	ecx
	lea	edi, DWORD PTR [ebp-208]
	mov	ecx, 52					; 00000034H
	mov	eax, -858993460				; ccccccccH
	rep stosd
	pop	ecx
	mov	DWORD PTR _this$[ebp], ecx
; Line 57
	mov	eax, DWORD PTR _this$[ebp]
	mov	ecx, DWORD PTR _rhs$[ebp]
	mov	edx, DWORD PTR [eax]
	cmp	edx, DWORD PTR [ecx]
	jne	SHORT $LN3@equals
	mov	eax, DWORD PTR _this$[ebp]
	mov	ecx, DWORD PTR _rhs$[ebp]
	mov	edx, DWORD PTR [eax+4]
	cmp	edx, DWORD PTR [ecx+4]
	jne	SHORT $LN3@equals
	mov	BYTE PTR tv68[ebp], 1
	jmp	SHORT $LN4@equals
$LN3@equals:
	mov	BYTE PTR tv68[ebp], 0
$LN4@equals:
	mov	al, BYTE PTR tv68[ebp]
; Line 58
	pop	edi
	pop	esi
	pop	ebx
	mov	esp, ebp
	pop	ebp
	ret	4
?equals@DigitInterval@icu_56@@QBECABV12@@Z ENDP		; icu_56::DigitInterval::equals
_TEXT	ENDS
PUBLIC	?setLeastSignificantInclusive@DigitInterval@icu_56@@QAEXH@Z ; icu_56::DigitInterval::setLeastSignificantInclusive
; Function compile flags: /Odtp /RTCsu /ZI
;	COMDAT ?setLeastSignificantInclusive@DigitInterval@icu_56@@QAEXH@Z
_TEXT	SEGMENT
_this$ = -8						; size = 4
_smallest$ = 8						; size = 4
?setLeastSignificantInclusive@DigitInterval@icu_56@@QAEXH@Z PROC ; icu_56::DigitInterval::setLeastSignificantInclusive, COMDAT
; _this$ = ecx
; Line 95
	push	ebp
	mov	ebp, esp
	sub	esp, 204				; 000000ccH
	push	ebx
	push	esi
	push	edi
	push	ecx
	lea	edi, DWORD PTR [ebp-204]
	mov	ecx, 51					; 00000033H
	mov	eax, -858993460				; ccccccccH
	rep stosd
	pop	ecx
	mov	DWORD PTR _this$[ebp], ecx
; Line 96
	xor	eax, eax
	cmp	DWORD PTR _smallest$[ebp], 0
	setge	al
	sub	eax, 1
	and	eax, DWORD PTR _smallest$[ebp]
	mov	ecx, DWORD PTR _this$[ebp]
	mov	DWORD PTR [ecx+4], eax
; Line 97
	pop	edi
	pop	esi
	pop	ebx
	mov	esp, ebp
	pop	ebp
	ret	4
?setLeastSignificantInclusive@DigitInterval@icu_56@@QAEXH@Z ENDP ; icu_56::DigitInterval::setLeastSignificantInclusive
_TEXT	ENDS
PUBLIC	?setMostSignificantExclusive@DigitInterval@icu_56@@QAEXH@Z ; icu_56::DigitInterval::setMostSignificantExclusive
; Function compile flags: /Odtp /RTCsu /ZI
;	COMDAT ?setMostSignificantExclusive@DigitInterval@icu_56@@QAEXH@Z
_TEXT	SEGMENT
_this$ = -8						; size = 4
_largest$ = 8						; size = 4
?setMostSignificantExclusive@DigitInterval@icu_56@@QAEXH@Z PROC ; icu_56::DigitInterval::setMostSignificantExclusive, COMDAT
; _this$ = ecx
; Line 103
	push	ebp
	mov	ebp, esp
	sub	esp, 204				; 000000ccH
	push	ebx
	push	esi
	push	edi
	push	ecx
	lea	edi, DWORD PTR [ebp-204]
	mov	ecx, 51					; 00000033H
	mov	eax, -858993460				; ccccccccH
	rep stosd
	pop	ecx
	mov	DWORD PTR _this$[ebp], ecx
; Line 104
	xor	eax, eax
	cmp	DWORD PTR _largest$[ebp], 0
	setle	al
	sub	eax, 1
	and	eax, DWORD PTR _largest$[ebp]
	mov	ecx, DWORD PTR _this$[ebp]
	mov	DWORD PTR [ecx], eax
; Line 105
	pop	edi
	pop	esi
	pop	ebx
	mov	esp, ebp
	pop	ebp
	ret	4
?setMostSignificantExclusive@DigitInterval@icu_56@@QAEXH@Z ENDP ; icu_56::DigitInterval::setMostSignificantExclusive
_TEXT	ENDS
PUBLIC	?getMostSignificantExclusive@DigitInterval@icu_56@@QBEHXZ ; icu_56::DigitInterval::getMostSignificantExclusive
; Function compile flags: /Odtp /RTCsu /ZI
;	COMDAT ?getMostSignificantExclusive@DigitInterval@icu_56@@QBEHXZ
_TEXT	SEGMENT
_this$ = -8						; size = 4
?getMostSignificantExclusive@DigitInterval@icu_56@@QBEHXZ PROC ; icu_56::DigitInterval::getMostSignificantExclusive, COMDAT
; _this$ = ecx
; Line 112
	push	ebp
	mov	ebp, esp
	sub	esp, 204				; 000000ccH
	push	ebx
	push	esi
	push	edi
	push	ecx
	lea	edi, DWORD PTR [ebp-204]
	mov	ecx, 51					; 00000033H
	mov	eax, -858993460				; ccccccccH
	rep stosd
	pop	ecx
	mov	DWORD PTR _this$[ebp], ecx
; Line 113
	mov	eax, DWORD PTR _this$[ebp]
	mov	eax, DWORD PTR [eax]
; Line 114
	pop	edi
	pop	esi
	pop	ebx
	mov	esp, ebp
	pop	ebp
	ret	0
?getMostSignificantExclusive@DigitInterval@icu_56@@QBEHXZ ENDP ; icu_56::DigitInterval::getMostSignificantExclusive
_TEXT	ENDS
PUBLIC	?getIntDigitCount@DigitInterval@icu_56@@QBEHXZ	; icu_56::DigitInterval::getIntDigitCount
; Function compile flags: /Odtp /RTCsu /ZI
;	COMDAT ?getIntDigitCount@DigitInterval@icu_56@@QBEHXZ
_TEXT	SEGMENT
_this$ = -8						; size = 4
?getIntDigitCount@DigitInterval@icu_56@@QBEHXZ PROC	; icu_56::DigitInterval::getIntDigitCount, COMDAT
; _this$ = ecx
; Line 120
	push	ebp
	mov	ebp, esp
	sub	esp, 204				; 000000ccH
	push	ebx
	push	esi
	push	edi
	push	ecx
	lea	edi, DWORD PTR [ebp-204]
	mov	ecx, 51					; 00000033H
	mov	eax, -858993460				; ccccccccH
	rep stosd
	pop	ecx
	mov	DWORD PTR _this$[ebp], ecx
; Line 121
	mov	eax, DWORD PTR _this$[ebp]
	mov	eax, DWORD PTR [eax]
; Line 122
	pop	edi
	pop	esi
	pop	ebx
	mov	esp, ebp
	pop	ebp
	ret	0
?getIntDigitCount@DigitInterval@icu_56@@QBEHXZ ENDP	; icu_56::DigitInterval::getIntDigitCount
_TEXT	ENDS
PUBLIC	?getFracDigitCount@DigitInterval@icu_56@@QBEHXZ	; icu_56::DigitInterval::getFracDigitCount
; Function compile flags: /Odtp /RTCsu /ZI
;	COMDAT ?getFracDigitCount@DigitInterval@icu_56@@QBEHXZ
_TEXT	SEGMENT
tv68 = -208						; size = 4
_this$ = -8						; size = 4
?getFracDigitCount@DigitInterval@icu_56@@QBEHXZ PROC	; icu_56::DigitInterval::getFracDigitCount, COMDAT
; _this$ = ecx
; Line 128
	push	ebp
	mov	ebp, esp
	sub	esp, 208				; 000000d0H
	push	ebx
	push	esi
	push	edi
	push	ecx
	lea	edi, DWORD PTR [ebp-208]
	mov	ecx, 52					; 00000034H
	mov	eax, -858993460				; ccccccccH
	rep stosd
	pop	ecx
	mov	DWORD PTR _this$[ebp], ecx
; Line 129
	mov	eax, DWORD PTR _this$[ebp]
	cmp	DWORD PTR [eax+4], -2147483648		; 80000000H
	jne	SHORT $LN3@getFracDig
	mov	DWORD PTR tv68[ebp], 2147483647		; 7fffffffH
	jmp	SHORT $LN4@getFracDig
$LN3@getFracDig:
	mov	ecx, DWORD PTR _this$[ebp]
	mov	edx, DWORD PTR [ecx+4]
	neg	edx
	mov	DWORD PTR tv68[ebp], edx
$LN4@getFracDig:
	mov	eax, DWORD PTR tv68[ebp]
; Line 130
	pop	edi
	pop	esi
	pop	ebx
	mov	esp, ebp
	pop	ebp
	ret	0
?getFracDigitCount@DigitInterval@icu_56@@QBEHXZ ENDP	; icu_56::DigitInterval::getFracDigitCount
_TEXT	ENDS
PUBLIC	?length@DigitInterval@icu_56@@QBEHXZ		; icu_56::DigitInterval::length
; Function compile flags: /Odtp /RTCsu /ZI
;	COMDAT ?length@DigitInterval@icu_56@@QBEHXZ
_TEXT	SEGMENT
_this$ = -8						; size = 4
?length@DigitInterval@icu_56@@QBEHXZ PROC		; icu_56::DigitInterval::length, COMDAT
; _this$ = ecx
; Line 138
	push	ebp
	mov	ebp, esp
	sub	esp, 204				; 000000ccH
	push	ebx
	push	esi
	push	edi
	push	ecx
	lea	edi, DWORD PTR [ebp-204]
	mov	ecx, 51					; 00000033H
	mov	eax, -858993460				; ccccccccH
	rep stosd
	pop	ecx
	mov	DWORD PTR _this$[ebp], ecx
; Line 139
	mov	eax, DWORD PTR _this$[ebp]
	mov	ecx, DWORD PTR _this$[ebp]
	mov	eax, DWORD PTR [eax]
	sub	eax, DWORD PTR [ecx+4]
; Line 140
	pop	edi
	pop	esi
	pop	ebx
	mov	esp, ebp
	pop	ebp
	ret	0
?length@DigitInterval@icu_56@@QBEHXZ ENDP		; icu_56::DigitInterval::length
_TEXT	ENDS
PUBLIC	?getLeastSignificantInclusive@DigitInterval@icu_56@@QBEHXZ ; icu_56::DigitInterval::getLeastSignificantInclusive
; Function compile flags: /Odtp /RTCsu /ZI
;	COMDAT ?getLeastSignificantInclusive@DigitInterval@icu_56@@QBEHXZ
_TEXT	SEGMENT
_this$ = -8						; size = 4
?getLeastSignificantInclusive@DigitInterval@icu_56@@QBEHXZ PROC ; icu_56::DigitInterval::getLeastSignificantInclusive, COMDAT
; _this$ = ecx
; Line 147
	push	ebp
	mov	ebp, esp
	sub	esp, 204				; 000000ccH
	push	ebx
	push	esi
	push	edi
	push	ecx
	lea	edi, DWORD PTR [ebp-204]
	mov	ecx, 51					; 00000033H
	mov	eax, -858993460				; ccccccccH
	rep stosd
	pop	ecx
	mov	DWORD PTR _this$[ebp], ecx
; Line 148
	mov	eax, DWORD PTR _this$[ebp]
	mov	eax, DWORD PTR [eax+4]
; Line 149
	pop	edi
	pop	esi
	pop	ebx
	mov	esp, ebp
	pop	ebp
	ret	0
?getLeastSignificantInclusive@DigitInterval@icu_56@@QBEHXZ ENDP ; icu_56::DigitInterval::getLeastSignificantInclusive
_TEXT	ENDS
PUBLIC	??4DigitInterval@icu_56@@QAEAAV01@ABV01@@Z	; icu_56::DigitInterval::operator=
; Function compile flags: /Odtp /RTCsu /ZI
;	COMDAT ??4DigitInterval@icu_56@@QAEAAV01@ABV01@@Z
_TEXT	SEGMENT
_this$ = -8						; size = 4
___that$ = 8						; size = 4
??4DigitInterval@icu_56@@QAEAAV01@ABV01@@Z PROC		; icu_56::DigitInterval::operator=, COMDAT
; _this$ = ecx
	push	ebp
	mov	ebp, esp
	sub	esp, 204				; 000000ccH
	push	ebx
	push	esi
	push	edi
	push	ecx
	lea	edi, DWORD PTR [ebp-204]
	mov	ecx, 51					; 00000033H
	mov	eax, -858993460				; ccccccccH
	rep stosd
	pop	ecx
	mov	DWORD PTR _this$[ebp], ecx
	mov	eax, DWORD PTR ___that$[ebp]
	mov	ecx, DWORD PTR [eax]
	mov	edx, DWORD PTR [eax+4]
	mov	eax, DWORD PTR _this$[ebp]
	mov	DWORD PTR [eax], ecx
	mov	DWORD PTR [eax+4], edx
	mov	eax, DWORD PTR _this$[ebp]
	pop	edi
	pop	esi
	pop	ebx
	mov	esp, ebp
	pop	ebp
	ret	4
??4DigitInterval@icu_56@@QAEAAV01@ABV01@@Z ENDP		; icu_56::DigitInterval::operator=
_TEXT	ENDS
PUBLIC	??0VisibleDigits@icu_56@@QAE@XZ			; icu_56::VisibleDigits::VisibleDigits
EXTRN	__imp_??1CharString@icu_56@@QAE@XZ:PROC
EXTRN	__imp_??0CharString@icu_56@@QAE@XZ:PROC
;	COMDAT xdata$x
; File d:\mozilla\intl\icu\source\i18n\visibledigits.h
xdata$x	SEGMENT
__unwindtable$??0VisibleDigits@icu_56@@QAE@XZ DD 0ffffffffH
	DD	FLAT:__unwindfunclet$??0VisibleDigits@icu_56@@QAE@XZ$0
__ehfuncinfo$??0VisibleDigits@icu_56@@QAE@XZ DD 019930522H
	DD	01H
	DD	FLAT:__unwindtable$??0VisibleDigits@icu_56@@QAE@XZ
	DD	2 DUP(00H)
	DD	2 DUP(00H)
	DD	00H
	DD	01H
; Function compile flags: /Odtp /RTCsu /ZI
xdata$x	ENDS
;	COMDAT ??0VisibleDigits@icu_56@@QAE@XZ
_TEXT	SEGMENT
_this$ = -20						; size = 4
__$EHRec$ = -12						; size = 12
??0VisibleDigits@icu_56@@QAE@XZ PROC			; icu_56::VisibleDigits::VisibleDigits, COMDAT
; _this$ = ecx
; Line 36
	push	ebp
	mov	ebp, esp
	push	-1
	push	__ehhandler$??0VisibleDigits@icu_56@@QAE@XZ
	mov	eax, DWORD PTR fs:0
	push	eax
	sub	esp, 204				; 000000ccH
	push	ebx
	push	esi
	push	edi
	push	ecx
	lea	edi, DWORD PTR [ebp-216]
	mov	ecx, 51					; 00000033H
	mov	eax, -858993460				; ccccccccH
	rep stosd
	pop	ecx
	mov	eax, DWORD PTR ___security_cookie
	xor	eax, ebp
	push	eax
	lea	eax, DWORD PTR __$EHRec$[ebp]
	mov	DWORD PTR fs:0, eax
	mov	DWORD PTR _this$[ebp], ecx
	mov	esi, esp
	mov	ecx, DWORD PTR _this$[ebp]
	call	DWORD PTR __imp_??0CharString@icu_56@@QAE@XZ
	cmp	esi, esp
	call	__RTC_CheckEsp
	mov	DWORD PTR __$EHRec$[ebp+8], 0
	mov	ecx, DWORD PTR _this$[ebp]
	add	ecx, 56					; 00000038H
	call	??0DigitInterval@icu_56@@QAE@XZ		; icu_56::DigitInterval::DigitInterval
	mov	eax, DWORD PTR _this$[ebp]
	mov	DWORD PTR [eax+64], 0
	mov	eax, DWORD PTR _this$[ebp]
	mov	DWORD PTR [eax+68], 0
	mov	eax, DWORD PTR _this$[ebp]
	mov	DWORD PTR [eax+72], 0
	mov	DWORD PTR [eax+76], 0
	mov	eax, DWORD PTR _this$[ebp]
	mov	BYTE PTR [eax+80], 0
	mov	eax, DWORD PTR _this$[ebp]
	fldz
	fstp	QWORD PTR [eax+88]
	mov	eax, DWORD PTR _this$[ebp]
	mov	BYTE PTR [eax+96], 0
	mov	DWORD PTR __$EHRec$[ebp+8], -1
	mov	eax, DWORD PTR _this$[ebp]
	mov	ecx, DWORD PTR __$EHRec$[ebp]
	mov	DWORD PTR fs:0, ecx
	pop	ecx
	pop	edi
	pop	esi
	pop	ebx
	add	esp, 216				; 000000d8H
	cmp	ebp, esp
	call	__RTC_CheckEsp
	mov	esp, ebp
	pop	ebp
	ret	0
_TEXT	ENDS
;	COMDAT text$x
text$x	SEGMENT
__unwindfunclet$??0VisibleDigits@icu_56@@QAE@XZ$0:
	mov	esi, esp
	mov	ecx, DWORD PTR _this$[ebp]
	call	DWORD PTR __imp_??1CharString@icu_56@@QAE@XZ
	cmp	esi, esp
	jmp	__RTC_CheckEsp
__ehhandler$??0VisibleDigits@icu_56@@QAE@XZ:
	mov	edx, DWORD PTR [esp+8]
	lea	eax, DWORD PTR [edx+12]
	mov	ecx, DWORD PTR [edx-220]
	xor	ecx, eax
	call	@__security_check_cookie@4
	mov	eax, OFFSET __ehfuncinfo$??0VisibleDigits@icu_56@@QAE@XZ
	jmp	___CxxFrameHandler3
text$x	ENDS
??0VisibleDigits@icu_56@@QAE@XZ ENDP			; icu_56::VisibleDigits::VisibleDigits
PUBLIC	?getInterval@VisibleDigits@icu_56@@QBEABVDigitInterval@2@XZ ; icu_56::VisibleDigits::getInterval
; Function compile flags: /Odtp /RTCsu /ZI
;	COMDAT ?getInterval@VisibleDigits@icu_56@@QBEABVDigitInterval@2@XZ
_TEXT	SEGMENT
_this$ = -8						; size = 4
?getInterval@VisibleDigits@icu_56@@QBEABVDigitInterval@2@XZ PROC ; icu_56::VisibleDigits::getInterval, COMDAT
; _this$ = ecx
; Line 57
	push	ebp
	mov	ebp, esp
	sub	esp, 204				; 000000ccH
	push	ebx
	push	esi
	push	edi
	push	ecx
	lea	edi, DWORD PTR [ebp-204]
	mov	ecx, 51					; 00000033H
	mov	eax, -858993460				; ccccccccH
	rep stosd
	pop	ecx
	mov	DWORD PTR _this$[ebp], ecx
	mov	eax, DWORD PTR _this$[ebp]
	add	eax, 56					; 00000038H
	pop	edi
	pop	esi
	pop	ebx
	mov	esp, ebp
	pop	ebp
	ret	0
?getInterval@VisibleDigits@icu_56@@QBEABVDigitInterval@2@XZ ENDP ; icu_56::VisibleDigits::getInterval
_TEXT	ENDS
PUBLIC	??1VisibleDigits@icu_56@@QAE@XZ			; icu_56::VisibleDigits::~VisibleDigits
; Function compile flags: /Odtp /RTCsu /ZI
;	COMDAT ??1VisibleDigits@icu_56@@QAE@XZ
_TEXT	SEGMENT
_this$ = -8						; size = 4
??1VisibleDigits@icu_56@@QAE@XZ PROC			; icu_56::VisibleDigits::~VisibleDigits, COMDAT
; _this$ = ecx
	push	ebp
	mov	ebp, esp
	sub	esp, 204				; 000000ccH
	push	ebx
	push	esi
	push	edi
	push	ecx
	lea	edi, DWORD PTR [ebp-204]
	mov	ecx, 51					; 00000033H
	mov	eax, -858993460				; ccccccccH
	rep stosd
	pop	ecx
	mov	DWORD PTR _this$[ebp], ecx
	mov	esi, esp
	mov	ecx, DWORD PTR _this$[ebp]
	call	DWORD PTR __imp_??1CharString@icu_56@@QAE@XZ
	cmp	esi, esp
	call	__RTC_CheckEsp
	pop	edi
	pop	esi
	pop	ebx
	add	esp, 204				; 000000ccH
	cmp	ebp, esp
	call	__RTC_CheckEsp
	mov	esp, ebp
	pop	ebp
	ret	0
??1VisibleDigits@icu_56@@QAE@XZ ENDP			; icu_56::VisibleDigits::~VisibleDigits
_TEXT	ENDS
PUBLIC	??0VisibleDigitsWithExponent@icu_56@@QAE@XZ	; icu_56::VisibleDigitsWithExponent::VisibleDigitsWithExponent
;	COMDAT xdata$x
xdata$x	SEGMENT
__unwindtable$??0VisibleDigitsWithExponent@icu_56@@QAE@XZ DD 0ffffffffH
	DD	FLAT:__unwindfunclet$??0VisibleDigitsWithExponent@icu_56@@QAE@XZ$0
__ehfuncinfo$??0VisibleDigitsWithExponent@icu_56@@QAE@XZ DD 019930522H
	DD	01H
	DD	FLAT:__unwindtable$??0VisibleDigitsWithExponent@icu_56@@QAE@XZ
	DD	2 DUP(00H)
	DD	2 DUP(00H)
	DD	00H
	DD	01H
; Function compile flags: /Odtp /RTCsu /ZI
xdata$x	ENDS
;	COMDAT ??0VisibleDigitsWithExponent@icu_56@@QAE@XZ
_TEXT	SEGMENT
_this$ = -20						; size = 4
__$EHRec$ = -12						; size = 12
??0VisibleDigitsWithExponent@icu_56@@QAE@XZ PROC	; icu_56::VisibleDigitsWithExponent::VisibleDigitsWithExponent, COMDAT
; _this$ = ecx
; Line 132
	push	ebp
	mov	ebp, esp
	push	-1
	push	__ehhandler$??0VisibleDigitsWithExponent@icu_56@@QAE@XZ
	mov	eax, DWORD PTR fs:0
	push	eax
	sub	esp, 204				; 000000ccH
	push	ebx
	push	esi
	push	edi
	push	ecx
	lea	edi, DWORD PTR [ebp-216]
	mov	ecx, 51					; 00000033H
	mov	eax, -858993460				; ccccccccH
	rep stosd
	pop	ecx
	mov	eax, DWORD PTR ___security_cookie
	xor	eax, ebp
	push	eax
	lea	eax, DWORD PTR __$EHRec$[ebp]
	mov	DWORD PTR fs:0, eax
	mov	DWORD PTR _this$[ebp], ecx
	mov	ecx, DWORD PTR _this$[ebp]
	call	??0VisibleDigits@icu_56@@QAE@XZ		; icu_56::VisibleDigits::VisibleDigits
	mov	DWORD PTR __$EHRec$[ebp+8], 0
	mov	ecx, DWORD PTR _this$[ebp]
	add	ecx, 104				; 00000068H
	call	??0VisibleDigits@icu_56@@QAE@XZ		; icu_56::VisibleDigits::VisibleDigits
	mov	eax, DWORD PTR _this$[ebp]
	mov	BYTE PTR [eax+208], 0
	mov	DWORD PTR __$EHRec$[ebp+8], -1
	mov	eax, DWORD PTR _this$[ebp]
	mov	ecx, DWORD PTR __$EHRec$[ebp]
	mov	DWORD PTR fs:0, ecx
	pop	ecx
	pop	edi
	pop	esi
	pop	ebx
	add	esp, 216				; 000000d8H
	cmp	ebp, esp
	call	__RTC_CheckEsp
	mov	esp, ebp
	pop	ebp
	ret	0
_TEXT	ENDS
;	COMDAT text$x
text$x	SEGMENT
__unwindfunclet$??0VisibleDigitsWithExponent@icu_56@@QAE@XZ$0:
	mov	ecx, DWORD PTR _this$[ebp]
	jmp	??1VisibleDigits@icu_56@@QAE@XZ
__ehhandler$??0VisibleDigitsWithExponent@icu_56@@QAE@XZ:
	mov	edx, DWORD PTR [esp+8]
	lea	eax, DWORD PTR [edx+12]
	mov	ecx, DWORD PTR [edx-220]
	xor	ecx, eax
	call	@__security_check_cookie@4
	mov	eax, OFFSET __ehfuncinfo$??0VisibleDigitsWithExponent@icu_56@@QAE@XZ
	jmp	___CxxFrameHandler3
text$x	ENDS
??0VisibleDigitsWithExponent@icu_56@@QAE@XZ ENDP	; icu_56::VisibleDigitsWithExponent::VisibleDigitsWithExponent
PUBLIC	?getMantissa@VisibleDigitsWithExponent@icu_56@@QBEABVVisibleDigits@2@XZ ; icu_56::VisibleDigitsWithExponent::getMantissa
; Function compile flags: /Odtp /RTCsu /ZI
;	COMDAT ?getMantissa@VisibleDigitsWithExponent@icu_56@@QBEABVVisibleDigits@2@XZ
_TEXT	SEGMENT
_this$ = -8						; size = 4
?getMantissa@VisibleDigitsWithExponent@icu_56@@QBEABVVisibleDigits@2@XZ PROC ; icu_56::VisibleDigitsWithExponent::getMantissa, COMDAT
; _this$ = ecx
; Line 133
	push	ebp
	mov	ebp, esp
	sub	esp, 204				; 000000ccH
	push	ebx
	push	esi
	push	edi
	push	ecx
	lea	edi, DWORD PTR [ebp-204]
	mov	ecx, 51					; 00000033H
	mov	eax, -858993460				; ccccccccH
	rep stosd
	pop	ecx
	mov	DWORD PTR _this$[ebp], ecx
	mov	eax, DWORD PTR _this$[ebp]
	pop	edi
	pop	esi
	pop	ebx
	mov	esp, ebp
	pop	ebp
	ret	0
?getMantissa@VisibleDigitsWithExponent@icu_56@@QBEABVVisibleDigits@2@XZ ENDP ; icu_56::VisibleDigitsWithExponent::getMantissa
_TEXT	ENDS
PUBLIC	?getExponent@VisibleDigitsWithExponent@icu_56@@QBEPBVVisibleDigits@2@XZ ; icu_56::VisibleDigitsWithExponent::getExponent
; Function compile flags: /Odtp /RTCsu /ZI
;	COMDAT ?getExponent@VisibleDigitsWithExponent@icu_56@@QBEPBVVisibleDigits@2@XZ
_TEXT	SEGMENT
tv68 = -208						; size = 4
_this$ = -8						; size = 4
?getExponent@VisibleDigitsWithExponent@icu_56@@QBEPBVVisibleDigits@2@XZ PROC ; icu_56::VisibleDigitsWithExponent::getExponent, COMDAT
; _this$ = ecx
; Line 134
	push	ebp
	mov	ebp, esp
	sub	esp, 208				; 000000d0H
	push	ebx
	push	esi
	push	edi
	push	ecx
	lea	edi, DWORD PTR [ebp-208]
	mov	ecx, 52					; 00000034H
	mov	eax, -858993460				; ccccccccH
	rep stosd
	pop	ecx
	mov	DWORD PTR _this$[ebp], ecx
; Line 135
	mov	eax, DWORD PTR _this$[ebp]
	movsx	ecx, BYTE PTR [eax+208]
	test	ecx, ecx
	je	SHORT $LN3@getExponen
	mov	edx, DWORD PTR _this$[ebp]
	add	edx, 104				; 00000068H
	mov	DWORD PTR tv68[ebp], edx
	jmp	SHORT $LN4@getExponen
$LN3@getExponen:
	mov	DWORD PTR tv68[ebp], 0
$LN4@getExponen:
	mov	eax, DWORD PTR tv68[ebp]
; Line 136
	pop	edi
	pop	esi
	pop	ebx
	mov	esp, ebp
	pop	ebp
	ret	0
?getExponent@VisibleDigitsWithExponent@icu_56@@QBEPBVVisibleDigits@2@XZ ENDP ; icu_56::VisibleDigitsWithExponent::getExponent
_TEXT	ENDS
PUBLIC	?clear@VisibleDigitsWithExponent@icu_56@@QAEXXZ	; icu_56::VisibleDigitsWithExponent::clear
EXTRN	?clear@VisibleDigits@icu_56@@AAEXXZ:PROC	; icu_56::VisibleDigits::clear
; Function compile flags: /Odtp /RTCsu /ZI
;	COMDAT ?clear@VisibleDigitsWithExponent@icu_56@@QAEXXZ
_TEXT	SEGMENT
_this$ = -8						; size = 4
?clear@VisibleDigitsWithExponent@icu_56@@QAEXXZ PROC	; icu_56::VisibleDigitsWithExponent::clear, COMDAT
; _this$ = ecx
; Line 137
	push	ebp
	mov	ebp, esp
	sub	esp, 204				; 000000ccH
	push	ebx
	push	esi
	push	edi
	push	ecx
	lea	edi, DWORD PTR [ebp-204]
	mov	ecx, 51					; 00000033H
	mov	eax, -858993460				; ccccccccH
	rep stosd
	pop	ecx
	mov	DWORD PTR _this$[ebp], ecx
; Line 138
	mov	ecx, DWORD PTR _this$[ebp]
	call	?clear@VisibleDigits@icu_56@@AAEXXZ	; icu_56::VisibleDigits::clear
; Line 139
	mov	ecx, DWORD PTR _this$[ebp]
	add	ecx, 104				; 00000068H
	call	?clear@VisibleDigits@icu_56@@AAEXXZ	; icu_56::VisibleDigits::clear
; Line 140
	mov	eax, DWORD PTR _this$[ebp]
	mov	BYTE PTR [eax+208], 0
; Line 141
	pop	edi
	pop	esi
	pop	ebx
	add	esp, 204				; 000000ccH
	cmp	ebp, esp
	call	__RTC_CheckEsp
	mov	esp, ebp
	pop	ebp
	ret	0
?clear@VisibleDigitsWithExponent@icu_56@@QAEXXZ ENDP	; icu_56::VisibleDigitsWithExponent::clear
_TEXT	ENDS
PUBLIC	?isNegative@VisibleDigitsWithExponent@icu_56@@QBECXZ ; icu_56::VisibleDigitsWithExponent::isNegative
EXTRN	?isNegative@VisibleDigits@icu_56@@QBECXZ:PROC	; icu_56::VisibleDigits::isNegative
; Function compile flags: /Odtp /RTCsu /ZI
;	COMDAT ?isNegative@VisibleDigitsWithExponent@icu_56@@QBECXZ
_TEXT	SEGMENT
_this$ = -8						; size = 4
?isNegative@VisibleDigitsWithExponent@icu_56@@QBECXZ PROC ; icu_56::VisibleDigitsWithExponent::isNegative, COMDAT
; _this$ = ecx
; Line 142
	push	ebp
	mov	ebp, esp
	sub	esp, 204				; 000000ccH
	push	ebx
	push	esi
	push	edi
	push	ecx
	lea	edi, DWORD PTR [ebp-204]
	mov	ecx, 51					; 00000033H
	mov	eax, -858993460				; ccccccccH
	rep stosd
	pop	ecx
	mov	DWORD PTR _this$[ebp], ecx
	mov	ecx, DWORD PTR _this$[ebp]
	call	?isNegative@VisibleDigits@icu_56@@QBECXZ ; icu_56::VisibleDigits::isNegative
	pop	edi
	pop	esi
	pop	ebx
	add	esp, 204				; 000000ccH
	cmp	ebp, esp
	call	__RTC_CheckEsp
	mov	esp, ebp
	pop	ebp
	ret	0
?isNegative@VisibleDigitsWithExponent@icu_56@@QBECXZ ENDP ; icu_56::VisibleDigitsWithExponent::isNegative
_TEXT	ENDS
PUBLIC	?isNaN@VisibleDigitsWithExponent@icu_56@@QBECXZ	; icu_56::VisibleDigitsWithExponent::isNaN
EXTRN	?isNaN@VisibleDigits@icu_56@@QBECXZ:PROC	; icu_56::VisibleDigits::isNaN
; Function compile flags: /Odtp /RTCsu /ZI
;	COMDAT ?isNaN@VisibleDigitsWithExponent@icu_56@@QBECXZ
_TEXT	SEGMENT
_this$ = -8						; size = 4
?isNaN@VisibleDigitsWithExponent@icu_56@@QBECXZ PROC	; icu_56::VisibleDigitsWithExponent::isNaN, COMDAT
; _this$ = ecx
; Line 143
	push	ebp
	mov	ebp, esp
	sub	esp, 204				; 000000ccH
	push	ebx
	push	esi
	push	edi
	push	ecx
	lea	edi, DWORD PTR [ebp-204]
	mov	ecx, 51					; 00000033H
	mov	eax, -858993460				; ccccccccH
	rep stosd
	pop	ecx
	mov	DWORD PTR _this$[ebp], ecx
	mov	ecx, DWORD PTR _this$[ebp]
	call	?isNaN@VisibleDigits@icu_56@@QBECXZ	; icu_56::VisibleDigits::isNaN
	pop	edi
	pop	esi
	pop	ebx
	add	esp, 204				; 000000ccH
	cmp	ebp, esp
	call	__RTC_CheckEsp
	mov	esp, ebp
	pop	ebp
	ret	0
?isNaN@VisibleDigitsWithExponent@icu_56@@QBECXZ ENDP	; icu_56::VisibleDigitsWithExponent::isNaN
_TEXT	ENDS
PUBLIC	?isInfinite@VisibleDigitsWithExponent@icu_56@@QBECXZ ; icu_56::VisibleDigitsWithExponent::isInfinite
EXTRN	?isInfinite@VisibleDigits@icu_56@@QBECXZ:PROC	; icu_56::VisibleDigits::isInfinite
; Function compile flags: /Odtp /RTCsu /ZI
;	COMDAT ?isInfinite@VisibleDigitsWithExponent@icu_56@@QBECXZ
_TEXT	SEGMENT
_this$ = -8						; size = 4
?isInfinite@VisibleDigitsWithExponent@icu_56@@QBECXZ PROC ; icu_56::VisibleDigitsWithExponent::isInfinite, COMDAT
; _this$ = ecx
; Line 144
	push	ebp
	mov	ebp, esp
	sub	esp, 204				; 000000ccH
	push	ebx
	push	esi
	push	edi
	push	ecx
	lea	edi, DWORD PTR [ebp-204]
	mov	ecx, 51					; 00000033H
	mov	eax, -858993460				; ccccccccH
	rep stosd
	pop	ecx
	mov	DWORD PTR _this$[ebp], ecx
	mov	ecx, DWORD PTR _this$[ebp]
	call	?isInfinite@VisibleDigits@icu_56@@QBECXZ ; icu_56::VisibleDigits::isInfinite
	pop	edi
	pop	esi
	pop	ebx
	add	esp, 204				; 000000ccH
	cmp	ebp, esp
	call	__RTC_CheckEsp
	mov	esp, ebp
	pop	ebp
	ret	0
?isInfinite@VisibleDigitsWithExponent@icu_56@@QBECXZ ENDP ; icu_56::VisibleDigitsWithExponent::isInfinite
_TEXT	ENDS
PUBLIC	??1VisibleDigitsWithExponent@icu_56@@QAE@XZ	; icu_56::VisibleDigitsWithExponent::~VisibleDigitsWithExponent
;	COMDAT xdata$x
xdata$x	SEGMENT
__unwindtable$??1VisibleDigitsWithExponent@icu_56@@QAE@XZ DD 0ffffffffH
	DD	FLAT:__unwindfunclet$??1VisibleDigitsWithExponent@icu_56@@QAE@XZ$0
__ehfuncinfo$??1VisibleDigitsWithExponent@icu_56@@QAE@XZ DD 019930522H
	DD	01H
	DD	FLAT:__unwindtable$??1VisibleDigitsWithExponent@icu_56@@QAE@XZ
	DD	2 DUP(00H)
	DD	2 DUP(00H)
	DD	00H
	DD	01H
; Function compile flags: /Odtp /RTCsu /ZI
xdata$x	ENDS
;	COMDAT ??1VisibleDigitsWithExponent@icu_56@@QAE@XZ
_TEXT	SEGMENT
_this$ = -20						; size = 4
__$EHRec$ = -12						; size = 12
??1VisibleDigitsWithExponent@icu_56@@QAE@XZ PROC	; icu_56::VisibleDigitsWithExponent::~VisibleDigitsWithExponent, COMDAT
; _this$ = ecx
	push	ebp
	mov	ebp, esp
	push	-1
	push	__ehhandler$??1VisibleDigitsWithExponent@icu_56@@QAE@XZ
	mov	eax, DWORD PTR fs:0
	push	eax
	sub	esp, 204				; 000000ccH
	push	ebx
	push	esi
	push	edi
	push	ecx
	lea	edi, DWORD PTR [ebp-216]
	mov	ecx, 51					; 00000033H
	mov	eax, -858993460				; ccccccccH
	rep stosd
	pop	ecx
	mov	eax, DWORD PTR ___security_cookie
	xor	eax, ebp
	push	eax
	lea	eax, DWORD PTR __$EHRec$[ebp]
	mov	DWORD PTR fs:0, eax
	mov	DWORD PTR _this$[ebp], ecx
	mov	DWORD PTR __$EHRec$[ebp+8], 0
	mov	ecx, DWORD PTR _this$[ebp]
	add	ecx, 104				; 00000068H
	call	??1VisibleDigits@icu_56@@QAE@XZ
	mov	DWORD PTR __$EHRec$[ebp+8], -1
	mov	ecx, DWORD PTR _this$[ebp]
	call	??1VisibleDigits@icu_56@@QAE@XZ
	mov	ecx, DWORD PTR __$EHRec$[ebp]
	mov	DWORD PTR fs:0, ecx
	pop	ecx
	pop	edi
	pop	esi
	pop	ebx
	add	esp, 216				; 000000d8H
	cmp	ebp, esp
	call	__RTC_CheckEsp
	mov	esp, ebp
	pop	ebp
	ret	0
_TEXT	ENDS
;	COMDAT text$x
text$x	SEGMENT
__unwindfunclet$??1VisibleDigitsWithExponent@icu_56@@QAE@XZ$0:
	mov	ecx, DWORD PTR _this$[ebp]
	jmp	??1VisibleDigits@icu_56@@QAE@XZ
__ehhandler$??1VisibleDigitsWithExponent@icu_56@@QAE@XZ:
	mov	edx, DWORD PTR [esp+8]
	lea	eax, DWORD PTR [edx+12]
	mov	ecx, DWORD PTR [edx-220]
	xor	ecx, eax
	call	@__security_check_cookie@4
	mov	eax, OFFSET __ehfuncinfo$??1VisibleDigitsWithExponent@icu_56@@QAE@XZ
	jmp	___CxxFrameHandler3
text$x	ENDS
??1VisibleDigitsWithExponent@icu_56@@QAE@XZ ENDP	; icu_56::VisibleDigitsWithExponent::~VisibleDigitsWithExponent
PUBLIC	?getStaticClassID@PluralRules@icu_56@@SAPAXXZ	; icu_56::PluralRules::getStaticClassID
; Function compile flags: /Odtp /RTCsu /ZI
;	COMDAT ?getStaticClassID@PluralRules@icu_56@@SAPAXXZ
_TEXT	SEGMENT
?getStaticClassID@PluralRules@icu_56@@SAPAXXZ PROC	; icu_56::PluralRules::getStaticClassID, COMDAT
; File d:\mozilla\intl\icu\source\i18n\plurrule.cpp
; Line 61
	push	ebp
	mov	ebp, esp
	sub	esp, 192				; 000000c0H
	push	ebx
	push	esi
	push	edi
	lea	edi, DWORD PTR [ebp-192]
	mov	ecx, 48					; 00000030H
	mov	eax, -858993460				; ccccccccH
	rep stosd
	mov	eax, OFFSET ?classID@?1??getStaticClassID@PluralRules@icu_56@@SAPAXXZ@4DA
	pop	edi
	pop	esi
	pop	ebx
	mov	esp, ebp
	pop	ebp
	ret	0
?getStaticClassID@PluralRules@icu_56@@SAPAXXZ ENDP	; icu_56::PluralRules::getStaticClassID
_TEXT	ENDS
PUBLIC	?getDynamicClassID@PluralRules@icu_56@@UBEPAXXZ	; icu_56::PluralRules::getDynamicClassID
; Function compile flags: /Odtp /RTCsu /ZI
;	COMDAT ?getDynamicClassID@PluralRules@icu_56@@UBEPAXXZ
_TEXT	SEGMENT
_this$ = -8						; size = 4
?getDynamicClassID@PluralRules@icu_56@@UBEPAXXZ PROC	; icu_56::PluralRules::getDynamicClassID, COMDAT
; _this$ = ecx
; Line 61
	push	ebp
	mov	ebp, esp
	sub	esp, 204				; 000000ccH
	push	ebx
	push	esi
	push	edi
	push	ecx
	lea	edi, DWORD PTR [ebp-204]
	mov	ecx, 51					; 00000033H
	mov	eax, -858993460				; ccccccccH
	rep stosd
	pop	ecx
	mov	DWORD PTR _this$[ebp], ecx
	call	?getStaticClassID@PluralRules@icu_56@@SAPAXXZ ; icu_56::PluralRules::getStaticClassID
	pop	edi
	pop	esi
	pop	ebx
	add	esp, 204				; 000000ccH
	cmp	ebp, esp
	call	__RTC_CheckEsp
	mov	esp, ebp
	pop	ebp
	ret	0
?getDynamicClassID@PluralRules@icu_56@@UBEPAXXZ ENDP	; icu_56::PluralRules::getDynamicClassID
_TEXT	ENDS
PUBLIC	?getStaticClassID@PluralKeywordEnumeration@icu_56@@SAPAXXZ ; icu_56::PluralKeywordEnumeration::getStaticClassID
; Function compile flags: /Odtp /RTCsu /ZI
;	COMDAT ?getStaticClassID@PluralKeywordEnumeration@icu_56@@SAPAXXZ
_TEXT	SEGMENT
?getStaticClassID@PluralKeywordEnumeration@icu_56@@SAPAXXZ PROC ; icu_56::PluralKeywordEnumeration::getStaticClassID, COMDAT
; Line 62
	push	ebp
	mov	ebp, esp
	sub	esp, 192				; 000000c0H
	push	ebx
	push	esi
	push	edi
	lea	edi, DWORD PTR [ebp-192]
	mov	ecx, 48					; 00000030H
	mov	eax, -858993460				; ccccccccH
	rep stosd
	mov	eax, OFFSET ?classID@?1??getStaticClassID@PluralKeywordEnumeration@icu_56@@SAPAXXZ@4DA
	pop	edi
	pop	esi
	pop	ebx
	mov	esp, ebp
	pop	ebp
	ret	0
?getStaticClassID@PluralKeywordEnumeration@icu_56@@SAPAXXZ ENDP ; icu_56::PluralKeywordEnumeration::getStaticClassID
_TEXT	ENDS
PUBLIC	?getDynamicClassID@PluralKeywordEnumeration@icu_56@@UBEPAXXZ ; icu_56::PluralKeywordEnumeration::getDynamicClassID
; Function compile flags: /Odtp /RTCsu /ZI
;	COMDAT ?getDynamicClassID@PluralKeywordEnumeration@icu_56@@UBEPAXXZ
_TEXT	SEGMENT
_this$ = -8						; size = 4
?getDynamicClassID@PluralKeywordEnumeration@icu_56@@UBEPAXXZ PROC ; icu_56::PluralKeywordEnumeration::getDynamicClassID, COMDAT
; _this$ = ecx
; Line 62
	push	ebp
	mov	ebp, esp
	sub	esp, 204				; 000000ccH
	push	ebx
	push	esi
	push	edi
	push	ecx
	lea	edi, DWORD PTR [ebp-204]
	mov	ecx, 51					; 00000033H
	mov	eax, -858993460				; ccccccccH
	rep stosd
	pop	ecx
	mov	DWORD PTR _this$[ebp], ecx
	call	?getStaticClassID@PluralKeywordEnumeration@icu_56@@SAPAXXZ ; icu_56::PluralKeywordEnumeration::getStaticClassID
	pop	edi
	pop	esi
	pop	ebx
	add	esp, 204				; 000000ccH
	cmp	ebp, esp
	call	__RTC_CheckEsp
	mov	esp, ebp
	pop	ebp
	ret	0
?getDynamicClassID@PluralKeywordEnumeration@icu_56@@UBEPAXXZ ENDP ; icu_56::PluralKeywordEnumeration::getDynamicClassID
_TEXT	ENDS
PUBLIC	??_7PluralRules@icu_56@@6B@			; icu_56::PluralRules::`vftable'
PUBLIC	??0PluralRules@icu_56@@QAE@AAW4UErrorCode@@@Z	; icu_56::PluralRules::PluralRules
PUBLIC	??_R4PluralRules@icu_56@@6B@			; icu_56::PluralRules::`RTTI Complete Object Locator'
PUBLIC	??_R0?AVPluralRules@icu_56@@@8			; icu_56::PluralRules `RTTI Type Descriptor'
PUBLIC	??_R3PluralRules@icu_56@@8			; icu_56::PluralRules::`RTTI Class Hierarchy Descriptor'
PUBLIC	??_R2PluralRules@icu_56@@8			; icu_56::PluralRules::`RTTI Base Class Array'
PUBLIC	??_R1A@?0A@EA@PluralRules@icu_56@@8		; icu_56::PluralRules::`RTTI Base Class Descriptor at (0,-1,0,64)'
PUBLIC	??8PluralRules@icu_56@@UBECABV01@@Z		; icu_56::PluralRules::operator==
;	COMDAT ??_R1A@?0A@EA@PluralRules@icu_56@@8
rdata$r	SEGMENT
??_R1A@?0A@EA@PluralRules@icu_56@@8 DD FLAT:??_R0?AVPluralRules@icu_56@@@8 ; icu_56::PluralRules::`RTTI Base Class Descriptor at (0,-1,0,64)'
	DD	02H
	DD	00H
	DD	0ffffffffH
	DD	00H
	DD	040H
	DD	FLAT:??_R3PluralRules@icu_56@@8
rdata$r	ENDS
;	COMDAT ??_R2PluralRules@icu_56@@8
rdata$r	SEGMENT
??_R2PluralRules@icu_56@@8 DD FLAT:??_R1A@?0A@EA@PluralRules@icu_56@@8 ; icu_56::PluralRules::`RTTI Base Class Array'
	DD	FLAT:??_R1A@?0A@EA@UObject@icu_56@@8
	DD	FLAT:??_R13?0A@EA@UMemory@icu_56@@8
rdata$r	ENDS
;	COMDAT ??_R3PluralRules@icu_56@@8
rdata$r	SEGMENT
??_R3PluralRules@icu_56@@8 DD 00H			; icu_56::PluralRules::`RTTI Class Hierarchy Descriptor'
	DD	00H
	DD	03H
	DD	FLAT:??_R2PluralRules@icu_56@@8
rdata$r	ENDS
;	COMDAT ??_R0?AVPluralRules@icu_56@@@8
_DATA	SEGMENT
??_R0?AVPluralRules@icu_56@@@8 DD FLAT:??_7type_info@@6B@ ; icu_56::PluralRules `RTTI Type Descriptor'
	DD	00H
	DB	'.?AVPluralRules@icu_56@@', 00H
_DATA	ENDS
;	COMDAT ??_R4PluralRules@icu_56@@6B@
rdata$r	SEGMENT
??_R4PluralRules@icu_56@@6B@ DD 00H			; icu_56::PluralRules::`RTTI Complete Object Locator'
	DD	00H
	DD	00H
	DD	FLAT:??_R0?AVPluralRules@icu_56@@@8
	DD	FLAT:??_R3PluralRules@icu_56@@8
rdata$r	ENDS
;	COMDAT ??_7PluralRules@icu_56@@6B@
CONST	SEGMENT
??_7PluralRules@icu_56@@6B@ DD FLAT:??_R4PluralRules@icu_56@@6B@ ; icu_56::PluralRules::`vftable'
	DD	FLAT:??_EPluralRules@icu_56@@UAEPAXI@Z
	DD	FLAT:?getDynamicClassID@PluralRules@icu_56@@UBEPAXXZ
	DD	FLAT:??8PluralRules@icu_56@@UBECABV01@@Z
; Function compile flags: /Odtp /RTCsu /ZI
CONST	ENDS
;	COMDAT ??0PluralRules@icu_56@@QAE@AAW4UErrorCode@@@Z
_TEXT	SEGMENT
_this$ = -8						; size = 4
___formal$ = 8						; size = 4
??0PluralRules@icu_56@@QAE@AAW4UErrorCode@@@Z PROC	; icu_56::PluralRules::PluralRules, COMDAT
; _this$ = ecx
; Line 67
	push	ebp
	mov	ebp, esp
	sub	esp, 204				; 000000ccH
	push	ebx
	push	esi
	push	edi
	push	ecx
	lea	edi, DWORD PTR [ebp-204]
	mov	ecx, 51					; 00000033H
	mov	eax, -858993460				; ccccccccH
	rep stosd
	pop	ecx
	mov	DWORD PTR _this$[ebp], ecx
	mov	esi, esp
	mov	ecx, DWORD PTR _this$[ebp]
	call	DWORD PTR __imp_??0UObject@icu_56@@QAE@XZ
	cmp	esi, esp
	call	__RTC_CheckEsp
	mov	eax, DWORD PTR _this$[ebp]
	mov	DWORD PTR [eax], OFFSET ??_7PluralRules@icu_56@@6B@
	mov	eax, DWORD PTR _this$[ebp]
	mov	DWORD PTR [eax+4], 0
; Line 68
	mov	eax, DWORD PTR _this$[ebp]
	pop	edi
	pop	esi
	pop	ebx
	add	esp, 204				; 000000ccH
	cmp	ebp, esp
	call	__RTC_CheckEsp
	mov	esp, ebp
	pop	ebp
	ret	4
??0PluralRules@icu_56@@QAE@AAW4UErrorCode@@@Z ENDP	; icu_56::PluralRules::PluralRules
_TEXT	ENDS
PUBLIC	??4PluralRules@icu_56@@QAEAAV01@ABV01@@Z	; icu_56::PluralRules::operator=
PUBLIC	??0PluralRules@icu_56@@QAE@ABV01@@Z		; icu_56::PluralRules::PluralRules
EXTRN	__imp_??1UObject@icu_56@@UAE@XZ:PROC
;	COMDAT xdata$x
xdata$x	SEGMENT
__unwindtable$??0PluralRules@icu_56@@QAE@ABV01@@Z DD 0ffffffffH
	DD	FLAT:__unwindfunclet$??0PluralRules@icu_56@@QAE@ABV01@@Z$0
__ehfuncinfo$??0PluralRules@icu_56@@QAE@ABV01@@Z DD 019930522H
	DD	01H
	DD	FLAT:__unwindtable$??0PluralRules@icu_56@@QAE@ABV01@@Z
	DD	2 DUP(00H)
	DD	2 DUP(00H)
	DD	00H
	DD	01H
; Function compile flags: /Odtp /RTCsu /ZI
xdata$x	ENDS
;	COMDAT ??0PluralRules@icu_56@@QAE@ABV01@@Z
_TEXT	SEGMENT
_this$ = -20						; size = 4
__$EHRec$ = -12						; size = 12
_other$ = 8						; size = 4
??0PluralRules@icu_56@@QAE@ABV01@@Z PROC		; icu_56::PluralRules::PluralRules, COMDAT
; _this$ = ecx
; Line 73
	push	ebp
	mov	ebp, esp
	push	-1
	push	__ehhandler$??0PluralRules@icu_56@@QAE@ABV01@@Z
	mov	eax, DWORD PTR fs:0
	push	eax
	sub	esp, 204				; 000000ccH
	push	ebx
	push	esi
	push	edi
	push	ecx
	lea	edi, DWORD PTR [ebp-216]
	mov	ecx, 51					; 00000033H
	mov	eax, -858993460				; ccccccccH
	rep stosd
	pop	ecx
	mov	eax, DWORD PTR ___security_cookie
	xor	eax, ebp
	push	eax
	lea	eax, DWORD PTR __$EHRec$[ebp]
	mov	DWORD PTR fs:0, eax
	mov	DWORD PTR _this$[ebp], ecx
	mov	esi, esp
	mov	eax, DWORD PTR _other$[ebp]
	push	eax
	mov	ecx, DWORD PTR _this$[ebp]
	call	DWORD PTR __imp_??0UObject@icu_56@@QAE@ABV01@@Z
	cmp	esi, esp
	call	__RTC_CheckEsp
	mov	DWORD PTR __$EHRec$[ebp+8], 0
	mov	eax, DWORD PTR _this$[ebp]
	mov	DWORD PTR [eax], OFFSET ??_7PluralRules@icu_56@@6B@
	mov	eax, DWORD PTR _this$[ebp]
	mov	DWORD PTR [eax+4], 0
; Line 74
	mov	eax, DWORD PTR _other$[ebp]
	push	eax
	mov	ecx, DWORD PTR _this$[ebp]
	call	??4PluralRules@icu_56@@QAEAAV01@ABV01@@Z ; icu_56::PluralRules::operator=
; Line 75
	mov	DWORD PTR __$EHRec$[ebp+8], -1
	mov	eax, DWORD PTR _this$[ebp]
	mov	ecx, DWORD PTR __$EHRec$[ebp]
	mov	DWORD PTR fs:0, ecx
	pop	ecx
	pop	edi
	pop	esi
	pop	ebx
	add	esp, 216				; 000000d8H
	cmp	ebp, esp
	call	__RTC_CheckEsp
	mov	esp, ebp
	pop	ebp
	ret	4
_TEXT	ENDS
;	COMDAT text$x
text$x	SEGMENT
__unwindfunclet$??0PluralRules@icu_56@@QAE@ABV01@@Z$0:
	mov	esi, esp
	mov	ecx, DWORD PTR _this$[ebp]
	call	DWORD PTR __imp_??1UObject@icu_56@@UAE@XZ
	cmp	esi, esp
	jmp	__RTC_CheckEsp
__ehhandler$??0PluralRules@icu_56@@QAE@ABV01@@Z:
	mov	edx, DWORD PTR [esp+8]
	lea	eax, DWORD PTR [edx+12]
	mov	ecx, DWORD PTR [edx-220]
	xor	ecx, eax
	call	@__security_check_cookie@4
	mov	eax, OFFSET __ehfuncinfo$??0PluralRules@icu_56@@QAE@ABV01@@Z
	jmp	___CxxFrameHandler3
text$x	ENDS
??0PluralRules@icu_56@@QAE@ABV01@@Z ENDP		; icu_56::PluralRules::PluralRules
;	COMDAT xdata$x
xdata$x	SEGMENT
__unwindtable$??1PluralRules@icu_56@@UAE@XZ DD 0ffffffffH
	DD	FLAT:__unwindfunclet$??1PluralRules@icu_56@@UAE@XZ$0
__ehfuncinfo$??1PluralRules@icu_56@@UAE@XZ DD 019930522H
	DD	01H
	DD	FLAT:__unwindtable$??1PluralRules@icu_56@@UAE@XZ
	DD	2 DUP(00H)
	DD	2 DUP(00H)
	DD	00H
	DD	01H
; Function compile flags: /Odtp /RTCsu /ZI
xdata$x	ENDS
;	COMDAT ??1PluralRules@icu_56@@UAE@XZ
_TEXT	SEGMENT
tv81 = -244						; size = 4
$T84565 = -236						; size = 4
$T84566 = -224						; size = 4
_this$ = -20						; size = 4
__$EHRec$ = -12						; size = 12
??1PluralRules@icu_56@@UAE@XZ PROC			; icu_56::PluralRules::~PluralRules, COMDAT
; _this$ = ecx
; Line 77
	push	ebp
	mov	ebp, esp
	push	-1
	push	__ehhandler$??1PluralRules@icu_56@@UAE@XZ
	mov	eax, DWORD PTR fs:0
	push	eax
	sub	esp, 232				; 000000e8H
	push	ebx
	push	esi
	push	edi
	push	ecx
	lea	edi, DWORD PTR [ebp-244]
	mov	ecx, 58					; 0000003aH
	mov	eax, -858993460				; ccccccccH
	rep stosd
	pop	ecx
	mov	eax, DWORD PTR ___security_cookie
	xor	eax, ebp
	push	eax
	lea	eax, DWORD PTR __$EHRec$[ebp]
	mov	DWORD PTR fs:0, eax
	mov	DWORD PTR _this$[ebp], ecx
	mov	eax, DWORD PTR _this$[ebp]
	mov	DWORD PTR [eax], OFFSET ??_7PluralRules@icu_56@@6B@
	mov	DWORD PTR __$EHRec$[ebp+8], 0
; Line 78
	mov	eax, DWORD PTR _this$[ebp]
	mov	ecx, DWORD PTR [eax+4]
	mov	DWORD PTR $T84566[ebp], ecx
	mov	edx, DWORD PTR $T84566[ebp]
	mov	DWORD PTR $T84565[ebp], edx
	cmp	DWORD PTR $T84565[ebp], 0
	je	SHORT $LN3@PluralRule
	mov	esi, esp
	push	1
	mov	eax, DWORD PTR $T84565[ebp]
	mov	edx, DWORD PTR [eax]
	mov	ecx, DWORD PTR $T84565[ebp]
	mov	eax, DWORD PTR [edx]
	call	eax
	cmp	esi, esp
	call	__RTC_CheckEsp
	mov	DWORD PTR tv81[ebp], eax
	jmp	SHORT $LN1@PluralRule
$LN3@PluralRule:
	mov	DWORD PTR tv81[ebp], 0
$LN1@PluralRule:
; Line 79
	mov	DWORD PTR __$EHRec$[ebp+8], -1
	mov	esi, esp
	mov	ecx, DWORD PTR _this$[ebp]
	call	DWORD PTR __imp_??1UObject@icu_56@@UAE@XZ
	cmp	esi, esp
	call	__RTC_CheckEsp
	mov	ecx, DWORD PTR __$EHRec$[ebp]
	mov	DWORD PTR fs:0, ecx
	pop	ecx
	pop	edi
	pop	esi
	pop	ebx
	add	esp, 244				; 000000f4H
	cmp	ebp, esp
	call	__RTC_CheckEsp
	mov	esp, ebp
	pop	ebp
	ret	0
_TEXT	ENDS
;	COMDAT text$x
text$x	SEGMENT
__unwindfunclet$??1PluralRules@icu_56@@UAE@XZ$0:
	mov	esi, esp
	mov	ecx, DWORD PTR _this$[ebp]
	call	DWORD PTR __imp_??1UObject@icu_56@@UAE@XZ
	cmp	esi, esp
	jmp	__RTC_CheckEsp
__ehhandler$??1PluralRules@icu_56@@UAE@XZ:
	mov	edx, DWORD PTR [esp+8]
	lea	eax, DWORD PTR [edx+12]
	mov	ecx, DWORD PTR [edx-248]
	xor	ecx, eax
	call	@__security_check_cookie@4
	mov	eax, OFFSET __ehfuncinfo$??1PluralRules@icu_56@@UAE@XZ
	jmp	___CxxFrameHandler3
text$x	ENDS
??1PluralRules@icu_56@@UAE@XZ ENDP			; icu_56::PluralRules::~PluralRules
EXTRN	__imp_??1SharedObject@icu_56@@UAE@XZ:PROC
;	COMDAT xdata$x
xdata$x	SEGMENT
__unwindtable$??1SharedPluralRules@icu_56@@UAE@XZ DD 0ffffffffH
	DD	FLAT:__unwindfunclet$??1SharedPluralRules@icu_56@@UAE@XZ$0
__ehfuncinfo$??1SharedPluralRules@icu_56@@UAE@XZ DD 019930522H
	DD	01H
	DD	FLAT:__unwindtable$??1SharedPluralRules@icu_56@@UAE@XZ
	DD	2 DUP(00H)
	DD	2 DUP(00H)
	DD	00H
	DD	01H
; Function compile flags: /Odtp /RTCsu /ZI
xdata$x	ENDS
;	COMDAT ??1SharedPluralRules@icu_56@@UAE@XZ
_TEXT	SEGMENT
tv85 = -244						; size = 4
$T84578 = -236						; size = 4
$T84579 = -224						; size = 4
_this$ = -20						; size = 4
__$EHRec$ = -12						; size = 12
??1SharedPluralRules@icu_56@@UAE@XZ PROC		; icu_56::SharedPluralRules::~SharedPluralRules, COMDAT
; _this$ = ecx
; Line 81
	push	ebp
	mov	ebp, esp
	push	-1
	push	__ehhandler$??1SharedPluralRules@icu_56@@UAE@XZ
	mov	eax, DWORD PTR fs:0
	push	eax
	sub	esp, 232				; 000000e8H
	push	ebx
	push	esi
	push	edi
	push	ecx
	lea	edi, DWORD PTR [ebp-244]
	mov	ecx, 58					; 0000003aH
	mov	eax, -858993460				; ccccccccH
	rep stosd
	pop	ecx
	mov	eax, DWORD PTR ___security_cookie
	xor	eax, ebp
	push	eax
	lea	eax, DWORD PTR __$EHRec$[ebp]
	mov	DWORD PTR fs:0, eax
	mov	DWORD PTR _this$[ebp], ecx
	mov	eax, DWORD PTR _this$[ebp]
	mov	DWORD PTR [eax], OFFSET ??_7SharedPluralRules@icu_56@@6B@
	mov	DWORD PTR __$EHRec$[ebp+8], 0
; Line 82
	mov	eax, DWORD PTR _this$[ebp]
	mov	ecx, DWORD PTR [eax+20]
	mov	DWORD PTR $T84579[ebp], ecx
	mov	edx, DWORD PTR $T84579[ebp]
	mov	DWORD PTR $T84578[ebp], edx
	cmp	DWORD PTR $T84578[ebp], 0
	je	SHORT $LN3@SharedPlur
	mov	esi, esp
	push	1
	mov	eax, DWORD PTR $T84578[ebp]
	mov	edx, DWORD PTR [eax]
	mov	ecx, DWORD PTR $T84578[ebp]
	mov	eax, DWORD PTR [edx]
	call	eax
	cmp	esi, esp
	call	__RTC_CheckEsp
	mov	DWORD PTR tv85[ebp], eax
	jmp	SHORT $LN1@SharedPlur
$LN3@SharedPlur:
	mov	DWORD PTR tv85[ebp], 0
$LN1@SharedPlur:
; Line 83
	mov	DWORD PTR __$EHRec$[ebp+8], -1
	mov	esi, esp
	mov	ecx, DWORD PTR _this$[ebp]
	call	DWORD PTR __imp_??1SharedObject@icu_56@@UAE@XZ
	cmp	esi, esp
	call	__RTC_CheckEsp
	mov	ecx, DWORD PTR __$EHRec$[ebp]
	mov	DWORD PTR fs:0, ecx
	pop	ecx
	pop	edi
	pop	esi
	pop	ebx
	add	esp, 244				; 000000f4H
	cmp	ebp, esp
	call	__RTC_CheckEsp
	mov	esp, ebp
	pop	ebp
	ret	0
_TEXT	ENDS
;	COMDAT text$x
text$x	SEGMENT
__unwindfunclet$??1SharedPluralRules@icu_56@@UAE@XZ$0:
	mov	esi, esp
	mov	ecx, DWORD PTR _this$[ebp]
	call	DWORD PTR __imp_??1SharedObject@icu_56@@UAE@XZ
	cmp	esi, esp
	jmp	__RTC_CheckEsp
__ehhandler$??1SharedPluralRules@icu_56@@UAE@XZ:
	mov	edx, DWORD PTR [esp+8]
	lea	eax, DWORD PTR [edx+12]
	mov	ecx, DWORD PTR [edx-248]
	xor	ecx, eax
	call	@__security_check_cookie@4
	mov	eax, OFFSET __ehfuncinfo$??1SharedPluralRules@icu_56@@UAE@XZ
	jmp	___CxxFrameHandler3
text$x	ENDS
??1SharedPluralRules@icu_56@@UAE@XZ ENDP		; icu_56::SharedPluralRules::~SharedPluralRules
PUBLIC	?clone@PluralRules@icu_56@@QBEPAV12@XZ		; icu_56::PluralRules::clone
EXTRN	__imp_??2UMemory@icu_56@@SAPAXI@Z:PROC
;	COMDAT xdata$x
xdata$x	SEGMENT
__unwindtable$?clone@PluralRules@icu_56@@QBEPAV12@XZ DD 0ffffffffH
	DD	FLAT:__unwindfunclet$?clone@PluralRules@icu_56@@QBEPAV12@XZ$0
__ehfuncinfo$?clone@PluralRules@icu_56@@QBEPAV12@XZ DD 019930522H
	DD	01H
	DD	FLAT:__unwindtable$?clone@PluralRules@icu_56@@QBEPAV12@XZ
	DD	2 DUP(00H)
	DD	2 DUP(00H)
	DD	00H
	DD	01H
; Function compile flags: /Odtp /RTCsu /ZI
xdata$x	ENDS
;	COMDAT ?clone@PluralRules@icu_56@@QBEPAV12@XZ
_TEXT	SEGMENT
tv72 = -244						; size = 4
$T84591 = -236						; size = 4
$T84592 = -224						; size = 4
_this$ = -20						; size = 4
__$EHRec$ = -12						; size = 12
?clone@PluralRules@icu_56@@QBEPAV12@XZ PROC		; icu_56::PluralRules::clone, COMDAT
; _this$ = ecx
; Line 86
	push	ebp
	mov	ebp, esp
	push	-1
	push	__ehhandler$?clone@PluralRules@icu_56@@QBEPAV12@XZ
	mov	eax, DWORD PTR fs:0
	push	eax
	sub	esp, 232				; 000000e8H
	push	ebx
	push	esi
	push	edi
	push	ecx
	lea	edi, DWORD PTR [ebp-244]
	mov	ecx, 58					; 0000003aH
	mov	eax, -858993460				; ccccccccH
	rep stosd
	pop	ecx
	mov	eax, DWORD PTR ___security_cookie
	xor	eax, ebp
	push	eax
	lea	eax, DWORD PTR __$EHRec$[ebp]
	mov	DWORD PTR fs:0, eax
	mov	DWORD PTR _this$[ebp], ecx
; Line 87
	mov	esi, esp
	push	8
	call	DWORD PTR __imp_??2UMemory@icu_56@@SAPAXI@Z
	add	esp, 4
	cmp	esi, esp
	call	__RTC_CheckEsp
	mov	DWORD PTR $T84592[ebp], eax
	mov	DWORD PTR __$EHRec$[ebp+8], 0
	cmp	DWORD PTR $T84592[ebp], 0
	je	SHORT $LN3@clone
	mov	eax, DWORD PTR _this$[ebp]
	push	eax
	mov	ecx, DWORD PTR $T84592[ebp]
	call	??0PluralRules@icu_56@@QAE@ABV01@@Z	; icu_56::PluralRules::PluralRules
	mov	DWORD PTR tv72[ebp], eax
	jmp	SHORT $LN4@clone
$LN3@clone:
	mov	DWORD PTR tv72[ebp], 0
$LN4@clone:
	mov	ecx, DWORD PTR tv72[ebp]
	mov	DWORD PTR $T84591[ebp], ecx
	mov	DWORD PTR __$EHRec$[ebp+8], -1
	mov	eax, DWORD PTR $T84591[ebp]
; Line 88
	mov	ecx, DWORD PTR __$EHRec$[ebp]
	mov	DWORD PTR fs:0, ecx
	pop	ecx
	pop	edi
	pop	esi
	pop	ebx
	add	esp, 244				; 000000f4H
	cmp	ebp, esp
	call	__RTC_CheckEsp
	mov	esp, ebp
	pop	ebp
	ret	0
_TEXT	ENDS
;	COMDAT text$x
text$x	SEGMENT
__unwindfunclet$?clone@PluralRules@icu_56@@QBEPAV12@XZ$0:
	mov	esi, esp
	mov	eax, DWORD PTR $T84592[ebp]
	push	eax
	call	DWORD PTR __imp_??3UMemory@icu_56@@SAXPAX@Z
	add	esp, 4
	cmp	esi, esp
	jmp	__RTC_CheckEsp
__ehhandler$?clone@PluralRules@icu_56@@QBEPAV12@XZ:
	mov	edx, DWORD PTR [esp+8]
	lea	eax, DWORD PTR [edx+12]
	mov	ecx, DWORD PTR [edx-248]
	xor	ecx, eax
	call	@__security_check_cookie@4
	mov	eax, OFFSET __ehfuncinfo$?clone@PluralRules@icu_56@@QBEPAV12@XZ
	jmp	___CxxFrameHandler3
text$x	ENDS
?clone@PluralRules@icu_56@@QBEPAV12@XZ ENDP		; icu_56::PluralRules::clone
PUBLIC	??0RuleChain@icu_56@@QAE@ABV01@@Z		; icu_56::RuleChain::RuleChain
;	COMDAT xdata$x
xdata$x	SEGMENT
__unwindtable$??4PluralRules@icu_56@@QAEAAV01@ABV01@@Z DD 0ffffffffH
	DD	FLAT:__unwindfunclet$??4PluralRules@icu_56@@QAEAAV01@ABV01@@Z$0
__ehfuncinfo$??4PluralRules@icu_56@@QAEAAV01@ABV01@@Z DD 019930522H
	DD	01H
	DD	FLAT:__unwindtable$??4PluralRules@icu_56@@QAEAAV01@ABV01@@Z
	DD	2 DUP(00H)
	DD	2 DUP(00H)
	DD	00H
	DD	01H
; Function compile flags: /Odtp /RTCsu /ZI
xdata$x	ENDS
;	COMDAT ??4PluralRules@icu_56@@QAEAAV01@ABV01@@Z
_TEXT	SEGMENT
tv86 = -268						; size = 4
tv72 = -268						; size = 4
$T84604 = -260						; size = 4
$T84605 = -248						; size = 4
$T84608 = -236						; size = 4
$T84609 = -224						; size = 4
_this$ = -20						; size = 4
__$EHRec$ = -12						; size = 12
_other$ = 8						; size = 4
??4PluralRules@icu_56@@QAEAAV01@ABV01@@Z PROC		; icu_56::PluralRules::operator=, COMDAT
; _this$ = ecx
; Line 91
	push	ebp
	mov	ebp, esp
	push	-1
	push	__ehhandler$??4PluralRules@icu_56@@QAEAAV01@ABV01@@Z
	mov	eax, DWORD PTR fs:0
	push	eax
	sub	esp, 256				; 00000100H
	push	ebx
	push	esi
	push	edi
	push	ecx
	lea	edi, DWORD PTR [ebp-268]
	mov	ecx, 64					; 00000040H
	mov	eax, -858993460				; ccccccccH
	rep stosd
	pop	ecx
	mov	eax, DWORD PTR ___security_cookie
	xor	eax, ebp
	push	eax
	lea	eax, DWORD PTR __$EHRec$[ebp]
	mov	DWORD PTR fs:0, eax
	mov	DWORD PTR _this$[ebp], ecx
; Line 92
	mov	eax, DWORD PTR _this$[ebp]
	cmp	eax, DWORD PTR _other$[ebp]
	je	$LN3@operator@2
; Line 93
	mov	eax, DWORD PTR _this$[ebp]
	mov	ecx, DWORD PTR [eax+4]
	mov	DWORD PTR $T84605[ebp], ecx
	mov	edx, DWORD PTR $T84605[ebp]
	mov	DWORD PTR $T84604[ebp], edx
	cmp	DWORD PTR $T84604[ebp], 0
	je	SHORT $LN6@operator@2
	mov	esi, esp
	push	1
	mov	eax, DWORD PTR $T84604[ebp]
	mov	edx, DWORD PTR [eax]
	mov	ecx, DWORD PTR $T84604[ebp]
	mov	eax, DWORD PTR [edx]
	call	eax
	cmp	esi, esp
	call	__RTC_CheckEsp
	mov	DWORD PTR tv72[ebp], eax
	jmp	SHORT $LN7@operator@2
$LN6@operator@2:
	mov	DWORD PTR tv72[ebp], 0
$LN7@operator@2:
; Line 94
	mov	eax, DWORD PTR _other$[ebp]
	cmp	DWORD PTR [eax+4], 0
	jne	SHORT $LN2@operator@2
; Line 95
	mov	eax, DWORD PTR _this$[ebp]
	mov	DWORD PTR [eax+4], 0
; Line 97
	jmp	SHORT $LN3@operator@2
$LN2@operator@2:
; Line 98
	mov	esi, esp
	push	208					; 000000d0H
	call	DWORD PTR __imp_??2UMemory@icu_56@@SAPAXI@Z
	add	esp, 4
	cmp	esi, esp
	call	__RTC_CheckEsp
	mov	DWORD PTR $T84609[ebp], eax
	mov	DWORD PTR __$EHRec$[ebp+8], 0
	cmp	DWORD PTR $T84609[ebp], 0
	je	SHORT $LN8@operator@2
	mov	eax, DWORD PTR _other$[ebp]
	mov	ecx, DWORD PTR [eax+4]
	push	ecx
	mov	ecx, DWORD PTR $T84609[ebp]
	call	??0RuleChain@icu_56@@QAE@ABV01@@Z	; icu_56::RuleChain::RuleChain
	mov	DWORD PTR tv86[ebp], eax
	jmp	SHORT $LN9@operator@2
$LN8@operator@2:
	mov	DWORD PTR tv86[ebp], 0
$LN9@operator@2:
	mov	edx, DWORD PTR tv86[ebp]
	mov	DWORD PTR $T84608[ebp], edx
	mov	DWORD PTR __$EHRec$[ebp+8], -1
	mov	eax, DWORD PTR _this$[ebp]
	mov	ecx, DWORD PTR $T84608[ebp]
	mov	DWORD PTR [eax+4], ecx
$LN3@operator@2:
; Line 102
	mov	eax, DWORD PTR _this$[ebp]
; Line 103
	mov	ecx, DWORD PTR __$EHRec$[ebp]
	mov	DWORD PTR fs:0, ecx
	pop	ecx
	pop	edi
	pop	esi
	pop	ebx
	add	esp, 268				; 0000010cH
	cmp	ebp, esp
	call	__RTC_CheckEsp
	mov	esp, ebp
	pop	ebp
	ret	4
_TEXT	ENDS
;	COMDAT text$x
text$x	SEGMENT
__unwindfunclet$??4PluralRules@icu_56@@QAEAAV01@ABV01@@Z$0:
	mov	esi, esp
	mov	eax, DWORD PTR $T84609[ebp]
	push	eax
	call	DWORD PTR __imp_??3UMemory@icu_56@@SAXPAX@Z
	add	esp, 4
	cmp	esi, esp
	jmp	__RTC_CheckEsp
__ehhandler$??4PluralRules@icu_56@@QAEAAV01@ABV01@@Z:
	mov	edx, DWORD PTR [esp+8]
	lea	eax, DWORD PTR [edx+12]
	mov	ecx, DWORD PTR [edx-272]
	xor	ecx, eax
	call	@__security_check_cookie@4
	mov	eax, OFFSET __ehfuncinfo$??4PluralRules@icu_56@@QAEAAV01@ABV01@@Z
	jmp	___CxxFrameHandler3
text$x	ENDS
??4PluralRules@icu_56@@QAEAAV01@ABV01@@Z ENDP		; icu_56::PluralRules::operator=
PUBLIC	??0PluralAvailableLocalesEnumeration@icu_56@@QAE@AAW4UErrorCode@@@Z ; icu_56::PluralAvailableLocalesEnumeration::PluralAvailableLocalesEnumeration
PUBLIC	?getAvailableLocales@PluralRules@icu_56@@SAPAVStringEnumeration@2@AAW4UErrorCode@@@Z ; icu_56::PluralRules::getAvailableLocales
;	COMDAT xdata$x
xdata$x	SEGMENT
__unwindtable$?getAvailableLocales@PluralRules@icu_56@@SAPAVStringEnumeration@2@AAW4UErrorCode@@@Z DD 0ffffffffH
	DD	FLAT:__unwindfunclet$?getAvailableLocales@PluralRules@icu_56@@SAPAVStringEnumeration@2@AAW4UErrorCode@@@Z$0
__ehfuncinfo$?getAvailableLocales@PluralRules@icu_56@@SAPAVStringEnumeration@2@AAW4UErrorCode@@@Z DD 019930522H
	DD	01H
	DD	FLAT:__unwindtable$?getAvailableLocales@PluralRules@icu_56@@SAPAVStringEnumeration@2@AAW4UErrorCode@@@Z
	DD	2 DUP(00H)
	DD	2 DUP(00H)
	DD	00H
	DD	01H
; Function compile flags: /Odtp /RTCsu /ZI
xdata$x	ENDS
;	COMDAT ?getAvailableLocales@PluralRules@icu_56@@SAPAVStringEnumeration@2@AAW4UErrorCode@@@Z
_TEXT	SEGMENT
tv95 = -268						; size = 4
tv75 = -268						; size = 4
$T84621 = -260						; size = 4
$T84622 = -248						; size = 4
$T84625 = -236						; size = 4
$T84626 = -224						; size = 4
_result$ = -20						; size = 4
__$EHRec$ = -12						; size = 12
_status$ = 8						; size = 4
?getAvailableLocales@PluralRules@icu_56@@SAPAVStringEnumeration@2@AAW4UErrorCode@@@Z PROC ; icu_56::PluralRules::getAvailableLocales, COMDAT
; Line 105
	push	ebp
	mov	ebp, esp
	push	-1
	push	__ehhandler$?getAvailableLocales@PluralRules@icu_56@@SAPAVStringEnumeration@2@AAW4UErrorCode@@@Z
	mov	eax, DWORD PTR fs:0
	push	eax
	sub	esp, 256				; 00000100H
	push	ebx
	push	esi
	push	edi
	lea	edi, DWORD PTR [ebp-268]
	mov	ecx, 64					; 00000040H
	mov	eax, -858993460				; ccccccccH
	rep stosd
	mov	eax, DWORD PTR ___security_cookie
	xor	eax, ebp
	push	eax
	lea	eax, DWORD PTR __$EHRec$[ebp]
	mov	DWORD PTR fs:0, eax
; Line 106
	mov	esi, esp
	push	120					; 00000078H
	call	DWORD PTR __imp_??2UMemory@icu_56@@SAPAXI@Z
	add	esp, 4
	cmp	esi, esp
	call	__RTC_CheckEsp
	mov	DWORD PTR $T84622[ebp], eax
	mov	DWORD PTR __$EHRec$[ebp+8], 0
	cmp	DWORD PTR $T84622[ebp], 0
	je	SHORT $LN5@getAvailab
	mov	eax, DWORD PTR _status$[ebp]
	push	eax
	mov	ecx, DWORD PTR $T84622[ebp]
	call	??0PluralAvailableLocalesEnumeration@icu_56@@QAE@AAW4UErrorCode@@@Z ; icu_56::PluralAvailableLocalesEnumeration::PluralAvailableLocalesEnumeration
	mov	DWORD PTR tv75[ebp], eax
	jmp	SHORT $LN6@getAvailab
$LN5@getAvailab:
	mov	DWORD PTR tv75[ebp], 0
$LN6@getAvailab:
	mov	ecx, DWORD PTR tv75[ebp]
	mov	DWORD PTR $T84621[ebp], ecx
	mov	DWORD PTR __$EHRec$[ebp+8], -1
	mov	edx, DWORD PTR $T84621[ebp]
	mov	DWORD PTR _result$[ebp], edx
; Line 107
	cmp	DWORD PTR _result$[ebp], 0
	jne	SHORT $LN2@getAvailab
	mov	eax, DWORD PTR _status$[ebp]
	mov	ecx, DWORD PTR [eax]
	push	ecx
	call	?U_SUCCESS@@YACW4UErrorCode@@@Z		; U_SUCCESS
	add	esp, 4
	movsx	edx, al
	test	edx, edx
	je	SHORT $LN2@getAvailab
; Line 108
	mov	eax, DWORD PTR _status$[ebp]
	mov	DWORD PTR [eax], 7
$LN2@getAvailab:
; Line 110
	mov	eax, DWORD PTR _status$[ebp]
	mov	ecx, DWORD PTR [eax]
	push	ecx
	call	?U_FAILURE@@YACW4UErrorCode@@@Z		; U_FAILURE
	add	esp, 4
	movsx	edx, al
	test	edx, edx
	je	SHORT $LN1@getAvailab
; Line 111
	mov	eax, DWORD PTR _result$[ebp]
	mov	DWORD PTR $T84626[ebp], eax
	mov	ecx, DWORD PTR $T84626[ebp]
	mov	DWORD PTR $T84625[ebp], ecx
	cmp	DWORD PTR $T84625[ebp], 0
	je	SHORT $LN7@getAvailab
	mov	esi, esp
	push	1
	mov	edx, DWORD PTR $T84625[ebp]
	mov	eax, DWORD PTR [edx]
	mov	ecx, DWORD PTR $T84625[ebp]
	mov	edx, DWORD PTR [eax]
	call	edx
	cmp	esi, esp
	call	__RTC_CheckEsp
	mov	DWORD PTR tv95[ebp], eax
	jmp	SHORT $LN8@getAvailab
$LN7@getAvailab:
	mov	DWORD PTR tv95[ebp], 0
$LN8@getAvailab:
; Line 112
	mov	DWORD PTR _result$[ebp], 0
$LN1@getAvailab:
; Line 114
	mov	eax, DWORD PTR _result$[ebp]
; Line 115
	mov	ecx, DWORD PTR __$EHRec$[ebp]
	mov	DWORD PTR fs:0, ecx
	pop	ecx
	pop	edi
	pop	esi
	pop	ebx
	add	esp, 268				; 0000010cH
	cmp	ebp, esp
	call	__RTC_CheckEsp
	mov	esp, ebp
	pop	ebp
	ret	0
_TEXT	ENDS
;	COMDAT text$x
text$x	SEGMENT
__unwindfunclet$?getAvailableLocales@PluralRules@icu_56@@SAPAVStringEnumeration@2@AAW4UErrorCode@@@Z$0:
	mov	esi, esp
	mov	eax, DWORD PTR $T84622[ebp]
	push	eax
	call	DWORD PTR __imp_??3UMemory@icu_56@@SAXPAX@Z
	add	esp, 4
	cmp	esi, esp
	jmp	__RTC_CheckEsp
__ehhandler$?getAvailableLocales@PluralRules@icu_56@@SAPAVStringEnumeration@2@AAW4UErrorCode@@@Z:
	mov	edx, DWORD PTR [esp+8]
	lea	eax, DWORD PTR [edx+12]
	mov	ecx, DWORD PTR [edx-272]
	xor	ecx, eax
	call	@__security_check_cookie@4
	mov	eax, OFFSET __ehfuncinfo$?getAvailableLocales@PluralRules@icu_56@@SAPAVStringEnumeration@2@AAW4UErrorCode@@@Z
	jmp	___CxxFrameHandler3
text$x	ENDS
?getAvailableLocales@PluralRules@icu_56@@SAPAVStringEnumeration@2@AAW4UErrorCode@@@Z ENDP ; icu_56::PluralRules::getAvailableLocales
; Function compile flags: /Odtp /RTCsu /ZI
;	COMDAT ?U_FAILURE@@YACW4UErrorCode@@@Z
_TEXT	SEGMENT
_code$ = 8						; size = 4
?U_FAILURE@@YACW4UErrorCode@@@Z PROC			; U_FAILURE, COMDAT
; File d:\mozilla\intl\icu\include\unicode\utypes.h
; Line 705
	push	ebp
	mov	ebp, esp
	sub	esp, 192				; 000000c0H
	push	ebx
	push	esi
	push	edi
	lea	edi, DWORD PTR [ebp-192]
	mov	ecx, 48					; 00000030H
	mov	eax, -858993460				; ccccccccH
	rep stosd
	cmp	DWORD PTR _code$[ebp], 0
	setg	al
	pop	edi
	pop	esi
	pop	ebx
	mov	esp, ebp
	pop	ebp
	ret	0
?U_FAILURE@@YACW4UErrorCode@@@Z ENDP			; U_FAILURE
_TEXT	ENDS
PUBLIC	??1PluralRuleParser@icu_56@@UAE@XZ		; icu_56::PluralRuleParser::~PluralRuleParser
PUBLIC	?parse@PluralRuleParser@icu_56@@QAEXABVUnicodeString@2@PAVPluralRules@2@AAW4UErrorCode@@@Z ; icu_56::PluralRuleParser::parse
PUBLIC	??0PluralRuleParser@icu_56@@QAE@XZ		; icu_56::PluralRuleParser::PluralRuleParser
PUBLIC	__$ArrayPad$
PUBLIC	?createRules@PluralRules@icu_56@@SAPAV12@ABVUnicodeString@2@AAW4UErrorCode@@@Z ; icu_56::PluralRules::createRules
EXTRN	@_RTC_CheckStackVars@8:PROC
;	COMDAT xdata$x
; File d:\mozilla\intl\icu\source\i18n\plurrule.cpp
xdata$x	SEGMENT
__unwindtable$?createRules@PluralRules@icu_56@@SAPAV12@ABVUnicodeString@2@AAW4UErrorCode@@@Z DD 0ffffffffH
	DD	FLAT:__unwindfunclet$?createRules@PluralRules@icu_56@@SAPAV12@ABVUnicodeString@2@AAW4UErrorCode@@@Z$0
	DD	00H
	DD	FLAT:__unwindfunclet$?createRules@PluralRules@icu_56@@SAPAV12@ABVUnicodeString@2@AAW4UErrorCode@@@Z$1
__ehfuncinfo$?createRules@PluralRules@icu_56@@SAPAV12@ABVUnicodeString@2@AAW4UErrorCode@@@Z DD 019930522H
	DD	02H
	DD	FLAT:__unwindtable$?createRules@PluralRules@icu_56@@SAPAV12@ABVUnicodeString@2@AAW4UErrorCode@@@Z
	DD	2 DUP(00H)
	DD	2 DUP(00H)
	DD	00H
	DD	01H
; Function compile flags: /Odtp /RTCsu /ZI
xdata$x	ENDS
;	COMDAT ?createRules@PluralRules@icu_56@@SAPAV12@ABVUnicodeString@2@AAW4UErrorCode@@@Z
_TEXT	SEGMENT
tv134 = -392						; size = 4
tv79 = -392						; size = 4
$T84641 = -384						; size = 4
$T84642 = -372						; size = 4
$T84645 = -360						; size = 4
$T84646 = -348						; size = 4
$T84649 = -336						; size = 4
_newRules$ = -132					; size = 4
_parser$ = -120						; size = 100
__$ArrayPad$ = -16					; size = 4
__$EHRec$ = -12						; size = 12
_description$ = 8					; size = 4
_status$ = 12						; size = 4
?createRules@PluralRules@icu_56@@SAPAV12@ABVUnicodeString@2@AAW4UErrorCode@@@Z PROC ; icu_56::PluralRules::createRules, COMDAT
; Line 119
	push	ebp
	mov	ebp, esp
	push	-1
	push	__ehhandler$?createRules@PluralRules@icu_56@@SAPAV12@ABVUnicodeString@2@AAW4UErrorCode@@@Z
	mov	eax, DWORD PTR fs:0
	push	eax
	sub	esp, 380				; 0000017cH
	push	ebx
	push	esi
	push	edi
	lea	edi, DWORD PTR [ebp-392]
	mov	ecx, 95					; 0000005fH
	mov	eax, -858993460				; ccccccccH
	rep stosd
	mov	eax, DWORD PTR ___security_cookie
	xor	eax, ebp
	mov	DWORD PTR __$ArrayPad$[ebp], eax
	push	eax
	lea	eax, DWORD PTR __$EHRec$[ebp]
	mov	DWORD PTR fs:0, eax
; Line 120
	mov	eax, DWORD PTR _status$[ebp]
	mov	ecx, DWORD PTR [eax]
	push	ecx
	call	?U_FAILURE@@YACW4UErrorCode@@@Z		; U_FAILURE
	add	esp, 4
	movsx	edx, al
	test	edx, edx
	je	SHORT $LN3@createRule
; Line 121
	xor	eax, eax
	jmp	$LN4@createRule
$LN3@createRule:
; Line 124
	lea	ecx, DWORD PTR _parser$[ebp]
	call	??0PluralRuleParser@icu_56@@QAE@XZ	; icu_56::PluralRuleParser::PluralRuleParser
	mov	DWORD PTR __$EHRec$[ebp+8], 0
; Line 125
	mov	esi, esp
	push	8
	call	DWORD PTR __imp_??2UMemory@icu_56@@SAPAXI@Z
	add	esp, 4
	cmp	esi, esp
	call	__RTC_CheckEsp
	mov	DWORD PTR $T84642[ebp], eax
	mov	BYTE PTR __$EHRec$[ebp+8], 1
	cmp	DWORD PTR $T84642[ebp], 0
	je	SHORT $LN6@createRule
	mov	eax, DWORD PTR _status$[ebp]
	push	eax
	mov	ecx, DWORD PTR $T84642[ebp]
	call	??0PluralRules@icu_56@@QAE@AAW4UErrorCode@@@Z ; icu_56::PluralRules::PluralRules
	mov	DWORD PTR tv79[ebp], eax
	jmp	SHORT $LN7@createRule
$LN6@createRule:
	mov	DWORD PTR tv79[ebp], 0
$LN7@createRule:
	mov	ecx, DWORD PTR tv79[ebp]
	mov	DWORD PTR $T84641[ebp], ecx
	mov	BYTE PTR __$EHRec$[ebp+8], 0
	mov	edx, DWORD PTR $T84641[ebp]
	mov	DWORD PTR _newRules$[ebp], edx
; Line 126
	mov	eax, DWORD PTR _status$[ebp]
	mov	ecx, DWORD PTR [eax]
	push	ecx
	call	?U_SUCCESS@@YACW4UErrorCode@@@Z		; U_SUCCESS
	add	esp, 4
	movsx	edx, al
	test	edx, edx
	je	SHORT $LN2@createRule
	cmp	DWORD PTR _newRules$[ebp], 0
	jne	SHORT $LN2@createRule
; Line 127
	mov	eax, DWORD PTR _status$[ebp]
	mov	DWORD PTR [eax], 7
$LN2@createRule:
; Line 129
	mov	eax, DWORD PTR _status$[ebp]
	push	eax
	mov	ecx, DWORD PTR _newRules$[ebp]
	push	ecx
	mov	edx, DWORD PTR _description$[ebp]
	push	edx
	lea	ecx, DWORD PTR _parser$[ebp]
	call	?parse@PluralRuleParser@icu_56@@QAEXABVUnicodeString@2@PAVPluralRules@2@AAW4UErrorCode@@@Z ; icu_56::PluralRuleParser::parse
; Line 130
	mov	eax, DWORD PTR _status$[ebp]
	mov	ecx, DWORD PTR [eax]
	push	ecx
	call	?U_FAILURE@@YACW4UErrorCode@@@Z		; U_FAILURE
	add	esp, 4
	movsx	edx, al
	test	edx, edx
	je	SHORT $LN1@createRule
; Line 131
	mov	eax, DWORD PTR _newRules$[ebp]
	mov	DWORD PTR $T84646[ebp], eax
	mov	ecx, DWORD PTR $T84646[ebp]
	mov	DWORD PTR $T84645[ebp], ecx
	cmp	DWORD PTR $T84645[ebp], 0
	je	SHORT $LN8@createRule
	mov	esi, esp
	push	1
	mov	edx, DWORD PTR $T84645[ebp]
	mov	eax, DWORD PTR [edx]
	mov	ecx, DWORD PTR $T84645[ebp]
	mov	edx, DWORD PTR [eax]
	call	edx
	cmp	esi, esp
	call	__RTC_CheckEsp
	mov	DWORD PTR tv134[ebp], eax
	jmp	SHORT $LN9@createRule
$LN8@createRule:
	mov	DWORD PTR tv134[ebp], 0
$LN9@createRule:
; Line 132
	mov	DWORD PTR _newRules$[ebp], 0
$LN1@createRule:
; Line 134
	mov	eax, DWORD PTR _newRules$[ebp]
	mov	DWORD PTR $T84649[ebp], eax
	mov	DWORD PTR __$EHRec$[ebp+8], -1
	lea	ecx, DWORD PTR _parser$[ebp]
	call	??1PluralRuleParser@icu_56@@UAE@XZ	; icu_56::PluralRuleParser::~PluralRuleParser
	mov	eax, DWORD PTR $T84649[ebp]
$LN4@createRule:
; Line 135
	push	edx
	mov	ecx, ebp
	push	eax
	lea	edx, DWORD PTR $LN15@createRule
	call	@_RTC_CheckStackVars@8
	pop	eax
	pop	edx
	mov	ecx, DWORD PTR __$EHRec$[ebp]
	mov	DWORD PTR fs:0, ecx
	pop	ecx
	pop	edi
	pop	esi
	pop	ebx
	mov	ecx, DWORD PTR __$ArrayPad$[ebp]
	xor	ecx, ebp
	call	@__security_check_cookie@4
	add	esp, 392				; 00000188H
	cmp	ebp, esp
	call	__RTC_CheckEsp
	mov	esp, ebp
	pop	ebp
	ret	0
	npad	1
$LN15@createRule:
	DD	1
	DD	$LN14@createRule
$LN14@createRule:
	DD	-120					; ffffff88H
	DD	100					; 00000064H
	DD	$LN12@createRule
$LN12@createRule:
	DB	112					; 00000070H
	DB	97					; 00000061H
	DB	114					; 00000072H
	DB	115					; 00000073H
	DB	101					; 00000065H
	DB	114					; 00000072H
	DB	0
_TEXT	ENDS
;	COMDAT text$x
text$x	SEGMENT
__unwindfunclet$?createRules@PluralRules@icu_56@@SAPAV12@ABVUnicodeString@2@AAW4UErrorCode@@@Z$0:
	lea	ecx, DWORD PTR _parser$[ebp]
	jmp	??1PluralRuleParser@icu_56@@UAE@XZ	; icu_56::PluralRuleParser::~PluralRuleParser
__unwindfunclet$?createRules@PluralRules@icu_56@@SAPAV12@ABVUnicodeString@2@AAW4UErrorCode@@@Z$1:
	mov	esi, esp
	mov	eax, DWORD PTR $T84642[ebp]
	push	eax
	call	DWORD PTR __imp_??3UMemory@icu_56@@SAXPAX@Z
	add	esp, 4
	cmp	esi, esp
	jmp	__RTC_CheckEsp
__ehhandler$?createRules@PluralRules@icu_56@@SAPAV12@ABVUnicodeString@2@AAW4UErrorCode@@@Z:
	mov	edx, DWORD PTR [esp+8]
	lea	eax, DWORD PTR [edx+12]
	mov	ecx, DWORD PTR [edx-396]
	xor	ecx, eax
	call	@__security_check_cookie@4
	mov	ecx, DWORD PTR [edx-4]
	xor	ecx, eax
	call	@__security_check_cookie@4
	mov	eax, OFFSET __ehfuncinfo$?createRules@PluralRules@icu_56@@SAPAV12@ABVUnicodeString@2@AAW4UErrorCode@@@Z
	jmp	___CxxFrameHandler3
text$x	ENDS
?createRules@PluralRules@icu_56@@SAPAV12@ABVUnicodeString@2@AAW4UErrorCode@@@Z ENDP ; icu_56::PluralRules::createRules
PUBLIC	__$ArrayPad$
PUBLIC	?createDefaultRules@PluralRules@icu_56@@SAPAV12@AAW4UErrorCode@@@Z ; icu_56::PluralRules::createDefaultRules
EXTRN	__imp_??0UnicodeString@icu_56@@QAE@CPB_WH@Z:PROC
;	COMDAT xdata$x
xdata$x	SEGMENT
__unwindtable$?createDefaultRules@PluralRules@icu_56@@SAPAV12@AAW4UErrorCode@@@Z DD 0ffffffffH
	DD	FLAT:__unwindfunclet$?createDefaultRules@PluralRules@icu_56@@SAPAV12@AAW4UErrorCode@@@Z$0
__ehfuncinfo$?createDefaultRules@PluralRules@icu_56@@SAPAV12@AAW4UErrorCode@@@Z DD 019930522H
	DD	01H
	DD	FLAT:__unwindtable$?createDefaultRules@PluralRules@icu_56@@SAPAV12@AAW4UErrorCode@@@Z
	DD	2 DUP(00H)
	DD	2 DUP(00H)
	DD	00H
	DD	01H
; Function compile flags: /Odtp /RTCsu /ZI
xdata$x	ENDS
;	COMDAT ?createDefaultRules@PluralRules@icu_56@@SAPAV12@AAW4UErrorCode@@@Z
_TEXT	SEGMENT
tv75 = -300						; size = 4
tv76 = -296						; size = 4
$T84665 = -288						; size = 4
$T75518 = -276						; size = 64
__$ArrayPad$ = -16					; size = 4
__$EHRec$ = -12						; size = 12
_status$ = 8						; size = 4
?createDefaultRules@PluralRules@icu_56@@SAPAV12@AAW4UErrorCode@@@Z PROC ; icu_56::PluralRules::createDefaultRules, COMDAT
; Line 139
	push	ebp
	mov	ebp, esp
	push	-1
	push	__ehhandler$?createDefaultRules@PluralRules@icu_56@@SAPAV12@AAW4UErrorCode@@@Z
	mov	eax, DWORD PTR fs:0
	push	eax
	sub	esp, 288				; 00000120H
	push	ebx
	push	esi
	push	edi
	lea	edi, DWORD PTR [ebp-300]
	mov	ecx, 72					; 00000048H
	mov	eax, -858993460				; ccccccccH
	rep stosd
	mov	eax, DWORD PTR ___security_cookie
	xor	eax, ebp
	mov	DWORD PTR __$ArrayPad$[ebp], eax
	push	eax
	lea	eax, DWORD PTR __$EHRec$[ebp]
	mov	DWORD PTR fs:0, eax
; Line 140
	mov	eax, DWORD PTR _status$[ebp]
	push	eax
	mov	esi, esp
	push	-1
	push	OFFSET _PLURAL_DEFAULT_RULE
	push	1
	lea	ecx, DWORD PTR $T75518[ebp]
	call	DWORD PTR __imp_??0UnicodeString@icu_56@@QAE@CPB_WH@Z
	cmp	esi, esp
	call	__RTC_CheckEsp
	mov	DWORD PTR tv76[ebp], eax
	mov	ecx, DWORD PTR tv76[ebp]
	mov	DWORD PTR tv75[ebp], ecx
	mov	DWORD PTR __$EHRec$[ebp+8], 0
	mov	edx, DWORD PTR tv75[ebp]
	push	edx
	call	?createRules@PluralRules@icu_56@@SAPAV12@ABVUnicodeString@2@AAW4UErrorCode@@@Z ; icu_56::PluralRules::createRules
	add	esp, 8
	mov	DWORD PTR $T84665[ebp], eax
	mov	DWORD PTR __$EHRec$[ebp+8], -1
	mov	esi, esp
	lea	ecx, DWORD PTR $T75518[ebp]
	call	DWORD PTR __imp_??1UnicodeString@icu_56@@UAE@XZ
	cmp	esi, esp
	call	__RTC_CheckEsp
	mov	eax, DWORD PTR $T84665[ebp]
; Line 141
	mov	ecx, DWORD PTR __$EHRec$[ebp]
	mov	DWORD PTR fs:0, ecx
	pop	ecx
	pop	edi
	pop	esi
	pop	ebx
	mov	ecx, DWORD PTR __$ArrayPad$[ebp]
	xor	ecx, ebp
	call	@__security_check_cookie@4
	add	esp, 300				; 0000012cH
	cmp	ebp, esp
	call	__RTC_CheckEsp
	mov	esp, ebp
	pop	ebp
	ret	0
_TEXT	ENDS
;	COMDAT text$x
text$x	SEGMENT
__unwindfunclet$?createDefaultRules@PluralRules@icu_56@@SAPAV12@AAW4UErrorCode@@@Z$0:
	mov	esi, esp
	lea	ecx, DWORD PTR $T75518[ebp]
	call	DWORD PTR __imp_??1UnicodeString@icu_56@@UAE@XZ
	cmp	esi, esp
	jmp	__RTC_CheckEsp
__ehhandler$?createDefaultRules@PluralRules@icu_56@@SAPAV12@AAW4UErrorCode@@@Z:
	mov	edx, DWORD PTR [esp+8]
	lea	eax, DWORD PTR [edx+12]
	mov	ecx, DWORD PTR [edx-304]
	xor	ecx, eax
	call	@__security_check_cookie@4
	mov	ecx, DWORD PTR [edx-4]
	xor	ecx, eax
	call	@__security_check_cookie@4
	mov	eax, OFFSET __ehfuncinfo$?createDefaultRules@PluralRules@icu_56@@SAPAV12@AAW4UErrorCode@@@Z
	jmp	___CxxFrameHandler3
text$x	ENDS
?createDefaultRules@PluralRules@icu_56@@SAPAV12@AAW4UErrorCode@@@Z ENDP ; icu_56::PluralRules::createDefaultRules
PUBLIC	?internalForLocale@PluralRules@icu_56@@SAPAV12@ABVLocale@2@W4UPluralType@@AAW4UErrorCode@@@Z ; icu_56::PluralRules::internalForLocale
PUBLIC	__$ArrayPad$
PUBLIC	?createObject@?$LocaleCacheKey@VSharedPluralRules@icu_56@@@icu_56@@UBEPBVSharedPluralRules@2@PBXAAW4UErrorCode@@@Z ; icu_56::LocaleCacheKey<icu_56::SharedPluralRules>::createObject
EXTRN	__imp_?addRef@SharedObject@icu_56@@QBEXXZ:PROC
EXTRN	__imp_??1Locale@icu_56@@UAE@XZ:PROC
EXTRN	__imp_??0Locale@icu_56@@QAE@PBD000@Z:PROC
EXTRN	__imp_?getName@Locale@icu_56@@QBEPBDXZ:PROC
;	COMDAT xdata$x
xdata$x	SEGMENT
__unwindtable$?createObject@?$LocaleCacheKey@VSharedPluralRules@icu_56@@@icu_56@@UBEPBVSharedPluralRules@2@PBXAAW4UErrorCode@@@Z DD 0ffffffffH
	DD	FLAT:__unwindfunclet$?createObject@?$LocaleCacheKey@VSharedPluralRules@icu_56@@@icu_56@@UBEPBVSharedPluralRules@2@PBXAAW4UErrorCode@@@Z$0
	DD	0ffffffffH
	DD	FLAT:__unwindfunclet$?createObject@?$LocaleCacheKey@VSharedPluralRules@icu_56@@@icu_56@@UBEPBVSharedPluralRules@2@PBXAAW4UErrorCode@@@Z$1
__ehfuncinfo$?createObject@?$LocaleCacheKey@VSharedPluralRules@icu_56@@@icu_56@@UBEPBVSharedPluralRules@2@PBXAAW4UErrorCode@@@Z DD 019930522H
	DD	02H
	DD	FLAT:__unwindtable$?createObject@?$LocaleCacheKey@VSharedPluralRules@icu_56@@@icu_56@@UBEPBVSharedPluralRules@2@PBXAAW4UErrorCode@@@Z
	DD	2 DUP(00H)
	DD	2 DUP(00H)
	DD	00H
	DD	01H
; Function compile flags: /Odtp /RTCsu /ZI
xdata$x	ENDS
;	COMDAT ?createObject@?$LocaleCacheKey@VSharedPluralRules@icu_56@@@icu_56@@UBEPBVSharedPluralRules@2@PBXAAW4UErrorCode@@@Z
_TEXT	SEGMENT
tv133 = -520						; size = 4
tv90 = -520						; size = 4
$T84676 = -512						; size = 4
$T84677 = -500						; size = 4
$T84680 = -488						; size = 4
$T84681 = -476						; size = 4
$T75578 = -464						; size = 204
_result$ = -60						; size = 4
_pr$ = -48						; size = 4
_localeId$ = -36					; size = 4
_this$ = -24						; size = 4
__$ArrayPad$ = -16					; size = 4
__$EHRec$ = -12						; size = 12
___formal$ = 8						; size = 4
_status$ = 12						; size = 4
?createObject@?$LocaleCacheKey@VSharedPluralRules@icu_56@@@icu_56@@UBEPBVSharedPluralRules@2@PBXAAW4UErrorCode@@@Z PROC ; icu_56::LocaleCacheKey<icu_56::SharedPluralRules>::createObject, COMDAT
; _this$ = ecx
; Line 148
	push	ebp
	mov	ebp, esp
	push	-1
	push	__ehhandler$?createObject@?$LocaleCacheKey@VSharedPluralRules@icu_56@@@icu_56@@UBEPBVSharedPluralRules@2@PBXAAW4UErrorCode@@@Z
	mov	eax, DWORD PTR fs:0
	push	eax
	sub	esp, 508				; 000001fcH
	push	ebx
	push	esi
	push	edi
	push	ecx
	lea	edi, DWORD PTR [ebp-520]
	mov	ecx, 127				; 0000007fH
	mov	eax, -858993460				; ccccccccH
	rep stosd
	pop	ecx
	mov	eax, DWORD PTR ___security_cookie
	xor	eax, ebp
	mov	DWORD PTR __$ArrayPad$[ebp], eax
	push	eax
	lea	eax, DWORD PTR __$EHRec$[ebp]
	mov	DWORD PTR fs:0, eax
	mov	DWORD PTR _this$[ebp], ecx
; Line 149
	mov	ecx, DWORD PTR _this$[ebp]
	add	ecx, 12					; 0000000cH
	mov	esi, esp
	call	DWORD PTR __imp_?getName@Locale@icu_56@@QBEPBDXZ
	cmp	esi, esp
	call	__RTC_CheckEsp
	mov	DWORD PTR _localeId$[ebp], eax
; Line 151
	mov	esi, esp
	push	0
	push	0
	push	0
	mov	eax, DWORD PTR _localeId$[ebp]
	push	eax
	lea	ecx, DWORD PTR $T75578[ebp]
	call	DWORD PTR __imp_??0Locale@icu_56@@QAE@PBD000@Z
	cmp	esi, esp
	call	__RTC_CheckEsp
	mov	DWORD PTR __$EHRec$[ebp+8], 0
	mov	ecx, DWORD PTR _status$[ebp]
	push	ecx
	push	0
	lea	edx, DWORD PTR $T75578[ebp]
	push	edx
	call	?internalForLocale@PluralRules@icu_56@@SAPAV12@ABVLocale@2@W4UPluralType@@AAW4UErrorCode@@@Z ; icu_56::PluralRules::internalForLocale
	add	esp, 12					; 0000000cH
	mov	DWORD PTR _pr$[ebp], eax
	mov	DWORD PTR __$EHRec$[ebp+8], -1
	mov	esi, esp
	lea	ecx, DWORD PTR $T75578[ebp]
	call	DWORD PTR __imp_??1Locale@icu_56@@UAE@XZ
	cmp	esi, esp
	call	__RTC_CheckEsp
; Line 152
	mov	eax, DWORD PTR _status$[ebp]
	mov	ecx, DWORD PTR [eax]
	push	ecx
	call	?U_FAILURE@@YACW4UErrorCode@@@Z		; U_FAILURE
	add	esp, 4
	movsx	edx, al
	test	edx, edx
	je	SHORT $LN2@createObje
; Line 153
	xor	eax, eax
	jmp	$LN3@createObje
$LN2@createObje:
; Line 155
	mov	esi, esp
	push	24					; 00000018H
	call	DWORD PTR __imp_??2UMemory@icu_56@@SAPAXI@Z
	add	esp, 4
	cmp	esi, esp
	call	__RTC_CheckEsp
	mov	DWORD PTR $T84677[ebp], eax
	mov	DWORD PTR __$EHRec$[ebp+8], 1
	cmp	DWORD PTR $T84677[ebp], 0
	je	SHORT $LN5@createObje
	mov	eax, DWORD PTR _pr$[ebp]
	push	eax
	mov	ecx, DWORD PTR $T84677[ebp]
	call	??0SharedPluralRules@icu_56@@QAE@PAVPluralRules@1@@Z ; icu_56::SharedPluralRules::SharedPluralRules
	mov	DWORD PTR tv90[ebp], eax
	jmp	SHORT $LN6@createObje
$LN5@createObje:
	mov	DWORD PTR tv90[ebp], 0
$LN6@createObje:
	mov	ecx, DWORD PTR tv90[ebp]
	mov	DWORD PTR $T84676[ebp], ecx
	mov	DWORD PTR __$EHRec$[ebp+8], -1
	mov	edx, DWORD PTR $T84676[ebp]
	mov	DWORD PTR _result$[ebp], edx
; Line 156
	cmp	DWORD PTR _result$[ebp], 0
	jne	SHORT $LN1@createObje
; Line 157
	mov	eax, DWORD PTR _status$[ebp]
	mov	DWORD PTR [eax], 7
; Line 158
	mov	eax, DWORD PTR _pr$[ebp]
	mov	DWORD PTR $T84681[ebp], eax
	mov	ecx, DWORD PTR $T84681[ebp]
	mov	DWORD PTR $T84680[ebp], ecx
	cmp	DWORD PTR $T84680[ebp], 0
	je	SHORT $LN7@createObje
	mov	esi, esp
	push	1
	mov	edx, DWORD PTR $T84680[ebp]
	mov	eax, DWORD PTR [edx]
	mov	ecx, DWORD PTR $T84680[ebp]
	mov	edx, DWORD PTR [eax]
	call	edx
	cmp	esi, esp
	call	__RTC_CheckEsp
	mov	DWORD PTR tv133[ebp], eax
	jmp	SHORT $LN8@createObje
$LN7@createObje:
	mov	DWORD PTR tv133[ebp], 0
$LN8@createObje:
; Line 159
	xor	eax, eax
	jmp	SHORT $LN3@createObje
$LN1@createObje:
; Line 161
	mov	esi, esp
	mov	ecx, DWORD PTR _result$[ebp]
	call	DWORD PTR __imp_?addRef@SharedObject@icu_56@@QBEXXZ
	cmp	esi, esp
	call	__RTC_CheckEsp
; Line 162
	mov	eax, DWORD PTR _result$[ebp]
$LN3@createObje:
; Line 163
	mov	ecx, DWORD PTR __$EHRec$[ebp]
	mov	DWORD PTR fs:0, ecx
	pop	ecx
	pop	edi
	pop	esi
	pop	ebx
	mov	ecx, DWORD PTR __$ArrayPad$[ebp]
	xor	ecx, ebp
	call	@__security_check_cookie@4
	add	esp, 520				; 00000208H
	cmp	ebp, esp
	call	__RTC_CheckEsp
	mov	esp, ebp
	pop	ebp
	ret	8
_TEXT	ENDS
;	COMDAT text$x
text$x	SEGMENT
__unwindfunclet$?createObject@?$LocaleCacheKey@VSharedPluralRules@icu_56@@@icu_56@@UBEPBVSharedPluralRules@2@PBXAAW4UErrorCode@@@Z$0:
	mov	esi, esp
	lea	ecx, DWORD PTR $T75578[ebp]
	call	DWORD PTR __imp_??1Locale@icu_56@@UAE@XZ
	cmp	esi, esp
	jmp	__RTC_CheckEsp
__unwindfunclet$?createObject@?$LocaleCacheKey@VSharedPluralRules@icu_56@@@icu_56@@UBEPBVSharedPluralRules@2@PBXAAW4UErrorCode@@@Z$1:
	mov	esi, esp
	mov	eax, DWORD PTR $T84677[ebp]
	push	eax
	call	DWORD PTR __imp_??3UMemory@icu_56@@SAXPAX@Z
	add	esp, 4
	cmp	esi, esp
	jmp	__RTC_CheckEsp
__ehhandler$?createObject@?$LocaleCacheKey@VSharedPluralRules@icu_56@@@icu_56@@UBEPBVSharedPluralRules@2@PBXAAW4UErrorCode@@@Z:
	mov	edx, DWORD PTR [esp+8]
	lea	eax, DWORD PTR [edx+12]
	mov	ecx, DWORD PTR [edx-524]
	xor	ecx, eax
	call	@__security_check_cookie@4
	mov	ecx, DWORD PTR [edx-4]
	xor	ecx, eax
	call	@__security_check_cookie@4
	mov	eax, OFFSET __ehfuncinfo$?createObject@?$LocaleCacheKey@VSharedPluralRules@icu_56@@@icu_56@@UBEPBVSharedPluralRules@2@PBXAAW4UErrorCode@@@Z
	jmp	___CxxFrameHandler3
text$x	ENDS
?createObject@?$LocaleCacheKey@VSharedPluralRules@icu_56@@@icu_56@@UBEPBVSharedPluralRules@2@PBXAAW4UErrorCode@@@Z ENDP ; icu_56::LocaleCacheKey<icu_56::SharedPluralRules>::createObject
PUBLIC	??$getByLocale@VSharedPluralRules@icu_56@@@UnifiedCache@icu_56@@SAXABVLocale@1@AAPBVSharedPluralRules@1@AAW4UErrorCode@@@Z ; icu_56::UnifiedCache::getByLocale<icu_56::SharedPluralRules>
PUBLIC	?createSharedInstance@PluralRules@icu_56@@SAPBVSharedPluralRules@2@ABVLocale@2@W4UPluralType@@AAW4UErrorCode@@@Z ; icu_56::PluralRules::createSharedInstance
; Function compile flags: /Odtp /RTCsu /ZI
;	COMDAT ?createSharedInstance@PluralRules@icu_56@@SAPBVSharedPluralRules@2@ABVLocale@2@W4UPluralType@@AAW4UErrorCode@@@Z
_TEXT	SEGMENT
_result$ = -8						; size = 4
_locale$ = 8						; size = 4
_type$ = 12						; size = 4
_status$ = 16						; size = 4
?createSharedInstance@PluralRules@icu_56@@SAPBVSharedPluralRules@2@ABVLocale@2@W4UPluralType@@AAW4UErrorCode@@@Z PROC ; icu_56::PluralRules::createSharedInstance, COMDAT
; Line 170
	push	ebp
	mov	ebp, esp
	sub	esp, 204				; 000000ccH
	push	ebx
	push	esi
	push	edi
	lea	edi, DWORD PTR [ebp-204]
	mov	ecx, 51					; 00000033H
	mov	eax, -858993460				; ccccccccH
	rep stosd
; Line 171
	mov	eax, DWORD PTR _status$[ebp]
	mov	ecx, DWORD PTR [eax]
	push	ecx
	call	?U_FAILURE@@YACW4UErrorCode@@@Z		; U_FAILURE
	add	esp, 4
	movsx	edx, al
	test	edx, edx
	je	SHORT $LN2@createShar
; Line 172
	xor	eax, eax
	jmp	SHORT $LN3@createShar
$LN2@createShar:
; Line 174
	cmp	DWORD PTR _type$[ebp], 0
	je	SHORT $LN1@createShar
; Line 175
	mov	eax, DWORD PTR _status$[ebp]
	mov	DWORD PTR [eax], 16			; 00000010H
; Line 176
	xor	eax, eax
	jmp	SHORT $LN3@createShar
$LN1@createShar:
; Line 178
	mov	DWORD PTR _result$[ebp], 0
; Line 179
	mov	eax, DWORD PTR _status$[ebp]
	push	eax
	lea	ecx, DWORD PTR _result$[ebp]
	push	ecx
	mov	edx, DWORD PTR _locale$[ebp]
	push	edx
	call	??$getByLocale@VSharedPluralRules@icu_56@@@UnifiedCache@icu_56@@SAXABVLocale@1@AAPBVSharedPluralRules@1@AAW4UErrorCode@@@Z ; icu_56::UnifiedCache::getByLocale<icu_56::SharedPluralRules>
	add	esp, 12					; 0000000cH
; Line 180
	mov	eax, DWORD PTR _result$[ebp]
$LN3@createShar:
; Line 181
	push	edx
	mov	ecx, ebp
	push	eax
	lea	edx, DWORD PTR $LN7@createShar
	call	@_RTC_CheckStackVars@8
	pop	eax
	pop	edx
	pop	edi
	pop	esi
	pop	ebx
	add	esp, 204				; 000000ccH
	cmp	ebp, esp
	call	__RTC_CheckEsp
	mov	esp, ebp
	pop	ebp
	ret	0
	npad	3
$LN7@createShar:
	DD	1
	DD	$LN6@createShar
$LN6@createShar:
	DD	-8					; fffffff8H
	DD	4
	DD	$LN5@createShar
$LN5@createShar:
	DB	114					; 00000072H
	DB	101					; 00000065H
	DB	115					; 00000073H
	DB	117					; 00000075H
	DB	108					; 0000006cH
	DB	116					; 00000074H
	DB	0
?createSharedInstance@PluralRules@icu_56@@SAPBVSharedPluralRules@2@ABVLocale@2@W4UPluralType@@AAW4UErrorCode@@@Z ENDP ; icu_56::PluralRules::createSharedInstance
_TEXT	ENDS
PUBLIC	?forLocale@PluralRules@icu_56@@SAPAV12@ABVLocale@2@W4UPluralType@@AAW4UErrorCode@@@Z ; icu_56::PluralRules::forLocale
PUBLIC	?forLocale@PluralRules@icu_56@@SAPAV12@ABVLocale@2@AAW4UErrorCode@@@Z ; icu_56::PluralRules::forLocale
; Function compile flags: /Odtp /RTCsu /ZI
;	COMDAT ?forLocale@PluralRules@icu_56@@SAPAV12@ABVLocale@2@AAW4UErrorCode@@@Z
_TEXT	SEGMENT
_locale$ = 8						; size = 4
_status$ = 12						; size = 4
?forLocale@PluralRules@icu_56@@SAPAV12@ABVLocale@2@AAW4UErrorCode@@@Z PROC ; icu_56::PluralRules::forLocale, COMDAT
; Line 184
	push	ebp
	mov	ebp, esp
	sub	esp, 192				; 000000c0H
	push	ebx
	push	esi
	push	edi
	lea	edi, DWORD PTR [ebp-192]
	mov	ecx, 48					; 00000030H
	mov	eax, -858993460				; ccccccccH
	rep stosd
; Line 185
	mov	eax, DWORD PTR _status$[ebp]
	push	eax
	push	0
	mov	ecx, DWORD PTR _locale$[ebp]
	push	ecx
	call	?forLocale@PluralRules@icu_56@@SAPAV12@ABVLocale@2@W4UPluralType@@AAW4UErrorCode@@@Z ; icu_56::PluralRules::forLocale
	add	esp, 12					; 0000000cH
; Line 186
	pop	edi
	pop	esi
	pop	ebx
	add	esp, 192				; 000000c0H
	cmp	ebp, esp
	call	__RTC_CheckEsp
	mov	esp, ebp
	pop	ebp
	ret	0
?forLocale@PluralRules@icu_56@@SAPAV12@ABVLocale@2@AAW4UErrorCode@@@Z ENDP ; icu_56::PluralRules::forLocale
_TEXT	ENDS
EXTRN	__imp_?removeRef@SharedObject@icu_56@@QBEXXZ:PROC
; Function compile flags: /Odtp /RTCsu /ZI
;	COMDAT ?forLocale@PluralRules@icu_56@@SAPAV12@ABVLocale@2@W4UPluralType@@AAW4UErrorCode@@@Z
_TEXT	SEGMENT
_result$ = -20						; size = 4
_shared$ = -8						; size = 4
_locale$ = 8						; size = 4
_type$ = 12						; size = 4
_status$ = 16						; size = 4
?forLocale@PluralRules@icu_56@@SAPAV12@ABVLocale@2@W4UPluralType@@AAW4UErrorCode@@@Z PROC ; icu_56::PluralRules::forLocale, COMDAT
; Line 189
	push	ebp
	mov	ebp, esp
	sub	esp, 216				; 000000d8H
	push	ebx
	push	esi
	push	edi
	lea	edi, DWORD PTR [ebp-216]
	mov	ecx, 54					; 00000036H
	mov	eax, -858993460				; ccccccccH
	rep stosd
; Line 190
	cmp	DWORD PTR _type$[ebp], 0
	je	SHORT $LN3@forLocale
; Line 191
	mov	eax, DWORD PTR _status$[ebp]
	push	eax
	mov	ecx, DWORD PTR _type$[ebp]
	push	ecx
	mov	edx, DWORD PTR _locale$[ebp]
	push	edx
	call	?internalForLocale@PluralRules@icu_56@@SAPAV12@ABVLocale@2@W4UPluralType@@AAW4UErrorCode@@@Z ; icu_56::PluralRules::internalForLocale
	add	esp, 12					; 0000000cH
	jmp	SHORT $LN4@forLocale
$LN3@forLocale:
; Line 194
	mov	eax, DWORD PTR _status$[ebp]
	push	eax
	mov	ecx, DWORD PTR _type$[ebp]
	push	ecx
	mov	edx, DWORD PTR _locale$[ebp]
	push	edx
	call	?createSharedInstance@PluralRules@icu_56@@SAPBVSharedPluralRules@2@ABVLocale@2@W4UPluralType@@AAW4UErrorCode@@@Z ; icu_56::PluralRules::createSharedInstance
	add	esp, 12					; 0000000cH
	mov	DWORD PTR _shared$[ebp], eax
; Line 195
	mov	eax, DWORD PTR _status$[ebp]
	mov	ecx, DWORD PTR [eax]
	push	ecx
	call	?U_FAILURE@@YACW4UErrorCode@@@Z		; U_FAILURE
	add	esp, 4
	movsx	edx, al
	test	edx, edx
	je	SHORT $LN2@forLocale
; Line 196
	xor	eax, eax
	jmp	SHORT $LN4@forLocale
$LN2@forLocale:
; Line 198
	mov	ecx, DWORD PTR _shared$[ebp]
	call	??CSharedPluralRules@icu_56@@QBEPBVPluralRules@1@XZ ; icu_56::SharedPluralRules::operator->
	mov	ecx, eax
	call	?clone@PluralRules@icu_56@@QBEPAV12@XZ	; icu_56::PluralRules::clone
	mov	DWORD PTR _result$[ebp], eax
; Line 199
	mov	esi, esp
	mov	ecx, DWORD PTR _shared$[ebp]
	call	DWORD PTR __imp_?removeRef@SharedObject@icu_56@@QBEXXZ
	cmp	esi, esp
	call	__RTC_CheckEsp
; Line 200
	cmp	DWORD PTR _result$[ebp], 0
	jne	SHORT $LN1@forLocale
; Line 201
	mov	eax, DWORD PTR _status$[ebp]
	mov	DWORD PTR [eax], 7
$LN1@forLocale:
; Line 203
	mov	eax, DWORD PTR _result$[ebp]
$LN4@forLocale:
; Line 204
	pop	edi
	pop	esi
	pop	ebx
	add	esp, 216				; 000000d8H
	cmp	ebp, esp
	call	__RTC_CheckEsp
	mov	esp, ebp
	pop	ebp
	ret	0
?forLocale@PluralRules@icu_56@@SAPAV12@ABVLocale@2@W4UPluralType@@AAW4UErrorCode@@@Z ENDP ; icu_56::PluralRules::forLocale
_TEXT	ENDS
PUBLIC	?getRuleFromResource@PluralRules@icu_56@@AAE?AVUnicodeString@2@ABVLocale@2@W4UPluralType@@AAW4UErrorCode@@@Z ; icu_56::PluralRules::getRuleFromResource
PUBLIC	__$ArrayPad$
EXTRN	__imp_??0UnicodeString@icu_56@@QAE@PB_W@Z:PROC
EXTRN	__imp_?length@UnicodeString@icu_56@@QBEHXZ:PROC
;	COMDAT xdata$x
xdata$x	SEGMENT
__unwindtable$?internalForLocale@PluralRules@icu_56@@SAPAV12@ABVLocale@2@W4UPluralType@@AAW4UErrorCode@@@Z DD 0ffffffffH
	DD	FLAT:__unwindfunclet$?internalForLocale@PluralRules@icu_56@@SAPAV12@ABVLocale@2@W4UPluralType@@AAW4UErrorCode@@@Z$0
	DD	0ffffffffH
	DD	FLAT:__unwindfunclet$?internalForLocale@PluralRules@icu_56@@SAPAV12@ABVLocale@2@W4UPluralType@@AAW4UErrorCode@@@Z$1
	DD	01H
	DD	FLAT:__unwindfunclet$?internalForLocale@PluralRules@icu_56@@SAPAV12@ABVLocale@2@W4UPluralType@@AAW4UErrorCode@@@Z$2
	DD	01H
	DD	FLAT:__unwindfunclet$?internalForLocale@PluralRules@icu_56@@SAPAV12@ABVLocale@2@W4UPluralType@@AAW4UErrorCode@@@Z$3
__ehfuncinfo$?internalForLocale@PluralRules@icu_56@@SAPAV12@ABVLocale@2@W4UPluralType@@AAW4UErrorCode@@@Z DD 019930522H
	DD	04H
	DD	FLAT:__unwindtable$?internalForLocale@PluralRules@icu_56@@SAPAV12@ABVLocale@2@W4UPluralType@@AAW4UErrorCode@@@Z
	DD	2 DUP(00H)
	DD	2 DUP(00H)
	DD	00H
	DD	01H
; Function compile flags: /Odtp /RTCsu /ZI
xdata$x	ENDS
;	COMDAT ?internalForLocale@PluralRules@icu_56@@SAPAV12@ABVLocale@2@W4UPluralType@@AAW4UErrorCode@@@Z
_TEXT	SEGMENT
tv152 = -540						; size = 4
tv160 = -536						; size = 4
tv92 = -536						; size = 4
tv77 = -536						; size = 4
$T84704 = -528						; size = 4
$T84705 = -516						; size = 4
$T84708 = -504						; size = 4
$T84709 = -492						; size = 4
$T84712 = -480						; size = 4
$T75634 = -468						; size = 64
_parser$ = -204						; size = 100
_locRule$ = -96						; size = 64
_newObj$ = -24						; size = 4
__$ArrayPad$ = -16					; size = 4
__$EHRec$ = -12						; size = 12
_locale$ = 8						; size = 4
_type$ = 12						; size = 4
_status$ = 16						; size = 4
?internalForLocale@PluralRules@icu_56@@SAPAV12@ABVLocale@2@W4UPluralType@@AAW4UErrorCode@@@Z PROC ; icu_56::PluralRules::internalForLocale, COMDAT
; Line 207
	push	ebp
	mov	ebp, esp
	push	-1
	push	__ehhandler$?internalForLocale@PluralRules@icu_56@@SAPAV12@ABVLocale@2@W4UPluralType@@AAW4UErrorCode@@@Z
	mov	eax, DWORD PTR fs:0
	push	eax
	sub	esp, 528				; 00000210H
	push	ebx
	push	esi
	push	edi
	lea	edi, DWORD PTR [ebp-540]
	mov	ecx, 132				; 00000084H
	mov	eax, -858993460				; ccccccccH
	rep stosd
	mov	eax, DWORD PTR ___security_cookie
	xor	eax, ebp
	mov	DWORD PTR __$ArrayPad$[ebp], eax
	push	eax
	lea	eax, DWORD PTR __$EHRec$[ebp]
	mov	DWORD PTR fs:0, eax
; Line 208
	mov	eax, DWORD PTR _status$[ebp]
	mov	ecx, DWORD PTR [eax]
	push	ecx
	call	?U_FAILURE@@YACW4UErrorCode@@@Z		; U_FAILURE
	add	esp, 4
	movsx	edx, al
	test	edx, edx
	je	SHORT $LN5@internalFo
; Line 209
	xor	eax, eax
	jmp	$LN6@internalFo
$LN5@internalFo:
; Line 211
	cmp	DWORD PTR _type$[ebp], 2
	jl	SHORT $LN4@internalFo
; Line 212
	mov	eax, DWORD PTR _status$[ebp]
	mov	DWORD PTR [eax], 1
; Line 213
	xor	eax, eax
	jmp	$LN6@internalFo
$LN4@internalFo:
; Line 215
	mov	esi, esp
	push	8
	call	DWORD PTR __imp_??2UMemory@icu_56@@SAPAXI@Z
	add	esp, 4
	cmp	esi, esp
	call	__RTC_CheckEsp
	mov	DWORD PTR $T84705[ebp], eax
	mov	DWORD PTR __$EHRec$[ebp+8], 0
	cmp	DWORD PTR $T84705[ebp], 0
	je	SHORT $LN8@internalFo
	mov	eax, DWORD PTR _status$[ebp]
	push	eax
	mov	ecx, DWORD PTR $T84705[ebp]
	call	??0PluralRules@icu_56@@QAE@AAW4UErrorCode@@@Z ; icu_56::PluralRules::PluralRules
	mov	DWORD PTR tv77[ebp], eax
	jmp	SHORT $LN9@internalFo
$LN8@internalFo:
	mov	DWORD PTR tv77[ebp], 0
$LN9@internalFo:
	mov	ecx, DWORD PTR tv77[ebp]
	mov	DWORD PTR $T84704[ebp], ecx
	mov	DWORD PTR __$EHRec$[ebp+8], -1
	mov	edx, DWORD PTR $T84704[ebp]
	mov	DWORD PTR _newObj$[ebp], edx
; Line 216
	cmp	DWORD PTR _newObj$[ebp], 0
	je	SHORT $LN2@internalFo
	mov	eax, DWORD PTR _status$[ebp]
	mov	ecx, DWORD PTR [eax]
	push	ecx
	call	?U_FAILURE@@YACW4UErrorCode@@@Z		; U_FAILURE
	add	esp, 4
	movsx	edx, al
	test	edx, edx
	je	SHORT $LN3@internalFo
$LN2@internalFo:
; Line 217
	mov	eax, DWORD PTR _newObj$[ebp]
	mov	DWORD PTR $T84709[ebp], eax
	mov	ecx, DWORD PTR $T84709[ebp]
	mov	DWORD PTR $T84708[ebp], ecx
	cmp	DWORD PTR $T84708[ebp], 0
	je	SHORT $LN10@internalFo
	mov	esi, esp
	push	1
	mov	edx, DWORD PTR $T84708[ebp]
	mov	eax, DWORD PTR [edx]
	mov	ecx, DWORD PTR $T84708[ebp]
	mov	edx, DWORD PTR [eax]
	call	edx
	cmp	esi, esp
	call	__RTC_CheckEsp
	mov	DWORD PTR tv92[ebp], eax
	jmp	SHORT $LN11@internalFo
$LN10@internalFo:
	mov	DWORD PTR tv92[ebp], 0
$LN11@internalFo:
; Line 218
	xor	eax, eax
	jmp	$LN6@internalFo
$LN3@internalFo:
; Line 220
	mov	eax, DWORD PTR _status$[ebp]
	push	eax
	mov	ecx, DWORD PTR _type$[ebp]
	push	ecx
	mov	edx, DWORD PTR _locale$[ebp]
	push	edx
	lea	eax, DWORD PTR _locRule$[ebp]
	push	eax
	mov	ecx, DWORD PTR _newObj$[ebp]
	call	?getRuleFromResource@PluralRules@icu_56@@AAE?AVUnicodeString@2@ABVLocale@2@W4UPluralType@@AAW4UErrorCode@@@Z ; icu_56::PluralRules::getRuleFromResource
	mov	DWORD PTR __$EHRec$[ebp+8], 1
; Line 222
	mov	esi, esp
	lea	ecx, DWORD PTR _locRule$[ebp]
	call	DWORD PTR __imp_?length@UnicodeString@icu_56@@QBEHXZ
	cmp	esi, esp
	call	__RTC_CheckEsp
	test	eax, eax
	jne	SHORT $LN1@internalFo
; Line 226
	mov	esi, esp
	push	OFFSET _PLURAL_DEFAULT_RULE
	lea	ecx, DWORD PTR $T75634[ebp]
	call	DWORD PTR __imp_??0UnicodeString@icu_56@@QAE@PB_W@Z
	cmp	esi, esp
	call	__RTC_CheckEsp
	mov	DWORD PTR tv160[ebp], eax
	mov	eax, DWORD PTR tv160[ebp]
	mov	DWORD PTR tv152[ebp], eax
	mov	BYTE PTR __$EHRec$[ebp+8], 2
	mov	esi, esp
	mov	ecx, DWORD PTR tv152[ebp]
	push	ecx
	lea	ecx, DWORD PTR _locRule$[ebp]
	call	DWORD PTR __imp_??4UnicodeString@icu_56@@QAEAAV01@$$QAV01@@Z
	cmp	esi, esp
	call	__RTC_CheckEsp
	mov	BYTE PTR __$EHRec$[ebp+8], 1
	mov	esi, esp
	lea	ecx, DWORD PTR $T75634[ebp]
	call	DWORD PTR __imp_??1UnicodeString@icu_56@@UAE@XZ
	cmp	esi, esp
	call	__RTC_CheckEsp
; Line 227
	mov	eax, DWORD PTR _status$[ebp]
	mov	DWORD PTR [eax], 0
$LN1@internalFo:
; Line 229
	lea	ecx, DWORD PTR _parser$[ebp]
	call	??0PluralRuleParser@icu_56@@QAE@XZ	; icu_56::PluralRuleParser::PluralRuleParser
	mov	BYTE PTR __$EHRec$[ebp+8], 3
; Line 230
	mov	eax, DWORD PTR _status$[ebp]
	push	eax
	mov	ecx, DWORD PTR _newObj$[ebp]
	push	ecx
	lea	edx, DWORD PTR _locRule$[ebp]
	push	edx
	lea	ecx, DWORD PTR _parser$[ebp]
	call	?parse@PluralRuleParser@icu_56@@QAEXABVUnicodeString@2@PAVPluralRules@2@AAW4UErrorCode@@@Z ; icu_56::PluralRuleParser::parse
; Line 236
	mov	eax, DWORD PTR _newObj$[ebp]
	mov	DWORD PTR $T84712[ebp], eax
	mov	BYTE PTR __$EHRec$[ebp+8], 1
	lea	ecx, DWORD PTR _parser$[ebp]
	call	??1PluralRuleParser@icu_56@@UAE@XZ	; icu_56::PluralRuleParser::~PluralRuleParser
	mov	DWORD PTR __$EHRec$[ebp+8], -1
	mov	esi, esp
	lea	ecx, DWORD PTR _locRule$[ebp]
	call	DWORD PTR __imp_??1UnicodeString@icu_56@@UAE@XZ
	cmp	esi, esp
	call	__RTC_CheckEsp
	mov	eax, DWORD PTR $T84712[ebp]
$LN6@internalFo:
; Line 237
	push	edx
	mov	ecx, ebp
	push	eax
	lea	edx, DWORD PTR $LN20@internalFo
	call	@_RTC_CheckStackVars@8
	pop	eax
	pop	edx
	mov	ecx, DWORD PTR __$EHRec$[ebp]
	mov	DWORD PTR fs:0, ecx
	pop	ecx
	pop	edi
	pop	esi
	pop	ebx
	mov	ecx, DWORD PTR __$ArrayPad$[ebp]
	xor	ecx, ebp
	call	@__security_check_cookie@4
	add	esp, 540				; 0000021cH
	cmp	ebp, esp
	call	__RTC_CheckEsp
	mov	esp, ebp
	pop	ebp
	ret	0
	npad	1
$LN20@internalFo:
	DD	2
	DD	$LN19@internalFo
$LN19@internalFo:
	DD	-96					; ffffffa0H
	DD	64					; 00000040H
	DD	$LN16@internalFo
	DD	-204					; ffffff34H
	DD	100					; 00000064H
	DD	$LN17@internalFo
$LN17@internalFo:
	DB	112					; 00000070H
	DB	97					; 00000061H
	DB	114					; 00000072H
	DB	115					; 00000073H
	DB	101					; 00000065H
	DB	114					; 00000072H
	DB	0
$LN16@internalFo:
	DB	108					; 0000006cH
	DB	111					; 0000006fH
	DB	99					; 00000063H
	DB	82					; 00000052H
	DB	117					; 00000075H
	DB	108					; 0000006cH
	DB	101					; 00000065H
	DB	0
_TEXT	ENDS
;	COMDAT text$x
text$x	SEGMENT
__unwindfunclet$?internalForLocale@PluralRules@icu_56@@SAPAV12@ABVLocale@2@W4UPluralType@@AAW4UErrorCode@@@Z$0:
	mov	esi, esp
	mov	eax, DWORD PTR $T84705[ebp]
	push	eax
	call	DWORD PTR __imp_??3UMemory@icu_56@@SAXPAX@Z
	add	esp, 4
	cmp	esi, esp
	jmp	__RTC_CheckEsp
__unwindfunclet$?internalForLocale@PluralRules@icu_56@@SAPAV12@ABVLocale@2@W4UPluralType@@AAW4UErrorCode@@@Z$1:
	mov	esi, esp
	lea	ecx, DWORD PTR _locRule$[ebp]
	call	DWORD PTR __imp_??1UnicodeString@icu_56@@UAE@XZ
	cmp	esi, esp
	jmp	__RTC_CheckEsp
__unwindfunclet$?internalForLocale@PluralRules@icu_56@@SAPAV12@ABVLocale@2@W4UPluralType@@AAW4UErrorCode@@@Z$2:
	mov	esi, esp
	lea	ecx, DWORD PTR $T75634[ebp]
	call	DWORD PTR __imp_??1UnicodeString@icu_56@@UAE@XZ
	cmp	esi, esp
	jmp	__RTC_CheckEsp
__unwindfunclet$?internalForLocale@PluralRules@icu_56@@SAPAV12@ABVLocale@2@W4UPluralType@@AAW4UErrorCode@@@Z$3:
	lea	ecx, DWORD PTR _parser$[ebp]
	jmp	??1PluralRuleParser@icu_56@@UAE@XZ	; icu_56::PluralRuleParser::~PluralRuleParser
__ehhandler$?internalForLocale@PluralRules@icu_56@@SAPAV12@ABVLocale@2@W4UPluralType@@AAW4UErrorCode@@@Z:
	mov	edx, DWORD PTR [esp+8]
	lea	eax, DWORD PTR [edx+12]
	mov	ecx, DWORD PTR [edx-544]
	xor	ecx, eax
	call	@__security_check_cookie@4
	mov	ecx, DWORD PTR [edx-4]
	xor	ecx, eax
	call	@__security_check_cookie@4
	mov	eax, OFFSET __ehfuncinfo$?internalForLocale@PluralRules@icu_56@@SAPAV12@ABVLocale@2@W4UPluralType@@AAW4UErrorCode@@@Z
	jmp	___CxxFrameHandler3
text$x	ENDS
?internalForLocale@PluralRules@icu_56@@SAPAV12@ABVLocale@2@W4UPluralType@@AAW4UErrorCode@@@Z ENDP ; icu_56::PluralRules::internalForLocale
PUBLIC	?select@PluralRules@icu_56@@QBE?AVUnicodeString@2@ABVFixedDecimal@2@@Z ; icu_56::PluralRules::select
PUBLIC	??0FixedDecimal@icu_56@@QAE@N@Z			; icu_56::FixedDecimal::FixedDecimal
PUBLIC	?select@PluralRules@icu_56@@QBE?AVUnicodeString@2@H@Z ; icu_56::PluralRules::select
; Function compile flags: /Odtp /RTCsu /ZI
;	COMDAT ?select@PluralRules@icu_56@@QBE?AVUnicodeString@2@H@Z
_TEXT	SEGMENT
$T84729 = -268						; size = 48
$T84731 = -212						; size = 4
_this$ = -8						; size = 4
___$ReturnUdt$ = 8					; size = 4
_number$ = 12						; size = 4
?select@PluralRules@icu_56@@QBE?AVUnicodeString@2@H@Z PROC ; icu_56::PluralRules::select, COMDAT
; _this$ = ecx
; Line 240
	push	ebp
	mov	ebp, esp
	sub	esp, 272				; 00000110H
	push	ebx
	push	esi
	push	edi
	push	ecx
	lea	edi, DWORD PTR [ebp-272]
	mov	ecx, 68					; 00000044H
	mov	eax, -858993460				; ccccccccH
	rep stosd
	pop	ecx
	mov	DWORD PTR _this$[ebp], ecx
	mov	DWORD PTR $T84731[ebp], 0
; Line 241
	fild	DWORD PTR _number$[ebp]
	sub	esp, 8
	fstp	QWORD PTR [esp]
	lea	ecx, DWORD PTR $T84729[ebp]
	call	??0FixedDecimal@icu_56@@QAE@N@Z		; icu_56::FixedDecimal::FixedDecimal
	push	eax
	mov	eax, DWORD PTR ___$ReturnUdt$[ebp]
	push	eax
	mov	ecx, DWORD PTR _this$[ebp]
	call	?select@PluralRules@icu_56@@QBE?AVUnicodeString@2@ABVFixedDecimal@2@@Z ; icu_56::PluralRules::select
	mov	ecx, DWORD PTR $T84731[ebp]
	or	ecx, 1
	mov	DWORD PTR $T84731[ebp], ecx
	mov	eax, DWORD PTR ___$ReturnUdt$[ebp]
; Line 242
	pop	edi
	pop	esi
	pop	ebx
	add	esp, 272				; 00000110H
	cmp	ebp, esp
	call	__RTC_CheckEsp
	mov	esp, ebp
	pop	ebp
	ret	8
?select@PluralRules@icu_56@@QBE?AVUnicodeString@2@H@Z ENDP ; icu_56::PluralRules::select
_TEXT	ENDS
PUBLIC	?select@PluralRules@icu_56@@QBE?AVUnicodeString@2@N@Z ; icu_56::PluralRules::select
; Function compile flags: /Odtp /RTCsu /ZI
;	COMDAT ?select@PluralRules@icu_56@@QBE?AVUnicodeString@2@N@Z
_TEXT	SEGMENT
$T84735 = -268						; size = 48
$T84737 = -212						; size = 4
_this$ = -8						; size = 4
___$ReturnUdt$ = 8					; size = 4
_number$ = 12						; size = 8
?select@PluralRules@icu_56@@QBE?AVUnicodeString@2@N@Z PROC ; icu_56::PluralRules::select, COMDAT
; _this$ = ecx
; Line 245
	push	ebp
	mov	ebp, esp
	sub	esp, 272				; 00000110H
	push	ebx
	push	esi
	push	edi
	push	ecx
	lea	edi, DWORD PTR [ebp-272]
	mov	ecx, 68					; 00000044H
	mov	eax, -858993460				; ccccccccH
	rep stosd
	pop	ecx
	mov	DWORD PTR _this$[ebp], ecx
	mov	DWORD PTR $T84737[ebp], 0
; Line 246
	sub	esp, 8
	fld	QWORD PTR _number$[ebp]
	fstp	QWORD PTR [esp]
	lea	ecx, DWORD PTR $T84735[ebp]
	call	??0FixedDecimal@icu_56@@QAE@N@Z		; icu_56::FixedDecimal::FixedDecimal
	push	eax
	mov	eax, DWORD PTR ___$ReturnUdt$[ebp]
	push	eax
	mov	ecx, DWORD PTR _this$[ebp]
	call	?select@PluralRules@icu_56@@QBE?AVUnicodeString@2@ABVFixedDecimal@2@@Z ; icu_56::PluralRules::select
	mov	ecx, DWORD PTR $T84737[ebp]
	or	ecx, 1
	mov	DWORD PTR $T84737[ebp], ecx
	mov	eax, DWORD PTR ___$ReturnUdt$[ebp]
; Line 247
	pop	edi
	pop	esi
	pop	ebx
	add	esp, 272				; 00000110H
	cmp	ebp, esp
	call	__RTC_CheckEsp
	mov	esp, ebp
	pop	ebp
	ret	12					; 0000000cH
?select@PluralRules@icu_56@@QBE?AVUnicodeString@2@N@Z ENDP ; icu_56::PluralRules::select
_TEXT	ENDS
PUBLIC	?select@RuleChain@icu_56@@QBE?AVUnicodeString@2@ABVFixedDecimal@2@@Z ; icu_56::RuleChain::select
; Function compile flags: /Odtp /RTCsu /ZI
;	COMDAT ?select@PluralRules@icu_56@@QBE?AVUnicodeString@2@ABVFixedDecimal@2@@Z
_TEXT	SEGMENT
$T84742 = -212						; size = 4
_this$ = -8						; size = 4
___$ReturnUdt$ = 8					; size = 4
_number$ = 12						; size = 4
?select@PluralRules@icu_56@@QBE?AVUnicodeString@2@ABVFixedDecimal@2@@Z PROC ; icu_56::PluralRules::select, COMDAT
; _this$ = ecx
; Line 250
	push	ebp
	mov	ebp, esp
	sub	esp, 216				; 000000d8H
	push	ebx
	push	esi
	push	edi
	push	ecx
	lea	edi, DWORD PTR [ebp-216]
	mov	ecx, 54					; 00000036H
	mov	eax, -858993460				; ccccccccH
	rep stosd
	pop	ecx
	mov	DWORD PTR _this$[ebp], ecx
	mov	DWORD PTR $T84742[ebp], 0
; Line 251
	mov	eax, DWORD PTR _this$[ebp]
	cmp	DWORD PTR [eax+4], 0
	jne	SHORT $LN2@select
; Line 252
	mov	esi, esp
	push	-1
	push	OFFSET _PLURAL_DEFAULT_RULE
	push	1
	mov	ecx, DWORD PTR ___$ReturnUdt$[ebp]
	call	DWORD PTR __imp_??0UnicodeString@icu_56@@QAE@CPB_WH@Z
	cmp	esi, esp
	call	__RTC_CheckEsp
	mov	eax, DWORD PTR $T84742[ebp]
	or	eax, 1
	mov	DWORD PTR $T84742[ebp], eax
	mov	eax, DWORD PTR ___$ReturnUdt$[ebp]
	jmp	SHORT $LN3@select
; Line 254
	jmp	SHORT $LN3@select
$LN2@select:
; Line 255
	mov	eax, DWORD PTR _number$[ebp]
	push	eax
	mov	ecx, DWORD PTR ___$ReturnUdt$[ebp]
	push	ecx
	mov	edx, DWORD PTR _this$[ebp]
	mov	ecx, DWORD PTR [edx+4]
	call	?select@RuleChain@icu_56@@QBE?AVUnicodeString@2@ABVFixedDecimal@2@@Z ; icu_56::RuleChain::select
	mov	eax, DWORD PTR $T84742[ebp]
	or	eax, 1
	mov	DWORD PTR $T84742[ebp], eax
	mov	eax, DWORD PTR ___$ReturnUdt$[ebp]
$LN3@select:
; Line 257
	pop	edi
	pop	esi
	pop	ebx
	add	esp, 216				; 000000d8H
	cmp	ebp, esp
	call	__RTC_CheckEsp
	mov	esp, ebp
	pop	ebp
	ret	8
?select@PluralRules@icu_56@@QBE?AVUnicodeString@2@ABVFixedDecimal@2@@Z ENDP ; icu_56::PluralRules::select
_TEXT	ENDS
PUBLIC	??0FixedDecimal@icu_56@@QAE@ABVVisibleDigits@1@@Z ; icu_56::FixedDecimal::FixedDecimal
PUBLIC	?select@PluralRules@icu_56@@QBE?AVUnicodeString@2@ABVVisibleDigitsWithExponent@2@@Z ; icu_56::PluralRules::select
; Function compile flags: /Odtp /RTCsu /ZI
;	COMDAT ?select@PluralRules@icu_56@@QBE?AVUnicodeString@2@ABVVisibleDigitsWithExponent@2@@Z
_TEXT	SEGMENT
$T84746 = -268						; size = 48
$T84748 = -212						; size = 4
_this$ = -8						; size = 4
___$ReturnUdt$ = 8					; size = 4
_number$ = 12						; size = 4
?select@PluralRules@icu_56@@QBE?AVUnicodeString@2@ABVVisibleDigitsWithExponent@2@@Z PROC ; icu_56::PluralRules::select, COMDAT
; _this$ = ecx
; Line 260
	push	ebp
	mov	ebp, esp
	sub	esp, 272				; 00000110H
	push	ebx
	push	esi
	push	edi
	push	ecx
	lea	edi, DWORD PTR [ebp-272]
	mov	ecx, 68					; 00000044H
	mov	eax, -858993460				; ccccccccH
	rep stosd
	pop	ecx
	mov	DWORD PTR _this$[ebp], ecx
	mov	DWORD PTR $T84748[ebp], 0
; Line 261
	mov	ecx, DWORD PTR _number$[ebp]
	call	?getExponent@VisibleDigitsWithExponent@icu_56@@QBEPBVVisibleDigits@2@XZ ; icu_56::VisibleDigitsWithExponent::getExponent
	test	eax, eax
	je	SHORT $LN1@select@2
; Line 262
	mov	esi, esp
	push	-1
	push	OFFSET _PLURAL_DEFAULT_RULE
	push	1
	mov	ecx, DWORD PTR ___$ReturnUdt$[ebp]
	call	DWORD PTR __imp_??0UnicodeString@icu_56@@QAE@CPB_WH@Z
	cmp	esi, esp
	call	__RTC_CheckEsp
	mov	eax, DWORD PTR $T84748[ebp]
	or	eax, 1
	mov	DWORD PTR $T84748[ebp], eax
	mov	eax, DWORD PTR ___$ReturnUdt$[ebp]
	jmp	SHORT $LN2@select@2
$LN1@select@2:
; Line 264
	mov	ecx, DWORD PTR _number$[ebp]
	call	?getMantissa@VisibleDigitsWithExponent@icu_56@@QBEABVVisibleDigits@2@XZ ; icu_56::VisibleDigitsWithExponent::getMantissa
	push	eax
	lea	ecx, DWORD PTR $T84746[ebp]
	call	??0FixedDecimal@icu_56@@QAE@ABVVisibleDigits@1@@Z ; icu_56::FixedDecimal::FixedDecimal
	push	eax
	mov	eax, DWORD PTR ___$ReturnUdt$[ebp]
	push	eax
	mov	ecx, DWORD PTR _this$[ebp]
	call	?select@PluralRules@icu_56@@QBE?AVUnicodeString@2@ABVFixedDecimal@2@@Z ; icu_56::PluralRules::select
	mov	ecx, DWORD PTR $T84748[ebp]
	or	ecx, 1
	mov	DWORD PTR $T84748[ebp], ecx
	mov	eax, DWORD PTR ___$ReturnUdt$[ebp]
$LN2@select@2:
; Line 265
	pop	edi
	pop	esi
	pop	ebx
	add	esp, 272				; 00000110H
	cmp	ebp, esp
	call	__RTC_CheckEsp
	mov	esp, ebp
	pop	ebp
	ret	8
?select@PluralRules@icu_56@@QBE?AVUnicodeString@2@ABVVisibleDigitsWithExponent@2@@Z ENDP ; icu_56::PluralRules::select
_TEXT	ENDS
