; Listing generated by Microsoft (R) Optimizing Compiler Version 16.00.40219.01 

	TITLE	D:\mozilla\intl\icu\source\i18n\smallintformatter.cpp
	.686P
	.XMM
	include listing.inc
	.model	flat

INCLUDELIB MSVCRTD
INCLUDELIB OLDNAMES

PUBLIC	?value@?$integral_constant@_N$0A@@tr1@std@@2_NB	; std::tr1::integral_constant<bool,0>::value
PUBLIC	?value@?$integral_constant@_N$00@tr1@std@@2_NB	; std::tr1::integral_constant<bool,1>::value
PUBLIC	?value@?$integral_constant@I$0A@@tr1@std@@2IB	; std::tr1::integral_constant<unsigned int,0>::value
PUBLIC	?_Rank@?$_Arithmetic_traits@_N@std@@2HB		; std::_Arithmetic_traits<bool>::_Rank
PUBLIC	?_Rank@?$_Arithmetic_traits@D@std@@2HB		; std::_Arithmetic_traits<char>::_Rank
PUBLIC	?_Rank@?$_Arithmetic_traits@C@std@@2HB		; std::_Arithmetic_traits<signed char>::_Rank
PUBLIC	?_Rank@?$_Arithmetic_traits@E@std@@2HB		; std::_Arithmetic_traits<unsigned char>::_Rank
PUBLIC	?_Rank@?$_Arithmetic_traits@F@std@@2HB		; std::_Arithmetic_traits<short>::_Rank
PUBLIC	?_Rank@?$_Arithmetic_traits@G@std@@2HB		; std::_Arithmetic_traits<unsigned short>::_Rank
PUBLIC	?_Rank@?$_Arithmetic_traits@H@std@@2HB		; std::_Arithmetic_traits<int>::_Rank
PUBLIC	?_Rank@?$_Arithmetic_traits@I@std@@2HB		; std::_Arithmetic_traits<unsigned int>::_Rank
PUBLIC	?_Rank@?$_Arithmetic_traits@J@std@@2HB		; std::_Arithmetic_traits<long>::_Rank
PUBLIC	?_Rank@?$_Arithmetic_traits@K@std@@2HB		; std::_Arithmetic_traits<unsigned long>::_Rank
PUBLIC	?_Rank@?$_Arithmetic_traits@_J@std@@2HB		; std::_Arithmetic_traits<__int64>::_Rank
PUBLIC	?_Rank@?$_Arithmetic_traits@_K@std@@2HB		; std::_Arithmetic_traits<unsigned __int64>::_Rank
PUBLIC	?_Rank@?$_Arithmetic_traits@M@std@@2HB		; std::_Arithmetic_traits<float>::_Rank
PUBLIC	?_Rank@?$_Arithmetic_traits@N@std@@2HB		; std::_Arithmetic_traits<double>::_Rank
PUBLIC	?_Rank@?$_Arithmetic_traits@O@std@@2HB		; std::_Arithmetic_traits<long double>::_Rank
PUBLIC	?collate@?$_Locbase@H@std@@2HB			; std::_Locbase<int>::collate
PUBLIC	?ctype@?$_Locbase@H@std@@2HB			; std::_Locbase<int>::ctype
PUBLIC	?monetary@?$_Locbase@H@std@@2HB			; std::_Locbase<int>::monetary
PUBLIC	?numeric@?$_Locbase@H@std@@2HB			; std::_Locbase<int>::numeric
PUBLIC	?time@?$_Locbase@H@std@@2HB			; std::_Locbase<int>::time
PUBLIC	?messages@?$_Locbase@H@std@@2HB			; std::_Locbase<int>::messages
PUBLIC	?all@?$_Locbase@H@std@@2HB			; std::_Locbase<int>::all
PUBLIC	?none@?$_Locbase@H@std@@2HB			; std::_Locbase<int>::none
PUBLIC	?skipws@?$_Iosb@H@std@@2W4_Fmtflags@12@B	; std::_Iosb<int>::skipws
PUBLIC	?unitbuf@?$_Iosb@H@std@@2W4_Fmtflags@12@B	; std::_Iosb<int>::unitbuf
PUBLIC	?uppercase@?$_Iosb@H@std@@2W4_Fmtflags@12@B	; std::_Iosb<int>::uppercase
PUBLIC	?showbase@?$_Iosb@H@std@@2W4_Fmtflags@12@B	; std::_Iosb<int>::showbase
PUBLIC	?showpoint@?$_Iosb@H@std@@2W4_Fmtflags@12@B	; std::_Iosb<int>::showpoint
PUBLIC	?showpos@?$_Iosb@H@std@@2W4_Fmtflags@12@B	; std::_Iosb<int>::showpos
PUBLIC	?left@?$_Iosb@H@std@@2W4_Fmtflags@12@B		; std::_Iosb<int>::left
PUBLIC	?right@?$_Iosb@H@std@@2W4_Fmtflags@12@B		; std::_Iosb<int>::right
PUBLIC	?internal@?$_Iosb@H@std@@2W4_Fmtflags@12@B	; std::_Iosb<int>::internal
PUBLIC	?dec@?$_Iosb@H@std@@2W4_Fmtflags@12@B		; std::_Iosb<int>::dec
PUBLIC	?oct@?$_Iosb@H@std@@2W4_Fmtflags@12@B		; std::_Iosb<int>::oct
PUBLIC	?hex@?$_Iosb@H@std@@2W4_Fmtflags@12@B		; std::_Iosb<int>::hex
PUBLIC	?scientific@?$_Iosb@H@std@@2W4_Fmtflags@12@B	; std::_Iosb<int>::scientific
PUBLIC	?fixed@?$_Iosb@H@std@@2W4_Fmtflags@12@B		; std::_Iosb<int>::fixed
PUBLIC	?hexfloat@?$_Iosb@H@std@@2W4_Fmtflags@12@B	; std::_Iosb<int>::hexfloat
PUBLIC	?boolalpha@?$_Iosb@H@std@@2W4_Fmtflags@12@B	; std::_Iosb<int>::boolalpha
PUBLIC	?_Stdio@?$_Iosb@H@std@@2W4_Fmtflags@12@B	; std::_Iosb<int>::_Stdio
PUBLIC	?adjustfield@?$_Iosb@H@std@@2W4_Fmtflags@12@B	; std::_Iosb<int>::adjustfield
PUBLIC	?basefield@?$_Iosb@H@std@@2W4_Fmtflags@12@B	; std::_Iosb<int>::basefield
PUBLIC	?floatfield@?$_Iosb@H@std@@2W4_Fmtflags@12@B	; std::_Iosb<int>::floatfield
PUBLIC	?goodbit@?$_Iosb@H@std@@2W4_Iostate@12@B	; std::_Iosb<int>::goodbit
PUBLIC	?eofbit@?$_Iosb@H@std@@2W4_Iostate@12@B		; std::_Iosb<int>::eofbit
PUBLIC	?failbit@?$_Iosb@H@std@@2W4_Iostate@12@B	; std::_Iosb<int>::failbit
PUBLIC	?badbit@?$_Iosb@H@std@@2W4_Iostate@12@B		; std::_Iosb<int>::badbit
PUBLIC	?_Hardfail@?$_Iosb@H@std@@2W4_Iostate@12@B	; std::_Iosb<int>::_Hardfail
PUBLIC	?in@?$_Iosb@H@std@@2W4_Openmode@12@B		; std::_Iosb<int>::in
PUBLIC	?out@?$_Iosb@H@std@@2W4_Openmode@12@B		; std::_Iosb<int>::out
PUBLIC	?ate@?$_Iosb@H@std@@2W4_Openmode@12@B		; std::_Iosb<int>::ate
PUBLIC	?app@?$_Iosb@H@std@@2W4_Openmode@12@B		; std::_Iosb<int>::app
PUBLIC	?trunc@?$_Iosb@H@std@@2W4_Openmode@12@B		; std::_Iosb<int>::trunc
PUBLIC	?_Nocreate@?$_Iosb@H@std@@2W4_Openmode@12@B	; std::_Iosb<int>::_Nocreate
PUBLIC	?_Noreplace@?$_Iosb@H@std@@2W4_Openmode@12@B	; std::_Iosb<int>::_Noreplace
PUBLIC	?binary@?$_Iosb@H@std@@2W4_Openmode@12@B	; std::_Iosb<int>::binary
PUBLIC	?beg@?$_Iosb@H@std@@2W4_Seekdir@12@B		; std::_Iosb<int>::beg
PUBLIC	?cur@?$_Iosb@H@std@@2W4_Seekdir@12@B		; std::_Iosb<int>::cur
PUBLIC	?end@?$_Iosb@H@std@@2W4_Seekdir@12@B		; std::_Iosb<int>::end
CONST	SEGMENT
_gDigits DW	030H
	DW	030H
	DW	030H
	DW	030H
	DW	030H
	DW	030H
	DW	030H
	DW	031H
	DW	030H
	DW	030H
	DW	030H
	DW	032H
	DW	030H
	DW	030H
	DW	030H
	DW	033H
	DW	030H
	DW	030H
	DW	030H
	DW	034H
	DW	030H
	DW	030H
	DW	030H
	DW	035H
	DW	030H
	DW	030H
	DW	030H
	DW	036H
	DW	030H
	DW	030H
	DW	030H
	DW	037H
	DW	030H
	DW	030H
	DW	030H
	DW	038H
	DW	030H
	DW	030H
	DW	030H
	DW	039H
	DW	030H
	DW	030H
	DW	031H
	DW	030H
	DW	030H
	DW	030H
	DW	031H
	DW	031H
	DW	030H
	DW	030H
	DW	031H
	DW	032H
	DW	030H
	DW	030H
	DW	031H
	DW	033H
	DW	030H
	DW	030H
	DW	031H
	DW	034H
	DW	030H
	DW	030H
	DW	031H
	DW	035H
	DW	030H
	DW	030H
	DW	031H
	DW	036H
	DW	030H
	DW	030H
	DW	031H
	DW	037H
	DW	030H
	DW	030H
	DW	031H
	DW	038H
	DW	030H
	DW	030H
	DW	031H
	DW	039H
	DW	030H
	DW	030H
	DW	032H
	DW	030H
	DW	030H
	DW	030H
	DW	032H
	DW	031H
	DW	030H
	DW	030H
	DW	032H
	DW	032H
	DW	030H
	DW	030H
	DW	032H
	DW	033H
	DW	030H
	DW	030H
	DW	032H
	DW	034H
	DW	030H
	DW	030H
	DW	032H
	DW	035H
	DW	030H
	DW	030H
	DW	032H
	DW	036H
	DW	030H
	DW	030H
	DW	032H
	DW	037H
	DW	030H
	DW	030H
	DW	032H
	DW	038H
	DW	030H
	DW	030H
	DW	032H
	DW	039H
	DW	030H
	DW	030H
	DW	033H
	DW	030H
	DW	030H
	DW	030H
	DW	033H
	DW	031H
	DW	030H
	DW	030H
	DW	033H
	DW	032H
	DW	030H
	DW	030H
	DW	033H
	DW	033H
	DW	030H
	DW	030H
	DW	033H
	DW	034H
	DW	030H
	DW	030H
	DW	033H
	DW	035H
	DW	030H
	DW	030H
	DW	033H
	DW	036H
	DW	030H
	DW	030H
	DW	033H
	DW	037H
	DW	030H
	DW	030H
	DW	033H
	DW	038H
	DW	030H
	DW	030H
	DW	033H
	DW	039H
	DW	030H
	DW	030H
	DW	034H
	DW	030H
	DW	030H
	DW	030H
	DW	034H
	DW	031H
	DW	030H
	DW	030H
	DW	034H
	DW	032H
	DW	030H
	DW	030H
	DW	034H
	DW	033H
	DW	030H
	DW	030H
	DW	034H
	DW	034H
	DW	030H
	DW	030H
	DW	034H
	DW	035H
	DW	030H
	DW	030H
	DW	034H
	DW	036H
	DW	030H
	DW	030H
	DW	034H
	DW	037H
	DW	030H
	DW	030H
	DW	034H
	DW	038H
	DW	030H
	DW	030H
	DW	034H
	DW	039H
	DW	030H
	DW	030H
	DW	035H
	DW	030H
	DW	030H
	DW	030H
	DW	035H
	DW	031H
	DW	030H
	DW	030H
	DW	035H
	DW	032H
	DW	030H
	DW	030H
	DW	035H
	DW	033H
	DW	030H
	DW	030H
	DW	035H
	DW	034H
	DW	030H
	DW	030H
	DW	035H
	DW	035H
	DW	030H
	DW	030H
	DW	035H
	DW	036H
	DW	030H
	DW	030H
	DW	035H
	DW	037H
	DW	030H
	DW	030H
	DW	035H
	DW	038H
	DW	030H
	DW	030H
	DW	035H
	DW	039H
	DW	030H
	DW	030H
	DW	036H
	DW	030H
	DW	030H
	DW	030H
	DW	036H
	DW	031H
	DW	030H
	DW	030H
	DW	036H
	DW	032H
	DW	030H
	DW	030H
	DW	036H
	DW	033H
	DW	030H
	DW	030H
	DW	036H
	DW	034H
	DW	030H
	DW	030H
	DW	036H
	DW	035H
	DW	030H
	DW	030H
	DW	036H
	DW	036H
	DW	030H
	DW	030H
	DW	036H
	DW	037H
	DW	030H
	DW	030H
	DW	036H
	DW	038H
	DW	030H
	DW	030H
	DW	036H
	DW	039H
	DW	030H
	DW	030H
	DW	037H
	DW	030H
	DW	030H
	DW	030H
	DW	037H
	DW	031H
	DW	030H
	DW	030H
	DW	037H
	DW	032H
	DW	030H
	DW	030H
	DW	037H
	DW	033H
	DW	030H
	DW	030H
	DW	037H
	DW	034H
	DW	030H
	DW	030H
	DW	037H
	DW	035H
	DW	030H
	DW	030H
	DW	037H
	DW	036H
	DW	030H
	DW	030H
	DW	037H
	DW	037H
	DW	030H
	DW	030H
	DW	037H
	DW	038H
	DW	030H
	DW	030H
	DW	037H
	DW	039H
	DW	030H
	DW	030H
	DW	038H
	DW	030H
	DW	030H
	DW	030H
	DW	038H
	DW	031H
	DW	030H
	DW	030H
	DW	038H
	DW	032H
	DW	030H
	DW	030H
	DW	038H
	DW	033H
	DW	030H
	DW	030H
	DW	038H
	DW	034H
	DW	030H
	DW	030H
	DW	038H
	DW	035H
	DW	030H
	DW	030H
	DW	038H
	DW	036H
	DW	030H
	DW	030H
	DW	038H
	DW	037H
	DW	030H
	DW	030H
	DW	038H
	DW	038H
	DW	030H
	DW	030H
	DW	038H
	DW	039H
	DW	030H
	DW	030H
	DW	039H
	DW	030H
	DW	030H
	DW	030H
	DW	039H
	DW	031H
	DW	030H
	DW	030H
	DW	039H
	DW	032H
	DW	030H
	DW	030H
	DW	039H
	DW	033H
	DW	030H
	DW	030H
	DW	039H
	DW	034H
	DW	030H
	DW	030H
	DW	039H
	DW	035H
	DW	030H
	DW	030H
	DW	039H
	DW	036H
	DW	030H
	DW	030H
	DW	039H
	DW	037H
	DW	030H
	DW	030H
	DW	039H
	DW	038H
	DW	030H
	DW	030H
	DW	039H
	DW	039H
	DW	030H
	DW	031H
	DW	030H
	DW	030H
	DW	030H
	DW	031H
	DW	030H
	DW	031H
	DW	030H
	DW	031H
	DW	030H
	DW	032H
	DW	030H
	DW	031H
	DW	030H
	DW	033H
	DW	030H
	DW	031H
	DW	030H
	DW	034H
	DW	030H
	DW	031H
	DW	030H
	DW	035H
	DW	030H
	DW	031H
	DW	030H
	DW	036H
	DW	030H
	DW	031H
	DW	030H
	DW	037H
	DW	030H
	DW	031H
	DW	030H
	DW	038H
	DW	030H
	DW	031H
	DW	030H
	DW	039H
	DW	030H
	DW	031H
	DW	031H
	DW	030H
	DW	030H
	DW	031H
	DW	031H
	DW	031H
	DW	030H
	DW	031H
	DW	031H
	DW	032H
	DW	030H
	DW	031H
	DW	031H
	DW	033H
	DW	030H
	DW	031H
	DW	031H
	DW	034H
	DW	030H
	DW	031H
	DW	031H
	DW	035H
	DW	030H
	DW	031H
	DW	031H
	DW	036H
	DW	030H
	DW	031H
	DW	031H
	DW	037H
	DW	030H
	DW	031H
	DW	031H
	DW	038H
	DW	030H
	DW	031H
	DW	031H
	DW	039H
	DW	030H
	DW	031H
	DW	032H
	DW	030H
	DW	030H
	DW	031H
	DW	032H
	DW	031H
	DW	030H
	DW	031H
	DW	032H
	DW	032H
	DW	030H
	DW	031H
	DW	032H
	DW	033H
	DW	030H
	DW	031H
	DW	032H
	DW	034H
	DW	030H
	DW	031H
	DW	032H
	DW	035H
	DW	030H
	DW	031H
	DW	032H
	DW	036H
	DW	030H
	DW	031H
	DW	032H
	DW	037H
	DW	030H
	DW	031H
	DW	032H
	DW	038H
	DW	030H
	DW	031H
	DW	032H
	DW	039H
	DW	030H
	DW	031H
	DW	033H
	DW	030H
	DW	030H
	DW	031H
	DW	033H
	DW	031H
	DW	030H
	DW	031H
	DW	033H
	DW	032H
	DW	030H
	DW	031H
	DW	033H
	DW	033H
	DW	030H
	DW	031H
	DW	033H
	DW	034H
	DW	030H
	DW	031H
	DW	033H
	DW	035H
	DW	030H
	DW	031H
	DW	033H
	DW	036H
	DW	030H
	DW	031H
	DW	033H
	DW	037H
	DW	030H
	DW	031H
	DW	033H
	DW	038H
	DW	030H
	DW	031H
	DW	033H
	DW	039H
	DW	030H
	DW	031H
	DW	034H
	DW	030H
	DW	030H
	DW	031H
	DW	034H
	DW	031H
	DW	030H
	DW	031H
	DW	034H
	DW	032H
	DW	030H
	DW	031H
	DW	034H
	DW	033H
	DW	030H
	DW	031H
	DW	034H
	DW	034H
	DW	030H
	DW	031H
	DW	034H
	DW	035H
	DW	030H
	DW	031H
	DW	034H
	DW	036H
	DW	030H
	DW	031H
	DW	034H
	DW	037H
	DW	030H
	DW	031H
	DW	034H
	DW	038H
	DW	030H
	DW	031H
	DW	034H
	DW	039H
	DW	030H
	DW	031H
	DW	035H
	DW	030H
	DW	030H
	DW	031H
	DW	035H
	DW	031H
	DW	030H
	DW	031H
	DW	035H
	DW	032H
	DW	030H
	DW	031H
	DW	035H
	DW	033H
	DW	030H
	DW	031H
	DW	035H
	DW	034H
	DW	030H
	DW	031H
	DW	035H
	DW	035H
	DW	030H
	DW	031H
	DW	035H
	DW	036H
	DW	030H
	DW	031H
	DW	035H
	DW	037H
	DW	030H
	DW	031H
	DW	035H
	DW	038H
	DW	030H
	DW	031H
	DW	035H
	DW	039H
	DW	030H
	DW	031H
	DW	036H
	DW	030H
	DW	030H
	DW	031H
	DW	036H
	DW	031H
	DW	030H
	DW	031H
	DW	036H
	DW	032H
	DW	030H
	DW	031H
	DW	036H
	DW	033H
	DW	030H
	DW	031H
	DW	036H
	DW	034H
	DW	030H
	DW	031H
	DW	036H
	DW	035H
	DW	030H
	DW	031H
	DW	036H
	DW	036H
	DW	030H
	DW	031H
	DW	036H
	DW	037H
	DW	030H
	DW	031H
	DW	036H
	DW	038H
	DW	030H
	DW	031H
	DW	036H
	DW	039H
	DW	030H
	DW	031H
	DW	037H
	DW	030H
	DW	030H
	DW	031H
	DW	037H
	DW	031H
	DW	030H
	DW	031H
	DW	037H
	DW	032H
	DW	030H
	DW	031H
	DW	037H
	DW	033H
	DW	030H
	DW	031H
	DW	037H
	DW	034H
	DW	030H
	DW	031H
	DW	037H
	DW	035H
	DW	030H
	DW	031H
	DW	037H
	DW	036H
	DW	030H
	DW	031H
	DW	037H
	DW	037H
	DW	030H
	DW	031H
	DW	037H
	DW	038H
	DW	030H
	DW	031H
	DW	037H
	DW	039H
	DW	030H
	DW	031H
	DW	038H
	DW	030H
	DW	030H
	DW	031H
	DW	038H
	DW	031H
	DW	030H
	DW	031H
	DW	038H
	DW	032H
	DW	030H
	DW	031H
	DW	038H
	DW	033H
	DW	030H
	DW	031H
	DW	038H
	DW	034H
	DW	030H
	DW	031H
	DW	038H
	DW	035H
	DW	030H
	DW	031H
	DW	038H
	DW	036H
	DW	030H
	DW	031H
	DW	038H
	DW	037H
	DW	030H
	DW	031H
	DW	038H
	DW	038H
	DW	030H
	DW	031H
	DW	038H
	DW	039H
	DW	030H
	DW	031H
	DW	039H
	DW	030H
	DW	030H
	DW	031H
	DW	039H
	DW	031H
	DW	030H
	DW	031H
	DW	039H
	DW	032H
	DW	030H
	DW	031H
	DW	039H
	DW	033H
	DW	030H
	DW	031H
	DW	039H
	DW	034H
	DW	030H
	DW	031H
	DW	039H
	DW	035H
	DW	030H
	DW	031H
	DW	039H
	DW	036H
	DW	030H
	DW	031H
	DW	039H
	DW	037H
	DW	030H
	DW	031H
	DW	039H
	DW	038H
	DW	030H
	DW	031H
	DW	039H
	DW	039H
	DW	030H
	DW	032H
	DW	030H
	DW	030H
	DW	030H
	DW	032H
	DW	030H
	DW	031H
	DW	030H
	DW	032H
	DW	030H
	DW	032H
	DW	030H
	DW	032H
	DW	030H
	DW	033H
	DW	030H
	DW	032H
	DW	030H
	DW	034H
	DW	030H
	DW	032H
	DW	030H
	DW	035H
	DW	030H
	DW	032H
	DW	030H
	DW	036H
	DW	030H
	DW	032H
	DW	030H
	DW	037H
	DW	030H
	DW	032H
	DW	030H
	DW	038H
	DW	030H
	DW	032H
	DW	030H
	DW	039H
	DW	030H
	DW	032H
	DW	031H
	DW	030H
	DW	030H
	DW	032H
	DW	031H
	DW	031H
	DW	030H
	DW	032H
	DW	031H
	DW	032H
	DW	030H
	DW	032H
	DW	031H
	DW	033H
	DW	030H
	DW	032H
	DW	031H
	DW	034H
	DW	030H
	DW	032H
	DW	031H
	DW	035H
	DW	030H
	DW	032H
	DW	031H
	DW	036H
	DW	030H
	DW	032H
	DW	031H
	DW	037H
	DW	030H
	DW	032H
	DW	031H
	DW	038H
	DW	030H
	DW	032H
	DW	031H
	DW	039H
	DW	030H
	DW	032H
	DW	032H
	DW	030H
	DW	030H
	DW	032H
	DW	032H
	DW	031H
	DW	030H
	DW	032H
	DW	032H
	DW	032H
	DW	030H
	DW	032H
	DW	032H
	DW	033H
	DW	030H
	DW	032H
	DW	032H
	DW	034H
	DW	030H
	DW	032H
	DW	032H
	DW	035H
	DW	030H
	DW	032H
	DW	032H
	DW	036H
	DW	030H
	DW	032H
	DW	032H
	DW	037H
	DW	030H
	DW	032H
	DW	032H
	DW	038H
	DW	030H
	DW	032H
	DW	032H
	DW	039H
	DW	030H
	DW	032H
	DW	033H
	DW	030H
	DW	030H
	DW	032H
	DW	033H
	DW	031H
	DW	030H
	DW	032H
	DW	033H
	DW	032H
	DW	030H
	DW	032H
	DW	033H
	DW	033H
	DW	030H
	DW	032H
	DW	033H
	DW	034H
	DW	030H
	DW	032H
	DW	033H
	DW	035H
	DW	030H
	DW	032H
	DW	033H
	DW	036H
	DW	030H
	DW	032H
	DW	033H
	DW	037H
	DW	030H
	DW	032H
	DW	033H
	DW	038H
	DW	030H
	DW	032H
	DW	033H
	DW	039H
	DW	030H
	DW	032H
	DW	034H
	DW	030H
	DW	030H
	DW	032H
	DW	034H
	DW	031H
	DW	030H
	DW	032H
	DW	034H
	DW	032H
	DW	030H
	DW	032H
	DW	034H
	DW	033H
	DW	030H
	DW	032H
	DW	034H
	DW	034H
	DW	030H
	DW	032H
	DW	034H
	DW	035H
	DW	030H
	DW	032H
	DW	034H
	DW	036H
	DW	030H
	DW	032H
	DW	034H
	DW	037H
	DW	030H
	DW	032H
	DW	034H
	DW	038H
	DW	030H
	DW	032H
	DW	034H
	DW	039H
	DW	030H
	DW	032H
	DW	035H
	DW	030H
	DW	030H
	DW	032H
	DW	035H
	DW	031H
	DW	030H
	DW	032H
	DW	035H
	DW	032H
	DW	030H
	DW	032H
	DW	035H
	DW	033H
	DW	030H
	DW	032H
	DW	035H
	DW	034H
	DW	030H
	DW	032H
	DW	035H
	DW	035H
	DW	030H
	DW	032H
	DW	035H
	DW	036H
	DW	030H
	DW	032H
	DW	035H
	DW	037H
	DW	030H
	DW	032H
	DW	035H
	DW	038H
	DW	030H
	DW	032H
	DW	035H
	DW	039H
	DW	030H
	DW	032H
	DW	036H
	DW	030H
	DW	030H
	DW	032H
	DW	036H
	DW	031H
	DW	030H
	DW	032H
	DW	036H
	DW	032H
	DW	030H
	DW	032H
	DW	036H
	DW	033H
	DW	030H
	DW	032H
	DW	036H
	DW	034H
	DW	030H
	DW	032H
	DW	036H
	DW	035H
	DW	030H
	DW	032H
	DW	036H
	DW	036H
	DW	030H
	DW	032H
	DW	036H
	DW	037H
	DW	030H
	DW	032H
	DW	036H
	DW	038H
	DW	030H
	DW	032H
	DW	036H
	DW	039H
	DW	030H
	DW	032H
	DW	037H
	DW	030H
	DW	030H
	DW	032H
	DW	037H
	DW	031H
	DW	030H
	DW	032H
	DW	037H
	DW	032H
	DW	030H
	DW	032H
	DW	037H
	DW	033H
	DW	030H
	DW	032H
	DW	037H
	DW	034H
	DW	030H
	DW	032H
	DW	037H
	DW	035H
	DW	030H
	DW	032H
	DW	037H
	DW	036H
	DW	030H
	DW	032H
	DW	037H
	DW	037H
	DW	030H
	DW	032H
	DW	037H
	DW	038H
	DW	030H
	DW	032H
	DW	037H
	DW	039H
	DW	030H
	DW	032H
	DW	038H
	DW	030H
	DW	030H
	DW	032H
	DW	038H
	DW	031H
	DW	030H
	DW	032H
	DW	038H
	DW	032H
	DW	030H
	DW	032H
	DW	038H
	DW	033H
	DW	030H
	DW	032H
	DW	038H
	DW	034H
	DW	030H
	DW	032H
	DW	038H
	DW	035H
	DW	030H
	DW	032H
	DW	038H
	DW	036H
	DW	030H
	DW	032H
	DW	038H
	DW	037H
	DW	030H
	DW	032H
	DW	038H
	DW	038H
	DW	030H
	DW	032H
	DW	038H
	DW	039H
	DW	030H
	DW	032H
	DW	039H
	DW	030H
	DW	030H
	DW	032H
	DW	039H
	DW	031H
	DW	030H
	DW	032H
	DW	039H
	DW	032H
	DW	030H
	DW	032H
	DW	039H
	DW	033H
	DW	030H
	DW	032H
	DW	039H
	DW	034H
	DW	030H
	DW	032H
	DW	039H
	DW	035H
	DW	030H
	DW	032H
	DW	039H
	DW	036H
	DW	030H
	DW	032H
	DW	039H
	DW	037H
	DW	030H
	DW	032H
	DW	039H
	DW	038H
	DW	030H
	DW	032H
	DW	039H
	DW	039H
	DW	030H
	DW	033H
	DW	030H
	DW	030H
	DW	030H
	DW	033H
	DW	030H
	DW	031H
	DW	030H
	DW	033H
	DW	030H
	DW	032H
	DW	030H
	DW	033H
	DW	030H
	DW	033H
	DW	030H
	DW	033H
	DW	030H
	DW	034H
	DW	030H
	DW	033H
	DW	030H
	DW	035H
	DW	030H
	DW	033H
	DW	030H
	DW	036H
	DW	030H
	DW	033H
	DW	030H
	DW	037H
	DW	030H
	DW	033H
	DW	030H
	DW	038H
	DW	030H
	DW	033H
	DW	030H
	DW	039H
	DW	030H
	DW	033H
	DW	031H
	DW	030H
	DW	030H
	DW	033H
	DW	031H
	DW	031H
	DW	030H
	DW	033H
	DW	031H
	DW	032H
	DW	030H
	DW	033H
	DW	031H
	DW	033H
	DW	030H
	DW	033H
	DW	031H
	DW	034H
	DW	030H
	DW	033H
	DW	031H
	DW	035H
	DW	030H
	DW	033H
	DW	031H
	DW	036H
	DW	030H
	DW	033H
	DW	031H
	DW	037H
	DW	030H
	DW	033H
	DW	031H
	DW	038H
	DW	030H
	DW	033H
	DW	031H
	DW	039H
	DW	030H
	DW	033H
	DW	032H
	DW	030H
	DW	030H
	DW	033H
	DW	032H
	DW	031H
	DW	030H
	DW	033H
	DW	032H
	DW	032H
	DW	030H
	DW	033H
	DW	032H
	DW	033H
	DW	030H
	DW	033H
	DW	032H
	DW	034H
	DW	030H
	DW	033H
	DW	032H
	DW	035H
	DW	030H
	DW	033H
	DW	032H
	DW	036H
	DW	030H
	DW	033H
	DW	032H
	DW	037H
	DW	030H
	DW	033H
	DW	032H
	DW	038H
	DW	030H
	DW	033H
	DW	032H
	DW	039H
	DW	030H
	DW	033H
	DW	033H
	DW	030H
	DW	030H
	DW	033H
	DW	033H
	DW	031H
	DW	030H
	DW	033H
	DW	033H
	DW	032H
	DW	030H
	DW	033H
	DW	033H
	DW	033H
	DW	030H
	DW	033H
	DW	033H
	DW	034H
	DW	030H
	DW	033H
	DW	033H
	DW	035H
	DW	030H
	DW	033H
	DW	033H
	DW	036H
	DW	030H
	DW	033H
	DW	033H
	DW	037H
	DW	030H
	DW	033H
	DW	033H
	DW	038H
	DW	030H
	DW	033H
	DW	033H
	DW	039H
	DW	030H
	DW	033H
	DW	034H
	DW	030H
	DW	030H
	DW	033H
	DW	034H
	DW	031H
	DW	030H
	DW	033H
	DW	034H
	DW	032H
	DW	030H
	DW	033H
	DW	034H
	DW	033H
	DW	030H
	DW	033H
	DW	034H
	DW	034H
	DW	030H
	DW	033H
	DW	034H
	DW	035H
	DW	030H
	DW	033H
	DW	034H
	DW	036H
	DW	030H
	DW	033H
	DW	034H
	DW	037H
	DW	030H
	DW	033H
	DW	034H
	DW	038H
	DW	030H
	DW	033H
	DW	034H
	DW	039H
	DW	030H
	DW	033H
	DW	035H
	DW	030H
	DW	030H
	DW	033H
	DW	035H
	DW	031H
	DW	030H
	DW	033H
	DW	035H
	DW	032H
	DW	030H
	DW	033H
	DW	035H
	DW	033H
	DW	030H
	DW	033H
	DW	035H
	DW	034H
	DW	030H
	DW	033H
	DW	035H
	DW	035H
	DW	030H
	DW	033H
	DW	035H
	DW	036H
	DW	030H
	DW	033H
	DW	035H
	DW	037H
	DW	030H
	DW	033H
	DW	035H
	DW	038H
	DW	030H
	DW	033H
	DW	035H
	DW	039H
	DW	030H
	DW	033H
	DW	036H
	DW	030H
	DW	030H
	DW	033H
	DW	036H
	DW	031H
	DW	030H
	DW	033H
	DW	036H
	DW	032H
	DW	030H
	DW	033H
	DW	036H
	DW	033H
	DW	030H
	DW	033H
	DW	036H
	DW	034H
	DW	030H
	DW	033H
	DW	036H
	DW	035H
	DW	030H
	DW	033H
	DW	036H
	DW	036H
	DW	030H
	DW	033H
	DW	036H
	DW	037H
	DW	030H
	DW	033H
	DW	036H
	DW	038H
	DW	030H
	DW	033H
	DW	036H
	DW	039H
	DW	030H
	DW	033H
	DW	037H
	DW	030H
	DW	030H
	DW	033H
	DW	037H
	DW	031H
	DW	030H
	DW	033H
	DW	037H
	DW	032H
	DW	030H
	DW	033H
	DW	037H
	DW	033H
	DW	030H
	DW	033H
	DW	037H
	DW	034H
	DW	030H
	DW	033H
	DW	037H
	DW	035H
	DW	030H
	DW	033H
	DW	037H
	DW	036H
	DW	030H
	DW	033H
	DW	037H
	DW	037H
	DW	030H
	DW	033H
	DW	037H
	DW	038H
	DW	030H
	DW	033H
	DW	037H
	DW	039H
	DW	030H
	DW	033H
	DW	038H
	DW	030H
	DW	030H
	DW	033H
	DW	038H
	DW	031H
	DW	030H
	DW	033H
	DW	038H
	DW	032H
	DW	030H
	DW	033H
	DW	038H
	DW	033H
	DW	030H
	DW	033H
	DW	038H
	DW	034H
	DW	030H
	DW	033H
	DW	038H
	DW	035H
	DW	030H
	DW	033H
	DW	038H
	DW	036H
	DW	030H
	DW	033H
	DW	038H
	DW	037H
	DW	030H
	DW	033H
	DW	038H
	DW	038H
	DW	030H
	DW	033H
	DW	038H
	DW	039H
	DW	030H
	DW	033H
	DW	039H
	DW	030H
	DW	030H
	DW	033H
	DW	039H
	DW	031H
	DW	030H
	DW	033H
	DW	039H
	DW	032H
	DW	030H
	DW	033H
	DW	039H
	DW	033H
	DW	030H
	DW	033H
	DW	039H
	DW	034H
	DW	030H
	DW	033H
	DW	039H
	DW	035H
	DW	030H
	DW	033H
	DW	039H
	DW	036H
	DW	030H
	DW	033H
	DW	039H
	DW	037H
	DW	030H
	DW	033H
	DW	039H
	DW	038H
	DW	030H
	DW	033H
	DW	039H
	DW	039H
	DW	030H
	DW	034H
	DW	030H
	DW	030H
	DW	030H
	DW	034H
	DW	030H
	DW	031H
	DW	030H
	DW	034H
	DW	030H
	DW	032H
	DW	030H
	DW	034H
	DW	030H
	DW	033H
	DW	030H
	DW	034H
	DW	030H
	DW	034H
	DW	030H
	DW	034H
	DW	030H
	DW	035H
	DW	030H
	DW	034H
	DW	030H
	DW	036H
	DW	030H
	DW	034H
	DW	030H
	DW	037H
	DW	030H
	DW	034H
	DW	030H
	DW	038H
	DW	030H
	DW	034H
	DW	030H
	DW	039H
	DW	030H
	DW	034H
	DW	031H
	DW	030H
	DW	030H
	DW	034H
	DW	031H
	DW	031H
	DW	030H
	DW	034H
	DW	031H
	DW	032H
	DW	030H
	DW	034H
	DW	031H
	DW	033H
	DW	030H
	DW	034H
	DW	031H
	DW	034H
	DW	030H
	DW	034H
	DW	031H
	DW	035H
	DW	030H
	DW	034H
	DW	031H
	DW	036H
	DW	030H
	DW	034H
	DW	031H
	DW	037H
	DW	030H
	DW	034H
	DW	031H
	DW	038H
	DW	030H
	DW	034H
	DW	031H
	DW	039H
	DW	030H
	DW	034H
	DW	032H
	DW	030H
	DW	030H
	DW	034H
	DW	032H
	DW	031H
	DW	030H
	DW	034H
	DW	032H
	DW	032H
	DW	030H
	DW	034H
	DW	032H
	DW	033H
	DW	030H
	DW	034H
	DW	032H
	DW	034H
	DW	030H
	DW	034H
	DW	032H
	DW	035H
	DW	030H
	DW	034H
	DW	032H
	DW	036H
	DW	030H
	DW	034H
	DW	032H
	DW	037H
	DW	030H
	DW	034H
	DW	032H
	DW	038H
	DW	030H
	DW	034H
	DW	032H
	DW	039H
	DW	030H
	DW	034H
	DW	033H
	DW	030H
	DW	030H
	DW	034H
	DW	033H
	DW	031H
	DW	030H
	DW	034H
	DW	033H
	DW	032H
	DW	030H
	DW	034H
	DW	033H
	DW	033H
	DW	030H
	DW	034H
	DW	033H
	DW	034H
	DW	030H
	DW	034H
	DW	033H
	DW	035H
	DW	030H
	DW	034H
	DW	033H
	DW	036H
	DW	030H
	DW	034H
	DW	033H
	DW	037H
	DW	030H
	DW	034H
	DW	033H
	DW	038H
	DW	030H
	DW	034H
	DW	033H
	DW	039H
	DW	030H
	DW	034H
	DW	034H
	DW	030H
	DW	030H
	DW	034H
	DW	034H
	DW	031H
	DW	030H
	DW	034H
	DW	034H
	DW	032H
	DW	030H
	DW	034H
	DW	034H
	DW	033H
	DW	030H
	DW	034H
	DW	034H
	DW	034H
	DW	030H
	DW	034H
	DW	034H
	DW	035H
	DW	030H
	DW	034H
	DW	034H
	DW	036H
	DW	030H
	DW	034H
	DW	034H
	DW	037H
	DW	030H
	DW	034H
	DW	034H
	DW	038H
	DW	030H
	DW	034H
	DW	034H
	DW	039H
	DW	030H
	DW	034H
	DW	035H
	DW	030H
	DW	030H
	DW	034H
	DW	035H
	DW	031H
	DW	030H
	DW	034H
	DW	035H
	DW	032H
	DW	030H
	DW	034H
	DW	035H
	DW	033H
	DW	030H
	DW	034H
	DW	035H
	DW	034H
	DW	030H
	DW	034H
	DW	035H
	DW	035H
	DW	030H
	DW	034H
	DW	035H
	DW	036H
	DW	030H
	DW	034H
	DW	035H
	DW	037H
	DW	030H
	DW	034H
	DW	035H
	DW	038H
	DW	030H
	DW	034H
	DW	035H
	DW	039H
	DW	030H
	DW	034H
	DW	036H
	DW	030H
	DW	030H
	DW	034H
	DW	036H
	DW	031H
	DW	030H
	DW	034H
	DW	036H
	DW	032H
	DW	030H
	DW	034H
	DW	036H
	DW	033H
	DW	030H
	DW	034H
	DW	036H
	DW	034H
	DW	030H
	DW	034H
	DW	036H
	DW	035H
	DW	030H
	DW	034H
	DW	036H
	DW	036H
	DW	030H
	DW	034H
	DW	036H
	DW	037H
	DW	030H
	DW	034H
	DW	036H
	DW	038H
	DW	030H
	DW	034H
	DW	036H
	DW	039H
	DW	030H
	DW	034H
	DW	037H
	DW	030H
	DW	030H
	DW	034H
	DW	037H
	DW	031H
	DW	030H
	DW	034H
	DW	037H
	DW	032H
	DW	030H
	DW	034H
	DW	037H
	DW	033H
	DW	030H
	DW	034H
	DW	037H
	DW	034H
	DW	030H
	DW	034H
	DW	037H
	DW	035H
	DW	030H
	DW	034H
	DW	037H
	DW	036H
	DW	030H
	DW	034H
	DW	037H
	DW	037H
	DW	030H
	DW	034H
	DW	037H
	DW	038H
	DW	030H
	DW	034H
	DW	037H
	DW	039H
	DW	030H
	DW	034H
	DW	038H
	DW	030H
	DW	030H
	DW	034H
	DW	038H
	DW	031H
	DW	030H
	DW	034H
	DW	038H
	DW	032H
	DW	030H
	DW	034H
	DW	038H
	DW	033H
	DW	030H
	DW	034H
	DW	038H
	DW	034H
	DW	030H
	DW	034H
	DW	038H
	DW	035H
	DW	030H
	DW	034H
	DW	038H
	DW	036H
	DW	030H
	DW	034H
	DW	038H
	DW	037H
	DW	030H
	DW	034H
	DW	038H
	DW	038H
	DW	030H
	DW	034H
	DW	038H
	DW	039H
	DW	030H
	DW	034H
	DW	039H
	DW	030H
	DW	030H
	DW	034H
	DW	039H
	DW	031H
	DW	030H
	DW	034H
	DW	039H
	DW	032H
	DW	030H
	DW	034H
	DW	039H
	DW	033H
	DW	030H
	DW	034H
	DW	039H
	DW	034H
	DW	030H
	DW	034H
	DW	039H
	DW	035H
	DW	030H
	DW	034H
	DW	039H
	DW	036H
	DW	030H
	DW	034H
	DW	039H
	DW	037H
	DW	030H
	DW	034H
	DW	039H
	DW	038H
	DW	030H
	DW	034H
	DW	039H
	DW	039H
	DW	030H
	DW	035H
	DW	030H
	DW	030H
	DW	030H
	DW	035H
	DW	030H
	DW	031H
	DW	030H
	DW	035H
	DW	030H
	DW	032H
	DW	030H
	DW	035H
	DW	030H
	DW	033H
	DW	030H
	DW	035H
	DW	030H
	DW	034H
	DW	030H
	DW	035H
	DW	030H
	DW	035H
	DW	030H
	DW	035H
	DW	030H
	DW	036H
	DW	030H
	DW	035H
	DW	030H
	DW	037H
	DW	030H
	DW	035H
	DW	030H
	DW	038H
	DW	030H
	DW	035H
	DW	030H
	DW	039H
	DW	030H
	DW	035H
	DW	031H
	DW	030H
	DW	030H
	DW	035H
	DW	031H
	DW	031H
	DW	030H
	DW	035H
	DW	031H
	DW	032H
	DW	030H
	DW	035H
	DW	031H
	DW	033H
	DW	030H
	DW	035H
	DW	031H
	DW	034H
	DW	030H
	DW	035H
	DW	031H
	DW	035H
	DW	030H
	DW	035H
	DW	031H
	DW	036H
	DW	030H
	DW	035H
	DW	031H
	DW	037H
	DW	030H
	DW	035H
	DW	031H
	DW	038H
	DW	030H
	DW	035H
	DW	031H
	DW	039H
	DW	030H
	DW	035H
	DW	032H
	DW	030H
	DW	030H
	DW	035H
	DW	032H
	DW	031H
	DW	030H
	DW	035H
	DW	032H
	DW	032H
	DW	030H
	DW	035H
	DW	032H
	DW	033H
	DW	030H
	DW	035H
	DW	032H
	DW	034H
	DW	030H
	DW	035H
	DW	032H
	DW	035H
	DW	030H
	DW	035H
	DW	032H
	DW	036H
	DW	030H
	DW	035H
	DW	032H
	DW	037H
	DW	030H
	DW	035H
	DW	032H
	DW	038H
	DW	030H
	DW	035H
	DW	032H
	DW	039H
	DW	030H
	DW	035H
	DW	033H
	DW	030H
	DW	030H
	DW	035H
	DW	033H
	DW	031H
	DW	030H
	DW	035H
	DW	033H
	DW	032H
	DW	030H
	DW	035H
	DW	033H
	DW	033H
	DW	030H
	DW	035H
	DW	033H
	DW	034H
	DW	030H
	DW	035H
	DW	033H
	DW	035H
	DW	030H
	DW	035H
	DW	033H
	DW	036H
	DW	030H
	DW	035H
	DW	033H
	DW	037H
	DW	030H
	DW	035H
	DW	033H
	DW	038H
	DW	030H
	DW	035H
	DW	033H
	DW	039H
	DW	030H
	DW	035H
	DW	034H
	DW	030H
	DW	030H
	DW	035H
	DW	034H
	DW	031H
	DW	030H
	DW	035H
	DW	034H
	DW	032H
	DW	030H
	DW	035H
	DW	034H
	DW	033H
	DW	030H
	DW	035H
	DW	034H
	DW	034H
	DW	030H
	DW	035H
	DW	034H
	DW	035H
	DW	030H
	DW	035H
	DW	034H
	DW	036H
	DW	030H
	DW	035H
	DW	034H
	DW	037H
	DW	030H
	DW	035H
	DW	034H
	DW	038H
	DW	030H
	DW	035H
	DW	034H
	DW	039H
	DW	030H
	DW	035H
	DW	035H
	DW	030H
	DW	030H
	DW	035H
	DW	035H
	DW	031H
	DW	030H
	DW	035H
	DW	035H
	DW	032H
	DW	030H
	DW	035H
	DW	035H
	DW	033H
	DW	030H
	DW	035H
	DW	035H
	DW	034H
	DW	030H
	DW	035H
	DW	035H
	DW	035H
	DW	030H
	DW	035H
	DW	035H
	DW	036H
	DW	030H
	DW	035H
	DW	035H
	DW	037H
	DW	030H
	DW	035H
	DW	035H
	DW	038H
	DW	030H
	DW	035H
	DW	035H
	DW	039H
	DW	030H
	DW	035H
	DW	036H
	DW	030H
	DW	030H
	DW	035H
	DW	036H
	DW	031H
	DW	030H
	DW	035H
	DW	036H
	DW	032H
	DW	030H
	DW	035H
	DW	036H
	DW	033H
	DW	030H
	DW	035H
	DW	036H
	DW	034H
	DW	030H
	DW	035H
	DW	036H
	DW	035H
	DW	030H
	DW	035H
	DW	036H
	DW	036H
	DW	030H
	DW	035H
	DW	036H
	DW	037H
	DW	030H
	DW	035H
	DW	036H
	DW	038H
	DW	030H
	DW	035H
	DW	036H
	DW	039H
	DW	030H
	DW	035H
	DW	037H
	DW	030H
	DW	030H
	DW	035H
	DW	037H
	DW	031H
	DW	030H
	DW	035H
	DW	037H
	DW	032H
	DW	030H
	DW	035H
	DW	037H
	DW	033H
	DW	030H
	DW	035H
	DW	037H
	DW	034H
	DW	030H
	DW	035H
	DW	037H
	DW	035H
	DW	030H
	DW	035H
	DW	037H
	DW	036H
	DW	030H
	DW	035H
	DW	037H
	DW	037H
	DW	030H
	DW	035H
	DW	037H
	DW	038H
	DW	030H
	DW	035H
	DW	037H
	DW	039H
	DW	030H
	DW	035H
	DW	038H
	DW	030H
	DW	030H
	DW	035H
	DW	038H
	DW	031H
	DW	030H
	DW	035H
	DW	038H
	DW	032H
	DW	030H
	DW	035H
	DW	038H
	DW	033H
	DW	030H
	DW	035H
	DW	038H
	DW	034H
	DW	030H
	DW	035H
	DW	038H
	DW	035H
	DW	030H
	DW	035H
	DW	038H
	DW	036H
	DW	030H
	DW	035H
	DW	038H
	DW	037H
	DW	030H
	DW	035H
	DW	038H
	DW	038H
	DW	030H
	DW	035H
	DW	038H
	DW	039H
	DW	030H
	DW	035H
	DW	039H
	DW	030H
	DW	030H
	DW	035H
	DW	039H
	DW	031H
	DW	030H
	DW	035H
	DW	039H
	DW	032H
	DW	030H
	DW	035H
	DW	039H
	DW	033H
	DW	030H
	DW	035H
	DW	039H
	DW	034H
	DW	030H
	DW	035H
	DW	039H
	DW	035H
	DW	030H
	DW	035H
	DW	039H
	DW	036H
	DW	030H
	DW	035H
	DW	039H
	DW	037H
	DW	030H
	DW	035H
	DW	039H
	DW	038H
	DW	030H
	DW	035H
	DW	039H
	DW	039H
	DW	030H
	DW	036H
	DW	030H
	DW	030H
	DW	030H
	DW	036H
	DW	030H
	DW	031H
	DW	030H
	DW	036H
	DW	030H
	DW	032H
	DW	030H
	DW	036H
	DW	030H
	DW	033H
	DW	030H
	DW	036H
	DW	030H
	DW	034H
	DW	030H
	DW	036H
	DW	030H
	DW	035H
	DW	030H
	DW	036H
	DW	030H
	DW	036H
	DW	030H
	DW	036H
	DW	030H
	DW	037H
	DW	030H
	DW	036H
	DW	030H
	DW	038H
	DW	030H
	DW	036H
	DW	030H
	DW	039H
	DW	030H
	DW	036H
	DW	031H
	DW	030H
	DW	030H
	DW	036H
	DW	031H
	DW	031H
	DW	030H
	DW	036H
	DW	031H
	DW	032H
	DW	030H
	DW	036H
	DW	031H
	DW	033H
	DW	030H
	DW	036H
	DW	031H
	DW	034H
	DW	030H
	DW	036H
	DW	031H
	DW	035H
	DW	030H
	DW	036H
	DW	031H
	DW	036H
	DW	030H
	DW	036H
	DW	031H
	DW	037H
	DW	030H
	DW	036H
	DW	031H
	DW	038H
	DW	030H
	DW	036H
	DW	031H
	DW	039H
	DW	030H
	DW	036H
	DW	032H
	DW	030H
	DW	030H
	DW	036H
	DW	032H
	DW	031H
	DW	030H
	DW	036H
	DW	032H
	DW	032H
	DW	030H
	DW	036H
	DW	032H
	DW	033H
	DW	030H
	DW	036H
	DW	032H
	DW	034H
	DW	030H
	DW	036H
	DW	032H
	DW	035H
	DW	030H
	DW	036H
	DW	032H
	DW	036H
	DW	030H
	DW	036H
	DW	032H
	DW	037H
	DW	030H
	DW	036H
	DW	032H
	DW	038H
	DW	030H
	DW	036H
	DW	032H
	DW	039H
	DW	030H
	DW	036H
	DW	033H
	DW	030H
	DW	030H
	DW	036H
	DW	033H
	DW	031H
	DW	030H
	DW	036H
	DW	033H
	DW	032H
	DW	030H
	DW	036H
	DW	033H
	DW	033H
	DW	030H
	DW	036H
	DW	033H
	DW	034H
	DW	030H
	DW	036H
	DW	033H
	DW	035H
	DW	030H
	DW	036H
	DW	033H
	DW	036H
	DW	030H
	DW	036H
	DW	033H
	DW	037H
	DW	030H
	DW	036H
	DW	033H
	DW	038H
	DW	030H
	DW	036H
	DW	033H
	DW	039H
	DW	030H
	DW	036H
	DW	034H
	DW	030H
	DW	030H
	DW	036H
	DW	034H
	DW	031H
	DW	030H
	DW	036H
	DW	034H
	DW	032H
	DW	030H
	DW	036H
	DW	034H
	DW	033H
	DW	030H
	DW	036H
	DW	034H
	DW	034H
	DW	030H
	DW	036H
	DW	034H
	DW	035H
	DW	030H
	DW	036H
	DW	034H
	DW	036H
	DW	030H
	DW	036H
	DW	034H
	DW	037H
	DW	030H
	DW	036H
	DW	034H
	DW	038H
	DW	030H
	DW	036H
	DW	034H
	DW	039H
	DW	030H
	DW	036H
	DW	035H
	DW	030H
	DW	030H
	DW	036H
	DW	035H
	DW	031H
	DW	030H
	DW	036H
	DW	035H
	DW	032H
	DW	030H
	DW	036H
	DW	035H
	DW	033H
	DW	030H
	DW	036H
	DW	035H
	DW	034H
	DW	030H
	DW	036H
	DW	035H
	DW	035H
	DW	030H
	DW	036H
	DW	035H
	DW	036H
	DW	030H
	DW	036H
	DW	035H
	DW	037H
	DW	030H
	DW	036H
	DW	035H
	DW	038H
	DW	030H
	DW	036H
	DW	035H
	DW	039H
	DW	030H
	DW	036H
	DW	036H
	DW	030H
	DW	030H
	DW	036H
	DW	036H
	DW	031H
	DW	030H
	DW	036H
	DW	036H
	DW	032H
	DW	030H
	DW	036H
	DW	036H
	DW	033H
	DW	030H
	DW	036H
	DW	036H
	DW	034H
	DW	030H
	DW	036H
	DW	036H
	DW	035H
	DW	030H
	DW	036H
	DW	036H
	DW	036H
	DW	030H
	DW	036H
	DW	036H
	DW	037H
	DW	030H
	DW	036H
	DW	036H
	DW	038H
	DW	030H
	DW	036H
	DW	036H
	DW	039H
	DW	030H
	DW	036H
	DW	037H
	DW	030H
	DW	030H
	DW	036H
	DW	037H
	DW	031H
	DW	030H
	DW	036H
	DW	037H
	DW	032H
	DW	030H
	DW	036H
	DW	037H
	DW	033H
	DW	030H
	DW	036H
	DW	037H
	DW	034H
	DW	030H
	DW	036H
	DW	037H
	DW	035H
	DW	030H
	DW	036H
	DW	037H
	DW	036H
	DW	030H
	DW	036H
	DW	037H
	DW	037H
	DW	030H
	DW	036H
	DW	037H
	DW	038H
	DW	030H
	DW	036H
	DW	037H
	DW	039H
	DW	030H
	DW	036H
	DW	038H
	DW	030H
	DW	030H
	DW	036H
	DW	038H
	DW	031H
	DW	030H
	DW	036H
	DW	038H
	DW	032H
	DW	030H
	DW	036H
	DW	038H
	DW	033H
	DW	030H
	DW	036H
	DW	038H
	DW	034H
	DW	030H
	DW	036H
	DW	038H
	DW	035H
	DW	030H
	DW	036H
	DW	038H
	DW	036H
	DW	030H
	DW	036H
	DW	038H
	DW	037H
	DW	030H
	DW	036H
	DW	038H
	DW	038H
	DW	030H
	DW	036H
	DW	038H
	DW	039H
	DW	030H
	DW	036H
	DW	039H
	DW	030H
	DW	030H
	DW	036H
	DW	039H
	DW	031H
	DW	030H
	DW	036H
	DW	039H
	DW	032H
	DW	030H
	DW	036H
	DW	039H
	DW	033H
	DW	030H
	DW	036H
	DW	039H
	DW	034H
	DW	030H
	DW	036H
	DW	039H
	DW	035H
	DW	030H
	DW	036H
	DW	039H
	DW	036H
	DW	030H
	DW	036H
	DW	039H
	DW	037H
	DW	030H
	DW	036H
	DW	039H
	DW	038H
	DW	030H
	DW	036H
	DW	039H
	DW	039H
	DW	030H
	DW	037H
	DW	030H
	DW	030H
	DW	030H
	DW	037H
	DW	030H
	DW	031H
	DW	030H
	DW	037H
	DW	030H
	DW	032H
	DW	030H
	DW	037H
	DW	030H
	DW	033H
	DW	030H
	DW	037H
	DW	030H
	DW	034H
	DW	030H
	DW	037H
	DW	030H
	DW	035H
	DW	030H
	DW	037H
	DW	030H
	DW	036H
	DW	030H
	DW	037H
	DW	030H
	DW	037H
	DW	030H
	DW	037H
	DW	030H
	DW	038H
	DW	030H
	DW	037H
	DW	030H
	DW	039H
	DW	030H
	DW	037H
	DW	031H
	DW	030H
	DW	030H
	DW	037H
	DW	031H
	DW	031H
	DW	030H
	DW	037H
	DW	031H
	DW	032H
	DW	030H
	DW	037H
	DW	031H
	DW	033H
	DW	030H
	DW	037H
	DW	031H
	DW	034H
	DW	030H
	DW	037H
	DW	031H
	DW	035H
	DW	030H
	DW	037H
	DW	031H
	DW	036H
	DW	030H
	DW	037H
	DW	031H
	DW	037H
	DW	030H
	DW	037H
	DW	031H
	DW	038H
	DW	030H
	DW	037H
	DW	031H
	DW	039H
	DW	030H
	DW	037H
	DW	032H
	DW	030H
	DW	030H
	DW	037H
	DW	032H
	DW	031H
	DW	030H
	DW	037H
	DW	032H
	DW	032H
	DW	030H
	DW	037H
	DW	032H
	DW	033H
	DW	030H
	DW	037H
	DW	032H
	DW	034H
	DW	030H
	DW	037H
	DW	032H
	DW	035H
	DW	030H
	DW	037H
	DW	032H
	DW	036H
	DW	030H
	DW	037H
	DW	032H
	DW	037H
	DW	030H
	DW	037H
	DW	032H
	DW	038H
	DW	030H
	DW	037H
	DW	032H
	DW	039H
	DW	030H
	DW	037H
	DW	033H
	DW	030H
	DW	030H
	DW	037H
	DW	033H
	DW	031H
	DW	030H
	DW	037H
	DW	033H
	DW	032H
	DW	030H
	DW	037H
	DW	033H
	DW	033H
	DW	030H
	DW	037H
	DW	033H
	DW	034H
	DW	030H
	DW	037H
	DW	033H
	DW	035H
	DW	030H
	DW	037H
	DW	033H
	DW	036H
	DW	030H
	DW	037H
	DW	033H
	DW	037H
	DW	030H
	DW	037H
	DW	033H
	DW	038H
	DW	030H
	DW	037H
	DW	033H
	DW	039H
	DW	030H
	DW	037H
	DW	034H
	DW	030H
	DW	030H
	DW	037H
	DW	034H
	DW	031H
	DW	030H
	DW	037H
	DW	034H
	DW	032H
	DW	030H
	DW	037H
	DW	034H
	DW	033H
	DW	030H
	DW	037H
	DW	034H
	DW	034H
	DW	030H
	DW	037H
	DW	034H
	DW	035H
	DW	030H
	DW	037H
	DW	034H
	DW	036H
	DW	030H
	DW	037H
	DW	034H
	DW	037H
	DW	030H
	DW	037H
	DW	034H
	DW	038H
	DW	030H
	DW	037H
	DW	034H
	DW	039H
	DW	030H
	DW	037H
	DW	035H
	DW	030H
	DW	030H
	DW	037H
	DW	035H
	DW	031H
	DW	030H
	DW	037H
	DW	035H
	DW	032H
	DW	030H
	DW	037H
	DW	035H
	DW	033H
	DW	030H
	DW	037H
	DW	035H
	DW	034H
	DW	030H
	DW	037H
	DW	035H
	DW	035H
	DW	030H
	DW	037H
	DW	035H
	DW	036H
	DW	030H
	DW	037H
	DW	035H
	DW	037H
	DW	030H
	DW	037H
	DW	035H
	DW	038H
	DW	030H
	DW	037H
	DW	035H
	DW	039H
	DW	030H
	DW	037H
	DW	036H
	DW	030H
	DW	030H
	DW	037H
	DW	036H
	DW	031H
	DW	030H
	DW	037H
	DW	036H
	DW	032H
	DW	030H
	DW	037H
	DW	036H
	DW	033H
	DW	030H
	DW	037H
	DW	036H
	DW	034H
	DW	030H
	DW	037H
	DW	036H
	DW	035H
	DW	030H
	DW	037H
	DW	036H
	DW	036H
	DW	030H
	DW	037H
	DW	036H
	DW	037H
	DW	030H
	DW	037H
	DW	036H
	DW	038H
	DW	030H
	DW	037H
	DW	036H
	DW	039H
	DW	030H
	DW	037H
	DW	037H
	DW	030H
	DW	030H
	DW	037H
	DW	037H
	DW	031H
	DW	030H
	DW	037H
	DW	037H
	DW	032H
	DW	030H
	DW	037H
	DW	037H
	DW	033H
	DW	030H
	DW	037H
	DW	037H
	DW	034H
	DW	030H
	DW	037H
	DW	037H
	DW	035H
	DW	030H
	DW	037H
	DW	037H
	DW	036H
	DW	030H
	DW	037H
	DW	037H
	DW	037H
	DW	030H
	DW	037H
	DW	037H
	DW	038H
	DW	030H
	DW	037H
	DW	037H
	DW	039H
	DW	030H
	DW	037H
	DW	038H
	DW	030H
	DW	030H
	DW	037H
	DW	038H
	DW	031H
	DW	030H
	DW	037H
	DW	038H
	DW	032H
	DW	030H
	DW	037H
	DW	038H
	DW	033H
	DW	030H
	DW	037H
	DW	038H
	DW	034H
	DW	030H
	DW	037H
	DW	038H
	DW	035H
	DW	030H
	DW	037H
	DW	038H
	DW	036H
	DW	030H
	DW	037H
	DW	038H
	DW	037H
	DW	030H
	DW	037H
	DW	038H
	DW	038H
	DW	030H
	DW	037H
	DW	038H
	DW	039H
	DW	030H
	DW	037H
	DW	039H
	DW	030H
	DW	030H
	DW	037H
	DW	039H
	DW	031H
	DW	030H
	DW	037H
	DW	039H
	DW	032H
	DW	030H
	DW	037H
	DW	039H
	DW	033H
	DW	030H
	DW	037H
	DW	039H
	DW	034H
	DW	030H
	DW	037H
	DW	039H
	DW	035H
	DW	030H
	DW	037H
	DW	039H
	DW	036H
	DW	030H
	DW	037H
	DW	039H
	DW	037H
	DW	030H
	DW	037H
	DW	039H
	DW	038H
	DW	030H
	DW	037H
	DW	039H
	DW	039H
	DW	030H
	DW	038H
	DW	030H
	DW	030H
	DW	030H
	DW	038H
	DW	030H
	DW	031H
	DW	030H
	DW	038H
	DW	030H
	DW	032H
	DW	030H
	DW	038H
	DW	030H
	DW	033H
	DW	030H
	DW	038H
	DW	030H
	DW	034H
	DW	030H
	DW	038H
	DW	030H
	DW	035H
	DW	030H
	DW	038H
	DW	030H
	DW	036H
	DW	030H
	DW	038H
	DW	030H
	DW	037H
	DW	030H
	DW	038H
	DW	030H
	DW	038H
	DW	030H
	DW	038H
	DW	030H
	DW	039H
	DW	030H
	DW	038H
	DW	031H
	DW	030H
	DW	030H
	DW	038H
	DW	031H
	DW	031H
	DW	030H
	DW	038H
	DW	031H
	DW	032H
	DW	030H
	DW	038H
	DW	031H
	DW	033H
	DW	030H
	DW	038H
	DW	031H
	DW	034H
	DW	030H
	DW	038H
	DW	031H
	DW	035H
	DW	030H
	DW	038H
	DW	031H
	DW	036H
	DW	030H
	DW	038H
	DW	031H
	DW	037H
	DW	030H
	DW	038H
	DW	031H
	DW	038H
	DW	030H
	DW	038H
	DW	031H
	DW	039H
	DW	030H
	DW	038H
	DW	032H
	DW	030H
	DW	030H
	DW	038H
	DW	032H
	DW	031H
	DW	030H
	DW	038H
	DW	032H
	DW	032H
	DW	030H
	DW	038H
	DW	032H
	DW	033H
	DW	030H
	DW	038H
	DW	032H
	DW	034H
	DW	030H
	DW	038H
	DW	032H
	DW	035H
	DW	030H
	DW	038H
	DW	032H
	DW	036H
	DW	030H
	DW	038H
	DW	032H
	DW	037H
	DW	030H
	DW	038H
	DW	032H
	DW	038H
	DW	030H
	DW	038H
	DW	032H
	DW	039H
	DW	030H
	DW	038H
	DW	033H
	DW	030H
	DW	030H
	DW	038H
	DW	033H
	DW	031H
	DW	030H
	DW	038H
	DW	033H
	DW	032H
	DW	030H
	DW	038H
	DW	033H
	DW	033H
	DW	030H
	DW	038H
	DW	033H
	DW	034H
	DW	030H
	DW	038H
	DW	033H
	DW	035H
	DW	030H
	DW	038H
	DW	033H
	DW	036H
	DW	030H
	DW	038H
	DW	033H
	DW	037H
	DW	030H
	DW	038H
	DW	033H
	DW	038H
	DW	030H
	DW	038H
	DW	033H
	DW	039H
	DW	030H
	DW	038H
	DW	034H
	DW	030H
	DW	030H
	DW	038H
	DW	034H
	DW	031H
	DW	030H
	DW	038H
	DW	034H
	DW	032H
	DW	030H
	DW	038H
	DW	034H
	DW	033H
	DW	030H
	DW	038H
	DW	034H
	DW	034H
	DW	030H
	DW	038H
	DW	034H
	DW	035H
	DW	030H
	DW	038H
	DW	034H
	DW	036H
	DW	030H
	DW	038H
	DW	034H
	DW	037H
	DW	030H
	DW	038H
	DW	034H
	DW	038H
	DW	030H
	DW	038H
	DW	034H
	DW	039H
	DW	030H
	DW	038H
	DW	035H
	DW	030H
	DW	030H
	DW	038H
	DW	035H
	DW	031H
	DW	030H
	DW	038H
	DW	035H
	DW	032H
	DW	030H
	DW	038H
	DW	035H
	DW	033H
	DW	030H
	DW	038H
	DW	035H
	DW	034H
	DW	030H
	DW	038H
	DW	035H
	DW	035H
	DW	030H
	DW	038H
	DW	035H
	DW	036H
	DW	030H
	DW	038H
	DW	035H
	DW	037H
	DW	030H
	DW	038H
	DW	035H
	DW	038H
	DW	030H
	DW	038H
	DW	035H
	DW	039H
	DW	030H
	DW	038H
	DW	036H
	DW	030H
	DW	030H
	DW	038H
	DW	036H
	DW	031H
	DW	030H
	DW	038H
	DW	036H
	DW	032H
	DW	030H
	DW	038H
	DW	036H
	DW	033H
	DW	030H
	DW	038H
	DW	036H
	DW	034H
	DW	030H
	DW	038H
	DW	036H
	DW	035H
	DW	030H
	DW	038H
	DW	036H
	DW	036H
	DW	030H
	DW	038H
	DW	036H
	DW	037H
	DW	030H
	DW	038H
	DW	036H
	DW	038H
	DW	030H
	DW	038H
	DW	036H
	DW	039H
	DW	030H
	DW	038H
	DW	037H
	DW	030H
	DW	030H
	DW	038H
	DW	037H
	DW	031H
	DW	030H
	DW	038H
	DW	037H
	DW	032H
	DW	030H
	DW	038H
	DW	037H
	DW	033H
	DW	030H
	DW	038H
	DW	037H
	DW	034H
	DW	030H
	DW	038H
	DW	037H
	DW	035H
	DW	030H
	DW	038H
	DW	037H
	DW	036H
	DW	030H
	DW	038H
	DW	037H
	DW	037H
	DW	030H
	DW	038H
	DW	037H
	DW	038H
	DW	030H
	DW	038H
	DW	037H
	DW	039H
	DW	030H
	DW	038H
	DW	038H
	DW	030H
	DW	030H
	DW	038H
	DW	038H
	DW	031H
	DW	030H
	DW	038H
	DW	038H
	DW	032H
	DW	030H
	DW	038H
	DW	038H
	DW	033H
	DW	030H
	DW	038H
	DW	038H
	DW	034H
	DW	030H
	DW	038H
	DW	038H
	DW	035H
	DW	030H
	DW	038H
	DW	038H
	DW	036H
	DW	030H
	DW	038H
	DW	038H
	DW	037H
	DW	030H
	DW	038H
	DW	038H
	DW	038H
	DW	030H
	DW	038H
	DW	038H
	DW	039H
	DW	030H
	DW	038H
	DW	039H
	DW	030H
	DW	030H
	DW	038H
	DW	039H
	DW	031H
	DW	030H
	DW	038H
	DW	039H
	DW	032H
	DW	030H
	DW	038H
	DW	039H
	DW	033H
	DW	030H
	DW	038H
	DW	039H
	DW	034H
	DW	030H
	DW	038H
	DW	039H
	DW	035H
	DW	030H
	DW	038H
	DW	039H
	DW	036H
	DW	030H
	DW	038H
	DW	039H
	DW	037H
	DW	030H
	DW	038H
	DW	039H
	DW	038H
	DW	030H
	DW	038H
	DW	039H
	DW	039H
	DW	030H
	DW	039H
	DW	030H
	DW	030H
	DW	030H
	DW	039H
	DW	030H
	DW	031H
	DW	030H
	DW	039H
	DW	030H
	DW	032H
	DW	030H
	DW	039H
	DW	030H
	DW	033H
	DW	030H
	DW	039H
	DW	030H
	DW	034H
	DW	030H
	DW	039H
	DW	030H
	DW	035H
	DW	030H
	DW	039H
	DW	030H
	DW	036H
	DW	030H
	DW	039H
	DW	030H
	DW	037H
	DW	030H
	DW	039H
	DW	030H
	DW	038H
	DW	030H
	DW	039H
	DW	030H
	DW	039H
	DW	030H
	DW	039H
	DW	031H
	DW	030H
	DW	030H
	DW	039H
	DW	031H
	DW	031H
	DW	030H
	DW	039H
	DW	031H
	DW	032H
	DW	030H
	DW	039H
	DW	031H
	DW	033H
	DW	030H
	DW	039H
	DW	031H
	DW	034H
	DW	030H
	DW	039H
	DW	031H
	DW	035H
	DW	030H
	DW	039H
	DW	031H
	DW	036H
	DW	030H
	DW	039H
	DW	031H
	DW	037H
	DW	030H
	DW	039H
	DW	031H
	DW	038H
	DW	030H
	DW	039H
	DW	031H
	DW	039H
	DW	030H
	DW	039H
	DW	032H
	DW	030H
	DW	030H
	DW	039H
	DW	032H
	DW	031H
	DW	030H
	DW	039H
	DW	032H
	DW	032H
	DW	030H
	DW	039H
	DW	032H
	DW	033H
	DW	030H
	DW	039H
	DW	032H
	DW	034H
	DW	030H
	DW	039H
	DW	032H
	DW	035H
	DW	030H
	DW	039H
	DW	032H
	DW	036H
	DW	030H
	DW	039H
	DW	032H
	DW	037H
	DW	030H
	DW	039H
	DW	032H
	DW	038H
	DW	030H
	DW	039H
	DW	032H
	DW	039H
	DW	030H
	DW	039H
	DW	033H
	DW	030H
	DW	030H
	DW	039H
	DW	033H
	DW	031H
	DW	030H
	DW	039H
	DW	033H
	DW	032H
	DW	030H
	DW	039H
	DW	033H
	DW	033H
	DW	030H
	DW	039H
	DW	033H
	DW	034H
	DW	030H
	DW	039H
	DW	033H
	DW	035H
	DW	030H
	DW	039H
	DW	033H
	DW	036H
	DW	030H
	DW	039H
	DW	033H
	DW	037H
	DW	030H
	DW	039H
	DW	033H
	DW	038H
	DW	030H
	DW	039H
	DW	033H
	DW	039H
	DW	030H
	DW	039H
	DW	034H
	DW	030H
	DW	030H
	DW	039H
	DW	034H
	DW	031H
	DW	030H
	DW	039H
	DW	034H
	DW	032H
	DW	030H
	DW	039H
	DW	034H
	DW	033H
	DW	030H
	DW	039H
	DW	034H
	DW	034H
	DW	030H
	DW	039H
	DW	034H
	DW	035H
	DW	030H
	DW	039H
	DW	034H
	DW	036H
	DW	030H
	DW	039H
	DW	034H
	DW	037H
	DW	030H
	DW	039H
	DW	034H
	DW	038H
	DW	030H
	DW	039H
	DW	034H
	DW	039H
	DW	030H
	DW	039H
	DW	035H
	DW	030H
	DW	030H
	DW	039H
	DW	035H
	DW	031H
	DW	030H
	DW	039H
	DW	035H
	DW	032H
	DW	030H
	DW	039H
	DW	035H
	DW	033H
	DW	030H
	DW	039H
	DW	035H
	DW	034H
	DW	030H
	DW	039H
	DW	035H
	DW	035H
	DW	030H
	DW	039H
	DW	035H
	DW	036H
	DW	030H
	DW	039H
	DW	035H
	DW	037H
	DW	030H
	DW	039H
	DW	035H
	DW	038H
	DW	030H
	DW	039H
	DW	035H
	DW	039H
	DW	030H
	DW	039H
	DW	036H
	DW	030H
	DW	030H
	DW	039H
	DW	036H
	DW	031H
	DW	030H
	DW	039H
	DW	036H
	DW	032H
	DW	030H
	DW	039H
	DW	036H
	DW	033H
	DW	030H
	DW	039H
	DW	036H
	DW	034H
	DW	030H
	DW	039H
	DW	036H
	DW	035H
	DW	030H
	DW	039H
	DW	036H
	DW	036H
	DW	030H
	DW	039H
	DW	036H
	DW	037H
	DW	030H
	DW	039H
	DW	036H
	DW	038H
	DW	030H
	DW	039H
	DW	036H
	DW	039H
	DW	030H
	DW	039H
	DW	037H
	DW	030H
	DW	030H
	DW	039H
	DW	037H
	DW	031H
	DW	030H
	DW	039H
	DW	037H
	DW	032H
	DW	030H
	DW	039H
	DW	037H
	DW	033H
	DW	030H
	DW	039H
	DW	037H
	DW	034H
	DW	030H
	DW	039H
	DW	037H
	DW	035H
	DW	030H
	DW	039H
	DW	037H
	DW	036H
	DW	030H
	DW	039H
	DW	037H
	DW	037H
	DW	030H
	DW	039H
	DW	037H
	DW	038H
	DW	030H
	DW	039H
	DW	037H
	DW	039H
	DW	030H
	DW	039H
	DW	038H
	DW	030H
	DW	030H
	DW	039H
	DW	038H
	DW	031H
	DW	030H
	DW	039H
	DW	038H
	DW	032H
	DW	030H
	DW	039H
	DW	038H
	DW	033H
	DW	030H
	DW	039H
	DW	038H
	DW	034H
	DW	030H
	DW	039H
	DW	038H
	DW	035H
	DW	030H
	DW	039H
	DW	038H
	DW	036H
	DW	030H
	DW	039H
	DW	038H
	DW	037H
	DW	030H
	DW	039H
	DW	038H
	DW	038H
	DW	030H
	DW	039H
	DW	038H
	DW	039H
	DW	030H
	DW	039H
	DW	039H
	DW	030H
	DW	030H
	DW	039H
	DW	039H
	DW	031H
	DW	030H
	DW	039H
	DW	039H
	DW	032H
	DW	030H
	DW	039H
	DW	039H
	DW	033H
	DW	030H
	DW	039H
	DW	039H
	DW	034H
	DW	030H
	DW	039H
	DW	039H
	DW	035H
	DW	030H
	DW	039H
	DW	039H
	DW	036H
	DW	030H
	DW	039H
	DW	039H
	DW	037H
	DW	030H
	DW	039H
	DW	039H
	DW	038H
	DW	030H
	DW	039H
	DW	039H
	DW	039H
	DW	031H
	DW	030H
	DW	030H
	DW	030H
	DW	031H
	DW	030H
	DW	030H
	DW	031H
	DW	031H
	DW	030H
	DW	030H
	DW	032H
	DW	031H
	DW	030H
	DW	030H
	DW	033H
	DW	031H
	DW	030H
	DW	030H
	DW	034H
	DW	031H
	DW	030H
	DW	030H
	DW	035H
	DW	031H
	DW	030H
	DW	030H
	DW	036H
	DW	031H
	DW	030H
	DW	030H
	DW	037H
	DW	031H
	DW	030H
	DW	030H
	DW	038H
	DW	031H
	DW	030H
	DW	030H
	DW	039H
	DW	031H
	DW	030H
	DW	031H
	DW	030H
	DW	031H
	DW	030H
	DW	031H
	DW	031H
	DW	031H
	DW	030H
	DW	031H
	DW	032H
	DW	031H
	DW	030H
	DW	031H
	DW	033H
	DW	031H
	DW	030H
	DW	031H
	DW	034H
	DW	031H
	DW	030H
	DW	031H
	DW	035H
	DW	031H
	DW	030H
	DW	031H
	DW	036H
	DW	031H
	DW	030H
	DW	031H
	DW	037H
	DW	031H
	DW	030H
	DW	031H
	DW	038H
	DW	031H
	DW	030H
	DW	031H
	DW	039H
	DW	031H
	DW	030H
	DW	032H
	DW	030H
	DW	031H
	DW	030H
	DW	032H
	DW	031H
	DW	031H
	DW	030H
	DW	032H
	DW	032H
	DW	031H
	DW	030H
	DW	032H
	DW	033H
	DW	031H
	DW	030H
	DW	032H
	DW	034H
	DW	031H
	DW	030H
	DW	032H
	DW	035H
	DW	031H
	DW	030H
	DW	032H
	DW	036H
	DW	031H
	DW	030H
	DW	032H
	DW	037H
	DW	031H
	DW	030H
	DW	032H
	DW	038H
	DW	031H
	DW	030H
	DW	032H
	DW	039H
	DW	031H
	DW	030H
	DW	033H
	DW	030H
	DW	031H
	DW	030H
	DW	033H
	DW	031H
	DW	031H
	DW	030H
	DW	033H
	DW	032H
	DW	031H
	DW	030H
	DW	033H
	DW	033H
	DW	031H
	DW	030H
	DW	033H
	DW	034H
	DW	031H
	DW	030H
	DW	033H
	DW	035H
	DW	031H
	DW	030H
	DW	033H
	DW	036H
	DW	031H
	DW	030H
	DW	033H
	DW	037H
	DW	031H
	DW	030H
	DW	033H
	DW	038H
	DW	031H
	DW	030H
	DW	033H
	DW	039H
	DW	031H
	DW	030H
	DW	034H
	DW	030H
	DW	031H
	DW	030H
	DW	034H
	DW	031H
	DW	031H
	DW	030H
	DW	034H
	DW	032H
	DW	031H
	DW	030H
	DW	034H
	DW	033H
	DW	031H
	DW	030H
	DW	034H
	DW	034H
	DW	031H
	DW	030H
	DW	034H
	DW	035H
	DW	031H
	DW	030H
	DW	034H
	DW	036H
	DW	031H
	DW	030H
	DW	034H
	DW	037H
	DW	031H
	DW	030H
	DW	034H
	DW	038H
	DW	031H
	DW	030H
	DW	034H
	DW	039H
	DW	031H
	DW	030H
	DW	035H
	DW	030H
	DW	031H
	DW	030H
	DW	035H
	DW	031H
	DW	031H
	DW	030H
	DW	035H
	DW	032H
	DW	031H
	DW	030H
	DW	035H
	DW	033H
	DW	031H
	DW	030H
	DW	035H
	DW	034H
	DW	031H
	DW	030H
	DW	035H
	DW	035H
	DW	031H
	DW	030H
	DW	035H
	DW	036H
	DW	031H
	DW	030H
	DW	035H
	DW	037H
	DW	031H
	DW	030H
	DW	035H
	DW	038H
	DW	031H
	DW	030H
	DW	035H
	DW	039H
	DW	031H
	DW	030H
	DW	036H
	DW	030H
	DW	031H
	DW	030H
	DW	036H
	DW	031H
	DW	031H
	DW	030H
	DW	036H
	DW	032H
	DW	031H
	DW	030H
	DW	036H
	DW	033H
	DW	031H
	DW	030H
	DW	036H
	DW	034H
	DW	031H
	DW	030H
	DW	036H
	DW	035H
	DW	031H
	DW	030H
	DW	036H
	DW	036H
	DW	031H
	DW	030H
	DW	036H
	DW	037H
	DW	031H
	DW	030H
	DW	036H
	DW	038H
	DW	031H
	DW	030H
	DW	036H
	DW	039H
	DW	031H
	DW	030H
	DW	037H
	DW	030H
	DW	031H
	DW	030H
	DW	037H
	DW	031H
	DW	031H
	DW	030H
	DW	037H
	DW	032H
	DW	031H
	DW	030H
	DW	037H
	DW	033H
	DW	031H
	DW	030H
	DW	037H
	DW	034H
	DW	031H
	DW	030H
	DW	037H
	DW	035H
	DW	031H
	DW	030H
	DW	037H
	DW	036H
	DW	031H
	DW	030H
	DW	037H
	DW	037H
	DW	031H
	DW	030H
	DW	037H
	DW	038H
	DW	031H
	DW	030H
	DW	037H
	DW	039H
	DW	031H
	DW	030H
	DW	038H
	DW	030H
	DW	031H
	DW	030H
	DW	038H
	DW	031H
	DW	031H
	DW	030H
	DW	038H
	DW	032H
	DW	031H
	DW	030H
	DW	038H
	DW	033H
	DW	031H
	DW	030H
	DW	038H
	DW	034H
	DW	031H
	DW	030H
	DW	038H
	DW	035H
	DW	031H
	DW	030H
	DW	038H
	DW	036H
	DW	031H
	DW	030H
	DW	038H
	DW	037H
	DW	031H
	DW	030H
	DW	038H
	DW	038H
	DW	031H
	DW	030H
	DW	038H
	DW	039H
	DW	031H
	DW	030H
	DW	039H
	DW	030H
	DW	031H
	DW	030H
	DW	039H
	DW	031H
	DW	031H
	DW	030H
	DW	039H
	DW	032H
	DW	031H
	DW	030H
	DW	039H
	DW	033H
	DW	031H
	DW	030H
	DW	039H
	DW	034H
	DW	031H
	DW	030H
	DW	039H
	DW	035H
	DW	031H
	DW	030H
	DW	039H
	DW	036H
	DW	031H
	DW	030H
	DW	039H
	DW	037H
	DW	031H
	DW	030H
	DW	039H
	DW	038H
	DW	031H
	DW	030H
	DW	039H
	DW	039H
	DW	031H
	DW	031H
	DW	030H
	DW	030H
	DW	031H
	DW	031H
	DW	030H
	DW	031H
	DW	031H
	DW	031H
	DW	030H
	DW	032H
	DW	031H
	DW	031H
	DW	030H
	DW	033H
	DW	031H
	DW	031H
	DW	030H
	DW	034H
	DW	031H
	DW	031H
	DW	030H
	DW	035H
	DW	031H
	DW	031H
	DW	030H
	DW	036H
	DW	031H
	DW	031H
	DW	030H
	DW	037H
	DW	031H
	DW	031H
	DW	030H
	DW	038H
	DW	031H
	DW	031H
	DW	030H
	DW	039H
	DW	031H
	DW	031H
	DW	031H
	DW	030H
	DW	031H
	DW	031H
	DW	031H
	DW	031H
	DW	031H
	DW	031H
	DW	031H
	DW	032H
	DW	031H
	DW	031H
	DW	031H
	DW	033H
	DW	031H
	DW	031H
	DW	031H
	DW	034H
	DW	031H
	DW	031H
	DW	031H
	DW	035H
	DW	031H
	DW	031H
	DW	031H
	DW	036H
	DW	031H
	DW	031H
	DW	031H
	DW	037H
	DW	031H
	DW	031H
	DW	031H
	DW	038H
	DW	031H
	DW	031H
	DW	031H
	DW	039H
	DW	031H
	DW	031H
	DW	032H
	DW	030H
	DW	031H
	DW	031H
	DW	032H
	DW	031H
	DW	031H
	DW	031H
	DW	032H
	DW	032H
	DW	031H
	DW	031H
	DW	032H
	DW	033H
	DW	031H
	DW	031H
	DW	032H
	DW	034H
	DW	031H
	DW	031H
	DW	032H
	DW	035H
	DW	031H
	DW	031H
	DW	032H
	DW	036H
	DW	031H
	DW	031H
	DW	032H
	DW	037H
	DW	031H
	DW	031H
	DW	032H
	DW	038H
	DW	031H
	DW	031H
	DW	032H
	DW	039H
	DW	031H
	DW	031H
	DW	033H
	DW	030H
	DW	031H
	DW	031H
	DW	033H
	DW	031H
	DW	031H
	DW	031H
	DW	033H
	DW	032H
	DW	031H
	DW	031H
	DW	033H
	DW	033H
	DW	031H
	DW	031H
	DW	033H
	DW	034H
	DW	031H
	DW	031H
	DW	033H
	DW	035H
	DW	031H
	DW	031H
	DW	033H
	DW	036H
	DW	031H
	DW	031H
	DW	033H
	DW	037H
	DW	031H
	DW	031H
	DW	033H
	DW	038H
	DW	031H
	DW	031H
	DW	033H
	DW	039H
	DW	031H
	DW	031H
	DW	034H
	DW	030H
	DW	031H
	DW	031H
	DW	034H
	DW	031H
	DW	031H
	DW	031H
	DW	034H
	DW	032H
	DW	031H
	DW	031H
	DW	034H
	DW	033H
	DW	031H
	DW	031H
	DW	034H
	DW	034H
	DW	031H
	DW	031H
	DW	034H
	DW	035H
	DW	031H
	DW	031H
	DW	034H
	DW	036H
	DW	031H
	DW	031H
	DW	034H
	DW	037H
	DW	031H
	DW	031H
	DW	034H
	DW	038H
	DW	031H
	DW	031H
	DW	034H
	DW	039H
	DW	031H
	DW	031H
	DW	035H
	DW	030H
	DW	031H
	DW	031H
	DW	035H
	DW	031H
	DW	031H
	DW	031H
	DW	035H
	DW	032H
	DW	031H
	DW	031H
	DW	035H
	DW	033H
	DW	031H
	DW	031H
	DW	035H
	DW	034H
	DW	031H
	DW	031H
	DW	035H
	DW	035H
	DW	031H
	DW	031H
	DW	035H
	DW	036H
	DW	031H
	DW	031H
	DW	035H
	DW	037H
	DW	031H
	DW	031H
	DW	035H
	DW	038H
	DW	031H
	DW	031H
	DW	035H
	DW	039H
	DW	031H
	DW	031H
	DW	036H
	DW	030H
	DW	031H
	DW	031H
	DW	036H
	DW	031H
	DW	031H
	DW	031H
	DW	036H
	DW	032H
	DW	031H
	DW	031H
	DW	036H
	DW	033H
	DW	031H
	DW	031H
	DW	036H
	DW	034H
	DW	031H
	DW	031H
	DW	036H
	DW	035H
	DW	031H
	DW	031H
	DW	036H
	DW	036H
	DW	031H
	DW	031H
	DW	036H
	DW	037H
	DW	031H
	DW	031H
	DW	036H
	DW	038H
	DW	031H
	DW	031H
	DW	036H
	DW	039H
	DW	031H
	DW	031H
	DW	037H
	DW	030H
	DW	031H
	DW	031H
	DW	037H
	DW	031H
	DW	031H
	DW	031H
	DW	037H
	DW	032H
	DW	031H
	DW	031H
	DW	037H
	DW	033H
	DW	031H
	DW	031H
	DW	037H
	DW	034H
	DW	031H
	DW	031H
	DW	037H
	DW	035H
	DW	031H
	DW	031H
	DW	037H
	DW	036H
	DW	031H
	DW	031H
	DW	037H
	DW	037H
	DW	031H
	DW	031H
	DW	037H
	DW	038H
	DW	031H
	DW	031H
	DW	037H
	DW	039H
	DW	031H
	DW	031H
	DW	038H
	DW	030H
	DW	031H
	DW	031H
	DW	038H
	DW	031H
	DW	031H
	DW	031H
	DW	038H
	DW	032H
	DW	031H
	DW	031H
	DW	038H
	DW	033H
	DW	031H
	DW	031H
	DW	038H
	DW	034H
	DW	031H
	DW	031H
	DW	038H
	DW	035H
	DW	031H
	DW	031H
	DW	038H
	DW	036H
	DW	031H
	DW	031H
	DW	038H
	DW	037H
	DW	031H
	DW	031H
	DW	038H
	DW	038H
	DW	031H
	DW	031H
	DW	038H
	DW	039H
	DW	031H
	DW	031H
	DW	039H
	DW	030H
	DW	031H
	DW	031H
	DW	039H
	DW	031H
	DW	031H
	DW	031H
	DW	039H
	DW	032H
	DW	031H
	DW	031H
	DW	039H
	DW	033H
	DW	031H
	DW	031H
	DW	039H
	DW	034H
	DW	031H
	DW	031H
	DW	039H
	DW	035H
	DW	031H
	DW	031H
	DW	039H
	DW	036H
	DW	031H
	DW	031H
	DW	039H
	DW	037H
	DW	031H
	DW	031H
	DW	039H
	DW	038H
	DW	031H
	DW	031H
	DW	039H
	DW	039H
	DW	031H
	DW	032H
	DW	030H
	DW	030H
	DW	031H
	DW	032H
	DW	030H
	DW	031H
	DW	031H
	DW	032H
	DW	030H
	DW	032H
	DW	031H
	DW	032H
	DW	030H
	DW	033H
	DW	031H
	DW	032H
	DW	030H
	DW	034H
	DW	031H
	DW	032H
	DW	030H
	DW	035H
	DW	031H
	DW	032H
	DW	030H
	DW	036H
	DW	031H
	DW	032H
	DW	030H
	DW	037H
	DW	031H
	DW	032H
	DW	030H
	DW	038H
	DW	031H
	DW	032H
	DW	030H
	DW	039H
	DW	031H
	DW	032H
	DW	031H
	DW	030H
	DW	031H
	DW	032H
	DW	031H
	DW	031H
	DW	031H
	DW	032H
	DW	031H
	DW	032H
	DW	031H
	DW	032H
	DW	031H
	DW	033H
	DW	031H
	DW	032H
	DW	031H
	DW	034H
	DW	031H
	DW	032H
	DW	031H
	DW	035H
	DW	031H
	DW	032H
	DW	031H
	DW	036H
	DW	031H
	DW	032H
	DW	031H
	DW	037H
	DW	031H
	DW	032H
	DW	031H
	DW	038H
	DW	031H
	DW	032H
	DW	031H
	DW	039H
	DW	031H
	DW	032H
	DW	032H
	DW	030H
	DW	031H
	DW	032H
	DW	032H
	DW	031H
	DW	031H
	DW	032H
	DW	032H
	DW	032H
	DW	031H
	DW	032H
	DW	032H
	DW	033H
	DW	031H
	DW	032H
	DW	032H
	DW	034H
	DW	031H
	DW	032H
	DW	032H
	DW	035H
	DW	031H
	DW	032H
	DW	032H
	DW	036H
	DW	031H
	DW	032H
	DW	032H
	DW	037H
	DW	031H
	DW	032H
	DW	032H
	DW	038H
	DW	031H
	DW	032H
	DW	032H
	DW	039H
	DW	031H
	DW	032H
	DW	033H
	DW	030H
	DW	031H
	DW	032H
	DW	033H
	DW	031H
	DW	031H
	DW	032H
	DW	033H
	DW	032H
	DW	031H
	DW	032H
	DW	033H
	DW	033H
	DW	031H
	DW	032H
	DW	033H
	DW	034H
	DW	031H
	DW	032H
	DW	033H
	DW	035H
	DW	031H
	DW	032H
	DW	033H
	DW	036H
	DW	031H
	DW	032H
	DW	033H
	DW	037H
	DW	031H
	DW	032H
	DW	033H
	DW	038H
	DW	031H
	DW	032H
	DW	033H
	DW	039H
	DW	031H
	DW	032H
	DW	034H
	DW	030H
	DW	031H
	DW	032H
	DW	034H
	DW	031H
	DW	031H
	DW	032H
	DW	034H
	DW	032H
	DW	031H
	DW	032H
	DW	034H
	DW	033H
	DW	031H
	DW	032H
	DW	034H
	DW	034H
	DW	031H
	DW	032H
	DW	034H
	DW	035H
	DW	031H
	DW	032H
	DW	034H
	DW	036H
	DW	031H
	DW	032H
	DW	034H
	DW	037H
	DW	031H
	DW	032H
	DW	034H
	DW	038H
	DW	031H
	DW	032H
	DW	034H
	DW	039H
	DW	031H
	DW	032H
	DW	035H
	DW	030H
	DW	031H
	DW	032H
	DW	035H
	DW	031H
	DW	031H
	DW	032H
	DW	035H
	DW	032H
	DW	031H
	DW	032H
	DW	035H
	DW	033H
	DW	031H
	DW	032H
	DW	035H
	DW	034H
	DW	031H
	DW	032H
	DW	035H
	DW	035H
	DW	031H
	DW	032H
	DW	035H
	DW	036H
	DW	031H
	DW	032H
	DW	035H
	DW	037H
	DW	031H
	DW	032H
	DW	035H
	DW	038H
	DW	031H
	DW	032H
	DW	035H
	DW	039H
	DW	031H
	DW	032H
	DW	036H
	DW	030H
	DW	031H
	DW	032H
	DW	036H
	DW	031H
	DW	031H
	DW	032H
	DW	036H
	DW	032H
	DW	031H
	DW	032H
	DW	036H
	DW	033H
	DW	031H
	DW	032H
	DW	036H
	DW	034H
	DW	031H
	DW	032H
	DW	036H
	DW	035H
	DW	031H
	DW	032H
	DW	036H
	DW	036H
	DW	031H
	DW	032H
	DW	036H
	DW	037H
	DW	031H
	DW	032H
	DW	036H
	DW	038H
	DW	031H
	DW	032H
	DW	036H
	DW	039H
	DW	031H
	DW	032H
	DW	037H
	DW	030H
	DW	031H
	DW	032H
	DW	037H
	DW	031H
	DW	031H
	DW	032H
	DW	037H
	DW	032H
	DW	031H
	DW	032H
	DW	037H
	DW	033H
	DW	031H
	DW	032H
	DW	037H
	DW	034H
	DW	031H
	DW	032H
	DW	037H
	DW	035H
	DW	031H
	DW	032H
	DW	037H
	DW	036H
	DW	031H
	DW	032H
	DW	037H
	DW	037H
	DW	031H
	DW	032H
	DW	037H
	DW	038H
	DW	031H
	DW	032H
	DW	037H
	DW	039H
	DW	031H
	DW	032H
	DW	038H
	DW	030H
	DW	031H
	DW	032H
	DW	038H
	DW	031H
	DW	031H
	DW	032H
	DW	038H
	DW	032H
	DW	031H
	DW	032H
	DW	038H
	DW	033H
	DW	031H
	DW	032H
	DW	038H
	DW	034H
	DW	031H
	DW	032H
	DW	038H
	DW	035H
	DW	031H
	DW	032H
	DW	038H
	DW	036H
	DW	031H
	DW	032H
	DW	038H
	DW	037H
	DW	031H
	DW	032H
	DW	038H
	DW	038H
	DW	031H
	DW	032H
	DW	038H
	DW	039H
	DW	031H
	DW	032H
	DW	039H
	DW	030H
	DW	031H
	DW	032H
	DW	039H
	DW	031H
	DW	031H
	DW	032H
	DW	039H
	DW	032H
	DW	031H
	DW	032H
	DW	039H
	DW	033H
	DW	031H
	DW	032H
	DW	039H
	DW	034H
	DW	031H
	DW	032H
	DW	039H
	DW	035H
	DW	031H
	DW	032H
	DW	039H
	DW	036H
	DW	031H
	DW	032H
	DW	039H
	DW	037H
	DW	031H
	DW	032H
	DW	039H
	DW	038H
	DW	031H
	DW	032H
	DW	039H
	DW	039H
	DW	031H
	DW	033H
	DW	030H
	DW	030H
	DW	031H
	DW	033H
	DW	030H
	DW	031H
	DW	031H
	DW	033H
	DW	030H
	DW	032H
	DW	031H
	DW	033H
	DW	030H
	DW	033H
	DW	031H
	DW	033H
	DW	030H
	DW	034H
	DW	031H
	DW	033H
	DW	030H
	DW	035H
	DW	031H
	DW	033H
	DW	030H
	DW	036H
	DW	031H
	DW	033H
	DW	030H
	DW	037H
	DW	031H
	DW	033H
	DW	030H
	DW	038H
	DW	031H
	DW	033H
	DW	030H
	DW	039H
	DW	031H
	DW	033H
	DW	031H
	DW	030H
	DW	031H
	DW	033H
	DW	031H
	DW	031H
	DW	031H
	DW	033H
	DW	031H
	DW	032H
	DW	031H
	DW	033H
	DW	031H
	DW	033H
	DW	031H
	DW	033H
	DW	031H
	DW	034H
	DW	031H
	DW	033H
	DW	031H
	DW	035H
	DW	031H
	DW	033H
	DW	031H
	DW	036H
	DW	031H
	DW	033H
	DW	031H
	DW	037H
	DW	031H
	DW	033H
	DW	031H
	DW	038H
	DW	031H
	DW	033H
	DW	031H
	DW	039H
	DW	031H
	DW	033H
	DW	032H
	DW	030H
	DW	031H
	DW	033H
	DW	032H
	DW	031H
	DW	031H
	DW	033H
	DW	032H
	DW	032H
	DW	031H
	DW	033H
	DW	032H
	DW	033H
	DW	031H
	DW	033H
	DW	032H
	DW	034H
	DW	031H
	DW	033H
	DW	032H
	DW	035H
	DW	031H
	DW	033H
	DW	032H
	DW	036H
	DW	031H
	DW	033H
	DW	032H
	DW	037H
	DW	031H
	DW	033H
	DW	032H
	DW	038H
	DW	031H
	DW	033H
	DW	032H
	DW	039H
	DW	031H
	DW	033H
	DW	033H
	DW	030H
	DW	031H
	DW	033H
	DW	033H
	DW	031H
	DW	031H
	DW	033H
	DW	033H
	DW	032H
	DW	031H
	DW	033H
	DW	033H
	DW	033H
	DW	031H
	DW	033H
	DW	033H
	DW	034H
	DW	031H
	DW	033H
	DW	033H
	DW	035H
	DW	031H
	DW	033H
	DW	033H
	DW	036H
	DW	031H
	DW	033H
	DW	033H
	DW	037H
	DW	031H
	DW	033H
	DW	033H
	DW	038H
	DW	031H
	DW	033H
	DW	033H
	DW	039H
	DW	031H
	DW	033H
	DW	034H
	DW	030H
	DW	031H
	DW	033H
	DW	034H
	DW	031H
	DW	031H
	DW	033H
	DW	034H
	DW	032H
	DW	031H
	DW	033H
	DW	034H
	DW	033H
	DW	031H
	DW	033H
	DW	034H
	DW	034H
	DW	031H
	DW	033H
	DW	034H
	DW	035H
	DW	031H
	DW	033H
	DW	034H
	DW	036H
	DW	031H
	DW	033H
	DW	034H
	DW	037H
	DW	031H
	DW	033H
	DW	034H
	DW	038H
	DW	031H
	DW	033H
	DW	034H
	DW	039H
	DW	031H
	DW	033H
	DW	035H
	DW	030H
	DW	031H
	DW	033H
	DW	035H
	DW	031H
	DW	031H
	DW	033H
	DW	035H
	DW	032H
	DW	031H
	DW	033H
	DW	035H
	DW	033H
	DW	031H
	DW	033H
	DW	035H
	DW	034H
	DW	031H
	DW	033H
	DW	035H
	DW	035H
	DW	031H
	DW	033H
	DW	035H
	DW	036H
	DW	031H
	DW	033H
	DW	035H
	DW	037H
	DW	031H
	DW	033H
	DW	035H
	DW	038H
	DW	031H
	DW	033H
	DW	035H
	DW	039H
	DW	031H
	DW	033H
	DW	036H
	DW	030H
	DW	031H
	DW	033H
	DW	036H
	DW	031H
	DW	031H
	DW	033H
	DW	036H
	DW	032H
	DW	031H
	DW	033H
	DW	036H
	DW	033H
	DW	031H
	DW	033H
	DW	036H
	DW	034H
	DW	031H
	DW	033H
	DW	036H
	DW	035H
	DW	031H
	DW	033H
	DW	036H
	DW	036H
	DW	031H
	DW	033H
	DW	036H
	DW	037H
	DW	031H
	DW	033H
	DW	036H
	DW	038H
	DW	031H
	DW	033H
	DW	036H
	DW	039H
	DW	031H
	DW	033H
	DW	037H
	DW	030H
	DW	031H
	DW	033H
	DW	037H
	DW	031H
	DW	031H
	DW	033H
	DW	037H
	DW	032H
	DW	031H
	DW	033H
	DW	037H
	DW	033H
	DW	031H
	DW	033H
	DW	037H
	DW	034H
	DW	031H
	DW	033H
	DW	037H
	DW	035H
	DW	031H
	DW	033H
	DW	037H
	DW	036H
	DW	031H
	DW	033H
	DW	037H
	DW	037H
	DW	031H
	DW	033H
	DW	037H
	DW	038H
	DW	031H
	DW	033H
	DW	037H
	DW	039H
	DW	031H
	DW	033H
	DW	038H
	DW	030H
	DW	031H
	DW	033H
	DW	038H
	DW	031H
	DW	031H
	DW	033H
	DW	038H
	DW	032H
	DW	031H
	DW	033H
	DW	038H
	DW	033H
	DW	031H
	DW	033H
	DW	038H
	DW	034H
	DW	031H
	DW	033H
	DW	038H
	DW	035H
	DW	031H
	DW	033H
	DW	038H
	DW	036H
	DW	031H
	DW	033H
	DW	038H
	DW	037H
	DW	031H
	DW	033H
	DW	038H
	DW	038H
	DW	031H
	DW	033H
	DW	038H
	DW	039H
	DW	031H
	DW	033H
	DW	039H
	DW	030H
	DW	031H
	DW	033H
	DW	039H
	DW	031H
	DW	031H
	DW	033H
	DW	039H
	DW	032H
	DW	031H
	DW	033H
	DW	039H
	DW	033H
	DW	031H
	DW	033H
	DW	039H
	DW	034H
	DW	031H
	DW	033H
	DW	039H
	DW	035H
	DW	031H
	DW	033H
	DW	039H
	DW	036H
	DW	031H
	DW	033H
	DW	039H
	DW	037H
	DW	031H
	DW	033H
	DW	039H
	DW	038H
	DW	031H
	DW	033H
	DW	039H
	DW	039H
	DW	031H
	DW	034H
	DW	030H
	DW	030H
	DW	031H
	DW	034H
	DW	030H
	DW	031H
	DW	031H
	DW	034H
	DW	030H
	DW	032H
	DW	031H
	DW	034H
	DW	030H
	DW	033H
	DW	031H
	DW	034H
	DW	030H
	DW	034H
	DW	031H
	DW	034H
	DW	030H
	DW	035H
	DW	031H
	DW	034H
	DW	030H
	DW	036H
	DW	031H
	DW	034H
	DW	030H
	DW	037H
	DW	031H
	DW	034H
	DW	030H
	DW	038H
	DW	031H
	DW	034H
	DW	030H
	DW	039H
	DW	031H
	DW	034H
	DW	031H
	DW	030H
	DW	031H
	DW	034H
	DW	031H
	DW	031H
	DW	031H
	DW	034H
	DW	031H
	DW	032H
	DW	031H
	DW	034H
	DW	031H
	DW	033H
	DW	031H
	DW	034H
	DW	031H
	DW	034H
	DW	031H
	DW	034H
	DW	031H
	DW	035H
	DW	031H
	DW	034H
	DW	031H
	DW	036H
	DW	031H
	DW	034H
	DW	031H
	DW	037H
	DW	031H
	DW	034H
	DW	031H
	DW	038H
	DW	031H
	DW	034H
	DW	031H
	DW	039H
	DW	031H
	DW	034H
	DW	032H
	DW	030H
	DW	031H
	DW	034H
	DW	032H
	DW	031H
	DW	031H
	DW	034H
	DW	032H
	DW	032H
	DW	031H
	DW	034H
	DW	032H
	DW	033H
	DW	031H
	DW	034H
	DW	032H
	DW	034H
	DW	031H
	DW	034H
	DW	032H
	DW	035H
	DW	031H
	DW	034H
	DW	032H
	DW	036H
	DW	031H
	DW	034H
	DW	032H
	DW	037H
	DW	031H
	DW	034H
	DW	032H
	DW	038H
	DW	031H
	DW	034H
	DW	032H
	DW	039H
	DW	031H
	DW	034H
	DW	033H
	DW	030H
	DW	031H
	DW	034H
	DW	033H
	DW	031H
	DW	031H
	DW	034H
	DW	033H
	DW	032H
	DW	031H
	DW	034H
	DW	033H
	DW	033H
	DW	031H
	DW	034H
	DW	033H
	DW	034H
	DW	031H
	DW	034H
	DW	033H
	DW	035H
	DW	031H
	DW	034H
	DW	033H
	DW	036H
	DW	031H
	DW	034H
	DW	033H
	DW	037H
	DW	031H
	DW	034H
	DW	033H
	DW	038H
	DW	031H
	DW	034H
	DW	033H
	DW	039H
	DW	031H
	DW	034H
	DW	034H
	DW	030H
	DW	031H
	DW	034H
	DW	034H
	DW	031H
	DW	031H
	DW	034H
	DW	034H
	DW	032H
	DW	031H
	DW	034H
	DW	034H
	DW	033H
	DW	031H
	DW	034H
	DW	034H
	DW	034H
	DW	031H
	DW	034H
	DW	034H
	DW	035H
	DW	031H
	DW	034H
	DW	034H
	DW	036H
	DW	031H
	DW	034H
	DW	034H
	DW	037H
	DW	031H
	DW	034H
	DW	034H
	DW	038H
	DW	031H
	DW	034H
	DW	034H
	DW	039H
	DW	031H
	DW	034H
	DW	035H
	DW	030H
	DW	031H
	DW	034H
	DW	035H
	DW	031H
	DW	031H
	DW	034H
	DW	035H
	DW	032H
	DW	031H
	DW	034H
	DW	035H
	DW	033H
	DW	031H
	DW	034H
	DW	035H
	DW	034H
	DW	031H
	DW	034H
	DW	035H
	DW	035H
	DW	031H
	DW	034H
	DW	035H
	DW	036H
	DW	031H
	DW	034H
	DW	035H
	DW	037H
	DW	031H
	DW	034H
	DW	035H
	DW	038H
	DW	031H
	DW	034H
	DW	035H
	DW	039H
	DW	031H
	DW	034H
	DW	036H
	DW	030H
	DW	031H
	DW	034H
	DW	036H
	DW	031H
	DW	031H
	DW	034H
	DW	036H
	DW	032H
	DW	031H
	DW	034H
	DW	036H
	DW	033H
	DW	031H
	DW	034H
	DW	036H
	DW	034H
	DW	031H
	DW	034H
	DW	036H
	DW	035H
	DW	031H
	DW	034H
	DW	036H
	DW	036H
	DW	031H
	DW	034H
	DW	036H
	DW	037H
	DW	031H
	DW	034H
	DW	036H
	DW	038H
	DW	031H
	DW	034H
	DW	036H
	DW	039H
	DW	031H
	DW	034H
	DW	037H
	DW	030H
	DW	031H
	DW	034H
	DW	037H
	DW	031H
	DW	031H
	DW	034H
	DW	037H
	DW	032H
	DW	031H
	DW	034H
	DW	037H
	DW	033H
	DW	031H
	DW	034H
	DW	037H
	DW	034H
	DW	031H
	DW	034H
	DW	037H
	DW	035H
	DW	031H
	DW	034H
	DW	037H
	DW	036H
	DW	031H
	DW	034H
	DW	037H
	DW	037H
	DW	031H
	DW	034H
	DW	037H
	DW	038H
	DW	031H
	DW	034H
	DW	037H
	DW	039H
	DW	031H
	DW	034H
	DW	038H
	DW	030H
	DW	031H
	DW	034H
	DW	038H
	DW	031H
	DW	031H
	DW	034H
	DW	038H
	DW	032H
	DW	031H
	DW	034H
	DW	038H
	DW	033H
	DW	031H
	DW	034H
	DW	038H
	DW	034H
	DW	031H
	DW	034H
	DW	038H
	DW	035H
	DW	031H
	DW	034H
	DW	038H
	DW	036H
	DW	031H
	DW	034H
	DW	038H
	DW	037H
	DW	031H
	DW	034H
	DW	038H
	DW	038H
	DW	031H
	DW	034H
	DW	038H
	DW	039H
	DW	031H
	DW	034H
	DW	039H
	DW	030H
	DW	031H
	DW	034H
	DW	039H
	DW	031H
	DW	031H
	DW	034H
	DW	039H
	DW	032H
	DW	031H
	DW	034H
	DW	039H
	DW	033H
	DW	031H
	DW	034H
	DW	039H
	DW	034H
	DW	031H
	DW	034H
	DW	039H
	DW	035H
	DW	031H
	DW	034H
	DW	039H
	DW	036H
	DW	031H
	DW	034H
	DW	039H
	DW	037H
	DW	031H
	DW	034H
	DW	039H
	DW	038H
	DW	031H
	DW	034H
	DW	039H
	DW	039H
	DW	031H
	DW	035H
	DW	030H
	DW	030H
	DW	031H
	DW	035H
	DW	030H
	DW	031H
	DW	031H
	DW	035H
	DW	030H
	DW	032H
	DW	031H
	DW	035H
	DW	030H
	DW	033H
	DW	031H
	DW	035H
	DW	030H
	DW	034H
	DW	031H
	DW	035H
	DW	030H
	DW	035H
	DW	031H
	DW	035H
	DW	030H
	DW	036H
	DW	031H
	DW	035H
	DW	030H
	DW	037H
	DW	031H
	DW	035H
	DW	030H
	DW	038H
	DW	031H
	DW	035H
	DW	030H
	DW	039H
	DW	031H
	DW	035H
	DW	031H
	DW	030H
	DW	031H
	DW	035H
	DW	031H
	DW	031H
	DW	031H
	DW	035H
	DW	031H
	DW	032H
	DW	031H
	DW	035H
	DW	031H
	DW	033H
	DW	031H
	DW	035H
	DW	031H
	DW	034H
	DW	031H
	DW	035H
	DW	031H
	DW	035H
	DW	031H
	DW	035H
	DW	031H
	DW	036H
	DW	031H
	DW	035H
	DW	031H
	DW	037H
	DW	031H
	DW	035H
	DW	031H
	DW	038H
	DW	031H
	DW	035H
	DW	031H
	DW	039H
	DW	031H
	DW	035H
	DW	032H
	DW	030H
	DW	031H
	DW	035H
	DW	032H
	DW	031H
	DW	031H
	DW	035H
	DW	032H
	DW	032H
	DW	031H
	DW	035H
	DW	032H
	DW	033H
	DW	031H
	DW	035H
	DW	032H
	DW	034H
	DW	031H
	DW	035H
	DW	032H
	DW	035H
	DW	031H
	DW	035H
	DW	032H
	DW	036H
	DW	031H
	DW	035H
	DW	032H
	DW	037H
	DW	031H
	DW	035H
	DW	032H
	DW	038H
	DW	031H
	DW	035H
	DW	032H
	DW	039H
	DW	031H
	DW	035H
	DW	033H
	DW	030H
	DW	031H
	DW	035H
	DW	033H
	DW	031H
	DW	031H
	DW	035H
	DW	033H
	DW	032H
	DW	031H
	DW	035H
	DW	033H
	DW	033H
	DW	031H
	DW	035H
	DW	033H
	DW	034H
	DW	031H
	DW	035H
	DW	033H
	DW	035H
	DW	031H
	DW	035H
	DW	033H
	DW	036H
	DW	031H
	DW	035H
	DW	033H
	DW	037H
	DW	031H
	DW	035H
	DW	033H
	DW	038H
	DW	031H
	DW	035H
	DW	033H
	DW	039H
	DW	031H
	DW	035H
	DW	034H
	DW	030H
	DW	031H
	DW	035H
	DW	034H
	DW	031H
	DW	031H
	DW	035H
	DW	034H
	DW	032H
	DW	031H
	DW	035H
	DW	034H
	DW	033H
	DW	031H
	DW	035H
	DW	034H
	DW	034H
	DW	031H
	DW	035H
	DW	034H
	DW	035H
	DW	031H
	DW	035H
	DW	034H
	DW	036H
	DW	031H
	DW	035H
	DW	034H
	DW	037H
	DW	031H
	DW	035H
	DW	034H
	DW	038H
	DW	031H
	DW	035H
	DW	034H
	DW	039H
	DW	031H
	DW	035H
	DW	035H
	DW	030H
	DW	031H
	DW	035H
	DW	035H
	DW	031H
	DW	031H
	DW	035H
	DW	035H
	DW	032H
	DW	031H
	DW	035H
	DW	035H
	DW	033H
	DW	031H
	DW	035H
	DW	035H
	DW	034H
	DW	031H
	DW	035H
	DW	035H
	DW	035H
	DW	031H
	DW	035H
	DW	035H
	DW	036H
	DW	031H
	DW	035H
	DW	035H
	DW	037H
	DW	031H
	DW	035H
	DW	035H
	DW	038H
	DW	031H
	DW	035H
	DW	035H
	DW	039H
	DW	031H
	DW	035H
	DW	036H
	DW	030H
	DW	031H
	DW	035H
	DW	036H
	DW	031H
	DW	031H
	DW	035H
	DW	036H
	DW	032H
	DW	031H
	DW	035H
	DW	036H
	DW	033H
	DW	031H
	DW	035H
	DW	036H
	DW	034H
	DW	031H
	DW	035H
	DW	036H
	DW	035H
	DW	031H
	DW	035H
	DW	036H
	DW	036H
	DW	031H
	DW	035H
	DW	036H
	DW	037H
	DW	031H
	DW	035H
	DW	036H
	DW	038H
	DW	031H
	DW	035H
	DW	036H
	DW	039H
	DW	031H
	DW	035H
	DW	037H
	DW	030H
	DW	031H
	DW	035H
	DW	037H
	DW	031H
	DW	031H
	DW	035H
	DW	037H
	DW	032H
	DW	031H
	DW	035H
	DW	037H
	DW	033H
	DW	031H
	DW	035H
	DW	037H
	DW	034H
	DW	031H
	DW	035H
	DW	037H
	DW	035H
	DW	031H
	DW	035H
	DW	037H
	DW	036H
	DW	031H
	DW	035H
	DW	037H
	DW	037H
	DW	031H
	DW	035H
	DW	037H
	DW	038H
	DW	031H
	DW	035H
	DW	037H
	DW	039H
	DW	031H
	DW	035H
	DW	038H
	DW	030H
	DW	031H
	DW	035H
	DW	038H
	DW	031H
	DW	031H
	DW	035H
	DW	038H
	DW	032H
	DW	031H
	DW	035H
	DW	038H
	DW	033H
	DW	031H
	DW	035H
	DW	038H
	DW	034H
	DW	031H
	DW	035H
	DW	038H
	DW	035H
	DW	031H
	DW	035H
	DW	038H
	DW	036H
	DW	031H
	DW	035H
	DW	038H
	DW	037H
	DW	031H
	DW	035H
	DW	038H
	DW	038H
	DW	031H
	DW	035H
	DW	038H
	DW	039H
	DW	031H
	DW	035H
	DW	039H
	DW	030H
	DW	031H
	DW	035H
	DW	039H
	DW	031H
	DW	031H
	DW	035H
	DW	039H
	DW	032H
	DW	031H
	DW	035H
	DW	039H
	DW	033H
	DW	031H
	DW	035H
	DW	039H
	DW	034H
	DW	031H
	DW	035H
	DW	039H
	DW	035H
	DW	031H
	DW	035H
	DW	039H
	DW	036H
	DW	031H
	DW	035H
	DW	039H
	DW	037H
	DW	031H
	DW	035H
	DW	039H
	DW	038H
	DW	031H
	DW	035H
	DW	039H
	DW	039H
	DW	031H
	DW	036H
	DW	030H
	DW	030H
	DW	031H
	DW	036H
	DW	030H
	DW	031H
	DW	031H
	DW	036H
	DW	030H
	DW	032H
	DW	031H
	DW	036H
	DW	030H
	DW	033H
	DW	031H
	DW	036H
	DW	030H
	DW	034H
	DW	031H
	DW	036H
	DW	030H
	DW	035H
	DW	031H
	DW	036H
	DW	030H
	DW	036H
	DW	031H
	DW	036H
	DW	030H
	DW	037H
	DW	031H
	DW	036H
	DW	030H
	DW	038H
	DW	031H
	DW	036H
	DW	030H
	DW	039H
	DW	031H
	DW	036H
	DW	031H
	DW	030H
	DW	031H
	DW	036H
	DW	031H
	DW	031H
	DW	031H
	DW	036H
	DW	031H
	DW	032H
	DW	031H
	DW	036H
	DW	031H
	DW	033H
	DW	031H
	DW	036H
	DW	031H
	DW	034H
	DW	031H
	DW	036H
	DW	031H
	DW	035H
	DW	031H
	DW	036H
	DW	031H
	DW	036H
	DW	031H
	DW	036H
	DW	031H
	DW	037H
	DW	031H
	DW	036H
	DW	031H
	DW	038H
	DW	031H
	DW	036H
	DW	031H
	DW	039H
	DW	031H
	DW	036H
	DW	032H
	DW	030H
	DW	031H
	DW	036H
	DW	032H
	DW	031H
	DW	031H
	DW	036H
	DW	032H
	DW	032H
	DW	031H
	DW	036H
	DW	032H
	DW	033H
	DW	031H
	DW	036H
	DW	032H
	DW	034H
	DW	031H
	DW	036H
	DW	032H
	DW	035H
	DW	031H
	DW	036H
	DW	032H
	DW	036H
	DW	031H
	DW	036H
	DW	032H
	DW	037H
	DW	031H
	DW	036H
	DW	032H
	DW	038H
	DW	031H
	DW	036H
	DW	032H
	DW	039H
	DW	031H
	DW	036H
	DW	033H
	DW	030H
	DW	031H
	DW	036H
	DW	033H
	DW	031H
	DW	031H
	DW	036H
	DW	033H
	DW	032H
	DW	031H
	DW	036H
	DW	033H
	DW	033H
	DW	031H
	DW	036H
	DW	033H
	DW	034H
	DW	031H
	DW	036H
	DW	033H
	DW	035H
	DW	031H
	DW	036H
	DW	033H
	DW	036H
	DW	031H
	DW	036H
	DW	033H
	DW	037H
	DW	031H
	DW	036H
	DW	033H
	DW	038H
	DW	031H
	DW	036H
	DW	033H
	DW	039H
	DW	031H
	DW	036H
	DW	034H
	DW	030H
	DW	031H
	DW	036H
	DW	034H
	DW	031H
	DW	031H
	DW	036H
	DW	034H
	DW	032H
	DW	031H
	DW	036H
	DW	034H
	DW	033H
	DW	031H
	DW	036H
	DW	034H
	DW	034H
	DW	031H
	DW	036H
	DW	034H
	DW	035H
	DW	031H
	DW	036H
	DW	034H
	DW	036H
	DW	031H
	DW	036H
	DW	034H
	DW	037H
	DW	031H
	DW	036H
	DW	034H
	DW	038H
	DW	031H
	DW	036H
	DW	034H
	DW	039H
	DW	031H
	DW	036H
	DW	035H
	DW	030H
	DW	031H
	DW	036H
	DW	035H
	DW	031H
	DW	031H
	DW	036H
	DW	035H
	DW	032H
	DW	031H
	DW	036H
	DW	035H
	DW	033H
	DW	031H
	DW	036H
	DW	035H
	DW	034H
	DW	031H
	DW	036H
	DW	035H
	DW	035H
	DW	031H
	DW	036H
	DW	035H
	DW	036H
	DW	031H
	DW	036H
	DW	035H
	DW	037H
	DW	031H
	DW	036H
	DW	035H
	DW	038H
	DW	031H
	DW	036H
	DW	035H
	DW	039H
	DW	031H
	DW	036H
	DW	036H
	DW	030H
	DW	031H
	DW	036H
	DW	036H
	DW	031H
	DW	031H
	DW	036H
	DW	036H
	DW	032H
	DW	031H
	DW	036H
	DW	036H
	DW	033H
	DW	031H
	DW	036H
	DW	036H
	DW	034H
	DW	031H
	DW	036H
	DW	036H
	DW	035H
	DW	031H
	DW	036H
	DW	036H
	DW	036H
	DW	031H
	DW	036H
	DW	036H
	DW	037H
	DW	031H
	DW	036H
	DW	036H
	DW	038H
	DW	031H
	DW	036H
	DW	036H
	DW	039H
	DW	031H
	DW	036H
	DW	037H
	DW	030H
	DW	031H
	DW	036H
	DW	037H
	DW	031H
	DW	031H
	DW	036H
	DW	037H
	DW	032H
	DW	031H
	DW	036H
	DW	037H
	DW	033H
	DW	031H
	DW	036H
	DW	037H
	DW	034H
	DW	031H
	DW	036H
	DW	037H
	DW	035H
	DW	031H
	DW	036H
	DW	037H
	DW	036H
	DW	031H
	DW	036H
	DW	037H
	DW	037H
	DW	031H
	DW	036H
	DW	037H
	DW	038H
	DW	031H
	DW	036H
	DW	037H
	DW	039H
	DW	031H
	DW	036H
	DW	038H
	DW	030H
	DW	031H
	DW	036H
	DW	038H
	DW	031H
	DW	031H
	DW	036H
	DW	038H
	DW	032H
	DW	031H
	DW	036H
	DW	038H
	DW	033H
	DW	031H
	DW	036H
	DW	038H
	DW	034H
	DW	031H
	DW	036H
	DW	038H
	DW	035H
	DW	031H
	DW	036H
	DW	038H
	DW	036H
	DW	031H
	DW	036H
	DW	038H
	DW	037H
	DW	031H
	DW	036H
	DW	038H
	DW	038H
	DW	031H
	DW	036H
	DW	038H
	DW	039H
	DW	031H
	DW	036H
	DW	039H
	DW	030H
	DW	031H
	DW	036H
	DW	039H
	DW	031H
	DW	031H
	DW	036H
	DW	039H
	DW	032H
	DW	031H
	DW	036H
	DW	039H
	DW	033H
	DW	031H
	DW	036H
	DW	039H
	DW	034H
	DW	031H
	DW	036H
	DW	039H
	DW	035H
	DW	031H
	DW	036H
	DW	039H
	DW	036H
	DW	031H
	DW	036H
	DW	039H
	DW	037H
	DW	031H
	DW	036H
	DW	039H
	DW	038H
	DW	031H
	DW	036H
	DW	039H
	DW	039H
	DW	031H
	DW	037H
	DW	030H
	DW	030H
	DW	031H
	DW	037H
	DW	030H
	DW	031H
	DW	031H
	DW	037H
	DW	030H
	DW	032H
	DW	031H
	DW	037H
	DW	030H
	DW	033H
	DW	031H
	DW	037H
	DW	030H
	DW	034H
	DW	031H
	DW	037H
	DW	030H
	DW	035H
	DW	031H
	DW	037H
	DW	030H
	DW	036H
	DW	031H
	DW	037H
	DW	030H
	DW	037H
	DW	031H
	DW	037H
	DW	030H
	DW	038H
	DW	031H
	DW	037H
	DW	030H
	DW	039H
	DW	031H
	DW	037H
	DW	031H
	DW	030H
	DW	031H
	DW	037H
	DW	031H
	DW	031H
	DW	031H
	DW	037H
	DW	031H
	DW	032H
	DW	031H
	DW	037H
	DW	031H
	DW	033H
	DW	031H
	DW	037H
	DW	031H
	DW	034H
	DW	031H
	DW	037H
	DW	031H
	DW	035H
	DW	031H
	DW	037H
	DW	031H
	DW	036H
	DW	031H
	DW	037H
	DW	031H
	DW	037H
	DW	031H
	DW	037H
	DW	031H
	DW	038H
	DW	031H
	DW	037H
	DW	031H
	DW	039H
	DW	031H
	DW	037H
	DW	032H
	DW	030H
	DW	031H
	DW	037H
	DW	032H
	DW	031H
	DW	031H
	DW	037H
	DW	032H
	DW	032H
	DW	031H
	DW	037H
	DW	032H
	DW	033H
	DW	031H
	DW	037H
	DW	032H
	DW	034H
	DW	031H
	DW	037H
	DW	032H
	DW	035H
	DW	031H
	DW	037H
	DW	032H
	DW	036H
	DW	031H
	DW	037H
	DW	032H
	DW	037H
	DW	031H
	DW	037H
	DW	032H
	DW	038H
	DW	031H
	DW	037H
	DW	032H
	DW	039H
	DW	031H
	DW	037H
	DW	033H
	DW	030H
	DW	031H
	DW	037H
	DW	033H
	DW	031H
	DW	031H
	DW	037H
	DW	033H
	DW	032H
	DW	031H
	DW	037H
	DW	033H
	DW	033H
	DW	031H
	DW	037H
	DW	033H
	DW	034H
	DW	031H
	DW	037H
	DW	033H
	DW	035H
	DW	031H
	DW	037H
	DW	033H
	DW	036H
	DW	031H
	DW	037H
	DW	033H
	DW	037H
	DW	031H
	DW	037H
	DW	033H
	DW	038H
	DW	031H
	DW	037H
	DW	033H
	DW	039H
	DW	031H
	DW	037H
	DW	034H
	DW	030H
	DW	031H
	DW	037H
	DW	034H
	DW	031H
	DW	031H
	DW	037H
	DW	034H
	DW	032H
	DW	031H
	DW	037H
	DW	034H
	DW	033H
	DW	031H
	DW	037H
	DW	034H
	DW	034H
	DW	031H
	DW	037H
	DW	034H
	DW	035H
	DW	031H
	DW	037H
	DW	034H
	DW	036H
	DW	031H
	DW	037H
	DW	034H
	DW	037H
	DW	031H
	DW	037H
	DW	034H
	DW	038H
	DW	031H
	DW	037H
	DW	034H
	DW	039H
	DW	031H
	DW	037H
	DW	035H
	DW	030H
	DW	031H
	DW	037H
	DW	035H
	DW	031H
	DW	031H
	DW	037H
	DW	035H
	DW	032H
	DW	031H
	DW	037H
	DW	035H
	DW	033H
	DW	031H
	DW	037H
	DW	035H
	DW	034H
	DW	031H
	DW	037H
	DW	035H
	DW	035H
	DW	031H
	DW	037H
	DW	035H
	DW	036H
	DW	031H
	DW	037H
	DW	035H
	DW	037H
	DW	031H
	DW	037H
	DW	035H
	DW	038H
	DW	031H
	DW	037H
	DW	035H
	DW	039H
	DW	031H
	DW	037H
	DW	036H
	DW	030H
	DW	031H
	DW	037H
	DW	036H
	DW	031H
	DW	031H
	DW	037H
	DW	036H
	DW	032H
	DW	031H
	DW	037H
	DW	036H
	DW	033H
	DW	031H
	DW	037H
	DW	036H
	DW	034H
	DW	031H
	DW	037H
	DW	036H
	DW	035H
	DW	031H
	DW	037H
	DW	036H
	DW	036H
	DW	031H
	DW	037H
	DW	036H
	DW	037H
	DW	031H
	DW	037H
	DW	036H
	DW	038H
	DW	031H
	DW	037H
	DW	036H
	DW	039H
	DW	031H
	DW	037H
	DW	037H
	DW	030H
	DW	031H
	DW	037H
	DW	037H
	DW	031H
	DW	031H
	DW	037H
	DW	037H
	DW	032H
	DW	031H
	DW	037H
	DW	037H
	DW	033H
	DW	031H
	DW	037H
	DW	037H
	DW	034H
	DW	031H
	DW	037H
	DW	037H
	DW	035H
	DW	031H
	DW	037H
	DW	037H
	DW	036H
	DW	031H
	DW	037H
	DW	037H
	DW	037H
	DW	031H
	DW	037H
	DW	037H
	DW	038H
	DW	031H
	DW	037H
	DW	037H
	DW	039H
	DW	031H
	DW	037H
	DW	038H
	DW	030H
	DW	031H
	DW	037H
	DW	038H
	DW	031H
	DW	031H
	DW	037H
	DW	038H
	DW	032H
	DW	031H
	DW	037H
	DW	038H
	DW	033H
	DW	031H
	DW	037H
	DW	038H
	DW	034H
	DW	031H
	DW	037H
	DW	038H
	DW	035H
	DW	031H
	DW	037H
	DW	038H
	DW	036H
	DW	031H
	DW	037H
	DW	038H
	DW	037H
	DW	031H
	DW	037H
	DW	038H
	DW	038H
	DW	031H
	DW	037H
	DW	038H
	DW	039H
	DW	031H
	DW	037H
	DW	039H
	DW	030H
	DW	031H
	DW	037H
	DW	039H
	DW	031H
	DW	031H
	DW	037H
	DW	039H
	DW	032H
	DW	031H
	DW	037H
	DW	039H
	DW	033H
	DW	031H
	DW	037H
	DW	039H
	DW	034H
	DW	031H
	DW	037H
	DW	039H
	DW	035H
	DW	031H
	DW	037H
	DW	039H
	DW	036H
	DW	031H
	DW	037H
	DW	039H
	DW	037H
	DW	031H
	DW	037H
	DW	039H
	DW	038H
	DW	031H
	DW	037H
	DW	039H
	DW	039H
	DW	031H
	DW	038H
	DW	030H
	DW	030H
	DW	031H
	DW	038H
	DW	030H
	DW	031H
	DW	031H
	DW	038H
	DW	030H
	DW	032H
	DW	031H
	DW	038H
	DW	030H
	DW	033H
	DW	031H
	DW	038H
	DW	030H
	DW	034H
	DW	031H
	DW	038H
	DW	030H
	DW	035H
	DW	031H
	DW	038H
	DW	030H
	DW	036H
	DW	031H
	DW	038H
	DW	030H
	DW	037H
	DW	031H
	DW	038H
	DW	030H
	DW	038H
	DW	031H
	DW	038H
	DW	030H
	DW	039H
	DW	031H
	DW	038H
	DW	031H
	DW	030H
	DW	031H
	DW	038H
	DW	031H
	DW	031H
	DW	031H
	DW	038H
	DW	031H
	DW	032H
	DW	031H
	DW	038H
	DW	031H
	DW	033H
	DW	031H
	DW	038H
	DW	031H
	DW	034H
	DW	031H
	DW	038H
	DW	031H
	DW	035H
	DW	031H
	DW	038H
	DW	031H
	DW	036H
	DW	031H
	DW	038H
	DW	031H
	DW	037H
	DW	031H
	DW	038H
	DW	031H
	DW	038H
	DW	031H
	DW	038H
	DW	031H
	DW	039H
	DW	031H
	DW	038H
	DW	032H
	DW	030H
	DW	031H
	DW	038H
	DW	032H
	DW	031H
	DW	031H
	DW	038H
	DW	032H
	DW	032H
	DW	031H
	DW	038H
	DW	032H
	DW	033H
	DW	031H
	DW	038H
	DW	032H
	DW	034H
	DW	031H
	DW	038H
	DW	032H
	DW	035H
	DW	031H
	DW	038H
	DW	032H
	DW	036H
	DW	031H
	DW	038H
	DW	032H
	DW	037H
	DW	031H
	DW	038H
	DW	032H
	DW	038H
	DW	031H
	DW	038H
	DW	032H
	DW	039H
	DW	031H
	DW	038H
	DW	033H
	DW	030H
	DW	031H
	DW	038H
	DW	033H
	DW	031H
	DW	031H
	DW	038H
	DW	033H
	DW	032H
	DW	031H
	DW	038H
	DW	033H
	DW	033H
	DW	031H
	DW	038H
	DW	033H
	DW	034H
	DW	031H
	DW	038H
	DW	033H
	DW	035H
	DW	031H
	DW	038H
	DW	033H
	DW	036H
	DW	031H
	DW	038H
	DW	033H
	DW	037H
	DW	031H
	DW	038H
	DW	033H
	DW	038H
	DW	031H
	DW	038H
	DW	033H
	DW	039H
	DW	031H
	DW	038H
	DW	034H
	DW	030H
	DW	031H
	DW	038H
	DW	034H
	DW	031H
	DW	031H
	DW	038H
	DW	034H
	DW	032H
	DW	031H
	DW	038H
	DW	034H
	DW	033H
	DW	031H
	DW	038H
	DW	034H
	DW	034H
	DW	031H
	DW	038H
	DW	034H
	DW	035H
	DW	031H
	DW	038H
	DW	034H
	DW	036H
	DW	031H
	DW	038H
	DW	034H
	DW	037H
	DW	031H
	DW	038H
	DW	034H
	DW	038H
	DW	031H
	DW	038H
	DW	034H
	DW	039H
	DW	031H
	DW	038H
	DW	035H
	DW	030H
	DW	031H
	DW	038H
	DW	035H
	DW	031H
	DW	031H
	DW	038H
	DW	035H
	DW	032H
	DW	031H
	DW	038H
	DW	035H
	DW	033H
	DW	031H
	DW	038H
	DW	035H
	DW	034H
	DW	031H
	DW	038H
	DW	035H
	DW	035H
	DW	031H
	DW	038H
	DW	035H
	DW	036H
	DW	031H
	DW	038H
	DW	035H
	DW	037H
	DW	031H
	DW	038H
	DW	035H
	DW	038H
	DW	031H
	DW	038H
	DW	035H
	DW	039H
	DW	031H
	DW	038H
	DW	036H
	DW	030H
	DW	031H
	DW	038H
	DW	036H
	DW	031H
	DW	031H
	DW	038H
	DW	036H
	DW	032H
	DW	031H
	DW	038H
	DW	036H
	DW	033H
	DW	031H
	DW	038H
	DW	036H
	DW	034H
	DW	031H
	DW	038H
	DW	036H
	DW	035H
	DW	031H
	DW	038H
	DW	036H
	DW	036H
	DW	031H
	DW	038H
	DW	036H
	DW	037H
	DW	031H
	DW	038H
	DW	036H
	DW	038H
	DW	031H
	DW	038H
	DW	036H
	DW	039H
	DW	031H
	DW	038H
	DW	037H
	DW	030H
	DW	031H
	DW	038H
	DW	037H
	DW	031H
	DW	031H
	DW	038H
	DW	037H
	DW	032H
	DW	031H
	DW	038H
	DW	037H
	DW	033H
	DW	031H
	DW	038H
	DW	037H
	DW	034H
	DW	031H
	DW	038H
	DW	037H
	DW	035H
	DW	031H
	DW	038H
	DW	037H
	DW	036H
	DW	031H
	DW	038H
	DW	037H
	DW	037H
	DW	031H
	DW	038H
	DW	037H
	DW	038H
	DW	031H
	DW	038H
	DW	037H
	DW	039H
	DW	031H
	DW	038H
	DW	038H
	DW	030H
	DW	031H
	DW	038H
	DW	038H
	DW	031H
	DW	031H
	DW	038H
	DW	038H
	DW	032H
	DW	031H
	DW	038H
	DW	038H
	DW	033H
	DW	031H
	DW	038H
	DW	038H
	DW	034H
	DW	031H
	DW	038H
	DW	038H
	DW	035H
	DW	031H
	DW	038H
	DW	038H
	DW	036H
	DW	031H
	DW	038H
	DW	038H
	DW	037H
	DW	031H
	DW	038H
	DW	038H
	DW	038H
	DW	031H
	DW	038H
	DW	038H
	DW	039H
	DW	031H
	DW	038H
	DW	039H
	DW	030H
	DW	031H
	DW	038H
	DW	039H
	DW	031H
	DW	031H
	DW	038H
	DW	039H
	DW	032H
	DW	031H
	DW	038H
	DW	039H
	DW	033H
	DW	031H
	DW	038H
	DW	039H
	DW	034H
	DW	031H
	DW	038H
	DW	039H
	DW	035H
	DW	031H
	DW	038H
	DW	039H
	DW	036H
	DW	031H
	DW	038H
	DW	039H
	DW	037H
	DW	031H
	DW	038H
	DW	039H
	DW	038H
	DW	031H
	DW	038H
	DW	039H
	DW	039H
	DW	031H
	DW	039H
	DW	030H
	DW	030H
	DW	031H
	DW	039H
	DW	030H
	DW	031H
	DW	031H
	DW	039H
	DW	030H
	DW	032H
	DW	031H
	DW	039H
	DW	030H
	DW	033H
	DW	031H
	DW	039H
	DW	030H
	DW	034H
	DW	031H
	DW	039H
	DW	030H
	DW	035H
	DW	031H
	DW	039H
	DW	030H
	DW	036H
	DW	031H
	DW	039H
	DW	030H
	DW	037H
	DW	031H
	DW	039H
	DW	030H
	DW	038H
	DW	031H
	DW	039H
	DW	030H
	DW	039H
	DW	031H
	DW	039H
	DW	031H
	DW	030H
	DW	031H
	DW	039H
	DW	031H
	DW	031H
	DW	031H
	DW	039H
	DW	031H
	DW	032H
	DW	031H
	DW	039H
	DW	031H
	DW	033H
	DW	031H
	DW	039H
	DW	031H
	DW	034H
	DW	031H
	DW	039H
	DW	031H
	DW	035H
	DW	031H
	DW	039H
	DW	031H
	DW	036H
	DW	031H
	DW	039H
	DW	031H
	DW	037H
	DW	031H
	DW	039H
	DW	031H
	DW	038H
	DW	031H
	DW	039H
	DW	031H
	DW	039H
	DW	031H
	DW	039H
	DW	032H
	DW	030H
	DW	031H
	DW	039H
	DW	032H
	DW	031H
	DW	031H
	DW	039H
	DW	032H
	DW	032H
	DW	031H
	DW	039H
	DW	032H
	DW	033H
	DW	031H
	DW	039H
	DW	032H
	DW	034H
	DW	031H
	DW	039H
	DW	032H
	DW	035H
	DW	031H
	DW	039H
	DW	032H
	DW	036H
	DW	031H
	DW	039H
	DW	032H
	DW	037H
	DW	031H
	DW	039H
	DW	032H
	DW	038H
	DW	031H
	DW	039H
	DW	032H
	DW	039H
	DW	031H
	DW	039H
	DW	033H
	DW	030H
	DW	031H
	DW	039H
	DW	033H
	DW	031H
	DW	031H
	DW	039H
	DW	033H
	DW	032H
	DW	031H
	DW	039H
	DW	033H
	DW	033H
	DW	031H
	DW	039H
	DW	033H
	DW	034H
	DW	031H
	DW	039H
	DW	033H
	DW	035H
	DW	031H
	DW	039H
	DW	033H
	DW	036H
	DW	031H
	DW	039H
	DW	033H
	DW	037H
	DW	031H
	DW	039H
	DW	033H
	DW	038H
	DW	031H
	DW	039H
	DW	033H
	DW	039H
	DW	031H
	DW	039H
	DW	034H
	DW	030H
	DW	031H
	DW	039H
	DW	034H
	DW	031H
	DW	031H
	DW	039H
	DW	034H
	DW	032H
	DW	031H
	DW	039H
	DW	034H
	DW	033H
	DW	031H
	DW	039H
	DW	034H
	DW	034H
	DW	031H
	DW	039H
	DW	034H
	DW	035H
	DW	031H
	DW	039H
	DW	034H
	DW	036H
	DW	031H
	DW	039H
	DW	034H
	DW	037H
	DW	031H
	DW	039H
	DW	034H
	DW	038H
	DW	031H
	DW	039H
	DW	034H
	DW	039H
	DW	031H
	DW	039H
	DW	035H
	DW	030H
	DW	031H
	DW	039H
	DW	035H
	DW	031H
	DW	031H
	DW	039H
	DW	035H
	DW	032H
	DW	031H
	DW	039H
	DW	035H
	DW	033H
	DW	031H
	DW	039H
	DW	035H
	DW	034H
	DW	031H
	DW	039H
	DW	035H
	DW	035H
	DW	031H
	DW	039H
	DW	035H
	DW	036H
	DW	031H
	DW	039H
	DW	035H
	DW	037H
	DW	031H
	DW	039H
	DW	035H
	DW	038H
	DW	031H
	DW	039H
	DW	035H
	DW	039H
	DW	031H
	DW	039H
	DW	036H
	DW	030H
	DW	031H
	DW	039H
	DW	036H
	DW	031H
	DW	031H
	DW	039H
	DW	036H
	DW	032H
	DW	031H
	DW	039H
	DW	036H
	DW	033H
	DW	031H
	DW	039H
	DW	036H
	DW	034H
	DW	031H
	DW	039H
	DW	036H
	DW	035H
	DW	031H
	DW	039H
	DW	036H
	DW	036H
	DW	031H
	DW	039H
	DW	036H
	DW	037H
	DW	031H
	DW	039H
	DW	036H
	DW	038H
	DW	031H
	DW	039H
	DW	036H
	DW	039H
	DW	031H
	DW	039H
	DW	037H
	DW	030H
	DW	031H
	DW	039H
	DW	037H
	DW	031H
	DW	031H
	DW	039H
	DW	037H
	DW	032H
	DW	031H
	DW	039H
	DW	037H
	DW	033H
	DW	031H
	DW	039H
	DW	037H
	DW	034H
	DW	031H
	DW	039H
	DW	037H
	DW	035H
	DW	031H
	DW	039H
	DW	037H
	DW	036H
	DW	031H
	DW	039H
	DW	037H
	DW	037H
	DW	031H
	DW	039H
	DW	037H
	DW	038H
	DW	031H
	DW	039H
	DW	037H
	DW	039H
	DW	031H
	DW	039H
	DW	038H
	DW	030H
	DW	031H
	DW	039H
	DW	038H
	DW	031H
	DW	031H
	DW	039H
	DW	038H
	DW	032H
	DW	031H
	DW	039H
	DW	038H
	DW	033H
	DW	031H
	DW	039H
	DW	038H
	DW	034H
	DW	031H
	DW	039H
	DW	038H
	DW	035H
	DW	031H
	DW	039H
	DW	038H
	DW	036H
	DW	031H
	DW	039H
	DW	038H
	DW	037H
	DW	031H
	DW	039H
	DW	038H
	DW	038H
	DW	031H
	DW	039H
	DW	038H
	DW	039H
	DW	031H
	DW	039H
	DW	039H
	DW	030H
	DW	031H
	DW	039H
	DW	039H
	DW	031H
	DW	031H
	DW	039H
	DW	039H
	DW	032H
	DW	031H
	DW	039H
	DW	039H
	DW	033H
	DW	031H
	DW	039H
	DW	039H
	DW	034H
	DW	031H
	DW	039H
	DW	039H
	DW	035H
	DW	031H
	DW	039H
	DW	039H
	DW	036H
	DW	031H
	DW	039H
	DW	039H
	DW	037H
	DW	031H
	DW	039H
	DW	039H
	DW	038H
	DW	031H
	DW	039H
	DW	039H
	DW	039H
	DW	032H
	DW	030H
	DW	030H
	DW	030H
	DW	032H
	DW	030H
	DW	030H
	DW	031H
	DW	032H
	DW	030H
	DW	030H
	DW	032H
	DW	032H
	DW	030H
	DW	030H
	DW	033H
	DW	032H
	DW	030H
	DW	030H
	DW	034H
	DW	032H
	DW	030H
	DW	030H
	DW	035H
	DW	032H
	DW	030H
	DW	030H
	DW	036H
	DW	032H
	DW	030H
	DW	030H
	DW	037H
	DW	032H
	DW	030H
	DW	030H
	DW	038H
	DW	032H
	DW	030H
	DW	030H
	DW	039H
	DW	032H
	DW	030H
	DW	031H
	DW	030H
	DW	032H
	DW	030H
	DW	031H
	DW	031H
	DW	032H
	DW	030H
	DW	031H
	DW	032H
	DW	032H
	DW	030H
	DW	031H
	DW	033H
	DW	032H
	DW	030H
	DW	031H
	DW	034H
	DW	032H
	DW	030H
	DW	031H
	DW	035H
	DW	032H
	DW	030H
	DW	031H
	DW	036H
	DW	032H
	DW	030H
	DW	031H
	DW	037H
	DW	032H
	DW	030H
	DW	031H
	DW	038H
	DW	032H
	DW	030H
	DW	031H
	DW	039H
	DW	032H
	DW	030H
	DW	032H
	DW	030H
	DW	032H
	DW	030H
	DW	032H
	DW	031H
	DW	032H
	DW	030H
	DW	032H
	DW	032H
	DW	032H
	DW	030H
	DW	032H
	DW	033H
	DW	032H
	DW	030H
	DW	032H
	DW	034H
	DW	032H
	DW	030H
	DW	032H
	DW	035H
	DW	032H
	DW	030H
	DW	032H
	DW	036H
	DW	032H
	DW	030H
	DW	032H
	DW	037H
	DW	032H
	DW	030H
	DW	032H
	DW	038H
	DW	032H
	DW	030H
	DW	032H
	DW	039H
	DW	032H
	DW	030H
	DW	033H
	DW	030H
	DW	032H
	DW	030H
	DW	033H
	DW	031H
	DW	032H
	DW	030H
	DW	033H
	DW	032H
	DW	032H
	DW	030H
	DW	033H
	DW	033H
	DW	032H
	DW	030H
	DW	033H
	DW	034H
	DW	032H
	DW	030H
	DW	033H
	DW	035H
	DW	032H
	DW	030H
	DW	033H
	DW	036H
	DW	032H
	DW	030H
	DW	033H
	DW	037H
	DW	032H
	DW	030H
	DW	033H
	DW	038H
	DW	032H
	DW	030H
	DW	033H
	DW	039H
	DW	032H
	DW	030H
	DW	034H
	DW	030H
	DW	032H
	DW	030H
	DW	034H
	DW	031H
	DW	032H
	DW	030H
	DW	034H
	DW	032H
	DW	032H
	DW	030H
	DW	034H
	DW	033H
	DW	032H
	DW	030H
	DW	034H
	DW	034H
	DW	032H
	DW	030H
	DW	034H
	DW	035H
	DW	032H
	DW	030H
	DW	034H
	DW	036H
	DW	032H
	DW	030H
	DW	034H
	DW	037H
	DW	032H
	DW	030H
	DW	034H
	DW	038H
	DW	032H
	DW	030H
	DW	034H
	DW	039H
	DW	032H
	DW	030H
	DW	035H
	DW	030H
	DW	032H
	DW	030H
	DW	035H
	DW	031H
	DW	032H
	DW	030H
	DW	035H
	DW	032H
	DW	032H
	DW	030H
	DW	035H
	DW	033H
	DW	032H
	DW	030H
	DW	035H
	DW	034H
	DW	032H
	DW	030H
	DW	035H
	DW	035H
	DW	032H
	DW	030H
	DW	035H
	DW	036H
	DW	032H
	DW	030H
	DW	035H
	DW	037H
	DW	032H
	DW	030H
	DW	035H
	DW	038H
	DW	032H
	DW	030H
	DW	035H
	DW	039H
	DW	032H
	DW	030H
	DW	036H
	DW	030H
	DW	032H
	DW	030H
	DW	036H
	DW	031H
	DW	032H
	DW	030H
	DW	036H
	DW	032H
	DW	032H
	DW	030H
	DW	036H
	DW	033H
	DW	032H
	DW	030H
	DW	036H
	DW	034H
	DW	032H
	DW	030H
	DW	036H
	DW	035H
	DW	032H
	DW	030H
	DW	036H
	DW	036H
	DW	032H
	DW	030H
	DW	036H
	DW	037H
	DW	032H
	DW	030H
	DW	036H
	DW	038H
	DW	032H
	DW	030H
	DW	036H
	DW	039H
	DW	032H
	DW	030H
	DW	037H
	DW	030H
	DW	032H
	DW	030H
	DW	037H
	DW	031H
	DW	032H
	DW	030H
	DW	037H
	DW	032H
	DW	032H
	DW	030H
	DW	037H
	DW	033H
	DW	032H
	DW	030H
	DW	037H
	DW	034H
	DW	032H
	DW	030H
	DW	037H
	DW	035H
	DW	032H
	DW	030H
	DW	037H
	DW	036H
	DW	032H
	DW	030H
	DW	037H
	DW	037H
	DW	032H
	DW	030H
	DW	037H
	DW	038H
	DW	032H
	DW	030H
	DW	037H
	DW	039H
	DW	032H
	DW	030H
	DW	038H
	DW	030H
	DW	032H
	DW	030H
	DW	038H
	DW	031H
	DW	032H
	DW	030H
	DW	038H
	DW	032H
	DW	032H
	DW	030H
	DW	038H
	DW	033H
	DW	032H
	DW	030H
	DW	038H
	DW	034H
	DW	032H
	DW	030H
	DW	038H
	DW	035H
	DW	032H
	DW	030H
	DW	038H
	DW	036H
	DW	032H
	DW	030H
	DW	038H
	DW	037H
	DW	032H
	DW	030H
	DW	038H
	DW	038H
	DW	032H
	DW	030H
	DW	038H
	DW	039H
	DW	032H
	DW	030H
	DW	039H
	DW	030H
	DW	032H
	DW	030H
	DW	039H
	DW	031H
	DW	032H
	DW	030H
	DW	039H
	DW	032H
	DW	032H
	DW	030H
	DW	039H
	DW	033H
	DW	032H
	DW	030H
	DW	039H
	DW	034H
	DW	032H
	DW	030H
	DW	039H
	DW	035H
	DW	032H
	DW	030H
	DW	039H
	DW	036H
	DW	032H
	DW	030H
	DW	039H
	DW	037H
	DW	032H
	DW	030H
	DW	039H
	DW	038H
	DW	032H
	DW	030H
	DW	039H
	DW	039H
	DW	032H
	DW	031H
	DW	030H
	DW	030H
	DW	032H
	DW	031H
	DW	030H
	DW	031H
	DW	032H
	DW	031H
	DW	030H
	DW	032H
	DW	032H
	DW	031H
	DW	030H
	DW	033H
	DW	032H
	DW	031H
	DW	030H
	DW	034H
	DW	032H
	DW	031H
	DW	030H
	DW	035H
	DW	032H
	DW	031H
	DW	030H
	DW	036H
	DW	032H
	DW	031H
	DW	030H
	DW	037H
	DW	032H
	DW	031H
	DW	030H
	DW	038H
	DW	032H
	DW	031H
	DW	030H
	DW	039H
	DW	032H
	DW	031H
	DW	031H
	DW	030H
	DW	032H
	DW	031H
	DW	031H
	DW	031H
	DW	032H
	DW	031H
	DW	031H
	DW	032H
	DW	032H
	DW	031H
	DW	031H
	DW	033H
	DW	032H
	DW	031H
	DW	031H
	DW	034H
	DW	032H
	DW	031H
	DW	031H
	DW	035H
	DW	032H
	DW	031H
	DW	031H
	DW	036H
	DW	032H
	DW	031H
	DW	031H
	DW	037H
	DW	032H
	DW	031H
	DW	031H
	DW	038H
	DW	032H
	DW	031H
	DW	031H
	DW	039H
	DW	032H
	DW	031H
	DW	032H
	DW	030H
	DW	032H
	DW	031H
	DW	032H
	DW	031H
	DW	032H
	DW	031H
	DW	032H
	DW	032H
	DW	032H
	DW	031H
	DW	032H
	DW	033H
	DW	032H
	DW	031H
	DW	032H
	DW	034H
	DW	032H
	DW	031H
	DW	032H
	DW	035H
	DW	032H
	DW	031H
	DW	032H
	DW	036H
	DW	032H
	DW	031H
	DW	032H
	DW	037H
	DW	032H
	DW	031H
	DW	032H
	DW	038H
	DW	032H
	DW	031H
	DW	032H
	DW	039H
	DW	032H
	DW	031H
	DW	033H
	DW	030H
	DW	032H
	DW	031H
	DW	033H
	DW	031H
	DW	032H
	DW	031H
	DW	033H
	DW	032H
	DW	032H
	DW	031H
	DW	033H
	DW	033H
	DW	032H
	DW	031H
	DW	033H
	DW	034H
	DW	032H
	DW	031H
	DW	033H
	DW	035H
	DW	032H
	DW	031H
	DW	033H
	DW	036H
	DW	032H
	DW	031H
	DW	033H
	DW	037H
	DW	032H
	DW	031H
	DW	033H
	DW	038H
	DW	032H
	DW	031H
	DW	033H
	DW	039H
	DW	032H
	DW	031H
	DW	034H
	DW	030H
	DW	032H
	DW	031H
	DW	034H
	DW	031H
	DW	032H
	DW	031H
	DW	034H
	DW	032H
	DW	032H
	DW	031H
	DW	034H
	DW	033H
	DW	032H
	DW	031H
	DW	034H
	DW	034H
	DW	032H
	DW	031H
	DW	034H
	DW	035H
	DW	032H
	DW	031H
	DW	034H
	DW	036H
	DW	032H
	DW	031H
	DW	034H
	DW	037H
	DW	032H
	DW	031H
	DW	034H
	DW	038H
	DW	032H
	DW	031H
	DW	034H
	DW	039H
	DW	032H
	DW	031H
	DW	035H
	DW	030H
	DW	032H
	DW	031H
	DW	035H
	DW	031H
	DW	032H
	DW	031H
	DW	035H
	DW	032H
	DW	032H
	DW	031H
	DW	035H
	DW	033H
	DW	032H
	DW	031H
	DW	035H
	DW	034H
	DW	032H
	DW	031H
	DW	035H
	DW	035H
	DW	032H
	DW	031H
	DW	035H
	DW	036H
	DW	032H
	DW	031H
	DW	035H
	DW	037H
	DW	032H
	DW	031H
	DW	035H
	DW	038H
	DW	032H
	DW	031H
	DW	035H
	DW	039H
	DW	032H
	DW	031H
	DW	036H
	DW	030H
	DW	032H
	DW	031H
	DW	036H
	DW	031H
	DW	032H
	DW	031H
	DW	036H
	DW	032H
	DW	032H
	DW	031H
	DW	036H
	DW	033H
	DW	032H
	DW	031H
	DW	036H
	DW	034H
	DW	032H
	DW	031H
	DW	036H
	DW	035H
	DW	032H
	DW	031H
	DW	036H
	DW	036H
	DW	032H
	DW	031H
	DW	036H
	DW	037H
	DW	032H
	DW	031H
	DW	036H
	DW	038H
	DW	032H
	DW	031H
	DW	036H
	DW	039H
	DW	032H
	DW	031H
	DW	037H
	DW	030H
	DW	032H
	DW	031H
	DW	037H
	DW	031H
	DW	032H
	DW	031H
	DW	037H
	DW	032H
	DW	032H
	DW	031H
	DW	037H
	DW	033H
	DW	032H
	DW	031H
	DW	037H
	DW	034H
	DW	032H
	DW	031H
	DW	037H
	DW	035H
	DW	032H
	DW	031H
	DW	037H
	DW	036H
	DW	032H
	DW	031H
	DW	037H
	DW	037H
	DW	032H
	DW	031H
	DW	037H
	DW	038H
	DW	032H
	DW	031H
	DW	037H
	DW	039H
	DW	032H
	DW	031H
	DW	038H
	DW	030H
	DW	032H
	DW	031H
	DW	038H
	DW	031H
	DW	032H
	DW	031H
	DW	038H
	DW	032H
	DW	032H
	DW	031H
	DW	038H
	DW	033H
	DW	032H
	DW	031H
	DW	038H
	DW	034H
	DW	032H
	DW	031H
	DW	038H
	DW	035H
	DW	032H
	DW	031H
	DW	038H
	DW	036H
	DW	032H
	DW	031H
	DW	038H
	DW	037H
	DW	032H
	DW	031H
	DW	038H
	DW	038H
	DW	032H
	DW	031H
	DW	038H
	DW	039H
	DW	032H
	DW	031H
	DW	039H
	DW	030H
	DW	032H
	DW	031H
	DW	039H
	DW	031H
	DW	032H
	DW	031H
	DW	039H
	DW	032H
	DW	032H
	DW	031H
	DW	039H
	DW	033H
	DW	032H
	DW	031H
	DW	039H
	DW	034H
	DW	032H
	DW	031H
	DW	039H
	DW	035H
	DW	032H
	DW	031H
	DW	039H
	DW	036H
	DW	032H
	DW	031H
	DW	039H
	DW	037H
	DW	032H
	DW	031H
	DW	039H
	DW	038H
	DW	032H
	DW	031H
	DW	039H
	DW	039H
	DW	032H
	DW	032H
	DW	030H
	DW	030H
	DW	032H
	DW	032H
	DW	030H
	DW	031H
	DW	032H
	DW	032H
	DW	030H
	DW	032H
	DW	032H
	DW	032H
	DW	030H
	DW	033H
	DW	032H
	DW	032H
	DW	030H
	DW	034H
	DW	032H
	DW	032H
	DW	030H
	DW	035H
	DW	032H
	DW	032H
	DW	030H
	DW	036H
	DW	032H
	DW	032H
	DW	030H
	DW	037H
	DW	032H
	DW	032H
	DW	030H
	DW	038H
	DW	032H
	DW	032H
	DW	030H
	DW	039H
	DW	032H
	DW	032H
	DW	031H
	DW	030H
	DW	032H
	DW	032H
	DW	031H
	DW	031H
	DW	032H
	DW	032H
	DW	031H
	DW	032H
	DW	032H
	DW	032H
	DW	031H
	DW	033H
	DW	032H
	DW	032H
	DW	031H
	DW	034H
	DW	032H
	DW	032H
	DW	031H
	DW	035H
	DW	032H
	DW	032H
	DW	031H
	DW	036H
	DW	032H
	DW	032H
	DW	031H
	DW	037H
	DW	032H
	DW	032H
	DW	031H
	DW	038H
	DW	032H
	DW	032H
	DW	031H
	DW	039H
	DW	032H
	DW	032H
	DW	032H
	DW	030H
	DW	032H
	DW	032H
	DW	032H
	DW	031H
	DW	032H
	DW	032H
	DW	032H
	DW	032H
	DW	032H
	DW	032H
	DW	032H
	DW	033H
	DW	032H
	DW	032H
	DW	032H
	DW	034H
	DW	032H
	DW	032H
	DW	032H
	DW	035H
	DW	032H
	DW	032H
	DW	032H
	DW	036H
	DW	032H
	DW	032H
	DW	032H
	DW	037H
	DW	032H
	DW	032H
	DW	032H
	DW	038H
	DW	032H
	DW	032H
	DW	032H
	DW	039H
	DW	032H
	DW	032H
	DW	033H
	DW	030H
	DW	032H
	DW	032H
	DW	033H
	DW	031H
	DW	032H
	DW	032H
	DW	033H
	DW	032H
	DW	032H
	DW	032H
	DW	033H
	DW	033H
	DW	032H
	DW	032H
	DW	033H
	DW	034H
	DW	032H
	DW	032H
	DW	033H
	DW	035H
	DW	032H
	DW	032H
	DW	033H
	DW	036H
	DW	032H
	DW	032H
	DW	033H
	DW	037H
	DW	032H
	DW	032H
	DW	033H
	DW	038H
	DW	032H
	DW	032H
	DW	033H
	DW	039H
	DW	032H
	DW	032H
	DW	034H
	DW	030H
	DW	032H
	DW	032H
	DW	034H
	DW	031H
	DW	032H
	DW	032H
	DW	034H
	DW	032H
	DW	032H
	DW	032H
	DW	034H
	DW	033H
	DW	032H
	DW	032H
	DW	034H
	DW	034H
	DW	032H
	DW	032H
	DW	034H
	DW	035H
	DW	032H
	DW	032H
	DW	034H
	DW	036H
	DW	032H
	DW	032H
	DW	034H
	DW	037H
	DW	032H
	DW	032H
	DW	034H
	DW	038H
	DW	032H
	DW	032H
	DW	034H
	DW	039H
	DW	032H
	DW	032H
	DW	035H
	DW	030H
	DW	032H
	DW	032H
	DW	035H
	DW	031H
	DW	032H
	DW	032H
	DW	035H
	DW	032H
	DW	032H
	DW	032H
	DW	035H
	DW	033H
	DW	032H
	DW	032H
	DW	035H
	DW	034H
	DW	032H
	DW	032H
	DW	035H
	DW	035H
	DW	032H
	DW	032H
	DW	035H
	DW	036H
	DW	032H
	DW	032H
	DW	035H
	DW	037H
	DW	032H
	DW	032H
	DW	035H
	DW	038H
	DW	032H
	DW	032H
	DW	035H
	DW	039H
	DW	032H
	DW	032H
	DW	036H
	DW	030H
	DW	032H
	DW	032H
	DW	036H
	DW	031H
	DW	032H
	DW	032H
	DW	036H
	DW	032H
	DW	032H
	DW	032H
	DW	036H
	DW	033H
	DW	032H
	DW	032H
	DW	036H
	DW	034H
	DW	032H
	DW	032H
	DW	036H
	DW	035H
	DW	032H
	DW	032H
	DW	036H
	DW	036H
	DW	032H
	DW	032H
	DW	036H
	DW	037H
	DW	032H
	DW	032H
	DW	036H
	DW	038H
	DW	032H
	DW	032H
	DW	036H
	DW	039H
	DW	032H
	DW	032H
	DW	037H
	DW	030H
	DW	032H
	DW	032H
	DW	037H
	DW	031H
	DW	032H
	DW	032H
	DW	037H
	DW	032H
	DW	032H
	DW	032H
	DW	037H
	DW	033H
	DW	032H
	DW	032H
	DW	037H
	DW	034H
	DW	032H
	DW	032H
	DW	037H
	DW	035H
	DW	032H
	DW	032H
	DW	037H
	DW	036H
	DW	032H
	DW	032H
	DW	037H
	DW	037H
	DW	032H
	DW	032H
	DW	037H
	DW	038H
	DW	032H
	DW	032H
	DW	037H
	DW	039H
	DW	032H
	DW	032H
	DW	038H
	DW	030H
	DW	032H
	DW	032H
	DW	038H
	DW	031H
	DW	032H
	DW	032H
	DW	038H
	DW	032H
	DW	032H
	DW	032H
	DW	038H
	DW	033H
	DW	032H
	DW	032H
	DW	038H
	DW	034H
	DW	032H
	DW	032H
	DW	038H
	DW	035H
	DW	032H
	DW	032H
	DW	038H
	DW	036H
	DW	032H
	DW	032H
	DW	038H
	DW	037H
	DW	032H
	DW	032H
	DW	038H
	DW	038H
	DW	032H
	DW	032H
	DW	038H
	DW	039H
	DW	032H
	DW	032H
	DW	039H
	DW	030H
	DW	032H
	DW	032H
	DW	039H
	DW	031H
	DW	032H
	DW	032H
	DW	039H
	DW	032H
	DW	032H
	DW	032H
	DW	039H
	DW	033H
	DW	032H
	DW	032H
	DW	039H
	DW	034H
	DW	032H
	DW	032H
	DW	039H
	DW	035H
	DW	032H
	DW	032H
	DW	039H
	DW	036H
	DW	032H
	DW	032H
	DW	039H
	DW	037H
	DW	032H
	DW	032H
	DW	039H
	DW	038H
	DW	032H
	DW	032H
	DW	039H
	DW	039H
	DW	032H
	DW	033H
	DW	030H
	DW	030H
	DW	032H
	DW	033H
	DW	030H
	DW	031H
	DW	032H
	DW	033H
	DW	030H
	DW	032H
	DW	032H
	DW	033H
	DW	030H
	DW	033H
	DW	032H
	DW	033H
	DW	030H
	DW	034H
	DW	032H
	DW	033H
	DW	030H
	DW	035H
	DW	032H
	DW	033H
	DW	030H
	DW	036H
	DW	032H
	DW	033H
	DW	030H
	DW	037H
	DW	032H
	DW	033H
	DW	030H
	DW	038H
	DW	032H
	DW	033H
	DW	030H
	DW	039H
	DW	032H
	DW	033H
	DW	031H
	DW	030H
	DW	032H
	DW	033H
	DW	031H
	DW	031H
	DW	032H
	DW	033H
	DW	031H
	DW	032H
	DW	032H
	DW	033H
	DW	031H
	DW	033H
	DW	032H
	DW	033H
	DW	031H
	DW	034H
	DW	032H
	DW	033H
	DW	031H
	DW	035H
	DW	032H
	DW	033H
	DW	031H
	DW	036H
	DW	032H
	DW	033H
	DW	031H
	DW	037H
	DW	032H
	DW	033H
	DW	031H
	DW	038H
	DW	032H
	DW	033H
	DW	031H
	DW	039H
	DW	032H
	DW	033H
	DW	032H
	DW	030H
	DW	032H
	DW	033H
	DW	032H
	DW	031H
	DW	032H
	DW	033H
	DW	032H
	DW	032H
	DW	032H
	DW	033H
	DW	032H
	DW	033H
	DW	032H
	DW	033H
	DW	032H
	DW	034H
	DW	032H
	DW	033H
	DW	032H
	DW	035H
	DW	032H
	DW	033H
	DW	032H
	DW	036H
	DW	032H
	DW	033H
	DW	032H
	DW	037H
	DW	032H
	DW	033H
	DW	032H
	DW	038H
	DW	032H
	DW	033H
	DW	032H
	DW	039H
	DW	032H
	DW	033H
	DW	033H
	DW	030H
	DW	032H
	DW	033H
	DW	033H
	DW	031H
	DW	032H
	DW	033H
	DW	033H
	DW	032H
	DW	032H
	DW	033H
	DW	033H
	DW	033H
	DW	032H
	DW	033H
	DW	033H
	DW	034H
	DW	032H
	DW	033H
	DW	033H
	DW	035H
	DW	032H
	DW	033H
	DW	033H
	DW	036H
	DW	032H
	DW	033H
	DW	033H
	DW	037H
	DW	032H
	DW	033H
	DW	033H
	DW	038H
	DW	032H
	DW	033H
	DW	033H
	DW	039H
	DW	032H
	DW	033H
	DW	034H
	DW	030H
	DW	032H
	DW	033H
	DW	034H
	DW	031H
	DW	032H
	DW	033H
	DW	034H
	DW	032H
	DW	032H
	DW	033H
	DW	034H
	DW	033H
	DW	032H
	DW	033H
	DW	034H
	DW	034H
	DW	032H
	DW	033H
	DW	034H
	DW	035H
	DW	032H
	DW	033H
	DW	034H
	DW	036H
	DW	032H
	DW	033H
	DW	034H
	DW	037H
	DW	032H
	DW	033H
	DW	034H
	DW	038H
	DW	032H
	DW	033H
	DW	034H
	DW	039H
	DW	032H
	DW	033H
	DW	035H
	DW	030H
	DW	032H
	DW	033H
	DW	035H
	DW	031H
	DW	032H
	DW	033H
	DW	035H
	DW	032H
	DW	032H
	DW	033H
	DW	035H
	DW	033H
	DW	032H
	DW	033H
	DW	035H
	DW	034H
	DW	032H
	DW	033H
	DW	035H
	DW	035H
	DW	032H
	DW	033H
	DW	035H
	DW	036H
	DW	032H
	DW	033H
	DW	035H
	DW	037H
	DW	032H
	DW	033H
	DW	035H
	DW	038H
	DW	032H
	DW	033H
	DW	035H
	DW	039H
	DW	032H
	DW	033H
	DW	036H
	DW	030H
	DW	032H
	DW	033H
	DW	036H
	DW	031H
	DW	032H
	DW	033H
	DW	036H
	DW	032H
	DW	032H
	DW	033H
	DW	036H
	DW	033H
	DW	032H
	DW	033H
	DW	036H
	DW	034H
	DW	032H
	DW	033H
	DW	036H
	DW	035H
	DW	032H
	DW	033H
	DW	036H
	DW	036H
	DW	032H
	DW	033H
	DW	036H
	DW	037H
	DW	032H
	DW	033H
	DW	036H
	DW	038H
	DW	032H
	DW	033H
	DW	036H
	DW	039H
	DW	032H
	DW	033H
	DW	037H
	DW	030H
	DW	032H
	DW	033H
	DW	037H
	DW	031H
	DW	032H
	DW	033H
	DW	037H
	DW	032H
	DW	032H
	DW	033H
	DW	037H
	DW	033H
	DW	032H
	DW	033H
	DW	037H
	DW	034H
	DW	032H
	DW	033H
	DW	037H
	DW	035H
	DW	032H
	DW	033H
	DW	037H
	DW	036H
	DW	032H
	DW	033H
	DW	037H
	DW	037H
	DW	032H
	DW	033H
	DW	037H
	DW	038H
	DW	032H
	DW	033H
	DW	037H
	DW	039H
	DW	032H
	DW	033H
	DW	038H
	DW	030H
	DW	032H
	DW	033H
	DW	038H
	DW	031H
	DW	032H
	DW	033H
	DW	038H
	DW	032H
	DW	032H
	DW	033H
	DW	038H
	DW	033H
	DW	032H
	DW	033H
	DW	038H
	DW	034H
	DW	032H
	DW	033H
	DW	038H
	DW	035H
	DW	032H
	DW	033H
	DW	038H
	DW	036H
	DW	032H
	DW	033H
	DW	038H
	DW	037H
	DW	032H
	DW	033H
	DW	038H
	DW	038H
	DW	032H
	DW	033H
	DW	038H
	DW	039H
	DW	032H
	DW	033H
	DW	039H
	DW	030H
	DW	032H
	DW	033H
	DW	039H
	DW	031H
	DW	032H
	DW	033H
	DW	039H
	DW	032H
	DW	032H
	DW	033H
	DW	039H
	DW	033H
	DW	032H
	DW	033H
	DW	039H
	DW	034H
	DW	032H
	DW	033H
	DW	039H
	DW	035H
	DW	032H
	DW	033H
	DW	039H
	DW	036H
	DW	032H
	DW	033H
	DW	039H
	DW	037H
	DW	032H
	DW	033H
	DW	039H
	DW	038H
	DW	032H
	DW	033H
	DW	039H
	DW	039H
	DW	032H
	DW	034H
	DW	030H
	DW	030H
	DW	032H
	DW	034H
	DW	030H
	DW	031H
	DW	032H
	DW	034H
	DW	030H
	DW	032H
	DW	032H
	DW	034H
	DW	030H
	DW	033H
	DW	032H
	DW	034H
	DW	030H
	DW	034H
	DW	032H
	DW	034H
	DW	030H
	DW	035H
	DW	032H
	DW	034H
	DW	030H
	DW	036H
	DW	032H
	DW	034H
	DW	030H
	DW	037H
	DW	032H
	DW	034H
	DW	030H
	DW	038H
	DW	032H
	DW	034H
	DW	030H
	DW	039H
	DW	032H
	DW	034H
	DW	031H
	DW	030H
	DW	032H
	DW	034H
	DW	031H
	DW	031H
	DW	032H
	DW	034H
	DW	031H
	DW	032H
	DW	032H
	DW	034H
	DW	031H
	DW	033H
	DW	032H
	DW	034H
	DW	031H
	DW	034H
	DW	032H
	DW	034H
	DW	031H
	DW	035H
	DW	032H
	DW	034H
	DW	031H
	DW	036H
	DW	032H
	DW	034H
	DW	031H
	DW	037H
	DW	032H
	DW	034H
	DW	031H
	DW	038H
	DW	032H
	DW	034H
	DW	031H
	DW	039H
	DW	032H
	DW	034H
	DW	032H
	DW	030H
	DW	032H
	DW	034H
	DW	032H
	DW	031H
	DW	032H
	DW	034H
	DW	032H
	DW	032H
	DW	032H
	DW	034H
	DW	032H
	DW	033H
	DW	032H
	DW	034H
	DW	032H
	DW	034H
	DW	032H
	DW	034H
	DW	032H
	DW	035H
	DW	032H
	DW	034H
	DW	032H
	DW	036H
	DW	032H
	DW	034H
	DW	032H
	DW	037H
	DW	032H
	DW	034H
	DW	032H
	DW	038H
	DW	032H
	DW	034H
	DW	032H
	DW	039H
	DW	032H
	DW	034H
	DW	033H
	DW	030H
	DW	032H
	DW	034H
	DW	033H
	DW	031H
	DW	032H
	DW	034H
	DW	033H
	DW	032H
	DW	032H
	DW	034H
	DW	033H
	DW	033H
	DW	032H
	DW	034H
	DW	033H
	DW	034H
	DW	032H
	DW	034H
	DW	033H
	DW	035H
	DW	032H
	DW	034H
	DW	033H
	DW	036H
	DW	032H
	DW	034H
	DW	033H
	DW	037H
	DW	032H
	DW	034H
	DW	033H
	DW	038H
	DW	032H
	DW	034H
	DW	033H
	DW	039H
	DW	032H
	DW	034H
	DW	034H
	DW	030H
	DW	032H
	DW	034H
	DW	034H
	DW	031H
	DW	032H
	DW	034H
	DW	034H
	DW	032H
	DW	032H
	DW	034H
	DW	034H
	DW	033H
	DW	032H
	DW	034H
	DW	034H
	DW	034H
	DW	032H
	DW	034H
	DW	034H
	DW	035H
	DW	032H
	DW	034H
	DW	034H
	DW	036H
	DW	032H
	DW	034H
	DW	034H
	DW	037H
	DW	032H
	DW	034H
	DW	034H
	DW	038H
	DW	032H
	DW	034H
	DW	034H
	DW	039H
	DW	032H
	DW	034H
	DW	035H
	DW	030H
	DW	032H
	DW	034H
	DW	035H
	DW	031H
	DW	032H
	DW	034H
	DW	035H
	DW	032H
	DW	032H
	DW	034H
	DW	035H
	DW	033H
	DW	032H
	DW	034H
	DW	035H
	DW	034H
	DW	032H
	DW	034H
	DW	035H
	DW	035H
	DW	032H
	DW	034H
	DW	035H
	DW	036H
	DW	032H
	DW	034H
	DW	035H
	DW	037H
	DW	032H
	DW	034H
	DW	035H
	DW	038H
	DW	032H
	DW	034H
	DW	035H
	DW	039H
	DW	032H
	DW	034H
	DW	036H
	DW	030H
	DW	032H
	DW	034H
	DW	036H
	DW	031H
	DW	032H
	DW	034H
	DW	036H
	DW	032H
	DW	032H
	DW	034H
	DW	036H
	DW	033H
	DW	032H
	DW	034H
	DW	036H
	DW	034H
	DW	032H
	DW	034H
	DW	036H
	DW	035H
	DW	032H
	DW	034H
	DW	036H
	DW	036H
	DW	032H
	DW	034H
	DW	036H
	DW	037H
	DW	032H
	DW	034H
	DW	036H
	DW	038H
	DW	032H
	DW	034H
	DW	036H
	DW	039H
	DW	032H
	DW	034H
	DW	037H
	DW	030H
	DW	032H
	DW	034H
	DW	037H
	DW	031H
	DW	032H
	DW	034H
	DW	037H
	DW	032H
	DW	032H
	DW	034H
	DW	037H
	DW	033H
	DW	032H
	DW	034H
	DW	037H
	DW	034H
	DW	032H
	DW	034H
	DW	037H
	DW	035H
	DW	032H
	DW	034H
	DW	037H
	DW	036H
	DW	032H
	DW	034H
	DW	037H
	DW	037H
	DW	032H
	DW	034H
	DW	037H
	DW	038H
	DW	032H
	DW	034H
	DW	037H
	DW	039H
	DW	032H
	DW	034H
	DW	038H
	DW	030H
	DW	032H
	DW	034H
	DW	038H
	DW	031H
	DW	032H
	DW	034H
	DW	038H
	DW	032H
	DW	032H
	DW	034H
	DW	038H
	DW	033H
	DW	032H
	DW	034H
	DW	038H
	DW	034H
	DW	032H
	DW	034H
	DW	038H
	DW	035H
	DW	032H
	DW	034H
	DW	038H
	DW	036H
	DW	032H
	DW	034H
	DW	038H
	DW	037H
	DW	032H
	DW	034H
	DW	038H
	DW	038H
	DW	032H
	DW	034H
	DW	038H
	DW	039H
	DW	032H
	DW	034H
	DW	039H
	DW	030H
	DW	032H
	DW	034H
	DW	039H
	DW	031H
	DW	032H
	DW	034H
	DW	039H
	DW	032H
	DW	032H
	DW	034H
	DW	039H
	DW	033H
	DW	032H
	DW	034H
	DW	039H
	DW	034H
	DW	032H
	DW	034H
	DW	039H
	DW	035H
	DW	032H
	DW	034H
	DW	039H
	DW	036H
	DW	032H
	DW	034H
	DW	039H
	DW	037H
	DW	032H
	DW	034H
	DW	039H
	DW	038H
	DW	032H
	DW	034H
	DW	039H
	DW	039H
	DW	032H
	DW	035H
	DW	030H
	DW	030H
	DW	032H
	DW	035H
	DW	030H
	DW	031H
	DW	032H
	DW	035H
	DW	030H
	DW	032H
	DW	032H
	DW	035H
	DW	030H
	DW	033H
	DW	032H
	DW	035H
	DW	030H
	DW	034H
	DW	032H
	DW	035H
	DW	030H
	DW	035H
	DW	032H
	DW	035H
	DW	030H
	DW	036H
	DW	032H
	DW	035H
	DW	030H
	DW	037H
	DW	032H
	DW	035H
	DW	030H
	DW	038H
	DW	032H
	DW	035H
	DW	030H
	DW	039H
	DW	032H
	DW	035H
	DW	031H
	DW	030H
	DW	032H
	DW	035H
	DW	031H
	DW	031H
	DW	032H
	DW	035H
	DW	031H
	DW	032H
	DW	032H
	DW	035H
	DW	031H
	DW	033H
	DW	032H
	DW	035H
	DW	031H
	DW	034H
	DW	032H
	DW	035H
	DW	031H
	DW	035H
	DW	032H
	DW	035H
	DW	031H
	DW	036H
	DW	032H
	DW	035H
	DW	031H
	DW	037H
	DW	032H
	DW	035H
	DW	031H
	DW	038H
	DW	032H
	DW	035H
	DW	031H
	DW	039H
	DW	032H
	DW	035H
	DW	032H
	DW	030H
	DW	032H
	DW	035H
	DW	032H
	DW	031H
	DW	032H
	DW	035H
	DW	032H
	DW	032H
	DW	032H
	DW	035H
	DW	032H
	DW	033H
	DW	032H
	DW	035H
	DW	032H
	DW	034H
	DW	032H
	DW	035H
	DW	032H
	DW	035H
	DW	032H
	DW	035H
	DW	032H
	DW	036H
	DW	032H
	DW	035H
	DW	032H
	DW	037H
	DW	032H
	DW	035H
	DW	032H
	DW	038H
	DW	032H
	DW	035H
	DW	032H
	DW	039H
	DW	032H
	DW	035H
	DW	033H
	DW	030H
	DW	032H
	DW	035H
	DW	033H
	DW	031H
	DW	032H
	DW	035H
	DW	033H
	DW	032H
	DW	032H
	DW	035H
	DW	033H
	DW	033H
	DW	032H
	DW	035H
	DW	033H
	DW	034H
	DW	032H
	DW	035H
	DW	033H
	DW	035H
	DW	032H
	DW	035H
	DW	033H
	DW	036H
	DW	032H
	DW	035H
	DW	033H
	DW	037H
	DW	032H
	DW	035H
	DW	033H
	DW	038H
	DW	032H
	DW	035H
	DW	033H
	DW	039H
	DW	032H
	DW	035H
	DW	034H
	DW	030H
	DW	032H
	DW	035H
	DW	034H
	DW	031H
	DW	032H
	DW	035H
	DW	034H
	DW	032H
	DW	032H
	DW	035H
	DW	034H
	DW	033H
	DW	032H
	DW	035H
	DW	034H
	DW	034H
	DW	032H
	DW	035H
	DW	034H
	DW	035H
	DW	032H
	DW	035H
	DW	034H
	DW	036H
	DW	032H
	DW	035H
	DW	034H
	DW	037H
	DW	032H
	DW	035H
	DW	034H
	DW	038H
	DW	032H
	DW	035H
	DW	034H
	DW	039H
	DW	032H
	DW	035H
	DW	035H
	DW	030H
	DW	032H
	DW	035H
	DW	035H
	DW	031H
	DW	032H
	DW	035H
	DW	035H
	DW	032H
	DW	032H
	DW	035H
	DW	035H
	DW	033H
	DW	032H
	DW	035H
	DW	035H
	DW	034H
	DW	032H
	DW	035H
	DW	035H
	DW	035H
	DW	032H
	DW	035H
	DW	035H
	DW	036H
	DW	032H
	DW	035H
	DW	035H
	DW	037H
	DW	032H
	DW	035H
	DW	035H
	DW	038H
	DW	032H
	DW	035H
	DW	035H
	DW	039H
	DW	032H
	DW	035H
	DW	036H
	DW	030H
	DW	032H
	DW	035H
	DW	036H
	DW	031H
	DW	032H
	DW	035H
	DW	036H
	DW	032H
	DW	032H
	DW	035H
	DW	036H
	DW	033H
	DW	032H
	DW	035H
	DW	036H
	DW	034H
	DW	032H
	DW	035H
	DW	036H
	DW	035H
	DW	032H
	DW	035H
	DW	036H
	DW	036H
	DW	032H
	DW	035H
	DW	036H
	DW	037H
	DW	032H
	DW	035H
	DW	036H
	DW	038H
	DW	032H
	DW	035H
	DW	036H
	DW	039H
	DW	032H
	DW	035H
	DW	037H
	DW	030H
	DW	032H
	DW	035H
	DW	037H
	DW	031H
	DW	032H
	DW	035H
	DW	037H
	DW	032H
	DW	032H
	DW	035H
	DW	037H
	DW	033H
	DW	032H
	DW	035H
	DW	037H
	DW	034H
	DW	032H
	DW	035H
	DW	037H
	DW	035H
	DW	032H
	DW	035H
	DW	037H
	DW	036H
	DW	032H
	DW	035H
	DW	037H
	DW	037H
	DW	032H
	DW	035H
	DW	037H
	DW	038H
	DW	032H
	DW	035H
	DW	037H
	DW	039H
	DW	032H
	DW	035H
	DW	038H
	DW	030H
	DW	032H
	DW	035H
	DW	038H
	DW	031H
	DW	032H
	DW	035H
	DW	038H
	DW	032H
	DW	032H
	DW	035H
	DW	038H
	DW	033H
	DW	032H
	DW	035H
	DW	038H
	DW	034H
	DW	032H
	DW	035H
	DW	038H
	DW	035H
	DW	032H
	DW	035H
	DW	038H
	DW	036H
	DW	032H
	DW	035H
	DW	038H
	DW	037H
	DW	032H
	DW	035H
	DW	038H
	DW	038H
	DW	032H
	DW	035H
	DW	038H
	DW	039H
	DW	032H
	DW	035H
	DW	039H
	DW	030H
	DW	032H
	DW	035H
	DW	039H
	DW	031H
	DW	032H
	DW	035H
	DW	039H
	DW	032H
	DW	032H
	DW	035H
	DW	039H
	DW	033H
	DW	032H
	DW	035H
	DW	039H
	DW	034H
	DW	032H
	DW	035H
	DW	039H
	DW	035H
	DW	032H
	DW	035H
	DW	039H
	DW	036H
	DW	032H
	DW	035H
	DW	039H
	DW	037H
	DW	032H
	DW	035H
	DW	039H
	DW	038H
	DW	032H
	DW	035H
	DW	039H
	DW	039H
	DW	032H
	DW	036H
	DW	030H
	DW	030H
	DW	032H
	DW	036H
	DW	030H
	DW	031H
	DW	032H
	DW	036H
	DW	030H
	DW	032H
	DW	032H
	DW	036H
	DW	030H
	DW	033H
	DW	032H
	DW	036H
	DW	030H
	DW	034H
	DW	032H
	DW	036H
	DW	030H
	DW	035H
	DW	032H
	DW	036H
	DW	030H
	DW	036H
	DW	032H
	DW	036H
	DW	030H
	DW	037H
	DW	032H
	DW	036H
	DW	030H
	DW	038H
	DW	032H
	DW	036H
	DW	030H
	DW	039H
	DW	032H
	DW	036H
	DW	031H
	DW	030H
	DW	032H
	DW	036H
	DW	031H
	DW	031H
	DW	032H
	DW	036H
	DW	031H
	DW	032H
	DW	032H
	DW	036H
	DW	031H
	DW	033H
	DW	032H
	DW	036H
	DW	031H
	DW	034H
	DW	032H
	DW	036H
	DW	031H
	DW	035H
	DW	032H
	DW	036H
	DW	031H
	DW	036H
	DW	032H
	DW	036H
	DW	031H
	DW	037H
	DW	032H
	DW	036H
	DW	031H
	DW	038H
	DW	032H
	DW	036H
	DW	031H
	DW	039H
	DW	032H
	DW	036H
	DW	032H
	DW	030H
	DW	032H
	DW	036H
	DW	032H
	DW	031H
	DW	032H
	DW	036H
	DW	032H
	DW	032H
	DW	032H
	DW	036H
	DW	032H
	DW	033H
	DW	032H
	DW	036H
	DW	032H
	DW	034H
	DW	032H
	DW	036H
	DW	032H
	DW	035H
	DW	032H
	DW	036H
	DW	032H
	DW	036H
	DW	032H
	DW	036H
	DW	032H
	DW	037H
	DW	032H
	DW	036H
	DW	032H
	DW	038H
	DW	032H
	DW	036H
	DW	032H
	DW	039H
	DW	032H
	DW	036H
	DW	033H
	DW	030H
	DW	032H
	DW	036H
	DW	033H
	DW	031H
	DW	032H
	DW	036H
	DW	033H
	DW	032H
	DW	032H
	DW	036H
	DW	033H
	DW	033H
	DW	032H
	DW	036H
	DW	033H
	DW	034H
	DW	032H
	DW	036H
	DW	033H
	DW	035H
	DW	032H
	DW	036H
	DW	033H
	DW	036H
	DW	032H
	DW	036H
	DW	033H
	DW	037H
	DW	032H
	DW	036H
	DW	033H
	DW	038H
	DW	032H
	DW	036H
	DW	033H
	DW	039H
	DW	032H
	DW	036H
	DW	034H
	DW	030H
	DW	032H
	DW	036H
	DW	034H
	DW	031H
	DW	032H
	DW	036H
	DW	034H
	DW	032H
	DW	032H
	DW	036H
	DW	034H
	DW	033H
	DW	032H
	DW	036H
	DW	034H
	DW	034H
	DW	032H
	DW	036H
	DW	034H
	DW	035H
	DW	032H
	DW	036H
	DW	034H
	DW	036H
	DW	032H
	DW	036H
	DW	034H
	DW	037H
	DW	032H
	DW	036H
	DW	034H
	DW	038H
	DW	032H
	DW	036H
	DW	034H
	DW	039H
	DW	032H
	DW	036H
	DW	035H
	DW	030H
	DW	032H
	DW	036H
	DW	035H
	DW	031H
	DW	032H
	DW	036H
	DW	035H
	DW	032H
	DW	032H
	DW	036H
	DW	035H
	DW	033H
	DW	032H
	DW	036H
	DW	035H
	DW	034H
	DW	032H
	DW	036H
	DW	035H
	DW	035H
	DW	032H
	DW	036H
	DW	035H
	DW	036H
	DW	032H
	DW	036H
	DW	035H
	DW	037H
	DW	032H
	DW	036H
	DW	035H
	DW	038H
	DW	032H
	DW	036H
	DW	035H
	DW	039H
	DW	032H
	DW	036H
	DW	036H
	DW	030H
	DW	032H
	DW	036H
	DW	036H
	DW	031H
	DW	032H
	DW	036H
	DW	036H
	DW	032H
	DW	032H
	DW	036H
	DW	036H
	DW	033H
	DW	032H
	DW	036H
	DW	036H
	DW	034H
	DW	032H
	DW	036H
	DW	036H
	DW	035H
	DW	032H
	DW	036H
	DW	036H
	DW	036H
	DW	032H
	DW	036H
	DW	036H
	DW	037H
	DW	032H
	DW	036H
	DW	036H
	DW	038H
	DW	032H
	DW	036H
	DW	036H
	DW	039H
	DW	032H
	DW	036H
	DW	037H
	DW	030H
	DW	032H
	DW	036H
	DW	037H
	DW	031H
	DW	032H
	DW	036H
	DW	037H
	DW	032H
	DW	032H
	DW	036H
	DW	037H
	DW	033H
	DW	032H
	DW	036H
	DW	037H
	DW	034H
	DW	032H
	DW	036H
	DW	037H
	DW	035H
	DW	032H
	DW	036H
	DW	037H
	DW	036H
	DW	032H
	DW	036H
	DW	037H
	DW	037H
	DW	032H
	DW	036H
	DW	037H
	DW	038H
	DW	032H
	DW	036H
	DW	037H
	DW	039H
	DW	032H
	DW	036H
	DW	038H
	DW	030H
	DW	032H
	DW	036H
	DW	038H
	DW	031H
	DW	032H
	DW	036H
	DW	038H
	DW	032H
	DW	032H
	DW	036H
	DW	038H
	DW	033H
	DW	032H
	DW	036H
	DW	038H
	DW	034H
	DW	032H
	DW	036H
	DW	038H
	DW	035H
	DW	032H
	DW	036H
	DW	038H
	DW	036H
	DW	032H
	DW	036H
	DW	038H
	DW	037H
	DW	032H
	DW	036H
	DW	038H
	DW	038H
	DW	032H
	DW	036H
	DW	038H
	DW	039H
	DW	032H
	DW	036H
	DW	039H
	DW	030H
	DW	032H
	DW	036H
	DW	039H
	DW	031H
	DW	032H
	DW	036H
	DW	039H
	DW	032H
	DW	032H
	DW	036H
	DW	039H
	DW	033H
	DW	032H
	DW	036H
	DW	039H
	DW	034H
	DW	032H
	DW	036H
	DW	039H
	DW	035H
	DW	032H
	DW	036H
	DW	039H
	DW	036H
	DW	032H
	DW	036H
	DW	039H
	DW	037H
	DW	032H
	DW	036H
	DW	039H
	DW	038H
	DW	032H
	DW	036H
	DW	039H
	DW	039H
	DW	032H
	DW	037H
	DW	030H
	DW	030H
	DW	032H
	DW	037H
	DW	030H
	DW	031H
	DW	032H
	DW	037H
	DW	030H
	DW	032H
	DW	032H
	DW	037H
	DW	030H
	DW	033H
	DW	032H
	DW	037H
	DW	030H
	DW	034H
	DW	032H
	DW	037H
	DW	030H
	DW	035H
	DW	032H
	DW	037H
	DW	030H
	DW	036H
	DW	032H
	DW	037H
	DW	030H
	DW	037H
	DW	032H
	DW	037H
	DW	030H
	DW	038H
	DW	032H
	DW	037H
	DW	030H
	DW	039H
	DW	032H
	DW	037H
	DW	031H
	DW	030H
	DW	032H
	DW	037H
	DW	031H
	DW	031H
	DW	032H
	DW	037H
	DW	031H
	DW	032H
	DW	032H
	DW	037H
	DW	031H
	DW	033H
	DW	032H
	DW	037H
	DW	031H
	DW	034H
	DW	032H
	DW	037H
	DW	031H
	DW	035H
	DW	032H
	DW	037H
	DW	031H
	DW	036H
	DW	032H
	DW	037H
	DW	031H
	DW	037H
	DW	032H
	DW	037H
	DW	031H
	DW	038H
	DW	032H
	DW	037H
	DW	031H
	DW	039H
	DW	032H
	DW	037H
	DW	032H
	DW	030H
	DW	032H
	DW	037H
	DW	032H
	DW	031H
	DW	032H
	DW	037H
	DW	032H
	DW	032H
	DW	032H
	DW	037H
	DW	032H
	DW	033H
	DW	032H
	DW	037H
	DW	032H
	DW	034H
	DW	032H
	DW	037H
	DW	032H
	DW	035H
	DW	032H
	DW	037H
	DW	032H
	DW	036H
	DW	032H
	DW	037H
	DW	032H
	DW	037H
	DW	032H
	DW	037H
	DW	032H
	DW	038H
	DW	032H
	DW	037H
	DW	032H
	DW	039H
	DW	032H
	DW	037H
	DW	033H
	DW	030H
	DW	032H
	DW	037H
	DW	033H
	DW	031H
	DW	032H
	DW	037H
	DW	033H
	DW	032H
	DW	032H
	DW	037H
	DW	033H
	DW	033H
	DW	032H
	DW	037H
	DW	033H
	DW	034H
	DW	032H
	DW	037H
	DW	033H
	DW	035H
	DW	032H
	DW	037H
	DW	033H
	DW	036H
	DW	032H
	DW	037H
	DW	033H
	DW	037H
	DW	032H
	DW	037H
	DW	033H
	DW	038H
	DW	032H
	DW	037H
	DW	033H
	DW	039H
	DW	032H
	DW	037H
	DW	034H
	DW	030H
	DW	032H
	DW	037H
	DW	034H
	DW	031H
	DW	032H
	DW	037H
	DW	034H
	DW	032H
	DW	032H
	DW	037H
	DW	034H
	DW	033H
	DW	032H
	DW	037H
	DW	034H
	DW	034H
	DW	032H
	DW	037H
	DW	034H
	DW	035H
	DW	032H
	DW	037H
	DW	034H
	DW	036H
	DW	032H
	DW	037H
	DW	034H
	DW	037H
	DW	032H
	DW	037H
	DW	034H
	DW	038H
	DW	032H
	DW	037H
	DW	034H
	DW	039H
	DW	032H
	DW	037H
	DW	035H
	DW	030H
	DW	032H
	DW	037H
	DW	035H
	DW	031H
	DW	032H
	DW	037H
	DW	035H
	DW	032H
	DW	032H
	DW	037H
	DW	035H
	DW	033H
	DW	032H
	DW	037H
	DW	035H
	DW	034H
	DW	032H
	DW	037H
	DW	035H
	DW	035H
	DW	032H
	DW	037H
	DW	035H
	DW	036H
	DW	032H
	DW	037H
	DW	035H
	DW	037H
	DW	032H
	DW	037H
	DW	035H
	DW	038H
	DW	032H
	DW	037H
	DW	035H
	DW	039H
	DW	032H
	DW	037H
	DW	036H
	DW	030H
	DW	032H
	DW	037H
	DW	036H
	DW	031H
	DW	032H
	DW	037H
	DW	036H
	DW	032H
	DW	032H
	DW	037H
	DW	036H
	DW	033H
	DW	032H
	DW	037H
	DW	036H
	DW	034H
	DW	032H
	DW	037H
	DW	036H
	DW	035H
	DW	032H
	DW	037H
	DW	036H
	DW	036H
	DW	032H
	DW	037H
	DW	036H
	DW	037H
	DW	032H
	DW	037H
	DW	036H
	DW	038H
	DW	032H
	DW	037H
	DW	036H
	DW	039H
	DW	032H
	DW	037H
	DW	037H
	DW	030H
	DW	032H
	DW	037H
	DW	037H
	DW	031H
	DW	032H
	DW	037H
	DW	037H
	DW	032H
	DW	032H
	DW	037H
	DW	037H
	DW	033H
	DW	032H
	DW	037H
	DW	037H
	DW	034H
	DW	032H
	DW	037H
	DW	037H
	DW	035H
	DW	032H
	DW	037H
	DW	037H
	DW	036H
	DW	032H
	DW	037H
	DW	037H
	DW	037H
	DW	032H
	DW	037H
	DW	037H
	DW	038H
	DW	032H
	DW	037H
	DW	037H
	DW	039H
	DW	032H
	DW	037H
	DW	038H
	DW	030H
	DW	032H
	DW	037H
	DW	038H
	DW	031H
	DW	032H
	DW	037H
	DW	038H
	DW	032H
	DW	032H
	DW	037H
	DW	038H
	DW	033H
	DW	032H
	DW	037H
	DW	038H
	DW	034H
	DW	032H
	DW	037H
	DW	038H
	DW	035H
	DW	032H
	DW	037H
	DW	038H
	DW	036H
	DW	032H
	DW	037H
	DW	038H
	DW	037H
	DW	032H
	DW	037H
	DW	038H
	DW	038H
	DW	032H
	DW	037H
	DW	038H
	DW	039H
	DW	032H
	DW	037H
	DW	039H
	DW	030H
	DW	032H
	DW	037H
	DW	039H
	DW	031H
	DW	032H
	DW	037H
	DW	039H
	DW	032H
	DW	032H
	DW	037H
	DW	039H
	DW	033H
	DW	032H
	DW	037H
	DW	039H
	DW	034H
	DW	032H
	DW	037H
	DW	039H
	DW	035H
	DW	032H
	DW	037H
	DW	039H
	DW	036H
	DW	032H
	DW	037H
	DW	039H
	DW	037H
	DW	032H
	DW	037H
	DW	039H
	DW	038H
	DW	032H
	DW	037H
	DW	039H
	DW	039H
	DW	032H
	DW	038H
	DW	030H
	DW	030H
	DW	032H
	DW	038H
	DW	030H
	DW	031H
	DW	032H
	DW	038H
	DW	030H
	DW	032H
	DW	032H
	DW	038H
	DW	030H
	DW	033H
	DW	032H
	DW	038H
	DW	030H
	DW	034H
	DW	032H
	DW	038H
	DW	030H
	DW	035H
	DW	032H
	DW	038H
	DW	030H
	DW	036H
	DW	032H
	DW	038H
	DW	030H
	DW	037H
	DW	032H
	DW	038H
	DW	030H
	DW	038H
	DW	032H
	DW	038H
	DW	030H
	DW	039H
	DW	032H
	DW	038H
	DW	031H
	DW	030H
	DW	032H
	DW	038H
	DW	031H
	DW	031H
	DW	032H
	DW	038H
	DW	031H
	DW	032H
	DW	032H
	DW	038H
	DW	031H
	DW	033H
	DW	032H
	DW	038H
	DW	031H
	DW	034H
	DW	032H
	DW	038H
	DW	031H
	DW	035H
	DW	032H
	DW	038H
	DW	031H
	DW	036H
	DW	032H
	DW	038H
	DW	031H
	DW	037H
	DW	032H
	DW	038H
	DW	031H
	DW	038H
	DW	032H
	DW	038H
	DW	031H
	DW	039H
	DW	032H
	DW	038H
	DW	032H
	DW	030H
	DW	032H
	DW	038H
	DW	032H
	DW	031H
	DW	032H
	DW	038H
	DW	032H
	DW	032H
	DW	032H
	DW	038H
	DW	032H
	DW	033H
	DW	032H
	DW	038H
	DW	032H
	DW	034H
	DW	032H
	DW	038H
	DW	032H
	DW	035H
	DW	032H
	DW	038H
	DW	032H
	DW	036H
	DW	032H
	DW	038H
	DW	032H
	DW	037H
	DW	032H
	DW	038H
	DW	032H
	DW	038H
	DW	032H
	DW	038H
	DW	032H
	DW	039H
	DW	032H
	DW	038H
	DW	033H
	DW	030H
	DW	032H
	DW	038H
	DW	033H
	DW	031H
	DW	032H
	DW	038H
	DW	033H
	DW	032H
	DW	032H
	DW	038H
	DW	033H
	DW	033H
	DW	032H
	DW	038H
	DW	033H
	DW	034H
	DW	032H
	DW	038H
	DW	033H
	DW	035H
	DW	032H
	DW	038H
	DW	033H
	DW	036H
	DW	032H
	DW	038H
	DW	033H
	DW	037H
	DW	032H
	DW	038H
	DW	033H
	DW	038H
	DW	032H
	DW	038H
	DW	033H
	DW	039H
	DW	032H
	DW	038H
	DW	034H
	DW	030H
	DW	032H
	DW	038H
	DW	034H
	DW	031H
	DW	032H
	DW	038H
	DW	034H
	DW	032H
	DW	032H
	DW	038H
	DW	034H
	DW	033H
	DW	032H
	DW	038H
	DW	034H
	DW	034H
	DW	032H
	DW	038H
	DW	034H
	DW	035H
	DW	032H
	DW	038H
	DW	034H
	DW	036H
	DW	032H
	DW	038H
	DW	034H
	DW	037H
	DW	032H
	DW	038H
	DW	034H
	DW	038H
	DW	032H
	DW	038H
	DW	034H
	DW	039H
	DW	032H
	DW	038H
	DW	035H
	DW	030H
	DW	032H
	DW	038H
	DW	035H
	DW	031H
	DW	032H
	DW	038H
	DW	035H
	DW	032H
	DW	032H
	DW	038H
	DW	035H
	DW	033H
	DW	032H
	DW	038H
	DW	035H
	DW	034H
	DW	032H
	DW	038H
	DW	035H
	DW	035H
	DW	032H
	DW	038H
	DW	035H
	DW	036H
	DW	032H
	DW	038H
	DW	035H
	DW	037H
	DW	032H
	DW	038H
	DW	035H
	DW	038H
	DW	032H
	DW	038H
	DW	035H
	DW	039H
	DW	032H
	DW	038H
	DW	036H
	DW	030H
	DW	032H
	DW	038H
	DW	036H
	DW	031H
	DW	032H
	DW	038H
	DW	036H
	DW	032H
	DW	032H
	DW	038H
	DW	036H
	DW	033H
	DW	032H
	DW	038H
	DW	036H
	DW	034H
	DW	032H
	DW	038H
	DW	036H
	DW	035H
	DW	032H
	DW	038H
	DW	036H
	DW	036H
	DW	032H
	DW	038H
	DW	036H
	DW	037H
	DW	032H
	DW	038H
	DW	036H
	DW	038H
	DW	032H
	DW	038H
	DW	036H
	DW	039H
	DW	032H
	DW	038H
	DW	037H
	DW	030H
	DW	032H
	DW	038H
	DW	037H
	DW	031H
	DW	032H
	DW	038H
	DW	037H
	DW	032H
	DW	032H
	DW	038H
	DW	037H
	DW	033H
	DW	032H
	DW	038H
	DW	037H
	DW	034H
	DW	032H
	DW	038H
	DW	037H
	DW	035H
	DW	032H
	DW	038H
	DW	037H
	DW	036H
	DW	032H
	DW	038H
	DW	037H
	DW	037H
	DW	032H
	DW	038H
	DW	037H
	DW	038H
	DW	032H
	DW	038H
	DW	037H
	DW	039H
	DW	032H
	DW	038H
	DW	038H
	DW	030H
	DW	032H
	DW	038H
	DW	038H
	DW	031H
	DW	032H
	DW	038H
	DW	038H
	DW	032H
	DW	032H
	DW	038H
	DW	038H
	DW	033H
	DW	032H
	DW	038H
	DW	038H
	DW	034H
	DW	032H
	DW	038H
	DW	038H
	DW	035H
	DW	032H
	DW	038H
	DW	038H
	DW	036H
	DW	032H
	DW	038H
	DW	038H
	DW	037H
	DW	032H
	DW	038H
	DW	038H
	DW	038H
	DW	032H
	DW	038H
	DW	038H
	DW	039H
	DW	032H
	DW	038H
	DW	039H
	DW	030H
	DW	032H
	DW	038H
	DW	039H
	DW	031H
	DW	032H
	DW	038H
	DW	039H
	DW	032H
	DW	032H
	DW	038H
	DW	039H
	DW	033H
	DW	032H
	DW	038H
	DW	039H
	DW	034H
	DW	032H
	DW	038H
	DW	039H
	DW	035H
	DW	032H
	DW	038H
	DW	039H
	DW	036H
	DW	032H
	DW	038H
	DW	039H
	DW	037H
	DW	032H
	DW	038H
	DW	039H
	DW	038H
	DW	032H
	DW	038H
	DW	039H
	DW	039H
	DW	032H
	DW	039H
	DW	030H
	DW	030H
	DW	032H
	DW	039H
	DW	030H
	DW	031H
	DW	032H
	DW	039H
	DW	030H
	DW	032H
	DW	032H
	DW	039H
	DW	030H
	DW	033H
	DW	032H
	DW	039H
	DW	030H
	DW	034H
	DW	032H
	DW	039H
	DW	030H
	DW	035H
	DW	032H
	DW	039H
	DW	030H
	DW	036H
	DW	032H
	DW	039H
	DW	030H
	DW	037H
	DW	032H
	DW	039H
	DW	030H
	DW	038H
	DW	032H
	DW	039H
	DW	030H
	DW	039H
	DW	032H
	DW	039H
	DW	031H
	DW	030H
	DW	032H
	DW	039H
	DW	031H
	DW	031H
	DW	032H
	DW	039H
	DW	031H
	DW	032H
	DW	032H
	DW	039H
	DW	031H
	DW	033H
	DW	032H
	DW	039H
	DW	031H
	DW	034H
	DW	032H
	DW	039H
	DW	031H
	DW	035H
	DW	032H
	DW	039H
	DW	031H
	DW	036H
	DW	032H
	DW	039H
	DW	031H
	DW	037H
	DW	032H
	DW	039H
	DW	031H
	DW	038H
	DW	032H
	DW	039H
	DW	031H
	DW	039H
	DW	032H
	DW	039H
	DW	032H
	DW	030H
	DW	032H
	DW	039H
	DW	032H
	DW	031H
	DW	032H
	DW	039H
	DW	032H
	DW	032H
	DW	032H
	DW	039H
	DW	032H
	DW	033H
	DW	032H
	DW	039H
	DW	032H
	DW	034H
	DW	032H
	DW	039H
	DW	032H
	DW	035H
	DW	032H
	DW	039H
	DW	032H
	DW	036H
	DW	032H
	DW	039H
	DW	032H
	DW	037H
	DW	032H
	DW	039H
	DW	032H
	DW	038H
	DW	032H
	DW	039H
	DW	032H
	DW	039H
	DW	032H
	DW	039H
	DW	033H
	DW	030H
	DW	032H
	DW	039H
	DW	033H
	DW	031H
	DW	032H
	DW	039H
	DW	033H
	DW	032H
	DW	032H
	DW	039H
	DW	033H
	DW	033H
	DW	032H
	DW	039H
	DW	033H
	DW	034H
	DW	032H
	DW	039H
	DW	033H
	DW	035H
	DW	032H
	DW	039H
	DW	033H
	DW	036H
	DW	032H
	DW	039H
	DW	033H
	DW	037H
	DW	032H
	DW	039H
	DW	033H
	DW	038H
	DW	032H
	DW	039H
	DW	033H
	DW	039H
	DW	032H
	DW	039H
	DW	034H
	DW	030H
	DW	032H
	DW	039H
	DW	034H
	DW	031H
	DW	032H
	DW	039H
	DW	034H
	DW	032H
	DW	032H
	DW	039H
	DW	034H
	DW	033H
	DW	032H
	DW	039H
	DW	034H
	DW	034H
	DW	032H
	DW	039H
	DW	034H
	DW	035H
	DW	032H
	DW	039H
	DW	034H
	DW	036H
	DW	032H
	DW	039H
	DW	034H
	DW	037H
	DW	032H
	DW	039H
	DW	034H
	DW	038H
	DW	032H
	DW	039H
	DW	034H
	DW	039H
	DW	032H
	DW	039H
	DW	035H
	DW	030H
	DW	032H
	DW	039H
	DW	035H
	DW	031H
	DW	032H
	DW	039H
	DW	035H
	DW	032H
	DW	032H
	DW	039H
	DW	035H
	DW	033H
	DW	032H
	DW	039H
	DW	035H
	DW	034H
	DW	032H
	DW	039H
	DW	035H
	DW	035H
	DW	032H
	DW	039H
	DW	035H
	DW	036H
	DW	032H
	DW	039H
	DW	035H
	DW	037H
	DW	032H
	DW	039H
	DW	035H
	DW	038H
	DW	032H
	DW	039H
	DW	035H
	DW	039H
	DW	032H
	DW	039H
	DW	036H
	DW	030H
	DW	032H
	DW	039H
	DW	036H
	DW	031H
	DW	032H
	DW	039H
	DW	036H
	DW	032H
	DW	032H
	DW	039H
	DW	036H
	DW	033H
	DW	032H
	DW	039H
	DW	036H
	DW	034H
	DW	032H
	DW	039H
	DW	036H
	DW	035H
	DW	032H
	DW	039H
	DW	036H
	DW	036H
	DW	032H
	DW	039H
	DW	036H
	DW	037H
	DW	032H
	DW	039H
	DW	036H
	DW	038H
	DW	032H
	DW	039H
	DW	036H
	DW	039H
	DW	032H
	DW	039H
	DW	037H
	DW	030H
	DW	032H
	DW	039H
	DW	037H
	DW	031H
	DW	032H
	DW	039H
	DW	037H
	DW	032H
	DW	032H
	DW	039H
	DW	037H
	DW	033H
	DW	032H
	DW	039H
	DW	037H
	DW	034H
	DW	032H
	DW	039H
	DW	037H
	DW	035H
	DW	032H
	DW	039H
	DW	037H
	DW	036H
	DW	032H
	DW	039H
	DW	037H
	DW	037H
	DW	032H
	DW	039H
	DW	037H
	DW	038H
	DW	032H
	DW	039H
	DW	037H
	DW	039H
	DW	032H
	DW	039H
	DW	038H
	DW	030H
	DW	032H
	DW	039H
	DW	038H
	DW	031H
	DW	032H
	DW	039H
	DW	038H
	DW	032H
	DW	032H
	DW	039H
	DW	038H
	DW	033H
	DW	032H
	DW	039H
	DW	038H
	DW	034H
	DW	032H
	DW	039H
	DW	038H
	DW	035H
	DW	032H
	DW	039H
	DW	038H
	DW	036H
	DW	032H
	DW	039H
	DW	038H
	DW	037H
	DW	032H
	DW	039H
	DW	038H
	DW	038H
	DW	032H
	DW	039H
	DW	038H
	DW	039H
	DW	032H
	DW	039H
	DW	039H
	DW	030H
	DW	032H
	DW	039H
	DW	039H
	DW	031H
	DW	032H
	DW	039H
	DW	039H
	DW	032H
	DW	032H
	DW	039H
	DW	039H
	DW	033H
	DW	032H
	DW	039H
	DW	039H
	DW	034H
	DW	032H
	DW	039H
	DW	039H
	DW	035H
	DW	032H
	DW	039H
	DW	039H
	DW	036H
	DW	032H
	DW	039H
	DW	039H
	DW	037H
	DW	032H
	DW	039H
	DW	039H
	DW	038H
	DW	032H
	DW	039H
	DW	039H
	DW	039H
	DW	033H
	DW	030H
	DW	030H
	DW	030H
	DW	033H
	DW	030H
	DW	030H
	DW	031H
	DW	033H
	DW	030H
	DW	030H
	DW	032H
	DW	033H
	DW	030H
	DW	030H
	DW	033H
	DW	033H
	DW	030H
	DW	030H
	DW	034H
	DW	033H
	DW	030H
	DW	030H
	DW	035H
	DW	033H
	DW	030H
	DW	030H
	DW	036H
	DW	033H
	DW	030H
	DW	030H
	DW	037H
	DW	033H
	DW	030H
	DW	030H
	DW	038H
	DW	033H
	DW	030H
	DW	030H
	DW	039H
	DW	033H
	DW	030H
	DW	031H
	DW	030H
	DW	033H
	DW	030H
	DW	031H
	DW	031H
	DW	033H
	DW	030H
	DW	031H
	DW	032H
	DW	033H
	DW	030H
	DW	031H
	DW	033H
	DW	033H
	DW	030H
	DW	031H
	DW	034H
	DW	033H
	DW	030H
	DW	031H
	DW	035H
	DW	033H
	DW	030H
	DW	031H
	DW	036H
	DW	033H
	DW	030H
	DW	031H
	DW	037H
	DW	033H
	DW	030H
	DW	031H
	DW	038H
	DW	033H
	DW	030H
	DW	031H
	DW	039H
	DW	033H
	DW	030H
	DW	032H
	DW	030H
	DW	033H
	DW	030H
	DW	032H
	DW	031H
	DW	033H
	DW	030H
	DW	032H
	DW	032H
	DW	033H
	DW	030H
	DW	032H
	DW	033H
	DW	033H
	DW	030H
	DW	032H
	DW	034H
	DW	033H
	DW	030H
	DW	032H
	DW	035H
	DW	033H
	DW	030H
	DW	032H
	DW	036H
	DW	033H
	DW	030H
	DW	032H
	DW	037H
	DW	033H
	DW	030H
	DW	032H
	DW	038H
	DW	033H
	DW	030H
	DW	032H
	DW	039H
	DW	033H
	DW	030H
	DW	033H
	DW	030H
	DW	033H
	DW	030H
	DW	033H
	DW	031H
	DW	033H
	DW	030H
	DW	033H
	DW	032H
	DW	033H
	DW	030H
	DW	033H
	DW	033H
	DW	033H
	DW	030H
	DW	033H
	DW	034H
	DW	033H
	DW	030H
	DW	033H
	DW	035H
	DW	033H
	DW	030H
	DW	033H
	DW	036H
	DW	033H
	DW	030H
	DW	033H
	DW	037H
	DW	033H
	DW	030H
	DW	033H
	DW	038H
	DW	033H
	DW	030H
	DW	033H
	DW	039H
	DW	033H
	DW	030H
	DW	034H
	DW	030H
	DW	033H
	DW	030H
	DW	034H
	DW	031H
	DW	033H
	DW	030H
	DW	034H
	DW	032H
	DW	033H
	DW	030H
	DW	034H
	DW	033H
	DW	033H
	DW	030H
	DW	034H
	DW	034H
	DW	033H
	DW	030H
	DW	034H
	DW	035H
	DW	033H
	DW	030H
	DW	034H
	DW	036H
	DW	033H
	DW	030H
	DW	034H
	DW	037H
	DW	033H
	DW	030H
	DW	034H
	DW	038H
	DW	033H
	DW	030H
	DW	034H
	DW	039H
	DW	033H
	DW	030H
	DW	035H
	DW	030H
	DW	033H
	DW	030H
	DW	035H
	DW	031H
	DW	033H
	DW	030H
	DW	035H
	DW	032H
	DW	033H
	DW	030H
	DW	035H
	DW	033H
	DW	033H
	DW	030H
	DW	035H
	DW	034H
	DW	033H
	DW	030H
	DW	035H
	DW	035H
	DW	033H
	DW	030H
	DW	035H
	DW	036H
	DW	033H
	DW	030H
	DW	035H
	DW	037H
	DW	033H
	DW	030H
	DW	035H
	DW	038H
	DW	033H
	DW	030H
	DW	035H
	DW	039H
	DW	033H
	DW	030H
	DW	036H
	DW	030H
	DW	033H
	DW	030H
	DW	036H
	DW	031H
	DW	033H
	DW	030H
	DW	036H
	DW	032H
	DW	033H
	DW	030H
	DW	036H
	DW	033H
	DW	033H
	DW	030H
	DW	036H
	DW	034H
	DW	033H
	DW	030H
	DW	036H
	DW	035H
	DW	033H
	DW	030H
	DW	036H
	DW	036H
	DW	033H
	DW	030H
	DW	036H
	DW	037H
	DW	033H
	DW	030H
	DW	036H
	DW	038H
	DW	033H
	DW	030H
	DW	036H
	DW	039H
	DW	033H
	DW	030H
	DW	037H
	DW	030H
	DW	033H
	DW	030H
	DW	037H
	DW	031H
	DW	033H
	DW	030H
	DW	037H
	DW	032H
	DW	033H
	DW	030H
	DW	037H
	DW	033H
	DW	033H
	DW	030H
	DW	037H
	DW	034H
	DW	033H
	DW	030H
	DW	037H
	DW	035H
	DW	033H
	DW	030H
	DW	037H
	DW	036H
	DW	033H
	DW	030H
	DW	037H
	DW	037H
	DW	033H
	DW	030H
	DW	037H
	DW	038H
	DW	033H
	DW	030H
	DW	037H
	DW	039H
	DW	033H
	DW	030H
	DW	038H
	DW	030H
	DW	033H
	DW	030H
	DW	038H
	DW	031H
	DW	033H
	DW	030H
	DW	038H
	DW	032H
	DW	033H
	DW	030H
	DW	038H
	DW	033H
	DW	033H
	DW	030H
	DW	038H
	DW	034H
	DW	033H
	DW	030H
	DW	038H
	DW	035H
	DW	033H
	DW	030H
	DW	038H
	DW	036H
	DW	033H
	DW	030H
	DW	038H
	DW	037H
	DW	033H
	DW	030H
	DW	038H
	DW	038H
	DW	033H
	DW	030H
	DW	038H
	DW	039H
	DW	033H
	DW	030H
	DW	039H
	DW	030H
	DW	033H
	DW	030H
	DW	039H
	DW	031H
	DW	033H
	DW	030H
	DW	039H
	DW	032H
	DW	033H
	DW	030H
	DW	039H
	DW	033H
	DW	033H
	DW	030H
	DW	039H
	DW	034H
	DW	033H
	DW	030H
	DW	039H
	DW	035H
	DW	033H
	DW	030H
	DW	039H
	DW	036H
	DW	033H
	DW	030H
	DW	039H
	DW	037H
	DW	033H
	DW	030H
	DW	039H
	DW	038H
	DW	033H
	DW	030H
	DW	039H
	DW	039H
	DW	033H
	DW	031H
	DW	030H
	DW	030H
	DW	033H
	DW	031H
	DW	030H
	DW	031H
	DW	033H
	DW	031H
	DW	030H
	DW	032H
	DW	033H
	DW	031H
	DW	030H
	DW	033H
	DW	033H
	DW	031H
	DW	030H
	DW	034H
	DW	033H
	DW	031H
	DW	030H
	DW	035H
	DW	033H
	DW	031H
	DW	030H
	DW	036H
	DW	033H
	DW	031H
	DW	030H
	DW	037H
	DW	033H
	DW	031H
	DW	030H
	DW	038H
	DW	033H
	DW	031H
	DW	030H
	DW	039H
	DW	033H
	DW	031H
	DW	031H
	DW	030H
	DW	033H
	DW	031H
	DW	031H
	DW	031H
	DW	033H
	DW	031H
	DW	031H
	DW	032H
	DW	033H
	DW	031H
	DW	031H
	DW	033H
	DW	033H
	DW	031H
	DW	031H
	DW	034H
	DW	033H
	DW	031H
	DW	031H
	DW	035H
	DW	033H
	DW	031H
	DW	031H
	DW	036H
	DW	033H
	DW	031H
	DW	031H
	DW	037H
	DW	033H
	DW	031H
	DW	031H
	DW	038H
	DW	033H
	DW	031H
	DW	031H
	DW	039H
	DW	033H
	DW	031H
	DW	032H
	DW	030H
	DW	033H
	DW	031H
	DW	032H
	DW	031H
	DW	033H
	DW	031H
	DW	032H
	DW	032H
	DW	033H
	DW	031H
	DW	032H
	DW	033H
	DW	033H
	DW	031H
	DW	032H
	DW	034H
	DW	033H
	DW	031H
	DW	032H
	DW	035H
	DW	033H
	DW	031H
	DW	032H
	DW	036H
	DW	033H
	DW	031H
	DW	032H
	DW	037H
	DW	033H
	DW	031H
	DW	032H
	DW	038H
	DW	033H
	DW	031H
	DW	032H
	DW	039H
	DW	033H
	DW	031H
	DW	033H
	DW	030H
	DW	033H
	DW	031H
	DW	033H
	DW	031H
	DW	033H
	DW	031H
	DW	033H
	DW	032H
	DW	033H
	DW	031H
	DW	033H
	DW	033H
	DW	033H
	DW	031H
	DW	033H
	DW	034H
	DW	033H
	DW	031H
	DW	033H
	DW	035H
	DW	033H
	DW	031H
	DW	033H
	DW	036H
	DW	033H
	DW	031H
	DW	033H
	DW	037H
	DW	033H
	DW	031H
	DW	033H
	DW	038H
	DW	033H
	DW	031H
	DW	033H
	DW	039H
	DW	033H
	DW	031H
	DW	034H
	DW	030H
	DW	033H
	DW	031H
	DW	034H
	DW	031H
	DW	033H
	DW	031H
	DW	034H
	DW	032H
	DW	033H
	DW	031H
	DW	034H
	DW	033H
	DW	033H
	DW	031H
	DW	034H
	DW	034H
	DW	033H
	DW	031H
	DW	034H
	DW	035H
	DW	033H
	DW	031H
	DW	034H
	DW	036H
	DW	033H
	DW	031H
	DW	034H
	DW	037H
	DW	033H
	DW	031H
	DW	034H
	DW	038H
	DW	033H
	DW	031H
	DW	034H
	DW	039H
	DW	033H
	DW	031H
	DW	035H
	DW	030H
	DW	033H
	DW	031H
	DW	035H
	DW	031H
	DW	033H
	DW	031H
	DW	035H
	DW	032H
	DW	033H
	DW	031H
	DW	035H
	DW	033H
	DW	033H
	DW	031H
	DW	035H
	DW	034H
	DW	033H
	DW	031H
	DW	035H
	DW	035H
	DW	033H
	DW	031H
	DW	035H
	DW	036H
	DW	033H
	DW	031H
	DW	035H
	DW	037H
	DW	033H
	DW	031H
	DW	035H
	DW	038H
	DW	033H
	DW	031H
	DW	035H
	DW	039H
	DW	033H
	DW	031H
	DW	036H
	DW	030H
	DW	033H
	DW	031H
	DW	036H
	DW	031H
	DW	033H
	DW	031H
	DW	036H
	DW	032H
	DW	033H
	DW	031H
	DW	036H
	DW	033H
	DW	033H
	DW	031H
	DW	036H
	DW	034H
	DW	033H
	DW	031H
	DW	036H
	DW	035H
	DW	033H
	DW	031H
	DW	036H
	DW	036H
	DW	033H
	DW	031H
	DW	036H
	DW	037H
	DW	033H
	DW	031H
	DW	036H
	DW	038H
	DW	033H
	DW	031H
	DW	036H
	DW	039H
	DW	033H
	DW	031H
	DW	037H
	DW	030H
	DW	033H
	DW	031H
	DW	037H
	DW	031H
	DW	033H
	DW	031H
	DW	037H
	DW	032H
	DW	033H
	DW	031H
	DW	037H
	DW	033H
	DW	033H
	DW	031H
	DW	037H
	DW	034H
	DW	033H
	DW	031H
	DW	037H
	DW	035H
	DW	033H
	DW	031H
	DW	037H
	DW	036H
	DW	033H
	DW	031H
	DW	037H
	DW	037H
	DW	033H
	DW	031H
	DW	037H
	DW	038H
	DW	033H
	DW	031H
	DW	037H
	DW	039H
	DW	033H
	DW	031H
	DW	038H
	DW	030H
	DW	033H
	DW	031H
	DW	038H
	DW	031H
	DW	033H
	DW	031H
	DW	038H
	DW	032H
	DW	033H
	DW	031H
	DW	038H
	DW	033H
	DW	033H
	DW	031H
	DW	038H
	DW	034H
	DW	033H
	DW	031H
	DW	038H
	DW	035H
	DW	033H
	DW	031H
	DW	038H
	DW	036H
	DW	033H
	DW	031H
	DW	038H
	DW	037H
	DW	033H
	DW	031H
	DW	038H
	DW	038H
	DW	033H
	DW	031H
	DW	038H
	DW	039H
	DW	033H
	DW	031H
	DW	039H
	DW	030H
	DW	033H
	DW	031H
	DW	039H
	DW	031H
	DW	033H
	DW	031H
	DW	039H
	DW	032H
	DW	033H
	DW	031H
	DW	039H
	DW	033H
	DW	033H
	DW	031H
	DW	039H
	DW	034H
	DW	033H
	DW	031H
	DW	039H
	DW	035H
	DW	033H
	DW	031H
	DW	039H
	DW	036H
	DW	033H
	DW	031H
	DW	039H
	DW	037H
	DW	033H
	DW	031H
	DW	039H
	DW	038H
	DW	033H
	DW	031H
	DW	039H
	DW	039H
	DW	033H
	DW	032H
	DW	030H
	DW	030H
	DW	033H
	DW	032H
	DW	030H
	DW	031H
	DW	033H
	DW	032H
	DW	030H
	DW	032H
	DW	033H
	DW	032H
	DW	030H
	DW	033H
	DW	033H
	DW	032H
	DW	030H
	DW	034H
	DW	033H
	DW	032H
	DW	030H
	DW	035H
	DW	033H
	DW	032H
	DW	030H
	DW	036H
	DW	033H
	DW	032H
	DW	030H
	DW	037H
	DW	033H
	DW	032H
	DW	030H
	DW	038H
	DW	033H
	DW	032H
	DW	030H
	DW	039H
	DW	033H
	DW	032H
	DW	031H
	DW	030H
	DW	033H
	DW	032H
	DW	031H
	DW	031H
	DW	033H
	DW	032H
	DW	031H
	DW	032H
	DW	033H
	DW	032H
	DW	031H
	DW	033H
	DW	033H
	DW	032H
	DW	031H
	DW	034H
	DW	033H
	DW	032H
	DW	031H
	DW	035H
	DW	033H
	DW	032H
	DW	031H
	DW	036H
	DW	033H
	DW	032H
	DW	031H
	DW	037H
	DW	033H
	DW	032H
	DW	031H
	DW	038H
	DW	033H
	DW	032H
	DW	031H
	DW	039H
	DW	033H
	DW	032H
	DW	032H
	DW	030H
	DW	033H
	DW	032H
	DW	032H
	DW	031H
	DW	033H
	DW	032H
	DW	032H
	DW	032H
	DW	033H
	DW	032H
	DW	032H
	DW	033H
	DW	033H
	DW	032H
	DW	032H
	DW	034H
	DW	033H
	DW	032H
	DW	032H
	DW	035H
	DW	033H
	DW	032H
	DW	032H
	DW	036H
	DW	033H
	DW	032H
	DW	032H
	DW	037H
	DW	033H
	DW	032H
	DW	032H
	DW	038H
	DW	033H
	DW	032H
	DW	032H
	DW	039H
	DW	033H
	DW	032H
	DW	033H
	DW	030H
	DW	033H
	DW	032H
	DW	033H
	DW	031H
	DW	033H
	DW	032H
	DW	033H
	DW	032H
	DW	033H
	DW	032H
	DW	033H
	DW	033H
	DW	033H
	DW	032H
	DW	033H
	DW	034H
	DW	033H
	DW	032H
	DW	033H
	DW	035H
	DW	033H
	DW	032H
	DW	033H
	DW	036H
	DW	033H
	DW	032H
	DW	033H
	DW	037H
	DW	033H
	DW	032H
	DW	033H
	DW	038H
	DW	033H
	DW	032H
	DW	033H
	DW	039H
	DW	033H
	DW	032H
	DW	034H
	DW	030H
	DW	033H
	DW	032H
	DW	034H
	DW	031H
	DW	033H
	DW	032H
	DW	034H
	DW	032H
	DW	033H
	DW	032H
	DW	034H
	DW	033H
	DW	033H
	DW	032H
	DW	034H
	DW	034H
	DW	033H
	DW	032H
	DW	034H
	DW	035H
	DW	033H
	DW	032H
	DW	034H
	DW	036H
	DW	033H
	DW	032H
	DW	034H
	DW	037H
	DW	033H
	DW	032H
	DW	034H
	DW	038H
	DW	033H
	DW	032H
	DW	034H
	DW	039H
	DW	033H
	DW	032H
	DW	035H
	DW	030H
	DW	033H
	DW	032H
	DW	035H
	DW	031H
	DW	033H
	DW	032H
	DW	035H
	DW	032H
	DW	033H
	DW	032H
	DW	035H
	DW	033H
	DW	033H
	DW	032H
	DW	035H
	DW	034H
	DW	033H
	DW	032H
	DW	035H
	DW	035H
	DW	033H
	DW	032H
	DW	035H
	DW	036H
	DW	033H
	DW	032H
	DW	035H
	DW	037H
	DW	033H
	DW	032H
	DW	035H
	DW	038H
	DW	033H
	DW	032H
	DW	035H
	DW	039H
	DW	033H
	DW	032H
	DW	036H
	DW	030H
	DW	033H
	DW	032H
	DW	036H
	DW	031H
	DW	033H
	DW	032H
	DW	036H
	DW	032H
	DW	033H
	DW	032H
	DW	036H
	DW	033H
	DW	033H
	DW	032H
	DW	036H
	DW	034H
	DW	033H
	DW	032H
	DW	036H
	DW	035H
	DW	033H
	DW	032H
	DW	036H
	DW	036H
	DW	033H
	DW	032H
	DW	036H
	DW	037H
	DW	033H
	DW	032H
	DW	036H
	DW	038H
	DW	033H
	DW	032H
	DW	036H
	DW	039H
	DW	033H
	DW	032H
	DW	037H
	DW	030H
	DW	033H
	DW	032H
	DW	037H
	DW	031H
	DW	033H
	DW	032H
	DW	037H
	DW	032H
	DW	033H
	DW	032H
	DW	037H
	DW	033H
	DW	033H
	DW	032H
	DW	037H
	DW	034H
	DW	033H
	DW	032H
	DW	037H
	DW	035H
	DW	033H
	DW	032H
	DW	037H
	DW	036H
	DW	033H
	DW	032H
	DW	037H
	DW	037H
	DW	033H
	DW	032H
	DW	037H
	DW	038H
	DW	033H
	DW	032H
	DW	037H
	DW	039H
	DW	033H
	DW	032H
	DW	038H
	DW	030H
	DW	033H
	DW	032H
	DW	038H
	DW	031H
	DW	033H
	DW	032H
	DW	038H
	DW	032H
	DW	033H
	DW	032H
	DW	038H
	DW	033H
	DW	033H
	DW	032H
	DW	038H
	DW	034H
	DW	033H
	DW	032H
	DW	038H
	DW	035H
	DW	033H
	DW	032H
	DW	038H
	DW	036H
	DW	033H
	DW	032H
	DW	038H
	DW	037H
	DW	033H
	DW	032H
	DW	038H
	DW	038H
	DW	033H
	DW	032H
	DW	038H
	DW	039H
	DW	033H
	DW	032H
	DW	039H
	DW	030H
	DW	033H
	DW	032H
	DW	039H
	DW	031H
	DW	033H
	DW	032H
	DW	039H
	DW	032H
	DW	033H
	DW	032H
	DW	039H
	DW	033H
	DW	033H
	DW	032H
	DW	039H
	DW	034H
	DW	033H
	DW	032H
	DW	039H
	DW	035H
	DW	033H
	DW	032H
	DW	039H
	DW	036H
	DW	033H
	DW	032H
	DW	039H
	DW	037H
	DW	033H
	DW	032H
	DW	039H
	DW	038H
	DW	033H
	DW	032H
	DW	039H
	DW	039H
	DW	033H
	DW	033H
	DW	030H
	DW	030H
	DW	033H
	DW	033H
	DW	030H
	DW	031H
	DW	033H
	DW	033H
	DW	030H
	DW	032H
	DW	033H
	DW	033H
	DW	030H
	DW	033H
	DW	033H
	DW	033H
	DW	030H
	DW	034H
	DW	033H
	DW	033H
	DW	030H
	DW	035H
	DW	033H
	DW	033H
	DW	030H
	DW	036H
	DW	033H
	DW	033H
	DW	030H
	DW	037H
	DW	033H
	DW	033H
	DW	030H
	DW	038H
	DW	033H
	DW	033H
	DW	030H
	DW	039H
	DW	033H
	DW	033H
	DW	031H
	DW	030H
	DW	033H
	DW	033H
	DW	031H
	DW	031H
	DW	033H
	DW	033H
	DW	031H
	DW	032H
	DW	033H
	DW	033H
	DW	031H
	DW	033H
	DW	033H
	DW	033H
	DW	031H
	DW	034H
	DW	033H
	DW	033H
	DW	031H
	DW	035H
	DW	033H
	DW	033H
	DW	031H
	DW	036H
	DW	033H
	DW	033H
	DW	031H
	DW	037H
	DW	033H
	DW	033H
	DW	031H
	DW	038H
	DW	033H
	DW	033H
	DW	031H
	DW	039H
	DW	033H
	DW	033H
	DW	032H
	DW	030H
	DW	033H
	DW	033H
	DW	032H
	DW	031H
	DW	033H
	DW	033H
	DW	032H
	DW	032H
	DW	033H
	DW	033H
	DW	032H
	DW	033H
	DW	033H
	DW	033H
	DW	032H
	DW	034H
	DW	033H
	DW	033H
	DW	032H
	DW	035H
	DW	033H
	DW	033H
	DW	032H
	DW	036H
	DW	033H
	DW	033H
	DW	032H
	DW	037H
	DW	033H
	DW	033H
	DW	032H
	DW	038H
	DW	033H
	DW	033H
	DW	032H
	DW	039H
	DW	033H
	DW	033H
	DW	033H
	DW	030H
	DW	033H
	DW	033H
	DW	033H
	DW	031H
	DW	033H
	DW	033H
	DW	033H
	DW	032H
	DW	033H
	DW	033H
	DW	033H
	DW	033H
	DW	033H
	DW	033H
	DW	033H
	DW	034H
	DW	033H
	DW	033H
	DW	033H
	DW	035H
	DW	033H
	DW	033H
	DW	033H
	DW	036H
	DW	033H
	DW	033H
	DW	033H
	DW	037H
	DW	033H
	DW	033H
	DW	033H
	DW	038H
	DW	033H
	DW	033H
	DW	033H
	DW	039H
	DW	033H
	DW	033H
	DW	034H
	DW	030H
	DW	033H
	DW	033H
	DW	034H
	DW	031H
	DW	033H
	DW	033H
	DW	034H
	DW	032H
	DW	033H
	DW	033H
	DW	034H
	DW	033H
	DW	033H
	DW	033H
	DW	034H
	DW	034H
	DW	033H
	DW	033H
	DW	034H
	DW	035H
	DW	033H
	DW	033H
	DW	034H
	DW	036H
	DW	033H
	DW	033H
	DW	034H
	DW	037H
	DW	033H
	DW	033H
	DW	034H
	DW	038H
	DW	033H
	DW	033H
	DW	034H
	DW	039H
	DW	033H
	DW	033H
	DW	035H
	DW	030H
	DW	033H
	DW	033H
	DW	035H
	DW	031H
	DW	033H
	DW	033H
	DW	035H
	DW	032H
	DW	033H
	DW	033H
	DW	035H
	DW	033H
	DW	033H
	DW	033H
	DW	035H
	DW	034H
	DW	033H
	DW	033H
	DW	035H
	DW	035H
	DW	033H
	DW	033H
	DW	035H
	DW	036H
	DW	033H
	DW	033H
	DW	035H
	DW	037H
	DW	033H
	DW	033H
	DW	035H
	DW	038H
	DW	033H
	DW	033H
	DW	035H
	DW	039H
	DW	033H
	DW	033H
	DW	036H
	DW	030H
	DW	033H
	DW	033H
	DW	036H
	DW	031H
	DW	033H
	DW	033H
	DW	036H
	DW	032H
	DW	033H
	DW	033H
	DW	036H
	DW	033H
	DW	033H
	DW	033H
	DW	036H
	DW	034H
	DW	033H
	DW	033H
	DW	036H
	DW	035H
	DW	033H
	DW	033H
	DW	036H
	DW	036H
	DW	033H
	DW	033H
	DW	036H
	DW	037H
	DW	033H
	DW	033H
	DW	036H
	DW	038H
	DW	033H
	DW	033H
	DW	036H
	DW	039H
	DW	033H
	DW	033H
	DW	037H
	DW	030H
	DW	033H
	DW	033H
	DW	037H
	DW	031H
	DW	033H
	DW	033H
	DW	037H
	DW	032H
	DW	033H
	DW	033H
	DW	037H
	DW	033H
	DW	033H
	DW	033H
	DW	037H
	DW	034H
	DW	033H
	DW	033H
	DW	037H
	DW	035H
	DW	033H
	DW	033H
	DW	037H
	DW	036H
	DW	033H
	DW	033H
	DW	037H
	DW	037H
	DW	033H
	DW	033H
	DW	037H
	DW	038H
	DW	033H
	DW	033H
	DW	037H
	DW	039H
	DW	033H
	DW	033H
	DW	038H
	DW	030H
	DW	033H
	DW	033H
	DW	038H
	DW	031H
	DW	033H
	DW	033H
	DW	038H
	DW	032H
	DW	033H
	DW	033H
	DW	038H
	DW	033H
	DW	033H
	DW	033H
	DW	038H
	DW	034H
	DW	033H
	DW	033H
	DW	038H
	DW	035H
	DW	033H
	DW	033H
	DW	038H
	DW	036H
	DW	033H
	DW	033H
	DW	038H
	DW	037H
	DW	033H
	DW	033H
	DW	038H
	DW	038H
	DW	033H
	DW	033H
	DW	038H
	DW	039H
	DW	033H
	DW	033H
	DW	039H
	DW	030H
	DW	033H
	DW	033H
	DW	039H
	DW	031H
	DW	033H
	DW	033H
	DW	039H
	DW	032H
	DW	033H
	DW	033H
	DW	039H
	DW	033H
	DW	033H
	DW	033H
	DW	039H
	DW	034H
	DW	033H
	DW	033H
	DW	039H
	DW	035H
	DW	033H
	DW	033H
	DW	039H
	DW	036H
	DW	033H
	DW	033H
	DW	039H
	DW	037H
	DW	033H
	DW	033H
	DW	039H
	DW	038H
	DW	033H
	DW	033H
	DW	039H
	DW	039H
	DW	033H
	DW	034H
	DW	030H
	DW	030H
	DW	033H
	DW	034H
	DW	030H
	DW	031H
	DW	033H
	DW	034H
	DW	030H
	DW	032H
	DW	033H
	DW	034H
	DW	030H
	DW	033H
	DW	033H
	DW	034H
	DW	030H
	DW	034H
	DW	033H
	DW	034H
	DW	030H
	DW	035H
	DW	033H
	DW	034H
	DW	030H
	DW	036H
	DW	033H
	DW	034H
	DW	030H
	DW	037H
	DW	033H
	DW	034H
	DW	030H
	DW	038H
	DW	033H
	DW	034H
	DW	030H
	DW	039H
	DW	033H
	DW	034H
	DW	031H
	DW	030H
	DW	033H
	DW	034H
	DW	031H
	DW	031H
	DW	033H
	DW	034H
	DW	031H
	DW	032H
	DW	033H
	DW	034H
	DW	031H
	DW	033H
	DW	033H
	DW	034H
	DW	031H
	DW	034H
	DW	033H
	DW	034H
	DW	031H
	DW	035H
	DW	033H
	DW	034H
	DW	031H
	DW	036H
	DW	033H
	DW	034H
	DW	031H
	DW	037H
	DW	033H
	DW	034H
	DW	031H
	DW	038H
	DW	033H
	DW	034H
	DW	031H
	DW	039H
	DW	033H
	DW	034H
	DW	032H
	DW	030H
	DW	033H
	DW	034H
	DW	032H
	DW	031H
	DW	033H
	DW	034H
	DW	032H
	DW	032H
	DW	033H
	DW	034H
	DW	032H
	DW	033H
	DW	033H
	DW	034H
	DW	032H
	DW	034H
	DW	033H
	DW	034H
	DW	032H
	DW	035H
	DW	033H
	DW	034H
	DW	032H
	DW	036H
	DW	033H
	DW	034H
	DW	032H
	DW	037H
	DW	033H
	DW	034H
	DW	032H
	DW	038H
	DW	033H
	DW	034H
	DW	032H
	DW	039H
	DW	033H
	DW	034H
	DW	033H
	DW	030H
	DW	033H
	DW	034H
	DW	033H
	DW	031H
	DW	033H
	DW	034H
	DW	033H
	DW	032H
	DW	033H
	DW	034H
	DW	033H
	DW	033H
	DW	033H
	DW	034H
	DW	033H
	DW	034H
	DW	033H
	DW	034H
	DW	033H
	DW	035H
	DW	033H
	DW	034H
	DW	033H
	DW	036H
	DW	033H
	DW	034H
	DW	033H
	DW	037H
	DW	033H
	DW	034H
	DW	033H
	DW	038H
	DW	033H
	DW	034H
	DW	033H
	DW	039H
	DW	033H
	DW	034H
	DW	034H
	DW	030H
	DW	033H
	DW	034H
	DW	034H
	DW	031H
	DW	033H
	DW	034H
	DW	034H
	DW	032H
	DW	033H
	DW	034H
	DW	034H
	DW	033H
	DW	033H
	DW	034H
	DW	034H
	DW	034H
	DW	033H
	DW	034H
	DW	034H
	DW	035H
	DW	033H
	DW	034H
	DW	034H
	DW	036H
	DW	033H
	DW	034H
	DW	034H
	DW	037H
	DW	033H
	DW	034H
	DW	034H
	DW	038H
	DW	033H
	DW	034H
	DW	034H
	DW	039H
	DW	033H
	DW	034H
	DW	035H
	DW	030H
	DW	033H
	DW	034H
	DW	035H
	DW	031H
	DW	033H
	DW	034H
	DW	035H
	DW	032H
	DW	033H
	DW	034H
	DW	035H
	DW	033H
	DW	033H
	DW	034H
	DW	035H
	DW	034H
	DW	033H
	DW	034H
	DW	035H
	DW	035H
	DW	033H
	DW	034H
	DW	035H
	DW	036H
	DW	033H
	DW	034H
	DW	035H
	DW	037H
	DW	033H
	DW	034H
	DW	035H
	DW	038H
	DW	033H
	DW	034H
	DW	035H
	DW	039H
	DW	033H
	DW	034H
	DW	036H
	DW	030H
	DW	033H
	DW	034H
	DW	036H
	DW	031H
	DW	033H
	DW	034H
	DW	036H
	DW	032H
	DW	033H
	DW	034H
	DW	036H
	DW	033H
	DW	033H
	DW	034H
	DW	036H
	DW	034H
	DW	033H
	DW	034H
	DW	036H
	DW	035H
	DW	033H
	DW	034H
	DW	036H
	DW	036H
	DW	033H
	DW	034H
	DW	036H
	DW	037H
	DW	033H
	DW	034H
	DW	036H
	DW	038H
	DW	033H
	DW	034H
	DW	036H
	DW	039H
	DW	033H
	DW	034H
	DW	037H
	DW	030H
	DW	033H
	DW	034H
	DW	037H
	DW	031H
	DW	033H
	DW	034H
	DW	037H
	DW	032H
	DW	033H
	DW	034H
	DW	037H
	DW	033H
	DW	033H
	DW	034H
	DW	037H
	DW	034H
	DW	033H
	DW	034H
	DW	037H
	DW	035H
	DW	033H
	DW	034H
	DW	037H
	DW	036H
	DW	033H
	DW	034H
	DW	037H
	DW	037H
	DW	033H
	DW	034H
	DW	037H
	DW	038H
	DW	033H
	DW	034H
	DW	037H
	DW	039H
	DW	033H
	DW	034H
	DW	038H
	DW	030H
	DW	033H
	DW	034H
	DW	038H
	DW	031H
	DW	033H
	DW	034H
	DW	038H
	DW	032H
	DW	033H
	DW	034H
	DW	038H
	DW	033H
	DW	033H
	DW	034H
	DW	038H
	DW	034H
	DW	033H
	DW	034H
	DW	038H
	DW	035H
	DW	033H
	DW	034H
	DW	038H
	DW	036H
	DW	033H
	DW	034H
	DW	038H
	DW	037H
	DW	033H
	DW	034H
	DW	038H
	DW	038H
	DW	033H
	DW	034H
	DW	038H
	DW	039H
	DW	033H
	DW	034H
	DW	039H
	DW	030H
	DW	033H
	DW	034H
	DW	039H
	DW	031H
	DW	033H
	DW	034H
	DW	039H
	DW	032H
	DW	033H
	DW	034H
	DW	039H
	DW	033H
	DW	033H
	DW	034H
	DW	039H
	DW	034H
	DW	033H
	DW	034H
	DW	039H
	DW	035H
	DW	033H
	DW	034H
	DW	039H
	DW	036H
	DW	033H
	DW	034H
	DW	039H
	DW	037H
	DW	033H
	DW	034H
	DW	039H
	DW	038H
	DW	033H
	DW	034H
	DW	039H
	DW	039H
	DW	033H
	DW	035H
	DW	030H
	DW	030H
	DW	033H
	DW	035H
	DW	030H
	DW	031H
	DW	033H
	DW	035H
	DW	030H
	DW	032H
	DW	033H
	DW	035H
	DW	030H
	DW	033H
	DW	033H
	DW	035H
	DW	030H
	DW	034H
	DW	033H
	DW	035H
	DW	030H
	DW	035H
	DW	033H
	DW	035H
	DW	030H
	DW	036H
	DW	033H
	DW	035H
	DW	030H
	DW	037H
	DW	033H
	DW	035H
	DW	030H
	DW	038H
	DW	033H
	DW	035H
	DW	030H
	DW	039H
	DW	033H
	DW	035H
	DW	031H
	DW	030H
	DW	033H
	DW	035H
	DW	031H
	DW	031H
	DW	033H
	DW	035H
	DW	031H
	DW	032H
	DW	033H
	DW	035H
	DW	031H
	DW	033H
	DW	033H
	DW	035H
	DW	031H
	DW	034H
	DW	033H
	DW	035H
	DW	031H
	DW	035H
	DW	033H
	DW	035H
	DW	031H
	DW	036H
	DW	033H
	DW	035H
	DW	031H
	DW	037H
	DW	033H
	DW	035H
	DW	031H
	DW	038H
	DW	033H
	DW	035H
	DW	031H
	DW	039H
	DW	033H
	DW	035H
	DW	032H
	DW	030H
	DW	033H
	DW	035H
	DW	032H
	DW	031H
	DW	033H
	DW	035H
	DW	032H
	DW	032H
	DW	033H
	DW	035H
	DW	032H
	DW	033H
	DW	033H
	DW	035H
	DW	032H
	DW	034H
	DW	033H
	DW	035H
	DW	032H
	DW	035H
	DW	033H
	DW	035H
	DW	032H
	DW	036H
	DW	033H
	DW	035H
	DW	032H
	DW	037H
	DW	033H
	DW	035H
	DW	032H
	DW	038H
	DW	033H
	DW	035H
	DW	032H
	DW	039H
	DW	033H
	DW	035H
	DW	033H
	DW	030H
	DW	033H
	DW	035H
	DW	033H
	DW	031H
	DW	033H
	DW	035H
	DW	033H
	DW	032H
	DW	033H
	DW	035H
	DW	033H
	DW	033H
	DW	033H
	DW	035H
	DW	033H
	DW	034H
	DW	033H
	DW	035H
	DW	033H
	DW	035H
	DW	033H
	DW	035H
	DW	033H
	DW	036H
	DW	033H
	DW	035H
	DW	033H
	DW	037H
	DW	033H
	DW	035H
	DW	033H
	DW	038H
	DW	033H
	DW	035H
	DW	033H
	DW	039H
	DW	033H
	DW	035H
	DW	034H
	DW	030H
	DW	033H
	DW	035H
	DW	034H
	DW	031H
	DW	033H
	DW	035H
	DW	034H
	DW	032H
	DW	033H
	DW	035H
	DW	034H
	DW	033H
	DW	033H
	DW	035H
	DW	034H
	DW	034H
	DW	033H
	DW	035H
	DW	034H
	DW	035H
	DW	033H
	DW	035H
	DW	034H
	DW	036H
	DW	033H
	DW	035H
	DW	034H
	DW	037H
	DW	033H
	DW	035H
	DW	034H
	DW	038H
	DW	033H
	DW	035H
	DW	034H
	DW	039H
	DW	033H
	DW	035H
	DW	035H
	DW	030H
	DW	033H
	DW	035H
	DW	035H
	DW	031H
	DW	033H
	DW	035H
	DW	035H
	DW	032H
	DW	033H
	DW	035H
	DW	035H
	DW	033H
	DW	033H
	DW	035H
	DW	035H
	DW	034H
	DW	033H
	DW	035H
	DW	035H
	DW	035H
	DW	033H
	DW	035H
	DW	035H
	DW	036H
	DW	033H
	DW	035H
	DW	035H
	DW	037H
	DW	033H
	DW	035H
	DW	035H
	DW	038H
	DW	033H
	DW	035H
	DW	035H
	DW	039H
	DW	033H
	DW	035H
	DW	036H
	DW	030H
	DW	033H
	DW	035H
	DW	036H
	DW	031H
	DW	033H
	DW	035H
	DW	036H
	DW	032H
	DW	033H
	DW	035H
	DW	036H
	DW	033H
	DW	033H
	DW	035H
	DW	036H
	DW	034H
	DW	033H
	DW	035H
	DW	036H
	DW	035H
	DW	033H
	DW	035H
	DW	036H
	DW	036H
	DW	033H
	DW	035H
	DW	036H
	DW	037H
	DW	033H
	DW	035H
	DW	036H
	DW	038H
	DW	033H
	DW	035H
	DW	036H
	DW	039H
	DW	033H
	DW	035H
	DW	037H
	DW	030H
	DW	033H
	DW	035H
	DW	037H
	DW	031H
	DW	033H
	DW	035H
	DW	037H
	DW	032H
	DW	033H
	DW	035H
	DW	037H
	DW	033H
	DW	033H
	DW	035H
	DW	037H
	DW	034H
	DW	033H
	DW	035H
	DW	037H
	DW	035H
	DW	033H
	DW	035H
	DW	037H
	DW	036H
	DW	033H
	DW	035H
	DW	037H
	DW	037H
	DW	033H
	DW	035H
	DW	037H
	DW	038H
	DW	033H
	DW	035H
	DW	037H
	DW	039H
	DW	033H
	DW	035H
	DW	038H
	DW	030H
	DW	033H
	DW	035H
	DW	038H
	DW	031H
	DW	033H
	DW	035H
	DW	038H
	DW	032H
	DW	033H
	DW	035H
	DW	038H
	DW	033H
	DW	033H
	DW	035H
	DW	038H
	DW	034H
	DW	033H
	DW	035H
	DW	038H
	DW	035H
	DW	033H
	DW	035H
	DW	038H
	DW	036H
	DW	033H
	DW	035H
	DW	038H
	DW	037H
	DW	033H
	DW	035H
	DW	038H
	DW	038H
	DW	033H
	DW	035H
	DW	038H
	DW	039H
	DW	033H
	DW	035H
	DW	039H
	DW	030H
	DW	033H
	DW	035H
	DW	039H
	DW	031H
	DW	033H
	DW	035H
	DW	039H
	DW	032H
	DW	033H
	DW	035H
	DW	039H
	DW	033H
	DW	033H
	DW	035H
	DW	039H
	DW	034H
	DW	033H
	DW	035H
	DW	039H
	DW	035H
	DW	033H
	DW	035H
	DW	039H
	DW	036H
	DW	033H
	DW	035H
	DW	039H
	DW	037H
	DW	033H
	DW	035H
	DW	039H
	DW	038H
	DW	033H
	DW	035H
	DW	039H
	DW	039H
	DW	033H
	DW	036H
	DW	030H
	DW	030H
	DW	033H
	DW	036H
	DW	030H
	DW	031H
	DW	033H
	DW	036H
	DW	030H
	DW	032H
	DW	033H
	DW	036H
	DW	030H
	DW	033H
	DW	033H
	DW	036H
	DW	030H
	DW	034H
	DW	033H
	DW	036H
	DW	030H
	DW	035H
	DW	033H
	DW	036H
	DW	030H
	DW	036H
	DW	033H
	DW	036H
	DW	030H
	DW	037H
	DW	033H
	DW	036H
	DW	030H
	DW	038H
	DW	033H
	DW	036H
	DW	030H
	DW	039H
	DW	033H
	DW	036H
	DW	031H
	DW	030H
	DW	033H
	DW	036H
	DW	031H
	DW	031H
	DW	033H
	DW	036H
	DW	031H
	DW	032H
	DW	033H
	DW	036H
	DW	031H
	DW	033H
	DW	033H
	DW	036H
	DW	031H
	DW	034H
	DW	033H
	DW	036H
	DW	031H
	DW	035H
	DW	033H
	DW	036H
	DW	031H
	DW	036H
	DW	033H
	DW	036H
	DW	031H
	DW	037H
	DW	033H
	DW	036H
	DW	031H
	DW	038H
	DW	033H
	DW	036H
	DW	031H
	DW	039H
	DW	033H
	DW	036H
	DW	032H
	DW	030H
	DW	033H
	DW	036H
	DW	032H
	DW	031H
	DW	033H
	DW	036H
	DW	032H
	DW	032H
	DW	033H
	DW	036H
	DW	032H
	DW	033H
	DW	033H
	DW	036H
	DW	032H
	DW	034H
	DW	033H
	DW	036H
	DW	032H
	DW	035H
	DW	033H
	DW	036H
	DW	032H
	DW	036H
	DW	033H
	DW	036H
	DW	032H
	DW	037H
	DW	033H
	DW	036H
	DW	032H
	DW	038H
	DW	033H
	DW	036H
	DW	032H
	DW	039H
	DW	033H
	DW	036H
	DW	033H
	DW	030H
	DW	033H
	DW	036H
	DW	033H
	DW	031H
	DW	033H
	DW	036H
	DW	033H
	DW	032H
	DW	033H
	DW	036H
	DW	033H
	DW	033H
	DW	033H
	DW	036H
	DW	033H
	DW	034H
	DW	033H
	DW	036H
	DW	033H
	DW	035H
	DW	033H
	DW	036H
	DW	033H
	DW	036H
	DW	033H
	DW	036H
	DW	033H
	DW	037H
	DW	033H
	DW	036H
	DW	033H
	DW	038H
	DW	033H
	DW	036H
	DW	033H
	DW	039H
	DW	033H
	DW	036H
	DW	034H
	DW	030H
	DW	033H
	DW	036H
	DW	034H
	DW	031H
	DW	033H
	DW	036H
	DW	034H
	DW	032H
	DW	033H
	DW	036H
	DW	034H
	DW	033H
	DW	033H
	DW	036H
	DW	034H
	DW	034H
	DW	033H
	DW	036H
	DW	034H
	DW	035H
	DW	033H
	DW	036H
	DW	034H
	DW	036H
	DW	033H
	DW	036H
	DW	034H
	DW	037H
	DW	033H
	DW	036H
	DW	034H
	DW	038H
	DW	033H
	DW	036H
	DW	034H
	DW	039H
	DW	033H
	DW	036H
	DW	035H
	DW	030H
	DW	033H
	DW	036H
	DW	035H
	DW	031H
	DW	033H
	DW	036H
	DW	035H
	DW	032H
	DW	033H
	DW	036H
	DW	035H
	DW	033H
	DW	033H
	DW	036H
	DW	035H
	DW	034H
	DW	033H
	DW	036H
	DW	035H
	DW	035H
	DW	033H
	DW	036H
	DW	035H
	DW	036H
	DW	033H
	DW	036H
	DW	035H
	DW	037H
	DW	033H
	DW	036H
	DW	035H
	DW	038H
	DW	033H
	DW	036H
	DW	035H
	DW	039H
	DW	033H
	DW	036H
	DW	036H
	DW	030H
	DW	033H
	DW	036H
	DW	036H
	DW	031H
	DW	033H
	DW	036H
	DW	036H
	DW	032H
	DW	033H
	DW	036H
	DW	036H
	DW	033H
	DW	033H
	DW	036H
	DW	036H
	DW	034H
	DW	033H
	DW	036H
	DW	036H
	DW	035H
	DW	033H
	DW	036H
	DW	036H
	DW	036H
	DW	033H
	DW	036H
	DW	036H
	DW	037H
	DW	033H
	DW	036H
	DW	036H
	DW	038H
	DW	033H
	DW	036H
	DW	036H
	DW	039H
	DW	033H
	DW	036H
	DW	037H
	DW	030H
	DW	033H
	DW	036H
	DW	037H
	DW	031H
	DW	033H
	DW	036H
	DW	037H
	DW	032H
	DW	033H
	DW	036H
	DW	037H
	DW	033H
	DW	033H
	DW	036H
	DW	037H
	DW	034H
	DW	033H
	DW	036H
	DW	037H
	DW	035H
	DW	033H
	DW	036H
	DW	037H
	DW	036H
	DW	033H
	DW	036H
	DW	037H
	DW	037H
	DW	033H
	DW	036H
	DW	037H
	DW	038H
	DW	033H
	DW	036H
	DW	037H
	DW	039H
	DW	033H
	DW	036H
	DW	038H
	DW	030H
	DW	033H
	DW	036H
	DW	038H
	DW	031H
	DW	033H
	DW	036H
	DW	038H
	DW	032H
	DW	033H
	DW	036H
	DW	038H
	DW	033H
	DW	033H
	DW	036H
	DW	038H
	DW	034H
	DW	033H
	DW	036H
	DW	038H
	DW	035H
	DW	033H
	DW	036H
	DW	038H
	DW	036H
	DW	033H
	DW	036H
	DW	038H
	DW	037H
	DW	033H
	DW	036H
	DW	038H
	DW	038H
	DW	033H
	DW	036H
	DW	038H
	DW	039H
	DW	033H
	DW	036H
	DW	039H
	DW	030H
	DW	033H
	DW	036H
	DW	039H
	DW	031H
	DW	033H
	DW	036H
	DW	039H
	DW	032H
	DW	033H
	DW	036H
	DW	039H
	DW	033H
	DW	033H
	DW	036H
	DW	039H
	DW	034H
	DW	033H
	DW	036H
	DW	039H
	DW	035H
	DW	033H
	DW	036H
	DW	039H
	DW	036H
	DW	033H
	DW	036H
	DW	039H
	DW	037H
	DW	033H
	DW	036H
	DW	039H
	DW	038H
	DW	033H
	DW	036H
	DW	039H
	DW	039H
	DW	033H
	DW	037H
	DW	030H
	DW	030H
	DW	033H
	DW	037H
	DW	030H
	DW	031H
	DW	033H
	DW	037H
	DW	030H
	DW	032H
	DW	033H
	DW	037H
	DW	030H
	DW	033H
	DW	033H
	DW	037H
	DW	030H
	DW	034H
	DW	033H
	DW	037H
	DW	030H
	DW	035H
	DW	033H
	DW	037H
	DW	030H
	DW	036H
	DW	033H
	DW	037H
	DW	030H
	DW	037H
	DW	033H
	DW	037H
	DW	030H
	DW	038H
	DW	033H
	DW	037H
	DW	030H
	DW	039H
	DW	033H
	DW	037H
	DW	031H
	DW	030H
	DW	033H
	DW	037H
	DW	031H
	DW	031H
	DW	033H
	DW	037H
	DW	031H
	DW	032H
	DW	033H
	DW	037H
	DW	031H
	DW	033H
	DW	033H
	DW	037H
	DW	031H
	DW	034H
	DW	033H
	DW	037H
	DW	031H
	DW	035H
	DW	033H
	DW	037H
	DW	031H
	DW	036H
	DW	033H
	DW	037H
	DW	031H
	DW	037H
	DW	033H
	DW	037H
	DW	031H
	DW	038H
	DW	033H
	DW	037H
	DW	031H
	DW	039H
	DW	033H
	DW	037H
	DW	032H
	DW	030H
	DW	033H
	DW	037H
	DW	032H
	DW	031H
	DW	033H
	DW	037H
	DW	032H
	DW	032H
	DW	033H
	DW	037H
	DW	032H
	DW	033H
	DW	033H
	DW	037H
	DW	032H
	DW	034H
	DW	033H
	DW	037H
	DW	032H
	DW	035H
	DW	033H
	DW	037H
	DW	032H
	DW	036H
	DW	033H
	DW	037H
	DW	032H
	DW	037H
	DW	033H
	DW	037H
	DW	032H
	DW	038H
	DW	033H
	DW	037H
	DW	032H
	DW	039H
	DW	033H
	DW	037H
	DW	033H
	DW	030H
	DW	033H
	DW	037H
	DW	033H
	DW	031H
	DW	033H
	DW	037H
	DW	033H
	DW	032H
	DW	033H
	DW	037H
	DW	033H
	DW	033H
	DW	033H
	DW	037H
	DW	033H
	DW	034H
	DW	033H
	DW	037H
	DW	033H
	DW	035H
	DW	033H
	DW	037H
	DW	033H
	DW	036H
	DW	033H
	DW	037H
	DW	033H
	DW	037H
	DW	033H
	DW	037H
	DW	033H
	DW	038H
	DW	033H
	DW	037H
	DW	033H
	DW	039H
	DW	033H
	DW	037H
	DW	034H
	DW	030H
	DW	033H
	DW	037H
	DW	034H
	DW	031H
	DW	033H
	DW	037H
	DW	034H
	DW	032H
	DW	033H
	DW	037H
	DW	034H
	DW	033H
	DW	033H
	DW	037H
	DW	034H
	DW	034H
	DW	033H
	DW	037H
	DW	034H
	DW	035H
	DW	033H
	DW	037H
	DW	034H
	DW	036H
	DW	033H
	DW	037H
	DW	034H
	DW	037H
	DW	033H
	DW	037H
	DW	034H
	DW	038H
	DW	033H
	DW	037H
	DW	034H
	DW	039H
	DW	033H
	DW	037H
	DW	035H
	DW	030H
	DW	033H
	DW	037H
	DW	035H
	DW	031H
	DW	033H
	DW	037H
	DW	035H
	DW	032H
	DW	033H
	DW	037H
	DW	035H
	DW	033H
	DW	033H
	DW	037H
	DW	035H
	DW	034H
	DW	033H
	DW	037H
	DW	035H
	DW	035H
	DW	033H
	DW	037H
	DW	035H
	DW	036H
	DW	033H
	DW	037H
	DW	035H
	DW	037H
	DW	033H
	DW	037H
	DW	035H
	DW	038H
	DW	033H
	DW	037H
	DW	035H
	DW	039H
	DW	033H
	DW	037H
	DW	036H
	DW	030H
	DW	033H
	DW	037H
	DW	036H
	DW	031H
	DW	033H
	DW	037H
	DW	036H
	DW	032H
	DW	033H
	DW	037H
	DW	036H
	DW	033H
	DW	033H
	DW	037H
	DW	036H
	DW	034H
	DW	033H
	DW	037H
	DW	036H
	DW	035H
	DW	033H
	DW	037H
	DW	036H
	DW	036H
	DW	033H
	DW	037H
	DW	036H
	DW	037H
	DW	033H
	DW	037H
	DW	036H
	DW	038H
	DW	033H
	DW	037H
	DW	036H
	DW	039H
	DW	033H
	DW	037H
	DW	037H
	DW	030H
	DW	033H
	DW	037H
	DW	037H
	DW	031H
	DW	033H
	DW	037H
	DW	037H
	DW	032H
	DW	033H
	DW	037H
	DW	037H
	DW	033H
	DW	033H
	DW	037H
	DW	037H
	DW	034H
	DW	033H
	DW	037H
	DW	037H
	DW	035H
	DW	033H
	DW	037H
	DW	037H
	DW	036H
	DW	033H
	DW	037H
	DW	037H
	DW	037H
	DW	033H
	DW	037H
	DW	037H
	DW	038H
	DW	033H
	DW	037H
	DW	037H
	DW	039H
	DW	033H
	DW	037H
	DW	038H
	DW	030H
	DW	033H
	DW	037H
	DW	038H
	DW	031H
	DW	033H
	DW	037H
	DW	038H
	DW	032H
	DW	033H
	DW	037H
	DW	038H
	DW	033H
	DW	033H
	DW	037H
	DW	038H
	DW	034H
	DW	033H
	DW	037H
	DW	038H
	DW	035H
	DW	033H
	DW	037H
	DW	038H
	DW	036H
	DW	033H
	DW	037H
	DW	038H
	DW	037H
	DW	033H
	DW	037H
	DW	038H
	DW	038H
	DW	033H
	DW	037H
	DW	038H
	DW	039H
	DW	033H
	DW	037H
	DW	039H
	DW	030H
	DW	033H
	DW	037H
	DW	039H
	DW	031H
	DW	033H
	DW	037H
	DW	039H
	DW	032H
	DW	033H
	DW	037H
	DW	039H
	DW	033H
	DW	033H
	DW	037H
	DW	039H
	DW	034H
	DW	033H
	DW	037H
	DW	039H
	DW	035H
	DW	033H
	DW	037H
	DW	039H
	DW	036H
	DW	033H
	DW	037H
	DW	039H
	DW	037H
	DW	033H
	DW	037H
	DW	039H
	DW	038H
	DW	033H
	DW	037H
	DW	039H
	DW	039H
	DW	033H
	DW	038H
	DW	030H
	DW	030H
	DW	033H
	DW	038H
	DW	030H
	DW	031H
	DW	033H
	DW	038H
	DW	030H
	DW	032H
	DW	033H
	DW	038H
	DW	030H
	DW	033H
	DW	033H
	DW	038H
	DW	030H
	DW	034H
	DW	033H
	DW	038H
	DW	030H
	DW	035H
	DW	033H
	DW	038H
	DW	030H
	DW	036H
	DW	033H
	DW	038H
	DW	030H
	DW	037H
	DW	033H
	DW	038H
	DW	030H
	DW	038H
	DW	033H
	DW	038H
	DW	030H
	DW	039H
	DW	033H
	DW	038H
	DW	031H
	DW	030H
	DW	033H
	DW	038H
	DW	031H
	DW	031H
	DW	033H
	DW	038H
	DW	031H
	DW	032H
	DW	033H
	DW	038H
	DW	031H
	DW	033H
	DW	033H
	DW	038H
	DW	031H
	DW	034H
	DW	033H
	DW	038H
	DW	031H
	DW	035H
	DW	033H
	DW	038H
	DW	031H
	DW	036H
	DW	033H
	DW	038H
	DW	031H
	DW	037H
	DW	033H
	DW	038H
	DW	031H
	DW	038H
	DW	033H
	DW	038H
	DW	031H
	DW	039H
	DW	033H
	DW	038H
	DW	032H
	DW	030H
	DW	033H
	DW	038H
	DW	032H
	DW	031H
	DW	033H
	DW	038H
	DW	032H
	DW	032H
	DW	033H
	DW	038H
	DW	032H
	DW	033H
	DW	033H
	DW	038H
	DW	032H
	DW	034H
	DW	033H
	DW	038H
	DW	032H
	DW	035H
	DW	033H
	DW	038H
	DW	032H
	DW	036H
	DW	033H
	DW	038H
	DW	032H
	DW	037H
	DW	033H
	DW	038H
	DW	032H
	DW	038H
	DW	033H
	DW	038H
	DW	032H
	DW	039H
	DW	033H
	DW	038H
	DW	033H
	DW	030H
	DW	033H
	DW	038H
	DW	033H
	DW	031H
	DW	033H
	DW	038H
	DW	033H
	DW	032H
	DW	033H
	DW	038H
	DW	033H
	DW	033H
	DW	033H
	DW	038H
	DW	033H
	DW	034H
	DW	033H
	DW	038H
	DW	033H
	DW	035H
	DW	033H
	DW	038H
	DW	033H
	DW	036H
	DW	033H
	DW	038H
	DW	033H
	DW	037H
	DW	033H
	DW	038H
	DW	033H
	DW	038H
	DW	033H
	DW	038H
	DW	033H
	DW	039H
	DW	033H
	DW	038H
	DW	034H
	DW	030H
	DW	033H
	DW	038H
	DW	034H
	DW	031H
	DW	033H
	DW	038H
	DW	034H
	DW	032H
	DW	033H
	DW	038H
	DW	034H
	DW	033H
	DW	033H
	DW	038H
	DW	034H
	DW	034H
	DW	033H
	DW	038H
	DW	034H
	DW	035H
	DW	033H
	DW	038H
	DW	034H
	DW	036H
	DW	033H
	DW	038H
	DW	034H
	DW	037H
	DW	033H
	DW	038H
	DW	034H
	DW	038H
	DW	033H
	DW	038H
	DW	034H
	DW	039H
	DW	033H
	DW	038H
	DW	035H
	DW	030H
	DW	033H
	DW	038H
	DW	035H
	DW	031H
	DW	033H
	DW	038H
	DW	035H
	DW	032H
	DW	033H
	DW	038H
	DW	035H
	DW	033H
	DW	033H
	DW	038H
	DW	035H
	DW	034H
	DW	033H
	DW	038H
	DW	035H
	DW	035H
	DW	033H
	DW	038H
	DW	035H
	DW	036H
	DW	033H
	DW	038H
	DW	035H
	DW	037H
	DW	033H
	DW	038H
	DW	035H
	DW	038H
	DW	033H
	DW	038H
	DW	035H
	DW	039H
	DW	033H
	DW	038H
	DW	036H
	DW	030H
	DW	033H
	DW	038H
	DW	036H
	DW	031H
	DW	033H
	DW	038H
	DW	036H
	DW	032H
	DW	033H
	DW	038H
	DW	036H
	DW	033H
	DW	033H
	DW	038H
	DW	036H
	DW	034H
	DW	033H
	DW	038H
	DW	036H
	DW	035H
	DW	033H
	DW	038H
	DW	036H
	DW	036H
	DW	033H
	DW	038H
	DW	036H
	DW	037H
	DW	033H
	DW	038H
	DW	036H
	DW	038H
	DW	033H
	DW	038H
	DW	036H
	DW	039H
	DW	033H
	DW	038H
	DW	037H
	DW	030H
	DW	033H
	DW	038H
	DW	037H
	DW	031H
	DW	033H
	DW	038H
	DW	037H
	DW	032H
	DW	033H
	DW	038H
	DW	037H
	DW	033H
	DW	033H
	DW	038H
	DW	037H
	DW	034H
	DW	033H
	DW	038H
	DW	037H
	DW	035H
	DW	033H
	DW	038H
	DW	037H
	DW	036H
	DW	033H
	DW	038H
	DW	037H
	DW	037H
	DW	033H
	DW	038H
	DW	037H
	DW	038H
	DW	033H
	DW	038H
	DW	037H
	DW	039H
	DW	033H
	DW	038H
	DW	038H
	DW	030H
	DW	033H
	DW	038H
	DW	038H
	DW	031H
	DW	033H
	DW	038H
	DW	038H
	DW	032H
	DW	033H
	DW	038H
	DW	038H
	DW	033H
	DW	033H
	DW	038H
	DW	038H
	DW	034H
	DW	033H
	DW	038H
	DW	038H
	DW	035H
	DW	033H
	DW	038H
	DW	038H
	DW	036H
	DW	033H
	DW	038H
	DW	038H
	DW	037H
	DW	033H
	DW	038H
	DW	038H
	DW	038H
	DW	033H
	DW	038H
	DW	038H
	DW	039H
	DW	033H
	DW	038H
	DW	039H
	DW	030H
	DW	033H
	DW	038H
	DW	039H
	DW	031H
	DW	033H
	DW	038H
	DW	039H
	DW	032H
	DW	033H
	DW	038H
	DW	039H
	DW	033H
	DW	033H
	DW	038H
	DW	039H
	DW	034H
	DW	033H
	DW	038H
	DW	039H
	DW	035H
	DW	033H
	DW	038H
	DW	039H
	DW	036H
	DW	033H
	DW	038H
	DW	039H
	DW	037H
	DW	033H
	DW	038H
	DW	039H
	DW	038H
	DW	033H
	DW	038H
	DW	039H
	DW	039H
	DW	033H
	DW	039H
	DW	030H
	DW	030H
	DW	033H
	DW	039H
	DW	030H
	DW	031H
	DW	033H
	DW	039H
	DW	030H
	DW	032H
	DW	033H
	DW	039H
	DW	030H
	DW	033H
	DW	033H
	DW	039H
	DW	030H
	DW	034H
	DW	033H
	DW	039H
	DW	030H
	DW	035H
	DW	033H
	DW	039H
	DW	030H
	DW	036H
	DW	033H
	DW	039H
	DW	030H
	DW	037H
	DW	033H
	DW	039H
	DW	030H
	DW	038H
	DW	033H
	DW	039H
	DW	030H
	DW	039H
	DW	033H
	DW	039H
	DW	031H
	DW	030H
	DW	033H
	DW	039H
	DW	031H
	DW	031H
	DW	033H
	DW	039H
	DW	031H
	DW	032H
	DW	033H
	DW	039H
	DW	031H
	DW	033H
	DW	033H
	DW	039H
	DW	031H
	DW	034H
	DW	033H
	DW	039H
	DW	031H
	DW	035H
	DW	033H
	DW	039H
	DW	031H
	DW	036H
	DW	033H
	DW	039H
	DW	031H
	DW	037H
	DW	033H
	DW	039H
	DW	031H
	DW	038H
	DW	033H
	DW	039H
	DW	031H
	DW	039H
	DW	033H
	DW	039H
	DW	032H
	DW	030H
	DW	033H
	DW	039H
	DW	032H
	DW	031H
	DW	033H
	DW	039H
	DW	032H
	DW	032H
	DW	033H
	DW	039H
	DW	032H
	DW	033H
	DW	033H
	DW	039H
	DW	032H
	DW	034H
	DW	033H
	DW	039H
	DW	032H
	DW	035H
	DW	033H
	DW	039H
	DW	032H
	DW	036H
	DW	033H
	DW	039H
	DW	032H
	DW	037H
	DW	033H
	DW	039H
	DW	032H
	DW	038H
	DW	033H
	DW	039H
	DW	032H
	DW	039H
	DW	033H
	DW	039H
	DW	033H
	DW	030H
	DW	033H
	DW	039H
	DW	033H
	DW	031H
	DW	033H
	DW	039H
	DW	033H
	DW	032H
	DW	033H
	DW	039H
	DW	033H
	DW	033H
	DW	033H
	DW	039H
	DW	033H
	DW	034H
	DW	033H
	DW	039H
	DW	033H
	DW	035H
	DW	033H
	DW	039H
	DW	033H
	DW	036H
	DW	033H
	DW	039H
	DW	033H
	DW	037H
	DW	033H
	DW	039H
	DW	033H
	DW	038H
	DW	033H
	DW	039H
	DW	033H
	DW	039H
	DW	033H
	DW	039H
	DW	034H
	DW	030H
	DW	033H
	DW	039H
	DW	034H
	DW	031H
	DW	033H
	DW	039H
	DW	034H
	DW	032H
	DW	033H
	DW	039H
	DW	034H
	DW	033H
	DW	033H
	DW	039H
	DW	034H
	DW	034H
	DW	033H
	DW	039H
	DW	034H
	DW	035H
	DW	033H
	DW	039H
	DW	034H
	DW	036H
	DW	033H
	DW	039H
	DW	034H
	DW	037H
	DW	033H
	DW	039H
	DW	034H
	DW	038H
	DW	033H
	DW	039H
	DW	034H
	DW	039H
	DW	033H
	DW	039H
	DW	035H
	DW	030H
	DW	033H
	DW	039H
	DW	035H
	DW	031H
	DW	033H
	DW	039H
	DW	035H
	DW	032H
	DW	033H
	DW	039H
	DW	035H
	DW	033H
	DW	033H
	DW	039H
	DW	035H
	DW	034H
	DW	033H
	DW	039H
	DW	035H
	DW	035H
	DW	033H
	DW	039H
	DW	035H
	DW	036H
	DW	033H
	DW	039H
	DW	035H
	DW	037H
	DW	033H
	DW	039H
	DW	035H
	DW	038H
	DW	033H
	DW	039H
	DW	035H
	DW	039H
	DW	033H
	DW	039H
	DW	036H
	DW	030H
	DW	033H
	DW	039H
	DW	036H
	DW	031H
	DW	033H
	DW	039H
	DW	036H
	DW	032H
	DW	033H
	DW	039H
	DW	036H
	DW	033H
	DW	033H
	DW	039H
	DW	036H
	DW	034H
	DW	033H
	DW	039H
	DW	036H
	DW	035H
	DW	033H
	DW	039H
	DW	036H
	DW	036H
	DW	033H
	DW	039H
	DW	036H
	DW	037H
	DW	033H
	DW	039H
	DW	036H
	DW	038H
	DW	033H
	DW	039H
	DW	036H
	DW	039H
	DW	033H
	DW	039H
	DW	037H
	DW	030H
	DW	033H
	DW	039H
	DW	037H
	DW	031H
	DW	033H
	DW	039H
	DW	037H
	DW	032H
	DW	033H
	DW	039H
	DW	037H
	DW	033H
	DW	033H
	DW	039H
	DW	037H
	DW	034H
	DW	033H
	DW	039H
	DW	037H
	DW	035H
	DW	033H
	DW	039H
	DW	037H
	DW	036H
	DW	033H
	DW	039H
	DW	037H
	DW	037H
	DW	033H
	DW	039H
	DW	037H
	DW	038H
	DW	033H
	DW	039H
	DW	037H
	DW	039H
	DW	033H
	DW	039H
	DW	038H
	DW	030H
	DW	033H
	DW	039H
	DW	038H
	DW	031H
	DW	033H
	DW	039H
	DW	038H
	DW	032H
	DW	033H
	DW	039H
	DW	038H
	DW	033H
	DW	033H
	DW	039H
	DW	038H
	DW	034H
	DW	033H
	DW	039H
	DW	038H
	DW	035H
	DW	033H
	DW	039H
	DW	038H
	DW	036H
	DW	033H
	DW	039H
	DW	038H
	DW	037H
	DW	033H
	DW	039H
	DW	038H
	DW	038H
	DW	033H
	DW	039H
	DW	038H
	DW	039H
	DW	033H
	DW	039H
	DW	039H
	DW	030H
	DW	033H
	DW	039H
	DW	039H
	DW	031H
	DW	033H
	DW	039H
	DW	039H
	DW	032H
	DW	033H
	DW	039H
	DW	039H
	DW	033H
	DW	033H
	DW	039H
	DW	039H
	DW	034H
	DW	033H
	DW	039H
	DW	039H
	DW	035H
	DW	033H
	DW	039H
	DW	039H
	DW	036H
	DW	033H
	DW	039H
	DW	039H
	DW	037H
	DW	033H
	DW	039H
	DW	039H
	DW	038H
	DW	033H
	DW	039H
	DW	039H
	DW	039H
	DW	034H
	DW	030H
	DW	030H
	DW	030H
	DW	034H
	DW	030H
	DW	030H
	DW	031H
	DW	034H
	DW	030H
	DW	030H
	DW	032H
	DW	034H
	DW	030H
	DW	030H
	DW	033H
	DW	034H
	DW	030H
	DW	030H
	DW	034H
	DW	034H
	DW	030H
	DW	030H
	DW	035H
	DW	034H
	DW	030H
	DW	030H
	DW	036H
	DW	034H
	DW	030H
	DW	030H
	DW	037H
	DW	034H
	DW	030H
	DW	030H
	DW	038H
	DW	034H
	DW	030H
	DW	030H
	DW	039H
	DW	034H
	DW	030H
	DW	031H
	DW	030H
	DW	034H
	DW	030H
	DW	031H
	DW	031H
	DW	034H
	DW	030H
	DW	031H
	DW	032H
	DW	034H
	DW	030H
	DW	031H
	DW	033H
	DW	034H
	DW	030H
	DW	031H
	DW	034H
	DW	034H
	DW	030H
	DW	031H
	DW	035H
	DW	034H
	DW	030H
	DW	031H
	DW	036H
	DW	034H
	DW	030H
	DW	031H
	DW	037H
	DW	034H
	DW	030H
	DW	031H
	DW	038H
	DW	034H
	DW	030H
	DW	031H
	DW	039H
	DW	034H
	DW	030H
	DW	032H
	DW	030H
	DW	034H
	DW	030H
	DW	032H
	DW	031H
	DW	034H
	DW	030H
	DW	032H
	DW	032H
	DW	034H
	DW	030H
	DW	032H
	DW	033H
	DW	034H
	DW	030H
	DW	032H
	DW	034H
	DW	034H
	DW	030H
	DW	032H
	DW	035H
	DW	034H
	DW	030H
	DW	032H
	DW	036H
	DW	034H
	DW	030H
	DW	032H
	DW	037H
	DW	034H
	DW	030H
	DW	032H
	DW	038H
	DW	034H
	DW	030H
	DW	032H
	DW	039H
	DW	034H
	DW	030H
	DW	033H
	DW	030H
	DW	034H
	DW	030H
	DW	033H
	DW	031H
	DW	034H
	DW	030H
	DW	033H
	DW	032H
	DW	034H
	DW	030H
	DW	033H
	DW	033H
	DW	034H
	DW	030H
	DW	033H
	DW	034H
	DW	034H
	DW	030H
	DW	033H
	DW	035H
	DW	034H
	DW	030H
	DW	033H
	DW	036H
	DW	034H
	DW	030H
	DW	033H
	DW	037H
	DW	034H
	DW	030H
	DW	033H
	DW	038H
	DW	034H
	DW	030H
	DW	033H
	DW	039H
	DW	034H
	DW	030H
	DW	034H
	DW	030H
	DW	034H
	DW	030H
	DW	034H
	DW	031H
	DW	034H
	DW	030H
	DW	034H
	DW	032H
	DW	034H
	DW	030H
	DW	034H
	DW	033H
	DW	034H
	DW	030H
	DW	034H
	DW	034H
	DW	034H
	DW	030H
	DW	034H
	DW	035H
	DW	034H
	DW	030H
	DW	034H
	DW	036H
	DW	034H
	DW	030H
	DW	034H
	DW	037H
	DW	034H
	DW	030H
	DW	034H
	DW	038H
	DW	034H
	DW	030H
	DW	034H
	DW	039H
	DW	034H
	DW	030H
	DW	035H
	DW	030H
	DW	034H
	DW	030H
	DW	035H
	DW	031H
	DW	034H
	DW	030H
	DW	035H
	DW	032H
	DW	034H
	DW	030H
	DW	035H
	DW	033H
	DW	034H
	DW	030H
	DW	035H
	DW	034H
	DW	034H
	DW	030H
	DW	035H
	DW	035H
	DW	034H
	DW	030H
	DW	035H
	DW	036H
	DW	034H
	DW	030H
	DW	035H
	DW	037H
	DW	034H
	DW	030H
	DW	035H
	DW	038H
	DW	034H
	DW	030H
	DW	035H
	DW	039H
	DW	034H
	DW	030H
	DW	036H
	DW	030H
	DW	034H
	DW	030H
	DW	036H
	DW	031H
	DW	034H
	DW	030H
	DW	036H
	DW	032H
	DW	034H
	DW	030H
	DW	036H
	DW	033H
	DW	034H
	DW	030H
	DW	036H
	DW	034H
	DW	034H
	DW	030H
	DW	036H
	DW	035H
	DW	034H
	DW	030H
	DW	036H
	DW	036H
	DW	034H
	DW	030H
	DW	036H
	DW	037H
	DW	034H
	DW	030H
	DW	036H
	DW	038H
	DW	034H
	DW	030H
	DW	036H
	DW	039H
	DW	034H
	DW	030H
	DW	037H
	DW	030H
	DW	034H
	DW	030H
	DW	037H
	DW	031H
	DW	034H
	DW	030H
	DW	037H
	DW	032H
	DW	034H
	DW	030H
	DW	037H
	DW	033H
	DW	034H
	DW	030H
	DW	037H
	DW	034H
	DW	034H
	DW	030H
	DW	037H
	DW	035H
	DW	034H
	DW	030H
	DW	037H
	DW	036H
	DW	034H
	DW	030H
	DW	037H
	DW	037H
	DW	034H
	DW	030H
	DW	037H
	DW	038H
	DW	034H
	DW	030H
	DW	037H
	DW	039H
	DW	034H
	DW	030H
	DW	038H
	DW	030H
	DW	034H
	DW	030H
	DW	038H
	DW	031H
	DW	034H
	DW	030H
	DW	038H
	DW	032H
	DW	034H
	DW	030H
	DW	038H
	DW	033H
	DW	034H
	DW	030H
	DW	038H
	DW	034H
	DW	034H
	DW	030H
	DW	038H
	DW	035H
	DW	034H
	DW	030H
	DW	038H
	DW	036H
	DW	034H
	DW	030H
	DW	038H
	DW	037H
	DW	034H
	DW	030H
	DW	038H
	DW	038H
	DW	034H
	DW	030H
	DW	038H
	DW	039H
	DW	034H
	DW	030H
	DW	039H
	DW	030H
	DW	034H
	DW	030H
	DW	039H
	DW	031H
	DW	034H
	DW	030H
	DW	039H
	DW	032H
	DW	034H
	DW	030H
	DW	039H
	DW	033H
	DW	034H
	DW	030H
	DW	039H
	DW	034H
	DW	034H
	DW	030H
	DW	039H
	DW	035H
_gDigitCount DD	01H
	DD	01H
	DD	01H
	DD	01H
	DD	01H
	DD	01H
	DD	01H
	DD	01H
	DD	01H
	DD	01H
	DD	02H
	DD	02H
	DD	02H
	DD	02H
	DD	02H
	DD	02H
	DD	02H
	DD	02H
	DD	02H
	DD	02H
	DD	02H
	DD	02H
	DD	02H
	DD	02H
	DD	02H
	DD	02H
	DD	02H
	DD	02H
	DD	02H
	DD	02H
	DD	02H
	DD	02H
	DD	02H
	DD	02H
	DD	02H
	DD	02H
	DD	02H
	DD	02H
	DD	02H
	DD	02H
	DD	02H
	DD	02H
	DD	02H
	DD	02H
	DD	02H
	DD	02H
	DD	02H
	DD	02H
	DD	02H
	DD	02H
	DD	02H
	DD	02H
	DD	02H
	DD	02H
	DD	02H
	DD	02H
	DD	02H
	DD	02H
	DD	02H
	DD	02H
	DD	02H
	DD	02H
	DD	02H
	DD	02H
	DD	02H
	DD	02H
	DD	02H
	DD	02H
	DD	02H
	DD	02H
	DD	02H
	DD	02H
	DD	02H
	DD	02H
	DD	02H
	DD	02H
	DD	02H
	DD	02H
	DD	02H
	DD	02H
	DD	02H
	DD	02H
	DD	02H
	DD	02H
	DD	02H
	DD	02H
	DD	02H
	DD	02H
	DD	02H
	DD	02H
	DD	02H
	DD	02H
	DD	02H
	DD	02H
	DD	02H
	DD	02H
	DD	02H
	DD	02H
	DD	02H
	DD	02H
	DD	03H
	DD	03H
	DD	03H
	DD	03H
	DD	03H
	DD	03H
	DD	03H
	DD	03H
	DD	03H
	DD	03H
	DD	03H
	DD	03H
	DD	03H
	DD	03H
	DD	03H
	DD	03H
	DD	03H
	DD	03H
	DD	03H
	DD	03H
	DD	03H
	DD	03H
	DD	03H
	DD	03H
	DD	03H
	DD	03H
	DD	03H
	DD	03H
	DD	03H
	DD	03H
	DD	03H
	DD	03H
	DD	03H
	DD	03H
	DD	03H
	DD	03H
	DD	03H
	DD	03H
	DD	03H
	DD	03H
	DD	03H
	DD	03H
	DD	03H
	DD	03H
	DD	03H
	DD	03H
	DD	03H
	DD	03H
	DD	03H
	DD	03H
	DD	03H
	DD	03H
	DD	03H
	DD	03H
	DD	03H
	DD	03H
	DD	03H
	DD	03H
	DD	03H
	DD	03H
	DD	03H
	DD	03H
	DD	03H
	DD	03H
	DD	03H
	DD	03H
	DD	03H
	DD	03H
	DD	03H
	DD	03H
	DD	03H
	DD	03H
	DD	03H
	DD	03H
	DD	03H
	DD	03H
	DD	03H
	DD	03H
	DD	03H
	DD	03H
	DD	03H
	DD	03H
	DD	03H
	DD	03H
	DD	03H
	DD	03H
	DD	03H
	DD	03H
	DD	03H
	DD	03H
	DD	03H
	DD	03H
	DD	03H
	DD	03H
	DD	03H
	DD	03H
	DD	03H
	DD	03H
	DD	03H
	DD	03H
	DD	03H
	DD	03H
	DD	03H
	DD	03H
	DD	03H
	DD	03H
	DD	03H
	DD	03H
	DD	03H
	DD	03H
	DD	03H
	DD	03H
	DD	03H
	DD	03H
	DD	03H
	DD	03H
	DD	03H
	DD	03H
	DD	03H
	DD	03H
	DD	03H
	DD	03H
	DD	03H
	DD	03H
	DD	03H
	DD	03H
	DD	03H
	DD	03H
	DD	03H
	DD	03H
	DD	03H
	DD	03H
	DD	03H
	DD	03H
	DD	03H
	DD	03H
	DD	03H
	DD	03H
	DD	03H
	DD	03H
	DD	03H
	DD	03H
	DD	03H
	DD	03H
	DD	03H
	DD	03H
	DD	03H
	DD	03H
	DD	03H
	DD	03H
	DD	03H
	DD	03H
	DD	03H
	DD	03H
	DD	03H
	DD	03H
	DD	03H
	DD	03H
	DD	03H
	DD	03H
	DD	03H
	DD	03H
	DD	03H
	DD	03H
	DD	03H
	DD	03H
	DD	03H
	DD	03H
	DD	03H
	DD	03H
	DD	03H
	DD	03H
	DD	03H
	DD	03H
	DD	03H
	DD	03H
	DD	03H
	DD	03H
	DD	03H
	DD	03H
	DD	03H
	DD	03H
	DD	03H
	DD	03H
	DD	03H
	DD	03H
	DD	03H
	DD	03H
	DD	03H
	DD	03H
	DD	03H
	DD	03H
	DD	03H
	DD	03H
	DD	03H
	DD	03H
	DD	03H
	DD	03H
	DD	03H
	DD	03H
	DD	03H
	DD	03H
	DD	03H
	DD	03H
	DD	03H
	DD	03H
	DD	03H
	DD	03H
	DD	03H
	DD	03H
	DD	03H
	DD	03H
	DD	03H
	DD	03H
	DD	03H
	DD	03H
	DD	03H
	DD	03H
	DD	03H
	DD	03H
	DD	03H
	DD	03H
	DD	03H
	DD	03H
	DD	03H
	DD	03H
	DD	03H
	DD	03H
	DD	03H
	DD	03H
	DD	03H
	DD	03H
	DD	03H
	DD	03H
	DD	03H
	DD	03H
	DD	03H
	DD	03H
	DD	03H
	DD	03H
	DD	03H
	DD	03H
	DD	03H
	DD	03H
	DD	03H
	DD	03H
	DD	03H
	DD	03H
	DD	03H
	DD	03H
	DD	03H
	DD	03H
	DD	03H
	DD	03H
	DD	03H
	DD	03H
	DD	03H
	DD	03H
	DD	03H
	DD	03H
	DD	03H
	DD	03H
	DD	03H
	DD	03H
	DD	03H
	DD	03H
	DD	03H
	DD	03H
	DD	03H
	DD	03H
	DD	03H
	DD	03H
	DD	03H
	DD	03H
	DD	03H
	DD	03H
	DD	03H
	DD	03H
	DD	03H
	DD	03H
	DD	03H
	DD	03H
	DD	03H
	DD	03H
	DD	03H
	DD	03H
	DD	03H
	DD	03H
	DD	03H
	DD	03H
	DD	03H
	DD	03H
	DD	03H
	DD	03H
	DD	03H
	DD	03H
	DD	03H
	DD	03H
	DD	03H
	DD	03H
	DD	03H
	DD	03H
	DD	03H
	DD	03H
	DD	03H
	DD	03H
	DD	03H
	DD	03H
	DD	03H
	DD	03H
	DD	03H
	DD	03H
	DD	03H
	DD	03H
	DD	03H
	DD	03H
	DD	03H
	DD	03H
	DD	03H
	DD	03H
	DD	03H
	DD	03H
	DD	03H
	DD	03H
	DD	03H
	DD	03H
	DD	03H
	DD	03H
	DD	03H
	DD	03H
	DD	03H
	DD	03H
	DD	03H
	DD	03H
	DD	03H
	DD	03H
	DD	03H
	DD	03H
	DD	03H
	DD	03H
	DD	03H
	DD	03H
	DD	03H
	DD	03H
	DD	03H
	DD	03H
	DD	03H
	DD	03H
	DD	03H
	DD	03H
	DD	03H
	DD	03H
	DD	03H
	DD	03H
	DD	03H
	DD	03H
	DD	03H
	DD	03H
	DD	03H
	DD	03H
	DD	03H
	DD	03H
	DD	03H
	DD	03H
	DD	03H
	DD	03H
	DD	03H
	DD	03H
	DD	03H
	DD	03H
	DD	03H
	DD	03H
	DD	03H
	DD	03H
	DD	03H
	DD	03H
	DD	03H
	DD	03H
	DD	03H
	DD	03H
	DD	03H
	DD	03H
	DD	03H
	DD	03H
	DD	03H
	DD	03H
	DD	03H
	DD	03H
	DD	03H
	DD	03H
	DD	03H
	DD	03H
	DD	03H
	DD	03H
	DD	03H
	DD	03H
	DD	03H
	DD	03H
	DD	03H
	DD	03H
	DD	03H
	DD	03H
	DD	03H
	DD	03H
	DD	03H
	DD	03H
	DD	03H
	DD	03H
	DD	03H
	DD	03H
	DD	03H
	DD	03H
	DD	03H
	DD	03H
	DD	03H
	DD	03H
	DD	03H
	DD	03H
	DD	03H
	DD	03H
	DD	03H
	DD	03H
	DD	03H
	DD	03H
	DD	03H
	DD	03H
	DD	03H
	DD	03H
	DD	03H
	DD	03H
	DD	03H
	DD	03H
	DD	03H
	DD	03H
	DD	03H
	DD	03H
	DD	03H
	DD	03H
	DD	03H
	DD	03H
	DD	03H
	DD	03H
	DD	03H
	DD	03H
	DD	03H
	DD	03H
	DD	03H
	DD	03H
	DD	03H
	DD	03H
	DD	03H
	DD	03H
	DD	03H
	DD	03H
	DD	03H
	DD	03H
	DD	03H
	DD	03H
	DD	03H
	DD	03H
	DD	03H
	DD	03H
	DD	03H
	DD	03H
	DD	03H
	DD	03H
	DD	03H
	DD	03H
	DD	03H
	DD	03H
	DD	03H
	DD	03H
	DD	03H
	DD	03H
	DD	03H
	DD	03H
	DD	03H
	DD	03H
	DD	03H
	DD	03H
	DD	03H
	DD	03H
	DD	03H
	DD	03H
	DD	03H
	DD	03H
	DD	03H
	DD	03H
	DD	03H
	DD	03H
	DD	03H
	DD	03H
	DD	03H
	DD	03H
	DD	03H
	DD	03H
	DD	03H
	DD	03H
	DD	03H
	DD	03H
	DD	03H
	DD	03H
	DD	03H
	DD	03H
	DD	03H
	DD	03H
	DD	03H
	DD	03H
	DD	03H
	DD	03H
	DD	03H
	DD	03H
	DD	03H
	DD	03H
	DD	03H
	DD	03H
	DD	03H
	DD	03H
	DD	03H
	DD	03H
	DD	03H
	DD	03H
	DD	03H
	DD	03H
	DD	03H
	DD	03H
	DD	03H
	DD	03H
	DD	03H
	DD	03H
	DD	03H
	DD	03H
	DD	03H
	DD	03H
	DD	03H
	DD	03H
	DD	03H
	DD	03H
	DD	03H
	DD	03H
	DD	03H
	DD	03H
	DD	03H
	DD	03H
	DD	03H
	DD	03H
	DD	03H
	DD	03H
	DD	03H
	DD	03H
	DD	03H
	DD	03H
	DD	03H
	DD	03H
	DD	03H
	DD	03H
	DD	03H
	DD	03H
	DD	03H
	DD	03H
	DD	03H
	DD	03H
	DD	03H
	DD	03H
	DD	03H
	DD	03H
	DD	03H
	DD	03H
	DD	03H
	DD	03H
	DD	03H
	DD	03H
	DD	03H
	DD	03H
	DD	03H
	DD	03H
	DD	03H
	DD	03H
	DD	03H
	DD	03H
	DD	03H
	DD	03H
	DD	03H
	DD	03H
	DD	03H
	DD	03H
	DD	03H
	DD	03H
	DD	03H
	DD	03H
	DD	03H
	DD	03H
	DD	03H
	DD	03H
	DD	03H
	DD	03H
	DD	03H
	DD	03H
	DD	03H
	DD	03H
	DD	03H
	DD	03H
	DD	03H
	DD	03H
	DD	03H
	DD	03H
	DD	03H
	DD	03H
	DD	03H
	DD	03H
	DD	03H
	DD	03H
	DD	03H
	DD	03H
	DD	03H
	DD	03H
	DD	03H
	DD	03H
	DD	03H
	DD	03H
	DD	03H
	DD	03H
	DD	03H
	DD	03H
	DD	03H
	DD	03H
	DD	03H
	DD	03H
	DD	03H
	DD	03H
	DD	03H
	DD	03H
	DD	03H
	DD	03H
	DD	03H
	DD	03H
	DD	03H
	DD	03H
	DD	03H
	DD	03H
	DD	03H
	DD	03H
	DD	03H
	DD	03H
	DD	03H
	DD	03H
	DD	03H
	DD	03H
	DD	03H
	DD	03H
	DD	03H
	DD	03H
	DD	03H
	DD	03H
	DD	03H
	DD	03H
	DD	03H
	DD	03H
	DD	03H
	DD	03H
	DD	03H
	DD	03H
	DD	03H
	DD	03H
	DD	03H
	DD	03H
	DD	03H
	DD	03H
	DD	03H
	DD	03H
	DD	03H
	DD	03H
	DD	03H
	DD	03H
	DD	03H
	DD	03H
	DD	03H
	DD	03H
	DD	03H
	DD	03H
	DD	03H
	DD	03H
	DD	03H
	DD	03H
	DD	03H
	DD	03H
	DD	03H
	DD	03H
	DD	03H
	DD	03H
	DD	03H
	DD	03H
	DD	03H
	DD	03H
	DD	03H
	DD	03H
	DD	03H
	DD	03H
	DD	03H
	DD	03H
	DD	03H
	DD	03H
	DD	03H
	DD	03H
	DD	03H
	DD	03H
	DD	03H
	DD	03H
	DD	03H
	DD	03H
	DD	03H
	DD	03H
	DD	03H
	DD	03H
	DD	03H
	DD	03H
	DD	03H
	DD	03H
	DD	03H
	DD	03H
	DD	03H
	DD	03H
	DD	03H
	DD	03H
	DD	03H
	DD	03H
	DD	03H
	DD	03H
	DD	03H
	DD	03H
	DD	03H
	DD	03H
	DD	03H
	DD	03H
	DD	03H
	DD	03H
	DD	03H
	DD	03H
	DD	03H
	DD	03H
	DD	03H
	DD	03H
	DD	03H
	DD	03H
	DD	03H
	DD	03H
	DD	03H
	DD	03H
	DD	03H
	DD	03H
	DD	03H
	DD	03H
	DD	03H
	DD	03H
	DD	03H
	DD	03H
	DD	03H
	DD	03H
	DD	03H
	DD	03H
	DD	03H
	DD	03H
	DD	03H
	DD	03H
	DD	03H
	DD	03H
	DD	03H
	DD	03H
	DD	03H
	DD	03H
	DD	03H
	DD	03H
	DD	03H
	DD	03H
	DD	03H
	DD	03H
	DD	03H
	DD	03H
	DD	03H
	DD	03H
	DD	03H
	DD	03H
	DD	03H
	DD	03H
	DD	03H
	DD	03H
	DD	03H
	DD	03H
	DD	03H
	DD	03H
	DD	03H
	DD	03H
	DD	03H
	DD	03H
	DD	03H
	DD	03H
	DD	03H
	DD	03H
	DD	03H
	DD	03H
	DD	03H
	DD	03H
	DD	03H
	DD	03H
	DD	03H
	DD	03H
	DD	03H
	DD	03H
	DD	03H
	DD	03H
	DD	03H
	DD	03H
	DD	03H
	DD	03H
	DD	03H
	DD	03H
	DD	03H
	DD	03H
	DD	03H
	DD	03H
	DD	03H
	DD	03H
	DD	03H
	DD	03H
	DD	03H
	DD	03H
	DD	03H
	DD	03H
	DD	03H
	DD	03H
	DD	03H
	DD	03H
	DD	03H
	DD	03H
	DD	03H
	DD	03H
	DD	03H
	DD	03H
	DD	03H
	DD	03H
	DD	03H
	DD	03H
	DD	03H
	DD	03H
	DD	03H
	DD	03H
	DD	03H
	DD	03H
	DD	03H
	DD	03H
	DD	03H
	DD	03H
	DD	03H
	DD	03H
	DD	03H
	DD	03H
	DD	03H
	DD	03H
	DD	03H
	DD	03H
	DD	03H
	DD	03H
	DD	03H
	DD	03H
	DD	03H
	DD	03H
	DD	03H
	DD	03H
	DD	03H
	DD	03H
	DD	03H
	DD	03H
	DD	03H
	DD	03H
	DD	03H
	DD	03H
	DD	03H
	DD	03H
	DD	03H
	DD	03H
	DD	03H
	DD	03H
	DD	03H
	DD	03H
	DD	03H
	DD	03H
	DD	03H
	DD	03H
	DD	03H
	DD	03H
	DD	03H
	DD	03H
	DD	03H
	DD	03H
	DD	03H
	DD	03H
	DD	03H
	DD	03H
	DD	03H
	DD	03H
	DD	04H
	DD	04H
	DD	04H
	DD	04H
	DD	04H
	DD	04H
	DD	04H
	DD	04H
	DD	04H
	DD	04H
	DD	04H
	DD	04H
	DD	04H
	DD	04H
	DD	04H
	DD	04H
	DD	04H
	DD	04H
	DD	04H
	DD	04H
	DD	04H
	DD	04H
	DD	04H
	DD	04H
	DD	04H
	DD	04H
	DD	04H
	DD	04H
	DD	04H
	DD	04H
	DD	04H
	DD	04H
	DD	04H
	DD	04H
	DD	04H
	DD	04H
	DD	04H
	DD	04H
	DD	04H
	DD	04H
	DD	04H
	DD	04H
	DD	04H
	DD	04H
	DD	04H
	DD	04H
	DD	04H
	DD	04H
	DD	04H
	DD	04H
	DD	04H
	DD	04H
	DD	04H
	DD	04H
	DD	04H
	DD	04H
	DD	04H
	DD	04H
	DD	04H
	DD	04H
	DD	04H
	DD	04H
	DD	04H
	DD	04H
	DD	04H
	DD	04H
	DD	04H
	DD	04H
	DD	04H
	DD	04H
	DD	04H
	DD	04H
	DD	04H
	DD	04H
	DD	04H
	DD	04H
	DD	04H
	DD	04H
	DD	04H
	DD	04H
	DD	04H
	DD	04H
	DD	04H
	DD	04H
	DD	04H
	DD	04H
	DD	04H
	DD	04H
	DD	04H
	DD	04H
	DD	04H
	DD	04H
	DD	04H
	DD	04H
	DD	04H
	DD	04H
	DD	04H
	DD	04H
	DD	04H
	DD	04H
	DD	04H
	DD	04H
	DD	04H
	DD	04H
	DD	04H
	DD	04H
	DD	04H
	DD	04H
	DD	04H
	DD	04H
	DD	04H
	DD	04H
	DD	04H
	DD	04H
	DD	04H
	DD	04H
	DD	04H
	DD	04H
	DD	04H
	DD	04H
	DD	04H
	DD	04H
	DD	04H
	DD	04H
	DD	04H
	DD	04H
	DD	04H
	DD	04H
	DD	04H
	DD	04H
	DD	04H
	DD	04H
	DD	04H
	DD	04H
	DD	04H
	DD	04H
	DD	04H
	DD	04H
	DD	04H
	DD	04H
	DD	04H
	DD	04H
	DD	04H
	DD	04H
	DD	04H
	DD	04H
	DD	04H
	DD	04H
	DD	04H
	DD	04H
	DD	04H
	DD	04H
	DD	04H
	DD	04H
	DD	04H
	DD	04H
	DD	04H
	DD	04H
	DD	04H
	DD	04H
	DD	04H
	DD	04H
	DD	04H
	DD	04H
	DD	04H
	DD	04H
	DD	04H
	DD	04H
	DD	04H
	DD	04H
	DD	04H
	DD	04H
	DD	04H
	DD	04H
	DD	04H
	DD	04H
	DD	04H
	DD	04H
	DD	04H
	DD	04H
	DD	04H
	DD	04H
	DD	04H
	DD	04H
	DD	04H
	DD	04H
	DD	04H
	DD	04H
	DD	04H
	DD	04H
	DD	04H
	DD	04H
	DD	04H
	DD	04H
	DD	04H
	DD	04H
	DD	04H
	DD	04H
	DD	04H
	DD	04H
	DD	04H
	DD	04H
	DD	04H
	DD	04H
	DD	04H
	DD	04H
	DD	04H
	DD	04H
	DD	04H
	DD	04H
	DD	04H
	DD	04H
	DD	04H
	DD	04H
	DD	04H
	DD	04H
	DD	04H
	DD	04H
	DD	04H
	DD	04H
	DD	04H
	DD	04H
	DD	04H
	DD	04H
	DD	04H
	DD	04H
	DD	04H
	DD	04H
	DD	04H
	DD	04H
	DD	04H
	DD	04H
	DD	04H
	DD	04H
	DD	04H
	DD	04H
	DD	04H
	DD	04H
	DD	04H
	DD	04H
	DD	04H
	DD	04H
	DD	04H
	DD	04H
	DD	04H
	DD	04H
	DD	04H
	DD	04H
	DD	04H
	DD	04H
	DD	04H
	DD	04H
	DD	04H
	DD	04H
	DD	04H
	DD	04H
	DD	04H
	DD	04H
	DD	04H
	DD	04H
	DD	04H
	DD	04H
	DD	04H
	DD	04H
	DD	04H
	DD	04H
	DD	04H
	DD	04H
	DD	04H
	DD	04H
	DD	04H
	DD	04H
	DD	04H
	DD	04H
	DD	04H
	DD	04H
	DD	04H
	DD	04H
	DD	04H
	DD	04H
	DD	04H
	DD	04H
	DD	04H
	DD	04H
	DD	04H
	DD	04H
	DD	04H
	DD	04H
	DD	04H
	DD	04H
	DD	04H
	DD	04H
	DD	04H
	DD	04H
	DD	04H
	DD	04H
	DD	04H
	DD	04H
	DD	04H
	DD	04H
	DD	04H
	DD	04H
	DD	04H
	DD	04H
	DD	04H
	DD	04H
	DD	04H
	DD	04H
	DD	04H
	DD	04H
	DD	04H
	DD	04H
	DD	04H
	DD	04H
	DD	04H
	DD	04H
	DD	04H
	DD	04H
	DD	04H
	DD	04H
	DD	04H
	DD	04H
	DD	04H
	DD	04H
	DD	04H
	DD	04H
	DD	04H
	DD	04H
	DD	04H
	DD	04H
	DD	04H
	DD	04H
	DD	04H
	DD	04H
	DD	04H
	DD	04H
	DD	04H
	DD	04H
	DD	04H
	DD	04H
	DD	04H
	DD	04H
	DD	04H
	DD	04H
	DD	04H
	DD	04H
	DD	04H
	DD	04H
	DD	04H
	DD	04H
	DD	04H
	DD	04H
	DD	04H
	DD	04H
	DD	04H
	DD	04H
	DD	04H
	DD	04H
	DD	04H
	DD	04H
	DD	04H
	DD	04H
	DD	04H
	DD	04H
	DD	04H
	DD	04H
	DD	04H
	DD	04H
	DD	04H
	DD	04H
	DD	04H
	DD	04H
	DD	04H
	DD	04H
	DD	04H
	DD	04H
	DD	04H
	DD	04H
	DD	04H
	DD	04H
	DD	04H
	DD	04H
	DD	04H
	DD	04H
	DD	04H
	DD	04H
	DD	04H
	DD	04H
	DD	04H
	DD	04H
	DD	04H
	DD	04H
	DD	04H
	DD	04H
	DD	04H
	DD	04H
	DD	04H
	DD	04H
	DD	04H
	DD	04H
	DD	04H
	DD	04H
	DD	04H
	DD	04H
	DD	04H
	DD	04H
	DD	04H
	DD	04H
	DD	04H
	DD	04H
	DD	04H
	DD	04H
	DD	04H
	DD	04H
	DD	04H
	DD	04H
	DD	04H
	DD	04H
	DD	04H
	DD	04H
	DD	04H
	DD	04H
	DD	04H
	DD	04H
	DD	04H
	DD	04H
	DD	04H
	DD	04H
	DD	04H
	DD	04H
	DD	04H
	DD	04H
	DD	04H
	DD	04H
	DD	04H
	DD	04H
	DD	04H
	DD	04H
	DD	04H
	DD	04H
	DD	04H
	DD	04H
	DD	04H
	DD	04H
	DD	04H
	DD	04H
	DD	04H
	DD	04H
	DD	04H
	DD	04H
	DD	04H
	DD	04H
	DD	04H
	DD	04H
	DD	04H
	DD	04H
	DD	04H
	DD	04H
	DD	04H
	DD	04H
	DD	04H
	DD	04H
	DD	04H
	DD	04H
	DD	04H
	DD	04H
	DD	04H
	DD	04H
	DD	04H
	DD	04H
	DD	04H
	DD	04H
	DD	04H
	DD	04H
	DD	04H
	DD	04H
	DD	04H
	DD	04H
	DD	04H
	DD	04H
	DD	04H
	DD	04H
	DD	04H
	DD	04H
	DD	04H
	DD	04H
	DD	04H
	DD	04H
	DD	04H
	DD	04H
	DD	04H
	DD	04H
	DD	04H
	DD	04H
	DD	04H
	DD	04H
	DD	04H
	DD	04H
	DD	04H
	DD	04H
	DD	04H
	DD	04H
	DD	04H
	DD	04H
	DD	04H
	DD	04H
	DD	04H
	DD	04H
	DD	04H
	DD	04H
	DD	04H
	DD	04H
	DD	04H
	DD	04H
	DD	04H
	DD	04H
	DD	04H
	DD	04H
	DD	04H
	DD	04H
	DD	04H
	DD	04H
	DD	04H
	DD	04H
	DD	04H
	DD	04H
	DD	04H
	DD	04H
	DD	04H
	DD	04H
	DD	04H
	DD	04H
	DD	04H
	DD	04H
	DD	04H
	DD	04H
	DD	04H
	DD	04H
	DD	04H
	DD	04H
	DD	04H
	DD	04H
	DD	04H
	DD	04H
	DD	04H
	DD	04H
	DD	04H
	DD	04H
	DD	04H
	DD	04H
	DD	04H
	DD	04H
	DD	04H
	DD	04H
	DD	04H
	DD	04H
	DD	04H
	DD	04H
	DD	04H
	DD	04H
	DD	04H
	DD	04H
	DD	04H
	DD	04H
	DD	04H
	DD	04H
	DD	04H
	DD	04H
	DD	04H
	DD	04H
	DD	04H
	DD	04H
	DD	04H
	DD	04H
	DD	04H
	DD	04H
	DD	04H
	DD	04H
	DD	04H
	DD	04H
	DD	04H
	DD	04H
	DD	04H
	DD	04H
	DD	04H
	DD	04H
	DD	04H
	DD	04H
	DD	04H
	DD	04H
	DD	04H
	DD	04H
	DD	04H
	DD	04H
	DD	04H
	DD	04H
	DD	04H
	DD	04H
	DD	04H
	DD	04H
	DD	04H
	DD	04H
	DD	04H
	DD	04H
	DD	04H
	DD	04H
	DD	04H
	DD	04H
	DD	04H
	DD	04H
	DD	04H
	DD	04H
	DD	04H
	DD	04H
	DD	04H
	DD	04H
	DD	04H
	DD	04H
	DD	04H
	DD	04H
	DD	04H
	DD	04H
	DD	04H
	DD	04H
	DD	04H
	DD	04H
	DD	04H
	DD	04H
	DD	04H
	DD	04H
	DD	04H
	DD	04H
	DD	04H
	DD	04H
	DD	04H
	DD	04H
	DD	04H
	DD	04H
	DD	04H
	DD	04H
	DD	04H
	DD	04H
	DD	04H
	DD	04H
	DD	04H
	DD	04H
	DD	04H
	DD	04H
	DD	04H
	DD	04H
	DD	04H
	DD	04H
	DD	04H
	DD	04H
	DD	04H
	DD	04H
	DD	04H
	DD	04H
	DD	04H
	DD	04H
	DD	04H
	DD	04H
	DD	04H
	DD	04H
	DD	04H
	DD	04H
	DD	04H
	DD	04H
	DD	04H
	DD	04H
	DD	04H
	DD	04H
	DD	04H
	DD	04H
	DD	04H
	DD	04H
	DD	04H
	DD	04H
	DD	04H
	DD	04H
	DD	04H
	DD	04H
	DD	04H
	DD	04H
	DD	04H
	DD	04H
	DD	04H
	DD	04H
	DD	04H
	DD	04H
	DD	04H
	DD	04H
	DD	04H
	DD	04H
	DD	04H
	DD	04H
	DD	04H
	DD	04H
	DD	04H
	DD	04H
	DD	04H
	DD	04H
	DD	04H
	DD	04H
	DD	04H
	DD	04H
	DD	04H
	DD	04H
	DD	04H
	DD	04H
	DD	04H
	DD	04H
	DD	04H
	DD	04H
	DD	04H
	DD	04H
	DD	04H
	DD	04H
	DD	04H
	DD	04H
	DD	04H
	DD	04H
	DD	04H
	DD	04H
	DD	04H
	DD	04H
	DD	04H
	DD	04H
	DD	04H
	DD	04H
	DD	04H
	DD	04H
	DD	04H
	DD	04H
	DD	04H
	DD	04H
	DD	04H
	DD	04H
	DD	04H
	DD	04H
	DD	04H
	DD	04H
	DD	04H
	DD	04H
	DD	04H
	DD	04H
	DD	04H
	DD	04H
	DD	04H
	DD	04H
	DD	04H
	DD	04H
	DD	04H
	DD	04H
	DD	04H
	DD	04H
	DD	04H
	DD	04H
	DD	04H
	DD	04H
	DD	04H
	DD	04H
	DD	04H
	DD	04H
	DD	04H
	DD	04H
	DD	04H
	DD	04H
	DD	04H
	DD	04H
	DD	04H
	DD	04H
	DD	04H
	DD	04H
	DD	04H
	DD	04H
	DD	04H
	DD	04H
	DD	04H
	DD	04H
	DD	04H
	DD	04H
	DD	04H
	DD	04H
	DD	04H
	DD	04H
	DD	04H
	DD	04H
	DD	04H
	DD	04H
	DD	04H
	DD	04H
	DD	04H
	DD	04H
	DD	04H
	DD	04H
	DD	04H
	DD	04H
	DD	04H
	DD	04H
	DD	04H
	DD	04H
	DD	04H
	DD	04H
	DD	04H
	DD	04H
	DD	04H
	DD	04H
	DD	04H
	DD	04H
	DD	04H
	DD	04H
	DD	04H
	DD	04H
	DD	04H
	DD	04H
	DD	04H
	DD	04H
	DD	04H
	DD	04H
	DD	04H
	DD	04H
	DD	04H
	DD	04H
	DD	04H
	DD	04H
	DD	04H
	DD	04H
	DD	04H
	DD	04H
	DD	04H
	DD	04H
	DD	04H
	DD	04H
	DD	04H
	DD	04H
	DD	04H
	DD	04H
	DD	04H
	DD	04H
	DD	04H
	DD	04H
	DD	04H
	DD	04H
	DD	04H
	DD	04H
	DD	04H
	DD	04H
	DD	04H
	DD	04H
	DD	04H
	DD	04H
	DD	04H
	DD	04H
	DD	04H
	DD	04H
	DD	04H
	DD	04H
	DD	04H
	DD	04H
	DD	04H
	DD	04H
	DD	04H
	DD	04H
	DD	04H
	DD	04H
	DD	04H
	DD	04H
	DD	04H
	DD	04H
	DD	04H
	DD	04H
	DD	04H
	DD	04H
	DD	04H
	DD	04H
	DD	04H
	DD	04H
	DD	04H
	DD	04H
	DD	04H
	DD	04H
	DD	04H
	DD	04H
	DD	04H
	DD	04H
	DD	04H
	DD	04H
	DD	04H
	DD	04H
	DD	04H
	DD	04H
	DD	04H
	DD	04H
	DD	04H
	DD	04H
	DD	04H
	DD	04H
	DD	04H
	DD	04H
	DD	04H
	DD	04H
	DD	04H
	DD	04H
	DD	04H
	DD	04H
	DD	04H
	DD	04H
	DD	04H
	DD	04H
	DD	04H
	DD	04H
	DD	04H
	DD	04H
	DD	04H
	DD	04H
	DD	04H
	DD	04H
	DD	04H
	DD	04H
	DD	04H
	DD	04H
	DD	04H
	DD	04H
	DD	04H
	DD	04H
	DD	04H
	DD	04H
	DD	04H
	DD	04H
	DD	04H
	DD	04H
	DD	04H
	DD	04H
	DD	04H
	DD	04H
	DD	04H
	DD	04H
	DD	04H
	DD	04H
	DD	04H
	DD	04H
	DD	04H
	DD	04H
	DD	04H
	DD	04H
	DD	04H
	DD	04H
	DD	04H
	DD	04H
	DD	04H
	DD	04H
	DD	04H
	DD	04H
	DD	04H
	DD	04H
	DD	04H
	DD	04H
	DD	04H
	DD	04H
	DD	04H
	DD	04H
	DD	04H
	DD	04H
	DD	04H
	DD	04H
	DD	04H
	DD	04H
	DD	04H
	DD	04H
	DD	04H
	DD	04H
	DD	04H
	DD	04H
	DD	04H
	DD	04H
	DD	04H
	DD	04H
	DD	04H
	DD	04H
	DD	04H
	DD	04H
	DD	04H
	DD	04H
	DD	04H
	DD	04H
	DD	04H
	DD	04H
	DD	04H
	DD	04H
	DD	04H
	DD	04H
	DD	04H
	DD	04H
	DD	04H
	DD	04H
	DD	04H
	DD	04H
	DD	04H
	DD	04H
	DD	04H
	DD	04H
	DD	04H
	DD	04H
	DD	04H
	DD	04H
	DD	04H
	DD	04H
	DD	04H
	DD	04H
	DD	04H
	DD	04H
	DD	04H
	DD	04H
	DD	04H
	DD	04H
	DD	04H
	DD	04H
	DD	04H
	DD	04H
	DD	04H
	DD	04H
	DD	04H
	DD	04H
	DD	04H
	DD	04H
	DD	04H
	DD	04H
	DD	04H
	DD	04H
	DD	04H
	DD	04H
	DD	04H
	DD	04H
	DD	04H
	DD	04H
	DD	04H
	DD	04H
	DD	04H
	DD	04H
	DD	04H
	DD	04H
	DD	04H
	DD	04H
	DD	04H
	DD	04H
	DD	04H
	DD	04H
	DD	04H
	DD	04H
	DD	04H
	DD	04H
	DD	04H
	DD	04H
	DD	04H
	DD	04H
	DD	04H
	DD	04H
	DD	04H
	DD	04H
	DD	04H
	DD	04H
	DD	04H
	DD	04H
	DD	04H
	DD	04H
	DD	04H
	DD	04H
	DD	04H
	DD	04H
	DD	04H
	DD	04H
	DD	04H
	DD	04H
	DD	04H
	DD	04H
	DD	04H
	DD	04H
	DD	04H
	DD	04H
	DD	04H
	DD	04H
	DD	04H
	DD	04H
	DD	04H
	DD	04H
	DD	04H
	DD	04H
	DD	04H
	DD	04H
	DD	04H
	DD	04H
	DD	04H
	DD	04H
	DD	04H
	DD	04H
	DD	04H
	DD	04H
	DD	04H
	DD	04H
	DD	04H
	DD	04H
	DD	04H
	DD	04H
	DD	04H
	DD	04H
	DD	04H
	DD	04H
	DD	04H
	DD	04H
	DD	04H
	DD	04H
	DD	04H
	DD	04H
	DD	04H
	DD	04H
	DD	04H
	DD	04H
	DD	04H
	DD	04H
	DD	04H
	DD	04H
	DD	04H
	DD	04H
	DD	04H
	DD	04H
	DD	04H
	DD	04H
	DD	04H
	DD	04H
	DD	04H
	DD	04H
	DD	04H
	DD	04H
	DD	04H
	DD	04H
	DD	04H
	DD	04H
	DD	04H
	DD	04H
	DD	04H
	DD	04H
	DD	04H
	DD	04H
	DD	04H
	DD	04H
	DD	04H
	DD	04H
	DD	04H
	DD	04H
	DD	04H
	DD	04H
	DD	04H
	DD	04H
	DD	04H
	DD	04H
	DD	04H
	DD	04H
	DD	04H
	DD	04H
	DD	04H
	DD	04H
	DD	04H
	DD	04H
	DD	04H
	DD	04H
	DD	04H
	DD	04H
	DD	04H
	DD	04H
	DD	04H
	DD	04H
	DD	04H
	DD	04H
	DD	04H
	DD	04H
	DD	04H
	DD	04H
	DD	04H
	DD	04H
	DD	04H
	DD	04H
	DD	04H
	DD	04H
	DD	04H
	DD	04H
	DD	04H
	DD	04H
	DD	04H
	DD	04H
	DD	04H
	DD	04H
	DD	04H
	DD	04H
	DD	04H
	DD	04H
	DD	04H
	DD	04H
	DD	04H
	DD	04H
	DD	04H
	DD	04H
	DD	04H
	DD	04H
	DD	04H
	DD	04H
	DD	04H
	DD	04H
	DD	04H
	DD	04H
	DD	04H
	DD	04H
	DD	04H
	DD	04H
	DD	04H
	DD	04H
	DD	04H
	DD	04H
	DD	04H
	DD	04H
	DD	04H
	DD	04H
	DD	04H
	DD	04H
	DD	04H
	DD	04H
	DD	04H
	DD	04H
	DD	04H
	DD	04H
	DD	04H
	DD	04H
	DD	04H
	DD	04H
	DD	04H
	DD	04H
	DD	04H
	DD	04H
	DD	04H
	DD	04H
	DD	04H
	DD	04H
	DD	04H
	DD	04H
	DD	04H
	DD	04H
	DD	04H
	DD	04H
	DD	04H
	DD	04H
	DD	04H
	DD	04H
	DD	04H
	DD	04H
	DD	04H
	DD	04H
	DD	04H
	DD	04H
	DD	04H
	DD	04H
	DD	04H
	DD	04H
	DD	04H
	DD	04H
	DD	04H
	DD	04H
	DD	04H
	DD	04H
	DD	04H
	DD	04H
	DD	04H
	DD	04H
	DD	04H
	DD	04H
	DD	04H
	DD	04H
	DD	04H
	DD	04H
	DD	04H
	DD	04H
	DD	04H
	DD	04H
	DD	04H
	DD	04H
	DD	04H
	DD	04H
	DD	04H
	DD	04H
	DD	04H
	DD	04H
	DD	04H
	DD	04H
	DD	04H
	DD	04H
	DD	04H
	DD	04H
	DD	04H
	DD	04H
	DD	04H
	DD	04H
	DD	04H
	DD	04H
	DD	04H
	DD	04H
	DD	04H
	DD	04H
	DD	04H
	DD	04H
	DD	04H
	DD	04H
	DD	04H
	DD	04H
	DD	04H
	DD	04H
	DD	04H
	DD	04H
	DD	04H
	DD	04H
	DD	04H
	DD	04H
	DD	04H
	DD	04H
	DD	04H
	DD	04H
	DD	04H
	DD	04H
	DD	04H
	DD	04H
	DD	04H
	DD	04H
	DD	04H
	DD	04H
	DD	04H
	DD	04H
	DD	04H
	DD	04H
	DD	04H
	DD	04H
	DD	04H
	DD	04H
	DD	04H
	DD	04H
	DD	04H
	DD	04H
	DD	04H
	DD	04H
	DD	04H
	DD	04H
	DD	04H
	DD	04H
	DD	04H
	DD	04H
	DD	04H
	DD	04H
	DD	04H
	DD	04H
	DD	04H
	DD	04H
	DD	04H
	DD	04H
	DD	04H
	DD	04H
	DD	04H
	DD	04H
	DD	04H
	DD	04H
	DD	04H
	DD	04H
	DD	04H
	DD	04H
	DD	04H
	DD	04H
	DD	04H
	DD	04H
	DD	04H
	DD	04H
	DD	04H
	DD	04H
	DD	04H
	DD	04H
	DD	04H
	DD	04H
	DD	04H
	DD	04H
	DD	04H
	DD	04H
	DD	04H
	DD	04H
	DD	04H
	DD	04H
	DD	04H
	DD	04H
	DD	04H
	DD	04H
	DD	04H
	DD	04H
	DD	04H
	DD	04H
	DD	04H
	DD	04H
	DD	04H
	DD	04H
	DD	04H
	DD	04H
	DD	04H
	DD	04H
	DD	04H
	DD	04H
	DD	04H
	DD	04H
	DD	04H
	DD	04H
	DD	04H
	DD	04H
	DD	04H
	DD	04H
	DD	04H
	DD	04H
	DD	04H
	DD	04H
	DD	04H
	DD	04H
	DD	04H
	DD	04H
	DD	04H
	DD	04H
	DD	04H
	DD	04H
	DD	04H
	DD	04H
	DD	04H
	DD	04H
	DD	04H
	DD	04H
	DD	04H
	DD	04H
	DD	04H
	DD	04H
	DD	04H
	DD	04H
	DD	04H
	DD	04H
	DD	04H
	DD	04H
	DD	04H
	DD	04H
	DD	04H
	DD	04H
	DD	04H
	DD	04H
	DD	04H
	DD	04H
	DD	04H
	DD	04H
	DD	04H
	DD	04H
	DD	04H
	DD	04H
	DD	04H
	DD	04H
	DD	04H
	DD	04H
	DD	04H
	DD	04H
	DD	04H
	DD	04H
	DD	04H
	DD	04H
	DD	04H
	DD	04H
	DD	04H
	DD	04H
	DD	04H
	DD	04H
	DD	04H
	DD	04H
	DD	04H
	DD	04H
	DD	04H
	DD	04H
	DD	04H
	DD	04H
	DD	04H
	DD	04H
	DD	04H
	DD	04H
	DD	04H
	DD	04H
	DD	04H
	DD	04H
	DD	04H
	DD	04H
	DD	04H
	DD	04H
	DD	04H
	DD	04H
	DD	04H
	DD	04H
	DD	04H
	DD	04H
	DD	04H
	DD	04H
	DD	04H
	DD	04H
	DD	04H
	DD	04H
	DD	04H
	DD	04H
	DD	04H
	DD	04H
	DD	04H
	DD	04H
	DD	04H
	DD	04H
	DD	04H
	DD	04H
	DD	04H
	DD	04H
	DD	04H
	DD	04H
	DD	04H
	DD	04H
	DD	04H
	DD	04H
	DD	04H
	DD	04H
	DD	04H
	DD	04H
	DD	04H
	DD	04H
	DD	04H
	DD	04H
	DD	04H
	DD	04H
	DD	04H
	DD	04H
	DD	04H
	DD	04H
	DD	04H
	DD	04H
	DD	04H
	DD	04H
	DD	04H
	DD	04H
	DD	04H
	DD	04H
	DD	04H
	DD	04H
	DD	04H
	DD	04H
	DD	04H
	DD	04H
	DD	04H
	DD	04H
	DD	04H
	DD	04H
	DD	04H
	DD	04H
	DD	04H
	DD	04H
	DD	04H
	DD	04H
	DD	04H
	DD	04H
	DD	04H
	DD	04H
	DD	04H
	DD	04H
	DD	04H
	DD	04H
	DD	04H
	DD	04H
	DD	04H
	DD	04H
	DD	04H
	DD	04H
	DD	04H
	DD	04H
	DD	04H
	DD	04H
	DD	04H
	DD	04H
	DD	04H
	DD	04H
	DD	04H
	DD	04H
	DD	04H
	DD	04H
	DD	04H
	DD	04H
	DD	04H
	DD	04H
	DD	04H
	DD	04H
	DD	04H
	DD	04H
	DD	04H
	DD	04H
	DD	04H
	DD	04H
	DD	04H
	DD	04H
	DD	04H
	DD	04H
	DD	04H
	DD	04H
	DD	04H
	DD	04H
	DD	04H
	DD	04H
	DD	04H
	DD	04H
	DD	04H
	DD	04H
	DD	04H
	DD	04H
	DD	04H
	DD	04H
	DD	04H
	DD	04H
	DD	04H
	DD	04H
	DD	04H
	DD	04H
	DD	04H
	DD	04H
	DD	04H
	DD	04H
	DD	04H
	DD	04H
	DD	04H
	DD	04H
	DD	04H
	DD	04H
	DD	04H
	DD	04H
	DD	04H
	DD	04H
	DD	04H
	DD	04H
	DD	04H
	DD	04H
	DD	04H
	DD	04H
	DD	04H
	DD	04H
	DD	04H
	DD	04H
	DD	04H
	DD	04H
	DD	04H
	DD	04H
	DD	04H
	DD	04H
	DD	04H
	DD	04H
	DD	04H
	DD	04H
	DD	04H
	DD	04H
	DD	04H
	DD	04H
	DD	04H
	DD	04H
	DD	04H
	DD	04H
	DD	04H
	DD	04H
	DD	04H
	DD	04H
	DD	04H
	DD	04H
	DD	04H
	DD	04H
	DD	04H
	DD	04H
	DD	04H
	DD	04H
	DD	04H
	DD	04H
	DD	04H
	DD	04H
	DD	04H
	DD	04H
	DD	04H
	DD	04H
	DD	04H
	DD	04H
	DD	04H
	DD	04H
	DD	04H
	DD	04H
	DD	04H
	DD	04H
	DD	04H
	DD	04H
	DD	04H
	DD	04H
	DD	04H
	DD	04H
	DD	04H
	DD	04H
	DD	04H
	DD	04H
	DD	04H
	DD	04H
	DD	04H
	DD	04H
	DD	04H
	DD	04H
	DD	04H
	DD	04H
	DD	04H
	DD	04H
	DD	04H
	DD	04H
	DD	04H
	DD	04H
	DD	04H
	DD	04H
	DD	04H
	DD	04H
	DD	04H
	DD	04H
	DD	04H
	DD	04H
	DD	04H
	DD	04H
	DD	04H
	DD	04H
	DD	04H
	DD	04H
	DD	04H
	DD	04H
	DD	04H
	DD	04H
	DD	04H
	DD	04H
	DD	04H
	DD	04H
	DD	04H
	DD	04H
	DD	04H
	DD	04H
	DD	04H
	DD	04H
	DD	04H
	DD	04H
	DD	04H
	DD	04H
	DD	04H
	DD	04H
	DD	04H
	DD	04H
	DD	04H
	DD	04H
	DD	04H
	DD	04H
	DD	04H
	DD	04H
	DD	04H
	DD	04H
	DD	04H
	DD	04H
	DD	04H
	DD	04H
	DD	04H
	DD	04H
	DD	04H
	DD	04H
	DD	04H
	DD	04H
	DD	04H
	DD	04H
	DD	04H
	DD	04H
	DD	04H
	DD	04H
	DD	04H
	DD	04H
	DD	04H
	DD	04H
	DD	04H
	DD	04H
	DD	04H
	DD	04H
	DD	04H
	DD	04H
	DD	04H
	DD	04H
	DD	04H
	DD	04H
	DD	04H
	DD	04H
	DD	04H
	DD	04H
	DD	04H
	DD	04H
	DD	04H
	DD	04H
	DD	04H
	DD	04H
	DD	04H
	DD	04H
	DD	04H
	DD	04H
	DD	04H
	DD	04H
	DD	04H
	DD	04H
	DD	04H
	DD	04H
	DD	04H
	DD	04H
	DD	04H
	DD	04H
	DD	04H
	DD	04H
	DD	04H
	DD	04H
	DD	04H
	DD	04H
	DD	04H
	DD	04H
	DD	04H
	DD	04H
	DD	04H
	DD	04H
	DD	04H
	DD	04H
	DD	04H
	DD	04H
	DD	04H
	DD	04H
	DD	04H
	DD	04H
	DD	04H
	DD	04H
	DD	04H
	DD	04H
	DD	04H
	DD	04H
	DD	04H
	DD	04H
	DD	04H
	DD	04H
	DD	04H
	DD	04H
	DD	04H
	DD	04H
	DD	04H
	DD	04H
	DD	04H
	DD	04H
	DD	04H
	DD	04H
	DD	04H
	DD	04H
	DD	04H
	DD	04H
	DD	04H
	DD	04H
	DD	04H
	DD	04H
	DD	04H
	DD	04H
	DD	04H
	DD	04H
	DD	04H
	DD	04H
	DD	04H
	DD	04H
	DD	04H
	DD	04H
	DD	04H
	DD	04H
	DD	04H
	DD	04H
	DD	04H
	DD	04H
	DD	04H
	DD	04H
	DD	04H
	DD	04H
	DD	04H
	DD	04H
	DD	04H
	DD	04H
	DD	04H
	DD	04H
	DD	04H
	DD	04H
	DD	04H
	DD	04H
	DD	04H
	DD	04H
	DD	04H
	DD	04H
	DD	04H
	DD	04H
	DD	04H
	DD	04H
	DD	04H
	DD	04H
	DD	04H
	DD	04H
	DD	04H
	DD	04H
	DD	04H
	DD	04H
	DD	04H
	DD	04H
	DD	04H
	DD	04H
	DD	04H
	DD	04H
	DD	04H
	DD	04H
	DD	04H
	DD	04H
	DD	04H
	DD	04H
	DD	04H
	DD	04H
	DD	04H
	DD	04H
	DD	04H
	DD	04H
	DD	04H
	DD	04H
	DD	04H
	DD	04H
	DD	04H
	DD	04H
	DD	04H
	DD	04H
	DD	04H
	DD	04H
	DD	04H
	DD	04H
	DD	04H
	DD	04H
	DD	04H
	DD	04H
	DD	04H
	DD	04H
	DD	04H
	DD	04H
	DD	04H
	DD	04H
	DD	04H
	DD	04H
	DD	04H
	DD	04H
	DD	04H
	DD	04H
	DD	04H
	DD	04H
	DD	04H
	DD	04H
	DD	04H
	DD	04H
	DD	04H
	DD	04H
	DD	04H
	DD	04H
	DD	04H
	DD	04H
	DD	04H
	DD	04H
	DD	04H
	DD	04H
	DD	04H
	DD	04H
	DD	04H
	DD	04H
	DD	04H
	DD	04H
	DD	04H
	DD	04H
	DD	04H
	DD	04H
	DD	04H
	DD	04H
	DD	04H
	DD	04H
	DD	04H
	DD	04H
	DD	04H
	DD	04H
	DD	04H
	DD	04H
	DD	04H
	DD	04H
	DD	04H
	DD	04H
	DD	04H
	DD	04H
	DD	04H
	DD	04H
	DD	04H
	DD	04H
	DD	04H
	DD	04H
	DD	04H
	DD	04H
	DD	04H
	DD	04H
	DD	04H
	DD	04H
	DD	04H
	DD	04H
	DD	04H
	DD	04H
	DD	04H
	DD	04H
	DD	04H
	DD	04H
	DD	04H
	DD	04H
	DD	04H
	DD	04H
	DD	04H
	DD	04H
	DD	04H
	DD	04H
	DD	04H
	DD	04H
	DD	04H
	DD	04H
	DD	04H
	DD	04H
	DD	04H
	DD	04H
	DD	04H
	DD	04H
	DD	04H
	DD	04H
	DD	04H
	DD	04H
	DD	04H
	DD	04H
	DD	04H
	DD	04H
	DD	04H
	DD	04H
	DD	04H
	DD	04H
	DD	04H
	DD	04H
	DD	04H
	DD	04H
	DD	04H
	DD	04H
	DD	04H
	DD	04H
	DD	04H
	DD	04H
	DD	04H
	DD	04H
	DD	04H
	DD	04H
	DD	04H
	DD	04H
	DD	04H
	DD	04H
	DD	04H
	DD	04H
	DD	04H
	DD	04H
	DD	04H
	DD	04H
	DD	04H
	DD	04H
	DD	04H
	DD	04H
	DD	04H
	DD	04H
	DD	04H
	DD	04H
	DD	04H
	DD	04H
	DD	04H
	DD	04H
	DD	04H
	DD	04H
	DD	04H
	DD	04H
	DD	04H
	DD	04H
	DD	04H
	DD	04H
	DD	04H
	DD	04H
	DD	04H
	DD	04H
	DD	04H
	DD	04H
	DD	04H
	DD	04H
	DD	04H
	DD	04H
	DD	04H
	DD	04H
	DD	04H
	DD	04H
	DD	04H
	DD	04H
	DD	04H
	DD	04H
	DD	04H
	DD	04H
	DD	04H
	DD	04H
	DD	04H
	DD	04H
	DD	04H
	DD	04H
	DD	04H
	DD	04H
	DD	04H
	DD	04H
	DD	04H
	DD	04H
	DD	04H
	DD	04H
	DD	04H
	DD	04H
	DD	04H
	DD	04H
	DD	04H
	DD	04H
	DD	04H
	DD	04H
	DD	04H
	DD	04H
	DD	04H
	DD	04H
	DD	04H
	DD	04H
	DD	04H
	DD	04H
	DD	04H
	DD	04H
	DD	04H
	DD	04H
	DD	04H
	DD	04H
	DD	04H
	DD	04H
	DD	04H
	DD	04H
	DD	04H
	DD	04H
	DD	04H
	DD	04H
	DD	04H
	DD	04H
	DD	04H
	DD	04H
	DD	04H
	DD	04H
	DD	04H
	DD	04H
	DD	04H
	DD	04H
	DD	04H
	DD	04H
	DD	04H
	DD	04H
	DD	04H
	DD	04H
	DD	04H
	DD	04H
	DD	04H
	DD	04H
	DD	04H
	DD	04H
	DD	04H
	DD	04H
	DD	04H
	DD	04H
	DD	04H
	DD	04H
	DD	04H
	DD	04H
	DD	04H
	DD	04H
	DD	04H
	DD	04H
	DD	04H
	DD	04H
	DD	04H
	DD	04H
	DD	04H
	DD	04H
	DD	04H
	DD	04H
	DD	04H
	DD	04H
	DD	04H
	DD	04H
	DD	04H
	DD	04H
	DD	04H
	DD	04H
	DD	04H
	DD	04H
	DD	04H
	DD	04H
	DD	04H
	DD	04H
	DD	04H
	DD	04H
	DD	04H
	DD	04H
	DD	04H
	DD	04H
	DD	04H
	DD	04H
	DD	04H
	DD	04H
	DD	04H
	DD	04H
	DD	04H
	DD	04H
	DD	04H
	DD	04H
	DD	04H
	DD	04H
	DD	04H
	DD	04H
	DD	04H
	DD	04H
	DD	04H
	DD	04H
	DD	04H
	DD	04H
	DD	04H
	DD	04H
	DD	04H
	DD	04H
	DD	04H
	DD	04H
	DD	04H
	DD	04H
	DD	04H
	DD	04H
	DD	04H
	DD	04H
	DD	04H
	DD	04H
	DD	04H
	DD	04H
	DD	04H
	DD	04H
	DD	04H
	DD	04H
	DD	04H
	DD	04H
	DD	04H
	DD	04H
	DD	04H
	DD	04H
	DD	04H
	DD	04H
	DD	04H
	DD	04H
	DD	04H
	DD	04H
	DD	04H
	DD	04H
	DD	04H
	DD	04H
	DD	04H
	DD	04H
	DD	04H
	DD	04H
	DD	04H
	DD	04H
	DD	04H
	DD	04H
	DD	04H
	DD	04H
	DD	04H
	DD	04H
	DD	04H
	DD	04H
	DD	04H
	DD	04H
	DD	04H
	DD	04H
	DD	04H
	DD	04H
	DD	04H
	DD	04H
	DD	04H
	DD	04H
	DD	04H
	DD	04H
	DD	04H
	DD	04H
	DD	04H
	DD	04H
	DD	04H
	DD	04H
	DD	04H
	DD	04H
	DD	04H
	DD	04H
	DD	04H
	DD	04H
	DD	04H
	DD	04H
	DD	04H
	DD	04H
	DD	04H
	DD	04H
	DD	04H
	DD	04H
	DD	04H
	DD	04H
	DD	04H
	DD	04H
	DD	04H
	DD	04H
	DD	04H
	DD	04H
	DD	04H
	DD	04H
	DD	04H
	DD	04H
	DD	04H
	DD	04H
	DD	04H
	DD	04H
	DD	04H
	DD	04H
	DD	04H
	DD	04H
	DD	04H
	DD	04H
	DD	04H
	DD	04H
	DD	04H
	DD	04H
	DD	04H
	DD	04H
	DD	04H
	DD	04H
	DD	04H
	DD	04H
	DD	04H
	DD	04H
	DD	04H
	DD	04H
	DD	04H
	DD	04H
	DD	04H
	DD	04H
	DD	04H
	DD	04H
	DD	04H
	DD	04H
	DD	04H
	DD	04H
	DD	04H
	DD	04H
	DD	04H
	DD	04H
	DD	04H
	DD	04H
	DD	04H
	DD	04H
	DD	04H
	DD	04H
	DD	04H
	DD	04H
	DD	04H
	DD	04H
	DD	04H
	DD	04H
	DD	04H
	DD	04H
	DD	04H
	DD	04H
	DD	04H
	DD	04H
	DD	04H
	DD	04H
	DD	04H
	DD	04H
	DD	04H
	DD	04H
	DD	04H
	DD	04H
	DD	04H
	DD	04H
	DD	04H
	DD	04H
	DD	04H
	DD	04H
	DD	04H
	DD	04H
	DD	04H
	DD	04H
	DD	04H
	DD	04H
	DD	04H
	DD	04H
	DD	04H
	DD	04H
	DD	04H
	DD	04H
	DD	04H
	DD	04H
	DD	04H
	DD	04H
	DD	04H
	DD	04H
	DD	04H
	DD	04H
	DD	04H
	DD	04H
	DD	04H
	DD	04H
	DD	04H
	DD	04H
	DD	04H
	DD	04H
	DD	04H
	DD	04H
	DD	04H
	DD	04H
	DD	04H
	DD	04H
	DD	04H
	DD	04H
	DD	04H
	DD	04H
	DD	04H
	DD	04H
	DD	04H
	DD	04H
	DD	04H
	DD	04H
	DD	04H
	DD	04H
	DD	04H
	DD	04H
	DD	04H
	DD	04H
	DD	04H
	DD	04H
	DD	04H
	DD	04H
	DD	04H
	DD	04H
	DD	04H
	DD	04H
	DD	04H
	DD	04H
	DD	04H
	DD	04H
	DD	04H
	DD	04H
	DD	04H
	DD	04H
	DD	04H
	DD	04H
	DD	04H
	DD	04H
	DD	04H
	DD	04H
	DD	04H
	DD	04H
	DD	04H
	DD	04H
	DD	04H
	DD	04H
	DD	04H
	DD	04H
	DD	04H
	DD	04H
	DD	04H
	DD	04H
	DD	04H
	DD	04H
	DD	04H
	DD	04H
	DD	04H
	DD	04H
	DD	04H
	DD	04H
	DD	04H
	DD	04H
	DD	04H
	DD	04H
	DD	04H
	DD	04H
	DD	04H
	DD	04H
	DD	04H
	DD	04H
	DD	04H
	DD	04H
	DD	04H
	DD	04H
	DD	04H
	DD	04H
	DD	04H
	DD	04H
	DD	04H
	DD	04H
	DD	04H
	DD	04H
	DD	04H
	DD	04H
	DD	04H
	DD	04H
	DD	04H
	DD	04H
	DD	04H
	DD	04H
	DD	04H
	DD	04H
	DD	04H
	DD	04H
	DD	04H
	DD	04H
	DD	04H
	DD	04H
	DD	04H
	DD	04H
	DD	04H
	DD	04H
	DD	04H
	DD	04H
	DD	04H
	DD	04H
	DD	04H
	DD	04H
	DD	04H
	DD	04H
	DD	04H
	DD	04H
	DD	04H
	DD	04H
	DD	04H
	DD	04H
	DD	04H
	DD	04H
	DD	04H
	DD	04H
	DD	04H
	DD	04H
	DD	04H
	DD	04H
	DD	04H
	DD	04H
	DD	04H
	DD	04H
	DD	04H
	DD	04H
	DD	04H
	DD	04H
	DD	04H
	DD	04H
	DD	04H
	DD	04H
	DD	04H
	DD	04H
	DD	04H
	DD	04H
	DD	04H
	DD	04H
	DD	04H
	DD	04H
	DD	04H
	DD	04H
	DD	04H
	DD	04H
	DD	04H
	DD	04H
	DD	04H
	DD	04H
	DD	04H
	DD	04H
	DD	04H
	DD	04H
	DD	04H
	DD	04H
	DD	04H
	DD	04H
	DD	04H
	DD	04H
	DD	04H
	DD	04H
	DD	04H
	DD	04H
	DD	04H
	DD	04H
	DD	04H
	DD	04H
	DD	04H
	DD	04H
	DD	04H
	DD	04H
	DD	04H
	DD	04H
	DD	04H
	DD	04H
	DD	04H
	DD	04H
	DD	04H
	DD	04H
	DD	04H
	DD	04H
	DD	04H
	DD	04H
	DD	04H
	DD	04H
	DD	04H
	DD	04H
	DD	04H
	DD	04H
	DD	04H
	DD	04H
	DD	04H
	DD	04H
	DD	04H
	DD	04H
	DD	04H
	DD	04H
	DD	04H
	DD	04H
	DD	04H
	DD	04H
	DD	04H
	DD	04H
	DD	04H
	DD	04H
	DD	04H
	DD	04H
	DD	04H
	DD	04H
	DD	04H
	DD	04H
	DD	04H
	DD	04H
	DD	04H
	DD	04H
	DD	04H
	DD	04H
	DD	04H
	DD	04H
	DD	04H
	DD	04H
	DD	04H
	DD	04H
	DD	04H
	DD	04H
	DD	04H
	DD	04H
	DD	04H
	DD	04H
	DD	04H
	DD	04H
	DD	04H
	DD	04H
	DD	04H
	DD	04H
	DD	04H
	DD	04H
	DD	04H
	DD	04H
	DD	04H
	DD	04H
	DD	04H
	DD	04H
	DD	04H
	DD	04H
	DD	04H
	DD	04H
	DD	04H
	DD	04H
	DD	04H
	DD	04H
	DD	04H
	DD	04H
	DD	04H
	DD	04H
	DD	04H
	DD	04H
	DD	04H
	DD	04H
	DD	04H
	DD	04H
	DD	04H
	DD	04H
	DD	04H
	DD	04H
	DD	04H
	DD	04H
	DD	04H
	DD	04H
	DD	04H
	DD	04H
	DD	04H
	DD	04H
	DD	04H
	DD	04H
	DD	04H
	DD	04H
	DD	04H
	DD	04H
	DD	04H
	DD	04H
	DD	04H
	DD	04H
	DD	04H
	DD	04H
	DD	04H
	DD	04H
	DD	04H
	DD	04H
	DD	04H
	DD	04H
	DD	04H
	DD	04H
	DD	04H
	DD	04H
	DD	04H
	DD	04H
	DD	04H
	DD	04H
	DD	04H
	DD	04H
	DD	04H
	DD	04H
	DD	04H
	DD	04H
	DD	04H
	DD	04H
	DD	04H
	DD	04H
	DD	04H
	DD	04H
	DD	04H
	DD	04H
	DD	04H
	DD	04H
	DD	04H
	DD	04H
	DD	04H
	DD	04H
	DD	04H
	DD	04H
	DD	04H
	DD	04H
	DD	04H
	DD	04H
	DD	04H
	DD	04H
	DD	04H
	DD	04H
	DD	04H
	DD	04H
	DD	04H
	DD	04H
	DD	04H
	DD	04H
	DD	04H
	DD	04H
	DD	04H
	DD	04H
	DD	04H
	DD	04H
	DD	04H
	DD	04H
	DD	04H
	DD	04H
	DD	04H
	DD	04H
	DD	04H
	DD	04H
	DD	04H
	DD	04H
	DD	04H
	DD	04H
	DD	04H
	DD	04H
	DD	04H
	DD	04H
	DD	04H
	DD	04H
	DD	04H
	DD	04H
	DD	04H
	DD	04H
	DD	04H
	DD	04H
	DD	04H
	DD	04H
	DD	04H
	DD	04H
	DD	04H
	DD	04H
	DD	04H
	DD	04H
	DD	04H
	DD	04H
	DD	04H
	DD	04H
	DD	04H
	DD	04H
	DD	04H
	DD	04H
	DD	04H
	DD	04H
	DD	04H
	DD	04H
	DD	04H
	DD	04H
	DD	04H
	DD	04H
	DD	04H
	DD	04H
	DD	04H
	DD	04H
	DD	04H
	DD	04H
	DD	04H
	DD	04H
	DD	04H
	DD	04H
	DD	04H
	DD	04H
	DD	04H
	DD	04H
	DD	04H
	DD	04H
	DD	04H
	DD	04H
	DD	04H
	DD	04H
	DD	04H
	DD	04H
	DD	04H
	DD	04H
	DD	04H
	DD	04H
	DD	04H
	DD	04H
	DD	04H
	DD	04H
	DD	04H
	DD	04H
	DD	04H
	DD	04H
	DD	04H
	DD	04H
	DD	04H
	DD	04H
	DD	04H
	DD	04H
	DD	04H
	DD	04H
	DD	04H
	DD	04H
	DD	04H
	DD	04H
	DD	04H
	DD	04H
	DD	04H
	DD	04H
	DD	04H
	DD	04H
	DD	04H
	DD	04H
	DD	04H
	DD	04H
	DD	04H
	DD	04H
	DD	04H
	DD	04H
	DD	04H
	DD	04H
	DD	04H
	DD	04H
	DD	04H
	DD	04H
	DD	04H
	DD	04H
	DD	04H
	DD	04H
	DD	04H
	DD	04H
	DD	04H
	DD	04H
	DD	04H
	DD	04H
	DD	04H
	DD	04H
	DD	04H
	DD	04H
	DD	04H
	DD	04H
	DD	04H
	DD	04H
	DD	04H
	DD	04H
	DD	04H
	DD	04H
	DD	04H
	DD	04H
	DD	04H
	DD	04H
	DD	04H
	DD	04H
	DD	04H
	DD	04H
	DD	04H
	DD	04H
	DD	04H
	DD	04H
	DD	04H
	DD	04H
	DD	04H
	DD	04H
	DD	04H
	DD	04H
	DD	04H
	DD	04H
	DD	04H
	DD	04H
	DD	04H
	DD	04H
	DD	04H
	DD	04H
	DD	04H
	DD	04H
	DD	04H
	DD	04H
	DD	04H
	DD	04H
	DD	04H
	DD	04H
	DD	04H
	DD	04H
	DD	04H
	DD	04H
	DD	04H
	DD	04H
	DD	04H
	DD	04H
	DD	04H
	DD	04H
	DD	04H
	DD	04H
	DD	04H
	DD	04H
	DD	04H
	DD	04H
	DD	04H
	DD	04H
	DD	04H
	DD	04H
	DD	04H
	DD	04H
	DD	04H
	DD	04H
	DD	04H
	DD	04H
	DD	04H
	DD	04H
	DD	04H
	DD	04H
	DD	04H
	DD	04H
	DD	04H
	DD	04H
	DD	04H
	DD	04H
	DD	04H
	DD	04H
	DD	04H
	DD	04H
	DD	04H
	DD	04H
	DD	04H
	DD	04H
	DD	04H
	DD	04H
	DD	04H
	DD	04H
	DD	04H
	DD	04H
	DD	04H
	DD	04H
	DD	04H
	DD	04H
	DD	04H
	DD	04H
	DD	04H
	DD	04H
	DD	04H
	DD	04H
	DD	04H
	DD	04H
	DD	04H
	DD	04H
	DD	04H
	DD	04H
	DD	04H
	DD	04H
	DD	04H
	DD	04H
	DD	04H
	DD	04H
	DD	04H
	DD	04H
	DD	04H
	DD	04H
	DD	04H
	DD	04H
	DD	04H
	DD	04H
	DD	04H
	DD	04H
	DD	04H
	DD	04H
	DD	04H
	DD	04H
	DD	04H
	DD	04H
	DD	04H
	DD	04H
	DD	04H
	DD	04H
	DD	04H
	DD	04H
	DD	04H
	DD	04H
	DD	04H
	DD	04H
	DD	04H
	DD	04H
	DD	04H
	DD	04H
	DD	04H
	DD	04H
	DD	04H
	DD	04H
	DD	04H
	DD	04H
	DD	04H
	DD	04H
	DD	04H
	DD	04H
	DD	04H
	DD	04H
	DD	04H
	DD	04H
	DD	04H
	DD	04H
	DD	04H
	DD	04H
	DD	04H
	DD	04H
	DD	04H
	DD	04H
	DD	04H
	DD	04H
	DD	04H
	DD	04H
	DD	04H
	DD	04H
	DD	04H
	DD	04H
	DD	04H
	DD	04H
	DD	04H
	DD	04H
	DD	04H
	DD	04H
	DD	04H
	DD	04H
	DD	04H
	DD	04H
	DD	04H
	DD	04H
	DD	04H
	DD	04H
	DD	04H
	DD	04H
CONST	ENDS
;	COMDAT ?end@?$_Iosb@H@std@@2W4_Seekdir@12@B
CONST	SEGMENT
?end@?$_Iosb@H@std@@2W4_Seekdir@12@B DD 02H		; std::_Iosb<int>::end
CONST	ENDS
;	COMDAT ?cur@?$_Iosb@H@std@@2W4_Seekdir@12@B
CONST	SEGMENT
?cur@?$_Iosb@H@std@@2W4_Seekdir@12@B DD 01H		; std::_Iosb<int>::cur
CONST	ENDS
;	COMDAT ?beg@?$_Iosb@H@std@@2W4_Seekdir@12@B
CONST	SEGMENT
?beg@?$_Iosb@H@std@@2W4_Seekdir@12@B DD 00H		; std::_Iosb<int>::beg
CONST	ENDS
;	COMDAT ?binary@?$_Iosb@H@std@@2W4_Openmode@12@B
CONST	SEGMENT
?binary@?$_Iosb@H@std@@2W4_Openmode@12@B DD 020H	; std::_Iosb<int>::binary
CONST	ENDS
;	COMDAT ?_Noreplace@?$_Iosb@H@std@@2W4_Openmode@12@B
CONST	SEGMENT
?_Noreplace@?$_Iosb@H@std@@2W4_Openmode@12@B DD 080H	; std::_Iosb<int>::_Noreplace
CONST	ENDS
;	COMDAT ?_Nocreate@?$_Iosb@H@std@@2W4_Openmode@12@B
CONST	SEGMENT
?_Nocreate@?$_Iosb@H@std@@2W4_Openmode@12@B DD 040H	; std::_Iosb<int>::_Nocreate
CONST	ENDS
;	COMDAT ?trunc@?$_Iosb@H@std@@2W4_Openmode@12@B
CONST	SEGMENT
?trunc@?$_Iosb@H@std@@2W4_Openmode@12@B DD 010H		; std::_Iosb<int>::trunc
CONST	ENDS
;	COMDAT ?app@?$_Iosb@H@std@@2W4_Openmode@12@B
CONST	SEGMENT
?app@?$_Iosb@H@std@@2W4_Openmode@12@B DD 08H		; std::_Iosb<int>::app
CONST	ENDS
;	COMDAT ?ate@?$_Iosb@H@std@@2W4_Openmode@12@B
CONST	SEGMENT
?ate@?$_Iosb@H@std@@2W4_Openmode@12@B DD 04H		; std::_Iosb<int>::ate
CONST	ENDS
;	COMDAT ?out@?$_Iosb@H@std@@2W4_Openmode@12@B
CONST	SEGMENT
?out@?$_Iosb@H@std@@2W4_Openmode@12@B DD 02H		; std::_Iosb<int>::out
CONST	ENDS
;	COMDAT ?in@?$_Iosb@H@std@@2W4_Openmode@12@B
CONST	SEGMENT
?in@?$_Iosb@H@std@@2W4_Openmode@12@B DD 01H		; std::_Iosb<int>::in
CONST	ENDS
;	COMDAT ?_Hardfail@?$_Iosb@H@std@@2W4_Iostate@12@B
CONST	SEGMENT
?_Hardfail@?$_Iosb@H@std@@2W4_Iostate@12@B DD 010H	; std::_Iosb<int>::_Hardfail
CONST	ENDS
;	COMDAT ?badbit@?$_Iosb@H@std@@2W4_Iostate@12@B
CONST	SEGMENT
?badbit@?$_Iosb@H@std@@2W4_Iostate@12@B DD 04H		; std::_Iosb<int>::badbit
CONST	ENDS
;	COMDAT ?failbit@?$_Iosb@H@std@@2W4_Iostate@12@B
CONST	SEGMENT
?failbit@?$_Iosb@H@std@@2W4_Iostate@12@B DD 02H		; std::_Iosb<int>::failbit
CONST	ENDS
;	COMDAT ?eofbit@?$_Iosb@H@std@@2W4_Iostate@12@B
CONST	SEGMENT
?eofbit@?$_Iosb@H@std@@2W4_Iostate@12@B DD 01H		; std::_Iosb<int>::eofbit
CONST	ENDS
;	COMDAT ?goodbit@?$_Iosb@H@std@@2W4_Iostate@12@B
CONST	SEGMENT
?goodbit@?$_Iosb@H@std@@2W4_Iostate@12@B DD 00H		; std::_Iosb<int>::goodbit
CONST	ENDS
;	COMDAT ?floatfield@?$_Iosb@H@std@@2W4_Fmtflags@12@B
CONST	SEGMENT
?floatfield@?$_Iosb@H@std@@2W4_Fmtflags@12@B DD 03000H	; std::_Iosb<int>::floatfield
CONST	ENDS
;	COMDAT ?basefield@?$_Iosb@H@std@@2W4_Fmtflags@12@B
CONST	SEGMENT
?basefield@?$_Iosb@H@std@@2W4_Fmtflags@12@B DD 0e00H	; std::_Iosb<int>::basefield
CONST	ENDS
;	COMDAT ?adjustfield@?$_Iosb@H@std@@2W4_Fmtflags@12@B
CONST	SEGMENT
?adjustfield@?$_Iosb@H@std@@2W4_Fmtflags@12@B DD 01c0H	; std::_Iosb<int>::adjustfield
CONST	ENDS
;	COMDAT ?_Stdio@?$_Iosb@H@std@@2W4_Fmtflags@12@B
CONST	SEGMENT
?_Stdio@?$_Iosb@H@std@@2W4_Fmtflags@12@B DD 08000H	; std::_Iosb<int>::_Stdio
CONST	ENDS
;	COMDAT ?boolalpha@?$_Iosb@H@std@@2W4_Fmtflags@12@B
CONST	SEGMENT
?boolalpha@?$_Iosb@H@std@@2W4_Fmtflags@12@B DD 04000H	; std::_Iosb<int>::boolalpha
CONST	ENDS
;	COMDAT ?hexfloat@?$_Iosb@H@std@@2W4_Fmtflags@12@B
CONST	SEGMENT
?hexfloat@?$_Iosb@H@std@@2W4_Fmtflags@12@B DD 03000H	; std::_Iosb<int>::hexfloat
CONST	ENDS
;	COMDAT ?fixed@?$_Iosb@H@std@@2W4_Fmtflags@12@B
CONST	SEGMENT
?fixed@?$_Iosb@H@std@@2W4_Fmtflags@12@B DD 02000H	; std::_Iosb<int>::fixed
CONST	ENDS
;	COMDAT ?scientific@?$_Iosb@H@std@@2W4_Fmtflags@12@B
CONST	SEGMENT
?scientific@?$_Iosb@H@std@@2W4_Fmtflags@12@B DD 01000H	; std::_Iosb<int>::scientific
CONST	ENDS
;	COMDAT ?hex@?$_Iosb@H@std@@2W4_Fmtflags@12@B
CONST	SEGMENT
?hex@?$_Iosb@H@std@@2W4_Fmtflags@12@B DD 0800H		; std::_Iosb<int>::hex
CONST	ENDS
;	COMDAT ?oct@?$_Iosb@H@std@@2W4_Fmtflags@12@B
CONST	SEGMENT
?oct@?$_Iosb@H@std@@2W4_Fmtflags@12@B DD 0400H		; std::_Iosb<int>::oct
CONST	ENDS
;	COMDAT ?dec@?$_Iosb@H@std@@2W4_Fmtflags@12@B
CONST	SEGMENT
?dec@?$_Iosb@H@std@@2W4_Fmtflags@12@B DD 0200H		; std::_Iosb<int>::dec
CONST	ENDS
;	COMDAT ?internal@?$_Iosb@H@std@@2W4_Fmtflags@12@B
CONST	SEGMENT
?internal@?$_Iosb@H@std@@2W4_Fmtflags@12@B DD 0100H	; std::_Iosb<int>::internal
CONST	ENDS
;	COMDAT ?right@?$_Iosb@H@std@@2W4_Fmtflags@12@B
CONST	SEGMENT
?right@?$_Iosb@H@std@@2W4_Fmtflags@12@B DD 080H		; std::_Iosb<int>::right
CONST	ENDS
;	COMDAT ?left@?$_Iosb@H@std@@2W4_Fmtflags@12@B
CONST	SEGMENT
?left@?$_Iosb@H@std@@2W4_Fmtflags@12@B DD 040H		; std::_Iosb<int>::left
CONST	ENDS
;	COMDAT ?showpos@?$_Iosb@H@std@@2W4_Fmtflags@12@B
CONST	SEGMENT
?showpos@?$_Iosb@H@std@@2W4_Fmtflags@12@B DD 020H	; std::_Iosb<int>::showpos
CONST	ENDS
;	COMDAT ?showpoint@?$_Iosb@H@std@@2W4_Fmtflags@12@B
CONST	SEGMENT
?showpoint@?$_Iosb@H@std@@2W4_Fmtflags@12@B DD 010H	; std::_Iosb<int>::showpoint
CONST	ENDS
;	COMDAT ?showbase@?$_Iosb@H@std@@2W4_Fmtflags@12@B
CONST	SEGMENT
?showbase@?$_Iosb@H@std@@2W4_Fmtflags@12@B DD 08H	; std::_Iosb<int>::showbase
CONST	ENDS
;	COMDAT ?uppercase@?$_Iosb@H@std@@2W4_Fmtflags@12@B
CONST	SEGMENT
?uppercase@?$_Iosb@H@std@@2W4_Fmtflags@12@B DD 04H	; std::_Iosb<int>::uppercase
CONST	ENDS
;	COMDAT ?unitbuf@?$_Iosb@H@std@@2W4_Fmtflags@12@B
CONST	SEGMENT
?unitbuf@?$_Iosb@H@std@@2W4_Fmtflags@12@B DD 02H	; std::_Iosb<int>::unitbuf
CONST	ENDS
;	COMDAT ?skipws@?$_Iosb@H@std@@2W4_Fmtflags@12@B
CONST	SEGMENT
?skipws@?$_Iosb@H@std@@2W4_Fmtflags@12@B DD 01H		; std::_Iosb<int>::skipws
CONST	ENDS
;	COMDAT ?none@?$_Locbase@H@std@@2HB
CONST	SEGMENT
?none@?$_Locbase@H@std@@2HB DD 00H			; std::_Locbase<int>::none
CONST	ENDS
;	COMDAT ?all@?$_Locbase@H@std@@2HB
CONST	SEGMENT
?all@?$_Locbase@H@std@@2HB DD 03fH			; std::_Locbase<int>::all
CONST	ENDS
;	COMDAT ?messages@?$_Locbase@H@std@@2HB
CONST	SEGMENT
?messages@?$_Locbase@H@std@@2HB DD 020H			; std::_Locbase<int>::messages
CONST	ENDS
;	COMDAT ?time@?$_Locbase@H@std@@2HB
CONST	SEGMENT
?time@?$_Locbase@H@std@@2HB DD 010H			; std::_Locbase<int>::time
CONST	ENDS
;	COMDAT ?numeric@?$_Locbase@H@std@@2HB
CONST	SEGMENT
?numeric@?$_Locbase@H@std@@2HB DD 08H			; std::_Locbase<int>::numeric
CONST	ENDS
;	COMDAT ?monetary@?$_Locbase@H@std@@2HB
CONST	SEGMENT
?monetary@?$_Locbase@H@std@@2HB DD 04H			; std::_Locbase<int>::monetary
CONST	ENDS
;	COMDAT ?ctype@?$_Locbase@H@std@@2HB
CONST	SEGMENT
?ctype@?$_Locbase@H@std@@2HB DD 02H			; std::_Locbase<int>::ctype
CONST	ENDS
;	COMDAT ?collate@?$_Locbase@H@std@@2HB
CONST	SEGMENT
?collate@?$_Locbase@H@std@@2HB DD 01H			; std::_Locbase<int>::collate
CONST	ENDS
;	COMDAT ?_Rank@?$_Arithmetic_traits@O@std@@2HB
CONST	SEGMENT
?_Rank@?$_Arithmetic_traits@O@std@@2HB DD 09H		; std::_Arithmetic_traits<long double>::_Rank
CONST	ENDS
;	COMDAT ?_Rank@?$_Arithmetic_traits@N@std@@2HB
CONST	SEGMENT
?_Rank@?$_Arithmetic_traits@N@std@@2HB DD 08H		; std::_Arithmetic_traits<double>::_Rank
CONST	ENDS
;	COMDAT ?_Rank@?$_Arithmetic_traits@M@std@@2HB
CONST	SEGMENT
?_Rank@?$_Arithmetic_traits@M@std@@2HB DD 07H		; std::_Arithmetic_traits<float>::_Rank
CONST	ENDS
;	COMDAT ?_Rank@?$_Arithmetic_traits@_K@std@@2HB
CONST	SEGMENT
?_Rank@?$_Arithmetic_traits@_K@std@@2HB DD 06H		; std::_Arithmetic_traits<unsigned __int64>::_Rank
CONST	ENDS
;	COMDAT ?_Rank@?$_Arithmetic_traits@_J@std@@2HB
CONST	SEGMENT
?_Rank@?$_Arithmetic_traits@_J@std@@2HB DD 06H		; std::_Arithmetic_traits<__int64>::_Rank
CONST	ENDS
;	COMDAT ?_Rank@?$_Arithmetic_traits@K@std@@2HB
CONST	SEGMENT
?_Rank@?$_Arithmetic_traits@K@std@@2HB DD 05H		; std::_Arithmetic_traits<unsigned long>::_Rank
CONST	ENDS
;	COMDAT ?_Rank@?$_Arithmetic_traits@J@std@@2HB
CONST	SEGMENT
?_Rank@?$_Arithmetic_traits@J@std@@2HB DD 05H		; std::_Arithmetic_traits<long>::_Rank
CONST	ENDS
;	COMDAT ?_Rank@?$_Arithmetic_traits@I@std@@2HB
CONST	SEGMENT
?_Rank@?$_Arithmetic_traits@I@std@@2HB DD 04H		; std::_Arithmetic_traits<unsigned int>::_Rank
CONST	ENDS
;	COMDAT ?_Rank@?$_Arithmetic_traits@H@std@@2HB
CONST	SEGMENT
?_Rank@?$_Arithmetic_traits@H@std@@2HB DD 04H		; std::_Arithmetic_traits<int>::_Rank
CONST	ENDS
;	COMDAT ?_Rank@?$_Arithmetic_traits@G@std@@2HB
CONST	SEGMENT
?_Rank@?$_Arithmetic_traits@G@std@@2HB DD 03H		; std::_Arithmetic_traits<unsigned short>::_Rank
CONST	ENDS
;	COMDAT ?_Rank@?$_Arithmetic_traits@F@std@@2HB
CONST	SEGMENT
?_Rank@?$_Arithmetic_traits@F@std@@2HB DD 03H		; std::_Arithmetic_traits<short>::_Rank
CONST	ENDS
;	COMDAT ?_Rank@?$_Arithmetic_traits@E@std@@2HB
CONST	SEGMENT
?_Rank@?$_Arithmetic_traits@E@std@@2HB DD 02H		; std::_Arithmetic_traits<unsigned char>::_Rank
CONST	ENDS
;	COMDAT ?_Rank@?$_Arithmetic_traits@C@std@@2HB
CONST	SEGMENT
?_Rank@?$_Arithmetic_traits@C@std@@2HB DD 02H		; std::_Arithmetic_traits<signed char>::_Rank
CONST	ENDS
;	COMDAT ?_Rank@?$_Arithmetic_traits@D@std@@2HB
CONST	SEGMENT
?_Rank@?$_Arithmetic_traits@D@std@@2HB DD 02H		; std::_Arithmetic_traits<char>::_Rank
CONST	ENDS
;	COMDAT ?_Rank@?$_Arithmetic_traits@_N@std@@2HB
CONST	SEGMENT
?_Rank@?$_Arithmetic_traits@_N@std@@2HB DD 01H		; std::_Arithmetic_traits<bool>::_Rank
CONST	ENDS
;	COMDAT ?value@?$integral_constant@I$0A@@tr1@std@@2IB
CONST	SEGMENT
?value@?$integral_constant@I$0A@@tr1@std@@2IB DD 00H	; std::tr1::integral_constant<unsigned int,0>::value
CONST	ENDS
;	COMDAT ?value@?$integral_constant@_N$00@tr1@std@@2_NB
CONST	SEGMENT
?value@?$integral_constant@_N$00@tr1@std@@2_NB DB 01H	; std::tr1::integral_constant<bool,1>::value
CONST	ENDS
;	COMDAT ?value@?$integral_constant@_N$0A@@tr1@std@@2_NB
CONST	SEGMENT
?value@?$integral_constant@_N$0A@@tr1@std@@2_NB DB 00H	; std::tr1::integral_constant<bool,0>::value
CONST	ENDS
PUBLIC	??2@YAPAXI@Z					; operator new
EXTRN	__RTC_Shutdown:PROC
EXTRN	__RTC_InitBase:PROC
;	COMDAT rtc$TMZ
; File d:\mozilla\intl\icu\include\unicode\utypes.h
rtc$TMZ	SEGMENT
__RTC_Shutdown.rtc$TMZ DD FLAT:__RTC_Shutdown
rtc$TMZ	ENDS
;	COMDAT rtc$IMZ
rtc$IMZ	SEGMENT
__RTC_InitBase.rtc$IMZ DD FLAT:__RTC_InitBase
; Function compile flags: /Odtp /RTCsu /ZI
rtc$IMZ	ENDS
;	COMDAT ??2@YAPAXI@Z
_TEXT	SEGMENT
_q$ = -8						; size = 4
___formal$ = 8						; size = 4
??2@YAPAXI@Z PROC					; operator new, COMDAT
; Line 411
	push	ebp
	mov	ebp, esp
	sub	esp, 204				; 000000ccH
	push	ebx
	push	esi
	push	edi
	lea	edi, DWORD PTR [ebp-204]
	mov	ecx, 51					; 00000033H
	mov	eax, -858993460				; ccccccccH
	rep stosd
; Line 412
	mov	DWORD PTR _q$[ebp], 0
; Line 413
	mov	eax, DWORD PTR _q$[ebp]
	mov	BYTE PTR [eax], 5
; Line 414
	mov	eax, DWORD PTR _q$[ebp]
; Line 415
	pop	edi
	pop	esi
	pop	ebx
	mov	esp, ebp
	pop	ebp
	ret	0
??2@YAPAXI@Z ENDP					; operator new
_TEXT	ENDS
PUBLIC	??3@YAXPAX@Z					; operator delete
; Function compile flags: /Odtp /RTCsu /ZI
;	COMDAT ??3@YAXPAX@Z
_TEXT	SEGMENT
_q$ = -8						; size = 4
___formal$ = 8						; size = 4
??3@YAXPAX@Z PROC					; operator delete, COMDAT
; Line 439
	push	ebp
	mov	ebp, esp
	sub	esp, 204				; 000000ccH
	push	ebx
	push	esi
	push	edi
	lea	edi, DWORD PTR [ebp-204]
	mov	ecx, 51					; 00000033H
	mov	eax, -858993460				; ccccccccH
	rep stosd
; Line 440
	mov	DWORD PTR _q$[ebp], 0
; Line 441
	mov	eax, DWORD PTR _q$[ebp]
	mov	BYTE PTR [eax], 5
; Line 442
	pop	edi
	pop	esi
	pop	ebx
	mov	esp, ebp
	pop	ebp
	ret	0
??3@YAXPAX@Z ENDP					; operator delete
_TEXT	ENDS
PUBLIC	??0IntDigitCountRange@icu_56@@QAE@XZ		; icu_56::IntDigitCountRange::IntDigitCountRange
; Function compile flags: /Odtp /RTCsu /ZI
;	COMDAT ??0IntDigitCountRange@icu_56@@QAE@XZ
_TEXT	SEGMENT
_this$ = -8						; size = 4
??0IntDigitCountRange@icu_56@@QAE@XZ PROC		; icu_56::IntDigitCountRange::IntDigitCountRange, COMDAT
; _this$ = ecx
; File d:\mozilla\intl\icu\source\i18n\smallintformatter.h
; Line 30
	push	ebp
	mov	ebp, esp
	sub	esp, 204				; 000000ccH
	push	ebx
	push	esi
	push	edi
	push	ecx
	lea	edi, DWORD PTR [ebp-204]
	mov	ecx, 51					; 00000033H
	mov	eax, -858993460				; ccccccccH
	rep stosd
	pop	ecx
	mov	DWORD PTR _this$[ebp], ecx
	mov	eax, DWORD PTR _this$[ebp]
	mov	DWORD PTR [eax], 0
	mov	eax, DWORD PTR _this$[ebp]
	mov	DWORD PTR [eax+4], 2147483647		; 7fffffffH
	mov	eax, DWORD PTR _this$[ebp]
	pop	edi
	pop	esi
	pop	ebx
	mov	esp, ebp
	pop	ebp
	ret	0
??0IntDigitCountRange@icu_56@@QAE@XZ ENDP		; icu_56::IntDigitCountRange::IntDigitCountRange
_TEXT	ENDS
PUBLIC	?getMax@IntDigitCountRange@icu_56@@QBEHXZ	; icu_56::IntDigitCountRange::getMax
; Function compile flags: /Odtp /RTCsu /ZI
;	COMDAT ?getMax@IntDigitCountRange@icu_56@@QBEHXZ
_TEXT	SEGMENT
_this$ = -8						; size = 4
?getMax@IntDigitCountRange@icu_56@@QBEHXZ PROC		; icu_56::IntDigitCountRange::getMax, COMDAT
; _this$ = ecx
; Line 33
	push	ebp
	mov	ebp, esp
	sub	esp, 204				; 000000ccH
	push	ebx
	push	esi
	push	edi
	push	ecx
	lea	edi, DWORD PTR [ebp-204]
	mov	ecx, 51					; 00000033H
	mov	eax, -858993460				; ccccccccH
	rep stosd
	pop	ecx
	mov	DWORD PTR _this$[ebp], ecx
	mov	eax, DWORD PTR _this$[ebp]
	mov	eax, DWORD PTR [eax+4]
	pop	edi
	pop	esi
	pop	ebx
	mov	esp, ebp
	pop	ebp
	ret	0
?getMax@IntDigitCountRange@icu_56@@QBEHXZ ENDP		; icu_56::IntDigitCountRange::getMax
_TEXT	ENDS
PUBLIC	?getMin@IntDigitCountRange@icu_56@@QBEHXZ	; icu_56::IntDigitCountRange::getMin
; Function compile flags: /Odtp /RTCsu /ZI
;	COMDAT ?getMin@IntDigitCountRange@icu_56@@QBEHXZ
_TEXT	SEGMENT
_this$ = -8						; size = 4
?getMin@IntDigitCountRange@icu_56@@QBEHXZ PROC		; icu_56::IntDigitCountRange::getMin, COMDAT
; _this$ = ecx
; Line 34
	push	ebp
	mov	ebp, esp
	sub	esp, 204				; 000000ccH
	push	ebx
	push	esi
	push	edi
	push	ecx
	lea	edi, DWORD PTR [ebp-204]
	mov	ecx, 51					; 00000033H
	mov	eax, -858993460				; ccccccccH
	rep stosd
	pop	ecx
	mov	DWORD PTR _this$[ebp], ecx
	mov	eax, DWORD PTR _this$[ebp]
	mov	eax, DWORD PTR [eax]
	pop	edi
	pop	esi
	pop	ebx
	mov	esp, ebp
	pop	ebp
	ret	0
?getMin@IntDigitCountRange@icu_56@@QBEHXZ ENDP		; icu_56::IntDigitCountRange::getMin
_TEXT	ENDS
PUBLIC	??4IntDigitCountRange@icu_56@@QAEAAV01@ABV01@@Z	; icu_56::IntDigitCountRange::operator=
; Function compile flags: /Odtp /RTCsu /ZI
;	COMDAT ??4IntDigitCountRange@icu_56@@QAEAAV01@ABV01@@Z
_TEXT	SEGMENT
_this$ = -8						; size = 4
___that$ = 8						; size = 4
??4IntDigitCountRange@icu_56@@QAEAAV01@ABV01@@Z PROC	; icu_56::IntDigitCountRange::operator=, COMDAT
; _this$ = ecx
	push	ebp
	mov	ebp, esp
	sub	esp, 204				; 000000ccH
	push	ebx
	push	esi
	push	edi
	push	ecx
	lea	edi, DWORD PTR [ebp-204]
	mov	ecx, 51					; 00000033H
	mov	eax, -858993460				; ccccccccH
	rep stosd
	pop	ecx
	mov	DWORD PTR _this$[ebp], ecx
	mov	eax, DWORD PTR ___that$[ebp]
	mov	ecx, DWORD PTR [eax]
	mov	edx, DWORD PTR [eax+4]
	mov	eax, DWORD PTR _this$[ebp]
	mov	DWORD PTR [eax], ecx
	mov	DWORD PTR [eax+4], edx
	mov	eax, DWORD PTR _this$[ebp]
	pop	edi
	pop	esi
	pop	ebx
	mov	esp, ebp
	pop	ebp
	ret	4
??4IntDigitCountRange@icu_56@@QAEAAV01@ABV01@@Z ENDP	; icu_56::IntDigitCountRange::operator=
_TEXT	ENDS
PUBLIC	??4SmallIntFormatter@icu_56@@QAEAAV01@ABV01@@Z	; icu_56::SmallIntFormatter::operator=
; Function compile flags: /Odtp /RTCsu /ZI
;	COMDAT ??4SmallIntFormatter@icu_56@@QAEAAV01@ABV01@@Z
_TEXT	SEGMENT
_this$ = -8						; size = 4
___that$ = 8						; size = 4
??4SmallIntFormatter@icu_56@@QAEAAV01@ABV01@@Z PROC	; icu_56::SmallIntFormatter::operator=, COMDAT
; _this$ = ecx
	push	ebp
	mov	ebp, esp
	sub	esp, 204				; 000000ccH
	push	ebx
	push	esi
	push	edi
	push	ecx
	lea	edi, DWORD PTR [ebp-204]
	mov	ecx, 51					; 00000033H
	mov	eax, -858993460				; ccccccccH
	rep stosd
	pop	ecx
	mov	DWORD PTR _this$[ebp], ecx
	mov	eax, DWORD PTR _this$[ebp]
	pop	edi
	pop	esi
	pop	ebx
	mov	esp, ebp
	pop	ebp
	ret	4
??4SmallIntFormatter@icu_56@@QAEAAV01@ABV01@@Z ENDP	; icu_56::SmallIntFormatter::operator=
_TEXT	ENDS
PUBLIC	??0IntDigitCountRange@icu_56@@QAE@HH@Z		; icu_56::IntDigitCountRange::IntDigitCountRange
; Function compile flags: /Odtp /RTCsu /ZI
;	COMDAT ??0IntDigitCountRange@icu_56@@QAE@HH@Z
_TEXT	SEGMENT
tv68 = -208						; size = 4
_this$ = -8						; size = 4
_min$ = 8						; size = 4
_max$ = 12						; size = 4
??0IntDigitCountRange@icu_56@@QAE@HH@Z PROC		; icu_56::IntDigitCountRange::IntDigitCountRange, COMDAT
; _this$ = ecx
; File d:\mozilla\intl\icu\source\i18n\smallintformatter.cpp
; Line 2581
	push	ebp
	mov	ebp, esp
	sub	esp, 208				; 000000d0H
	push	ebx
	push	esi
	push	edi
	push	ecx
	lea	edi, DWORD PTR [ebp-208]
	mov	ecx, 52					; 00000034H
	mov	eax, -858993460				; ccccccccH
	rep stosd
	pop	ecx
	mov	DWORD PTR _this$[ebp], ecx
; Line 2582
	xor	eax, eax
	cmp	DWORD PTR _min$[ebp], 0
	setl	al
	sub	eax, 1
	and	eax, DWORD PTR _min$[ebp]
	mov	ecx, DWORD PTR _this$[ebp]
	mov	DWORD PTR [ecx], eax
; Line 2583
	mov	eax, DWORD PTR _this$[ebp]
	mov	ecx, DWORD PTR _max$[ebp]
	cmp	ecx, DWORD PTR [eax]
	jge	SHORT $LN3@IntDigitCo
	mov	edx, DWORD PTR _this$[ebp]
	mov	eax, DWORD PTR [edx]
	mov	DWORD PTR tv68[ebp], eax
	jmp	SHORT $LN4@IntDigitCo
$LN3@IntDigitCo:
	mov	ecx, DWORD PTR _max$[ebp]
	mov	DWORD PTR tv68[ebp], ecx
$LN4@IntDigitCo:
	mov	edx, DWORD PTR _this$[ebp]
	mov	eax, DWORD PTR tv68[ebp]
	mov	DWORD PTR [edx+4], eax
; Line 2584
	mov	eax, DWORD PTR _this$[ebp]
	pop	edi
	pop	esi
	pop	ebx
	mov	esp, ebp
	pop	ebp
	ret	8
??0IntDigitCountRange@icu_56@@QAE@HH@Z ENDP		; icu_56::IntDigitCountRange::IntDigitCountRange
_TEXT	ENDS
PUBLIC	?pin@IntDigitCountRange@icu_56@@QBEHH@Z		; icu_56::IntDigitCountRange::pin
; Function compile flags: /Odtp /RTCsu /ZI
;	COMDAT ?pin@IntDigitCountRange@icu_56@@QBEHH@Z
_TEXT	SEGMENT
tv68 = -212						; size = 4
tv69 = -208						; size = 4
_this$ = -8						; size = 4
_digitCount$ = 8					; size = 4
?pin@IntDigitCountRange@icu_56@@QBEHH@Z PROC		; icu_56::IntDigitCountRange::pin, COMDAT
; _this$ = ecx
; Line 2587
	push	ebp
	mov	ebp, esp
	sub	esp, 212				; 000000d4H
	push	ebx
	push	esi
	push	edi
	push	ecx
	lea	edi, DWORD PTR [ebp-212]
	mov	ecx, 53					; 00000035H
	mov	eax, -858993460				; ccccccccH
	rep stosd
	pop	ecx
	mov	DWORD PTR _this$[ebp], ecx
; Line 2588
	mov	eax, DWORD PTR _this$[ebp]
	mov	ecx, DWORD PTR _digitCount$[ebp]
	cmp	ecx, DWORD PTR [eax]
	jge	SHORT $LN5@pin
	mov	edx, DWORD PTR _this$[ebp]
	mov	eax, DWORD PTR [edx]
	mov	DWORD PTR tv69[ebp], eax
	jmp	SHORT $LN6@pin
$LN5@pin:
	mov	ecx, DWORD PTR _this$[ebp]
	mov	edx, DWORD PTR _digitCount$[ebp]
	cmp	edx, DWORD PTR [ecx+4]
	jge	SHORT $LN3@pin
	mov	eax, DWORD PTR _digitCount$[ebp]
	mov	DWORD PTR tv68[ebp], eax
	jmp	SHORT $LN4@pin
$LN3@pin:
	mov	ecx, DWORD PTR _this$[ebp]
	mov	edx, DWORD PTR [ecx+4]
	mov	DWORD PTR tv68[ebp], edx
$LN4@pin:
	mov	eax, DWORD PTR tv68[ebp]
	mov	DWORD PTR tv69[ebp], eax
$LN6@pin:
	mov	eax, DWORD PTR tv69[ebp]
; Line 2589
	pop	edi
	pop	esi
	pop	ebx
	mov	esp, ebp
	pop	ebp
	ret	4
?pin@IntDigitCountRange@icu_56@@QBEHH@Z ENDP		; icu_56::IntDigitCountRange::pin
_TEXT	ENDS
PUBLIC	?estimateDigitCount@SmallIntFormatter@icu_56@@SAHHABVIntDigitCountRange@2@@Z ; icu_56::SmallIntFormatter::estimateDigitCount
EXTRN	__RTC_CheckEsp:PROC
; Function compile flags: /Odtp /RTCsu /ZI
;	COMDAT ?estimateDigitCount@SmallIntFormatter@icu_56@@SAHHABVIntDigitCountRange@2@@Z
_TEXT	SEGMENT
_positiveValue$ = 8					; size = 4
_range$ = 12						; size = 4
?estimateDigitCount@SmallIntFormatter@icu_56@@SAHHABVIntDigitCountRange@2@@Z PROC ; icu_56::SmallIntFormatter::estimateDigitCount, COMDAT
; Line 2593
	push	ebp
	mov	ebp, esp
	sub	esp, 192				; 000000c0H
	push	ebx
	push	esi
	push	edi
	lea	edi, DWORD PTR [ebp-192]
	mov	ecx, 48					; 00000030H
	mov	eax, -858993460				; ccccccccH
	rep stosd
; Line 2594
	cmp	DWORD PTR _positiveValue$[ebp], 4096	; 00001000H
	jl	SHORT $LN1@estimateDi
; Line 2595
	mov	ecx, DWORD PTR _range$[ebp]
	call	?getMax@IntDigitCountRange@icu_56@@QBEHXZ ; icu_56::IntDigitCountRange::getMax
	jmp	SHORT $LN2@estimateDi
$LN1@estimateDi:
; Line 2597
	mov	eax, DWORD PTR _positiveValue$[ebp]
	mov	ecx, DWORD PTR _gDigitCount[eax*4]
	push	ecx
	mov	ecx, DWORD PTR _range$[ebp]
	call	?pin@IntDigitCountRange@icu_56@@QBEHH@Z	; icu_56::IntDigitCountRange::pin
$LN2@estimateDi:
; Line 2598
	pop	edi
	pop	esi
	pop	ebx
	add	esp, 192				; 000000c0H
	cmp	ebp, esp
	call	__RTC_CheckEsp
	mov	esp, ebp
	pop	ebp
	ret	0
?estimateDigitCount@SmallIntFormatter@icu_56@@SAHHABVIntDigitCountRange@2@@Z ENDP ; icu_56::SmallIntFormatter::estimateDigitCount
_TEXT	ENDS
PUBLIC	?canFormat@SmallIntFormatter@icu_56@@SACHABVIntDigitCountRange@2@@Z ; icu_56::SmallIntFormatter::canFormat
; Function compile flags: /Odtp /RTCsu /ZI
;	COMDAT ?canFormat@SmallIntFormatter@icu_56@@SACHABVIntDigitCountRange@2@@Z
_TEXT	SEGMENT
tv68 = -193						; size = 1
_positiveValue$ = 8					; size = 4
_range$ = 12						; size = 4
?canFormat@SmallIntFormatter@icu_56@@SACHABVIntDigitCountRange@2@@Z PROC ; icu_56::SmallIntFormatter::canFormat, COMDAT
; Line 2602
	push	ebp
	mov	ebp, esp
	sub	esp, 196				; 000000c4H
	push	ebx
	push	esi
	push	edi
	lea	edi, DWORD PTR [ebp-196]
	mov	ecx, 49					; 00000031H
	mov	eax, -858993460				; ccccccccH
	rep stosd
; Line 2603
	cmp	DWORD PTR _positiveValue$[ebp], 4096	; 00001000H
	jge	SHORT $LN3@canFormat
	mov	ecx, DWORD PTR _range$[ebp]
	call	?getMin@IntDigitCountRange@icu_56@@QBEHXZ ; icu_56::IntDigitCountRange::getMin
	cmp	eax, 4
	jg	SHORT $LN3@canFormat
	mov	BYTE PTR tv68[ebp], 1
	jmp	SHORT $LN4@canFormat
$LN3@canFormat:
	mov	BYTE PTR tv68[ebp], 0
$LN4@canFormat:
	mov	al, BYTE PTR tv68[ebp]
; Line 2604
	pop	edi
	pop	esi
	pop	ebx
	add	esp, 196				; 000000c4H
	cmp	ebp, esp
	call	__RTC_CheckEsp
	mov	esp, ebp
	pop	ebp
	ret	0
?canFormat@SmallIntFormatter@icu_56@@SACHABVIntDigitCountRange@2@@Z ENDP ; icu_56::SmallIntFormatter::canFormat
_TEXT	ENDS
PUBLIC	?format@SmallIntFormatter@icu_56@@SAAAVUnicodeString@2@HABVIntDigitCountRange@2@AAV32@@Z ; icu_56::SmallIntFormatter::format
EXTRN	__imp_?append@UnicodeString@icu_56@@QAEAAV12@PB_WHH@Z:PROC
EXTRN	__imp_?append@UnicodeString@icu_56@@QAEAAV12@_W@Z:PROC
; Function compile flags: /Odtp /RTCsu /ZI
;	COMDAT ?format@SmallIntFormatter@icu_56@@SAAAVUnicodeString@2@HABVIntDigitCountRange@2@AAV32@@Z
_TEXT	SEGMENT
_digits$ = -8						; size = 4
_smallPositiveValue$ = 8				; size = 4
_range$ = 12						; size = 4
_appendTo$ = 16						; size = 4
?format@SmallIntFormatter@icu_56@@SAAAVUnicodeString@2@HABVIntDigitCountRange@2@AAV32@@Z PROC ; icu_56::SmallIntFormatter::format, COMDAT
; Line 2610
	push	ebp
	mov	ebp, esp
	sub	esp, 204				; 000000ccH
	push	ebx
	push	esi
	push	edi
	lea	edi, DWORD PTR [ebp-204]
	mov	ecx, 51					; 00000033H
	mov	eax, -858993460				; ccccccccH
	rep stosd
; Line 2611
	mov	eax, DWORD PTR _smallPositiveValue$[ebp]
	mov	ecx, DWORD PTR _gDigitCount[eax*4]
	push	ecx
	mov	ecx, DWORD PTR _range$[ebp]
	call	?pin@IntDigitCountRange@icu_56@@QBEHH@Z	; icu_56::IntDigitCountRange::pin
	mov	DWORD PTR _digits$[ebp], eax
; Line 2614
	cmp	DWORD PTR _digits$[ebp], 0
	jne	SHORT $LN1@format
; Line 2615
	mov	esi, esp
	push	48					; 00000030H
	mov	ecx, DWORD PTR _appendTo$[ebp]
	call	DWORD PTR __imp_?append@UnicodeString@icu_56@@QAEAAV12@_W@Z
	cmp	esi, esp
	call	__RTC_CheckEsp
	jmp	SHORT $LN2@format
$LN1@format:
; Line 2617
	mov	esi, esp
	mov	eax, DWORD PTR _digits$[ebp]
	push	eax
	mov	ecx, DWORD PTR _smallPositiveValue$[ebp]
	lea	edx, DWORD PTR [ecx*4+4]
	sub	edx, DWORD PTR _digits$[ebp]
	push	edx
	push	OFFSET _gDigits
	mov	ecx, DWORD PTR _appendTo$[ebp]
	call	DWORD PTR __imp_?append@UnicodeString@icu_56@@QAEAAV12@PB_WHH@Z
	cmp	esi, esp
	call	__RTC_CheckEsp
$LN2@format:
; Line 2618
	pop	edi
	pop	esi
	pop	ebx
	add	esp, 204				; 000000ccH
	cmp	ebp, esp
	call	__RTC_CheckEsp
	mov	esp, ebp
	pop	ebp
	ret	0
?format@SmallIntFormatter@icu_56@@SAAAVUnicodeString@2@HABVIntDigitCountRange@2@AAV32@@Z ENDP ; icu_56::SmallIntFormatter::format
_TEXT	ENDS
END
