; Listing generated by Microsoft (R) Optimizing Compiler Version 16.00.40219.01 

	TITLE	D:\mozilla\intl\icu\source\i18n\sortkey.cpp
	.686P
	.XMM
	include listing.inc
	.model	flat

INCLUDELIB MSVCRTD
INCLUDELIB OLDNAMES

PUBLIC	?value@?$integral_constant@_N$0A@@tr1@std@@2_NB	; std::tr1::integral_constant<bool,0>::value
PUBLIC	?value@?$integral_constant@_N$00@tr1@std@@2_NB	; std::tr1::integral_constant<bool,1>::value
PUBLIC	?value@?$integral_constant@I$0A@@tr1@std@@2IB	; std::tr1::integral_constant<unsigned int,0>::value
PUBLIC	?_Rank@?$_Arithmetic_traits@_N@std@@2HB		; std::_Arithmetic_traits<bool>::_Rank
PUBLIC	?_Rank@?$_Arithmetic_traits@D@std@@2HB		; std::_Arithmetic_traits<char>::_Rank
PUBLIC	?_Rank@?$_Arithmetic_traits@C@std@@2HB		; std::_Arithmetic_traits<signed char>::_Rank
PUBLIC	?_Rank@?$_Arithmetic_traits@E@std@@2HB		; std::_Arithmetic_traits<unsigned char>::_Rank
PUBLIC	?_Rank@?$_Arithmetic_traits@F@std@@2HB		; std::_Arithmetic_traits<short>::_Rank
PUBLIC	?_Rank@?$_Arithmetic_traits@G@std@@2HB		; std::_Arithmetic_traits<unsigned short>::_Rank
PUBLIC	?_Rank@?$_Arithmetic_traits@H@std@@2HB		; std::_Arithmetic_traits<int>::_Rank
PUBLIC	?_Rank@?$_Arithmetic_traits@I@std@@2HB		; std::_Arithmetic_traits<unsigned int>::_Rank
PUBLIC	?_Rank@?$_Arithmetic_traits@J@std@@2HB		; std::_Arithmetic_traits<long>::_Rank
PUBLIC	?_Rank@?$_Arithmetic_traits@K@std@@2HB		; std::_Arithmetic_traits<unsigned long>::_Rank
PUBLIC	?_Rank@?$_Arithmetic_traits@_J@std@@2HB		; std::_Arithmetic_traits<__int64>::_Rank
PUBLIC	?_Rank@?$_Arithmetic_traits@_K@std@@2HB		; std::_Arithmetic_traits<unsigned __int64>::_Rank
PUBLIC	?_Rank@?$_Arithmetic_traits@M@std@@2HB		; std::_Arithmetic_traits<float>::_Rank
PUBLIC	?_Rank@?$_Arithmetic_traits@N@std@@2HB		; std::_Arithmetic_traits<double>::_Rank
PUBLIC	?_Rank@?$_Arithmetic_traits@O@std@@2HB		; std::_Arithmetic_traits<long double>::_Rank
PUBLIC	?collate@?$_Locbase@H@std@@2HB			; std::_Locbase<int>::collate
PUBLIC	?ctype@?$_Locbase@H@std@@2HB			; std::_Locbase<int>::ctype
PUBLIC	?monetary@?$_Locbase@H@std@@2HB			; std::_Locbase<int>::monetary
PUBLIC	?numeric@?$_Locbase@H@std@@2HB			; std::_Locbase<int>::numeric
PUBLIC	?time@?$_Locbase@H@std@@2HB			; std::_Locbase<int>::time
PUBLIC	?messages@?$_Locbase@H@std@@2HB			; std::_Locbase<int>::messages
PUBLIC	?all@?$_Locbase@H@std@@2HB			; std::_Locbase<int>::all
PUBLIC	?none@?$_Locbase@H@std@@2HB			; std::_Locbase<int>::none
PUBLIC	?skipws@?$_Iosb@H@std@@2W4_Fmtflags@12@B	; std::_Iosb<int>::skipws
PUBLIC	?unitbuf@?$_Iosb@H@std@@2W4_Fmtflags@12@B	; std::_Iosb<int>::unitbuf
PUBLIC	?uppercase@?$_Iosb@H@std@@2W4_Fmtflags@12@B	; std::_Iosb<int>::uppercase
PUBLIC	?showbase@?$_Iosb@H@std@@2W4_Fmtflags@12@B	; std::_Iosb<int>::showbase
PUBLIC	?showpoint@?$_Iosb@H@std@@2W4_Fmtflags@12@B	; std::_Iosb<int>::showpoint
PUBLIC	?showpos@?$_Iosb@H@std@@2W4_Fmtflags@12@B	; std::_Iosb<int>::showpos
PUBLIC	?left@?$_Iosb@H@std@@2W4_Fmtflags@12@B		; std::_Iosb<int>::left
PUBLIC	?right@?$_Iosb@H@std@@2W4_Fmtflags@12@B		; std::_Iosb<int>::right
PUBLIC	?internal@?$_Iosb@H@std@@2W4_Fmtflags@12@B	; std::_Iosb<int>::internal
PUBLIC	?dec@?$_Iosb@H@std@@2W4_Fmtflags@12@B		; std::_Iosb<int>::dec
PUBLIC	?oct@?$_Iosb@H@std@@2W4_Fmtflags@12@B		; std::_Iosb<int>::oct
PUBLIC	?hex@?$_Iosb@H@std@@2W4_Fmtflags@12@B		; std::_Iosb<int>::hex
PUBLIC	?scientific@?$_Iosb@H@std@@2W4_Fmtflags@12@B	; std::_Iosb<int>::scientific
PUBLIC	?fixed@?$_Iosb@H@std@@2W4_Fmtflags@12@B		; std::_Iosb<int>::fixed
PUBLIC	?hexfloat@?$_Iosb@H@std@@2W4_Fmtflags@12@B	; std::_Iosb<int>::hexfloat
PUBLIC	?boolalpha@?$_Iosb@H@std@@2W4_Fmtflags@12@B	; std::_Iosb<int>::boolalpha
PUBLIC	?_Stdio@?$_Iosb@H@std@@2W4_Fmtflags@12@B	; std::_Iosb<int>::_Stdio
PUBLIC	?adjustfield@?$_Iosb@H@std@@2W4_Fmtflags@12@B	; std::_Iosb<int>::adjustfield
PUBLIC	?basefield@?$_Iosb@H@std@@2W4_Fmtflags@12@B	; std::_Iosb<int>::basefield
PUBLIC	?floatfield@?$_Iosb@H@std@@2W4_Fmtflags@12@B	; std::_Iosb<int>::floatfield
PUBLIC	?goodbit@?$_Iosb@H@std@@2W4_Iostate@12@B	; std::_Iosb<int>::goodbit
PUBLIC	?eofbit@?$_Iosb@H@std@@2W4_Iostate@12@B		; std::_Iosb<int>::eofbit
PUBLIC	?failbit@?$_Iosb@H@std@@2W4_Iostate@12@B	; std::_Iosb<int>::failbit
PUBLIC	?badbit@?$_Iosb@H@std@@2W4_Iostate@12@B		; std::_Iosb<int>::badbit
PUBLIC	?_Hardfail@?$_Iosb@H@std@@2W4_Iostate@12@B	; std::_Iosb<int>::_Hardfail
PUBLIC	?in@?$_Iosb@H@std@@2W4_Openmode@12@B		; std::_Iosb<int>::in
PUBLIC	?out@?$_Iosb@H@std@@2W4_Openmode@12@B		; std::_Iosb<int>::out
PUBLIC	?ate@?$_Iosb@H@std@@2W4_Openmode@12@B		; std::_Iosb<int>::ate
PUBLIC	?app@?$_Iosb@H@std@@2W4_Openmode@12@B		; std::_Iosb<int>::app
PUBLIC	?trunc@?$_Iosb@H@std@@2W4_Openmode@12@B		; std::_Iosb<int>::trunc
PUBLIC	?_Nocreate@?$_Iosb@H@std@@2W4_Openmode@12@B	; std::_Iosb<int>::_Nocreate
PUBLIC	?_Noreplace@?$_Iosb@H@std@@2W4_Openmode@12@B	; std::_Iosb<int>::_Noreplace
PUBLIC	?binary@?$_Iosb@H@std@@2W4_Openmode@12@B	; std::_Iosb<int>::binary
PUBLIC	?beg@?$_Iosb@H@std@@2W4_Seekdir@12@B		; std::_Iosb<int>::beg
PUBLIC	?cur@?$_Iosb@H@std@@2W4_Seekdir@12@B		; std::_Iosb<int>::cur
PUBLIC	?end@?$_Iosb@H@std@@2W4_Seekdir@12@B		; std::_Iosb<int>::end
_BSS	SEGMENT
?classID@?1??getStaticClassID@CollationKey@icu_56@@SAPAXXZ@4DA DB 01H DUP (?) ; `icu_56::CollationKey::getStaticClassID'::`2'::classID
_BSS	ENDS
;	COMDAT ?end@?$_Iosb@H@std@@2W4_Seekdir@12@B
CONST	SEGMENT
?end@?$_Iosb@H@std@@2W4_Seekdir@12@B DD 02H		; std::_Iosb<int>::end
CONST	ENDS
;	COMDAT ?cur@?$_Iosb@H@std@@2W4_Seekdir@12@B
CONST	SEGMENT
?cur@?$_Iosb@H@std@@2W4_Seekdir@12@B DD 01H		; std::_Iosb<int>::cur
CONST	ENDS
;	COMDAT ?beg@?$_Iosb@H@std@@2W4_Seekdir@12@B
CONST	SEGMENT
?beg@?$_Iosb@H@std@@2W4_Seekdir@12@B DD 00H		; std::_Iosb<int>::beg
CONST	ENDS
;	COMDAT ?binary@?$_Iosb@H@std@@2W4_Openmode@12@B
CONST	SEGMENT
?binary@?$_Iosb@H@std@@2W4_Openmode@12@B DD 020H	; std::_Iosb<int>::binary
CONST	ENDS
;	COMDAT ?_Noreplace@?$_Iosb@H@std@@2W4_Openmode@12@B
CONST	SEGMENT
?_Noreplace@?$_Iosb@H@std@@2W4_Openmode@12@B DD 080H	; std::_Iosb<int>::_Noreplace
CONST	ENDS
;	COMDAT ?_Nocreate@?$_Iosb@H@std@@2W4_Openmode@12@B
CONST	SEGMENT
?_Nocreate@?$_Iosb@H@std@@2W4_Openmode@12@B DD 040H	; std::_Iosb<int>::_Nocreate
CONST	ENDS
;	COMDAT ?trunc@?$_Iosb@H@std@@2W4_Openmode@12@B
CONST	SEGMENT
?trunc@?$_Iosb@H@std@@2W4_Openmode@12@B DD 010H		; std::_Iosb<int>::trunc
CONST	ENDS
;	COMDAT ?app@?$_Iosb@H@std@@2W4_Openmode@12@B
CONST	SEGMENT
?app@?$_Iosb@H@std@@2W4_Openmode@12@B DD 08H		; std::_Iosb<int>::app
CONST	ENDS
;	COMDAT ?ate@?$_Iosb@H@std@@2W4_Openmode@12@B
CONST	SEGMENT
?ate@?$_Iosb@H@std@@2W4_Openmode@12@B DD 04H		; std::_Iosb<int>::ate
CONST	ENDS
;	COMDAT ?out@?$_Iosb@H@std@@2W4_Openmode@12@B
CONST	SEGMENT
?out@?$_Iosb@H@std@@2W4_Openmode@12@B DD 02H		; std::_Iosb<int>::out
CONST	ENDS
;	COMDAT ?in@?$_Iosb@H@std@@2W4_Openmode@12@B
CONST	SEGMENT
?in@?$_Iosb@H@std@@2W4_Openmode@12@B DD 01H		; std::_Iosb<int>::in
CONST	ENDS
;	COMDAT ?_Hardfail@?$_Iosb@H@std@@2W4_Iostate@12@B
CONST	SEGMENT
?_Hardfail@?$_Iosb@H@std@@2W4_Iostate@12@B DD 010H	; std::_Iosb<int>::_Hardfail
CONST	ENDS
;	COMDAT ?badbit@?$_Iosb@H@std@@2W4_Iostate@12@B
CONST	SEGMENT
?badbit@?$_Iosb@H@std@@2W4_Iostate@12@B DD 04H		; std::_Iosb<int>::badbit
CONST	ENDS
;	COMDAT ?failbit@?$_Iosb@H@std@@2W4_Iostate@12@B
CONST	SEGMENT
?failbit@?$_Iosb@H@std@@2W4_Iostate@12@B DD 02H		; std::_Iosb<int>::failbit
CONST	ENDS
;	COMDAT ?eofbit@?$_Iosb@H@std@@2W4_Iostate@12@B
CONST	SEGMENT
?eofbit@?$_Iosb@H@std@@2W4_Iostate@12@B DD 01H		; std::_Iosb<int>::eofbit
CONST	ENDS
;	COMDAT ?goodbit@?$_Iosb@H@std@@2W4_Iostate@12@B
CONST	SEGMENT
?goodbit@?$_Iosb@H@std@@2W4_Iostate@12@B DD 00H		; std::_Iosb<int>::goodbit
CONST	ENDS
;	COMDAT ?floatfield@?$_Iosb@H@std@@2W4_Fmtflags@12@B
CONST	SEGMENT
?floatfield@?$_Iosb@H@std@@2W4_Fmtflags@12@B DD 03000H	; std::_Iosb<int>::floatfield
CONST	ENDS
;	COMDAT ?basefield@?$_Iosb@H@std@@2W4_Fmtflags@12@B
CONST	SEGMENT
?basefield@?$_Iosb@H@std@@2W4_Fmtflags@12@B DD 0e00H	; std::_Iosb<int>::basefield
CONST	ENDS
;	COMDAT ?adjustfield@?$_Iosb@H@std@@2W4_Fmtflags@12@B
CONST	SEGMENT
?adjustfield@?$_Iosb@H@std@@2W4_Fmtflags@12@B DD 01c0H	; std::_Iosb<int>::adjustfield
CONST	ENDS
;	COMDAT ?_Stdio@?$_Iosb@H@std@@2W4_Fmtflags@12@B
CONST	SEGMENT
?_Stdio@?$_Iosb@H@std@@2W4_Fmtflags@12@B DD 08000H	; std::_Iosb<int>::_Stdio
CONST	ENDS
;	COMDAT ?boolalpha@?$_Iosb@H@std@@2W4_Fmtflags@12@B
CONST	SEGMENT
?boolalpha@?$_Iosb@H@std@@2W4_Fmtflags@12@B DD 04000H	; std::_Iosb<int>::boolalpha
CONST	ENDS
;	COMDAT ?hexfloat@?$_Iosb@H@std@@2W4_Fmtflags@12@B
CONST	SEGMENT
?hexfloat@?$_Iosb@H@std@@2W4_Fmtflags@12@B DD 03000H	; std::_Iosb<int>::hexfloat
CONST	ENDS
;	COMDAT ?fixed@?$_Iosb@H@std@@2W4_Fmtflags@12@B
CONST	SEGMENT
?fixed@?$_Iosb@H@std@@2W4_Fmtflags@12@B DD 02000H	; std::_Iosb<int>::fixed
CONST	ENDS
;	COMDAT ?scientific@?$_Iosb@H@std@@2W4_Fmtflags@12@B
CONST	SEGMENT
?scientific@?$_Iosb@H@std@@2W4_Fmtflags@12@B DD 01000H	; std::_Iosb<int>::scientific
CONST	ENDS
;	COMDAT ?hex@?$_Iosb@H@std@@2W4_Fmtflags@12@B
CONST	SEGMENT
?hex@?$_Iosb@H@std@@2W4_Fmtflags@12@B DD 0800H		; std::_Iosb<int>::hex
CONST	ENDS
;	COMDAT ?oct@?$_Iosb@H@std@@2W4_Fmtflags@12@B
CONST	SEGMENT
?oct@?$_Iosb@H@std@@2W4_Fmtflags@12@B DD 0400H		; std::_Iosb<int>::oct
CONST	ENDS
;	COMDAT ?dec@?$_Iosb@H@std@@2W4_Fmtflags@12@B
CONST	SEGMENT
?dec@?$_Iosb@H@std@@2W4_Fmtflags@12@B DD 0200H		; std::_Iosb<int>::dec
CONST	ENDS
;	COMDAT ?internal@?$_Iosb@H@std@@2W4_Fmtflags@12@B
CONST	SEGMENT
?internal@?$_Iosb@H@std@@2W4_Fmtflags@12@B DD 0100H	; std::_Iosb<int>::internal
CONST	ENDS
;	COMDAT ?right@?$_Iosb@H@std@@2W4_Fmtflags@12@B
CONST	SEGMENT
?right@?$_Iosb@H@std@@2W4_Fmtflags@12@B DD 080H		; std::_Iosb<int>::right
CONST	ENDS
;	COMDAT ?left@?$_Iosb@H@std@@2W4_Fmtflags@12@B
CONST	SEGMENT
?left@?$_Iosb@H@std@@2W4_Fmtflags@12@B DD 040H		; std::_Iosb<int>::left
CONST	ENDS
;	COMDAT ?showpos@?$_Iosb@H@std@@2W4_Fmtflags@12@B
CONST	SEGMENT
?showpos@?$_Iosb@H@std@@2W4_Fmtflags@12@B DD 020H	; std::_Iosb<int>::showpos
CONST	ENDS
;	COMDAT ?showpoint@?$_Iosb@H@std@@2W4_Fmtflags@12@B
CONST	SEGMENT
?showpoint@?$_Iosb@H@std@@2W4_Fmtflags@12@B DD 010H	; std::_Iosb<int>::showpoint
CONST	ENDS
;	COMDAT ?showbase@?$_Iosb@H@std@@2W4_Fmtflags@12@B
CONST	SEGMENT
?showbase@?$_Iosb@H@std@@2W4_Fmtflags@12@B DD 08H	; std::_Iosb<int>::showbase
CONST	ENDS
;	COMDAT ?uppercase@?$_Iosb@H@std@@2W4_Fmtflags@12@B
CONST	SEGMENT
?uppercase@?$_Iosb@H@std@@2W4_Fmtflags@12@B DD 04H	; std::_Iosb<int>::uppercase
CONST	ENDS
;	COMDAT ?unitbuf@?$_Iosb@H@std@@2W4_Fmtflags@12@B
CONST	SEGMENT
?unitbuf@?$_Iosb@H@std@@2W4_Fmtflags@12@B DD 02H	; std::_Iosb<int>::unitbuf
CONST	ENDS
;	COMDAT ?skipws@?$_Iosb@H@std@@2W4_Fmtflags@12@B
CONST	SEGMENT
?skipws@?$_Iosb@H@std@@2W4_Fmtflags@12@B DD 01H		; std::_Iosb<int>::skipws
CONST	ENDS
;	COMDAT ?none@?$_Locbase@H@std@@2HB
CONST	SEGMENT
?none@?$_Locbase@H@std@@2HB DD 00H			; std::_Locbase<int>::none
CONST	ENDS
;	COMDAT ?all@?$_Locbase@H@std@@2HB
CONST	SEGMENT
?all@?$_Locbase@H@std@@2HB DD 03fH			; std::_Locbase<int>::all
CONST	ENDS
;	COMDAT ?messages@?$_Locbase@H@std@@2HB
CONST	SEGMENT
?messages@?$_Locbase@H@std@@2HB DD 020H			; std::_Locbase<int>::messages
CONST	ENDS
;	COMDAT ?time@?$_Locbase@H@std@@2HB
CONST	SEGMENT
?time@?$_Locbase@H@std@@2HB DD 010H			; std::_Locbase<int>::time
CONST	ENDS
;	COMDAT ?numeric@?$_Locbase@H@std@@2HB
CONST	SEGMENT
?numeric@?$_Locbase@H@std@@2HB DD 08H			; std::_Locbase<int>::numeric
CONST	ENDS
;	COMDAT ?monetary@?$_Locbase@H@std@@2HB
CONST	SEGMENT
?monetary@?$_Locbase@H@std@@2HB DD 04H			; std::_Locbase<int>::monetary
CONST	ENDS
;	COMDAT ?ctype@?$_Locbase@H@std@@2HB
CONST	SEGMENT
?ctype@?$_Locbase@H@std@@2HB DD 02H			; std::_Locbase<int>::ctype
CONST	ENDS
;	COMDAT ?collate@?$_Locbase@H@std@@2HB
CONST	SEGMENT
?collate@?$_Locbase@H@std@@2HB DD 01H			; std::_Locbase<int>::collate
CONST	ENDS
;	COMDAT ?_Rank@?$_Arithmetic_traits@O@std@@2HB
CONST	SEGMENT
?_Rank@?$_Arithmetic_traits@O@std@@2HB DD 09H		; std::_Arithmetic_traits<long double>::_Rank
CONST	ENDS
;	COMDAT ?_Rank@?$_Arithmetic_traits@N@std@@2HB
CONST	SEGMENT
?_Rank@?$_Arithmetic_traits@N@std@@2HB DD 08H		; std::_Arithmetic_traits<double>::_Rank
CONST	ENDS
;	COMDAT ?_Rank@?$_Arithmetic_traits@M@std@@2HB
CONST	SEGMENT
?_Rank@?$_Arithmetic_traits@M@std@@2HB DD 07H		; std::_Arithmetic_traits<float>::_Rank
CONST	ENDS
;	COMDAT ?_Rank@?$_Arithmetic_traits@_K@std@@2HB
CONST	SEGMENT
?_Rank@?$_Arithmetic_traits@_K@std@@2HB DD 06H		; std::_Arithmetic_traits<unsigned __int64>::_Rank
CONST	ENDS
;	COMDAT ?_Rank@?$_Arithmetic_traits@_J@std@@2HB
CONST	SEGMENT
?_Rank@?$_Arithmetic_traits@_J@std@@2HB DD 06H		; std::_Arithmetic_traits<__int64>::_Rank
CONST	ENDS
;	COMDAT ?_Rank@?$_Arithmetic_traits@K@std@@2HB
CONST	SEGMENT
?_Rank@?$_Arithmetic_traits@K@std@@2HB DD 05H		; std::_Arithmetic_traits<unsigned long>::_Rank
CONST	ENDS
;	COMDAT ?_Rank@?$_Arithmetic_traits@J@std@@2HB
CONST	SEGMENT
?_Rank@?$_Arithmetic_traits@J@std@@2HB DD 05H		; std::_Arithmetic_traits<long>::_Rank
CONST	ENDS
;	COMDAT ?_Rank@?$_Arithmetic_traits@I@std@@2HB
CONST	SEGMENT
?_Rank@?$_Arithmetic_traits@I@std@@2HB DD 04H		; std::_Arithmetic_traits<unsigned int>::_Rank
CONST	ENDS
;	COMDAT ?_Rank@?$_Arithmetic_traits@H@std@@2HB
CONST	SEGMENT
?_Rank@?$_Arithmetic_traits@H@std@@2HB DD 04H		; std::_Arithmetic_traits<int>::_Rank
CONST	ENDS
;	COMDAT ?_Rank@?$_Arithmetic_traits@G@std@@2HB
CONST	SEGMENT
?_Rank@?$_Arithmetic_traits@G@std@@2HB DD 03H		; std::_Arithmetic_traits<unsigned short>::_Rank
CONST	ENDS
;	COMDAT ?_Rank@?$_Arithmetic_traits@F@std@@2HB
CONST	SEGMENT
?_Rank@?$_Arithmetic_traits@F@std@@2HB DD 03H		; std::_Arithmetic_traits<short>::_Rank
CONST	ENDS
;	COMDAT ?_Rank@?$_Arithmetic_traits@E@std@@2HB
CONST	SEGMENT
?_Rank@?$_Arithmetic_traits@E@std@@2HB DD 02H		; std::_Arithmetic_traits<unsigned char>::_Rank
CONST	ENDS
;	COMDAT ?_Rank@?$_Arithmetic_traits@C@std@@2HB
CONST	SEGMENT
?_Rank@?$_Arithmetic_traits@C@std@@2HB DD 02H		; std::_Arithmetic_traits<signed char>::_Rank
CONST	ENDS
;	COMDAT ?_Rank@?$_Arithmetic_traits@D@std@@2HB
CONST	SEGMENT
?_Rank@?$_Arithmetic_traits@D@std@@2HB DD 02H		; std::_Arithmetic_traits<char>::_Rank
CONST	ENDS
;	COMDAT ?_Rank@?$_Arithmetic_traits@_N@std@@2HB
CONST	SEGMENT
?_Rank@?$_Arithmetic_traits@_N@std@@2HB DD 01H		; std::_Arithmetic_traits<bool>::_Rank
CONST	ENDS
;	COMDAT ?value@?$integral_constant@I$0A@@tr1@std@@2IB
CONST	SEGMENT
?value@?$integral_constant@I$0A@@tr1@std@@2IB DD 00H	; std::tr1::integral_constant<unsigned int,0>::value
CONST	ENDS
;	COMDAT ?value@?$integral_constant@_N$00@tr1@std@@2_NB
CONST	SEGMENT
?value@?$integral_constant@_N$00@tr1@std@@2_NB DB 01H	; std::tr1::integral_constant<bool,1>::value
CONST	ENDS
;	COMDAT ?value@?$integral_constant@_N$0A@@tr1@std@@2_NB
CONST	SEGMENT
?value@?$integral_constant@_N$0A@@tr1@std@@2_NB DB 00H	; std::tr1::integral_constant<bool,0>::value
CONST	ENDS
PUBLIC	??2@YAPAXI@Z					; operator new
EXTRN	__RTC_Shutdown:PROC
EXTRN	__RTC_InitBase:PROC
;	COMDAT rtc$TMZ
; File d:\mozilla\intl\icu\include\unicode\utypes.h
rtc$TMZ	SEGMENT
__RTC_Shutdown.rtc$TMZ DD FLAT:__RTC_Shutdown
rtc$TMZ	ENDS
;	COMDAT rtc$IMZ
rtc$IMZ	SEGMENT
__RTC_InitBase.rtc$IMZ DD FLAT:__RTC_InitBase
; Function compile flags: /Odtp /RTCsu /ZI
rtc$IMZ	ENDS
;	COMDAT ??2@YAPAXI@Z
_TEXT	SEGMENT
_q$ = -8						; size = 4
___formal$ = 8						; size = 4
??2@YAPAXI@Z PROC					; operator new, COMDAT
; Line 411
	push	ebp
	mov	ebp, esp
	sub	esp, 204				; 000000ccH
	push	ebx
	push	esi
	push	edi
	lea	edi, DWORD PTR [ebp-204]
	mov	ecx, 51					; 00000033H
	mov	eax, -858993460				; ccccccccH
	rep stosd
; Line 412
	mov	DWORD PTR _q$[ebp], 0
; Line 413
	mov	eax, DWORD PTR _q$[ebp]
	mov	BYTE PTR [eax], 5
; Line 414
	mov	eax, DWORD PTR _q$[ebp]
; Line 415
	pop	edi
	pop	esi
	pop	ebx
	mov	esp, ebp
	pop	ebp
	ret	0
??2@YAPAXI@Z ENDP					; operator new
_TEXT	ENDS
PUBLIC	??3@YAXPAX@Z					; operator delete
; Function compile flags: /Odtp /RTCsu /ZI
;	COMDAT ??3@YAXPAX@Z
_TEXT	SEGMENT
_q$ = -8						; size = 4
___formal$ = 8						; size = 4
??3@YAXPAX@Z PROC					; operator delete, COMDAT
; Line 439
	push	ebp
	mov	ebp, esp
	sub	esp, 204				; 000000ccH
	push	ebx
	push	esi
	push	edi
	lea	edi, DWORD PTR [ebp-204]
	mov	ecx, 51					; 00000033H
	mov	eax, -858993460				; ccccccccH
	rep stosd
; Line 440
	mov	DWORD PTR _q$[ebp], 0
; Line 441
	mov	eax, DWORD PTR _q$[ebp]
	mov	BYTE PTR [eax], 5
; Line 442
	pop	edi
	pop	esi
	pop	ebx
	mov	esp, ebp
	pop	ebp
	ret	0
??3@YAXPAX@Z ENDP					; operator delete
_TEXT	ENDS
PUBLIC	?fromUCollator@Collator@icu_56@@SAPAV12@PAUUCollator@@@Z ; icu_56::Collator::fromUCollator
; Function compile flags: /Odtp /RTCsu /ZI
;	COMDAT ?fromUCollator@Collator@icu_56@@SAPAV12@PAUUCollator@@@Z
_TEXT	SEGMENT
_uc$ = 8						; size = 4
?fromUCollator@Collator@icu_56@@SAPAV12@PAUUCollator@@@Z PROC ; icu_56::Collator::fromUCollator, COMDAT
; File d:\mozilla\intl\icu\source\i18n\unicode\coll.h
; Line 1161
	push	ebp
	mov	ebp, esp
	sub	esp, 192				; 000000c0H
	push	ebx
	push	esi
	push	edi
	lea	edi, DWORD PTR [ebp-192]
	mov	ecx, 48					; 00000030H
	mov	eax, -858993460				; ccccccccH
	rep stosd
; Line 1162
	mov	eax, DWORD PTR _uc$[ebp]
; Line 1163
	pop	edi
	pop	esi
	pop	ebx
	mov	esp, ebp
	pop	ebp
	ret	0
?fromUCollator@Collator@icu_56@@SAPAV12@PAUUCollator@@@Z ENDP ; icu_56::Collator::fromUCollator
_TEXT	ENDS
PUBLIC	?fromUCollator@Collator@icu_56@@SAPBV12@PBUUCollator@@@Z ; icu_56::Collator::fromUCollator
; Function compile flags: /Odtp /RTCsu /ZI
;	COMDAT ?fromUCollator@Collator@icu_56@@SAPBV12@PBUUCollator@@@Z
_TEXT	SEGMENT
_uc$ = 8						; size = 4
?fromUCollator@Collator@icu_56@@SAPBV12@PBUUCollator@@@Z PROC ; icu_56::Collator::fromUCollator, COMDAT
; Line 1165
	push	ebp
	mov	ebp, esp
	sub	esp, 192				; 000000c0H
	push	ebx
	push	esi
	push	edi
	lea	edi, DWORD PTR [ebp-192]
	mov	ecx, 48					; 00000030H
	mov	eax, -858993460				; ccccccccH
	rep stosd
; Line 1166
	mov	eax, DWORD PTR _uc$[ebp]
; Line 1167
	pop	edi
	pop	esi
	pop	ebx
	mov	esp, ebp
	pop	ebp
	ret	0
?fromUCollator@Collator@icu_56@@SAPBV12@PBUUCollator@@@Z ENDP ; icu_56::Collator::fromUCollator
_TEXT	ENDS
PUBLIC	?toUCollator@Collator@icu_56@@QAEPAUUCollator@@XZ ; icu_56::Collator::toUCollator
; Function compile flags: /Odtp /RTCsu /ZI
;	COMDAT ?toUCollator@Collator@icu_56@@QAEPAUUCollator@@XZ
_TEXT	SEGMENT
_this$ = -8						; size = 4
?toUCollator@Collator@icu_56@@QAEPAUUCollator@@XZ PROC	; icu_56::Collator::toUCollator, COMDAT
; _this$ = ecx
; Line 1169
	push	ebp
	mov	ebp, esp
	sub	esp, 204				; 000000ccH
	push	ebx
	push	esi
	push	edi
	push	ecx
	lea	edi, DWORD PTR [ebp-204]
	mov	ecx, 51					; 00000033H
	mov	eax, -858993460				; ccccccccH
	rep stosd
	pop	ecx
	mov	DWORD PTR _this$[ebp], ecx
; Line 1170
	mov	eax, DWORD PTR _this$[ebp]
; Line 1171
	pop	edi
	pop	esi
	pop	ebx
	mov	esp, ebp
	pop	ebp
	ret	0
?toUCollator@Collator@icu_56@@QAEPAUUCollator@@XZ ENDP	; icu_56::Collator::toUCollator
_TEXT	ENDS
PUBLIC	?toUCollator@Collator@icu_56@@QBEPBUUCollator@@XZ ; icu_56::Collator::toUCollator
; Function compile flags: /Odtp /RTCsu /ZI
;	COMDAT ?toUCollator@Collator@icu_56@@QBEPBUUCollator@@XZ
_TEXT	SEGMENT
_this$ = -8						; size = 4
?toUCollator@Collator@icu_56@@QBEPBUUCollator@@XZ PROC	; icu_56::Collator::toUCollator, COMDAT
; _this$ = ecx
; Line 1173
	push	ebp
	mov	ebp, esp
	sub	esp, 204				; 000000ccH
	push	ebx
	push	esi
	push	edi
	push	ecx
	lea	edi, DWORD PTR [ebp-204]
	mov	ecx, 51					; 00000033H
	mov	eax, -858993460				; ccccccccH
	rep stosd
	pop	ecx
	mov	DWORD PTR _this$[ebp], ecx
; Line 1174
	mov	eax, DWORD PTR _this$[ebp]
; Line 1175
	pop	edi
	pop	esi
	pop	ebx
	mov	esp, ebp
	pop	ebp
	ret	0
?toUCollator@Collator@icu_56@@QBEPBUUCollator@@XZ ENDP	; icu_56::Collator::toUCollator
_TEXT	ENDS
PUBLIC	??_7CollatorFactory@icu_56@@6B@			; icu_56::CollatorFactory::`vftable'
PUBLIC	??0CollatorFactory@icu_56@@QAE@XZ		; icu_56::CollatorFactory::CollatorFactory
PUBLIC	??_R4CollatorFactory@icu_56@@6B@		; icu_56::CollatorFactory::`RTTI Complete Object Locator'
PUBLIC	??_R0?AVCollatorFactory@icu_56@@@8		; icu_56::CollatorFactory `RTTI Type Descriptor'
PUBLIC	??_R3CollatorFactory@icu_56@@8			; icu_56::CollatorFactory::`RTTI Class Hierarchy Descriptor'
PUBLIC	??_R2CollatorFactory@icu_56@@8			; icu_56::CollatorFactory::`RTTI Base Class Array'
PUBLIC	??_R1A@?0A@EA@CollatorFactory@icu_56@@8		; icu_56::CollatorFactory::`RTTI Base Class Descriptor at (0,-1,0,64)'
PUBLIC	??_R1A@?0A@EA@UObject@icu_56@@8			; icu_56::UObject::`RTTI Base Class Descriptor at (0,-1,0,64)'
PUBLIC	??_R0?AVUObject@icu_56@@@8			; icu_56::UObject `RTTI Type Descriptor'
PUBLIC	??_R3UObject@icu_56@@8				; icu_56::UObject::`RTTI Class Hierarchy Descriptor'
PUBLIC	??_R2UObject@icu_56@@8				; icu_56::UObject::`RTTI Base Class Array'
PUBLIC	??_R13?0A@EA@UMemory@icu_56@@8			; icu_56::UMemory::`RTTI Base Class Descriptor at (4,-1,0,64)'
PUBLIC	??_R0?AVUMemory@icu_56@@@8			; icu_56::UMemory `RTTI Type Descriptor'
PUBLIC	??_R3UMemory@icu_56@@8				; icu_56::UMemory::`RTTI Class Hierarchy Descriptor'
PUBLIC	??_R2UMemory@icu_56@@8				; icu_56::UMemory::`RTTI Base Class Array'
PUBLIC	??_R1A@?0A@EA@UMemory@icu_56@@8			; icu_56::UMemory::`RTTI Base Class Descriptor at (0,-1,0,64)'
PUBLIC	??_ECollatorFactory@icu_56@@UAEPAXI@Z		; icu_56::CollatorFactory::`vector deleting destructor'
EXTRN	__imp_??0UObject@icu_56@@QAE@XZ:PROC
EXTRN	__RTC_CheckEsp:PROC
EXTRN	??_7type_info@@6B@:QWORD			; type_info::`vftable'
EXTRN	?getDynamicClassID@UObject@icu_56@@UBEPAXXZ:PROC ; icu_56::UObject::getDynamicClassID
EXTRN	?visible@CollatorFactory@icu_56@@UBECXZ:PROC	; icu_56::CollatorFactory::visible
EXTRN	__purecall:PROC
EXTRN	?getDisplayName@CollatorFactory@icu_56@@UAEAAVUnicodeString@2@ABVLocale@2@0AAV32@@Z:PROC ; icu_56::CollatorFactory::getDisplayName
;	COMDAT ??_R1A@?0A@EA@UMemory@icu_56@@8
rdata$r	SEGMENT
??_R1A@?0A@EA@UMemory@icu_56@@8 DD FLAT:??_R0?AVUMemory@icu_56@@@8 ; icu_56::UMemory::`RTTI Base Class Descriptor at (0,-1,0,64)'
	DD	00H
	DD	00H
	DD	0ffffffffH
	DD	00H
	DD	040H
	DD	FLAT:??_R3UMemory@icu_56@@8
rdata$r	ENDS
;	COMDAT ??_R2UMemory@icu_56@@8
rdata$r	SEGMENT
??_R2UMemory@icu_56@@8 DD FLAT:??_R1A@?0A@EA@UMemory@icu_56@@8 ; icu_56::UMemory::`RTTI Base Class Array'
rdata$r	ENDS
;	COMDAT ??_R3UMemory@icu_56@@8
rdata$r	SEGMENT
??_R3UMemory@icu_56@@8 DD 00H				; icu_56::UMemory::`RTTI Class Hierarchy Descriptor'
	DD	00H
	DD	01H
	DD	FLAT:??_R2UMemory@icu_56@@8
rdata$r	ENDS
;	COMDAT ??_R0?AVUMemory@icu_56@@@8
_DATA	SEGMENT
??_R0?AVUMemory@icu_56@@@8 DD FLAT:??_7type_info@@6B@	; icu_56::UMemory `RTTI Type Descriptor'
	DD	00H
	DB	'.?AVUMemory@icu_56@@', 00H
_DATA	ENDS
;	COMDAT ??_R13?0A@EA@UMemory@icu_56@@8
rdata$r	SEGMENT
??_R13?0A@EA@UMemory@icu_56@@8 DD FLAT:??_R0?AVUMemory@icu_56@@@8 ; icu_56::UMemory::`RTTI Base Class Descriptor at (4,-1,0,64)'
	DD	00H
	DD	04H
	DD	0ffffffffH
	DD	00H
	DD	040H
	DD	FLAT:??_R3UMemory@icu_56@@8
rdata$r	ENDS
;	COMDAT ??_R2UObject@icu_56@@8
rdata$r	SEGMENT
??_R2UObject@icu_56@@8 DD FLAT:??_R1A@?0A@EA@UObject@icu_56@@8 ; icu_56::UObject::`RTTI Base Class Array'
	DD	FLAT:??_R13?0A@EA@UMemory@icu_56@@8
rdata$r	ENDS
;	COMDAT ??_R3UObject@icu_56@@8
rdata$r	SEGMENT
??_R3UObject@icu_56@@8 DD 00H				; icu_56::UObject::`RTTI Class Hierarchy Descriptor'
	DD	00H
	DD	02H
	DD	FLAT:??_R2UObject@icu_56@@8
rdata$r	ENDS
;	COMDAT ??_R0?AVUObject@icu_56@@@8
_DATA	SEGMENT
??_R0?AVUObject@icu_56@@@8 DD FLAT:??_7type_info@@6B@	; icu_56::UObject `RTTI Type Descriptor'
	DD	00H
	DB	'.?AVUObject@icu_56@@', 00H
_DATA	ENDS
;	COMDAT ??_R1A@?0A@EA@UObject@icu_56@@8
rdata$r	SEGMENT
??_R1A@?0A@EA@UObject@icu_56@@8 DD FLAT:??_R0?AVUObject@icu_56@@@8 ; icu_56::UObject::`RTTI Base Class Descriptor at (0,-1,0,64)'
	DD	01H
	DD	00H
	DD	0ffffffffH
	DD	00H
	DD	040H
	DD	FLAT:??_R3UObject@icu_56@@8
rdata$r	ENDS
;	COMDAT ??_R1A@?0A@EA@CollatorFactory@icu_56@@8
rdata$r	SEGMENT
??_R1A@?0A@EA@CollatorFactory@icu_56@@8 DD FLAT:??_R0?AVCollatorFactory@icu_56@@@8 ; icu_56::CollatorFactory::`RTTI Base Class Descriptor at (0,-1,0,64)'
	DD	02H
	DD	00H
	DD	0ffffffffH
	DD	00H
	DD	040H
	DD	FLAT:??_R3CollatorFactory@icu_56@@8
rdata$r	ENDS
;	COMDAT ??_R2CollatorFactory@icu_56@@8
rdata$r	SEGMENT
??_R2CollatorFactory@icu_56@@8 DD FLAT:??_R1A@?0A@EA@CollatorFactory@icu_56@@8 ; icu_56::CollatorFactory::`RTTI Base Class Array'
	DD	FLAT:??_R1A@?0A@EA@UObject@icu_56@@8
	DD	FLAT:??_R13?0A@EA@UMemory@icu_56@@8
rdata$r	ENDS
;	COMDAT ??_R3CollatorFactory@icu_56@@8
rdata$r	SEGMENT
??_R3CollatorFactory@icu_56@@8 DD 00H			; icu_56::CollatorFactory::`RTTI Class Hierarchy Descriptor'
	DD	00H
	DD	03H
	DD	FLAT:??_R2CollatorFactory@icu_56@@8
rdata$r	ENDS
;	COMDAT ??_R0?AVCollatorFactory@icu_56@@@8
_DATA	SEGMENT
??_R0?AVCollatorFactory@icu_56@@@8 DD FLAT:??_7type_info@@6B@ ; icu_56::CollatorFactory `RTTI Type Descriptor'
	DD	00H
	DB	'.?AVCollatorFactory@icu_56@@', 00H
_DATA	ENDS
;	COMDAT ??_R4CollatorFactory@icu_56@@6B@
rdata$r	SEGMENT
??_R4CollatorFactory@icu_56@@6B@ DD 00H			; icu_56::CollatorFactory::`RTTI Complete Object Locator'
	DD	00H
	DD	00H
	DD	FLAT:??_R0?AVCollatorFactory@icu_56@@@8
	DD	FLAT:??_R3CollatorFactory@icu_56@@8
rdata$r	ENDS
;	COMDAT ??_7CollatorFactory@icu_56@@6B@
CONST	SEGMENT
??_7CollatorFactory@icu_56@@6B@ DD FLAT:??_R4CollatorFactory@icu_56@@6B@ ; icu_56::CollatorFactory::`vftable'
	DD	FLAT:??_ECollatorFactory@icu_56@@UAEPAXI@Z
	DD	FLAT:?getDynamicClassID@UObject@icu_56@@UBEPAXXZ
	DD	FLAT:?visible@CollatorFactory@icu_56@@UBECXZ
	DD	FLAT:__purecall
	DD	FLAT:?getDisplayName@CollatorFactory@icu_56@@UAEAAVUnicodeString@2@ABVLocale@2@0AAV32@@Z
	DD	FLAT:__purecall
; Function compile flags: /Odtp /RTCsu /ZI
CONST	ENDS
;	COMDAT ??0CollatorFactory@icu_56@@QAE@XZ
_TEXT	SEGMENT
_this$ = -8						; size = 4
??0CollatorFactory@icu_56@@QAE@XZ PROC			; icu_56::CollatorFactory::CollatorFactory, COMDAT
; _this$ = ecx
	push	ebp
	mov	ebp, esp
	sub	esp, 204				; 000000ccH
	push	ebx
	push	esi
	push	edi
	push	ecx
	lea	edi, DWORD PTR [ebp-204]
	mov	ecx, 51					; 00000033H
	mov	eax, -858993460				; ccccccccH
	rep stosd
	pop	ecx
	mov	DWORD PTR _this$[ebp], ecx
	mov	esi, esp
	mov	ecx, DWORD PTR _this$[ebp]
	call	DWORD PTR __imp_??0UObject@icu_56@@QAE@XZ
	cmp	esi, esp
	call	__RTC_CheckEsp
	mov	eax, DWORD PTR _this$[ebp]
	mov	DWORD PTR [eax], OFFSET ??_7CollatorFactory@icu_56@@6B@
	mov	eax, DWORD PTR _this$[ebp]
	pop	edi
	pop	esi
	pop	ebx
	add	esp, 204				; 000000ccH
	cmp	ebp, esp
	call	__RTC_CheckEsp
	mov	esp, ebp
	pop	ebp
	ret	0
??0CollatorFactory@icu_56@@QAE@XZ ENDP			; icu_56::CollatorFactory::CollatorFactory
_TEXT	ENDS
PUBLIC	??0CollatorFactory@icu_56@@QAE@ABV01@@Z		; icu_56::CollatorFactory::CollatorFactory
EXTRN	__imp_??0UObject@icu_56@@QAE@ABV01@@Z:PROC
; Function compile flags: /Odtp /RTCsu /ZI
;	COMDAT ??0CollatorFactory@icu_56@@QAE@ABV01@@Z
_TEXT	SEGMENT
_this$ = -8						; size = 4
___that$ = 8						; size = 4
??0CollatorFactory@icu_56@@QAE@ABV01@@Z PROC		; icu_56::CollatorFactory::CollatorFactory, COMDAT
; _this$ = ecx
	push	ebp
	mov	ebp, esp
	sub	esp, 204				; 000000ccH
	push	ebx
	push	esi
	push	edi
	push	ecx
	lea	edi, DWORD PTR [ebp-204]
	mov	ecx, 51					; 00000033H
	mov	eax, -858993460				; ccccccccH
	rep stosd
	pop	ecx
	mov	DWORD PTR _this$[ebp], ecx
	mov	esi, esp
	mov	eax, DWORD PTR ___that$[ebp]
	push	eax
	mov	ecx, DWORD PTR _this$[ebp]
	call	DWORD PTR __imp_??0UObject@icu_56@@QAE@ABV01@@Z
	cmp	esi, esp
	call	__RTC_CheckEsp
	mov	eax, DWORD PTR _this$[ebp]
	mov	DWORD PTR [eax], OFFSET ??_7CollatorFactory@icu_56@@6B@
	mov	eax, DWORD PTR _this$[ebp]
	pop	edi
	pop	esi
	pop	ebx
	add	esp, 204				; 000000ccH
	cmp	ebp, esp
	call	__RTC_CheckEsp
	mov	esp, ebp
	pop	ebp
	ret	4
??0CollatorFactory@icu_56@@QAE@ABV01@@Z ENDP		; icu_56::CollatorFactory::CollatorFactory
_TEXT	ENDS
PUBLIC	??4CollatorFactory@icu_56@@QAEAAV01@ABV01@@Z	; icu_56::CollatorFactory::operator=
EXTRN	__imp_??4UObject@icu_56@@QAEAAV01@ABV01@@Z:PROC
; Function compile flags: /Odtp /RTCsu /ZI
;	COMDAT ??4CollatorFactory@icu_56@@QAEAAV01@ABV01@@Z
_TEXT	SEGMENT
_this$ = -8						; size = 4
___that$ = 8						; size = 4
??4CollatorFactory@icu_56@@QAEAAV01@ABV01@@Z PROC	; icu_56::CollatorFactory::operator=, COMDAT
; _this$ = ecx
	push	ebp
	mov	ebp, esp
	sub	esp, 204				; 000000ccH
	push	ebx
	push	esi
	push	edi
	push	ecx
	lea	edi, DWORD PTR [ebp-204]
	mov	ecx, 51					; 00000033H
	mov	eax, -858993460				; ccccccccH
	rep stosd
	pop	ecx
	mov	DWORD PTR _this$[ebp], ecx
	mov	esi, esp
	mov	eax, DWORD PTR ___that$[ebp]
	push	eax
	mov	ecx, DWORD PTR _this$[ebp]
	call	DWORD PTR __imp_??4UObject@icu_56@@QAEAAV01@ABV01@@Z
	cmp	esi, esp
	call	__RTC_CheckEsp
	mov	eax, DWORD PTR _this$[ebp]
	pop	edi
	pop	esi
	pop	ebx
	add	esp, 204				; 000000ccH
	cmp	ebp, esp
	call	__RTC_CheckEsp
	mov	esp, ebp
	pop	ebp
	ret	4
??4CollatorFactory@icu_56@@QAEAAV01@ABV01@@Z ENDP	; icu_56::CollatorFactory::operator=
_TEXT	ENDS
PUBLIC	??_GCollatorFactory@icu_56@@UAEPAXI@Z		; icu_56::CollatorFactory::`scalar deleting destructor'
EXTRN	__imp_??3UMemory@icu_56@@SAXPAX@Z:PROC
EXTRN	??1CollatorFactory@icu_56@@UAE@XZ:PROC		; icu_56::CollatorFactory::~CollatorFactory
; Function compile flags: /Odtp /RTCsu /ZI
;	COMDAT ??_GCollatorFactory@icu_56@@UAEPAXI@Z
_TEXT	SEGMENT
_this$ = -8						; size = 4
___flags$ = 8						; size = 4
??_GCollatorFactory@icu_56@@UAEPAXI@Z PROC		; icu_56::CollatorFactory::`scalar deleting destructor', COMDAT
; _this$ = ecx
	push	ebp
	mov	ebp, esp
	sub	esp, 204				; 000000ccH
	push	ebx
	push	esi
	push	edi
	push	ecx
	lea	edi, DWORD PTR [ebp-204]
	mov	ecx, 51					; 00000033H
	mov	eax, -858993460				; ccccccccH
	rep stosd
	pop	ecx
	mov	DWORD PTR _this$[ebp], ecx
	mov	ecx, DWORD PTR _this$[ebp]
	call	??1CollatorFactory@icu_56@@UAE@XZ	; icu_56::CollatorFactory::~CollatorFactory
	mov	eax, DWORD PTR ___flags$[ebp]
	and	eax, 1
	je	SHORT $LN1@scalar
	mov	esi, esp
	mov	eax, DWORD PTR _this$[ebp]
	push	eax
	call	DWORD PTR __imp_??3UMemory@icu_56@@SAXPAX@Z
	add	esp, 4
	cmp	esi, esp
	call	__RTC_CheckEsp
$LN1@scalar:
	mov	eax, DWORD PTR _this$[ebp]
	pop	edi
	pop	esi
	pop	ebx
	add	esp, 204				; 000000ccH
	cmp	ebp, esp
	call	__RTC_CheckEsp
	mov	esp, ebp
	pop	ebp
	ret	4
??_GCollatorFactory@icu_56@@UAEPAXI@Z ENDP		; icu_56::CollatorFactory::`scalar deleting destructor'
_TEXT	ENDS
EXTRN	__imp_??_VUMemory@icu_56@@SAXPAX@Z:PROC
EXTRN	??_M@YGXPAXIHP6EX0@Z@Z:PROC			; `eh vector destructor iterator'
; Function compile flags: /Odtp /RTCsu /ZI
;	COMDAT ??_ECollatorFactory@icu_56@@UAEPAXI@Z
_TEXT	SEGMENT
_this$ = -8						; size = 4
___flags$ = 8						; size = 4
??_ECollatorFactory@icu_56@@UAEPAXI@Z PROC		; icu_56::CollatorFactory::`vector deleting destructor', COMDAT
; _this$ = ecx
	push	ebp
	mov	ebp, esp
	sub	esp, 204				; 000000ccH
	push	ebx
	push	esi
	push	edi
	push	ecx
	lea	edi, DWORD PTR [ebp-204]
	mov	ecx, 51					; 00000033H
	mov	eax, -858993460				; ccccccccH
	rep stosd
	pop	ecx
	mov	DWORD PTR _this$[ebp], ecx
	mov	eax, DWORD PTR ___flags$[ebp]
	and	eax, 2
	je	SHORT $LN3@vector
	push	OFFSET ??1CollatorFactory@icu_56@@UAE@XZ ; icu_56::CollatorFactory::~CollatorFactory
	mov	eax, DWORD PTR _this$[ebp]
	mov	ecx, DWORD PTR [eax-4]
	push	ecx
	push	4
	mov	edx, DWORD PTR _this$[ebp]
	push	edx
	call	??_M@YGXPAXIHP6EX0@Z@Z
	mov	eax, DWORD PTR ___flags$[ebp]
	and	eax, 1
	je	SHORT $LN2@vector
	mov	eax, DWORD PTR _this$[ebp]
	sub	eax, 4
	mov	esi, esp
	push	eax
	call	DWORD PTR __imp_??_VUMemory@icu_56@@SAXPAX@Z
	add	esp, 4
	cmp	esi, esp
	call	__RTC_CheckEsp
$LN2@vector:
	mov	eax, DWORD PTR _this$[ebp]
	sub	eax, 4
	jmp	SHORT $LN4@vector
$LN3@vector:
	mov	ecx, DWORD PTR _this$[ebp]
	call	??1CollatorFactory@icu_56@@UAE@XZ	; icu_56::CollatorFactory::~CollatorFactory
	mov	eax, DWORD PTR ___flags$[ebp]
	and	eax, 1
	je	SHORT $LN1@vector
	mov	esi, esp
	mov	eax, DWORD PTR _this$[ebp]
	push	eax
	call	DWORD PTR __imp_??3UMemory@icu_56@@SAXPAX@Z
	add	esp, 4
	cmp	esi, esp
	call	__RTC_CheckEsp
$LN1@vector:
	mov	eax, DWORD PTR _this$[ebp]
$LN4@vector:
	pop	edi
	pop	esi
	pop	ebx
	add	esp, 204				; 000000ccH
	cmp	ebp, esp
	call	__RTC_CheckEsp
	mov	esp, ebp
	pop	ebp
	ret	4
??_ECollatorFactory@icu_56@@UAEPAXI@Z ENDP		; icu_56::CollatorFactory::`vector deleting destructor'
_TEXT	ENDS
PUBLIC	?getBytes@CollationKey@icu_56@@AAEPAEXZ		; icu_56::CollationKey::getBytes
; Function compile flags: /Odtp /RTCsu /ZI
;	COMDAT ?getBytes@CollationKey@icu_56@@AAEPAEXZ
_TEXT	SEGMENT
tv71 = -208						; size = 4
_this$ = -8						; size = 4
?getBytes@CollationKey@icu_56@@AAEPAEXZ PROC		; icu_56::CollationKey::getBytes, COMDAT
; _this$ = ecx
; File d:\mozilla\intl\icu\source\i18n\unicode\sortkey.h
; Line 256
	push	ebp
	mov	ebp, esp
	sub	esp, 208				; 000000d0H
	push	ebx
	push	esi
	push	edi
	push	ecx
	lea	edi, DWORD PTR [ebp-208]
	mov	ecx, 52					; 00000034H
	mov	eax, -858993460				; ccccccccH
	rep stosd
	pop	ecx
	mov	DWORD PTR _this$[ebp], ecx
; Line 257
	mov	eax, DWORD PTR _this$[ebp]
	cmp	DWORD PTR [eax+4], 0
	jl	SHORT $LN3@getBytes
	mov	ecx, DWORD PTR _this$[ebp]
	add	ecx, 12					; 0000000cH
	mov	DWORD PTR tv71[ebp], ecx
	jmp	SHORT $LN4@getBytes
$LN3@getBytes:
	mov	edx, DWORD PTR _this$[ebp]
	mov	eax, DWORD PTR [edx+12]
	mov	DWORD PTR tv71[ebp], eax
$LN4@getBytes:
	mov	eax, DWORD PTR tv71[ebp]
; Line 258
	pop	edi
	pop	esi
	pop	ebx
	mov	esp, ebp
	pop	ebp
	ret	0
?getBytes@CollationKey@icu_56@@AAEPAEXZ ENDP		; icu_56::CollationKey::getBytes
_TEXT	ENDS
PUBLIC	?getBytes@CollationKey@icu_56@@ABEPBEXZ		; icu_56::CollationKey::getBytes
; Function compile flags: /Odtp /RTCsu /ZI
;	COMDAT ?getBytes@CollationKey@icu_56@@ABEPBEXZ
_TEXT	SEGMENT
tv71 = -208						; size = 4
_this$ = -8						; size = 4
?getBytes@CollationKey@icu_56@@ABEPBEXZ PROC		; icu_56::CollationKey::getBytes, COMDAT
; _this$ = ecx
; Line 259
	push	ebp
	mov	ebp, esp
	sub	esp, 208				; 000000d0H
	push	ebx
	push	esi
	push	edi
	push	ecx
	lea	edi, DWORD PTR [ebp-208]
	mov	ecx, 52					; 00000034H
	mov	eax, -858993460				; ccccccccH
	rep stosd
	pop	ecx
	mov	DWORD PTR _this$[ebp], ecx
; Line 260
	mov	eax, DWORD PTR _this$[ebp]
	cmp	DWORD PTR [eax+4], 0
	jl	SHORT $LN3@getBytes@2
	mov	ecx, DWORD PTR _this$[ebp]
	add	ecx, 12					; 0000000cH
	mov	DWORD PTR tv71[ebp], ecx
	jmp	SHORT $LN4@getBytes@2
$LN3@getBytes@2:
	mov	edx, DWORD PTR _this$[ebp]
	mov	eax, DWORD PTR [edx+12]
	mov	DWORD PTR tv71[ebp], eax
$LN4@getBytes@2:
	mov	eax, DWORD PTR tv71[ebp]
; Line 261
	pop	edi
	pop	esi
	pop	ebx
	mov	esp, ebp
	pop	ebp
	ret	0
?getBytes@CollationKey@icu_56@@ABEPBEXZ ENDP		; icu_56::CollationKey::getBytes
_TEXT	ENDS
PUBLIC	?getCapacity@CollationKey@icu_56@@ABEHXZ	; icu_56::CollationKey::getCapacity
; Function compile flags: /Odtp /RTCsu /ZI
;	COMDAT ?getCapacity@CollationKey@icu_56@@ABEHXZ
_TEXT	SEGMENT
tv69 = -208						; size = 4
_this$ = -8						; size = 4
?getCapacity@CollationKey@icu_56@@ABEHXZ PROC		; icu_56::CollationKey::getCapacity, COMDAT
; _this$ = ecx
; Line 262
	push	ebp
	mov	ebp, esp
	sub	esp, 208				; 000000d0H
	push	ebx
	push	esi
	push	edi
	push	ecx
	lea	edi, DWORD PTR [ebp-208]
	mov	ecx, 52					; 00000034H
	mov	eax, -858993460				; ccccccccH
	rep stosd
	pop	ecx
	mov	DWORD PTR _this$[ebp], ecx
; Line 263
	mov	eax, DWORD PTR _this$[ebp]
	cmp	DWORD PTR [eax+4], 0
	jl	SHORT $LN3@getCapacit
	mov	DWORD PTR tv69[ebp], 32			; 00000020H
	jmp	SHORT $LN4@getCapacit
$LN3@getCapacit:
	mov	ecx, DWORD PTR _this$[ebp]
	mov	edx, DWORD PTR [ecx+16]
	mov	DWORD PTR tv69[ebp], edx
$LN4@getCapacit:
	mov	eax, DWORD PTR tv69[ebp]
; Line 264
	pop	edi
	pop	esi
	pop	ebx
	mov	esp, ebp
	pop	ebp
	ret	0
?getCapacity@CollationKey@icu_56@@ABEHXZ ENDP		; icu_56::CollationKey::getCapacity
_TEXT	ENDS
PUBLIC	?getLength@CollationKey@icu_56@@ABEHXZ		; icu_56::CollationKey::getLength
; Function compile flags: /Odtp /RTCsu /ZI
;	COMDAT ?getLength@CollationKey@icu_56@@ABEHXZ
_TEXT	SEGMENT
_this$ = -8						; size = 4
?getLength@CollationKey@icu_56@@ABEHXZ PROC		; icu_56::CollationKey::getLength, COMDAT
; _this$ = ecx
; Line 265
	push	ebp
	mov	ebp, esp
	sub	esp, 204				; 000000ccH
	push	ebx
	push	esi
	push	edi
	push	ecx
	lea	edi, DWORD PTR [ebp-204]
	mov	ecx, 51					; 00000033H
	mov	eax, -858993460				; ccccccccH
	rep stosd
	pop	ecx
	mov	DWORD PTR _this$[ebp], ecx
	mov	eax, DWORD PTR _this$[ebp]
	mov	eax, DWORD PTR [eax+4]
	and	eax, 2147483647				; 7fffffffH
	pop	edi
	pop	esi
	pop	ebx
	mov	esp, ebp
	pop	ebp
	ret	0
?getLength@CollationKey@icu_56@@ABEHXZ ENDP		; icu_56::CollationKey::getLength
_TEXT	ENDS
PUBLIC	??1CollationKey@icu_56@@UAE@XZ			; icu_56::CollationKey::~CollationKey
PUBLIC	??_GCollationKey@icu_56@@UAEPAXI@Z		; icu_56::CollationKey::`scalar deleting destructor'
; Function compile flags: /Odtp /RTCsu /ZI
;	COMDAT ??_GCollationKey@icu_56@@UAEPAXI@Z
_TEXT	SEGMENT
_this$ = -8						; size = 4
___flags$ = 8						; size = 4
??_GCollationKey@icu_56@@UAEPAXI@Z PROC			; icu_56::CollationKey::`scalar deleting destructor', COMDAT
; _this$ = ecx
	push	ebp
	mov	ebp, esp
	sub	esp, 204				; 000000ccH
	push	ebx
	push	esi
	push	edi
	push	ecx
	lea	edi, DWORD PTR [ebp-204]
	mov	ecx, 51					; 00000033H
	mov	eax, -858993460				; ccccccccH
	rep stosd
	pop	ecx
	mov	DWORD PTR _this$[ebp], ecx
	mov	ecx, DWORD PTR _this$[ebp]
	call	??1CollationKey@icu_56@@UAE@XZ		; icu_56::CollationKey::~CollationKey
	mov	eax, DWORD PTR ___flags$[ebp]
	and	eax, 1
	je	SHORT $LN1@scalar@2
	mov	esi, esp
	mov	eax, DWORD PTR _this$[ebp]
	push	eax
	call	DWORD PTR __imp_??3UMemory@icu_56@@SAXPAX@Z
	add	esp, 4
	cmp	esi, esp
	call	__RTC_CheckEsp
$LN1@scalar@2:
	mov	eax, DWORD PTR _this$[ebp]
	pop	edi
	pop	esi
	pop	ebx
	add	esp, 204				; 000000ccH
	cmp	ebp, esp
	call	__RTC_CheckEsp
	mov	esp, ebp
	pop	ebp
	ret	4
??_GCollationKey@icu_56@@UAEPAXI@Z ENDP			; icu_56::CollationKey::`scalar deleting destructor'
_TEXT	ENDS
PUBLIC	??_ECollationKey@icu_56@@UAEPAXI@Z		; icu_56::CollationKey::`vector deleting destructor'
; Function compile flags: /Odtp /RTCsu /ZI
;	COMDAT ??_ECollationKey@icu_56@@UAEPAXI@Z
_TEXT	SEGMENT
_this$ = -8						; size = 4
___flags$ = 8						; size = 4
??_ECollationKey@icu_56@@UAEPAXI@Z PROC			; icu_56::CollationKey::`vector deleting destructor', COMDAT
; _this$ = ecx
	push	ebp
	mov	ebp, esp
	sub	esp, 204				; 000000ccH
	push	ebx
	push	esi
	push	edi
	push	ecx
	lea	edi, DWORD PTR [ebp-204]
	mov	ecx, 51					; 00000033H
	mov	eax, -858993460				; ccccccccH
	rep stosd
	pop	ecx
	mov	DWORD PTR _this$[ebp], ecx
	mov	eax, DWORD PTR ___flags$[ebp]
	and	eax, 2
	je	SHORT $LN3@vector@2
	push	OFFSET ??1CollationKey@icu_56@@UAE@XZ	; icu_56::CollationKey::~CollationKey
	mov	eax, DWORD PTR _this$[ebp]
	mov	ecx, DWORD PTR [eax-4]
	push	ecx
	push	44					; 0000002cH
	mov	edx, DWORD PTR _this$[ebp]
	push	edx
	call	??_M@YGXPAXIHP6EX0@Z@Z
	mov	eax, DWORD PTR ___flags$[ebp]
	and	eax, 1
	je	SHORT $LN2@vector@2
	mov	eax, DWORD PTR _this$[ebp]
	sub	eax, 4
	mov	esi, esp
	push	eax
	call	DWORD PTR __imp_??_VUMemory@icu_56@@SAXPAX@Z
	add	esp, 4
	cmp	esi, esp
	call	__RTC_CheckEsp
$LN2@vector@2:
	mov	eax, DWORD PTR _this$[ebp]
	sub	eax, 4
	jmp	SHORT $LN4@vector@2
$LN3@vector@2:
	mov	ecx, DWORD PTR _this$[ebp]
	call	??1CollationKey@icu_56@@UAE@XZ		; icu_56::CollationKey::~CollationKey
	mov	eax, DWORD PTR ___flags$[ebp]
	and	eax, 1
	je	SHORT $LN1@vector@2
	mov	esi, esp
	mov	eax, DWORD PTR _this$[ebp]
	push	eax
	call	DWORD PTR __imp_??3UMemory@icu_56@@SAXPAX@Z
	add	esp, 4
	cmp	esi, esp
	call	__RTC_CheckEsp
$LN1@vector@2:
	mov	eax, DWORD PTR _this$[ebp]
$LN4@vector@2:
	pop	edi
	pop	esi
	pop	ebx
	add	esp, 204				; 000000ccH
	cmp	ebp, esp
	call	__RTC_CheckEsp
	mov	esp, ebp
	pop	ebp
	ret	4
??_ECollationKey@icu_56@@UAEPAXI@Z ENDP			; icu_56::CollationKey::`vector deleting destructor'
_TEXT	ENDS
PUBLIC	??8CollationKey@icu_56@@QBECABV01@@Z		; icu_56::CollationKey::operator==
PUBLIC	??9CollationKey@icu_56@@QBECABV01@@Z		; icu_56::CollationKey::operator!=
; Function compile flags: /Odtp /RTCsu /ZI
;	COMDAT ??9CollationKey@icu_56@@QBECABV01@@Z
_TEXT	SEGMENT
_this$ = -8						; size = 4
_other$ = 8						; size = 4
??9CollationKey@icu_56@@QBECABV01@@Z PROC		; icu_56::CollationKey::operator!=, COMDAT
; _this$ = ecx
; Line 317
	push	ebp
	mov	ebp, esp
	sub	esp, 204				; 000000ccH
	push	ebx
	push	esi
	push	edi
	push	ecx
	lea	edi, DWORD PTR [ebp-204]
	mov	ecx, 51					; 00000033H
	mov	eax, -858993460				; ccccccccH
	rep stosd
	pop	ecx
	mov	DWORD PTR _this$[ebp], ecx
; Line 318
	mov	eax, DWORD PTR _other$[ebp]
	push	eax
	mov	ecx, DWORD PTR _this$[ebp]
	call	??8CollationKey@icu_56@@QBECABV01@@Z	; icu_56::CollationKey::operator==
	movsx	ecx, al
	test	ecx, ecx
	sete	al
; Line 319
	pop	edi
	pop	esi
	pop	ebx
	add	esp, 204				; 000000ccH
	cmp	ebp, esp
	call	__RTC_CheckEsp
	mov	esp, ebp
	pop	ebp
	ret	4
??9CollationKey@icu_56@@QBECABV01@@Z ENDP		; icu_56::CollationKey::operator!=
_TEXT	ENDS
PUBLIC	?isBogus@CollationKey@icu_56@@QBECXZ		; icu_56::CollationKey::isBogus
; Function compile flags: /Odtp /RTCsu /ZI
;	COMDAT ?isBogus@CollationKey@icu_56@@QBECXZ
_TEXT	SEGMENT
_this$ = -8						; size = 4
?isBogus@CollationKey@icu_56@@QBECXZ PROC		; icu_56::CollationKey::isBogus, COMDAT
; _this$ = ecx
; Line 323
	push	ebp
	mov	ebp, esp
	sub	esp, 204				; 000000ccH
	push	ebx
	push	esi
	push	edi
	push	ecx
	lea	edi, DWORD PTR [ebp-204]
	mov	ecx, 51					; 00000033H
	mov	eax, -858993460				; ccccccccH
	rep stosd
	pop	ecx
	mov	DWORD PTR _this$[ebp], ecx
; Line 324
	mov	eax, DWORD PTR _this$[ebp]
	cmp	DWORD PTR [eax+8], 2
	sete	al
; Line 325
	pop	edi
	pop	esi
	pop	ebx
	mov	esp, ebp
	pop	ebp
	ret	0
?isBogus@CollationKey@icu_56@@QBECXZ ENDP		; icu_56::CollationKey::isBogus
_TEXT	ENDS
PUBLIC	?getByteArray@CollationKey@icu_56@@QBEPBEAAH@Z	; icu_56::CollationKey::getByteArray
; Function compile flags: /Odtp /RTCsu /ZI
;	COMDAT ?getByteArray@CollationKey@icu_56@@QBEPBEAAH@Z
_TEXT	SEGMENT
_this$ = -8						; size = 4
_count$ = 8						; size = 4
?getByteArray@CollationKey@icu_56@@QBEPBEAAH@Z PROC	; icu_56::CollationKey::getByteArray, COMDAT
; _this$ = ecx
; Line 329
	push	ebp
	mov	ebp, esp
	sub	esp, 204				; 000000ccH
	push	ebx
	push	esi
	push	edi
	push	ecx
	lea	edi, DWORD PTR [ebp-204]
	mov	ecx, 51					; 00000033H
	mov	eax, -858993460				; ccccccccH
	rep stosd
	pop	ecx
	mov	DWORD PTR _this$[ebp], ecx
; Line 330
	mov	ecx, DWORD PTR _this$[ebp]
	call	?getLength@CollationKey@icu_56@@ABEHXZ	; icu_56::CollationKey::getLength
	mov	ecx, DWORD PTR _count$[ebp]
	mov	DWORD PTR [ecx], eax
; Line 331
	mov	ecx, DWORD PTR _this$[ebp]
	call	?getBytes@CollationKey@icu_56@@ABEPBEXZ	; icu_56::CollationKey::getBytes
; Line 332
	pop	edi
	pop	esi
	pop	ebx
	add	esp, 204				; 000000ccH
	cmp	ebp, esp
	call	__RTC_CheckEsp
	mov	esp, ebp
	pop	ebp
	ret	4
?getByteArray@CollationKey@icu_56@@QBEPBEAAH@Z ENDP	; icu_56::CollationKey::getByteArray
_TEXT	ENDS
PUBLIC	?getStaticClassID@CollationKey@icu_56@@SAPAXXZ	; icu_56::CollationKey::getStaticClassID
; Function compile flags: /Odtp /RTCsu /ZI
;	COMDAT ?getStaticClassID@CollationKey@icu_56@@SAPAXXZ
_TEXT	SEGMENT
?getStaticClassID@CollationKey@icu_56@@SAPAXXZ PROC	; icu_56::CollationKey::getStaticClassID, COMDAT
; File d:\mozilla\intl\icu\source\i18n\sortkey.cpp
; Line 49
	push	ebp
	mov	ebp, esp
	sub	esp, 192				; 000000c0H
	push	ebx
	push	esi
	push	edi
	lea	edi, DWORD PTR [ebp-192]
	mov	ecx, 48					; 00000030H
	mov	eax, -858993460				; ccccccccH
	rep stosd
	mov	eax, OFFSET ?classID@?1??getStaticClassID@CollationKey@icu_56@@SAPAXXZ@4DA
	pop	edi
	pop	esi
	pop	ebx
	mov	esp, ebp
	pop	ebp
	ret	0
?getStaticClassID@CollationKey@icu_56@@SAPAXXZ ENDP	; icu_56::CollationKey::getStaticClassID
_TEXT	ENDS
PUBLIC	?getDynamicClassID@CollationKey@icu_56@@UBEPAXXZ ; icu_56::CollationKey::getDynamicClassID
; Function compile flags: /Odtp /RTCsu /ZI
;	COMDAT ?getDynamicClassID@CollationKey@icu_56@@UBEPAXXZ
_TEXT	SEGMENT
_this$ = -8						; size = 4
?getDynamicClassID@CollationKey@icu_56@@UBEPAXXZ PROC	; icu_56::CollationKey::getDynamicClassID, COMDAT
; _this$ = ecx
; Line 49
	push	ebp
	mov	ebp, esp
	sub	esp, 204				; 000000ccH
	push	ebx
	push	esi
	push	edi
	push	ecx
	lea	edi, DWORD PTR [ebp-204]
	mov	ecx, 51					; 00000033H
	mov	eax, -858993460				; ccccccccH
	rep stosd
	pop	ecx
	mov	DWORD PTR _this$[ebp], ecx
	call	?getStaticClassID@CollationKey@icu_56@@SAPAXXZ ; icu_56::CollationKey::getStaticClassID
	pop	edi
	pop	esi
	pop	ebx
	add	esp, 204				; 000000ccH
	cmp	ebp, esp
	call	__RTC_CheckEsp
	mov	esp, ebp
	pop	ebp
	ret	0
?getDynamicClassID@CollationKey@icu_56@@UBEPAXXZ ENDP	; icu_56::CollationKey::getDynamicClassID
_TEXT	ENDS
PUBLIC	??_7CollationKey@icu_56@@6B@			; icu_56::CollationKey::`vftable'
PUBLIC	??0CollationKey@icu_56@@QAE@XZ			; icu_56::CollationKey::CollationKey
PUBLIC	??_R4CollationKey@icu_56@@6B@			; icu_56::CollationKey::`RTTI Complete Object Locator'
PUBLIC	??_R0?AVCollationKey@icu_56@@@8			; icu_56::CollationKey `RTTI Type Descriptor'
PUBLIC	??_R3CollationKey@icu_56@@8			; icu_56::CollationKey::`RTTI Class Hierarchy Descriptor'
PUBLIC	??_R2CollationKey@icu_56@@8			; icu_56::CollationKey::`RTTI Base Class Array'
PUBLIC	??_R1A@?0A@EA@CollationKey@icu_56@@8		; icu_56::CollationKey::`RTTI Base Class Descriptor at (0,-1,0,64)'
;	COMDAT ??_R1A@?0A@EA@CollationKey@icu_56@@8
rdata$r	SEGMENT
??_R1A@?0A@EA@CollationKey@icu_56@@8 DD FLAT:??_R0?AVCollationKey@icu_56@@@8 ; icu_56::CollationKey::`RTTI Base Class Descriptor at (0,-1,0,64)'
	DD	02H
	DD	00H
	DD	0ffffffffH
	DD	00H
	DD	040H
	DD	FLAT:??_R3CollationKey@icu_56@@8
rdata$r	ENDS
;	COMDAT ??_R2CollationKey@icu_56@@8
rdata$r	SEGMENT
??_R2CollationKey@icu_56@@8 DD FLAT:??_R1A@?0A@EA@CollationKey@icu_56@@8 ; icu_56::CollationKey::`RTTI Base Class Array'
	DD	FLAT:??_R1A@?0A@EA@UObject@icu_56@@8
	DD	FLAT:??_R13?0A@EA@UMemory@icu_56@@8
rdata$r	ENDS
;	COMDAT ??_R3CollationKey@icu_56@@8
rdata$r	SEGMENT
??_R3CollationKey@icu_56@@8 DD 00H			; icu_56::CollationKey::`RTTI Class Hierarchy Descriptor'
	DD	00H
	DD	03H
	DD	FLAT:??_R2CollationKey@icu_56@@8
rdata$r	ENDS
;	COMDAT ??_R0?AVCollationKey@icu_56@@@8
_DATA	SEGMENT
??_R0?AVCollationKey@icu_56@@@8 DD FLAT:??_7type_info@@6B@ ; icu_56::CollationKey `RTTI Type Descriptor'
	DD	00H
	DB	'.?AVCollationKey@icu_56@@', 00H
_DATA	ENDS
;	COMDAT ??_R4CollationKey@icu_56@@6B@
rdata$r	SEGMENT
??_R4CollationKey@icu_56@@6B@ DD 00H			; icu_56::CollationKey::`RTTI Complete Object Locator'
	DD	00H
	DD	00H
	DD	FLAT:??_R0?AVCollationKey@icu_56@@@8
	DD	FLAT:??_R3CollationKey@icu_56@@8
rdata$r	ENDS
;	COMDAT ??_7CollationKey@icu_56@@6B@
CONST	SEGMENT
??_7CollationKey@icu_56@@6B@ DD FLAT:??_R4CollationKey@icu_56@@6B@ ; icu_56::CollationKey::`vftable'
	DD	FLAT:??_ECollationKey@icu_56@@UAEPAXI@Z
	DD	FLAT:?getDynamicClassID@CollationKey@icu_56@@UBEPAXXZ
; Function compile flags: /Odtp /RTCsu /ZI
CONST	ENDS
;	COMDAT ??0CollationKey@icu_56@@QAE@XZ
_TEXT	SEGMENT
_this$ = -8						; size = 4
??0CollationKey@icu_56@@QAE@XZ PROC			; icu_56::CollationKey::CollationKey, COMDAT
; _this$ = ecx
; Line 54
	push	ebp
	mov	ebp, esp
	sub	esp, 204				; 000000ccH
	push	ebx
	push	esi
	push	edi
	push	ecx
	lea	edi, DWORD PTR [ebp-204]
	mov	ecx, 51					; 00000033H
	mov	eax, -858993460				; ccccccccH
	rep stosd
	pop	ecx
	mov	DWORD PTR _this$[ebp], ecx
	mov	esi, esp
	mov	ecx, DWORD PTR _this$[ebp]
	call	DWORD PTR __imp_??0UObject@icu_56@@QAE@XZ
	cmp	esi, esp
	call	__RTC_CheckEsp
	mov	eax, DWORD PTR _this$[ebp]
	mov	DWORD PTR [eax], OFFSET ??_7CollationKey@icu_56@@6B@
	mov	eax, DWORD PTR _this$[ebp]
	mov	DWORD PTR [eax+4], 0
	mov	eax, DWORD PTR _this$[ebp]
	mov	DWORD PTR [eax+8], 1
; Line 55
	mov	eax, DWORD PTR _this$[ebp]
	pop	edi
	pop	esi
	pop	ebx
	add	esp, 204				; 000000ccH
	cmp	ebp, esp
	call	__RTC_CheckEsp
	mov	esp, ebp
	pop	ebp
	ret	0
??0CollationKey@icu_56@@QAE@XZ ENDP			; icu_56::CollationKey::CollationKey
_TEXT	ENDS
PUBLIC	?setToBogus@CollationKey@icu_56@@AAEAAV12@XZ	; icu_56::CollationKey::setToBogus
PUBLIC	?reallocate@CollationKey@icu_56@@AAEPAEHH@Z	; icu_56::CollationKey::reallocate
PUBLIC	??0CollationKey@icu_56@@QAE@PBEH@Z		; icu_56::CollationKey::CollationKey
EXTRN	__imp_??1UObject@icu_56@@UAE@XZ:PROC
EXTRN	_memcpy:PROC
EXTRN	_uprv_checkValidMemory:PROC
EXTRN	___security_cookie:DWORD
EXTRN	___CxxFrameHandler3:PROC
EXTRN	@__security_check_cookie@4:PROC
;	COMDAT xdata$x
xdata$x	SEGMENT
__unwindtable$??0CollationKey@icu_56@@QAE@PBEH@Z DD 0ffffffffH
	DD	FLAT:__unwindfunclet$??0CollationKey@icu_56@@QAE@PBEH@Z$0
__ehfuncinfo$??0CollationKey@icu_56@@QAE@PBEH@Z DD 019930522H
	DD	01H
	DD	FLAT:__unwindtable$??0CollationKey@icu_56@@QAE@PBEH@Z
	DD	2 DUP(00H)
	DD	2 DUP(00H)
	DD	00H
	DD	01H
; Function compile flags: /Odtp /RTCsu /ZI
xdata$x	ENDS
;	COMDAT ??0CollationKey@icu_56@@QAE@PBEH@Z
_TEXT	SEGMENT
_this$ = -20						; size = 4
__$EHRec$ = -12						; size = 12
_newValues$ = 8						; size = 4
_count$ = 12						; size = 4
??0CollationKey@icu_56@@QAE@PBEH@Z PROC			; icu_56::CollationKey::CollationKey, COMDAT
; _this$ = ecx
; Line 61
	push	ebp
	mov	ebp, esp
	push	-1
	push	__ehhandler$??0CollationKey@icu_56@@QAE@PBEH@Z
	mov	eax, DWORD PTR fs:0
	push	eax
	sub	esp, 204				; 000000ccH
	push	ebx
	push	esi
	push	edi
	push	ecx
	lea	edi, DWORD PTR [ebp-216]
	mov	ecx, 51					; 00000033H
	mov	eax, -858993460				; ccccccccH
	rep stosd
	pop	ecx
	mov	eax, DWORD PTR ___security_cookie
	xor	eax, ebp
	push	eax
	lea	eax, DWORD PTR __$EHRec$[ebp]
	mov	DWORD PTR fs:0, eax
	mov	DWORD PTR _this$[ebp], ecx
	mov	esi, esp
	mov	ecx, DWORD PTR _this$[ebp]
	call	DWORD PTR __imp_??0UObject@icu_56@@QAE@XZ
	cmp	esi, esp
	call	__RTC_CheckEsp
	mov	DWORD PTR __$EHRec$[ebp+8], 0
	mov	eax, DWORD PTR _this$[ebp]
	mov	DWORD PTR [eax], OFFSET ??_7CollationKey@icu_56@@6B@
	mov	eax, DWORD PTR _this$[ebp]
	mov	ecx, DWORD PTR _count$[ebp]
	mov	DWORD PTR [eax+4], ecx
	mov	eax, DWORD PTR _this$[ebp]
	mov	DWORD PTR [eax+8], 0
; Line 63
	cmp	DWORD PTR _count$[ebp], 0
	jl	SHORT $LN3@CollationK
	cmp	DWORD PTR _newValues$[ebp], 0
	jne	SHORT $LN2@CollationK
	cmp	DWORD PTR _count$[ebp], 0
	jne	SHORT $LN3@CollationK
$LN2@CollationK:
	mov	ecx, DWORD PTR _this$[ebp]
	call	?getCapacity@CollationKey@icu_56@@ABEHXZ ; icu_56::CollationKey::getCapacity
	cmp	DWORD PTR _count$[ebp], eax
	jle	SHORT $LN4@CollationK
	push	0
	mov	eax, DWORD PTR _count$[ebp]
	push	eax
	mov	ecx, DWORD PTR _this$[ebp]
	call	?reallocate@CollationKey@icu_56@@AAEPAEHH@Z ; icu_56::CollationKey::reallocate
	test	eax, eax
	jne	SHORT $LN4@CollationK
$LN3@CollationK:
; Line 64
	mov	ecx, DWORD PTR _this$[ebp]
	call	?setToBogus@CollationKey@icu_56@@AAEAAV12@XZ ; icu_56::CollationKey::setToBogus
; Line 65
	jmp	SHORT $LN5@CollationK
$LN4@CollationK:
; Line 68
	cmp	DWORD PTR _count$[ebp], 0
	jle	SHORT $LN5@CollationK
; Line 69
	push	1
	mov	eax, DWORD PTR _newValues$[ebp]
	push	eax
	call	_uprv_checkValidMemory
	add	esp, 8
	mov	ecx, DWORD PTR _count$[ebp]
	push	ecx
	mov	edx, DWORD PTR _newValues$[ebp]
	push	edx
	mov	ecx, DWORD PTR _this$[ebp]
	call	?getBytes@CollationKey@icu_56@@AAEPAEXZ	; icu_56::CollationKey::getBytes
	push	eax
	call	_memcpy
	add	esp, 12					; 0000000cH
$LN5@CollationK:
; Line 71
	mov	DWORD PTR __$EHRec$[ebp+8], -1
	mov	eax, DWORD PTR _this$[ebp]
	mov	ecx, DWORD PTR __$EHRec$[ebp]
	mov	DWORD PTR fs:0, ecx
	pop	ecx
	pop	edi
	pop	esi
	pop	ebx
	add	esp, 216				; 000000d8H
	cmp	ebp, esp
	call	__RTC_CheckEsp
	mov	esp, ebp
	pop	ebp
	ret	8
_TEXT	ENDS
;	COMDAT text$x
text$x	SEGMENT
__unwindfunclet$??0CollationKey@icu_56@@QAE@PBEH@Z$0:
	mov	esi, esp
	mov	ecx, DWORD PTR _this$[ebp]
	call	DWORD PTR __imp_??1UObject@icu_56@@UAE@XZ
	cmp	esi, esp
	jmp	__RTC_CheckEsp
__ehhandler$??0CollationKey@icu_56@@QAE@PBEH@Z:
	mov	edx, DWORD PTR [esp+8]
	lea	eax, DWORD PTR [edx+12]
	mov	ecx, DWORD PTR [edx-220]
	xor	ecx, eax
	call	@__security_check_cookie@4
	mov	eax, OFFSET __ehfuncinfo$??0CollationKey@icu_56@@QAE@PBEH@Z
	jmp	___CxxFrameHandler3
text$x	ENDS
??0CollationKey@icu_56@@QAE@PBEH@Z ENDP			; icu_56::CollationKey::CollationKey
PUBLIC	??0CollationKey@icu_56@@QAE@ABV01@@Z		; icu_56::CollationKey::CollationKey
;	COMDAT xdata$x
xdata$x	SEGMENT
__unwindtable$??0CollationKey@icu_56@@QAE@ABV01@@Z DD 0ffffffffH
	DD	FLAT:__unwindfunclet$??0CollationKey@icu_56@@QAE@ABV01@@Z$0
__ehfuncinfo$??0CollationKey@icu_56@@QAE@ABV01@@Z DD 019930522H
	DD	01H
	DD	FLAT:__unwindtable$??0CollationKey@icu_56@@QAE@ABV01@@Z
	DD	2 DUP(00H)
	DD	2 DUP(00H)
	DD	00H
	DD	01H
; Function compile flags: /Odtp /RTCsu /ZI
xdata$x	ENDS
;	COMDAT ??0CollationKey@icu_56@@QAE@ABV01@@Z
_TEXT	SEGMENT
_length$ = -32						; size = 4
_this$ = -20						; size = 4
__$EHRec$ = -12						; size = 12
_other$ = 8						; size = 4
??0CollationKey@icu_56@@QAE@ABV01@@Z PROC		; icu_56::CollationKey::CollationKey, COMDAT
; _this$ = ecx
; Line 76
	push	ebp
	mov	ebp, esp
	push	-1
	push	__ehhandler$??0CollationKey@icu_56@@QAE@ABV01@@Z
	mov	eax, DWORD PTR fs:0
	push	eax
	sub	esp, 216				; 000000d8H
	push	ebx
	push	esi
	push	edi
	push	ecx
	lea	edi, DWORD PTR [ebp-228]
	mov	ecx, 54					; 00000036H
	mov	eax, -858993460				; ccccccccH
	rep stosd
	pop	ecx
	mov	eax, DWORD PTR ___security_cookie
	xor	eax, ebp
	push	eax
	lea	eax, DWORD PTR __$EHRec$[ebp]
	mov	DWORD PTR fs:0, eax
	mov	DWORD PTR _this$[ebp], ecx
	mov	esi, esp
	mov	eax, DWORD PTR _other$[ebp]
	push	eax
	mov	ecx, DWORD PTR _this$[ebp]
	call	DWORD PTR __imp_??0UObject@icu_56@@QAE@ABV01@@Z
	cmp	esi, esp
	call	__RTC_CheckEsp
	mov	DWORD PTR __$EHRec$[ebp+8], 0
	mov	eax, DWORD PTR _this$[ebp]
	mov	DWORD PTR [eax], OFFSET ??_7CollationKey@icu_56@@6B@
	mov	ecx, DWORD PTR _other$[ebp]
	call	?getLength@CollationKey@icu_56@@ABEHXZ	; icu_56::CollationKey::getLength
	mov	ecx, DWORD PTR _this$[ebp]
	mov	DWORD PTR [ecx+4], eax
	mov	eax, DWORD PTR _this$[ebp]
	mov	ecx, DWORD PTR _other$[ebp]
	mov	edx, DWORD PTR [ecx+8]
	mov	DWORD PTR [eax+8], edx
; Line 77
	mov	ecx, DWORD PTR _other$[ebp]
	call	?isBogus@CollationKey@icu_56@@QBECXZ	; icu_56::CollationKey::isBogus
	movsx	eax, al
	test	eax, eax
	je	SHORT $LN3@CollationK@2
; Line 79
	mov	ecx, DWORD PTR _this$[ebp]
	call	?setToBogus@CollationKey@icu_56@@AAEAAV12@XZ ; icu_56::CollationKey::setToBogus
; Line 80
	jmp	SHORT $LN4@CollationK@2
$LN3@CollationK@2:
; Line 83
	mov	eax, DWORD PTR _this$[ebp]
	mov	ecx, DWORD PTR [eax+4]
	mov	DWORD PTR _length$[ebp], ecx
; Line 84
	mov	ecx, DWORD PTR _this$[ebp]
	call	?getCapacity@CollationKey@icu_56@@ABEHXZ ; icu_56::CollationKey::getCapacity
	cmp	DWORD PTR _length$[ebp], eax
	jle	SHORT $LN2@CollationK@2
	push	0
	mov	eax, DWORD PTR _length$[ebp]
	push	eax
	mov	ecx, DWORD PTR _this$[ebp]
	call	?reallocate@CollationKey@icu_56@@AAEPAEHH@Z ; icu_56::CollationKey::reallocate
	test	eax, eax
	jne	SHORT $LN2@CollationK@2
; Line 85
	mov	ecx, DWORD PTR _this$[ebp]
	call	?setToBogus@CollationKey@icu_56@@AAEAAV12@XZ ; icu_56::CollationKey::setToBogus
; Line 86
	jmp	SHORT $LN4@CollationK@2
$LN2@CollationK@2:
; Line 89
	cmp	DWORD PTR _length$[ebp], 0
	jle	SHORT $LN4@CollationK@2
; Line 90
	push	1
	mov	ecx, DWORD PTR _other$[ebp]
	call	?getBytes@CollationKey@icu_56@@ABEPBEXZ	; icu_56::CollationKey::getBytes
	push	eax
	call	_uprv_checkValidMemory
	add	esp, 8
	mov	eax, DWORD PTR _length$[ebp]
	push	eax
	mov	ecx, DWORD PTR _other$[ebp]
	call	?getBytes@CollationKey@icu_56@@ABEPBEXZ	; icu_56::CollationKey::getBytes
	push	eax
	mov	ecx, DWORD PTR _this$[ebp]
	call	?getBytes@CollationKey@icu_56@@AAEPAEXZ	; icu_56::CollationKey::getBytes
	push	eax
	call	_memcpy
	add	esp, 12					; 0000000cH
$LN4@CollationK@2:
; Line 92
	mov	DWORD PTR __$EHRec$[ebp+8], -1
	mov	eax, DWORD PTR _this$[ebp]
	mov	ecx, DWORD PTR __$EHRec$[ebp]
	mov	DWORD PTR fs:0, ecx
	pop	ecx
	pop	edi
	pop	esi
	pop	ebx
	add	esp, 228				; 000000e4H
	cmp	ebp, esp
	call	__RTC_CheckEsp
	mov	esp, ebp
	pop	ebp
	ret	4
_TEXT	ENDS
;	COMDAT text$x
text$x	SEGMENT
__unwindfunclet$??0CollationKey@icu_56@@QAE@ABV01@@Z$0:
	mov	esi, esp
	mov	ecx, DWORD PTR _this$[ebp]
	call	DWORD PTR __imp_??1UObject@icu_56@@UAE@XZ
	cmp	esi, esp
	jmp	__RTC_CheckEsp
__ehhandler$??0CollationKey@icu_56@@QAE@ABV01@@Z:
	mov	edx, DWORD PTR [esp+8]
	lea	eax, DWORD PTR [edx+12]
	mov	ecx, DWORD PTR [edx-232]
	xor	ecx, eax
	call	@__security_check_cookie@4
	mov	eax, OFFSET __ehfuncinfo$??0CollationKey@icu_56@@QAE@ABV01@@Z
	jmp	___CxxFrameHandler3
text$x	ENDS
??0CollationKey@icu_56@@QAE@ABV01@@Z ENDP		; icu_56::CollationKey::CollationKey
EXTRN	_uprv_free_56:PROC
; Function compile flags: /Odtp /RTCsu /ZI
;	COMDAT ??1CollationKey@icu_56@@UAE@XZ
_TEXT	SEGMENT
_this$ = -8						; size = 4
??1CollationKey@icu_56@@UAE@XZ PROC			; icu_56::CollationKey::~CollationKey, COMDAT
; _this$ = ecx
; Line 95
	push	ebp
	mov	ebp, esp
	sub	esp, 204				; 000000ccH
	push	ebx
	push	esi
	push	edi
	push	ecx
	lea	edi, DWORD PTR [ebp-204]
	mov	ecx, 51					; 00000033H
	mov	eax, -858993460				; ccccccccH
	rep stosd
	pop	ecx
	mov	DWORD PTR _this$[ebp], ecx
	mov	eax, DWORD PTR _this$[ebp]
	mov	DWORD PTR [eax], OFFSET ??_7CollationKey@icu_56@@6B@
; Line 96
	mov	eax, DWORD PTR _this$[ebp]
	cmp	DWORD PTR [eax+4], 0
	jge	SHORT $LN2@CollationK@3
	mov	eax, DWORD PTR _this$[ebp]
	mov	ecx, DWORD PTR [eax+12]
	push	ecx
	call	_uprv_free_56
	add	esp, 4
$LN2@CollationK@3:
; Line 97
	mov	esi, esp
	mov	ecx, DWORD PTR _this$[ebp]
	call	DWORD PTR __imp_??1UObject@icu_56@@UAE@XZ
	cmp	esi, esp
	call	__RTC_CheckEsp
	pop	edi
	pop	esi
	pop	ebx
	add	esp, 204				; 000000ccH
	cmp	ebp, esp
	call	__RTC_CheckEsp
	mov	esp, ebp
	pop	ebp
	ret	0
??1CollationKey@icu_56@@UAE@XZ ENDP			; icu_56::CollationKey::~CollationKey
_TEXT	ENDS
EXTRN	_uprv_malloc_56:PROC
; Function compile flags: /Odtp /RTCsu /ZI
;	COMDAT ?reallocate@CollationKey@icu_56@@AAEPAEHH@Z
_TEXT	SEGMENT
_newBytes$ = -20					; size = 4
_this$ = -8						; size = 4
_newCapacity$ = 8					; size = 4
_length$ = 12						; size = 4
?reallocate@CollationKey@icu_56@@AAEPAEHH@Z PROC	; icu_56::CollationKey::reallocate, COMDAT
; _this$ = ecx
; Line 99
	push	ebp
	mov	ebp, esp
	sub	esp, 216				; 000000d8H
	push	ebx
	push	esi
	push	edi
	push	ecx
	lea	edi, DWORD PTR [ebp-216]
	mov	ecx, 54					; 00000036H
	mov	eax, -858993460				; ccccccccH
	rep stosd
	pop	ecx
	mov	DWORD PTR _this$[ebp], ecx
; Line 100
	mov	eax, DWORD PTR _newCapacity$[ebp]
	push	eax
	call	_uprv_malloc_56
	add	esp, 4
	mov	DWORD PTR _newBytes$[ebp], eax
; Line 101
	cmp	DWORD PTR _newBytes$[ebp], 0
	jne	SHORT $LN3@reallocate
	xor	eax, eax
	jmp	SHORT $LN4@reallocate
$LN3@reallocate:
; Line 102
	cmp	DWORD PTR _length$[ebp], 0
	jle	SHORT $LN2@reallocate
; Line 103
	push	1
	mov	ecx, DWORD PTR _this$[ebp]
	call	?getBytes@CollationKey@icu_56@@AAEPAEXZ	; icu_56::CollationKey::getBytes
	push	eax
	call	_uprv_checkValidMemory
	add	esp, 8
	mov	eax, DWORD PTR _length$[ebp]
	push	eax
	mov	ecx, DWORD PTR _this$[ebp]
	call	?getBytes@CollationKey@icu_56@@AAEPAEXZ	; icu_56::CollationKey::getBytes
	push	eax
	mov	ecx, DWORD PTR _newBytes$[ebp]
	push	ecx
	call	_memcpy
	add	esp, 12					; 0000000cH
$LN2@reallocate:
; Line 105
	mov	eax, DWORD PTR _this$[ebp]
	cmp	DWORD PTR [eax+4], 0
	jge	SHORT $LN1@reallocate
	mov	eax, DWORD PTR _this$[ebp]
	mov	ecx, DWORD PTR [eax+12]
	push	ecx
	call	_uprv_free_56
	add	esp, 4
$LN1@reallocate:
; Line 106
	mov	eax, DWORD PTR _this$[ebp]
	mov	ecx, DWORD PTR _newBytes$[ebp]
	mov	DWORD PTR [eax+12], ecx
; Line 107
	mov	eax, DWORD PTR _this$[ebp]
	mov	ecx, DWORD PTR _newCapacity$[ebp]
	mov	DWORD PTR [eax+16], ecx
; Line 108
	mov	eax, DWORD PTR _this$[ebp]
	mov	ecx, DWORD PTR [eax+4]
	or	ecx, -2147483648			; 80000000H
	mov	edx, DWORD PTR _this$[ebp]
	mov	DWORD PTR [edx+4], ecx
; Line 109
	mov	eax, DWORD PTR _newBytes$[ebp]
$LN4@reallocate:
; Line 110
	pop	edi
	pop	esi
	pop	ebx
	add	esp, 216				; 000000d8H
	cmp	ebp, esp
	call	__RTC_CheckEsp
	mov	esp, ebp
	pop	ebp
	ret	8
?reallocate@CollationKey@icu_56@@AAEPAEHH@Z ENDP	; icu_56::CollationKey::reallocate
_TEXT	ENDS
PUBLIC	?setLength@CollationKey@icu_56@@AAEXH@Z		; icu_56::CollationKey::setLength
; Function compile flags: /Odtp /RTCsu /ZI
;	COMDAT ?setLength@CollationKey@icu_56@@AAEXH@Z
_TEXT	SEGMENT
_this$ = -8						; size = 4
_newLength$ = 8						; size = 4
?setLength@CollationKey@icu_56@@AAEXH@Z PROC		; icu_56::CollationKey::setLength, COMDAT
; _this$ = ecx
; Line 112
	push	ebp
	mov	ebp, esp
	sub	esp, 204				; 000000ccH
	push	ebx
	push	esi
	push	edi
	push	ecx
	lea	edi, DWORD PTR [ebp-204]
	mov	ecx, 51					; 00000033H
	mov	eax, -858993460				; ccccccccH
	rep stosd
	pop	ecx
	mov	DWORD PTR _this$[ebp], ecx
; Line 114
	mov	eax, DWORD PTR _this$[ebp]
	mov	ecx, DWORD PTR [eax+4]
	and	ecx, -2147483648			; 80000000H
	or	ecx, DWORD PTR _newLength$[ebp]
	mov	edx, DWORD PTR _this$[ebp]
	mov	DWORD PTR [edx+4], ecx
; Line 115
	mov	eax, DWORD PTR _this$[ebp]
	mov	DWORD PTR [eax+8], 0
; Line 116
	pop	edi
	pop	esi
	pop	ebx
	mov	esp, ebp
	pop	ebp
	ret	4
?setLength@CollationKey@icu_56@@AAEXH@Z ENDP		; icu_56::CollationKey::setLength
_TEXT	ENDS
PUBLIC	?reset@CollationKey@icu_56@@AAEAAV12@XZ		; icu_56::CollationKey::reset
; Function compile flags: /Odtp /RTCsu /ZI
;	COMDAT ?reset@CollationKey@icu_56@@AAEAAV12@XZ
_TEXT	SEGMENT
_this$ = -8						; size = 4
?reset@CollationKey@icu_56@@AAEAAV12@XZ PROC		; icu_56::CollationKey::reset, COMDAT
; _this$ = ecx
; Line 121
	push	ebp
	mov	ebp, esp
	sub	esp, 204				; 000000ccH
	push	ebx
	push	esi
	push	edi
	push	ecx
	lea	edi, DWORD PTR [ebp-204]
	mov	ecx, 51					; 00000033H
	mov	eax, -858993460				; ccccccccH
	rep stosd
	pop	ecx
	mov	DWORD PTR _this$[ebp], ecx
; Line 122
	mov	eax, DWORD PTR _this$[ebp]
	mov	ecx, DWORD PTR [eax+4]
	and	ecx, -2147483648			; 80000000H
	mov	edx, DWORD PTR _this$[ebp]
	mov	DWORD PTR [edx+4], ecx
; Line 123
	mov	eax, DWORD PTR _this$[ebp]
	mov	DWORD PTR [eax+8], 1
; Line 125
	mov	eax, DWORD PTR _this$[ebp]
; Line 126
	pop	edi
	pop	esi
	pop	ebx
	mov	esp, ebp
	pop	ebp
	ret	0
?reset@CollationKey@icu_56@@AAEAAV12@XZ ENDP		; icu_56::CollationKey::reset
; Function compile flags: /Odtp /RTCsu /ZI
_TEXT	ENDS
;	COMDAT ?setToBogus@CollationKey@icu_56@@AAEAAV12@XZ
_TEXT	SEGMENT
_this$ = -8						; size = 4
?setToBogus@CollationKey@icu_56@@AAEAAV12@XZ PROC	; icu_56::CollationKey::setToBogus, COMDAT
; _this$ = ecx
; Line 131
	push	ebp
	mov	ebp, esp
	sub	esp, 204				; 000000ccH
	push	ebx
	push	esi
	push	edi
	push	ecx
	lea	edi, DWORD PTR [ebp-204]
	mov	ecx, 51					; 00000033H
	mov	eax, -858993460				; ccccccccH
	rep stosd
	pop	ecx
	mov	DWORD PTR _this$[ebp], ecx
; Line 132
	mov	eax, DWORD PTR _this$[ebp]
	mov	ecx, DWORD PTR [eax+4]
	and	ecx, -2147483648			; 80000000H
	mov	edx, DWORD PTR _this$[ebp]
	mov	DWORD PTR [edx+4], ecx
; Line 133
	mov	eax, DWORD PTR _this$[ebp]
	mov	DWORD PTR [eax+8], 2
; Line 135
	mov	eax, DWORD PTR _this$[ebp]
; Line 136
	pop	edi
	pop	esi
	pop	ebx
	mov	esp, ebp
	pop	ebp
	ret	0
?setToBogus@CollationKey@icu_56@@AAEAAV12@XZ ENDP	; icu_56::CollationKey::setToBogus
_TEXT	ENDS
EXTRN	_memcmp:PROC
; Function compile flags: /Odtp /RTCsu /ZI
;	COMDAT ??8CollationKey@icu_56@@QBECABV01@@Z
_TEXT	SEGMENT
tv81 = -205						; size = 1
_this$ = -8						; size = 4
_source$ = 8						; size = 4
??8CollationKey@icu_56@@QBECABV01@@Z PROC		; icu_56::CollationKey::operator==, COMDAT
; _this$ = ecx
; Line 140
	push	ebp
	mov	ebp, esp
	sub	esp, 208				; 000000d0H
	push	ebx
	push	esi
	push	edi
	push	ecx
	lea	edi, DWORD PTR [ebp-208]
	mov	ecx, 52					; 00000034H
	mov	eax, -858993460				; ccccccccH
	rep stosd
	pop	ecx
	mov	DWORD PTR _this$[ebp], ecx
; Line 143
	mov	ecx, DWORD PTR _this$[ebp]
	call	?getLength@CollationKey@icu_56@@ABEHXZ	; icu_56::CollationKey::getLength
	mov	esi, eax
	mov	ecx, DWORD PTR _source$[ebp]
	call	?getLength@CollationKey@icu_56@@ABEHXZ	; icu_56::CollationKey::getLength
	cmp	esi, eax
	jne	SHORT $LN4@operator
	mov	eax, DWORD PTR _this$[ebp]
	cmp	eax, DWORD PTR _source$[ebp]
	je	SHORT $LN3@operator
	mov	ecx, DWORD PTR _this$[ebp]
	call	?getLength@CollationKey@icu_56@@ABEHXZ	; icu_56::CollationKey::getLength
	push	eax
	mov	ecx, DWORD PTR _source$[ebp]
	call	?getBytes@CollationKey@icu_56@@ABEPBEXZ	; icu_56::CollationKey::getBytes
	push	eax
	mov	ecx, DWORD PTR _this$[ebp]
	call	?getBytes@CollationKey@icu_56@@ABEPBEXZ	; icu_56::CollationKey::getBytes
	push	eax
	call	_memcmp
	add	esp, 12					; 0000000cH
	test	eax, eax
	jne	SHORT $LN4@operator
$LN3@operator:
	mov	BYTE PTR tv81[ebp], 1
	jmp	SHORT $LN5@operator
$LN4@operator:
	mov	BYTE PTR tv81[ebp], 0
$LN5@operator:
	mov	al, BYTE PTR tv81[ebp]
; Line 144
	pop	edi
	pop	esi
	pop	ebx
	add	esp, 208				; 000000d0H
	cmp	ebp, esp
	call	__RTC_CheckEsp
	mov	esp, ebp
	pop	ebp
	ret	4
??8CollationKey@icu_56@@QBECABV01@@Z ENDP		; icu_56::CollationKey::operator==
_TEXT	ENDS
PUBLIC	??4CollationKey@icu_56@@QAEABV01@ABV01@@Z	; icu_56::CollationKey::operator=
; Function compile flags: /Odtp /RTCsu /ZI
;	COMDAT ??4CollationKey@icu_56@@QAEABV01@ABV01@@Z
_TEXT	SEGMENT
_length$38802 = -20					; size = 4
_this$ = -8						; size = 4
_other$ = 8						; size = 4
??4CollationKey@icu_56@@QAEABV01@ABV01@@Z PROC		; icu_56::CollationKey::operator=, COMDAT
; _this$ = ecx
; Line 148
	push	ebp
	mov	ebp, esp
	sub	esp, 216				; 000000d8H
	push	ebx
	push	esi
	push	edi
	push	ecx
	lea	edi, DWORD PTR [ebp-216]
	mov	ecx, 54					; 00000036H
	mov	eax, -858993460				; ccccccccH
	rep stosd
	pop	ecx
	mov	DWORD PTR _this$[ebp], ecx
; Line 149
	mov	eax, DWORD PTR _this$[ebp]
	cmp	eax, DWORD PTR _other$[ebp]
	je	$LN4@operator@2
; Line 151
	mov	ecx, DWORD PTR _other$[ebp]
	call	?isBogus@CollationKey@icu_56@@QBECXZ	; icu_56::CollationKey::isBogus
	movsx	eax, al
	test	eax, eax
	je	SHORT $LN3@operator@2
; Line 153
	mov	ecx, DWORD PTR _this$[ebp]
	call	?setToBogus@CollationKey@icu_56@@AAEAAV12@XZ ; icu_56::CollationKey::setToBogus
	jmp	$LN5@operator@2
$LN3@operator@2:
; Line 156
	mov	ecx, DWORD PTR _other$[ebp]
	call	?getLength@CollationKey@icu_56@@ABEHXZ	; icu_56::CollationKey::getLength
	mov	DWORD PTR _length$38802[ebp], eax
; Line 157
	mov	ecx, DWORD PTR _this$[ebp]
	call	?getCapacity@CollationKey@icu_56@@ABEHXZ ; icu_56::CollationKey::getCapacity
	cmp	DWORD PTR _length$38802[ebp], eax
	jle	SHORT $LN2@operator@2
	push	0
	mov	eax, DWORD PTR _length$38802[ebp]
	push	eax
	mov	ecx, DWORD PTR _this$[ebp]
	call	?reallocate@CollationKey@icu_56@@AAEPAEHH@Z ; icu_56::CollationKey::reallocate
	test	eax, eax
	jne	SHORT $LN2@operator@2
; Line 158
	mov	ecx, DWORD PTR _this$[ebp]
	call	?setToBogus@CollationKey@icu_56@@AAEAAV12@XZ ; icu_56::CollationKey::setToBogus
	jmp	SHORT $LN5@operator@2
$LN2@operator@2:
; Line 160
	cmp	DWORD PTR _length$38802[ebp], 0
	jle	SHORT $LN1@operator@2
; Line 161
	push	1
	mov	ecx, DWORD PTR _other$[ebp]
	call	?getBytes@CollationKey@icu_56@@ABEPBEXZ	; icu_56::CollationKey::getBytes
	push	eax
	call	_uprv_checkValidMemory
	add	esp, 8
	mov	eax, DWORD PTR _length$38802[ebp]
	push	eax
	mov	ecx, DWORD PTR _other$[ebp]
	call	?getBytes@CollationKey@icu_56@@ABEPBEXZ	; icu_56::CollationKey::getBytes
	push	eax
	mov	ecx, DWORD PTR _this$[ebp]
	call	?getBytes@CollationKey@icu_56@@AAEPAEXZ	; icu_56::CollationKey::getBytes
	push	eax
	call	_memcpy
	add	esp, 12					; 0000000cH
$LN1@operator@2:
; Line 163
	mov	eax, DWORD PTR _this$[ebp]
	mov	ecx, DWORD PTR [eax+4]
	and	ecx, -2147483648			; 80000000H
	or	ecx, DWORD PTR _length$38802[ebp]
	mov	edx, DWORD PTR _this$[ebp]
	mov	DWORD PTR [edx+4], ecx
; Line 164
	mov	eax, DWORD PTR _this$[ebp]
	mov	ecx, DWORD PTR _other$[ebp]
	mov	edx, DWORD PTR [ecx+8]
	mov	DWORD PTR [eax+8], edx
$LN4@operator@2:
; Line 167
	mov	eax, DWORD PTR _this$[ebp]
$LN5@operator@2:
; Line 168
	pop	edi
	pop	esi
	pop	ebx
	add	esp, 216				; 000000d8H
	cmp	ebp, esp
	call	__RTC_CheckEsp
	mov	esp, ebp
	pop	ebp
	ret	4
??4CollationKey@icu_56@@QAEABV01@ABV01@@Z ENDP		; icu_56::CollationKey::operator=
_TEXT	ENDS
PUBLIC	?compareTo@CollationKey@icu_56@@QBE?AW4UCollationResult@@ABV12@AAW4UErrorCode@@@Z ; icu_56::CollationKey::compareTo
PUBLIC	?compareTo@CollationKey@icu_56@@QBE?AW4EComparisonResult@Collator@2@ABV12@@Z ; icu_56::CollationKey::compareTo
EXTRN	@_RTC_CheckStackVars@8:PROC
; Function compile flags: /Odtp /RTCsu /ZI
;	COMDAT ?compareTo@CollationKey@icu_56@@QBE?AW4EComparisonResult@Collator@2@ABV12@@Z
_TEXT	SEGMENT
_errorCode$ = -20					; size = 4
_this$ = -8						; size = 4
_target$ = 8						; size = 4
?compareTo@CollationKey@icu_56@@QBE?AW4EComparisonResult@Collator@2@ABV12@@Z PROC ; icu_56::CollationKey::compareTo, COMDAT
; _this$ = ecx
; Line 173
	push	ebp
	mov	ebp, esp
	sub	esp, 216				; 000000d8H
	push	ebx
	push	esi
	push	edi
	push	ecx
	lea	edi, DWORD PTR [ebp-216]
	mov	ecx, 54					; 00000036H
	mov	eax, -858993460				; ccccccccH
	rep stosd
	pop	ecx
	mov	DWORD PTR _this$[ebp], ecx
; Line 174
	mov	DWORD PTR _errorCode$[ebp], 0
; Line 175
	lea	eax, DWORD PTR _errorCode$[ebp]
	push	eax
	mov	ecx, DWORD PTR _target$[ebp]
	push	ecx
	mov	ecx, DWORD PTR _this$[ebp]
	call	?compareTo@CollationKey@icu_56@@QBE?AW4UCollationResult@@ABV12@AAW4UErrorCode@@@Z ; icu_56::CollationKey::compareTo
; Line 176
	push	edx
	mov	ecx, ebp
	push	eax
	lea	edx, DWORD PTR $LN5@compareTo
	call	@_RTC_CheckStackVars@8
	pop	eax
	pop	edx
	pop	edi
	pop	esi
	pop	ebx
	add	esp, 216				; 000000d8H
	cmp	ebp, esp
	call	__RTC_CheckEsp
	mov	esp, ebp
	pop	ebp
	ret	4
	npad	3
$LN5@compareTo:
	DD	1
	DD	$LN4@compareTo
$LN4@compareTo:
	DD	-20					; ffffffecH
	DD	4
	DD	$LN3@compareTo
$LN3@compareTo:
	DB	101					; 00000065H
	DB	114					; 00000072H
	DB	114					; 00000072H
	DB	111					; 0000006fH
	DB	114					; 00000072H
	DB	67					; 00000043H
	DB	111					; 0000006fH
	DB	100					; 00000064H
	DB	101					; 00000065H
	DB	0
?compareTo@CollationKey@icu_56@@QBE?AW4EComparisonResult@Collator@2@ABV12@@Z ENDP ; icu_56::CollationKey::compareTo
; Function compile flags: /Odtp /RTCsu /ZI
_TEXT	ENDS
;	COMDAT ?compareTo@CollationKey@icu_56@@QBE?AW4UCollationResult@@ABV12@AAW4UErrorCode@@@Z
_TEXT	SEGMENT
_diff$38828 = -80					; size = 4
_targetLength$38822 = -68				; size = 4
_minLength$38821 = -56					; size = 4
_result$38820 = -44					; size = 4
_tgt$38818 = -32					; size = 4
_src$38817 = -20					; size = 4
_this$ = -8						; size = 4
_target$ = 8						; size = 4
_status$ = 12						; size = 4
?compareTo@CollationKey@icu_56@@QBE?AW4UCollationResult@@ABV12@AAW4UErrorCode@@@Z PROC ; icu_56::CollationKey::compareTo, COMDAT
; _this$ = ecx
; Line 181
	push	ebp
	mov	ebp, esp
	sub	esp, 276				; 00000114H
	push	ebx
	push	esi
	push	edi
	push	ecx
	lea	edi, DWORD PTR [ebp-276]
	mov	ecx, 69					; 00000045H
	mov	eax, -858993460				; ccccccccH
	rep stosd
	pop	ecx
	mov	DWORD PTR _this$[ebp], ecx
; Line 182
	mov	eax, DWORD PTR _status$[ebp]
	mov	ecx, DWORD PTR [eax]
	push	ecx
	call	?U_SUCCESS@@YACW4UErrorCode@@@Z		; U_SUCCESS
	add	esp, 4
	movsx	edx, al
	test	edx, edx
	je	$LN11@compareTo@2
; Line 183
	mov	ecx, DWORD PTR _this$[ebp]
	call	?getBytes@CollationKey@icu_56@@ABEPBEXZ	; icu_56::CollationKey::getBytes
	mov	DWORD PTR _src$38817[ebp], eax
; Line 184
	mov	ecx, DWORD PTR _target$[ebp]
	call	?getBytes@CollationKey@icu_56@@ABEPBEXZ	; icu_56::CollationKey::getBytes
	mov	DWORD PTR _tgt$38818[ebp], eax
; Line 187
	mov	eax, DWORD PTR _src$38817[ebp]
	cmp	eax, DWORD PTR _tgt$38818[ebp]
	jne	SHORT $LN10@compareTo@2
; Line 188
	xor	eax, eax
	jmp	$LN12@compareTo@2
$LN10@compareTo@2:
; Line 193
	mov	ecx, DWORD PTR _this$[ebp]
	call	?getLength@CollationKey@icu_56@@ABEHXZ	; icu_56::CollationKey::getLength
	mov	DWORD PTR _minLength$38821[ebp], eax
; Line 194
	mov	ecx, DWORD PTR _target$[ebp]
	call	?getLength@CollationKey@icu_56@@ABEHXZ	; icu_56::CollationKey::getLength
	mov	DWORD PTR _targetLength$38822[ebp], eax
; Line 195
	mov	eax, DWORD PTR _minLength$38821[ebp]
	cmp	eax, DWORD PTR _targetLength$38822[ebp]
	jge	SHORT $LN9@compareTo@2
; Line 196
	mov	DWORD PTR _result$38820[ebp], -1
	jmp	SHORT $LN8@compareTo@2
$LN9@compareTo@2:
; Line 197
	mov	eax, DWORD PTR _minLength$38821[ebp]
	cmp	eax, DWORD PTR _targetLength$38822[ebp]
	jne	SHORT $LN7@compareTo@2
; Line 198
	mov	DWORD PTR _result$38820[ebp], 0
; Line 199
	jmp	SHORT $LN8@compareTo@2
$LN7@compareTo@2:
; Line 200
	mov	eax, DWORD PTR _targetLength$38822[ebp]
	mov	DWORD PTR _minLength$38821[ebp], eax
; Line 201
	mov	DWORD PTR _result$38820[ebp], 1
$LN8@compareTo@2:
; Line 204
	cmp	DWORD PTR _minLength$38821[ebp], 0
	jle	SHORT $LN5@compareTo@2
; Line 205
	mov	eax, DWORD PTR _minLength$38821[ebp]
	push	eax
	mov	ecx, DWORD PTR _tgt$38818[ebp]
	push	ecx
	mov	edx, DWORD PTR _src$38817[ebp]
	push	edx
	call	_memcmp
	add	esp, 12					; 0000000cH
	mov	DWORD PTR _diff$38828[ebp], eax
; Line 206
	cmp	DWORD PTR _diff$38828[ebp], 0
	jle	SHORT $LN4@compareTo@2
; Line 207
	mov	eax, 1
	jmp	SHORT $LN12@compareTo@2
; Line 209
	jmp	SHORT $LN5@compareTo@2
$LN4@compareTo@2:
; Line 210
	cmp	DWORD PTR _diff$38828[ebp], 0
	jge	SHORT $LN5@compareTo@2
; Line 211
	or	eax, -1
	jmp	SHORT $LN12@compareTo@2
$LN5@compareTo@2:
; Line 215
	mov	eax, DWORD PTR _result$38820[ebp]
	jmp	SHORT $LN12@compareTo@2
; Line 216
	jmp	SHORT $LN12@compareTo@2
$LN11@compareTo@2:
; Line 217
	xor	eax, eax
$LN12@compareTo@2:
; Line 219
	pop	edi
	pop	esi
	pop	ebx
	add	esp, 276				; 00000114H
	cmp	ebp, esp
	call	__RTC_CheckEsp
	mov	esp, ebp
	pop	ebp
	ret	8
?compareTo@CollationKey@icu_56@@QBE?AW4UCollationResult@@ABV12@AAW4UErrorCode@@@Z ENDP ; icu_56::CollationKey::compareTo
; Function compile flags: /Odtp /RTCsu /ZI
_TEXT	ENDS
;	COMDAT ?U_SUCCESS@@YACW4UErrorCode@@@Z
_TEXT	SEGMENT
_code$ = 8						; size = 4
?U_SUCCESS@@YACW4UErrorCode@@@Z PROC			; U_SUCCESS, COMDAT
; File d:\mozilla\intl\icu\include\unicode\utypes.h
; Line 699
	push	ebp
	mov	ebp, esp
	sub	esp, 192				; 000000c0H
	push	ebx
	push	esi
	push	edi
	lea	edi, DWORD PTR [ebp-192]
	mov	ecx, 48					; 00000030H
	mov	eax, -858993460				; ccccccccH
	rep stosd
	cmp	DWORD PTR _code$[ebp], 0
	setle	al
	pop	edi
	pop	esi
	pop	ebx
	mov	esp, ebp
	pop	ebp
	ret	0
?U_SUCCESS@@YACW4UErrorCode@@@Z ENDP			; U_SUCCESS
_TEXT	ENDS
PUBLIC	?hashCode@CollationKey@icu_56@@QBEHXZ		; icu_56::CollationKey::hashCode
; Function compile flags: /Odtp /RTCsu /ZI
;	COMDAT ?hashCode@CollationKey@icu_56@@QBEHXZ
_TEXT	SEGMENT
_this$ = -8						; size = 4
?hashCode@CollationKey@icu_56@@QBEHXZ PROC		; icu_56::CollationKey::hashCode, COMDAT
; _this$ = ecx
; File d:\mozilla\intl\icu\source\i18n\sortkey.cpp
; Line 261
	push	ebp
	mov	ebp, esp
	sub	esp, 204				; 000000ccH
	push	ebx
	push	esi
	push	edi
	push	ecx
	lea	edi, DWORD PTR [ebp-204]
	mov	ecx, 51					; 00000033H
	mov	eax, -858993460				; ccccccccH
	rep stosd
	pop	ecx
	mov	DWORD PTR _this$[ebp], ecx
; Line 268
	mov	eax, DWORD PTR _this$[ebp]
	cmp	DWORD PTR [eax+8], 0
	jne	SHORT $LN1@hashCode
; Line 270
	mov	ecx, DWORD PTR _this$[ebp]
	call	?getLength@CollationKey@icu_56@@ABEHXZ	; icu_56::CollationKey::getLength
	push	eax
	mov	ecx, DWORD PTR _this$[ebp]
	call	?getBytes@CollationKey@icu_56@@ABEPBEXZ	; icu_56::CollationKey::getBytes
	push	eax
	call	?computeHashCode@icu_56@@YAHPBEH@Z	; icu_56::computeHashCode
	add	esp, 8
	mov	ecx, DWORD PTR _this$[ebp]
	mov	DWORD PTR [ecx+8], eax
$LN1@hashCode:
; Line 273
	mov	eax, DWORD PTR _this$[ebp]
	mov	eax, DWORD PTR [eax+8]
; Line 274
	pop	edi
	pop	esi
	pop	ebx
	add	esp, 204				; 000000ccH
	cmp	ebp, esp
	call	__RTC_CheckEsp
	mov	esp, ebp
	pop	ebp
	ret	0
?hashCode@CollationKey@icu_56@@QBEHXZ ENDP		; icu_56::CollationKey::hashCode
_TEXT	ENDS
EXTRN	_ustr_hashCharsN_56:PROC
; Function compile flags: /Odtp /RTCsu /ZI
;	COMDAT ?computeHashCode@icu_56@@YAHPBEH@Z
_TEXT	SEGMENT
_hash$ = -20						; size = 4
_s$ = -8						; size = 4
_key$ = 8						; size = 4
_length$ = 12						; size = 4
?computeHashCode@icu_56@@YAHPBEH@Z PROC			; icu_56::computeHashCode, COMDAT
; Line 245
	push	ebp
	mov	ebp, esp
	sub	esp, 216				; 000000d8H
	push	ebx
	push	esi
	push	edi
	lea	edi, DWORD PTR [ebp-216]
	mov	ecx, 54					; 00000036H
	mov	eax, -858993460				; ccccccccH
	rep stosd
; Line 246
	mov	eax, DWORD PTR _key$[ebp]
	mov	DWORD PTR _s$[ebp], eax
; Line 248
	cmp	DWORD PTR _s$[ebp], 0
	je	SHORT $LN4@computeHas
	cmp	DWORD PTR _length$[ebp], 0
	jne	SHORT $LN5@computeHas
$LN4@computeHas:
; Line 249
	mov	DWORD PTR _hash$[ebp], 1
; Line 250
	jmp	SHORT $LN3@computeHas
$LN5@computeHas:
; Line 251
	mov	eax, DWORD PTR _length$[ebp]
	push	eax
	mov	ecx, DWORD PTR _s$[ebp]
	push	ecx
	call	_ustr_hashCharsN_56
	add	esp, 8
	mov	DWORD PTR _hash$[ebp], eax
; Line 252
	cmp	DWORD PTR _hash$[ebp], 0
	je	SHORT $LN1@computeHas
	cmp	DWORD PTR _hash$[ebp], 2
	jne	SHORT $LN3@computeHas
$LN1@computeHas:
; Line 253
	mov	DWORD PTR _hash$[ebp], 1
$LN3@computeHas:
; Line 256
	mov	eax, DWORD PTR _hash$[ebp]
; Line 257
	pop	edi
	pop	esi
	pop	ebx
	add	esp, 216				; 000000d8H
	cmp	ebp, esp
	call	__RTC_CheckEsp
	mov	esp, ebp
	pop	ebp
	ret	0
?computeHashCode@icu_56@@YAHPBEH@Z ENDP			; icu_56::computeHashCode
_TEXT	ENDS
PUBLIC	_ucol_keyHashCode_56
; Function compile flags: /Odtp /RTCsu /ZI
;	COMDAT _ucol_keyHashCode_56
_TEXT	SEGMENT
_key$ = 8						; size = 4
_length$ = 12						; size = 4
_ucol_keyHashCode_56 PROC				; COMDAT
; Line 281
	push	ebp
	mov	ebp, esp
	sub	esp, 192				; 000000c0H
	push	ebx
	push	esi
	push	edi
	lea	edi, DWORD PTR [ebp-192]
	mov	ecx, 48					; 00000030H
	mov	eax, -858993460				; ccccccccH
	rep stosd
; Line 282
	mov	eax, DWORD PTR _length$[ebp]
	push	eax
	mov	ecx, DWORD PTR _key$[ebp]
	push	ecx
	call	?computeHashCode@icu_56@@YAHPBEH@Z	; icu_56::computeHashCode
	add	esp, 8
; Line 283
	pop	edi
	pop	esi
	pop	ebx
	add	esp, 192				; 000000c0H
	cmp	ebp, esp
	call	__RTC_CheckEsp
	mov	esp, ebp
	pop	ebp
	ret	0
_ucol_keyHashCode_56 ENDP
_TEXT	ENDS
END
