; Listing generated by Microsoft (R) Optimizing Compiler Version 16.00.40219.01 

	TITLE	D:\mozilla\intl\icu\source\i18n\tznames_impl.cpp
	.686P
	.XMM
	include listing.inc
	.model	flat

INCLUDELIB MSVCRTD
INCLUDELIB OLDNAMES

PUBLIC	??_C@_02FHJIFOEH@sd?$AA@			; `string'
PUBLIC	??_C@_02FCBLNKNB@ss?$AA@			; `string'
PUBLIC	??_C@_02HMLFANIE@sg?$AA@			; `string'
PUBLIC	??_C@_02EAOCLKAK@ld?$AA@			; `string'
PUBLIC	??_C@_02EFGBDOJM@ls?$AA@			; `string'
PUBLIC	??_C@_02GLMPOJMJ@lg?$AA@			; `string'
PUBLIC	?value@?$integral_constant@_N$0A@@tr1@std@@2_NB	; std::tr1::integral_constant<bool,0>::value
PUBLIC	?value@?$integral_constant@_N$00@tr1@std@@2_NB	; std::tr1::integral_constant<bool,1>::value
PUBLIC	?value@?$integral_constant@I$0A@@tr1@std@@2IB	; std::tr1::integral_constant<unsigned int,0>::value
PUBLIC	?_Rank@?$_Arithmetic_traits@_N@std@@2HB		; std::_Arithmetic_traits<bool>::_Rank
PUBLIC	?_Rank@?$_Arithmetic_traits@D@std@@2HB		; std::_Arithmetic_traits<char>::_Rank
PUBLIC	?_Rank@?$_Arithmetic_traits@C@std@@2HB		; std::_Arithmetic_traits<signed char>::_Rank
PUBLIC	?_Rank@?$_Arithmetic_traits@E@std@@2HB		; std::_Arithmetic_traits<unsigned char>::_Rank
PUBLIC	?_Rank@?$_Arithmetic_traits@F@std@@2HB		; std::_Arithmetic_traits<short>::_Rank
PUBLIC	?_Rank@?$_Arithmetic_traits@G@std@@2HB		; std::_Arithmetic_traits<unsigned short>::_Rank
PUBLIC	?_Rank@?$_Arithmetic_traits@H@std@@2HB		; std::_Arithmetic_traits<int>::_Rank
PUBLIC	?_Rank@?$_Arithmetic_traits@I@std@@2HB		; std::_Arithmetic_traits<unsigned int>::_Rank
PUBLIC	?_Rank@?$_Arithmetic_traits@J@std@@2HB		; std::_Arithmetic_traits<long>::_Rank
PUBLIC	?_Rank@?$_Arithmetic_traits@K@std@@2HB		; std::_Arithmetic_traits<unsigned long>::_Rank
PUBLIC	?_Rank@?$_Arithmetic_traits@_J@std@@2HB		; std::_Arithmetic_traits<__int64>::_Rank
PUBLIC	?_Rank@?$_Arithmetic_traits@_K@std@@2HB		; std::_Arithmetic_traits<unsigned __int64>::_Rank
PUBLIC	?_Rank@?$_Arithmetic_traits@M@std@@2HB		; std::_Arithmetic_traits<float>::_Rank
PUBLIC	?_Rank@?$_Arithmetic_traits@N@std@@2HB		; std::_Arithmetic_traits<double>::_Rank
PUBLIC	?_Rank@?$_Arithmetic_traits@O@std@@2HB		; std::_Arithmetic_traits<long double>::_Rank
PUBLIC	?collate@?$_Locbase@H@std@@2HB			; std::_Locbase<int>::collate
PUBLIC	?ctype@?$_Locbase@H@std@@2HB			; std::_Locbase<int>::ctype
PUBLIC	?monetary@?$_Locbase@H@std@@2HB			; std::_Locbase<int>::monetary
PUBLIC	?numeric@?$_Locbase@H@std@@2HB			; std::_Locbase<int>::numeric
PUBLIC	?time@?$_Locbase@H@std@@2HB			; std::_Locbase<int>::time
PUBLIC	?messages@?$_Locbase@H@std@@2HB			; std::_Locbase<int>::messages
PUBLIC	?all@?$_Locbase@H@std@@2HB			; std::_Locbase<int>::all
PUBLIC	?none@?$_Locbase@H@std@@2HB			; std::_Locbase<int>::none
PUBLIC	?skipws@?$_Iosb@H@std@@2W4_Fmtflags@12@B	; std::_Iosb<int>::skipws
PUBLIC	?unitbuf@?$_Iosb@H@std@@2W4_Fmtflags@12@B	; std::_Iosb<int>::unitbuf
PUBLIC	?uppercase@?$_Iosb@H@std@@2W4_Fmtflags@12@B	; std::_Iosb<int>::uppercase
PUBLIC	?showbase@?$_Iosb@H@std@@2W4_Fmtflags@12@B	; std::_Iosb<int>::showbase
PUBLIC	?showpoint@?$_Iosb@H@std@@2W4_Fmtflags@12@B	; std::_Iosb<int>::showpoint
PUBLIC	?showpos@?$_Iosb@H@std@@2W4_Fmtflags@12@B	; std::_Iosb<int>::showpos
PUBLIC	?left@?$_Iosb@H@std@@2W4_Fmtflags@12@B		; std::_Iosb<int>::left
PUBLIC	?right@?$_Iosb@H@std@@2W4_Fmtflags@12@B		; std::_Iosb<int>::right
PUBLIC	?internal@?$_Iosb@H@std@@2W4_Fmtflags@12@B	; std::_Iosb<int>::internal
PUBLIC	?dec@?$_Iosb@H@std@@2W4_Fmtflags@12@B		; std::_Iosb<int>::dec
PUBLIC	?oct@?$_Iosb@H@std@@2W4_Fmtflags@12@B		; std::_Iosb<int>::oct
PUBLIC	?hex@?$_Iosb@H@std@@2W4_Fmtflags@12@B		; std::_Iosb<int>::hex
PUBLIC	?scientific@?$_Iosb@H@std@@2W4_Fmtflags@12@B	; std::_Iosb<int>::scientific
PUBLIC	?fixed@?$_Iosb@H@std@@2W4_Fmtflags@12@B		; std::_Iosb<int>::fixed
PUBLIC	?hexfloat@?$_Iosb@H@std@@2W4_Fmtflags@12@B	; std::_Iosb<int>::hexfloat
PUBLIC	?boolalpha@?$_Iosb@H@std@@2W4_Fmtflags@12@B	; std::_Iosb<int>::boolalpha
PUBLIC	?_Stdio@?$_Iosb@H@std@@2W4_Fmtflags@12@B	; std::_Iosb<int>::_Stdio
PUBLIC	?adjustfield@?$_Iosb@H@std@@2W4_Fmtflags@12@B	; std::_Iosb<int>::adjustfield
PUBLIC	?basefield@?$_Iosb@H@std@@2W4_Fmtflags@12@B	; std::_Iosb<int>::basefield
PUBLIC	?floatfield@?$_Iosb@H@std@@2W4_Fmtflags@12@B	; std::_Iosb<int>::floatfield
PUBLIC	?goodbit@?$_Iosb@H@std@@2W4_Iostate@12@B	; std::_Iosb<int>::goodbit
PUBLIC	?eofbit@?$_Iosb@H@std@@2W4_Iostate@12@B		; std::_Iosb<int>::eofbit
PUBLIC	?failbit@?$_Iosb@H@std@@2W4_Iostate@12@B	; std::_Iosb<int>::failbit
PUBLIC	?badbit@?$_Iosb@H@std@@2W4_Iostate@12@B		; std::_Iosb<int>::badbit
PUBLIC	?_Hardfail@?$_Iosb@H@std@@2W4_Iostate@12@B	; std::_Iosb<int>::_Hardfail
PUBLIC	?in@?$_Iosb@H@std@@2W4_Openmode@12@B		; std::_Iosb<int>::in
PUBLIC	?out@?$_Iosb@H@std@@2W4_Openmode@12@B		; std::_Iosb<int>::out
PUBLIC	?ate@?$_Iosb@H@std@@2W4_Openmode@12@B		; std::_Iosb<int>::ate
PUBLIC	?app@?$_Iosb@H@std@@2W4_Openmode@12@B		; std::_Iosb<int>::app
PUBLIC	?trunc@?$_Iosb@H@std@@2W4_Openmode@12@B		; std::_Iosb<int>::trunc
PUBLIC	?_Nocreate@?$_Iosb@H@std@@2W4_Openmode@12@B	; std::_Iosb<int>::_Nocreate
PUBLIC	?_Noreplace@?$_Iosb@H@std@@2W4_Openmode@12@B	; std::_Iosb<int>::_Noreplace
PUBLIC	?binary@?$_Iosb@H@std@@2W4_Openmode@12@B	; std::_Iosb<int>::binary
PUBLIC	?beg@?$_Iosb@H@std@@2W4_Seekdir@12@B		; std::_Iosb<int>::beg
PUBLIC	?cur@?$_Iosb@H@std@@2W4_Seekdir@12@B		; std::_Iosb<int>::cur
PUBLIC	?end@?$_Iosb@H@std@@2W4_Seekdir@12@B		; std::_Iosb<int>::end
_BSS	SEGMENT
_gTZDBNamesMapLock DB 020H DUP (?)
_gTZDBNamesMap DD 01H DUP (?)
_gTZDBNamesMapInitOnce DQ 01H DUP (?)
_gTZDBNamesTrie DD 01H DUP (?)
_gTZDBNamesTrieInitOnce DQ 01H DUP (?)
_TextTrieMutex DB 020H DUP (?)
?classID@?1??getStaticClassID@MetaZoneIDsEnumeration@icu_56@@SAPAXXZ@4DA DB 01H DUP (?) ; `icu_56::MetaZoneIDsEnumeration::getStaticClassID'::`2'::classID
	ALIGN	4

_gLock	DB	020H DUP (?)
_BSS	ENDS
_DATA	SEGMENT
_KEYS	DD	FLAT:??_C@_02GLMPOJMJ@lg?$AA@
	DD	FLAT:??_C@_02EFGBDOJM@ls?$AA@
	DD	FLAT:??_C@_02EAOCLKAK@ld?$AA@
	DD	FLAT:??_C@_02HMLFANIE@sg?$AA@
	DD	FLAT:??_C@_02FCBLNKNB@ss?$AA@
	DD	FLAT:??_C@_02FHJIFOEH@sd?$AA@
_TZDBNAMES_KEYS DD FLAT:??_C@_02FCBLNKNB@ss?$AA@
	DD	FLAT:??_C@_02FHJIFOEH@sd?$AA@
_DATA	ENDS
;	COMDAT ??_C@_02FHJIFOEH@sd?$AA@
CONST	SEGMENT
??_C@_02FHJIFOEH@sd?$AA@ DB 'sd', 00H			; `string'
CONST	ENDS
;	COMDAT ??_C@_02FCBLNKNB@ss?$AA@
CONST	SEGMENT
??_C@_02FCBLNKNB@ss?$AA@ DB 'ss', 00H			; `string'
CONST	ENDS
;	COMDAT ??_C@_02HMLFANIE@sg?$AA@
CONST	SEGMENT
??_C@_02HMLFANIE@sg?$AA@ DB 'sg', 00H			; `string'
CONST	ENDS
;	COMDAT ??_C@_02EAOCLKAK@ld?$AA@
CONST	SEGMENT
??_C@_02EAOCLKAK@ld?$AA@ DB 'ld', 00H			; `string'
CONST	ENDS
;	COMDAT ??_C@_02EFGBDOJM@ls?$AA@
CONST	SEGMENT
??_C@_02EFGBDOJM@ls?$AA@ DB 'ls', 00H			; `string'
CONST	ENDS
;	COMDAT ??_C@_02GLMPOJMJ@lg?$AA@
CONST	SEGMENT
??_C@_02GLMPOJMJ@lg?$AA@ DB 'lg', 00H			; `string'
CONST	ENDS
CONST	SEGMENT
_gZoneStrings DB 'zoneStrings', 00H
_gMZPrefix DB	'meta:', 00H
	ORG $+2
_gEcTag	DB	'ec', 00H
	ORG $+1
_EMPTY	DB	'<empty>', 00H
_ALL_NAME_TYPES DD 01H
	DD	02H
	DD	04H
	DD	08H
	DD	010H
	DD	020H
	DD	040H
	DD	00H
_EmptyString DW	00H
	ORG $+2
_gEtcPrefix DW	045H
	DW	074H
	DW	063H
	DW	02fH
_gSystemVPrefix DW 053H
	DW	079H
	DW	073H
	DW	074H
	DW	065H
	DW	06dH
	DW	056H
	DW	02fH
_gRiyadh8 DW	052H
	DW	069H
	DW	079H
	DW	061H
	DW	064H
	DW	068H
	DW	038H
CONST	ENDS
;	COMDAT ?end@?$_Iosb@H@std@@2W4_Seekdir@12@B
CONST	SEGMENT
?end@?$_Iosb@H@std@@2W4_Seekdir@12@B DD 02H		; std::_Iosb<int>::end
CONST	ENDS
;	COMDAT ?cur@?$_Iosb@H@std@@2W4_Seekdir@12@B
CONST	SEGMENT
?cur@?$_Iosb@H@std@@2W4_Seekdir@12@B DD 01H		; std::_Iosb<int>::cur
CONST	ENDS
;	COMDAT ?beg@?$_Iosb@H@std@@2W4_Seekdir@12@B
CONST	SEGMENT
?beg@?$_Iosb@H@std@@2W4_Seekdir@12@B DD 00H		; std::_Iosb<int>::beg
CONST	ENDS
;	COMDAT ?binary@?$_Iosb@H@std@@2W4_Openmode@12@B
CONST	SEGMENT
?binary@?$_Iosb@H@std@@2W4_Openmode@12@B DD 020H	; std::_Iosb<int>::binary
CONST	ENDS
;	COMDAT ?_Noreplace@?$_Iosb@H@std@@2W4_Openmode@12@B
CONST	SEGMENT
?_Noreplace@?$_Iosb@H@std@@2W4_Openmode@12@B DD 080H	; std::_Iosb<int>::_Noreplace
CONST	ENDS
;	COMDAT ?_Nocreate@?$_Iosb@H@std@@2W4_Openmode@12@B
CONST	SEGMENT
?_Nocreate@?$_Iosb@H@std@@2W4_Openmode@12@B DD 040H	; std::_Iosb<int>::_Nocreate
CONST	ENDS
;	COMDAT ?trunc@?$_Iosb@H@std@@2W4_Openmode@12@B
CONST	SEGMENT
?trunc@?$_Iosb@H@std@@2W4_Openmode@12@B DD 010H		; std::_Iosb<int>::trunc
CONST	ENDS
;	COMDAT ?app@?$_Iosb@H@std@@2W4_Openmode@12@B
CONST	SEGMENT
?app@?$_Iosb@H@std@@2W4_Openmode@12@B DD 08H		; std::_Iosb<int>::app
CONST	ENDS
;	COMDAT ?ate@?$_Iosb@H@std@@2W4_Openmode@12@B
CONST	SEGMENT
?ate@?$_Iosb@H@std@@2W4_Openmode@12@B DD 04H		; std::_Iosb<int>::ate
CONST	ENDS
;	COMDAT ?out@?$_Iosb@H@std@@2W4_Openmode@12@B
CONST	SEGMENT
?out@?$_Iosb@H@std@@2W4_Openmode@12@B DD 02H		; std::_Iosb<int>::out
CONST	ENDS
;	COMDAT ?in@?$_Iosb@H@std@@2W4_Openmode@12@B
CONST	SEGMENT
?in@?$_Iosb@H@std@@2W4_Openmode@12@B DD 01H		; std::_Iosb<int>::in
CONST	ENDS
;	COMDAT ?_Hardfail@?$_Iosb@H@std@@2W4_Iostate@12@B
CONST	SEGMENT
?_Hardfail@?$_Iosb@H@std@@2W4_Iostate@12@B DD 010H	; std::_Iosb<int>::_Hardfail
CONST	ENDS
;	COMDAT ?badbit@?$_Iosb@H@std@@2W4_Iostate@12@B
CONST	SEGMENT
?badbit@?$_Iosb@H@std@@2W4_Iostate@12@B DD 04H		; std::_Iosb<int>::badbit
CONST	ENDS
;	COMDAT ?failbit@?$_Iosb@H@std@@2W4_Iostate@12@B
CONST	SEGMENT
?failbit@?$_Iosb@H@std@@2W4_Iostate@12@B DD 02H		; std::_Iosb<int>::failbit
CONST	ENDS
;	COMDAT ?eofbit@?$_Iosb@H@std@@2W4_Iostate@12@B
CONST	SEGMENT
?eofbit@?$_Iosb@H@std@@2W4_Iostate@12@B DD 01H		; std::_Iosb<int>::eofbit
CONST	ENDS
;	COMDAT ?goodbit@?$_Iosb@H@std@@2W4_Iostate@12@B
CONST	SEGMENT
?goodbit@?$_Iosb@H@std@@2W4_Iostate@12@B DD 00H		; std::_Iosb<int>::goodbit
CONST	ENDS
;	COMDAT ?floatfield@?$_Iosb@H@std@@2W4_Fmtflags@12@B
CONST	SEGMENT
?floatfield@?$_Iosb@H@std@@2W4_Fmtflags@12@B DD 03000H	; std::_Iosb<int>::floatfield
CONST	ENDS
;	COMDAT ?basefield@?$_Iosb@H@std@@2W4_Fmtflags@12@B
CONST	SEGMENT
?basefield@?$_Iosb@H@std@@2W4_Fmtflags@12@B DD 0e00H	; std::_Iosb<int>::basefield
CONST	ENDS
;	COMDAT ?adjustfield@?$_Iosb@H@std@@2W4_Fmtflags@12@B
CONST	SEGMENT
?adjustfield@?$_Iosb@H@std@@2W4_Fmtflags@12@B DD 01c0H	; std::_Iosb<int>::adjustfield
CONST	ENDS
;	COMDAT ?_Stdio@?$_Iosb@H@std@@2W4_Fmtflags@12@B
CONST	SEGMENT
?_Stdio@?$_Iosb@H@std@@2W4_Fmtflags@12@B DD 08000H	; std::_Iosb<int>::_Stdio
CONST	ENDS
;	COMDAT ?boolalpha@?$_Iosb@H@std@@2W4_Fmtflags@12@B
CONST	SEGMENT
?boolalpha@?$_Iosb@H@std@@2W4_Fmtflags@12@B DD 04000H	; std::_Iosb<int>::boolalpha
CONST	ENDS
;	COMDAT ?hexfloat@?$_Iosb@H@std@@2W4_Fmtflags@12@B
CONST	SEGMENT
?hexfloat@?$_Iosb@H@std@@2W4_Fmtflags@12@B DD 03000H	; std::_Iosb<int>::hexfloat
CONST	ENDS
;	COMDAT ?fixed@?$_Iosb@H@std@@2W4_Fmtflags@12@B
CONST	SEGMENT
?fixed@?$_Iosb@H@std@@2W4_Fmtflags@12@B DD 02000H	; std::_Iosb<int>::fixed
CONST	ENDS
;	COMDAT ?scientific@?$_Iosb@H@std@@2W4_Fmtflags@12@B
CONST	SEGMENT
?scientific@?$_Iosb@H@std@@2W4_Fmtflags@12@B DD 01000H	; std::_Iosb<int>::scientific
CONST	ENDS
;	COMDAT ?hex@?$_Iosb@H@std@@2W4_Fmtflags@12@B
CONST	SEGMENT
?hex@?$_Iosb@H@std@@2W4_Fmtflags@12@B DD 0800H		; std::_Iosb<int>::hex
CONST	ENDS
;	COMDAT ?oct@?$_Iosb@H@std@@2W4_Fmtflags@12@B
CONST	SEGMENT
?oct@?$_Iosb@H@std@@2W4_Fmtflags@12@B DD 0400H		; std::_Iosb<int>::oct
CONST	ENDS
;	COMDAT ?dec@?$_Iosb@H@std@@2W4_Fmtflags@12@B
CONST	SEGMENT
?dec@?$_Iosb@H@std@@2W4_Fmtflags@12@B DD 0200H		; std::_Iosb<int>::dec
CONST	ENDS
;	COMDAT ?internal@?$_Iosb@H@std@@2W4_Fmtflags@12@B
CONST	SEGMENT
?internal@?$_Iosb@H@std@@2W4_Fmtflags@12@B DD 0100H	; std::_Iosb<int>::internal
CONST	ENDS
;	COMDAT ?right@?$_Iosb@H@std@@2W4_Fmtflags@12@B
CONST	SEGMENT
?right@?$_Iosb@H@std@@2W4_Fmtflags@12@B DD 080H		; std::_Iosb<int>::right
CONST	ENDS
;	COMDAT ?left@?$_Iosb@H@std@@2W4_Fmtflags@12@B
CONST	SEGMENT
?left@?$_Iosb@H@std@@2W4_Fmtflags@12@B DD 040H		; std::_Iosb<int>::left
CONST	ENDS
;	COMDAT ?showpos@?$_Iosb@H@std@@2W4_Fmtflags@12@B
CONST	SEGMENT
?showpos@?$_Iosb@H@std@@2W4_Fmtflags@12@B DD 020H	; std::_Iosb<int>::showpos
CONST	ENDS
;	COMDAT ?showpoint@?$_Iosb@H@std@@2W4_Fmtflags@12@B
CONST	SEGMENT
?showpoint@?$_Iosb@H@std@@2W4_Fmtflags@12@B DD 010H	; std::_Iosb<int>::showpoint
CONST	ENDS
;	COMDAT ?showbase@?$_Iosb@H@std@@2W4_Fmtflags@12@B
CONST	SEGMENT
?showbase@?$_Iosb@H@std@@2W4_Fmtflags@12@B DD 08H	; std::_Iosb<int>::showbase
CONST	ENDS
;	COMDAT ?uppercase@?$_Iosb@H@std@@2W4_Fmtflags@12@B
CONST	SEGMENT
?uppercase@?$_Iosb@H@std@@2W4_Fmtflags@12@B DD 04H	; std::_Iosb<int>::uppercase
CONST	ENDS
;	COMDAT ?unitbuf@?$_Iosb@H@std@@2W4_Fmtflags@12@B
CONST	SEGMENT
?unitbuf@?$_Iosb@H@std@@2W4_Fmtflags@12@B DD 02H	; std::_Iosb<int>::unitbuf
CONST	ENDS
;	COMDAT ?skipws@?$_Iosb@H@std@@2W4_Fmtflags@12@B
CONST	SEGMENT
?skipws@?$_Iosb@H@std@@2W4_Fmtflags@12@B DD 01H		; std::_Iosb<int>::skipws
CONST	ENDS
;	COMDAT ?none@?$_Locbase@H@std@@2HB
CONST	SEGMENT
?none@?$_Locbase@H@std@@2HB DD 00H			; std::_Locbase<int>::none
CONST	ENDS
;	COMDAT ?all@?$_Locbase@H@std@@2HB
CONST	SEGMENT
?all@?$_Locbase@H@std@@2HB DD 03fH			; std::_Locbase<int>::all
CONST	ENDS
;	COMDAT ?messages@?$_Locbase@H@std@@2HB
CONST	SEGMENT
?messages@?$_Locbase@H@std@@2HB DD 020H			; std::_Locbase<int>::messages
CONST	ENDS
;	COMDAT ?time@?$_Locbase@H@std@@2HB
CONST	SEGMENT
?time@?$_Locbase@H@std@@2HB DD 010H			; std::_Locbase<int>::time
CONST	ENDS
;	COMDAT ?numeric@?$_Locbase@H@std@@2HB
CONST	SEGMENT
?numeric@?$_Locbase@H@std@@2HB DD 08H			; std::_Locbase<int>::numeric
CONST	ENDS
;	COMDAT ?monetary@?$_Locbase@H@std@@2HB
CONST	SEGMENT
?monetary@?$_Locbase@H@std@@2HB DD 04H			; std::_Locbase<int>::monetary
CONST	ENDS
;	COMDAT ?ctype@?$_Locbase@H@std@@2HB
CONST	SEGMENT
?ctype@?$_Locbase@H@std@@2HB DD 02H			; std::_Locbase<int>::ctype
CONST	ENDS
;	COMDAT ?collate@?$_Locbase@H@std@@2HB
CONST	SEGMENT
?collate@?$_Locbase@H@std@@2HB DD 01H			; std::_Locbase<int>::collate
CONST	ENDS
;	COMDAT ?_Rank@?$_Arithmetic_traits@O@std@@2HB
CONST	SEGMENT
?_Rank@?$_Arithmetic_traits@O@std@@2HB DD 09H		; std::_Arithmetic_traits<long double>::_Rank
CONST	ENDS
;	COMDAT ?_Rank@?$_Arithmetic_traits@N@std@@2HB
CONST	SEGMENT
?_Rank@?$_Arithmetic_traits@N@std@@2HB DD 08H		; std::_Arithmetic_traits<double>::_Rank
CONST	ENDS
;	COMDAT ?_Rank@?$_Arithmetic_traits@M@std@@2HB
CONST	SEGMENT
?_Rank@?$_Arithmetic_traits@M@std@@2HB DD 07H		; std::_Arithmetic_traits<float>::_Rank
CONST	ENDS
;	COMDAT ?_Rank@?$_Arithmetic_traits@_K@std@@2HB
CONST	SEGMENT
?_Rank@?$_Arithmetic_traits@_K@std@@2HB DD 06H		; std::_Arithmetic_traits<unsigned __int64>::_Rank
CONST	ENDS
;	COMDAT ?_Rank@?$_Arithmetic_traits@_J@std@@2HB
CONST	SEGMENT
?_Rank@?$_Arithmetic_traits@_J@std@@2HB DD 06H		; std::_Arithmetic_traits<__int64>::_Rank
CONST	ENDS
;	COMDAT ?_Rank@?$_Arithmetic_traits@K@std@@2HB
CONST	SEGMENT
?_Rank@?$_Arithmetic_traits@K@std@@2HB DD 05H		; std::_Arithmetic_traits<unsigned long>::_Rank
CONST	ENDS
;	COMDAT ?_Rank@?$_Arithmetic_traits@J@std@@2HB
CONST	SEGMENT
?_Rank@?$_Arithmetic_traits@J@std@@2HB DD 05H		; std::_Arithmetic_traits<long>::_Rank
CONST	ENDS
;	COMDAT ?_Rank@?$_Arithmetic_traits@I@std@@2HB
CONST	SEGMENT
?_Rank@?$_Arithmetic_traits@I@std@@2HB DD 04H		; std::_Arithmetic_traits<unsigned int>::_Rank
CONST	ENDS
;	COMDAT ?_Rank@?$_Arithmetic_traits@H@std@@2HB
CONST	SEGMENT
?_Rank@?$_Arithmetic_traits@H@std@@2HB DD 04H		; std::_Arithmetic_traits<int>::_Rank
CONST	ENDS
;	COMDAT ?_Rank@?$_Arithmetic_traits@G@std@@2HB
CONST	SEGMENT
?_Rank@?$_Arithmetic_traits@G@std@@2HB DD 03H		; std::_Arithmetic_traits<unsigned short>::_Rank
CONST	ENDS
;	COMDAT ?_Rank@?$_Arithmetic_traits@F@std@@2HB
CONST	SEGMENT
?_Rank@?$_Arithmetic_traits@F@std@@2HB DD 03H		; std::_Arithmetic_traits<short>::_Rank
CONST	ENDS
;	COMDAT ?_Rank@?$_Arithmetic_traits@E@std@@2HB
CONST	SEGMENT
?_Rank@?$_Arithmetic_traits@E@std@@2HB DD 02H		; std::_Arithmetic_traits<unsigned char>::_Rank
CONST	ENDS
;	COMDAT ?_Rank@?$_Arithmetic_traits@C@std@@2HB
CONST	SEGMENT
?_Rank@?$_Arithmetic_traits@C@std@@2HB DD 02H		; std::_Arithmetic_traits<signed char>::_Rank
CONST	ENDS
;	COMDAT ?_Rank@?$_Arithmetic_traits@D@std@@2HB
CONST	SEGMENT
?_Rank@?$_Arithmetic_traits@D@std@@2HB DD 02H		; std::_Arithmetic_traits<char>::_Rank
CONST	ENDS
;	COMDAT ?_Rank@?$_Arithmetic_traits@_N@std@@2HB
CONST	SEGMENT
?_Rank@?$_Arithmetic_traits@_N@std@@2HB DD 01H		; std::_Arithmetic_traits<bool>::_Rank
CONST	ENDS
;	COMDAT ?value@?$integral_constant@I$0A@@tr1@std@@2IB
CONST	SEGMENT
?value@?$integral_constant@I$0A@@tr1@std@@2IB DD 00H	; std::tr1::integral_constant<unsigned int,0>::value
CONST	ENDS
;	COMDAT ?value@?$integral_constant@_N$00@tr1@std@@2_NB
CONST	SEGMENT
?value@?$integral_constant@_N$00@tr1@std@@2_NB DB 01H	; std::tr1::integral_constant<bool,1>::value
CONST	ENDS
;	COMDAT ?value@?$integral_constant@_N$0A@@tr1@std@@2_NB
CONST	SEGMENT
?value@?$integral_constant@_N$0A@@tr1@std@@2_NB DB 00H	; std::tr1::integral_constant<bool,0>::value
CONST	ENDS
PUBLIC	??2@YAPAXI@Z					; operator new
EXTRN	__RTC_Shutdown:PROC
EXTRN	__RTC_InitBase:PROC
;	COMDAT rtc$TMZ
; File d:\mozilla\intl\icu\include\unicode\utypes.h
rtc$TMZ	SEGMENT
__RTC_Shutdown.rtc$TMZ DD FLAT:__RTC_Shutdown
rtc$TMZ	ENDS
;	COMDAT rtc$IMZ
rtc$IMZ	SEGMENT
__RTC_InitBase.rtc$IMZ DD FLAT:__RTC_InitBase
; Function compile flags: /Odtp /RTCsu /ZI
rtc$IMZ	ENDS
;	COMDAT ??2@YAPAXI@Z
_TEXT	SEGMENT
_q$ = -8						; size = 4
___formal$ = 8						; size = 4
??2@YAPAXI@Z PROC					; operator new, COMDAT
; Line 411
	push	ebp
	mov	ebp, esp
	sub	esp, 204				; 000000ccH
	push	ebx
	push	esi
	push	edi
	lea	edi, DWORD PTR [ebp-204]
	mov	ecx, 51					; 00000033H
	mov	eax, -858993460				; ccccccccH
	rep stosd
; Line 412
	mov	DWORD PTR _q$[ebp], 0
; Line 413
	mov	eax, DWORD PTR _q$[ebp]
	mov	BYTE PTR [eax], 5
; Line 414
	mov	eax, DWORD PTR _q$[ebp]
; Line 415
	pop	edi
	pop	esi
	pop	ebx
	mov	esp, ebp
	pop	ebp
	ret	0
??2@YAPAXI@Z ENDP					; operator new
_TEXT	ENDS
PUBLIC	??3@YAXPAX@Z					; operator delete
; Function compile flags: /Odtp /RTCsu /ZI
;	COMDAT ??3@YAXPAX@Z
_TEXT	SEGMENT
_q$ = -8						; size = 4
___formal$ = 8						; size = 4
??3@YAXPAX@Z PROC					; operator delete, COMDAT
; Line 439
	push	ebp
	mov	ebp, esp
	sub	esp, 204				; 000000ccH
	push	ebx
	push	esi
	push	edi
	lea	edi, DWORD PTR [ebp-204]
	mov	ecx, 51					; 00000033H
	mov	eax, -858993460				; ccccccccH
	rep stosd
; Line 440
	mov	DWORD PTR _q$[ebp], 0
; Line 441
	mov	eax, DWORD PTR _q$[ebp]
	mov	BYTE PTR [eax], 5
; Line 442
	pop	edi
	pop	esi
	pop	ebx
	mov	esp, ebp
	pop	ebp
	ret	0
??3@YAXPAX@Z ENDP					; operator delete
_TEXT	ENDS
PUBLIC	??9TimeZone@icu_56@@QBECABV01@@Z		; icu_56::TimeZone::operator!=
EXTRN	__RTC_CheckEsp:PROC
; Function compile flags: /Odtp /RTCsu /ZI
;	COMDAT ??9TimeZone@icu_56@@QBECABV01@@Z
_TEXT	SEGMENT
_this$ = -8						; size = 4
_that$ = 8						; size = 4
??9TimeZone@icu_56@@QBECABV01@@Z PROC			; icu_56::TimeZone::operator!=, COMDAT
; _this$ = ecx
; File d:\mozilla\intl\icu\source\i18n\unicode\timezone.h
; Line 455
	push	ebp
	mov	ebp, esp
	sub	esp, 204				; 000000ccH
	push	ebx
	push	esi
	push	edi
	push	ecx
	lea	edi, DWORD PTR [ebp-204]
	mov	ecx, 51					; 00000033H
	mov	eax, -858993460				; ccccccccH
	rep stosd
	pop	ecx
	mov	DWORD PTR _this$[ebp], ecx
	mov	esi, esp
	mov	eax, DWORD PTR _that$[ebp]
	push	eax
	mov	ecx, DWORD PTR _this$[ebp]
	mov	edx, DWORD PTR [ecx]
	mov	ecx, DWORD PTR _this$[ebp]
	mov	eax, DWORD PTR [edx+8]
	call	eax
	cmp	esi, esp
	call	__RTC_CheckEsp
	movsx	ecx, al
	test	ecx, ecx
	sete	al
	pop	edi
	pop	esi
	pop	ebx
	add	esp, 204				; 000000ccH
	cmp	ebp, esp
	call	__RTC_CheckEsp
	mov	esp, ebp
	pop	ebp
	ret	4
??9TimeZone@icu_56@@QBECABV01@@Z ENDP			; icu_56::TimeZone::operator!=
_TEXT	ENDS
PUBLIC	?getID@TimeZone@icu_56@@QBEAAVUnicodeString@2@AAV32@@Z ; icu_56::TimeZone::getID
EXTRN	__imp_??4UnicodeString@icu_56@@QAEAAV01@ABV01@@Z:PROC
; Function compile flags: /Odtp /RTCsu /ZI
;	COMDAT ?getID@TimeZone@icu_56@@QBEAAVUnicodeString@2@AAV32@@Z
_TEXT	SEGMENT
_this$ = -8						; size = 4
_ID$ = 8						; size = 4
?getID@TimeZone@icu_56@@QBEAAVUnicodeString@2@AAV32@@Z PROC ; icu_56::TimeZone::getID, COMDAT
; _this$ = ecx
; Line 951
	push	ebp
	mov	ebp, esp
	sub	esp, 204				; 000000ccH
	push	ebx
	push	esi
	push	edi
	push	ecx
	lea	edi, DWORD PTR [ebp-204]
	mov	ecx, 51					; 00000033H
	mov	eax, -858993460				; ccccccccH
	rep stosd
	pop	ecx
	mov	DWORD PTR _this$[ebp], ecx
; Line 952
	mov	eax, DWORD PTR _this$[ebp]
	add	eax, 4
	mov	esi, esp
	push	eax
	mov	ecx, DWORD PTR _ID$[ebp]
	call	DWORD PTR __imp_??4UnicodeString@icu_56@@QAEAAV01@ABV01@@Z
	cmp	esi, esp
	call	__RTC_CheckEsp
; Line 953
	mov	eax, DWORD PTR _ID$[ebp]
; Line 954
	pop	edi
	pop	esi
	pop	ebx
	add	esp, 204				; 000000ccH
	cmp	ebp, esp
	call	__RTC_CheckEsp
	mov	esp, ebp
	pop	ebp
	ret	4
?getID@TimeZone@icu_56@@QBEAAVUnicodeString@2@AAV32@@Z ENDP ; icu_56::TimeZone::getID
_TEXT	ENDS
PUBLIC	?setID@TimeZone@icu_56@@QAEXABVUnicodeString@2@@Z ; icu_56::TimeZone::setID
; Function compile flags: /Odtp /RTCsu /ZI
;	COMDAT ?setID@TimeZone@icu_56@@QAEXABVUnicodeString@2@@Z
_TEXT	SEGMENT
_this$ = -8						; size = 4
_ID$ = 8						; size = 4
?setID@TimeZone@icu_56@@QAEXABVUnicodeString@2@@Z PROC	; icu_56::TimeZone::setID, COMDAT
; _this$ = ecx
; Line 960
	push	ebp
	mov	ebp, esp
	sub	esp, 204				; 000000ccH
	push	ebx
	push	esi
	push	edi
	push	ecx
	lea	edi, DWORD PTR [ebp-204]
	mov	ecx, 51					; 00000033H
	mov	eax, -858993460				; ccccccccH
	rep stosd
	pop	ecx
	mov	DWORD PTR _this$[ebp], ecx
; Line 961
	mov	esi, esp
	mov	eax, DWORD PTR _ID$[ebp]
	push	eax
	mov	ecx, DWORD PTR _this$[ebp]
	add	ecx, 4
	call	DWORD PTR __imp_??4UnicodeString@icu_56@@QAEAAV01@ABV01@@Z
	cmp	esi, esp
	call	__RTC_CheckEsp
; Line 962
	pop	edi
	pop	esi
	pop	ebx
	add	esp, 204				; 000000ccH
	cmp	ebp, esp
	call	__RTC_CheckEsp
	mov	esp, ebp
	pop	ebp
	ret	4
?setID@TimeZone@icu_56@@QAEXABVUnicodeString@2@@Z ENDP	; icu_56::TimeZone::setID
_TEXT	ENDS
PUBLIC	??9TimeZoneNames@icu_56@@QBECABV01@@Z		; icu_56::TimeZoneNames::operator!=
; Function compile flags: /Odtp /RTCsu /ZI
;	COMDAT ??9TimeZoneNames@icu_56@@QBECABV01@@Z
_TEXT	SEGMENT
_this$ = -8						; size = 4
_other$ = 8						; size = 4
??9TimeZoneNames@icu_56@@QBECABV01@@Z PROC		; icu_56::TimeZoneNames::operator!=, COMDAT
; _this$ = ecx
; File d:\mozilla\intl\icu\source\i18n\unicode\tznames.h
; Line 150
	push	ebp
	mov	ebp, esp
	sub	esp, 204				; 000000ccH
	push	ebx
	push	esi
	push	edi
	push	ecx
	lea	edi, DWORD PTR [ebp-204]
	mov	ecx, 51					; 00000033H
	mov	eax, -858993460				; ccccccccH
	rep stosd
	pop	ecx
	mov	DWORD PTR _this$[ebp], ecx
	mov	esi, esp
	mov	eax, DWORD PTR _other$[ebp]
	push	eax
	mov	ecx, DWORD PTR _this$[ebp]
	mov	edx, DWORD PTR [ecx]
	mov	ecx, DWORD PTR _this$[ebp]
	mov	eax, DWORD PTR [edx+8]
	call	eax
	cmp	esi, esp
	call	__RTC_CheckEsp
	movsx	ecx, al
	test	ecx, ecx
	sete	al
	pop	edi
	pop	esi
	pop	ebx
	add	esp, 204				; 000000ccH
	cmp	ebp, esp
	call	__RTC_CheckEsp
	mov	esp, ebp
	pop	ebp
	ret	4
??9TimeZoneNames@icu_56@@QBECABV01@@Z ENDP		; icu_56::TimeZoneNames::operator!=
_TEXT	ENDS
PUBLIC	??_7MatchInfoCollection@TimeZoneNames@icu_56@@6B@ ; icu_56::TimeZoneNames::MatchInfoCollection::`vftable'
PUBLIC	??0MatchInfoCollection@TimeZoneNames@icu_56@@QAE@ABV012@@Z ; icu_56::TimeZoneNames::MatchInfoCollection::MatchInfoCollection
PUBLIC	??_R4MatchInfoCollection@TimeZoneNames@icu_56@@6B@ ; icu_56::TimeZoneNames::MatchInfoCollection::`RTTI Complete Object Locator'
PUBLIC	??_R0?AVMatchInfoCollection@TimeZoneNames@icu_56@@@8 ; icu_56::TimeZoneNames::MatchInfoCollection `RTTI Type Descriptor'
PUBLIC	??_R3MatchInfoCollection@TimeZoneNames@icu_56@@8 ; icu_56::TimeZoneNames::MatchInfoCollection::`RTTI Class Hierarchy Descriptor'
PUBLIC	??_R2MatchInfoCollection@TimeZoneNames@icu_56@@8 ; icu_56::TimeZoneNames::MatchInfoCollection::`RTTI Base Class Array'
PUBLIC	??_R1A@?0A@EA@MatchInfoCollection@TimeZoneNames@icu_56@@8 ; icu_56::TimeZoneNames::MatchInfoCollection::`RTTI Base Class Descriptor at (0,-1,0,64)'
PUBLIC	??_R13?0A@EA@UMemory@icu_56@@8			; icu_56::UMemory::`RTTI Base Class Descriptor at (4,-1,0,64)'
PUBLIC	??_R0?AVUMemory@icu_56@@@8			; icu_56::UMemory `RTTI Type Descriptor'
PUBLIC	??_R3UMemory@icu_56@@8				; icu_56::UMemory::`RTTI Class Hierarchy Descriptor'
PUBLIC	??_R2UMemory@icu_56@@8				; icu_56::UMemory::`RTTI Base Class Array'
PUBLIC	??_R1A@?0A@EA@UMemory@icu_56@@8			; icu_56::UMemory::`RTTI Base Class Descriptor at (0,-1,0,64)'
PUBLIC	??_EMatchInfoCollection@TimeZoneNames@icu_56@@UAEPAXI@Z ; icu_56::TimeZoneNames::MatchInfoCollection::`vector deleting destructor'
EXTRN	??_7type_info@@6B@:QWORD			; type_info::`vftable'
;	COMDAT ??_R1A@?0A@EA@UMemory@icu_56@@8
rdata$r	SEGMENT
??_R1A@?0A@EA@UMemory@icu_56@@8 DD FLAT:??_R0?AVUMemory@icu_56@@@8 ; icu_56::UMemory::`RTTI Base Class Descriptor at (0,-1,0,64)'
	DD	00H
	DD	00H
	DD	0ffffffffH
	DD	00H
	DD	040H
	DD	FLAT:??_R3UMemory@icu_56@@8
rdata$r	ENDS
;	COMDAT ??_R2UMemory@icu_56@@8
rdata$r	SEGMENT
??_R2UMemory@icu_56@@8 DD FLAT:??_R1A@?0A@EA@UMemory@icu_56@@8 ; icu_56::UMemory::`RTTI Base Class Array'
rdata$r	ENDS
;	COMDAT ??_R3UMemory@icu_56@@8
rdata$r	SEGMENT
??_R3UMemory@icu_56@@8 DD 00H				; icu_56::UMemory::`RTTI Class Hierarchy Descriptor'
	DD	00H
	DD	01H
	DD	FLAT:??_R2UMemory@icu_56@@8
rdata$r	ENDS
;	COMDAT ??_R0?AVUMemory@icu_56@@@8
_DATA	SEGMENT
??_R0?AVUMemory@icu_56@@@8 DD FLAT:??_7type_info@@6B@	; icu_56::UMemory `RTTI Type Descriptor'
	DD	00H
	DB	'.?AVUMemory@icu_56@@', 00H
_DATA	ENDS
;	COMDAT ??_R13?0A@EA@UMemory@icu_56@@8
rdata$r	SEGMENT
??_R13?0A@EA@UMemory@icu_56@@8 DD FLAT:??_R0?AVUMemory@icu_56@@@8 ; icu_56::UMemory::`RTTI Base Class Descriptor at (4,-1,0,64)'
	DD	00H
	DD	04H
	DD	0ffffffffH
	DD	00H
	DD	040H
	DD	FLAT:??_R3UMemory@icu_56@@8
rdata$r	ENDS
;	COMDAT ??_R1A@?0A@EA@MatchInfoCollection@TimeZoneNames@icu_56@@8
rdata$r	SEGMENT
??_R1A@?0A@EA@MatchInfoCollection@TimeZoneNames@icu_56@@8 DD FLAT:??_R0?AVMatchInfoCollection@TimeZoneNames@icu_56@@@8 ; icu_56::TimeZoneNames::MatchInfoCollection::`RTTI Base Class Descriptor at (0,-1,0,64)'
	DD	01H
	DD	00H
	DD	0ffffffffH
	DD	00H
	DD	040H
	DD	FLAT:??_R3MatchInfoCollection@TimeZoneNames@icu_56@@8
rdata$r	ENDS
;	COMDAT ??_R2MatchInfoCollection@TimeZoneNames@icu_56@@8
rdata$r	SEGMENT
??_R2MatchInfoCollection@TimeZoneNames@icu_56@@8 DD FLAT:??_R1A@?0A@EA@MatchInfoCollection@TimeZoneNames@icu_56@@8 ; icu_56::TimeZoneNames::MatchInfoCollection::`RTTI Base Class Array'
	DD	FLAT:??_R13?0A@EA@UMemory@icu_56@@8
rdata$r	ENDS
;	COMDAT ??_R3MatchInfoCollection@TimeZoneNames@icu_56@@8
rdata$r	SEGMENT
??_R3MatchInfoCollection@TimeZoneNames@icu_56@@8 DD 00H	; icu_56::TimeZoneNames::MatchInfoCollection::`RTTI Class Hierarchy Descriptor'
	DD	00H
	DD	02H
	DD	FLAT:??_R2MatchInfoCollection@TimeZoneNames@icu_56@@8
rdata$r	ENDS
;	COMDAT ??_R0?AVMatchInfoCollection@TimeZoneNames@icu_56@@@8
_DATA	SEGMENT
??_R0?AVMatchInfoCollection@TimeZoneNames@icu_56@@@8 DD FLAT:??_7type_info@@6B@ ; icu_56::TimeZoneNames::MatchInfoCollection `RTTI Type Descriptor'
	DD	00H
	DB	'.?AVMatchInfoCollection@TimeZoneNames@icu_56@@', 00H
_DATA	ENDS
;	COMDAT ??_R4MatchInfoCollection@TimeZoneNames@icu_56@@6B@
rdata$r	SEGMENT
??_R4MatchInfoCollection@TimeZoneNames@icu_56@@6B@ DD 00H ; icu_56::TimeZoneNames::MatchInfoCollection::`RTTI Complete Object Locator'
	DD	00H
	DD	00H
	DD	FLAT:??_R0?AVMatchInfoCollection@TimeZoneNames@icu_56@@@8
	DD	FLAT:??_R3MatchInfoCollection@TimeZoneNames@icu_56@@8
rdata$r	ENDS
;	COMDAT ??_7MatchInfoCollection@TimeZoneNames@icu_56@@6B@
CONST	SEGMENT
??_7MatchInfoCollection@TimeZoneNames@icu_56@@6B@ DD FLAT:??_R4MatchInfoCollection@TimeZoneNames@icu_56@@6B@ ; icu_56::TimeZoneNames::MatchInfoCollection::`vftable'
	DD	FLAT:??_EMatchInfoCollection@TimeZoneNames@icu_56@@UAEPAXI@Z
; Function compile flags: /Odtp /RTCsu /ZI
CONST	ENDS
;	COMDAT ??0MatchInfoCollection@TimeZoneNames@icu_56@@QAE@ABV012@@Z
_TEXT	SEGMENT
tv68 = -208						; size = 4
_this$ = -8						; size = 4
___that$ = 8						; size = 4
??0MatchInfoCollection@TimeZoneNames@icu_56@@QAE@ABV012@@Z PROC ; icu_56::TimeZoneNames::MatchInfoCollection::MatchInfoCollection, COMDAT
; _this$ = ecx
	push	ebp
	mov	ebp, esp
	sub	esp, 208				; 000000d0H
	push	ebx
	push	esi
	push	edi
	push	ecx
	lea	edi, DWORD PTR [ebp-208]
	mov	ecx, 52					; 00000034H
	mov	eax, -858993460				; ccccccccH
	rep stosd
	pop	ecx
	mov	DWORD PTR _this$[ebp], ecx
	cmp	DWORD PTR ___that$[ebp], 0
	je	SHORT $LN3@MatchInfoC
	mov	eax, DWORD PTR ___that$[ebp]
	add	eax, 4
	mov	DWORD PTR tv68[ebp], eax
	jmp	SHORT $LN4@MatchInfoC
$LN3@MatchInfoC:
	mov	DWORD PTR tv68[ebp], 0
$LN4@MatchInfoC:
	mov	eax, DWORD PTR _this$[ebp]
	mov	DWORD PTR [eax], OFFSET ??_7MatchInfoCollection@TimeZoneNames@icu_56@@6B@
	mov	eax, DWORD PTR _this$[ebp]
	mov	ecx, DWORD PTR ___that$[ebp]
	mov	edx, DWORD PTR [ecx+4]
	mov	DWORD PTR [eax+4], edx
	mov	eax, DWORD PTR _this$[ebp]
	pop	edi
	pop	esi
	pop	ebx
	mov	esp, ebp
	pop	ebp
	ret	4
??0MatchInfoCollection@TimeZoneNames@icu_56@@QAE@ABV012@@Z ENDP ; icu_56::TimeZoneNames::MatchInfoCollection::MatchInfoCollection
_TEXT	ENDS
PUBLIC	??4MatchInfoCollection@TimeZoneNames@icu_56@@QAEAAV012@ABV012@@Z ; icu_56::TimeZoneNames::MatchInfoCollection::operator=
; Function compile flags: /Odtp /RTCsu /ZI
;	COMDAT ??4MatchInfoCollection@TimeZoneNames@icu_56@@QAEAAV012@ABV012@@Z
_TEXT	SEGMENT
_this$ = -8						; size = 4
___that$ = 8						; size = 4
??4MatchInfoCollection@TimeZoneNames@icu_56@@QAEAAV012@ABV012@@Z PROC ; icu_56::TimeZoneNames::MatchInfoCollection::operator=, COMDAT
; _this$ = ecx
	push	ebp
	mov	ebp, esp
	sub	esp, 204				; 000000ccH
	push	ebx
	push	esi
	push	edi
	push	ecx
	lea	edi, DWORD PTR [ebp-204]
	mov	ecx, 51					; 00000033H
	mov	eax, -858993460				; ccccccccH
	rep stosd
	pop	ecx
	mov	DWORD PTR _this$[ebp], ecx
	mov	eax, DWORD PTR _this$[ebp]
	mov	ecx, DWORD PTR ___that$[ebp]
	mov	edx, DWORD PTR [ecx+4]
	mov	DWORD PTR [eax+4], edx
	mov	eax, DWORD PTR _this$[ebp]
	pop	edi
	pop	esi
	pop	ebx
	mov	esp, ebp
	pop	ebp
	ret	4
??4MatchInfoCollection@TimeZoneNames@icu_56@@QAEAAV012@ABV012@@Z ENDP ; icu_56::TimeZoneNames::MatchInfoCollection::operator=
_TEXT	ENDS
PUBLIC	??_GMatchInfoCollection@TimeZoneNames@icu_56@@UAEPAXI@Z ; icu_56::TimeZoneNames::MatchInfoCollection::`scalar deleting destructor'
EXTRN	__imp_??3UMemory@icu_56@@SAXPAX@Z:PROC
EXTRN	??1MatchInfoCollection@TimeZoneNames@icu_56@@UAE@XZ:PROC ; icu_56::TimeZoneNames::MatchInfoCollection::~MatchInfoCollection
; Function compile flags: /Odtp /RTCsu /ZI
;	COMDAT ??_GMatchInfoCollection@TimeZoneNames@icu_56@@UAEPAXI@Z
_TEXT	SEGMENT
_this$ = -8						; size = 4
___flags$ = 8						; size = 4
??_GMatchInfoCollection@TimeZoneNames@icu_56@@UAEPAXI@Z PROC ; icu_56::TimeZoneNames::MatchInfoCollection::`scalar deleting destructor', COMDAT
; _this$ = ecx
	push	ebp
	mov	ebp, esp
	sub	esp, 204				; 000000ccH
	push	ebx
	push	esi
	push	edi
	push	ecx
	lea	edi, DWORD PTR [ebp-204]
	mov	ecx, 51					; 00000033H
	mov	eax, -858993460				; ccccccccH
	rep stosd
	pop	ecx
	mov	DWORD PTR _this$[ebp], ecx
	mov	ecx, DWORD PTR _this$[ebp]
	call	??1MatchInfoCollection@TimeZoneNames@icu_56@@UAE@XZ ; icu_56::TimeZoneNames::MatchInfoCollection::~MatchInfoCollection
	mov	eax, DWORD PTR ___flags$[ebp]
	and	eax, 1
	je	SHORT $LN1@scalar
	mov	esi, esp
	mov	eax, DWORD PTR _this$[ebp]
	push	eax
	call	DWORD PTR __imp_??3UMemory@icu_56@@SAXPAX@Z
	add	esp, 4
	cmp	esi, esp
	call	__RTC_CheckEsp
$LN1@scalar:
	mov	eax, DWORD PTR _this$[ebp]
	pop	edi
	pop	esi
	pop	ebx
	add	esp, 204				; 000000ccH
	cmp	ebp, esp
	call	__RTC_CheckEsp
	mov	esp, ebp
	pop	ebp
	ret	4
??_GMatchInfoCollection@TimeZoneNames@icu_56@@UAEPAXI@Z ENDP ; icu_56::TimeZoneNames::MatchInfoCollection::`scalar deleting destructor'
_TEXT	ENDS
EXTRN	__imp_??_VUMemory@icu_56@@SAXPAX@Z:PROC
EXTRN	??_M@YGXPAXIHP6EX0@Z@Z:PROC			; `eh vector destructor iterator'
; Function compile flags: /Odtp /RTCsu /ZI
;	COMDAT ??_EMatchInfoCollection@TimeZoneNames@icu_56@@UAEPAXI@Z
_TEXT	SEGMENT
_this$ = -8						; size = 4
___flags$ = 8						; size = 4
??_EMatchInfoCollection@TimeZoneNames@icu_56@@UAEPAXI@Z PROC ; icu_56::TimeZoneNames::MatchInfoCollection::`vector deleting destructor', COMDAT
; _this$ = ecx
	push	ebp
	mov	ebp, esp
	sub	esp, 204				; 000000ccH
	push	ebx
	push	esi
	push	edi
	push	ecx
	lea	edi, DWORD PTR [ebp-204]
	mov	ecx, 51					; 00000033H
	mov	eax, -858993460				; ccccccccH
	rep stosd
	pop	ecx
	mov	DWORD PTR _this$[ebp], ecx
	mov	eax, DWORD PTR ___flags$[ebp]
	and	eax, 2
	je	SHORT $LN3@vector
	push	OFFSET ??1MatchInfoCollection@TimeZoneNames@icu_56@@UAE@XZ ; icu_56::TimeZoneNames::MatchInfoCollection::~MatchInfoCollection
	mov	eax, DWORD PTR _this$[ebp]
	mov	ecx, DWORD PTR [eax-4]
	push	ecx
	push	8
	mov	edx, DWORD PTR _this$[ebp]
	push	edx
	call	??_M@YGXPAXIHP6EX0@Z@Z
	mov	eax, DWORD PTR ___flags$[ebp]
	and	eax, 1
	je	SHORT $LN2@vector
	mov	eax, DWORD PTR _this$[ebp]
	sub	eax, 4
	mov	esi, esp
	push	eax
	call	DWORD PTR __imp_??_VUMemory@icu_56@@SAXPAX@Z
	add	esp, 4
	cmp	esi, esp
	call	__RTC_CheckEsp
$LN2@vector:
	mov	eax, DWORD PTR _this$[ebp]
	sub	eax, 4
	jmp	SHORT $LN4@vector
$LN3@vector:
	mov	ecx, DWORD PTR _this$[ebp]
	call	??1MatchInfoCollection@TimeZoneNames@icu_56@@UAE@XZ ; icu_56::TimeZoneNames::MatchInfoCollection::~MatchInfoCollection
	mov	eax, DWORD PTR ___flags$[ebp]
	and	eax, 1
	je	SHORT $LN1@vector
	mov	esi, esp
	mov	eax, DWORD PTR _this$[ebp]
	push	eax
	call	DWORD PTR __imp_??3UMemory@icu_56@@SAXPAX@Z
	add	esp, 4
	cmp	esi, esp
	call	__RTC_CheckEsp
$LN1@vector:
	mov	eax, DWORD PTR _this$[ebp]
$LN4@vector:
	pop	edi
	pop	esi
	pop	ebx
	add	esp, 204				; 000000ccH
	cmp	ebp, esp
	call	__RTC_CheckEsp
	mov	esp, ebp
	pop	ebp
	ret	4
??_EMatchInfoCollection@TimeZoneNames@icu_56@@UAEPAXI@Z ENDP ; icu_56::TimeZoneNames::MatchInfoCollection::`vector deleting destructor'
_TEXT	ENDS
PUBLIC	??_7TimeZoneNames@icu_56@@6B@			; icu_56::TimeZoneNames::`vftable'
PUBLIC	??0TimeZoneNames@icu_56@@QAE@XZ			; icu_56::TimeZoneNames::TimeZoneNames
PUBLIC	??_R4TimeZoneNames@icu_56@@6B@			; icu_56::TimeZoneNames::`RTTI Complete Object Locator'
PUBLIC	??_R0?AVTimeZoneNames@icu_56@@@8		; icu_56::TimeZoneNames `RTTI Type Descriptor'
PUBLIC	??_R3TimeZoneNames@icu_56@@8			; icu_56::TimeZoneNames::`RTTI Class Hierarchy Descriptor'
PUBLIC	??_R2TimeZoneNames@icu_56@@8			; icu_56::TimeZoneNames::`RTTI Base Class Array'
PUBLIC	??_R1A@?0A@EA@TimeZoneNames@icu_56@@8		; icu_56::TimeZoneNames::`RTTI Base Class Descriptor at (0,-1,0,64)'
PUBLIC	??_R1A@?0A@EA@UObject@icu_56@@8			; icu_56::UObject::`RTTI Base Class Descriptor at (0,-1,0,64)'
PUBLIC	??_R0?AVUObject@icu_56@@@8			; icu_56::UObject `RTTI Type Descriptor'
PUBLIC	??_R3UObject@icu_56@@8				; icu_56::UObject::`RTTI Class Hierarchy Descriptor'
PUBLIC	??_R2UObject@icu_56@@8				; icu_56::UObject::`RTTI Base Class Array'
PUBLIC	??_ETimeZoneNames@icu_56@@UAEPAXI@Z		; icu_56::TimeZoneNames::`vector deleting destructor'
EXTRN	__imp_??0UObject@icu_56@@QAE@XZ:PROC
EXTRN	?getDynamicClassID@UObject@icu_56@@UBEPAXXZ:PROC ; icu_56::UObject::getDynamicClassID
EXTRN	__purecall:PROC
EXTRN	?getExemplarLocationName@TimeZoneNames@icu_56@@UBEAAVUnicodeString@2@ABV32@AAV32@@Z:PROC ; icu_56::TimeZoneNames::getExemplarLocationName
EXTRN	?getDisplayName@TimeZoneNames@icu_56@@UBEAAVUnicodeString@2@ABV32@W4UTimeZoneNameType@@NAAV32@@Z:PROC ; icu_56::TimeZoneNames::getDisplayName
;	COMDAT ??_R2UObject@icu_56@@8
rdata$r	SEGMENT
??_R2UObject@icu_56@@8 DD FLAT:??_R1A@?0A@EA@UObject@icu_56@@8 ; icu_56::UObject::`RTTI Base Class Array'
	DD	FLAT:??_R13?0A@EA@UMemory@icu_56@@8
rdata$r	ENDS
;	COMDAT ??_R3UObject@icu_56@@8
rdata$r	SEGMENT
??_R3UObject@icu_56@@8 DD 00H				; icu_56::UObject::`RTTI Class Hierarchy Descriptor'
	DD	00H
	DD	02H
	DD	FLAT:??_R2UObject@icu_56@@8
rdata$r	ENDS
;	COMDAT ??_R0?AVUObject@icu_56@@@8
_DATA	SEGMENT
??_R0?AVUObject@icu_56@@@8 DD FLAT:??_7type_info@@6B@	; icu_56::UObject `RTTI Type Descriptor'
	DD	00H
	DB	'.?AVUObject@icu_56@@', 00H
_DATA	ENDS
;	COMDAT ??_R1A@?0A@EA@UObject@icu_56@@8
rdata$r	SEGMENT
??_R1A@?0A@EA@UObject@icu_56@@8 DD FLAT:??_R0?AVUObject@icu_56@@@8 ; icu_56::UObject::`RTTI Base Class Descriptor at (0,-1,0,64)'
	DD	01H
	DD	00H
	DD	0ffffffffH
	DD	00H
	DD	040H
	DD	FLAT:??_R3UObject@icu_56@@8
rdata$r	ENDS
;	COMDAT ??_R1A@?0A@EA@TimeZoneNames@icu_56@@8
rdata$r	SEGMENT
??_R1A@?0A@EA@TimeZoneNames@icu_56@@8 DD FLAT:??_R0?AVTimeZoneNames@icu_56@@@8 ; icu_56::TimeZoneNames::`RTTI Base Class Descriptor at (0,-1,0,64)'
	DD	02H
	DD	00H
	DD	0ffffffffH
	DD	00H
	DD	040H
	DD	FLAT:??_R3TimeZoneNames@icu_56@@8
rdata$r	ENDS
;	COMDAT ??_R2TimeZoneNames@icu_56@@8
rdata$r	SEGMENT
??_R2TimeZoneNames@icu_56@@8 DD FLAT:??_R1A@?0A@EA@TimeZoneNames@icu_56@@8 ; icu_56::TimeZoneNames::`RTTI Base Class Array'
	DD	FLAT:??_R1A@?0A@EA@UObject@icu_56@@8
	DD	FLAT:??_R13?0A@EA@UMemory@icu_56@@8
rdata$r	ENDS
;	COMDAT ??_R3TimeZoneNames@icu_56@@8
rdata$r	SEGMENT
??_R3TimeZoneNames@icu_56@@8 DD 00H			; icu_56::TimeZoneNames::`RTTI Class Hierarchy Descriptor'
	DD	00H
	DD	03H
	DD	FLAT:??_R2TimeZoneNames@icu_56@@8
rdata$r	ENDS
;	COMDAT ??_R0?AVTimeZoneNames@icu_56@@@8
_DATA	SEGMENT
??_R0?AVTimeZoneNames@icu_56@@@8 DD FLAT:??_7type_info@@6B@ ; icu_56::TimeZoneNames `RTTI Type Descriptor'
	DD	00H
	DB	'.?AVTimeZoneNames@icu_56@@', 00H
_DATA	ENDS
;	COMDAT ??_R4TimeZoneNames@icu_56@@6B@
rdata$r	SEGMENT
??_R4TimeZoneNames@icu_56@@6B@ DD 00H			; icu_56::TimeZoneNames::`RTTI Complete Object Locator'
	DD	00H
	DD	00H
	DD	FLAT:??_R0?AVTimeZoneNames@icu_56@@@8
	DD	FLAT:??_R3TimeZoneNames@icu_56@@8
rdata$r	ENDS
;	COMDAT ??_7TimeZoneNames@icu_56@@6B@
CONST	SEGMENT
??_7TimeZoneNames@icu_56@@6B@ DD FLAT:??_R4TimeZoneNames@icu_56@@6B@ ; icu_56::TimeZoneNames::`vftable'
	DD	FLAT:??_ETimeZoneNames@icu_56@@UAEPAXI@Z
	DD	FLAT:?getDynamicClassID@UObject@icu_56@@UBEPAXXZ
	DD	FLAT:__purecall
	DD	FLAT:__purecall
	DD	FLAT:__purecall
	DD	FLAT:__purecall
	DD	FLAT:__purecall
	DD	FLAT:__purecall
	DD	FLAT:__purecall
	DD	FLAT:__purecall
	DD	FLAT:?getExemplarLocationName@TimeZoneNames@icu_56@@UBEAAVUnicodeString@2@ABV32@AAV32@@Z
	DD	FLAT:?getDisplayName@TimeZoneNames@icu_56@@UBEAAVUnicodeString@2@ABV32@W4UTimeZoneNameType@@NAAV32@@Z
	DD	FLAT:__purecall
; Function compile flags: /Odtp /RTCsu /ZI
CONST	ENDS
;	COMDAT ??0TimeZoneNames@icu_56@@QAE@XZ
_TEXT	SEGMENT
_this$ = -8						; size = 4
??0TimeZoneNames@icu_56@@QAE@XZ PROC			; icu_56::TimeZoneNames::TimeZoneNames, COMDAT
; _this$ = ecx
	push	ebp
	mov	ebp, esp
	sub	esp, 204				; 000000ccH
	push	ebx
	push	esi
	push	edi
	push	ecx
	lea	edi, DWORD PTR [ebp-204]
	mov	ecx, 51					; 00000033H
	mov	eax, -858993460				; ccccccccH
	rep stosd
	pop	ecx
	mov	DWORD PTR _this$[ebp], ecx
	mov	esi, esp
	mov	ecx, DWORD PTR _this$[ebp]
	call	DWORD PTR __imp_??0UObject@icu_56@@QAE@XZ
	cmp	esi, esp
	call	__RTC_CheckEsp
	mov	eax, DWORD PTR _this$[ebp]
	mov	DWORD PTR [eax], OFFSET ??_7TimeZoneNames@icu_56@@6B@
	mov	eax, DWORD PTR _this$[ebp]
	pop	edi
	pop	esi
	pop	ebx
	add	esp, 204				; 000000ccH
	cmp	ebp, esp
	call	__RTC_CheckEsp
	mov	esp, ebp
	pop	ebp
	ret	0
??0TimeZoneNames@icu_56@@QAE@XZ ENDP			; icu_56::TimeZoneNames::TimeZoneNames
_TEXT	ENDS
PUBLIC	??0TimeZoneNames@icu_56@@QAE@ABV01@@Z		; icu_56::TimeZoneNames::TimeZoneNames
EXTRN	__imp_??0UObject@icu_56@@QAE@ABV01@@Z:PROC
; Function compile flags: /Odtp /RTCsu /ZI
;	COMDAT ??0TimeZoneNames@icu_56@@QAE@ABV01@@Z
_TEXT	SEGMENT
_this$ = -8						; size = 4
___that$ = 8						; size = 4
??0TimeZoneNames@icu_56@@QAE@ABV01@@Z PROC		; icu_56::TimeZoneNames::TimeZoneNames, COMDAT
; _this$ = ecx
	push	ebp
	mov	ebp, esp
	sub	esp, 204				; 000000ccH
	push	ebx
	push	esi
	push	edi
	push	ecx
	lea	edi, DWORD PTR [ebp-204]
	mov	ecx, 51					; 00000033H
	mov	eax, -858993460				; ccccccccH
	rep stosd
	pop	ecx
	mov	DWORD PTR _this$[ebp], ecx
	mov	esi, esp
	mov	eax, DWORD PTR ___that$[ebp]
	push	eax
	mov	ecx, DWORD PTR _this$[ebp]
	call	DWORD PTR __imp_??0UObject@icu_56@@QAE@ABV01@@Z
	cmp	esi, esp
	call	__RTC_CheckEsp
	mov	eax, DWORD PTR _this$[ebp]
	mov	DWORD PTR [eax], OFFSET ??_7TimeZoneNames@icu_56@@6B@
	mov	eax, DWORD PTR _this$[ebp]
	pop	edi
	pop	esi
	pop	ebx
	add	esp, 204				; 000000ccH
	cmp	ebp, esp
	call	__RTC_CheckEsp
	mov	esp, ebp
	pop	ebp
	ret	4
??0TimeZoneNames@icu_56@@QAE@ABV01@@Z ENDP		; icu_56::TimeZoneNames::TimeZoneNames
_TEXT	ENDS
PUBLIC	??4TimeZoneNames@icu_56@@QAEAAV01@ABV01@@Z	; icu_56::TimeZoneNames::operator=
EXTRN	__imp_??4UObject@icu_56@@QAEAAV01@ABV01@@Z:PROC
; Function compile flags: /Odtp /RTCsu /ZI
;	COMDAT ??4TimeZoneNames@icu_56@@QAEAAV01@ABV01@@Z
_TEXT	SEGMENT
_this$ = -8						; size = 4
___that$ = 8						; size = 4
??4TimeZoneNames@icu_56@@QAEAAV01@ABV01@@Z PROC		; icu_56::TimeZoneNames::operator=, COMDAT
; _this$ = ecx
	push	ebp
	mov	ebp, esp
	sub	esp, 204				; 000000ccH
	push	ebx
	push	esi
	push	edi
	push	ecx
	lea	edi, DWORD PTR [ebp-204]
	mov	ecx, 51					; 00000033H
	mov	eax, -858993460				; ccccccccH
	rep stosd
	pop	ecx
	mov	DWORD PTR _this$[ebp], ecx
	mov	esi, esp
	mov	eax, DWORD PTR ___that$[ebp]
	push	eax
	mov	ecx, DWORD PTR _this$[ebp]
	call	DWORD PTR __imp_??4UObject@icu_56@@QAEAAV01@ABV01@@Z
	cmp	esi, esp
	call	__RTC_CheckEsp
	mov	eax, DWORD PTR _this$[ebp]
	pop	edi
	pop	esi
	pop	ebx
	add	esp, 204				; 000000ccH
	cmp	ebp, esp
	call	__RTC_CheckEsp
	mov	esp, ebp
	pop	ebp
	ret	4
??4TimeZoneNames@icu_56@@QAEAAV01@ABV01@@Z ENDP		; icu_56::TimeZoneNames::operator=
_TEXT	ENDS
PUBLIC	??_GTimeZoneNames@icu_56@@UAEPAXI@Z		; icu_56::TimeZoneNames::`scalar deleting destructor'
EXTRN	??1TimeZoneNames@icu_56@@UAE@XZ:PROC		; icu_56::TimeZoneNames::~TimeZoneNames
; Function compile flags: /Odtp /RTCsu /ZI
;	COMDAT ??_GTimeZoneNames@icu_56@@UAEPAXI@Z
_TEXT	SEGMENT
_this$ = -8						; size = 4
___flags$ = 8						; size = 4
??_GTimeZoneNames@icu_56@@UAEPAXI@Z PROC		; icu_56::TimeZoneNames::`scalar deleting destructor', COMDAT
; _this$ = ecx
	push	ebp
	mov	ebp, esp
	sub	esp, 204				; 000000ccH
	push	ebx
	push	esi
	push	edi
	push	ecx
	lea	edi, DWORD PTR [ebp-204]
	mov	ecx, 51					; 00000033H
	mov	eax, -858993460				; ccccccccH
	rep stosd
	pop	ecx
	mov	DWORD PTR _this$[ebp], ecx
	mov	ecx, DWORD PTR _this$[ebp]
	call	??1TimeZoneNames@icu_56@@UAE@XZ		; icu_56::TimeZoneNames::~TimeZoneNames
	mov	eax, DWORD PTR ___flags$[ebp]
	and	eax, 1
	je	SHORT $LN1@scalar@2
	mov	esi, esp
	mov	eax, DWORD PTR _this$[ebp]
	push	eax
	call	DWORD PTR __imp_??3UMemory@icu_56@@SAXPAX@Z
	add	esp, 4
	cmp	esi, esp
	call	__RTC_CheckEsp
$LN1@scalar@2:
	mov	eax, DWORD PTR _this$[ebp]
	pop	edi
	pop	esi
	pop	ebx
	add	esp, 204				; 000000ccH
	cmp	ebp, esp
	call	__RTC_CheckEsp
	mov	esp, ebp
	pop	ebp
	ret	4
??_GTimeZoneNames@icu_56@@UAEPAXI@Z ENDP		; icu_56::TimeZoneNames::`scalar deleting destructor'
; Function compile flags: /Odtp /RTCsu /ZI
_TEXT	ENDS
;	COMDAT ??_ETimeZoneNames@icu_56@@UAEPAXI@Z
_TEXT	SEGMENT
_this$ = -8						; size = 4
___flags$ = 8						; size = 4
??_ETimeZoneNames@icu_56@@UAEPAXI@Z PROC		; icu_56::TimeZoneNames::`vector deleting destructor', COMDAT
; _this$ = ecx
	push	ebp
	mov	ebp, esp
	sub	esp, 204				; 000000ccH
	push	ebx
	push	esi
	push	edi
	push	ecx
	lea	edi, DWORD PTR [ebp-204]
	mov	ecx, 51					; 00000033H
	mov	eax, -858993460				; ccccccccH
	rep stosd
	pop	ecx
	mov	DWORD PTR _this$[ebp], ecx
	mov	eax, DWORD PTR ___flags$[ebp]
	and	eax, 2
	je	SHORT $LN3@vector@2
	push	OFFSET ??1TimeZoneNames@icu_56@@UAE@XZ	; icu_56::TimeZoneNames::~TimeZoneNames
	mov	eax, DWORD PTR _this$[ebp]
	mov	ecx, DWORD PTR [eax-4]
	push	ecx
	push	4
	mov	edx, DWORD PTR _this$[ebp]
	push	edx
	call	??_M@YGXPAXIHP6EX0@Z@Z
	mov	eax, DWORD PTR ___flags$[ebp]
	and	eax, 1
	je	SHORT $LN2@vector@2
	mov	eax, DWORD PTR _this$[ebp]
	sub	eax, 4
	mov	esi, esp
	push	eax
	call	DWORD PTR __imp_??_VUMemory@icu_56@@SAXPAX@Z
	add	esp, 4
	cmp	esi, esp
	call	__RTC_CheckEsp
$LN2@vector@2:
	mov	eax, DWORD PTR _this$[ebp]
	sub	eax, 4
	jmp	SHORT $LN4@vector@2
$LN3@vector@2:
	mov	ecx, DWORD PTR _this$[ebp]
	call	??1TimeZoneNames@icu_56@@UAE@XZ		; icu_56::TimeZoneNames::~TimeZoneNames
	mov	eax, DWORD PTR ___flags$[ebp]
	and	eax, 1
	je	SHORT $LN1@vector@2
	mov	esi, esp
	mov	eax, DWORD PTR _this$[ebp]
	push	eax
	call	DWORD PTR __imp_??3UMemory@icu_56@@SAXPAX@Z
	add	esp, 4
	cmp	esi, esp
	call	__RTC_CheckEsp
$LN1@vector@2:
	mov	eax, DWORD PTR _this$[ebp]
$LN4@vector@2:
	pop	edi
	pop	esi
	pop	ebx
	add	esp, 204				; 000000ccH
	cmp	ebp, esp
	call	__RTC_CheckEsp
	mov	esp, ebp
	pop	ebp
	ret	4
??_ETimeZoneNames@icu_56@@UAEPAXI@Z ENDP		; icu_56::TimeZoneNames::`vector deleting destructor'
_TEXT	ENDS
PUBLIC	??4ZNStringPool@icu_56@@QAEAAV01@ABV01@@Z	; icu_56::ZNStringPool::operator=
; Function compile flags: /Odtp /RTCsu /ZI
;	COMDAT ??4ZNStringPool@icu_56@@QAEAAV01@ABV01@@Z
_TEXT	SEGMENT
_this$ = -8						; size = 4
___that$ = 8						; size = 4
??4ZNStringPool@icu_56@@QAEAAV01@ABV01@@Z PROC		; icu_56::ZNStringPool::operator=, COMDAT
; _this$ = ecx
	push	ebp
	mov	ebp, esp
	sub	esp, 204				; 000000ccH
	push	ebx
	push	esi
	push	edi
	push	ecx
	lea	edi, DWORD PTR [ebp-204]
	mov	ecx, 51					; 00000033H
	mov	eax, -858993460				; ccccccccH
	rep stosd
	pop	ecx
	mov	DWORD PTR _this$[ebp], ecx
	mov	eax, DWORD PTR ___that$[ebp]
	mov	ecx, DWORD PTR [eax]
	mov	edx, DWORD PTR [eax+4]
	mov	eax, DWORD PTR _this$[ebp]
	mov	DWORD PTR [eax], ecx
	mov	DWORD PTR [eax+4], edx
	mov	eax, DWORD PTR _this$[ebp]
	pop	edi
	pop	esi
	pop	ebx
	mov	esp, ebp
	pop	ebp
	ret	4
??4ZNStringPool@icu_56@@QAEAAV01@ABV01@@Z ENDP		; icu_56::ZNStringPool::operator=
_TEXT	ENDS
PUBLIC	??_7TextTrieMap@icu_56@@6B@			; icu_56::TextTrieMap::`vftable'
PUBLIC	??0TextTrieMap@icu_56@@QAE@ABV01@@Z		; icu_56::TextTrieMap::TextTrieMap
PUBLIC	??_R4TextTrieMap@icu_56@@6B@			; icu_56::TextTrieMap::`RTTI Complete Object Locator'
PUBLIC	??_R0?AVTextTrieMap@icu_56@@@8			; icu_56::TextTrieMap `RTTI Type Descriptor'
PUBLIC	??_R3TextTrieMap@icu_56@@8			; icu_56::TextTrieMap::`RTTI Class Hierarchy Descriptor'
PUBLIC	??_R2TextTrieMap@icu_56@@8			; icu_56::TextTrieMap::`RTTI Base Class Array'
PUBLIC	??_R1A@?0A@EA@TextTrieMap@icu_56@@8		; icu_56::TextTrieMap::`RTTI Base Class Descriptor at (0,-1,0,64)'
PUBLIC	??_ETextTrieMap@icu_56@@UAEPAXI@Z		; icu_56::TextTrieMap::`vector deleting destructor'
;	COMDAT ??_R1A@?0A@EA@TextTrieMap@icu_56@@8
rdata$r	SEGMENT
??_R1A@?0A@EA@TextTrieMap@icu_56@@8 DD FLAT:??_R0?AVTextTrieMap@icu_56@@@8 ; icu_56::TextTrieMap::`RTTI Base Class Descriptor at (0,-1,0,64)'
	DD	01H
	DD	00H
	DD	0ffffffffH
	DD	00H
	DD	040H
	DD	FLAT:??_R3TextTrieMap@icu_56@@8
rdata$r	ENDS
;	COMDAT ??_R2TextTrieMap@icu_56@@8
rdata$r	SEGMENT
??_R2TextTrieMap@icu_56@@8 DD FLAT:??_R1A@?0A@EA@TextTrieMap@icu_56@@8 ; icu_56::TextTrieMap::`RTTI Base Class Array'
	DD	FLAT:??_R13?0A@EA@UMemory@icu_56@@8
rdata$r	ENDS
;	COMDAT ??_R3TextTrieMap@icu_56@@8
rdata$r	SEGMENT
??_R3TextTrieMap@icu_56@@8 DD 00H			; icu_56::TextTrieMap::`RTTI Class Hierarchy Descriptor'
	DD	00H
	DD	02H
	DD	FLAT:??_R2TextTrieMap@icu_56@@8
rdata$r	ENDS
;	COMDAT ??_R0?AVTextTrieMap@icu_56@@@8
_DATA	SEGMENT
??_R0?AVTextTrieMap@icu_56@@@8 DD FLAT:??_7type_info@@6B@ ; icu_56::TextTrieMap `RTTI Type Descriptor'
	DD	00H
	DB	'.?AVTextTrieMap@icu_56@@', 00H
_DATA	ENDS
;	COMDAT ??_R4TextTrieMap@icu_56@@6B@
rdata$r	SEGMENT
??_R4TextTrieMap@icu_56@@6B@ DD 00H			; icu_56::TextTrieMap::`RTTI Complete Object Locator'
	DD	00H
	DD	00H
	DD	FLAT:??_R0?AVTextTrieMap@icu_56@@@8
	DD	FLAT:??_R3TextTrieMap@icu_56@@8
rdata$r	ENDS
;	COMDAT ??_7TextTrieMap@icu_56@@6B@
CONST	SEGMENT
??_7TextTrieMap@icu_56@@6B@ DD FLAT:??_R4TextTrieMap@icu_56@@6B@ ; icu_56::TextTrieMap::`vftable'
	DD	FLAT:??_ETextTrieMap@icu_56@@UAEPAXI@Z
; Function compile flags: /Odtp /RTCsu /ZI
CONST	ENDS
;	COMDAT ??0TextTrieMap@icu_56@@QAE@ABV01@@Z
_TEXT	SEGMENT
tv68 = -208						; size = 4
_this$ = -8						; size = 4
___that$ = 8						; size = 4
??0TextTrieMap@icu_56@@QAE@ABV01@@Z PROC		; icu_56::TextTrieMap::TextTrieMap, COMDAT
; _this$ = ecx
	push	ebp
	mov	ebp, esp
	sub	esp, 208				; 000000d0H
	push	ebx
	push	esi
	push	edi
	push	ecx
	lea	edi, DWORD PTR [ebp-208]
	mov	ecx, 52					; 00000034H
	mov	eax, -858993460				; ccccccccH
	rep stosd
	pop	ecx
	mov	DWORD PTR _this$[ebp], ecx
	cmp	DWORD PTR ___that$[ebp], 0
	je	SHORT $LN3@TextTrieMa
	mov	eax, DWORD PTR ___that$[ebp]
	add	eax, 4
	mov	DWORD PTR tv68[ebp], eax
	jmp	SHORT $LN4@TextTrieMa
$LN3@TextTrieMa:
	mov	DWORD PTR tv68[ebp], 0
$LN4@TextTrieMa:
	mov	eax, DWORD PTR _this$[ebp]
	mov	DWORD PTR [eax], OFFSET ??_7TextTrieMap@icu_56@@6B@
	mov	eax, DWORD PTR _this$[ebp]
	mov	ecx, DWORD PTR ___that$[ebp]
	mov	dl, BYTE PTR [ecx+4]
	mov	BYTE PTR [eax+4], dl
	mov	eax, DWORD PTR _this$[ebp]
	mov	ecx, DWORD PTR ___that$[ebp]
	mov	edx, DWORD PTR [ecx+8]
	mov	DWORD PTR [eax+8], edx
	mov	eax, DWORD PTR _this$[ebp]
	mov	ecx, DWORD PTR ___that$[ebp]
	mov	edx, DWORD PTR [ecx+12]
	mov	DWORD PTR [eax+12], edx
	mov	eax, DWORD PTR _this$[ebp]
	mov	ecx, DWORD PTR ___that$[ebp]
	mov	edx, DWORD PTR [ecx+16]
	mov	DWORD PTR [eax+16], edx
	mov	eax, DWORD PTR _this$[ebp]
	mov	ecx, DWORD PTR ___that$[ebp]
	mov	edx, DWORD PTR [ecx+20]
	mov	DWORD PTR [eax+20], edx
	mov	eax, DWORD PTR _this$[ebp]
	mov	ecx, DWORD PTR ___that$[ebp]
	mov	dl, BYTE PTR [ecx+24]
	mov	BYTE PTR [eax+24], dl
	mov	eax, DWORD PTR _this$[ebp]
	mov	ecx, DWORD PTR ___that$[ebp]
	mov	edx, DWORD PTR [ecx+28]
	mov	DWORD PTR [eax+28], edx
	mov	eax, DWORD PTR _this$[ebp]
	pop	edi
	pop	esi
	pop	ebx
	mov	esp, ebp
	pop	ebp
	ret	4
??0TextTrieMap@icu_56@@QAE@ABV01@@Z ENDP		; icu_56::TextTrieMap::TextTrieMap
_TEXT	ENDS
PUBLIC	??4TextTrieMap@icu_56@@QAEAAV01@ABV01@@Z	; icu_56::TextTrieMap::operator=
; Function compile flags: /Odtp /RTCsu /ZI
;	COMDAT ??4TextTrieMap@icu_56@@QAEAAV01@ABV01@@Z
_TEXT	SEGMENT
_this$ = -8						; size = 4
___that$ = 8						; size = 4
??4TextTrieMap@icu_56@@QAEAAV01@ABV01@@Z PROC		; icu_56::TextTrieMap::operator=, COMDAT
; _this$ = ecx
	push	ebp
	mov	ebp, esp
	sub	esp, 204				; 000000ccH
	push	ebx
	push	esi
	push	edi
	push	ecx
	lea	edi, DWORD PTR [ebp-204]
	mov	ecx, 51					; 00000033H
	mov	eax, -858993460				; ccccccccH
	rep stosd
	pop	ecx
	mov	DWORD PTR _this$[ebp], ecx
	mov	eax, DWORD PTR _this$[ebp]
	mov	ecx, DWORD PTR ___that$[ebp]
	mov	dl, BYTE PTR [ecx+4]
	mov	BYTE PTR [eax+4], dl
	mov	eax, DWORD PTR _this$[ebp]
	mov	ecx, DWORD PTR ___that$[ebp]
	mov	edx, DWORD PTR [ecx+8]
	mov	DWORD PTR [eax+8], edx
	mov	eax, DWORD PTR _this$[ebp]
	mov	ecx, DWORD PTR ___that$[ebp]
	mov	edx, DWORD PTR [ecx+12]
	mov	DWORD PTR [eax+12], edx
	mov	eax, DWORD PTR _this$[ebp]
	mov	ecx, DWORD PTR ___that$[ebp]
	mov	edx, DWORD PTR [ecx+16]
	mov	DWORD PTR [eax+16], edx
	mov	eax, DWORD PTR _this$[ebp]
	mov	ecx, DWORD PTR ___that$[ebp]
	mov	edx, DWORD PTR [ecx+20]
	mov	DWORD PTR [eax+20], edx
	mov	eax, DWORD PTR _this$[ebp]
	mov	ecx, DWORD PTR ___that$[ebp]
	mov	dl, BYTE PTR [ecx+24]
	mov	BYTE PTR [eax+24], dl
	mov	eax, DWORD PTR _this$[ebp]
	mov	ecx, DWORD PTR ___that$[ebp]
	mov	edx, DWORD PTR [ecx+28]
	mov	DWORD PTR [eax+28], edx
	mov	eax, DWORD PTR _this$[ebp]
	pop	edi
	pop	esi
	pop	ebx
	mov	esp, ebp
	pop	ebp
	ret	4
??4TextTrieMap@icu_56@@QAEAAV01@ABV01@@Z ENDP		; icu_56::TextTrieMap::operator=
_TEXT	ENDS
PUBLIC	??1TextTrieMap@icu_56@@UAE@XZ			; icu_56::TextTrieMap::~TextTrieMap
PUBLIC	??_GTextTrieMap@icu_56@@UAEPAXI@Z		; icu_56::TextTrieMap::`scalar deleting destructor'
; Function compile flags: /Odtp /RTCsu /ZI
;	COMDAT ??_GTextTrieMap@icu_56@@UAEPAXI@Z
_TEXT	SEGMENT
_this$ = -8						; size = 4
___flags$ = 8						; size = 4
??_GTextTrieMap@icu_56@@UAEPAXI@Z PROC			; icu_56::TextTrieMap::`scalar deleting destructor', COMDAT
; _this$ = ecx
	push	ebp
	mov	ebp, esp
	sub	esp, 204				; 000000ccH
	push	ebx
	push	esi
	push	edi
	push	ecx
	lea	edi, DWORD PTR [ebp-204]
	mov	ecx, 51					; 00000033H
	mov	eax, -858993460				; ccccccccH
	rep stosd
	pop	ecx
	mov	DWORD PTR _this$[ebp], ecx
	mov	ecx, DWORD PTR _this$[ebp]
	call	??1TextTrieMap@icu_56@@UAE@XZ		; icu_56::TextTrieMap::~TextTrieMap
	mov	eax, DWORD PTR ___flags$[ebp]
	and	eax, 1
	je	SHORT $LN1@scalar@3
	mov	esi, esp
	mov	eax, DWORD PTR _this$[ebp]
	push	eax
	call	DWORD PTR __imp_??3UMemory@icu_56@@SAXPAX@Z
	add	esp, 4
	cmp	esi, esp
	call	__RTC_CheckEsp
$LN1@scalar@3:
	mov	eax, DWORD PTR _this$[ebp]
	pop	edi
	pop	esi
	pop	ebx
	add	esp, 204				; 000000ccH
	cmp	ebp, esp
	call	__RTC_CheckEsp
	mov	esp, ebp
	pop	ebp
	ret	4
??_GTextTrieMap@icu_56@@UAEPAXI@Z ENDP			; icu_56::TextTrieMap::`scalar deleting destructor'
; Function compile flags: /Odtp /RTCsu /ZI
_TEXT	ENDS
;	COMDAT ??_ETextTrieMap@icu_56@@UAEPAXI@Z
_TEXT	SEGMENT
_this$ = -8						; size = 4
___flags$ = 8						; size = 4
??_ETextTrieMap@icu_56@@UAEPAXI@Z PROC			; icu_56::TextTrieMap::`vector deleting destructor', COMDAT
; _this$ = ecx
	push	ebp
	mov	ebp, esp
	sub	esp, 204				; 000000ccH
	push	ebx
	push	esi
	push	edi
	push	ecx
	lea	edi, DWORD PTR [ebp-204]
	mov	ecx, 51					; 00000033H
	mov	eax, -858993460				; ccccccccH
	rep stosd
	pop	ecx
	mov	DWORD PTR _this$[ebp], ecx
	mov	eax, DWORD PTR ___flags$[ebp]
	and	eax, 2
	je	SHORT $LN3@vector@3
	push	OFFSET ??1TextTrieMap@icu_56@@UAE@XZ	; icu_56::TextTrieMap::~TextTrieMap
	mov	eax, DWORD PTR _this$[ebp]
	mov	ecx, DWORD PTR [eax-4]
	push	ecx
	push	32					; 00000020H
	mov	edx, DWORD PTR _this$[ebp]
	push	edx
	call	??_M@YGXPAXIHP6EX0@Z@Z
	mov	eax, DWORD PTR ___flags$[ebp]
	and	eax, 1
	je	SHORT $LN2@vector@3
	mov	eax, DWORD PTR _this$[ebp]
	sub	eax, 4
	mov	esi, esp
	push	eax
	call	DWORD PTR __imp_??_VUMemory@icu_56@@SAXPAX@Z
	add	esp, 4
	cmp	esi, esp
	call	__RTC_CheckEsp
$LN2@vector@3:
	mov	eax, DWORD PTR _this$[ebp]
	sub	eax, 4
	jmp	SHORT $LN4@vector@3
$LN3@vector@3:
	mov	ecx, DWORD PTR _this$[ebp]
	call	??1TextTrieMap@icu_56@@UAE@XZ		; icu_56::TextTrieMap::~TextTrieMap
	mov	eax, DWORD PTR ___flags$[ebp]
	and	eax, 1
	je	SHORT $LN1@vector@3
	mov	esi, esp
	mov	eax, DWORD PTR _this$[ebp]
	push	eax
	call	DWORD PTR __imp_??3UMemory@icu_56@@SAXPAX@Z
	add	esp, 4
	cmp	esi, esp
	call	__RTC_CheckEsp
$LN1@vector@3:
	mov	eax, DWORD PTR _this$[ebp]
$LN4@vector@3:
	pop	edi
	pop	esi
	pop	ebx
	add	esp, 204				; 000000ccH
	cmp	ebp, esp
	call	__RTC_CheckEsp
	mov	esp, ebp
	pop	ebp
	ret	4
??_ETextTrieMap@icu_56@@UAEPAXI@Z ENDP			; icu_56::TextTrieMap::`vector deleting destructor'
_TEXT	ENDS
PUBLIC	??4ZoneMeta@icu_56@@QAEAAV01@ABV01@@Z		; icu_56::ZoneMeta::operator=
; Function compile flags: /Odtp /RTCsu /ZI
;	COMDAT ??4ZoneMeta@icu_56@@QAEAAV01@ABV01@@Z
_TEXT	SEGMENT
_this$ = -8						; size = 4
___that$ = 8						; size = 4
??4ZoneMeta@icu_56@@QAEAAV01@ABV01@@Z PROC		; icu_56::ZoneMeta::operator=, COMDAT
; _this$ = ecx
	push	ebp
	mov	ebp, esp
	sub	esp, 204				; 000000ccH
	push	ebx
	push	esi
	push	edi
	push	ecx
	lea	edi, DWORD PTR [ebp-204]
	mov	ecx, 51					; 00000033H
	mov	eax, -858993460				; ccccccccH
	rep stosd
	pop	ecx
	mov	DWORD PTR _this$[ebp], ecx
	mov	eax, DWORD PTR _this$[ebp]
	pop	edi
	pop	esi
	pop	ebx
	mov	esp, ebp
	pop	ebp
	ret	4
??4ZoneMeta@icu_56@@QAEAAV01@ABV01@@Z ENDP		; icu_56::ZoneMeta::operator=
_TEXT	ENDS
PUBLIC	??4BasicTimeZone@icu_56@@QAEAAV01@ABV01@@Z	; icu_56::BasicTimeZone::operator=
EXTRN	??4TimeZone@icu_56@@IAEAAV01@ABV01@@Z:PROC	; icu_56::TimeZone::operator=
; Function compile flags: /Odtp /RTCsu /ZI
;	COMDAT ??4BasicTimeZone@icu_56@@QAEAAV01@ABV01@@Z
_TEXT	SEGMENT
_this$ = -8						; size = 4
___that$ = 8						; size = 4
??4BasicTimeZone@icu_56@@QAEAAV01@ABV01@@Z PROC		; icu_56::BasicTimeZone::operator=, COMDAT
; _this$ = ecx
	push	ebp
	mov	ebp, esp
	sub	esp, 204				; 000000ccH
	push	ebx
	push	esi
	push	edi
	push	ecx
	lea	edi, DWORD PTR [ebp-204]
	mov	ecx, 51					; 00000033H
	mov	eax, -858993460				; ccccccccH
	rep stosd
	pop	ecx
	mov	DWORD PTR _this$[ebp], ecx
	mov	eax, DWORD PTR ___that$[ebp]
	push	eax
	mov	ecx, DWORD PTR _this$[ebp]
	call	??4TimeZone@icu_56@@IAEAAV01@ABV01@@Z	; icu_56::TimeZone::operator=
	mov	eax, DWORD PTR _this$[ebp]
	pop	edi
	pop	esi
	pop	ebx
	add	esp, 204				; 000000ccH
	cmp	ebp, esp
	call	__RTC_CheckEsp
	mov	esp, ebp
	pop	ebp
	ret	4
??4BasicTimeZone@icu_56@@QAEAAV01@ABV01@@Z ENDP		; icu_56::BasicTimeZone::operator=
_TEXT	ENDS
PUBLIC	?transitionCount@OlsonTimeZone@icu_56@@ABEFXZ	; icu_56::OlsonTimeZone::transitionCount
; Function compile flags: /Odtp /RTCsu /ZI
;	COMDAT ?transitionCount@OlsonTimeZone@icu_56@@ABEFXZ
_TEXT	SEGMENT
_this$ = -8						; size = 4
?transitionCount@OlsonTimeZone@icu_56@@ABEFXZ PROC	; icu_56::OlsonTimeZone::transitionCount, COMDAT
; _this$ = ecx
; File d:\mozilla\intl\icu\source\i18n\olsontz.h
; Line 403
	push	ebp
	mov	ebp, esp
	sub	esp, 204				; 000000ccH
	push	ebx
	push	esi
	push	edi
	push	ecx
	lea	edi, DWORD PTR [ebp-204]
	mov	ecx, 51					; 00000033H
	mov	eax, -858993460				; ccccccccH
	rep stosd
	pop	ecx
	mov	DWORD PTR _this$[ebp], ecx
; Line 404
	mov	eax, DWORD PTR _this$[ebp]
	movsx	eax, WORD PTR [eax+68]
	mov	ecx, DWORD PTR _this$[ebp]
	movsx	edx, WORD PTR [ecx+70]
	add	eax, edx
	mov	ecx, DWORD PTR _this$[ebp]
	movsx	edx, WORD PTR [ecx+72]
	add	eax, edx
; Line 405
	pop	edi
	pop	esi
	pop	ebx
	mov	esp, ebp
	pop	ebp
	ret	0
?transitionCount@OlsonTimeZone@icu_56@@ABEFXZ ENDP	; icu_56::OlsonTimeZone::transitionCount
_TEXT	ENDS
PUBLIC	__real@408f400000000000
PUBLIC	?transitionTime@OlsonTimeZone@icu_56@@ABENF@Z	; icu_56::OlsonTimeZone::transitionTime
EXTRN	?transitionTimeInSeconds@OlsonTimeZone@icu_56@@ABE_JF@Z:PROC ; icu_56::OlsonTimeZone::transitionTimeInSeconds
EXTRN	__fltused:DWORD
;	COMDAT __real@408f400000000000
CONST	SEGMENT
__real@408f400000000000 DQ 0408f400000000000r	; 1000
; Function compile flags: /Odtp /RTCsu /ZI
CONST	ENDS
;	COMDAT ?transitionTime@OlsonTimeZone@icu_56@@ABENF@Z
_TEXT	SEGMENT
tv76 = -212						; size = 8
_this$ = -8						; size = 4
_transIdx$ = 8						; size = 2
?transitionTime@OlsonTimeZone@icu_56@@ABENF@Z PROC	; icu_56::OlsonTimeZone::transitionTime, COMDAT
; _this$ = ecx
; Line 408
	push	ebp
	mov	ebp, esp
	sub	esp, 212				; 000000d4H
	push	ebx
	push	esi
	push	edi
	push	ecx
	lea	edi, DWORD PTR [ebp-212]
	mov	ecx, 53					; 00000035H
	mov	eax, -858993460				; ccccccccH
	rep stosd
	pop	ecx
	mov	DWORD PTR _this$[ebp], ecx
; Line 409
	movzx	eax, WORD PTR _transIdx$[ebp]
	push	eax
	mov	ecx, DWORD PTR _this$[ebp]
	call	?transitionTimeInSeconds@OlsonTimeZone@icu_56@@ABE_JF@Z ; icu_56::OlsonTimeZone::transitionTimeInSeconds
	mov	DWORD PTR tv76[ebp], eax
	mov	DWORD PTR tv76[ebp+4], edx
	fild	QWORD PTR tv76[ebp]
	fmul	QWORD PTR __real@408f400000000000
; Line 410
	pop	edi
	pop	esi
	pop	ebx
	add	esp, 212				; 000000d4H
	cmp	ebp, esp
	call	__RTC_CheckEsp
	mov	esp, ebp
	pop	ebp
	ret	4
?transitionTime@OlsonTimeZone@icu_56@@ABENF@Z ENDP	; icu_56::OlsonTimeZone::transitionTime
_TEXT	ENDS
PUBLIC	?zoneOffsetAt@OlsonTimeZone@icu_56@@ABEHF@Z	; icu_56::OlsonTimeZone::zoneOffsetAt
; Function compile flags: /Odtp /RTCsu /ZI
;	COMDAT ?zoneOffsetAt@OlsonTimeZone@icu_56@@ABEHF@Z
_TEXT	SEGMENT
tv70 = -220						; size = 4
_typeIdx$ = -20						; size = 2
_this$ = -8						; size = 4
_transIdx$ = 8						; size = 2
?zoneOffsetAt@OlsonTimeZone@icu_56@@ABEHF@Z PROC	; icu_56::OlsonTimeZone::zoneOffsetAt, COMDAT
; _this$ = ecx
; Line 413
	push	ebp
	mov	ebp, esp
	sub	esp, 220				; 000000dcH
	push	ebx
	push	esi
	push	edi
	push	ecx
	lea	edi, DWORD PTR [ebp-220]
	mov	ecx, 55					; 00000037H
	mov	eax, -858993460				; ccccccccH
	rep stosd
	pop	ecx
	mov	DWORD PTR _this$[ebp], ecx
; Line 414
	movsx	eax, WORD PTR _transIdx$[ebp]
	test	eax, eax
	jl	SHORT $LN3@zoneOffset
	movsx	ecx, WORD PTR _transIdx$[ebp]
	mov	edx, DWORD PTR _this$[ebp]
	mov	eax, DWORD PTR [edx+96]
	movzx	ecx, BYTE PTR [eax+ecx]
	mov	DWORD PTR tv70[ebp], ecx
	jmp	SHORT $LN4@zoneOffset
$LN3@zoneOffset:
	mov	DWORD PTR tv70[ebp], 0
$LN4@zoneOffset:
	mov	edx, DWORD PTR tv70[ebp]
	shl	edx, 1
	mov	WORD PTR _typeIdx$[ebp], dx
; Line 415
	movsx	eax, WORD PTR _typeIdx$[ebp]
	mov	ecx, DWORD PTR _this$[ebp]
	mov	edx, DWORD PTR [ecx+92]
	movsx	ecx, WORD PTR _typeIdx$[ebp]
	mov	esi, DWORD PTR _this$[ebp]
	mov	esi, DWORD PTR [esi+92]
	mov	eax, DWORD PTR [edx+eax*4]
	add	eax, DWORD PTR [esi+ecx*4+4]
; Line 416
	pop	edi
	pop	esi
	pop	ebx
	mov	esp, ebp
	pop	ebp
	ret	4
?zoneOffsetAt@OlsonTimeZone@icu_56@@ABEHF@Z ENDP	; icu_56::OlsonTimeZone::zoneOffsetAt
_TEXT	ENDS
PUBLIC	?rawOffsetAt@OlsonTimeZone@icu_56@@ABEHF@Z	; icu_56::OlsonTimeZone::rawOffsetAt
; Function compile flags: /Odtp /RTCsu /ZI
;	COMDAT ?rawOffsetAt@OlsonTimeZone@icu_56@@ABEHF@Z
_TEXT	SEGMENT
tv70 = -220						; size = 4
_typeIdx$ = -20						; size = 2
_this$ = -8						; size = 4
_transIdx$ = 8						; size = 2
?rawOffsetAt@OlsonTimeZone@icu_56@@ABEHF@Z PROC		; icu_56::OlsonTimeZone::rawOffsetAt, COMDAT
; _this$ = ecx
; Line 419
	push	ebp
	mov	ebp, esp
	sub	esp, 220				; 000000dcH
	push	ebx
	push	esi
	push	edi
	push	ecx
	lea	edi, DWORD PTR [ebp-220]
	mov	ecx, 55					; 00000037H
	mov	eax, -858993460				; ccccccccH
	rep stosd
	pop	ecx
	mov	DWORD PTR _this$[ebp], ecx
; Line 420
	movsx	eax, WORD PTR _transIdx$[ebp]
	test	eax, eax
	jl	SHORT $LN3@rawOffsetA
	movsx	ecx, WORD PTR _transIdx$[ebp]
	mov	edx, DWORD PTR _this$[ebp]
	mov	eax, DWORD PTR [edx+96]
	movzx	ecx, BYTE PTR [eax+ecx]
	mov	DWORD PTR tv70[ebp], ecx
	jmp	SHORT $LN4@rawOffsetA
$LN3@rawOffsetA:
	mov	DWORD PTR tv70[ebp], 0
$LN4@rawOffsetA:
	mov	edx, DWORD PTR tv70[ebp]
	shl	edx, 1
	mov	WORD PTR _typeIdx$[ebp], dx
; Line 421
	movsx	eax, WORD PTR _typeIdx$[ebp]
	mov	ecx, DWORD PTR _this$[ebp]
	mov	edx, DWORD PTR [ecx+92]
	mov	eax, DWORD PTR [edx+eax*4]
; Line 422
	pop	edi
	pop	esi
	pop	ebx
	mov	esp, ebp
	pop	ebp
	ret	4
?rawOffsetAt@OlsonTimeZone@icu_56@@ABEHF@Z ENDP		; icu_56::OlsonTimeZone::rawOffsetAt
_TEXT	ENDS
PUBLIC	?dstOffsetAt@OlsonTimeZone@icu_56@@ABEHF@Z	; icu_56::OlsonTimeZone::dstOffsetAt
; Function compile flags: /Odtp /RTCsu /ZI
;	COMDAT ?dstOffsetAt@OlsonTimeZone@icu_56@@ABEHF@Z
_TEXT	SEGMENT
tv70 = -220						; size = 4
_typeIdx$ = -20						; size = 2
_this$ = -8						; size = 4
_transIdx$ = 8						; size = 2
?dstOffsetAt@OlsonTimeZone@icu_56@@ABEHF@Z PROC		; icu_56::OlsonTimeZone::dstOffsetAt, COMDAT
; _this$ = ecx
; Line 425
	push	ebp
	mov	ebp, esp
	sub	esp, 220				; 000000dcH
	push	ebx
	push	esi
	push	edi
	push	ecx
	lea	edi, DWORD PTR [ebp-220]
	mov	ecx, 55					; 00000037H
	mov	eax, -858993460				; ccccccccH
	rep stosd
	pop	ecx
	mov	DWORD PTR _this$[ebp], ecx
; Line 426
	movsx	eax, WORD PTR _transIdx$[ebp]
	test	eax, eax
	jl	SHORT $LN3@dstOffsetA
	movsx	ecx, WORD PTR _transIdx$[ebp]
	mov	edx, DWORD PTR _this$[ebp]
	mov	eax, DWORD PTR [edx+96]
	movzx	ecx, BYTE PTR [eax+ecx]
	mov	DWORD PTR tv70[ebp], ecx
	jmp	SHORT $LN4@dstOffsetA
$LN3@dstOffsetA:
	mov	DWORD PTR tv70[ebp], 0
$LN4@dstOffsetA:
	mov	edx, DWORD PTR tv70[ebp]
	shl	edx, 1
	mov	WORD PTR _typeIdx$[ebp], dx
; Line 427
	movsx	eax, WORD PTR _typeIdx$[ebp]
	mov	ecx, DWORD PTR _this$[ebp]
	mov	edx, DWORD PTR [ecx+92]
	mov	eax, DWORD PTR [edx+eax*4+4]
; Line 428
	pop	edi
	pop	esi
	pop	ebx
	mov	esp, ebp
	pop	ebp
	ret	4
?dstOffsetAt@OlsonTimeZone@icu_56@@ABEHF@Z ENDP		; icu_56::OlsonTimeZone::dstOffsetAt
_TEXT	ENDS
PUBLIC	?initialRawOffset@OlsonTimeZone@icu_56@@ABEHXZ	; icu_56::OlsonTimeZone::initialRawOffset
; Function compile flags: /Odtp /RTCsu /ZI
;	COMDAT ?initialRawOffset@OlsonTimeZone@icu_56@@ABEHXZ
_TEXT	SEGMENT
_this$ = -8						; size = 4
?initialRawOffset@OlsonTimeZone@icu_56@@ABEHXZ PROC	; icu_56::OlsonTimeZone::initialRawOffset, COMDAT
; _this$ = ecx
; Line 431
	push	ebp
	mov	ebp, esp
	sub	esp, 204				; 000000ccH
	push	ebx
	push	esi
	push	edi
	push	ecx
	lea	edi, DWORD PTR [ebp-204]
	mov	ecx, 51					; 00000033H
	mov	eax, -858993460				; ccccccccH
	rep stosd
	pop	ecx
	mov	DWORD PTR _this$[ebp], ecx
; Line 432
	mov	eax, DWORD PTR _this$[ebp]
	mov	ecx, DWORD PTR [eax+92]
	mov	eax, DWORD PTR [ecx]
; Line 433
	pop	edi
	pop	esi
	pop	ebx
	mov	esp, ebp
	pop	ebp
	ret	0
?initialRawOffset@OlsonTimeZone@icu_56@@ABEHXZ ENDP	; icu_56::OlsonTimeZone::initialRawOffset
_TEXT	ENDS
PUBLIC	?initialDstOffset@OlsonTimeZone@icu_56@@ABEHXZ	; icu_56::OlsonTimeZone::initialDstOffset
; Function compile flags: /Odtp /RTCsu /ZI
;	COMDAT ?initialDstOffset@OlsonTimeZone@icu_56@@ABEHXZ
_TEXT	SEGMENT
_this$ = -8						; size = 4
?initialDstOffset@OlsonTimeZone@icu_56@@ABEHXZ PROC	; icu_56::OlsonTimeZone::initialDstOffset, COMDAT
; _this$ = ecx
; Line 436
	push	ebp
	mov	ebp, esp
	sub	esp, 204				; 000000ccH
	push	ebx
	push	esi
	push	edi
	push	ecx
	lea	edi, DWORD PTR [ebp-204]
	mov	ecx, 51					; 00000033H
	mov	eax, -858993460				; ccccccccH
	rep stosd
	pop	ecx
	mov	DWORD PTR _this$[ebp], ecx
; Line 437
	mov	eax, DWORD PTR _this$[ebp]
	mov	ecx, DWORD PTR [eax+92]
	mov	eax, DWORD PTR [ecx+4]
; Line 438
	pop	edi
	pop	esi
	pop	ebx
	mov	esp, ebp
	pop	ebp
	ret	0
?initialDstOffset@OlsonTimeZone@icu_56@@ABEHXZ ENDP	; icu_56::OlsonTimeZone::initialDstOffset
_TEXT	ENDS
PUBLIC	?getCanonicalID@OlsonTimeZone@icu_56@@QBEPB_WXZ	; icu_56::OlsonTimeZone::getCanonicalID
; Function compile flags: /Odtp /RTCsu /ZI
;	COMDAT ?getCanonicalID@OlsonTimeZone@icu_56@@QBEPB_WXZ
_TEXT	SEGMENT
_this$ = -8						; size = 4
?getCanonicalID@OlsonTimeZone@icu_56@@QBEPB_WXZ PROC	; icu_56::OlsonTimeZone::getCanonicalID, COMDAT
; _this$ = ecx
; Line 441
	push	ebp
	mov	ebp, esp
	sub	esp, 204				; 000000ccH
	push	ebx
	push	esi
	push	edi
	push	ecx
	lea	edi, DWORD PTR [ebp-204]
	mov	ecx, 51					; 00000033H
	mov	eax, -858993460				; ccccccccH
	rep stosd
	pop	ecx
	mov	DWORD PTR _this$[ebp], ecx
; Line 442
	mov	eax, DWORD PTR _this$[ebp]
	mov	eax, DWORD PTR [eax+116]
; Line 443
	pop	edi
	pop	esi
	pop	ebx
	mov	esp, ebp
	pop	ebp
	ret	0
?getCanonicalID@OlsonTimeZone@icu_56@@QBEPB_WXZ ENDP	; icu_56::OlsonTimeZone::getCanonicalID
_TEXT	ENDS
PUBLIC	?clear@CharacterNode@icu_56@@QAEXXZ		; icu_56::CharacterNode::clear
EXTRN	_memset:PROC
; Function compile flags: /Odtp /RTCsu /ZI
;	COMDAT ?clear@CharacterNode@icu_56@@QAEXXZ
_TEXT	SEGMENT
_this$ = -8						; size = 4
?clear@CharacterNode@icu_56@@QAEXXZ PROC		; icu_56::CharacterNode::clear, COMDAT
; _this$ = ecx
; File d:\mozilla\intl\icu\source\i18n\tznames_impl.cpp
; Line 89
	push	ebp
	mov	ebp, esp
	sub	esp, 204				; 000000ccH
	push	ebx
	push	esi
	push	edi
	push	ecx
	lea	edi, DWORD PTR [ebp-204]
	mov	ecx, 51					; 00000033H
	mov	eax, -858993460				; ccccccccH
	rep stosd
	pop	ecx
	mov	DWORD PTR _this$[ebp], ecx
; Line 90
	push	12					; 0000000cH
	push	0
	mov	eax, DWORD PTR _this$[ebp]
	push	eax
	call	_memset
	add	esp, 12					; 0000000cH
; Line 91
	pop	edi
	pop	esi
	pop	ebx
	add	esp, 204				; 000000ccH
	cmp	ebp, esp
	call	__RTC_CheckEsp
	mov	esp, ebp
	pop	ebp
	ret	0
?clear@CharacterNode@icu_56@@QAEXXZ ENDP		; icu_56::CharacterNode::clear
_TEXT	ENDS
PUBLIC	?deleteValues@CharacterNode@icu_56@@QAEXP6AXPAX@Z@Z ; icu_56::CharacterNode::deleteValues
; Function compile flags: /Odtp /RTCsu /ZI
;	COMDAT ?deleteValues@CharacterNode@icu_56@@QAEXP6AXPAX@Z@Z
_TEXT	SEGMENT
tv80 = -232						; size = 4
$T79804 = -224						; size = 4
$T79805 = -212						; size = 4
_this$ = -8						; size = 4
_valueDeleter$ = 8					; size = 4
?deleteValues@CharacterNode@icu_56@@QAEXP6AXPAX@Z@Z PROC ; icu_56::CharacterNode::deleteValues, COMDAT
; _this$ = ecx
; Line 93
	push	ebp
	mov	ebp, esp
	sub	esp, 232				; 000000e8H
	push	ebx
	push	esi
	push	edi
	push	ecx
	lea	edi, DWORD PTR [ebp-232]
	mov	ecx, 58					; 0000003aH
	mov	eax, -858993460				; ccccccccH
	rep stosd
	pop	ecx
	mov	DWORD PTR _this$[ebp], ecx
; Line 94
	mov	eax, DWORD PTR _this$[ebp]
	cmp	DWORD PTR [eax], 0
	jne	SHORT $LN5@deleteValu
	jmp	SHORT $LN6@deleteValu
$LN5@deleteValu:
; Line 96
	mov	eax, DWORD PTR _this$[ebp]
	movsx	ecx, BYTE PTR [eax+10]
	test	ecx, ecx
	jne	SHORT $LN3@deleteValu
; Line 97
	cmp	DWORD PTR _valueDeleter$[ebp], 0
	je	SHORT $LN2@deleteValu
; Line 98
	mov	esi, esp
	mov	eax, DWORD PTR _this$[ebp]
	mov	ecx, DWORD PTR [eax]
	push	ecx
	call	DWORD PTR _valueDeleter$[ebp]
	add	esp, 4
	cmp	esi, esp
	call	__RTC_CheckEsp
$LN2@deleteValu:
; Line 100
	jmp	SHORT $LN6@deleteValu
$LN3@deleteValu:
; Line 101
	mov	eax, DWORD PTR _this$[ebp]
	mov	ecx, DWORD PTR [eax]
	mov	DWORD PTR $T79805[ebp], ecx
	mov	edx, DWORD PTR $T79805[ebp]
	mov	DWORD PTR $T79804[ebp], edx
	cmp	DWORD PTR $T79804[ebp], 0
	je	SHORT $LN8@deleteValu
	mov	esi, esp
	push	1
	mov	eax, DWORD PTR $T79804[ebp]
	mov	edx, DWORD PTR [eax]
	mov	ecx, DWORD PTR $T79804[ebp]
	mov	eax, DWORD PTR [edx]
	call	eax
	cmp	esi, esp
	call	__RTC_CheckEsp
	mov	DWORD PTR tv80[ebp], eax
	jmp	SHORT $LN6@deleteValu
$LN8@deleteValu:
	mov	DWORD PTR tv80[ebp], 0
$LN6@deleteValu:
; Line 103
	pop	edi
	pop	esi
	pop	ebx
	add	esp, 232				; 000000e8H
	cmp	ebp, esp
	call	__RTC_CheckEsp
	mov	esp, ebp
	pop	ebp
	ret	4
?deleteValues@CharacterNode@icu_56@@QAEXP6AXPAX@Z@Z ENDP ; icu_56::CharacterNode::deleteValues
_TEXT	ENDS
PUBLIC	??_SUVector@icu_56@@6B@				; icu_56::UVector::`local vftable'
PUBLIC	?addValue@CharacterNode@icu_56@@QAEXPAXP6AX0@ZAAW4UErrorCode@@@Z ; icu_56::CharacterNode::addValue
PUBLIC	??_R4UVector@icu_56@@6B@			; icu_56::UVector::`RTTI Complete Object Locator'
PUBLIC	??_R0?AVUVector@icu_56@@@8			; icu_56::UVector `RTTI Type Descriptor'
PUBLIC	??_R3UVector@icu_56@@8				; icu_56::UVector::`RTTI Class Hierarchy Descriptor'
PUBLIC	??_R2UVector@icu_56@@8				; icu_56::UVector::`RTTI Base Class Array'
PUBLIC	??_R1A@?0A@EA@UVector@icu_56@@8			; icu_56::UVector::`RTTI Base Class Descriptor at (0,-1,0,64)'
EXTRN	__imp_?addElement@UVector@icu_56@@QAEXPAXAAW4UErrorCode@@@Z:PROC
EXTRN	__imp_??0UVector@icu_56@@QAE@P6AXPAX@ZP6ACTUElement@@2@ZHAAW4UErrorCode@@@Z:PROC
EXTRN	__imp_??2UMemory@icu_56@@SAPAXI@Z:PROC
EXTRN	___security_cookie:DWORD
EXTRN	___CxxFrameHandler3:PROC
EXTRN	@__security_check_cookie@4:PROC
EXTRN	??_EUVector@icu_56@@UAEPAXI@Z:PROC		; icu_56::UVector::`vector deleting destructor'
EXTRN	?getDynamicClassID@UVector@icu_56@@UBEPAXXZ:PROC ; icu_56::UVector::getDynamicClassID
;	COMDAT ??_R1A@?0A@EA@UVector@icu_56@@8
rdata$r	SEGMENT
??_R1A@?0A@EA@UVector@icu_56@@8 DD FLAT:??_R0?AVUVector@icu_56@@@8 ; icu_56::UVector::`RTTI Base Class Descriptor at (0,-1,0,64)'
	DD	02H
	DD	00H
	DD	0ffffffffH
	DD	00H
	DD	040H
	DD	FLAT:??_R3UVector@icu_56@@8
rdata$r	ENDS
;	COMDAT ??_R2UVector@icu_56@@8
rdata$r	SEGMENT
??_R2UVector@icu_56@@8 DD FLAT:??_R1A@?0A@EA@UVector@icu_56@@8 ; icu_56::UVector::`RTTI Base Class Array'
	DD	FLAT:??_R1A@?0A@EA@UObject@icu_56@@8
	DD	FLAT:??_R13?0A@EA@UMemory@icu_56@@8
rdata$r	ENDS
;	COMDAT ??_R3UVector@icu_56@@8
rdata$r	SEGMENT
??_R3UVector@icu_56@@8 DD 00H				; icu_56::UVector::`RTTI Class Hierarchy Descriptor'
	DD	00H
	DD	03H
	DD	FLAT:??_R2UVector@icu_56@@8
rdata$r	ENDS
;	COMDAT ??_R0?AVUVector@icu_56@@@8
_DATA	SEGMENT
??_R0?AVUVector@icu_56@@@8 DD FLAT:??_7type_info@@6B@	; icu_56::UVector `RTTI Type Descriptor'
	DD	00H
	DB	'.?AVUVector@icu_56@@', 00H
_DATA	ENDS
;	COMDAT ??_R4UVector@icu_56@@6B@
rdata$r	SEGMENT
??_R4UVector@icu_56@@6B@ DD 00H				; icu_56::UVector::`RTTI Complete Object Locator'
	DD	00H
	DD	00H
	DD	FLAT:??_R0?AVUVector@icu_56@@@8
	DD	FLAT:??_R3UVector@icu_56@@8
rdata$r	ENDS
;	COMDAT ??_SUVector@icu_56@@6B@
CONST	SEGMENT
??_SUVector@icu_56@@6B@ DD FLAT:??_R4UVector@icu_56@@6B@ ; icu_56::UVector::`local vftable'
	DD	FLAT:??_EUVector@icu_56@@UAEPAXI@Z
	DD	FLAT:?getDynamicClassID@UVector@icu_56@@UBEPAXXZ
CONST	ENDS
;	COMDAT xdata$x
xdata$x	SEGMENT
__unwindtable$?addValue@CharacterNode@icu_56@@QAEXPAXP6AX0@ZAAW4UErrorCode@@@Z DD 0ffffffffH
	DD	FLAT:__unwindfunclet$?addValue@CharacterNode@icu_56@@QAEXPAXP6AX0@ZAAW4UErrorCode@@@Z$0
__ehfuncinfo$?addValue@CharacterNode@icu_56@@QAEXPAXP6AX0@ZAAW4UErrorCode@@@Z DD 019930522H
	DD	01H
	DD	FLAT:__unwindtable$?addValue@CharacterNode@icu_56@@QAEXPAXP6AX0@ZAAW4UErrorCode@@@Z
	DD	2 DUP(00H)
	DD	2 DUP(00H)
	DD	00H
	DD	01H
; Function compile flags: /Odtp /RTCsu /ZI
xdata$x	ENDS
;	COMDAT ?addValue@CharacterNode@icu_56@@QAEXPAXP6AX0@ZAAW4UErrorCode@@@Z
_TEXT	SEGMENT
tv80 = -256						; size = 4
$T79810 = -248						; size = 4
$T79811 = -236						; size = 4
_values$71302 = -32					; size = 4
_this$ = -20						; size = 4
__$EHRec$ = -12						; size = 12
_value$ = 8						; size = 4
_valueDeleter$ = 12					; size = 4
_status$ = 16						; size = 4
?addValue@CharacterNode@icu_56@@QAEXPAXP6AX0@ZAAW4UErrorCode@@@Z PROC ; icu_56::CharacterNode::addValue, COMDAT
; _this$ = ecx
; Line 106
	push	ebp
	mov	ebp, esp
	push	-1
	push	__ehhandler$?addValue@CharacterNode@icu_56@@QAEXPAXP6AX0@ZAAW4UErrorCode@@@Z
	mov	eax, DWORD PTR fs:0
	push	eax
	sub	esp, 244				; 000000f4H
	push	ebx
	push	esi
	push	edi
	push	ecx
	lea	edi, DWORD PTR [ebp-256]
	mov	ecx, 61					; 0000003dH
	mov	eax, -858993460				; ccccccccH
	rep stosd
	pop	ecx
	mov	eax, DWORD PTR ___security_cookie
	xor	eax, ebp
	push	eax
	lea	eax, DWORD PTR __$EHRec$[ebp]
	mov	DWORD PTR fs:0, eax
	mov	DWORD PTR _this$[ebp], ecx
; Line 107
	mov	eax, DWORD PTR _status$[ebp]
	mov	ecx, DWORD PTR [eax]
	push	ecx
	call	?U_FAILURE@@YACW4UErrorCode@@@Z		; U_FAILURE
	add	esp, 4
	movsx	edx, al
	test	edx, edx
	je	SHORT $LN7@addValue
; Line 108
	cmp	DWORD PTR _valueDeleter$[ebp], 0
	je	SHORT $LN6@addValue
; Line 109
	mov	esi, esp
	mov	eax, DWORD PTR _value$[ebp]
	push	eax
	call	DWORD PTR _valueDeleter$[ebp]
	add	esp, 4
	cmp	esi, esp
	call	__RTC_CheckEsp
$LN6@addValue:
; Line 111
	jmp	$LN8@addValue
$LN7@addValue:
; Line 113
	mov	eax, DWORD PTR _this$[ebp]
	cmp	DWORD PTR [eax], 0
	jne	SHORT $LN5@addValue
; Line 114
	mov	eax, DWORD PTR _this$[ebp]
	mov	ecx, DWORD PTR _value$[ebp]
	mov	DWORD PTR [eax], ecx
; Line 115
	jmp	$LN8@addValue
$LN5@addValue:
; Line 117
	mov	eax, DWORD PTR _this$[ebp]
	movsx	ecx, BYTE PTR [eax+10]
	test	ecx, ecx
	jne	$LN3@addValue
; Line 120
	mov	esi, esp
	push	24					; 00000018H
	call	DWORD PTR __imp_??2UMemory@icu_56@@SAPAXI@Z
	add	esp, 4
	cmp	esi, esp
	call	__RTC_CheckEsp
	mov	DWORD PTR $T79811[ebp], eax
	mov	DWORD PTR __$EHRec$[ebp+8], 0
	cmp	DWORD PTR $T79811[ebp], 0
	je	SHORT $LN10@addValue
	mov	esi, esp
	mov	eax, DWORD PTR _status$[ebp]
	push	eax
	push	1
	push	0
	mov	ecx, DWORD PTR _valueDeleter$[ebp]
	push	ecx
	mov	ecx, DWORD PTR $T79811[ebp]
	call	DWORD PTR __imp_??0UVector@icu_56@@QAE@P6AXPAX@ZP6ACTUElement@@2@ZHAAW4UErrorCode@@@Z
	cmp	esi, esp
	call	__RTC_CheckEsp
	mov	edx, DWORD PTR $T79811[ebp]
	mov	DWORD PTR [edx], OFFSET ??_SUVector@icu_56@@6B@
	mov	eax, DWORD PTR $T79811[ebp]
	mov	DWORD PTR tv80[ebp], eax
	jmp	SHORT $LN11@addValue
$LN10@addValue:
	mov	DWORD PTR tv80[ebp], 0
$LN11@addValue:
	mov	ecx, DWORD PTR tv80[ebp]
	mov	DWORD PTR $T79810[ebp], ecx
	mov	DWORD PTR __$EHRec$[ebp+8], -1
	mov	edx, DWORD PTR $T79810[ebp]
	mov	DWORD PTR _values$71302[ebp], edx
; Line 121
	mov	eax, DWORD PTR _status$[ebp]
	mov	ecx, DWORD PTR [eax]
	push	ecx
	call	?U_FAILURE@@YACW4UErrorCode@@@Z		; U_FAILURE
	add	esp, 4
	movsx	edx, al
	test	edx, edx
	je	SHORT $LN2@addValue
; Line 122
	cmp	DWORD PTR _valueDeleter$[ebp], 0
	je	SHORT $LN1@addValue
; Line 123
	mov	esi, esp
	mov	eax, DWORD PTR _value$[ebp]
	push	eax
	call	DWORD PTR _valueDeleter$[ebp]
	add	esp, 4
	cmp	esi, esp
	call	__RTC_CheckEsp
$LN1@addValue:
; Line 125
	jmp	SHORT $LN8@addValue
$LN2@addValue:
; Line 127
	mov	esi, esp
	mov	eax, DWORD PTR _status$[ebp]
	push	eax
	mov	ecx, DWORD PTR _this$[ebp]
	mov	edx, DWORD PTR [ecx]
	push	edx
	mov	ecx, DWORD PTR _values$71302[ebp]
	call	DWORD PTR __imp_?addElement@UVector@icu_56@@QAEXPAXAAW4UErrorCode@@@Z
	cmp	esi, esp
	call	__RTC_CheckEsp
; Line 128
	mov	eax, DWORD PTR _this$[ebp]
	mov	ecx, DWORD PTR _values$71302[ebp]
	mov	DWORD PTR [eax], ecx
; Line 129
	mov	eax, DWORD PTR _this$[ebp]
	mov	BYTE PTR [eax+10], 1
$LN3@addValue:
; Line 132
	mov	esi, esp
	mov	eax, DWORD PTR _status$[ebp]
	push	eax
	mov	ecx, DWORD PTR _value$[ebp]
	push	ecx
	mov	edx, DWORD PTR _this$[ebp]
	mov	ecx, DWORD PTR [edx]
	call	DWORD PTR __imp_?addElement@UVector@icu_56@@QAEXPAXAAW4UErrorCode@@@Z
	cmp	esi, esp
	call	__RTC_CheckEsp
$LN8@addValue:
; Line 134
	mov	ecx, DWORD PTR __$EHRec$[ebp]
	mov	DWORD PTR fs:0, ecx
	pop	ecx
	pop	edi
	pop	esi
	pop	ebx
	add	esp, 256				; 00000100H
	cmp	ebp, esp
	call	__RTC_CheckEsp
	mov	esp, ebp
	pop	ebp
	ret	12					; 0000000cH
_TEXT	ENDS
;	COMDAT text$x
text$x	SEGMENT
__unwindfunclet$?addValue@CharacterNode@icu_56@@QAEXPAXP6AX0@ZAAW4UErrorCode@@@Z$0:
	mov	esi, esp
	mov	eax, DWORD PTR $T79811[ebp]
	push	eax
	call	DWORD PTR __imp_??3UMemory@icu_56@@SAXPAX@Z
	add	esp, 4
	cmp	esi, esp
	jmp	__RTC_CheckEsp
__ehhandler$?addValue@CharacterNode@icu_56@@QAEXPAXP6AX0@ZAAW4UErrorCode@@@Z:
	mov	edx, DWORD PTR [esp+8]
	lea	eax, DWORD PTR [edx+12]
	mov	ecx, DWORD PTR [edx-260]
	xor	ecx, eax
	call	@__security_check_cookie@4
	mov	eax, OFFSET __ehfuncinfo$?addValue@CharacterNode@icu_56@@QAEXPAXP6AX0@ZAAW4UErrorCode@@@Z
	jmp	___CxxFrameHandler3
text$x	ENDS
?addValue@CharacterNode@icu_56@@QAEXPAXP6AX0@ZAAW4UErrorCode@@@Z ENDP ; icu_56::CharacterNode::addValue
; Function compile flags: /Odtp /RTCsu /ZI
;	COMDAT ?U_FAILURE@@YACW4UErrorCode@@@Z
_TEXT	SEGMENT
_code$ = 8						; size = 4
?U_FAILURE@@YACW4UErrorCode@@@Z PROC			; U_FAILURE, COMDAT
; File d:\mozilla\intl\icu\include\unicode\utypes.h
; Line 705
	push	ebp
	mov	ebp, esp
	sub	esp, 192				; 000000c0H
	push	ebx
	push	esi
	push	edi
	lea	edi, DWORD PTR [ebp-192]
	mov	ecx, 48					; 00000030H
	mov	eax, -858993460				; ccccccccH
	rep stosd
	cmp	DWORD PTR _code$[ebp], 0
	setg	al
	pop	edi
	pop	esi
	pop	ebx
	mov	esp, ebp
	pop	ebp
	ret	0
?U_FAILURE@@YACW4UErrorCode@@@Z ENDP			; U_FAILURE
_TEXT	ENDS
EXTRN	__imp_??1UVector@icu_56@@UAE@XZ:PROC
; Function compile flags: /Odtp /RTCsu /ZI
;	COMDAT ??_GUVector@icu_56@@UAEPAXI@Z
_TEXT	SEGMENT
_this$ = -8						; size = 4
___flags$ = 8						; size = 4
??_GUVector@icu_56@@UAEPAXI@Z PROC			; icu_56::UVector::`scalar deleting destructor', COMDAT
; _this$ = ecx
	push	ebp
	mov	ebp, esp
	sub	esp, 204				; 000000ccH
	push	ebx
	push	esi
	push	edi
	push	ecx
	lea	edi, DWORD PTR [ebp-204]
	mov	ecx, 51					; 00000033H
	mov	eax, -858993460				; ccccccccH
	rep stosd
	pop	ecx
	mov	DWORD PTR _this$[ebp], ecx
	mov	esi, esp
	mov	ecx, DWORD PTR _this$[ebp]
	call	DWORD PTR __imp_??1UVector@icu_56@@UAE@XZ
	cmp	esi, esp
	call	__RTC_CheckEsp
	mov	eax, DWORD PTR ___flags$[ebp]
	and	eax, 1
	je	SHORT $LN1@scalar@4
	mov	esi, esp
	mov	eax, DWORD PTR _this$[ebp]
	push	eax
	call	DWORD PTR __imp_??3UMemory@icu_56@@SAXPAX@Z
	add	esp, 4
	cmp	esi, esp
	call	__RTC_CheckEsp
$LN1@scalar@4:
	mov	eax, DWORD PTR _this$[ebp]
	pop	edi
	pop	esi
	pop	ebx
	add	esp, 204				; 000000ccH
	cmp	ebp, esp
	call	__RTC_CheckEsp
	mov	esp, ebp
	pop	ebp
	ret	4
??_GUVector@icu_56@@UAEPAXI@Z ENDP			; icu_56::UVector::`scalar deleting destructor'
_TEXT	ENDS
PUBLIC	??_7TextTrieMapSearchResultHandler@icu_56@@6B@	; icu_56::TextTrieMapSearchResultHandler::`vftable'
PUBLIC	??1TextTrieMapSearchResultHandler@icu_56@@UAE@XZ ; icu_56::TextTrieMapSearchResultHandler::~TextTrieMapSearchResultHandler
PUBLIC	??_R4TextTrieMapSearchResultHandler@icu_56@@6B@	; icu_56::TextTrieMapSearchResultHandler::`RTTI Complete Object Locator'
PUBLIC	??_R0?AVTextTrieMapSearchResultHandler@icu_56@@@8 ; icu_56::TextTrieMapSearchResultHandler `RTTI Type Descriptor'
PUBLIC	??_R3TextTrieMapSearchResultHandler@icu_56@@8	; icu_56::TextTrieMapSearchResultHandler::`RTTI Class Hierarchy Descriptor'
PUBLIC	??_R2TextTrieMapSearchResultHandler@icu_56@@8	; icu_56::TextTrieMapSearchResultHandler::`RTTI Base Class Array'
PUBLIC	??_R1A@?0A@EA@TextTrieMapSearchResultHandler@icu_56@@8 ; icu_56::TextTrieMapSearchResultHandler::`RTTI Base Class Descriptor at (0,-1,0,64)'
EXTRN	??_ETextTrieMapSearchResultHandler@icu_56@@UAEPAXI@Z:PROC ; icu_56::TextTrieMapSearchResultHandler::`vector deleting destructor'
;	COMDAT ??_R1A@?0A@EA@TextTrieMapSearchResultHandler@icu_56@@8
; File d:\mozilla\intl\icu\source\i18n\tznames_impl.cpp
rdata$r	SEGMENT
??_R1A@?0A@EA@TextTrieMapSearchResultHandler@icu_56@@8 DD FLAT:??_R0?AVTextTrieMapSearchResultHandler@icu_56@@@8 ; icu_56::TextTrieMapSearchResultHandler::`RTTI Base Class Descriptor at (0,-1,0,64)'
	DD	01H
	DD	00H
	DD	0ffffffffH
	DD	00H
	DD	040H
	DD	FLAT:??_R3TextTrieMapSearchResultHandler@icu_56@@8
rdata$r	ENDS
;	COMDAT ??_R2TextTrieMapSearchResultHandler@icu_56@@8
rdata$r	SEGMENT
??_R2TextTrieMapSearchResultHandler@icu_56@@8 DD FLAT:??_R1A@?0A@EA@TextTrieMapSearchResultHandler@icu_56@@8 ; icu_56::TextTrieMapSearchResultHandler::`RTTI Base Class Array'
	DD	FLAT:??_R13?0A@EA@UMemory@icu_56@@8
rdata$r	ENDS
;	COMDAT ??_R3TextTrieMapSearchResultHandler@icu_56@@8
rdata$r	SEGMENT
??_R3TextTrieMapSearchResultHandler@icu_56@@8 DD 00H	; icu_56::TextTrieMapSearchResultHandler::`RTTI Class Hierarchy Descriptor'
	DD	00H
	DD	02H
	DD	FLAT:??_R2TextTrieMapSearchResultHandler@icu_56@@8
rdata$r	ENDS
;	COMDAT ??_R0?AVTextTrieMapSearchResultHandler@icu_56@@@8
_DATA	SEGMENT
??_R0?AVTextTrieMapSearchResultHandler@icu_56@@@8 DD FLAT:??_7type_info@@6B@ ; icu_56::TextTrieMapSearchResultHandler `RTTI Type Descriptor'
	DD	00H
	DB	'.?AVTextTrieMapSearchResultHandler@icu_56@@', 00H
_DATA	ENDS
;	COMDAT ??_R4TextTrieMapSearchResultHandler@icu_56@@6B@
rdata$r	SEGMENT
??_R4TextTrieMapSearchResultHandler@icu_56@@6B@ DD 00H	; icu_56::TextTrieMapSearchResultHandler::`RTTI Complete Object Locator'
	DD	00H
	DD	00H
	DD	FLAT:??_R0?AVTextTrieMapSearchResultHandler@icu_56@@@8
	DD	FLAT:??_R3TextTrieMapSearchResultHandler@icu_56@@8
rdata$r	ENDS
;	COMDAT ??_7TextTrieMapSearchResultHandler@icu_56@@6B@
CONST	SEGMENT
??_7TextTrieMapSearchResultHandler@icu_56@@6B@ DD FLAT:??_R4TextTrieMapSearchResultHandler@icu_56@@6B@ ; icu_56::TextTrieMapSearchResultHandler::`vftable'
	DD	FLAT:__purecall
	DD	FLAT:??_ETextTrieMapSearchResultHandler@icu_56@@UAEPAXI@Z
; Function compile flags: /Odtp /RTCsu /ZI
CONST	ENDS
;	COMDAT ??1TextTrieMapSearchResultHandler@icu_56@@UAE@XZ
_TEXT	SEGMENT
_this$ = -8						; size = 4
??1TextTrieMapSearchResultHandler@icu_56@@UAE@XZ PROC	; icu_56::TextTrieMapSearchResultHandler::~TextTrieMapSearchResultHandler, COMDAT
; _this$ = ecx
; Line 139
	push	ebp
	mov	ebp, esp
	sub	esp, 204				; 000000ccH
	push	ebx
	push	esi
	push	edi
	push	ecx
	lea	edi, DWORD PTR [ebp-204]
	mov	ecx, 51					; 00000033H
	mov	eax, -858993460				; ccccccccH
	rep stosd
	pop	ecx
	mov	DWORD PTR _this$[ebp], ecx
	mov	eax, DWORD PTR _this$[ebp]
	mov	DWORD PTR [eax], OFFSET ??_7TextTrieMapSearchResultHandler@icu_56@@6B@
; Line 140
	pop	edi
	pop	esi
	pop	ebx
	mov	esp, ebp
	pop	ebp
	ret	0
??1TextTrieMapSearchResultHandler@icu_56@@UAE@XZ ENDP	; icu_56::TextTrieMapSearchResultHandler::~TextTrieMapSearchResultHandler
; Function compile flags: /Odtp /RTCsu /ZI
_TEXT	ENDS
;	COMDAT ??_GTextTrieMapSearchResultHandler@icu_56@@UAEPAXI@Z
_TEXT	SEGMENT
_this$ = -8						; size = 4
___flags$ = 8						; size = 4
??_GTextTrieMapSearchResultHandler@icu_56@@UAEPAXI@Z PROC ; icu_56::TextTrieMapSearchResultHandler::`scalar deleting destructor', COMDAT
; _this$ = ecx
	push	ebp
	mov	ebp, esp
	sub	esp, 204				; 000000ccH
	push	ebx
	push	esi
	push	edi
	push	ecx
	lea	edi, DWORD PTR [ebp-204]
	mov	ecx, 51					; 00000033H
	mov	eax, -858993460				; ccccccccH
	rep stosd
	pop	ecx
	mov	DWORD PTR _this$[ebp], ecx
	mov	ecx, DWORD PTR _this$[ebp]
	call	??1TextTrieMapSearchResultHandler@icu_56@@UAE@XZ ; icu_56::TextTrieMapSearchResultHandler::~TextTrieMapSearchResultHandler
	mov	eax, DWORD PTR ___flags$[ebp]
	and	eax, 1
	je	SHORT $LN1@scalar@5
	mov	esi, esp
	mov	eax, DWORD PTR _this$[ebp]
	push	eax
	call	DWORD PTR __imp_??3UMemory@icu_56@@SAXPAX@Z
	add	esp, 4
	cmp	esi, esp
	call	__RTC_CheckEsp
$LN1@scalar@5:
	mov	eax, DWORD PTR _this$[ebp]
	pop	edi
	pop	esi
	pop	ebx
	add	esp, 204				; 000000ccH
	cmp	ebp, esp
	call	__RTC_CheckEsp
	mov	esp, ebp
	pop	ebp
	ret	4
??_GTextTrieMapSearchResultHandler@icu_56@@UAEPAXI@Z ENDP ; icu_56::TextTrieMapSearchResultHandler::`scalar deleting destructor'
_TEXT	ENDS
PUBLIC	??0TextTrieMap@icu_56@@QAE@CP6AXPAX@Z@Z		; icu_56::TextTrieMap::TextTrieMap
; Function compile flags: /Odtp /RTCsu /ZI
;	COMDAT ??0TextTrieMap@icu_56@@QAE@CP6AXPAX@Z@Z
_TEXT	SEGMENT
_this$ = -8						; size = 4
_ignoreCase$ = 8					; size = 1
_valueDeleter$ = 12					; size = 4
??0TextTrieMap@icu_56@@QAE@CP6AXPAX@Z@Z PROC		; icu_56::TextTrieMap::TextTrieMap, COMDAT
; _this$ = ecx
; Line 147
	push	ebp
	mov	ebp, esp
	sub	esp, 204				; 000000ccH
	push	ebx
	push	esi
	push	edi
	push	ecx
	lea	edi, DWORD PTR [ebp-204]
	mov	ecx, 51					; 00000033H
	mov	eax, -858993460				; ccccccccH
	rep stosd
	pop	ecx
	mov	DWORD PTR _this$[ebp], ecx
	mov	eax, DWORD PTR _this$[ebp]
	mov	DWORD PTR [eax], OFFSET ??_7TextTrieMap@icu_56@@6B@
	mov	eax, DWORD PTR _this$[ebp]
	mov	cl, BYTE PTR _ignoreCase$[ebp]
	mov	BYTE PTR [eax+4], cl
	mov	eax, DWORD PTR _this$[ebp]
	mov	DWORD PTR [eax+8], 0
	mov	eax, DWORD PTR _this$[ebp]
	mov	DWORD PTR [eax+12], 0
	mov	eax, DWORD PTR _this$[ebp]
	mov	DWORD PTR [eax+16], 0
	mov	eax, DWORD PTR _this$[ebp]
	mov	DWORD PTR [eax+20], 0
	mov	eax, DWORD PTR _this$[ebp]
	mov	BYTE PTR [eax+24], 1
	mov	eax, DWORD PTR _this$[ebp]
	mov	ecx, DWORD PTR _valueDeleter$[ebp]
	mov	DWORD PTR [eax+28], ecx
; Line 148
	mov	eax, DWORD PTR _this$[ebp]
	pop	edi
	pop	esi
	pop	ebx
	mov	esp, ebp
	pop	ebp
	ret	8
??0TextTrieMap@icu_56@@QAE@CP6AXPAX@Z@Z ENDP		; icu_56::TextTrieMap::TextTrieMap
_TEXT	ENDS
EXTRN	__imp_?elementAt@UVector@icu_56@@QBEPAXH@Z:PROC
EXTRN	__imp_?size@UVector@icu_56@@QBEHXZ:PROC
EXTRN	_uprv_free_56:PROC
; Function compile flags: /Odtp /RTCsu /ZI
;	COMDAT ??1TextTrieMap@icu_56@@UAE@XZ
_TEXT	SEGMENT
tv134 = -256						; size = 4
$T79838 = -248						; size = 4
$T79839 = -236						; size = 4
_i$71334 = -32						; size = 4
_index$ = -20						; size = 4
_this$ = -8						; size = 4
??1TextTrieMap@icu_56@@UAE@XZ PROC			; icu_56::TextTrieMap::~TextTrieMap, COMDAT
; _this$ = ecx
; Line 150
	push	ebp
	mov	ebp, esp
	sub	esp, 256				; 00000100H
	push	ebx
	push	esi
	push	edi
	push	ecx
	lea	edi, DWORD PTR [ebp-256]
	mov	ecx, 64					; 00000040H
	mov	eax, -858993460				; ccccccccH
	rep stosd
	pop	ecx
	mov	DWORD PTR _this$[ebp], ecx
	mov	eax, DWORD PTR _this$[ebp]
	mov	DWORD PTR [eax], OFFSET ??_7TextTrieMap@icu_56@@6B@
; Line 152
	mov	DWORD PTR _index$[ebp], 0
	jmp	SHORT $LN8@TextTrieMa@2
$LN7@TextTrieMa@2:
	mov	eax, DWORD PTR _index$[ebp]
	add	eax, 1
	mov	DWORD PTR _index$[ebp], eax
$LN8@TextTrieMa@2:
	mov	eax, DWORD PTR _this$[ebp]
	mov	ecx, DWORD PTR _index$[ebp]
	cmp	ecx, DWORD PTR [eax+16]
	jge	SHORT $LN6@TextTrieMa@2
; Line 153
	mov	eax, DWORD PTR _this$[ebp]
	mov	ecx, DWORD PTR [eax+28]
	push	ecx
	mov	ecx, DWORD PTR _index$[ebp]
	imul	ecx, 12					; 0000000cH
	mov	edx, DWORD PTR _this$[ebp]
	add	ecx, DWORD PTR [edx+8]
	call	?deleteValues@CharacterNode@icu_56@@QAEXP6AXPAX@Z@Z ; icu_56::CharacterNode::deleteValues
; Line 154
	jmp	SHORT $LN7@TextTrieMa@2
$LN6@TextTrieMa@2:
; Line 155
	mov	eax, DWORD PTR _this$[ebp]
	mov	ecx, DWORD PTR [eax+8]
	push	ecx
	call	_uprv_free_56
	add	esp, 4
; Line 156
	mov	eax, DWORD PTR _this$[ebp]
	cmp	DWORD PTR [eax+20], 0
	je	$LN9@TextTrieMa@2
; Line 157
	mov	DWORD PTR _i$71334[ebp], 0
	jmp	SHORT $LN4@TextTrieMa@2
$LN3@TextTrieMa@2:
	mov	eax, DWORD PTR _i$71334[ebp]
	add	eax, 2
	mov	DWORD PTR _i$71334[ebp], eax
$LN4@TextTrieMa@2:
	mov	esi, esp
	mov	eax, DWORD PTR _this$[ebp]
	mov	ecx, DWORD PTR [eax+20]
	call	DWORD PTR __imp_?size@UVector@icu_56@@QBEHXZ
	cmp	esi, esp
	call	__RTC_CheckEsp
	cmp	DWORD PTR _i$71334[ebp], eax
	jge	SHORT $LN2@TextTrieMa@2
; Line 158
	mov	eax, DWORD PTR _this$[ebp]
	cmp	DWORD PTR [eax+28], 0
	je	SHORT $LN1@TextTrieMa@2
; Line 159
	mov	eax, DWORD PTR _i$71334[ebp]
	add	eax, 1
	mov	esi, esp
	push	eax
	mov	ecx, DWORD PTR _this$[ebp]
	mov	ecx, DWORD PTR [ecx+20]
	call	DWORD PTR __imp_?elementAt@UVector@icu_56@@QBEPAXH@Z
	cmp	esi, esp
	call	__RTC_CheckEsp
	mov	esi, esp
	push	eax
	mov	edx, DWORD PTR _this$[ebp]
	mov	eax, DWORD PTR [edx+28]
	call	eax
	add	esp, 4
	cmp	esi, esp
	call	__RTC_CheckEsp
$LN1@TextTrieMa@2:
; Line 161
	jmp	SHORT $LN3@TextTrieMa@2
$LN2@TextTrieMa@2:
; Line 162
	mov	eax, DWORD PTR _this$[ebp]
	mov	ecx, DWORD PTR [eax+20]
	mov	DWORD PTR $T79839[ebp], ecx
	mov	edx, DWORD PTR $T79839[ebp]
	mov	DWORD PTR $T79838[ebp], edx
	cmp	DWORD PTR $T79838[ebp], 0
	je	SHORT $LN11@TextTrieMa@2
	mov	esi, esp
	push	1
	mov	eax, DWORD PTR $T79838[ebp]
	mov	edx, DWORD PTR [eax]
	mov	ecx, DWORD PTR $T79838[ebp]
	mov	eax, DWORD PTR [edx]
	call	eax
	cmp	esi, esp
	call	__RTC_CheckEsp
	mov	DWORD PTR tv134[ebp], eax
	jmp	SHORT $LN9@TextTrieMa@2
$LN11@TextTrieMa@2:
	mov	DWORD PTR tv134[ebp], 0
$LN9@TextTrieMa@2:
; Line 164
	pop	edi
	pop	esi
	pop	ebx
	add	esp, 256				; 00000100H
	cmp	ebp, esp
	call	__RTC_CheckEsp
	mov	esp, ebp
	pop	ebp
	ret	0
??1TextTrieMap@icu_56@@UAE@XZ ENDP			; icu_56::TextTrieMap::~TextTrieMap
_TEXT	ENDS
PUBLIC	?isEmpty@TextTrieMap@icu_56@@QBEHXZ		; icu_56::TextTrieMap::isEmpty
; Function compile flags: /Odtp /RTCsu /ZI
;	COMDAT ?isEmpty@TextTrieMap@icu_56@@QBEHXZ
_TEXT	SEGMENT
_this$ = -8						; size = 4
?isEmpty@TextTrieMap@icu_56@@QBEHXZ PROC		; icu_56::TextTrieMap::isEmpty, COMDAT
; _this$ = ecx
; Line 166
	push	ebp
	mov	ebp, esp
	sub	esp, 204				; 000000ccH
	push	ebx
	push	esi
	push	edi
	push	ecx
	lea	edi, DWORD PTR [ebp-204]
	mov	ecx, 51					; 00000033H
	mov	eax, -858993460				; ccccccccH
	rep stosd
	pop	ecx
	mov	DWORD PTR _this$[ebp], ecx
; Line 171
	mov	eax, DWORD PTR _this$[ebp]
	movsx	eax, BYTE PTR [eax+24]
; Line 172
	pop	edi
	pop	esi
	pop	ebx
	mov	esp, ebp
	pop	ebp
	ret	0
?isEmpty@TextTrieMap@icu_56@@QBEHXZ ENDP		; icu_56::TextTrieMap::isEmpty
_TEXT	ENDS
PUBLIC	?put@TextTrieMap@icu_56@@QAEXPB_WPAXAAW4UErrorCode@@@Z ; icu_56::TextTrieMap::put
PUBLIC	?get@ZNStringPool@icu_56@@QAEPB_WABVUnicodeString@2@AAW4UErrorCode@@@Z ; icu_56::ZNStringPool::get
PUBLIC	?put@TextTrieMap@icu_56@@QAEXABVUnicodeString@2@PAXAAVZNStringPool@2@AAW4UErrorCode@@@Z ; icu_56::TextTrieMap::put
; Function compile flags: /Odtp /RTCsu /ZI
;	COMDAT ?put@TextTrieMap@icu_56@@QAEXABVUnicodeString@2@PAXAAVZNStringPool@2@AAW4UErrorCode@@@Z
_TEXT	SEGMENT
_s$ = -20						; size = 4
_this$ = -8						; size = 4
_key$ = 8						; size = 4
_value$ = 12						; size = 4
_sp$ = 16						; size = 4
_status$ = 20						; size = 4
?put@TextTrieMap@icu_56@@QAEXABVUnicodeString@2@PAXAAVZNStringPool@2@AAW4UErrorCode@@@Z PROC ; icu_56::TextTrieMap::put, COMDAT
; _this$ = ecx
; Line 180
	push	ebp
	mov	ebp, esp
	sub	esp, 216				; 000000d8H
	push	ebx
	push	esi
	push	edi
	push	ecx
	lea	edi, DWORD PTR [ebp-216]
	mov	ecx, 54					; 00000036H
	mov	eax, -858993460				; ccccccccH
	rep stosd
	pop	ecx
	mov	DWORD PTR _this$[ebp], ecx
; Line 181
	mov	eax, DWORD PTR _status$[ebp]
	push	eax
	mov	ecx, DWORD PTR _key$[ebp]
	push	ecx
	mov	ecx, DWORD PTR _sp$[ebp]
	call	?get@ZNStringPool@icu_56@@QAEPB_WABVUnicodeString@2@AAW4UErrorCode@@@Z ; icu_56::ZNStringPool::get
	mov	DWORD PTR _s$[ebp], eax
; Line 182
	mov	eax, DWORD PTR _status$[ebp]
	push	eax
	mov	ecx, DWORD PTR _value$[ebp]
	push	ecx
	mov	edx, DWORD PTR _s$[ebp]
	push	edx
	mov	ecx, DWORD PTR _this$[ebp]
	call	?put@TextTrieMap@icu_56@@QAEXPB_WPAXAAW4UErrorCode@@@Z ; icu_56::TextTrieMap::put
; Line 183
	pop	edi
	pop	esi
	pop	ebx
	add	esp, 216				; 000000d8H
	cmp	ebp, esp
	call	__RTC_CheckEsp
	mov	esp, ebp
	pop	ebp
	ret	16					; 00000010H
?put@TextTrieMap@icu_56@@QAEXABVUnicodeString@2@PAXAAVZNStringPool@2@AAW4UErrorCode@@@Z ENDP ; icu_56::TextTrieMap::put
_TEXT	ENDS
PUBLIC	??_C@_1CG@ODCOANLM@?$AAf?$AAL?$AAa?$AAz?$AAy?$AAC?$AAo?$AAn?$AAt?$AAe?$AAn?$AAt?$AAs?$AA?5?$AA?$CB?$AA?$DN?$AA?5?$AA0?$AA?$AA@ ; `string'
PUBLIC	??_C@_1GC@OMCAKFML@?$AAd?$AA?3?$AA?2?$AAm?$AAo?$AAz?$AAi?$AAl?$AAl?$AAa?$AA?2?$AAi?$AAn?$AAt?$AAl?$AA?2?$AAi?$AAc?$AAu?$AA?2?$AAs?$AAo?$AAu?$AAr?$AAc?$AAe?$AA?2?$AAi?$AA1?$AA8?$AAn?$AA?2@ ; `string'
PUBLIC	?__LINE__Var@?1??put@TextTrieMap@icu_56@@QAEXPB_WPAXAAW4UErrorCode@@@Z@4JA ; `icu_56::TextTrieMap::put'::`2'::__LINE__Var
EXTRN	__imp___wassert:PROC
EXTRN	__imp_??0UVector@icu_56@@QAE@AAW4UErrorCode@@@Z:PROC
;	COMDAT ??_C@_1CG@ODCOANLM@?$AAf?$AAL?$AAa?$AAz?$AAy?$AAC?$AAo?$AAn?$AAt?$AAe?$AAn?$AAt?$AAs?$AA?5?$AA?$CB?$AA?$DN?$AA?5?$AA0?$AA?$AA@
CONST	SEGMENT
??_C@_1CG@ODCOANLM@?$AAf?$AAL?$AAa?$AAz?$AAy?$AAC?$AAo?$AAn?$AAt?$AAe?$AAn?$AAt?$AAs?$AA?5?$AA?$CB?$AA?$DN?$AA?5?$AA0?$AA?$AA@ DB 'f'
	DB	00H, 'L', 00H, 'a', 00H, 'z', 00H, 'y', 00H, 'C', 00H, 'o', 00H
	DB	'n', 00H, 't', 00H, 'e', 00H, 'n', 00H, 't', 00H, 's', 00H, ' '
	DB	00H, '!', 00H, '=', 00H, ' ', 00H, '0', 00H, 00H, 00H ; `string'
CONST	ENDS
;	COMDAT ??_C@_1GC@OMCAKFML@?$AAd?$AA?3?$AA?2?$AAm?$AAo?$AAz?$AAi?$AAl?$AAl?$AAa?$AA?2?$AAi?$AAn?$AAt?$AAl?$AA?2?$AAi?$AAc?$AAu?$AA?2?$AAs?$AAo?$AAu?$AAr?$AAc?$AAe?$AA?2?$AAi?$AA1?$AA8?$AAn?$AA?2@
CONST	SEGMENT
??_C@_1GC@OMCAKFML@?$AAd?$AA?3?$AA?2?$AAm?$AAo?$AAz?$AAi?$AAl?$AAl?$AAa?$AA?2?$AAi?$AAn?$AAt?$AAl?$AA?2?$AAi?$AAc?$AAu?$AA?2?$AAs?$AAo?$AAu?$AAr?$AAc?$AAe?$AA?2?$AAi?$AA1?$AA8?$AAn?$AA?2@ DB 'd'
	DB	00H, ':', 00H, '\', 00H, 'm', 00H, 'o', 00H, 'z', 00H, 'i', 00H
	DB	'l', 00H, 'l', 00H, 'a', 00H, '\', 00H, 'i', 00H, 'n', 00H, 't'
	DB	00H, 'l', 00H, '\', 00H, 'i', 00H, 'c', 00H, 'u', 00H, '\', 00H
	DB	's', 00H, 'o', 00H, 'u', 00H, 'r', 00H, 'c', 00H, 'e', 00H, '\'
	DB	00H, 'i', 00H, '1', 00H, '8', 00H, 'n', 00H, '\', 00H, 't', 00H
	DB	'z', 00H, 'n', 00H, 'a', 00H, 'm', 00H, 'e', 00H, 's', 00H, '_'
	DB	00H, 'i', 00H, 'm', 00H, 'p', 00H, 'l', 00H, '.', 00H, 'c', 00H
	DB	'p', 00H, 'p', 00H, 00H, 00H			; `string'
CONST	ENDS
;	COMDAT ?__LINE__Var@?1??put@TextTrieMap@icu_56@@QAEXPB_WPAXAAW4UErrorCode@@@Z@4JA
_DATA	SEGMENT
?__LINE__Var@?1??put@TextTrieMap@icu_56@@QAEXPB_WPAXAAW4UErrorCode@@@Z@4JA DD 0bcH ; `icu_56::TextTrieMap::put'::`2'::__LINE__Var
_DATA	ENDS
;	COMDAT xdata$x
xdata$x	SEGMENT
__unwindtable$?put@TextTrieMap@icu_56@@QAEXPB_WPAXAAW4UErrorCode@@@Z DD 0ffffffffH
	DD	FLAT:__unwindfunclet$?put@TextTrieMap@icu_56@@QAEXPB_WPAXAAW4UErrorCode@@@Z$0
__ehfuncinfo$?put@TextTrieMap@icu_56@@QAEXPB_WPAXAAW4UErrorCode@@@Z DD 019930522H
	DD	01H
	DD	FLAT:__unwindtable$?put@TextTrieMap@icu_56@@QAEXPB_WPAXAAW4UErrorCode@@@Z
	DD	2 DUP(00H)
	DD	2 DUP(00H)
	DD	00H
	DD	01H
; Function compile flags: /Odtp /RTCsu /ZI
xdata$x	ENDS
;	COMDAT ?put@TextTrieMap@icu_56@@QAEXPB_WPAXAAW4UErrorCode@@@Z
_TEXT	SEGMENT
tv74 = -256						; size = 4
$T79848 = -248						; size = 4
$T79849 = -236						; size = 4
_s$ = -32						; size = 4
_this$ = -20						; size = 4
__$EHRec$ = -12						; size = 12
_key$ = 8						; size = 4
_value$ = 12						; size = 4
_status$ = 16						; size = 4
?put@TextTrieMap@icu_56@@QAEXPB_WPAXAAW4UErrorCode@@@Z PROC ; icu_56::TextTrieMap::put, COMDAT
; _this$ = ecx
; Line 188
	push	ebp
	mov	ebp, esp
	push	-1
	push	__ehhandler$?put@TextTrieMap@icu_56@@QAEXPB_WPAXAAW4UErrorCode@@@Z
	mov	eax, DWORD PTR fs:0
	push	eax
	sub	esp, 244				; 000000f4H
	push	ebx
	push	esi
	push	edi
	push	ecx
	lea	edi, DWORD PTR [ebp-256]
	mov	ecx, 61					; 0000003dH
	mov	eax, -858993460				; ccccccccH
	rep stosd
	pop	ecx
	mov	eax, DWORD PTR ___security_cookie
	xor	eax, ebp
	push	eax
	lea	eax, DWORD PTR __$EHRec$[ebp]
	mov	DWORD PTR fs:0, eax
	mov	DWORD PTR _this$[ebp], ecx
; Line 189
	mov	eax, DWORD PTR _this$[ebp]
	mov	BYTE PTR [eax+24], 0
; Line 190
	mov	eax, DWORD PTR _this$[ebp]
	cmp	DWORD PTR [eax+20], 0
	jne	$LN3@put
; Line 191
	mov	esi, esp
	push	24					; 00000018H
	call	DWORD PTR __imp_??2UMemory@icu_56@@SAPAXI@Z
	add	esp, 4
	cmp	esi, esp
	call	__RTC_CheckEsp
	mov	DWORD PTR $T79849[ebp], eax
	mov	DWORD PTR __$EHRec$[ebp+8], 0
	cmp	DWORD PTR $T79849[ebp], 0
	je	SHORT $LN6@put
	mov	esi, esp
	mov	eax, DWORD PTR _status$[ebp]
	push	eax
	mov	ecx, DWORD PTR $T79849[ebp]
	call	DWORD PTR __imp_??0UVector@icu_56@@QAE@AAW4UErrorCode@@@Z
	cmp	esi, esp
	call	__RTC_CheckEsp
	mov	ecx, DWORD PTR $T79849[ebp]
	mov	DWORD PTR [ecx], OFFSET ??_SUVector@icu_56@@6B@
	mov	edx, DWORD PTR $T79849[ebp]
	mov	DWORD PTR tv74[ebp], edx
	jmp	SHORT $LN7@put
$LN6@put:
	mov	DWORD PTR tv74[ebp], 0
$LN7@put:
	mov	eax, DWORD PTR tv74[ebp]
	mov	DWORD PTR $T79848[ebp], eax
	mov	DWORD PTR __$EHRec$[ebp+8], -1
	mov	ecx, DWORD PTR _this$[ebp]
	mov	edx, DWORD PTR $T79848[ebp]
	mov	DWORD PTR [ecx+20], edx
; Line 192
	mov	eax, DWORD PTR _this$[ebp]
	cmp	DWORD PTR [eax+20], 0
	jne	SHORT $LN3@put
; Line 193
	mov	eax, DWORD PTR _status$[ebp]
	mov	DWORD PTR [eax], 7
$LN3@put:
; Line 196
	mov	eax, DWORD PTR _status$[ebp]
	mov	ecx, DWORD PTR [eax]
	push	ecx
	call	?U_FAILURE@@YACW4UErrorCode@@@Z		; U_FAILURE
	add	esp, 4
	movsx	edx, al
	test	edx, edx
	je	SHORT $LN1@put
; Line 197
	jmp	SHORT $LN4@put
$LN1@put:
; Line 199
	mov	eax, DWORD PTR _this$[ebp]
	cmp	DWORD PTR [eax+20], 0
	jne	SHORT $LN8@put
	mov	ecx, DWORD PTR ?__LINE__Var@?1??put@TextTrieMap@icu_56@@QAEXPB_WPAXAAW4UErrorCode@@@Z@4JA
	add	ecx, 11					; 0000000bH
	mov	esi, esp
	push	ecx
	push	OFFSET ??_C@_1GC@OMCAKFML@?$AAd?$AA?3?$AA?2?$AAm?$AAo?$AAz?$AAi?$AAl?$AAl?$AAa?$AA?2?$AAi?$AAn?$AAt?$AAl?$AA?2?$AAi?$AAc?$AAu?$AA?2?$AAs?$AAo?$AAu?$AAr?$AAc?$AAe?$AA?2?$AAi?$AA1?$AA8?$AAn?$AA?2@
	push	OFFSET ??_C@_1CG@ODCOANLM@?$AAf?$AAL?$AAa?$AAz?$AAy?$AAC?$AAo?$AAn?$AAt?$AAe?$AAn?$AAt?$AAs?$AA?5?$AA?$CB?$AA?$DN?$AA?5?$AA0?$AA?$AA@
	call	DWORD PTR __imp___wassert
	add	esp, 12					; 0000000cH
	cmp	esi, esp
	call	__RTC_CheckEsp
$LN8@put:
; Line 200
	mov	eax, DWORD PTR _key$[ebp]
	mov	DWORD PTR _s$[ebp], eax
; Line 201
	mov	esi, esp
	mov	eax, DWORD PTR _status$[ebp]
	push	eax
	mov	ecx, DWORD PTR _s$[ebp]
	push	ecx
	mov	edx, DWORD PTR _this$[ebp]
	mov	ecx, DWORD PTR [edx+20]
	call	DWORD PTR __imp_?addElement@UVector@icu_56@@QAEXPAXAAW4UErrorCode@@@Z
	cmp	esi, esp
	call	__RTC_CheckEsp
; Line 202
	mov	esi, esp
	mov	eax, DWORD PTR _status$[ebp]
	push	eax
	mov	ecx, DWORD PTR _value$[ebp]
	push	ecx
	mov	edx, DWORD PTR _this$[ebp]
	mov	ecx, DWORD PTR [edx+20]
	call	DWORD PTR __imp_?addElement@UVector@icu_56@@QAEXPAXAAW4UErrorCode@@@Z
	cmp	esi, esp
	call	__RTC_CheckEsp
$LN4@put:
; Line 203
	mov	ecx, DWORD PTR __$EHRec$[ebp]
	mov	DWORD PTR fs:0, ecx
	pop	ecx
	pop	edi
	pop	esi
	pop	ebx
	add	esp, 256				; 00000100H
	cmp	ebp, esp
	call	__RTC_CheckEsp
	mov	esp, ebp
	pop	ebp
	ret	12					; 0000000cH
_TEXT	ENDS
;	COMDAT text$x
text$x	SEGMENT
__unwindfunclet$?put@TextTrieMap@icu_56@@QAEXPB_WPAXAAW4UErrorCode@@@Z$0:
	mov	esi, esp
	mov	eax, DWORD PTR $T79849[ebp]
	push	eax
	call	DWORD PTR __imp_??3UMemory@icu_56@@SAXPAX@Z
	add	esp, 4
	cmp	esi, esp
	jmp	__RTC_CheckEsp
__ehhandler$?put@TextTrieMap@icu_56@@QAEXPB_WPAXAAW4UErrorCode@@@Z:
	mov	edx, DWORD PTR [esp+8]
	lea	eax, DWORD PTR [edx+12]
	mov	ecx, DWORD PTR [edx-260]
	xor	ecx, eax
	call	@__security_check_cookie@4
	mov	eax, OFFSET __ehfuncinfo$?put@TextTrieMap@icu_56@@QAEXPB_WPAXAAW4UErrorCode@@@Z
	jmp	___CxxFrameHandler3
text$x	ENDS
?put@TextTrieMap@icu_56@@QAEXPB_WPAXAAW4UErrorCode@@@Z ENDP ; icu_56::TextTrieMap::put
PUBLIC	?addChildNode@TextTrieMap@icu_56@@AAEPAUCharacterNode@2@PAU32@_WAAW4UErrorCode@@@Z ; icu_56::TextTrieMap::addChildNode
PUBLIC	__$ArrayPad$
PUBLIC	?putImpl@TextTrieMap@icu_56@@AAEXABVUnicodeString@2@PAXAAW4UErrorCode@@@Z ; icu_56::TextTrieMap::putImpl
EXTRN	__imp_??1UnicodeString@icu_56@@UAE@XZ:PROC
EXTRN	__imp_?length@UnicodeString@icu_56@@QBEHXZ:PROC
EXTRN	__imp_?getBuffer@UnicodeString@icu_56@@QBEPB_WXZ:PROC
EXTRN	__imp_?foldCase@UnicodeString@icu_56@@QAEAAV12@I@Z:PROC
EXTRN	__imp_?fastCopyFrom@UnicodeString@icu_56@@QAEAAV12@ABV12@@Z:PROC
EXTRN	__imp_??0UnicodeString@icu_56@@QAE@XZ:PROC
EXTRN	_uprv_malloc_56:PROC
EXTRN	@_RTC_CheckStackVars@8:PROC
;	COMDAT xdata$x
xdata$x	SEGMENT
__unwindtable$?putImpl@TextTrieMap@icu_56@@AAEXABVUnicodeString@2@PAXAAW4UErrorCode@@@Z DD 0ffffffffH
	DD	FLAT:__unwindfunclet$?putImpl@TextTrieMap@icu_56@@AAEXABVUnicodeString@2@PAXAAW4UErrorCode@@@Z$0
__ehfuncinfo$?putImpl@TextTrieMap@icu_56@@AAEXABVUnicodeString@2@PAXAAW4UErrorCode@@@Z DD 019930522H
	DD	01H
	DD	FLAT:__unwindtable$?putImpl@TextTrieMap@icu_56@@AAEXABVUnicodeString@2@PAXAAW4UErrorCode@@@Z
	DD	2 DUP(00H)
	DD	2 DUP(00H)
	DD	00H
	DD	01H
; Function compile flags: /Odtp /RTCsu /ZI
xdata$x	ENDS
;	COMDAT ?putImpl@TextTrieMap@icu_56@@AAEXABVUnicodeString@2@PAXAAW4UErrorCode@@@Z
_TEXT	SEGMENT
_index$ = -144						; size = 4
_node$ = -132						; size = 4
_keyLength$ = -120					; size = 4
_keyBuffer$ = -108					; size = 4
_foldedKey$ = -96					; size = 64
_this$ = -24						; size = 4
__$ArrayPad$ = -16					; size = 4
__$EHRec$ = -12						; size = 12
_key$ = 8						; size = 4
_value$ = 12						; size = 4
_status$ = 16						; size = 4
?putImpl@TextTrieMap@icu_56@@AAEXABVUnicodeString@2@PAXAAW4UErrorCode@@@Z PROC ; icu_56::TextTrieMap::putImpl, COMDAT
; _this$ = ecx
; Line 206
	push	ebp
	mov	ebp, esp
	push	-1
	push	__ehhandler$?putImpl@TextTrieMap@icu_56@@AAEXABVUnicodeString@2@PAXAAW4UErrorCode@@@Z
	mov	eax, DWORD PTR fs:0
	push	eax
	sub	esp, 328				; 00000148H
	push	ebx
	push	esi
	push	edi
	push	ecx
	lea	edi, DWORD PTR [ebp-340]
	mov	ecx, 82					; 00000052H
	mov	eax, -858993460				; ccccccccH
	rep stosd
	pop	ecx
	mov	eax, DWORD PTR ___security_cookie
	xor	eax, ebp
	mov	DWORD PTR __$ArrayPad$[ebp], eax
	push	eax
	lea	eax, DWORD PTR __$EHRec$[ebp]
	mov	DWORD PTR fs:0, eax
	mov	DWORD PTR _this$[ebp], ecx
; Line 207
	mov	eax, DWORD PTR _this$[ebp]
	cmp	DWORD PTR [eax+8], 0
	jne	SHORT $LN6@putImpl
; Line 208
	mov	eax, DWORD PTR _this$[ebp]
	mov	DWORD PTR [eax+12], 512			; 00000200H
; Line 209
	mov	eax, DWORD PTR _this$[ebp]
	mov	ecx, DWORD PTR [eax+12]
	imul	ecx, 12					; 0000000cH
	push	ecx
	call	_uprv_malloc_56
	add	esp, 4
	mov	edx, DWORD PTR _this$[ebp]
	mov	DWORD PTR [edx+8], eax
; Line 210
	mov	eax, DWORD PTR _this$[ebp]
	mov	ecx, DWORD PTR [eax+8]
	call	?clear@CharacterNode@icu_56@@QAEXXZ	; icu_56::CharacterNode::clear
; Line 211
	mov	eax, DWORD PTR _this$[ebp]
	mov	DWORD PTR [eax+16], 1
$LN6@putImpl:
; Line 214
	mov	esi, esp
	lea	ecx, DWORD PTR _foldedKey$[ebp]
	call	DWORD PTR __imp_??0UnicodeString@icu_56@@QAE@XZ
	cmp	esi, esp
	call	__RTC_CheckEsp
	mov	DWORD PTR __$EHRec$[ebp+8], 0
; Line 217
	mov	eax, DWORD PTR _this$[ebp]
	movsx	ecx, BYTE PTR [eax+4]
	test	ecx, ecx
	je	SHORT $LN5@putImpl
; Line 219
	mov	esi, esp
	push	0
	mov	edi, esp
	mov	eax, DWORD PTR _key$[ebp]
	push	eax
	lea	ecx, DWORD PTR _foldedKey$[ebp]
	call	DWORD PTR __imp_?fastCopyFrom@UnicodeString@icu_56@@QAEAAV12@ABV12@@Z
	cmp	edi, esp
	call	__RTC_CheckEsp
	mov	ecx, eax
	call	DWORD PTR __imp_?foldCase@UnicodeString@icu_56@@QAEAAV12@I@Z
	cmp	esi, esp
	call	__RTC_CheckEsp
; Line 220
	mov	esi, esp
	lea	ecx, DWORD PTR _foldedKey$[ebp]
	call	DWORD PTR __imp_?getBuffer@UnicodeString@icu_56@@QBEPB_WXZ
	cmp	esi, esp
	call	__RTC_CheckEsp
	mov	DWORD PTR _keyBuffer$[ebp], eax
; Line 221
	mov	esi, esp
	lea	ecx, DWORD PTR _foldedKey$[ebp]
	call	DWORD PTR __imp_?length@UnicodeString@icu_56@@QBEHXZ
	cmp	esi, esp
	call	__RTC_CheckEsp
	mov	DWORD PTR _keyLength$[ebp], eax
; Line 222
	jmp	SHORT $LN4@putImpl
$LN5@putImpl:
; Line 223
	mov	esi, esp
	mov	ecx, DWORD PTR _key$[ebp]
	call	DWORD PTR __imp_?getBuffer@UnicodeString@icu_56@@QBEPB_WXZ
	cmp	esi, esp
	call	__RTC_CheckEsp
	mov	DWORD PTR _keyBuffer$[ebp], eax
; Line 224
	mov	esi, esp
	mov	ecx, DWORD PTR _key$[ebp]
	call	DWORD PTR __imp_?length@UnicodeString@icu_56@@QBEHXZ
	cmp	esi, esp
	call	__RTC_CheckEsp
	mov	DWORD PTR _keyLength$[ebp], eax
$LN4@putImpl:
; Line 227
	mov	eax, DWORD PTR _this$[ebp]
	mov	ecx, DWORD PTR [eax+8]
	mov	DWORD PTR _node$[ebp], ecx
; Line 229
	mov	DWORD PTR _index$[ebp], 0
	jmp	SHORT $LN3@putImpl
$LN2@putImpl:
	mov	eax, DWORD PTR _index$[ebp]
	add	eax, 1
	mov	DWORD PTR _index$[ebp], eax
$LN3@putImpl:
	mov	eax, DWORD PTR _index$[ebp]
	cmp	eax, DWORD PTR _keyLength$[ebp]
	jge	SHORT $LN1@putImpl
; Line 230
	mov	eax, DWORD PTR _status$[ebp]
	push	eax
	mov	ecx, DWORD PTR _index$[ebp]
	mov	edx, DWORD PTR _keyBuffer$[ebp]
	movzx	eax, WORD PTR [edx+ecx*2]
	push	eax
	mov	ecx, DWORD PTR _node$[ebp]
	push	ecx
	mov	ecx, DWORD PTR _this$[ebp]
	call	?addChildNode@TextTrieMap@icu_56@@AAEPAUCharacterNode@2@PAU32@_WAAW4UErrorCode@@@Z ; icu_56::TextTrieMap::addChildNode
	mov	DWORD PTR _node$[ebp], eax
; Line 231
	jmp	SHORT $LN2@putImpl
$LN1@putImpl:
; Line 232
	mov	eax, DWORD PTR _status$[ebp]
	push	eax
	mov	ecx, DWORD PTR _this$[ebp]
	mov	edx, DWORD PTR [ecx+28]
	push	edx
	mov	eax, DWORD PTR _value$[ebp]
	push	eax
	mov	ecx, DWORD PTR _node$[ebp]
	call	?addValue@CharacterNode@icu_56@@QAEXPAXP6AX0@ZAAW4UErrorCode@@@Z ; icu_56::CharacterNode::addValue
; Line 233
	mov	DWORD PTR __$EHRec$[ebp+8], -1
	mov	esi, esp
	lea	ecx, DWORD PTR _foldedKey$[ebp]
	call	DWORD PTR __imp_??1UnicodeString@icu_56@@UAE@XZ
	cmp	esi, esp
	call	__RTC_CheckEsp
	push	edx
	mov	ecx, ebp
	push	eax
	lea	edx, DWORD PTR $LN13@putImpl
	call	@_RTC_CheckStackVars@8
	pop	eax
	pop	edx
	mov	ecx, DWORD PTR __$EHRec$[ebp]
	mov	DWORD PTR fs:0, ecx
	pop	ecx
	pop	edi
	pop	esi
	pop	ebx
	mov	ecx, DWORD PTR __$ArrayPad$[ebp]
	xor	ecx, ebp
	call	@__security_check_cookie@4
	add	esp, 340				; 00000154H
	cmp	ebp, esp
	call	__RTC_CheckEsp
	mov	esp, ebp
	pop	ebp
	ret	12					; 0000000cH
	npad	2
$LN13@putImpl:
	DD	1
	DD	$LN12@putImpl
$LN12@putImpl:
	DD	-96					; ffffffa0H
	DD	64					; 00000040H
	DD	$LN10@putImpl
$LN10@putImpl:
	DB	102					; 00000066H
	DB	111					; 0000006fH
	DB	108					; 0000006cH
	DB	100					; 00000064H
	DB	101					; 00000065H
	DB	100					; 00000064H
	DB	75					; 0000004bH
	DB	101					; 00000065H
	DB	121					; 00000079H
	DB	0
_TEXT	ENDS
;	COMDAT text$x
text$x	SEGMENT
__unwindfunclet$?putImpl@TextTrieMap@icu_56@@AAEXABVUnicodeString@2@PAXAAW4UErrorCode@@@Z$0:
	mov	esi, esp
	lea	ecx, DWORD PTR _foldedKey$[ebp]
	call	DWORD PTR __imp_??1UnicodeString@icu_56@@UAE@XZ
	cmp	esi, esp
	jmp	__RTC_CheckEsp
__ehhandler$?putImpl@TextTrieMap@icu_56@@AAEXABVUnicodeString@2@PAXAAW4UErrorCode@@@Z:
	mov	edx, DWORD PTR [esp+8]
	lea	eax, DWORD PTR [edx+12]
	mov	ecx, DWORD PTR [edx-344]
	xor	ecx, eax
	call	@__security_check_cookie@4
	mov	ecx, DWORD PTR [edx-4]
	xor	ecx, eax
	call	@__security_check_cookie@4
	mov	eax, OFFSET __ehfuncinfo$?putImpl@TextTrieMap@icu_56@@AAEXABVUnicodeString@2@PAXAAW4UErrorCode@@@Z
	jmp	___CxxFrameHandler3
text$x	ENDS
?putImpl@TextTrieMap@icu_56@@AAEXABVUnicodeString@2@PAXAAW4UErrorCode@@@Z ENDP ; icu_56::TextTrieMap::putImpl
PUBLIC	?growNodes@TextTrieMap@icu_56@@AAECXZ		; icu_56::TextTrieMap::growNodes
EXTRN	_memcpy:PROC
EXTRN	_uprv_checkValidMemory:PROC
; Function compile flags: /Odtp /RTCsu /ZI
;	COMDAT ?growNodes@TextTrieMap@icu_56@@AAECXZ
_TEXT	SEGMENT
_newNodes$ = -32					; size = 4
_newCapacity$ = -20					; size = 4
_this$ = -8						; size = 4
?growNodes@TextTrieMap@icu_56@@AAECXZ PROC		; icu_56::TextTrieMap::growNodes, COMDAT
; _this$ = ecx
; Line 236
	push	ebp
	mov	ebp, esp
	sub	esp, 228				; 000000e4H
	push	ebx
	push	esi
	push	edi
	push	ecx
	lea	edi, DWORD PTR [ebp-228]
	mov	ecx, 57					; 00000039H
	mov	eax, -858993460				; ccccccccH
	rep stosd
	pop	ecx
	mov	DWORD PTR _this$[ebp], ecx
; Line 237
	mov	eax, DWORD PTR _this$[ebp]
	cmp	DWORD PTR [eax+12], 65535		; 0000ffffH
	jne	SHORT $LN3@growNodes
; Line 238
	xor	al, al
	jmp	$LN4@growNodes
$LN3@growNodes:
; Line 240
	mov	eax, DWORD PTR _this$[ebp]
	mov	ecx, DWORD PTR [eax+12]
	add	ecx, 1000				; 000003e8H
	mov	DWORD PTR _newCapacity$[ebp], ecx
; Line 241
	cmp	DWORD PTR _newCapacity$[ebp], 65535	; 0000ffffH
	jle	SHORT $LN2@growNodes
; Line 242
	mov	DWORD PTR _newCapacity$[ebp], 65535	; 0000ffffH
$LN2@growNodes:
; Line 244
	mov	eax, DWORD PTR _newCapacity$[ebp]
	imul	eax, 12					; 0000000cH
	push	eax
	call	_uprv_malloc_56
	add	esp, 4
	mov	DWORD PTR _newNodes$[ebp], eax
; Line 245
	cmp	DWORD PTR _newNodes$[ebp], 0
	jne	SHORT $LN1@growNodes
; Line 246
	xor	al, al
	jmp	SHORT $LN4@growNodes
$LN1@growNodes:
; Line 248
	push	1
	mov	eax, DWORD PTR _this$[ebp]
	mov	ecx, DWORD PTR [eax+8]
	push	ecx
	call	_uprv_checkValidMemory
	add	esp, 8
	mov	edx, DWORD PTR _this$[ebp]
	mov	eax, DWORD PTR [edx+16]
	imul	eax, 12					; 0000000cH
	push	eax
	mov	ecx, DWORD PTR _this$[ebp]
	mov	edx, DWORD PTR [ecx+8]
	push	edx
	mov	eax, DWORD PTR _newNodes$[ebp]
	push	eax
	call	_memcpy
	add	esp, 12					; 0000000cH
; Line 249
	mov	eax, DWORD PTR _this$[ebp]
	mov	ecx, DWORD PTR [eax+8]
	push	ecx
	call	_uprv_free_56
	add	esp, 4
; Line 250
	mov	eax, DWORD PTR _this$[ebp]
	mov	ecx, DWORD PTR _newNodes$[ebp]
	mov	DWORD PTR [eax+8], ecx
; Line 251
	mov	eax, DWORD PTR _this$[ebp]
	mov	ecx, DWORD PTR _newCapacity$[ebp]
	mov	DWORD PTR [eax+12], ecx
; Line 252
	mov	al, 1
$LN4@growNodes:
; Line 253
	pop	edi
	pop	esi
	pop	ebx
	add	esp, 228				; 000000e4H
	cmp	ebp, esp
	call	__RTC_CheckEsp
	mov	esp, ebp
	pop	ebp
	ret	0
?growNodes@TextTrieMap@icu_56@@AAECXZ ENDP		; icu_56::TextTrieMap::growNodes
; Function compile flags: /Odtp /RTCsu /ZI
_TEXT	ENDS
;	COMDAT ?addChildNode@TextTrieMap@icu_56@@AAEPAUCharacterNode@2@PAU32@_WAAW4UErrorCode@@@Z
_TEXT	SEGMENT
_node$ = -80						; size = 4
_parentIndex$71419 = -68				; size = 4
_childCharacter$71414 = -56				; size = 2
_current$71413 = -44					; size = 4
_nodeIndex$ = -32					; size = 2
_prevIndex$ = -20					; size = 2
_this$ = -8						; size = 4
_parent$ = 8						; size = 4
_c$ = 12						; size = 2
_status$ = 16						; size = 4
?addChildNode@TextTrieMap@icu_56@@AAEPAUCharacterNode@2@PAU32@_WAAW4UErrorCode@@@Z PROC ; icu_56::TextTrieMap::addChildNode, COMDAT
; _this$ = ecx
; Line 256
	push	ebp
	mov	ebp, esp
	sub	esp, 276				; 00000114H
	push	ebx
	push	esi
	push	edi
	push	ecx
	lea	edi, DWORD PTR [ebp-276]
	mov	ecx, 69					; 00000045H
	mov	eax, -858993460				; ccccccccH
	rep stosd
	pop	ecx
	mov	DWORD PTR _this$[ebp], ecx
; Line 257
	mov	eax, DWORD PTR _status$[ebp]
	mov	ecx, DWORD PTR [eax]
	push	ecx
	call	?U_FAILURE@@YACW4UErrorCode@@@Z		; U_FAILURE
	add	esp, 4
	movsx	edx, al
	test	edx, edx
	je	SHORT $LN10@addChildNo
; Line 258
	xor	eax, eax
	jmp	$LN11@addChildNo
$LN10@addChildNo:
; Line 261
	xor	eax, eax
	mov	WORD PTR _prevIndex$[ebp], ax
; Line 262
	mov	eax, DWORD PTR _parent$[ebp]
	mov	cx, WORD PTR [eax+6]
	mov	WORD PTR _nodeIndex$[ebp], cx
$LN9@addChildNo:
; Line 263
	movzx	eax, WORD PTR _nodeIndex$[ebp]
	test	eax, eax
	jle	SHORT $LN8@addChildNo
; Line 264
	movzx	eax, WORD PTR _nodeIndex$[ebp]
	imul	eax, 12					; 0000000cH
	mov	ecx, DWORD PTR _this$[ebp]
	add	eax, DWORD PTR [ecx+8]
	mov	DWORD PTR _current$71413[ebp], eax
; Line 265
	mov	eax, DWORD PTR _current$71413[ebp]
	mov	cx, WORD PTR [eax+4]
	mov	WORD PTR _childCharacter$71414[ebp], cx
; Line 266
	movzx	eax, WORD PTR _childCharacter$71414[ebp]
	movzx	ecx, WORD PTR _c$[ebp]
	cmp	eax, ecx
	jne	SHORT $LN7@addChildNo
; Line 267
	mov	eax, DWORD PTR _current$71413[ebp]
	jmp	$LN11@addChildNo
	jmp	SHORT $LN6@addChildNo
$LN7@addChildNo:
; Line 268
	movzx	eax, WORD PTR _childCharacter$71414[ebp]
	movzx	ecx, WORD PTR _c$[ebp]
	cmp	eax, ecx
	jle	SHORT $LN6@addChildNo
; Line 269
	jmp	SHORT $LN8@addChildNo
$LN6@addChildNo:
; Line 271
	mov	ax, WORD PTR _nodeIndex$[ebp]
	mov	WORD PTR _prevIndex$[ebp], ax
; Line 272
	mov	eax, DWORD PTR _current$71413[ebp]
	mov	cx, WORD PTR [eax+8]
	mov	WORD PTR _nodeIndex$[ebp], cx
; Line 273
	jmp	SHORT $LN9@addChildNo
$LN8@addChildNo:
; Line 276
	mov	eax, DWORD PTR _this$[ebp]
	mov	ecx, DWORD PTR _this$[ebp]
	mov	edx, DWORD PTR [eax+16]
	cmp	edx, DWORD PTR [ecx+12]
	jne	SHORT $LN4@addChildNo
; Line 277
	mov	eax, DWORD PTR _this$[ebp]
	mov	ecx, DWORD PTR _parent$[ebp]
	sub	ecx, DWORD PTR [eax+8]
	mov	eax, ecx
	cdq
	mov	ecx, 12					; 0000000cH
	idiv	ecx
	mov	DWORD PTR _parentIndex$71419[ebp], eax
; Line 278
	mov	ecx, DWORD PTR _this$[ebp]
	call	?growNodes@TextTrieMap@icu_56@@AAECXZ	; icu_56::TextTrieMap::growNodes
	movsx	eax, al
	test	eax, eax
	jne	SHORT $LN3@addChildNo
; Line 279
	mov	eax, DWORD PTR _status$[ebp]
	mov	DWORD PTR [eax], 7
; Line 280
	xor	eax, eax
	jmp	$LN11@addChildNo
$LN3@addChildNo:
; Line 282
	mov	eax, DWORD PTR _parentIndex$71419[ebp]
	imul	eax, 12					; 0000000cH
	mov	ecx, DWORD PTR _this$[ebp]
	add	eax, DWORD PTR [ecx+8]
	mov	DWORD PTR _parent$[ebp], eax
$LN4@addChildNo:
; Line 286
	mov	eax, DWORD PTR _this$[ebp]
	mov	ecx, DWORD PTR [eax+16]
	imul	ecx, 12					; 0000000cH
	mov	edx, DWORD PTR _this$[ebp]
	add	ecx, DWORD PTR [edx+8]
	mov	DWORD PTR _node$[ebp], ecx
; Line 287
	mov	ecx, DWORD PTR _node$[ebp]
	call	?clear@CharacterNode@icu_56@@QAEXXZ	; icu_56::CharacterNode::clear
; Line 288
	mov	eax, DWORD PTR _node$[ebp]
	mov	cx, WORD PTR _c$[ebp]
	mov	WORD PTR [eax+4], cx
; Line 289
	mov	eax, DWORD PTR _node$[ebp]
	mov	cx, WORD PTR _nodeIndex$[ebp]
	mov	WORD PTR [eax+8], cx
; Line 290
	movzx	eax, WORD PTR _prevIndex$[ebp]
	test	eax, eax
	jne	SHORT $LN2@addChildNo
; Line 291
	mov	eax, DWORD PTR _parent$[ebp]
	mov	ecx, DWORD PTR _this$[ebp]
	mov	dx, WORD PTR [ecx+16]
	mov	WORD PTR [eax+6], dx
; Line 292
	jmp	SHORT $LN1@addChildNo
$LN2@addChildNo:
; Line 293
	movzx	eax, WORD PTR _prevIndex$[ebp]
	imul	eax, 12					; 0000000cH
	mov	ecx, DWORD PTR _this$[ebp]
	mov	edx, DWORD PTR [ecx+8]
	mov	ecx, DWORD PTR _this$[ebp]
	mov	cx, WORD PTR [ecx+16]
	mov	WORD PTR [edx+eax+8], cx
$LN1@addChildNo:
; Line 295
	mov	eax, DWORD PTR _this$[ebp]
	mov	ecx, DWORD PTR [eax+16]
	add	ecx, 1
	mov	edx, DWORD PTR _this$[ebp]
	mov	DWORD PTR [edx+16], ecx
; Line 296
	mov	eax, DWORD PTR _node$[ebp]
$LN11@addChildNo:
; Line 297
	pop	edi
	pop	esi
	pop	ebx
	add	esp, 276				; 00000114H
	cmp	ebp, esp
	call	__RTC_CheckEsp
	mov	esp, ebp
	pop	ebp
	ret	12					; 0000000cH
?addChildNode@TextTrieMap@icu_56@@AAEPAUCharacterNode@2@PAU32@_WAAW4UErrorCode@@@Z ENDP ; icu_56::TextTrieMap::addChildNode
_TEXT	ENDS
PUBLIC	?getChildNode@TextTrieMap@icu_56@@ABEPAUCharacterNode@2@PAU32@_W@Z ; icu_56::TextTrieMap::getChildNode
; Function compile flags: /Odtp /RTCsu /ZI
;	COMDAT ?getChildNode@TextTrieMap@icu_56@@ABEPAUCharacterNode@2@PAU32@_W@Z
_TEXT	SEGMENT
_childCharacter$71437 = -44				; size = 2
_current$71436 = -32					; size = 4
_nodeIndex$ = -20					; size = 2
_this$ = -8						; size = 4
_parent$ = 8						; size = 4
_c$ = 12						; size = 2
?getChildNode@TextTrieMap@icu_56@@ABEPAUCharacterNode@2@PAU32@_W@Z PROC ; icu_56::TextTrieMap::getChildNode, COMDAT
; _this$ = ecx
; Line 300
	push	ebp
	mov	ebp, esp
	sub	esp, 240				; 000000f0H
	push	ebx
	push	esi
	push	edi
	push	ecx
	lea	edi, DWORD PTR [ebp-240]
	mov	ecx, 60					; 0000003cH
	mov	eax, -858993460				; ccccccccH
	rep stosd
	pop	ecx
	mov	DWORD PTR _this$[ebp], ecx
; Line 302
	mov	eax, DWORD PTR _parent$[ebp]
	mov	cx, WORD PTR [eax+6]
	mov	WORD PTR _nodeIndex$[ebp], cx
$LN5@getChildNo:
; Line 303
	movzx	eax, WORD PTR _nodeIndex$[ebp]
	test	eax, eax
	jle	SHORT $LN4@getChildNo
; Line 304
	movzx	eax, WORD PTR _nodeIndex$[ebp]
	imul	eax, 12					; 0000000cH
	mov	ecx, DWORD PTR _this$[ebp]
	add	eax, DWORD PTR [ecx+8]
	mov	DWORD PTR _current$71436[ebp], eax
; Line 305
	mov	eax, DWORD PTR _current$71436[ebp]
	mov	cx, WORD PTR [eax+4]
	mov	WORD PTR _childCharacter$71437[ebp], cx
; Line 306
	movzx	eax, WORD PTR _childCharacter$71437[ebp]
	movzx	ecx, WORD PTR _c$[ebp]
	cmp	eax, ecx
	jne	SHORT $LN3@getChildNo
; Line 307
	mov	eax, DWORD PTR _current$71436[ebp]
	jmp	SHORT $LN6@getChildNo
	jmp	SHORT $LN2@getChildNo
$LN3@getChildNo:
; Line 308
	movzx	eax, WORD PTR _childCharacter$71437[ebp]
	movzx	ecx, WORD PTR _c$[ebp]
	cmp	eax, ecx
	jle	SHORT $LN2@getChildNo
; Line 309
	jmp	SHORT $LN4@getChildNo
$LN2@getChildNo:
; Line 311
	mov	eax, DWORD PTR _current$71436[ebp]
	mov	cx, WORD PTR [eax+8]
	mov	WORD PTR _nodeIndex$[ebp], cx
; Line 312
	jmp	SHORT $LN5@getChildNo
$LN4@getChildNo:
; Line 313
	xor	eax, eax
$LN6@getChildNo:
; Line 314
	pop	edi
	pop	esi
	pop	ebx
	mov	esp, ebp
	pop	ebp
	ret	8
?getChildNode@TextTrieMap@icu_56@@ABEPAUCharacterNode@2@PAU32@_W@Z ENDP ; icu_56::TextTrieMap::getChildNode
_TEXT	ENDS
PUBLIC	__$ArrayPad$
PUBLIC	?buildTrie@TextTrieMap@icu_56@@AAEXAAW4UErrorCode@@@Z ; icu_56::TextTrieMap::buildTrie
EXTRN	__imp_??0UnicodeString@icu_56@@QAE@CPB_WH@Z:PROC
;	COMDAT xdata$x
xdata$x	SEGMENT
__unwindtable$?buildTrie@TextTrieMap@icu_56@@AAEXAAW4UErrorCode@@@Z DD 0ffffffffH
	DD	FLAT:__unwindfunclet$?buildTrie@TextTrieMap@icu_56@@AAEXAAW4UErrorCode@@@Z$0
__ehfuncinfo$?buildTrie@TextTrieMap@icu_56@@AAEXAAW4UErrorCode@@@Z DD 019930522H
	DD	01H
	DD	FLAT:__unwindtable$?buildTrie@TextTrieMap@icu_56@@AAEXAAW4UErrorCode@@@Z
	DD	2 DUP(00H)
	DD	2 DUP(00H)
	DD	00H
	DD	01H
; Function compile flags: /Odtp /RTCsu /ZI
xdata$x	ENDS
;	COMDAT ?buildTrie@TextTrieMap@icu_56@@AAEXAAW4UErrorCode@@@Z
_TEXT	SEGMENT
tv133 = -356						; size = 4
$T79883 = -348						; size = 4
$T79884 = -336						; size = 4
_keyString$71454 = -132					; size = 64
_val$71453 = -60					; size = 4
_key$71451 = -48					; size = 4
_i$71447 = -36						; size = 4
_this$ = -24						; size = 4
__$ArrayPad$ = -16					; size = 4
__$EHRec$ = -12						; size = 12
_status$ = 8						; size = 4
?buildTrie@TextTrieMap@icu_56@@AAEXAAW4UErrorCode@@@Z PROC ; icu_56::TextTrieMap::buildTrie, COMDAT
; _this$ = ecx
; Line 323
	push	ebp
	mov	ebp, esp
	push	-1
	push	__ehhandler$?buildTrie@TextTrieMap@icu_56@@AAEXAAW4UErrorCode@@@Z
	mov	eax, DWORD PTR fs:0
	push	eax
	sub	esp, 344				; 00000158H
	push	ebx
	push	esi
	push	edi
	push	ecx
	lea	edi, DWORD PTR [ebp-356]
	mov	ecx, 86					; 00000056H
	mov	eax, -858993460				; ccccccccH
	rep stosd
	pop	ecx
	mov	eax, DWORD PTR ___security_cookie
	xor	eax, ebp
	mov	DWORD PTR __$ArrayPad$[ebp], eax
	push	eax
	lea	eax, DWORD PTR __$EHRec$[ebp]
	mov	DWORD PTR fs:0, eax
	mov	DWORD PTR _this$[ebp], ecx
; Line 324
	mov	eax, DWORD PTR _this$[ebp]
	cmp	DWORD PTR [eax+20], 0
	je	$LN5@buildTrie
; Line 325
	mov	DWORD PTR _i$71447[ebp], 0
	jmp	SHORT $LN3@buildTrie
$LN2@buildTrie:
	mov	eax, DWORD PTR _i$71447[ebp]
	add	eax, 2
	mov	DWORD PTR _i$71447[ebp], eax
$LN3@buildTrie:
	mov	esi, esp
	mov	eax, DWORD PTR _this$[ebp]
	mov	ecx, DWORD PTR [eax+20]
	call	DWORD PTR __imp_?size@UVector@icu_56@@QBEHXZ
	cmp	esi, esp
	call	__RTC_CheckEsp
	cmp	DWORD PTR _i$71447[ebp], eax
	jge	$LN1@buildTrie
; Line 326
	mov	esi, esp
	mov	eax, DWORD PTR _i$71447[ebp]
	push	eax
	mov	ecx, DWORD PTR _this$[ebp]
	mov	ecx, DWORD PTR [ecx+20]
	call	DWORD PTR __imp_?elementAt@UVector@icu_56@@QBEPAXH@Z
	cmp	esi, esp
	call	__RTC_CheckEsp
	mov	DWORD PTR _key$71451[ebp], eax
; Line 327
	mov	eax, DWORD PTR _i$71447[ebp]
	add	eax, 1
	mov	esi, esp
	push	eax
	mov	ecx, DWORD PTR _this$[ebp]
	mov	ecx, DWORD PTR [ecx+20]
	call	DWORD PTR __imp_?elementAt@UVector@icu_56@@QBEPAXH@Z
	cmp	esi, esp
	call	__RTC_CheckEsp
	mov	DWORD PTR _val$71453[ebp], eax
; Line 328
	mov	esi, esp
	push	-1
	mov	eax, DWORD PTR _key$71451[ebp]
	push	eax
	push	1
	lea	ecx, DWORD PTR _keyString$71454[ebp]
	call	DWORD PTR __imp_??0UnicodeString@icu_56@@QAE@CPB_WH@Z
	cmp	esi, esp
	call	__RTC_CheckEsp
	mov	DWORD PTR __$EHRec$[ebp+8], 0
; Line 329
	mov	eax, DWORD PTR _status$[ebp]
	push	eax
	mov	ecx, DWORD PTR _val$71453[ebp]
	push	ecx
	lea	edx, DWORD PTR _keyString$71454[ebp]
	push	edx
	mov	ecx, DWORD PTR _this$[ebp]
	call	?putImpl@TextTrieMap@icu_56@@AAEXABVUnicodeString@2@PAXAAW4UErrorCode@@@Z ; icu_56::TextTrieMap::putImpl
; Line 330
	mov	DWORD PTR __$EHRec$[ebp+8], -1
	mov	esi, esp
	lea	ecx, DWORD PTR _keyString$71454[ebp]
	call	DWORD PTR __imp_??1UnicodeString@icu_56@@UAE@XZ
	cmp	esi, esp
	call	__RTC_CheckEsp
	jmp	$LN2@buildTrie
$LN1@buildTrie:
; Line 331
	mov	eax, DWORD PTR _this$[ebp]
	mov	ecx, DWORD PTR [eax+20]
	mov	DWORD PTR $T79884[ebp], ecx
	mov	edx, DWORD PTR $T79884[ebp]
	mov	DWORD PTR $T79883[ebp], edx
	cmp	DWORD PTR $T79883[ebp], 0
	je	SHORT $LN7@buildTrie
	mov	esi, esp
	push	1
	mov	eax, DWORD PTR $T79883[ebp]
	mov	edx, DWORD PTR [eax]
	mov	ecx, DWORD PTR $T79883[ebp]
	mov	eax, DWORD PTR [edx]
	call	eax
	cmp	esi, esp
	call	__RTC_CheckEsp
	mov	DWORD PTR tv133[ebp], eax
	jmp	SHORT $LN8@buildTrie
$LN7@buildTrie:
	mov	DWORD PTR tv133[ebp], 0
$LN8@buildTrie:
; Line 332
	mov	eax, DWORD PTR _this$[ebp]
	mov	DWORD PTR [eax+20], 0
$LN5@buildTrie:
; Line 334
	push	edx
	mov	ecx, ebp
	push	eax
	lea	edx, DWORD PTR $LN13@buildTrie
	call	@_RTC_CheckStackVars@8
	pop	eax
	pop	edx
	mov	ecx, DWORD PTR __$EHRec$[ebp]
	mov	DWORD PTR fs:0, ecx
	pop	ecx
	pop	edi
	pop	esi
	pop	ebx
	mov	ecx, DWORD PTR __$ArrayPad$[ebp]
	xor	ecx, ebp
	call	@__security_check_cookie@4
	add	esp, 356				; 00000164H
	cmp	ebp, esp
	call	__RTC_CheckEsp
	mov	esp, ebp
	pop	ebp
	ret	4
	npad	1
$LN13@buildTrie:
	DD	1
	DD	$LN12@buildTrie
$LN12@buildTrie:
	DD	-132					; ffffff7cH
	DD	64					; 00000040H
	DD	$LN10@buildTrie
$LN10@buildTrie:
	DB	107					; 0000006bH
	DB	101					; 00000065H
	DB	121					; 00000079H
	DB	83					; 00000053H
	DB	116					; 00000074H
	DB	114					; 00000072H
	DB	105					; 00000069H
	DB	110					; 0000006eH
	DB	103					; 00000067H
	DB	0
_TEXT	ENDS
;	COMDAT text$x
text$x	SEGMENT
__unwindfunclet$?buildTrie@TextTrieMap@icu_56@@AAEXAAW4UErrorCode@@@Z$0:
	mov	esi, esp
	lea	ecx, DWORD PTR _keyString$71454[ebp]
	call	DWORD PTR __imp_??1UnicodeString@icu_56@@UAE@XZ
	cmp	esi, esp
	jmp	__RTC_CheckEsp
__ehhandler$?buildTrie@TextTrieMap@icu_56@@AAEXAAW4UErrorCode@@@Z:
	mov	edx, DWORD PTR [esp+8]
	lea	eax, DWORD PTR [edx+12]
	mov	ecx, DWORD PTR [edx-360]
	xor	ecx, eax
	call	@__security_check_cookie@4
	mov	ecx, DWORD PTR [edx-4]
	xor	ecx, eax
	call	@__security_check_cookie@4
	mov	eax, OFFSET __ehfuncinfo$?buildTrie@TextTrieMap@icu_56@@AAEXAAW4UErrorCode@@@Z
	jmp	___CxxFrameHandler3
text$x	ENDS
?buildTrie@TextTrieMap@icu_56@@AAEXAAW4UErrorCode@@@Z ENDP ; icu_56::TextTrieMap::buildTrie
PUBLIC	?search@TextTrieMap@icu_56@@ABEXPAUCharacterNode@2@ABVUnicodeString@2@HHPAVTextTrieMapSearchResultHandler@2@AAW4UErrorCode@@@Z ; icu_56::TextTrieMap::search
PUBLIC	?search@TextTrieMap@icu_56@@QBEXABVUnicodeString@2@HPAVTextTrieMapSearchResultHandler@2@AAW4UErrorCode@@@Z ; icu_56::TextTrieMap::search
EXTRN	__imp_??1Mutex@icu_56@@QAE@XZ:PROC
EXTRN	__imp_??0Mutex@icu_56@@QAE@PAUUMutex@@@Z:PROC
;	COMDAT xdata$x
xdata$x	SEGMENT
__unwindtable$?search@TextTrieMap@icu_56@@QBEXABVUnicodeString@2@HPAVTextTrieMapSearchResultHandler@2@AAW4UErrorCode@@@Z DD 0ffffffffH
	DD	FLAT:__unwindfunclet$?search@TextTrieMap@icu_56@@QBEXABVUnicodeString@2@HPAVTextTrieMapSearchResultHandler@2@AAW4UErrorCode@@@Z$0
__ehfuncinfo$?search@TextTrieMap@icu_56@@QBEXABVUnicodeString@2@HPAVTextTrieMapSearchResultHandler@2@AAW4UErrorCode@@@Z DD 019930522H
	DD	01H
	DD	FLAT:__unwindtable$?search@TextTrieMap@icu_56@@QBEXABVUnicodeString@2@HPAVTextTrieMapSearchResultHandler@2@AAW4UErrorCode@@@Z
	DD	2 DUP(00H)
	DD	2 DUP(00H)
	DD	00H
	DD	01H
; Function compile flags: /Odtp /RTCsu /ZI
xdata$x	ENDS
;	COMDAT ?search@TextTrieMap@icu_56@@QBEXABVUnicodeString@2@HPAVTextTrieMapSearchResultHandler@2@AAW4UErrorCode@@@Z
_TEXT	SEGMENT
_nonConstThis$71466 = -44				; size = 4
_lock$71464 = -32					; size = 4
_this$ = -20						; size = 4
__$EHRec$ = -12						; size = 12
_text$ = 8						; size = 4
_start$ = 12						; size = 4
_handler$ = 16						; size = 4
_status$ = 20						; size = 4
?search@TextTrieMap@icu_56@@QBEXABVUnicodeString@2@HPAVTextTrieMapSearchResultHandler@2@AAW4UErrorCode@@@Z PROC ; icu_56::TextTrieMap::search, COMDAT
; _this$ = ecx
; Line 338
	push	ebp
	mov	ebp, esp
	push	-1
	push	__ehhandler$?search@TextTrieMap@icu_56@@QBEXABVUnicodeString@2@HPAVTextTrieMapSearchResultHandler@2@AAW4UErrorCode@@@Z
	mov	eax, DWORD PTR fs:0
	push	eax
	sub	esp, 228				; 000000e4H
	push	ebx
	push	esi
	push	edi
	push	ecx
	lea	edi, DWORD PTR [ebp-240]
	mov	ecx, 57					; 00000039H
	mov	eax, -858993460				; ccccccccH
	rep stosd
	pop	ecx
	mov	eax, DWORD PTR ___security_cookie
	xor	eax, ebp
	push	eax
	lea	eax, DWORD PTR __$EHRec$[ebp]
	mov	DWORD PTR fs:0, eax
	mov	DWORD PTR _this$[ebp], ecx
; Line 345
	mov	esi, esp
	push	OFFSET _TextTrieMutex
	lea	ecx, DWORD PTR _lock$71464[ebp]
	call	DWORD PTR __imp_??0Mutex@icu_56@@QAE@PAUUMutex@@@Z
	cmp	esi, esp
	call	__RTC_CheckEsp
	mov	DWORD PTR __$EHRec$[ebp+8], 0
; Line 346
	mov	eax, DWORD PTR _this$[ebp]
	cmp	DWORD PTR [eax+20], 0
	je	SHORT $LN2@search
; Line 347
	mov	eax, DWORD PTR _this$[ebp]
	mov	DWORD PTR _nonConstThis$71466[ebp], eax
; Line 348
	mov	eax, DWORD PTR _status$[ebp]
	push	eax
	mov	ecx, DWORD PTR _nonConstThis$71466[ebp]
	call	?buildTrie@TextTrieMap@icu_56@@AAEXAAW4UErrorCode@@@Z ; icu_56::TextTrieMap::buildTrie
$LN2@search:
; Line 350
	mov	DWORD PTR __$EHRec$[ebp+8], -1
	mov	esi, esp
	lea	ecx, DWORD PTR _lock$71464[ebp]
	call	DWORD PTR __imp_??1Mutex@icu_56@@QAE@XZ
	cmp	esi, esp
	call	__RTC_CheckEsp
; Line 351
	mov	eax, DWORD PTR _this$[ebp]
	cmp	DWORD PTR [eax+8], 0
	jne	SHORT $LN1@search
; Line 352
	jmp	SHORT $LN3@search
$LN1@search:
; Line 354
	mov	eax, DWORD PTR _status$[ebp]
	push	eax
	mov	ecx, DWORD PTR _handler$[ebp]
	push	ecx
	mov	edx, DWORD PTR _start$[ebp]
	push	edx
	mov	eax, DWORD PTR _start$[ebp]
	push	eax
	mov	ecx, DWORD PTR _text$[ebp]
	push	ecx
	mov	edx, DWORD PTR _this$[ebp]
	mov	eax, DWORD PTR [edx+8]
	push	eax
	mov	ecx, DWORD PTR _this$[ebp]
	call	?search@TextTrieMap@icu_56@@ABEXPAUCharacterNode@2@ABVUnicodeString@2@HHPAVTextTrieMapSearchResultHandler@2@AAW4UErrorCode@@@Z ; icu_56::TextTrieMap::search
$LN3@search:
; Line 355
	push	edx
	mov	ecx, ebp
	push	eax
	lea	edx, DWORD PTR $LN9@search
	call	@_RTC_CheckStackVars@8
	pop	eax
	pop	edx
	mov	ecx, DWORD PTR __$EHRec$[ebp]
	mov	DWORD PTR fs:0, ecx
	pop	ecx
	pop	edi
	pop	esi
	pop	ebx
	add	esp, 240				; 000000f0H
	cmp	ebp, esp
	call	__RTC_CheckEsp
	mov	esp, ebp
	pop	ebp
	ret	16					; 00000010H
$LN9@search:
	DD	1
	DD	$LN8@search
$LN8@search:
	DD	-32					; ffffffe0H
	DD	4
	DD	$LN6@search
$LN6@search:
	DB	108					; 0000006cH
	DB	111					; 0000006fH
	DB	99					; 00000063H
	DB	107					; 0000006bH
	DB	0
_TEXT	ENDS
;	COMDAT text$x
text$x	SEGMENT
__unwindfunclet$?search@TextTrieMap@icu_56@@QBEXABVUnicodeString@2@HPAVTextTrieMapSearchResultHandler@2@AAW4UErrorCode@@@Z$0:
	mov	esi, esp
	lea	ecx, DWORD PTR _lock$71464[ebp]
	call	DWORD PTR __imp_??1Mutex@icu_56@@QAE@XZ
	cmp	esi, esp
	jmp	__RTC_CheckEsp
__ehhandler$?search@TextTrieMap@icu_56@@QBEXABVUnicodeString@2@HPAVTextTrieMapSearchResultHandler@2@AAW4UErrorCode@@@Z:
	mov	edx, DWORD PTR [esp+8]
	lea	eax, DWORD PTR [edx+12]
	mov	ecx, DWORD PTR [edx-244]
	xor	ecx, eax
	call	@__security_check_cookie@4
	mov	eax, OFFSET __ehfuncinfo$?search@TextTrieMap@icu_56@@QBEXABVUnicodeString@2@HPAVTextTrieMapSearchResultHandler@2@AAW4UErrorCode@@@Z
	jmp	___CxxFrameHandler3
text$x	ENDS
?search@TextTrieMap@icu_56@@QBEXABVUnicodeString@2@HPAVTextTrieMapSearchResultHandler@2@AAW4UErrorCode@@@Z ENDP ; icu_56::TextTrieMap::search
PUBLIC	?hasValues@CharacterNode@icu_56@@QBECXZ		; icu_56::CharacterNode::hasValues
PUBLIC	__$ArrayPad$
EXTRN	__imp_?moveIndex32@UnicodeString@icu_56@@QBEHHH@Z:PROC
EXTRN	__imp_??0UnicodeString@icu_56@@QAE@H@Z:PROC
EXTRN	__imp_?char32At@UnicodeString@icu_56@@QBEHH@Z:PROC
;	COMDAT xdata$x
xdata$x	SEGMENT
__unwindtable$?search@TextTrieMap@icu_56@@ABEXPAUCharacterNode@2@ABVUnicodeString@2@HHPAVTextTrieMapSearchResultHandler@2@AAW4UErrorCode@@@Z DD 0ffffffffH
	DD	FLAT:__unwindfunclet$?search@TextTrieMap@icu_56@@ABEXPAUCharacterNode@2@ABVUnicodeString@2@HHPAVTextTrieMapSearchResultHandler@2@AAW4UErrorCode@@@Z$0
__ehfuncinfo$?search@TextTrieMap@icu_56@@ABEXPAUCharacterNode@2@ABVUnicodeString@2@HHPAVTextTrieMapSearchResultHandler@2@AAW4UErrorCode@@@Z DD 019930522H
	DD	01H
	DD	FLAT:__unwindtable$?search@TextTrieMap@icu_56@@ABEXPAUCharacterNode@2@ABVUnicodeString@2@HHPAVTextTrieMapSearchResultHandler@2@AAW4UErrorCode@@@Z
	DD	2 DUP(00H)
	DD	2 DUP(00H)
	DD	00H
	DD	01H
; Function compile flags: /Odtp /RTCsu /ZI
xdata$x	ENDS
;	COMDAT ?search@TextTrieMap@icu_56@@ABEXPAUCharacterNode@2@ABVUnicodeString@2@HHPAVTextTrieMapSearchResultHandler@2@AAW4UErrorCode@@@Z
_TEXT	SEGMENT
_tmpidx$71485 = -120					; size = 4
_tmp$71484 = -108					; size = 64
_c$ = -36						; size = 4
_this$ = -24						; size = 4
__$ArrayPad$ = -16					; size = 4
__$EHRec$ = -12						; size = 12
_node$ = 8						; size = 4
_text$ = 12						; size = 4
_start$ = 16						; size = 4
_index$ = 20						; size = 4
_handler$ = 24						; size = 4
_status$ = 28						; size = 4
?search@TextTrieMap@icu_56@@ABEXPAUCharacterNode@2@ABVUnicodeString@2@HHPAVTextTrieMapSearchResultHandler@2@AAW4UErrorCode@@@Z PROC ; icu_56::TextTrieMap::search, COMDAT
; _this$ = ecx
; Line 359
	push	ebp
	mov	ebp, esp
	push	-1
	push	__ehhandler$?search@TextTrieMap@icu_56@@ABEXPAUCharacterNode@2@ABVUnicodeString@2@HHPAVTextTrieMapSearchResultHandler@2@AAW4UErrorCode@@@Z
	mov	eax, DWORD PTR fs:0
	push	eax
	sub	esp, 304				; 00000130H
	push	ebx
	push	esi
	push	edi
	push	ecx
	lea	edi, DWORD PTR [ebp-316]
	mov	ecx, 76					; 0000004cH
	mov	eax, -858993460				; ccccccccH
	rep stosd
	pop	ecx
	mov	eax, DWORD PTR ___security_cookie
	xor	eax, ebp
	mov	DWORD PTR __$ArrayPad$[ebp], eax
	push	eax
	lea	eax, DWORD PTR __$EHRec$[ebp]
	mov	DWORD PTR fs:0, eax
	mov	DWORD PTR _this$[ebp], ecx
; Line 360
	mov	eax, DWORD PTR _status$[ebp]
	mov	ecx, DWORD PTR [eax]
	push	ecx
	call	?U_FAILURE@@YACW4UErrorCode@@@Z		; U_FAILURE
	add	esp, 4
	movsx	edx, al
	test	edx, edx
	je	SHORT $LN10@search@2
; Line 361
	jmp	$LN11@search@2
$LN10@search@2:
; Line 363
	mov	ecx, DWORD PTR _node$[ebp]
	call	?hasValues@CharacterNode@icu_56@@QBECXZ	; icu_56::CharacterNode::hasValues
	movsx	eax, al
	test	eax, eax
	je	SHORT $LN9@search@2
; Line 364
	mov	esi, esp
	mov	eax, DWORD PTR _status$[ebp]
	push	eax
	mov	ecx, DWORD PTR _node$[ebp]
	push	ecx
	mov	edx, DWORD PTR _index$[ebp]
	sub	edx, DWORD PTR _start$[ebp]
	push	edx
	mov	eax, DWORD PTR _handler$[ebp]
	mov	edx, DWORD PTR [eax]
	mov	ecx, DWORD PTR _handler$[ebp]
	mov	eax, DWORD PTR [edx]
	call	eax
	cmp	esi, esp
	call	__RTC_CheckEsp
	movsx	ecx, al
	test	ecx, ecx
	jne	SHORT $LN8@search@2
; Line 365
	jmp	$LN11@search@2
$LN8@search@2:
; Line 367
	mov	eax, DWORD PTR _status$[ebp]
	mov	ecx, DWORD PTR [eax]
	push	ecx
	call	?U_FAILURE@@YACW4UErrorCode@@@Z		; U_FAILURE
	add	esp, 4
	movsx	edx, al
	test	edx, edx
	je	SHORT $LN9@search@2
; Line 368
	jmp	$LN11@search@2
$LN9@search@2:
; Line 371
	mov	esi, esp
	mov	eax, DWORD PTR _index$[ebp]
	push	eax
	mov	ecx, DWORD PTR _text$[ebp]
	call	DWORD PTR __imp_?char32At@UnicodeString@icu_56@@QBEHH@Z
	cmp	esi, esp
	call	__RTC_CheckEsp
	mov	DWORD PTR _c$[ebp], eax
; Line 372
	mov	eax, DWORD PTR _this$[ebp]
	movsx	ecx, BYTE PTR [eax+4]
	test	ecx, ecx
	je	$LN6@search@2
; Line 374
	mov	esi, esp
	mov	eax, DWORD PTR _c$[ebp]
	push	eax
	lea	ecx, DWORD PTR _tmp$71484[ebp]
	call	DWORD PTR __imp_??0UnicodeString@icu_56@@QAE@H@Z
	cmp	esi, esp
	call	__RTC_CheckEsp
	mov	DWORD PTR __$EHRec$[ebp+8], 0
; Line 375
	mov	esi, esp
	push	0
	lea	ecx, DWORD PTR _tmp$71484[ebp]
	call	DWORD PTR __imp_?foldCase@UnicodeString@icu_56@@QAEAAV12@I@Z
	cmp	esi, esp
	call	__RTC_CheckEsp
; Line 376
	mov	DWORD PTR _tmpidx$71485[ebp], 0
$LN5@search@2:
; Line 377
	mov	esi, esp
	lea	ecx, DWORD PTR _tmp$71484[ebp]
	call	DWORD PTR __imp_?length@UnicodeString@icu_56@@QBEHXZ
	cmp	esi, esp
	call	__RTC_CheckEsp
	cmp	DWORD PTR _tmpidx$71485[ebp], eax
	jge	SHORT $LN4@search@2
; Line 378
	mov	esi, esp
	mov	eax, DWORD PTR _tmpidx$71485[ebp]
	push	eax
	lea	ecx, DWORD PTR _tmp$71484[ebp]
	call	DWORD PTR __imp_?char32At@UnicodeString@icu_56@@QBEHH@Z
	cmp	esi, esp
	call	__RTC_CheckEsp
	mov	DWORD PTR _c$[ebp], eax
; Line 379
	movzx	eax, WORD PTR _c$[ebp]
	push	eax
	mov	ecx, DWORD PTR _node$[ebp]
	push	ecx
	mov	ecx, DWORD PTR _this$[ebp]
	call	?getChildNode@TextTrieMap@icu_56@@ABEPAUCharacterNode@2@PAU32@_W@Z ; icu_56::TextTrieMap::getChildNode
	mov	DWORD PTR _node$[ebp], eax
; Line 380
	cmp	DWORD PTR _node$[ebp], 0
	jne	SHORT $LN3@search@2
; Line 381
	jmp	SHORT $LN4@search@2
$LN3@search@2:
; Line 383
	mov	esi, esp
	push	1
	mov	eax, DWORD PTR _tmpidx$71485[ebp]
	push	eax
	lea	ecx, DWORD PTR _tmp$71484[ebp]
	call	DWORD PTR __imp_?moveIndex32@UnicodeString@icu_56@@QBEHHH@Z
	cmp	esi, esp
	call	__RTC_CheckEsp
	mov	DWORD PTR _tmpidx$71485[ebp], eax
; Line 384
	jmp	SHORT $LN5@search@2
$LN4@search@2:
; Line 385
	mov	DWORD PTR __$EHRec$[ebp+8], -1
	mov	esi, esp
	lea	ecx, DWORD PTR _tmp$71484[ebp]
	call	DWORD PTR __imp_??1UnicodeString@icu_56@@UAE@XZ
	cmp	esi, esp
	call	__RTC_CheckEsp
	jmp	SHORT $LN2@search@2
$LN6@search@2:
; Line 386
	movzx	eax, WORD PTR _c$[ebp]
	push	eax
	mov	ecx, DWORD PTR _node$[ebp]
	push	ecx
	mov	ecx, DWORD PTR _this$[ebp]
	call	?getChildNode@TextTrieMap@icu_56@@ABEPAUCharacterNode@2@PAU32@_W@Z ; icu_56::TextTrieMap::getChildNode
	mov	DWORD PTR _node$[ebp], eax
$LN2@search@2:
; Line 388
	cmp	DWORD PTR _node$[ebp], 0
	je	SHORT $LN11@search@2
; Line 389
	mov	eax, DWORD PTR _status$[ebp]
	push	eax
	mov	ecx, DWORD PTR _handler$[ebp]
	push	ecx
	mov	edx, DWORD PTR _index$[ebp]
	add	edx, 1
	push	edx
	mov	eax, DWORD PTR _start$[ebp]
	push	eax
	mov	ecx, DWORD PTR _text$[ebp]
	push	ecx
	mov	edx, DWORD PTR _node$[ebp]
	push	edx
	mov	ecx, DWORD PTR _this$[ebp]
	call	?search@TextTrieMap@icu_56@@ABEXPAUCharacterNode@2@ABVUnicodeString@2@HHPAVTextTrieMapSearchResultHandler@2@AAW4UErrorCode@@@Z ; icu_56::TextTrieMap::search
$LN11@search@2:
; Line 391
	push	edx
	mov	ecx, ebp
	push	eax
	lea	edx, DWORD PTR $LN17@search@2
	call	@_RTC_CheckStackVars@8
	pop	eax
	pop	edx
	mov	ecx, DWORD PTR __$EHRec$[ebp]
	mov	DWORD PTR fs:0, ecx
	pop	ecx
	pop	edi
	pop	esi
	pop	ebx
	mov	ecx, DWORD PTR __$ArrayPad$[ebp]
	xor	ecx, ebp
	call	@__security_check_cookie@4
	add	esp, 316				; 0000013cH
	cmp	ebp, esp
	call	__RTC_CheckEsp
	mov	esp, ebp
	pop	ebp
	ret	24					; 00000018H
	npad	3
$LN17@search@2:
	DD	1
	DD	$LN16@search@2
$LN16@search@2:
	DD	-108					; ffffff94H
	DD	64					; 00000040H
	DD	$LN14@search@2
$LN14@search@2:
	DB	116					; 00000074H
	DB	109					; 0000006dH
	DB	112					; 00000070H
	DB	0
_TEXT	ENDS
;	COMDAT text$x
text$x	SEGMENT
__unwindfunclet$?search@TextTrieMap@icu_56@@ABEXPAUCharacterNode@2@ABVUnicodeString@2@HHPAVTextTrieMapSearchResultHandler@2@AAW4UErrorCode@@@Z$0:
	mov	esi, esp
	lea	ecx, DWORD PTR _tmp$71484[ebp]
	call	DWORD PTR __imp_??1UnicodeString@icu_56@@UAE@XZ
	cmp	esi, esp
	jmp	__RTC_CheckEsp
__ehhandler$?search@TextTrieMap@icu_56@@ABEXPAUCharacterNode@2@ABVUnicodeString@2@HHPAVTextTrieMapSearchResultHandler@2@AAW4UErrorCode@@@Z:
	mov	edx, DWORD PTR [esp+8]
	lea	eax, DWORD PTR [edx+12]
	mov	ecx, DWORD PTR [edx-320]
	xor	ecx, eax
	call	@__security_check_cookie@4
	mov	ecx, DWORD PTR [edx-4]
	xor	ecx, eax
	call	@__security_check_cookie@4
	mov	eax, OFFSET __ehfuncinfo$?search@TextTrieMap@icu_56@@ABEXPAUCharacterNode@2@ABVUnicodeString@2@HHPAVTextTrieMapSearchResultHandler@2@AAW4UErrorCode@@@Z
	jmp	___CxxFrameHandler3
text$x	ENDS
?search@TextTrieMap@icu_56@@ABEXPAUCharacterNode@2@ABVUnicodeString@2@HHPAVTextTrieMapSearchResultHandler@2@AAW4UErrorCode@@@Z ENDP ; icu_56::TextTrieMap::search
; Function compile flags: /Odtp /RTCsu /ZI
;	COMDAT ?hasValues@CharacterNode@icu_56@@QBECXZ
_TEXT	SEGMENT
_this$ = -8						; size = 4
?hasValues@CharacterNode@icu_56@@QBECXZ PROC		; icu_56::CharacterNode::hasValues, COMDAT
; _this$ = ecx
; File d:\mozilla\intl\icu\source\i18n\tznames_impl.h
; Line 95
	push	ebp
	mov	ebp, esp
	sub	esp, 204				; 000000ccH
	push	ebx
	push	esi
	push	edi
	push	ecx
	lea	edi, DWORD PTR [ebp-204]
	mov	ecx, 51					; 00000033H
	mov	eax, -858993460				; ccccccccH
	rep stosd
	pop	ecx
	mov	DWORD PTR _this$[ebp], ecx
; Line 96
	mov	eax, DWORD PTR _this$[ebp]
	cmp	DWORD PTR [eax], 0
	setne	al
; Line 97
	pop	edi
	pop	esi
	pop	ebx
	mov	esp, ebp
	pop	ebp
	ret	0
?hasValues@CharacterNode@icu_56@@QBECXZ ENDP		; icu_56::CharacterNode::hasValues
_TEXT	ENDS
PUBLIC	??0ZNStringPoolChunk@icu_56@@QAE@XZ		; icu_56::ZNStringPoolChunk::ZNStringPoolChunk
; Function compile flags: /Odtp /RTCsu /ZI
;	COMDAT ??0ZNStringPoolChunk@icu_56@@QAE@XZ
_TEXT	SEGMENT
_this$ = -8						; size = 4
??0ZNStringPoolChunk@icu_56@@QAE@XZ PROC		; icu_56::ZNStringPoolChunk::ZNStringPoolChunk, COMDAT
; _this$ = ecx
; File d:\mozilla\intl\icu\source\i18n\tznames_impl.cpp
; Line 404
	push	ebp
	mov	ebp, esp
	sub	esp, 204				; 000000ccH
	push	ebx
	push	esi
	push	edi
	push	ecx
	lea	edi, DWORD PTR [ebp-204]
	mov	ecx, 51					; 00000033H
	mov	eax, -858993460				; ccccccccH
	rep stosd
	pop	ecx
	mov	DWORD PTR _this$[ebp], ecx
; Line 405
	mov	eax, DWORD PTR _this$[ebp]
	mov	DWORD PTR [eax], 0
; Line 406
	mov	eax, DWORD PTR _this$[ebp]
	mov	DWORD PTR [eax+4], 0
; Line 407
	mov	eax, DWORD PTR _this$[ebp]
	pop	edi
	pop	esi
	pop	ebx
	mov	esp, ebp
	pop	ebp
	ret	0
??0ZNStringPoolChunk@icu_56@@QAE@XZ ENDP		; icu_56::ZNStringPoolChunk::ZNStringPoolChunk
_TEXT	ENDS
PUBLIC	??0ZNStringPool@icu_56@@QAE@AAW4UErrorCode@@@Z	; icu_56::ZNStringPool::ZNStringPool
EXTRN	_uhash_open_56:PROC
EXTRN	_uhash_hashUChars_56:PROC
EXTRN	_uhash_compareUChars_56:PROC
;	COMDAT xdata$x
xdata$x	SEGMENT
__unwindtable$??0ZNStringPool@icu_56@@QAE@AAW4UErrorCode@@@Z DD 0ffffffffH
	DD	FLAT:__unwindfunclet$??0ZNStringPool@icu_56@@QAE@AAW4UErrorCode@@@Z$0
__ehfuncinfo$??0ZNStringPool@icu_56@@QAE@AAW4UErrorCode@@@Z DD 019930522H
	DD	01H
	DD	FLAT:__unwindtable$??0ZNStringPool@icu_56@@QAE@AAW4UErrorCode@@@Z
	DD	2 DUP(00H)
	DD	2 DUP(00H)
	DD	00H
	DD	01H
; Function compile flags: /Odtp /RTCsu /ZI
xdata$x	ENDS
;	COMDAT ??0ZNStringPool@icu_56@@QAE@AAW4UErrorCode@@@Z
_TEXT	SEGMENT
tv76 = -244						; size = 4
$T79928 = -236						; size = 4
$T79929 = -224						; size = 4
_this$ = -20						; size = 4
__$EHRec$ = -12						; size = 12
_status$ = 8						; size = 4
??0ZNStringPool@icu_56@@QAE@AAW4UErrorCode@@@Z PROC	; icu_56::ZNStringPool::ZNStringPool, COMDAT
; _this$ = ecx
; Line 409
	push	ebp
	mov	ebp, esp
	push	-1
	push	__ehhandler$??0ZNStringPool@icu_56@@QAE@AAW4UErrorCode@@@Z
	mov	eax, DWORD PTR fs:0
	push	eax
	sub	esp, 232				; 000000e8H
	push	ebx
	push	esi
	push	edi
	push	ecx
	lea	edi, DWORD PTR [ebp-244]
	mov	ecx, 58					; 0000003aH
	mov	eax, -858993460				; ccccccccH
	rep stosd
	pop	ecx
	mov	eax, DWORD PTR ___security_cookie
	xor	eax, ebp
	push	eax
	lea	eax, DWORD PTR __$EHRec$[ebp]
	mov	DWORD PTR fs:0, eax
	mov	DWORD PTR _this$[ebp], ecx
; Line 410
	mov	eax, DWORD PTR _this$[ebp]
	mov	DWORD PTR [eax], 0
; Line 411
	mov	eax, DWORD PTR _this$[ebp]
	mov	DWORD PTR [eax+4], 0
; Line 412
	mov	eax, DWORD PTR _status$[ebp]
	mov	ecx, DWORD PTR [eax]
	push	ecx
	call	?U_FAILURE@@YACW4UErrorCode@@@Z		; U_FAILURE
	add	esp, 4
	movsx	edx, al
	test	edx, edx
	je	SHORT $LN3@ZNStringPo
; Line 413
	jmp	$LN4@ZNStringPo
$LN3@ZNStringPo:
; Line 415
	mov	esi, esp
	push	4008					; 00000fa8H
	call	DWORD PTR __imp_??2UMemory@icu_56@@SAPAXI@Z
	add	esp, 4
	cmp	esi, esp
	call	__RTC_CheckEsp
	mov	DWORD PTR $T79929[ebp], eax
	mov	DWORD PTR __$EHRec$[ebp+8], 0
	cmp	DWORD PTR $T79929[ebp], 0
	je	SHORT $LN6@ZNStringPo
	mov	ecx, DWORD PTR $T79929[ebp]
	call	??0ZNStringPoolChunk@icu_56@@QAE@XZ	; icu_56::ZNStringPoolChunk::ZNStringPoolChunk
	mov	DWORD PTR tv76[ebp], eax
	jmp	SHORT $LN7@ZNStringPo
$LN6@ZNStringPo:
	mov	DWORD PTR tv76[ebp], 0
$LN7@ZNStringPo:
	mov	eax, DWORD PTR tv76[ebp]
	mov	DWORD PTR $T79928[ebp], eax
	mov	DWORD PTR __$EHRec$[ebp+8], -1
	mov	ecx, DWORD PTR _this$[ebp]
	mov	edx, DWORD PTR $T79928[ebp]
	mov	DWORD PTR [ecx], edx
; Line 416
	mov	eax, DWORD PTR _this$[ebp]
	cmp	DWORD PTR [eax], 0
	jne	SHORT $LN2@ZNStringPo
; Line 417
	mov	eax, DWORD PTR _status$[ebp]
	mov	DWORD PTR [eax], 7
; Line 418
	jmp	SHORT $LN4@ZNStringPo
$LN2@ZNStringPo:
; Line 424
	mov	eax, DWORD PTR _status$[ebp]
	push	eax
	push	OFFSET _uhash_compareUChars_56
	push	OFFSET _uhash_compareUChars_56
	push	OFFSET _uhash_hashUChars_56
	call	_uhash_open_56
	add	esp, 16					; 00000010H
	mov	ecx, DWORD PTR _this$[ebp]
	mov	DWORD PTR [ecx+4], eax
; Line 425
	mov	eax, DWORD PTR _status$[ebp]
	mov	ecx, DWORD PTR [eax]
	push	ecx
	call	?U_FAILURE@@YACW4UErrorCode@@@Z		; U_FAILURE
	add	esp, 4
$LN4@ZNStringPo:
; Line 428
	mov	eax, DWORD PTR _this$[ebp]
	mov	ecx, DWORD PTR __$EHRec$[ebp]
	mov	DWORD PTR fs:0, ecx
	pop	ecx
	pop	edi
	pop	esi
	pop	ebx
	add	esp, 244				; 000000f4H
	cmp	ebp, esp
	call	__RTC_CheckEsp
	mov	esp, ebp
	pop	ebp
	ret	4
_TEXT	ENDS
;	COMDAT text$x
text$x	SEGMENT
__unwindfunclet$??0ZNStringPool@icu_56@@QAE@AAW4UErrorCode@@@Z$0:
	mov	esi, esp
	mov	eax, DWORD PTR $T79929[ebp]
	push	eax
	call	DWORD PTR __imp_??3UMemory@icu_56@@SAXPAX@Z
	add	esp, 4
	cmp	esi, esp
	jmp	__RTC_CheckEsp
__ehhandler$??0ZNStringPool@icu_56@@QAE@AAW4UErrorCode@@@Z:
	mov	edx, DWORD PTR [esp+8]
	lea	eax, DWORD PTR [edx+12]
	mov	ecx, DWORD PTR [edx-248]
	xor	ecx, eax
	call	@__security_check_cookie@4
	mov	eax, OFFSET __ehfuncinfo$??0ZNStringPool@icu_56@@QAE@AAW4UErrorCode@@@Z
	jmp	___CxxFrameHandler3
text$x	ENDS
??0ZNStringPool@icu_56@@QAE@AAW4UErrorCode@@@Z ENDP	; icu_56::ZNStringPool::ZNStringPool
PUBLIC	??1ZNStringPool@icu_56@@QAE@XZ			; icu_56::ZNStringPool::~ZNStringPool
EXTRN	_uhash_close_56:PROC
; Function compile flags: /Odtp /RTCsu /ZI
;	COMDAT ??1ZNStringPool@icu_56@@QAE@XZ
_TEXT	SEGMENT
$T79941 = -224						; size = 4
_nextChunk$71523 = -20					; size = 4
_this$ = -8						; size = 4
??1ZNStringPool@icu_56@@QAE@XZ PROC			; icu_56::ZNStringPool::~ZNStringPool, COMDAT
; _this$ = ecx
; Line 430
	push	ebp
	mov	ebp, esp
	sub	esp, 228				; 000000e4H
	push	ebx
	push	esi
	push	edi
	push	ecx
	lea	edi, DWORD PTR [ebp-228]
	mov	ecx, 57					; 00000039H
	mov	eax, -858993460				; ccccccccH
	rep stosd
	pop	ecx
	mov	DWORD PTR _this$[ebp], ecx
; Line 431
	mov	eax, DWORD PTR _this$[ebp]
	cmp	DWORD PTR [eax+4], 0
	je	SHORT $LN2@ZNStringPo@2
; Line 432
	mov	eax, DWORD PTR _this$[ebp]
	mov	ecx, DWORD PTR [eax+4]
	push	ecx
	call	_uhash_close_56
	add	esp, 4
; Line 433
	mov	eax, DWORD PTR _this$[ebp]
	mov	DWORD PTR [eax+4], 0
$LN2@ZNStringPo@2:
; Line 436
	mov	eax, DWORD PTR _this$[ebp]
	cmp	DWORD PTR [eax], 0
	je	SHORT $LN4@ZNStringPo@2
; Line 437
	mov	eax, DWORD PTR _this$[ebp]
	mov	ecx, DWORD PTR [eax]
	mov	edx, DWORD PTR [ecx]
	mov	DWORD PTR _nextChunk$71523[ebp], edx
; Line 438
	mov	eax, DWORD PTR _this$[ebp]
	mov	ecx, DWORD PTR [eax]
	mov	DWORD PTR $T79941[ebp], ecx
	mov	esi, esp
	mov	edx, DWORD PTR $T79941[ebp]
	push	edx
	call	DWORD PTR __imp_??3UMemory@icu_56@@SAXPAX@Z
	add	esp, 4
	cmp	esi, esp
	call	__RTC_CheckEsp
; Line 439
	mov	eax, DWORD PTR _this$[ebp]
	mov	ecx, DWORD PTR _nextChunk$71523[ebp]
	mov	DWORD PTR [eax], ecx
; Line 440
	jmp	SHORT $LN2@ZNStringPo@2
$LN4@ZNStringPo@2:
; Line 441
	pop	edi
	pop	esi
	pop	ebx
	add	esp, 228				; 000000e4H
	cmp	ebp, esp
	call	__RTC_CheckEsp
	mov	esp, ebp
	pop	ebp
	ret	0
??1ZNStringPool@icu_56@@QAE@XZ ENDP			; icu_56::ZNStringPool::~ZNStringPool
_TEXT	ENDS
PUBLIC	??_C@_1DC@MKLMNCDK@?$AAl?$AAe?$AAn?$AAg?$AAt?$AAh?$AA?5?$AA?$DM?$AA?5?$AAP?$AAO?$AAO?$AAL?$AA_?$AAC?$AAH?$AAU?$AAN?$AAK?$AA_?$AAS?$AAI?$AAZ?$AAE?$AA?$AA@ ; `string'
PUBLIC	?__LINE__Var@?1??get@ZNStringPool@icu_56@@QAEPB_WPB_WAAW4UErrorCode@@@Z@4JA ; `icu_56::ZNStringPool::get'::`2'::__LINE__Var
PUBLIC	?get@ZNStringPool@icu_56@@QAEPB_WPB_WAAW4UErrorCode@@@Z ; icu_56::ZNStringPool::get
EXTRN	_uhash_put_56:PROC
EXTRN	_u_strcpy_56:PROC
EXTRN	_u_strlen_56:PROC
EXTRN	_uhash_get_56:PROC
;	COMDAT ??_C@_1DC@MKLMNCDK@?$AAl?$AAe?$AAn?$AAg?$AAt?$AAh?$AA?5?$AA?$DM?$AA?5?$AAP?$AAO?$AAO?$AAL?$AA_?$AAC?$AAH?$AAU?$AAN?$AAK?$AA_?$AAS?$AAI?$AAZ?$AAE?$AA?$AA@
CONST	SEGMENT
??_C@_1DC@MKLMNCDK@?$AAl?$AAe?$AAn?$AAg?$AAt?$AAh?$AA?5?$AA?$DM?$AA?5?$AAP?$AAO?$AAO?$AAL?$AA_?$AAC?$AAH?$AAU?$AAN?$AAK?$AA_?$AAS?$AAI?$AAZ?$AAE?$AA?$AA@ DB 'l'
	DB	00H, 'e', 00H, 'n', 00H, 'g', 00H, 't', 00H, 'h', 00H, ' ', 00H
	DB	'<', 00H, ' ', 00H, 'P', 00H, 'O', 00H, 'O', 00H, 'L', 00H, '_'
	DB	00H, 'C', 00H, 'H', 00H, 'U', 00H, 'N', 00H, 'K', 00H, '_', 00H
	DB	'S', 00H, 'I', 00H, 'Z', 00H, 'E', 00H, 00H, 00H ; `string'
CONST	ENDS
;	COMDAT ?__LINE__Var@?1??get@ZNStringPool@icu_56@@QAEPB_WPB_WAAW4UErrorCode@@@Z@4JA
_DATA	SEGMENT
?__LINE__Var@?1??get@ZNStringPool@icu_56@@QAEPB_WPB_WAAW4UErrorCode@@@Z@4JA DD 01bdH ; `icu_56::ZNStringPool::get'::`2'::__LINE__Var
_DATA	ENDS
;	COMDAT xdata$x
xdata$x	SEGMENT
__unwindtable$?get@ZNStringPool@icu_56@@QAEPB_WPB_WAAW4UErrorCode@@@Z DD 0ffffffffH
	DD	FLAT:__unwindfunclet$?get@ZNStringPool@icu_56@@QAEPB_WPB_WAAW4UErrorCode@@@Z$0
__ehfuncinfo$?get@ZNStringPool@icu_56@@QAEPB_WPB_WAAW4UErrorCode@@@Z DD 019930522H
	DD	01H
	DD	FLAT:__unwindtable$?get@ZNStringPool@icu_56@@QAEPB_WPB_WAAW4UErrorCode@@@Z
	DD	2 DUP(00H)
	DD	2 DUP(00H)
	DD	00H
	DD	01H
; Function compile flags: /Odtp /RTCsu /ZI
xdata$x	ENDS
;	COMDAT ?get@ZNStringPool@icu_56@@QAEPB_WPB_WAAW4UErrorCode@@@Z
_TEXT	SEGMENT
tv92 = -304						; size = 4
$T79945 = -296						; size = 4
$T79946 = -284						; size = 4
_destString$ = -80					; size = 4
_oldChunk$71542 = -68					; size = 4
_remainingLength$ = -56					; size = 4
_length$ = -44						; size = 4
_pooledString$ = -32					; size = 4
_this$ = -20						; size = 4
__$EHRec$ = -12						; size = 12
_s$ = 8							; size = 4
_status$ = 12						; size = 4
?get@ZNStringPool@icu_56@@QAEPB_WPB_WAAW4UErrorCode@@@Z PROC ; icu_56::ZNStringPool::get, COMDAT
; _this$ = ecx
; Line 445
	push	ebp
	mov	ebp, esp
	push	-1
	push	__ehhandler$?get@ZNStringPool@icu_56@@QAEPB_WPB_WAAW4UErrorCode@@@Z
	mov	eax, DWORD PTR fs:0
	push	eax
	sub	esp, 292				; 00000124H
	push	ebx
	push	esi
	push	edi
	push	ecx
	lea	edi, DWORD PTR [ebp-304]
	mov	ecx, 73					; 00000049H
	mov	eax, -858993460				; ccccccccH
	rep stosd
	pop	ecx
	mov	eax, DWORD PTR ___security_cookie
	xor	eax, ebp
	push	eax
	lea	eax, DWORD PTR __$EHRec$[ebp]
	mov	DWORD PTR fs:0, eax
	mov	DWORD PTR _this$[ebp], ecx
; Line 447
	mov	eax, DWORD PTR _status$[ebp]
	mov	ecx, DWORD PTR [eax]
	push	ecx
	call	?U_FAILURE@@YACW4UErrorCode@@@Z		; U_FAILURE
	add	esp, 4
	movsx	edx, al
	test	edx, edx
	je	SHORT $LN5@get
; Line 448
	mov	eax, OFFSET _EmptyString
	jmp	$LN6@get
$LN5@get:
; Line 451
	mov	eax, DWORD PTR _s$[ebp]
	push	eax
	mov	ecx, DWORD PTR _this$[ebp]
	mov	edx, DWORD PTR [ecx+4]
	push	edx
	call	_uhash_get_56
	add	esp, 8
	mov	DWORD PTR _pooledString$[ebp], eax
; Line 452
	cmp	DWORD PTR _pooledString$[ebp], 0
	je	SHORT $LN4@get
; Line 453
	mov	eax, DWORD PTR _pooledString$[ebp]
	jmp	$LN6@get
$LN4@get:
; Line 456
	mov	eax, DWORD PTR _s$[ebp]
	push	eax
	call	_u_strlen_56
	add	esp, 4
	mov	DWORD PTR _length$[ebp], eax
; Line 457
	mov	eax, DWORD PTR _this$[ebp]
	mov	ecx, DWORD PTR [eax]
	mov	edx, 2000				; 000007d0H
	sub	edx, DWORD PTR [ecx+4]
	mov	DWORD PTR _remainingLength$[ebp], edx
; Line 458
	mov	eax, DWORD PTR _remainingLength$[ebp]
	cmp	eax, DWORD PTR _length$[ebp]
	jg	$LN3@get
; Line 459
	cmp	DWORD PTR _length$[ebp], 2000		; 000007d0H
	jl	SHORT $LN8@get
	mov	eax, DWORD PTR ?__LINE__Var@?1??get@ZNStringPool@icu_56@@QAEPB_WPB_WAAW4UErrorCode@@@Z@4JA
	add	eax, 14					; 0000000eH
	mov	esi, esp
	push	eax
	push	OFFSET ??_C@_1GC@OMCAKFML@?$AAd?$AA?3?$AA?2?$AAm?$AAo?$AAz?$AAi?$AAl?$AAl?$AAa?$AA?2?$AAi?$AAn?$AAt?$AAl?$AA?2?$AAi?$AAc?$AAu?$AA?2?$AAs?$AAo?$AAu?$AAr?$AAc?$AAe?$AA?2?$AAi?$AA1?$AA8?$AAn?$AA?2@
	push	OFFSET ??_C@_1DC@MKLMNCDK@?$AAl?$AAe?$AAn?$AAg?$AAt?$AAh?$AA?5?$AA?$DM?$AA?5?$AAP?$AAO?$AAO?$AAL?$AA_?$AAC?$AAH?$AAU?$AAN?$AAK?$AA_?$AAS?$AAI?$AAZ?$AAE?$AA?$AA@
	call	DWORD PTR __imp___wassert
	add	esp, 12					; 0000000cH
	cmp	esi, esp
	call	__RTC_CheckEsp
$LN8@get:
; Line 460
	cmp	DWORD PTR _length$[ebp], 2000		; 000007d0H
	jl	SHORT $LN2@get
; Line 461
	mov	eax, DWORD PTR _status$[ebp]
	mov	DWORD PTR [eax], 5
; Line 462
	mov	eax, OFFSET _EmptyString
	jmp	$LN6@get
$LN2@get:
; Line 464
	mov	eax, DWORD PTR _this$[ebp]
	mov	ecx, DWORD PTR [eax]
	mov	DWORD PTR _oldChunk$71542[ebp], ecx
; Line 465
	mov	esi, esp
	push	4008					; 00000fa8H
	call	DWORD PTR __imp_??2UMemory@icu_56@@SAPAXI@Z
	add	esp, 4
	cmp	esi, esp
	call	__RTC_CheckEsp
	mov	DWORD PTR $T79946[ebp], eax
	mov	DWORD PTR __$EHRec$[ebp+8], 0
	cmp	DWORD PTR $T79946[ebp], 0
	je	SHORT $LN9@get
	mov	ecx, DWORD PTR $T79946[ebp]
	call	??0ZNStringPoolChunk@icu_56@@QAE@XZ	; icu_56::ZNStringPoolChunk::ZNStringPoolChunk
	mov	DWORD PTR tv92[ebp], eax
	jmp	SHORT $LN10@get
$LN9@get:
	mov	DWORD PTR tv92[ebp], 0
$LN10@get:
	mov	eax, DWORD PTR tv92[ebp]
	mov	DWORD PTR $T79945[ebp], eax
	mov	DWORD PTR __$EHRec$[ebp+8], -1
	mov	ecx, DWORD PTR _this$[ebp]
	mov	edx, DWORD PTR $T79945[ebp]
	mov	DWORD PTR [ecx], edx
; Line 466
	mov	eax, DWORD PTR _this$[ebp]
	cmp	DWORD PTR [eax], 0
	jne	SHORT $LN1@get
; Line 467
	mov	eax, DWORD PTR _status$[ebp]
	mov	DWORD PTR [eax], 7
; Line 468
	mov	eax, OFFSET _EmptyString
	jmp	SHORT $LN6@get
$LN1@get:
; Line 470
	mov	eax, DWORD PTR _this$[ebp]
	mov	ecx, DWORD PTR [eax]
	mov	edx, DWORD PTR _oldChunk$71542[ebp]
	mov	DWORD PTR [ecx], edx
$LN3@get:
; Line 473
	mov	eax, DWORD PTR _this$[ebp]
	mov	ecx, DWORD PTR [eax]
	mov	edx, DWORD PTR _this$[ebp]
	mov	eax, DWORD PTR [edx]
	mov	edx, DWORD PTR [eax+4]
	lea	eax, DWORD PTR [ecx+edx*2+8]
	mov	DWORD PTR _destString$[ebp], eax
; Line 474
	mov	eax, DWORD PTR _s$[ebp]
	push	eax
	mov	ecx, DWORD PTR _destString$[ebp]
	push	ecx
	call	_u_strcpy_56
	add	esp, 8
; Line 475
	mov	eax, DWORD PTR _this$[ebp]
	mov	ecx, DWORD PTR [eax]
	mov	edx, DWORD PTR [ecx+4]
	mov	eax, DWORD PTR _length$[ebp]
	lea	ecx, DWORD PTR [eax+edx+1]
	mov	edx, DWORD PTR _this$[ebp]
	mov	eax, DWORD PTR [edx]
	mov	DWORD PTR [eax+4], ecx
; Line 476
	mov	eax, DWORD PTR _status$[ebp]
	push	eax
	mov	ecx, DWORD PTR _destString$[ebp]
	push	ecx
	mov	edx, DWORD PTR _destString$[ebp]
	push	edx
	mov	eax, DWORD PTR _this$[ebp]
	mov	ecx, DWORD PTR [eax+4]
	push	ecx
	call	_uhash_put_56
	add	esp, 16					; 00000010H
; Line 477
	mov	eax, DWORD PTR _destString$[ebp]
$LN6@get:
; Line 478
	mov	ecx, DWORD PTR __$EHRec$[ebp]
	mov	DWORD PTR fs:0, ecx
	pop	ecx
	pop	edi
	pop	esi
	pop	ebx
	add	esp, 304				; 00000130H
	cmp	ebp, esp
	call	__RTC_CheckEsp
	mov	esp, ebp
	pop	ebp
	ret	8
_TEXT	ENDS
;	COMDAT text$x
text$x	SEGMENT
__unwindfunclet$?get@ZNStringPool@icu_56@@QAEPB_WPB_WAAW4UErrorCode@@@Z$0:
	mov	esi, esp
	mov	eax, DWORD PTR $T79946[ebp]
	push	eax
	call	DWORD PTR __imp_??3UMemory@icu_56@@SAXPAX@Z
	add	esp, 4
	cmp	esi, esp
	jmp	__RTC_CheckEsp
__ehhandler$?get@ZNStringPool@icu_56@@QAEPB_WPB_WAAW4UErrorCode@@@Z:
	mov	edx, DWORD PTR [esp+8]
	lea	eax, DWORD PTR [edx+12]
	mov	ecx, DWORD PTR [edx-308]
	xor	ecx, eax
	call	@__security_check_cookie@4
	mov	eax, OFFSET __ehfuncinfo$?get@ZNStringPool@icu_56@@QAEPB_WPB_WAAW4UErrorCode@@@Z
	jmp	___CxxFrameHandler3
text$x	ENDS
?get@ZNStringPool@icu_56@@QAEPB_WPB_WAAW4UErrorCode@@@Z ENDP ; icu_56::ZNStringPool::get
PUBLIC	?adopt@ZNStringPool@icu_56@@QAEPB_WPB_WAAW4UErrorCode@@@Z ; icu_56::ZNStringPool::adopt
; Function compile flags: /Odtp /RTCsu /ZI
;	COMDAT ?adopt@ZNStringPool@icu_56@@QAEPB_WPB_WAAW4UErrorCode@@@Z
_TEXT	SEGMENT
_ncs$71559 = -32					; size = 4
_pooledString$ = -20					; size = 4
_this$ = -8						; size = 4
_s$ = 8							; size = 4
_status$ = 12						; size = 4
?adopt@ZNStringPool@icu_56@@QAEPB_WPB_WAAW4UErrorCode@@@Z PROC ; icu_56::ZNStringPool::adopt, COMDAT
; _this$ = ecx
; Line 486
	push	ebp
	mov	ebp, esp
	sub	esp, 228				; 000000e4H
	push	ebx
	push	esi
	push	edi
	push	ecx
	lea	edi, DWORD PTR [ebp-228]
	mov	ecx, 57					; 00000039H
	mov	eax, -858993460				; ccccccccH
	rep stosd
	pop	ecx
	mov	DWORD PTR _this$[ebp], ecx
; Line 488
	mov	eax, DWORD PTR _status$[ebp]
	mov	ecx, DWORD PTR [eax]
	push	ecx
	call	?U_FAILURE@@YACW4UErrorCode@@@Z		; U_FAILURE
	add	esp, 4
	movsx	edx, al
	test	edx, edx
	je	SHORT $LN3@adopt
; Line 489
	mov	eax, OFFSET _EmptyString
	jmp	SHORT $LN4@adopt
$LN3@adopt:
; Line 491
	cmp	DWORD PTR _s$[ebp], 0
	je	SHORT $LN2@adopt
; Line 492
	mov	eax, DWORD PTR _s$[ebp]
	push	eax
	mov	ecx, DWORD PTR _this$[ebp]
	mov	edx, DWORD PTR [ecx+4]
	push	edx
	call	_uhash_get_56
	add	esp, 8
	mov	DWORD PTR _pooledString$[ebp], eax
; Line 493
	cmp	DWORD PTR _pooledString$[ebp], 0
	jne	SHORT $LN2@adopt
; Line 494
	mov	eax, DWORD PTR _s$[ebp]
	mov	DWORD PTR _ncs$71559[ebp], eax
; Line 495
	mov	eax, DWORD PTR _status$[ebp]
	push	eax
	mov	ecx, DWORD PTR _ncs$71559[ebp]
	push	ecx
	mov	edx, DWORD PTR _ncs$71559[ebp]
	push	edx
	mov	eax, DWORD PTR _this$[ebp]
	mov	ecx, DWORD PTR [eax+4]
	push	ecx
	call	_uhash_put_56
	add	esp, 16					; 00000010H
$LN2@adopt:
; Line 498
	mov	eax, DWORD PTR _s$[ebp]
$LN4@adopt:
; Line 499
	pop	edi
	pop	esi
	pop	ebx
	add	esp, 228				; 000000e4H
	cmp	ebp, esp
	call	__RTC_CheckEsp
	mov	esp, ebp
	pop	ebp
	ret	8
?adopt@ZNStringPool@icu_56@@QAEPB_WPB_WAAW4UErrorCode@@@Z ENDP ; icu_56::ZNStringPool::adopt
_TEXT	ENDS
EXTRN	__imp_?getTerminatedBuffer@UnicodeString@icu_56@@QAEPB_WXZ:PROC
; Function compile flags: /Odtp /RTCsu /ZI
;	COMDAT ?get@ZNStringPool@icu_56@@QAEPB_WABVUnicodeString@2@AAW4UErrorCode@@@Z
_TEXT	SEGMENT
_nonConstStr$ = -20					; size = 4
_this$ = -8						; size = 4
_s$ = 8							; size = 4
_status$ = 12						; size = 4
?get@ZNStringPool@icu_56@@QAEPB_WABVUnicodeString@2@AAW4UErrorCode@@@Z PROC ; icu_56::ZNStringPool::get, COMDAT
; _this$ = ecx
; Line 502
	push	ebp
	mov	ebp, esp
	sub	esp, 216				; 000000d8H
	push	ebx
	push	esi
	push	edi
	push	ecx
	lea	edi, DWORD PTR [ebp-216]
	mov	ecx, 54					; 00000036H
	mov	eax, -858993460				; ccccccccH
	rep stosd
	pop	ecx
	mov	DWORD PTR _this$[ebp], ecx
; Line 503
	mov	eax, DWORD PTR _s$[ebp]
	mov	DWORD PTR _nonConstStr$[ebp], eax
; Line 504
	mov	eax, DWORD PTR _status$[ebp]
	push	eax
	mov	esi, esp
	mov	ecx, DWORD PTR _nonConstStr$[ebp]
	call	DWORD PTR __imp_?getTerminatedBuffer@UnicodeString@icu_56@@QAEPB_WXZ
	cmp	esi, esp
	call	__RTC_CheckEsp
	push	eax
	mov	ecx, DWORD PTR _this$[ebp]
	call	?get@ZNStringPool@icu_56@@QAEPB_WPB_WAAW4UErrorCode@@@Z ; icu_56::ZNStringPool::get
; Line 505
	pop	edi
	pop	esi
	pop	ebx
	add	esp, 216				; 000000d8H
	cmp	ebp, esp
	call	__RTC_CheckEsp
	mov	esp, ebp
	pop	ebp
	ret	8
?get@ZNStringPool@icu_56@@QAEPB_WABVUnicodeString@2@AAW4UErrorCode@@@Z ENDP ; icu_56::ZNStringPool::get
_TEXT	ENDS
PUBLIC	?freeze@ZNStringPool@icu_56@@QAEXXZ		; icu_56::ZNStringPool::freeze
; Function compile flags: /Odtp /RTCsu /ZI
;	COMDAT ?freeze@ZNStringPool@icu_56@@QAEXXZ
_TEXT	SEGMENT
_this$ = -8						; size = 4
?freeze@ZNStringPool@icu_56@@QAEXXZ PROC		; icu_56::ZNStringPool::freeze, COMDAT
; _this$ = ecx
; Line 514
	push	ebp
	mov	ebp, esp
	sub	esp, 204				; 000000ccH
	push	ebx
	push	esi
	push	edi
	push	ecx
	lea	edi, DWORD PTR [ebp-204]
	mov	ecx, 51					; 00000033H
	mov	eax, -858993460				; ccccccccH
	rep stosd
	pop	ecx
	mov	DWORD PTR _this$[ebp], ecx
; Line 515
	mov	eax, DWORD PTR _this$[ebp]
	mov	ecx, DWORD PTR [eax+4]
	push	ecx
	call	_uhash_close_56
	add	esp, 4
; Line 516
	mov	eax, DWORD PTR _this$[ebp]
	mov	DWORD PTR [eax+4], 0
; Line 517
	pop	edi
	pop	esi
	pop	ebx
	add	esp, 204				; 000000ccH
	cmp	ebp, esp
	call	__RTC_CheckEsp
	mov	esp, ebp
	pop	ebp
	ret	0
?freeze@ZNStringPool@icu_56@@QAEXXZ ENDP		; icu_56::ZNStringPool::freeze
_TEXT	ENDS
PUBLIC	??_7ZNames@icu_56@@6B@				; icu_56::ZNames::`vftable'
PUBLIC	??0ZNames@icu_56@@IAE@PAPB_W@Z			; icu_56::ZNames::ZNames
PUBLIC	??_R4ZNames@icu_56@@6B@				; icu_56::ZNames::`RTTI Complete Object Locator'
PUBLIC	??_R0?AVZNames@icu_56@@@8			; icu_56::ZNames `RTTI Type Descriptor'
PUBLIC	??_R3ZNames@icu_56@@8				; icu_56::ZNames::`RTTI Class Hierarchy Descriptor'
PUBLIC	??_R2ZNames@icu_56@@8				; icu_56::ZNames::`RTTI Base Class Array'
PUBLIC	??_R1A@?0A@EA@ZNames@icu_56@@8			; icu_56::ZNames::`RTTI Base Class Descriptor at (0,-1,0,64)'
PUBLIC	?getName@ZNames@icu_56@@UAEPB_WW4UTimeZoneNameType@@@Z ; icu_56::ZNames::getName
EXTRN	??_EZNames@icu_56@@UAEPAXI@Z:PROC		; icu_56::ZNames::`vector deleting destructor'
;	COMDAT ??_R1A@?0A@EA@ZNames@icu_56@@8
rdata$r	SEGMENT
??_R1A@?0A@EA@ZNames@icu_56@@8 DD FLAT:??_R0?AVZNames@icu_56@@@8 ; icu_56::ZNames::`RTTI Base Class Descriptor at (0,-1,0,64)'
	DD	01H
	DD	00H
	DD	0ffffffffH
	DD	00H
	DD	040H
	DD	FLAT:??_R3ZNames@icu_56@@8
rdata$r	ENDS
;	COMDAT ??_R2ZNames@icu_56@@8
rdata$r	SEGMENT
??_R2ZNames@icu_56@@8 DD FLAT:??_R1A@?0A@EA@ZNames@icu_56@@8 ; icu_56::ZNames::`RTTI Base Class Array'
	DD	FLAT:??_R13?0A@EA@UMemory@icu_56@@8
rdata$r	ENDS
;	COMDAT ??_R3ZNames@icu_56@@8
rdata$r	SEGMENT
??_R3ZNames@icu_56@@8 DD 00H				; icu_56::ZNames::`RTTI Class Hierarchy Descriptor'
	DD	00H
	DD	02H
	DD	FLAT:??_R2ZNames@icu_56@@8
rdata$r	ENDS
;	COMDAT ??_R0?AVZNames@icu_56@@@8
_DATA	SEGMENT
??_R0?AVZNames@icu_56@@@8 DD FLAT:??_7type_info@@6B@	; icu_56::ZNames `RTTI Type Descriptor'
	DD	00H
	DB	'.?AVZNames@icu_56@@', 00H
_DATA	ENDS
;	COMDAT ??_R4ZNames@icu_56@@6B@
rdata$r	SEGMENT
??_R4ZNames@icu_56@@6B@ DD 00H				; icu_56::ZNames::`RTTI Complete Object Locator'
	DD	00H
	DD	00H
	DD	FLAT:??_R0?AVZNames@icu_56@@@8
	DD	FLAT:??_R3ZNames@icu_56@@8
rdata$r	ENDS
;	COMDAT ??_7ZNames@icu_56@@6B@
CONST	SEGMENT
??_7ZNames@icu_56@@6B@ DD FLAT:??_R4ZNames@icu_56@@6B@	; icu_56::ZNames::`vftable'
	DD	FLAT:??_EZNames@icu_56@@UAEPAXI@Z
	DD	FLAT:?getName@ZNames@icu_56@@UAEPB_WW4UTimeZoneNameType@@@Z
; Function compile flags: /Odtp /RTCsu /ZI
CONST	ENDS
;	COMDAT ??0ZNames@icu_56@@IAE@PAPB_W@Z
_TEXT	SEGMENT
_this$ = -8						; size = 4
_names$ = 8						; size = 4
??0ZNames@icu_56@@IAE@PAPB_W@Z PROC			; icu_56::ZNames::ZNames, COMDAT
; _this$ = ecx
; Line 539
	push	ebp
	mov	ebp, esp
	sub	esp, 204				; 000000ccH
	push	ebx
	push	esi
	push	edi
	push	ecx
	lea	edi, DWORD PTR [ebp-204]
	mov	ecx, 51					; 00000033H
	mov	eax, -858993460				; ccccccccH
	rep stosd
	pop	ecx
	mov	DWORD PTR _this$[ebp], ecx
	mov	eax, DWORD PTR _this$[ebp]
	mov	DWORD PTR [eax], OFFSET ??_7ZNames@icu_56@@6B@
	mov	eax, DWORD PTR _this$[ebp]
	mov	ecx, DWORD PTR _names$[ebp]
	mov	DWORD PTR [eax+4], ecx
; Line 540
	mov	eax, DWORD PTR _this$[ebp]
	pop	edi
	pop	esi
	pop	ebx
	mov	esp, ebp
	pop	ebp
	ret	4
??0ZNames@icu_56@@IAE@PAPB_W@Z ENDP			; icu_56::ZNames::ZNames
_TEXT	ENDS
PUBLIC	??1ZNames@icu_56@@UAE@XZ			; icu_56::ZNames::~ZNames
; Function compile flags: /Odtp /RTCsu /ZI
;	COMDAT ??_GZNames@icu_56@@UAEPAXI@Z
_TEXT	SEGMENT
_this$ = -8						; size = 4
___flags$ = 8						; size = 4
??_GZNames@icu_56@@UAEPAXI@Z PROC			; icu_56::ZNames::`scalar deleting destructor', COMDAT
; _this$ = ecx
	push	ebp
	mov	ebp, esp
	sub	esp, 204				; 000000ccH
	push	ebx
	push	esi
	push	edi
	push	ecx
	lea	edi, DWORD PTR [ebp-204]
	mov	ecx, 51					; 00000033H
	mov	eax, -858993460				; ccccccccH
	rep stosd
	pop	ecx
	mov	DWORD PTR _this$[ebp], ecx
	mov	ecx, DWORD PTR _this$[ebp]
	call	??1ZNames@icu_56@@UAE@XZ		; icu_56::ZNames::~ZNames
	mov	eax, DWORD PTR ___flags$[ebp]
	and	eax, 1
	je	SHORT $LN1@scalar@6
	mov	esi, esp
	mov	eax, DWORD PTR _this$[ebp]
	push	eax
	call	DWORD PTR __imp_??3UMemory@icu_56@@SAXPAX@Z
	add	esp, 4
	cmp	esi, esp
	call	__RTC_CheckEsp
$LN1@scalar@6:
	mov	eax, DWORD PTR _this$[ebp]
	pop	edi
	pop	esi
	pop	ebx
	add	esp, 204				; 000000ccH
	cmp	ebp, esp
	call	__RTC_CheckEsp
	mov	esp, ebp
	pop	ebp
	ret	4
??_GZNames@icu_56@@UAEPAXI@Z ENDP			; icu_56::ZNames::`scalar deleting destructor'
; Function compile flags: /Odtp /RTCsu /ZI
_TEXT	ENDS
;	COMDAT ??1ZNames@icu_56@@UAE@XZ
_TEXT	SEGMENT
_this$ = -8						; size = 4
??1ZNames@icu_56@@UAE@XZ PROC				; icu_56::ZNames::~ZNames, COMDAT
; _this$ = ecx
; Line 542
	push	ebp
	mov	ebp, esp
	sub	esp, 204				; 000000ccH
	push	ebx
	push	esi
	push	edi
	push	ecx
	lea	edi, DWORD PTR [ebp-204]
	mov	ecx, 51					; 00000033H
	mov	eax, -858993460				; ccccccccH
	rep stosd
	pop	ecx
	mov	DWORD PTR _this$[ebp], ecx
	mov	eax, DWORD PTR _this$[ebp]
	mov	DWORD PTR [eax], OFFSET ??_7ZNames@icu_56@@6B@
; Line 543
	mov	eax, DWORD PTR _this$[ebp]
	cmp	DWORD PTR [eax+4], 0
	je	SHORT $LN2@ZNames
; Line 544
	mov	eax, DWORD PTR _this$[ebp]
	mov	ecx, DWORD PTR [eax+4]
	push	ecx
	call	_uprv_free_56
	add	esp, 4
$LN2@ZNames:
; Line 546
	pop	edi
	pop	esi
	pop	ebx
	add	esp, 204				; 000000ccH
	cmp	ebp, esp
	call	__RTC_CheckEsp
	mov	esp, ebp
	pop	ebp
	ret	0
??1ZNames@icu_56@@UAE@XZ ENDP				; icu_56::ZNames::~ZNames
_TEXT	ENDS
PUBLIC	?loadData@ZNames@icu_56@@KAPAPB_WPAUUResourceBundle@@PBD@Z ; icu_56::ZNames::loadData
PUBLIC	?createInstance@ZNames@icu_56@@SAPAV12@PAUUResourceBundle@@PBD@Z ; icu_56::ZNames::createInstance
;	COMDAT xdata$x
xdata$x	SEGMENT
__unwindtable$?createInstance@ZNames@icu_56@@SAPAV12@PAUUResourceBundle@@PBD@Z DD 0ffffffffH
	DD	FLAT:__unwindfunclet$?createInstance@ZNames@icu_56@@SAPAV12@PAUUResourceBundle@@PBD@Z$0
__ehfuncinfo$?createInstance@ZNames@icu_56@@SAPAV12@PAUUResourceBundle@@PBD@Z DD 019930522H
	DD	01H
	DD	FLAT:__unwindtable$?createInstance@ZNames@icu_56@@SAPAV12@PAUUResourceBundle@@PBD@Z
	DD	2 DUP(00H)
	DD	2 DUP(00H)
	DD	00H
	DD	01H
; Function compile flags: /Odtp /RTCsu /ZI
xdata$x	ENDS
;	COMDAT ?createInstance@ZNames@icu_56@@SAPAV12@PAUUResourceBundle@@PBD@Z
_TEXT	SEGMENT
tv76 = -244						; size = 4
$T79970 = -236						; size = 4
$T79971 = -224						; size = 4
_names$ = -20						; size = 4
__$EHRec$ = -12						; size = 12
_rb$ = 8						; size = 4
_key$ = 12						; size = 4
?createInstance@ZNames@icu_56@@SAPAV12@PAUUResourceBundle@@PBD@Z PROC ; icu_56::ZNames::createInstance, COMDAT
; Line 549
	push	ebp
	mov	ebp, esp
	push	-1
	push	__ehhandler$?createInstance@ZNames@icu_56@@SAPAV12@PAUUResourceBundle@@PBD@Z
	mov	eax, DWORD PTR fs:0
	push	eax
	sub	esp, 232				; 000000e8H
	push	ebx
	push	esi
	push	edi
	lea	edi, DWORD PTR [ebp-244]
	mov	ecx, 58					; 0000003aH
	mov	eax, -858993460				; ccccccccH
	rep stosd
	mov	eax, DWORD PTR ___security_cookie
	xor	eax, ebp
	push	eax
	lea	eax, DWORD PTR __$EHRec$[ebp]
	mov	DWORD PTR fs:0, eax
; Line 550
	mov	eax, DWORD PTR _key$[ebp]
	push	eax
	mov	ecx, DWORD PTR _rb$[ebp]
	push	ecx
	call	?loadData@ZNames@icu_56@@KAPAPB_WPAUUResourceBundle@@PBD@Z ; icu_56::ZNames::loadData
	add	esp, 8
	mov	DWORD PTR _names$[ebp], eax
; Line 551
	cmp	DWORD PTR _names$[ebp], 0
	jne	SHORT $LN1@createInst
; Line 553
	xor	eax, eax
	jmp	SHORT $LN2@createInst
$LN1@createInst:
; Line 555
	mov	esi, esp
	push	8
	call	DWORD PTR __imp_??2UMemory@icu_56@@SAPAXI@Z
	add	esp, 4
	cmp	esi, esp
	call	__RTC_CheckEsp
	mov	DWORD PTR $T79971[ebp], eax
	mov	DWORD PTR __$EHRec$[ebp+8], 0
	cmp	DWORD PTR $T79971[ebp], 0
	je	SHORT $LN4@createInst
	mov	eax, DWORD PTR _names$[ebp]
	push	eax
	mov	ecx, DWORD PTR $T79971[ebp]
	call	??0ZNames@icu_56@@IAE@PAPB_W@Z		; icu_56::ZNames::ZNames
	mov	DWORD PTR tv76[ebp], eax
	jmp	SHORT $LN5@createInst
$LN4@createInst:
	mov	DWORD PTR tv76[ebp], 0
$LN5@createInst:
	mov	ecx, DWORD PTR tv76[ebp]
	mov	DWORD PTR $T79970[ebp], ecx
	mov	DWORD PTR __$EHRec$[ebp+8], -1
	mov	eax, DWORD PTR $T79970[ebp]
$LN2@createInst:
; Line 556
	mov	ecx, DWORD PTR __$EHRec$[ebp]
	mov	DWORD PTR fs:0, ecx
	pop	ecx
	pop	edi
	pop	esi
	pop	ebx
	add	esp, 244				; 000000f4H
	cmp	ebp, esp
	call	__RTC_CheckEsp
	mov	esp, ebp
	pop	ebp
	ret	0
_TEXT	ENDS
;	COMDAT text$x
text$x	SEGMENT
__unwindfunclet$?createInstance@ZNames@icu_56@@SAPAV12@PAUUResourceBundle@@PBD@Z$0:
	mov	esi, esp
	mov	eax, DWORD PTR $T79971[ebp]
	push	eax
	call	DWORD PTR __imp_??3UMemory@icu_56@@SAXPAX@Z
	add	esp, 4
	cmp	esi, esp
	jmp	__RTC_CheckEsp
__ehhandler$?createInstance@ZNames@icu_56@@SAPAV12@PAUUResourceBundle@@PBD@Z:
	mov	edx, DWORD PTR [esp+8]
	lea	eax, DWORD PTR [edx+12]
	mov	ecx, DWORD PTR [edx-248]
	xor	ecx, eax
	call	@__security_check_cookie@4
	mov	eax, OFFSET __ehfuncinfo$?createInstance@ZNames@icu_56@@SAPAV12@PAUUResourceBundle@@PBD@Z
	jmp	___CxxFrameHandler3
text$x	ENDS
?createInstance@ZNames@icu_56@@SAPAV12@PAUUResourceBundle@@PBD@Z ENDP ; icu_56::ZNames::createInstance
; Function compile flags: /Odtp /RTCsu /ZI
;	COMDAT ?getName@ZNames@icu_56@@UAEPB_WW4UTimeZoneNameType@@@Z
_TEXT	SEGMENT
tv66 = -220						; size = 4
_name$ = -20						; size = 4
_this$ = -8						; size = 4
_type$ = 8						; size = 4
?getName@ZNames@icu_56@@UAEPB_WW4UTimeZoneNameType@@@Z PROC ; icu_56::ZNames::getName, COMDAT
; _this$ = ecx
; Line 559
	push	ebp
	mov	ebp, esp
	sub	esp, 220				; 000000dcH
	push	ebx
	push	esi
	push	edi
	push	ecx
	lea	edi, DWORD PTR [ebp-220]
	mov	ecx, 55					; 00000037H
	mov	eax, -858993460				; ccccccccH
	rep stosd
	pop	ecx
	mov	DWORD PTR _this$[ebp], ecx
; Line 560
	mov	eax, DWORD PTR _this$[ebp]
	cmp	DWORD PTR [eax+4], 0
	jne	SHORT $LN10@getName
; Line 561
	xor	eax, eax
	jmp	$LN11@getName
$LN10@getName:
; Line 563
	mov	DWORD PTR _name$[ebp], 0
; Line 564
	mov	eax, DWORD PTR _type$[ebp]
	mov	DWORD PTR tv66[ebp], eax
	mov	ecx, DWORD PTR tv66[ebp]
	sub	ecx, 1
	mov	DWORD PTR tv66[ebp], ecx
	cmp	DWORD PTR tv66[ebp], 31			; 0000001fH
	ja	SHORT $LN1@getName
	mov	edx, DWORD PTR tv66[ebp]
	movzx	eax, BYTE PTR $LN13@getName[edx]
	jmp	DWORD PTR $LN14@getName[eax*4]
$LN7@getName:
; Line 566
	mov	eax, DWORD PTR _this$[ebp]
	mov	ecx, DWORD PTR [eax+4]
	mov	edx, DWORD PTR [ecx]
	mov	DWORD PTR _name$[ebp], edx
; Line 567
	jmp	SHORT $LN8@getName
$LN6@getName:
; Line 569
	mov	eax, DWORD PTR _this$[ebp]
	mov	ecx, DWORD PTR [eax+4]
	mov	edx, DWORD PTR [ecx+4]
	mov	DWORD PTR _name$[ebp], edx
; Line 570
	jmp	SHORT $LN8@getName
$LN5@getName:
; Line 572
	mov	eax, DWORD PTR _this$[ebp]
	mov	ecx, DWORD PTR [eax+4]
	mov	edx, DWORD PTR [ecx+8]
	mov	DWORD PTR _name$[ebp], edx
; Line 573
	jmp	SHORT $LN8@getName
$LN4@getName:
; Line 575
	mov	eax, DWORD PTR _this$[ebp]
	mov	ecx, DWORD PTR [eax+4]
	mov	edx, DWORD PTR [ecx+12]
	mov	DWORD PTR _name$[ebp], edx
; Line 576
	jmp	SHORT $LN8@getName
$LN3@getName:
; Line 578
	mov	eax, DWORD PTR _this$[ebp]
	mov	ecx, DWORD PTR [eax+4]
	mov	edx, DWORD PTR [ecx+16]
	mov	DWORD PTR _name$[ebp], edx
; Line 579
	jmp	SHORT $LN8@getName
$LN2@getName:
; Line 581
	mov	eax, DWORD PTR _this$[ebp]
	mov	ecx, DWORD PTR [eax+4]
	mov	edx, DWORD PTR [ecx+20]
	mov	DWORD PTR _name$[ebp], edx
; Line 582
	jmp	SHORT $LN8@getName
$LN1@getName:
; Line 585
	mov	DWORD PTR _name$[ebp], 0
$LN8@getName:
; Line 587
	mov	eax, DWORD PTR _name$[ebp]
$LN11@getName:
; Line 588
	pop	edi
	pop	esi
	pop	ebx
	mov	esp, ebp
	pop	ebp
	ret	4
	npad	3
$LN14@getName:
	DD	$LN7@getName
	DD	$LN6@getName
	DD	$LN5@getName
	DD	$LN4@getName
	DD	$LN3@getName
	DD	$LN2@getName
	DD	$LN1@getName
$LN13@getName:
	DB	0
	DB	1
	DB	6
	DB	2
	DB	6
	DB	6
	DB	6
	DB	3
	DB	6
	DB	6
	DB	6
	DB	6
	DB	6
	DB	6
	DB	6
	DB	4
	DB	6
	DB	6
	DB	6
	DB	6
	DB	6
	DB	6
	DB	6
	DB	6
	DB	6
	DB	6
	DB	6
	DB	6
	DB	6
	DB	6
	DB	6
	DB	5
?getName@ZNames@icu_56@@UAEPB_WW4UTimeZoneNameType@@@Z ENDP ; icu_56::ZNames::getName
_TEXT	ENDS
EXTRN	_ures_close_56:PROC
EXTRN	_ures_getStringByKeyWithFallback_56:PROC
EXTRN	_ures_getByKeyWithFallback_56:PROC
; Function compile flags: /Odtp /RTCsu /ZI
;	COMDAT ?loadData@ZNames@icu_56@@KAPAPB_WPAUUResourceBundle@@PBD@Z
_TEXT	SEGMENT
_value$71652 = -80					; size = 4
_len$71651 = -68					; size = 4
_i$71647 = -56						; size = 4
_isEmpty$71646 = -41					; size = 1
_rbTable$ = -32						; size = 4
_names$ = -20						; size = 4
_status$ = -8						; size = 4
_rb$ = 8						; size = 4
_key$ = 12						; size = 4
?loadData@ZNames@icu_56@@KAPAPB_WPAUUResourceBundle@@PBD@Z PROC ; icu_56::ZNames::loadData, COMDAT
; Line 591
	push	ebp
	mov	ebp, esp
	sub	esp, 276				; 00000114H
	push	ebx
	push	esi
	push	edi
	lea	edi, DWORD PTR [ebp-276]
	mov	ecx, 69					; 00000045H
	mov	eax, -858993460				; ccccccccH
	rep stosd
; Line 592
	cmp	DWORD PTR _rb$[ebp], 0
	je	SHORT $LN10@loadData
	cmp	DWORD PTR _key$[ebp], 0
	je	SHORT $LN10@loadData
	mov	eax, DWORD PTR _key$[ebp]
	movsx	ecx, BYTE PTR [eax]
	test	ecx, ecx
	jne	SHORT $LN11@loadData
$LN10@loadData:
; Line 593
	xor	eax, eax
	jmp	$LN12@loadData
$LN11@loadData:
; Line 596
	mov	DWORD PTR _status$[ebp], 0
; Line 597
	mov	DWORD PTR _names$[ebp], 0
; Line 599
	mov	DWORD PTR _rbTable$[ebp], 0
; Line 600
	lea	eax, DWORD PTR _status$[ebp]
	push	eax
	mov	ecx, DWORD PTR _rbTable$[ebp]
	push	ecx
	mov	edx, DWORD PTR _key$[ebp]
	push	edx
	mov	eax, DWORD PTR _rb$[ebp]
	push	eax
	call	_ures_getByKeyWithFallback_56
	add	esp, 16					; 00000010H
	mov	DWORD PTR _rbTable$[ebp], eax
; Line 601
	mov	eax, DWORD PTR _status$[ebp]
	push	eax
	call	?U_SUCCESS@@YACW4UErrorCode@@@Z		; U_SUCCESS
	add	esp, 4
	movsx	ecx, al
	test	ecx, ecx
	je	$LN9@loadData
; Line 602
	push	24					; 00000018H
	call	_uprv_malloc_56
	add	esp, 4
	mov	DWORD PTR _names$[ebp], eax
; Line 603
	cmp	DWORD PTR _names$[ebp], 0
	je	$LN9@loadData
; Line 604
	mov	BYTE PTR _isEmpty$71646[ebp], 1
; Line 605
	mov	DWORD PTR _i$71647[ebp], 0
	jmp	SHORT $LN7@loadData
$LN6@loadData:
	mov	eax, DWORD PTR _i$71647[ebp]
	add	eax, 1
	mov	DWORD PTR _i$71647[ebp], eax
$LN7@loadData:
	cmp	DWORD PTR _i$71647[ebp], 6
	jge	SHORT $LN5@loadData
; Line 606
	mov	DWORD PTR _status$[ebp], 0
; Line 607
	mov	DWORD PTR _len$71651[ebp], 0
; Line 608
	lea	eax, DWORD PTR _status$[ebp]
	push	eax
	lea	ecx, DWORD PTR _len$71651[ebp]
	push	ecx
	mov	edx, DWORD PTR _i$71647[ebp]
	mov	eax, DWORD PTR _KEYS[edx*4]
	push	eax
	mov	ecx, DWORD PTR _rbTable$[ebp]
	push	ecx
	call	_ures_getStringByKeyWithFallback_56
	add	esp, 16					; 00000010H
	mov	DWORD PTR _value$71652[ebp], eax
; Line 609
	mov	eax, DWORD PTR _status$[ebp]
	push	eax
	call	?U_FAILURE@@YACW4UErrorCode@@@Z		; U_FAILURE
	add	esp, 4
	movsx	ecx, al
	test	ecx, ecx
	jne	SHORT $LN3@loadData
	cmp	DWORD PTR _len$71651[ebp], 0
	jne	SHORT $LN4@loadData
$LN3@loadData:
; Line 610
	mov	eax, DWORD PTR _i$71647[ebp]
	mov	ecx, DWORD PTR _names$[ebp]
	mov	DWORD PTR [ecx+eax*4], 0
; Line 611
	jmp	SHORT $LN2@loadData
$LN4@loadData:
; Line 612
	mov	eax, DWORD PTR _i$71647[ebp]
	mov	ecx, DWORD PTR _names$[ebp]
	mov	edx, DWORD PTR _value$71652[ebp]
	mov	DWORD PTR [ecx+eax*4], edx
; Line 613
	mov	BYTE PTR _isEmpty$71646[ebp], 0
$LN2@loadData:
; Line 615
	jmp	SHORT $LN6@loadData
$LN5@loadData:
; Line 616
	movsx	eax, BYTE PTR _isEmpty$71646[ebp]
	test	eax, eax
	je	SHORT $LN9@loadData
; Line 618
	mov	eax, DWORD PTR _names$[ebp]
	push	eax
	call	_uprv_free_56
	add	esp, 4
; Line 619
	mov	DWORD PTR _names$[ebp], 0
$LN9@loadData:
; Line 623
	mov	eax, DWORD PTR _rbTable$[ebp]
	push	eax
	call	_ures_close_56
	add	esp, 4
; Line 624
	mov	eax, DWORD PTR _names$[ebp]
$LN12@loadData:
; Line 625
	push	edx
	mov	ecx, ebp
	push	eax
	lea	edx, DWORD PTR $LN17@loadData
	call	@_RTC_CheckStackVars@8
	pop	eax
	pop	edx
	pop	edi
	pop	esi
	pop	ebx
	add	esp, 276				; 00000114H
	cmp	ebp, esp
	call	__RTC_CheckEsp
	mov	esp, ebp
	pop	ebp
	ret	0
	npad	2
$LN17@loadData:
	DD	2
	DD	$LN16@loadData
$LN16@loadData:
	DD	-8					; fffffff8H
	DD	4
	DD	$LN14@loadData
	DD	-68					; ffffffbcH
	DD	4
	DD	$LN15@loadData
$LN15@loadData:
	DB	108					; 0000006cH
	DB	101					; 00000065H
	DB	110					; 0000006eH
	DB	0
$LN14@loadData:
	DB	115					; 00000073H
	DB	116					; 00000074H
	DB	97					; 00000061H
	DB	116					; 00000074H
	DB	117					; 00000075H
	DB	115					; 00000073H
	DB	0
?loadData@ZNames@icu_56@@KAPAPB_WPAUUResourceBundle@@PBD@Z ENDP ; icu_56::ZNames::loadData
; Function compile flags: /Odtp /RTCsu /ZI
_TEXT	ENDS
;	COMDAT ?U_SUCCESS@@YACW4UErrorCode@@@Z
_TEXT	SEGMENT
_code$ = 8						; size = 4
?U_SUCCESS@@YACW4UErrorCode@@@Z PROC			; U_SUCCESS, COMDAT
; File d:\mozilla\intl\icu\include\unicode\utypes.h
; Line 699
	push	ebp
	mov	ebp, esp
	sub	esp, 192				; 000000c0H
	push	ebx
	push	esi
	push	edi
	lea	edi, DWORD PTR [ebp-192]
	mov	ecx, 48					; 00000030H
	mov	eax, -858993460				; ccccccccH
	rep stosd
	cmp	DWORD PTR _code$[ebp], 0
	setle	al
	pop	edi
	pop	esi
	pop	ebx
	mov	esp, ebp
	pop	ebp
	ret	0
?U_SUCCESS@@YACW4UErrorCode@@@Z ENDP			; U_SUCCESS
_TEXT	ENDS
PUBLIC	??_7TZNames@icu_56@@6B@				; icu_56::TZNames::`vftable'
PUBLIC	??0TZNames@icu_56@@AAE@PAPB_W@Z			; icu_56::TZNames::TZNames
PUBLIC	??_R4TZNames@icu_56@@6B@			; icu_56::TZNames::`RTTI Complete Object Locator'
PUBLIC	??_R0?AVTZNames@icu_56@@@8			; icu_56::TZNames `RTTI Type Descriptor'
PUBLIC	??_R3TZNames@icu_56@@8				; icu_56::TZNames::`RTTI Class Hierarchy Descriptor'
PUBLIC	??_R2TZNames@icu_56@@8				; icu_56::TZNames::`RTTI Base Class Array'
PUBLIC	??_R1A@?0A@EA@TZNames@icu_56@@8			; icu_56::TZNames::`RTTI Base Class Descriptor at (0,-1,0,64)'
PUBLIC	?getName@TZNames@icu_56@@UAEPB_WW4UTimeZoneNameType@@@Z ; icu_56::TZNames::getName
EXTRN	??_ETZNames@icu_56@@UAEPAXI@Z:PROC		; icu_56::TZNames::`vector deleting destructor'
;	COMDAT ??_R1A@?0A@EA@TZNames@icu_56@@8
; File d:\mozilla\intl\icu\source\i18n\tznames_impl.cpp
rdata$r	SEGMENT
??_R1A@?0A@EA@TZNames@icu_56@@8 DD FLAT:??_R0?AVTZNames@icu_56@@@8 ; icu_56::TZNames::`RTTI Base Class Descriptor at (0,-1,0,64)'
	DD	02H
	DD	00H
	DD	0ffffffffH
	DD	00H
	DD	040H
	DD	FLAT:??_R3TZNames@icu_56@@8
rdata$r	ENDS
;	COMDAT ??_R2TZNames@icu_56@@8
rdata$r	SEGMENT
??_R2TZNames@icu_56@@8 DD FLAT:??_R1A@?0A@EA@TZNames@icu_56@@8 ; icu_56::TZNames::`RTTI Base Class Array'
	DD	FLAT:??_R1A@?0A@EA@ZNames@icu_56@@8
	DD	FLAT:??_R13?0A@EA@UMemory@icu_56@@8
rdata$r	ENDS
;	COMDAT ??_R3TZNames@icu_56@@8
rdata$r	SEGMENT
??_R3TZNames@icu_56@@8 DD 00H				; icu_56::TZNames::`RTTI Class Hierarchy Descriptor'
	DD	00H
	DD	03H
	DD	FLAT:??_R2TZNames@icu_56@@8
rdata$r	ENDS
;	COMDAT ??_R0?AVTZNames@icu_56@@@8
_DATA	SEGMENT
??_R0?AVTZNames@icu_56@@@8 DD FLAT:??_7type_info@@6B@	; icu_56::TZNames `RTTI Type Descriptor'
	DD	00H
	DB	'.?AVTZNames@icu_56@@', 00H
_DATA	ENDS
;	COMDAT ??_R4TZNames@icu_56@@6B@
rdata$r	SEGMENT
??_R4TZNames@icu_56@@6B@ DD 00H				; icu_56::TZNames::`RTTI Complete Object Locator'
	DD	00H
	DD	00H
	DD	FLAT:??_R0?AVTZNames@icu_56@@@8
	DD	FLAT:??_R3TZNames@icu_56@@8
rdata$r	ENDS
;	COMDAT ??_7TZNames@icu_56@@6B@
CONST	SEGMENT
??_7TZNames@icu_56@@6B@ DD FLAT:??_R4TZNames@icu_56@@6B@ ; icu_56::TZNames::`vftable'
	DD	FLAT:??_ETZNames@icu_56@@UAEPAXI@Z
	DD	FLAT:?getName@TZNames@icu_56@@UAEPB_WW4UTimeZoneNameType@@@Z
; Function compile flags: /Odtp /RTCsu /ZI
CONST	ENDS
;	COMDAT ??0TZNames@icu_56@@AAE@PAPB_W@Z
_TEXT	SEGMENT
_this$ = -8						; size = 4
_names$ = 8						; size = 4
??0TZNames@icu_56@@AAE@PAPB_W@Z PROC			; icu_56::TZNames::TZNames, COMDAT
; _this$ = ecx
; Line 644
	push	ebp
	mov	ebp, esp
	sub	esp, 204				; 000000ccH
	push	ebx
	push	esi
	push	edi
	push	ecx
	lea	edi, DWORD PTR [ebp-204]
	mov	ecx, 51					; 00000033H
	mov	eax, -858993460				; ccccccccH
	rep stosd
	pop	ecx
	mov	DWORD PTR _this$[ebp], ecx
	mov	eax, DWORD PTR _names$[ebp]
	push	eax
	mov	ecx, DWORD PTR _this$[ebp]
	call	??0ZNames@icu_56@@IAE@PAPB_W@Z		; icu_56::ZNames::ZNames
	mov	eax, DWORD PTR _this$[ebp]
	mov	DWORD PTR [eax], OFFSET ??_7TZNames@icu_56@@6B@
	mov	eax, DWORD PTR _this$[ebp]
	mov	DWORD PTR [eax+8], 0
	mov	eax, DWORD PTR _this$[ebp]
	mov	DWORD PTR [eax+12], 0
; Line 645
	mov	eax, DWORD PTR _this$[ebp]
	pop	edi
	pop	esi
	pop	ebx
	add	esp, 204				; 000000ccH
	cmp	ebp, esp
	call	__RTC_CheckEsp
	mov	esp, ebp
	pop	ebp
	ret	4
??0TZNames@icu_56@@AAE@PAPB_W@Z ENDP			; icu_56::TZNames::TZNames
_TEXT	ENDS
PUBLIC	??1TZNames@icu_56@@UAE@XZ			; icu_56::TZNames::~TZNames
; Function compile flags: /Odtp /RTCsu /ZI
;	COMDAT ??_GTZNames@icu_56@@UAEPAXI@Z
_TEXT	SEGMENT
_this$ = -8						; size = 4
___flags$ = 8						; size = 4
??_GTZNames@icu_56@@UAEPAXI@Z PROC			; icu_56::TZNames::`scalar deleting destructor', COMDAT
; _this$ = ecx
	push	ebp
	mov	ebp, esp
	sub	esp, 204				; 000000ccH
	push	ebx
	push	esi
	push	edi
	push	ecx
	lea	edi, DWORD PTR [ebp-204]
	mov	ecx, 51					; 00000033H
	mov	eax, -858993460				; ccccccccH
	rep stosd
	pop	ecx
	mov	DWORD PTR _this$[ebp], ecx
	mov	ecx, DWORD PTR _this$[ebp]
	call	??1TZNames@icu_56@@UAE@XZ		; icu_56::TZNames::~TZNames
	mov	eax, DWORD PTR ___flags$[ebp]
	and	eax, 1
	je	SHORT $LN1@scalar@7
	mov	esi, esp
	mov	eax, DWORD PTR _this$[ebp]
	push	eax
	call	DWORD PTR __imp_??3UMemory@icu_56@@SAXPAX@Z
	add	esp, 4
	cmp	esi, esp
	call	__RTC_CheckEsp
$LN1@scalar@7:
	mov	eax, DWORD PTR _this$[ebp]
	pop	edi
	pop	esi
	pop	ebx
	add	esp, 204				; 000000ccH
	cmp	ebp, esp
	call	__RTC_CheckEsp
	mov	esp, ebp
	pop	ebp
	ret	4
??_GTZNames@icu_56@@UAEPAXI@Z ENDP			; icu_56::TZNames::`scalar deleting destructor'
; Function compile flags: /Odtp /RTCsu /ZI
_TEXT	ENDS
;	COMDAT ??1TZNames@icu_56@@UAE@XZ
_TEXT	SEGMENT
_this$ = -8						; size = 4
??1TZNames@icu_56@@UAE@XZ PROC				; icu_56::TZNames::~TZNames, COMDAT
; _this$ = ecx
; Line 647
	push	ebp
	mov	ebp, esp
	sub	esp, 204				; 000000ccH
	push	ebx
	push	esi
	push	edi
	push	ecx
	lea	edi, DWORD PTR [ebp-204]
	mov	ecx, 51					; 00000033H
	mov	eax, -858993460				; ccccccccH
	rep stosd
	pop	ecx
	mov	DWORD PTR _this$[ebp], ecx
	mov	eax, DWORD PTR _this$[ebp]
	mov	DWORD PTR [eax], OFFSET ??_7TZNames@icu_56@@6B@
; Line 648
	mov	eax, DWORD PTR _this$[ebp]
	cmp	DWORD PTR [eax+12], 0
	je	SHORT $LN2@TZNames
; Line 649
	mov	eax, DWORD PTR _this$[ebp]
	mov	ecx, DWORD PTR [eax+12]
	push	ecx
	call	_uprv_free_56
	add	esp, 4
$LN2@TZNames:
; Line 651
	mov	ecx, DWORD PTR _this$[ebp]
	call	??1ZNames@icu_56@@UAE@XZ		; icu_56::ZNames::~ZNames
	pop	edi
	pop	esi
	pop	ebx
	add	esp, 204				; 000000ccH
	cmp	ebp, esp
	call	__RTC_CheckEsp
	mov	esp, ebp
	pop	ebp
	ret	0
??1TZNames@icu_56@@UAE@XZ ENDP				; icu_56::TZNames::~TZNames
; Function compile flags: /Odtp /RTCsu /ZI
_TEXT	ENDS
;	COMDAT ?getName@TZNames@icu_56@@UAEPB_WW4UTimeZoneNameType@@@Z
_TEXT	SEGMENT
_this$ = -8						; size = 4
_type$ = 8						; size = 4
?getName@TZNames@icu_56@@UAEPB_WW4UTimeZoneNameType@@@Z PROC ; icu_56::TZNames::getName, COMDAT
; _this$ = ecx
; Line 654
	push	ebp
	mov	ebp, esp
	sub	esp, 204				; 000000ccH
	push	ebx
	push	esi
	push	edi
	push	ecx
	lea	edi, DWORD PTR [ebp-204]
	mov	ecx, 51					; 00000033H
	mov	eax, -858993460				; ccccccccH
	rep stosd
	pop	ecx
	mov	DWORD PTR _this$[ebp], ecx
; Line 655
	cmp	DWORD PTR _type$[ebp], 64		; 00000040H
	jne	SHORT $LN1@getName@2
; Line 656
	mov	eax, DWORD PTR _this$[ebp]
	mov	eax, DWORD PTR [eax+8]
	jmp	SHORT $LN2@getName@2
$LN1@getName@2:
; Line 658
	mov	eax, DWORD PTR _type$[ebp]
	push	eax
	mov	ecx, DWORD PTR _this$[ebp]
	call	?getName@ZNames@icu_56@@UAEPB_WW4UTimeZoneNameType@@@Z ; icu_56::ZNames::getName
$LN2@getName@2:
; Line 659
	pop	edi
	pop	esi
	pop	ebx
	add	esp, 204				; 000000ccH
	cmp	ebp, esp
	call	__RTC_CheckEsp
	mov	esp, ebp
	pop	ebp
	ret	4
?getName@TZNames@icu_56@@UAEPB_WW4UTimeZoneNameType@@@Z ENDP ; icu_56::TZNames::getName
_TEXT	ENDS
PUBLIC	?getDefaultExemplarLocationName@TimeZoneNamesImpl@icu_56@@SAAAVUnicodeString@2@ABV32@AAV32@@Z ; icu_56::TimeZoneNamesImpl::getDefaultExemplarLocationName
PUBLIC	__$ArrayPad$
PUBLIC	?createInstance@TZNames@icu_56@@SAPAV12@PAUUResourceBundle@@PBDABVUnicodeString@2@@Z ; icu_56::TZNames::createInstance
EXTRN	__imp_?extract@UnicodeString@icu_56@@QBEHPA_WHAAW4UErrorCode@@@Z:PROC
;	COMDAT xdata$x
xdata$x	SEGMENT
__unwindtable$?createInstance@TZNames@icu_56@@SAPAV12@PAUUResourceBundle@@PBDABVUnicodeString@2@@Z DD 0ffffffffH
	DD	FLAT:__unwindfunclet$?createInstance@TZNames@icu_56@@SAPAV12@PAUUResourceBundle@@PBDABVUnicodeString@2@@Z$0
	DD	0ffffffffH
	DD	FLAT:__unwindfunclet$?createInstance@TZNames@icu_56@@SAPAV12@PAUUResourceBundle@@PBDABVUnicodeString@2@@Z$1
__ehfuncinfo$?createInstance@TZNames@icu_56@@SAPAV12@PAUUResourceBundle@@PBDABVUnicodeString@2@@Z DD 019930522H
	DD	02H
	DD	FLAT:__unwindtable$?createInstance@TZNames@icu_56@@SAPAV12@PAUUResourceBundle@@PBDABVUnicodeString@2@@Z
	DD	2 DUP(00H)
	DD	2 DUP(00H)
	DD	00H
	DD	01H
; Function compile flags: /Odtp /RTCsu /ZI
xdata$x	ENDS
;	COMDAT ?createInstance@TZNames@icu_56@@SAPAV12@PAUUResourceBundle@@PBDABVUnicodeString@2@@Z
_TEXT	SEGMENT
tv143 = -404						; size = 4
$T80006 = -396						; size = 4
$T80007 = -384						; size = 4
_tznames$ = -180					; size = 4
_tmpNameLen$71710 = -168				; size = 4
_tmpName$71709 = -156					; size = 64
_table$ = -84						; size = 4
_len$ = -72						; size = 4
_status$ = -60						; size = 4
_locationNameOwned$ = -48				; size = 4
_locationName$ = -36					; size = 4
_names$ = -24						; size = 4
__$ArrayPad$ = -16					; size = 4
__$EHRec$ = -12						; size = 12
_rb$ = 8						; size = 4
_key$ = 12						; size = 4
_tzID$ = 16						; size = 4
?createInstance@TZNames@icu_56@@SAPAV12@PAUUResourceBundle@@PBDABVUnicodeString@2@@Z PROC ; icu_56::TZNames::createInstance, COMDAT
; Line 662
	push	ebp
	mov	ebp, esp
	push	-1
	push	__ehhandler$?createInstance@TZNames@icu_56@@SAPAV12@PAUUResourceBundle@@PBDABVUnicodeString@2@@Z
	mov	eax, DWORD PTR fs:0
	push	eax
	sub	esp, 392				; 00000188H
	push	ebx
	push	esi
	push	edi
	lea	edi, DWORD PTR [ebp-404]
	mov	ecx, 98					; 00000062H
	mov	eax, -858993460				; ccccccccH
	rep stosd
	mov	eax, DWORD PTR ___security_cookie
	xor	eax, ebp
	mov	DWORD PTR __$ArrayPad$[ebp], eax
	push	eax
	lea	eax, DWORD PTR __$EHRec$[ebp]
	mov	DWORD PTR fs:0, eax
; Line 663
	cmp	DWORD PTR _rb$[ebp], 0
	je	SHORT $LN8@createInst@2
	cmp	DWORD PTR _key$[ebp], 0
	je	SHORT $LN8@createInst@2
	mov	eax, DWORD PTR _key$[ebp]
	movsx	ecx, BYTE PTR [eax]
	test	ecx, ecx
	jne	SHORT $LN9@createInst@2
$LN8@createInst@2:
; Line 664
	xor	eax, eax
	jmp	$LN10@createInst@2
$LN9@createInst@2:
; Line 667
	mov	eax, DWORD PTR _key$[ebp]
	push	eax
	mov	ecx, DWORD PTR _rb$[ebp]
	push	ecx
	call	?loadData@ZNames@icu_56@@KAPAPB_WPAUUResourceBundle@@PBD@Z ; icu_56::ZNames::loadData
	add	esp, 8
	mov	DWORD PTR _names$[ebp], eax
; Line 668
	mov	DWORD PTR _locationName$[ebp], 0
; Line 669
	mov	DWORD PTR _locationNameOwned$[ebp], 0
; Line 671
	mov	DWORD PTR _status$[ebp], 0
; Line 672
	mov	DWORD PTR _len$[ebp], 0
; Line 674
	lea	eax, DWORD PTR _status$[ebp]
	push	eax
	push	0
	mov	ecx, DWORD PTR _key$[ebp]
	push	ecx
	mov	edx, DWORD PTR _rb$[ebp]
	push	edx
	call	_ures_getByKeyWithFallback_56
	add	esp, 16					; 00000010H
	mov	DWORD PTR _table$[ebp], eax
; Line 675
	lea	eax, DWORD PTR _status$[ebp]
	push	eax
	lea	ecx, DWORD PTR _len$[ebp]
	push	ecx
	push	OFFSET _gEcTag
	mov	edx, DWORD PTR _table$[ebp]
	push	edx
	call	_ures_getStringByKeyWithFallback_56
	add	esp, 16					; 00000010H
	mov	DWORD PTR _locationName$[ebp], eax
; Line 677
	mov	DWORD PTR _status$[ebp], 0
; Line 679
	mov	eax, DWORD PTR _table$[ebp]
	push	eax
	call	_ures_close_56
	add	esp, 4
; Line 681
	cmp	DWORD PTR _locationName$[ebp], 0
	jne	$LN7@createInst@2
; Line 682
	mov	esi, esp
	lea	ecx, DWORD PTR _tmpName$71709[ebp]
	call	DWORD PTR __imp_??0UnicodeString@icu_56@@QAE@XZ
	cmp	esi, esp
	call	__RTC_CheckEsp
	mov	DWORD PTR __$EHRec$[ebp+8], 0
; Line 683
	mov	DWORD PTR _tmpNameLen$71710[ebp], 0
; Line 684
	lea	eax, DWORD PTR _tmpName$71709[ebp]
	push	eax
	mov	ecx, DWORD PTR _tzID$[ebp]
	push	ecx
	call	?getDefaultExemplarLocationName@TimeZoneNamesImpl@icu_56@@SAAAVUnicodeString@2@ABV32@AAV32@@Z ; icu_56::TimeZoneNamesImpl::getDefaultExemplarLocationName
	add	esp, 8
; Line 685
	mov	esi, esp
	lea	ecx, DWORD PTR _tmpName$71709[ebp]
	call	DWORD PTR __imp_?length@UnicodeString@icu_56@@QBEHXZ
	cmp	esi, esp
	call	__RTC_CheckEsp
	mov	DWORD PTR _tmpNameLen$71710[ebp], eax
; Line 687
	cmp	DWORD PTR _tmpNameLen$71710[ebp], 0
	jle	SHORT $LN6@createInst@2
; Line 688
	mov	eax, DWORD PTR _tmpNameLen$71710[ebp]
	lea	ecx, DWORD PTR [eax+eax+2]
	push	ecx
	call	_uprv_malloc_56
	add	esp, 4
	mov	DWORD PTR _locationNameOwned$[ebp], eax
; Line 689
	cmp	DWORD PTR _locationNameOwned$[ebp], 0
	je	SHORT $LN6@createInst@2
; Line 690
	mov	esi, esp
	lea	eax, DWORD PTR _status$[ebp]
	push	eax
	mov	ecx, DWORD PTR _tmpNameLen$71710[ebp]
	add	ecx, 1
	push	ecx
	mov	edx, DWORD PTR _locationNameOwned$[ebp]
	push	edx
	lea	ecx, DWORD PTR _tmpName$71709[ebp]
	call	DWORD PTR __imp_?extract@UnicodeString@icu_56@@QBEHPA_WHAAW4UErrorCode@@@Z
	cmp	esi, esp
	call	__RTC_CheckEsp
; Line 691
	mov	eax, DWORD PTR _locationNameOwned$[ebp]
	mov	DWORD PTR _locationName$[ebp], eax
$LN6@createInst@2:
; Line 694
	mov	DWORD PTR __$EHRec$[ebp+8], -1
	mov	esi, esp
	lea	ecx, DWORD PTR _tmpName$71709[ebp]
	call	DWORD PTR __imp_??1UnicodeString@icu_56@@UAE@XZ
	cmp	esi, esp
	call	__RTC_CheckEsp
$LN7@createInst@2:
; Line 696
	mov	DWORD PTR _tznames$[ebp], 0
; Line 697
	cmp	DWORD PTR _locationName$[ebp], 0
	jne	SHORT $LN3@createInst@2
	cmp	DWORD PTR _names$[ebp], 0
	je	$LN4@createInst@2
$LN3@createInst@2:
; Line 698
	mov	esi, esp
	push	16					; 00000010H
	call	DWORD PTR __imp_??2UMemory@icu_56@@SAPAXI@Z
	add	esp, 4
	cmp	esi, esp
	call	__RTC_CheckEsp
	mov	DWORD PTR $T80007[ebp], eax
	mov	DWORD PTR __$EHRec$[ebp+8], 1
	cmp	DWORD PTR $T80007[ebp], 0
	je	SHORT $LN12@createInst@2
	mov	eax, DWORD PTR _names$[ebp]
	push	eax
	mov	ecx, DWORD PTR $T80007[ebp]
	call	??0TZNames@icu_56@@AAE@PAPB_W@Z		; icu_56::TZNames::TZNames
	mov	DWORD PTR tv143[ebp], eax
	jmp	SHORT $LN13@createInst@2
$LN12@createInst@2:
	mov	DWORD PTR tv143[ebp], 0
$LN13@createInst@2:
	mov	ecx, DWORD PTR tv143[ebp]
	mov	DWORD PTR $T80006[ebp], ecx
	mov	DWORD PTR __$EHRec$[ebp+8], -1
	mov	edx, DWORD PTR $T80006[ebp]
	mov	DWORD PTR _tznames$[ebp], edx
; Line 699
	cmp	DWORD PTR _tznames$[ebp], 0
	jne	SHORT $LN2@createInst@2
; Line 700
	cmp	DWORD PTR _locationNameOwned$[ebp], 0
	je	SHORT $LN2@createInst@2
; Line 701
	mov	eax, DWORD PTR _locationNameOwned$[ebp]
	push	eax
	call	_uprv_free_56
	add	esp, 4
$LN2@createInst@2:
; Line 704
	mov	eax, DWORD PTR _tznames$[ebp]
	mov	ecx, DWORD PTR _locationName$[ebp]
	mov	DWORD PTR [eax+8], ecx
; Line 705
	mov	eax, DWORD PTR _tznames$[ebp]
	mov	ecx, DWORD PTR _locationNameOwned$[ebp]
	mov	DWORD PTR [eax+12], ecx
$LN4@createInst@2:
; Line 708
	mov	eax, DWORD PTR _tznames$[ebp]
$LN10@createInst@2:
; Line 709
	push	edx
	mov	ecx, ebp
	push	eax
	lea	edx, DWORD PTR $LN21@createInst@2
	call	@_RTC_CheckStackVars@8
	pop	eax
	pop	edx
	mov	ecx, DWORD PTR __$EHRec$[ebp]
	mov	DWORD PTR fs:0, ecx
	pop	ecx
	pop	edi
	pop	esi
	pop	ebx
	mov	ecx, DWORD PTR __$ArrayPad$[ebp]
	xor	ecx, ebp
	call	@__security_check_cookie@4
	add	esp, 404				; 00000194H
	cmp	ebp, esp
	call	__RTC_CheckEsp
	mov	esp, ebp
	pop	ebp
	ret	0
	npad	1
$LN21@createInst@2:
	DD	3
	DD	$LN20@createInst@2
$LN20@createInst@2:
	DD	-60					; ffffffc4H
	DD	4
	DD	$LN16@createInst@2
	DD	-72					; ffffffb8H
	DD	4
	DD	$LN17@createInst@2
	DD	-156					; ffffff64H
	DD	64					; 00000040H
	DD	$LN18@createInst@2
$LN18@createInst@2:
	DB	116					; 00000074H
	DB	109					; 0000006dH
	DB	112					; 00000070H
	DB	78					; 0000004eH
	DB	97					; 00000061H
	DB	109					; 0000006dH
	DB	101					; 00000065H
	DB	0
$LN17@createInst@2:
	DB	108					; 0000006cH
	DB	101					; 00000065H
	DB	110					; 0000006eH
	DB	0
$LN16@createInst@2:
	DB	115					; 00000073H
	DB	116					; 00000074H
	DB	97					; 00000061H
	DB	116					; 00000074H
	DB	117					; 00000075H
	DB	115					; 00000073H
	DB	0
_TEXT	ENDS
;	COMDAT text$x
text$x	SEGMENT
__unwindfunclet$?createInstance@TZNames@icu_56@@SAPAV12@PAUUResourceBundle@@PBDABVUnicodeString@2@@Z$0:
	mov	esi, esp
	lea	ecx, DWORD PTR _tmpName$71709[ebp]
	call	DWORD PTR __imp_??1UnicodeString@icu_56@@UAE@XZ
	cmp	esi, esp
	jmp	__RTC_CheckEsp
__unwindfunclet$?createInstance@TZNames@icu_56@@SAPAV12@PAUUResourceBundle@@PBDABVUnicodeString@2@@Z$1:
	mov	esi, esp
	mov	eax, DWORD PTR $T80007[ebp]
	push	eax
	call	DWORD PTR __imp_??3UMemory@icu_56@@SAXPAX@Z
	add	esp, 4
	cmp	esi, esp
	jmp	__RTC_CheckEsp
__ehhandler$?createInstance@TZNames@icu_56@@SAPAV12@PAUUResourceBundle@@PBDABVUnicodeString@2@@Z:
	mov	edx, DWORD PTR [esp+8]
	lea	eax, DWORD PTR [edx+12]
	mov	ecx, DWORD PTR [edx-408]
	xor	ecx, eax
	call	@__security_check_cookie@4
	mov	ecx, DWORD PTR [edx-4]
	xor	ecx, eax
	call	@__security_check_cookie@4
	mov	eax, OFFSET __ehfuncinfo$?createInstance@TZNames@icu_56@@SAPAV12@PAUUResourceBundle@@PBDABVUnicodeString@2@@Z
	jmp	___CxxFrameHandler3
text$x	ENDS
?createInstance@TZNames@icu_56@@SAPAV12@PAUUResourceBundle@@PBDABVUnicodeString@2@@Z ENDP ; icu_56::TZNames::createInstance
PUBLIC	?getStaticClassID@MetaZoneIDsEnumeration@icu_56@@SAPAXXZ ; icu_56::MetaZoneIDsEnumeration::getStaticClassID
; Function compile flags: /Odtp /RTCsu /ZI
;	COMDAT ?getStaticClassID@MetaZoneIDsEnumeration@icu_56@@SAPAXXZ
_TEXT	SEGMENT
?getStaticClassID@MetaZoneIDsEnumeration@icu_56@@SAPAXXZ PROC ; icu_56::MetaZoneIDsEnumeration::getStaticClassID, COMDAT
; Line 732
	push	ebp
	mov	ebp, esp
	sub	esp, 192				; 000000c0H
	push	ebx
	push	esi
	push	edi
	lea	edi, DWORD PTR [ebp-192]
	mov	ecx, 48					; 00000030H
	mov	eax, -858993460				; ccccccccH
	rep stosd
	mov	eax, OFFSET ?classID@?1??getStaticClassID@MetaZoneIDsEnumeration@icu_56@@SAPAXXZ@4DA
	pop	edi
	pop	esi
	pop	ebx
	mov	esp, ebp
	pop	ebp
	ret	0
?getStaticClassID@MetaZoneIDsEnumeration@icu_56@@SAPAXXZ ENDP ; icu_56::MetaZoneIDsEnumeration::getStaticClassID
_TEXT	ENDS
PUBLIC	?getDynamicClassID@MetaZoneIDsEnumeration@icu_56@@UBEPAXXZ ; icu_56::MetaZoneIDsEnumeration::getDynamicClassID
; Function compile flags: /Odtp /RTCsu /ZI
;	COMDAT ?getDynamicClassID@MetaZoneIDsEnumeration@icu_56@@UBEPAXXZ
_TEXT	SEGMENT
_this$ = -8						; size = 4
?getDynamicClassID@MetaZoneIDsEnumeration@icu_56@@UBEPAXXZ PROC ; icu_56::MetaZoneIDsEnumeration::getDynamicClassID, COMDAT
; _this$ = ecx
; Line 732
	push	ebp
	mov	ebp, esp
	sub	esp, 204				; 000000ccH
	push	ebx
	push	esi
	push	edi
	push	ecx
	lea	edi, DWORD PTR [ebp-204]
	mov	ecx, 51					; 00000033H
	mov	eax, -858993460				; ccccccccH
	rep stosd
	pop	ecx
	mov	DWORD PTR _this$[ebp], ecx
	call	?getStaticClassID@MetaZoneIDsEnumeration@icu_56@@SAPAXXZ ; icu_56::MetaZoneIDsEnumeration::getStaticClassID
	pop	edi
	pop	esi
	pop	ebx
	add	esp, 204				; 000000ccH
	cmp	ebp, esp
	call	__RTC_CheckEsp
	mov	esp, ebp
	pop	ebp
	ret	0
?getDynamicClassID@MetaZoneIDsEnumeration@icu_56@@UBEPAXXZ ENDP ; icu_56::MetaZoneIDsEnumeration::getDynamicClassID
_TEXT	ENDS
PUBLIC	??_7MetaZoneIDsEnumeration@icu_56@@6B@		; icu_56::MetaZoneIDsEnumeration::`vftable'
PUBLIC	??0MetaZoneIDsEnumeration@icu_56@@QAE@XZ	; icu_56::MetaZoneIDsEnumeration::MetaZoneIDsEnumeration
PUBLIC	??_R4MetaZoneIDsEnumeration@icu_56@@6B@		; icu_56::MetaZoneIDsEnumeration::`RTTI Complete Object Locator'
PUBLIC	??_R0?AVMetaZoneIDsEnumeration@icu_56@@@8	; icu_56::MetaZoneIDsEnumeration `RTTI Type Descriptor'
PUBLIC	??_R3MetaZoneIDsEnumeration@icu_56@@8		; icu_56::MetaZoneIDsEnumeration::`RTTI Class Hierarchy Descriptor'
PUBLIC	??_R2MetaZoneIDsEnumeration@icu_56@@8		; icu_56::MetaZoneIDsEnumeration::`RTTI Base Class Array'
PUBLIC	??_R1A@?0A@EA@MetaZoneIDsEnumeration@icu_56@@8	; icu_56::MetaZoneIDsEnumeration::`RTTI Base Class Descriptor at (0,-1,0,64)'
PUBLIC	??_R1A@?0A@EA@StringEnumeration@icu_56@@8	; icu_56::StringEnumeration::`RTTI Base Class Descriptor at (0,-1,0,64)'
PUBLIC	??_R0?AVStringEnumeration@icu_56@@@8		; icu_56::StringEnumeration `RTTI Type Descriptor'
PUBLIC	??_R3StringEnumeration@icu_56@@8		; icu_56::StringEnumeration::`RTTI Class Hierarchy Descriptor'
PUBLIC	??_R2StringEnumeration@icu_56@@8		; icu_56::StringEnumeration::`RTTI Base Class Array'
PUBLIC	?count@MetaZoneIDsEnumeration@icu_56@@UBEHAAW4UErrorCode@@@Z ; icu_56::MetaZoneIDsEnumeration::count
PUBLIC	?snext@MetaZoneIDsEnumeration@icu_56@@UAEPBVUnicodeString@2@AAW4UErrorCode@@@Z ; icu_56::MetaZoneIDsEnumeration::snext
PUBLIC	?reset@MetaZoneIDsEnumeration@icu_56@@UAEXAAW4UErrorCode@@@Z ; icu_56::MetaZoneIDsEnumeration::reset
EXTRN	__imp_??0StringEnumeration@icu_56@@IAE@XZ:PROC
EXTRN	??_EMetaZoneIDsEnumeration@icu_56@@UAEPAXI@Z:PROC ; icu_56::MetaZoneIDsEnumeration::`vector deleting destructor'
EXTRN	?clone@StringEnumeration@icu_56@@UBEPAV12@XZ:PROC ; icu_56::StringEnumeration::clone
EXTRN	?next@StringEnumeration@icu_56@@UAEPBDPAHAAW4UErrorCode@@@Z:PROC ; icu_56::StringEnumeration::next
EXTRN	?unext@StringEnumeration@icu_56@@UAEPB_WPAHAAW4UErrorCode@@@Z:PROC ; icu_56::StringEnumeration::unext
EXTRN	??8StringEnumeration@icu_56@@UBECABV01@@Z:PROC	; icu_56::StringEnumeration::operator==
EXTRN	??9StringEnumeration@icu_56@@UBECABV01@@Z:PROC	; icu_56::StringEnumeration::operator!=
;	COMDAT ??_R2StringEnumeration@icu_56@@8
rdata$r	SEGMENT
??_R2StringEnumeration@icu_56@@8 DD FLAT:??_R1A@?0A@EA@StringEnumeration@icu_56@@8 ; icu_56::StringEnumeration::`RTTI Base Class Array'
	DD	FLAT:??_R1A@?0A@EA@UObject@icu_56@@8
	DD	FLAT:??_R13?0A@EA@UMemory@icu_56@@8
rdata$r	ENDS
;	COMDAT ??_R3StringEnumeration@icu_56@@8
rdata$r	SEGMENT
??_R3StringEnumeration@icu_56@@8 DD 00H			; icu_56::StringEnumeration::`RTTI Class Hierarchy Descriptor'
	DD	00H
	DD	03H
	DD	FLAT:??_R2StringEnumeration@icu_56@@8
rdata$r	ENDS
;	COMDAT ??_R0?AVStringEnumeration@icu_56@@@8
_DATA	SEGMENT
??_R0?AVStringEnumeration@icu_56@@@8 DD FLAT:??_7type_info@@6B@ ; icu_56::StringEnumeration `RTTI Type Descriptor'
	DD	00H
	DB	'.?AVStringEnumeration@icu_56@@', 00H
_DATA	ENDS
;	COMDAT ??_R1A@?0A@EA@StringEnumeration@icu_56@@8
rdata$r	SEGMENT
??_R1A@?0A@EA@StringEnumeration@icu_56@@8 DD FLAT:??_R0?AVStringEnumeration@icu_56@@@8 ; icu_56::StringEnumeration::`RTTI Base Class Descriptor at (0,-1,0,64)'
	DD	02H
	DD	00H
	DD	0ffffffffH
	DD	00H
	DD	040H
	DD	FLAT:??_R3StringEnumeration@icu_56@@8
rdata$r	ENDS
;	COMDAT ??_R1A@?0A@EA@MetaZoneIDsEnumeration@icu_56@@8
rdata$r	SEGMENT
??_R1A@?0A@EA@MetaZoneIDsEnumeration@icu_56@@8 DD FLAT:??_R0?AVMetaZoneIDsEnumeration@icu_56@@@8 ; icu_56::MetaZoneIDsEnumeration::`RTTI Base Class Descriptor at (0,-1,0,64)'
	DD	03H
	DD	00H
	DD	0ffffffffH
	DD	00H
	DD	040H
	DD	FLAT:??_R3MetaZoneIDsEnumeration@icu_56@@8
rdata$r	ENDS
;	COMDAT ??_R2MetaZoneIDsEnumeration@icu_56@@8
rdata$r	SEGMENT
??_R2MetaZoneIDsEnumeration@icu_56@@8 DD FLAT:??_R1A@?0A@EA@MetaZoneIDsEnumeration@icu_56@@8 ; icu_56::MetaZoneIDsEnumeration::`RTTI Base Class Array'
	DD	FLAT:??_R1A@?0A@EA@StringEnumeration@icu_56@@8
	DD	FLAT:??_R1A@?0A@EA@UObject@icu_56@@8
	DD	FLAT:??_R13?0A@EA@UMemory@icu_56@@8
rdata$r	ENDS
;	COMDAT ??_R3MetaZoneIDsEnumeration@icu_56@@8
rdata$r	SEGMENT
??_R3MetaZoneIDsEnumeration@icu_56@@8 DD 00H		; icu_56::MetaZoneIDsEnumeration::`RTTI Class Hierarchy Descriptor'
	DD	00H
	DD	04H
	DD	FLAT:??_R2MetaZoneIDsEnumeration@icu_56@@8
rdata$r	ENDS
;	COMDAT ??_R0?AVMetaZoneIDsEnumeration@icu_56@@@8
_DATA	SEGMENT
??_R0?AVMetaZoneIDsEnumeration@icu_56@@@8 DD FLAT:??_7type_info@@6B@ ; icu_56::MetaZoneIDsEnumeration `RTTI Type Descriptor'
	DD	00H
	DB	'.?AVMetaZoneIDsEnumeration@icu_56@@', 00H
_DATA	ENDS
;	COMDAT ??_R4MetaZoneIDsEnumeration@icu_56@@6B@
rdata$r	SEGMENT
??_R4MetaZoneIDsEnumeration@icu_56@@6B@ DD 00H		; icu_56::MetaZoneIDsEnumeration::`RTTI Complete Object Locator'
	DD	00H
	DD	00H
	DD	FLAT:??_R0?AVMetaZoneIDsEnumeration@icu_56@@@8
	DD	FLAT:??_R3MetaZoneIDsEnumeration@icu_56@@8
rdata$r	ENDS
;	COMDAT ??_7MetaZoneIDsEnumeration@icu_56@@6B@
CONST	SEGMENT
??_7MetaZoneIDsEnumeration@icu_56@@6B@ DD FLAT:??_R4MetaZoneIDsEnumeration@icu_56@@6B@ ; icu_56::MetaZoneIDsEnumeration::`vftable'
	DD	FLAT:??_EMetaZoneIDsEnumeration@icu_56@@UAEPAXI@Z
	DD	FLAT:?getDynamicClassID@MetaZoneIDsEnumeration@icu_56@@UBEPAXXZ
	DD	FLAT:?clone@StringEnumeration@icu_56@@UBEPAV12@XZ
	DD	FLAT:?count@MetaZoneIDsEnumeration@icu_56@@UBEHAAW4UErrorCode@@@Z
	DD	FLAT:?next@StringEnumeration@icu_56@@UAEPBDPAHAAW4UErrorCode@@@Z
	DD	FLAT:?unext@StringEnumeration@icu_56@@UAEPB_WPAHAAW4UErrorCode@@@Z
	DD	FLAT:?snext@MetaZoneIDsEnumeration@icu_56@@UAEPBVUnicodeString@2@AAW4UErrorCode@@@Z
	DD	FLAT:?reset@MetaZoneIDsEnumeration@icu_56@@UAEXAAW4UErrorCode@@@Z
	DD	FLAT:??8StringEnumeration@icu_56@@UBECABV01@@Z
	DD	FLAT:??9StringEnumeration@icu_56@@UBECABV01@@Z
; Function compile flags: /Odtp /RTCsu /ZI
CONST	ENDS
;	COMDAT ??0MetaZoneIDsEnumeration@icu_56@@QAE@XZ
_TEXT	SEGMENT
_this$ = -8						; size = 4
??0MetaZoneIDsEnumeration@icu_56@@QAE@XZ PROC		; icu_56::MetaZoneIDsEnumeration::MetaZoneIDsEnumeration, COMDAT
; _this$ = ecx
; Line 735
	push	ebp
	mov	ebp, esp
	sub	esp, 204				; 000000ccH
	push	ebx
	push	esi
	push	edi
	push	ecx
	lea	edi, DWORD PTR [ebp-204]
	mov	ecx, 51					; 00000033H
	mov	eax, -858993460				; ccccccccH
	rep stosd
	pop	ecx
	mov	DWORD PTR _this$[ebp], ecx
	mov	esi, esp
	mov	ecx, DWORD PTR _this$[ebp]
	call	DWORD PTR __imp_??0StringEnumeration@icu_56@@IAE@XZ
	cmp	esi, esp
	call	__RTC_CheckEsp
	mov	eax, DWORD PTR _this$[ebp]
	mov	DWORD PTR [eax], OFFSET ??_7MetaZoneIDsEnumeration@icu_56@@6B@
	mov	eax, DWORD PTR _this$[ebp]
	mov	DWORD PTR [eax+108], 0
	mov	eax, DWORD PTR _this$[ebp]
	mov	DWORD PTR [eax+112], 0
	mov	eax, DWORD PTR _this$[ebp]
	mov	DWORD PTR [eax+116], 0
	mov	eax, DWORD PTR _this$[ebp]
	mov	DWORD PTR [eax+120], 0
; Line 736
	mov	eax, DWORD PTR _this$[ebp]
	pop	edi
	pop	esi
	pop	ebx
	add	esp, 204				; 000000ccH
	cmp	ebp, esp
	call	__RTC_CheckEsp
	mov	esp, ebp
	pop	ebp
	ret	0
??0MetaZoneIDsEnumeration@icu_56@@QAE@XZ ENDP		; icu_56::MetaZoneIDsEnumeration::MetaZoneIDsEnumeration
_TEXT	ENDS
PUBLIC	??1MetaZoneIDsEnumeration@icu_56@@UAE@XZ	; icu_56::MetaZoneIDsEnumeration::~MetaZoneIDsEnumeration
; Function compile flags: /Odtp /RTCsu /ZI
;	COMDAT ??_GMetaZoneIDsEnumeration@icu_56@@UAEPAXI@Z
_TEXT	SEGMENT
_this$ = -8						; size = 4
___flags$ = 8						; size = 4
??_GMetaZoneIDsEnumeration@icu_56@@UAEPAXI@Z PROC	; icu_56::MetaZoneIDsEnumeration::`scalar deleting destructor', COMDAT
; _this$ = ecx
	push	ebp
	mov	ebp, esp
	sub	esp, 204				; 000000ccH
	push	ebx
	push	esi
	push	edi
	push	ecx
	lea	edi, DWORD PTR [ebp-204]
	mov	ecx, 51					; 00000033H
	mov	eax, -858993460				; ccccccccH
	rep stosd
	pop	ecx
	mov	DWORD PTR _this$[ebp], ecx
	mov	ecx, DWORD PTR _this$[ebp]
	call	??1MetaZoneIDsEnumeration@icu_56@@UAE@XZ ; icu_56::MetaZoneIDsEnumeration::~MetaZoneIDsEnumeration
	mov	eax, DWORD PTR ___flags$[ebp]
	and	eax, 1
	je	SHORT $LN1@scalar@8
	mov	esi, esp
	mov	eax, DWORD PTR _this$[ebp]
	push	eax
	call	DWORD PTR __imp_??3UMemory@icu_56@@SAXPAX@Z
	add	esp, 4
	cmp	esi, esp
	call	__RTC_CheckEsp
$LN1@scalar@8:
	mov	eax, DWORD PTR _this$[ebp]
	pop	edi
	pop	esi
	pop	ebx
	add	esp, 204				; 000000ccH
	cmp	ebp, esp
	call	__RTC_CheckEsp
	mov	esp, ebp
	pop	ebp
	ret	4
??_GMetaZoneIDsEnumeration@icu_56@@UAEPAXI@Z ENDP	; icu_56::MetaZoneIDsEnumeration::`scalar deleting destructor'
_TEXT	ENDS
PUBLIC	??0MetaZoneIDsEnumeration@icu_56@@QAE@ABVUVector@1@@Z ; icu_56::MetaZoneIDsEnumeration::MetaZoneIDsEnumeration
EXTRN	__imp_??1StringEnumeration@icu_56@@UAE@XZ:PROC
;	COMDAT xdata$x
xdata$x	SEGMENT
__unwindtable$??0MetaZoneIDsEnumeration@icu_56@@QAE@ABVUVector@1@@Z DD 0ffffffffH
	DD	FLAT:__unwindfunclet$??0MetaZoneIDsEnumeration@icu_56@@QAE@ABVUVector@1@@Z$0
__ehfuncinfo$??0MetaZoneIDsEnumeration@icu_56@@QAE@ABVUVector@1@@Z DD 019930522H
	DD	01H
	DD	FLAT:__unwindtable$??0MetaZoneIDsEnumeration@icu_56@@QAE@ABVUVector@1@@Z
	DD	2 DUP(00H)
	DD	2 DUP(00H)
	DD	00H
	DD	01H
; Function compile flags: /Odtp /RTCsu /ZI
xdata$x	ENDS
;	COMDAT ??0MetaZoneIDsEnumeration@icu_56@@QAE@ABVUVector@1@@Z
_TEXT	SEGMENT
_this$ = -20						; size = 4
__$EHRec$ = -12						; size = 12
_mzIDs$ = 8						; size = 4
??0MetaZoneIDsEnumeration@icu_56@@QAE@ABVUVector@1@@Z PROC ; icu_56::MetaZoneIDsEnumeration::MetaZoneIDsEnumeration, COMDAT
; _this$ = ecx
; Line 739
	push	ebp
	mov	ebp, esp
	push	-1
	push	__ehhandler$??0MetaZoneIDsEnumeration@icu_56@@QAE@ABVUVector@1@@Z
	mov	eax, DWORD PTR fs:0
	push	eax
	sub	esp, 204				; 000000ccH
	push	ebx
	push	esi
	push	edi
	push	ecx
	lea	edi, DWORD PTR [ebp-216]
	mov	ecx, 51					; 00000033H
	mov	eax, -858993460				; ccccccccH
	rep stosd
	pop	ecx
	mov	eax, DWORD PTR ___security_cookie
	xor	eax, ebp
	push	eax
	lea	eax, DWORD PTR __$EHRec$[ebp]
	mov	DWORD PTR fs:0, eax
	mov	DWORD PTR _this$[ebp], ecx
	mov	esi, esp
	mov	ecx, DWORD PTR _this$[ebp]
	call	DWORD PTR __imp_??0StringEnumeration@icu_56@@IAE@XZ
	cmp	esi, esp
	call	__RTC_CheckEsp
	mov	DWORD PTR __$EHRec$[ebp+8], 0
	mov	eax, DWORD PTR _this$[ebp]
	mov	DWORD PTR [eax], OFFSET ??_7MetaZoneIDsEnumeration@icu_56@@6B@
	mov	eax, DWORD PTR _this$[ebp]
	mov	DWORD PTR [eax+112], 0
	mov	eax, DWORD PTR _this$[ebp]
	mov	ecx, DWORD PTR _mzIDs$[ebp]
	mov	DWORD PTR [eax+116], ecx
	mov	eax, DWORD PTR _this$[ebp]
	mov	DWORD PTR [eax+120], 0
; Line 740
	mov	esi, esp
	mov	eax, DWORD PTR _this$[ebp]
	mov	ecx, DWORD PTR [eax+116]
	call	DWORD PTR __imp_?size@UVector@icu_56@@QBEHXZ
	cmp	esi, esp
	call	__RTC_CheckEsp
	mov	ecx, DWORD PTR _this$[ebp]
	mov	DWORD PTR [ecx+108], eax
; Line 741
	mov	DWORD PTR __$EHRec$[ebp+8], -1
	mov	eax, DWORD PTR _this$[ebp]
	mov	ecx, DWORD PTR __$EHRec$[ebp]
	mov	DWORD PTR fs:0, ecx
	pop	ecx
	pop	edi
	pop	esi
	pop	ebx
	add	esp, 216				; 000000d8H
	cmp	ebp, esp
	call	__RTC_CheckEsp
	mov	esp, ebp
	pop	ebp
	ret	4
_TEXT	ENDS
;	COMDAT text$x
text$x	SEGMENT
__unwindfunclet$??0MetaZoneIDsEnumeration@icu_56@@QAE@ABVUVector@1@@Z$0:
	mov	esi, esp
	mov	ecx, DWORD PTR _this$[ebp]
	call	DWORD PTR __imp_??1StringEnumeration@icu_56@@UAE@XZ
	cmp	esi, esp
	jmp	__RTC_CheckEsp
__ehhandler$??0MetaZoneIDsEnumeration@icu_56@@QAE@ABVUVector@1@@Z:
	mov	edx, DWORD PTR [esp+8]
	lea	eax, DWORD PTR [edx+12]
	mov	ecx, DWORD PTR [edx-220]
	xor	ecx, eax
	call	@__security_check_cookie@4
	mov	eax, OFFSET __ehfuncinfo$??0MetaZoneIDsEnumeration@icu_56@@QAE@ABVUVector@1@@Z
	jmp	___CxxFrameHandler3
text$x	ENDS
??0MetaZoneIDsEnumeration@icu_56@@QAE@ABVUVector@1@@Z ENDP ; icu_56::MetaZoneIDsEnumeration::MetaZoneIDsEnumeration
PUBLIC	??0MetaZoneIDsEnumeration@icu_56@@QAE@PAVUVector@1@@Z ; icu_56::MetaZoneIDsEnumeration::MetaZoneIDsEnumeration
;	COMDAT xdata$x
xdata$x	SEGMENT
__unwindtable$??0MetaZoneIDsEnumeration@icu_56@@QAE@PAVUVector@1@@Z DD 0ffffffffH
	DD	FLAT:__unwindfunclet$??0MetaZoneIDsEnumeration@icu_56@@QAE@PAVUVector@1@@Z$0
__ehfuncinfo$??0MetaZoneIDsEnumeration@icu_56@@QAE@PAVUVector@1@@Z DD 019930522H
	DD	01H
	DD	FLAT:__unwindtable$??0MetaZoneIDsEnumeration@icu_56@@QAE@PAVUVector@1@@Z
	DD	2 DUP(00H)
	DD	2 DUP(00H)
	DD	00H
	DD	01H
; Function compile flags: /Odtp /RTCsu /ZI
xdata$x	ENDS
;	COMDAT ??0MetaZoneIDsEnumeration@icu_56@@QAE@PAVUVector@1@@Z
_TEXT	SEGMENT
_this$ = -20						; size = 4
__$EHRec$ = -12						; size = 12
_mzIDs$ = 8						; size = 4
??0MetaZoneIDsEnumeration@icu_56@@QAE@PAVUVector@1@@Z PROC ; icu_56::MetaZoneIDsEnumeration::MetaZoneIDsEnumeration, COMDAT
; _this$ = ecx
; Line 744
	push	ebp
	mov	ebp, esp
	push	-1
	push	__ehhandler$??0MetaZoneIDsEnumeration@icu_56@@QAE@PAVUVector@1@@Z
	mov	eax, DWORD PTR fs:0
	push	eax
	sub	esp, 204				; 000000ccH
	push	ebx
	push	esi
	push	edi
	push	ecx
	lea	edi, DWORD PTR [ebp-216]
	mov	ecx, 51					; 00000033H
	mov	eax, -858993460				; ccccccccH
	rep stosd
	pop	ecx
	mov	eax, DWORD PTR ___security_cookie
	xor	eax, ebp
	push	eax
	lea	eax, DWORD PTR __$EHRec$[ebp]
	mov	DWORD PTR fs:0, eax
	mov	DWORD PTR _this$[ebp], ecx
	mov	esi, esp
	mov	ecx, DWORD PTR _this$[ebp]
	call	DWORD PTR __imp_??0StringEnumeration@icu_56@@IAE@XZ
	cmp	esi, esp
	call	__RTC_CheckEsp
	mov	DWORD PTR __$EHRec$[ebp+8], 0
	mov	eax, DWORD PTR _this$[ebp]
	mov	DWORD PTR [eax], OFFSET ??_7MetaZoneIDsEnumeration@icu_56@@6B@
	mov	eax, DWORD PTR _this$[ebp]
	mov	DWORD PTR [eax+108], 0
	mov	eax, DWORD PTR _this$[ebp]
	mov	DWORD PTR [eax+112], 0
	mov	eax, DWORD PTR _this$[ebp]
	mov	ecx, DWORD PTR _mzIDs$[ebp]
	mov	DWORD PTR [eax+116], ecx
	mov	eax, DWORD PTR _this$[ebp]
	mov	ecx, DWORD PTR _mzIDs$[ebp]
	mov	DWORD PTR [eax+120], ecx
; Line 745
	mov	eax, DWORD PTR _this$[ebp]
	cmp	DWORD PTR [eax+116], 0
	je	SHORT $LN2@MetaZoneID
; Line 746
	mov	esi, esp
	mov	eax, DWORD PTR _this$[ebp]
	mov	ecx, DWORD PTR [eax+116]
	call	DWORD PTR __imp_?size@UVector@icu_56@@QBEHXZ
	cmp	esi, esp
	call	__RTC_CheckEsp
	mov	ecx, DWORD PTR _this$[ebp]
	mov	DWORD PTR [ecx+108], eax
$LN2@MetaZoneID:
; Line 748
	mov	DWORD PTR __$EHRec$[ebp+8], -1
	mov	eax, DWORD PTR _this$[ebp]
	mov	ecx, DWORD PTR __$EHRec$[ebp]
	mov	DWORD PTR fs:0, ecx
	pop	ecx
	pop	edi
	pop	esi
	pop	ebx
	add	esp, 216				; 000000d8H
	cmp	ebp, esp
	call	__RTC_CheckEsp
	mov	esp, ebp
	pop	ebp
	ret	4
_TEXT	ENDS
;	COMDAT text$x
text$x	SEGMENT
__unwindfunclet$??0MetaZoneIDsEnumeration@icu_56@@QAE@PAVUVector@1@@Z$0:
	mov	esi, esp
	mov	ecx, DWORD PTR _this$[ebp]
	call	DWORD PTR __imp_??1StringEnumeration@icu_56@@UAE@XZ
	cmp	esi, esp
	jmp	__RTC_CheckEsp
__ehhandler$??0MetaZoneIDsEnumeration@icu_56@@QAE@PAVUVector@1@@Z:
	mov	edx, DWORD PTR [esp+8]
	lea	eax, DWORD PTR [edx+12]
	mov	ecx, DWORD PTR [edx-220]
	xor	ecx, eax
	call	@__security_check_cookie@4
	mov	eax, OFFSET __ehfuncinfo$??0MetaZoneIDsEnumeration@icu_56@@QAE@PAVUVector@1@@Z
	jmp	___CxxFrameHandler3
text$x	ENDS
??0MetaZoneIDsEnumeration@icu_56@@QAE@PAVUVector@1@@Z ENDP ; icu_56::MetaZoneIDsEnumeration::MetaZoneIDsEnumeration
EXTRN	__imp_?setTo@UnicodeString@icu_56@@QAEAAV12@PB_WH@Z:PROC
; Function compile flags: /Odtp /RTCsu /ZI
;	COMDAT ?snext@MetaZoneIDsEnumeration@icu_56@@UAEPBVUnicodeString@2@AAW4UErrorCode@@@Z
_TEXT	SEGMENT
tv88 = -208						; size = 4
_this$ = -8						; size = 4
_status$ = 8						; size = 4
?snext@MetaZoneIDsEnumeration@icu_56@@UAEPBVUnicodeString@2@AAW4UErrorCode@@@Z PROC ; icu_56::MetaZoneIDsEnumeration::snext, COMDAT
; _this$ = ecx
; Line 751
	push	ebp
	mov	ebp, esp
	sub	esp, 208				; 000000d0H
	push	ebx
	push	esi
	push	edi
	push	ecx
	lea	edi, DWORD PTR [ebp-208]
	mov	ecx, 52					; 00000034H
	mov	eax, -858993460				; ccccccccH
	rep stosd
	pop	ecx
	mov	DWORD PTR _this$[ebp], ecx
; Line 752
	mov	eax, DWORD PTR _status$[ebp]
	mov	ecx, DWORD PTR [eax]
	push	ecx
	call	?U_SUCCESS@@YACW4UErrorCode@@@Z		; U_SUCCESS
	add	esp, 4
	movsx	edx, al
	test	edx, edx
	je	SHORT $LN1@snext
	mov	eax, DWORD PTR _this$[ebp]
	cmp	DWORD PTR [eax+116], 0
	je	SHORT $LN1@snext
	mov	eax, DWORD PTR _this$[ebp]
	mov	ecx, DWORD PTR _this$[ebp]
	mov	edx, DWORD PTR [eax+112]
	cmp	edx, DWORD PTR [ecx+108]
	jge	SHORT $LN1@snext
; Line 753
	mov	eax, DWORD PTR _this$[ebp]
	mov	ecx, DWORD PTR [eax+112]
	mov	DWORD PTR tv88[ebp], ecx
	mov	edx, DWORD PTR _this$[ebp]
	mov	eax, DWORD PTR [edx+112]
	add	eax, 1
	mov	ecx, DWORD PTR _this$[ebp]
	mov	DWORD PTR [ecx+112], eax
	mov	esi, esp
	push	-1
	mov	edi, esp
	mov	edx, DWORD PTR tv88[ebp]
	push	edx
	mov	eax, DWORD PTR _this$[ebp]
	mov	ecx, DWORD PTR [eax+116]
	call	DWORD PTR __imp_?elementAt@UVector@icu_56@@QBEPAXH@Z
	cmp	edi, esp
	call	__RTC_CheckEsp
	push	eax
	mov	ecx, DWORD PTR _this$[ebp]
	add	ecx, 4
	call	DWORD PTR __imp_?setTo@UnicodeString@icu_56@@QAEAAV12@PB_WH@Z
	cmp	esi, esp
	call	__RTC_CheckEsp
; Line 754
	mov	eax, DWORD PTR _this$[ebp]
	add	eax, 4
	jmp	SHORT $LN2@snext
$LN1@snext:
; Line 756
	xor	eax, eax
$LN2@snext:
; Line 757
	pop	edi
	pop	esi
	pop	ebx
	add	esp, 208				; 000000d0H
	cmp	ebp, esp
	call	__RTC_CheckEsp
	mov	esp, ebp
	pop	ebp
	ret	4
?snext@MetaZoneIDsEnumeration@icu_56@@UAEPBVUnicodeString@2@AAW4UErrorCode@@@Z ENDP ; icu_56::MetaZoneIDsEnumeration::snext
; Function compile flags: /Odtp /RTCsu /ZI
_TEXT	ENDS
;	COMDAT ?reset@MetaZoneIDsEnumeration@icu_56@@UAEXAAW4UErrorCode@@@Z
_TEXT	SEGMENT
_this$ = -8						; size = 4
___formal$ = 8						; size = 4
?reset@MetaZoneIDsEnumeration@icu_56@@UAEXAAW4UErrorCode@@@Z PROC ; icu_56::MetaZoneIDsEnumeration::reset, COMDAT
; _this$ = ecx
; Line 760
	push	ebp
	mov	ebp, esp
	sub	esp, 204				; 000000ccH
	push	ebx
	push	esi
	push	edi
	push	ecx
	lea	edi, DWORD PTR [ebp-204]
	mov	ecx, 51					; 00000033H
	mov	eax, -858993460				; ccccccccH
	rep stosd
	pop	ecx
	mov	DWORD PTR _this$[ebp], ecx
; Line 761
	mov	eax, DWORD PTR _this$[ebp]
	mov	DWORD PTR [eax+112], 0
; Line 762
	pop	edi
	pop	esi
	pop	ebx
	mov	esp, ebp
	pop	ebp
	ret	4
?reset@MetaZoneIDsEnumeration@icu_56@@UAEXAAW4UErrorCode@@@Z ENDP ; icu_56::MetaZoneIDsEnumeration::reset
; Function compile flags: /Odtp /RTCsu /ZI
_TEXT	ENDS
;	COMDAT ?count@MetaZoneIDsEnumeration@icu_56@@UBEHAAW4UErrorCode@@@Z
_TEXT	SEGMENT
_this$ = -8						; size = 4
___formal$ = 8						; size = 4
?count@MetaZoneIDsEnumeration@icu_56@@UBEHAAW4UErrorCode@@@Z PROC ; icu_56::MetaZoneIDsEnumeration::count, COMDAT
; _this$ = ecx
; Line 765
	push	ebp
	mov	ebp, esp
	sub	esp, 204				; 000000ccH
	push	ebx
	push	esi
	push	edi
	push	ecx
	lea	edi, DWORD PTR [ebp-204]
	mov	ecx, 51					; 00000033H
	mov	eax, -858993460				; ccccccccH
	rep stosd
	pop	ecx
	mov	DWORD PTR _this$[ebp], ecx
; Line 766
	mov	eax, DWORD PTR _this$[ebp]
	mov	eax, DWORD PTR [eax+108]
; Line 767
	pop	edi
	pop	esi
	pop	ebx
	mov	esp, ebp
	pop	ebp
	ret	4
?count@MetaZoneIDsEnumeration@icu_56@@UBEHAAW4UErrorCode@@@Z ENDP ; icu_56::MetaZoneIDsEnumeration::count
_TEXT	ENDS
;	COMDAT xdata$x
xdata$x	SEGMENT
__unwindtable$??1MetaZoneIDsEnumeration@icu_56@@UAE@XZ DD 0ffffffffH
	DD	FLAT:__unwindfunclet$??1MetaZoneIDsEnumeration@icu_56@@UAE@XZ$0
__ehfuncinfo$??1MetaZoneIDsEnumeration@icu_56@@UAE@XZ DD 019930522H
	DD	01H
	DD	FLAT:__unwindtable$??1MetaZoneIDsEnumeration@icu_56@@UAE@XZ
	DD	2 DUP(00H)
	DD	2 DUP(00H)
	DD	00H
	DD	01H
; Function compile flags: /Odtp /RTCsu /ZI
xdata$x	ENDS
;	COMDAT ??1MetaZoneIDsEnumeration@icu_56@@UAE@XZ
_TEXT	SEGMENT
tv87 = -244						; size = 4
$T80058 = -236						; size = 4
$T80059 = -224						; size = 4
_this$ = -20						; size = 4
__$EHRec$ = -12						; size = 12
??1MetaZoneIDsEnumeration@icu_56@@UAE@XZ PROC		; icu_56::MetaZoneIDsEnumeration::~MetaZoneIDsEnumeration, COMDAT
; _this$ = ecx
; Line 769
	push	ebp
	mov	ebp, esp
	push	-1
	push	__ehhandler$??1MetaZoneIDsEnumeration@icu_56@@UAE@XZ
	mov	eax, DWORD PTR fs:0
	push	eax
	sub	esp, 232				; 000000e8H
	push	ebx
	push	esi
	push	edi
	push	ecx
	lea	edi, DWORD PTR [ebp-244]
	mov	ecx, 58					; 0000003aH
	mov	eax, -858993460				; ccccccccH
	rep stosd
	pop	ecx
	mov	eax, DWORD PTR ___security_cookie
	xor	eax, ebp
	push	eax
	lea	eax, DWORD PTR __$EHRec$[ebp]
	mov	DWORD PTR fs:0, eax
	mov	DWORD PTR _this$[ebp], ecx
	mov	eax, DWORD PTR _this$[ebp]
	mov	DWORD PTR [eax], OFFSET ??_7MetaZoneIDsEnumeration@icu_56@@6B@
	mov	DWORD PTR __$EHRec$[ebp+8], 0
; Line 770
	mov	eax, DWORD PTR _this$[ebp]
	cmp	DWORD PTR [eax+120], 0
	je	SHORT $LN2@MetaZoneID@2
; Line 771
	mov	eax, DWORD PTR _this$[ebp]
	mov	ecx, DWORD PTR [eax+120]
	mov	DWORD PTR $T80059[ebp], ecx
	mov	edx, DWORD PTR $T80059[ebp]
	mov	DWORD PTR $T80058[ebp], edx
	cmp	DWORD PTR $T80058[ebp], 0
	je	SHORT $LN4@MetaZoneID@2
	mov	esi, esp
	push	1
	mov	eax, DWORD PTR $T80058[ebp]
	mov	edx, DWORD PTR [eax]
	mov	ecx, DWORD PTR $T80058[ebp]
	mov	eax, DWORD PTR [edx]
	call	eax
	cmp	esi, esp
	call	__RTC_CheckEsp
	mov	DWORD PTR tv87[ebp], eax
	jmp	SHORT $LN2@MetaZoneID@2
$LN4@MetaZoneID@2:
	mov	DWORD PTR tv87[ebp], 0
$LN2@MetaZoneID@2:
; Line 773
	mov	DWORD PTR __$EHRec$[ebp+8], -1
	mov	esi, esp
	mov	ecx, DWORD PTR _this$[ebp]
	call	DWORD PTR __imp_??1StringEnumeration@icu_56@@UAE@XZ
	cmp	esi, esp
	call	__RTC_CheckEsp
	mov	ecx, DWORD PTR __$EHRec$[ebp]
	mov	DWORD PTR fs:0, ecx
	pop	ecx
	pop	edi
	pop	esi
	pop	ebx
	add	esp, 244				; 000000f4H
	cmp	ebp, esp
	call	__RTC_CheckEsp
	mov	esp, ebp
	pop	ebp
	ret	0
_TEXT	ENDS
;	COMDAT text$x
text$x	SEGMENT
__unwindfunclet$??1MetaZoneIDsEnumeration@icu_56@@UAE@XZ$0:
	mov	esi, esp
	mov	ecx, DWORD PTR _this$[ebp]
	call	DWORD PTR __imp_??1StringEnumeration@icu_56@@UAE@XZ
	cmp	esi, esp
	jmp	__RTC_CheckEsp
__ehhandler$??1MetaZoneIDsEnumeration@icu_56@@UAE@XZ:
	mov	edx, DWORD PTR [esp+8]
	lea	eax, DWORD PTR [edx+12]
	mov	ecx, DWORD PTR [edx-248]
	xor	ecx, eax
	call	@__security_check_cookie@4
	mov	eax, OFFSET __ehfuncinfo$??1MetaZoneIDsEnumeration@icu_56@@UAE@XZ
	jmp	___CxxFrameHandler3
text$x	ENDS
??1MetaZoneIDsEnumeration@icu_56@@UAE@XZ ENDP		; icu_56::MetaZoneIDsEnumeration::~MetaZoneIDsEnumeration
PUBLIC	??_7ZNameSearchHandler@icu_56@@6B@		; icu_56::ZNameSearchHandler::`vftable'
PUBLIC	??0TextTrieMapSearchResultHandler@icu_56@@QAE@XZ ; icu_56::TextTrieMapSearchResultHandler::TextTrieMapSearchResultHandler
PUBLIC	??0ZNameSearchHandler@icu_56@@QAE@I@Z		; icu_56::ZNameSearchHandler::ZNameSearchHandler
PUBLIC	??_R4ZNameSearchHandler@icu_56@@6B@		; icu_56::ZNameSearchHandler::`RTTI Complete Object Locator'
PUBLIC	??_R0?AVZNameSearchHandler@icu_56@@@8		; icu_56::ZNameSearchHandler `RTTI Type Descriptor'
PUBLIC	??_R3ZNameSearchHandler@icu_56@@8		; icu_56::ZNameSearchHandler::`RTTI Class Hierarchy Descriptor'
PUBLIC	??_R2ZNameSearchHandler@icu_56@@8		; icu_56::ZNameSearchHandler::`RTTI Base Class Array'
PUBLIC	??_R1A@?0A@EA@ZNameSearchHandler@icu_56@@8	; icu_56::ZNameSearchHandler::`RTTI Base Class Descriptor at (0,-1,0,64)'
PUBLIC	?handleMatch@ZNameSearchHandler@icu_56@@UAECHPBUCharacterNode@2@AAW4UErrorCode@@@Z ; icu_56::ZNameSearchHandler::handleMatch
EXTRN	??_EZNameSearchHandler@icu_56@@UAEPAXI@Z:PROC	; icu_56::ZNameSearchHandler::`vector deleting destructor'
;	COMDAT ??_R1A@?0A@EA@ZNameSearchHandler@icu_56@@8
rdata$r	SEGMENT
??_R1A@?0A@EA@ZNameSearchHandler@icu_56@@8 DD FLAT:??_R0?AVZNameSearchHandler@icu_56@@@8 ; icu_56::ZNameSearchHandler::`RTTI Base Class Descriptor at (0,-1,0,64)'
	DD	02H
	DD	00H
	DD	0ffffffffH
	DD	00H
	DD	040H
	DD	FLAT:??_R3ZNameSearchHandler@icu_56@@8
rdata$r	ENDS
;	COMDAT ??_R2ZNameSearchHandler@icu_56@@8
rdata$r	SEGMENT
??_R2ZNameSearchHandler@icu_56@@8 DD FLAT:??_R1A@?0A@EA@ZNameSearchHandler@icu_56@@8 ; icu_56::ZNameSearchHandler::`RTTI Base Class Array'
	DD	FLAT:??_R1A@?0A@EA@TextTrieMapSearchResultHandler@icu_56@@8
	DD	FLAT:??_R13?0A@EA@UMemory@icu_56@@8
rdata$r	ENDS
;	COMDAT ??_R3ZNameSearchHandler@icu_56@@8
rdata$r	SEGMENT
??_R3ZNameSearchHandler@icu_56@@8 DD 00H		; icu_56::ZNameSearchHandler::`RTTI Class Hierarchy Descriptor'
	DD	00H
	DD	03H
	DD	FLAT:??_R2ZNameSearchHandler@icu_56@@8
rdata$r	ENDS
;	COMDAT ??_R0?AVZNameSearchHandler@icu_56@@@8
_DATA	SEGMENT
??_R0?AVZNameSearchHandler@icu_56@@@8 DD FLAT:??_7type_info@@6B@ ; icu_56::ZNameSearchHandler `RTTI Type Descriptor'
	DD	00H
	DB	'.?AVZNameSearchHandler@icu_56@@', 00H
_DATA	ENDS
;	COMDAT ??_R4ZNameSearchHandler@icu_56@@6B@
rdata$r	SEGMENT
??_R4ZNameSearchHandler@icu_56@@6B@ DD 00H		; icu_56::ZNameSearchHandler::`RTTI Complete Object Locator'
	DD	00H
	DD	00H
	DD	FLAT:??_R0?AVZNameSearchHandler@icu_56@@@8
	DD	FLAT:??_R3ZNameSearchHandler@icu_56@@8
rdata$r	ENDS
;	COMDAT ??_7ZNameSearchHandler@icu_56@@6B@
CONST	SEGMENT
??_7ZNameSearchHandler@icu_56@@6B@ DD FLAT:??_R4ZNameSearchHandler@icu_56@@6B@ ; icu_56::ZNameSearchHandler::`vftable'
	DD	FLAT:?handleMatch@ZNameSearchHandler@icu_56@@UAECHPBUCharacterNode@2@AAW4UErrorCode@@@Z
	DD	FLAT:??_EZNameSearchHandler@icu_56@@UAEPAXI@Z
; Function compile flags: /Odtp /RTCsu /ZI
CONST	ENDS
;	COMDAT ??0ZNameSearchHandler@icu_56@@QAE@I@Z
_TEXT	SEGMENT
_this$ = -8						; size = 4
_types$ = 8						; size = 4
??0ZNameSearchHandler@icu_56@@QAE@I@Z PROC		; icu_56::ZNameSearchHandler::ZNameSearchHandler, COMDAT
; _this$ = ecx
; Line 813
	push	ebp
	mov	ebp, esp
	sub	esp, 204				; 000000ccH
	push	ebx
	push	esi
	push	edi
	push	ecx
	lea	edi, DWORD PTR [ebp-204]
	mov	ecx, 51					; 00000033H
	mov	eax, -858993460				; ccccccccH
	rep stosd
	pop	ecx
	mov	DWORD PTR _this$[ebp], ecx
	mov	ecx, DWORD PTR _this$[ebp]
	call	??0TextTrieMapSearchResultHandler@icu_56@@QAE@XZ
	mov	eax, DWORD PTR _this$[ebp]
	mov	DWORD PTR [eax], OFFSET ??_7ZNameSearchHandler@icu_56@@6B@
	mov	eax, DWORD PTR _this$[ebp]
	mov	ecx, DWORD PTR _types$[ebp]
	mov	DWORD PTR [eax+4], ecx
	mov	eax, DWORD PTR _this$[ebp]
	mov	DWORD PTR [eax+8], 0
	mov	eax, DWORD PTR _this$[ebp]
	mov	DWORD PTR [eax+12], 0
; Line 814
	mov	eax, DWORD PTR _this$[ebp]
	pop	edi
	pop	esi
	pop	ebx
	add	esp, 204				; 000000ccH
	cmp	ebp, esp
	call	__RTC_CheckEsp
	mov	esp, ebp
	pop	ebp
	ret	4
??0ZNameSearchHandler@icu_56@@QAE@I@Z ENDP		; icu_56::ZNameSearchHandler::ZNameSearchHandler
_TEXT	ENDS
PUBLIC	??1ZNameSearchHandler@icu_56@@UAE@XZ		; icu_56::ZNameSearchHandler::~ZNameSearchHandler
; Function compile flags: /Odtp /RTCsu /ZI
;	COMDAT ??_GZNameSearchHandler@icu_56@@UAEPAXI@Z
_TEXT	SEGMENT
_this$ = -8						; size = 4
___flags$ = 8						; size = 4
??_GZNameSearchHandler@icu_56@@UAEPAXI@Z PROC		; icu_56::ZNameSearchHandler::`scalar deleting destructor', COMDAT
; _this$ = ecx
	push	ebp
	mov	ebp, esp
	sub	esp, 204				; 000000ccH
	push	ebx
	push	esi
	push	edi
	push	ecx
	lea	edi, DWORD PTR [ebp-204]
	mov	ecx, 51					; 00000033H
	mov	eax, -858993460				; ccccccccH
	rep stosd
	pop	ecx
	mov	DWORD PTR _this$[ebp], ecx
	mov	ecx, DWORD PTR _this$[ebp]
	call	??1ZNameSearchHandler@icu_56@@UAE@XZ	; icu_56::ZNameSearchHandler::~ZNameSearchHandler
	mov	eax, DWORD PTR ___flags$[ebp]
	and	eax, 1
	je	SHORT $LN1@scalar@9
	mov	esi, esp
	mov	eax, DWORD PTR _this$[ebp]
	push	eax
	call	DWORD PTR __imp_??3UMemory@icu_56@@SAXPAX@Z
	add	esp, 4
	cmp	esi, esp
	call	__RTC_CheckEsp
$LN1@scalar@9:
	mov	eax, DWORD PTR _this$[ebp]
	pop	edi
	pop	esi
	pop	ebx
	add	esp, 204				; 000000ccH
	cmp	ebp, esp
	call	__RTC_CheckEsp
	mov	esp, ebp
	pop	ebp
	ret	4
??_GZNameSearchHandler@icu_56@@UAEPAXI@Z ENDP		; icu_56::ZNameSearchHandler::`scalar deleting destructor'
; Function compile flags: /Odtp /RTCsu /ZI
_TEXT	ENDS
;	COMDAT ??0TextTrieMapSearchResultHandler@icu_56@@QAE@XZ
_TEXT	SEGMENT
_this$ = -8						; size = 4
??0TextTrieMapSearchResultHandler@icu_56@@QAE@XZ PROC	; icu_56::TextTrieMapSearchResultHandler::TextTrieMapSearchResultHandler, COMDAT
; _this$ = ecx
	push	ebp
	mov	ebp, esp
	sub	esp, 204				; 000000ccH
	push	ebx
	push	esi
	push	edi
	push	ecx
	lea	edi, DWORD PTR [ebp-204]
	mov	ecx, 51					; 00000033H
	mov	eax, -858993460				; ccccccccH
	rep stosd
	pop	ecx
	mov	DWORD PTR _this$[ebp], ecx
	mov	eax, DWORD PTR _this$[ebp]
	mov	DWORD PTR [eax], OFFSET ??_7TextTrieMapSearchResultHandler@icu_56@@6B@
	mov	eax, DWORD PTR _this$[ebp]
	pop	edi
	pop	esi
	pop	ebx
	mov	esp, ebp
	pop	ebp
	ret	0
??0TextTrieMapSearchResultHandler@icu_56@@QAE@XZ ENDP	; icu_56::TextTrieMapSearchResultHandler::TextTrieMapSearchResultHandler
_TEXT	ENDS
;	COMDAT xdata$x
xdata$x	SEGMENT
__unwindtable$??1ZNameSearchHandler@icu_56@@UAE@XZ DD 0ffffffffH
	DD	FLAT:__unwindfunclet$??1ZNameSearchHandler@icu_56@@UAE@XZ$0
__ehfuncinfo$??1ZNameSearchHandler@icu_56@@UAE@XZ DD 019930522H
	DD	01H
	DD	FLAT:__unwindtable$??1ZNameSearchHandler@icu_56@@UAE@XZ
	DD	2 DUP(00H)
	DD	2 DUP(00H)
	DD	00H
	DD	01H
; Function compile flags: /Odtp /RTCsu /ZI
xdata$x	ENDS
;	COMDAT ??1ZNameSearchHandler@icu_56@@UAE@XZ
_TEXT	SEGMENT
tv83 = -244						; size = 4
$T80078 = -236						; size = 4
$T80079 = -224						; size = 4
_this$ = -20						; size = 4
__$EHRec$ = -12						; size = 12
??1ZNameSearchHandler@icu_56@@UAE@XZ PROC		; icu_56::ZNameSearchHandler::~ZNameSearchHandler, COMDAT
; _this$ = ecx
; Line 816
	push	ebp
	mov	ebp, esp
	push	-1
	push	__ehhandler$??1ZNameSearchHandler@icu_56@@UAE@XZ
	mov	eax, DWORD PTR fs:0
	push	eax
	sub	esp, 232				; 000000e8H
	push	ebx
	push	esi
	push	edi
	push	ecx
	lea	edi, DWORD PTR [ebp-244]
	mov	ecx, 58					; 0000003aH
	mov	eax, -858993460				; ccccccccH
	rep stosd
	pop	ecx
	mov	eax, DWORD PTR ___security_cookie
	xor	eax, ebp
	push	eax
	lea	eax, DWORD PTR __$EHRec$[ebp]
	mov	DWORD PTR fs:0, eax
	mov	DWORD PTR _this$[ebp], ecx
	mov	eax, DWORD PTR _this$[ebp]
	mov	DWORD PTR [eax], OFFSET ??_7ZNameSearchHandler@icu_56@@6B@
	mov	DWORD PTR __$EHRec$[ebp+8], 0
; Line 817
	mov	eax, DWORD PTR _this$[ebp]
	cmp	DWORD PTR [eax+12], 0
	je	SHORT $LN2@ZNameSearc
; Line 818
	mov	eax, DWORD PTR _this$[ebp]
	mov	ecx, DWORD PTR [eax+12]
	mov	DWORD PTR $T80079[ebp], ecx
	mov	edx, DWORD PTR $T80079[ebp]
	mov	DWORD PTR $T80078[ebp], edx
	cmp	DWORD PTR $T80078[ebp], 0
	je	SHORT $LN4@ZNameSearc
	mov	esi, esp
	push	1
	mov	eax, DWORD PTR $T80078[ebp]
	mov	edx, DWORD PTR [eax]
	mov	ecx, DWORD PTR $T80078[ebp]
	mov	eax, DWORD PTR [edx]
	call	eax
	cmp	esi, esp
	call	__RTC_CheckEsp
	mov	DWORD PTR tv83[ebp], eax
	jmp	SHORT $LN2@ZNameSearc
$LN4@ZNameSearc:
	mov	DWORD PTR tv83[ebp], 0
$LN2@ZNameSearc:
; Line 820
	mov	DWORD PTR __$EHRec$[ebp+8], -1
	mov	ecx, DWORD PTR _this$[ebp]
	call	??1TextTrieMapSearchResultHandler@icu_56@@UAE@XZ ; icu_56::TextTrieMapSearchResultHandler::~TextTrieMapSearchResultHandler
	mov	ecx, DWORD PTR __$EHRec$[ebp]
	mov	DWORD PTR fs:0, ecx
	pop	ecx
	pop	edi
	pop	esi
	pop	ebx
	add	esp, 244				; 000000f4H
	cmp	ebp, esp
	call	__RTC_CheckEsp
	mov	esp, ebp
	pop	ebp
	ret	0
_TEXT	ENDS
;	COMDAT text$x
text$x	SEGMENT
__unwindfunclet$??1ZNameSearchHandler@icu_56@@UAE@XZ$0:
	mov	ecx, DWORD PTR _this$[ebp]
	jmp	??1TextTrieMapSearchResultHandler@icu_56@@UAE@XZ ; icu_56::TextTrieMapSearchResultHandler::~TextTrieMapSearchResultHandler
__ehhandler$??1ZNameSearchHandler@icu_56@@UAE@XZ:
	mov	edx, DWORD PTR [esp+8]
	lea	eax, DWORD PTR [edx+12]
	mov	ecx, DWORD PTR [edx-248]
	xor	ecx, eax
	call	@__security_check_cookie@4
	mov	eax, OFFSET __ehfuncinfo$??1ZNameSearchHandler@icu_56@@UAE@XZ
	jmp	___CxxFrameHandler3
text$x	ENDS
??1ZNameSearchHandler@icu_56@@UAE@XZ ENDP		; icu_56::ZNameSearchHandler::~ZNameSearchHandler
PUBLIC	??_C@_1BO@CIFBJKAC@?$AAn?$AAa?$AAm?$AAe?$AAi?$AAn?$AAf?$AAo?$AA?9?$AA?$DO?$AAm?$AAz?$AAI?$AAD?$AA?$AA@ ; `string'
PUBLIC	??_C@_1BM@GLIEOHGO@?$AAf?$AAR?$AAe?$AAs?$AAu?$AAl?$AAt?$AAs?$AA?5?$AA?$CB?$AA?$DN?$AA?5?$AA0?$AA?$AA@ ; `string'
PUBLIC	?__LINE__Var@?1??handleMatch@ZNameSearchHandler@icu_56@@UAECHPBUCharacterNode@3@AAW4UErrorCode@@@Z@4JA ; `icu_56::ZNameSearchHandler::handleMatch'::`2'::__LINE__Var
PUBLIC	?getValue@CharacterNode@icu_56@@QBEPBXH@Z	; icu_56::CharacterNode::getValue
PUBLIC	?countValues@CharacterNode@icu_56@@QBEHXZ	; icu_56::CharacterNode::countValues
PUBLIC	__$ArrayPad$
EXTRN	?addMetaZone@MatchInfoCollection@TimeZoneNames@icu_56@@QAEXW4UTimeZoneNameType@@HABVUnicodeString@3@AAW4UErrorCode@@@Z:PROC ; icu_56::TimeZoneNames::MatchInfoCollection::addMetaZone
EXTRN	?addZone@MatchInfoCollection@TimeZoneNames@icu_56@@QAEXW4UTimeZoneNameType@@HABVUnicodeString@3@AAW4UErrorCode@@@Z:PROC ; icu_56::TimeZoneNames::MatchInfoCollection::addZone
EXTRN	__imp_??0UnicodeString@icu_56@@QAE@PB_WH@Z:PROC
EXTRN	??0MatchInfoCollection@TimeZoneNames@icu_56@@QAE@XZ:PROC ; icu_56::TimeZoneNames::MatchInfoCollection::MatchInfoCollection
;	COMDAT ??_C@_1BO@CIFBJKAC@?$AAn?$AAa?$AAm?$AAe?$AAi?$AAn?$AAf?$AAo?$AA?9?$AA?$DO?$AAm?$AAz?$AAI?$AAD?$AA?$AA@
CONST	SEGMENT
??_C@_1BO@CIFBJKAC@?$AAn?$AAa?$AAm?$AAe?$AAi?$AAn?$AAf?$AAo?$AA?9?$AA?$DO?$AAm?$AAz?$AAI?$AAD?$AA?$AA@ DB 'n'
	DB	00H, 'a', 00H, 'm', 00H, 'e', 00H, 'i', 00H, 'n', 00H, 'f', 00H
	DB	'o', 00H, '-', 00H, '>', 00H, 'm', 00H, 'z', 00H, 'I', 00H, 'D'
	DB	00H, 00H, 00H				; `string'
CONST	ENDS
;	COMDAT ??_C@_1BM@GLIEOHGO@?$AAf?$AAR?$AAe?$AAs?$AAu?$AAl?$AAt?$AAs?$AA?5?$AA?$CB?$AA?$DN?$AA?5?$AA0?$AA?$AA@
CONST	SEGMENT
??_C@_1BM@GLIEOHGO@?$AAf?$AAR?$AAe?$AAs?$AAu?$AAl?$AAt?$AAs?$AA?5?$AA?$CB?$AA?$DN?$AA?5?$AA0?$AA?$AA@ DB 'f'
	DB	00H, 'R', 00H, 'e', 00H, 's', 00H, 'u', 00H, 'l', 00H, 't', 00H
	DB	's', 00H, ' ', 00H, '!', 00H, '=', 00H, ' ', 00H, '0', 00H, 00H
	DB	00H						; `string'
CONST	ENDS
;	COMDAT ?__LINE__Var@?1??handleMatch@ZNameSearchHandler@icu_56@@UAECHPBUCharacterNode@3@AAW4UErrorCode@@@Z@4JA
_DATA	SEGMENT
?__LINE__Var@?1??handleMatch@ZNameSearchHandler@icu_56@@UAECHPBUCharacterNode@3@AAW4UErrorCode@@@Z@4JA DD 0337H ; `icu_56::ZNameSearchHandler::handleMatch'::`2'::__LINE__Var
_DATA	ENDS
;	COMDAT xdata$x
xdata$x	SEGMENT
__unwindtable$?handleMatch@ZNameSearchHandler@icu_56@@UAECHPBUCharacterNode@2@AAW4UErrorCode@@@Z DD 0ffffffffH
	DD	FLAT:__unwindfunclet$?handleMatch@ZNameSearchHandler@icu_56@@UAECHPBUCharacterNode@2@AAW4UErrorCode@@@Z$0
	DD	0ffffffffH
	DD	FLAT:__unwindfunclet$?handleMatch@ZNameSearchHandler@icu_56@@UAECHPBUCharacterNode@2@AAW4UErrorCode@@@Z$1
	DD	0ffffffffH
	DD	FLAT:__unwindfunclet$?handleMatch@ZNameSearchHandler@icu_56@@UAECHPBUCharacterNode@2@AAW4UErrorCode@@@Z$2
__ehfuncinfo$?handleMatch@ZNameSearchHandler@icu_56@@UAECHPBUCharacterNode@2@AAW4UErrorCode@@@Z DD 019930522H
	DD	03H
	DD	FLAT:__unwindtable$?handleMatch@ZNameSearchHandler@icu_56@@UAECHPBUCharacterNode@2@AAW4UErrorCode@@@Z
	DD	2 DUP(00H)
	DD	2 DUP(00H)
	DD	00H
	DD	01H
; Function compile flags: /Odtp /RTCsu /ZI
xdata$x	ENDS
;	COMDAT ?handleMatch@ZNameSearchHandler@icu_56@@UAECHPBUCharacterNode@2@AAW4UErrorCode@@@Z
_TEXT	SEGMENT
tv184 = -432						; size = 4
tv182 = -432						; size = 4
tv191 = -428						; size = 4
tv188 = -428						; size = 4
tv93 = -428						; size = 4
$T71886 = -420						; size = 64
$T71890 = -348						; size = 64
$T80092 = -276						; size = 4
$T80093 = -264						; size = 4
_nameinfo$71871 = -60					; size = 4
_i$71867 = -48						; size = 4
_valuesCount$71866 = -36				; size = 4
_this$ = -24						; size = 4
__$ArrayPad$ = -16					; size = 4
__$EHRec$ = -12						; size = 12
_matchLength$ = 8					; size = 4
_node$ = 12						; size = 4
_status$ = 16						; size = 4
?handleMatch@ZNameSearchHandler@icu_56@@UAECHPBUCharacterNode@2@AAW4UErrorCode@@@Z PROC ; icu_56::ZNameSearchHandler::handleMatch, COMDAT
; _this$ = ecx
; Line 823
	push	ebp
	mov	ebp, esp
	push	-1
	push	__ehhandler$?handleMatch@ZNameSearchHandler@icu_56@@UAECHPBUCharacterNode@2@AAW4UErrorCode@@@Z
	mov	eax, DWORD PTR fs:0
	push	eax
	sub	esp, 420				; 000001a4H
	push	ebx
	push	esi
	push	edi
	push	ecx
	lea	edi, DWORD PTR [ebp-432]
	mov	ecx, 105				; 00000069H
	mov	eax, -858993460				; ccccccccH
	rep stosd
	pop	ecx
	mov	eax, DWORD PTR ___security_cookie
	xor	eax, ebp
	mov	DWORD PTR __$ArrayPad$[ebp], eax
	push	eax
	lea	eax, DWORD PTR __$EHRec$[ebp]
	mov	DWORD PTR fs:0, eax
	mov	DWORD PTR _this$[ebp], ecx
; Line 824
	mov	eax, DWORD PTR _status$[ebp]
	mov	ecx, DWORD PTR [eax]
	push	ecx
	call	?U_FAILURE@@YACW4UErrorCode@@@Z		; U_FAILURE
	add	esp, 4
	movsx	edx, al
	test	edx, edx
	je	SHORT $LN13@handleMatc
; Line 825
	xor	al, al
	jmp	$LN14@handleMatc
$LN13@handleMatc:
; Line 827
	mov	ecx, DWORD PTR _node$[ebp]
	call	?hasValues@CharacterNode@icu_56@@QBECXZ	; icu_56::CharacterNode::hasValues
	movsx	eax, al
	test	eax, eax
	je	$LN12@handleMatc
; Line 828
	mov	ecx, DWORD PTR _node$[ebp]
	call	?countValues@CharacterNode@icu_56@@QBEHXZ ; icu_56::CharacterNode::countValues
	mov	DWORD PTR _valuesCount$71866[ebp], eax
; Line 829
	mov	DWORD PTR _i$71867[ebp], 0
	jmp	SHORT $LN11@handleMatc
$LN10@handleMatc:
	mov	eax, DWORD PTR _i$71867[ebp]
	add	eax, 1
	mov	DWORD PTR _i$71867[ebp], eax
$LN11@handleMatc:
	mov	eax, DWORD PTR _i$71867[ebp]
	cmp	eax, DWORD PTR _valuesCount$71866[ebp]
	jge	$LN12@handleMatc
; Line 830
	mov	eax, DWORD PTR _i$71867[ebp]
	push	eax
	mov	ecx, DWORD PTR _node$[ebp]
	call	?getValue@CharacterNode@icu_56@@QBEPBXH@Z ; icu_56::CharacterNode::getValue
	mov	DWORD PTR _nameinfo$71871[ebp], eax
; Line 831
	cmp	DWORD PTR _nameinfo$71871[ebp], 0
	jne	SHORT $LN8@handleMatc
; Line 832
	jmp	SHORT $LN10@handleMatc
$LN8@handleMatc:
; Line 834
	mov	eax, DWORD PTR _nameinfo$71871[ebp]
	mov	ecx, DWORD PTR _this$[ebp]
	mov	edx, DWORD PTR [eax]
	and	edx, DWORD PTR [ecx+4]
	je	$LN7@handleMatc
; Line 836
	mov	eax, DWORD PTR _this$[ebp]
	cmp	DWORD PTR [eax+12], 0
	jne	SHORT $LN6@handleMatc
; Line 837
	mov	esi, esp
	push	8
	call	DWORD PTR __imp_??2UMemory@icu_56@@SAPAXI@Z
	add	esp, 4
	cmp	esi, esp
	call	__RTC_CheckEsp
	mov	DWORD PTR $T80093[ebp], eax
	mov	DWORD PTR __$EHRec$[ebp+8], 0
	cmp	DWORD PTR $T80093[ebp], 0
	je	SHORT $LN16@handleMatc
	mov	ecx, DWORD PTR $T80093[ebp]
	call	??0MatchInfoCollection@TimeZoneNames@icu_56@@QAE@XZ ; icu_56::TimeZoneNames::MatchInfoCollection::MatchInfoCollection
	mov	DWORD PTR tv93[ebp], eax
	jmp	SHORT $LN17@handleMatc
$LN16@handleMatc:
	mov	DWORD PTR tv93[ebp], 0
$LN17@handleMatc:
	mov	eax, DWORD PTR tv93[ebp]
	mov	DWORD PTR $T80092[ebp], eax
	mov	DWORD PTR __$EHRec$[ebp+8], -1
	mov	ecx, DWORD PTR _this$[ebp]
	mov	edx, DWORD PTR $T80092[ebp]
	mov	DWORD PTR [ecx+12], edx
; Line 838
	mov	eax, DWORD PTR _this$[ebp]
	cmp	DWORD PTR [eax+12], 0
	jne	SHORT $LN6@handleMatc
; Line 839
	mov	eax, DWORD PTR _status$[ebp]
	mov	DWORD PTR [eax], 7
$LN6@handleMatc:
; Line 842
	mov	eax, DWORD PTR _status$[ebp]
	mov	ecx, DWORD PTR [eax]
	push	ecx
	call	?U_SUCCESS@@YACW4UErrorCode@@@Z		; U_SUCCESS
	add	esp, 4
	movsx	edx, al
	test	edx, edx
	je	$LN7@handleMatc
; Line 843
	mov	eax, DWORD PTR _this$[ebp]
	cmp	DWORD PTR [eax+12], 0
	jne	SHORT $LN18@handleMatc
	mov	ecx, DWORD PTR ?__LINE__Var@?1??handleMatch@ZNameSearchHandler@icu_56@@UAECHPBUCharacterNode@3@AAW4UErrorCode@@@Z@4JA
	add	ecx, 20					; 00000014H
	mov	esi, esp
	push	ecx
	push	OFFSET ??_C@_1GC@OMCAKFML@?$AAd?$AA?3?$AA?2?$AAm?$AAo?$AAz?$AAi?$AAl?$AAl?$AAa?$AA?2?$AAi?$AAn?$AAt?$AAl?$AA?2?$AAi?$AAc?$AAu?$AA?2?$AAs?$AAo?$AAu?$AAr?$AAc?$AAe?$AA?2?$AAi?$AA1?$AA8?$AAn?$AA?2@
	push	OFFSET ??_C@_1BM@GLIEOHGO@?$AAf?$AAR?$AAe?$AAs?$AAu?$AAl?$AAt?$AAs?$AA?5?$AA?$CB?$AA?$DN?$AA?5?$AA0?$AA?$AA@
	call	DWORD PTR __imp___wassert
	add	esp, 12					; 0000000cH
	cmp	esi, esp
	call	__RTC_CheckEsp
$LN18@handleMatc:
; Line 844
	mov	eax, DWORD PTR _nameinfo$71871[ebp]
	cmp	DWORD PTR [eax+4], 0
	je	SHORT $LN3@handleMatc
; Line 845
	mov	eax, DWORD PTR _status$[ebp]
	push	eax
	mov	esi, esp
	push	-1
	mov	ecx, DWORD PTR _nameinfo$71871[ebp]
	mov	edx, DWORD PTR [ecx+4]
	push	edx
	lea	ecx, DWORD PTR $T71886[ebp]
	call	DWORD PTR __imp_??0UnicodeString@icu_56@@QAE@PB_WH@Z
	cmp	esi, esp
	call	__RTC_CheckEsp
	mov	DWORD PTR tv188[ebp], eax
	mov	eax, DWORD PTR tv188[ebp]
	mov	DWORD PTR tv182[ebp], eax
	mov	DWORD PTR __$EHRec$[ebp+8], 1
	mov	ecx, DWORD PTR tv182[ebp]
	push	ecx
	mov	edx, DWORD PTR _matchLength$[ebp]
	push	edx
	mov	eax, DWORD PTR _nameinfo$71871[ebp]
	mov	ecx, DWORD PTR [eax]
	push	ecx
	mov	edx, DWORD PTR _this$[ebp]
	mov	ecx, DWORD PTR [edx+12]
	call	?addZone@MatchInfoCollection@TimeZoneNames@icu_56@@QAEXW4UTimeZoneNameType@@HABVUnicodeString@3@AAW4UErrorCode@@@Z ; icu_56::TimeZoneNames::MatchInfoCollection::addZone
	mov	DWORD PTR __$EHRec$[ebp+8], -1
	mov	esi, esp
	lea	ecx, DWORD PTR $T71886[ebp]
	call	DWORD PTR __imp_??1UnicodeString@icu_56@@UAE@XZ
	cmp	esi, esp
	call	__RTC_CheckEsp
; Line 846
	jmp	$LN2@handleMatc
$LN3@handleMatc:
; Line 847
	mov	eax, DWORD PTR _nameinfo$71871[ebp]
	cmp	DWORD PTR [eax+8], 0
	jne	SHORT $LN19@handleMatc
	mov	ecx, DWORD PTR ?__LINE__Var@?1??handleMatch@ZNameSearchHandler@icu_56@@UAECHPBUCharacterNode@3@AAW4UErrorCode@@@Z@4JA
	add	ecx, 24					; 00000018H
	mov	esi, esp
	push	ecx
	push	OFFSET ??_C@_1GC@OMCAKFML@?$AAd?$AA?3?$AA?2?$AAm?$AAo?$AAz?$AAi?$AAl?$AAl?$AAa?$AA?2?$AAi?$AAn?$AAt?$AAl?$AA?2?$AAi?$AAc?$AAu?$AA?2?$AAs?$AAo?$AAu?$AAr?$AAc?$AAe?$AA?2?$AAi?$AA1?$AA8?$AAn?$AA?2@
	push	OFFSET ??_C@_1BO@CIFBJKAC@?$AAn?$AAa?$AAm?$AAe?$AAi?$AAn?$AAf?$AAo?$AA?9?$AA?$DO?$AAm?$AAz?$AAI?$AAD?$AA?$AA@
	call	DWORD PTR __imp___wassert
	add	esp, 12					; 0000000cH
	cmp	esi, esp
	call	__RTC_CheckEsp
$LN19@handleMatc:
; Line 848
	mov	eax, DWORD PTR _status$[ebp]
	push	eax
	mov	esi, esp
	push	-1
	mov	ecx, DWORD PTR _nameinfo$71871[ebp]
	mov	edx, DWORD PTR [ecx+8]
	push	edx
	lea	ecx, DWORD PTR $T71890[ebp]
	call	DWORD PTR __imp_??0UnicodeString@icu_56@@QAE@PB_WH@Z
	cmp	esi, esp
	call	__RTC_CheckEsp
	mov	DWORD PTR tv191[ebp], eax
	mov	eax, DWORD PTR tv191[ebp]
	mov	DWORD PTR tv184[ebp], eax
	mov	DWORD PTR __$EHRec$[ebp+8], 2
	mov	ecx, DWORD PTR tv184[ebp]
	push	ecx
	mov	edx, DWORD PTR _matchLength$[ebp]
	push	edx
	mov	eax, DWORD PTR _nameinfo$71871[ebp]
	mov	ecx, DWORD PTR [eax]
	push	ecx
	mov	edx, DWORD PTR _this$[ebp]
	mov	ecx, DWORD PTR [edx+12]
	call	?addMetaZone@MatchInfoCollection@TimeZoneNames@icu_56@@QAEXW4UTimeZoneNameType@@HABVUnicodeString@3@AAW4UErrorCode@@@Z ; icu_56::TimeZoneNames::MatchInfoCollection::addMetaZone
	mov	DWORD PTR __$EHRec$[ebp+8], -1
	mov	esi, esp
	lea	ecx, DWORD PTR $T71890[ebp]
	call	DWORD PTR __imp_??1UnicodeString@icu_56@@UAE@XZ
	cmp	esi, esp
	call	__RTC_CheckEsp
$LN2@handleMatc:
; Line 850
	mov	eax, DWORD PTR _status$[ebp]
	mov	ecx, DWORD PTR [eax]
	push	ecx
	call	?U_SUCCESS@@YACW4UErrorCode@@@Z		; U_SUCCESS
	add	esp, 4
	movsx	edx, al
	test	edx, edx
	je	SHORT $LN7@handleMatc
	mov	eax, DWORD PTR _this$[ebp]
	mov	ecx, DWORD PTR _matchLength$[ebp]
	cmp	ecx, DWORD PTR [eax+8]
	jle	SHORT $LN7@handleMatc
; Line 851
	mov	eax, DWORD PTR _this$[ebp]
	mov	ecx, DWORD PTR _matchLength$[ebp]
	mov	DWORD PTR [eax+8], ecx
$LN7@handleMatc:
; Line 855
	jmp	$LN10@handleMatc
$LN12@handleMatc:
; Line 857
	mov	al, 1
$LN14@handleMatc:
; Line 858
	mov	ecx, DWORD PTR __$EHRec$[ebp]
	mov	DWORD PTR fs:0, ecx
	pop	ecx
	pop	edi
	pop	esi
	pop	ebx
	mov	ecx, DWORD PTR __$ArrayPad$[ebp]
	xor	ecx, ebp
	call	@__security_check_cookie@4
	add	esp, 432				; 000001b0H
	cmp	ebp, esp
	call	__RTC_CheckEsp
	mov	esp, ebp
	pop	ebp
	ret	12					; 0000000cH
_TEXT	ENDS
;	COMDAT text$x
text$x	SEGMENT
__unwindfunclet$?handleMatch@ZNameSearchHandler@icu_56@@UAECHPBUCharacterNode@2@AAW4UErrorCode@@@Z$0:
	mov	esi, esp
	mov	eax, DWORD PTR $T80093[ebp]
	push	eax
	call	DWORD PTR __imp_??3UMemory@icu_56@@SAXPAX@Z
	add	esp, 4
	cmp	esi, esp
	jmp	__RTC_CheckEsp
__unwindfunclet$?handleMatch@ZNameSearchHandler@icu_56@@UAECHPBUCharacterNode@2@AAW4UErrorCode@@@Z$1:
	mov	esi, esp
	lea	ecx, DWORD PTR $T71886[ebp]
	call	DWORD PTR __imp_??1UnicodeString@icu_56@@UAE@XZ
	cmp	esi, esp
	jmp	__RTC_CheckEsp
__unwindfunclet$?handleMatch@ZNameSearchHandler@icu_56@@UAECHPBUCharacterNode@2@AAW4UErrorCode@@@Z$2:
	mov	esi, esp
	lea	ecx, DWORD PTR $T71890[ebp]
	call	DWORD PTR __imp_??1UnicodeString@icu_56@@UAE@XZ
	cmp	esi, esp
	jmp	__RTC_CheckEsp
__ehhandler$?handleMatch@ZNameSearchHandler@icu_56@@UAECHPBUCharacterNode@2@AAW4UErrorCode@@@Z:
	mov	edx, DWORD PTR [esp+8]
	lea	eax, DWORD PTR [edx+12]
	mov	ecx, DWORD PTR [edx-436]
	xor	ecx, eax
	call	@__security_check_cookie@4
	mov	ecx, DWORD PTR [edx-4]
	xor	ecx, eax
	call	@__security_check_cookie@4
	mov	eax, OFFSET __ehfuncinfo$?handleMatch@ZNameSearchHandler@icu_56@@UAECHPBUCharacterNode@2@AAW4UErrorCode@@@Z
	jmp	___CxxFrameHandler3
text$x	ENDS
?handleMatch@ZNameSearchHandler@icu_56@@UAECHPBUCharacterNode@2@AAW4UErrorCode@@@Z ENDP ; icu_56::ZNameSearchHandler::handleMatch
; Function compile flags: /Odtp /RTCsu /ZI
;	COMDAT ?countValues@CharacterNode@icu_56@@QBEHXZ
_TEXT	SEGMENT
tv70 = -212						; size = 4
tv71 = -208						; size = 4
_this$ = -8						; size = 4
?countValues@CharacterNode@icu_56@@QBEHXZ PROC		; icu_56::CharacterNode::countValues, COMDAT
; _this$ = ecx
; File d:\mozilla\intl\icu\source\i18n\tznames_impl.h
; Line 99
	push	ebp
	mov	ebp, esp
	sub	esp, 212				; 000000d4H
	push	ebx
	push	esi
	push	edi
	push	ecx
	lea	edi, DWORD PTR [ebp-212]
	mov	ecx, 53					; 00000035H
	mov	eax, -858993460				; ccccccccH
	rep stosd
	pop	ecx
	mov	DWORD PTR _this$[ebp], ecx
; Line 103
	mov	eax, DWORD PTR _this$[ebp]
	cmp	DWORD PTR [eax], 0
	jne	SHORT $LN5@countValue
	mov	DWORD PTR tv71[ebp], 0
	jmp	SHORT $LN6@countValue
$LN5@countValue:
	mov	ecx, DWORD PTR _this$[ebp]
	movsx	edx, BYTE PTR [ecx+10]
	test	edx, edx
	jne	SHORT $LN3@countValue
	mov	DWORD PTR tv70[ebp], 1
	jmp	SHORT $LN4@countValue
$LN3@countValue:
	mov	esi, esp
	mov	eax, DWORD PTR _this$[ebp]
	mov	ecx, DWORD PTR [eax]
	call	DWORD PTR __imp_?size@UVector@icu_56@@QBEHXZ
	cmp	esi, esp
	call	__RTC_CheckEsp
	mov	DWORD PTR tv70[ebp], eax
$LN4@countValue:
	mov	ecx, DWORD PTR tv70[ebp]
	mov	DWORD PTR tv71[ebp], ecx
$LN6@countValue:
	mov	eax, DWORD PTR tv71[ebp]
; Line 104
	pop	edi
	pop	esi
	pop	ebx
	add	esp, 212				; 000000d4H
	cmp	ebp, esp
	call	__RTC_CheckEsp
	mov	esp, ebp
	pop	ebp
	ret	0
?countValues@CharacterNode@icu_56@@QBEHXZ ENDP		; icu_56::CharacterNode::countValues
; Function compile flags: /Odtp /RTCsu /ZI
_TEXT	ENDS
;	COMDAT ?getValue@CharacterNode@icu_56@@QBEPBXH@Z
_TEXT	SEGMENT
_this$ = -8						; size = 4
_index$ = 8						; size = 4
?getValue@CharacterNode@icu_56@@QBEPBXH@Z PROC		; icu_56::CharacterNode::getValue, COMDAT
; _this$ = ecx
; Line 106
	push	ebp
	mov	ebp, esp
	sub	esp, 204				; 000000ccH
	push	ebx
	push	esi
	push	edi
	push	ecx
	lea	edi, DWORD PTR [ebp-204]
	mov	ecx, 51					; 00000033H
	mov	eax, -858993460				; ccccccccH
	rep stosd
	pop	ecx
	mov	DWORD PTR _this$[ebp], ecx
; Line 107
	mov	eax, DWORD PTR _this$[ebp]
	movsx	ecx, BYTE PTR [eax+10]
	test	ecx, ecx
	jne	SHORT $LN2@getValue
; Line 108
	mov	eax, DWORD PTR _this$[ebp]
	mov	eax, DWORD PTR [eax]
	jmp	SHORT $LN3@getValue
; Line 109
	jmp	SHORT $LN3@getValue
$LN2@getValue:
; Line 110
	mov	esi, esp
	mov	eax, DWORD PTR _index$[ebp]
	push	eax
	mov	ecx, DWORD PTR _this$[ebp]
	mov	ecx, DWORD PTR [ecx]
	call	DWORD PTR __imp_?elementAt@UVector@icu_56@@QBEPAXH@Z
	cmp	esi, esp
	call	__RTC_CheckEsp
$LN3@getValue:
; Line 112
	pop	edi
	pop	esi
	pop	ebx
	add	esp, 204				; 000000ccH
	cmp	ebp, esp
	call	__RTC_CheckEsp
	mov	esp, ebp
	pop	ebp
	ret	4
?getValue@CharacterNode@icu_56@@QBEPBXH@Z ENDP		; icu_56::CharacterNode::getValue
_TEXT	ENDS
PUBLIC	?getMatches@ZNameSearchHandler@icu_56@@QAEPAVMatchInfoCollection@TimeZoneNames@2@AAH@Z ; icu_56::ZNameSearchHandler::getMatches
; Function compile flags: /Odtp /RTCsu /ZI
;	COMDAT ?getMatches@ZNameSearchHandler@icu_56@@QAEPAVMatchInfoCollection@TimeZoneNames@2@AAH@Z
_TEXT	SEGMENT
_results$ = -20						; size = 4
_this$ = -8						; size = 4
_maxMatchLen$ = 8					; size = 4
?getMatches@ZNameSearchHandler@icu_56@@QAEPAVMatchInfoCollection@TimeZoneNames@2@AAH@Z PROC ; icu_56::ZNameSearchHandler::getMatches, COMDAT
; _this$ = ecx
; File d:\mozilla\intl\icu\source\i18n\tznames_impl.cpp
; Line 861
	push	ebp
	mov	ebp, esp
	sub	esp, 216				; 000000d8H
	push	ebx
	push	esi
	push	edi
	push	ecx
	lea	edi, DWORD PTR [ebp-216]
	mov	ecx, 54					; 00000036H
	mov	eax, -858993460				; ccccccccH
	rep stosd
	pop	ecx
	mov	DWORD PTR _this$[ebp], ecx
; Line 863
	mov	eax, DWORD PTR _this$[ebp]
	mov	ecx, DWORD PTR [eax+12]
	mov	DWORD PTR _results$[ebp], ecx
; Line 864
	mov	eax, DWORD PTR _maxMatchLen$[ebp]
	mov	ecx, DWORD PTR _this$[ebp]
	mov	edx, DWORD PTR [ecx+8]
	mov	DWORD PTR [eax], edx
; Line 867
	mov	eax, DWORD PTR _this$[ebp]
	mov	DWORD PTR [eax+12], 0
; Line 868
	mov	eax, DWORD PTR _this$[ebp]
	mov	DWORD PTR [eax+8], 0
; Line 869
	mov	eax, DWORD PTR _results$[ebp]
; Line 870
	pop	edi
	pop	esi
	pop	ebx
	mov	esp, ebp
	pop	ebp
	ret	4
?getMatches@ZNameSearchHandler@icu_56@@QAEPAVMatchInfoCollection@TimeZoneNames@2@AAH@Z ENDP ; icu_56::ZNameSearchHandler::getMatches
_TEXT	ENDS
PUBLIC	?initialize@TimeZoneNamesImpl@icu_56@@AAEXABVLocale@2@AAW4UErrorCode@@@Z ; icu_56::TimeZoneNamesImpl::initialize
PUBLIC	??_7TimeZoneNamesImpl@icu_56@@6B@		; icu_56::TimeZoneNamesImpl::`vftable'
PUBLIC	??0TimeZoneNamesImpl@icu_56@@QAE@ABVLocale@1@AAW4UErrorCode@@@Z ; icu_56::TimeZoneNamesImpl::TimeZoneNamesImpl
PUBLIC	??_R4TimeZoneNamesImpl@icu_56@@6B@		; icu_56::TimeZoneNamesImpl::`RTTI Complete Object Locator'
PUBLIC	??_R0?AVTimeZoneNamesImpl@icu_56@@@8		; icu_56::TimeZoneNamesImpl `RTTI Type Descriptor'
PUBLIC	??_R3TimeZoneNamesImpl@icu_56@@8		; icu_56::TimeZoneNamesImpl::`RTTI Class Hierarchy Descriptor'
PUBLIC	??_R2TimeZoneNamesImpl@icu_56@@8		; icu_56::TimeZoneNamesImpl::`RTTI Base Class Array'
PUBLIC	??_R1A@?0A@EA@TimeZoneNamesImpl@icu_56@@8	; icu_56::TimeZoneNamesImpl::`RTTI Base Class Descriptor at (0,-1,0,64)'
PUBLIC	??8TimeZoneNamesImpl@icu_56@@UBECABVTimeZoneNames@1@@Z ; icu_56::TimeZoneNamesImpl::operator==
PUBLIC	?clone@TimeZoneNamesImpl@icu_56@@UBEPAVTimeZoneNames@2@XZ ; icu_56::TimeZoneNamesImpl::clone
PUBLIC	?getAvailableMetaZoneIDs@TimeZoneNamesImpl@icu_56@@UBEPAVStringEnumeration@2@ABVUnicodeString@2@AAW4UErrorCode@@@Z ; icu_56::TimeZoneNamesImpl::getAvailableMetaZoneIDs
PUBLIC	?getAvailableMetaZoneIDs@TimeZoneNamesImpl@icu_56@@UBEPAVStringEnumeration@2@AAW4UErrorCode@@@Z ; icu_56::TimeZoneNamesImpl::getAvailableMetaZoneIDs
PUBLIC	?getMetaZoneID@TimeZoneNamesImpl@icu_56@@UBEAAVUnicodeString@2@ABV32@NAAV32@@Z ; icu_56::TimeZoneNamesImpl::getMetaZoneID
PUBLIC	?getReferenceZoneID@TimeZoneNamesImpl@icu_56@@UBEAAVUnicodeString@2@ABV32@PBDAAV32@@Z ; icu_56::TimeZoneNamesImpl::getReferenceZoneID
PUBLIC	?getMetaZoneDisplayName@TimeZoneNamesImpl@icu_56@@UBEAAVUnicodeString@2@ABV32@W4UTimeZoneNameType@@AAV32@@Z ; icu_56::TimeZoneNamesImpl::getMetaZoneDisplayName
PUBLIC	?getTimeZoneDisplayName@TimeZoneNamesImpl@icu_56@@UBEAAVUnicodeString@2@ABV32@W4UTimeZoneNameType@@AAV32@@Z ; icu_56::TimeZoneNamesImpl::getTimeZoneDisplayName
PUBLIC	?getExemplarLocationName@TimeZoneNamesImpl@icu_56@@UBEAAVUnicodeString@2@ABV32@AAV32@@Z ; icu_56::TimeZoneNamesImpl::getExemplarLocationName
PUBLIC	?find@TimeZoneNamesImpl@icu_56@@UBEPAVMatchInfoCollection@TimeZoneNames@2@ABVUnicodeString@2@HIAAW4UErrorCode@@@Z ; icu_56::TimeZoneNamesImpl::find
EXTRN	__imp_??1Locale@icu_56@@UAE@XZ:PROC
EXTRN	__imp_??0Locale@icu_56@@QAE@ABV01@@Z:PROC
EXTRN	??_ETimeZoneNamesImpl@icu_56@@UAEPAXI@Z:PROC	; icu_56::TimeZoneNamesImpl::`vector deleting destructor'
;	COMDAT ??_R1A@?0A@EA@TimeZoneNamesImpl@icu_56@@8
rdata$r	SEGMENT
??_R1A@?0A@EA@TimeZoneNamesImpl@icu_56@@8 DD FLAT:??_R0?AVTimeZoneNamesImpl@icu_56@@@8 ; icu_56::TimeZoneNamesImpl::`RTTI Base Class Descriptor at (0,-1,0,64)'
	DD	03H
	DD	00H
	DD	0ffffffffH
	DD	00H
	DD	040H
	DD	FLAT:??_R3TimeZoneNamesImpl@icu_56@@8
rdata$r	ENDS
;	COMDAT ??_R2TimeZoneNamesImpl@icu_56@@8
rdata$r	SEGMENT
??_R2TimeZoneNamesImpl@icu_56@@8 DD FLAT:??_R1A@?0A@EA@TimeZoneNamesImpl@icu_56@@8 ; icu_56::TimeZoneNamesImpl::`RTTI Base Class Array'
	DD	FLAT:??_R1A@?0A@EA@TimeZoneNames@icu_56@@8
	DD	FLAT:??_R1A@?0A@EA@UObject@icu_56@@8
	DD	FLAT:??_R13?0A@EA@UMemory@icu_56@@8
rdata$r	ENDS
;	COMDAT ??_R3TimeZoneNamesImpl@icu_56@@8
rdata$r	SEGMENT
??_R3TimeZoneNamesImpl@icu_56@@8 DD 00H			; icu_56::TimeZoneNamesImpl::`RTTI Class Hierarchy Descriptor'
	DD	00H
	DD	04H
	DD	FLAT:??_R2TimeZoneNamesImpl@icu_56@@8
rdata$r	ENDS
;	COMDAT ??_R0?AVTimeZoneNamesImpl@icu_56@@@8
_DATA	SEGMENT
??_R0?AVTimeZoneNamesImpl@icu_56@@@8 DD FLAT:??_7type_info@@6B@ ; icu_56::TimeZoneNamesImpl `RTTI Type Descriptor'
	DD	00H
	DB	'.?AVTimeZoneNamesImpl@icu_56@@', 00H
_DATA	ENDS
;	COMDAT ??_R4TimeZoneNamesImpl@icu_56@@6B@
rdata$r	SEGMENT
??_R4TimeZoneNamesImpl@icu_56@@6B@ DD 00H		; icu_56::TimeZoneNamesImpl::`RTTI Complete Object Locator'
	DD	00H
	DD	00H
	DD	FLAT:??_R0?AVTimeZoneNamesImpl@icu_56@@@8
	DD	FLAT:??_R3TimeZoneNamesImpl@icu_56@@8
rdata$r	ENDS
;	COMDAT ??_7TimeZoneNamesImpl@icu_56@@6B@
CONST	SEGMENT
??_7TimeZoneNamesImpl@icu_56@@6B@ DD FLAT:??_R4TimeZoneNamesImpl@icu_56@@6B@ ; icu_56::TimeZoneNamesImpl::`vftable'
	DD	FLAT:??_ETimeZoneNamesImpl@icu_56@@UAEPAXI@Z
	DD	FLAT:?getDynamicClassID@UObject@icu_56@@UBEPAXXZ
	DD	FLAT:??8TimeZoneNamesImpl@icu_56@@UBECABVTimeZoneNames@1@@Z
	DD	FLAT:?clone@TimeZoneNamesImpl@icu_56@@UBEPAVTimeZoneNames@2@XZ
	DD	FLAT:?getAvailableMetaZoneIDs@TimeZoneNamesImpl@icu_56@@UBEPAVStringEnumeration@2@ABVUnicodeString@2@AAW4UErrorCode@@@Z
	DD	FLAT:?getAvailableMetaZoneIDs@TimeZoneNamesImpl@icu_56@@UBEPAVStringEnumeration@2@AAW4UErrorCode@@@Z
	DD	FLAT:?getMetaZoneID@TimeZoneNamesImpl@icu_56@@UBEAAVUnicodeString@2@ABV32@NAAV32@@Z
	DD	FLAT:?getReferenceZoneID@TimeZoneNamesImpl@icu_56@@UBEAAVUnicodeString@2@ABV32@PBDAAV32@@Z
	DD	FLAT:?getMetaZoneDisplayName@TimeZoneNamesImpl@icu_56@@UBEAAVUnicodeString@2@ABV32@W4UTimeZoneNameType@@AAV32@@Z
	DD	FLAT:?getTimeZoneDisplayName@TimeZoneNamesImpl@icu_56@@UBEAAVUnicodeString@2@ABV32@W4UTimeZoneNameType@@AAV32@@Z
	DD	FLAT:?getExemplarLocationName@TimeZoneNamesImpl@icu_56@@UBEAAVUnicodeString@2@ABV32@AAV32@@Z
	DD	FLAT:?getDisplayName@TimeZoneNames@icu_56@@UBEAAVUnicodeString@2@ABV32@W4UTimeZoneNameType@@NAAV32@@Z
	DD	FLAT:?find@TimeZoneNamesImpl@icu_56@@UBEPAVMatchInfoCollection@TimeZoneNames@2@ABVUnicodeString@2@HIAAW4UErrorCode@@@Z
CONST	ENDS
;	COMDAT xdata$x
xdata$x	SEGMENT
__unwindtable$??0TimeZoneNamesImpl@icu_56@@QAE@ABVLocale@1@AAW4UErrorCode@@@Z DD 0ffffffffH
	DD	FLAT:__unwindfunclet$??0TimeZoneNamesImpl@icu_56@@QAE@ABVLocale@1@AAW4UErrorCode@@@Z$0
	DD	00H
	DD	FLAT:__unwindfunclet$??0TimeZoneNamesImpl@icu_56@@QAE@ABVLocale@1@AAW4UErrorCode@@@Z$1
	DD	01H
	DD	FLAT:__unwindfunclet$??0TimeZoneNamesImpl@icu_56@@QAE@ABVLocale@1@AAW4UErrorCode@@@Z$2
__ehfuncinfo$??0TimeZoneNamesImpl@icu_56@@QAE@ABVLocale@1@AAW4UErrorCode@@@Z DD 019930522H
	DD	03H
	DD	FLAT:__unwindtable$??0TimeZoneNamesImpl@icu_56@@QAE@ABVLocale@1@AAW4UErrorCode@@@Z
	DD	2 DUP(00H)
	DD	2 DUP(00H)
	DD	00H
	DD	01H
; Function compile flags: /Odtp /RTCsu /ZI
xdata$x	ENDS
;	COMDAT ??0TimeZoneNamesImpl@icu_56@@QAE@ABVLocale@1@AAW4UErrorCode@@@Z
_TEXT	SEGMENT
_this$ = -20						; size = 4
__$EHRec$ = -12						; size = 12
_locale$ = 8						; size = 4
_status$ = 12						; size = 4
??0TimeZoneNamesImpl@icu_56@@QAE@ABVLocale@1@AAW4UErrorCode@@@Z PROC ; icu_56::TimeZoneNamesImpl::TimeZoneNamesImpl, COMDAT
; _this$ = ecx
; Line 917
	push	ebp
	mov	ebp, esp
	push	-1
	push	__ehhandler$??0TimeZoneNamesImpl@icu_56@@QAE@ABVLocale@1@AAW4UErrorCode@@@Z
	mov	eax, DWORD PTR fs:0
	push	eax
	sub	esp, 204				; 000000ccH
	push	ebx
	push	esi
	push	edi
	push	ecx
	lea	edi, DWORD PTR [ebp-216]
	mov	ecx, 51					; 00000033H
	mov	eax, -858993460				; ccccccccH
	rep stosd
	pop	ecx
	mov	eax, DWORD PTR ___security_cookie
	xor	eax, ebp
	push	eax
	lea	eax, DWORD PTR __$EHRec$[ebp]
	mov	DWORD PTR fs:0, eax
	mov	DWORD PTR _this$[ebp], ecx
	mov	ecx, DWORD PTR _this$[ebp]
	call	??0TimeZoneNames@icu_56@@QAE@XZ
	mov	DWORD PTR __$EHRec$[ebp+8], 0
	mov	eax, DWORD PTR _this$[ebp]
	mov	DWORD PTR [eax], OFFSET ??_7TimeZoneNamesImpl@icu_56@@6B@
	mov	esi, esp
	mov	eax, DWORD PTR _locale$[ebp]
	push	eax
	mov	ecx, DWORD PTR _this$[ebp]
	add	ecx, 4
	call	DWORD PTR __imp_??0Locale@icu_56@@QAE@ABV01@@Z
	cmp	esi, esp
	call	__RTC_CheckEsp
	mov	BYTE PTR __$EHRec$[ebp+8], 1
	mov	eax, DWORD PTR _this$[ebp]
	mov	DWORD PTR [eax+208], 0
