; Listing generated by Microsoft (R) Optimizing Compiler Version 16.00.40219.01 

	TITLE	D:\mozilla\intl\icu\source\i18n\uspoof.cpp
	.686P
	.XMM
	include listing.inc
	.model	flat

INCLUDELIB MSVCRTD
INCLUDELIB OLDNAMES

PUBLIC	??_C@_0BACK@CDOMAMMN@?$FL?2u0030?9?2u0039?2u0041?9?2u005A?2u005@ ; `string'
PUBLIC	??_C@_0HJ@OADLBNPH@?$FL?2u0027?2u002D?9?2u002E?2u003A?2u00B7@ ; `string'
PUBLIC	?value@?$integral_constant@_N$0A@@tr1@std@@2_NB	; std::tr1::integral_constant<bool,0>::value
PUBLIC	?value@?$integral_constant@_N$00@tr1@std@@2_NB	; std::tr1::integral_constant<bool,1>::value
PUBLIC	?value@?$integral_constant@I$0A@@tr1@std@@2IB	; std::tr1::integral_constant<unsigned int,0>::value
PUBLIC	?_Rank@?$_Arithmetic_traits@_N@std@@2HB		; std::_Arithmetic_traits<bool>::_Rank
PUBLIC	?_Rank@?$_Arithmetic_traits@D@std@@2HB		; std::_Arithmetic_traits<char>::_Rank
PUBLIC	?_Rank@?$_Arithmetic_traits@C@std@@2HB		; std::_Arithmetic_traits<signed char>::_Rank
PUBLIC	?_Rank@?$_Arithmetic_traits@E@std@@2HB		; std::_Arithmetic_traits<unsigned char>::_Rank
PUBLIC	?_Rank@?$_Arithmetic_traits@F@std@@2HB		; std::_Arithmetic_traits<short>::_Rank
PUBLIC	?_Rank@?$_Arithmetic_traits@G@std@@2HB		; std::_Arithmetic_traits<unsigned short>::_Rank
PUBLIC	?_Rank@?$_Arithmetic_traits@H@std@@2HB		; std::_Arithmetic_traits<int>::_Rank
PUBLIC	?_Rank@?$_Arithmetic_traits@I@std@@2HB		; std::_Arithmetic_traits<unsigned int>::_Rank
PUBLIC	?_Rank@?$_Arithmetic_traits@J@std@@2HB		; std::_Arithmetic_traits<long>::_Rank
PUBLIC	?_Rank@?$_Arithmetic_traits@K@std@@2HB		; std::_Arithmetic_traits<unsigned long>::_Rank
PUBLIC	?_Rank@?$_Arithmetic_traits@_J@std@@2HB		; std::_Arithmetic_traits<__int64>::_Rank
PUBLIC	?_Rank@?$_Arithmetic_traits@_K@std@@2HB		; std::_Arithmetic_traits<unsigned __int64>::_Rank
PUBLIC	?_Rank@?$_Arithmetic_traits@M@std@@2HB		; std::_Arithmetic_traits<float>::_Rank
PUBLIC	?_Rank@?$_Arithmetic_traits@N@std@@2HB		; std::_Arithmetic_traits<double>::_Rank
PUBLIC	?_Rank@?$_Arithmetic_traits@O@std@@2HB		; std::_Arithmetic_traits<long double>::_Rank
PUBLIC	?collate@?$_Locbase@H@std@@2HB			; std::_Locbase<int>::collate
PUBLIC	?ctype@?$_Locbase@H@std@@2HB			; std::_Locbase<int>::ctype
PUBLIC	?monetary@?$_Locbase@H@std@@2HB			; std::_Locbase<int>::monetary
PUBLIC	?numeric@?$_Locbase@H@std@@2HB			; std::_Locbase<int>::numeric
PUBLIC	?time@?$_Locbase@H@std@@2HB			; std::_Locbase<int>::time
PUBLIC	?messages@?$_Locbase@H@std@@2HB			; std::_Locbase<int>::messages
PUBLIC	?all@?$_Locbase@H@std@@2HB			; std::_Locbase<int>::all
PUBLIC	?none@?$_Locbase@H@std@@2HB			; std::_Locbase<int>::none
PUBLIC	?skipws@?$_Iosb@H@std@@2W4_Fmtflags@12@B	; std::_Iosb<int>::skipws
PUBLIC	?unitbuf@?$_Iosb@H@std@@2W4_Fmtflags@12@B	; std::_Iosb<int>::unitbuf
PUBLIC	?uppercase@?$_Iosb@H@std@@2W4_Fmtflags@12@B	; std::_Iosb<int>::uppercase
PUBLIC	?showbase@?$_Iosb@H@std@@2W4_Fmtflags@12@B	; std::_Iosb<int>::showbase
PUBLIC	?showpoint@?$_Iosb@H@std@@2W4_Fmtflags@12@B	; std::_Iosb<int>::showpoint
PUBLIC	?showpos@?$_Iosb@H@std@@2W4_Fmtflags@12@B	; std::_Iosb<int>::showpos
PUBLIC	?left@?$_Iosb@H@std@@2W4_Fmtflags@12@B		; std::_Iosb<int>::left
PUBLIC	?right@?$_Iosb@H@std@@2W4_Fmtflags@12@B		; std::_Iosb<int>::right
PUBLIC	?internal@?$_Iosb@H@std@@2W4_Fmtflags@12@B	; std::_Iosb<int>::internal
PUBLIC	?dec@?$_Iosb@H@std@@2W4_Fmtflags@12@B		; std::_Iosb<int>::dec
PUBLIC	?oct@?$_Iosb@H@std@@2W4_Fmtflags@12@B		; std::_Iosb<int>::oct
PUBLIC	?hex@?$_Iosb@H@std@@2W4_Fmtflags@12@B		; std::_Iosb<int>::hex
PUBLIC	?scientific@?$_Iosb@H@std@@2W4_Fmtflags@12@B	; std::_Iosb<int>::scientific
PUBLIC	?fixed@?$_Iosb@H@std@@2W4_Fmtflags@12@B		; std::_Iosb<int>::fixed
PUBLIC	?hexfloat@?$_Iosb@H@std@@2W4_Fmtflags@12@B	; std::_Iosb<int>::hexfloat
PUBLIC	?boolalpha@?$_Iosb@H@std@@2W4_Fmtflags@12@B	; std::_Iosb<int>::boolalpha
PUBLIC	?_Stdio@?$_Iosb@H@std@@2W4_Fmtflags@12@B	; std::_Iosb<int>::_Stdio
PUBLIC	?adjustfield@?$_Iosb@H@std@@2W4_Fmtflags@12@B	; std::_Iosb<int>::adjustfield
PUBLIC	?basefield@?$_Iosb@H@std@@2W4_Fmtflags@12@B	; std::_Iosb<int>::basefield
PUBLIC	?floatfield@?$_Iosb@H@std@@2W4_Fmtflags@12@B	; std::_Iosb<int>::floatfield
PUBLIC	?goodbit@?$_Iosb@H@std@@2W4_Iostate@12@B	; std::_Iosb<int>::goodbit
PUBLIC	?eofbit@?$_Iosb@H@std@@2W4_Iostate@12@B		; std::_Iosb<int>::eofbit
PUBLIC	?failbit@?$_Iosb@H@std@@2W4_Iostate@12@B	; std::_Iosb<int>::failbit
PUBLIC	?badbit@?$_Iosb@H@std@@2W4_Iostate@12@B		; std::_Iosb<int>::badbit
PUBLIC	?_Hardfail@?$_Iosb@H@std@@2W4_Iostate@12@B	; std::_Iosb<int>::_Hardfail
PUBLIC	?in@?$_Iosb@H@std@@2W4_Openmode@12@B		; std::_Iosb<int>::in
PUBLIC	?out@?$_Iosb@H@std@@2W4_Openmode@12@B		; std::_Iosb<int>::out
PUBLIC	?ate@?$_Iosb@H@std@@2W4_Openmode@12@B		; std::_Iosb<int>::ate
PUBLIC	?app@?$_Iosb@H@std@@2W4_Openmode@12@B		; std::_Iosb<int>::app
PUBLIC	?trunc@?$_Iosb@H@std@@2W4_Openmode@12@B		; std::_Iosb<int>::trunc
PUBLIC	?_Nocreate@?$_Iosb@H@std@@2W4_Openmode@12@B	; std::_Iosb<int>::_Nocreate
PUBLIC	?_Noreplace@?$_Iosb@H@std@@2W4_Openmode@12@B	; std::_Iosb<int>::_Noreplace
PUBLIC	?binary@?$_Iosb@H@std@@2W4_Openmode@12@B	; std::_Iosb<int>::binary
PUBLIC	?beg@?$_Iosb@H@std@@2W4_Seekdir@12@B		; std::_Iosb<int>::beg
PUBLIC	?cur@?$_Iosb@H@std@@2W4_Seekdir@12@B		; std::_Iosb<int>::cur
PUBLIC	?end@?$_Iosb@H@std@@2W4_Seekdir@12@B		; std::_Iosb<int>::end
_BSS	SEGMENT
_gInclusionSet DD 01H DUP (?)
_gRecommendedSet DD 01H DUP (?)
_gNfdNormalizer DD 01H DUP (?)
_gDefaultSpoofData DD 01H DUP (?)
_gSpoofInitStaticsOnce DQ 01H DUP (?)
_gSpoofInitDefaultOnce DQ 01H DUP (?)
_BSS	ENDS
;	COMDAT ??_C@_0BACK@CDOMAMMN@?$FL?2u0030?9?2u0039?2u0041?9?2u005A?2u005@
CONST	SEGMENT
??_C@_0BACK@CDOMAMMN@?$FL?2u0030?9?2u0039?2u0041?9?2u005A?2u005@ DB '[\u0'
	DB	'030-\u0039\u0041-\u005A\u005F\u0061-\u007A\u00C0-\u00D6\u00D8'
	DB	'-\u00F6\u00F8-\u0131\u0134-\u013E\u0141-\u0148\u014A-\u017E\u'
	DB	'018F\u01A0-\u01A1\u01AF-\u01B0\u01CD-\u01DC\u01DE-\u01E3\u01E'
	DB	'6-\u01F0\u01F4-\u01F5\u01F8-\u021B\u021E-\u021F\u0226-\u0233\'
	DB	'u0259\u02BB-\u02BC\u02EC\u0300-\u0304\u0306-\u030C\u030F-\u03'
	DB	'11\u0313-\u0314\u031B\u0323-\u0328\u032D-\u032E\u0330-\u0331\'
	DB	'u0335\u0338-\u0339\u0342\u0345\u037B-\u037D\u0386\u0388-\u038'
	DB	'A\u038C\u038E-\u03A1\u03A3-\u03CE\u03FC-\u045F\u048A-\u0529\u'
	DB	'052E-\u052F\u0531-\u0556\u0559\u0561-\u0586\u05B4\u05D0-\u05E'
	DB	'A\u05F0-\u05F2\u0620-\u063F\u0641-\u0655\u0660-\u0669\u0670-\'
	DB	'u0672\u0674\u0679-\u068D\u068F-\u06D3\u06D5\u06E5-\u06E6\u06E'
	DB	'E-\u06FC\u06FF\u0750-\u07B1\u08A0-\u08AC\u08B2\u0901-\u094D\u'
	DB	'094F-\u0950\u0956-\u0957\u0960-\u0963\u0966-\u096F\u0971-\u09'
	DB	'77\u0979-\u097F\u0981-\u0983\u0985-\u098C\u098F-\u0990\u0993-'
	DB	'\u09A8\u09AA-\u09B0\u09B2\u09B6-\u09B9\u09BC-\u09C4\u09C7-\u0'
	DB	'9C8\u09CB-\u09CE\u09D7\u09E0-\u09E3\u09E6-\u09F1\u0A01-\u0A03'
	DB	'\u0A05-\u0A0A\u0A0F-\u0A10\u0A13-\u0A28\u0A2A-\u0A30\u0A32\u0'
	DB	'A35\u0A38-\u0A39\u0A3C\u0A3E-\u0A42\u0A47-\u0A48\u0A4B-\u0A4D'
	DB	'\u0A5C\u0A66-\u0A74\u0A81-\u0A83\u0A85-\u0A8D\u0A8F-\u0A91\u0'
	DB	'A93-\u0AA8\u0AAA-\u0AB0\u0AB2-\u0AB3\u0AB5-\u0AB9\u0ABC-\u0AC'
	DB	'5\u0AC7-\u0AC9\u0ACB-\u0ACD\u0AD0\u0AE0-\u0AE3\u0AE6-\u0AEF\u'
	DB	'0B01-\u0B03\u0B05-\u0B0C\u0B0F-\u0B10\u0B13-\u0B28\u0B2A-\u0B'
	DB	'30\u0B32-\u0B33\u0B35-\u0B39\u0B3C-\u0B43\u0B47-\u0B48\u0B4B-'
	DB	'\u0B4D\u0B56-\u0B57\u0B5F-\u0B61\u0B66-\u0B6F\u0B71\u0B82-\u0'
	DB	'B83\u0B85-\u0B8A\u0B8E-\u0B90\u0B92-\u0B95\u0B99-\u0B9A\u0B9C'
	DB	'\u0B9E-\u0B9F\u0BA3-\u0BA4\u0BA8-\u0BAA\u0BAE-\u0BB9\u0BBE-\u'
	DB	'0BC2\u0BC6-\u0BC8\u0BCA-\u0BCD\u0BD0\u0BD7\u0BE6-\u0BEF\u0C01'
	DB	'-\u0C03\u0C05-\u0C0C\u0C0E-\u0C10\u0C12-\u0C28\u0C2A-\u0C33\u'
	DB	'0C35-\u0C39\u0C3D-\u0C44\u0C46-\u0C48\u0C4A-\u0C4D\u0C55-\u0C'
	DB	'56\u0C60-\u0C61\u0C66-\u0C6F\u0C82-\u0C83\u0C85-\u0C8C\u0C8E-'
	DB	'\u0C90\u0C92-\u0CA8\u0CAA-\u0CB3\u0CB5-\u0CB9\u0CBC-\u0CC4\u0'
	DB	'CC6-\u0CC8\u0CCA-\u0CCD\u0CD5-\u0CD6\u0CE0-\u0CE3\u0CE6-\u0CE'
	DB	'F\u0CF1-\u0CF2\u0D02-\u0D03\u0D05-\u0D0C\u0D0E-\u0D10\u0D12-\'
	DB	'u0D3A\u0D3D-\u0D43\u0D46-\u0D48\u0D4A-\u0D4E\u0D57\u0D60-\u0D'
	DB	'61\u0D66-\u0D6F\u0D7A-\u0D7F\u0D82-\u0D83\u0D85-\u0D8E\u0D91-'
	DB	'\u0D96\u0D9A-\u0DA5\u0DA7-\u0DB1\u0DB3-\u0DBB\u0DBD\u0DC0-\u0'
	DB	'DC6\u0DCA\u0DCF-\u0DD4\u0DD6\u0DD8-\u0DDE\u0DF2\u0E01-\u0E32\'
	DB	'u0E34-\u0E3A\u0E40-\u0E4E\u0E50-\u0E59\u0E81-\u0E82\u0E84\u0E'
	DB	'87-\u0E88\u0E8A\u0E8D\u0E94-\u0E97\u0E99-\u0E9F\u0EA1-\u0EA3\'
	DB	'u0EA5\u0EA7\u0EAA-\u0EAB\u0EAD-\u0EB2\u0EB4-\u0EB9\u0EBB-\u0E'
	DB	'BD\u0EC0-\u0EC4\u0EC6\u0EC8-\u0ECD\u0ED0-\u0ED9\u0EDE-\u0EDF\'
	DB	'u0F00\u0F20-\u0F29\u0F35\u0F37\u0F3E-\u0F42\u0F44-\u0F47\u0F4'
	DB	'9-\u0F4C\u0F4E-\u0F51\u0F53-\u0F56\u0F58-\u0F5B\u0F5D-\u0F68\'
	DB	'u0F6A-\u0F6C\u0F71-\u0F72\u0F74\u0F7A-\u0F80\u0F82-\u0F84\u0F'
	DB	'86-\u0F92\u0F94-\u0F97\u0F99-\u0F9C\u0F9E-\u0FA1\u0FA3-\u0FA6'
	DB	'\u0FA8-\u0FAB\u0FAD-\u0FB8\u0FBA-\u0FBC\u0FC6\u1000-\u1049\u1'
	DB	'050-\u109D\u10C7\u10CD\u10D0-\u10F0\u10F7-\u10FA\u10FD-\u10FF'
	DB	'\u1200-\u1248\u124A-\u124D\u1250-\u1256\u1258\u125A-\u125D\u1'
	DB	'260-\u1288\u128A-\u128D\u1290-\u12B0\u12B2-\u12B5\u12B8-\u12B'
	DB	'E\u12C0\u12C2-\u12C5\u12C8-\u12D6\u12D8-\u1310\u1312-\u1315\u'
	DB	'1318-\u135A\u135D-\u135F\u1380-\u138F\u1780-\u17A2\u17A5-\u17'
	DB	'A7\u17A9-\u17B3\u17B6-\u17CA\u17D2\u17D7\u17DC\u17E0-\u17E9\u'
	DB	'1E00-\u1E99\u1E9E\u1EA0-\u1EF9\u1F00-\u1F15\u1F18-\u1F1D\u1F2'
	DB	'0-\u1F45\u1F48-\u1F4D\u1F50-\u1F57\u1F59\u1F5B\u1F5D\u1F5F-\u'
	DB	'1F70\u1F72\u1F74\u1F76\u1F78\u1F7A\u1F7C\u1F80-\u1FB4\u1FB6-\'
	DB	'u1FBA\u1FBC\u1FC2-\u1FC4\u1FC6-\u1FC8\u1FCA\u1FCC\u1FD0-\u1FD'
	DB	'2\u1FD6-\u1FDA\u1FE0-\u1FE2\u1FE4-\u1FEA\u1FEC\u1FF2-\u1FF4\u'
	DB	'1FF6-\u1FF8\u1FFA\u1FFC\u2D27\u2D2D\u2D80-\u2D96\u2DA0-\u2DA6'
	DB	'\u2DA8-\u2DAE\u2DB0-\u2DB6\u2DB8-\u2DBE\u2DC0-\u2DC6\u2DC8-\u'
	DB	'2DCE\u2DD0-\u2DD6\u2DD8-\u2DDE\u3005-\u3007\u3041-\u3096\u309'
	DB	'9-\u309A\u309D-\u309E\u30A1-\u30FA\u30FC-\u30FE\u3105-\u312D\'
	DB	'u31A0-\u31BA\u3400-\u4DB5\u4E00-\u9FD5\uA660-\uA661\uA674-\uA'
	DB	'67B\uA67F\uA69F\uA717-\uA71F\uA788\uA78D-\uA78E\uA790-\uA793\'
	DB	'uA7A0-\uA7AA\uA7FA\uA9E7-\uA9FE\uAA60-\uAA76\uAA7A-\uAA7F\uAB'
	DB	'01-\uAB06\uAB09-\uAB0E\uAB11-\uAB16\uAB20-\uAB26\uAB28-\uAB2E'
	DB	'\uAC00-\uD7A3\uFA0E-\uFA0F\uFA11\uFA13-\uFA14\uFA1F\uFA21\uFA'
	DB	'23-\uFA24\uFA27-\uFA29\U00020000-\U0002A6D6\U0002A700-\U0002B'
	DB	'734\U0002B740-\U0002B81D\U0002B820-\U0002CEA1]', 00H ; `string'
CONST	ENDS
_DATA	SEGMENT
?inclusionPat@?1??initializeStatics@@YAXAAW4UErrorCode@@@Z@4PBDB DD FLAT:??_C@_0HJ@OADLBNPH@?$FL?2u0027?2u002D?9?2u002E?2u003A?2u00B7@ ; `initializeStatics'::`2'::inclusionPat
?recommendedPat@?1??initializeStatics@@YAXAAW4UErrorCode@@@Z@4PBDB DD FLAT:??_C@_0BACK@CDOMAMMN@?$FL?2u0030?9?2u0039?2u0041?9?2u005A?2u005@ ; `initializeStatics'::`2'::recommendedPat
_DATA	ENDS
;	COMDAT ??_C@_0HJ@OADLBNPH@?$FL?2u0027?2u002D?9?2u002E?2u003A?2u00B7@
CONST	SEGMENT
??_C@_0HJ@OADLBNPH@?$FL?2u0027?2u002D?9?2u002E?2u003A?2u00B7@ DB '[\u0027'
	DB	'\u002D-\u002E\u003A\u00B7\u0375\u058A\u05F3-\u05F4\u06FD-\u06'
	DB	'FE\u0F0B\u200C-\u200D\u2010\u2019\u2027\u30A0\u30FB]', 00H ; `string'
CONST	ENDS
;	COMDAT ?end@?$_Iosb@H@std@@2W4_Seekdir@12@B
CONST	SEGMENT
?end@?$_Iosb@H@std@@2W4_Seekdir@12@B DD 02H		; std::_Iosb<int>::end
CONST	ENDS
;	COMDAT ?cur@?$_Iosb@H@std@@2W4_Seekdir@12@B
CONST	SEGMENT
?cur@?$_Iosb@H@std@@2W4_Seekdir@12@B DD 01H		; std::_Iosb<int>::cur
CONST	ENDS
;	COMDAT ?beg@?$_Iosb@H@std@@2W4_Seekdir@12@B
CONST	SEGMENT
?beg@?$_Iosb@H@std@@2W4_Seekdir@12@B DD 00H		; std::_Iosb<int>::beg
CONST	ENDS
;	COMDAT ?binary@?$_Iosb@H@std@@2W4_Openmode@12@B
CONST	SEGMENT
?binary@?$_Iosb@H@std@@2W4_Openmode@12@B DD 020H	; std::_Iosb<int>::binary
CONST	ENDS
;	COMDAT ?_Noreplace@?$_Iosb@H@std@@2W4_Openmode@12@B
CONST	SEGMENT
?_Noreplace@?$_Iosb@H@std@@2W4_Openmode@12@B DD 080H	; std::_Iosb<int>::_Noreplace
CONST	ENDS
;	COMDAT ?_Nocreate@?$_Iosb@H@std@@2W4_Openmode@12@B
CONST	SEGMENT
?_Nocreate@?$_Iosb@H@std@@2W4_Openmode@12@B DD 040H	; std::_Iosb<int>::_Nocreate
CONST	ENDS
;	COMDAT ?trunc@?$_Iosb@H@std@@2W4_Openmode@12@B
CONST	SEGMENT
?trunc@?$_Iosb@H@std@@2W4_Openmode@12@B DD 010H		; std::_Iosb<int>::trunc
CONST	ENDS
;	COMDAT ?app@?$_Iosb@H@std@@2W4_Openmode@12@B
CONST	SEGMENT
?app@?$_Iosb@H@std@@2W4_Openmode@12@B DD 08H		; std::_Iosb<int>::app
CONST	ENDS
;	COMDAT ?ate@?$_Iosb@H@std@@2W4_Openmode@12@B
CONST	SEGMENT
?ate@?$_Iosb@H@std@@2W4_Openmode@12@B DD 04H		; std::_Iosb<int>::ate
CONST	ENDS
;	COMDAT ?out@?$_Iosb@H@std@@2W4_Openmode@12@B
CONST	SEGMENT
?out@?$_Iosb@H@std@@2W4_Openmode@12@B DD 02H		; std::_Iosb<int>::out
CONST	ENDS
;	COMDAT ?in@?$_Iosb@H@std@@2W4_Openmode@12@B
CONST	SEGMENT
?in@?$_Iosb@H@std@@2W4_Openmode@12@B DD 01H		; std::_Iosb<int>::in
CONST	ENDS
;	COMDAT ?_Hardfail@?$_Iosb@H@std@@2W4_Iostate@12@B
CONST	SEGMENT
?_Hardfail@?$_Iosb@H@std@@2W4_Iostate@12@B DD 010H	; std::_Iosb<int>::_Hardfail
CONST	ENDS
;	COMDAT ?badbit@?$_Iosb@H@std@@2W4_Iostate@12@B
CONST	SEGMENT
?badbit@?$_Iosb@H@std@@2W4_Iostate@12@B DD 04H		; std::_Iosb<int>::badbit
CONST	ENDS
;	COMDAT ?failbit@?$_Iosb@H@std@@2W4_Iostate@12@B
CONST	SEGMENT
?failbit@?$_Iosb@H@std@@2W4_Iostate@12@B DD 02H		; std::_Iosb<int>::failbit
CONST	ENDS
;	COMDAT ?eofbit@?$_Iosb@H@std@@2W4_Iostate@12@B
CONST	SEGMENT
?eofbit@?$_Iosb@H@std@@2W4_Iostate@12@B DD 01H		; std::_Iosb<int>::eofbit
CONST	ENDS
;	COMDAT ?goodbit@?$_Iosb@H@std@@2W4_Iostate@12@B
CONST	SEGMENT
?goodbit@?$_Iosb@H@std@@2W4_Iostate@12@B DD 00H		; std::_Iosb<int>::goodbit
CONST	ENDS
;	COMDAT ?floatfield@?$_Iosb@H@std@@2W4_Fmtflags@12@B
CONST	SEGMENT
?floatfield@?$_Iosb@H@std@@2W4_Fmtflags@12@B DD 03000H	; std::_Iosb<int>::floatfield
CONST	ENDS
;	COMDAT ?basefield@?$_Iosb@H@std@@2W4_Fmtflags@12@B
CONST	SEGMENT
?basefield@?$_Iosb@H@std@@2W4_Fmtflags@12@B DD 0e00H	; std::_Iosb<int>::basefield
CONST	ENDS
;	COMDAT ?adjustfield@?$_Iosb@H@std@@2W4_Fmtflags@12@B
CONST	SEGMENT
?adjustfield@?$_Iosb@H@std@@2W4_Fmtflags@12@B DD 01c0H	; std::_Iosb<int>::adjustfield
CONST	ENDS
;	COMDAT ?_Stdio@?$_Iosb@H@std@@2W4_Fmtflags@12@B
CONST	SEGMENT
?_Stdio@?$_Iosb@H@std@@2W4_Fmtflags@12@B DD 08000H	; std::_Iosb<int>::_Stdio
CONST	ENDS
;	COMDAT ?boolalpha@?$_Iosb@H@std@@2W4_Fmtflags@12@B
CONST	SEGMENT
?boolalpha@?$_Iosb@H@std@@2W4_Fmtflags@12@B DD 04000H	; std::_Iosb<int>::boolalpha
CONST	ENDS
;	COMDAT ?hexfloat@?$_Iosb@H@std@@2W4_Fmtflags@12@B
CONST	SEGMENT
?hexfloat@?$_Iosb@H@std@@2W4_Fmtflags@12@B DD 03000H	; std::_Iosb<int>::hexfloat
CONST	ENDS
;	COMDAT ?fixed@?$_Iosb@H@std@@2W4_Fmtflags@12@B
CONST	SEGMENT
?fixed@?$_Iosb@H@std@@2W4_Fmtflags@12@B DD 02000H	; std::_Iosb<int>::fixed
CONST	ENDS
;	COMDAT ?scientific@?$_Iosb@H@std@@2W4_Fmtflags@12@B
CONST	SEGMENT
?scientific@?$_Iosb@H@std@@2W4_Fmtflags@12@B DD 01000H	; std::_Iosb<int>::scientific
CONST	ENDS
;	COMDAT ?hex@?$_Iosb@H@std@@2W4_Fmtflags@12@B
CONST	SEGMENT
?hex@?$_Iosb@H@std@@2W4_Fmtflags@12@B DD 0800H		; std::_Iosb<int>::hex
CONST	ENDS
;	COMDAT ?oct@?$_Iosb@H@std@@2W4_Fmtflags@12@B
CONST	SEGMENT
?oct@?$_Iosb@H@std@@2W4_Fmtflags@12@B DD 0400H		; std::_Iosb<int>::oct
CONST	ENDS
;	COMDAT ?dec@?$_Iosb@H@std@@2W4_Fmtflags@12@B
CONST	SEGMENT
?dec@?$_Iosb@H@std@@2W4_Fmtflags@12@B DD 0200H		; std::_Iosb<int>::dec
CONST	ENDS
;	COMDAT ?internal@?$_Iosb@H@std@@2W4_Fmtflags@12@B
CONST	SEGMENT
?internal@?$_Iosb@H@std@@2W4_Fmtflags@12@B DD 0100H	; std::_Iosb<int>::internal
CONST	ENDS
;	COMDAT ?right@?$_Iosb@H@std@@2W4_Fmtflags@12@B
CONST	SEGMENT
?right@?$_Iosb@H@std@@2W4_Fmtflags@12@B DD 080H		; std::_Iosb<int>::right
CONST	ENDS
;	COMDAT ?left@?$_Iosb@H@std@@2W4_Fmtflags@12@B
CONST	SEGMENT
?left@?$_Iosb@H@std@@2W4_Fmtflags@12@B DD 040H		; std::_Iosb<int>::left
CONST	ENDS
;	COMDAT ?showpos@?$_Iosb@H@std@@2W4_Fmtflags@12@B
CONST	SEGMENT
?showpos@?$_Iosb@H@std@@2W4_Fmtflags@12@B DD 020H	; std::_Iosb<int>::showpos
CONST	ENDS
;	COMDAT ?showpoint@?$_Iosb@H@std@@2W4_Fmtflags@12@B
CONST	SEGMENT
?showpoint@?$_Iosb@H@std@@2W4_Fmtflags@12@B DD 010H	; std::_Iosb<int>::showpoint
CONST	ENDS
;	COMDAT ?showbase@?$_Iosb@H@std@@2W4_Fmtflags@12@B
CONST	SEGMENT
?showbase@?$_Iosb@H@std@@2W4_Fmtflags@12@B DD 08H	; std::_Iosb<int>::showbase
CONST	ENDS
;	COMDAT ?uppercase@?$_Iosb@H@std@@2W4_Fmtflags@12@B
CONST	SEGMENT
?uppercase@?$_Iosb@H@std@@2W4_Fmtflags@12@B DD 04H	; std::_Iosb<int>::uppercase
CONST	ENDS
;	COMDAT ?unitbuf@?$_Iosb@H@std@@2W4_Fmtflags@12@B
CONST	SEGMENT
?unitbuf@?$_Iosb@H@std@@2W4_Fmtflags@12@B DD 02H	; std::_Iosb<int>::unitbuf
CONST	ENDS
;	COMDAT ?skipws@?$_Iosb@H@std@@2W4_Fmtflags@12@B
CONST	SEGMENT
?skipws@?$_Iosb@H@std@@2W4_Fmtflags@12@B DD 01H		; std::_Iosb<int>::skipws
CONST	ENDS
;	COMDAT ?none@?$_Locbase@H@std@@2HB
CONST	SEGMENT
?none@?$_Locbase@H@std@@2HB DD 00H			; std::_Locbase<int>::none
CONST	ENDS
;	COMDAT ?all@?$_Locbase@H@std@@2HB
CONST	SEGMENT
?all@?$_Locbase@H@std@@2HB DD 03fH			; std::_Locbase<int>::all
CONST	ENDS
;	COMDAT ?messages@?$_Locbase@H@std@@2HB
CONST	SEGMENT
?messages@?$_Locbase@H@std@@2HB DD 020H			; std::_Locbase<int>::messages
CONST	ENDS
;	COMDAT ?time@?$_Locbase@H@std@@2HB
CONST	SEGMENT
?time@?$_Locbase@H@std@@2HB DD 010H			; std::_Locbase<int>::time
CONST	ENDS
;	COMDAT ?numeric@?$_Locbase@H@std@@2HB
CONST	SEGMENT
?numeric@?$_Locbase@H@std@@2HB DD 08H			; std::_Locbase<int>::numeric
CONST	ENDS
;	COMDAT ?monetary@?$_Locbase@H@std@@2HB
CONST	SEGMENT
?monetary@?$_Locbase@H@std@@2HB DD 04H			; std::_Locbase<int>::monetary
CONST	ENDS
;	COMDAT ?ctype@?$_Locbase@H@std@@2HB
CONST	SEGMENT
?ctype@?$_Locbase@H@std@@2HB DD 02H			; std::_Locbase<int>::ctype
CONST	ENDS
;	COMDAT ?collate@?$_Locbase@H@std@@2HB
CONST	SEGMENT
?collate@?$_Locbase@H@std@@2HB DD 01H			; std::_Locbase<int>::collate
CONST	ENDS
;	COMDAT ?_Rank@?$_Arithmetic_traits@O@std@@2HB
CONST	SEGMENT
?_Rank@?$_Arithmetic_traits@O@std@@2HB DD 09H		; std::_Arithmetic_traits<long double>::_Rank
CONST	ENDS
;	COMDAT ?_Rank@?$_Arithmetic_traits@N@std@@2HB
CONST	SEGMENT
?_Rank@?$_Arithmetic_traits@N@std@@2HB DD 08H		; std::_Arithmetic_traits<double>::_Rank
CONST	ENDS
;	COMDAT ?_Rank@?$_Arithmetic_traits@M@std@@2HB
CONST	SEGMENT
?_Rank@?$_Arithmetic_traits@M@std@@2HB DD 07H		; std::_Arithmetic_traits<float>::_Rank
CONST	ENDS
;	COMDAT ?_Rank@?$_Arithmetic_traits@_K@std@@2HB
CONST	SEGMENT
?_Rank@?$_Arithmetic_traits@_K@std@@2HB DD 06H		; std::_Arithmetic_traits<unsigned __int64>::_Rank
CONST	ENDS
;	COMDAT ?_Rank@?$_Arithmetic_traits@_J@std@@2HB
CONST	SEGMENT
?_Rank@?$_Arithmetic_traits@_J@std@@2HB DD 06H		; std::_Arithmetic_traits<__int64>::_Rank
CONST	ENDS
;	COMDAT ?_Rank@?$_Arithmetic_traits@K@std@@2HB
CONST	SEGMENT
?_Rank@?$_Arithmetic_traits@K@std@@2HB DD 05H		; std::_Arithmetic_traits<unsigned long>::_Rank
CONST	ENDS
;	COMDAT ?_Rank@?$_Arithmetic_traits@J@std@@2HB
CONST	SEGMENT
?_Rank@?$_Arithmetic_traits@J@std@@2HB DD 05H		; std::_Arithmetic_traits<long>::_Rank
CONST	ENDS
;	COMDAT ?_Rank@?$_Arithmetic_traits@I@std@@2HB
CONST	SEGMENT
?_Rank@?$_Arithmetic_traits@I@std@@2HB DD 04H		; std::_Arithmetic_traits<unsigned int>::_Rank
CONST	ENDS
;	COMDAT ?_Rank@?$_Arithmetic_traits@H@std@@2HB
CONST	SEGMENT
?_Rank@?$_Arithmetic_traits@H@std@@2HB DD 04H		; std::_Arithmetic_traits<int>::_Rank
CONST	ENDS
;	COMDAT ?_Rank@?$_Arithmetic_traits@G@std@@2HB
CONST	SEGMENT
?_Rank@?$_Arithmetic_traits@G@std@@2HB DD 03H		; std::_Arithmetic_traits<unsigned short>::_Rank
CONST	ENDS
;	COMDAT ?_Rank@?$_Arithmetic_traits@F@std@@2HB
CONST	SEGMENT
?_Rank@?$_Arithmetic_traits@F@std@@2HB DD 03H		; std::_Arithmetic_traits<short>::_Rank
CONST	ENDS
;	COMDAT ?_Rank@?$_Arithmetic_traits@E@std@@2HB
CONST	SEGMENT
?_Rank@?$_Arithmetic_traits@E@std@@2HB DD 02H		; std::_Arithmetic_traits<unsigned char>::_Rank
CONST	ENDS
;	COMDAT ?_Rank@?$_Arithmetic_traits@C@std@@2HB
CONST	SEGMENT
?_Rank@?$_Arithmetic_traits@C@std@@2HB DD 02H		; std::_Arithmetic_traits<signed char>::_Rank
CONST	ENDS
;	COMDAT ?_Rank@?$_Arithmetic_traits@D@std@@2HB
CONST	SEGMENT
?_Rank@?$_Arithmetic_traits@D@std@@2HB DD 02H		; std::_Arithmetic_traits<char>::_Rank
CONST	ENDS
;	COMDAT ?_Rank@?$_Arithmetic_traits@_N@std@@2HB
CONST	SEGMENT
?_Rank@?$_Arithmetic_traits@_N@std@@2HB DD 01H		; std::_Arithmetic_traits<bool>::_Rank
CONST	ENDS
;	COMDAT ?value@?$integral_constant@I$0A@@tr1@std@@2IB
CONST	SEGMENT
?value@?$integral_constant@I$0A@@tr1@std@@2IB DD 00H	; std::tr1::integral_constant<unsigned int,0>::value
CONST	ENDS
;	COMDAT ?value@?$integral_constant@_N$00@tr1@std@@2_NB
CONST	SEGMENT
?value@?$integral_constant@_N$00@tr1@std@@2_NB DB 01H	; std::tr1::integral_constant<bool,1>::value
CONST	ENDS
;	COMDAT ?value@?$integral_constant@_N$0A@@tr1@std@@2_NB
CONST	SEGMENT
?value@?$integral_constant@_N$0A@@tr1@std@@2_NB DB 00H	; std::tr1::integral_constant<bool,0>::value
CONST	ENDS
PUBLIC	??2@YAPAXI@Z					; operator new
EXTRN	__RTC_Shutdown:PROC
EXTRN	__RTC_InitBase:PROC
;	COMDAT rtc$TMZ
; File d:\mozilla\intl\icu\include\unicode\utypes.h
rtc$TMZ	SEGMENT
__RTC_Shutdown.rtc$TMZ DD FLAT:__RTC_Shutdown
rtc$TMZ	ENDS
;	COMDAT rtc$IMZ
rtc$IMZ	SEGMENT
__RTC_InitBase.rtc$IMZ DD FLAT:__RTC_InitBase
; Function compile flags: /Odtp /RTCsu /ZI
rtc$IMZ	ENDS
;	COMDAT ??2@YAPAXI@Z
_TEXT	SEGMENT
_q$ = -8						; size = 4
___formal$ = 8						; size = 4
??2@YAPAXI@Z PROC					; operator new, COMDAT
; Line 411
	push	ebp
	mov	ebp, esp
	sub	esp, 204				; 000000ccH
	push	ebx
	push	esi
	push	edi
	lea	edi, DWORD PTR [ebp-204]
	mov	ecx, 51					; 00000033H
	mov	eax, -858993460				; ccccccccH
	rep stosd
; Line 412
	mov	DWORD PTR _q$[ebp], 0
; Line 413
	mov	eax, DWORD PTR _q$[ebp]
	mov	BYTE PTR [eax], 5
; Line 414
	mov	eax, DWORD PTR _q$[ebp]
; Line 415
	pop	edi
	pop	esi
	pop	ebx
	mov	esp, ebp
	pop	ebp
	ret	0
??2@YAPAXI@Z ENDP					; operator new
_TEXT	ENDS
PUBLIC	??3@YAXPAX@Z					; operator delete
; Function compile flags: /Odtp /RTCsu /ZI
;	COMDAT ??3@YAXPAX@Z
_TEXT	SEGMENT
_q$ = -8						; size = 4
___formal$ = 8						; size = 4
??3@YAXPAX@Z PROC					; operator delete, COMDAT
; Line 439
	push	ebp
	mov	ebp, esp
	sub	esp, 204				; 000000ccH
	push	ebx
	push	esi
	push	edi
	lea	edi, DWORD PTR [ebp-204]
	mov	ecx, 51					; 00000033H
	mov	eax, -858993460				; ccccccccH
	rep stosd
; Line 440
	mov	DWORD PTR _q$[ebp], 0
; Line 441
	mov	eax, DWORD PTR _q$[ebp]
	mov	BYTE PTR [eax], 5
; Line 442
	pop	edi
	pop	esi
	pop	ebx
	mov	esp, ebp
	pop	ebp
	ret	0
??3@YAXPAX@Z ENDP					; operator delete
_TEXT	ENDS
PUBLIC	??4IdentifierInfo@icu_56@@QAEAAV01@ABV01@@Z	; icu_56::IdentifierInfo::operator=
; Function compile flags: /Odtp /RTCsu /ZI
;	COMDAT ??4IdentifierInfo@icu_56@@QAEAAV01@ABV01@@Z
_TEXT	SEGMENT
_this$ = -8						; size = 4
___that$ = 8						; size = 4
??4IdentifierInfo@icu_56@@QAEAAV01@ABV01@@Z PROC	; icu_56::IdentifierInfo::operator=, COMDAT
; _this$ = ecx
	push	ebp
	mov	ebp, esp
	sub	esp, 204				; 000000ccH
	push	ebx
	push	esi
	push	edi
	push	ecx
	lea	edi, DWORD PTR [ebp-204]
	mov	ecx, 51					; 00000033H
	mov	eax, -858993460				; ccccccccH
	rep stosd
	pop	ecx
	mov	DWORD PTR _this$[ebp], ecx
	mov	eax, DWORD PTR _this$[ebp]
	mov	ecx, DWORD PTR ___that$[ebp]
	mov	edx, DWORD PTR [ecx+4]
	mov	DWORD PTR [eax+4], edx
	mov	eax, DWORD PTR _this$[ebp]
	mov	ecx, DWORD PTR ___that$[ebp]
	mov	edx, DWORD PTR [ecx+8]
	mov	DWORD PTR [eax+8], edx
	mov	eax, DWORD PTR _this$[ebp]
	mov	ecx, DWORD PTR ___that$[ebp]
	mov	edx, DWORD PTR [ecx+12]
	mov	DWORD PTR [eax+12], edx
	mov	eax, DWORD PTR _this$[ebp]
	mov	ecx, DWORD PTR ___that$[ebp]
	mov	edx, DWORD PTR [ecx+16]
	mov	DWORD PTR [eax+16], edx
	mov	eax, DWORD PTR _this$[ebp]
	mov	ecx, DWORD PTR ___that$[ebp]
	mov	edx, DWORD PTR [ecx+20]
	mov	DWORD PTR [eax+20], edx
	mov	eax, DWORD PTR _this$[ebp]
	mov	ecx, DWORD PTR ___that$[ebp]
	mov	edx, DWORD PTR [ecx+24]
	mov	DWORD PTR [eax+24], edx
	mov	eax, DWORD PTR _this$[ebp]
	pop	edi
	pop	esi
	pop	ebx
	mov	esp, ebp
	pop	ebp
	ret	4
??4IdentifierInfo@icu_56@@QAEAAV01@ABV01@@Z ENDP	; icu_56::IdentifierInfo::operator=
_TEXT	ENDS
PUBLIC	?umtx_initOnce@icu_56@@YAXAAUUInitOnce@1@P6AXAAW4UErrorCode@@@Z1@Z ; icu_56::umtx_initOnce
PUBLIC	_uspoof_internalInitStatics_56
EXTRN	__RTC_CheckEsp:PROC
; Function compile flags: /Odtp /RTCsu /ZI
;	COMDAT _uspoof_internalInitStatics_56
_TEXT	SEGMENT
_status$ = 8						; size = 4
_uspoof_internalInitStatics_56 PROC			; COMDAT
; File d:\mozilla\intl\icu\source\i18n\uspoof.cpp
; Line 143
	push	ebp
	mov	ebp, esp
	sub	esp, 192				; 000000c0H
	push	ebx
	push	esi
	push	edi
	lea	edi, DWORD PTR [ebp-192]
	mov	ecx, 48					; 00000030H
	mov	eax, -858993460				; ccccccccH
	rep stosd
; Line 144
	mov	eax, DWORD PTR _status$[ebp]
	push	eax
	push	OFFSET ?initializeStatics@@YAXAAW4UErrorCode@@@Z ; initializeStatics
	push	OFFSET _gSpoofInitStaticsOnce
	call	?umtx_initOnce@icu_56@@YAXAAUUInitOnce@1@P6AXAAW4UErrorCode@@@Z1@Z ; icu_56::umtx_initOnce
	add	esp, 12					; 0000000cH
; Line 145
	pop	edi
	pop	esi
	pop	ebx
	add	esp, 192				; 000000c0H
	cmp	ebp, esp
	call	__RTC_CheckEsp
	mov	esp, ebp
	pop	ebp
	ret	0
_uspoof_internalInitStatics_56 ENDP
_TEXT	ENDS
PUBLIC	?umtx_loadAcquire@icu_56@@YAHACJ@Z		; icu_56::umtx_loadAcquire
EXTRN	__imp_?umtx_initImplPostInit@icu_56@@YAXAAUUInitOnce@1@@Z:PROC
EXTRN	__imp_?umtx_initImplPreInit@icu_56@@YACAAUUInitOnce@1@@Z:PROC
; Function compile flags: /Odtp /RTCsu /ZI
;	COMDAT ?umtx_initOnce@icu_56@@YAXAAUUInitOnce@1@P6AXAAW4UErrorCode@@@Z1@Z
_TEXT	SEGMENT
_uio$ = 8						; size = 4
_fp$ = 12						; size = 4
_errCode$ = 16						; size = 4
?umtx_initOnce@icu_56@@YAXAAUUInitOnce@1@P6AXAAW4UErrorCode@@@Z1@Z PROC ; icu_56::umtx_initOnce, COMDAT
; File d:\mozilla\intl\icu\source\common\umutex.h
; Line 257
	push	ebp
	mov	ebp, esp
	sub	esp, 192				; 000000c0H
	push	ebx
	push	esi
	push	edi
	lea	edi, DWORD PTR [ebp-192]
	mov	ecx, 48					; 00000030H
	mov	eax, -858993460				; ccccccccH
	rep stosd
; Line 258
	mov	eax, DWORD PTR _errCode$[ebp]
	mov	ecx, DWORD PTR [eax]
	push	ecx
	call	?U_FAILURE@@YACW4UErrorCode@@@Z		; U_FAILURE
	add	esp, 4
	movsx	edx, al
	test	edx, edx
	je	SHORT $LN4@umtx_initO
; Line 259
	jmp	$LN5@umtx_initO
$LN4@umtx_initO:
; Line 261
	mov	eax, DWORD PTR _uio$[ebp]
	push	eax
	call	?umtx_loadAcquire@icu_56@@YAHACJ@Z	; icu_56::umtx_loadAcquire
	add	esp, 4
	cmp	eax, 2
	je	SHORT $LN3@umtx_initO
	mov	esi, esp
	mov	eax, DWORD PTR _uio$[ebp]
	push	eax
	call	DWORD PTR __imp_?umtx_initImplPreInit@icu_56@@YACAAUUInitOnce@1@@Z
	add	esp, 4
	cmp	esi, esp
	call	__RTC_CheckEsp
	movsx	ecx, al
	test	ecx, ecx
	je	SHORT $LN3@umtx_initO
; Line 263
	mov	esi, esp
	mov	eax, DWORD PTR _errCode$[ebp]
	push	eax
	call	DWORD PTR _fp$[ebp]
	add	esp, 4
	cmp	esi, esp
	call	__RTC_CheckEsp
; Line 264
	mov	eax, DWORD PTR _uio$[ebp]
	mov	ecx, DWORD PTR _errCode$[ebp]
	mov	edx, DWORD PTR [ecx]
	mov	DWORD PTR [eax+4], edx
; Line 265
	mov	esi, esp
	mov	eax, DWORD PTR _uio$[ebp]
	push	eax
	call	DWORD PTR __imp_?umtx_initImplPostInit@icu_56@@YAXAAUUInitOnce@1@@Z
	add	esp, 4
	cmp	esi, esp
	call	__RTC_CheckEsp
; Line 266
	jmp	SHORT $LN5@umtx_initO
$LN3@umtx_initO:
; Line 268
	mov	eax, DWORD PTR _uio$[ebp]
	mov	ecx, DWORD PTR [eax+4]
	push	ecx
	call	?U_FAILURE@@YACW4UErrorCode@@@Z		; U_FAILURE
	add	esp, 4
	movsx	edx, al
	test	edx, edx
	je	SHORT $LN5@umtx_initO
; Line 269
	mov	eax, DWORD PTR _errCode$[ebp]
	mov	ecx, DWORD PTR _uio$[ebp]
	mov	edx, DWORD PTR [ecx+4]
	mov	DWORD PTR [eax], edx
$LN5@umtx_initO:
; Line 272
	pop	edi
	pop	esi
	pop	ebx
	add	esp, 192				; 000000c0H
	cmp	ebp, esp
	call	__RTC_CheckEsp
	mov	esp, ebp
	pop	ebp
	ret	0
?umtx_initOnce@icu_56@@YAXAAUUInitOnce@1@P6AXAAW4UErrorCode@@@Z1@Z ENDP ; icu_56::umtx_initOnce
; Function compile flags: /Odtp /RTCsu /ZI
_TEXT	ENDS
;	COMDAT ?U_FAILURE@@YACW4UErrorCode@@@Z
_TEXT	SEGMENT
_code$ = 8						; size = 4
?U_FAILURE@@YACW4UErrorCode@@@Z PROC			; U_FAILURE, COMDAT
; File d:\mozilla\intl\icu\include\unicode\utypes.h
; Line 705
	push	ebp
	mov	ebp, esp
	sub	esp, 192				; 000000c0H
	push	ebx
	push	esi
	push	edi
	lea	edi, DWORD PTR [ebp-192]
	mov	ecx, 48					; 00000030H
	mov	eax, -858993460				; ccccccccH
	rep stosd
	cmp	DWORD PTR _code$[ebp], 0
	setg	al
	pop	edi
	pop	esi
	pop	ebx
	mov	esp, ebp
	pop	ebp
	ret	0
?U_FAILURE@@YACW4UErrorCode@@@Z ENDP			; U_FAILURE
_TEXT	ENDS
EXTRN	__imp__InterlockedCompareExchange@12:PROC
; Function compile flags: /Odtp /RTCsu /ZI
;	COMDAT ?umtx_loadAcquire@icu_56@@YAHACJ@Z
_TEXT	SEGMENT
_var$ = 8						; size = 4
?umtx_loadAcquire@icu_56@@YAHACJ@Z PROC			; icu_56::umtx_loadAcquire, COMDAT
; File d:\mozilla\intl\icu\source\common\umutex.h
; Line 102
	push	ebp
	mov	ebp, esp
	sub	esp, 192				; 000000c0H
	push	ebx
	push	esi
	push	edi
	lea	edi, DWORD PTR [ebp-192]
	mov	ecx, 48					; 00000030H
	mov	eax, -858993460				; ccccccccH
	rep stosd
; Line 103
	mov	esi, esp
	push	0
	push	0
	mov	eax, DWORD PTR _var$[ebp]
	push	eax
	call	DWORD PTR __imp__InterlockedCompareExchange@12
	cmp	esi, esp
	call	__RTC_CheckEsp
; Line 104
	pop	edi
	pop	esi
	pop	ebx
	add	esp, 192				; 000000c0H
	cmp	ebp, esp
	call	__RTC_CheckEsp
	mov	esp, ebp
	pop	ebp
	ret	0
?umtx_loadAcquire@icu_56@@YAHACJ@Z ENDP			; icu_56::umtx_loadAcquire
_TEXT	ENDS
PUBLIC	??_SUnicodeSet@icu_56@@6BUnicodeMatcher@1@@	; icu_56::UnicodeSet::`local vftable'
PUBLIC	??_SUnicodeSet@icu_56@@6BUnicodeFunctor@1@@	; icu_56::UnicodeSet::`local vftable'
PUBLIC	__$ArrayPad$
PUBLIC	??_R4UnicodeSet@icu_56@@6BUnicodeFunctor@1@@	; icu_56::UnicodeSet::`RTTI Complete Object Locator'
PUBLIC	??_R0?AVUnicodeSet@icu_56@@@8			; icu_56::UnicodeSet `RTTI Type Descriptor'
PUBLIC	??_R3UnicodeSet@icu_56@@8			; icu_56::UnicodeSet::`RTTI Class Hierarchy Descriptor'
PUBLIC	??_R2UnicodeSet@icu_56@@8			; icu_56::UnicodeSet::`RTTI Base Class Array'
PUBLIC	??_R1A@?0A@EA@UnicodeSet@icu_56@@8		; icu_56::UnicodeSet::`RTTI Base Class Descriptor at (0,-1,0,64)'
PUBLIC	??_R1A@?0A@EA@UnicodeFilter@icu_56@@8		; icu_56::UnicodeFilter::`RTTI Base Class Descriptor at (0,-1,0,64)'
PUBLIC	??_R0?AVUnicodeFilter@icu_56@@@8		; icu_56::UnicodeFilter `RTTI Type Descriptor'
PUBLIC	??_R3UnicodeFilter@icu_56@@8			; icu_56::UnicodeFilter::`RTTI Class Hierarchy Descriptor'
PUBLIC	??_R2UnicodeFilter@icu_56@@8			; icu_56::UnicodeFilter::`RTTI Base Class Array'
PUBLIC	??_R1A@?0A@EA@UnicodeFunctor@icu_56@@8		; icu_56::UnicodeFunctor::`RTTI Base Class Descriptor at (0,-1,0,64)'
PUBLIC	??_R0?AVUnicodeFunctor@icu_56@@@8		; icu_56::UnicodeFunctor `RTTI Type Descriptor'
PUBLIC	??_R3UnicodeFunctor@icu_56@@8			; icu_56::UnicodeFunctor::`RTTI Class Hierarchy Descriptor'
PUBLIC	??_R2UnicodeFunctor@icu_56@@8			; icu_56::UnicodeFunctor::`RTTI Base Class Array'
PUBLIC	??_R1A@?0A@EA@UObject@icu_56@@8			; icu_56::UObject::`RTTI Base Class Descriptor at (0,-1,0,64)'
PUBLIC	??_R0?AVUObject@icu_56@@@8			; icu_56::UObject `RTTI Type Descriptor'
PUBLIC	??_R3UObject@icu_56@@8				; icu_56::UObject::`RTTI Class Hierarchy Descriptor'
PUBLIC	??_R2UObject@icu_56@@8				; icu_56::UObject::`RTTI Base Class Array'
PUBLIC	??_R13?0A@EA@UMemory@icu_56@@8			; icu_56::UMemory::`RTTI Base Class Descriptor at (4,-1,0,64)'
PUBLIC	??_R0?AVUMemory@icu_56@@@8			; icu_56::UMemory `RTTI Type Descriptor'
PUBLIC	??_R3UMemory@icu_56@@8				; icu_56::UMemory::`RTTI Class Hierarchy Descriptor'
PUBLIC	??_R2UMemory@icu_56@@8				; icu_56::UMemory::`RTTI Base Class Array'
PUBLIC	??_R1A@?0A@EA@UMemory@icu_56@@8			; icu_56::UMemory::`RTTI Base Class Descriptor at (0,-1,0,64)'
PUBLIC	??_R13?0A@EA@UnicodeMatcher@icu_56@@8		; icu_56::UnicodeMatcher::`RTTI Base Class Descriptor at (4,-1,0,64)'
PUBLIC	??_R0?AVUnicodeMatcher@icu_56@@@8		; icu_56::UnicodeMatcher `RTTI Type Descriptor'
PUBLIC	??_R3UnicodeMatcher@icu_56@@8			; icu_56::UnicodeMatcher::`RTTI Class Hierarchy Descriptor'
PUBLIC	??_R2UnicodeMatcher@icu_56@@8			; icu_56::UnicodeMatcher::`RTTI Base Class Array'
PUBLIC	??_R1A@?0A@EA@UnicodeMatcher@icu_56@@8		; icu_56::UnicodeMatcher::`RTTI Base Class Descriptor at (0,-1,0,64)'
PUBLIC	??_R4UnicodeSet@icu_56@@6BUnicodeMatcher@1@@	; icu_56::UnicodeSet::`RTTI Complete Object Locator'
PUBLIC	??_EUnicodeSet@icu_56@@W3AEPAXI@Z		; [thunk]:icu_56::UnicodeSet::`vector deleting destructor'
EXTRN	__imp_??3UMemory@icu_56@@SAXPAX@Z:PROC
EXTRN	_ucln_i18n_registerCleanup_56:PROC
EXTRN	__imp_?getNFDInstance@Normalizer2@icu_56@@SAPBV12@AAW4UErrorCode@@@Z:PROC
EXTRN	__imp_?freeze@UnicodeSet@icu_56@@QAEPAVUnicodeFunctor@2@XZ:PROC
EXTRN	__imp_??1UnicodeString@icu_56@@UAE@XZ:PROC
EXTRN	__imp_??0UnicodeSet@icu_56@@QAE@ABVUnicodeString@1@AAW4UErrorCode@@@Z:PROC
EXTRN	__imp_??0UnicodeString@icu_56@@QAE@PBDHW4EInvariant@01@@Z:PROC
EXTRN	__imp_??2UMemory@icu_56@@SAPAXI@Z:PROC
EXTRN	___security_cookie:DWORD
EXTRN	___CxxFrameHandler3:PROC
EXTRN	@__security_check_cookie@4:PROC
EXTRN	??_7type_info@@6B@:QWORD			; type_info::`vftable'
EXTRN	??_EUnicodeSet@icu_56@@UAEPAXI@Z:PROC		; icu_56::UnicodeSet::`vector deleting destructor'
EXTRN	?getDynamicClassID@UnicodeSet@icu_56@@UBEPAXXZ:PROC ; icu_56::UnicodeSet::getDynamicClassID
EXTRN	?clone@UnicodeSet@icu_56@@UBEPAVUnicodeFunctor@2@XZ:PROC ; icu_56::UnicodeSet::clone
EXTRN	?toMatcher@UnicodeFilter@icu_56@@UBEPAVUnicodeMatcher@2@XZ:PROC ; icu_56::UnicodeFilter::toMatcher
EXTRN	?toReplacer@UnicodeFunctor@icu_56@@UBEPAVUnicodeReplacer@2@XZ:PROC ; icu_56::UnicodeFunctor::toReplacer
EXTRN	?setData@UnicodeFilter@icu_56@@UAEXPBVTransliterationRuleData@2@@Z:PROC ; icu_56::UnicodeFilter::setData
EXTRN	?contains@UnicodeSet@icu_56@@UBECH@Z:PROC	; icu_56::UnicodeSet::contains
EXTRN	??8UnicodeSet@icu_56@@UBECABV01@@Z:PROC		; icu_56::UnicodeSet::operator==
EXTRN	?hashCode@UnicodeSet@icu_56@@UBEHXZ:PROC	; icu_56::UnicodeSet::hashCode
EXTRN	?size@UnicodeSet@icu_56@@UBEHXZ:PROC		; icu_56::UnicodeSet::size
EXTRN	?isEmpty@UnicodeSet@icu_56@@UBECXZ:PROC		; icu_56::UnicodeSet::isEmpty
EXTRN	?contains@UnicodeSet@icu_56@@UBECHH@Z:PROC	; icu_56::UnicodeSet::contains
EXTRN	?containsAll@UnicodeSet@icu_56@@UBECABV12@@Z:PROC ; icu_56::UnicodeSet::containsAll
EXTRN	?add@UnicodeSet@icu_56@@UAEAAV12@HH@Z:PROC	; icu_56::UnicodeSet::add
EXTRN	?addAll@UnicodeSet@icu_56@@UAEAAV12@ABV12@@Z:PROC ; icu_56::UnicodeSet::addAll
EXTRN	?retainAll@UnicodeSet@icu_56@@UAEAAV12@ABV12@@Z:PROC ; icu_56::UnicodeSet::retainAll
EXTRN	?complementAll@UnicodeSet@icu_56@@UAEAAV12@ABV12@@Z:PROC ; icu_56::UnicodeSet::complementAll
EXTRN	?removeAll@UnicodeSet@icu_56@@UAEAAV12@ABV12@@Z:PROC ; icu_56::UnicodeSet::removeAll
EXTRN	?retain@UnicodeSet@icu_56@@UAEAAV12@HH@Z:PROC	; icu_56::UnicodeSet::retain
EXTRN	?remove@UnicodeSet@icu_56@@UAEAAV12@HH@Z:PROC	; icu_56::UnicodeSet::remove
EXTRN	?complement@UnicodeSet@icu_56@@UAEAAV12@HH@Z:PROC ; icu_56::UnicodeSet::complement
EXTRN	?complement@UnicodeSet@icu_56@@UAEAAV12@XZ:PROC	; icu_56::UnicodeSet::complement
EXTRN	?clear@UnicodeSet@icu_56@@UAEAAV12@XZ:PROC	; icu_56::UnicodeSet::clear
EXTRN	?removeAllStrings@UnicodeSet@icu_56@@UAEAAV12@XZ:PROC ; icu_56::UnicodeSet::removeAllStrings
EXTRN	?getRangeCount@UnicodeSet@icu_56@@UBEHXZ:PROC	; icu_56::UnicodeSet::getRangeCount
EXTRN	?getRangeStart@UnicodeSet@icu_56@@UBEHH@Z:PROC	; icu_56::UnicodeSet::getRangeStart
EXTRN	?getRangeEnd@UnicodeSet@icu_56@@UBEHH@Z:PROC	; icu_56::UnicodeSet::getRangeEnd
EXTRN	?compact@UnicodeSet@icu_56@@UAEAAV12@XZ:PROC	; icu_56::UnicodeSet::compact
EXTRN	?matches@UnicodeSet@icu_56@@UAE?AW4UMatchDegree@2@ABVReplaceable@2@AAHHC@Z:PROC ; icu_56::UnicodeSet::matches
EXTRN	?toPattern@UnicodeSet@icu_56@@UBEAAVUnicodeString@2@AAV32@C@Z:PROC ; icu_56::UnicodeSet::toPattern
EXTRN	?matchesIndexValue@UnicodeSet@icu_56@@EBECE@Z:PROC ; icu_56::UnicodeSet::matchesIndexValue
EXTRN	?addMatchSetTo@UnicodeSet@icu_56@@UBEXAAV12@@Z:PROC ; icu_56::UnicodeSet::addMatchSetTo
;	COMDAT ??_R4UnicodeSet@icu_56@@6BUnicodeMatcher@1@@
; File d:\mozilla\intl\icu\source\i18n\uspoof.cpp
rdata$r	SEGMENT
??_R4UnicodeSet@icu_56@@6BUnicodeMatcher@1@@ DD 00H	; icu_56::UnicodeSet::`RTTI Complete Object Locator'
	DD	04H
	DD	00H
	DD	FLAT:??_R0?AVUnicodeSet@icu_56@@@8
	DD	FLAT:??_R3UnicodeSet@icu_56@@8
rdata$r	ENDS
;	COMDAT ??_R1A@?0A@EA@UnicodeMatcher@icu_56@@8
rdata$r	SEGMENT
??_R1A@?0A@EA@UnicodeMatcher@icu_56@@8 DD FLAT:??_R0?AVUnicodeMatcher@icu_56@@@8 ; icu_56::UnicodeMatcher::`RTTI Base Class Descriptor at (0,-1,0,64)'
	DD	00H
	DD	00H
	DD	0ffffffffH
	DD	00H
	DD	040H
	DD	FLAT:??_R3UnicodeMatcher@icu_56@@8
rdata$r	ENDS
;	COMDAT ??_R2UnicodeMatcher@icu_56@@8
rdata$r	SEGMENT
??_R2UnicodeMatcher@icu_56@@8 DD FLAT:??_R1A@?0A@EA@UnicodeMatcher@icu_56@@8 ; icu_56::UnicodeMatcher::`RTTI Base Class Array'
rdata$r	ENDS
;	COMDAT ??_R3UnicodeMatcher@icu_56@@8
rdata$r	SEGMENT
??_R3UnicodeMatcher@icu_56@@8 DD 00H			; icu_56::UnicodeMatcher::`RTTI Class Hierarchy Descriptor'
	DD	00H
	DD	01H
	DD	FLAT:??_R2UnicodeMatcher@icu_56@@8
rdata$r	ENDS
;	COMDAT ??_R0?AVUnicodeMatcher@icu_56@@@8
_DATA	SEGMENT
??_R0?AVUnicodeMatcher@icu_56@@@8 DD FLAT:??_7type_info@@6B@ ; icu_56::UnicodeMatcher `RTTI Type Descriptor'
	DD	00H
	DB	'.?AVUnicodeMatcher@icu_56@@', 00H
_DATA	ENDS
;	COMDAT ??_R13?0A@EA@UnicodeMatcher@icu_56@@8
rdata$r	SEGMENT
??_R13?0A@EA@UnicodeMatcher@icu_56@@8 DD FLAT:??_R0?AVUnicodeMatcher@icu_56@@@8 ; icu_56::UnicodeMatcher::`RTTI Base Class Descriptor at (4,-1,0,64)'
	DD	00H
	DD	04H
	DD	0ffffffffH
	DD	00H
	DD	040H
	DD	FLAT:??_R3UnicodeMatcher@icu_56@@8
rdata$r	ENDS
;	COMDAT ??_R1A@?0A@EA@UMemory@icu_56@@8
rdata$r	SEGMENT
??_R1A@?0A@EA@UMemory@icu_56@@8 DD FLAT:??_R0?AVUMemory@icu_56@@@8 ; icu_56::UMemory::`RTTI Base Class Descriptor at (0,-1,0,64)'
	DD	00H
	DD	00H
	DD	0ffffffffH
	DD	00H
	DD	040H
	DD	FLAT:??_R3UMemory@icu_56@@8
rdata$r	ENDS
;	COMDAT ??_R2UMemory@icu_56@@8
rdata$r	SEGMENT
??_R2UMemory@icu_56@@8 DD FLAT:??_R1A@?0A@EA@UMemory@icu_56@@8 ; icu_56::UMemory::`RTTI Base Class Array'
rdata$r	ENDS
;	COMDAT ??_R3UMemory@icu_56@@8
rdata$r	SEGMENT
??_R3UMemory@icu_56@@8 DD 00H				; icu_56::UMemory::`RTTI Class Hierarchy Descriptor'
	DD	00H
	DD	01H
	DD	FLAT:??_R2UMemory@icu_56@@8
rdata$r	ENDS
;	COMDAT ??_R0?AVUMemory@icu_56@@@8
_DATA	SEGMENT
??_R0?AVUMemory@icu_56@@@8 DD FLAT:??_7type_info@@6B@	; icu_56::UMemory `RTTI Type Descriptor'
	DD	00H
	DB	'.?AVUMemory@icu_56@@', 00H
_DATA	ENDS
;	COMDAT ??_R13?0A@EA@UMemory@icu_56@@8
rdata$r	SEGMENT
??_R13?0A@EA@UMemory@icu_56@@8 DD FLAT:??_R0?AVUMemory@icu_56@@@8 ; icu_56::UMemory::`RTTI Base Class Descriptor at (4,-1,0,64)'
	DD	00H
	DD	04H
	DD	0ffffffffH
	DD	00H
	DD	040H
	DD	FLAT:??_R3UMemory@icu_56@@8
rdata$r	ENDS
;	COMDAT ??_R2UObject@icu_56@@8
rdata$r	SEGMENT
??_R2UObject@icu_56@@8 DD FLAT:??_R1A@?0A@EA@UObject@icu_56@@8 ; icu_56::UObject::`RTTI Base Class Array'
	DD	FLAT:??_R13?0A@EA@UMemory@icu_56@@8
rdata$r	ENDS
;	COMDAT ??_R3UObject@icu_56@@8
rdata$r	SEGMENT
??_R3UObject@icu_56@@8 DD 00H				; icu_56::UObject::`RTTI Class Hierarchy Descriptor'
	DD	00H
	DD	02H
	DD	FLAT:??_R2UObject@icu_56@@8
rdata$r	ENDS
;	COMDAT ??_R0?AVUObject@icu_56@@@8
_DATA	SEGMENT
??_R0?AVUObject@icu_56@@@8 DD FLAT:??_7type_info@@6B@	; icu_56::UObject `RTTI Type Descriptor'
	DD	00H
	DB	'.?AVUObject@icu_56@@', 00H
_DATA	ENDS
;	COMDAT ??_R1A@?0A@EA@UObject@icu_56@@8
rdata$r	SEGMENT
??_R1A@?0A@EA@UObject@icu_56@@8 DD FLAT:??_R0?AVUObject@icu_56@@@8 ; icu_56::UObject::`RTTI Base Class Descriptor at (0,-1,0,64)'
	DD	01H
	DD	00H
	DD	0ffffffffH
	DD	00H
	DD	040H
	DD	FLAT:??_R3UObject@icu_56@@8
rdata$r	ENDS
;	COMDAT ??_R2UnicodeFunctor@icu_56@@8
rdata$r	SEGMENT
??_R2UnicodeFunctor@icu_56@@8 DD FLAT:??_R1A@?0A@EA@UnicodeFunctor@icu_56@@8 ; icu_56::UnicodeFunctor::`RTTI Base Class Array'
	DD	FLAT:??_R1A@?0A@EA@UObject@icu_56@@8
	DD	FLAT:??_R13?0A@EA@UMemory@icu_56@@8
rdata$r	ENDS
;	COMDAT ??_R3UnicodeFunctor@icu_56@@8
rdata$r	SEGMENT
??_R3UnicodeFunctor@icu_56@@8 DD 00H			; icu_56::UnicodeFunctor::`RTTI Class Hierarchy Descriptor'
	DD	00H
	DD	03H
	DD	FLAT:??_R2UnicodeFunctor@icu_56@@8
rdata$r	ENDS
;	COMDAT ??_R0?AVUnicodeFunctor@icu_56@@@8
_DATA	SEGMENT
??_R0?AVUnicodeFunctor@icu_56@@@8 DD FLAT:??_7type_info@@6B@ ; icu_56::UnicodeFunctor `RTTI Type Descriptor'
	DD	00H
	DB	'.?AVUnicodeFunctor@icu_56@@', 00H
_DATA	ENDS
;	COMDAT ??_R1A@?0A@EA@UnicodeFunctor@icu_56@@8
rdata$r	SEGMENT
??_R1A@?0A@EA@UnicodeFunctor@icu_56@@8 DD FLAT:??_R0?AVUnicodeFunctor@icu_56@@@8 ; icu_56::UnicodeFunctor::`RTTI Base Class Descriptor at (0,-1,0,64)'
	DD	02H
	DD	00H
	DD	0ffffffffH
	DD	00H
	DD	040H
	DD	FLAT:??_R3UnicodeFunctor@icu_56@@8
rdata$r	ENDS
;	COMDAT ??_R2UnicodeFilter@icu_56@@8
rdata$r	SEGMENT
??_R2UnicodeFilter@icu_56@@8 DD FLAT:??_R1A@?0A@EA@UnicodeFilter@icu_56@@8 ; icu_56::UnicodeFilter::`RTTI Base Class Array'
	DD	FLAT:??_R1A@?0A@EA@UnicodeFunctor@icu_56@@8
	DD	FLAT:??_R1A@?0A@EA@UObject@icu_56@@8
	DD	FLAT:??_R13?0A@EA@UMemory@icu_56@@8
	DD	FLAT:??_R13?0A@EA@UnicodeMatcher@icu_56@@8
rdata$r	ENDS
;	COMDAT ??_R3UnicodeFilter@icu_56@@8
rdata$r	SEGMENT
??_R3UnicodeFilter@icu_56@@8 DD 00H			; icu_56::UnicodeFilter::`RTTI Class Hierarchy Descriptor'
	DD	01H
	DD	05H
	DD	FLAT:??_R2UnicodeFilter@icu_56@@8
rdata$r	ENDS
;	COMDAT ??_R0?AVUnicodeFilter@icu_56@@@8
_DATA	SEGMENT
??_R0?AVUnicodeFilter@icu_56@@@8 DD FLAT:??_7type_info@@6B@ ; icu_56::UnicodeFilter `RTTI Type Descriptor'
	DD	00H
	DB	'.?AVUnicodeFilter@icu_56@@', 00H
_DATA	ENDS
;	COMDAT ??_R1A@?0A@EA@UnicodeFilter@icu_56@@8
rdata$r	SEGMENT
??_R1A@?0A@EA@UnicodeFilter@icu_56@@8 DD FLAT:??_R0?AVUnicodeFilter@icu_56@@@8 ; icu_56::UnicodeFilter::`RTTI Base Class Descriptor at (0,-1,0,64)'
	DD	04H
	DD	00H
	DD	0ffffffffH
	DD	00H
	DD	040H
	DD	FLAT:??_R3UnicodeFilter@icu_56@@8
rdata$r	ENDS
;	COMDAT ??_R1A@?0A@EA@UnicodeSet@icu_56@@8
rdata$r	SEGMENT
??_R1A@?0A@EA@UnicodeSet@icu_56@@8 DD FLAT:??_R0?AVUnicodeSet@icu_56@@@8 ; icu_56::UnicodeSet::`RTTI Base Class Descriptor at (0,-1,0,64)'
	DD	05H
	DD	00H
	DD	0ffffffffH
	DD	00H
	DD	040H
	DD	FLAT:??_R3UnicodeSet@icu_56@@8
rdata$r	ENDS
;	COMDAT ??_R2UnicodeSet@icu_56@@8
rdata$r	SEGMENT
??_R2UnicodeSet@icu_56@@8 DD FLAT:??_R1A@?0A@EA@UnicodeSet@icu_56@@8 ; icu_56::UnicodeSet::`RTTI Base Class Array'
	DD	FLAT:??_R1A@?0A@EA@UnicodeFilter@icu_56@@8
	DD	FLAT:??_R1A@?0A@EA@UnicodeFunctor@icu_56@@8
	DD	FLAT:??_R1A@?0A@EA@UObject@icu_56@@8
	DD	FLAT:??_R13?0A@EA@UMemory@icu_56@@8
	DD	FLAT:??_R13?0A@EA@UnicodeMatcher@icu_56@@8
rdata$r	ENDS
;	COMDAT ??_R3UnicodeSet@icu_56@@8
rdata$r	SEGMENT
??_R3UnicodeSet@icu_56@@8 DD 00H			; icu_56::UnicodeSet::`RTTI Class Hierarchy Descriptor'
	DD	01H
	DD	06H
	DD	FLAT:??_R2UnicodeSet@icu_56@@8
rdata$r	ENDS
;	COMDAT ??_R0?AVUnicodeSet@icu_56@@@8
_DATA	SEGMENT
??_R0?AVUnicodeSet@icu_56@@@8 DD FLAT:??_7type_info@@6B@ ; icu_56::UnicodeSet `RTTI Type Descriptor'
	DD	00H
	DB	'.?AVUnicodeSet@icu_56@@', 00H
_DATA	ENDS
;	COMDAT ??_R4UnicodeSet@icu_56@@6BUnicodeFunctor@1@@
rdata$r	SEGMENT
??_R4UnicodeSet@icu_56@@6BUnicodeFunctor@1@@ DD 00H	; icu_56::UnicodeSet::`RTTI Complete Object Locator'
	DD	00H
	DD	00H
	DD	FLAT:??_R0?AVUnicodeSet@icu_56@@@8
	DD	FLAT:??_R3UnicodeSet@icu_56@@8
rdata$r	ENDS
;	COMDAT ??_SUnicodeSet@icu_56@@6BUnicodeMatcher@1@@
CONST	SEGMENT
??_SUnicodeSet@icu_56@@6BUnicodeMatcher@1@@ DD FLAT:??_R4UnicodeSet@icu_56@@6BUnicodeMatcher@1@@ ; icu_56::UnicodeSet::`local vftable'
	DD	FLAT:??_EUnicodeSet@icu_56@@W3AEPAXI@Z
	DD	FLAT:?matches@UnicodeSet@icu_56@@UAE?AW4UMatchDegree@2@ABVReplaceable@2@AAHHC@Z
	DD	FLAT:?toPattern@UnicodeSet@icu_56@@UBEAAVUnicodeString@2@AAV32@C@Z
	DD	FLAT:?matchesIndexValue@UnicodeSet@icu_56@@EBECE@Z
	DD	FLAT:?addMatchSetTo@UnicodeSet@icu_56@@UBEXAAV12@@Z
CONST	ENDS
;	COMDAT ??_SUnicodeSet@icu_56@@6BUnicodeFunctor@1@@
CONST	SEGMENT
??_SUnicodeSet@icu_56@@6BUnicodeFunctor@1@@ DD FLAT:??_R4UnicodeSet@icu_56@@6BUnicodeFunctor@1@@ ; icu_56::UnicodeSet::`local vftable'
	DD	FLAT:??_EUnicodeSet@icu_56@@UAEPAXI@Z
	DD	FLAT:?getDynamicClassID@UnicodeSet@icu_56@@UBEPAXXZ
	DD	FLAT:?clone@UnicodeSet@icu_56@@UBEPAVUnicodeFunctor@2@XZ
	DD	FLAT:?toMatcher@UnicodeFilter@icu_56@@UBEPAVUnicodeMatcher@2@XZ
	DD	FLAT:?toReplacer@UnicodeFunctor@icu_56@@UBEPAVUnicodeReplacer@2@XZ
	DD	FLAT:?setData@UnicodeFilter@icu_56@@UAEXPBVTransliterationRuleData@2@@Z
	DD	FLAT:?contains@UnicodeSet@icu_56@@UBECH@Z
	DD	FLAT:??8UnicodeSet@icu_56@@UBECABV01@@Z
	DD	FLAT:?hashCode@UnicodeSet@icu_56@@UBEHXZ
	DD	FLAT:?size@UnicodeSet@icu_56@@UBEHXZ
	DD	FLAT:?isEmpty@UnicodeSet@icu_56@@UBECXZ
	DD	FLAT:?contains@UnicodeSet@icu_56@@UBECHH@Z
	DD	FLAT:?containsAll@UnicodeSet@icu_56@@UBECABV12@@Z
	DD	FLAT:?add@UnicodeSet@icu_56@@UAEAAV12@HH@Z
	DD	FLAT:?addAll@UnicodeSet@icu_56@@UAEAAV12@ABV12@@Z
	DD	FLAT:?retainAll@UnicodeSet@icu_56@@UAEAAV12@ABV12@@Z
	DD	FLAT:?complementAll@UnicodeSet@icu_56@@UAEAAV12@ABV12@@Z
	DD	FLAT:?removeAll@UnicodeSet@icu_56@@UAEAAV12@ABV12@@Z
	DD	FLAT:?retain@UnicodeSet@icu_56@@UAEAAV12@HH@Z
	DD	FLAT:?remove@UnicodeSet@icu_56@@UAEAAV12@HH@Z
	DD	FLAT:?complement@UnicodeSet@icu_56@@UAEAAV12@HH@Z
	DD	FLAT:?complement@UnicodeSet@icu_56@@UAEAAV12@XZ
	DD	FLAT:?clear@UnicodeSet@icu_56@@UAEAAV12@XZ
	DD	FLAT:?removeAllStrings@UnicodeSet@icu_56@@UAEAAV12@XZ
	DD	FLAT:?getRangeCount@UnicodeSet@icu_56@@UBEHXZ
	DD	FLAT:?getRangeStart@UnicodeSet@icu_56@@UBEHH@Z
	DD	FLAT:?getRangeEnd@UnicodeSet@icu_56@@UBEHH@Z
	DD	FLAT:?compact@UnicodeSet@icu_56@@UAEAAV12@XZ
CONST	ENDS
;	COMDAT xdata$x
xdata$x	SEGMENT
__ehfuncinfo$?initializeStatics@@YAXAAW4UErrorCode@@@Z DD 019930522H
	DD	06H
	DD	FLAT:__unwindtable$?initializeStatics@@YAXAAW4UErrorCode@@@Z
	DD	2 DUP(00H)
	DD	2 DUP(00H)
	DD	00H
	DD	01H
__unwindtable$?initializeStatics@@YAXAAW4UErrorCode@@@Z DD 0ffffffffH
	DD	FLAT:__unwindfunclet$?initializeStatics@@YAXAAW4UErrorCode@@@Z$0
	DD	00H
	DD	FLAT:__unwindfunclet$?initializeStatics@@YAXAAW4UErrorCode@@@Z$1
	DD	0ffffffffH
	DD	FLAT:__unwindfunclet$?initializeStatics@@YAXAAW4UErrorCode@@@Z$1
	DD	0ffffffffH
	DD	FLAT:__unwindfunclet$?initializeStatics@@YAXAAW4UErrorCode@@@Z$2
	DD	03H
	DD	FLAT:__unwindfunclet$?initializeStatics@@YAXAAW4UErrorCode@@@Z$3
	DD	0ffffffffH
	DD	FLAT:__unwindfunclet$?initializeStatics@@YAXAAW4UErrorCode@@@Z$3
; Function compile flags: /Odtp /RTCsu /ZI
xdata$x	ENDS
;	COMDAT ?initializeStatics@@YAXAAW4UErrorCode@@@Z
_TEXT	SEGMENT
tv87 = -424						; size = 4
tv70 = -424						; size = 4
tv147 = -420						; size = 4
tv139 = -420						; size = 4
tv160 = -416						; size = 4
tv153 = -416						; size = 4
$T71050 = -408						; size = 64
$T71058 = -336						; size = 64
$T78240 = -264						; size = 4
$T78241 = -252						; size = 4
$T78244 = -240						; size = 4
$T78245 = -228						; size = 4
$T78249 = -216						; size = 4
__$ArrayPad$ = -16					; size = 4
__$EHRec$ = -12						; size = 12
_status$ = 8						; size = 4
?initializeStatics@@YAXAAW4UErrorCode@@@Z PROC		; initializeStatics, COMDAT
; Line 63
	push	ebp
	mov	ebp, esp
	push	-1
	push	__ehhandler$?initializeStatics@@YAXAAW4UErrorCode@@@Z
	mov	eax, DWORD PTR fs:0
	push	eax
	sub	esp, 412				; 0000019cH
	push	ebx
	push	esi
	push	edi
	lea	edi, DWORD PTR [ebp-424]
	mov	ecx, 103				; 00000067H
	mov	eax, -858993460				; ccccccccH
	rep stosd
	mov	eax, DWORD PTR ___security_cookie
	xor	eax, ebp
	mov	DWORD PTR __$ArrayPad$[ebp], eax
	push	eax
	lea	eax, DWORD PTR __$EHRec$[ebp]
	mov	DWORD PTR fs:0, eax
	mov	DWORD PTR $T78249[ebp], 0
; Line 67
	mov	esi, esp
	push	52					; 00000034H
	call	DWORD PTR __imp_??2UMemory@icu_56@@SAPAXI@Z
	add	esp, 4
	cmp	esi, esp
	call	__RTC_CheckEsp
	mov	DWORD PTR $T78241[ebp], eax
	mov	DWORD PTR __$EHRec$[ebp+8], 0
	cmp	DWORD PTR $T78241[ebp], 0
	je	$LN3@initialize
	mov	esi, esp
	mov	eax, DWORD PTR _status$[ebp]
	push	eax
	mov	edi, esp
	push	0
	push	-1
	mov	ecx, DWORD PTR ?inclusionPat@?1??initializeStatics@@YAXAAW4UErrorCode@@@Z@4PBDB
	push	ecx
	lea	ecx, DWORD PTR $T71050[ebp]
	call	DWORD PTR __imp_??0UnicodeString@icu_56@@QAE@PBDHW4EInvariant@01@@Z
	cmp	edi, esp
	call	__RTC_CheckEsp
	mov	DWORD PTR tv153[ebp], eax
	mov	edx, DWORD PTR tv153[ebp]
	mov	DWORD PTR tv139[ebp], edx
	mov	BYTE PTR __$EHRec$[ebp+8], 1
	mov	eax, DWORD PTR $T78249[ebp]
	or	eax, 1
	mov	DWORD PTR $T78249[ebp], eax
	mov	ecx, DWORD PTR tv139[ebp]
	push	ecx
	mov	ecx, DWORD PTR $T78241[ebp]
	call	DWORD PTR __imp_??0UnicodeSet@icu_56@@QAE@ABVUnicodeString@1@AAW4UErrorCode@@@Z
	cmp	esi, esp
	call	__RTC_CheckEsp
	mov	edx, DWORD PTR $T78241[ebp]
	mov	DWORD PTR [edx], OFFSET ??_SUnicodeSet@icu_56@@6BUnicodeFunctor@1@@
	mov	eax, DWORD PTR $T78241[ebp]
	mov	DWORD PTR [eax+4], OFFSET ??_SUnicodeSet@icu_56@@6BUnicodeMatcher@1@@
	mov	ecx, DWORD PTR $T78241[ebp]
	mov	DWORD PTR tv70[ebp], ecx
	jmp	SHORT $LN4@initialize
$LN3@initialize:
	mov	DWORD PTR tv70[ebp], 0
$LN4@initialize:
	mov	edx, DWORD PTR tv70[ebp]
	mov	DWORD PTR $T78240[ebp], edx
	mov	DWORD PTR __$EHRec$[ebp+8], 2
	mov	eax, DWORD PTR $T78240[ebp]
	mov	DWORD PTR _gInclusionSet, eax
	mov	DWORD PTR __$EHRec$[ebp+8], -1
	mov	ecx, DWORD PTR $T78249[ebp]
	and	ecx, 1
	je	SHORT $LN10@initialize
	and	DWORD PTR $T78249[ebp], -2		; fffffffeH
	mov	esi, esp
	lea	ecx, DWORD PTR $T71050[ebp]
	call	DWORD PTR __imp_??1UnicodeString@icu_56@@UAE@XZ
	cmp	esi, esp
	call	__RTC_CheckEsp
$LN10@initialize:
; Line 68
	mov	esi, esp
	mov	ecx, DWORD PTR _gInclusionSet
	call	DWORD PTR __imp_?freeze@UnicodeSet@icu_56@@QAEPAVUnicodeFunctor@2@XZ
	cmp	esi, esp
	call	__RTC_CheckEsp
; Line 132
	mov	esi, esp
	push	52					; 00000034H
	call	DWORD PTR __imp_??2UMemory@icu_56@@SAPAXI@Z
	add	esp, 4
	cmp	esi, esp
	call	__RTC_CheckEsp
	mov	DWORD PTR $T78245[ebp], eax
	mov	DWORD PTR __$EHRec$[ebp+8], 3
	cmp	DWORD PTR $T78245[ebp], 0
	je	$LN5@initialize
	mov	esi, esp
	mov	eax, DWORD PTR _status$[ebp]
	push	eax
	mov	edi, esp
	push	0
	push	-1
	mov	ecx, DWORD PTR ?recommendedPat@?1??initializeStatics@@YAXAAW4UErrorCode@@@Z@4PBDB
	push	ecx
	lea	ecx, DWORD PTR $T71058[ebp]
	call	DWORD PTR __imp_??0UnicodeString@icu_56@@QAE@PBDHW4EInvariant@01@@Z
	cmp	edi, esp
	call	__RTC_CheckEsp
	mov	DWORD PTR tv160[ebp], eax
	mov	edx, DWORD PTR tv160[ebp]
	mov	DWORD PTR tv147[ebp], edx
	mov	BYTE PTR __$EHRec$[ebp+8], 4
	mov	eax, DWORD PTR $T78249[ebp]
	or	eax, 2
	mov	DWORD PTR $T78249[ebp], eax
	mov	ecx, DWORD PTR tv147[ebp]
	push	ecx
	mov	ecx, DWORD PTR $T78245[ebp]
	call	DWORD PTR __imp_??0UnicodeSet@icu_56@@QAE@ABVUnicodeString@1@AAW4UErrorCode@@@Z
	cmp	esi, esp
	call	__RTC_CheckEsp
	mov	edx, DWORD PTR $T78245[ebp]
	mov	DWORD PTR [edx], OFFSET ??_SUnicodeSet@icu_56@@6BUnicodeFunctor@1@@
	mov	eax, DWORD PTR $T78245[ebp]
	mov	DWORD PTR [eax+4], OFFSET ??_SUnicodeSet@icu_56@@6BUnicodeMatcher@1@@
	mov	ecx, DWORD PTR $T78245[ebp]
	mov	DWORD PTR tv87[ebp], ecx
	jmp	SHORT $LN6@initialize
$LN5@initialize:
	mov	DWORD PTR tv87[ebp], 0
$LN6@initialize:
	mov	edx, DWORD PTR tv87[ebp]
	mov	DWORD PTR $T78244[ebp], edx
	mov	DWORD PTR __$EHRec$[ebp+8], 5
	mov	eax, DWORD PTR $T78244[ebp]
	mov	DWORD PTR _gRecommendedSet, eax
	mov	DWORD PTR __$EHRec$[ebp+8], -1
	mov	ecx, DWORD PTR $T78249[ebp]
	and	ecx, 2
	je	SHORT $LN14@initialize
	and	DWORD PTR $T78249[ebp], -3		; fffffffdH
	mov	esi, esp
	lea	ecx, DWORD PTR $T71058[ebp]
	call	DWORD PTR __imp_??1UnicodeString@icu_56@@UAE@XZ
	cmp	esi, esp
	call	__RTC_CheckEsp
$LN14@initialize:
; Line 133
	mov	esi, esp
	mov	ecx, DWORD PTR _gRecommendedSet
	call	DWORD PTR __imp_?freeze@UnicodeSet@icu_56@@QAEPAVUnicodeFunctor@2@XZ
	cmp	esi, esp
	call	__RTC_CheckEsp
; Line 134
	mov	esi, esp
	mov	eax, DWORD PTR _status$[ebp]
	push	eax
	call	DWORD PTR __imp_?getNFDInstance@Normalizer2@icu_56@@SAPBV12@AAW4UErrorCode@@@Z
	add	esp, 4
	cmp	esi, esp
	call	__RTC_CheckEsp
	mov	DWORD PTR _gNfdNormalizer, eax
; Line 135
	push	OFFSET ?uspoof_cleanup@@YACXZ		; uspoof_cleanup
	push	1
	call	_ucln_i18n_registerCleanup_56
	add	esp, 8
; Line 136
	mov	ecx, DWORD PTR __$EHRec$[ebp]
	mov	DWORD PTR fs:0, ecx
	pop	ecx
	pop	edi
	pop	esi
	pop	ebx
	mov	ecx, DWORD PTR __$ArrayPad$[ebp]
	xor	ecx, ebp
	call	@__security_check_cookie@4
	add	esp, 424				; 000001a8H
	cmp	ebp, esp
	call	__RTC_CheckEsp
	mov	esp, ebp
	pop	ebp
	ret	0
_TEXT	ENDS
;	COMDAT text$x
text$x	SEGMENT
__unwindfunclet$?initializeStatics@@YAXAAW4UErrorCode@@@Z$0:
	mov	esi, esp
	mov	eax, DWORD PTR $T78241[ebp]
	push	eax
	call	DWORD PTR __imp_??3UMemory@icu_56@@SAXPAX@Z
	add	esp, 4
	cmp	esi, esp
	jmp	__RTC_CheckEsp
__unwindfunclet$?initializeStatics@@YAXAAW4UErrorCode@@@Z$1:
	mov	eax, DWORD PTR $T78249[ebp]
	and	eax, 1
	je	$LN9@initialize
	and	DWORD PTR $T78249[ebp], -2		; fffffffeH
	mov	esi, esp
	lea	ecx, DWORD PTR $T71050[ebp]
	call	DWORD PTR __imp_??1UnicodeString@icu_56@@UAE@XZ
	cmp	esi, esp
	jmp	__RTC_CheckEsp
$LN9@initialize:
	ret	0
__unwindfunclet$?initializeStatics@@YAXAAW4UErrorCode@@@Z$2:
	mov	esi, esp
	mov	eax, DWORD PTR $T78245[ebp]
	push	eax
	call	DWORD PTR __imp_??3UMemory@icu_56@@SAXPAX@Z
	add	esp, 4
	cmp	esi, esp
	jmp	__RTC_CheckEsp
__unwindfunclet$?initializeStatics@@YAXAAW4UErrorCode@@@Z$3:
	mov	eax, DWORD PTR $T78249[ebp]
	and	eax, 2
	je	$LN13@initialize
	and	DWORD PTR $T78249[ebp], -3		; fffffffdH
	mov	esi, esp
	lea	ecx, DWORD PTR $T71058[ebp]
	call	DWORD PTR __imp_??1UnicodeString@icu_56@@UAE@XZ
	cmp	esi, esp
	jmp	__RTC_CheckEsp
$LN13@initialize:
	ret	0
__ehhandler$?initializeStatics@@YAXAAW4UErrorCode@@@Z:
	mov	edx, DWORD PTR [esp+8]
	lea	eax, DWORD PTR [edx+12]
	mov	ecx, DWORD PTR [edx-428]
	xor	ecx, eax
	call	@__security_check_cookie@4
	mov	ecx, DWORD PTR [edx-4]
	xor	ecx, eax
	call	@__security_check_cookie@4
	mov	eax, OFFSET __ehfuncinfo$?initializeStatics@@YAXAAW4UErrorCode@@@Z
	jmp	___CxxFrameHandler3
text$x	ENDS
?initializeStatics@@YAXAAW4UErrorCode@@@Z ENDP		; initializeStatics
PUBLIC	?reset@UInitOnce@icu_56@@QAEXXZ			; icu_56::UInitOnce::reset
EXTRN	?removeReference@SpoofData@icu_56@@QAEXXZ:PROC	; icu_56::SpoofData::removeReference
; Function compile flags: /Odtp /RTCsu /ZI
;	COMDAT ?uspoof_cleanup@@YACXZ
_TEXT	SEGMENT
tv85 = -244						; size = 4
tv74 = -244						; size = 4
$T78270 = -236						; size = 4
$T78271 = -224						; size = 4
$T78274 = -212						; size = 4
$T78275 = -200						; size = 4
?uspoof_cleanup@@YACXZ PROC				; uspoof_cleanup, COMDAT
; Line 48
	push	ebp
	mov	ebp, esp
	sub	esp, 244				; 000000f4H
	push	ebx
	push	esi
	push	edi
	lea	edi, DWORD PTR [ebp-244]
	mov	ecx, 61					; 0000003dH
	mov	eax, -858993460				; ccccccccH
	rep stosd
; Line 49
	mov	eax, DWORD PTR _gInclusionSet
	mov	DWORD PTR $T78271[ebp], eax
	mov	ecx, DWORD PTR $T78271[ebp]
	mov	DWORD PTR $T78270[ebp], ecx
	cmp	DWORD PTR $T78270[ebp], 0
	je	SHORT $LN4@uspoof_cle
	mov	esi, esp
	push	1
	mov	edx, DWORD PTR $T78270[ebp]
	mov	eax, DWORD PTR [edx]
	mov	ecx, DWORD PTR $T78270[ebp]
	mov	edx, DWORD PTR [eax]
	call	edx
	cmp	esi, esp
	call	__RTC_CheckEsp
	mov	DWORD PTR tv74[ebp], eax
	jmp	SHORT $LN5@uspoof_cle
$LN4@uspoof_cle:
	mov	DWORD PTR tv74[ebp], 0
$LN5@uspoof_cle:
; Line 50
	mov	DWORD PTR _gInclusionSet, 0
; Line 51
	mov	eax, DWORD PTR _gRecommendedSet
	mov	DWORD PTR $T78275[ebp], eax
	mov	ecx, DWORD PTR $T78275[ebp]
	mov	DWORD PTR $T78274[ebp], ecx
	cmp	DWORD PTR $T78274[ebp], 0
	je	SHORT $LN6@uspoof_cle
	mov	esi, esp
	push	1
	mov	edx, DWORD PTR $T78274[ebp]
	mov	eax, DWORD PTR [edx]
	mov	ecx, DWORD PTR $T78274[ebp]
	mov	edx, DWORD PTR [eax]
	call	edx
	cmp	esi, esp
	call	__RTC_CheckEsp
	mov	DWORD PTR tv85[ebp], eax
	jmp	SHORT $LN7@uspoof_cle
$LN6@uspoof_cle:
	mov	DWORD PTR tv85[ebp], 0
$LN7@uspoof_cle:
; Line 52
	mov	DWORD PTR _gRecommendedSet, 0
; Line 53
	mov	DWORD PTR _gNfdNormalizer, 0
; Line 54
	cmp	DWORD PTR _gDefaultSpoofData, 0
	je	SHORT $LN1@uspoof_cle
; Line 55
	mov	ecx, DWORD PTR _gDefaultSpoofData
	call	?removeReference@SpoofData@icu_56@@QAEXXZ ; icu_56::SpoofData::removeReference
$LN1@uspoof_cle:
; Line 57
	mov	DWORD PTR _gDefaultSpoofData, 0
; Line 58
	mov	ecx, OFFSET _gSpoofInitStaticsOnce
	call	?reset@UInitOnce@icu_56@@QAEXXZ		; icu_56::UInitOnce::reset
; Line 59
	mov	ecx, OFFSET _gSpoofInitDefaultOnce
	call	?reset@UInitOnce@icu_56@@QAEXXZ		; icu_56::UInitOnce::reset
; Line 60
	mov	al, 1
; Line 61
	pop	edi
	pop	esi
	pop	ebx
	add	esp, 244				; 000000f4H
	cmp	ebp, esp
	call	__RTC_CheckEsp
	mov	esp, ebp
	pop	ebp
	ret	0
?uspoof_cleanup@@YACXZ ENDP				; uspoof_cleanup
; Function compile flags: /Odtp /RTCsu /ZI
_TEXT	ENDS
;	COMDAT ?reset@UInitOnce@icu_56@@QAEXXZ
_TEXT	SEGMENT
_this$ = -8						; size = 4
?reset@UInitOnce@icu_56@@QAEXXZ PROC			; icu_56::UInitOnce::reset, COMDAT
; _this$ = ecx
; File d:\mozilla\intl\icu\source\common\umutex.h
; Line 220
	push	ebp
	mov	ebp, esp
	sub	esp, 204				; 000000ccH
	push	ebx
	push	esi
	push	edi
	push	ecx
	lea	edi, DWORD PTR [ebp-204]
	mov	ecx, 51					; 00000033H
	mov	eax, -858993460				; ccccccccH
	rep stosd
	pop	ecx
	mov	DWORD PTR _this$[ebp], ecx
	mov	eax, DWORD PTR _this$[ebp]
	mov	DWORD PTR [eax], 0
	pop	edi
	pop	esi
	pop	ebx
	mov	esp, ebp
	pop	ebp
	ret	0
?reset@UInitOnce@icu_56@@QAEXXZ ENDP			; icu_56::UInitOnce::reset
_TEXT	ENDS
EXTRN	__imp_??1UnicodeSet@icu_56@@UAE@XZ:PROC
; Function compile flags: /Odtp /RTCsu /ZI
;	COMDAT ??_GUnicodeSet@icu_56@@UAEPAXI@Z
_TEXT	SEGMENT
_this$ = -8						; size = 4
___flags$ = 8						; size = 4
??_GUnicodeSet@icu_56@@UAEPAXI@Z PROC			; icu_56::UnicodeSet::`scalar deleting destructor', COMDAT
; _this$ = ecx
	push	ebp
	mov	ebp, esp
	sub	esp, 204				; 000000ccH
	push	ebx
	push	esi
	push	edi
	push	ecx
	lea	edi, DWORD PTR [ebp-204]
	mov	ecx, 51					; 00000033H
	mov	eax, -858993460				; ccccccccH
	rep stosd
	pop	ecx
	mov	DWORD PTR _this$[ebp], ecx
	mov	esi, esp
	mov	ecx, DWORD PTR _this$[ebp]
	call	DWORD PTR __imp_??1UnicodeSet@icu_56@@UAE@XZ
	cmp	esi, esp
	call	__RTC_CheckEsp
	mov	eax, DWORD PTR ___flags$[ebp]
	and	eax, 1
	je	SHORT $LN1@scalar
	mov	esi, esp
	mov	eax, DWORD PTR _this$[ebp]
	push	eax
	call	DWORD PTR __imp_??3UMemory@icu_56@@SAXPAX@Z
	add	esp, 4
	cmp	esi, esp
	call	__RTC_CheckEsp
$LN1@scalar:
	mov	eax, DWORD PTR _this$[ebp]
	pop	edi
	pop	esi
	pop	ebx
	add	esp, 204				; 000000ccH
	cmp	ebp, esp
	call	__RTC_CheckEsp
	mov	esp, ebp
	pop	ebp
	ret	4
??_GUnicodeSet@icu_56@@UAEPAXI@Z ENDP			; icu_56::UnicodeSet::`scalar deleting destructor'
_TEXT	ENDS
PUBLIC	_uspoof_open_56
EXTRN	?addReference@SpoofData@icu_56@@QAEPAV12@XZ:PROC ; icu_56::SpoofData::addReference
EXTRN	??0SpoofImpl@icu_56@@QAE@PAVSpoofData@1@AAW4UErrorCode@@@Z:PROC ; icu_56::SpoofImpl::SpoofImpl
; Function compile flags: /Odtp /RTCsu /ZI
;	COMDAT _uspoof_open_56
_TEXT	SEGMENT
tv136 = -256						; size = 4
tv83 = -256						; size = 4
$T78284 = -248						; size = 4
$T78285 = -236						; size = 4
$T78288 = -224						; size = 4
$T78289 = -212						; size = 4
_si$ = -8						; size = 4
_status$ = 8						; size = 4
_uspoof_open_56 PROC					; COMDAT
; File d:\mozilla\intl\icu\source\i18n\uspoof.cpp
; Line 148
	push	ebp
	mov	ebp, esp
	sub	esp, 256				; 00000100H
	push	ebx
	push	esi
	push	edi
	lea	edi, DWORD PTR [ebp-256]
	mov	ecx, 64					; 00000040H
	mov	eax, -858993460				; ccccccccH
	rep stosd
; Line 149
	mov	eax, DWORD PTR _status$[ebp]
	push	eax
	push	OFFSET ?initializeStatics@@YAXAAW4UErrorCode@@@Z ; initializeStatics
	push	OFFSET _gSpoofInitStaticsOnce
	call	?umtx_initOnce@icu_56@@YAXAAUUInitOnce@1@P6AXAAW4UErrorCode@@@Z1@Z ; icu_56::umtx_initOnce
	add	esp, 12					; 0000000cH
; Line 150
	mov	eax, DWORD PTR _status$[ebp]
	push	eax
	push	OFFSET ?initializeDefaultData@@YAXAAW4UErrorCode@@@Z ; initializeDefaultData
	push	OFFSET _gSpoofInitDefaultOnce
	call	?umtx_initOnce@icu_56@@YAXAAUUInitOnce@1@P6AXAAW4UErrorCode@@@Z1@Z ; icu_56::umtx_initOnce
	add	esp, 12					; 0000000cH
; Line 151
	mov	eax, DWORD PTR _status$[ebp]
	mov	ecx, DWORD PTR [eax]
	push	ecx
	call	?U_FAILURE@@YACW4UErrorCode@@@Z		; U_FAILURE
	add	esp, 4
	movsx	edx, al
	test	edx, edx
	je	SHORT $LN4@uspoof_ope
; Line 152
	xor	eax, eax
	jmp	$LN5@uspoof_ope
$LN4@uspoof_ope:
; Line 154
	mov	esi, esp
	push	32					; 00000020H
	call	DWORD PTR __imp_??2UMemory@icu_56@@SAPAXI@Z
	add	esp, 4
	cmp	esi, esp
	call	__RTC_CheckEsp
	mov	DWORD PTR $T78285[ebp], eax
	cmp	DWORD PTR $T78285[ebp], 0
	je	SHORT $LN7@uspoof_ope
	mov	eax, DWORD PTR _status$[ebp]
	push	eax
	mov	ecx, DWORD PTR _gDefaultSpoofData
	push	ecx
	mov	ecx, DWORD PTR $T78285[ebp]
	call	??0SpoofImpl@icu_56@@QAE@PAVSpoofData@1@AAW4UErrorCode@@@Z ; icu_56::SpoofImpl::SpoofImpl
	mov	DWORD PTR tv83[ebp], eax
	jmp	SHORT $LN8@uspoof_ope
$LN7@uspoof_ope:
	mov	DWORD PTR tv83[ebp], 0
$LN8@uspoof_ope:
	mov	edx, DWORD PTR tv83[ebp]
	mov	DWORD PTR $T78284[ebp], edx
	mov	eax, DWORD PTR $T78284[ebp]
	mov	DWORD PTR _si$[ebp], eax
; Line 155
	cmp	DWORD PTR _si$[ebp], 0
	je	SHORT $LN3@uspoof_ope
; Line 156
	mov	ecx, DWORD PTR _gDefaultSpoofData
	call	?addReference@SpoofData@icu_56@@QAEPAV12@XZ ; icu_56::SpoofData::addReference
$LN3@uspoof_ope:
; Line 158
	mov	eax, DWORD PTR _status$[ebp]
	mov	ecx, DWORD PTR [eax]
	push	ecx
	call	?U_SUCCESS@@YACW4UErrorCode@@@Z		; U_SUCCESS
	add	esp, 4
	movsx	edx, al
	test	edx, edx
	je	SHORT $LN2@uspoof_ope
	cmp	DWORD PTR _si$[ebp], 0
	jne	SHORT $LN2@uspoof_ope
; Line 159
	mov	eax, DWORD PTR _status$[ebp]
	mov	DWORD PTR [eax], 7
$LN2@uspoof_ope:
; Line 161
	mov	eax, DWORD PTR _status$[ebp]
	mov	ecx, DWORD PTR [eax]
	push	ecx
	call	?U_FAILURE@@YACW4UErrorCode@@@Z		; U_FAILURE
	add	esp, 4
	movsx	edx, al
	test	edx, edx
	je	SHORT $LN1@uspoof_ope
; Line 162
	mov	eax, DWORD PTR _si$[ebp]
	mov	DWORD PTR $T78289[ebp], eax
	mov	ecx, DWORD PTR $T78289[ebp]
	mov	DWORD PTR $T78288[ebp], ecx
	cmp	DWORD PTR $T78288[ebp], 0
	je	SHORT $LN9@uspoof_ope
	mov	esi, esp
	push	1
	mov	edx, DWORD PTR $T78288[ebp]
	mov	eax, DWORD PTR [edx]
	mov	ecx, DWORD PTR $T78288[ebp]
	mov	edx, DWORD PTR [eax]
	call	edx
	cmp	esi, esp
	call	__RTC_CheckEsp
	mov	DWORD PTR tv136[ebp], eax
	jmp	SHORT $LN10@uspoof_ope
$LN9@uspoof_ope:
	mov	DWORD PTR tv136[ebp], 0
$LN10@uspoof_ope:
; Line 163
	mov	DWORD PTR _si$[ebp], 0
$LN1@uspoof_ope:
; Line 165
	mov	eax, DWORD PTR _si$[ebp]
$LN5@uspoof_ope:
; Line 166
	pop	edi
	pop	esi
	pop	ebx
	add	esp, 256				; 00000100H
	cmp	ebp, esp
	call	__RTC_CheckEsp
	mov	esp, ebp
	pop	ebp
	ret	0
_uspoof_open_56 ENDP
; Function compile flags: /Odtp /RTCsu /ZI
_TEXT	ENDS
;	COMDAT ?U_SUCCESS@@YACW4UErrorCode@@@Z
_TEXT	SEGMENT
_code$ = 8						; size = 4
?U_SUCCESS@@YACW4UErrorCode@@@Z PROC			; U_SUCCESS, COMDAT
; File d:\mozilla\intl\icu\include\unicode\utypes.h
; Line 699
	push	ebp
	mov	ebp, esp
	sub	esp, 192				; 000000c0H
	push	ebx
	push	esi
	push	edi
	lea	edi, DWORD PTR [ebp-192]
	mov	ecx, 48					; 00000030H
	mov	eax, -858993460				; ccccccccH
	rep stosd
	cmp	DWORD PTR _code$[ebp], 0
	setle	al
	pop	edi
	pop	esi
	pop	ebx
	mov	esp, ebp
	pop	ebp
	ret	0
?U_SUCCESS@@YACW4UErrorCode@@@Z ENDP			; U_SUCCESS
_TEXT	ENDS
EXTRN	?getDefault@SpoofData@icu_56@@SAPAV12@AAW4UErrorCode@@@Z:PROC ; icu_56::SpoofData::getDefault
; Function compile flags: /Odtp /RTCsu /ZI
;	COMDAT ?initializeDefaultData@@YAXAAW4UErrorCode@@@Z
_TEXT	SEGMENT
_status$ = 8						; size = 4
?initializeDefaultData@@YAXAAW4UErrorCode@@@Z PROC	; initializeDefaultData, COMDAT
; File d:\mozilla\intl\icu\source\i18n\uspoof.cpp
; Line 138
	push	ebp
	mov	ebp, esp
	sub	esp, 192				; 000000c0H
	push	ebx
	push	esi
	push	edi
	lea	edi, DWORD PTR [ebp-192]
	mov	ecx, 48					; 00000030H
	mov	eax, -858993460				; ccccccccH
	rep stosd
; Line 139
	mov	eax, DWORD PTR _status$[ebp]
	push	eax
	call	?getDefault@SpoofData@icu_56@@SAPAV12@AAW4UErrorCode@@@Z ; icu_56::SpoofData::getDefault
	add	esp, 4
	mov	DWORD PTR _gDefaultSpoofData, eax
; Line 140
	push	OFFSET ?uspoof_cleanup@@YACXZ		; uspoof_cleanup
	push	1
	call	_ucln_i18n_registerCleanup_56
	add	esp, 8
; Line 141
	pop	edi
	pop	esi
	pop	ebx
	add	esp, 192				; 000000c0H
	cmp	ebp, esp
	call	__RTC_CheckEsp
	mov	esp, ebp
	pop	ebp
	ret	0
?initializeDefaultData@@YAXAAW4UErrorCode@@@Z ENDP	; initializeDefaultData
_TEXT	ENDS
PUBLIC	??_GSpoofData@icu_56@@QAEPAXI@Z			; icu_56::SpoofData::`scalar deleting destructor'
PUBLIC	_uspoof_openFromSerialized_56
EXTRN	??0SpoofData@icu_56@@QAE@PBXHAAW4UErrorCode@@@Z:PROC ; icu_56::SpoofData::SpoofData
; Function compile flags: /Odtp /RTCsu /ZI
;	COMDAT _uspoof_openFromSerialized_56
_TEXT	SEGMENT
tv159 = -364						; size = 4
tv148 = -364						; size = 4
tv141 = -364						; size = 4
tv130 = -364						; size = 4
tv90 = -364						; size = 4
tv81 = -364						; size = 4
$T78298 = -356						; size = 4
$T78299 = -344						; size = 4
$T78302 = -332						; size = 4
$T78303 = -320						; size = 4
$T78306 = -308						; size = 4
$T78307 = -296						; size = 4
$T78310 = -284						; size = 4
$T78311 = -272						; size = 4
$T78314 = -260						; size = 4
$T78315 = -248						; size = 4
$T78318 = -236						; size = 4
$T78319 = -224						; size = 4
_si$ = -20						; size = 4
_sd$ = -8						; size = 4
_data$ = 8						; size = 4
_length$ = 12						; size = 4
_pActualLength$ = 16					; size = 4
_status$ = 20						; size = 4
_uspoof_openFromSerialized_56 PROC			; COMDAT
; Line 171
	push	ebp
	mov	ebp, esp
	sub	esp, 364				; 0000016cH
	push	ebx
	push	esi
	push	edi
	lea	edi, DWORD PTR [ebp-364]
	mov	ecx, 91					; 0000005bH
	mov	eax, -858993460				; ccccccccH
	rep stosd
; Line 172
	mov	eax, DWORD PTR _status$[ebp]
	mov	ecx, DWORD PTR [eax]
	push	ecx
	call	?U_FAILURE@@YACW4UErrorCode@@@Z		; U_FAILURE
	add	esp, 4
	movsx	edx, al
	test	edx, edx
	je	SHORT $LN5@uspoof_ope@2
; Line 173
	xor	eax, eax
	jmp	$LN6@uspoof_ope@2
$LN5@uspoof_ope@2:
; Line 175
	mov	eax, DWORD PTR _status$[ebp]
	push	eax
	push	OFFSET ?initializeStatics@@YAXAAW4UErrorCode@@@Z ; initializeStatics
	push	OFFSET _gSpoofInitStaticsOnce
	call	?umtx_initOnce@icu_56@@YAXAAUUInitOnce@1@P6AXAAW4UErrorCode@@@Z1@Z ; icu_56::umtx_initOnce
	add	esp, 12					; 0000000cH
; Line 176
	mov	esi, esp
	push	48					; 00000030H
	call	DWORD PTR __imp_??2UMemory@icu_56@@SAPAXI@Z
	add	esp, 4
	cmp	esi, esp
	call	__RTC_CheckEsp
	mov	DWORD PTR $T78299[ebp], eax
	cmp	DWORD PTR $T78299[ebp], 0
	je	SHORT $LN8@uspoof_ope@2
	mov	eax, DWORD PTR _status$[ebp]
	push	eax
	mov	ecx, DWORD PTR _length$[ebp]
	push	ecx
	mov	edx, DWORD PTR _data$[ebp]
	push	edx
	mov	ecx, DWORD PTR $T78299[ebp]
	call	??0SpoofData@icu_56@@QAE@PBXHAAW4UErrorCode@@@Z ; icu_56::SpoofData::SpoofData
	mov	DWORD PTR tv81[ebp], eax
	jmp	SHORT $LN9@uspoof_ope@2
$LN8@uspoof_ope@2:
	mov	DWORD PTR tv81[ebp], 0
$LN9@uspoof_ope@2:
	mov	eax, DWORD PTR tv81[ebp]
	mov	DWORD PTR $T78298[ebp], eax
	mov	ecx, DWORD PTR $T78298[ebp]
	mov	DWORD PTR _sd$[ebp], ecx
; Line 177
	mov	esi, esp
	push	32					; 00000020H
	call	DWORD PTR __imp_??2UMemory@icu_56@@SAPAXI@Z
	add	esp, 4
	cmp	esi, esp
	call	__RTC_CheckEsp
	mov	DWORD PTR $T78303[ebp], eax
	cmp	DWORD PTR $T78303[ebp], 0
	je	SHORT $LN10@uspoof_ope@2
	mov	eax, DWORD PTR _status$[ebp]
	push	eax
	mov	ecx, DWORD PTR _sd$[ebp]
	push	ecx
	mov	ecx, DWORD PTR $T78303[ebp]
	call	??0SpoofImpl@icu_56@@QAE@PAVSpoofData@1@AAW4UErrorCode@@@Z ; icu_56::SpoofImpl::SpoofImpl
	mov	DWORD PTR tv90[ebp], eax
	jmp	SHORT $LN11@uspoof_ope@2
$LN10@uspoof_ope@2:
	mov	DWORD PTR tv90[ebp], 0
$LN11@uspoof_ope@2:
	mov	edx, DWORD PTR tv90[ebp]
	mov	DWORD PTR $T78302[ebp], edx
	mov	eax, DWORD PTR $T78302[ebp]
	mov	DWORD PTR _si$[ebp], eax
; Line 178
	mov	eax, DWORD PTR _status$[ebp]
	mov	ecx, DWORD PTR [eax]
	push	ecx
	call	?U_FAILURE@@YACW4UErrorCode@@@Z		; U_FAILURE
	add	esp, 4
	movsx	edx, al
	test	edx, edx
	je	$LN4@uspoof_ope@2
; Line 179
	mov	eax, DWORD PTR _sd$[ebp]
	mov	DWORD PTR $T78307[ebp], eax
	mov	ecx, DWORD PTR $T78307[ebp]
	mov	DWORD PTR $T78306[ebp], ecx
	cmp	DWORD PTR $T78306[ebp], 0
	je	SHORT $LN12@uspoof_ope@2
	push	1
	mov	ecx, DWORD PTR $T78306[ebp]
	call	??_GSpoofData@icu_56@@QAEPAXI@Z
	mov	DWORD PTR tv130[ebp], eax
	jmp	SHORT $LN13@uspoof_ope@2
$LN12@uspoof_ope@2:
	mov	DWORD PTR tv130[ebp], 0
$LN13@uspoof_ope@2:
; Line 180
	mov	eax, DWORD PTR _si$[ebp]
	mov	DWORD PTR $T78311[ebp], eax
	mov	ecx, DWORD PTR $T78311[ebp]
	mov	DWORD PTR $T78310[ebp], ecx
	cmp	DWORD PTR $T78310[ebp], 0
	je	SHORT $LN14@uspoof_ope@2
	mov	esi, esp
	push	1
	mov	edx, DWORD PTR $T78310[ebp]
	mov	eax, DWORD PTR [edx]
	mov	ecx, DWORD PTR $T78310[ebp]
	mov	edx, DWORD PTR [eax]
	call	edx
	cmp	esi, esp
	call	__RTC_CheckEsp
	mov	DWORD PTR tv141[ebp], eax
	jmp	SHORT $LN15@uspoof_ope@2
$LN14@uspoof_ope@2:
	mov	DWORD PTR tv141[ebp], 0
$LN15@uspoof_ope@2:
; Line 181
	xor	eax, eax
	jmp	$LN6@uspoof_ope@2
$LN4@uspoof_ope@2:
; Line 183
	cmp	DWORD PTR _sd$[ebp], 0
	je	SHORT $LN2@uspoof_ope@2
	cmp	DWORD PTR _si$[ebp], 0
	jne	$LN3@uspoof_ope@2
$LN2@uspoof_ope@2:
; Line 184
	mov	eax, DWORD PTR _status$[ebp]
	mov	DWORD PTR [eax], 7
; Line 185
	mov	eax, DWORD PTR _sd$[ebp]
	mov	DWORD PTR $T78315[ebp], eax
	mov	ecx, DWORD PTR $T78315[ebp]
	mov	DWORD PTR $T78314[ebp], ecx
	cmp	DWORD PTR $T78314[ebp], 0
	je	SHORT $LN16@uspoof_ope@2
	push	1
	mov	ecx, DWORD PTR $T78314[ebp]
	call	??_GSpoofData@icu_56@@QAEPAXI@Z
	mov	DWORD PTR tv148[ebp], eax
	jmp	SHORT $LN17@uspoof_ope@2
$LN16@uspoof_ope@2:
	mov	DWORD PTR tv148[ebp], 0
$LN17@uspoof_ope@2:
; Line 186
	mov	eax, DWORD PTR _si$[ebp]
	mov	DWORD PTR $T78319[ebp], eax
	mov	ecx, DWORD PTR $T78319[ebp]
	mov	DWORD PTR $T78318[ebp], ecx
	cmp	DWORD PTR $T78318[ebp], 0
	je	SHORT $LN18@uspoof_ope@2
	mov	esi, esp
	push	1
	mov	edx, DWORD PTR $T78318[ebp]
	mov	eax, DWORD PTR [edx]
	mov	ecx, DWORD PTR $T78318[ebp]
	mov	edx, DWORD PTR [eax]
	call	edx
	cmp	esi, esp
	call	__RTC_CheckEsp
	mov	DWORD PTR tv159[ebp], eax
	jmp	SHORT $LN19@uspoof_ope@2
$LN18@uspoof_ope@2:
	mov	DWORD PTR tv159[ebp], 0
$LN19@uspoof_ope@2:
; Line 187
	xor	eax, eax
	jmp	SHORT $LN6@uspoof_ope@2
$LN3@uspoof_ope@2:
; Line 190
	cmp	DWORD PTR _pActualLength$[ebp], 0
	je	SHORT $LN1@uspoof_ope@2
; Line 191
	mov	eax, DWORD PTR _sd$[ebp]
	mov	ecx, DWORD PTR [eax]
	mov	edx, DWORD PTR _pActualLength$[ebp]
	mov	eax, DWORD PTR [ecx+8]
	mov	DWORD PTR [edx], eax
$LN1@uspoof_ope@2:
; Line 193
	mov	eax, DWORD PTR _si$[ebp]
$LN6@uspoof_ope@2:
; Line 194
	pop	edi
	pop	esi
	pop	ebx
	add	esp, 364				; 0000016cH
	cmp	ebp, esp
	call	__RTC_CheckEsp
	mov	esp, ebp
	pop	ebp
	ret	0
_uspoof_openFromSerialized_56 ENDP
_TEXT	ENDS
EXTRN	??1SpoofData@icu_56@@QAE@XZ:PROC		; icu_56::SpoofData::~SpoofData
; Function compile flags: /Odtp /RTCsu /ZI
;	COMDAT ??_GSpoofData@icu_56@@QAEPAXI@Z
_TEXT	SEGMENT
_this$ = -8						; size = 4
___flags$ = 8						; size = 4
??_GSpoofData@icu_56@@QAEPAXI@Z PROC			; icu_56::SpoofData::`scalar deleting destructor', COMDAT
; _this$ = ecx
	push	ebp
	mov	ebp, esp
	sub	esp, 204				; 000000ccH
	push	ebx
	push	esi
	push	edi
	push	ecx
	lea	edi, DWORD PTR [ebp-204]
	mov	ecx, 51					; 00000033H
	mov	eax, -858993460				; ccccccccH
	rep stosd
	pop	ecx
	mov	DWORD PTR _this$[ebp], ecx
	mov	ecx, DWORD PTR _this$[ebp]
	call	??1SpoofData@icu_56@@QAE@XZ		; icu_56::SpoofData::~SpoofData
	mov	eax, DWORD PTR ___flags$[ebp]
	and	eax, 1
	je	SHORT $LN1@scalar@2
	mov	esi, esp
	mov	eax, DWORD PTR _this$[ebp]
	push	eax
	call	DWORD PTR __imp_??3UMemory@icu_56@@SAXPAX@Z
	add	esp, 4
	cmp	esi, esp
	call	__RTC_CheckEsp
$LN1@scalar@2:
	mov	eax, DWORD PTR _this$[ebp]
	pop	edi
	pop	esi
	pop	ebx
	add	esp, 204				; 000000ccH
	cmp	ebp, esp
	call	__RTC_CheckEsp
	mov	esp, ebp
	pop	ebp
	ret	4
??_GSpoofData@icu_56@@QAEPAXI@Z ENDP			; icu_56::SpoofData::`scalar deleting destructor'
_TEXT	ENDS
PUBLIC	_uspoof_clone_56
EXTRN	??0SpoofImpl@icu_56@@QAE@ABV01@AAW4UErrorCode@@@Z:PROC ; icu_56::SpoofImpl::SpoofImpl
EXTRN	?validateThis@SpoofImpl@icu_56@@SAPBV12@PBUUSpoofChecker@@AAW4UErrorCode@@@Z:PROC ; icu_56::SpoofImpl::validateThis
; Function compile flags: /Odtp /RTCsu /ZI
;	COMDAT _uspoof_clone_56
_TEXT	SEGMENT
tv91 = -268						; size = 4
tv77 = -268						; size = 4
$T78326 = -260						; size = 4
$T78327 = -248						; size = 4
$T78330 = -236						; size = 4
$T78331 = -224						; size = 4
_result$ = -20						; size = 4
_src$ = -8						; size = 4
_sc$ = 8						; size = 4
_status$ = 12						; size = 4
_uspoof_clone_56 PROC					; COMDAT
; Line 198
	push	ebp
	mov	ebp, esp
	sub	esp, 268				; 0000010cH
	push	ebx
	push	esi
	push	edi
	lea	edi, DWORD PTR [ebp-268]
	mov	ecx, 67					; 00000043H
	mov	eax, -858993460				; ccccccccH
	rep stosd
; Line 199
	mov	eax, DWORD PTR _status$[ebp]
	push	eax
	mov	ecx, DWORD PTR _sc$[ebp]
	push	ecx
	call	?validateThis@SpoofImpl@icu_56@@SAPBV12@PBUUSpoofChecker@@AAW4UErrorCode@@@Z ; icu_56::SpoofImpl::validateThis
	add	esp, 8
	mov	DWORD PTR _src$[ebp], eax
; Line 200
	cmp	DWORD PTR _src$[ebp], 0
	jne	SHORT $LN2@uspoof_clo
; Line 201
	xor	eax, eax
	jmp	$LN3@uspoof_clo
$LN2@uspoof_clo:
; Line 203
	mov	esi, esp
	push	32					; 00000020H
	call	DWORD PTR __imp_??2UMemory@icu_56@@SAPAXI@Z
	add	esp, 4
	cmp	esi, esp
	call	__RTC_CheckEsp
	mov	DWORD PTR $T78327[ebp], eax
	cmp	DWORD PTR $T78327[ebp], 0
	je	SHORT $LN5@uspoof_clo
	mov	eax, DWORD PTR _status$[ebp]
	push	eax
	mov	ecx, DWORD PTR _src$[ebp]
	push	ecx
	mov	ecx, DWORD PTR $T78327[ebp]
	call	??0SpoofImpl@icu_56@@QAE@ABV01@AAW4UErrorCode@@@Z ; icu_56::SpoofImpl::SpoofImpl
	mov	DWORD PTR tv77[ebp], eax
	jmp	SHORT $LN6@uspoof_clo
$LN5@uspoof_clo:
	mov	DWORD PTR tv77[ebp], 0
$LN6@uspoof_clo:
	mov	edx, DWORD PTR tv77[ebp]
	mov	DWORD PTR $T78326[ebp], edx
	mov	eax, DWORD PTR $T78326[ebp]
	mov	DWORD PTR _result$[ebp], eax
; Line 204
	mov	eax, DWORD PTR _status$[ebp]
	mov	ecx, DWORD PTR [eax]
	push	ecx
	call	?U_FAILURE@@YACW4UErrorCode@@@Z		; U_FAILURE
	add	esp, 4
	movsx	edx, al
	test	edx, edx
	je	SHORT $LN1@uspoof_clo
; Line 205
	mov	eax, DWORD PTR _result$[ebp]
	mov	DWORD PTR $T78331[ebp], eax
	mov	ecx, DWORD PTR $T78331[ebp]
	mov	DWORD PTR $T78330[ebp], ecx
	cmp	DWORD PTR $T78330[ebp], 0
	je	SHORT $LN7@uspoof_clo
	mov	esi, esp
	push	1
	mov	edx, DWORD PTR $T78330[ebp]
	mov	eax, DWORD PTR [edx]
	mov	ecx, DWORD PTR $T78330[ebp]
	mov	edx, DWORD PTR [eax]
	call	edx
	cmp	esi, esp
	call	__RTC_CheckEsp
	mov	DWORD PTR tv91[ebp], eax
	jmp	SHORT $LN8@uspoof_clo
$LN7@uspoof_clo:
	mov	DWORD PTR tv91[ebp], 0
$LN8@uspoof_clo:
; Line 206
	mov	DWORD PTR _result$[ebp], 0
$LN1@uspoof_clo:
; Line 208
	mov	eax, DWORD PTR _result$[ebp]
$LN3@uspoof_clo:
; Line 209
	pop	edi
	pop	esi
	pop	ebx
	add	esp, 268				; 0000010cH
	cmp	ebp, esp
	call	__RTC_CheckEsp
	mov	esp, ebp
	pop	ebp
	ret	0
_uspoof_clone_56 ENDP
_TEXT	ENDS
PUBLIC	_uspoof_close_56
EXTRN	?validateThis@SpoofImpl@icu_56@@SAPAV12@PAUUSpoofChecker@@AAW4UErrorCode@@@Z:PROC ; icu_56::SpoofImpl::validateThis
EXTRN	@_RTC_CheckStackVars@8:PROC
; Function compile flags: /Odtp /RTCsu /ZI
;	COMDAT _uspoof_close_56
_TEXT	SEGMENT
tv77 = -244						; size = 4
$T78336 = -236						; size = 4
$T78337 = -224						; size = 4
_This$ = -20						; size = 4
_status$ = -8						; size = 4
_sc$ = 8						; size = 4
_uspoof_close_56 PROC					; COMDAT
; Line 213
	push	ebp
	mov	ebp, esp
	sub	esp, 244				; 000000f4H
	push	ebx
	push	esi
	push	edi
	lea	edi, DWORD PTR [ebp-244]
	mov	ecx, 61					; 0000003dH
	mov	eax, -858993460				; ccccccccH
	rep stosd
; Line 214
	mov	DWORD PTR _status$[ebp], 0
; Line 215
	lea	eax, DWORD PTR _status$[ebp]
	push	eax
	mov	ecx, DWORD PTR _sc$[ebp]
	push	ecx
	call	?validateThis@SpoofImpl@icu_56@@SAPAV12@PAUUSpoofChecker@@AAW4UErrorCode@@@Z ; icu_56::SpoofImpl::validateThis
	add	esp, 8
	mov	DWORD PTR _This$[ebp], eax
; Line 216
	mov	eax, DWORD PTR _This$[ebp]
	mov	DWORD PTR $T78337[ebp], eax
	mov	ecx, DWORD PTR $T78337[ebp]
	mov	DWORD PTR $T78336[ebp], ecx
	cmp	DWORD PTR $T78336[ebp], 0
	je	SHORT $LN3@uspoof_clo@2
	mov	esi, esp
	push	1
	mov	edx, DWORD PTR $T78336[ebp]
	mov	eax, DWORD PTR [edx]
	mov	ecx, DWORD PTR $T78336[ebp]
	mov	edx, DWORD PTR [eax]
	call	edx
	cmp	esi, esp
	call	__RTC_CheckEsp
	mov	DWORD PTR tv77[ebp], eax
	jmp	SHORT $LN1@uspoof_clo@2
$LN3@uspoof_clo@2:
	mov	DWORD PTR tv77[ebp], 0
$LN1@uspoof_clo@2:
; Line 217
	push	edx
	mov	ecx, ebp
	push	eax
	lea	edx, DWORD PTR $LN7@uspoof_clo@2
	call	@_RTC_CheckStackVars@8
	pop	eax
	pop	edx
	pop	edi
	pop	esi
	pop	ebx
	add	esp, 244				; 000000f4H
	cmp	ebp, esp
	call	__RTC_CheckEsp
	mov	esp, ebp
	pop	ebp
	ret	0
	npad	2
$LN7@uspoof_clo@2:
	DD	1
	DD	$LN6@uspoof_clo@2
$LN6@uspoof_clo@2:
	DD	-8					; fffffff8H
	DD	4
	DD	$LN5@uspoof_clo@2
$LN5@uspoof_clo@2:
	DB	115					; 00000073H
	DB	116					; 00000074H
	DB	97					; 00000061H
	DB	116					; 00000074H
	DB	117					; 00000075H
	DB	115					; 00000073H
	DB	0
_uspoof_close_56 ENDP
_TEXT	ENDS
PUBLIC	_uspoof_setChecks_56
; Function compile flags: /Odtp /RTCsu /ZI
;	COMDAT _uspoof_setChecks_56
_TEXT	SEGMENT
_This$ = -8						; size = 4
_sc$ = 8						; size = 4
_checks$ = 12						; size = 4
_status$ = 16						; size = 4
_uspoof_setChecks_56 PROC				; COMDAT
; Line 221
	push	ebp
	mov	ebp, esp
	sub	esp, 204				; 000000ccH
	push	ebx
	push	esi
	push	edi
	lea	edi, DWORD PTR [ebp-204]
	mov	ecx, 51					; 00000033H
	mov	eax, -858993460				; ccccccccH
	rep stosd
; Line 222
	mov	eax, DWORD PTR _status$[ebp]
	push	eax
	mov	ecx, DWORD PTR _sc$[ebp]
	push	ecx
	call	?validateThis@SpoofImpl@icu_56@@SAPAV12@PAUUSpoofChecker@@AAW4UErrorCode@@@Z ; icu_56::SpoofImpl::validateThis
	add	esp, 8
	mov	DWORD PTR _This$[ebp], eax
; Line 223
	cmp	DWORD PTR _This$[ebp], 0
	jne	SHORT $LN2@uspoof_set
; Line 224
	jmp	SHORT $LN3@uspoof_set
$LN2@uspoof_set:
; Line 229
	mov	eax, DWORD PTR _checks$[ebp]
	and	eax, -1073807360			; bfff0000H
	je	SHORT $LN1@uspoof_set
; Line 230
	mov	eax, DWORD PTR _status$[ebp]
	mov	DWORD PTR [eax], 1
; Line 231
	jmp	SHORT $LN3@uspoof_set
$LN1@uspoof_set:
; Line 234
	mov	eax, DWORD PTR _This$[ebp]
	mov	ecx, DWORD PTR _checks$[ebp]
	mov	DWORD PTR [eax+8], ecx
$LN3@uspoof_set:
; Line 235
	pop	edi
	pop	esi
	pop	ebx
	add	esp, 204				; 000000ccH
	cmp	ebp, esp
	call	__RTC_CheckEsp
	mov	esp, ebp
	pop	ebp
	ret	0
_uspoof_setChecks_56 ENDP
_TEXT	ENDS
PUBLIC	_uspoof_getChecks_56
; Function compile flags: /Odtp /RTCsu /ZI
;	COMDAT _uspoof_getChecks_56
_TEXT	SEGMENT
_This$ = -8						; size = 4
_sc$ = 8						; size = 4
_status$ = 12						; size = 4
_uspoof_getChecks_56 PROC				; COMDAT
; Line 239
	push	ebp
	mov	ebp, esp
	sub	esp, 204				; 000000ccH
	push	ebx
	push	esi
	push	edi
	lea	edi, DWORD PTR [ebp-204]
	mov	ecx, 51					; 00000033H
	mov	eax, -858993460				; ccccccccH
	rep stosd
; Line 240
	mov	eax, DWORD PTR _status$[ebp]
	push	eax
	mov	ecx, DWORD PTR _sc$[ebp]
	push	ecx
	call	?validateThis@SpoofImpl@icu_56@@SAPBV12@PBUUSpoofChecker@@AAW4UErrorCode@@@Z ; icu_56::SpoofImpl::validateThis
	add	esp, 8
	mov	DWORD PTR _This$[ebp], eax
; Line 241
	cmp	DWORD PTR _This$[ebp], 0
	jne	SHORT $LN1@uspoof_get
; Line 242
	xor	eax, eax
	jmp	SHORT $LN2@uspoof_get
$LN1@uspoof_get:
; Line 244
	mov	eax, DWORD PTR _This$[ebp]
	mov	eax, DWORD PTR [eax+8]
$LN2@uspoof_get:
; Line 245
	pop	edi
	pop	esi
	pop	ebx
	add	esp, 204				; 000000ccH
	cmp	ebp, esp
	call	__RTC_CheckEsp
	mov	esp, ebp
	pop	ebp
	ret	0
_uspoof_getChecks_56 ENDP
_TEXT	ENDS
PUBLIC	_uspoof_setRestrictionLevel_56
; Function compile flags: /Odtp /RTCsu /ZI
;	COMDAT _uspoof_setRestrictionLevel_56
_TEXT	SEGMENT
_This$ = -20						; size = 4
_status$ = -8						; size = 4
_sc$ = 8						; size = 4
_restrictionLevel$ = 12					; size = 4
_uspoof_setRestrictionLevel_56 PROC			; COMDAT
; Line 248
	push	ebp
	mov	ebp, esp
	sub	esp, 216				; 000000d8H
	push	ebx
	push	esi
	push	edi
	lea	edi, DWORD PTR [ebp-216]
	mov	ecx, 54					; 00000036H
	mov	eax, -858993460				; ccccccccH
	rep stosd
; Line 249
	mov	DWORD PTR _status$[ebp], 0
; Line 250
	lea	eax, DWORD PTR _status$[ebp]
	push	eax
	mov	ecx, DWORD PTR _sc$[ebp]
	push	ecx
	call	?validateThis@SpoofImpl@icu_56@@SAPAV12@PAUUSpoofChecker@@AAW4UErrorCode@@@Z ; icu_56::SpoofImpl::validateThis
	add	esp, 8
	mov	DWORD PTR _This$[ebp], eax
; Line 251
	cmp	DWORD PTR _This$[ebp], 0
	je	SHORT $LN2@uspoof_set@2
; Line 252
	mov	eax, DWORD PTR _This$[ebp]
	mov	ecx, DWORD PTR _restrictionLevel$[ebp]
	mov	DWORD PTR [eax+24], ecx
$LN2@uspoof_set@2:
; Line 254
	push	edx
	mov	ecx, ebp
	push	eax
	lea	edx, DWORD PTR $LN6@uspoof_set@2
	call	@_RTC_CheckStackVars@8
	pop	eax
	pop	edx
	pop	edi
	pop	esi
	pop	ebx
	add	esp, 216				; 000000d8H
	cmp	ebp, esp
	call	__RTC_CheckEsp
	mov	esp, ebp
	pop	ebp
	ret	0
$LN6@uspoof_set@2:
	DD	1
	DD	$LN5@uspoof_set@2
$LN5@uspoof_set@2:
	DD	-8					; fffffff8H
	DD	4
	DD	$LN4@uspoof_set@2
$LN4@uspoof_set@2:
	DB	115					; 00000073H
	DB	116					; 00000074H
	DB	97					; 00000061H
	DB	116					; 00000074H
	DB	117					; 00000075H
	DB	115					; 00000073H
	DB	0
_uspoof_setRestrictionLevel_56 ENDP
_TEXT	ENDS
PUBLIC	_uspoof_getRestrictionLevel_56
; Function compile flags: /Odtp /RTCsu /ZI
;	COMDAT _uspoof_getRestrictionLevel_56
_TEXT	SEGMENT
_This$ = -20						; size = 4
_status$ = -8						; size = 4
_sc$ = 8						; size = 4
_uspoof_getRestrictionLevel_56 PROC			; COMDAT
; Line 257
	push	ebp
	mov	ebp, esp
	sub	esp, 216				; 000000d8H
	push	ebx
	push	esi
	push	edi
	lea	edi, DWORD PTR [ebp-216]
	mov	ecx, 54					; 00000036H
	mov	eax, -858993460				; ccccccccH
	rep stosd
; Line 258
	mov	DWORD PTR _status$[ebp], 0
; Line 259
	lea	eax, DWORD PTR _status$[ebp]
	push	eax
	mov	ecx, DWORD PTR _sc$[ebp]
	push	ecx
	call	?validateThis@SpoofImpl@icu_56@@SAPBV12@PBUUSpoofChecker@@AAW4UErrorCode@@@Z ; icu_56::SpoofImpl::validateThis
	add	esp, 8
	mov	DWORD PTR _This$[ebp], eax
; Line 260
	cmp	DWORD PTR _This$[ebp], 0
	jne	SHORT $LN1@uspoof_get@2
; Line 261
	mov	eax, 1610612736				; 60000000H
	jmp	SHORT $LN2@uspoof_get@2
$LN1@uspoof_get@2:
; Line 263
	mov	eax, DWORD PTR _This$[ebp]
	mov	eax, DWORD PTR [eax+24]
$LN2@uspoof_get@2:
; Line 264
	push	edx
	mov	ecx, ebp
	push	eax
	lea	edx, DWORD PTR $LN6@uspoof_get@2
	call	@_RTC_CheckStackVars@8
	pop	eax
	pop	edx
	pop	edi
	pop	esi
	pop	ebx
	add	esp, 216				; 000000d8H
	cmp	ebp, esp
	call	__RTC_CheckEsp
	mov	esp, ebp
	pop	ebp
	ret	0
$LN6@uspoof_get@2:
	DD	1
	DD	$LN5@uspoof_get@2
$LN5@uspoof_get@2:
	DD	-8					; fffffff8H
	DD	4
	DD	$LN4@uspoof_get@2
$LN4@uspoof_get@2:
	DB	115					; 00000073H
	DB	116					; 00000074H
	DB	97					; 00000061H
	DB	116					; 00000074H
	DB	117					; 00000075H
	DB	115					; 00000073H
	DB	0
_uspoof_getRestrictionLevel_56 ENDP
_TEXT	ENDS
PUBLIC	_uspoof_setAllowedLocales_56
EXTRN	?setAllowedLocales@SpoofImpl@icu_56@@QAEXPBDAAW4UErrorCode@@@Z:PROC ; icu_56::SpoofImpl::setAllowedLocales
; Function compile flags: /Odtp /RTCsu /ZI
;	COMDAT _uspoof_setAllowedLocales_56
_TEXT	SEGMENT
_This$ = -8						; size = 4
_sc$ = 8						; size = 4
_localesList$ = 12					; size = 4
_status$ = 16						; size = 4
_uspoof_setAllowedLocales_56 PROC			; COMDAT
; Line 267
	push	ebp
	mov	ebp, esp
	sub	esp, 204				; 000000ccH
	push	ebx
	push	esi
	push	edi
	lea	edi, DWORD PTR [ebp-204]
	mov	ecx, 51					; 00000033H
	mov	eax, -858993460				; ccccccccH
	rep stosd
; Line 268
	mov	eax, DWORD PTR _status$[ebp]
	push	eax
	mov	ecx, DWORD PTR _sc$[ebp]
	push	ecx
	call	?validateThis@SpoofImpl@icu_56@@SAPAV12@PAUUSpoofChecker@@AAW4UErrorCode@@@Z ; icu_56::SpoofImpl::validateThis
	add	esp, 8
	mov	DWORD PTR _This$[ebp], eax
; Line 269
	cmp	DWORD PTR _This$[ebp], 0
	jne	SHORT $LN1@uspoof_set@3
; Line 270
	jmp	SHORT $LN2@uspoof_set@3
$LN1@uspoof_set@3:
; Line 272
	mov	eax, DWORD PTR _status$[ebp]
	push	eax
	mov	ecx, DWORD PTR _localesList$[ebp]
	push	ecx
	mov	ecx, DWORD PTR _This$[ebp]
	call	?setAllowedLocales@SpoofImpl@icu_56@@QAEXPBDAAW4UErrorCode@@@Z ; icu_56::SpoofImpl::setAllowedLocales
$LN2@uspoof_set@3:
; Line 273
	pop	edi
	pop	esi
	pop	ebx
	add	esp, 204				; 000000ccH
	cmp	ebp, esp
	call	__RTC_CheckEsp
	mov	esp, ebp
	pop	ebp
	ret	0
_uspoof_setAllowedLocales_56 ENDP
_TEXT	ENDS
PUBLIC	_uspoof_getAllowedLocales_56
EXTRN	?getAllowedLocales@SpoofImpl@icu_56@@QAEPBDAAW4UErrorCode@@@Z:PROC ; icu_56::SpoofImpl::getAllowedLocales
; Function compile flags: /Odtp /RTCsu /ZI
;	COMDAT _uspoof_getAllowedLocales_56
_TEXT	SEGMENT
_This$ = -8						; size = 4
_sc$ = 8						; size = 4
_status$ = 12						; size = 4
_uspoof_getAllowedLocales_56 PROC			; COMDAT
; Line 276
	push	ebp
	mov	ebp, esp
	sub	esp, 204				; 000000ccH
	push	ebx
	push	esi
	push	edi
	lea	edi, DWORD PTR [ebp-204]
	mov	ecx, 51					; 00000033H
	mov	eax, -858993460				; ccccccccH
	rep stosd
; Line 277
	mov	eax, DWORD PTR _status$[ebp]
	push	eax
	mov	ecx, DWORD PTR _sc$[ebp]
	push	ecx
	call	?validateThis@SpoofImpl@icu_56@@SAPAV12@PAUUSpoofChecker@@AAW4UErrorCode@@@Z ; icu_56::SpoofImpl::validateThis
	add	esp, 8
	mov	DWORD PTR _This$[ebp], eax
; Line 278
	cmp	DWORD PTR _This$[ebp], 0
	jne	SHORT $LN1@uspoof_get@3
; Line 279
	xor	eax, eax
	jmp	SHORT $LN2@uspoof_get@3
$LN1@uspoof_get@3:
; Line 281
	mov	eax, DWORD PTR _status$[ebp]
	push	eax
	mov	ecx, DWORD PTR _This$[ebp]
	call	?getAllowedLocales@SpoofImpl@icu_56@@QAEPBDAAW4UErrorCode@@@Z ; icu_56::SpoofImpl::getAllowedLocales
$LN2@uspoof_get@3:
; Line 282
	pop	edi
	pop	esi
	pop	ebx
	add	esp, 204				; 000000ccH
	cmp	ebp, esp
	call	__RTC_CheckEsp
	mov	esp, ebp
	pop	ebp
	ret	0
_uspoof_getAllowedLocales_56 ENDP
_TEXT	ENDS
PUBLIC	_uspoof_getAllowedUnicodeSet_56
PUBLIC	_uspoof_getAllowedChars_56
EXTRN	__imp_?toUSet@UnicodeSet@icu_56@@QBEPBUUSet@@XZ:PROC
; Function compile flags: /Odtp /RTCsu /ZI
;	COMDAT _uspoof_getAllowedChars_56
_TEXT	SEGMENT
_result$ = -8						; size = 4
_sc$ = 8						; size = 4
_status$ = 12						; size = 4
_uspoof_getAllowedChars_56 PROC				; COMDAT
; Line 286
	push	ebp
	mov	ebp, esp
	sub	esp, 204				; 000000ccH
	push	ebx
	push	esi
	push	edi
	lea	edi, DWORD PTR [ebp-204]
	mov	ecx, 51					; 00000033H
	mov	eax, -858993460				; ccccccccH
	rep stosd
; Line 287
	mov	eax, DWORD PTR _status$[ebp]
	push	eax
	mov	ecx, DWORD PTR _sc$[ebp]
	push	ecx
	call	_uspoof_getAllowedUnicodeSet_56
	add	esp, 8
	mov	DWORD PTR _result$[ebp], eax
; Line 288
	mov	esi, esp
	mov	ecx, DWORD PTR _result$[ebp]
	call	DWORD PTR __imp_?toUSet@UnicodeSet@icu_56@@QBEPBUUSet@@XZ
	cmp	esi, esp
	call	__RTC_CheckEsp
; Line 289
	pop	edi
	pop	esi
	pop	ebx
	add	esp, 204				; 000000ccH
	cmp	ebp, esp
	call	__RTC_CheckEsp
	mov	esp, ebp
	pop	ebp
	ret	0
_uspoof_getAllowedChars_56 ENDP
; Function compile flags: /Odtp /RTCsu /ZI
_TEXT	ENDS
;	COMDAT _uspoof_getAllowedUnicodeSet_56
_TEXT	SEGMENT
_This$ = -8						; size = 4
_sc$ = 8						; size = 4
_status$ = 12						; size = 4
_uspoof_getAllowedUnicodeSet_56 PROC			; COMDAT
; Line 292
	push	ebp
	mov	ebp, esp
	sub	esp, 204				; 000000ccH
	push	ebx
	push	esi
	push	edi
	lea	edi, DWORD PTR [ebp-204]
	mov	ecx, 51					; 00000033H
	mov	eax, -858993460				; ccccccccH
	rep stosd
; Line 293
	mov	eax, DWORD PTR _status$[ebp]
	push	eax
	mov	ecx, DWORD PTR _sc$[ebp]
	push	ecx
	call	?validateThis@SpoofImpl@icu_56@@SAPBV12@PBUUSpoofChecker@@AAW4UErrorCode@@@Z ; icu_56::SpoofImpl::validateThis
	add	esp, 8
	mov	DWORD PTR _This$[ebp], eax
; Line 294
	cmp	DWORD PTR _This$[ebp], 0
	jne	SHORT $LN1@uspoof_get@4
; Line 295
	xor	eax, eax
	jmp	SHORT $LN2@uspoof_get@4
$LN1@uspoof_get@4:
; Line 297
	mov	eax, DWORD PTR _This$[ebp]
	mov	eax, DWORD PTR [eax+16]
$LN2@uspoof_get@4:
; Line 298
	pop	edi
	pop	esi
	pop	ebx
	add	esp, 204				; 000000ccH
	cmp	ebp, esp
	call	__RTC_CheckEsp
	mov	esp, ebp
	pop	ebp
	ret	0
_uspoof_getAllowedUnicodeSet_56 ENDP
_TEXT	ENDS
PUBLIC	_uspoof_setAllowedUnicodeSet_56
PUBLIC	_uspoof_setAllowedChars_56
EXTRN	__imp_?fromUSet@UnicodeSet@icu_56@@SAPBV12@PBUUSet@@@Z:PROC
; Function compile flags: /Odtp /RTCsu /ZI
;	COMDAT _uspoof_setAllowedChars_56
_TEXT	SEGMENT
_set$ = -8						; size = 4
_sc$ = 8						; size = 4
_chars$ = 12						; size = 4
_status$ = 16						; size = 4
_uspoof_setAllowedChars_56 PROC				; COMDAT
; Line 302
	push	ebp
	mov	ebp, esp
	sub	esp, 204				; 000000ccH
	push	ebx
	push	esi
	push	edi
	lea	edi, DWORD PTR [ebp-204]
	mov	ecx, 51					; 00000033H
	mov	eax, -858993460				; ccccccccH
	rep stosd
; Line 303
	mov	esi, esp
	mov	eax, DWORD PTR _chars$[ebp]
	push	eax
	call	DWORD PTR __imp_?fromUSet@UnicodeSet@icu_56@@SAPBV12@PBUUSet@@@Z
	add	esp, 4
	cmp	esi, esp
	call	__RTC_CheckEsp
	mov	DWORD PTR _set$[ebp], eax
; Line 304
	mov	eax, DWORD PTR _status$[ebp]
	push	eax
	mov	ecx, DWORD PTR _set$[ebp]
	push	ecx
	mov	edx, DWORD PTR _sc$[ebp]
	push	edx
	call	_uspoof_setAllowedUnicodeSet_56
	add	esp, 12					; 0000000cH
; Line 305
	pop	edi
	pop	esi
	pop	ebx
	add	esp, 204				; 000000ccH
	cmp	ebp, esp
	call	__RTC_CheckEsp
	mov	esp, ebp
	pop	ebp
	ret	0
_uspoof_setAllowedChars_56 ENDP
_TEXT	ENDS
EXTRN	__imp_?isBogus@UnicodeSet@icu_56@@QBECXZ:PROC
; Function compile flags: /Odtp /RTCsu /ZI
;	COMDAT _uspoof_setAllowedUnicodeSet_56
_TEXT	SEGMENT
tv133 = -244						; size = 4
$T78370 = -236						; size = 4
$T78371 = -224						; size = 4
_clonedSet$ = -20					; size = 4
_This$ = -8						; size = 4
_sc$ = 8						; size = 4
_chars$ = 12						; size = 4
_status$ = 16						; size = 4
_uspoof_setAllowedUnicodeSet_56 PROC			; COMDAT
; Line 309
	push	ebp
	mov	ebp, esp
	sub	esp, 244				; 000000f4H
	push	ebx
	push	esi
	push	edi
	lea	edi, DWORD PTR [ebp-244]
	mov	ecx, 61					; 0000003dH
	mov	eax, -858993460				; ccccccccH
	rep stosd
; Line 310
	mov	eax, DWORD PTR _status$[ebp]
	push	eax
	mov	ecx, DWORD PTR _sc$[ebp]
	push	ecx
	call	?validateThis@SpoofImpl@icu_56@@SAPAV12@PAUUSpoofChecker@@AAW4UErrorCode@@@Z ; icu_56::SpoofImpl::validateThis
	add	esp, 8
	mov	DWORD PTR _This$[ebp], eax
; Line 311
	cmp	DWORD PTR _This$[ebp], 0
	jne	SHORT $LN4@uspoof_set@4
; Line 312
	jmp	$LN5@uspoof_set@4
$LN4@uspoof_set@4:
; Line 314
	mov	esi, esp
	mov	ecx, DWORD PTR _chars$[ebp]
	call	DWORD PTR __imp_?isBogus@UnicodeSet@icu_56@@QBECXZ
	cmp	esi, esp
	call	__RTC_CheckEsp
	movsx	eax, al
	test	eax, eax
	je	SHORT $LN3@uspoof_set@4
; Line 315
	mov	eax, DWORD PTR _status$[ebp]
	mov	DWORD PTR [eax], 1
; Line 316
	jmp	$LN5@uspoof_set@4
$LN3@uspoof_set@4:
; Line 318
	mov	eax, DWORD PTR _chars$[ebp]
	mov	edx, DWORD PTR [eax]
	mov	esi, esp
	mov	ecx, DWORD PTR _chars$[ebp]
	mov	eax, DWORD PTR [edx+8]
	call	eax
	cmp	esi, esp
	call	__RTC_CheckEsp
	mov	DWORD PTR _clonedSet$[ebp], eax
; Line 319
	cmp	DWORD PTR _clonedSet$[ebp], 0
	je	SHORT $LN1@uspoof_set@4
	mov	esi, esp
	mov	ecx, DWORD PTR _clonedSet$[ebp]
	call	DWORD PTR __imp_?isBogus@UnicodeSet@icu_56@@QBECXZ
	cmp	esi, esp
	call	__RTC_CheckEsp
	movsx	eax, al
	test	eax, eax
	je	SHORT $LN2@uspoof_set@4
$LN1@uspoof_set@4:
; Line 320
	mov	eax, DWORD PTR _status$[ebp]
	mov	DWORD PTR [eax], 7
; Line 321
	jmp	SHORT $LN5@uspoof_set@4
$LN2@uspoof_set@4:
; Line 323
	mov	esi, esp
	mov	ecx, DWORD PTR _clonedSet$[ebp]
	call	DWORD PTR __imp_?freeze@UnicodeSet@icu_56@@QAEPAVUnicodeFunctor@2@XZ
	cmp	esi, esp
	call	__RTC_CheckEsp
; Line 324
	mov	eax, DWORD PTR _This$[ebp]
	mov	ecx, DWORD PTR [eax+16]
	mov	DWORD PTR $T78371[ebp], ecx
	mov	edx, DWORD PTR $T78371[ebp]
	mov	DWORD PTR $T78370[ebp], edx
	cmp	DWORD PTR $T78370[ebp], 0
	je	SHORT $LN7@uspoof_set@4
	mov	esi, esp
	push	1
	mov	eax, DWORD PTR $T78370[ebp]
	mov	edx, DWORD PTR [eax]
	mov	ecx, DWORD PTR $T78370[ebp]
	mov	eax, DWORD PTR [edx]
	call	eax
	cmp	esi, esp
	call	__RTC_CheckEsp
	mov	DWORD PTR tv133[ebp], eax
	jmp	SHORT $LN8@uspoof_set@4
$LN7@uspoof_set@4:
	mov	DWORD PTR tv133[ebp], 0
$LN8@uspoof_set@4:
; Line 325
	mov	eax, DWORD PTR _This$[ebp]
	mov	ecx, DWORD PTR _clonedSet$[ebp]
	mov	DWORD PTR [eax+16], ecx
; Line 326
	mov	eax, DWORD PTR _This$[ebp]
	mov	ecx, DWORD PTR [eax+8]
	or	ecx, 64					; 00000040H
	mov	edx, DWORD PTR _This$[ebp]
	mov	DWORD PTR [edx+8], ecx
$LN5@uspoof_set@4:
; Line 327
	pop	edi
	pop	esi
	pop	ebx
	add	esp, 244				; 000000f4H
	cmp	ebp, esp
	call	__RTC_CheckEsp
	mov	esp, ebp
	pop	ebp
	ret	0
_uspoof_setAllowedUnicodeSet_56 ENDP
_TEXT	ENDS
PUBLIC	_uspoof_checkUnicodeString_56
PUBLIC	__$ArrayPad$
PUBLIC	_uspoof_check_56
EXTRN	__imp_??0UnicodeString@icu_56@@QAE@CPB_WH@Z:PROC
; Function compile flags: /Odtp /RTCsu /ZI
;	COMDAT _uspoof_check_56
_TEXT	SEGMENT
$T78377 = -300						; size = 4
_result$ = -96						; size = 4
_idStr$ = -84						; size = 64
_This$ = -12						; size = 4
__$ArrayPad$ = -4					; size = 4
_sc$ = 8						; size = 4
_id$ = 12						; size = 4
_length$ = 16						; size = 4
_position$ = 20						; size = 4
_status$ = 24						; size = 4
_uspoof_check_56 PROC					; COMDAT
; Line 334
	push	ebp
	mov	ebp, esp
	sub	esp, 304				; 00000130H
	push	ebx
	push	esi
	push	edi
	lea	edi, DWORD PTR [ebp-304]
	mov	ecx, 76					; 0000004cH
	mov	eax, -858993460				; ccccccccH
	rep stosd
	mov	eax, DWORD PTR ___security_cookie
	xor	eax, ebp
	mov	DWORD PTR __$ArrayPad$[ebp], eax
; Line 336
	mov	eax, DWORD PTR _status$[ebp]
	push	eax
	mov	ecx, DWORD PTR _sc$[ebp]
	push	ecx
	call	?validateThis@SpoofImpl@icu_56@@SAPBV12@PBUUSpoofChecker@@AAW4UErrorCode@@@Z ; icu_56::SpoofImpl::validateThis
	add	esp, 8
	mov	DWORD PTR _This$[ebp], eax
; Line 337
	cmp	DWORD PTR _This$[ebp], 0
	jne	SHORT $LN2@uspoof_che
; Line 338
	xor	eax, eax
	jmp	SHORT $LN3@uspoof_che
$LN2@uspoof_che:
; Line 340
	cmp	DWORD PTR _length$[ebp], -1
	jge	SHORT $LN1@uspoof_che
; Line 341
	mov	eax, DWORD PTR _status$[ebp]
	mov	DWORD PTR [eax], 1
; Line 342
	xor	eax, eax
	jmp	SHORT $LN3@uspoof_che
$LN1@uspoof_che:
; Line 344
	mov	esi, esp
	mov	eax, DWORD PTR _length$[ebp]
	push	eax
	mov	ecx, DWORD PTR _id$[ebp]
	push	ecx
	cmp	DWORD PTR _length$[ebp], -1
	sete	dl
	movzx	eax, dl
	push	eax
	lea	ecx, DWORD PTR _idStr$[ebp]
	call	DWORD PTR __imp_??0UnicodeString@icu_56@@QAE@CPB_WH@Z
	cmp	esi, esp
	call	__RTC_CheckEsp
; Line 345
	mov	eax, DWORD PTR _status$[ebp]
	push	eax
	mov	ecx, DWORD PTR _position$[ebp]
	push	ecx
	lea	edx, DWORD PTR _idStr$[ebp]
	push	edx
	mov	eax, DWORD PTR _sc$[ebp]
	push	eax
	call	_uspoof_checkUnicodeString_56
	add	esp, 16					; 00000010H
	mov	DWORD PTR _result$[ebp], eax
; Line 346
	mov	eax, DWORD PTR _result$[ebp]
	mov	DWORD PTR $T78377[ebp], eax
	mov	esi, esp
	lea	ecx, DWORD PTR _idStr$[ebp]
	call	DWORD PTR __imp_??1UnicodeString@icu_56@@UAE@XZ
	cmp	esi, esp
	call	__RTC_CheckEsp
	mov	eax, DWORD PTR $T78377[ebp]
$LN3@uspoof_che:
; Line 347
	push	edx
	mov	ecx, ebp
	push	eax
	lea	edx, DWORD PTR $LN7@uspoof_che
	call	@_RTC_CheckStackVars@8
	pop	eax
	pop	edx
	pop	edi
	pop	esi
	pop	ebx
	mov	ecx, DWORD PTR __$ArrayPad$[ebp]
	xor	ecx, ebp
	call	@__security_check_cookie@4
	add	esp, 304				; 00000130H
	cmp	ebp, esp
	call	__RTC_CheckEsp
	mov	esp, ebp
	pop	ebp
	ret	0
$LN7@uspoof_che:
	DD	1
	DD	$LN6@uspoof_che
$LN6@uspoof_che:
	DD	-84					; ffffffacH
	DD	64					; 00000040H
	DD	$LN5@uspoof_che
$LN5@uspoof_che:
	DB	105					; 00000069H
	DB	100					; 00000064H
	DB	83					; 00000053H
	DB	116					; 00000074H
	DB	114					; 00000072H
	DB	0
_uspoof_check_56 ENDP
_TEXT	ENDS
PUBLIC	__$ArrayPad$
PUBLIC	_uspoof_checkUTF8_56
EXTRN	__imp_?fromUTF8@UnicodeString@icu_56@@SA?AV12@ABVStringPiece@2@@Z:PROC
EXTRN	__imp_??0StringPiece@icu_56@@QAE@PBDH@Z:PROC
EXTRN	_strlen:PROC
; Function compile flags: /Odtp /RTCsu /ZI
;	COMDAT _uspoof_checkUTF8_56
_TEXT	SEGMENT
tv74 = -312						; size = 4
$T78384 = -304						; size = 8
$T78387 = -288						; size = 4
_result$ = -84						; size = 4
_idStr$ = -72						; size = 64
__$ArrayPad$ = -4					; size = 4
_sc$ = 8						; size = 4
_id$ = 12						; size = 4
_length$ = 16						; size = 4
_position$ = 20						; size = 4
_status$ = 24						; size = 4
_uspoof_checkUTF8_56 PROC				; COMDAT
; Line 354
	push	ebp
	mov	ebp, esp
	sub	esp, 312				; 00000138H
	push	ebx
	push	esi
	push	edi
	lea	edi, DWORD PTR [ebp-312]
	mov	ecx, 78					; 0000004eH
	mov	eax, -858993460				; ccccccccH
	rep stosd
	mov	eax, DWORD PTR ___security_cookie
	xor	eax, ebp
	mov	DWORD PTR __$ArrayPad$[ebp], eax
; Line 356
	mov	eax, DWORD PTR _status$[ebp]
	mov	ecx, DWORD PTR [eax]
	push	ecx
	call	?U_FAILURE@@YACW4UErrorCode@@@Z		; U_FAILURE
	add	esp, 4
	movsx	edx, al
	test	edx, edx
	je	SHORT $LN1@uspoof_che@2
; Line 357
	xor	eax, eax
	jmp	$LN2@uspoof_che@2
$LN1@uspoof_che@2:
; Line 359
	cmp	DWORD PTR _length$[ebp], 0
	jl	SHORT $LN4@uspoof_che@2
	mov	eax, DWORD PTR _length$[ebp]
	mov	DWORD PTR tv74[ebp], eax
	jmp	SHORT $LN5@uspoof_che@2
$LN4@uspoof_che@2:
	mov	ecx, DWORD PTR _id$[ebp]
	push	ecx
	call	_strlen
	add	esp, 4
	mov	DWORD PTR tv74[ebp], eax
$LN5@uspoof_che@2:
	mov	esi, esp
	mov	edx, DWORD PTR tv74[ebp]
	push	edx
	mov	eax, DWORD PTR _id$[ebp]
	push	eax
	lea	ecx, DWORD PTR $T78384[ebp]
	call	DWORD PTR __imp_??0StringPiece@icu_56@@QAE@PBDH@Z
	cmp	esi, esp
	call	__RTC_CheckEsp
	mov	esi, esp
	push	eax
	lea	ecx, DWORD PTR _idStr$[ebp]
	push	ecx
	call	DWORD PTR __imp_?fromUTF8@UnicodeString@icu_56@@SA?AV12@ABVStringPiece@2@@Z
	add	esp, 8
	cmp	esi, esp
	call	__RTC_CheckEsp
; Line 360
	mov	eax, DWORD PTR _status$[ebp]
	push	eax
	mov	ecx, DWORD PTR _position$[ebp]
	push	ecx
	lea	edx, DWORD PTR _idStr$[ebp]
	push	edx
	mov	eax, DWORD PTR _sc$[ebp]
	push	eax
	call	_uspoof_checkUnicodeString_56
	add	esp, 16					; 00000010H
	mov	DWORD PTR _result$[ebp], eax
; Line 361
	mov	eax, DWORD PTR _result$[ebp]
	mov	DWORD PTR $T78387[ebp], eax
	mov	esi, esp
	lea	ecx, DWORD PTR _idStr$[ebp]
	call	DWORD PTR __imp_??1UnicodeString@icu_56@@UAE@XZ
	cmp	esi, esp
	call	__RTC_CheckEsp
	mov	eax, DWORD PTR $T78387[ebp]
$LN2@uspoof_che@2:
; Line 362
	push	edx
	mov	ecx, ebp
	push	eax
	lea	edx, DWORD PTR $LN8@uspoof_che@2
	call	@_RTC_CheckStackVars@8
	pop	eax
	pop	edx
	pop	edi
	pop	esi
	pop	ebx
	mov	ecx, DWORD PTR __$ArrayPad$[ebp]
	xor	ecx, ebp
	call	@__security_check_cookie@4
	add	esp, 312				; 00000138H
	cmp	ebp, esp
	call	__RTC_CheckEsp
	mov	esp, ebp
	pop	ebp
	ret	0
	npad	3
$LN8@uspoof_che@2:
	DD	1
	DD	$LN7@uspoof_che@2
$LN7@uspoof_che@2:
	DD	-72					; ffffffb8H
	DD	64					; 00000040H
	DD	$LN6@uspoof_che@2
$LN6@uspoof_che@2:
	DB	105					; 00000069H
	DB	100					; 00000064H
	DB	83					; 00000053H
	DB	116					; 00000074H
	DB	114					; 00000072H
	DB	0
_uspoof_checkUTF8_56 ENDP
_TEXT	ENDS
PUBLIC	_uspoof_areConfusableUnicodeString_56
PUBLIC	__$ArrayPad$
PUBLIC	_uspoof_areConfusable_56
; Function compile flags: /Odtp /RTCsu /ZI
;	COMDAT _uspoof_areConfusable_56
_TEXT	SEGMENT
$T78394 = -348						; size = 4
_id2Str$ = -144						; size = 64
_id1Str$ = -72						; size = 64
__$ArrayPad$ = -4					; size = 4
_sc$ = 8						; size = 4
_id1$ = 12						; size = 4
_length1$ = 16						; size = 4
_id2$ = 20						; size = 4
_length2$ = 24						; size = 4
_status$ = 28						; size = 4
_uspoof_areConfusable_56 PROC				; COMDAT
; Line 369
	push	ebp
	mov	ebp, esp
	sub	esp, 352				; 00000160H
	push	ebx
	push	esi
	push	edi
	lea	edi, DWORD PTR [ebp-352]
	mov	ecx, 88					; 00000058H
	mov	eax, -858993460				; ccccccccH
	rep stosd
	mov	eax, DWORD PTR ___security_cookie
	xor	eax, ebp
	mov	DWORD PTR __$ArrayPad$[ebp], eax
; Line 370
	mov	eax, DWORD PTR _status$[ebp]
	push	eax
	mov	ecx, DWORD PTR _sc$[ebp]
	push	ecx
	call	?validateThis@SpoofImpl@icu_56@@SAPBV12@PBUUSpoofChecker@@AAW4UErrorCode@@@Z ; icu_56::SpoofImpl::validateThis
	add	esp, 8
; Line 371
	mov	eax, DWORD PTR _status$[ebp]
	mov	ecx, DWORD PTR [eax]
	push	ecx
	call	?U_FAILURE@@YACW4UErrorCode@@@Z		; U_FAILURE
	add	esp, 4
	movsx	edx, al
	test	edx, edx
	je	SHORT $LN3@uspoof_are
; Line 372
	xor	eax, eax
	jmp	$LN4@uspoof_are
$LN3@uspoof_are:
; Line 374
	cmp	DWORD PTR _length1$[ebp], -1
	jl	SHORT $LN1@uspoof_are
	cmp	DWORD PTR _length2$[ebp], -1
	jge	SHORT $LN2@uspoof_are
$LN1@uspoof_are:
; Line 375
	mov	eax, DWORD PTR _status$[ebp]
	mov	DWORD PTR [eax], 1
; Line 376
	xor	eax, eax
	jmp	$LN4@uspoof_are
$LN2@uspoof_are:
; Line 379
	mov	esi, esp
	mov	eax, DWORD PTR _length1$[ebp]
	push	eax
	mov	ecx, DWORD PTR _id1$[ebp]
	push	ecx
	cmp	DWORD PTR _length1$[ebp], -1
	sete	dl
	movzx	eax, dl
	push	eax
	lea	ecx, DWORD PTR _id1Str$[ebp]
	call	DWORD PTR __imp_??0UnicodeString@icu_56@@QAE@CPB_WH@Z
	cmp	esi, esp
	call	__RTC_CheckEsp
; Line 380
	mov	esi, esp
	mov	eax, DWORD PTR _length2$[ebp]
	push	eax
	mov	ecx, DWORD PTR _id2$[ebp]
	push	ecx
	cmp	DWORD PTR _length2$[ebp], -1
	sete	dl
	movzx	eax, dl
	push	eax
	lea	ecx, DWORD PTR _id2Str$[ebp]
	call	DWORD PTR __imp_??0UnicodeString@icu_56@@QAE@CPB_WH@Z
	cmp	esi, esp
	call	__RTC_CheckEsp
; Line 381
	mov	eax, DWORD PTR _status$[ebp]
	push	eax
	lea	ecx, DWORD PTR _id2Str$[ebp]
	push	ecx
	lea	edx, DWORD PTR _id1Str$[ebp]
	push	edx
	mov	eax, DWORD PTR _sc$[ebp]
	push	eax
	call	_uspoof_areConfusableUnicodeString_56
	add	esp, 16					; 00000010H
	mov	DWORD PTR $T78394[ebp], eax
	mov	esi, esp
	lea	ecx, DWORD PTR _id2Str$[ebp]
	call	DWORD PTR __imp_??1UnicodeString@icu_56@@UAE@XZ
	cmp	esi, esp
	call	__RTC_CheckEsp
	mov	esi, esp
	lea	ecx, DWORD PTR _id1Str$[ebp]
	call	DWORD PTR __imp_??1UnicodeString@icu_56@@UAE@XZ
	cmp	esi, esp
	call	__RTC_CheckEsp
	mov	eax, DWORD PTR $T78394[ebp]
$LN4@uspoof_are:
; Line 382
	push	edx
	mov	ecx, ebp
	push	eax
	lea	edx, DWORD PTR $LN9@uspoof_are
	call	@_RTC_CheckStackVars@8
	pop	eax
	pop	edx
	pop	edi
	pop	esi
	pop	ebx
	mov	ecx, DWORD PTR __$ArrayPad$[ebp]
	xor	ecx, ebp
	call	@__security_check_cookie@4
	add	esp, 352				; 00000160H
	cmp	ebp, esp
	call	__RTC_CheckEsp
	mov	esp, ebp
	pop	ebp
	ret	0
	npad	2
$LN9@uspoof_are:
	DD	2
	DD	$LN8@uspoof_are
$LN8@uspoof_are:
	DD	-72					; ffffffb8H
	DD	64					; 00000040H
	DD	$LN6@uspoof_are
	DD	-144					; ffffff70H
	DD	64					; 00000040H
	DD	$LN7@uspoof_are
$LN7@uspoof_are:
	DB	105					; 00000069H
	DB	100					; 00000064H
	DB	50					; 00000032H
	DB	83					; 00000053H
	DB	116					; 00000074H
	DB	114					; 00000072H
	DB	0
$LN6@uspoof_are:
	DB	105					; 00000069H
	DB	100					; 00000064H
	DB	49					; 00000031H
	DB	83					; 00000053H
	DB	116					; 00000074H
	DB	114					; 00000072H
	DB	0
_uspoof_areConfusable_56 ENDP
_TEXT	ENDS
PUBLIC	__$ArrayPad$
PUBLIC	_uspoof_areConfusableUTF8_56
; Function compile flags: /Odtp /RTCsu /ZI
;	COMDAT _uspoof_areConfusableUTF8_56
_TEXT	SEGMENT
tv90 = -400						; size = 4
tv78 = -400						; size = 4
$T78402 = -392						; size = 8
$T78405 = -376						; size = 8
$T78408 = -360						; size = 4
_results$ = -156					; size = 4
_id2Str$ = -144						; size = 64
_id1Str$ = -72						; size = 64
__$ArrayPad$ = -4					; size = 4
_sc$ = 8						; size = 4
_id1$ = 12						; size = 4
_length1$ = 16						; size = 4
_id2$ = 20						; size = 4
_length2$ = 24						; size = 4
_status$ = 28						; size = 4
_uspoof_areConfusableUTF8_56 PROC			; COMDAT
; Line 389
	push	ebp
	mov	ebp, esp
	sub	esp, 400				; 00000190H
	push	ebx
	push	esi
	push	edi
	lea	edi, DWORD PTR [ebp-400]
	mov	ecx, 100				; 00000064H
	mov	eax, -858993460				; ccccccccH
	rep stosd
	mov	eax, DWORD PTR ___security_cookie
	xor	eax, ebp
	mov	DWORD PTR __$ArrayPad$[ebp], eax
; Line 390
	mov	eax, DWORD PTR _status$[ebp]
	push	eax
	mov	ecx, DWORD PTR _sc$[ebp]
	push	ecx
	call	?validateThis@SpoofImpl@icu_56@@SAPBV12@PBUUSpoofChecker@@AAW4UErrorCode@@@Z ; icu_56::SpoofImpl::validateThis
	add	esp, 8
; Line 391
	mov	eax, DWORD PTR _status$[ebp]
	mov	ecx, DWORD PTR [eax]
	push	ecx
	call	?U_FAILURE@@YACW4UErrorCode@@@Z		; U_FAILURE
	add	esp, 4
	movsx	edx, al
	test	edx, edx
	je	SHORT $LN3@uspoof_are@2
; Line 392
	xor	eax, eax
	jmp	$LN4@uspoof_are@2
$LN3@uspoof_are@2:
; Line 394
	cmp	DWORD PTR _length1$[ebp], -1
	jl	SHORT $LN1@uspoof_are@2
	cmp	DWORD PTR _length2$[ebp], -1
	jge	SHORT $LN2@uspoof_are@2
$LN1@uspoof_are@2:
; Line 395
	mov	eax, DWORD PTR _status$[ebp]
	mov	DWORD PTR [eax], 1
; Line 396
	xor	eax, eax
	jmp	$LN4@uspoof_are@2
$LN2@uspoof_are@2:
; Line 398
	cmp	DWORD PTR _length1$[ebp], 0
	jl	SHORT $LN6@uspoof_are@2
	mov	eax, DWORD PTR _length1$[ebp]
	mov	DWORD PTR tv78[ebp], eax
	jmp	SHORT $LN7@uspoof_are@2
$LN6@uspoof_are@2:
	mov	ecx, DWORD PTR _id1$[ebp]
	push	ecx
	call	_strlen
	add	esp, 4
	mov	DWORD PTR tv78[ebp], eax
$LN7@uspoof_are@2:
	mov	esi, esp
	mov	edx, DWORD PTR tv78[ebp]
	push	edx
	mov	eax, DWORD PTR _id1$[ebp]
	push	eax
	lea	ecx, DWORD PTR $T78402[ebp]
	call	DWORD PTR __imp_??0StringPiece@icu_56@@QAE@PBDH@Z
	cmp	esi, esp
	call	__RTC_CheckEsp
	mov	esi, esp
	push	eax
	lea	ecx, DWORD PTR _id1Str$[ebp]
	push	ecx
	call	DWORD PTR __imp_?fromUTF8@UnicodeString@icu_56@@SA?AV12@ABVStringPiece@2@@Z
	add	esp, 8
	cmp	esi, esp
	call	__RTC_CheckEsp
; Line 399
	cmp	DWORD PTR _length2$[ebp], 0
	jl	SHORT $LN8@uspoof_are@2
	mov	eax, DWORD PTR _length2$[ebp]
	mov	DWORD PTR tv90[ebp], eax
	jmp	SHORT $LN9@uspoof_are@2
$LN8@uspoof_are@2:
	mov	ecx, DWORD PTR _id2$[ebp]
	push	ecx
	call	_strlen
	add	esp, 4
	mov	DWORD PTR tv90[ebp], eax
$LN9@uspoof_are@2:
	mov	esi, esp
	mov	edx, DWORD PTR tv90[ebp]
	push	edx
	mov	eax, DWORD PTR _id2$[ebp]
	push	eax
	lea	ecx, DWORD PTR $T78405[ebp]
	call	DWORD PTR __imp_??0StringPiece@icu_56@@QAE@PBDH@Z
	cmp	esi, esp
	call	__RTC_CheckEsp
	mov	esi, esp
	push	eax
	lea	ecx, DWORD PTR _id2Str$[ebp]
	push	ecx
	call	DWORD PTR __imp_?fromUTF8@UnicodeString@icu_56@@SA?AV12@ABVStringPiece@2@@Z
	add	esp, 8
	cmp	esi, esp
	call	__RTC_CheckEsp
; Line 400
	mov	eax, DWORD PTR _status$[ebp]
	push	eax
	lea	ecx, DWORD PTR _id2Str$[ebp]
	push	ecx
	lea	edx, DWORD PTR _id1Str$[ebp]
	push	edx
	mov	eax, DWORD PTR _sc$[ebp]
	push	eax
	call	_uspoof_areConfusableUnicodeString_56
	add	esp, 16					; 00000010H
	mov	DWORD PTR _results$[ebp], eax
; Line 401
	mov	eax, DWORD PTR _results$[ebp]
	mov	DWORD PTR $T78408[ebp], eax
	mov	esi, esp
	lea	ecx, DWORD PTR _id2Str$[ebp]
	call	DWORD PTR __imp_??1UnicodeString@icu_56@@UAE@XZ
	cmp	esi, esp
	call	__RTC_CheckEsp
	mov	esi, esp
	lea	ecx, DWORD PTR _id1Str$[ebp]
	call	DWORD PTR __imp_??1UnicodeString@icu_56@@UAE@XZ
	cmp	esi, esp
	call	__RTC_CheckEsp
	mov	eax, DWORD PTR $T78408[ebp]
$LN4@uspoof_are@2:
; Line 402
	push	edx
	mov	ecx, ebp
	push	eax
	lea	edx, DWORD PTR $LN13@uspoof_are@2
	call	@_RTC_CheckStackVars@8
	pop	eax
	pop	edx
	pop	edi
	pop	esi
	pop	ebx
	mov	ecx, DWORD PTR __$ArrayPad$[ebp]
	xor	ecx, ebp
	call	@__security_check_cookie@4
	add	esp, 400				; 00000190H
	cmp	ebp, esp
	call	__RTC_CheckEsp
	mov	esp, ebp
	pop	ebp
	ret	0
$LN13@uspoof_are@2:
	DD	2
	DD	$LN12@uspoof_are@2
$LN12@uspoof_are@2:
	DD	-72					; ffffffb8H
	DD	64					; 00000040H
	DD	$LN10@uspoof_are@2
	DD	-144					; ffffff70H
	DD	64					; 00000040H
	DD	$LN11@uspoof_are@2
$LN11@uspoof_are@2:
	DB	105					; 00000069H
	DB	100					; 00000064H
	DB	50					; 00000032H
	DB	83					; 00000053H
	DB	116					; 00000074H
	DB	114					; 00000072H
	DB	0
$LN10@uspoof_are@2:
	DB	105					; 00000069H
	DB	100					; 00000064H
	DB	49					; 00000031H
	DB	83					; 00000053H
	DB	116					; 00000074H
	DB	114					; 00000072H
	DB	0
_uspoof_areConfusableUTF8_56 ENDP
_TEXT	ENDS
PUBLIC	?uspoof_getSkeletonUnicodeString_56@@YAAAVUnicodeString@icu_56@@PBUUSpoofChecker@@IABV12@AAV12@PAW4UErrorCode@@@Z ; uspoof_getSkeletonUnicodeString_56
PUBLIC	__$ArrayPad$
EXTRN	__imp_??8UnicodeString@icu_56@@QBECABV01@@Z:PROC
EXTRN	__imp_??0UnicodeString@icu_56@@QAE@XZ:PROC
EXTRN	?releaseIdentifierInfo@SpoofImpl@icu_56@@QBEXPAVIdentifierInfo@2@@Z:PROC ; icu_56::SpoofImpl::releaseIdentifierInfo
EXTRN	?nextSetBit@ScriptSet@icu_56@@QBEHH@Z:PROC	; icu_56::ScriptSet::nextSetBit
EXTRN	?getScripts@IdentifierInfo@icu_56@@QBEPBVScriptSet@2@XZ:PROC ; icu_56::IdentifierInfo::getScripts
EXTRN	?getScriptCount@IdentifierInfo@icu_56@@QBEHXZ:PROC ; icu_56::IdentifierInfo::getScriptCount
EXTRN	?setIdentifier@IdentifierInfo@icu_56@@QAEAAV12@ABVUnicodeString@2@AAW4UErrorCode@@@Z:PROC ; icu_56::IdentifierInfo::setIdentifier
EXTRN	?getIdentifierInfo@SpoofImpl@icu_56@@QBEPAVIdentifierInfo@2@AAW4UErrorCode@@@Z:PROC ; icu_56::SpoofImpl::getIdentifierInfo
; Function compile flags: /Odtp /RTCsu /ZI
;	COMDAT _uspoof_areConfusableUnicodeString_56
_TEXT	SEGMENT
tv173 = -593						; size = 1
_id2Skeleton$71301 = -396				; size = 64
_id1Skeleton$71300 = -324				; size = 64
_possiblyWholeScriptConfusables$ = -249			; size = 1
_id2Skeleton$71293 = -240				; size = 64
_id1Skeleton$71292 = -168				; size = 64
_id2FirstScript$ = -96					; size = 4
_id2ScriptCount$ = -84					; size = 4
_id1FirstScript$ = -72					; size = 4
_id1ScriptCount$ = -60					; size = 4
_identifierInfo$ = -48					; size = 4
_result$ = -36						; size = 4
_flagsForSkeleton$ = -24				; size = 4
_This$ = -12						; size = 4
__$ArrayPad$ = -4					; size = 4
_sc$ = 8						; size = 4
_id1$ = 12						; size = 4
_id2$ = 16						; size = 4
_status$ = 20						; size = 4
_uspoof_areConfusableUnicodeString_56 PROC		; COMDAT
; Line 409
	push	ebp
	mov	ebp, esp
	sub	esp, 596				; 00000254H
	push	ebx
	push	esi
	push	edi
	lea	edi, DWORD PTR [ebp-596]
	mov	ecx, 149				; 00000095H
	mov	eax, -858993460				; ccccccccH
	rep stosd
	mov	eax, DWORD PTR ___security_cookie
	xor	eax, ebp
	mov	DWORD PTR __$ArrayPad$[ebp], eax
; Line 410
	mov	eax, DWORD PTR _status$[ebp]
	push	eax
	mov	ecx, DWORD PTR _sc$[ebp]
	push	ecx
	call	?validateThis@SpoofImpl@icu_56@@SAPBV12@PBUUSpoofChecker@@AAW4UErrorCode@@@Z ; icu_56::SpoofImpl::validateThis
	add	esp, 8
	mov	DWORD PTR _This$[ebp], eax
; Line 411
	mov	eax, DWORD PTR _status$[ebp]
	mov	ecx, DWORD PTR [eax]
	push	ecx
	call	?U_FAILURE@@YACW4UErrorCode@@@Z		; U_FAILURE
	add	esp, 4
	movsx	edx, al
	test	edx, edx
	je	SHORT $LN11@uspoof_are@3
; Line 412
	xor	eax, eax
	jmp	$LN12@uspoof_are@3
$LN11@uspoof_are@3:
; Line 423
	mov	eax, DWORD PTR _This$[ebp]
	mov	ecx, DWORD PTR [eax+8]
	and	ecx, 7
	jne	SHORT $LN10@uspoof_are@3
; Line 424
	mov	eax, DWORD PTR _status$[ebp]
	mov	DWORD PTR [eax], 27			; 0000001bH
; Line 425
	xor	eax, eax
	jmp	$LN12@uspoof_are@3
$LN10@uspoof_are@3:
; Line 427
	mov	eax, DWORD PTR _This$[ebp]
	mov	ecx, DWORD PTR [eax+8]
	and	ecx, 8
	mov	DWORD PTR _flagsForSkeleton$[ebp], ecx
; Line 429
	mov	DWORD PTR _result$[ebp], 0
; Line 430
	mov	eax, DWORD PTR _status$[ebp]
	push	eax
	mov	ecx, DWORD PTR _This$[ebp]
	call	?getIdentifierInfo@SpoofImpl@icu_56@@QBEPAVIdentifierInfo@2@AAW4UErrorCode@@@Z ; icu_56::SpoofImpl::getIdentifierInfo
	mov	DWORD PTR _identifierInfo$[ebp], eax
; Line 431
	mov	eax, DWORD PTR _status$[ebp]
	mov	ecx, DWORD PTR [eax]
	push	ecx
	call	?U_FAILURE@@YACW4UErrorCode@@@Z		; U_FAILURE
	add	esp, 4
	movsx	edx, al
	test	edx, edx
	je	SHORT $LN9@uspoof_are@3
; Line 432
	xor	eax, eax
	jmp	$LN12@uspoof_are@3
$LN9@uspoof_are@3:
; Line 434
	mov	eax, DWORD PTR _status$[ebp]
	push	eax
	mov	ecx, DWORD PTR _id1$[ebp]
	push	ecx
	mov	ecx, DWORD PTR _identifierInfo$[ebp]
	call	?setIdentifier@IdentifierInfo@icu_56@@QAEAAV12@ABVUnicodeString@2@AAW4UErrorCode@@@Z ; icu_56::IdentifierInfo::setIdentifier
; Line 435
	mov	ecx, DWORD PTR _identifierInfo$[ebp]
	call	?getScriptCount@IdentifierInfo@icu_56@@QBEHXZ ; icu_56::IdentifierInfo::getScriptCount
	mov	DWORD PTR _id1ScriptCount$[ebp], eax
; Line 436
	push	0
	mov	ecx, DWORD PTR _identifierInfo$[ebp]
	call	?getScripts@IdentifierInfo@icu_56@@QBEPBVScriptSet@2@XZ ; icu_56::IdentifierInfo::getScripts
	mov	ecx, eax
	call	?nextSetBit@ScriptSet@icu_56@@QBEHH@Z	; icu_56::ScriptSet::nextSetBit
	mov	DWORD PTR _id1FirstScript$[ebp], eax
; Line 437
	mov	eax, DWORD PTR _status$[ebp]
	push	eax
	mov	ecx, DWORD PTR _id2$[ebp]
	push	ecx
	mov	ecx, DWORD PTR _identifierInfo$[ebp]
	call	?setIdentifier@IdentifierInfo@icu_56@@QAEAAV12@ABVUnicodeString@2@AAW4UErrorCode@@@Z ; icu_56::IdentifierInfo::setIdentifier
; Line 438
	mov	ecx, DWORD PTR _identifierInfo$[ebp]
	call	?getScriptCount@IdentifierInfo@icu_56@@QBEHXZ ; icu_56::IdentifierInfo::getScriptCount
	mov	DWORD PTR _id2ScriptCount$[ebp], eax
; Line 439
	push	0
	mov	ecx, DWORD PTR _identifierInfo$[ebp]
	call	?getScripts@IdentifierInfo@icu_56@@QBEPBVScriptSet@2@XZ ; icu_56::IdentifierInfo::getScripts
	mov	ecx, eax
	call	?nextSetBit@ScriptSet@icu_56@@QBEHH@Z	; icu_56::ScriptSet::nextSetBit
	mov	DWORD PTR _id2FirstScript$[ebp], eax
; Line 440
	mov	eax, DWORD PTR _identifierInfo$[ebp]
	push	eax
	mov	ecx, DWORD PTR _This$[ebp]
	call	?releaseIdentifierInfo@SpoofImpl@icu_56@@QBEXPAVIdentifierInfo@2@@Z ; icu_56::SpoofImpl::releaseIdentifierInfo
; Line 441
	mov	DWORD PTR _identifierInfo$[ebp], 0
; Line 443
	mov	eax, DWORD PTR _This$[ebp]
	mov	ecx, DWORD PTR [eax+8]
	and	ecx, 1
	je	$LN8@uspoof_are@3
; Line 444
	mov	esi, esp
	lea	ecx, DWORD PTR _id1Skeleton$71292[ebp]
	call	DWORD PTR __imp_??0UnicodeString@icu_56@@QAE@XZ
	cmp	esi, esp
	call	__RTC_CheckEsp
; Line 445
	mov	esi, esp
	lea	ecx, DWORD PTR _id2Skeleton$71293[ebp]
	call	DWORD PTR __imp_??0UnicodeString@icu_56@@QAE@XZ
	cmp	esi, esp
	call	__RTC_CheckEsp
; Line 446
	cmp	DWORD PTR _id1ScriptCount$[ebp], 1
	jg	$LN7@uspoof_are@3
	cmp	DWORD PTR _id2ScriptCount$[ebp], 1
	jg	SHORT $LN7@uspoof_are@3
	mov	eax, DWORD PTR _id1FirstScript$[ebp]
	cmp	eax, DWORD PTR _id2FirstScript$[ebp]
	jne	SHORT $LN7@uspoof_are@3
; Line 447
	mov	eax, DWORD PTR _flagsForSkeleton$[ebp]
	or	eax, 1
	mov	DWORD PTR _flagsForSkeleton$[ebp], eax
; Line 448
	mov	eax, DWORD PTR _status$[ebp]
	push	eax
	lea	ecx, DWORD PTR _id1Skeleton$71292[ebp]
	push	ecx
	mov	edx, DWORD PTR _id1$[ebp]
	push	edx
	mov	eax, DWORD PTR _flagsForSkeleton$[ebp]
	push	eax
	mov	ecx, DWORD PTR _sc$[ebp]
	push	ecx
	call	?uspoof_getSkeletonUnicodeString_56@@YAAAVUnicodeString@icu_56@@PBUUSpoofChecker@@IABV12@AAV12@PAW4UErrorCode@@@Z ; uspoof_getSkeletonUnicodeString_56
	add	esp, 20					; 00000014H
; Line 449
	mov	eax, DWORD PTR _status$[ebp]
	push	eax
	lea	ecx, DWORD PTR _id2Skeleton$71293[ebp]
	push	ecx
	mov	edx, DWORD PTR _id2$[ebp]
	push	edx
	mov	eax, DWORD PTR _flagsForSkeleton$[ebp]
	push	eax
	mov	ecx, DWORD PTR _sc$[ebp]
	push	ecx
	call	?uspoof_getSkeletonUnicodeString_56@@YAAAVUnicodeString@icu_56@@PBUUSpoofChecker@@IABV12@AAV12@PAW4UErrorCode@@@Z ; uspoof_getSkeletonUnicodeString_56
	add	esp, 20					; 00000014H
; Line 450
	mov	esi, esp
	lea	eax, DWORD PTR _id2Skeleton$71293[ebp]
	push	eax
	lea	ecx, DWORD PTR _id1Skeleton$71292[ebp]
	call	DWORD PTR __imp_??8UnicodeString@icu_56@@QBECABV01@@Z
	cmp	esi, esp
	call	__RTC_CheckEsp
	movsx	ecx, al
	test	ecx, ecx
	je	SHORT $LN7@uspoof_are@3
; Line 451
	mov	eax, DWORD PTR _result$[ebp]
	or	eax, 1
	mov	DWORD PTR _result$[ebp], eax
$LN7@uspoof_are@3:
; Line 454
	mov	esi, esp
	lea	ecx, DWORD PTR _id2Skeleton$71293[ebp]
	call	DWORD PTR __imp_??1UnicodeString@icu_56@@UAE@XZ
	cmp	esi, esp
	call	__RTC_CheckEsp
	mov	esi, esp
	lea	ecx, DWORD PTR _id1Skeleton$71292[ebp]
	call	DWORD PTR __imp_??1UnicodeString@icu_56@@UAE@XZ
	cmp	esi, esp
	call	__RTC_CheckEsp
$LN8@uspoof_are@3:
; Line 456
	mov	eax, DWORD PTR _result$[ebp]
	and	eax, 1
	je	SHORT $LN5@uspoof_are@3
; Line 460
	mov	eax, DWORD PTR _result$[ebp]
	jmp	$LN12@uspoof_are@3
$LN5@uspoof_are@3:
; Line 466
	cmp	DWORD PTR _id1ScriptCount$[ebp], 1
	jg	SHORT $LN14@uspoof_are@3
	cmp	DWORD PTR _id2ScriptCount$[ebp], 1
	jg	SHORT $LN14@uspoof_are@3
	mov	eax, DWORD PTR _This$[ebp]
	mov	ecx, DWORD PTR [eax+8]
	and	ecx, 4
	je	SHORT $LN14@uspoof_are@3
	mov	BYTE PTR tv173[ebp], 1
	jmp	SHORT $LN15@uspoof_are@3
$LN14@uspoof_are@3:
	mov	BYTE PTR tv173[ebp], 0
$LN15@uspoof_are@3:
	mov	dl, BYTE PTR tv173[ebp]
	mov	BYTE PTR _possiblyWholeScriptConfusables$[ebp], dl
; Line 471
	mov	eax, DWORD PTR _This$[ebp]
	mov	ecx, DWORD PTR [eax+8]
	and	ecx, 2
	jne	SHORT $LN3@uspoof_are@3
	movsx	eax, BYTE PTR _possiblyWholeScriptConfusables$[ebp]
	test	eax, eax
	je	$LN4@uspoof_are@3
$LN3@uspoof_are@3:
; Line 475
	mov	esi, esp
	lea	ecx, DWORD PTR _id1Skeleton$71300[ebp]
	call	DWORD PTR __imp_??0UnicodeString@icu_56@@QAE@XZ
	cmp	esi, esp
	call	__RTC_CheckEsp
; Line 476
	mov	esi, esp
	lea	ecx, DWORD PTR _id2Skeleton$71301[ebp]
	call	DWORD PTR __imp_??0UnicodeString@icu_56@@QAE@XZ
	cmp	esi, esp
	call	__RTC_CheckEsp
; Line 477
	mov	eax, DWORD PTR _flagsForSkeleton$[ebp]
	and	eax, -2					; fffffffeH
	mov	DWORD PTR _flagsForSkeleton$[ebp], eax
; Line 478
	mov	eax, DWORD PTR _status$[ebp]
	push	eax
	lea	ecx, DWORD PTR _id1Skeleton$71300[ebp]
	push	ecx
	mov	edx, DWORD PTR _id1$[ebp]
	push	edx
	mov	eax, DWORD PTR _flagsForSkeleton$[ebp]
	push	eax
	mov	ecx, DWORD PTR _sc$[ebp]
	push	ecx
	call	?uspoof_getSkeletonUnicodeString_56@@YAAAVUnicodeString@icu_56@@PBUUSpoofChecker@@IABV12@AAV12@PAW4UErrorCode@@@Z ; uspoof_getSkeletonUnicodeString_56
	add	esp, 20					; 00000014H
; Line 479
	mov	eax, DWORD PTR _status$[ebp]
	push	eax
	lea	ecx, DWORD PTR _id2Skeleton$71301[ebp]
	push	ecx
	mov	edx, DWORD PTR _id2$[ebp]
	push	edx
	mov	eax, DWORD PTR _flagsForSkeleton$[ebp]
	push	eax
	mov	ecx, DWORD PTR _sc$[ebp]
	push	ecx
	call	?uspoof_getSkeletonUnicodeString_56@@YAAAVUnicodeString@icu_56@@PBUUSpoofChecker@@IABV12@AAV12@PAW4UErrorCode@@@Z ; uspoof_getSkeletonUnicodeString_56
	add	esp, 20					; 00000014H
; Line 480
	mov	esi, esp
	lea	eax, DWORD PTR _id2Skeleton$71301[ebp]
	push	eax
	lea	ecx, DWORD PTR _id1Skeleton$71300[ebp]
	call	DWORD PTR __imp_??8UnicodeString@icu_56@@QBECABV01@@Z
	cmp	esi, esp
	call	__RTC_CheckEsp
	movsx	ecx, al
	test	ecx, ecx
	je	SHORT $LN2@uspoof_are@3
; Line 481
	mov	eax, DWORD PTR _result$[ebp]
	or	eax, 2
	mov	DWORD PTR _result$[ebp], eax
; Line 482
	movsx	eax, BYTE PTR _possiblyWholeScriptConfusables$[ebp]
	test	eax, eax
	je	SHORT $LN2@uspoof_are@3
; Line 483
	mov	eax, DWORD PTR _result$[ebp]
	or	eax, 4
	mov	DWORD PTR _result$[ebp], eax
$LN2@uspoof_are@3:
; Line 486
	mov	esi, esp
	lea	ecx, DWORD PTR _id2Skeleton$71301[ebp]
	call	DWORD PTR __imp_??1UnicodeString@icu_56@@UAE@XZ
	cmp	esi, esp
	call	__RTC_CheckEsp
	mov	esi, esp
	lea	ecx, DWORD PTR _id1Skeleton$71300[ebp]
	call	DWORD PTR __imp_??1UnicodeString@icu_56@@UAE@XZ
	cmp	esi, esp
	call	__RTC_CheckEsp
$LN4@uspoof_are@3:
; Line 488
	mov	eax, DWORD PTR _result$[ebp]
$LN12@uspoof_are@3:
; Line 489
	push	edx
	mov	ecx, ebp
	push	eax
	lea	edx, DWORD PTR $LN21@uspoof_are@3
	call	@_RTC_CheckStackVars@8
	pop	eax
	pop	edx
	pop	edi
	pop	esi
	pop	ebx
	mov	ecx, DWORD PTR __$ArrayPad$[ebp]
	xor	ecx, ebp
	call	@__security_check_cookie@4
	add	esp, 596				; 00000254H
	cmp	ebp, esp
	call	__RTC_CheckEsp
	mov	esp, ebp
	pop	ebp
	ret	0
	npad	3
$LN21@uspoof_are@3:
	DD	4
	DD	$LN20@uspoof_are@3
$LN20@uspoof_are@3:
	DD	-168					; ffffff58H
	DD	64					; 00000040H
	DD	$LN16@uspoof_are@3
	DD	-240					; ffffff10H
	DD	64					; 00000040H
	DD	$LN17@uspoof_are@3
	DD	-324					; fffffebcH
	DD	64					; 00000040H
	DD	$LN18@uspoof_are@3
	DD	-396					; fffffe74H
	DD	64					; 00000040H
	DD	$LN19@uspoof_are@3
$LN19@uspoof_are@3:
	DB	105					; 00000069H
	DB	100					; 00000064H
	DB	50					; 00000032H
	DB	83					; 00000053H
	DB	107					; 0000006bH
	DB	101					; 00000065H
	DB	108					; 0000006cH
	DB	101					; 00000065H
	DB	116					; 00000074H
	DB	111					; 0000006fH
	DB	110					; 0000006eH
	DB	0
$LN18@uspoof_are@3:
	DB	105					; 00000069H
	DB	100					; 00000064H
	DB	49					; 00000031H
	DB	83					; 00000053H
	DB	107					; 0000006bH
	DB	101					; 00000065H
	DB	108					; 0000006cH
	DB	101					; 00000065H
	DB	116					; 00000074H
	DB	111					; 0000006fH
	DB	110					; 0000006eH
	DB	0
$LN17@uspoof_are@3:
	DB	105					; 00000069H
	DB	100					; 00000064H
	DB	50					; 00000032H
	DB	83					; 00000053H
	DB	107					; 0000006bH
	DB	101					; 00000065H
	DB	108					; 0000006cH
	DB	101					; 00000065H
	DB	116					; 00000074H
	DB	111					; 0000006fH
	DB	110					; 0000006eH
	DB	0
$LN16@uspoof_are@3:
	DB	105					; 00000069H
	DB	100					; 00000064H
	DB	49					; 00000031H
	DB	83					; 00000053H
	DB	107					; 0000006bH
	DB	101					; 00000065H
	DB	108					; 0000006cH
	DB	101					; 00000065H
	DB	116					; 00000074H
	DB	111					; 0000006fH
	DB	110					; 0000006eH
	DB	0
_uspoof_areConfusableUnicodeString_56 ENDP
_TEXT	ENDS
PUBLIC	__$ArrayPad$
EXTRN	??1ScriptSet@icu_56@@QAE@XZ:PROC		; icu_56::ScriptSet::~ScriptSet
EXTRN	?countMembers@ScriptSet@icu_56@@QBEHXZ:PROC	; icu_56::ScriptSet::countMembers
EXTRN	?wholeScriptCheck@SpoofImpl@icu_56@@QBEXABVUnicodeString@2@PAVScriptSet@2@AAW4UErrorCode@@@Z:PROC ; icu_56::SpoofImpl::wholeScriptCheck
EXTRN	??0ScriptSet@icu_56@@QAE@XZ:PROC		; icu_56::ScriptSet::ScriptSet
EXTRN	__imp_?contains@UnicodeSet@icu_56@@UBECH@Z:PROC
EXTRN	__imp_?add@UnicodeSet@icu_56@@QAEAAV12@H@Z:PROC
EXTRN	__imp_?clear@UnicodeSet@icu_56@@UAEAAV12@XZ:PROC
EXTRN	_u_charType_56:PROC
EXTRN	__imp_??0UnicodeSet@icu_56@@QAE@XZ:PROC
EXTRN	__imp_?char32At@UnicodeString@icu_56@@QBEHH@Z:PROC
EXTRN	__imp_?length@UnicodeString@icu_56@@QBEHXZ:PROC
EXTRN	?getNumerics@IdentifierInfo@icu_56@@QBEPBVUnicodeSet@2@XZ:PROC ; icu_56::IdentifierInfo::getNumerics
EXTRN	?getRestrictionLevel@IdentifierInfo@icu_56@@QBE?AW4URestrictionLevel@@AAW4UErrorCode@@@Z:PROC ; icu_56::IdentifierInfo::getRestrictionLevel
EXTRN	?setIdentifierProfile@IdentifierInfo@icu_56@@QAEAAV12@ABVUnicodeSet@2@@Z:PROC ; icu_56::IdentifierInfo::setIdentifierProfile
; Function compile flags: /Odtp /RTCsu /ZI
;	COMDAT _uspoof_checkUnicodeString_56
_TEXT	SEGMENT
_confusableScriptCount$71358 = -344			; size = 4
_scripts$71357 = -332					; size = 24
_scriptCount$71356 = -300				; size = 4
_marksSeenSoFar$71342 = -288				; size = 52
_haveMultipleMarks$71341 = -225				; size = 1
_firstNonspacingMark$71340 = -216			; size = 4
_c$71339 = -204						; size = 4
_i$71338 = -192						; size = 4
_nfdLength$71336 = -180					; size = 4
_nfdText$71335 = -168					; size = 64
_length$71328 = -96					; size = 4
_c$71327 = -84						; size = 4
_i$71326 = -72						; size = 4
_numerics$71323 = -60					; size = 4
_idRestrictionLevel$71319 = -48				; size = 4
_identifierInfo$ = -36					; size = 4
_result$ = -24						; size = 4
_This$ = -12						; size = 4
__$ArrayPad$ = -4					; size = 4
_sc$ = 8						; size = 4
_id$ = 12						; size = 4
_position$ = 16						; size = 4
_status$ = 20						; size = 4
_uspoof_checkUnicodeString_56 PROC			; COMDAT
; Line 498
	push	ebp
	mov	ebp, esp
	sub	esp, 540				; 0000021cH
	push	ebx
	push	esi
	push	edi
	lea	edi, DWORD PTR [ebp-540]
	mov	ecx, 135				; 00000087H
	mov	eax, -858993460				; ccccccccH
	rep stosd
	mov	eax, DWORD PTR ___security_cookie
	xor	eax, ebp
	mov	DWORD PTR __$ArrayPad$[ebp], eax
; Line 499
	mov	eax, DWORD PTR _status$[ebp]
	push	eax
	mov	ecx, DWORD PTR _sc$[ebp]
	push	ecx
	call	?validateThis@SpoofImpl@icu_56@@SAPBV12@PBUUSpoofChecker@@AAW4UErrorCode@@@Z ; icu_56::SpoofImpl::validateThis
	add	esp, 8
	mov	DWORD PTR _This$[ebp], eax
; Line 500
	cmp	DWORD PTR _This$[ebp], 0
	jne	SHORT $LN29@uspoof_che@3
; Line 501
	xor	eax, eax
	jmp	$LN30@uspoof_che@3
$LN29@uspoof_che@3:
; Line 503
	mov	DWORD PTR _result$[ebp], 0
; Line 505
	mov	DWORD PTR _identifierInfo$[ebp], 0
; Line 506
	mov	eax, DWORD PTR _This$[ebp]
	mov	ecx, DWORD PTR [eax+8]
	and	ecx, 144				; 00000090H
	je	SHORT $LN28@uspoof_che@3
; Line 507
	mov	eax, DWORD PTR _status$[ebp]
	push	eax
	mov	ecx, DWORD PTR _This$[ebp]
	call	?getIdentifierInfo@SpoofImpl@icu_56@@QBEPAVIdentifierInfo@2@AAW4UErrorCode@@@Z ; icu_56::SpoofImpl::getIdentifierInfo
	mov	DWORD PTR _identifierInfo$[ebp], eax
; Line 508
	mov	eax, DWORD PTR _status$[ebp]
	mov	ecx, DWORD PTR [eax]
	push	ecx
	call	?U_FAILURE@@YACW4UErrorCode@@@Z		; U_FAILURE
	add	esp, 4
	movsx	edx, al
	test	edx, edx
	je	SHORT $LN27@uspoof_che@3
; Line 509
	jmp	$cleanupAndReturn$71316
$LN27@uspoof_che@3:
; Line 511
	mov	eax, DWORD PTR _status$[ebp]
	push	eax
	mov	ecx, DWORD PTR _id$[ebp]
	push	ecx
	mov	ecx, DWORD PTR _identifierInfo$[ebp]
	call	?setIdentifier@IdentifierInfo@icu_56@@QAEAAV12@ABVUnicodeString@2@AAW4UErrorCode@@@Z ; icu_56::IdentifierInfo::setIdentifier
; Line 512
	mov	eax, DWORD PTR _This$[ebp]
	mov	ecx, DWORD PTR [eax+16]
	push	ecx
	mov	ecx, DWORD PTR _identifierInfo$[ebp]
	call	?setIdentifierProfile@IdentifierInfo@icu_56@@QAEAAV12@ABVUnicodeSet@2@@Z ; icu_56::IdentifierInfo::setIdentifierProfile
$LN28@uspoof_che@3:
; Line 516
	mov	eax, DWORD PTR _This$[ebp]
	mov	ecx, DWORD PTR [eax+8]
	and	ecx, 16					; 00000010H
	je	SHORT $LN25@uspoof_che@3
; Line 517
	mov	eax, DWORD PTR _status$[ebp]
	push	eax
	mov	ecx, DWORD PTR _identifierInfo$[ebp]
	call	?getRestrictionLevel@IdentifierInfo@icu_56@@QBE?AW4URestrictionLevel@@AAW4UErrorCode@@@Z ; icu_56::IdentifierInfo::getRestrictionLevel
	mov	DWORD PTR _idRestrictionLevel$71319[ebp], eax
; Line 518
	mov	eax, DWORD PTR _This$[ebp]
	mov	ecx, DWORD PTR _idRestrictionLevel$71319[ebp]
	cmp	ecx, DWORD PTR [eax+24]
	jle	SHORT $LN24@uspoof_che@3
; Line 519
	mov	eax, DWORD PTR _result$[ebp]
	or	eax, 16					; 00000010H
	mov	DWORD PTR _result$[ebp], eax
$LN24@uspoof_che@3:
; Line 521
	mov	eax, DWORD PTR _This$[ebp]
	mov	ecx, DWORD PTR [eax+8]
	and	ecx, 1073741824				; 40000000H
	je	SHORT $LN25@uspoof_che@3
; Line 522
	mov	eax, DWORD PTR _result$[ebp]
	or	eax, DWORD PTR _idRestrictionLevel$71319[ebp]
	mov	DWORD PTR _result$[ebp], eax
$LN25@uspoof_che@3:
; Line 526
	mov	eax, DWORD PTR _This$[ebp]
	mov	ecx, DWORD PTR [eax+8]
	and	ecx, 128				; 00000080H
	je	SHORT $LN22@uspoof_che@3
; Line 527
	mov	ecx, DWORD PTR _identifierInfo$[ebp]
	call	?getNumerics@IdentifierInfo@icu_56@@QBEPBVUnicodeSet@2@XZ ; icu_56::IdentifierInfo::getNumerics
	mov	DWORD PTR _numerics$71323[ebp], eax
; Line 528
	mov	eax, DWORD PTR _numerics$71323[ebp]
	mov	edx, DWORD PTR [eax]
	mov	esi, esp
	mov	ecx, DWORD PTR _numerics$71323[ebp]
	mov	eax, DWORD PTR [edx+36]
	call	eax
	cmp	esi, esp
	call	__RTC_CheckEsp
	cmp	eax, 1
	jle	SHORT $LN22@uspoof_che@3
; Line 529
	mov	eax, DWORD PTR _result$[ebp]
	or	eax, 128				; 00000080H
	mov	DWORD PTR _result$[ebp], eax
$LN22@uspoof_che@3:
; Line 540
	mov	eax, DWORD PTR _This$[ebp]
	mov	ecx, DWORD PTR [eax+8]
	and	ecx, 64					; 00000040H
	je	$LN20@uspoof_che@3
; Line 543
	mov	esi, esp
	mov	ecx, DWORD PTR _id$[ebp]
	call	DWORD PTR __imp_?length@UnicodeString@icu_56@@QBEHXZ
	cmp	esi, esp
	call	__RTC_CheckEsp
	mov	DWORD PTR _length$71328[ebp], eax
; Line 544
	mov	DWORD PTR _i$71326[ebp], 0
$LN19@uspoof_che@3:
	mov	eax, DWORD PTR _i$71326[ebp]
	cmp	eax, DWORD PTR _length$71328[ebp]
	jge	SHORT $LN20@uspoof_che@3
; Line 545
	mov	esi, esp
	mov	eax, DWORD PTR _i$71326[ebp]
	push	eax
	mov	ecx, DWORD PTR _id$[ebp]
	call	DWORD PTR __imp_?char32At@UnicodeString@icu_56@@QBEHH@Z
	cmp	esi, esp
	call	__RTC_CheckEsp
	mov	DWORD PTR _c$71327[ebp], eax
; Line 546
	mov	eax, 65535				; 0000ffffH
	cmp	eax, DWORD PTR _c$71327[ebp]
	sbb	ecx, ecx
	neg	ecx
	add	ecx, 1
	add	ecx, DWORD PTR _i$71326[ebp]
	mov	DWORD PTR _i$71326[ebp], ecx
; Line 547
	mov	esi, esp
	mov	eax, DWORD PTR _c$71327[ebp]
	push	eax
	mov	ecx, DWORD PTR _This$[ebp]
	mov	edx, DWORD PTR [ecx+16]
	mov	eax, DWORD PTR _This$[ebp]
	mov	ecx, DWORD PTR [eax+16]
	mov	edx, DWORD PTR [edx]
	mov	eax, DWORD PTR [edx+24]
	call	eax
	cmp	esi, esp
	call	__RTC_CheckEsp
	movsx	ecx, al
	test	ecx, ecx
	jne	SHORT $LN17@uspoof_che@3
; Line 548
	mov	eax, DWORD PTR _result$[ebp]
	or	eax, 64					; 00000040H
	mov	DWORD PTR _result$[ebp], eax
; Line 549
	jmp	SHORT $LN20@uspoof_che@3
$LN17@uspoof_che@3:
; Line 551
	jmp	SHORT $LN19@uspoof_che@3
$LN20@uspoof_che@3:
; Line 555
	mov	eax, DWORD PTR _This$[ebp]
	mov	ecx, DWORD PTR [eax+8]
	and	ecx, 38					; 00000026H
	je	$cleanupAndReturn$71316
; Line 557
	mov	esi, esp
	lea	ecx, DWORD PTR _nfdText$71335[ebp]
	call	DWORD PTR __imp_??0UnicodeString@icu_56@@QAE@XZ
	cmp	esi, esp
	call	__RTC_CheckEsp
; Line 558
	mov	esi, esp
	mov	eax, DWORD PTR _status$[ebp]
	push	eax
	lea	ecx, DWORD PTR _nfdText$71335[ebp]
	push	ecx
	mov	edx, DWORD PTR _id$[ebp]
	push	edx
	mov	eax, DWORD PTR _gNfdNormalizer
	mov	edx, DWORD PTR [eax]
	mov	ecx, DWORD PTR _gNfdNormalizer
	mov	eax, DWORD PTR [edx+8]
	call	eax
	cmp	esi, esp
	call	__RTC_CheckEsp
; Line 559
	mov	esi, esp
	lea	ecx, DWORD PTR _nfdText$71335[ebp]
	call	DWORD PTR __imp_?length@UnicodeString@icu_56@@QBEHXZ
	cmp	esi, esp
	call	__RTC_CheckEsp
	mov	DWORD PTR _nfdLength$71336[ebp], eax
; Line 561
	mov	eax, DWORD PTR _This$[ebp]
	mov	ecx, DWORD PTR [eax+8]
	and	ecx, 32					; 00000020H
	je	$LN15@uspoof_che@3
; Line 567
	mov	DWORD PTR _firstNonspacingMark$71340[ebp], 0
; Line 568
	mov	BYTE PTR _haveMultipleMarks$71341[ebp], 0
; Line 569
	mov	esi, esp
	lea	ecx, DWORD PTR _marksSeenSoFar$71342[ebp]
	call	DWORD PTR __imp_??0UnicodeSet@icu_56@@QAE@XZ
	cmp	esi, esp
	call	__RTC_CheckEsp
; Line 571
	mov	DWORD PTR _i$71338[ebp], 0
$LN14@uspoof_che@3:
	mov	eax, DWORD PTR _i$71338[ebp]
	cmp	eax, DWORD PTR _nfdLength$71336[ebp]
	jge	$LN13@uspoof_che@3
; Line 572
	mov	esi, esp
	mov	eax, DWORD PTR _i$71338[ebp]
	push	eax
	lea	ecx, DWORD PTR _nfdText$71335[ebp]
	call	DWORD PTR __imp_?char32At@UnicodeString@icu_56@@QBEHH@Z
	cmp	esi, esp
	call	__RTC_CheckEsp
	mov	DWORD PTR _c$71339[ebp], eax
; Line 573
	mov	eax, 65535				; 0000ffffH
	cmp	eax, DWORD PTR _c$71339[ebp]
	sbb	ecx, ecx
	neg	ecx
	add	ecx, 1
	add	ecx, DWORD PTR _i$71338[ebp]
	mov	DWORD PTR _i$71338[ebp], ecx
; Line 574
	mov	eax, DWORD PTR _c$71339[ebp]
	push	eax
	call	_u_charType_56
	add	esp, 4
	movsx	ecx, al
	cmp	ecx, 6
	je	SHORT $LN12@uspoof_che@3
; Line 575
	mov	DWORD PTR _firstNonspacingMark$71340[ebp], 0
; Line 576
	movsx	eax, BYTE PTR _haveMultipleMarks$71341[ebp]
	test	eax, eax
	je	SHORT $LN11@uspoof_che@3
; Line 577
	mov	esi, esp
	lea	ecx, DWORD PTR _marksSeenSoFar$71342[ebp]
	call	DWORD PTR __imp_?clear@UnicodeSet@icu_56@@UAEAAV12@XZ
	cmp	esi, esp
	call	__RTC_CheckEsp
; Line 578
	mov	BYTE PTR _haveMultipleMarks$71341[ebp], 0
$LN11@uspoof_che@3:
; Line 580
	jmp	$LN14@uspoof_che@3
$LN12@uspoof_che@3:
; Line 582
	cmp	DWORD PTR _firstNonspacingMark$71340[ebp], 0
	jne	SHORT $LN10@uspoof_che@3
; Line 583
	mov	eax, DWORD PTR _c$71339[ebp]
	mov	DWORD PTR _firstNonspacingMark$71340[ebp], eax
; Line 584
	jmp	$LN14@uspoof_che@3
$LN10@uspoof_che@3:
; Line 586
	movsx	eax, BYTE PTR _haveMultipleMarks$71341[ebp]
	test	eax, eax
	jne	SHORT $LN9@uspoof_che@3
; Line 587
	mov	esi, esp
	mov	eax, DWORD PTR _firstNonspacingMark$71340[ebp]
	push	eax
	lea	ecx, DWORD PTR _marksSeenSoFar$71342[ebp]
	call	DWORD PTR __imp_?add@UnicodeSet@icu_56@@QAEAAV12@H@Z
	cmp	esi, esp
	call	__RTC_CheckEsp
; Line 588
	mov	BYTE PTR _haveMultipleMarks$71341[ebp], 1
$LN9@uspoof_che@3:
; Line 590
	mov	esi, esp
	mov	eax, DWORD PTR _c$71339[ebp]
	push	eax
	lea	ecx, DWORD PTR _marksSeenSoFar$71342[ebp]
	call	DWORD PTR __imp_?contains@UnicodeSet@icu_56@@UBECH@Z
	cmp	esi, esp
	call	__RTC_CheckEsp
	movsx	ecx, al
	test	ecx, ecx
	je	SHORT $LN8@uspoof_che@3
; Line 593
	mov	eax, DWORD PTR _result$[ebp]
	or	eax, 32					; 00000020H
	mov	DWORD PTR _result$[ebp], eax
; Line 594
	jmp	SHORT $LN13@uspoof_che@3
$LN8@uspoof_che@3:
; Line 596
	mov	esi, esp
	mov	eax, DWORD PTR _c$71339[ebp]
	push	eax
	lea	ecx, DWORD PTR _marksSeenSoFar$71342[ebp]
	call	DWORD PTR __imp_?add@UnicodeSet@icu_56@@QAEAAV12@H@Z
	cmp	esi, esp
	call	__RTC_CheckEsp
; Line 597
	jmp	$LN14@uspoof_che@3
$LN13@uspoof_che@3:
; Line 598
	mov	esi, esp
	lea	ecx, DWORD PTR _marksSeenSoFar$71342[ebp]
	call	DWORD PTR __imp_??1UnicodeSet@icu_56@@UAE@XZ
	cmp	esi, esp
	call	__RTC_CheckEsp
$LN15@uspoof_che@3:
; Line 601
	mov	eax, DWORD PTR _This$[ebp]
	mov	ecx, DWORD PTR [eax+8]
	and	ecx, 6
	je	$LN7@uspoof_che@3
; Line 616
	cmp	DWORD PTR _identifierInfo$[ebp], 0
	jne	SHORT $LN6@uspoof_che@3
; Line 617
	mov	eax, DWORD PTR _status$[ebp]
	push	eax
	mov	ecx, DWORD PTR _This$[ebp]
	call	?getIdentifierInfo@SpoofImpl@icu_56@@QBEPAVIdentifierInfo@2@AAW4UErrorCode@@@Z ; icu_56::SpoofImpl::getIdentifierInfo
	mov	DWORD PTR _identifierInfo$[ebp], eax
; Line 618
	mov	eax, DWORD PTR _status$[ebp]
	mov	ecx, DWORD PTR [eax]
	push	ecx
	call	?U_FAILURE@@YACW4UErrorCode@@@Z		; U_FAILURE
	add	esp, 4
	movsx	edx, al
	test	edx, edx
	je	SHORT $LN5@uspoof_che@3
; Line 645
	mov	esi, esp
	lea	ecx, DWORD PTR _nfdText$71335[ebp]
	call	DWORD PTR __imp_??1UnicodeString@icu_56@@UAE@XZ
	cmp	esi, esp
	call	__RTC_CheckEsp
; Line 619
	jmp	$cleanupAndReturn$71316
$LN5@uspoof_che@3:
; Line 621
	mov	eax, DWORD PTR _status$[ebp]
	push	eax
	mov	ecx, DWORD PTR _id$[ebp]
	push	ecx
	mov	ecx, DWORD PTR _identifierInfo$[ebp]
	call	?setIdentifier@IdentifierInfo@icu_56@@QAEAAV12@ABVUnicodeString@2@AAW4UErrorCode@@@Z ; icu_56::IdentifierInfo::setIdentifier
$LN6@uspoof_che@3:
; Line 624
	mov	ecx, DWORD PTR _identifierInfo$[ebp]
	call	?getScriptCount@IdentifierInfo@icu_56@@QBEHXZ ; icu_56::IdentifierInfo::getScriptCount
	mov	DWORD PTR _scriptCount$71356[ebp], eax
; Line 626
	lea	ecx, DWORD PTR _scripts$71357[ebp]
	call	??0ScriptSet@icu_56@@QAE@XZ		; icu_56::ScriptSet::ScriptSet
; Line 627
	mov	eax, DWORD PTR _status$[ebp]
	push	eax
	lea	ecx, DWORD PTR _scripts$71357[ebp]
	push	ecx
	lea	edx, DWORD PTR _nfdText$71335[ebp]
	push	edx
	mov	ecx, DWORD PTR _This$[ebp]
	call	?wholeScriptCheck@SpoofImpl@icu_56@@QBEXABVUnicodeString@2@PAVScriptSet@2@AAW4UErrorCode@@@Z ; icu_56::SpoofImpl::wholeScriptCheck
; Line 628
	lea	ecx, DWORD PTR _scripts$71357[ebp]
	call	?countMembers@ScriptSet@icu_56@@QBEHXZ	; icu_56::ScriptSet::countMembers
	mov	DWORD PTR _confusableScriptCount$71358[ebp], eax
; Line 633
	mov	eax, DWORD PTR _This$[ebp]
	mov	ecx, DWORD PTR [eax+8]
	and	ecx, 4
	je	SHORT $LN3@uspoof_che@3
	cmp	DWORD PTR _confusableScriptCount$71358[ebp], 2
	jl	SHORT $LN3@uspoof_che@3
	cmp	DWORD PTR _scriptCount$71356[ebp], 1
	jne	SHORT $LN3@uspoof_che@3
; Line 634
	mov	eax, DWORD PTR _result$[ebp]
	or	eax, 4
	mov	DWORD PTR _result$[ebp], eax
$LN3@uspoof_che@3:
; Line 639
	mov	eax, DWORD PTR _This$[ebp]
	mov	ecx, DWORD PTR [eax+8]
	and	ecx, 2
	je	SHORT $LN2@uspoof_che@3
	cmp	DWORD PTR _confusableScriptCount$71358[ebp], 1
	jl	SHORT $LN2@uspoof_che@3
	cmp	DWORD PTR _scriptCount$71356[ebp], 1
	jle	SHORT $LN2@uspoof_che@3
; Line 640
	mov	eax, DWORD PTR _result$[ebp]
	or	eax, 2
	mov	DWORD PTR _result$[ebp], eax
$LN2@uspoof_che@3:
; Line 642
	lea	ecx, DWORD PTR _scripts$71357[ebp]
	call	??1ScriptSet@icu_56@@QAE@XZ		; icu_56::ScriptSet::~ScriptSet
$LN7@uspoof_che@3:
; Line 643
	mov	esi, esp
	lea	ecx, DWORD PTR _nfdText$71335[ebp]
	call	DWORD PTR __imp_??1UnicodeString@icu_56@@UAE@XZ
	cmp	esi, esp
	call	__RTC_CheckEsp
$cleanupAndReturn$71316:
; Line 646
	mov	eax, DWORD PTR _identifierInfo$[ebp]
	push	eax
	mov	ecx, DWORD PTR _This$[ebp]
	call	?releaseIdentifierInfo@SpoofImpl@icu_56@@QBEXPAVIdentifierInfo@2@@Z ; icu_56::SpoofImpl::releaseIdentifierInfo
; Line 647
	cmp	DWORD PTR _position$[ebp], 0
	je	SHORT $LN1@uspoof_che@3
; Line 648
	mov	eax, DWORD PTR _position$[ebp]
	mov	DWORD PTR [eax], 0
$LN1@uspoof_che@3:
; Line 650
	mov	eax, DWORD PTR _result$[ebp]
$LN30@uspoof_che@3:
; Line 651
	push	edx
	mov	ecx, ebp
	push	eax
	lea	edx, DWORD PTR $LN38@uspoof_che@3
	call	@_RTC_CheckStackVars@8
	pop	eax
	pop	edx
	pop	edi
	pop	esi
	pop	ebx
	mov	ecx, DWORD PTR __$ArrayPad$[ebp]
	xor	ecx, ebp
	call	@__security_check_cookie@4
	add	esp, 540				; 0000021cH
	cmp	ebp, esp
	call	__RTC_CheckEsp
	mov	esp, ebp
	pop	ebp
	ret	0
$LN38@uspoof_che@3:
	DD	3
	DD	$LN37@uspoof_che@3
$LN37@uspoof_che@3:
	DD	-168					; ffffff58H
	DD	64					; 00000040H
	DD	$LN34@uspoof_che@3
	DD	-288					; fffffee0H
	DD	52					; 00000034H
	DD	$LN35@uspoof_che@3
	DD	-332					; fffffeb4H
	DD	24					; 00000018H
	DD	$LN36@uspoof_che@3
$LN36@uspoof_che@3:
	DB	115					; 00000073H
	DB	99					; 00000063H
	DB	114					; 00000072H
	DB	105					; 00000069H
	DB	112					; 00000070H
	DB	116					; 00000074H
	DB	115					; 00000073H
	DB	0
$LN35@uspoof_che@3:
	DB	109					; 0000006dH
	DB	97					; 00000061H
	DB	114					; 00000072H
	DB	107					; 0000006bH
	DB	115					; 00000073H
	DB	83					; 00000053H
	DB	101					; 00000065H
	DB	101					; 00000065H
	DB	110					; 0000006eH
	DB	83					; 00000053H
	DB	111					; 0000006fH
	DB	70					; 00000046H
	DB	97					; 00000061H
	DB	114					; 00000072H
	DB	0
$LN34@uspoof_che@3:
	DB	110					; 0000006eH
	DB	102					; 00000066H
	DB	100					; 00000064H
	DB	84					; 00000054H
	DB	101					; 00000065H
	DB	120					; 00000078H
	DB	116					; 00000074H
	DB	0
_uspoof_checkUnicodeString_56 ENDP
_TEXT	ENDS
PUBLIC	__$ArrayPad$
PUBLIC	_uspoof_getSkeleton_56
EXTRN	__imp_?extract@UnicodeString@icu_56@@QBEHPA_WHAAW4UErrorCode@@@Z:PROC
; Function compile flags: /Odtp /RTCsu /ZI
;	COMDAT _uspoof_getSkeleton_56
_TEXT	SEGMENT
$T78437 = -348						; size = 4
_destStr$ = -144					; size = 64
_idStr$ = -72						; size = 64
__$ArrayPad$ = -4					; size = 4
_sc$ = 8						; size = 4
_type$ = 12						; size = 4
_id$ = 16						; size = 4
_length$ = 20						; size = 4
_dest$ = 24						; size = 4
_destCapacity$ = 28					; size = 4
_status$ = 32						; size = 4
_uspoof_getSkeleton_56 PROC				; COMDAT
; Line 659
	push	ebp
	mov	ebp, esp
	sub	esp, 352				; 00000160H
	push	ebx
	push	esi
	push	edi
	lea	edi, DWORD PTR [ebp-352]
	mov	ecx, 88					; 00000058H
	mov	eax, -858993460				; ccccccccH
	rep stosd
	mov	eax, DWORD PTR ___security_cookie
	xor	eax, ebp
	mov	DWORD PTR __$ArrayPad$[ebp], eax
; Line 661
	mov	eax, DWORD PTR _status$[ebp]
	push	eax
	mov	ecx, DWORD PTR _sc$[ebp]
	push	ecx
	call	?validateThis@SpoofImpl@icu_56@@SAPBV12@PBUUSpoofChecker@@AAW4UErrorCode@@@Z ; icu_56::SpoofImpl::validateThis
	add	esp, 8
; Line 662
	mov	eax, DWORD PTR _status$[ebp]
	mov	ecx, DWORD PTR [eax]
	push	ecx
	call	?U_FAILURE@@YACW4UErrorCode@@@Z		; U_FAILURE
	add	esp, 4
	movsx	edx, al
	test	edx, edx
	je	SHORT $LN3@uspoof_get@5
; Line 663
	xor	eax, eax
	jmp	$LN4@uspoof_get@5
$LN3@uspoof_get@5:
; Line 665
	cmp	DWORD PTR _length$[ebp], -1
	jl	SHORT $LN1@uspoof_get@5
	cmp	DWORD PTR _destCapacity$[ebp], 0
	jl	SHORT $LN1@uspoof_get@5
	cmp	DWORD PTR _destCapacity$[ebp], 0
	jne	SHORT $LN2@uspoof_get@5
	cmp	DWORD PTR _dest$[ebp], 0
	je	SHORT $LN2@uspoof_get@5
$LN1@uspoof_get@5:
; Line 666
	mov	eax, DWORD PTR _status$[ebp]
	mov	DWORD PTR [eax], 1
; Line 667
	xor	eax, eax
	jmp	$LN4@uspoof_get@5
$LN2@uspoof_get@5:
; Line 670
	mov	esi, esp
	mov	eax, DWORD PTR _length$[ebp]
	push	eax
	mov	ecx, DWORD PTR _id$[ebp]
	push	ecx
	cmp	DWORD PTR _length$[ebp], -1
	sete	dl
	movzx	eax, dl
	push	eax
	lea	ecx, DWORD PTR _idStr$[ebp]
	call	DWORD PTR __imp_??0UnicodeString@icu_56@@QAE@CPB_WH@Z
	cmp	esi, esp
	call	__RTC_CheckEsp
; Line 671
	mov	esi, esp
	lea	ecx, DWORD PTR _destStr$[ebp]
	call	DWORD PTR __imp_??0UnicodeString@icu_56@@QAE@XZ
	cmp	esi, esp
	call	__RTC_CheckEsp
; Line 672
	mov	eax, DWORD PTR _status$[ebp]
	push	eax
	lea	ecx, DWORD PTR _destStr$[ebp]
	push	ecx
	lea	edx, DWORD PTR _idStr$[ebp]
	push	edx
	mov	eax, DWORD PTR _type$[ebp]
	push	eax
	mov	ecx, DWORD PTR _sc$[ebp]
	push	ecx
	call	?uspoof_getSkeletonUnicodeString_56@@YAAAVUnicodeString@icu_56@@PBUUSpoofChecker@@IABV12@AAV12@PAW4UErrorCode@@@Z ; uspoof_getSkeletonUnicodeString_56
	add	esp, 20					; 00000014H
; Line 673
	mov	esi, esp
	mov	eax, DWORD PTR _status$[ebp]
	push	eax
	mov	ecx, DWORD PTR _destCapacity$[ebp]
	push	ecx
	mov	edx, DWORD PTR _dest$[ebp]
	push	edx
	lea	ecx, DWORD PTR _destStr$[ebp]
	call	DWORD PTR __imp_?extract@UnicodeString@icu_56@@QBEHPA_WHAAW4UErrorCode@@@Z
	cmp	esi, esp
	call	__RTC_CheckEsp
; Line 674
	mov	esi, esp
	lea	ecx, DWORD PTR _destStr$[ebp]
	call	DWORD PTR __imp_?length@UnicodeString@icu_56@@QBEHXZ
	cmp	esi, esp
	call	__RTC_CheckEsp
	mov	DWORD PTR $T78437[ebp], eax
	mov	esi, esp
	lea	ecx, DWORD PTR _destStr$[ebp]
	call	DWORD PTR __imp_??1UnicodeString@icu_56@@UAE@XZ
	cmp	esi, esp
	call	__RTC_CheckEsp
	mov	esi, esp
	lea	ecx, DWORD PTR _idStr$[ebp]
	call	DWORD PTR __imp_??1UnicodeString@icu_56@@UAE@XZ
	cmp	esi, esp
	call	__RTC_CheckEsp
	mov	eax, DWORD PTR $T78437[ebp]
$LN4@uspoof_get@5:
; Line 675
	push	edx
	mov	ecx, ebp
	push	eax
	lea	edx, DWORD PTR $LN9@uspoof_get@5
	call	@_RTC_CheckStackVars@8
	pop	eax
	pop	edx
	pop	edi
	pop	esi
	pop	ebx
	mov	ecx, DWORD PTR __$ArrayPad$[ebp]
	xor	ecx, ebp
	call	@__security_check_cookie@4
	add	esp, 352				; 00000160H
	cmp	ebp, esp
	call	__RTC_CheckEsp
	mov	esp, ebp
	pop	ebp
	ret	0
	npad	3
$LN9@uspoof_get@5:
	DD	2
	DD	$LN8@uspoof_get@5
$LN8@uspoof_get@5:
	DD	-72					; ffffffb8H
	DD	64					; 00000040H
	DD	$LN6@uspoof_get@5
	DD	-144					; ffffff70H
	DD	64					; 00000040H
	DD	$LN7@uspoof_get@5
$LN7@uspoof_get@5:
	DB	100					; 00000064H
	DB	101					; 00000065H
	DB	115					; 00000073H
	DB	116					; 00000074H
	DB	83					; 00000053H
	DB	116					; 00000074H
	DB	114					; 00000072H
	DB	0
$LN6@uspoof_get@5:
	DB	105					; 00000069H
	DB	100					; 00000064H
	DB	83					; 00000053H
	DB	116					; 00000074H
	DB	114					; 00000072H
	DB	0
_uspoof_getSkeleton_56 ENDP
_TEXT	ENDS
PUBLIC	__$ArrayPad$
EXTRN	?confusableLookup@SpoofImpl@icu_56@@QBEHHHAAVUnicodeString@2@@Z:PROC ; icu_56::SpoofImpl::confusableLookup
;	COMDAT xdata$x
xdata$x	SEGMENT
__unwindtable$?uspoof_getSkeletonUnicodeString_56@@YAAAVUnicodeString@icu_56@@PBUUSpoofChecker@@IABV12@AAV12@PAW4UErrorCode@@@Z DD 0ffffffffH
	DD	FLAT:__unwindfunclet$?uspoof_getSkeletonUnicodeString_56@@YAAAVUnicodeString@icu_56@@PBUUSpoofChecker@@IABV12@AAV12@PAW4UErrorCode@@@Z$0
	DD	00H
	DD	FLAT:__unwindfunclet$?uspoof_getSkeletonUnicodeString_56@@YAAAVUnicodeString@icu_56@@PBUUSpoofChecker@@IABV12@AAV12@PAW4UErrorCode@@@Z$1
__ehfuncinfo$?uspoof_getSkeletonUnicodeString_56@@YAAAVUnicodeString@icu_56@@PBUUSpoofChecker@@IABV12@AAV12@PAW4UErrorCode@@@Z DD 019930522H
	DD	02H
	DD	FLAT:__unwindtable$?uspoof_getSkeletonUnicodeString_56@@YAAAVUnicodeString@icu_56@@PBUUSpoofChecker@@IABV12@AAV12@PAW4UErrorCode@@@Z
	DD	2 DUP(00H)
	DD	2 DUP(00H)
	DD	00H
	DD	01H
; Function compile flags: /Odtp /RTCsu /ZI
xdata$x	ENDS
;	COMDAT ?uspoof_getSkeletonUnicodeString_56@@YAAAVUnicodeString@icu_56@@PBUUSpoofChecker@@IABV12@AAV12@PAW4UErrorCode@@@Z
_TEXT	SEGMENT
tv71 = -428						; size = 4
$T78445 = -420						; size = 4
_c$71403 = -216						; size = 4
_normalizedLen$ = -204					; size = 4
_skelStr$ = -192					; size = 64
_inputIndex$ = -120					; size = 4
_nfdId$ = -108						; size = 64
_tableMask$ = -36					; size = 4
_This$ = -24						; size = 4
__$ArrayPad$ = -16					; size = 4
__$EHRec$ = -12						; size = 12
_sc$ = 8						; size = 4
_type$ = 12						; size = 4
_id$ = 16						; size = 4
_dest$ = 20						; size = 4
_status$ = 24						; size = 4
?uspoof_getSkeletonUnicodeString_56@@YAAAVUnicodeString@icu_56@@PBUUSpoofChecker@@IABV12@AAV12@PAW4UErrorCode@@@Z PROC ; uspoof_getSkeletonUnicodeString_56, COMDAT
; Line 684
	push	ebp
	mov	ebp, esp
	push	-1
	push	__ehhandler$?uspoof_getSkeletonUnicodeString_56@@YAAAVUnicodeString@icu_56@@PBUUSpoofChecker@@IABV12@AAV12@PAW4UErrorCode@@@Z
	mov	eax, DWORD PTR fs:0
	push	eax
	sub	esp, 416				; 000001a0H
	push	ebx
	push	esi
	push	edi
	lea	edi, DWORD PTR [ebp-428]
	mov	ecx, 104				; 00000068H
	mov	eax, -858993460				; ccccccccH
	rep stosd
	mov	eax, DWORD PTR ___security_cookie
	xor	eax, ebp
	mov	DWORD PTR __$ArrayPad$[ebp], eax
	push	eax
	lea	eax, DWORD PTR __$EHRec$[ebp]
	mov	DWORD PTR fs:0, eax
; Line 685
	mov	eax, DWORD PTR _status$[ebp]
	push	eax
	mov	ecx, DWORD PTR _sc$[ebp]
	push	ecx
	call	?validateThis@SpoofImpl@icu_56@@SAPBV12@PBUUSpoofChecker@@AAW4UErrorCode@@@Z ; icu_56::SpoofImpl::validateThis
	add	esp, 8
	mov	DWORD PTR _This$[ebp], eax
; Line 686
	mov	eax, DWORD PTR _status$[ebp]
	mov	ecx, DWORD PTR [eax]
	push	ecx
	call	?U_FAILURE@@YACW4UErrorCode@@@Z		; U_FAILURE
	add	esp, 4
	movsx	edx, al
	test	edx, edx
	je	SHORT $LN10@uspoof_get@6
; Line 687
	mov	eax, DWORD PTR _dest$[ebp]
	jmp	$LN11@uspoof_get@6
$LN10@uspoof_get@6:
; Line 690
	mov	DWORD PTR _tableMask$[ebp], 0
; Line 691
	mov	eax, DWORD PTR _type$[ebp]
	mov	DWORD PTR tv71[ebp], eax
	cmp	DWORD PTR tv71[ebp], 9
	ja	SHORT $LN3@uspoof_get@6
	mov	ecx, DWORD PTR tv71[ebp]
	movzx	edx, BYTE PTR $LN15@uspoof_get@6[ecx]
	jmp	DWORD PTR $LN21@uspoof_get@6[edx*4]
$LN7@uspoof_get@6:
; Line 693
	mov	DWORD PTR _tableMask$[ebp], 67108864	; 04000000H
; Line 694
	jmp	SHORT $LN8@uspoof_get@6
$LN6@uspoof_get@6:
; Line 696
	mov	DWORD PTR _tableMask$[ebp], 16777216	; 01000000H
; Line 697
	jmp	SHORT $LN8@uspoof_get@6
$LN5@uspoof_get@6:
; Line 699
	mov	DWORD PTR _tableMask$[ebp], 134217728	; 08000000H
; Line 700
	jmp	SHORT $LN8@uspoof_get@6
$LN4@uspoof_get@6:
; Line 702
	mov	DWORD PTR _tableMask$[ebp], 33554432	; 02000000H
; Line 703
	jmp	SHORT $LN8@uspoof_get@6
$LN3@uspoof_get@6:
; Line 705
	mov	eax, DWORD PTR _status$[ebp]
	mov	DWORD PTR [eax], 1
; Line 706
	mov	eax, DWORD PTR _dest$[ebp]
	jmp	$LN11@uspoof_get@6
$LN8@uspoof_get@6:
; Line 709
	mov	esi, esp
	lea	ecx, DWORD PTR _nfdId$[ebp]
	call	DWORD PTR __imp_??0UnicodeString@icu_56@@QAE@XZ
	cmp	esi, esp
	call	__RTC_CheckEsp
	mov	DWORD PTR __$EHRec$[ebp+8], 0
; Line 710
	mov	esi, esp
	mov	eax, DWORD PTR _status$[ebp]
	push	eax
	lea	ecx, DWORD PTR _nfdId$[ebp]
	push	ecx
	mov	edx, DWORD PTR _id$[ebp]
	push	edx
	mov	eax, DWORD PTR _gNfdNormalizer
	mov	edx, DWORD PTR [eax]
	mov	ecx, DWORD PTR _gNfdNormalizer
	mov	eax, DWORD PTR [edx+8]
	call	eax
	cmp	esi, esp
	call	__RTC_CheckEsp
; Line 714
	mov	DWORD PTR _inputIndex$[ebp], 0
; Line 715
	mov	esi, esp
	lea	ecx, DWORD PTR _skelStr$[ebp]
	call	DWORD PTR __imp_??0UnicodeString@icu_56@@QAE@XZ
	cmp	esi, esp
	call	__RTC_CheckEsp
	mov	BYTE PTR __$EHRec$[ebp+8], 1
; Line 716
	mov	esi, esp
	lea	ecx, DWORD PTR _nfdId$[ebp]
	call	DWORD PTR __imp_?length@UnicodeString@icu_56@@QBEHXZ
	cmp	esi, esp
	call	__RTC_CheckEsp
	mov	DWORD PTR _normalizedLen$[ebp], eax
; Line 717
	mov	DWORD PTR _inputIndex$[ebp], 0
$LN2@uspoof_get@6:
	mov	eax, DWORD PTR _inputIndex$[ebp]
	cmp	eax, DWORD PTR _normalizedLen$[ebp]
	jge	SHORT $LN1@uspoof_get@6
; Line 718
	mov	esi, esp
	mov	eax, DWORD PTR _inputIndex$[ebp]
	push	eax
	lea	ecx, DWORD PTR _nfdId$[ebp]
	call	DWORD PTR __imp_?char32At@UnicodeString@icu_56@@QBEHH@Z
	cmp	esi, esp
	call	__RTC_CheckEsp
	mov	DWORD PTR _c$71403[ebp], eax
; Line 719
	mov	eax, 65535				; 0000ffffH
	cmp	eax, DWORD PTR _c$71403[ebp]
	sbb	ecx, ecx
	neg	ecx
	add	ecx, 1
	add	ecx, DWORD PTR _inputIndex$[ebp]
	mov	DWORD PTR _inputIndex$[ebp], ecx
; Line 720
	lea	eax, DWORD PTR _skelStr$[ebp]
	push	eax
	mov	ecx, DWORD PTR _tableMask$[ebp]
	push	ecx
	mov	edx, DWORD PTR _c$71403[ebp]
	push	edx
	mov	ecx, DWORD PTR _This$[ebp]
	call	?confusableLookup@SpoofImpl@icu_56@@QBEHHHAAVUnicodeString@2@@Z ; icu_56::SpoofImpl::confusableLookup
; Line 721
	jmp	SHORT $LN2@uspoof_get@6
$LN1@uspoof_get@6:
; Line 723
	mov	esi, esp
	mov	eax, DWORD PTR _status$[ebp]
	push	eax
	mov	ecx, DWORD PTR _dest$[ebp]
	push	ecx
	lea	edx, DWORD PTR _skelStr$[ebp]
	push	edx
	mov	eax, DWORD PTR _gNfdNormalizer
	mov	edx, DWORD PTR [eax]
	mov	ecx, DWORD PTR _gNfdNormalizer
	mov	eax, DWORD PTR [edx+8]
	call	eax
	cmp	esi, esp
	call	__RTC_CheckEsp
; Line 724
	mov	eax, DWORD PTR _dest$[ebp]
	mov	DWORD PTR $T78445[ebp], eax
	mov	BYTE PTR __$EHRec$[ebp+8], 0
	mov	esi, esp
	lea	ecx, DWORD PTR _skelStr$[ebp]
	call	DWORD PTR __imp_??1UnicodeString@icu_56@@UAE@XZ
	cmp	esi, esp
	call	__RTC_CheckEsp
	mov	DWORD PTR __$EHRec$[ebp+8], -1
	mov	esi, esp
	lea	ecx, DWORD PTR _nfdId$[ebp]
	call	DWORD PTR __imp_??1UnicodeString@icu_56@@UAE@XZ
	cmp	esi, esp
	call	__RTC_CheckEsp
	mov	eax, DWORD PTR $T78445[ebp]
$LN11@uspoof_get@6:
; Line 725
	push	edx
	mov	ecx, ebp
	push	eax
	lea	edx, DWORD PTR $LN20@uspoof_get@6
	call	@_RTC_CheckStackVars@8
	pop	eax
	pop	edx
	mov	ecx, DWORD PTR __$EHRec$[ebp]
	mov	DWORD PTR fs:0, ecx
	pop	ecx
	pop	edi
	pop	esi
	pop	ebx
	mov	ecx, DWORD PTR __$ArrayPad$[ebp]
	xor	ecx, ebp
	call	@__security_check_cookie@4
	add	esp, 428				; 000001acH
	cmp	ebp, esp
	call	__RTC_CheckEsp
	mov	esp, ebp
	pop	ebp
	ret	0
	npad	3
$LN20@uspoof_get@6:
	DD	2
	DD	$LN19@uspoof_get@6
$LN19@uspoof_get@6:
	DD	-108					; ffffff94H
	DD	64					; 00000040H
	DD	$LN16@uspoof_get@6
	DD	-192					; ffffff40H
	DD	64					; 00000040H
	DD	$LN17@uspoof_get@6
$LN17@uspoof_get@6:
	DB	115					; 00000073H
	DB	107					; 0000006bH
	DB	101					; 00000065H
	DB	108					; 0000006cH
	DB	83					; 00000053H
	DB	116					; 00000074H
	DB	114					; 00000072H
	DB	0
$LN16@uspoof_get@6:
	DB	110					; 0000006eH
	DB	102					; 00000066H
	DB	100					; 00000064H
	DB	73					; 00000049H
	DB	100					; 00000064H
	DB	0
	npad	2
$LN21@uspoof_get@6:
	DD	$LN7@uspoof_get@6
	DD	$LN6@uspoof_get@6
	DD	$LN5@uspoof_get@6
	DD	$LN4@uspoof_get@6
	DD	$LN3@uspoof_get@6
$LN15@uspoof_get@6:
	DB	0
	DB	1
	DB	4
	DB	4
	DB	4
	DB	4
	DB	4
	DB	4
	DB	2
	DB	3
_TEXT	ENDS
;	COMDAT text$x
text$x	SEGMENT
__unwindfunclet$?uspoof_getSkeletonUnicodeString_56@@YAAAVUnicodeString@icu_56@@PBUUSpoofChecker@@IABV12@AAV12@PAW4UErrorCode@@@Z$0:
	mov	esi, esp
	lea	ecx, DWORD PTR _nfdId$[ebp]
	call	DWORD PTR __imp_??1UnicodeString@icu_56@@UAE@XZ
	cmp	esi, esp
	jmp	__RTC_CheckEsp
__unwindfunclet$?uspoof_getSkeletonUnicodeString_56@@YAAAVUnicodeString@icu_56@@PBUUSpoofChecker@@IABV12@AAV12@PAW4UErrorCode@@@Z$1:
	mov	esi, esp
	lea	ecx, DWORD PTR _skelStr$[ebp]
	call	DWORD PTR __imp_??1UnicodeString@icu_56@@UAE@XZ
	cmp	esi, esp
	jmp	__RTC_CheckEsp
__ehhandler$?uspoof_getSkeletonUnicodeString_56@@YAAAVUnicodeString@icu_56@@PBUUSpoofChecker@@IABV12@AAV12@PAW4UErrorCode@@@Z:
	mov	edx, DWORD PTR [esp+8]
	lea	eax, DWORD PTR [edx+12]
	mov	ecx, DWORD PTR [edx-432]
	xor	ecx, eax
	call	@__security_check_cookie@4
	mov	ecx, DWORD PTR [edx-4]
	xor	ecx, eax
	call	@__security_check_cookie@4
	mov	eax, OFFSET __ehfuncinfo$?uspoof_getSkeletonUnicodeString_56@@YAAAVUnicodeString@icu_56@@PBUUSpoofChecker@@IABV12@AAV12@PAW4UErrorCode@@@Z
	jmp	___CxxFrameHandler3
text$x	ENDS
?uspoof_getSkeletonUnicodeString_56@@YAAAVUnicodeString@icu_56@@PBUUSpoofChecker@@IABV12@AAV12@PAW4UErrorCode@@@Z ENDP ; uspoof_getSkeletonUnicodeString_56
PUBLIC	__$ArrayPad$
PUBLIC	_uspoof_getSkeletonUTF8_56
EXTRN	_u_strToUTF8_56:PROC
EXTRN	__imp_?getBuffer@UnicodeString@icu_56@@QBEPB_WXZ:PROC
; Function compile flags: /Odtp /RTCsu /ZI
;	COMDAT _uspoof_getSkeletonUTF8_56
_TEXT	SEGMENT
tv80 = -396						; size = 4
$T78463 = -388						; size = 8
$T78466 = -372						; size = 4
$T78467 = -360						; size = 4
_lengthInUTF8$ = -156					; size = 4
_destStr$ = -144					; size = 64
_srcStr$ = -72						; size = 64
__$ArrayPad$ = -4					; size = 4
_sc$ = 8						; size = 4
_type$ = 12						; size = 4
_id$ = 16						; size = 4
_length$ = 20						; size = 4
_dest$ = 24						; size = 4
_destCapacity$ = 28					; size = 4
_status$ = 32						; size = 4
_uspoof_getSkeletonUTF8_56 PROC				; COMDAT
; Line 733
	push	ebp
	mov	ebp, esp
	sub	esp, 396				; 0000018cH
	push	ebx
	push	esi
	push	edi
	lea	edi, DWORD PTR [ebp-396]
	mov	ecx, 99					; 00000063H
	mov	eax, -858993460				; ccccccccH
	rep stosd
	mov	eax, DWORD PTR ___security_cookie
	xor	eax, ebp
	mov	DWORD PTR __$ArrayPad$[ebp], eax
; Line 734
	mov	eax, DWORD PTR _status$[ebp]
	push	eax
	mov	ecx, DWORD PTR _sc$[ebp]
	push	ecx
	call	?validateThis@SpoofImpl@icu_56@@SAPBV12@PBUUSpoofChecker@@AAW4UErrorCode@@@Z ; icu_56::SpoofImpl::validateThis
	add	esp, 8
; Line 735
	mov	eax, DWORD PTR _status$[ebp]
	mov	ecx, DWORD PTR [eax]
	push	ecx
	call	?U_FAILURE@@YACW4UErrorCode@@@Z		; U_FAILURE
	add	esp, 4
	movsx	edx, al
	test	edx, edx
	je	SHORT $LN4@uspoof_get@7
; Line 736
	xor	eax, eax
	jmp	$LN5@uspoof_get@7
$LN4@uspoof_get@7:
; Line 738
	cmp	DWORD PTR _length$[ebp], -1
	jl	SHORT $LN2@uspoof_get@7
	cmp	DWORD PTR _destCapacity$[ebp], 0
	jl	SHORT $LN2@uspoof_get@7
	cmp	DWORD PTR _destCapacity$[ebp], 0
	jne	SHORT $LN3@uspoof_get@7
	cmp	DWORD PTR _dest$[ebp], 0
	je	SHORT $LN3@uspoof_get@7
$LN2@uspoof_get@7:
; Line 739
	mov	eax, DWORD PTR _status$[ebp]
	mov	DWORD PTR [eax], 1
; Line 740
	xor	eax, eax
	jmp	$LN5@uspoof_get@7
$LN3@uspoof_get@7:
; Line 743
	cmp	DWORD PTR _length$[ebp], 0
	jl	SHORT $LN7@uspoof_get@7
	mov	eax, DWORD PTR _length$[ebp]
	mov	DWORD PTR tv80[ebp], eax
	jmp	SHORT $LN8@uspoof_get@7
$LN7@uspoof_get@7:
	mov	ecx, DWORD PTR _id$[ebp]
	push	ecx
	call	_strlen
	add	esp, 4
	mov	DWORD PTR tv80[ebp], eax
$LN8@uspoof_get@7:
	mov	esi, esp
	mov	edx, DWORD PTR tv80[ebp]
	push	edx
	mov	eax, DWORD PTR _id$[ebp]
	push	eax
	lea	ecx, DWORD PTR $T78463[ebp]
	call	DWORD PTR __imp_??0StringPiece@icu_56@@QAE@PBDH@Z
	cmp	esi, esp
	call	__RTC_CheckEsp
	mov	esi, esp
	push	eax
	lea	ecx, DWORD PTR _srcStr$[ebp]
	push	ecx
	call	DWORD PTR __imp_?fromUTF8@UnicodeString@icu_56@@SA?AV12@ABVStringPiece@2@@Z
	add	esp, 8
	cmp	esi, esp
	call	__RTC_CheckEsp
; Line 744
	mov	esi, esp
	lea	ecx, DWORD PTR _destStr$[ebp]
	call	DWORD PTR __imp_??0UnicodeString@icu_56@@QAE@XZ
	cmp	esi, esp
	call	__RTC_CheckEsp
; Line 745
	mov	eax, DWORD PTR _status$[ebp]
	push	eax
	lea	ecx, DWORD PTR _destStr$[ebp]
	push	ecx
	lea	edx, DWORD PTR _srcStr$[ebp]
	push	edx
	mov	eax, DWORD PTR _type$[ebp]
	push	eax
	mov	ecx, DWORD PTR _sc$[ebp]
	push	ecx
	call	?uspoof_getSkeletonUnicodeString_56@@YAAAVUnicodeString@icu_56@@PBUUSpoofChecker@@IABV12@AAV12@PAW4UErrorCode@@@Z ; uspoof_getSkeletonUnicodeString_56
	add	esp, 20					; 00000014H
; Line 746
	mov	eax, DWORD PTR _status$[ebp]
	mov	ecx, DWORD PTR [eax]
	push	ecx
	call	?U_FAILURE@@YACW4UErrorCode@@@Z		; U_FAILURE
	add	esp, 4
	movsx	edx, al
	test	edx, edx
	je	SHORT $LN1@uspoof_get@7
; Line 747
	mov	DWORD PTR $T78466[ebp], 0
	mov	esi, esp
	lea	ecx, DWORD PTR _destStr$[ebp]
	call	DWORD PTR __imp_??1UnicodeString@icu_56@@UAE@XZ
	cmp	esi, esp
	call	__RTC_CheckEsp
	mov	esi, esp
	lea	ecx, DWORD PTR _srcStr$[ebp]
	call	DWORD PTR __imp_??1UnicodeString@icu_56@@UAE@XZ
	cmp	esi, esp
	call	__RTC_CheckEsp
	mov	eax, DWORD PTR $T78466[ebp]
	jmp	$LN5@uspoof_get@7
$LN1@uspoof_get@7:
; Line 750
	mov	DWORD PTR _lengthInUTF8$[ebp], 0
; Line 752
	mov	eax, DWORD PTR _status$[ebp]
	push	eax
	mov	esi, esp
	lea	ecx, DWORD PTR _destStr$[ebp]
	call	DWORD PTR __imp_?length@UnicodeString@icu_56@@QBEHXZ
	cmp	esi, esp
	call	__RTC_CheckEsp
	push	eax
	mov	esi, esp
	lea	ecx, DWORD PTR _destStr$[ebp]
	call	DWORD PTR __imp_?getBuffer@UnicodeString@icu_56@@QBEPB_WXZ
	cmp	esi, esp
	call	__RTC_CheckEsp
	push	eax
	lea	ecx, DWORD PTR _lengthInUTF8$[ebp]
	push	ecx
	mov	edx, DWORD PTR _destCapacity$[ebp]
	push	edx
	mov	eax, DWORD PTR _dest$[ebp]
	push	eax
	call	_u_strToUTF8_56
	add	esp, 24					; 00000018H
; Line 753
	mov	eax, DWORD PTR _lengthInUTF8$[ebp]
	mov	DWORD PTR $T78467[ebp], eax
	mov	esi, esp
	lea	ecx, DWORD PTR _destStr$[ebp]
	call	DWORD PTR __imp_??1UnicodeString@icu_56@@UAE@XZ
	cmp	esi, esp
	call	__RTC_CheckEsp
	mov	esi, esp
	lea	ecx, DWORD PTR _srcStr$[ebp]
	call	DWORD PTR __imp_??1UnicodeString@icu_56@@UAE@XZ
	cmp	esi, esp
	call	__RTC_CheckEsp
	mov	eax, DWORD PTR $T78467[ebp]
$LN5@uspoof_get@7:
; Line 754
	push	edx
	mov	ecx, ebp
	push	eax
	lea	edx, DWORD PTR $LN13@uspoof_get@7
	call	@_RTC_CheckStackVars@8
	pop	eax
	pop	edx
	pop	edi
	pop	esi
	pop	ebx
	mov	ecx, DWORD PTR __$ArrayPad$[ebp]
	xor	ecx, ebp
	call	@__security_check_cookie@4
	add	esp, 396				; 0000018cH
	cmp	ebp, esp
	call	__RTC_CheckEsp
	mov	esp, ebp
	pop	ebp
	ret	0
$LN13@uspoof_get@7:
	DD	3
	DD	$LN12@uspoof_get@7
$LN12@uspoof_get@7:
	DD	-72					; ffffffb8H
	DD	64					; 00000040H
	DD	$LN9@uspoof_get@7
	DD	-144					; ffffff70H
	DD	64					; 00000040H
	DD	$LN10@uspoof_get@7
	DD	-156					; ffffff64H
	DD	4
	DD	$LN11@uspoof_get@7
$LN11@uspoof_get@7:
	DB	108					; 0000006cH
	DB	101					; 00000065H
	DB	110					; 0000006eH
	DB	103					; 00000067H
	DB	116					; 00000074H
	DB	104					; 00000068H
	DB	73					; 00000049H
	DB	110					; 0000006eH
	DB	85					; 00000055H
	DB	84					; 00000054H
	DB	70					; 00000046H
	DB	56					; 00000038H
	DB	0
$LN10@uspoof_get@7:
	DB	100					; 00000064H
	DB	101					; 00000065H
	DB	115					; 00000073H
	DB	116					; 00000074H
	DB	83					; 00000053H
	DB	116					; 00000074H
	DB	114					; 00000072H
	DB	0
$LN9@uspoof_get@7:
	DB	115					; 00000073H
	DB	114					; 00000072H
	DB	99					; 00000063H
	DB	83					; 00000053H
	DB	116					; 00000074H
	DB	114					; 00000072H
	DB	0
_uspoof_getSkeletonUTF8_56 ENDP
_TEXT	ENDS
PUBLIC	??_C@_1CG@GFHCBPDH@?$AAU?$AA_?$AAF?$AAA?$AAI?$AAL?$AAU?$AAR?$AAE?$AA?$CI?$AA?$CK?$AAs?$AAt?$AAa?$AAt?$AAu?$AAs?$AA?$CJ?$AA?$AA@ ; `string'
PUBLIC	??_C@_1FG@NOAAMNGO@?$AAd?$AA?3?$AA?2?$AAm?$AAo?$AAz?$AAi?$AAl?$AAl?$AAa?$AA?2?$AAi?$AAn?$AAt?$AAl?$AA?2?$AAi?$AAc?$AAu?$AA?2?$AAs?$AAo?$AAu?$AAr?$AAc?$AAe?$AA?2?$AAi?$AA1?$AA8?$AAn?$AA?2@ ; `string'
PUBLIC	?__LINE__Var@?1??uspoof_serialize_56@@9@4JA	; `uspoof_serialize_56'::`2'::__LINE__Var
PUBLIC	_uspoof_serialize_56
EXTRN	_memcpy:PROC
EXTRN	_uprv_checkValidMemory:PROC
EXTRN	__imp___wassert:PROC
;	COMDAT ??_C@_1CG@GFHCBPDH@?$AAU?$AA_?$AAF?$AAA?$AAI?$AAL?$AAU?$AAR?$AAE?$AA?$CI?$AA?$CK?$AAs?$AAt?$AAa?$AAt?$AAu?$AAs?$AA?$CJ?$AA?$AA@
CONST	SEGMENT
??_C@_1CG@GFHCBPDH@?$AAU?$AA_?$AAF?$AAA?$AAI?$AAL?$AAU?$AAR?$AAE?$AA?$CI?$AA?$CK?$AAs?$AAt?$AAa?$AAt?$AAu?$AAs?$AA?$CJ?$AA?$AA@ DB 'U'
	DB	00H, '_', 00H, 'F', 00H, 'A', 00H, 'I', 00H, 'L', 00H, 'U', 00H
	DB	'R', 00H, 'E', 00H, '(', 00H, '*', 00H, 's', 00H, 't', 00H, 'a'
	DB	00H, 't', 00H, 'u', 00H, 's', 00H, ')', 00H, 00H, 00H ; `string'
CONST	ENDS
;	COMDAT ??_C@_1FG@NOAAMNGO@?$AAd?$AA?3?$AA?2?$AAm?$AAo?$AAz?$AAi?$AAl?$AAl?$AAa?$AA?2?$AAi?$AAn?$AAt?$AAl?$AA?2?$AAi?$AAc?$AAu?$AA?2?$AAs?$AAo?$AAu?$AAr?$AAc?$AAe?$AA?2?$AAi?$AA1?$AA8?$AAn?$AA?2@
CONST	SEGMENT
??_C@_1FG@NOAAMNGO@?$AAd?$AA?3?$AA?2?$AAm?$AAo?$AAz?$AAi?$AAl?$AAl?$AAa?$AA?2?$AAi?$AAn?$AAt?$AAl?$AA?2?$AAi?$AAc?$AAu?$AA?2?$AAs?$AAo?$AAu?$AAr?$AAc?$AAe?$AA?2?$AAi?$AA1?$AA8?$AAn?$AA?2@ DB 'd'
	DB	00H, ':', 00H, '\', 00H, 'm', 00H, 'o', 00H, 'z', 00H, 'i', 00H
	DB	'l', 00H, 'l', 00H, 'a', 00H, '\', 00H, 'i', 00H, 'n', 00H, 't'
	DB	00H, 'l', 00H, '\', 00H, 'i', 00H, 'c', 00H, 'u', 00H, '\', 00H
	DB	's', 00H, 'o', 00H, 'u', 00H, 'r', 00H, 'c', 00H, 'e', 00H, '\'
	DB	00H, 'i', 00H, '1', 00H, '8', 00H, 'n', 00H, '\', 00H, 'u', 00H
	DB	's', 00H, 'p', 00H, 'o', 00H, 'o', 00H, 'f', 00H, '.', 00H, 'c'
	DB	00H, 'p', 00H, 'p', 00H, 00H, 00H		; `string'
CONST	ENDS
;	COMDAT ?__LINE__Var@?1??uspoof_serialize_56@@9@4JA
_DATA	SEGMENT
?__LINE__Var@?1??uspoof_serialize_56@@9@4JA DD 02f6H	; `uspoof_serialize_56'::`2'::__LINE__Var
; Function compile flags: /Odtp /RTCsu /ZI
_DATA	ENDS
;	COMDAT _uspoof_serialize_56
_TEXT	SEGMENT
_dataSize$ = -20					; size = 4
_This$ = -8						; size = 4
_sc$ = 8						; size = 4
_buf$ = 12						; size = 4
_capacity$ = 16						; size = 4
_status$ = 20						; size = 4
_uspoof_serialize_56 PROC				; COMDAT
; Line 758
	push	ebp
	mov	ebp, esp
	sub	esp, 216				; 000000d8H
	push	ebx
	push	esi
	push	edi
	lea	edi, DWORD PTR [ebp-216]
	mov	ecx, 54					; 00000036H
	mov	eax, -858993460				; ccccccccH
	rep stosd
; Line 759
	mov	eax, DWORD PTR _status$[ebp]
	push	eax
	mov	ecx, DWORD PTR _sc$[ebp]
	push	ecx
	call	?validateThis@SpoofImpl@icu_56@@SAPAV12@PAUUSpoofChecker@@AAW4UErrorCode@@@Z ; icu_56::SpoofImpl::validateThis
	add	esp, 8
	mov	DWORD PTR _This$[ebp], eax
; Line 760
	cmp	DWORD PTR _This$[ebp], 0
	jne	SHORT $LN2@uspoof_ser
; Line 761
	mov	eax, DWORD PTR _status$[ebp]
	mov	ecx, DWORD PTR [eax]
	push	ecx
	call	?U_FAILURE@@YACW4UErrorCode@@@Z		; U_FAILURE
	add	esp, 4
	movsx	edx, al
	test	edx, edx
	jne	SHORT $LN5@uspoof_ser
	mov	eax, DWORD PTR ?__LINE__Var@?1??uspoof_serialize_56@@9@4JA
	add	eax, 3
	mov	esi, esp
	push	eax
	push	OFFSET ??_C@_1FG@NOAAMNGO@?$AAd?$AA?3?$AA?2?$AAm?$AAo?$AAz?$AAi?$AAl?$AAl?$AAa?$AA?2?$AAi?$AAn?$AAt?$AAl?$AA?2?$AAi?$AAc?$AAu?$AA?2?$AAs?$AAo?$AAu?$AAr?$AAc?$AAe?$AA?2?$AAi?$AA1?$AA8?$AAn?$AA?2@
	push	OFFSET ??_C@_1CG@GFHCBPDH@?$AAU?$AA_?$AAF?$AAA?$AAI?$AAL?$AAU?$AAR?$AAE?$AA?$CI?$AA?$CK?$AAs?$AAt?$AAa?$AAt?$AAu?$AAs?$AA?$CJ?$AA?$AA@
	call	DWORD PTR __imp___wassert
	add	esp, 12					; 0000000cH
	cmp	esi, esp
	call	__RTC_CheckEsp
$LN5@uspoof_ser:
; Line 762
	xor	eax, eax
	jmp	SHORT $LN3@uspoof_ser
$LN2@uspoof_ser:
; Line 764
	mov	eax, DWORD PTR _This$[ebp]
	mov	ecx, DWORD PTR [eax+12]
	mov	edx, DWORD PTR [ecx]
	mov	eax, DWORD PTR [edx+8]
	mov	DWORD PTR _dataSize$[ebp], eax
; Line 765
	mov	eax, DWORD PTR _capacity$[ebp]
	cmp	eax, DWORD PTR _dataSize$[ebp]
	jge	SHORT $LN1@uspoof_ser
; Line 766
	mov	eax, DWORD PTR _status$[ebp]
	mov	DWORD PTR [eax], 15			; 0000000fH
; Line 767
	mov	eax, DWORD PTR _dataSize$[ebp]
	jmp	SHORT $LN3@uspoof_ser
$LN1@uspoof_ser:
; Line 769
	push	1
	mov	eax, DWORD PTR _This$[ebp]
	mov	ecx, DWORD PTR [eax+12]
	mov	edx, DWORD PTR [ecx]
	push	edx
	call	_uprv_checkValidMemory
	add	esp, 8
	mov	eax, DWORD PTR _dataSize$[ebp]
	push	eax
	mov	ecx, DWORD PTR _This$[ebp]
	mov	edx, DWORD PTR [ecx+12]
	mov	eax, DWORD PTR [edx]
	push	eax
	mov	ecx, DWORD PTR _buf$[ebp]
	push	ecx
	call	_memcpy
	add	esp, 12					; 0000000cH
; Line 770
	mov	eax, DWORD PTR _dataSize$[ebp]
$LN3@uspoof_ser:
; Line 771
	pop	edi
	pop	esi
	pop	ebx
	add	esp, 216				; 000000d8H
	cmp	ebp, esp
	call	__RTC_CheckEsp
	mov	esp, ebp
	pop	ebp
	ret	0
_uspoof_serialize_56 ENDP
_TEXT	ENDS
PUBLIC	_uspoof_getInclusionSet_56
EXTRN	__imp_?toUSet@UnicodeSet@icu_56@@QAEPAUUSet@@XZ:PROC
; Function compile flags: /Odtp /RTCsu /ZI
;	COMDAT _uspoof_getInclusionSet_56
_TEXT	SEGMENT
_status$ = 8						; size = 4
_uspoof_getInclusionSet_56 PROC				; COMDAT
; Line 774
	push	ebp
	mov	ebp, esp
	sub	esp, 192				; 000000c0H
	push	ebx
	push	esi
	push	edi
	lea	edi, DWORD PTR [ebp-192]
	mov	ecx, 48					; 00000030H
	mov	eax, -858993460				; ccccccccH
	rep stosd
; Line 775
	mov	eax, DWORD PTR _status$[ebp]
	push	eax
	push	OFFSET ?initializeStatics@@YAXAAW4UErrorCode@@@Z ; initializeStatics
	push	OFFSET _gSpoofInitStaticsOnce
	call	?umtx_initOnce@icu_56@@YAXAAUUInitOnce@1@P6AXAAW4UErrorCode@@@Z1@Z ; icu_56::umtx_initOnce
	add	esp, 12					; 0000000cH
; Line 776
	mov	esi, esp
	mov	ecx, DWORD PTR _gInclusionSet
	call	DWORD PTR __imp_?toUSet@UnicodeSet@icu_56@@QAEPAUUSet@@XZ
	cmp	esi, esp
	call	__RTC_CheckEsp
; Line 777
	pop	edi
	pop	esi
	pop	ebx
	add	esp, 192				; 000000c0H
	cmp	ebp, esp
	call	__RTC_CheckEsp
	mov	esp, ebp
	pop	ebp
	ret	0
_uspoof_getInclusionSet_56 ENDP
_TEXT	ENDS
PUBLIC	_uspoof_getRecommendedSet_56
; Function compile flags: /Odtp /RTCsu /ZI
;	COMDAT _uspoof_getRecommendedSet_56
_TEXT	SEGMENT
_status$ = 8						; size = 4
_uspoof_getRecommendedSet_56 PROC			; COMDAT
; Line 780
	push	ebp
	mov	ebp, esp
	sub	esp, 192				; 000000c0H
	push	ebx
	push	esi
	push	edi
	lea	edi, DWORD PTR [ebp-192]
	mov	ecx, 48					; 00000030H
	mov	eax, -858993460				; ccccccccH
	rep stosd
; Line 781
	mov	eax, DWORD PTR _status$[ebp]
	push	eax
	push	OFFSET ?initializeStatics@@YAXAAW4UErrorCode@@@Z ; initializeStatics
	push	OFFSET _gSpoofInitStaticsOnce
	call	?umtx_initOnce@icu_56@@YAXAAUUInitOnce@1@P6AXAAW4UErrorCode@@@Z1@Z ; icu_56::umtx_initOnce
	add	esp, 12					; 0000000cH
; Line 782
	mov	esi, esp
	mov	ecx, DWORD PTR _gRecommendedSet
	call	DWORD PTR __imp_?toUSet@UnicodeSet@icu_56@@QAEPAUUSet@@XZ
	cmp	esi, esp
	call	__RTC_CheckEsp
; Line 783
	pop	edi
	pop	esi
	pop	ebx
	add	esp, 192				; 000000c0H
	cmp	ebp, esp
	call	__RTC_CheckEsp
	mov	esp, ebp
	pop	ebp
	ret	0
_uspoof_getRecommendedSet_56 ENDP
_TEXT	ENDS
PUBLIC	_uspoof_getInclusionUnicodeSet_56
; Function compile flags: /Odtp /RTCsu /ZI
;	COMDAT _uspoof_getInclusionUnicodeSet_56
_TEXT	SEGMENT
_status$ = 8						; size = 4
_uspoof_getInclusionUnicodeSet_56 PROC			; COMDAT
; Line 786
	push	ebp
	mov	ebp, esp
	sub	esp, 192				; 000000c0H
	push	ebx
	push	esi
	push	edi
	lea	edi, DWORD PTR [ebp-192]
	mov	ecx, 48					; 00000030H
	mov	eax, -858993460				; ccccccccH
	rep stosd
; Line 787
	mov	eax, DWORD PTR _status$[ebp]
	push	eax
	push	OFFSET ?initializeStatics@@YAXAAW4UErrorCode@@@Z ; initializeStatics
	push	OFFSET _gSpoofInitStaticsOnce
	call	?umtx_initOnce@icu_56@@YAXAAUUInitOnce@1@P6AXAAW4UErrorCode@@@Z1@Z ; icu_56::umtx_initOnce
	add	esp, 12					; 0000000cH
; Line 788
	mov	eax, DWORD PTR _gInclusionSet
; Line 789
	pop	edi
	pop	esi
	pop	ebx
	add	esp, 192				; 000000c0H
	cmp	ebp, esp
	call	__RTC_CheckEsp
	mov	esp, ebp
	pop	ebp
	ret	0
_uspoof_getInclusionUnicodeSet_56 ENDP
_TEXT	ENDS
PUBLIC	_uspoof_getRecommendedUnicodeSet_56
; Function compile flags: /Odtp /RTCsu /ZI
;	COMDAT _uspoof_getRecommendedUnicodeSet_56
_TEXT	SEGMENT
_status$ = 8						; size = 4
_uspoof_getRecommendedUnicodeSet_56 PROC		; COMDAT
; Line 792
	push	ebp
	mov	ebp, esp
	sub	esp, 192				; 000000c0H
	push	ebx
	push	esi
	push	edi
	lea	edi, DWORD PTR [ebp-192]
	mov	ecx, 48					; 00000030H
	mov	eax, -858993460				; ccccccccH
	rep stosd
; Line 793
	mov	eax, DWORD PTR _status$[ebp]
	push	eax
	push	OFFSET ?initializeStatics@@YAXAAW4UErrorCode@@@Z ; initializeStatics
	push	OFFSET _gSpoofInitStaticsOnce
	call	?umtx_initOnce@icu_56@@YAXAAUUInitOnce@1@P6AXAAW4UErrorCode@@@Z1@Z ; icu_56::umtx_initOnce
	add	esp, 12					; 0000000cH
; Line 794
	mov	eax, DWORD PTR _gRecommendedSet
; Line 795
	pop	edi
	pop	esi
	pop	ebx
	add	esp, 192				; 000000c0H
	cmp	ebp, esp
	call	__RTC_CheckEsp
	mov	esp, ebp
	pop	ebp
	ret	0
_uspoof_getRecommendedUnicodeSet_56 ENDP
; Function compile flags: /Odtp /RTCsu /ZI
_TEXT	ENDS
;	COMDAT ??_EUnicodeSet@icu_56@@W3AEPAXI@Z
_TEXT	SEGMENT
??_EUnicodeSet@icu_56@@W3AEPAXI@Z PROC			; [thunk]:icu_56::UnicodeSet::`vector deleting destructor', COMDAT
	sub	ecx, 4
	jmp	??_EUnicodeSet@icu_56@@UAEPAXI@Z
??_EUnicodeSet@icu_56@@W3AEPAXI@Z ENDP			; [thunk]:icu_56::UnicodeSet::`vector deleting destructor'
_TEXT	ENDS
END
