; Listing generated by Microsoft (R) Optimizing Compiler Version 16.00.40219.01 

	TITLE	D:\mozilla\intl\icu\source\i18n\uspoof_conf.cpp
	.686P
	.XMM
	include listing.inc
	.model	flat

INCLUDELIB MSVCRTD
INCLUDELIB OLDNAMES

PUBLIC	?value@?$integral_constant@_N$0A@@tr1@std@@2_NB	; std::tr1::integral_constant<bool,0>::value
PUBLIC	?value@?$integral_constant@_N$00@tr1@std@@2_NB	; std::tr1::integral_constant<bool,1>::value
PUBLIC	?value@?$integral_constant@I$0A@@tr1@std@@2IB	; std::tr1::integral_constant<unsigned int,0>::value
PUBLIC	?_Rank@?$_Arithmetic_traits@_N@std@@2HB		; std::_Arithmetic_traits<bool>::_Rank
PUBLIC	?_Rank@?$_Arithmetic_traits@D@std@@2HB		; std::_Arithmetic_traits<char>::_Rank
PUBLIC	?_Rank@?$_Arithmetic_traits@C@std@@2HB		; std::_Arithmetic_traits<signed char>::_Rank
PUBLIC	?_Rank@?$_Arithmetic_traits@E@std@@2HB		; std::_Arithmetic_traits<unsigned char>::_Rank
PUBLIC	?_Rank@?$_Arithmetic_traits@F@std@@2HB		; std::_Arithmetic_traits<short>::_Rank
PUBLIC	?_Rank@?$_Arithmetic_traits@G@std@@2HB		; std::_Arithmetic_traits<unsigned short>::_Rank
PUBLIC	?_Rank@?$_Arithmetic_traits@H@std@@2HB		; std::_Arithmetic_traits<int>::_Rank
PUBLIC	?_Rank@?$_Arithmetic_traits@I@std@@2HB		; std::_Arithmetic_traits<unsigned int>::_Rank
PUBLIC	?_Rank@?$_Arithmetic_traits@J@std@@2HB		; std::_Arithmetic_traits<long>::_Rank
PUBLIC	?_Rank@?$_Arithmetic_traits@K@std@@2HB		; std::_Arithmetic_traits<unsigned long>::_Rank
PUBLIC	?_Rank@?$_Arithmetic_traits@_J@std@@2HB		; std::_Arithmetic_traits<__int64>::_Rank
PUBLIC	?_Rank@?$_Arithmetic_traits@_K@std@@2HB		; std::_Arithmetic_traits<unsigned __int64>::_Rank
PUBLIC	?_Rank@?$_Arithmetic_traits@M@std@@2HB		; std::_Arithmetic_traits<float>::_Rank
PUBLIC	?_Rank@?$_Arithmetic_traits@N@std@@2HB		; std::_Arithmetic_traits<double>::_Rank
PUBLIC	?_Rank@?$_Arithmetic_traits@O@std@@2HB		; std::_Arithmetic_traits<long double>::_Rank
PUBLIC	?collate@?$_Locbase@H@std@@2HB			; std::_Locbase<int>::collate
PUBLIC	?ctype@?$_Locbase@H@std@@2HB			; std::_Locbase<int>::ctype
PUBLIC	?monetary@?$_Locbase@H@std@@2HB			; std::_Locbase<int>::monetary
PUBLIC	?numeric@?$_Locbase@H@std@@2HB			; std::_Locbase<int>::numeric
PUBLIC	?time@?$_Locbase@H@std@@2HB			; std::_Locbase<int>::time
PUBLIC	?messages@?$_Locbase@H@std@@2HB			; std::_Locbase<int>::messages
PUBLIC	?all@?$_Locbase@H@std@@2HB			; std::_Locbase<int>::all
PUBLIC	?none@?$_Locbase@H@std@@2HB			; std::_Locbase<int>::none
PUBLIC	?skipws@?$_Iosb@H@std@@2W4_Fmtflags@12@B	; std::_Iosb<int>::skipws
PUBLIC	?unitbuf@?$_Iosb@H@std@@2W4_Fmtflags@12@B	; std::_Iosb<int>::unitbuf
PUBLIC	?uppercase@?$_Iosb@H@std@@2W4_Fmtflags@12@B	; std::_Iosb<int>::uppercase
PUBLIC	?showbase@?$_Iosb@H@std@@2W4_Fmtflags@12@B	; std::_Iosb<int>::showbase
PUBLIC	?showpoint@?$_Iosb@H@std@@2W4_Fmtflags@12@B	; std::_Iosb<int>::showpoint
PUBLIC	?showpos@?$_Iosb@H@std@@2W4_Fmtflags@12@B	; std::_Iosb<int>::showpos
PUBLIC	?left@?$_Iosb@H@std@@2W4_Fmtflags@12@B		; std::_Iosb<int>::left
PUBLIC	?right@?$_Iosb@H@std@@2W4_Fmtflags@12@B		; std::_Iosb<int>::right
PUBLIC	?internal@?$_Iosb@H@std@@2W4_Fmtflags@12@B	; std::_Iosb<int>::internal
PUBLIC	?dec@?$_Iosb@H@std@@2W4_Fmtflags@12@B		; std::_Iosb<int>::dec
PUBLIC	?oct@?$_Iosb@H@std@@2W4_Fmtflags@12@B		; std::_Iosb<int>::oct
PUBLIC	?hex@?$_Iosb@H@std@@2W4_Fmtflags@12@B		; std::_Iosb<int>::hex
PUBLIC	?scientific@?$_Iosb@H@std@@2W4_Fmtflags@12@B	; std::_Iosb<int>::scientific
PUBLIC	?fixed@?$_Iosb@H@std@@2W4_Fmtflags@12@B		; std::_Iosb<int>::fixed
PUBLIC	?hexfloat@?$_Iosb@H@std@@2W4_Fmtflags@12@B	; std::_Iosb<int>::hexfloat
PUBLIC	?boolalpha@?$_Iosb@H@std@@2W4_Fmtflags@12@B	; std::_Iosb<int>::boolalpha
PUBLIC	?_Stdio@?$_Iosb@H@std@@2W4_Fmtflags@12@B	; std::_Iosb<int>::_Stdio
PUBLIC	?adjustfield@?$_Iosb@H@std@@2W4_Fmtflags@12@B	; std::_Iosb<int>::adjustfield
PUBLIC	?basefield@?$_Iosb@H@std@@2W4_Fmtflags@12@B	; std::_Iosb<int>::basefield
PUBLIC	?floatfield@?$_Iosb@H@std@@2W4_Fmtflags@12@B	; std::_Iosb<int>::floatfield
PUBLIC	?goodbit@?$_Iosb@H@std@@2W4_Iostate@12@B	; std::_Iosb<int>::goodbit
PUBLIC	?eofbit@?$_Iosb@H@std@@2W4_Iostate@12@B		; std::_Iosb<int>::eofbit
PUBLIC	?failbit@?$_Iosb@H@std@@2W4_Iostate@12@B	; std::_Iosb<int>::failbit
PUBLIC	?badbit@?$_Iosb@H@std@@2W4_Iostate@12@B		; std::_Iosb<int>::badbit
PUBLIC	?_Hardfail@?$_Iosb@H@std@@2W4_Iostate@12@B	; std::_Iosb<int>::_Hardfail
PUBLIC	?in@?$_Iosb@H@std@@2W4_Openmode@12@B		; std::_Iosb<int>::in
PUBLIC	?out@?$_Iosb@H@std@@2W4_Openmode@12@B		; std::_Iosb<int>::out
PUBLIC	?ate@?$_Iosb@H@std@@2W4_Openmode@12@B		; std::_Iosb<int>::ate
PUBLIC	?app@?$_Iosb@H@std@@2W4_Openmode@12@B		; std::_Iosb<int>::app
PUBLIC	?trunc@?$_Iosb@H@std@@2W4_Openmode@12@B		; std::_Iosb<int>::trunc
PUBLIC	?_Nocreate@?$_Iosb@H@std@@2W4_Openmode@12@B	; std::_Iosb<int>::_Nocreate
PUBLIC	?_Noreplace@?$_Iosb@H@std@@2W4_Openmode@12@B	; std::_Iosb<int>::_Noreplace
PUBLIC	?binary@?$_Iosb@H@std@@2W4_Openmode@12@B	; std::_Iosb<int>::binary
PUBLIC	?beg@?$_Iosb@H@std@@2W4_Seekdir@12@B		; std::_Iosb<int>::beg
PUBLIC	?cur@?$_Iosb@H@std@@2W4_Seekdir@12@B		; std::_Iosb<int>::cur
PUBLIC	?end@?$_Iosb@H@std@@2W4_Seekdir@12@B		; std::_Iosb<int>::end
;	COMDAT ?end@?$_Iosb@H@std@@2W4_Seekdir@12@B
CONST	SEGMENT
?end@?$_Iosb@H@std@@2W4_Seekdir@12@B DD 02H		; std::_Iosb<int>::end
CONST	ENDS
;	COMDAT ?cur@?$_Iosb@H@std@@2W4_Seekdir@12@B
CONST	SEGMENT
?cur@?$_Iosb@H@std@@2W4_Seekdir@12@B DD 01H		; std::_Iosb<int>::cur
CONST	ENDS
;	COMDAT ?beg@?$_Iosb@H@std@@2W4_Seekdir@12@B
CONST	SEGMENT
?beg@?$_Iosb@H@std@@2W4_Seekdir@12@B DD 00H		; std::_Iosb<int>::beg
CONST	ENDS
;	COMDAT ?binary@?$_Iosb@H@std@@2W4_Openmode@12@B
CONST	SEGMENT
?binary@?$_Iosb@H@std@@2W4_Openmode@12@B DD 020H	; std::_Iosb<int>::binary
CONST	ENDS
;	COMDAT ?_Noreplace@?$_Iosb@H@std@@2W4_Openmode@12@B
CONST	SEGMENT
?_Noreplace@?$_Iosb@H@std@@2W4_Openmode@12@B DD 080H	; std::_Iosb<int>::_Noreplace
CONST	ENDS
;	COMDAT ?_Nocreate@?$_Iosb@H@std@@2W4_Openmode@12@B
CONST	SEGMENT
?_Nocreate@?$_Iosb@H@std@@2W4_Openmode@12@B DD 040H	; std::_Iosb<int>::_Nocreate
CONST	ENDS
;	COMDAT ?trunc@?$_Iosb@H@std@@2W4_Openmode@12@B
CONST	SEGMENT
?trunc@?$_Iosb@H@std@@2W4_Openmode@12@B DD 010H		; std::_Iosb<int>::trunc
CONST	ENDS
;	COMDAT ?app@?$_Iosb@H@std@@2W4_Openmode@12@B
CONST	SEGMENT
?app@?$_Iosb@H@std@@2W4_Openmode@12@B DD 08H		; std::_Iosb<int>::app
CONST	ENDS
;	COMDAT ?ate@?$_Iosb@H@std@@2W4_Openmode@12@B
CONST	SEGMENT
?ate@?$_Iosb@H@std@@2W4_Openmode@12@B DD 04H		; std::_Iosb<int>::ate
CONST	ENDS
;	COMDAT ?out@?$_Iosb@H@std@@2W4_Openmode@12@B
CONST	SEGMENT
?out@?$_Iosb@H@std@@2W4_Openmode@12@B DD 02H		; std::_Iosb<int>::out
CONST	ENDS
;	COMDAT ?in@?$_Iosb@H@std@@2W4_Openmode@12@B
CONST	SEGMENT
?in@?$_Iosb@H@std@@2W4_Openmode@12@B DD 01H		; std::_Iosb<int>::in
CONST	ENDS
;	COMDAT ?_Hardfail@?$_Iosb@H@std@@2W4_Iostate@12@B
CONST	SEGMENT
?_Hardfail@?$_Iosb@H@std@@2W4_Iostate@12@B DD 010H	; std::_Iosb<int>::_Hardfail
CONST	ENDS
;	COMDAT ?badbit@?$_Iosb@H@std@@2W4_Iostate@12@B
CONST	SEGMENT
?badbit@?$_Iosb@H@std@@2W4_Iostate@12@B DD 04H		; std::_Iosb<int>::badbit
CONST	ENDS
;	COMDAT ?failbit@?$_Iosb@H@std@@2W4_Iostate@12@B
CONST	SEGMENT
?failbit@?$_Iosb@H@std@@2W4_Iostate@12@B DD 02H		; std::_Iosb<int>::failbit
CONST	ENDS
;	COMDAT ?eofbit@?$_Iosb@H@std@@2W4_Iostate@12@B
CONST	SEGMENT
?eofbit@?$_Iosb@H@std@@2W4_Iostate@12@B DD 01H		; std::_Iosb<int>::eofbit
CONST	ENDS
;	COMDAT ?goodbit@?$_Iosb@H@std@@2W4_Iostate@12@B
CONST	SEGMENT
?goodbit@?$_Iosb@H@std@@2W4_Iostate@12@B DD 00H		; std::_Iosb<int>::goodbit
CONST	ENDS
;	COMDAT ?floatfield@?$_Iosb@H@std@@2W4_Fmtflags@12@B
CONST	SEGMENT
?floatfield@?$_Iosb@H@std@@2W4_Fmtflags@12@B DD 03000H	; std::_Iosb<int>::floatfield
CONST	ENDS
;	COMDAT ?basefield@?$_Iosb@H@std@@2W4_Fmtflags@12@B
CONST	SEGMENT
?basefield@?$_Iosb@H@std@@2W4_Fmtflags@12@B DD 0e00H	; std::_Iosb<int>::basefield
CONST	ENDS
;	COMDAT ?adjustfield@?$_Iosb@H@std@@2W4_Fmtflags@12@B
CONST	SEGMENT
?adjustfield@?$_Iosb@H@std@@2W4_Fmtflags@12@B DD 01c0H	; std::_Iosb<int>::adjustfield
CONST	ENDS
;	COMDAT ?_Stdio@?$_Iosb@H@std@@2W4_Fmtflags@12@B
CONST	SEGMENT
?_Stdio@?$_Iosb@H@std@@2W4_Fmtflags@12@B DD 08000H	; std::_Iosb<int>::_Stdio
CONST	ENDS
;	COMDAT ?boolalpha@?$_Iosb@H@std@@2W4_Fmtflags@12@B
CONST	SEGMENT
?boolalpha@?$_Iosb@H@std@@2W4_Fmtflags@12@B DD 04000H	; std::_Iosb<int>::boolalpha
CONST	ENDS
;	COMDAT ?hexfloat@?$_Iosb@H@std@@2W4_Fmtflags@12@B
CONST	SEGMENT
?hexfloat@?$_Iosb@H@std@@2W4_Fmtflags@12@B DD 03000H	; std::_Iosb<int>::hexfloat
CONST	ENDS
;	COMDAT ?fixed@?$_Iosb@H@std@@2W4_Fmtflags@12@B
CONST	SEGMENT
?fixed@?$_Iosb@H@std@@2W4_Fmtflags@12@B DD 02000H	; std::_Iosb<int>::fixed
CONST	ENDS
;	COMDAT ?scientific@?$_Iosb@H@std@@2W4_Fmtflags@12@B
CONST	SEGMENT
?scientific@?$_Iosb@H@std@@2W4_Fmtflags@12@B DD 01000H	; std::_Iosb<int>::scientific
CONST	ENDS
;	COMDAT ?hex@?$_Iosb@H@std@@2W4_Fmtflags@12@B
CONST	SEGMENT
?hex@?$_Iosb@H@std@@2W4_Fmtflags@12@B DD 0800H		; std::_Iosb<int>::hex
CONST	ENDS
;	COMDAT ?oct@?$_Iosb@H@std@@2W4_Fmtflags@12@B
CONST	SEGMENT
?oct@?$_Iosb@H@std@@2W4_Fmtflags@12@B DD 0400H		; std::_Iosb<int>::oct
CONST	ENDS
;	COMDAT ?dec@?$_Iosb@H@std@@2W4_Fmtflags@12@B
CONST	SEGMENT
?dec@?$_Iosb@H@std@@2W4_Fmtflags@12@B DD 0200H		; std::_Iosb<int>::dec
CONST	ENDS
;	COMDAT ?internal@?$_Iosb@H@std@@2W4_Fmtflags@12@B
CONST	SEGMENT
?internal@?$_Iosb@H@std@@2W4_Fmtflags@12@B DD 0100H	; std::_Iosb<int>::internal
CONST	ENDS
;	COMDAT ?right@?$_Iosb@H@std@@2W4_Fmtflags@12@B
CONST	SEGMENT
?right@?$_Iosb@H@std@@2W4_Fmtflags@12@B DD 080H		; std::_Iosb<int>::right
CONST	ENDS
;	COMDAT ?left@?$_Iosb@H@std@@2W4_Fmtflags@12@B
CONST	SEGMENT
?left@?$_Iosb@H@std@@2W4_Fmtflags@12@B DD 040H		; std::_Iosb<int>::left
CONST	ENDS
;	COMDAT ?showpos@?$_Iosb@H@std@@2W4_Fmtflags@12@B
CONST	SEGMENT
?showpos@?$_Iosb@H@std@@2W4_Fmtflags@12@B DD 020H	; std::_Iosb<int>::showpos
CONST	ENDS
;	COMDAT ?showpoint@?$_Iosb@H@std@@2W4_Fmtflags@12@B
CONST	SEGMENT
?showpoint@?$_Iosb@H@std@@2W4_Fmtflags@12@B DD 010H	; std::_Iosb<int>::showpoint
CONST	ENDS
;	COMDAT ?showbase@?$_Iosb@H@std@@2W4_Fmtflags@12@B
CONST	SEGMENT
?showbase@?$_Iosb@H@std@@2W4_Fmtflags@12@B DD 08H	; std::_Iosb<int>::showbase
CONST	ENDS
;	COMDAT ?uppercase@?$_Iosb@H@std@@2W4_Fmtflags@12@B
CONST	SEGMENT
?uppercase@?$_Iosb@H@std@@2W4_Fmtflags@12@B DD 04H	; std::_Iosb<int>::uppercase
CONST	ENDS
;	COMDAT ?unitbuf@?$_Iosb@H@std@@2W4_Fmtflags@12@B
CONST	SEGMENT
?unitbuf@?$_Iosb@H@std@@2W4_Fmtflags@12@B DD 02H	; std::_Iosb<int>::unitbuf
CONST	ENDS
;	COMDAT ?skipws@?$_Iosb@H@std@@2W4_Fmtflags@12@B
CONST	SEGMENT
?skipws@?$_Iosb@H@std@@2W4_Fmtflags@12@B DD 01H		; std::_Iosb<int>::skipws
CONST	ENDS
;	COMDAT ?none@?$_Locbase@H@std@@2HB
CONST	SEGMENT
?none@?$_Locbase@H@std@@2HB DD 00H			; std::_Locbase<int>::none
CONST	ENDS
;	COMDAT ?all@?$_Locbase@H@std@@2HB
CONST	SEGMENT
?all@?$_Locbase@H@std@@2HB DD 03fH			; std::_Locbase<int>::all
CONST	ENDS
;	COMDAT ?messages@?$_Locbase@H@std@@2HB
CONST	SEGMENT
?messages@?$_Locbase@H@std@@2HB DD 020H			; std::_Locbase<int>::messages
CONST	ENDS
;	COMDAT ?time@?$_Locbase@H@std@@2HB
CONST	SEGMENT
?time@?$_Locbase@H@std@@2HB DD 010H			; std::_Locbase<int>::time
CONST	ENDS
;	COMDAT ?numeric@?$_Locbase@H@std@@2HB
CONST	SEGMENT
?numeric@?$_Locbase@H@std@@2HB DD 08H			; std::_Locbase<int>::numeric
CONST	ENDS
;	COMDAT ?monetary@?$_Locbase@H@std@@2HB
CONST	SEGMENT
?monetary@?$_Locbase@H@std@@2HB DD 04H			; std::_Locbase<int>::monetary
CONST	ENDS
;	COMDAT ?ctype@?$_Locbase@H@std@@2HB
CONST	SEGMENT
?ctype@?$_Locbase@H@std@@2HB DD 02H			; std::_Locbase<int>::ctype
CONST	ENDS
;	COMDAT ?collate@?$_Locbase@H@std@@2HB
CONST	SEGMENT
?collate@?$_Locbase@H@std@@2HB DD 01H			; std::_Locbase<int>::collate
CONST	ENDS
;	COMDAT ?_Rank@?$_Arithmetic_traits@O@std@@2HB
CONST	SEGMENT
?_Rank@?$_Arithmetic_traits@O@std@@2HB DD 09H		; std::_Arithmetic_traits<long double>::_Rank
CONST	ENDS
;	COMDAT ?_Rank@?$_Arithmetic_traits@N@std@@2HB
CONST	SEGMENT
?_Rank@?$_Arithmetic_traits@N@std@@2HB DD 08H		; std::_Arithmetic_traits<double>::_Rank
CONST	ENDS
;	COMDAT ?_Rank@?$_Arithmetic_traits@M@std@@2HB
CONST	SEGMENT
?_Rank@?$_Arithmetic_traits@M@std@@2HB DD 07H		; std::_Arithmetic_traits<float>::_Rank
CONST	ENDS
;	COMDAT ?_Rank@?$_Arithmetic_traits@_K@std@@2HB
CONST	SEGMENT
?_Rank@?$_Arithmetic_traits@_K@std@@2HB DD 06H		; std::_Arithmetic_traits<unsigned __int64>::_Rank
CONST	ENDS
;	COMDAT ?_Rank@?$_Arithmetic_traits@_J@std@@2HB
CONST	SEGMENT
?_Rank@?$_Arithmetic_traits@_J@std@@2HB DD 06H		; std::_Arithmetic_traits<__int64>::_Rank
CONST	ENDS
;	COMDAT ?_Rank@?$_Arithmetic_traits@K@std@@2HB
CONST	SEGMENT
?_Rank@?$_Arithmetic_traits@K@std@@2HB DD 05H		; std::_Arithmetic_traits<unsigned long>::_Rank
CONST	ENDS
;	COMDAT ?_Rank@?$_Arithmetic_traits@J@std@@2HB
CONST	SEGMENT
?_Rank@?$_Arithmetic_traits@J@std@@2HB DD 05H		; std::_Arithmetic_traits<long>::_Rank
CONST	ENDS
;	COMDAT ?_Rank@?$_Arithmetic_traits@I@std@@2HB
CONST	SEGMENT
?_Rank@?$_Arithmetic_traits@I@std@@2HB DD 04H		; std::_Arithmetic_traits<unsigned int>::_Rank
CONST	ENDS
;	COMDAT ?_Rank@?$_Arithmetic_traits@H@std@@2HB
CONST	SEGMENT
?_Rank@?$_Arithmetic_traits@H@std@@2HB DD 04H		; std::_Arithmetic_traits<int>::_Rank
CONST	ENDS
;	COMDAT ?_Rank@?$_Arithmetic_traits@G@std@@2HB
CONST	SEGMENT
?_Rank@?$_Arithmetic_traits@G@std@@2HB DD 03H		; std::_Arithmetic_traits<unsigned short>::_Rank
CONST	ENDS
;	COMDAT ?_Rank@?$_Arithmetic_traits@F@std@@2HB
CONST	SEGMENT
?_Rank@?$_Arithmetic_traits@F@std@@2HB DD 03H		; std::_Arithmetic_traits<short>::_Rank
CONST	ENDS
;	COMDAT ?_Rank@?$_Arithmetic_traits@E@std@@2HB
CONST	SEGMENT
?_Rank@?$_Arithmetic_traits@E@std@@2HB DD 02H		; std::_Arithmetic_traits<unsigned char>::_Rank
CONST	ENDS
;	COMDAT ?_Rank@?$_Arithmetic_traits@C@std@@2HB
CONST	SEGMENT
?_Rank@?$_Arithmetic_traits@C@std@@2HB DD 02H		; std::_Arithmetic_traits<signed char>::_Rank
CONST	ENDS
;	COMDAT ?_Rank@?$_Arithmetic_traits@D@std@@2HB
CONST	SEGMENT
?_Rank@?$_Arithmetic_traits@D@std@@2HB DD 02H		; std::_Arithmetic_traits<char>::_Rank
CONST	ENDS
;	COMDAT ?_Rank@?$_Arithmetic_traits@_N@std@@2HB
CONST	SEGMENT
?_Rank@?$_Arithmetic_traits@_N@std@@2HB DD 01H		; std::_Arithmetic_traits<bool>::_Rank
CONST	ENDS
;	COMDAT ?value@?$integral_constant@I$0A@@tr1@std@@2IB
CONST	SEGMENT
?value@?$integral_constant@I$0A@@tr1@std@@2IB DD 00H	; std::tr1::integral_constant<unsigned int,0>::value
CONST	ENDS
;	COMDAT ?value@?$integral_constant@_N$00@tr1@std@@2_NB
CONST	SEGMENT
?value@?$integral_constant@_N$00@tr1@std@@2_NB DB 01H	; std::tr1::integral_constant<bool,1>::value
CONST	ENDS
;	COMDAT ?value@?$integral_constant@_N$0A@@tr1@std@@2_NB
CONST	SEGMENT
?value@?$integral_constant@_N$0A@@tr1@std@@2_NB DB 00H	; std::tr1::integral_constant<bool,0>::value
CONST	ENDS
PUBLIC	??2@YAPAXI@Z					; operator new
EXTRN	__RTC_Shutdown:PROC
EXTRN	__RTC_InitBase:PROC
;	COMDAT rtc$TMZ
; File d:\mozilla\intl\icu\include\unicode\utypes.h
rtc$TMZ	SEGMENT
__RTC_Shutdown.rtc$TMZ DD FLAT:__RTC_Shutdown
rtc$TMZ	ENDS
;	COMDAT rtc$IMZ
rtc$IMZ	SEGMENT
__RTC_InitBase.rtc$IMZ DD FLAT:__RTC_InitBase
; Function compile flags: /Odtp /RTCsu /ZI
rtc$IMZ	ENDS
;	COMDAT ??2@YAPAXI@Z
_TEXT	SEGMENT
_q$ = -8						; size = 4
___formal$ = 8						; size = 4
??2@YAPAXI@Z PROC					; operator new, COMDAT
; Line 411
	push	ebp
	mov	ebp, esp
	sub	esp, 204				; 000000ccH
	push	ebx
	push	esi
	push	edi
	lea	edi, DWORD PTR [ebp-204]
	mov	ecx, 51					; 00000033H
	mov	eax, -858993460				; ccccccccH
	rep stosd
; Line 412
	mov	DWORD PTR _q$[ebp], 0
; Line 413
	mov	eax, DWORD PTR _q$[ebp]
	mov	BYTE PTR [eax], 5
; Line 414
	mov	eax, DWORD PTR _q$[ebp]
; Line 415
	pop	edi
	pop	esi
	pop	ebx
	mov	esp, ebp
	pop	ebp
	ret	0
??2@YAPAXI@Z ENDP					; operator new
_TEXT	ENDS
PUBLIC	??3@YAXPAX@Z					; operator delete
; Function compile flags: /Odtp /RTCsu /ZI
;	COMDAT ??3@YAXPAX@Z
_TEXT	SEGMENT
_q$ = -8						; size = 4
___formal$ = 8						; size = 4
??3@YAXPAX@Z PROC					; operator delete, COMDAT
; Line 439
	push	ebp
	mov	ebp, esp
	sub	esp, 204				; 000000ccH
	push	ebx
	push	esi
	push	edi
	lea	edi, DWORD PTR [ebp-204]
	mov	ecx, 51					; 00000033H
	mov	eax, -858993460				; ccccccccH
	rep stosd
; Line 440
	mov	DWORD PTR _q$[ebp], 0
; Line 441
	mov	eax, DWORD PTR _q$[ebp]
	mov	BYTE PTR [eax], 5
; Line 442
	pop	edi
	pop	esi
	pop	ebx
	mov	esp, ebp
	pop	ebp
	ret	0
??3@YAXPAX@Z ENDP					; operator delete
_TEXT	ENDS
PUBLIC	??0SPUString@icu_56@@QAE@PAVUnicodeString@1@@Z	; icu_56::SPUString::SPUString
; Function compile flags: /Odtp /RTCsu /ZI
;	COMDAT ??0SPUString@icu_56@@QAE@PAVUnicodeString@1@@Z
_TEXT	SEGMENT
_this$ = -8						; size = 4
_s$ = 8							; size = 4
??0SPUString@icu_56@@QAE@PAVUnicodeString@1@@Z PROC	; icu_56::SPUString::SPUString, COMDAT
; _this$ = ecx
; File d:\mozilla\intl\icu\source\i18n\uspoof_conf.cpp
; Line 62
	push	ebp
	mov	ebp, esp
	sub	esp, 204				; 000000ccH
	push	ebx
	push	esi
	push	edi
	push	ecx
	lea	edi, DWORD PTR [ebp-204]
	mov	ecx, 51					; 00000033H
	mov	eax, -858993460				; ccccccccH
	rep stosd
	pop	ecx
	mov	DWORD PTR _this$[ebp], ecx
; Line 63
	mov	eax, DWORD PTR _this$[ebp]
	mov	ecx, DWORD PTR _s$[ebp]
	mov	DWORD PTR [eax], ecx
; Line 64
	mov	eax, DWORD PTR _this$[ebp]
	mov	DWORD PTR [eax+4], 0
; Line 65
	mov	eax, DWORD PTR _this$[ebp]
	pop	edi
	pop	esi
	pop	ebx
	mov	esp, ebp
	pop	ebp
	ret	4
??0SPUString@icu_56@@QAE@PAVUnicodeString@1@@Z ENDP	; icu_56::SPUString::SPUString
_TEXT	ENDS
PUBLIC	??1SPUString@icu_56@@QAE@XZ			; icu_56::SPUString::~SPUString
EXTRN	__RTC_CheckEsp:PROC
; Function compile flags: /Odtp /RTCsu /ZI
;	COMDAT ??1SPUString@icu_56@@QAE@XZ
_TEXT	SEGMENT
tv74 = -232						; size = 4
$T79079 = -224						; size = 4
$T79080 = -212						; size = 4
_this$ = -8						; size = 4
??1SPUString@icu_56@@QAE@XZ PROC			; icu_56::SPUString::~SPUString, COMDAT
; _this$ = ecx
; Line 68
	push	ebp
	mov	ebp, esp
	sub	esp, 232				; 000000e8H
	push	ebx
	push	esi
	push	edi
	push	ecx
	lea	edi, DWORD PTR [ebp-232]
	mov	ecx, 58					; 0000003aH
	mov	eax, -858993460				; ccccccccH
	rep stosd
	pop	ecx
	mov	DWORD PTR _this$[ebp], ecx
; Line 69
	mov	eax, DWORD PTR _this$[ebp]
	mov	ecx, DWORD PTR [eax]
	mov	DWORD PTR $T79080[ebp], ecx
	mov	edx, DWORD PTR $T79080[ebp]
	mov	DWORD PTR $T79079[ebp], edx
	cmp	DWORD PTR $T79079[ebp], 0
	je	SHORT $LN3@SPUString
	mov	esi, esp
	push	1
	mov	eax, DWORD PTR $T79079[ebp]
	mov	edx, DWORD PTR [eax]
	mov	ecx, DWORD PTR $T79079[ebp]
	mov	eax, DWORD PTR [edx]
	call	eax
	cmp	esi, esp
	call	__RTC_CheckEsp
	mov	DWORD PTR tv74[ebp], eax
	jmp	SHORT $LN1@SPUString
$LN3@SPUString:
	mov	DWORD PTR tv74[ebp], 0
$LN1@SPUString:
; Line 70
	pop	edi
	pop	esi
	pop	ebx
	add	esp, 232				; 000000e8H
	cmp	ebp, esp
	call	__RTC_CheckEsp
	mov	esp, ebp
	pop	ebp
	ret	0
??1SPUString@icu_56@@QAE@XZ ENDP			; icu_56::SPUString::~SPUString
_TEXT	ENDS
PUBLIC	??_SUVector@icu_56@@6B@				; icu_56::UVector::`local vftable'
PUBLIC	??0SPUStringPool@icu_56@@QAE@AAW4UErrorCode@@@Z	; icu_56::SPUStringPool::SPUStringPool
PUBLIC	??_R4UVector@icu_56@@6B@			; icu_56::UVector::`RTTI Complete Object Locator'
PUBLIC	??_R0?AVUVector@icu_56@@@8			; icu_56::UVector `RTTI Type Descriptor'
PUBLIC	??_R3UVector@icu_56@@8				; icu_56::UVector::`RTTI Class Hierarchy Descriptor'
PUBLIC	??_R2UVector@icu_56@@8				; icu_56::UVector::`RTTI Base Class Array'
PUBLIC	??_R1A@?0A@EA@UVector@icu_56@@8			; icu_56::UVector::`RTTI Base Class Descriptor at (0,-1,0,64)'
PUBLIC	??_R1A@?0A@EA@UObject@icu_56@@8			; icu_56::UObject::`RTTI Base Class Descriptor at (0,-1,0,64)'
PUBLIC	??_R0?AVUObject@icu_56@@@8			; icu_56::UObject `RTTI Type Descriptor'
PUBLIC	??_R3UObject@icu_56@@8				; icu_56::UObject::`RTTI Class Hierarchy Descriptor'
PUBLIC	??_R2UObject@icu_56@@8				; icu_56::UObject::`RTTI Base Class Array'
PUBLIC	??_R13?0A@EA@UMemory@icu_56@@8			; icu_56::UMemory::`RTTI Base Class Descriptor at (4,-1,0,64)'
PUBLIC	??_R0?AVUMemory@icu_56@@@8			; icu_56::UMemory `RTTI Type Descriptor'
PUBLIC	??_R3UMemory@icu_56@@8				; icu_56::UMemory::`RTTI Class Hierarchy Descriptor'
PUBLIC	??_R2UMemory@icu_56@@8				; icu_56::UMemory::`RTTI Base Class Array'
PUBLIC	??_R1A@?0A@EA@UMemory@icu_56@@8			; icu_56::UMemory::`RTTI Base Class Descriptor at (0,-1,0,64)'
EXTRN	__imp_??3UMemory@icu_56@@SAXPAX@Z:PROC
EXTRN	_uhash_open_56:PROC
EXTRN	_uhash_hashUnicodeString_56:PROC
EXTRN	_uhash_compareUnicodeString_56:PROC
EXTRN	__imp_??0UVector@icu_56@@QAE@AAW4UErrorCode@@@Z:PROC
EXTRN	__imp_??2UMemory@icu_56@@SAPAXI@Z:PROC
EXTRN	___security_cookie:DWORD
EXTRN	___CxxFrameHandler3:PROC
EXTRN	@__security_check_cookie@4:PROC
EXTRN	??_7type_info@@6B@:QWORD			; type_info::`vftable'
EXTRN	??_EUVector@icu_56@@UAEPAXI@Z:PROC		; icu_56::UVector::`vector deleting destructor'
EXTRN	?getDynamicClassID@UVector@icu_56@@UBEPAXXZ:PROC ; icu_56::UVector::getDynamicClassID
;	COMDAT ??_R1A@?0A@EA@UMemory@icu_56@@8
rdata$r	SEGMENT
??_R1A@?0A@EA@UMemory@icu_56@@8 DD FLAT:??_R0?AVUMemory@icu_56@@@8 ; icu_56::UMemory::`RTTI Base Class Descriptor at (0,-1,0,64)'
	DD	00H
	DD	00H
	DD	0ffffffffH
	DD	00H
	DD	040H
	DD	FLAT:??_R3UMemory@icu_56@@8
rdata$r	ENDS
;	COMDAT ??_R2UMemory@icu_56@@8
rdata$r	SEGMENT
??_R2UMemory@icu_56@@8 DD FLAT:??_R1A@?0A@EA@UMemory@icu_56@@8 ; icu_56::UMemory::`RTTI Base Class Array'
rdata$r	ENDS
;	COMDAT ??_R3UMemory@icu_56@@8
rdata$r	SEGMENT
??_R3UMemory@icu_56@@8 DD 00H				; icu_56::UMemory::`RTTI Class Hierarchy Descriptor'
	DD	00H
	DD	01H
	DD	FLAT:??_R2UMemory@icu_56@@8
rdata$r	ENDS
;	COMDAT ??_R0?AVUMemory@icu_56@@@8
_DATA	SEGMENT
??_R0?AVUMemory@icu_56@@@8 DD FLAT:??_7type_info@@6B@	; icu_56::UMemory `RTTI Type Descriptor'
	DD	00H
	DB	'.?AVUMemory@icu_56@@', 00H
_DATA	ENDS
;	COMDAT ??_R13?0A@EA@UMemory@icu_56@@8
rdata$r	SEGMENT
??_R13?0A@EA@UMemory@icu_56@@8 DD FLAT:??_R0?AVUMemory@icu_56@@@8 ; icu_56::UMemory::`RTTI Base Class Descriptor at (4,-1,0,64)'
	DD	00H
	DD	04H
	DD	0ffffffffH
	DD	00H
	DD	040H
	DD	FLAT:??_R3UMemory@icu_56@@8
rdata$r	ENDS
;	COMDAT ??_R2UObject@icu_56@@8
rdata$r	SEGMENT
??_R2UObject@icu_56@@8 DD FLAT:??_R1A@?0A@EA@UObject@icu_56@@8 ; icu_56::UObject::`RTTI Base Class Array'
	DD	FLAT:??_R13?0A@EA@UMemory@icu_56@@8
rdata$r	ENDS
;	COMDAT ??_R3UObject@icu_56@@8
rdata$r	SEGMENT
??_R3UObject@icu_56@@8 DD 00H				; icu_56::UObject::`RTTI Class Hierarchy Descriptor'
	DD	00H
	DD	02H
	DD	FLAT:??_R2UObject@icu_56@@8
rdata$r	ENDS
;	COMDAT ??_R0?AVUObject@icu_56@@@8
_DATA	SEGMENT
??_R0?AVUObject@icu_56@@@8 DD FLAT:??_7type_info@@6B@	; icu_56::UObject `RTTI Type Descriptor'
	DD	00H
	DB	'.?AVUObject@icu_56@@', 00H
_DATA	ENDS
;	COMDAT ??_R1A@?0A@EA@UObject@icu_56@@8
rdata$r	SEGMENT
??_R1A@?0A@EA@UObject@icu_56@@8 DD FLAT:??_R0?AVUObject@icu_56@@@8 ; icu_56::UObject::`RTTI Base Class Descriptor at (0,-1,0,64)'
	DD	01H
	DD	00H
	DD	0ffffffffH
	DD	00H
	DD	040H
	DD	FLAT:??_R3UObject@icu_56@@8
rdata$r	ENDS
;	COMDAT ??_R1A@?0A@EA@UVector@icu_56@@8
rdata$r	SEGMENT
??_R1A@?0A@EA@UVector@icu_56@@8 DD FLAT:??_R0?AVUVector@icu_56@@@8 ; icu_56::UVector::`RTTI Base Class Descriptor at (0,-1,0,64)'
	DD	02H
	DD	00H
	DD	0ffffffffH
	DD	00H
	DD	040H
	DD	FLAT:??_R3UVector@icu_56@@8
rdata$r	ENDS
;	COMDAT ??_R2UVector@icu_56@@8
rdata$r	SEGMENT
??_R2UVector@icu_56@@8 DD FLAT:??_R1A@?0A@EA@UVector@icu_56@@8 ; icu_56::UVector::`RTTI Base Class Array'
	DD	FLAT:??_R1A@?0A@EA@UObject@icu_56@@8
	DD	FLAT:??_R13?0A@EA@UMemory@icu_56@@8
rdata$r	ENDS
;	COMDAT ??_R3UVector@icu_56@@8
rdata$r	SEGMENT
??_R3UVector@icu_56@@8 DD 00H				; icu_56::UVector::`RTTI Class Hierarchy Descriptor'
	DD	00H
	DD	03H
	DD	FLAT:??_R2UVector@icu_56@@8
rdata$r	ENDS
;	COMDAT ??_R0?AVUVector@icu_56@@@8
_DATA	SEGMENT
??_R0?AVUVector@icu_56@@@8 DD FLAT:??_7type_info@@6B@	; icu_56::UVector `RTTI Type Descriptor'
	DD	00H
	DB	'.?AVUVector@icu_56@@', 00H
_DATA	ENDS
;	COMDAT ??_R4UVector@icu_56@@6B@
rdata$r	SEGMENT
??_R4UVector@icu_56@@6B@ DD 00H				; icu_56::UVector::`RTTI Complete Object Locator'
	DD	00H
	DD	00H
	DD	FLAT:??_R0?AVUVector@icu_56@@@8
	DD	FLAT:??_R3UVector@icu_56@@8
rdata$r	ENDS
;	COMDAT ??_SUVector@icu_56@@6B@
CONST	SEGMENT
??_SUVector@icu_56@@6B@ DD FLAT:??_R4UVector@icu_56@@6B@ ; icu_56::UVector::`local vftable'
	DD	FLAT:??_EUVector@icu_56@@UAEPAXI@Z
	DD	FLAT:?getDynamicClassID@UVector@icu_56@@UBEPAXXZ
CONST	ENDS
;	COMDAT xdata$x
xdata$x	SEGMENT
__unwindtable$??0SPUStringPool@icu_56@@QAE@AAW4UErrorCode@@@Z DD 0ffffffffH
	DD	FLAT:__unwindfunclet$??0SPUStringPool@icu_56@@QAE@AAW4UErrorCode@@@Z$0
__ehfuncinfo$??0SPUStringPool@icu_56@@QAE@AAW4UErrorCode@@@Z DD 019930522H
	DD	01H
	DD	FLAT:__unwindtable$??0SPUStringPool@icu_56@@QAE@AAW4UErrorCode@@@Z
	DD	2 DUP(00H)
	DD	2 DUP(00H)
	DD	00H
	DD	01H
; Function compile flags: /Odtp /RTCsu /ZI
xdata$x	ENDS
;	COMDAT ??0SPUStringPool@icu_56@@QAE@AAW4UErrorCode@@@Z
_TEXT	SEGMENT
tv71 = -244						; size = 4
$T79086 = -236						; size = 4
$T79087 = -224						; size = 4
_this$ = -20						; size = 4
__$EHRec$ = -12						; size = 12
_status$ = 8						; size = 4
??0SPUStringPool@icu_56@@QAE@AAW4UErrorCode@@@Z PROC	; icu_56::SPUStringPool::SPUStringPool, COMDAT
; _this$ = ecx
; Line 73
	push	ebp
	mov	ebp, esp
	push	-1
	push	__ehhandler$??0SPUStringPool@icu_56@@QAE@AAW4UErrorCode@@@Z
	mov	eax, DWORD PTR fs:0
	push	eax
	sub	esp, 232				; 000000e8H
	push	ebx
	push	esi
	push	edi
	push	ecx
	lea	edi, DWORD PTR [ebp-244]
	mov	ecx, 58					; 0000003aH
	mov	eax, -858993460				; ccccccccH
	rep stosd
	pop	ecx
	mov	eax, DWORD PTR ___security_cookie
	xor	eax, ebp
	push	eax
	lea	eax, DWORD PTR __$EHRec$[ebp]
	mov	DWORD PTR fs:0, eax
	mov	DWORD PTR _this$[ebp], ecx
	mov	eax, DWORD PTR _this$[ebp]
	mov	DWORD PTR [eax], 0
	mov	eax, DWORD PTR _this$[ebp]
	mov	DWORD PTR [eax+4], 0
; Line 74
	mov	esi, esp
	push	24					; 00000018H
	call	DWORD PTR __imp_??2UMemory@icu_56@@SAPAXI@Z
	add	esp, 4
	cmp	esi, esp
	call	__RTC_CheckEsp
	mov	DWORD PTR $T79087[ebp], eax
	mov	DWORD PTR __$EHRec$[ebp+8], 0
	cmp	DWORD PTR $T79087[ebp], 0
	je	SHORT $LN3@SPUStringP
	mov	esi, esp
	mov	eax, DWORD PTR _status$[ebp]
	push	eax
	mov	ecx, DWORD PTR $T79087[ebp]
	call	DWORD PTR __imp_??0UVector@icu_56@@QAE@AAW4UErrorCode@@@Z
	cmp	esi, esp
	call	__RTC_CheckEsp
	mov	ecx, DWORD PTR $T79087[ebp]
	mov	DWORD PTR [ecx], OFFSET ??_SUVector@icu_56@@6B@
	mov	edx, DWORD PTR $T79087[ebp]
	mov	DWORD PTR tv71[ebp], edx
	jmp	SHORT $LN4@SPUStringP
$LN3@SPUStringP:
	mov	DWORD PTR tv71[ebp], 0
$LN4@SPUStringP:
	mov	eax, DWORD PTR tv71[ebp]
	mov	DWORD PTR $T79086[ebp], eax
	mov	DWORD PTR __$EHRec$[ebp+8], -1
	mov	ecx, DWORD PTR _this$[ebp]
	mov	edx, DWORD PTR $T79086[ebp]
	mov	DWORD PTR [ecx], edx
; Line 78
	mov	eax, DWORD PTR _status$[ebp]
	push	eax
	push	0
	push	OFFSET _uhash_compareUnicodeString_56
	push	OFFSET _uhash_hashUnicodeString_56
	call	_uhash_open_56
	add	esp, 16					; 00000010H
	mov	ecx, DWORD PTR _this$[ebp]
	mov	DWORD PTR [ecx+4], eax
; Line 79
	mov	eax, DWORD PTR _this$[ebp]
	mov	ecx, DWORD PTR __$EHRec$[ebp]
	mov	DWORD PTR fs:0, ecx
	pop	ecx
	pop	edi
	pop	esi
	pop	ebx
	add	esp, 244				; 000000f4H
	cmp	ebp, esp
	call	__RTC_CheckEsp
	mov	esp, ebp
	pop	ebp
	ret	4
_TEXT	ENDS
;	COMDAT text$x
text$x	SEGMENT
__unwindfunclet$??0SPUStringPool@icu_56@@QAE@AAW4UErrorCode@@@Z$0:
	mov	esi, esp
	mov	eax, DWORD PTR $T79087[ebp]
	push	eax
	call	DWORD PTR __imp_??3UMemory@icu_56@@SAXPAX@Z
	add	esp, 4
	cmp	esi, esp
	jmp	__RTC_CheckEsp
__ehhandler$??0SPUStringPool@icu_56@@QAE@AAW4UErrorCode@@@Z:
	mov	edx, DWORD PTR [esp+8]
	lea	eax, DWORD PTR [edx+12]
	mov	ecx, DWORD PTR [edx-248]
	xor	ecx, eax
	call	@__security_check_cookie@4
	mov	eax, OFFSET __ehfuncinfo$??0SPUStringPool@icu_56@@QAE@AAW4UErrorCode@@@Z
	jmp	___CxxFrameHandler3
text$x	ENDS
??0SPUStringPool@icu_56@@QAE@AAW4UErrorCode@@@Z ENDP	; icu_56::SPUStringPool::SPUStringPool
EXTRN	__imp_??1UVector@icu_56@@UAE@XZ:PROC
; Function compile flags: /Odtp /RTCsu /ZI
;	COMDAT ??_GUVector@icu_56@@UAEPAXI@Z
_TEXT	SEGMENT
_this$ = -8						; size = 4
___flags$ = 8						; size = 4
??_GUVector@icu_56@@UAEPAXI@Z PROC			; icu_56::UVector::`scalar deleting destructor', COMDAT
; _this$ = ecx
	push	ebp
	mov	ebp, esp
	sub	esp, 204				; 000000ccH
	push	ebx
	push	esi
	push	edi
	push	ecx
	lea	edi, DWORD PTR [ebp-204]
	mov	ecx, 51					; 00000033H
	mov	eax, -858993460				; ccccccccH
	rep stosd
	pop	ecx
	mov	DWORD PTR _this$[ebp], ecx
	mov	esi, esp
	mov	ecx, DWORD PTR _this$[ebp]
	call	DWORD PTR __imp_??1UVector@icu_56@@UAE@XZ
	cmp	esi, esp
	call	__RTC_CheckEsp
	mov	eax, DWORD PTR ___flags$[ebp]
	and	eax, 1
	je	SHORT $LN1@scalar
	mov	esi, esp
	mov	eax, DWORD PTR _this$[ebp]
	push	eax
	call	DWORD PTR __imp_??3UMemory@icu_56@@SAXPAX@Z
	add	esp, 4
	cmp	esi, esp
	call	__RTC_CheckEsp
$LN1@scalar:
	mov	eax, DWORD PTR _this$[ebp]
	pop	edi
	pop	esi
	pop	ebx
	add	esp, 204				; 000000ccH
	cmp	ebp, esp
	call	__RTC_CheckEsp
	mov	esp, ebp
	pop	ebp
	ret	4
??_GUVector@icu_56@@UAEPAXI@Z ENDP			; icu_56::UVector::`scalar deleting destructor'
_TEXT	ENDS
PUBLIC	??_GSPUString@icu_56@@QAEPAXI@Z			; icu_56::SPUString::`scalar deleting destructor'
PUBLIC	??1SPUStringPool@icu_56@@QAE@XZ			; icu_56::SPUStringPool::~SPUStringPool
EXTRN	_uhash_close_56:PROC
EXTRN	__imp_?elementAt@UVector@icu_56@@QBEPAXH@Z:PROC
EXTRN	__imp_?size@UVector@icu_56@@QBEHXZ:PROC
; Function compile flags: /Odtp /RTCsu /ZI
;	COMDAT ??1SPUStringPool@icu_56@@QAE@XZ
_TEXT	SEGMENT
tv87 = -280						; size = 4
tv76 = -280						; size = 4
$T79106 = -272						; size = 4
$T79107 = -260						; size = 4
$T79110 = -248						; size = 4
$T79111 = -236						; size = 4
_s$71911 = -32						; size = 4
_i$ = -20						; size = 4
_this$ = -8						; size = 4
??1SPUStringPool@icu_56@@QAE@XZ PROC			; icu_56::SPUStringPool::~SPUStringPool, COMDAT
; _this$ = ecx
; Line 82
	push	ebp
	mov	ebp, esp
	sub	esp, 280				; 00000118H
	push	ebx
	push	esi
	push	edi
	push	ecx
	lea	edi, DWORD PTR [ebp-280]
	mov	ecx, 70					; 00000046H
	mov	eax, -858993460				; ccccccccH
	rep stosd
	pop	ecx
	mov	DWORD PTR _this$[ebp], ecx
; Line 84
	mov	esi, esp
	mov	eax, DWORD PTR _this$[ebp]
	mov	ecx, DWORD PTR [eax]
	call	DWORD PTR __imp_?size@UVector@icu_56@@QBEHXZ
	cmp	esi, esp
	call	__RTC_CheckEsp
	sub	eax, 1
	mov	DWORD PTR _i$[ebp], eax
	jmp	SHORT $LN3@SPUStringP@2
$LN2@SPUStringP@2:
	mov	eax, DWORD PTR _i$[ebp]
	sub	eax, 1
	mov	DWORD PTR _i$[ebp], eax
$LN3@SPUStringP@2:
	cmp	DWORD PTR _i$[ebp], 0
	jl	SHORT $LN1@SPUStringP@2
; Line 85
	mov	esi, esp
	mov	eax, DWORD PTR _i$[ebp]
	push	eax
	mov	ecx, DWORD PTR _this$[ebp]
	mov	ecx, DWORD PTR [ecx]
	call	DWORD PTR __imp_?elementAt@UVector@icu_56@@QBEPAXH@Z
	cmp	esi, esp
	call	__RTC_CheckEsp
	mov	DWORD PTR _s$71911[ebp], eax
; Line 86
	mov	eax, DWORD PTR _s$71911[ebp]
	mov	DWORD PTR $T79107[ebp], eax
	mov	ecx, DWORD PTR $T79107[ebp]
	mov	DWORD PTR $T79106[ebp], ecx
	cmp	DWORD PTR $T79106[ebp], 0
	je	SHORT $LN6@SPUStringP@2
	push	1
	mov	ecx, DWORD PTR $T79106[ebp]
	call	??_GSPUString@icu_56@@QAEPAXI@Z
	mov	DWORD PTR tv76[ebp], eax
	jmp	SHORT $LN7@SPUStringP@2
$LN6@SPUStringP@2:
	mov	DWORD PTR tv76[ebp], 0
$LN7@SPUStringP@2:
; Line 87
	jmp	SHORT $LN2@SPUStringP@2
$LN1@SPUStringP@2:
; Line 88
	mov	eax, DWORD PTR _this$[ebp]
	mov	ecx, DWORD PTR [eax]
	mov	DWORD PTR $T79111[ebp], ecx
	mov	edx, DWORD PTR $T79111[ebp]
	mov	DWORD PTR $T79110[ebp], edx
	cmp	DWORD PTR $T79110[ebp], 0
	je	SHORT $LN8@SPUStringP@2
	mov	esi, esp
	push	1
	mov	eax, DWORD PTR $T79110[ebp]
	mov	edx, DWORD PTR [eax]
	mov	ecx, DWORD PTR $T79110[ebp]
	mov	eax, DWORD PTR [edx]
	call	eax
	cmp	esi, esp
	call	__RTC_CheckEsp
	mov	DWORD PTR tv87[ebp], eax
	jmp	SHORT $LN9@SPUStringP@2
$LN8@SPUStringP@2:
	mov	DWORD PTR tv87[ebp], 0
$LN9@SPUStringP@2:
; Line 89
	mov	eax, DWORD PTR _this$[ebp]
	mov	ecx, DWORD PTR [eax+4]
	push	ecx
	call	_uhash_close_56
	add	esp, 4
; Line 90
	pop	edi
	pop	esi
	pop	ebx
	add	esp, 280				; 00000118H
	cmp	ebp, esp
	call	__RTC_CheckEsp
	mov	esp, ebp
	pop	ebp
	ret	0
??1SPUStringPool@icu_56@@QAE@XZ ENDP			; icu_56::SPUStringPool::~SPUStringPool
; Function compile flags: /Odtp /RTCsu /ZI
_TEXT	ENDS
;	COMDAT ??_GSPUString@icu_56@@QAEPAXI@Z
_TEXT	SEGMENT
_this$ = -8						; size = 4
___flags$ = 8						; size = 4
??_GSPUString@icu_56@@QAEPAXI@Z PROC			; icu_56::SPUString::`scalar deleting destructor', COMDAT
; _this$ = ecx
	push	ebp
	mov	ebp, esp
	sub	esp, 204				; 000000ccH
	push	ebx
	push	esi
	push	edi
	push	ecx
	lea	edi, DWORD PTR [ebp-204]
	mov	ecx, 51					; 00000033H
	mov	eax, -858993460				; ccccccccH
	rep stosd
	pop	ecx
	mov	DWORD PTR _this$[ebp], ecx
	mov	ecx, DWORD PTR _this$[ebp]
	call	??1SPUString@icu_56@@QAE@XZ		; icu_56::SPUString::~SPUString
	mov	eax, DWORD PTR ___flags$[ebp]
	and	eax, 1
	je	SHORT $LN1@scalar@2
	mov	esi, esp
	mov	eax, DWORD PTR _this$[ebp]
	push	eax
	call	DWORD PTR __imp_??3UMemory@icu_56@@SAXPAX@Z
	add	esp, 4
	cmp	esi, esp
	call	__RTC_CheckEsp
$LN1@scalar@2:
	mov	eax, DWORD PTR _this$[ebp]
	pop	edi
	pop	esi
	pop	ebx
	add	esp, 204				; 000000ccH
	cmp	ebp, esp
	call	__RTC_CheckEsp
	mov	esp, ebp
	pop	ebp
	ret	4
??_GSPUString@icu_56@@QAEPAXI@Z ENDP			; icu_56::SPUString::`scalar deleting destructor'
_TEXT	ENDS
PUBLIC	?size@SPUStringPool@icu_56@@QAEHXZ		; icu_56::SPUStringPool::size
; Function compile flags: /Odtp /RTCsu /ZI
;	COMDAT ?size@SPUStringPool@icu_56@@QAEHXZ
_TEXT	SEGMENT
_this$ = -8						; size = 4
?size@SPUStringPool@icu_56@@QAEHXZ PROC			; icu_56::SPUStringPool::size, COMDAT
; _this$ = ecx
; Line 93
	push	ebp
	mov	ebp, esp
	sub	esp, 204				; 000000ccH
	push	ebx
	push	esi
	push	edi
	push	ecx
	lea	edi, DWORD PTR [ebp-204]
	mov	ecx, 51					; 00000033H
	mov	eax, -858993460				; ccccccccH
	rep stosd
	pop	ecx
	mov	DWORD PTR _this$[ebp], ecx
; Line 94
	mov	esi, esp
	mov	eax, DWORD PTR _this$[ebp]
	mov	ecx, DWORD PTR [eax]
	call	DWORD PTR __imp_?size@UVector@icu_56@@QBEHXZ
	cmp	esi, esp
	call	__RTC_CheckEsp
; Line 95
	pop	edi
	pop	esi
	pop	ebx
	add	esp, 204				; 000000ccH
	cmp	ebp, esp
	call	__RTC_CheckEsp
	mov	esp, ebp
	pop	ebp
	ret	0
?size@SPUStringPool@icu_56@@QAEHXZ ENDP			; icu_56::SPUStringPool::size
_TEXT	ENDS
PUBLIC	?getByIndex@SPUStringPool@icu_56@@QAEPAUSPUString@2@H@Z ; icu_56::SPUStringPool::getByIndex
; Function compile flags: /Odtp /RTCsu /ZI
;	COMDAT ?getByIndex@SPUStringPool@icu_56@@QAEPAUSPUString@2@H@Z
_TEXT	SEGMENT
_retString$ = -20					; size = 4
_this$ = -8						; size = 4
_index$ = 8						; size = 4
?getByIndex@SPUStringPool@icu_56@@QAEPAUSPUString@2@H@Z PROC ; icu_56::SPUStringPool::getByIndex, COMDAT
; _this$ = ecx
; Line 97
	push	ebp
	mov	ebp, esp
	sub	esp, 216				; 000000d8H
	push	ebx
	push	esi
	push	edi
	push	ecx
	lea	edi, DWORD PTR [ebp-216]
	mov	ecx, 54					; 00000036H
	mov	eax, -858993460				; ccccccccH
	rep stosd
	pop	ecx
	mov	DWORD PTR _this$[ebp], ecx
; Line 98
	mov	esi, esp
	mov	eax, DWORD PTR _index$[ebp]
	push	eax
	mov	ecx, DWORD PTR _this$[ebp]
	mov	ecx, DWORD PTR [ecx]
	call	DWORD PTR __imp_?elementAt@UVector@icu_56@@QBEPAXH@Z
	cmp	esi, esp
	call	__RTC_CheckEsp
	mov	DWORD PTR _retString$[ebp], eax
; Line 99
	mov	eax, DWORD PTR _retString$[ebp]
; Line 100
	pop	edi
	pop	esi
	pop	ebx
	add	esp, 216				; 000000d8H
	cmp	ebp, esp
	call	__RTC_CheckEsp
	mov	esp, ebp
	pop	ebp
	ret	4
?getByIndex@SPUStringPool@icu_56@@QAEPAUSPUString@2@H@Z ENDP ; icu_56::SPUStringPool::getByIndex
_TEXT	ENDS
PUBLIC	?sort@SPUStringPool@icu_56@@QAEXAAW4UErrorCode@@@Z ; icu_56::SPUStringPool::sort
EXTRN	__imp_?sort@UVector@icu_56@@QAEXP6ACTUElement@@0@ZAAW4UErrorCode@@@Z:PROC
; Function compile flags: /Odtp /RTCsu /ZI
;	COMDAT ?sort@SPUStringPool@icu_56@@QAEXAAW4UErrorCode@@@Z
_TEXT	SEGMENT
_this$ = -8						; size = 4
_status$ = 8						; size = 4
?sort@SPUStringPool@icu_56@@QAEXAAW4UErrorCode@@@Z PROC	; icu_56::SPUStringPool::sort, COMDAT
; _this$ = ecx
; Line 124
	push	ebp
	mov	ebp, esp
	sub	esp, 204				; 000000ccH
	push	ebx
	push	esi
	push	edi
	push	ecx
	lea	edi, DWORD PTR [ebp-204]
	mov	ecx, 51					; 00000033H
	mov	eax, -858993460				; ccccccccH
	rep stosd
	pop	ecx
	mov	DWORD PTR _this$[ebp], ecx
; Line 125
	mov	esi, esp
	mov	eax, DWORD PTR _status$[ebp]
	push	eax
	push	OFFSET ?SPUStringCompare@@YACTUElement@@0@Z ; SPUStringCompare
	mov	ecx, DWORD PTR _this$[ebp]
	mov	ecx, DWORD PTR [ecx]
	call	DWORD PTR __imp_?sort@UVector@icu_56@@QAEXP6ACTUElement@@0@ZAAW4UErrorCode@@@Z
	cmp	esi, esp
	call	__RTC_CheckEsp
; Line 126
	pop	edi
	pop	esi
	pop	ebx
	add	esp, 204				; 000000ccH
	cmp	ebp, esp
	call	__RTC_CheckEsp
	mov	esp, ebp
	pop	ebp
	ret	4
?sort@SPUStringPool@icu_56@@QAEXAAW4UErrorCode@@@Z ENDP	; icu_56::SPUStringPool::sort
_TEXT	ENDS
EXTRN	__imp_?compare@UnicodeString@icu_56@@QBECABV12@@Z:PROC
EXTRN	__imp_?length@UnicodeString@icu_56@@QBEHXZ:PROC
; Function compile flags: /Odtp /RTCsu /ZI
;	COMDAT ?SPUStringCompare@@YACTUElement@@0@Z
_TEXT	SEGMENT
_lenR$ = -44						; size = 4
_lenL$ = -32						; size = 4
_sR$ = -20						; size = 4
_sL$ = -8						; size = 4
_left$ = 8						; size = 4
_right$ = 12						; size = 4
?SPUStringCompare@@YACTUElement@@0@Z PROC		; SPUStringCompare, COMDAT
; Line 108
	push	ebp
	mov	ebp, esp
	sub	esp, 240				; 000000f0H
	push	ebx
	push	esi
	push	edi
	lea	edi, DWORD PTR [ebp-240]
	mov	ecx, 60					; 0000003cH
	mov	eax, -858993460				; ccccccccH
	rep stosd
; Line 110
	mov	eax, DWORD PTR _left$[ebp]
	mov	DWORD PTR _sL$[ebp], eax
; Line 112
	mov	eax, DWORD PTR _right$[ebp]
	mov	DWORD PTR _sR$[ebp], eax
; Line 113
	mov	esi, esp
	mov	eax, DWORD PTR _sL$[ebp]
	mov	ecx, DWORD PTR [eax]
	call	DWORD PTR __imp_?length@UnicodeString@icu_56@@QBEHXZ
	cmp	esi, esp
	call	__RTC_CheckEsp
	mov	DWORD PTR _lenL$[ebp], eax
; Line 114
	mov	esi, esp
	mov	eax, DWORD PTR _sR$[ebp]
	mov	ecx, DWORD PTR [eax]
	call	DWORD PTR __imp_?length@UnicodeString@icu_56@@QBEHXZ
	cmp	esi, esp
	call	__RTC_CheckEsp
	mov	DWORD PTR _lenR$[ebp], eax
; Line 115
	mov	eax, DWORD PTR _lenL$[ebp]
	cmp	eax, DWORD PTR _lenR$[ebp]
	jge	SHORT $LN4@SPUStringC
; Line 116
	or	al, -1
	jmp	SHORT $LN5@SPUStringC
	jmp	SHORT $LN5@SPUStringC
$LN4@SPUStringC:
; Line 117
	mov	eax, DWORD PTR _lenL$[ebp]
	cmp	eax, DWORD PTR _lenR$[ebp]
	jle	SHORT $LN2@SPUStringC
; Line 118
	mov	al, 1
	jmp	SHORT $LN5@SPUStringC
; Line 119
	jmp	SHORT $LN5@SPUStringC
$LN2@SPUStringC:
; Line 120
	mov	esi, esp
	mov	eax, DWORD PTR _sR$[ebp]
	mov	ecx, DWORD PTR [eax]
	push	ecx
	mov	edx, DWORD PTR _sL$[ebp]
	mov	ecx, DWORD PTR [edx]
	call	DWORD PTR __imp_?compare@UnicodeString@icu_56@@QBECABV12@@Z
	cmp	esi, esp
	call	__RTC_CheckEsp
$LN5@SPUStringC:
; Line 122
	pop	edi
	pop	esi
	pop	ebx
	add	esp, 240				; 000000f0H
	cmp	ebp, esp
	call	__RTC_CheckEsp
	mov	esp, ebp
	pop	ebp
	ret	0
?SPUStringCompare@@YACTUElement@@0@Z ENDP		; SPUStringCompare
_TEXT	ENDS
PUBLIC	?addString@SPUStringPool@icu_56@@QAEPAUSPUString@2@PAVUnicodeString@2@AAW4UErrorCode@@@Z ; icu_56::SPUStringPool::addString
EXTRN	__imp_?addElement@UVector@icu_56@@QAEXPAXAAW4UErrorCode@@@Z:PROC
EXTRN	_uhash_put_56:PROC
EXTRN	_uhash_get_56:PROC
;	COMDAT xdata$x
xdata$x	SEGMENT
__unwindtable$?addString@SPUStringPool@icu_56@@QAEPAUSPUString@2@PAVUnicodeString@2@AAW4UErrorCode@@@Z DD 0ffffffffH
	DD	FLAT:__unwindfunclet$?addString@SPUStringPool@icu_56@@QAEPAUSPUString@2@PAVUnicodeString@2@AAW4UErrorCode@@@Z$0
__ehfuncinfo$?addString@SPUStringPool@icu_56@@QAEPAUSPUString@2@PAVUnicodeString@2@AAW4UErrorCode@@@Z DD 019930522H
	DD	01H
	DD	FLAT:__unwindtable$?addString@SPUStringPool@icu_56@@QAEPAUSPUString@2@PAVUnicodeString@2@AAW4UErrorCode@@@Z
	DD	2 DUP(00H)
	DD	2 DUP(00H)
	DD	00H
	DD	01H
; Function compile flags: /Odtp /RTCsu /ZI
xdata$x	ENDS
;	COMDAT ?addString@SPUStringPool@icu_56@@QAEPAUSPUString@2@PAVUnicodeString@2@AAW4UErrorCode@@@Z
_TEXT	SEGMENT
tv88 = -280						; size = 4
tv79 = -280						; size = 4
$T79126 = -272						; size = 4
$T79127 = -260						; size = 4
$T79130 = -248						; size = 4
$T79131 = -236						; size = 4
_hashedString$ = -32					; size = 4
_this$ = -20						; size = 4
__$EHRec$ = -12						; size = 12
_src$ = 8						; size = 4
_status$ = 12						; size = 4
?addString@SPUStringPool@icu_56@@QAEPAUSPUString@2@PAVUnicodeString@2@AAW4UErrorCode@@@Z PROC ; icu_56::SPUStringPool::addString, COMDAT
; _this$ = ecx
; Line 129
	push	ebp
	mov	ebp, esp
	push	-1
	push	__ehhandler$?addString@SPUStringPool@icu_56@@QAEPAUSPUString@2@PAVUnicodeString@2@AAW4UErrorCode@@@Z
	mov	eax, DWORD PTR fs:0
	push	eax
	sub	esp, 268				; 0000010cH
	push	ebx
	push	esi
	push	edi
	push	ecx
	lea	edi, DWORD PTR [ebp-280]
	mov	ecx, 67					; 00000043H
	mov	eax, -858993460				; ccccccccH
	rep stosd
	pop	ecx
	mov	eax, DWORD PTR ___security_cookie
	xor	eax, ebp
	push	eax
	lea	eax, DWORD PTR __$EHRec$[ebp]
	mov	DWORD PTR fs:0, eax
	mov	DWORD PTR _this$[ebp], ecx
; Line 130
	mov	eax, DWORD PTR _src$[ebp]
	push	eax
	mov	ecx, DWORD PTR _this$[ebp]
	mov	edx, DWORD PTR [ecx+4]
	push	edx
	call	_uhash_get_56
	add	esp, 8
	mov	DWORD PTR _hashedString$[ebp], eax
; Line 131
	cmp	DWORD PTR _hashedString$[ebp], 0
	je	SHORT $LN2@addString
; Line 132
	mov	eax, DWORD PTR _src$[ebp]
	mov	DWORD PTR $T79127[ebp], eax
	mov	ecx, DWORD PTR $T79127[ebp]
	mov	DWORD PTR $T79126[ebp], ecx
	cmp	DWORD PTR $T79126[ebp], 0
	je	SHORT $LN5@addString
	mov	esi, esp
	push	1
	mov	edx, DWORD PTR $T79126[ebp]
	mov	eax, DWORD PTR [edx]
	mov	ecx, DWORD PTR $T79126[ebp]
	mov	edx, DWORD PTR [eax]
	call	edx
	cmp	esi, esp
	call	__RTC_CheckEsp
	mov	DWORD PTR tv79[ebp], eax
	jmp	SHORT $LN6@addString
$LN5@addString:
	mov	DWORD PTR tv79[ebp], 0
$LN6@addString:
; Line 133
	jmp	$LN1@addString
$LN2@addString:
; Line 134
	mov	esi, esp
	push	8
	call	DWORD PTR __imp_??2UMemory@icu_56@@SAPAXI@Z
	add	esp, 4
	cmp	esi, esp
	call	__RTC_CheckEsp
	mov	DWORD PTR $T79131[ebp], eax
	mov	DWORD PTR __$EHRec$[ebp+8], 0
	cmp	DWORD PTR $T79131[ebp], 0
	je	SHORT $LN7@addString
	mov	eax, DWORD PTR _src$[ebp]
	push	eax
	mov	ecx, DWORD PTR $T79131[ebp]
	call	??0SPUString@icu_56@@QAE@PAVUnicodeString@1@@Z ; icu_56::SPUString::SPUString
	mov	DWORD PTR tv88[ebp], eax
	jmp	SHORT $LN8@addString
$LN7@addString:
	mov	DWORD PTR tv88[ebp], 0
$LN8@addString:
	mov	ecx, DWORD PTR tv88[ebp]
	mov	DWORD PTR $T79130[ebp], ecx
	mov	DWORD PTR __$EHRec$[ebp+8], -1
	mov	edx, DWORD PTR $T79130[ebp]
	mov	DWORD PTR _hashedString$[ebp], edx
; Line 135
	mov	eax, DWORD PTR _status$[ebp]
	push	eax
	mov	ecx, DWORD PTR _hashedString$[ebp]
	push	ecx
	mov	edx, DWORD PTR _src$[ebp]
	push	edx
	mov	eax, DWORD PTR _this$[ebp]
	mov	ecx, DWORD PTR [eax+4]
	push	ecx
	call	_uhash_put_56
	add	esp, 16					; 00000010H
; Line 136
	mov	esi, esp
	mov	eax, DWORD PTR _status$[ebp]
	push	eax
	mov	ecx, DWORD PTR _hashedString$[ebp]
	push	ecx
	mov	edx, DWORD PTR _this$[ebp]
	mov	ecx, DWORD PTR [edx]
	call	DWORD PTR __imp_?addElement@UVector@icu_56@@QAEXPAXAAW4UErrorCode@@@Z
	cmp	esi, esp
	call	__RTC_CheckEsp
$LN1@addString:
; Line 138
	mov	eax, DWORD PTR _hashedString$[ebp]
; Line 139
	mov	ecx, DWORD PTR __$EHRec$[ebp]
	mov	DWORD PTR fs:0, ecx
	pop	ecx
	pop	edi
	pop	esi
	pop	ebx
	add	esp, 280				; 00000118H
	cmp	ebp, esp
	call	__RTC_CheckEsp
	mov	esp, ebp
	pop	ebp
	ret	8
_TEXT	ENDS
;	COMDAT text$x
text$x	SEGMENT
__unwindfunclet$?addString@SPUStringPool@icu_56@@QAEPAUSPUString@2@PAVUnicodeString@2@AAW4UErrorCode@@@Z$0:
	mov	esi, esp
	mov	eax, DWORD PTR $T79131[ebp]
	push	eax
	call	DWORD PTR __imp_??3UMemory@icu_56@@SAXPAX@Z
	add	esp, 4
	cmp	esi, esp
	jmp	__RTC_CheckEsp
__ehhandler$?addString@SPUStringPool@icu_56@@QAEPAUSPUString@2@PAVUnicodeString@2@AAW4UErrorCode@@@Z:
	mov	edx, DWORD PTR [esp+8]
	lea	eax, DWORD PTR [edx+12]
	mov	ecx, DWORD PTR [edx-284]
	xor	ecx, eax
	call	@__security_check_cookie@4
	mov	eax, OFFSET __ehfuncinfo$?addString@SPUStringPool@icu_56@@QAEPAUSPUString@2@PAVUnicodeString@2@AAW4UErrorCode@@@Z
	jmp	___CxxFrameHandler3
text$x	ENDS
?addString@SPUStringPool@icu_56@@QAEPAUSPUString@2@PAVUnicodeString@2@AAW4UErrorCode@@@Z ENDP ; icu_56::SPUStringPool::addString
PUBLIC	??_SUnicodeSet@icu_56@@6BUnicodeMatcher@1@@	; icu_56::UnicodeSet::`local vftable'
PUBLIC	??_SUnicodeSet@icu_56@@6BUnicodeFunctor@1@@	; icu_56::UnicodeSet::`local vftable'
PUBLIC	??0ConfusabledataBuilder@icu_56@@AAE@PAVSpoofImpl@1@AAW4UErrorCode@@@Z ; icu_56::ConfusabledataBuilder::ConfusabledataBuilder
PUBLIC	??_R4UnicodeSet@icu_56@@6BUnicodeFunctor@1@@	; icu_56::UnicodeSet::`RTTI Complete Object Locator'
PUBLIC	??_R0?AVUnicodeSet@icu_56@@@8			; icu_56::UnicodeSet `RTTI Type Descriptor'
PUBLIC	??_R3UnicodeSet@icu_56@@8			; icu_56::UnicodeSet::`RTTI Class Hierarchy Descriptor'
PUBLIC	??_R2UnicodeSet@icu_56@@8			; icu_56::UnicodeSet::`RTTI Base Class Array'
PUBLIC	??_R1A@?0A@EA@UnicodeSet@icu_56@@8		; icu_56::UnicodeSet::`RTTI Base Class Descriptor at (0,-1,0,64)'
PUBLIC	??_R1A@?0A@EA@UnicodeFilter@icu_56@@8		; icu_56::UnicodeFilter::`RTTI Base Class Descriptor at (0,-1,0,64)'
PUBLIC	??_R0?AVUnicodeFilter@icu_56@@@8		; icu_56::UnicodeFilter `RTTI Type Descriptor'
PUBLIC	??_R3UnicodeFilter@icu_56@@8			; icu_56::UnicodeFilter::`RTTI Class Hierarchy Descriptor'
PUBLIC	??_R2UnicodeFilter@icu_56@@8			; icu_56::UnicodeFilter::`RTTI Base Class Array'
PUBLIC	??_R1A@?0A@EA@UnicodeFunctor@icu_56@@8		; icu_56::UnicodeFunctor::`RTTI Base Class Descriptor at (0,-1,0,64)'
PUBLIC	??_R0?AVUnicodeFunctor@icu_56@@@8		; icu_56::UnicodeFunctor `RTTI Type Descriptor'
PUBLIC	??_R3UnicodeFunctor@icu_56@@8			; icu_56::UnicodeFunctor::`RTTI Class Hierarchy Descriptor'
PUBLIC	??_R2UnicodeFunctor@icu_56@@8			; icu_56::UnicodeFunctor::`RTTI Base Class Array'
PUBLIC	??_R13?0A@EA@UnicodeMatcher@icu_56@@8		; icu_56::UnicodeMatcher::`RTTI Base Class Descriptor at (4,-1,0,64)'
PUBLIC	??_R0?AVUnicodeMatcher@icu_56@@@8		; icu_56::UnicodeMatcher `RTTI Type Descriptor'
PUBLIC	??_R3UnicodeMatcher@icu_56@@8			; icu_56::UnicodeMatcher::`RTTI Class Hierarchy Descriptor'
PUBLIC	??_R2UnicodeMatcher@icu_56@@8			; icu_56::UnicodeMatcher::`RTTI Base Class Array'
PUBLIC	??_R1A@?0A@EA@UnicodeMatcher@icu_56@@8		; icu_56::UnicodeMatcher::`RTTI Base Class Descriptor at (0,-1,0,64)'
PUBLIC	??_R4UnicodeSet@icu_56@@6BUnicodeMatcher@1@@	; icu_56::UnicodeSet::`RTTI Complete Object Locator'
PUBLIC	??_EUnicodeSet@icu_56@@W3AEPAXI@Z		; [thunk]:icu_56::UnicodeSet::`vector deleting destructor'
EXTRN	__imp_??0UnicodeSet@icu_56@@QAE@XZ:PROC
EXTRN	_uhash_hashLong_56:PROC
EXTRN	_uhash_compareLong_56:PROC
EXTRN	??_EUnicodeSet@icu_56@@UAEPAXI@Z:PROC		; icu_56::UnicodeSet::`vector deleting destructor'
EXTRN	?getDynamicClassID@UnicodeSet@icu_56@@UBEPAXXZ:PROC ; icu_56::UnicodeSet::getDynamicClassID
EXTRN	?clone@UnicodeSet@icu_56@@UBEPAVUnicodeFunctor@2@XZ:PROC ; icu_56::UnicodeSet::clone
EXTRN	?toMatcher@UnicodeFilter@icu_56@@UBEPAVUnicodeMatcher@2@XZ:PROC ; icu_56::UnicodeFilter::toMatcher
EXTRN	?toReplacer@UnicodeFunctor@icu_56@@UBEPAVUnicodeReplacer@2@XZ:PROC ; icu_56::UnicodeFunctor::toReplacer
EXTRN	?setData@UnicodeFilter@icu_56@@UAEXPBVTransliterationRuleData@2@@Z:PROC ; icu_56::UnicodeFilter::setData
EXTRN	?contains@UnicodeSet@icu_56@@UBECH@Z:PROC	; icu_56::UnicodeSet::contains
EXTRN	??8UnicodeSet@icu_56@@UBECABV01@@Z:PROC		; icu_56::UnicodeSet::operator==
EXTRN	?hashCode@UnicodeSet@icu_56@@UBEHXZ:PROC	; icu_56::UnicodeSet::hashCode
EXTRN	?size@UnicodeSet@icu_56@@UBEHXZ:PROC		; icu_56::UnicodeSet::size
EXTRN	?isEmpty@UnicodeSet@icu_56@@UBECXZ:PROC		; icu_56::UnicodeSet::isEmpty
EXTRN	?contains@UnicodeSet@icu_56@@UBECHH@Z:PROC	; icu_56::UnicodeSet::contains
EXTRN	?containsAll@UnicodeSet@icu_56@@UBECABV12@@Z:PROC ; icu_56::UnicodeSet::containsAll
EXTRN	?add@UnicodeSet@icu_56@@UAEAAV12@HH@Z:PROC	; icu_56::UnicodeSet::add
EXTRN	?addAll@UnicodeSet@icu_56@@UAEAAV12@ABV12@@Z:PROC ; icu_56::UnicodeSet::addAll
EXTRN	?retainAll@UnicodeSet@icu_56@@UAEAAV12@ABV12@@Z:PROC ; icu_56::UnicodeSet::retainAll
EXTRN	?complementAll@UnicodeSet@icu_56@@UAEAAV12@ABV12@@Z:PROC ; icu_56::UnicodeSet::complementAll
EXTRN	?removeAll@UnicodeSet@icu_56@@UAEAAV12@ABV12@@Z:PROC ; icu_56::UnicodeSet::removeAll
EXTRN	?retain@UnicodeSet@icu_56@@UAEAAV12@HH@Z:PROC	; icu_56::UnicodeSet::retain
EXTRN	?remove@UnicodeSet@icu_56@@UAEAAV12@HH@Z:PROC	; icu_56::UnicodeSet::remove
EXTRN	?complement@UnicodeSet@icu_56@@UAEAAV12@HH@Z:PROC ; icu_56::UnicodeSet::complement
EXTRN	?complement@UnicodeSet@icu_56@@UAEAAV12@XZ:PROC	; icu_56::UnicodeSet::complement
EXTRN	?clear@UnicodeSet@icu_56@@UAEAAV12@XZ:PROC	; icu_56::UnicodeSet::clear
EXTRN	?removeAllStrings@UnicodeSet@icu_56@@UAEAAV12@XZ:PROC ; icu_56::UnicodeSet::removeAllStrings
EXTRN	?getRangeCount@UnicodeSet@icu_56@@UBEHXZ:PROC	; icu_56::UnicodeSet::getRangeCount
EXTRN	?getRangeStart@UnicodeSet@icu_56@@UBEHH@Z:PROC	; icu_56::UnicodeSet::getRangeStart
EXTRN	?getRangeEnd@UnicodeSet@icu_56@@UBEHH@Z:PROC	; icu_56::UnicodeSet::getRangeEnd
EXTRN	?compact@UnicodeSet@icu_56@@UAEAAV12@XZ:PROC	; icu_56::UnicodeSet::compact
EXTRN	?matches@UnicodeSet@icu_56@@UAE?AW4UMatchDegree@2@ABVReplaceable@2@AAHHC@Z:PROC ; icu_56::UnicodeSet::matches
EXTRN	?toPattern@UnicodeSet@icu_56@@UBEAAVUnicodeString@2@AAV32@C@Z:PROC ; icu_56::UnicodeSet::toPattern
EXTRN	?matchesIndexValue@UnicodeSet@icu_56@@EBECE@Z:PROC ; icu_56::UnicodeSet::matchesIndexValue
EXTRN	?addMatchSetTo@UnicodeSet@icu_56@@UBEXAAV12@@Z:PROC ; icu_56::UnicodeSet::addMatchSetTo
;	COMDAT ??_R4UnicodeSet@icu_56@@6BUnicodeMatcher@1@@
rdata$r	SEGMENT
??_R4UnicodeSet@icu_56@@6BUnicodeMatcher@1@@ DD 00H	; icu_56::UnicodeSet::`RTTI Complete Object Locator'
	DD	04H
	DD	00H
	DD	FLAT:??_R0?AVUnicodeSet@icu_56@@@8
	DD	FLAT:??_R3UnicodeSet@icu_56@@8
rdata$r	ENDS
;	COMDAT ??_R1A@?0A@EA@UnicodeMatcher@icu_56@@8
rdata$r	SEGMENT
??_R1A@?0A@EA@UnicodeMatcher@icu_56@@8 DD FLAT:??_R0?AVUnicodeMatcher@icu_56@@@8 ; icu_56::UnicodeMatcher::`RTTI Base Class Descriptor at (0,-1,0,64)'
	DD	00H
	DD	00H
	DD	0ffffffffH
	DD	00H
	DD	040H
	DD	FLAT:??_R3UnicodeMatcher@icu_56@@8
rdata$r	ENDS
;	COMDAT ??_R2UnicodeMatcher@icu_56@@8
rdata$r	SEGMENT
??_R2UnicodeMatcher@icu_56@@8 DD FLAT:??_R1A@?0A@EA@UnicodeMatcher@icu_56@@8 ; icu_56::UnicodeMatcher::`RTTI Base Class Array'
rdata$r	ENDS
;	COMDAT ??_R3UnicodeMatcher@icu_56@@8
rdata$r	SEGMENT
??_R3UnicodeMatcher@icu_56@@8 DD 00H			; icu_56::UnicodeMatcher::`RTTI Class Hierarchy Descriptor'
	DD	00H
	DD	01H
	DD	FLAT:??_R2UnicodeMatcher@icu_56@@8
rdata$r	ENDS
;	COMDAT ??_R0?AVUnicodeMatcher@icu_56@@@8
_DATA	SEGMENT
??_R0?AVUnicodeMatcher@icu_56@@@8 DD FLAT:??_7type_info@@6B@ ; icu_56::UnicodeMatcher `RTTI Type Descriptor'
	DD	00H
	DB	'.?AVUnicodeMatcher@icu_56@@', 00H
_DATA	ENDS
;	COMDAT ??_R13?0A@EA@UnicodeMatcher@icu_56@@8
rdata$r	SEGMENT
??_R13?0A@EA@UnicodeMatcher@icu_56@@8 DD FLAT:??_R0?AVUnicodeMatcher@icu_56@@@8 ; icu_56::UnicodeMatcher::`RTTI Base Class Descriptor at (4,-1,0,64)'
	DD	00H
	DD	04H
	DD	0ffffffffH
	DD	00H
	DD	040H
	DD	FLAT:??_R3UnicodeMatcher@icu_56@@8
rdata$r	ENDS
;	COMDAT ??_R2UnicodeFunctor@icu_56@@8
rdata$r	SEGMENT
??_R2UnicodeFunctor@icu_56@@8 DD FLAT:??_R1A@?0A@EA@UnicodeFunctor@icu_56@@8 ; icu_56::UnicodeFunctor::`RTTI Base Class Array'
	DD	FLAT:??_R1A@?0A@EA@UObject@icu_56@@8
	DD	FLAT:??_R13?0A@EA@UMemory@icu_56@@8
rdata$r	ENDS
;	COMDAT ??_R3UnicodeFunctor@icu_56@@8
rdata$r	SEGMENT
??_R3UnicodeFunctor@icu_56@@8 DD 00H			; icu_56::UnicodeFunctor::`RTTI Class Hierarchy Descriptor'
	DD	00H
	DD	03H
	DD	FLAT:??_R2UnicodeFunctor@icu_56@@8
rdata$r	ENDS
;	COMDAT ??_R0?AVUnicodeFunctor@icu_56@@@8
_DATA	SEGMENT
??_R0?AVUnicodeFunctor@icu_56@@@8 DD FLAT:??_7type_info@@6B@ ; icu_56::UnicodeFunctor `RTTI Type Descriptor'
	DD	00H
	DB	'.?AVUnicodeFunctor@icu_56@@', 00H
_DATA	ENDS
;	COMDAT ??_R1A@?0A@EA@UnicodeFunctor@icu_56@@8
rdata$r	SEGMENT
??_R1A@?0A@EA@UnicodeFunctor@icu_56@@8 DD FLAT:??_R0?AVUnicodeFunctor@icu_56@@@8 ; icu_56::UnicodeFunctor::`RTTI Base Class Descriptor at (0,-1,0,64)'
	DD	02H
	DD	00H
	DD	0ffffffffH
	DD	00H
	DD	040H
	DD	FLAT:??_R3UnicodeFunctor@icu_56@@8
rdata$r	ENDS
;	COMDAT ??_R2UnicodeFilter@icu_56@@8
rdata$r	SEGMENT
??_R2UnicodeFilter@icu_56@@8 DD FLAT:??_R1A@?0A@EA@UnicodeFilter@icu_56@@8 ; icu_56::UnicodeFilter::`RTTI Base Class Array'
	DD	FLAT:??_R1A@?0A@EA@UnicodeFunctor@icu_56@@8
	DD	FLAT:??_R1A@?0A@EA@UObject@icu_56@@8
	DD	FLAT:??_R13?0A@EA@UMemory@icu_56@@8
	DD	FLAT:??_R13?0A@EA@UnicodeMatcher@icu_56@@8
rdata$r	ENDS
;	COMDAT ??_R3UnicodeFilter@icu_56@@8
rdata$r	SEGMENT
??_R3UnicodeFilter@icu_56@@8 DD 00H			; icu_56::UnicodeFilter::`RTTI Class Hierarchy Descriptor'
	DD	01H
	DD	05H
	DD	FLAT:??_R2UnicodeFilter@icu_56@@8
rdata$r	ENDS
;	COMDAT ??_R0?AVUnicodeFilter@icu_56@@@8
_DATA	SEGMENT
??_R0?AVUnicodeFilter@icu_56@@@8 DD FLAT:??_7type_info@@6B@ ; icu_56::UnicodeFilter `RTTI Type Descriptor'
	DD	00H
	DB	'.?AVUnicodeFilter@icu_56@@', 00H
_DATA	ENDS
;	COMDAT ??_R1A@?0A@EA@UnicodeFilter@icu_56@@8
rdata$r	SEGMENT
??_R1A@?0A@EA@UnicodeFilter@icu_56@@8 DD FLAT:??_R0?AVUnicodeFilter@icu_56@@@8 ; icu_56::UnicodeFilter::`RTTI Base Class Descriptor at (0,-1,0,64)'
	DD	04H
	DD	00H
	DD	0ffffffffH
	DD	00H
	DD	040H
	DD	FLAT:??_R3UnicodeFilter@icu_56@@8
rdata$r	ENDS
;	COMDAT ??_R1A@?0A@EA@UnicodeSet@icu_56@@8
rdata$r	SEGMENT
??_R1A@?0A@EA@UnicodeSet@icu_56@@8 DD FLAT:??_R0?AVUnicodeSet@icu_56@@@8 ; icu_56::UnicodeSet::`RTTI Base Class Descriptor at (0,-1,0,64)'
	DD	05H
	DD	00H
	DD	0ffffffffH
	DD	00H
	DD	040H
	DD	FLAT:??_R3UnicodeSet@icu_56@@8
rdata$r	ENDS
;	COMDAT ??_R2UnicodeSet@icu_56@@8
rdata$r	SEGMENT
??_R2UnicodeSet@icu_56@@8 DD FLAT:??_R1A@?0A@EA@UnicodeSet@icu_56@@8 ; icu_56::UnicodeSet::`RTTI Base Class Array'
	DD	FLAT:??_R1A@?0A@EA@UnicodeFilter@icu_56@@8
	DD	FLAT:??_R1A@?0A@EA@UnicodeFunctor@icu_56@@8
	DD	FLAT:??_R1A@?0A@EA@UObject@icu_56@@8
	DD	FLAT:??_R13?0A@EA@UMemory@icu_56@@8
	DD	FLAT:??_R13?0A@EA@UnicodeMatcher@icu_56@@8
rdata$r	ENDS
;	COMDAT ??_R3UnicodeSet@icu_56@@8
rdata$r	SEGMENT
??_R3UnicodeSet@icu_56@@8 DD 00H			; icu_56::UnicodeSet::`RTTI Class Hierarchy Descriptor'
	DD	01H
	DD	06H
	DD	FLAT:??_R2UnicodeSet@icu_56@@8
rdata$r	ENDS
;	COMDAT ??_R0?AVUnicodeSet@icu_56@@@8
_DATA	SEGMENT
??_R0?AVUnicodeSet@icu_56@@@8 DD FLAT:??_7type_info@@6B@ ; icu_56::UnicodeSet `RTTI Type Descriptor'
	DD	00H
	DB	'.?AVUnicodeSet@icu_56@@', 00H
_DATA	ENDS
;	COMDAT ??_R4UnicodeSet@icu_56@@6BUnicodeFunctor@1@@
rdata$r	SEGMENT
??_R4UnicodeSet@icu_56@@6BUnicodeFunctor@1@@ DD 00H	; icu_56::UnicodeSet::`RTTI Complete Object Locator'
	DD	00H
	DD	00H
	DD	FLAT:??_R0?AVUnicodeSet@icu_56@@@8
	DD	FLAT:??_R3UnicodeSet@icu_56@@8
rdata$r	ENDS
;	COMDAT ??_SUnicodeSet@icu_56@@6BUnicodeMatcher@1@@
CONST	SEGMENT
??_SUnicodeSet@icu_56@@6BUnicodeMatcher@1@@ DD FLAT:??_R4UnicodeSet@icu_56@@6BUnicodeMatcher@1@@ ; icu_56::UnicodeSet::`local vftable'
	DD	FLAT:??_EUnicodeSet@icu_56@@W3AEPAXI@Z
	DD	FLAT:?matches@UnicodeSet@icu_56@@UAE?AW4UMatchDegree@2@ABVReplaceable@2@AAHHC@Z
	DD	FLAT:?toPattern@UnicodeSet@icu_56@@UBEAAVUnicodeString@2@AAV32@C@Z
	DD	FLAT:?matchesIndexValue@UnicodeSet@icu_56@@EBECE@Z
	DD	FLAT:?addMatchSetTo@UnicodeSet@icu_56@@UBEXAAV12@@Z
CONST	ENDS
;	COMDAT ??_SUnicodeSet@icu_56@@6BUnicodeFunctor@1@@
CONST	SEGMENT
??_SUnicodeSet@icu_56@@6BUnicodeFunctor@1@@ DD FLAT:??_R4UnicodeSet@icu_56@@6BUnicodeFunctor@1@@ ; icu_56::UnicodeSet::`local vftable'
	DD	FLAT:??_EUnicodeSet@icu_56@@UAEPAXI@Z
	DD	FLAT:?getDynamicClassID@UnicodeSet@icu_56@@UBEPAXXZ
	DD	FLAT:?clone@UnicodeSet@icu_56@@UBEPAVUnicodeFunctor@2@XZ
	DD	FLAT:?toMatcher@UnicodeFilter@icu_56@@UBEPAVUnicodeMatcher@2@XZ
	DD	FLAT:?toReplacer@UnicodeFunctor@icu_56@@UBEPAVUnicodeReplacer@2@XZ
	DD	FLAT:?setData@UnicodeFilter@icu_56@@UAEXPBVTransliterationRuleData@2@@Z
	DD	FLAT:?contains@UnicodeSet@icu_56@@UBECH@Z
	DD	FLAT:??8UnicodeSet@icu_56@@UBECABV01@@Z
	DD	FLAT:?hashCode@UnicodeSet@icu_56@@UBEHXZ
	DD	FLAT:?size@UnicodeSet@icu_56@@UBEHXZ
	DD	FLAT:?isEmpty@UnicodeSet@icu_56@@UBECXZ
	DD	FLAT:?contains@UnicodeSet@icu_56@@UBECHH@Z
	DD	FLAT:?containsAll@UnicodeSet@icu_56@@UBECABV12@@Z
	DD	FLAT:?add@UnicodeSet@icu_56@@UAEAAV12@HH@Z
	DD	FLAT:?addAll@UnicodeSet@icu_56@@UAEAAV12@ABV12@@Z
	DD	FLAT:?retainAll@UnicodeSet@icu_56@@UAEAAV12@ABV12@@Z
	DD	FLAT:?complementAll@UnicodeSet@icu_56@@UAEAAV12@ABV12@@Z
	DD	FLAT:?removeAll@UnicodeSet@icu_56@@UAEAAV12@ABV12@@Z
	DD	FLAT:?retain@UnicodeSet@icu_56@@UAEAAV12@HH@Z
	DD	FLAT:?remove@UnicodeSet@icu_56@@UAEAAV12@HH@Z
	DD	FLAT:?complement@UnicodeSet@icu_56@@UAEAAV12@HH@Z
	DD	FLAT:?complement@UnicodeSet@icu_56@@UAEAAV12@XZ
	DD	FLAT:?clear@UnicodeSet@icu_56@@UAEAAV12@XZ
	DD	FLAT:?removeAllStrings@UnicodeSet@icu_56@@UAEAAV12@XZ
	DD	FLAT:?getRangeCount@UnicodeSet@icu_56@@UBEHXZ
	DD	FLAT:?getRangeStart@UnicodeSet@icu_56@@UBEHH@Z
	DD	FLAT:?getRangeEnd@UnicodeSet@icu_56@@UBEHH@Z
	DD	FLAT:?compact@UnicodeSet@icu_56@@UAEAAV12@XZ
CONST	ENDS
;	COMDAT xdata$x
xdata$x	SEGMENT
__unwindtable$??0ConfusabledataBuilder@icu_56@@AAE@PAVSpoofImpl@1@AAW4UErrorCode@@@Z DD 0ffffffffH
	DD	FLAT:__unwindfunclet$??0ConfusabledataBuilder@icu_56@@AAE@PAVSpoofImpl@1@AAW4UErrorCode@@@Z$0
	DD	0ffffffffH
	DD	FLAT:__unwindfunclet$??0ConfusabledataBuilder@icu_56@@AAE@PAVSpoofImpl@1@AAW4UErrorCode@@@Z$1
	DD	0ffffffffH
	DD	FLAT:__unwindfunclet$??0ConfusabledataBuilder@icu_56@@AAE@PAVSpoofImpl@1@AAW4UErrorCode@@@Z$2
	DD	0ffffffffH
	DD	FLAT:__unwindfunclet$??0ConfusabledataBuilder@icu_56@@AAE@PAVSpoofImpl@1@AAW4UErrorCode@@@Z$3
__ehfuncinfo$??0ConfusabledataBuilder@icu_56@@AAE@PAVSpoofImpl@1@AAW4UErrorCode@@@Z DD 019930522H
	DD	04H
	DD	FLAT:__unwindtable$??0ConfusabledataBuilder@icu_56@@AAE@PAVSpoofImpl@1@AAW4UErrorCode@@@Z
	DD	2 DUP(00H)
	DD	2 DUP(00H)
	DD	00H
	DD	01H
; Function compile flags: /Odtp /RTCsu /ZI
xdata$x	ENDS
;	COMDAT ??0ConfusabledataBuilder@icu_56@@AAE@PAVSpoofImpl@1@AAW4UErrorCode@@@Z
_TEXT	SEGMENT
tv171 = -316						; size = 4
tv161 = -316						; size = 4
tv153 = -316						; size = 4
tv145 = -316						; size = 4
$T79143 = -308						; size = 4
$T79144 = -296						; size = 4
$T79147 = -284						; size = 4
$T79148 = -272						; size = 4
$T79151 = -260						; size = 4
$T79152 = -248						; size = 4
$T79155 = -236						; size = 4
$T79156 = -224						; size = 4
_this$ = -20						; size = 4
__$EHRec$ = -12						; size = 12
_spImpl$ = 8						; size = 4
_status$ = 12						; size = 4
??0ConfusabledataBuilder@icu_56@@AAE@PAVSpoofImpl@1@AAW4UErrorCode@@@Z PROC ; icu_56::ConfusabledataBuilder::ConfusabledataBuilder, COMDAT
; _this$ = ecx
; Line 159
	push	ebp
	mov	ebp, esp
	push	-1
	push	__ehhandler$??0ConfusabledataBuilder@icu_56@@AAE@PAVSpoofImpl@1@AAW4UErrorCode@@@Z
	mov	eax, DWORD PTR fs:0
	push	eax
	sub	esp, 304				; 00000130H
	push	ebx
	push	esi
	push	edi
	push	ecx
	lea	edi, DWORD PTR [ebp-316]
	mov	ecx, 76					; 0000004cH
	mov	eax, -858993460				; ccccccccH
	rep stosd
	pop	ecx
	mov	eax, DWORD PTR ___security_cookie
	xor	eax, ebp
	push	eax
	lea	eax, DWORD PTR __$EHRec$[ebp]
	mov	DWORD PTR fs:0, eax
	mov	DWORD PTR _this$[ebp], ecx
	mov	eax, DWORD PTR _this$[ebp]
	mov	ecx, DWORD PTR _spImpl$[ebp]
	mov	DWORD PTR [eax], ecx
	mov	eax, DWORD PTR _this$[ebp]
	mov	DWORD PTR [eax+4], 0
	mov	eax, DWORD PTR _this$[ebp]
	mov	DWORD PTR [eax+8], 0
	mov	eax, DWORD PTR _this$[ebp]
	mov	DWORD PTR [eax+12], 0
	mov	eax, DWORD PTR _this$[ebp]
	mov	DWORD PTR [eax+16], 0
	mov	eax, DWORD PTR _this$[ebp]
	mov	DWORD PTR [eax+20], 0
	mov	eax, DWORD PTR _this$[ebp]
	mov	DWORD PTR [eax+24], 0
	mov	eax, DWORD PTR _this$[ebp]
	mov	DWORD PTR [eax+28], 0
	mov	eax, DWORD PTR _this$[ebp]
	mov	DWORD PTR [eax+32], 0
	mov	eax, DWORD PTR _this$[ebp]
	mov	DWORD PTR [eax+36], 0
	mov	eax, DWORD PTR _this$[ebp]
	mov	DWORD PTR [eax+40], 0
	mov	eax, DWORD PTR _this$[ebp]
	mov	DWORD PTR [eax+44], 0
	mov	eax, DWORD PTR _this$[ebp]
	mov	DWORD PTR [eax+48], 0
	mov	eax, DWORD PTR _this$[ebp]
	mov	DWORD PTR [eax+52], 0
	mov	eax, DWORD PTR _this$[ebp]
	mov	DWORD PTR [eax+56], 0
; Line 160
	mov	eax, DWORD PTR _status$[ebp]
	mov	ecx, DWORD PTR [eax]
	push	ecx
	call	?U_FAILURE@@YACW4UErrorCode@@@Z		; U_FAILURE
	add	esp, 4
	movsx	edx, al
	test	edx, edx
	je	SHORT $LN1@Confusable
; Line 161
	jmp	$LN2@Confusable
$LN1@Confusable:
; Line 163
	mov	eax, DWORD PTR _status$[ebp]
	push	eax
	push	0
	push	OFFSET _uhash_compareLong_56
	push	OFFSET _uhash_hashLong_56
	call	_uhash_open_56
	add	esp, 16					; 00000010H
	mov	ecx, DWORD PTR _this$[ebp]
	mov	DWORD PTR [ecx+8], eax
; Line 164
	mov	eax, DWORD PTR _status$[ebp]
	push	eax
	push	0
	push	OFFSET _uhash_compareLong_56
	push	OFFSET _uhash_hashLong_56
	call	_uhash_open_56
	add	esp, 16					; 00000010H
	mov	ecx, DWORD PTR _this$[ebp]
	mov	DWORD PTR [ecx+12], eax
; Line 165
	mov	eax, DWORD PTR _status$[ebp]
	push	eax
	push	0
	push	OFFSET _uhash_compareLong_56
	push	OFFSET _uhash_hashLong_56
	call	_uhash_open_56
	add	esp, 16					; 00000010H
	mov	ecx, DWORD PTR _this$[ebp]
	mov	DWORD PTR [ecx+16], eax
; Line 166
	mov	eax, DWORD PTR _status$[ebp]
	push	eax
	push	0
	push	OFFSET _uhash_compareLong_56
	push	OFFSET _uhash_hashLong_56
	call	_uhash_open_56
	add	esp, 16					; 00000010H
	mov	ecx, DWORD PTR _this$[ebp]
	mov	DWORD PTR [ecx+20], eax
; Line 167
	mov	esi, esp
	push	52					; 00000034H
	call	DWORD PTR __imp_??2UMemory@icu_56@@SAPAXI@Z
	add	esp, 4
	cmp	esi, esp
	call	__RTC_CheckEsp
	mov	DWORD PTR $T79144[ebp], eax
	mov	DWORD PTR __$EHRec$[ebp+8], 0
	cmp	DWORD PTR $T79144[ebp], 0
	je	SHORT $LN4@Confusable
	mov	esi, esp
	mov	ecx, DWORD PTR $T79144[ebp]
	call	DWORD PTR __imp_??0UnicodeSet@icu_56@@QAE@XZ
	cmp	esi, esp
	call	__RTC_CheckEsp
	mov	eax, DWORD PTR $T79144[ebp]
	mov	DWORD PTR [eax], OFFSET ??_SUnicodeSet@icu_56@@6BUnicodeFunctor@1@@
	mov	ecx, DWORD PTR $T79144[ebp]
	mov	DWORD PTR [ecx+4], OFFSET ??_SUnicodeSet@icu_56@@6BUnicodeMatcher@1@@
	mov	edx, DWORD PTR $T79144[ebp]
	mov	DWORD PTR tv145[ebp], edx
	jmp	SHORT $LN5@Confusable
$LN4@Confusable:
	mov	DWORD PTR tv145[ebp], 0
$LN5@Confusable:
	mov	eax, DWORD PTR tv145[ebp]
	mov	DWORD PTR $T79143[ebp], eax
	mov	DWORD PTR __$EHRec$[ebp+8], -1
	mov	ecx, DWORD PTR _this$[ebp]
	mov	edx, DWORD PTR $T79143[ebp]
	mov	DWORD PTR [ecx+24], edx
; Line 168
	mov	esi, esp
	push	24					; 00000018H
	call	DWORD PTR __imp_??2UMemory@icu_56@@SAPAXI@Z
	add	esp, 4
	cmp	esi, esp
	call	__RTC_CheckEsp
	mov	DWORD PTR $T79148[ebp], eax
	mov	DWORD PTR __$EHRec$[ebp+8], 1
	cmp	DWORD PTR $T79148[ebp], 0
	je	SHORT $LN6@Confusable
	mov	esi, esp
	mov	eax, DWORD PTR _status$[ebp]
	push	eax
	mov	ecx, DWORD PTR $T79148[ebp]
	call	DWORD PTR __imp_??0UVector@icu_56@@QAE@AAW4UErrorCode@@@Z
	cmp	esi, esp
	call	__RTC_CheckEsp
	mov	ecx, DWORD PTR $T79148[ebp]
	mov	DWORD PTR [ecx], OFFSET ??_SUVector@icu_56@@6B@
	mov	edx, DWORD PTR $T79148[ebp]
	mov	DWORD PTR tv153[ebp], edx
	jmp	SHORT $LN7@Confusable
$LN6@Confusable:
	mov	DWORD PTR tv153[ebp], 0
$LN7@Confusable:
	mov	eax, DWORD PTR tv153[ebp]
	mov	DWORD PTR $T79147[ebp], eax
	mov	DWORD PTR __$EHRec$[ebp+8], -1
	mov	ecx, DWORD PTR _this$[ebp]
	mov	edx, DWORD PTR $T79147[ebp]
	mov	DWORD PTR [ecx+28], edx
; Line 169
	mov	esi, esp
	push	24					; 00000018H
	call	DWORD PTR __imp_??2UMemory@icu_56@@SAPAXI@Z
	add	esp, 4
	cmp	esi, esp
	call	__RTC_CheckEsp
	mov	DWORD PTR $T79152[ebp], eax
	mov	DWORD PTR __$EHRec$[ebp+8], 2
	cmp	DWORD PTR $T79152[ebp], 0
	je	SHORT $LN8@Confusable
	mov	esi, esp
	mov	eax, DWORD PTR _status$[ebp]
	push	eax
	mov	ecx, DWORD PTR $T79152[ebp]
	call	DWORD PTR __imp_??0UVector@icu_56@@QAE@AAW4UErrorCode@@@Z
	cmp	esi, esp
	call	__RTC_CheckEsp
	mov	ecx, DWORD PTR $T79152[ebp]
	mov	DWORD PTR [ecx], OFFSET ??_SUVector@icu_56@@6B@
	mov	edx, DWORD PTR $T79152[ebp]
	mov	DWORD PTR tv161[ebp], edx
	jmp	SHORT $LN9@Confusable
$LN8@Confusable:
	mov	DWORD PTR tv161[ebp], 0
$LN9@Confusable:
	mov	eax, DWORD PTR tv161[ebp]
	mov	DWORD PTR $T79151[ebp], eax
	mov	DWORD PTR __$EHRec$[ebp+8], -1
	mov	ecx, DWORD PTR _this$[ebp]
	mov	edx, DWORD PTR $T79151[ebp]
	mov	DWORD PTR [ecx+32], edx
; Line 170
	mov	esi, esp
	push	8
	call	DWORD PTR __imp_??2UMemory@icu_56@@SAPAXI@Z
	add	esp, 4
	cmp	esi, esp
	call	__RTC_CheckEsp
	mov	DWORD PTR $T79156[ebp], eax
	mov	DWORD PTR __$EHRec$[ebp+8], 3
	cmp	DWORD PTR $T79156[ebp], 0
	je	SHORT $LN10@Confusable
	mov	eax, DWORD PTR _status$[ebp]
	push	eax
	mov	ecx, DWORD PTR $T79156[ebp]
	call	??0SPUStringPool@icu_56@@QAE@AAW4UErrorCode@@@Z ; icu_56::SPUStringPool::SPUStringPool
	mov	DWORD PTR tv171[ebp], eax
	jmp	SHORT $LN11@Confusable
$LN10@Confusable:
	mov	DWORD PTR tv171[ebp], 0
$LN11@Confusable:
	mov	ecx, DWORD PTR tv171[ebp]
	mov	DWORD PTR $T79155[ebp], ecx
	mov	DWORD PTR __$EHRec$[ebp+8], -1
	mov	edx, DWORD PTR _this$[ebp]
	mov	eax, DWORD PTR $T79155[ebp]
	mov	DWORD PTR [edx+44], eax
$LN2@Confusable:
; Line 171
	mov	eax, DWORD PTR _this$[ebp]
	mov	ecx, DWORD PTR __$EHRec$[ebp]
	mov	DWORD PTR fs:0, ecx
	pop	ecx
	pop	edi
	pop	esi
	pop	ebx
	add	esp, 316				; 0000013cH
	cmp	ebp, esp
	call	__RTC_CheckEsp
	mov	esp, ebp
	pop	ebp
	ret	8
_TEXT	ENDS
;	COMDAT text$x
text$x	SEGMENT
__unwindfunclet$??0ConfusabledataBuilder@icu_56@@AAE@PAVSpoofImpl@1@AAW4UErrorCode@@@Z$0:
	mov	esi, esp
	mov	eax, DWORD PTR $T79144[ebp]
	push	eax
	call	DWORD PTR __imp_??3UMemory@icu_56@@SAXPAX@Z
	add	esp, 4
	cmp	esi, esp
	jmp	__RTC_CheckEsp
__unwindfunclet$??0ConfusabledataBuilder@icu_56@@AAE@PAVSpoofImpl@1@AAW4UErrorCode@@@Z$1:
	mov	esi, esp
	mov	eax, DWORD PTR $T79148[ebp]
	push	eax
	call	DWORD PTR __imp_??3UMemory@icu_56@@SAXPAX@Z
	add	esp, 4
	cmp	esi, esp
	jmp	__RTC_CheckEsp
__unwindfunclet$??0ConfusabledataBuilder@icu_56@@AAE@PAVSpoofImpl@1@AAW4UErrorCode@@@Z$2:
	mov	esi, esp
	mov	eax, DWORD PTR $T79152[ebp]
	push	eax
	call	DWORD PTR __imp_??3UMemory@icu_56@@SAXPAX@Z
	add	esp, 4
	cmp	esi, esp
	jmp	__RTC_CheckEsp
__unwindfunclet$??0ConfusabledataBuilder@icu_56@@AAE@PAVSpoofImpl@1@AAW4UErrorCode@@@Z$3:
	mov	esi, esp
	mov	eax, DWORD PTR $T79156[ebp]
	push	eax
	call	DWORD PTR __imp_??3UMemory@icu_56@@SAXPAX@Z
	add	esp, 4
	cmp	esi, esp
	jmp	__RTC_CheckEsp
__ehhandler$??0ConfusabledataBuilder@icu_56@@AAE@PAVSpoofImpl@1@AAW4UErrorCode@@@Z:
	mov	edx, DWORD PTR [esp+8]
	lea	eax, DWORD PTR [edx+12]
	mov	ecx, DWORD PTR [edx-320]
	xor	ecx, eax
	call	@__security_check_cookie@4
	mov	eax, OFFSET __ehfuncinfo$??0ConfusabledataBuilder@icu_56@@AAE@PAVSpoofImpl@1@AAW4UErrorCode@@@Z
	jmp	___CxxFrameHandler3
text$x	ENDS
??0ConfusabledataBuilder@icu_56@@AAE@PAVSpoofImpl@1@AAW4UErrorCode@@@Z ENDP ; icu_56::ConfusabledataBuilder::ConfusabledataBuilder
; Function compile flags: /Odtp /RTCsu /ZI
;	COMDAT ?U_FAILURE@@YACW4UErrorCode@@@Z
_TEXT	SEGMENT
_code$ = 8						; size = 4
?U_FAILURE@@YACW4UErrorCode@@@Z PROC			; U_FAILURE, COMDAT
; File d:\mozilla\intl\icu\include\unicode\utypes.h
; Line 705
	push	ebp
	mov	ebp, esp
	sub	esp, 192				; 000000c0H
	push	ebx
	push	esi
	push	edi
	lea	edi, DWORD PTR [ebp-192]
	mov	ecx, 48					; 00000030H
	mov	eax, -858993460				; ccccccccH
	rep stosd
	cmp	DWORD PTR _code$[ebp], 0
	setg	al
	pop	edi
	pop	esi
	pop	ebx
	mov	esp, ebp
	pop	ebp
	ret	0
?U_FAILURE@@YACW4UErrorCode@@@Z ENDP			; U_FAILURE
_TEXT	ENDS
EXTRN	__imp_??1UnicodeSet@icu_56@@UAE@XZ:PROC
; Function compile flags: /Odtp /RTCsu /ZI
;	COMDAT ??_GUnicodeSet@icu_56@@UAEPAXI@Z
_TEXT	SEGMENT
_this$ = -8						; size = 4
___flags$ = 8						; size = 4
??_GUnicodeSet@icu_56@@UAEPAXI@Z PROC			; icu_56::UnicodeSet::`scalar deleting destructor', COMDAT
; _this$ = ecx
	push	ebp
	mov	ebp, esp
	sub	esp, 204				; 000000ccH
	push	ebx
	push	esi
	push	edi
	push	ecx
	lea	edi, DWORD PTR [ebp-204]
	mov	ecx, 51					; 00000033H
	mov	eax, -858993460				; ccccccccH
	rep stosd
	pop	ecx
	mov	DWORD PTR _this$[ebp], ecx
	mov	esi, esp
	mov	ecx, DWORD PTR _this$[ebp]
	call	DWORD PTR __imp_??1UnicodeSet@icu_56@@UAE@XZ
	cmp	esi, esp
	call	__RTC_CheckEsp
	mov	eax, DWORD PTR ___flags$[ebp]
	and	eax, 1
	je	SHORT $LN1@scalar@3
	mov	esi, esp
	mov	eax, DWORD PTR _this$[ebp]
	push	eax
	call	DWORD PTR __imp_??3UMemory@icu_56@@SAXPAX@Z
	add	esp, 4
	cmp	esi, esp
	call	__RTC_CheckEsp
$LN1@scalar@3:
	mov	eax, DWORD PTR _this$[ebp]
	pop	edi
	pop	esi
	pop	ebx
	add	esp, 204				; 000000ccH
	cmp	ebp, esp
	call	__RTC_CheckEsp
	mov	esp, ebp
	pop	ebp
	ret	4
??_GUnicodeSet@icu_56@@UAEPAXI@Z ENDP			; icu_56::UnicodeSet::`scalar deleting destructor'
_TEXT	ENDS
PUBLIC	??_GSPUStringPool@icu_56@@QAEPAXI@Z		; icu_56::SPUStringPool::`scalar deleting destructor'
PUBLIC	??1ConfusabledataBuilder@icu_56@@AAE@XZ		; icu_56::ConfusabledataBuilder::~ConfusabledataBuilder
EXTRN	_uregex_close_56:PROC
EXTRN	_uprv_free_56:PROC
; Function compile flags: /Odtp /RTCsu /ZI
;	COMDAT ??1ConfusabledataBuilder@icu_56@@AAE@XZ
_TEXT	SEGMENT
tv175 = -352						; size = 4
tv169 = -352						; size = 4
tv157 = -352						; size = 4
tv145 = -352						; size = 4
tv133 = -352						; size = 4
tv89 = -352						; size = 4
$T79175 = -344						; size = 4
$T79176 = -332						; size = 4
$T79179 = -320						; size = 4
$T79180 = -308						; size = 4
$T79183 = -296						; size = 4
$T79184 = -284						; size = 4
$T79187 = -272						; size = 4
$T79188 = -260						; size = 4
$T79191 = -248						; size = 4
$T79192 = -236						; size = 4
$T79195 = -224						; size = 4
$T79196 = -212						; size = 4
_this$ = -8						; size = 4
??1ConfusabledataBuilder@icu_56@@AAE@XZ PROC		; icu_56::ConfusabledataBuilder::~ConfusabledataBuilder, COMDAT
; _this$ = ecx
; File d:\mozilla\intl\icu\source\i18n\uspoof_conf.cpp
; Line 174
	push	ebp
	mov	ebp, esp
	sub	esp, 352				; 00000160H
	push	ebx
	push	esi
	push	edi
	push	ecx
	lea	edi, DWORD PTR [ebp-352]
	mov	ecx, 88					; 00000058H
	mov	eax, -858993460				; ccccccccH
	rep stosd
	pop	ecx
	mov	DWORD PTR _this$[ebp], ecx
; Line 175
	mov	eax, DWORD PTR _this$[ebp]
	mov	ecx, DWORD PTR [eax+4]
	push	ecx
	call	_uprv_free_56
	add	esp, 4
; Line 176
	mov	eax, DWORD PTR _this$[ebp]
	mov	ecx, DWORD PTR [eax+48]
	push	ecx
	call	_uregex_close_56
	add	esp, 4
; Line 177
	mov	eax, DWORD PTR _this$[ebp]
	mov	ecx, DWORD PTR [eax+52]
	push	ecx
	call	_uregex_close_56
	add	esp, 4
; Line 178
	mov	eax, DWORD PTR _this$[ebp]
	mov	ecx, DWORD PTR [eax+8]
	push	ecx
	call	_uhash_close_56
	add	esp, 4
; Line 179
	mov	eax, DWORD PTR _this$[ebp]
	mov	ecx, DWORD PTR [eax+12]
	push	ecx
	call	_uhash_close_56
	add	esp, 4
; Line 180
	mov	eax, DWORD PTR _this$[ebp]
	mov	ecx, DWORD PTR [eax+16]
	push	ecx
	call	_uhash_close_56
	add	esp, 4
; Line 181
	mov	eax, DWORD PTR _this$[ebp]
	mov	ecx, DWORD PTR [eax+20]
	push	ecx
	call	_uhash_close_56
	add	esp, 4
; Line 182
	mov	eax, DWORD PTR _this$[ebp]
	mov	ecx, DWORD PTR [eax+24]
	mov	DWORD PTR $T79176[ebp], ecx
	mov	edx, DWORD PTR $T79176[ebp]
	mov	DWORD PTR $T79175[ebp], edx
	cmp	DWORD PTR $T79175[ebp], 0
	je	SHORT $LN3@Confusable@2
	mov	esi, esp
	push	1
	mov	eax, DWORD PTR $T79175[ebp]
	mov	edx, DWORD PTR [eax]
	mov	ecx, DWORD PTR $T79175[ebp]
	mov	eax, DWORD PTR [edx]
	call	eax
	cmp	esi, esp
	call	__RTC_CheckEsp
	mov	DWORD PTR tv89[ebp], eax
	jmp	SHORT $LN4@Confusable@2
$LN3@Confusable@2:
	mov	DWORD PTR tv89[ebp], 0
$LN4@Confusable@2:
; Line 183
	mov	eax, DWORD PTR _this$[ebp]
	mov	ecx, DWORD PTR [eax+28]
	mov	DWORD PTR $T79180[ebp], ecx
	mov	edx, DWORD PTR $T79180[ebp]
	mov	DWORD PTR $T79179[ebp], edx
	cmp	DWORD PTR $T79179[ebp], 0
	je	SHORT $LN5@Confusable@2
	mov	esi, esp
	push	1
	mov	eax, DWORD PTR $T79179[ebp]
	mov	edx, DWORD PTR [eax]
	mov	ecx, DWORD PTR $T79179[ebp]
	mov	eax, DWORD PTR [edx]
	call	eax
	cmp	esi, esp
	call	__RTC_CheckEsp
	mov	DWORD PTR tv133[ebp], eax
	jmp	SHORT $LN6@Confusable@2
$LN5@Confusable@2:
	mov	DWORD PTR tv133[ebp], 0
$LN6@Confusable@2:
; Line 184
	mov	eax, DWORD PTR _this$[ebp]
	mov	ecx, DWORD PTR [eax+36]
	mov	DWORD PTR $T79184[ebp], ecx
	mov	edx, DWORD PTR $T79184[ebp]
	mov	DWORD PTR $T79183[ebp], edx
	cmp	DWORD PTR $T79183[ebp], 0
	je	SHORT $LN7@Confusable@2
	mov	esi, esp
	push	1
	mov	eax, DWORD PTR $T79183[ebp]
	mov	edx, DWORD PTR [eax]
	mov	ecx, DWORD PTR $T79183[ebp]
	mov	eax, DWORD PTR [edx]
	call	eax
	cmp	esi, esp
	call	__RTC_CheckEsp
	mov	DWORD PTR tv145[ebp], eax
	jmp	SHORT $LN8@Confusable@2
$LN7@Confusable@2:
	mov	DWORD PTR tv145[ebp], 0
$LN8@Confusable@2:
; Line 185
	mov	eax, DWORD PTR _this$[ebp]
	mov	ecx, DWORD PTR [eax+40]
	mov	DWORD PTR $T79188[ebp], ecx
	mov	edx, DWORD PTR $T79188[ebp]
	mov	DWORD PTR $T79187[ebp], edx
	cmp	DWORD PTR $T79187[ebp], 0
	je	SHORT $LN9@Confusable@2
	mov	esi, esp
	push	1
	mov	eax, DWORD PTR $T79187[ebp]
	mov	edx, DWORD PTR [eax]
	mov	ecx, DWORD PTR $T79187[ebp]
	mov	eax, DWORD PTR [edx]
	call	eax
	cmp	esi, esp
	call	__RTC_CheckEsp
	mov	DWORD PTR tv157[ebp], eax
	jmp	SHORT $LN10@Confusable@2
$LN9@Confusable@2:
	mov	DWORD PTR tv157[ebp], 0
$LN10@Confusable@2:
; Line 186
	mov	eax, DWORD PTR _this$[ebp]
	mov	ecx, DWORD PTR [eax+32]
	mov	DWORD PTR $T79192[ebp], ecx
	mov	edx, DWORD PTR $T79192[ebp]
	mov	DWORD PTR $T79191[ebp], edx
	cmp	DWORD PTR $T79191[ebp], 0
	je	SHORT $LN11@Confusable@2
	mov	esi, esp
	push	1
	mov	eax, DWORD PTR $T79191[ebp]
	mov	edx, DWORD PTR [eax]
	mov	ecx, DWORD PTR $T79191[ebp]
	mov	eax, DWORD PTR [edx]
	call	eax
	cmp	esi, esp
	call	__RTC_CheckEsp
	mov	DWORD PTR tv169[ebp], eax
	jmp	SHORT $LN12@Confusable@2
$LN11@Confusable@2:
	mov	DWORD PTR tv169[ebp], 0
$LN12@Confusable@2:
; Line 187
	mov	eax, DWORD PTR _this$[ebp]
	mov	ecx, DWORD PTR [eax+44]
	mov	DWORD PTR $T79196[ebp], ecx
	mov	edx, DWORD PTR $T79196[ebp]
	mov	DWORD PTR $T79195[ebp], edx
	cmp	DWORD PTR $T79195[ebp], 0
	je	SHORT $LN13@Confusable@2
	push	1
	mov	ecx, DWORD PTR $T79195[ebp]
	call	??_GSPUStringPool@icu_56@@QAEPAXI@Z
	mov	DWORD PTR tv175[ebp], eax
	jmp	SHORT $LN1@Confusable@2
$LN13@Confusable@2:
	mov	DWORD PTR tv175[ebp], 0
$LN1@Confusable@2:
; Line 188
	pop	edi
	pop	esi
	pop	ebx
	add	esp, 352				; 00000160H
	cmp	ebp, esp
	call	__RTC_CheckEsp
	mov	esp, ebp
	pop	ebp
	ret	0
??1ConfusabledataBuilder@icu_56@@AAE@XZ ENDP		; icu_56::ConfusabledataBuilder::~ConfusabledataBuilder
; Function compile flags: /Odtp /RTCsu /ZI
_TEXT	ENDS
;	COMDAT ??_GSPUStringPool@icu_56@@QAEPAXI@Z
_TEXT	SEGMENT
_this$ = -8						; size = 4
___flags$ = 8						; size = 4
??_GSPUStringPool@icu_56@@QAEPAXI@Z PROC		; icu_56::SPUStringPool::`scalar deleting destructor', COMDAT
; _this$ = ecx
	push	ebp
	mov	ebp, esp
	sub	esp, 204				; 000000ccH
	push	ebx
	push	esi
	push	edi
	push	ecx
	lea	edi, DWORD PTR [ebp-204]
	mov	ecx, 51					; 00000033H
	mov	eax, -858993460				; ccccccccH
	rep stosd
	pop	ecx
	mov	DWORD PTR _this$[ebp], ecx
	mov	ecx, DWORD PTR _this$[ebp]
	call	??1SPUStringPool@icu_56@@QAE@XZ		; icu_56::SPUStringPool::~SPUStringPool
	mov	eax, DWORD PTR ___flags$[ebp]
	and	eax, 1
	je	SHORT $LN1@scalar@4
	mov	esi, esp
	mov	eax, DWORD PTR _this$[ebp]
	push	eax
	call	DWORD PTR __imp_??3UMemory@icu_56@@SAXPAX@Z
	add	esp, 4
	cmp	esi, esp
	call	__RTC_CheckEsp
$LN1@scalar@4:
	mov	eax, DWORD PTR _this$[ebp]
	pop	edi
	pop	esi
	pop	ebx
	add	esp, 204				; 000000ccH
	cmp	ebp, esp
	call	__RTC_CheckEsp
	mov	esp, ebp
	pop	ebp
	ret	4
??_GSPUStringPool@icu_56@@QAEPAXI@Z ENDP		; icu_56::SPUStringPool::`scalar deleting destructor'
_TEXT	ENDS
PUBLIC	?build@ConfusabledataBuilder@icu_56@@AAEXPBDHAAW4UErrorCode@@@Z ; icu_56::ConfusabledataBuilder::build
PUBLIC	?buildConfusableData@ConfusabledataBuilder@icu_56@@SAXPAVSpoofImpl@2@PBDHPAHPAUUParseError@@AAW4UErrorCode@@@Z ; icu_56::ConfusabledataBuilder::buildConfusableData
EXTRN	@_RTC_CheckStackVars@8:PROC
;	COMDAT xdata$x
xdata$x	SEGMENT
__unwindtable$?buildConfusableData@ConfusabledataBuilder@icu_56@@SAXPAVSpoofImpl@2@PBDHPAHPAUUParseError@@AAW4UErrorCode@@@Z DD 0ffffffffH
	DD	FLAT:__unwindfunclet$?buildConfusableData@ConfusabledataBuilder@icu_56@@SAXPAVSpoofImpl@2@PBDHPAHPAUUParseError@@AAW4UErrorCode@@@Z$0
__ehfuncinfo$?buildConfusableData@ConfusabledataBuilder@icu_56@@SAXPAVSpoofImpl@2@PBDHPAHPAUUParseError@@AAW4UErrorCode@@@Z DD 019930522H
	DD	01H
	DD	FLAT:__unwindtable$?buildConfusableData@ConfusabledataBuilder@icu_56@@SAXPAVSpoofImpl@2@PBDHPAHPAUUParseError@@AAW4UErrorCode@@@Z
	DD	2 DUP(00H)
	DD	2 DUP(00H)
	DD	00H
	DD	01H
; Function compile flags: /Odtp /RTCsu /ZI
xdata$x	ENDS
;	COMDAT ?buildConfusableData@ConfusabledataBuilder@icu_56@@SAXPAVSpoofImpl@2@PBDHPAHPAUUParseError@@AAW4UErrorCode@@@Z
_TEXT	SEGMENT
_builder$ = -76						; size = 60
__$EHRec$ = -12						; size = 12
_spImpl$ = 8						; size = 4
_confusables$ = 12					; size = 4
_confusablesLen$ = 16					; size = 4
_errorType$ = 20					; size = 4
_pe$ = 24						; size = 4
_status$ = 28						; size = 4
?buildConfusableData@ConfusabledataBuilder@icu_56@@SAXPAVSpoofImpl@2@PBDHPAHPAUUParseError@@AAW4UErrorCode@@@Z PROC ; icu_56::ConfusabledataBuilder::buildConfusableData, COMDAT
; Line 192
	push	ebp
	mov	ebp, esp
	push	-1
	push	__ehhandler$?buildConfusableData@ConfusabledataBuilder@icu_56@@SAXPAVSpoofImpl@2@PBDHPAHPAUUParseError@@AAW4UErrorCode@@@Z
	mov	eax, DWORD PTR fs:0
	push	eax
	sub	esp, 260				; 00000104H
	push	ebx
	push	esi
	push	edi
	lea	edi, DWORD PTR [ebp-272]
	mov	ecx, 65					; 00000041H
	mov	eax, -858993460				; ccccccccH
	rep stosd
	mov	eax, DWORD PTR ___security_cookie
	xor	eax, ebp
	push	eax
	lea	eax, DWORD PTR __$EHRec$[ebp]
	mov	DWORD PTR fs:0, eax
; Line 194
	mov	eax, DWORD PTR _status$[ebp]
	mov	ecx, DWORD PTR [eax]
	push	ecx
	call	?U_FAILURE@@YACW4UErrorCode@@@Z		; U_FAILURE
	add	esp, 4
	movsx	edx, al
	test	edx, edx
	je	SHORT $LN2@buildConfu
; Line 195
	jmp	SHORT $LN3@buildConfu
$LN2@buildConfu:
; Line 197
	mov	eax, DWORD PTR _status$[ebp]
	push	eax
	mov	ecx, DWORD PTR _spImpl$[ebp]
	push	ecx
	lea	ecx, DWORD PTR _builder$[ebp]
	call	??0ConfusabledataBuilder@icu_56@@AAE@PAVSpoofImpl@1@AAW4UErrorCode@@@Z ; icu_56::ConfusabledataBuilder::ConfusabledataBuilder
	mov	DWORD PTR __$EHRec$[ebp+8], 0
; Line 198
	mov	eax, DWORD PTR _status$[ebp]
	push	eax
	mov	ecx, DWORD PTR _confusablesLen$[ebp]
	push	ecx
	mov	edx, DWORD PTR _confusables$[ebp]
	push	edx
	lea	ecx, DWORD PTR _builder$[ebp]
	call	?build@ConfusabledataBuilder@icu_56@@AAEXPBDHAAW4UErrorCode@@@Z ; icu_56::ConfusabledataBuilder::build
; Line 199
	mov	eax, DWORD PTR _status$[ebp]
	mov	ecx, DWORD PTR [eax]
	push	ecx
	call	?U_FAILURE@@YACW4UErrorCode@@@Z		; U_FAILURE
	add	esp, 4
	movsx	edx, al
	test	edx, edx
	je	SHORT $LN1@buildConfu
	cmp	DWORD PTR _errorType$[ebp], 0
	je	SHORT $LN1@buildConfu
; Line 200
	mov	eax, DWORD PTR _errorType$[ebp]
	mov	DWORD PTR [eax], 1
; Line 201
	mov	eax, DWORD PTR _pe$[ebp]
	mov	ecx, DWORD PTR _builder$[ebp+56]
	mov	DWORD PTR [eax], ecx
$LN1@buildConfu:
; Line 203
	mov	DWORD PTR __$EHRec$[ebp+8], -1
	lea	ecx, DWORD PTR _builder$[ebp]
	call	??1ConfusabledataBuilder@icu_56@@AAE@XZ	; icu_56::ConfusabledataBuilder::~ConfusabledataBuilder
$LN3@buildConfu:
	push	edx
	mov	ecx, ebp
	push	eax
	lea	edx, DWORD PTR $LN9@buildConfu
	call	@_RTC_CheckStackVars@8
	pop	eax
	pop	edx
	mov	ecx, DWORD PTR __$EHRec$[ebp]
	mov	DWORD PTR fs:0, ecx
	pop	ecx
	pop	edi
	pop	esi
	pop	ebx
	add	esp, 272				; 00000110H
	cmp	ebp, esp
	call	__RTC_CheckEsp
	mov	esp, ebp
	pop	ebp
	ret	0
	npad	2
$LN9@buildConfu:
	DD	1
	DD	$LN8@buildConfu
$LN8@buildConfu:
	DD	-76					; ffffffb4H
	DD	60					; 0000003cH
	DD	$LN6@buildConfu
$LN6@buildConfu:
	DB	98					; 00000062H
	DB	117					; 00000075H
	DB	105					; 00000069H
	DB	108					; 0000006cH
	DB	100					; 00000064H
	DB	101					; 00000065H
	DB	114					; 00000072H
	DB	0
_TEXT	ENDS
;	COMDAT text$x
text$x	SEGMENT
__unwindfunclet$?buildConfusableData@ConfusabledataBuilder@icu_56@@SAXPAVSpoofImpl@2@PBDHPAHPAUUParseError@@AAW4UErrorCode@@@Z$0:
	lea	ecx, DWORD PTR _builder$[ebp]
	jmp	??1ConfusabledataBuilder@icu_56@@AAE@XZ	; icu_56::ConfusabledataBuilder::~ConfusabledataBuilder
__ehhandler$?buildConfusableData@ConfusabledataBuilder@icu_56@@SAXPAVSpoofImpl@2@PBDHPAHPAUUParseError@@AAW4UErrorCode@@@Z:
	mov	edx, DWORD PTR [esp+8]
	lea	eax, DWORD PTR [edx+12]
	mov	ecx, DWORD PTR [edx-276]
	xor	ecx, eax
	call	@__security_check_cookie@4
	mov	eax, OFFSET __ehfuncinfo$?buildConfusableData@ConfusabledataBuilder@icu_56@@SAXPAVSpoofImpl@2@PBDHPAHPAUUParseError@@AAW4UErrorCode@@@Z
	jmp	___CxxFrameHandler3
text$x	ENDS
?buildConfusableData@ConfusabledataBuilder@icu_56@@SAXPAVSpoofImpl@2@PBDHPAHPAUUParseError@@AAW4UErrorCode@@@Z ENDP ; icu_56::ConfusabledataBuilder::buildConfusableData
PUBLIC	?outputData@ConfusabledataBuilder@icu_56@@AAEXAAW4UErrorCode@@@Z ; icu_56::ConfusabledataBuilder::outputData
PUBLIC	?addKeyEntry@ConfusabledataBuilder@icu_56@@AAEXHPAUUHashtable@@HAAW4UErrorCode@@@Z ; icu_56::ConfusabledataBuilder::addKeyEntry
PUBLIC	??_C@_1DO@OHGGIPGL@?$AAs?$AAt?$AAr?$AAL?$AAe?$AAn?$AA?5?$AA?$DO?$AA?$DN?$AA?5?$AAp?$AAr?$AAe?$AAv?$AAi?$AAo?$AAu?$AAs?$AAS?$AAt?$AAr?$AAi?$AAn?$AAg?$AAL?$AAe?$AAn?$AAg?$AAt?$AAh?$AA?$AA@ ; `string'
PUBLIC	??_C@_1DC@LLEAIBEE@?$AAm?$AAa?$AAp?$AAS?$AAt?$AAr?$AAi?$AAn?$AAg?$AA?9?$AA?$DO?$AAl?$AAe?$AAn?$AAg?$AAt?$AAh?$AA?$CI?$AA?$CJ?$AA?5?$AA?$DO?$AA?$DN?$AA?5?$AA1?$AA?$AA@ ; `string'
PUBLIC	??_C@_1GA@LKJJAIHM@?$AAd?$AA?3?$AA?2?$AAm?$AAo?$AAz?$AAi?$AAl?$AAl?$AAa?$AA?2?$AAi?$AAn?$AAt?$AAl?$AA?2?$AAi?$AAc?$AAu?$AA?2?$AAs?$AAo?$AAu?$AAr?$AAc?$AAe?$AA?2?$AAi?$AA1?$AA8?$AAn?$AA?2@ ; `string'
PUBLIC	?__LINE__Var@?1??build@ConfusabledataBuilder@icu_56@@AAEXPBDHAAW4UErrorCode@@@Z@4JA ; `icu_56::ConfusabledataBuilder::build'::`2'::__LINE__Var
PUBLIC	??_SUnicodeString@icu_56@@6B@			; icu_56::UnicodeString::`local vftable'
PUBLIC	??_C@_1BO@NDMHNCLP@?$AA?2?$AAs?$AA?$CK?$AA?$CI?$AA?$FL?$AA0?$AA?9?$AA9?$AAA?$AA?9?$AAF?$AA?$FN?$AA?$CL?$AA?$CJ?$AA?$AA@ ; `string'
PUBLIC	??_C@_0JJ@EFNHDDFM@?$CI?$DPm?$CJ?$FO?$FL?5?2t?$FN?$CK?$CI?$FL0?99A?9Fa?9f?$FN?$CL?$CJ?$FL?5?2t?$FN?$CL?$DL@ ; `string'
PUBLIC	__$ArrayPad$
PUBLIC	??_R4UnicodeString@icu_56@@6B@			; icu_56::UnicodeString::`RTTI Complete Object Locator'
PUBLIC	??_R0?AVUnicodeString@icu_56@@@8		; icu_56::UnicodeString `RTTI Type Descriptor'
PUBLIC	??_R3UnicodeString@icu_56@@8			; icu_56::UnicodeString::`RTTI Class Hierarchy Descriptor'
PUBLIC	??_R2UnicodeString@icu_56@@8			; icu_56::UnicodeString::`RTTI Base Class Array'
PUBLIC	??_R1A@?0A@EA@UnicodeString@icu_56@@8		; icu_56::UnicodeString::`RTTI Base Class Descriptor at (0,-1,0,64)'
PUBLIC	??_R1A@?0A@EA@Replaceable@icu_56@@8		; icu_56::Replaceable::`RTTI Base Class Descriptor at (0,-1,0,64)'
PUBLIC	??_R0?AVReplaceable@icu_56@@@8			; icu_56::Replaceable `RTTI Type Descriptor'
PUBLIC	??_R3Replaceable@icu_56@@8			; icu_56::Replaceable::`RTTI Class Hierarchy Descriptor'
PUBLIC	??_R2Replaceable@icu_56@@8			; icu_56::Replaceable::`RTTI Base Class Array'
EXTRN	__imp_?append@UnicodeString@icu_56@@QAEAAV12@ABV12@@Z:PROC
EXTRN	__imp_?addElement@UVector@icu_56@@QAEXHAAW4UErrorCode@@@Z:PROC
EXTRN	__imp_?charAt@UnicodeString@icu_56@@QBE_WH@Z:PROC
EXTRN	__imp_?add@UnicodeSet@icu_56@@QAEAAV12@H@Z:PROC
EXTRN	_uhash_iput_56:PROC
EXTRN	__imp___wassert:PROC
EXTRN	__imp_?append@UnicodeString@icu_56@@QAEAAV12@H@Z:PROC
EXTRN	__imp_??0UnicodeString@icu_56@@QAE@XZ:PROC
EXTRN	?ScanHex@SpoofImpl@icu_56@@SAHPB_WHHAAW4UErrorCode@@@Z:PROC ; icu_56::SpoofImpl::ScanHex
EXTRN	_uregex_end_56:PROC
EXTRN	_uregex_start_56:PROC
EXTRN	_uregex_findNext_56:PROC
EXTRN	_uregex_setText_56:PROC
EXTRN	__imp_??1UnicodeString@icu_56@@UAE@XZ:PROC
EXTRN	__imp_??4UnicodeString@icu_56@@QAEAAV01@$$QAV01@@Z:PROC
EXTRN	__imp_??0UnicodeString@icu_56@@QAE@CPB_WH@Z:PROC
EXTRN	_uregex_open_56:PROC
EXTRN	__imp_?getBuffer@UnicodeString@icu_56@@QBEPB_WXZ:PROC
EXTRN	__imp_??0UnicodeString@icu_56@@QAE@PBDHW4EInvariant@01@@Z:PROC
EXTRN	_uprv_malloc_56:PROC
EXTRN	_u_strFromUTF8_56:PROC
EXTRN	??_EUnicodeString@icu_56@@UAEPAXI@Z:PROC	; icu_56::UnicodeString::`vector deleting destructor'
EXTRN	?getDynamicClassID@UnicodeString@icu_56@@UBEPAXXZ:PROC ; icu_56::UnicodeString::getDynamicClassID
EXTRN	?extractBetween@UnicodeString@icu_56@@UBEXHHAAV12@@Z:PROC ; icu_56::UnicodeString::extractBetween
EXTRN	?handleReplaceBetween@UnicodeString@icu_56@@UAEXHHABV12@@Z:PROC ; icu_56::UnicodeString::handleReplaceBetween
EXTRN	?copy@UnicodeString@icu_56@@UAEXHHH@Z:PROC	; icu_56::UnicodeString::copy
EXTRN	?hasMetaData@UnicodeString@icu_56@@UBECXZ:PROC	; icu_56::UnicodeString::hasMetaData
EXTRN	?clone@UnicodeString@icu_56@@UBEPAVReplaceable@2@XZ:PROC ; icu_56::UnicodeString::clone
EXTRN	?getLength@UnicodeString@icu_56@@MBEHXZ:PROC	; icu_56::UnicodeString::getLength
EXTRN	?getCharAt@UnicodeString@icu_56@@MBE_WH@Z:PROC	; icu_56::UnicodeString::getCharAt
EXTRN	?getChar32At@UnicodeString@icu_56@@MBEHH@Z:PROC	; icu_56::UnicodeString::getChar32At
;	COMDAT ??_R2Replaceable@icu_56@@8
rdata$r	SEGMENT
??_R2Replaceable@icu_56@@8 DD FLAT:??_R1A@?0A@EA@Replaceable@icu_56@@8 ; icu_56::Replaceable::`RTTI Base Class Array'
	DD	FLAT:??_R1A@?0A@EA@UObject@icu_56@@8
	DD	FLAT:??_R13?0A@EA@UMemory@icu_56@@8
rdata$r	ENDS
;	COMDAT ??_R3Replaceable@icu_56@@8
rdata$r	SEGMENT
??_R3Replaceable@icu_56@@8 DD 00H			; icu_56::Replaceable::`RTTI Class Hierarchy Descriptor'
	DD	00H
	DD	03H
	DD	FLAT:??_R2Replaceable@icu_56@@8
rdata$r	ENDS
;	COMDAT ??_R0?AVReplaceable@icu_56@@@8
_DATA	SEGMENT
??_R0?AVReplaceable@icu_56@@@8 DD FLAT:??_7type_info@@6B@ ; icu_56::Replaceable `RTTI Type Descriptor'
	DD	00H
	DB	'.?AVReplaceable@icu_56@@', 00H
_DATA	ENDS
;	COMDAT ??_R1A@?0A@EA@Replaceable@icu_56@@8
rdata$r	SEGMENT
??_R1A@?0A@EA@Replaceable@icu_56@@8 DD FLAT:??_R0?AVReplaceable@icu_56@@@8 ; icu_56::Replaceable::`RTTI Base Class Descriptor at (0,-1,0,64)'
	DD	02H
	DD	00H
	DD	0ffffffffH
	DD	00H
	DD	040H
	DD	FLAT:??_R3Replaceable@icu_56@@8
rdata$r	ENDS
;	COMDAT ??_R1A@?0A@EA@UnicodeString@icu_56@@8
rdata$r	SEGMENT
??_R1A@?0A@EA@UnicodeString@icu_56@@8 DD FLAT:??_R0?AVUnicodeString@icu_56@@@8 ; icu_56::UnicodeString::`RTTI Base Class Descriptor at (0,-1,0,64)'
	DD	03H
	DD	00H
	DD	0ffffffffH
	DD	00H
	DD	040H
	DD	FLAT:??_R3UnicodeString@icu_56@@8
rdata$r	ENDS
;	COMDAT ??_R2UnicodeString@icu_56@@8
rdata$r	SEGMENT
??_R2UnicodeString@icu_56@@8 DD FLAT:??_R1A@?0A@EA@UnicodeString@icu_56@@8 ; icu_56::UnicodeString::`RTTI Base Class Array'
	DD	FLAT:??_R1A@?0A@EA@Replaceable@icu_56@@8
	DD	FLAT:??_R1A@?0A@EA@UObject@icu_56@@8
	DD	FLAT:??_R13?0A@EA@UMemory@icu_56@@8
rdata$r	ENDS
;	COMDAT ??_R3UnicodeString@icu_56@@8
rdata$r	SEGMENT
??_R3UnicodeString@icu_56@@8 DD 00H			; icu_56::UnicodeString::`RTTI Class Hierarchy Descriptor'
	DD	00H
	DD	04H
	DD	FLAT:??_R2UnicodeString@icu_56@@8
rdata$r	ENDS
;	COMDAT ??_R0?AVUnicodeString@icu_56@@@8
_DATA	SEGMENT
??_R0?AVUnicodeString@icu_56@@@8 DD FLAT:??_7type_info@@6B@ ; icu_56::UnicodeString `RTTI Type Descriptor'
	DD	00H
	DB	'.?AVUnicodeString@icu_56@@', 00H
_DATA	ENDS
;	COMDAT ??_R4UnicodeString@icu_56@@6B@
rdata$r	SEGMENT
??_R4UnicodeString@icu_56@@6B@ DD 00H			; icu_56::UnicodeString::`RTTI Complete Object Locator'
	DD	00H
	DD	00H
	DD	FLAT:??_R0?AVUnicodeString@icu_56@@@8
	DD	FLAT:??_R3UnicodeString@icu_56@@8
rdata$r	ENDS
;	COMDAT ??_C@_1DO@OHGGIPGL@?$AAs?$AAt?$AAr?$AAL?$AAe?$AAn?$AA?5?$AA?$DO?$AA?$DN?$AA?5?$AAp?$AAr?$AAe?$AAv?$AAi?$AAo?$AAu?$AAs?$AAS?$AAt?$AAr?$AAi?$AAn?$AAg?$AAL?$AAe?$AAn?$AAg?$AAt?$AAh?$AA?$AA@
CONST	SEGMENT
??_C@_1DO@OHGGIPGL@?$AAs?$AAt?$AAr?$AAL?$AAe?$AAn?$AA?5?$AA?$DO?$AA?$DN?$AA?5?$AAp?$AAr?$AAe?$AAv?$AAi?$AAo?$AAu?$AAs?$AAS?$AAt?$AAr?$AAi?$AAn?$AAg?$AAL?$AAe?$AAn?$AAg?$AAt?$AAh?$AA?$AA@ DB 's'
	DB	00H, 't', 00H, 'r', 00H, 'L', 00H, 'e', 00H, 'n', 00H, ' ', 00H
	DB	'>', 00H, '=', 00H, ' ', 00H, 'p', 00H, 'r', 00H, 'e', 00H, 'v'
	DB	00H, 'i', 00H, 'o', 00H, 'u', 00H, 's', 00H, 'S', 00H, 't', 00H
	DB	'r', 00H, 'i', 00H, 'n', 00H, 'g', 00H, 'L', 00H, 'e', 00H, 'n'
	DB	00H, 'g', 00H, 't', 00H, 'h', 00H, 00H, 00H	; `string'
CONST	ENDS
;	COMDAT ??_C@_1DC@LLEAIBEE@?$AAm?$AAa?$AAp?$AAS?$AAt?$AAr?$AAi?$AAn?$AAg?$AA?9?$AA?$DO?$AAl?$AAe?$AAn?$AAg?$AAt?$AAh?$AA?$CI?$AA?$CJ?$AA?5?$AA?$DO?$AA?$DN?$AA?5?$AA1?$AA?$AA@
CONST	SEGMENT
??_C@_1DC@LLEAIBEE@?$AAm?$AAa?$AAp?$AAS?$AAt?$AAr?$AAi?$AAn?$AAg?$AA?9?$AA?$DO?$AAl?$AAe?$AAn?$AAg?$AAt?$AAh?$AA?$CI?$AA?$CJ?$AA?5?$AA?$DO?$AA?$DN?$AA?5?$AA1?$AA?$AA@ DB 'm'
	DB	00H, 'a', 00H, 'p', 00H, 'S', 00H, 't', 00H, 'r', 00H, 'i', 00H
	DB	'n', 00H, 'g', 00H, '-', 00H, '>', 00H, 'l', 00H, 'e', 00H, 'n'
	DB	00H, 'g', 00H, 't', 00H, 'h', 00H, '(', 00H, ')', 00H, ' ', 00H
	DB	'>', 00H, '=', 00H, ' ', 00H, '1', 00H, 00H, 00H ; `string'
CONST	ENDS
;	COMDAT ??_C@_1GA@LKJJAIHM@?$AAd?$AA?3?$AA?2?$AAm?$AAo?$AAz?$AAi?$AAl?$AAl?$AAa?$AA?2?$AAi?$AAn?$AAt?$AAl?$AA?2?$AAi?$AAc?$AAu?$AA?2?$AAs?$AAo?$AAu?$AAr?$AAc?$AAe?$AA?2?$AAi?$AA1?$AA8?$AAn?$AA?2@
CONST	SEGMENT
??_C@_1GA@LKJJAIHM@?$AAd?$AA?3?$AA?2?$AAm?$AAo?$AAz?$AAi?$AAl?$AAl?$AAa?$AA?2?$AAi?$AAn?$AAt?$AAl?$AA?2?$AAi?$AAc?$AAu?$AA?2?$AAs?$AAo?$AAu?$AAr?$AAc?$AAe?$AA?2?$AAi?$AA1?$AA8?$AAn?$AA?2@ DB 'd'
	DB	00H, ':', 00H, '\', 00H, 'm', 00H, 'o', 00H, 'z', 00H, 'i', 00H
	DB	'l', 00H, 'l', 00H, 'a', 00H, '\', 00H, 'i', 00H, 'n', 00H, 't'
	DB	00H, 'l', 00H, '\', 00H, 'i', 00H, 'c', 00H, 'u', 00H, '\', 00H
	DB	's', 00H, 'o', 00H, 'u', 00H, 'r', 00H, 'c', 00H, 'e', 00H, '\'
	DB	00H, 'i', 00H, '1', 00H, '8', 00H, 'n', 00H, '\', 00H, 'u', 00H
	DB	's', 00H, 'p', 00H, 'o', 00H, 'o', 00H, 'f', 00H, '_', 00H, 'c'
	DB	00H, 'o', 00H, 'n', 00H, 'f', 00H, '.', 00H, 'c', 00H, 'p', 00H
	DB	'p', 00H, 00H, 00H				; `string'
CONST	ENDS
;	COMDAT ?__LINE__Var@?1??build@ConfusabledataBuilder@icu_56@@AAEXPBDHAAW4UErrorCode@@@Z@4JA
_DATA	SEGMENT
?__LINE__Var@?1??build@ConfusabledataBuilder@icu_56@@AAEXPBDHAAW4UErrorCode@@@Z@4JA DD 0cfH ; `icu_56::ConfusabledataBuilder::build'::`2'::__LINE__Var
_DATA	ENDS
;	COMDAT ??_SUnicodeString@icu_56@@6B@
CONST	SEGMENT
??_SUnicodeString@icu_56@@6B@ DD FLAT:??_R4UnicodeString@icu_56@@6B@ ; icu_56::UnicodeString::`local vftable'
	DD	FLAT:??_EUnicodeString@icu_56@@UAEPAXI@Z
	DD	FLAT:?getDynamicClassID@UnicodeString@icu_56@@UBEPAXXZ
	DD	FLAT:?extractBetween@UnicodeString@icu_56@@UBEXHHAAV12@@Z
	DD	FLAT:?handleReplaceBetween@UnicodeString@icu_56@@UAEXHHABV12@@Z
	DD	FLAT:?copy@UnicodeString@icu_56@@UAEXHHH@Z
	DD	FLAT:?hasMetaData@UnicodeString@icu_56@@UBECXZ
	DD	FLAT:?clone@UnicodeString@icu_56@@UBEPAVReplaceable@2@XZ
	DD	FLAT:?getLength@UnicodeString@icu_56@@MBEHXZ
	DD	FLAT:?getCharAt@UnicodeString@icu_56@@MBE_WH@Z
	DD	FLAT:?getChar32At@UnicodeString@icu_56@@MBEHH@Z
CONST	ENDS
;	COMDAT ??_C@_1BO@NDMHNCLP@?$AA?2?$AAs?$AA?$CK?$AA?$CI?$AA?$FL?$AA0?$AA?9?$AA9?$AAA?$AA?9?$AAF?$AA?$FN?$AA?$CL?$AA?$CJ?$AA?$AA@
CONST	SEGMENT
??_C@_1BO@NDMHNCLP@?$AA?2?$AAs?$AA?$CK?$AA?$CI?$AA?$FL?$AA0?$AA?9?$AA9?$AAA?$AA?9?$AAF?$AA?$FN?$AA?$CL?$AA?$CJ?$AA?$AA@ DB '\'
	DB	00H, 's', 00H, '*', 00H, '(', 00H, '[', 00H, '0', 00H, '-', 00H
	DB	'9', 00H, 'A', 00H, '-', 00H, 'F', 00H, ']', 00H, '+', 00H, ')'
	DB	00H, 00H, 00H				; `string'
CONST	ENDS
;	COMDAT ??_C@_0JJ@EFNHDDFM@?$CI?$DPm?$CJ?$FO?$FL?5?2t?$FN?$CK?$CI?$FL0?99A?9Fa?9f?$FN?$CL?$CJ?$FL?5?2t?$FN?$CL?$DL@
CONST	SEGMENT
??_C@_0JJ@EFNHDDFM@?$CI?$DPm?$CJ?$FO?$FL?5?2t?$FN?$CK?$CI?$FL0?99A?9Fa?9f?$FN?$CL?$CJ?$FL?5?2t?$FN?$CL?$DL@ DB '('
	DB	'?m)^[ \t]*([0-9A-Fa-f]+)[ \t]+;[ \t]*([0-9A-Fa-f]+(?:[ \t]+[0'
	DB	'-9A-Fa-f]+)*)[ \t]*;\s*(?:(SL)|(SA)|(ML)|(MA))[ \t]*(?:#.*?)?'
	DB	'$|^([ \t]*(?:#.*?)?)$|^(.*?)$', 00H		; `string'
CONST	ENDS
;	COMDAT xdata$x
xdata$x	SEGMENT
__ehfuncinfo$?build@ConfusabledataBuilder@icu_56@@AAEXPBDHAAW4UErrorCode@@@Z DD 019930522H
	DD	05H
	DD	FLAT:__unwindtable$?build@ConfusabledataBuilder@icu_56@@AAEXPBDHAAW4UErrorCode@@@Z
	DD	2 DUP(00H)
	DD	2 DUP(00H)
	DD	00H
	DD	01H
__unwindtable$?build@ConfusabledataBuilder@icu_56@@AAEXPBDHAAW4UErrorCode@@@Z DD 0ffffffffH
	DD	FLAT:__unwindfunclet$?build@ConfusabledataBuilder@icu_56@@AAEXPBDHAAW4UErrorCode@@@Z$0
	DD	00H
	DD	FLAT:__unwindfunclet$?build@ConfusabledataBuilder@icu_56@@AAEXPBDHAAW4UErrorCode@@@Z$1
	DD	00H
	DD	FLAT:__unwindfunclet$?build@ConfusabledataBuilder@icu_56@@AAEXPBDHAAW4UErrorCode@@@Z$2
	DD	00H
	DD	FLAT:__unwindfunclet$?build@ConfusabledataBuilder@icu_56@@AAEXPBDHAAW4UErrorCode@@@Z$3
	DD	00H
	DD	FLAT:__unwindfunclet$?build@ConfusabledataBuilder@icu_56@@AAEXPBDHAAW4UErrorCode@@@Z$4
; Function compile flags: /Odtp /RTCsu /ZI
xdata$x	ENDS
;	COMDAT ?build@ConfusabledataBuilder@icu_56@@AAEXPBDHAAW4UErrorCode@@@Z
_TEXT	SEGMENT
tv302 = -656						; size = 4
tv303 = -652						; size = 4
tv469 = -648						; size = 4
tv304 = -648						; size = 4
tv512 = -644						; size = 4
tv361 = -644						; size = 4
tv354 = -644						; size = 4
tv305 = -644						; size = 4
tv234 = -644						; size = 4
$T72036 = -636						; size = 64
$T79217 = -564						; size = 4
$T79218 = -552						; size = 4
$T79230 = -540						; size = 4
$T79231 = -528						; size = 4
$T79234 = -516						; size = 4
$T79235 = -504						; size = 4
_keyChar$72095 = -300					; size = 4
_range$72091 = -288					; size = 4
_strIndex$72084 = -276					; size = 4
_strLen$72083 = -264					; size = 4
_s$72082 = -252						; size = 4
_i$ = -240						; size = 4
_poolSize$ = -228					; size = 4
_previousStringIndex$ = -216				; size = 4
_previousStringLength$ = -204				; size = 4
_table$72062 = -192					; size = 4
_smapString$72061 = -180				; size = 4
_c$72056 = -168						; size = 4
_mapString$72047 = -156					; size = 4
_mapStringLength$72046 = -144				; size = 4
_mapStringStart$72045 = -132				; size = 4
_keyChar$72044 = -120					; size = 4
_pattern$ = -108					; size = 64
_inputLen$ = -36					; size = 4
_this$ = -24						; size = 4
__$ArrayPad$ = -16					; size = 4
__$EHRec$ = -12						; size = 12
_confusables$ = 8					; size = 4
_confusablesLen$ = 12					; size = 4
_status$ = 16						; size = 4
?build@ConfusabledataBuilder@icu_56@@AAEXPBDHAAW4UErrorCode@@@Z PROC ; icu_56::ConfusabledataBuilder::build, COMDAT
; _this$ = ecx
; Line 207
	push	ebp
	mov	ebp, esp
	push	-1
	push	__ehhandler$?build@ConfusabledataBuilder@icu_56@@AAEXPBDHAAW4UErrorCode@@@Z
	mov	eax, DWORD PTR fs:0
	push	eax
	sub	esp, 644				; 00000284H
	push	ebx
	push	esi
	push	edi
	push	ecx
	lea	edi, DWORD PTR [ebp-656]
	mov	ecx, 161				; 000000a1H
	mov	eax, -858993460				; ccccccccH
	rep stosd
	pop	ecx
	mov	eax, DWORD PTR ___security_cookie
	xor	eax, ebp
	mov	DWORD PTR __$ArrayPad$[ebp], eax
	push	eax
	lea	eax, DWORD PTR __$EHRec$[ebp]
	mov	DWORD PTR fs:0, eax
	mov	DWORD PTR _this$[ebp], ecx
; Line 210
	mov	DWORD PTR _inputLen$[ebp], 0
; Line 211
	mov	eax, DWORD PTR _status$[ebp]
	mov	ecx, DWORD PTR [eax]
	push	ecx
	call	?U_FAILURE@@YACW4UErrorCode@@@Z		; U_FAILURE
	add	esp, 4
	movsx	edx, al
	test	edx, edx
	je	SHORT $LN28@build
; Line 212
	jmp	$LN29@build
$LN28@build:
; Line 214
	mov	eax, DWORD PTR _status$[ebp]
	push	eax
	mov	ecx, DWORD PTR _confusablesLen$[ebp]
	push	ecx
	mov	edx, DWORD PTR _confusables$[ebp]
	push	edx
	lea	eax, DWORD PTR _inputLen$[ebp]
	push	eax
	push	0
	push	0
	call	_u_strFromUTF8_56
	add	esp, 24					; 00000018H
; Line 215
	mov	eax, DWORD PTR _status$[ebp]
	cmp	DWORD PTR [eax], 15			; 0000000fH
	je	SHORT $LN27@build
; Line 216
	jmp	$LN29@build
$LN27@build:
; Line 218
	mov	eax, DWORD PTR _status$[ebp]
	mov	DWORD PTR [eax], 0
; Line 219
	mov	eax, DWORD PTR _inputLen$[ebp]
	lea	ecx, DWORD PTR [eax+eax+2]
	push	ecx
	call	_uprv_malloc_56
	add	esp, 4
	mov	edx, DWORD PTR _this$[ebp]
	mov	DWORD PTR [edx+4], eax
; Line 220
	mov	eax, DWORD PTR _this$[ebp]
	cmp	DWORD PTR [eax+4], 0
	jne	SHORT $LN26@build
; Line 221
	mov	eax, DWORD PTR _status$[ebp]
	mov	DWORD PTR [eax], 7
; Line 222
	jmp	$LN29@build
$LN26@build:
; Line 224
	mov	eax, DWORD PTR _status$[ebp]
	push	eax
	mov	ecx, DWORD PTR _confusablesLen$[ebp]
	push	ecx
	mov	edx, DWORD PTR _confusables$[ebp]
	push	edx
	push	0
	mov	eax, DWORD PTR _inputLen$[ebp]
	add	eax, 1
	push	eax
	mov	ecx, DWORD PTR _this$[ebp]
	mov	edx, DWORD PTR [ecx+4]
	push	edx
	call	_u_strFromUTF8_56
	add	esp, 24					; 00000018H
; Line 243
	mov	esi, esp
	push	0
	push	-1
	push	OFFSET ??_C@_0JJ@EFNHDDFM@?$CI?$DPm?$CJ?$FO?$FL?5?2t?$FN?$CK?$CI?$FL0?99A?9Fa?9f?$FN?$CL?$CJ?$FL?5?2t?$FN?$CL?$DL@
	lea	ecx, DWORD PTR _pattern$[ebp]
	call	DWORD PTR __imp_??0UnicodeString@icu_56@@QAE@PBDHW4EInvariant@01@@Z
	cmp	esi, esp
	call	__RTC_CheckEsp
	mov	DWORD PTR __$EHRec$[ebp+8], 0
; Line 245
	mov	eax, DWORD PTR _status$[ebp]
	push	eax
	push	0
	push	0
	mov	esi, esp
	lea	ecx, DWORD PTR _pattern$[ebp]
	call	DWORD PTR __imp_?length@UnicodeString@icu_56@@QBEHXZ
	cmp	esi, esp
	call	__RTC_CheckEsp
	push	eax
	mov	esi, esp
	lea	ecx, DWORD PTR _pattern$[ebp]
	call	DWORD PTR __imp_?getBuffer@UnicodeString@icu_56@@QBEPB_WXZ
	cmp	esi, esp
	call	__RTC_CheckEsp
	push	eax
	call	_uregex_open_56
	add	esp, 20					; 00000014H
	mov	ecx, DWORD PTR _this$[ebp]
	mov	DWORD PTR [ecx+48], eax
; Line 249
	mov	esi, esp
	push	-1
	push	OFFSET ??_C@_1BO@NDMHNCLP@?$AA?2?$AAs?$AA?$CK?$AA?$CI?$AA?$FL?$AA0?$AA?9?$AA9?$AAA?$AA?9?$AAF?$AA?$FN?$AA?$CL?$AA?$CJ?$AA?$AA@
	push	1
	lea	ecx, DWORD PTR $T72036[ebp]
	call	DWORD PTR __imp_??0UnicodeString@icu_56@@QAE@CPB_WH@Z
	cmp	esi, esp
	call	__RTC_CheckEsp
	mov	DWORD PTR tv512[ebp], eax
	mov	eax, DWORD PTR tv512[ebp]
	mov	DWORD PTR tv469[ebp], eax
	mov	BYTE PTR __$EHRec$[ebp+8], 1
	mov	esi, esp
	mov	ecx, DWORD PTR tv469[ebp]
	push	ecx
	lea	ecx, DWORD PTR _pattern$[ebp]
	call	DWORD PTR __imp_??4UnicodeString@icu_56@@QAEAAV01@$$QAV01@@Z
	cmp	esi, esp
	call	__RTC_CheckEsp
	mov	BYTE PTR __$EHRec$[ebp+8], 0
	mov	esi, esp
	lea	ecx, DWORD PTR $T72036[ebp]
	call	DWORD PTR __imp_??1UnicodeString@icu_56@@UAE@XZ
	cmp	esi, esp
	call	__RTC_CheckEsp
; Line 250
	mov	eax, DWORD PTR _status$[ebp]
	push	eax
	push	0
	push	0
	mov	esi, esp
	lea	ecx, DWORD PTR _pattern$[ebp]
	call	DWORD PTR __imp_?length@UnicodeString@icu_56@@QBEHXZ
	cmp	esi, esp
	call	__RTC_CheckEsp
	push	eax
	mov	esi, esp
	lea	ecx, DWORD PTR _pattern$[ebp]
	call	DWORD PTR __imp_?getBuffer@UnicodeString@icu_56@@QBEPB_WXZ
	cmp	esi, esp
	call	__RTC_CheckEsp
	push	eax
	call	_uregex_open_56
	add	esp, 20					; 00000014H
	mov	ecx, DWORD PTR _this$[ebp]
	mov	DWORD PTR [ecx+52], eax
; Line 254
	mov	eax, DWORD PTR _this$[ebp]
	mov	ecx, DWORD PTR [eax+4]
	movzx	edx, WORD PTR [ecx]
	cmp	edx, 65279				; 0000feffH
	jne	SHORT $LN25@build
; Line 255
	mov	eax, DWORD PTR _this$[ebp]
	mov	ecx, DWORD PTR [eax+4]
	mov	edx, 32					; 00000020H
	mov	WORD PTR [ecx], dx
$LN25@build:
; Line 259
	mov	eax, DWORD PTR _status$[ebp]
	push	eax
	mov	ecx, DWORD PTR _inputLen$[ebp]
	push	ecx
	mov	edx, DWORD PTR _this$[ebp]
	mov	eax, DWORD PTR [edx+4]
	push	eax
	mov	ecx, DWORD PTR _this$[ebp]
	mov	edx, DWORD PTR [ecx+48]
	push	edx
	call	_uregex_setText_56
	add	esp, 16					; 00000010H
$LN24@build:
; Line 260
	mov	eax, DWORD PTR _status$[ebp]
	push	eax
	mov	ecx, DWORD PTR _this$[ebp]
	mov	edx, DWORD PTR [ecx+48]
	push	edx
	call	_uregex_findNext_56
	add	esp, 8
	movsx	eax, al
	test	eax, eax
	je	$LN23@build
; Line 261
	mov	eax, DWORD PTR _this$[ebp]
	mov	ecx, DWORD PTR [eax+56]
	add	ecx, 1
	mov	edx, DWORD PTR _this$[ebp]
	mov	DWORD PTR [edx+56], ecx
; Line 262
	mov	eax, DWORD PTR _status$[ebp]
	push	eax
	push	7
	mov	ecx, DWORD PTR _this$[ebp]
	mov	edx, DWORD PTR [ecx+48]
	push	edx
	call	_uregex_start_56
	add	esp, 12					; 0000000cH
	test	eax, eax
	jl	SHORT $LN22@build
; Line 264
	jmp	SHORT $LN24@build
$LN22@build:
; Line 266
	mov	eax, DWORD PTR _status$[ebp]
	push	eax
	push	8
	mov	ecx, DWORD PTR _this$[ebp]
	mov	edx, DWORD PTR [ecx+48]
	push	edx
	call	_uregex_start_56
	add	esp, 12					; 0000000cH
	test	eax, eax
	jl	SHORT $LN21@build
; Line 268
	mov	eax, DWORD PTR _status$[ebp]
	mov	DWORD PTR [eax], 9
; Line 269
	mov	DWORD PTR __$EHRec$[ebp+8], -1
	mov	esi, esp
	lea	ecx, DWORD PTR _pattern$[ebp]
	call	DWORD PTR __imp_??1UnicodeString@icu_56@@UAE@XZ
	cmp	esi, esp
	call	__RTC_CheckEsp
	jmp	$LN29@build
$LN21@build:
; Line 275
	mov	eax, DWORD PTR _status$[ebp]
	push	eax
	mov	ecx, DWORD PTR _status$[ebp]
	push	ecx
	push	1
	mov	edx, DWORD PTR _this$[ebp]
	mov	eax, DWORD PTR [edx+48]
	push	eax
	call	_uregex_end_56
	add	esp, 12					; 0000000cH
	push	eax
	mov	ecx, DWORD PTR _status$[ebp]
	push	ecx
	push	1
	mov	edx, DWORD PTR _this$[ebp]
	mov	eax, DWORD PTR [edx+48]
	push	eax
	call	_uregex_start_56
	add	esp, 12					; 0000000cH
	push	eax
	mov	ecx, DWORD PTR _this$[ebp]
	mov	edx, DWORD PTR [ecx+4]
	push	edx
	call	?ScanHex@SpoofImpl@icu_56@@SAHPB_WHHAAW4UErrorCode@@@Z ; icu_56::SpoofImpl::ScanHex
	add	esp, 16					; 00000010H
	mov	DWORD PTR _keyChar$72044[ebp], eax
; Line 277
	mov	eax, DWORD PTR _status$[ebp]
	push	eax
	push	2
	mov	ecx, DWORD PTR _this$[ebp]
	mov	edx, DWORD PTR [ecx+48]
	push	edx
	call	_uregex_start_56
	add	esp, 12					; 0000000cH
	mov	DWORD PTR _mapStringStart$72045[ebp], eax
; Line 278
	mov	eax, DWORD PTR _status$[ebp]
	push	eax
	push	2
	mov	ecx, DWORD PTR _this$[ebp]
	mov	edx, DWORD PTR [ecx+48]
	push	edx
	call	_uregex_end_56
	add	esp, 12					; 0000000cH
	sub	eax, DWORD PTR _mapStringStart$72045[ebp]
	mov	DWORD PTR _mapStringLength$72046[ebp], eax
; Line 279
	mov	eax, DWORD PTR _status$[ebp]
	push	eax
	mov	ecx, DWORD PTR _mapStringLength$72046[ebp]
	push	ecx
	mov	edx, DWORD PTR _this$[ebp]
	mov	eax, DWORD PTR [edx+4]
	mov	ecx, DWORD PTR _mapStringStart$72045[ebp]
	lea	edx, DWORD PTR [eax+ecx*2]
	push	edx
	mov	eax, DWORD PTR _this$[ebp]
	mov	ecx, DWORD PTR [eax+52]
	push	ecx
	call	_uregex_setText_56
	add	esp, 16					; 00000010H
; Line 281
	mov	esi, esp
	push	64					; 00000040H
	call	DWORD PTR __imp_??2UMemory@icu_56@@SAPAXI@Z
	add	esp, 4
	cmp	esi, esp
	call	__RTC_CheckEsp
	mov	DWORD PTR $T79218[ebp], eax
	mov	BYTE PTR __$EHRec$[ebp+8], 2
	cmp	DWORD PTR $T79218[ebp], 0
	je	SHORT $LN31@build
	mov	esi, esp
	mov	ecx, DWORD PTR $T79218[ebp]
	call	DWORD PTR __imp_??0UnicodeString@icu_56@@QAE@XZ
	cmp	esi, esp
	call	__RTC_CheckEsp
	mov	eax, DWORD PTR $T79218[ebp]
	mov	DWORD PTR [eax], OFFSET ??_SUnicodeString@icu_56@@6B@
	mov	ecx, DWORD PTR $T79218[ebp]
	mov	DWORD PTR tv234[ebp], ecx
	jmp	SHORT $LN32@build
$LN31@build:
	mov	DWORD PTR tv234[ebp], 0
$LN32@build:
	mov	edx, DWORD PTR tv234[ebp]
	mov	DWORD PTR $T79217[ebp], edx
	mov	BYTE PTR __$EHRec$[ebp+8], 0
	mov	eax, DWORD PTR $T79217[ebp]
	mov	DWORD PTR _mapString$72047[ebp], eax
; Line 282
	cmp	DWORD PTR _mapString$72047[ebp], 0
	jne	SHORT $LN19@build
; Line 283
	mov	eax, DWORD PTR _status$[ebp]
	mov	DWORD PTR [eax], 7
; Line 284
	mov	DWORD PTR __$EHRec$[ebp+8], -1
	mov	esi, esp
	lea	ecx, DWORD PTR _pattern$[ebp]
	call	DWORD PTR __imp_??1UnicodeString@icu_56@@UAE@XZ
	cmp	esi, esp
	call	__RTC_CheckEsp
	jmp	$LN29@build
$LN19@build:
; Line 286
	mov	eax, DWORD PTR _status$[ebp]
	push	eax
	mov	ecx, DWORD PTR _this$[ebp]
	mov	edx, DWORD PTR [ecx+52]
	push	edx
	call	_uregex_findNext_56
	add	esp, 8
	movsx	eax, al
	test	eax, eax
	je	SHORT $LN18@build
; Line 288
	mov	eax, DWORD PTR _status$[ebp]
	push	eax
	mov	ecx, DWORD PTR _status$[ebp]
	push	ecx
	push	1
	mov	edx, DWORD PTR _this$[ebp]
	mov	eax, DWORD PTR [edx+52]
	push	eax
	call	_uregex_end_56
	add	esp, 12					; 0000000cH
	push	eax
	mov	ecx, DWORD PTR _status$[ebp]
	push	ecx
	push	1
	mov	edx, DWORD PTR _this$[ebp]
	mov	eax, DWORD PTR [edx+52]
	push	eax
	call	_uregex_start_56
	add	esp, 12					; 0000000cH
	push	eax
	mov	ecx, DWORD PTR _this$[ebp]
	mov	edx, DWORD PTR [ecx+4]
	mov	eax, DWORD PTR _mapStringStart$72045[ebp]
	lea	ecx, DWORD PTR [edx+eax*2]
	push	ecx
	call	?ScanHex@SpoofImpl@icu_56@@SAHPB_WHHAAW4UErrorCode@@@Z ; icu_56::SpoofImpl::ScanHex
	add	esp, 16					; 00000010H
	mov	DWORD PTR _c$72056[ebp], eax
; Line 289
	mov	esi, esp
	mov	eax, DWORD PTR _c$72056[ebp]
	push	eax
	mov	ecx, DWORD PTR _mapString$72047[ebp]
	call	DWORD PTR __imp_?append@UnicodeString@icu_56@@QAEAAV12@H@Z
	cmp	esi, esp
	call	__RTC_CheckEsp
; Line 290
	jmp	$LN19@build
$LN18@build:
; Line 291
	mov	esi, esp
	mov	ecx, DWORD PTR _mapString$72047[ebp]
	call	DWORD PTR __imp_?length@UnicodeString@icu_56@@QBEHXZ
	cmp	esi, esp
	call	__RTC_CheckEsp
	cmp	eax, 1
	jge	SHORT $LN33@build
	mov	eax, DWORD PTR ?__LINE__Var@?1??build@ConfusabledataBuilder@icu_56@@AAEXPBDHAAW4UErrorCode@@@Z@4JA
	add	eax, 84					; 00000054H
	mov	esi, esp
	push	eax
	push	OFFSET ??_C@_1GA@LKJJAIHM@?$AAd?$AA?3?$AA?2?$AAm?$AAo?$AAz?$AAi?$AAl?$AAl?$AAa?$AA?2?$AAi?$AAn?$AAt?$AAl?$AA?2?$AAi?$AAc?$AAu?$AA?2?$AAs?$AAo?$AAu?$AAr?$AAc?$AAe?$AA?2?$AAi?$AA1?$AA8?$AAn?$AA?2@
	push	OFFSET ??_C@_1DC@LLEAIBEE@?$AAm?$AAa?$AAp?$AAS?$AAt?$AAr?$AAi?$AAn?$AAg?$AA?9?$AA?$DO?$AAl?$AAe?$AAn?$AAg?$AAt?$AAh?$AA?$CI?$AA?$CJ?$AA?5?$AA?$DO?$AA?$DN?$AA?5?$AA1?$AA?$AA@
	call	DWORD PTR __imp___wassert
	add	esp, 12					; 0000000cH
	cmp	esi, esp
	call	__RTC_CheckEsp
$LN33@build:
; Line 295
	mov	eax, DWORD PTR _status$[ebp]
	push	eax
	mov	ecx, DWORD PTR _mapString$72047[ebp]
	push	ecx
	mov	edx, DWORD PTR _this$[ebp]
	mov	ecx, DWORD PTR [edx+44]
	call	?addString@SPUStringPool@icu_56@@QAEPAUSPUString@2@PAVUnicodeString@2@AAW4UErrorCode@@@Z ; icu_56::SPUStringPool::addString
	mov	DWORD PTR _smapString$72061[ebp], eax
; Line 302
	mov	eax, DWORD PTR _status$[ebp]
	push	eax
	push	3
	mov	ecx, DWORD PTR _this$[ebp]
	mov	edx, DWORD PTR [ecx+48]
	push	edx
	call	_uregex_start_56
	add	esp, 12					; 0000000cH
	test	eax, eax
	jl	SHORT $LN40@build
	mov	eax, DWORD PTR _this$[ebp]
	mov	ecx, DWORD PTR [eax+8]
	mov	DWORD PTR tv305[ebp], ecx
	jmp	$LN41@build
$LN40@build:
	mov	edx, DWORD PTR _status$[ebp]
	push	edx
	push	4
	mov	eax, DWORD PTR _this$[ebp]
	mov	ecx, DWORD PTR [eax+48]
	push	ecx
	call	_uregex_start_56
	add	esp, 12					; 0000000cH
	test	eax, eax
	jl	SHORT $LN38@build
	mov	edx, DWORD PTR _this$[ebp]
	mov	eax, DWORD PTR [edx+12]
	mov	DWORD PTR tv304[ebp], eax
	jmp	SHORT $LN39@build
$LN38@build:
	mov	ecx, DWORD PTR _status$[ebp]
	push	ecx
	push	5
	mov	edx, DWORD PTR _this$[ebp]
	mov	eax, DWORD PTR [edx+48]
	push	eax
	call	_uregex_start_56
	add	esp, 12					; 0000000cH
	test	eax, eax
	jl	SHORT $LN36@build
	mov	ecx, DWORD PTR _this$[ebp]
	mov	edx, DWORD PTR [ecx+16]
	mov	DWORD PTR tv303[ebp], edx
	jmp	SHORT $LN37@build
$LN36@build:
	mov	eax, DWORD PTR _status$[ebp]
	push	eax
	push	6
	mov	ecx, DWORD PTR _this$[ebp]
	mov	edx, DWORD PTR [ecx+48]
	push	edx
	call	_uregex_start_56
	add	esp, 12					; 0000000cH
	test	eax, eax
	jl	SHORT $LN34@build
	mov	eax, DWORD PTR _this$[ebp]
	mov	ecx, DWORD PTR [eax+20]
	mov	DWORD PTR tv302[ebp], ecx
	jmp	SHORT $LN35@build
$LN34@build:
	mov	DWORD PTR tv302[ebp], 0
$LN35@build:
	mov	edx, DWORD PTR tv302[ebp]
	mov	DWORD PTR tv303[ebp], edx
$LN37@build:
	mov	eax, DWORD PTR tv303[ebp]
	mov	DWORD PTR tv304[ebp], eax
$LN39@build:
	mov	ecx, DWORD PTR tv304[ebp]
	mov	DWORD PTR tv305[ebp], ecx
$LN41@build:
	mov	edx, DWORD PTR tv305[ebp]
	mov	DWORD PTR _table$72062[ebp], edx
; Line 303
	mov	eax, DWORD PTR _status$[ebp]
	mov	ecx, DWORD PTR [eax]
	push	ecx
	call	?U_SUCCESS@@YACW4UErrorCode@@@Z		; U_SUCCESS
	add	esp, 4
	movsx	edx, al
	test	edx, edx
	je	SHORT $LN17@build
	cmp	DWORD PTR _table$72062[ebp], 0
	jne	SHORT $LN17@build
; Line 304
	mov	eax, DWORD PTR _status$[ebp]
	mov	DWORD PTR [eax], 9
$LN17@build:
; Line 306
	mov	eax, DWORD PTR _status$[ebp]
	mov	ecx, DWORD PTR [eax]
	push	ecx
	call	?U_FAILURE@@YACW4UErrorCode@@@Z		; U_FAILURE
	add	esp, 4
	movsx	edx, al
	test	edx, edx
	je	SHORT $LN16@build
; Line 307
	mov	DWORD PTR __$EHRec$[ebp+8], -1
	mov	esi, esp
	lea	ecx, DWORD PTR _pattern$[ebp]
	call	DWORD PTR __imp_??1UnicodeString@icu_56@@UAE@XZ
	cmp	esi, esp
	call	__RTC_CheckEsp
	jmp	$LN29@build
$LN16@build:
; Line 319
	mov	eax, DWORD PTR _this$[ebp]
	mov	ecx, DWORD PTR _table$72062[ebp]
	cmp	ecx, DWORD PTR [eax+20]
	je	SHORT $LN15@build
; Line 320
	mov	eax, DWORD PTR _status$[ebp]
	mov	DWORD PTR [eax], 9
; Line 321
	mov	DWORD PTR __$EHRec$[ebp+8], -1
	mov	esi, esp
	lea	ecx, DWORD PTR _pattern$[ebp]
	call	DWORD PTR __imp_??1UnicodeString@icu_56@@UAE@XZ
	cmp	esi, esp
	call	__RTC_CheckEsp
	jmp	$LN29@build
$LN15@build:
; Line 324
	mov	eax, DWORD PTR _status$[ebp]
	push	eax
	mov	ecx, DWORD PTR _smapString$72061[ebp]
	push	ecx
	mov	edx, DWORD PTR _keyChar$72044[ebp]
	push	edx
	mov	eax, DWORD PTR _this$[ebp]
	mov	ecx, DWORD PTR [eax+8]
	push	ecx
	call	_uhash_iput_56
	add	esp, 16					; 00000010H
; Line 325
	mov	eax, DWORD PTR _status$[ebp]
	push	eax
	mov	ecx, DWORD PTR _smapString$72061[ebp]
	push	ecx
	mov	edx, DWORD PTR _keyChar$72044[ebp]
	push	edx
	mov	eax, DWORD PTR _this$[ebp]
	mov	ecx, DWORD PTR [eax+12]
	push	ecx
	call	_uhash_iput_56
	add	esp, 16					; 00000010H
; Line 326
	mov	eax, DWORD PTR _status$[ebp]
	push	eax
	mov	ecx, DWORD PTR _smapString$72061[ebp]
	push	ecx
	mov	edx, DWORD PTR _keyChar$72044[ebp]
	push	edx
	mov	eax, DWORD PTR _this$[ebp]
	mov	ecx, DWORD PTR [eax+16]
	push	ecx
	call	_uhash_iput_56
	add	esp, 16					; 00000010H
; Line 327
	mov	eax, DWORD PTR _status$[ebp]
	push	eax
	mov	ecx, DWORD PTR _smapString$72061[ebp]
	push	ecx
	mov	edx, DWORD PTR _keyChar$72044[ebp]
	push	edx
	mov	eax, DWORD PTR _this$[ebp]
	mov	ecx, DWORD PTR [eax+20]
	push	ecx
	call	_uhash_iput_56
	add	esp, 16					; 00000010H
; Line 328
	mov	esi, esp
	mov	eax, DWORD PTR _keyChar$72044[ebp]
	push	eax
	mov	ecx, DWORD PTR _this$[ebp]
	mov	ecx, DWORD PTR [ecx+24]
	call	DWORD PTR __imp_?add@UnicodeSet@icu_56@@QAEAAV12@H@Z
	cmp	esi, esp
	call	__RTC_CheckEsp
; Line 329
	mov	eax, DWORD PTR _status$[ebp]
	mov	ecx, DWORD PTR [eax]
	push	ecx
	call	?U_FAILURE@@YACW4UErrorCode@@@Z		; U_FAILURE
	add	esp, 4
	movsx	edx, al
	test	edx, edx
	je	SHORT $LN14@build
; Line 330
	mov	DWORD PTR __$EHRec$[ebp+8], -1
	mov	esi, esp
	lea	ecx, DWORD PTR _pattern$[ebp]
	call	DWORD PTR __imp_??1UnicodeString@icu_56@@UAE@XZ
	cmp	esi, esp
	call	__RTC_CheckEsp
	jmp	$LN29@build
$LN14@build:
; Line 332
	jmp	$LN24@build
$LN23@build:
; Line 347
	mov	eax, DWORD PTR _status$[ebp]
	push	eax
	mov	ecx, DWORD PTR _this$[ebp]
	mov	ecx, DWORD PTR [ecx+44]
	call	?sort@SPUStringPool@icu_56@@QAEXAAW4UErrorCode@@@Z ; icu_56::SPUStringPool::sort
; Line 348
	mov	esi, esp
	push	64					; 00000040H
	call	DWORD PTR __imp_??2UMemory@icu_56@@SAPAXI@Z
	add	esp, 4
	cmp	esi, esp
	call	__RTC_CheckEsp
	mov	DWORD PTR $T79231[ebp], eax
	mov	BYTE PTR __$EHRec$[ebp+8], 3
	cmp	DWORD PTR $T79231[ebp], 0
	je	SHORT $LN42@build
	mov	esi, esp
	mov	ecx, DWORD PTR $T79231[ebp]
	call	DWORD PTR __imp_??0UnicodeString@icu_56@@QAE@XZ
	cmp	esi, esp
	call	__RTC_CheckEsp
	mov	eax, DWORD PTR $T79231[ebp]
	mov	DWORD PTR [eax], OFFSET ??_SUnicodeString@icu_56@@6B@
	mov	ecx, DWORD PTR $T79231[ebp]
	mov	DWORD PTR tv354[ebp], ecx
	jmp	SHORT $LN43@build
$LN42@build:
	mov	DWORD PTR tv354[ebp], 0
$LN43@build:
	mov	edx, DWORD PTR tv354[ebp]
	mov	DWORD PTR $T79230[ebp], edx
	mov	BYTE PTR __$EHRec$[ebp+8], 0
	mov	eax, DWORD PTR _this$[ebp]
	mov	ecx, DWORD PTR $T79230[ebp]
	mov	DWORD PTR [eax+36], ecx
; Line 349
	mov	esi, esp
	push	24					; 00000018H
	call	DWORD PTR __imp_??2UMemory@icu_56@@SAPAXI@Z
	add	esp, 4
	cmp	esi, esp
	call	__RTC_CheckEsp
	mov	DWORD PTR $T79235[ebp], eax
	mov	BYTE PTR __$EHRec$[ebp+8], 4
	cmp	DWORD PTR $T79235[ebp], 0
	je	SHORT $LN44@build
	mov	esi, esp
	mov	eax, DWORD PTR _status$[ebp]
	push	eax
	mov	ecx, DWORD PTR $T79235[ebp]
	call	DWORD PTR __imp_??0UVector@icu_56@@QAE@AAW4UErrorCode@@@Z
	cmp	esi, esp
	call	__RTC_CheckEsp
	mov	ecx, DWORD PTR $T79235[ebp]
	mov	DWORD PTR [ecx], OFFSET ??_SUVector@icu_56@@6B@
	mov	edx, DWORD PTR $T79235[ebp]
	mov	DWORD PTR tv361[ebp], edx
	jmp	SHORT $LN45@build
$LN44@build:
	mov	DWORD PTR tv361[ebp], 0
$LN45@build:
	mov	eax, DWORD PTR tv361[ebp]
	mov	DWORD PTR $T79234[ebp], eax
	mov	BYTE PTR __$EHRec$[ebp+8], 0
	mov	ecx, DWORD PTR _this$[ebp]
	mov	edx, DWORD PTR $T79234[ebp]
	mov	DWORD PTR [ecx+40], edx
; Line 350
	mov	DWORD PTR _previousStringLength$[ebp], 0
; Line 351
	mov	DWORD PTR _previousStringIndex$[ebp], 0
; Line 352
	mov	eax, DWORD PTR _this$[ebp]
	mov	ecx, DWORD PTR [eax+44]
	call	?size@SPUStringPool@icu_56@@QAEHXZ	; icu_56::SPUStringPool::size
	mov	DWORD PTR _poolSize$[ebp], eax
; Line 354
	mov	DWORD PTR _i$[ebp], 0
	jmp	SHORT $LN13@build
$LN12@build:
	mov	eax, DWORD PTR _i$[ebp]
	add	eax, 1
	mov	DWORD PTR _i$[ebp], eax
$LN13@build:
	mov	eax, DWORD PTR _i$[ebp]
	cmp	eax, DWORD PTR _poolSize$[ebp]
	jge	$LN11@build
; Line 355
	mov	eax, DWORD PTR _i$[ebp]
	push	eax
	mov	ecx, DWORD PTR _this$[ebp]
	mov	ecx, DWORD PTR [ecx+44]
	call	?getByIndex@SPUStringPool@icu_56@@QAEPAUSPUString@2@H@Z ; icu_56::SPUStringPool::getByIndex
	mov	DWORD PTR _s$72082[ebp], eax
; Line 356
	mov	esi, esp
	mov	eax, DWORD PTR _s$72082[ebp]
	mov	ecx, DWORD PTR [eax]
	call	DWORD PTR __imp_?length@UnicodeString@icu_56@@QBEHXZ
	cmp	esi, esp
	call	__RTC_CheckEsp
	mov	DWORD PTR _strLen$72083[ebp], eax
; Line 357
	mov	esi, esp
	mov	eax, DWORD PTR _this$[ebp]
	mov	ecx, DWORD PTR [eax+36]
	call	DWORD PTR __imp_?length@UnicodeString@icu_56@@QBEHXZ
	cmp	esi, esp
	call	__RTC_CheckEsp
	mov	DWORD PTR _strIndex$72084[ebp], eax
; Line 358
	mov	eax, DWORD PTR _strLen$72083[ebp]
	cmp	eax, DWORD PTR _previousStringLength$[ebp]
	jge	SHORT $LN46@build
	mov	ecx, DWORD PTR ?__LINE__Var@?1??build@ConfusabledataBuilder@icu_56@@AAEXPBDHAAW4UErrorCode@@@Z@4JA
	add	ecx, 151				; 00000097H
	mov	esi, esp
	push	ecx
	push	OFFSET ??_C@_1GA@LKJJAIHM@?$AAd?$AA?3?$AA?2?$AAm?$AAo?$AAz?$AAi?$AAl?$AAl?$AAa?$AA?2?$AAi?$AAn?$AAt?$AAl?$AA?2?$AAi?$AAc?$AAu?$AA?2?$AAs?$AAo?$AAu?$AAr?$AAc?$AAe?$AA?2?$AAi?$AA1?$AA8?$AAn?$AA?2@
	push	OFFSET ??_C@_1DO@OHGGIPGL@?$AAs?$AAt?$AAr?$AAL?$AAe?$AAn?$AA?5?$AA?$DO?$AA?$DN?$AA?5?$AAp?$AAr?$AAe?$AAv?$AAi?$AAo?$AAu?$AAs?$AAS?$AAt?$AAr?$AAi?$AAn?$AAg?$AAL?$AAe?$AAn?$AAg?$AAt?$AAh?$AA?$AA@
	call	DWORD PTR __imp___wassert
	add	esp, 12					; 0000000cH
	cmp	esi, esp
	call	__RTC_CheckEsp
$LN46@build:
; Line 359
	cmp	DWORD PTR _strLen$72083[ebp], 1
	jne	SHORT $LN10@build
; Line 363
	mov	esi, esp
	push	0
	mov	eax, DWORD PTR _s$72082[ebp]
	mov	ecx, DWORD PTR [eax]
	call	DWORD PTR __imp_?charAt@UnicodeString@icu_56@@QBE_WH@Z
	cmp	esi, esp
	call	__RTC_CheckEsp
	movzx	ecx, ax
	mov	edx, DWORD PTR _s$72082[ebp]
	mov	DWORD PTR [edx+4], ecx
; Line 364
	jmp	$LN9@build
$LN10@build:
; Line 365
	mov	eax, DWORD PTR _strLen$72083[ebp]
	cmp	eax, DWORD PTR _previousStringLength$[ebp]
	jle	SHORT $LN8@build
	cmp	DWORD PTR _previousStringLength$[ebp], 4
	jl	SHORT $LN8@build
; Line 366
	mov	esi, esp
	mov	eax, DWORD PTR _status$[ebp]
	push	eax
	mov	ecx, DWORD PTR _previousStringIndex$[ebp]
	push	ecx
	mov	edx, DWORD PTR _this$[ebp]
	mov	ecx, DWORD PTR [edx+40]
	call	DWORD PTR __imp_?addElement@UVector@icu_56@@QAEXHAAW4UErrorCode@@@Z
	cmp	esi, esp
	call	__RTC_CheckEsp
; Line 367
	mov	esi, esp
	mov	eax, DWORD PTR _status$[ebp]
	push	eax
	mov	ecx, DWORD PTR _previousStringLength$[ebp]
	push	ecx
	mov	edx, DWORD PTR _this$[ebp]
	mov	ecx, DWORD PTR [edx+40]
	call	DWORD PTR __imp_?addElement@UVector@icu_56@@QAEXHAAW4UErrorCode@@@Z
	cmp	esi, esp
	call	__RTC_CheckEsp
$LN8@build:
; Line 369
	mov	eax, DWORD PTR _s$72082[ebp]
	mov	ecx, DWORD PTR _strIndex$72084[ebp]
	mov	DWORD PTR [eax+4], ecx
; Line 370
	mov	esi, esp
	mov	eax, DWORD PTR _s$72082[ebp]
	mov	ecx, DWORD PTR [eax]
	push	ecx
	mov	edx, DWORD PTR _this$[ebp]
	mov	ecx, DWORD PTR [edx+36]
	call	DWORD PTR __imp_?append@UnicodeString@icu_56@@QAEAAV12@ABV12@@Z
	cmp	esi, esp
	call	__RTC_CheckEsp
$LN9@build:
; Line 372
	mov	eax, DWORD PTR _strLen$72083[ebp]
	mov	DWORD PTR _previousStringLength$[ebp], eax
; Line 373
	mov	eax, DWORD PTR _strIndex$72084[ebp]
	mov	DWORD PTR _previousStringIndex$[ebp], eax
; Line 374
	jmp	$LN12@build
$LN11@build:
; Line 378
	cmp	DWORD PTR _previousStringLength$[ebp], 4
	jl	SHORT $LN7@build
; Line 379
	mov	esi, esp
	mov	eax, DWORD PTR _status$[ebp]
	push	eax
	mov	ecx, DWORD PTR _previousStringIndex$[ebp]
	push	ecx
	mov	edx, DWORD PTR _this$[ebp]
	mov	ecx, DWORD PTR [edx+40]
	call	DWORD PTR __imp_?addElement@UVector@icu_56@@QAEXHAAW4UErrorCode@@@Z
	cmp	esi, esp
	call	__RTC_CheckEsp
; Line 380
	mov	esi, esp
	mov	eax, DWORD PTR _status$[ebp]
	push	eax
	mov	ecx, DWORD PTR _previousStringLength$[ebp]
	push	ecx
	mov	edx, DWORD PTR _this$[ebp]
	mov	ecx, DWORD PTR [edx+40]
	call	DWORD PTR __imp_?addElement@UVector@icu_56@@QAEXHAAW4UErrorCode@@@Z
	cmp	esi, esp
	call	__RTC_CheckEsp
$LN7@build:
; Line 394
	mov	DWORD PTR _range$72091[ebp], 0
	jmp	SHORT $LN6@build
$LN5@build:
	mov	eax, DWORD PTR _range$72091[ebp]
	add	eax, 1
	mov	DWORD PTR _range$72091[ebp], eax
$LN6@build:
	mov	eax, DWORD PTR _this$[ebp]
	mov	ecx, DWORD PTR [eax+24]
	mov	edx, DWORD PTR _this$[ebp]
	mov	eax, DWORD PTR [edx+24]
	mov	edx, DWORD PTR [ecx]
	mov	esi, esp
	mov	ecx, eax
	mov	eax, DWORD PTR [edx+96]
	call	eax
	cmp	esi, esp
	call	__RTC_CheckEsp
	cmp	DWORD PTR _range$72091[ebp], eax
	jge	$LN4@build
; Line 397
	mov	esi, esp
	mov	eax, DWORD PTR _range$72091[ebp]
	push	eax
	mov	ecx, DWORD PTR _this$[ebp]
	mov	edx, DWORD PTR [ecx+24]
	mov	eax, DWORD PTR _this$[ebp]
	mov	ecx, DWORD PTR [eax+24]
	mov	edx, DWORD PTR [edx]
	mov	eax, DWORD PTR [edx+100]
	call	eax
	cmp	esi, esp
	call	__RTC_CheckEsp
	mov	DWORD PTR _keyChar$72095[ebp], eax
	jmp	SHORT $LN3@build
$LN2@build:
; Line 398
	mov	eax, DWORD PTR _keyChar$72095[ebp]
	add	eax, 1
	mov	DWORD PTR _keyChar$72095[ebp], eax
$LN3@build:
	mov	esi, esp
	mov	eax, DWORD PTR _range$72091[ebp]
	push	eax
	mov	ecx, DWORD PTR _this$[ebp]
	mov	edx, DWORD PTR [ecx+24]
	mov	eax, DWORD PTR _this$[ebp]
	mov	ecx, DWORD PTR [eax+24]
	mov	edx, DWORD PTR [edx]
	mov	eax, DWORD PTR [edx+104]
	call	eax
	cmp	esi, esp
	call	__RTC_CheckEsp
	cmp	DWORD PTR _keyChar$72095[ebp], eax
	jg	$LN1@build
; Line 399
	mov	eax, DWORD PTR _status$[ebp]
	push	eax
	push	16777216				; 01000000H
	mov	ecx, DWORD PTR _this$[ebp]
	mov	edx, DWORD PTR [ecx+8]
	push	edx
	mov	eax, DWORD PTR _keyChar$72095[ebp]
	push	eax
	mov	ecx, DWORD PTR _this$[ebp]
	call	?addKeyEntry@ConfusabledataBuilder@icu_56@@AAEXHPAUUHashtable@@HAAW4UErrorCode@@@Z ; icu_56::ConfusabledataBuilder::addKeyEntry
; Line 400
	mov	eax, DWORD PTR _status$[ebp]
	push	eax
	push	33554432				; 02000000H
	mov	ecx, DWORD PTR _this$[ebp]
	mov	edx, DWORD PTR [ecx+12]
	push	edx
	mov	eax, DWORD PTR _keyChar$72095[ebp]
	push	eax
	mov	ecx, DWORD PTR _this$[ebp]
	call	?addKeyEntry@ConfusabledataBuilder@icu_56@@AAEXHPAUUHashtable@@HAAW4UErrorCode@@@Z ; icu_56::ConfusabledataBuilder::addKeyEntry
; Line 401
	mov	eax, DWORD PTR _status$[ebp]
	push	eax
	push	67108864				; 04000000H
	mov	ecx, DWORD PTR _this$[ebp]
	mov	edx, DWORD PTR [ecx+16]
	push	edx
	mov	eax, DWORD PTR _keyChar$72095[ebp]
	push	eax
	mov	ecx, DWORD PTR _this$[ebp]
	call	?addKeyEntry@ConfusabledataBuilder@icu_56@@AAEXHPAUUHashtable@@HAAW4UErrorCode@@@Z ; icu_56::ConfusabledataBuilder::addKeyEntry
; Line 402
	mov	eax, DWORD PTR _status$[ebp]
	push	eax
	push	134217728				; 08000000H
	mov	ecx, DWORD PTR _this$[ebp]
	mov	edx, DWORD PTR [ecx+20]
	push	edx
	mov	eax, DWORD PTR _keyChar$72095[ebp]
	push	eax
	mov	ecx, DWORD PTR _this$[ebp]
	call	?addKeyEntry@ConfusabledataBuilder@icu_56@@AAEXHPAUUHashtable@@HAAW4UErrorCode@@@Z ; icu_56::ConfusabledataBuilder::addKeyEntry
; Line 403
	jmp	$LN2@build
$LN1@build:
; Line 404
	jmp	$LN5@build
$LN4@build:
; Line 407
	mov	eax, DWORD PTR _status$[ebp]
	push	eax
	mov	ecx, DWORD PTR _this$[ebp]
	call	?outputData@ConfusabledataBuilder@icu_56@@AAEXAAW4UErrorCode@@@Z ; icu_56::ConfusabledataBuilder::outputData
; Line 411
	mov	DWORD PTR __$EHRec$[ebp+8], -1
	mov	esi, esp
	lea	ecx, DWORD PTR _pattern$[ebp]
	call	DWORD PTR __imp_??1UnicodeString@icu_56@@UAE@XZ
	cmp	esi, esp
	call	__RTC_CheckEsp
$LN29@build:
; Line 412
	push	edx
	mov	ecx, ebp
	push	eax
	lea	edx, DWORD PTR $LN57@build
	call	@_RTC_CheckStackVars@8
	pop	eax
	pop	edx
	mov	ecx, DWORD PTR __$EHRec$[ebp]
	mov	DWORD PTR fs:0, ecx
	pop	ecx
	pop	edi
	pop	esi
	pop	ebx
	mov	ecx, DWORD PTR __$ArrayPad$[ebp]
	xor	ecx, ebp
	call	@__security_check_cookie@4
	add	esp, 656				; 00000290H
	cmp	ebp, esp
	call	__RTC_CheckEsp
	mov	esp, ebp
	pop	ebp
	ret	12					; 0000000cH
	npad	3
$LN57@build:
	DD	2
	DD	$LN56@build
$LN56@build:
	DD	-36					; ffffffdcH
	DD	4
	DD	$LN53@build
	DD	-108					; ffffff94H
	DD	64					; 00000040H
	DD	$LN54@build
$LN54@build:
	DB	112					; 00000070H
	DB	97					; 00000061H
	DB	116					; 00000074H
	DB	116					; 00000074H
	DB	101					; 00000065H
	DB	114					; 00000072H
	DB	110					; 0000006eH
	DB	0
$LN53@build:
	DB	105					; 00000069H
	DB	110					; 0000006eH
	DB	112					; 00000070H
	DB	117					; 00000075H
	DB	116					; 00000074H
	DB	76					; 0000004cH
	DB	101					; 00000065H
	DB	110					; 0000006eH
	DB	0
_TEXT	ENDS
;	COMDAT text$x
text$x	SEGMENT
__unwindfunclet$?build@ConfusabledataBuilder@icu_56@@AAEXPBDHAAW4UErrorCode@@@Z$0:
	mov	esi, esp
	lea	ecx, DWORD PTR _pattern$[ebp]
	call	DWORD PTR __imp_??1UnicodeString@icu_56@@UAE@XZ
	cmp	esi, esp
	jmp	__RTC_CheckEsp
__unwindfunclet$?build@ConfusabledataBuilder@icu_56@@AAEXPBDHAAW4UErrorCode@@@Z$1:
	mov	esi, esp
	lea	ecx, DWORD PTR $T72036[ebp]
	call	DWORD PTR __imp_??1UnicodeString@icu_56@@UAE@XZ
	cmp	esi, esp
	jmp	__RTC_CheckEsp
__unwindfunclet$?build@ConfusabledataBuilder@icu_56@@AAEXPBDHAAW4UErrorCode@@@Z$2:
	mov	esi, esp
	mov	eax, DWORD PTR $T79218[ebp]
	push	eax
	call	DWORD PTR __imp_??3UMemory@icu_56@@SAXPAX@Z
	add	esp, 4
	cmp	esi, esp
	jmp	__RTC_CheckEsp
__unwindfunclet$?build@ConfusabledataBuilder@icu_56@@AAEXPBDHAAW4UErrorCode@@@Z$3:
	mov	esi, esp
	mov	eax, DWORD PTR $T79231[ebp]
	push	eax
	call	DWORD PTR __imp_??3UMemory@icu_56@@SAXPAX@Z
	add	esp, 4
	cmp	esi, esp
	jmp	__RTC_CheckEsp
__unwindfunclet$?build@ConfusabledataBuilder@icu_56@@AAEXPBDHAAW4UErrorCode@@@Z$4:
	mov	esi, esp
	mov	eax, DWORD PTR $T79235[ebp]
	push	eax
	call	DWORD PTR __imp_??3UMemory@icu_56@@SAXPAX@Z
	add	esp, 4
	cmp	esi, esp
	jmp	__RTC_CheckEsp
__ehhandler$?build@ConfusabledataBuilder@icu_56@@AAEXPBDHAAW4UErrorCode@@@Z:
	mov	edx, DWORD PTR [esp+8]
	lea	eax, DWORD PTR [edx+12]
	mov	ecx, DWORD PTR [edx-660]
	xor	ecx, eax
	call	@__security_check_cookie@4
	mov	ecx, DWORD PTR [edx-4]
	xor	ecx, eax
	call	@__security_check_cookie@4
	mov	eax, OFFSET __ehfuncinfo$?build@ConfusabledataBuilder@icu_56@@AAEXPBDHAAW4UErrorCode@@@Z
	jmp	___CxxFrameHandler3
text$x	ENDS
?build@ConfusabledataBuilder@icu_56@@AAEXPBDHAAW4UErrorCode@@@Z ENDP ; icu_56::ConfusabledataBuilder::build
; Function compile flags: /Odtp /RTCsu /ZI
;	COMDAT ?U_SUCCESS@@YACW4UErrorCode@@@Z
_TEXT	SEGMENT
_code$ = 8						; size = 4
?U_SUCCESS@@YACW4UErrorCode@@@Z PROC			; U_SUCCESS, COMDAT
; File d:\mozilla\intl\icu\include\unicode\utypes.h
; Line 699
	push	ebp
	mov	ebp, esp
	sub	esp, 192				; 000000c0H
	push	ebx
	push	esi
	push	edi
	lea	edi, DWORD PTR [ebp-192]
	mov	ecx, 48					; 00000030H
	mov	eax, -858993460				; ccccccccH
	rep stosd
	cmp	DWORD PTR _code$[ebp], 0
	setle	al
	pop	edi
	pop	esi
	pop	ebx
	mov	esp, ebp
	pop	ebp
	ret	0
?U_SUCCESS@@YACW4UErrorCode@@@Z ENDP			; U_SUCCESS
; Function compile flags: /Odtp /RTCsu /ZI
_TEXT	ENDS
;	COMDAT ??_GUnicodeString@icu_56@@UAEPAXI@Z
_TEXT	SEGMENT
_this$ = -8						; size = 4
___flags$ = 8						; size = 4
??_GUnicodeString@icu_56@@UAEPAXI@Z PROC		; icu_56::UnicodeString::`scalar deleting destructor', COMDAT
; _this$ = ecx
	push	ebp
	mov	ebp, esp
	sub	esp, 204				; 000000ccH
	push	ebx
	push	esi
	push	edi
	push	ecx
	lea	edi, DWORD PTR [ebp-204]
	mov	ecx, 51					; 00000033H
	mov	eax, -858993460				; ccccccccH
	rep stosd
	pop	ecx
	mov	DWORD PTR _this$[ebp], ecx
	mov	esi, esp
	mov	ecx, DWORD PTR _this$[ebp]
	call	DWORD PTR __imp_??1UnicodeString@icu_56@@UAE@XZ
	cmp	esi, esp
	call	__RTC_CheckEsp
	mov	eax, DWORD PTR ___flags$[ebp]
	and	eax, 1
	je	SHORT $LN1@scalar@5
	mov	esi, esp
	mov	eax, DWORD PTR _this$[ebp]
	push	eax
	call	DWORD PTR __imp_??3UMemory@icu_56@@SAXPAX@Z
	add	esp, 4
	cmp	esi, esp
	call	__RTC_CheckEsp
$LN1@scalar@5:
	mov	eax, DWORD PTR _this$[ebp]
	pop	edi
	pop	esi
	pop	ebx
	add	esp, 204				; 000000ccH
	cmp	ebp, esp
	call	__RTC_CheckEsp
	mov	esp, ebp
	pop	ebp
	ret	4
??_GUnicodeString@icu_56@@UAEPAXI@Z ENDP		; icu_56::UnicodeString::`scalar deleting destructor'
_TEXT	ENDS
PUBLIC	??_C@_1DA@MLGKDBCD@?$AAl?$AAe?$AAn?$AAg?$AAt?$AAh?$AA?5?$AA?$DO?$AA?5?$AAp?$AAr?$AAe?$AAv?$AAi?$AAo?$AAu?$AAs?$AAL?$AAe?$AAn?$AAg?$AAt?$AAh?$AA?$AA@ ; `string'
PUBLIC	??_C@_1BI@EOOFKEPI@?$AAl?$AAe?$AAn?$AAg?$AAt?$AAh?$AA?5?$AA?$DM?$AA?5?$AA4?$AA0?$AA?$AA@ ; `string'
PUBLIC	??_C@_1CO@CNKHKANJ@?$AAo?$AAf?$AAf?$AAs?$AAe?$AAt?$AA?5?$AA?$DM?$AA?5?$AAs?$AAt?$AAr?$AAi?$AAn?$AAg?$AAs?$AAL?$AAe?$AAn?$AAg?$AAt?$AAh?$AA?$AA@ ; `string'
PUBLIC	??_C@_1DM@CMHJJLCB@?$AAr?$AAa?$AAw?$AAD?$AAa?$AAt?$AAa?$AA?9?$AA?$DO?$AAf?$AAC?$AAF?$AAU?$AAS?$AAt?$AAr?$AAi?$AAn?$AAg?$AAT?$AAa?$AAb?$AAl?$AAe?$AA?5?$AA?$DN?$AA?$DN?$AA?5?$AA0?$AA?$AA@ ; `string'
PUBLIC	??_C@_1BO@DGEDBGAP@?$AAv?$AAa?$AAl?$AAu?$AAe?$AA?5?$AA?$DM?$AA?5?$AA0?$AAx?$AAf?$AAf?$AAf?$AAf?$AA?$AA@ ; `string'
PUBLIC	??_C@_1CK@IOKEGEHL@?$AAn?$AAu?$AAm?$AAK?$AAe?$AAy?$AAs?$AA?5?$AA?$DN?$AA?$DN?$AA?5?$AAn?$AAu?$AAm?$AAV?$AAa?$AAl?$AAu?$AAe?$AAs?$AA?$AA@ ; `string'
PUBLIC	??_C@_1DA@FLFLDFFK@?$AA?$CI?$AAk?$AAe?$AAy?$AA?5?$AA?$CG?$AA?5?$AA0?$AAx?$AAf?$AAf?$AA0?$AA0?$AA0?$AA0?$AA0?$AA0?$AA?$CJ?$AA?5?$AA?$CB?$AA?$DN?$AA?5?$AA0?$AA?$AA@ ; `string'
PUBLIC	??_C@_1GC@HKLBPNNJ@?$AA?$CI?$AAk?$AAe?$AAy?$AA?5?$AA?$CG?$AA?5?$AA0?$AAx?$AA0?$AA0?$AAf?$AAf?$AAf?$AAf?$AAf?$AAf?$AA?$CJ?$AA?5?$AA?$DO?$AA?$DN?$AA?5?$AA?$CI?$AAp?$AAr?$AAe?$AAv?$AAi?$AAo?$AAu?$AAs?$AAK@ ; `string'
PUBLIC	??_C@_1FA@JMIBIFEG@?$AAf?$AAS?$AAp?$AAo?$AAo?$AAf?$AAI?$AAm?$AAp?$AAl?$AA?9?$AA?$DO?$AAf?$AAS?$AAp?$AAo?$AAo?$AAf?$AAD?$AAa?$AAt?$AAa?$AA?9?$AA?$DO?$AAf?$AAD?$AAa?$AAt?$AAa?$AAO?$AAw?$AAn@ ; `string'
PUBLIC	?__LINE__Var@?1??outputData@ConfusabledataBuilder@icu_56@@AAEXAAW4UErrorCode@@@Z@4JA ; `icu_56::ConfusabledataBuilder::outputData'::`2'::__LINE__Var
EXTRN	__imp_?extract@UnicodeString@icu_56@@QBEHPA_WHAAW4UErrorCode@@@Z:PROC
EXTRN	__imp_?elementAti@UVector@icu_56@@QBEHH@Z:PROC
EXTRN	?reserveSpace@SpoofData@icu_56@@QAEPAXHAAW4UErrorCode@@@Z:PROC ; icu_56::SpoofData::reserveSpace
;	COMDAT ??_C@_1DA@MLGKDBCD@?$AAl?$AAe?$AAn?$AAg?$AAt?$AAh?$AA?5?$AA?$DO?$AA?5?$AAp?$AAr?$AAe?$AAv?$AAi?$AAo?$AAu?$AAs?$AAL?$AAe?$AAn?$AAg?$AAt?$AAh?$AA?$AA@
; File d:\mozilla\intl\icu\source\i18n\uspoof_conf.cpp
CONST	SEGMENT
??_C@_1DA@MLGKDBCD@?$AAl?$AAe?$AAn?$AAg?$AAt?$AAh?$AA?5?$AA?$DO?$AA?5?$AAp?$AAr?$AAe?$AAv?$AAi?$AAo?$AAu?$AAs?$AAL?$AAe?$AAn?$AAg?$AAt?$AAh?$AA?$AA@ DB 'l'
	DB	00H, 'e', 00H, 'n', 00H, 'g', 00H, 't', 00H, 'h', 00H, ' ', 00H
	DB	'>', 00H, ' ', 00H, 'p', 00H, 'r', 00H, 'e', 00H, 'v', 00H, 'i'
	DB	00H, 'o', 00H, 'u', 00H, 's', 00H, 'L', 00H, 'e', 00H, 'n', 00H
	DB	'g', 00H, 't', 00H, 'h', 00H, 00H, 00H	; `string'
CONST	ENDS
;	COMDAT ??_C@_1BI@EOOFKEPI@?$AAl?$AAe?$AAn?$AAg?$AAt?$AAh?$AA?5?$AA?$DM?$AA?5?$AA4?$AA0?$AA?$AA@
CONST	SEGMENT
??_C@_1BI@EOOFKEPI@?$AAl?$AAe?$AAn?$AAg?$AAt?$AAh?$AA?5?$AA?$DM?$AA?5?$AA4?$AA0?$AA?$AA@ DB 'l'
	DB	00H, 'e', 00H, 'n', 00H, 'g', 00H, 't', 00H, 'h', 00H, ' ', 00H
	DB	'<', 00H, ' ', 00H, '4', 00H, '0', 00H, 00H, 00H ; `string'
CONST	ENDS
;	COMDAT ??_C@_1CO@CNKHKANJ@?$AAo?$AAf?$AAf?$AAs?$AAe?$AAt?$AA?5?$AA?$DM?$AA?5?$AAs?$AAt?$AAr?$AAi?$AAn?$AAg?$AAs?$AAL?$AAe?$AAn?$AAg?$AAt?$AAh?$AA?$AA@
CONST	SEGMENT
??_C@_1CO@CNKHKANJ@?$AAo?$AAf?$AAf?$AAs?$AAe?$AAt?$AA?5?$AA?$DM?$AA?5?$AAs?$AAt?$AAr?$AAi?$AAn?$AAg?$AAs?$AAL?$AAe?$AAn?$AAg?$AAt?$AAh?$AA?$AA@ DB 'o'
	DB	00H, 'f', 00H, 'f', 00H, 's', 00H, 'e', 00H, 't', 00H, ' ', 00H
	DB	'<', 00H, ' ', 00H, 's', 00H, 't', 00H, 'r', 00H, 'i', 00H, 'n'
	DB	00H, 'g', 00H, 's', 00H, 'L', 00H, 'e', 00H, 'n', 00H, 'g', 00H
	DB	't', 00H, 'h', 00H, 00H, 00H			; `string'
CONST	ENDS
;	COMDAT ??_C@_1DM@CMHJJLCB@?$AAr?$AAa?$AAw?$AAD?$AAa?$AAt?$AAa?$AA?9?$AA?$DO?$AAf?$AAC?$AAF?$AAU?$AAS?$AAt?$AAr?$AAi?$AAn?$AAg?$AAT?$AAa?$AAb?$AAl?$AAe?$AA?5?$AA?$DN?$AA?$DN?$AA?5?$AA0?$AA?$AA@
CONST	SEGMENT
??_C@_1DM@CMHJJLCB@?$AAr?$AAa?$AAw?$AAD?$AAa?$AAt?$AAa?$AA?9?$AA?$DO?$AAf?$AAC?$AAF?$AAU?$AAS?$AAt?$AAr?$AAi?$AAn?$AAg?$AAT?$AAa?$AAb?$AAl?$AAe?$AA?5?$AA?$DN?$AA?$DN?$AA?5?$AA0?$AA?$AA@ DB 'r'
	DB	00H, 'a', 00H, 'w', 00H, 'D', 00H, 'a', 00H, 't', 00H, 'a', 00H
	DB	'-', 00H, '>', 00H, 'f', 00H, 'C', 00H, 'F', 00H, 'U', 00H, 'S'
	DB	00H, 't', 00H, 'r', 00H, 'i', 00H, 'n', 00H, 'g', 00H, 'T', 00H
	DB	'a', 00H, 'b', 00H, 'l', 00H, 'e', 00H, ' ', 00H, '=', 00H, '='
	DB	00H, ' ', 00H, '0', 00H, 00H, 00H		; `string'
CONST	ENDS
;	COMDAT ??_C@_1BO@DGEDBGAP@?$AAv?$AAa?$AAl?$AAu?$AAe?$AA?5?$AA?$DM?$AA?5?$AA0?$AAx?$AAf?$AAf?$AAf?$AAf?$AA?$AA@
CONST	SEGMENT
??_C@_1BO@DGEDBGAP@?$AAv?$AAa?$AAl?$AAu?$AAe?$AA?5?$AA?$DM?$AA?5?$AA0?$AAx?$AAf?$AAf?$AAf?$AAf?$AA?$AA@ DB 'v'
	DB	00H, 'a', 00H, 'l', 00H, 'u', 00H, 'e', 00H, ' ', 00H, '<', 00H
	DB	' ', 00H, '0', 00H, 'x', 00H, 'f', 00H, 'f', 00H, 'f', 00H, 'f'
	DB	00H, 00H, 00H				; `string'
CONST	ENDS
;	COMDAT ??_C@_1CK@IOKEGEHL@?$AAn?$AAu?$AAm?$AAK?$AAe?$AAy?$AAs?$AA?5?$AA?$DN?$AA?$DN?$AA?5?$AAn?$AAu?$AAm?$AAV?$AAa?$AAl?$AAu?$AAe?$AAs?$AA?$AA@
CONST	SEGMENT
??_C@_1CK@IOKEGEHL@?$AAn?$AAu?$AAm?$AAK?$AAe?$AAy?$AAs?$AA?5?$AA?$DN?$AA?$DN?$AA?5?$AAn?$AAu?$AAm?$AAV?$AAa?$AAl?$AAu?$AAe?$AAs?$AA?$AA@ DB 'n'
	DB	00H, 'u', 00H, 'm', 00H, 'K', 00H, 'e', 00H, 'y', 00H, 's', 00H
	DB	' ', 00H, '=', 00H, '=', 00H, ' ', 00H, 'n', 00H, 'u', 00H, 'm'
	DB	00H, 'V', 00H, 'a', 00H, 'l', 00H, 'u', 00H, 'e', 00H, 's', 00H
	DB	00H, 00H					; `string'
CONST	ENDS
;	COMDAT ??_C@_1DA@FLFLDFFK@?$AA?$CI?$AAk?$AAe?$AAy?$AA?5?$AA?$CG?$AA?5?$AA0?$AAx?$AAf?$AAf?$AA0?$AA0?$AA0?$AA0?$AA0?$AA0?$AA?$CJ?$AA?5?$AA?$CB?$AA?$DN?$AA?5?$AA0?$AA?$AA@
CONST	SEGMENT
??_C@_1DA@FLFLDFFK@?$AA?$CI?$AAk?$AAe?$AAy?$AA?5?$AA?$CG?$AA?5?$AA0?$AAx?$AAf?$AAf?$AA0?$AA0?$AA0?$AA0?$AA0?$AA0?$AA?$CJ?$AA?5?$AA?$CB?$AA?$DN?$AA?5?$AA0?$AA?$AA@ DB '('
	DB	00H, 'k', 00H, 'e', 00H, 'y', 00H, ' ', 00H, '&', 00H, ' ', 00H
	DB	'0', 00H, 'x', 00H, 'f', 00H, 'f', 00H, '0', 00H, '0', 00H, '0'
	DB	00H, '0', 00H, '0', 00H, '0', 00H, ')', 00H, ' ', 00H, '!', 00H
	DB	'=', 00H, ' ', 00H, '0', 00H, 00H, 00H	; `string'
CONST	ENDS
;	COMDAT ??_C@_1GC@HKLBPNNJ@?$AA?$CI?$AAk?$AAe?$AAy?$AA?5?$AA?$CG?$AA?5?$AA0?$AAx?$AA0?$AA0?$AAf?$AAf?$AAf?$AAf?$AAf?$AAf?$AA?$CJ?$AA?5?$AA?$DO?$AA?$DN?$AA?5?$AA?$CI?$AAp?$AAr?$AAe?$AAv?$AAi?$AAo?$AAu?$AAs?$AAK@
CONST	SEGMENT
??_C@_1GC@HKLBPNNJ@?$AA?$CI?$AAk?$AAe?$AAy?$AA?5?$AA?$CG?$AA?5?$AA0?$AAx?$AA0?$AA0?$AAf?$AAf?$AAf?$AAf?$AAf?$AAf?$AA?$CJ?$AA?5?$AA?$DO?$AA?$DN?$AA?5?$AA?$CI?$AAp?$AAr?$AAe?$AAv?$AAi?$AAo?$AAu?$AAs?$AAK@ DB '('
	DB	00H, 'k', 00H, 'e', 00H, 'y', 00H, ' ', 00H, '&', 00H, ' ', 00H
	DB	'0', 00H, 'x', 00H, '0', 00H, '0', 00H, 'f', 00H, 'f', 00H, 'f'
	DB	00H, 'f', 00H, 'f', 00H, 'f', 00H, ')', 00H, ' ', 00H, '>', 00H
	DB	'=', 00H, ' ', 00H, '(', 00H, 'p', 00H, 'r', 00H, 'e', 00H, 'v'
	DB	00H, 'i', 00H, 'o', 00H, 'u', 00H, 's', 00H, 'K', 00H, 'e', 00H
	DB	'y', 00H, ' ', 00H, '&', 00H, ' ', 00H, '0', 00H, 'x', 00H, '0'
	DB	00H, '0', 00H, 'f', 00H, 'f', 00H, 'f', 00H, 'f', 00H, 'f', 00H
	DB	'f', 00H, ')', 00H, 00H, 00H			; `string'
CONST	ENDS
;	COMDAT ??_C@_1FA@JMIBIFEG@?$AAf?$AAS?$AAp?$AAo?$AAo?$AAf?$AAI?$AAm?$AAp?$AAl?$AA?9?$AA?$DO?$AAf?$AAS?$AAp?$AAo?$AAo?$AAf?$AAD?$AAa?$AAt?$AAa?$AA?9?$AA?$DO?$AAf?$AAD?$AAa?$AAt?$AAa?$AAO?$AAw?$AAn@
CONST	SEGMENT
??_C@_1FA@JMIBIFEG@?$AAf?$AAS?$AAp?$AAo?$AAo?$AAf?$AAI?$AAm?$AAp?$AAl?$AA?9?$AA?$DO?$AAf?$AAS?$AAp?$AAo?$AAo?$AAf?$AAD?$AAa?$AAt?$AAa?$AA?9?$AA?$DO?$AAf?$AAD?$AAa?$AAt?$AAa?$AAO?$AAw?$AAn@ DB 'f'
	DB	00H, 'S', 00H, 'p', 00H, 'o', 00H, 'o', 00H, 'f', 00H, 'I', 00H
	DB	'm', 00H, 'p', 00H, 'l', 00H, '-', 00H, '>', 00H, 'f', 00H, 'S'
	DB	00H, 'p', 00H, 'o', 00H, 'o', 00H, 'f', 00H, 'D', 00H, 'a', 00H
	DB	't', 00H, 'a', 00H, '-', 00H, '>', 00H, 'f', 00H, 'D', 00H, 'a'
	DB	00H, 't', 00H, 'a', 00H, 'O', 00H, 'w', 00H, 'n', 00H, 'e', 00H
	DB	'd', 00H, ' ', 00H, '=', 00H, '=', 00H, ' ', 00H, '1', 00H, 00H
	DB	00H						; `string'
CONST	ENDS
;	COMDAT ?__LINE__Var@?1??outputData@ConfusabledataBuilder@icu_56@@AAEXAAW4UErrorCode@@@Z@4JA
_DATA	SEGMENT
?__LINE__Var@?1??outputData@ConfusabledataBuilder@icu_56@@AAEXAAW4UErrorCode@@@Z@4JA DD 01a7H ; `icu_56::ConfusabledataBuilder::outputData'::`2'::__LINE__Var
; Function compile flags: /Odtp /RTCsu /ZI
_DATA	ENDS
;	COMDAT ?outputData@ConfusabledataBuilder@icu_56@@AAEXAAW4UErrorCode@@@Z
_TEXT	SEGMENT
_length$72166 = -212					; size = 4
_offset$72164 = -200					; size = 4
_previousLength$ = -188					; size = 4
_destIndex$ = -176					; size = 4
_stringLengths$ = -164					; size = 4
_lengthTableLength$ = -152				; size = 4
_strings$ = -140					; size = 4
_stringsLength$ = -128					; size = 4
_value$72136 = -116					; size = 4
_values$ = -104						; size = 4
_numValues$ = -92					; size = 4
_rawData$ = -80						; size = 4
_key$72116 = -68					; size = 4
_previousKey$ = -56					; size = 4
_i$ = -44						; size = 4
_keys$ = -32						; size = 4
_numKeys$ = -20						; size = 4
_this$ = -8						; size = 4
_status$ = 8						; size = 4
?outputData@ConfusabledataBuilder@icu_56@@AAEXAAW4UErrorCode@@@Z PROC ; icu_56::ConfusabledataBuilder::outputData, COMDAT
; _this$ = ecx
; Line 423
	push	ebp
	mov	ebp, esp
	sub	esp, 408				; 00000198H
	push	ebx
	push	esi
	push	edi
	push	ecx
	lea	edi, DWORD PTR [ebp-408]
	mov	ecx, 102				; 00000066H
	mov	eax, -858993460				; ccccccccH
	rep stosd
	pop	ecx
	mov	DWORD PTR _this$[ebp], ecx
; Line 425
	mov	eax, DWORD PTR _this$[ebp]
	mov	ecx, DWORD PTR [eax]
	mov	edx, DWORD PTR [ecx+12]
	movsx	eax, BYTE PTR [edx+4]
	cmp	eax, 1
	je	SHORT $LN16@outputData
	mov	ecx, DWORD PTR ?__LINE__Var@?1??outputData@ConfusabledataBuilder@icu_56@@AAEXAAW4UErrorCode@@@Z@4JA
	add	ecx, 2
	mov	esi, esp
	push	ecx
	push	OFFSET ??_C@_1GA@LKJJAIHM@?$AAd?$AA?3?$AA?2?$AAm?$AAo?$AAz?$AAi?$AAl?$AAl?$AAa?$AA?2?$AAi?$AAn?$AAt?$AAl?$AA?2?$AAi?$AAc?$AAu?$AA?2?$AAs?$AAo?$AAu?$AAr?$AAc?$AAe?$AA?2?$AAi?$AA1?$AA8?$AAn?$AA?2@
	push	OFFSET ??_C@_1FA@JMIBIFEG@?$AAf?$AAS?$AAp?$AAo?$AAo?$AAf?$AAI?$AAm?$AAp?$AAl?$AA?9?$AA?$DO?$AAf?$AAS?$AAp?$AAo?$AAo?$AAf?$AAD?$AAa?$AAt?$AAa?$AA?9?$AA?$DO?$AAf?$AAD?$AAa?$AAt?$AAa?$AAO?$AAw?$AAn@
	call	DWORD PTR __imp___wassert
	add	esp, 12					; 0000000cH
	cmp	esi, esp
	call	__RTC_CheckEsp
$LN16@outputData:
; Line 431
	mov	esi, esp
	mov	eax, DWORD PTR _this$[ebp]
	mov	ecx, DWORD PTR [eax+28]
	call	DWORD PTR __imp_?size@UVector@icu_56@@QBEHXZ
	cmp	esi, esp
	call	__RTC_CheckEsp
	mov	DWORD PTR _numKeys$[ebp], eax
; Line 433
	mov	eax, DWORD PTR _status$[ebp]
	push	eax
	mov	ecx, DWORD PTR _numKeys$[ebp]
	shl	ecx, 2
	push	ecx
	mov	edx, DWORD PTR _this$[ebp]
	mov	eax, DWORD PTR [edx]
	mov	ecx, DWORD PTR [eax+12]
	call	?reserveSpace@SpoofData@icu_56@@QAEPAXHAAW4UErrorCode@@@Z ; icu_56::SpoofData::reserveSpace
	mov	DWORD PTR _keys$[ebp], eax
; Line 434
	mov	eax, DWORD PTR _status$[ebp]
	mov	ecx, DWORD PTR [eax]
	push	ecx
	call	?U_FAILURE@@YACW4UErrorCode@@@Z		; U_FAILURE
	add	esp, 4
	movsx	edx, al
	test	edx, edx
	je	SHORT $LN13@outputData
; Line 435
	jmp	$LN14@outputData
$LN13@outputData:
; Line 438
	mov	DWORD PTR _previousKey$[ebp], 0
; Line 439
	mov	DWORD PTR _i$[ebp], 0
	jmp	SHORT $LN12@outputData
$LN11@outputData:
	mov	eax, DWORD PTR _i$[ebp]
	add	eax, 1
	mov	DWORD PTR _i$[ebp], eax
$LN12@outputData:
	mov	eax, DWORD PTR _i$[ebp]
	cmp	eax, DWORD PTR _numKeys$[ebp]
	jge	$LN10@outputData
; Line 440
	mov	esi, esp
	mov	eax, DWORD PTR _i$[ebp]
	push	eax
	mov	ecx, DWORD PTR _this$[ebp]
	mov	ecx, DWORD PTR [ecx+28]
	call	DWORD PTR __imp_?elementAti@UVector@icu_56@@QBEHH@Z
	cmp	esi, esp
	call	__RTC_CheckEsp
	mov	DWORD PTR _key$72116[ebp], eax
; Line 442
	mov	eax, DWORD PTR _key$72116[ebp]
	and	eax, 16777215				; 00ffffffH
	mov	ecx, DWORD PTR _previousKey$[ebp]
	and	ecx, 16777215				; 00ffffffH
	cmp	eax, ecx
	jge	SHORT $LN17@outputData
	mov	edx, DWORD PTR ?__LINE__Var@?1??outputData@ConfusabledataBuilder@icu_56@@AAEXAAW4UErrorCode@@@Z@4JA
	add	edx, 19					; 00000013H
	mov	esi, esp
	push	edx
	push	OFFSET ??_C@_1GA@LKJJAIHM@?$AAd?$AA?3?$AA?2?$AAm?$AAo?$AAz?$AAi?$AAl?$AAl?$AAa?$AA?2?$AAi?$AAn?$AAt?$AAl?$AA?2?$AAi?$AAc?$AAu?$AA?2?$AAs?$AAo?$AAu?$AAr?$AAc?$AAe?$AA?2?$AAi?$AA1?$AA8?$AAn?$AA?2@
	push	OFFSET ??_C@_1GC@HKLBPNNJ@?$AA?$CI?$AAk?$AAe?$AAy?$AA?5?$AA?$CG?$AA?5?$AA0?$AAx?$AA0?$AA0?$AAf?$AAf?$AAf?$AAf?$AAf?$AAf?$AA?$CJ?$AA?5?$AA?$DO?$AA?$DN?$AA?5?$AA?$CI?$AAp?$AAr?$AAe?$AAv?$AAi?$AAo?$AAu?$AAs?$AAK@
	call	DWORD PTR __imp___wassert
	add	esp, 12					; 0000000cH
	cmp	esi, esp
	call	__RTC_CheckEsp
$LN17@outputData:
; Line 443
	mov	eax, DWORD PTR _key$72116[ebp]
	and	eax, -16777216				; ff000000H
	jne	SHORT $LN18@outputData
	mov	ecx, DWORD PTR ?__LINE__Var@?1??outputData@ConfusabledataBuilder@icu_56@@AAEXAAW4UErrorCode@@@Z@4JA
	add	ecx, 20					; 00000014H
	mov	esi, esp
	push	ecx
	push	OFFSET ??_C@_1GA@LKJJAIHM@?$AAd?$AA?3?$AA?2?$AAm?$AAo?$AAz?$AAi?$AAl?$AAl?$AAa?$AA?2?$AAi?$AAn?$AAt?$AAl?$AA?2?$AAi?$AAc?$AAu?$AA?2?$AAs?$AAo?$AAu?$AAr?$AAc?$AAe?$AA?2?$AAi?$AA1?$AA8?$AAn?$AA?2@
	push	OFFSET ??_C@_1DA@FLFLDFFK@?$AA?$CI?$AAk?$AAe?$AAy?$AA?5?$AA?$CG?$AA?5?$AA0?$AAx?$AAf?$AAf?$AA0?$AA0?$AA0?$AA0?$AA0?$AA0?$AA?$CJ?$AA?5?$AA?$CB?$AA?$DN?$AA?5?$AA0?$AA?$AA@
	call	DWORD PTR __imp___wassert
	add	esp, 12					; 0000000cH
	cmp	esi, esp
	call	__RTC_CheckEsp
$LN18@outputData:
; Line 444
	mov	eax, DWORD PTR _i$[ebp]
	mov	ecx, DWORD PTR _keys$[ebp]
	mov	edx, DWORD PTR _key$72116[ebp]
	mov	DWORD PTR [ecx+eax*4], edx
; Line 445
	mov	eax, DWORD PTR _key$72116[ebp]
	mov	DWORD PTR _previousKey$[ebp], eax
; Line 446
	jmp	$LN11@outputData
$LN10@outputData:
; Line 447
	mov	eax, DWORD PTR _this$[ebp]
	mov	ecx, DWORD PTR [eax]
	mov	edx, DWORD PTR [ecx+12]
	mov	eax, DWORD PTR [edx]
	mov	DWORD PTR _rawData$[ebp], eax
; Line 448
	mov	eax, DWORD PTR _keys$[ebp]
	sub	eax, DWORD PTR _rawData$[ebp]
	mov	ecx, DWORD PTR _rawData$[ebp]
	mov	DWORD PTR [ecx+12], eax
; Line 449
	mov	eax, DWORD PTR _rawData$[ebp]
	mov	ecx, DWORD PTR _numKeys$[ebp]
	mov	DWORD PTR [eax+16], ecx
; Line 450
	mov	eax, DWORD PTR _this$[ebp]
	mov	ecx, DWORD PTR [eax]
	mov	edx, DWORD PTR [ecx+12]
	mov	eax, DWORD PTR _keys$[ebp]
	mov	DWORD PTR [edx+20], eax
; Line 454
	mov	esi, esp
	mov	eax, DWORD PTR _this$[ebp]
	mov	ecx, DWORD PTR [eax+32]
	call	DWORD PTR __imp_?size@UVector@icu_56@@QBEHXZ
	cmp	esi, esp
	call	__RTC_CheckEsp
	mov	DWORD PTR _numValues$[ebp], eax
; Line 455
	mov	eax, DWORD PTR _numKeys$[ebp]
	cmp	eax, DWORD PTR _numValues$[ebp]
	je	SHORT $LN19@outputData
	mov	ecx, DWORD PTR ?__LINE__Var@?1??outputData@ConfusabledataBuilder@icu_56@@AAEXAAW4UErrorCode@@@Z@4JA
	add	ecx, 32					; 00000020H
	mov	esi, esp
	push	ecx
	push	OFFSET ??_C@_1GA@LKJJAIHM@?$AAd?$AA?3?$AA?2?$AAm?$AAo?$AAz?$AAi?$AAl?$AAl?$AAa?$AA?2?$AAi?$AAn?$AAt?$AAl?$AA?2?$AAi?$AAc?$AAu?$AA?2?$AAs?$AAo?$AAu?$AAr?$AAc?$AAe?$AA?2?$AAi?$AA1?$AA8?$AAn?$AA?2@
	push	OFFSET ??_C@_1CK@IOKEGEHL@?$AAn?$AAu?$AAm?$AAK?$AAe?$AAy?$AAs?$AA?5?$AA?$DN?$AA?$DN?$AA?5?$AAn?$AAu?$AAm?$AAV?$AAa?$AAl?$AAu?$AAe?$AAs?$AA?$AA@
	call	DWORD PTR __imp___wassert
	add	esp, 12					; 0000000cH
	cmp	esi, esp
	call	__RTC_CheckEsp
$LN19@outputData:
; Line 457
	mov	eax, DWORD PTR _status$[ebp]
	push	eax
	mov	ecx, DWORD PTR _numKeys$[ebp]
	shl	ecx, 1
	push	ecx
	mov	edx, DWORD PTR _this$[ebp]
	mov	eax, DWORD PTR [edx]
	mov	ecx, DWORD PTR [eax+12]
	call	?reserveSpace@SpoofData@icu_56@@QAEPAXHAAW4UErrorCode@@@Z ; icu_56::SpoofData::reserveSpace
	mov	DWORD PTR _values$[ebp], eax
; Line 458
	mov	eax, DWORD PTR _status$[ebp]
	mov	ecx, DWORD PTR [eax]
	push	ecx
	call	?U_FAILURE@@YACW4UErrorCode@@@Z		; U_FAILURE
	add	esp, 4
	movsx	edx, al
	test	edx, edx
	je	SHORT $LN9@outputData
; Line 459
	jmp	$LN14@outputData
$LN9@outputData:
; Line 461
	mov	DWORD PTR _i$[ebp], 0
	jmp	SHORT $LN8@outputData
$LN7@outputData:
	mov	eax, DWORD PTR _i$[ebp]
	add	eax, 1
	mov	DWORD PTR _i$[ebp], eax
$LN8@outputData:
	mov	eax, DWORD PTR _i$[ebp]
	cmp	eax, DWORD PTR _numValues$[ebp]
	jge	SHORT $LN6@outputData
; Line 462
	mov	esi, esp
	mov	eax, DWORD PTR _i$[ebp]
	push	eax
	mov	ecx, DWORD PTR _this$[ebp]
	mov	ecx, DWORD PTR [ecx+32]
	call	DWORD PTR __imp_?elementAti@UVector@icu_56@@QBEHH@Z
	cmp	esi, esp
	call	__RTC_CheckEsp
	mov	DWORD PTR _value$72136[ebp], eax
; Line 463
	cmp	DWORD PTR _value$72136[ebp], 65535	; 0000ffffH
	jb	SHORT $LN20@outputData
	mov	eax, DWORD PTR ?__LINE__Var@?1??outputData@ConfusabledataBuilder@icu_56@@AAEXAAW4UErrorCode@@@Z@4JA
	add	eax, 40					; 00000028H
	mov	esi, esp
	push	eax
	push	OFFSET ??_C@_1GA@LKJJAIHM@?$AAd?$AA?3?$AA?2?$AAm?$AAo?$AAz?$AAi?$AAl?$AAl?$AAa?$AA?2?$AAi?$AAn?$AAt?$AAl?$AA?2?$AAi?$AAc?$AAu?$AA?2?$AAs?$AAo?$AAu?$AAr?$AAc?$AAe?$AA?2?$AAi?$AA1?$AA8?$AAn?$AA?2@
	push	OFFSET ??_C@_1BO@DGEDBGAP@?$AAv?$AAa?$AAl?$AAu?$AAe?$AA?5?$AA?$DM?$AA?5?$AA0?$AAx?$AAf?$AAf?$AAf?$AAf?$AA?$AA@
	call	DWORD PTR __imp___wassert
	add	esp, 12					; 0000000cH
	cmp	esi, esp
	call	__RTC_CheckEsp
$LN20@outputData:
; Line 464
	mov	eax, DWORD PTR _i$[ebp]
	mov	ecx, DWORD PTR _values$[ebp]
	mov	dx, WORD PTR _value$72136[ebp]
	mov	WORD PTR [ecx+eax*2], dx
; Line 465
	jmp	SHORT $LN7@outputData
$LN6@outputData:
; Line 466
	mov	eax, DWORD PTR _this$[ebp]
	mov	ecx, DWORD PTR [eax]
	mov	edx, DWORD PTR [ecx+12]
	mov	eax, DWORD PTR [edx]
	mov	DWORD PTR _rawData$[ebp], eax
; Line 467
	mov	eax, DWORD PTR _values$[ebp]
	sub	eax, DWORD PTR _rawData$[ebp]
	mov	ecx, DWORD PTR _rawData$[ebp]
	mov	DWORD PTR [ecx+20], eax
; Line 468
	mov	eax, DWORD PTR _rawData$[ebp]
	mov	ecx, DWORD PTR _numValues$[ebp]
	mov	DWORD PTR [eax+24], ecx
; Line 469
	mov	eax, DWORD PTR _this$[ebp]
	mov	ecx, DWORD PTR [eax]
	mov	edx, DWORD PTR [ecx+12]
	mov	eax, DWORD PTR _values$[ebp]
	mov	DWORD PTR [edx+24], eax
; Line 473
	mov	esi, esp
	mov	eax, DWORD PTR _this$[ebp]
	mov	ecx, DWORD PTR [eax+36]
	call	DWORD PTR __imp_?length@UnicodeString@icu_56@@QBEHXZ
	cmp	esi, esp
	call	__RTC_CheckEsp
	mov	DWORD PTR _stringsLength$[ebp], eax
; Line 477
	mov	eax, DWORD PTR _status$[ebp]
	push	eax
	mov	ecx, DWORD PTR _stringsLength$[ebp]
	lea	edx, DWORD PTR [ecx+ecx+2]
	push	edx
	mov	eax, DWORD PTR _this$[ebp]
	mov	ecx, DWORD PTR [eax]
	mov	ecx, DWORD PTR [ecx+12]
	call	?reserveSpace@SpoofData@icu_56@@QAEPAXHAAW4UErrorCode@@@Z ; icu_56::SpoofData::reserveSpace
	mov	DWORD PTR _strings$[ebp], eax
; Line 478
	mov	eax, DWORD PTR _status$[ebp]
	mov	ecx, DWORD PTR [eax]
	push	ecx
	call	?U_FAILURE@@YACW4UErrorCode@@@Z		; U_FAILURE
	add	esp, 4
	movsx	edx, al
	test	edx, edx
	je	SHORT $LN5@outputData
; Line 479
	jmp	$LN14@outputData
$LN5@outputData:
; Line 481
	mov	esi, esp
	mov	eax, DWORD PTR _status$[ebp]
	push	eax
	mov	ecx, DWORD PTR _stringsLength$[ebp]
	add	ecx, 1
	push	ecx
	mov	edx, DWORD PTR _strings$[ebp]
	push	edx
	mov	eax, DWORD PTR _this$[ebp]
	mov	ecx, DWORD PTR [eax+36]
	call	DWORD PTR __imp_?extract@UnicodeString@icu_56@@QBEHPA_WHAAW4UErrorCode@@@Z
	cmp	esi, esp
	call	__RTC_CheckEsp
; Line 482
	mov	eax, DWORD PTR _this$[ebp]
	mov	ecx, DWORD PTR [eax]
	mov	edx, DWORD PTR [ecx+12]
	mov	eax, DWORD PTR [edx]
	mov	DWORD PTR _rawData$[ebp], eax
; Line 483
	mov	eax, DWORD PTR _rawData$[ebp]
	cmp	DWORD PTR [eax+28], 0
	je	SHORT $LN21@outputData
	mov	ecx, DWORD PTR ?__LINE__Var@?1??outputData@ConfusabledataBuilder@icu_56@@AAEXAAW4UErrorCode@@@Z@4JA
	add	ecx, 60					; 0000003cH
	mov	esi, esp
	push	ecx
	push	OFFSET ??_C@_1GA@LKJJAIHM@?$AAd?$AA?3?$AA?2?$AAm?$AAo?$AAz?$AAi?$AAl?$AAl?$AAa?$AA?2?$AAi?$AAn?$AAt?$AAl?$AA?2?$AAi?$AAc?$AAu?$AA?2?$AAs?$AAo?$AAu?$AAr?$AAc?$AAe?$AA?2?$AAi?$AA1?$AA8?$AAn?$AA?2@
	push	OFFSET ??_C@_1DM@CMHJJLCB@?$AAr?$AAa?$AAw?$AAD?$AAa?$AAt?$AAa?$AA?9?$AA?$DO?$AAf?$AAC?$AAF?$AAU?$AAS?$AAt?$AAr?$AAi?$AAn?$AAg?$AAT?$AAa?$AAb?$AAl?$AAe?$AA?5?$AA?$DN?$AA?$DN?$AA?5?$AA0?$AA?$AA@
	call	DWORD PTR __imp___wassert
	add	esp, 12					; 0000000cH
	cmp	esi, esp
	call	__RTC_CheckEsp
$LN21@outputData:
; Line 484
	mov	eax, DWORD PTR _strings$[ebp]
	sub	eax, DWORD PTR _rawData$[ebp]
	mov	ecx, DWORD PTR _rawData$[ebp]
	mov	DWORD PTR [ecx+28], eax
; Line 485
	mov	eax, DWORD PTR _rawData$[ebp]
	mov	ecx, DWORD PTR _stringsLength$[ebp]
	mov	DWORD PTR [eax+32], ecx
; Line 486
	mov	eax, DWORD PTR _this$[ebp]
	mov	ecx, DWORD PTR [eax]
	mov	edx, DWORD PTR [ecx+12]
	mov	eax, DWORD PTR _strings$[ebp]
	mov	DWORD PTR [edx+32], eax
; Line 493
	mov	esi, esp
	mov	eax, DWORD PTR _this$[ebp]
	mov	ecx, DWORD PTR [eax+40]
	call	DWORD PTR __imp_?size@UVector@icu_56@@QBEHXZ
	cmp	esi, esp
	call	__RTC_CheckEsp
	mov	DWORD PTR _lengthTableLength$[ebp], eax
; Line 495
	mov	eax, DWORD PTR _status$[ebp]
	push	eax
	mov	ecx, DWORD PTR _lengthTableLength$[ebp]
	shl	ecx, 1
	push	ecx
	mov	edx, DWORD PTR _this$[ebp]
	mov	eax, DWORD PTR [edx]
	mov	ecx, DWORD PTR [eax+12]
	call	?reserveSpace@SpoofData@icu_56@@QAEPAXHAAW4UErrorCode@@@Z ; icu_56::SpoofData::reserveSpace
	mov	DWORD PTR _stringLengths$[ebp], eax
; Line 496
	mov	eax, DWORD PTR _status$[ebp]
	mov	ecx, DWORD PTR [eax]
	push	ecx
	call	?U_FAILURE@@YACW4UErrorCode@@@Z		; U_FAILURE
	add	esp, 4
	movsx	edx, al
	test	edx, edx
	je	SHORT $LN4@outputData
; Line 497
	jmp	$LN14@outputData
$LN4@outputData:
; Line 499
	mov	DWORD PTR _destIndex$[ebp], 0
; Line 500
	mov	DWORD PTR _previousLength$[ebp], 0
; Line 501
	mov	DWORD PTR _i$[ebp], 0
	jmp	SHORT $LN3@outputData
$LN2@outputData:
	mov	eax, DWORD PTR _i$[ebp]
	add	eax, 2
	mov	DWORD PTR _i$[ebp], eax
$LN3@outputData:
	mov	eax, DWORD PTR _i$[ebp]
	cmp	eax, DWORD PTR _lengthTableLength$[ebp]
	jge	$LN1@outputData
; Line 502
	mov	esi, esp
	mov	eax, DWORD PTR _i$[ebp]
	push	eax
	mov	ecx, DWORD PTR _this$[ebp]
	mov	ecx, DWORD PTR [ecx+40]
	call	DWORD PTR __imp_?elementAti@UVector@icu_56@@QBEHH@Z
	cmp	esi, esp
	call	__RTC_CheckEsp
	mov	DWORD PTR _offset$72164[ebp], eax
; Line 503
	mov	eax, DWORD PTR _i$[ebp]
	add	eax, 1
	mov	esi, esp
	push	eax
	mov	ecx, DWORD PTR _this$[ebp]
	mov	ecx, DWORD PTR [ecx+40]
	call	DWORD PTR __imp_?elementAti@UVector@icu_56@@QBEHH@Z
	cmp	esi, esp
	call	__RTC_CheckEsp
	mov	DWORD PTR _length$72166[ebp], eax
; Line 504
	mov	eax, DWORD PTR _offset$72164[ebp]
	cmp	eax, DWORD PTR _stringsLength$[ebp]
	jb	SHORT $LN22@outputData
	mov	ecx, DWORD PTR ?__LINE__Var@?1??outputData@ConfusabledataBuilder@icu_56@@AAEXAAW4UErrorCode@@@Z@4JA
	add	ecx, 81					; 00000051H
	mov	esi, esp
	push	ecx
	push	OFFSET ??_C@_1GA@LKJJAIHM@?$AAd?$AA?3?$AA?2?$AAm?$AAo?$AAz?$AAi?$AAl?$AAl?$AAa?$AA?2?$AAi?$AAn?$AAt?$AAl?$AA?2?$AAi?$AAc?$AAu?$AA?2?$AAs?$AAo?$AAu?$AAr?$AAc?$AAe?$AA?2?$AAi?$AA1?$AA8?$AAn?$AA?2@
	push	OFFSET ??_C@_1CO@CNKHKANJ@?$AAo?$AAf?$AAf?$AAs?$AAe?$AAt?$AA?5?$AA?$DM?$AA?5?$AAs?$AAt?$AAr?$AAi?$AAn?$AAg?$AAs?$AAL?$AAe?$AAn?$AAg?$AAt?$AAh?$AA?$AA@
	call	DWORD PTR __imp___wassert
	add	esp, 12					; 0000000cH
	cmp	esi, esp
	call	__RTC_CheckEsp
$LN22@outputData:
; Line 505
	cmp	DWORD PTR _length$72166[ebp], 40	; 00000028H
	jb	SHORT $LN23@outputData
	mov	eax, DWORD PTR ?__LINE__Var@?1??outputData@ConfusabledataBuilder@icu_56@@AAEXAAW4UErrorCode@@@Z@4JA
	add	eax, 82					; 00000052H
	mov	esi, esp
	push	eax
	push	OFFSET ??_C@_1GA@LKJJAIHM@?$AAd?$AA?3?$AA?2?$AAm?$AAo?$AAz?$AAi?$AAl?$AAl?$AAa?$AA?2?$AAi?$AAn?$AAt?$AAl?$AA?2?$AAi?$AAc?$AAu?$AA?2?$AAs?$AAo?$AAu?$AAr?$AAc?$AAe?$AA?2?$AAi?$AA1?$AA8?$AAn?$AA?2@
	push	OFFSET ??_C@_1BI@EOOFKEPI@?$AAl?$AAe?$AAn?$AAg?$AAt?$AAh?$AA?5?$AA?$DM?$AA?5?$AA4?$AA0?$AA?$AA@
	call	DWORD PTR __imp___wassert
	add	esp, 12					; 0000000cH
	cmp	esi, esp
	call	__RTC_CheckEsp
$LN23@outputData:
; Line 507
	mov	eax, DWORD PTR _length$72166[ebp]
	cmp	eax, DWORD PTR _previousLength$[ebp]
	ja	SHORT $LN24@outputData
	mov	ecx, DWORD PTR ?__LINE__Var@?1??outputData@ConfusabledataBuilder@icu_56@@AAEXAAW4UErrorCode@@@Z@4JA
	add	ecx, 84					; 00000054H
	mov	esi, esp
	push	ecx
	push	OFFSET ??_C@_1GA@LKJJAIHM@?$AAd?$AA?3?$AA?2?$AAm?$AAo?$AAz?$AAi?$AAl?$AAl?$AAa?$AA?2?$AAi?$AAn?$AAt?$AAl?$AA?2?$AAi?$AAc?$AAu?$AA?2?$AAs?$AAo?$AAu?$AAr?$AAc?$AAe?$AA?2?$AAi?$AA1?$AA8?$AAn?$AA?2@
	push	OFFSET ??_C@_1DA@MLGKDBCD@?$AAl?$AAe?$AAn?$AAg?$AAt?$AAh?$AA?5?$AA?$DO?$AA?5?$AAp?$AAr?$AAe?$AAv?$AAi?$AAo?$AAu?$AAs?$AAL?$AAe?$AAn?$AAg?$AAt?$AAh?$AA?$AA@
	call	DWORD PTR __imp___wassert
	add	esp, 12					; 0000000cH
	cmp	esi, esp
	call	__RTC_CheckEsp
$LN24@outputData:
; Line 508
	mov	eax, DWORD PTR _destIndex$[ebp]
	mov	ecx, DWORD PTR _stringLengths$[ebp]
	mov	dx, WORD PTR _offset$72164[ebp]
	mov	WORD PTR [ecx+eax*2], dx
	mov	eax, DWORD PTR _destIndex$[ebp]
	add	eax, 1
	mov	DWORD PTR _destIndex$[ebp], eax
; Line 509
	mov	eax, DWORD PTR _destIndex$[ebp]
	mov	ecx, DWORD PTR _stringLengths$[ebp]
	mov	dx, WORD PTR _length$72166[ebp]
	mov	WORD PTR [ecx+eax*2], dx
	mov	eax, DWORD PTR _destIndex$[ebp]
	add	eax, 1
	mov	DWORD PTR _destIndex$[ebp], eax
; Line 510
	mov	eax, DWORD PTR _length$72166[ebp]
	mov	DWORD PTR _previousLength$[ebp], eax
; Line 511
	jmp	$LN2@outputData
$LN1@outputData:
; Line 512
	mov	eax, DWORD PTR _this$[ebp]
	mov	ecx, DWORD PTR [eax]
	mov	edx, DWORD PTR [ecx+12]
	mov	eax, DWORD PTR [edx]
	mov	DWORD PTR _rawData$[ebp], eax
; Line 513
	mov	eax, DWORD PTR _stringLengths$[ebp]
	sub	eax, DWORD PTR _rawData$[ebp]
	mov	ecx, DWORD PTR _rawData$[ebp]
	mov	DWORD PTR [ecx+36], eax
; Line 516
	mov	eax, DWORD PTR _lengthTableLength$[ebp]
	cdq
	sub	eax, edx
	sar	eax, 1
	mov	ecx, DWORD PTR _rawData$[ebp]
	mov	DWORD PTR [ecx+40], eax
; Line 518
	mov	eax, DWORD PTR _this$[ebp]
	mov	ecx, DWORD PTR [eax]
	mov	edx, DWORD PTR [ecx+12]
	mov	eax, DWORD PTR _stringLengths$[ebp]
	mov	DWORD PTR [edx+28], eax
$LN14@outputData:
; Line 519
	pop	edi
	pop	esi
	pop	ebx
	add	esp, 408				; 00000198H
	cmp	ebp, esp
	call	__RTC_CheckEsp
	mov	esp, ebp
	pop	ebp
	ret	4
?outputData@ConfusabledataBuilder@icu_56@@AAEXAAW4UErrorCode@@@Z ENDP ; icu_56::ConfusabledataBuilder::outputData
_TEXT	ENDS
PUBLIC	?getMapping@ConfusabledataBuilder@icu_56@@AAE?AVUnicodeString@2@H@Z ; icu_56::ConfusabledataBuilder::getMapping
PUBLIC	__$ArrayPad$
EXTRN	__imp_?setElementAt@UVector@icu_56@@QAEXHH@Z:PROC
EXTRN	__imp_??8UnicodeString@icu_56@@QBECABV01@@Z:PROC
EXTRN	_uhash_iget_56:PROC
;	COMDAT xdata$x
xdata$x	SEGMENT
__unwindtable$?addKeyEntry@ConfusabledataBuilder@icu_56@@AAEXHPAUUHashtable@@HAAW4UErrorCode@@@Z DD 0ffffffffH
	DD	FLAT:__unwindfunclet$?addKeyEntry@ConfusabledataBuilder@icu_56@@AAEXHPAUUHashtable@@HAAW4UErrorCode@@@Z$0
__ehfuncinfo$?addKeyEntry@ConfusabledataBuilder@icu_56@@AAEXHPAUUHashtable@@HAAW4UErrorCode@@@Z DD 019930522H
	DD	01H
	DD	FLAT:__unwindtable$?addKeyEntry@ConfusabledataBuilder@icu_56@@AAEXHPAUUHashtable@@HAAW4UErrorCode@@@Z
	DD	2 DUP(00H)
	DD	2 DUP(00H)
	DD	00H
	DD	01H
; Function compile flags: /Odtp /RTCsu /ZI
xdata$x	ENDS
;	COMDAT ?addKeyEntry@ConfusabledataBuilder@icu_56@@AAEXHPAUUHashtable@@HAAW4UErrorCode@@@Z
_TEXT	SEGMENT
_previousKey$72208 = -204				; size = 4
_previousKeyIndex$72207 = -192				; size = 4
_newData$ = -180					; size = 4
_adjustedMappingLength$ = -168				; size = 4
_newKey$ = -156						; size = 4
_mapping$72198 = -144					; size = 64
_key$72196 = -72					; size = 4
_i$ = -60						; size = 4
_keyHasMultipleValues$ = -45				; size = 1
_targetMapping$ = -36					; size = 4
_this$ = -24						; size = 4
__$ArrayPad$ = -16					; size = 4
__$EHRec$ = -12						; size = 12
_keyChar$ = 8						; size = 4
_table$ = 12						; size = 4
_tableFlag$ = 16					; size = 4
_status$ = 20						; size = 4
?addKeyEntry@ConfusabledataBuilder@icu_56@@AAEXHPAUUHashtable@@HAAW4UErrorCode@@@Z PROC ; icu_56::ConfusabledataBuilder::addKeyEntry, COMDAT
; _this$ = ecx
; Line 533
	push	ebp
	mov	ebp, esp
	push	-1
	push	__ehhandler$?addKeyEntry@ConfusabledataBuilder@icu_56@@AAEXHPAUUHashtable@@HAAW4UErrorCode@@@Z
	mov	eax, DWORD PTR fs:0
	push	eax
	sub	esp, 388				; 00000184H
	push	ebx
	push	esi
	push	edi
	push	ecx
	lea	edi, DWORD PTR [ebp-400]
	mov	ecx, 97					; 00000061H
	mov	eax, -858993460				; ccccccccH
	rep stosd
	pop	ecx
	mov	eax, DWORD PTR ___security_cookie
	xor	eax, ebp
	mov	DWORD PTR __$ArrayPad$[ebp], eax
	push	eax
	lea	eax, DWORD PTR __$EHRec$[ebp]
	mov	DWORD PTR fs:0, eax
	mov	DWORD PTR _this$[ebp], ecx
; Line 535
	mov	eax, DWORD PTR _keyChar$[ebp]
	push	eax
	mov	ecx, DWORD PTR _table$[ebp]
	push	ecx
	call	_uhash_iget_56
	add	esp, 8
	mov	DWORD PTR _targetMapping$[ebp], eax
; Line 536
	cmp	DWORD PTR _targetMapping$[ebp], 0
	jne	SHORT $LN9@addKeyEntr
; Line 540
	jmp	$LN10@addKeyEntr
$LN9@addKeyEntr:
; Line 547
	mov	BYTE PTR _keyHasMultipleValues$[ebp], 0
; Line 549
	mov	esi, esp
	mov	eax, DWORD PTR _this$[ebp]
	mov	ecx, DWORD PTR [eax+28]
	call	DWORD PTR __imp_?size@UVector@icu_56@@QBEHXZ
	cmp	esi, esp
	call	__RTC_CheckEsp
	sub	eax, 1
	mov	DWORD PTR _i$[ebp], eax
	jmp	SHORT $LN8@addKeyEntr
$LN7@addKeyEntr:
	mov	eax, DWORD PTR _i$[ebp]
	sub	eax, 1
	mov	DWORD PTR _i$[ebp], eax
$LN8@addKeyEntr:
	cmp	DWORD PTR _i$[ebp], 0
	jl	$LN6@addKeyEntr
; Line 550
	mov	esi, esp
	mov	eax, DWORD PTR _i$[ebp]
	push	eax
	mov	ecx, DWORD PTR _this$[ebp]
	mov	ecx, DWORD PTR [ecx+28]
	call	DWORD PTR __imp_?elementAti@UVector@icu_56@@QBEHH@Z
	cmp	esi, esp
	call	__RTC_CheckEsp
	mov	DWORD PTR _key$72196[ebp], eax
; Line 551
	mov	eax, DWORD PTR _key$72196[ebp]
	and	eax, 16777215				; 00ffffffH
	cmp	eax, DWORD PTR _keyChar$[ebp]
	je	SHORT $LN5@addKeyEntr
; Line 554
	jmp	$LN6@addKeyEntr
$LN5@addKeyEntr:
; Line 556
	mov	eax, DWORD PTR _i$[ebp]
	push	eax
	lea	ecx, DWORD PTR _mapping$72198[ebp]
	push	ecx
	mov	ecx, DWORD PTR _this$[ebp]
	call	?getMapping@ConfusabledataBuilder@icu_56@@AAE?AVUnicodeString@2@H@Z ; icu_56::ConfusabledataBuilder::getMapping
	mov	DWORD PTR __$EHRec$[ebp+8], 0
; Line 557
	mov	esi, esp
	mov	eax, DWORD PTR _targetMapping$[ebp]
	mov	ecx, DWORD PTR [eax]
	push	ecx
	lea	ecx, DWORD PTR _mapping$72198[ebp]
	call	DWORD PTR __imp_??8UnicodeString@icu_56@@QBECABV01@@Z
	cmp	esi, esp
	call	__RTC_CheckEsp
	movsx	edx, al
	test	edx, edx
	je	SHORT $LN4@addKeyEntr
; Line 560
	mov	eax, DWORD PTR _key$72196[ebp]
	or	eax, DWORD PTR _tableFlag$[ebp]
	mov	DWORD PTR _key$72196[ebp], eax
; Line 561
	mov	esi, esp
	mov	eax, DWORD PTR _i$[ebp]
	push	eax
	mov	ecx, DWORD PTR _key$72196[ebp]
	push	ecx
	mov	edx, DWORD PTR _this$[ebp]
	mov	ecx, DWORD PTR [edx+28]
	call	DWORD PTR __imp_?setElementAt@UVector@icu_56@@QAEXHH@Z
	cmp	esi, esp
	call	__RTC_CheckEsp
; Line 562
	mov	DWORD PTR __$EHRec$[ebp+8], -1
	mov	esi, esp
	lea	ecx, DWORD PTR _mapping$72198[ebp]
	call	DWORD PTR __imp_??1UnicodeString@icu_56@@UAE@XZ
	cmp	esi, esp
	call	__RTC_CheckEsp
	jmp	$LN10@addKeyEntr
$LN4@addKeyEntr:
; Line 564
	mov	BYTE PTR _keyHasMultipleValues$[ebp], 1
; Line 565
	mov	DWORD PTR __$EHRec$[ebp+8], -1
	mov	esi, esp
	lea	ecx, DWORD PTR _mapping$72198[ebp]
	call	DWORD PTR __imp_??1UnicodeString@icu_56@@UAE@XZ
	cmp	esi, esp
	call	__RTC_CheckEsp
	jmp	$LN7@addKeyEntr
$LN6@addKeyEntr:
; Line 570
	mov	eax, DWORD PTR _keyChar$[ebp]
	or	eax, DWORD PTR _tableFlag$[ebp]
	mov	DWORD PTR _newKey$[ebp], eax
; Line 571
	movsx	eax, BYTE PTR _keyHasMultipleValues$[ebp]
	test	eax, eax
	je	SHORT $LN3@addKeyEntr
; Line 572
	mov	eax, DWORD PTR _newKey$[ebp]
	or	eax, 268435456				; 10000000H
	mov	DWORD PTR _newKey$[ebp], eax
$LN3@addKeyEntr:
; Line 574
	mov	esi, esp
	mov	eax, DWORD PTR _targetMapping$[ebp]
	mov	ecx, DWORD PTR [eax]
	call	DWORD PTR __imp_?length@UnicodeString@icu_56@@QBEHXZ
	cmp	esi, esp
	call	__RTC_CheckEsp
	sub	eax, 1
	mov	DWORD PTR _adjustedMappingLength$[ebp], eax
; Line 575
	cmp	DWORD PTR _adjustedMappingLength$[ebp], 3
	jle	SHORT $LN2@addKeyEntr
; Line 576
	mov	DWORD PTR _adjustedMappingLength$[ebp], 3
$LN2@addKeyEntr:
; Line 578
	mov	eax, DWORD PTR _adjustedMappingLength$[ebp]
	shl	eax, 29					; 0000001dH
	or	eax, DWORD PTR _newKey$[ebp]
	mov	DWORD PTR _newKey$[ebp], eax
; Line 580
	mov	eax, DWORD PTR _targetMapping$[ebp]
	mov	ecx, DWORD PTR [eax+4]
	mov	DWORD PTR _newData$[ebp], ecx
; Line 582
	mov	esi, esp
	mov	eax, DWORD PTR _status$[ebp]
	push	eax
	mov	ecx, DWORD PTR _newKey$[ebp]
	push	ecx
	mov	edx, DWORD PTR _this$[ebp]
	mov	ecx, DWORD PTR [edx+28]
	call	DWORD PTR __imp_?addElement@UVector@icu_56@@QAEXHAAW4UErrorCode@@@Z
	cmp	esi, esp
	call	__RTC_CheckEsp
; Line 583
	mov	esi, esp
	mov	eax, DWORD PTR _status$[ebp]
	push	eax
	mov	ecx, DWORD PTR _newData$[ebp]
	push	ecx
	mov	edx, DWORD PTR _this$[ebp]
	mov	ecx, DWORD PTR [edx+32]
	call	DWORD PTR __imp_?addElement@UVector@icu_56@@QAEXHAAW4UErrorCode@@@Z
	cmp	esi, esp
	call	__RTC_CheckEsp
; Line 587
	movsx	eax, BYTE PTR _keyHasMultipleValues$[ebp]
	test	eax, eax
	je	SHORT $LN10@addKeyEntr
; Line 588
	mov	esi, esp
	mov	eax, DWORD PTR _this$[ebp]
	mov	ecx, DWORD PTR [eax+28]
	call	DWORD PTR __imp_?size@UVector@icu_56@@QBEHXZ
	cmp	esi, esp
	call	__RTC_CheckEsp
	sub	eax, 2
	mov	DWORD PTR _previousKeyIndex$72207[ebp], eax
; Line 589
	mov	esi, esp
	mov	eax, DWORD PTR _previousKeyIndex$72207[ebp]
	push	eax
	mov	ecx, DWORD PTR _this$[ebp]
	mov	ecx, DWORD PTR [ecx+28]
	call	DWORD PTR __imp_?elementAti@UVector@icu_56@@QBEHH@Z
	cmp	esi, esp
	call	__RTC_CheckEsp
	mov	DWORD PTR _previousKey$72208[ebp], eax
; Line 590
	mov	eax, DWORD PTR _previousKey$72208[ebp]
	or	eax, 268435456				; 10000000H
	mov	DWORD PTR _previousKey$72208[ebp], eax
; Line 591
	mov	esi, esp
	mov	eax, DWORD PTR _previousKeyIndex$72207[ebp]
	push	eax
	mov	ecx, DWORD PTR _previousKey$72208[ebp]
	push	ecx
	mov	edx, DWORD PTR _this$[ebp]
	mov	ecx, DWORD PTR [edx+28]
	call	DWORD PTR __imp_?setElementAt@UVector@icu_56@@QAEXHH@Z
	cmp	esi, esp
	call	__RTC_CheckEsp
$LN10@addKeyEntr:
; Line 593
	push	edx
	mov	ecx, ebp
	push	eax
	lea	edx, DWORD PTR $LN16@addKeyEntr
	call	@_RTC_CheckStackVars@8
	pop	eax
	pop	edx
	mov	ecx, DWORD PTR __$EHRec$[ebp]
	mov	DWORD PTR fs:0, ecx
	pop	ecx
	pop	edi
	pop	esi
	pop	ebx
	mov	ecx, DWORD PTR __$ArrayPad$[ebp]
	xor	ecx, ebp
	call	@__security_check_cookie@4
	add	esp, 400				; 00000190H
	cmp	ebp, esp
	call	__RTC_CheckEsp
	mov	esp, ebp
	pop	ebp
	ret	16					; 00000010H
	npad	1
$LN16@addKeyEntr:
	DD	1
	DD	$LN15@addKeyEntr
$LN15@addKeyEntr:
	DD	-144					; ffffff70H
	DD	64					; 00000040H
	DD	$LN13@addKeyEntr
$LN13@addKeyEntr:
	DB	109					; 0000006dH
	DB	97					; 00000061H
	DB	112					; 00000070H
	DB	112					; 00000070H
	DB	105					; 00000069H
	DB	110					; 0000006eH
	DB	103					; 00000067H
	DB	0
_TEXT	ENDS
;	COMDAT text$x
text$x	SEGMENT
__unwindfunclet$?addKeyEntry@ConfusabledataBuilder@icu_56@@AAEXHPAUUHashtable@@HAAW4UErrorCode@@@Z$0:
	mov	esi, esp
	lea	ecx, DWORD PTR _mapping$72198[ebp]
	call	DWORD PTR __imp_??1UnicodeString@icu_56@@UAE@XZ
	cmp	esi, esp
	jmp	__RTC_CheckEsp
__ehhandler$?addKeyEntry@ConfusabledataBuilder@icu_56@@AAEXHPAUUHashtable@@HAAW4UErrorCode@@@Z:
	mov	edx, DWORD PTR [esp+8]
	lea	eax, DWORD PTR [edx+12]
	mov	ecx, DWORD PTR [edx-404]
	xor	ecx, eax
	call	@__security_check_cookie@4
	mov	ecx, DWORD PTR [edx-4]
	xor	ecx, eax
	call	@__security_check_cookie@4
	mov	eax, OFFSET __ehfuncinfo$?addKeyEntry@ConfusabledataBuilder@icu_56@@AAEXHPAUUHashtable@@HAAW4UErrorCode@@@Z
	jmp	___CxxFrameHandler3
text$x	ENDS
?addKeyEntry@ConfusabledataBuilder@icu_56@@AAEXHPAUUHashtable@@HAAW4UErrorCode@@@Z ENDP ; icu_56::ConfusabledataBuilder::addKeyEntry
PUBLIC	??_C@_13COJANIEC@?$AA0?$AA?$AA@			; `string'
PUBLIC	??_C@_1BE@NALLKCIK@?$AAl?$AAe?$AAn?$AAg?$AAt?$AAh?$AA?$DO?$AA?$DN?$AA3?$AA?$AA@ ; `string'
PUBLIC	?__LINE__Var@?1??getMapping@ConfusabledataBuilder@icu_56@@AAE?AVUnicodeString@3@H@Z@4JA ; `icu_56::ConfusabledataBuilder::getMapping'::`2'::__LINE__Var
EXTRN	__imp_??0UnicodeString@icu_56@@QAE@ABV01@HH@Z:PROC
EXTRN	__imp_??0UnicodeString@icu_56@@QAE@_W@Z:PROC
;	COMDAT ??_C@_13COJANIEC@?$AA0?$AA?$AA@
CONST	SEGMENT
??_C@_13COJANIEC@?$AA0?$AA?$AA@ DB '0', 00H, 00H, 00H	; `string'
CONST	ENDS
;	COMDAT ??_C@_1BE@NALLKCIK@?$AAl?$AAe?$AAn?$AAg?$AAt?$AAh?$AA?$DO?$AA?$DN?$AA3?$AA?$AA@
CONST	SEGMENT
??_C@_1BE@NALLKCIK@?$AAl?$AAe?$AAn?$AAg?$AAt?$AAh?$AA?$DO?$AA?$DN?$AA3?$AA?$AA@ DB 'l'
	DB	00H, 'e', 00H, 'n', 00H, 'g', 00H, 't', 00H, 'h', 00H, '>', 00H
	DB	'=', 00H, '3', 00H, 00H, 00H			; `string'
CONST	ENDS
;	COMDAT ?__LINE__Var@?1??getMapping@ConfusabledataBuilder@icu_56@@AAE?AVUnicodeString@3@H@Z@4JA
_DATA	SEGMENT
?__LINE__Var@?1??getMapping@ConfusabledataBuilder@icu_56@@AAE?AVUnicodeString@3@H@Z@4JA DD 0255H ; `icu_56::ConfusabledataBuilder::getMapping'::`2'::__LINE__Var
; Function compile flags: /Odtp /RTCsu /ZI
_DATA	ENDS
;	COMDAT ?getMapping@ConfusabledataBuilder@icu_56@@AAE?AVUnicodeString@2@H@Z
_TEXT	SEGMENT
tv74 = -280						; size = 4
$T79288 = -272						; size = 4
_i$72228 = -68						; size = 4
_lastIndexWithLen$ = -56				; size = 4
_length$ = -44						; size = 4
_value$ = -32						; size = 4
_key$ = -20						; size = 4
_this$ = -8						; size = 4
___$ReturnUdt$ = 8					; size = 4
_index$ = 12						; size = 4
?getMapping@ConfusabledataBuilder@icu_56@@AAE?AVUnicodeString@2@H@Z PROC ; icu_56::ConfusabledataBuilder::getMapping, COMDAT
; _this$ = ecx
; Line 597
	push	ebp
	mov	ebp, esp
	sub	esp, 280				; 00000118H
	push	ebx
	push	esi
	push	edi
	push	ecx
	lea	edi, DWORD PTR [ebp-280]
	mov	ecx, 70					; 00000046H
	mov	eax, -858993460				; ccccccccH
	rep stosd
	pop	ecx
	mov	DWORD PTR _this$[ebp], ecx
	mov	DWORD PTR $T79288[ebp], 0
; Line 598
	mov	esi, esp
	mov	eax, DWORD PTR _index$[ebp]
	push	eax
	mov	ecx, DWORD PTR _this$[ebp]
	mov	ecx, DWORD PTR [ecx+28]
	call	DWORD PTR __imp_?elementAti@UVector@icu_56@@QBEHH@Z
	cmp	esi, esp
	call	__RTC_CheckEsp
	mov	DWORD PTR _key$[ebp], eax
; Line 599
	mov	esi, esp
	mov	eax, DWORD PTR _index$[ebp]
	push	eax
	mov	ecx, DWORD PTR _this$[ebp]
	mov	ecx, DWORD PTR [ecx+32]
	call	DWORD PTR __imp_?elementAti@UVector@icu_56@@QBEHH@Z
	cmp	esi, esp
	call	__RTC_CheckEsp
	mov	DWORD PTR _value$[ebp], eax
; Line 600
	mov	eax, DWORD PTR _key$[ebp]
	sar	eax, 29					; 0000001dH
	and	eax, 3
	mov	DWORD PTR _length$[ebp], eax
; Line 602
	mov	eax, DWORD PTR _length$[ebp]
	mov	DWORD PTR tv74[ebp], eax
	cmp	DWORD PTR tv74[ebp], 3
	ja	$LN1@getMapping
	mov	ecx, DWORD PTR tv74[ebp]
	jmp	DWORD PTR $LN17@getMapping[ecx*4]
$LN8@getMapping:
; Line 604
	mov	esi, esp
	movzx	eax, WORD PTR _value$[ebp]
	push	eax
	mov	ecx, DWORD PTR ___$ReturnUdt$[ebp]
	call	DWORD PTR __imp_??0UnicodeString@icu_56@@QAE@_W@Z
	cmp	esi, esp
	call	__RTC_CheckEsp
	mov	ecx, DWORD PTR $T79288[ebp]
	or	ecx, 1
	mov	DWORD PTR $T79288[ebp], ecx
	mov	eax, DWORD PTR ___$ReturnUdt$[ebp]
	jmp	$LN11@getMapping
$LN7@getMapping:
; Line 607
	mov	eax, DWORD PTR _length$[ebp]
	add	eax, 1
	mov	esi, esp
	push	eax
	mov	ecx, DWORD PTR _value$[ebp]
	push	ecx
	mov	edx, DWORD PTR _this$[ebp]
	mov	eax, DWORD PTR [edx+36]
	push	eax
	mov	ecx, DWORD PTR ___$ReturnUdt$[ebp]
	call	DWORD PTR __imp_??0UnicodeString@icu_56@@QAE@ABV01@HH@Z
	cmp	esi, esp
	call	__RTC_CheckEsp
	mov	ecx, DWORD PTR $T79288[ebp]
	or	ecx, 1
	mov	DWORD PTR $T79288[ebp], ecx
	mov	eax, DWORD PTR ___$ReturnUdt$[ebp]
	jmp	$LN11@getMapping
$LN6@getMapping:
; Line 609
	mov	DWORD PTR _length$[ebp], 0
; Line 611
	mov	DWORD PTR _i$72228[ebp], 0
	jmp	SHORT $LN5@getMapping
$LN4@getMapping:
	mov	eax, DWORD PTR _i$72228[ebp]
	add	eax, 2
	mov	DWORD PTR _i$72228[ebp], eax
$LN5@getMapping:
	mov	esi, esp
	mov	eax, DWORD PTR _this$[ebp]
	mov	ecx, DWORD PTR [eax+40]
	call	DWORD PTR __imp_?size@UVector@icu_56@@QBEHXZ
	cmp	esi, esp
	call	__RTC_CheckEsp
	cmp	DWORD PTR _i$72228[ebp], eax
	jge	SHORT $LN3@getMapping
; Line 612
	mov	esi, esp
	mov	eax, DWORD PTR _i$72228[ebp]
	push	eax
	mov	ecx, DWORD PTR _this$[ebp]
	mov	ecx, DWORD PTR [ecx+40]
	call	DWORD PTR __imp_?elementAti@UVector@icu_56@@QBEHH@Z
	cmp	esi, esp
	call	__RTC_CheckEsp
	mov	DWORD PTR _lastIndexWithLen$[ebp], eax
; Line 613
	mov	eax, DWORD PTR _value$[ebp]
	cmp	eax, DWORD PTR _lastIndexWithLen$[ebp]
	jg	SHORT $LN2@getMapping
; Line 614
	mov	eax, DWORD PTR _i$72228[ebp]
	add	eax, 1
	mov	esi, esp
	push	eax
	mov	ecx, DWORD PTR _this$[ebp]
	mov	ecx, DWORD PTR [ecx+40]
	call	DWORD PTR __imp_?elementAti@UVector@icu_56@@QBEHH@Z
	cmp	esi, esp
	call	__RTC_CheckEsp
	mov	DWORD PTR _length$[ebp], eax
; Line 615
	jmp	SHORT $LN3@getMapping
$LN2@getMapping:
; Line 617
	jmp	SHORT $LN4@getMapping
$LN3@getMapping:
; Line 618
	cmp	DWORD PTR _length$[ebp], 3
	jge	SHORT $LN13@getMapping
	mov	eax, DWORD PTR ?__LINE__Var@?1??getMapping@ConfusabledataBuilder@icu_56@@AAE?AVUnicodeString@3@H@Z@4JA
	add	eax, 21					; 00000015H
	mov	esi, esp
	push	eax
	push	OFFSET ??_C@_1GA@LKJJAIHM@?$AAd?$AA?3?$AA?2?$AAm?$AAo?$AAz?$AAi?$AAl?$AAl?$AAa?$AA?2?$AAi?$AAn?$AAt?$AAl?$AA?2?$AAi?$AAc?$AAu?$AA?2?$AAs?$AAo?$AAu?$AAr?$AAc?$AAe?$AA?2?$AAi?$AA1?$AA8?$AAn?$AA?2@
	push	OFFSET ??_C@_1BE@NALLKCIK@?$AAl?$AAe?$AAn?$AAg?$AAt?$AAh?$AA?$DO?$AA?$DN?$AA3?$AA?$AA@
	call	DWORD PTR __imp___wassert
	add	esp, 12					; 0000000cH
	cmp	esi, esp
	call	__RTC_CheckEsp
$LN13@getMapping:
; Line 619
	mov	esi, esp
	mov	eax, DWORD PTR _length$[ebp]
	push	eax
	mov	ecx, DWORD PTR _value$[ebp]
	push	ecx
	mov	edx, DWORD PTR _this$[ebp]
	mov	eax, DWORD PTR [edx+36]
	push	eax
	mov	ecx, DWORD PTR ___$ReturnUdt$[ebp]
	call	DWORD PTR __imp_??0UnicodeString@icu_56@@QAE@ABV01@HH@Z
	cmp	esi, esp
	call	__RTC_CheckEsp
	mov	ecx, DWORD PTR $T79288[ebp]
	or	ecx, 1
	mov	DWORD PTR $T79288[ebp], ecx
	mov	eax, DWORD PTR ___$ReturnUdt$[ebp]
	jmp	SHORT $LN11@getMapping
$LN1@getMapping:
; Line 621
	xor	eax, eax
	jne	SHORT $LN9@getMapping
	mov	ecx, DWORD PTR ?__LINE__Var@?1??getMapping@ConfusabledataBuilder@icu_56@@AAE?AVUnicodeString@3@H@Z@4JA
	add	ecx, 24					; 00000018H
	mov	esi, esp
	push	ecx
	push	OFFSET ??_C@_1GA@LKJJAIHM@?$AAd?$AA?3?$AA?2?$AAm?$AAo?$AAz?$AAi?$AAl?$AAl?$AAa?$AA?2?$AAi?$AAn?$AAt?$AAl?$AA?2?$AAi?$AAc?$AAu?$AA?2?$AAs?$AAo?$AAu?$AAr?$AAc?$AAe?$AA?2?$AAi?$AA1?$AA8?$AAn?$AA?2@
	push	OFFSET ??_C@_13COJANIEC@?$AA0?$AA?$AA@
	call	DWORD PTR __imp___wassert
	add	esp, 12					; 0000000cH
	cmp	esi, esp
	call	__RTC_CheckEsp
$LN9@getMapping:
; Line 623
	mov	esi, esp
	mov	ecx, DWORD PTR ___$ReturnUdt$[ebp]
	call	DWORD PTR __imp_??0UnicodeString@icu_56@@QAE@XZ
	cmp	esi, esp
	call	__RTC_CheckEsp
	mov	eax, DWORD PTR $T79288[ebp]
	or	eax, 1
	mov	DWORD PTR $T79288[ebp], eax
	mov	eax, DWORD PTR ___$ReturnUdt$[ebp]
$LN11@getMapping:
; Line 624
	pop	edi
	pop	esi
	pop	ebx
	add	esp, 280				; 00000118H
	cmp	ebp, esp
	call	__RTC_CheckEsp
	mov	esp, ebp
	pop	ebp
	ret	8
	npad	1
$LN17@getMapping:
	DD	$LN8@getMapping
	DD	$LN7@getMapping
	DD	$LN7@getMapping
	DD	$LN6@getMapping
?getMapping@ConfusabledataBuilder@icu_56@@AAE?AVUnicodeString@2@H@Z ENDP ; icu_56::ConfusabledataBuilder::getMapping
; Function compile flags: /Odtp /RTCsu /ZI
_TEXT	ENDS
;	COMDAT ??_EUnicodeSet@icu_56@@W3AEPAXI@Z
_TEXT	SEGMENT
??_EUnicodeSet@icu_56@@W3AEPAXI@Z PROC			; [thunk]:icu_56::UnicodeSet::`vector deleting destructor', COMDAT
	sub	ecx, 4
	jmp	??_EUnicodeSet@icu_56@@UAEPAXI@Z
??_EUnicodeSet@icu_56@@W3AEPAXI@Z ENDP			; [thunk]:icu_56::UnicodeSet::`vector deleting destructor'
_TEXT	ENDS
END
