; Listing generated by Microsoft (R) Optimizing Compiler Version 16.00.40219.01 

	TITLE	D:\mozilla\intl\icu\source\i18n\uspoof_wsconf.cpp
	.686P
	.XMM
	include listing.inc
	.model	flat

INCLUDELIB MSVCRTD
INCLUDELIB OLDNAMES

PUBLIC	??_C@_0JC@KJHMAIMN@?$CI?$DPm?$CJ?$FO?$CI?$FL?5?2t?$FN?$CK?$CI?$DP?3?$CD?4?$CK?$DP?$CJ?$DP?$CJ$?$HM?$FO?$CI?$DP?3?2s?$CK?$CI@ ; `string'
PUBLIC	?value@?$integral_constant@_N$0A@@tr1@std@@2_NB	; std::tr1::integral_constant<bool,0>::value
PUBLIC	?value@?$integral_constant@_N$00@tr1@std@@2_NB	; std::tr1::integral_constant<bool,1>::value
PUBLIC	?value@?$integral_constant@I$0A@@tr1@std@@2IB	; std::tr1::integral_constant<unsigned int,0>::value
PUBLIC	?_Rank@?$_Arithmetic_traits@_N@std@@2HB		; std::_Arithmetic_traits<bool>::_Rank
PUBLIC	?_Rank@?$_Arithmetic_traits@D@std@@2HB		; std::_Arithmetic_traits<char>::_Rank
PUBLIC	?_Rank@?$_Arithmetic_traits@C@std@@2HB		; std::_Arithmetic_traits<signed char>::_Rank
PUBLIC	?_Rank@?$_Arithmetic_traits@E@std@@2HB		; std::_Arithmetic_traits<unsigned char>::_Rank
PUBLIC	?_Rank@?$_Arithmetic_traits@F@std@@2HB		; std::_Arithmetic_traits<short>::_Rank
PUBLIC	?_Rank@?$_Arithmetic_traits@G@std@@2HB		; std::_Arithmetic_traits<unsigned short>::_Rank
PUBLIC	?_Rank@?$_Arithmetic_traits@H@std@@2HB		; std::_Arithmetic_traits<int>::_Rank
PUBLIC	?_Rank@?$_Arithmetic_traits@I@std@@2HB		; std::_Arithmetic_traits<unsigned int>::_Rank
PUBLIC	?_Rank@?$_Arithmetic_traits@J@std@@2HB		; std::_Arithmetic_traits<long>::_Rank
PUBLIC	?_Rank@?$_Arithmetic_traits@K@std@@2HB		; std::_Arithmetic_traits<unsigned long>::_Rank
PUBLIC	?_Rank@?$_Arithmetic_traits@_J@std@@2HB		; std::_Arithmetic_traits<__int64>::_Rank
PUBLIC	?_Rank@?$_Arithmetic_traits@_K@std@@2HB		; std::_Arithmetic_traits<unsigned __int64>::_Rank
PUBLIC	?_Rank@?$_Arithmetic_traits@M@std@@2HB		; std::_Arithmetic_traits<float>::_Rank
PUBLIC	?_Rank@?$_Arithmetic_traits@N@std@@2HB		; std::_Arithmetic_traits<double>::_Rank
PUBLIC	?_Rank@?$_Arithmetic_traits@O@std@@2HB		; std::_Arithmetic_traits<long double>::_Rank
PUBLIC	?collate@?$_Locbase@H@std@@2HB			; std::_Locbase<int>::collate
PUBLIC	?ctype@?$_Locbase@H@std@@2HB			; std::_Locbase<int>::ctype
PUBLIC	?monetary@?$_Locbase@H@std@@2HB			; std::_Locbase<int>::monetary
PUBLIC	?numeric@?$_Locbase@H@std@@2HB			; std::_Locbase<int>::numeric
PUBLIC	?time@?$_Locbase@H@std@@2HB			; std::_Locbase<int>::time
PUBLIC	?messages@?$_Locbase@H@std@@2HB			; std::_Locbase<int>::messages
PUBLIC	?all@?$_Locbase@H@std@@2HB			; std::_Locbase<int>::all
PUBLIC	?none@?$_Locbase@H@std@@2HB			; std::_Locbase<int>::none
PUBLIC	?skipws@?$_Iosb@H@std@@2W4_Fmtflags@12@B	; std::_Iosb<int>::skipws
PUBLIC	?unitbuf@?$_Iosb@H@std@@2W4_Fmtflags@12@B	; std::_Iosb<int>::unitbuf
PUBLIC	?uppercase@?$_Iosb@H@std@@2W4_Fmtflags@12@B	; std::_Iosb<int>::uppercase
PUBLIC	?showbase@?$_Iosb@H@std@@2W4_Fmtflags@12@B	; std::_Iosb<int>::showbase
PUBLIC	?showpoint@?$_Iosb@H@std@@2W4_Fmtflags@12@B	; std::_Iosb<int>::showpoint
PUBLIC	?showpos@?$_Iosb@H@std@@2W4_Fmtflags@12@B	; std::_Iosb<int>::showpos
PUBLIC	?left@?$_Iosb@H@std@@2W4_Fmtflags@12@B		; std::_Iosb<int>::left
PUBLIC	?right@?$_Iosb@H@std@@2W4_Fmtflags@12@B		; std::_Iosb<int>::right
PUBLIC	?internal@?$_Iosb@H@std@@2W4_Fmtflags@12@B	; std::_Iosb<int>::internal
PUBLIC	?dec@?$_Iosb@H@std@@2W4_Fmtflags@12@B		; std::_Iosb<int>::dec
PUBLIC	?oct@?$_Iosb@H@std@@2W4_Fmtflags@12@B		; std::_Iosb<int>::oct
PUBLIC	?hex@?$_Iosb@H@std@@2W4_Fmtflags@12@B		; std::_Iosb<int>::hex
PUBLIC	?scientific@?$_Iosb@H@std@@2W4_Fmtflags@12@B	; std::_Iosb<int>::scientific
PUBLIC	?fixed@?$_Iosb@H@std@@2W4_Fmtflags@12@B		; std::_Iosb<int>::fixed
PUBLIC	?hexfloat@?$_Iosb@H@std@@2W4_Fmtflags@12@B	; std::_Iosb<int>::hexfloat
PUBLIC	?boolalpha@?$_Iosb@H@std@@2W4_Fmtflags@12@B	; std::_Iosb<int>::boolalpha
PUBLIC	?_Stdio@?$_Iosb@H@std@@2W4_Fmtflags@12@B	; std::_Iosb<int>::_Stdio
PUBLIC	?adjustfield@?$_Iosb@H@std@@2W4_Fmtflags@12@B	; std::_Iosb<int>::adjustfield
PUBLIC	?basefield@?$_Iosb@H@std@@2W4_Fmtflags@12@B	; std::_Iosb<int>::basefield
PUBLIC	?floatfield@?$_Iosb@H@std@@2W4_Fmtflags@12@B	; std::_Iosb<int>::floatfield
PUBLIC	?goodbit@?$_Iosb@H@std@@2W4_Iostate@12@B	; std::_Iosb<int>::goodbit
PUBLIC	?eofbit@?$_Iosb@H@std@@2W4_Iostate@12@B		; std::_Iosb<int>::eofbit
PUBLIC	?failbit@?$_Iosb@H@std@@2W4_Iostate@12@B	; std::_Iosb<int>::failbit
PUBLIC	?badbit@?$_Iosb@H@std@@2W4_Iostate@12@B		; std::_Iosb<int>::badbit
PUBLIC	?_Hardfail@?$_Iosb@H@std@@2W4_Iostate@12@B	; std::_Iosb<int>::_Hardfail
PUBLIC	?in@?$_Iosb@H@std@@2W4_Openmode@12@B		; std::_Iosb<int>::in
PUBLIC	?out@?$_Iosb@H@std@@2W4_Openmode@12@B		; std::_Iosb<int>::out
PUBLIC	?ate@?$_Iosb@H@std@@2W4_Openmode@12@B		; std::_Iosb<int>::ate
PUBLIC	?app@?$_Iosb@H@std@@2W4_Openmode@12@B		; std::_Iosb<int>::app
PUBLIC	?trunc@?$_Iosb@H@std@@2W4_Openmode@12@B		; std::_Iosb<int>::trunc
PUBLIC	?_Nocreate@?$_Iosb@H@std@@2W4_Openmode@12@B	; std::_Iosb<int>::_Nocreate
PUBLIC	?_Noreplace@?$_Iosb@H@std@@2W4_Openmode@12@B	; std::_Iosb<int>::_Noreplace
PUBLIC	?binary@?$_Iosb@H@std@@2W4_Openmode@12@B	; std::_Iosb<int>::binary
PUBLIC	?beg@?$_Iosb@H@std@@2W4_Seekdir@12@B		; std::_Iosb<int>::beg
PUBLIC	?cur@?$_Iosb@H@std@@2W4_Seekdir@12@B		; std::_Iosb<int>::cur
PUBLIC	?end@?$_Iosb@H@std@@2W4_Seekdir@12@B		; std::_Iosb<int>::end
_DATA	SEGMENT
_parseExp DD	FLAT:??_C@_0JC@KJHMAIMN@?$CI?$DPm?$CJ?$FO?$CI?$FL?5?2t?$FN?$CK?$CI?$DP?3?$CD?4?$CK?$DP?$CJ?$DP?$CJ$?$HM?$FO?$CI?$DP?3?2s?$CK?$CI@
_DATA	ENDS
;	COMDAT ??_C@_0JC@KJHMAIMN@?$CI?$DPm?$CJ?$FO?$CI?$FL?5?2t?$FN?$CK?$CI?$DP?3?$CD?4?$CK?$DP?$CJ?$DP?$CJ$?$HM?$FO?$CI?$DP?3?2s?$CK?$CI@
CONST	SEGMENT
??_C@_0JC@KJHMAIMN@?$CI?$DPm?$CJ?$FO?$CI?$FL?5?2t?$FN?$CK?$CI?$DP?3?$CD?4?$CK?$DP?$CJ?$DP?$CJ$?$HM?$FO?$CI?$DP?3?2s?$CK?$CI@ DB '('
	DB	'?m)^([ \t]*(?:#.*?)?)$|^(?:\s*([0-9A-F]{4,})(?:..([0-9A-F]{4,'
	DB	'}))?\s*;\s*([A-Za-z]+)\s*;\s*([A-Za-z]+)\s*;\s*(?:(A)|(L))[ \'
	DB	't]*(?:#.*?)?)$|^(.*?)$', 00H		; `string'
CONST	ENDS
;	COMDAT ?end@?$_Iosb@H@std@@2W4_Seekdir@12@B
CONST	SEGMENT
?end@?$_Iosb@H@std@@2W4_Seekdir@12@B DD 02H		; std::_Iosb<int>::end
CONST	ENDS
;	COMDAT ?cur@?$_Iosb@H@std@@2W4_Seekdir@12@B
CONST	SEGMENT
?cur@?$_Iosb@H@std@@2W4_Seekdir@12@B DD 01H		; std::_Iosb<int>::cur
CONST	ENDS
;	COMDAT ?beg@?$_Iosb@H@std@@2W4_Seekdir@12@B
CONST	SEGMENT
?beg@?$_Iosb@H@std@@2W4_Seekdir@12@B DD 00H		; std::_Iosb<int>::beg
CONST	ENDS
;	COMDAT ?binary@?$_Iosb@H@std@@2W4_Openmode@12@B
CONST	SEGMENT
?binary@?$_Iosb@H@std@@2W4_Openmode@12@B DD 020H	; std::_Iosb<int>::binary
CONST	ENDS
;	COMDAT ?_Noreplace@?$_Iosb@H@std@@2W4_Openmode@12@B
CONST	SEGMENT
?_Noreplace@?$_Iosb@H@std@@2W4_Openmode@12@B DD 080H	; std::_Iosb<int>::_Noreplace
CONST	ENDS
;	COMDAT ?_Nocreate@?$_Iosb@H@std@@2W4_Openmode@12@B
CONST	SEGMENT
?_Nocreate@?$_Iosb@H@std@@2W4_Openmode@12@B DD 040H	; std::_Iosb<int>::_Nocreate
CONST	ENDS
;	COMDAT ?trunc@?$_Iosb@H@std@@2W4_Openmode@12@B
CONST	SEGMENT
?trunc@?$_Iosb@H@std@@2W4_Openmode@12@B DD 010H		; std::_Iosb<int>::trunc
CONST	ENDS
;	COMDAT ?app@?$_Iosb@H@std@@2W4_Openmode@12@B
CONST	SEGMENT
?app@?$_Iosb@H@std@@2W4_Openmode@12@B DD 08H		; std::_Iosb<int>::app
CONST	ENDS
;	COMDAT ?ate@?$_Iosb@H@std@@2W4_Openmode@12@B
CONST	SEGMENT
?ate@?$_Iosb@H@std@@2W4_Openmode@12@B DD 04H		; std::_Iosb<int>::ate
CONST	ENDS
;	COMDAT ?out@?$_Iosb@H@std@@2W4_Openmode@12@B
CONST	SEGMENT
?out@?$_Iosb@H@std@@2W4_Openmode@12@B DD 02H		; std::_Iosb<int>::out
CONST	ENDS
;	COMDAT ?in@?$_Iosb@H@std@@2W4_Openmode@12@B
CONST	SEGMENT
?in@?$_Iosb@H@std@@2W4_Openmode@12@B DD 01H		; std::_Iosb<int>::in
CONST	ENDS
;	COMDAT ?_Hardfail@?$_Iosb@H@std@@2W4_Iostate@12@B
CONST	SEGMENT
?_Hardfail@?$_Iosb@H@std@@2W4_Iostate@12@B DD 010H	; std::_Iosb<int>::_Hardfail
CONST	ENDS
;	COMDAT ?badbit@?$_Iosb@H@std@@2W4_Iostate@12@B
CONST	SEGMENT
?badbit@?$_Iosb@H@std@@2W4_Iostate@12@B DD 04H		; std::_Iosb<int>::badbit
CONST	ENDS
;	COMDAT ?failbit@?$_Iosb@H@std@@2W4_Iostate@12@B
CONST	SEGMENT
?failbit@?$_Iosb@H@std@@2W4_Iostate@12@B DD 02H		; std::_Iosb<int>::failbit
CONST	ENDS
;	COMDAT ?eofbit@?$_Iosb@H@std@@2W4_Iostate@12@B
CONST	SEGMENT
?eofbit@?$_Iosb@H@std@@2W4_Iostate@12@B DD 01H		; std::_Iosb<int>::eofbit
CONST	ENDS
;	COMDAT ?goodbit@?$_Iosb@H@std@@2W4_Iostate@12@B
CONST	SEGMENT
?goodbit@?$_Iosb@H@std@@2W4_Iostate@12@B DD 00H		; std::_Iosb<int>::goodbit
CONST	ENDS
;	COMDAT ?floatfield@?$_Iosb@H@std@@2W4_Fmtflags@12@B
CONST	SEGMENT
?floatfield@?$_Iosb@H@std@@2W4_Fmtflags@12@B DD 03000H	; std::_Iosb<int>::floatfield
CONST	ENDS
;	COMDAT ?basefield@?$_Iosb@H@std@@2W4_Fmtflags@12@B
CONST	SEGMENT
?basefield@?$_Iosb@H@std@@2W4_Fmtflags@12@B DD 0e00H	; std::_Iosb<int>::basefield
CONST	ENDS
;	COMDAT ?adjustfield@?$_Iosb@H@std@@2W4_Fmtflags@12@B
CONST	SEGMENT
?adjustfield@?$_Iosb@H@std@@2W4_Fmtflags@12@B DD 01c0H	; std::_Iosb<int>::adjustfield
CONST	ENDS
;	COMDAT ?_Stdio@?$_Iosb@H@std@@2W4_Fmtflags@12@B
CONST	SEGMENT
?_Stdio@?$_Iosb@H@std@@2W4_Fmtflags@12@B DD 08000H	; std::_Iosb<int>::_Stdio
CONST	ENDS
;	COMDAT ?boolalpha@?$_Iosb@H@std@@2W4_Fmtflags@12@B
CONST	SEGMENT
?boolalpha@?$_Iosb@H@std@@2W4_Fmtflags@12@B DD 04000H	; std::_Iosb<int>::boolalpha
CONST	ENDS
;	COMDAT ?hexfloat@?$_Iosb@H@std@@2W4_Fmtflags@12@B
CONST	SEGMENT
?hexfloat@?$_Iosb@H@std@@2W4_Fmtflags@12@B DD 03000H	; std::_Iosb<int>::hexfloat
CONST	ENDS
;	COMDAT ?fixed@?$_Iosb@H@std@@2W4_Fmtflags@12@B
CONST	SEGMENT
?fixed@?$_Iosb@H@std@@2W4_Fmtflags@12@B DD 02000H	; std::_Iosb<int>::fixed
CONST	ENDS
;	COMDAT ?scientific@?$_Iosb@H@std@@2W4_Fmtflags@12@B
CONST	SEGMENT
?scientific@?$_Iosb@H@std@@2W4_Fmtflags@12@B DD 01000H	; std::_Iosb<int>::scientific
CONST	ENDS
;	COMDAT ?hex@?$_Iosb@H@std@@2W4_Fmtflags@12@B
CONST	SEGMENT
?hex@?$_Iosb@H@std@@2W4_Fmtflags@12@B DD 0800H		; std::_Iosb<int>::hex
CONST	ENDS
;	COMDAT ?oct@?$_Iosb@H@std@@2W4_Fmtflags@12@B
CONST	SEGMENT
?oct@?$_Iosb@H@std@@2W4_Fmtflags@12@B DD 0400H		; std::_Iosb<int>::oct
CONST	ENDS
;	COMDAT ?dec@?$_Iosb@H@std@@2W4_Fmtflags@12@B
CONST	SEGMENT
?dec@?$_Iosb@H@std@@2W4_Fmtflags@12@B DD 0200H		; std::_Iosb<int>::dec
CONST	ENDS
;	COMDAT ?internal@?$_Iosb@H@std@@2W4_Fmtflags@12@B
CONST	SEGMENT
?internal@?$_Iosb@H@std@@2W4_Fmtflags@12@B DD 0100H	; std::_Iosb<int>::internal
CONST	ENDS
;	COMDAT ?right@?$_Iosb@H@std@@2W4_Fmtflags@12@B
CONST	SEGMENT
?right@?$_Iosb@H@std@@2W4_Fmtflags@12@B DD 080H		; std::_Iosb<int>::right
CONST	ENDS
;	COMDAT ?left@?$_Iosb@H@std@@2W4_Fmtflags@12@B
CONST	SEGMENT
?left@?$_Iosb@H@std@@2W4_Fmtflags@12@B DD 040H		; std::_Iosb<int>::left
CONST	ENDS
;	COMDAT ?showpos@?$_Iosb@H@std@@2W4_Fmtflags@12@B
CONST	SEGMENT
?showpos@?$_Iosb@H@std@@2W4_Fmtflags@12@B DD 020H	; std::_Iosb<int>::showpos
CONST	ENDS
;	COMDAT ?showpoint@?$_Iosb@H@std@@2W4_Fmtflags@12@B
CONST	SEGMENT
?showpoint@?$_Iosb@H@std@@2W4_Fmtflags@12@B DD 010H	; std::_Iosb<int>::showpoint
CONST	ENDS
;	COMDAT ?showbase@?$_Iosb@H@std@@2W4_Fmtflags@12@B
CONST	SEGMENT
?showbase@?$_Iosb@H@std@@2W4_Fmtflags@12@B DD 08H	; std::_Iosb<int>::showbase
CONST	ENDS
;	COMDAT ?uppercase@?$_Iosb@H@std@@2W4_Fmtflags@12@B
CONST	SEGMENT
?uppercase@?$_Iosb@H@std@@2W4_Fmtflags@12@B DD 04H	; std::_Iosb<int>::uppercase
CONST	ENDS
;	COMDAT ?unitbuf@?$_Iosb@H@std@@2W4_Fmtflags@12@B
CONST	SEGMENT
?unitbuf@?$_Iosb@H@std@@2W4_Fmtflags@12@B DD 02H	; std::_Iosb<int>::unitbuf
CONST	ENDS
;	COMDAT ?skipws@?$_Iosb@H@std@@2W4_Fmtflags@12@B
CONST	SEGMENT
?skipws@?$_Iosb@H@std@@2W4_Fmtflags@12@B DD 01H		; std::_Iosb<int>::skipws
CONST	ENDS
;	COMDAT ?none@?$_Locbase@H@std@@2HB
CONST	SEGMENT
?none@?$_Locbase@H@std@@2HB DD 00H			; std::_Locbase<int>::none
CONST	ENDS
;	COMDAT ?all@?$_Locbase@H@std@@2HB
CONST	SEGMENT
?all@?$_Locbase@H@std@@2HB DD 03fH			; std::_Locbase<int>::all
CONST	ENDS
;	COMDAT ?messages@?$_Locbase@H@std@@2HB
CONST	SEGMENT
?messages@?$_Locbase@H@std@@2HB DD 020H			; std::_Locbase<int>::messages
CONST	ENDS
;	COMDAT ?time@?$_Locbase@H@std@@2HB
CONST	SEGMENT
?time@?$_Locbase@H@std@@2HB DD 010H			; std::_Locbase<int>::time
CONST	ENDS
;	COMDAT ?numeric@?$_Locbase@H@std@@2HB
CONST	SEGMENT
?numeric@?$_Locbase@H@std@@2HB DD 08H			; std::_Locbase<int>::numeric
CONST	ENDS
;	COMDAT ?monetary@?$_Locbase@H@std@@2HB
CONST	SEGMENT
?monetary@?$_Locbase@H@std@@2HB DD 04H			; std::_Locbase<int>::monetary
CONST	ENDS
;	COMDAT ?ctype@?$_Locbase@H@std@@2HB
CONST	SEGMENT
?ctype@?$_Locbase@H@std@@2HB DD 02H			; std::_Locbase<int>::ctype
CONST	ENDS
;	COMDAT ?collate@?$_Locbase@H@std@@2HB
CONST	SEGMENT
?collate@?$_Locbase@H@std@@2HB DD 01H			; std::_Locbase<int>::collate
CONST	ENDS
;	COMDAT ?_Rank@?$_Arithmetic_traits@O@std@@2HB
CONST	SEGMENT
?_Rank@?$_Arithmetic_traits@O@std@@2HB DD 09H		; std::_Arithmetic_traits<long double>::_Rank
CONST	ENDS
;	COMDAT ?_Rank@?$_Arithmetic_traits@N@std@@2HB
CONST	SEGMENT
?_Rank@?$_Arithmetic_traits@N@std@@2HB DD 08H		; std::_Arithmetic_traits<double>::_Rank
CONST	ENDS
;	COMDAT ?_Rank@?$_Arithmetic_traits@M@std@@2HB
CONST	SEGMENT
?_Rank@?$_Arithmetic_traits@M@std@@2HB DD 07H		; std::_Arithmetic_traits<float>::_Rank
CONST	ENDS
;	COMDAT ?_Rank@?$_Arithmetic_traits@_K@std@@2HB
CONST	SEGMENT
?_Rank@?$_Arithmetic_traits@_K@std@@2HB DD 06H		; std::_Arithmetic_traits<unsigned __int64>::_Rank
CONST	ENDS
;	COMDAT ?_Rank@?$_Arithmetic_traits@_J@std@@2HB
CONST	SEGMENT
?_Rank@?$_Arithmetic_traits@_J@std@@2HB DD 06H		; std::_Arithmetic_traits<__int64>::_Rank
CONST	ENDS
;	COMDAT ?_Rank@?$_Arithmetic_traits@K@std@@2HB
CONST	SEGMENT
?_Rank@?$_Arithmetic_traits@K@std@@2HB DD 05H		; std::_Arithmetic_traits<unsigned long>::_Rank
CONST	ENDS
;	COMDAT ?_Rank@?$_Arithmetic_traits@J@std@@2HB
CONST	SEGMENT
?_Rank@?$_Arithmetic_traits@J@std@@2HB DD 05H		; std::_Arithmetic_traits<long>::_Rank
CONST	ENDS
;	COMDAT ?_Rank@?$_Arithmetic_traits@I@std@@2HB
CONST	SEGMENT
?_Rank@?$_Arithmetic_traits@I@std@@2HB DD 04H		; std::_Arithmetic_traits<unsigned int>::_Rank
CONST	ENDS
;	COMDAT ?_Rank@?$_Arithmetic_traits@H@std@@2HB
CONST	SEGMENT
?_Rank@?$_Arithmetic_traits@H@std@@2HB DD 04H		; std::_Arithmetic_traits<int>::_Rank
CONST	ENDS
;	COMDAT ?_Rank@?$_Arithmetic_traits@G@std@@2HB
CONST	SEGMENT
?_Rank@?$_Arithmetic_traits@G@std@@2HB DD 03H		; std::_Arithmetic_traits<unsigned short>::_Rank
CONST	ENDS
;	COMDAT ?_Rank@?$_Arithmetic_traits@F@std@@2HB
CONST	SEGMENT
?_Rank@?$_Arithmetic_traits@F@std@@2HB DD 03H		; std::_Arithmetic_traits<short>::_Rank
CONST	ENDS
;	COMDAT ?_Rank@?$_Arithmetic_traits@E@std@@2HB
CONST	SEGMENT
?_Rank@?$_Arithmetic_traits@E@std@@2HB DD 02H		; std::_Arithmetic_traits<unsigned char>::_Rank
CONST	ENDS
;	COMDAT ?_Rank@?$_Arithmetic_traits@C@std@@2HB
CONST	SEGMENT
?_Rank@?$_Arithmetic_traits@C@std@@2HB DD 02H		; std::_Arithmetic_traits<signed char>::_Rank
CONST	ENDS
;	COMDAT ?_Rank@?$_Arithmetic_traits@D@std@@2HB
CONST	SEGMENT
?_Rank@?$_Arithmetic_traits@D@std@@2HB DD 02H		; std::_Arithmetic_traits<char>::_Rank
CONST	ENDS
;	COMDAT ?_Rank@?$_Arithmetic_traits@_N@std@@2HB
CONST	SEGMENT
?_Rank@?$_Arithmetic_traits@_N@std@@2HB DD 01H		; std::_Arithmetic_traits<bool>::_Rank
CONST	ENDS
;	COMDAT ?value@?$integral_constant@I$0A@@tr1@std@@2IB
CONST	SEGMENT
?value@?$integral_constant@I$0A@@tr1@std@@2IB DD 00H	; std::tr1::integral_constant<unsigned int,0>::value
CONST	ENDS
;	COMDAT ?value@?$integral_constant@_N$00@tr1@std@@2_NB
CONST	SEGMENT
?value@?$integral_constant@_N$00@tr1@std@@2_NB DB 01H	; std::tr1::integral_constant<bool,1>::value
CONST	ENDS
;	COMDAT ?value@?$integral_constant@_N$0A@@tr1@std@@2_NB
CONST	SEGMENT
?value@?$integral_constant@_N$0A@@tr1@std@@2_NB DB 00H	; std::tr1::integral_constant<bool,0>::value
CONST	ENDS
PUBLIC	??2@YAPAXI@Z					; operator new
EXTRN	__RTC_Shutdown:PROC
EXTRN	__RTC_InitBase:PROC
;	COMDAT rtc$TMZ
; File d:\mozilla\intl\icu\include\unicode\utypes.h
rtc$TMZ	SEGMENT
__RTC_Shutdown.rtc$TMZ DD FLAT:__RTC_Shutdown
rtc$TMZ	ENDS
;	COMDAT rtc$IMZ
rtc$IMZ	SEGMENT
__RTC_InitBase.rtc$IMZ DD FLAT:__RTC_InitBase
; Function compile flags: /Odtp /RTCsu /ZI
rtc$IMZ	ENDS
;	COMDAT ??2@YAPAXI@Z
_TEXT	SEGMENT
_q$ = -8						; size = 4
___formal$ = 8						; size = 4
??2@YAPAXI@Z PROC					; operator new, COMDAT
; Line 411
	push	ebp
	mov	ebp, esp
	sub	esp, 204				; 000000ccH
	push	ebx
	push	esi
	push	edi
	lea	edi, DWORD PTR [ebp-204]
	mov	ecx, 51					; 00000033H
	mov	eax, -858993460				; ccccccccH
	rep stosd
; Line 412
	mov	DWORD PTR _q$[ebp], 0
; Line 413
	mov	eax, DWORD PTR _q$[ebp]
	mov	BYTE PTR [eax], 5
; Line 414
	mov	eax, DWORD PTR _q$[ebp]
; Line 415
	pop	edi
	pop	esi
	pop	ebx
	mov	esp, ebp
	pop	ebp
	ret	0
??2@YAPAXI@Z ENDP					; operator new
_TEXT	ENDS
PUBLIC	??3@YAXPAX@Z					; operator delete
; Function compile flags: /Odtp /RTCsu /ZI
;	COMDAT ??3@YAXPAX@Z
_TEXT	SEGMENT
_q$ = -8						; size = 4
___formal$ = 8						; size = 4
??3@YAXPAX@Z PROC					; operator delete, COMDAT
; Line 439
	push	ebp
	mov	ebp, esp
	sub	esp, 204				; 000000ccH
	push	ebx
	push	esi
	push	edi
	lea	edi, DWORD PTR [ebp-204]
	mov	ecx, 51					; 00000033H
	mov	eax, -858993460				; ccccccccH
	rep stosd
; Line 440
	mov	DWORD PTR _q$[ebp], 0
; Line 441
	mov	eax, DWORD PTR _q$[ebp]
	mov	BYTE PTR [eax], 5
; Line 442
	pop	edi
	pop	esi
	pop	ebx
	mov	esp, ebp
	pop	ebp
	ret	0
??3@YAXPAX@Z ENDP					; operator delete
_TEXT	ENDS
PUBLIC	??_GBuilderScriptSet@icu_56@@QAEPAXI@Z		; icu_56::BuilderScriptSet::`scalar deleting destructor'
PUBLIC	??_C@_1CO@PIOHMELD@?$AAr?$AAi?$AAn?$AAd?$AAe?$AAx?$AA?5?$AA?$DN?$AA?$DN?$AA?5?$AAb?$AAS?$AAe?$AAt?$AA?9?$AA?$DO?$AAr?$AAi?$AAn?$AAd?$AAe?$AAx?$AA?$AA@ ; `string'
PUBLIC	??_GScriptSet@icu_56@@QAEPAXI@Z			; icu_56::ScriptSet::`scalar deleting destructor'
PUBLIC	??0BuilderScriptSet@icu_56@@QAE@XZ		; icu_56::BuilderScriptSet::BuilderScriptSet
PUBLIC	??_C@_1DM@GCHDENGA@?$AAs?$AAe?$AAt?$AAI?$AAn?$AAd?$AAe?$AAx?$AA?5?$AA?$DM?$AA?5?$AAs?$AAc?$AAr?$AAi?$AAp?$AAt?$AAS?$AAe?$AAt?$AAs?$AA?9?$AA?$DO?$AAs?$AAi?$AAz?$AAe?$AA?$CI?$AA?$CJ?$AA?$AA@ ; `string'
PUBLIC	??_C@_1GE@KAFFAGGI@?$AAd?$AA?3?$AA?2?$AAm?$AAo?$AAz?$AAi?$AAl?$AAl?$AAa?$AA?2?$AAi?$AAn?$AAt?$AAl?$AA?2?$AAi?$AAc?$AAu?$AA?2?$AAs?$AAo?$AAu?$AAr?$AAc?$AAe?$AA?2?$AAi?$AA1?$AA8?$AAn?$AA?2@ ; `string'
PUBLIC	?__LINE__Var@?1??buildWSConfusableData@icu_56@@YAXPAVSpoofImpl@2@PBDHPAUUParseError@@AAW4UErrorCode@@@Z@4JA ; `icu_56::buildWSConfusableData'::`2'::__LINE__Var
PUBLIC	??_SUVector@icu_56@@6B@				; icu_56::UVector::`local vftable'
PUBLIC	__$ArrayPad$
PUBLIC	?buildWSConfusableData@icu_56@@YAXPAVSpoofImpl@1@PBDHPAUUParseError@@AAW4UErrorCode@@@Z ; icu_56::buildWSConfusableData
PUBLIC	??_R4UVector@icu_56@@6B@			; icu_56::UVector::`RTTI Complete Object Locator'
PUBLIC	??_R0?AVUVector@icu_56@@@8			; icu_56::UVector `RTTI Type Descriptor'
PUBLIC	??_R3UVector@icu_56@@8				; icu_56::UVector::`RTTI Class Hierarchy Descriptor'
PUBLIC	??_R2UVector@icu_56@@8				; icu_56::UVector::`RTTI Base Class Array'
PUBLIC	??_R1A@?0A@EA@UVector@icu_56@@8			; icu_56::UVector::`RTTI Base Class Descriptor at (0,-1,0,64)'
PUBLIC	??_R1A@?0A@EA@UObject@icu_56@@8			; icu_56::UObject::`RTTI Base Class Descriptor at (0,-1,0,64)'
PUBLIC	??_R0?AVUObject@icu_56@@@8			; icu_56::UObject `RTTI Type Descriptor'
PUBLIC	??_R3UObject@icu_56@@8				; icu_56::UObject::`RTTI Class Hierarchy Descriptor'
PUBLIC	??_R2UObject@icu_56@@8				; icu_56::UObject::`RTTI Base Class Array'
PUBLIC	??_R13?0A@EA@UMemory@icu_56@@8			; icu_56::UMemory::`RTTI Base Class Descriptor at (4,-1,0,64)'
PUBLIC	??_R0?AVUMemory@icu_56@@@8			; icu_56::UMemory `RTTI Type Descriptor'
PUBLIC	??_R3UMemory@icu_56@@8				; icu_56::UMemory::`RTTI Class Hierarchy Descriptor'
PUBLIC	??_R2UMemory@icu_56@@8				; icu_56::UMemory::`RTTI Base Class Array'
PUBLIC	??_R1A@?0A@EA@UMemory@icu_56@@8			; icu_56::UMemory::`RTTI Base Class Descriptor at (0,-1,0,64)'
EXTRN	__imp_??3UMemory@icu_56@@SAXPAX@Z:PROC
EXTRN	__imp_??1UnicodeString@icu_56@@UAE@XZ:PROC
EXTRN	_utrie2_close_56:PROC
EXTRN	_uprv_free_56:PROC
EXTRN	_uregex_close_56:PROC
EXTRN	_utrie2_openFromSerialized_56:PROC
EXTRN	??4ScriptSet@icu_56@@QAEAAV01@ABV01@@Z:PROC	; icu_56::ScriptSet::operator=
EXTRN	?reserveSpace@SpoofData@icu_56@@QAEPAXHAAW4UErrorCode@@@Z:PROC ; icu_56::SpoofData::reserveSpace
EXTRN	_utrie2_serialize_56:PROC
EXTRN	_utrie2_freeze_56:PROC
EXTRN	__imp_??1UnicodeSet@icu_56@@UAE@XZ:PROC
EXTRN	_utrie2_setRange32_56:PROC
EXTRN	__imp_?getRangeEnd@UnicodeSet@icu_56@@UBEHH@Z:PROC
EXTRN	__imp_?getRangeStart@UnicodeSet@icu_56@@UBEHH@Z:PROC
EXTRN	__imp_?getRangeCount@UnicodeSet@icu_56@@UBEHXZ:PROC
EXTRN	__imp_?addAll@UnicodeSet@icu_56@@UAEAAV12@ABV12@@Z:PROC
EXTRN	__imp_?applyIntPropertyValue@UnicodeSet@icu_56@@QAEAAV12@W4UProperty@@HAAW4UErrorCode@@@Z:PROC
EXTRN	__imp_??0UnicodeSet@icu_56@@QAE@XZ:PROC
EXTRN	??8ScriptSet@icu_56@@QBECABV01@@Z:PROC		; icu_56::ScriptSet::operator==
EXTRN	_uscript_getScript_56:PROC
EXTRN	?set@ScriptSet@icu_56@@QAEAAV12@W4UScriptCode@@AAW4UErrorCode@@@Z:PROC ; icu_56::ScriptSet::set
EXTRN	_utrie2_set32_56:PROC
EXTRN	??0ScriptSet@icu_56@@QAE@XZ:PROC		; icu_56::ScriptSet::ScriptSet
EXTRN	__imp_?elementAt@UVector@icu_56@@QBEPAXH@Z:PROC
EXTRN	__imp___wassert:PROC
EXTRN	__imp_?size@UVector@icu_56@@QBEHXZ:PROC
EXTRN	_utrie2_get32_56:PROC
EXTRN	_u_getPropertyValueEnum_56:PROC
EXTRN	?ScanHex@SpoofImpl@icu_56@@SAHPB_WHHAAW4UErrorCode@@@Z:PROC ; icu_56::SpoofImpl::ScanHex
EXTRN	_uregex_end_56:PROC
EXTRN	_uregex_start_56:PROC
EXTRN	_uregex_findNext_56:PROC
EXTRN	_uregex_setText_56:PROC
EXTRN	_uregex_open_56:PROC
EXTRN	__imp_?getBuffer@UnicodeString@icu_56@@QBEPB_WXZ:PROC
EXTRN	__imp_?length@UnicodeString@icu_56@@QBEHXZ:PROC
EXTRN	_uprv_malloc_56:PROC
EXTRN	_u_strFromUTF8_56:PROC
EXTRN	__imp_?addElement@UVector@icu_56@@QAEXPAXAAW4UErrorCode@@@Z:PROC
EXTRN	__imp_??0UVector@icu_56@@QAE@AAW4UErrorCode@@@Z:PROC
EXTRN	__imp_??2UMemory@icu_56@@SAPAXI@Z:PROC
EXTRN	__imp_??0UnicodeString@icu_56@@QAE@PBDHW4EInvariant@01@@Z:PROC
EXTRN	_utrie2_open_56:PROC
EXTRN	___security_cookie:DWORD
EXTRN	___CxxFrameHandler3:PROC
EXTRN	@__security_check_cookie@4:PROC
EXTRN	@_RTC_CheckStackVars@8:PROC
EXTRN	__RTC_CheckEsp:PROC
EXTRN	??_7type_info@@6B@:QWORD			; type_info::`vftable'
EXTRN	??_EUVector@icu_56@@UAEPAXI@Z:PROC		; icu_56::UVector::`vector deleting destructor'
EXTRN	?getDynamicClassID@UVector@icu_56@@UBEPAXXZ:PROC ; icu_56::UVector::getDynamicClassID
;	COMDAT ??_R1A@?0A@EA@UMemory@icu_56@@8
; File d:\mozilla\intl\icu\source\i18n\uspoof_wsconf.cpp
rdata$r	SEGMENT
??_R1A@?0A@EA@UMemory@icu_56@@8 DD FLAT:??_R0?AVUMemory@icu_56@@@8 ; icu_56::UMemory::`RTTI Base Class Descriptor at (0,-1,0,64)'
	DD	00H
	DD	00H
	DD	0ffffffffH
	DD	00H
	DD	040H
	DD	FLAT:??_R3UMemory@icu_56@@8
rdata$r	ENDS
;	COMDAT ??_R2UMemory@icu_56@@8
rdata$r	SEGMENT
??_R2UMemory@icu_56@@8 DD FLAT:??_R1A@?0A@EA@UMemory@icu_56@@8 ; icu_56::UMemory::`RTTI Base Class Array'
rdata$r	ENDS
;	COMDAT ??_R3UMemory@icu_56@@8
rdata$r	SEGMENT
??_R3UMemory@icu_56@@8 DD 00H				; icu_56::UMemory::`RTTI Class Hierarchy Descriptor'
	DD	00H
	DD	01H
	DD	FLAT:??_R2UMemory@icu_56@@8
rdata$r	ENDS
;	COMDAT ??_R0?AVUMemory@icu_56@@@8
_DATA	SEGMENT
??_R0?AVUMemory@icu_56@@@8 DD FLAT:??_7type_info@@6B@	; icu_56::UMemory `RTTI Type Descriptor'
	DD	00H
	DB	'.?AVUMemory@icu_56@@', 00H
_DATA	ENDS
;	COMDAT ??_R13?0A@EA@UMemory@icu_56@@8
rdata$r	SEGMENT
??_R13?0A@EA@UMemory@icu_56@@8 DD FLAT:??_R0?AVUMemory@icu_56@@@8 ; icu_56::UMemory::`RTTI Base Class Descriptor at (4,-1,0,64)'
	DD	00H
	DD	04H
	DD	0ffffffffH
	DD	00H
	DD	040H
	DD	FLAT:??_R3UMemory@icu_56@@8
rdata$r	ENDS
;	COMDAT ??_R2UObject@icu_56@@8
rdata$r	SEGMENT
??_R2UObject@icu_56@@8 DD FLAT:??_R1A@?0A@EA@UObject@icu_56@@8 ; icu_56::UObject::`RTTI Base Class Array'
	DD	FLAT:??_R13?0A@EA@UMemory@icu_56@@8
rdata$r	ENDS
;	COMDAT ??_R3UObject@icu_56@@8
rdata$r	SEGMENT
??_R3UObject@icu_56@@8 DD 00H				; icu_56::UObject::`RTTI Class Hierarchy Descriptor'
	DD	00H
	DD	02H
	DD	FLAT:??_R2UObject@icu_56@@8
rdata$r	ENDS
;	COMDAT ??_R0?AVUObject@icu_56@@@8
_DATA	SEGMENT
??_R0?AVUObject@icu_56@@@8 DD FLAT:??_7type_info@@6B@	; icu_56::UObject `RTTI Type Descriptor'
	DD	00H
	DB	'.?AVUObject@icu_56@@', 00H
_DATA	ENDS
;	COMDAT ??_R1A@?0A@EA@UObject@icu_56@@8
rdata$r	SEGMENT
??_R1A@?0A@EA@UObject@icu_56@@8 DD FLAT:??_R0?AVUObject@icu_56@@@8 ; icu_56::UObject::`RTTI Base Class Descriptor at (0,-1,0,64)'
	DD	01H
	DD	00H
	DD	0ffffffffH
	DD	00H
	DD	040H
	DD	FLAT:??_R3UObject@icu_56@@8
rdata$r	ENDS
;	COMDAT ??_R1A@?0A@EA@UVector@icu_56@@8
rdata$r	SEGMENT
??_R1A@?0A@EA@UVector@icu_56@@8 DD FLAT:??_R0?AVUVector@icu_56@@@8 ; icu_56::UVector::`RTTI Base Class Descriptor at (0,-1,0,64)'
	DD	02H
	DD	00H
	DD	0ffffffffH
	DD	00H
	DD	040H
	DD	FLAT:??_R3UVector@icu_56@@8
rdata$r	ENDS
;	COMDAT ??_R2UVector@icu_56@@8
rdata$r	SEGMENT
??_R2UVector@icu_56@@8 DD FLAT:??_R1A@?0A@EA@UVector@icu_56@@8 ; icu_56::UVector::`RTTI Base Class Array'
	DD	FLAT:??_R1A@?0A@EA@UObject@icu_56@@8
	DD	FLAT:??_R13?0A@EA@UMemory@icu_56@@8
rdata$r	ENDS
;	COMDAT ??_R3UVector@icu_56@@8
rdata$r	SEGMENT
??_R3UVector@icu_56@@8 DD 00H				; icu_56::UVector::`RTTI Class Hierarchy Descriptor'
	DD	00H
	DD	03H
	DD	FLAT:??_R2UVector@icu_56@@8
rdata$r	ENDS
;	COMDAT ??_R0?AVUVector@icu_56@@@8
_DATA	SEGMENT
??_R0?AVUVector@icu_56@@@8 DD FLAT:??_7type_info@@6B@	; icu_56::UVector `RTTI Type Descriptor'
	DD	00H
	DB	'.?AVUVector@icu_56@@', 00H
_DATA	ENDS
;	COMDAT ??_R4UVector@icu_56@@6B@
rdata$r	SEGMENT
??_R4UVector@icu_56@@6B@ DD 00H				; icu_56::UVector::`RTTI Complete Object Locator'
	DD	00H
	DD	00H
	DD	FLAT:??_R0?AVUVector@icu_56@@@8
	DD	FLAT:??_R3UVector@icu_56@@8
rdata$r	ENDS
;	COMDAT ??_C@_1CO@PIOHMELD@?$AAr?$AAi?$AAn?$AAd?$AAe?$AAx?$AA?5?$AA?$DN?$AA?$DN?$AA?5?$AAb?$AAS?$AAe?$AAt?$AA?9?$AA?$DO?$AAr?$AAi?$AAn?$AAd?$AAe?$AAx?$AA?$AA@
CONST	SEGMENT
??_C@_1CO@PIOHMELD@?$AAr?$AAi?$AAn?$AAd?$AAe?$AAx?$AA?5?$AA?$DN?$AA?$DN?$AA?5?$AAb?$AAS?$AAe?$AAt?$AA?9?$AA?$DO?$AAr?$AAi?$AAn?$AAd?$AAe?$AAx?$AA?$AA@ DB 'r'
	DB	00H, 'i', 00H, 'n', 00H, 'd', 00H, 'e', 00H, 'x', 00H, ' ', 00H
	DB	'=', 00H, '=', 00H, ' ', 00H, 'b', 00H, 'S', 00H, 'e', 00H, 't'
	DB	00H, '-', 00H, '>', 00H, 'r', 00H, 'i', 00H, 'n', 00H, 'd', 00H
	DB	'e', 00H, 'x', 00H, 00H, 00H			; `string'
CONST	ENDS
;	COMDAT ??_C@_1DM@GCHDENGA@?$AAs?$AAe?$AAt?$AAI?$AAn?$AAd?$AAe?$AAx?$AA?5?$AA?$DM?$AA?5?$AAs?$AAc?$AAr?$AAi?$AAp?$AAt?$AAS?$AAe?$AAt?$AAs?$AA?9?$AA?$DO?$AAs?$AAi?$AAz?$AAe?$AA?$CI?$AA?$CJ?$AA?$AA@
CONST	SEGMENT
??_C@_1DM@GCHDENGA@?$AAs?$AAe?$AAt?$AAI?$AAn?$AAd?$AAe?$AAx?$AA?5?$AA?$DM?$AA?5?$AAs?$AAc?$AAr?$AAi?$AAp?$AAt?$AAS?$AAe?$AAt?$AAs?$AA?9?$AA?$DO?$AAs?$AAi?$AAz?$AAe?$AA?$CI?$AA?$CJ?$AA?$AA@ DB 's'
	DB	00H, 'e', 00H, 't', 00H, 'I', 00H, 'n', 00H, 'd', 00H, 'e', 00H
	DB	'x', 00H, ' ', 00H, '<', 00H, ' ', 00H, 's', 00H, 'c', 00H, 'r'
	DB	00H, 'i', 00H, 'p', 00H, 't', 00H, 'S', 00H, 'e', 00H, 't', 00H
	DB	's', 00H, '-', 00H, '>', 00H, 's', 00H, 'i', 00H, 'z', 00H, 'e'
	DB	00H, '(', 00H, ')', 00H, 00H, 00H		; `string'
CONST	ENDS
;	COMDAT ??_C@_1GE@KAFFAGGI@?$AAd?$AA?3?$AA?2?$AAm?$AAo?$AAz?$AAi?$AAl?$AAl?$AAa?$AA?2?$AAi?$AAn?$AAt?$AAl?$AA?2?$AAi?$AAc?$AAu?$AA?2?$AAs?$AAo?$AAu?$AAr?$AAc?$AAe?$AA?2?$AAi?$AA1?$AA8?$AAn?$AA?2@
CONST	SEGMENT
??_C@_1GE@KAFFAGGI@?$AAd?$AA?3?$AA?2?$AAm?$AAo?$AAz?$AAi?$AAl?$AAl?$AAa?$AA?2?$AAi?$AAn?$AAt?$AAl?$AA?2?$AAi?$AAc?$AAu?$AA?2?$AAs?$AAo?$AAu?$AAr?$AAc?$AAe?$AA?2?$AAi?$AA1?$AA8?$AAn?$AA?2@ DB 'd'
	DB	00H, ':', 00H, '\', 00H, 'm', 00H, 'o', 00H, 'z', 00H, 'i', 00H
	DB	'l', 00H, 'l', 00H, 'a', 00H, '\', 00H, 'i', 00H, 'n', 00H, 't'
	DB	00H, 'l', 00H, '\', 00H, 'i', 00H, 'c', 00H, 'u', 00H, '\', 00H
	DB	's', 00H, 'o', 00H, 'u', 00H, 'r', 00H, 'c', 00H, 'e', 00H, '\'
	DB	00H, 'i', 00H, '1', 00H, '8', 00H, 'n', 00H, '\', 00H, 'u', 00H
	DB	's', 00H, 'p', 00H, 'o', 00H, 'o', 00H, 'f', 00H, '_', 00H, 'w'
	DB	00H, 's', 00H, 'c', 00H, 'o', 00H, 'n', 00H, 'f', 00H, '.', 00H
	DB	'c', 00H, 'p', 00H, 'p', 00H, 00H, 00H	; `string'
CONST	ENDS
;	COMDAT ?__LINE__Var@?1??buildWSConfusableData@icu_56@@YAXPAVSpoofImpl@2@PBDHPAUUParseError@@AAW4UErrorCode@@@Z@4JA
_DATA	SEGMENT
?__LINE__Var@?1??buildWSConfusableData@icu_56@@YAXPAVSpoofImpl@2@PBDHPAUUParseError@@AAW4UErrorCode@@@Z@4JA DD 067H ; `icu_56::buildWSConfusableData'::`2'::__LINE__Var
_DATA	ENDS
;	COMDAT ??_SUVector@icu_56@@6B@
CONST	SEGMENT
??_SUVector@icu_56@@6B@ DD FLAT:??_R4UVector@icu_56@@6B@ ; icu_56::UVector::`local vftable'
	DD	FLAT:??_EUVector@icu_56@@UAEPAXI@Z
	DD	FLAT:?getDynamicClassID@UVector@icu_56@@UBEPAXXZ
CONST	ENDS
;	COMDAT xdata$x
xdata$x	SEGMENT
__ehfuncinfo$?buildWSConfusableData@icu_56@@YAXPAVSpoofImpl@1@PBDHPAUUParseError@@AAW4UErrorCode@@@Z DD 019930522H
	DD	06H
	DD	FLAT:__unwindtable$?buildWSConfusableData@icu_56@@YAXPAVSpoofImpl@1@PBDHPAUUParseError@@AAW4UErrorCode@@@Z
	DD	2 DUP(00H)
	DD	2 DUP(00H)
	DD	00H
	DD	01H
__unwindtable$?buildWSConfusableData@icu_56@@YAXPAVSpoofImpl@1@PBDHPAUUParseError@@AAW4UErrorCode@@@Z DD 0ffffffffH
	DD	FLAT:__unwindfunclet$?buildWSConfusableData@icu_56@@YAXPAVSpoofImpl@1@PBDHPAUUParseError@@AAW4UErrorCode@@@Z$13
	DD	00H
	DD	FLAT:__unwindfunclet$?buildWSConfusableData@icu_56@@YAXPAVSpoofImpl@1@PBDHPAUUParseError@@AAW4UErrorCode@@@Z$14
	DD	00H
	DD	FLAT:__unwindfunclet$?buildWSConfusableData@icu_56@@YAXPAVSpoofImpl@1@PBDHPAUUParseError@@AAW4UErrorCode@@@Z$15
	DD	00H
	DD	FLAT:__unwindfunclet$?buildWSConfusableData@icu_56@@YAXPAVSpoofImpl@1@PBDHPAUUParseError@@AAW4UErrorCode@@@Z$16
	DD	00H
	DD	FLAT:__unwindfunclet$?buildWSConfusableData@icu_56@@YAXPAVSpoofImpl@1@PBDHPAUUParseError@@AAW4UErrorCode@@@Z$17
	DD	04H
	DD	FLAT:__unwindfunclet$?buildWSConfusableData@icu_56@@YAXPAVSpoofImpl@1@PBDHPAUUParseError@@AAW4UErrorCode@@@Z$18
; Function compile flags: /Odtp /RTCsu /ZI
xdata$x	ENDS
;	COMDAT ?buildWSConfusableData@icu_56@@YAXPAVSpoofImpl@1@PBDHPAUUParseError@@AAW4UErrorCode@@@Z
_TEXT	SEGMENT
tv586 = -1024						; size = 4
tv575 = -1024						; size = 4
tv370 = -1024						; size = 4
tv275 = -1024						; size = 4
tv265 = -1024						; size = 4
tv88 = -1024						; size = 4
$T78762 = -1016						; size = 4
$T78763 = -1004						; size = 4
$T78767 = -992						; size = 4
$T78768 = -980						; size = 4
$T78771 = -968						; size = 4
$T78772 = -956						; size = 4
$T78775 = -944						; size = 4
$T78776 = -932						; size = 4
$T78780 = -920						; size = 4
$T78781 = -908						; size = 4
$T78784 = -896						; size = 4
$T78785 = -884						; size = 4
_bsset$72037 = -680					; size = 4
_i$ = -668						; size = 4
_bSet$72024 = -656					; size = 4
_i$72020 = -644						; size = 4
_rindex$72019 = -632					; size = 4
_rtScriptSets$72016 = -620				; size = 4
_where$72013 = -608					; size = 4
_size$72010 = -596					; size = 4
_rangeEnd$72009 = -584					; size = 4
_rangeStart$72008 = -572				; size = 4
_rn$72004 = -560					; size = 4
_inheritedSet$72003 = -548				; size = 52
_ignoreSet$72002 = -488					; size = 52
_bSet$71998 = -428					; size = 4
_i$71994 = -416						; size = 4
_innerSet$71989 = -404					; size = 4
_inneri$71985 = -392					; size = 4
_outerSet$71981 = -380					; size = 4
_outeri$71977 = -368					; size = 4
_duplicateCount$71976 = -356				; size = 4
_cpScript$71973 = -344					; size = 4
_bsset$71951 = -332					; size = 4
_setIndex$71950 = -320					; size = 4
_cp$71946 = -308					; size = 4
_table$71944 = -296					; size = 4
_targScript$71937 = -284				; size = 4
_srcScript$71935 = -272					; size = 4
_targScriptName$71934 = -260				; size = 20
_srcScriptName$71933 = -232				; size = 20
_endCodePoint$71931 = -204				; size = 4
_startCodePoint$71930 = -192				; size = 4
_pattern$ = -180					; size = 64
_lowerCaseTrie$ = -108					; size = 4
_anyCaseTrie$ = -96					; size = 4
_rtScriptSetsCount$ = -84				; size = 4
_scriptSets$ = -72					; size = 4
_lineNum$ = -60						; size = 4
_input$ = -48						; size = 4
_inputLen$ = -36					; size = 4
_parseRegexp$ = -24					; size = 4
__$ArrayPad$ = -16					; size = 4
__$EHRec$ = -12						; size = 12
_spImpl$ = 8						; size = 4
_confusablesWS$ = 12					; size = 4
_confusablesWSLen$ = 16					; size = 4
_pe$ = 20						; size = 4
_status$ = 24						; size = 4
?buildWSConfusableData@icu_56@@YAXPAVSpoofImpl@1@PBDHPAUUParseError@@AAW4UErrorCode@@@Z PROC ; icu_56::buildWSConfusableData, COMDAT
; Line 103
	push	ebp
	mov	ebp, esp
	push	-1
	push	__ehhandler$?buildWSConfusableData@icu_56@@YAXPAVSpoofImpl@1@PBDHPAUUParseError@@AAW4UErrorCode@@@Z
	mov	eax, DWORD PTR fs:0
	push	eax
	sub	esp, 1012				; 000003f4H
	push	ebx
	push	esi
	push	edi
	lea	edi, DWORD PTR [ebp-1024]
	mov	ecx, 253				; 000000fdH
	mov	eax, -858993460				; ccccccccH
	rep stosd
	mov	eax, DWORD PTR ___security_cookie
	xor	eax, ebp
	mov	DWORD PTR __$ArrayPad$[ebp], eax
	push	eax
	lea	eax, DWORD PTR __$EHRec$[ebp]
	mov	DWORD PTR fs:0, eax
; Line 104
	mov	eax, DWORD PTR _status$[ebp]
	mov	ecx, DWORD PTR [eax]
	push	ecx
	call	?U_FAILURE@@YACW4UErrorCode@@@Z		; U_FAILURE
	add	esp, 4
	movsx	edx, al
	test	edx, edx
	je	SHORT $LN63@buildWSCon
; Line 105
	jmp	$LN64@buildWSCon
$LN63@buildWSCon:
; Line 107
	mov	DWORD PTR _parseRegexp$[ebp], 0
; Line 108
	mov	DWORD PTR _inputLen$[ebp], 0
; Line 109
	mov	DWORD PTR _input$[ebp], 0
; Line 110
	mov	DWORD PTR _lineNum$[ebp], 0
; Line 112
	mov	DWORD PTR _scriptSets$[ebp], 0
; Line 113
	mov	DWORD PTR _rtScriptSetsCount$[ebp], 2
; Line 115
	mov	DWORD PTR _anyCaseTrie$[ebp], 0
; Line 116
	mov	DWORD PTR _lowerCaseTrie$[ebp], 0
; Line 118
	mov	eax, DWORD PTR _status$[ebp]
	push	eax
	push	0
	push	0
	call	_utrie2_open_56
	add	esp, 12					; 0000000cH
	mov	DWORD PTR _anyCaseTrie$[ebp], eax
; Line 119
	mov	eax, DWORD PTR _status$[ebp]
	push	eax
	push	0
	push	0
	call	_utrie2_open_56
	add	esp, 12					; 0000000cH
	mov	DWORD PTR _lowerCaseTrie$[ebp], eax
; Line 121
	mov	esi, esp
	push	0
	push	-1
	mov	eax, DWORD PTR _parseExp
	push	eax
	lea	ecx, DWORD PTR _pattern$[ebp]
	call	DWORD PTR __imp_??0UnicodeString@icu_56@@QAE@PBDHW4EInvariant@01@@Z
	cmp	esi, esp
	call	__RTC_CheckEsp
	mov	DWORD PTR __$EHRec$[ebp+8], 0
; Line 135
	mov	esi, esp
	push	24					; 00000018H
	call	DWORD PTR __imp_??2UMemory@icu_56@@SAPAXI@Z
	add	esp, 4
	cmp	esi, esp
	call	__RTC_CheckEsp
	mov	DWORD PTR $T78763[ebp], eax
	mov	BYTE PTR __$EHRec$[ebp+8], 1
	cmp	DWORD PTR $T78763[ebp], 0
	je	SHORT $LN66@buildWSCon
	mov	esi, esp
	mov	eax, DWORD PTR _status$[ebp]
	push	eax
	mov	ecx, DWORD PTR $T78763[ebp]
	call	DWORD PTR __imp_??0UVector@icu_56@@QAE@AAW4UErrorCode@@@Z
	cmp	esi, esp
	call	__RTC_CheckEsp
	mov	ecx, DWORD PTR $T78763[ebp]
	mov	DWORD PTR [ecx], OFFSET ??_SUVector@icu_56@@6B@
	mov	edx, DWORD PTR $T78763[ebp]
	mov	DWORD PTR tv88[ebp], edx
	jmp	SHORT $LN67@buildWSCon
$LN66@buildWSCon:
	mov	DWORD PTR tv88[ebp], 0
$LN67@buildWSCon:
	mov	eax, DWORD PTR tv88[ebp]
	mov	DWORD PTR $T78762[ebp], eax
	mov	BYTE PTR __$EHRec$[ebp+8], 0
	mov	ecx, DWORD PTR $T78762[ebp]
	mov	DWORD PTR _scriptSets$[ebp], ecx
; Line 136
	cmp	DWORD PTR _scriptSets$[ebp], 0
	jne	SHORT $LN62@buildWSCon
; Line 137
	mov	eax, DWORD PTR _status$[ebp]
	mov	DWORD PTR [eax], 7
; Line 138
	jmp	$cleanup$71911
$LN62@buildWSCon:
; Line 140
	mov	esi, esp
	mov	eax, DWORD PTR _status$[ebp]
	push	eax
	push	0
	mov	ecx, DWORD PTR _scriptSets$[ebp]
	call	DWORD PTR __imp_?addElement@UVector@icu_56@@QAEXPAXAAW4UErrorCode@@@Z
	cmp	esi, esp
	call	__RTC_CheckEsp
; Line 141
	mov	esi, esp
	mov	eax, DWORD PTR _status$[ebp]
	push	eax
	push	0
	mov	ecx, DWORD PTR _scriptSets$[ebp]
	call	DWORD PTR __imp_?addElement@UVector@icu_56@@QAEXPAXAAW4UErrorCode@@@Z
	cmp	esi, esp
	call	__RTC_CheckEsp
; Line 144
	mov	eax, DWORD PTR _status$[ebp]
	push	eax
	mov	ecx, DWORD PTR _confusablesWSLen$[ebp]
	push	ecx
	mov	edx, DWORD PTR _confusablesWS$[ebp]
	push	edx
	lea	eax, DWORD PTR _inputLen$[ebp]
	push	eax
	push	0
	push	0
	call	_u_strFromUTF8_56
	add	esp, 24					; 00000018H
; Line 145
	mov	eax, DWORD PTR _status$[ebp]
	cmp	DWORD PTR [eax], 15			; 0000000fH
	je	SHORT $LN60@buildWSCon
; Line 146
	jmp	$cleanup$71911
$LN60@buildWSCon:
; Line 148
	mov	eax, DWORD PTR _status$[ebp]
	mov	DWORD PTR [eax], 0
; Line 149
	mov	eax, DWORD PTR _inputLen$[ebp]
	lea	ecx, DWORD PTR [eax+eax+2]
	push	ecx
	call	_uprv_malloc_56
	add	esp, 4
	mov	DWORD PTR _input$[ebp], eax
; Line 150
	cmp	DWORD PTR _input$[ebp], 0
	jne	SHORT $LN58@buildWSCon
; Line 151
	mov	eax, DWORD PTR _status$[ebp]
	mov	DWORD PTR [eax], 7
; Line 152
	jmp	$cleanup$71911
$LN58@buildWSCon:
; Line 154
	mov	eax, DWORD PTR _status$[ebp]
	push	eax
	mov	ecx, DWORD PTR _confusablesWSLen$[ebp]
	push	ecx
	mov	edx, DWORD PTR _confusablesWS$[ebp]
	push	edx
	push	0
	mov	eax, DWORD PTR _inputLen$[ebp]
	add	eax, 1
	push	eax
	mov	ecx, DWORD PTR _input$[ebp]
	push	ecx
	call	_u_strFromUTF8_56
	add	esp, 24					; 00000018H
; Line 156
	mov	eax, DWORD PTR _status$[ebp]
	push	eax
	push	0
	push	0
	mov	esi, esp
	lea	ecx, DWORD PTR _pattern$[ebp]
	call	DWORD PTR __imp_?length@UnicodeString@icu_56@@QBEHXZ
	cmp	esi, esp
	call	__RTC_CheckEsp
	push	eax
	mov	esi, esp
	lea	ecx, DWORD PTR _pattern$[ebp]
	call	DWORD PTR __imp_?getBuffer@UnicodeString@icu_56@@QBEPB_WXZ
	cmp	esi, esp
	call	__RTC_CheckEsp
	push	eax
	call	_uregex_open_56
	add	esp, 20					; 00000014H
	mov	DWORD PTR _parseRegexp$[ebp], eax
; Line 160
	mov	eax, DWORD PTR _input$[ebp]
	movzx	ecx, WORD PTR [eax]
	cmp	ecx, 65279				; 0000feffH
	jne	SHORT $LN56@buildWSCon
; Line 161
	mov	eax, 32					; 00000020H
	mov	ecx, DWORD PTR _input$[ebp]
	mov	WORD PTR [ecx], ax
$LN56@buildWSCon:
; Line 165
	mov	eax, DWORD PTR _status$[ebp]
	push	eax
	mov	ecx, DWORD PTR _inputLen$[ebp]
	push	ecx
	mov	edx, DWORD PTR _input$[ebp]
	push	edx
	mov	eax, DWORD PTR _parseRegexp$[ebp]
	push	eax
	call	_uregex_setText_56
	add	esp, 16					; 00000010H
$LN55@buildWSCon:
; Line 166
	mov	eax, DWORD PTR _status$[ebp]
	push	eax
	mov	ecx, DWORD PTR _parseRegexp$[ebp]
	push	ecx
	call	_uregex_findNext_56
	add	esp, 8
	movsx	edx, al
	test	edx, edx
	je	$LN54@buildWSCon
; Line 167
	mov	eax, DWORD PTR _lineNum$[ebp]
	add	eax, 1
	mov	DWORD PTR _lineNum$[ebp], eax
; Line 168
	mov	eax, DWORD PTR _status$[ebp]
	push	eax
	push	1
	mov	ecx, DWORD PTR _parseRegexp$[ebp]
	push	ecx
	call	_uregex_start_56
	add	esp, 12					; 0000000cH
	test	eax, eax
	jl	SHORT $LN53@buildWSCon
; Line 170
	jmp	SHORT $LN55@buildWSCon
$LN53@buildWSCon:
; Line 172
	mov	eax, DWORD PTR _status$[ebp]
	push	eax
	push	8
	mov	ecx, DWORD PTR _parseRegexp$[ebp]
	push	ecx
	call	_uregex_start_56
	add	esp, 12					; 0000000cH
	test	eax, eax
	jl	SHORT $LN52@buildWSCon
; Line 174
	mov	eax, DWORD PTR _status$[ebp]
	mov	DWORD PTR [eax], 9
; Line 175
	jmp	$cleanup$71911
$LN52@buildWSCon:
; Line 177
	mov	eax, DWORD PTR _status$[ebp]
	mov	ecx, DWORD PTR [eax]
	push	ecx
	call	?U_FAILURE@@YACW4UErrorCode@@@Z		; U_FAILURE
	add	esp, 4
	movsx	edx, al
	test	edx, edx
	je	SHORT $LN50@buildWSCon
; Line 178
	jmp	$cleanup$71911
$LN50@buildWSCon:
; Line 183
	mov	eax, DWORD PTR _status$[ebp]
	push	eax
	mov	ecx, DWORD PTR _status$[ebp]
	push	ecx
	push	2
	mov	edx, DWORD PTR _parseRegexp$[ebp]
	push	edx
	call	_uregex_end_56
	add	esp, 12					; 0000000cH
	push	eax
	mov	eax, DWORD PTR _status$[ebp]
	push	eax
	push	2
	mov	ecx, DWORD PTR _parseRegexp$[ebp]
	push	ecx
	call	_uregex_start_56
	add	esp, 12					; 0000000cH
	push	eax
	mov	edx, DWORD PTR _input$[ebp]
	push	edx
	call	?ScanHex@SpoofImpl@icu_56@@SAHPB_WHHAAW4UErrorCode@@@Z ; icu_56::SpoofImpl::ScanHex
	add	esp, 16					; 00000010H
	mov	DWORD PTR _startCodePoint$71930[ebp], eax
; Line 184
	mov	eax, DWORD PTR _startCodePoint$71930[ebp]
	mov	DWORD PTR _endCodePoint$71931[ebp], eax
; Line 185
	mov	eax, DWORD PTR _status$[ebp]
	push	eax
	push	3
	mov	ecx, DWORD PTR _parseRegexp$[ebp]
	push	ecx
	call	_uregex_start_56
	add	esp, 12					; 0000000cH
	test	eax, eax
	jl	SHORT $LN48@buildWSCon
; Line 187
	mov	eax, DWORD PTR _status$[ebp]
	push	eax
	mov	ecx, DWORD PTR _status$[ebp]
	push	ecx
	push	3
	mov	edx, DWORD PTR _parseRegexp$[ebp]
	push	edx
	call	_uregex_end_56
	add	esp, 12					; 0000000cH
	push	eax
	mov	eax, DWORD PTR _status$[ebp]
	push	eax
	push	3
	mov	ecx, DWORD PTR _parseRegexp$[ebp]
	push	ecx
	call	_uregex_start_56
	add	esp, 12					; 0000000cH
	push	eax
	mov	edx, DWORD PTR _input$[ebp]
	push	edx
	call	?ScanHex@SpoofImpl@icu_56@@SAHPB_WHHAAW4UErrorCode@@@Z ; icu_56::SpoofImpl::ScanHex
	add	esp, 16					; 00000010H
	mov	DWORD PTR _endCodePoint$71931[ebp], eax
$LN48@buildWSCon:
; Line 195
	mov	eax, DWORD PTR _status$[ebp]
	push	eax
	push	20					; 00000014H
	lea	ecx, DWORD PTR _srcScriptName$71933[ebp]
	push	ecx
	push	4
	mov	edx, DWORD PTR _parseRegexp$[ebp]
	push	edx
	call	?extractGroup@@YAXPAUURegularExpression@@HPADHAAW4UErrorCode@@@Z ; extractGroup
	add	esp, 20					; 00000014H
; Line 196
	mov	eax, DWORD PTR _status$[ebp]
	push	eax
	push	20					; 00000014H
	lea	ecx, DWORD PTR _targScriptName$71934[ebp]
	push	ecx
	push	5
	mov	edx, DWORD PTR _parseRegexp$[ebp]
	push	edx
	call	?extractGroup@@YAXPAUURegularExpression@@HPADHAAW4UErrorCode@@@Z ; extractGroup
	add	esp, 20					; 00000014H
; Line 198
	lea	eax, DWORD PTR _srcScriptName$71933[ebp]
	push	eax
	push	4106					; 0000100aH
	call	_u_getPropertyValueEnum_56
	add	esp, 8
	mov	DWORD PTR _srcScript$71935[ebp], eax
; Line 200
	lea	eax, DWORD PTR _targScriptName$71934[ebp]
	push	eax
	push	4106					; 0000100aH
	call	_u_getPropertyValueEnum_56
	add	esp, 8
	mov	DWORD PTR _targScript$71937[ebp], eax
; Line 201
	mov	eax, DWORD PTR _status$[ebp]
	mov	ecx, DWORD PTR [eax]
	push	ecx
	call	?U_FAILURE@@YACW4UErrorCode@@@Z		; U_FAILURE
	add	esp, 4
	movsx	edx, al
	test	edx, edx
	je	SHORT $LN47@buildWSCon
; Line 202
	jmp	$cleanup$71911
$LN47@buildWSCon:
; Line 204
	cmp	DWORD PTR _srcScript$71935[ebp], -1
	je	SHORT $LN44@buildWSCon
	cmp	DWORD PTR _targScript$71937[ebp], -1
	jne	SHORT $LN45@buildWSCon
$LN44@buildWSCon:
; Line 205
	mov	eax, DWORD PTR _status$[ebp]
	mov	DWORD PTR [eax], 3
; Line 206
	jmp	$cleanup$71911
$LN45@buildWSCon:
; Line 210
	mov	eax, DWORD PTR _anyCaseTrie$[ebp]
	mov	DWORD PTR _table$71944[ebp], eax
; Line 211
	mov	eax, DWORD PTR _status$[ebp]
	push	eax
	push	7
	mov	ecx, DWORD PTR _parseRegexp$[ebp]
	push	ecx
	call	_uregex_start_56
	add	esp, 12					; 0000000cH
	test	eax, eax
	jl	SHORT $LN42@buildWSCon
; Line 212
	mov	eax, DWORD PTR _lowerCaseTrie$[ebp]
	mov	DWORD PTR _table$71944[ebp], eax
$LN42@buildWSCon:
; Line 223
	mov	eax, DWORD PTR _startCodePoint$71930[ebp]
	mov	DWORD PTR _cp$71946[ebp], eax
	jmp	SHORT $LN41@buildWSCon
$LN40@buildWSCon:
	mov	eax, DWORD PTR _cp$71946[ebp]
	add	eax, 1
	mov	DWORD PTR _cp$71946[ebp], eax
$LN41@buildWSCon:
	mov	eax, DWORD PTR _cp$71946[ebp]
	cmp	eax, DWORD PTR _endCodePoint$71931[ebp]
	jg	$LN39@buildWSCon
; Line 224
	mov	eax, DWORD PTR _cp$71946[ebp]
	push	eax
	mov	ecx, DWORD PTR _table$71944[ebp]
	push	ecx
	call	_utrie2_get32_56
	add	esp, 8
	mov	DWORD PTR _setIndex$71950[ebp], eax
; Line 225
	mov	DWORD PTR _bsset$71951[ebp], 0
; Line 226
	cmp	DWORD PTR _setIndex$71950[ebp], 0
	jle	SHORT $LN38@buildWSCon
; Line 227
	mov	esi, esp
	mov	ecx, DWORD PTR _scriptSets$[ebp]
	call	DWORD PTR __imp_?size@UVector@icu_56@@QBEHXZ
	cmp	esi, esp
	call	__RTC_CheckEsp
	cmp	DWORD PTR _setIndex$71950[ebp], eax
	jl	SHORT $LN68@buildWSCon
	mov	eax, DWORD PTR ?__LINE__Var@?1??buildWSConfusableData@icu_56@@YAXPAVSpoofImpl@2@PBDHPAUUParseError@@AAW4UErrorCode@@@Z@4JA
	add	eax, 124				; 0000007cH
	mov	esi, esp
	push	eax
	push	OFFSET ??_C@_1GE@KAFFAGGI@?$AAd?$AA?3?$AA?2?$AAm?$AAo?$AAz?$AAi?$AAl?$AAl?$AAa?$AA?2?$AAi?$AAn?$AAt?$AAl?$AA?2?$AAi?$AAc?$AAu?$AA?2?$AAs?$AAo?$AAu?$AAr?$AAc?$AAe?$AA?2?$AAi?$AA1?$AA8?$AAn?$AA?2@
	push	OFFSET ??_C@_1DM@GCHDENGA@?$AAs?$AAe?$AAt?$AAI?$AAn?$AAd?$AAe?$AAx?$AA?5?$AA?$DM?$AA?5?$AAs?$AAc?$AAr?$AAi?$AAp?$AAt?$AAS?$AAe?$AAt?$AAs?$AA?9?$AA?$DO?$AAs?$AAi?$AAz?$AAe?$AA?$CI?$AA?$CJ?$AA?$AA@
	call	DWORD PTR __imp___wassert
	add	esp, 12					; 0000000cH
	cmp	esi, esp
	call	__RTC_CheckEsp
$LN68@buildWSCon:
; Line 228
	mov	esi, esp
	mov	eax, DWORD PTR _setIndex$71950[ebp]
	push	eax
	mov	ecx, DWORD PTR _scriptSets$[ebp]
	call	DWORD PTR __imp_?elementAt@UVector@icu_56@@QBEPAXH@Z
	cmp	esi, esp
	call	__RTC_CheckEsp
	mov	DWORD PTR _bsset$71951[ebp], eax
; Line 229
	jmp	$LN37@buildWSCon
$LN38@buildWSCon:
; Line 230
	mov	esi, esp
	push	24					; 00000018H
	call	DWORD PTR __imp_??2UMemory@icu_56@@SAPAXI@Z
	add	esp, 4
	cmp	esi, esp
	call	__RTC_CheckEsp
	mov	DWORD PTR $T78768[ebp], eax
	mov	BYTE PTR __$EHRec$[ebp+8], 2
	cmp	DWORD PTR $T78768[ebp], 0
	je	SHORT $LN69@buildWSCon
	mov	ecx, DWORD PTR $T78768[ebp]
	call	??0BuilderScriptSet@icu_56@@QAE@XZ	; icu_56::BuilderScriptSet::BuilderScriptSet
	mov	DWORD PTR tv265[ebp], eax
	jmp	SHORT $LN70@buildWSCon
$LN69@buildWSCon:
	mov	DWORD PTR tv265[ebp], 0
$LN70@buildWSCon:
	mov	eax, DWORD PTR tv265[ebp]
	mov	DWORD PTR $T78767[ebp], eax
	mov	BYTE PTR __$EHRec$[ebp+8], 0
	mov	ecx, DWORD PTR $T78767[ebp]
	mov	DWORD PTR _bsset$71951[ebp], ecx
; Line 231
	cmp	DWORD PTR _bsset$71951[ebp], 0
	jne	SHORT $LN36@buildWSCon
; Line 232
	mov	eax, DWORD PTR _status$[ebp]
	mov	DWORD PTR [eax], 7
; Line 233
	jmp	$cleanup$71911
$LN36@buildWSCon:
; Line 235
	mov	eax, DWORD PTR _bsset$71951[ebp]
	mov	ecx, DWORD PTR _cp$71946[ebp]
	mov	DWORD PTR [eax], ecx
; Line 236
	mov	eax, DWORD PTR _bsset$71951[ebp]
	mov	ecx, DWORD PTR _table$71944[ebp]
	mov	DWORD PTR [eax+4], ecx
; Line 237
	mov	esi, esp
	push	24					; 00000018H
	call	DWORD PTR __imp_??2UMemory@icu_56@@SAPAXI@Z
	add	esp, 4
	cmp	esi, esp
	call	__RTC_CheckEsp
	mov	DWORD PTR $T78772[ebp], eax
	mov	BYTE PTR __$EHRec$[ebp+8], 3
	cmp	DWORD PTR $T78772[ebp], 0
	je	SHORT $LN71@buildWSCon
	mov	ecx, DWORD PTR $T78772[ebp]
	call	??0ScriptSet@icu_56@@QAE@XZ		; icu_56::ScriptSet::ScriptSet
	mov	DWORD PTR tv275[ebp], eax
	jmp	SHORT $LN72@buildWSCon
$LN71@buildWSCon:
	mov	DWORD PTR tv275[ebp], 0
$LN72@buildWSCon:
	mov	eax, DWORD PTR tv275[ebp]
	mov	DWORD PTR $T78771[ebp], eax
	mov	BYTE PTR __$EHRec$[ebp+8], 0
	mov	ecx, DWORD PTR _bsset$71951[ebp]
	mov	edx, DWORD PTR $T78771[ebp]
	mov	DWORD PTR [ecx+8], edx
; Line 238
	mov	esi, esp
	mov	ecx, DWORD PTR _scriptSets$[ebp]
	call	DWORD PTR __imp_?size@UVector@icu_56@@QBEHXZ
	cmp	esi, esp
	call	__RTC_CheckEsp
	mov	DWORD PTR _setIndex$71950[ebp], eax
; Line 239
	mov	eax, DWORD PTR _bsset$71951[ebp]
	mov	ecx, DWORD PTR _setIndex$71950[ebp]
	mov	DWORD PTR [eax+12], ecx
; Line 240
	mov	eax, DWORD PTR _bsset$71951[ebp]
	mov	DWORD PTR [eax+16], 0
; Line 241
	mov	eax, DWORD PTR _bsset$71951[ebp]
	cmp	DWORD PTR [eax+8], 0
	jne	SHORT $LN34@buildWSCon
; Line 242
	mov	eax, DWORD PTR _status$[ebp]
	mov	DWORD PTR [eax], 7
; Line 243
	jmp	$cleanup$71911
$LN34@buildWSCon:
; Line 245
	mov	esi, esp
	mov	eax, DWORD PTR _status$[ebp]
	push	eax
	mov	ecx, DWORD PTR _bsset$71951[ebp]
	push	ecx
	mov	ecx, DWORD PTR _scriptSets$[ebp]
	call	DWORD PTR __imp_?addElement@UVector@icu_56@@QAEXPAXAAW4UErrorCode@@@Z
	cmp	esi, esp
	call	__RTC_CheckEsp
; Line 246
	mov	eax, DWORD PTR _status$[ebp]
	push	eax
	mov	ecx, DWORD PTR _setIndex$71950[ebp]
	push	ecx
	mov	edx, DWORD PTR _cp$71946[ebp]
	push	edx
	mov	eax, DWORD PTR _table$71944[ebp]
	push	eax
	call	_utrie2_set32_56
	add	esp, 16					; 00000010H
$LN37@buildWSCon:
; Line 248
	mov	eax, DWORD PTR _status$[ebp]
	push	eax
	mov	ecx, DWORD PTR _targScript$71937[ebp]
	push	ecx
	mov	edx, DWORD PTR _bsset$71951[ebp]
	mov	ecx, DWORD PTR [edx+8]
	call	?set@ScriptSet@icu_56@@QAEAAV12@W4UScriptCode@@AAW4UErrorCode@@@Z ; icu_56::ScriptSet::set
; Line 249
	mov	eax, DWORD PTR _status$[ebp]
	push	eax
	mov	ecx, DWORD PTR _srcScript$71935[ebp]
	push	ecx
	mov	edx, DWORD PTR _bsset$71951[ebp]
	mov	ecx, DWORD PTR [edx+8]
	call	?set@ScriptSet@icu_56@@QAEAAV12@W4UScriptCode@@AAW4UErrorCode@@@Z ; icu_56::ScriptSet::set
; Line 251
	mov	eax, DWORD PTR _status$[ebp]
	mov	ecx, DWORD PTR [eax]
	push	ecx
	call	?U_FAILURE@@YACW4UErrorCode@@@Z		; U_FAILURE
	add	esp, 4
	movsx	edx, al
	test	edx, edx
	je	SHORT $LN32@buildWSCon
; Line 252
	jmp	$cleanup$71911
$LN32@buildWSCon:
; Line 254
	mov	eax, DWORD PTR _status$[ebp]
	push	eax
	mov	ecx, DWORD PTR _cp$71946[ebp]
	push	ecx
	call	_uscript_getScript_56
	add	esp, 8
	mov	DWORD PTR _cpScript$71973[ebp], eax
; Line 255
	mov	eax, DWORD PTR _cpScript$71973[ebp]
	cmp	eax, DWORD PTR _srcScript$71935[ebp]
	je	SHORT $LN30@buildWSCon
; Line 256
	mov	eax, DWORD PTR _status$[ebp]
	mov	DWORD PTR [eax], 3
; Line 257
	jmp	$cleanup$71911
$LN30@buildWSCon:
; Line 259
	jmp	$LN40@buildWSCon
$LN39@buildWSCon:
; Line 260
	jmp	$LN55@buildWSCon
$LN54@buildWSCon:
; Line 269
	mov	DWORD PTR _duplicateCount$71976[ebp], 0
; Line 270
	mov	DWORD PTR _rtScriptSetsCount$[ebp], 2
; Line 271
	mov	DWORD PTR _outeri$71977[ebp], 2
	jmp	SHORT $LN28@buildWSCon
$LN27@buildWSCon:
	mov	eax, DWORD PTR _outeri$71977[ebp]
	add	eax, 1
	mov	DWORD PTR _outeri$71977[ebp], eax
$LN28@buildWSCon:
	mov	esi, esp
	mov	ecx, DWORD PTR _scriptSets$[ebp]
	call	DWORD PTR __imp_?size@UVector@icu_56@@QBEHXZ
	cmp	esi, esp
	call	__RTC_CheckEsp
	cmp	DWORD PTR _outeri$71977[ebp], eax
	jge	$LN26@buildWSCon
; Line 272
	mov	esi, esp
	mov	eax, DWORD PTR _outeri$71977[ebp]
	push	eax
	mov	ecx, DWORD PTR _scriptSets$[ebp]
	call	DWORD PTR __imp_?elementAt@UVector@icu_56@@QBEPAXH@Z
	cmp	esi, esp
	call	__RTC_CheckEsp
	mov	DWORD PTR _outerSet$71981[ebp], eax
; Line 273
	mov	eax, DWORD PTR _outerSet$71981[ebp]
	mov	ecx, DWORD PTR [eax+12]
	cmp	ecx, DWORD PTR _outeri$71977[ebp]
	je	SHORT $LN25@buildWSCon
; Line 276
	jmp	SHORT $LN27@buildWSCon
$LN25@buildWSCon:
; Line 278
	mov	eax, DWORD PTR _outerSet$71981[ebp]
	mov	ecx, DWORD PTR _rtScriptSetsCount$[ebp]
	mov	DWORD PTR [eax+16], ecx
	mov	edx, DWORD PTR _rtScriptSetsCount$[ebp]
	add	edx, 1
	mov	DWORD PTR _rtScriptSetsCount$[ebp], edx
; Line 279
	mov	eax, DWORD PTR _outeri$71977[ebp]
	add	eax, 1
	mov	DWORD PTR _inneri$71985[ebp], eax
	jmp	SHORT $LN24@buildWSCon
$LN23@buildWSCon:
	mov	eax, DWORD PTR _inneri$71985[ebp]
	add	eax, 1
	mov	DWORD PTR _inneri$71985[ebp], eax
$LN24@buildWSCon:
	mov	esi, esp
	mov	ecx, DWORD PTR _scriptSets$[ebp]
	call	DWORD PTR __imp_?size@UVector@icu_56@@QBEHXZ
	cmp	esi, esp
	call	__RTC_CheckEsp
	cmp	DWORD PTR _inneri$71985[ebp], eax
	jge	$LN22@buildWSCon
; Line 280
	mov	esi, esp
	mov	eax, DWORD PTR _inneri$71985[ebp]
	push	eax
	mov	ecx, DWORD PTR _scriptSets$[ebp]
	call	DWORD PTR __imp_?elementAt@UVector@icu_56@@QBEPAXH@Z
	cmp	esi, esp
	call	__RTC_CheckEsp
	mov	DWORD PTR _innerSet$71989[ebp], eax
; Line 281
	mov	eax, DWORD PTR _innerSet$71989[ebp]
	mov	ecx, DWORD PTR [eax+8]
	push	ecx
	mov	edx, DWORD PTR _outerSet$71981[ebp]
	mov	ecx, DWORD PTR [edx+8]
	call	??8ScriptSet@icu_56@@QBECABV01@@Z	; icu_56::ScriptSet::operator==
	movsx	eax, al
	test	eax, eax
	je	$LN21@buildWSCon
	mov	eax, DWORD PTR _outerSet$71981[ebp]
	mov	ecx, DWORD PTR _innerSet$71989[ebp]
	mov	edx, DWORD PTR [eax+8]
	cmp	edx, DWORD PTR [ecx+8]
	je	$LN21@buildWSCon
; Line 282
	mov	eax, DWORD PTR _innerSet$71989[ebp]
	mov	ecx, DWORD PTR [eax+8]
	mov	DWORD PTR $T78776[ebp], ecx
	mov	edx, DWORD PTR $T78776[ebp]
	mov	DWORD PTR $T78775[ebp], edx
	cmp	DWORD PTR $T78775[ebp], 0
	je	SHORT $LN73@buildWSCon
	push	1
	mov	ecx, DWORD PTR $T78775[ebp]
	call	??_GScriptSet@icu_56@@QAEPAXI@Z
	mov	DWORD PTR tv370[ebp], eax
	jmp	SHORT $LN74@buildWSCon
$LN73@buildWSCon:
	mov	DWORD PTR tv370[ebp], 0
$LN74@buildWSCon:
; Line 283
	mov	eax, DWORD PTR _innerSet$71989[ebp]
	mov	BYTE PTR [eax+20], 0
; Line 284
	mov	eax, DWORD PTR _innerSet$71989[ebp]
	mov	ecx, DWORD PTR _outerSet$71981[ebp]
	mov	edx, DWORD PTR [ecx+8]
	mov	DWORD PTR [eax+8], edx
; Line 285
	mov	eax, DWORD PTR _innerSet$71989[ebp]
	mov	ecx, DWORD PTR _outeri$71977[ebp]
	mov	DWORD PTR [eax+12], ecx
; Line 286
	mov	eax, DWORD PTR _innerSet$71989[ebp]
	mov	ecx, DWORD PTR _outerSet$71981[ebp]
	mov	edx, DWORD PTR [ecx+16]
	mov	DWORD PTR [eax+16], edx
; Line 287
	mov	eax, DWORD PTR _duplicateCount$71976[ebp]
	add	eax, 1
	mov	DWORD PTR _duplicateCount$71976[ebp], eax
$LN21@buildWSCon:
; Line 290
	jmp	$LN23@buildWSCon
$LN22@buildWSCon:
; Line 291
	jmp	$LN27@buildWSCon
$LN26@buildWSCon:
; Line 301
	mov	DWORD PTR _i$71994[ebp], 2
	jmp	SHORT $LN20@buildWSCon
$LN19@buildWSCon:
	mov	eax, DWORD PTR _i$71994[ebp]
	add	eax, 1
	mov	DWORD PTR _i$71994[ebp], eax
$LN20@buildWSCon:
	mov	esi, esp
	mov	ecx, DWORD PTR _scriptSets$[ebp]
	call	DWORD PTR __imp_?size@UVector@icu_56@@QBEHXZ
	cmp	esi, esp
	call	__RTC_CheckEsp
	cmp	DWORD PTR _i$71994[ebp], eax
	jge	SHORT $LN18@buildWSCon
; Line 302
	mov	esi, esp
	mov	eax, DWORD PTR _i$71994[ebp]
	push	eax
	mov	ecx, DWORD PTR _scriptSets$[ebp]
	call	DWORD PTR __imp_?elementAt@UVector@icu_56@@QBEPAXH@Z
	cmp	esi, esp
	call	__RTC_CheckEsp
	mov	DWORD PTR _bSet$71998[ebp], eax
; Line 303
	mov	eax, DWORD PTR _bSet$71998[ebp]
	mov	ecx, DWORD PTR [eax+16]
	cmp	ecx, DWORD PTR _i$71994[ebp]
	je	SHORT $LN17@buildWSCon
; Line 304
	mov	eax, DWORD PTR _status$[ebp]
	push	eax
	mov	ecx, DWORD PTR _bSet$71998[ebp]
	mov	edx, DWORD PTR [ecx+16]
	push	edx
	mov	eax, DWORD PTR _bSet$71998[ebp]
	mov	ecx, DWORD PTR [eax]
	push	ecx
	mov	edx, DWORD PTR _bSet$71998[ebp]
	mov	eax, DWORD PTR [edx+4]
	push	eax
	call	_utrie2_set32_56
	add	esp, 16					; 00000010H
$LN17@buildWSCon:
; Line 306
	jmp	$LN19@buildWSCon
$LN18@buildWSCon:
; Line 314
	mov	esi, esp
	lea	ecx, DWORD PTR _ignoreSet$72002[ebp]
	call	DWORD PTR __imp_??0UnicodeSet@icu_56@@QAE@XZ
	cmp	esi, esp
	call	__RTC_CheckEsp
	mov	BYTE PTR __$EHRec$[ebp+8], 4
; Line 315
	mov	esi, esp
	mov	eax, DWORD PTR _status$[ebp]
	push	eax
	push	0
	push	4106					; 0000100aH
	lea	ecx, DWORD PTR _ignoreSet$72002[ebp]
	call	DWORD PTR __imp_?applyIntPropertyValue@UnicodeSet@icu_56@@QAEAAV12@W4UProperty@@HAAW4UErrorCode@@@Z
	cmp	esi, esp
	call	__RTC_CheckEsp
; Line 316
	mov	esi, esp
	lea	ecx, DWORD PTR _inheritedSet$72003[ebp]
	call	DWORD PTR __imp_??0UnicodeSet@icu_56@@QAE@XZ
	cmp	esi, esp
	call	__RTC_CheckEsp
	mov	BYTE PTR __$EHRec$[ebp+8], 5
; Line 317
	mov	esi, esp
	mov	eax, DWORD PTR _status$[ebp]
	push	eax
	push	1
	push	4106					; 0000100aH
	lea	ecx, DWORD PTR _inheritedSet$72003[ebp]
	call	DWORD PTR __imp_?applyIntPropertyValue@UnicodeSet@icu_56@@QAEAAV12@W4UProperty@@HAAW4UErrorCode@@@Z
	cmp	esi, esp
	call	__RTC_CheckEsp
; Line 318
	mov	esi, esp
	lea	eax, DWORD PTR _inheritedSet$72003[ebp]
	push	eax
	lea	ecx, DWORD PTR _ignoreSet$72002[ebp]
	call	DWORD PTR __imp_?addAll@UnicodeSet@icu_56@@UAEAAV12@ABV12@@Z
	cmp	esi, esp
	call	__RTC_CheckEsp
; Line 319
	mov	DWORD PTR _rn$72004[ebp], 0
	jmp	SHORT $LN16@buildWSCon
$LN15@buildWSCon:
	mov	eax, DWORD PTR _rn$72004[ebp]
	add	eax, 1
	mov	DWORD PTR _rn$72004[ebp], eax
$LN16@buildWSCon:
	mov	esi, esp
	lea	ecx, DWORD PTR _ignoreSet$72002[ebp]
	call	DWORD PTR __imp_?getRangeCount@UnicodeSet@icu_56@@UBEHXZ
	cmp	esi, esp
	call	__RTC_CheckEsp
	cmp	DWORD PTR _rn$72004[ebp], eax
	jge	$LN14@buildWSCon
; Line 320
	mov	esi, esp
	mov	eax, DWORD PTR _rn$72004[ebp]
	push	eax
	lea	ecx, DWORD PTR _ignoreSet$72002[ebp]
	call	DWORD PTR __imp_?getRangeStart@UnicodeSet@icu_56@@UBEHH@Z
	cmp	esi, esp
	call	__RTC_CheckEsp
	mov	DWORD PTR _rangeStart$72008[ebp], eax
; Line 321
	mov	esi, esp
	mov	eax, DWORD PTR _rn$72004[ebp]
	push	eax
	lea	ecx, DWORD PTR _ignoreSet$72002[ebp]
	call	DWORD PTR __imp_?getRangeEnd@UnicodeSet@icu_56@@UBEHH@Z
	cmp	esi, esp
	call	__RTC_CheckEsp
	mov	DWORD PTR _rangeEnd$72009[ebp], eax
; Line 322
	mov	eax, DWORD PTR _status$[ebp]
	push	eax
	push	1
	push	1
	mov	ecx, DWORD PTR _rangeEnd$72009[ebp]
	push	ecx
	mov	edx, DWORD PTR _rangeStart$72008[ebp]
	push	edx
	mov	eax, DWORD PTR _anyCaseTrie$[ebp]
	push	eax
	call	_utrie2_setRange32_56
	add	esp, 24					; 00000018H
; Line 323
	mov	eax, DWORD PTR _status$[ebp]
	push	eax
	push	1
	push	1
	mov	ecx, DWORD PTR _rangeEnd$72009[ebp]
	push	ecx
	mov	edx, DWORD PTR _rangeStart$72008[ebp]
	push	edx
	mov	eax, DWORD PTR _lowerCaseTrie$[ebp]
	push	eax
	call	_utrie2_setRange32_56
	add	esp, 24					; 00000018H
; Line 324
	jmp	$LN15@buildWSCon
$LN14@buildWSCon:
; Line 325
	mov	BYTE PTR __$EHRec$[ebp+8], 4
	mov	esi, esp
	lea	ecx, DWORD PTR _inheritedSet$72003[ebp]
	call	DWORD PTR __imp_??1UnicodeSet@icu_56@@UAE@XZ
	cmp	esi, esp
	call	__RTC_CheckEsp
	mov	BYTE PTR __$EHRec$[ebp+8], 0
	mov	esi, esp
	lea	ecx, DWORD PTR _ignoreSet$72002[ebp]
	call	DWORD PTR __imp_??1UnicodeSet@icu_56@@UAE@XZ
	cmp	esi, esp
	call	__RTC_CheckEsp
; Line 329
	mov	eax, DWORD PTR _status$[ebp]
	push	eax
	push	0
	mov	ecx, DWORD PTR _anyCaseTrie$[ebp]
	push	ecx
	call	_utrie2_freeze_56
	add	esp, 12					; 0000000cH
; Line 330
	mov	eax, DWORD PTR _status$[ebp]
	push	eax
	push	0
	push	0
	mov	ecx, DWORD PTR _anyCaseTrie$[ebp]
	push	ecx
	call	_utrie2_serialize_56
	add	esp, 16					; 00000010H
	mov	DWORD PTR _size$72010[ebp], eax
; Line 332
	mov	eax, DWORD PTR _status$[ebp]
	cmp	DWORD PTR [eax], 15			; 0000000fH
	je	SHORT $LN13@buildWSCon
; Line 333
	jmp	$cleanup$71911
$LN13@buildWSCon:
; Line 335
	mov	eax, DWORD PTR _status$[ebp]
	mov	DWORD PTR [eax], 0
; Line 336
	mov	eax, DWORD PTR _spImpl$[ebp]
	mov	ecx, DWORD PTR [eax+12]
	mov	edx, DWORD PTR _spImpl$[ebp]
	mov	eax, DWORD PTR [edx+12]
	mov	edx, DWORD PTR [eax]
	mov	eax, DWORD PTR [ecx+12]
	mov	DWORD PTR [edx+44], eax
; Line 337
	mov	eax, DWORD PTR _spImpl$[ebp]
	mov	ecx, DWORD PTR [eax+12]
	mov	edx, DWORD PTR [ecx]
	mov	eax, DWORD PTR _size$72010[ebp]
	mov	DWORD PTR [edx+48], eax
; Line 338
	mov	eax, DWORD PTR _spImpl$[ebp]
	mov	ecx, DWORD PTR [eax+12]
	mov	edx, DWORD PTR _anyCaseTrie$[ebp]
	mov	DWORD PTR [ecx+36], edx
; Line 339
	mov	eax, DWORD PTR _status$[ebp]
	push	eax
	mov	ecx, DWORD PTR _size$72010[ebp]
	push	ecx
	mov	edx, DWORD PTR _spImpl$[ebp]
	mov	ecx, DWORD PTR [edx+12]
	call	?reserveSpace@SpoofData@icu_56@@QAEPAXHAAW4UErrorCode@@@Z ; icu_56::SpoofData::reserveSpace
	mov	DWORD PTR _where$72013[ebp], eax
; Line 340
	mov	eax, DWORD PTR _status$[ebp]
	push	eax
	mov	ecx, DWORD PTR _size$72010[ebp]
	push	ecx
	mov	edx, DWORD PTR _where$72013[ebp]
	push	edx
	mov	eax, DWORD PTR _anyCaseTrie$[ebp]
	push	eax
	call	_utrie2_serialize_56
	add	esp, 16					; 00000010H
; Line 342
	mov	eax, DWORD PTR _status$[ebp]
	push	eax
	push	0
	mov	ecx, DWORD PTR _lowerCaseTrie$[ebp]
	push	ecx
	call	_utrie2_freeze_56
	add	esp, 12					; 0000000cH
; Line 343
	mov	eax, DWORD PTR _status$[ebp]
	push	eax
	push	0
	push	0
	mov	ecx, DWORD PTR _lowerCaseTrie$[ebp]
	push	ecx
	call	_utrie2_serialize_56
	add	esp, 16					; 00000010H
	mov	DWORD PTR _size$72010[ebp], eax
; Line 345
	mov	eax, DWORD PTR _status$[ebp]
	cmp	DWORD PTR [eax], 15			; 0000000fH
	je	SHORT $LN11@buildWSCon
; Line 346
	jmp	$cleanup$71911
$LN11@buildWSCon:
; Line 348
	mov	eax, DWORD PTR _status$[ebp]
	mov	DWORD PTR [eax], 0
; Line 349
	mov	eax, DWORD PTR _spImpl$[ebp]
	mov	ecx, DWORD PTR [eax+12]
	mov	edx, DWORD PTR _spImpl$[ebp]
	mov	eax, DWORD PTR [edx+12]
	mov	edx, DWORD PTR [eax]
	mov	eax, DWORD PTR [ecx+12]
	mov	DWORD PTR [edx+52], eax
; Line 350
	mov	eax, DWORD PTR _spImpl$[ebp]
	mov	ecx, DWORD PTR [eax+12]
	mov	edx, DWORD PTR [ecx]
	mov	eax, DWORD PTR _size$72010[ebp]
	mov	DWORD PTR [edx+56], eax
; Line 351
	mov	eax, DWORD PTR _spImpl$[ebp]
	mov	ecx, DWORD PTR [eax+12]
	mov	edx, DWORD PTR _lowerCaseTrie$[ebp]
	mov	DWORD PTR [ecx+40], edx
; Line 352
	mov	eax, DWORD PTR _status$[ebp]
	push	eax
	mov	ecx, DWORD PTR _size$72010[ebp]
	push	ecx
	mov	edx, DWORD PTR _spImpl$[ebp]
	mov	ecx, DWORD PTR [edx+12]
	call	?reserveSpace@SpoofData@icu_56@@QAEPAXHAAW4UErrorCode@@@Z ; icu_56::SpoofData::reserveSpace
	mov	DWORD PTR _where$72013[ebp], eax
; Line 353
	mov	eax, DWORD PTR _status$[ebp]
	push	eax
	mov	ecx, DWORD PTR _size$72010[ebp]
	push	ecx
	mov	edx, DWORD PTR _where$72013[ebp]
	push	edx
	mov	eax, DWORD PTR _lowerCaseTrie$[ebp]
	push	eax
	call	_utrie2_serialize_56
	add	esp, 16					; 00000010H
; Line 355
	mov	eax, DWORD PTR _spImpl$[ebp]
	mov	ecx, DWORD PTR [eax+12]
	mov	edx, DWORD PTR _spImpl$[ebp]
	mov	eax, DWORD PTR [edx+12]
	mov	edx, DWORD PTR [eax]
	mov	eax, DWORD PTR [ecx+12]
	mov	DWORD PTR [edx+60], eax
; Line 356
	mov	eax, DWORD PTR _spImpl$[ebp]
	mov	ecx, DWORD PTR [eax+12]
	mov	edx, DWORD PTR [ecx]
	mov	eax, DWORD PTR _rtScriptSetsCount$[ebp]
	mov	DWORD PTR [edx+64], eax
; Line 358
	mov	eax, DWORD PTR _status$[ebp]
	push	eax
	mov	ecx, DWORD PTR _rtScriptSetsCount$[ebp]
	imul	ecx, 24					; 00000018H
	push	ecx
	mov	edx, DWORD PTR _spImpl$[ebp]
	mov	ecx, DWORD PTR [edx+12]
	call	?reserveSpace@SpoofData@icu_56@@QAEPAXHAAW4UErrorCode@@@Z ; icu_56::SpoofData::reserveSpace
	mov	DWORD PTR _rtScriptSets$72016[ebp], eax
; Line 359
	mov	DWORD PTR _rindex$72019[ebp], 2
; Line 360
	mov	DWORD PTR _i$72020[ebp], 2
	jmp	SHORT $LN9@buildWSCon
$LN8@buildWSCon:
	mov	eax, DWORD PTR _i$72020[ebp]
	add	eax, 1
	mov	DWORD PTR _i$72020[ebp], eax
$LN9@buildWSCon:
	mov	esi, esp
	mov	ecx, DWORD PTR _scriptSets$[ebp]
	call	DWORD PTR __imp_?size@UVector@icu_56@@QBEHXZ
	cmp	esi, esp
	call	__RTC_CheckEsp
	cmp	DWORD PTR _i$72020[ebp], eax
	jge	$LN7@buildWSCon
; Line 361
	mov	esi, esp
	mov	eax, DWORD PTR _i$72020[ebp]
	push	eax
	mov	ecx, DWORD PTR _scriptSets$[ebp]
	call	DWORD PTR __imp_?elementAt@UVector@icu_56@@QBEPAXH@Z
	cmp	esi, esp
	call	__RTC_CheckEsp
	mov	DWORD PTR _bSet$72024[ebp], eax
; Line 362
	mov	eax, DWORD PTR _bSet$72024[ebp]
	mov	ecx, DWORD PTR [eax+16]
	cmp	ecx, DWORD PTR _rindex$72019[ebp]
	jae	SHORT $LN6@buildWSCon
; Line 364
	jmp	SHORT $LN8@buildWSCon
$LN6@buildWSCon:
; Line 366
	mov	eax, DWORD PTR _bSet$72024[ebp]
	mov	ecx, DWORD PTR _rindex$72019[ebp]
	cmp	ecx, DWORD PTR [eax+16]
	je	SHORT $LN75@buildWSCon
	mov	edx, DWORD PTR ?__LINE__Var@?1??buildWSConfusableData@icu_56@@YAXPAVSpoofImpl@2@PBDHPAUUParseError@@AAW4UErrorCode@@@Z@4JA
	add	edx, 263				; 00000107H
	mov	esi, esp
	push	edx
	push	OFFSET ??_C@_1GE@KAFFAGGI@?$AAd?$AA?3?$AA?2?$AAm?$AAo?$AAz?$AAi?$AAl?$AAl?$AAa?$AA?2?$AAi?$AAn?$AAt?$AAl?$AA?2?$AAi?$AAc?$AAu?$AA?2?$AAs?$AAo?$AAu?$AAr?$AAc?$AAe?$AA?2?$AAi?$AA1?$AA8?$AAn?$AA?2@
	push	OFFSET ??_C@_1CO@PIOHMELD@?$AAr?$AAi?$AAn?$AAd?$AAe?$AAx?$AA?5?$AA?$DN?$AA?$DN?$AA?5?$AAb?$AAS?$AAe?$AAt?$AA?9?$AA?$DO?$AAr?$AAi?$AAn?$AAd?$AAe?$AAx?$AA?$AA@
	call	DWORD PTR __imp___wassert
	add	esp, 12					; 0000000cH
	cmp	esi, esp
	call	__RTC_CheckEsp
$LN75@buildWSCon:
; Line 367
	mov	eax, DWORD PTR _bSet$72024[ebp]
	mov	ecx, DWORD PTR [eax+8]
	push	ecx
	mov	ecx, DWORD PTR _rindex$72019[ebp]
	imul	ecx, 24					; 00000018H
	add	ecx, DWORD PTR _rtScriptSets$72016[ebp]
	call	??4ScriptSet@icu_56@@QAEAAV01@ABV01@@Z	; icu_56::ScriptSet::operator=
; Line 368
	mov	eax, DWORD PTR _rindex$72019[ebp]
	add	eax, 1
	mov	DWORD PTR _rindex$72019[ebp], eax
; Line 369
	jmp	$LN8@buildWSCon
$LN7@buildWSCon:
; Line 384
	mov	eax, DWORD PTR _status$[ebp]
	push	eax
	push	0
	mov	ecx, DWORD PTR _spImpl$[ebp]
	mov	edx, DWORD PTR [ecx+12]
	mov	eax, DWORD PTR [edx]
	mov	ecx, DWORD PTR [eax+48]
	push	ecx
	mov	edx, DWORD PTR _spImpl$[ebp]
	mov	eax, DWORD PTR [edx+12]
	mov	ecx, DWORD PTR _spImpl$[ebp]
	mov	edx, DWORD PTR [ecx+12]
	mov	ecx, DWORD PTR [edx]
	mov	edx, DWORD PTR [eax]
	add	edx, DWORD PTR [ecx+44]
	push	edx
	push	0
	call	_utrie2_openFromSerialized_56
	add	esp, 20					; 00000014H
	mov	ecx, DWORD PTR _spImpl$[ebp]
	mov	edx, DWORD PTR [ecx+12]
	mov	DWORD PTR [edx+36], eax
; Line 391
	mov	eax, DWORD PTR _status$[ebp]
	push	eax
	push	0
	mov	ecx, DWORD PTR _spImpl$[ebp]
	mov	edx, DWORD PTR [ecx+12]
	mov	eax, DWORD PTR [edx]
	mov	ecx, DWORD PTR [eax+48]
	push	ecx
	mov	edx, DWORD PTR _spImpl$[ebp]
	mov	eax, DWORD PTR [edx+12]
	mov	ecx, DWORD PTR _spImpl$[ebp]
	mov	edx, DWORD PTR [ecx+12]
	mov	ecx, DWORD PTR [edx]
	mov	edx, DWORD PTR [eax]
	add	edx, DWORD PTR [ecx+52]
	push	edx
	push	0
	call	_utrie2_openFromSerialized_56
	add	esp, 20					; 00000014H
	mov	ecx, DWORD PTR _spImpl$[ebp]
	mov	edx, DWORD PTR [ecx+12]
	mov	DWORD PTR [edx+40], eax
$cleanup$71911:
; Line 396
	mov	eax, DWORD PTR _status$[ebp]
	mov	ecx, DWORD PTR [eax]
	push	ecx
	call	?U_FAILURE@@YACW4UErrorCode@@@Z		; U_FAILURE
	add	esp, 4
	movsx	edx, al
	test	edx, edx
	je	SHORT $LN5@buildWSCon
; Line 397
	mov	eax, DWORD PTR _pe$[ebp]
	mov	ecx, DWORD PTR _lineNum$[ebp]
	mov	DWORD PTR [eax], ecx
$LN5@buildWSCon:
; Line 399
	mov	eax, DWORD PTR _parseRegexp$[ebp]
	push	eax
	call	_uregex_close_56
	add	esp, 4
; Line 400
	mov	eax, DWORD PTR _input$[ebp]
	push	eax
	call	_uprv_free_56
	add	esp, 4
; Line 403
	cmp	DWORD PTR _scriptSets$[ebp], 0
	je	$LN4@buildWSCon
; Line 404
	mov	DWORD PTR _i$[ebp], 0
	jmp	SHORT $LN3@buildWSCon
$LN2@buildWSCon:
	mov	eax, DWORD PTR _i$[ebp]
	add	eax, 1
	mov	DWORD PTR _i$[ebp], eax
$LN3@buildWSCon:
	mov	esi, esp
	mov	ecx, DWORD PTR _scriptSets$[ebp]
	call	DWORD PTR __imp_?size@UVector@icu_56@@QBEHXZ
	cmp	esi, esp
	call	__RTC_CheckEsp
	cmp	DWORD PTR _i$[ebp], eax
	jge	SHORT $LN1@buildWSCon
; Line 405
	mov	esi, esp
	mov	eax, DWORD PTR _i$[ebp]
	push	eax
	mov	ecx, DWORD PTR _scriptSets$[ebp]
	call	DWORD PTR __imp_?elementAt@UVector@icu_56@@QBEPAXH@Z
	cmp	esi, esp
	call	__RTC_CheckEsp
	mov	DWORD PTR _bsset$72037[ebp], eax
; Line 406
	mov	eax, DWORD PTR _bsset$72037[ebp]
	mov	DWORD PTR $T78781[ebp], eax
	mov	ecx, DWORD PTR $T78781[ebp]
	mov	DWORD PTR $T78780[ebp], ecx
	cmp	DWORD PTR $T78780[ebp], 0
	je	SHORT $LN76@buildWSCon
	push	1
	mov	ecx, DWORD PTR $T78780[ebp]
	call	??_GBuilderScriptSet@icu_56@@QAEPAXI@Z
	mov	DWORD PTR tv575[ebp], eax
	jmp	SHORT $LN77@buildWSCon
$LN76@buildWSCon:
	mov	DWORD PTR tv575[ebp], 0
$LN77@buildWSCon:
; Line 407
	jmp	$LN2@buildWSCon
$LN1@buildWSCon:
; Line 408
	mov	eax, DWORD PTR _scriptSets$[ebp]
	mov	DWORD PTR $T78785[ebp], eax
	mov	ecx, DWORD PTR $T78785[ebp]
	mov	DWORD PTR $T78784[ebp], ecx
	cmp	DWORD PTR $T78784[ebp], 0
	je	SHORT $LN78@buildWSCon
	mov	esi, esp
	push	1
	mov	edx, DWORD PTR $T78784[ebp]
	mov	eax, DWORD PTR [edx]
	mov	ecx, DWORD PTR $T78784[ebp]
	mov	edx, DWORD PTR [eax]
	call	edx
	cmp	esi, esp
	call	__RTC_CheckEsp
	mov	DWORD PTR tv586[ebp], eax
	jmp	SHORT $LN4@buildWSCon
$LN78@buildWSCon:
	mov	DWORD PTR tv586[ebp], 0
$LN4@buildWSCon:
; Line 410
	mov	eax, DWORD PTR _anyCaseTrie$[ebp]
	push	eax
	call	_utrie2_close_56
	add	esp, 4
; Line 411
	mov	eax, DWORD PTR _lowerCaseTrie$[ebp]
	push	eax
	call	_utrie2_close_56
	add	esp, 4
; Line 412
	mov	DWORD PTR __$EHRec$[ebp+8], -1
	mov	esi, esp
	lea	ecx, DWORD PTR _pattern$[ebp]
	call	DWORD PTR __imp_??1UnicodeString@icu_56@@UAE@XZ
	cmp	esi, esp
	call	__RTC_CheckEsp
$LN64@buildWSCon:
; Line 413
	push	edx
	mov	ecx, ebp
	push	eax
	lea	edx, DWORD PTR $LN95@buildWSCon
	call	@_RTC_CheckStackVars@8
	pop	eax
	pop	edx
	mov	ecx, DWORD PTR __$EHRec$[ebp]
	mov	DWORD PTR fs:0, ecx
	pop	ecx
	pop	edi
	pop	esi
	pop	ebx
	mov	ecx, DWORD PTR __$ArrayPad$[ebp]
	xor	ecx, ebp
	call	@__security_check_cookie@4
	add	esp, 1024				; 00000400H
	cmp	ebp, esp
	call	__RTC_CheckEsp
	mov	esp, ebp
	pop	ebp
	ret	0
$LN95@buildWSCon:
	DD	6
	DD	$LN94@buildWSCon
$LN94@buildWSCon:
	DD	-36					; ffffffdcH
	DD	4
	DD	$LN87@buildWSCon
	DD	-180					; ffffff4cH
	DD	64					; 00000040H
	DD	$LN88@buildWSCon
	DD	-232					; ffffff18H
	DD	20					; 00000014H
	DD	$LN89@buildWSCon
	DD	-260					; fffffefcH
	DD	20					; 00000014H
	DD	$LN90@buildWSCon
	DD	-488					; fffffe18H
	DD	52					; 00000034H
	DD	$LN91@buildWSCon
	DD	-548					; fffffddcH
	DD	52					; 00000034H
	DD	$LN92@buildWSCon
$LN92@buildWSCon:
	DB	105					; 00000069H
	DB	110					; 0000006eH
	DB	104					; 00000068H
	DB	101					; 00000065H
	DB	114					; 00000072H
	DB	105					; 00000069H
	DB	116					; 00000074H
	DB	101					; 00000065H
	DB	100					; 00000064H
	DB	83					; 00000053H
	DB	101					; 00000065H
	DB	116					; 00000074H
	DB	0
$LN91@buildWSCon:
	DB	105					; 00000069H
	DB	103					; 00000067H
	DB	110					; 0000006eH
	DB	111					; 0000006fH
	DB	114					; 00000072H
	DB	101					; 00000065H
	DB	83					; 00000053H
	DB	101					; 00000065H
	DB	116					; 00000074H
	DB	0
$LN90@buildWSCon:
	DB	116					; 00000074H
	DB	97					; 00000061H
	DB	114					; 00000072H
	DB	103					; 00000067H
	DB	83					; 00000053H
	DB	99					; 00000063H
	DB	114					; 00000072H
	DB	105					; 00000069H
	DB	112					; 00000070H
	DB	116					; 00000074H
	DB	78					; 0000004eH
	DB	97					; 00000061H
	DB	109					; 0000006dH
	DB	101					; 00000065H
	DB	0
$LN89@buildWSCon:
	DB	115					; 00000073H
	DB	114					; 00000072H
	DB	99					; 00000063H
	DB	83					; 00000053H
	DB	99					; 00000063H
	DB	114					; 00000072H
	DB	105					; 00000069H
	DB	112					; 00000070H
	DB	116					; 00000074H
	DB	78					; 0000004eH
	DB	97					; 00000061H
	DB	109					; 0000006dH
	DB	101					; 00000065H
	DB	0
$LN88@buildWSCon:
	DB	112					; 00000070H
	DB	97					; 00000061H
	DB	116					; 00000074H
	DB	116					; 00000074H
	DB	101					; 00000065H
	DB	114					; 00000072H
	DB	110					; 0000006eH
	DB	0
$LN87@buildWSCon:
	DB	105					; 00000069H
	DB	110					; 0000006eH
	DB	112					; 00000070H
	DB	117					; 00000075H
	DB	116					; 00000074H
	DB	76					; 0000004cH
	DB	101					; 00000065H
	DB	110					; 0000006eH
	DB	0
_TEXT	ENDS
;	COMDAT text$x
text$x	SEGMENT
__unwindfunclet$?buildWSConfusableData@icu_56@@YAXPAVSpoofImpl@1@PBDHPAUUParseError@@AAW4UErrorCode@@@Z$13:
	mov	esi, esp
	lea	ecx, DWORD PTR _pattern$[ebp]
	call	DWORD PTR __imp_??1UnicodeString@icu_56@@UAE@XZ
	cmp	esi, esp
	jmp	__RTC_CheckEsp
__unwindfunclet$?buildWSConfusableData@icu_56@@YAXPAVSpoofImpl@1@PBDHPAUUParseError@@AAW4UErrorCode@@@Z$14:
	mov	esi, esp
	mov	eax, DWORD PTR $T78763[ebp]
	push	eax
	call	DWORD PTR __imp_??3UMemory@icu_56@@SAXPAX@Z
	add	esp, 4
	cmp	esi, esp
	jmp	__RTC_CheckEsp
__unwindfunclet$?buildWSConfusableData@icu_56@@YAXPAVSpoofImpl@1@PBDHPAUUParseError@@AAW4UErrorCode@@@Z$15:
	mov	esi, esp
	mov	eax, DWORD PTR $T78768[ebp]
	push	eax
	call	DWORD PTR __imp_??3UMemory@icu_56@@SAXPAX@Z
	add	esp, 4
	cmp	esi, esp
	jmp	__RTC_CheckEsp
__unwindfunclet$?buildWSConfusableData@icu_56@@YAXPAVSpoofImpl@1@PBDHPAUUParseError@@AAW4UErrorCode@@@Z$16:
	mov	esi, esp
	mov	eax, DWORD PTR $T78772[ebp]
	push	eax
	call	DWORD PTR __imp_??3UMemory@icu_56@@SAXPAX@Z
	add	esp, 4
	cmp	esi, esp
	jmp	__RTC_CheckEsp
__unwindfunclet$?buildWSConfusableData@icu_56@@YAXPAVSpoofImpl@1@PBDHPAUUParseError@@AAW4UErrorCode@@@Z$17:
	mov	esi, esp
	lea	ecx, DWORD PTR _ignoreSet$72002[ebp]
	call	DWORD PTR __imp_??1UnicodeSet@icu_56@@UAE@XZ
	cmp	esi, esp
	jmp	__RTC_CheckEsp
__unwindfunclet$?buildWSConfusableData@icu_56@@YAXPAVSpoofImpl@1@PBDHPAUUParseError@@AAW4UErrorCode@@@Z$18:
	mov	esi, esp
	lea	ecx, DWORD PTR _inheritedSet$72003[ebp]
	call	DWORD PTR __imp_??1UnicodeSet@icu_56@@UAE@XZ
	cmp	esi, esp
	jmp	__RTC_CheckEsp
__ehhandler$?buildWSConfusableData@icu_56@@YAXPAVSpoofImpl@1@PBDHPAUUParseError@@AAW4UErrorCode@@@Z:
	mov	edx, DWORD PTR [esp+8]
	lea	eax, DWORD PTR [edx+12]
	mov	ecx, DWORD PTR [edx-1028]
	xor	ecx, eax
	call	@__security_check_cookie@4
	mov	ecx, DWORD PTR [edx-4]
	xor	ecx, eax
	call	@__security_check_cookie@4
	mov	eax, OFFSET __ehfuncinfo$?buildWSConfusableData@icu_56@@YAXPAVSpoofImpl@1@PBDHPAUUParseError@@AAW4UErrorCode@@@Z
	jmp	___CxxFrameHandler3
text$x	ENDS
?buildWSConfusableData@icu_56@@YAXPAVSpoofImpl@1@PBDHPAUUParseError@@AAW4UErrorCode@@@Z ENDP ; icu_56::buildWSConfusableData
; Function compile flags: /Odtp /RTCsu /ZI
;	COMDAT ?U_FAILURE@@YACW4UErrorCode@@@Z
_TEXT	SEGMENT
_code$ = 8						; size = 4
?U_FAILURE@@YACW4UErrorCode@@@Z PROC			; U_FAILURE, COMDAT
; File d:\mozilla\intl\icu\include\unicode\utypes.h
; Line 705
	push	ebp
	mov	ebp, esp
	sub	esp, 192				; 000000c0H
	push	ebx
	push	esi
	push	edi
	lea	edi, DWORD PTR [ebp-192]
	mov	ecx, 48					; 00000030H
	mov	eax, -858993460				; ccccccccH
	rep stosd
	cmp	DWORD PTR _code$[ebp], 0
	setg	al
	pop	edi
	pop	esi
	pop	ebx
	mov	esp, ebp
	pop	ebp
	ret	0
?U_FAILURE@@YACW4UErrorCode@@@Z ENDP			; U_FAILURE
_TEXT	ENDS
PUBLIC	__$ArrayPad$
EXTRN	__imp_?extract@UnicodeString@icu_56@@QBEHHHPADHW4EInvariant@12@@Z:PROC
EXTRN	__imp_??0UnicodeString@icu_56@@QAE@CPB_WH@Z:PROC
EXTRN	_uregex_group_56:PROC
;	COMDAT xdata$x
; File d:\mozilla\intl\icu\source\i18n\uspoof_wsconf.cpp
xdata$x	SEGMENT
__unwindtable$?extractGroup@@YAXPAUURegularExpression@@HPADHAAW4UErrorCode@@@Z DD 0ffffffffH
	DD	FLAT:__unwindfunclet$?extractGroup@@YAXPAUURegularExpression@@HPADHAAW4UErrorCode@@@Z$0
__ehfuncinfo$?extractGroup@@YAXPAUURegularExpression@@HPADHAAW4UErrorCode@@@Z DD 019930522H
	DD	01H
	DD	FLAT:__unwindtable$?extractGroup@@YAXPAUURegularExpression@@HPADHAAW4UErrorCode@@@Z
	DD	2 DUP(00H)
	DD	2 DUP(00H)
	DD	00H
	DD	01H
; Function compile flags: /Odtp /RTCsu /ZI
xdata$x	ENDS
;	COMDAT ?extractGroup@@YAXPAUURegularExpression@@HPADHAAW4UErrorCode@@@Z
_TEXT	SEGMENT
_s$ = -204						; size = 64
_len$ = -132						; size = 4
_ubuf$ = -120						; size = 100
__$ArrayPad$ = -16					; size = 4
__$EHRec$ = -12						; size = 12
_e$ = 8							; size = 4
_group$ = 12						; size = 4
_destBuf$ = 16						; size = 4
_destCapacity$ = 20					; size = 4
_status$ = 24						; size = 4
?extractGroup@@YAXPAUURegularExpression@@HPADHAAW4UErrorCode@@@Z PROC ; extractGroup, COMDAT
; Line 76
	push	ebp
	mov	ebp, esp
	push	-1
	push	__ehhandler$?extractGroup@@YAXPAUURegularExpression@@HPADHAAW4UErrorCode@@@Z
	mov	eax, DWORD PTR fs:0
	push	eax
	sub	esp, 388				; 00000184H
	push	ebx
	push	esi
	push	edi
	lea	edi, DWORD PTR [ebp-400]
	mov	ecx, 97					; 00000061H
	mov	eax, -858993460				; ccccccccH
	rep stosd
	mov	eax, DWORD PTR ___security_cookie
	xor	eax, ebp
	mov	DWORD PTR __$ArrayPad$[ebp], eax
	push	eax
	lea	eax, DWORD PTR __$EHRec$[ebp]
	mov	DWORD PTR fs:0, eax
; Line 79
	xor	eax, eax
	mov	WORD PTR _ubuf$[ebp], ax
; Line 80
	mov	eax, DWORD PTR _destBuf$[ebp]
	mov	BYTE PTR [eax], 0
; Line 81
	mov	eax, DWORD PTR _status$[ebp]
	push	eax
	push	50					; 00000032H
	lea	ecx, DWORD PTR _ubuf$[ebp]
	push	ecx
	mov	edx, DWORD PTR _group$[ebp]
	push	edx
	mov	eax, DWORD PTR _e$[ebp]
	push	eax
	call	_uregex_group_56
	add	esp, 20					; 00000014H
	mov	DWORD PTR _len$[ebp], eax
; Line 82
	mov	eax, DWORD PTR _status$[ebp]
	mov	ecx, DWORD PTR [eax]
	push	ecx
	call	?U_FAILURE@@YACW4UErrorCode@@@Z		; U_FAILURE
	add	esp, 4
	movsx	edx, al
	test	edx, edx
	jne	SHORT $LN1@extractGro
	cmp	DWORD PTR _len$[ebp], -1
	je	SHORT $LN1@extractGro
	mov	eax, DWORD PTR _len$[ebp]
	cmp	eax, DWORD PTR _destCapacity$[ebp]
	jl	SHORT $LN2@extractGro
$LN1@extractGro:
; Line 83
	jmp	SHORT $LN3@extractGro
$LN2@extractGro:
; Line 85
	mov	esi, esp
	mov	eax, DWORD PTR _len$[ebp]
	push	eax
	lea	ecx, DWORD PTR _ubuf$[ebp]
	push	ecx
	push	0
	lea	ecx, DWORD PTR _s$[ebp]
	call	DWORD PTR __imp_??0UnicodeString@icu_56@@QAE@CPB_WH@Z
	cmp	esi, esp
	call	__RTC_CheckEsp
	mov	DWORD PTR __$EHRec$[ebp+8], 0
; Line 86
	mov	esi, esp
	push	0
	mov	eax, DWORD PTR _destCapacity$[ebp]
	push	eax
	mov	ecx, DWORD PTR _destBuf$[ebp]
	push	ecx
	mov	edx, DWORD PTR _len$[ebp]
	push	edx
	push	0
	lea	ecx, DWORD PTR _s$[ebp]
	call	DWORD PTR __imp_?extract@UnicodeString@icu_56@@QBEHHHPADHW4EInvariant@12@@Z
	cmp	esi, esp
	call	__RTC_CheckEsp
; Line 87
	mov	DWORD PTR __$EHRec$[ebp+8], -1
	mov	esi, esp
	lea	ecx, DWORD PTR _s$[ebp]
	call	DWORD PTR __imp_??1UnicodeString@icu_56@@UAE@XZ
	cmp	esi, esp
	call	__RTC_CheckEsp
$LN3@extractGro:
	push	edx
	mov	ecx, ebp
	push	eax
	lea	edx, DWORD PTR $LN10@extractGro
	call	@_RTC_CheckStackVars@8
	pop	eax
	pop	edx
	mov	ecx, DWORD PTR __$EHRec$[ebp]
	mov	DWORD PTR fs:0, ecx
	pop	ecx
	pop	edi
	pop	esi
	pop	ebx
	mov	ecx, DWORD PTR __$ArrayPad$[ebp]
	xor	ecx, ebp
	call	@__security_check_cookie@4
	add	esp, 400				; 00000190H
	cmp	ebp, esp
	call	__RTC_CheckEsp
	mov	esp, ebp
	pop	ebp
	ret	0
	npad	2
$LN10@extractGro:
	DD	2
	DD	$LN9@extractGro
$LN9@extractGro:
	DD	-120					; ffffff88H
	DD	100					; 00000064H
	DD	$LN6@extractGro
	DD	-204					; ffffff34H
	DD	64					; 00000040H
	DD	$LN7@extractGro
$LN7@extractGro:
	DB	115					; 00000073H
	DB	0
$LN6@extractGro:
	DB	117					; 00000075H
	DB	98					; 00000062H
	DB	117					; 00000075H
	DB	102					; 00000066H
	DB	0
_TEXT	ENDS
;	COMDAT text$x
text$x	SEGMENT
__unwindfunclet$?extractGroup@@YAXPAUURegularExpression@@HPADHAAW4UErrorCode@@@Z$0:
	mov	esi, esp
	lea	ecx, DWORD PTR _s$[ebp]
	call	DWORD PTR __imp_??1UnicodeString@icu_56@@UAE@XZ
	cmp	esi, esp
	jmp	__RTC_CheckEsp
__ehhandler$?extractGroup@@YAXPAUURegularExpression@@HPADHAAW4UErrorCode@@@Z:
	mov	edx, DWORD PTR [esp+8]
	lea	eax, DWORD PTR [edx+12]
	mov	ecx, DWORD PTR [edx-404]
	xor	ecx, eax
	call	@__security_check_cookie@4
	mov	ecx, DWORD PTR [edx-4]
	xor	ecx, eax
	call	@__security_check_cookie@4
	mov	eax, OFFSET __ehfuncinfo$?extractGroup@@YAXPAUURegularExpression@@HPADHAAW4UErrorCode@@@Z
	jmp	___CxxFrameHandler3
text$x	ENDS
?extractGroup@@YAXPAUURegularExpression@@HPADHAAW4UErrorCode@@@Z ENDP ; extractGroup
EXTRN	__imp_??1UVector@icu_56@@UAE@XZ:PROC
; Function compile flags: /Odtp /RTCsu /ZI
;	COMDAT ??_GUVector@icu_56@@UAEPAXI@Z
_TEXT	SEGMENT
_this$ = -8						; size = 4
___flags$ = 8						; size = 4
??_GUVector@icu_56@@UAEPAXI@Z PROC			; icu_56::UVector::`scalar deleting destructor', COMDAT
; _this$ = ecx
	push	ebp
	mov	ebp, esp
	sub	esp, 204				; 000000ccH
	push	ebx
	push	esi
	push	edi
	push	ecx
	lea	edi, DWORD PTR [ebp-204]
	mov	ecx, 51					; 00000033H
	mov	eax, -858993460				; ccccccccH
	rep stosd
	pop	ecx
	mov	DWORD PTR _this$[ebp], ecx
	mov	esi, esp
	mov	ecx, DWORD PTR _this$[ebp]
	call	DWORD PTR __imp_??1UVector@icu_56@@UAE@XZ
	cmp	esi, esp
	call	__RTC_CheckEsp
	mov	eax, DWORD PTR ___flags$[ebp]
	and	eax, 1
	je	SHORT $LN1@scalar
	mov	esi, esp
	mov	eax, DWORD PTR _this$[ebp]
	push	eax
	call	DWORD PTR __imp_??3UMemory@icu_56@@SAXPAX@Z
	add	esp, 4
	cmp	esi, esp
	call	__RTC_CheckEsp
$LN1@scalar:
	mov	eax, DWORD PTR _this$[ebp]
	pop	edi
	pop	esi
	pop	ebx
	add	esp, 204				; 000000ccH
	cmp	ebp, esp
	call	__RTC_CheckEsp
	mov	esp, ebp
	pop	ebp
	ret	4
??_GUVector@icu_56@@UAEPAXI@Z ENDP			; icu_56::UVector::`scalar deleting destructor'
_TEXT	ENDS
EXTRN	??1ScriptSet@icu_56@@QAE@XZ:PROC		; icu_56::ScriptSet::~ScriptSet
; Function compile flags: /Odtp /RTCsu /ZI
;	COMDAT ??_GScriptSet@icu_56@@QAEPAXI@Z
_TEXT	SEGMENT
_this$ = -8						; size = 4
___flags$ = 8						; size = 4
??_GScriptSet@icu_56@@QAEPAXI@Z PROC			; icu_56::ScriptSet::`scalar deleting destructor', COMDAT
; _this$ = ecx
	push	ebp
	mov	ebp, esp
	sub	esp, 204				; 000000ccH
	push	ebx
	push	esi
	push	edi
	push	ecx
	lea	edi, DWORD PTR [ebp-204]
	mov	ecx, 51					; 00000033H
	mov	eax, -858993460				; ccccccccH
	rep stosd
	pop	ecx
	mov	DWORD PTR _this$[ebp], ecx
	mov	ecx, DWORD PTR _this$[ebp]
	call	??1ScriptSet@icu_56@@QAE@XZ		; icu_56::ScriptSet::~ScriptSet
	mov	eax, DWORD PTR ___flags$[ebp]
	and	eax, 1
	je	SHORT $LN1@scalar@2
	mov	esi, esp
	mov	eax, DWORD PTR _this$[ebp]
	push	eax
	call	DWORD PTR __imp_??3UMemory@icu_56@@SAXPAX@Z
	add	esp, 4
	cmp	esi, esp
	call	__RTC_CheckEsp
$LN1@scalar@2:
	mov	eax, DWORD PTR _this$[ebp]
	pop	edi
	pop	esi
	pop	ebx
	add	esp, 204				; 000000ccH
	cmp	ebp, esp
	call	__RTC_CheckEsp
	mov	esp, ebp
	pop	ebp
	ret	4
??_GScriptSet@icu_56@@QAEPAXI@Z ENDP			; icu_56::ScriptSet::`scalar deleting destructor'
_TEXT	ENDS
PUBLIC	??1BuilderScriptSet@icu_56@@QAE@XZ		; icu_56::BuilderScriptSet::~BuilderScriptSet
; Function compile flags: /Odtp /RTCsu /ZI
;	COMDAT ??_GBuilderScriptSet@icu_56@@QAEPAXI@Z
_TEXT	SEGMENT
_this$ = -8						; size = 4
___flags$ = 8						; size = 4
??_GBuilderScriptSet@icu_56@@QAEPAXI@Z PROC		; icu_56::BuilderScriptSet::`scalar deleting destructor', COMDAT
; _this$ = ecx
	push	ebp
	mov	ebp, esp
	sub	esp, 204				; 000000ccH
	push	ebx
	push	esi
	push	edi
	push	ecx
	lea	edi, DWORD PTR [ebp-204]
	mov	ecx, 51					; 00000033H
	mov	eax, -858993460				; ccccccccH
	rep stosd
	pop	ecx
	mov	DWORD PTR _this$[ebp], ecx
	mov	ecx, DWORD PTR _this$[ebp]
	call	??1BuilderScriptSet@icu_56@@QAE@XZ	; icu_56::BuilderScriptSet::~BuilderScriptSet
	mov	eax, DWORD PTR ___flags$[ebp]
	and	eax, 1
	je	SHORT $LN1@scalar@3
	mov	esi, esp
	mov	eax, DWORD PTR _this$[ebp]
	push	eax
	call	DWORD PTR __imp_??3UMemory@icu_56@@SAXPAX@Z
	add	esp, 4
	cmp	esi, esp
	call	__RTC_CheckEsp
$LN1@scalar@3:
	mov	eax, DWORD PTR _this$[ebp]
	pop	edi
	pop	esi
	pop	ebx
	add	esp, 204				; 000000ccH
	cmp	ebp, esp
	call	__RTC_CheckEsp
	mov	esp, ebp
	pop	ebp
	ret	4
??_GBuilderScriptSet@icu_56@@QAEPAXI@Z ENDP		; icu_56::BuilderScriptSet::`scalar deleting destructor'
; Function compile flags: /Odtp /RTCsu /ZI
_TEXT	ENDS
;	COMDAT ??0BuilderScriptSet@icu_56@@QAE@XZ
_TEXT	SEGMENT
_this$ = -8						; size = 4
??0BuilderScriptSet@icu_56@@QAE@XZ PROC			; icu_56::BuilderScriptSet::BuilderScriptSet, COMDAT
; _this$ = ecx
; Line 419
	push	ebp
	mov	ebp, esp
	sub	esp, 204				; 000000ccH
	push	ebx
	push	esi
	push	edi
	push	ecx
	lea	edi, DWORD PTR [ebp-204]
	mov	ecx, 51					; 00000033H
	mov	eax, -858993460				; ccccccccH
	rep stosd
	pop	ecx
	mov	DWORD PTR _this$[ebp], ecx
; Line 420
	mov	eax, DWORD PTR _this$[ebp]
	mov	DWORD PTR [eax], -1
; Line 421
	mov	eax, DWORD PTR _this$[ebp]
	mov	DWORD PTR [eax+4], 0
; Line 422
	mov	eax, DWORD PTR _this$[ebp]
	mov	DWORD PTR [eax+8], 0
; Line 423
	mov	eax, DWORD PTR _this$[ebp]
	mov	DWORD PTR [eax+12], 0
; Line 424
	mov	eax, DWORD PTR _this$[ebp]
	mov	DWORD PTR [eax+16], 0
; Line 425
	mov	eax, DWORD PTR _this$[ebp]
	mov	BYTE PTR [eax+20], 1
; Line 426
	mov	eax, DWORD PTR _this$[ebp]
	pop	edi
	pop	esi
	pop	ebx
	mov	esp, ebp
	pop	ebp
	ret	0
??0BuilderScriptSet@icu_56@@QAE@XZ ENDP			; icu_56::BuilderScriptSet::BuilderScriptSet
; Function compile flags: /Odtp /RTCsu /ZI
_TEXT	ENDS
;	COMDAT ??1BuilderScriptSet@icu_56@@QAE@XZ
_TEXT	SEGMENT
tv72 = -232						; size = 4
$T78842 = -224						; size = 4
$T78843 = -212						; size = 4
_this$ = -8						; size = 4
??1BuilderScriptSet@icu_56@@QAE@XZ PROC			; icu_56::BuilderScriptSet::~BuilderScriptSet, COMDAT
; _this$ = ecx
; Line 428
	push	ebp
	mov	ebp, esp
	sub	esp, 232				; 000000e8H
	push	ebx
	push	esi
	push	edi
	push	ecx
	lea	edi, DWORD PTR [ebp-232]
	mov	ecx, 58					; 0000003aH
	mov	eax, -858993460				; ccccccccH
	rep stosd
	pop	ecx
	mov	DWORD PTR _this$[ebp], ecx
; Line 429
	mov	eax, DWORD PTR _this$[ebp]
	movsx	ecx, BYTE PTR [eax+20]
	test	ecx, ecx
	je	SHORT $LN2@BuilderScr
; Line 430
	mov	eax, DWORD PTR _this$[ebp]
	mov	ecx, DWORD PTR [eax+8]
	mov	DWORD PTR $T78843[ebp], ecx
	mov	edx, DWORD PTR $T78843[ebp]
	mov	DWORD PTR $T78842[ebp], edx
	cmp	DWORD PTR $T78842[ebp], 0
	je	SHORT $LN4@BuilderScr
	push	1
	mov	ecx, DWORD PTR $T78842[ebp]
	call	??_GScriptSet@icu_56@@QAEPAXI@Z
	mov	DWORD PTR tv72[ebp], eax
	jmp	SHORT $LN2@BuilderScr
$LN4@BuilderScr:
	mov	DWORD PTR tv72[ebp], 0
$LN2@BuilderScr:
; Line 432
	pop	edi
	pop	esi
	pop	ebx
	add	esp, 232				; 000000e8H
	cmp	ebp, esp
	call	__RTC_CheckEsp
	mov	esp, ebp
	pop	ebp
	ret	0
??1BuilderScriptSet@icu_56@@QAE@XZ ENDP			; icu_56::BuilderScriptSet::~BuilderScriptSet
_TEXT	ENDS
END
