; Listing generated by Microsoft (R) Optimizing Compiler Version 16.00.40219.01 

	TITLE	D:\mozilla\intl\icu\source\i18n\vzone.cpp
	.686P
	.XMM
	include listing.inc
	.model	flat

INCLUDELIB MSVCRTD
INCLUDELIB OLDNAMES

PUBLIC	?value@?$integral_constant@_N$0A@@tr1@std@@2_NB	; std::tr1::integral_constant<bool,0>::value
PUBLIC	?value@?$integral_constant@_N$00@tr1@std@@2_NB	; std::tr1::integral_constant<bool,1>::value
PUBLIC	?value@?$integral_constant@I$0A@@tr1@std@@2IB	; std::tr1::integral_constant<unsigned int,0>::value
PUBLIC	?_Rank@?$_Arithmetic_traits@_N@std@@2HB		; std::_Arithmetic_traits<bool>::_Rank
PUBLIC	?_Rank@?$_Arithmetic_traits@D@std@@2HB		; std::_Arithmetic_traits<char>::_Rank
PUBLIC	?_Rank@?$_Arithmetic_traits@C@std@@2HB		; std::_Arithmetic_traits<signed char>::_Rank
PUBLIC	?_Rank@?$_Arithmetic_traits@E@std@@2HB		; std::_Arithmetic_traits<unsigned char>::_Rank
PUBLIC	?_Rank@?$_Arithmetic_traits@F@std@@2HB		; std::_Arithmetic_traits<short>::_Rank
PUBLIC	?_Rank@?$_Arithmetic_traits@G@std@@2HB		; std::_Arithmetic_traits<unsigned short>::_Rank
PUBLIC	?_Rank@?$_Arithmetic_traits@H@std@@2HB		; std::_Arithmetic_traits<int>::_Rank
PUBLIC	?_Rank@?$_Arithmetic_traits@I@std@@2HB		; std::_Arithmetic_traits<unsigned int>::_Rank
PUBLIC	?_Rank@?$_Arithmetic_traits@J@std@@2HB		; std::_Arithmetic_traits<long>::_Rank
PUBLIC	?_Rank@?$_Arithmetic_traits@K@std@@2HB		; std::_Arithmetic_traits<unsigned long>::_Rank
PUBLIC	?_Rank@?$_Arithmetic_traits@_J@std@@2HB		; std::_Arithmetic_traits<__int64>::_Rank
PUBLIC	?_Rank@?$_Arithmetic_traits@_K@std@@2HB		; std::_Arithmetic_traits<unsigned __int64>::_Rank
PUBLIC	?_Rank@?$_Arithmetic_traits@M@std@@2HB		; std::_Arithmetic_traits<float>::_Rank
PUBLIC	?_Rank@?$_Arithmetic_traits@N@std@@2HB		; std::_Arithmetic_traits<double>::_Rank
PUBLIC	?_Rank@?$_Arithmetic_traits@O@std@@2HB		; std::_Arithmetic_traits<long double>::_Rank
PUBLIC	?collate@?$_Locbase@H@std@@2HB			; std::_Locbase<int>::collate
PUBLIC	?ctype@?$_Locbase@H@std@@2HB			; std::_Locbase<int>::ctype
PUBLIC	?monetary@?$_Locbase@H@std@@2HB			; std::_Locbase<int>::monetary
PUBLIC	?numeric@?$_Locbase@H@std@@2HB			; std::_Locbase<int>::numeric
PUBLIC	?time@?$_Locbase@H@std@@2HB			; std::_Locbase<int>::time
PUBLIC	?messages@?$_Locbase@H@std@@2HB			; std::_Locbase<int>::messages
PUBLIC	?all@?$_Locbase@H@std@@2HB			; std::_Locbase<int>::all
PUBLIC	?none@?$_Locbase@H@std@@2HB			; std::_Locbase<int>::none
PUBLIC	?skipws@?$_Iosb@H@std@@2W4_Fmtflags@12@B	; std::_Iosb<int>::skipws
PUBLIC	?unitbuf@?$_Iosb@H@std@@2W4_Fmtflags@12@B	; std::_Iosb<int>::unitbuf
PUBLIC	?uppercase@?$_Iosb@H@std@@2W4_Fmtflags@12@B	; std::_Iosb<int>::uppercase
PUBLIC	?showbase@?$_Iosb@H@std@@2W4_Fmtflags@12@B	; std::_Iosb<int>::showbase
PUBLIC	?showpoint@?$_Iosb@H@std@@2W4_Fmtflags@12@B	; std::_Iosb<int>::showpoint
PUBLIC	?showpos@?$_Iosb@H@std@@2W4_Fmtflags@12@B	; std::_Iosb<int>::showpos
PUBLIC	?left@?$_Iosb@H@std@@2W4_Fmtflags@12@B		; std::_Iosb<int>::left
PUBLIC	?right@?$_Iosb@H@std@@2W4_Fmtflags@12@B		; std::_Iosb<int>::right
PUBLIC	?internal@?$_Iosb@H@std@@2W4_Fmtflags@12@B	; std::_Iosb<int>::internal
PUBLIC	?dec@?$_Iosb@H@std@@2W4_Fmtflags@12@B		; std::_Iosb<int>::dec
PUBLIC	?oct@?$_Iosb@H@std@@2W4_Fmtflags@12@B		; std::_Iosb<int>::oct
PUBLIC	?hex@?$_Iosb@H@std@@2W4_Fmtflags@12@B		; std::_Iosb<int>::hex
PUBLIC	?scientific@?$_Iosb@H@std@@2W4_Fmtflags@12@B	; std::_Iosb<int>::scientific
PUBLIC	?fixed@?$_Iosb@H@std@@2W4_Fmtflags@12@B		; std::_Iosb<int>::fixed
PUBLIC	?hexfloat@?$_Iosb@H@std@@2W4_Fmtflags@12@B	; std::_Iosb<int>::hexfloat
PUBLIC	?boolalpha@?$_Iosb@H@std@@2W4_Fmtflags@12@B	; std::_Iosb<int>::boolalpha
PUBLIC	?_Stdio@?$_Iosb@H@std@@2W4_Fmtflags@12@B	; std::_Iosb<int>::_Stdio
PUBLIC	?adjustfield@?$_Iosb@H@std@@2W4_Fmtflags@12@B	; std::_Iosb<int>::adjustfield
PUBLIC	?basefield@?$_Iosb@H@std@@2W4_Fmtflags@12@B	; std::_Iosb<int>::basefield
PUBLIC	?floatfield@?$_Iosb@H@std@@2W4_Fmtflags@12@B	; std::_Iosb<int>::floatfield
PUBLIC	?goodbit@?$_Iosb@H@std@@2W4_Iostate@12@B	; std::_Iosb<int>::goodbit
PUBLIC	?eofbit@?$_Iosb@H@std@@2W4_Iostate@12@B		; std::_Iosb<int>::eofbit
PUBLIC	?failbit@?$_Iosb@H@std@@2W4_Iostate@12@B	; std::_Iosb<int>::failbit
PUBLIC	?badbit@?$_Iosb@H@std@@2W4_Iostate@12@B		; std::_Iosb<int>::badbit
PUBLIC	?_Hardfail@?$_Iosb@H@std@@2W4_Iostate@12@B	; std::_Iosb<int>::_Hardfail
PUBLIC	?in@?$_Iosb@H@std@@2W4_Openmode@12@B		; std::_Iosb<int>::in
PUBLIC	?out@?$_Iosb@H@std@@2W4_Openmode@12@B		; std::_Iosb<int>::out
PUBLIC	?ate@?$_Iosb@H@std@@2W4_Openmode@12@B		; std::_Iosb<int>::ate
PUBLIC	?app@?$_Iosb@H@std@@2W4_Openmode@12@B		; std::_Iosb<int>::app
PUBLIC	?trunc@?$_Iosb@H@std@@2W4_Openmode@12@B		; std::_Iosb<int>::trunc
PUBLIC	?_Nocreate@?$_Iosb@H@std@@2W4_Openmode@12@B	; std::_Iosb<int>::_Nocreate
PUBLIC	?_Noreplace@?$_Iosb@H@std@@2W4_Openmode@12@B	; std::_Iosb<int>::_Noreplace
PUBLIC	?binary@?$_Iosb@H@std@@2W4_Openmode@12@B	; std::_Iosb<int>::binary
PUBLIC	?beg@?$_Iosb@H@std@@2W4_Seekdir@12@B		; std::_Iosb<int>::beg
PUBLIC	?cur@?$_Iosb@H@std@@2W4_Seekdir@12@B		; std::_Iosb<int>::cur
PUBLIC	?end@?$_Iosb@H@std@@2W4_Seekdir@12@B		; std::_Iosb<int>::end
;	COMDAT ?end@?$_Iosb@H@std@@2W4_Seekdir@12@B
CONST	SEGMENT
?end@?$_Iosb@H@std@@2W4_Seekdir@12@B DD 02H		; std::_Iosb<int>::end
CONST	ENDS
;	COMDAT ?cur@?$_Iosb@H@std@@2W4_Seekdir@12@B
CONST	SEGMENT
?cur@?$_Iosb@H@std@@2W4_Seekdir@12@B DD 01H		; std::_Iosb<int>::cur
CONST	ENDS
;	COMDAT ?beg@?$_Iosb@H@std@@2W4_Seekdir@12@B
CONST	SEGMENT
?beg@?$_Iosb@H@std@@2W4_Seekdir@12@B DD 00H		; std::_Iosb<int>::beg
CONST	ENDS
;	COMDAT ?binary@?$_Iosb@H@std@@2W4_Openmode@12@B
CONST	SEGMENT
?binary@?$_Iosb@H@std@@2W4_Openmode@12@B DD 020H	; std::_Iosb<int>::binary
CONST	ENDS
;	COMDAT ?_Noreplace@?$_Iosb@H@std@@2W4_Openmode@12@B
CONST	SEGMENT
?_Noreplace@?$_Iosb@H@std@@2W4_Openmode@12@B DD 080H	; std::_Iosb<int>::_Noreplace
CONST	ENDS
;	COMDAT ?_Nocreate@?$_Iosb@H@std@@2W4_Openmode@12@B
CONST	SEGMENT
?_Nocreate@?$_Iosb@H@std@@2W4_Openmode@12@B DD 040H	; std::_Iosb<int>::_Nocreate
CONST	ENDS
;	COMDAT ?trunc@?$_Iosb@H@std@@2W4_Openmode@12@B
CONST	SEGMENT
?trunc@?$_Iosb@H@std@@2W4_Openmode@12@B DD 010H		; std::_Iosb<int>::trunc
CONST	ENDS
;	COMDAT ?app@?$_Iosb@H@std@@2W4_Openmode@12@B
CONST	SEGMENT
?app@?$_Iosb@H@std@@2W4_Openmode@12@B DD 08H		; std::_Iosb<int>::app
CONST	ENDS
;	COMDAT ?ate@?$_Iosb@H@std@@2W4_Openmode@12@B
CONST	SEGMENT
?ate@?$_Iosb@H@std@@2W4_Openmode@12@B DD 04H		; std::_Iosb<int>::ate
CONST	ENDS
;	COMDAT ?out@?$_Iosb@H@std@@2W4_Openmode@12@B
CONST	SEGMENT
?out@?$_Iosb@H@std@@2W4_Openmode@12@B DD 02H		; std::_Iosb<int>::out
CONST	ENDS
;	COMDAT ?in@?$_Iosb@H@std@@2W4_Openmode@12@B
CONST	SEGMENT
?in@?$_Iosb@H@std@@2W4_Openmode@12@B DD 01H		; std::_Iosb<int>::in
CONST	ENDS
;	COMDAT ?_Hardfail@?$_Iosb@H@std@@2W4_Iostate@12@B
CONST	SEGMENT
?_Hardfail@?$_Iosb@H@std@@2W4_Iostate@12@B DD 010H	; std::_Iosb<int>::_Hardfail
CONST	ENDS
;	COMDAT ?badbit@?$_Iosb@H@std@@2W4_Iostate@12@B
CONST	SEGMENT
?badbit@?$_Iosb@H@std@@2W4_Iostate@12@B DD 04H		; std::_Iosb<int>::badbit
CONST	ENDS
;	COMDAT ?failbit@?$_Iosb@H@std@@2W4_Iostate@12@B
CONST	SEGMENT
?failbit@?$_Iosb@H@std@@2W4_Iostate@12@B DD 02H		; std::_Iosb<int>::failbit
CONST	ENDS
;	COMDAT ?eofbit@?$_Iosb@H@std@@2W4_Iostate@12@B
CONST	SEGMENT
?eofbit@?$_Iosb@H@std@@2W4_Iostate@12@B DD 01H		; std::_Iosb<int>::eofbit
CONST	ENDS
;	COMDAT ?goodbit@?$_Iosb@H@std@@2W4_Iostate@12@B
CONST	SEGMENT
?goodbit@?$_Iosb@H@std@@2W4_Iostate@12@B DD 00H		; std::_Iosb<int>::goodbit
CONST	ENDS
;	COMDAT ?floatfield@?$_Iosb@H@std@@2W4_Fmtflags@12@B
CONST	SEGMENT
?floatfield@?$_Iosb@H@std@@2W4_Fmtflags@12@B DD 03000H	; std::_Iosb<int>::floatfield
CONST	ENDS
;	COMDAT ?basefield@?$_Iosb@H@std@@2W4_Fmtflags@12@B
CONST	SEGMENT
?basefield@?$_Iosb@H@std@@2W4_Fmtflags@12@B DD 0e00H	; std::_Iosb<int>::basefield
CONST	ENDS
;	COMDAT ?adjustfield@?$_Iosb@H@std@@2W4_Fmtflags@12@B
CONST	SEGMENT
?adjustfield@?$_Iosb@H@std@@2W4_Fmtflags@12@B DD 01c0H	; std::_Iosb<int>::adjustfield
CONST	ENDS
;	COMDAT ?_Stdio@?$_Iosb@H@std@@2W4_Fmtflags@12@B
CONST	SEGMENT
?_Stdio@?$_Iosb@H@std@@2W4_Fmtflags@12@B DD 08000H	; std::_Iosb<int>::_Stdio
CONST	ENDS
;	COMDAT ?boolalpha@?$_Iosb@H@std@@2W4_Fmtflags@12@B
CONST	SEGMENT
?boolalpha@?$_Iosb@H@std@@2W4_Fmtflags@12@B DD 04000H	; std::_Iosb<int>::boolalpha
CONST	ENDS
;	COMDAT ?hexfloat@?$_Iosb@H@std@@2W4_Fmtflags@12@B
CONST	SEGMENT
?hexfloat@?$_Iosb@H@std@@2W4_Fmtflags@12@B DD 03000H	; std::_Iosb<int>::hexfloat
CONST	ENDS
;	COMDAT ?fixed@?$_Iosb@H@std@@2W4_Fmtflags@12@B
CONST	SEGMENT
?fixed@?$_Iosb@H@std@@2W4_Fmtflags@12@B DD 02000H	; std::_Iosb<int>::fixed
CONST	ENDS
;	COMDAT ?scientific@?$_Iosb@H@std@@2W4_Fmtflags@12@B
CONST	SEGMENT
?scientific@?$_Iosb@H@std@@2W4_Fmtflags@12@B DD 01000H	; std::_Iosb<int>::scientific
CONST	ENDS
;	COMDAT ?hex@?$_Iosb@H@std@@2W4_Fmtflags@12@B
CONST	SEGMENT
?hex@?$_Iosb@H@std@@2W4_Fmtflags@12@B DD 0800H		; std::_Iosb<int>::hex
CONST	ENDS
;	COMDAT ?oct@?$_Iosb@H@std@@2W4_Fmtflags@12@B
CONST	SEGMENT
?oct@?$_Iosb@H@std@@2W4_Fmtflags@12@B DD 0400H		; std::_Iosb<int>::oct
CONST	ENDS
;	COMDAT ?dec@?$_Iosb@H@std@@2W4_Fmtflags@12@B
CONST	SEGMENT
?dec@?$_Iosb@H@std@@2W4_Fmtflags@12@B DD 0200H		; std::_Iosb<int>::dec
CONST	ENDS
;	COMDAT ?internal@?$_Iosb@H@std@@2W4_Fmtflags@12@B
CONST	SEGMENT
?internal@?$_Iosb@H@std@@2W4_Fmtflags@12@B DD 0100H	; std::_Iosb<int>::internal
CONST	ENDS
;	COMDAT ?right@?$_Iosb@H@std@@2W4_Fmtflags@12@B
CONST	SEGMENT
?right@?$_Iosb@H@std@@2W4_Fmtflags@12@B DD 080H		; std::_Iosb<int>::right
CONST	ENDS
;	COMDAT ?left@?$_Iosb@H@std@@2W4_Fmtflags@12@B
CONST	SEGMENT
?left@?$_Iosb@H@std@@2W4_Fmtflags@12@B DD 040H		; std::_Iosb<int>::left
CONST	ENDS
;	COMDAT ?showpos@?$_Iosb@H@std@@2W4_Fmtflags@12@B
CONST	SEGMENT
?showpos@?$_Iosb@H@std@@2W4_Fmtflags@12@B DD 020H	; std::_Iosb<int>::showpos
CONST	ENDS
;	COMDAT ?showpoint@?$_Iosb@H@std@@2W4_Fmtflags@12@B
CONST	SEGMENT
?showpoint@?$_Iosb@H@std@@2W4_Fmtflags@12@B DD 010H	; std::_Iosb<int>::showpoint
CONST	ENDS
;	COMDAT ?showbase@?$_Iosb@H@std@@2W4_Fmtflags@12@B
CONST	SEGMENT
?showbase@?$_Iosb@H@std@@2W4_Fmtflags@12@B DD 08H	; std::_Iosb<int>::showbase
CONST	ENDS
;	COMDAT ?uppercase@?$_Iosb@H@std@@2W4_Fmtflags@12@B
CONST	SEGMENT
?uppercase@?$_Iosb@H@std@@2W4_Fmtflags@12@B DD 04H	; std::_Iosb<int>::uppercase
CONST	ENDS
;	COMDAT ?unitbuf@?$_Iosb@H@std@@2W4_Fmtflags@12@B
CONST	SEGMENT
?unitbuf@?$_Iosb@H@std@@2W4_Fmtflags@12@B DD 02H	; std::_Iosb<int>::unitbuf
CONST	ENDS
;	COMDAT ?skipws@?$_Iosb@H@std@@2W4_Fmtflags@12@B
CONST	SEGMENT
?skipws@?$_Iosb@H@std@@2W4_Fmtflags@12@B DD 01H		; std::_Iosb<int>::skipws
CONST	ENDS
;	COMDAT ?none@?$_Locbase@H@std@@2HB
CONST	SEGMENT
?none@?$_Locbase@H@std@@2HB DD 00H			; std::_Locbase<int>::none
CONST	ENDS
;	COMDAT ?all@?$_Locbase@H@std@@2HB
CONST	SEGMENT
?all@?$_Locbase@H@std@@2HB DD 03fH			; std::_Locbase<int>::all
CONST	ENDS
;	COMDAT ?messages@?$_Locbase@H@std@@2HB
CONST	SEGMENT
?messages@?$_Locbase@H@std@@2HB DD 020H			; std::_Locbase<int>::messages
CONST	ENDS
;	COMDAT ?time@?$_Locbase@H@std@@2HB
CONST	SEGMENT
?time@?$_Locbase@H@std@@2HB DD 010H			; std::_Locbase<int>::time
CONST	ENDS
;	COMDAT ?numeric@?$_Locbase@H@std@@2HB
CONST	SEGMENT
?numeric@?$_Locbase@H@std@@2HB DD 08H			; std::_Locbase<int>::numeric
CONST	ENDS
;	COMDAT ?monetary@?$_Locbase@H@std@@2HB
CONST	SEGMENT
?monetary@?$_Locbase@H@std@@2HB DD 04H			; std::_Locbase<int>::monetary
CONST	ENDS
;	COMDAT ?ctype@?$_Locbase@H@std@@2HB
CONST	SEGMENT
?ctype@?$_Locbase@H@std@@2HB DD 02H			; std::_Locbase<int>::ctype
CONST	ENDS
;	COMDAT ?collate@?$_Locbase@H@std@@2HB
CONST	SEGMENT
?collate@?$_Locbase@H@std@@2HB DD 01H			; std::_Locbase<int>::collate
CONST	ENDS
;	COMDAT ?_Rank@?$_Arithmetic_traits@O@std@@2HB
CONST	SEGMENT
?_Rank@?$_Arithmetic_traits@O@std@@2HB DD 09H		; std::_Arithmetic_traits<long double>::_Rank
CONST	ENDS
;	COMDAT ?_Rank@?$_Arithmetic_traits@N@std@@2HB
CONST	SEGMENT
?_Rank@?$_Arithmetic_traits@N@std@@2HB DD 08H		; std::_Arithmetic_traits<double>::_Rank
CONST	ENDS
;	COMDAT ?_Rank@?$_Arithmetic_traits@M@std@@2HB
CONST	SEGMENT
?_Rank@?$_Arithmetic_traits@M@std@@2HB DD 07H		; std::_Arithmetic_traits<float>::_Rank
CONST	ENDS
;	COMDAT ?_Rank@?$_Arithmetic_traits@_K@std@@2HB
CONST	SEGMENT
?_Rank@?$_Arithmetic_traits@_K@std@@2HB DD 06H		; std::_Arithmetic_traits<unsigned __int64>::_Rank
CONST	ENDS
;	COMDAT ?_Rank@?$_Arithmetic_traits@_J@std@@2HB
CONST	SEGMENT
?_Rank@?$_Arithmetic_traits@_J@std@@2HB DD 06H		; std::_Arithmetic_traits<__int64>::_Rank
CONST	ENDS
;	COMDAT ?_Rank@?$_Arithmetic_traits@K@std@@2HB
CONST	SEGMENT
?_Rank@?$_Arithmetic_traits@K@std@@2HB DD 05H		; std::_Arithmetic_traits<unsigned long>::_Rank
CONST	ENDS
;	COMDAT ?_Rank@?$_Arithmetic_traits@J@std@@2HB
CONST	SEGMENT
?_Rank@?$_Arithmetic_traits@J@std@@2HB DD 05H		; std::_Arithmetic_traits<long>::_Rank
CONST	ENDS
;	COMDAT ?_Rank@?$_Arithmetic_traits@I@std@@2HB
CONST	SEGMENT
?_Rank@?$_Arithmetic_traits@I@std@@2HB DD 04H		; std::_Arithmetic_traits<unsigned int>::_Rank
CONST	ENDS
;	COMDAT ?_Rank@?$_Arithmetic_traits@H@std@@2HB
CONST	SEGMENT
?_Rank@?$_Arithmetic_traits@H@std@@2HB DD 04H		; std::_Arithmetic_traits<int>::_Rank
CONST	ENDS
;	COMDAT ?_Rank@?$_Arithmetic_traits@G@std@@2HB
CONST	SEGMENT
?_Rank@?$_Arithmetic_traits@G@std@@2HB DD 03H		; std::_Arithmetic_traits<unsigned short>::_Rank
CONST	ENDS
;	COMDAT ?_Rank@?$_Arithmetic_traits@F@std@@2HB
CONST	SEGMENT
?_Rank@?$_Arithmetic_traits@F@std@@2HB DD 03H		; std::_Arithmetic_traits<short>::_Rank
CONST	ENDS
;	COMDAT ?_Rank@?$_Arithmetic_traits@E@std@@2HB
CONST	SEGMENT
?_Rank@?$_Arithmetic_traits@E@std@@2HB DD 02H		; std::_Arithmetic_traits<unsigned char>::_Rank
CONST	ENDS
;	COMDAT ?_Rank@?$_Arithmetic_traits@C@std@@2HB
CONST	SEGMENT
?_Rank@?$_Arithmetic_traits@C@std@@2HB DD 02H		; std::_Arithmetic_traits<signed char>::_Rank
CONST	ENDS
;	COMDAT ?_Rank@?$_Arithmetic_traits@D@std@@2HB
CONST	SEGMENT
?_Rank@?$_Arithmetic_traits@D@std@@2HB DD 02H		; std::_Arithmetic_traits<char>::_Rank
CONST	ENDS
;	COMDAT ?_Rank@?$_Arithmetic_traits@_N@std@@2HB
CONST	SEGMENT
?_Rank@?$_Arithmetic_traits@_N@std@@2HB DD 01H		; std::_Arithmetic_traits<bool>::_Rank
CONST	ENDS
;	COMDAT ?value@?$integral_constant@I$0A@@tr1@std@@2IB
CONST	SEGMENT
?value@?$integral_constant@I$0A@@tr1@std@@2IB DD 00H	; std::tr1::integral_constant<unsigned int,0>::value
CONST	ENDS
;	COMDAT ?value@?$integral_constant@_N$00@tr1@std@@2_NB
CONST	SEGMENT
?value@?$integral_constant@_N$00@tr1@std@@2_NB DB 01H	; std::tr1::integral_constant<bool,1>::value
CONST	ENDS
;	COMDAT ?value@?$integral_constant@_N$0A@@tr1@std@@2_NB
CONST	SEGMENT
?value@?$integral_constant@_N$0A@@tr1@std@@2_NB DB 00H	; std::tr1::integral_constant<bool,0>::value
CONST	ENDS
PUBLIC	??2@YAPAXI@Z					; operator new
EXTRN	__RTC_Shutdown:PROC
EXTRN	__RTC_InitBase:PROC
;	COMDAT rtc$TMZ
; File d:\mozilla\intl\icu\include\unicode\utypes.h
rtc$TMZ	SEGMENT
__RTC_Shutdown.rtc$TMZ DD FLAT:__RTC_Shutdown
rtc$TMZ	ENDS
;	COMDAT rtc$IMZ
rtc$IMZ	SEGMENT
__RTC_InitBase.rtc$IMZ DD FLAT:__RTC_InitBase
; Function compile flags: /Odtp /RTCsu /ZI
rtc$IMZ	ENDS
;	COMDAT ??2@YAPAXI@Z
_TEXT	SEGMENT
_q$ = -8						; size = 4
___formal$ = 8						; size = 4
??2@YAPAXI@Z PROC					; operator new, COMDAT
; Line 411
	push	ebp
	mov	ebp, esp
	sub	esp, 204				; 000000ccH
	push	ebx
	push	esi
	push	edi
	lea	edi, DWORD PTR [ebp-204]
	mov	ecx, 51					; 00000033H
	mov	eax, -858993460				; ccccccccH
	rep stosd
; Line 412
	mov	DWORD PTR _q$[ebp], 0
; Line 413
	mov	eax, DWORD PTR _q$[ebp]
	mov	BYTE PTR [eax], 5
; Line 414
	mov	eax, DWORD PTR _q$[ebp]
; Line 415
	pop	edi
	pop	esi
	pop	ebx
	mov	esp, ebp
	pop	ebp
	ret	0
??2@YAPAXI@Z ENDP					; operator new
_TEXT	ENDS
PUBLIC	??3@YAXPAX@Z					; operator delete
; Function compile flags: /Odtp /RTCsu /ZI
;	COMDAT ??3@YAXPAX@Z
_TEXT	SEGMENT
_q$ = -8						; size = 4
___formal$ = 8						; size = 4
??3@YAXPAX@Z PROC					; operator delete, COMDAT
; Line 439
	push	ebp
	mov	ebp, esp
	sub	esp, 204				; 000000ccH
	push	ebx
	push	esi
	push	edi
	lea	edi, DWORD PTR [ebp-204]
	mov	ecx, 51					; 00000033H
	mov	eax, -858993460				; ccccccccH
	rep stosd
; Line 440
	mov	DWORD PTR _q$[ebp], 0
; Line 441
	mov	eax, DWORD PTR _q$[ebp]
	mov	BYTE PTR [eax], 5
; Line 442
	pop	edi
	pop	esi
	pop	ebx
	mov	esp, ebp
	pop	ebp
	ret	0
??3@YAXPAX@Z ENDP					; operator delete
_TEXT	ENDS
PUBLIC	??9TimeZone@icu_56@@QBECABV01@@Z		; icu_56::TimeZone::operator!=
EXTRN	__RTC_CheckEsp:PROC
; Function compile flags: /Odtp /RTCsu /ZI
;	COMDAT ??9TimeZone@icu_56@@QBECABV01@@Z
_TEXT	SEGMENT
_this$ = -8						; size = 4
_that$ = 8						; size = 4
??9TimeZone@icu_56@@QBECABV01@@Z PROC			; icu_56::TimeZone::operator!=, COMDAT
; _this$ = ecx
; File d:\mozilla\intl\icu\source\i18n\unicode\timezone.h
; Line 455
	push	ebp
	mov	ebp, esp
	sub	esp, 204				; 000000ccH
	push	ebx
	push	esi
	push	edi
	push	ecx
	lea	edi, DWORD PTR [ebp-204]
	mov	ecx, 51					; 00000033H
	mov	eax, -858993460				; ccccccccH
	rep stosd
	pop	ecx
	mov	DWORD PTR _this$[ebp], ecx
	mov	esi, esp
	mov	eax, DWORD PTR _that$[ebp]
	push	eax
	mov	ecx, DWORD PTR _this$[ebp]
	mov	edx, DWORD PTR [ecx]
	mov	ecx, DWORD PTR _this$[ebp]
	mov	eax, DWORD PTR [edx+8]
	call	eax
	cmp	esi, esp
	call	__RTC_CheckEsp
	movsx	ecx, al
	test	ecx, ecx
	sete	al
	pop	edi
	pop	esi
	pop	ebx
	add	esp, 204				; 000000ccH
	cmp	ebp, esp
	call	__RTC_CheckEsp
	mov	esp, ebp
	pop	ebp
	ret	4
??9TimeZone@icu_56@@QBECABV01@@Z ENDP			; icu_56::TimeZone::operator!=
_TEXT	ENDS
PUBLIC	?getID@TimeZone@icu_56@@QBEAAVUnicodeString@2@AAV32@@Z ; icu_56::TimeZone::getID
EXTRN	__imp_??4UnicodeString@icu_56@@QAEAAV01@ABV01@@Z:PROC
; Function compile flags: /Odtp /RTCsu /ZI
;	COMDAT ?getID@TimeZone@icu_56@@QBEAAVUnicodeString@2@AAV32@@Z
_TEXT	SEGMENT
_this$ = -8						; size = 4
_ID$ = 8						; size = 4
?getID@TimeZone@icu_56@@QBEAAVUnicodeString@2@AAV32@@Z PROC ; icu_56::TimeZone::getID, COMDAT
; _this$ = ecx
; Line 951
	push	ebp
	mov	ebp, esp
	sub	esp, 204				; 000000ccH
	push	ebx
	push	esi
	push	edi
	push	ecx
	lea	edi, DWORD PTR [ebp-204]
	mov	ecx, 51					; 00000033H
	mov	eax, -858993460				; ccccccccH
	rep stosd
	pop	ecx
	mov	DWORD PTR _this$[ebp], ecx
; Line 952
	mov	eax, DWORD PTR _this$[ebp]
	add	eax, 4
	mov	esi, esp
	push	eax
	mov	ecx, DWORD PTR _ID$[ebp]
	call	DWORD PTR __imp_??4UnicodeString@icu_56@@QAEAAV01@ABV01@@Z
	cmp	esi, esp
	call	__RTC_CheckEsp
; Line 953
	mov	eax, DWORD PTR _ID$[ebp]
; Line 954
	pop	edi
	pop	esi
	pop	ebx
	add	esp, 204				; 000000ccH
	cmp	ebp, esp
	call	__RTC_CheckEsp
	mov	esp, ebp
	pop	ebp
	ret	4
?getID@TimeZone@icu_56@@QBEAAVUnicodeString@2@AAV32@@Z ENDP ; icu_56::TimeZone::getID
_TEXT	ENDS
PUBLIC	?setID@TimeZone@icu_56@@QAEXABVUnicodeString@2@@Z ; icu_56::TimeZone::setID
; Function compile flags: /Odtp /RTCsu /ZI
;	COMDAT ?setID@TimeZone@icu_56@@QAEXABVUnicodeString@2@@Z
_TEXT	SEGMENT
_this$ = -8						; size = 4
_ID$ = 8						; size = 4
?setID@TimeZone@icu_56@@QAEXABVUnicodeString@2@@Z PROC	; icu_56::TimeZone::setID, COMDAT
; _this$ = ecx
; Line 960
	push	ebp
	mov	ebp, esp
	sub	esp, 204				; 000000ccH
	push	ebx
	push	esi
	push	edi
	push	ecx
	lea	edi, DWORD PTR [ebp-204]
	mov	ecx, 51					; 00000033H
	mov	eax, -858993460				; ccccccccH
	rep stosd
	pop	ecx
	mov	DWORD PTR _this$[ebp], ecx
; Line 961
	mov	esi, esp
	mov	eax, DWORD PTR _ID$[ebp]
	push	eax
	mov	ecx, DWORD PTR _this$[ebp]
	add	ecx, 4
	call	DWORD PTR __imp_??4UnicodeString@icu_56@@QAEAAV01@ABV01@@Z
	cmp	esi, esp
	call	__RTC_CheckEsp
; Line 962
	pop	edi
	pop	esi
	pop	ebx
	add	esp, 204				; 000000ccH
	cmp	ebp, esp
	call	__RTC_CheckEsp
	mov	esp, ebp
	pop	ebp
	ret	4
?setID@TimeZone@icu_56@@QAEXABVUnicodeString@2@@Z ENDP	; icu_56::TimeZone::setID
_TEXT	ENDS
PUBLIC	??4BasicTimeZone@icu_56@@QAEAAV01@ABV01@@Z	; icu_56::BasicTimeZone::operator=
EXTRN	??4TimeZone@icu_56@@IAEAAV01@ABV01@@Z:PROC	; icu_56::TimeZone::operator=
; Function compile flags: /Odtp /RTCsu /ZI
;	COMDAT ??4BasicTimeZone@icu_56@@QAEAAV01@ABV01@@Z
_TEXT	SEGMENT
_this$ = -8						; size = 4
___that$ = 8						; size = 4
??4BasicTimeZone@icu_56@@QAEAAV01@ABV01@@Z PROC		; icu_56::BasicTimeZone::operator=, COMDAT
; _this$ = ecx
	push	ebp
	mov	ebp, esp
	sub	esp, 204				; 000000ccH
	push	ebx
	push	esi
	push	edi
	push	ecx
	lea	edi, DWORD PTR [ebp-204]
	mov	ecx, 51					; 00000033H
	mov	eax, -858993460				; ccccccccH
	rep stosd
	pop	ecx
	mov	DWORD PTR _this$[ebp], ecx
	mov	eax, DWORD PTR ___that$[ebp]
	push	eax
	mov	ecx, DWORD PTR _this$[ebp]
	call	??4TimeZone@icu_56@@IAEAAV01@ABV01@@Z	; icu_56::TimeZone::operator=
	mov	eax, DWORD PTR _this$[ebp]
	pop	edi
	pop	esi
	pop	ebx
	add	esp, 204				; 000000ccH
	cmp	ebp, esp
	call	__RTC_CheckEsp
	mov	esp, ebp
	pop	ebp
	ret	4
??4BasicTimeZone@icu_56@@QAEAAV01@ABV01@@Z ENDP		; icu_56::BasicTimeZone::operator=
_TEXT	ENDS
PUBLIC	__$ArrayPad$
PUBLIC	_vzone_openID_56
EXTRN	__imp_??1UnicodeString@icu_56@@UAE@XZ:PROC
EXTRN	?createVTimeZoneByID@VTimeZone@icu_56@@SAPAV12@ABVUnicodeString@2@@Z:PROC ; icu_56::VTimeZone::createVTimeZoneByID
EXTRN	__imp_??0UnicodeString@icu_56@@QAE@CPB_WH@Z:PROC
EXTRN	___security_cookie:DWORD
EXTRN	@__security_check_cookie@4:PROC
EXTRN	@_RTC_CheckStackVars@8:PROC
; Function compile flags: /Odtp /RTCsu /ZI
;	COMDAT _vzone_openID_56
_TEXT	SEGMENT
$T43055 = -276						; size = 4
_s$ = -72						; size = 64
__$ArrayPad$ = -4					; size = 4
_ID$ = 8						; size = 4
_idLength$ = 12						; size = 4
_vzone_openID_56 PROC					; COMDAT
; File d:\mozilla\intl\icu\source\i18n\vzone.cpp
; Line 27
	push	ebp
	mov	ebp, esp
	sub	esp, 280				; 00000118H
	push	ebx
	push	esi
	push	edi
	lea	edi, DWORD PTR [ebp-280]
	mov	ecx, 70					; 00000046H
	mov	eax, -858993460				; ccccccccH
	rep stosd
	mov	eax, DWORD PTR ___security_cookie
	xor	eax, ebp
	mov	DWORD PTR __$ArrayPad$[ebp], eax
; Line 28
	mov	esi, esp
	mov	eax, DWORD PTR _idLength$[ebp]
	push	eax
	mov	ecx, DWORD PTR _ID$[ebp]
	push	ecx
	cmp	DWORD PTR _idLength$[ebp], -1
	sete	dl
	movzx	eax, dl
	push	eax
	lea	ecx, DWORD PTR _s$[ebp]
	call	DWORD PTR __imp_??0UnicodeString@icu_56@@QAE@CPB_WH@Z
	cmp	esi, esp
	call	__RTC_CheckEsp
; Line 29
	lea	eax, DWORD PTR _s$[ebp]
	push	eax
	call	?createVTimeZoneByID@VTimeZone@icu_56@@SAPAV12@ABVUnicodeString@2@@Z ; icu_56::VTimeZone::createVTimeZoneByID
	add	esp, 4
	mov	DWORD PTR $T43055[ebp], eax
	mov	esi, esp
	lea	ecx, DWORD PTR _s$[ebp]
	call	DWORD PTR __imp_??1UnicodeString@icu_56@@UAE@XZ
	cmp	esi, esp
	call	__RTC_CheckEsp
	mov	eax, DWORD PTR $T43055[ebp]
; Line 30
	push	edx
	mov	ecx, ebp
	push	eax
	lea	edx, DWORD PTR $LN5@vzone_open
	call	@_RTC_CheckStackVars@8
	pop	eax
	pop	edx
	pop	edi
	pop	esi
	pop	ebx
	mov	ecx, DWORD PTR __$ArrayPad$[ebp]
	xor	ecx, ebp
	call	@__security_check_cookie@4
	add	esp, 280				; 00000118H
	cmp	ebp, esp
	call	__RTC_CheckEsp
	mov	esp, ebp
	pop	ebp
	ret	0
	npad	2
$LN5@vzone_open:
	DD	1
	DD	$LN4@vzone_open
$LN4@vzone_open:
	DD	-72					; ffffffb8H
	DD	64					; 00000040H
	DD	$LN3@vzone_open
$LN3@vzone_open:
	DB	115					; 00000073H
	DB	0
_vzone_openID_56 ENDP
_TEXT	ENDS
PUBLIC	__$ArrayPad$
PUBLIC	_vzone_openData_56
EXTRN	?createVTimeZone@VTimeZone@icu_56@@SAPAV12@ABVUnicodeString@2@AAW4UErrorCode@@@Z:PROC ; icu_56::VTimeZone::createVTimeZone
; Function compile flags: /Odtp /RTCsu /ZI
;	COMDAT _vzone_openData_56
_TEXT	SEGMENT
$T43065 = -276						; size = 4
_s$ = -72						; size = 64
__$ArrayPad$ = -4					; size = 4
_vtzdata$ = 8						; size = 4
_vtzdataLength$ = 12					; size = 4
_status$ = 16						; size = 4
_vzone_openData_56 PROC					; COMDAT
; Line 33
	push	ebp
	mov	ebp, esp
	sub	esp, 280				; 00000118H
	push	ebx
	push	esi
	push	edi
	lea	edi, DWORD PTR [ebp-280]
	mov	ecx, 70					; 00000046H
	mov	eax, -858993460				; ccccccccH
	rep stosd
	mov	eax, DWORD PTR ___security_cookie
	xor	eax, ebp
	mov	DWORD PTR __$ArrayPad$[ebp], eax
; Line 34
	mov	esi, esp
	mov	eax, DWORD PTR _vtzdataLength$[ebp]
	push	eax
	mov	ecx, DWORD PTR _vtzdata$[ebp]
	push	ecx
	cmp	DWORD PTR _vtzdataLength$[ebp], -1
	sete	dl
	movzx	eax, dl
	push	eax
	lea	ecx, DWORD PTR _s$[ebp]
	call	DWORD PTR __imp_??0UnicodeString@icu_56@@QAE@CPB_WH@Z
	cmp	esi, esp
	call	__RTC_CheckEsp
; Line 35
	mov	eax, DWORD PTR _status$[ebp]
	push	eax
	lea	ecx, DWORD PTR _s$[ebp]
	push	ecx
	call	?createVTimeZone@VTimeZone@icu_56@@SAPAV12@ABVUnicodeString@2@AAW4UErrorCode@@@Z ; icu_56::VTimeZone::createVTimeZone
	add	esp, 8
	mov	DWORD PTR $T43065[ebp], eax
	mov	esi, esp
	lea	ecx, DWORD PTR _s$[ebp]
	call	DWORD PTR __imp_??1UnicodeString@icu_56@@UAE@XZ
	cmp	esi, esp
	call	__RTC_CheckEsp
	mov	eax, DWORD PTR $T43065[ebp]
; Line 36
	push	edx
	mov	ecx, ebp
	push	eax
	lea	edx, DWORD PTR $LN5@vzone_open@2
	call	@_RTC_CheckStackVars@8
	pop	eax
	pop	edx
	pop	edi
	pop	esi
	pop	ebx
	mov	ecx, DWORD PTR __$ArrayPad$[ebp]
	xor	ecx, ebp
	call	@__security_check_cookie@4
	add	esp, 280				; 00000118H
	cmp	ebp, esp
	call	__RTC_CheckEsp
	mov	esp, ebp
	pop	ebp
	ret	0
	npad	2
$LN5@vzone_open@2:
	DD	1
	DD	$LN4@vzone_open@2
$LN4@vzone_open@2:
	DD	-72					; ffffffb8H
	DD	64					; 00000040H
	DD	$LN3@vzone_open@2
$LN3@vzone_open@2:
	DB	115					; 00000073H
	DB	0
_vzone_openData_56 ENDP
_TEXT	ENDS
PUBLIC	_vzone_close_56
; Function compile flags: /Odtp /RTCsu /ZI
;	COMDAT _vzone_close_56
_TEXT	SEGMENT
tv74 = -220						; size = 4
$T43071 = -212						; size = 4
$T43072 = -200						; size = 4
_zone$ = 8						; size = 4
_vzone_close_56 PROC					; COMDAT
; Line 39
	push	ebp
	mov	ebp, esp
	sub	esp, 220				; 000000dcH
	push	ebx
	push	esi
	push	edi
	lea	edi, DWORD PTR [ebp-220]
	mov	ecx, 55					; 00000037H
	mov	eax, -858993460				; ccccccccH
	rep stosd
; Line 40
	mov	eax, DWORD PTR _zone$[ebp]
	mov	DWORD PTR $T43072[ebp], eax
	mov	ecx, DWORD PTR $T43072[ebp]
	mov	DWORD PTR $T43071[ebp], ecx
	cmp	DWORD PTR $T43071[ebp], 0
	je	SHORT $LN3@vzone_clos
	mov	esi, esp
	push	1
	mov	edx, DWORD PTR $T43071[ebp]
	mov	eax, DWORD PTR [edx]
	mov	ecx, DWORD PTR $T43071[ebp]
	mov	edx, DWORD PTR [eax]
	call	edx
	cmp	esi, esp
	call	__RTC_CheckEsp
	mov	DWORD PTR tv74[ebp], eax
	jmp	SHORT $LN1@vzone_clos
$LN3@vzone_clos:
	mov	DWORD PTR tv74[ebp], 0
$LN1@vzone_clos:
; Line 41
	pop	edi
	pop	esi
	pop	ebx
	add	esp, 220				; 000000dcH
	cmp	ebp, esp
	call	__RTC_CheckEsp
	mov	esp, ebp
	pop	ebp
	ret	0
_vzone_close_56 ENDP
_TEXT	ENDS
PUBLIC	_vzone_clone_56
EXTRN	?clone@VTimeZone@icu_56@@UBEPAVTimeZone@2@XZ:PROC ; icu_56::VTimeZone::clone
; Function compile flags: /Odtp /RTCsu /ZI
;	COMDAT _vzone_clone_56
_TEXT	SEGMENT
_zone$ = 8						; size = 4
_vzone_clone_56 PROC					; COMDAT
; Line 44
	push	ebp
	mov	ebp, esp
	sub	esp, 192				; 000000c0H
	push	ebx
	push	esi
	push	edi
	lea	edi, DWORD PTR [ebp-192]
	mov	ecx, 48					; 00000030H
	mov	eax, -858993460				; ccccccccH
	rep stosd
; Line 45
	mov	ecx, DWORD PTR _zone$[ebp]
	call	?clone@VTimeZone@icu_56@@UBEPAVTimeZone@2@XZ ; icu_56::VTimeZone::clone
; Line 46
	pop	edi
	pop	esi
	pop	ebx
	add	esp, 192				; 000000c0H
	cmp	ebp, esp
	call	__RTC_CheckEsp
	mov	esp, ebp
	pop	ebp
	ret	0
_vzone_clone_56 ENDP
_TEXT	ENDS
PUBLIC	_vzone_equals_56
; Function compile flags: /Odtp /RTCsu /ZI
;	COMDAT _vzone_equals_56
_TEXT	SEGMENT
_zone1$ = 8						; size = 4
_zone2$ = 12						; size = 4
_vzone_equals_56 PROC					; COMDAT
; Line 49
	push	ebp
	mov	ebp, esp
	sub	esp, 192				; 000000c0H
	push	ebx
	push	esi
	push	edi
	lea	edi, DWORD PTR [ebp-192]
	mov	ecx, 48					; 00000030H
	mov	eax, -858993460				; ccccccccH
	rep stosd
; Line 50
	mov	esi, esp
	mov	eax, DWORD PTR _zone2$[ebp]
	push	eax
	mov	ecx, DWORD PTR _zone1$[ebp]
	mov	edx, DWORD PTR [ecx]
	mov	ecx, DWORD PTR _zone1$[ebp]
	mov	eax, DWORD PTR [edx+8]
	call	eax
	cmp	esi, esp
	call	__RTC_CheckEsp
; Line 51
	pop	edi
	pop	esi
	pop	ebx
	add	esp, 192				; 000000c0H
	cmp	ebp, esp
	call	__RTC_CheckEsp
	mov	esp, ebp
	pop	ebp
	ret	0
_vzone_equals_56 ENDP
_TEXT	ENDS
PUBLIC	__$ArrayPad$
PUBLIC	_vzone_getTZURL_56
EXTRN	_memcpy:PROC
EXTRN	__imp_?getBuffer@UnicodeString@icu_56@@QBEPB_WXZ:PROC
EXTRN	__imp_?length@UnicodeString@icu_56@@QBEHXZ:PROC
EXTRN	?getTZURL@VTimeZone@icu_56@@QBECAAVUnicodeString@2@@Z:PROC ; icu_56::VTimeZone::getTZURL
EXTRN	__imp_??0UnicodeString@icu_56@@QAE@XZ:PROC
; Function compile flags: /Odtp /RTCsu /ZI
;	COMDAT _vzone_getTZURL_56
_TEXT	SEGMENT
$T43082 = -285						; size = 1
_b$ = -81						; size = 1
_s$ = -72						; size = 64
__$ArrayPad$ = -4					; size = 4
_zone$ = 8						; size = 4
_url$ = 12						; size = 4
_urlLength$ = 16					; size = 4
_vzone_getTZURL_56 PROC					; COMDAT
; Line 54
	push	ebp
	mov	ebp, esp
	sub	esp, 292				; 00000124H
	push	ebx
	push	esi
	push	edi
	lea	edi, DWORD PTR [ebp-292]
	mov	ecx, 73					; 00000049H
	mov	eax, -858993460				; ccccccccH
	rep stosd
	mov	eax, DWORD PTR ___security_cookie
	xor	eax, ebp
	mov	DWORD PTR __$ArrayPad$[ebp], eax
; Line 55
	mov	esi, esp
	lea	ecx, DWORD PTR _s$[ebp]
	call	DWORD PTR __imp_??0UnicodeString@icu_56@@QAE@XZ
	cmp	esi, esp
	call	__RTC_CheckEsp
; Line 56
	lea	eax, DWORD PTR _s$[ebp]
	push	eax
	mov	ecx, DWORD PTR _zone$[ebp]
	call	?getTZURL@VTimeZone@icu_56@@QBECAAVUnicodeString@2@@Z ; icu_56::VTimeZone::getTZURL
	mov	BYTE PTR _b$[ebp], al
; Line 58
	mov	esi, esp
	lea	ecx, DWORD PTR _s$[ebp]
	call	DWORD PTR __imp_?length@UnicodeString@icu_56@@QBEHXZ
	cmp	esi, esp
	call	__RTC_CheckEsp
	mov	ecx, DWORD PTR _urlLength$[ebp]
	mov	DWORD PTR [ecx], eax
; Line 59
	mov	eax, DWORD PTR _urlLength$[ebp]
	mov	ecx, DWORD PTR [eax]
	push	ecx
	mov	esi, esp
	lea	ecx, DWORD PTR _s$[ebp]
	call	DWORD PTR __imp_?getBuffer@UnicodeString@icu_56@@QBEPB_WXZ
	cmp	esi, esp
	call	__RTC_CheckEsp
	push	eax
	mov	edx, DWORD PTR _url$[ebp]
	mov	eax, DWORD PTR [edx]
	push	eax
	call	_memcpy
	add	esp, 12					; 0000000cH
; Line 61
	mov	al, BYTE PTR _b$[ebp]
	mov	BYTE PTR $T43082[ebp], al
	mov	esi, esp
	lea	ecx, DWORD PTR _s$[ebp]
	call	DWORD PTR __imp_??1UnicodeString@icu_56@@UAE@XZ
	cmp	esi, esp
	call	__RTC_CheckEsp
	mov	al, BYTE PTR $T43082[ebp]
; Line 62
	push	edx
	mov	ecx, ebp
	push	eax
	lea	edx, DWORD PTR $LN5@vzone_getT
	call	@_RTC_CheckStackVars@8
	pop	eax
	pop	edx
	pop	edi
	pop	esi
	pop	ebx
	mov	ecx, DWORD PTR __$ArrayPad$[ebp]
	xor	ecx, ebp
	call	@__security_check_cookie@4
	add	esp, 292				; 00000124H
	cmp	ebp, esp
	call	__RTC_CheckEsp
	mov	esp, ebp
	pop	ebp
	ret	0
	npad	1
$LN5@vzone_getT:
	DD	1
	DD	$LN4@vzone_getT
$LN4@vzone_getT:
	DD	-72					; ffffffb8H
	DD	64					; 00000040H
	DD	$LN3@vzone_getT
$LN3@vzone_getT:
	DB	115					; 00000073H
	DB	0
_vzone_getTZURL_56 ENDP
_TEXT	ENDS
PUBLIC	__$ArrayPad$
PUBLIC	_vzone_setTZURL_56
EXTRN	?setTZURL@VTimeZone@icu_56@@QAEXABVUnicodeString@2@@Z:PROC ; icu_56::VTimeZone::setTZURL
; Function compile flags: /Odtp /RTCsu /ZI
;	COMDAT _vzone_setTZURL_56
_TEXT	SEGMENT
_s$ = -72						; size = 64
__$ArrayPad$ = -4					; size = 4
_zone$ = 8						; size = 4
_url$ = 12						; size = 4
_urlLength$ = 16					; size = 4
_vzone_setTZURL_56 PROC					; COMDAT
; Line 65
	push	ebp
	mov	ebp, esp
	sub	esp, 268				; 0000010cH
	push	ebx
	push	esi
	push	edi
	lea	edi, DWORD PTR [ebp-268]
	mov	ecx, 67					; 00000043H
	mov	eax, -858993460				; ccccccccH
	rep stosd
	mov	eax, DWORD PTR ___security_cookie
	xor	eax, ebp
	mov	DWORD PTR __$ArrayPad$[ebp], eax
; Line 66
	mov	esi, esp
	mov	eax, DWORD PTR _urlLength$[ebp]
	push	eax
	mov	ecx, DWORD PTR _url$[ebp]
	push	ecx
	cmp	DWORD PTR _urlLength$[ebp], -1
	sete	dl
	movzx	eax, dl
	push	eax
	lea	ecx, DWORD PTR _s$[ebp]
	call	DWORD PTR __imp_??0UnicodeString@icu_56@@QAE@CPB_WH@Z
	cmp	esi, esp
	call	__RTC_CheckEsp
; Line 67
	lea	eax, DWORD PTR _s$[ebp]
	push	eax
	mov	ecx, DWORD PTR _zone$[ebp]
	call	?setTZURL@VTimeZone@icu_56@@QAEXABVUnicodeString@2@@Z ; icu_56::VTimeZone::setTZURL
; Line 68
	mov	esi, esp
	lea	ecx, DWORD PTR _s$[ebp]
	call	DWORD PTR __imp_??1UnicodeString@icu_56@@UAE@XZ
	cmp	esi, esp
	call	__RTC_CheckEsp
	push	edx
	mov	ecx, ebp
	push	eax
	lea	edx, DWORD PTR $LN5@vzone_setT
	call	@_RTC_CheckStackVars@8
	pop	eax
	pop	edx
	pop	edi
	pop	esi
	pop	ebx
	mov	ecx, DWORD PTR __$ArrayPad$[ebp]
	xor	ecx, ebp
	call	@__security_check_cookie@4
	add	esp, 268				; 0000010cH
	cmp	ebp, esp
	call	__RTC_CheckEsp
	mov	esp, ebp
	pop	ebp
	ret	0
	npad	2
$LN5@vzone_setT:
	DD	1
	DD	$LN4@vzone_setT
$LN4@vzone_setT:
	DD	-72					; ffffffb8H
	DD	64					; 00000040H
	DD	$LN3@vzone_setT
$LN3@vzone_setT:
	DB	115					; 00000073H
	DB	0
_vzone_setTZURL_56 ENDP
_TEXT	ENDS
PUBLIC	_vzone_getLastModified_56
EXTRN	?getLastModified@VTimeZone@icu_56@@QBECAAN@Z:PROC ; icu_56::VTimeZone::getLastModified
; Function compile flags: /Odtp /RTCsu /ZI
;	COMDAT _vzone_getLastModified_56
_TEXT	SEGMENT
_zone$ = 8						; size = 4
_lastModified$ = 12					; size = 4
_vzone_getLastModified_56 PROC				; COMDAT
; Line 71
	push	ebp
	mov	ebp, esp
	sub	esp, 192				; 000000c0H
	push	ebx
	push	esi
	push	edi
	lea	edi, DWORD PTR [ebp-192]
	mov	ecx, 48					; 00000030H
	mov	eax, -858993460				; ccccccccH
	rep stosd
; Line 72
	mov	eax, DWORD PTR _lastModified$[ebp]
	push	eax
	mov	ecx, DWORD PTR _zone$[ebp]
	call	?getLastModified@VTimeZone@icu_56@@QBECAAN@Z ; icu_56::VTimeZone::getLastModified
; Line 73
	pop	edi
	pop	esi
	pop	ebx
	add	esp, 192				; 000000c0H
	cmp	ebp, esp
	call	__RTC_CheckEsp
	mov	esp, ebp
	pop	ebp
	ret	0
_vzone_getLastModified_56 ENDP
_TEXT	ENDS
PUBLIC	_vzone_setLastModified_56
EXTRN	?setLastModified@VTimeZone@icu_56@@QAEXN@Z:PROC	; icu_56::VTimeZone::setLastModified
EXTRN	__fltused:DWORD
; Function compile flags: /Odtp /RTCsu /ZI
;	COMDAT _vzone_setLastModified_56
_TEXT	SEGMENT
_zone$ = 8						; size = 4
_lastModified$ = 12					; size = 8
_vzone_setLastModified_56 PROC				; COMDAT
; Line 76
	push	ebp
	mov	ebp, esp
	sub	esp, 192				; 000000c0H
	push	ebx
	push	esi
	push	edi
	lea	edi, DWORD PTR [ebp-192]
	mov	ecx, 48					; 00000030H
	mov	eax, -858993460				; ccccccccH
	rep stosd
; Line 77
	sub	esp, 8
	fld	QWORD PTR _lastModified$[ebp]
	fstp	QWORD PTR [esp]
	mov	ecx, DWORD PTR _zone$[ebp]
	call	?setLastModified@VTimeZone@icu_56@@QAEXN@Z ; icu_56::VTimeZone::setLastModified
; Line 78
	pop	edi
	pop	esi
	pop	ebx
	add	esp, 192				; 000000c0H
	cmp	ebp, esp
	call	__RTC_CheckEsp
	mov	esp, ebp
	pop	ebp
	ret	0
_vzone_setLastModified_56 ENDP
_TEXT	ENDS
PUBLIC	__$ArrayPad$
PUBLIC	_vzone_write_56
EXTRN	_uprv_malloc_56:PROC
EXTRN	?write@VTimeZone@icu_56@@QBEXAAVUnicodeString@2@AAW4UErrorCode@@@Z:PROC ; icu_56::VTimeZone::write
; Function compile flags: /Odtp /RTCsu /ZI
;	COMDAT _vzone_write_56
_TEXT	SEGMENT
_s$ = -72						; size = 64
__$ArrayPad$ = -4					; size = 4
_zone$ = 8						; size = 4
_result$ = 12						; size = 4
_resultLength$ = 16					; size = 4
_status$ = 20						; size = 4
_vzone_write_56 PROC					; COMDAT
; Line 81
	push	ebp
	mov	ebp, esp
	sub	esp, 268				; 0000010cH
	push	ebx
	push	esi
	push	edi
	lea	edi, DWORD PTR [ebp-268]
	mov	ecx, 67					; 00000043H
	mov	eax, -858993460				; ccccccccH
	rep stosd
	mov	eax, DWORD PTR ___security_cookie
	xor	eax, ebp
	mov	DWORD PTR __$ArrayPad$[ebp], eax
; Line 82
	mov	esi, esp
	lea	ecx, DWORD PTR _s$[ebp]
	call	DWORD PTR __imp_??0UnicodeString@icu_56@@QAE@XZ
	cmp	esi, esp
	call	__RTC_CheckEsp
; Line 83
	mov	eax, DWORD PTR _status$[ebp]
	push	eax
	lea	ecx, DWORD PTR _s$[ebp]
	push	ecx
	mov	ecx, DWORD PTR _zone$[ebp]
	call	?write@VTimeZone@icu_56@@QBEXAAVUnicodeString@2@AAW4UErrorCode@@@Z ; icu_56::VTimeZone::write
; Line 85
	mov	esi, esp
	lea	ecx, DWORD PTR _s$[ebp]
	call	DWORD PTR __imp_?length@UnicodeString@icu_56@@QBEHXZ
	cmp	esi, esp
	call	__RTC_CheckEsp
	mov	ecx, DWORD PTR _resultLength$[ebp]
	mov	DWORD PTR [ecx], eax
; Line 86
	mov	eax, DWORD PTR _resultLength$[ebp]
	mov	ecx, DWORD PTR [eax]
	push	ecx
	call	_uprv_malloc_56
	add	esp, 4
	mov	edx, DWORD PTR _result$[ebp]
	mov	DWORD PTR [edx], eax
; Line 87
	mov	eax, DWORD PTR _resultLength$[ebp]
	mov	ecx, DWORD PTR [eax]
	push	ecx
	mov	esi, esp
	lea	ecx, DWORD PTR _s$[ebp]
	call	DWORD PTR __imp_?getBuffer@UnicodeString@icu_56@@QBEPB_WXZ
	cmp	esi, esp
	call	__RTC_CheckEsp
	push	eax
	mov	edx, DWORD PTR _result$[ebp]
	mov	eax, DWORD PTR [edx]
	push	eax
	call	_memcpy
	add	esp, 12					; 0000000cH
; Line 89
	mov	esi, esp
	lea	ecx, DWORD PTR _s$[ebp]
	call	DWORD PTR __imp_??1UnicodeString@icu_56@@UAE@XZ
	cmp	esi, esp
	call	__RTC_CheckEsp
; Line 90
	push	edx
	mov	ecx, ebp
	push	eax
	lea	edx, DWORD PTR $LN5@vzone_writ
	call	@_RTC_CheckStackVars@8
	pop	eax
	pop	edx
	pop	edi
	pop	esi
	pop	ebx
	mov	ecx, DWORD PTR __$ArrayPad$[ebp]
	xor	ecx, ebp
	call	@__security_check_cookie@4
	add	esp, 268				; 0000010cH
	cmp	ebp, esp
	call	__RTC_CheckEsp
	mov	esp, ebp
	pop	ebp
	ret	0
$LN5@vzone_writ:
	DD	1
	DD	$LN4@vzone_writ
$LN4@vzone_writ:
	DD	-72					; ffffffb8H
	DD	64					; 00000040H
	DD	$LN3@vzone_writ
$LN3@vzone_writ:
	DB	115					; 00000073H
	DB	0
_vzone_write_56 ENDP
_TEXT	ENDS
PUBLIC	__$ArrayPad$
PUBLIC	_vzone_writeFromStart_56
EXTRN	?write@VTimeZone@icu_56@@QBEXNAAVUnicodeString@2@AAW4UErrorCode@@@Z:PROC ; icu_56::VTimeZone::write
; Function compile flags: /Odtp /RTCsu /ZI
;	COMDAT _vzone_writeFromStart_56
_TEXT	SEGMENT
_s$ = -72						; size = 64
__$ArrayPad$ = -4					; size = 4
_zone$ = 8						; size = 4
_start$ = 12						; size = 8
_result$ = 20						; size = 4
_resultLength$ = 24					; size = 4
_status$ = 28						; size = 4
_vzone_writeFromStart_56 PROC				; COMDAT
; Line 93
	push	ebp
	mov	ebp, esp
	sub	esp, 268				; 0000010cH
	push	ebx
	push	esi
	push	edi
	lea	edi, DWORD PTR [ebp-268]
	mov	ecx, 67					; 00000043H
	mov	eax, -858993460				; ccccccccH
	rep stosd
	mov	eax, DWORD PTR ___security_cookie
	xor	eax, ebp
	mov	DWORD PTR __$ArrayPad$[ebp], eax
; Line 94
	mov	esi, esp
	lea	ecx, DWORD PTR _s$[ebp]
	call	DWORD PTR __imp_??0UnicodeString@icu_56@@QAE@XZ
	cmp	esi, esp
	call	__RTC_CheckEsp
; Line 95
	mov	eax, DWORD PTR _status$[ebp]
	push	eax
	lea	ecx, DWORD PTR _s$[ebp]
	push	ecx
	sub	esp, 8
	fld	QWORD PTR _start$[ebp]
	fstp	QWORD PTR [esp]
	mov	ecx, DWORD PTR _zone$[ebp]
	call	?write@VTimeZone@icu_56@@QBEXNAAVUnicodeString@2@AAW4UErrorCode@@@Z ; icu_56::VTimeZone::write
; Line 97
	mov	esi, esp
	lea	ecx, DWORD PTR _s$[ebp]
	call	DWORD PTR __imp_?length@UnicodeString@icu_56@@QBEHXZ
	cmp	esi, esp
	call	__RTC_CheckEsp
	mov	ecx, DWORD PTR _resultLength$[ebp]
	mov	DWORD PTR [ecx], eax
; Line 98
	mov	eax, DWORD PTR _resultLength$[ebp]
	mov	ecx, DWORD PTR [eax]
	push	ecx
	call	_uprv_malloc_56
	add	esp, 4
	mov	edx, DWORD PTR _result$[ebp]
	mov	DWORD PTR [edx], eax
; Line 99
	mov	eax, DWORD PTR _resultLength$[ebp]
	mov	ecx, DWORD PTR [eax]
	push	ecx
	mov	esi, esp
	lea	ecx, DWORD PTR _s$[ebp]
	call	DWORD PTR __imp_?getBuffer@UnicodeString@icu_56@@QBEPB_WXZ
	cmp	esi, esp
	call	__RTC_CheckEsp
	push	eax
	mov	edx, DWORD PTR _result$[ebp]
	mov	eax, DWORD PTR [edx]
	push	eax
	call	_memcpy
	add	esp, 12					; 0000000cH
; Line 101
	mov	esi, esp
	lea	ecx, DWORD PTR _s$[ebp]
	call	DWORD PTR __imp_??1UnicodeString@icu_56@@UAE@XZ
	cmp	esi, esp
	call	__RTC_CheckEsp
; Line 102
	push	edx
	mov	ecx, ebp
	push	eax
	lea	edx, DWORD PTR $LN5@vzone_writ@2
	call	@_RTC_CheckStackVars@8
	pop	eax
	pop	edx
	pop	edi
	pop	esi
	pop	ebx
	mov	ecx, DWORD PTR __$ArrayPad$[ebp]
	xor	ecx, ebp
	call	@__security_check_cookie@4
	add	esp, 268				; 0000010cH
	cmp	ebp, esp
	call	__RTC_CheckEsp
	mov	esp, ebp
	pop	ebp
	ret	0
	npad	3
$LN5@vzone_writ@2:
	DD	1
	DD	$LN4@vzone_writ@2
$LN4@vzone_writ@2:
	DD	-72					; ffffffb8H
	DD	64					; 00000040H
	DD	$LN3@vzone_writ@2
$LN3@vzone_writ@2:
	DB	115					; 00000073H
	DB	0
_vzone_writeFromStart_56 ENDP
_TEXT	ENDS
PUBLIC	__$ArrayPad$
PUBLIC	_vzone_writeSimple_56
EXTRN	?writeSimple@VTimeZone@icu_56@@QBEXNAAVUnicodeString@2@AAW4UErrorCode@@@Z:PROC ; icu_56::VTimeZone::writeSimple
; Function compile flags: /Odtp /RTCsu /ZI
;	COMDAT _vzone_writeSimple_56
_TEXT	SEGMENT
_s$ = -72						; size = 64
__$ArrayPad$ = -4					; size = 4
_zone$ = 8						; size = 4
_time$ = 12						; size = 8
_result$ = 20						; size = 4
_resultLength$ = 24					; size = 4
_status$ = 28						; size = 4
_vzone_writeSimple_56 PROC				; COMDAT
; Line 105
	push	ebp
	mov	ebp, esp
	sub	esp, 268				; 0000010cH
	push	ebx
	push	esi
	push	edi
	lea	edi, DWORD PTR [ebp-268]
	mov	ecx, 67					; 00000043H
	mov	eax, -858993460				; ccccccccH
	rep stosd
	mov	eax, DWORD PTR ___security_cookie
	xor	eax, ebp
	mov	DWORD PTR __$ArrayPad$[ebp], eax
; Line 106
	mov	esi, esp
	lea	ecx, DWORD PTR _s$[ebp]
	call	DWORD PTR __imp_??0UnicodeString@icu_56@@QAE@XZ
	cmp	esi, esp
	call	__RTC_CheckEsp
; Line 107
	mov	eax, DWORD PTR _status$[ebp]
	push	eax
	lea	ecx, DWORD PTR _s$[ebp]
	push	ecx
	sub	esp, 8
	fld	QWORD PTR _time$[ebp]
	fstp	QWORD PTR [esp]
	mov	ecx, DWORD PTR _zone$[ebp]
	call	?writeSimple@VTimeZone@icu_56@@QBEXNAAVUnicodeString@2@AAW4UErrorCode@@@Z ; icu_56::VTimeZone::writeSimple
; Line 109
	mov	esi, esp
	lea	ecx, DWORD PTR _s$[ebp]
	call	DWORD PTR __imp_?length@UnicodeString@icu_56@@QBEHXZ
	cmp	esi, esp
	call	__RTC_CheckEsp
	mov	ecx, DWORD PTR _resultLength$[ebp]
	mov	DWORD PTR [ecx], eax
; Line 110
	mov	eax, DWORD PTR _resultLength$[ebp]
	mov	ecx, DWORD PTR [eax]
	push	ecx
	call	_uprv_malloc_56
	add	esp, 4
	mov	edx, DWORD PTR _result$[ebp]
	mov	DWORD PTR [edx], eax
; Line 111
	mov	eax, DWORD PTR _resultLength$[ebp]
	mov	ecx, DWORD PTR [eax]
	push	ecx
	mov	esi, esp
	lea	ecx, DWORD PTR _s$[ebp]
	call	DWORD PTR __imp_?getBuffer@UnicodeString@icu_56@@QBEPB_WXZ
	cmp	esi, esp
	call	__RTC_CheckEsp
	push	eax
	mov	edx, DWORD PTR _result$[ebp]
	mov	eax, DWORD PTR [edx]
	push	eax
	call	_memcpy
	add	esp, 12					; 0000000cH
; Line 113
	mov	esi, esp
	lea	ecx, DWORD PTR _s$[ebp]
	call	DWORD PTR __imp_??1UnicodeString@icu_56@@UAE@XZ
	cmp	esi, esp
	call	__RTC_CheckEsp
; Line 114
	push	edx
	mov	ecx, ebp
	push	eax
	lea	edx, DWORD PTR $LN5@vzone_writ@3
	call	@_RTC_CheckStackVars@8
	pop	eax
	pop	edx
	pop	edi
	pop	esi
	pop	ebx
	mov	ecx, DWORD PTR __$ArrayPad$[ebp]
	xor	ecx, ebp
	call	@__security_check_cookie@4
	add	esp, 268				; 0000010cH
	cmp	ebp, esp
	call	__RTC_CheckEsp
	mov	esp, ebp
	pop	ebp
	ret	0
	npad	3
$LN5@vzone_writ@3:
	DD	1
	DD	$LN4@vzone_writ@3
$LN4@vzone_writ@3:
	DD	-72					; ffffffb8H
	DD	64					; 00000040H
	DD	$LN3@vzone_writ@3
$LN3@vzone_writ@3:
	DB	115					; 00000073H
	DB	0
_vzone_writeSimple_56 ENDP
_TEXT	ENDS
PUBLIC	_vzone_getOffset_56
EXTRN	?getOffset@VTimeZone@icu_56@@UBEHEHHHEHAAW4UErrorCode@@@Z:PROC ; icu_56::VTimeZone::getOffset
; Function compile flags: /Odtp /RTCsu /ZI
;	COMDAT _vzone_getOffset_56
_TEXT	SEGMENT
_zone$ = 8						; size = 4
_era$ = 12						; size = 1
_year$ = 16						; size = 4
_month$ = 20						; size = 4
_day$ = 24						; size = 4
_dayOfWeek$ = 28					; size = 1
_millis$ = 32						; size = 4
_status$ = 36						; size = 4
_vzone_getOffset_56 PROC				; COMDAT
; Line 118
	push	ebp
	mov	ebp, esp
	sub	esp, 192				; 000000c0H
	push	ebx
	push	esi
	push	edi
	lea	edi, DWORD PTR [ebp-192]
	mov	ecx, 48					; 00000030H
	mov	eax, -858993460				; ccccccccH
	rep stosd
; Line 119
	mov	eax, DWORD PTR _status$[ebp]
	push	eax
	mov	ecx, DWORD PTR _millis$[ebp]
	push	ecx
	movzx	edx, BYTE PTR _dayOfWeek$[ebp]
	push	edx
	mov	eax, DWORD PTR _day$[ebp]
	push	eax
	mov	ecx, DWORD PTR _month$[ebp]
	push	ecx
	mov	edx, DWORD PTR _year$[ebp]
	push	edx
	movzx	eax, BYTE PTR _era$[ebp]
	push	eax
	mov	ecx, DWORD PTR _zone$[ebp]
	call	?getOffset@VTimeZone@icu_56@@UBEHEHHHEHAAW4UErrorCode@@@Z ; icu_56::VTimeZone::getOffset
; Line 120
	pop	edi
	pop	esi
	pop	ebx
	add	esp, 192				; 000000c0H
	cmp	ebp, esp
	call	__RTC_CheckEsp
	mov	esp, ebp
	pop	ebp
	ret	0
_vzone_getOffset_56 ENDP
_TEXT	ENDS
PUBLIC	_vzone_getOffset2_56
EXTRN	?getOffset@VTimeZone@icu_56@@UBEHEHHHEHHAAW4UErrorCode@@@Z:PROC ; icu_56::VTimeZone::getOffset
; Function compile flags: /Odtp /RTCsu /ZI
;	COMDAT _vzone_getOffset2_56
_TEXT	SEGMENT
_zone$ = 8						; size = 4
_era$ = 12						; size = 1
_year$ = 16						; size = 4
_month$ = 20						; size = 4
_day$ = 24						; size = 4
_dayOfWeek$ = 28					; size = 1
_millis$ = 32						; size = 4
_monthLength$ = 36					; size = 4
_status$ = 40						; size = 4
_vzone_getOffset2_56 PROC				; COMDAT
; Line 125
	push	ebp
	mov	ebp, esp
	sub	esp, 192				; 000000c0H
	push	ebx
	push	esi
	push	edi
	lea	edi, DWORD PTR [ebp-192]
	mov	ecx, 48					; 00000030H
	mov	eax, -858993460				; ccccccccH
	rep stosd
; Line 126
	mov	eax, DWORD PTR _status$[ebp]
	push	eax
	mov	ecx, DWORD PTR _monthLength$[ebp]
	push	ecx
	mov	edx, DWORD PTR _millis$[ebp]
	push	edx
	movzx	eax, BYTE PTR _dayOfWeek$[ebp]
	push	eax
	mov	ecx, DWORD PTR _day$[ebp]
	push	ecx
	mov	edx, DWORD PTR _month$[ebp]
	push	edx
	mov	eax, DWORD PTR _year$[ebp]
	push	eax
	movzx	ecx, BYTE PTR _era$[ebp]
	push	ecx
	mov	ecx, DWORD PTR _zone$[ebp]
	call	?getOffset@VTimeZone@icu_56@@UBEHEHHHEHHAAW4UErrorCode@@@Z ; icu_56::VTimeZone::getOffset
; Line 127
	pop	edi
	pop	esi
	pop	ebx
	add	esp, 192				; 000000c0H
	cmp	ebp, esp
	call	__RTC_CheckEsp
	mov	esp, ebp
	pop	ebp
	ret	0
_vzone_getOffset2_56 ENDP
_TEXT	ENDS
PUBLIC	_vzone_getOffset3_56
EXTRN	?getOffset@VTimeZone@icu_56@@UBEXNCAAH0AAW4UErrorCode@@@Z:PROC ; icu_56::VTimeZone::getOffset
; Function compile flags: /Odtp /RTCsu /ZI
;	COMDAT _vzone_getOffset3_56
_TEXT	SEGMENT
_zone$ = 8						; size = 4
_date$ = 12						; size = 8
_local$ = 20						; size = 1
_rawOffset$ = 24					; size = 4
_dstOffset$ = 28					; size = 4
_ec$ = 32						; size = 4
_vzone_getOffset3_56 PROC				; COMDAT
; Line 131
	push	ebp
	mov	ebp, esp
	sub	esp, 192				; 000000c0H
	push	ebx
	push	esi
	push	edi
	lea	edi, DWORD PTR [ebp-192]
	mov	ecx, 48					; 00000030H
	mov	eax, -858993460				; ccccccccH
	rep stosd
; Line 132
	mov	eax, DWORD PTR _ec$[ebp]
	push	eax
	mov	ecx, DWORD PTR _dstOffset$[ebp]
	push	ecx
	mov	edx, DWORD PTR _rawOffset$[ebp]
	push	edx
	movzx	eax, BYTE PTR _local$[ebp]
	push	eax
	sub	esp, 8
	fld	QWORD PTR _date$[ebp]
	fstp	QWORD PTR [esp]
	mov	ecx, DWORD PTR _zone$[ebp]
	call	?getOffset@VTimeZone@icu_56@@UBEXNCAAH0AAW4UErrorCode@@@Z ; icu_56::VTimeZone::getOffset
; Line 133
	pop	edi
	pop	esi
	pop	ebx
	add	esp, 192				; 000000c0H
	cmp	ebp, esp
	call	__RTC_CheckEsp
	mov	esp, ebp
	pop	ebp
	ret	0
_vzone_getOffset3_56 ENDP
_TEXT	ENDS
PUBLIC	_vzone_setRawOffset_56
EXTRN	?setRawOffset@VTimeZone@icu_56@@UAEXH@Z:PROC	; icu_56::VTimeZone::setRawOffset
; Function compile flags: /Odtp /RTCsu /ZI
;	COMDAT _vzone_setRawOffset_56
_TEXT	SEGMENT
_zone$ = 8						; size = 4
_offsetMillis$ = 12					; size = 4
_vzone_setRawOffset_56 PROC				; COMDAT
; Line 136
	push	ebp
	mov	ebp, esp
	sub	esp, 192				; 000000c0H
	push	ebx
	push	esi
	push	edi
	lea	edi, DWORD PTR [ebp-192]
	mov	ecx, 48					; 00000030H
	mov	eax, -858993460				; ccccccccH
	rep stosd
; Line 137
	mov	eax, DWORD PTR _offsetMillis$[ebp]
	push	eax
	mov	ecx, DWORD PTR _zone$[ebp]
	call	?setRawOffset@VTimeZone@icu_56@@UAEXH@Z	; icu_56::VTimeZone::setRawOffset
; Line 138
	pop	edi
	pop	esi
	pop	ebx
	add	esp, 192				; 000000c0H
	cmp	ebp, esp
	call	__RTC_CheckEsp
	mov	esp, ebp
	pop	ebp
	ret	0
_vzone_setRawOffset_56 ENDP
_TEXT	ENDS
PUBLIC	_vzone_getRawOffset_56
EXTRN	?getRawOffset@VTimeZone@icu_56@@UBEHXZ:PROC	; icu_56::VTimeZone::getRawOffset
; Function compile flags: /Odtp /RTCsu /ZI
;	COMDAT _vzone_getRawOffset_56
_TEXT	SEGMENT
_zone$ = 8						; size = 4
_vzone_getRawOffset_56 PROC				; COMDAT
; Line 141
	push	ebp
	mov	ebp, esp
	sub	esp, 192				; 000000c0H
	push	ebx
	push	esi
	push	edi
	lea	edi, DWORD PTR [ebp-192]
	mov	ecx, 48					; 00000030H
	mov	eax, -858993460				; ccccccccH
	rep stosd
; Line 142
	mov	ecx, DWORD PTR _zone$[ebp]
	call	?getRawOffset@VTimeZone@icu_56@@UBEHXZ	; icu_56::VTimeZone::getRawOffset
; Line 143
	pop	edi
	pop	esi
	pop	ebx
	add	esp, 192				; 000000c0H
	cmp	ebp, esp
	call	__RTC_CheckEsp
	mov	esp, ebp
	pop	ebp
	ret	0
_vzone_getRawOffset_56 ENDP
_TEXT	ENDS
PUBLIC	_vzone_useDaylightTime_56
EXTRN	?useDaylightTime@VTimeZone@icu_56@@UBECXZ:PROC	; icu_56::VTimeZone::useDaylightTime
; Function compile flags: /Odtp /RTCsu /ZI
;	COMDAT _vzone_useDaylightTime_56
_TEXT	SEGMENT
_zone$ = 8						; size = 4
_vzone_useDaylightTime_56 PROC				; COMDAT
; Line 146
	push	ebp
	mov	ebp, esp
	sub	esp, 192				; 000000c0H
	push	ebx
	push	esi
	push	edi
	lea	edi, DWORD PTR [ebp-192]
	mov	ecx, 48					; 00000030H
	mov	eax, -858993460				; ccccccccH
	rep stosd
; Line 147
	mov	ecx, DWORD PTR _zone$[ebp]
	call	?useDaylightTime@VTimeZone@icu_56@@UBECXZ ; icu_56::VTimeZone::useDaylightTime
; Line 148
	pop	edi
	pop	esi
	pop	ebx
	add	esp, 192				; 000000c0H
	cmp	ebp, esp
	call	__RTC_CheckEsp
	mov	esp, ebp
	pop	ebp
	ret	0
_vzone_useDaylightTime_56 ENDP
_TEXT	ENDS
PUBLIC	_vzone_inDaylightTime_56
EXTRN	?inDaylightTime@VTimeZone@icu_56@@UBECNAAW4UErrorCode@@@Z:PROC ; icu_56::VTimeZone::inDaylightTime
; Function compile flags: /Odtp /RTCsu /ZI
;	COMDAT _vzone_inDaylightTime_56
_TEXT	SEGMENT
_zone$ = 8						; size = 4
_date$ = 12						; size = 8
_status$ = 20						; size = 4
_vzone_inDaylightTime_56 PROC				; COMDAT
; Line 151
	push	ebp
	mov	ebp, esp
	sub	esp, 192				; 000000c0H
	push	ebx
	push	esi
	push	edi
	lea	edi, DWORD PTR [ebp-192]
	mov	ecx, 48					; 00000030H
	mov	eax, -858993460				; ccccccccH
	rep stosd
; Line 152
	mov	eax, DWORD PTR _status$[ebp]
	push	eax
	sub	esp, 8
	fld	QWORD PTR _date$[ebp]
	fstp	QWORD PTR [esp]
	mov	ecx, DWORD PTR _zone$[ebp]
	call	?inDaylightTime@VTimeZone@icu_56@@UBECNAAW4UErrorCode@@@Z ; icu_56::VTimeZone::inDaylightTime
; Line 153
	pop	edi
	pop	esi
	pop	ebx
	add	esp, 192				; 000000c0H
	cmp	ebp, esp
	call	__RTC_CheckEsp
	mov	esp, ebp
	pop	ebp
	ret	0
_vzone_inDaylightTime_56 ENDP
_TEXT	ENDS
PUBLIC	_vzone_hasSameRules_56
EXTRN	?hasSameRules@VTimeZone@icu_56@@UBECABVTimeZone@2@@Z:PROC ; icu_56::VTimeZone::hasSameRules
; Function compile flags: /Odtp /RTCsu /ZI
;	COMDAT _vzone_hasSameRules_56
_TEXT	SEGMENT
_zone$ = 8						; size = 4
_other$ = 12						; size = 4
_vzone_hasSameRules_56 PROC				; COMDAT
; Line 156
	push	ebp
	mov	ebp, esp
	sub	esp, 192				; 000000c0H
	push	ebx
	push	esi
	push	edi
	lea	edi, DWORD PTR [ebp-192]
	mov	ecx, 48					; 00000030H
	mov	eax, -858993460				; ccccccccH
	rep stosd
; Line 157
	mov	eax, DWORD PTR _other$[ebp]
	push	eax
	mov	ecx, DWORD PTR _zone$[ebp]
	call	?hasSameRules@VTimeZone@icu_56@@UBECABVTimeZone@2@@Z ; icu_56::VTimeZone::hasSameRules
; Line 158
	pop	edi
	pop	esi
	pop	ebx
	add	esp, 192				; 000000c0H
	cmp	ebp, esp
	call	__RTC_CheckEsp
	mov	esp, ebp
	pop	ebp
	ret	0
_vzone_hasSameRules_56 ENDP
_TEXT	ENDS
PUBLIC	_vzone_getNextTransition_56
EXTRN	?getNextTransition@VTimeZone@icu_56@@UBECNCAAVTimeZoneTransition@2@@Z:PROC ; icu_56::VTimeZone::getNextTransition
; Function compile flags: /Odtp /RTCsu /ZI
;	COMDAT _vzone_getNextTransition_56
_TEXT	SEGMENT
_zone$ = 8						; size = 4
_base$ = 12						; size = 8
_inclusive$ = 20					; size = 1
_result$ = 24						; size = 4
_vzone_getNextTransition_56 PROC			; COMDAT
; Line 161
	push	ebp
	mov	ebp, esp
	sub	esp, 192				; 000000c0H
	push	ebx
	push	esi
	push	edi
	lea	edi, DWORD PTR [ebp-192]
	mov	ecx, 48					; 00000030H
	mov	eax, -858993460				; ccccccccH
	rep stosd
; Line 162
	mov	eax, DWORD PTR _result$[ebp]
	push	eax
	movzx	ecx, BYTE PTR _inclusive$[ebp]
	push	ecx
	sub	esp, 8
	fld	QWORD PTR _base$[ebp]
	fstp	QWORD PTR [esp]
	mov	ecx, DWORD PTR _zone$[ebp]
	call	?getNextTransition@VTimeZone@icu_56@@UBECNCAAVTimeZoneTransition@2@@Z ; icu_56::VTimeZone::getNextTransition
; Line 163
	pop	edi
	pop	esi
	pop	ebx
	add	esp, 192				; 000000c0H
	cmp	ebp, esp
	call	__RTC_CheckEsp
	mov	esp, ebp
	pop	ebp
	ret	0
_vzone_getNextTransition_56 ENDP
_TEXT	ENDS
PUBLIC	_vzone_getPreviousTransition_56
EXTRN	?getPreviousTransition@VTimeZone@icu_56@@UBECNCAAVTimeZoneTransition@2@@Z:PROC ; icu_56::VTimeZone::getPreviousTransition
; Function compile flags: /Odtp /RTCsu /ZI
;	COMDAT _vzone_getPreviousTransition_56
_TEXT	SEGMENT
_zone$ = 8						; size = 4
_base$ = 12						; size = 8
_inclusive$ = 20					; size = 1
_result$ = 24						; size = 4
_vzone_getPreviousTransition_56 PROC			; COMDAT
; Line 166
	push	ebp
	mov	ebp, esp
	sub	esp, 192				; 000000c0H
	push	ebx
	push	esi
	push	edi
	lea	edi, DWORD PTR [ebp-192]
	mov	ecx, 48					; 00000030H
	mov	eax, -858993460				; ccccccccH
	rep stosd
; Line 167
	mov	eax, DWORD PTR _result$[ebp]
	push	eax
	movzx	ecx, BYTE PTR _inclusive$[ebp]
	push	ecx
	sub	esp, 8
	fld	QWORD PTR _base$[ebp]
	fstp	QWORD PTR [esp]
	mov	ecx, DWORD PTR _zone$[ebp]
	call	?getPreviousTransition@VTimeZone@icu_56@@UBECNCAAVTimeZoneTransition@2@@Z ; icu_56::VTimeZone::getPreviousTransition
; Line 168
	pop	edi
	pop	esi
	pop	ebx
	add	esp, 192				; 000000c0H
	cmp	ebp, esp
	call	__RTC_CheckEsp
	mov	esp, ebp
	pop	ebp
	ret	0
_vzone_getPreviousTransition_56 ENDP
_TEXT	ENDS
PUBLIC	_vzone_countTransitionRules_56
EXTRN	?countTransitionRules@VTimeZone@icu_56@@UBEHAAW4UErrorCode@@@Z:PROC ; icu_56::VTimeZone::countTransitionRules
; Function compile flags: /Odtp /RTCsu /ZI
;	COMDAT _vzone_countTransitionRules_56
_TEXT	SEGMENT
_zone$ = 8						; size = 4
_status$ = 12						; size = 4
_vzone_countTransitionRules_56 PROC			; COMDAT
; Line 171
	push	ebp
	mov	ebp, esp
	sub	esp, 192				; 000000c0H
	push	ebx
	push	esi
	push	edi
	lea	edi, DWORD PTR [ebp-192]
	mov	ecx, 48					; 00000030H
	mov	eax, -858993460				; ccccccccH
	rep stosd
; Line 172
	mov	eax, DWORD PTR _status$[ebp]
	push	eax
	mov	ecx, DWORD PTR _zone$[ebp]
	call	?countTransitionRules@VTimeZone@icu_56@@UBEHAAW4UErrorCode@@@Z ; icu_56::VTimeZone::countTransitionRules
; Line 173
	pop	edi
	pop	esi
	pop	ebx
	add	esp, 192				; 000000c0H
	cmp	ebp, esp
	call	__RTC_CheckEsp
	mov	esp, ebp
	pop	ebp
	ret	0
_vzone_countTransitionRules_56 ENDP
_TEXT	ENDS
PUBLIC	_vzone_getStaticClassID_56
EXTRN	?getStaticClassID@VTimeZone@icu_56@@SAPAXXZ:PROC ; icu_56::VTimeZone::getStaticClassID
; Function compile flags: /Odtp /RTCsu /ZI
;	COMDAT _vzone_getStaticClassID_56
_TEXT	SEGMENT
_zone$ = 8						; size = 4
_vzone_getStaticClassID_56 PROC				; COMDAT
; Line 176
	push	ebp
	mov	ebp, esp
	sub	esp, 192				; 000000c0H
	push	ebx
	push	esi
	push	edi
	lea	edi, DWORD PTR [ebp-192]
	mov	ecx, 48					; 00000030H
	mov	eax, -858993460				; ccccccccH
	rep stosd
; Line 177
	call	?getStaticClassID@VTimeZone@icu_56@@SAPAXXZ ; icu_56::VTimeZone::getStaticClassID
; Line 178
	pop	edi
	pop	esi
	pop	ebx
	add	esp, 192				; 000000c0H
	cmp	ebp, esp
	call	__RTC_CheckEsp
	mov	esp, ebp
	pop	ebp
	ret	0
_vzone_getStaticClassID_56 ENDP
_TEXT	ENDS
PUBLIC	_vzone_getDynamicClassID_56
EXTRN	?getDynamicClassID@VTimeZone@icu_56@@UBEPAXXZ:PROC ; icu_56::VTimeZone::getDynamicClassID
; Function compile flags: /Odtp /RTCsu /ZI
;	COMDAT _vzone_getDynamicClassID_56
_TEXT	SEGMENT
_zone$ = 8						; size = 4
_vzone_getDynamicClassID_56 PROC			; COMDAT
; Line 181
	push	ebp
	mov	ebp, esp
	sub	esp, 192				; 000000c0H
	push	ebx
	push	esi
	push	edi
	lea	edi, DWORD PTR [ebp-192]
	mov	ecx, 48					; 00000030H
	mov	eax, -858993460				; ccccccccH
	rep stosd
; Line 182
	mov	ecx, DWORD PTR _zone$[ebp]
	call	?getDynamicClassID@VTimeZone@icu_56@@UBEPAXXZ ; icu_56::VTimeZone::getDynamicClassID
; Line 183
	pop	edi
	pop	esi
	pop	ebx
	add	esp, 192				; 000000c0H
	cmp	ebp, esp
	call	__RTC_CheckEsp
	mov	esp, ebp
	pop	ebp
	ret	0
_vzone_getDynamicClassID_56 ENDP
_TEXT	ENDS
END
