; Listing generated by Microsoft (R) Optimizing Compiler Version 16.00.40219.01 

	TITLE	D:\mozilla\intl\icu\source\i18n\windtfmt.cpp
	.686P
	.XMM
	include listing.inc
	.model	flat

INCLUDELIB MSVCRTD
INCLUDELIB OLDNAMES

PUBLIC	?value@?$integral_constant@_N$0A@@tr1@std@@2_NB	; std::tr1::integral_constant<bool,0>::value
PUBLIC	?value@?$integral_constant@_N$00@tr1@std@@2_NB	; std::tr1::integral_constant<bool,1>::value
PUBLIC	?value@?$integral_constant@I$0A@@tr1@std@@2IB	; std::tr1::integral_constant<unsigned int,0>::value
PUBLIC	?_Rank@?$_Arithmetic_traits@_N@std@@2HB		; std::_Arithmetic_traits<bool>::_Rank
PUBLIC	?_Rank@?$_Arithmetic_traits@D@std@@2HB		; std::_Arithmetic_traits<char>::_Rank
PUBLIC	?_Rank@?$_Arithmetic_traits@C@std@@2HB		; std::_Arithmetic_traits<signed char>::_Rank
PUBLIC	?_Rank@?$_Arithmetic_traits@E@std@@2HB		; std::_Arithmetic_traits<unsigned char>::_Rank
PUBLIC	?_Rank@?$_Arithmetic_traits@F@std@@2HB		; std::_Arithmetic_traits<short>::_Rank
PUBLIC	?_Rank@?$_Arithmetic_traits@G@std@@2HB		; std::_Arithmetic_traits<unsigned short>::_Rank
PUBLIC	?_Rank@?$_Arithmetic_traits@H@std@@2HB		; std::_Arithmetic_traits<int>::_Rank
PUBLIC	?_Rank@?$_Arithmetic_traits@I@std@@2HB		; std::_Arithmetic_traits<unsigned int>::_Rank
PUBLIC	?_Rank@?$_Arithmetic_traits@J@std@@2HB		; std::_Arithmetic_traits<long>::_Rank
PUBLIC	?_Rank@?$_Arithmetic_traits@K@std@@2HB		; std::_Arithmetic_traits<unsigned long>::_Rank
PUBLIC	?_Rank@?$_Arithmetic_traits@_J@std@@2HB		; std::_Arithmetic_traits<__int64>::_Rank
PUBLIC	?_Rank@?$_Arithmetic_traits@_K@std@@2HB		; std::_Arithmetic_traits<unsigned __int64>::_Rank
PUBLIC	?_Rank@?$_Arithmetic_traits@M@std@@2HB		; std::_Arithmetic_traits<float>::_Rank
PUBLIC	?_Rank@?$_Arithmetic_traits@N@std@@2HB		; std::_Arithmetic_traits<double>::_Rank
PUBLIC	?_Rank@?$_Arithmetic_traits@O@std@@2HB		; std::_Arithmetic_traits<long double>::_Rank
PUBLIC	?collate@?$_Locbase@H@std@@2HB			; std::_Locbase<int>::collate
PUBLIC	?ctype@?$_Locbase@H@std@@2HB			; std::_Locbase<int>::ctype
PUBLIC	?monetary@?$_Locbase@H@std@@2HB			; std::_Locbase<int>::monetary
PUBLIC	?numeric@?$_Locbase@H@std@@2HB			; std::_Locbase<int>::numeric
PUBLIC	?time@?$_Locbase@H@std@@2HB			; std::_Locbase<int>::time
PUBLIC	?messages@?$_Locbase@H@std@@2HB			; std::_Locbase<int>::messages
PUBLIC	?all@?$_Locbase@H@std@@2HB			; std::_Locbase<int>::all
PUBLIC	?none@?$_Locbase@H@std@@2HB			; std::_Locbase<int>::none
PUBLIC	?skipws@?$_Iosb@H@std@@2W4_Fmtflags@12@B	; std::_Iosb<int>::skipws
PUBLIC	?unitbuf@?$_Iosb@H@std@@2W4_Fmtflags@12@B	; std::_Iosb<int>::unitbuf
PUBLIC	?uppercase@?$_Iosb@H@std@@2W4_Fmtflags@12@B	; std::_Iosb<int>::uppercase
PUBLIC	?showbase@?$_Iosb@H@std@@2W4_Fmtflags@12@B	; std::_Iosb<int>::showbase
PUBLIC	?showpoint@?$_Iosb@H@std@@2W4_Fmtflags@12@B	; std::_Iosb<int>::showpoint
PUBLIC	?showpos@?$_Iosb@H@std@@2W4_Fmtflags@12@B	; std::_Iosb<int>::showpos
PUBLIC	?left@?$_Iosb@H@std@@2W4_Fmtflags@12@B		; std::_Iosb<int>::left
PUBLIC	?right@?$_Iosb@H@std@@2W4_Fmtflags@12@B		; std::_Iosb<int>::right
PUBLIC	?internal@?$_Iosb@H@std@@2W4_Fmtflags@12@B	; std::_Iosb<int>::internal
PUBLIC	?dec@?$_Iosb@H@std@@2W4_Fmtflags@12@B		; std::_Iosb<int>::dec
PUBLIC	?oct@?$_Iosb@H@std@@2W4_Fmtflags@12@B		; std::_Iosb<int>::oct
PUBLIC	?hex@?$_Iosb@H@std@@2W4_Fmtflags@12@B		; std::_Iosb<int>::hex
PUBLIC	?scientific@?$_Iosb@H@std@@2W4_Fmtflags@12@B	; std::_Iosb<int>::scientific
PUBLIC	?fixed@?$_Iosb@H@std@@2W4_Fmtflags@12@B		; std::_Iosb<int>::fixed
PUBLIC	?hexfloat@?$_Iosb@H@std@@2W4_Fmtflags@12@B	; std::_Iosb<int>::hexfloat
PUBLIC	?boolalpha@?$_Iosb@H@std@@2W4_Fmtflags@12@B	; std::_Iosb<int>::boolalpha
PUBLIC	?_Stdio@?$_Iosb@H@std@@2W4_Fmtflags@12@B	; std::_Iosb<int>::_Stdio
PUBLIC	?adjustfield@?$_Iosb@H@std@@2W4_Fmtflags@12@B	; std::_Iosb<int>::adjustfield
PUBLIC	?basefield@?$_Iosb@H@std@@2W4_Fmtflags@12@B	; std::_Iosb<int>::basefield
PUBLIC	?floatfield@?$_Iosb@H@std@@2W4_Fmtflags@12@B	; std::_Iosb<int>::floatfield
PUBLIC	?goodbit@?$_Iosb@H@std@@2W4_Iostate@12@B	; std::_Iosb<int>::goodbit
PUBLIC	?eofbit@?$_Iosb@H@std@@2W4_Iostate@12@B		; std::_Iosb<int>::eofbit
PUBLIC	?failbit@?$_Iosb@H@std@@2W4_Iostate@12@B	; std::_Iosb<int>::failbit
PUBLIC	?badbit@?$_Iosb@H@std@@2W4_Iostate@12@B		; std::_Iosb<int>::badbit
PUBLIC	?_Hardfail@?$_Iosb@H@std@@2W4_Iostate@12@B	; std::_Iosb<int>::_Hardfail
PUBLIC	?in@?$_Iosb@H@std@@2W4_Openmode@12@B		; std::_Iosb<int>::in
PUBLIC	?out@?$_Iosb@H@std@@2W4_Openmode@12@B		; std::_Iosb<int>::out
PUBLIC	?ate@?$_Iosb@H@std@@2W4_Openmode@12@B		; std::_Iosb<int>::ate
PUBLIC	?app@?$_Iosb@H@std@@2W4_Openmode@12@B		; std::_Iosb<int>::app
PUBLIC	?trunc@?$_Iosb@H@std@@2W4_Openmode@12@B		; std::_Iosb<int>::trunc
PUBLIC	?_Nocreate@?$_Iosb@H@std@@2W4_Openmode@12@B	; std::_Iosb<int>::_Nocreate
PUBLIC	?_Noreplace@?$_Iosb@H@std@@2W4_Openmode@12@B	; std::_Iosb<int>::_Noreplace
PUBLIC	?binary@?$_Iosb@H@std@@2W4_Openmode@12@B	; std::_Iosb<int>::binary
PUBLIC	?beg@?$_Iosb@H@std@@2W4_Seekdir@12@B		; std::_Iosb<int>::beg
PUBLIC	?cur@?$_Iosb@H@std@@2W4_Seekdir@12@B		; std::_Iosb<int>::cur
PUBLIC	?end@?$_Iosb@H@std@@2W4_Seekdir@12@B		; std::_Iosb<int>::end
PUBLIC	?MAX_LENGTH@Part@MessagePattern@icu_56@@0HB	; icu_56::MessagePattern::Part::MAX_LENGTH
PUBLIC	?MAX_VALUE@Part@MessagePattern@icu_56@@0HB	; icu_56::MessagePattern::Part::MAX_VALUE
_BSS	SEGMENT
?classID@?1??getStaticClassID@Win32DateFormat@icu_56@@SAPAXXZ@4DA DB 01H DUP (?) ; `icu_56::Win32DateFormat::getStaticClassID'::`2'::classID
_BSS	ENDS
CONST	SEGMENT
?defaultPattern@?7??getTimeDateFormat@Win32DateFormat@icu_56@@ABEPAVUnicodeString@3@PBVCalendar@3@PBVLocale@3@AAW4UErrorCode@@@Z@4QB_WB DW 07bH ; `icu_56::Win32DateFormat::getTimeDateFormat'::`8'::defaultPattern
	DW	031H
	DW	07dH
	DW	020H
	DW	07bH
	DW	030H
	DW	07dH
	DW	00H
_dfFlags DD	02H
	DD	02H
	DD	01H
	DD	01H
_tfFlags DD	00H
	DD	00H
	DD	00H
	DD	02H
CONST	ENDS
;	COMDAT ?MAX_VALUE@Part@MessagePattern@icu_56@@0HB
CONST	SEGMENT
?MAX_VALUE@Part@MessagePattern@icu_56@@0HB DD 07fffH	; icu_56::MessagePattern::Part::MAX_VALUE
CONST	ENDS
;	COMDAT ?MAX_LENGTH@Part@MessagePattern@icu_56@@0HB
CONST	SEGMENT
?MAX_LENGTH@Part@MessagePattern@icu_56@@0HB DD 0ffffH	; icu_56::MessagePattern::Part::MAX_LENGTH
CONST	ENDS
;	COMDAT ?end@?$_Iosb@H@std@@2W4_Seekdir@12@B
CONST	SEGMENT
?end@?$_Iosb@H@std@@2W4_Seekdir@12@B DD 02H		; std::_Iosb<int>::end
CONST	ENDS
;	COMDAT ?cur@?$_Iosb@H@std@@2W4_Seekdir@12@B
CONST	SEGMENT
?cur@?$_Iosb@H@std@@2W4_Seekdir@12@B DD 01H		; std::_Iosb<int>::cur
CONST	ENDS
;	COMDAT ?beg@?$_Iosb@H@std@@2W4_Seekdir@12@B
CONST	SEGMENT
?beg@?$_Iosb@H@std@@2W4_Seekdir@12@B DD 00H		; std::_Iosb<int>::beg
CONST	ENDS
;	COMDAT ?binary@?$_Iosb@H@std@@2W4_Openmode@12@B
CONST	SEGMENT
?binary@?$_Iosb@H@std@@2W4_Openmode@12@B DD 020H	; std::_Iosb<int>::binary
CONST	ENDS
;	COMDAT ?_Noreplace@?$_Iosb@H@std@@2W4_Openmode@12@B
CONST	SEGMENT
?_Noreplace@?$_Iosb@H@std@@2W4_Openmode@12@B DD 080H	; std::_Iosb<int>::_Noreplace
CONST	ENDS
;	COMDAT ?_Nocreate@?$_Iosb@H@std@@2W4_Openmode@12@B
CONST	SEGMENT
?_Nocreate@?$_Iosb@H@std@@2W4_Openmode@12@B DD 040H	; std::_Iosb<int>::_Nocreate
CONST	ENDS
;	COMDAT ?trunc@?$_Iosb@H@std@@2W4_Openmode@12@B
CONST	SEGMENT
?trunc@?$_Iosb@H@std@@2W4_Openmode@12@B DD 010H		; std::_Iosb<int>::trunc
CONST	ENDS
;	COMDAT ?app@?$_Iosb@H@std@@2W4_Openmode@12@B
CONST	SEGMENT
?app@?$_Iosb@H@std@@2W4_Openmode@12@B DD 08H		; std::_Iosb<int>::app
CONST	ENDS
;	COMDAT ?ate@?$_Iosb@H@std@@2W4_Openmode@12@B
CONST	SEGMENT
?ate@?$_Iosb@H@std@@2W4_Openmode@12@B DD 04H		; std::_Iosb<int>::ate
CONST	ENDS
;	COMDAT ?out@?$_Iosb@H@std@@2W4_Openmode@12@B
CONST	SEGMENT
?out@?$_Iosb@H@std@@2W4_Openmode@12@B DD 02H		; std::_Iosb<int>::out
CONST	ENDS
;	COMDAT ?in@?$_Iosb@H@std@@2W4_Openmode@12@B
CONST	SEGMENT
?in@?$_Iosb@H@std@@2W4_Openmode@12@B DD 01H		; std::_Iosb<int>::in
CONST	ENDS
;	COMDAT ?_Hardfail@?$_Iosb@H@std@@2W4_Iostate@12@B
CONST	SEGMENT
?_Hardfail@?$_Iosb@H@std@@2W4_Iostate@12@B DD 010H	; std::_Iosb<int>::_Hardfail
CONST	ENDS
;	COMDAT ?badbit@?$_Iosb@H@std@@2W4_Iostate@12@B
CONST	SEGMENT
?badbit@?$_Iosb@H@std@@2W4_Iostate@12@B DD 04H		; std::_Iosb<int>::badbit
CONST	ENDS
;	COMDAT ?failbit@?$_Iosb@H@std@@2W4_Iostate@12@B
CONST	SEGMENT
?failbit@?$_Iosb@H@std@@2W4_Iostate@12@B DD 02H		; std::_Iosb<int>::failbit
CONST	ENDS
;	COMDAT ?eofbit@?$_Iosb@H@std@@2W4_Iostate@12@B
CONST	SEGMENT
?eofbit@?$_Iosb@H@std@@2W4_Iostate@12@B DD 01H		; std::_Iosb<int>::eofbit
CONST	ENDS
;	COMDAT ?goodbit@?$_Iosb@H@std@@2W4_Iostate@12@B
CONST	SEGMENT
?goodbit@?$_Iosb@H@std@@2W4_Iostate@12@B DD 00H		; std::_Iosb<int>::goodbit
CONST	ENDS
;	COMDAT ?floatfield@?$_Iosb@H@std@@2W4_Fmtflags@12@B
CONST	SEGMENT
?floatfield@?$_Iosb@H@std@@2W4_Fmtflags@12@B DD 03000H	; std::_Iosb<int>::floatfield
CONST	ENDS
;	COMDAT ?basefield@?$_Iosb@H@std@@2W4_Fmtflags@12@B
CONST	SEGMENT
?basefield@?$_Iosb@H@std@@2W4_Fmtflags@12@B DD 0e00H	; std::_Iosb<int>::basefield
CONST	ENDS
;	COMDAT ?adjustfield@?$_Iosb@H@std@@2W4_Fmtflags@12@B
CONST	SEGMENT
?adjustfield@?$_Iosb@H@std@@2W4_Fmtflags@12@B DD 01c0H	; std::_Iosb<int>::adjustfield
CONST	ENDS
;	COMDAT ?_Stdio@?$_Iosb@H@std@@2W4_Fmtflags@12@B
CONST	SEGMENT
?_Stdio@?$_Iosb@H@std@@2W4_Fmtflags@12@B DD 08000H	; std::_Iosb<int>::_Stdio
CONST	ENDS
;	COMDAT ?boolalpha@?$_Iosb@H@std@@2W4_Fmtflags@12@B
CONST	SEGMENT
?boolalpha@?$_Iosb@H@std@@2W4_Fmtflags@12@B DD 04000H	; std::_Iosb<int>::boolalpha
CONST	ENDS
;	COMDAT ?hexfloat@?$_Iosb@H@std@@2W4_Fmtflags@12@B
CONST	SEGMENT
?hexfloat@?$_Iosb@H@std@@2W4_Fmtflags@12@B DD 03000H	; std::_Iosb<int>::hexfloat
CONST	ENDS
;	COMDAT ?fixed@?$_Iosb@H@std@@2W4_Fmtflags@12@B
CONST	SEGMENT
?fixed@?$_Iosb@H@std@@2W4_Fmtflags@12@B DD 02000H	; std::_Iosb<int>::fixed
CONST	ENDS
;	COMDAT ?scientific@?$_Iosb@H@std@@2W4_Fmtflags@12@B
CONST	SEGMENT
?scientific@?$_Iosb@H@std@@2W4_Fmtflags@12@B DD 01000H	; std::_Iosb<int>::scientific
CONST	ENDS
;	COMDAT ?hex@?$_Iosb@H@std@@2W4_Fmtflags@12@B
CONST	SEGMENT
?hex@?$_Iosb@H@std@@2W4_Fmtflags@12@B DD 0800H		; std::_Iosb<int>::hex
CONST	ENDS
;	COMDAT ?oct@?$_Iosb@H@std@@2W4_Fmtflags@12@B
CONST	SEGMENT
?oct@?$_Iosb@H@std@@2W4_Fmtflags@12@B DD 0400H		; std::_Iosb<int>::oct
CONST	ENDS
;	COMDAT ?dec@?$_Iosb@H@std@@2W4_Fmtflags@12@B
CONST	SEGMENT
?dec@?$_Iosb@H@std@@2W4_Fmtflags@12@B DD 0200H		; std::_Iosb<int>::dec
CONST	ENDS
;	COMDAT ?internal@?$_Iosb@H@std@@2W4_Fmtflags@12@B
CONST	SEGMENT
?internal@?$_Iosb@H@std@@2W4_Fmtflags@12@B DD 0100H	; std::_Iosb<int>::internal
CONST	ENDS
;	COMDAT ?right@?$_Iosb@H@std@@2W4_Fmtflags@12@B
CONST	SEGMENT
?right@?$_Iosb@H@std@@2W4_Fmtflags@12@B DD 080H		; std::_Iosb<int>::right
CONST	ENDS
;	COMDAT ?left@?$_Iosb@H@std@@2W4_Fmtflags@12@B
CONST	SEGMENT
?left@?$_Iosb@H@std@@2W4_Fmtflags@12@B DD 040H		; std::_Iosb<int>::left
CONST	ENDS
;	COMDAT ?showpos@?$_Iosb@H@std@@2W4_Fmtflags@12@B
CONST	SEGMENT
?showpos@?$_Iosb@H@std@@2W4_Fmtflags@12@B DD 020H	; std::_Iosb<int>::showpos
CONST	ENDS
;	COMDAT ?showpoint@?$_Iosb@H@std@@2W4_Fmtflags@12@B
CONST	SEGMENT
?showpoint@?$_Iosb@H@std@@2W4_Fmtflags@12@B DD 010H	; std::_Iosb<int>::showpoint
CONST	ENDS
;	COMDAT ?showbase@?$_Iosb@H@std@@2W4_Fmtflags@12@B
CONST	SEGMENT
?showbase@?$_Iosb@H@std@@2W4_Fmtflags@12@B DD 08H	; std::_Iosb<int>::showbase
CONST	ENDS
;	COMDAT ?uppercase@?$_Iosb@H@std@@2W4_Fmtflags@12@B
CONST	SEGMENT
?uppercase@?$_Iosb@H@std@@2W4_Fmtflags@12@B DD 04H	; std::_Iosb<int>::uppercase
CONST	ENDS
;	COMDAT ?unitbuf@?$_Iosb@H@std@@2W4_Fmtflags@12@B
CONST	SEGMENT
?unitbuf@?$_Iosb@H@std@@2W4_Fmtflags@12@B DD 02H	; std::_Iosb<int>::unitbuf
CONST	ENDS
;	COMDAT ?skipws@?$_Iosb@H@std@@2W4_Fmtflags@12@B
CONST	SEGMENT
?skipws@?$_Iosb@H@std@@2W4_Fmtflags@12@B DD 01H		; std::_Iosb<int>::skipws
CONST	ENDS
;	COMDAT ?none@?$_Locbase@H@std@@2HB
CONST	SEGMENT
?none@?$_Locbase@H@std@@2HB DD 00H			; std::_Locbase<int>::none
CONST	ENDS
;	COMDAT ?all@?$_Locbase@H@std@@2HB
CONST	SEGMENT
?all@?$_Locbase@H@std@@2HB DD 03fH			; std::_Locbase<int>::all
CONST	ENDS
;	COMDAT ?messages@?$_Locbase@H@std@@2HB
CONST	SEGMENT
?messages@?$_Locbase@H@std@@2HB DD 020H			; std::_Locbase<int>::messages
CONST	ENDS
;	COMDAT ?time@?$_Locbase@H@std@@2HB
CONST	SEGMENT
?time@?$_Locbase@H@std@@2HB DD 010H			; std::_Locbase<int>::time
CONST	ENDS
;	COMDAT ?numeric@?$_Locbase@H@std@@2HB
CONST	SEGMENT
?numeric@?$_Locbase@H@std@@2HB DD 08H			; std::_Locbase<int>::numeric
CONST	ENDS
;	COMDAT ?monetary@?$_Locbase@H@std@@2HB
CONST	SEGMENT
?monetary@?$_Locbase@H@std@@2HB DD 04H			; std::_Locbase<int>::monetary
CONST	ENDS
;	COMDAT ?ctype@?$_Locbase@H@std@@2HB
CONST	SEGMENT
?ctype@?$_Locbase@H@std@@2HB DD 02H			; std::_Locbase<int>::ctype
CONST	ENDS
;	COMDAT ?collate@?$_Locbase@H@std@@2HB
CONST	SEGMENT
?collate@?$_Locbase@H@std@@2HB DD 01H			; std::_Locbase<int>::collate
CONST	ENDS
;	COMDAT ?_Rank@?$_Arithmetic_traits@O@std@@2HB
CONST	SEGMENT
?_Rank@?$_Arithmetic_traits@O@std@@2HB DD 09H		; std::_Arithmetic_traits<long double>::_Rank
CONST	ENDS
;	COMDAT ?_Rank@?$_Arithmetic_traits@N@std@@2HB
CONST	SEGMENT
?_Rank@?$_Arithmetic_traits@N@std@@2HB DD 08H		; std::_Arithmetic_traits<double>::_Rank
CONST	ENDS
;	COMDAT ?_Rank@?$_Arithmetic_traits@M@std@@2HB
CONST	SEGMENT
?_Rank@?$_Arithmetic_traits@M@std@@2HB DD 07H		; std::_Arithmetic_traits<float>::_Rank
CONST	ENDS
;	COMDAT ?_Rank@?$_Arithmetic_traits@_K@std@@2HB
CONST	SEGMENT
?_Rank@?$_Arithmetic_traits@_K@std@@2HB DD 06H		; std::_Arithmetic_traits<unsigned __int64>::_Rank
CONST	ENDS
;	COMDAT ?_Rank@?$_Arithmetic_traits@_J@std@@2HB
CONST	SEGMENT
?_Rank@?$_Arithmetic_traits@_J@std@@2HB DD 06H		; std::_Arithmetic_traits<__int64>::_Rank
CONST	ENDS
;	COMDAT ?_Rank@?$_Arithmetic_traits@K@std@@2HB
CONST	SEGMENT
?_Rank@?$_Arithmetic_traits@K@std@@2HB DD 05H		; std::_Arithmetic_traits<unsigned long>::_Rank
CONST	ENDS
;	COMDAT ?_Rank@?$_Arithmetic_traits@J@std@@2HB
CONST	SEGMENT
?_Rank@?$_Arithmetic_traits@J@std@@2HB DD 05H		; std::_Arithmetic_traits<long>::_Rank
CONST	ENDS
;	COMDAT ?_Rank@?$_Arithmetic_traits@I@std@@2HB
CONST	SEGMENT
?_Rank@?$_Arithmetic_traits@I@std@@2HB DD 04H		; std::_Arithmetic_traits<unsigned int>::_Rank
CONST	ENDS
;	COMDAT ?_Rank@?$_Arithmetic_traits@H@std@@2HB
CONST	SEGMENT
?_Rank@?$_Arithmetic_traits@H@std@@2HB DD 04H		; std::_Arithmetic_traits<int>::_Rank
CONST	ENDS
;	COMDAT ?_Rank@?$_Arithmetic_traits@G@std@@2HB
CONST	SEGMENT
?_Rank@?$_Arithmetic_traits@G@std@@2HB DD 03H		; std::_Arithmetic_traits<unsigned short>::_Rank
CONST	ENDS
;	COMDAT ?_Rank@?$_Arithmetic_traits@F@std@@2HB
CONST	SEGMENT
?_Rank@?$_Arithmetic_traits@F@std@@2HB DD 03H		; std::_Arithmetic_traits<short>::_Rank
CONST	ENDS
;	COMDAT ?_Rank@?$_Arithmetic_traits@E@std@@2HB
CONST	SEGMENT
?_Rank@?$_Arithmetic_traits@E@std@@2HB DD 02H		; std::_Arithmetic_traits<unsigned char>::_Rank
CONST	ENDS
;	COMDAT ?_Rank@?$_Arithmetic_traits@C@std@@2HB
CONST	SEGMENT
?_Rank@?$_Arithmetic_traits@C@std@@2HB DD 02H		; std::_Arithmetic_traits<signed char>::_Rank
CONST	ENDS
;	COMDAT ?_Rank@?$_Arithmetic_traits@D@std@@2HB
CONST	SEGMENT
?_Rank@?$_Arithmetic_traits@D@std@@2HB DD 02H		; std::_Arithmetic_traits<char>::_Rank
CONST	ENDS
;	COMDAT ?_Rank@?$_Arithmetic_traits@_N@std@@2HB
CONST	SEGMENT
?_Rank@?$_Arithmetic_traits@_N@std@@2HB DD 01H		; std::_Arithmetic_traits<bool>::_Rank
CONST	ENDS
;	COMDAT ?value@?$integral_constant@I$0A@@tr1@std@@2IB
CONST	SEGMENT
?value@?$integral_constant@I$0A@@tr1@std@@2IB DD 00H	; std::tr1::integral_constant<unsigned int,0>::value
CONST	ENDS
;	COMDAT ?value@?$integral_constant@_N$00@tr1@std@@2_NB
CONST	SEGMENT
?value@?$integral_constant@_N$00@tr1@std@@2_NB DB 01H	; std::tr1::integral_constant<bool,1>::value
CONST	ENDS
;	COMDAT ?value@?$integral_constant@_N$0A@@tr1@std@@2_NB
CONST	SEGMENT
?value@?$integral_constant@_N$0A@@tr1@std@@2_NB DB 00H	; std::tr1::integral_constant<bool,0>::value
CONST	ENDS
PUBLIC	??2@YAPAXI@Z					; operator new
EXTRN	__RTC_Shutdown:PROC
EXTRN	__RTC_InitBase:PROC
;	COMDAT rtc$TMZ
; File d:\mozilla\intl\icu\include\unicode\utypes.h
rtc$TMZ	SEGMENT
__RTC_Shutdown.rtc$TMZ DD FLAT:__RTC_Shutdown
rtc$TMZ	ENDS
;	COMDAT rtc$IMZ
rtc$IMZ	SEGMENT
__RTC_InitBase.rtc$IMZ DD FLAT:__RTC_InitBase
; Function compile flags: /Odtp /RTCsu /ZI
rtc$IMZ	ENDS
;	COMDAT ??2@YAPAXI@Z
_TEXT	SEGMENT
_q$ = -8						; size = 4
___formal$ = 8						; size = 4
??2@YAPAXI@Z PROC					; operator new, COMDAT
; Line 411
	push	ebp
	mov	ebp, esp
	sub	esp, 204				; 000000ccH
	push	ebx
	push	esi
	push	edi
	lea	edi, DWORD PTR [ebp-204]
	mov	ecx, 51					; 00000033H
	mov	eax, -858993460				; ccccccccH
	rep stosd
; Line 412
	mov	DWORD PTR _q$[ebp], 0
; Line 413
	mov	eax, DWORD PTR _q$[ebp]
	mov	BYTE PTR [eax], 5
; Line 414
	mov	eax, DWORD PTR _q$[ebp]
; Line 415
	pop	edi
	pop	esi
	pop	ebx
	mov	esp, ebp
	pop	ebp
	ret	0
??2@YAPAXI@Z ENDP					; operator new
_TEXT	ENDS
PUBLIC	??3@YAXPAX@Z					; operator delete
; Function compile flags: /Odtp /RTCsu /ZI
;	COMDAT ??3@YAXPAX@Z
_TEXT	SEGMENT
_q$ = -8						; size = 4
___formal$ = 8						; size = 4
??3@YAXPAX@Z PROC					; operator delete, COMDAT
; Line 439
	push	ebp
	mov	ebp, esp
	sub	esp, 204				; 000000ccH
	push	ebx
	push	esi
	push	edi
	lea	edi, DWORD PTR [ebp-204]
	mov	ecx, 51					; 00000033H
	mov	eax, -858993460				; ccccccccH
	rep stosd
; Line 440
	mov	DWORD PTR _q$[ebp], 0
; Line 441
	mov	eax, DWORD PTR _q$[ebp]
	mov	BYTE PTR [eax], 5
; Line 442
	pop	edi
	pop	esi
	pop	ebx
	mov	esp, ebp
	pop	ebp
	ret	0
??3@YAXPAX@Z ENDP					; operator delete
_TEXT	ENDS
PUBLIC	??9Formattable@icu_56@@QBECABV01@@Z		; icu_56::Formattable::operator!=
EXTRN	??8Formattable@icu_56@@QBECABV01@@Z:PROC	; icu_56::Formattable::operator==
EXTRN	__RTC_CheckEsp:PROC
; Function compile flags: /Odtp /RTCsu /ZI
;	COMDAT ??9Formattable@icu_56@@QBECABV01@@Z
_TEXT	SEGMENT
_this$ = -8						; size = 4
_other$ = 8						; size = 4
??9Formattable@icu_56@@QBECABV01@@Z PROC		; icu_56::Formattable::operator!=, COMDAT
; _this$ = ecx
; File d:\mozilla\intl\icu\source\i18n\unicode\fmtable.h
; Line 196
	push	ebp
	mov	ebp, esp
	sub	esp, 204				; 000000ccH
	push	ebx
	push	esi
	push	edi
	push	ecx
	lea	edi, DWORD PTR [ebp-204]
	mov	ecx, 51					; 00000033H
	mov	eax, -858993460				; ccccccccH
	rep stosd
	pop	ecx
	mov	DWORD PTR _this$[ebp], ecx
	mov	eax, DWORD PTR _other$[ebp]
	push	eax
	mov	ecx, DWORD PTR _this$[ebp]
	call	??8Formattable@icu_56@@QBECABV01@@Z	; icu_56::Formattable::operator==
	movsx	ecx, al
	test	ecx, ecx
	sete	al
	pop	edi
	pop	esi
	pop	ebx
	add	esp, 204				; 000000ccH
	cmp	ebp, esp
	call	__RTC_CheckEsp
	mov	esp, ebp
	pop	ebp
	ret	4
??9Formattable@icu_56@@QBECABV01@@Z ENDP		; icu_56::Formattable::operator!=
_TEXT	ENDS
PUBLIC	?getDouble@Formattable@icu_56@@QBENXZ		; icu_56::Formattable::getDouble
EXTRN	__fltused:DWORD
; Function compile flags: /Odtp /RTCsu /ZI
;	COMDAT ?getDouble@Formattable@icu_56@@QBENXZ
_TEXT	SEGMENT
_this$ = -8						; size = 4
?getDouble@Formattable@icu_56@@QBENXZ PROC		; icu_56::Formattable::getDouble, COMDAT
; _this$ = ecx
; Line 295
	push	ebp
	mov	ebp, esp
	sub	esp, 204				; 000000ccH
	push	ebx
	push	esi
	push	edi
	push	ecx
	lea	edi, DWORD PTR [ebp-204]
	mov	ecx, 51					; 00000033H
	mov	eax, -858993460				; ccccccccH
	rep stosd
	pop	ecx
	mov	DWORD PTR _this$[ebp], ecx
	mov	eax, DWORD PTR _this$[ebp]
	fld	QWORD PTR [eax+8]
	pop	edi
	pop	esi
	pop	ebx
	mov	esp, ebp
	pop	ebp
	ret	0
?getDouble@Formattable@icu_56@@QBENXZ ENDP		; icu_56::Formattable::getDouble
_TEXT	ENDS
PUBLIC	?getLong@Formattable@icu_56@@QBEHXZ		; icu_56::Formattable::getLong
; Function compile flags: /Odtp /RTCsu /ZI
;	COMDAT ?getLong@Formattable@icu_56@@QBEHXZ
_TEXT	SEGMENT
_this$ = -8						; size = 4
?getLong@Formattable@icu_56@@QBEHXZ PROC		; icu_56::Formattable::getLong, COMDAT
; _this$ = ecx
; Line 317
	push	ebp
	mov	ebp, esp
	sub	esp, 204				; 000000ccH
	push	ebx
	push	esi
	push	edi
	push	ecx
	lea	edi, DWORD PTR [ebp-204]
	mov	ecx, 51					; 00000033H
	mov	eax, -858993460				; ccccccccH
	rep stosd
	pop	ecx
	mov	DWORD PTR _this$[ebp], ecx
	mov	eax, DWORD PTR _this$[ebp]
	mov	eax, DWORD PTR [eax+8]
	pop	edi
	pop	esi
	pop	ebx
	mov	esp, ebp
	pop	ebp
	ret	0
?getLong@Formattable@icu_56@@QBEHXZ ENDP		; icu_56::Formattable::getLong
_TEXT	ENDS
PUBLIC	?getInt64@Formattable@icu_56@@QBE_JXZ		; icu_56::Formattable::getInt64
; Function compile flags: /Odtp /RTCsu /ZI
;	COMDAT ?getInt64@Formattable@icu_56@@QBE_JXZ
_TEXT	SEGMENT
_this$ = -8						; size = 4
?getInt64@Formattable@icu_56@@QBE_JXZ PROC		; icu_56::Formattable::getInt64, COMDAT
; _this$ = ecx
; Line 343
	push	ebp
	mov	ebp, esp
	sub	esp, 204				; 000000ccH
	push	ebx
	push	esi
	push	edi
	push	ecx
	lea	edi, DWORD PTR [ebp-204]
	mov	ecx, 51					; 00000033H
	mov	eax, -858993460				; ccccccccH
	rep stosd
	pop	ecx
	mov	DWORD PTR _this$[ebp], ecx
	mov	ecx, DWORD PTR _this$[ebp]
	mov	eax, DWORD PTR [ecx+8]
	mov	edx, DWORD PTR [ecx+12]
	pop	edi
	pop	esi
	pop	ebx
	mov	esp, ebp
	pop	ebp
	ret	0
?getInt64@Formattable@icu_56@@QBE_JXZ ENDP		; icu_56::Formattable::getInt64
_TEXT	ENDS
PUBLIC	?getDate@Formattable@icu_56@@QBENXZ		; icu_56::Formattable::getDate
; Function compile flags: /Odtp /RTCsu /ZI
;	COMDAT ?getDate@Formattable@icu_56@@QBENXZ
_TEXT	SEGMENT
_this$ = -8						; size = 4
?getDate@Formattable@icu_56@@QBENXZ PROC		; icu_56::Formattable::getDate, COMDAT
; _this$ = ecx
; Line 368
	push	ebp
	mov	ebp, esp
	sub	esp, 204				; 000000ccH
	push	ebx
	push	esi
	push	edi
	push	ecx
	lea	edi, DWORD PTR [ebp-204]
	mov	ecx, 51					; 00000033H
	mov	eax, -858993460				; ccccccccH
	rep stosd
	pop	ecx
	mov	DWORD PTR _this$[ebp], ecx
	mov	eax, DWORD PTR _this$[ebp]
	fld	QWORD PTR [eax+8]
	pop	edi
	pop	esi
	pop	ebx
	mov	esp, ebp
	pop	ebp
	ret	0
?getDate@Formattable@icu_56@@QBENXZ ENDP		; icu_56::Formattable::getDate
_TEXT	ENDS
PUBLIC	?getString@Formattable@icu_56@@QBEAAVUnicodeString@2@AAV32@@Z ; icu_56::Formattable::getString
EXTRN	__imp_??4UnicodeString@icu_56@@QAEAAV01@ABV01@@Z:PROC
; Function compile flags: /Odtp /RTCsu /ZI
;	COMDAT ?getString@Formattable@icu_56@@QBEAAVUnicodeString@2@AAV32@@Z
_TEXT	SEGMENT
_this$ = -8						; size = 4
_result$ = 8						; size = 4
?getString@Formattable@icu_56@@QBEAAVUnicodeString@2@AAV32@@Z PROC ; icu_56::Formattable::getString, COMDAT
; _this$ = ecx
; Line 388
	push	ebp
	mov	ebp, esp
	sub	esp, 204				; 000000ccH
	push	ebx
	push	esi
	push	edi
	push	ecx
	lea	edi, DWORD PTR [ebp-204]
	mov	ecx, 51					; 00000033H
	mov	eax, -858993460				; ccccccccH
	rep stosd
	pop	ecx
	mov	DWORD PTR _this$[ebp], ecx
	mov	esi, esp
	mov	eax, DWORD PTR _this$[ebp]
	mov	ecx, DWORD PTR [eax+8]
	push	ecx
	mov	ecx, DWORD PTR _result$[ebp]
	call	DWORD PTR __imp_??4UnicodeString@icu_56@@QAEAAV01@ABV01@@Z
	cmp	esi, esp
	call	__RTC_CheckEsp
	mov	eax, DWORD PTR _result$[ebp]
	pop	edi
	pop	esi
	pop	ebx
	add	esp, 204				; 000000ccH
	cmp	ebp, esp
	call	__RTC_CheckEsp
	mov	esp, ebp
	pop	ebp
	ret	4
?getString@Formattable@icu_56@@QBEAAVUnicodeString@2@AAV32@@Z ENDP ; icu_56::Formattable::getString
_TEXT	ENDS
PUBLIC	?getArray@Formattable@icu_56@@QBEPBV12@AAH@Z	; icu_56::Formattable::getArray
; Function compile flags: /Odtp /RTCsu /ZI
;	COMDAT ?getArray@Formattable@icu_56@@QBEPBV12@AAH@Z
_TEXT	SEGMENT
_this$ = -8						; size = 4
_count$ = 8						; size = 4
?getArray@Formattable@icu_56@@QBEPBV12@AAH@Z PROC	; icu_56::Formattable::getArray, COMDAT
; _this$ = ecx
; Line 446
	push	ebp
	mov	ebp, esp
	sub	esp, 204				; 000000ccH
	push	ebx
	push	esi
	push	edi
	push	ecx
	lea	edi, DWORD PTR [ebp-204]
	mov	ecx, 51					; 00000033H
	mov	eax, -858993460				; ccccccccH
	rep stosd
	pop	ecx
	mov	DWORD PTR _this$[ebp], ecx
	mov	eax, DWORD PTR _count$[ebp]
	mov	ecx, DWORD PTR _this$[ebp]
	mov	edx, DWORD PTR [ecx+12]
	mov	DWORD PTR [eax], edx
	mov	eax, DWORD PTR _this$[ebp]
	mov	eax, DWORD PTR [eax+8]
	pop	edi
	pop	esi
	pop	ebx
	mov	esp, ebp
	pop	ebp
	ret	4
?getArray@Formattable@icu_56@@QBEPBV12@AAH@Z ENDP	; icu_56::Formattable::getArray
_TEXT	ENDS
PUBLIC	??AFormattable@icu_56@@QAEAAV01@H@Z		; icu_56::Formattable::operator[]
; Function compile flags: /Odtp /RTCsu /ZI
;	COMDAT ??AFormattable@icu_56@@QAEAAV01@H@Z
_TEXT	SEGMENT
_this$ = -8						; size = 4
_index$ = 8						; size = 4
??AFormattable@icu_56@@QAEAAV01@H@Z PROC		; icu_56::Formattable::operator[], COMDAT
; _this$ = ecx
; Line 467
	push	ebp
	mov	ebp, esp
	sub	esp, 204				; 000000ccH
	push	ebx
	push	esi
	push	edi
	push	ecx
	lea	edi, DWORD PTR [ebp-204]
	mov	ecx, 51					; 00000033H
	mov	eax, -858993460				; ccccccccH
	rep stosd
	pop	ecx
	mov	DWORD PTR _this$[ebp], ecx
	mov	eax, DWORD PTR _index$[ebp]
	imul	eax, 224				; 000000e0H
	mov	ecx, DWORD PTR _this$[ebp]
	add	eax, DWORD PTR [ecx+8]
	pop	edi
	pop	esi
	pop	ebx
	mov	esp, ebp
	pop	ebp
	ret	4
??AFormattable@icu_56@@QAEAAV01@H@Z ENDP		; icu_56::Formattable::operator[]
_TEXT	ENDS
PUBLIC	?getDigitList@Formattable@icu_56@@QBEPAVDigitList@2@XZ ; icu_56::Formattable::getDigitList
; Function compile flags: /Odtp /RTCsu /ZI
;	COMDAT ?getDigitList@Formattable@icu_56@@QBEPAVDigitList@2@XZ
_TEXT	SEGMENT
_this$ = -8						; size = 4
?getDigitList@Formattable@icu_56@@QBEPAVDigitList@2@XZ PROC ; icu_56::Formattable::getDigitList, COMDAT
; _this$ = ecx
; Line 654
	push	ebp
	mov	ebp, esp
	sub	esp, 204				; 000000ccH
	push	ebx
	push	esi
	push	edi
	push	ecx
	lea	edi, DWORD PTR [ebp-204]
	mov	ecx, 51					; 00000033H
	mov	eax, -858993460				; ccccccccH
	rep stosd
	pop	ecx
	mov	DWORD PTR _this$[ebp], ecx
	mov	eax, DWORD PTR _this$[ebp]
	mov	eax, DWORD PTR [eax+20]
	pop	edi
	pop	esi
	pop	ebx
	mov	esp, ebp
	pop	ebp
	ret	0
?getDigitList@Formattable@icu_56@@QBEPAVDigitList@2@XZ ENDP ; icu_56::Formattable::getDigitList
_TEXT	ENDS
PUBLIC	__real@0000000000000000
PUBLIC	?getDate@Formattable@icu_56@@QBENAAW4UErrorCode@@@Z ; icu_56::Formattable::getDate
;	COMDAT __real@0000000000000000
CONST	SEGMENT
__real@0000000000000000 DQ 00000000000000000r	; 0
; Function compile flags: /Odtp /RTCsu /ZI
CONST	ENDS
;	COMDAT ?getDate@Formattable@icu_56@@QBENAAW4UErrorCode@@@Z
_TEXT	SEGMENT
_this$ = -8						; size = 4
_status$ = 8						; size = 4
?getDate@Formattable@icu_56@@QBENAAW4UErrorCode@@@Z PROC ; icu_56::Formattable::getDate, COMDAT
; _this$ = ecx
; Line 715
	push	ebp
	mov	ebp, esp
	sub	esp, 204				; 000000ccH
	push	ebx
	push	esi
	push	edi
	push	ecx
	lea	edi, DWORD PTR [ebp-204]
	mov	ecx, 51					; 00000033H
	mov	eax, -858993460				; ccccccccH
	rep stosd
	pop	ecx
	mov	DWORD PTR _this$[ebp], ecx
; Line 716
	mov	eax, DWORD PTR _this$[ebp]
	cmp	DWORD PTR [eax+152], 0
	je	SHORT $LN2@getDate
; Line 717
	mov	eax, DWORD PTR _status$[ebp]
	mov	ecx, DWORD PTR [eax]
	push	ecx
	call	?U_SUCCESS@@YACW4UErrorCode@@@Z		; U_SUCCESS
	add	esp, 4
	movsx	edx, al
	test	edx, edx
	je	SHORT $LN1@getDate
; Line 718
	mov	eax, DWORD PTR _status$[ebp]
	mov	DWORD PTR [eax], 3
$LN1@getDate:
; Line 720
	fldz
	jmp	SHORT $LN3@getDate
$LN2@getDate:
; Line 722
	mov	eax, DWORD PTR _this$[ebp]
	fld	QWORD PTR [eax+8]
$LN3@getDate:
; Line 723
	pop	edi
	pop	esi
	pop	ebx
	add	esp, 204				; 000000ccH
	cmp	ebp, esp
	call	__RTC_CheckEsp
	mov	esp, ebp
	pop	ebp
	ret	4
?getDate@Formattable@icu_56@@QBENAAW4UErrorCode@@@Z ENDP ; icu_56::Formattable::getDate
; Function compile flags: /Odtp /RTCsu /ZI
_TEXT	ENDS
;	COMDAT ?U_SUCCESS@@YACW4UErrorCode@@@Z
_TEXT	SEGMENT
_code$ = 8						; size = 4
?U_SUCCESS@@YACW4UErrorCode@@@Z PROC			; U_SUCCESS, COMDAT
; File d:\mozilla\intl\icu\include\unicode\utypes.h
; Line 699
	push	ebp
	mov	ebp, esp
	sub	esp, 192				; 000000c0H
	push	ebx
	push	esi
	push	edi
	lea	edi, DWORD PTR [ebp-192]
	mov	ecx, 48					; 00000030H
	mov	eax, -858993460				; ccccccccH
	rep stosd
	cmp	DWORD PTR _code$[ebp], 0
	setle	al
	pop	edi
	pop	esi
	pop	ebx
	mov	esp, ebp
	pop	ebp
	ret	0
?U_SUCCESS@@YACW4UErrorCode@@@Z ENDP			; U_SUCCESS
_TEXT	ENDS
PUBLIC	?getString@Formattable@icu_56@@QBEABVUnicodeString@2@XZ ; icu_56::Formattable::getString
; Function compile flags: /Odtp /RTCsu /ZI
;	COMDAT ?getString@Formattable@icu_56@@QBEABVUnicodeString@2@XZ
_TEXT	SEGMENT
_this$ = -8						; size = 4
?getString@Formattable@icu_56@@QBEABVUnicodeString@2@XZ PROC ; icu_56::Formattable::getString, COMDAT
; _this$ = ecx
; File d:\mozilla\intl\icu\source\i18n\unicode\fmtable.h
; Line 725
	push	ebp
	mov	ebp, esp
	sub	esp, 204				; 000000ccH
	push	ebx
	push	esi
	push	edi
	push	ecx
	lea	edi, DWORD PTR [ebp-204]
	mov	ecx, 51					; 00000033H
	mov	eax, -858993460				; ccccccccH
	rep stosd
	pop	ecx
	mov	DWORD PTR _this$[ebp], ecx
; Line 726
	mov	eax, DWORD PTR _this$[ebp]
	mov	eax, DWORD PTR [eax+8]
; Line 727
	pop	edi
	pop	esi
	pop	ebx
	mov	esp, ebp
	pop	ebp
	ret	0
?getString@Formattable@icu_56@@QBEABVUnicodeString@2@XZ ENDP ; icu_56::Formattable::getString
_TEXT	ENDS
PUBLIC	?getString@Formattable@icu_56@@QAEAAVUnicodeString@2@XZ ; icu_56::Formattable::getString
; Function compile flags: /Odtp /RTCsu /ZI
;	COMDAT ?getString@Formattable@icu_56@@QAEAAVUnicodeString@2@XZ
_TEXT	SEGMENT
_this$ = -8						; size = 4
?getString@Formattable@icu_56@@QAEAAVUnicodeString@2@XZ PROC ; icu_56::Formattable::getString, COMDAT
; _this$ = ecx
; Line 729
	push	ebp
	mov	ebp, esp
	sub	esp, 204				; 000000ccH
	push	ebx
	push	esi
	push	edi
	push	ecx
	lea	edi, DWORD PTR [ebp-204]
	mov	ecx, 51					; 00000033H
	mov	eax, -858993460				; ccccccccH
	rep stosd
	pop	ecx
	mov	DWORD PTR _this$[ebp], ecx
; Line 730
	mov	eax, DWORD PTR _this$[ebp]
	mov	eax, DWORD PTR [eax+8]
; Line 731
	pop	edi
	pop	esi
	pop	ebx
	mov	esp, ebp
	pop	ebp
	ret	0
?getString@Formattable@icu_56@@QAEAAVUnicodeString@2@XZ ENDP ; icu_56::Formattable::getString
_TEXT	ENDS
PUBLIC	?getLong@Formattable@icu_56@@QBEHPAW4UErrorCode@@@Z ; icu_56::Formattable::getLong
EXTRN	?getLong@Formattable@icu_56@@QBEHAAW4UErrorCode@@@Z:PROC ; icu_56::Formattable::getLong
; Function compile flags: /Odtp /RTCsu /ZI
;	COMDAT ?getLong@Formattable@icu_56@@QBEHPAW4UErrorCode@@@Z
_TEXT	SEGMENT
_this$ = -8						; size = 4
_status$ = 8						; size = 4
?getLong@Formattable@icu_56@@QBEHPAW4UErrorCode@@@Z PROC ; icu_56::Formattable::getLong, COMDAT
; _this$ = ecx
; Line 734
	push	ebp
	mov	ebp, esp
	sub	esp, 204				; 000000ccH
	push	ebx
	push	esi
	push	edi
	push	ecx
	lea	edi, DWORD PTR [ebp-204]
	mov	ecx, 51					; 00000033H
	mov	eax, -858993460				; ccccccccH
	rep stosd
	pop	ecx
	mov	DWORD PTR _this$[ebp], ecx
; Line 735
	mov	eax, DWORD PTR _status$[ebp]
	push	eax
	mov	ecx, DWORD PTR _this$[ebp]
	call	?getLong@Formattable@icu_56@@QBEHAAW4UErrorCode@@@Z ; icu_56::Formattable::getLong
; Line 736
	pop	edi
	pop	esi
	pop	ebx
	add	esp, 204				; 000000ccH
	cmp	ebp, esp
	call	__RTC_CheckEsp
	mov	esp, ebp
	pop	ebp
	ret	4
?getLong@Formattable@icu_56@@QBEHPAW4UErrorCode@@@Z ENDP ; icu_56::Formattable::getLong
_TEXT	ENDS
PUBLIC	?toUFormattable@Formattable@icu_56@@QAEPAPAXXZ	; icu_56::Formattable::toUFormattable
; Function compile flags: /Odtp /RTCsu /ZI
;	COMDAT ?toUFormattable@Formattable@icu_56@@QAEPAPAXXZ
_TEXT	SEGMENT
_this$ = -8						; size = 4
?toUFormattable@Formattable@icu_56@@QAEPAPAXXZ PROC	; icu_56::Formattable::toUFormattable, COMDAT
; _this$ = ecx
; Line 739
	push	ebp
	mov	ebp, esp
	sub	esp, 204				; 000000ccH
	push	ebx
	push	esi
	push	edi
	push	ecx
	lea	edi, DWORD PTR [ebp-204]
	mov	ecx, 51					; 00000033H
	mov	eax, -858993460				; ccccccccH
	rep stosd
	pop	ecx
	mov	DWORD PTR _this$[ebp], ecx
; Line 740
	mov	eax, DWORD PTR _this$[ebp]
; Line 741
	pop	edi
	pop	esi
	pop	ebx
	mov	esp, ebp
	pop	ebp
	ret	0
?toUFormattable@Formattable@icu_56@@QAEPAPAXXZ ENDP	; icu_56::Formattable::toUFormattable
_TEXT	ENDS
PUBLIC	?toUFormattable@Formattable@icu_56@@QBEPBQAXXZ	; icu_56::Formattable::toUFormattable
; Function compile flags: /Odtp /RTCsu /ZI
;	COMDAT ?toUFormattable@Formattable@icu_56@@QBEPBQAXXZ
_TEXT	SEGMENT
_this$ = -8						; size = 4
?toUFormattable@Formattable@icu_56@@QBEPBQAXXZ PROC	; icu_56::Formattable::toUFormattable, COMDAT
; _this$ = ecx
; Line 743
	push	ebp
	mov	ebp, esp
	sub	esp, 204				; 000000ccH
	push	ebx
	push	esi
	push	edi
	push	ecx
	lea	edi, DWORD PTR [ebp-204]
	mov	ecx, 51					; 00000033H
	mov	eax, -858993460				; ccccccccH
	rep stosd
	pop	ecx
	mov	DWORD PTR _this$[ebp], ecx
; Line 744
	mov	eax, DWORD PTR _this$[ebp]
; Line 745
	pop	edi
	pop	esi
	pop	ebx
	mov	esp, ebp
	pop	ebp
	ret	0
?toUFormattable@Formattable@icu_56@@QBEPBQAXXZ ENDP	; icu_56::Formattable::toUFormattable
_TEXT	ENDS
PUBLIC	?fromUFormattable@Formattable@icu_56@@SAPAV12@PAPAX@Z ; icu_56::Formattable::fromUFormattable
; Function compile flags: /Odtp /RTCsu /ZI
;	COMDAT ?fromUFormattable@Formattable@icu_56@@SAPAV12@PAPAX@Z
_TEXT	SEGMENT
_fmt$ = 8						; size = 4
?fromUFormattable@Formattable@icu_56@@SAPAV12@PAPAX@Z PROC ; icu_56::Formattable::fromUFormattable, COMDAT
; Line 747
	push	ebp
	mov	ebp, esp
	sub	esp, 192				; 000000c0H
	push	ebx
	push	esi
	push	edi
	lea	edi, DWORD PTR [ebp-192]
	mov	ecx, 48					; 00000030H
	mov	eax, -858993460				; ccccccccH
	rep stosd
; Line 748
	mov	eax, DWORD PTR _fmt$[ebp]
; Line 749
	pop	edi
	pop	esi
	pop	ebx
	mov	esp, ebp
	pop	ebp
	ret	0
?fromUFormattable@Formattable@icu_56@@SAPAV12@PAPAX@Z ENDP ; icu_56::Formattable::fromUFormattable
_TEXT	ENDS
PUBLIC	?fromUFormattable@Formattable@icu_56@@SAPBV12@PBQAX@Z ; icu_56::Formattable::fromUFormattable
; Function compile flags: /Odtp /RTCsu /ZI
;	COMDAT ?fromUFormattable@Formattable@icu_56@@SAPBV12@PBQAX@Z
_TEXT	SEGMENT
_fmt$ = 8						; size = 4
?fromUFormattable@Formattable@icu_56@@SAPBV12@PBQAX@Z PROC ; icu_56::Formattable::fromUFormattable, COMDAT
; Line 751
	push	ebp
	mov	ebp, esp
	sub	esp, 192				; 000000c0H
	push	ebx
	push	esi
	push	edi
	lea	edi, DWORD PTR [ebp-192]
	mov	ecx, 48					; 00000030H
	mov	eax, -858993460				; ccccccccH
	rep stosd
; Line 752
	mov	eax, DWORD PTR _fmt$[ebp]
; Line 753
	pop	edi
	pop	esi
	pop	ebx
	mov	esp, ebp
	pop	ebp
	ret	0
?fromUFormattable@Formattable@icu_56@@SAPBV12@PBQAX@Z ENDP ; icu_56::Formattable::fromUFormattable
_TEXT	ENDS
PUBLIC	??_7FieldPosition@icu_56@@6B@			; icu_56::FieldPosition::`vftable'
PUBLIC	??0FieldPosition@icu_56@@QAE@XZ			; icu_56::FieldPosition::FieldPosition
PUBLIC	??_R4FieldPosition@icu_56@@6B@			; icu_56::FieldPosition::`RTTI Complete Object Locator'
PUBLIC	??_R0?AVFieldPosition@icu_56@@@8		; icu_56::FieldPosition `RTTI Type Descriptor'
PUBLIC	??_R3FieldPosition@icu_56@@8			; icu_56::FieldPosition::`RTTI Class Hierarchy Descriptor'
PUBLIC	??_R2FieldPosition@icu_56@@8			; icu_56::FieldPosition::`RTTI Base Class Array'
PUBLIC	??_R1A@?0A@EA@FieldPosition@icu_56@@8		; icu_56::FieldPosition::`RTTI Base Class Descriptor at (0,-1,0,64)'
PUBLIC	??_R1A@?0A@EA@UObject@icu_56@@8			; icu_56::UObject::`RTTI Base Class Descriptor at (0,-1,0,64)'
PUBLIC	??_R0?AVUObject@icu_56@@@8			; icu_56::UObject `RTTI Type Descriptor'
PUBLIC	??_R3UObject@icu_56@@8				; icu_56::UObject::`RTTI Class Hierarchy Descriptor'
PUBLIC	??_R2UObject@icu_56@@8				; icu_56::UObject::`RTTI Base Class Array'
PUBLIC	??_R13?0A@EA@UMemory@icu_56@@8			; icu_56::UMemory::`RTTI Base Class Descriptor at (4,-1,0,64)'
PUBLIC	??_R0?AVUMemory@icu_56@@@8			; icu_56::UMemory `RTTI Type Descriptor'
PUBLIC	??_R3UMemory@icu_56@@8				; icu_56::UMemory::`RTTI Class Hierarchy Descriptor'
PUBLIC	??_R2UMemory@icu_56@@8				; icu_56::UMemory::`RTTI Base Class Array'
PUBLIC	??_R1A@?0A@EA@UMemory@icu_56@@8			; icu_56::UMemory::`RTTI Base Class Descriptor at (0,-1,0,64)'
PUBLIC	??_EFieldPosition@icu_56@@UAEPAXI@Z		; icu_56::FieldPosition::`vector deleting destructor'
EXTRN	__imp_??0UObject@icu_56@@QAE@XZ:PROC
EXTRN	??_7type_info@@6B@:QWORD			; type_info::`vftable'
EXTRN	?getDynamicClassID@FieldPosition@icu_56@@UBEPAXXZ:PROC ; icu_56::FieldPosition::getDynamicClassID
;	COMDAT ??_R1A@?0A@EA@UMemory@icu_56@@8
; File d:\mozilla\intl\icu\source\i18n\unicode\fieldpos.h
rdata$r	SEGMENT
??_R1A@?0A@EA@UMemory@icu_56@@8 DD FLAT:??_R0?AVUMemory@icu_56@@@8 ; icu_56::UMemory::`RTTI Base Class Descriptor at (0,-1,0,64)'
	DD	00H
	DD	00H
	DD	0ffffffffH
	DD	00H
	DD	040H
	DD	FLAT:??_R3UMemory@icu_56@@8
rdata$r	ENDS
;	COMDAT ??_R2UMemory@icu_56@@8
rdata$r	SEGMENT
??_R2UMemory@icu_56@@8 DD FLAT:??_R1A@?0A@EA@UMemory@icu_56@@8 ; icu_56::UMemory::`RTTI Base Class Array'
rdata$r	ENDS
;	COMDAT ??_R3UMemory@icu_56@@8
rdata$r	SEGMENT
??_R3UMemory@icu_56@@8 DD 00H				; icu_56::UMemory::`RTTI Class Hierarchy Descriptor'
	DD	00H
	DD	01H
	DD	FLAT:??_R2UMemory@icu_56@@8
rdata$r	ENDS
;	COMDAT ??_R0?AVUMemory@icu_56@@@8
_DATA	SEGMENT
??_R0?AVUMemory@icu_56@@@8 DD FLAT:??_7type_info@@6B@	; icu_56::UMemory `RTTI Type Descriptor'
	DD	00H
	DB	'.?AVUMemory@icu_56@@', 00H
_DATA	ENDS
;	COMDAT ??_R13?0A@EA@UMemory@icu_56@@8
rdata$r	SEGMENT
??_R13?0A@EA@UMemory@icu_56@@8 DD FLAT:??_R0?AVUMemory@icu_56@@@8 ; icu_56::UMemory::`RTTI Base Class Descriptor at (4,-1,0,64)'
	DD	00H
	DD	04H
	DD	0ffffffffH
	DD	00H
	DD	040H
	DD	FLAT:??_R3UMemory@icu_56@@8
rdata$r	ENDS
;	COMDAT ??_R2UObject@icu_56@@8
rdata$r	SEGMENT
??_R2UObject@icu_56@@8 DD FLAT:??_R1A@?0A@EA@UObject@icu_56@@8 ; icu_56::UObject::`RTTI Base Class Array'
	DD	FLAT:??_R13?0A@EA@UMemory@icu_56@@8
rdata$r	ENDS
;	COMDAT ??_R3UObject@icu_56@@8
rdata$r	SEGMENT
??_R3UObject@icu_56@@8 DD 00H				; icu_56::UObject::`RTTI Class Hierarchy Descriptor'
	DD	00H
	DD	02H
	DD	FLAT:??_R2UObject@icu_56@@8
rdata$r	ENDS
;	COMDAT ??_R0?AVUObject@icu_56@@@8
_DATA	SEGMENT
??_R0?AVUObject@icu_56@@@8 DD FLAT:??_7type_info@@6B@	; icu_56::UObject `RTTI Type Descriptor'
	DD	00H
	DB	'.?AVUObject@icu_56@@', 00H
_DATA	ENDS
;	COMDAT ??_R1A@?0A@EA@UObject@icu_56@@8
rdata$r	SEGMENT
??_R1A@?0A@EA@UObject@icu_56@@8 DD FLAT:??_R0?AVUObject@icu_56@@@8 ; icu_56::UObject::`RTTI Base Class Descriptor at (0,-1,0,64)'
	DD	01H
	DD	00H
	DD	0ffffffffH
	DD	00H
	DD	040H
	DD	FLAT:??_R3UObject@icu_56@@8
rdata$r	ENDS
;	COMDAT ??_R1A@?0A@EA@FieldPosition@icu_56@@8
rdata$r	SEGMENT
??_R1A@?0A@EA@FieldPosition@icu_56@@8 DD FLAT:??_R0?AVFieldPosition@icu_56@@@8 ; icu_56::FieldPosition::`RTTI Base Class Descriptor at (0,-1,0,64)'
	DD	02H
	DD	00H
	DD	0ffffffffH
	DD	00H
	DD	040H
	DD	FLAT:??_R3FieldPosition@icu_56@@8
rdata$r	ENDS
;	COMDAT ??_R2FieldPosition@icu_56@@8
rdata$r	SEGMENT
??_R2FieldPosition@icu_56@@8 DD FLAT:??_R1A@?0A@EA@FieldPosition@icu_56@@8 ; icu_56::FieldPosition::`RTTI Base Class Array'
	DD	FLAT:??_R1A@?0A@EA@UObject@icu_56@@8
	DD	FLAT:??_R13?0A@EA@UMemory@icu_56@@8
rdata$r	ENDS
;	COMDAT ??_R3FieldPosition@icu_56@@8
rdata$r	SEGMENT
??_R3FieldPosition@icu_56@@8 DD 00H			; icu_56::FieldPosition::`RTTI Class Hierarchy Descriptor'
	DD	00H
	DD	03H
	DD	FLAT:??_R2FieldPosition@icu_56@@8
rdata$r	ENDS
;	COMDAT ??_R0?AVFieldPosition@icu_56@@@8
_DATA	SEGMENT
??_R0?AVFieldPosition@icu_56@@@8 DD FLAT:??_7type_info@@6B@ ; icu_56::FieldPosition `RTTI Type Descriptor'
	DD	00H
	DB	'.?AVFieldPosition@icu_56@@', 00H
_DATA	ENDS
;	COMDAT ??_R4FieldPosition@icu_56@@6B@
rdata$r	SEGMENT
??_R4FieldPosition@icu_56@@6B@ DD 00H			; icu_56::FieldPosition::`RTTI Complete Object Locator'
	DD	00H
	DD	00H
	DD	FLAT:??_R0?AVFieldPosition@icu_56@@@8
	DD	FLAT:??_R3FieldPosition@icu_56@@8
rdata$r	ENDS
;	COMDAT ??_7FieldPosition@icu_56@@6B@
CONST	SEGMENT
??_7FieldPosition@icu_56@@6B@ DD FLAT:??_R4FieldPosition@icu_56@@6B@ ; icu_56::FieldPosition::`vftable'
	DD	FLAT:??_EFieldPosition@icu_56@@UAEPAXI@Z
	DD	FLAT:?getDynamicClassID@FieldPosition@icu_56@@UBEPAXXZ
; Function compile flags: /Odtp /RTCsu /ZI
CONST	ENDS
;	COMDAT ??0FieldPosition@icu_56@@QAE@XZ
_TEXT	SEGMENT
_this$ = -8						; size = 4
??0FieldPosition@icu_56@@QAE@XZ PROC			; icu_56::FieldPosition::FieldPosition, COMDAT
; _this$ = ecx
; Line 118
	push	ebp
	mov	ebp, esp
	sub	esp, 204				; 000000ccH
	push	ebx
	push	esi
	push	edi
	push	ecx
	lea	edi, DWORD PTR [ebp-204]
	mov	ecx, 51					; 00000033H
	mov	eax, -858993460				; ccccccccH
	rep stosd
	pop	ecx
	mov	DWORD PTR _this$[ebp], ecx
	mov	esi, esp
	mov	ecx, DWORD PTR _this$[ebp]
	call	DWORD PTR __imp_??0UObject@icu_56@@QAE@XZ
	cmp	esi, esp
	call	__RTC_CheckEsp
	mov	eax, DWORD PTR _this$[ebp]
	mov	DWORD PTR [eax], OFFSET ??_7FieldPosition@icu_56@@6B@
	mov	eax, DWORD PTR _this$[ebp]
	mov	DWORD PTR [eax+4], -1
	mov	eax, DWORD PTR _this$[ebp]
	mov	DWORD PTR [eax+8], 0
	mov	eax, DWORD PTR _this$[ebp]
	mov	DWORD PTR [eax+12], 0
	mov	eax, DWORD PTR _this$[ebp]
	pop	edi
	pop	esi
	pop	ebx
	add	esp, 204				; 000000ccH
	cmp	ebp, esp
	call	__RTC_CheckEsp
	mov	esp, ebp
	pop	ebp
	ret	0
??0FieldPosition@icu_56@@QAE@XZ ENDP			; icu_56::FieldPosition::FieldPosition
_TEXT	ENDS
PUBLIC	??0FieldPosition@icu_56@@QAE@H@Z		; icu_56::FieldPosition::FieldPosition
; Function compile flags: /Odtp /RTCsu /ZI
;	COMDAT ??0FieldPosition@icu_56@@QAE@H@Z
_TEXT	SEGMENT
_this$ = -8						; size = 4
_field$ = 8						; size = 4
??0FieldPosition@icu_56@@QAE@H@Z PROC			; icu_56::FieldPosition::FieldPosition, COMDAT
; _this$ = ecx
; Line 132
	push	ebp
	mov	ebp, esp
	sub	esp, 204				; 000000ccH
	push	ebx
	push	esi
	push	edi
	push	ecx
	lea	edi, DWORD PTR [ebp-204]
	mov	ecx, 51					; 00000033H
	mov	eax, -858993460				; ccccccccH
	rep stosd
	pop	ecx
	mov	DWORD PTR _this$[ebp], ecx
	mov	esi, esp
	mov	ecx, DWORD PTR _this$[ebp]
	call	DWORD PTR __imp_??0UObject@icu_56@@QAE@XZ
	cmp	esi, esp
	call	__RTC_CheckEsp
	mov	eax, DWORD PTR _this$[ebp]
	mov	DWORD PTR [eax], OFFSET ??_7FieldPosition@icu_56@@6B@
	mov	eax, DWORD PTR _this$[ebp]
	mov	ecx, DWORD PTR _field$[ebp]
	mov	DWORD PTR [eax+4], ecx
	mov	eax, DWORD PTR _this$[ebp]
	mov	DWORD PTR [eax+8], 0
	mov	eax, DWORD PTR _this$[ebp]
	mov	DWORD PTR [eax+12], 0
	mov	eax, DWORD PTR _this$[ebp]
	pop	edi
	pop	esi
	pop	ebx
	add	esp, 204				; 000000ccH
	cmp	ebp, esp
	call	__RTC_CheckEsp
	mov	esp, ebp
	pop	ebp
	ret	4
??0FieldPosition@icu_56@@QAE@H@Z ENDP			; icu_56::FieldPosition::FieldPosition
_TEXT	ENDS
PUBLIC	??0FieldPosition@icu_56@@QAE@ABV01@@Z		; icu_56::FieldPosition::FieldPosition
EXTRN	__imp_??0UObject@icu_56@@QAE@ABV01@@Z:PROC
; Function compile flags: /Odtp /RTCsu /ZI
;	COMDAT ??0FieldPosition@icu_56@@QAE@ABV01@@Z
_TEXT	SEGMENT
_this$ = -8						; size = 4
_copy$ = 8						; size = 4
??0FieldPosition@icu_56@@QAE@ABV01@@Z PROC		; icu_56::FieldPosition::FieldPosition, COMDAT
; _this$ = ecx
; Line 140
	push	ebp
	mov	ebp, esp
	sub	esp, 204				; 000000ccH
	push	ebx
	push	esi
	push	edi
	push	ecx
	lea	edi, DWORD PTR [ebp-204]
	mov	ecx, 51					; 00000033H
	mov	eax, -858993460				; ccccccccH
	rep stosd
	pop	ecx
	mov	DWORD PTR _this$[ebp], ecx
	mov	esi, esp
	mov	eax, DWORD PTR _copy$[ebp]
	push	eax
	mov	ecx, DWORD PTR _this$[ebp]
	call	DWORD PTR __imp_??0UObject@icu_56@@QAE@ABV01@@Z
	cmp	esi, esp
	call	__RTC_CheckEsp
	mov	eax, DWORD PTR _this$[ebp]
	mov	DWORD PTR [eax], OFFSET ??_7FieldPosition@icu_56@@6B@
	mov	eax, DWORD PTR _this$[ebp]
	mov	ecx, DWORD PTR _copy$[ebp]
	mov	edx, DWORD PTR [ecx+4]
	mov	DWORD PTR [eax+4], edx
	mov	eax, DWORD PTR _this$[ebp]
	mov	ecx, DWORD PTR _copy$[ebp]
	mov	edx, DWORD PTR [ecx+8]
	mov	DWORD PTR [eax+8], edx
	mov	eax, DWORD PTR _this$[ebp]
	mov	ecx, DWORD PTR _copy$[ebp]
	mov	edx, DWORD PTR [ecx+12]
	mov	DWORD PTR [eax+12], edx
	mov	eax, DWORD PTR _this$[ebp]
	pop	edi
	pop	esi
	pop	ebx
	add	esp, 204				; 000000ccH
	cmp	ebp, esp
	call	__RTC_CheckEsp
	mov	esp, ebp
	pop	ebp
	ret	4
??0FieldPosition@icu_56@@QAE@ABV01@@Z ENDP		; icu_56::FieldPosition::FieldPosition
_TEXT	ENDS
PUBLIC	?getField@FieldPosition@icu_56@@QBEHXZ		; icu_56::FieldPosition::getField
; Function compile flags: /Odtp /RTCsu /ZI
;	COMDAT ?getField@FieldPosition@icu_56@@QBEHXZ
_TEXT	SEGMENT
_this$ = -8						; size = 4
?getField@FieldPosition@icu_56@@QBEHXZ PROC		; icu_56::FieldPosition::getField, COMDAT
; _this$ = ecx
; Line 190
	push	ebp
	mov	ebp, esp
	sub	esp, 204				; 000000ccH
	push	ebx
	push	esi
	push	edi
	push	ecx
	lea	edi, DWORD PTR [ebp-204]
	mov	ecx, 51					; 00000033H
	mov	eax, -858993460				; ccccccccH
	rep stosd
	pop	ecx
	mov	DWORD PTR _this$[ebp], ecx
	mov	eax, DWORD PTR _this$[ebp]
	mov	eax, DWORD PTR [eax+4]
	pop	edi
	pop	esi
	pop	ebx
	mov	esp, ebp
	pop	ebp
	ret	0
?getField@FieldPosition@icu_56@@QBEHXZ ENDP		; icu_56::FieldPosition::getField
_TEXT	ENDS
PUBLIC	?getBeginIndex@FieldPosition@icu_56@@QBEHXZ	; icu_56::FieldPosition::getBeginIndex
; Function compile flags: /Odtp /RTCsu /ZI
;	COMDAT ?getBeginIndex@FieldPosition@icu_56@@QBEHXZ
_TEXT	SEGMENT
_this$ = -8						; size = 4
?getBeginIndex@FieldPosition@icu_56@@QBEHXZ PROC	; icu_56::FieldPosition::getBeginIndex, COMDAT
; _this$ = ecx
; Line 197
	push	ebp
	mov	ebp, esp
	sub	esp, 204				; 000000ccH
	push	ebx
	push	esi
	push	edi
	push	ecx
	lea	edi, DWORD PTR [ebp-204]
	mov	ecx, 51					; 00000033H
	mov	eax, -858993460				; ccccccccH
	rep stosd
	pop	ecx
	mov	DWORD PTR _this$[ebp], ecx
	mov	eax, DWORD PTR _this$[ebp]
	mov	eax, DWORD PTR [eax+8]
	pop	edi
	pop	esi
	pop	ebx
	mov	esp, ebp
	pop	ebp
	ret	0
?getBeginIndex@FieldPosition@icu_56@@QBEHXZ ENDP	; icu_56::FieldPosition::getBeginIndex
_TEXT	ENDS
PUBLIC	?getEndIndex@FieldPosition@icu_56@@QBEHXZ	; icu_56::FieldPosition::getEndIndex
; Function compile flags: /Odtp /RTCsu /ZI
;	COMDAT ?getEndIndex@FieldPosition@icu_56@@QBEHXZ
_TEXT	SEGMENT
_this$ = -8						; size = 4
?getEndIndex@FieldPosition@icu_56@@QBEHXZ PROC		; icu_56::FieldPosition::getEndIndex, COMDAT
; _this$ = ecx
; Line 206
	push	ebp
	mov	ebp, esp
	sub	esp, 204				; 000000ccH
	push	ebx
	push	esi
	push	edi
	push	ecx
	lea	edi, DWORD PTR [ebp-204]
	mov	ecx, 51					; 00000033H
	mov	eax, -858993460				; ccccccccH
	rep stosd
	pop	ecx
	mov	DWORD PTR _this$[ebp], ecx
	mov	eax, DWORD PTR _this$[ebp]
	mov	eax, DWORD PTR [eax+12]
	pop	edi
	pop	esi
	pop	ebx
	mov	esp, ebp
	pop	ebp
	ret	0
?getEndIndex@FieldPosition@icu_56@@QBEHXZ ENDP		; icu_56::FieldPosition::getEndIndex
_TEXT	ENDS
PUBLIC	?setField@FieldPosition@icu_56@@QAEXH@Z		; icu_56::FieldPosition::setField
; Function compile flags: /Odtp /RTCsu /ZI
;	COMDAT ?setField@FieldPosition@icu_56@@QAEXH@Z
_TEXT	SEGMENT
_this$ = -8						; size = 4
_f$ = 8							; size = 4
?setField@FieldPosition@icu_56@@QAEXH@Z PROC		; icu_56::FieldPosition::setField, COMDAT
; _this$ = ecx
; Line 213
	push	ebp
	mov	ebp, esp
	sub	esp, 204				; 000000ccH
	push	ebx
	push	esi
	push	edi
	push	ecx
	lea	edi, DWORD PTR [ebp-204]
	mov	ecx, 51					; 00000033H
	mov	eax, -858993460				; ccccccccH
	rep stosd
	pop	ecx
	mov	DWORD PTR _this$[ebp], ecx
	mov	eax, DWORD PTR _this$[ebp]
	mov	ecx, DWORD PTR _f$[ebp]
	mov	DWORD PTR [eax+4], ecx
	pop	edi
	pop	esi
	pop	ebx
	mov	esp, ebp
	pop	ebp
	ret	4
?setField@FieldPosition@icu_56@@QAEXH@Z ENDP		; icu_56::FieldPosition::setField
_TEXT	ENDS
PUBLIC	?setBeginIndex@FieldPosition@icu_56@@QAEXH@Z	; icu_56::FieldPosition::setBeginIndex
; Function compile flags: /Odtp /RTCsu /ZI
;	COMDAT ?setBeginIndex@FieldPosition@icu_56@@QAEXH@Z
_TEXT	SEGMENT
_this$ = -8						; size = 4
_bi$ = 8						; size = 4
?setBeginIndex@FieldPosition@icu_56@@QAEXH@Z PROC	; icu_56::FieldPosition::setBeginIndex, COMDAT
; _this$ = ecx
; Line 220
	push	ebp
	mov	ebp, esp
	sub	esp, 204				; 000000ccH
	push	ebx
	push	esi
	push	edi
	push	ecx
	lea	edi, DWORD PTR [ebp-204]
	mov	ecx, 51					; 00000033H
	mov	eax, -858993460				; ccccccccH
	rep stosd
	pop	ecx
	mov	DWORD PTR _this$[ebp], ecx
	mov	eax, DWORD PTR _this$[ebp]
	mov	ecx, DWORD PTR _bi$[ebp]
	mov	DWORD PTR [eax+8], ecx
	pop	edi
	pop	esi
	pop	ebx
	mov	esp, ebp
	pop	ebp
	ret	4
?setBeginIndex@FieldPosition@icu_56@@QAEXH@Z ENDP	; icu_56::FieldPosition::setBeginIndex
_TEXT	ENDS
PUBLIC	?setEndIndex@FieldPosition@icu_56@@QAEXH@Z	; icu_56::FieldPosition::setEndIndex
; Function compile flags: /Odtp /RTCsu /ZI
;	COMDAT ?setEndIndex@FieldPosition@icu_56@@QAEXH@Z
_TEXT	SEGMENT
_this$ = -8						; size = 4
_ei$ = 8						; size = 4
?setEndIndex@FieldPosition@icu_56@@QAEXH@Z PROC		; icu_56::FieldPosition::setEndIndex, COMDAT
; _this$ = ecx
; Line 227
	push	ebp
	mov	ebp, esp
	sub	esp, 204				; 000000ccH
	push	ebx
	push	esi
	push	edi
	push	ecx
	lea	edi, DWORD PTR [ebp-204]
	mov	ecx, 51					; 00000033H
	mov	eax, -858993460				; ccccccccH
	rep stosd
	pop	ecx
	mov	DWORD PTR _this$[ebp], ecx
	mov	eax, DWORD PTR _this$[ebp]
	mov	ecx, DWORD PTR _ei$[ebp]
	mov	DWORD PTR [eax+12], ecx
	pop	edi
	pop	esi
	pop	ebx
	mov	esp, ebp
	pop	ebp
	ret	4
?setEndIndex@FieldPosition@icu_56@@QAEXH@Z ENDP		; icu_56::FieldPosition::setEndIndex
_TEXT	ENDS
PUBLIC	??_GFieldPosition@icu_56@@UAEPAXI@Z		; icu_56::FieldPosition::`scalar deleting destructor'
EXTRN	__imp_??3UMemory@icu_56@@SAXPAX@Z:PROC
EXTRN	??1FieldPosition@icu_56@@UAE@XZ:PROC		; icu_56::FieldPosition::~FieldPosition
; Function compile flags: /Odtp /RTCsu /ZI
;	COMDAT ??_GFieldPosition@icu_56@@UAEPAXI@Z
_TEXT	SEGMENT
_this$ = -8						; size = 4
___flags$ = 8						; size = 4
??_GFieldPosition@icu_56@@UAEPAXI@Z PROC		; icu_56::FieldPosition::`scalar deleting destructor', COMDAT
; _this$ = ecx
	push	ebp
	mov	ebp, esp
	sub	esp, 204				; 000000ccH
	push	ebx
	push	esi
	push	edi
	push	ecx
	lea	edi, DWORD PTR [ebp-204]
	mov	ecx, 51					; 00000033H
	mov	eax, -858993460				; ccccccccH
	rep stosd
	pop	ecx
	mov	DWORD PTR _this$[ebp], ecx
	mov	ecx, DWORD PTR _this$[ebp]
	call	??1FieldPosition@icu_56@@UAE@XZ		; icu_56::FieldPosition::~FieldPosition
	mov	eax, DWORD PTR ___flags$[ebp]
	and	eax, 1
	je	SHORT $LN1@scalar
	mov	esi, esp
	mov	eax, DWORD PTR _this$[ebp]
	push	eax
	call	DWORD PTR __imp_??3UMemory@icu_56@@SAXPAX@Z
	add	esp, 4
	cmp	esi, esp
	call	__RTC_CheckEsp
$LN1@scalar:
	mov	eax, DWORD PTR _this$[ebp]
	pop	edi
	pop	esi
	pop	ebx
	add	esp, 204				; 000000ccH
	cmp	ebp, esp
	call	__RTC_CheckEsp
	mov	esp, ebp
	pop	ebp
	ret	4
??_GFieldPosition@icu_56@@UAEPAXI@Z ENDP		; icu_56::FieldPosition::`scalar deleting destructor'
_TEXT	ENDS
EXTRN	__imp_??_VUMemory@icu_56@@SAXPAX@Z:PROC
EXTRN	??_M@YGXPAXIHP6EX0@Z@Z:PROC			; `eh vector destructor iterator'
; Function compile flags: /Odtp /RTCsu /ZI
;	COMDAT ??_EFieldPosition@icu_56@@UAEPAXI@Z
_TEXT	SEGMENT
_this$ = -8						; size = 4
___flags$ = 8						; size = 4
??_EFieldPosition@icu_56@@UAEPAXI@Z PROC		; icu_56::FieldPosition::`vector deleting destructor', COMDAT
; _this$ = ecx
	push	ebp
	mov	ebp, esp
	sub	esp, 204				; 000000ccH
	push	ebx
	push	esi
	push	edi
	push	ecx
	lea	edi, DWORD PTR [ebp-204]
	mov	ecx, 51					; 00000033H
	mov	eax, -858993460				; ccccccccH
	rep stosd
	pop	ecx
	mov	DWORD PTR _this$[ebp], ecx
	mov	eax, DWORD PTR ___flags$[ebp]
	and	eax, 2
	je	SHORT $LN3@vector
	push	OFFSET ??1FieldPosition@icu_56@@UAE@XZ	; icu_56::FieldPosition::~FieldPosition
	mov	eax, DWORD PTR _this$[ebp]
	mov	ecx, DWORD PTR [eax-4]
	push	ecx
	push	16					; 00000010H
	mov	edx, DWORD PTR _this$[ebp]
	push	edx
	call	??_M@YGXPAXIHP6EX0@Z@Z
	mov	eax, DWORD PTR ___flags$[ebp]
	and	eax, 1
	je	SHORT $LN2@vector
	mov	eax, DWORD PTR _this$[ebp]
	sub	eax, 4
	mov	esi, esp
	push	eax
	call	DWORD PTR __imp_??_VUMemory@icu_56@@SAXPAX@Z
	add	esp, 4
	cmp	esi, esp
	call	__RTC_CheckEsp
$LN2@vector:
	mov	eax, DWORD PTR _this$[ebp]
	sub	eax, 4
	jmp	SHORT $LN4@vector
$LN3@vector:
	mov	ecx, DWORD PTR _this$[ebp]
	call	??1FieldPosition@icu_56@@UAE@XZ		; icu_56::FieldPosition::~FieldPosition
	mov	eax, DWORD PTR ___flags$[ebp]
	and	eax, 1
	je	SHORT $LN1@vector
	mov	esi, esp
	mov	eax, DWORD PTR _this$[ebp]
	push	eax
	call	DWORD PTR __imp_??3UMemory@icu_56@@SAXPAX@Z
	add	esp, 4
	cmp	esi, esp
	call	__RTC_CheckEsp
$LN1@vector:
	mov	eax, DWORD PTR _this$[ebp]
$LN4@vector:
	pop	edi
	pop	esi
	pop	ebx
	add	esp, 204				; 000000ccH
	cmp	ebp, esp
	call	__RTC_CheckEsp
	mov	esp, ebp
	pop	ebp
	ret	4
??_EFieldPosition@icu_56@@UAEPAXI@Z ENDP		; icu_56::FieldPosition::`vector deleting destructor'
_TEXT	ENDS
PUBLIC	??4FieldPosition@icu_56@@QAEAAV01@ABV01@@Z	; icu_56::FieldPosition::operator=
; Function compile flags: /Odtp /RTCsu /ZI
;	COMDAT ??4FieldPosition@icu_56@@QAEAAV01@ABV01@@Z
_TEXT	SEGMENT
_this$ = -8						; size = 4
_copy$ = 8						; size = 4
??4FieldPosition@icu_56@@QAEAAV01@ABV01@@Z PROC		; icu_56::FieldPosition::operator=, COMDAT
; _this$ = ecx
; Line 265
	push	ebp
	mov	ebp, esp
	sub	esp, 204				; 000000ccH
	push	ebx
	push	esi
	push	edi
	push	ecx
	lea	edi, DWORD PTR [ebp-204]
	mov	ecx, 51					; 00000033H
	mov	eax, -858993460				; ccccccccH
	rep stosd
	pop	ecx
	mov	DWORD PTR _this$[ebp], ecx
; Line 266
	mov	eax, DWORD PTR _this$[ebp]
	mov	ecx, DWORD PTR _copy$[ebp]
	mov	edx, DWORD PTR [ecx+4]
	mov	DWORD PTR [eax+4], edx
; Line 267
	mov	eax, DWORD PTR _this$[ebp]
	mov	ecx, DWORD PTR _copy$[ebp]
	mov	edx, DWORD PTR [ecx+12]
	mov	DWORD PTR [eax+12], edx
; Line 268
	mov	eax, DWORD PTR _this$[ebp]
	mov	ecx, DWORD PTR _copy$[ebp]
	mov	edx, DWORD PTR [ecx+8]
	mov	DWORD PTR [eax+8], edx
; Line 269
	mov	eax, DWORD PTR _this$[ebp]
; Line 270
	pop	edi
	pop	esi
	pop	ebx
	mov	esp, ebp
	pop	ebp
	ret	4
??4FieldPosition@icu_56@@QAEAAV01@ABV01@@Z ENDP		; icu_56::FieldPosition::operator=
_TEXT	ENDS
PUBLIC	??8FieldPosition@icu_56@@QBECABV01@@Z		; icu_56::FieldPosition::operator==
; Function compile flags: /Odtp /RTCsu /ZI
;	COMDAT ??8FieldPosition@icu_56@@QBECABV01@@Z
_TEXT	SEGMENT
tv73 = -205						; size = 1
_this$ = -8						; size = 4
_copy$ = 8						; size = 4
??8FieldPosition@icu_56@@QBECABV01@@Z PROC		; icu_56::FieldPosition::operator==, COMDAT
; _this$ = ecx
; Line 274
	push	ebp
	mov	ebp, esp
	sub	esp, 208				; 000000d0H
	push	ebx
	push	esi
	push	edi
	push	ecx
	lea	edi, DWORD PTR [ebp-208]
	mov	ecx, 52					; 00000034H
	mov	eax, -858993460				; ccccccccH
	rep stosd
	pop	ecx
	mov	DWORD PTR _this$[ebp], ecx
; Line 277
	mov	eax, DWORD PTR _this$[ebp]
	mov	ecx, DWORD PTR _copy$[ebp]
	mov	edx, DWORD PTR [eax+4]
	cmp	edx, DWORD PTR [ecx+4]
	jne	SHORT $LN3@operator
	mov	eax, DWORD PTR _this$[ebp]
	mov	ecx, DWORD PTR _copy$[ebp]
	mov	edx, DWORD PTR [eax+12]
	cmp	edx, DWORD PTR [ecx+12]
	jne	SHORT $LN3@operator
	mov	eax, DWORD PTR _this$[ebp]
	mov	ecx, DWORD PTR _copy$[ebp]
	mov	edx, DWORD PTR [eax+8]
	cmp	edx, DWORD PTR [ecx+8]
	jne	SHORT $LN3@operator
	mov	BYTE PTR tv73[ebp], 1
	jmp	SHORT $LN4@operator
$LN3@operator:
	mov	BYTE PTR tv73[ebp], 0
$LN4@operator:
	mov	al, BYTE PTR tv73[ebp]
; Line 278
	pop	edi
	pop	esi
	pop	ebx
	mov	esp, ebp
	pop	ebp
	ret	4
??8FieldPosition@icu_56@@QBECABV01@@Z ENDP		; icu_56::FieldPosition::operator==
_TEXT	ENDS
PUBLIC	??9FieldPosition@icu_56@@QBECABV01@@Z		; icu_56::FieldPosition::operator!=
; Function compile flags: /Odtp /RTCsu /ZI
;	COMDAT ??9FieldPosition@icu_56@@QBECABV01@@Z
_TEXT	SEGMENT
_this$ = -8						; size = 4
_copy$ = 8						; size = 4
??9FieldPosition@icu_56@@QBECABV01@@Z PROC		; icu_56::FieldPosition::operator!=, COMDAT
; _this$ = ecx
; Line 282
	push	ebp
	mov	ebp, esp
	sub	esp, 204				; 000000ccH
	push	ebx
	push	esi
	push	edi
	push	ecx
	lea	edi, DWORD PTR [ebp-204]
	mov	ecx, 51					; 00000033H
	mov	eax, -858993460				; ccccccccH
	rep stosd
	pop	ecx
	mov	DWORD PTR _this$[ebp], ecx
; Line 283
	mov	eax, DWORD PTR _copy$[ebp]
	push	eax
	mov	ecx, DWORD PTR _this$[ebp]
	call	??8FieldPosition@icu_56@@QBECABV01@@Z	; icu_56::FieldPosition::operator==
	movsx	ecx, al
	test	ecx, ecx
	sete	al
; Line 284
	pop	edi
	pop	esi
	pop	ebx
	add	esp, 204				; 000000ccH
	cmp	ebp, esp
	call	__RTC_CheckEsp
	mov	esp, ebp
	pop	ebp
	ret	4
??9FieldPosition@icu_56@@QBECABV01@@Z ENDP		; icu_56::FieldPosition::operator!=
_TEXT	ENDS
PUBLIC	??9FieldPositionIterator@icu_56@@QBECABV01@@Z	; icu_56::FieldPositionIterator::operator!=
EXTRN	??8FieldPositionIterator@icu_56@@QBECABV01@@Z:PROC ; icu_56::FieldPositionIterator::operator==
; Function compile flags: /Odtp /RTCsu /ZI
;	COMDAT ??9FieldPositionIterator@icu_56@@QBECABV01@@Z
_TEXT	SEGMENT
_this$ = -8						; size = 4
_rhs$ = 8						; size = 4
??9FieldPositionIterator@icu_56@@QBECABV01@@Z PROC	; icu_56::FieldPositionIterator::operator!=, COMDAT
; _this$ = ecx
; File d:\mozilla\intl\icu\source\i18n\unicode\fpositer.h
; Line 90
	push	ebp
	mov	ebp, esp
	sub	esp, 204				; 000000ccH
	push	ebx
	push	esi
	push	edi
	push	ecx
	lea	edi, DWORD PTR [ebp-204]
	mov	ecx, 51					; 00000033H
	mov	eax, -858993460				; ccccccccH
	rep stosd
	pop	ecx
	mov	DWORD PTR _this$[ebp], ecx
	mov	eax, DWORD PTR _rhs$[ebp]
	push	eax
	mov	ecx, DWORD PTR _this$[ebp]
	call	??8FieldPositionIterator@icu_56@@QBECABV01@@Z ; icu_56::FieldPositionIterator::operator==
	movsx	ecx, al
	test	ecx, ecx
	sete	al
	pop	edi
	pop	esi
	pop	ebx
	add	esp, 204				; 000000ccH
	cmp	ebp, esp
	call	__RTC_CheckEsp
	mov	esp, ebp
	pop	ebp
	ret	4
??9FieldPositionIterator@icu_56@@QBECABV01@@Z ENDP	; icu_56::FieldPositionIterator::operator!=
_TEXT	ENDS
PUBLIC	??4FieldPositionIterator@icu_56@@QAEAAV01@ABV01@@Z ; icu_56::FieldPositionIterator::operator=
EXTRN	__imp_??4UObject@icu_56@@QAEAAV01@ABV01@@Z:PROC
; Function compile flags: /Odtp /RTCsu /ZI
;	COMDAT ??4FieldPositionIterator@icu_56@@QAEAAV01@ABV01@@Z
_TEXT	SEGMENT
_this$ = -8						; size = 4
___that$ = 8						; size = 4
??4FieldPositionIterator@icu_56@@QAEAAV01@ABV01@@Z PROC	; icu_56::FieldPositionIterator::operator=, COMDAT
; _this$ = ecx
	push	ebp
	mov	ebp, esp
	sub	esp, 204				; 000000ccH
	push	ebx
	push	esi
	push	edi
	push	ecx
	lea	edi, DWORD PTR [ebp-204]
	mov	ecx, 51					; 00000033H
	mov	eax, -858993460				; ccccccccH
	rep stosd
	pop	ecx
	mov	DWORD PTR _this$[ebp], ecx
	mov	esi, esp
	mov	eax, DWORD PTR ___that$[ebp]
	push	eax
	mov	ecx, DWORD PTR _this$[ebp]
	call	DWORD PTR __imp_??4UObject@icu_56@@QAEAAV01@ABV01@@Z
	cmp	esi, esp
	call	__RTC_CheckEsp
	mov	eax, DWORD PTR _this$[ebp]
	mov	ecx, DWORD PTR ___that$[ebp]
	mov	edx, DWORD PTR [ecx+4]
	mov	DWORD PTR [eax+4], edx
	mov	eax, DWORD PTR _this$[ebp]
	mov	ecx, DWORD PTR ___that$[ebp]
	mov	edx, DWORD PTR [ecx+8]
	mov	DWORD PTR [eax+8], edx
	mov	eax, DWORD PTR _this$[ebp]
	pop	edi
	pop	esi
	pop	ebx
	add	esp, 204				; 000000ccH
	cmp	ebp, esp
	call	__RTC_CheckEsp
	mov	esp, ebp
	pop	ebp
	ret	4
??4FieldPositionIterator@icu_56@@QAEAAV01@ABV01@@Z ENDP	; icu_56::FieldPositionIterator::operator=
_TEXT	ENDS
PUBLIC	??9Format@icu_56@@QBECABV01@@Z			; icu_56::Format::operator!=
; Function compile flags: /Odtp /RTCsu /ZI
;	COMDAT ??9Format@icu_56@@QBECABV01@@Z
_TEXT	SEGMENT
_this$ = -8						; size = 4
_other$ = 8						; size = 4
??9Format@icu_56@@QBECABV01@@Z PROC			; icu_56::Format::operator!=, COMDAT
; _this$ = ecx
; File d:\mozilla\intl\icu\source\i18n\unicode\format.h
; Line 119
	push	ebp
	mov	ebp, esp
	sub	esp, 204				; 000000ccH
	push	ebx
	push	esi
	push	edi
	push	ecx
	lea	edi, DWORD PTR [ebp-204]
	mov	ecx, 51					; 00000033H
	mov	eax, -858993460				; ccccccccH
	rep stosd
	pop	ecx
	mov	DWORD PTR _this$[ebp], ecx
	mov	esi, esp
	mov	eax, DWORD PTR _other$[ebp]
	push	eax
	mov	ecx, DWORD PTR _this$[ebp]
	mov	edx, DWORD PTR [ecx]
	mov	ecx, DWORD PTR _this$[ebp]
	mov	eax, DWORD PTR [edx+8]
	call	eax
	cmp	esi, esp
	call	__RTC_CheckEsp
	movsx	ecx, al
	test	ecx, ecx
	sete	al
	pop	edi
	pop	esi
	pop	ebx
	add	esp, 204				; 000000ccH
	cmp	ebp, esp
	call	__RTC_CheckEsp
	mov	esp, ebp
	pop	ebp
	ret	4
??9Format@icu_56@@QBECABV01@@Z ENDP			; icu_56::Format::operator!=
_TEXT	ENDS
PUBLIC	??9TimeZone@icu_56@@QBECABV01@@Z		; icu_56::TimeZone::operator!=
; Function compile flags: /Odtp /RTCsu /ZI
;	COMDAT ??9TimeZone@icu_56@@QBECABV01@@Z
_TEXT	SEGMENT
_this$ = -8						; size = 4
_that$ = 8						; size = 4
??9TimeZone@icu_56@@QBECABV01@@Z PROC			; icu_56::TimeZone::operator!=, COMDAT
; _this$ = ecx
; File d:\mozilla\intl\icu\source\i18n\unicode\timezone.h
; Line 455
	push	ebp
	mov	ebp, esp
	sub	esp, 204				; 000000ccH
	push	ebx
	push	esi
	push	edi
	push	ecx
	lea	edi, DWORD PTR [ebp-204]
	mov	ecx, 51					; 00000033H
	mov	eax, -858993460				; ccccccccH
	rep stosd
	pop	ecx
	mov	DWORD PTR _this$[ebp], ecx
	mov	esi, esp
	mov	eax, DWORD PTR _that$[ebp]
	push	eax
	mov	ecx, DWORD PTR _this$[ebp]
	mov	edx, DWORD PTR [ecx]
	mov	ecx, DWORD PTR _this$[ebp]
	mov	eax, DWORD PTR [edx+8]
	call	eax
	cmp	esi, esp
	call	__RTC_CheckEsp
	movsx	ecx, al
	test	ecx, ecx
	sete	al
	pop	edi
	pop	esi
	pop	ebx
	add	esp, 204				; 000000ccH
	cmp	ebp, esp
	call	__RTC_CheckEsp
	mov	esp, ebp
	pop	ebp
	ret	4
??9TimeZone@icu_56@@QBECABV01@@Z ENDP			; icu_56::TimeZone::operator!=
_TEXT	ENDS
PUBLIC	?getID@TimeZone@icu_56@@QBEAAVUnicodeString@2@AAV32@@Z ; icu_56::TimeZone::getID
; Function compile flags: /Odtp /RTCsu /ZI
;	COMDAT ?getID@TimeZone@icu_56@@QBEAAVUnicodeString@2@AAV32@@Z
_TEXT	SEGMENT
_this$ = -8						; size = 4
_ID$ = 8						; size = 4
?getID@TimeZone@icu_56@@QBEAAVUnicodeString@2@AAV32@@Z PROC ; icu_56::TimeZone::getID, COMDAT
; _this$ = ecx
; Line 951
	push	ebp
	mov	ebp, esp
	sub	esp, 204				; 000000ccH
	push	ebx
	push	esi
	push	edi
	push	ecx
	lea	edi, DWORD PTR [ebp-204]
	mov	ecx, 51					; 00000033H
	mov	eax, -858993460				; ccccccccH
	rep stosd
	pop	ecx
	mov	DWORD PTR _this$[ebp], ecx
; Line 952
	mov	eax, DWORD PTR _this$[ebp]
	add	eax, 4
	mov	esi, esp
	push	eax
	mov	ecx, DWORD PTR _ID$[ebp]
	call	DWORD PTR __imp_??4UnicodeString@icu_56@@QAEAAV01@ABV01@@Z
	cmp	esi, esp
	call	__RTC_CheckEsp
; Line 953
	mov	eax, DWORD PTR _ID$[ebp]
; Line 954
	pop	edi
	pop	esi
	pop	ebx
	add	esp, 204				; 000000ccH
	cmp	ebp, esp
	call	__RTC_CheckEsp
	mov	esp, ebp
	pop	ebp
	ret	4
?getID@TimeZone@icu_56@@QBEAAVUnicodeString@2@AAV32@@Z ENDP ; icu_56::TimeZone::getID
_TEXT	ENDS
PUBLIC	?setID@TimeZone@icu_56@@QAEXABVUnicodeString@2@@Z ; icu_56::TimeZone::setID
; Function compile flags: /Odtp /RTCsu /ZI
;	COMDAT ?setID@TimeZone@icu_56@@QAEXABVUnicodeString@2@@Z
_TEXT	SEGMENT
_this$ = -8						; size = 4
_ID$ = 8						; size = 4
?setID@TimeZone@icu_56@@QAEXABVUnicodeString@2@@Z PROC	; icu_56::TimeZone::setID, COMDAT
; _this$ = ecx
; Line 960
	push	ebp
	mov	ebp, esp
	sub	esp, 204				; 000000ccH
	push	ebx
	push	esi
	push	edi
	push	ecx
	lea	edi, DWORD PTR [ebp-204]
	mov	ecx, 51					; 00000033H
	mov	eax, -858993460				; ccccccccH
	rep stosd
	pop	ecx
	mov	DWORD PTR _this$[ebp], ecx
; Line 961
	mov	esi, esp
	mov	eax, DWORD PTR _ID$[ebp]
	push	eax
	mov	ecx, DWORD PTR _this$[ebp]
	add	ecx, 4
	call	DWORD PTR __imp_??4UnicodeString@icu_56@@QAEAAV01@ABV01@@Z
	cmp	esi, esp
	call	__RTC_CheckEsp
; Line 962
	pop	edi
	pop	esi
	pop	ebx
	add	esp, 204				; 000000ccH
	cmp	ebp, esp
	call	__RTC_CheckEsp
	mov	esp, ebp
	pop	ebp
	ret	4
?setID@TimeZone@icu_56@@QAEXABVUnicodeString@2@@Z ENDP	; icu_56::TimeZone::setID
_TEXT	ENDS
PUBLIC	?getTime@Calendar@icu_56@@QBENAAW4UErrorCode@@@Z ; icu_56::Calendar::getTime
EXTRN	?getTimeInMillis@Calendar@icu_56@@IBENAAW4UErrorCode@@@Z:PROC ; icu_56::Calendar::getTimeInMillis
; Function compile flags: /Odtp /RTCsu /ZI
;	COMDAT ?getTime@Calendar@icu_56@@QBENAAW4UErrorCode@@@Z
_TEXT	SEGMENT
_this$ = -8						; size = 4
_status$ = 8						; size = 4
?getTime@Calendar@icu_56@@QBENAAW4UErrorCode@@@Z PROC	; icu_56::Calendar::getTime, COMDAT
; _this$ = ecx
; File d:\mozilla\intl\icu\source\i18n\unicode\calendar.h
; Line 441
	push	ebp
	mov	ebp, esp
	sub	esp, 204				; 000000ccH
	push	ebx
	push	esi
	push	edi
	push	ecx
	lea	edi, DWORD PTR [ebp-204]
	mov	ecx, 51					; 00000033H
	mov	eax, -858993460				; ccccccccH
	rep stosd
	pop	ecx
	mov	DWORD PTR _this$[ebp], ecx
	mov	eax, DWORD PTR _status$[ebp]
	push	eax
	mov	ecx, DWORD PTR _this$[ebp]
	call	?getTimeInMillis@Calendar@icu_56@@IBENAAW4UErrorCode@@@Z ; icu_56::Calendar::getTimeInMillis
	pop	edi
	pop	esi
	pop	ebx
	add	esp, 204				; 000000ccH
	cmp	ebp, esp
	call	__RTC_CheckEsp
	mov	esp, ebp
	pop	ebp
	ret	4
?getTime@Calendar@icu_56@@QBENAAW4UErrorCode@@@Z ENDP	; icu_56::Calendar::getTime
_TEXT	ENDS
PUBLIC	?setTime@Calendar@icu_56@@QAEXNAAW4UErrorCode@@@Z ; icu_56::Calendar::setTime
EXTRN	?setTimeInMillis@Calendar@icu_56@@IAEXNAAW4UErrorCode@@@Z:PROC ; icu_56::Calendar::setTimeInMillis
; Function compile flags: /Odtp /RTCsu /ZI
;	COMDAT ?setTime@Calendar@icu_56@@QAEXNAAW4UErrorCode@@@Z
_TEXT	SEGMENT
_this$ = -8						; size = 4
_date$ = 8						; size = 8
_status$ = 16						; size = 4
?setTime@Calendar@icu_56@@QAEXNAAW4UErrorCode@@@Z PROC	; icu_56::Calendar::setTime, COMDAT
; _this$ = ecx
; Line 453
	push	ebp
	mov	ebp, esp
	sub	esp, 204				; 000000ccH
	push	ebx
	push	esi
	push	edi
	push	ecx
	lea	edi, DWORD PTR [ebp-204]
	mov	ecx, 51					; 00000033H
	mov	eax, -858993460				; ccccccccH
	rep stosd
	pop	ecx
	mov	DWORD PTR _this$[ebp], ecx
	mov	eax, DWORD PTR _status$[ebp]
	push	eax
	sub	esp, 8
	fld	QWORD PTR _date$[ebp]
	fstp	QWORD PTR [esp]
	mov	ecx, DWORD PTR _this$[ebp]
	call	?setTimeInMillis@Calendar@icu_56@@IAEXNAAW4UErrorCode@@@Z ; icu_56::Calendar::setTimeInMillis
	pop	edi
	pop	esi
	pop	ebx
	add	esp, 204				; 000000ccH
	cmp	ebp, esp
	call	__RTC_CheckEsp
	mov	esp, ebp
	pop	ebp
	ret	12					; 0000000cH
?setTime@Calendar@icu_56@@QAEXNAAW4UErrorCode@@@Z ENDP	; icu_56::Calendar::setTime
_TEXT	ENDS
PUBLIC	??9Calendar@icu_56@@QBECABV01@@Z		; icu_56::Calendar::operator!=
; Function compile flags: /Odtp /RTCsu /ZI
;	COMDAT ??9Calendar@icu_56@@QBECABV01@@Z
_TEXT	SEGMENT
_this$ = -8						; size = 4
_that$ = 8						; size = 4
??9Calendar@icu_56@@QBECABV01@@Z PROC			; icu_56::Calendar::operator!=, COMDAT
; _this$ = ecx
; Line 476
	push	ebp
	mov	ebp, esp
	sub	esp, 204				; 000000ccH
	push	ebx
	push	esi
	push	edi
	push	ecx
	lea	edi, DWORD PTR [ebp-204]
	mov	ecx, 51					; 00000033H
	mov	eax, -858993460				; ccccccccH
	rep stosd
	pop	ecx
	mov	DWORD PTR _this$[ebp], ecx
	mov	esi, esp
	mov	eax, DWORD PTR _that$[ebp]
	push	eax
	mov	ecx, DWORD PTR _this$[ebp]
	mov	edx, DWORD PTR [ecx]
	mov	ecx, DWORD PTR _this$[ebp]
	mov	eax, DWORD PTR [edx+12]
	call	eax
	cmp	esi, esp
	call	__RTC_CheckEsp
	movsx	ecx, al
	test	ecx, ecx
	sete	al
	pop	edi
	pop	esi
	pop	ebx
	add	esp, 204				; 000000ccH
	cmp	ebp, esp
	call	__RTC_CheckEsp
	mov	esp, ebp
	pop	ebp
	ret	4
??9Calendar@icu_56@@QBECABV01@@Z ENDP			; icu_56::Calendar::operator!=
_TEXT	ENDS
PUBLIC	?internalGet@Calendar@icu_56@@IBEHW4EDateFields@12@@Z ; icu_56::Calendar::internalGet
; Function compile flags: /Odtp /RTCsu /ZI
;	COMDAT ?internalGet@Calendar@icu_56@@IBEHW4EDateFields@12@@Z
_TEXT	SEGMENT
_this$ = -8						; size = 4
_field$ = 8						; size = 4
?internalGet@Calendar@icu_56@@IBEHW4EDateFields@12@@Z PROC ; icu_56::Calendar::internalGet, COMDAT
; _this$ = ecx
; Line 1545
	push	ebp
	mov	ebp, esp
	sub	esp, 204				; 000000ccH
	push	ebx
	push	esi
	push	edi
	push	ecx
	lea	edi, DWORD PTR [ebp-204]
	mov	ecx, 51					; 00000033H
	mov	eax, -858993460				; ccccccccH
	rep stosd
	pop	ecx
	mov	DWORD PTR _this$[ebp], ecx
	mov	eax, DWORD PTR _field$[ebp]
	mov	ecx, DWORD PTR _this$[ebp]
	mov	eax, DWORD PTR [ecx+eax*4+8]
	pop	edi
	pop	esi
	pop	ebx
	mov	esp, ebp
	pop	ebp
	ret	4
?internalGet@Calendar@icu_56@@IBEHW4EDateFields@12@@Z ENDP ; icu_56::Calendar::internalGet
_TEXT	ENDS
PUBLIC	?internalGet@Calendar@icu_56@@IBEHW4UCalendarDateFields@@H@Z ; icu_56::Calendar::internalGet
; Function compile flags: /Odtp /RTCsu /ZI
;	COMDAT ?internalGet@Calendar@icu_56@@IBEHW4UCalendarDateFields@@H@Z
_TEXT	SEGMENT
tv71 = -208						; size = 4
_this$ = -8						; size = 4
_field$ = 8						; size = 4
_defaultValue$ = 12					; size = 4
?internalGet@Calendar@icu_56@@IBEHW4UCalendarDateFields@@H@Z PROC ; icu_56::Calendar::internalGet, COMDAT
; _this$ = ecx
; Line 1559
	push	ebp
	mov	ebp, esp
	sub	esp, 208				; 000000d0H
	push	ebx
	push	esi
	push	edi
	push	ecx
	lea	edi, DWORD PTR [ebp-208]
	mov	ecx, 52					; 00000034H
	mov	eax, -858993460				; ccccccccH
	rep stosd
	pop	ecx
	mov	DWORD PTR _this$[ebp], ecx
	mov	eax, DWORD PTR _field$[ebp]
	mov	ecx, DWORD PTR _this$[ebp]
	cmp	DWORD PTR [ecx+eax*4+124], 0
	jle	SHORT $LN3@internalGe
	mov	edx, DWORD PTR _field$[ebp]
	mov	eax, DWORD PTR _this$[ebp]
	mov	ecx, DWORD PTR [eax+edx*4+8]
	mov	DWORD PTR tv71[ebp], ecx
	jmp	SHORT $LN4@internalGe
$LN3@internalGe:
	mov	edx, DWORD PTR _defaultValue$[ebp]
	mov	DWORD PTR tv71[ebp], edx
$LN4@internalGe:
	mov	eax, DWORD PTR tv71[ebp]
	pop	edi
	pop	esi
	pop	ebx
	mov	esp, ebp
	pop	ebp
	ret	8
?internalGet@Calendar@icu_56@@IBEHW4UCalendarDateFields@@H@Z ENDP ; icu_56::Calendar::internalGet
_TEXT	ENDS
PUBLIC	?internalGet@Calendar@icu_56@@IBEHW4UCalendarDateFields@@@Z ; icu_56::Calendar::internalGet
; Function compile flags: /Odtp /RTCsu /ZI
;	COMDAT ?internalGet@Calendar@icu_56@@IBEHW4UCalendarDateFields@@@Z
_TEXT	SEGMENT
_this$ = -8						; size = 4
_field$ = 8						; size = 4
?internalGet@Calendar@icu_56@@IBEHW4UCalendarDateFields@@@Z PROC ; icu_56::Calendar::internalGet, COMDAT
; _this$ = ecx
; Line 1569
	push	ebp
	mov	ebp, esp
	sub	esp, 204				; 000000ccH
	push	ebx
	push	esi
	push	edi
	push	ecx
	lea	edi, DWORD PTR [ebp-204]
	mov	ecx, 51					; 00000033H
	mov	eax, -858993460				; ccccccccH
	rep stosd
	pop	ecx
	mov	DWORD PTR _this$[ebp], ecx
	mov	eax, DWORD PTR _field$[ebp]
	mov	ecx, DWORD PTR _this$[ebp]
	mov	eax, DWORD PTR [ecx+eax*4+8]
	pop	edi
	pop	esi
	pop	ebx
	mov	esp, ebp
	pop	ebp
	ret	4
?internalGet@Calendar@icu_56@@IBEHW4UCalendarDateFields@@@Z ENDP ; icu_56::Calendar::internalGet
_TEXT	ENDS
PUBLIC	?internalGetTime@Calendar@icu_56@@IBENXZ	; icu_56::Calendar::internalGetTime
; Function compile flags: /Odtp /RTCsu /ZI
;	COMDAT ?internalGetTime@Calendar@icu_56@@IBENXZ
_TEXT	SEGMENT
_this$ = -8						; size = 4
?internalGetTime@Calendar@icu_56@@IBENXZ PROC		; icu_56::Calendar::internalGetTime, COMDAT
; _this$ = ecx
; Line 1898
	push	ebp
	mov	ebp, esp
	sub	esp, 204				; 000000ccH
	push	ebx
	push	esi
	push	edi
	push	ecx
	lea	edi, DWORD PTR [ebp-204]
	mov	ecx, 51					; 00000033H
	mov	eax, -858993460				; ccccccccH
	rep stosd
	pop	ecx
	mov	DWORD PTR _this$[ebp], ecx
	mov	eax, DWORD PTR _this$[ebp]
	fld	QWORD PTR [eax+224]
	pop	edi
	pop	esi
	pop	ebx
	mov	esp, ebp
	pop	ebp
	ret	0
?internalGetTime@Calendar@icu_56@@IBENXZ ENDP		; icu_56::Calendar::internalGetTime
_TEXT	ENDS
PUBLIC	?internalSetTime@Calendar@icu_56@@IAEXN@Z	; icu_56::Calendar::internalSetTime
; Function compile flags: /Odtp /RTCsu /ZI
;	COMDAT ?internalSetTime@Calendar@icu_56@@IAEXN@Z
_TEXT	SEGMENT
_this$ = -8						; size = 4
_time$ = 8						; size = 8
?internalSetTime@Calendar@icu_56@@IAEXN@Z PROC		; icu_56::Calendar::internalSetTime, COMDAT
; _this$ = ecx
; Line 1907
	push	ebp
	mov	ebp, esp
	sub	esp, 204				; 000000ccH
	push	ebx
	push	esi
	push	edi
	push	ecx
	lea	edi, DWORD PTR [ebp-204]
	mov	ecx, 51					; 00000033H
	mov	eax, -858993460				; ccccccccH
	rep stosd
	pop	ecx
	mov	DWORD PTR _this$[ebp], ecx
	mov	eax, DWORD PTR _this$[ebp]
	fld	QWORD PTR _time$[ebp]
	fstp	QWORD PTR [eax+224]
	pop	edi
	pop	esi
	pop	ebx
	mov	esp, ebp
	pop	ebp
	ret	8
?internalSetTime@Calendar@icu_56@@IAEXN@Z ENDP		; icu_56::Calendar::internalSetTime
_TEXT	ENDS
PUBLIC	?getGregorianYear@Calendar@icu_56@@IBEHXZ	; icu_56::Calendar::getGregorianYear
; Function compile flags: /Odtp /RTCsu /ZI
;	COMDAT ?getGregorianYear@Calendar@icu_56@@IBEHXZ
_TEXT	SEGMENT
_this$ = -8						; size = 4
?getGregorianYear@Calendar@icu_56@@IBEHXZ PROC		; icu_56::Calendar::getGregorianYear, COMDAT
; _this$ = ecx
; Line 1970
	push	ebp
	mov	ebp, esp
	sub	esp, 204				; 000000ccH
	push	ebx
	push	esi
	push	edi
	push	ecx
	lea	edi, DWORD PTR [ebp-204]
	mov	ecx, 51					; 00000033H
	mov	eax, -858993460				; ccccccccH
	rep stosd
	pop	ecx
	mov	DWORD PTR _this$[ebp], ecx
; Line 1971
	mov	eax, DWORD PTR _this$[ebp]
	mov	eax, DWORD PTR [eax+272]
; Line 1972
	pop	edi
	pop	esi
	pop	ebx
	mov	esp, ebp
	pop	ebp
	ret	0
?getGregorianYear@Calendar@icu_56@@IBEHXZ ENDP		; icu_56::Calendar::getGregorianYear
_TEXT	ENDS
PUBLIC	?getGregorianMonth@Calendar@icu_56@@IBEHXZ	; icu_56::Calendar::getGregorianMonth
; Function compile flags: /Odtp /RTCsu /ZI
;	COMDAT ?getGregorianMonth@Calendar@icu_56@@IBEHXZ
_TEXT	SEGMENT
_this$ = -8						; size = 4
?getGregorianMonth@Calendar@icu_56@@IBEHXZ PROC		; icu_56::Calendar::getGregorianMonth, COMDAT
; _this$ = ecx
; Line 1979
	push	ebp
	mov	ebp, esp
	sub	esp, 204				; 000000ccH
	push	ebx
	push	esi
	push	edi
	push	ecx
	lea	edi, DWORD PTR [ebp-204]
	mov	ecx, 51					; 00000033H
	mov	eax, -858993460				; ccccccccH
	rep stosd
	pop	ecx
	mov	DWORD PTR _this$[ebp], ecx
; Line 1980
	mov	eax, DWORD PTR _this$[ebp]
	mov	eax, DWORD PTR [eax+276]
; Line 1981
	pop	edi
	pop	esi
	pop	ebx
	mov	esp, ebp
	pop	ebp
	ret	0
?getGregorianMonth@Calendar@icu_56@@IBEHXZ ENDP		; icu_56::Calendar::getGregorianMonth
_TEXT	ENDS
PUBLIC	?getGregorianDayOfYear@Calendar@icu_56@@IBEHXZ	; icu_56::Calendar::getGregorianDayOfYear
; Function compile flags: /Odtp /RTCsu /ZI
;	COMDAT ?getGregorianDayOfYear@Calendar@icu_56@@IBEHXZ
_TEXT	SEGMENT
_this$ = -8						; size = 4
?getGregorianDayOfYear@Calendar@icu_56@@IBEHXZ PROC	; icu_56::Calendar::getGregorianDayOfYear, COMDAT
; _this$ = ecx
; Line 1988
	push	ebp
	mov	ebp, esp
	sub	esp, 204				; 000000ccH
	push	ebx
	push	esi
	push	edi
	push	ecx
	lea	edi, DWORD PTR [ebp-204]
	mov	ecx, 51					; 00000033H
	mov	eax, -858993460				; ccccccccH
	rep stosd
	pop	ecx
	mov	DWORD PTR _this$[ebp], ecx
; Line 1989
	mov	eax, DWORD PTR _this$[ebp]
	mov	eax, DWORD PTR [eax+280]
; Line 1990
	pop	edi
	pop	esi
	pop	ebx
	mov	esp, ebp
	pop	ebp
	ret	0
?getGregorianDayOfYear@Calendar@icu_56@@IBEHXZ ENDP	; icu_56::Calendar::getGregorianDayOfYear
_TEXT	ENDS
PUBLIC	?getGregorianDayOfMonth@Calendar@icu_56@@IBEHXZ	; icu_56::Calendar::getGregorianDayOfMonth
; Function compile flags: /Odtp /RTCsu /ZI
;	COMDAT ?getGregorianDayOfMonth@Calendar@icu_56@@IBEHXZ
_TEXT	SEGMENT
_this$ = -8						; size = 4
?getGregorianDayOfMonth@Calendar@icu_56@@IBEHXZ PROC	; icu_56::Calendar::getGregorianDayOfMonth, COMDAT
; _this$ = ecx
; Line 1997
	push	ebp
	mov	ebp, esp
	sub	esp, 204				; 000000ccH
	push	ebx
	push	esi
	push	edi
	push	ecx
	lea	edi, DWORD PTR [ebp-204]
	mov	ecx, 51					; 00000033H
	mov	eax, -858993460				; ccccccccH
	rep stosd
	pop	ecx
	mov	DWORD PTR _this$[ebp], ecx
; Line 1998
	mov	eax, DWORD PTR _this$[ebp]
	mov	eax, DWORD PTR [eax+284]
; Line 1999
	pop	edi
	pop	esi
	pop	ebx
	mov	esp, ebp
	pop	ebp
	ret	0
?getGregorianDayOfMonth@Calendar@icu_56@@IBEHXZ ENDP	; icu_56::Calendar::getGregorianDayOfMonth
_TEXT	ENDS
PUBLIC	?createInstance@Calendar@icu_56@@SAPAV12@PAVTimeZone@2@AAW4UErrorCode@@@Z ; icu_56::Calendar::createInstance
EXTRN	?createInstance@Calendar@icu_56@@SAPAV12@PAVTimeZone@2@ABVLocale@2@AAW4UErrorCode@@@Z:PROC ; icu_56::Calendar::createInstance
EXTRN	__imp_?getDefault@Locale@icu_56@@SAABV12@XZ:PROC
; Function compile flags: /Odtp /RTCsu /ZI
;	COMDAT ?createInstance@Calendar@icu_56@@SAPAV12@PAVTimeZone@2@AAW4UErrorCode@@@Z
_TEXT	SEGMENT
_zone$ = 8						; size = 4
_errorCode$ = 12					; size = 4
?createInstance@Calendar@icu_56@@SAPAV12@PAVTimeZone@2@AAW4UErrorCode@@@Z PROC ; icu_56::Calendar::createInstance, COMDAT
; Line 2500
	push	ebp
	mov	ebp, esp
	sub	esp, 192				; 000000c0H
	push	ebx
	push	esi
	push	edi
	lea	edi, DWORD PTR [ebp-192]
	mov	ecx, 48					; 00000030H
	mov	eax, -858993460				; ccccccccH
	rep stosd
; Line 2502
	mov	eax, DWORD PTR _errorCode$[ebp]
	push	eax
	mov	esi, esp
	call	DWORD PTR __imp_?getDefault@Locale@icu_56@@SAABV12@XZ
	cmp	esi, esp
	call	__RTC_CheckEsp
	push	eax
	mov	ecx, DWORD PTR _zone$[ebp]
	push	ecx
	call	?createInstance@Calendar@icu_56@@SAPAV12@PAVTimeZone@2@ABVLocale@2@AAW4UErrorCode@@@Z ; icu_56::Calendar::createInstance
	add	esp, 12					; 0000000cH
; Line 2503
	pop	edi
	pop	esi
	pop	ebx
	add	esp, 192				; 000000c0H
	cmp	ebp, esp
	call	__RTC_CheckEsp
	mov	esp, ebp
	pop	ebp
	ret	0
?createInstance@Calendar@icu_56@@SAPAV12@PAVTimeZone@2@AAW4UErrorCode@@@Z ENDP ; icu_56::Calendar::createInstance
_TEXT	ENDS
PUBLIC	?roll@Calendar@icu_56@@QAEXW4UCalendarDateFields@@CAAW4UErrorCode@@@Z ; icu_56::Calendar::roll
; Function compile flags: /Odtp /RTCsu /ZI
;	COMDAT ?roll@Calendar@icu_56@@QAEXW4UCalendarDateFields@@CAAW4UErrorCode@@@Z
_TEXT	SEGMENT
_this$ = -8						; size = 4
_field$ = 8						; size = 4
_up$ = 12						; size = 1
_status$ = 16						; size = 4
?roll@Calendar@icu_56@@QAEXW4UCalendarDateFields@@CAAW4UErrorCode@@@Z PROC ; icu_56::Calendar::roll, COMDAT
; _this$ = ecx
; Line 2509
	push	ebp
	mov	ebp, esp
	sub	esp, 204				; 000000ccH
	push	ebx
	push	esi
	push	edi
	push	ecx
	lea	edi, DWORD PTR [ebp-204]
	mov	ecx, 51					; 00000033H
	mov	eax, -858993460				; ccccccccH
	rep stosd
	pop	ecx
	mov	DWORD PTR _this$[ebp], ecx
; Line 2510
	mov	esi, esp
	mov	eax, DWORD PTR _status$[ebp]
	push	eax
	movsx	ecx, BYTE PTR _up$[ebp]
	neg	ecx
	sbb	ecx, ecx
	and	ecx, 2
	add	ecx, -1
	push	ecx
	mov	edx, DWORD PTR _field$[ebp]
	push	edx
	mov	eax, DWORD PTR _this$[ebp]
	mov	edx, DWORD PTR [eax]
	mov	ecx, DWORD PTR _this$[ebp]
	mov	eax, DWORD PTR [edx+28]
	call	eax
	cmp	esi, esp
	call	__RTC_CheckEsp
; Line 2511
	pop	edi
	pop	esi
	pop	ebx
	add	esp, 204				; 000000ccH
	cmp	ebp, esp
	call	__RTC_CheckEsp
	mov	esp, ebp
	pop	ebp
	ret	12					; 0000000cH
?roll@Calendar@icu_56@@QAEXW4UCalendarDateFields@@CAAW4UErrorCode@@@Z ENDP ; icu_56::Calendar::roll
_TEXT	ENDS
PUBLIC	?roll@Calendar@icu_56@@QAEXW4EDateFields@12@CAAW4UErrorCode@@@Z ; icu_56::Calendar::roll
; Function compile flags: /Odtp /RTCsu /ZI
;	COMDAT ?roll@Calendar@icu_56@@QAEXW4EDateFields@12@CAAW4UErrorCode@@@Z
_TEXT	SEGMENT
_this$ = -8						; size = 4
_field$ = 8						; size = 4
_up$ = 12						; size = 1
_status$ = 16						; size = 4
?roll@Calendar@icu_56@@QAEXW4EDateFields@12@CAAW4UErrorCode@@@Z PROC ; icu_56::Calendar::roll, COMDAT
; _this$ = ecx
; Line 2516
	push	ebp
	mov	ebp, esp
	sub	esp, 204				; 000000ccH
	push	ebx
	push	esi
	push	edi
	push	ecx
	lea	edi, DWORD PTR [ebp-204]
	mov	ecx, 51					; 00000033H
	mov	eax, -858993460				; ccccccccH
	rep stosd
	pop	ecx
	mov	DWORD PTR _this$[ebp], ecx
; Line 2517
	mov	eax, DWORD PTR _status$[ebp]
	push	eax
	movzx	ecx, BYTE PTR _up$[ebp]
	push	ecx
	mov	edx, DWORD PTR _field$[ebp]
	push	edx
	mov	ecx, DWORD PTR _this$[ebp]
	call	?roll@Calendar@icu_56@@QAEXW4UCalendarDateFields@@CAAW4UErrorCode@@@Z ; icu_56::Calendar::roll
; Line 2518
	pop	edi
	pop	esi
	pop	ebx
	add	esp, 204				; 000000ccH
	cmp	ebp, esp
	call	__RTC_CheckEsp
	mov	esp, ebp
	pop	ebp
	ret	12					; 0000000cH
?roll@Calendar@icu_56@@QAEXW4EDateFields@12@CAAW4UErrorCode@@@Z ENDP ; icu_56::Calendar::roll
_TEXT	ENDS
PUBLIC	?internalSet@Calendar@icu_56@@IAEXW4UCalendarDateFields@@H@Z ; icu_56::Calendar::internalSet
; Function compile flags: /Odtp /RTCsu /ZI
;	COMDAT ?internalSet@Calendar@icu_56@@IAEXW4UCalendarDateFields@@H@Z
_TEXT	SEGMENT
_this$ = -8						; size = 4
_field$ = 8						; size = 4
_value$ = 12						; size = 4
?internalSet@Calendar@icu_56@@IAEXW4UCalendarDateFields@@H@Z PROC ; icu_56::Calendar::internalSet, COMDAT
; _this$ = ecx
; Line 2531
	push	ebp
	mov	ebp, esp
	sub	esp, 204				; 000000ccH
	push	ebx
	push	esi
	push	edi
	push	ecx
	lea	edi, DWORD PTR [ebp-204]
	mov	ecx, 51					; 00000033H
	mov	eax, -858993460				; ccccccccH
	rep stosd
	pop	ecx
	mov	DWORD PTR _this$[ebp], ecx
; Line 2532
	mov	eax, DWORD PTR _field$[ebp]
	mov	ecx, DWORD PTR _this$[ebp]
	mov	edx, DWORD PTR _value$[ebp]
	mov	DWORD PTR [ecx+eax*4+8], edx
; Line 2533
	mov	eax, DWORD PTR _field$[ebp]
	mov	ecx, DWORD PTR _this$[ebp]
	mov	DWORD PTR [ecx+eax*4+124], 1
; Line 2534
	mov	eax, DWORD PTR _this$[ebp]
	add	eax, DWORD PTR _field$[ebp]
	mov	BYTE PTR [eax+100], 1
; Line 2535
	pop	edi
	pop	esi
	pop	ebx
	mov	esp, ebp
	pop	ebp
	ret	8
?internalSet@Calendar@icu_56@@IAEXW4UCalendarDateFields@@H@Z ENDP ; icu_56::Calendar::internalSet
_TEXT	ENDS
PUBLIC	?weekNumber@Calendar@icu_56@@IAEHHH@Z		; icu_56::Calendar::weekNumber
EXTRN	?weekNumber@Calendar@icu_56@@IAEHHHH@Z:PROC	; icu_56::Calendar::weekNumber
; Function compile flags: /Odtp /RTCsu /ZI
;	COMDAT ?weekNumber@Calendar@icu_56@@IAEHHH@Z
_TEXT	SEGMENT
_this$ = -8						; size = 4
_dayOfPeriod$ = 8					; size = 4
_dayOfWeek$ = 12					; size = 4
?weekNumber@Calendar@icu_56@@IAEHHH@Z PROC		; icu_56::Calendar::weekNumber, COMDAT
; _this$ = ecx
; Line 2540
	push	ebp
	mov	ebp, esp
	sub	esp, 204				; 000000ccH
	push	ebx
	push	esi
	push	edi
	push	ecx
	lea	edi, DWORD PTR [ebp-204]
	mov	ecx, 51					; 00000033H
	mov	eax, -858993460				; ccccccccH
	rep stosd
	pop	ecx
	mov	DWORD PTR _this$[ebp], ecx
; Line 2541
	mov	eax, DWORD PTR _dayOfWeek$[ebp]
	push	eax
	mov	ecx, DWORD PTR _dayOfPeriod$[ebp]
	push	ecx
	mov	edx, DWORD PTR _dayOfPeriod$[ebp]
	push	edx
	mov	ecx, DWORD PTR _this$[ebp]
	call	?weekNumber@Calendar@icu_56@@IAEHHHH@Z	; icu_56::Calendar::weekNumber
; Line 2542
	pop	edi
	pop	esi
	pop	ebx
	add	esp, 204				; 000000ccH
	cmp	ebp, esp
	call	__RTC_CheckEsp
	mov	esp, ebp
	pop	ebp
	ret	8
?weekNumber@Calendar@icu_56@@IAEHHH@Z ENDP		; icu_56::Calendar::weekNumber
_TEXT	ENDS
PUBLIC	?getNumber@Measure@icu_56@@QBEABVFormattable@2@XZ ; icu_56::Measure::getNumber
; Function compile flags: /Odtp /RTCsu /ZI
;	COMDAT ?getNumber@Measure@icu_56@@QBEABVFormattable@2@XZ
_TEXT	SEGMENT
_this$ = -8						; size = 4
?getNumber@Measure@icu_56@@QBEABVFormattable@2@XZ PROC	; icu_56::Measure::getNumber, COMDAT
; _this$ = ecx
; File d:\mozilla\intl\icu\source\i18n\unicode\measure.h
; Line 148
	push	ebp
	mov	ebp, esp
	sub	esp, 204				; 000000ccH
	push	ebx
	push	esi
	push	edi
	push	ecx
	lea	edi, DWORD PTR [ebp-204]
	mov	ecx, 51					; 00000033H
	mov	eax, -858993460				; ccccccccH
	rep stosd
	pop	ecx
	mov	DWORD PTR _this$[ebp], ecx
; Line 149
	mov	eax, DWORD PTR _this$[ebp]
	add	eax, 8
; Line 150
	pop	edi
	pop	esi
	pop	ebx
	mov	esp, ebp
	pop	ebp
	ret	0
?getNumber@Measure@icu_56@@QBEABVFormattable@2@XZ ENDP	; icu_56::Measure::getNumber
_TEXT	ENDS
PUBLIC	?getUnit@Measure@icu_56@@QBEABVMeasureUnit@2@XZ	; icu_56::Measure::getUnit
; Function compile flags: /Odtp /RTCsu /ZI
;	COMDAT ?getUnit@Measure@icu_56@@QBEABVMeasureUnit@2@XZ
_TEXT	SEGMENT
_this$ = -8						; size = 4
?getUnit@Measure@icu_56@@QBEABVMeasureUnit@2@XZ PROC	; icu_56::Measure::getUnit, COMDAT
; _this$ = ecx
; Line 152
	push	ebp
	mov	ebp, esp
	sub	esp, 204				; 000000ccH
	push	ebx
	push	esi
	push	edi
	push	ecx
	lea	edi, DWORD PTR [ebp-204]
	mov	ecx, 51					; 00000033H
	mov	eax, -858993460				; ccccccccH
	rep stosd
	pop	ecx
	mov	DWORD PTR _this$[ebp], ecx
; Line 153
	mov	eax, DWORD PTR _this$[ebp]
	mov	eax, DWORD PTR [eax+232]
; Line 154
	pop	edi
	pop	esi
	pop	ebx
	mov	esp, ebp
	pop	ebp
	ret	0
?getUnit@Measure@icu_56@@QBEABVMeasureUnit@2@XZ ENDP	; icu_56::Measure::getUnit
_TEXT	ENDS
PUBLIC	??_7MeasureUnit@icu_56@@6B@			; icu_56::MeasureUnit::`vftable'
PUBLIC	??0MeasureUnit@icu_56@@QAE@XZ			; icu_56::MeasureUnit::MeasureUnit
PUBLIC	??_R4MeasureUnit@icu_56@@6B@			; icu_56::MeasureUnit::`RTTI Complete Object Locator'
PUBLIC	??_R0?AVMeasureUnit@icu_56@@@8			; icu_56::MeasureUnit `RTTI Type Descriptor'
PUBLIC	??_R3MeasureUnit@icu_56@@8			; icu_56::MeasureUnit::`RTTI Class Hierarchy Descriptor'
PUBLIC	??_R2MeasureUnit@icu_56@@8			; icu_56::MeasureUnit::`RTTI Base Class Array'
PUBLIC	??_R1A@?0A@EA@MeasureUnit@icu_56@@8		; icu_56::MeasureUnit::`RTTI Base Class Descriptor at (0,-1,0,64)'
PUBLIC	??_EMeasureUnit@icu_56@@UAEPAXI@Z		; icu_56::MeasureUnit::`vector deleting destructor'
EXTRN	?getDynamicClassID@MeasureUnit@icu_56@@UBEPAXXZ:PROC ; icu_56::MeasureUnit::getDynamicClassID
EXTRN	?clone@MeasureUnit@icu_56@@UBEPAVUObject@2@XZ:PROC ; icu_56::MeasureUnit::clone
EXTRN	??8MeasureUnit@icu_56@@UBECABVUObject@1@@Z:PROC	; icu_56::MeasureUnit::operator==
;	COMDAT ??_R1A@?0A@EA@MeasureUnit@icu_56@@8
; File d:\mozilla\intl\icu\source\i18n\unicode\measunit.h
rdata$r	SEGMENT
??_R1A@?0A@EA@MeasureUnit@icu_56@@8 DD FLAT:??_R0?AVMeasureUnit@icu_56@@@8 ; icu_56::MeasureUnit::`RTTI Base Class Descriptor at (0,-1,0,64)'
	DD	02H
	DD	00H
	DD	0ffffffffH
	DD	00H
	DD	040H
	DD	FLAT:??_R3MeasureUnit@icu_56@@8
rdata$r	ENDS
;	COMDAT ??_R2MeasureUnit@icu_56@@8
rdata$r	SEGMENT
??_R2MeasureUnit@icu_56@@8 DD FLAT:??_R1A@?0A@EA@MeasureUnit@icu_56@@8 ; icu_56::MeasureUnit::`RTTI Base Class Array'
	DD	FLAT:??_R1A@?0A@EA@UObject@icu_56@@8
	DD	FLAT:??_R13?0A@EA@UMemory@icu_56@@8
rdata$r	ENDS
;	COMDAT ??_R3MeasureUnit@icu_56@@8
rdata$r	SEGMENT
??_R3MeasureUnit@icu_56@@8 DD 00H			; icu_56::MeasureUnit::`RTTI Class Hierarchy Descriptor'
	DD	00H
	DD	03H
	DD	FLAT:??_R2MeasureUnit@icu_56@@8
rdata$r	ENDS
;	COMDAT ??_R0?AVMeasureUnit@icu_56@@@8
_DATA	SEGMENT
??_R0?AVMeasureUnit@icu_56@@@8 DD FLAT:??_7type_info@@6B@ ; icu_56::MeasureUnit `RTTI Type Descriptor'
	DD	00H
	DB	'.?AVMeasureUnit@icu_56@@', 00H
_DATA	ENDS
;	COMDAT ??_R4MeasureUnit@icu_56@@6B@
rdata$r	SEGMENT
??_R4MeasureUnit@icu_56@@6B@ DD 00H			; icu_56::MeasureUnit::`RTTI Complete Object Locator'
	DD	00H
	DD	00H
	DD	FLAT:??_R0?AVMeasureUnit@icu_56@@@8
	DD	FLAT:??_R3MeasureUnit@icu_56@@8
rdata$r	ENDS
;	COMDAT ??_7MeasureUnit@icu_56@@6B@
CONST	SEGMENT
??_7MeasureUnit@icu_56@@6B@ DD FLAT:??_R4MeasureUnit@icu_56@@6B@ ; icu_56::MeasureUnit::`vftable'
	DD	FLAT:??_EMeasureUnit@icu_56@@UAEPAXI@Z
	DD	FLAT:?getDynamicClassID@MeasureUnit@icu_56@@UBEPAXXZ
	DD	FLAT:?clone@MeasureUnit@icu_56@@UBEPAVUObject@2@XZ
	DD	FLAT:??8MeasureUnit@icu_56@@UBECABVUObject@1@@Z
; Function compile flags: /Odtp /RTCsu /ZI
CONST	ENDS
;	COMDAT ??0MeasureUnit@icu_56@@QAE@XZ
_TEXT	SEGMENT
_this$ = -8						; size = 4
??0MeasureUnit@icu_56@@QAE@XZ PROC			; icu_56::MeasureUnit::MeasureUnit, COMDAT
; _this$ = ecx
; Line 43
	push	ebp
	mov	ebp, esp
	sub	esp, 204				; 000000ccH
	push	ebx
	push	esi
	push	edi
	push	ecx
	lea	edi, DWORD PTR [ebp-204]
	mov	ecx, 51					; 00000033H
	mov	eax, -858993460				; ccccccccH
	rep stosd
	pop	ecx
	mov	DWORD PTR _this$[ebp], ecx
	mov	esi, esp
	mov	ecx, DWORD PTR _this$[ebp]
	call	DWORD PTR __imp_??0UObject@icu_56@@QAE@XZ
	cmp	esi, esp
	call	__RTC_CheckEsp
	mov	eax, DWORD PTR _this$[ebp]
	mov	DWORD PTR [eax], OFFSET ??_7MeasureUnit@icu_56@@6B@
	mov	eax, DWORD PTR _this$[ebp]
	mov	DWORD PTR [eax+4], 0
	mov	eax, DWORD PTR _this$[ebp]
	mov	DWORD PTR [eax+8], 0
; Line 44
	mov	eax, DWORD PTR _this$[ebp]
	mov	BYTE PTR [eax+12], 0
; Line 45
	mov	eax, DWORD PTR _this$[ebp]
	pop	edi
	pop	esi
	pop	ebx
	add	esp, 204				; 000000ccH
	cmp	ebp, esp
	call	__RTC_CheckEsp
	mov	esp, ebp
	pop	ebp
	ret	0
??0MeasureUnit@icu_56@@QAE@XZ ENDP			; icu_56::MeasureUnit::MeasureUnit
_TEXT	ENDS
PUBLIC	??9MeasureUnit@icu_56@@QBECABVUObject@1@@Z	; icu_56::MeasureUnit::operator!=
; Function compile flags: /Odtp /RTCsu /ZI
;	COMDAT ??9MeasureUnit@icu_56@@QBECABVUObject@1@@Z
_TEXT	SEGMENT
_this$ = -8						; size = 4
_other$ = 8						; size = 4
??9MeasureUnit@icu_56@@QBECABVUObject@1@@Z PROC		; icu_56::MeasureUnit::operator!=, COMDAT
; _this$ = ecx
; Line 84
	push	ebp
	mov	ebp, esp
	sub	esp, 204				; 000000ccH
	push	ebx
	push	esi
	push	edi
	push	ecx
	lea	edi, DWORD PTR [ebp-204]
	mov	ecx, 51					; 00000033H
	mov	eax, -858993460				; ccccccccH
	rep stosd
	pop	ecx
	mov	DWORD PTR _this$[ebp], ecx
; Line 85
	mov	esi, esp
	mov	eax, DWORD PTR _other$[ebp]
	push	eax
	mov	ecx, DWORD PTR _this$[ebp]
	mov	edx, DWORD PTR [ecx]
	mov	ecx, DWORD PTR _this$[ebp]
	mov	eax, DWORD PTR [edx+12]
	call	eax
	cmp	esi, esp
	call	__RTC_CheckEsp
	movsx	ecx, al
	test	ecx, ecx
	sete	al
; Line 86
	pop	edi
	pop	esi
	pop	ebx
	add	esp, 204				; 000000ccH
	cmp	ebp, esp
	call	__RTC_CheckEsp
	mov	esp, ebp
	pop	ebp
	ret	4
??9MeasureUnit@icu_56@@QBECABVUObject@1@@Z ENDP		; icu_56::MeasureUnit::operator!=
_TEXT	ENDS
PUBLIC	??0MeasureUnit@icu_56@@AAE@HH@Z			; icu_56::MeasureUnit::MeasureUnit
; Function compile flags: /Odtp /RTCsu /ZI
;	COMDAT ??0MeasureUnit@icu_56@@AAE@HH@Z
_TEXT	SEGMENT
_this$ = -8						; size = 4
_typeId$ = 8						; size = 4
_subTypeId$ = 12					; size = 4
??0MeasureUnit@icu_56@@AAE@HH@Z PROC			; icu_56::MeasureUnit::MeasureUnit, COMDAT
; _this$ = ecx
; Line 1275
	push	ebp
	mov	ebp, esp
	sub	esp, 204				; 000000ccH
	push	ebx
	push	esi
	push	edi
	push	ecx
	lea	edi, DWORD PTR [ebp-204]
	mov	ecx, 51					; 00000033H
	mov	eax, -858993460				; ccccccccH
	rep stosd
	pop	ecx
	mov	DWORD PTR _this$[ebp], ecx
	mov	esi, esp
	mov	ecx, DWORD PTR _this$[ebp]
	call	DWORD PTR __imp_??0UObject@icu_56@@QAE@XZ
	cmp	esi, esp
	call	__RTC_CheckEsp
	mov	eax, DWORD PTR _this$[ebp]
	mov	DWORD PTR [eax], OFFSET ??_7MeasureUnit@icu_56@@6B@
	mov	eax, DWORD PTR _this$[ebp]
	mov	ecx, DWORD PTR _typeId$[ebp]
	mov	DWORD PTR [eax+4], ecx
	mov	eax, DWORD PTR _this$[ebp]
	mov	ecx, DWORD PTR _subTypeId$[ebp]
	mov	DWORD PTR [eax+8], ecx
; Line 1276
	mov	eax, DWORD PTR _this$[ebp]
	mov	BYTE PTR [eax+12], 0
; Line 1277
	mov	eax, DWORD PTR _this$[ebp]
	pop	edi
	pop	esi
	pop	ebx
	add	esp, 204				; 000000ccH
	cmp	ebp, esp
	call	__RTC_CheckEsp
	mov	esp, ebp
	pop	ebp
	ret	8
??0MeasureUnit@icu_56@@AAE@HH@Z ENDP			; icu_56::MeasureUnit::MeasureUnit
_TEXT	ENDS
PUBLIC	??_GMeasureUnit@icu_56@@UAEPAXI@Z		; icu_56::MeasureUnit::`scalar deleting destructor'
EXTRN	??1MeasureUnit@icu_56@@UAE@XZ:PROC		; icu_56::MeasureUnit::~MeasureUnit
; Function compile flags: /Odtp /RTCsu /ZI
;	COMDAT ??_GMeasureUnit@icu_56@@UAEPAXI@Z
_TEXT	SEGMENT
_this$ = -8						; size = 4
___flags$ = 8						; size = 4
??_GMeasureUnit@icu_56@@UAEPAXI@Z PROC			; icu_56::MeasureUnit::`scalar deleting destructor', COMDAT
; _this$ = ecx
	push	ebp
	mov	ebp, esp
	sub	esp, 204				; 000000ccH
	push	ebx
	push	esi
	push	edi
	push	ecx
	lea	edi, DWORD PTR [ebp-204]
	mov	ecx, 51					; 00000033H
	mov	eax, -858993460				; ccccccccH
	rep stosd
	pop	ecx
	mov	DWORD PTR _this$[ebp], ecx
	mov	ecx, DWORD PTR _this$[ebp]
	call	??1MeasureUnit@icu_56@@UAE@XZ		; icu_56::MeasureUnit::~MeasureUnit
	mov	eax, DWORD PTR ___flags$[ebp]
	and	eax, 1
	je	SHORT $LN1@scalar@2
	mov	esi, esp
	mov	eax, DWORD PTR _this$[ebp]
	push	eax
	call	DWORD PTR __imp_??3UMemory@icu_56@@SAXPAX@Z
	add	esp, 4
	cmp	esi, esp
	call	__RTC_CheckEsp
$LN1@scalar@2:
	mov	eax, DWORD PTR _this$[ebp]
	pop	edi
	pop	esi
	pop	ebx
	add	esp, 204				; 000000ccH
	cmp	ebp, esp
	call	__RTC_CheckEsp
	mov	esp, ebp
	pop	ebp
	ret	4
??_GMeasureUnit@icu_56@@UAEPAXI@Z ENDP			; icu_56::MeasureUnit::`scalar deleting destructor'
; Function compile flags: /Odtp /RTCsu /ZI
_TEXT	ENDS
;	COMDAT ??_EMeasureUnit@icu_56@@UAEPAXI@Z
_TEXT	SEGMENT
_this$ = -8						; size = 4
___flags$ = 8						; size = 4
??_EMeasureUnit@icu_56@@UAEPAXI@Z PROC			; icu_56::MeasureUnit::`vector deleting destructor', COMDAT
; _this$ = ecx
	push	ebp
	mov	ebp, esp
	sub	esp, 204				; 000000ccH
	push	ebx
	push	esi
	push	edi
	push	ecx
	lea	edi, DWORD PTR [ebp-204]
	mov	ecx, 51					; 00000033H
	mov	eax, -858993460				; ccccccccH
	rep stosd
	pop	ecx
	mov	DWORD PTR _this$[ebp], ecx
	mov	eax, DWORD PTR ___flags$[ebp]
	and	eax, 2
	je	SHORT $LN3@vector@2
	push	OFFSET ??1MeasureUnit@icu_56@@UAE@XZ	; icu_56::MeasureUnit::~MeasureUnit
	mov	eax, DWORD PTR _this$[ebp]
	mov	ecx, DWORD PTR [eax-4]
	push	ecx
	push	16					; 00000010H
	mov	edx, DWORD PTR _this$[ebp]
	push	edx
	call	??_M@YGXPAXIHP6EX0@Z@Z
	mov	eax, DWORD PTR ___flags$[ebp]
	and	eax, 1
	je	SHORT $LN2@vector@2
	mov	eax, DWORD PTR _this$[ebp]
	sub	eax, 4
	mov	esi, esp
	push	eax
	call	DWORD PTR __imp_??_VUMemory@icu_56@@SAXPAX@Z
	add	esp, 4
	cmp	esi, esp
	call	__RTC_CheckEsp
$LN2@vector@2:
	mov	eax, DWORD PTR _this$[ebp]
	sub	eax, 4
	jmp	SHORT $LN4@vector@2
$LN3@vector@2:
	mov	ecx, DWORD PTR _this$[ebp]
	call	??1MeasureUnit@icu_56@@UAE@XZ		; icu_56::MeasureUnit::~MeasureUnit
	mov	eax, DWORD PTR ___flags$[ebp]
	and	eax, 1
	je	SHORT $LN1@vector@2
	mov	esi, esp
	mov	eax, DWORD PTR _this$[ebp]
	push	eax
	call	DWORD PTR __imp_??3UMemory@icu_56@@SAXPAX@Z
	add	esp, 4
	cmp	esi, esp
	call	__RTC_CheckEsp
$LN1@vector@2:
	mov	eax, DWORD PTR _this$[ebp]
$LN4@vector@2:
	pop	edi
	pop	esi
	pop	ebx
	add	esp, 204				; 000000ccH
	cmp	ebp, esp
	call	__RTC_CheckEsp
	mov	esp, ebp
	pop	ebp
	ret	4
??_EMeasureUnit@icu_56@@UAEPAXI@Z ENDP			; icu_56::MeasureUnit::`vector deleting destructor'
_TEXT	ENDS
PUBLIC	?getISOCurrency@CurrencyUnit@icu_56@@QBEPB_WXZ	; icu_56::CurrencyUnit::getISOCurrency
; Function compile flags: /Odtp /RTCsu /ZI
;	COMDAT ?getISOCurrency@CurrencyUnit@icu_56@@QBEPB_WXZ
_TEXT	SEGMENT
_this$ = -8						; size = 4
?getISOCurrency@CurrencyUnit@icu_56@@QBEPB_WXZ PROC	; icu_56::CurrencyUnit::getISOCurrency, COMDAT
; _this$ = ecx
; File d:\mozilla\intl\icu\source\i18n\unicode\currunit.h
; Line 103
	push	ebp
	mov	ebp, esp
	sub	esp, 204				; 000000ccH
	push	ebx
	push	esi
	push	edi
	push	ecx
	lea	edi, DWORD PTR [ebp-204]
	mov	ecx, 51					; 00000033H
	mov	eax, -858993460				; ccccccccH
	rep stosd
	pop	ecx
	mov	DWORD PTR _this$[ebp], ecx
; Line 104
	mov	eax, DWORD PTR _this$[ebp]
	add	eax, 16					; 00000010H
; Line 105
	pop	edi
	pop	esi
	pop	ebx
	mov	esp, ebp
	pop	ebp
	ret	0
?getISOCurrency@CurrencyUnit@icu_56@@QBEPB_WXZ ENDP	; icu_56::CurrencyUnit::getISOCurrency
_TEXT	ENDS
PUBLIC	?getCurrency@CurrencyAmount@icu_56@@QBEABVCurrencyUnit@2@XZ ; icu_56::CurrencyAmount::getCurrency
; Function compile flags: /Odtp /RTCsu /ZI
;	COMDAT ?getCurrency@CurrencyAmount@icu_56@@QBEABVCurrencyUnit@2@XZ
_TEXT	SEGMENT
_this$ = -8						; size = 4
?getCurrency@CurrencyAmount@icu_56@@QBEABVCurrencyUnit@2@XZ PROC ; icu_56::CurrencyAmount::getCurrency, COMDAT
; _this$ = ecx
; File d:\mozilla\intl\icu\source\i18n\unicode\curramt.h
; Line 119
	push	ebp
	mov	ebp, esp
	sub	esp, 204				; 000000ccH
	push	ebx
	push	esi
	push	edi
	push	ecx
	lea	edi, DWORD PTR [ebp-204]
	mov	ecx, 51					; 00000033H
	mov	eax, -858993460				; ccccccccH
	rep stosd
	pop	ecx
	mov	DWORD PTR _this$[ebp], ecx
; Line 120
	mov	ecx, DWORD PTR _this$[ebp]
	call	?getUnit@Measure@icu_56@@QBEABVMeasureUnit@2@XZ ; icu_56::Measure::getUnit
; Line 121
	pop	edi
	pop	esi
	pop	ebx
	add	esp, 204				; 000000ccH
	cmp	ebp, esp
	call	__RTC_CheckEsp
	mov	esp, ebp
	pop	ebp
	ret	0
?getCurrency@CurrencyAmount@icu_56@@QBEABVCurrencyUnit@2@XZ ENDP ; icu_56::CurrencyAmount::getCurrency
_TEXT	ENDS
PUBLIC	?getISOCurrency@CurrencyAmount@icu_56@@QBEPB_WXZ ; icu_56::CurrencyAmount::getISOCurrency
; Function compile flags: /Odtp /RTCsu /ZI
;	COMDAT ?getISOCurrency@CurrencyAmount@icu_56@@QBEPB_WXZ
_TEXT	SEGMENT
_this$ = -8						; size = 4
?getISOCurrency@CurrencyAmount@icu_56@@QBEPB_WXZ PROC	; icu_56::CurrencyAmount::getISOCurrency, COMDAT
; _this$ = ecx
; Line 123
	push	ebp
	mov	ebp, esp
	sub	esp, 204				; 000000ccH
	push	ebx
	push	esi
	push	edi
	push	ecx
	lea	edi, DWORD PTR [ebp-204]
	mov	ecx, 51					; 00000033H
	mov	eax, -858993460				; ccccccccH
	rep stosd
	pop	ecx
	mov	DWORD PTR _this$[ebp], ecx
; Line 124
	mov	ecx, DWORD PTR _this$[ebp]
	call	?getCurrency@CurrencyAmount@icu_56@@QBEABVCurrencyUnit@2@XZ ; icu_56::CurrencyAmount::getCurrency
	mov	ecx, eax
	call	?getISOCurrency@CurrencyUnit@icu_56@@QBEPB_WXZ ; icu_56::CurrencyUnit::getISOCurrency
; Line 125
	pop	edi
	pop	esi
	pop	ebx
	add	esp, 204				; 000000ccH
	cmp	ebp, esp
	call	__RTC_CheckEsp
	mov	esp, ebp
	pop	ebp
	ret	0
?getISOCurrency@CurrencyAmount@icu_56@@QBEPB_WXZ ENDP	; icu_56::CurrencyAmount::getISOCurrency
_TEXT	ENDS
PUBLIC	??_7NumberFormatFactory@icu_56@@6B@		; icu_56::NumberFormatFactory::`vftable'
PUBLIC	??0NumberFormatFactory@icu_56@@QAE@XZ		; icu_56::NumberFormatFactory::NumberFormatFactory
PUBLIC	??_R4NumberFormatFactory@icu_56@@6B@		; icu_56::NumberFormatFactory::`RTTI Complete Object Locator'
PUBLIC	??_R0?AVNumberFormatFactory@icu_56@@@8		; icu_56::NumberFormatFactory `RTTI Type Descriptor'
PUBLIC	??_R3NumberFormatFactory@icu_56@@8		; icu_56::NumberFormatFactory::`RTTI Class Hierarchy Descriptor'
PUBLIC	??_R2NumberFormatFactory@icu_56@@8		; icu_56::NumberFormatFactory::`RTTI Base Class Array'
PUBLIC	??_R1A@?0A@EA@NumberFormatFactory@icu_56@@8	; icu_56::NumberFormatFactory::`RTTI Base Class Descriptor at (0,-1,0,64)'
PUBLIC	??_ENumberFormatFactory@icu_56@@UAEPAXI@Z	; icu_56::NumberFormatFactory::`vector deleting destructor'
EXTRN	?getDynamicClassID@UObject@icu_56@@UBEPAXXZ:PROC ; icu_56::UObject::getDynamicClassID
EXTRN	__purecall:PROC
;	COMDAT ??_R1A@?0A@EA@NumberFormatFactory@icu_56@@8
rdata$r	SEGMENT
??_R1A@?0A@EA@NumberFormatFactory@icu_56@@8 DD FLAT:??_R0?AVNumberFormatFactory@icu_56@@@8 ; icu_56::NumberFormatFactory::`RTTI Base Class Descriptor at (0,-1,0,64)'
	DD	02H
	DD	00H
	DD	0ffffffffH
	DD	00H
	DD	040H
	DD	FLAT:??_R3NumberFormatFactory@icu_56@@8
rdata$r	ENDS
;	COMDAT ??_R2NumberFormatFactory@icu_56@@8
rdata$r	SEGMENT
??_R2NumberFormatFactory@icu_56@@8 DD FLAT:??_R1A@?0A@EA@NumberFormatFactory@icu_56@@8 ; icu_56::NumberFormatFactory::`RTTI Base Class Array'
	DD	FLAT:??_R1A@?0A@EA@UObject@icu_56@@8
	DD	FLAT:??_R13?0A@EA@UMemory@icu_56@@8
rdata$r	ENDS
;	COMDAT ??_R3NumberFormatFactory@icu_56@@8
rdata$r	SEGMENT
??_R3NumberFormatFactory@icu_56@@8 DD 00H		; icu_56::NumberFormatFactory::`RTTI Class Hierarchy Descriptor'
	DD	00H
	DD	03H
	DD	FLAT:??_R2NumberFormatFactory@icu_56@@8
rdata$r	ENDS
;	COMDAT ??_R0?AVNumberFormatFactory@icu_56@@@8
_DATA	SEGMENT
??_R0?AVNumberFormatFactory@icu_56@@@8 DD FLAT:??_7type_info@@6B@ ; icu_56::NumberFormatFactory `RTTI Type Descriptor'
	DD	00H
	DB	'.?AVNumberFormatFactory@icu_56@@', 00H
_DATA	ENDS
;	COMDAT ??_R4NumberFormatFactory@icu_56@@6B@
rdata$r	SEGMENT
??_R4NumberFormatFactory@icu_56@@6B@ DD 00H		; icu_56::NumberFormatFactory::`RTTI Complete Object Locator'
	DD	00H
	DD	00H
	DD	FLAT:??_R0?AVNumberFormatFactory@icu_56@@@8
	DD	FLAT:??_R3NumberFormatFactory@icu_56@@8
rdata$r	ENDS
;	COMDAT ??_7NumberFormatFactory@icu_56@@6B@
CONST	SEGMENT
??_7NumberFormatFactory@icu_56@@6B@ DD FLAT:??_R4NumberFormatFactory@icu_56@@6B@ ; icu_56::NumberFormatFactory::`vftable'
	DD	FLAT:??_ENumberFormatFactory@icu_56@@UAEPAXI@Z
	DD	FLAT:?getDynamicClassID@UObject@icu_56@@UBEPAXXZ
	DD	FLAT:__purecall
	DD	FLAT:__purecall
	DD	FLAT:__purecall
; Function compile flags: /Odtp /RTCsu /ZI
CONST	ENDS
;	COMDAT ??0NumberFormatFactory@icu_56@@QAE@XZ
_TEXT	SEGMENT
_this$ = -8						; size = 4
??0NumberFormatFactory@icu_56@@QAE@XZ PROC		; icu_56::NumberFormatFactory::NumberFormatFactory, COMDAT
; _this$ = ecx
	push	ebp
	mov	ebp, esp
	sub	esp, 204				; 000000ccH
	push	ebx
	push	esi
	push	edi
	push	ecx
	lea	edi, DWORD PTR [ebp-204]
	mov	ecx, 51					; 00000033H
	mov	eax, -858993460				; ccccccccH
	rep stosd
	pop	ecx
	mov	DWORD PTR _this$[ebp], ecx
	mov	esi, esp
	mov	ecx, DWORD PTR _this$[ebp]
	call	DWORD PTR __imp_??0UObject@icu_56@@QAE@XZ
	cmp	esi, esp
	call	__RTC_CheckEsp
	mov	eax, DWORD PTR _this$[ebp]
	mov	DWORD PTR [eax], OFFSET ??_7NumberFormatFactory@icu_56@@6B@
	mov	eax, DWORD PTR _this$[ebp]
	pop	edi
	pop	esi
	pop	ebx
	add	esp, 204				; 000000ccH
	cmp	ebp, esp
	call	__RTC_CheckEsp
	mov	esp, ebp
	pop	ebp
	ret	0
??0NumberFormatFactory@icu_56@@QAE@XZ ENDP		; icu_56::NumberFormatFactory::NumberFormatFactory
_TEXT	ENDS
PUBLIC	??0NumberFormatFactory@icu_56@@QAE@ABV01@@Z	; icu_56::NumberFormatFactory::NumberFormatFactory
; Function compile flags: /Odtp /RTCsu /ZI
;	COMDAT ??0NumberFormatFactory@icu_56@@QAE@ABV01@@Z
_TEXT	SEGMENT
_this$ = -8						; size = 4
___that$ = 8						; size = 4
??0NumberFormatFactory@icu_56@@QAE@ABV01@@Z PROC	; icu_56::NumberFormatFactory::NumberFormatFactory, COMDAT
; _this$ = ecx
	push	ebp
	mov	ebp, esp
	sub	esp, 204				; 000000ccH
	push	ebx
	push	esi
	push	edi
	push	ecx
	lea	edi, DWORD PTR [ebp-204]
	mov	ecx, 51					; 00000033H
	mov	eax, -858993460				; ccccccccH
	rep stosd
	pop	ecx
	mov	DWORD PTR _this$[ebp], ecx
	mov	esi, esp
	mov	eax, DWORD PTR ___that$[ebp]
	push	eax
	mov	ecx, DWORD PTR _this$[ebp]
	call	DWORD PTR __imp_??0UObject@icu_56@@QAE@ABV01@@Z
	cmp	esi, esp
	call	__RTC_CheckEsp
	mov	eax, DWORD PTR _this$[ebp]
	mov	DWORD PTR [eax], OFFSET ??_7NumberFormatFactory@icu_56@@6B@
	mov	eax, DWORD PTR _this$[ebp]
	pop	edi
	pop	esi
	pop	ebx
	add	esp, 204				; 000000ccH
	cmp	ebp, esp
	call	__RTC_CheckEsp
	mov	esp, ebp
	pop	ebp
	ret	4
??0NumberFormatFactory@icu_56@@QAE@ABV01@@Z ENDP	; icu_56::NumberFormatFactory::NumberFormatFactory
_TEXT	ENDS
PUBLIC	??4NumberFormatFactory@icu_56@@QAEAAV01@ABV01@@Z ; icu_56::NumberFormatFactory::operator=
; Function compile flags: /Odtp /RTCsu /ZI
;	COMDAT ??4NumberFormatFactory@icu_56@@QAEAAV01@ABV01@@Z
_TEXT	SEGMENT
_this$ = -8						; size = 4
___that$ = 8						; size = 4
??4NumberFormatFactory@icu_56@@QAEAAV01@ABV01@@Z PROC	; icu_56::NumberFormatFactory::operator=, COMDAT
; _this$ = ecx
	push	ebp
	mov	ebp, esp
	sub	esp, 204				; 000000ccH
	push	ebx
	push	esi
	push	edi
	push	ecx
	lea	edi, DWORD PTR [ebp-204]
	mov	ecx, 51					; 00000033H
	mov	eax, -858993460				; ccccccccH
	rep stosd
	pop	ecx
	mov	DWORD PTR _this$[ebp], ecx
	mov	esi, esp
	mov	eax, DWORD PTR ___that$[ebp]
	push	eax
	mov	ecx, DWORD PTR _this$[ebp]
	call	DWORD PTR __imp_??4UObject@icu_56@@QAEAAV01@ABV01@@Z
	cmp	esi, esp
	call	__RTC_CheckEsp
	mov	eax, DWORD PTR _this$[ebp]
	pop	edi
	pop	esi
	pop	ebx
	add	esp, 204				; 000000ccH
	cmp	ebp, esp
	call	__RTC_CheckEsp
	mov	esp, ebp
	pop	ebp
	ret	4
??4NumberFormatFactory@icu_56@@QAEAAV01@ABV01@@Z ENDP	; icu_56::NumberFormatFactory::operator=
_TEXT	ENDS
PUBLIC	??_GNumberFormatFactory@icu_56@@UAEPAXI@Z	; icu_56::NumberFormatFactory::`scalar deleting destructor'
EXTRN	??1NumberFormatFactory@icu_56@@UAE@XZ:PROC	; icu_56::NumberFormatFactory::~NumberFormatFactory
; Function compile flags: /Odtp /RTCsu /ZI
;	COMDAT ??_GNumberFormatFactory@icu_56@@UAEPAXI@Z
_TEXT	SEGMENT
_this$ = -8						; size = 4
___flags$ = 8						; size = 4
??_GNumberFormatFactory@icu_56@@UAEPAXI@Z PROC		; icu_56::NumberFormatFactory::`scalar deleting destructor', COMDAT
; _this$ = ecx
	push	ebp
	mov	ebp, esp
	sub	esp, 204				; 000000ccH
	push	ebx
	push	esi
	push	edi
	push	ecx
	lea	edi, DWORD PTR [ebp-204]
	mov	ecx, 51					; 00000033H
	mov	eax, -858993460				; ccccccccH
	rep stosd
	pop	ecx
	mov	DWORD PTR _this$[ebp], ecx
	mov	ecx, DWORD PTR _this$[ebp]
	call	??1NumberFormatFactory@icu_56@@UAE@XZ	; icu_56::NumberFormatFactory::~NumberFormatFactory
	mov	eax, DWORD PTR ___flags$[ebp]
	and	eax, 1
	je	SHORT $LN1@scalar@3
	mov	esi, esp
	mov	eax, DWORD PTR _this$[ebp]
	push	eax
	call	DWORD PTR __imp_??3UMemory@icu_56@@SAXPAX@Z
	add	esp, 4
	cmp	esi, esp
	call	__RTC_CheckEsp
$LN1@scalar@3:
	mov	eax, DWORD PTR _this$[ebp]
	pop	edi
	pop	esi
	pop	ebx
	add	esp, 204				; 000000ccH
	cmp	ebp, esp
	call	__RTC_CheckEsp
	mov	esp, ebp
	pop	ebp
	ret	4
??_GNumberFormatFactory@icu_56@@UAEPAXI@Z ENDP		; icu_56::NumberFormatFactory::`scalar deleting destructor'
; Function compile flags: /Odtp /RTCsu /ZI
_TEXT	ENDS
;	COMDAT ??_ENumberFormatFactory@icu_56@@UAEPAXI@Z
_TEXT	SEGMENT
_this$ = -8						; size = 4
___flags$ = 8						; size = 4
??_ENumberFormatFactory@icu_56@@UAEPAXI@Z PROC		; icu_56::NumberFormatFactory::`vector deleting destructor', COMDAT
; _this$ = ecx
	push	ebp
	mov	ebp, esp
	sub	esp, 204				; 000000ccH
	push	ebx
	push	esi
	push	edi
	push	ecx
	lea	edi, DWORD PTR [ebp-204]
	mov	ecx, 51					; 00000033H
	mov	eax, -858993460				; ccccccccH
	rep stosd
	pop	ecx
	mov	DWORD PTR _this$[ebp], ecx
	mov	eax, DWORD PTR ___flags$[ebp]
	and	eax, 2
	je	SHORT $LN3@vector@3
	push	OFFSET ??1NumberFormatFactory@icu_56@@UAE@XZ ; icu_56::NumberFormatFactory::~NumberFormatFactory
	mov	eax, DWORD PTR _this$[ebp]
	mov	ecx, DWORD PTR [eax-4]
	push	ecx
	push	4
	mov	edx, DWORD PTR _this$[ebp]
	push	edx
	call	??_M@YGXPAXIHP6EX0@Z@Z
	mov	eax, DWORD PTR ___flags$[ebp]
	and	eax, 1
	je	SHORT $LN2@vector@3
	mov	eax, DWORD PTR _this$[ebp]
	sub	eax, 4
	mov	esi, esp
	push	eax
	call	DWORD PTR __imp_??_VUMemory@icu_56@@SAXPAX@Z
	add	esp, 4
	cmp	esi, esp
	call	__RTC_CheckEsp
$LN2@vector@3:
	mov	eax, DWORD PTR _this$[ebp]
	sub	eax, 4
	jmp	SHORT $LN4@vector@3
$LN3@vector@3:
	mov	ecx, DWORD PTR _this$[ebp]
	call	??1NumberFormatFactory@icu_56@@UAE@XZ	; icu_56::NumberFormatFactory::~NumberFormatFactory
	mov	eax, DWORD PTR ___flags$[ebp]
	and	eax, 1
	je	SHORT $LN1@vector@3
	mov	esi, esp
	mov	eax, DWORD PTR _this$[ebp]
	push	eax
	call	DWORD PTR __imp_??3UMemory@icu_56@@SAXPAX@Z
	add	esp, 4
	cmp	esi, esp
	call	__RTC_CheckEsp
$LN1@vector@3:
	mov	eax, DWORD PTR _this$[ebp]
$LN4@vector@3:
	pop	edi
	pop	esi
	pop	ebx
	add	esp, 204				; 000000ccH
	cmp	ebp, esp
	call	__RTC_CheckEsp
	mov	esp, ebp
	pop	ebp
	ret	4
??_ENumberFormatFactory@icu_56@@UAEPAXI@Z ENDP		; icu_56::NumberFormatFactory::`vector deleting destructor'
_TEXT	ENDS
PUBLIC	??_7SimpleNumberFormatFactory@icu_56@@6B@	; icu_56::SimpleNumberFormatFactory::`vftable'
PUBLIC	??0SimpleNumberFormatFactory@icu_56@@QAE@ABV01@@Z ; icu_56::SimpleNumberFormatFactory::SimpleNumberFormatFactory
PUBLIC	??_R4SimpleNumberFormatFactory@icu_56@@6B@	; icu_56::SimpleNumberFormatFactory::`RTTI Complete Object Locator'
PUBLIC	??_R0?AVSimpleNumberFormatFactory@icu_56@@@8	; icu_56::SimpleNumberFormatFactory `RTTI Type Descriptor'
PUBLIC	??_R3SimpleNumberFormatFactory@icu_56@@8	; icu_56::SimpleNumberFormatFactory::`RTTI Class Hierarchy Descriptor'
PUBLIC	??_R2SimpleNumberFormatFactory@icu_56@@8	; icu_56::SimpleNumberFormatFactory::`RTTI Base Class Array'
PUBLIC	??_R1A@?0A@EA@SimpleNumberFormatFactory@icu_56@@8 ; icu_56::SimpleNumberFormatFactory::`RTTI Base Class Descriptor at (0,-1,0,64)'
PUBLIC	??_ESimpleNumberFormatFactory@icu_56@@UAEPAXI@Z	; icu_56::SimpleNumberFormatFactory::`vector deleting destructor'
EXTRN	__imp_??0UnicodeString@icu_56@@QAE@ABV01@@Z:PROC
EXTRN	___security_cookie:DWORD
EXTRN	___CxxFrameHandler3:PROC
EXTRN	@__security_check_cookie@4:PROC
EXTRN	?visible@SimpleNumberFormatFactory@icu_56@@UBECXZ:PROC ; icu_56::SimpleNumberFormatFactory::visible
EXTRN	?getSupportedIDs@SimpleNumberFormatFactory@icu_56@@UBEPBVUnicodeString@2@AAHAAW4UErrorCode@@@Z:PROC ; icu_56::SimpleNumberFormatFactory::getSupportedIDs
;	COMDAT ??_R1A@?0A@EA@SimpleNumberFormatFactory@icu_56@@8
rdata$r	SEGMENT
??_R1A@?0A@EA@SimpleNumberFormatFactory@icu_56@@8 DD FLAT:??_R0?AVSimpleNumberFormatFactory@icu_56@@@8 ; icu_56::SimpleNumberFormatFactory::`RTTI Base Class Descriptor at (0,-1,0,64)'
	DD	03H
	DD	00H
	DD	0ffffffffH
	DD	00H
	DD	040H
	DD	FLAT:??_R3SimpleNumberFormatFactory@icu_56@@8
rdata$r	ENDS
;	COMDAT ??_R2SimpleNumberFormatFactory@icu_56@@8
rdata$r	SEGMENT
??_R2SimpleNumberFormatFactory@icu_56@@8 DD FLAT:??_R1A@?0A@EA@SimpleNumberFormatFactory@icu_56@@8 ; icu_56::SimpleNumberFormatFactory::`RTTI Base Class Array'
	DD	FLAT:??_R1A@?0A@EA@NumberFormatFactory@icu_56@@8
	DD	FLAT:??_R1A@?0A@EA@UObject@icu_56@@8
	DD	FLAT:??_R13?0A@EA@UMemory@icu_56@@8
rdata$r	ENDS
;	COMDAT ??_R3SimpleNumberFormatFactory@icu_56@@8
rdata$r	SEGMENT
??_R3SimpleNumberFormatFactory@icu_56@@8 DD 00H		; icu_56::SimpleNumberFormatFactory::`RTTI Class Hierarchy Descriptor'
	DD	00H
	DD	04H
	DD	FLAT:??_R2SimpleNumberFormatFactory@icu_56@@8
rdata$r	ENDS
;	COMDAT ??_R0?AVSimpleNumberFormatFactory@icu_56@@@8
_DATA	SEGMENT
??_R0?AVSimpleNumberFormatFactory@icu_56@@@8 DD FLAT:??_7type_info@@6B@ ; icu_56::SimpleNumberFormatFactory `RTTI Type Descriptor'
	DD	00H
	DB	'.?AVSimpleNumberFormatFactory@icu_56@@', 00H
_DATA	ENDS
;	COMDAT ??_R4SimpleNumberFormatFactory@icu_56@@6B@
rdata$r	SEGMENT
??_R4SimpleNumberFormatFactory@icu_56@@6B@ DD 00H	; icu_56::SimpleNumberFormatFactory::`RTTI Complete Object Locator'
	DD	00H
	DD	00H
	DD	FLAT:??_R0?AVSimpleNumberFormatFactory@icu_56@@@8
	DD	FLAT:??_R3SimpleNumberFormatFactory@icu_56@@8
rdata$r	ENDS
;	COMDAT ??_7SimpleNumberFormatFactory@icu_56@@6B@
CONST	SEGMENT
??_7SimpleNumberFormatFactory@icu_56@@6B@ DD FLAT:??_R4SimpleNumberFormatFactory@icu_56@@6B@ ; icu_56::SimpleNumberFormatFactory::`vftable'
	DD	FLAT:??_ESimpleNumberFormatFactory@icu_56@@UAEPAXI@Z
	DD	FLAT:?getDynamicClassID@UObject@icu_56@@UBEPAXXZ
	DD	FLAT:?visible@SimpleNumberFormatFactory@icu_56@@UBECXZ
	DD	FLAT:?getSupportedIDs@SimpleNumberFormatFactory@icu_56@@UBEPBVUnicodeString@2@AAHAAW4UErrorCode@@@Z
	DD	FLAT:__purecall
CONST	ENDS
;	COMDAT xdata$x
xdata$x	SEGMENT
__unwindtable$??0SimpleNumberFormatFactory@icu_56@@QAE@ABV01@@Z DD 0ffffffffH
	DD	FLAT:__unwindfunclet$??0SimpleNumberFormatFactory@icu_56@@QAE@ABV01@@Z$0
__ehfuncinfo$??0SimpleNumberFormatFactory@icu_56@@QAE@ABV01@@Z DD 019930522H
	DD	01H
	DD	FLAT:__unwindtable$??0SimpleNumberFormatFactory@icu_56@@QAE@ABV01@@Z
	DD	2 DUP(00H)
	DD	2 DUP(00H)
	DD	00H
	DD	01H
; Function compile flags: /Odtp /RTCsu /ZI
xdata$x	ENDS
;	COMDAT ??0SimpleNumberFormatFactory@icu_56@@QAE@ABV01@@Z
_TEXT	SEGMENT
_this$ = -20						; size = 4
__$EHRec$ = -12						; size = 12
___that$ = 8						; size = 4
??0SimpleNumberFormatFactory@icu_56@@QAE@ABV01@@Z PROC	; icu_56::SimpleNumberFormatFactory::SimpleNumberFormatFactory, COMDAT
; _this$ = ecx
	push	ebp
	mov	ebp, esp
	push	-1
	push	__ehhandler$??0SimpleNumberFormatFactory@icu_56@@QAE@ABV01@@Z
	mov	eax, DWORD PTR fs:0
	push	eax
	sub	esp, 204				; 000000ccH
	push	ebx
	push	esi
	push	edi
	push	ecx
	lea	edi, DWORD PTR [ebp-216]
	mov	ecx, 51					; 00000033H
	mov	eax, -858993460				; ccccccccH
	rep stosd
	pop	ecx
	mov	eax, DWORD PTR ___security_cookie
	xor	eax, ebp
	push	eax
	lea	eax, DWORD PTR __$EHRec$[ebp]
	mov	DWORD PTR fs:0, eax
	mov	DWORD PTR _this$[ebp], ecx
	mov	eax, DWORD PTR ___that$[ebp]
	push	eax
	mov	ecx, DWORD PTR _this$[ebp]
	call	??0NumberFormatFactory@icu_56@@QAE@ABV01@@Z
	mov	DWORD PTR __$EHRec$[ebp+8], 0
	mov	eax, DWORD PTR _this$[ebp]
	mov	DWORD PTR [eax], OFFSET ??_7SimpleNumberFormatFactory@icu_56@@6B@
	mov	eax, DWORD PTR _this$[ebp]
	mov	ecx, DWORD PTR ___that$[ebp]
	mov	dl, BYTE PTR [ecx+4]
	mov	BYTE PTR [eax+4], dl
	mov	eax, DWORD PTR ___that$[ebp]
	add	eax, 8
	mov	esi, esp
	push	eax
	mov	ecx, DWORD PTR _this$[ebp]
	add	ecx, 8
	call	DWORD PTR __imp_??0UnicodeString@icu_56@@QAE@ABV01@@Z
	cmp	esi, esp
	call	__RTC_CheckEsp
	mov	DWORD PTR __$EHRec$[ebp+8], -1
	mov	eax, DWORD PTR _this$[ebp]
	mov	ecx, DWORD PTR __$EHRec$[ebp]
	mov	DWORD PTR fs:0, ecx
	pop	ecx
	pop	edi
	pop	esi
	pop	ebx
	add	esp, 216				; 000000d8H
	cmp	ebp, esp
	call	__RTC_CheckEsp
	mov	esp, ebp
	pop	ebp
	ret	4
_TEXT	ENDS
;	COMDAT text$x
text$x	SEGMENT
__unwindfunclet$??0SimpleNumberFormatFactory@icu_56@@QAE@ABV01@@Z$0:
	mov	ecx, DWORD PTR _this$[ebp]
	jmp	??1NumberFormatFactory@icu_56@@UAE@XZ	; icu_56::NumberFormatFactory::~NumberFormatFactory
__ehhandler$??0SimpleNumberFormatFactory@icu_56@@QAE@ABV01@@Z:
	mov	edx, DWORD PTR [esp+8]
	lea	eax, DWORD PTR [edx+12]
	mov	ecx, DWORD PTR [edx-220]
	xor	ecx, eax
	call	@__security_check_cookie@4
	mov	eax, OFFSET __ehfuncinfo$??0SimpleNumberFormatFactory@icu_56@@QAE@ABV01@@Z
	jmp	___CxxFrameHandler3
text$x	ENDS
??0SimpleNumberFormatFactory@icu_56@@QAE@ABV01@@Z ENDP	; icu_56::SimpleNumberFormatFactory::SimpleNumberFormatFactory
PUBLIC	??_GSimpleNumberFormatFactory@icu_56@@UAEPAXI@Z	; icu_56::SimpleNumberFormatFactory::`scalar deleting destructor'
EXTRN	??1SimpleNumberFormatFactory@icu_56@@UAE@XZ:PROC ; icu_56::SimpleNumberFormatFactory::~SimpleNumberFormatFactory
; Function compile flags: /Odtp /RTCsu /ZI
;	COMDAT ??_GSimpleNumberFormatFactory@icu_56@@UAEPAXI@Z
_TEXT	SEGMENT
_this$ = -8						; size = 4
___flags$ = 8						; size = 4
??_GSimpleNumberFormatFactory@icu_56@@UAEPAXI@Z PROC	; icu_56::SimpleNumberFormatFactory::`scalar deleting destructor', COMDAT
; _this$ = ecx
	push	ebp
	mov	ebp, esp
	sub	esp, 204				; 000000ccH
	push	ebx
	push	esi
	push	edi
	push	ecx
	lea	edi, DWORD PTR [ebp-204]
	mov	ecx, 51					; 00000033H
	mov	eax, -858993460				; ccccccccH
	rep stosd
	pop	ecx
	mov	DWORD PTR _this$[ebp], ecx
	mov	ecx, DWORD PTR _this$[ebp]
	call	??1SimpleNumberFormatFactory@icu_56@@UAE@XZ ; icu_56::SimpleNumberFormatFactory::~SimpleNumberFormatFactory
	mov	eax, DWORD PTR ___flags$[ebp]
	and	eax, 1
	je	SHORT $LN1@scalar@4
	mov	esi, esp
	mov	eax, DWORD PTR _this$[ebp]
	push	eax
	call	DWORD PTR __imp_??3UMemory@icu_56@@SAXPAX@Z
	add	esp, 4
	cmp	esi, esp
	call	__RTC_CheckEsp
$LN1@scalar@4:
	mov	eax, DWORD PTR _this$[ebp]
	pop	edi
	pop	esi
	pop	ebx
	add	esp, 204				; 000000ccH
	cmp	ebp, esp
	call	__RTC_CheckEsp
	mov	esp, ebp
	pop	ebp
	ret	4
??_GSimpleNumberFormatFactory@icu_56@@UAEPAXI@Z ENDP	; icu_56::SimpleNumberFormatFactory::`scalar deleting destructor'
; Function compile flags: /Odtp /RTCsu /ZI
_TEXT	ENDS
;	COMDAT ??_ESimpleNumberFormatFactory@icu_56@@UAEPAXI@Z
_TEXT	SEGMENT
_this$ = -8						; size = 4
___flags$ = 8						; size = 4
??_ESimpleNumberFormatFactory@icu_56@@UAEPAXI@Z PROC	; icu_56::SimpleNumberFormatFactory::`vector deleting destructor', COMDAT
; _this$ = ecx
	push	ebp
	mov	ebp, esp
	sub	esp, 204				; 000000ccH
	push	ebx
	push	esi
	push	edi
	push	ecx
	lea	edi, DWORD PTR [ebp-204]
	mov	ecx, 51					; 00000033H
	mov	eax, -858993460				; ccccccccH
	rep stosd
	pop	ecx
	mov	DWORD PTR _this$[ebp], ecx
	mov	eax, DWORD PTR ___flags$[ebp]
	and	eax, 2
	je	SHORT $LN3@vector@4
	push	OFFSET ??1SimpleNumberFormatFactory@icu_56@@UAE@XZ ; icu_56::SimpleNumberFormatFactory::~SimpleNumberFormatFactory
	mov	eax, DWORD PTR _this$[ebp]
	mov	ecx, DWORD PTR [eax-4]
	push	ecx
	push	72					; 00000048H
	mov	edx, DWORD PTR _this$[ebp]
	push	edx
	call	??_M@YGXPAXIHP6EX0@Z@Z
	mov	eax, DWORD PTR ___flags$[ebp]
	and	eax, 1
	je	SHORT $LN2@vector@4
	mov	eax, DWORD PTR _this$[ebp]
	sub	eax, 4
	mov	esi, esp
	push	eax
	call	DWORD PTR __imp_??_VUMemory@icu_56@@SAXPAX@Z
	add	esp, 4
	cmp	esi, esp
	call	__RTC_CheckEsp
$LN2@vector@4:
	mov	eax, DWORD PTR _this$[ebp]
	sub	eax, 4
	jmp	SHORT $LN4@vector@4
$LN3@vector@4:
	mov	ecx, DWORD PTR _this$[ebp]
	call	??1SimpleNumberFormatFactory@icu_56@@UAE@XZ ; icu_56::SimpleNumberFormatFactory::~SimpleNumberFormatFactory
	mov	eax, DWORD PTR ___flags$[ebp]
	and	eax, 1
	je	SHORT $LN1@vector@4
	mov	esi, esp
	mov	eax, DWORD PTR _this$[ebp]
	push	eax
	call	DWORD PTR __imp_??3UMemory@icu_56@@SAXPAX@Z
	add	esp, 4
	cmp	esi, esp
	call	__RTC_CheckEsp
$LN1@vector@4:
	mov	eax, DWORD PTR _this$[ebp]
$LN4@vector@4:
	pop	edi
	pop	esi
	pop	ebx
	add	esp, 204				; 000000ccH
	cmp	ebp, esp
	call	__RTC_CheckEsp
	mov	esp, ebp
	pop	ebp
	ret	4
??_ESimpleNumberFormatFactory@icu_56@@UAEPAXI@Z ENDP	; icu_56::SimpleNumberFormatFactory::`vector deleting destructor'
_TEXT	ENDS
PUBLIC	?isParseIntegerOnly@NumberFormat@icu_56@@QBECXZ	; icu_56::NumberFormat::isParseIntegerOnly
; Function compile flags: /Odtp /RTCsu /ZI
;	COMDAT ?isParseIntegerOnly@NumberFormat@icu_56@@QBECXZ
_TEXT	SEGMENT
_this$ = -8						; size = 4
?isParseIntegerOnly@NumberFormat@icu_56@@QBECXZ PROC	; icu_56::NumberFormat::isParseIntegerOnly, COMDAT
; _this$ = ecx
; File d:\mozilla\intl\icu\source\i18n\unicode\numfmt.h
; Line 1170
	push	ebp
	mov	ebp, esp
	sub	esp, 204				; 000000ccH
	push	ebx
	push	esi
	push	edi
	push	ecx
	lea	edi, DWORD PTR [ebp-204]
	mov	ecx, 51					; 00000033H
	mov	eax, -858993460				; ccccccccH
	rep stosd
	pop	ecx
	mov	DWORD PTR _this$[ebp], ecx
; Line 1171
	mov	eax, DWORD PTR _this$[ebp]
	mov	al, BYTE PTR [eax+340]
; Line 1172
	pop	edi
	pop	esi
	pop	ebx
	mov	esp, ebp
	pop	ebp
	ret	0
?isParseIntegerOnly@NumberFormat@icu_56@@QBECXZ ENDP	; icu_56::NumberFormat::isParseIntegerOnly
_TEXT	ENDS
PUBLIC	?isLenient@NumberFormat@icu_56@@UBECXZ		; icu_56::NumberFormat::isLenient
; Function compile flags: /Odtp /RTCsu /ZI
;	COMDAT ?isLenient@NumberFormat@icu_56@@UBECXZ
_TEXT	SEGMENT
_this$ = -8						; size = 4
?isLenient@NumberFormat@icu_56@@UBECXZ PROC		; icu_56::NumberFormat::isLenient, COMDAT
; _this$ = ecx
; Line 1176
	push	ebp
	mov	ebp, esp
	sub	esp, 204				; 000000ccH
	push	ebx
	push	esi
	push	edi
	push	ecx
	lea	edi, DWORD PTR [ebp-204]
	mov	ecx, 51					; 00000033H
	mov	eax, -858993460				; ccccccccH
	rep stosd
	pop	ecx
	mov	DWORD PTR _this$[ebp], ecx
; Line 1177
	mov	eax, DWORD PTR _this$[ebp]
	mov	al, BYTE PTR [eax+341]
; Line 1178
	pop	edi
	pop	esi
	pop	ebx
	mov	esp, ebp
	pop	ebp
	ret	0
?isLenient@NumberFormat@icu_56@@UBECXZ ENDP		; icu_56::NumberFormat::isLenient
_TEXT	ENDS
PUBLIC	??9PluralRules@icu_56@@QBECABV01@@Z		; icu_56::PluralRules::operator!=
; Function compile flags: /Odtp /RTCsu /ZI
;	COMDAT ??9PluralRules@icu_56@@QBECABV01@@Z
_TEXT	SEGMENT
_this$ = -8						; size = 4
_other$ = 8						; size = 4
??9PluralRules@icu_56@@QBECABV01@@Z PROC		; icu_56::PluralRules::operator!=, COMDAT
; _this$ = ecx
; File d:\mozilla\intl\icu\source\i18n\unicode\plurrule.h
; Line 474
	push	ebp
	mov	ebp, esp
	sub	esp, 204				; 000000ccH
	push	ebx
	push	esi
	push	edi
	push	ecx
	lea	edi, DWORD PTR [ebp-204]
	mov	ecx, 51					; 00000033H
	mov	eax, -858993460				; ccccccccH
	rep stosd
	pop	ecx
	mov	DWORD PTR _this$[ebp], ecx
	mov	esi, esp
	mov	eax, DWORD PTR _other$[ebp]
	push	eax
	mov	ecx, DWORD PTR _this$[ebp]
	mov	edx, DWORD PTR [ecx]
	mov	ecx, DWORD PTR _this$[ebp]
	mov	eax, DWORD PTR [edx+8]
	call	eax
	cmp	esi, esp
	call	__RTC_CheckEsp
	movsx	ecx, al
	test	ecx, ecx
	sete	al
	pop	edi
	pop	esi
	pop	ebx
	add	esp, 204				; 000000ccH
	cmp	ebp, esp
	call	__RTC_CheckEsp
	mov	esp, ebp
	pop	ebp
	ret	4
??9PluralRules@icu_56@@QBECABV01@@Z ENDP		; icu_56::PluralRules::operator!=
_TEXT	ENDS
PUBLIC	??_7PluralSelectorAdapter@PluralFormat@icu_56@@6B@ ; icu_56::PluralFormat::PluralSelectorAdapter::`vftable'
PUBLIC	??0PluralSelector@PluralFormat@icu_56@@QAE@XZ	; icu_56::PluralFormat::PluralSelector::PluralSelector
PUBLIC	??0PluralSelectorAdapter@PluralFormat@icu_56@@QAE@XZ ; icu_56::PluralFormat::PluralSelectorAdapter::PluralSelectorAdapter
PUBLIC	??_R4PluralSelectorAdapter@PluralFormat@icu_56@@6B@ ; icu_56::PluralFormat::PluralSelectorAdapter::`RTTI Complete Object Locator'
PUBLIC	??_R0?AVPluralSelectorAdapter@PluralFormat@icu_56@@@8 ; icu_56::PluralFormat::PluralSelectorAdapter `RTTI Type Descriptor'
PUBLIC	??_R3PluralSelectorAdapter@PluralFormat@icu_56@@8 ; icu_56::PluralFormat::PluralSelectorAdapter::`RTTI Class Hierarchy Descriptor'
PUBLIC	??_R2PluralSelectorAdapter@PluralFormat@icu_56@@8 ; icu_56::PluralFormat::PluralSelectorAdapter::`RTTI Base Class Array'
PUBLIC	??_R1A@?0A@EA@PluralSelectorAdapter@PluralFormat@icu_56@@8 ; icu_56::PluralFormat::PluralSelectorAdapter::`RTTI Base Class Descriptor at (0,-1,0,64)'
PUBLIC	??_R1A@?0A@EA@PluralSelector@PluralFormat@icu_56@@8 ; icu_56::PluralFormat::PluralSelector::`RTTI Base Class Descriptor at (0,-1,0,64)'
PUBLIC	??_R0?AVPluralSelector@PluralFormat@icu_56@@@8	; icu_56::PluralFormat::PluralSelector `RTTI Type Descriptor'
PUBLIC	??_R3PluralSelector@PluralFormat@icu_56@@8	; icu_56::PluralFormat::PluralSelector::`RTTI Class Hierarchy Descriptor'
PUBLIC	??_R2PluralSelector@PluralFormat@icu_56@@8	; icu_56::PluralFormat::PluralSelector::`RTTI Base Class Array'
PUBLIC	??_EPluralSelectorAdapter@PluralFormat@icu_56@@UAEPAXI@Z ; icu_56::PluralFormat::PluralSelectorAdapter::`vector deleting destructor'
EXTRN	?select@PluralSelectorAdapter@PluralFormat@icu_56@@UBE?AVUnicodeString@3@PAXNAAW4UErrorCode@@@Z:PROC ; icu_56::PluralFormat::PluralSelectorAdapter::select
;	COMDAT ??_R2PluralSelector@PluralFormat@icu_56@@8
; File d:\mozilla\intl\icu\source\i18n\unicode\plurfmt.h
rdata$r	SEGMENT
??_R2PluralSelector@PluralFormat@icu_56@@8 DD FLAT:??_R1A@?0A@EA@PluralSelector@PluralFormat@icu_56@@8 ; icu_56::PluralFormat::PluralSelector::`RTTI Base Class Array'
	DD	FLAT:??_R13?0A@EA@UMemory@icu_56@@8
rdata$r	ENDS
;	COMDAT ??_R3PluralSelector@PluralFormat@icu_56@@8
rdata$r	SEGMENT
??_R3PluralSelector@PluralFormat@icu_56@@8 DD 00H	; icu_56::PluralFormat::PluralSelector::`RTTI Class Hierarchy Descriptor'
	DD	00H
	DD	02H
	DD	FLAT:??_R2PluralSelector@PluralFormat@icu_56@@8
rdata$r	ENDS
;	COMDAT ??_R0?AVPluralSelector@PluralFormat@icu_56@@@8
_DATA	SEGMENT
??_R0?AVPluralSelector@PluralFormat@icu_56@@@8 DD FLAT:??_7type_info@@6B@ ; icu_56::PluralFormat::PluralSelector `RTTI Type Descriptor'
	DD	00H
	DB	'.?AVPluralSelector@PluralFormat@icu_56@@', 00H
_DATA	ENDS
;	COMDAT ??_R1A@?0A@EA@PluralSelector@PluralFormat@icu_56@@8
rdata$r	SEGMENT
??_R1A@?0A@EA@PluralSelector@PluralFormat@icu_56@@8 DD FLAT:??_R0?AVPluralSelector@PluralFormat@icu_56@@@8 ; icu_56::PluralFormat::PluralSelector::`RTTI Base Class Descriptor at (0,-1,0,64)'
	DD	01H
	DD	00H
	DD	0ffffffffH
	DD	00H
	DD	040H
	DD	FLAT:??_R3PluralSelector@PluralFormat@icu_56@@8
rdata$r	ENDS
;	COMDAT ??_R1A@?0A@EA@PluralSelectorAdapter@PluralFormat@icu_56@@8
rdata$r	SEGMENT
??_R1A@?0A@EA@PluralSelectorAdapter@PluralFormat@icu_56@@8 DD FLAT:??_R0?AVPluralSelectorAdapter@PluralFormat@icu_56@@@8 ; icu_56::PluralFormat::PluralSelectorAdapter::`RTTI Base Class Descriptor at (0,-1,0,64)'
	DD	02H
	DD	00H
	DD	0ffffffffH
	DD	00H
	DD	040H
	DD	FLAT:??_R3PluralSelectorAdapter@PluralFormat@icu_56@@8
rdata$r	ENDS
;	COMDAT ??_R2PluralSelectorAdapter@PluralFormat@icu_56@@8
rdata$r	SEGMENT
??_R2PluralSelectorAdapter@PluralFormat@icu_56@@8 DD FLAT:??_R1A@?0A@EA@PluralSelectorAdapter@PluralFormat@icu_56@@8 ; icu_56::PluralFormat::PluralSelectorAdapter::`RTTI Base Class Array'
	DD	FLAT:??_R1A@?0A@EA@PluralSelector@PluralFormat@icu_56@@8
	DD	FLAT:??_R13?0A@EA@UMemory@icu_56@@8
rdata$r	ENDS
;	COMDAT ??_R3PluralSelectorAdapter@PluralFormat@icu_56@@8
rdata$r	SEGMENT
??_R3PluralSelectorAdapter@PluralFormat@icu_56@@8 DD 00H ; icu_56::PluralFormat::PluralSelectorAdapter::`RTTI Class Hierarchy Descriptor'
	DD	00H
	DD	03H
	DD	FLAT:??_R2PluralSelectorAdapter@PluralFormat@icu_56@@8
rdata$r	ENDS
;	COMDAT ??_R0?AVPluralSelectorAdapter@PluralFormat@icu_56@@@8
_DATA	SEGMENT
??_R0?AVPluralSelectorAdapter@PluralFormat@icu_56@@@8 DD FLAT:??_7type_info@@6B@ ; icu_56::PluralFormat::PluralSelectorAdapter `RTTI Type Descriptor'
	DD	00H
	DB	'.?AVPluralSelectorAdapter@PluralFormat@icu_56@@', 00H
_DATA	ENDS
;	COMDAT ??_R4PluralSelectorAdapter@PluralFormat@icu_56@@6B@
rdata$r	SEGMENT
??_R4PluralSelectorAdapter@PluralFormat@icu_56@@6B@ DD 00H ; icu_56::PluralFormat::PluralSelectorAdapter::`RTTI Complete Object Locator'
	DD	00H
	DD	00H
	DD	FLAT:??_R0?AVPluralSelectorAdapter@PluralFormat@icu_56@@@8
	DD	FLAT:??_R3PluralSelectorAdapter@PluralFormat@icu_56@@8
rdata$r	ENDS
;	COMDAT ??_7PluralSelectorAdapter@PluralFormat@icu_56@@6B@
CONST	SEGMENT
??_7PluralSelectorAdapter@PluralFormat@icu_56@@6B@ DD FLAT:??_R4PluralSelectorAdapter@PluralFormat@icu_56@@6B@ ; icu_56::PluralFormat::PluralSelectorAdapter::`vftable'
	DD	FLAT:??_EPluralSelectorAdapter@PluralFormat@icu_56@@UAEPAXI@Z
	DD	FLAT:?select@PluralSelectorAdapter@PluralFormat@icu_56@@UBE?AVUnicodeString@3@PAXNAAW4UErrorCode@@@Z
; Function compile flags: /Odtp /RTCsu /ZI
CONST	ENDS
;	COMDAT ??0PluralSelectorAdapter@PluralFormat@icu_56@@QAE@XZ
_TEXT	SEGMENT
_this$ = -8						; size = 4
??0PluralSelectorAdapter@PluralFormat@icu_56@@QAE@XZ PROC ; icu_56::PluralFormat::PluralSelectorAdapter::PluralSelectorAdapter, COMDAT
; _this$ = ecx
; Line 553
	push	ebp
	mov	ebp, esp
	sub	esp, 204				; 000000ccH
	push	ebx
	push	esi
	push	edi
	push	ecx
	lea	edi, DWORD PTR [ebp-204]
	mov	ecx, 51					; 00000033H
	mov	eax, -858993460				; ccccccccH
	rep stosd
	pop	ecx
	mov	DWORD PTR _this$[ebp], ecx
	mov	ecx, DWORD PTR _this$[ebp]
	call	??0PluralSelector@PluralFormat@icu_56@@QAE@XZ
	mov	eax, DWORD PTR _this$[ebp]
	mov	DWORD PTR [eax], OFFSET ??_7PluralSelectorAdapter@PluralFormat@icu_56@@6B@
	mov	eax, DWORD PTR _this$[ebp]
	mov	DWORD PTR [eax+4], 0
; Line 554
	mov	eax, DWORD PTR _this$[ebp]
	pop	edi
	pop	esi
	pop	ebx
	add	esp, 204				; 000000ccH
	cmp	ebp, esp
	call	__RTC_CheckEsp
	mov	esp, ebp
	pop	ebp
	ret	0
??0PluralSelectorAdapter@PluralFormat@icu_56@@QAE@XZ ENDP ; icu_56::PluralFormat::PluralSelectorAdapter::PluralSelectorAdapter
_TEXT	ENDS
PUBLIC	??_7PluralSelector@PluralFormat@icu_56@@6B@	; icu_56::PluralFormat::PluralSelector::`vftable'
PUBLIC	??_R4PluralSelector@PluralFormat@icu_56@@6B@	; icu_56::PluralFormat::PluralSelector::`RTTI Complete Object Locator'
PUBLIC	??_EPluralSelector@PluralFormat@icu_56@@UAEPAXI@Z ; icu_56::PluralFormat::PluralSelector::`vector deleting destructor'
;	COMDAT ??_R4PluralSelector@PluralFormat@icu_56@@6B@
rdata$r	SEGMENT
??_R4PluralSelector@PluralFormat@icu_56@@6B@ DD 00H	; icu_56::PluralFormat::PluralSelector::`RTTI Complete Object Locator'
	DD	00H
	DD	00H
	DD	FLAT:??_R0?AVPluralSelector@PluralFormat@icu_56@@@8
	DD	FLAT:??_R3PluralSelector@PluralFormat@icu_56@@8
rdata$r	ENDS
;	COMDAT ??_7PluralSelector@PluralFormat@icu_56@@6B@
CONST	SEGMENT
??_7PluralSelector@PluralFormat@icu_56@@6B@ DD FLAT:??_R4PluralSelector@PluralFormat@icu_56@@6B@ ; icu_56::PluralFormat::PluralSelector::`vftable'
	DD	FLAT:??_EPluralSelector@PluralFormat@icu_56@@UAEPAXI@Z
	DD	FLAT:__purecall
; Function compile flags: /Odtp /RTCsu /ZI
CONST	ENDS
;	COMDAT ??0PluralSelector@PluralFormat@icu_56@@QAE@XZ
_TEXT	SEGMENT
_this$ = -8						; size = 4
??0PluralSelector@PluralFormat@icu_56@@QAE@XZ PROC	; icu_56::PluralFormat::PluralSelector::PluralSelector, COMDAT
; _this$ = ecx
	push	ebp
	mov	ebp, esp
	sub	esp, 204				; 000000ccH
	push	ebx
	push	esi
	push	edi
	push	ecx
	lea	edi, DWORD PTR [ebp-204]
	mov	ecx, 51					; 00000033H
	mov	eax, -858993460				; ccccccccH
	rep stosd
	pop	ecx
	mov	DWORD PTR _this$[ebp], ecx
	mov	eax, DWORD PTR _this$[ebp]
	mov	DWORD PTR [eax], OFFSET ??_7PluralSelector@PluralFormat@icu_56@@6B@
	mov	eax, DWORD PTR _this$[ebp]
	pop	edi
	pop	esi
	pop	ebx
	mov	esp, ebp
	pop	ebp
	ret	0
??0PluralSelector@PluralFormat@icu_56@@QAE@XZ ENDP	; icu_56::PluralFormat::PluralSelector::PluralSelector
_TEXT	ENDS
PUBLIC	??0PluralSelector@PluralFormat@icu_56@@QAE@ABV012@@Z ; icu_56::PluralFormat::PluralSelector::PluralSelector
; Function compile flags: /Odtp /RTCsu /ZI
;	COMDAT ??0PluralSelector@PluralFormat@icu_56@@QAE@ABV012@@Z
_TEXT	SEGMENT
tv68 = -208						; size = 4
_this$ = -8						; size = 4
___that$ = 8						; size = 4
??0PluralSelector@PluralFormat@icu_56@@QAE@ABV012@@Z PROC ; icu_56::PluralFormat::PluralSelector::PluralSelector, COMDAT
; _this$ = ecx
	push	ebp
	mov	ebp, esp
	sub	esp, 208				; 000000d0H
	push	ebx
	push	esi
	push	edi
	push	ecx
	lea	edi, DWORD PTR [ebp-208]
	mov	ecx, 52					; 00000034H
	mov	eax, -858993460				; ccccccccH
	rep stosd
	pop	ecx
	mov	DWORD PTR _this$[ebp], ecx
	cmp	DWORD PTR ___that$[ebp], 0
	je	SHORT $LN3@PluralSele
	mov	eax, DWORD PTR ___that$[ebp]
	add	eax, 4
	mov	DWORD PTR tv68[ebp], eax
	jmp	SHORT $LN4@PluralSele
$LN3@PluralSele:
	mov	DWORD PTR tv68[ebp], 0
$LN4@PluralSele:
	mov	eax, DWORD PTR _this$[ebp]
	mov	DWORD PTR [eax], OFFSET ??_7PluralSelector@PluralFormat@icu_56@@6B@
	mov	eax, DWORD PTR _this$[ebp]
	pop	edi
	pop	esi
	pop	ebx
	mov	esp, ebp
	pop	ebp
	ret	4
??0PluralSelector@PluralFormat@icu_56@@QAE@ABV012@@Z ENDP ; icu_56::PluralFormat::PluralSelector::PluralSelector
_TEXT	ENDS
PUBLIC	??4PluralSelector@PluralFormat@icu_56@@QAEAAV012@ABV012@@Z ; icu_56::PluralFormat::PluralSelector::operator=
; Function compile flags: /Odtp /RTCsu /ZI
;	COMDAT ??4PluralSelector@PluralFormat@icu_56@@QAEAAV012@ABV012@@Z
_TEXT	SEGMENT
_this$ = -8						; size = 4
___that$ = 8						; size = 4
??4PluralSelector@PluralFormat@icu_56@@QAEAAV012@ABV012@@Z PROC ; icu_56::PluralFormat::PluralSelector::operator=, COMDAT
; _this$ = ecx
	push	ebp
	mov	ebp, esp
	sub	esp, 204				; 000000ccH
	push	ebx
	push	esi
	push	edi
	push	ecx
	lea	edi, DWORD PTR [ebp-204]
	mov	ecx, 51					; 00000033H
	mov	eax, -858993460				; ccccccccH
	rep stosd
	pop	ecx
	mov	DWORD PTR _this$[ebp], ecx
	mov	eax, DWORD PTR _this$[ebp]
	pop	edi
	pop	esi
	pop	ebx
	mov	esp, ebp
	pop	ebp
	ret	4
??4PluralSelector@PluralFormat@icu_56@@QAEAAV012@ABV012@@Z ENDP ; icu_56::PluralFormat::PluralSelector::operator=
_TEXT	ENDS
PUBLIC	??_GPluralSelector@PluralFormat@icu_56@@UAEPAXI@Z ; icu_56::PluralFormat::PluralSelector::`scalar deleting destructor'
EXTRN	??1PluralSelector@PluralFormat@icu_56@@UAE@XZ:PROC ; icu_56::PluralFormat::PluralSelector::~PluralSelector
; Function compile flags: /Odtp /RTCsu /ZI
;	COMDAT ??_GPluralSelector@PluralFormat@icu_56@@UAEPAXI@Z
_TEXT	SEGMENT
_this$ = -8						; size = 4
___flags$ = 8						; size = 4
??_GPluralSelector@PluralFormat@icu_56@@UAEPAXI@Z PROC	; icu_56::PluralFormat::PluralSelector::`scalar deleting destructor', COMDAT
; _this$ = ecx
	push	ebp
	mov	ebp, esp
	sub	esp, 204				; 000000ccH
	push	ebx
	push	esi
	push	edi
	push	ecx
	lea	edi, DWORD PTR [ebp-204]
	mov	ecx, 51					; 00000033H
	mov	eax, -858993460				; ccccccccH
	rep stosd
	pop	ecx
	mov	DWORD PTR _this$[ebp], ecx
	mov	ecx, DWORD PTR _this$[ebp]
	call	??1PluralSelector@PluralFormat@icu_56@@UAE@XZ ; icu_56::PluralFormat::PluralSelector::~PluralSelector
	mov	eax, DWORD PTR ___flags$[ebp]
	and	eax, 1
	je	SHORT $LN1@scalar@5
	mov	esi, esp
	mov	eax, DWORD PTR _this$[ebp]
	push	eax
	call	DWORD PTR __imp_??3UMemory@icu_56@@SAXPAX@Z
	add	esp, 4
	cmp	esi, esp
	call	__RTC_CheckEsp
$LN1@scalar@5:
	mov	eax, DWORD PTR _this$[ebp]
	pop	edi
	pop	esi
	pop	ebx
	add	esp, 204				; 000000ccH
	cmp	ebp, esp
	call	__RTC_CheckEsp
	mov	esp, ebp
	pop	ebp
	ret	4
??_GPluralSelector@PluralFormat@icu_56@@UAEPAXI@Z ENDP	; icu_56::PluralFormat::PluralSelector::`scalar deleting destructor'
; Function compile flags: /Odtp /RTCsu /ZI
_TEXT	ENDS
;	COMDAT ??_EPluralSelector@PluralFormat@icu_56@@UAEPAXI@Z
_TEXT	SEGMENT
_this$ = -8						; size = 4
___flags$ = 8						; size = 4
??_EPluralSelector@PluralFormat@icu_56@@UAEPAXI@Z PROC	; icu_56::PluralFormat::PluralSelector::`vector deleting destructor', COMDAT
; _this$ = ecx
	push	ebp
	mov	ebp, esp
	sub	esp, 204				; 000000ccH
	push	ebx
	push	esi
	push	edi
	push	ecx
	lea	edi, DWORD PTR [ebp-204]
	mov	ecx, 51					; 00000033H
	mov	eax, -858993460				; ccccccccH
	rep stosd
	pop	ecx
	mov	DWORD PTR _this$[ebp], ecx
	mov	eax, DWORD PTR ___flags$[ebp]
	and	eax, 2
	je	SHORT $LN3@vector@5
	push	OFFSET ??1PluralSelector@PluralFormat@icu_56@@UAE@XZ ; icu_56::PluralFormat::PluralSelector::~PluralSelector
	mov	eax, DWORD PTR _this$[ebp]
	mov	ecx, DWORD PTR [eax-4]
	push	ecx
	push	4
	mov	edx, DWORD PTR _this$[ebp]
	push	edx
	call	??_M@YGXPAXIHP6EX0@Z@Z
	mov	eax, DWORD PTR ___flags$[ebp]
	and	eax, 1
	je	SHORT $LN2@vector@5
	mov	eax, DWORD PTR _this$[ebp]
	sub	eax, 4
	mov	esi, esp
	push	eax
	call	DWORD PTR __imp_??_VUMemory@icu_56@@SAXPAX@Z
	add	esp, 4
	cmp	esi, esp
	call	__RTC_CheckEsp
$LN2@vector@5:
	mov	eax, DWORD PTR _this$[ebp]
	sub	eax, 4
	jmp	SHORT $LN4@vector@5
$LN3@vector@5:
	mov	ecx, DWORD PTR _this$[ebp]
	call	??1PluralSelector@PluralFormat@icu_56@@UAE@XZ ; icu_56::PluralFormat::PluralSelector::~PluralSelector
	mov	eax, DWORD PTR ___flags$[ebp]
	and	eax, 1
	je	SHORT $LN1@vector@5
	mov	esi, esp
	mov	eax, DWORD PTR _this$[ebp]
	push	eax
	call	DWORD PTR __imp_??3UMemory@icu_56@@SAXPAX@Z
	add	esp, 4
	cmp	esi, esp
	call	__RTC_CheckEsp
$LN1@vector@5:
	mov	eax, DWORD PTR _this$[ebp]
$LN4@vector@5:
	pop	edi
	pop	esi
	pop	ebx
	add	esp, 204				; 000000ccH
	cmp	ebp, esp
	call	__RTC_CheckEsp
	mov	esp, ebp
	pop	ebp
	ret	4
??_EPluralSelector@PluralFormat@icu_56@@UAEPAXI@Z ENDP	; icu_56::PluralFormat::PluralSelector::`vector deleting destructor'
_TEXT	ENDS
PUBLIC	??0PluralSelectorAdapter@PluralFormat@icu_56@@QAE@ABV012@@Z ; icu_56::PluralFormat::PluralSelectorAdapter::PluralSelectorAdapter
; Function compile flags: /Odtp /RTCsu /ZI
;	COMDAT ??0PluralSelectorAdapter@PluralFormat@icu_56@@QAE@ABV012@@Z
_TEXT	SEGMENT
_this$ = -8						; size = 4
___that$ = 8						; size = 4
??0PluralSelectorAdapter@PluralFormat@icu_56@@QAE@ABV012@@Z PROC ; icu_56::PluralFormat::PluralSelectorAdapter::PluralSelectorAdapter, COMDAT
; _this$ = ecx
	push	ebp
	mov	ebp, esp
	sub	esp, 204				; 000000ccH
	push	ebx
	push	esi
	push	edi
	push	ecx
	lea	edi, DWORD PTR [ebp-204]
	mov	ecx, 51					; 00000033H
	mov	eax, -858993460				; ccccccccH
	rep stosd
	pop	ecx
	mov	DWORD PTR _this$[ebp], ecx
	mov	eax, DWORD PTR ___that$[ebp]
	push	eax
	mov	ecx, DWORD PTR _this$[ebp]
	call	??0PluralSelector@PluralFormat@icu_56@@QAE@ABV012@@Z
	mov	eax, DWORD PTR _this$[ebp]
	mov	DWORD PTR [eax], OFFSET ??_7PluralSelectorAdapter@PluralFormat@icu_56@@6B@
	mov	eax, DWORD PTR _this$[ebp]
	mov	ecx, DWORD PTR ___that$[ebp]
	mov	edx, DWORD PTR [ecx+4]
	mov	DWORD PTR [eax+4], edx
	mov	eax, DWORD PTR _this$[ebp]
	pop	edi
	pop	esi
	pop	ebx
	add	esp, 204				; 000000ccH
	cmp	ebp, esp
	call	__RTC_CheckEsp
	mov	esp, ebp
	pop	ebp
	ret	4
??0PluralSelectorAdapter@PluralFormat@icu_56@@QAE@ABV012@@Z ENDP ; icu_56::PluralFormat::PluralSelectorAdapter::PluralSelectorAdapter
_TEXT	ENDS
PUBLIC	??4PluralSelectorAdapter@PluralFormat@icu_56@@QAEAAV012@ABV012@@Z ; icu_56::PluralFormat::PluralSelectorAdapter::operator=
; Function compile flags: /Odtp /RTCsu /ZI
;	COMDAT ??4PluralSelectorAdapter@PluralFormat@icu_56@@QAEAAV012@ABV012@@Z
_TEXT	SEGMENT
_this$ = -8						; size = 4
___that$ = 8						; size = 4
??4PluralSelectorAdapter@PluralFormat@icu_56@@QAEAAV012@ABV012@@Z PROC ; icu_56::PluralFormat::PluralSelectorAdapter::operator=, COMDAT
; _this$ = ecx
	push	ebp
	mov	ebp, esp
	sub	esp, 204				; 000000ccH
	push	ebx
	push	esi
	push	edi
	push	ecx
	lea	edi, DWORD PTR [ebp-204]
	mov	ecx, 51					; 00000033H
	mov	eax, -858993460				; ccccccccH
	rep stosd
	pop	ecx
	mov	DWORD PTR _this$[ebp], ecx
	mov	eax, DWORD PTR ___that$[ebp]
	push	eax
	mov	ecx, DWORD PTR _this$[ebp]
	call	??4PluralSelector@PluralFormat@icu_56@@QAEAAV012@ABV012@@Z
	mov	eax, DWORD PTR _this$[ebp]
	mov	ecx, DWORD PTR ___that$[ebp]
	mov	edx, DWORD PTR [ecx+4]
	mov	DWORD PTR [eax+4], edx
	mov	eax, DWORD PTR _this$[ebp]
	pop	edi
	pop	esi
	pop	ebx
	add	esp, 204				; 000000ccH
	cmp	ebp, esp
	call	__RTC_CheckEsp
	mov	esp, ebp
	pop	ebp
	ret	4
??4PluralSelectorAdapter@PluralFormat@icu_56@@QAEAAV012@ABV012@@Z ENDP ; icu_56::PluralFormat::PluralSelectorAdapter::operator=
_TEXT	ENDS
PUBLIC	??_GPluralSelectorAdapter@PluralFormat@icu_56@@UAEPAXI@Z ; icu_56::PluralFormat::PluralSelectorAdapter::`scalar deleting destructor'
EXTRN	??1PluralSelectorAdapter@PluralFormat@icu_56@@UAE@XZ:PROC ; icu_56::PluralFormat::PluralSelectorAdapter::~PluralSelectorAdapter
; Function compile flags: /Odtp /RTCsu /ZI
;	COMDAT ??_GPluralSelectorAdapter@PluralFormat@icu_56@@UAEPAXI@Z
_TEXT	SEGMENT
_this$ = -8						; size = 4
___flags$ = 8						; size = 4
??_GPluralSelectorAdapter@PluralFormat@icu_56@@UAEPAXI@Z PROC ; icu_56::PluralFormat::PluralSelectorAdapter::`scalar deleting destructor', COMDAT
; _this$ = ecx
	push	ebp
	mov	ebp, esp
	sub	esp, 204				; 000000ccH
	push	ebx
	push	esi
	push	edi
	push	ecx
	lea	edi, DWORD PTR [ebp-204]
	mov	ecx, 51					; 00000033H
	mov	eax, -858993460				; ccccccccH
	rep stosd
	pop	ecx
	mov	DWORD PTR _this$[ebp], ecx
	mov	ecx, DWORD PTR _this$[ebp]
	call	??1PluralSelectorAdapter@PluralFormat@icu_56@@UAE@XZ ; icu_56::PluralFormat::PluralSelectorAdapter::~PluralSelectorAdapter
	mov	eax, DWORD PTR ___flags$[ebp]
	and	eax, 1
	je	SHORT $LN1@scalar@6
	mov	esi, esp
	mov	eax, DWORD PTR _this$[ebp]
	push	eax
	call	DWORD PTR __imp_??3UMemory@icu_56@@SAXPAX@Z
	add	esp, 4
	cmp	esi, esp
	call	__RTC_CheckEsp
$LN1@scalar@6:
	mov	eax, DWORD PTR _this$[ebp]
	pop	edi
	pop	esi
	pop	ebx
	add	esp, 204				; 000000ccH
	cmp	ebp, esp
	call	__RTC_CheckEsp
	mov	esp, ebp
	pop	ebp
	ret	4
??_GPluralSelectorAdapter@PluralFormat@icu_56@@UAEPAXI@Z ENDP ; icu_56::PluralFormat::PluralSelectorAdapter::`scalar deleting destructor'
; Function compile flags: /Odtp /RTCsu /ZI
_TEXT	ENDS
;	COMDAT ??_EPluralSelectorAdapter@PluralFormat@icu_56@@UAEPAXI@Z
_TEXT	SEGMENT
_this$ = -8						; size = 4
___flags$ = 8						; size = 4
??_EPluralSelectorAdapter@PluralFormat@icu_56@@UAEPAXI@Z PROC ; icu_56::PluralFormat::PluralSelectorAdapter::`vector deleting destructor', COMDAT
; _this$ = ecx
	push	ebp
	mov	ebp, esp
	sub	esp, 204				; 000000ccH
	push	ebx
	push	esi
	push	edi
	push	ecx
	lea	edi, DWORD PTR [ebp-204]
	mov	ecx, 51					; 00000033H
	mov	eax, -858993460				; ccccccccH
	rep stosd
	pop	ecx
	mov	DWORD PTR _this$[ebp], ecx
	mov	eax, DWORD PTR ___flags$[ebp]
	and	eax, 2
	je	SHORT $LN3@vector@6
	push	OFFSET ??1PluralSelectorAdapter@PluralFormat@icu_56@@UAE@XZ ; icu_56::PluralFormat::PluralSelectorAdapter::~PluralSelectorAdapter
	mov	eax, DWORD PTR _this$[ebp]
	mov	ecx, DWORD PTR [eax-4]
	push	ecx
	push	8
	mov	edx, DWORD PTR _this$[ebp]
	push	edx
	call	??_M@YGXPAXIHP6EX0@Z@Z
	mov	eax, DWORD PTR ___flags$[ebp]
	and	eax, 1
	je	SHORT $LN2@vector@6
	mov	eax, DWORD PTR _this$[ebp]
	sub	eax, 4
	mov	esi, esp
	push	eax
	call	DWORD PTR __imp_??_VUMemory@icu_56@@SAXPAX@Z
	add	esp, 4
	cmp	esi, esp
	call	__RTC_CheckEsp
$LN2@vector@6:
	mov	eax, DWORD PTR _this$[ebp]
	sub	eax, 4
	jmp	SHORT $LN4@vector@6
$LN3@vector@6:
	mov	ecx, DWORD PTR _this$[ebp]
	call	??1PluralSelectorAdapter@PluralFormat@icu_56@@UAE@XZ ; icu_56::PluralFormat::PluralSelectorAdapter::~PluralSelectorAdapter
	mov	eax, DWORD PTR ___flags$[ebp]
	and	eax, 1
	je	SHORT $LN1@vector@6
	mov	esi, esp
	mov	eax, DWORD PTR _this$[ebp]
	push	eax
	call	DWORD PTR __imp_??3UMemory@icu_56@@SAXPAX@Z
	add	esp, 4
	cmp	esi, esp
	call	__RTC_CheckEsp
$LN1@vector@6:
	mov	eax, DWORD PTR _this$[ebp]
$LN4@vector@6:
	pop	edi
	pop	esi
	pop	ebx
	add	esp, 204				; 000000ccH
	cmp	ebp, esp
	call	__RTC_CheckEsp
	mov	esp, ebp
	pop	ebp
	ret	4
??_EPluralSelectorAdapter@PluralFormat@icu_56@@UAEPAXI@Z ENDP ; icu_56::PluralFormat::PluralSelectorAdapter::`vector deleting destructor'
_TEXT	ENDS
PUBLIC	?getApostropheMode@MessageFormat@icu_56@@QBE?AW4UMessagePatternApostropheMode@@XZ ; icu_56::MessageFormat::getApostropheMode
EXTRN	__imp_?getApostropheMode@MessagePattern@icu_56@@QBE?AW4UMessagePatternApostropheMode@@XZ:PROC
; Function compile flags: /Odtp /RTCsu /ZI
;	COMDAT ?getApostropheMode@MessageFormat@icu_56@@QBE?AW4UMessagePatternApostropheMode@@XZ
_TEXT	SEGMENT
_this$ = -8						; size = 4
?getApostropheMode@MessageFormat@icu_56@@QBE?AW4UMessagePatternApostropheMode@@XZ PROC ; icu_56::MessageFormat::getApostropheMode, COMDAT
; _this$ = ecx
; File d:\mozilla\intl\icu\source\i18n\unicode\msgfmt.h
; Line 478
	push	ebp
	mov	ebp, esp
	sub	esp, 204				; 000000ccH
	push	ebx
	push	esi
	push	edi
	push	ecx
	lea	edi, DWORD PTR [ebp-204]
	mov	ecx, 51					; 00000033H
	mov	eax, -858993460				; ccccccccH
	rep stosd
	pop	ecx
	mov	DWORD PTR _this$[ebp], ecx
; Line 479
	mov	ecx, DWORD PTR _this$[ebp]
	add	ecx, 524				; 0000020cH
	mov	esi, esp
	call	DWORD PTR __imp_?getApostropheMode@MessagePattern@icu_56@@QBE?AW4UMessagePatternApostropheMode@@XZ
	cmp	esi, esp
	call	__RTC_CheckEsp
; Line 480
	pop	edi
	pop	esi
	pop	ebx
	add	esp, 204				; 000000ccH
	cmp	ebp, esp
	call	__RTC_CheckEsp
	mov	esp, ebp
	pop	ebp
	ret	0
?getApostropheMode@MessageFormat@icu_56@@QBE?AW4UMessagePatternApostropheMode@@XZ ENDP ; icu_56::MessageFormat::getApostropheMode
_TEXT	ENDS
PUBLIC	?getArgTypeList@MessageFormat@icu_56@@ABEPBW4Type@Formattable@2@AAH@Z ; icu_56::MessageFormat::getArgTypeList
; Function compile flags: /Odtp /RTCsu /ZI
;	COMDAT ?getArgTypeList@MessageFormat@icu_56@@ABEPBW4Type@Formattable@2@AAH@Z
_TEXT	SEGMENT
_this$ = -8						; size = 4
_listCount$ = 8						; size = 4
?getArgTypeList@MessageFormat@icu_56@@ABEPBW4Type@Formattable@2@AAH@Z PROC ; icu_56::MessageFormat::getArgTypeList, COMDAT
; _this$ = ecx
; Line 1051
	push	ebp
	mov	ebp, esp
	sub	esp, 204				; 000000ccH
	push	ebx
	push	esi
	push	edi
	push	ecx
	lea	edi, DWORD PTR [ebp-204]
	mov	ecx, 51					; 00000033H
	mov	eax, -858993460				; ccccccccH
	rep stosd
	pop	ecx
	mov	DWORD PTR _this$[ebp], ecx
; Line 1052
	mov	eax, DWORD PTR _listCount$[ebp]
	mov	ecx, DWORD PTR _this$[ebp]
	mov	edx, DWORD PTR [ecx+636]
	mov	DWORD PTR [eax], edx
; Line 1053
	mov	eax, DWORD PTR _this$[ebp]
	mov	eax, DWORD PTR [eax+632]
; Line 1054
	pop	edi
	pop	esi
	pop	ebx
	mov	esp, ebp
	pop	ebp
	ret	4
?getArgTypeList@MessageFormat@icu_56@@ABEPBW4Type@Formattable@2@AAH@Z ENDP ; icu_56::MessageFormat::getArgTypeList
_TEXT	ENDS
PUBLIC	??_7PluralSelectorProvider@MessageFormat@icu_56@@6B@ ; icu_56::MessageFormat::PluralSelectorProvider::`vftable'
PUBLIC	??0PluralSelectorProvider@MessageFormat@icu_56@@QAE@ABV012@@Z ; icu_56::MessageFormat::PluralSelectorProvider::PluralSelectorProvider
PUBLIC	??_R4PluralSelectorProvider@MessageFormat@icu_56@@6B@ ; icu_56::MessageFormat::PluralSelectorProvider::`RTTI Complete Object Locator'
PUBLIC	??_R0?AVPluralSelectorProvider@MessageFormat@icu_56@@@8 ; icu_56::MessageFormat::PluralSelectorProvider `RTTI Type Descriptor'
PUBLIC	??_R3PluralSelectorProvider@MessageFormat@icu_56@@8 ; icu_56::MessageFormat::PluralSelectorProvider::`RTTI Class Hierarchy Descriptor'
PUBLIC	??_R2PluralSelectorProvider@MessageFormat@icu_56@@8 ; icu_56::MessageFormat::PluralSelectorProvider::`RTTI Base Class Array'
PUBLIC	??_R1A@?0A@EA@PluralSelectorProvider@MessageFormat@icu_56@@8 ; icu_56::MessageFormat::PluralSelectorProvider::`RTTI Base Class Descriptor at (0,-1,0,64)'
PUBLIC	??_EPluralSelectorProvider@MessageFormat@icu_56@@UAEPAXI@Z ; icu_56::MessageFormat::PluralSelectorProvider::`vector deleting destructor'
EXTRN	?select@PluralSelectorProvider@MessageFormat@icu_56@@UBE?AVUnicodeString@3@PAXNAAW4UErrorCode@@@Z:PROC ; icu_56::MessageFormat::PluralSelectorProvider::select
;	COMDAT ??_R1A@?0A@EA@PluralSelectorProvider@MessageFormat@icu_56@@8
rdata$r	SEGMENT
??_R1A@?0A@EA@PluralSelectorProvider@MessageFormat@icu_56@@8 DD FLAT:??_R0?AVPluralSelectorProvider@MessageFormat@icu_56@@@8 ; icu_56::MessageFormat::PluralSelectorProvider::`RTTI Base Class Descriptor at (0,-1,0,64)'
	DD	02H
	DD	00H
	DD	0ffffffffH
	DD	00H
	DD	040H
	DD	FLAT:??_R3PluralSelectorProvider@MessageFormat@icu_56@@8
rdata$r	ENDS
;	COMDAT ??_R2PluralSelectorProvider@MessageFormat@icu_56@@8
rdata$r	SEGMENT
??_R2PluralSelectorProvider@MessageFormat@icu_56@@8 DD FLAT:??_R1A@?0A@EA@PluralSelectorProvider@MessageFormat@icu_56@@8 ; icu_56::MessageFormat::PluralSelectorProvider::`RTTI Base Class Array'
	DD	FLAT:??_R1A@?0A@EA@PluralSelector@PluralFormat@icu_56@@8
	DD	FLAT:??_R13?0A@EA@UMemory@icu_56@@8
rdata$r	ENDS
;	COMDAT ??_R3PluralSelectorProvider@MessageFormat@icu_56@@8
rdata$r	SEGMENT
??_R3PluralSelectorProvider@MessageFormat@icu_56@@8 DD 00H ; icu_56::MessageFormat::PluralSelectorProvider::`RTTI Class Hierarchy Descriptor'
	DD	00H
	DD	03H
	DD	FLAT:??_R2PluralSelectorProvider@MessageFormat@icu_56@@8
rdata$r	ENDS
;	COMDAT ??_R0?AVPluralSelectorProvider@MessageFormat@icu_56@@@8
_DATA	SEGMENT
??_R0?AVPluralSelectorProvider@MessageFormat@icu_56@@@8 DD FLAT:??_7type_info@@6B@ ; icu_56::MessageFormat::PluralSelectorProvider `RTTI Type Descriptor'
	DD	00H
	DB	'.?AVPluralSelectorProvider@MessageFormat@icu_56@@', 00H
_DATA	ENDS
;	COMDAT ??_R4PluralSelectorProvider@MessageFormat@icu_56@@6B@
rdata$r	SEGMENT
??_R4PluralSelectorProvider@MessageFormat@icu_56@@6B@ DD 00H ; icu_56::MessageFormat::PluralSelectorProvider::`RTTI Complete Object Locator'
	DD	00H
	DD	00H
	DD	FLAT:??_R0?AVPluralSelectorProvider@MessageFormat@icu_56@@@8
	DD	FLAT:??_R3PluralSelectorProvider@MessageFormat@icu_56@@8
rdata$r	ENDS
;	COMDAT ??_7PluralSelectorProvider@MessageFormat@icu_56@@6B@
CONST	SEGMENT
??_7PluralSelectorProvider@MessageFormat@icu_56@@6B@ DD FLAT:??_R4PluralSelectorProvider@MessageFormat@icu_56@@6B@ ; icu_56::MessageFormat::PluralSelectorProvider::`vftable'
	DD	FLAT:??_EPluralSelectorProvider@MessageFormat@icu_56@@UAEPAXI@Z
	DD	FLAT:?select@PluralSelectorProvider@MessageFormat@icu_56@@UBE?AVUnicodeString@3@PAXNAAW4UErrorCode@@@Z
; Function compile flags: /Odtp /RTCsu /ZI
CONST	ENDS
;	COMDAT ??0PluralSelectorProvider@MessageFormat@icu_56@@QAE@ABV012@@Z
_TEXT	SEGMENT
_this$ = -8						; size = 4
___that$ = 8						; size = 4
??0PluralSelectorProvider@MessageFormat@icu_56@@QAE@ABV012@@Z PROC ; icu_56::MessageFormat::PluralSelectorProvider::PluralSelectorProvider, COMDAT
; _this$ = ecx
	push	ebp
	mov	ebp, esp
	sub	esp, 204				; 000000ccH
	push	ebx
	push	esi
	push	edi
	push	ecx
	lea	edi, DWORD PTR [ebp-204]
	mov	ecx, 51					; 00000033H
	mov	eax, -858993460				; ccccccccH
	rep stosd
	pop	ecx
	mov	DWORD PTR _this$[ebp], ecx
	mov	eax, DWORD PTR ___that$[ebp]
	push	eax
	mov	ecx, DWORD PTR _this$[ebp]
	call	??0PluralSelector@PluralFormat@icu_56@@QAE@ABV012@@Z
	mov	eax, DWORD PTR _this$[ebp]
	mov	DWORD PTR [eax], OFFSET ??_7PluralSelectorProvider@MessageFormat@icu_56@@6B@
	mov	eax, DWORD PTR _this$[ebp]
	mov	ecx, DWORD PTR ___that$[ebp]
	mov	edx, DWORD PTR [ecx+4]
	mov	DWORD PTR [eax+4], edx
	mov	eax, DWORD PTR _this$[ebp]
	mov	ecx, DWORD PTR ___that$[ebp]
	mov	edx, DWORD PTR [ecx+8]
	mov	DWORD PTR [eax+8], edx
	mov	eax, DWORD PTR _this$[ebp]
	mov	ecx, DWORD PTR ___that$[ebp]
	mov	edx, DWORD PTR [ecx+12]
	mov	DWORD PTR [eax+12], edx
	mov	eax, DWORD PTR _this$[ebp]
	pop	edi
	pop	esi
	pop	ebx
	add	esp, 204				; 000000ccH
	cmp	ebp, esp
	call	__RTC_CheckEsp
	mov	esp, ebp
	pop	ebp
	ret	4
??0PluralSelectorProvider@MessageFormat@icu_56@@QAE@ABV012@@Z ENDP ; icu_56::MessageFormat::PluralSelectorProvider::PluralSelectorProvider
_TEXT	ENDS
PUBLIC	??_GPluralSelectorProvider@MessageFormat@icu_56@@UAEPAXI@Z ; icu_56::MessageFormat::PluralSelectorProvider::`scalar deleting destructor'
EXTRN	??1PluralSelectorProvider@MessageFormat@icu_56@@UAE@XZ:PROC ; icu_56::MessageFormat::PluralSelectorProvider::~PluralSelectorProvider
; Function compile flags: /Odtp /RTCsu /ZI
;	COMDAT ??_GPluralSelectorProvider@MessageFormat@icu_56@@UAEPAXI@Z
_TEXT	SEGMENT
_this$ = -8						; size = 4
___flags$ = 8						; size = 4
??_GPluralSelectorProvider@MessageFormat@icu_56@@UAEPAXI@Z PROC ; icu_56::MessageFormat::PluralSelectorProvider::`scalar deleting destructor', COMDAT
; _this$ = ecx
	push	ebp
	mov	ebp, esp
	sub	esp, 204				; 000000ccH
	push	ebx
	push	esi
	push	edi
	push	ecx
	lea	edi, DWORD PTR [ebp-204]
	mov	ecx, 51					; 00000033H
	mov	eax, -858993460				; ccccccccH
	rep stosd
	pop	ecx
	mov	DWORD PTR _this$[ebp], ecx
	mov	ecx, DWORD PTR _this$[ebp]
	call	??1PluralSelectorProvider@MessageFormat@icu_56@@UAE@XZ ; icu_56::MessageFormat::PluralSelectorProvider::~PluralSelectorProvider
	mov	eax, DWORD PTR ___flags$[ebp]
	and	eax, 1
	je	SHORT $LN1@scalar@7
	mov	esi, esp
	mov	eax, DWORD PTR _this$[ebp]
	push	eax
	call	DWORD PTR __imp_??3UMemory@icu_56@@SAXPAX@Z
	add	esp, 4
	cmp	esi, esp
	call	__RTC_CheckEsp
$LN1@scalar@7:
	mov	eax, DWORD PTR _this$[ebp]
	pop	edi
	pop	esi
	pop	ebx
	add	esp, 204				; 000000ccH
	cmp	ebp, esp
	call	__RTC_CheckEsp
	mov	esp, ebp
	pop	ebp
	ret	4
??_GPluralSelectorProvider@MessageFormat@icu_56@@UAEPAXI@Z ENDP ; icu_56::MessageFormat::PluralSelectorProvider::`scalar deleting destructor'
; Function compile flags: /Odtp /RTCsu /ZI
_TEXT	ENDS
;	COMDAT ??_EPluralSelectorProvider@MessageFormat@icu_56@@UAEPAXI@Z
_TEXT	SEGMENT
_this$ = -8						; size = 4
___flags$ = 8						; size = 4
??_EPluralSelectorProvider@MessageFormat@icu_56@@UAEPAXI@Z PROC ; icu_56::MessageFormat::PluralSelectorProvider::`vector deleting destructor', COMDAT
; _this$ = ecx
	push	ebp
	mov	ebp, esp
	sub	esp, 204				; 000000ccH
	push	ebx
	push	esi
	push	edi
	push	ecx
	lea	edi, DWORD PTR [ebp-204]
	mov	ecx, 51					; 00000033H
	mov	eax, -858993460				; ccccccccH
	rep stosd
	pop	ecx
	mov	DWORD PTR _this$[ebp], ecx
	mov	eax, DWORD PTR ___flags$[ebp]
	and	eax, 2
	je	SHORT $LN3@vector@7
	push	OFFSET ??1PluralSelectorProvider@MessageFormat@icu_56@@UAE@XZ ; icu_56::MessageFormat::PluralSelectorProvider::~PluralSelectorProvider
	mov	eax, DWORD PTR _this$[ebp]
	mov	ecx, DWORD PTR [eax-4]
	push	ecx
	push	16					; 00000010H
	mov	edx, DWORD PTR _this$[ebp]
	push	edx
	call	??_M@YGXPAXIHP6EX0@Z@Z
	mov	eax, DWORD PTR ___flags$[ebp]
	and	eax, 1
	je	SHORT $LN2@vector@7
	mov	eax, DWORD PTR _this$[ebp]
	sub	eax, 4
	mov	esi, esp
	push	eax
	call	DWORD PTR __imp_??_VUMemory@icu_56@@SAXPAX@Z
	add	esp, 4
	cmp	esi, esp
	call	__RTC_CheckEsp
$LN2@vector@7:
	mov	eax, DWORD PTR _this$[ebp]
	sub	eax, 4
	jmp	SHORT $LN4@vector@7
$LN3@vector@7:
	mov	ecx, DWORD PTR _this$[ebp]
	call	??1PluralSelectorProvider@MessageFormat@icu_56@@UAE@XZ ; icu_56::MessageFormat::PluralSelectorProvider::~PluralSelectorProvider
	mov	eax, DWORD PTR ___flags$[ebp]
	and	eax, 1
	je	SHORT $LN1@vector@7
	mov	esi, esp
	mov	eax, DWORD PTR _this$[ebp]
	push	eax
	call	DWORD PTR __imp_??3UMemory@icu_56@@SAXPAX@Z
	add	esp, 4
	cmp	esi, esp
	call	__RTC_CheckEsp
$LN1@vector@7:
	mov	eax, DWORD PTR _this$[ebp]
$LN4@vector@7:
	pop	edi
	pop	esi
	pop	ebx
	add	esp, 204				; 000000ccH
	cmp	ebp, esp
	call	__RTC_CheckEsp
	mov	esp, ebp
	pop	ebp
	ret	4
??_EPluralSelectorProvider@MessageFormat@icu_56@@UAEPAXI@Z ENDP ; icu_56::MessageFormat::PluralSelectorProvider::`vector deleting destructor'
_TEXT	ENDS
PUBLIC	??_7DummyFormat@MessageFormat@icu_56@@6B@	; icu_56::MessageFormat::DummyFormat::`vftable'
PUBLIC	??0DummyFormat@MessageFormat@icu_56@@QAE@XZ	; icu_56::MessageFormat::DummyFormat::DummyFormat
PUBLIC	??_R4DummyFormat@MessageFormat@icu_56@@6B@	; icu_56::MessageFormat::DummyFormat::`RTTI Complete Object Locator'
PUBLIC	??_R0?AVDummyFormat@MessageFormat@icu_56@@@8	; icu_56::MessageFormat::DummyFormat `RTTI Type Descriptor'
PUBLIC	??_R3DummyFormat@MessageFormat@icu_56@@8	; icu_56::MessageFormat::DummyFormat::`RTTI Class Hierarchy Descriptor'
PUBLIC	??_R2DummyFormat@MessageFormat@icu_56@@8	; icu_56::MessageFormat::DummyFormat::`RTTI Base Class Array'
PUBLIC	??_R1A@?0A@EA@DummyFormat@MessageFormat@icu_56@@8 ; icu_56::MessageFormat::DummyFormat::`RTTI Base Class Descriptor at (0,-1,0,64)'
PUBLIC	??_R1A@?0A@EA@Format@icu_56@@8			; icu_56::Format::`RTTI Base Class Descriptor at (0,-1,0,64)'
PUBLIC	??_R0?AVFormat@icu_56@@@8			; icu_56::Format `RTTI Type Descriptor'
PUBLIC	??_R3Format@icu_56@@8				; icu_56::Format::`RTTI Class Hierarchy Descriptor'
PUBLIC	??_R2Format@icu_56@@8				; icu_56::Format::`RTTI Base Class Array'
PUBLIC	??_EDummyFormat@MessageFormat@icu_56@@UAEPAXI@Z	; icu_56::MessageFormat::DummyFormat::`vector deleting destructor'
EXTRN	??0Format@icu_56@@IAE@XZ:PROC			; icu_56::Format::Format
EXTRN	??8DummyFormat@MessageFormat@icu_56@@UBECABVFormat@2@@Z:PROC ; icu_56::MessageFormat::DummyFormat::operator==
EXTRN	?clone@DummyFormat@MessageFormat@icu_56@@UBEPAVFormat@3@XZ:PROC ; icu_56::MessageFormat::DummyFormat::clone
EXTRN	?format@DummyFormat@MessageFormat@icu_56@@UBEAAVUnicodeString@3@ABVFormattable@3@AAV43@PAVFieldPositionIterator@3@AAW4UErrorCode@@@Z:PROC ; icu_56::MessageFormat::DummyFormat::format
EXTRN	?format@DummyFormat@MessageFormat@icu_56@@UBEAAVUnicodeString@3@ABVFormattable@3@AAV43@AAVFieldPosition@3@AAW4UErrorCode@@@Z:PROC ; icu_56::MessageFormat::DummyFormat::format
EXTRN	?parseObject@DummyFormat@MessageFormat@icu_56@@UBEXABVUnicodeString@3@AAVFormattable@3@AAVParsePosition@3@@Z:PROC ; icu_56::MessageFormat::DummyFormat::parseObject
EXTRN	?format@DummyFormat@MessageFormat@icu_56@@UBEAAVUnicodeString@3@ABVFormattable@3@AAV43@AAW4UErrorCode@@@Z:PROC ; icu_56::MessageFormat::DummyFormat::format
;	COMDAT ??_R2Format@icu_56@@8
rdata$r	SEGMENT
??_R2Format@icu_56@@8 DD FLAT:??_R1A@?0A@EA@Format@icu_56@@8 ; icu_56::Format::`RTTI Base Class Array'
	DD	FLAT:??_R1A@?0A@EA@UObject@icu_56@@8
	DD	FLAT:??_R13?0A@EA@UMemory@icu_56@@8
rdata$r	ENDS
;	COMDAT ??_R3Format@icu_56@@8
rdata$r	SEGMENT
??_R3Format@icu_56@@8 DD 00H				; icu_56::Format::`RTTI Class Hierarchy Descriptor'
	DD	00H
	DD	03H
	DD	FLAT:??_R2Format@icu_56@@8
rdata$r	ENDS
;	COMDAT ??_R0?AVFormat@icu_56@@@8
_DATA	SEGMENT
??_R0?AVFormat@icu_56@@@8 DD FLAT:??_7type_info@@6B@	; icu_56::Format `RTTI Type Descriptor'
	DD	00H
	DB	'.?AVFormat@icu_56@@', 00H
_DATA	ENDS
;	COMDAT ??_R1A@?0A@EA@Format@icu_56@@8
rdata$r	SEGMENT
??_R1A@?0A@EA@Format@icu_56@@8 DD FLAT:??_R0?AVFormat@icu_56@@@8 ; icu_56::Format::`RTTI Base Class Descriptor at (0,-1,0,64)'
	DD	02H
	DD	00H
	DD	0ffffffffH
	DD	00H
	DD	040H
	DD	FLAT:??_R3Format@icu_56@@8
rdata$r	ENDS
;	COMDAT ??_R1A@?0A@EA@DummyFormat@MessageFormat@icu_56@@8
rdata$r	SEGMENT
??_R1A@?0A@EA@DummyFormat@MessageFormat@icu_56@@8 DD FLAT:??_R0?AVDummyFormat@MessageFormat@icu_56@@@8 ; icu_56::MessageFormat::DummyFormat::`RTTI Base Class Descriptor at (0,-1,0,64)'
	DD	03H
	DD	00H
	DD	0ffffffffH
	DD	00H
	DD	040H
	DD	FLAT:??_R3DummyFormat@MessageFormat@icu_56@@8
rdata$r	ENDS
;	COMDAT ??_R2DummyFormat@MessageFormat@icu_56@@8
rdata$r	SEGMENT
??_R2DummyFormat@MessageFormat@icu_56@@8 DD FLAT:??_R1A@?0A@EA@DummyFormat@MessageFormat@icu_56@@8 ; icu_56::MessageFormat::DummyFormat::`RTTI Base Class Array'
	DD	FLAT:??_R1A@?0A@EA@Format@icu_56@@8
	DD	FLAT:??_R1A@?0A@EA@UObject@icu_56@@8
	DD	FLAT:??_R13?0A@EA@UMemory@icu_56@@8
rdata$r	ENDS
;	COMDAT ??_R3DummyFormat@MessageFormat@icu_56@@8
rdata$r	SEGMENT
??_R3DummyFormat@MessageFormat@icu_56@@8 DD 00H		; icu_56::MessageFormat::DummyFormat::`RTTI Class Hierarchy Descriptor'
	DD	00H
	DD	04H
	DD	FLAT:??_R2DummyFormat@MessageFormat@icu_56@@8
rdata$r	ENDS
;	COMDAT ??_R0?AVDummyFormat@MessageFormat@icu_56@@@8
_DATA	SEGMENT
??_R0?AVDummyFormat@MessageFormat@icu_56@@@8 DD FLAT:??_7type_info@@6B@ ; icu_56::MessageFormat::DummyFormat `RTTI Type Descriptor'
	DD	00H
	DB	'.?AVDummyFormat@MessageFormat@icu_56@@', 00H
_DATA	ENDS
;	COMDAT ??_R4DummyFormat@MessageFormat@icu_56@@6B@
rdata$r	SEGMENT
??_R4DummyFormat@MessageFormat@icu_56@@6B@ DD 00H	; icu_56::MessageFormat::DummyFormat::`RTTI Complete Object Locator'
	DD	00H
	DD	00H
	DD	FLAT:??_R0?AVDummyFormat@MessageFormat@icu_56@@@8
	DD	FLAT:??_R3DummyFormat@MessageFormat@icu_56@@8
rdata$r	ENDS
;	COMDAT ??_7DummyFormat@MessageFormat@icu_56@@6B@
CONST	SEGMENT
??_7DummyFormat@MessageFormat@icu_56@@6B@ DD FLAT:??_R4DummyFormat@MessageFormat@icu_56@@6B@ ; icu_56::MessageFormat::DummyFormat::`vftable'
	DD	FLAT:??_EDummyFormat@MessageFormat@icu_56@@UAEPAXI@Z
	DD	FLAT:?getDynamicClassID@UObject@icu_56@@UBEPAXXZ
	DD	FLAT:??8DummyFormat@MessageFormat@icu_56@@UBECABVFormat@2@@Z
	DD	FLAT:?clone@DummyFormat@MessageFormat@icu_56@@UBEPAVFormat@3@XZ
	DD	FLAT:?format@DummyFormat@MessageFormat@icu_56@@UBEAAVUnicodeString@3@ABVFormattable@3@AAV43@PAVFieldPositionIterator@3@AAW4UErrorCode@@@Z
	DD	FLAT:?format@DummyFormat@MessageFormat@icu_56@@UBEAAVUnicodeString@3@ABVFormattable@3@AAV43@AAVFieldPosition@3@AAW4UErrorCode@@@Z
	DD	FLAT:?parseObject@DummyFormat@MessageFormat@icu_56@@UBEXABVUnicodeString@3@AAVFormattable@3@AAVParsePosition@3@@Z
	DD	FLAT:?format@DummyFormat@MessageFormat@icu_56@@UBEAAVUnicodeString@3@ABVFormattable@3@AAV43@AAW4UErrorCode@@@Z
; Function compile flags: /Odtp /RTCsu /ZI
CONST	ENDS
;	COMDAT ??0DummyFormat@MessageFormat@icu_56@@QAE@XZ
_TEXT	SEGMENT
_this$ = -8						; size = 4
??0DummyFormat@MessageFormat@icu_56@@QAE@XZ PROC	; icu_56::MessageFormat::DummyFormat::DummyFormat, COMDAT
; _this$ = ecx
	push	ebp
	mov	ebp, esp
	sub	esp, 204				; 000000ccH
	push	ebx
	push	esi
	push	edi
	push	ecx
	lea	edi, DWORD PTR [ebp-204]
	mov	ecx, 51					; 00000033H
	mov	eax, -858993460				; ccccccccH
	rep stosd
	pop	ecx
	mov	DWORD PTR _this$[ebp], ecx
	mov	ecx, DWORD PTR _this$[ebp]
	call	??0Format@icu_56@@IAE@XZ		; icu_56::Format::Format
	mov	eax, DWORD PTR _this$[ebp]
	mov	DWORD PTR [eax], OFFSET ??_7DummyFormat@MessageFormat@icu_56@@6B@
	mov	eax, DWORD PTR _this$[ebp]
	pop	edi
	pop	esi
	pop	ebx
	add	esp, 204				; 000000ccH
	cmp	ebp, esp
	call	__RTC_CheckEsp
	mov	esp, ebp
	pop	ebp
	ret	0
??0DummyFormat@MessageFormat@icu_56@@QAE@XZ ENDP	; icu_56::MessageFormat::DummyFormat::DummyFormat
_TEXT	ENDS
PUBLIC	??1DummyFormat@MessageFormat@icu_56@@UAE@XZ	; icu_56::MessageFormat::DummyFormat::~DummyFormat
EXTRN	??1Format@icu_56@@UAE@XZ:PROC			; icu_56::Format::~Format
; Function compile flags: /Odtp /RTCsu /ZI
;	COMDAT ??1DummyFormat@MessageFormat@icu_56@@UAE@XZ
_TEXT	SEGMENT
_this$ = -8						; size = 4
??1DummyFormat@MessageFormat@icu_56@@UAE@XZ PROC	; icu_56::MessageFormat::DummyFormat::~DummyFormat, COMDAT
; _this$ = ecx
	push	ebp
	mov	ebp, esp
	sub	esp, 204				; 000000ccH
	push	ebx
	push	esi
	push	edi
	push	ecx
	lea	edi, DWORD PTR [ebp-204]
	mov	ecx, 51					; 00000033H
	mov	eax, -858993460				; ccccccccH
	rep stosd
	pop	ecx
	mov	DWORD PTR _this$[ebp], ecx
	mov	ecx, DWORD PTR _this$[ebp]
	call	??1Format@icu_56@@UAE@XZ		; icu_56::Format::~Format
	pop	edi
	pop	esi
	pop	ebx
	add	esp, 204				; 000000ccH
	cmp	ebp, esp
	call	__RTC_CheckEsp
	mov	esp, ebp
	pop	ebp
	ret	0
??1DummyFormat@MessageFormat@icu_56@@UAE@XZ ENDP	; icu_56::MessageFormat::DummyFormat::~DummyFormat
_TEXT	ENDS
PUBLIC	??0DummyFormat@MessageFormat@icu_56@@QAE@ABV012@@Z ; icu_56::MessageFormat::DummyFormat::DummyFormat
EXTRN	??0Format@icu_56@@IAE@ABV01@@Z:PROC		; icu_56::Format::Format
; Function compile flags: /Odtp /RTCsu /ZI
;	COMDAT ??0DummyFormat@MessageFormat@icu_56@@QAE@ABV012@@Z
_TEXT	SEGMENT
_this$ = -8						; size = 4
___that$ = 8						; size = 4
??0DummyFormat@MessageFormat@icu_56@@QAE@ABV012@@Z PROC	; icu_56::MessageFormat::DummyFormat::DummyFormat, COMDAT
; _this$ = ecx
	push	ebp
	mov	ebp, esp
	sub	esp, 204				; 000000ccH
	push	ebx
	push	esi
	push	edi
	push	ecx
	lea	edi, DWORD PTR [ebp-204]
	mov	ecx, 51					; 00000033H
	mov	eax, -858993460				; ccccccccH
	rep stosd
	pop	ecx
	mov	DWORD PTR _this$[ebp], ecx
	mov	eax, DWORD PTR ___that$[ebp]
	push	eax
	mov	ecx, DWORD PTR _this$[ebp]
	call	??0Format@icu_56@@IAE@ABV01@@Z		; icu_56::Format::Format
	mov	eax, DWORD PTR _this$[ebp]
	mov	DWORD PTR [eax], OFFSET ??_7DummyFormat@MessageFormat@icu_56@@6B@
	mov	eax, DWORD PTR _this$[ebp]
	pop	edi
	pop	esi
	pop	ebx
	add	esp, 204				; 000000ccH
	cmp	ebp, esp
	call	__RTC_CheckEsp
	mov	esp, ebp
	pop	ebp
	ret	4
??0DummyFormat@MessageFormat@icu_56@@QAE@ABV012@@Z ENDP	; icu_56::MessageFormat::DummyFormat::DummyFormat
_TEXT	ENDS
PUBLIC	??4DummyFormat@MessageFormat@icu_56@@QAEAAV012@ABV012@@Z ; icu_56::MessageFormat::DummyFormat::operator=
EXTRN	??4Format@icu_56@@IAEAAV01@ABV01@@Z:PROC	; icu_56::Format::operator=
; Function compile flags: /Odtp /RTCsu /ZI
;	COMDAT ??4DummyFormat@MessageFormat@icu_56@@QAEAAV012@ABV012@@Z
_TEXT	SEGMENT
_this$ = -8						; size = 4
___that$ = 8						; size = 4
??4DummyFormat@MessageFormat@icu_56@@QAEAAV012@ABV012@@Z PROC ; icu_56::MessageFormat::DummyFormat::operator=, COMDAT
; _this$ = ecx
	push	ebp
	mov	ebp, esp
	sub	esp, 204				; 000000ccH
	push	ebx
	push	esi
	push	edi
	push	ecx
	lea	edi, DWORD PTR [ebp-204]
	mov	ecx, 51					; 00000033H
	mov	eax, -858993460				; ccccccccH
	rep stosd
	pop	ecx
	mov	DWORD PTR _this$[ebp], ecx
	mov	eax, DWORD PTR ___that$[ebp]
	push	eax
	mov	ecx, DWORD PTR _this$[ebp]
	call	??4Format@icu_56@@IAEAAV01@ABV01@@Z	; icu_56::Format::operator=
	mov	eax, DWORD PTR _this$[ebp]
	pop	edi
	pop	esi
	pop	ebx
	add	esp, 204				; 000000ccH
	cmp	ebp, esp
	call	__RTC_CheckEsp
	mov	esp, ebp
	pop	ebp
	ret	4
??4DummyFormat@MessageFormat@icu_56@@QAEAAV012@ABV012@@Z ENDP ; icu_56::MessageFormat::DummyFormat::operator=
_TEXT	ENDS
PUBLIC	??_GDummyFormat@MessageFormat@icu_56@@UAEPAXI@Z	; icu_56::MessageFormat::DummyFormat::`scalar deleting destructor'
; Function compile flags: /Odtp /RTCsu /ZI
;	COMDAT ??_GDummyFormat@MessageFormat@icu_56@@UAEPAXI@Z
_TEXT	SEGMENT
_this$ = -8						; size = 4
___flags$ = 8						; size = 4
??_GDummyFormat@MessageFormat@icu_56@@UAEPAXI@Z PROC	; icu_56::MessageFormat::DummyFormat::`scalar deleting destructor', COMDAT
; _this$ = ecx
	push	ebp
	mov	ebp, esp
	sub	esp, 204				; 000000ccH
	push	ebx
	push	esi
	push	edi
	push	ecx
	lea	edi, DWORD PTR [ebp-204]
	mov	ecx, 51					; 00000033H
	mov	eax, -858993460				; ccccccccH
	rep stosd
	pop	ecx
	mov	DWORD PTR _this$[ebp], ecx
	mov	ecx, DWORD PTR _this$[ebp]
	call	??1DummyFormat@MessageFormat@icu_56@@UAE@XZ
	mov	eax, DWORD PTR ___flags$[ebp]
	and	eax, 1
	je	SHORT $LN1@scalar@8
	mov	esi, esp
	mov	eax, DWORD PTR _this$[ebp]
	push	eax
	call	DWORD PTR __imp_??3UMemory@icu_56@@SAXPAX@Z
	add	esp, 4
	cmp	esi, esp
	call	__RTC_CheckEsp
$LN1@scalar@8:
	mov	eax, DWORD PTR _this$[ebp]
	pop	edi
	pop	esi
	pop	ebx
	add	esp, 204				; 000000ccH
	cmp	ebp, esp
	call	__RTC_CheckEsp
	mov	esp, ebp
	pop	ebp
	ret	4
??_GDummyFormat@MessageFormat@icu_56@@UAEPAXI@Z ENDP	; icu_56::MessageFormat::DummyFormat::`scalar deleting destructor'
; Function compile flags: /Odtp /RTCsu /ZI
_TEXT	ENDS
;	COMDAT ??_EDummyFormat@MessageFormat@icu_56@@UAEPAXI@Z
_TEXT	SEGMENT
_this$ = -8						; size = 4
___flags$ = 8						; size = 4
??_EDummyFormat@MessageFormat@icu_56@@UAEPAXI@Z PROC	; icu_56::MessageFormat::DummyFormat::`vector deleting destructor', COMDAT
; _this$ = ecx
	push	ebp
	mov	ebp, esp
	sub	esp, 204				; 000000ccH
	push	ebx
	push	esi
	push	edi
	push	ecx
	lea	edi, DWORD PTR [ebp-204]
	mov	ecx, 51					; 00000033H
	mov	eax, -858993460				; ccccccccH
	rep stosd
	pop	ecx
	mov	DWORD PTR _this$[ebp], ecx
	mov	eax, DWORD PTR ___flags$[ebp]
	and	eax, 2
	je	SHORT $LN3@vector@8
	push	OFFSET ??1DummyFormat@MessageFormat@icu_56@@UAE@XZ
	mov	eax, DWORD PTR _this$[ebp]
	mov	ecx, DWORD PTR [eax-4]
	push	ecx
	push	320					; 00000140H
	mov	edx, DWORD PTR _this$[ebp]
	push	edx
	call	??_M@YGXPAXIHP6EX0@Z@Z
	mov	eax, DWORD PTR ___flags$[ebp]
	and	eax, 1
	je	SHORT $LN2@vector@8
	mov	eax, DWORD PTR _this$[ebp]
	sub	eax, 4
	mov	esi, esp
	push	eax
	call	DWORD PTR __imp_??_VUMemory@icu_56@@SAXPAX@Z
	add	esp, 4
	cmp	esi, esp
	call	__RTC_CheckEsp
$LN2@vector@8:
	mov	eax, DWORD PTR _this$[ebp]
	sub	eax, 4
	jmp	SHORT $LN4@vector@8
$LN3@vector@8:
	mov	ecx, DWORD PTR _this$[ebp]
	call	??1DummyFormat@MessageFormat@icu_56@@UAE@XZ
	mov	eax, DWORD PTR ___flags$[ebp]
	and	eax, 1
	je	SHORT $LN1@vector@8
	mov	esi, esp
	mov	eax, DWORD PTR _this$[ebp]
	push	eax
	call	DWORD PTR __imp_??3UMemory@icu_56@@SAXPAX@Z
	add	esp, 4
	cmp	esi, esp
	call	__RTC_CheckEsp
$LN1@vector@8:
	mov	eax, DWORD PTR _this$[ebp]
$LN4@vector@8:
	pop	edi
	pop	esi
	pop	ebx
	add	esp, 204				; 000000ccH
	cmp	ebp, esp
	call	__RTC_CheckEsp
	mov	esp, ebp
	pop	ebp
	ret	4
??_EDummyFormat@MessageFormat@icu_56@@UAEPAXI@Z ENDP	; icu_56::MessageFormat::DummyFormat::`vector deleting destructor'
_TEXT	ENDS
PUBLIC	?getStaticClassID@Win32DateFormat@icu_56@@SAPAXXZ ; icu_56::Win32DateFormat::getStaticClassID
; Function compile flags: /Odtp /RTCsu /ZI
;	COMDAT ?getStaticClassID@Win32DateFormat@icu_56@@SAPAXXZ
_TEXT	SEGMENT
?getStaticClassID@Win32DateFormat@icu_56@@SAPAXXZ PROC	; icu_56::Win32DateFormat::getStaticClassID, COMDAT
; File d:\mozilla\intl\icu\source\i18n\windtfmt.cpp
; Line 46
	push	ebp
	mov	ebp, esp
	sub	esp, 192				; 000000c0H
	push	ebx
	push	esi
	push	edi
	lea	edi, DWORD PTR [ebp-192]
	mov	ecx, 48					; 00000030H
	mov	eax, -858993460				; ccccccccH
	rep stosd
	mov	eax, OFFSET ?classID@?1??getStaticClassID@Win32DateFormat@icu_56@@SAPAXXZ@4DA
	pop	edi
	pop	esi
	pop	ebx
	mov	esp, ebp
	pop	ebp
	ret	0
?getStaticClassID@Win32DateFormat@icu_56@@SAPAXXZ ENDP	; icu_56::Win32DateFormat::getStaticClassID
_TEXT	ENDS
PUBLIC	?getDynamicClassID@Win32DateFormat@icu_56@@UBEPAXXZ ; icu_56::Win32DateFormat::getDynamicClassID
; Function compile flags: /Odtp /RTCsu /ZI
;	COMDAT ?getDynamicClassID@Win32DateFormat@icu_56@@UBEPAXXZ
_TEXT	SEGMENT
_this$ = -8						; size = 4
?getDynamicClassID@Win32DateFormat@icu_56@@UBEPAXXZ PROC ; icu_56::Win32DateFormat::getDynamicClassID, COMDAT
; _this$ = ecx
; Line 46
	push	ebp
	mov	ebp, esp
	sub	esp, 204				; 000000ccH
	push	ebx
	push	esi
	push	edi
	push	ecx
	lea	edi, DWORD PTR [ebp-204]
	mov	ecx, 51					; 00000033H
	mov	eax, -858993460				; ccccccccH
	rep stosd
	pop	ecx
	mov	DWORD PTR _this$[ebp], ecx
	call	?getStaticClassID@Win32DateFormat@icu_56@@SAPAXXZ ; icu_56::Win32DateFormat::getStaticClassID
	pop	edi
	pop	esi
	pop	ebx
	add	esp, 204				; 000000ccH
	cmp	ebp, esp
	call	__RTC_CheckEsp
	mov	esp, ebp
	pop	ebp
	ret	0
?getDynamicClassID@Win32DateFormat@icu_56@@UBEPAXXZ ENDP ; icu_56::Win32DateFormat::getDynamicClassID
_TEXT	ENDS
PUBLIC	??_SUnicodeString@icu_56@@6B@			; icu_56::UnicodeString::`local vftable'
PUBLIC	??_C@_09KJPEOOPA@gregorian?$AA@			; `string'
PUBLIC	??_C@_0BB@OLFHBHBI@DateTimePatterns?$AA@	; `string'
PUBLIC	??_C@_08LCCMFNHG@calendar?$AA@			; `string'
PUBLIC	?getTimeDateFormat@Win32DateFormat@icu_56@@ABEPAVUnicodeString@2@PBVCalendar@2@PBVLocale@2@AAW4UErrorCode@@@Z ; icu_56::Win32DateFormat::getTimeDateFormat
PUBLIC	??_R4UnicodeString@icu_56@@6B@			; icu_56::UnicodeString::`RTTI Complete Object Locator'
PUBLIC	??_R0?AVUnicodeString@icu_56@@@8		; icu_56::UnicodeString `RTTI Type Descriptor'
PUBLIC	??_R3UnicodeString@icu_56@@8			; icu_56::UnicodeString::`RTTI Class Hierarchy Descriptor'
PUBLIC	??_R2UnicodeString@icu_56@@8			; icu_56::UnicodeString::`RTTI Base Class Array'
PUBLIC	??_R1A@?0A@EA@UnicodeString@icu_56@@8		; icu_56::UnicodeString::`RTTI Base Class Descriptor at (0,-1,0,64)'
PUBLIC	??_R1A@?0A@EA@Replaceable@icu_56@@8		; icu_56::Replaceable::`RTTI Base Class Descriptor at (0,-1,0,64)'
PUBLIC	??_R0?AVReplaceable@icu_56@@@8			; icu_56::Replaceable `RTTI Type Descriptor'
PUBLIC	??_R3Replaceable@icu_56@@8			; icu_56::Replaceable::`RTTI Class Hierarchy Descriptor'
PUBLIC	??_R2Replaceable@icu_56@@8			; icu_56::Replaceable::`RTTI Base Class Array'
EXTRN	_ures_close_56:PROC
EXTRN	__imp_??0UnicodeString@icu_56@@QAE@CPB_WH@Z:PROC
EXTRN	_ures_getStringByIndex_56:PROC
EXTRN	_ures_getSize_56:PROC
EXTRN	__imp_??0UnicodeString@icu_56@@QAE@PB_WH@Z:PROC
EXTRN	__imp_??2UMemory@icu_56@@SAPAXI@Z:PROC
EXTRN	_ures_getByKeyWithFallback_56:PROC
EXTRN	_ures_getByKey_56:PROC
EXTRN	_ures_open_56:PROC
EXTRN	__imp_?getBaseName@Locale@icu_56@@QBEPBDXZ:PROC
EXTRN	@_RTC_CheckStackVars@8:PROC
EXTRN	??_EUnicodeString@icu_56@@UAEPAXI@Z:PROC	; icu_56::UnicodeString::`vector deleting destructor'
EXTRN	?getDynamicClassID@UnicodeString@icu_56@@UBEPAXXZ:PROC ; icu_56::UnicodeString::getDynamicClassID
EXTRN	?extractBetween@UnicodeString@icu_56@@UBEXHHAAV12@@Z:PROC ; icu_56::UnicodeString::extractBetween
EXTRN	?handleReplaceBetween@UnicodeString@icu_56@@UAEXHHABV12@@Z:PROC ; icu_56::UnicodeString::handleReplaceBetween
EXTRN	?copy@UnicodeString@icu_56@@UAEXHHH@Z:PROC	; icu_56::UnicodeString::copy
EXTRN	?hasMetaData@UnicodeString@icu_56@@UBECXZ:PROC	; icu_56::UnicodeString::hasMetaData
EXTRN	?clone@UnicodeString@icu_56@@UBEPAVReplaceable@2@XZ:PROC ; icu_56::UnicodeString::clone
EXTRN	?getLength@UnicodeString@icu_56@@MBEHXZ:PROC	; icu_56::UnicodeString::getLength
EXTRN	?getCharAt@UnicodeString@icu_56@@MBE_WH@Z:PROC	; icu_56::UnicodeString::getCharAt
EXTRN	?getChar32At@UnicodeString@icu_56@@MBEHH@Z:PROC	; icu_56::UnicodeString::getChar32At
;	COMDAT ??_R2Replaceable@icu_56@@8
rdata$r	SEGMENT
??_R2Replaceable@icu_56@@8 DD FLAT:??_R1A@?0A@EA@Replaceable@icu_56@@8 ; icu_56::Replaceable::`RTTI Base Class Array'
	DD	FLAT:??_R1A@?0A@EA@UObject@icu_56@@8
	DD	FLAT:??_R13?0A@EA@UMemory@icu_56@@8
rdata$r	ENDS
;	COMDAT ??_R3Replaceable@icu_56@@8
rdata$r	SEGMENT
??_R3Replaceable@icu_56@@8 DD 00H			; icu_56::Replaceable::`RTTI Class Hierarchy Descriptor'
	DD	00H
	DD	03H
	DD	FLAT:??_R2Replaceable@icu_56@@8
rdata$r	ENDS
;	COMDAT ??_R0?AVReplaceable@icu_56@@@8
_DATA	SEGMENT
??_R0?AVReplaceable@icu_56@@@8 DD FLAT:??_7type_info@@6B@ ; icu_56::Replaceable `RTTI Type Descriptor'
	DD	00H
	DB	'.?AVReplaceable@icu_56@@', 00H
_DATA	ENDS
;	COMDAT ??_R1A@?0A@EA@Replaceable@icu_56@@8
rdata$r	SEGMENT
??_R1A@?0A@EA@Replaceable@icu_56@@8 DD FLAT:??_R0?AVReplaceable@icu_56@@@8 ; icu_56::Replaceable::`RTTI Base Class Descriptor at (0,-1,0,64)'
	DD	02H
	DD	00H
	DD	0ffffffffH
	DD	00H
	DD	040H
	DD	FLAT:??_R3Replaceable@icu_56@@8
rdata$r	ENDS
;	COMDAT ??_R1A@?0A@EA@UnicodeString@icu_56@@8
rdata$r	SEGMENT
??_R1A@?0A@EA@UnicodeString@icu_56@@8 DD FLAT:??_R0?AVUnicodeString@icu_56@@@8 ; icu_56::UnicodeString::`RTTI Base Class Descriptor at (0,-1,0,64)'
	DD	03H
	DD	00H
	DD	0ffffffffH
	DD	00H
	DD	040H
	DD	FLAT:??_R3UnicodeString@icu_56@@8
rdata$r	ENDS
;	COMDAT ??_R2UnicodeString@icu_56@@8
rdata$r	SEGMENT
??_R2UnicodeString@icu_56@@8 DD FLAT:??_R1A@?0A@EA@UnicodeString@icu_56@@8 ; icu_56::UnicodeString::`RTTI Base Class Array'
	DD	FLAT:??_R1A@?0A@EA@Replaceable@icu_56@@8
	DD	FLAT:??_R1A@?0A@EA@UObject@icu_56@@8
	DD	FLAT:??_R13?0A@EA@UMemory@icu_56@@8
rdata$r	ENDS
;	COMDAT ??_R3UnicodeString@icu_56@@8
rdata$r	SEGMENT
??_R3UnicodeString@icu_56@@8 DD 00H			; icu_56::UnicodeString::`RTTI Class Hierarchy Descriptor'
	DD	00H
	DD	04H
	DD	FLAT:??_R2UnicodeString@icu_56@@8
rdata$r	ENDS
;	COMDAT ??_R0?AVUnicodeString@icu_56@@@8
_DATA	SEGMENT
??_R0?AVUnicodeString@icu_56@@@8 DD FLAT:??_7type_info@@6B@ ; icu_56::UnicodeString `RTTI Type Descriptor'
	DD	00H
	DB	'.?AVUnicodeString@icu_56@@', 00H
_DATA	ENDS
;	COMDAT ??_R4UnicodeString@icu_56@@6B@
rdata$r	SEGMENT
??_R4UnicodeString@icu_56@@6B@ DD 00H			; icu_56::UnicodeString::`RTTI Complete Object Locator'
	DD	00H
	DD	00H
	DD	FLAT:??_R0?AVUnicodeString@icu_56@@@8
	DD	FLAT:??_R3UnicodeString@icu_56@@8
rdata$r	ENDS
;	COMDAT ??_SUnicodeString@icu_56@@6B@
CONST	SEGMENT
??_SUnicodeString@icu_56@@6B@ DD FLAT:??_R4UnicodeString@icu_56@@6B@ ; icu_56::UnicodeString::`local vftable'
	DD	FLAT:??_EUnicodeString@icu_56@@UAEPAXI@Z
	DD	FLAT:?getDynamicClassID@UnicodeString@icu_56@@UBEPAXXZ
	DD	FLAT:?extractBetween@UnicodeString@icu_56@@UBEXHHAAV12@@Z
	DD	FLAT:?handleReplaceBetween@UnicodeString@icu_56@@UAEXHHABV12@@Z
	DD	FLAT:?copy@UnicodeString@icu_56@@UAEXHHH@Z
	DD	FLAT:?hasMetaData@UnicodeString@icu_56@@UBECXZ
	DD	FLAT:?clone@UnicodeString@icu_56@@UBEPAVReplaceable@2@XZ
	DD	FLAT:?getLength@UnicodeString@icu_56@@MBEHXZ
	DD	FLAT:?getCharAt@UnicodeString@icu_56@@MBE_WH@Z
	DD	FLAT:?getChar32At@UnicodeString@icu_56@@MBEHH@Z
CONST	ENDS
;	COMDAT ??_C@_09KJPEOOPA@gregorian?$AA@
CONST	SEGMENT
??_C@_09KJPEOOPA@gregorian?$AA@ DB 'gregorian', 00H	; `string'
CONST	ENDS
;	COMDAT ??_C@_0BB@OLFHBHBI@DateTimePatterns?$AA@
CONST	SEGMENT
??_C@_0BB@OLFHBHBI@DateTimePatterns?$AA@ DB 'DateTimePatterns', 00H ; `string'
CONST	ENDS
;	COMDAT ??_C@_08LCCMFNHG@calendar?$AA@
CONST	SEGMENT
??_C@_08LCCMFNHG@calendar?$AA@ DB 'calendar', 00H	; `string'
CONST	ENDS
;	COMDAT xdata$x
xdata$x	SEGMENT
__unwindtable$?getTimeDateFormat@Win32DateFormat@icu_56@@ABEPAVUnicodeString@2@PBVCalendar@2@PBVLocale@2@AAW4UErrorCode@@@Z DD 0ffffffffH
	DD	FLAT:__unwindfunclet$?getTimeDateFormat@Win32DateFormat@icu_56@@ABEPAVUnicodeString@2@PBVCalendar@2@PBVLocale@2@AAW4UErrorCode@@@Z$0
	DD	0ffffffffH
	DD	FLAT:__unwindfunclet$?getTimeDateFormat@Win32DateFormat@icu_56@@ABEPAVUnicodeString@2@PBVCalendar@2@PBVLocale@2@AAW4UErrorCode@@@Z$1
__ehfuncinfo$?getTimeDateFormat@Win32DateFormat@icu_56@@ABEPAVUnicodeString@2@PBVCalendar@2@PBVLocale@2@AAW4UErrorCode@@@Z DD 019930522H
	DD	02H
	DD	FLAT:__unwindtable$?getTimeDateFormat@Win32DateFormat@icu_56@@ABEPAVUnicodeString@2@PBVCalendar@2@PBVLocale@2@AAW4UErrorCode@@@Z
	DD	2 DUP(00H)
	DD	2 DUP(00H)
	DD	00H
	DD	01H
; Function compile flags: /Odtp /RTCsu /ZI
xdata$x	ENDS
;	COMDAT ?getTimeDateFormat@Win32DateFormat@icu_56@@ABEPAVUnicodeString@2@PBVCalendar@2@PBVLocale@2@AAW4UErrorCode@@@Z
_TEXT	SEGMENT
tv161 = -400						; size = 4
tv142 = -400						; size = 4
$T80985 = -392						; size = 4
$T80986 = -380						; size = 4
$T80989 = -368						; size = 4
$T80990 = -356						; size = 4
_resStr$ = -152						; size = 4
_patSize$ = -140					; size = 4
_glueIndex$ = -128					; size = 4
_resStrLen$ = -116					; size = 4
_patBundle$ = -104					; size = 4
_typBundle$ = -92					; size = 4
_calBundle$ = -80					; size = 4
_topBundle$ = -68					; size = 4
_base$ = -56						; size = 4
_type$ = -44						; size = 4
_result$ = -32						; size = 4
_this$ = -20						; size = 4
__$EHRec$ = -12						; size = 12
_cal$ = 8						; size = 4
_locale$ = 12						; size = 4
_status$ = 16						; size = 4
?getTimeDateFormat@Win32DateFormat@icu_56@@ABEPAVUnicodeString@2@PBVCalendar@2@PBVLocale@2@AAW4UErrorCode@@@Z PROC ; icu_56::Win32DateFormat::getTimeDateFormat, COMDAT
; _this$ = ecx
; Line 56
	push	ebp
	mov	ebp, esp
	push	-1
	push	__ehhandler$?getTimeDateFormat@Win32DateFormat@icu_56@@ABEPAVUnicodeString@2@PBVCalendar@2@PBVLocale@2@AAW4UErrorCode@@@Z
	mov	eax, DWORD PTR fs:0
	push	eax
	sub	esp, 388				; 00000184H
	push	ebx
	push	esi
	push	edi
	push	ecx
	lea	edi, DWORD PTR [ebp-400]
	mov	ecx, 97					; 00000061H
	mov	eax, -858993460				; ccccccccH
	rep stosd
	pop	ecx
	mov	eax, DWORD PTR ___security_cookie
	xor	eax, ebp
	push	eax
	lea	eax, DWORD PTR __$EHRec$[ebp]
	mov	DWORD PTR fs:0, eax
	mov	DWORD PTR _this$[ebp], ecx
; Line 57
	mov	DWORD PTR _result$[ebp], 0
; Line 58
	mov	eax, DWORD PTR _cal$[ebp]
	mov	edx, DWORD PTR [eax]
	mov	esi, esp
	mov	ecx, DWORD PTR _cal$[ebp]
	mov	eax, DWORD PTR [edx+88]
	call	eax
	cmp	esi, esp
	call	__RTC_CheckEsp
	mov	DWORD PTR _type$[ebp], eax
; Line 59
	mov	esi, esp
	mov	ecx, DWORD PTR _locale$[ebp]
	call	DWORD PTR __imp_?getBaseName@Locale@icu_56@@QBEPBDXZ
	cmp	esi, esp
	call	__RTC_CheckEsp
	mov	DWORD PTR _base$[ebp], eax
; Line 60
	mov	eax, DWORD PTR _status$[ebp]
	push	eax
	mov	ecx, DWORD PTR _base$[ebp]
	push	ecx
	push	0
	call	_ures_open_56
	add	esp, 12					; 0000000cH
	mov	DWORD PTR _topBundle$[ebp], eax
; Line 61
	mov	eax, DWORD PTR _status$[ebp]
	push	eax
	push	0
	push	OFFSET ??_C@_08LCCMFNHG@calendar?$AA@
	mov	ecx, DWORD PTR _topBundle$[ebp]
	push	ecx
	call	_ures_getByKey_56
	add	esp, 16					; 00000010H
	mov	DWORD PTR _calBundle$[ebp], eax
; Line 62
	mov	eax, DWORD PTR _status$[ebp]
	push	eax
	push	0
	mov	ecx, DWORD PTR _type$[ebp]
	push	ecx
	mov	edx, DWORD PTR _calBundle$[ebp]
	push	edx
	call	_ures_getByKeyWithFallback_56
	add	esp, 16					; 00000010H
	mov	DWORD PTR _typBundle$[ebp], eax
; Line 63
	mov	eax, DWORD PTR _status$[ebp]
	push	eax
	push	0
	push	OFFSET ??_C@_0BB@OLFHBHBI@DateTimePatterns?$AA@
	mov	ecx, DWORD PTR _typBundle$[ebp]
	push	ecx
	call	_ures_getByKeyWithFallback_56
	add	esp, 16					; 00000010H
	mov	DWORD PTR _patBundle$[ebp], eax
; Line 65
	mov	eax, DWORD PTR _status$[ebp]
	cmp	DWORD PTR [eax], 2
	jne	SHORT $LN3@getTimeDat
; Line 66
	mov	eax, DWORD PTR _status$[ebp]
	mov	DWORD PTR [eax], 0
; Line 67
	mov	eax, DWORD PTR _status$[ebp]
	push	eax
	mov	ecx, DWORD PTR _typBundle$[ebp]
	push	ecx
	push	OFFSET ??_C@_09KJPEOOPA@gregorian?$AA@
	mov	edx, DWORD PTR _calBundle$[ebp]
	push	edx
	call	_ures_getByKeyWithFallback_56
	add	esp, 16					; 00000010H
	mov	DWORD PTR _typBundle$[ebp], eax
; Line 68
	mov	eax, DWORD PTR _status$[ebp]
	push	eax
	mov	ecx, DWORD PTR _patBundle$[ebp]
	push	ecx
	push	OFFSET ??_C@_0BB@OLFHBHBI@DateTimePatterns?$AA@
	mov	edx, DWORD PTR _typBundle$[ebp]
	push	edx
	call	_ures_getByKeyWithFallback_56
	add	esp, 16					; 00000010H
	mov	DWORD PTR _patBundle$[ebp], eax
$LN3@getTimeDat:
; Line 71
	mov	eax, DWORD PTR _status$[ebp]
	mov	ecx, DWORD PTR [eax]
	push	ecx
	call	?U_FAILURE@@YACW4UErrorCode@@@Z		; U_FAILURE
	add	esp, 4
	movsx	edx, al
	test	edx, edx
	je	$LN2@getTimeDat
; Line 73
	mov	esi, esp
	push	64					; 00000040H
	call	DWORD PTR __imp_??2UMemory@icu_56@@SAPAXI@Z
	add	esp, 4
	cmp	esi, esp
	call	__RTC_CheckEsp
	mov	DWORD PTR $T80986[ebp], eax
	mov	DWORD PTR __$EHRec$[ebp+8], 0
	cmp	DWORD PTR $T80986[ebp], 0
	je	SHORT $LN6@getTimeDat
	mov	esi, esp
	push	8
	push	OFFSET ?defaultPattern@?7??getTimeDateFormat@Win32DateFormat@icu_56@@ABEPAVUnicodeString@3@PBVCalendar@3@PBVLocale@3@AAW4UErrorCode@@@Z@4QB_WB
	mov	ecx, DWORD PTR $T80986[ebp]
	call	DWORD PTR __imp_??0UnicodeString@icu_56@@QAE@PB_WH@Z
	cmp	esi, esp
	call	__RTC_CheckEsp
	mov	eax, DWORD PTR $T80986[ebp]
	mov	DWORD PTR [eax], OFFSET ??_SUnicodeString@icu_56@@6B@
	mov	ecx, DWORD PTR $T80986[ebp]
	mov	DWORD PTR tv142[ebp], ecx
	jmp	SHORT $LN7@getTimeDat
$LN6@getTimeDat:
	mov	DWORD PTR tv142[ebp], 0
$LN7@getTimeDat:
	mov	edx, DWORD PTR tv142[ebp]
	mov	DWORD PTR $T80985[ebp], edx
	mov	DWORD PTR __$EHRec$[ebp+8], -1
	mov	eax, DWORD PTR $T80985[ebp]
	jmp	$LN4@getTimeDat
$LN2@getTimeDat:
; Line 76
	mov	DWORD PTR _resStrLen$[ebp], 0
; Line 77
	mov	DWORD PTR _glueIndex$[ebp], 8
; Line 78
	mov	eax, DWORD PTR _patBundle$[ebp]
	push	eax
	call	_ures_getSize_56
	add	esp, 4
	mov	DWORD PTR _patSize$[ebp], eax
; Line 79
	cmp	DWORD PTR _patSize$[ebp], 13		; 0000000dH
	jl	SHORT $LN1@getTimeDat
; Line 81
	mov	eax, DWORD PTR _this$[ebp]
	mov	ecx, DWORD PTR [eax+344]
	add	ecx, 5
	mov	DWORD PTR _glueIndex$[ebp], ecx
$LN1@getTimeDat:
; Line 83
	mov	eax, DWORD PTR _status$[ebp]
	push	eax
	lea	ecx, DWORD PTR _resStrLen$[ebp]
	push	ecx
	mov	edx, DWORD PTR _glueIndex$[ebp]
	push	edx
	mov	eax, DWORD PTR _patBundle$[ebp]
	push	eax
	call	_ures_getStringByIndex_56
	add	esp, 16					; 00000010H
	mov	DWORD PTR _resStr$[ebp], eax
; Line 85
	mov	esi, esp
	push	64					; 00000040H
	call	DWORD PTR __imp_??2UMemory@icu_56@@SAPAXI@Z
	add	esp, 4
	cmp	esi, esp
	call	__RTC_CheckEsp
	mov	DWORD PTR $T80990[ebp], eax
	mov	DWORD PTR __$EHRec$[ebp+8], 1
	cmp	DWORD PTR $T80990[ebp], 0
	je	SHORT $LN8@getTimeDat
	mov	esi, esp
	mov	eax, DWORD PTR _resStrLen$[ebp]
	push	eax
	mov	ecx, DWORD PTR _resStr$[ebp]
	push	ecx
	push	1
	mov	ecx, DWORD PTR $T80990[ebp]
	call	DWORD PTR __imp_??0UnicodeString@icu_56@@QAE@CPB_WH@Z
	cmp	esi, esp
	call	__RTC_CheckEsp
	mov	edx, DWORD PTR $T80990[ebp]
	mov	DWORD PTR [edx], OFFSET ??_SUnicodeString@icu_56@@6B@
	mov	eax, DWORD PTR $T80990[ebp]
	mov	DWORD PTR tv161[ebp], eax
	jmp	SHORT $LN9@getTimeDat
$LN8@getTimeDat:
	mov	DWORD PTR tv161[ebp], 0
$LN9@getTimeDat:
	mov	ecx, DWORD PTR tv161[ebp]
	mov	DWORD PTR $T80989[ebp], ecx
	mov	DWORD PTR __$EHRec$[ebp+8], -1
	mov	edx, DWORD PTR $T80989[ebp]
	mov	DWORD PTR _result$[ebp], edx
; Line 87
	mov	eax, DWORD PTR _patBundle$[ebp]
	push	eax
	call	_ures_close_56
	add	esp, 4
; Line 88
	mov	eax, DWORD PTR _typBundle$[ebp]
	push	eax
	call	_ures_close_56
	add	esp, 4
; Line 89
	mov	eax, DWORD PTR _calBundle$[ebp]
	push	eax
	call	_ures_close_56
	add	esp, 4
; Line 90
	mov	eax, DWORD PTR _topBundle$[ebp]
	push	eax
	call	_ures_close_56
	add	esp, 4
; Line 92
	mov	eax, DWORD PTR _result$[ebp]
$LN4@getTimeDat:
; Line 93
	push	edx
	mov	ecx, ebp
	push	eax
	lea	edx, DWORD PTR $LN15@getTimeDat
	call	@_RTC_CheckStackVars@8
	pop	eax
	pop	edx
	mov	ecx, DWORD PTR __$EHRec$[ebp]
	mov	DWORD PTR fs:0, ecx
	pop	ecx
	pop	edi
	pop	esi
	pop	ebx
	add	esp, 400				; 00000190H
	cmp	ebp, esp
	call	__RTC_CheckEsp
	mov	esp, ebp
	pop	ebp
	ret	12					; 0000000cH
	npad	2
$LN15@getTimeDat:
	DD	1
	DD	$LN14@getTimeDat
$LN14@getTimeDat:
	DD	-116					; ffffff8cH
	DD	4
	DD	$LN12@getTimeDat
$LN12@getTimeDat:
	DB	114					; 00000072H
	DB	101					; 00000065H
	DB	115					; 00000073H
	DB	83					; 00000053H
	DB	116					; 00000074H
	DB	114					; 00000072H
	DB	76					; 0000004cH
	DB	101					; 00000065H
	DB	110					; 0000006eH
	DB	0
_TEXT	ENDS
;	COMDAT text$x
text$x	SEGMENT
__unwindfunclet$?getTimeDateFormat@Win32DateFormat@icu_56@@ABEPAVUnicodeString@2@PBVCalendar@2@PBVLocale@2@AAW4UErrorCode@@@Z$0:
	mov	esi, esp
	mov	eax, DWORD PTR $T80986[ebp]
	push	eax
	call	DWORD PTR __imp_??3UMemory@icu_56@@SAXPAX@Z
	add	esp, 4
	cmp	esi, esp
	jmp	__RTC_CheckEsp
__unwindfunclet$?getTimeDateFormat@Win32DateFormat@icu_56@@ABEPAVUnicodeString@2@PBVCalendar@2@PBVLocale@2@AAW4UErrorCode@@@Z$1:
	mov	esi, esp
	mov	eax, DWORD PTR $T80990[ebp]
	push	eax
	call	DWORD PTR __imp_??3UMemory@icu_56@@SAXPAX@Z
	add	esp, 4
	cmp	esi, esp
	jmp	__RTC_CheckEsp
__ehhandler$?getTimeDateFormat@Win32DateFormat@icu_56@@ABEPAVUnicodeString@2@PBVCalendar@2@PBVLocale@2@AAW4UErrorCode@@@Z:
	mov	edx, DWORD PTR [esp+8]
	lea	eax, DWORD PTR [edx+12]
	mov	ecx, DWORD PTR [edx-404]
	xor	ecx, eax
	call	@__security_check_cookie@4
	mov	eax, OFFSET __ehfuncinfo$?getTimeDateFormat@Win32DateFormat@icu_56@@ABEPAVUnicodeString@2@PBVCalendar@2@PBVLocale@2@AAW4UErrorCode@@@Z
	jmp	___CxxFrameHandler3
text$x	ENDS
?getTimeDateFormat@Win32DateFormat@icu_56@@ABEPAVUnicodeString@2@PBVCalendar@2@PBVLocale@2@AAW4UErrorCode@@@Z ENDP ; icu_56::Win32DateFormat::getTimeDateFormat
; Function compile flags: /Odtp /RTCsu /ZI
;	COMDAT ?U_FAILURE@@YACW4UErrorCode@@@Z
_TEXT	SEGMENT
_code$ = 8						; size = 4
?U_FAILURE@@YACW4UErrorCode@@@Z PROC			; U_FAILURE, COMDAT
; File d:\mozilla\intl\icu\include\unicode\utypes.h
; Line 705
	push	ebp
	mov	ebp, esp
	sub	esp, 192				; 000000c0H
	push	ebx
	push	esi
	push	edi
	lea	edi, DWORD PTR [ebp-192]
	mov	ecx, 48					; 00000030H
	mov	eax, -858993460				; ccccccccH
	rep stosd
	cmp	DWORD PTR _code$[ebp], 0
	setg	al
	pop	edi
	pop	esi
	pop	ebx
	mov	esp, ebp
	pop	ebp
	ret	0
?U_FAILURE@@YACW4UErrorCode@@@Z ENDP			; U_FAILURE
_TEXT	ENDS
EXTRN	__imp_??1UnicodeString@icu_56@@UAE@XZ:PROC
; Function compile flags: /Odtp /RTCsu /ZI
;	COMDAT ??_GUnicodeString@icu_56@@UAEPAXI@Z
_TEXT	SEGMENT
_this$ = -8						; size = 4
___flags$ = 8						; size = 4
??_GUnicodeString@icu_56@@UAEPAXI@Z PROC		; icu_56::UnicodeString::`scalar deleting destructor', COMDAT
; _this$ = ecx
	push	ebp
	mov	ebp, esp
	sub	esp, 204				; 000000ccH
	push	ebx
	push	esi
	push	edi
	push	ecx
	lea	edi, DWORD PTR [ebp-204]
	mov	ecx, 51					; 00000033H
	mov	eax, -858993460				; ccccccccH
	rep stosd
	pop	ecx
	mov	DWORD PTR _this$[ebp], ecx
	mov	esi, esp
	mov	ecx, DWORD PTR _this$[ebp]
	call	DWORD PTR __imp_??1UnicodeString@icu_56@@UAE@XZ
	cmp	esi, esp
	call	__RTC_CheckEsp
	mov	eax, DWORD PTR ___flags$[ebp]
	and	eax, 1
	je	SHORT $LN1@scalar@9
	mov	esi, esp
	mov	eax, DWORD PTR _this$[ebp]
	push	eax
	call	DWORD PTR __imp_??3UMemory@icu_56@@SAXPAX@Z
	add	esp, 4
	cmp	esi, esp
	call	__RTC_CheckEsp
$LN1@scalar@9:
	mov	eax, DWORD PTR _this$[ebp]
	pop	edi
	pop	esi
	pop	ebx
	add	esp, 204				; 000000ccH
	cmp	ebp, esp
	call	__RTC_CheckEsp
	mov	esp, ebp
	pop	ebp
	ret	4
??_GUnicodeString@icu_56@@UAEPAXI@Z ENDP		; icu_56::UnicodeString::`scalar deleting destructor'
_TEXT	ENDS
PUBLIC	?adoptCalendar@Win32DateFormat@icu_56@@UAEXPAVCalendar@2@@Z ; icu_56::Win32DateFormat::adoptCalendar
PUBLIC	??_7Win32DateFormat@icu_56@@6B@			; icu_56::Win32DateFormat::`vftable'
PUBLIC	??0Win32DateFormat@icu_56@@QAE@W4EStyle@DateFormat@1@0ABVLocale@1@AAW4UErrorCode@@@Z ; icu_56::Win32DateFormat::Win32DateFormat
PUBLIC	??_R4Win32DateFormat@icu_56@@6B@		; icu_56::Win32DateFormat::`RTTI Complete Object Locator'
PUBLIC	??_R0?AVWin32DateFormat@icu_56@@@8		; icu_56::Win32DateFormat `RTTI Type Descriptor'
PUBLIC	??_R3Win32DateFormat@icu_56@@8			; icu_56::Win32DateFormat::`RTTI Class Hierarchy Descriptor'
PUBLIC	??_R2Win32DateFormat@icu_56@@8			; icu_56::Win32DateFormat::`RTTI Base Class Array'
PUBLIC	??_R1A@?0A@EA@Win32DateFormat@icu_56@@8		; icu_56::Win32DateFormat::`RTTI Base Class Descriptor at (0,-1,0,64)'
PUBLIC	??_R1A@?0A@EA@DateFormat@icu_56@@8		; icu_56::DateFormat::`RTTI Base Class Descriptor at (0,-1,0,64)'
PUBLIC	??_R0?AVDateFormat@icu_56@@@8			; icu_56::DateFormat `RTTI Type Descriptor'
PUBLIC	??_R3DateFormat@icu_56@@8			; icu_56::DateFormat::`RTTI Class Hierarchy Descriptor'
PUBLIC	??_R2DateFormat@icu_56@@8			; icu_56::DateFormat::`RTTI Base Class Array'
PUBLIC	?clone@Win32DateFormat@icu_56@@UBEPAVFormat@2@XZ ; icu_56::Win32DateFormat::clone
PUBLIC	?format@Win32DateFormat@icu_56@@UBEAAVUnicodeString@2@AAVCalendar@2@AAV32@AAVFieldPosition@2@@Z ; icu_56::Win32DateFormat::format
PUBLIC	?parse@Win32DateFormat@icu_56@@UBEXABVUnicodeString@2@AAVCalendar@2@AAVParsePosition@2@@Z ; icu_56::Win32DateFormat::parse
PUBLIC	?setCalendar@Win32DateFormat@icu_56@@UAEXABVCalendar@2@@Z ; icu_56::Win32DateFormat::setCalendar
PUBLIC	?adoptTimeZone@Win32DateFormat@icu_56@@UAEXPAVTimeZone@2@@Z ; icu_56::Win32DateFormat::adoptTimeZone
PUBLIC	?setTimeZone@Win32DateFormat@icu_56@@UAEXABVTimeZone@2@@Z ; icu_56::Win32DateFormat::setTimeZone
EXTRN	__imp_??1Locale@icu_56@@UAE@XZ:PROC
EXTRN	??1DateFormat@icu_56@@UAE@XZ:PROC		; icu_56::DateFormat::~DateFormat
EXTRN	?createInstance@Calendar@icu_56@@SAPAV12@ABVLocale@2@AAW4UErrorCode@@@Z:PROC ; icu_56::Calendar::createInstance
EXTRN	_memset:PROC
EXTRN	_uprv_malloc_56:PROC
EXTRN	__imp_?getLCID@Locale@icu_56@@QBEIXZ:PROC
EXTRN	__imp_??0UnicodeString@icu_56@@QAE@XZ:PROC
EXTRN	__imp_??0Locale@icu_56@@QAE@ABV01@@Z:PROC
EXTRN	??0DateFormat@icu_56@@IAE@XZ:PROC		; icu_56::DateFormat::DateFormat
EXTRN	??_EWin32DateFormat@icu_56@@UAEPAXI@Z:PROC	; icu_56::Win32DateFormat::`vector deleting destructor'
EXTRN	??8DateFormat@icu_56@@UBECABVFormat@1@@Z:PROC	; icu_56::DateFormat::operator==
EXTRN	?format@DateFormat@icu_56@@UBEAAVUnicodeString@2@ABVFormattable@2@AAV32@PAVFieldPositionIterator@2@AAW4UErrorCode@@@Z:PROC ; icu_56::DateFormat::format
EXTRN	?format@DateFormat@icu_56@@UBEAAVUnicodeString@2@ABVFormattable@2@AAV32@AAVFieldPosition@2@AAW4UErrorCode@@@Z:PROC ; icu_56::DateFormat::format
EXTRN	?parseObject@DateFormat@icu_56@@UBEXABVUnicodeString@2@AAVFormattable@2@AAVParsePosition@2@@Z:PROC ; icu_56::DateFormat::parseObject
EXTRN	?format@DateFormat@icu_56@@UBEAAVUnicodeString@2@AAVCalendar@2@AAV32@PAVFieldPositionIterator@2@AAW4UErrorCode@@@Z:PROC ; icu_56::DateFormat::format
EXTRN	?parse@DateFormat@icu_56@@UBENABVUnicodeString@2@AAW4UErrorCode@@@Z:PROC ; icu_56::DateFormat::parse
EXTRN	?isLenient@DateFormat@icu_56@@UBECXZ:PROC	; icu_56::DateFormat::isLenient
EXTRN	?setLenient@DateFormat@icu_56@@UAEXC@Z:PROC	; icu_56::DateFormat::setLenient
EXTRN	?isCalendarLenient@DateFormat@icu_56@@UBECXZ:PROC ; icu_56::DateFormat::isCalendarLenient
EXTRN	?setCalendarLenient@DateFormat@icu_56@@UAEXC@Z:PROC ; icu_56::DateFormat::setCalendarLenient
EXTRN	?getCalendar@DateFormat@icu_56@@UBEPBVCalendar@2@XZ:PROC ; icu_56::DateFormat::getCalendar
EXTRN	?getNumberFormat@DateFormat@icu_56@@UBEPBVNumberFormat@2@XZ:PROC ; icu_56::DateFormat::getNumberFormat
EXTRN	?adoptNumberFormat@DateFormat@icu_56@@UAEXPAVNumberFormat@2@@Z:PROC ; icu_56::DateFormat::adoptNumberFormat
EXTRN	?setNumberFormat@DateFormat@icu_56@@UAEXABVNumberFormat@2@@Z:PROC ; icu_56::DateFormat::setNumberFormat
EXTRN	?getTimeZone@DateFormat@icu_56@@UBEABVTimeZone@2@XZ:PROC ; icu_56::DateFormat::getTimeZone
EXTRN	?setContext@DateFormat@icu_56@@UAEXW4UDisplayContext@@AAW4UErrorCode@@@Z:PROC ; icu_56::DateFormat::setContext
EXTRN	?getContext@DateFormat@icu_56@@UBE?AW4UDisplayContext@@W4UDisplayContextType@@AAW4UErrorCode@@@Z:PROC ; icu_56::DateFormat::getContext
EXTRN	?setBooleanAttribute@DateFormat@icu_56@@UAAAAV12@W4UDateFormatBooleanAttribute@@CAAW4UErrorCode@@@Z:PROC ; icu_56::DateFormat::setBooleanAttribute
EXTRN	?getBooleanAttribute@DateFormat@icu_56@@UBACW4UDateFormatBooleanAttribute@@AAW4UErrorCode@@@Z:PROC ; icu_56::DateFormat::getBooleanAttribute
;	COMDAT ??_R2DateFormat@icu_56@@8
; File d:\mozilla\intl\icu\source\i18n\windtfmt.cpp
rdata$r	SEGMENT
??_R2DateFormat@icu_56@@8 DD FLAT:??_R1A@?0A@EA@DateFormat@icu_56@@8 ; icu_56::DateFormat::`RTTI Base Class Array'
	DD	FLAT:??_R1A@?0A@EA@Format@icu_56@@8
	DD	FLAT:??_R1A@?0A@EA@UObject@icu_56@@8
	DD	FLAT:??_R13?0A@EA@UMemory@icu_56@@8
rdata$r	ENDS
;	COMDAT ??_R3DateFormat@icu_56@@8
rdata$r	SEGMENT
??_R3DateFormat@icu_56@@8 DD 00H			; icu_56::DateFormat::`RTTI Class Hierarchy Descriptor'
	DD	00H
	DD	04H
	DD	FLAT:??_R2DateFormat@icu_56@@8
rdata$r	ENDS
;	COMDAT ??_R0?AVDateFormat@icu_56@@@8
_DATA	SEGMENT
??_R0?AVDateFormat@icu_56@@@8 DD FLAT:??_7type_info@@6B@ ; icu_56::DateFormat `RTTI Type Descriptor'
	DD	00H
	DB	'.?AVDateFormat@icu_56@@', 00H
_DATA	ENDS
;	COMDAT ??_R1A@?0A@EA@DateFormat@icu_56@@8
rdata$r	SEGMENT
??_R1A@?0A@EA@DateFormat@icu_56@@8 DD FLAT:??_R0?AVDateFormat@icu_56@@@8 ; icu_56::DateFormat::`RTTI Base Class Descriptor at (0,-1,0,64)'
	DD	03H
	DD	00H
	DD	0ffffffffH
	DD	00H
	DD	040H
	DD	FLAT:??_R3DateFormat@icu_56@@8
rdata$r	ENDS
;	COMDAT ??_R1A@?0A@EA@Win32DateFormat@icu_56@@8
rdata$r	SEGMENT
??_R1A@?0A@EA@Win32DateFormat@icu_56@@8 DD FLAT:??_R0?AVWin32DateFormat@icu_56@@@8 ; icu_56::Win32DateFormat::`RTTI Base Class Descriptor at (0,-1,0,64)'
	DD	04H
	DD	00H
	DD	0ffffffffH
	DD	00H
	DD	040H
	DD	FLAT:??_R3Win32DateFormat@icu_56@@8
rdata$r	ENDS
;	COMDAT ??_R2Win32DateFormat@icu_56@@8
rdata$r	SEGMENT
??_R2Win32DateFormat@icu_56@@8 DD FLAT:??_R1A@?0A@EA@Win32DateFormat@icu_56@@8 ; icu_56::Win32DateFormat::`RTTI Base Class Array'
	DD	FLAT:??_R1A@?0A@EA@DateFormat@icu_56@@8
	DD	FLAT:??_R1A@?0A@EA@Format@icu_56@@8
	DD	FLAT:??_R1A@?0A@EA@UObject@icu_56@@8
	DD	FLAT:??_R13?0A@EA@UMemory@icu_56@@8
rdata$r	ENDS
;	COMDAT ??_R3Win32DateFormat@icu_56@@8
rdata$r	SEGMENT
??_R3Win32DateFormat@icu_56@@8 DD 00H			; icu_56::Win32DateFormat::`RTTI Class Hierarchy Descriptor'
	DD	00H
	DD	05H
	DD	FLAT:??_R2Win32DateFormat@icu_56@@8
rdata$r	ENDS
;	COMDAT ??_R0?AVWin32DateFormat@icu_56@@@8
_DATA	SEGMENT
??_R0?AVWin32DateFormat@icu_56@@@8 DD FLAT:??_7type_info@@6B@ ; icu_56::Win32DateFormat `RTTI Type Descriptor'
	DD	00H
	DB	'.?AVWin32DateFormat@icu_56@@', 00H
_DATA	ENDS
;	COMDAT ??_R4Win32DateFormat@icu_56@@6B@
rdata$r	SEGMENT
??_R4Win32DateFormat@icu_56@@6B@ DD 00H			; icu_56::Win32DateFormat::`RTTI Complete Object Locator'
	DD	00H
	DD	00H
	DD	FLAT:??_R0?AVWin32DateFormat@icu_56@@@8
	DD	FLAT:??_R3Win32DateFormat@icu_56@@8
rdata$r	ENDS
;	COMDAT ??_7Win32DateFormat@icu_56@@6B@
CONST	SEGMENT
??_7Win32DateFormat@icu_56@@6B@ DD FLAT:??_R4Win32DateFormat@icu_56@@6B@ ; icu_56::Win32DateFormat::`vftable'
	DD	FLAT:??_EWin32DateFormat@icu_56@@UAEPAXI@Z
	DD	FLAT:?getDynamicClassID@Win32DateFormat@icu_56@@UBEPAXXZ
	DD	FLAT:??8DateFormat@icu_56@@UBECABVFormat@1@@Z
	DD	FLAT:?clone@Win32DateFormat@icu_56@@UBEPAVFormat@2@XZ
	DD	FLAT:?format@DateFormat@icu_56@@UBEAAVUnicodeString@2@ABVFormattable@2@AAV32@PAVFieldPositionIterator@2@AAW4UErrorCode@@@Z
	DD	FLAT:?format@DateFormat@icu_56@@UBEAAVUnicodeString@2@ABVFormattable@2@AAV32@AAVFieldPosition@2@AAW4UErrorCode@@@Z
	DD	FLAT:?parseObject@DateFormat@icu_56@@UBEXABVUnicodeString@2@AAVFormattable@2@AAVParsePosition@2@@Z
	DD	FLAT:?format@DateFormat@icu_56@@UBEAAVUnicodeString@2@AAVCalendar@2@AAV32@PAVFieldPositionIterator@2@AAW4UErrorCode@@@Z
	DD	FLAT:?format@Win32DateFormat@icu_56@@UBEAAVUnicodeString@2@AAVCalendar@2@AAV32@AAVFieldPosition@2@@Z
	DD	FLAT:?parse@Win32DateFormat@icu_56@@UBEXABVUnicodeString@2@AAVCalendar@2@AAVParsePosition@2@@Z
	DD	FLAT:?parse@DateFormat@icu_56@@UBENABVUnicodeString@2@AAW4UErrorCode@@@Z
	DD	FLAT:?isLenient@DateFormat@icu_56@@UBECXZ
	DD	FLAT:?setLenient@DateFormat@icu_56@@UAEXC@Z
	DD	FLAT:?isCalendarLenient@DateFormat@icu_56@@UBECXZ
	DD	FLAT:?setCalendarLenient@DateFormat@icu_56@@UAEXC@Z
	DD	FLAT:?getCalendar@DateFormat@icu_56@@UBEPBVCalendar@2@XZ
	DD	FLAT:?adoptCalendar@Win32DateFormat@icu_56@@UAEXPAVCalendar@2@@Z
	DD	FLAT:?setCalendar@Win32DateFormat@icu_56@@UAEXABVCalendar@2@@Z
	DD	FLAT:?getNumberFormat@DateFormat@icu_56@@UBEPBVNumberFormat@2@XZ
	DD	FLAT:?adoptNumberFormat@DateFormat@icu_56@@UAEXPAVNumberFormat@2@@Z
	DD	FLAT:?setNumberFormat@DateFormat@icu_56@@UAEXABVNumberFormat@2@@Z
	DD	FLAT:?getTimeZone@DateFormat@icu_56@@UBEABVTimeZone@2@XZ
	DD	FLAT:?adoptTimeZone@Win32DateFormat@icu_56@@UAEXPAVTimeZone@2@@Z
	DD	FLAT:?setTimeZone@Win32DateFormat@icu_56@@UAEXABVTimeZone@2@@Z
	DD	FLAT:?setContext@DateFormat@icu_56@@UAEXW4UDisplayContext@@AAW4UErrorCode@@@Z
	DD	FLAT:?getContext@DateFormat@icu_56@@UBE?AW4UDisplayContext@@W4UDisplayContextType@@AAW4UErrorCode@@@Z
	DD	FLAT:?setBooleanAttribute@DateFormat@icu_56@@UAAAAV12@W4UDateFormatBooleanAttribute@@CAAW4UErrorCode@@@Z
	DD	FLAT:?getBooleanAttribute@DateFormat@icu_56@@UBACW4UDateFormatBooleanAttribute@@AAW4UErrorCode@@@Z
CONST	ENDS
;	COMDAT xdata$x
xdata$x	SEGMENT
__unwindtable$??0Win32DateFormat@icu_56@@QAE@W4EStyle@DateFormat@1@0ABVLocale@1@AAW4UErrorCode@@@Z DD 0ffffffffH
	DD	FLAT:__unwindfunclet$??0Win32DateFormat@icu_56@@QAE@W4EStyle@DateFormat@1@0ABVLocale@1@AAW4UErrorCode@@@Z$0
	DD	00H
	DD	FLAT:__unwindfunclet$??0Win32DateFormat@icu_56@@QAE@W4EStyle@DateFormat@1@0ABVLocale@1@AAW4UErrorCode@@@Z$1
	DD	01H
	DD	FLAT:__unwindfunclet$??0Win32DateFormat@icu_56@@QAE@W4EStyle@DateFormat@1@0ABVLocale@1@AAW4UErrorCode@@@Z$2
__ehfuncinfo$??0Win32DateFormat@icu_56@@QAE@W4EStyle@DateFormat@1@0ABVLocale@1@AAW4UErrorCode@@@Z DD 019930522H
	DD	03H
	DD	FLAT:__unwindtable$??0Win32DateFormat@icu_56@@QAE@W4EStyle@DateFormat@1@0ABVLocale@1@AAW4UErrorCode@@@Z
	DD	2 DUP(00H)
	DD	2 DUP(00H)
	DD	00H
	DD	01H
; Function compile flags: /Odtp /RTCsu /ZI
xdata$x	ENDS
;	COMDAT ??0Win32DateFormat@icu_56@@QAE@W4EStyle@DateFormat@1@0ABVLocale@1@AAW4UErrorCode@@@Z
_TEXT	SEGMENT
_this$ = -20						; size = 4
__$EHRec$ = -12						; size = 12
_timeStyle$ = 8						; size = 4
_dateStyle$ = 12					; size = 4
_locale$ = 16						; size = 4
_status$ = 20						; size = 4
??0Win32DateFormat@icu_56@@QAE@W4EStyle@DateFormat@1@0ABVLocale@1@AAW4UErrorCode@@@Z PROC ; icu_56::Win32DateFormat::Win32DateFormat, COMDAT
; _this$ = ecx
; Line 98
	push	ebp
	mov	ebp, esp
	push	-1
	push	__ehhandler$??0Win32DateFormat@icu_56@@QAE@W4EStyle@DateFormat@1@0ABVLocale@1@AAW4UErrorCode@@@Z
	mov	eax, DWORD PTR fs:0
	push	eax
	sub	esp, 204				; 000000ccH
	push	ebx
	push	esi
	push	edi
	push	ecx
	lea	edi, DWORD PTR [ebp-216]
	mov	ecx, 51					; 00000033H
	mov	eax, -858993460				; ccccccccH
	rep stosd
	pop	ecx
	mov	eax, DWORD PTR ___security_cookie
	xor	eax, ebp
	push	eax
	lea	eax, DWORD PTR __$EHRec$[ebp]
	mov	DWORD PTR fs:0, eax
	mov	DWORD PTR _this$[ebp], ecx
	mov	ecx, DWORD PTR _this$[ebp]
	call	??0DateFormat@icu_56@@IAE@XZ		; icu_56::DateFormat::DateFormat
	mov	DWORD PTR __$EHRec$[ebp+8], 0
	mov	eax, DWORD PTR _this$[ebp]
	mov	DWORD PTR [eax], OFFSET ??_7Win32DateFormat@icu_56@@6B@
	mov	eax, DWORD PTR _this$[ebp]
	mov	DWORD PTR [eax+336], 0
	mov	eax, DWORD PTR _this$[ebp]
	mov	ecx, DWORD PTR _timeStyle$[ebp]
	mov	DWORD PTR [eax+340], ecx
	mov	eax, DWORD PTR _this$[ebp]
	mov	ecx, DWORD PTR _dateStyle$[ebp]
	mov	DWORD PTR [eax+344], ecx
	mov	esi, esp
	mov	eax, DWORD PTR _locale$[ebp]
	push	eax
	mov	ecx, DWORD PTR _this$[ebp]
	add	ecx, 348				; 0000015cH
	call	DWORD PTR __imp_??0Locale@icu_56@@QAE@ABV01@@Z
	cmp	esi, esp
	call	__RTC_CheckEsp
	mov	BYTE PTR __$EHRec$[ebp+8], 1
	mov	ecx, DWORD PTR _this$[ebp]
	add	ecx, 556				; 0000022cH
	mov	esi, esp
	call	DWORD PTR __imp_??0UnicodeString@icu_56@@QAE@XZ
	cmp	esi, esp
	call	__RTC_CheckEsp
	mov	BYTE PTR __$EHRec$[ebp+8], 2
; Line 99
	mov	eax, DWORD PTR _status$[ebp]
	mov	ecx, DWORD PTR [eax]
	push	ecx
	call	?U_SUCCESS@@YACW4UErrorCode@@@Z		; U_SUCCESS
	add	esp, 4
	movsx	edx, al
	test	edx, edx
	je	SHORT $LN2@Win32DateF
; Line 100
	mov	esi, esp
	mov	ecx, DWORD PTR _locale$[ebp]
	call	DWORD PTR __imp_?getLCID@Locale@icu_56@@QBEIXZ
	cmp	esi, esp
	call	__RTC_CheckEsp
	mov	ecx, DWORD PTR _this$[ebp]
	mov	DWORD PTR [ecx+552], eax
; Line 101
	push	172					; 000000acH
	call	_uprv_malloc_56
	add	esp, 4
	mov	ecx, DWORD PTR _this$[ebp]
	mov	DWORD PTR [ecx+620], eax
; Line 102
	push	172					; 000000acH
	push	0
	mov	eax, DWORD PTR _this$[ebp]
	mov	ecx, DWORD PTR [eax+620]
	push	ecx
	call	_memset
	add	esp, 12					; 0000000cH
; Line 103
	mov	eax, DWORD PTR _status$[ebp]
	push	eax
	mov	ecx, DWORD PTR _locale$[ebp]
	push	ecx
	call	?createInstance@Calendar@icu_56@@SAPAV12@ABVLocale@2@AAW4UErrorCode@@@Z ; icu_56::Calendar::createInstance
	add	esp, 8
	push	eax
	mov	ecx, DWORD PTR _this$[ebp]
	call	?adoptCalendar@Win32DateFormat@icu_56@@UAEXPAVCalendar@2@@Z ; icu_56::Win32DateFormat::adoptCalendar
$LN2@Win32DateF:
; Line 105
	mov	DWORD PTR __$EHRec$[ebp+8], -1
	mov	eax, DWORD PTR _this$[ebp]
	mov	ecx, DWORD PTR __$EHRec$[ebp]
	mov	DWORD PTR fs:0, ecx
	pop	ecx
	pop	edi
	pop	esi
	pop	ebx
	add	esp, 216				; 000000d8H
	cmp	ebp, esp
	call	__RTC_CheckEsp
	mov	esp, ebp
	pop	ebp
	ret	16					; 00000010H
_TEXT	ENDS
;	COMDAT text$x
text$x	SEGMENT
__unwindfunclet$??0Win32DateFormat@icu_56@@QAE@W4EStyle@DateFormat@1@0ABVLocale@1@AAW4UErrorCode@@@Z$0:
	mov	ecx, DWORD PTR _this$[ebp]
	jmp	??1DateFormat@icu_56@@UAE@XZ		; icu_56::DateFormat::~DateFormat
__unwindfunclet$??0Win32DateFormat@icu_56@@QAE@W4EStyle@DateFormat@1@0ABVLocale@1@AAW4UErrorCode@@@Z$1:
	mov	ecx, DWORD PTR _this$[ebp]
	add	ecx, 348				; 0000015cH
	mov	esi, esp
	call	DWORD PTR __imp_??1Locale@icu_56@@UAE@XZ
	cmp	esi, esp
	jmp	__RTC_CheckEsp
__unwindfunclet$??0Win32DateFormat@icu_56@@QAE@W4EStyle@DateFormat@1@0ABVLocale@1@AAW4UErrorCode@@@Z$2:
	mov	ecx, DWORD PTR _this$[ebp]
	add	ecx, 556				; 0000022cH
	mov	esi, esp
	call	DWORD PTR __imp_??1UnicodeString@icu_56@@UAE@XZ
	cmp	esi, esp
	jmp	__RTC_CheckEsp
__ehhandler$??0Win32DateFormat@icu_56@@QAE@W4EStyle@DateFormat@1@0ABVLocale@1@AAW4UErrorCode@@@Z:
	mov	edx, DWORD PTR [esp+8]
	lea	eax, DWORD PTR [edx+12]
	mov	ecx, DWORD PTR [edx-220]
	xor	ecx, eax
	call	@__security_check_cookie@4
	mov	eax, OFFSET __ehfuncinfo$??0Win32DateFormat@icu_56@@QAE@W4EStyle@DateFormat@1@0ABVLocale@1@AAW4UErrorCode@@@Z
	jmp	___CxxFrameHandler3
text$x	ENDS
??0Win32DateFormat@icu_56@@QAE@W4EStyle@DateFormat@1@0ABVLocale@1@AAW4UErrorCode@@@Z ENDP ; icu_56::Win32DateFormat::Win32DateFormat
PUBLIC	??1Win32DateFormat@icu_56@@UAE@XZ		; icu_56::Win32DateFormat::~Win32DateFormat
; Function compile flags: /Odtp /RTCsu /ZI
;	COMDAT ??_GWin32DateFormat@icu_56@@UAEPAXI@Z
_TEXT	SEGMENT
_this$ = -8						; size = 4
___flags$ = 8						; size = 4
??_GWin32DateFormat@icu_56@@UAEPAXI@Z PROC		; icu_56::Win32DateFormat::`scalar deleting destructor', COMDAT
; _this$ = ecx
	push	ebp
	mov	ebp, esp
	sub	esp, 204				; 000000ccH
	push	ebx
	push	esi
	push	edi
	push	ecx
	lea	edi, DWORD PTR [ebp-204]
	mov	ecx, 51					; 00000033H
	mov	eax, -858993460				; ccccccccH
	rep stosd
	pop	ecx
	mov	DWORD PTR _this$[ebp], ecx
	mov	ecx, DWORD PTR _this$[ebp]
	call	??1Win32DateFormat@icu_56@@UAE@XZ	; icu_56::Win32DateFormat::~Win32DateFormat
	mov	eax, DWORD PTR ___flags$[ebp]
	and	eax, 1
	je	SHORT $LN1@scalar@10
	mov	esi, esp
	mov	eax, DWORD PTR _this$[ebp]
	push	eax
	call	DWORD PTR __imp_??3UMemory@icu_56@@SAXPAX@Z
	add	esp, 4
	cmp	esi, esp
	call	__RTC_CheckEsp
$LN1@scalar@10:
	mov	eax, DWORD PTR _this$[ebp]
	pop	edi
	pop	esi
	pop	ebx
	add	esp, 204				; 000000ccH
	cmp	ebp, esp
	call	__RTC_CheckEsp
	mov	esp, ebp
	pop	ebp
	ret	4
??_GWin32DateFormat@icu_56@@UAEPAXI@Z ENDP		; icu_56::Win32DateFormat::`scalar deleting destructor'
_TEXT	ENDS
PUBLIC	??4Win32DateFormat@icu_56@@QAEAAV01@ABV01@@Z	; icu_56::Win32DateFormat::operator=
PUBLIC	??0Win32DateFormat@icu_56@@QAE@ABV01@@Z		; icu_56::Win32DateFormat::Win32DateFormat
EXTRN	__imp_??0Locale@icu_56@@QAE@XZ:PROC
EXTRN	??0DateFormat@icu_56@@IAE@ABV01@@Z:PROC		; icu_56::DateFormat::DateFormat
;	COMDAT xdata$x
xdata$x	SEGMENT
__unwindtable$??0Win32DateFormat@icu_56@@QAE@ABV01@@Z DD 0ffffffffH
	DD	FLAT:__unwindfunclet$??0Win32DateFormat@icu_56@@QAE@ABV01@@Z$0
	DD	00H
	DD	FLAT:__unwindfunclet$??0Win32DateFormat@icu_56@@QAE@ABV01@@Z$1
	DD	01H
	DD	FLAT:__unwindfunclet$??0Win32DateFormat@icu_56@@QAE@ABV01@@Z$2
__ehfuncinfo$??0Win32DateFormat@icu_56@@QAE@ABV01@@Z DD 019930522H
	DD	03H
	DD	FLAT:__unwindtable$??0Win32DateFormat@icu_56@@QAE@ABV01@@Z
	DD	2 DUP(00H)
	DD	2 DUP(00H)
	DD	00H
	DD	01H
; Function compile flags: /Odtp /RTCsu /ZI
xdata$x	ENDS
;	COMDAT ??0Win32DateFormat@icu_56@@QAE@ABV01@@Z
_TEXT	SEGMENT
_this$ = -20						; size = 4
__$EHRec$ = -12						; size = 12
_other$ = 8						; size = 4
??0Win32DateFormat@icu_56@@QAE@ABV01@@Z PROC		; icu_56::Win32DateFormat::Win32DateFormat, COMDAT
; _this$ = ecx
; Line 109
	push	ebp
	mov	ebp, esp
	push	-1
	push	__ehhandler$??0Win32DateFormat@icu_56@@QAE@ABV01@@Z
	mov	eax, DWORD PTR fs:0
	push	eax
	sub	esp, 204				; 000000ccH
	push	ebx
	push	esi
	push	edi
	push	ecx
	lea	edi, DWORD PTR [ebp-216]
	mov	ecx, 51					; 00000033H
	mov	eax, -858993460				; ccccccccH
	rep stosd
	pop	ecx
	mov	eax, DWORD PTR ___security_cookie
	xor	eax, ebp
	push	eax
	lea	eax, DWORD PTR __$EHRec$[ebp]
	mov	DWORD PTR fs:0, eax
	mov	DWORD PTR _this$[ebp], ecx
	mov	eax, DWORD PTR _other$[ebp]
	push	eax
	mov	ecx, DWORD PTR _this$[ebp]
	call	??0DateFormat@icu_56@@IAE@ABV01@@Z	; icu_56::DateFormat::DateFormat
	mov	DWORD PTR __$EHRec$[ebp+8], 0
	mov	eax, DWORD PTR _this$[ebp]
	mov	DWORD PTR [eax], OFFSET ??_7Win32DateFormat@icu_56@@6B@
	mov	ecx, DWORD PTR _this$[ebp]
	add	ecx, 348				; 0000015cH
	mov	esi, esp
	call	DWORD PTR __imp_??0Locale@icu_56@@QAE@XZ
	cmp	esi, esp
	call	__RTC_CheckEsp
	mov	BYTE PTR __$EHRec$[ebp+8], 1
	mov	ecx, DWORD PTR _this$[ebp]
	add	ecx, 556				; 0000022cH
	mov	esi, esp
	call	DWORD PTR __imp_??0UnicodeString@icu_56@@QAE@XZ
	cmp	esi, esp
	call	__RTC_CheckEsp
	mov	BYTE PTR __$EHRec$[ebp+8], 2
; Line 110
	mov	eax, DWORD PTR _other$[ebp]
	push	eax
	mov	ecx, DWORD PTR _this$[ebp]
	call	??4Win32DateFormat@icu_56@@QAEAAV01@ABV01@@Z ; icu_56::Win32DateFormat::operator=
; Line 111
	mov	DWORD PTR __$EHRec$[ebp+8], -1
	mov	eax, DWORD PTR _this$[ebp]
	mov	ecx, DWORD PTR __$EHRec$[ebp]
	mov	DWORD PTR fs:0, ecx
	pop	ecx
	pop	edi
	pop	esi
	pop	ebx
	add	esp, 216				; 000000d8H
	cmp	ebp, esp
	call	__RTC_CheckEsp
	mov	esp, ebp
	pop	ebp
	ret	4
_TEXT	ENDS
;	COMDAT text$x
text$x	SEGMENT
__unwindfunclet$??0Win32DateFormat@icu_56@@QAE@ABV01@@Z$0:
	mov	ecx, DWORD PTR _this$[ebp]
	jmp	??1DateFormat@icu_56@@UAE@XZ		; icu_56::DateFormat::~DateFormat
__unwindfunclet$??0Win32DateFormat@icu_56@@QAE@ABV01@@Z$1:
	mov	ecx, DWORD PTR _this$[ebp]
	add	ecx, 348				; 0000015cH
	mov	esi, esp
	call	DWORD PTR __imp_??1Locale@icu_56@@UAE@XZ
	cmp	esi, esp
	jmp	__RTC_CheckEsp
__unwindfunclet$??0Win32DateFormat@icu_56@@QAE@ABV01@@Z$2:
	mov	ecx, DWORD PTR _this$[ebp]
	add	ecx, 556				; 0000022cH
	mov	esi, esp
	call	DWORD PTR __imp_??1UnicodeString@icu_56@@UAE@XZ
	cmp	esi, esp
	jmp	__RTC_CheckEsp
__ehhandler$??0Win32DateFormat@icu_56@@QAE@ABV01@@Z:
	mov	edx, DWORD PTR [esp+8]
	lea	eax, DWORD PTR [edx+12]
	mov	ecx, DWORD PTR [edx-220]
	xor	ecx, eax
	call	@__security_check_cookie@4
	mov	eax, OFFSET __ehfuncinfo$??0Win32DateFormat@icu_56@@QAE@ABV01@@Z
	jmp	___CxxFrameHandler3
text$x	ENDS
??0Win32DateFormat@icu_56@@QAE@ABV01@@Z ENDP		; icu_56::Win32DateFormat::Win32DateFormat
EXTRN	_uprv_free_56:PROC
;	COMDAT xdata$x
xdata$x	SEGMENT
__unwindtable$??1Win32DateFormat@icu_56@@UAE@XZ DD 0ffffffffH
	DD	FLAT:__unwindfunclet$??1Win32DateFormat@icu_56@@UAE@XZ$0
	DD	00H
	DD	FLAT:__unwindfunclet$??1Win32DateFormat@icu_56@@UAE@XZ$1
	DD	01H
	DD	FLAT:__unwindfunclet$??1Win32DateFormat@icu_56@@UAE@XZ$2
__ehfuncinfo$??1Win32DateFormat@icu_56@@UAE@XZ DD 019930522H
	DD	03H
	DD	FLAT:__unwindtable$??1Win32DateFormat@icu_56@@UAE@XZ
	DD	2 DUP(00H)
	DD	2 DUP(00H)
	DD	00H
	DD	01H
; Function compile flags: /Odtp /RTCsu /ZI
xdata$x	ENDS
;	COMDAT ??1Win32DateFormat@icu_56@@UAE@XZ
_TEXT	SEGMENT
tv91 = -244						; size = 4
$T81035 = -236						; size = 4
$T81036 = -224						; size = 4
_this$ = -20						; size = 4
__$EHRec$ = -12						; size = 12
??1Win32DateFormat@icu_56@@UAE@XZ PROC			; icu_56::Win32DateFormat::~Win32DateFormat, COMDAT
; _this$ = ecx
; Line 114
	push	ebp
	mov	ebp, esp
	push	-1
	push	__ehhandler$??1Win32DateFormat@icu_56@@UAE@XZ
	mov	eax, DWORD PTR fs:0
	push	eax
	sub	esp, 232				; 000000e8H
	push	ebx
	push	esi
	push	edi
	push	ecx
	lea	edi, DWORD PTR [ebp-244]
	mov	ecx, 58					; 0000003aH
	mov	eax, -858993460				; ccccccccH
	rep stosd
	pop	ecx
	mov	eax, DWORD PTR ___security_cookie
	xor	eax, ebp
	push	eax
	lea	eax, DWORD PTR __$EHRec$[ebp]
	mov	DWORD PTR fs:0, eax
	mov	DWORD PTR _this$[ebp], ecx
	mov	eax, DWORD PTR _this$[ebp]
	mov	DWORD PTR [eax], OFFSET ??_7Win32DateFormat@icu_56@@6B@
	mov	DWORD PTR __$EHRec$[ebp+8], 2
; Line 116
	mov	eax, DWORD PTR _this$[ebp]
	mov	ecx, DWORD PTR [eax+620]
	push	ecx
	call	_uprv_free_56
	add	esp, 4
; Line 117
	mov	eax, DWORD PTR _this$[ebp]
	mov	ecx, DWORD PTR [eax+336]
	mov	DWORD PTR $T81036[ebp], ecx
	mov	edx, DWORD PTR $T81036[ebp]
	mov	DWORD PTR $T81035[ebp], edx
	cmp	DWORD PTR $T81035[ebp], 0
	je	SHORT $LN3@Win32DateF@2
	mov	esi, esp
	push	1
	mov	eax, DWORD PTR $T81035[ebp]
	mov	edx, DWORD PTR [eax]
	mov	ecx, DWORD PTR $T81035[ebp]
	mov	eax, DWORD PTR [edx]
	call	eax
	cmp	esi, esp
	call	__RTC_CheckEsp
	mov	DWORD PTR tv91[ebp], eax
	jmp	SHORT $LN1@Win32DateF@2
$LN3@Win32DateF@2:
	mov	DWORD PTR tv91[ebp], 0
$LN1@Win32DateF@2:
; Line 118
	mov	BYTE PTR __$EHRec$[ebp+8], 1
	mov	ecx, DWORD PTR _this$[ebp]
	add	ecx, 556				; 0000022cH
	mov	esi, esp
	call	DWORD PTR __imp_??1UnicodeString@icu_56@@UAE@XZ
	cmp	esi, esp
	call	__RTC_CheckEsp
	mov	BYTE PTR __$EHRec$[ebp+8], 0
	mov	ecx, DWORD PTR _this$[ebp]
	add	ecx, 348				; 0000015cH
	mov	esi, esp
	call	DWORD PTR __imp_??1Locale@icu_56@@UAE@XZ
	cmp	esi, esp
	call	__RTC_CheckEsp
	mov	DWORD PTR __$EHRec$[ebp+8], -1
	mov	ecx, DWORD PTR _this$[ebp]
	call	??1DateFormat@icu_56@@UAE@XZ		; icu_56::DateFormat::~DateFormat
	mov	ecx, DWORD PTR __$EHRec$[ebp]
	mov	DWORD PTR fs:0, ecx
	pop	ecx
	pop	edi
	pop	esi
	pop	ebx
	add	esp, 244				; 000000f4H
	cmp	ebp, esp
	call	__RTC_CheckEsp
	mov	esp, ebp
	pop	ebp
	ret	0
_TEXT	ENDS
;	COMDAT text$x
text$x	SEGMENT
__unwindfunclet$??1Win32DateFormat@icu_56@@UAE@XZ$0:
	mov	ecx, DWORD PTR _this$[ebp]
	jmp	??1DateFormat@icu_56@@UAE@XZ		; icu_56::DateFormat::~DateFormat
__unwindfunclet$??1Win32DateFormat@icu_56@@UAE@XZ$1:
	mov	ecx, DWORD PTR _this$[ebp]
	add	ecx, 348				; 0000015cH
	mov	esi, esp
	call	DWORD PTR __imp_??1Locale@icu_56@@UAE@XZ
	cmp	esi, esp
	jmp	__RTC_CheckEsp
__unwindfunclet$??1Win32DateFormat@icu_56@@UAE@XZ$2:
	mov	ecx, DWORD PTR _this$[ebp]
	add	ecx, 556				; 0000022cH
	mov	esi, esp
	call	DWORD PTR __imp_??1UnicodeString@icu_56@@UAE@XZ
	cmp	esi, esp
	jmp	__RTC_CheckEsp
__ehhandler$??1Win32DateFormat@icu_56@@UAE@XZ:
	mov	edx, DWORD PTR [esp+8]
	lea	eax, DWORD PTR [edx+12]
	mov	ecx, DWORD PTR [edx-248]
	xor	ecx, eax
	call	@__security_check_cookie@4
	mov	eax, OFFSET __ehfuncinfo$??1Win32DateFormat@icu_56@@UAE@XZ
	jmp	___CxxFrameHandler3
text$x	ENDS
??1Win32DateFormat@icu_56@@UAE@XZ ENDP			; icu_56::Win32DateFormat::~Win32DateFormat
EXTRN	__imp_??4Locale@icu_56@@QAEAAV01@ABV01@@Z:PROC
EXTRN	??4DateFormat@icu_56@@IAEAAV01@ABV01@@Z:PROC	; icu_56::DateFormat::operator=
;	COMDAT xdata$x
xdata$x	SEGMENT
__unwindtable$??4Win32DateFormat@icu_56@@QAEAAV01@ABV01@@Z DD 0ffffffffH
	DD	FLAT:__unwindfunclet$??4Win32DateFormat@icu_56@@QAEAAV01@ABV01@@Z$0
__ehfuncinfo$??4Win32DateFormat@icu_56@@QAEAAV01@ABV01@@Z DD 019930522H
	DD	01H
	DD	FLAT:__unwindtable$??4Win32DateFormat@icu_56@@QAEAAV01@ABV01@@Z
	DD	2 DUP(00H)
	DD	2 DUP(00H)
	DD	00H
	DD	01H
; Function compile flags: /Odtp /RTCsu /ZI
xdata$x	ENDS
;	COMDAT ??4Win32DateFormat@icu_56@@QAEAAV01@ABV01@@Z
_TEXT	SEGMENT
tv83 = -248						; size = 4
tv80 = -244						; size = 4
$T81050 = -236						; size = 4
$T81051 = -224						; size = 4
_this$ = -20						; size = 4
__$EHRec$ = -12						; size = 12
_other$ = 8						; size = 4
??4Win32DateFormat@icu_56@@QAEAAV01@ABV01@@Z PROC	; icu_56::Win32DateFormat::operator=, COMDAT
; _this$ = ecx
; Line 121
	push	ebp
	mov	ebp, esp
	push	-1
	push	__ehhandler$??4Win32DateFormat@icu_56@@QAEAAV01@ABV01@@Z
	mov	eax, DWORD PTR fs:0
	push	eax
	sub	esp, 236				; 000000ecH
	push	ebx
	push	esi
	push	edi
	push	ecx
	lea	edi, DWORD PTR [ebp-248]
	mov	ecx, 59					; 0000003bH
	mov	eax, -858993460				; ccccccccH
	rep stosd
	pop	ecx
	mov	eax, DWORD PTR ___security_cookie
	xor	eax, ebp
	push	eax
	lea	eax, DWORD PTR __$EHRec$[ebp]
	mov	DWORD PTR fs:0, eax
	mov	DWORD PTR _this$[ebp], ecx
; Line 123
	mov	eax, DWORD PTR _other$[ebp]
	push	eax
	mov	ecx, DWORD PTR _this$[ebp]
	call	??4DateFormat@icu_56@@IAEAAV01@ABV01@@Z	; icu_56::DateFormat::operator=
; Line 127
	mov	eax, DWORD PTR _other$[ebp]
	cmp	DWORD PTR [eax+336], 0
	jne	SHORT $LN5@operator@2
	mov	DWORD PTR tv80[ebp], 0
	jmp	$LN6@operator@2
$LN5@operator@2:
	mov	esi, esp
	push	64					; 00000040H
	call	DWORD PTR __imp_??2UMemory@icu_56@@SAPAXI@Z
	add	esp, 4
	cmp	esi, esp
	call	__RTC_CheckEsp
	mov	DWORD PTR $T81051[ebp], eax
	mov	DWORD PTR __$EHRec$[ebp+8], 0
	cmp	DWORD PTR $T81051[ebp], 0
	je	SHORT $LN3@operator@2
	mov	esi, esp
	mov	ecx, DWORD PTR _other$[ebp]
	mov	edx, DWORD PTR [ecx+336]
	push	edx
	mov	ecx, DWORD PTR $T81051[ebp]
	call	DWORD PTR __imp_??0UnicodeString@icu_56@@QAE@ABV01@@Z
	cmp	esi, esp
	call	__RTC_CheckEsp
	mov	eax, DWORD PTR $T81051[ebp]
	mov	DWORD PTR [eax], OFFSET ??_SUnicodeString@icu_56@@6B@
	mov	ecx, DWORD PTR $T81051[ebp]
	mov	DWORD PTR tv83[ebp], ecx
	jmp	SHORT $LN4@operator@2
$LN3@operator@2:
	mov	DWORD PTR tv83[ebp], 0
$LN4@operator@2:
	mov	edx, DWORD PTR tv83[ebp]
	mov	DWORD PTR $T81050[ebp], edx
	mov	DWORD PTR __$EHRec$[ebp+8], -1
	mov	eax, DWORD PTR $T81050[ebp]
	mov	DWORD PTR tv80[ebp], eax
$LN6@operator@2:
	mov	ecx, DWORD PTR _this$[ebp]
	mov	edx, DWORD PTR tv80[ebp]
	mov	DWORD PTR [ecx+336], edx
; Line 128
	mov	eax, DWORD PTR _this$[ebp]
	mov	ecx, DWORD PTR _other$[ebp]
	mov	edx, DWORD PTR [ecx+340]
	mov	DWORD PTR [eax+340], edx
; Line 129
	mov	eax, DWORD PTR _this$[ebp]
	mov	ecx, DWORD PTR _other$[ebp]
	mov	edx, DWORD PTR [ecx+344]
	mov	DWORD PTR [eax+344], edx
; Line 130
	mov	eax, DWORD PTR _other$[ebp]
	add	eax, 348				; 0000015cH
	mov	esi, esp
	push	eax
	mov	ecx, DWORD PTR _this$[ebp]
	add	ecx, 348				; 0000015cH
	call	DWORD PTR __imp_??4Locale@icu_56@@QAEAAV01@ABV01@@Z
	cmp	esi, esp
	call	__RTC_CheckEsp
; Line 131
	mov	eax, DWORD PTR _this$[ebp]
	mov	ecx, DWORD PTR _other$[ebp]
	mov	edx, DWORD PTR [ecx+552]
	mov	DWORD PTR [eax+552], edx
; Line 133
	mov	eax, DWORD PTR _other$[ebp]
	add	eax, 556				; 0000022cH
	mov	esi, esp
	push	eax
	mov	ecx, DWORD PTR _this$[ebp]
	add	ecx, 556				; 0000022cH
	call	DWORD PTR __imp_??4UnicodeString@icu_56@@QAEAAV01@ABV01@@Z
	cmp	esi, esp
	call	__RTC_CheckEsp
; Line 135
	push	172					; 000000acH
	call	_uprv_malloc_56
	add	esp, 4
	mov	ecx, DWORD PTR _this$[ebp]
	mov	DWORD PTR [ecx+620], eax
; Line 136
	mov	eax, DWORD PTR _other$[ebp]
	mov	esi, DWORD PTR [eax+620]
	mov	ecx, DWORD PTR _this$[ebp]
	mov	edi, DWORD PTR [ecx+620]
	mov	ecx, 43					; 0000002bH
	rep movsd
; Line 138
	mov	eax, DWORD PTR _this$[ebp]
; Line 139
	mov	ecx, DWORD PTR __$EHRec$[ebp]
	mov	DWORD PTR fs:0, ecx
	pop	ecx
	pop	edi
	pop	esi
	pop	ebx
	add	esp, 248				; 000000f8H
	cmp	ebp, esp
	call	__RTC_CheckEsp
	mov	esp, ebp
	pop	ebp
	ret	4
_TEXT	ENDS
;	COMDAT text$x
text$x	SEGMENT
__unwindfunclet$??4Win32DateFormat@icu_56@@QAEAAV01@ABV01@@Z$0:
	mov	esi, esp
	mov	eax, DWORD PTR $T81051[ebp]
	push	eax
	call	DWORD PTR __imp_??3UMemory@icu_56@@SAXPAX@Z
	add	esp, 4
	cmp	esi, esp
	jmp	__RTC_CheckEsp
__ehhandler$??4Win32DateFormat@icu_56@@QAEAAV01@ABV01@@Z:
	mov	edx, DWORD PTR [esp+8]
	lea	eax, DWORD PTR [edx+12]
	mov	ecx, DWORD PTR [edx-252]
	xor	ecx, eax
	call	@__security_check_cookie@4
	mov	eax, OFFSET __ehfuncinfo$??4Win32DateFormat@icu_56@@QAEAAV01@ABV01@@Z
	jmp	___CxxFrameHandler3
text$x	ENDS
??4Win32DateFormat@icu_56@@QAEAAV01@ABV01@@Z ENDP	; icu_56::Win32DateFormat::operator=
;	COMDAT xdata$x
xdata$x	SEGMENT
__unwindtable$?clone@Win32DateFormat@icu_56@@UBEPAVFormat@2@XZ DD 0ffffffffH
	DD	FLAT:__unwindfunclet$?clone@Win32DateFormat@icu_56@@UBEPAVFormat@2@XZ$0
__ehfuncinfo$?clone@Win32DateFormat@icu_56@@UBEPAVFormat@2@XZ DD 019930522H
	DD	01H
	DD	FLAT:__unwindtable$?clone@Win32DateFormat@icu_56@@UBEPAVFormat@2@XZ
	DD	2 DUP(00H)
	DD	2 DUP(00H)
	DD	00H
	DD	01H
; Function compile flags: /Odtp /RTCsu /ZI
xdata$x	ENDS
;	COMDAT ?clone@Win32DateFormat@icu_56@@UBEPAVFormat@2@XZ
_TEXT	SEGMENT
tv75 = -244						; size = 4
$T81065 = -236						; size = 4
$T81066 = -224						; size = 4
_this$ = -20						; size = 4
__$EHRec$ = -12						; size = 12
?clone@Win32DateFormat@icu_56@@UBEPAVFormat@2@XZ PROC	; icu_56::Win32DateFormat::clone, COMDAT
; _this$ = ecx
; Line 142
	push	ebp
	mov	ebp, esp
	push	-1
	push	__ehhandler$?clone@Win32DateFormat@icu_56@@UBEPAVFormat@2@XZ
	mov	eax, DWORD PTR fs:0
	push	eax
	sub	esp, 232				; 000000e8H
	push	ebx
	push	esi
	push	edi
	push	ecx
	lea	edi, DWORD PTR [ebp-244]
	mov	ecx, 58					; 0000003aH
	mov	eax, -858993460				; ccccccccH
	rep stosd
	pop	ecx
	mov	eax, DWORD PTR ___security_cookie
	xor	eax, ebp
	push	eax
	lea	eax, DWORD PTR __$EHRec$[ebp]
	mov	DWORD PTR fs:0, eax
	mov	DWORD PTR _this$[ebp], ecx
; Line 143
	mov	esi, esp
	push	624					; 00000270H
	call	DWORD PTR __imp_??2UMemory@icu_56@@SAPAXI@Z
	add	esp, 4
	cmp	esi, esp
	call	__RTC_CheckEsp
	mov	DWORD PTR $T81066[ebp], eax
	mov	DWORD PTR __$EHRec$[ebp+8], 0
	cmp	DWORD PTR $T81066[ebp], 0
	je	SHORT $LN3@clone
	mov	eax, DWORD PTR _this$[ebp]
	push	eax
	mov	ecx, DWORD PTR $T81066[ebp]
	call	??0Win32DateFormat@icu_56@@QAE@ABV01@@Z	; icu_56::Win32DateFormat::Win32DateFormat
	mov	DWORD PTR tv75[ebp], eax
	jmp	SHORT $LN4@clone
$LN3@clone:
	mov	DWORD PTR tv75[ebp], 0
$LN4@clone:
	mov	ecx, DWORD PTR tv75[ebp]
	mov	DWORD PTR $T81065[ebp], ecx
	mov	DWORD PTR __$EHRec$[ebp+8], -1
	mov	eax, DWORD PTR $T81065[ebp]
; Line 144
	mov	ecx, DWORD PTR __$EHRec$[ebp]
	mov	DWORD PTR fs:0, ecx
	pop	ecx
	pop	edi
	pop	esi
	pop	ebx
	add	esp, 244				; 000000f4H
	cmp	ebp, esp
	call	__RTC_CheckEsp
	mov	esp, ebp
	pop	ebp
	ret	0
_TEXT	ENDS
;	COMDAT text$x
text$x	SEGMENT
__unwindfunclet$?clone@Win32DateFormat@icu_56@@UBEPAVFormat@2@XZ$0:
	mov	esi, esp
	mov	eax, DWORD PTR $T81066[ebp]
	push	eax
	call	DWORD PTR __imp_??3UMemory@icu_56@@SAXPAX@Z
	add	esp, 4
	cmp	esi, esp
	jmp	__RTC_CheckEsp
__ehhandler$?clone@Win32DateFormat@icu_56@@UBEPAVFormat@2@XZ:
	mov	edx, DWORD PTR [esp+8]
	lea	eax, DWORD PTR [edx+12]
	mov	ecx, DWORD PTR [edx-248]
	xor	ecx, eax
	call	@__security_check_cookie@4
	mov	eax, OFFSET __ehfuncinfo$?clone@Win32DateFormat@icu_56@@UBEPAVFormat@2@XZ
	jmp	___CxxFrameHandler3
text$x	ENDS
?clone@Win32DateFormat@icu_56@@UBEPAVFormat@2@XZ ENDP	; icu_56::Win32DateFormat::clone
PUBLIC	?formatTime@Win32DateFormat@icu_56@@ABEXPBU_SYSTEMTIME@@AAVUnicodeString@2@@Z ; icu_56::Win32DateFormat::formatTime
PUBLIC	?formatDate@Win32DateFormat@icu_56@@ABEXPBU_SYSTEMTIME@@AAVUnicodeString@2@@Z ; icu_56::Win32DateFormat::formatDate
PUBLIC	?setTimeZoneInfo@Win32DateFormat@icu_56@@ABE?AVUnicodeString@2@PAU_TIME_ZONE_INFORMATION@@ABVTimeZone@2@@Z ; icu_56::Win32DateFormat::setTimeZoneInfo
PUBLIC	__$ArrayPad$
EXTRN	?format@MessageFormat@icu_56@@SAAAVUnicodeString@2@ABV32@PBVFormattable@2@HAAV32@AAW4UErrorCode@@@Z:PROC ; icu_56::MessageFormat::format
EXTRN	_strcmp:PROC
EXTRN	?adoptString@Formattable@icu_56@@QAEXPAVUnicodeString@2@@Z:PROC ; icu_56::Formattable::adoptString
EXTRN	??_L@YGXPAXIHP6EX0@Z1@Z:PROC			; `eh vector constructor iterator'
EXTRN	??0Formattable@icu_56@@QAE@XZ:PROC		; icu_56::Formattable::Formattable
EXTRN	??1Formattable@icu_56@@UAE@XZ:PROC		; icu_56::Formattable::~Formattable
EXTRN	__imp__SystemTimeToTzSpecificLocalTime@12:PROC
EXTRN	__imp__FileTimeToSystemTime@8:PROC
EXTRN	_utmscale_toInt64_56:PROC
EXTRN	_utmscale_fromInt64_56:PROC
EXTRN	?getTimeZone@Calendar@icu_56@@QBEABVTimeZone@2@XZ:PROC ; icu_56::Calendar::getTimeZone
EXTRN	__allshr:PROC
EXTRN	__ftol2:PROC
;	COMDAT xdata$x
xdata$x	SEGMENT
__unwindtable$?format@Win32DateFormat@icu_56@@UBEAAVUnicodeString@2@AAVCalendar@2@AAV32@AAVFieldPosition@2@@Z DD 0ffffffffH
	DD	FLAT:__unwindfunclet$?format@Win32DateFormat@icu_56@@UBEAAVUnicodeString@2@AAVCalendar@2@AAV32@AAVFieldPosition@2@@Z$1
	DD	0ffffffffH
	DD	FLAT:__unwindfunclet$?format@Win32DateFormat@icu_56@@UBEAAVUnicodeString@2@AAVCalendar@2@AAV32@AAVFieldPosition@2@@Z$2
	DD	0ffffffffH
	DD	FLAT:__unwindfunclet$?format@Win32DateFormat@icu_56@@UBEAAVUnicodeString@2@AAVCalendar@2@AAV32@AAVFieldPosition@2@@Z$3
__ehfuncinfo$?format@Win32DateFormat@icu_56@@UBEAAVUnicodeString@2@AAVCalendar@2@AAV32@AAVFieldPosition@2@@Z DD 019930522H
	DD	03H
	DD	FLAT:__unwindtable$?format@Win32DateFormat@icu_56@@UBEAAVUnicodeString@2@AAVCalendar@2@AAV32@AAVFieldPosition@2@@Z
	DD	2 DUP(00H)
	DD	2 DUP(00H)
	DD	00H
	DD	01H
; Function compile flags: /Odtp /RTCsu /ZI
xdata$x	ENDS
;	COMDAT ?format@Win32DateFormat@icu_56@@UBEAAVUnicodeString@2@AAVCalendar@2@AAV32@AAVFieldPosition@2@@Z
_TEXT	SEGMENT
tv145 = -1136						; size = 4
tv139 = -1136						; size = 4
$T81079 = -1128						; size = 4
$T81080 = -1116						; size = 4
$T81083 = -1104						; size = 4
$T81084 = -1092						; size = 4
$T73641 = -1080						; size = 64
_timeDateArray$73657 = -816				; size = 448
_pattern$73656 = -360					; size = 4
_time$73651 = -348					; size = 4
_date$73646 = -336					; size = 4
_uft$ = -324						; size = 8
_uct$ = -308						; size = 8
_tz$ = -292						; size = 4
_status$ = -280						; size = 4
_tzi$ = -268						; size = 172
_st_local$ = -88					; size = 16
_st_gmt$ = -64						; size = 16
_ft$ = -40						; size = 8
_this$ = -24						; size = 4
__$ArrayPad$ = -16					; size = 4
__$EHRec$ = -12						; size = 12
_cal$ = 8						; size = 4
_appendTo$ = 12						; size = 4
_pos$ = 16						; size = 4
?format@Win32DateFormat@icu_56@@UBEAAVUnicodeString@2@AAVCalendar@2@AAV32@AAVFieldPosition@2@@Z PROC ; icu_56::Win32DateFormat::format, COMDAT
; _this$ = ecx
; Line 148
	push	ebp
	mov	ebp, esp
	push	-1
	push	__ehhandler$?format@Win32DateFormat@icu_56@@UBEAAVUnicodeString@2@AAVCalendar@2@AAV32@AAVFieldPosition@2@@Z
	mov	eax, DWORD PTR fs:0
	push	eax
	sub	esp, 1124				; 00000464H
	push	ebx
	push	esi
	push	edi
	push	ecx
	lea	edi, DWORD PTR [ebp-1136]
	mov	ecx, 281				; 00000119H
	mov	eax, -858993460				; ccccccccH
	rep stosd
	pop	ecx
	mov	eax, DWORD PTR ___security_cookie
	xor	eax, ebp
	mov	DWORD PTR __$ArrayPad$[ebp], eax
	push	eax
	lea	eax, DWORD PTR __$EHRec$[ebp]
	mov	DWORD PTR fs:0, eax
	mov	DWORD PTR _this$[ebp], ecx
; Line 152
	mov	eax, DWORD PTR _this$[ebp]
	mov	esi, DWORD PTR [eax+620]
	mov	ecx, 43					; 0000002bH
	lea	edi, DWORD PTR _tzi$[ebp]
	rep movsd
; Line 153
	mov	DWORD PTR _status$[ebp], 0
; Line 154
	mov	ecx, DWORD PTR _cal$[ebp]
	call	?getTimeZone@Calendar@icu_56@@QBEABVTimeZone@2@XZ ; icu_56::Calendar::getTimeZone
	mov	DWORD PTR _tz$[ebp], eax
; Line 157
	mov	eax, DWORD PTR _tz$[ebp]
	push	eax
	lea	ecx, DWORD PTR _tzi$[ebp]
	push	ecx
	lea	edx, DWORD PTR $T73641[ebp]
	push	edx
	mov	ecx, DWORD PTR _this$[ebp]
	call	?setTimeZoneInfo@Win32DateFormat@icu_56@@ABE?AVUnicodeString@2@PAU_TIME_ZONE_INFORMATION@@ABVTimeZone@2@@Z ; icu_56::Win32DateFormat::setTimeZoneInfo
	mov	esi, esp
	lea	ecx, DWORD PTR $T73641[ebp]
	call	DWORD PTR __imp_??1UnicodeString@icu_56@@UAE@XZ
	cmp	esi, esp
	call	__RTC_CheckEsp
; Line 159
	lea	eax, DWORD PTR _status$[ebp]
	push	eax
	push	2
	lea	ecx, DWORD PTR _status$[ebp]
	push	ecx
	mov	ecx, DWORD PTR _cal$[ebp]
	call	?getTime@Calendar@icu_56@@QBENAAW4UErrorCode@@@Z ; icu_56::Calendar::getTime
	call	__ftol2
	push	edx
	push	eax
	call	_utmscale_fromInt64_56
	add	esp, 16					; 00000010H
	mov	DWORD PTR _uct$[ebp], eax
	mov	DWORD PTR _uct$[ebp+4], edx
; Line 160
	lea	eax, DWORD PTR _status$[ebp]
	push	eax
	push	3
	mov	ecx, DWORD PTR _uct$[ebp+4]
	push	ecx
	mov	edx, DWORD PTR _uct$[ebp]
	push	edx
	call	_utmscale_toInt64_56
	add	esp, 16					; 00000010H
	mov	DWORD PTR _uft$[ebp], eax
	mov	DWORD PTR _uft$[ebp+4], edx
; Line 162
	mov	eax, DWORD PTR _uft$[ebp]
	mov	ecx, DWORD PTR _uft$[ebp+4]
	and	ecx, 0
	mov	DWORD PTR _ft$[ebp], eax
; Line 163
	mov	eax, DWORD PTR _uft$[ebp]
	mov	edx, DWORD PTR _uft$[ebp+4]
	mov	cl, 32					; 00000020H
	call	__allshr
	and	edx, 0
	mov	DWORD PTR _ft$[ebp+4], eax
; Line 165
	mov	esi, esp
	lea	eax, DWORD PTR _st_gmt$[ebp]
	push	eax
	lea	ecx, DWORD PTR _ft$[ebp]
	push	ecx
	call	DWORD PTR __imp__FileTimeToSystemTime@8
	cmp	esi, esp
	call	__RTC_CheckEsp
; Line 166
	mov	esi, esp
	lea	eax, DWORD PTR _st_local$[ebp]
	push	eax
	lea	ecx, DWORD PTR _st_gmt$[ebp]
	push	ecx
	lea	edx, DWORD PTR _tzi$[ebp]
	push	edx
	call	DWORD PTR __imp__SystemTimeToTzSpecificLocalTime@12
	cmp	esi, esp
	call	__RTC_CheckEsp
; Line 169
	mov	eax, DWORD PTR _this$[ebp]
	cmp	DWORD PTR [eax+344], -1
	je	$LN6@format
	mov	eax, DWORD PTR _this$[ebp]
	cmp	DWORD PTR [eax+340], -1
	je	$LN6@format
; Line 170
	mov	esi, esp
	push	64					; 00000040H
	call	DWORD PTR __imp_??2UMemory@icu_56@@SAPAXI@Z
	add	esp, 4
	cmp	esi, esp
	call	__RTC_CheckEsp
	mov	DWORD PTR $T81080[ebp], eax
	mov	DWORD PTR __$EHRec$[ebp+8], 0
	cmp	DWORD PTR $T81080[ebp], 0
	je	SHORT $LN9@format
	mov	esi, esp
	mov	ecx, DWORD PTR $T81080[ebp]
	call	DWORD PTR __imp_??0UnicodeString@icu_56@@QAE@XZ
	cmp	esi, esp
	call	__RTC_CheckEsp
	mov	eax, DWORD PTR $T81080[ebp]
	mov	DWORD PTR [eax], OFFSET ??_SUnicodeString@icu_56@@6B@
	mov	ecx, DWORD PTR $T81080[ebp]
	mov	DWORD PTR tv139[ebp], ecx
	jmp	SHORT $LN10@format
$LN9@format:
	mov	DWORD PTR tv139[ebp], 0
$LN10@format:
	mov	edx, DWORD PTR tv139[ebp]
	mov	DWORD PTR $T81079[ebp], edx
	mov	DWORD PTR __$EHRec$[ebp+8], -1
	mov	eax, DWORD PTR $T81079[ebp]
	mov	DWORD PTR _date$73646[ebp], eax
; Line 171
	mov	esi, esp
	push	64					; 00000040H
	call	DWORD PTR __imp_??2UMemory@icu_56@@SAPAXI@Z
	add	esp, 4
	cmp	esi, esp
	call	__RTC_CheckEsp
	mov	DWORD PTR $T81084[ebp], eax
	mov	DWORD PTR __$EHRec$[ebp+8], 1
	cmp	DWORD PTR $T81084[ebp], 0
	je	SHORT $LN11@format
	mov	esi, esp
	mov	ecx, DWORD PTR $T81084[ebp]
	call	DWORD PTR __imp_??0UnicodeString@icu_56@@QAE@XZ
	cmp	esi, esp
	call	__RTC_CheckEsp
	mov	eax, DWORD PTR $T81084[ebp]
	mov	DWORD PTR [eax], OFFSET ??_SUnicodeString@icu_56@@6B@
	mov	ecx, DWORD PTR $T81084[ebp]
	mov	DWORD PTR tv145[ebp], ecx
	jmp	SHORT $LN12@format
$LN11@format:
	mov	DWORD PTR tv145[ebp], 0
$LN12@format:
	mov	edx, DWORD PTR tv145[ebp]
	mov	DWORD PTR $T81083[ebp], edx
	mov	DWORD PTR __$EHRec$[ebp+8], -1
	mov	eax, DWORD PTR $T81083[ebp]
	mov	DWORD PTR _time$73651[ebp], eax
; Line 172
	mov	eax, DWORD PTR _this$[ebp]
	mov	ecx, DWORD PTR [eax+336]
	mov	DWORD PTR _pattern$73656[ebp], ecx
; Line 173
	push	OFFSET ??1Formattable@icu_56@@UAE@XZ	; icu_56::Formattable::~Formattable
	push	OFFSET ??0Formattable@icu_56@@QAE@XZ	; icu_56::Formattable::Formattable
	push	2
	push	224					; 000000e0H
	lea	eax, DWORD PTR _timeDateArray$73657[ebp]
	push	eax
	call	??_L@YGXPAXIHP6EX0@Z1@Z
	mov	DWORD PTR __$EHRec$[ebp+8], 2
; Line 175
	mov	eax, DWORD PTR _date$73646[ebp]
	push	eax
	lea	ecx, DWORD PTR _st_local$[ebp]
	push	ecx
	mov	ecx, DWORD PTR _this$[ebp]
	call	?formatDate@Win32DateFormat@icu_56@@ABEXPBU_SYSTEMTIME@@AAVUnicodeString@2@@Z ; icu_56::Win32DateFormat::formatDate
; Line 176
	mov	eax, DWORD PTR _time$73651[ebp]
	push	eax
	lea	ecx, DWORD PTR _st_local$[ebp]
	push	ecx
	mov	ecx, DWORD PTR _this$[ebp]
	call	?formatTime@Win32DateFormat@icu_56@@ABEXPBU_SYSTEMTIME@@AAVUnicodeString@2@@Z ; icu_56::Win32DateFormat::formatTime
; Line 178
	mov	eax, DWORD PTR _time$73651[ebp]
	push	eax
	lea	ecx, DWORD PTR _timeDateArray$73657[ebp]
	call	?adoptString@Formattable@icu_56@@QAEXPAVUnicodeString@2@@Z ; icu_56::Formattable::adoptString
; Line 179
	mov	eax, DWORD PTR _date$73646[ebp]
	push	eax
	lea	ecx, DWORD PTR _timeDateArray$73657[ebp+224]
	call	?adoptString@Formattable@icu_56@@QAEXPAVUnicodeString@2@@Z ; icu_56::Formattable::adoptString
; Line 181
	mov	eax, DWORD PTR _cal$[ebp]
	mov	edx, DWORD PTR [eax]
	mov	esi, esp
	mov	ecx, DWORD PTR _cal$[ebp]
	mov	eax, DWORD PTR [edx+88]
	call	eax
	cmp	esi, esp
	call	__RTC_CheckEsp
	push	eax
	mov	ecx, DWORD PTR _this$[ebp]
	mov	edx, DWORD PTR [ecx+320]
	mov	eax, DWORD PTR _this$[ebp]
	mov	ecx, DWORD PTR [eax+320]
	mov	edx, DWORD PTR [edx]
	mov	esi, esp
	mov	eax, DWORD PTR [edx+88]
	call	eax
	cmp	esi, esp
	call	__RTC_CheckEsp
	push	eax
	call	_strcmp
	add	esp, 8
	test	eax, eax
	je	SHORT $LN5@format
; Line 182
	lea	eax, DWORD PTR _status$[ebp]
	push	eax
	mov	ecx, DWORD PTR _this$[ebp]
	add	ecx, 348				; 0000015cH
	push	ecx
	mov	edx, DWORD PTR _cal$[ebp]
	push	edx
	mov	ecx, DWORD PTR _this$[ebp]
	call	?getTimeDateFormat@Win32DateFormat@icu_56@@ABEPAVUnicodeString@2@PBVCalendar@2@PBVLocale@2@AAW4UErrorCode@@@Z ; icu_56::Win32DateFormat::getTimeDateFormat
	mov	DWORD PTR _pattern$73656[ebp], eax
$LN5@format:
; Line 185
	lea	eax, DWORD PTR _status$[ebp]
	push	eax
	mov	ecx, DWORD PTR _appendTo$[ebp]
	push	ecx
	push	2
	lea	edx, DWORD PTR _timeDateArray$73657[ebp]
	push	edx
	mov	eax, DWORD PTR _pattern$73656[ebp]
	push	eax
	call	?format@MessageFormat@icu_56@@SAAAVUnicodeString@2@ABV32@PBVFormattable@2@HAAV32@AAW4UErrorCode@@@Z ; icu_56::MessageFormat::format
	add	esp, 20					; 00000014H
; Line 186
	mov	DWORD PTR __$EHRec$[ebp+8], -1
	push	OFFSET ??1Formattable@icu_56@@UAE@XZ	; icu_56::Formattable::~Formattable
	push	2
	push	224					; 000000e0H
	lea	eax, DWORD PTR _timeDateArray$73657[ebp]
	push	eax
	call	??_M@YGXPAXIHP6EX0@Z@Z
	jmp	SHORT $LN1@format
$LN6@format:
	mov	eax, DWORD PTR _this$[ebp]
	cmp	DWORD PTR [eax+344], -1
	je	SHORT $LN3@format
; Line 187
	mov	eax, DWORD PTR _appendTo$[ebp]
	push	eax
	lea	ecx, DWORD PTR _st_local$[ebp]
	push	ecx
	mov	ecx, DWORD PTR _this$[ebp]
	call	?formatDate@Win32DateFormat@icu_56@@ABEXPBU_SYSTEMTIME@@AAVUnicodeString@2@@Z ; icu_56::Win32DateFormat::formatDate
	jmp	SHORT $LN1@format
$LN3@format:
; Line 188
	mov	eax, DWORD PTR _this$[ebp]
	cmp	DWORD PTR [eax+340], -1
	je	SHORT $LN1@format
; Line 189
	mov	eax, DWORD PTR _appendTo$[ebp]
	push	eax
	lea	ecx, DWORD PTR _st_local$[ebp]
	push	ecx
	mov	ecx, DWORD PTR _this$[ebp]
	call	?formatTime@Win32DateFormat@icu_56@@ABEXPBU_SYSTEMTIME@@AAVUnicodeString@2@@Z ; icu_56::Win32DateFormat::formatTime
$LN1@format:
; Line 192
	mov	eax, DWORD PTR _appendTo$[ebp]
; Line 193
	push	edx
	mov	ecx, ebp
	push	eax
	lea	edx, DWORD PTR $LN25@format
	call	@_RTC_CheckStackVars@8
	pop	eax
	pop	edx
	mov	ecx, DWORD PTR __$EHRec$[ebp]
	mov	DWORD PTR fs:0, ecx
	pop	ecx
	pop	edi
	pop	esi
	pop	ebx
	mov	ecx, DWORD PTR __$ArrayPad$[ebp]
	xor	ecx, ebp
	call	@__security_check_cookie@4
	add	esp, 1136				; 00000470H
	cmp	ebp, esp
	call	__RTC_CheckEsp
	mov	esp, ebp
	pop	ebp
	ret	12					; 0000000cH
	npad	2
$LN25@format:
	DD	6
	DD	$LN24@format
$LN24@format:
	DD	-40					; ffffffd8H
	DD	8
	DD	$LN17@format
	DD	-64					; ffffffc0H
	DD	16					; 00000010H
	DD	$LN18@format
	DD	-88					; ffffffa8H
	DD	16					; 00000010H
	DD	$LN19@format
	DD	-268					; fffffef4H
	DD	172					; 000000acH
	DD	$LN20@format
	DD	-280					; fffffee8H
	DD	4
	DD	$LN21@format
	DD	-816					; fffffcd0H
	DD	448					; 000001c0H
	DD	$LN22@format
$LN22@format:
	DB	116					; 00000074H
	DB	105					; 00000069H
	DB	109					; 0000006dH
	DB	101					; 00000065H
	DB	68					; 00000044H
	DB	97					; 00000061H
	DB	116					; 00000074H
	DB	101					; 00000065H
	DB	65					; 00000041H
	DB	114					; 00000072H
	DB	114					; 00000072H
	DB	97					; 00000061H
	DB	121					; 00000079H
	DB	0
$LN21@format:
	DB	115					; 00000073H
	DB	116					; 00000074H
	DB	97					; 00000061H
	DB	116					; 00000074H
	DB	117					; 00000075H
	DB	115					; 00000073H
	DB	0
$LN20@format:
	DB	116					; 00000074H
	DB	122					; 0000007aH
	DB	105					; 00000069H
	DB	0
$LN19@format:
	DB	115					; 00000073H
	DB	116					; 00000074H
	DB	95					; 0000005fH
	DB	108					; 0000006cH
	DB	111					; 0000006fH
	DB	99					; 00000063H
	DB	97					; 00000061H
	DB	108					; 0000006cH
	DB	0
$LN18@format:
	DB	115					; 00000073H
	DB	116					; 00000074H
	DB	95					; 0000005fH
	DB	103					; 00000067H
	DB	109					; 0000006dH
	DB	116					; 00000074H
	DB	0
$LN17@format:
	DB	102					; 00000066H
	DB	116					; 00000074H
	DB	0
_TEXT	ENDS
;	COMDAT text$x
text$x	SEGMENT
__unwindfunclet$?format@Win32DateFormat@icu_56@@UBEAAVUnicodeString@2@AAVCalendar@2@AAV32@AAVFieldPosition@2@@Z$1:
	mov	esi, esp
	mov	eax, DWORD PTR $T81080[ebp]
	push	eax
	call	DWORD PTR __imp_??3UMemory@icu_56@@SAXPAX@Z
	add	esp, 4
	cmp	esi, esp
	jmp	__RTC_CheckEsp
__unwindfunclet$?format@Win32DateFormat@icu_56@@UBEAAVUnicodeString@2@AAVCalendar@2@AAV32@AAVFieldPosition@2@@Z$2:
	mov	esi, esp
	mov	eax, DWORD PTR $T81084[ebp]
	push	eax
	call	DWORD PTR __imp_??3UMemory@icu_56@@SAXPAX@Z
	add	esp, 4
	cmp	esi, esp
	jmp	__RTC_CheckEsp
__unwindfunclet$?format@Win32DateFormat@icu_56@@UBEAAVUnicodeString@2@AAVCalendar@2@AAV32@AAVFieldPosition@2@@Z$3:
	push	OFFSET ??1Formattable@icu_56@@UAE@XZ	; icu_56::Formattable::~Formattable
	push	2
	push	224					; 000000e0H
	lea	eax, DWORD PTR _timeDateArray$73657[ebp]
	push	eax
	call	??_M@YGXPAXIHP6EX0@Z@Z
	ret	0
__ehhandler$?format@Win32DateFormat@icu_56@@UBEAAVUnicodeString@2@AAVCalendar@2@AAV32@AAVFieldPosition@2@@Z:
	mov	edx, DWORD PTR [esp+8]
	lea	eax, DWORD PTR [edx+12]
	mov	ecx, DWORD PTR [edx-1140]
	xor	ecx, eax
	call	@__security_check_cookie@4
	mov	ecx, DWORD PTR [edx-4]
	xor	ecx, eax
	call	@__security_check_cookie@4
	mov	eax, OFFSET __ehfuncinfo$?format@Win32DateFormat@icu_56@@UBEAAVUnicodeString@2@AAVCalendar@2@AAV32@AAVFieldPosition@2@@Z
	jmp	___CxxFrameHandler3
text$x	ENDS
?format@Win32DateFormat@icu_56@@UBEAAVUnicodeString@2@AAVCalendar@2@AAV32@AAVFieldPosition@2@@Z ENDP ; icu_56::Win32DateFormat::format
EXTRN	__imp_?setErrorIndex@ParsePosition@icu_56@@QAEXH@Z:PROC
EXTRN	__imp_?getIndex@ParsePosition@icu_56@@QBEHXZ:PROC
; Function compile flags: /Odtp /RTCsu /ZI
;	COMDAT ?parse@Win32DateFormat@icu_56@@UBEXABVUnicodeString@2@AAVCalendar@2@AAVParsePosition@2@@Z
_TEXT	SEGMENT
_this$ = -8						; size = 4
_text$ = 8						; size = 4
_cal$ = 12						; size = 4
_pos$ = 16						; size = 4
?parse@Win32DateFormat@icu_56@@UBEXABVUnicodeString@2@AAVCalendar@2@AAVParsePosition@2@@Z PROC ; icu_56::Win32DateFormat::parse, COMDAT
; _this$ = ecx
; Line 196
	push	ebp
	mov	ebp, esp
	sub	esp, 204				; 000000ccH
	push	ebx
	push	esi
	push	edi
	push	ecx
	lea	edi, DWORD PTR [ebp-204]
	mov	ecx, 51					; 00000033H
	mov	eax, -858993460				; ccccccccH
	rep stosd
	pop	ecx
	mov	DWORD PTR _this$[ebp], ecx
; Line 197
	mov	esi, esp
	mov	ecx, DWORD PTR _pos$[ebp]
	call	DWORD PTR __imp_?getIndex@ParsePosition@icu_56@@QBEHXZ
	cmp	esi, esp
	call	__RTC_CheckEsp
	mov	esi, esp
	push	eax
	mov	ecx, DWORD PTR _pos$[ebp]
	call	DWORD PTR __imp_?setErrorIndex@ParsePosition@icu_56@@QAEXH@Z
	cmp	esi, esp
	call	__RTC_CheckEsp
; Line 198
	pop	edi
	pop	esi
	pop	ebx
	add	esp, 204				; 000000ccH
	cmp	ebp, esp
	call	__RTC_CheckEsp
	mov	esp, ebp
	pop	ebp
	ret	12					; 0000000cH
?parse@Win32DateFormat@icu_56@@UBEXABVUnicodeString@2@AAVCalendar@2@AAVParsePosition@2@@Z ENDP ; icu_56::Win32DateFormat::parse
_TEXT	ENDS
PUBLIC	__$ArrayPad$
EXTRN	__imp_??4UnicodeString@icu_56@@QAEAAV01@$$QAV01@@Z:PROC
;	COMDAT xdata$x
xdata$x	SEGMENT
__unwindtable$?adoptCalendar@Win32DateFormat@icu_56@@UAEXPAVCalendar@2@@Z DD 0ffffffffH
	DD	FLAT:__unwindfunclet$?adoptCalendar@Win32DateFormat@icu_56@@UAEXPAVCalendar@2@@Z$0
__ehfuncinfo$?adoptCalendar@Win32DateFormat@icu_56@@UAEXPAVCalendar@2@@Z DD 019930522H
	DD	01H
	DD	FLAT:__unwindtable$?adoptCalendar@Win32DateFormat@icu_56@@UAEXPAVCalendar@2@@Z
	DD	2 DUP(00H)
	DD	2 DUP(00H)
	DD	00H
	DD	01H
; Function compile flags: /Odtp /RTCsu /ZI
xdata$x	ENDS
;	COMDAT ?adoptCalendar@Win32DateFormat@icu_56@@UAEXPAVCalendar@2@@Z
_TEXT	SEGMENT
tv185 = -360						; size = 4
tv186 = -356						; size = 4
tv160 = -356						; size = 4
tv137 = -356						; size = 4
$T81112 = -348						; size = 4
$T81113 = -336						; size = 4
$T81116 = -324						; size = 4
$T81117 = -312						; size = 4
$T73684 = -300						; size = 64
_status$73678 = -36					; size = 4
_this$ = -24						; size = 4
__$ArrayPad$ = -16					; size = 4
__$EHRec$ = -12						; size = 12
_newCalendar$ = 8					; size = 4
?adoptCalendar@Win32DateFormat@icu_56@@UAEXPAVCalendar@2@@Z PROC ; icu_56::Win32DateFormat::adoptCalendar, COMDAT
; _this$ = ecx
; Line 201
	push	ebp
	mov	ebp, esp
	push	-1
	push	__ehhandler$?adoptCalendar@Win32DateFormat@icu_56@@UAEXPAVCalendar@2@@Z
	mov	eax, DWORD PTR fs:0
	push	eax
	sub	esp, 348				; 0000015cH
	push	ebx
	push	esi
	push	edi
	push	ecx
	lea	edi, DWORD PTR [ebp-360]
	mov	ecx, 87					; 00000057H
	mov	eax, -858993460				; ccccccccH
	rep stosd
	pop	ecx
	mov	eax, DWORD PTR ___security_cookie
	xor	eax, ebp
	mov	DWORD PTR __$ArrayPad$[ebp], eax
	push	eax
	lea	eax, DWORD PTR __$EHRec$[ebp]
	mov	DWORD PTR fs:0, eax
	mov	DWORD PTR _this$[ebp], ecx
; Line 202
	mov	eax, DWORD PTR _this$[ebp]
	cmp	DWORD PTR [eax+320], 0
	je	SHORT $LN2@adoptCalen
	mov	eax, DWORD PTR _newCalendar$[ebp]
	mov	edx, DWORD PTR [eax]
	mov	esi, esp
	mov	ecx, DWORD PTR _newCalendar$[ebp]
	mov	eax, DWORD PTR [edx+88]
	call	eax
	cmp	esi, esp
	call	__RTC_CheckEsp
	push	eax
	mov	ecx, DWORD PTR _this$[ebp]
	mov	edx, DWORD PTR [ecx+320]
	mov	eax, DWORD PTR _this$[ebp]
	mov	ecx, DWORD PTR [eax+320]
	mov	edx, DWORD PTR [edx]
	mov	esi, esp
	mov	eax, DWORD PTR [edx+88]
	call	eax
	cmp	esi, esp
	call	__RTC_CheckEsp
	push	eax
	call	_strcmp
	add	esp, 8
	test	eax, eax
	je	$LN3@adoptCalen
$LN2@adoptCalen:
; Line 203
	mov	DWORD PTR _status$73678[ebp], 0
; Line 205
	mov	eax, DWORD PTR _this$[ebp]
	cmp	DWORD PTR [eax+344], -1
	je	$LN3@adoptCalen
	mov	eax, DWORD PTR _this$[ebp]
	cmp	DWORD PTR [eax+340], -1
	je	SHORT $LN3@adoptCalen
; Line 206
	mov	eax, DWORD PTR _this$[ebp]
	mov	ecx, DWORD PTR [eax+336]
	mov	DWORD PTR $T81113[ebp], ecx
	mov	edx, DWORD PTR $T81113[ebp]
	mov	DWORD PTR $T81112[ebp], edx
	cmp	DWORD PTR $T81112[ebp], 0
	je	SHORT $LN6@adoptCalen
	mov	esi, esp
	push	1
	mov	eax, DWORD PTR $T81112[ebp]
	mov	edx, DWORD PTR [eax]
	mov	ecx, DWORD PTR $T81112[ebp]
	mov	eax, DWORD PTR [edx]
	call	eax
	cmp	esi, esp
	call	__RTC_CheckEsp
	mov	DWORD PTR tv137[ebp], eax
	jmp	SHORT $LN7@adoptCalen
$LN6@adoptCalen:
	mov	DWORD PTR tv137[ebp], 0
$LN7@adoptCalen:
; Line 207
	lea	eax, DWORD PTR _status$73678[ebp]
	push	eax
	mov	ecx, DWORD PTR _this$[ebp]
	add	ecx, 348				; 0000015cH
	push	ecx
	mov	edx, DWORD PTR _newCalendar$[ebp]
	push	edx
	mov	ecx, DWORD PTR _this$[ebp]
	call	?getTimeDateFormat@Win32DateFormat@icu_56@@ABEPAVUnicodeString@2@PBVCalendar@2@PBVLocale@2@AAW4UErrorCode@@@Z ; icu_56::Win32DateFormat::getTimeDateFormat
	mov	ecx, DWORD PTR _this$[ebp]
	mov	DWORD PTR [ecx+336], eax
$LN3@adoptCalen:
; Line 211
	mov	eax, DWORD PTR _this$[ebp]
	mov	ecx, DWORD PTR [eax+320]
	mov	DWORD PTR $T81117[ebp], ecx
	mov	edx, DWORD PTR $T81117[ebp]
	mov	DWORD PTR $T81116[ebp], edx
	cmp	DWORD PTR $T81116[ebp], 0
	je	SHORT $LN8@adoptCalen
	mov	esi, esp
	push	1
	mov	eax, DWORD PTR $T81116[ebp]
	mov	edx, DWORD PTR [eax]
	mov	ecx, DWORD PTR $T81116[ebp]
	mov	eax, DWORD PTR [edx]
	call	eax
	cmp	esi, esp
	call	__RTC_CheckEsp
	mov	DWORD PTR tv160[ebp], eax
	jmp	SHORT $LN9@adoptCalen
$LN8@adoptCalen:
	mov	DWORD PTR tv160[ebp], 0
$LN9@adoptCalen:
; Line 212
	mov	eax, DWORD PTR _this$[ebp]
	mov	ecx, DWORD PTR _newCalendar$[ebp]
	mov	DWORD PTR [eax+320], ecx
; Line 214
	mov	eax, DWORD PTR _this$[ebp]
	mov	ecx, DWORD PTR [eax+320]
	call	?getTimeZone@Calendar@icu_56@@QBEABVTimeZone@2@XZ ; icu_56::Calendar::getTimeZone
	push	eax
	mov	ecx, DWORD PTR _this$[ebp]
	mov	edx, DWORD PTR [ecx+620]
	push	edx
	lea	eax, DWORD PTR $T73684[ebp]
	push	eax
	mov	ecx, DWORD PTR _this$[ebp]
	call	?setTimeZoneInfo@Win32DateFormat@icu_56@@ABE?AVUnicodeString@2@PAU_TIME_ZONE_INFORMATION@@ABVTimeZone@2@@Z ; icu_56::Win32DateFormat::setTimeZoneInfo
	mov	DWORD PTR tv186[ebp], eax
	mov	ecx, DWORD PTR tv186[ebp]
	mov	DWORD PTR tv185[ebp], ecx
	mov	DWORD PTR __$EHRec$[ebp+8], 0
	mov	esi, esp
	mov	edx, DWORD PTR tv185[ebp]
	push	edx
	mov	ecx, DWORD PTR _this$[ebp]
	add	ecx, 556				; 0000022cH
	call	DWORD PTR __imp_??4UnicodeString@icu_56@@QAEAAV01@$$QAV01@@Z
	cmp	esi, esp
	call	__RTC_CheckEsp
	mov	DWORD PTR __$EHRec$[ebp+8], -1
	mov	esi, esp
	lea	ecx, DWORD PTR $T73684[ebp]
	call	DWORD PTR __imp_??1UnicodeString@icu_56@@UAE@XZ
	cmp	esi, esp
	call	__RTC_CheckEsp
; Line 215
	push	edx
	mov	ecx, ebp
	push	eax
	lea	edx, DWORD PTR $LN14@adoptCalen
	call	@_RTC_CheckStackVars@8
	pop	eax
	pop	edx
	mov	ecx, DWORD PTR __$EHRec$[ebp]
	mov	DWORD PTR fs:0, ecx
	pop	ecx
	pop	edi
	pop	esi
	pop	ebx
	mov	ecx, DWORD PTR __$ArrayPad$[ebp]
	xor	ecx, ebp
	call	@__security_check_cookie@4
	add	esp, 360				; 00000168H
	cmp	ebp, esp
	call	__RTC_CheckEsp
	mov	esp, ebp
	pop	ebp
	ret	4
	npad	1
$LN14@adoptCalen:
	DD	1
	DD	$LN13@adoptCalen
$LN13@adoptCalen:
	DD	-36					; ffffffdcH
	DD	4
	DD	$LN11@adoptCalen
$LN11@adoptCalen:
	DB	115					; 00000073H
	DB	116					; 00000074H
	DB	97					; 00000061H
	DB	116					; 00000074H
	DB	117					; 00000075H
	DB	115					; 00000073H
	DB	0
_TEXT	ENDS
;	COMDAT text$x
text$x	SEGMENT
__unwindfunclet$?adoptCalendar@Win32DateFormat@icu_56@@UAEXPAVCalendar@2@@Z$0:
	mov	esi, esp
	lea	ecx, DWORD PTR $T73684[ebp]
	call	DWORD PTR __imp_??1UnicodeString@icu_56@@UAE@XZ
	cmp	esi, esp
	jmp	__RTC_CheckEsp
__ehhandler$?adoptCalendar@Win32DateFormat@icu_56@@UAEXPAVCalendar@2@@Z:
	mov	edx, DWORD PTR [esp+8]
	lea	eax, DWORD PTR [edx+12]
	mov	ecx, DWORD PTR [edx-364]
	xor	ecx, eax
	call	@__security_check_cookie@4
	mov	ecx, DWORD PTR [edx-4]
	xor	ecx, eax
	call	@__security_check_cookie@4
	mov	eax, OFFSET __ehfuncinfo$?adoptCalendar@Win32DateFormat@icu_56@@UAEXPAVCalendar@2@@Z
	jmp	___CxxFrameHandler3
text$x	ENDS
?adoptCalendar@Win32DateFormat@icu_56@@UAEXPAVCalendar@2@@Z ENDP ; icu_56::Win32DateFormat::adoptCalendar
; Function compile flags: /Odtp /RTCsu /ZI
;	COMDAT ?setCalendar@Win32DateFormat@icu_56@@UAEXABVCalendar@2@@Z
_TEXT	SEGMENT
_this$ = -8						; size = 4
_newCalendar$ = 8					; size = 4
?setCalendar@Win32DateFormat@icu_56@@UAEXABVCalendar@2@@Z PROC ; icu_56::Win32DateFormat::setCalendar, COMDAT
; _this$ = ecx
; Line 218
	push	ebp
	mov	ebp, esp
	sub	esp, 204				; 000000ccH
	push	ebx
	push	esi
	push	edi
	push	ecx
	lea	edi, DWORD PTR [ebp-204]
	mov	ecx, 51					; 00000033H
	mov	eax, -858993460				; ccccccccH
	rep stosd
	pop	ecx
	mov	DWORD PTR _this$[ebp], ecx
; Line 219
	mov	eax, DWORD PTR _newCalendar$[ebp]
	mov	edx, DWORD PTR [eax]
	mov	esi, esp
	mov	ecx, DWORD PTR _newCalendar$[ebp]
	mov	eax, DWORD PTR [edx+8]
	call	eax
	cmp	esi, esp
	call	__RTC_CheckEsp
	mov	esi, esp
	push	eax
	mov	ecx, DWORD PTR _this$[ebp]
	mov	edx, DWORD PTR [ecx]
	mov	ecx, DWORD PTR _this$[ebp]
	mov	eax, DWORD PTR [edx+64]
	call	eax
	cmp	esi, esp
	call	__RTC_CheckEsp
; Line 220
	pop	edi
	pop	esi
	pop	ebx
	add	esp, 204				; 000000ccH
	cmp	ebp, esp
	call	__RTC_CheckEsp
	mov	esp, ebp
	pop	ebp
	ret	4
?setCalendar@Win32DateFormat@icu_56@@UAEXABVCalendar@2@@Z ENDP ; icu_56::Win32DateFormat::setCalendar
_TEXT	ENDS
PUBLIC	__$ArrayPad$
EXTRN	?adoptTimeZone@Calendar@icu_56@@QAEXPAVTimeZone@2@@Z:PROC ; icu_56::Calendar::adoptTimeZone
;	COMDAT xdata$x
xdata$x	SEGMENT
__unwindtable$?adoptTimeZone@Win32DateFormat@icu_56@@UAEXPAVTimeZone@2@@Z DD 0ffffffffH
	DD	FLAT:__unwindfunclet$?adoptTimeZone@Win32DateFormat@icu_56@@UAEXPAVTimeZone@2@@Z$0
__ehfuncinfo$?adoptTimeZone@Win32DateFormat@icu_56@@UAEXPAVTimeZone@2@@Z DD 019930522H
	DD	01H
	DD	FLAT:__unwindtable$?adoptTimeZone@Win32DateFormat@icu_56@@UAEXPAVTimeZone@2@@Z
	DD	2 DUP(00H)
	DD	2 DUP(00H)
	DD	00H
	DD	01H
; Function compile flags: /Odtp /RTCsu /ZI
xdata$x	ENDS
;	COMDAT ?adoptTimeZone@Win32DateFormat@icu_56@@UAEXPAVTimeZone@2@@Z
_TEXT	SEGMENT
tv83 = -300						; size = 4
tv84 = -296						; size = 4
$T73693 = -288						; size = 64
_this$ = -24						; size = 4
__$ArrayPad$ = -16					; size = 4
__$EHRec$ = -12						; size = 12
_zoneToAdopt$ = 8					; size = 4
?adoptTimeZone@Win32DateFormat@icu_56@@UAEXPAVTimeZone@2@@Z PROC ; icu_56::Win32DateFormat::adoptTimeZone, COMDAT
; _this$ = ecx
; Line 223
	push	ebp
	mov	ebp, esp
	push	-1
	push	__ehhandler$?adoptTimeZone@Win32DateFormat@icu_56@@UAEXPAVTimeZone@2@@Z
	mov	eax, DWORD PTR fs:0
	push	eax
	sub	esp, 288				; 00000120H
	push	ebx
	push	esi
	push	edi
	push	ecx
	lea	edi, DWORD PTR [ebp-300]
	mov	ecx, 72					; 00000048H
	mov	eax, -858993460				; ccccccccH
	rep stosd
	pop	ecx
	mov	eax, DWORD PTR ___security_cookie
	xor	eax, ebp
	mov	DWORD PTR __$ArrayPad$[ebp], eax
	push	eax
	lea	eax, DWORD PTR __$EHRec$[ebp]
	mov	DWORD PTR fs:0, eax
	mov	DWORD PTR _this$[ebp], ecx
; Line 224
	mov	eax, DWORD PTR _zoneToAdopt$[ebp]
	push	eax
	mov	ecx, DWORD PTR _this$[ebp]
	mov	edx, DWORD PTR [ecx+620]
	push	edx
	lea	eax, DWORD PTR $T73693[ebp]
	push	eax
	mov	ecx, DWORD PTR _this$[ebp]
	call	?setTimeZoneInfo@Win32DateFormat@icu_56@@ABE?AVUnicodeString@2@PAU_TIME_ZONE_INFORMATION@@ABVTimeZone@2@@Z ; icu_56::Win32DateFormat::setTimeZoneInfo
	mov	DWORD PTR tv84[ebp], eax
	mov	ecx, DWORD PTR tv84[ebp]
	mov	DWORD PTR tv83[ebp], ecx
	mov	DWORD PTR __$EHRec$[ebp+8], 0
	mov	esi, esp
	mov	edx, DWORD PTR tv83[ebp]
	push	edx
	mov	ecx, DWORD PTR _this$[ebp]
	add	ecx, 556				; 0000022cH
	call	DWORD PTR __imp_??4UnicodeString@icu_56@@QAEAAV01@$$QAV01@@Z
	cmp	esi, esp
	call	__RTC_CheckEsp
	mov	DWORD PTR __$EHRec$[ebp+8], -1
	mov	esi, esp
	lea	ecx, DWORD PTR $T73693[ebp]
	call	DWORD PTR __imp_??1UnicodeString@icu_56@@UAE@XZ
	cmp	esi, esp
	call	__RTC_CheckEsp
; Line 225
	mov	eax, DWORD PTR _zoneToAdopt$[ebp]
	push	eax
	mov	ecx, DWORD PTR _this$[ebp]
	mov	ecx, DWORD PTR [ecx+320]
	call	?adoptTimeZone@Calendar@icu_56@@QAEXPAVTimeZone@2@@Z ; icu_56::Calendar::adoptTimeZone
; Line 226
	mov	ecx, DWORD PTR __$EHRec$[ebp]
	mov	DWORD PTR fs:0, ecx
	pop	ecx
	pop	edi
	pop	esi
	pop	ebx
	mov	ecx, DWORD PTR __$ArrayPad$[ebp]
	xor	ecx, ebp
	call	@__security_check_cookie@4
	add	esp, 300				; 0000012cH
	cmp	ebp, esp
	call	__RTC_CheckEsp
	mov	esp, ebp
	pop	ebp
	ret	4
_TEXT	ENDS
;	COMDAT text$x
text$x	SEGMENT
__unwindfunclet$?adoptTimeZone@Win32DateFormat@icu_56@@UAEXPAVTimeZone@2@@Z$0:
	mov	esi, esp
	lea	ecx, DWORD PTR $T73693[ebp]
	call	DWORD PTR __imp_??1UnicodeString@icu_56@@UAE@XZ
	cmp	esi, esp
	jmp	__RTC_CheckEsp
__ehhandler$?adoptTimeZone@Win32DateFormat@icu_56@@UAEXPAVTimeZone@2@@Z:
	mov	edx, DWORD PTR [esp+8]
	lea	eax, DWORD PTR [edx+12]
	mov	ecx, DWORD PTR [edx-304]
	xor	ecx, eax
	call	@__security_check_cookie@4
	mov	ecx, DWORD PTR [edx-4]
	xor	ecx, eax
	call	@__security_check_cookie@4
	mov	eax, OFFSET __ehfuncinfo$?adoptTimeZone@Win32DateFormat@icu_56@@UAEXPAVTimeZone@2@@Z
	jmp	___CxxFrameHandler3
text$x	ENDS
?adoptTimeZone@Win32DateFormat@icu_56@@UAEXPAVTimeZone@2@@Z ENDP ; icu_56::Win32DateFormat::adoptTimeZone
PUBLIC	__$ArrayPad$
EXTRN	?setTimeZone@Calendar@icu_56@@QAEXABVTimeZone@2@@Z:PROC ; icu_56::Calendar::setTimeZone
;	COMDAT xdata$x
xdata$x	SEGMENT
__unwindtable$?setTimeZone@Win32DateFormat@icu_56@@UAEXABVTimeZone@2@@Z DD 0ffffffffH
	DD	FLAT:__unwindfunclet$?setTimeZone@Win32DateFormat@icu_56@@UAEXABVTimeZone@2@@Z$0
__ehfuncinfo$?setTimeZone@Win32DateFormat@icu_56@@UAEXABVTimeZone@2@@Z DD 019930522H
	DD	01H
	DD	FLAT:__unwindtable$?setTimeZone@Win32DateFormat@icu_56@@UAEXABVTimeZone@2@@Z
	DD	2 DUP(00H)
	DD	2 DUP(00H)
	DD	00H
	DD	01H
; Function compile flags: /Odtp /RTCsu /ZI
xdata$x	ENDS
;	COMDAT ?setTimeZone@Win32DateFormat@icu_56@@UAEXABVTimeZone@2@@Z
_TEXT	SEGMENT
tv83 = -300						; size = 4
tv84 = -296						; size = 4
$T73698 = -288						; size = 64
_this$ = -24						; size = 4
__$ArrayPad$ = -16					; size = 4
__$EHRec$ = -12						; size = 12
_zone$ = 8						; size = 4
?setTimeZone@Win32DateFormat@icu_56@@UAEXABVTimeZone@2@@Z PROC ; icu_56::Win32DateFormat::setTimeZone, COMDAT
; _this$ = ecx
; Line 229
	push	ebp
	mov	ebp, esp
	push	-1
	push	__ehhandler$?setTimeZone@Win32DateFormat@icu_56@@UAEXABVTimeZone@2@@Z
	mov	eax, DWORD PTR fs:0
	push	eax
	sub	esp, 288				; 00000120H
	push	ebx
	push	esi
	push	edi
	push	ecx
	lea	edi, DWORD PTR [ebp-300]
	mov	ecx, 72					; 00000048H
	mov	eax, -858993460				; ccccccccH
	rep stosd
	pop	ecx
	mov	eax, DWORD PTR ___security_cookie
	xor	eax, ebp
	mov	DWORD PTR __$ArrayPad$[ebp], eax
	push	eax
	lea	eax, DWORD PTR __$EHRec$[ebp]
	mov	DWORD PTR fs:0, eax
	mov	DWORD PTR _this$[ebp], ecx
; Line 230
	mov	eax, DWORD PTR _zone$[ebp]
	push	eax
	mov	ecx, DWORD PTR _this$[ebp]
	mov	edx, DWORD PTR [ecx+620]
	push	edx
	lea	eax, DWORD PTR $T73698[ebp]
	push	eax
	mov	ecx, DWORD PTR _this$[ebp]
	call	?setTimeZoneInfo@Win32DateFormat@icu_56@@ABE?AVUnicodeString@2@PAU_TIME_ZONE_INFORMATION@@ABVTimeZone@2@@Z ; icu_56::Win32DateFormat::setTimeZoneInfo
	mov	DWORD PTR tv84[ebp], eax
	mov	ecx, DWORD PTR tv84[ebp]
	mov	DWORD PTR tv83[ebp], ecx
	mov	DWORD PTR __$EHRec$[ebp+8], 0
	mov	esi, esp
	mov	edx, DWORD PTR tv83[ebp]
	push	edx
	mov	ecx, DWORD PTR _this$[ebp]
	add	ecx, 556				; 0000022cH
	call	DWORD PTR __imp_??4UnicodeString@icu_56@@QAEAAV01@$$QAV01@@Z
	cmp	esi, esp
	call	__RTC_CheckEsp
	mov	DWORD PTR __$EHRec$[ebp+8], -1
	mov	esi, esp
	lea	ecx, DWORD PTR $T73698[ebp]
	call	DWORD PTR __imp_??1UnicodeString@icu_56@@UAE@XZ
	cmp	esi, esp
	call	__RTC_CheckEsp
; Line 231
	mov	eax, DWORD PTR _zone$[ebp]
	push	eax
	mov	ecx, DWORD PTR _this$[ebp]
	mov	ecx, DWORD PTR [ecx+320]
	call	?setTimeZone@Calendar@icu_56@@QAEXABVTimeZone@2@@Z ; icu_56::Calendar::setTimeZone
; Line 232
	mov	ecx, DWORD PTR __$EHRec$[ebp]
	mov	DWORD PTR fs:0, ecx
	pop	ecx
	pop	edi
	pop	esi
	pop	ebx
	mov	ecx, DWORD PTR __$ArrayPad$[ebp]
	xor	ecx, ebp
	call	@__security_check_cookie@4
	add	esp, 300				; 0000012cH
	cmp	ebp, esp
	call	__RTC_CheckEsp
	mov	esp, ebp
	pop	ebp
	ret	4
_TEXT	ENDS
;	COMDAT text$x
text$x	SEGMENT
__unwindfunclet$?setTimeZone@Win32DateFormat@icu_56@@UAEXABVTimeZone@2@@Z$0:
	mov	esi, esp
	lea	ecx, DWORD PTR $T73698[ebp]
	call	DWORD PTR __imp_??1UnicodeString@icu_56@@UAE@XZ
	cmp	esi, esp
	jmp	__RTC_CheckEsp
__ehhandler$?setTimeZone@Win32DateFormat@icu_56@@UAEXABVTimeZone@2@@Z:
	mov	edx, DWORD PTR [esp+8]
	lea	eax, DWORD PTR [edx+12]
	mov	ecx, DWORD PTR [edx-304]
	xor	ecx, eax
	call	@__security_check_cookie@4
	mov	ecx, DWORD PTR [edx-4]
	xor	ecx, eax
	call	@__security_check_cookie@4
	mov	eax, OFFSET __ehfuncinfo$?setTimeZone@Win32DateFormat@icu_56@@UAEXABVTimeZone@2@@Z
	jmp	___CxxFrameHandler3
text$x	ENDS
?setTimeZone@Win32DateFormat@icu_56@@UAEXABVTimeZone@2@@Z ENDP ; icu_56::Win32DateFormat::setTimeZone
PUBLIC	__$ArrayPad$
EXTRN	__imp_?append@UnicodeString@icu_56@@QAEAAV12@PB_WH@Z:PROC
EXTRN	__imp__wcslen:PROC
EXTRN	__imp__GetLastError@0:PROC
EXTRN	__imp__GetDateFormatW@24:PROC
; Function compile flags: /Odtp /RTCsu /ZI
;	COMDAT ?formatDate@Win32DateFormat@icu_56@@ABEXPBU_SYSTEMTIME@@AAVUnicodeString@2@@Z
_TEXT	SEGMENT
_newLength$73710 = -184					; size = 4
_buffer$ = -172						; size = 4
_stackBuffer$ = -160					; size = 128
_result$ = -24						; size = 4
_this$ = -12						; size = 4
__$ArrayPad$ = -4					; size = 4
_st$ = 8						; size = 4
_appendTo$ = 12						; size = 4
?formatDate@Win32DateFormat@icu_56@@ABEXPBU_SYSTEMTIME@@AAVUnicodeString@2@@Z PROC ; icu_56::Win32DateFormat::formatDate, COMDAT
; _this$ = ecx
; Line 237
	push	ebp
	mov	ebp, esp
	sub	esp, 380				; 0000017cH
	push	ebx
	push	esi
