; Listing generated by Microsoft (R) Optimizing Compiler Version 16.00.40219.01 

	TITLE	D:\mozilla\intl\icu\source\i18n\ztrans.cpp
	.686P
	.XMM
	include listing.inc
	.model	flat

INCLUDELIB MSVCRTD
INCLUDELIB OLDNAMES

PUBLIC	??2@YAPAXI@Z					; operator new
EXTRN	__RTC_Shutdown:PROC
EXTRN	__RTC_InitBase:PROC
;	COMDAT rtc$TMZ
; File d:\mozilla\intl\icu\include\unicode\utypes.h
rtc$TMZ	SEGMENT
__RTC_Shutdown.rtc$TMZ DD FLAT:__RTC_Shutdown
rtc$TMZ	ENDS
;	COMDAT rtc$IMZ
rtc$IMZ	SEGMENT
__RTC_InitBase.rtc$IMZ DD FLAT:__RTC_InitBase
; Function compile flags: /Odtp /RTCsu /ZI
rtc$IMZ	ENDS
;	COMDAT ??2@YAPAXI@Z
_TEXT	SEGMENT
_q$ = -8						; size = 4
___formal$ = 8						; size = 4
??2@YAPAXI@Z PROC					; operator new, COMDAT
; Line 411
	push	ebp
	mov	ebp, esp
	sub	esp, 204				; 000000ccH
	push	ebx
	push	esi
	push	edi
	lea	edi, DWORD PTR [ebp-204]
	mov	ecx, 51					; 00000033H
	mov	eax, -858993460				; ccccccccH
	rep stosd
; Line 412
	mov	DWORD PTR _q$[ebp], 0
; Line 413
	mov	eax, DWORD PTR _q$[ebp]
	mov	BYTE PTR [eax], 5
; Line 414
	mov	eax, DWORD PTR _q$[ebp]
; Line 415
	pop	edi
	pop	esi
	pop	ebx
	mov	esp, ebp
	pop	ebp
	ret	0
??2@YAPAXI@Z ENDP					; operator new
_TEXT	ENDS
PUBLIC	??3@YAXPAX@Z					; operator delete
; Function compile flags: /Odtp /RTCsu /ZI
;	COMDAT ??3@YAXPAX@Z
_TEXT	SEGMENT
_q$ = -8						; size = 4
___formal$ = 8						; size = 4
??3@YAXPAX@Z PROC					; operator delete, COMDAT
; Line 439
	push	ebp
	mov	ebp, esp
	sub	esp, 204				; 000000ccH
	push	ebx
	push	esi
	push	edi
	lea	edi, DWORD PTR [ebp-204]
	mov	ecx, 51					; 00000033H
	mov	eax, -858993460				; ccccccccH
	rep stosd
; Line 440
	mov	DWORD PTR _q$[ebp], 0
; Line 441
	mov	eax, DWORD PTR _q$[ebp]
	mov	BYTE PTR [eax], 5
; Line 442
	pop	edi
	pop	esi
	pop	ebx
	mov	esp, ebp
	pop	ebp
	ret	0
??3@YAXPAX@Z ENDP					; operator delete
_TEXT	ENDS
PUBLIC	_ztrans_open_56
EXTRN	??0TimeZoneTransition@icu_56@@QAE@NABVTimeZoneRule@1@0@Z:PROC ; icu_56::TimeZoneTransition::TimeZoneTransition
EXTRN	__imp_??2UMemory@icu_56@@SAPAXI@Z:PROC
EXTRN	__fltused:DWORD
EXTRN	__RTC_CheckEsp:PROC
; Function compile flags: /Odtp /RTCsu /ZI
;	COMDAT _ztrans_open_56
_TEXT	SEGMENT
tv74 = -220						; size = 4
$T8081 = -212						; size = 4
$T8082 = -200						; size = 4
_time$ = 8						; size = 8
_from$ = 16						; size = 4
_to$ = 20						; size = 4
_ztrans_open_56 PROC					; COMDAT
; File d:\mozilla\intl\icu\source\i18n\ztrans.cpp
; Line 27
	push	ebp
	mov	ebp, esp
	sub	esp, 220				; 000000dcH
	push	ebx
	push	esi
	push	edi
	lea	edi, DWORD PTR [ebp-220]
	mov	ecx, 55					; 00000037H
	mov	eax, -858993460				; ccccccccH
	rep stosd
; Line 28
	mov	esi, esp
	push	24					; 00000018H
	call	DWORD PTR __imp_??2UMemory@icu_56@@SAPAXI@Z
	add	esp, 4
	cmp	esi, esp
	call	__RTC_CheckEsp
	mov	DWORD PTR $T8082[ebp], eax
	cmp	DWORD PTR $T8082[ebp], 0
	je	SHORT $LN3@ztrans_ope
	mov	eax, DWORD PTR _to$[ebp]
	push	eax
	mov	ecx, DWORD PTR _from$[ebp]
	push	ecx
	sub	esp, 8
	fld	QWORD PTR _time$[ebp]
	fstp	QWORD PTR [esp]
	mov	ecx, DWORD PTR $T8082[ebp]
	call	??0TimeZoneTransition@icu_56@@QAE@NABVTimeZoneRule@1@0@Z ; icu_56::TimeZoneTransition::TimeZoneTransition
	mov	DWORD PTR tv74[ebp], eax
	jmp	SHORT $LN4@ztrans_ope
$LN3@ztrans_ope:
	mov	DWORD PTR tv74[ebp], 0
$LN4@ztrans_ope:
	mov	edx, DWORD PTR tv74[ebp]
	mov	DWORD PTR $T8081[ebp], edx
	mov	eax, DWORD PTR $T8081[ebp]
; Line 29
	pop	edi
	pop	esi
	pop	ebx
	add	esp, 220				; 000000dcH
	cmp	ebp, esp
	call	__RTC_CheckEsp
	mov	esp, ebp
	pop	ebp
	ret	0
_ztrans_open_56 ENDP
_TEXT	ENDS
PUBLIC	_ztrans_openEmpty_56
EXTRN	??0TimeZoneTransition@icu_56@@QAE@XZ:PROC	; icu_56::TimeZoneTransition::TimeZoneTransition
; Function compile flags: /Odtp /RTCsu /ZI
;	COMDAT _ztrans_openEmpty_56
_TEXT	SEGMENT
tv71 = -220						; size = 4
$T8089 = -212						; size = 4
$T8090 = -200						; size = 4
_ztrans_openEmpty_56 PROC				; COMDAT
; Line 32
	push	ebp
	mov	ebp, esp
	sub	esp, 220				; 000000dcH
	push	ebx
	push	esi
	push	edi
	lea	edi, DWORD PTR [ebp-220]
	mov	ecx, 55					; 00000037H
	mov	eax, -858993460				; ccccccccH
	rep stosd
; Line 33
	mov	esi, esp
	push	24					; 00000018H
	call	DWORD PTR __imp_??2UMemory@icu_56@@SAPAXI@Z
	add	esp, 4
	cmp	esi, esp
	call	__RTC_CheckEsp
	mov	DWORD PTR $T8090[ebp], eax
	cmp	DWORD PTR $T8090[ebp], 0
	je	SHORT $LN3@ztrans_ope@2
	mov	ecx, DWORD PTR $T8090[ebp]
	call	??0TimeZoneTransition@icu_56@@QAE@XZ	; icu_56::TimeZoneTransition::TimeZoneTransition
	mov	DWORD PTR tv71[ebp], eax
	jmp	SHORT $LN4@ztrans_ope@2
$LN3@ztrans_ope@2:
	mov	DWORD PTR tv71[ebp], 0
$LN4@ztrans_ope@2:
	mov	eax, DWORD PTR tv71[ebp]
	mov	DWORD PTR $T8089[ebp], eax
	mov	eax, DWORD PTR $T8089[ebp]
; Line 34
	pop	edi
	pop	esi
	pop	ebx
	add	esp, 220				; 000000dcH
	cmp	ebp, esp
	call	__RTC_CheckEsp
	mov	esp, ebp
	pop	ebp
	ret	0
_ztrans_openEmpty_56 ENDP
_TEXT	ENDS
PUBLIC	_ztrans_close_56
; Function compile flags: /Odtp /RTCsu /ZI
;	COMDAT _ztrans_close_56
_TEXT	SEGMENT
tv74 = -220						; size = 4
$T8095 = -212						; size = 4
$T8096 = -200						; size = 4
_trans$ = 8						; size = 4
_ztrans_close_56 PROC					; COMDAT
; Line 37
	push	ebp
	mov	ebp, esp
	sub	esp, 220				; 000000dcH
	push	ebx
	push	esi
	push	edi
	lea	edi, DWORD PTR [ebp-220]
	mov	ecx, 55					; 00000037H
	mov	eax, -858993460				; ccccccccH
	rep stosd
; Line 38
	mov	eax, DWORD PTR _trans$[ebp]
	mov	DWORD PTR $T8096[ebp], eax
	mov	ecx, DWORD PTR $T8096[ebp]
	mov	DWORD PTR $T8095[ebp], ecx
	cmp	DWORD PTR $T8095[ebp], 0
	je	SHORT $LN3@ztrans_clo
	mov	esi, esp
	push	1
	mov	edx, DWORD PTR $T8095[ebp]
	mov	eax, DWORD PTR [edx]
	mov	ecx, DWORD PTR $T8095[ebp]
	mov	edx, DWORD PTR [eax]
	call	edx
	cmp	esi, esp
	call	__RTC_CheckEsp
	mov	DWORD PTR tv74[ebp], eax
	jmp	SHORT $LN1@ztrans_clo
$LN3@ztrans_clo:
	mov	DWORD PTR tv74[ebp], 0
$LN1@ztrans_clo:
; Line 39
	pop	edi
	pop	esi
	pop	ebx
	add	esp, 220				; 000000dcH
	cmp	ebp, esp
	call	__RTC_CheckEsp
	mov	esp, ebp
	pop	ebp
	ret	0
_ztrans_close_56 ENDP
_TEXT	ENDS
PUBLIC	_ztrans_clone_56
EXTRN	?clone@TimeZoneTransition@icu_56@@QBEPAV12@XZ:PROC ; icu_56::TimeZoneTransition::clone
; Function compile flags: /Odtp /RTCsu /ZI
;	COMDAT _ztrans_clone_56
_TEXT	SEGMENT
_trans$ = 8						; size = 4
_ztrans_clone_56 PROC					; COMDAT
; Line 42
	push	ebp
	mov	ebp, esp
	sub	esp, 192				; 000000c0H
	push	ebx
	push	esi
	push	edi
	lea	edi, DWORD PTR [ebp-192]
	mov	ecx, 48					; 00000030H
	mov	eax, -858993460				; ccccccccH
	rep stosd
; Line 43
	mov	ecx, DWORD PTR _trans$[ebp]
	call	?clone@TimeZoneTransition@icu_56@@QBEPAV12@XZ ; icu_56::TimeZoneTransition::clone
; Line 44
	pop	edi
	pop	esi
	pop	ebx
	add	esp, 192				; 000000c0H
	cmp	ebp, esp
	call	__RTC_CheckEsp
	mov	esp, ebp
	pop	ebp
	ret	0
_ztrans_clone_56 ENDP
_TEXT	ENDS
PUBLIC	_ztrans_equals_56
EXTRN	??8TimeZoneTransition@icu_56@@QBECABV01@@Z:PROC	; icu_56::TimeZoneTransition::operator==
; Function compile flags: /Odtp /RTCsu /ZI
;	COMDAT _ztrans_equals_56
_TEXT	SEGMENT
_trans1$ = 8						; size = 4
_trans2$ = 12						; size = 4
_ztrans_equals_56 PROC					; COMDAT
; Line 47
	push	ebp
	mov	ebp, esp
	sub	esp, 192				; 000000c0H
	push	ebx
	push	esi
	push	edi
	lea	edi, DWORD PTR [ebp-192]
	mov	ecx, 48					; 00000030H
	mov	eax, -858993460				; ccccccccH
	rep stosd
; Line 48
	mov	eax, DWORD PTR _trans2$[ebp]
	push	eax
	mov	ecx, DWORD PTR _trans1$[ebp]
	call	??8TimeZoneTransition@icu_56@@QBECABV01@@Z ; icu_56::TimeZoneTransition::operator==
; Line 49
	pop	edi
	pop	esi
	pop	ebx
	add	esp, 192				; 000000c0H
	cmp	ebp, esp
	call	__RTC_CheckEsp
	mov	esp, ebp
	pop	ebp
	ret	0
_ztrans_equals_56 ENDP
_TEXT	ENDS
PUBLIC	_ztrans_getTime_56
EXTRN	?getTime@TimeZoneTransition@icu_56@@QBENXZ:PROC	; icu_56::TimeZoneTransition::getTime
; Function compile flags: /Odtp /RTCsu /ZI
;	COMDAT _ztrans_getTime_56
_TEXT	SEGMENT
_trans$ = 8						; size = 4
_ztrans_getTime_56 PROC					; COMDAT
; Line 52
	push	ebp
	mov	ebp, esp
	sub	esp, 192				; 000000c0H
	push	ebx
	push	esi
	push	edi
	lea	edi, DWORD PTR [ebp-192]
	mov	ecx, 48					; 00000030H
	mov	eax, -858993460				; ccccccccH
	rep stosd
; Line 53
	mov	ecx, DWORD PTR _trans$[ebp]
	call	?getTime@TimeZoneTransition@icu_56@@QBENXZ ; icu_56::TimeZoneTransition::getTime
; Line 54
	pop	edi
	pop	esi
	pop	ebx
	add	esp, 192				; 000000c0H
	cmp	ebp, esp
	call	__RTC_CheckEsp
	mov	esp, ebp
	pop	ebp
	ret	0
_ztrans_getTime_56 ENDP
_TEXT	ENDS
PUBLIC	_ztrans_setTime_56
EXTRN	?setTime@TimeZoneTransition@icu_56@@QAEXN@Z:PROC ; icu_56::TimeZoneTransition::setTime
; Function compile flags: /Odtp /RTCsu /ZI
;	COMDAT _ztrans_setTime_56
_TEXT	SEGMENT
_trans$ = 8						; size = 4
_time$ = 12						; size = 8
_ztrans_setTime_56 PROC					; COMDAT
; Line 57
	push	ebp
	mov	ebp, esp
	sub	esp, 192				; 000000c0H
	push	ebx
	push	esi
	push	edi
	lea	edi, DWORD PTR [ebp-192]
	mov	ecx, 48					; 00000030H
	mov	eax, -858993460				; ccccccccH
	rep stosd
; Line 58
	sub	esp, 8
	fld	QWORD PTR _time$[ebp]
	fstp	QWORD PTR [esp]
	mov	ecx, DWORD PTR _trans$[ebp]
	call	?setTime@TimeZoneTransition@icu_56@@QAEXN@Z ; icu_56::TimeZoneTransition::setTime
; Line 59
	pop	edi
	pop	esi
	pop	ebx
	add	esp, 192				; 000000c0H
	cmp	ebp, esp
	call	__RTC_CheckEsp
	mov	esp, ebp
	pop	ebp
	ret	0
_ztrans_setTime_56 ENDP
_TEXT	ENDS
PUBLIC	_ztrans_getFrom_56
EXTRN	?getFrom@TimeZoneTransition@icu_56@@QBEPBVTimeZoneRule@2@XZ:PROC ; icu_56::TimeZoneTransition::getFrom
; Function compile flags: /Odtp /RTCsu /ZI
;	COMDAT _ztrans_getFrom_56
_TEXT	SEGMENT
_trans$ = 8						; size = 4
_ztrans_getFrom_56 PROC					; COMDAT
; Line 62
	push	ebp
	mov	ebp, esp
	sub	esp, 192				; 000000c0H
	push	ebx
	push	esi
	push	edi
	lea	edi, DWORD PTR [ebp-192]
	mov	ecx, 48					; 00000030H
	mov	eax, -858993460				; ccccccccH
	rep stosd
; Line 63
	mov	eax, DWORD PTR _trans$[ebp]
	mov	ecx, DWORD PTR [eax]
	call	?getFrom@TimeZoneTransition@icu_56@@QBEPBVTimeZoneRule@2@XZ ; icu_56::TimeZoneTransition::getFrom
; Line 64
	pop	edi
	pop	esi
	pop	ebx
	add	esp, 192				; 000000c0H
	cmp	ebp, esp
	call	__RTC_CheckEsp
	mov	esp, ebp
	pop	ebp
	ret	0
_ztrans_getFrom_56 ENDP
_TEXT	ENDS
PUBLIC	_ztrans_setFrom_56
EXTRN	?setFrom@TimeZoneTransition@icu_56@@QAEXABVTimeZoneRule@2@@Z:PROC ; icu_56::TimeZoneTransition::setFrom
; Function compile flags: /Odtp /RTCsu /ZI
;	COMDAT _ztrans_setFrom_56
_TEXT	SEGMENT
_trans$ = 8						; size = 4
_from$ = 12						; size = 4
_ztrans_setFrom_56 PROC					; COMDAT
; Line 67
	push	ebp
	mov	ebp, esp
	sub	esp, 192				; 000000c0H
	push	ebx
	push	esi
	push	edi
	lea	edi, DWORD PTR [ebp-192]
	mov	ecx, 48					; 00000030H
	mov	eax, -858993460				; ccccccccH
	rep stosd
; Line 68
	mov	eax, DWORD PTR _from$[ebp]
	push	eax
	mov	ecx, DWORD PTR _trans$[ebp]
	call	?setFrom@TimeZoneTransition@icu_56@@QAEXABVTimeZoneRule@2@@Z ; icu_56::TimeZoneTransition::setFrom
; Line 69
	pop	edi
	pop	esi
	pop	ebx
	add	esp, 192				; 000000c0H
	cmp	ebp, esp
	call	__RTC_CheckEsp
	mov	esp, ebp
	pop	ebp
	ret	0
_ztrans_setFrom_56 ENDP
_TEXT	ENDS
PUBLIC	_ztrans_adoptFrom_56
EXTRN	?adoptFrom@TimeZoneTransition@icu_56@@QAEXPAVTimeZoneRule@2@@Z:PROC ; icu_56::TimeZoneTransition::adoptFrom
; Function compile flags: /Odtp /RTCsu /ZI
;	COMDAT _ztrans_adoptFrom_56
_TEXT	SEGMENT
_trans$ = 8						; size = 4
_from$ = 12						; size = 4
_ztrans_adoptFrom_56 PROC				; COMDAT
; Line 72
	push	ebp
	mov	ebp, esp
	sub	esp, 192				; 000000c0H
	push	ebx
	push	esi
	push	edi
	lea	edi, DWORD PTR [ebp-192]
	mov	ecx, 48					; 00000030H
	mov	eax, -858993460				; ccccccccH
	rep stosd
; Line 73
	mov	eax, DWORD PTR _from$[ebp]
	push	eax
	mov	ecx, DWORD PTR _trans$[ebp]
	call	?adoptFrom@TimeZoneTransition@icu_56@@QAEXPAVTimeZoneRule@2@@Z ; icu_56::TimeZoneTransition::adoptFrom
; Line 74
	pop	edi
	pop	esi
	pop	ebx
	add	esp, 192				; 000000c0H
	cmp	ebp, esp
	call	__RTC_CheckEsp
	mov	esp, ebp
	pop	ebp
	ret	0
_ztrans_adoptFrom_56 ENDP
_TEXT	ENDS
PUBLIC	_ztrans_getTo_56
EXTRN	?getTo@TimeZoneTransition@icu_56@@QBEPBVTimeZoneRule@2@XZ:PROC ; icu_56::TimeZoneTransition::getTo
; Function compile flags: /Odtp /RTCsu /ZI
;	COMDAT _ztrans_getTo_56
_TEXT	SEGMENT
_trans$ = 8						; size = 4
_ztrans_getTo_56 PROC					; COMDAT
; Line 77
	push	ebp
	mov	ebp, esp
	sub	esp, 192				; 000000c0H
	push	ebx
	push	esi
	push	edi
	lea	edi, DWORD PTR [ebp-192]
	mov	ecx, 48					; 00000030H
	mov	eax, -858993460				; ccccccccH
	rep stosd
; Line 78
	mov	ecx, DWORD PTR _trans$[ebp]
	call	?getTo@TimeZoneTransition@icu_56@@QBEPBVTimeZoneRule@2@XZ ; icu_56::TimeZoneTransition::getTo
; Line 79
	pop	edi
	pop	esi
	pop	ebx
	add	esp, 192				; 000000c0H
	cmp	ebp, esp
	call	__RTC_CheckEsp
	mov	esp, ebp
	pop	ebp
	ret	0
_ztrans_getTo_56 ENDP
_TEXT	ENDS
PUBLIC	_ztrans_setTo_56
EXTRN	?setTo@TimeZoneTransition@icu_56@@QAEXABVTimeZoneRule@2@@Z:PROC ; icu_56::TimeZoneTransition::setTo
; Function compile flags: /Odtp /RTCsu /ZI
;	COMDAT _ztrans_setTo_56
_TEXT	SEGMENT
_trans$ = 8						; size = 4
_to$ = 12						; size = 4
_ztrans_setTo_56 PROC					; COMDAT
; Line 82
	push	ebp
	mov	ebp, esp
	sub	esp, 192				; 000000c0H
	push	ebx
	push	esi
	push	edi
	lea	edi, DWORD PTR [ebp-192]
	mov	ecx, 48					; 00000030H
	mov	eax, -858993460				; ccccccccH
	rep stosd
; Line 83
	mov	eax, DWORD PTR _to$[ebp]
	push	eax
	mov	ecx, DWORD PTR _trans$[ebp]
	call	?setTo@TimeZoneTransition@icu_56@@QAEXABVTimeZoneRule@2@@Z ; icu_56::TimeZoneTransition::setTo
; Line 84
	pop	edi
	pop	esi
	pop	ebx
	add	esp, 192				; 000000c0H
	cmp	ebp, esp
	call	__RTC_CheckEsp
	mov	esp, ebp
	pop	ebp
	ret	0
_ztrans_setTo_56 ENDP
_TEXT	ENDS
PUBLIC	_ztrans_adoptTo_56
EXTRN	?adoptTo@TimeZoneTransition@icu_56@@QAEXPAVTimeZoneRule@2@@Z:PROC ; icu_56::TimeZoneTransition::adoptTo
; Function compile flags: /Odtp /RTCsu /ZI
;	COMDAT _ztrans_adoptTo_56
_TEXT	SEGMENT
_trans$ = 8						; size = 4
_to$ = 12						; size = 4
_ztrans_adoptTo_56 PROC					; COMDAT
; Line 87
	push	ebp
	mov	ebp, esp
	sub	esp, 192				; 000000c0H
	push	ebx
	push	esi
	push	edi
	lea	edi, DWORD PTR [ebp-192]
	mov	ecx, 48					; 00000030H
	mov	eax, -858993460				; ccccccccH
	rep stosd
; Line 88
	mov	eax, DWORD PTR _to$[ebp]
	push	eax
	mov	ecx, DWORD PTR _trans$[ebp]
	call	?adoptTo@TimeZoneTransition@icu_56@@QAEXPAVTimeZoneRule@2@@Z ; icu_56::TimeZoneTransition::adoptTo
; Line 89
	pop	edi
	pop	esi
	pop	ebx
	add	esp, 192				; 000000c0H
	cmp	ebp, esp
	call	__RTC_CheckEsp
	mov	esp, ebp
	pop	ebp
	ret	0
_ztrans_adoptTo_56 ENDP
_TEXT	ENDS
PUBLIC	_ztrans_getStaticClassID_56
EXTRN	?getStaticClassID@TimeZoneTransition@icu_56@@SAPAXXZ:PROC ; icu_56::TimeZoneTransition::getStaticClassID
; Function compile flags: /Odtp /RTCsu /ZI
;	COMDAT _ztrans_getStaticClassID_56
_TEXT	SEGMENT
_trans$ = 8						; size = 4
_ztrans_getStaticClassID_56 PROC			; COMDAT
; Line 92
	push	ebp
	mov	ebp, esp
	sub	esp, 192				; 000000c0H
	push	ebx
	push	esi
	push	edi
	lea	edi, DWORD PTR [ebp-192]
	mov	ecx, 48					; 00000030H
	mov	eax, -858993460				; ccccccccH
	rep stosd
; Line 93
	call	?getStaticClassID@TimeZoneTransition@icu_56@@SAPAXXZ ; icu_56::TimeZoneTransition::getStaticClassID
; Line 94
	pop	edi
	pop	esi
	pop	ebx
	add	esp, 192				; 000000c0H
	cmp	ebp, esp
	call	__RTC_CheckEsp
	mov	esp, ebp
	pop	ebp
	ret	0
_ztrans_getStaticClassID_56 ENDP
_TEXT	ENDS
PUBLIC	_ztrans_getDynamicClassID_56
EXTRN	?getDynamicClassID@TimeZoneTransition@icu_56@@UBEPAXXZ:PROC ; icu_56::TimeZoneTransition::getDynamicClassID
; Function compile flags: /Odtp /RTCsu /ZI
;	COMDAT _ztrans_getDynamicClassID_56
_TEXT	SEGMENT
_trans$ = 8						; size = 4
_ztrans_getDynamicClassID_56 PROC			; COMDAT
; Line 97
	push	ebp
	mov	ebp, esp
	sub	esp, 192				; 000000c0H
	push	ebx
	push	esi
	push	edi
	lea	edi, DWORD PTR [ebp-192]
	mov	ecx, 48					; 00000030H
	mov	eax, -858993460				; ccccccccH
	rep stosd
; Line 98
	mov	ecx, DWORD PTR _trans$[ebp]
	call	?getDynamicClassID@TimeZoneTransition@icu_56@@UBEPAXXZ ; icu_56::TimeZoneTransition::getDynamicClassID
; Line 99
	pop	edi
	pop	esi
	pop	ebx
	add	esp, 192				; 000000c0H
	cmp	ebp, esp
	call	__RTC_CheckEsp
	mov	esp, ebp
	pop	ebp
	ret	0
_ztrans_getDynamicClassID_56 ENDP
_TEXT	ENDS
END
