; Listing generated by Microsoft (R) Optimizing Compiler Version 16.00.40219.01 

	TITLE	C:\workspace\7z1505-src\CPP\7zip\Compress\BcjRegister.cpp
	.686P
	.XMM
	include listing.inc
	.model	flat

INCLUDELIB MSVCRTD
INCLUDELIB OLDNAMES

CONST	SEGMENT
$SG66523 DB	'BCJ', 00H
	ORG $+4
_g_CodecInfo DD	FLAT:?CreateDec@@YGPAXXZ
	DD	FLAT:?CreateEnc@@YGPAXXZ
	DQ	0000000003030103H
	DD	FLAT:$SG66523
	DD	01H
	DB	01H
	ORG $+7
CONST	ENDS
PUBLIC	??0CBcjCoder@@QAE@H@Z				; CBcjCoder::CBcjCoder
EXTRN	??3@YAXPAX@Z:PROC				; operator delete
EXTRN	??2@YAPAXI@Z:PROC				; operator new
EXTRN	___security_cookie:DWORD
EXTRN	___CxxFrameHandler3:PROC
EXTRN	@__security_check_cookie@4:PROC
EXTRN	__RTC_CheckEsp:PROC
EXTRN	__RTC_Shutdown:PROC
EXTRN	__RTC_InitBase:PROC
xdata$x	SEGMENT
__unwindtable$?CreateDec@@YGPAXXZ DD 0ffffffffH
	DD	FLAT:__unwindfunclet$?CreateDec@@YGPAXXZ$0
__ehfuncinfo$?CreateDec@@YGPAXXZ DD 019930522H
	DD	01H
	DD	FLAT:__unwindtable$?CreateDec@@YGPAXXZ
	DD	2 DUP(00H)
	DD	2 DUP(00H)
	DD	00H
	DD	01H
xdata$x	ENDS
;	COMDAT rtc$TMZ
; File c:\workspace\7z1505-src\cpp\7zip\compress\bcjregister.cpp
rtc$TMZ	SEGMENT
__RTC_Shutdown.rtc$TMZ DD FLAT:__RTC_Shutdown
rtc$TMZ	ENDS
;	COMDAT rtc$IMZ
rtc$IMZ	SEGMENT
__RTC_InitBase.rtc$IMZ DD FLAT:__RTC_InitBase
; Function compile flags: /Odtp /RTCsu
rtc$IMZ	ENDS
_TEXT	SEGMENT
tv75 = -24						; size = 4
$T66628 = -20						; size = 4
$T66627 = -16						; size = 4
__$EHRec$ = -12						; size = 12
?CreateDec@@YGPAXXZ PROC				; CreateDec
; Line 12
	push	ebp
	mov	ebp, esp
	push	-1
	push	__ehhandler$?CreateDec@@YGPAXXZ
	mov	eax, DWORD PTR fs:0
	push	eax
	sub	esp, 12					; 0000000cH
	mov	DWORD PTR [ebp-24], -858993460		; ccccccccH
	mov	DWORD PTR [ebp-20], -858993460		; ccccccccH
	mov	DWORD PTR [ebp-16], -858993460		; ccccccccH
	mov	eax, DWORD PTR ___security_cookie
	xor	eax, ebp
	push	eax
	lea	eax, DWORD PTR __$EHRec$[ebp]
	mov	DWORD PTR fs:0, eax
	push	20					; 00000014H
	call	??2@YAPAXI@Z				; operator new
	add	esp, 4
	mov	DWORD PTR $T66628[ebp], eax
	mov	DWORD PTR __$EHRec$[ebp+8], 0
	cmp	DWORD PTR $T66628[ebp], 0
	je	SHORT $LN3@CreateDec
	push	0
	mov	ecx, DWORD PTR $T66628[ebp]
	call	??0CBcjCoder@@QAE@H@Z			; CBcjCoder::CBcjCoder
	mov	DWORD PTR tv75[ebp], eax
	jmp	SHORT $LN4@CreateDec
$LN3@CreateDec:
	mov	DWORD PTR tv75[ebp], 0
$LN4@CreateDec:
	mov	eax, DWORD PTR tv75[ebp]
	mov	DWORD PTR $T66627[ebp], eax
	mov	DWORD PTR __$EHRec$[ebp+8], -1
	mov	eax, DWORD PTR $T66627[ebp]
	mov	ecx, DWORD PTR __$EHRec$[ebp]
	mov	DWORD PTR fs:0, ecx
	pop	ecx
	add	esp, 24					; 00000018H
	cmp	ebp, esp
	call	__RTC_CheckEsp
	mov	esp, ebp
	pop	ebp
	ret	0
_TEXT	ENDS
text$x	SEGMENT
__unwindfunclet$?CreateDec@@YGPAXXZ$0:
	mov	eax, DWORD PTR $T66628[ebp]
	push	eax
	call	??3@YAXPAX@Z				; operator delete
	pop	ecx
	ret	0
__ehhandler$?CreateDec@@YGPAXXZ:
	mov	edx, DWORD PTR [esp+8]
	lea	eax, DWORD PTR [edx+12]
	mov	ecx, DWORD PTR [edx-16]
	xor	ecx, eax
	call	@__security_check_cookie@4
	mov	eax, OFFSET __ehfuncinfo$?CreateDec@@YGPAXXZ
	jmp	___CxxFrameHandler3
text$x	ENDS
?CreateDec@@YGPAXXZ ENDP				; CreateDec
PUBLIC	??_7CBcjCoder@@6B@				; CBcjCoder::`vftable'
PUBLIC	??0CMyUnknownImp@@QAE@XZ			; CMyUnknownImp::CMyUnknownImp
PUBLIC	??0ICompressFilter@@QAE@XZ			; ICompressFilter::ICompressFilter
PUBLIC	??_R4CBcjCoder@@6B@				; CBcjCoder::`RTTI Complete Object Locator'
PUBLIC	??_R0?AVCBcjCoder@@@8				; CBcjCoder `RTTI Type Descriptor'
PUBLIC	??_R3CBcjCoder@@8				; CBcjCoder::`RTTI Class Hierarchy Descriptor'
PUBLIC	??_R2CBcjCoder@@8				; CBcjCoder::`RTTI Base Class Array'
PUBLIC	??_R1A@?0A@EA@CBcjCoder@@8			; CBcjCoder::`RTTI Base Class Descriptor at (0,-1,0,64)'
PUBLIC	??_R1A@?0A@EA@ICompressFilter@@8		; ICompressFilter::`RTTI Base Class Descriptor at (0,-1,0,64)'
PUBLIC	??_R0?AUICompressFilter@@@8			; ICompressFilter `RTTI Type Descriptor'
PUBLIC	??_R3ICompressFilter@@8				; ICompressFilter::`RTTI Class Hierarchy Descriptor'
PUBLIC	??_R2ICompressFilter@@8				; ICompressFilter::`RTTI Base Class Array'
PUBLIC	??_R1A@?0A@EA@IUnknown@@8			; IUnknown::`RTTI Base Class Descriptor at (0,-1,0,64)'
PUBLIC	??_R0?AUIUnknown@@@8				; IUnknown `RTTI Type Descriptor'
PUBLIC	??_R3IUnknown@@8				; IUnknown::`RTTI Class Hierarchy Descriptor'
PUBLIC	??_R2IUnknown@@8				; IUnknown::`RTTI Base Class Array'
PUBLIC	??_R13?0A@EA@CMyUnknownImp@@8			; CMyUnknownImp::`RTTI Base Class Descriptor at (4,-1,0,64)'
PUBLIC	??_R0?AVCMyUnknownImp@@@8			; CMyUnknownImp `RTTI Type Descriptor'
PUBLIC	??_R3CMyUnknownImp@@8				; CMyUnknownImp::`RTTI Class Hierarchy Descriptor'
PUBLIC	??_R2CMyUnknownImp@@8				; CMyUnknownImp::`RTTI Base Class Array'
PUBLIC	??_R1A@?0A@EA@CMyUnknownImp@@8			; CMyUnknownImp::`RTTI Base Class Descriptor at (0,-1,0,64)'
PUBLIC	?QueryInterface@CBcjCoder@@UAGJABU_GUID@@PAPAX@Z ; CBcjCoder::QueryInterface
PUBLIC	?AddRef@CBcjCoder@@UAGKXZ			; CBcjCoder::AddRef
PUBLIC	?Release@CBcjCoder@@UAGKXZ			; CBcjCoder::Release
EXTRN	??_7type_info@@6B@:QWORD			; type_info::`vftable'
EXTRN	?Init@CBcjCoder@@UAGJXZ:PROC			; CBcjCoder::Init
EXTRN	?Filter@CBcjCoder@@UAGIPAEI@Z:PROC		; CBcjCoder::Filter
;	COMDAT ??_R1A@?0A@EA@CMyUnknownImp@@8
; File c:\workspace\7z1505-src\cpp\7zip\compress\bcjcoder.h
rdata$r	SEGMENT
??_R1A@?0A@EA@CMyUnknownImp@@8 DD FLAT:??_R0?AVCMyUnknownImp@@@8 ; CMyUnknownImp::`RTTI Base Class Descriptor at (0,-1,0,64)'
	DD	00H
	DD	00H
	DD	0ffffffffH
	DD	00H
	DD	040H
	DD	FLAT:??_R3CMyUnknownImp@@8
rdata$r	ENDS
;	COMDAT ??_R2CMyUnknownImp@@8
rdata$r	SEGMENT
??_R2CMyUnknownImp@@8 DD FLAT:??_R1A@?0A@EA@CMyUnknownImp@@8 ; CMyUnknownImp::`RTTI Base Class Array'
rdata$r	ENDS
;	COMDAT ??_R3CMyUnknownImp@@8
rdata$r	SEGMENT
??_R3CMyUnknownImp@@8 DD 00H				; CMyUnknownImp::`RTTI Class Hierarchy Descriptor'
	DD	00H
	DD	01H
	DD	FLAT:??_R2CMyUnknownImp@@8
rdata$r	ENDS
;	COMDAT ??_R0?AVCMyUnknownImp@@@8
_DATA	SEGMENT
??_R0?AVCMyUnknownImp@@@8 DD FLAT:??_7type_info@@6B@	; CMyUnknownImp `RTTI Type Descriptor'
	DD	00H
	DB	'.?AVCMyUnknownImp@@', 00H
_DATA	ENDS
;	COMDAT ??_R13?0A@EA@CMyUnknownImp@@8
rdata$r	SEGMENT
??_R13?0A@EA@CMyUnknownImp@@8 DD FLAT:??_R0?AVCMyUnknownImp@@@8 ; CMyUnknownImp::`RTTI Base Class Descriptor at (4,-1,0,64)'
	DD	00H
	DD	04H
	DD	0ffffffffH
	DD	00H
	DD	040H
	DD	FLAT:??_R3CMyUnknownImp@@8
rdata$r	ENDS
;	COMDAT ??_R2IUnknown@@8
rdata$r	SEGMENT
??_R2IUnknown@@8 DD FLAT:??_R1A@?0A@EA@IUnknown@@8	; IUnknown::`RTTI Base Class Array'
rdata$r	ENDS
;	COMDAT ??_R3IUnknown@@8
rdata$r	SEGMENT
??_R3IUnknown@@8 DD 00H					; IUnknown::`RTTI Class Hierarchy Descriptor'
	DD	00H
	DD	01H
	DD	FLAT:??_R2IUnknown@@8
rdata$r	ENDS
;	COMDAT ??_R0?AUIUnknown@@@8
_DATA	SEGMENT
??_R0?AUIUnknown@@@8 DD FLAT:??_7type_info@@6B@		; IUnknown `RTTI Type Descriptor'
	DD	00H
	DB	'.?AUIUnknown@@', 00H
_DATA	ENDS
;	COMDAT ??_R1A@?0A@EA@IUnknown@@8
rdata$r	SEGMENT
??_R1A@?0A@EA@IUnknown@@8 DD FLAT:??_R0?AUIUnknown@@@8	; IUnknown::`RTTI Base Class Descriptor at (0,-1,0,64)'
	DD	00H
	DD	00H
	DD	0ffffffffH
	DD	00H
	DD	040H
	DD	FLAT:??_R3IUnknown@@8
rdata$r	ENDS
;	COMDAT ??_R2ICompressFilter@@8
rdata$r	SEGMENT
??_R2ICompressFilter@@8 DD FLAT:??_R1A@?0A@EA@ICompressFilter@@8 ; ICompressFilter::`RTTI Base Class Array'
	DD	FLAT:??_R1A@?0A@EA@IUnknown@@8
rdata$r	ENDS
;	COMDAT ??_R3ICompressFilter@@8
rdata$r	SEGMENT
??_R3ICompressFilter@@8 DD 00H				; ICompressFilter::`RTTI Class Hierarchy Descriptor'
	DD	00H
	DD	02H
	DD	FLAT:??_R2ICompressFilter@@8
rdata$r	ENDS
;	COMDAT ??_R0?AUICompressFilter@@@8
_DATA	SEGMENT
??_R0?AUICompressFilter@@@8 DD FLAT:??_7type_info@@6B@	; ICompressFilter `RTTI Type Descriptor'
	DD	00H
	DB	'.?AUICompressFilter@@', 00H
_DATA	ENDS
;	COMDAT ??_R1A@?0A@EA@ICompressFilter@@8
rdata$r	SEGMENT
??_R1A@?0A@EA@ICompressFilter@@8 DD FLAT:??_R0?AUICompressFilter@@@8 ; ICompressFilter::`RTTI Base Class Descriptor at (0,-1,0,64)'
	DD	01H
	DD	00H
	DD	0ffffffffH
	DD	00H
	DD	040H
	DD	FLAT:??_R3ICompressFilter@@8
rdata$r	ENDS
;	COMDAT ??_R1A@?0A@EA@CBcjCoder@@8
rdata$r	SEGMENT
??_R1A@?0A@EA@CBcjCoder@@8 DD FLAT:??_R0?AVCBcjCoder@@@8 ; CBcjCoder::`RTTI Base Class Descriptor at (0,-1,0,64)'
	DD	03H
	DD	00H
	DD	0ffffffffH
	DD	00H
	DD	040H
	DD	FLAT:??_R3CBcjCoder@@8
rdata$r	ENDS
;	COMDAT ??_R2CBcjCoder@@8
rdata$r	SEGMENT
??_R2CBcjCoder@@8 DD FLAT:??_R1A@?0A@EA@CBcjCoder@@8	; CBcjCoder::`RTTI Base Class Array'
	DD	FLAT:??_R1A@?0A@EA@ICompressFilter@@8
	DD	FLAT:??_R1A@?0A@EA@IUnknown@@8
	DD	FLAT:??_R13?0A@EA@CMyUnknownImp@@8
rdata$r	ENDS
;	COMDAT ??_R3CBcjCoder@@8
rdata$r	SEGMENT
??_R3CBcjCoder@@8 DD 00H				; CBcjCoder::`RTTI Class Hierarchy Descriptor'
	DD	01H
	DD	04H
	DD	FLAT:??_R2CBcjCoder@@8
rdata$r	ENDS
;	COMDAT ??_R0?AVCBcjCoder@@@8
_DATA	SEGMENT
??_R0?AVCBcjCoder@@@8 DD FLAT:??_7type_info@@6B@	; CBcjCoder `RTTI Type Descriptor'
	DD	00H
	DB	'.?AVCBcjCoder@@', 00H
_DATA	ENDS
;	COMDAT ??_R4CBcjCoder@@6B@
rdata$r	SEGMENT
??_R4CBcjCoder@@6B@ DD 00H				; CBcjCoder::`RTTI Complete Object Locator'
	DD	00H
	DD	00H
	DD	FLAT:??_R0?AVCBcjCoder@@@8
	DD	FLAT:??_R3CBcjCoder@@8
rdata$r	ENDS
;	COMDAT ??_7CBcjCoder@@6B@
CONST	SEGMENT
??_7CBcjCoder@@6B@ DD FLAT:??_R4CBcjCoder@@6B@		; CBcjCoder::`vftable'
	DD	FLAT:?QueryInterface@CBcjCoder@@UAGJABU_GUID@@PAPAX@Z
	DD	FLAT:?AddRef@CBcjCoder@@UAGKXZ
	DD	FLAT:?Release@CBcjCoder@@UAGKXZ
	DD	FLAT:?Init@CBcjCoder@@UAGJXZ
	DD	FLAT:?Filter@CBcjCoder@@UAGIPAEI@Z
; Function compile flags: /Odtp /RTCsu
CONST	ENDS
;	COMDAT ??0CBcjCoder@@QAE@H@Z
_TEXT	SEGMENT
_this$ = -4						; size = 4
_encode$ = 8						; size = 4
??0CBcjCoder@@QAE@H@Z PROC				; CBcjCoder::CBcjCoder, COMDAT
; _this$ = ecx
; Line 23
	push	ebp
	mov	ebp, esp
	push	ecx
	mov	DWORD PTR [ebp-4], -858993460		; ccccccccH
	mov	DWORD PTR _this$[ebp], ecx
	mov	ecx, DWORD PTR _this$[ebp]
	call	??0ICompressFilter@@QAE@XZ
	mov	ecx, DWORD PTR _this$[ebp]
	add	ecx, 4
	call	??0CMyUnknownImp@@QAE@XZ		; CMyUnknownImp::CMyUnknownImp
	mov	eax, DWORD PTR _this$[ebp]
	mov	DWORD PTR [eax], OFFSET ??_7CBcjCoder@@6B@
	mov	ecx, DWORD PTR _this$[ebp]
	mov	DWORD PTR [ecx+8], 0
	mov	edx, DWORD PTR _this$[ebp]
	mov	eax, DWORD PTR _encode$[ebp]
	mov	DWORD PTR [edx+16], eax
	mov	ecx, DWORD PTR _this$[ebp]
	mov	DWORD PTR [ecx+12], 0
	mov	eax, DWORD PTR _this$[ebp]
	add	esp, 4
	cmp	ebp, esp
	call	__RTC_CheckEsp
	mov	esp, ebp
	pop	ebp
	ret	4
??0CBcjCoder@@QAE@H@Z ENDP				; CBcjCoder::CBcjCoder
; Function compile flags: /Odtp /RTCsu
_TEXT	ENDS
;	COMDAT ??0CMyUnknownImp@@QAE@XZ
_TEXT	SEGMENT
_this$ = -4						; size = 4
??0CMyUnknownImp@@QAE@XZ PROC				; CMyUnknownImp::CMyUnknownImp, COMDAT
; _this$ = ecx
; File c:\workspace\7z1505-src\cpp\common\mycom.h
; Line 167
	push	ebp
	mov	ebp, esp
	push	ecx
	mov	DWORD PTR [ebp-4], -858993460		; ccccccccH
	mov	DWORD PTR _this$[ebp], ecx
	mov	eax, DWORD PTR _this$[ebp]
	mov	DWORD PTR [eax], 0
	mov	eax, DWORD PTR _this$[ebp]
	mov	esp, ebp
	pop	ebp
	ret	0
??0CMyUnknownImp@@QAE@XZ ENDP				; CMyUnknownImp::CMyUnknownImp
_TEXT	ENDS
PUBLIC	_==@8
EXTRN	_IID_IUnknown:BYTE
; Function compile flags: /Odtp /RTCsu
;	COMDAT ?QueryInterface@CBcjCoder@@UAGJABU_GUID@@PAPAX@Z
_TEXT	SEGMENT
_this$ = 8						; size = 4
_iid$ = 12						; size = 4
_outObject$ = 16					; size = 4
?QueryInterface@CBcjCoder@@UAGJABU_GUID@@PAPAX@Z PROC	; CBcjCoder::QueryInterface, COMDAT
; File c:\workspace\7z1505-src\cpp\7zip\compress\bcjcoder.h
; Line 20
	push	ebp
	mov	ebp, esp
	mov	eax, DWORD PTR _outObject$[ebp]
	mov	DWORD PTR [eax], 0
	push	OFFSET _IID_IUnknown
	mov	ecx, DWORD PTR _iid$[ebp]
	push	ecx
	call	_==@8
	test	eax, eax
	je	SHORT $LN2@QueryInter
	mov	edx, DWORD PTR _outObject$[ebp]
	mov	eax, DWORD PTR _this$[ebp]
	mov	DWORD PTR [edx], eax
	jmp	SHORT $LN1@QueryInter
$LN2@QueryInter:
	mov	eax, -2147467262			; 80004002H
	jmp	SHORT $LN3@QueryInter
$LN1@QueryInter:
	mov	ecx, DWORD PTR _this$[ebp]
	mov	edx, DWORD PTR [ecx+4]
	add	edx, 1
	mov	eax, DWORD PTR _this$[ebp]
	mov	DWORD PTR [eax+4], edx
	xor	eax, eax
$LN3@QueryInter:
	cmp	ebp, esp
	call	__RTC_CheckEsp
	pop	ebp
	ret	12					; 0000000cH
?QueryInterface@CBcjCoder@@UAGJABU_GUID@@PAPAX@Z ENDP	; CBcjCoder::QueryInterface
; Function compile flags: /Odtp /RTCsu
_TEXT	ENDS
;	COMDAT ?AddRef@CBcjCoder@@UAGKXZ
_TEXT	SEGMENT
tv70 = -4						; size = 4
_this$ = 8						; size = 4
?AddRef@CBcjCoder@@UAGKXZ PROC				; CBcjCoder::AddRef, COMDAT
; Line 20
	push	ebp
	mov	ebp, esp
	push	ecx
	mov	DWORD PTR [ebp-4], -858993460		; ccccccccH
	mov	eax, DWORD PTR _this$[ebp]
	mov	ecx, DWORD PTR [eax+4]
	add	ecx, 1
	mov	DWORD PTR tv70[ebp], ecx
	mov	edx, DWORD PTR _this$[ebp]
	mov	eax, DWORD PTR tv70[ebp]
	mov	DWORD PTR [edx+4], eax
	mov	eax, DWORD PTR tv70[ebp]
	mov	esp, ebp
	pop	ebp
	ret	4
?AddRef@CBcjCoder@@UAGKXZ ENDP				; CBcjCoder::AddRef
; Function compile flags: /Odtp /RTCsu
_TEXT	ENDS
;	COMDAT ?Release@CBcjCoder@@UAGKXZ
_TEXT	SEGMENT
tv70 = -8						; size = 4
$T66657 = -4						; size = 4
_this$ = 8						; size = 4
?Release@CBcjCoder@@UAGKXZ PROC				; CBcjCoder::Release, COMDAT
; Line 20
	push	ebp
	mov	ebp, esp
	sub	esp, 8
	mov	DWORD PTR [ebp-8], -858993460		; ccccccccH
	mov	DWORD PTR [ebp-4], -858993460		; ccccccccH
	mov	eax, DWORD PTR _this$[ebp]
	mov	ecx, DWORD PTR [eax+4]
	sub	ecx, 1
	mov	DWORD PTR tv70[ebp], ecx
	mov	edx, DWORD PTR _this$[ebp]
	mov	eax, DWORD PTR tv70[ebp]
	mov	DWORD PTR [edx+4], eax
	cmp	DWORD PTR tv70[ebp], 0
	je	SHORT $LN1@Release
	mov	ecx, DWORD PTR _this$[ebp]
	mov	eax, DWORD PTR [ecx+4]
	jmp	SHORT $LN2@Release
$LN1@Release:
	mov	edx, DWORD PTR _this$[ebp]
	mov	DWORD PTR $T66657[ebp], edx
	mov	eax, DWORD PTR $T66657[ebp]
	push	eax
	call	??3@YAXPAX@Z				; operator delete
	add	esp, 4
	xor	eax, eax
$LN2@Release:
	add	esp, 8
	cmp	ebp, esp
	call	__RTC_CheckEsp
	mov	esp, ebp
	pop	ebp
	ret	4
?Release@CBcjCoder@@UAGKXZ ENDP				; CBcjCoder::Release
_TEXT	ENDS
PUBLIC	??_7ICompressFilter@@6B@			; ICompressFilter::`vftable'
PUBLIC	??0IUnknown@@QAE@XZ				; IUnknown::IUnknown
PUBLIC	??_R4ICompressFilter@@6B@			; ICompressFilter::`RTTI Complete Object Locator'
EXTRN	__purecall:PROC
;	COMDAT ??_R4ICompressFilter@@6B@
rdata$r	SEGMENT
??_R4ICompressFilter@@6B@ DD 00H			; ICompressFilter::`RTTI Complete Object Locator'
	DD	00H
	DD	00H
	DD	FLAT:??_R0?AUICompressFilter@@@8
	DD	FLAT:??_R3ICompressFilter@@8
rdata$r	ENDS
;	COMDAT ??_7ICompressFilter@@6B@
CONST	SEGMENT
??_7ICompressFilter@@6B@ DD FLAT:??_R4ICompressFilter@@6B@ ; ICompressFilter::`vftable'
	DD	FLAT:__purecall
	DD	FLAT:__purecall
	DD	FLAT:__purecall
	DD	FLAT:__purecall
	DD	FLAT:__purecall
; Function compile flags: /Odtp /RTCsu
CONST	ENDS
;	COMDAT ??0ICompressFilter@@QAE@XZ
_TEXT	SEGMENT
_this$ = -4						; size = 4
??0ICompressFilter@@QAE@XZ PROC				; ICompressFilter::ICompressFilter, COMDAT
; _this$ = ecx
	push	ebp
	mov	ebp, esp
	push	ecx
	mov	DWORD PTR [ebp-4], -858993460		; ccccccccH
	mov	DWORD PTR _this$[ebp], ecx
	mov	ecx, DWORD PTR _this$[ebp]
	call	??0IUnknown@@QAE@XZ
	mov	eax, DWORD PTR _this$[ebp]
	mov	DWORD PTR [eax], OFFSET ??_7ICompressFilter@@6B@
	mov	eax, DWORD PTR _this$[ebp]
	add	esp, 4
	cmp	ebp, esp
	call	__RTC_CheckEsp
	mov	esp, ebp
	pop	ebp
	ret	0
??0ICompressFilter@@QAE@XZ ENDP				; ICompressFilter::ICompressFilter
; Function compile flags: /Odtp /RTCsu
_TEXT	ENDS
;	COMDAT ??0IUnknown@@QAE@XZ
_TEXT	SEGMENT
_this$ = -4						; size = 4
??0IUnknown@@QAE@XZ PROC				; IUnknown::IUnknown, COMDAT
; _this$ = ecx
	push	ebp
	mov	ebp, esp
	push	ecx
	mov	DWORD PTR [ebp-4], -858993460		; ccccccccH
	mov	DWORD PTR _this$[ebp], ecx
	mov	eax, DWORD PTR _this$[ebp]
	mov	esp, ebp
	pop	ebp
	ret	0
??0IUnknown@@QAE@XZ ENDP				; IUnknown::IUnknown
_TEXT	ENDS
xdata$x	SEGMENT
__unwindtable$?CreateEnc@@YGPAXXZ DD 0ffffffffH
	DD	FLAT:__unwindfunclet$?CreateEnc@@YGPAXXZ$0
__ehfuncinfo$?CreateEnc@@YGPAXXZ DD 019930522H
	DD	01H
	DD	FLAT:__unwindtable$?CreateEnc@@YGPAXXZ
	DD	2 DUP(00H)
	DD	2 DUP(00H)
	DD	00H
	DD	01H
; Function compile flags: /Odtp /RTCsu
xdata$x	ENDS
_TEXT	SEGMENT
tv75 = -24						; size = 4
$T66665 = -20						; size = 4
$T66664 = -16						; size = 4
__$EHRec$ = -12						; size = 12
?CreateEnc@@YGPAXXZ PROC				; CreateEnc
; File c:\workspace\7z1505-src\cpp\7zip\compress\bcjregister.cpp
; Line 12
	push	ebp
	mov	ebp, esp
	push	-1
	push	__ehhandler$?CreateEnc@@YGPAXXZ
	mov	eax, DWORD PTR fs:0
	push	eax
	sub	esp, 12					; 0000000cH
	mov	DWORD PTR [ebp-24], -858993460		; ccccccccH
	mov	DWORD PTR [ebp-20], -858993460		; ccccccccH
	mov	DWORD PTR [ebp-16], -858993460		; ccccccccH
	mov	eax, DWORD PTR ___security_cookie
	xor	eax, ebp
	push	eax
	lea	eax, DWORD PTR __$EHRec$[ebp]
	mov	DWORD PTR fs:0, eax
	push	20					; 00000014H
	call	??2@YAPAXI@Z				; operator new
	add	esp, 4
	mov	DWORD PTR $T66665[ebp], eax
	mov	DWORD PTR __$EHRec$[ebp+8], 0
	cmp	DWORD PTR $T66665[ebp], 0
	je	SHORT $LN3@CreateEnc
	push	1
	mov	ecx, DWORD PTR $T66665[ebp]
	call	??0CBcjCoder@@QAE@H@Z			; CBcjCoder::CBcjCoder
	mov	DWORD PTR tv75[ebp], eax
	jmp	SHORT $LN4@CreateEnc
$LN3@CreateEnc:
	mov	DWORD PTR tv75[ebp], 0
$LN4@CreateEnc:
	mov	eax, DWORD PTR tv75[ebp]
	mov	DWORD PTR $T66664[ebp], eax
	mov	DWORD PTR __$EHRec$[ebp+8], -1
	mov	eax, DWORD PTR $T66664[ebp]
	mov	ecx, DWORD PTR __$EHRec$[ebp]
	mov	DWORD PTR fs:0, ecx
	pop	ecx
	add	esp, 24					; 00000018H
	cmp	ebp, esp
	call	__RTC_CheckEsp
	mov	esp, ebp
	pop	ebp
	ret	0
_TEXT	ENDS
text$x	SEGMENT
__unwindfunclet$?CreateEnc@@YGPAXXZ$0:
	mov	eax, DWORD PTR $T66665[ebp]
	push	eax
	call	??3@YAXPAX@Z				; operator delete
	pop	ecx
	ret	0
__ehhandler$?CreateEnc@@YGPAXXZ:
	mov	edx, DWORD PTR [esp+8]
	lea	eax, DWORD PTR [edx+12]
	mov	ecx, DWORD PTR [edx-16]
	xor	ecx, eax
	call	@__security_check_cookie@4
	mov	eax, OFFSET __ehfuncinfo$?CreateEnc@@YGPAXXZ
	jmp	___CxxFrameHandler3
text$x	ENDS
?CreateEnc@@YGPAXXZ ENDP				; CreateEnc
PUBLIC	_IsEqualGUID@8
; Function compile flags: /Odtp /RTCsu
;	COMDAT _==@8
_TEXT	SEGMENT
_guidOne$ = 8						; size = 4
_guidOther$ = 12					; size = 4
_==@8	PROC						; COMDAT
; File c:\program files (x86)\microsoft sdks\windows\v7.0a\include\guiddef.h
; Line 193
	push	ebp
	mov	ebp, esp
; Line 194
	mov	eax, DWORD PTR _guidOther$[ebp]
	push	eax
	mov	ecx, DWORD PTR _guidOne$[ebp]
	push	ecx
	call	_IsEqualGUID@8
; Line 195
	cmp	ebp, esp
	call	__RTC_CheckEsp
	pop	ebp
	ret	8
_==@8	ENDP
_TEXT	ENDS
EXTRN	_memcmp:PROC
; Function compile flags: /Odtp /RTCsu
;	COMDAT _IsEqualGUID@8
_TEXT	SEGMENT
_rguid1$ = 8						; size = 4
_rguid2$ = 12						; size = 4
_IsEqualGUID@8 PROC					; COMDAT
; Line 160
	push	ebp
	mov	ebp, esp
; Line 161
	push	16					; 00000010H
	mov	eax, DWORD PTR _rguid2$[ebp]
	push	eax
	mov	ecx, DWORD PTR _rguid1$[ebp]
	push	ecx
	call	_memcmp
	add	esp, 12					; 0000000cH
	neg	eax
	sbb	eax, eax
	add	eax, 1
; Line 162
	cmp	ebp, esp
	call	__RTC_CheckEsp
	pop	ebp
	ret	8
_IsEqualGUID@8 ENDP
_TEXT	ENDS
PUBLIC	??0CRegisterCodecBCJ@@QAE@XZ			; CRegisterCodecBCJ::CRegisterCodecBCJ
; Function compile flags: /Odtp /RTCsu
;	COMDAT ??__Eg_RegisterCodec@@YAXXZ
text$yc	SEGMENT
??__Eg_RegisterCodec@@YAXXZ PROC			; `dynamic initializer for 'g_RegisterCodec'', COMDAT
; File c:\workspace\7z1505-src\cpp\7zip\compress\bcjregister.cpp
; Line 12
	push	ebp
	mov	ebp, esp
	mov	ecx, OFFSET _g_RegisterCodec
	call	??0CRegisterCodecBCJ@@QAE@XZ		; CRegisterCodecBCJ::CRegisterCodecBCJ
	cmp	ebp, esp
	call	__RTC_CheckEsp
	pop	ebp
	ret	0
??__Eg_RegisterCodec@@YAXXZ ENDP			; `dynamic initializer for 'g_RegisterCodec''
text$yc	ENDS
EXTRN	?RegisterCodec@@YGXPBUCCodecInfo@@@Z:PROC	; RegisterCodec
; Function compile flags: /Odtp /RTCsu
;	COMDAT ??0CRegisterCodecBCJ@@QAE@XZ
_TEXT	SEGMENT
_this$ = -4						; size = 4
??0CRegisterCodecBCJ@@QAE@XZ PROC			; CRegisterCodecBCJ::CRegisterCodecBCJ, COMDAT
; _this$ = ecx
; Line 12
	push	ebp
	mov	ebp, esp
	push	ecx
	mov	DWORD PTR [ebp-4], -858993460		; ccccccccH
	mov	DWORD PTR _this$[ebp], ecx
	push	OFFSET _g_CodecInfo
	call	?RegisterCodec@@YGXPBUCCodecInfo@@@Z	; RegisterCodec
	mov	eax, DWORD PTR _this$[ebp]
	add	esp, 4
	cmp	ebp, esp
	call	__RTC_CheckEsp
	mov	esp, ebp
	pop	ebp
	ret	0
??0CRegisterCodecBCJ@@QAE@XZ ENDP			; CRegisterCodecBCJ::CRegisterCodecBCJ
_TEXT	ENDS
_BSS	SEGMENT
_g_RegisterCodec DB 01H DUP (?)
_BSS	ENDS
CRT$XCU	SEGMENT
_g_RegisterCodec$initializer$ DD FLAT:??__Eg_RegisterCodec@@YAXXZ
CRT$XCU	ENDS
END
