; Listing generated by Microsoft (R) Optimizing Compiler Version 16.00.40219.01 

	TITLE	C:\workspace\7z1505-src\CPP\7zip\Compress\CopyRegister.cpp
	.686P
	.XMM
	include listing.inc
	.model	flat

INCLUDELIB MSVCRTD
INCLUDELIB OLDNAMES

CONST	SEGMENT
$SG66576 DB	'Copy', 00H
	ORG $+3
_g_CodecInfo DD	FLAT:?CreateCodec@@YGPAXXZ
	DD	FLAT:?CreateCodec@@YGPAXXZ
	DQ	0000000000000000H
	DD	FLAT:$SG66576
	DD	01H
	DB	00H
	ORG $+7
CONST	ENDS
PUBLIC	??0CCopyCoder@NCompress@@QAE@XZ			; NCompress::CCopyCoder::CCopyCoder
EXTRN	??3@YAXPAX@Z:PROC				; operator delete
EXTRN	??2@YAPAXI@Z:PROC				; operator new
EXTRN	___security_cookie:DWORD
EXTRN	___CxxFrameHandler3:PROC
EXTRN	@__security_check_cookie@4:PROC
EXTRN	__RTC_CheckEsp:PROC
EXTRN	__RTC_Shutdown:PROC
EXTRN	__RTC_InitBase:PROC
xdata$x	SEGMENT
__unwindtable$?CreateCodec@@YGPAXXZ DD 0ffffffffH
	DD	FLAT:__unwindfunclet$?CreateCodec@@YGPAXXZ$0
__ehfuncinfo$?CreateCodec@@YGPAXXZ DD 019930522H
	DD	01H
	DD	FLAT:__unwindtable$?CreateCodec@@YGPAXXZ
	DD	2 DUP(00H)
	DD	2 DUP(00H)
	DD	00H
	DD	01H
xdata$x	ENDS
;	COMDAT rtc$TMZ
; File c:\workspace\7z1505-src\cpp\7zip\compress\copyregister.cpp
rtc$TMZ	SEGMENT
__RTC_Shutdown.rtc$TMZ DD FLAT:__RTC_Shutdown
rtc$TMZ	ENDS
;	COMDAT rtc$IMZ
rtc$IMZ	SEGMENT
__RTC_InitBase.rtc$IMZ DD FLAT:__RTC_InitBase
; Function compile flags: /Odtp /RTCsu
rtc$IMZ	ENDS
_TEXT	SEGMENT
tv74 = -24						; size = 4
$T66766 = -20						; size = 4
$T66765 = -16						; size = 4
__$EHRec$ = -12						; size = 12
?CreateCodec@@YGPAXXZ PROC				; CreateCodec
; Line 9
	push	ebp
	mov	ebp, esp
	push	-1
	push	__ehhandler$?CreateCodec@@YGPAXXZ
	mov	eax, DWORD PTR fs:0
	push	eax
	sub	esp, 12					; 0000000cH
	mov	DWORD PTR [ebp-24], -858993460		; ccccccccH
	mov	DWORD PTR [ebp-20], -858993460		; ccccccccH
	mov	DWORD PTR [ebp-16], -858993460		; ccccccccH
	mov	eax, DWORD PTR ___security_cookie
	xor	eax, ebp
	push	eax
	lea	eax, DWORD PTR __$EHRec$[ebp]
	mov	DWORD PTR fs:0, eax
	push	40					; 00000028H
	call	??2@YAPAXI@Z				; operator new
	add	esp, 4
	mov	DWORD PTR $T66766[ebp], eax
	mov	DWORD PTR __$EHRec$[ebp+8], 0
	cmp	DWORD PTR $T66766[ebp], 0
	je	SHORT $LN3@CreateCode
	mov	ecx, DWORD PTR $T66766[ebp]
	call	??0CCopyCoder@NCompress@@QAE@XZ		; NCompress::CCopyCoder::CCopyCoder
	mov	DWORD PTR tv74[ebp], eax
	jmp	SHORT $LN4@CreateCode
$LN3@CreateCode:
	mov	DWORD PTR tv74[ebp], 0
$LN4@CreateCode:
	mov	eax, DWORD PTR tv74[ebp]
	mov	DWORD PTR $T66765[ebp], eax
	mov	DWORD PTR __$EHRec$[ebp+8], -1
	mov	eax, DWORD PTR $T66765[ebp]
	mov	ecx, DWORD PTR __$EHRec$[ebp]
	mov	DWORD PTR fs:0, ecx
	pop	ecx
	add	esp, 24					; 00000018H
	cmp	ebp, esp
	call	__RTC_CheckEsp
	mov	esp, ebp
	pop	ebp
	ret	0
_TEXT	ENDS
text$x	SEGMENT
__unwindfunclet$?CreateCodec@@YGPAXXZ$0:
	mov	eax, DWORD PTR $T66766[ebp]
	push	eax
	call	??3@YAXPAX@Z				; operator delete
	pop	ecx
	ret	0
__ehhandler$?CreateCodec@@YGPAXXZ:
	mov	edx, DWORD PTR [esp+8]
	lea	eax, DWORD PTR [edx+12]
	mov	ecx, DWORD PTR [edx-16]
	xor	ecx, eax
	call	@__security_check_cookie@4
	mov	eax, OFFSET __ehfuncinfo$?CreateCodec@@YGPAXXZ
	jmp	___CxxFrameHandler3
text$x	ENDS
?CreateCodec@@YGPAXXZ ENDP				; CreateCodec
PUBLIC	??0?$CMyComPtr@UISequentialInStream@@@@QAE@XZ	; CMyComPtr<ISequentialInStream>::CMyComPtr<ISequentialInStream>
PUBLIC	??_7CCopyCoder@NCompress@@6BICompressGetInStreamProcessedSize@@@ ; NCompress::CCopyCoder::`vftable'
PUBLIC	??_7CCopyCoder@NCompress@@6BISequentialInStream@@@ ; NCompress::CCopyCoder::`vftable'
PUBLIC	??_7CCopyCoder@NCompress@@6BICompressSetInStream@@@ ; NCompress::CCopyCoder::`vftable'
PUBLIC	??_7CCopyCoder@NCompress@@6BICompressCoder@@@	; NCompress::CCopyCoder::`vftable'
PUBLIC	??0CMyUnknownImp@@QAE@XZ			; CMyUnknownImp::CMyUnknownImp
PUBLIC	??0ICompressGetInStreamProcessedSize@@QAE@XZ	; ICompressGetInStreamProcessedSize::ICompressGetInStreamProcessedSize
PUBLIC	??0ISequentialInStream@@QAE@XZ			; ISequentialInStream::ISequentialInStream
PUBLIC	??0ICompressSetInStream@@QAE@XZ			; ICompressSetInStream::ICompressSetInStream
PUBLIC	??0ICompressCoder@@QAE@XZ			; ICompressCoder::ICompressCoder
PUBLIC	??_R4CCopyCoder@NCompress@@6BICompressCoder@@@	; NCompress::CCopyCoder::`RTTI Complete Object Locator'
PUBLIC	??_R0?AVCCopyCoder@NCompress@@@8		; NCompress::CCopyCoder `RTTI Type Descriptor'
PUBLIC	??_R3CCopyCoder@NCompress@@8			; NCompress::CCopyCoder::`RTTI Class Hierarchy Descriptor'
PUBLIC	??_R2CCopyCoder@NCompress@@8			; NCompress::CCopyCoder::`RTTI Base Class Array'
PUBLIC	??_R1A@?0A@EA@CCopyCoder@NCompress@@8		; NCompress::CCopyCoder::`RTTI Base Class Descriptor at (0,-1,0,64)'
PUBLIC	??_R1A@?0A@EA@ICompressCoder@@8			; ICompressCoder::`RTTI Base Class Descriptor at (0,-1,0,64)'
PUBLIC	??_R0?AUICompressCoder@@@8			; ICompressCoder `RTTI Type Descriptor'
PUBLIC	??_R3ICompressCoder@@8				; ICompressCoder::`RTTI Class Hierarchy Descriptor'
PUBLIC	??_R2ICompressCoder@@8				; ICompressCoder::`RTTI Base Class Array'
PUBLIC	??_R1A@?0A@EA@IUnknown@@8			; IUnknown::`RTTI Base Class Descriptor at (0,-1,0,64)'
PUBLIC	??_R0?AUIUnknown@@@8				; IUnknown `RTTI Type Descriptor'
PUBLIC	??_R3IUnknown@@8				; IUnknown::`RTTI Class Hierarchy Descriptor'
PUBLIC	??_R2IUnknown@@8				; IUnknown::`RTTI Base Class Array'
PUBLIC	??_R1A@?0A@EC@IUnknown@@8			; IUnknown::`RTTI Base Class Descriptor at (0,-1,0,66)'
PUBLIC	??_R13?0A@EA@ICompressSetInStream@@8		; ICompressSetInStream::`RTTI Base Class Descriptor at (4,-1,0,64)'
PUBLIC	??_R0?AUICompressSetInStream@@@8		; ICompressSetInStream `RTTI Type Descriptor'
PUBLIC	??_R3ICompressSetInStream@@8			; ICompressSetInStream::`RTTI Class Hierarchy Descriptor'
PUBLIC	??_R2ICompressSetInStream@@8			; ICompressSetInStream::`RTTI Base Class Array'
PUBLIC	??_R1A@?0A@EA@ICompressSetInStream@@8		; ICompressSetInStream::`RTTI Base Class Descriptor at (0,-1,0,64)'
PUBLIC	??_R13?0A@EC@IUnknown@@8			; IUnknown::`RTTI Base Class Descriptor at (4,-1,0,66)'
PUBLIC	??_R17?0A@EA@ISequentialInStream@@8		; ISequentialInStream::`RTTI Base Class Descriptor at (8,-1,0,64)'
PUBLIC	??_R0?AUISequentialInStream@@@8			; ISequentialInStream `RTTI Type Descriptor'
PUBLIC	??_R3ISequentialInStream@@8			; ISequentialInStream::`RTTI Class Hierarchy Descriptor'
PUBLIC	??_R2ISequentialInStream@@8			; ISequentialInStream::`RTTI Base Class Array'
PUBLIC	??_R1A@?0A@EA@ISequentialInStream@@8		; ISequentialInStream::`RTTI Base Class Descriptor at (0,-1,0,64)'
PUBLIC	??_R17?0A@EC@IUnknown@@8			; IUnknown::`RTTI Base Class Descriptor at (8,-1,0,66)'
PUBLIC	??_R1M@?0A@EA@ICompressGetInStreamProcessedSize@@8 ; ICompressGetInStreamProcessedSize::`RTTI Base Class Descriptor at (12,-1,0,64)'
PUBLIC	??_R0?AUICompressGetInStreamProcessedSize@@@8	; ICompressGetInStreamProcessedSize `RTTI Type Descriptor'
PUBLIC	??_R3ICompressGetInStreamProcessedSize@@8	; ICompressGetInStreamProcessedSize::`RTTI Class Hierarchy Descriptor'
PUBLIC	??_R2ICompressGetInStreamProcessedSize@@8	; ICompressGetInStreamProcessedSize::`RTTI Base Class Array'
PUBLIC	??_R1A@?0A@EA@ICompressGetInStreamProcessedSize@@8 ; ICompressGetInStreamProcessedSize::`RTTI Base Class Descriptor at (0,-1,0,64)'
PUBLIC	??_R1M@?0A@EC@IUnknown@@8			; IUnknown::`RTTI Base Class Descriptor at (12,-1,0,66)'
PUBLIC	??_R1BA@?0A@EA@CMyUnknownImp@@8			; CMyUnknownImp::`RTTI Base Class Descriptor at (16,-1,0,64)'
PUBLIC	??_R0?AVCMyUnknownImp@@@8			; CMyUnknownImp `RTTI Type Descriptor'
PUBLIC	??_R3CMyUnknownImp@@8				; CMyUnknownImp::`RTTI Class Hierarchy Descriptor'
PUBLIC	??_R2CMyUnknownImp@@8				; CMyUnknownImp::`RTTI Base Class Array'
PUBLIC	??_R1A@?0A@EA@CMyUnknownImp@@8			; CMyUnknownImp::`RTTI Base Class Descriptor at (0,-1,0,64)'
PUBLIC	?QueryInterface@CCopyCoder@NCompress@@UAGJABU_GUID@@PAPAX@Z ; NCompress::CCopyCoder::QueryInterface
PUBLIC	?AddRef@CCopyCoder@NCompress@@UAGKXZ		; NCompress::CCopyCoder::AddRef
PUBLIC	?Release@CCopyCoder@NCompress@@UAGKXZ		; NCompress::CCopyCoder::Release
PUBLIC	??_R4CCopyCoder@NCompress@@6BICompressSetInStream@@@ ; NCompress::CCopyCoder::`RTTI Complete Object Locator'
PUBLIC	?QueryInterface@CCopyCoder@NCompress@@W3AGJABU_GUID@@PAPAX@Z ; [thunk]:NCompress::CCopyCoder::QueryInterface`adjustor{4}'
PUBLIC	?AddRef@CCopyCoder@NCompress@@W3AGKXZ		; [thunk]:NCompress::CCopyCoder::AddRef`adjustor{4}'
PUBLIC	?Release@CCopyCoder@NCompress@@W3AGKXZ		; [thunk]:NCompress::CCopyCoder::Release`adjustor{4}'
PUBLIC	??_R4CCopyCoder@NCompress@@6BISequentialInStream@@@ ; NCompress::CCopyCoder::`RTTI Complete Object Locator'
PUBLIC	?QueryInterface@CCopyCoder@NCompress@@W7AGJABU_GUID@@PAPAX@Z ; [thunk]:NCompress::CCopyCoder::QueryInterface`adjustor{8}'
PUBLIC	?AddRef@CCopyCoder@NCompress@@W7AGKXZ		; [thunk]:NCompress::CCopyCoder::AddRef`adjustor{8}'
PUBLIC	?Release@CCopyCoder@NCompress@@W7AGKXZ		; [thunk]:NCompress::CCopyCoder::Release`adjustor{8}'
PUBLIC	??_R4CCopyCoder@NCompress@@6BICompressGetInStreamProcessedSize@@@ ; NCompress::CCopyCoder::`RTTI Complete Object Locator'
PUBLIC	?QueryInterface@CCopyCoder@NCompress@@WM@AGJABU_GUID@@PAPAX@Z ; [thunk]:NCompress::CCopyCoder::QueryInterface`adjustor{12}'
PUBLIC	?AddRef@CCopyCoder@NCompress@@WM@AGKXZ		; [thunk]:NCompress::CCopyCoder::AddRef`adjustor{12}'
PUBLIC	?Release@CCopyCoder@NCompress@@WM@AGKXZ		; [thunk]:NCompress::CCopyCoder::Release`adjustor{12}'
EXTRN	??_7type_info@@6B@:QWORD			; type_info::`vftable'
EXTRN	?Code@CCopyCoder@NCompress@@UAGJPAUISequentialInStream@@PAUISequentialOutStream@@PB_K2PAUICompressProgressInfo@@@Z:PROC ; NCompress::CCopyCoder::Code
EXTRN	?SetInStream@CCopyCoder@NCompress@@UAGJPAUISequentialInStream@@@Z:PROC ; NCompress::CCopyCoder::SetInStream
EXTRN	?ReleaseInStream@CCopyCoder@NCompress@@UAGJXZ:PROC ; NCompress::CCopyCoder::ReleaseInStream
EXTRN	?Read@CCopyCoder@NCompress@@UAGJPAXIPAI@Z:PROC	; NCompress::CCopyCoder::Read
EXTRN	?GetInStreamProcessedSize@CCopyCoder@NCompress@@UAGJPA_K@Z:PROC ; NCompress::CCopyCoder::GetInStreamProcessedSize
;	COMDAT ??_R4CCopyCoder@NCompress@@6BICompressGetInStreamProcessedSize@@@
; File c:\workspace\7z1505-src\cpp\7zip\compress\copycoder.h
rdata$r	SEGMENT
??_R4CCopyCoder@NCompress@@6BICompressGetInStreamProcessedSize@@@ DD 00H ; NCompress::CCopyCoder::`RTTI Complete Object Locator'
	DD	0cH
	DD	00H
	DD	FLAT:??_R0?AVCCopyCoder@NCompress@@@8
	DD	FLAT:??_R3CCopyCoder@NCompress@@8
rdata$r	ENDS
;	COMDAT ??_R4CCopyCoder@NCompress@@6BISequentialInStream@@@
rdata$r	SEGMENT
??_R4CCopyCoder@NCompress@@6BISequentialInStream@@@ DD 00H ; NCompress::CCopyCoder::`RTTI Complete Object Locator'
	DD	08H
	DD	00H
	DD	FLAT:??_R0?AVCCopyCoder@NCompress@@@8
	DD	FLAT:??_R3CCopyCoder@NCompress@@8
rdata$r	ENDS
;	COMDAT ??_R4CCopyCoder@NCompress@@6BICompressSetInStream@@@
rdata$r	SEGMENT
??_R4CCopyCoder@NCompress@@6BICompressSetInStream@@@ DD 00H ; NCompress::CCopyCoder::`RTTI Complete Object Locator'
	DD	04H
	DD	00H
	DD	FLAT:??_R0?AVCCopyCoder@NCompress@@@8
	DD	FLAT:??_R3CCopyCoder@NCompress@@8
rdata$r	ENDS
;	COMDAT ??_R1A@?0A@EA@CMyUnknownImp@@8
rdata$r	SEGMENT
??_R1A@?0A@EA@CMyUnknownImp@@8 DD FLAT:??_R0?AVCMyUnknownImp@@@8 ; CMyUnknownImp::`RTTI Base Class Descriptor at (0,-1,0,64)'
	DD	00H
	DD	00H
	DD	0ffffffffH
	DD	00H
	DD	040H
	DD	FLAT:??_R3CMyUnknownImp@@8
rdata$r	ENDS
;	COMDAT ??_R2CMyUnknownImp@@8
rdata$r	SEGMENT
??_R2CMyUnknownImp@@8 DD FLAT:??_R1A@?0A@EA@CMyUnknownImp@@8 ; CMyUnknownImp::`RTTI Base Class Array'
rdata$r	ENDS
;	COMDAT ??_R3CMyUnknownImp@@8
rdata$r	SEGMENT
??_R3CMyUnknownImp@@8 DD 00H				; CMyUnknownImp::`RTTI Class Hierarchy Descriptor'
	DD	00H
	DD	01H
	DD	FLAT:??_R2CMyUnknownImp@@8
rdata$r	ENDS
;	COMDAT ??_R0?AVCMyUnknownImp@@@8
_DATA	SEGMENT
??_R0?AVCMyUnknownImp@@@8 DD FLAT:??_7type_info@@6B@	; CMyUnknownImp `RTTI Type Descriptor'
	DD	00H
	DB	'.?AVCMyUnknownImp@@', 00H
_DATA	ENDS
;	COMDAT ??_R1BA@?0A@EA@CMyUnknownImp@@8
rdata$r	SEGMENT
??_R1BA@?0A@EA@CMyUnknownImp@@8 DD FLAT:??_R0?AVCMyUnknownImp@@@8 ; CMyUnknownImp::`RTTI Base Class Descriptor at (16,-1,0,64)'
	DD	00H
	DD	010H
	DD	0ffffffffH
	DD	00H
	DD	040H
	DD	FLAT:??_R3CMyUnknownImp@@8
rdata$r	ENDS
;	COMDAT ??_R1M@?0A@EC@IUnknown@@8
rdata$r	SEGMENT
??_R1M@?0A@EC@IUnknown@@8 DD FLAT:??_R0?AUIUnknown@@@8	; IUnknown::`RTTI Base Class Descriptor at (12,-1,0,66)'
	DD	00H
	DD	0cH
	DD	0ffffffffH
	DD	00H
	DD	042H
	DD	FLAT:??_R3IUnknown@@8
rdata$r	ENDS
;	COMDAT ??_R1A@?0A@EA@ICompressGetInStreamProcessedSize@@8
rdata$r	SEGMENT
??_R1A@?0A@EA@ICompressGetInStreamProcessedSize@@8 DD FLAT:??_R0?AUICompressGetInStreamProcessedSize@@@8 ; ICompressGetInStreamProcessedSize::`RTTI Base Class Descriptor at (0,-1,0,64)'
	DD	01H
	DD	00H
	DD	0ffffffffH
	DD	00H
	DD	040H
	DD	FLAT:??_R3ICompressGetInStreamProcessedSize@@8
rdata$r	ENDS
;	COMDAT ??_R2ICompressGetInStreamProcessedSize@@8
rdata$r	SEGMENT
??_R2ICompressGetInStreamProcessedSize@@8 DD FLAT:??_R1A@?0A@EA@ICompressGetInStreamProcessedSize@@8 ; ICompressGetInStreamProcessedSize::`RTTI Base Class Array'
	DD	FLAT:??_R1A@?0A@EA@IUnknown@@8
rdata$r	ENDS
;	COMDAT ??_R3ICompressGetInStreamProcessedSize@@8
rdata$r	SEGMENT
??_R3ICompressGetInStreamProcessedSize@@8 DD 00H	; ICompressGetInStreamProcessedSize::`RTTI Class Hierarchy Descriptor'
	DD	00H
	DD	02H
	DD	FLAT:??_R2ICompressGetInStreamProcessedSize@@8
rdata$r	ENDS
;	COMDAT ??_R0?AUICompressGetInStreamProcessedSize@@@8
_DATA	SEGMENT
??_R0?AUICompressGetInStreamProcessedSize@@@8 DD FLAT:??_7type_info@@6B@ ; ICompressGetInStreamProcessedSize `RTTI Type Descriptor'
	DD	00H
	DB	'.?AUICompressGetInStreamProcessedSize@@', 00H
_DATA	ENDS
;	COMDAT ??_R1M@?0A@EA@ICompressGetInStreamProcessedSize@@8
rdata$r	SEGMENT
??_R1M@?0A@EA@ICompressGetInStreamProcessedSize@@8 DD FLAT:??_R0?AUICompressGetInStreamProcessedSize@@@8 ; ICompressGetInStreamProcessedSize::`RTTI Base Class Descriptor at (12,-1,0,64)'
	DD	01H
	DD	0cH
	DD	0ffffffffH
	DD	00H
	DD	040H
	DD	FLAT:??_R3ICompressGetInStreamProcessedSize@@8
rdata$r	ENDS
;	COMDAT ??_R17?0A@EC@IUnknown@@8
rdata$r	SEGMENT
??_R17?0A@EC@IUnknown@@8 DD FLAT:??_R0?AUIUnknown@@@8	; IUnknown::`RTTI Base Class Descriptor at (8,-1,0,66)'
	DD	00H
	DD	08H
	DD	0ffffffffH
	DD	00H
	DD	042H
	DD	FLAT:??_R3IUnknown@@8
rdata$r	ENDS
;	COMDAT ??_R1A@?0A@EA@ISequentialInStream@@8
rdata$r	SEGMENT
??_R1A@?0A@EA@ISequentialInStream@@8 DD FLAT:??_R0?AUISequentialInStream@@@8 ; ISequentialInStream::`RTTI Base Class Descriptor at (0,-1,0,64)'
	DD	01H
	DD	00H
	DD	0ffffffffH
	DD	00H
	DD	040H
	DD	FLAT:??_R3ISequentialInStream@@8
rdata$r	ENDS
;	COMDAT ??_R2ISequentialInStream@@8
rdata$r	SEGMENT
??_R2ISequentialInStream@@8 DD FLAT:??_R1A@?0A@EA@ISequentialInStream@@8 ; ISequentialInStream::`RTTI Base Class Array'
	DD	FLAT:??_R1A@?0A@EA@IUnknown@@8
rdata$r	ENDS
;	COMDAT ??_R3ISequentialInStream@@8
rdata$r	SEGMENT
??_R3ISequentialInStream@@8 DD 00H			; ISequentialInStream::`RTTI Class Hierarchy Descriptor'
	DD	00H
	DD	02H
	DD	FLAT:??_R2ISequentialInStream@@8
rdata$r	ENDS
;	COMDAT ??_R0?AUISequentialInStream@@@8
_DATA	SEGMENT
??_R0?AUISequentialInStream@@@8 DD FLAT:??_7type_info@@6B@ ; ISequentialInStream `RTTI Type Descriptor'
	DD	00H
	DB	'.?AUISequentialInStream@@', 00H
_DATA	ENDS
;	COMDAT ??_R17?0A@EA@ISequentialInStream@@8
rdata$r	SEGMENT
??_R17?0A@EA@ISequentialInStream@@8 DD FLAT:??_R0?AUISequentialInStream@@@8 ; ISequentialInStream::`RTTI Base Class Descriptor at (8,-1,0,64)'
	DD	01H
	DD	08H
	DD	0ffffffffH
	DD	00H
	DD	040H
	DD	FLAT:??_R3ISequentialInStream@@8
rdata$r	ENDS
;	COMDAT ??_R13?0A@EC@IUnknown@@8
rdata$r	SEGMENT
??_R13?0A@EC@IUnknown@@8 DD FLAT:??_R0?AUIUnknown@@@8	; IUnknown::`RTTI Base Class Descriptor at (4,-1,0,66)'
	DD	00H
	DD	04H
	DD	0ffffffffH
	DD	00H
	DD	042H
	DD	FLAT:??_R3IUnknown@@8
rdata$r	ENDS
;	COMDAT ??_R1A@?0A@EA@ICompressSetInStream@@8
rdata$r	SEGMENT
??_R1A@?0A@EA@ICompressSetInStream@@8 DD FLAT:??_R0?AUICompressSetInStream@@@8 ; ICompressSetInStream::`RTTI Base Class Descriptor at (0,-1,0,64)'
	DD	01H
	DD	00H
	DD	0ffffffffH
	DD	00H
	DD	040H
	DD	FLAT:??_R3ICompressSetInStream@@8
rdata$r	ENDS
;	COMDAT ??_R2ICompressSetInStream@@8
rdata$r	SEGMENT
??_R2ICompressSetInStream@@8 DD FLAT:??_R1A@?0A@EA@ICompressSetInStream@@8 ; ICompressSetInStream::`RTTI Base Class Array'
	DD	FLAT:??_R1A@?0A@EA@IUnknown@@8
rdata$r	ENDS
;	COMDAT ??_R3ICompressSetInStream@@8
rdata$r	SEGMENT
??_R3ICompressSetInStream@@8 DD 00H			; ICompressSetInStream::`RTTI Class Hierarchy Descriptor'
	DD	00H
	DD	02H
	DD	FLAT:??_R2ICompressSetInStream@@8
rdata$r	ENDS
;	COMDAT ??_R0?AUICompressSetInStream@@@8
_DATA	SEGMENT
??_R0?AUICompressSetInStream@@@8 DD FLAT:??_7type_info@@6B@ ; ICompressSetInStream `RTTI Type Descriptor'
	DD	00H
	DB	'.?AUICompressSetInStream@@', 00H
_DATA	ENDS
;	COMDAT ??_R13?0A@EA@ICompressSetInStream@@8
rdata$r	SEGMENT
??_R13?0A@EA@ICompressSetInStream@@8 DD FLAT:??_R0?AUICompressSetInStream@@@8 ; ICompressSetInStream::`RTTI Base Class Descriptor at (4,-1,0,64)'
	DD	01H
	DD	04H
	DD	0ffffffffH
	DD	00H
	DD	040H
	DD	FLAT:??_R3ICompressSetInStream@@8
rdata$r	ENDS
;	COMDAT ??_R1A@?0A@EC@IUnknown@@8
rdata$r	SEGMENT
??_R1A@?0A@EC@IUnknown@@8 DD FLAT:??_R0?AUIUnknown@@@8	; IUnknown::`RTTI Base Class Descriptor at (0,-1,0,66)'
	DD	00H
	DD	00H
	DD	0ffffffffH
	DD	00H
	DD	042H
	DD	FLAT:??_R3IUnknown@@8
rdata$r	ENDS
;	COMDAT ??_R2IUnknown@@8
rdata$r	SEGMENT
??_R2IUnknown@@8 DD FLAT:??_R1A@?0A@EA@IUnknown@@8	; IUnknown::`RTTI Base Class Array'
rdata$r	ENDS
;	COMDAT ??_R3IUnknown@@8
rdata$r	SEGMENT
??_R3IUnknown@@8 DD 00H					; IUnknown::`RTTI Class Hierarchy Descriptor'
	DD	00H
	DD	01H
	DD	FLAT:??_R2IUnknown@@8
rdata$r	ENDS
;	COMDAT ??_R0?AUIUnknown@@@8
_DATA	SEGMENT
??_R0?AUIUnknown@@@8 DD FLAT:??_7type_info@@6B@		; IUnknown `RTTI Type Descriptor'
	DD	00H
	DB	'.?AUIUnknown@@', 00H
_DATA	ENDS
;	COMDAT ??_R1A@?0A@EA@IUnknown@@8
rdata$r	SEGMENT
??_R1A@?0A@EA@IUnknown@@8 DD FLAT:??_R0?AUIUnknown@@@8	; IUnknown::`RTTI Base Class Descriptor at (0,-1,0,64)'
	DD	00H
	DD	00H
	DD	0ffffffffH
	DD	00H
	DD	040H
	DD	FLAT:??_R3IUnknown@@8
rdata$r	ENDS
;	COMDAT ??_R2ICompressCoder@@8
rdata$r	SEGMENT
??_R2ICompressCoder@@8 DD FLAT:??_R1A@?0A@EA@ICompressCoder@@8 ; ICompressCoder::`RTTI Base Class Array'
	DD	FLAT:??_R1A@?0A@EA@IUnknown@@8
rdata$r	ENDS
;	COMDAT ??_R3ICompressCoder@@8
rdata$r	SEGMENT
??_R3ICompressCoder@@8 DD 00H				; ICompressCoder::`RTTI Class Hierarchy Descriptor'
	DD	00H
	DD	02H
	DD	FLAT:??_R2ICompressCoder@@8
rdata$r	ENDS
;	COMDAT ??_R0?AUICompressCoder@@@8
_DATA	SEGMENT
??_R0?AUICompressCoder@@@8 DD FLAT:??_7type_info@@6B@	; ICompressCoder `RTTI Type Descriptor'
	DD	00H
	DB	'.?AUICompressCoder@@', 00H
_DATA	ENDS
;	COMDAT ??_R1A@?0A@EA@ICompressCoder@@8
rdata$r	SEGMENT
??_R1A@?0A@EA@ICompressCoder@@8 DD FLAT:??_R0?AUICompressCoder@@@8 ; ICompressCoder::`RTTI Base Class Descriptor at (0,-1,0,64)'
	DD	01H
	DD	00H
	DD	0ffffffffH
	DD	00H
	DD	040H
	DD	FLAT:??_R3ICompressCoder@@8
rdata$r	ENDS
;	COMDAT ??_R1A@?0A@EA@CCopyCoder@NCompress@@8
rdata$r	SEGMENT
??_R1A@?0A@EA@CCopyCoder@NCompress@@8 DD FLAT:??_R0?AVCCopyCoder@NCompress@@@8 ; NCompress::CCopyCoder::`RTTI Base Class Descriptor at (0,-1,0,64)'
	DD	09H
	DD	00H
	DD	0ffffffffH
	DD	00H
	DD	040H
	DD	FLAT:??_R3CCopyCoder@NCompress@@8
rdata$r	ENDS
;	COMDAT ??_R2CCopyCoder@NCompress@@8
rdata$r	SEGMENT
??_R2CCopyCoder@NCompress@@8 DD FLAT:??_R1A@?0A@EA@CCopyCoder@NCompress@@8 ; NCompress::CCopyCoder::`RTTI Base Class Array'
	DD	FLAT:??_R1A@?0A@EA@ICompressCoder@@8
	DD	FLAT:??_R1A@?0A@EC@IUnknown@@8
	DD	FLAT:??_R13?0A@EA@ICompressSetInStream@@8
	DD	FLAT:??_R13?0A@EC@IUnknown@@8
	DD	FLAT:??_R17?0A@EA@ISequentialInStream@@8
	DD	FLAT:??_R17?0A@EC@IUnknown@@8
	DD	FLAT:??_R1M@?0A@EA@ICompressGetInStreamProcessedSize@@8
	DD	FLAT:??_R1M@?0A@EC@IUnknown@@8
	DD	FLAT:??_R1BA@?0A@EA@CMyUnknownImp@@8
rdata$r	ENDS
;	COMDAT ??_R3CCopyCoder@NCompress@@8
rdata$r	SEGMENT
??_R3CCopyCoder@NCompress@@8 DD 00H			; NCompress::CCopyCoder::`RTTI Class Hierarchy Descriptor'
	DD	05H
	DD	0aH
	DD	FLAT:??_R2CCopyCoder@NCompress@@8
rdata$r	ENDS
;	COMDAT ??_R0?AVCCopyCoder@NCompress@@@8
_DATA	SEGMENT
??_R0?AVCCopyCoder@NCompress@@@8 DD FLAT:??_7type_info@@6B@ ; NCompress::CCopyCoder `RTTI Type Descriptor'
	DD	00H
	DB	'.?AVCCopyCoder@NCompress@@', 00H
_DATA	ENDS
;	COMDAT ??_R4CCopyCoder@NCompress@@6BICompressCoder@@@
rdata$r	SEGMENT
??_R4CCopyCoder@NCompress@@6BICompressCoder@@@ DD 00H	; NCompress::CCopyCoder::`RTTI Complete Object Locator'
	DD	00H
	DD	00H
	DD	FLAT:??_R0?AVCCopyCoder@NCompress@@@8
	DD	FLAT:??_R3CCopyCoder@NCompress@@8
rdata$r	ENDS
;	COMDAT ??_7CCopyCoder@NCompress@@6BICompressGetInStreamProcessedSize@@@
CONST	SEGMENT
??_7CCopyCoder@NCompress@@6BICompressGetInStreamProcessedSize@@@ DD FLAT:??_R4CCopyCoder@NCompress@@6BICompressGetInStreamProcessedSize@@@ ; NCompress::CCopyCoder::`vftable'
	DD	FLAT:?QueryInterface@CCopyCoder@NCompress@@WM@AGJABU_GUID@@PAPAX@Z
	DD	FLAT:?AddRef@CCopyCoder@NCompress@@WM@AGKXZ
	DD	FLAT:?Release@CCopyCoder@NCompress@@WM@AGKXZ
	DD	FLAT:?GetInStreamProcessedSize@CCopyCoder@NCompress@@UAGJPA_K@Z
CONST	ENDS
;	COMDAT ??_7CCopyCoder@NCompress@@6BISequentialInStream@@@
CONST	SEGMENT
??_7CCopyCoder@NCompress@@6BISequentialInStream@@@ DD FLAT:??_R4CCopyCoder@NCompress@@6BISequentialInStream@@@ ; NCompress::CCopyCoder::`vftable'
	DD	FLAT:?QueryInterface@CCopyCoder@NCompress@@W7AGJABU_GUID@@PAPAX@Z
	DD	FLAT:?AddRef@CCopyCoder@NCompress@@W7AGKXZ
	DD	FLAT:?Release@CCopyCoder@NCompress@@W7AGKXZ
	DD	FLAT:?Read@CCopyCoder@NCompress@@UAGJPAXIPAI@Z
CONST	ENDS
;	COMDAT ??_7CCopyCoder@NCompress@@6BICompressSetInStream@@@
CONST	SEGMENT
??_7CCopyCoder@NCompress@@6BICompressSetInStream@@@ DD FLAT:??_R4CCopyCoder@NCompress@@6BICompressSetInStream@@@ ; NCompress::CCopyCoder::`vftable'
	DD	FLAT:?QueryInterface@CCopyCoder@NCompress@@W3AGJABU_GUID@@PAPAX@Z
	DD	FLAT:?AddRef@CCopyCoder@NCompress@@W3AGKXZ
	DD	FLAT:?Release@CCopyCoder@NCompress@@W3AGKXZ
	DD	FLAT:?SetInStream@CCopyCoder@NCompress@@UAGJPAUISequentialInStream@@@Z
	DD	FLAT:?ReleaseInStream@CCopyCoder@NCompress@@UAGJXZ
CONST	ENDS
;	COMDAT ??_7CCopyCoder@NCompress@@6BICompressCoder@@@
CONST	SEGMENT
??_7CCopyCoder@NCompress@@6BICompressCoder@@@ DD FLAT:??_R4CCopyCoder@NCompress@@6BICompressCoder@@@ ; NCompress::CCopyCoder::`vftable'
	DD	FLAT:?QueryInterface@CCopyCoder@NCompress@@UAGJABU_GUID@@PAPAX@Z
	DD	FLAT:?AddRef@CCopyCoder@NCompress@@UAGKXZ
	DD	FLAT:?Release@CCopyCoder@NCompress@@UAGKXZ
	DD	FLAT:?Code@CCopyCoder@NCompress@@UAGJPAUISequentialInStream@@PAUISequentialOutStream@@PB_K2PAUICompressProgressInfo@@@Z
; Function compile flags: /Odtp /RTCsu
CONST	ENDS
;	COMDAT ??0CCopyCoder@NCompress@@QAE@XZ
_TEXT	SEGMENT
_this$ = -4						; size = 4
??0CCopyCoder@NCompress@@QAE@XZ PROC			; NCompress::CCopyCoder::CCopyCoder, COMDAT
; _this$ = ecx
; Line 24
	push	ebp
	mov	ebp, esp
	push	ecx
	mov	DWORD PTR [ebp-4], -858993460		; ccccccccH
	mov	DWORD PTR _this$[ebp], ecx
	mov	ecx, DWORD PTR _this$[ebp]
	call	??0ICompressCoder@@QAE@XZ
	mov	ecx, DWORD PTR _this$[ebp]
	add	ecx, 4
	call	??0ICompressSetInStream@@QAE@XZ
	mov	ecx, DWORD PTR _this$[ebp]
	add	ecx, 8
	call	??0ISequentialInStream@@QAE@XZ
	mov	ecx, DWORD PTR _this$[ebp]
	add	ecx, 12					; 0000000cH
	call	??0ICompressGetInStreamProcessedSize@@QAE@XZ
	mov	ecx, DWORD PTR _this$[ebp]
	add	ecx, 16					; 00000010H
	call	??0CMyUnknownImp@@QAE@XZ		; CMyUnknownImp::CMyUnknownImp
	mov	eax, DWORD PTR _this$[ebp]
	mov	DWORD PTR [eax], OFFSET ??_7CCopyCoder@NCompress@@6BICompressCoder@@@
	mov	ecx, DWORD PTR _this$[ebp]
	mov	DWORD PTR [ecx+4], OFFSET ??_7CCopyCoder@NCompress@@6BICompressSetInStream@@@
	mov	edx, DWORD PTR _this$[ebp]
	mov	DWORD PTR [edx+8], OFFSET ??_7CCopyCoder@NCompress@@6BISequentialInStream@@@
	mov	eax, DWORD PTR _this$[ebp]
	mov	DWORD PTR [eax+12], OFFSET ??_7CCopyCoder@NCompress@@6BICompressGetInStreamProcessedSize@@@
	mov	ecx, DWORD PTR _this$[ebp]
	mov	DWORD PTR [ecx+20], 0
	mov	ecx, DWORD PTR _this$[ebp]
	add	ecx, 24					; 00000018H
	call	??0?$CMyComPtr@UISequentialInStream@@@@QAE@XZ ; CMyComPtr<ISequentialInStream>::CMyComPtr<ISequentialInStream>
	mov	edx, DWORD PTR _this$[ebp]
	mov	DWORD PTR [edx+32], 0
	mov	DWORD PTR [edx+36], 0
	mov	eax, DWORD PTR _this$[ebp]
	add	esp, 4
	cmp	ebp, esp
	call	__RTC_CheckEsp
	mov	esp, ebp
	pop	ebp
	ret	0
??0CCopyCoder@NCompress@@QAE@XZ ENDP			; NCompress::CCopyCoder::CCopyCoder
; Function compile flags: /Odtp /RTCsu
_TEXT	ENDS
;	COMDAT ??0CMyUnknownImp@@QAE@XZ
_TEXT	SEGMENT
_this$ = -4						; size = 4
??0CMyUnknownImp@@QAE@XZ PROC				; CMyUnknownImp::CMyUnknownImp, COMDAT
; _this$ = ecx
; File c:\workspace\7z1505-src\cpp\common\mycom.h
; Line 167
	push	ebp
	mov	ebp, esp
	push	ecx
	mov	DWORD PTR [ebp-4], -858993460		; ccccccccH
	mov	DWORD PTR _this$[ebp], ecx
	mov	eax, DWORD PTR _this$[ebp]
	mov	DWORD PTR [eax], 0
	mov	eax, DWORD PTR _this$[ebp]
	mov	esp, ebp
	pop	ebp
	ret	0
??0CMyUnknownImp@@QAE@XZ ENDP				; CMyUnknownImp::CMyUnknownImp
_TEXT	ENDS
PUBLIC	_==@8
EXTRN	_IID_ICompressGetInStreamProcessedSize:BYTE
EXTRN	_IID_ISequentialInStream:BYTE
EXTRN	_IID_ICompressSetInStream:BYTE
EXTRN	_IID_ICompressCoder:BYTE
EXTRN	_IID_IUnknown:BYTE
; Function compile flags: /Odtp /RTCsu
;	COMDAT ?QueryInterface@CCopyCoder@NCompress@@UAGJABU_GUID@@PAPAX@Z
_TEXT	SEGMENT
tv144 = -12						; size = 4
tv134 = -8						; size = 4
tv92 = -4						; size = 4
_this$ = 8						; size = 4
_iid$ = 12						; size = 4
_outObject$ = 16					; size = 4
?QueryInterface@CCopyCoder@NCompress@@UAGJABU_GUID@@PAPAX@Z PROC ; NCompress::CCopyCoder::QueryInterface, COMDAT
; File c:\workspace\7z1505-src\cpp\7zip\compress\copycoder.h
; Line 31
	push	ebp
	mov	ebp, esp
	sub	esp, 12					; 0000000cH
	mov	DWORD PTR [ebp-12], -858993460		; ccccccccH
	mov	DWORD PTR [ebp-8], -858993460		; ccccccccH
	mov	DWORD PTR [ebp-4], -858993460		; ccccccccH
	mov	eax, DWORD PTR _outObject$[ebp]
	mov	DWORD PTR [eax], 0
	push	OFFSET _IID_IUnknown
	mov	ecx, DWORD PTR _iid$[ebp]
	push	ecx
	call	_==@8
	test	eax, eax
	je	SHORT $LN10@QueryInter
	mov	edx, DWORD PTR _outObject$[ebp]
	mov	eax, DWORD PTR _this$[ebp]
	mov	DWORD PTR [edx], eax
	jmp	$LN9@QueryInter
$LN10@QueryInter:
	push	OFFSET _IID_ICompressCoder
	mov	ecx, DWORD PTR _iid$[ebp]
	push	ecx
	call	_==@8
	test	eax, eax
	je	SHORT $LN8@QueryInter
	mov	edx, DWORD PTR _outObject$[ebp]
	mov	eax, DWORD PTR _this$[ebp]
	mov	DWORD PTR [edx], eax
	jmp	$LN9@QueryInter
$LN8@QueryInter:
	push	OFFSET _IID_ICompressSetInStream
	mov	ecx, DWORD PTR _iid$[ebp]
	push	ecx
	call	_==@8
	test	eax, eax
	je	SHORT $LN6@QueryInter
	cmp	DWORD PTR _this$[ebp], 0
	je	SHORT $LN13@QueryInter
	mov	edx, DWORD PTR _this$[ebp]
	add	edx, 4
	mov	DWORD PTR tv92[ebp], edx
	jmp	SHORT $LN14@QueryInter
$LN13@QueryInter:
	mov	DWORD PTR tv92[ebp], 0
$LN14@QueryInter:
	mov	eax, DWORD PTR _outObject$[ebp]
	mov	ecx, DWORD PTR tv92[ebp]
	mov	DWORD PTR [eax], ecx
	jmp	SHORT $LN9@QueryInter
$LN6@QueryInter:
	push	OFFSET _IID_ISequentialInStream
	mov	edx, DWORD PTR _iid$[ebp]
	push	edx
	call	_==@8
	test	eax, eax
	je	SHORT $LN4@QueryInter
	cmp	DWORD PTR _this$[ebp], 0
	je	SHORT $LN15@QueryInter
	mov	eax, DWORD PTR _this$[ebp]
	add	eax, 8
	mov	DWORD PTR tv134[ebp], eax
	jmp	SHORT $LN16@QueryInter
$LN15@QueryInter:
	mov	DWORD PTR tv134[ebp], 0
$LN16@QueryInter:
	mov	ecx, DWORD PTR _outObject$[ebp]
	mov	edx, DWORD PTR tv134[ebp]
	mov	DWORD PTR [ecx], edx
	jmp	SHORT $LN9@QueryInter
$LN4@QueryInter:
	push	OFFSET _IID_ICompressGetInStreamProcessedSize
	mov	eax, DWORD PTR _iid$[ebp]
	push	eax
	call	_==@8
	test	eax, eax
	je	SHORT $LN2@QueryInter
	cmp	DWORD PTR _this$[ebp], 0
	je	SHORT $LN17@QueryInter
	mov	ecx, DWORD PTR _this$[ebp]
	add	ecx, 12					; 0000000cH
	mov	DWORD PTR tv144[ebp], ecx
	jmp	SHORT $LN18@QueryInter
$LN17@QueryInter:
	mov	DWORD PTR tv144[ebp], 0
$LN18@QueryInter:
	mov	edx, DWORD PTR _outObject$[ebp]
	mov	eax, DWORD PTR tv144[ebp]
	mov	DWORD PTR [edx], eax
	jmp	SHORT $LN9@QueryInter
$LN2@QueryInter:
	mov	eax, -2147467262			; 80004002H
	jmp	SHORT $LN11@QueryInter
$LN9@QueryInter:
	mov	ecx, DWORD PTR _this$[ebp]
	mov	edx, DWORD PTR [ecx+16]
	add	edx, 1
	mov	eax, DWORD PTR _this$[ebp]
	mov	DWORD PTR [eax+16], edx
	xor	eax, eax
$LN11@QueryInter:
	add	esp, 12					; 0000000cH
	cmp	ebp, esp
	call	__RTC_CheckEsp
	mov	esp, ebp
	pop	ebp
	ret	12					; 0000000cH
?QueryInterface@CCopyCoder@NCompress@@UAGJABU_GUID@@PAPAX@Z ENDP ; NCompress::CCopyCoder::QueryInterface
; Function compile flags: /Odtp /RTCsu
_TEXT	ENDS
;	COMDAT ?AddRef@CCopyCoder@NCompress@@UAGKXZ
_TEXT	SEGMENT
tv70 = -4						; size = 4
_this$ = 8						; size = 4
?AddRef@CCopyCoder@NCompress@@UAGKXZ PROC		; NCompress::CCopyCoder::AddRef, COMDAT
; Line 31
	push	ebp
	mov	ebp, esp
	push	ecx
	mov	DWORD PTR [ebp-4], -858993460		; ccccccccH
	mov	eax, DWORD PTR _this$[ebp]
	mov	ecx, DWORD PTR [eax+16]
	add	ecx, 1
	mov	DWORD PTR tv70[ebp], ecx
	mov	edx, DWORD PTR _this$[ebp]
	mov	eax, DWORD PTR tv70[ebp]
	mov	DWORD PTR [edx+16], eax
	mov	eax, DWORD PTR tv70[ebp]
	mov	esp, ebp
	pop	ebp
	ret	4
?AddRef@CCopyCoder@NCompress@@UAGKXZ ENDP		; NCompress::CCopyCoder::AddRef
_TEXT	ENDS
PUBLIC	??_GCCopyCoder@NCompress@@QAEPAXI@Z		; NCompress::CCopyCoder::`scalar deleting destructor'
; Function compile flags: /Odtp /RTCsu
;	COMDAT ?Release@CCopyCoder@NCompress@@UAGKXZ
_TEXT	SEGMENT
tv81 = -16						; size = 4
tv70 = -12						; size = 4
$T66803 = -8						; size = 4
$T66802 = -4						; size = 4
_this$ = 8						; size = 4
?Release@CCopyCoder@NCompress@@UAGKXZ PROC		; NCompress::CCopyCoder::Release, COMDAT
; Line 31
	push	ebp
	mov	ebp, esp
	sub	esp, 16					; 00000010H
	mov	eax, -858993460				; ccccccccH
	mov	DWORD PTR [ebp-16], eax
	mov	DWORD PTR [ebp-12], eax
	mov	DWORD PTR [ebp-8], eax
	mov	DWORD PTR [ebp-4], eax
	mov	eax, DWORD PTR _this$[ebp]
	mov	ecx, DWORD PTR [eax+16]
	sub	ecx, 1
	mov	DWORD PTR tv70[ebp], ecx
	mov	edx, DWORD PTR _this$[ebp]
	mov	eax, DWORD PTR tv70[ebp]
	mov	DWORD PTR [edx+16], eax
	cmp	DWORD PTR tv70[ebp], 0
	je	SHORT $LN1@Release
	mov	ecx, DWORD PTR _this$[ebp]
	mov	eax, DWORD PTR [ecx+16]
	jmp	SHORT $LN2@Release
$LN1@Release:
	mov	edx, DWORD PTR _this$[ebp]
	mov	DWORD PTR $T66803[ebp], edx
	mov	eax, DWORD PTR $T66803[ebp]
	mov	DWORD PTR $T66802[ebp], eax
	cmp	DWORD PTR $T66802[ebp], 0
	je	SHORT $LN4@Release
	push	1
	mov	ecx, DWORD PTR $T66802[ebp]
	call	??_GCCopyCoder@NCompress@@QAEPAXI@Z
	mov	DWORD PTR tv81[ebp], eax
	jmp	SHORT $LN5@Release
$LN4@Release:
	mov	DWORD PTR tv81[ebp], 0
$LN5@Release:
	xor	eax, eax
$LN2@Release:
	add	esp, 16					; 00000010H
	cmp	ebp, esp
	call	__RTC_CheckEsp
	mov	esp, ebp
	pop	ebp
	ret	4
?Release@CCopyCoder@NCompress@@UAGKXZ ENDP		; NCompress::CCopyCoder::Release
_TEXT	ENDS
PUBLIC	??_7ICompressCoder@@6B@				; ICompressCoder::`vftable'
PUBLIC	??0IUnknown@@QAE@XZ				; IUnknown::IUnknown
PUBLIC	??_R4ICompressCoder@@6B@			; ICompressCoder::`RTTI Complete Object Locator'
EXTRN	__purecall:PROC
;	COMDAT ??_R4ICompressCoder@@6B@
rdata$r	SEGMENT
??_R4ICompressCoder@@6B@ DD 00H				; ICompressCoder::`RTTI Complete Object Locator'
	DD	00H
	DD	00H
	DD	FLAT:??_R0?AUICompressCoder@@@8
	DD	FLAT:??_R3ICompressCoder@@8
rdata$r	ENDS
;	COMDAT ??_7ICompressCoder@@6B@
CONST	SEGMENT
??_7ICompressCoder@@6B@ DD FLAT:??_R4ICompressCoder@@6B@ ; ICompressCoder::`vftable'
	DD	FLAT:__purecall
	DD	FLAT:__purecall
	DD	FLAT:__purecall
	DD	FLAT:__purecall
; Function compile flags: /Odtp /RTCsu
CONST	ENDS
;	COMDAT ??0ICompressCoder@@QAE@XZ
_TEXT	SEGMENT
_this$ = -4						; size = 4
??0ICompressCoder@@QAE@XZ PROC				; ICompressCoder::ICompressCoder, COMDAT
; _this$ = ecx
	push	ebp
	mov	ebp, esp
	push	ecx
	mov	DWORD PTR [ebp-4], -858993460		; ccccccccH
	mov	DWORD PTR _this$[ebp], ecx
	mov	ecx, DWORD PTR _this$[ebp]
	call	??0IUnknown@@QAE@XZ
	mov	eax, DWORD PTR _this$[ebp]
	mov	DWORD PTR [eax], OFFSET ??_7ICompressCoder@@6B@
	mov	eax, DWORD PTR _this$[ebp]
	add	esp, 4
	cmp	ebp, esp
	call	__RTC_CheckEsp
	mov	esp, ebp
	pop	ebp
	ret	0
??0ICompressCoder@@QAE@XZ ENDP				; ICompressCoder::ICompressCoder
_TEXT	ENDS
PUBLIC	??_7ICompressSetInStream@@6B@			; ICompressSetInStream::`vftable'
PUBLIC	??_R4ICompressSetInStream@@6B@			; ICompressSetInStream::`RTTI Complete Object Locator'
;	COMDAT ??_R4ICompressSetInStream@@6B@
rdata$r	SEGMENT
??_R4ICompressSetInStream@@6B@ DD 00H			; ICompressSetInStream::`RTTI Complete Object Locator'
	DD	00H
	DD	00H
	DD	FLAT:??_R0?AUICompressSetInStream@@@8
	DD	FLAT:??_R3ICompressSetInStream@@8
rdata$r	ENDS
;	COMDAT ??_7ICompressSetInStream@@6B@
CONST	SEGMENT
??_7ICompressSetInStream@@6B@ DD FLAT:??_R4ICompressSetInStream@@6B@ ; ICompressSetInStream::`vftable'
	DD	FLAT:__purecall
	DD	FLAT:__purecall
	DD	FLAT:__purecall
	DD	FLAT:__purecall
	DD	FLAT:__purecall
; Function compile flags: /Odtp /RTCsu
CONST	ENDS
;	COMDAT ??0ICompressSetInStream@@QAE@XZ
_TEXT	SEGMENT
_this$ = -4						; size = 4
??0ICompressSetInStream@@QAE@XZ PROC			; ICompressSetInStream::ICompressSetInStream, COMDAT
; _this$ = ecx
	push	ebp
	mov	ebp, esp
	push	ecx
	mov	DWORD PTR [ebp-4], -858993460		; ccccccccH
	mov	DWORD PTR _this$[ebp], ecx
	mov	ecx, DWORD PTR _this$[ebp]
	call	??0IUnknown@@QAE@XZ
	mov	eax, DWORD PTR _this$[ebp]
	mov	DWORD PTR [eax], OFFSET ??_7ICompressSetInStream@@6B@
	mov	eax, DWORD PTR _this$[ebp]
	add	esp, 4
	cmp	ebp, esp
	call	__RTC_CheckEsp
	mov	esp, ebp
	pop	ebp
	ret	0
??0ICompressSetInStream@@QAE@XZ ENDP			; ICompressSetInStream::ICompressSetInStream
_TEXT	ENDS
PUBLIC	_IsEqualGUID@8
; Function compile flags: /Odtp /RTCsu
;	COMDAT _==@8
_TEXT	SEGMENT
_guidOne$ = 8						; size = 4
_guidOther$ = 12					; size = 4
_==@8	PROC						; COMDAT
; File c:\program files (x86)\microsoft sdks\windows\v7.0a\include\guiddef.h
; Line 193
	push	ebp
	mov	ebp, esp
; Line 194
	mov	eax, DWORD PTR _guidOther$[ebp]
	push	eax
	mov	ecx, DWORD PTR _guidOne$[ebp]
	push	ecx
	call	_IsEqualGUID@8
; Line 195
	cmp	ebp, esp
	call	__RTC_CheckEsp
	pop	ebp
	ret	8
_==@8	ENDP
_TEXT	ENDS
EXTRN	_memcmp:PROC
; Function compile flags: /Odtp /RTCsu
;	COMDAT _IsEqualGUID@8
_TEXT	SEGMENT
_rguid1$ = 8						; size = 4
_rguid2$ = 12						; size = 4
_IsEqualGUID@8 PROC					; COMDAT
; Line 160
	push	ebp
	mov	ebp, esp
; Line 161
	push	16					; 00000010H
	mov	eax, DWORD PTR _rguid2$[ebp]
	push	eax
	mov	ecx, DWORD PTR _rguid1$[ebp]
	push	ecx
	call	_memcmp
	add	esp, 12					; 0000000cH
	neg	eax
	sbb	eax, eax
	add	eax, 1
; Line 162
	cmp	ebp, esp
	call	__RTC_CheckEsp
	pop	ebp
	ret	8
_IsEqualGUID@8 ENDP
_TEXT	ENDS
PUBLIC	??_7ISequentialInStream@@6B@			; ISequentialInStream::`vftable'
PUBLIC	??_R4ISequentialInStream@@6B@			; ISequentialInStream::`RTTI Complete Object Locator'
;	COMDAT ??_R4ISequentialInStream@@6B@
rdata$r	SEGMENT
??_R4ISequentialInStream@@6B@ DD 00H			; ISequentialInStream::`RTTI Complete Object Locator'
	DD	00H
	DD	00H
	DD	FLAT:??_R0?AUISequentialInStream@@@8
	DD	FLAT:??_R3ISequentialInStream@@8
rdata$r	ENDS
;	COMDAT ??_7ISequentialInStream@@6B@
CONST	SEGMENT
??_7ISequentialInStream@@6B@ DD FLAT:??_R4ISequentialInStream@@6B@ ; ISequentialInStream::`vftable'
	DD	FLAT:__purecall
	DD	FLAT:__purecall
	DD	FLAT:__purecall
	DD	FLAT:__purecall
; Function compile flags: /Odtp /RTCsu
CONST	ENDS
;	COMDAT ??0ISequentialInStream@@QAE@XZ
_TEXT	SEGMENT
_this$ = -4						; size = 4
??0ISequentialInStream@@QAE@XZ PROC			; ISequentialInStream::ISequentialInStream, COMDAT
; _this$ = ecx
	push	ebp
	mov	ebp, esp
	push	ecx
	mov	DWORD PTR [ebp-4], -858993460		; ccccccccH
	mov	DWORD PTR _this$[ebp], ecx
	mov	ecx, DWORD PTR _this$[ebp]
	call	??0IUnknown@@QAE@XZ
	mov	eax, DWORD PTR _this$[ebp]
	mov	DWORD PTR [eax], OFFSET ??_7ISequentialInStream@@6B@
	mov	eax, DWORD PTR _this$[ebp]
	add	esp, 4
	cmp	ebp, esp
	call	__RTC_CheckEsp
	mov	esp, ebp
	pop	ebp
	ret	0
??0ISequentialInStream@@QAE@XZ ENDP			; ISequentialInStream::ISequentialInStream
_TEXT	ENDS
PUBLIC	??_7ICompressGetInStreamProcessedSize@@6B@	; ICompressGetInStreamProcessedSize::`vftable'
PUBLIC	??_R4ICompressGetInStreamProcessedSize@@6B@	; ICompressGetInStreamProcessedSize::`RTTI Complete Object Locator'
;	COMDAT ??_R4ICompressGetInStreamProcessedSize@@6B@
rdata$r	SEGMENT
??_R4ICompressGetInStreamProcessedSize@@6B@ DD 00H	; ICompressGetInStreamProcessedSize::`RTTI Complete Object Locator'
	DD	00H
	DD	00H
	DD	FLAT:??_R0?AUICompressGetInStreamProcessedSize@@@8
	DD	FLAT:??_R3ICompressGetInStreamProcessedSize@@8
rdata$r	ENDS
;	COMDAT ??_7ICompressGetInStreamProcessedSize@@6B@
CONST	SEGMENT
??_7ICompressGetInStreamProcessedSize@@6B@ DD FLAT:??_R4ICompressGetInStreamProcessedSize@@6B@ ; ICompressGetInStreamProcessedSize::`vftable'
	DD	FLAT:__purecall
	DD	FLAT:__purecall
	DD	FLAT:__purecall
	DD	FLAT:__purecall
; Function compile flags: /Odtp /RTCsu
CONST	ENDS
;	COMDAT ??0ICompressGetInStreamProcessedSize@@QAE@XZ
_TEXT	SEGMENT
_this$ = -4						; size = 4
??0ICompressGetInStreamProcessedSize@@QAE@XZ PROC	; ICompressGetInStreamProcessedSize::ICompressGetInStreamProcessedSize, COMDAT
; _this$ = ecx
	push	ebp
	mov	ebp, esp
	push	ecx
	mov	DWORD PTR [ebp-4], -858993460		; ccccccccH
	mov	DWORD PTR _this$[ebp], ecx
	mov	ecx, DWORD PTR _this$[ebp]
	call	??0IUnknown@@QAE@XZ
	mov	eax, DWORD PTR _this$[ebp]
	mov	DWORD PTR [eax], OFFSET ??_7ICompressGetInStreamProcessedSize@@6B@
	mov	eax, DWORD PTR _this$[ebp]
	add	esp, 4
	cmp	ebp, esp
	call	__RTC_CheckEsp
	mov	esp, ebp
	pop	ebp
	ret	0
??0ICompressGetInStreamProcessedSize@@QAE@XZ ENDP	; ICompressGetInStreamProcessedSize::ICompressGetInStreamProcessedSize
_TEXT	ENDS
EXTRN	??1CCopyCoder@NCompress@@QAE@XZ:PROC		; NCompress::CCopyCoder::~CCopyCoder
; Function compile flags: /Odtp /RTCsu
;	COMDAT ??_GCCopyCoder@NCompress@@QAEPAXI@Z
_TEXT	SEGMENT
_this$ = -4						; size = 4
___flags$ = 8						; size = 4
??_GCCopyCoder@NCompress@@QAEPAXI@Z PROC		; NCompress::CCopyCoder::`scalar deleting destructor', COMDAT
; _this$ = ecx
	push	ebp
	mov	ebp, esp
	push	ecx
	mov	DWORD PTR [ebp-4], -858993460		; ccccccccH
	mov	DWORD PTR _this$[ebp], ecx
	mov	ecx, DWORD PTR _this$[ebp]
	call	??1CCopyCoder@NCompress@@QAE@XZ		; NCompress::CCopyCoder::~CCopyCoder
	mov	eax, DWORD PTR ___flags$[ebp]
	and	eax, 1
	je	SHORT $LN1@scalar
	mov	ecx, DWORD PTR _this$[ebp]
	push	ecx
	call	??3@YAXPAX@Z				; operator delete
	add	esp, 4
$LN1@scalar:
	mov	eax, DWORD PTR _this$[ebp]
	add	esp, 4
	cmp	ebp, esp
	call	__RTC_CheckEsp
	mov	esp, ebp
	pop	ebp
	ret	4
??_GCCopyCoder@NCompress@@QAEPAXI@Z ENDP		; NCompress::CCopyCoder::`scalar deleting destructor'
; Function compile flags: /Odtp /RTCsu
_TEXT	ENDS
;	COMDAT ??0IUnknown@@QAE@XZ
_TEXT	SEGMENT
_this$ = -4						; size = 4
??0IUnknown@@QAE@XZ PROC				; IUnknown::IUnknown, COMDAT
; _this$ = ecx
	push	ebp
	mov	ebp, esp
	push	ecx
	mov	DWORD PTR [ebp-4], -858993460		; ccccccccH
	mov	DWORD PTR _this$[ebp], ecx
	mov	eax, DWORD PTR _this$[ebp]
	mov	esp, ebp
	pop	ebp
	ret	0
??0IUnknown@@QAE@XZ ENDP				; IUnknown::IUnknown
; Function compile flags: /Odtp /RTCsu
_TEXT	ENDS
;	COMDAT ??0?$CMyComPtr@UISequentialInStream@@@@QAE@XZ
_TEXT	SEGMENT
_this$ = -4						; size = 4
??0?$CMyComPtr@UISequentialInStream@@@@QAE@XZ PROC	; CMyComPtr<ISequentialInStream>::CMyComPtr<ISequentialInStream>, COMDAT
; _this$ = ecx
; File c:\workspace\7z1505-src\cpp\common\mycom.h
; Line 18
	push	ebp
	mov	ebp, esp
	push	ecx
	mov	DWORD PTR [ebp-4], -858993460		; ccccccccH
	mov	DWORD PTR _this$[ebp], ecx
	mov	eax, DWORD PTR _this$[ebp]
	mov	DWORD PTR [eax], 0
	mov	eax, DWORD PTR _this$[ebp]
	mov	esp, ebp
	pop	ebp
	ret	0
??0?$CMyComPtr@UISequentialInStream@@@@QAE@XZ ENDP	; CMyComPtr<ISequentialInStream>::CMyComPtr<ISequentialInStream>
; Function compile flags: /Odtp /RTCsu
_TEXT	ENDS
;	COMDAT ?Release@CCopyCoder@NCompress@@W3AGKXZ
_TEXT	SEGMENT
?Release@CCopyCoder@NCompress@@W3AGKXZ PROC		; [thunk]:NCompress::CCopyCoder::Release`adjustor{4}', COMDAT
	sub	DWORD PTR [esp+4], 4
	jmp	?Release@CCopyCoder@NCompress@@UAGKXZ	; NCompress::CCopyCoder::Release
?Release@CCopyCoder@NCompress@@W3AGKXZ ENDP		; [thunk]:NCompress::CCopyCoder::Release`adjustor{4}'
; Function compile flags: /Odtp /RTCsu
_TEXT	ENDS
;	COMDAT ?Release@CCopyCoder@NCompress@@W7AGKXZ
_TEXT	SEGMENT
?Release@CCopyCoder@NCompress@@W7AGKXZ PROC		; [thunk]:NCompress::CCopyCoder::Release`adjustor{8}', COMDAT
	sub	DWORD PTR [esp+4], 8
	jmp	?Release@CCopyCoder@NCompress@@UAGKXZ	; NCompress::CCopyCoder::Release
?Release@CCopyCoder@NCompress@@W7AGKXZ ENDP		; [thunk]:NCompress::CCopyCoder::Release`adjustor{8}'
; Function compile flags: /Odtp /RTCsu
_TEXT	ENDS
;	COMDAT ?Release@CCopyCoder@NCompress@@WM@AGKXZ
_TEXT	SEGMENT
?Release@CCopyCoder@NCompress@@WM@AGKXZ PROC		; [thunk]:NCompress::CCopyCoder::Release`adjustor{12}', COMDAT
	sub	DWORD PTR [esp+4], 12			; 0000000cH
	jmp	?Release@CCopyCoder@NCompress@@UAGKXZ	; NCompress::CCopyCoder::Release
?Release@CCopyCoder@NCompress@@WM@AGKXZ ENDP		; [thunk]:NCompress::CCopyCoder::Release`adjustor{12}'
; Function compile flags: /Odtp /RTCsu
_TEXT	ENDS
;	COMDAT ?AddRef@CCopyCoder@NCompress@@W3AGKXZ
_TEXT	SEGMENT
?AddRef@CCopyCoder@NCompress@@W3AGKXZ PROC		; [thunk]:NCompress::CCopyCoder::AddRef`adjustor{4}', COMDAT
	sub	DWORD PTR [esp+4], 4
	jmp	?AddRef@CCopyCoder@NCompress@@UAGKXZ	; NCompress::CCopyCoder::AddRef
?AddRef@CCopyCoder@NCompress@@W3AGKXZ ENDP		; [thunk]:NCompress::CCopyCoder::AddRef`adjustor{4}'
; Function compile flags: /Odtp /RTCsu
_TEXT	ENDS
;	COMDAT ?AddRef@CCopyCoder@NCompress@@W7AGKXZ
_TEXT	SEGMENT
?AddRef@CCopyCoder@NCompress@@W7AGKXZ PROC		; [thunk]:NCompress::CCopyCoder::AddRef`adjustor{8}', COMDAT
	sub	DWORD PTR [esp+4], 8
	jmp	?AddRef@CCopyCoder@NCompress@@UAGKXZ	; NCompress::CCopyCoder::AddRef
?AddRef@CCopyCoder@NCompress@@W7AGKXZ ENDP		; [thunk]:NCompress::CCopyCoder::AddRef`adjustor{8}'
; Function compile flags: /Odtp /RTCsu
_TEXT	ENDS
;	COMDAT ?QueryInterface@CCopyCoder@NCompress@@W3AGJABU_GUID@@PAPAX@Z
_TEXT	SEGMENT
?QueryInterface@CCopyCoder@NCompress@@W3AGJABU_GUID@@PAPAX@Z PROC ; [thunk]:NCompress::CCopyCoder::QueryInterface`adjustor{4}', COMDAT
	sub	DWORD PTR [esp+4], 4
	jmp	?QueryInterface@CCopyCoder@NCompress@@UAGJABU_GUID@@PAPAX@Z ; NCompress::CCopyCoder::QueryInterface
?QueryInterface@CCopyCoder@NCompress@@W3AGJABU_GUID@@PAPAX@Z ENDP ; [thunk]:NCompress::CCopyCoder::QueryInterface`adjustor{4}'
; Function compile flags: /Odtp /RTCsu
_TEXT	ENDS
;	COMDAT ?AddRef@CCopyCoder@NCompress@@WM@AGKXZ
_TEXT	SEGMENT
?AddRef@CCopyCoder@NCompress@@WM@AGKXZ PROC		; [thunk]:NCompress::CCopyCoder::AddRef`adjustor{12}', COMDAT
	sub	DWORD PTR [esp+4], 12			; 0000000cH
	jmp	?AddRef@CCopyCoder@NCompress@@UAGKXZ	; NCompress::CCopyCoder::AddRef
?AddRef@CCopyCoder@NCompress@@WM@AGKXZ ENDP		; [thunk]:NCompress::CCopyCoder::AddRef`adjustor{12}'
; Function compile flags: /Odtp /RTCsu
_TEXT	ENDS
;	COMDAT ?QueryInterface@CCopyCoder@NCompress@@W7AGJABU_GUID@@PAPAX@Z
_TEXT	SEGMENT
?QueryInterface@CCopyCoder@NCompress@@W7AGJABU_GUID@@PAPAX@Z PROC ; [thunk]:NCompress::CCopyCoder::QueryInterface`adjustor{8}', COMDAT
	sub	DWORD PTR [esp+4], 8
	jmp	?QueryInterface@CCopyCoder@NCompress@@UAGJABU_GUID@@PAPAX@Z ; NCompress::CCopyCoder::QueryInterface
?QueryInterface@CCopyCoder@NCompress@@W7AGJABU_GUID@@PAPAX@Z ENDP ; [thunk]:NCompress::CCopyCoder::QueryInterface`adjustor{8}'
; Function compile flags: /Odtp /RTCsu
_TEXT	ENDS
;	COMDAT ?QueryInterface@CCopyCoder@NCompress@@WM@AGJABU_GUID@@PAPAX@Z
_TEXT	SEGMENT
?QueryInterface@CCopyCoder@NCompress@@WM@AGJABU_GUID@@PAPAX@Z PROC ; [thunk]:NCompress::CCopyCoder::QueryInterface`adjustor{12}', COMDAT
	sub	DWORD PTR [esp+4], 12			; 0000000cH
	jmp	?QueryInterface@CCopyCoder@NCompress@@UAGJABU_GUID@@PAPAX@Z ; NCompress::CCopyCoder::QueryInterface
?QueryInterface@CCopyCoder@NCompress@@WM@AGJABU_GUID@@PAPAX@Z ENDP ; [thunk]:NCompress::CCopyCoder::QueryInterface`adjustor{12}'
_TEXT	ENDS
PUBLIC	??0CRegisterCodecCopy@@QAE@XZ			; CRegisterCodecCopy::CRegisterCodecCopy
; Function compile flags: /Odtp /RTCsu
;	COMDAT ??__Eg_RegisterCodec@@YAXXZ
text$yc	SEGMENT
??__Eg_RegisterCodec@@YAXXZ PROC			; `dynamic initializer for 'g_RegisterCodec'', COMDAT
; File c:\workspace\7z1505-src\cpp\7zip\compress\copyregister.cpp
; Line 11
	push	ebp
	mov	ebp, esp
	mov	ecx, OFFSET _g_RegisterCodec
	call	??0CRegisterCodecCopy@@QAE@XZ		; CRegisterCodecCopy::CRegisterCodecCopy
	cmp	ebp, esp
	call	__RTC_CheckEsp
	pop	ebp
	ret	0
??__Eg_RegisterCodec@@YAXXZ ENDP			; `dynamic initializer for 'g_RegisterCodec''
text$yc	ENDS
EXTRN	?RegisterCodec@@YGXPBUCCodecInfo@@@Z:PROC	; RegisterCodec
; Function compile flags: /Odtp /RTCsu
;	COMDAT ??0CRegisterCodecCopy@@QAE@XZ
_TEXT	SEGMENT
_this$ = -4						; size = 4
??0CRegisterCodecCopy@@QAE@XZ PROC			; CRegisterCodecCopy::CRegisterCodecCopy, COMDAT
; _this$ = ecx
; Line 11
	push	ebp
	mov	ebp, esp
	push	ecx
	mov	DWORD PTR [ebp-4], -858993460		; ccccccccH
	mov	DWORD PTR _this$[ebp], ecx
	push	OFFSET _g_CodecInfo
	call	?RegisterCodec@@YGXPBUCCodecInfo@@@Z	; RegisterCodec
	mov	eax, DWORD PTR _this$[ebp]
	add	esp, 4
	cmp	ebp, esp
	call	__RTC_CheckEsp
	mov	esp, ebp
	pop	ebp
	ret	0
??0CRegisterCodecCopy@@QAE@XZ ENDP			; CRegisterCodecCopy::CRegisterCodecCopy
_TEXT	ENDS
_BSS	SEGMENT
_g_RegisterCodec DB 01H DUP (?)
_BSS	ENDS
CRT$XCU	SEGMENT
_g_RegisterCodec$initializer$ DD FLAT:??__Eg_RegisterCodec@@YAXXZ
CRT$XCU	ENDS
END
