; Listing generated by Microsoft (R) Optimizing Compiler Version 16.00.40219.01 

	TITLE	C:\workspace\7z1505-src\CPP\7zip\Compress\LzmaDecoder.cpp
	.686P
	.XMM
	include listing.inc
	.model	flat

INCLUDELIB MSVCRTD
INCLUDELIB OLDNAMES

PUBLIC	??0?$CMyComPtr@UISequentialInStream@@@@QAE@XZ	; CMyComPtr<ISequentialInStream>::CMyComPtr<ISequentialInStream>
PUBLIC	??_7CDecoder@NLzma@NCompress@@6BISequentialInStream@@@ ; NCompress::NLzma::CDecoder::`vftable'
PUBLIC	??_7CDecoder@NLzma@NCompress@@6BICompressSetOutStreamSize@@@ ; NCompress::NLzma::CDecoder::`vftable'
PUBLIC	??_7CDecoder@NLzma@NCompress@@6BICompressSetInStream@@@ ; NCompress::NLzma::CDecoder::`vftable'
PUBLIC	??_7CDecoder@NLzma@NCompress@@6BICompressSetBufSize@@@ ; NCompress::NLzma::CDecoder::`vftable'
PUBLIC	??_7CDecoder@NLzma@NCompress@@6BICompressSetFinishMode@@@ ; NCompress::NLzma::CDecoder::`vftable'
PUBLIC	??_7CDecoder@NLzma@NCompress@@6BICompressSetDecoderProperties2@@@ ; NCompress::NLzma::CDecoder::`vftable'
PUBLIC	??_7CDecoder@NLzma@NCompress@@6BICompressCoder@@@ ; NCompress::NLzma::CDecoder::`vftable'
PUBLIC	??0CMyUnknownImp@@QAE@XZ			; CMyUnknownImp::CMyUnknownImp
PUBLIC	??0ISequentialInStream@@QAE@XZ			; ISequentialInStream::ISequentialInStream
PUBLIC	??0ICompressSetOutStreamSize@@QAE@XZ		; ICompressSetOutStreamSize::ICompressSetOutStreamSize
PUBLIC	??0ICompressSetInStream@@QAE@XZ			; ICompressSetInStream::ICompressSetInStream
PUBLIC	??0ICompressSetBufSize@@QAE@XZ			; ICompressSetBufSize::ICompressSetBufSize
PUBLIC	??0ICompressSetFinishMode@@QAE@XZ		; ICompressSetFinishMode::ICompressSetFinishMode
PUBLIC	??0ICompressSetDecoderProperties2@@QAE@XZ	; ICompressSetDecoderProperties2::ICompressSetDecoderProperties2
PUBLIC	??0ICompressCoder@@QAE@XZ			; ICompressCoder::ICompressCoder
PUBLIC	??0CDecoder@NLzma@NCompress@@QAE@XZ		; NCompress::NLzma::CDecoder::CDecoder
PUBLIC	??_R4CDecoder@NLzma@NCompress@@6BICompressCoder@@@ ; NCompress::NLzma::CDecoder::`RTTI Complete Object Locator'
PUBLIC	??_R0?AVCDecoder@NLzma@NCompress@@@8		; NCompress::NLzma::CDecoder `RTTI Type Descriptor'
PUBLIC	??_R3CDecoder@NLzma@NCompress@@8		; NCompress::NLzma::CDecoder::`RTTI Class Hierarchy Descriptor'
PUBLIC	??_R2CDecoder@NLzma@NCompress@@8		; NCompress::NLzma::CDecoder::`RTTI Base Class Array'
PUBLIC	??_R1A@?0A@EA@CDecoder@NLzma@NCompress@@8	; NCompress::NLzma::CDecoder::`RTTI Base Class Descriptor at (0,-1,0,64)'
PUBLIC	??_R1A@?0A@EA@ICompressCoder@@8			; ICompressCoder::`RTTI Base Class Descriptor at (0,-1,0,64)'
PUBLIC	??_R0?AUICompressCoder@@@8			; ICompressCoder `RTTI Type Descriptor'
PUBLIC	??_R3ICompressCoder@@8				; ICompressCoder::`RTTI Class Hierarchy Descriptor'
PUBLIC	??_R2ICompressCoder@@8				; ICompressCoder::`RTTI Base Class Array'
PUBLIC	??_R1A@?0A@EA@IUnknown@@8			; IUnknown::`RTTI Base Class Descriptor at (0,-1,0,64)'
PUBLIC	??_R0?AUIUnknown@@@8				; IUnknown `RTTI Type Descriptor'
PUBLIC	??_R3IUnknown@@8				; IUnknown::`RTTI Class Hierarchy Descriptor'
PUBLIC	??_R2IUnknown@@8				; IUnknown::`RTTI Base Class Array'
PUBLIC	??_R1A@?0A@EC@IUnknown@@8			; IUnknown::`RTTI Base Class Descriptor at (0,-1,0,66)'
PUBLIC	??_R13?0A@EA@ICompressSetDecoderProperties2@@8	; ICompressSetDecoderProperties2::`RTTI Base Class Descriptor at (4,-1,0,64)'
PUBLIC	??_R0?AUICompressSetDecoderProperties2@@@8	; ICompressSetDecoderProperties2 `RTTI Type Descriptor'
PUBLIC	??_R3ICompressSetDecoderProperties2@@8		; ICompressSetDecoderProperties2::`RTTI Class Hierarchy Descriptor'
PUBLIC	??_R2ICompressSetDecoderProperties2@@8		; ICompressSetDecoderProperties2::`RTTI Base Class Array'
PUBLIC	??_R1A@?0A@EA@ICompressSetDecoderProperties2@@8	; ICompressSetDecoderProperties2::`RTTI Base Class Descriptor at (0,-1,0,64)'
PUBLIC	??_R13?0A@EC@IUnknown@@8			; IUnknown::`RTTI Base Class Descriptor at (4,-1,0,66)'
PUBLIC	??_R17?0A@EA@ICompressSetFinishMode@@8		; ICompressSetFinishMode::`RTTI Base Class Descriptor at (8,-1,0,64)'
PUBLIC	??_R0?AUICompressSetFinishMode@@@8		; ICompressSetFinishMode `RTTI Type Descriptor'
PUBLIC	??_R3ICompressSetFinishMode@@8			; ICompressSetFinishMode::`RTTI Class Hierarchy Descriptor'
PUBLIC	??_R2ICompressSetFinishMode@@8			; ICompressSetFinishMode::`RTTI Base Class Array'
PUBLIC	??_R1A@?0A@EA@ICompressSetFinishMode@@8		; ICompressSetFinishMode::`RTTI Base Class Descriptor at (0,-1,0,64)'
PUBLIC	??_R17?0A@EC@IUnknown@@8			; IUnknown::`RTTI Base Class Descriptor at (8,-1,0,66)'
PUBLIC	??_R1M@?0A@EA@ICompressSetBufSize@@8		; ICompressSetBufSize::`RTTI Base Class Descriptor at (12,-1,0,64)'
PUBLIC	??_R0?AUICompressSetBufSize@@@8			; ICompressSetBufSize `RTTI Type Descriptor'
PUBLIC	??_R3ICompressSetBufSize@@8			; ICompressSetBufSize::`RTTI Class Hierarchy Descriptor'
PUBLIC	??_R2ICompressSetBufSize@@8			; ICompressSetBufSize::`RTTI Base Class Array'
PUBLIC	??_R1A@?0A@EA@ICompressSetBufSize@@8		; ICompressSetBufSize::`RTTI Base Class Descriptor at (0,-1,0,64)'
PUBLIC	??_R1M@?0A@EC@IUnknown@@8			; IUnknown::`RTTI Base Class Descriptor at (12,-1,0,66)'
PUBLIC	??_R1BA@?0A@EA@ICompressSetInStream@@8		; ICompressSetInStream::`RTTI Base Class Descriptor at (16,-1,0,64)'
PUBLIC	??_R0?AUICompressSetInStream@@@8		; ICompressSetInStream `RTTI Type Descriptor'
PUBLIC	??_R3ICompressSetInStream@@8			; ICompressSetInStream::`RTTI Class Hierarchy Descriptor'
PUBLIC	??_R2ICompressSetInStream@@8			; ICompressSetInStream::`RTTI Base Class Array'
PUBLIC	??_R1A@?0A@EA@ICompressSetInStream@@8		; ICompressSetInStream::`RTTI Base Class Descriptor at (0,-1,0,64)'
PUBLIC	??_R1BA@?0A@EC@IUnknown@@8			; IUnknown::`RTTI Base Class Descriptor at (16,-1,0,66)'
PUBLIC	??_R1BE@?0A@EA@ICompressSetOutStreamSize@@8	; ICompressSetOutStreamSize::`RTTI Base Class Descriptor at (20,-1,0,64)'
PUBLIC	??_R0?AUICompressSetOutStreamSize@@@8		; ICompressSetOutStreamSize `RTTI Type Descriptor'
PUBLIC	??_R3ICompressSetOutStreamSize@@8		; ICompressSetOutStreamSize::`RTTI Class Hierarchy Descriptor'
PUBLIC	??_R2ICompressSetOutStreamSize@@8		; ICompressSetOutStreamSize::`RTTI Base Class Array'
PUBLIC	??_R1A@?0A@EA@ICompressSetOutStreamSize@@8	; ICompressSetOutStreamSize::`RTTI Base Class Descriptor at (0,-1,0,64)'
PUBLIC	??_R1BE@?0A@EC@IUnknown@@8			; IUnknown::`RTTI Base Class Descriptor at (20,-1,0,66)'
PUBLIC	??_R1BI@?0A@EA@ISequentialInStream@@8		; ISequentialInStream::`RTTI Base Class Descriptor at (24,-1,0,64)'
PUBLIC	??_R0?AUISequentialInStream@@@8			; ISequentialInStream `RTTI Type Descriptor'
PUBLIC	??_R3ISequentialInStream@@8			; ISequentialInStream::`RTTI Class Hierarchy Descriptor'
PUBLIC	??_R2ISequentialInStream@@8			; ISequentialInStream::`RTTI Base Class Array'
PUBLIC	??_R1A@?0A@EA@ISequentialInStream@@8		; ISequentialInStream::`RTTI Base Class Descriptor at (0,-1,0,64)'
PUBLIC	??_R1BI@?0A@EC@IUnknown@@8			; IUnknown::`RTTI Base Class Descriptor at (24,-1,0,66)'
PUBLIC	??_R1BM@?0A@EA@CMyUnknownImp@@8			; CMyUnknownImp::`RTTI Base Class Descriptor at (28,-1,0,64)'
PUBLIC	??_R0?AVCMyUnknownImp@@@8			; CMyUnknownImp `RTTI Type Descriptor'
PUBLIC	??_R3CMyUnknownImp@@8				; CMyUnknownImp::`RTTI Class Hierarchy Descriptor'
PUBLIC	??_R2CMyUnknownImp@@8				; CMyUnknownImp::`RTTI Base Class Array'
PUBLIC	??_R1A@?0A@EA@CMyUnknownImp@@8			; CMyUnknownImp::`RTTI Base Class Descriptor at (0,-1,0,64)'
PUBLIC	?QueryInterface@CDecoder@NLzma@NCompress@@UAGJABU_GUID@@PAPAX@Z ; NCompress::NLzma::CDecoder::QueryInterface
PUBLIC	?AddRef@CDecoder@NLzma@NCompress@@UAGKXZ	; NCompress::NLzma::CDecoder::AddRef
PUBLIC	?Release@CDecoder@NLzma@NCompress@@UAGKXZ	; NCompress::NLzma::CDecoder::Release
PUBLIC	?Code@CDecoder@NLzma@NCompress@@UAGJPAUISequentialInStream@@PAUISequentialOutStream@@PB_K2PAUICompressProgressInfo@@@Z ; NCompress::NLzma::CDecoder::Code
PUBLIC	??_R4CDecoder@NLzma@NCompress@@6BICompressSetDecoderProperties2@@@ ; NCompress::NLzma::CDecoder::`RTTI Complete Object Locator'
PUBLIC	?QueryInterface@CDecoder@NLzma@NCompress@@W3AGJABU_GUID@@PAPAX@Z ; [thunk]:NCompress::NLzma::CDecoder::QueryInterface`adjustor{4}'
PUBLIC	?AddRef@CDecoder@NLzma@NCompress@@W3AGKXZ	; [thunk]:NCompress::NLzma::CDecoder::AddRef`adjustor{4}'
PUBLIC	?Release@CDecoder@NLzma@NCompress@@W3AGKXZ	; [thunk]:NCompress::NLzma::CDecoder::Release`adjustor{4}'
PUBLIC	?SetDecoderProperties2@CDecoder@NLzma@NCompress@@UAGJPBEI@Z ; NCompress::NLzma::CDecoder::SetDecoderProperties2
PUBLIC	??_R4CDecoder@NLzma@NCompress@@6BICompressSetFinishMode@@@ ; NCompress::NLzma::CDecoder::`RTTI Complete Object Locator'
PUBLIC	?QueryInterface@CDecoder@NLzma@NCompress@@W7AGJABU_GUID@@PAPAX@Z ; [thunk]:NCompress::NLzma::CDecoder::QueryInterface`adjustor{8}'
PUBLIC	?AddRef@CDecoder@NLzma@NCompress@@W7AGKXZ	; [thunk]:NCompress::NLzma::CDecoder::AddRef`adjustor{8}'
PUBLIC	?Release@CDecoder@NLzma@NCompress@@W7AGKXZ	; [thunk]:NCompress::NLzma::CDecoder::Release`adjustor{8}'
PUBLIC	?SetFinishMode@CDecoder@NLzma@NCompress@@UAGJI@Z ; NCompress::NLzma::CDecoder::SetFinishMode
PUBLIC	??_R4CDecoder@NLzma@NCompress@@6BICompressSetBufSize@@@ ; NCompress::NLzma::CDecoder::`RTTI Complete Object Locator'
PUBLIC	?QueryInterface@CDecoder@NLzma@NCompress@@WM@AGJABU_GUID@@PAPAX@Z ; [thunk]:NCompress::NLzma::CDecoder::QueryInterface`adjustor{12}'
PUBLIC	?AddRef@CDecoder@NLzma@NCompress@@WM@AGKXZ	; [thunk]:NCompress::NLzma::CDecoder::AddRef`adjustor{12}'
PUBLIC	?Release@CDecoder@NLzma@NCompress@@WM@AGKXZ	; [thunk]:NCompress::NLzma::CDecoder::Release`adjustor{12}'
PUBLIC	?SetInBufSize@CDecoder@NLzma@NCompress@@UAGJII@Z ; NCompress::NLzma::CDecoder::SetInBufSize
PUBLIC	?SetOutBufSize@CDecoder@NLzma@NCompress@@UAGJII@Z ; NCompress::NLzma::CDecoder::SetOutBufSize
PUBLIC	??_R4CDecoder@NLzma@NCompress@@6BICompressSetInStream@@@ ; NCompress::NLzma::CDecoder::`RTTI Complete Object Locator'
PUBLIC	?QueryInterface@CDecoder@NLzma@NCompress@@WBA@AGJABU_GUID@@PAPAX@Z ; [thunk]:NCompress::NLzma::CDecoder::QueryInterface`adjustor{16}'
PUBLIC	?AddRef@CDecoder@NLzma@NCompress@@WBA@AGKXZ	; [thunk]:NCompress::NLzma::CDecoder::AddRef`adjustor{16}'
PUBLIC	?Release@CDecoder@NLzma@NCompress@@WBA@AGKXZ	; [thunk]:NCompress::NLzma::CDecoder::Release`adjustor{16}'
PUBLIC	?SetInStream@CDecoder@NLzma@NCompress@@UAGJPAUISequentialInStream@@@Z ; NCompress::NLzma::CDecoder::SetInStream
PUBLIC	?ReleaseInStream@CDecoder@NLzma@NCompress@@UAGJXZ ; NCompress::NLzma::CDecoder::ReleaseInStream
PUBLIC	??_R4CDecoder@NLzma@NCompress@@6BICompressSetOutStreamSize@@@ ; NCompress::NLzma::CDecoder::`RTTI Complete Object Locator'
PUBLIC	?QueryInterface@CDecoder@NLzma@NCompress@@WBE@AGJABU_GUID@@PAPAX@Z ; [thunk]:NCompress::NLzma::CDecoder::QueryInterface`adjustor{20}'
PUBLIC	?AddRef@CDecoder@NLzma@NCompress@@WBE@AGKXZ	; [thunk]:NCompress::NLzma::CDecoder::AddRef`adjustor{20}'
PUBLIC	?Release@CDecoder@NLzma@NCompress@@WBE@AGKXZ	; [thunk]:NCompress::NLzma::CDecoder::Release`adjustor{20}'
PUBLIC	?SetOutStreamSize@CDecoder@NLzma@NCompress@@UAGJPB_K@Z ; NCompress::NLzma::CDecoder::SetOutStreamSize
PUBLIC	??_R4CDecoder@NLzma@NCompress@@6BISequentialInStream@@@ ; NCompress::NLzma::CDecoder::`RTTI Complete Object Locator'
PUBLIC	?QueryInterface@CDecoder@NLzma@NCompress@@WBI@AGJABU_GUID@@PAPAX@Z ; [thunk]:NCompress::NLzma::CDecoder::QueryInterface`adjustor{24}'
PUBLIC	?AddRef@CDecoder@NLzma@NCompress@@WBI@AGKXZ	; [thunk]:NCompress::NLzma::CDecoder::AddRef`adjustor{24}'
PUBLIC	?Release@CDecoder@NLzma@NCompress@@WBI@AGKXZ	; [thunk]:NCompress::NLzma::CDecoder::Release`adjustor{24}'
PUBLIC	?Read@CDecoder@NLzma@NCompress@@UAGJPAXIPAI@Z	; NCompress::NLzma::CDecoder::Read
EXTRN	__RTC_CheckEsp:PROC
EXTRN	__RTC_Shutdown:PROC
EXTRN	__RTC_InitBase:PROC
EXTRN	??_7type_info@@6B@:QWORD			; type_info::`vftable'
EXTRN	??_ECDecoder@NLzma@NCompress@@UAEPAXI@Z:PROC	; NCompress::NLzma::CDecoder::`vector deleting destructor'
;	COMDAT ??_R4CDecoder@NLzma@NCompress@@6BISequentialInStream@@@
; File c:\workspace\7z1505-src\cpp\7zip\compress\lzmadecoder.cpp
rdata$r	SEGMENT
??_R4CDecoder@NLzma@NCompress@@6BISequentialInStream@@@ DD 00H ; NCompress::NLzma::CDecoder::`RTTI Complete Object Locator'
	DD	018H
	DD	00H
	DD	FLAT:??_R0?AVCDecoder@NLzma@NCompress@@@8
	DD	FLAT:??_R3CDecoder@NLzma@NCompress@@8
rdata$r	ENDS
;	COMDAT ??_R4CDecoder@NLzma@NCompress@@6BICompressSetOutStreamSize@@@
rdata$r	SEGMENT
??_R4CDecoder@NLzma@NCompress@@6BICompressSetOutStreamSize@@@ DD 00H ; NCompress::NLzma::CDecoder::`RTTI Complete Object Locator'
	DD	014H
	DD	00H
	DD	FLAT:??_R0?AVCDecoder@NLzma@NCompress@@@8
	DD	FLAT:??_R3CDecoder@NLzma@NCompress@@8
rdata$r	ENDS
;	COMDAT ??_R4CDecoder@NLzma@NCompress@@6BICompressSetInStream@@@
rdata$r	SEGMENT
??_R4CDecoder@NLzma@NCompress@@6BICompressSetInStream@@@ DD 00H ; NCompress::NLzma::CDecoder::`RTTI Complete Object Locator'
	DD	010H
	DD	00H
	DD	FLAT:??_R0?AVCDecoder@NLzma@NCompress@@@8
	DD	FLAT:??_R3CDecoder@NLzma@NCompress@@8
rdata$r	ENDS
;	COMDAT ??_R4CDecoder@NLzma@NCompress@@6BICompressSetBufSize@@@
rdata$r	SEGMENT
??_R4CDecoder@NLzma@NCompress@@6BICompressSetBufSize@@@ DD 00H ; NCompress::NLzma::CDecoder::`RTTI Complete Object Locator'
	DD	0cH
	DD	00H
	DD	FLAT:??_R0?AVCDecoder@NLzma@NCompress@@@8
	DD	FLAT:??_R3CDecoder@NLzma@NCompress@@8
rdata$r	ENDS
;	COMDAT ??_R4CDecoder@NLzma@NCompress@@6BICompressSetFinishMode@@@
rdata$r	SEGMENT
??_R4CDecoder@NLzma@NCompress@@6BICompressSetFinishMode@@@ DD 00H ; NCompress::NLzma::CDecoder::`RTTI Complete Object Locator'
	DD	08H
	DD	00H
	DD	FLAT:??_R0?AVCDecoder@NLzma@NCompress@@@8
	DD	FLAT:??_R3CDecoder@NLzma@NCompress@@8
rdata$r	ENDS
;	COMDAT ??_R4CDecoder@NLzma@NCompress@@6BICompressSetDecoderProperties2@@@
rdata$r	SEGMENT
??_R4CDecoder@NLzma@NCompress@@6BICompressSetDecoderProperties2@@@ DD 00H ; NCompress::NLzma::CDecoder::`RTTI Complete Object Locator'
	DD	04H
	DD	00H
	DD	FLAT:??_R0?AVCDecoder@NLzma@NCompress@@@8
	DD	FLAT:??_R3CDecoder@NLzma@NCompress@@8
rdata$r	ENDS
;	COMDAT ??_R1A@?0A@EA@CMyUnknownImp@@8
rdata$r	SEGMENT
??_R1A@?0A@EA@CMyUnknownImp@@8 DD FLAT:??_R0?AVCMyUnknownImp@@@8 ; CMyUnknownImp::`RTTI Base Class Descriptor at (0,-1,0,64)'
	DD	00H
	DD	00H
	DD	0ffffffffH
	DD	00H
	DD	040H
	DD	FLAT:??_R3CMyUnknownImp@@8
rdata$r	ENDS
;	COMDAT ??_R2CMyUnknownImp@@8
rdata$r	SEGMENT
??_R2CMyUnknownImp@@8 DD FLAT:??_R1A@?0A@EA@CMyUnknownImp@@8 ; CMyUnknownImp::`RTTI Base Class Array'
rdata$r	ENDS
;	COMDAT ??_R3CMyUnknownImp@@8
rdata$r	SEGMENT
??_R3CMyUnknownImp@@8 DD 00H				; CMyUnknownImp::`RTTI Class Hierarchy Descriptor'
	DD	00H
	DD	01H
	DD	FLAT:??_R2CMyUnknownImp@@8
rdata$r	ENDS
;	COMDAT ??_R0?AVCMyUnknownImp@@@8
_DATA	SEGMENT
??_R0?AVCMyUnknownImp@@@8 DD FLAT:??_7type_info@@6B@	; CMyUnknownImp `RTTI Type Descriptor'
	DD	00H
	DB	'.?AVCMyUnknownImp@@', 00H
_DATA	ENDS
;	COMDAT ??_R1BM@?0A@EA@CMyUnknownImp@@8
rdata$r	SEGMENT
??_R1BM@?0A@EA@CMyUnknownImp@@8 DD FLAT:??_R0?AVCMyUnknownImp@@@8 ; CMyUnknownImp::`RTTI Base Class Descriptor at (28,-1,0,64)'
	DD	00H
	DD	01cH
	DD	0ffffffffH
	DD	00H
	DD	040H
	DD	FLAT:??_R3CMyUnknownImp@@8
rdata$r	ENDS
;	COMDAT ??_R1BI@?0A@EC@IUnknown@@8
rdata$r	SEGMENT
??_R1BI@?0A@EC@IUnknown@@8 DD FLAT:??_R0?AUIUnknown@@@8	; IUnknown::`RTTI Base Class Descriptor at (24,-1,0,66)'
	DD	00H
	DD	018H
	DD	0ffffffffH
	DD	00H
	DD	042H
	DD	FLAT:??_R3IUnknown@@8
rdata$r	ENDS
;	COMDAT ??_R1A@?0A@EA@ISequentialInStream@@8
rdata$r	SEGMENT
??_R1A@?0A@EA@ISequentialInStream@@8 DD FLAT:??_R0?AUISequentialInStream@@@8 ; ISequentialInStream::`RTTI Base Class Descriptor at (0,-1,0,64)'
	DD	01H
	DD	00H
	DD	0ffffffffH
	DD	00H
	DD	040H
	DD	FLAT:??_R3ISequentialInStream@@8
rdata$r	ENDS
;	COMDAT ??_R2ISequentialInStream@@8
rdata$r	SEGMENT
??_R2ISequentialInStream@@8 DD FLAT:??_R1A@?0A@EA@ISequentialInStream@@8 ; ISequentialInStream::`RTTI Base Class Array'
	DD	FLAT:??_R1A@?0A@EA@IUnknown@@8
rdata$r	ENDS
;	COMDAT ??_R3ISequentialInStream@@8
rdata$r	SEGMENT
??_R3ISequentialInStream@@8 DD 00H			; ISequentialInStream::`RTTI Class Hierarchy Descriptor'
	DD	00H
	DD	02H
	DD	FLAT:??_R2ISequentialInStream@@8
rdata$r	ENDS
;	COMDAT ??_R0?AUISequentialInStream@@@8
_DATA	SEGMENT
??_R0?AUISequentialInStream@@@8 DD FLAT:??_7type_info@@6B@ ; ISequentialInStream `RTTI Type Descriptor'
	DD	00H
	DB	'.?AUISequentialInStream@@', 00H
_DATA	ENDS
;	COMDAT ??_R1BI@?0A@EA@ISequentialInStream@@8
rdata$r	SEGMENT
??_R1BI@?0A@EA@ISequentialInStream@@8 DD FLAT:??_R0?AUISequentialInStream@@@8 ; ISequentialInStream::`RTTI Base Class Descriptor at (24,-1,0,64)'
	DD	01H
	DD	018H
	DD	0ffffffffH
	DD	00H
	DD	040H
	DD	FLAT:??_R3ISequentialInStream@@8
rdata$r	ENDS
;	COMDAT ??_R1BE@?0A@EC@IUnknown@@8
rdata$r	SEGMENT
??_R1BE@?0A@EC@IUnknown@@8 DD FLAT:??_R0?AUIUnknown@@@8	; IUnknown::`RTTI Base Class Descriptor at (20,-1,0,66)'
	DD	00H
	DD	014H
	DD	0ffffffffH
	DD	00H
	DD	042H
	DD	FLAT:??_R3IUnknown@@8
rdata$r	ENDS
;	COMDAT ??_R1A@?0A@EA@ICompressSetOutStreamSize@@8
rdata$r	SEGMENT
??_R1A@?0A@EA@ICompressSetOutStreamSize@@8 DD FLAT:??_R0?AUICompressSetOutStreamSize@@@8 ; ICompressSetOutStreamSize::`RTTI Base Class Descriptor at (0,-1,0,64)'
	DD	01H
	DD	00H
	DD	0ffffffffH
	DD	00H
	DD	040H
	DD	FLAT:??_R3ICompressSetOutStreamSize@@8
rdata$r	ENDS
;	COMDAT ??_R2ICompressSetOutStreamSize@@8
rdata$r	SEGMENT
??_R2ICompressSetOutStreamSize@@8 DD FLAT:??_R1A@?0A@EA@ICompressSetOutStreamSize@@8 ; ICompressSetOutStreamSize::`RTTI Base Class Array'
	DD	FLAT:??_R1A@?0A@EA@IUnknown@@8
rdata$r	ENDS
;	COMDAT ??_R3ICompressSetOutStreamSize@@8
rdata$r	SEGMENT
??_R3ICompressSetOutStreamSize@@8 DD 00H		; ICompressSetOutStreamSize::`RTTI Class Hierarchy Descriptor'
	DD	00H
	DD	02H
	DD	FLAT:??_R2ICompressSetOutStreamSize@@8
rdata$r	ENDS
;	COMDAT ??_R0?AUICompressSetOutStreamSize@@@8
_DATA	SEGMENT
??_R0?AUICompressSetOutStreamSize@@@8 DD FLAT:??_7type_info@@6B@ ; ICompressSetOutStreamSize `RTTI Type Descriptor'
	DD	00H
	DB	'.?AUICompressSetOutStreamSize@@', 00H
_DATA	ENDS
;	COMDAT ??_R1BE@?0A@EA@ICompressSetOutStreamSize@@8
rdata$r	SEGMENT
??_R1BE@?0A@EA@ICompressSetOutStreamSize@@8 DD FLAT:??_R0?AUICompressSetOutStreamSize@@@8 ; ICompressSetOutStreamSize::`RTTI Base Class Descriptor at (20,-1,0,64)'
	DD	01H
	DD	014H
	DD	0ffffffffH
	DD	00H
	DD	040H
	DD	FLAT:??_R3ICompressSetOutStreamSize@@8
rdata$r	ENDS
;	COMDAT ??_R1BA@?0A@EC@IUnknown@@8
rdata$r	SEGMENT
??_R1BA@?0A@EC@IUnknown@@8 DD FLAT:??_R0?AUIUnknown@@@8	; IUnknown::`RTTI Base Class Descriptor at (16,-1,0,66)'
	DD	00H
	DD	010H
	DD	0ffffffffH
	DD	00H
	DD	042H
	DD	FLAT:??_R3IUnknown@@8
rdata$r	ENDS
;	COMDAT ??_R1A@?0A@EA@ICompressSetInStream@@8
rdata$r	SEGMENT
??_R1A@?0A@EA@ICompressSetInStream@@8 DD FLAT:??_R0?AUICompressSetInStream@@@8 ; ICompressSetInStream::`RTTI Base Class Descriptor at (0,-1,0,64)'
	DD	01H
	DD	00H
	DD	0ffffffffH
	DD	00H
	DD	040H
	DD	FLAT:??_R3ICompressSetInStream@@8
rdata$r	ENDS
;	COMDAT ??_R2ICompressSetInStream@@8
rdata$r	SEGMENT
??_R2ICompressSetInStream@@8 DD FLAT:??_R1A@?0A@EA@ICompressSetInStream@@8 ; ICompressSetInStream::`RTTI Base Class Array'
	DD	FLAT:??_R1A@?0A@EA@IUnknown@@8
rdata$r	ENDS
;	COMDAT ??_R3ICompressSetInStream@@8
rdata$r	SEGMENT
??_R3ICompressSetInStream@@8 DD 00H			; ICompressSetInStream::`RTTI Class Hierarchy Descriptor'
	DD	00H
	DD	02H
	DD	FLAT:??_R2ICompressSetInStream@@8
rdata$r	ENDS
;	COMDAT ??_R0?AUICompressSetInStream@@@8
_DATA	SEGMENT
??_R0?AUICompressSetInStream@@@8 DD FLAT:??_7type_info@@6B@ ; ICompressSetInStream `RTTI Type Descriptor'
	DD	00H
	DB	'.?AUICompressSetInStream@@', 00H
_DATA	ENDS
;	COMDAT ??_R1BA@?0A@EA@ICompressSetInStream@@8
rdata$r	SEGMENT
??_R1BA@?0A@EA@ICompressSetInStream@@8 DD FLAT:??_R0?AUICompressSetInStream@@@8 ; ICompressSetInStream::`RTTI Base Class Descriptor at (16,-1,0,64)'
	DD	01H
	DD	010H
	DD	0ffffffffH
	DD	00H
	DD	040H
	DD	FLAT:??_R3ICompressSetInStream@@8
rdata$r	ENDS
;	COMDAT ??_R1M@?0A@EC@IUnknown@@8
rdata$r	SEGMENT
??_R1M@?0A@EC@IUnknown@@8 DD FLAT:??_R0?AUIUnknown@@@8	; IUnknown::`RTTI Base Class Descriptor at (12,-1,0,66)'
	DD	00H
	DD	0cH
	DD	0ffffffffH
	DD	00H
	DD	042H
	DD	FLAT:??_R3IUnknown@@8
rdata$r	ENDS
;	COMDAT ??_R1A@?0A@EA@ICompressSetBufSize@@8
rdata$r	SEGMENT
??_R1A@?0A@EA@ICompressSetBufSize@@8 DD FLAT:??_R0?AUICompressSetBufSize@@@8 ; ICompressSetBufSize::`RTTI Base Class Descriptor at (0,-1,0,64)'
	DD	01H
	DD	00H
	DD	0ffffffffH
	DD	00H
	DD	040H
	DD	FLAT:??_R3ICompressSetBufSize@@8
rdata$r	ENDS
;	COMDAT ??_R2ICompressSetBufSize@@8
rdata$r	SEGMENT
??_R2ICompressSetBufSize@@8 DD FLAT:??_R1A@?0A@EA@ICompressSetBufSize@@8 ; ICompressSetBufSize::`RTTI Base Class Array'
	DD	FLAT:??_R1A@?0A@EA@IUnknown@@8
rdata$r	ENDS
;	COMDAT ??_R3ICompressSetBufSize@@8
rdata$r	SEGMENT
??_R3ICompressSetBufSize@@8 DD 00H			; ICompressSetBufSize::`RTTI Class Hierarchy Descriptor'
	DD	00H
	DD	02H
	DD	FLAT:??_R2ICompressSetBufSize@@8
rdata$r	ENDS
;	COMDAT ??_R0?AUICompressSetBufSize@@@8
_DATA	SEGMENT
??_R0?AUICompressSetBufSize@@@8 DD FLAT:??_7type_info@@6B@ ; ICompressSetBufSize `RTTI Type Descriptor'
	DD	00H
	DB	'.?AUICompressSetBufSize@@', 00H
_DATA	ENDS
;	COMDAT ??_R1M@?0A@EA@ICompressSetBufSize@@8
rdata$r	SEGMENT
??_R1M@?0A@EA@ICompressSetBufSize@@8 DD FLAT:??_R0?AUICompressSetBufSize@@@8 ; ICompressSetBufSize::`RTTI Base Class Descriptor at (12,-1,0,64)'
	DD	01H
	DD	0cH
	DD	0ffffffffH
	DD	00H
	DD	040H
	DD	FLAT:??_R3ICompressSetBufSize@@8
rdata$r	ENDS
;	COMDAT ??_R17?0A@EC@IUnknown@@8
rdata$r	SEGMENT
??_R17?0A@EC@IUnknown@@8 DD FLAT:??_R0?AUIUnknown@@@8	; IUnknown::`RTTI Base Class Descriptor at (8,-1,0,66)'
	DD	00H
	DD	08H
	DD	0ffffffffH
	DD	00H
	DD	042H
	DD	FLAT:??_R3IUnknown@@8
rdata$r	ENDS
;	COMDAT ??_R1A@?0A@EA@ICompressSetFinishMode@@8
rdata$r	SEGMENT
??_R1A@?0A@EA@ICompressSetFinishMode@@8 DD FLAT:??_R0?AUICompressSetFinishMode@@@8 ; ICompressSetFinishMode::`RTTI Base Class Descriptor at (0,-1,0,64)'
	DD	01H
	DD	00H
	DD	0ffffffffH
	DD	00H
	DD	040H
	DD	FLAT:??_R3ICompressSetFinishMode@@8
rdata$r	ENDS
;	COMDAT ??_R2ICompressSetFinishMode@@8
rdata$r	SEGMENT
??_R2ICompressSetFinishMode@@8 DD FLAT:??_R1A@?0A@EA@ICompressSetFinishMode@@8 ; ICompressSetFinishMode::`RTTI Base Class Array'
	DD	FLAT:??_R1A@?0A@EA@IUnknown@@8
rdata$r	ENDS
;	COMDAT ??_R3ICompressSetFinishMode@@8
rdata$r	SEGMENT
??_R3ICompressSetFinishMode@@8 DD 00H			; ICompressSetFinishMode::`RTTI Class Hierarchy Descriptor'
	DD	00H
	DD	02H
	DD	FLAT:??_R2ICompressSetFinishMode@@8
rdata$r	ENDS
;	COMDAT ??_R0?AUICompressSetFinishMode@@@8
_DATA	SEGMENT
??_R0?AUICompressSetFinishMode@@@8 DD FLAT:??_7type_info@@6B@ ; ICompressSetFinishMode `RTTI Type Descriptor'
	DD	00H
	DB	'.?AUICompressSetFinishMode@@', 00H
_DATA	ENDS
;	COMDAT ??_R17?0A@EA@ICompressSetFinishMode@@8
rdata$r	SEGMENT
??_R17?0A@EA@ICompressSetFinishMode@@8 DD FLAT:??_R0?AUICompressSetFinishMode@@@8 ; ICompressSetFinishMode::`RTTI Base Class Descriptor at (8,-1,0,64)'
	DD	01H
	DD	08H
	DD	0ffffffffH
	DD	00H
	DD	040H
	DD	FLAT:??_R3ICompressSetFinishMode@@8
rdata$r	ENDS
;	COMDAT ??_R13?0A@EC@IUnknown@@8
rdata$r	SEGMENT
??_R13?0A@EC@IUnknown@@8 DD FLAT:??_R0?AUIUnknown@@@8	; IUnknown::`RTTI Base Class Descriptor at (4,-1,0,66)'
	DD	00H
	DD	04H
	DD	0ffffffffH
	DD	00H
	DD	042H
	DD	FLAT:??_R3IUnknown@@8
rdata$r	ENDS
;	COMDAT ??_R1A@?0A@EA@ICompressSetDecoderProperties2@@8
rdata$r	SEGMENT
??_R1A@?0A@EA@ICompressSetDecoderProperties2@@8 DD FLAT:??_R0?AUICompressSetDecoderProperties2@@@8 ; ICompressSetDecoderProperties2::`RTTI Base Class Descriptor at (0,-1,0,64)'
	DD	01H
	DD	00H
	DD	0ffffffffH
	DD	00H
	DD	040H
	DD	FLAT:??_R3ICompressSetDecoderProperties2@@8
rdata$r	ENDS
;	COMDAT ??_R2ICompressSetDecoderProperties2@@8
rdata$r	SEGMENT
??_R2ICompressSetDecoderProperties2@@8 DD FLAT:??_R1A@?0A@EA@ICompressSetDecoderProperties2@@8 ; ICompressSetDecoderProperties2::`RTTI Base Class Array'
	DD	FLAT:??_R1A@?0A@EA@IUnknown@@8
rdata$r	ENDS
;	COMDAT ??_R3ICompressSetDecoderProperties2@@8
rdata$r	SEGMENT
??_R3ICompressSetDecoderProperties2@@8 DD 00H		; ICompressSetDecoderProperties2::`RTTI Class Hierarchy Descriptor'
	DD	00H
	DD	02H
	DD	FLAT:??_R2ICompressSetDecoderProperties2@@8
rdata$r	ENDS
;	COMDAT ??_R0?AUICompressSetDecoderProperties2@@@8
_DATA	SEGMENT
??_R0?AUICompressSetDecoderProperties2@@@8 DD FLAT:??_7type_info@@6B@ ; ICompressSetDecoderProperties2 `RTTI Type Descriptor'
	DD	00H
	DB	'.?AUICompressSetDecoderProperties2@@', 00H
_DATA	ENDS
;	COMDAT ??_R13?0A@EA@ICompressSetDecoderProperties2@@8
rdata$r	SEGMENT
??_R13?0A@EA@ICompressSetDecoderProperties2@@8 DD FLAT:??_R0?AUICompressSetDecoderProperties2@@@8 ; ICompressSetDecoderProperties2::`RTTI Base Class Descriptor at (4,-1,0,64)'
	DD	01H
	DD	04H
	DD	0ffffffffH
	DD	00H
	DD	040H
	DD	FLAT:??_R3ICompressSetDecoderProperties2@@8
rdata$r	ENDS
;	COMDAT ??_R1A@?0A@EC@IUnknown@@8
rdata$r	SEGMENT
??_R1A@?0A@EC@IUnknown@@8 DD FLAT:??_R0?AUIUnknown@@@8	; IUnknown::`RTTI Base Class Descriptor at (0,-1,0,66)'
	DD	00H
	DD	00H
	DD	0ffffffffH
	DD	00H
	DD	042H
	DD	FLAT:??_R3IUnknown@@8
rdata$r	ENDS
;	COMDAT ??_R2IUnknown@@8
rdata$r	SEGMENT
??_R2IUnknown@@8 DD FLAT:??_R1A@?0A@EA@IUnknown@@8	; IUnknown::`RTTI Base Class Array'
rdata$r	ENDS
;	COMDAT ??_R3IUnknown@@8
rdata$r	SEGMENT
??_R3IUnknown@@8 DD 00H					; IUnknown::`RTTI Class Hierarchy Descriptor'
	DD	00H
	DD	01H
	DD	FLAT:??_R2IUnknown@@8
rdata$r	ENDS
;	COMDAT ??_R0?AUIUnknown@@@8
_DATA	SEGMENT
??_R0?AUIUnknown@@@8 DD FLAT:??_7type_info@@6B@		; IUnknown `RTTI Type Descriptor'
	DD	00H
	DB	'.?AUIUnknown@@', 00H
_DATA	ENDS
;	COMDAT ??_R1A@?0A@EA@IUnknown@@8
rdata$r	SEGMENT
??_R1A@?0A@EA@IUnknown@@8 DD FLAT:??_R0?AUIUnknown@@@8	; IUnknown::`RTTI Base Class Descriptor at (0,-1,0,64)'
	DD	00H
	DD	00H
	DD	0ffffffffH
	DD	00H
	DD	040H
	DD	FLAT:??_R3IUnknown@@8
rdata$r	ENDS
;	COMDAT ??_R2ICompressCoder@@8
rdata$r	SEGMENT
??_R2ICompressCoder@@8 DD FLAT:??_R1A@?0A@EA@ICompressCoder@@8 ; ICompressCoder::`RTTI Base Class Array'
	DD	FLAT:??_R1A@?0A@EA@IUnknown@@8
rdata$r	ENDS
;	COMDAT ??_R3ICompressCoder@@8
rdata$r	SEGMENT
??_R3ICompressCoder@@8 DD 00H				; ICompressCoder::`RTTI Class Hierarchy Descriptor'
	DD	00H
	DD	02H
	DD	FLAT:??_R2ICompressCoder@@8
rdata$r	ENDS
;	COMDAT ??_R0?AUICompressCoder@@@8
_DATA	SEGMENT
??_R0?AUICompressCoder@@@8 DD FLAT:??_7type_info@@6B@	; ICompressCoder `RTTI Type Descriptor'
	DD	00H
	DB	'.?AUICompressCoder@@', 00H
_DATA	ENDS
;	COMDAT ??_R1A@?0A@EA@ICompressCoder@@8
rdata$r	SEGMENT
??_R1A@?0A@EA@ICompressCoder@@8 DD FLAT:??_R0?AUICompressCoder@@@8 ; ICompressCoder::`RTTI Base Class Descriptor at (0,-1,0,64)'
	DD	01H
	DD	00H
	DD	0ffffffffH
	DD	00H
	DD	040H
	DD	FLAT:??_R3ICompressCoder@@8
rdata$r	ENDS
;	COMDAT ??_R1A@?0A@EA@CDecoder@NLzma@NCompress@@8
rdata$r	SEGMENT
??_R1A@?0A@EA@CDecoder@NLzma@NCompress@@8 DD FLAT:??_R0?AVCDecoder@NLzma@NCompress@@@8 ; NCompress::NLzma::CDecoder::`RTTI Base Class Descriptor at (0,-1,0,64)'
	DD	0fH
	DD	00H
	DD	0ffffffffH
	DD	00H
	DD	040H
	DD	FLAT:??_R3CDecoder@NLzma@NCompress@@8
rdata$r	ENDS
;	COMDAT ??_R2CDecoder@NLzma@NCompress@@8
rdata$r	SEGMENT
??_R2CDecoder@NLzma@NCompress@@8 DD FLAT:??_R1A@?0A@EA@CDecoder@NLzma@NCompress@@8 ; NCompress::NLzma::CDecoder::`RTTI Base Class Array'
	DD	FLAT:??_R1A@?0A@EA@ICompressCoder@@8
	DD	FLAT:??_R1A@?0A@EC@IUnknown@@8
	DD	FLAT:??_R13?0A@EA@ICompressSetDecoderProperties2@@8
	DD	FLAT:??_R13?0A@EC@IUnknown@@8
	DD	FLAT:??_R17?0A@EA@ICompressSetFinishMode@@8
	DD	FLAT:??_R17?0A@EC@IUnknown@@8
	DD	FLAT:??_R1M@?0A@EA@ICompressSetBufSize@@8
	DD	FLAT:??_R1M@?0A@EC@IUnknown@@8
	DD	FLAT:??_R1BA@?0A@EA@ICompressSetInStream@@8
	DD	FLAT:??_R1BA@?0A@EC@IUnknown@@8
	DD	FLAT:??_R1BE@?0A@EA@ICompressSetOutStreamSize@@8
	DD	FLAT:??_R1BE@?0A@EC@IUnknown@@8
	DD	FLAT:??_R1BI@?0A@EA@ISequentialInStream@@8
	DD	FLAT:??_R1BI@?0A@EC@IUnknown@@8
	DD	FLAT:??_R1BM@?0A@EA@CMyUnknownImp@@8
rdata$r	ENDS
;	COMDAT ??_R3CDecoder@NLzma@NCompress@@8
rdata$r	SEGMENT
??_R3CDecoder@NLzma@NCompress@@8 DD 00H			; NCompress::NLzma::CDecoder::`RTTI Class Hierarchy Descriptor'
	DD	05H
	DD	010H
	DD	FLAT:??_R2CDecoder@NLzma@NCompress@@8
rdata$r	ENDS
;	COMDAT ??_R0?AVCDecoder@NLzma@NCompress@@@8
_DATA	SEGMENT
??_R0?AVCDecoder@NLzma@NCompress@@@8 DD FLAT:??_7type_info@@6B@ ; NCompress::NLzma::CDecoder `RTTI Type Descriptor'
	DD	00H
	DB	'.?AVCDecoder@NLzma@NCompress@@', 00H
_DATA	ENDS
;	COMDAT ??_R4CDecoder@NLzma@NCompress@@6BICompressCoder@@@
rdata$r	SEGMENT
??_R4CDecoder@NLzma@NCompress@@6BICompressCoder@@@ DD 00H ; NCompress::NLzma::CDecoder::`RTTI Complete Object Locator'
	DD	00H
	DD	00H
	DD	FLAT:??_R0?AVCDecoder@NLzma@NCompress@@@8
	DD	FLAT:??_R3CDecoder@NLzma@NCompress@@8
rdata$r	ENDS
;	COMDAT ??_7CDecoder@NLzma@NCompress@@6BISequentialInStream@@@
CONST	SEGMENT
??_7CDecoder@NLzma@NCompress@@6BISequentialInStream@@@ DD FLAT:??_R4CDecoder@NLzma@NCompress@@6BISequentialInStream@@@ ; NCompress::NLzma::CDecoder::`vftable'
	DD	FLAT:?QueryInterface@CDecoder@NLzma@NCompress@@WBI@AGJABU_GUID@@PAPAX@Z
	DD	FLAT:?AddRef@CDecoder@NLzma@NCompress@@WBI@AGKXZ
	DD	FLAT:?Release@CDecoder@NLzma@NCompress@@WBI@AGKXZ
	DD	FLAT:?Read@CDecoder@NLzma@NCompress@@UAGJPAXIPAI@Z
CONST	ENDS
;	COMDAT ??_7CDecoder@NLzma@NCompress@@6BICompressSetOutStreamSize@@@
CONST	SEGMENT
??_7CDecoder@NLzma@NCompress@@6BICompressSetOutStreamSize@@@ DD FLAT:??_R4CDecoder@NLzma@NCompress@@6BICompressSetOutStreamSize@@@ ; NCompress::NLzma::CDecoder::`vftable'
	DD	FLAT:?QueryInterface@CDecoder@NLzma@NCompress@@WBE@AGJABU_GUID@@PAPAX@Z
	DD	FLAT:?AddRef@CDecoder@NLzma@NCompress@@WBE@AGKXZ
	DD	FLAT:?Release@CDecoder@NLzma@NCompress@@WBE@AGKXZ
	DD	FLAT:?SetOutStreamSize@CDecoder@NLzma@NCompress@@UAGJPB_K@Z
CONST	ENDS
;	COMDAT ??_7CDecoder@NLzma@NCompress@@6BICompressSetInStream@@@
CONST	SEGMENT
??_7CDecoder@NLzma@NCompress@@6BICompressSetInStream@@@ DD FLAT:??_R4CDecoder@NLzma@NCompress@@6BICompressSetInStream@@@ ; NCompress::NLzma::CDecoder::`vftable'
	DD	FLAT:?QueryInterface@CDecoder@NLzma@NCompress@@WBA@AGJABU_GUID@@PAPAX@Z
	DD	FLAT:?AddRef@CDecoder@NLzma@NCompress@@WBA@AGKXZ
	DD	FLAT:?Release@CDecoder@NLzma@NCompress@@WBA@AGKXZ
	DD	FLAT:?SetInStream@CDecoder@NLzma@NCompress@@UAGJPAUISequentialInStream@@@Z
	DD	FLAT:?ReleaseInStream@CDecoder@NLzma@NCompress@@UAGJXZ
CONST	ENDS
;	COMDAT ??_7CDecoder@NLzma@NCompress@@6BICompressSetBufSize@@@
CONST	SEGMENT
??_7CDecoder@NLzma@NCompress@@6BICompressSetBufSize@@@ DD FLAT:??_R4CDecoder@NLzma@NCompress@@6BICompressSetBufSize@@@ ; NCompress::NLzma::CDecoder::`vftable'
	DD	FLAT:?QueryInterface@CDecoder@NLzma@NCompress@@WM@AGJABU_GUID@@PAPAX@Z
	DD	FLAT:?AddRef@CDecoder@NLzma@NCompress@@WM@AGKXZ
	DD	FLAT:?Release@CDecoder@NLzma@NCompress@@WM@AGKXZ
	DD	FLAT:?SetInBufSize@CDecoder@NLzma@NCompress@@UAGJII@Z
	DD	FLAT:?SetOutBufSize@CDecoder@NLzma@NCompress@@UAGJII@Z
CONST	ENDS
;	COMDAT ??_7CDecoder@NLzma@NCompress@@6BICompressSetFinishMode@@@
CONST	SEGMENT
??_7CDecoder@NLzma@NCompress@@6BICompressSetFinishMode@@@ DD FLAT:??_R4CDecoder@NLzma@NCompress@@6BICompressSetFinishMode@@@ ; NCompress::NLzma::CDecoder::`vftable'
	DD	FLAT:?QueryInterface@CDecoder@NLzma@NCompress@@W7AGJABU_GUID@@PAPAX@Z
	DD	FLAT:?AddRef@CDecoder@NLzma@NCompress@@W7AGKXZ
	DD	FLAT:?Release@CDecoder@NLzma@NCompress@@W7AGKXZ
	DD	FLAT:?SetFinishMode@CDecoder@NLzma@NCompress@@UAGJI@Z
CONST	ENDS
;	COMDAT ??_7CDecoder@NLzma@NCompress@@6BICompressSetDecoderProperties2@@@
CONST	SEGMENT
??_7CDecoder@NLzma@NCompress@@6BICompressSetDecoderProperties2@@@ DD FLAT:??_R4CDecoder@NLzma@NCompress@@6BICompressSetDecoderProperties2@@@ ; NCompress::NLzma::CDecoder::`vftable'
	DD	FLAT:?QueryInterface@CDecoder@NLzma@NCompress@@W3AGJABU_GUID@@PAPAX@Z
	DD	FLAT:?AddRef@CDecoder@NLzma@NCompress@@W3AGKXZ
	DD	FLAT:?Release@CDecoder@NLzma@NCompress@@W3AGKXZ
	DD	FLAT:?SetDecoderProperties2@CDecoder@NLzma@NCompress@@UAGJPBEI@Z
CONST	ENDS
;	COMDAT ??_7CDecoder@NLzma@NCompress@@6BICompressCoder@@@
CONST	SEGMENT
??_7CDecoder@NLzma@NCompress@@6BICompressCoder@@@ DD FLAT:??_R4CDecoder@NLzma@NCompress@@6BICompressCoder@@@ ; NCompress::NLzma::CDecoder::`vftable'
	DD	FLAT:?QueryInterface@CDecoder@NLzma@NCompress@@UAGJABU_GUID@@PAPAX@Z
	DD	FLAT:?AddRef@CDecoder@NLzma@NCompress@@UAGKXZ
	DD	FLAT:?Release@CDecoder@NLzma@NCompress@@UAGKXZ
	DD	FLAT:?Code@CDecoder@NLzma@NCompress@@UAGJPAUISequentialInStream@@PAUISequentialOutStream@@PB_K2PAUICompressProgressInfo@@@Z
	DD	FLAT:??_ECDecoder@NLzma@NCompress@@UAEPAXI@Z
CONST	ENDS
;	COMDAT rtc$TMZ
rtc$TMZ	SEGMENT
__RTC_Shutdown.rtc$TMZ DD FLAT:__RTC_Shutdown
rtc$TMZ	ENDS
;	COMDAT rtc$IMZ
rtc$IMZ	SEGMENT
__RTC_InitBase.rtc$IMZ DD FLAT:__RTC_InitBase
; Function compile flags: /Odtp /RTCsu
rtc$IMZ	ENDS
_TEXT	SEGMENT
_this$ = -4						; size = 4
??0CDecoder@NLzma@NCompress@@QAE@XZ PROC		; NCompress::NLzma::CDecoder::CDecoder
; _this$ = ecx
; Line 32
	push	ebp
	mov	ebp, esp
	push	ecx
	mov	DWORD PTR [ebp-4], -858993460		; ccccccccH
	mov	DWORD PTR _this$[ebp], ecx
	mov	ecx, DWORD PTR _this$[ebp]
	call	??0ICompressCoder@@QAE@XZ
	mov	ecx, DWORD PTR _this$[ebp]
	add	ecx, 4
	call	??0ICompressSetDecoderProperties2@@QAE@XZ
	mov	ecx, DWORD PTR _this$[ebp]
	add	ecx, 8
	call	??0ICompressSetFinishMode@@QAE@XZ
	mov	ecx, DWORD PTR _this$[ebp]
	add	ecx, 12					; 0000000cH
	call	??0ICompressSetBufSize@@QAE@XZ
	mov	ecx, DWORD PTR _this$[ebp]
	add	ecx, 16					; 00000010H
	call	??0ICompressSetInStream@@QAE@XZ
	mov	ecx, DWORD PTR _this$[ebp]
	add	ecx, 20					; 00000014H
	call	??0ICompressSetOutStreamSize@@QAE@XZ
	mov	ecx, DWORD PTR _this$[ebp]
	add	ecx, 24					; 00000018H
	call	??0ISequentialInStream@@QAE@XZ
	mov	ecx, DWORD PTR _this$[ebp]
	add	ecx, 28					; 0000001cH
	call	??0CMyUnknownImp@@QAE@XZ		; CMyUnknownImp::CMyUnknownImp
	mov	eax, DWORD PTR _this$[ebp]
	mov	DWORD PTR [eax], OFFSET ??_7CDecoder@NLzma@NCompress@@6BICompressCoder@@@
	mov	ecx, DWORD PTR _this$[ebp]
	mov	DWORD PTR [ecx+4], OFFSET ??_7CDecoder@NLzma@NCompress@@6BICompressSetDecoderProperties2@@@
	mov	edx, DWORD PTR _this$[ebp]
	mov	DWORD PTR [edx+8], OFFSET ??_7CDecoder@NLzma@NCompress@@6BICompressSetFinishMode@@@
	mov	eax, DWORD PTR _this$[ebp]
	mov	DWORD PTR [eax+12], OFFSET ??_7CDecoder@NLzma@NCompress@@6BICompressSetBufSize@@@
	mov	ecx, DWORD PTR _this$[ebp]
	mov	DWORD PTR [ecx+16], OFFSET ??_7CDecoder@NLzma@NCompress@@6BICompressSetInStream@@@
	mov	edx, DWORD PTR _this$[ebp]
	mov	DWORD PTR [edx+20], OFFSET ??_7CDecoder@NLzma@NCompress@@6BICompressSetOutStreamSize@@@
	mov	eax, DWORD PTR _this$[ebp]
	mov	DWORD PTR [eax+24], OFFSET ??_7CDecoder@NLzma@NCompress@@6BISequentialInStream@@@
	mov	ecx, DWORD PTR _this$[ebp]
	add	ecx, 32					; 00000020H
	call	??0?$CMyComPtr@UISequentialInStream@@@@QAE@XZ ; CMyComPtr<ISequentialInStream>::CMyComPtr<ISequentialInStream>
	mov	ecx, DWORD PTR _this$[ebp]
	mov	DWORD PTR [ecx+36], 0
	mov	edx, DWORD PTR _this$[ebp]
	mov	BYTE PTR [edx+160], 0
	mov	eax, DWORD PTR _this$[ebp]
	mov	BYTE PTR [eax+161], 0
	mov	ecx, DWORD PTR _this$[ebp]
	mov	DWORD PTR [ecx+196], 1048576		; 00100000H
	mov	edx, DWORD PTR _this$[ebp]
	mov	DWORD PTR [edx+200], 4194304		; 00400000H
	mov	eax, DWORD PTR _this$[ebp]
	mov	BYTE PTR [eax+208], 0
	mov	ecx, DWORD PTR _this$[ebp]
	mov	BYTE PTR [ecx+209], 0
; Line 33
	mov	edx, DWORD PTR _this$[ebp]
	mov	DWORD PTR [edx+176], 0
	mov	DWORD PTR [edx+180], 0
; Line 34
	mov	eax, DWORD PTR _this$[ebp]
	mov	DWORD PTR [eax+44], 0
	mov	ecx, DWORD PTR _this$[ebp]
	mov	DWORD PTR [ecx+40], 0
; Line 35
	mov	edx, DWORD PTR _this$[ebp]
	mov	DWORD PTR [edx+68], 0
	mov	eax, DWORD PTR _this$[ebp]
	mov	DWORD PTR [eax+64], 0
; Line 36
	mov	eax, DWORD PTR _this$[ebp]
	add	esp, 4
	cmp	ebp, esp
	call	__RTC_CheckEsp
	mov	esp, ebp
	pop	ebp
	ret	0
??0CDecoder@NLzma@NCompress@@QAE@XZ ENDP		; NCompress::NLzma::CDecoder::CDecoder
; Function compile flags: /Odtp /RTCsu
_TEXT	ENDS
;	COMDAT ??0CMyUnknownImp@@QAE@XZ
_TEXT	SEGMENT
_this$ = -4						; size = 4
??0CMyUnknownImp@@QAE@XZ PROC				; CMyUnknownImp::CMyUnknownImp, COMDAT
; _this$ = ecx
; File c:\workspace\7z1505-src\cpp\common\mycom.h
; Line 167
	push	ebp
	mov	ebp, esp
	push	ecx
	mov	DWORD PTR [ebp-4], -858993460		; ccccccccH
	mov	DWORD PTR _this$[ebp], ecx
	mov	eax, DWORD PTR _this$[ebp]
	mov	DWORD PTR [eax], 0
	mov	eax, DWORD PTR _this$[ebp]
	mov	esp, ebp
	pop	ebp
	ret	0
??0CMyUnknownImp@@QAE@XZ ENDP				; CMyUnknownImp::CMyUnknownImp
_TEXT	ENDS
PUBLIC	_==@8
EXTRN	_IID_ISequentialInStream:BYTE
EXTRN	_IID_ICompressSetOutStreamSize:BYTE
EXTRN	_IID_ICompressSetInStream:BYTE
EXTRN	_IID_ICompressSetBufSize:BYTE
EXTRN	_IID_ICompressSetFinishMode:BYTE
EXTRN	_IID_ICompressSetDecoderProperties2:BYTE
EXTRN	_IID_ICompressCoder:BYTE
EXTRN	_IID_IUnknown:BYTE
; Function compile flags: /Odtp /RTCsu
;	COMDAT ?QueryInterface@CDecoder@NLzma@NCompress@@UAGJABU_GUID@@PAPAX@Z
_TEXT	SEGMENT
tv174 = -24						; size = 4
tv164 = -20						; size = 4
tv154 = -16						; size = 4
tv144 = -12						; size = 4
tv134 = -8						; size = 4
tv92 = -4						; size = 4
_this$ = 8						; size = 4
_iid$ = 12						; size = 4
_outObject$ = 16					; size = 4
?QueryInterface@CDecoder@NLzma@NCompress@@UAGJABU_GUID@@PAPAX@Z PROC ; NCompress::NLzma::CDecoder::QueryInterface, COMDAT
; File c:\workspace\7z1505-src\cpp\7zip\compress\lzmadecoder.h
; Line 47
	push	ebp
	mov	ebp, esp
	sub	esp, 24					; 00000018H
	mov	eax, -858993460				; ccccccccH
	mov	DWORD PTR [ebp-24], eax
	mov	DWORD PTR [ebp-20], eax
	mov	DWORD PTR [ebp-16], eax
	mov	DWORD PTR [ebp-12], eax
	mov	DWORD PTR [ebp-8], eax
	mov	DWORD PTR [ebp-4], eax
	mov	eax, DWORD PTR _outObject$[ebp]
	mov	DWORD PTR [eax], 0
	push	OFFSET _IID_IUnknown
	mov	ecx, DWORD PTR _iid$[ebp]
	push	ecx
	call	_==@8
	test	eax, eax
	je	SHORT $LN16@QueryInter
	mov	edx, DWORD PTR _outObject$[ebp]
	mov	eax, DWORD PTR _this$[ebp]
	mov	DWORD PTR [edx], eax
	jmp	$LN15@QueryInter
$LN16@QueryInter:
	push	OFFSET _IID_ICompressCoder
	mov	ecx, DWORD PTR _iid$[ebp]
	push	ecx
	call	_==@8
	test	eax, eax
	je	SHORT $LN14@QueryInter
	mov	edx, DWORD PTR _outObject$[ebp]
	mov	eax, DWORD PTR _this$[ebp]
	mov	DWORD PTR [edx], eax
	jmp	$LN15@QueryInter
$LN14@QueryInter:
; Line 48
	push	OFFSET _IID_ICompressSetDecoderProperties2
	mov	ecx, DWORD PTR _iid$[ebp]
	push	ecx
	call	_==@8
	test	eax, eax
	je	SHORT $LN12@QueryInter
	cmp	DWORD PTR _this$[ebp], 0
	je	SHORT $LN19@QueryInter
	mov	edx, DWORD PTR _this$[ebp]
	add	edx, 4
	mov	DWORD PTR tv92[ebp], edx
	jmp	SHORT $LN20@QueryInter
$LN19@QueryInter:
	mov	DWORD PTR tv92[ebp], 0
$LN20@QueryInter:
	mov	eax, DWORD PTR _outObject$[ebp]
	mov	ecx, DWORD PTR tv92[ebp]
	mov	DWORD PTR [eax], ecx
	jmp	$LN15@QueryInter
$LN12@QueryInter:
; Line 49
	push	OFFSET _IID_ICompressSetFinishMode
	mov	edx, DWORD PTR _iid$[ebp]
	push	edx
	call	_==@8
	test	eax, eax
	je	SHORT $LN10@QueryInter
	cmp	DWORD PTR _this$[ebp], 0
	je	SHORT $LN21@QueryInter
	mov	eax, DWORD PTR _this$[ebp]
	add	eax, 8
	mov	DWORD PTR tv134[ebp], eax
	jmp	SHORT $LN22@QueryInter
$LN21@QueryInter:
	mov	DWORD PTR tv134[ebp], 0
$LN22@QueryInter:
	mov	ecx, DWORD PTR _outObject$[ebp]
	mov	edx, DWORD PTR tv134[ebp]
	mov	DWORD PTR [ecx], edx
	jmp	$LN15@QueryInter
$LN10@QueryInter:
; Line 50
	push	OFFSET _IID_ICompressSetBufSize
	mov	eax, DWORD PTR _iid$[ebp]
	push	eax
	call	_==@8
	test	eax, eax
	je	SHORT $LN8@QueryInter
	cmp	DWORD PTR _this$[ebp], 0
	je	SHORT $LN23@QueryInter
	mov	ecx, DWORD PTR _this$[ebp]
	add	ecx, 12					; 0000000cH
	mov	DWORD PTR tv144[ebp], ecx
	jmp	SHORT $LN24@QueryInter
$LN23@QueryInter:
	mov	DWORD PTR tv144[ebp], 0
$LN24@QueryInter:
	mov	edx, DWORD PTR _outObject$[ebp]
	mov	eax, DWORD PTR tv144[ebp]
	mov	DWORD PTR [edx], eax
	jmp	$LN15@QueryInter
$LN8@QueryInter:
; Line 52
	push	OFFSET _IID_ICompressSetInStream
	mov	ecx, DWORD PTR _iid$[ebp]
	push	ecx
	call	_==@8
	test	eax, eax
	je	SHORT $LN6@QueryInter
	cmp	DWORD PTR _this$[ebp], 0
	je	SHORT $LN25@QueryInter
	mov	edx, DWORD PTR _this$[ebp]
	add	edx, 16					; 00000010H
	mov	DWORD PTR tv154[ebp], edx
	jmp	SHORT $LN26@QueryInter
$LN25@QueryInter:
	mov	DWORD PTR tv154[ebp], 0
$LN26@QueryInter:
	mov	eax, DWORD PTR _outObject$[ebp]
	mov	ecx, DWORD PTR tv154[ebp]
	mov	DWORD PTR [eax], ecx
	jmp	SHORT $LN15@QueryInter
$LN6@QueryInter:
; Line 53
	push	OFFSET _IID_ICompressSetOutStreamSize
	mov	edx, DWORD PTR _iid$[ebp]
	push	edx
	call	_==@8
	test	eax, eax
	je	SHORT $LN4@QueryInter
	cmp	DWORD PTR _this$[ebp], 0
	je	SHORT $LN27@QueryInter
	mov	eax, DWORD PTR _this$[ebp]
	add	eax, 20					; 00000014H
	mov	DWORD PTR tv164[ebp], eax
	jmp	SHORT $LN28@QueryInter
$LN27@QueryInter:
	mov	DWORD PTR tv164[ebp], 0
$LN28@QueryInter:
	mov	ecx, DWORD PTR _outObject$[ebp]
	mov	edx, DWORD PTR tv164[ebp]
	mov	DWORD PTR [ecx], edx
	jmp	SHORT $LN15@QueryInter
$LN4@QueryInter:
; Line 54
	push	OFFSET _IID_ISequentialInStream
	mov	eax, DWORD PTR _iid$[ebp]
	push	eax
	call	_==@8
	test	eax, eax
	je	SHORT $LN2@QueryInter
	cmp	DWORD PTR _this$[ebp], 0
	je	SHORT $LN29@QueryInter
	mov	ecx, DWORD PTR _this$[ebp]
	add	ecx, 24					; 00000018H
	mov	DWORD PTR tv174[ebp], ecx
	jmp	SHORT $LN30@QueryInter
$LN29@QueryInter:
	mov	DWORD PTR tv174[ebp], 0
$LN30@QueryInter:
	mov	edx, DWORD PTR _outObject$[ebp]
	mov	eax, DWORD PTR tv174[ebp]
	mov	DWORD PTR [edx], eax
	jmp	SHORT $LN15@QueryInter
$LN2@QueryInter:
; Line 56
	mov	eax, -2147467262			; 80004002H
	jmp	SHORT $LN17@QueryInter
$LN15@QueryInter:
	mov	ecx, DWORD PTR _this$[ebp]
	mov	edx, DWORD PTR [ecx+28]
	add	edx, 1
	mov	eax, DWORD PTR _this$[ebp]
	mov	DWORD PTR [eax+28], edx
	xor	eax, eax
$LN17@QueryInter:
	add	esp, 24					; 00000018H
	cmp	ebp, esp
	call	__RTC_CheckEsp
	mov	esp, ebp
	pop	ebp
	ret	12					; 0000000cH
?QueryInterface@CDecoder@NLzma@NCompress@@UAGJABU_GUID@@PAPAX@Z ENDP ; NCompress::NLzma::CDecoder::QueryInterface
; Function compile flags: /Odtp /RTCsu
_TEXT	ENDS
;	COMDAT ?AddRef@CDecoder@NLzma@NCompress@@UAGKXZ
_TEXT	SEGMENT
tv70 = -4						; size = 4
_this$ = 8						; size = 4
?AddRef@CDecoder@NLzma@NCompress@@UAGKXZ PROC		; NCompress::NLzma::CDecoder::AddRef, COMDAT
; Line 57
	push	ebp
	mov	ebp, esp
	push	ecx
	mov	DWORD PTR [ebp-4], -858993460		; ccccccccH
	mov	eax, DWORD PTR _this$[ebp]
	mov	ecx, DWORD PTR [eax+28]
	add	ecx, 1
	mov	DWORD PTR tv70[ebp], ecx
	mov	edx, DWORD PTR _this$[ebp]
	mov	eax, DWORD PTR tv70[ebp]
	mov	DWORD PTR [edx+28], eax
	mov	eax, DWORD PTR tv70[ebp]
	mov	esp, ebp
	pop	ebp
	ret	4
?AddRef@CDecoder@NLzma@NCompress@@UAGKXZ ENDP		; NCompress::NLzma::CDecoder::AddRef
; Function compile flags: /Odtp /RTCsu
_TEXT	ENDS
;	COMDAT ?Release@CDecoder@NLzma@NCompress@@UAGKXZ
_TEXT	SEGMENT
tv83 = -16						; size = 4
tv70 = -12						; size = 4
$T67189 = -8						; size = 4
$T67188 = -4						; size = 4
_this$ = 8						; size = 4
?Release@CDecoder@NLzma@NCompress@@UAGKXZ PROC		; NCompress::NLzma::CDecoder::Release, COMDAT
; Line 57
	push	ebp
	mov	ebp, esp
	sub	esp, 16					; 00000010H
	push	esi
	mov	eax, -858993460				; ccccccccH
	mov	DWORD PTR [ebp-16], eax
	mov	DWORD PTR [ebp-12], eax
	mov	DWORD PTR [ebp-8], eax
	mov	DWORD PTR [ebp-4], eax
	mov	eax, DWORD PTR _this$[ebp]
	mov	ecx, DWORD PTR [eax+28]
	sub	ecx, 1
	mov	DWORD PTR tv70[ebp], ecx
	mov	edx, DWORD PTR _this$[ebp]
	mov	eax, DWORD PTR tv70[ebp]
	mov	DWORD PTR [edx+28], eax
	cmp	DWORD PTR tv70[ebp], 0
	je	SHORT $LN1@Release
	mov	ecx, DWORD PTR _this$[ebp]
	mov	eax, DWORD PTR [ecx+28]
	jmp	SHORT $LN2@Release
$LN1@Release:
	mov	edx, DWORD PTR _this$[ebp]
	mov	DWORD PTR $T67189[ebp], edx
	mov	eax, DWORD PTR $T67189[ebp]
	mov	DWORD PTR $T67188[ebp], eax
	cmp	DWORD PTR $T67188[ebp], 0
	je	SHORT $LN4@Release
	mov	esi, esp
	push	1
	mov	ecx, DWORD PTR $T67188[ebp]
	mov	edx, DWORD PTR [ecx]
	mov	ecx, DWORD PTR $T67188[ebp]
	mov	eax, DWORD PTR [edx+16]
	call	eax
	cmp	esi, esp
	call	__RTC_CheckEsp
	mov	DWORD PTR tv83[ebp], eax
	jmp	SHORT $LN5@Release
$LN4@Release:
	mov	DWORD PTR tv83[ebp], 0
$LN5@Release:
	xor	eax, eax
$LN2@Release:
	pop	esi
	add	esp, 16					; 00000010H
	cmp	ebp, esp
	call	__RTC_CheckEsp
	mov	esp, ebp
	pop	ebp
	ret	4
?Release@CDecoder@NLzma@NCompress@@UAGKXZ ENDP		; NCompress::NLzma::CDecoder::Release
_TEXT	ENDS
PUBLIC	_IsEqualGUID@8
; Function compile flags: /Odtp /RTCsu
;	COMDAT _==@8
_TEXT	SEGMENT
_guidOne$ = 8						; size = 4
_guidOther$ = 12					; size = 4
_==@8	PROC						; COMDAT
; File c:\program files (x86)\microsoft sdks\windows\v7.0a\include\guiddef.h
; Line 193
	push	ebp
	mov	ebp, esp
; Line 194
	mov	eax, DWORD PTR _guidOther$[ebp]
	push	eax
	mov	ecx, DWORD PTR _guidOne$[ebp]
	push	ecx
	call	_IsEqualGUID@8
; Line 195
	cmp	ebp, esp
	call	__RTC_CheckEsp
	pop	ebp
	ret	8
_==@8	ENDP
_TEXT	ENDS
EXTRN	_memcmp:PROC
; Function compile flags: /Odtp /RTCsu
;	COMDAT _IsEqualGUID@8
_TEXT	SEGMENT
_rguid1$ = 8						; size = 4
_rguid2$ = 12						; size = 4
_IsEqualGUID@8 PROC					; COMDAT
; Line 160
	push	ebp
	mov	ebp, esp
; Line 161
	push	16					; 00000010H
	mov	eax, DWORD PTR _rguid2$[ebp]
	push	eax
	mov	ecx, DWORD PTR _rguid1$[ebp]
	push	ecx
	call	_memcmp
	add	esp, 12					; 0000000cH
	neg	eax
	sbb	eax, eax
	add	eax, 1
; Line 162
	cmp	ebp, esp
	call	__RTC_CheckEsp
	pop	ebp
	ret	8
_IsEqualGUID@8 ENDP
_TEXT	ENDS
PUBLIC	??1CDecoder@NLzma@NCompress@@UAE@XZ		; NCompress::NLzma::CDecoder::~CDecoder
EXTRN	??3@YAXPAX@Z:PROC				; operator delete
; Function compile flags: /Odtp /RTCsu
;	COMDAT ??_GCDecoder@NLzma@NCompress@@UAEPAXI@Z
_TEXT	SEGMENT
_this$ = -4						; size = 4
___flags$ = 8						; size = 4
??_GCDecoder@NLzma@NCompress@@UAEPAXI@Z PROC		; NCompress::NLzma::CDecoder::`scalar deleting destructor', COMDAT
; _this$ = ecx
	push	ebp
	mov	ebp, esp
	push	ecx
	mov	DWORD PTR [ebp-4], -858993460		; ccccccccH
	mov	DWORD PTR _this$[ebp], ecx
	mov	ecx, DWORD PTR _this$[ebp]
	call	??1CDecoder@NLzma@NCompress@@UAE@XZ	; NCompress::NLzma::CDecoder::~CDecoder
	mov	eax, DWORD PTR ___flags$[ebp]
	and	eax, 1
	je	SHORT $LN1@scalar
	mov	ecx, DWORD PTR _this$[ebp]
	push	ecx
	call	??3@YAXPAX@Z				; operator delete
	add	esp, 4
$LN1@scalar:
	mov	eax, DWORD PTR _this$[ebp]
	add	esp, 4
	cmp	ebp, esp
	call	__RTC_CheckEsp
	mov	esp, ebp
	pop	ebp
	ret	4
??_GCDecoder@NLzma@NCompress@@UAEPAXI@Z ENDP		; NCompress::NLzma::CDecoder::`scalar deleting destructor'
_TEXT	ENDS
PUBLIC	??_7ICompressCoder@@6B@				; ICompressCoder::`vftable'
PUBLIC	??0IUnknown@@QAE@XZ				; IUnknown::IUnknown
PUBLIC	??_R4ICompressCoder@@6B@			; ICompressCoder::`RTTI Complete Object Locator'
EXTRN	__purecall:PROC
;	COMDAT ??_R4ICompressCoder@@6B@
rdata$r	SEGMENT
??_R4ICompressCoder@@6B@ DD 00H				; ICompressCoder::`RTTI Complete Object Locator'
	DD	00H
	DD	00H
	DD	FLAT:??_R0?AUICompressCoder@@@8
	DD	FLAT:??_R3ICompressCoder@@8
rdata$r	ENDS
;	COMDAT ??_7ICompressCoder@@6B@
CONST	SEGMENT
??_7ICompressCoder@@6B@ DD FLAT:??_R4ICompressCoder@@6B@ ; ICompressCoder::`vftable'
	DD	FLAT:__purecall
	DD	FLAT:__purecall
	DD	FLAT:__purecall
	DD	FLAT:__purecall
; Function compile flags: /Odtp /RTCsu
CONST	ENDS
;	COMDAT ??0ICompressCoder@@QAE@XZ
_TEXT	SEGMENT
_this$ = -4						; size = 4
??0ICompressCoder@@QAE@XZ PROC				; ICompressCoder::ICompressCoder, COMDAT
; _this$ = ecx
	push	ebp
	mov	ebp, esp
	push	ecx
	mov	DWORD PTR [ebp-4], -858993460		; ccccccccH
	mov	DWORD PTR _this$[ebp], ecx
	mov	ecx, DWORD PTR _this$[ebp]
	call	??0IUnknown@@QAE@XZ
	mov	eax, DWORD PTR _this$[ebp]
	mov	DWORD PTR [eax], OFFSET ??_7ICompressCoder@@6B@
	mov	eax, DWORD PTR _this$[ebp]
	add	esp, 4
	cmp	ebp, esp
	call	__RTC_CheckEsp
	mov	esp, ebp
	pop	ebp
	ret	0
??0ICompressCoder@@QAE@XZ ENDP				; ICompressCoder::ICompressCoder
_TEXT	ENDS
PUBLIC	??_7ICompressSetDecoderProperties2@@6B@		; ICompressSetDecoderProperties2::`vftable'
PUBLIC	??_R4ICompressSetDecoderProperties2@@6B@	; ICompressSetDecoderProperties2::`RTTI Complete Object Locator'
;	COMDAT ??_R4ICompressSetDecoderProperties2@@6B@
rdata$r	SEGMENT
??_R4ICompressSetDecoderProperties2@@6B@ DD 00H		; ICompressSetDecoderProperties2::`RTTI Complete Object Locator'
	DD	00H
	DD	00H
	DD	FLAT:??_R0?AUICompressSetDecoderProperties2@@@8
	DD	FLAT:??_R3ICompressSetDecoderProperties2@@8
rdata$r	ENDS
;	COMDAT ??_7ICompressSetDecoderProperties2@@6B@
CONST	SEGMENT
??_7ICompressSetDecoderProperties2@@6B@ DD FLAT:??_R4ICompressSetDecoderProperties2@@6B@ ; ICompressSetDecoderProperties2::`vftable'
	DD	FLAT:__purecall
	DD	FLAT:__purecall
	DD	FLAT:__purecall
	DD	FLAT:__purecall
; Function compile flags: /Odtp /RTCsu
CONST	ENDS
;	COMDAT ??0ICompressSetDecoderProperties2@@QAE@XZ
_TEXT	SEGMENT
_this$ = -4						; size = 4
??0ICompressSetDecoderProperties2@@QAE@XZ PROC		; ICompressSetDecoderProperties2::ICompressSetDecoderProperties2, COMDAT
; _this$ = ecx
	push	ebp
	mov	ebp, esp
	push	ecx
	mov	DWORD PTR [ebp-4], -858993460		; ccccccccH
	mov	DWORD PTR _this$[ebp], ecx
	mov	ecx, DWORD PTR _this$[ebp]
	call	??0IUnknown@@QAE@XZ
	mov	eax, DWORD PTR _this$[ebp]
	mov	DWORD PTR [eax], OFFSET ??_7ICompressSetDecoderProperties2@@6B@
	mov	eax, DWORD PTR _this$[ebp]
	add	esp, 4
	cmp	ebp, esp
	call	__RTC_CheckEsp
	mov	esp, ebp
	pop	ebp
	ret	0
??0ICompressSetDecoderProperties2@@QAE@XZ ENDP		; ICompressSetDecoderProperties2::ICompressSetDecoderProperties2
_TEXT	ENDS
PUBLIC	??_7ICompressSetFinishMode@@6B@			; ICompressSetFinishMode::`vftable'
PUBLIC	??_R4ICompressSetFinishMode@@6B@		; ICompressSetFinishMode::`RTTI Complete Object Locator'
;	COMDAT ??_R4ICompressSetFinishMode@@6B@
rdata$r	SEGMENT
??_R4ICompressSetFinishMode@@6B@ DD 00H			; ICompressSetFinishMode::`RTTI Complete Object Locator'
	DD	00H
	DD	00H
	DD	FLAT:??_R0?AUICompressSetFinishMode@@@8
	DD	FLAT:??_R3ICompressSetFinishMode@@8
rdata$r	ENDS
;	COMDAT ??_7ICompressSetFinishMode@@6B@
CONST	SEGMENT
??_7ICompressSetFinishMode@@6B@ DD FLAT:??_R4ICompressSetFinishMode@@6B@ ; ICompressSetFinishMode::`vftable'
	DD	FLAT:__purecall
	DD	FLAT:__purecall
	DD	FLAT:__purecall
	DD	FLAT:__purecall
; Function compile flags: /Odtp /RTCsu
CONST	ENDS
;	COMDAT ??0ICompressSetFinishMode@@QAE@XZ
_TEXT	SEGMENT
_this$ = -4						; size = 4
??0ICompressSetFinishMode@@QAE@XZ PROC			; ICompressSetFinishMode::ICompressSetFinishMode, COMDAT
; _this$ = ecx
	push	ebp
	mov	ebp, esp
	push	ecx
	mov	DWORD PTR [ebp-4], -858993460		; ccccccccH
	mov	DWORD PTR _this$[ebp], ecx
	mov	ecx, DWORD PTR _this$[ebp]
	call	??0IUnknown@@QAE@XZ
	mov	eax, DWORD PTR _this$[ebp]
	mov	DWORD PTR [eax], OFFSET ??_7ICompressSetFinishMode@@6B@
	mov	eax, DWORD PTR _this$[ebp]
	add	esp, 4
	cmp	ebp, esp
	call	__RTC_CheckEsp
	mov	esp, ebp
	pop	ebp
	ret	0
??0ICompressSetFinishMode@@QAE@XZ ENDP			; ICompressSetFinishMode::ICompressSetFinishMode
_TEXT	ENDS
PUBLIC	??_7ICompressSetBufSize@@6B@			; ICompressSetBufSize::`vftable'
PUBLIC	??_R4ICompressSetBufSize@@6B@			; ICompressSetBufSize::`RTTI Complete Object Locator'
;	COMDAT ??_R4ICompressSetBufSize@@6B@
rdata$r	SEGMENT
??_R4ICompressSetBufSize@@6B@ DD 00H			; ICompressSetBufSize::`RTTI Complete Object Locator'
	DD	00H
	DD	00H
	DD	FLAT:??_R0?AUICompressSetBufSize@@@8
	DD	FLAT:??_R3ICompressSetBufSize@@8
rdata$r	ENDS
;	COMDAT ??_7ICompressSetBufSize@@6B@
CONST	SEGMENT
??_7ICompressSetBufSize@@6B@ DD FLAT:??_R4ICompressSetBufSize@@6B@ ; ICompressSetBufSize::`vftable'
	DD	FLAT:__purecall
	DD	FLAT:__purecall
	DD	FLAT:__purecall
	DD	FLAT:__purecall
	DD	FLAT:__purecall
; Function compile flags: /Odtp /RTCsu
CONST	ENDS
;	COMDAT ??0ICompressSetBufSize@@QAE@XZ
_TEXT	SEGMENT
_this$ = -4						; size = 4
??0ICompressSetBufSize@@QAE@XZ PROC			; ICompressSetBufSize::ICompressSetBufSize, COMDAT
; _this$ = ecx
	push	ebp
	mov	ebp, esp
	push	ecx
	mov	DWORD PTR [ebp-4], -858993460		; ccccccccH
	mov	DWORD PTR _this$[ebp], ecx
	mov	ecx, DWORD PTR _this$[ebp]
	call	??0IUnknown@@QAE@XZ
	mov	eax, DWORD PTR _this$[ebp]
	mov	DWORD PTR [eax], OFFSET ??_7ICompressSetBufSize@@6B@
	mov	eax, DWORD PTR _this$[ebp]
	add	esp, 4
	cmp	ebp, esp
	call	__RTC_CheckEsp
	mov	esp, ebp
	pop	ebp
	ret	0
??0ICompressSetBufSize@@QAE@XZ ENDP			; ICompressSetBufSize::ICompressSetBufSize
_TEXT	ENDS
PUBLIC	??_7ICompressSetInStream@@6B@			; ICompressSetInStream::`vftable'
PUBLIC	??_R4ICompressSetInStream@@6B@			; ICompressSetInStream::`RTTI Complete Object Locator'
;	COMDAT ??_R4ICompressSetInStream@@6B@
rdata$r	SEGMENT
??_R4ICompressSetInStream@@6B@ DD 00H			; ICompressSetInStream::`RTTI Complete Object Locator'
	DD	00H
	DD	00H
	DD	FLAT:??_R0?AUICompressSetInStream@@@8
	DD	FLAT:??_R3ICompressSetInStream@@8
rdata$r	ENDS
;	COMDAT ??_7ICompressSetInStream@@6B@
CONST	SEGMENT
??_7ICompressSetInStream@@6B@ DD FLAT:??_R4ICompressSetInStream@@6B@ ; ICompressSetInStream::`vftable'
	DD	FLAT:__purecall
	DD	FLAT:__purecall
	DD	FLAT:__purecall
	DD	FLAT:__purecall
	DD	FLAT:__purecall
; Function compile flags: /Odtp /RTCsu
CONST	ENDS
;	COMDAT ??0ICompressSetInStream@@QAE@XZ
_TEXT	SEGMENT
_this$ = -4						; size = 4
??0ICompressSetInStream@@QAE@XZ PROC			; ICompressSetInStream::ICompressSetInStream, COMDAT
; _this$ = ecx
	push	ebp
	mov	ebp, esp
	push	ecx
	mov	DWORD PTR [ebp-4], -858993460		; ccccccccH
	mov	DWORD PTR _this$[ebp], ecx
	mov	ecx, DWORD PTR _this$[ebp]
	call	??0IUnknown@@QAE@XZ
	mov	eax, DWORD PTR _this$[ebp]
	mov	DWORD PTR [eax], OFFSET ??_7ICompressSetInStream@@6B@
	mov	eax, DWORD PTR _this$[ebp]
	add	esp, 4
	cmp	ebp, esp
	call	__RTC_CheckEsp
	mov	esp, ebp
	pop	ebp
	ret	0
??0ICompressSetInStream@@QAE@XZ ENDP			; ICompressSetInStream::ICompressSetInStream
_TEXT	ENDS
PUBLIC	??_7ICompressSetOutStreamSize@@6B@		; ICompressSetOutStreamSize::`vftable'
PUBLIC	??_R4ICompressSetOutStreamSize@@6B@		; ICompressSetOutStreamSize::`RTTI Complete Object Locator'
;	COMDAT ??_R4ICompressSetOutStreamSize@@6B@
rdata$r	SEGMENT
??_R4ICompressSetOutStreamSize@@6B@ DD 00H		; ICompressSetOutStreamSize::`RTTI Complete Object Locator'
	DD	00H
	DD	00H
	DD	FLAT:??_R0?AUICompressSetOutStreamSize@@@8
	DD	FLAT:??_R3ICompressSetOutStreamSize@@8
rdata$r	ENDS
;	COMDAT ??_7ICompressSetOutStreamSize@@6B@
CONST	SEGMENT
??_7ICompressSetOutStreamSize@@6B@ DD FLAT:??_R4ICompressSetOutStreamSize@@6B@ ; ICompressSetOutStreamSize::`vftable'
	DD	FLAT:__purecall
	DD	FLAT:__purecall
	DD	FLAT:__purecall
	DD	FLAT:__purecall
; Function compile flags: /Odtp /RTCsu
CONST	ENDS
;	COMDAT ??0ICompressSetOutStreamSize@@QAE@XZ
_TEXT	SEGMENT
_this$ = -4						; size = 4
??0ICompressSetOutStreamSize@@QAE@XZ PROC		; ICompressSetOutStreamSize::ICompressSetOutStreamSize, COMDAT
; _this$ = ecx
	push	ebp
	mov	ebp, esp
	push	ecx
	mov	DWORD PTR [ebp-4], -858993460		; ccccccccH
	mov	DWORD PTR _this$[ebp], ecx
	mov	ecx, DWORD PTR _this$[ebp]
	call	??0IUnknown@@QAE@XZ
	mov	eax, DWORD PTR _this$[ebp]
	mov	DWORD PTR [eax], OFFSET ??_7ICompressSetOutStreamSize@@6B@
	mov	eax, DWORD PTR _this$[ebp]
	add	esp, 4
	cmp	ebp, esp
	call	__RTC_CheckEsp
	mov	esp, ebp
	pop	ebp
	ret	0
??0ICompressSetOutStreamSize@@QAE@XZ ENDP		; ICompressSetOutStreamSize::ICompressSetOutStreamSize
_TEXT	ENDS
PUBLIC	??_7ISequentialInStream@@6B@			; ISequentialInStream::`vftable'
PUBLIC	??_R4ISequentialInStream@@6B@			; ISequentialInStream::`RTTI Complete Object Locator'
;	COMDAT ??_R4ISequentialInStream@@6B@
rdata$r	SEGMENT
??_R4ISequentialInStream@@6B@ DD 00H			; ISequentialInStream::`RTTI Complete Object Locator'
	DD	00H
	DD	00H
	DD	FLAT:??_R0?AUISequentialInStream@@@8
	DD	FLAT:??_R3ISequentialInStream@@8
rdata$r	ENDS
;	COMDAT ??_7ISequentialInStream@@6B@
CONST	SEGMENT
??_7ISequentialInStream@@6B@ DD FLAT:??_R4ISequentialInStream@@6B@ ; ISequentialInStream::`vftable'
	DD	FLAT:__purecall
	DD	FLAT:__purecall
	DD	FLAT:__purecall
	DD	FLAT:__purecall
; Function compile flags: /Odtp /RTCsu
CONST	ENDS
;	COMDAT ??0ISequentialInStream@@QAE@XZ
_TEXT	SEGMENT
_this$ = -4						; size = 4
??0ISequentialInStream@@QAE@XZ PROC			; ISequentialInStream::ISequentialInStream, COMDAT
; _this$ = ecx
	push	ebp
	mov	ebp, esp
	push	ecx
	mov	DWORD PTR [ebp-4], -858993460		; ccccccccH
	mov	DWORD PTR _this$[ebp], ecx
	mov	ecx, DWORD PTR _this$[ebp]
	call	??0IUnknown@@QAE@XZ
	mov	eax, DWORD PTR _this$[ebp]
	mov	DWORD PTR [eax], OFFSET ??_7ISequentialInStream@@6B@
	mov	eax, DWORD PTR _this$[ebp]
	add	esp, 4
	cmp	ebp, esp
	call	__RTC_CheckEsp
	mov	esp, ebp
	pop	ebp
	ret	0
??0ISequentialInStream@@QAE@XZ ENDP			; ISequentialInStream::ISequentialInStream
; Function compile flags: /Odtp /RTCsu
_TEXT	ENDS
;	COMDAT ??0IUnknown@@QAE@XZ
_TEXT	SEGMENT
_this$ = -4						; size = 4
??0IUnknown@@QAE@XZ PROC				; IUnknown::IUnknown, COMDAT
; _this$ = ecx
	push	ebp
	mov	ebp, esp
	push	ecx
	mov	DWORD PTR [ebp-4], -858993460		; ccccccccH
	mov	DWORD PTR _this$[ebp], ecx
	mov	eax, DWORD PTR _this$[ebp]
	mov	esp, ebp
	pop	ebp
	ret	0
??0IUnknown@@QAE@XZ ENDP				; IUnknown::IUnknown
_TEXT	ENDS
PUBLIC	??1?$CMyComPtr@UISequentialInStream@@@@QAE@XZ	; CMyComPtr<ISequentialInStream>::~CMyComPtr<ISequentialInStream>
EXTRN	_MyFree@4:PROC
EXTRN	_LzmaDec_Free@8:PROC
EXTRN	_g_Alloc:QWORD
; Function compile flags: /Odtp /RTCsu
_TEXT	SEGMENT
_this$ = -4						; size = 4
??1CDecoder@NLzma@NCompress@@UAE@XZ PROC		; NCompress::NLzma::CDecoder::~CDecoder
; _this$ = ecx
; File c:\workspace\7z1505-src\cpp\7zip\compress\lzmadecoder.cpp
; Line 39
	push	ebp
	mov	ebp, esp
	push	ecx
	mov	DWORD PTR [ebp-4], -858993460		; ccccccccH
	mov	DWORD PTR _this$[ebp], ecx
	mov	eax, DWORD PTR _this$[ebp]
	mov	DWORD PTR [eax], OFFSET ??_7CDecoder@NLzma@NCompress@@6BICompressCoder@@@
	mov	ecx, DWORD PTR _this$[ebp]
	mov	DWORD PTR [ecx+4], OFFSET ??_7CDecoder@NLzma@NCompress@@6BICompressSetDecoderProperties2@@@
	mov	edx, DWORD PTR _this$[ebp]
	mov	DWORD PTR [edx+8], OFFSET ??_7CDecoder@NLzma@NCompress@@6BICompressSetFinishMode@@@
	mov	eax, DWORD PTR _this$[ebp]
	mov	DWORD PTR [eax+12], OFFSET ??_7CDecoder@NLzma@NCompress@@6BICompressSetBufSize@@@
	mov	ecx, DWORD PTR _this$[ebp]
	mov	DWORD PTR [ecx+16], OFFSET ??_7CDecoder@NLzma@NCompress@@6BICompressSetInStream@@@
	mov	edx, DWORD PTR _this$[ebp]
	mov	DWORD PTR [edx+20], OFFSET ??_7CDecoder@NLzma@NCompress@@6BICompressSetOutStreamSize@@@
	mov	eax, DWORD PTR _this$[ebp]
	mov	DWORD PTR [eax+24], OFFSET ??_7CDecoder@NLzma@NCompress@@6BISequentialInStream@@@
; Line 40
	push	OFFSET _g_Alloc
	mov	ecx, DWORD PTR _this$[ebp]
	add	ecx, 48					; 00000030H
	push	ecx
	call	_LzmaDec_Free@8
; Line 41
	mov	edx, DWORD PTR _this$[ebp]
	mov	eax, DWORD PTR [edx+36]
	push	eax
	call	_MyFree@4
; Line 42
	mov	ecx, DWORD PTR _this$[ebp]
	add	ecx, 32					; 00000020H
	call	??1?$CMyComPtr@UISequentialInStream@@@@QAE@XZ ; CMyComPtr<ISequentialInStream>::~CMyComPtr<ISequentialInStream>
	add	esp, 4
	cmp	ebp, esp
	call	__RTC_CheckEsp
	mov	esp, ebp
	pop	ebp
	ret	0
??1CDecoder@NLzma@NCompress@@UAE@XZ ENDP		; NCompress::NLzma::CDecoder::~CDecoder
; Function compile flags: /Odtp /RTCsu
_this$ = 8						; size = 4
___formal$ = 12						; size = 4
_size$ = 16						; size = 4
?SetInBufSize@CDecoder@NLzma@NCompress@@UAGJII@Z PROC	; NCompress::NLzma::CDecoder::SetInBufSize
; Line 44
	push	ebp
	mov	ebp, esp
	mov	eax, DWORD PTR _this$[ebp]
	mov	ecx, DWORD PTR _size$[ebp]
	mov	DWORD PTR [eax+184], ecx
	xor	eax, eax
	pop	ebp
	ret	12					; 0000000cH
?SetInBufSize@CDecoder@NLzma@NCompress@@UAGJII@Z ENDP	; NCompress::NLzma::CDecoder::SetInBufSize
; Function compile flags: /Odtp /RTCsu
_this$ = 8						; size = 4
___formal$ = 12						; size = 4
_size$ = 16						; size = 4
?SetOutBufSize@CDecoder@NLzma@NCompress@@UAGJII@Z PROC	; NCompress::NLzma::CDecoder::SetOutBufSize
; Line 45
	push	ebp
	mov	ebp, esp
	mov	eax, DWORD PTR _this$[ebp]
	mov	ecx, DWORD PTR _size$[ebp]
	mov	DWORD PTR [eax+188], ecx
	xor	eax, eax
	pop	ebp
	ret	12					; 0000000cH
?SetOutBufSize@CDecoder@NLzma@NCompress@@UAGJII@Z ENDP	; NCompress::NLzma::CDecoder::SetOutBufSize
_TEXT	ENDS
PUBLIC	?CreateInputBuffer@CDecoder@NLzma@NCompress@@AAEJXZ ; NCompress::NLzma::CDecoder::CreateInputBuffer
EXTRN	_MyAlloc@4:PROC
; Function compile flags: /Odtp /RTCsu
_TEXT	SEGMENT
_this$ = -4						; size = 4
?CreateInputBuffer@CDecoder@NLzma@NCompress@@AAEJXZ PROC ; NCompress::NLzma::CDecoder::CreateInputBuffer
; _this$ = ecx
; Line 48
	push	ebp
	mov	ebp, esp
	push	ecx
	mov	DWORD PTR [ebp-4], -858993460		; ccccccccH
	mov	DWORD PTR _this$[ebp], ecx
; Line 49
	mov	eax, DWORD PTR _this$[ebp]
	cmp	DWORD PTR [eax+36], 0
	je	SHORT $LN2@CreateInpu
	mov	ecx, DWORD PTR _this$[ebp]
	mov	edx, DWORD PTR _this$[ebp]
	mov	eax, DWORD PTR [ecx+196]
	cmp	eax, DWORD PTR [edx+192]
	je	SHORT $LN3@CreateInpu
$LN2@CreateInpu:
; Line 51
	mov	ecx, DWORD PTR _this$[ebp]
	mov	edx, DWORD PTR [ecx+36]
	push	edx
	call	_MyFree@4
; Line 52
	mov	eax, DWORD PTR _this$[ebp]
	mov	ecx, DWORD PTR [eax+196]
	push	ecx
	call	_MyAlloc@4
	mov	edx, DWORD PTR _this$[ebp]
	mov	DWORD PTR [edx+36], eax
; Line 53
	mov	eax, DWORD PTR _this$[ebp]
	cmp	DWORD PTR [eax+36], 0
	jne	SHORT $LN1@CreateInpu
; Line 54
	mov	eax, -2147024882			; 8007000eH
	jmp	SHORT $LN4@CreateInpu
$LN1@CreateInpu:
; Line 55
	mov	ecx, DWORD PTR _this$[ebp]
	mov	edx, DWORD PTR _this$[ebp]
	mov	eax, DWORD PTR [edx+196]
	mov	DWORD PTR [ecx+192], eax
$LN3@CreateInpu:
; Line 57
	xor	eax, eax
$LN4@CreateInpu:
; Line 58
	add	esp, 4
	cmp	ebp, esp
	call	__RTC_CheckEsp
	mov	esp, ebp
	pop	ebp
	ret	0
?CreateInputBuffer@CDecoder@NLzma@NCompress@@AAEJXZ ENDP ; NCompress::NLzma::CDecoder::CreateInputBuffer
_TEXT	ENDS
EXTRN	_LzmaDec_Allocate@16:PROC
; Function compile flags: /Odtp /RTCsu
_TEXT	SEGMENT
___result__$66774 = -4					; size = 4
_this$ = 8						; size = 4
_prop$ = 12						; size = 4
_size$ = 16						; size = 4
?SetDecoderProperties2@CDecoder@NLzma@NCompress@@UAGJPBEI@Z PROC ; NCompress::NLzma::CDecoder::SetDecoderProperties2
; Line 61
	push	ebp
	mov	ebp, esp
	push	ecx
	mov	DWORD PTR [ebp-4], -858993460		; ccccccccH
; Line 62
	push	OFFSET _g_Alloc
	mov	eax, DWORD PTR _size$[ebp]
	push	eax
	mov	ecx, DWORD PTR _prop$[ebp]
	push	ecx
	mov	edx, DWORD PTR _this$[ebp]
	add	edx, 44					; 0000002cH
	push	edx
	call	_LzmaDec_Allocate@16
	push	eax
	call	?SResToHRESULT@@YGJH@Z			; SResToHRESULT
	mov	DWORD PTR ___result__$66774[ebp], eax
	cmp	DWORD PTR ___result__$66774[ebp], 0
	je	SHORT $LN1@SetDecoder
	mov	eax, DWORD PTR ___result__$66774[ebp]
	jmp	SHORT $LN2@SetDecoder
$LN1@SetDecoder:
; Line 63
	mov	eax, DWORD PTR _this$[ebp]
	mov	BYTE PTR [eax+156], 1
; Line 64
	mov	ecx, DWORD PTR _this$[ebp]
	sub	ecx, 4
	call	?CreateInputBuffer@CDecoder@NLzma@NCompress@@AAEJXZ ; NCompress::NLzma::CDecoder::CreateInputBuffer
$LN2@SetDecoder:
; Line 65
	add	esp, 4
	cmp	ebp, esp
	call	__RTC_CheckEsp
	mov	esp, ebp
	pop	ebp
	ret	12					; 0000000cH
?SetDecoderProperties2@CDecoder@NLzma@NCompress@@UAGJPBEI@Z ENDP ; NCompress::NLzma::CDecoder::SetDecoderProperties2
; Function compile flags: /Odtp /RTCsu
tv64 = -4						; size = 4
_res$ = 8						; size = 4
?SResToHRESULT@@YGJH@Z PROC				; SResToHRESULT
; Line 12
	push	ebp
	mov	ebp, esp
	push	ecx
	mov	DWORD PTR [ebp-4], -858993460		; ccccccccH
; Line 13
	mov	eax, DWORD PTR _res$[ebp]
	mov	DWORD PTR tv64[ebp], eax
	cmp	DWORD PTR tv64[ebp], 5
	ja	SHORT $LN6@SResToHRES
	mov	ecx, DWORD PTR tv64[ebp]
	jmp	DWORD PTR $LN10@SResToHRES[ecx*4]
$LN5@SResToHRES:
; Line 15
	xor	eax, eax
	jmp	SHORT $LN8@SResToHRES
$LN4@SResToHRES:
; Line 16
	mov	eax, -2147024882			; 8007000eH
	jmp	SHORT $LN8@SResToHRES
$LN3@SResToHRES:
; Line 17
	mov	eax, -2147024809			; 80070057H
	jmp	SHORT $LN8@SResToHRES
$LN2@SResToHRES:
; Line 18
	mov	eax, -2147467263			; 80004001H
	jmp	SHORT $LN8@SResToHRES
$LN1@SResToHRES:
; Line 19
	mov	eax, 1
	jmp	SHORT $LN8@SResToHRES
$LN6@SResToHRES:
; Line 21
	mov	eax, -2147467259			; 80004005H
$LN8@SResToHRES:
; Line 22
	mov	esp, ebp
	pop	ebp
	ret	4
$LN10@SResToHRES:
	DD	$LN5@SResToHRES
	DD	$LN1@SResToHRES
	DD	$LN4@SResToHRES
	DD	$LN6@SResToHRES
	DD	$LN2@SResToHRES
	DD	$LN3@SResToHRES
?SResToHRESULT@@YGJH@Z ENDP				; SResToHRESULT
_TEXT	ENDS
PUBLIC	?SetOutStreamSizeResume@CDecoder@NLzma@NCompress@@AAEXPB_K@Z ; NCompress::NLzma::CDecoder::SetOutStreamSizeResume
EXTRN	_LzmaDec_Init@4:PROC
; Function compile flags: /Odtp /RTCsu
_TEXT	SEGMENT
_this$ = -4						; size = 4
_outSize$ = 8						; size = 4
?SetOutStreamSizeResume@CDecoder@NLzma@NCompress@@AAEXPB_K@Z PROC ; NCompress::NLzma::CDecoder::SetOutStreamSizeResume
; _this$ = ecx
; Line 68
	push	ebp
	mov	ebp, esp
	push	ecx
	mov	DWORD PTR [ebp-4], -858993460		; ccccccccH
	mov	DWORD PTR _this$[ebp], ecx
; Line 69
	xor	eax, eax
	cmp	DWORD PTR _outSize$[ebp], 0
	setne	al
	mov	ecx, DWORD PTR _this$[ebp]
	mov	BYTE PTR [ecx+161], al
; Line 70
	mov	edx, DWORD PTR _this$[ebp]
	movzx	eax, BYTE PTR [edx+161]
	test	eax, eax
	je	SHORT $LN1@SetOutStre
; Line 71
	mov	ecx, DWORD PTR _this$[ebp]
	mov	edx, DWORD PTR _outSize$[ebp]
	mov	eax, DWORD PTR [edx]
	mov	DWORD PTR [ecx+168], eax
	mov	edx, DWORD PTR [edx+4]
	mov	DWORD PTR [ecx+172], edx
$LN1@SetOutStre:
; Line 72
	mov	eax, DWORD PTR _this$[ebp]
	mov	DWORD PTR [eax+184], 0
	mov	DWORD PTR [eax+188], 0
; Line 73
	mov	ecx, DWORD PTR _this$[ebp]
	mov	DWORD PTR [ecx+204], 0
; Line 74
	mov	edx, DWORD PTR _this$[ebp]
	add	edx, 48					; 00000030H
	push	edx
	call	_LzmaDec_Init@4
; Line 75
	add	esp, 4
	cmp	ebp, esp
	call	__RTC_CheckEsp
	mov	esp, ebp
	pop	ebp
	ret	4
?SetOutStreamSizeResume@CDecoder@NLzma@NCompress@@AAEXPB_K@Z ENDP ; NCompress::NLzma::CDecoder::SetOutStreamSizeResume
; Function compile flags: /Odtp /RTCsu
_this$ = 8						; size = 4
_outSize$ = 12						; size = 4
?SetOutStreamSize@CDecoder@NLzma@NCompress@@UAGJPB_K@Z PROC ; NCompress::NLzma::CDecoder::SetOutStreamSize
; Line 78
	push	ebp
	mov	ebp, esp
; Line 79
	mov	eax, DWORD PTR _this$[ebp]
	mov	DWORD PTR [eax+156], 0
	mov	DWORD PTR [eax+160], 0
; Line 80
	mov	ecx, DWORD PTR _this$[ebp]
	mov	DWORD PTR [ecx+24], 0
	mov	edx, DWORD PTR _this$[ebp]
	mov	DWORD PTR [edx+20], 0
; Line 81
	mov	eax, DWORD PTR _this$[ebp]
	mov	BYTE PTR [eax+189], 0
; Line 82
	mov	ecx, DWORD PTR _outSize$[ebp]
	push	ecx
	mov	ecx, DWORD PTR _this$[ebp]
	sub	ecx, 20					; 00000014H
	call	?SetOutStreamSizeResume@CDecoder@NLzma@NCompress@@AAEXPB_K@Z ; NCompress::NLzma::CDecoder::SetOutStreamSizeResume
; Line 83
	xor	eax, eax
; Line 84
	cmp	ebp, esp
	call	__RTC_CheckEsp
	pop	ebp
	ret	8
?SetOutStreamSize@CDecoder@NLzma@NCompress@@UAGJPB_K@Z ENDP ; NCompress::NLzma::CDecoder::SetOutStreamSize
; Function compile flags: /Odtp /RTCsu
_this$ = 8						; size = 4
_finishMode$ = 12					; size = 4
?SetFinishMode@CDecoder@NLzma@NCompress@@UAGJI@Z PROC	; NCompress::NLzma::CDecoder::SetFinishMode
; Line 87
	push	ebp
	mov	ebp, esp
; Line 88
	xor	eax, eax
	cmp	DWORD PTR _finishMode$[ebp], 0
	setne	al
	mov	ecx, DWORD PTR _this$[ebp]
	mov	BYTE PTR [ecx+200], al
; Line 89
	xor	eax, eax
; Line 90
	pop	ebp
	ret	8
?SetFinishMode@CDecoder@NLzma@NCompress@@UAGJI@Z ENDP	; NCompress::NLzma::CDecoder::SetFinishMode
_TEXT	ENDS
PUBLIC	?CodeSpec@CDecoder@NLzma@NCompress@@AAEJPAUISequentialInStream@@PAUISequentialOutStream@@PAUICompressProgressInfo@@@Z ; NCompress::NLzma::CDecoder::CodeSpec
EXTRN	?WriteStream@@YGJPAUISequentialOutStream@@PBXI@Z:PROC ; WriteStream
EXTRN	_LzmaDec_DecodeToDic@24:PROC
EXTRN	@_RTC_CheckStackVars@8:PROC
; Function compile flags: /Odtp /RTCsu
_TEXT	SEGMENT
tv232 = -136						; size = 4
tv186 = -132						; size = 4
tv366 = -128						; size = 4
tv365 = -124						; size = 4
tv178 = -120						; size = 4
tv320 = -116						; size = 8
tv83 = -108						; size = 4
___result__$66842 = -104				; size = 4
_inSize$66841 = -96					; size = 8
___result__$66829 = -84					; size = 4
_res2$66825 = -80					; size = 4
_stopDecoding$66822 = -74				; size = 1
_finished$66821 = -73					; size = 1
_outSizeProcessed$66820 = -72				; size = 4
_res$66818 = -68					; size = 4
_status$66817 = -60					; size = 4
_inSizeProcessed$66816 = -48				; size = 4
_rem$66812 = -40					; size = 8
_finishMode$66810 = -32					; size = 4
_curSize$66809 = -28					; size = 4
_dicPos$66808 = -24					; size = 4
___result__$66806 = -20					; size = 4
_next$ = -16						; size = 4
_startInProgress$ = -12					; size = 8
_this$ = -4						; size = 4
_inStream$ = 8						; size = 4
_outStream$ = 12					; size = 4
_progress$ = 16						; size = 4
?CodeSpec@CDecoder@NLzma@NCompress@@AAEJPAUISequentialInStream@@PAUISequentialOutStream@@PAUICompressProgressInfo@@@Z PROC ; NCompress::NLzma::CDecoder::CodeSpec
; _this$ = ecx
; Line 93
	push	ebp
	mov	ebp, esp
	sub	esp, 136				; 00000088H
	push	esi
	push	edi
	push	ecx
	lea	edi, DWORD PTR [ebp-136]
	mov	ecx, 34					; 00000022H
	mov	eax, -858993460				; ccccccccH
	rep stosd
	pop	ecx
	mov	DWORD PTR _this$[ebp], ecx
; Line 94
	mov	eax, DWORD PTR _this$[ebp]
	cmp	DWORD PTR [eax+36], 0
	je	SHORT $LN20@CodeSpec
	mov	ecx, DWORD PTR _this$[ebp]
	movzx	edx, BYTE PTR [ecx+160]
	test	edx, edx
	jne	SHORT $LN21@CodeSpec
$LN20@CodeSpec:
; Line 95
	mov	eax, 1
	jmp	$LN22@CodeSpec
$LN21@CodeSpec:
; Line 97
	mov	eax, DWORD PTR _this$[ebp]
	mov	ecx, DWORD PTR [eax+176]
	mov	DWORD PTR _startInProgress$[ebp], ecx
	mov	edx, DWORD PTR [eax+180]
	mov	DWORD PTR _startInProgress$[ebp+4], edx
; Line 99
	mov	eax, DWORD PTR _this$[ebp]
	mov	ecx, DWORD PTR _this$[ebp]
	mov	edx, DWORD PTR [eax+88]
	sub	edx, DWORD PTR [ecx+84]
	mov	eax, DWORD PTR _this$[ebp]
	cmp	edx, DWORD PTR [eax+200]
	jae	SHORT $LN24@CodeSpec
	mov	ecx, DWORD PTR _this$[ebp]
	mov	edx, DWORD PTR [ecx+88]
	mov	DWORD PTR tv83[ebp], edx
	jmp	SHORT $LN25@CodeSpec
$LN24@CodeSpec:
	mov	eax, DWORD PTR _this$[ebp]
	mov	ecx, DWORD PTR [eax+84]
	mov	edx, DWORD PTR _this$[ebp]
	add	ecx, DWORD PTR [edx+200]
	mov	DWORD PTR tv83[ebp], ecx
$LN25@CodeSpec:
	mov	eax, DWORD PTR tv83[ebp]
	mov	DWORD PTR _next$[ebp], eax
$LN19@CodeSpec:
; Line 102
	mov	ecx, DWORD PTR _this$[ebp]
	mov	edx, DWORD PTR _this$[ebp]
	mov	eax, DWORD PTR [ecx+40]
	cmp	eax, DWORD PTR [edx+44]
	jne	SHORT $LN17@CodeSpec
; Line 104
	mov	ecx, DWORD PTR _this$[ebp]
	mov	DWORD PTR [ecx+44], 0
	mov	edx, DWORD PTR _this$[ebp]
	mov	DWORD PTR [edx+40], 0
; Line 105
	mov	eax, DWORD PTR _this$[ebp]
	add	eax, 44					; 0000002cH
	mov	esi, esp
	push	eax
	mov	ecx, DWORD PTR _this$[ebp]
	mov	edx, DWORD PTR [ecx+192]
	push	edx
	mov	eax, DWORD PTR _this$[ebp]
	mov	ecx, DWORD PTR [eax+36]
	push	ecx
	mov	edx, DWORD PTR _inStream$[ebp]
	mov	eax, DWORD PTR [edx]
	mov	ecx, DWORD PTR _inStream$[ebp]
	push	ecx
	mov	edx, DWORD PTR [eax+12]
	call	edx
	cmp	esi, esp
	call	__RTC_CheckEsp
	mov	DWORD PTR ___result__$66806[ebp], eax
	cmp	DWORD PTR ___result__$66806[ebp], 0
	je	SHORT $LN17@CodeSpec
	mov	eax, DWORD PTR ___result__$66806[ebp]
	jmp	$LN22@CodeSpec
$LN17@CodeSpec:
; Line 108
	mov	eax, DWORD PTR _this$[ebp]
	mov	ecx, DWORD PTR [eax+84]
	mov	DWORD PTR _dicPos$66808[ebp], ecx
; Line 109
	mov	edx, DWORD PTR _next$[ebp]
	sub	edx, DWORD PTR _dicPos$66808[ebp]
	mov	DWORD PTR _curSize$66809[ebp], edx
; Line 111
	mov	DWORD PTR _finishMode$66810[ebp], 0
; Line 112
	mov	eax, DWORD PTR _this$[ebp]
	movzx	ecx, BYTE PTR [eax+161]
	test	ecx, ecx
	je	SHORT $LN15@CodeSpec
; Line 114
	mov	edx, DWORD PTR _this$[ebp]
	mov	eax, DWORD PTR _this$[ebp]
	mov	ecx, DWORD PTR [edx+168]
	sub	ecx, DWORD PTR [eax+184]
	mov	edx, DWORD PTR [edx+172]
	sbb	edx, DWORD PTR [eax+188]
	mov	DWORD PTR _rem$66812[ebp], ecx
	mov	DWORD PTR _rem$66812[ebp+4], edx
; Line 115
	mov	eax, DWORD PTR _curSize$66809[ebp]
	xor	ecx, ecx
	mov	DWORD PTR tv320[ebp], eax
	mov	DWORD PTR tv320[ebp+4], ecx
	mov	edx, DWORD PTR _rem$66812[ebp+4]
	cmp	edx, DWORD PTR tv320[ebp+4]
	ja	SHORT $LN15@CodeSpec
	jb	SHORT $LN32@CodeSpec
	mov	eax, DWORD PTR _rem$66812[ebp]
	cmp	eax, DWORD PTR tv320[ebp]
	ja	SHORT $LN15@CodeSpec
$LN32@CodeSpec:
; Line 117
	mov	ecx, DWORD PTR _rem$66812[ebp]
	mov	DWORD PTR _curSize$66809[ebp], ecx
; Line 118
	mov	edx, DWORD PTR _this$[ebp]
	movzx	eax, BYTE PTR [edx+208]
	test	eax, eax
	je	SHORT $LN15@CodeSpec
; Line 119
	mov	DWORD PTR _finishMode$66810[ebp], 1
$LN15@CodeSpec:
; Line 123
	mov	ecx, DWORD PTR _this$[ebp]
	mov	edx, DWORD PTR _this$[ebp]
	mov	eax, DWORD PTR [ecx+44]
	sub	eax, DWORD PTR [edx+40]
	mov	DWORD PTR _inSizeProcessed$66816[ebp], eax
; Line 125
	lea	ecx, DWORD PTR _status$66817[ebp]
	push	ecx
	mov	edx, DWORD PTR _finishMode$66810[ebp]
	push	edx
	lea	eax, DWORD PTR _inSizeProcessed$66816[ebp]
	push	eax
	mov	ecx, DWORD PTR _this$[ebp]
	mov	edx, DWORD PTR [ecx+36]
	mov	eax, DWORD PTR _this$[ebp]
	add	edx, DWORD PTR [eax+40]
	push	edx
	mov	ecx, DWORD PTR _dicPos$66808[ebp]
	add	ecx, DWORD PTR _curSize$66809[ebp]
	push	ecx
	mov	edx, DWORD PTR _this$[ebp]
	add	edx, 48					; 00000030H
	push	edx
	call	_LzmaDec_DecodeToDic@24
	mov	DWORD PTR _res$66818[ebp], eax
; Line 127
	mov	eax, DWORD PTR _this$[ebp]
	mov	ecx, DWORD PTR [eax+40]
	add	ecx, DWORD PTR _inSizeProcessed$66816[ebp]
	mov	edx, DWORD PTR _this$[ebp]
	mov	DWORD PTR [edx+40], ecx
; Line 128
	mov	eax, DWORD PTR _inSizeProcessed$66816[ebp]
	xor	ecx, ecx
	mov	edx, DWORD PTR _this$[ebp]
	add	eax, DWORD PTR [edx+176]
	adc	ecx, DWORD PTR [edx+180]
	mov	edx, DWORD PTR _this$[ebp]
	mov	DWORD PTR [edx+176], eax
	mov	DWORD PTR [edx+180], ecx
; Line 129
	mov	eax, DWORD PTR _this$[ebp]
	mov	ecx, DWORD PTR [eax+84]
	sub	ecx, DWORD PTR _dicPos$66808[ebp]
	mov	DWORD PTR _outSizeProcessed$66820[ebp], ecx
; Line 130
	mov	edx, DWORD PTR _outSizeProcessed$66820[ebp]
	xor	eax, eax
	mov	ecx, DWORD PTR _this$[ebp]
	add	edx, DWORD PTR [ecx+184]
	adc	eax, DWORD PTR [ecx+188]
	mov	ecx, DWORD PTR _this$[ebp]
	mov	DWORD PTR [ecx+184], edx
	mov	DWORD PTR [ecx+188], eax
; Line 132
	cmp	DWORD PTR _inSizeProcessed$66816[ebp], 0
	jne	SHORT $LN26@CodeSpec
	cmp	DWORD PTR _outSizeProcessed$66820[ebp], 0
	jne	SHORT $LN26@CodeSpec
	mov	DWORD PTR tv178[ebp], 1
	jmp	SHORT $LN27@CodeSpec
$LN26@CodeSpec:
	mov	DWORD PTR tv178[ebp], 0
$LN27@CodeSpec:
	mov	dl, BYTE PTR tv178[ebp]
	mov	BYTE PTR _finished$66821[ebp], dl
; Line 133
	mov	eax, DWORD PTR _this$[ebp]
	movzx	ecx, BYTE PTR [eax+161]
	test	ecx, ecx
	je	SHORT $LN28@CodeSpec
	mov	edx, DWORD PTR _this$[ebp]
	mov	eax, DWORD PTR _this$[ebp]
	mov	DWORD PTR tv365[ebp], edx
	mov	DWORD PTR tv366[ebp], eax
	mov	ecx, DWORD PTR tv365[ebp]
	mov	edx, DWORD PTR tv366[ebp]
	mov	eax, DWORD PTR [ecx+188]
	cmp	eax, DWORD PTR [edx+172]
	jb	SHORT $LN28@CodeSpec
	ja	SHORT $LN33@CodeSpec
	mov	ecx, DWORD PTR tv365[ebp]
	mov	edx, DWORD PTR tv366[ebp]
	mov	eax, DWORD PTR [ecx+184]
	cmp	eax, DWORD PTR [edx+168]
	jb	SHORT $LN28@CodeSpec
$LN33@CodeSpec:
	mov	DWORD PTR tv186[ebp], 1
	jmp	SHORT $LN29@CodeSpec
$LN28@CodeSpec:
	mov	DWORD PTR tv186[ebp], 0
$LN29@CodeSpec:
	mov	cl, BYTE PTR tv186[ebp]
	mov	BYTE PTR _stopDecoding$66822[ebp], cl
; Line 135
	cmp	DWORD PTR _res$66818[ebp], 0
	jne	SHORT $LN11@CodeSpec
	mov	edx, DWORD PTR _this$[ebp]
	mov	eax, DWORD PTR [edx+84]
	cmp	eax, DWORD PTR _next$[ebp]
	je	SHORT $LN11@CodeSpec
	movzx	ecx, BYTE PTR _finished$66821[ebp]
	test	ecx, ecx
	jne	SHORT $LN11@CodeSpec
	movzx	edx, BYTE PTR _stopDecoding$66822[ebp]
	test	edx, edx
	je	$LN12@CodeSpec
$LN11@CodeSpec:
; Line 137
	mov	eax, DWORD PTR _this$[ebp]
	mov	ecx, DWORD PTR _this$[ebp]
	mov	edx, DWORD PTR [eax+84]
	sub	edx, DWORD PTR [ecx+204]
	push	edx
	mov	eax, DWORD PTR _this$[ebp]
	mov	ecx, DWORD PTR [eax+68]
	mov	edx, DWORD PTR _this$[ebp]
	add	ecx, DWORD PTR [edx+204]
	push	ecx
	mov	eax, DWORD PTR _outStream$[ebp]
	push	eax
	call	?WriteStream@@YGJPAUISequentialOutStream@@PBXI@Z ; WriteStream
	mov	DWORD PTR _res2$66825[ebp], eax
; Line 139
	mov	ecx, DWORD PTR _this$[ebp]
	mov	edx, DWORD PTR _this$[ebp]
	mov	eax, DWORD PTR [edx+84]
	mov	DWORD PTR [ecx+204], eax
; Line 140
	mov	ecx, DWORD PTR _this$[ebp]
	mov	edx, DWORD PTR _this$[ebp]
	mov	eax, DWORD PTR [ecx+84]
	cmp	eax, DWORD PTR [edx+88]
	jne	SHORT $LN10@CodeSpec
; Line 142
	mov	ecx, DWORD PTR _this$[ebp]
	mov	DWORD PTR [ecx+84], 0
; Line 143
	mov	edx, DWORD PTR _this$[ebp]
	mov	DWORD PTR [edx+204], 0
$LN10@CodeSpec:
; Line 145
	mov	eax, DWORD PTR _this$[ebp]
	mov	ecx, DWORD PTR _this$[ebp]
	mov	edx, DWORD PTR [eax+88]
	sub	edx, DWORD PTR [ecx+84]
	mov	eax, DWORD PTR _this$[ebp]
	cmp	edx, DWORD PTR [eax+200]
	jae	SHORT $LN30@CodeSpec
	mov	ecx, DWORD PTR _this$[ebp]
	mov	edx, DWORD PTR [ecx+88]
	mov	DWORD PTR tv232[ebp], edx
	jmp	SHORT $LN31@CodeSpec
$LN30@CodeSpec:
	mov	eax, DWORD PTR _this$[ebp]
	mov	ecx, DWORD PTR [eax+84]
	mov	edx, DWORD PTR _this$[ebp]
	add	ecx, DWORD PTR [edx+200]
	mov	DWORD PTR tv232[ebp], ecx
$LN31@CodeSpec:
	mov	eax, DWORD PTR tv232[ebp]
	mov	DWORD PTR _next$[ebp], eax
; Line 147
	cmp	DWORD PTR _res$66818[ebp], 0
	je	SHORT $LN9@CodeSpec
; Line 148
	mov	eax, 1
	jmp	$LN22@CodeSpec
$LN9@CodeSpec:
; Line 149
	mov	ecx, DWORD PTR _res2$66825[ebp]
	mov	DWORD PTR ___result__$66829[ebp], ecx
	cmp	DWORD PTR ___result__$66829[ebp], 0
	je	SHORT $LN8@CodeSpec
	mov	eax, DWORD PTR ___result__$66829[ebp]
	jmp	$LN22@CodeSpec
$LN8@CodeSpec:
; Line 150
	movzx	edx, BYTE PTR _stopDecoding$66822[ebp]
	test	edx, edx
	je	SHORT $LN7@CodeSpec
; Line 152
	cmp	DWORD PTR _status$66817[ebp], 3
	jne	SHORT $LN6@CodeSpec
; Line 153
	mov	eax, DWORD PTR _this$[ebp]
	mov	BYTE PTR [eax+209], 1
$LN6@CodeSpec:
; Line 156
	mov	ecx, DWORD PTR _this$[ebp]
	movzx	edx, BYTE PTR [ecx+208]
	test	edx, edx
	je	SHORT $LN5@CodeSpec
	cmp	DWORD PTR _status$66817[ebp], 1
	je	SHORT $LN5@CodeSpec
	cmp	DWORD PTR _status$66817[ebp], 4
	je	SHORT $LN5@CodeSpec
; Line 157
	mov	eax, 1
	jmp	$LN22@CodeSpec
$LN5@CodeSpec:
; Line 158
	xor	eax, eax
	jmp	SHORT $LN22@CodeSpec
$LN7@CodeSpec:
; Line 160
	movzx	eax, BYTE PTR _finished$66821[ebp]
	test	eax, eax
	je	SHORT $LN12@CodeSpec
; Line 162
	cmp	DWORD PTR _status$66817[ebp], 3
	jne	SHORT $LN3@CodeSpec
; Line 163
	mov	ecx, DWORD PTR _this$[ebp]
	mov	BYTE PTR [ecx+209], 1
$LN3@CodeSpec:
; Line 164
	xor	eax, eax
	cmp	DWORD PTR _status$66817[ebp], 1
	setne	al
	jmp	SHORT $LN22@CodeSpec
$LN12@CodeSpec:
; Line 167
	cmp	DWORD PTR _progress$[ebp], 0
	je	SHORT $LN2@CodeSpec
; Line 169
	mov	edx, DWORD PTR _this$[ebp]
	mov	eax, DWORD PTR [edx+176]
	sub	eax, DWORD PTR _startInProgress$[ebp]
	mov	ecx, DWORD PTR [edx+180]
	sbb	ecx, DWORD PTR _startInProgress$[ebp+4]
	mov	DWORD PTR _inSize$66841[ebp], eax
	mov	DWORD PTR _inSize$66841[ebp+4], ecx
; Line 170
	mov	edx, DWORD PTR _this$[ebp]
	add	edx, 184				; 000000b8H
	mov	esi, esp
	push	edx
	lea	eax, DWORD PTR _inSize$66841[ebp]
	push	eax
	mov	ecx, DWORD PTR _progress$[ebp]
	mov	edx, DWORD PTR [ecx]
	mov	eax, DWORD PTR _progress$[ebp]
	push	eax
	mov	ecx, DWORD PTR [edx+12]
	call	ecx
	cmp	esi, esp
	call	__RTC_CheckEsp
	mov	DWORD PTR ___result__$66842[ebp], eax
	cmp	DWORD PTR ___result__$66842[ebp], 0
	je	SHORT $LN2@CodeSpec
	mov	eax, DWORD PTR ___result__$66842[ebp]
	jmp	SHORT $LN22@CodeSpec
$LN2@CodeSpec:
; Line 172
	jmp	$LN19@CodeSpec
$LN22@CodeSpec:
; Line 173
	push	edx
	mov	ecx, ebp
	push	eax
	lea	edx, DWORD PTR $LN38@CodeSpec
	call	@_RTC_CheckStackVars@8
	pop	eax
	pop	edx
	pop	edi
	pop	esi
	add	esp, 136				; 00000088H
	cmp	ebp, esp
	call	__RTC_CheckEsp
	mov	esp, ebp
	pop	ebp
	ret	12					; 0000000cH
	npad	3
$LN38@CodeSpec:
	DD	3
	DD	$LN37@CodeSpec
$LN37@CodeSpec:
	DD	-48					; ffffffd0H
	DD	4
	DD	$LN34@CodeSpec
	DD	-60					; ffffffc4H
	DD	4
	DD	$LN35@CodeSpec
	DD	-96					; ffffffa0H
	DD	8
	DD	$LN36@CodeSpec
$LN36@CodeSpec:
	DB	105					; 00000069H
	DB	110					; 0000006eH
	DB	83					; 00000053H
	DB	105					; 00000069H
	DB	122					; 0000007aH
	DB	101					; 00000065H
	DB	0
$LN35@CodeSpec:
	DB	115					; 00000073H
	DB	116					; 00000074H
	DB	97					; 00000061H
	DB	116					; 00000074H
	DB	117					; 00000075H
	DB	115					; 00000073H
	DB	0
$LN34@CodeSpec:
	DB	105					; 00000069H
	DB	110					; 0000006eH
	DB	83					; 00000053H
	DB	105					; 00000069H
	DB	122					; 0000007aH
	DB	101					; 00000065H
	DB	80					; 00000050H
	DB	114					; 00000072H
	DB	111					; 0000006fH
	DB	99					; 00000063H
	DB	101					; 00000065H
	DB	115					; 00000073H
	DB	115					; 00000073H
	DB	101					; 00000065H
	DB	100					; 00000064H
	DB	0
?CodeSpec@CDecoder@NLzma@NCompress@@AAEJPAUISequentialInStream@@PAUISequentialOutStream@@PAUICompressProgressInfo@@@Z ENDP ; NCompress::NLzma::CDecoder::CodeSpec
; Function compile flags: /Odtp /RTCsu
_this$ = 8						; size = 4
_inStream$ = 12						; size = 4
_outStream$ = 16					; size = 4
___formal$ = 20						; size = 4
_outSize$ = 24						; size = 4
_progress$ = 28						; size = 4
?Code@CDecoder@NLzma@NCompress@@UAGJPAUISequentialInStream@@PAUISequentialOutStream@@PB_K2PAUICompressProgressInfo@@@Z PROC ; NCompress::NLzma::CDecoder::Code
; Line 177
	push	ebp
	mov	ebp, esp
	push	esi
; Line 178
	mov	eax, DWORD PTR _this$[ebp]
	cmp	DWORD PTR [eax+36], 0
	jne	SHORT $LN1@Code
; Line 179
	mov	eax, -2147024809			; 80070057H
	jmp	SHORT $LN2@Code
$LN1@Code:
; Line 180
	mov	esi, esp
	mov	ecx, DWORD PTR _outSize$[ebp]
	push	ecx
	mov	edx, DWORD PTR _this$[ebp]
	add	edx, 20					; 00000014H
	mov	eax, DWORD PTR _this$[ebp]
	mov	ecx, DWORD PTR [eax+20]
	push	edx
	mov	edx, DWORD PTR [ecx+12]
	call	edx
	cmp	esi, esp
	call	__RTC_CheckEsp
; Line 181
	mov	eax, DWORD PTR _progress$[ebp]
	push	eax
	mov	ecx, DWORD PTR _outStream$[ebp]
	push	ecx
	mov	edx, DWORD PTR _inStream$[ebp]
	push	edx
	mov	ecx, DWORD PTR _this$[ebp]
	call	?CodeSpec@CDecoder@NLzma@NCompress@@AAEJPAUISequentialInStream@@PAUISequentialOutStream@@PAUICompressProgressInfo@@@Z ; NCompress::NLzma::CDecoder::CodeSpec
$LN2@Code:
; Line 182
	pop	esi
	cmp	ebp, esp
	call	__RTC_CheckEsp
	pop	ebp
	ret	24					; 00000018H
?Code@CDecoder@NLzma@NCompress@@UAGJPAUISequentialInStream@@PAUISequentialOutStream@@PB_K2PAUICompressProgressInfo@@@Z ENDP ; NCompress::NLzma::CDecoder::Code
_TEXT	ENDS
PUBLIC	??4?$CMyComPtr@UISequentialInStream@@@@QAEPAUISequentialInStream@@PAU1@@Z ; CMyComPtr<ISequentialInStream>::operator=
; Function compile flags: /Odtp /RTCsu
_TEXT	SEGMENT
_this$ = 8						; size = 4
_inStream$ = 12						; size = 4
?SetInStream@CDecoder@NLzma@NCompress@@UAGJPAUISequentialInStream@@@Z PROC ; NCompress::NLzma::CDecoder::SetInStream
; Line 186
	push	ebp
	mov	ebp, esp
	mov	eax, DWORD PTR _inStream$[ebp]
	push	eax
	mov	ecx, DWORD PTR _this$[ebp]
	add	ecx, 16					; 00000010H
	call	??4?$CMyComPtr@UISequentialInStream@@@@QAEPAUISequentialInStream@@PAU1@@Z ; CMyComPtr<ISequentialInStream>::operator=
	xor	eax, eax
	cmp	ebp, esp
	call	__RTC_CheckEsp
	pop	ebp
	ret	8
?SetInStream@CDecoder@NLzma@NCompress@@UAGJPAUISequentialInStream@@@Z ENDP ; NCompress::NLzma::CDecoder::SetInStream
_TEXT	ENDS
PUBLIC	?Release@?$CMyComPtr@UISequentialInStream@@@@QAEXXZ ; CMyComPtr<ISequentialInStream>::Release
; Function compile flags: /Odtp /RTCsu
_TEXT	SEGMENT
_this$ = 8						; size = 4
?ReleaseInStream@CDecoder@NLzma@NCompress@@UAGJXZ PROC	; NCompress::NLzma::CDecoder::ReleaseInStream
; Line 187
	push	ebp
	mov	ebp, esp
	mov	ecx, DWORD PTR _this$[ebp]
	add	ecx, 16					; 00000010H
	call	?Release@?$CMyComPtr@UISequentialInStream@@@@QAEXXZ ; CMyComPtr<ISequentialInStream>::Release
	xor	eax, eax
	cmp	ebp, esp
	call	__RTC_CheckEsp
	pop	ebp
	ret	4
?ReleaseInStream@CDecoder@NLzma@NCompress@@UAGJXZ ENDP	; NCompress::NLzma::CDecoder::ReleaseInStream
_TEXT	ENDS
PUBLIC	??C?$CMyComPtr@UISequentialInStream@@@@QBEPAUISequentialInStream@@XZ ; CMyComPtr<ISequentialInStream>::operator->
EXTRN	_LzmaDec_DecodeToBuf@28:PROC
; Function compile flags: /Odtp /RTCsu
_TEXT	SEGMENT
tv224 = -68						; size = 8
tv79 = -60						; size = 4
___result__$66890 = -56					; size = 4
_res$66883 = -52					; size = 4
_status$66882 = -44					; size = 4
_outProcessed$66881 = -32				; size = 4
_rem$66878 = -24					; size = 8
_inProcessed$66876 = -12				; size = 4
___result__$66874 = -4					; size = 4
_this$ = 8						; size = 4
_data$ = 12						; size = 4
_size$ = 16						; size = 4
_processedSize$ = 20					; size = 4
?Read@CDecoder@NLzma@NCompress@@UAGJPAXIPAI@Z PROC	; NCompress::NLzma::CDecoder::Read
; Line 190
	push	ebp
	mov	ebp, esp
	sub	esp, 68					; 00000044H
	push	esi
	push	edi
	lea	edi, DWORD PTR [ebp-68]
	mov	ecx, 17					; 00000011H
	mov	eax, -858993460				; ccccccccH
	rep stosd
; Line 191
	cmp	DWORD PTR _processedSize$[ebp], 0
	je	SHORT $LN10@Read
; Line 192
	mov	eax, DWORD PTR _processedSize$[ebp]
	mov	DWORD PTR [eax], 0
$LN10@Read:
; Line 195
	mov	ecx, DWORD PTR _this$[ebp]
	mov	edx, DWORD PTR _this$[ebp]
	mov	eax, DWORD PTR [ecx+16]
	cmp	eax, DWORD PTR [edx+20]
	jne	SHORT $LN7@Read
; Line 197
	mov	ecx, DWORD PTR _this$[ebp]
	mov	DWORD PTR [ecx+20], 0
	mov	edx, DWORD PTR _this$[ebp]
	mov	DWORD PTR [edx+16], 0
; Line 198
	mov	ecx, DWORD PTR _this$[ebp]
	add	ecx, 8
	call	??C?$CMyComPtr@UISequentialInStream@@@@QBEPAUISequentialInStream@@XZ ; CMyComPtr<ISequentialInStream>::operator->
	mov	DWORD PTR tv79[ebp], eax
	mov	eax, DWORD PTR _this$[ebp]
	add	eax, 20					; 00000014H
	mov	esi, esp
	push	eax
	mov	ecx, DWORD PTR _this$[ebp]
	mov	edx, DWORD PTR [ecx+168]
	push	edx
	mov	eax, DWORD PTR _this$[ebp]
	mov	ecx, DWORD PTR [eax+12]
	push	ecx
	mov	edx, DWORD PTR tv79[ebp]
	push	edx
	mov	eax, DWORD PTR tv79[ebp]
	mov	ecx, DWORD PTR [eax]
	mov	edx, DWORD PTR [ecx+12]
	call	edx
	cmp	esi, esp
	call	__RTC_CheckEsp
	mov	DWORD PTR ___result__$66874[ebp], eax
	cmp	DWORD PTR ___result__$66874[ebp], 0
	je	SHORT $LN7@Read
	mov	eax, DWORD PTR ___result__$66874[ebp]
	jmp	$LN12@Read
$LN7@Read:
; Line 201
	mov	eax, DWORD PTR _this$[ebp]
	mov	ecx, DWORD PTR _this$[ebp]
	mov	edx, DWORD PTR [eax+20]
	sub	edx, DWORD PTR [ecx+16]
	mov	DWORD PTR _inProcessed$66876[ebp], edx
; Line 203
	mov	eax, DWORD PTR _this$[ebp]
	movzx	ecx, BYTE PTR [eax+137]
	test	ecx, ecx
	je	SHORT $LN5@Read
; Line 205
	mov	edx, DWORD PTR _this$[ebp]
	mov	eax, DWORD PTR _this$[ebp]
	mov	ecx, DWORD PTR [edx+144]
	sub	ecx, DWORD PTR [eax+160]
	mov	edx, DWORD PTR [edx+148]
	sbb	edx, DWORD PTR [eax+164]
	mov	DWORD PTR _rem$66878[ebp], ecx
	mov	DWORD PTR _rem$66878[ebp+4], edx
; Line 206
	mov	eax, DWORD PTR _size$[ebp]
	xor	ecx, ecx
	mov	DWORD PTR tv224[ebp], eax
	mov	DWORD PTR tv224[ebp+4], ecx
	mov	edx, DWORD PTR _rem$66878[ebp+4]
	cmp	edx, DWORD PTR tv224[ebp+4]
	ja	SHORT $LN5@Read
	jb	SHORT $LN14@Read
	mov	eax, DWORD PTR _rem$66878[ebp]
	cmp	eax, DWORD PTR tv224[ebp]
	jae	SHORT $LN5@Read
$LN14@Read:
; Line 207
	mov	ecx, DWORD PTR _rem$66878[ebp]
	mov	DWORD PTR _size$[ebp], ecx
$LN5@Read:
; Line 210
	mov	edx, DWORD PTR _size$[ebp]
	mov	DWORD PTR _outProcessed$66881[ebp], edx
; Line 213
	lea	eax, DWORD PTR _status$66882[ebp]
	push	eax
	push	0
	lea	ecx, DWORD PTR _inProcessed$66876[ebp]
	push	ecx
	mov	edx, DWORD PTR _this$[ebp]
	mov	eax, DWORD PTR [edx+12]
	mov	ecx, DWORD PTR _this$[ebp]
	add	eax, DWORD PTR [ecx+16]
	push	eax
	lea	edx, DWORD PTR _outProcessed$66881[ebp]
	push	edx
	mov	eax, DWORD PTR _data$[ebp]
	push	eax
	mov	ecx, DWORD PTR _this$[ebp]
	add	ecx, 24					; 00000018H
	push	ecx
	call	_LzmaDec_DecodeToBuf@28
	mov	DWORD PTR _res$66883[ebp], eax
; Line 214
	mov	edx, DWORD PTR _this$[ebp]
	mov	eax, DWORD PTR [edx+16]
	add	eax, DWORD PTR _inProcessed$66876[ebp]
	mov	ecx, DWORD PTR _this$[ebp]
	mov	DWORD PTR [ecx+16], eax
; Line 215
	mov	edx, DWORD PTR _inProcessed$66876[ebp]
	xor	eax, eax
	mov	ecx, DWORD PTR _this$[ebp]
	add	edx, DWORD PTR [ecx+152]
	adc	eax, DWORD PTR [ecx+156]
	mov	ecx, DWORD PTR _this$[ebp]
	mov	DWORD PTR [ecx+152], edx
	mov	DWORD PTR [ecx+156], eax
; Line 216
	mov	edx, DWORD PTR _outProcessed$66881[ebp]
	xor	eax, eax
	mov	ecx, DWORD PTR _this$[ebp]
	add	edx, DWORD PTR [ecx+160]
	adc	eax, DWORD PTR [ecx+164]
	mov	ecx, DWORD PTR _this$[ebp]
	mov	DWORD PTR [ecx+160], edx
	mov	DWORD PTR [ecx+164], eax
; Line 217
	mov	edx, DWORD PTR _size$[ebp]
	sub	edx, DWORD PTR _outProcessed$66881[ebp]
	mov	DWORD PTR _size$[ebp], edx
; Line 218
	mov	eax, DWORD PTR _data$[ebp]
	add	eax, DWORD PTR _outProcessed$66881[ebp]
	mov	DWORD PTR _data$[ebp], eax
; Line 219
	cmp	DWORD PTR _processedSize$[ebp], 0
	je	SHORT $LN3@Read
; Line 220
	mov	ecx, DWORD PTR _processedSize$[ebp]
	mov	edx, DWORD PTR [ecx]
	add	edx, DWORD PTR _outProcessed$66881[ebp]
	mov	eax, DWORD PTR _processedSize$[ebp]
	mov	DWORD PTR [eax], edx
$LN3@Read:
; Line 221
	mov	ecx, DWORD PTR _res$66883[ebp]
	push	ecx
	call	?SResToHRESULT@@YGJH@Z			; SResToHRESULT
	mov	DWORD PTR ___result__$66890[ebp], eax
	cmp	DWORD PTR ___result__$66890[ebp], 0
	je	SHORT $LN2@Read
	mov	eax, DWORD PTR ___result__$66890[ebp]
	jmp	SHORT $LN12@Read
$LN2@Read:
; Line 222
	cmp	DWORD PTR _inProcessed$66876[ebp], 0
	jne	SHORT $LN9@Read
	cmp	DWORD PTR _outProcessed$66881[ebp], 0
	jne	SHORT $LN9@Read
; Line 223
	xor	eax, eax
	jmp	SHORT $LN12@Read
$LN9@Read:
; Line 226
	cmp	DWORD PTR _size$[ebp], 0
	jne	$LN10@Read
; Line 227
	xor	eax, eax
$LN12@Read:
; Line 228
	push	edx
	mov	ecx, ebp
	push	eax
	lea	edx, DWORD PTR $LN19@Read
	call	@_RTC_CheckStackVars@8
	pop	eax
	pop	edx
	pop	edi
	pop	esi
	add	esp, 68					; 00000044H
	cmp	ebp, esp
	call	__RTC_CheckEsp
	mov	esp, ebp
	pop	ebp
	ret	16					; 00000010H
	npad	2
$LN19@Read:
	DD	3
	DD	$LN18@Read
$LN18@Read:
	DD	-12					; fffffff4H
	DD	4
	DD	$LN15@Read
	DD	-32					; ffffffe0H
	DD	4
	DD	$LN16@Read
	DD	-44					; ffffffd4H
	DD	4
	DD	$LN17@Read
$LN17@Read:
	DB	115					; 00000073H
	DB	116					; 00000074H
	DB	97					; 00000061H
	DB	116					; 00000074H
	DB	117					; 00000075H
	DB	115					; 00000073H
	DB	0
$LN16@Read:
	DB	111					; 0000006fH
	DB	117					; 00000075H
	DB	116					; 00000074H
	DB	80					; 00000050H
	DB	114					; 00000072H
	DB	111					; 0000006fH
	DB	99					; 00000063H
	DB	101					; 00000065H
	DB	115					; 00000073H
	DB	115					; 00000073H
	DB	101					; 00000065H
	DB	100					; 00000064H
	DB	0
$LN15@Read:
	DB	105					; 00000069H
	DB	110					; 0000006eH
	DB	80					; 00000050H
	DB	114					; 00000072H
	DB	111					; 0000006fH
	DB	99					; 00000063H
	DB	101					; 00000065H
	DB	115					; 00000073H
	DB	115					; 00000073H
	DB	101					; 00000065H
	DB	100					; 00000064H
	DB	0
?Read@CDecoder@NLzma@NCompress@@UAGJPAXIPAI@Z ENDP	; NCompress::NLzma::CDecoder::Read
_TEXT	ENDS
PUBLIC	??B?$CMyComPtr@UISequentialInStream@@@@QBEPAUISequentialInStream@@XZ ; CMyComPtr<ISequentialInStream>::operator ISequentialInStream *
PUBLIC	?CodeResume@CDecoder@NLzma@NCompress@@QAEJPAUISequentialOutStream@@PB_KPAUICompressProgressInfo@@@Z ; NCompress::NLzma::CDecoder::CodeResume
; Function compile flags: /Odtp /RTCsu
_TEXT	SEGMENT
_this$ = -4						; size = 4
_outStream$ = 8						; size = 4
_outSize$ = 12						; size = 4
_progress$ = 16						; size = 4
?CodeResume@CDecoder@NLzma@NCompress@@QAEJPAUISequentialOutStream@@PB_KPAUICompressProgressInfo@@@Z PROC ; NCompress::NLzma::CDecoder::CodeResume
; _this$ = ecx
; Line 231
	push	ebp
	mov	ebp, esp
	push	ecx
	mov	DWORD PTR [ebp-4], -858993460		; ccccccccH
	mov	DWORD PTR _this$[ebp], ecx
; Line 232
	mov	eax, DWORD PTR _outSize$[ebp]
	push	eax
	mov	ecx, DWORD PTR _this$[ebp]
	call	?SetOutStreamSizeResume@CDecoder@NLzma@NCompress@@AAEXPB_K@Z ; NCompress::NLzma::CDecoder::SetOutStreamSizeResume
; Line 233
	mov	ecx, DWORD PTR _progress$[ebp]
	push	ecx
	mov	edx, DWORD PTR _outStream$[ebp]
	push	edx
	mov	ecx, DWORD PTR _this$[ebp]
	add	ecx, 32					; 00000020H
	call	??B?$CMyComPtr@UISequentialInStream@@@@QBEPAUISequentialInStream@@XZ ; CMyComPtr<ISequentialInStream>::operator ISequentialInStream *
	push	eax
	mov	ecx, DWORD PTR _this$[ebp]
	call	?CodeSpec@CDecoder@NLzma@NCompress@@AAEJPAUISequentialInStream@@PAUISequentialOutStream@@PAUICompressProgressInfo@@@Z ; NCompress::NLzma::CDecoder::CodeSpec
; Line 234
	add	esp, 4
	cmp	ebp, esp
	call	__RTC_CheckEsp
	mov	esp, ebp
	pop	ebp
	ret	12					; 0000000cH
?CodeResume@CDecoder@NLzma@NCompress@@QAEJPAUISequentialOutStream@@PB_KPAUICompressProgressInfo@@@Z ENDP ; NCompress::NLzma::CDecoder::CodeResume
_TEXT	ENDS
PUBLIC	?ReadFromInputStream@CDecoder@NLzma@NCompress@@QAEJPAXIPAI@Z ; NCompress::NLzma::CDecoder::ReadFromInputStream
EXTRN	_memcpy:PROC
; Function compile flags: /Odtp /RTCsu
_TEXT	SEGMENT
tv78 = -20						; size = 4
_curSize$66917 = -16					; size = 4
___result__$66914 = -12					; size = 4
___result__$66907 = -8					; size = 4
_this$ = -4						; size = 4
_data$ = 8						; size = 4
_size$ = 12						; size = 4
_processedSize$ = 16					; size = 4
?ReadFromInputStream@CDecoder@NLzma@NCompress@@QAEJPAXIPAI@Z PROC ; NCompress::NLzma::CDecoder::ReadFromInputStream
; _this$ = ecx
; Line 237
	push	ebp
	mov	ebp, esp
	sub	esp, 20					; 00000014H
	push	esi
	mov	eax, -858993460				; ccccccccH
	mov	DWORD PTR [ebp-20], eax
	mov	DWORD PTR [ebp-16], eax
	mov	DWORD PTR [ebp-12], eax
	mov	DWORD PTR [ebp-8], eax
	mov	DWORD PTR [ebp-4], eax
	mov	DWORD PTR _this$[ebp], ecx
; Line 238
	mov	ecx, DWORD PTR _this$[ebp]
	call	?CreateInputBuffer@CDecoder@NLzma@NCompress@@AAEJXZ ; NCompress::NLzma::CDecoder::CreateInputBuffer
	mov	DWORD PTR ___result__$66907[ebp], eax
	cmp	DWORD PTR ___result__$66907[ebp], 0
	je	SHORT $LN9@ReadFromIn
	mov	eax, DWORD PTR ___result__$66907[ebp]
	jmp	$LN10@ReadFromIn
$LN9@ReadFromIn:
; Line 239
	cmp	DWORD PTR _processedSize$[ebp], 0
	je	SHORT $LN7@ReadFromIn
; Line 240
	mov	eax, DWORD PTR _processedSize$[ebp]
	mov	DWORD PTR [eax], 0
$LN7@ReadFromIn:
; Line 241
	cmp	DWORD PTR _size$[ebp], 0
	jbe	$LN6@ReadFromIn
; Line 243
	mov	ecx, DWORD PTR _this$[ebp]
	mov	edx, DWORD PTR _this$[ebp]
	mov	eax, DWORD PTR [ecx+40]
	cmp	eax, DWORD PTR [edx+44]
	jne	SHORT $LN5@ReadFromIn
; Line 245
	mov	ecx, DWORD PTR _this$[ebp]
	mov	DWORD PTR [ecx+44], 0
	mov	edx, DWORD PTR _this$[ebp]
	mov	DWORD PTR [edx+40], 0
; Line 246
	mov	ecx, DWORD PTR _this$[ebp]
	add	ecx, 32					; 00000020H
	call	??C?$CMyComPtr@UISequentialInStream@@@@QBEPAUISequentialInStream@@XZ ; CMyComPtr<ISequentialInStream>::operator->
	mov	DWORD PTR tv78[ebp], eax
	mov	eax, DWORD PTR _this$[ebp]
	add	eax, 44					; 0000002cH
	mov	esi, esp
	push	eax
	mov	ecx, DWORD PTR _this$[ebp]
	mov	edx, DWORD PTR [ecx+192]
	push	edx
	mov	eax, DWORD PTR _this$[ebp]
	mov	ecx, DWORD PTR [eax+36]
	push	ecx
	mov	edx, DWORD PTR tv78[ebp]
	push	edx
	mov	eax, DWORD PTR tv78[ebp]
	mov	ecx, DWORD PTR [eax]
	mov	edx, DWORD PTR [ecx+12]
	call	edx
	cmp	esi, esp
	call	__RTC_CheckEsp
	mov	DWORD PTR ___result__$66914[ebp], eax
	cmp	DWORD PTR ___result__$66914[ebp], 0
	je	SHORT $LN4@ReadFromIn
	mov	eax, DWORD PTR ___result__$66914[ebp]
	jmp	$LN10@ReadFromIn
$LN4@ReadFromIn:
; Line 247
	mov	eax, DWORD PTR _this$[ebp]
	cmp	DWORD PTR [eax+44], 0
	jne	SHORT $LN5@ReadFromIn
; Line 248
	jmp	$LN6@ReadFromIn
$LN5@ReadFromIn:
; Line 251
	mov	ecx, DWORD PTR _this$[ebp]
	mov	edx, DWORD PTR _this$[ebp]
	mov	eax, DWORD PTR [ecx+44]
	sub	eax, DWORD PTR [edx+40]
	mov	DWORD PTR _curSize$66917[ebp], eax
; Line 252
	mov	ecx, DWORD PTR _curSize$66917[ebp]
	cmp	ecx, DWORD PTR _size$[ebp]
	jbe	SHORT $LN2@ReadFromIn
; Line 253
	mov	edx, DWORD PTR _size$[ebp]
	mov	DWORD PTR _curSize$66917[ebp], edx
$LN2@ReadFromIn:
; Line 254
	mov	eax, DWORD PTR _curSize$66917[ebp]
	push	eax
	mov	ecx, DWORD PTR _this$[ebp]
	mov	edx, DWORD PTR [ecx+36]
	mov	eax, DWORD PTR _this$[ebp]
	add	edx, DWORD PTR [eax+40]
	push	edx
	mov	ecx, DWORD PTR _data$[ebp]
	push	ecx
	call	_memcpy
	add	esp, 12					; 0000000cH
; Line 255
	mov	edx, DWORD PTR _this$[ebp]
	mov	eax, DWORD PTR [edx+40]
	add	eax, DWORD PTR _curSize$66917[ebp]
	mov	ecx, DWORD PTR _this$[ebp]
	mov	DWORD PTR [ecx+40], eax
; Line 256
	mov	edx, DWORD PTR _curSize$66917[ebp]
	xor	eax, eax
	mov	ecx, DWORD PTR _this$[ebp]
	add	edx, DWORD PTR [ecx+176]
	adc	eax, DWORD PTR [ecx+180]
	mov	ecx, DWORD PTR _this$[ebp]
	mov	DWORD PTR [ecx+176], edx
	mov	DWORD PTR [ecx+180], eax
; Line 257
	mov	edx, DWORD PTR _size$[ebp]
	sub	edx, DWORD PTR _curSize$66917[ebp]
	mov	DWORD PTR _size$[ebp], edx
; Line 258
	mov	eax, DWORD PTR _data$[ebp]
	add	eax, DWORD PTR _curSize$66917[ebp]
	mov	DWORD PTR _data$[ebp], eax
; Line 259
	cmp	DWORD PTR _processedSize$[ebp], 0
	je	SHORT $LN1@ReadFromIn
; Line 260
	mov	ecx, DWORD PTR _processedSize$[ebp]
	mov	edx, DWORD PTR [ecx]
	add	edx, DWORD PTR _curSize$66917[ebp]
	mov	eax, DWORD PTR _processedSize$[ebp]
	mov	DWORD PTR [eax], edx
$LN1@ReadFromIn:
; Line 262
	jmp	$LN7@ReadFromIn
$LN6@ReadFromIn:
; Line 263
	xor	eax, eax
$LN10@ReadFromIn:
; Line 264
	pop	esi
	add	esp, 20					; 00000014H
	cmp	ebp, esp
	call	__RTC_CheckEsp
	mov	esp, ebp
	pop	ebp
	ret	12					; 0000000cH
?ReadFromInputStream@CDecoder@NLzma@NCompress@@QAEJPAXIPAI@Z ENDP ; NCompress::NLzma::CDecoder::ReadFromInputStream
; Function compile flags: /Odtp /RTCsu
_TEXT	ENDS
;	COMDAT ??0?$CMyComPtr@UISequentialInStream@@@@QAE@XZ
_TEXT	SEGMENT
_this$ = -4						; size = 4
??0?$CMyComPtr@UISequentialInStream@@@@QAE@XZ PROC	; CMyComPtr<ISequentialInStream>::CMyComPtr<ISequentialInStream>, COMDAT
; _this$ = ecx
; File c:\workspace\7z1505-src\cpp\common\mycom.h
; Line 18
	push	ebp
	mov	ebp, esp
	push	ecx
	mov	DWORD PTR [ebp-4], -858993460		; ccccccccH
	mov	DWORD PTR _this$[ebp], ecx
	mov	eax, DWORD PTR _this$[ebp]
	mov	DWORD PTR [eax], 0
	mov	eax, DWORD PTR _this$[ebp]
	mov	esp, ebp
	pop	ebp
	ret	0
??0?$CMyComPtr@UISequentialInStream@@@@QAE@XZ ENDP	; CMyComPtr<ISequentialInStream>::CMyComPtr<ISequentialInStream>
; Function compile flags: /Odtp /RTCsu
_TEXT	ENDS
;	COMDAT ??1?$CMyComPtr@UISequentialInStream@@@@QAE@XZ
_TEXT	SEGMENT
_this$ = -4						; size = 4
??1?$CMyComPtr@UISequentialInStream@@@@QAE@XZ PROC	; CMyComPtr<ISequentialInStream>::~CMyComPtr<ISequentialInStream>, COMDAT
; _this$ = ecx
; Line 21
	push	ebp
	mov	ebp, esp
	push	ecx
	push	esi
	mov	DWORD PTR [ebp-4], -858993460		; ccccccccH
	mov	DWORD PTR _this$[ebp], ecx
	mov	eax, DWORD PTR _this$[ebp]
	cmp	DWORD PTR [eax], 0
	je	SHORT $LN2@CMyComPtr
	mov	ecx, DWORD PTR _this$[ebp]
	mov	edx, DWORD PTR [ecx]
	mov	eax, DWORD PTR _this$[ebp]
	mov	ecx, DWORD PTR [eax]
	mov	edx, DWORD PTR [edx]
	mov	esi, esp
	push	ecx
	mov	eax, DWORD PTR [edx+8]
	call	eax
	cmp	esi, esp
	call	__RTC_CheckEsp
$LN2@CMyComPtr:
	pop	esi
	add	esp, 4
	cmp	ebp, esp
	call	__RTC_CheckEsp
	mov	esp, ebp
	pop	ebp
	ret	0
??1?$CMyComPtr@UISequentialInStream@@@@QAE@XZ ENDP	; CMyComPtr<ISequentialInStream>::~CMyComPtr<ISequentialInStream>
; Function compile flags: /Odtp /RTCsu
_TEXT	ENDS
;	COMDAT ?Release@?$CMyComPtr@UISequentialInStream@@@@QAEXXZ
_TEXT	SEGMENT
_this$ = -4						; size = 4
?Release@?$CMyComPtr@UISequentialInStream@@@@QAEXXZ PROC ; CMyComPtr<ISequentialInStream>::Release, COMDAT
; _this$ = ecx
; Line 22
	push	ebp
	mov	ebp, esp
	push	ecx
	push	esi
	mov	DWORD PTR [ebp-4], -858993460		; ccccccccH
	mov	DWORD PTR _this$[ebp], ecx
	mov	eax, DWORD PTR _this$[ebp]
	cmp	DWORD PTR [eax], 0
	je	SHORT $LN2@Release@2
	mov	ecx, DWORD PTR _this$[ebp]
	mov	edx, DWORD PTR [ecx]
	mov	eax, DWORD PTR _this$[ebp]
	mov	ecx, DWORD PTR [eax]
	mov	edx, DWORD PTR [edx]
	mov	esi, esp
	push	ecx
	mov	eax, DWORD PTR [edx+8]
	call	eax
	cmp	esi, esp
	call	__RTC_CheckEsp
	mov	ecx, DWORD PTR _this$[ebp]
	mov	DWORD PTR [ecx], 0
$LN2@Release@2:
	pop	esi
	add	esp, 4
	cmp	ebp, esp
	call	__RTC_CheckEsp
	mov	esp, ebp
	pop	ebp
	ret	0
?Release@?$CMyComPtr@UISequentialInStream@@@@QAEXXZ ENDP ; CMyComPtr<ISequentialInStream>::Release
; Function compile flags: /Odtp /RTCsu
_TEXT	ENDS
;	COMDAT ??B?$CMyComPtr@UISequentialInStream@@@@QBEPAUISequentialInStream@@XZ
_TEXT	SEGMENT
_this$ = -4						; size = 4
??B?$CMyComPtr@UISequentialInStream@@@@QBEPAUISequentialInStream@@XZ PROC ; CMyComPtr<ISequentialInStream>::operator ISequentialInStream *, COMDAT
; _this$ = ecx
; Line 23
	push	ebp
	mov	ebp, esp
	push	ecx
	mov	DWORD PTR [ebp-4], -858993460		; ccccccccH
	mov	DWORD PTR _this$[ebp], ecx
	mov	eax, DWORD PTR _this$[ebp]
	mov	eax, DWORD PTR [eax]
	mov	esp, ebp
	pop	ebp
	ret	0
??B?$CMyComPtr@UISequentialInStream@@@@QBEPAUISequentialInStream@@XZ ENDP ; CMyComPtr<ISequentialInStream>::operator ISequentialInStream *
; Function compile flags: /Odtp /RTCsu
_TEXT	ENDS
;	COMDAT ??C?$CMyComPtr@UISequentialInStream@@@@QBEPAUISequentialInStream@@XZ
_TEXT	SEGMENT
_this$ = -4						; size = 4
??C?$CMyComPtr@UISequentialInStream@@@@QBEPAUISequentialInStream@@XZ PROC ; CMyComPtr<ISequentialInStream>::operator->, COMDAT
; _this$ = ecx
; Line 26
	push	ebp
	mov	ebp, esp
	push	ecx
	mov	DWORD PTR [ebp-4], -858993460		; ccccccccH
	mov	DWORD PTR _this$[ebp], ecx
	mov	eax, DWORD PTR _this$[ebp]
	mov	eax, DWORD PTR [eax]
	mov	esp, ebp
	pop	ebp
	ret	0
??C?$CMyComPtr@UISequentialInStream@@@@QBEPAUISequentialInStream@@XZ ENDP ; CMyComPtr<ISequentialInStream>::operator->
; Function compile flags: /Odtp /RTCsu
_TEXT	ENDS
;	COMDAT ??4?$CMyComPtr@UISequentialInStream@@@@QAEPAUISequentialInStream@@PAU1@@Z
_TEXT	SEGMENT
_this$ = -4						; size = 4
_p$ = 8							; size = 4
??4?$CMyComPtr@UISequentialInStream@@@@QAEPAUISequentialInStream@@PAU1@@Z PROC ; CMyComPtr<ISequentialInStream>::operator=, COMDAT
; _this$ = ecx
; Line 28
	push	ebp
	mov	ebp, esp
	push	ecx
	push	esi
	mov	DWORD PTR [ebp-4], -858993460		; ccccccccH
	mov	DWORD PTR _this$[ebp], ecx
; Line 29
	cmp	DWORD PTR _p$[ebp], 0
	je	SHORT $LN2@operator
; Line 30
	mov	eax, DWORD PTR _p$[ebp]
	mov	ecx, DWORD PTR [eax]
	mov	esi, esp
	mov	edx, DWORD PTR _p$[ebp]
	push	edx
	mov	eax, DWORD PTR [ecx+4]
	call	eax
	cmp	esi, esp
	call	__RTC_CheckEsp
$LN2@operator:
; Line 31
	mov	ecx, DWORD PTR _this$[ebp]
	cmp	DWORD PTR [ecx], 0
	je	SHORT $LN1@operator
; Line 32
	mov	edx, DWORD PTR _this$[ebp]
	mov	eax, DWORD PTR [edx]
	mov	ecx, DWORD PTR _this$[ebp]
	mov	edx, DWORD PTR [ecx]
	mov	eax, DWORD PTR [eax]
	mov	esi, esp
	push	edx
	mov	ecx, DWORD PTR [eax+8]
	call	ecx
	cmp	esi, esp
	call	__RTC_CheckEsp
$LN1@operator:
; Line 33
	mov	edx, DWORD PTR _this$[ebp]
	mov	eax, DWORD PTR _p$[ebp]
	mov	DWORD PTR [edx], eax
; Line 34
	mov	eax, DWORD PTR _p$[ebp]
; Line 35
	pop	esi
	add	esp, 4
	cmp	ebp, esp
	call	__RTC_CheckEsp
	mov	esp, ebp
	pop	ebp
	ret	4
??4?$CMyComPtr@UISequentialInStream@@@@QAEPAUISequentialInStream@@PAU1@@Z ENDP ; CMyComPtr<ISequentialInStream>::operator=
; Function compile flags: /Odtp /RTCsu
_TEXT	ENDS
;	COMDAT ?Release@CDecoder@NLzma@NCompress@@WBA@AGKXZ
_TEXT	SEGMENT
?Release@CDecoder@NLzma@NCompress@@WBA@AGKXZ PROC	; [thunk]:NCompress::NLzma::CDecoder::Release`adjustor{16}', COMDAT
	sub	DWORD PTR [esp+4], 16			; 00000010H
	jmp	?Release@CDecoder@NLzma@NCompress@@UAGKXZ ; NCompress::NLzma::CDecoder::Release
?Release@CDecoder@NLzma@NCompress@@WBA@AGKXZ ENDP	; [thunk]:NCompress::NLzma::CDecoder::Release`adjustor{16}'
; Function compile flags: /Odtp /RTCsu
_TEXT	ENDS
;	COMDAT ?AddRef@CDecoder@NLzma@NCompress@@W7AGKXZ
_TEXT	SEGMENT
?AddRef@CDecoder@NLzma@NCompress@@W7AGKXZ PROC		; [thunk]:NCompress::NLzma::CDecoder::AddRef`adjustor{8}', COMDAT
	sub	DWORD PTR [esp+4], 8
	jmp	?AddRef@CDecoder@NLzma@NCompress@@UAGKXZ ; NCompress::NLzma::CDecoder::AddRef
?AddRef@CDecoder@NLzma@NCompress@@W7AGKXZ ENDP		; [thunk]:NCompress::NLzma::CDecoder::AddRef`adjustor{8}'
; Function compile flags: /Odtp /RTCsu
_TEXT	ENDS
;	COMDAT ?QueryInterface@CDecoder@NLzma@NCompress@@W3AGJABU_GUID@@PAPAX@Z
_TEXT	SEGMENT
?QueryInterface@CDecoder@NLzma@NCompress@@W3AGJABU_GUID@@PAPAX@Z PROC ; [thunk]:NCompress::NLzma::CDecoder::QueryInterface`adjustor{4}', COMDAT
	sub	DWORD PTR [esp+4], 4
	jmp	?QueryInterface@CDecoder@NLzma@NCompress@@UAGJABU_GUID@@PAPAX@Z ; NCompress::NLzma::CDecoder::QueryInterface
?QueryInterface@CDecoder@NLzma@NCompress@@W3AGJABU_GUID@@PAPAX@Z ENDP ; [thunk]:NCompress::NLzma::CDecoder::QueryInterface`adjustor{4}'
; Function compile flags: /Odtp /RTCsu
_TEXT	ENDS
;	COMDAT ?Release@CDecoder@NLzma@NCompress@@WBE@AGKXZ
_TEXT	SEGMENT
?Release@CDecoder@NLzma@NCompress@@WBE@AGKXZ PROC	; [thunk]:NCompress::NLzma::CDecoder::Release`adjustor{20}', COMDAT
	sub	DWORD PTR [esp+4], 20			; 00000014H
	jmp	?Release@CDecoder@NLzma@NCompress@@UAGKXZ ; NCompress::NLzma::CDecoder::Release
?Release@CDecoder@NLzma@NCompress@@WBE@AGKXZ ENDP	; [thunk]:NCompress::NLzma::CDecoder::Release`adjustor{20}'
; Function compile flags: /Odtp /RTCsu
_TEXT	ENDS
;	COMDAT ?AddRef@CDecoder@NLzma@NCompress@@WM@AGKXZ
_TEXT	SEGMENT
?AddRef@CDecoder@NLzma@NCompress@@WM@AGKXZ PROC		; [thunk]:NCompress::NLzma::CDecoder::AddRef`adjustor{12}', COMDAT
	sub	DWORD PTR [esp+4], 12			; 0000000cH
	jmp	?AddRef@CDecoder@NLzma@NCompress@@UAGKXZ ; NCompress::NLzma::CDecoder::AddRef
?AddRef@CDecoder@NLzma@NCompress@@WM@AGKXZ ENDP		; [thunk]:NCompress::NLzma::CDecoder::AddRef`adjustor{12}'
; Function compile flags: /Odtp /RTCsu
_TEXT	ENDS
;	COMDAT ?QueryInterface@CDecoder@NLzma@NCompress@@W7AGJABU_GUID@@PAPAX@Z
_TEXT	SEGMENT
?QueryInterface@CDecoder@NLzma@NCompress@@W7AGJABU_GUID@@PAPAX@Z PROC ; [thunk]:NCompress::NLzma::CDecoder::QueryInterface`adjustor{8}', COMDAT
	sub	DWORD PTR [esp+4], 8
	jmp	?QueryInterface@CDecoder@NLzma@NCompress@@UAGJABU_GUID@@PAPAX@Z ; NCompress::NLzma::CDecoder::QueryInterface
?QueryInterface@CDecoder@NLzma@NCompress@@W7AGJABU_GUID@@PAPAX@Z ENDP ; [thunk]:NCompress::NLzma::CDecoder::QueryInterface`adjustor{8}'
; Function compile flags: /Odtp /RTCsu
_TEXT	ENDS
;	COMDAT ?Release@CDecoder@NLzma@NCompress@@WBI@AGKXZ
_TEXT	SEGMENT
?Release@CDecoder@NLzma@NCompress@@WBI@AGKXZ PROC	; [thunk]:NCompress::NLzma::CDecoder::Release`adjustor{24}', COMDAT
	sub	DWORD PTR [esp+4], 24			; 00000018H
	jmp	?Release@CDecoder@NLzma@NCompress@@UAGKXZ ; NCompress::NLzma::CDecoder::Release
?Release@CDecoder@NLzma@NCompress@@WBI@AGKXZ ENDP	; [thunk]:NCompress::NLzma::CDecoder::Release`adjustor{24}'
; Function compile flags: /Odtp /RTCsu
_TEXT	ENDS
;	COMDAT ?AddRef@CDecoder@NLzma@NCompress@@WBA@AGKXZ
_TEXT	SEGMENT
?AddRef@CDecoder@NLzma@NCompress@@WBA@AGKXZ PROC	; [thunk]:NCompress::NLzma::CDecoder::AddRef`adjustor{16}', COMDAT
	sub	DWORD PTR [esp+4], 16			; 00000010H
	jmp	?AddRef@CDecoder@NLzma@NCompress@@UAGKXZ ; NCompress::NLzma::CDecoder::AddRef
?AddRef@CDecoder@NLzma@NCompress@@WBA@AGKXZ ENDP	; [thunk]:NCompress::NLzma::CDecoder::AddRef`adjustor{16}'
; Function compile flags: /Odtp /RTCsu
_TEXT	ENDS
;	COMDAT ?QueryInterface@CDecoder@NLzma@NCompress@@WM@AGJABU_GUID@@PAPAX@Z
_TEXT	SEGMENT
?QueryInterface@CDecoder@NLzma@NCompress@@WM@AGJABU_GUID@@PAPAX@Z PROC ; [thunk]:NCompress::NLzma::CDecoder::QueryInterface`adjustor{12}', COMDAT
	sub	DWORD PTR [esp+4], 12			; 0000000cH
	jmp	?QueryInterface@CDecoder@NLzma@NCompress@@UAGJABU_GUID@@PAPAX@Z ; NCompress::NLzma::CDecoder::QueryInterface
?QueryInterface@CDecoder@NLzma@NCompress@@WM@AGJABU_GUID@@PAPAX@Z ENDP ; [thunk]:NCompress::NLzma::CDecoder::QueryInterface`adjustor{12}'
; Function compile flags: /Odtp /RTCsu
_TEXT	ENDS
;	COMDAT ?AddRef@CDecoder@NLzma@NCompress@@WBE@AGKXZ
_TEXT	SEGMENT
?AddRef@CDecoder@NLzma@NCompress@@WBE@AGKXZ PROC	; [thunk]:NCompress::NLzma::CDecoder::AddRef`adjustor{20}', COMDAT
	sub	DWORD PTR [esp+4], 20			; 00000014H
	jmp	?AddRef@CDecoder@NLzma@NCompress@@UAGKXZ ; NCompress::NLzma::CDecoder::AddRef
?AddRef@CDecoder@NLzma@NCompress@@WBE@AGKXZ ENDP	; [thunk]:NCompress::NLzma::CDecoder::AddRef`adjustor{20}'
; Function compile flags: /Odtp /RTCsu
_TEXT	ENDS
;	COMDAT ?QueryInterface@CDecoder@NLzma@NCompress@@WBA@AGJABU_GUID@@PAPAX@Z
_TEXT	SEGMENT
?QueryInterface@CDecoder@NLzma@NCompress@@WBA@AGJABU_GUID@@PAPAX@Z PROC ; [thunk]:NCompress::NLzma::CDecoder::QueryInterface`adjustor{16}', COMDAT
	sub	DWORD PTR [esp+4], 16			; 00000010H
	jmp	?QueryInterface@CDecoder@NLzma@NCompress@@UAGJABU_GUID@@PAPAX@Z ; NCompress::NLzma::CDecoder::QueryInterface
?QueryInterface@CDecoder@NLzma@NCompress@@WBA@AGJABU_GUID@@PAPAX@Z ENDP ; [thunk]:NCompress::NLzma::CDecoder::QueryInterface`adjustor{16}'
; Function compile flags: /Odtp /RTCsu
_TEXT	ENDS
;	COMDAT ?AddRef@CDecoder@NLzma@NCompress@@WBI@AGKXZ
_TEXT	SEGMENT
?AddRef@CDecoder@NLzma@NCompress@@WBI@AGKXZ PROC	; [thunk]:NCompress::NLzma::CDecoder::AddRef`adjustor{24}', COMDAT
	sub	DWORD PTR [esp+4], 24			; 00000018H
	jmp	?AddRef@CDecoder@NLzma@NCompress@@UAGKXZ ; NCompress::NLzma::CDecoder::AddRef
?AddRef@CDecoder@NLzma@NCompress@@WBI@AGKXZ ENDP	; [thunk]:NCompress::NLzma::CDecoder::AddRef`adjustor{24}'
; Function compile flags: /Odtp /RTCsu
_TEXT	ENDS
;	COMDAT ?QueryInterface@CDecoder@NLzma@NCompress@@WBE@AGJABU_GUID@@PAPAX@Z
_TEXT	SEGMENT
?QueryInterface@CDecoder@NLzma@NCompress@@WBE@AGJABU_GUID@@PAPAX@Z PROC ; [thunk]:NCompress::NLzma::CDecoder::QueryInterface`adjustor{20}', COMDAT
	sub	DWORD PTR [esp+4], 20			; 00000014H
	jmp	?QueryInterface@CDecoder@NLzma@NCompress@@UAGJABU_GUID@@PAPAX@Z ; NCompress::NLzma::CDecoder::QueryInterface
?QueryInterface@CDecoder@NLzma@NCompress@@WBE@AGJABU_GUID@@PAPAX@Z ENDP ; [thunk]:NCompress::NLzma::CDecoder::QueryInterface`adjustor{20}'
; Function compile flags: /Odtp /RTCsu
_TEXT	ENDS
;	COMDAT ?Release@CDecoder@NLzma@NCompress@@W3AGKXZ
_TEXT	SEGMENT
?Release@CDecoder@NLzma@NCompress@@W3AGKXZ PROC		; [thunk]:NCompress::NLzma::CDecoder::Release`adjustor{4}', COMDAT
	sub	DWORD PTR [esp+4], 4
	jmp	?Release@CDecoder@NLzma@NCompress@@UAGKXZ ; NCompress::NLzma::CDecoder::Release
?Release@CDecoder@NLzma@NCompress@@W3AGKXZ ENDP		; [thunk]:NCompress::NLzma::CDecoder::Release`adjustor{4}'
; Function compile flags: /Odtp /RTCsu
_TEXT	ENDS
;	COMDAT ?QueryInterface@CDecoder@NLzma@NCompress@@WBI@AGJABU_GUID@@PAPAX@Z
_TEXT	SEGMENT
?QueryInterface@CDecoder@NLzma@NCompress@@WBI@AGJABU_GUID@@PAPAX@Z PROC ; [thunk]:NCompress::NLzma::CDecoder::QueryInterface`adjustor{24}', COMDAT
	sub	DWORD PTR [esp+4], 24			; 00000018H
	jmp	?QueryInterface@CDecoder@NLzma@NCompress@@UAGJABU_GUID@@PAPAX@Z ; NCompress::NLzma::CDecoder::QueryInterface
?QueryInterface@CDecoder@NLzma@NCompress@@WBI@AGJABU_GUID@@PAPAX@Z ENDP ; [thunk]:NCompress::NLzma::CDecoder::QueryInterface`adjustor{24}'
; Function compile flags: /Odtp /RTCsu
_TEXT	ENDS
;	COMDAT ?Release@CDecoder@NLzma@NCompress@@W7AGKXZ
_TEXT	SEGMENT
?Release@CDecoder@NLzma@NCompress@@W7AGKXZ PROC		; [thunk]:NCompress::NLzma::CDecoder::Release`adjustor{8}', COMDAT
	sub	DWORD PTR [esp+4], 8
	jmp	?Release@CDecoder@NLzma@NCompress@@UAGKXZ ; NCompress::NLzma::CDecoder::Release
?Release@CDecoder@NLzma@NCompress@@W7AGKXZ ENDP		; [thunk]:NCompress::NLzma::CDecoder::Release`adjustor{8}'
; Function compile flags: /Odtp /RTCsu
_TEXT	ENDS
;	COMDAT ?Release@CDecoder@NLzma@NCompress@@WM@AGKXZ
_TEXT	SEGMENT
?Release@CDecoder@NLzma@NCompress@@WM@AGKXZ PROC	; [thunk]:NCompress::NLzma::CDecoder::Release`adjustor{12}', COMDAT
	sub	DWORD PTR [esp+4], 12			; 0000000cH
	jmp	?Release@CDecoder@NLzma@NCompress@@UAGKXZ ; NCompress::NLzma::CDecoder::Release
?Release@CDecoder@NLzma@NCompress@@WM@AGKXZ ENDP	; [thunk]:NCompress::NLzma::CDecoder::Release`adjustor{12}'
; Function compile flags: /Odtp /RTCsu
_TEXT	ENDS
;	COMDAT ?AddRef@CDecoder@NLzma@NCompress@@W3AGKXZ
_TEXT	SEGMENT
?AddRef@CDecoder@NLzma@NCompress@@W3AGKXZ PROC		; [thunk]:NCompress::NLzma::CDecoder::AddRef`adjustor{4}', COMDAT
	sub	DWORD PTR [esp+4], 4
	jmp	?AddRef@CDecoder@NLzma@NCompress@@UAGKXZ ; NCompress::NLzma::CDecoder::AddRef
?AddRef@CDecoder@NLzma@NCompress@@W3AGKXZ ENDP		; [thunk]:NCompress::NLzma::CDecoder::AddRef`adjustor{4}'
_TEXT	ENDS
END
