; Listing generated by Microsoft (R) Optimizing Compiler Version 16.00.40219.01 

	TITLE	C:\workspace\7z1505-src\CPP\7zip\UI\Common\OpenArchive.cpp
	.686P
	.XMM
	include listing.inc
	.model	flat

INCLUDELIB MSVCRTD
INCLUDELIB OLDNAMES

CONST	SEGMENT
_kProps	DB	03H
	DB	07H
	DB	0cH
	DB	014H
	DB	01cH
	DB	024H
	DB	04eH
	ORG $+1
$SG73397 DB	'[', 00H, 'D', 00H, 'E', 00H, 'L', 00H, 'E', 00H, 'T', 00H
	DB	'E', 00H, 'D', 00H, ']', 00H, '\', 00H, 00H, 00H
	ORG $+2
$SG73679 DB	'exe', 00H
$SG73681 DB	'pe', 00H
	ORG $+1
$SG73682 DB	'elf', 00H
$SG73683 DB	'macho', 00H
	ORG $+2
$SG73684 DB	'mub', 00H
$SG73685 DB	'te', 00H
	ORG $+1
_k_PreArcFormats DD FLAT:$SG73681
	DD	FLAT:$SG73682
	DD	FLAT:$SG73683
	DD	FLAT:$SG73684
	DD	FLAT:$SG73685
$SG73701 DB	'7z', 00H
	ORG $+1
$SG73702 DB	'xz', 00H
	ORG $+1
$SG73703 DB	'rar', 00H
$SG73704 DB	'bzip2', 00H
	ORG $+2
$SG73705 DB	'gzip', 00H
	ORG $+3
$SG73706 DB	'cab', 00H
$SG73707 DB	'wim', 00H
$SG73708 DB	'rpm', 00H
$SG73709 DB	'vhd', 00H
$SG73710 DB	'xar', 00H
_k_Formats_with_simple_signuature DD FLAT:$SG73701
	DD	FLAT:$SG73702
	DD	FLAT:$SG73703
	DD	FLAT:$SG73704
	DD	FLAT:$SG73705
	DD	FLAT:$SG73706
	DD	FLAT:$SG73707
	DD	FLAT:$SG73708
	DD	FLAT:$SG73709
	DD	FLAT:$SG73710
$SG73878 DB	'U', 00H, 'n', 00H, 'k', 00H, 'n', 00H, 'o', 00H, 'w', 00H
	DB	'n', 00H, ' ', 00H, 'e', 00H, 'r', 00H, 'r', 00H, 'o', 00H, 'r'
	DB	00H, 00H, 00H
$SG73884 DB	'U', 00H, 'n', 00H, 'k', 00H, 'n', 00H, 'o', 00H, 'w', 00H
	DB	'n', 00H, ' ', 00H, 'w', 00H, 'a', 00H, 'r', 00H, 'n', 00H, 'i'
	DB	00H, 'n', 00H, 'g', 00H, 00H, 00H
$SG74318 DB	'000', 00H
$SG74319 DB	'001', 00H
$SG74322 DB	'rar', 00H
$SG74353 DB	'iso', 00H
$SG74356 DB	'udf', 00H
CONST	ENDS
PUBLIC	??A?$CObjectVector@UCParseItem@NParser@NArchive@@@@QBEABUCParseItem@NParser@NArchive@@I@Z ; CObjectVector<NArchive::NParser::CParseItem>::operator[]
PUBLIC	?Size@?$CObjectVector@UCParseItem@NParser@NArchive@@@@QBEIXZ ; CObjectVector<NArchive::NParser::CParseItem>::Size
PUBLIC	?FindInsertPos@CHandler@NParser@NArchive@@QBEHABUCParseItem@23@@Z ; NArchive::NParser::CHandler::FindInsertPos
EXTRN	__RTC_CheckEsp:PROC
EXTRN	__RTC_Shutdown:PROC
EXTRN	__RTC_InitBase:PROC
;	COMDAT rtc$TMZ
; File c:\workspace\7z1505-src\cpp\7zip\ui\common\openarchive.cpp
rtc$TMZ	SEGMENT
__RTC_Shutdown.rtc$TMZ DD FLAT:__RTC_Shutdown
rtc$TMZ	ENDS
;	COMDAT rtc$IMZ
rtc$IMZ	SEGMENT
__RTC_InitBase.rtc$IMZ DD FLAT:__RTC_InitBase
; Function compile flags: /Odtp /RTCsu
rtc$IMZ	ENDS
_TEXT	SEGMENT
tv166 = -52						; size = 4
tv165 = -48						; size = 4
tv153 = -44						; size = 4
tv152 = -40						; size = 4
tv140 = -36						; size = 4
tv139 = -32						; size = 4
tv95 = -28						; size = 4
tv94 = -24						; size = 4
_midItem$72911 = -20					; size = 4
_mid$72910 = -16					; size = 4
_right$ = -12						; size = 4
_left$ = -8						; size = 4
_this$ = -4						; size = 4
_item$ = 8						; size = 4
?FindInsertPos@CHandler@NParser@NArchive@@QBEHABUCParseItem@23@@Z PROC ; NArchive::NParser::CHandler::FindInsertPos
; _this$ = ecx
; Line 205
	push	ebp
	mov	ebp, esp
	sub	esp, 52					; 00000034H
	push	edi
	push	ecx
	lea	edi, DWORD PTR [ebp-52]
	mov	ecx, 13					; 0000000dH
	mov	eax, -858993460				; ccccccccH
	rep stosd
	pop	ecx
	mov	DWORD PTR _this$[ebp], ecx
; Line 206
	mov	DWORD PTR _left$[ebp], 0
	mov	ecx, DWORD PTR _this$[ebp]
	add	ecx, 12					; 0000000cH
	call	?Size@?$CObjectVector@UCParseItem@NParser@NArchive@@@@QBEIXZ ; CObjectVector<NArchive::NParser::CParseItem>::Size
	mov	DWORD PTR _right$[ebp], eax
$LN10@FindInsert:
; Line 207
	mov	eax, DWORD PTR _left$[ebp]
	cmp	eax, DWORD PTR _right$[ebp]
	je	$LN9@FindInsert
; Line 209
	mov	ecx, DWORD PTR _left$[ebp]
	add	ecx, DWORD PTR _right$[ebp]
	shr	ecx, 1
	mov	DWORD PTR _mid$72910[ebp], ecx
; Line 210
	mov	edx, DWORD PTR _mid$72910[ebp]
	push	edx
	mov	ecx, DWORD PTR _this$[ebp]
	add	ecx, 12					; 0000000cH
	call	??A?$CObjectVector@UCParseItem@NParser@NArchive@@@@QBEABUCParseItem@NParser@NArchive@@I@Z ; CObjectVector<NArchive::NParser::CParseItem>::operator[]
	mov	DWORD PTR _midItem$72911[ebp], eax
; Line 211
	mov	eax, DWORD PTR _item$[ebp]
	mov	ecx, DWORD PTR _midItem$72911[ebp]
	mov	DWORD PTR tv94[ebp], eax
	mov	DWORD PTR tv95[ebp], ecx
	mov	edx, DWORD PTR tv94[ebp]
	mov	eax, DWORD PTR tv95[ebp]
	mov	ecx, DWORD PTR [edx+4]
	cmp	ecx, DWORD PTR [eax+4]
	ja	SHORT $LN8@FindInsert
	jb	SHORT $LN13@FindInsert
	mov	edx, DWORD PTR tv94[ebp]
	mov	eax, DWORD PTR tv95[ebp]
	mov	ecx, DWORD PTR [edx]
	cmp	ecx, DWORD PTR [eax]
	jae	SHORT $LN8@FindInsert
$LN13@FindInsert:
; Line 212
	mov	edx, DWORD PTR _mid$72910[ebp]
	mov	DWORD PTR _right$[ebp], edx
	jmp	$LN7@FindInsert
$LN8@FindInsert:
; Line 213
	mov	eax, DWORD PTR _item$[ebp]
	mov	ecx, DWORD PTR _midItem$72911[ebp]
	mov	DWORD PTR tv139[ebp], eax
	mov	DWORD PTR tv140[ebp], ecx
	mov	edx, DWORD PTR tv139[ebp]
	mov	eax, DWORD PTR tv140[ebp]
	mov	ecx, DWORD PTR [edx+4]
	cmp	ecx, DWORD PTR [eax+4]
	jb	SHORT $LN6@FindInsert
	ja	SHORT $LN14@FindInsert
	mov	edx, DWORD PTR tv139[ebp]
	mov	eax, DWORD PTR tv140[ebp]
	mov	ecx, DWORD PTR [edx]
	cmp	ecx, DWORD PTR [eax]
	jbe	SHORT $LN6@FindInsert
$LN14@FindInsert:
; Line 214
	mov	edx, DWORD PTR _mid$72910[ebp]
	add	edx, 1
	mov	DWORD PTR _left$[ebp], edx
	jmp	SHORT $LN7@FindInsert
$LN6@FindInsert:
; Line 215
	mov	eax, DWORD PTR _item$[ebp]
	mov	ecx, DWORD PTR _midItem$72911[ebp]
	mov	DWORD PTR tv152[ebp], eax
	mov	DWORD PTR tv153[ebp], ecx
	mov	edx, DWORD PTR tv152[ebp]
	mov	eax, DWORD PTR tv153[ebp]
	mov	ecx, DWORD PTR [edx+12]
	cmp	ecx, DWORD PTR [eax+12]
	ja	SHORT $LN4@FindInsert
	jb	SHORT $LN15@FindInsert
	mov	edx, DWORD PTR tv152[ebp]
	mov	eax, DWORD PTR tv153[ebp]
	mov	ecx, DWORD PTR [edx+8]
	cmp	ecx, DWORD PTR [eax+8]
	jae	SHORT $LN4@FindInsert
$LN15@FindInsert:
; Line 216
	mov	edx, DWORD PTR _mid$72910[ebp]
	mov	DWORD PTR _right$[ebp], edx
	jmp	SHORT $LN7@FindInsert
$LN4@FindInsert:
; Line 217
	mov	eax, DWORD PTR _item$[ebp]
	mov	ecx, DWORD PTR _midItem$72911[ebp]
	mov	DWORD PTR tv165[ebp], eax
	mov	DWORD PTR tv166[ebp], ecx
	mov	edx, DWORD PTR tv165[ebp]
	mov	eax, DWORD PTR tv166[ebp]
	mov	ecx, DWORD PTR [edx+12]
	cmp	ecx, DWORD PTR [eax+12]
	jb	SHORT $LN2@FindInsert
	ja	SHORT $LN16@FindInsert
	mov	edx, DWORD PTR tv165[ebp]
	mov	eax, DWORD PTR tv166[ebp]
	mov	ecx, DWORD PTR [edx+8]
	cmp	ecx, DWORD PTR [eax+8]
	jbe	SHORT $LN2@FindInsert
$LN16@FindInsert:
; Line 218
	mov	edx, DWORD PTR _mid$72910[ebp]
	add	edx, 1
	mov	DWORD PTR _left$[ebp], edx
; Line 219
	jmp	SHORT $LN7@FindInsert
$LN2@FindInsert:
; Line 221
	mov	eax, DWORD PTR _mid$72910[ebp]
	add	eax, 1
	mov	DWORD PTR _left$[ebp], eax
$LN7@FindInsert:
; Line 224
	jmp	$LN10@FindInsert
$LN9@FindInsert:
; Line 225
	mov	eax, DWORD PTR _left$[ebp]
; Line 226
	pop	edi
	add	esp, 52					; 00000034H
	cmp	ebp, esp
	call	__RTC_CheckEsp
	mov	esp, ebp
	pop	ebp
	ret	4
?FindInsertPos@CHandler@NParser@NArchive@@QBEHABUCParseItem@23@@Z ENDP ; NArchive::NParser::CHandler::FindInsertPos
_TEXT	ENDS
PUBLIC	?Back@?$CObjectVector@UCParseItem@NParser@NArchive@@@@QAEAAUCParseItem@NParser@NArchive@@XZ ; CObjectVector<NArchive::NParser::CParseItem>::Back
PUBLIC	?IsEmpty@?$CObjectVector@UCParseItem@NParser@NArchive@@@@QBE_NXZ ; CObjectVector<NArchive::NParser::CParseItem>::IsEmpty
PUBLIC	??1CParseItem@NParser@NArchive@@QAE@XZ		; NArchive::NParser::CParseItem::~CParseItem
PUBLIC	?Add@?$CObjectVector@UCParseItem@NParser@NArchive@@@@QAEIABUCParseItem@NParser@NArchive@@@Z ; CObjectVector<NArchive::NParser::CParseItem>::Add
PUBLIC	??0CParseItem@NParser@NArchive@@QAE@XZ		; NArchive::NParser::CParseItem::CParseItem
PUBLIC	?AddUnknownItem@CHandler@NParser@NArchive@@QAEX_K@Z ; NArchive::NParser::CHandler::AddUnknownItem
EXTRN	___security_cookie:DWORD
EXTRN	___CxxFrameHandler3:PROC
EXTRN	@__security_check_cookie@4:PROC
EXTRN	@_RTC_CheckStackVars@8:PROC
xdata$x	SEGMENT
__unwindtable$?AddUnknownItem@CHandler@NParser@NArchive@@QAEX_K@Z DD 0ffffffffH
	DD	FLAT:__unwindfunclet$?AddUnknownItem@CHandler@NParser@NArchive@@QAEX_K@Z$0
__ehfuncinfo$?AddUnknownItem@CHandler@NParser@NArchive@@QAEX_K@Z DD 019930522H
	DD	01H
	DD	FLAT:__unwindtable$?AddUnknownItem@CHandler@NParser@NArchive@@QAEX_K@Z
	DD	2 DUP(00H)
	DD	2 DUP(00H)
	DD	00H
	DD	01H
; Function compile flags: /Odtp /RTCsu
xdata$x	ENDS
_TEXT	SEGMENT
tv150 = -148						; size = 4
tv93 = -144						; size = 4
_back$72928 = -140					; size = 4
_item2$72925 = -132					; size = 112
_this$ = -16						; size = 4
__$EHRec$ = -12						; size = 12
_next$ = 8						; size = 8
?AddUnknownItem@CHandler@NParser@NArchive@@QAEX_K@Z PROC ; NArchive::NParser::CHandler::AddUnknownItem
; _this$ = ecx
; Line 229
	push	ebp
	mov	ebp, esp
	push	-1
	push	__ehhandler$?AddUnknownItem@CHandler@NParser@NArchive@@QAEX_K@Z
	mov	eax, DWORD PTR fs:0
	push	eax
	sub	esp, 136				; 00000088H
	push	edi
	push	ecx
	lea	edi, DWORD PTR [ebp-148]
	mov	ecx, 34					; 00000022H
	mov	eax, -858993460				; ccccccccH
	rep stosd
	pop	ecx
	mov	eax, DWORD PTR ___security_cookie
	xor	eax, ebp
	push	eax
	lea	eax, DWORD PTR __$EHRec$[ebp]
	mov	DWORD PTR fs:0, eax
	mov	DWORD PTR _this$[ebp], ecx
; Line 238
	mov	eax, DWORD PTR _this$[ebp]
	mov	DWORD PTR tv93[ebp], eax
	mov	ecx, DWORD PTR tv93[ebp]
	mov	edx, DWORD PTR [ecx+28]
	cmp	edx, DWORD PTR _next$[ebp+4]
	ja	$LN4@AddUnknown
	jb	SHORT $LN8@AddUnknown
	mov	eax, DWORD PTR tv93[ebp]
	mov	ecx, DWORD PTR [eax+24]
	cmp	ecx, DWORD PTR _next$[ebp]
	jae	SHORT $LN4@AddUnknown
$LN8@AddUnknown:
; Line 240
	lea	ecx, DWORD PTR _item2$72925[ebp]
	call	??0CParseItem@NParser@NArchive@@QAE@XZ	; NArchive::NParser::CParseItem::CParseItem
	mov	DWORD PTR __$EHRec$[ebp+8], 0
; Line 241
	mov	edx, DWORD PTR _this$[ebp]
	mov	eax, DWORD PTR [edx+24]
	mov	DWORD PTR _item2$72925[ebp], eax
	mov	ecx, DWORD PTR [edx+28]
	mov	DWORD PTR _item2$72925[ebp+4], ecx
; Line 242
	mov	edx, DWORD PTR _this$[ebp]
	mov	eax, DWORD PTR _next$[ebp]
	sub	eax, DWORD PTR [edx+24]
	mov	ecx, DWORD PTR _next$[ebp+4]
	sbb	ecx, DWORD PTR [edx+28]
	mov	DWORD PTR _item2$72925[ebp+8], eax
	mov	DWORD PTR _item2$72925[ebp+12], ecx
; Line 243
	mov	edx, DWORD PTR _this$[ebp]
	mov	eax, DWORD PTR _next$[ebp]
	mov	DWORD PTR [edx+24], eax
	mov	ecx, DWORD PTR _next$[ebp+4]
	mov	DWORD PTR [edx+28], ecx
; Line 244
	lea	edx, DWORD PTR _item2$72925[ebp]
	push	edx
	mov	ecx, DWORD PTR _this$[ebp]
	add	ecx, 12					; 0000000cH
	call	?Add@?$CObjectVector@UCParseItem@NParser@NArchive@@@@QAEIABUCParseItem@NParser@NArchive@@@Z ; CObjectVector<NArchive::NParser::CParseItem>::Add
; Line 245
	mov	DWORD PTR __$EHRec$[ebp+8], -1
	lea	ecx, DWORD PTR _item2$72925[ebp]
	call	??1CParseItem@NParser@NArchive@@QAE@XZ
	jmp	$LN5@AddUnknown
$LN4@AddUnknown:
; Line 246
	mov	eax, DWORD PTR _this$[ebp]
	mov	DWORD PTR tv150[ebp], eax
	mov	ecx, DWORD PTR tv150[ebp]
	mov	edx, DWORD PTR [ecx+28]
	cmp	edx, DWORD PTR _next$[ebp+4]
	jb	SHORT $LN5@AddUnknown
	ja	SHORT $LN9@AddUnknown
	mov	eax, DWORD PTR tv150[ebp]
	mov	ecx, DWORD PTR [eax+24]
	cmp	ecx, DWORD PTR _next$[ebp]
	jbe	SHORT $LN5@AddUnknown
$LN9@AddUnknown:
	mov	ecx, DWORD PTR _this$[ebp]
	add	ecx, 12					; 0000000cH
	call	?IsEmpty@?$CObjectVector@UCParseItem@NParser@NArchive@@@@QBE_NXZ ; CObjectVector<NArchive::NParser::CParseItem>::IsEmpty
	movzx	edx, al
	test	edx, edx
	jne	SHORT $LN5@AddUnknown
; Line 248
	mov	ecx, DWORD PTR _this$[ebp]
	add	ecx, 12					; 0000000cH
	call	?Back@?$CObjectVector@UCParseItem@NParser@NArchive@@@@QAEAAUCParseItem@NParser@NArchive@@XZ ; CObjectVector<NArchive::NParser::CParseItem>::Back
	mov	DWORD PTR _back$72928[ebp], eax
; Line 249
	mov	eax, DWORD PTR _back$72928[ebp]
	movzx	ecx, BYTE PTR [eax+108]
	test	ecx, ecx
	je	SHORT $LN5@AddUnknown
; Line 251
	mov	edx, DWORD PTR _back$72928[ebp]
	mov	eax, DWORD PTR _next$[ebp]
	sub	eax, DWORD PTR [edx]
	mov	ecx, DWORD PTR _next$[ebp+4]
	sbb	ecx, DWORD PTR [edx+4]
	mov	edx, DWORD PTR _back$72928[ebp]
	mov	DWORD PTR [edx+8], eax
	mov	DWORD PTR [edx+12], ecx
; Line 252
	mov	eax, DWORD PTR _this$[ebp]
	mov	ecx, DWORD PTR _next$[ebp]
	mov	DWORD PTR [eax+24], ecx
	mov	edx, DWORD PTR _next$[ebp+4]
	mov	DWORD PTR [eax+28], edx
$LN5@AddUnknown:
; Line 255
	push	edx
	mov	ecx, ebp
	push	eax
	lea	edx, DWORD PTR $LN13@AddUnknown
	call	@_RTC_CheckStackVars@8
	pop	eax
	pop	edx
	mov	ecx, DWORD PTR __$EHRec$[ebp]
	mov	DWORD PTR fs:0, ecx
	pop	ecx
	pop	edi
	add	esp, 148				; 00000094H
	cmp	ebp, esp
	call	__RTC_CheckEsp
	mov	esp, ebp
	pop	ebp
	ret	8
$LN13@AddUnknown:
	DD	1
	DD	$LN12@AddUnknown
$LN12@AddUnknown:
	DD	-132					; ffffff7cH
	DD	112					; 00000070H
	DD	$LN10@AddUnknown
$LN10@AddUnknown:
	DB	105					; 00000069H
	DB	116					; 00000074H
	DB	101					; 00000065H
	DB	109					; 0000006dH
	DB	50					; 00000032H
	DB	0
_TEXT	ENDS
text$x	SEGMENT
__unwindfunclet$?AddUnknownItem@CHandler@NParser@NArchive@@QAEX_K@Z$0:
	lea	ecx, DWORD PTR _item2$72925[ebp]
	jmp	??1CParseItem@NParser@NArchive@@QAE@XZ
__ehhandler$?AddUnknownItem@CHandler@NParser@NArchive@@QAEX_K@Z:
	mov	edx, DWORD PTR [esp+8]
	lea	eax, DWORD PTR [edx+12]
	mov	ecx, DWORD PTR [edx-144]
	xor	ecx, eax
	call	@__security_check_cookie@4
	mov	eax, OFFSET __ehfuncinfo$?AddUnknownItem@CHandler@NParser@NArchive@@QAEX_K@Z
	jmp	___CxxFrameHandler3
text$x	ENDS
?AddUnknownItem@CHandler@NParser@NArchive@@QAEX_K@Z ENDP ; NArchive::NParser::CHandler::AddUnknownItem
PUBLIC	??1UString@@QAE@XZ				; UString::~UString
EXTRN	??0UString@@QAE@XZ:PROC				; UString::UString
;	COMDAT xdata$x
xdata$x	SEGMENT
__unwindtable$??0CParseItem@NParser@NArchive@@QAE@XZ DD 0ffffffffH
	DD	FLAT:__unwindfunclet$??0CParseItem@NParser@NArchive@@QAE@XZ$0
	DD	00H
	DD	FLAT:__unwindfunclet$??0CParseItem@NParser@NArchive@@QAE@XZ$1
	DD	01H
	DD	FLAT:__unwindfunclet$??0CParseItem@NParser@NArchive@@QAE@XZ$2
__ehfuncinfo$??0CParseItem@NParser@NArchive@@QAE@XZ DD 019930522H
	DD	03H
	DD	FLAT:__unwindtable$??0CParseItem@NParser@NArchive@@QAE@XZ
	DD	2 DUP(00H)
	DD	2 DUP(00H)
	DD	00H
	DD	01H
; Function compile flags: /Odtp /RTCsu
xdata$x	ENDS
;	COMDAT ??0CParseItem@NParser@NArchive@@QAE@XZ
_TEXT	SEGMENT
_this$ = -16						; size = 4
__$EHRec$ = -12						; size = 12
??0CParseItem@NParser@NArchive@@QAE@XZ PROC		; NArchive::NParser::CParseItem::CParseItem, COMDAT
; _this$ = ecx
; Line 152
	push	ebp
	mov	ebp, esp
	push	-1
	push	__ehhandler$??0CParseItem@NParser@NArchive@@QAE@XZ
	mov	eax, DWORD PTR fs:0
	push	eax
	push	ecx
	mov	DWORD PTR [ebp-16], -858993460		; ccccccccH
	mov	eax, DWORD PTR ___security_cookie
	xor	eax, ebp
	push	eax
	lea	eax, DWORD PTR __$EHRec$[ebp]
	mov	DWORD PTR fs:0, eax
	mov	DWORD PTR _this$[ebp], ecx
	mov	ecx, DWORD PTR _this$[ebp]
	add	ecx, 16					; 00000010H
	call	??0UString@@QAE@XZ			; UString::UString
	mov	DWORD PTR __$EHRec$[ebp+8], 0
	mov	ecx, DWORD PTR _this$[ebp]
	add	ecx, 28					; 0000001cH
	call	??0UString@@QAE@XZ			; UString::UString
	mov	BYTE PTR __$EHRec$[ebp+8], 1
	mov	ecx, DWORD PTR _this$[ebp]
	add	ecx, 48					; 00000030H
	call	??0UString@@QAE@XZ			; UString::UString
	mov	BYTE PTR __$EHRec$[ebp+8], 2
	mov	ecx, DWORD PTR _this$[ebp]
	add	ecx, 60					; 0000003cH
	call	??0UString@@QAE@XZ			; UString::UString
	mov	eax, DWORD PTR _this$[ebp]
	mov	BYTE PTR [eax+72], 0
	mov	ecx, DWORD PTR _this$[ebp]
	mov	BYTE PTR [ecx+73], 0
	mov	edx, DWORD PTR _this$[ebp]
	mov	BYTE PTR [edx+74], 0
	mov	eax, DWORD PTR _this$[ebp]
	mov	BYTE PTR [eax+75], 0
	mov	ecx, DWORD PTR _this$[ebp]
	mov	BYTE PTR [ecx+76], 0
	mov	edx, DWORD PTR _this$[ebp]
	mov	BYTE PTR [edx+77], 0
	mov	eax, DWORD PTR _this$[ebp]
	mov	BYTE PTR [eax+108], 0
	mov	DWORD PTR __$EHRec$[ebp+8], -1
	mov	eax, DWORD PTR _this$[ebp]
	mov	ecx, DWORD PTR __$EHRec$[ebp]
	mov	DWORD PTR fs:0, ecx
	pop	ecx
	add	esp, 16					; 00000010H
	cmp	ebp, esp
	call	__RTC_CheckEsp
	mov	esp, ebp
	pop	ebp
	ret	0
_TEXT	ENDS
;	COMDAT text$x
text$x	SEGMENT
__unwindfunclet$??0CParseItem@NParser@NArchive@@QAE@XZ$0:
	mov	ecx, DWORD PTR _this$[ebp]
	add	ecx, 16					; 00000010H
	jmp	??1UString@@QAE@XZ			; UString::~UString
__unwindfunclet$??0CParseItem@NParser@NArchive@@QAE@XZ$1:
	mov	ecx, DWORD PTR _this$[ebp]
	add	ecx, 28					; 0000001cH
	jmp	??1UString@@QAE@XZ			; UString::~UString
__unwindfunclet$??0CParseItem@NParser@NArchive@@QAE@XZ$2:
	mov	ecx, DWORD PTR _this$[ebp]
	add	ecx, 48					; 00000030H
	jmp	??1UString@@QAE@XZ			; UString::~UString
__ehhandler$??0CParseItem@NParser@NArchive@@QAE@XZ:
	mov	edx, DWORD PTR [esp+8]
	lea	eax, DWORD PTR [edx+12]
	mov	ecx, DWORD PTR [edx-8]
	xor	ecx, eax
	call	@__security_check_cookie@4
	mov	eax, OFFSET __ehfuncinfo$??0CParseItem@NParser@NArchive@@QAE@XZ
	jmp	___CxxFrameHandler3
text$x	ENDS
??0CParseItem@NParser@NArchive@@QAE@XZ ENDP		; NArchive::NParser::CParseItem::CParseItem
EXTRN	??3@YAXPAX@Z:PROC				; operator delete
; Function compile flags: /Odtp /RTCsu
;	COMDAT ??1UString@@QAE@XZ
_TEXT	SEGMENT
$T77243 = -8						; size = 4
_this$ = -4						; size = 4
??1UString@@QAE@XZ PROC					; UString::~UString, COMDAT
; _this$ = ecx
; File c:\workspace\7z1505-src\cpp\common\mystring.h
; Line 470
	push	ebp
	mov	ebp, esp
	sub	esp, 8
	mov	DWORD PTR [ebp-8], -858993460		; ccccccccH
	mov	DWORD PTR [ebp-4], -858993460		; ccccccccH
	mov	DWORD PTR _this$[ebp], ecx
	mov	eax, DWORD PTR _this$[ebp]
	mov	ecx, DWORD PTR [eax]
	mov	DWORD PTR $T77243[ebp], ecx
	mov	edx, DWORD PTR $T77243[ebp]
	push	edx
	call	??3@YAXPAX@Z				; operator delete
	add	esp, 4
	add	esp, 8
	cmp	ebp, esp
	call	__RTC_CheckEsp
	mov	esp, ebp
	pop	ebp
	ret	0
??1UString@@QAE@XZ ENDP					; UString::~UString
_TEXT	ENDS
;	COMDAT xdata$x
xdata$x	SEGMENT
__unwindtable$??1CParseItem@NParser@NArchive@@QAE@XZ DD 0ffffffffH
	DD	FLAT:__unwindfunclet$??1CParseItem@NParser@NArchive@@QAE@XZ$0
	DD	00H
	DD	FLAT:__unwindfunclet$??1CParseItem@NParser@NArchive@@QAE@XZ$1
	DD	01H
	DD	FLAT:__unwindfunclet$??1CParseItem@NParser@NArchive@@QAE@XZ$2
__ehfuncinfo$??1CParseItem@NParser@NArchive@@QAE@XZ DD 019930522H
	DD	03H
	DD	FLAT:__unwindtable$??1CParseItem@NParser@NArchive@@QAE@XZ
	DD	2 DUP(00H)
	DD	2 DUP(00H)
	DD	00H
	DD	01H
; Function compile flags: /Odtp /RTCsu
xdata$x	ENDS
;	COMDAT ??1CParseItem@NParser@NArchive@@QAE@XZ
_TEXT	SEGMENT
_this$ = -16						; size = 4
__$EHRec$ = -12						; size = 12
??1CParseItem@NParser@NArchive@@QAE@XZ PROC		; NArchive::NParser::CParseItem::~CParseItem, COMDAT
; _this$ = ecx
	push	ebp
	mov	ebp, esp
	push	-1
	push	__ehhandler$??1CParseItem@NParser@NArchive@@QAE@XZ
	mov	eax, DWORD PTR fs:0
	push	eax
	push	ecx
	mov	DWORD PTR [ebp-16], -858993460		; ccccccccH
	mov	eax, DWORD PTR ___security_cookie
	xor	eax, ebp
	push	eax
	lea	eax, DWORD PTR __$EHRec$[ebp]
	mov	DWORD PTR fs:0, eax
	mov	DWORD PTR _this$[ebp], ecx
	mov	DWORD PTR __$EHRec$[ebp+8], 2
	mov	ecx, DWORD PTR _this$[ebp]
	add	ecx, 60					; 0000003cH
	call	??1UString@@QAE@XZ			; UString::~UString
	mov	BYTE PTR __$EHRec$[ebp+8], 1
	mov	ecx, DWORD PTR _this$[ebp]
	add	ecx, 48					; 00000030H
	call	??1UString@@QAE@XZ			; UString::~UString
	mov	BYTE PTR __$EHRec$[ebp+8], 0
	mov	ecx, DWORD PTR _this$[ebp]
	add	ecx, 28					; 0000001cH
	call	??1UString@@QAE@XZ			; UString::~UString
	mov	DWORD PTR __$EHRec$[ebp+8], -1
	mov	ecx, DWORD PTR _this$[ebp]
	add	ecx, 16					; 00000010H
	call	??1UString@@QAE@XZ			; UString::~UString
	mov	ecx, DWORD PTR __$EHRec$[ebp]
	mov	DWORD PTR fs:0, ecx
	pop	ecx
	add	esp, 16					; 00000010H
	cmp	ebp, esp
	call	__RTC_CheckEsp
	mov	esp, ebp
	pop	ebp
	ret	0
_TEXT	ENDS
;	COMDAT text$x
text$x	SEGMENT
__unwindfunclet$??1CParseItem@NParser@NArchive@@QAE@XZ$0:
	mov	ecx, DWORD PTR _this$[ebp]
	add	ecx, 16					; 00000010H
	jmp	??1UString@@QAE@XZ			; UString::~UString
__unwindfunclet$??1CParseItem@NParser@NArchive@@QAE@XZ$1:
	mov	ecx, DWORD PTR _this$[ebp]
	add	ecx, 28					; 0000001cH
	jmp	??1UString@@QAE@XZ			; UString::~UString
__unwindfunclet$??1CParseItem@NParser@NArchive@@QAE@XZ$2:
	mov	ecx, DWORD PTR _this$[ebp]
	add	ecx, 48					; 00000030H
	jmp	??1UString@@QAE@XZ			; UString::~UString
__ehhandler$??1CParseItem@NParser@NArchive@@QAE@XZ:
	mov	edx, DWORD PTR [esp+8]
	lea	eax, DWORD PTR [edx+12]
	mov	ecx, DWORD PTR [edx-8]
	xor	ecx, eax
	call	@__security_check_cookie@4
	mov	eax, OFFSET __ehfuncinfo$??1CParseItem@NParser@NArchive@@QAE@XZ
	jmp	___CxxFrameHandler3
text$x	ENDS
??1CParseItem@NParser@NArchive@@QAE@XZ ENDP		; NArchive::NParser::CParseItem::~CParseItem
PUBLIC	?Insert@?$CObjectVector@UCParseItem@NParser@NArchive@@@@QAEXIABUCParseItem@NParser@NArchive@@@Z ; CObjectVector<NArchive::NParser::CParseItem>::Insert
PUBLIC	?AddItem@CHandler@NParser@NArchive@@QAEXABUCParseItem@23@@Z ; NArchive::NParser::CHandler::AddItem
; Function compile flags: /Odtp /RTCsu
_TEXT	SEGMENT
tv132 = -20						; size = 4
_next$72938 = -16					; size = 8
_pos$ = -8						; size = 4
_this$ = -4						; size = 4
_item$ = 8						; size = 4
?AddItem@CHandler@NParser@NArchive@@QAEXABUCParseItem@23@@Z PROC ; NArchive::NParser::CHandler::AddItem
; _this$ = ecx
; File c:\workspace\7z1505-src\cpp\7zip\ui\common\openarchive.cpp
; Line 258
	push	ebp
	mov	ebp, esp
	sub	esp, 20					; 00000014H
	mov	eax, -858993460				; ccccccccH
	mov	DWORD PTR [ebp-20], eax
	mov	DWORD PTR [ebp-16], eax
	mov	DWORD PTR [ebp-12], eax
	mov	DWORD PTR [ebp-8], eax
	mov	DWORD PTR [ebp-4], eax
	mov	DWORD PTR _this$[ebp], ecx
; Line 259
	mov	eax, DWORD PTR _item$[ebp]
	mov	ecx, DWORD PTR [eax+4]
	push	ecx
	mov	edx, DWORD PTR [eax]
	push	edx
	mov	ecx, DWORD PTR _this$[ebp]
	call	?AddUnknownItem@CHandler@NParser@NArchive@@QAEX_K@Z ; NArchive::NParser::CHandler::AddUnknownItem
; Line 260
	mov	eax, DWORD PTR _item$[ebp]
	push	eax
	mov	ecx, DWORD PTR _this$[ebp]
	call	?FindInsertPos@CHandler@NParser@NArchive@@QBEHABUCParseItem@23@@Z ; NArchive::NParser::CHandler::FindInsertPos
	mov	DWORD PTR _pos$[ebp], eax
; Line 261
	cmp	DWORD PTR _pos$[ebp], 0
	jl	SHORT $LN3@AddItem
; Line 263
	mov	ecx, DWORD PTR _item$[ebp]
	push	ecx
	mov	edx, DWORD PTR _pos$[ebp]
	push	edx
	mov	ecx, DWORD PTR _this$[ebp]
	add	ecx, 12					; 0000000cH
	call	?Insert@?$CObjectVector@UCParseItem@NParser@NArchive@@@@QAEXIABUCParseItem@NParser@NArchive@@@Z ; CObjectVector<NArchive::NParser::CParseItem>::Insert
; Line 264
	mov	eax, DWORD PTR _item$[ebp]
	mov	ecx, DWORD PTR _item$[ebp]
	mov	edx, DWORD PTR [eax]
	add	edx, DWORD PTR [ecx+8]
	mov	eax, DWORD PTR [eax+4]
	adc	eax, DWORD PTR [ecx+12]
	mov	DWORD PTR _next$72938[ebp], edx
	mov	DWORD PTR _next$72938[ebp+4], eax
; Line 265
	mov	ecx, DWORD PTR _this$[ebp]
	mov	DWORD PTR tv132[ebp], ecx
	mov	edx, DWORD PTR tv132[ebp]
	mov	eax, DWORD PTR [edx+28]
	cmp	eax, DWORD PTR _next$72938[ebp+4]
	ja	SHORT $LN3@AddItem
	jb	SHORT $LN5@AddItem
	mov	ecx, DWORD PTR tv132[ebp]
	mov	edx, DWORD PTR [ecx+24]
	cmp	edx, DWORD PTR _next$72938[ebp]
	jae	SHORT $LN3@AddItem
$LN5@AddItem:
; Line 266
	mov	eax, DWORD PTR _this$[ebp]
	mov	ecx, DWORD PTR _next$72938[ebp]
	mov	DWORD PTR [eax+24], ecx
	mov	edx, DWORD PTR _next$72938[ebp+4]
	mov	DWORD PTR [eax+28], edx
$LN3@AddItem:
; Line 268
	add	esp, 20					; 00000014H
	cmp	ebp, esp
	call	__RTC_CheckEsp
	mov	esp, ebp
	pop	ebp
	ret	4
?AddItem@CHandler@NParser@NArchive@@QAEXABUCParseItem@23@@Z ENDP ; NArchive::NParser::CHandler::AddItem
_TEXT	ENDS
PUBLIC	?GetNumberOfProperties@CHandler@NParser@NArchive@@UAGJPAI@Z ; NArchive::NParser::CHandler::GetNumberOfProperties
; Function compile flags: /Odtp /RTCsu
_TEXT	SEGMENT
_this$ = 8						; size = 4
_numProps$ = 12						; size = 4
?GetNumberOfProperties@CHandler@NParser@NArchive@@UAGJPAI@Z PROC ; NArchive::NParser::CHandler::GetNumberOfProperties
; Line 295
	push	ebp
	mov	ebp, esp
	mov	eax, DWORD PTR _numProps$[ebp]
	mov	DWORD PTR [eax], 7
	xor	eax, eax
	pop	ebp
	ret	8
?GetNumberOfProperties@CHandler@NParser@NArchive@@UAGJPAI@Z ENDP ; NArchive::NParser::CHandler::GetNumberOfProperties
_TEXT	ENDS
PUBLIC	?GetPropertyInfo@CHandler@NParser@NArchive@@UAGJIPAPA_WPAKPAG@Z ; NArchive::NParser::CHandler::GetPropertyInfo
EXTRN	?k7z_PROPID_To_VARTYPE@@3QBEB:BYTE		; k7z_PROPID_To_VARTYPE
; Function compile flags: /Odtp /RTCsu
_TEXT	SEGMENT
_this$ = 8						; size = 4
_index$ = 12						; size = 4
_name$ = 16						; size = 4
_propID$ = 20						; size = 4
_varType$ = 24						; size = 4
?GetPropertyInfo@CHandler@NParser@NArchive@@UAGJIPAPA_WPAKPAG@Z PROC ; NArchive::NParser::CHandler::GetPropertyInfo
; Line 295
	push	ebp
	mov	ebp, esp
	cmp	DWORD PTR _index$[ebp], 7
	jb	SHORT $LN1@GetPropert
	mov	eax, -2147024809			; 80070057H
	jmp	SHORT $LN2@GetPropert
$LN1@GetPropert:
	mov	eax, DWORD PTR _index$[ebp]
	movzx	ecx, BYTE PTR _kProps[eax]
	mov	edx, DWORD PTR _propID$[ebp]
	mov	DWORD PTR [edx], ecx
	mov	eax, DWORD PTR _propID$[ebp]
	mov	ecx, DWORD PTR [eax]
	movzx	dx, BYTE PTR ?k7z_PROPID_To_VARTYPE@@3QBEB[ecx]
	mov	eax, DWORD PTR _varType$[ebp]
	mov	WORD PTR [eax], dx
	mov	ecx, DWORD PTR _name$[ebp]
	mov	DWORD PTR [ecx], 0
	xor	eax, eax
$LN2@GetPropert:
	pop	ebp
	ret	20					; 00000014H
?GetPropertyInfo@CHandler@NParser@NArchive@@UAGJIPAPA_WPAKPAG@Z ENDP ; NArchive::NParser::CHandler::GetPropertyInfo
_TEXT	ENDS
PUBLIC	?GetNumberOfArchiveProperties@CHandler@NParser@NArchive@@UAGJPAI@Z ; NArchive::NParser::CHandler::GetNumberOfArchiveProperties
; Function compile flags: /Odtp /RTCsu
_TEXT	SEGMENT
_this$ = 8						; size = 4
_numProps$ = 12						; size = 4
?GetNumberOfArchiveProperties@CHandler@NParser@NArchive@@UAGJPAI@Z PROC ; NArchive::NParser::CHandler::GetNumberOfArchiveProperties
; Line 296
	push	ebp
	mov	ebp, esp
	mov	eax, DWORD PTR _numProps$[ebp]
	mov	DWORD PTR [eax], 0
	xor	eax, eax
	pop	ebp
	ret	8
?GetNumberOfArchiveProperties@CHandler@NParser@NArchive@@UAGJPAI@Z ENDP ; NArchive::NParser::CHandler::GetNumberOfArchiveProperties
_TEXT	ENDS
PUBLIC	?GetArchivePropertyInfo@CHandler@NParser@NArchive@@UAGJIPAPA_WPAKPAG@Z ; NArchive::NParser::CHandler::GetArchivePropertyInfo
; Function compile flags: /Odtp /RTCsu
_TEXT	SEGMENT
_this$ = 8						; size = 4
___formal$ = 12						; size = 4
___formal$ = 16						; size = 4
___formal$ = 20						; size = 4
___formal$ = 24						; size = 4
?GetArchivePropertyInfo@CHandler@NParser@NArchive@@UAGJIPAPA_WPAKPAG@Z PROC ; NArchive::NParser::CHandler::GetArchivePropertyInfo
; Line 296
	push	ebp
	mov	ebp, esp
	mov	eax, -2147467263			; 80004001H
	pop	ebp
	ret	20					; 00000014H
?GetArchivePropertyInfo@CHandler@NParser@NArchive@@UAGJIPAPA_WPAKPAG@Z ENDP ; NArchive::NParser::CHandler::GetArchivePropertyInfo
_TEXT	ENDS
PUBLIC	?GetArchiveProperty@CHandler@NParser@NArchive@@UAGJKPAUtagPROPVARIANT@@@Z ; NArchive::NParser::CHandler::GetArchiveProperty
; Function compile flags: /Odtp /RTCsu
_TEXT	SEGMENT
_this$ = 8						; size = 4
___formal$ = 12						; size = 4
_value$ = 16						; size = 4
?GetArchiveProperty@CHandler@NParser@NArchive@@UAGJKPAUtagPROPVARIANT@@@Z PROC ; NArchive::NParser::CHandler::GetArchiveProperty
; Line 296
	push	ebp
	mov	ebp, esp
	xor	eax, eax
	mov	ecx, DWORD PTR _value$[ebp]
	mov	WORD PTR [ecx], ax
	xor	eax, eax
	pop	ebp
	ret	12					; 0000000cH
?GetArchiveProperty@CHandler@NParser@NArchive@@UAGJKPAUtagPROPVARIANT@@@Z ENDP ; NArchive::NParser::CHandler::GetArchiveProperty
_TEXT	ENDS
PUBLIC	??4?$CMyComPtr@UIInStream@@@@QAEPAUIInStream@@PAU1@@Z ; CMyComPtr<IInStream>::operator=
PUBLIC	?Open@CHandler@NParser@NArchive@@UAGJPAUIInStream@@PB_KPAUIArchiveOpenCallback@@@Z ; NArchive::NParser::CHandler::Open
xdata$x	SEGMENT
__catchsym$?Open@CHandler@NParser@NArchive@@UAGJPAUIInStream@@PB_KPAUIArchiveOpenCallback@@@Z$2 DD 040H
	DD	00H
	DD	00H
	DD	FLAT:__catch$?Open@CHandler@NParser@NArchive@@UAGJPAUIInStream@@PB_KPAUIArchiveOpenCallback@@@Z$0
__unwindtable$?Open@CHandler@NParser@NArchive@@UAGJPAUIInStream@@PB_KPAUIArchiveOpenCallback@@@Z DD 0ffffffffH
	DD	00H
	DD	0ffffffffH
	DD	00H
__tryblocktable$?Open@CHandler@NParser@NArchive@@UAGJPAUIInStream@@PB_KPAUIArchiveOpenCallback@@@Z DD 00H
	DD	00H
	DD	01H
	DD	01H
	DD	FLAT:__catchsym$?Open@CHandler@NParser@NArchive@@UAGJPAUIInStream@@PB_KPAUIArchiveOpenCallback@@@Z$2
__ehfuncinfo$?Open@CHandler@NParser@NArchive@@UAGJPAUIInStream@@PB_KPAUIArchiveOpenCallback@@@Z DD 019930522H
	DD	02H
	DD	FLAT:__unwindtable$?Open@CHandler@NParser@NArchive@@UAGJPAUIInStream@@PB_KPAUIArchiveOpenCallback@@@Z
	DD	01H
	DD	FLAT:__tryblocktable$?Open@CHandler@NParser@NArchive@@UAGJPAUIInStream@@PB_KPAUIArchiveOpenCallback@@@Z
	DD	2 DUP(00H)
	DD	00H
	DD	01H
; Function compile flags: /Odtp /RTCsu
xdata$x	ENDS
_TEXT	SEGMENT
$T77265 = -20						; size = 4
__$EHRec$ = -16						; size = 16
_this$ = 8						; size = 4
_stream$ = 12						; size = 4
___formal$ = 16						; size = 4
___formal$ = 20						; size = 4
?Open@CHandler@NParser@NArchive@@UAGJPAUIInStream@@PB_KPAUIArchiveOpenCallback@@@Z PROC ; NArchive::NParser::CHandler::Open
; Line 299
	push	ebp
	mov	ebp, esp
	push	-1
	push	__ehhandler$?Open@CHandler@NParser@NArchive@@UAGJPAUIInStream@@PB_KPAUIArchiveOpenCallback@@@Z
	mov	eax, DWORD PTR fs:0
	push	eax
	push	ecx
	push	ecx
	push	ebx
	push	esi
	push	edi
	mov	DWORD PTR [ebp-20], -858993460		; ccccccccH
	mov	eax, DWORD PTR ___security_cookie
	xor	eax, ebp
	push	eax
	lea	eax, DWORD PTR __$EHRec$[ebp+4]
	mov	DWORD PTR fs:0, eax
	mov	DWORD PTR __$EHRec$[ebp], esp
; Line 300
	mov	DWORD PTR __$EHRec$[ebp+12], 0
; Line 302
	mov	esi, esp
	mov	eax, DWORD PTR _this$[ebp]
	push	eax
	mov	ecx, DWORD PTR _this$[ebp]
	mov	edx, DWORD PTR [ecx]
	mov	eax, DWORD PTR [edx+16]
	call	eax
	cmp	esi, esp
	call	__RTC_CheckEsp
; Line 303
	mov	ecx, DWORD PTR _stream$[ebp]
	push	ecx
	mov	ecx, DWORD PTR _this$[ebp]
	add	ecx, 32					; 00000020H
	call	??4?$CMyComPtr@UIInStream@@@@QAEPAUIInStream@@PAU1@@Z ; CMyComPtr<IInStream>::operator=
; Line 305
	xor	eax, eax
	jmp	SHORT $LN2@Open
__catch$?Open@CHandler@NParser@NArchive@@UAGJPAUIInStream@@PB_KPAUIArchiveOpenCallback@@@Z$0:
; Line 306
	mov	DWORD PTR $T77265[ebp], -2147024882	; 8007000eH
	mov	DWORD PTR __$EHRec$[ebp+12], -1
	mov	eax, $LN7@Open
	ret	0
	mov	eax, __tryend$?Open@CHandler@NParser@NArchive@@UAGJPAUIInStream@@PB_KPAUIArchiveOpenCallback@@@Z$1
	ret	0
__tryend$?Open@CHandler@NParser@NArchive@@UAGJPAUIInStream@@PB_KPAUIArchiveOpenCallback@@@Z$1:
	mov	DWORD PTR __$EHRec$[ebp+12], -1
	jmp	SHORT $LN2@Open
$LN7@Open:
	mov	eax, DWORD PTR $T77265[ebp]
$LN2@Open:
; Line 307
	mov	ecx, DWORD PTR __$EHRec$[ebp+4]
	mov	DWORD PTR fs:0, ecx
	pop	ecx
	pop	edi
	pop	esi
	pop	ebx
	add	esp, 20					; 00000014H
	cmp	ebp, esp
	call	__RTC_CheckEsp
	mov	esp, ebp
	pop	ebp
	ret	16					; 00000010H
_TEXT	ENDS
text$x	SEGMENT
__ehhandler$?Open@CHandler@NParser@NArchive@@UAGJPAUIInStream@@PB_KPAUIArchiveOpenCallback@@@Z:
	mov	edx, DWORD PTR [esp+8]
	lea	eax, DWORD PTR [edx+12]
	mov	ecx, DWORD PTR [edx-24]
	xor	ecx, eax
	call	@__security_check_cookie@4
	mov	eax, OFFSET __ehfuncinfo$?Open@CHandler@NParser@NArchive@@UAGJPAUIInStream@@PB_KPAUIArchiveOpenCallback@@@Z
	jmp	___CxxFrameHandler3
text$x	ENDS
?Open@CHandler@NParser@NArchive@@UAGJPAUIInStream@@PB_KPAUIArchiveOpenCallback@@@Z ENDP ; NArchive::NParser::CHandler::Open
PUBLIC	?Release@?$CMyComPtr@UIInStream@@@@QAEXXZ	; CMyComPtr<IInStream>::Release
PUBLIC	?Clear@?$CObjectVector@UCParseItem@NParser@NArchive@@@@QAEXXZ ; CObjectVector<NArchive::NParser::CParseItem>::Clear
PUBLIC	?Close@CHandler@NParser@NArchive@@UAGJXZ	; NArchive::NParser::CHandler::Close
; Function compile flags: /Odtp /RTCsu
_TEXT	SEGMENT
_this$ = 8						; size = 4
?Close@CHandler@NParser@NArchive@@UAGJXZ PROC		; NArchive::NParser::CHandler::Close
; Line 310
	push	ebp
	mov	ebp, esp
; Line 311
	mov	ecx, DWORD PTR _this$[ebp]
	add	ecx, 12					; 0000000cH
	call	?Clear@?$CObjectVector@UCParseItem@NParser@NArchive@@@@QAEXXZ ; CObjectVector<NArchive::NParser::CParseItem>::Clear
; Line 312
	mov	ecx, DWORD PTR _this$[ebp]
	add	ecx, 32					; 00000020H
	call	?Release@?$CMyComPtr@UIInStream@@@@QAEXXZ ; CMyComPtr<IInStream>::Release
; Line 313
	xor	eax, eax
; Line 314
	cmp	ebp, esp
	call	__RTC_CheckEsp
	pop	ebp
	ret	4
?Close@CHandler@NParser@NArchive@@UAGJXZ ENDP		; NArchive::NParser::CHandler::Close
_TEXT	ENDS
PUBLIC	?GetNumberOfItems@CHandler@NParser@NArchive@@UAGJPAI@Z ; NArchive::NParser::CHandler::GetNumberOfItems
; Function compile flags: /Odtp /RTCsu
_TEXT	SEGMENT
_this$ = 8						; size = 4
_numItems$ = 12						; size = 4
?GetNumberOfItems@CHandler@NParser@NArchive@@UAGJPAI@Z PROC ; NArchive::NParser::CHandler::GetNumberOfItems
; Line 317
	push	ebp
	mov	ebp, esp
; Line 318
	mov	ecx, DWORD PTR _this$[ebp]
	add	ecx, 12					; 0000000cH
	call	?Size@?$CObjectVector@UCParseItem@NParser@NArchive@@@@QBEIXZ ; CObjectVector<NArchive::NParser::CParseItem>::Size
	mov	ecx, DWORD PTR _numItems$[ebp]
	mov	DWORD PTR [ecx], eax
; Line 319
	xor	eax, eax
; Line 320
	cmp	ebp, esp
	call	__RTC_CheckEsp
	pop	ebp
	ret	8
?GetNumberOfItems@CHandler@NParser@NArchive@@UAGJPAI@Z ENDP ; NArchive::NParser::CHandler::GetNumberOfItems
_TEXT	ENDS
PUBLIC	??1CPropVariant@NCOM@NWindows@@QAE@XZ		; NWindows::NCOM::CPropVariant::~CPropVariant
PUBLIC	??YUString@@QAEAAV0@_W@Z			; UString::operator+=
PUBLIC	?IsEmpty@UString@@QBE_NXZ			; UString::IsEmpty
PUBLIC	??A?$CObjectVector@UCParseItem@NParser@NArchive@@@@QAEAAUCParseItem@NParser@NArchive@@I@Z ; CObjectVector<NArchive::NParser::CParseItem>::operator[]
PUBLIC	??0CPropVariant@NCOM@NWindows@@QAE@XZ		; NWindows::NCOM::CPropVariant::CPropVariant
PUBLIC	__$ArrayPad$
PUBLIC	?GetProperty@CHandler@NParser@NArchive@@UAGJIKPAUtagPROPVARIANT@@@Z ; NArchive::NParser::CHandler::GetProperty
EXTRN	?Detach@CPropVariant@NCOM@NWindows@@QAEJPAUtagPROPVARIANT@@@Z:PROC ; NWindows::NCOM::CPropVariant::Detach
EXTRN	??4CPropVariant@NCOM@NWindows@@QAEAAV012@ABU_FILETIME@@@Z:PROC ; NWindows::NCOM::CPropVariant::operator=
EXTRN	??4CPropVariant@NCOM@NWindows@@QAEAAV012@_K@Z:PROC ; NWindows::NCOM::CPropVariant::operator=
EXTRN	??4CPropVariant@NCOM@NWindows@@QAEAAV012@ABVUString@@@Z:PROC ; NWindows::NCOM::CPropVariant::operator=
EXTRN	??YUString@@QAEAAV0@ABV0@@Z:PROC		; UString::operator+=
EXTRN	??0UString@@QAE@PB_W@Z:PROC			; UString::UString
EXTRN	?ConvertUInt32ToString@@YGXIPA_W@Z:PROC		; ConvertUInt32ToString
xdata$x	SEGMENT
__catchsym$?GetProperty@CHandler@NParser@NArchive@@UAGJIKPAUtagPROPVARIANT@@@Z$4 DD 040H
	DD	00H
	DD	00H
	DD	FLAT:__catch$?GetProperty@CHandler@NParser@NArchive@@UAGJIKPAUtagPROPVARIANT@@@Z$0
__tryblocktable$?GetProperty@CHandler@NParser@NArchive@@UAGJIKPAUtagPROPVARIANT@@@Z DD 00H
	DD	02H
	DD	03H
	DD	01H
	DD	FLAT:__catchsym$?GetProperty@CHandler@NParser@NArchive@@UAGJIKPAUtagPROPVARIANT@@@Z$4
__unwindtable$?GetProperty@CHandler@NParser@NArchive@@UAGJIKPAUtagPROPVARIANT@@@Z DD 0ffffffffH
	DD	00H
	DD	00H
	DD	FLAT:__unwindfunclet$?GetProperty@CHandler@NParser@NArchive@@UAGJIKPAUtagPROPVARIANT@@@Z$2
	DD	01H
	DD	FLAT:__unwindfunclet$?GetProperty@CHandler@NParser@NArchive@@UAGJIKPAUtagPROPVARIANT@@@Z$3
	DD	0ffffffffH
	DD	00H
__ehfuncinfo$?GetProperty@CHandler@NParser@NArchive@@UAGJIKPAUtagPROPVARIANT@@@Z DD 019930522H
	DD	04H
	DD	FLAT:__unwindtable$?GetProperty@CHandler@NParser@NArchive@@UAGJIKPAUtagPROPVARIANT@@@Z
	DD	01H
	DD	FLAT:__tryblocktable$?GetProperty@CHandler@NParser@NArchive@@UAGJIKPAUtagPROPVARIANT@@@Z
	DD	2 DUP(00H)
	DD	00H
	DD	01H
; Function compile flags: /Odtp /RTCsu
xdata$x	ENDS
_TEXT	SEGMENT
tv193 = -168						; size = 1
tv192 = -167						; size = 1
tv191 = -166						; size = 1
tv190 = -165						; size = 1
tv189 = -164						; size = 4
tv71 = -160						; size = 4
tv188 = -156						; size = 4
tv187 = -152						; size = 4
$T77282 = -148						; size = 4
$T77281 = -144						; size = 4
_s$73010 = -136						; size = 12
_sz$73009 = -116					; size = 64
_item$73003 = -48					; size = 4
_prop$73002 = -40					; size = 16
__$ArrayPad$ = -20					; size = 4
__$EHRec$ = -16						; size = 16
_this$ = 8						; size = 4
_index$ = 12						; size = 4
_propID$ = 16						; size = 4
_value$ = 20						; size = 4
?GetProperty@CHandler@NParser@NArchive@@UAGJIKPAUtagPROPVARIANT@@@Z PROC ; NArchive::NParser::CHandler::GetProperty
; Line 323
	push	ebp
	mov	ebp, esp
	push	-1
	push	__ehhandler$?GetProperty@CHandler@NParser@NArchive@@UAGJIKPAUtagPROPVARIANT@@@Z
	mov	eax, DWORD PTR fs:0
	push	eax
	push	ecx
	sub	esp, 152				; 00000098H
	push	ebx
	push	esi
	push	edi
	lea	edi, DWORD PTR [ebp-168]
	mov	ecx, 38					; 00000026H
	mov	eax, -858993460				; ccccccccH
	rep stosd
	mov	eax, DWORD PTR ___security_cookie
	xor	eax, ebp
	mov	DWORD PTR __$ArrayPad$[ebp], eax
	push	eax
	lea	eax, DWORD PTR __$EHRec$[ebp+4]
	mov	DWORD PTR fs:0, eax
	mov	DWORD PTR __$EHRec$[ebp], esp
; Line 324
	mov	DWORD PTR __$EHRec$[ebp+12], 0
; Line 325
	lea	ecx, DWORD PTR _prop$73002[ebp]
	call	??0CPropVariant@NCOM@NWindows@@QAE@XZ	; NWindows::NCOM::CPropVariant::CPropVariant
	mov	DWORD PTR tv187[ebp], eax
	mov	BYTE PTR __$EHRec$[ebp+12], 1
; Line 327
	mov	eax, DWORD PTR _index$[ebp]
	push	eax
	mov	ecx, DWORD PTR _this$[ebp]
	add	ecx, 12					; 0000000cH
	call	??A?$CObjectVector@UCParseItem@NParser@NArchive@@@@QAEAAUCParseItem@NParser@NArchive@@I@Z ; CObjectVector<NArchive::NParser::CParseItem>::operator[]
	mov	DWORD PTR tv188[ebp], eax
	mov	ecx, DWORD PTR tv188[ebp]
	mov	DWORD PTR _item$73003[ebp], ecx
; Line 329
	mov	edx, DWORD PTR _propID$[ebp]
	mov	DWORD PTR tv71[ebp], edx
	mov	eax, DWORD PTR tv71[ebp]
	sub	eax, 3
	mov	DWORD PTR tv71[ebp], eax
	cmp	DWORD PTR tv71[ebp], 75			; 0000004bH
	ja	$LN18@GetPropert@2
	mov	ecx, DWORD PTR tv71[ebp]
	movzx	edx, BYTE PTR $LN30@GetPropert@2[ecx]
	jmp	DWORD PTR $LN37@GetPropert@2[edx*4]
$LN17@GetPropert@2:
; Line 334
	lea	eax, DWORD PTR _sz$73009[ebp]
	push	eax
	mov	ecx, DWORD PTR _index$[ebp]
	add	ecx, 1
	push	ecx
	call	?ConvertUInt32ToString@@YGXIPA_W@Z	; ConvertUInt32ToString
; Line 335
	lea	edx, DWORD PTR _sz$73009[ebp]
	push	edx
	lea	ecx, DWORD PTR _s$73010[ebp]
	call	??0UString@@QAE@PB_W@Z			; UString::UString
	mov	DWORD PTR tv189[ebp], eax
	mov	BYTE PTR __$EHRec$[ebp+12], 2
; Line 336
	mov	ecx, DWORD PTR _item$73003[ebp]
	add	ecx, 16					; 00000010H
	call	?IsEmpty@UString@@QBE_NXZ		; UString::IsEmpty
	mov	BYTE PTR tv190[ebp], al
	movzx	eax, BYTE PTR tv190[ebp]
	test	eax, eax
	jne	SHORT $LN16@GetPropert@2
; Line 338
	push	46					; 0000002eH
	lea	ecx, DWORD PTR _s$73010[ebp]
	call	??YUString@@QAEAAV0@_W@Z		; UString::operator+=
; Line 339
	mov	ecx, DWORD PTR _item$73003[ebp]
	add	ecx, 16					; 00000010H
	push	ecx
	lea	ecx, DWORD PTR _s$73010[ebp]
	call	??YUString@@QAEAAV0@ABV0@@Z		; UString::operator+=
$LN16@GetPropert@2:
; Line 341
	mov	ecx, DWORD PTR _item$73003[ebp]
	add	ecx, 28					; 0000001cH
	call	?IsEmpty@UString@@QBE_NXZ		; UString::IsEmpty
	mov	BYTE PTR tv191[ebp], al
	movzx	edx, BYTE PTR tv191[ebp]
	test	edx, edx
	jne	SHORT $LN15@GetPropert@2
; Line 343
	push	46					; 0000002eH
	lea	ecx, DWORD PTR _s$73010[ebp]
	call	??YUString@@QAEAAV0@_W@Z		; UString::operator+=
; Line 344
	mov	eax, DWORD PTR _item$73003[ebp]
	add	eax, 28					; 0000001cH
	push	eax
	lea	ecx, DWORD PTR _s$73010[ebp]
	call	??YUString@@QAEAAV0@ABV0@@Z		; UString::operator+=
$LN15@GetPropert@2:
; Line 346
	lea	ecx, DWORD PTR _s$73010[ebp]
	push	ecx
	lea	ecx, DWORD PTR _prop$73002[ebp]
	call	??4CPropVariant@NCOM@NWindows@@QAEAAV012@ABVUString@@@Z ; NWindows::NCOM::CPropVariant::operator=
	mov	BYTE PTR __$EHRec$[ebp+12], 1
	lea	ecx, DWORD PTR _s$73010[ebp]
	call	??1UString@@QAE@XZ			; UString::~UString
	jmp	$LN18@GetPropert@2
$LN14@GetPropert@2:
; Line 349
	mov	edx, DWORD PTR _item$73003[ebp]
	mov	eax, DWORD PTR [edx+12]
	push	eax
	mov	ecx, DWORD PTR [edx+8]
	push	ecx
	lea	ecx, DWORD PTR _prop$73002[ebp]
	call	??4CPropVariant@NCOM@NWindows@@QAEAAV012@_K@Z ; NWindows::NCOM::CPropVariant::operator=
	jmp	$LN18@GetPropert@2
$LN13@GetPropert@2:
; Line 350
	mov	edx, DWORD PTR _item$73003[ebp]
	mov	eax, DWORD PTR [edx+4]
	push	eax
	mov	ecx, DWORD PTR [edx]
	push	ecx
	lea	ecx, DWORD PTR _prop$73002[ebp]
	call	??4CPropVariant@NCOM@NWindows@@QAEAAV012@_K@Z ; NWindows::NCOM::CPropVariant::operator=
	jmp	$LN18@GetPropert@2
$LN12@GetPropert@2:
; Line 351
	mov	edx, DWORD PTR _item$73003[ebp]
	movzx	eax, BYTE PTR [edx+73]
	test	eax, eax
	je	SHORT $LN11@GetPropert@2
	mov	ecx, DWORD PTR _item$73003[ebp]
	mov	edx, DWORD PTR [ecx+84]
	push	edx
	mov	eax, DWORD PTR [ecx+80]
	push	eax
	lea	ecx, DWORD PTR _prop$73002[ebp]
	call	??4CPropVariant@NCOM@NWindows@@QAEAAV012@_K@Z ; NWindows::NCOM::CPropVariant::operator=
$LN11@GetPropert@2:
	jmp	$LN18@GetPropert@2
$LN10@GetPropert@2:
; Line 352
	mov	ecx, DWORD PTR _item$73003[ebp]
	movzx	edx, BYTE PTR [ecx+75]
	test	edx, edx
	je	SHORT $LN9@GetPropert@2
	mov	eax, DWORD PTR _item$73003[ebp]
	mov	ecx, DWORD PTR [eax+100]
	push	ecx
	mov	edx, DWORD PTR [eax+96]
	push	edx
	lea	ecx, DWORD PTR _prop$73002[ebp]
	call	??4CPropVariant@NCOM@NWindows@@QAEAAV012@_K@Z ; NWindows::NCOM::CPropVariant::operator=
$LN9@GetPropert@2:
	jmp	$LN18@GetPropert@2
$LN8@GetPropert@2:
; Line 353
	mov	eax, DWORD PTR _item$73003[ebp]
	movzx	ecx, BYTE PTR [eax+74]
	test	ecx, ecx
	je	SHORT $LN7@GetPropert@2
	mov	edx, DWORD PTR _item$73003[ebp]
	mov	eax, DWORD PTR [edx+92]
	push	eax
	mov	ecx, DWORD PTR [edx+88]
	push	ecx
	lea	ecx, DWORD PTR _prop$73002[ebp]
	call	??4CPropVariant@NCOM@NWindows@@QAEAAV012@_K@Z ; NWindows::NCOM::CPropVariant::operator=
$LN7@GetPropert@2:
	jmp	SHORT $LN18@GetPropert@2
$LN6@GetPropert@2:
; Line 354
	mov	edx, DWORD PTR _item$73003[ebp]
	movzx	eax, BYTE PTR [edx+72]
	test	eax, eax
	je	SHORT $LN5@GetPropert@2
	mov	ecx, DWORD PTR _item$73003[ebp]
	add	ecx, 40					; 00000028H
	push	ecx
	lea	ecx, DWORD PTR _prop$73002[ebp]
	call	??4CPropVariant@NCOM@NWindows@@QAEAAV012@ABU_FILETIME@@@Z ; NWindows::NCOM::CPropVariant::operator=
$LN5@GetPropert@2:
	jmp	SHORT $LN18@GetPropert@2
$LN4@GetPropert@2:
; Line 355
	mov	ecx, DWORD PTR _item$73003[ebp]
	add	ecx, 48					; 00000030H
	call	?IsEmpty@UString@@QBE_NXZ		; UString::IsEmpty
	mov	BYTE PTR tv192[ebp], al
	movzx	edx, BYTE PTR tv192[ebp]
	test	edx, edx
	jne	SHORT $LN3@GetPropert@2
	mov	eax, DWORD PTR _item$73003[ebp]
	add	eax, 48					; 00000030H
	push	eax
	lea	ecx, DWORD PTR _prop$73002[ebp]
	call	??4CPropVariant@NCOM@NWindows@@QAEAAV012@ABVUString@@@Z ; NWindows::NCOM::CPropVariant::operator=
$LN3@GetPropert@2:
	jmp	SHORT $LN18@GetPropert@2
$LN2@GetPropert@2:
; Line 356
	mov	ecx, DWORD PTR _item$73003[ebp]
	add	ecx, 60					; 0000003cH
	call	?IsEmpty@UString@@QBE_NXZ		; UString::IsEmpty
	mov	BYTE PTR tv193[ebp], al
	movzx	ecx, BYTE PTR tv193[ebp]
	test	ecx, ecx
	jne	SHORT $LN18@GetPropert@2
	mov	edx, DWORD PTR _item$73003[ebp]
	add	edx, 60					; 0000003cH
	push	edx
	lea	ecx, DWORD PTR _prop$73002[ebp]
	call	??4CPropVariant@NCOM@NWindows@@QAEAAV012@ABVUString@@@Z ; NWindows::NCOM::CPropVariant::operator=
$LN18@GetPropert@2:
; Line 358
	mov	eax, DWORD PTR _value$[ebp]
	push	eax
	lea	ecx, DWORD PTR _prop$73002[ebp]
	call	?Detach@CPropVariant@NCOM@NWindows@@QAEJPAUtagPROPVARIANT@@@Z ; NWindows::NCOM::CPropVariant::Detach
; Line 359
	mov	DWORD PTR $T77281[ebp], 0
	mov	BYTE PTR __$EHRec$[ebp+12], 0
	lea	ecx, DWORD PTR _prop$73002[ebp]
	call	??1CPropVariant@NCOM@NWindows@@QAE@XZ	; NWindows::NCOM::CPropVariant::~CPropVariant
	mov	eax, DWORD PTR $T77281[ebp]
	jmp	SHORT $LN21@GetPropert@2
__catch$?GetProperty@CHandler@NParser@NArchive@@UAGJIKPAUtagPROPVARIANT@@@Z$0:
; Line 360
	mov	DWORD PTR $T77282[ebp], -2147024882	; 8007000eH
	mov	DWORD PTR __$EHRec$[ebp+12], -1
	mov	eax, $LN28@GetPropert@2
	ret	0
	mov	eax, __tryend$?GetProperty@CHandler@NParser@NArchive@@UAGJIKPAUtagPROPVARIANT@@@Z$1
	ret	0
__tryend$?GetProperty@CHandler@NParser@NArchive@@UAGJIKPAUtagPROPVARIANT@@@Z$1:
	mov	DWORD PTR __$EHRec$[ebp+12], -1
	jmp	SHORT $LN21@GetPropert@2
$LN28@GetPropert@2:
	mov	eax, DWORD PTR $T77282[ebp]
$LN21@GetPropert@2:
; Line 361
	push	edx
	mov	ecx, ebp
	push	eax
	lea	edx, DWORD PTR $LN36@GetPropert@2
	call	@_RTC_CheckStackVars@8
	pop	eax
	pop	edx
	mov	ecx, DWORD PTR __$EHRec$[ebp+4]
	mov	DWORD PTR fs:0, ecx
	pop	ecx
	pop	edi
	pop	esi
	pop	ebx
	mov	ecx, DWORD PTR __$ArrayPad$[ebp]
	xor	ecx, ebp
	call	@__security_check_cookie@4
	add	esp, 168				; 000000a8H
	cmp	ebp, esp
	call	__RTC_CheckEsp
	mov	esp, ebp
	pop	ebp
	ret	16					; 00000010H
	npad	3
$LN36@GetPropert@2:
	DD	3
	DD	$LN35@GetPropert@2
$LN35@GetPropert@2:
	DD	-40					; ffffffd8H
	DD	16					; 00000010H
	DD	$LN31@GetPropert@2
	DD	-116					; ffffff8cH
	DD	64					; 00000040H
	DD	$LN32@GetPropert@2
	DD	-136					; ffffff78H
	DD	12					; 0000000cH
	DD	$LN33@GetPropert@2
$LN33@GetPropert@2:
	DB	115					; 00000073H
	DB	0
$LN32@GetPropert@2:
	DB	115					; 00000073H
	DB	122					; 0000007aH
	DB	0
$LN31@GetPropert@2:
	DB	112					; 00000070H
	DB	114					; 00000072H
	DB	111					; 0000006fH
	DB	112					; 00000070H
	DB	0
	npad	2
$LN37@GetPropert@2:
	DD	$LN17@GetPropert@2
	DD	$LN14@GetPropert@2
	DD	$LN6@GetPropert@2
	DD	$LN2@GetPropert@2
	DD	$LN4@GetPropert@2
	DD	$LN8@GetPropert@2
	DD	$LN10@GetPropert@2
	DD	$LN13@GetPropert@2
	DD	$LN12@GetPropert@2
	DD	$LN18@GetPropert@2
$LN30@GetPropert@2:
	DB	0
	DB	9
	DB	9
	DB	9
	DB	1
	DB	1
	DB	9
	DB	9
	DB	9
	DB	2
	DB	9
	DB	9
	DB	9
	DB	9
	DB	9
	DB	9
	DB	9
	DB	3
	DB	9
	DB	9
	DB	9
	DB	9
	DB	9
	DB	9
	DB	9
	DB	4
	DB	9
	DB	9
	DB	5
	DB	6
	DB	9
	DB	9
	DB	9
	DB	7
	DB	9
	DB	9
	DB	9
	DB	9
	DB	9
	DB	9
	DB	9
	DB	9
	DB	9
	DB	9
	DB	9
	DB	9
	DB	9
	DB	9
	DB	9
	DB	9
	DB	9
	DB	9
	DB	9
	DB	9
	DB	9
	DB	9
	DB	9
	DB	9
	DB	9
	DB	9
	DB	9
	DB	9
	DB	9
	DB	9
	DB	9
	DB	9
	DB	9
	DB	9
	DB	9
	DB	9
	DB	9
	DB	9
	DB	9
	DB	9
	DB	9
	DB	8
_TEXT	ENDS
text$x	SEGMENT
__unwindfunclet$?GetProperty@CHandler@NParser@NArchive@@UAGJIKPAUtagPROPVARIANT@@@Z$2:
	lea	ecx, DWORD PTR _prop$73002[ebp]
	jmp	??1CPropVariant@NCOM@NWindows@@QAE@XZ	; NWindows::NCOM::CPropVariant::~CPropVariant
__unwindfunclet$?GetProperty@CHandler@NParser@NArchive@@UAGJIKPAUtagPROPVARIANT@@@Z$3:
	lea	ecx, DWORD PTR _s$73010[ebp]
	jmp	??1UString@@QAE@XZ			; UString::~UString
__ehhandler$?GetProperty@CHandler@NParser@NArchive@@UAGJIKPAUtagPROPVARIANT@@@Z:
	mov	edx, DWORD PTR [esp+8]
	lea	eax, DWORD PTR [edx+12]
	mov	ecx, DWORD PTR [edx-172]
	xor	ecx, eax
	call	@__security_check_cookie@4
	mov	ecx, DWORD PTR [edx-8]
	xor	ecx, eax
	call	@__security_check_cookie@4
	mov	eax, OFFSET __ehfuncinfo$?GetProperty@CHandler@NParser@NArchive@@UAGJIKPAUtagPROPVARIANT@@@Z
	jmp	___CxxFrameHandler3
text$x	ENDS
?GetProperty@CHandler@NParser@NArchive@@UAGJIKPAUtagPROPVARIANT@@@Z ENDP ; NArchive::NParser::CHandler::GetProperty
; Function compile flags: /Odtp /RTCsu
;	COMDAT ?IsEmpty@UString@@QBE_NXZ
_TEXT	SEGMENT
_this$ = -4						; size = 4
?IsEmpty@UString@@QBE_NXZ PROC				; UString::IsEmpty, COMDAT
; _this$ = ecx
; File c:\workspace\7z1505-src\cpp\common\mystring.h
; Line 473
	push	ebp
	mov	ebp, esp
	push	ecx
	mov	DWORD PTR [ebp-4], -858993460		; ccccccccH
	mov	DWORD PTR _this$[ebp], ecx
	mov	eax, DWORD PTR _this$[ebp]
	xor	ecx, ecx
	cmp	DWORD PTR [eax+4], 0
	sete	cl
	mov	al, cl
	mov	esp, ebp
	pop	ebp
	ret	0
?IsEmpty@UString@@QBE_NXZ ENDP				; UString::IsEmpty
_TEXT	ENDS
EXTRN	?Grow_1@UString@@AAEXXZ:PROC			; UString::Grow_1
; Function compile flags: /Odtp /RTCsu
;	COMDAT ??YUString@@QAEAAV0@_W@Z
_TEXT	SEGMENT
_chars$ = -12						; size = 4
_len$ = -8						; size = 4
_this$ = -4						; size = 4
_c$ = 8							; size = 2
??YUString@@QAEAAV0@_W@Z PROC				; UString::operator+=, COMDAT
; _this$ = ecx
; Line 515
	push	ebp
	mov	ebp, esp
	sub	esp, 12					; 0000000cH
	mov	DWORD PTR [ebp-12], -858993460		; ccccccccH
	mov	DWORD PTR [ebp-8], -858993460		; ccccccccH
	mov	DWORD PTR [ebp-4], -858993460		; ccccccccH
	mov	DWORD PTR _this$[ebp], ecx
; Line 516
	mov	eax, DWORD PTR _this$[ebp]
	mov	ecx, DWORD PTR _this$[ebp]
	mov	edx, DWORD PTR [eax+8]
	cmp	edx, DWORD PTR [ecx+4]
	jne	SHORT $LN1@operator
; Line 517
	mov	ecx, DWORD PTR _this$[ebp]
	call	?Grow_1@UString@@AAEXXZ			; UString::Grow_1
$LN1@operator:
; Line 518
	mov	eax, DWORD PTR _this$[ebp]
	mov	ecx, DWORD PTR [eax+4]
	mov	DWORD PTR _len$[ebp], ecx
; Line 519
	mov	edx, DWORD PTR _this$[ebp]
	mov	eax, DWORD PTR [edx]
	mov	DWORD PTR _chars$[ebp], eax
; Line 520
	mov	ecx, DWORD PTR _len$[ebp]
	mov	edx, DWORD PTR _chars$[ebp]
	mov	ax, WORD PTR _c$[ebp]
	mov	WORD PTR [edx+ecx*2], ax
	mov	ecx, DWORD PTR _len$[ebp]
	add	ecx, 1
	mov	DWORD PTR _len$[ebp], ecx
; Line 521
	xor	edx, edx
	mov	eax, DWORD PTR _len$[ebp]
	mov	ecx, DWORD PTR _chars$[ebp]
	mov	WORD PTR [ecx+eax*2], dx
; Line 522
	mov	edx, DWORD PTR _this$[ebp]
	mov	eax, DWORD PTR _len$[ebp]
	mov	DWORD PTR [edx+4], eax
; Line 523
	mov	eax, DWORD PTR _this$[ebp]
; Line 524
	add	esp, 12					; 0000000cH
	cmp	ebp, esp
	call	__RTC_CheckEsp
	mov	esp, ebp
	pop	ebp
	ret	4
??YUString@@QAEAAV0@_W@Z ENDP				; UString::operator+=
; Function compile flags: /Odtp /RTCsu
_TEXT	ENDS
;	COMDAT ??0CPropVariant@NCOM@NWindows@@QAE@XZ
_TEXT	SEGMENT
_this$ = -4						; size = 4
??0CPropVariant@NCOM@NWindows@@QAE@XZ PROC		; NWindows::NCOM::CPropVariant::CPropVariant, COMDAT
; _this$ = ecx
; File c:\workspace\7z1505-src\cpp\windows\propvariant.h
; Line 47
	push	ebp
	mov	ebp, esp
	push	ecx
	mov	DWORD PTR [ebp-4], -858993460		; ccccccccH
	mov	DWORD PTR _this$[ebp], ecx
; Line 49
	xor	eax, eax
	mov	ecx, DWORD PTR _this$[ebp]
	mov	WORD PTR [ecx], ax
; Line 50
	xor	edx, edx
	mov	eax, DWORD PTR _this$[ebp]
	mov	WORD PTR [eax+2], dx
; Line 54
	mov	ecx, DWORD PTR _this$[ebp]
	mov	DWORD PTR [ecx+8], 0
; Line 55
	mov	eax, DWORD PTR _this$[ebp]
	mov	esp, ebp
	pop	ebp
	ret	0
??0CPropVariant@NCOM@NWindows@@QAE@XZ ENDP		; NWindows::NCOM::CPropVariant::CPropVariant
_TEXT	ENDS
EXTRN	?Clear@CPropVariant@NCOM@NWindows@@QAEJXZ:PROC	; NWindows::NCOM::CPropVariant::Clear
; Function compile flags: /Odtp /RTCsu
;	COMDAT ??1CPropVariant@NCOM@NWindows@@QAE@XZ
_TEXT	SEGMENT
_this$ = -4						; size = 4
??1CPropVariant@NCOM@NWindows@@QAE@XZ PROC		; NWindows::NCOM::CPropVariant::~CPropVariant, COMDAT
; _this$ = ecx
; Line 56
	push	ebp
	mov	ebp, esp
	push	ecx
	mov	DWORD PTR [ebp-4], -858993460		; ccccccccH
	mov	DWORD PTR _this$[ebp], ecx
	mov	ecx, DWORD PTR _this$[ebp]
	call	?Clear@CPropVariant@NCOM@NWindows@@QAEJXZ ; NWindows::NCOM::CPropVariant::Clear
	add	esp, 4
	cmp	ebp, esp
	call	__RTC_CheckEsp
	mov	esp, ebp
	pop	ebp
	ret	0
??1CPropVariant@NCOM@NWindows@@QAE@XZ ENDP		; NWindows::NCOM::CPropVariant::~CPropVariant
_TEXT	ENDS
PUBLIC	?ReleaseStream@CLimitedSequentialOutStream@@QAEXXZ ; CLimitedSequentialOutStream::ReleaseStream
PUBLIC	?GetRem@CLimitedSequentialOutStream@@QBE_KXZ	; CLimitedSequentialOutStream::GetRem
PUBLIC	??B?$CMyComPtr@UISequentialInStream@@@@QBEPAUISequentialInStream@@XZ ; CMyComPtr<ISequentialInStream>::operator ISequentialInStream *
PUBLIC	??B?$CMyComPtr@UICompressProgressInfo@@@@QBEPAUICompressProgressInfo@@XZ ; CMyComPtr<ICompressProgressInfo>::operator ICompressProgressInfo *
PUBLIC	??C?$CMyComPtr@UICompressCoder@@@@QBEPAUICompressCoder@@XZ ; CMyComPtr<ICompressCoder>::operator->
PUBLIC	?Init@CLimitedSequentialInStream@@QAEX_K@Z	; CLimitedSequentialInStream::Init
PUBLIC	??C?$CMyComPtr@UIInStream@@@@QBEPAUIInStream@@XZ ; CMyComPtr<IInStream>::operator->
PUBLIC	?Init@CLimitedSequentialOutStream@@QAEX_K_N@Z	; CLimitedSequentialOutStream::Init
PUBLIC	?Release@?$CMyComPtr@UISequentialOutStream@@@@QAEXXZ ; CMyComPtr<ISequentialOutStream>::Release
PUBLIC	?SetStream@CLimitedSequentialOutStream@@QAEXPAUISequentialOutStream@@@Z ; CLimitedSequentialOutStream::SetStream
PUBLIC	??B?$CMyComPtr@UISequentialOutStream@@@@QBEPAUISequentialOutStream@@XZ ; CMyComPtr<ISequentialOutStream>::operator ISequentialOutStream *
PUBLIC	??7?$CMyComPtr@UISequentialOutStream@@@@QBE_NXZ	; CMyComPtr<ISequentialOutStream>::operator!
PUBLIC	??I?$CMyComPtr@UISequentialOutStream@@@@QAEPAPAUISequentialOutStream@@XZ ; CMyComPtr<ISequentialOutStream>::operator&
PUBLIC	??0?$CMyComPtr@UISequentialOutStream@@@@QAE@XZ	; CMyComPtr<ISequentialOutStream>::CMyComPtr<ISequentialOutStream>
PUBLIC	??1?$CMyComPtr@UICompressProgressInfo@@@@QAE@XZ	; CMyComPtr<ICompressProgressInfo>::~CMyComPtr<ICompressProgressInfo>
PUBLIC	??1?$CMyComPtr@UISequentialInStream@@@@QAE@XZ	; CMyComPtr<ISequentialInStream>::~CMyComPtr<ISequentialInStream>
PUBLIC	??1?$CMyComPtr@UISequentialOutStream@@@@QAE@XZ	; CMyComPtr<ISequentialOutStream>::~CMyComPtr<ISequentialOutStream>
PUBLIC	??1?$CMyComPtr@UICompressCoder@@@@QAE@XZ	; CMyComPtr<ICompressCoder>::~CMyComPtr<ICompressCoder>
PUBLIC	??0?$CMyComPtr@UICompressCoder@@@@QAE@PAUICompressCoder@@@Z ; CMyComPtr<ICompressCoder>::CMyComPtr<ICompressCoder>
PUBLIC	??0CCopyCoder@NCompress@@QAE@XZ			; NCompress::CCopyCoder::CCopyCoder
PUBLIC	??0?$CMyComPtr@UISequentialOutStream@@@@QAE@PAUISequentialOutStream@@@Z ; CMyComPtr<ISequentialOutStream>::CMyComPtr<ISequentialOutStream>
PUBLIC	??0CLimitedSequentialOutStream@@QAE@XZ		; CLimitedSequentialOutStream::CLimitedSequentialOutStream
PUBLIC	?SetStream@CLimitedSequentialInStream@@QAEXPAUISequentialInStream@@@Z ; CLimitedSequentialInStream::SetStream
PUBLIC	??0?$CMyComPtr@UISequentialInStream@@@@QAE@PAUISequentialInStream@@@Z ; CMyComPtr<ISequentialInStream>::CMyComPtr<ISequentialInStream>
PUBLIC	??0CLimitedSequentialInStream@@QAE@XZ		; CLimitedSequentialInStream::CLimitedSequentialInStream
PUBLIC	??0?$CMyComPtr@UICompressProgressInfo@@@@QAE@PAUICompressProgressInfo@@@Z ; CMyComPtr<ICompressProgressInfo>::CMyComPtr<ICompressProgressInfo>
PUBLIC	??B?$CMyComPtr@UIInStream@@@@QBEPAUIInStream@@XZ ; CMyComPtr<IInStream>::operator IInStream *
PUBLIC	?Extract@CHandler@NParser@NArchive@@UAGJPBIIHPAUIArchiveExtractCallback@@@Z ; NArchive::NParser::CHandler::Extract
EXTRN	?SetCur@CLocalProgress@@QAEJXZ:PROC		; CLocalProgress::SetCur
EXTRN	?Init@CLocalProgress@@QAEXPAUIProgress@@_N@Z:PROC ; CLocalProgress::Init
EXTRN	??0CLocalProgress@@QAE@XZ:PROC			; CLocalProgress::CLocalProgress
EXTRN	??2@YAPAXI@Z:PROC				; operator new
xdata$x	SEGMENT
__catchsym$?Extract@CHandler@NParser@NArchive@@UAGJPBIIHPAUIArchiveExtractCallback@@@Z$11 DD 040H
	DD	00H
	DD	00H
	DD	FLAT:__catch$?Extract@CHandler@NParser@NArchive@@UAGJPBIIHPAUIArchiveExtractCallback@@@Z$0
__tryblocktable$?Extract@CHandler@NParser@NArchive@@UAGJPBIIHPAUIArchiveExtractCallback@@@Z DD 00H
	DD	09H
	DD	0aH
	DD	01H
	DD	FLAT:__catchsym$?Extract@CHandler@NParser@NArchive@@UAGJPBIIHPAUIArchiveExtractCallback@@@Z$11
__ehfuncinfo$?Extract@CHandler@NParser@NArchive@@UAGJPBIIHPAUIArchiveExtractCallback@@@Z DD 019930522H
	DD	0bH
	DD	FLAT:__unwindtable$?Extract@CHandler@NParser@NArchive@@UAGJPBIIHPAUIArchiveExtractCallback@@@Z
	DD	01H
	DD	FLAT:__tryblocktable$?Extract@CHandler@NParser@NArchive@@UAGJPBIIHPAUIArchiveExtractCallback@@@Z
	DD	2 DUP(00H)
	DD	00H
	DD	01H
__unwindtable$?Extract@CHandler@NParser@NArchive@@UAGJPBIIHPAUIArchiveExtractCallback@@@Z DD 0ffffffffH
	DD	00H
	DD	00H
	DD	FLAT:__unwindfunclet$?Extract@CHandler@NParser@NArchive@@UAGJPBIIHPAUIArchiveExtractCallback@@@Z$2
	DD	00H
	DD	FLAT:__unwindfunclet$?Extract@CHandler@NParser@NArchive@@UAGJPBIIHPAUIArchiveExtractCallback@@@Z$3
	DD	02H
	DD	FLAT:__unwindfunclet$?Extract@CHandler@NParser@NArchive@@UAGJPBIIHPAUIArchiveExtractCallback@@@Z$4
	DD	02H
	DD	FLAT:__unwindfunclet$?Extract@CHandler@NParser@NArchive@@UAGJPBIIHPAUIArchiveExtractCallback@@@Z$5
	DD	04H
	DD	FLAT:__unwindfunclet$?Extract@CHandler@NParser@NArchive@@UAGJPBIIHPAUIArchiveExtractCallback@@@Z$6
	DD	04H
	DD	FLAT:__unwindfunclet$?Extract@CHandler@NParser@NArchive@@UAGJPBIIHPAUIArchiveExtractCallback@@@Z$7
	DD	06H
	DD	FLAT:__unwindfunclet$?Extract@CHandler@NParser@NArchive@@UAGJPBIIHPAUIArchiveExtractCallback@@@Z$8
	DD	06H
	DD	FLAT:__unwindfunclet$?Extract@CHandler@NParser@NArchive@@UAGJPBIIHPAUIArchiveExtractCallback@@@Z$9
	DD	08H
	DD	FLAT:__unwindfunclet$?Extract@CHandler@NParser@NArchive@@UAGJPBIIHPAUIArchiveExtractCallback@@@Z$10
	DD	0ffffffffH
	DD	00H
; Function compile flags: /Odtp /RTCsu
xdata$x	ENDS
_TEXT	SEGMENT
tv408 = -384						; size = 4
tv407 = -380						; size = 8
tv406 = -372						; size = 4
tv405 = -368						; size = 4
tv404 = -364						; size = 4
tv403 = -360						; size = 4
tv310 = -356						; size = 4
tv402 = -352						; size = 4
tv401 = -348						; size = 4
tv297 = -344						; size = 4
tv400 = -340						; size = 4
tv291 = -336						; size = 8
tv399 = -328						; size = 4
tv398 = -324						; size = 4
tv397 = -317						; size = 1
tv396 = -316						; size = 4
tv395 = -312						; size = 4
tv394 = -308						; size = 4
tv222 = -304						; size = 4
tv393 = -300						; size = 4
tv199 = -296						; size = 4
tv198 = -292						; size = 4
tv392 = -288						; size = 4
tv184 = -284						; size = 4
tv183 = -280						; size = 4
tv390 = -276						; size = 4
tv388 = -272						; size = 4
tv160 = -268						; size = 4
tv159 = -264						; size = 4
tv387 = -260						; size = 4
tv138 = -256						; size = 4
tv137 = -252						; size = 4
tv385 = -248						; size = 4
tv383 = -244						; size = 4
tv382 = -240						; size = 4
tv86 = -236						; size = 4
tv381 = -232						; size = 4
tv380 = -228						; size = 4
$T77341 = -224						; size = 4
$T77340 = -220						; size = 4
$T77339 = -216						; size = 4
$T77338 = -212						; size = 4
$T77337 = -208						; size = 4
$T77334 = -204						; size = 4
$T77333 = -200						; size = 4
$T77330 = -196						; size = 4
$T77327 = -192						; size = 4
$T77326 = -188						; size = 4
$T77323 = -184						; size = 4
$T77322 = -180						; size = 4
$T77319 = -176						; size = 4
$T77318 = -172						; size = 4
$T77315 = -168						; size = 4
$T77314 = -164						; size = 4
___result__$73142 = -160				; size = 4
___result__$73138 = -156				; size = 4
___result__$73135 = -152				; size = 4
_opRes$73134 = -148					; size = 4
___result__$73131 = -144				; size = 4
_skipMode$73129 = -137					; size = 1
_unpackSize$73128 = -136				; size = 8
___result__$73125 = -128				; size = 4
_item$73124 = -124					; size = 4
_index$73123 = -120					; size = 4
_askMode$73122 = -116					; size = 4
_realOutStream$73121 = -108				; size = 4
___result__$73117 = -100				; size = 4
_copyCoder$73113 = -92					; size = 4
_copyCoderSpec$73071 = -84				; size = 4
_outStream$73070 = -76					; size = 4
_outStreamSpec$73064 = -68				; size = 4
_inStream$73063 = -60					; size = 4
_streamSpec$73057 = -52					; size = 4
_progress$73056 = -44					; size = 4
_lps$73050 = -36					; size = 4
_i$73046 = -32						; size = 4
_totalSize$73045 = -28					; size = 8
_allFilesMode$73039 = -17				; size = 1
__$EHRec$ = -16						; size = 16
_this$ = 8						; size = 4
_indices$ = 12						; size = 4
_numItems$ = 16						; size = 4
_testMode$ = 20						; size = 4
_extractCallback$ = 24					; size = 4
?Extract@CHandler@NParser@NArchive@@UAGJPBIIHPAUIArchiveExtractCallback@@@Z PROC ; NArchive::NParser::CHandler::Extract
; File c:\workspace\7z1505-src\cpp\7zip\ui\common\openarchive.cpp
; Line 365
	push	ebp
	mov	ebp, esp
	push	-1
	push	__ehhandler$?Extract@CHandler@NParser@NArchive@@UAGJPBIIHPAUIArchiveExtractCallback@@@Z
	mov	eax, DWORD PTR fs:0
	push	eax
	push	ecx
	sub	esp, 368				; 00000170H
	push	ebx
	push	esi
	push	edi
	lea	edi, DWORD PTR [ebp-384]
	mov	ecx, 92					; 0000005cH
	mov	eax, -858993460				; ccccccccH
	rep stosd
	mov	eax, DWORD PTR ___security_cookie
	xor	eax, ebp
	push	eax
	lea	eax, DWORD PTR __$EHRec$[ebp+4]
	mov	DWORD PTR fs:0, eax
	mov	DWORD PTR __$EHRec$[ebp], esp
; Line 366
	mov	DWORD PTR __$EHRec$[ebp+12], 0
; Line 368
	xor	eax, eax
	cmp	DWORD PTR _numItems$[ebp], -1
	sete	al
	mov	BYTE PTR _allFilesMode$73039[ebp], al
; Line 369
	movzx	ecx, BYTE PTR _allFilesMode$73039[ebp]
	test	ecx, ecx
	je	SHORT $LN16@Extract
; Line 370
	mov	ecx, DWORD PTR _this$[ebp]
	add	ecx, 12					; 0000000cH
	call	?Size@?$CObjectVector@UCParseItem@NParser@NArchive@@@@QBEIXZ ; CObjectVector<NArchive::NParser::CParseItem>::Size
	mov	DWORD PTR tv380[ebp], eax
	mov	edx, DWORD PTR tv380[ebp]
	mov	DWORD PTR _numItems$[ebp], edx
$LN16@Extract:
; Line 371
	mov	ecx, DWORD PTR _this$[ebp]
	add	ecx, 32					; 00000020H
	call	??B?$CMyComPtr@UIInStream@@@@QBEPAUIInStream@@XZ ; CMyComPtr<IInStream>::operator IInStream *
	mov	DWORD PTR tv381[ebp], eax
	cmp	DWORD PTR tv381[ebp], 0
	je	SHORT $LN15@Extract
	cmp	DWORD PTR _numItems$[ebp], 0
	jne	SHORT $LN15@Extract
; Line 372
	xor	eax, eax
	jmp	$LN18@Extract
$LN15@Extract:
; Line 373
	mov	DWORD PTR _totalSize$73045[ebp], 0
	mov	DWORD PTR _totalSize$73045[ebp+4], 0
; Line 375
	mov	DWORD PTR _i$73046[ebp], 0
	jmp	SHORT $LN14@Extract
$LN13@Extract:
	mov	eax, DWORD PTR _i$73046[ebp]
	add	eax, 1
	mov	DWORD PTR _i$73046[ebp], eax
$LN14@Extract:
	mov	ecx, DWORD PTR _i$73046[ebp]
	cmp	ecx, DWORD PTR _numItems$[ebp]
	jae	SHORT $LN12@Extract
; Line 376
	movzx	edx, BYTE PTR _allFilesMode$73039[ebp]
	test	edx, edx
	je	SHORT $LN20@Extract
	mov	eax, DWORD PTR _i$73046[ebp]
	mov	DWORD PTR tv86[ebp], eax
	jmp	SHORT $LN21@Extract
$LN20@Extract:
	mov	ecx, DWORD PTR _i$73046[ebp]
	mov	edx, DWORD PTR _indices$[ebp]
	mov	eax, DWORD PTR [edx+ecx*4]
	mov	DWORD PTR tv86[ebp], eax
$LN21@Extract:
	mov	ecx, DWORD PTR tv86[ebp]
	push	ecx
	mov	ecx, DWORD PTR _this$[ebp]
	add	ecx, 12					; 0000000cH
	call	??A?$CObjectVector@UCParseItem@NParser@NArchive@@@@QAEAAUCParseItem@NParser@NArchive@@I@Z ; CObjectVector<NArchive::NParser::CParseItem>::operator[]
	mov	DWORD PTR tv382[ebp], eax
	mov	edx, DWORD PTR tv382[ebp]
	mov	eax, DWORD PTR _totalSize$73045[ebp]
	add	eax, DWORD PTR [edx+8]
	mov	ecx, DWORD PTR _totalSize$73045[ebp+4]
	adc	ecx, DWORD PTR [edx+12]
	mov	DWORD PTR _totalSize$73045[ebp], eax
	mov	DWORD PTR _totalSize$73045[ebp+4], ecx
	jmp	SHORT $LN13@Extract
$LN12@Extract:
; Line 377
	mov	esi, esp
	mov	edx, DWORD PTR _totalSize$73045[ebp+4]
	push	edx
	mov	eax, DWORD PTR _totalSize$73045[ebp]
	push	eax
	mov	ecx, DWORD PTR _extractCallback$[ebp]
	push	ecx
	mov	edx, DWORD PTR _extractCallback$[ebp]
	mov	eax, DWORD PTR [edx]
	mov	ecx, DWORD PTR [eax+12]
	call	ecx
	cmp	esi, esp
	call	__RTC_CheckEsp
; Line 379
	mov	DWORD PTR _totalSize$73045[ebp], 0
	mov	DWORD PTR _totalSize$73045[ebp+4], 0
; Line 381
	push	56					; 00000038H
	call	??2@YAPAXI@Z				; operator new
	add	esp, 4
	mov	DWORD PTR tv383[ebp], eax
	mov	edx, DWORD PTR tv383[ebp]
	mov	DWORD PTR $T77315[ebp], edx
	mov	BYTE PTR __$EHRec$[ebp+12], 1
	cmp	DWORD PTR $T77315[ebp], 0
	je	SHORT $LN22@Extract
	mov	ecx, DWORD PTR $T77315[ebp]
	call	??0CLocalProgress@@QAE@XZ		; CLocalProgress::CLocalProgress
	mov	DWORD PTR tv385[ebp], eax
	mov	eax, DWORD PTR tv385[ebp]
	mov	DWORD PTR tv137[ebp], eax
	jmp	SHORT $LN23@Extract
$LN22@Extract:
	mov	DWORD PTR tv137[ebp], 0
$LN23@Extract:
	mov	ecx, DWORD PTR tv137[ebp]
	mov	DWORD PTR $T77314[ebp], ecx
	mov	BYTE PTR __$EHRec$[ebp+12], 0
	mov	edx, DWORD PTR $T77314[ebp]
	mov	DWORD PTR _lps$73050[ebp], edx
; Line 382
	mov	eax, DWORD PTR _lps$73050[ebp]
	push	eax
	lea	ecx, DWORD PTR _progress$73056[ebp]
	call	??0?$CMyComPtr@UICompressProgressInfo@@@@QAE@PAUICompressProgressInfo@@@Z ; CMyComPtr<ICompressProgressInfo>::CMyComPtr<ICompressProgressInfo>
	mov	BYTE PTR __$EHRec$[ebp+12], 2
; Line 383
	push	0
	mov	ecx, DWORD PTR _extractCallback$[ebp]
	push	ecx
	mov	ecx, DWORD PTR _lps$73050[ebp]
	call	?Init@CLocalProgress@@QAEXPAUIProgress@@_N@Z ; CLocalProgress::Init
; Line 385
	push	40					; 00000028H
	call	??2@YAPAXI@Z				; operator new
	add	esp, 4
	mov	DWORD PTR tv138[ebp], eax
	mov	edx, DWORD PTR tv138[ebp]
	mov	DWORD PTR $T77319[ebp], edx
	mov	BYTE PTR __$EHRec$[ebp+12], 3
	cmp	DWORD PTR $T77319[ebp], 0
	je	SHORT $LN24@Extract
	mov	ecx, DWORD PTR $T77319[ebp]
	call	??0CLimitedSequentialInStream@@QAE@XZ
	mov	DWORD PTR tv387[ebp], eax
	mov	eax, DWORD PTR tv387[ebp]
	mov	DWORD PTR tv159[ebp], eax
	jmp	SHORT $LN25@Extract
$LN24@Extract:
	mov	DWORD PTR tv159[ebp], 0
$LN25@Extract:
	mov	ecx, DWORD PTR tv159[ebp]
	mov	DWORD PTR $T77318[ebp], ecx
	mov	BYTE PTR __$EHRec$[ebp+12], 2
	mov	edx, DWORD PTR $T77318[ebp]
	mov	DWORD PTR _streamSpec$73057[ebp], edx
; Line 386
	mov	eax, DWORD PTR _streamSpec$73057[ebp]
	push	eax
	lea	ecx, DWORD PTR _inStream$73063[ebp]
	call	??0?$CMyComPtr@UISequentialInStream@@@@QAE@PAUISequentialInStream@@@Z ; CMyComPtr<ISequentialInStream>::CMyComPtr<ISequentialInStream>
	mov	BYTE PTR __$EHRec$[ebp+12], 4
; Line 387
	mov	ecx, DWORD PTR _this$[ebp]
	add	ecx, 32					; 00000020H
	call	??B?$CMyComPtr@UIInStream@@@@QBEPAUIInStream@@XZ ; CMyComPtr<IInStream>::operator IInStream *
	mov	DWORD PTR tv160[ebp], eax
	mov	ecx, DWORD PTR tv160[ebp]
	push	ecx
	mov	ecx, DWORD PTR _streamSpec$73057[ebp]
	call	?SetStream@CLimitedSequentialInStream@@QAEXPAUISequentialInStream@@@Z ; CLimitedSequentialInStream::SetStream
; Line 389
	push	32					; 00000020H
	call	??2@YAPAXI@Z				; operator new
	add	esp, 4
	mov	DWORD PTR tv388[ebp], eax
	mov	edx, DWORD PTR tv388[ebp]
	mov	DWORD PTR $T77323[ebp], edx
	mov	BYTE PTR __$EHRec$[ebp+12], 5
	cmp	DWORD PTR $T77323[ebp], 0
	je	SHORT $LN26@Extract
	mov	ecx, DWORD PTR $T77323[ebp]
	call	??0CLimitedSequentialOutStream@@QAE@XZ
	mov	DWORD PTR tv390[ebp], eax
	mov	eax, DWORD PTR tv390[ebp]
	mov	DWORD PTR tv183[ebp], eax
	jmp	SHORT $LN27@Extract
$LN26@Extract:
	mov	DWORD PTR tv183[ebp], 0
$LN27@Extract:
	mov	ecx, DWORD PTR tv183[ebp]
	mov	DWORD PTR $T77322[ebp], ecx
	mov	BYTE PTR __$EHRec$[ebp+12], 4
	mov	edx, DWORD PTR $T77322[ebp]
	mov	DWORD PTR _outStreamSpec$73064[ebp], edx
; Line 390
	mov	eax, DWORD PTR _outStreamSpec$73064[ebp]
	push	eax
	lea	ecx, DWORD PTR _outStream$73070[ebp]
	call	??0?$CMyComPtr@UISequentialOutStream@@@@QAE@PAUISequentialOutStream@@@Z ; CMyComPtr<ISequentialOutStream>::CMyComPtr<ISequentialOutStream>
	mov	BYTE PTR __$EHRec$[ebp+12], 6
; Line 392
	push	40					; 00000028H
	call	??2@YAPAXI@Z				; operator new
	add	esp, 4
	mov	DWORD PTR tv184[ebp], eax
	mov	ecx, DWORD PTR tv184[ebp]
	mov	DWORD PTR $T77327[ebp], ecx
	mov	BYTE PTR __$EHRec$[ebp+12], 7
	cmp	DWORD PTR $T77327[ebp], 0
	je	SHORT $LN28@Extract
	mov	ecx, DWORD PTR $T77327[ebp]
	call	??0CCopyCoder@NCompress@@QAE@XZ		; NCompress::CCopyCoder::CCopyCoder
	mov	DWORD PTR tv392[ebp], eax
	mov	edx, DWORD PTR tv392[ebp]
	mov	DWORD PTR tv198[ebp], edx
	jmp	SHORT $LN29@Extract
$LN28@Extract:
	mov	DWORD PTR tv198[ebp], 0
$LN29@Extract:
	mov	eax, DWORD PTR tv198[ebp]
	mov	DWORD PTR $T77326[ebp], eax
	mov	BYTE PTR __$EHRec$[ebp+12], 6
	mov	ecx, DWORD PTR $T77326[ebp]
	mov	DWORD PTR _copyCoderSpec$73071[ebp], ecx
; Line 393
	mov	edx, DWORD PTR _copyCoderSpec$73071[ebp]
	push	edx
	lea	ecx, DWORD PTR _copyCoder$73113[ebp]
	call	??0?$CMyComPtr@UICompressCoder@@@@QAE@PAUICompressCoder@@@Z ; CMyComPtr<ICompressCoder>::CMyComPtr<ICompressCoder>
	mov	BYTE PTR __$EHRec$[ebp+12], 8
; Line 395
	mov	DWORD PTR _i$73046[ebp], 0
	jmp	SHORT $LN11@Extract
$LN10@Extract:
	mov	eax, DWORD PTR _i$73046[ebp]
	add	eax, 1
	mov	DWORD PTR _i$73046[ebp], eax
$LN11@Extract:
	mov	ecx, DWORD PTR _i$73046[ebp]
	cmp	ecx, DWORD PTR _numItems$[ebp]
	jae	$LN9@Extract
; Line 397
	mov	edx, DWORD PTR _lps$73050[ebp]
	mov	eax, DWORD PTR _totalSize$73045[ebp]
	mov	DWORD PTR [edx+32], eax
	mov	ecx, DWORD PTR _totalSize$73045[ebp+4]
	mov	DWORD PTR [edx+36], ecx
; Line 398
	mov	edx, DWORD PTR _lps$73050[ebp]
	mov	eax, DWORD PTR _totalSize$73045[ebp]
	mov	DWORD PTR [edx+40], eax
	mov	ecx, DWORD PTR _totalSize$73045[ebp+4]
	mov	DWORD PTR [edx+44], ecx
; Line 399
	mov	ecx, DWORD PTR _lps$73050[ebp]
	call	?SetCur@CLocalProgress@@QAEJXZ		; CLocalProgress::SetCur
	mov	DWORD PTR tv199[ebp], eax
	mov	edx, DWORD PTR tv199[ebp]
	mov	DWORD PTR ___result__$73117[ebp], edx
	cmp	DWORD PTR ___result__$73117[ebp], 0
	je	SHORT $LN8@Extract
	mov	eax, DWORD PTR ___result__$73117[ebp]
	mov	DWORD PTR $T77330[ebp], eax
	mov	BYTE PTR __$EHRec$[ebp+12], 6
	lea	ecx, DWORD PTR _copyCoder$73113[ebp]
	call	??1?$CMyComPtr@UICompressCoder@@@@QAE@XZ ; CMyComPtr<ICompressCoder>::~CMyComPtr<ICompressCoder>
	mov	BYTE PTR __$EHRec$[ebp+12], 4
	lea	ecx, DWORD PTR _outStream$73070[ebp]
	call	??1?$CMyComPtr@UISequentialOutStream@@@@QAE@XZ ; CMyComPtr<ISequentialOutStream>::~CMyComPtr<ISequentialOutStream>
	mov	BYTE PTR __$EHRec$[ebp+12], 2
	lea	ecx, DWORD PTR _inStream$73063[ebp]
	call	??1?$CMyComPtr@UISequentialInStream@@@@QAE@XZ ; CMyComPtr<ISequentialInStream>::~CMyComPtr<ISequentialInStream>
	mov	BYTE PTR __$EHRec$[ebp+12], 0
	lea	ecx, DWORD PTR _progress$73056[ebp]
	call	??1?$CMyComPtr@UICompressProgressInfo@@@@QAE@XZ ; CMyComPtr<ICompressProgressInfo>::~CMyComPtr<ICompressProgressInfo>
	mov	eax, DWORD PTR $T77330[ebp]
	jmp	$LN18@Extract
$LN8@Extract:
; Line 400
	lea	ecx, DWORD PTR _realOutStream$73121[ebp]
	call	??0?$CMyComPtr@UISequentialOutStream@@@@QAE@XZ ; CMyComPtr<ISequentialOutStream>::CMyComPtr<ISequentialOutStream>
	mov	DWORD PTR tv393[ebp], eax
	mov	BYTE PTR __$EHRec$[ebp+12], 9
; Line 403
	xor	ecx, ecx
	cmp	DWORD PTR _testMode$[ebp], 0
	setne	cl
	mov	DWORD PTR _askMode$73122[ebp], ecx
; Line 404
	movzx	edx, BYTE PTR _allFilesMode$73039[ebp]
	test	edx, edx
	je	SHORT $LN30@Extract
	mov	eax, DWORD PTR _i$73046[ebp]
	mov	DWORD PTR tv222[ebp], eax
	jmp	SHORT $LN31@Extract
$LN30@Extract:
	mov	ecx, DWORD PTR _i$73046[ebp]
	mov	edx, DWORD PTR _indices$[ebp]
	mov	eax, DWORD PTR [edx+ecx*4]
	mov	DWORD PTR tv222[ebp], eax
$LN31@Extract:
	mov	ecx, DWORD PTR tv222[ebp]
	mov	DWORD PTR _index$73123[ebp], ecx
; Line 405
	mov	edx, DWORD PTR _index$73123[ebp]
	push	edx
	mov	ecx, DWORD PTR _this$[ebp]
	add	ecx, 12					; 0000000cH
	call	??A?$CObjectVector@UCParseItem@NParser@NArchive@@@@QAEAAUCParseItem@NParser@NArchive@@I@Z ; CObjectVector<NArchive::NParser::CParseItem>::operator[]
	mov	DWORD PTR tv394[ebp], eax
	mov	eax, DWORD PTR tv394[ebp]
	mov	DWORD PTR _item$73124[ebp], eax
; Line 407
	lea	ecx, DWORD PTR _realOutStream$73121[ebp]
	call	??I?$CMyComPtr@UISequentialOutStream@@@@QAEPAPAUISequentialOutStream@@XZ ; CMyComPtr<ISequentialOutStream>::operator&
	mov	DWORD PTR tv395[ebp], eax
	mov	esi, esp
	mov	ecx, DWORD PTR _askMode$73122[ebp]
	push	ecx
	mov	edx, DWORD PTR tv395[ebp]
	push	edx
	mov	eax, DWORD PTR _index$73123[ebp]
	push	eax
	mov	ecx, DWORD PTR _extractCallback$[ebp]
	push	ecx
	mov	edx, DWORD PTR _extractCallback$[ebp]
	mov	eax, DWORD PTR [edx]
	mov	ecx, DWORD PTR [eax+20]
	call	ecx
	cmp	esi, esp
	call	__RTC_CheckEsp
	mov	DWORD PTR tv396[ebp], eax
	mov	edx, DWORD PTR tv396[ebp]
	mov	DWORD PTR ___result__$73125[ebp], edx
	cmp	DWORD PTR ___result__$73125[ebp], 0
	je	SHORT $LN7@Extract
	mov	eax, DWORD PTR ___result__$73125[ebp]
	mov	DWORD PTR $T77333[ebp], eax
	mov	BYTE PTR __$EHRec$[ebp+12], 8
	lea	ecx, DWORD PTR _realOutStream$73121[ebp]
	call	??1?$CMyComPtr@UISequentialOutStream@@@@QAE@XZ ; CMyComPtr<ISequentialOutStream>::~CMyComPtr<ISequentialOutStream>
	mov	BYTE PTR __$EHRec$[ebp+12], 6
	lea	ecx, DWORD PTR _copyCoder$73113[ebp]
	call	??1?$CMyComPtr@UICompressCoder@@@@QAE@XZ ; CMyComPtr<ICompressCoder>::~CMyComPtr<ICompressCoder>
	mov	BYTE PTR __$EHRec$[ebp+12], 4
	lea	ecx, DWORD PTR _outStream$73070[ebp]
	call	??1?$CMyComPtr@UISequentialOutStream@@@@QAE@XZ ; CMyComPtr<ISequentialOutStream>::~CMyComPtr<ISequentialOutStream>
	mov	BYTE PTR __$EHRec$[ebp+12], 2
	lea	ecx, DWORD PTR _inStream$73063[ebp]
	call	??1?$CMyComPtr@UISequentialInStream@@@@QAE@XZ ; CMyComPtr<ISequentialInStream>::~CMyComPtr<ISequentialInStream>
	mov	BYTE PTR __$EHRec$[ebp+12], 0
	lea	ecx, DWORD PTR _progress$73056[ebp]
	call	??1?$CMyComPtr@UICompressProgressInfo@@@@QAE@XZ ; CMyComPtr<ICompressProgressInfo>::~CMyComPtr<ICompressProgressInfo>
	mov	eax, DWORD PTR $T77333[ebp]
	jmp	$LN18@Extract
$LN7@Extract:
; Line 408
	mov	ecx, DWORD PTR _item$73124[ebp]
	mov	edx, DWORD PTR [ecx+8]
	mov	DWORD PTR _unpackSize$73128[ebp], edx
	mov	eax, DWORD PTR [ecx+12]
	mov	DWORD PTR _unpackSize$73128[ebp+4], eax
; Line 409
	mov	ecx, DWORD PTR _totalSize$73045[ebp]
	add	ecx, DWORD PTR _unpackSize$73128[ebp]
	mov	edx, DWORD PTR _totalSize$73045[ebp+4]
	adc	edx, DWORD PTR _unpackSize$73128[ebp+4]
	mov	DWORD PTR _totalSize$73045[ebp], ecx
	mov	DWORD PTR _totalSize$73045[ebp+4], edx
; Line 410
	mov	BYTE PTR _skipMode$73129[ebp], 0
; Line 411
	cmp	DWORD PTR _testMode$[ebp], 0
	jne	SHORT $LN6@Extract
	lea	ecx, DWORD PTR _realOutStream$73121[ebp]
	call	??7?$CMyComPtr@UISequentialOutStream@@@@QBE_NXZ ; CMyComPtr<ISequentialOutStream>::operator!
	mov	BYTE PTR tv397[ebp], al
	movzx	eax, BYTE PTR tv397[ebp]
	test	eax, eax
	je	SHORT $LN6@Extract
; Line 412
	mov	BYTE PTR __$EHRec$[ebp+12], 8
	lea	ecx, DWORD PTR _realOutStream$73121[ebp]
	call	??1?$CMyComPtr@UISequentialOutStream@@@@QAE@XZ ; CMyComPtr<ISequentialOutStream>::~CMyComPtr<ISequentialOutStream>
	jmp	$LN10@Extract
$LN6@Extract:
; Line 413
	mov	esi, esp
	mov	ecx, DWORD PTR _askMode$73122[ebp]
	push	ecx
	mov	edx, DWORD PTR _extractCallback$[ebp]
	push	edx
	mov	eax, DWORD PTR _extractCallback$[ebp]
	mov	ecx, DWORD PTR [eax]
	mov	edx, DWORD PTR [ecx+24]
	call	edx
	cmp	esi, esp
	call	__RTC_CheckEsp
	mov	DWORD PTR tv398[ebp], eax
	mov	eax, DWORD PTR tv398[ebp]
	mov	DWORD PTR ___result__$73131[ebp], eax
	cmp	DWORD PTR ___result__$73131[ebp], 0
	je	SHORT $LN5@Extract
	mov	ecx, DWORD PTR ___result__$73131[ebp]
	mov	DWORD PTR $T77334[ebp], ecx
	mov	BYTE PTR __$EHRec$[ebp+12], 8
	lea	ecx, DWORD PTR _realOutStream$73121[ebp]
	call	??1?$CMyComPtr@UISequentialOutStream@@@@QAE@XZ ; CMyComPtr<ISequentialOutStream>::~CMyComPtr<ISequentialOutStream>
	mov	BYTE PTR __$EHRec$[ebp+12], 6
	lea	ecx, DWORD PTR _copyCoder$73113[ebp]
	call	??1?$CMyComPtr@UICompressCoder@@@@QAE@XZ ; CMyComPtr<ICompressCoder>::~CMyComPtr<ICompressCoder>
	mov	BYTE PTR __$EHRec$[ebp+12], 4
	lea	ecx, DWORD PTR _outStream$73070[ebp]
	call	??1?$CMyComPtr@UISequentialOutStream@@@@QAE@XZ ; CMyComPtr<ISequentialOutStream>::~CMyComPtr<ISequentialOutStream>
	mov	BYTE PTR __$EHRec$[ebp+12], 2
	lea	ecx, DWORD PTR _inStream$73063[ebp]
	call	??1?$CMyComPtr@UISequentialInStream@@@@QAE@XZ ; CMyComPtr<ISequentialInStream>::~CMyComPtr<ISequentialInStream>
	mov	BYTE PTR __$EHRec$[ebp+12], 0
	lea	ecx, DWORD PTR _progress$73056[ebp]
	call	??1?$CMyComPtr@UICompressProgressInfo@@@@QAE@XZ ; CMyComPtr<ICompressProgressInfo>::~CMyComPtr<ICompressProgressInfo>
	mov	eax, DWORD PTR $T77334[ebp]
	jmp	$LN18@Extract
$LN5@Extract:
; Line 415
	lea	ecx, DWORD PTR _realOutStream$73121[ebp]
	call	??B?$CMyComPtr@UISequentialOutStream@@@@QBEPAUISequentialOutStream@@XZ ; CMyComPtr<ISequentialOutStream>::operator ISequentialOutStream *
	mov	DWORD PTR tv399[ebp], eax
	mov	edx, DWORD PTR tv399[ebp]
	push	edx
	mov	ecx, DWORD PTR _outStreamSpec$73064[ebp]
	call	?SetStream@CLimitedSequentialOutStream@@QAEXPAUISequentialOutStream@@@Z ; CLimitedSequentialOutStream::SetStream
; Line 416
	lea	ecx, DWORD PTR _realOutStream$73121[ebp]
	call	?Release@?$CMyComPtr@UISequentialOutStream@@@@QAEXXZ ; CMyComPtr<ISequentialOutStream>::Release
; Line 417
	movzx	eax, BYTE PTR _skipMode$73129[ebp]
	test	eax, eax
	je	SHORT $LN32@Extract
	mov	DWORD PTR tv291[ebp], 0
	mov	DWORD PTR tv291[ebp+4], 0
	jmp	SHORT $LN33@Extract
$LN32@Extract:
	mov	ecx, DWORD PTR _unpackSize$73128[ebp]
	mov	DWORD PTR tv291[ebp], ecx
	mov	edx, DWORD PTR _unpackSize$73128[ebp+4]
	mov	DWORD PTR tv291[ebp+4], edx
$LN33@Extract:
	push	1
	mov	eax, DWORD PTR tv291[ebp+4]
	push	eax
	mov	ecx, DWORD PTR tv291[ebp]
	push	ecx
	mov	ecx, DWORD PTR _outStreamSpec$73064[ebp]
	call	?Init@CLimitedSequentialOutStream@@QAEX_K_N@Z ; CLimitedSequentialOutStream::Init
; Line 419
	mov	DWORD PTR _opRes$73134[ebp], 0
; Line 420
	mov	ecx, DWORD PTR _this$[ebp]
	add	ecx, 32					; 00000020H
	call	??C?$CMyComPtr@UIInStream@@@@QBEPAUIInStream@@XZ ; CMyComPtr<IInStream>::operator->
	mov	DWORD PTR tv400[ebp], eax
	mov	edx, DWORD PTR tv400[ebp]
	mov	DWORD PTR tv297[ebp], edx
	mov	esi, esp
	push	0
	push	0
	mov	eax, DWORD PTR _item$73124[ebp]
	mov	ecx, DWORD PTR [eax+4]
	push	ecx
	mov	edx, DWORD PTR [eax]
	push	edx
	mov	eax, DWORD PTR tv297[ebp]
	push	eax
	mov	ecx, DWORD PTR tv297[ebp]
	mov	edx, DWORD PTR [ecx]
	mov	eax, DWORD PTR [edx+16]
	call	eax
	cmp	esi, esp
	call	__RTC_CheckEsp
	mov	DWORD PTR tv401[ebp], eax
	mov	ecx, DWORD PTR tv401[ebp]
	mov	DWORD PTR ___result__$73135[ebp], ecx
	cmp	DWORD PTR ___result__$73135[ebp], 0
	je	SHORT $LN4@Extract
	mov	edx, DWORD PTR ___result__$73135[ebp]
	mov	DWORD PTR $T77337[ebp], edx
	mov	BYTE PTR __$EHRec$[ebp+12], 8
	lea	ecx, DWORD PTR _realOutStream$73121[ebp]
	call	??1?$CMyComPtr@UISequentialOutStream@@@@QAE@XZ ; CMyComPtr<ISequentialOutStream>::~CMyComPtr<ISequentialOutStream>
	mov	BYTE PTR __$EHRec$[ebp+12], 6
	lea	ecx, DWORD PTR _copyCoder$73113[ebp]
	call	??1?$CMyComPtr@UICompressCoder@@@@QAE@XZ ; CMyComPtr<ICompressCoder>::~CMyComPtr<ICompressCoder>
	mov	BYTE PTR __$EHRec$[ebp+12], 4
	lea	ecx, DWORD PTR _outStream$73070[ebp]
	call	??1?$CMyComPtr@UISequentialOutStream@@@@QAE@XZ ; CMyComPtr<ISequentialOutStream>::~CMyComPtr<ISequentialOutStream>
	mov	BYTE PTR __$EHRec$[ebp+12], 2
	lea	ecx, DWORD PTR _inStream$73063[ebp]
	call	??1?$CMyComPtr@UISequentialInStream@@@@QAE@XZ ; CMyComPtr<ISequentialInStream>::~CMyComPtr<ISequentialInStream>
	mov	BYTE PTR __$EHRec$[ebp+12], 0
	lea	ecx, DWORD PTR _progress$73056[ebp]
	call	??1?$CMyComPtr@UICompressProgressInfo@@@@QAE@XZ ; CMyComPtr<ICompressProgressInfo>::~CMyComPtr<ICompressProgressInfo>
	mov	eax, DWORD PTR $T77337[ebp]
	jmp	$LN18@Extract
$LN4@Extract:
; Line 421
	mov	eax, DWORD PTR _unpackSize$73128[ebp+4]
	push	eax
	mov	ecx, DWORD PTR _unpackSize$73128[ebp]
	push	ecx
	mov	ecx, DWORD PTR _streamSpec$73057[ebp]
	call	?Init@CLimitedSequentialInStream@@QAEX_K@Z ; CLimitedSequentialInStream::Init
; Line 422
	lea	ecx, DWORD PTR _copyCoder$73113[ebp]
	call	??C?$CMyComPtr@UICompressCoder@@@@QBEPAUICompressCoder@@XZ ; CMyComPtr<ICompressCoder>::operator->
	mov	DWORD PTR tv402[ebp], eax
	mov	edx, DWORD PTR tv402[ebp]
	mov	DWORD PTR tv310[ebp], edx
	lea	ecx, DWORD PTR _progress$73056[ebp]
	call	??B?$CMyComPtr@UICompressProgressInfo@@@@QBEPAUICompressProgressInfo@@XZ ; CMyComPtr<ICompressProgressInfo>::operator ICompressProgressInfo *
	mov	DWORD PTR tv403[ebp], eax
	lea	ecx, DWORD PTR _outStream$73070[ebp]
	call	??B?$CMyComPtr@UISequentialOutStream@@@@QBEPAUISequentialOutStream@@XZ ; CMyComPtr<ISequentialOutStream>::operator ISequentialOutStream *
	mov	DWORD PTR tv404[ebp], eax
	lea	ecx, DWORD PTR _inStream$73063[ebp]
	call	??B?$CMyComPtr@UISequentialInStream@@@@QBEPAUISequentialInStream@@XZ ; CMyComPtr<ISequentialInStream>::operator ISequentialInStream *
	mov	DWORD PTR tv405[ebp], eax
	mov	esi, esp
	mov	eax, DWORD PTR tv403[ebp]
	push	eax
	push	0
	push	0
	mov	ecx, DWORD PTR tv404[ebp]
	push	ecx
	mov	edx, DWORD PTR tv405[ebp]
	push	edx
	mov	eax, DWORD PTR tv310[ebp]
	push	eax
	mov	ecx, DWORD PTR tv310[ebp]
	mov	edx, DWORD PTR [ecx]
	mov	eax, DWORD PTR [edx+12]
	call	eax
	cmp	esi, esp
	call	__RTC_CheckEsp
	mov	DWORD PTR tv406[ebp], eax
	mov	ecx, DWORD PTR tv406[ebp]
	mov	DWORD PTR ___result__$73138[ebp], ecx
	cmp	DWORD PTR ___result__$73138[ebp], 0
	je	SHORT $LN3@Extract
	mov	edx, DWORD PTR ___result__$73138[ebp]
	mov	DWORD PTR $T77338[ebp], edx
	mov	BYTE PTR __$EHRec$[ebp+12], 8
	lea	ecx, DWORD PTR _realOutStream$73121[ebp]
	call	??1?$CMyComPtr@UISequentialOutStream@@@@QAE@XZ ; CMyComPtr<ISequentialOutStream>::~CMyComPtr<ISequentialOutStream>
	mov	BYTE PTR __$EHRec$[ebp+12], 6
	lea	ecx, DWORD PTR _copyCoder$73113[ebp]
	call	??1?$CMyComPtr@UICompressCoder@@@@QAE@XZ ; CMyComPtr<ICompressCoder>::~CMyComPtr<ICompressCoder>
	mov	BYTE PTR __$EHRec$[ebp+12], 4
	lea	ecx, DWORD PTR _outStream$73070[ebp]
	call	??1?$CMyComPtr@UISequentialOutStream@@@@QAE@XZ ; CMyComPtr<ISequentialOutStream>::~CMyComPtr<ISequentialOutStream>
	mov	BYTE PTR __$EHRec$[ebp+12], 2
	lea	ecx, DWORD PTR _inStream$73063[ebp]
	call	??1?$CMyComPtr@UISequentialInStream@@@@QAE@XZ ; CMyComPtr<ISequentialInStream>::~CMyComPtr<ISequentialInStream>
	mov	BYTE PTR __$EHRec$[ebp+12], 0
	lea	ecx, DWORD PTR _progress$73056[ebp]
	call	??1?$CMyComPtr@UICompressProgressInfo@@@@QAE@XZ ; CMyComPtr<ICompressProgressInfo>::~CMyComPtr<ICompressProgressInfo>
	mov	eax, DWORD PTR $T77338[ebp]
	jmp	$LN18@Extract
$LN3@Extract:
; Line 424
	mov	ecx, DWORD PTR _outStreamSpec$73064[ebp]
	call	?GetRem@CLimitedSequentialOutStream@@QBE_KXZ ; CLimitedSequentialOutStream::GetRem
	mov	DWORD PTR tv407[ebp], eax
	mov	DWORD PTR tv407[ebp+4], edx
	mov	eax, DWORD PTR tv407[ebp]
	or	eax, DWORD PTR tv407[ebp+4]
	je	SHORT $LN2@Extract
; Line 425
	mov	DWORD PTR _opRes$73134[ebp], 2
$LN2@Extract:
; Line 426
	mov	ecx, DWORD PTR _outStreamSpec$73064[ebp]
	call	?ReleaseStream@CLimitedSequentialOutStream@@QAEXXZ ; CLimitedSequentialOutStream::ReleaseStream
; Line 427
	mov	esi, esp
	mov	ecx, DWORD PTR _opRes$73134[ebp]
	push	ecx
	mov	edx, DWORD PTR _extractCallback$[ebp]
	push	edx
	mov	eax, DWORD PTR _extractCallback$[ebp]
	mov	ecx, DWORD PTR [eax]
	mov	edx, DWORD PTR [ecx+28]
	call	edx
	cmp	esi, esp
	call	__RTC_CheckEsp
	mov	DWORD PTR tv408[ebp], eax
	mov	eax, DWORD PTR tv408[ebp]
	mov	DWORD PTR ___result__$73142[ebp], eax
	cmp	DWORD PTR ___result__$73142[ebp], 0
	je	SHORT $LN1@Extract
	mov	ecx, DWORD PTR ___result__$73142[ebp]
	mov	DWORD PTR $T77339[ebp], ecx
	mov	BYTE PTR __$EHRec$[ebp+12], 8
	lea	ecx, DWORD PTR _realOutStream$73121[ebp]
	call	??1?$CMyComPtr@UISequentialOutStream@@@@QAE@XZ ; CMyComPtr<ISequentialOutStream>::~CMyComPtr<ISequentialOutStream>
	mov	BYTE PTR __$EHRec$[ebp+12], 6
	lea	ecx, DWORD PTR _copyCoder$73113[ebp]
	call	??1?$CMyComPtr@UICompressCoder@@@@QAE@XZ ; CMyComPtr<ICompressCoder>::~CMyComPtr<ICompressCoder>
	mov	BYTE PTR __$EHRec$[ebp+12], 4
	lea	ecx, DWORD PTR _outStream$73070[ebp]
	call	??1?$CMyComPtr@UISequentialOutStream@@@@QAE@XZ ; CMyComPtr<ISequentialOutStream>::~CMyComPtr<ISequentialOutStream>
	mov	BYTE PTR __$EHRec$[ebp+12], 2
	lea	ecx, DWORD PTR _inStream$73063[ebp]
	call	??1?$CMyComPtr@UISequentialInStream@@@@QAE@XZ ; CMyComPtr<ISequentialInStream>::~CMyComPtr<ISequentialInStream>
	mov	BYTE PTR __$EHRec$[ebp+12], 0
	lea	ecx, DWORD PTR _progress$73056[ebp]
	call	??1?$CMyComPtr@UICompressProgressInfo@@@@QAE@XZ ; CMyComPtr<ICompressProgressInfo>::~CMyComPtr<ICompressProgressInfo>
	mov	eax, DWORD PTR $T77339[ebp]
	jmp	SHORT $LN18@Extract
$LN1@Extract:
; Line 428
	mov	BYTE PTR __$EHRec$[ebp+12], 8
	lea	ecx, DWORD PTR _realOutStream$73121[ebp]
	call	??1?$CMyComPtr@UISequentialOutStream@@@@QAE@XZ ; CMyComPtr<ISequentialOutStream>::~CMyComPtr<ISequentialOutStream>
	jmp	$LN10@Extract
$LN9@Extract:
; Line 430
	mov	DWORD PTR $T77340[ebp], 0
	mov	BYTE PTR __$EHRec$[ebp+12], 6
	lea	ecx, DWORD PTR _copyCoder$73113[ebp]
	call	??1?$CMyComPtr@UICompressCoder@@@@QAE@XZ ; CMyComPtr<ICompressCoder>::~CMyComPtr<ICompressCoder>
	mov	BYTE PTR __$EHRec$[ebp+12], 4
	lea	ecx, DWORD PTR _outStream$73070[ebp]
	call	??1?$CMyComPtr@UISequentialOutStream@@@@QAE@XZ ; CMyComPtr<ISequentialOutStream>::~CMyComPtr<ISequentialOutStream>
	mov	BYTE PTR __$EHRec$[ebp+12], 2
	lea	ecx, DWORD PTR _inStream$73063[ebp]
	call	??1?$CMyComPtr@UISequentialInStream@@@@QAE@XZ ; CMyComPtr<ISequentialInStream>::~CMyComPtr<ISequentialInStream>
	mov	BYTE PTR __$EHRec$[ebp+12], 0
	lea	ecx, DWORD PTR _progress$73056[ebp]
	call	??1?$CMyComPtr@UICompressProgressInfo@@@@QAE@XZ ; CMyComPtr<ICompressProgressInfo>::~CMyComPtr<ICompressProgressInfo>
	mov	eax, DWORD PTR $T77340[ebp]
	jmp	SHORT $LN18@Extract
__catch$?Extract@CHandler@NParser@NArchive@@UAGJPBIIHPAUIArchiveExtractCallback@@@Z$0:
; Line 432
	mov	DWORD PTR $T77341[ebp], -2147024882	; 8007000eH
	mov	DWORD PTR __$EHRec$[ebp+12], -1
	mov	eax, $LN46@Extract
	ret	0
	mov	eax, __tryend$?Extract@CHandler@NParser@NArchive@@UAGJPBIIHPAUIArchiveExtractCallback@@@Z$1
	ret	0
__tryend$?Extract@CHandler@NParser@NArchive@@UAGJPBIIHPAUIArchiveExtractCallback@@@Z$1:
	mov	DWORD PTR __$EHRec$[ebp+12], -1
	jmp	SHORT $LN18@Extract
$LN46@Extract:
	mov	eax, DWORD PTR $T77341[ebp]
$LN18@Extract:
; Line 433
	push	edx
	mov	ecx, ebp
	push	eax
	lea	edx, DWORD PTR $LN55@Extract
	call	@_RTC_CheckStackVars@8
	pop	eax
	pop	edx
	mov	ecx, DWORD PTR __$EHRec$[ebp+4]
	mov	DWORD PTR fs:0, ecx
	pop	ecx
	pop	edi
	pop	esi
	pop	ebx
	add	esp, 384				; 00000180H
	cmp	ebp, esp
	call	__RTC_CheckEsp
	mov	esp, ebp
	pop	ebp
	ret	20					; 00000014H
$LN55@Extract:
	DD	5
	DD	$LN54@Extract
$LN54@Extract:
	DD	-44					; ffffffd4H
	DD	4
	DD	$LN48@Extract
	DD	-60					; ffffffc4H
	DD	4
	DD	$LN49@Extract
	DD	-76					; ffffffb4H
	DD	4
	DD	$LN50@Extract
	DD	-92					; ffffffa4H
	DD	4
	DD	$LN51@Extract
	DD	-108					; ffffff94H
	DD	4
	DD	$LN52@Extract
$LN52@Extract:
	DB	114					; 00000072H
	DB	101					; 00000065H
	DB	97					; 00000061H
	DB	108					; 0000006cH
	DB	79					; 0000004fH
	DB	117					; 00000075H
	DB	116					; 00000074H
	DB	83					; 00000053H
	DB	116					; 00000074H
	DB	114					; 00000072H
	DB	101					; 00000065H
	DB	97					; 00000061H
	DB	109					; 0000006dH
	DB	0
$LN51@Extract:
	DB	99					; 00000063H
	DB	111					; 0000006fH
	DB	112					; 00000070H
	DB	121					; 00000079H
	DB	67					; 00000043H
	DB	111					; 0000006fH
	DB	100					; 00000064H
	DB	101					; 00000065H
	DB	114					; 00000072H
	DB	0
$LN50@Extract:
	DB	111					; 0000006fH
	DB	117					; 00000075H
	DB	116					; 00000074H
	DB	83					; 00000053H
	DB	116					; 00000074H
	DB	114					; 00000072H
	DB	101					; 00000065H
	DB	97					; 00000061H
	DB	109					; 0000006dH
	DB	0
$LN49@Extract:
	DB	105					; 00000069H
	DB	110					; 0000006eH
	DB	83					; 00000053H
	DB	116					; 00000074H
	DB	114					; 00000072H
	DB	101					; 00000065H
	DB	97					; 00000061H
	DB	109					; 0000006dH
	DB	0
$LN48@Extract:
	DB	112					; 00000070H
	DB	114					; 00000072H
	DB	111					; 0000006fH
	DB	103					; 00000067H
	DB	114					; 00000072H
	DB	101					; 00000065H
	DB	115					; 00000073H
	DB	115					; 00000073H
	DB	0
_TEXT	ENDS
text$x	SEGMENT
__unwindfunclet$?Extract@CHandler@NParser@NArchive@@UAGJPBIIHPAUIArchiveExtractCallback@@@Z$2:
	mov	eax, DWORD PTR $T77315[ebp]
	push	eax
	call	??3@YAXPAX@Z				; operator delete
	pop	ecx
	ret	0
__unwindfunclet$?Extract@CHandler@NParser@NArchive@@UAGJPBIIHPAUIArchiveExtractCallback@@@Z$3:
	lea	ecx, DWORD PTR _progress$73056[ebp]
	jmp	??1?$CMyComPtr@UICompressProgressInfo@@@@QAE@XZ ; CMyComPtr<ICompressProgressInfo>::~CMyComPtr<ICompressProgressInfo>
__unwindfunclet$?Extract@CHandler@NParser@NArchive@@UAGJPBIIHPAUIArchiveExtractCallback@@@Z$4:
	mov	eax, DWORD PTR $T77319[ebp]
	push	eax
	call	??3@YAXPAX@Z				; operator delete
	pop	ecx
	ret	0
__unwindfunclet$?Extract@CHandler@NParser@NArchive@@UAGJPBIIHPAUIArchiveExtractCallback@@@Z$5:
	lea	ecx, DWORD PTR _inStream$73063[ebp]
	jmp	??1?$CMyComPtr@UISequentialInStream@@@@QAE@XZ ; CMyComPtr<ISequentialInStream>::~CMyComPtr<ISequentialInStream>
__unwindfunclet$?Extract@CHandler@NParser@NArchive@@UAGJPBIIHPAUIArchiveExtractCallback@@@Z$6:
	mov	eax, DWORD PTR $T77323[ebp]
	push	eax
	call	??3@YAXPAX@Z				; operator delete
	pop	ecx
	ret	0
__unwindfunclet$?Extract@CHandler@NParser@NArchive@@UAGJPBIIHPAUIArchiveExtractCallback@@@Z$7:
	lea	ecx, DWORD PTR _outStream$73070[ebp]
	jmp	??1?$CMyComPtr@UISequentialOutStream@@@@QAE@XZ ; CMyComPtr<ISequentialOutStream>::~CMyComPtr<ISequentialOutStream>
__unwindfunclet$?Extract@CHandler@NParser@NArchive@@UAGJPBIIHPAUIArchiveExtractCallback@@@Z$8:
	mov	eax, DWORD PTR $T77327[ebp]
	push	eax
	call	??3@YAXPAX@Z				; operator delete
	pop	ecx
	ret	0
__unwindfunclet$?Extract@CHandler@NParser@NArchive@@UAGJPBIIHPAUIArchiveExtractCallback@@@Z$9:
	lea	ecx, DWORD PTR _copyCoder$73113[ebp]
	jmp	??1?$CMyComPtr@UICompressCoder@@@@QAE@XZ ; CMyComPtr<ICompressCoder>::~CMyComPtr<ICompressCoder>
__unwindfunclet$?Extract@CHandler@NParser@NArchive@@UAGJPBIIHPAUIArchiveExtractCallback@@@Z$10:
	lea	ecx, DWORD PTR _realOutStream$73121[ebp]
	jmp	??1?$CMyComPtr@UISequentialOutStream@@@@QAE@XZ ; CMyComPtr<ISequentialOutStream>::~CMyComPtr<ISequentialOutStream>
__ehhandler$?Extract@CHandler@NParser@NArchive@@UAGJPBIIHPAUIArchiveExtractCallback@@@Z:
	mov	edx, DWORD PTR [esp+8]
	lea	eax, DWORD PTR [edx+12]
	mov	ecx, DWORD PTR [edx-388]
	xor	ecx, eax
	call	@__security_check_cookie@4
	mov	eax, OFFSET __ehfuncinfo$?Extract@CHandler@NParser@NArchive@@UAGJPBIIHPAUIArchiveExtractCallback@@@Z
	jmp	___CxxFrameHandler3
text$x	ENDS
?Extract@CHandler@NParser@NArchive@@UAGJPBIIHPAUIArchiveExtractCallback@@@Z ENDP ; NArchive::NParser::CHandler::Extract
PUBLIC	??4?$CMyComPtr@UISequentialInStream@@@@QAEPAUISequentialInStream@@PAU1@@Z ; CMyComPtr<ISequentialInStream>::operator=
; Function compile flags: /Odtp /RTCsu
;	COMDAT ?SetStream@CLimitedSequentialInStream@@QAEXPAUISequentialInStream@@@Z
_TEXT	SEGMENT
_this$ = -4						; size = 4
_stream$ = 8						; size = 4
?SetStream@CLimitedSequentialInStream@@QAEXPAUISequentialInStream@@@Z PROC ; CLimitedSequentialInStream::SetStream, COMDAT
; _this$ = ecx
; File c:\workspace\7z1505-src\cpp\7zip\common\limitedstreams.h
; Line 20
	push	ebp
	mov	ebp, esp
	push	ecx
	mov	DWORD PTR [ebp-4], -858993460		; ccccccccH
	mov	DWORD PTR _this$[ebp], ecx
	mov	eax, DWORD PTR _stream$[ebp]
	push	eax
	mov	ecx, DWORD PTR _this$[ebp]
	add	ecx, 8
	call	??4?$CMyComPtr@UISequentialInStream@@@@QAEPAUISequentialInStream@@PAU1@@Z ; CMyComPtr<ISequentialInStream>::operator=
	add	esp, 4
	cmp	ebp, esp
	call	__RTC_CheckEsp
	mov	esp, ebp
	pop	ebp
	ret	4
?SetStream@CLimitedSequentialInStream@@QAEXPAUISequentialInStream@@@Z ENDP ; CLimitedSequentialInStream::SetStream
; Function compile flags: /Odtp /RTCsu
_TEXT	ENDS
;	COMDAT ?Init@CLimitedSequentialInStream@@QAEX_K@Z
_TEXT	SEGMENT
_this$ = -4						; size = 4
_streamSize$ = 8					; size = 8
?Init@CLimitedSequentialInStream@@QAEX_K@Z PROC		; CLimitedSequentialInStream::Init, COMDAT
; _this$ = ecx
; Line 23
	push	ebp
	mov	ebp, esp
	push	ecx
	mov	DWORD PTR [ebp-4], -858993460		; ccccccccH
	mov	DWORD PTR _this$[ebp], ecx
; Line 24
	mov	eax, DWORD PTR _this$[ebp]
	mov	ecx, DWORD PTR _streamSize$[ebp]
	mov	DWORD PTR [eax+16], ecx
	mov	edx, DWORD PTR _streamSize$[ebp+4]
	mov	DWORD PTR [eax+20], edx
; Line 25
	mov	eax, DWORD PTR _this$[ebp]
	mov	DWORD PTR [eax+24], 0
	mov	DWORD PTR [eax+28], 0
; Line 26
	mov	ecx, DWORD PTR _this$[ebp]
	mov	BYTE PTR [ecx+32], 0
; Line 27
	mov	esp, ebp
	pop	ebp
	ret	8
?Init@CLimitedSequentialInStream@@QAEX_K@Z ENDP		; CLimitedSequentialInStream::Init
_TEXT	ENDS
PUBLIC	??4?$CMyComPtr@UISequentialOutStream@@@@QAEPAUISequentialOutStream@@PAU1@@Z ; CMyComPtr<ISequentialOutStream>::operator=
; Function compile flags: /Odtp /RTCsu
;	COMDAT ?SetStream@CLimitedSequentialOutStream@@QAEXPAUISequentialOutStream@@@Z
_TEXT	SEGMENT
_this$ = -4						; size = 4
_stream$ = 8						; size = 4
?SetStream@CLimitedSequentialOutStream@@QAEXPAUISequentialOutStream@@@Z PROC ; CLimitedSequentialOutStream::SetStream, COMDAT
; _this$ = ecx
; Line 147
	push	ebp
	mov	ebp, esp
	push	ecx
	mov	DWORD PTR [ebp-4], -858993460		; ccccccccH
	mov	DWORD PTR _this$[ebp], ecx
	mov	eax, DWORD PTR _stream$[ebp]
	push	eax
	mov	ecx, DWORD PTR _this$[ebp]
	add	ecx, 8
	call	??4?$CMyComPtr@UISequentialOutStream@@@@QAEPAUISequentialOutStream@@PAU1@@Z ; CMyComPtr<ISequentialOutStream>::operator=
	add	esp, 4
	cmp	ebp, esp
	call	__RTC_CheckEsp
	mov	esp, ebp
	pop	ebp
	ret	4
?SetStream@CLimitedSequentialOutStream@@QAEXPAUISequentialOutStream@@@Z ENDP ; CLimitedSequentialOutStream::SetStream
; Function compile flags: /Odtp /RTCsu
_TEXT	ENDS
;	COMDAT ?ReleaseStream@CLimitedSequentialOutStream@@QAEXXZ
_TEXT	SEGMENT
_this$ = -4						; size = 4
?ReleaseStream@CLimitedSequentialOutStream@@QAEXXZ PROC	; CLimitedSequentialOutStream::ReleaseStream, COMDAT
; _this$ = ecx
; Line 148
	push	ebp
	mov	ebp, esp
	push	ecx
	mov	DWORD PTR [ebp-4], -858993460		; ccccccccH
	mov	DWORD PTR _this$[ebp], ecx
	mov	ecx, DWORD PTR _this$[ebp]
	add	ecx, 8
	call	?Release@?$CMyComPtr@UISequentialOutStream@@@@QAEXXZ ; CMyComPtr<ISequentialOutStream>::Release
	add	esp, 4
	cmp	ebp, esp
	call	__RTC_CheckEsp
	mov	esp, ebp
	pop	ebp
	ret	0
?ReleaseStream@CLimitedSequentialOutStream@@QAEXXZ ENDP	; CLimitedSequentialOutStream::ReleaseStream
; Function compile flags: /Odtp /RTCsu
_TEXT	ENDS
;	COMDAT ?Init@CLimitedSequentialOutStream@@QAEX_K_N@Z
_TEXT	SEGMENT
_this$ = -4						; size = 4
_size$ = 8						; size = 8
_overflowIsAllowed$ = 16				; size = 1
?Init@CLimitedSequentialOutStream@@QAEX_K_N@Z PROC	; CLimitedSequentialOutStream::Init, COMDAT
; _this$ = ecx
; Line 150
	push	ebp
	mov	ebp, esp
	push	ecx
	mov	DWORD PTR [ebp-4], -858993460		; ccccccccH
	mov	DWORD PTR _this$[ebp], ecx
; Line 151
	mov	eax, DWORD PTR _this$[ebp]
	mov	ecx, DWORD PTR _size$[ebp]
	mov	DWORD PTR [eax+16], ecx
	mov	edx, DWORD PTR _size$[ebp+4]
	mov	DWORD PTR [eax+20], edx
; Line 152
	mov	eax, DWORD PTR _this$[ebp]
	mov	BYTE PTR [eax+24], 0
; Line 153
	mov	ecx, DWORD PTR _this$[ebp]
	mov	dl, BYTE PTR _overflowIsAllowed$[ebp]
	mov	BYTE PTR [ecx+25], dl
; Line 154
	mov	esp, ebp
	pop	ebp
	ret	12					; 0000000cH
?Init@CLimitedSequentialOutStream@@QAEX_K_N@Z ENDP	; CLimitedSequentialOutStream::Init
; Function compile flags: /Odtp /RTCsu
_TEXT	ENDS
;	COMDAT ?GetRem@CLimitedSequentialOutStream@@QBE_KXZ
_TEXT	SEGMENT
_this$ = -4						; size = 4
?GetRem@CLimitedSequentialOutStream@@QBE_KXZ PROC	; CLimitedSequentialOutStream::GetRem, COMDAT
; _this$ = ecx
; Line 156
	push	ebp
	mov	ebp, esp
	push	ecx
	mov	DWORD PTR [ebp-4], -858993460		; ccccccccH
	mov	DWORD PTR _this$[ebp], ecx
	mov	ecx, DWORD PTR _this$[ebp]
	mov	eax, DWORD PTR [ecx+16]
	mov	edx, DWORD PTR [ecx+20]
	mov	esp, ebp
	pop	ebp
	ret	0
?GetRem@CLimitedSequentialOutStream@@QBE_KXZ ENDP	; CLimitedSequentialOutStream::GetRem
_TEXT	ENDS
PUBLIC	??0?$CMyComPtr@UISequentialInStream@@@@QAE@XZ	; CMyComPtr<ISequentialInStream>::CMyComPtr<ISequentialInStream>
PUBLIC	??_7CCopyCoder@NCompress@@6BICompressGetInStreamProcessedSize@@@ ; NCompress::CCopyCoder::`vftable'
PUBLIC	??_7CCopyCoder@NCompress@@6BISequentialInStream@@@ ; NCompress::CCopyCoder::`vftable'
PUBLIC	??_7CCopyCoder@NCompress@@6BICompressSetInStream@@@ ; NCompress::CCopyCoder::`vftable'
PUBLIC	??_7CCopyCoder@NCompress@@6BICompressCoder@@@	; NCompress::CCopyCoder::`vftable'
PUBLIC	??0CMyUnknownImp@@QAE@XZ			; CMyUnknownImp::CMyUnknownImp
PUBLIC	??0ICompressGetInStreamProcessedSize@@QAE@XZ	; ICompressGetInStreamProcessedSize::ICompressGetInStreamProcessedSize
PUBLIC	??0ISequentialInStream@@QAE@XZ			; ISequentialInStream::ISequentialInStream
PUBLIC	??0ICompressSetInStream@@QAE@XZ			; ICompressSetInStream::ICompressSetInStream
PUBLIC	??0ICompressCoder@@QAE@XZ			; ICompressCoder::ICompressCoder
PUBLIC	??_R4CCopyCoder@NCompress@@6BICompressCoder@@@	; NCompress::CCopyCoder::`RTTI Complete Object Locator'
PUBLIC	??_R0?AVCCopyCoder@NCompress@@@8		; NCompress::CCopyCoder `RTTI Type Descriptor'
PUBLIC	??_R3CCopyCoder@NCompress@@8			; NCompress::CCopyCoder::`RTTI Class Hierarchy Descriptor'
PUBLIC	??_R2CCopyCoder@NCompress@@8			; NCompress::CCopyCoder::`RTTI Base Class Array'
PUBLIC	??_R1A@?0A@EA@CCopyCoder@NCompress@@8		; NCompress::CCopyCoder::`RTTI Base Class Descriptor at (0,-1,0,64)'
PUBLIC	??_R1A@?0A@EA@ICompressCoder@@8			; ICompressCoder::`RTTI Base Class Descriptor at (0,-1,0,64)'
PUBLIC	??_R0?AUICompressCoder@@@8			; ICompressCoder `RTTI Type Descriptor'
PUBLIC	??_R3ICompressCoder@@8				; ICompressCoder::`RTTI Class Hierarchy Descriptor'
PUBLIC	??_R2ICompressCoder@@8				; ICompressCoder::`RTTI Base Class Array'
PUBLIC	??_R1A@?0A@EA@IUnknown@@8			; IUnknown::`RTTI Base Class Descriptor at (0,-1,0,64)'
PUBLIC	??_R0?AUIUnknown@@@8				; IUnknown `RTTI Type Descriptor'
PUBLIC	??_R3IUnknown@@8				; IUnknown::`RTTI Class Hierarchy Descriptor'
PUBLIC	??_R2IUnknown@@8				; IUnknown::`RTTI Base Class Array'
PUBLIC	??_R1A@?0A@EC@IUnknown@@8			; IUnknown::`RTTI Base Class Descriptor at (0,-1,0,66)'
PUBLIC	??_R13?0A@EA@ICompressSetInStream@@8		; ICompressSetInStream::`RTTI Base Class Descriptor at (4,-1,0,64)'
PUBLIC	??_R0?AUICompressSetInStream@@@8		; ICompressSetInStream `RTTI Type Descriptor'
PUBLIC	??_R3ICompressSetInStream@@8			; ICompressSetInStream::`RTTI Class Hierarchy Descriptor'
PUBLIC	??_R2ICompressSetInStream@@8			; ICompressSetInStream::`RTTI Base Class Array'
PUBLIC	??_R1A@?0A@EA@ICompressSetInStream@@8		; ICompressSetInStream::`RTTI Base Class Descriptor at (0,-1,0,64)'
PUBLIC	??_R13?0A@EC@IUnknown@@8			; IUnknown::`RTTI Base Class Descriptor at (4,-1,0,66)'
PUBLIC	??_R17?0A@EA@ISequentialInStream@@8		; ISequentialInStream::`RTTI Base Class Descriptor at (8,-1,0,64)'
PUBLIC	??_R0?AUISequentialInStream@@@8			; ISequentialInStream `RTTI Type Descriptor'
PUBLIC	??_R3ISequentialInStream@@8			; ISequentialInStream::`RTTI Class Hierarchy Descriptor'
PUBLIC	??_R2ISequentialInStream@@8			; ISequentialInStream::`RTTI Base Class Array'
PUBLIC	??_R1A@?0A@EA@ISequentialInStream@@8		; ISequentialInStream::`RTTI Base Class Descriptor at (0,-1,0,64)'
PUBLIC	??_R17?0A@EC@IUnknown@@8			; IUnknown::`RTTI Base Class Descriptor at (8,-1,0,66)'
PUBLIC	??_R1M@?0A@EA@ICompressGetInStreamProcessedSize@@8 ; ICompressGetInStreamProcessedSize::`RTTI Base Class Descriptor at (12,-1,0,64)'
PUBLIC	??_R0?AUICompressGetInStreamProcessedSize@@@8	; ICompressGetInStreamProcessedSize `RTTI Type Descriptor'
PUBLIC	??_R3ICompressGetInStreamProcessedSize@@8	; ICompressGetInStreamProcessedSize::`RTTI Class Hierarchy Descriptor'
PUBLIC	??_R2ICompressGetInStreamProcessedSize@@8	; ICompressGetInStreamProcessedSize::`RTTI Base Class Array'
PUBLIC	??_R1A@?0A@EA@ICompressGetInStreamProcessedSize@@8 ; ICompressGetInStreamProcessedSize::`RTTI Base Class Descriptor at (0,-1,0,64)'
PUBLIC	??_R1M@?0A@EC@IUnknown@@8			; IUnknown::`RTTI Base Class Descriptor at (12,-1,0,66)'
PUBLIC	??_R1BA@?0A@EA@CMyUnknownImp@@8			; CMyUnknownImp::`RTTI Base Class Descriptor at (16,-1,0,64)'
PUBLIC	??_R0?AVCMyUnknownImp@@@8			; CMyUnknownImp `RTTI Type Descriptor'
PUBLIC	??_R3CMyUnknownImp@@8				; CMyUnknownImp::`RTTI Class Hierarchy Descriptor'
PUBLIC	??_R2CMyUnknownImp@@8				; CMyUnknownImp::`RTTI Base Class Array'
PUBLIC	??_R1A@?0A@EA@CMyUnknownImp@@8			; CMyUnknownImp::`RTTI Base Class Descriptor at (0,-1,0,64)'
PUBLIC	?QueryInterface@CCopyCoder@NCompress@@UAGJABU_GUID@@PAPAX@Z ; NCompress::CCopyCoder::QueryInterface
PUBLIC	?AddRef@CCopyCoder@NCompress@@UAGKXZ		; NCompress::CCopyCoder::AddRef
PUBLIC	?Release@CCopyCoder@NCompress@@UAGKXZ		; NCompress::CCopyCoder::Release
PUBLIC	??_R4CCopyCoder@NCompress@@6BICompressSetInStream@@@ ; NCompress::CCopyCoder::`RTTI Complete Object Locator'
PUBLIC	?QueryInterface@CCopyCoder@NCompress@@W3AGJABU_GUID@@PAPAX@Z ; [thunk]:NCompress::CCopyCoder::QueryInterface`adjustor{4}'
PUBLIC	?AddRef@CCopyCoder@NCompress@@W3AGKXZ		; [thunk]:NCompress::CCopyCoder::AddRef`adjustor{4}'
PUBLIC	?Release@CCopyCoder@NCompress@@W3AGKXZ		; [thunk]:NCompress::CCopyCoder::Release`adjustor{4}'
PUBLIC	??_R4CCopyCoder@NCompress@@6BISequentialInStream@@@ ; NCompress::CCopyCoder::`RTTI Complete Object Locator'
PUBLIC	?QueryInterface@CCopyCoder@NCompress@@W7AGJABU_GUID@@PAPAX@Z ; [thunk]:NCompress::CCopyCoder::QueryInterface`adjustor{8}'
PUBLIC	?AddRef@CCopyCoder@NCompress@@W7AGKXZ		; [thunk]:NCompress::CCopyCoder::AddRef`adjustor{8}'
PUBLIC	?Release@CCopyCoder@NCompress@@W7AGKXZ		; [thunk]:NCompress::CCopyCoder::Release`adjustor{8}'
PUBLIC	??_R4CCopyCoder@NCompress@@6BICompressGetInStreamProcessedSize@@@ ; NCompress::CCopyCoder::`RTTI Complete Object Locator'
PUBLIC	?QueryInterface@CCopyCoder@NCompress@@WM@AGJABU_GUID@@PAPAX@Z ; [thunk]:NCompress::CCopyCoder::QueryInterface`adjustor{12}'
PUBLIC	?AddRef@CCopyCoder@NCompress@@WM@AGKXZ		; [thunk]:NCompress::CCopyCoder::AddRef`adjustor{12}'
PUBLIC	?Release@CCopyCoder@NCompress@@WM@AGKXZ		; [thunk]:NCompress::CCopyCoder::Release`adjustor{12}'
EXTRN	??_7type_info@@6B@:QWORD			; type_info::`vftable'
EXTRN	?Code@CCopyCoder@NCompress@@UAGJPAUISequentialInStream@@PAUISequentialOutStream@@PB_K2PAUICompressProgressInfo@@@Z:PROC ; NCompress::CCopyCoder::Code
EXTRN	?SetInStream@CCopyCoder@NCompress@@UAGJPAUISequentialInStream@@@Z:PROC ; NCompress::CCopyCoder::SetInStream
EXTRN	?ReleaseInStream@CCopyCoder@NCompress@@UAGJXZ:PROC ; NCompress::CCopyCoder::ReleaseInStream
EXTRN	?Read@CCopyCoder@NCompress@@UAGJPAXIPAI@Z:PROC	; NCompress::CCopyCoder::Read
EXTRN	?GetInStreamProcessedSize@CCopyCoder@NCompress@@UAGJPA_K@Z:PROC ; NCompress::CCopyCoder::GetInStreamProcessedSize
;	COMDAT ??_R4CCopyCoder@NCompress@@6BICompressGetInStreamProcessedSize@@@
; File c:\workspace\7z1505-src\cpp\7zip\compress\copycoder.h
rdata$r	SEGMENT
??_R4CCopyCoder@NCompress@@6BICompressGetInStreamProcessedSize@@@ DD 00H ; NCompress::CCopyCoder::`RTTI Complete Object Locator'
	DD	0cH
	DD	00H
	DD	FLAT:??_R0?AVCCopyCoder@NCompress@@@8
	DD	FLAT:??_R3CCopyCoder@NCompress@@8
rdata$r	ENDS
;	COMDAT ??_R4CCopyCoder@NCompress@@6BISequentialInStream@@@
rdata$r	SEGMENT
??_R4CCopyCoder@NCompress@@6BISequentialInStream@@@ DD 00H ; NCompress::CCopyCoder::`RTTI Complete Object Locator'
	DD	08H
	DD	00H
	DD	FLAT:??_R0?AVCCopyCoder@NCompress@@@8
	DD	FLAT:??_R3CCopyCoder@NCompress@@8
rdata$r	ENDS
;	COMDAT ??_R4CCopyCoder@NCompress@@6BICompressSetInStream@@@
rdata$r	SEGMENT
??_R4CCopyCoder@NCompress@@6BICompressSetInStream@@@ DD 00H ; NCompress::CCopyCoder::`RTTI Complete Object Locator'
	DD	04H
	DD	00H
	DD	FLAT:??_R0?AVCCopyCoder@NCompress@@@8
	DD	FLAT:??_R3CCopyCoder@NCompress@@8
rdata$r	ENDS
;	COMDAT ??_R1A@?0A@EA@CMyUnknownImp@@8
rdata$r	SEGMENT
??_R1A@?0A@EA@CMyUnknownImp@@8 DD FLAT:??_R0?AVCMyUnknownImp@@@8 ; CMyUnknownImp::`RTTI Base Class Descriptor at (0,-1,0,64)'
	DD	00H
	DD	00H
	DD	0ffffffffH
	DD	00H
	DD	040H
	DD	FLAT:??_R3CMyUnknownImp@@8
rdata$r	ENDS
;	COMDAT ??_R2CMyUnknownImp@@8
rdata$r	SEGMENT
??_R2CMyUnknownImp@@8 DD FLAT:??_R1A@?0A@EA@CMyUnknownImp@@8 ; CMyUnknownImp::`RTTI Base Class Array'
rdata$r	ENDS
;	COMDAT ??_R3CMyUnknownImp@@8
rdata$r	SEGMENT
??_R3CMyUnknownImp@@8 DD 00H				; CMyUnknownImp::`RTTI Class Hierarchy Descriptor'
	DD	00H
	DD	01H
	DD	FLAT:??_R2CMyUnknownImp@@8
rdata$r	ENDS
;	COMDAT ??_R0?AVCMyUnknownImp@@@8
_DATA	SEGMENT
??_R0?AVCMyUnknownImp@@@8 DD FLAT:??_7type_info@@6B@	; CMyUnknownImp `RTTI Type Descriptor'
	DD	00H
	DB	'.?AVCMyUnknownImp@@', 00H
_DATA	ENDS
;	COMDAT ??_R1BA@?0A@EA@CMyUnknownImp@@8
rdata$r	SEGMENT
??_R1BA@?0A@EA@CMyUnknownImp@@8 DD FLAT:??_R0?AVCMyUnknownImp@@@8 ; CMyUnknownImp::`RTTI Base Class Descriptor at (16,-1,0,64)'
	DD	00H
	DD	010H
	DD	0ffffffffH
	DD	00H
	DD	040H
	DD	FLAT:??_R3CMyUnknownImp@@8
rdata$r	ENDS
;	COMDAT ??_R1M@?0A@EC@IUnknown@@8
rdata$r	SEGMENT
??_R1M@?0A@EC@IUnknown@@8 DD FLAT:??_R0?AUIUnknown@@@8	; IUnknown::`RTTI Base Class Descriptor at (12,-1,0,66)'
	DD	00H
	DD	0cH
	DD	0ffffffffH
	DD	00H
	DD	042H
	DD	FLAT:??_R3IUnknown@@8
rdata$r	ENDS
;	COMDAT ??_R1A@?0A@EA@ICompressGetInStreamProcessedSize@@8
rdata$r	SEGMENT
??_R1A@?0A@EA@ICompressGetInStreamProcessedSize@@8 DD FLAT:??_R0?AUICompressGetInStreamProcessedSize@@@8 ; ICompressGetInStreamProcessedSize::`RTTI Base Class Descriptor at (0,-1,0,64)'
	DD	01H
	DD	00H
	DD	0ffffffffH
	DD	00H
	DD	040H
	DD	FLAT:??_R3ICompressGetInStreamProcessedSize@@8
rdata$r	ENDS
;	COMDAT ??_R2ICompressGetInStreamProcessedSize@@8
rdata$r	SEGMENT
??_R2ICompressGetInStreamProcessedSize@@8 DD FLAT:??_R1A@?0A@EA@ICompressGetInStreamProcessedSize@@8 ; ICompressGetInStreamProcessedSize::`RTTI Base Class Array'
	DD	FLAT:??_R1A@?0A@EA@IUnknown@@8
rdata$r	ENDS
;	COMDAT ??_R3ICompressGetInStreamProcessedSize@@8
rdata$r	SEGMENT
??_R3ICompressGetInStreamProcessedSize@@8 DD 00H	; ICompressGetInStreamProcessedSize::`RTTI Class Hierarchy Descriptor'
	DD	00H
	DD	02H
	DD	FLAT:??_R2ICompressGetInStreamProcessedSize@@8
rdata$r	ENDS
;	COMDAT ??_R0?AUICompressGetInStreamProcessedSize@@@8
_DATA	SEGMENT
??_R0?AUICompressGetInStreamProcessedSize@@@8 DD FLAT:??_7type_info@@6B@ ; ICompressGetInStreamProcessedSize `RTTI Type Descriptor'
	DD	00H
	DB	'.?AUICompressGetInStreamProcessedSize@@', 00H
_DATA	ENDS
;	COMDAT ??_R1M@?0A@EA@ICompressGetInStreamProcessedSize@@8
rdata$r	SEGMENT
??_R1M@?0A@EA@ICompressGetInStreamProcessedSize@@8 DD FLAT:??_R0?AUICompressGetInStreamProcessedSize@@@8 ; ICompressGetInStreamProcessedSize::`RTTI Base Class Descriptor at (12,-1,0,64)'
	DD	01H
	DD	0cH
	DD	0ffffffffH
	DD	00H
	DD	040H
	DD	FLAT:??_R3ICompressGetInStreamProcessedSize@@8
rdata$r	ENDS
;	COMDAT ??_R17?0A@EC@IUnknown@@8
rdata$r	SEGMENT
??_R17?0A@EC@IUnknown@@8 DD FLAT:??_R0?AUIUnknown@@@8	; IUnknown::`RTTI Base Class Descriptor at (8,-1,0,66)'
	DD	00H
	DD	08H
	DD	0ffffffffH
	DD	00H
	DD	042H
	DD	FLAT:??_R3IUnknown@@8
rdata$r	ENDS
;	COMDAT ??_R1A@?0A@EA@ISequentialInStream@@8
rdata$r	SEGMENT
??_R1A@?0A@EA@ISequentialInStream@@8 DD FLAT:??_R0?AUISequentialInStream@@@8 ; ISequentialInStream::`RTTI Base Class Descriptor at (0,-1,0,64)'
	DD	01H
	DD	00H
	DD	0ffffffffH
	DD	00H
	DD	040H
	DD	FLAT:??_R3ISequentialInStream@@8
rdata$r	ENDS
;	COMDAT ??_R2ISequentialInStream@@8
rdata$r	SEGMENT
??_R2ISequentialInStream@@8 DD FLAT:??_R1A@?0A@EA@ISequentialInStream@@8 ; ISequentialInStream::`RTTI Base Class Array'
	DD	FLAT:??_R1A@?0A@EA@IUnknown@@8
rdata$r	ENDS
;	COMDAT ??_R3ISequentialInStream@@8
rdata$r	SEGMENT
??_R3ISequentialInStream@@8 DD 00H			; ISequentialInStream::`RTTI Class Hierarchy Descriptor'
	DD	00H
	DD	02H
	DD	FLAT:??_R2ISequentialInStream@@8
rdata$r	ENDS
;	COMDAT ??_R0?AUISequentialInStream@@@8
_DATA	SEGMENT
??_R0?AUISequentialInStream@@@8 DD FLAT:??_7type_info@@6B@ ; ISequentialInStream `RTTI Type Descriptor'
	DD	00H
	DB	'.?AUISequentialInStream@@', 00H
_DATA	ENDS
;	COMDAT ??_R17?0A@EA@ISequentialInStream@@8
rdata$r	SEGMENT
??_R17?0A@EA@ISequentialInStream@@8 DD FLAT:??_R0?AUISequentialInStream@@@8 ; ISequentialInStream::`RTTI Base Class Descriptor at (8,-1,0,64)'
	DD	01H
	DD	08H
	DD	0ffffffffH
	DD	00H
	DD	040H
	DD	FLAT:??_R3ISequentialInStream@@8
rdata$r	ENDS
;	COMDAT ??_R13?0A@EC@IUnknown@@8
rdata$r	SEGMENT
??_R13?0A@EC@IUnknown@@8 DD FLAT:??_R0?AUIUnknown@@@8	; IUnknown::`RTTI Base Class Descriptor at (4,-1,0,66)'
	DD	00H
	DD	04H
	DD	0ffffffffH
	DD	00H
	DD	042H
	DD	FLAT:??_R3IUnknown@@8
rdata$r	ENDS
;	COMDAT ??_R1A@?0A@EA@ICompressSetInStream@@8
rdata$r	SEGMENT
??_R1A@?0A@EA@ICompressSetInStream@@8 DD FLAT:??_R0?AUICompressSetInStream@@@8 ; ICompressSetInStream::`RTTI Base Class Descriptor at (0,-1,0,64)'
	DD	01H
	DD	00H
	DD	0ffffffffH
	DD	00H
	DD	040H
	DD	FLAT:??_R3ICompressSetInStream@@8
rdata$r	ENDS
;	COMDAT ??_R2ICompressSetInStream@@8
rdata$r	SEGMENT
??_R2ICompressSetInStream@@8 DD FLAT:??_R1A@?0A@EA@ICompressSetInStream@@8 ; ICompressSetInStream::`RTTI Base Class Array'
	DD	FLAT:??_R1A@?0A@EA@IUnknown@@8
rdata$r	ENDS
;	COMDAT ??_R3ICompressSetInStream@@8
rdata$r	SEGMENT
??_R3ICompressSetInStream@@8 DD 00H			; ICompressSetInStream::`RTTI Class Hierarchy Descriptor'
	DD	00H
	DD	02H
	DD	FLAT:??_R2ICompressSetInStream@@8
rdata$r	ENDS
;	COMDAT ??_R0?AUICompressSetInStream@@@8
_DATA	SEGMENT
??_R0?AUICompressSetInStream@@@8 DD FLAT:??_7type_info@@6B@ ; ICompressSetInStream `RTTI Type Descriptor'
	DD	00H
	DB	'.?AUICompressSetInStream@@', 00H
_DATA	ENDS
;	COMDAT ??_R13?0A@EA@ICompressSetInStream@@8
rdata$r	SEGMENT
??_R13?0A@EA@ICompressSetInStream@@8 DD FLAT:??_R0?AUICompressSetInStream@@@8 ; ICompressSetInStream::`RTTI Base Class Descriptor at (4,-1,0,64)'
	DD	01H
	DD	04H
	DD	0ffffffffH
	DD	00H
	DD	040H
	DD	FLAT:??_R3ICompressSetInStream@@8
rdata$r	ENDS
;	COMDAT ??_R1A@?0A@EC@IUnknown@@8
rdata$r	SEGMENT
??_R1A@?0A@EC@IUnknown@@8 DD FLAT:??_R0?AUIUnknown@@@8	; IUnknown::`RTTI Base Class Descriptor at (0,-1,0,66)'
	DD	00H
	DD	00H
	DD	0ffffffffH
	DD	00H
	DD	042H
	DD	FLAT:??_R3IUnknown@@8
rdata$r	ENDS
;	COMDAT ??_R2IUnknown@@8
rdata$r	SEGMENT
??_R2IUnknown@@8 DD FLAT:??_R1A@?0A@EA@IUnknown@@8	; IUnknown::`RTTI Base Class Array'
rdata$r	ENDS
;	COMDAT ??_R3IUnknown@@8
rdata$r	SEGMENT
??_R3IUnknown@@8 DD 00H					; IUnknown::`RTTI Class Hierarchy Descriptor'
	DD	00H
	DD	01H
	DD	FLAT:??_R2IUnknown@@8
rdata$r	ENDS
;	COMDAT ??_R0?AUIUnknown@@@8
_DATA	SEGMENT
??_R0?AUIUnknown@@@8 DD FLAT:??_7type_info@@6B@		; IUnknown `RTTI Type Descriptor'
	DD	00H
	DB	'.?AUIUnknown@@', 00H
_DATA	ENDS
;	COMDAT ??_R1A@?0A@EA@IUnknown@@8
rdata$r	SEGMENT
??_R1A@?0A@EA@IUnknown@@8 DD FLAT:??_R0?AUIUnknown@@@8	; IUnknown::`RTTI Base Class Descriptor at (0,-1,0,64)'
	DD	00H
	DD	00H
	DD	0ffffffffH
	DD	00H
	DD	040H
	DD	FLAT:??_R3IUnknown@@8
rdata$r	ENDS
;	COMDAT ??_R2ICompressCoder@@8
rdata$r	SEGMENT
??_R2ICompressCoder@@8 DD FLAT:??_R1A@?0A@EA@ICompressCoder@@8 ; ICompressCoder::`RTTI Base Class Array'
	DD	FLAT:??_R1A@?0A@EA@IUnknown@@8
rdata$r	ENDS
;	COMDAT ??_R3ICompressCoder@@8
rdata$r	SEGMENT
??_R3ICompressCoder@@8 DD 00H				; ICompressCoder::`RTTI Class Hierarchy Descriptor'
	DD	00H
	DD	02H
	DD	FLAT:??_R2ICompressCoder@@8
rdata$r	ENDS
;	COMDAT ??_R0?AUICompressCoder@@@8
_DATA	SEGMENT
??_R0?AUICompressCoder@@@8 DD FLAT:??_7type_info@@6B@	; ICompressCoder `RTTI Type Descriptor'
	DD	00H
	DB	'.?AUICompressCoder@@', 00H
_DATA	ENDS
;	COMDAT ??_R1A@?0A@EA@ICompressCoder@@8
rdata$r	SEGMENT
??_R1A@?0A@EA@ICompressCoder@@8 DD FLAT:??_R0?AUICompressCoder@@@8 ; ICompressCoder::`RTTI Base Class Descriptor at (0,-1,0,64)'
	DD	01H
	DD	00H
	DD	0ffffffffH
	DD	00H
	DD	040H
	DD	FLAT:??_R3ICompressCoder@@8
rdata$r	ENDS
;	COMDAT ??_R1A@?0A@EA@CCopyCoder@NCompress@@8
rdata$r	SEGMENT
??_R1A@?0A@EA@CCopyCoder@NCompress@@8 DD FLAT:??_R0?AVCCopyCoder@NCompress@@@8 ; NCompress::CCopyCoder::`RTTI Base Class Descriptor at (0,-1,0,64)'
	DD	09H
	DD	00H
	DD	0ffffffffH
	DD	00H
	DD	040H
	DD	FLAT:??_R3CCopyCoder@NCompress@@8
rdata$r	ENDS
;	COMDAT ??_R2CCopyCoder@NCompress@@8
rdata$r	SEGMENT
??_R2CCopyCoder@NCompress@@8 DD FLAT:??_R1A@?0A@EA@CCopyCoder@NCompress@@8 ; NCompress::CCopyCoder::`RTTI Base Class Array'
	DD	FLAT:??_R1A@?0A@EA@ICompressCoder@@8
	DD	FLAT:??_R1A@?0A@EC@IUnknown@@8
	DD	FLAT:??_R13?0A@EA@ICompressSetInStream@@8
	DD	FLAT:??_R13?0A@EC@IUnknown@@8
	DD	FLAT:??_R17?0A@EA@ISequentialInStream@@8
	DD	FLAT:??_R17?0A@EC@IUnknown@@8
	DD	FLAT:??_R1M@?0A@EA@ICompressGetInStreamProcessedSize@@8
	DD	FLAT:??_R1M@?0A@EC@IUnknown@@8
	DD	FLAT:??_R1BA@?0A@EA@CMyUnknownImp@@8
rdata$r	ENDS
;	COMDAT ??_R3CCopyCoder@NCompress@@8
rdata$r	SEGMENT
??_R3CCopyCoder@NCompress@@8 DD 00H			; NCompress::CCopyCoder::`RTTI Class Hierarchy Descriptor'
	DD	05H
	DD	0aH
	DD	FLAT:??_R2CCopyCoder@NCompress@@8
rdata$r	ENDS
;	COMDAT ??_R0?AVCCopyCoder@NCompress@@@8
_DATA	SEGMENT
??_R0?AVCCopyCoder@NCompress@@@8 DD FLAT:??_7type_info@@6B@ ; NCompress::CCopyCoder `RTTI Type Descriptor'
	DD	00H
	DB	'.?AVCCopyCoder@NCompress@@', 00H
_DATA	ENDS
;	COMDAT ??_R4CCopyCoder@NCompress@@6BICompressCoder@@@
rdata$r	SEGMENT
??_R4CCopyCoder@NCompress@@6BICompressCoder@@@ DD 00H	; NCompress::CCopyCoder::`RTTI Complete Object Locator'
	DD	00H
	DD	00H
	DD	FLAT:??_R0?AVCCopyCoder@NCompress@@@8
	DD	FLAT:??_R3CCopyCoder@NCompress@@8
rdata$r	ENDS
;	COMDAT ??_7CCopyCoder@NCompress@@6BICompressGetInStreamProcessedSize@@@
CONST	SEGMENT
??_7CCopyCoder@NCompress@@6BICompressGetInStreamProcessedSize@@@ DD FLAT:??_R4CCopyCoder@NCompress@@6BICompressGetInStreamProcessedSize@@@ ; NCompress::CCopyCoder::`vftable'
	DD	FLAT:?QueryInterface@CCopyCoder@NCompress@@WM@AGJABU_GUID@@PAPAX@Z
	DD	FLAT:?AddRef@CCopyCoder@NCompress@@WM@AGKXZ
	DD	FLAT:?Release@CCopyCoder@NCompress@@WM@AGKXZ
	DD	FLAT:?GetInStreamProcessedSize@CCopyCoder@NCompress@@UAGJPA_K@Z
CONST	ENDS
;	COMDAT ??_7CCopyCoder@NCompress@@6BISequentialInStream@@@
CONST	SEGMENT
??_7CCopyCoder@NCompress@@6BISequentialInStream@@@ DD FLAT:??_R4CCopyCoder@NCompress@@6BISequentialInStream@@@ ; NCompress::CCopyCoder::`vftable'
	DD	FLAT:?QueryInterface@CCopyCoder@NCompress@@W7AGJABU_GUID@@PAPAX@Z
	DD	FLAT:?AddRef@CCopyCoder@NCompress@@W7AGKXZ
	DD	FLAT:?Release@CCopyCoder@NCompress@@W7AGKXZ
	DD	FLAT:?Read@CCopyCoder@NCompress@@UAGJPAXIPAI@Z
CONST	ENDS
;	COMDAT ??_7CCopyCoder@NCompress@@6BICompressSetInStream@@@
CONST	SEGMENT
??_7CCopyCoder@NCompress@@6BICompressSetInStream@@@ DD FLAT:??_R4CCopyCoder@NCompress@@6BICompressSetInStream@@@ ; NCompress::CCopyCoder::`vftable'
	DD	FLAT:?QueryInterface@CCopyCoder@NCompress@@W3AGJABU_GUID@@PAPAX@Z
	DD	FLAT:?AddRef@CCopyCoder@NCompress@@W3AGKXZ
	DD	FLAT:?Release@CCopyCoder@NCompress@@W3AGKXZ
	DD	FLAT:?SetInStream@CCopyCoder@NCompress@@UAGJPAUISequentialInStream@@@Z
	DD	FLAT:?ReleaseInStream@CCopyCoder@NCompress@@UAGJXZ
CONST	ENDS
;	COMDAT ??_7CCopyCoder@NCompress@@6BICompressCoder@@@
CONST	SEGMENT
??_7CCopyCoder@NCompress@@6BICompressCoder@@@ DD FLAT:??_R4CCopyCoder@NCompress@@6BICompressCoder@@@ ; NCompress::CCopyCoder::`vftable'
	DD	FLAT:?QueryInterface@CCopyCoder@NCompress@@UAGJABU_GUID@@PAPAX@Z
	DD	FLAT:?AddRef@CCopyCoder@NCompress@@UAGKXZ
	DD	FLAT:?Release@CCopyCoder@NCompress@@UAGKXZ
	DD	FLAT:?Code@CCopyCoder@NCompress@@UAGJPAUISequentialInStream@@PAUISequentialOutStream@@PB_K2PAUICompressProgressInfo@@@Z
; Function compile flags: /Odtp /RTCsu
CONST	ENDS
;	COMDAT ??0CCopyCoder@NCompress@@QAE@XZ
_TEXT	SEGMENT
_this$ = -4						; size = 4
??0CCopyCoder@NCompress@@QAE@XZ PROC			; NCompress::CCopyCoder::CCopyCoder, COMDAT
; _this$ = ecx
; Line 24
	push	ebp
	mov	ebp, esp
	push	ecx
	mov	DWORD PTR [ebp-4], -858993460		; ccccccccH
	mov	DWORD PTR _this$[ebp], ecx
	mov	ecx, DWORD PTR _this$[ebp]
	call	??0ICompressCoder@@QAE@XZ
	mov	ecx, DWORD PTR _this$[ebp]
	add	ecx, 4
	call	??0ICompressSetInStream@@QAE@XZ
	mov	ecx, DWORD PTR _this$[ebp]
	add	ecx, 8
	call	??0ISequentialInStream@@QAE@XZ
	mov	ecx, DWORD PTR _this$[ebp]
	add	ecx, 12					; 0000000cH
	call	??0ICompressGetInStreamProcessedSize@@QAE@XZ
	mov	ecx, DWORD PTR _this$[ebp]
	add	ecx, 16					; 00000010H
	call	??0CMyUnknownImp@@QAE@XZ		; CMyUnknownImp::CMyUnknownImp
	mov	eax, DWORD PTR _this$[ebp]
	mov	DWORD PTR [eax], OFFSET ??_7CCopyCoder@NCompress@@6BICompressCoder@@@
	mov	ecx, DWORD PTR _this$[ebp]
	mov	DWORD PTR [ecx+4], OFFSET ??_7CCopyCoder@NCompress@@6BICompressSetInStream@@@
	mov	edx, DWORD PTR _this$[ebp]
	mov	DWORD PTR [edx+8], OFFSET ??_7CCopyCoder@NCompress@@6BISequentialInStream@@@
	mov	eax, DWORD PTR _this$[ebp]
	mov	DWORD PTR [eax+12], OFFSET ??_7CCopyCoder@NCompress@@6BICompressGetInStreamProcessedSize@@@
	mov	ecx, DWORD PTR _this$[ebp]
	mov	DWORD PTR [ecx+20], 0
	mov	ecx, DWORD PTR _this$[ebp]
	add	ecx, 24					; 00000018H
	call	??0?$CMyComPtr@UISequentialInStream@@@@QAE@XZ ; CMyComPtr<ISequentialInStream>::CMyComPtr<ISequentialInStream>
	mov	edx, DWORD PTR _this$[ebp]
	mov	DWORD PTR [edx+32], 0
	mov	DWORD PTR [edx+36], 0
	mov	eax, DWORD PTR _this$[ebp]
	add	esp, 4
	cmp	ebp, esp
	call	__RTC_CheckEsp
	mov	esp, ebp
	pop	ebp
	ret	0
??0CCopyCoder@NCompress@@QAE@XZ ENDP			; NCompress::CCopyCoder::CCopyCoder
; Function compile flags: /Odtp /RTCsu
_TEXT	ENDS
;	COMDAT ??0CMyUnknownImp@@QAE@XZ
_TEXT	SEGMENT
_this$ = -4						; size = 4
??0CMyUnknownImp@@QAE@XZ PROC				; CMyUnknownImp::CMyUnknownImp, COMDAT
; _this$ = ecx
; File c:\workspace\7z1505-src\cpp\common\mycom.h
; Line 167
	push	ebp
	mov	ebp, esp
	push	ecx
	mov	DWORD PTR [ebp-4], -858993460		; ccccccccH
	mov	DWORD PTR _this$[ebp], ecx
	mov	eax, DWORD PTR _this$[ebp]
	mov	DWORD PTR [eax], 0
	mov	eax, DWORD PTR _this$[ebp]
	mov	esp, ebp
	pop	ebp
	ret	0
??0CMyUnknownImp@@QAE@XZ ENDP				; CMyUnknownImp::CMyUnknownImp
_TEXT	ENDS
PUBLIC	_==@8
EXTRN	_IID_ICompressGetInStreamProcessedSize:BYTE
EXTRN	_IID_ISequentialInStream:BYTE
EXTRN	_IID_ICompressSetInStream:BYTE
EXTRN	_IID_ICompressCoder:BYTE
EXTRN	_IID_IUnknown:BYTE
; Function compile flags: /Odtp /RTCsu
;	COMDAT ?QueryInterface@CCopyCoder@NCompress@@UAGJABU_GUID@@PAPAX@Z
_TEXT	SEGMENT
tv144 = -12						; size = 4
tv134 = -8						; size = 4
tv92 = -4						; size = 4
_this$ = 8						; size = 4
_iid$ = 12						; size = 4
_outObject$ = 16					; size = 4
?QueryInterface@CCopyCoder@NCompress@@UAGJABU_GUID@@PAPAX@Z PROC ; NCompress::CCopyCoder::QueryInterface, COMDAT
; File c:\workspace\7z1505-src\cpp\7zip\compress\copycoder.h
; Line 31
	push	ebp
	mov	ebp, esp
	sub	esp, 12					; 0000000cH
	mov	DWORD PTR [ebp-12], -858993460		; ccccccccH
	mov	DWORD PTR [ebp-8], -858993460		; ccccccccH
	mov	DWORD PTR [ebp-4], -858993460		; ccccccccH
	mov	eax, DWORD PTR _outObject$[ebp]
	mov	DWORD PTR [eax], 0
	push	OFFSET _IID_IUnknown
	mov	ecx, DWORD PTR _iid$[ebp]
	push	ecx
	call	_==@8
	test	eax, eax
	je	SHORT $LN10@QueryInter
	mov	edx, DWORD PTR _outObject$[ebp]
	mov	eax, DWORD PTR _this$[ebp]
	mov	DWORD PTR [edx], eax
	jmp	$LN9@QueryInter
$LN10@QueryInter:
	push	OFFSET _IID_ICompressCoder
	mov	ecx, DWORD PTR _iid$[ebp]
	push	ecx
	call	_==@8
	test	eax, eax
	je	SHORT $LN8@QueryInter
	mov	edx, DWORD PTR _outObject$[ebp]
	mov	eax, DWORD PTR _this$[ebp]
	mov	DWORD PTR [edx], eax
	jmp	$LN9@QueryInter
$LN8@QueryInter:
	push	OFFSET _IID_ICompressSetInStream
	mov	ecx, DWORD PTR _iid$[ebp]
	push	ecx
	call	_==@8
	test	eax, eax
	je	SHORT $LN6@QueryInter
	cmp	DWORD PTR _this$[ebp], 0
	je	SHORT $LN13@QueryInter
	mov	edx, DWORD PTR _this$[ebp]
	add	edx, 4
	mov	DWORD PTR tv92[ebp], edx
	jmp	SHORT $LN14@QueryInter
$LN13@QueryInter:
	mov	DWORD PTR tv92[ebp], 0
$LN14@QueryInter:
	mov	eax, DWORD PTR _outObject$[ebp]
	mov	ecx, DWORD PTR tv92[ebp]
	mov	DWORD PTR [eax], ecx
	jmp	SHORT $LN9@QueryInter
$LN6@QueryInter:
	push	OFFSET _IID_ISequentialInStream
	mov	edx, DWORD PTR _iid$[ebp]
	push	edx
	call	_==@8
	test	eax, eax
	je	SHORT $LN4@QueryInter
	cmp	DWORD PTR _this$[ebp], 0
	je	SHORT $LN15@QueryInter
	mov	eax, DWORD PTR _this$[ebp]
	add	eax, 8
	mov	DWORD PTR tv134[ebp], eax
	jmp	SHORT $LN16@QueryInter
$LN15@QueryInter:
	mov	DWORD PTR tv134[ebp], 0
$LN16@QueryInter:
	mov	ecx, DWORD PTR _outObject$[ebp]
	mov	edx, DWORD PTR tv134[ebp]
	mov	DWORD PTR [ecx], edx
	jmp	SHORT $LN9@QueryInter
$LN4@QueryInter:
	push	OFFSET _IID_ICompressGetInStreamProcessedSize
	mov	eax, DWORD PTR _iid$[ebp]
	push	eax
	call	_==@8
	test	eax, eax
	je	SHORT $LN2@QueryInter
	cmp	DWORD PTR _this$[ebp], 0
	je	SHORT $LN17@QueryInter
	mov	ecx, DWORD PTR _this$[ebp]
	add	ecx, 12					; 0000000cH
	mov	DWORD PTR tv144[ebp], ecx
	jmp	SHORT $LN18@QueryInter
$LN17@QueryInter:
	mov	DWORD PTR tv144[ebp], 0
$LN18@QueryInter:
	mov	edx, DWORD PTR _outObject$[ebp]
	mov	eax, DWORD PTR tv144[ebp]
	mov	DWORD PTR [edx], eax
	jmp	SHORT $LN9@QueryInter
$LN2@QueryInter:
	mov	eax, -2147467262			; 80004002H
	jmp	SHORT $LN11@QueryInter
$LN9@QueryInter:
	mov	ecx, DWORD PTR _this$[ebp]
	mov	edx, DWORD PTR [ecx+16]
	add	edx, 1
	mov	eax, DWORD PTR _this$[ebp]
	mov	DWORD PTR [eax+16], edx
	xor	eax, eax
$LN11@QueryInter:
	add	esp, 12					; 0000000cH
	cmp	ebp, esp
	call	__RTC_CheckEsp
	mov	esp, ebp
	pop	ebp
	ret	12					; 0000000cH
?QueryInterface@CCopyCoder@NCompress@@UAGJABU_GUID@@PAPAX@Z ENDP ; NCompress::CCopyCoder::QueryInterface
_TEXT	ENDS
PUBLIC	_IsEqualGUID@8
; Function compile flags: /Odtp /RTCsu
;	COMDAT _==@8
_TEXT	SEGMENT
_guidOne$ = 8						; size = 4
_guidOther$ = 12					; size = 4
_==@8	PROC						; COMDAT
; File c:\program files (x86)\microsoft sdks\windows\v7.0a\include\guiddef.h
; Line 193
	push	ebp
	mov	ebp, esp
; Line 194
	mov	eax, DWORD PTR _guidOther$[ebp]
	push	eax
	mov	ecx, DWORD PTR _guidOne$[ebp]
	push	ecx
	call	_IsEqualGUID@8
; Line 195
	cmp	ebp, esp
	call	__RTC_CheckEsp
	pop	ebp
	ret	8
_==@8	ENDP
_TEXT	ENDS
EXTRN	_memcmp:PROC
; Function compile flags: /Odtp /RTCsu
;	COMDAT _IsEqualGUID@8
_TEXT	SEGMENT
_rguid1$ = 8						; size = 4
_rguid2$ = 12						; size = 4
_IsEqualGUID@8 PROC					; COMDAT
; Line 160
	push	ebp
	mov	ebp, esp
; Line 161
	push	16					; 00000010H
	mov	eax, DWORD PTR _rguid2$[ebp]
	push	eax
	mov	ecx, DWORD PTR _rguid1$[ebp]
	push	ecx
	call	_memcmp
	add	esp, 12					; 0000000cH
	neg	eax
	sbb	eax, eax
	add	eax, 1
; Line 162
	cmp	ebp, esp
	call	__RTC_CheckEsp
	pop	ebp
	ret	8
_IsEqualGUID@8 ENDP
; Function compile flags: /Odtp /RTCsu
_TEXT	ENDS
;	COMDAT ?AddRef@CCopyCoder@NCompress@@UAGKXZ
_TEXT	SEGMENT
tv70 = -4						; size = 4
_this$ = 8						; size = 4
?AddRef@CCopyCoder@NCompress@@UAGKXZ PROC		; NCompress::CCopyCoder::AddRef, COMDAT
; File c:\workspace\7z1505-src\cpp\7zip\compress\copycoder.h
; Line 31
	push	ebp
	mov	ebp, esp
	push	ecx
	mov	DWORD PTR [ebp-4], -858993460		; ccccccccH
	mov	eax, DWORD PTR _this$[ebp]
	mov	ecx, DWORD PTR [eax+16]
	add	ecx, 1
	mov	DWORD PTR tv70[ebp], ecx
	mov	edx, DWORD PTR _this$[ebp]
	mov	eax, DWORD PTR tv70[ebp]
	mov	DWORD PTR [edx+16], eax
	mov	eax, DWORD PTR tv70[ebp]
	mov	esp, ebp
	pop	ebp
	ret	4
?AddRef@CCopyCoder@NCompress@@UAGKXZ ENDP		; NCompress::CCopyCoder::AddRef
_TEXT	ENDS
PUBLIC	??_GCCopyCoder@NCompress@@QAEPAXI@Z		; NCompress::CCopyCoder::`scalar deleting destructor'
; Function compile flags: /Odtp /RTCsu
;	COMDAT ?Release@CCopyCoder@NCompress@@UAGKXZ
_TEXT	SEGMENT
tv81 = -16						; size = 4
tv70 = -12						; size = 4
$T77402 = -8						; size = 4
$T77401 = -4						; size = 4
_this$ = 8						; size = 4
?Release@CCopyCoder@NCompress@@UAGKXZ PROC		; NCompress::CCopyCoder::Release, COMDAT
; Line 31
	push	ebp
	mov	ebp, esp
	sub	esp, 16					; 00000010H
	mov	eax, -858993460				; ccccccccH
	mov	DWORD PTR [ebp-16], eax
	mov	DWORD PTR [ebp-12], eax
	mov	DWORD PTR [ebp-8], eax
	mov	DWORD PTR [ebp-4], eax
	mov	eax, DWORD PTR _this$[ebp]
	mov	ecx, DWORD PTR [eax+16]
	sub	ecx, 1
	mov	DWORD PTR tv70[ebp], ecx
	mov	edx, DWORD PTR _this$[ebp]
	mov	eax, DWORD PTR tv70[ebp]
	mov	DWORD PTR [edx+16], eax
	cmp	DWORD PTR tv70[ebp], 0
	je	SHORT $LN1@Release
	mov	ecx, DWORD PTR _this$[ebp]
	mov	eax, DWORD PTR [ecx+16]
	jmp	SHORT $LN2@Release
$LN1@Release:
	mov	edx, DWORD PTR _this$[ebp]
	mov	DWORD PTR $T77402[ebp], edx
	mov	eax, DWORD PTR $T77402[ebp]
	mov	DWORD PTR $T77401[ebp], eax
	cmp	DWORD PTR $T77401[ebp], 0
	je	SHORT $LN4@Release
	push	1
	mov	ecx, DWORD PTR $T77401[ebp]
	call	??_GCCopyCoder@NCompress@@QAEPAXI@Z
	mov	DWORD PTR tv81[ebp], eax
	jmp	SHORT $LN5@Release
$LN4@Release:
	mov	DWORD PTR tv81[ebp], 0
$LN5@Release:
	xor	eax, eax
$LN2@Release:
	add	esp, 16					; 00000010H
	cmp	ebp, esp
	call	__RTC_CheckEsp
	mov	esp, ebp
	pop	ebp
	ret	4
?Release@CCopyCoder@NCompress@@UAGKXZ ENDP		; NCompress::CCopyCoder::Release
_TEXT	ENDS
PUBLIC	??_7ICompressCoder@@6B@				; ICompressCoder::`vftable'
PUBLIC	??0IUnknown@@QAE@XZ				; IUnknown::IUnknown
PUBLIC	??_R4ICompressCoder@@6B@			; ICompressCoder::`RTTI Complete Object Locator'
EXTRN	__purecall:PROC
;	COMDAT ??_R4ICompressCoder@@6B@
rdata$r	SEGMENT
??_R4ICompressCoder@@6B@ DD 00H				; ICompressCoder::`RTTI Complete Object Locator'
	DD	00H
	DD	00H
	DD	FLAT:??_R0?AUICompressCoder@@@8
	DD	FLAT:??_R3ICompressCoder@@8
rdata$r	ENDS
;	COMDAT ??_7ICompressCoder@@6B@
CONST	SEGMENT
??_7ICompressCoder@@6B@ DD FLAT:??_R4ICompressCoder@@6B@ ; ICompressCoder::`vftable'
	DD	FLAT:__purecall
	DD	FLAT:__purecall
	DD	FLAT:__purecall
	DD	FLAT:__purecall
; Function compile flags: /Odtp /RTCsu
CONST	ENDS
;	COMDAT ??0ICompressCoder@@QAE@XZ
_TEXT	SEGMENT
_this$ = -4						; size = 4
??0ICompressCoder@@QAE@XZ PROC				; ICompressCoder::ICompressCoder, COMDAT
; _this$ = ecx
	push	ebp
	mov	ebp, esp
	push	ecx
	mov	DWORD PTR [ebp-4], -858993460		; ccccccccH
	mov	DWORD PTR _this$[ebp], ecx
	mov	ecx, DWORD PTR _this$[ebp]
	call	??0IUnknown@@QAE@XZ
	mov	eax, DWORD PTR _this$[ebp]
	mov	DWORD PTR [eax], OFFSET ??_7ICompressCoder@@6B@
	mov	eax, DWORD PTR _this$[ebp]
	add	esp, 4
	cmp	ebp, esp
	call	__RTC_CheckEsp
	mov	esp, ebp
	pop	ebp
	ret	0
??0ICompressCoder@@QAE@XZ ENDP				; ICompressCoder::ICompressCoder
; Function compile flags: /Odtp /RTCsu
_TEXT	ENDS
;	COMDAT ??0IUnknown@@QAE@XZ
_TEXT	SEGMENT
_this$ = -4						; size = 4
??0IUnknown@@QAE@XZ PROC				; IUnknown::IUnknown, COMDAT
; _this$ = ecx
	push	ebp
	mov	ebp, esp
	push	ecx
	mov	DWORD PTR [ebp-4], -858993460		; ccccccccH
	mov	DWORD PTR _this$[ebp], ecx
	mov	eax, DWORD PTR _this$[ebp]
	mov	esp, ebp
	pop	ebp
	ret	0
??0IUnknown@@QAE@XZ ENDP				; IUnknown::IUnknown
_TEXT	ENDS
PUBLIC	??_7ICompressSetInStream@@6B@			; ICompressSetInStream::`vftable'
PUBLIC	??_R4ICompressSetInStream@@6B@			; ICompressSetInStream::`RTTI Complete Object Locator'
;	COMDAT ??_R4ICompressSetInStream@@6B@
rdata$r	SEGMENT
??_R4ICompressSetInStream@@6B@ DD 00H			; ICompressSetInStream::`RTTI Complete Object Locator'
	DD	00H
	DD	00H
	DD	FLAT:??_R0?AUICompressSetInStream@@@8
	DD	FLAT:??_R3ICompressSetInStream@@8
rdata$r	ENDS
;	COMDAT ??_7ICompressSetInStream@@6B@
CONST	SEGMENT
??_7ICompressSetInStream@@6B@ DD FLAT:??_R4ICompressSetInStream@@6B@ ; ICompressSetInStream::`vftable'
	DD	FLAT:__purecall
	DD	FLAT:__purecall
	DD	FLAT:__purecall
	DD	FLAT:__purecall
	DD	FLAT:__purecall
; Function compile flags: /Odtp /RTCsu
CONST	ENDS
;	COMDAT ??0ICompressSetInStream@@QAE@XZ
_TEXT	SEGMENT
_this$ = -4						; size = 4
??0ICompressSetInStream@@QAE@XZ PROC			; ICompressSetInStream::ICompressSetInStream, COMDAT
; _this$ = ecx
	push	ebp
	mov	ebp, esp
	push	ecx
	mov	DWORD PTR [ebp-4], -858993460		; ccccccccH
	mov	DWORD PTR _this$[ebp], ecx
	mov	ecx, DWORD PTR _this$[ebp]
	call	??0IUnknown@@QAE@XZ
	mov	eax, DWORD PTR _this$[ebp]
	mov	DWORD PTR [eax], OFFSET ??_7ICompressSetInStream@@6B@
	mov	eax, DWORD PTR _this$[ebp]
	add	esp, 4
	cmp	ebp, esp
	call	__RTC_CheckEsp
	mov	esp, ebp
	pop	ebp
	ret	0
??0ICompressSetInStream@@QAE@XZ ENDP			; ICompressSetInStream::ICompressSetInStream
_TEXT	ENDS
PUBLIC	??_7ISequentialInStream@@6B@			; ISequentialInStream::`vftable'
PUBLIC	??_R4ISequentialInStream@@6B@			; ISequentialInStream::`RTTI Complete Object Locator'
;	COMDAT ??_R4ISequentialInStream@@6B@
rdata$r	SEGMENT
??_R4ISequentialInStream@@6B@ DD 00H			; ISequentialInStream::`RTTI Complete Object Locator'
	DD	00H
	DD	00H
	DD	FLAT:??_R0?AUISequentialInStream@@@8
	DD	FLAT:??_R3ISequentialInStream@@8
rdata$r	ENDS
;	COMDAT ??_7ISequentialInStream@@6B@
CONST	SEGMENT
??_7ISequentialInStream@@6B@ DD FLAT:??_R4ISequentialInStream@@6B@ ; ISequentialInStream::`vftable'
	DD	FLAT:__purecall
	DD	FLAT:__purecall
	DD	FLAT:__purecall
	DD	FLAT:__purecall
; Function compile flags: /Odtp /RTCsu
CONST	ENDS
;	COMDAT ??0ISequentialInStream@@QAE@XZ
_TEXT	SEGMENT
_this$ = -4						; size = 4
??0ISequentialInStream@@QAE@XZ PROC			; ISequentialInStream::ISequentialInStream, COMDAT
; _this$ = ecx
	push	ebp
	mov	ebp, esp
	push	ecx
	mov	DWORD PTR [ebp-4], -858993460		; ccccccccH
	mov	DWORD PTR _this$[ebp], ecx
	mov	ecx, DWORD PTR _this$[ebp]
	call	??0IUnknown@@QAE@XZ
	mov	eax, DWORD PTR _this$[ebp]
	mov	DWORD PTR [eax], OFFSET ??_7ISequentialInStream@@6B@
	mov	eax, DWORD PTR _this$[ebp]
	add	esp, 4
	cmp	ebp, esp
	call	__RTC_CheckEsp
	mov	esp, ebp
	pop	ebp
	ret	0
??0ISequentialInStream@@QAE@XZ ENDP			; ISequentialInStream::ISequentialInStream
_TEXT	ENDS
PUBLIC	??_7ICompressGetInStreamProcessedSize@@6B@	; ICompressGetInStreamProcessedSize::`vftable'
PUBLIC	??_R4ICompressGetInStreamProcessedSize@@6B@	; ICompressGetInStreamProcessedSize::`RTTI Complete Object Locator'
;	COMDAT ??_R4ICompressGetInStreamProcessedSize@@6B@
rdata$r	SEGMENT
??_R4ICompressGetInStreamProcessedSize@@6B@ DD 00H	; ICompressGetInStreamProcessedSize::`RTTI Complete Object Locator'
	DD	00H
	DD	00H
	DD	FLAT:??_R0?AUICompressGetInStreamProcessedSize@@@8
	DD	FLAT:??_R3ICompressGetInStreamProcessedSize@@8
rdata$r	ENDS
;	COMDAT ??_7ICompressGetInStreamProcessedSize@@6B@
CONST	SEGMENT
??_7ICompressGetInStreamProcessedSize@@6B@ DD FLAT:??_R4ICompressGetInStreamProcessedSize@@6B@ ; ICompressGetInStreamProcessedSize::`vftable'
	DD	FLAT:__purecall
	DD	FLAT:__purecall
	DD	FLAT:__purecall
	DD	FLAT:__purecall
; Function compile flags: /Odtp /RTCsu
CONST	ENDS
;	COMDAT ??0ICompressGetInStreamProcessedSize@@QAE@XZ
_TEXT	SEGMENT
_this$ = -4						; size = 4
??0ICompressGetInStreamProcessedSize@@QAE@XZ PROC	; ICompressGetInStreamProcessedSize::ICompressGetInStreamProcessedSize, COMDAT
; _this$ = ecx
	push	ebp
	mov	ebp, esp
	push	ecx
	mov	DWORD PTR [ebp-4], -858993460		; ccccccccH
	mov	DWORD PTR _this$[ebp], ecx
	mov	ecx, DWORD PTR _this$[ebp]
	call	??0IUnknown@@QAE@XZ
	mov	eax, DWORD PTR _this$[ebp]
	mov	DWORD PTR [eax], OFFSET ??_7ICompressGetInStreamProcessedSize@@6B@
	mov	eax, DWORD PTR _this$[ebp]
	add	esp, 4
	cmp	ebp, esp
	call	__RTC_CheckEsp
	mov	esp, ebp
	pop	ebp
	ret	0
??0ICompressGetInStreamProcessedSize@@QAE@XZ ENDP	; ICompressGetInStreamProcessedSize::ICompressGetInStreamProcessedSize
_TEXT	ENDS
EXTRN	??1CCopyCoder@NCompress@@QAE@XZ:PROC		; NCompress::CCopyCoder::~CCopyCoder
; Function compile flags: /Odtp /RTCsu
;	COMDAT ??_GCCopyCoder@NCompress@@QAEPAXI@Z
_TEXT	SEGMENT
_this$ = -4						; size = 4
___flags$ = 8						; size = 4
??_GCCopyCoder@NCompress@@QAEPAXI@Z PROC		; NCompress::CCopyCoder::`scalar deleting destructor', COMDAT
; _this$ = ecx
	push	ebp
	mov	ebp, esp
	push	ecx
	mov	DWORD PTR [ebp-4], -858993460		; ccccccccH
	mov	DWORD PTR _this$[ebp], ecx
	mov	ecx, DWORD PTR _this$[ebp]
	call	??1CCopyCoder@NCompress@@QAE@XZ		; NCompress::CCopyCoder::~CCopyCoder
	mov	eax, DWORD PTR ___flags$[ebp]
	and	eax, 1
	je	SHORT $LN1@scalar
	mov	ecx, DWORD PTR _this$[ebp]
	push	ecx
	call	??3@YAXPAX@Z				; operator delete
	add	esp, 4
$LN1@scalar:
	mov	eax, DWORD PTR _this$[ebp]
	add	esp, 4
	cmp	ebp, esp
	call	__RTC_CheckEsp
	mov	esp, ebp
	pop	ebp
	ret	4
??_GCCopyCoder@NCompress@@QAEPAXI@Z ENDP		; NCompress::CCopyCoder::`scalar deleting destructor'
_TEXT	ENDS
PUBLIC	??_7CLimitedSequentialInStream@@6B@		; CLimitedSequentialInStream::`vftable'
PUBLIC	??_R4CLimitedSequentialInStream@@6B@		; CLimitedSequentialInStream::`RTTI Complete Object Locator'
PUBLIC	??_R0?AVCLimitedSequentialInStream@@@8		; CLimitedSequentialInStream `RTTI Type Descriptor'
PUBLIC	??_R3CLimitedSequentialInStream@@8		; CLimitedSequentialInStream::`RTTI Class Hierarchy Descriptor'
PUBLIC	??_R2CLimitedSequentialInStream@@8		; CLimitedSequentialInStream::`RTTI Base Class Array'
PUBLIC	??_R1A@?0A@EA@CLimitedSequentialInStream@@8	; CLimitedSequentialInStream::`RTTI Base Class Descriptor at (0,-1,0,64)'
PUBLIC	??_R13?0A@EA@CMyUnknownImp@@8			; CMyUnknownImp::`RTTI Base Class Descriptor at (4,-1,0,64)'
PUBLIC	?QueryInterface@CLimitedSequentialInStream@@UAGJABU_GUID@@PAPAX@Z ; CLimitedSequentialInStream::QueryInterface
PUBLIC	?AddRef@CLimitedSequentialInStream@@UAGKXZ	; CLimitedSequentialInStream::AddRef
PUBLIC	?Release@CLimitedSequentialInStream@@UAGKXZ	; CLimitedSequentialInStream::Release
EXTRN	?Read@CLimitedSequentialInStream@@UAGJPAXIPAI@Z:PROC ; CLimitedSequentialInStream::Read
;	COMDAT ??_R13?0A@EA@CMyUnknownImp@@8
rdata$r	SEGMENT
??_R13?0A@EA@CMyUnknownImp@@8 DD FLAT:??_R0?AVCMyUnknownImp@@@8 ; CMyUnknownImp::`RTTI Base Class Descriptor at (4,-1,0,64)'
	DD	00H
	DD	04H
	DD	0ffffffffH
	DD	00H
	DD	040H
	DD	FLAT:??_R3CMyUnknownImp@@8
rdata$r	ENDS
;	COMDAT ??_R1A@?0A@EA@CLimitedSequentialInStream@@8
rdata$r	SEGMENT
??_R1A@?0A@EA@CLimitedSequentialInStream@@8 DD FLAT:??_R0?AVCLimitedSequentialInStream@@@8 ; CLimitedSequentialInStream::`RTTI Base Class Descriptor at (0,-1,0,64)'
	DD	03H
	DD	00H
	DD	0ffffffffH
	DD	00H
	DD	040H
	DD	FLAT:??_R3CLimitedSequentialInStream@@8
rdata$r	ENDS
;	COMDAT ??_R2CLimitedSequentialInStream@@8
rdata$r	SEGMENT
??_R2CLimitedSequentialInStream@@8 DD FLAT:??_R1A@?0A@EA@CLimitedSequentialInStream@@8 ; CLimitedSequentialInStream::`RTTI Base Class Array'
	DD	FLAT:??_R1A@?0A@EA@ISequentialInStream@@8
	DD	FLAT:??_R1A@?0A@EA@IUnknown@@8
	DD	FLAT:??_R13?0A@EA@CMyUnknownImp@@8
rdata$r	ENDS
;	COMDAT ??_R3CLimitedSequentialInStream@@8
rdata$r	SEGMENT
??_R3CLimitedSequentialInStream@@8 DD 00H		; CLimitedSequentialInStream::`RTTI Class Hierarchy Descriptor'
	DD	01H
	DD	04H
	DD	FLAT:??_R2CLimitedSequentialInStream@@8
rdata$r	ENDS
;	COMDAT ??_R0?AVCLimitedSequentialInStream@@@8
_DATA	SEGMENT
??_R0?AVCLimitedSequentialInStream@@@8 DD FLAT:??_7type_info@@6B@ ; CLimitedSequentialInStream `RTTI Type Descriptor'
	DD	00H
	DB	'.?AVCLimitedSequentialInStream@@', 00H
_DATA	ENDS
;	COMDAT ??_R4CLimitedSequentialInStream@@6B@
rdata$r	SEGMENT
??_R4CLimitedSequentialInStream@@6B@ DD 00H		; CLimitedSequentialInStream::`RTTI Complete Object Locator'
	DD	00H
	DD	00H
	DD	FLAT:??_R0?AVCLimitedSequentialInStream@@@8
	DD	FLAT:??_R3CLimitedSequentialInStream@@8
rdata$r	ENDS
;	COMDAT ??_7CLimitedSequentialInStream@@6B@
CONST	SEGMENT
??_7CLimitedSequentialInStream@@6B@ DD FLAT:??_R4CLimitedSequentialInStream@@6B@ ; CLimitedSequentialInStream::`vftable'
	DD	FLAT:?QueryInterface@CLimitedSequentialInStream@@UAGJABU_GUID@@PAPAX@Z
	DD	FLAT:?AddRef@CLimitedSequentialInStream@@UAGKXZ
	DD	FLAT:?Release@CLimitedSequentialInStream@@UAGKXZ
	DD	FLAT:?Read@CLimitedSequentialInStream@@UAGJPAXIPAI@Z
; Function compile flags: /Odtp /RTCsu
CONST	ENDS
;	COMDAT ??0CLimitedSequentialInStream@@QAE@XZ
_TEXT	SEGMENT
_this$ = -4						; size = 4
??0CLimitedSequentialInStream@@QAE@XZ PROC		; CLimitedSequentialInStream::CLimitedSequentialInStream, COMDAT
; _this$ = ecx
	push	ebp
	mov	ebp, esp
	push	ecx
	mov	DWORD PTR [ebp-4], -858993460		; ccccccccH
	mov	DWORD PTR _this$[ebp], ecx
	mov	ecx, DWORD PTR _this$[ebp]
	call	??0ISequentialInStream@@QAE@XZ
	mov	ecx, DWORD PTR _this$[ebp]
	add	ecx, 4
	call	??0CMyUnknownImp@@QAE@XZ		; CMyUnknownImp::CMyUnknownImp
	mov	eax, DWORD PTR _this$[ebp]
	mov	DWORD PTR [eax], OFFSET ??_7CLimitedSequentialInStream@@6B@
	mov	ecx, DWORD PTR _this$[ebp]
	add	ecx, 8
	call	??0?$CMyComPtr@UISequentialInStream@@@@QAE@XZ ; CMyComPtr<ISequentialInStream>::CMyComPtr<ISequentialInStream>
	mov	eax, DWORD PTR _this$[ebp]
	add	esp, 4
	cmp	ebp, esp
	call	__RTC_CheckEsp
	mov	esp, ebp
	pop	ebp
	ret	0
??0CLimitedSequentialInStream@@QAE@XZ ENDP		; CLimitedSequentialInStream::CLimitedSequentialInStream
; Function compile flags: /Odtp /RTCsu
_TEXT	ENDS
;	COMDAT ?QueryInterface@CLimitedSequentialInStream@@UAGJABU_GUID@@PAPAX@Z
_TEXT	SEGMENT
_this$ = 8						; size = 4
_iid$ = 12						; size = 4
_outObject$ = 16					; size = 4
?QueryInterface@CLimitedSequentialInStream@@UAGJABU_GUID@@PAPAX@Z PROC ; CLimitedSequentialInStream::QueryInterface, COMDAT
; File c:\workspace\7z1505-src\cpp\7zip\common\limitedstreams.h
; Line 29
	push	ebp
	mov	ebp, esp
	mov	eax, DWORD PTR _outObject$[ebp]
	mov	DWORD PTR [eax], 0
	push	OFFSET _IID_IUnknown
	mov	ecx, DWORD PTR _iid$[ebp]
	push	ecx
	call	_==@8
	test	eax, eax
	je	SHORT $LN4@QueryInter@2
	mov	edx, DWORD PTR _outObject$[ebp]
	mov	eax, DWORD PTR _this$[ebp]
	mov	DWORD PTR [edx], eax
	jmp	SHORT $LN3@QueryInter@2
$LN4@QueryInter@2:
	push	OFFSET _IID_ISequentialInStream
	mov	ecx, DWORD PTR _iid$[ebp]
	push	ecx
	call	_==@8
	test	eax, eax
	je	SHORT $LN2@QueryInter@2
	mov	edx, DWORD PTR _outObject$[ebp]
	mov	eax, DWORD PTR _this$[ebp]
	mov	DWORD PTR [edx], eax
	jmp	SHORT $LN3@QueryInter@2
$LN2@QueryInter@2:
	mov	eax, -2147467262			; 80004002H
	jmp	SHORT $LN5@QueryInter@2
$LN3@QueryInter@2:
	mov	ecx, DWORD PTR _this$[ebp]
	mov	edx, DWORD PTR [ecx+4]
	add	edx, 1
	mov	eax, DWORD PTR _this$[ebp]
	mov	DWORD PTR [eax+4], edx
	xor	eax, eax
$LN5@QueryInter@2:
	cmp	ebp, esp
	call	__RTC_CheckEsp
	pop	ebp
	ret	12					; 0000000cH
?QueryInterface@CLimitedSequentialInStream@@UAGJABU_GUID@@PAPAX@Z ENDP ; CLimitedSequentialInStream::QueryInterface
; Function compile flags: /Odtp /RTCsu
_TEXT	ENDS
;	COMDAT ?AddRef@CLimitedSequentialInStream@@UAGKXZ
_TEXT	SEGMENT
tv70 = -4						; size = 4
_this$ = 8						; size = 4
?AddRef@CLimitedSequentialInStream@@UAGKXZ PROC		; CLimitedSequentialInStream::AddRef, COMDAT
; Line 29
	push	ebp
	mov	ebp, esp
	push	ecx
	mov	DWORD PTR [ebp-4], -858993460		; ccccccccH
	mov	eax, DWORD PTR _this$[ebp]
	mov	ecx, DWORD PTR [eax+4]
	add	ecx, 1
	mov	DWORD PTR tv70[ebp], ecx
	mov	edx, DWORD PTR _this$[ebp]
	mov	eax, DWORD PTR tv70[ebp]
	mov	DWORD PTR [edx+4], eax
	mov	eax, DWORD PTR tv70[ebp]
	mov	esp, ebp
	pop	ebp
	ret	4
?AddRef@CLimitedSequentialInStream@@UAGKXZ ENDP		; CLimitedSequentialInStream::AddRef
_TEXT	ENDS
PUBLIC	??_GCLimitedSequentialInStream@@QAEPAXI@Z	; CLimitedSequentialInStream::`scalar deleting destructor'
; Function compile flags: /Odtp /RTCsu
;	COMDAT ?Release@CLimitedSequentialInStream@@UAGKXZ
_TEXT	SEGMENT
tv81 = -16						; size = 4
tv70 = -12						; size = 4
$T77427 = -8						; size = 4
$T77426 = -4						; size = 4
_this$ = 8						; size = 4
?Release@CLimitedSequentialInStream@@UAGKXZ PROC	; CLimitedSequentialInStream::Release, COMDAT
; Line 29
	push	ebp
	mov	ebp, esp
	sub	esp, 16					; 00000010H
	mov	eax, -858993460				; ccccccccH
	mov	DWORD PTR [ebp-16], eax
	mov	DWORD PTR [ebp-12], eax
	mov	DWORD PTR [ebp-8], eax
	mov	DWORD PTR [ebp-4], eax
	mov	eax, DWORD PTR _this$[ebp]
	mov	ecx, DWORD PTR [eax+4]
	sub	ecx, 1
	mov	DWORD PTR tv70[ebp], ecx
	mov	edx, DWORD PTR _this$[ebp]
	mov	eax, DWORD PTR tv70[ebp]
	mov	DWORD PTR [edx+4], eax
	cmp	DWORD PTR tv70[ebp], 0
	je	SHORT $LN1@Release@2
	mov	ecx, DWORD PTR _this$[ebp]
	mov	eax, DWORD PTR [ecx+4]
	jmp	SHORT $LN2@Release@2
$LN1@Release@2:
	mov	edx, DWORD PTR _this$[ebp]
	mov	DWORD PTR $T77427[ebp], edx
	mov	eax, DWORD PTR $T77427[ebp]
	mov	DWORD PTR $T77426[ebp], eax
	cmp	DWORD PTR $T77426[ebp], 0
	je	SHORT $LN4@Release@2
	push	1
	mov	ecx, DWORD PTR $T77426[ebp]
	call	??_GCLimitedSequentialInStream@@QAEPAXI@Z
	mov	DWORD PTR tv81[ebp], eax
	jmp	SHORT $LN5@Release@2
$LN4@Release@2:
	mov	DWORD PTR tv81[ebp], 0
$LN5@Release@2:
	xor	eax, eax
$LN2@Release@2:
	add	esp, 16					; 00000010H
	cmp	ebp, esp
	call	__RTC_CheckEsp
	mov	esp, ebp
	pop	ebp
	ret	4
?Release@CLimitedSequentialInStream@@UAGKXZ ENDP	; CLimitedSequentialInStream::Release
_TEXT	ENDS
PUBLIC	??1CLimitedSequentialInStream@@QAE@XZ		; CLimitedSequentialInStream::~CLimitedSequentialInStream
; Function compile flags: /Odtp /RTCsu
;	COMDAT ??_GCLimitedSequentialInStream@@QAEPAXI@Z
_TEXT	SEGMENT
_this$ = -4						; size = 4
___flags$ = 8						; size = 4
??_GCLimitedSequentialInStream@@QAEPAXI@Z PROC		; CLimitedSequentialInStream::`scalar deleting destructor', COMDAT
; _this$ = ecx
	push	ebp
	mov	ebp, esp
	push	ecx
	mov	DWORD PTR [ebp-4], -858993460		; ccccccccH
	mov	DWORD PTR _this$[ebp], ecx
	mov	ecx, DWORD PTR _this$[ebp]
	call	??1CLimitedSequentialInStream@@QAE@XZ
	mov	eax, DWORD PTR ___flags$[ebp]
	and	eax, 1
	je	SHORT $LN1@scalar@2
	mov	ecx, DWORD PTR _this$[ebp]
	push	ecx
	call	??3@YAXPAX@Z				; operator delete
	add	esp, 4
$LN1@scalar@2:
	mov	eax, DWORD PTR _this$[ebp]
	add	esp, 4
	cmp	ebp, esp
	call	__RTC_CheckEsp
	mov	esp, ebp
	pop	ebp
	ret	4
??_GCLimitedSequentialInStream@@QAEPAXI@Z ENDP		; CLimitedSequentialInStream::`scalar deleting destructor'
; Function compile flags: /Odtp /RTCsu
_TEXT	ENDS
;	COMDAT ??1CLimitedSequentialInStream@@QAE@XZ
_TEXT	SEGMENT
_this$ = -4						; size = 4
??1CLimitedSequentialInStream@@QAE@XZ PROC		; CLimitedSequentialInStream::~CLimitedSequentialInStream, COMDAT
; _this$ = ecx
	push	ebp
	mov	ebp, esp
	push	ecx
	mov	DWORD PTR [ebp-4], -858993460		; ccccccccH
	mov	DWORD PTR _this$[ebp], ecx
	mov	ecx, DWORD PTR _this$[ebp]
	add	ecx, 8
	call	??1?$CMyComPtr@UISequentialInStream@@@@QAE@XZ ; CMyComPtr<ISequentialInStream>::~CMyComPtr<ISequentialInStream>
	add	esp, 4
	cmp	ebp, esp
	call	__RTC_CheckEsp
	mov	esp, ebp
	pop	ebp
	ret	0
??1CLimitedSequentialInStream@@QAE@XZ ENDP		; CLimitedSequentialInStream::~CLimitedSequentialInStream
_TEXT	ENDS
PUBLIC	??_7CLimitedSequentialOutStream@@6B@		; CLimitedSequentialOutStream::`vftable'
PUBLIC	??0ISequentialOutStream@@QAE@XZ			; ISequentialOutStream::ISequentialOutStream
PUBLIC	??_R4CLimitedSequentialOutStream@@6B@		; CLimitedSequentialOutStream::`RTTI Complete Object Locator'
PUBLIC	??_R0?AVCLimitedSequentialOutStream@@@8		; CLimitedSequentialOutStream `RTTI Type Descriptor'
PUBLIC	??_R3CLimitedSequentialOutStream@@8		; CLimitedSequentialOutStream::`RTTI Class Hierarchy Descriptor'
PUBLIC	??_R2CLimitedSequentialOutStream@@8		; CLimitedSequentialOutStream::`RTTI Base Class Array'
PUBLIC	??_R1A@?0A@EA@CLimitedSequentialOutStream@@8	; CLimitedSequentialOutStream::`RTTI Base Class Descriptor at (0,-1,0,64)'
PUBLIC	??_R1A@?0A@EA@ISequentialOutStream@@8		; ISequentialOutStream::`RTTI Base Class Descriptor at (0,-1,0,64)'
PUBLIC	??_R0?AUISequentialOutStream@@@8		; ISequentialOutStream `RTTI Type Descriptor'
PUBLIC	??_R3ISequentialOutStream@@8			; ISequentialOutStream::`RTTI Class Hierarchy Descriptor'
PUBLIC	??_R2ISequentialOutStream@@8			; ISequentialOutStream::`RTTI Base Class Array'
PUBLIC	?QueryInterface@CLimitedSequentialOutStream@@UAGJABU_GUID@@PAPAX@Z ; CLimitedSequentialOutStream::QueryInterface
PUBLIC	?AddRef@CLimitedSequentialOutStream@@UAGKXZ	; CLimitedSequentialOutStream::AddRef
PUBLIC	?Release@CLimitedSequentialOutStream@@UAGKXZ	; CLimitedSequentialOutStream::Release
EXTRN	?Write@CLimitedSequentialOutStream@@UAGJPBXIPAI@Z:PROC ; CLimitedSequentialOutStream::Write
;	COMDAT ??_R2ISequentialOutStream@@8
rdata$r	SEGMENT
??_R2ISequentialOutStream@@8 DD FLAT:??_R1A@?0A@EA@ISequentialOutStream@@8 ; ISequentialOutStream::`RTTI Base Class Array'
	DD	FLAT:??_R1A@?0A@EA@IUnknown@@8
rdata$r	ENDS
;	COMDAT ??_R3ISequentialOutStream@@8
rdata$r	SEGMENT
??_R3ISequentialOutStream@@8 DD 00H			; ISequentialOutStream::`RTTI Class Hierarchy Descriptor'
	DD	00H
	DD	02H
	DD	FLAT:??_R2ISequentialOutStream@@8
rdata$r	ENDS
;	COMDAT ??_R0?AUISequentialOutStream@@@8
_DATA	SEGMENT
??_R0?AUISequentialOutStream@@@8 DD FLAT:??_7type_info@@6B@ ; ISequentialOutStream `RTTI Type Descriptor'
	DD	00H
	DB	'.?AUISequentialOutStream@@', 00H
_DATA	ENDS
;	COMDAT ??_R1A@?0A@EA@ISequentialOutStream@@8
rdata$r	SEGMENT
??_R1A@?0A@EA@ISequentialOutStream@@8 DD FLAT:??_R0?AUISequentialOutStream@@@8 ; ISequentialOutStream::`RTTI Base Class Descriptor at (0,-1,0,64)'
	DD	01H
	DD	00H
	DD	0ffffffffH
	DD	00H
	DD	040H
	DD	FLAT:??_R3ISequentialOutStream@@8
rdata$r	ENDS
;	COMDAT ??_R1A@?0A@EA@CLimitedSequentialOutStream@@8
rdata$r	SEGMENT
??_R1A@?0A@EA@CLimitedSequentialOutStream@@8 DD FLAT:??_R0?AVCLimitedSequentialOutStream@@@8 ; CLimitedSequentialOutStream::`RTTI Base Class Descriptor at (0,-1,0,64)'
	DD	03H
	DD	00H
	DD	0ffffffffH
	DD	00H
	DD	040H
	DD	FLAT:??_R3CLimitedSequentialOutStream@@8
rdata$r	ENDS
;	COMDAT ??_R2CLimitedSequentialOutStream@@8
rdata$r	SEGMENT
??_R2CLimitedSequentialOutStream@@8 DD FLAT:??_R1A@?0A@EA@CLimitedSequentialOutStream@@8 ; CLimitedSequentialOutStream::`RTTI Base Class Array'
	DD	FLAT:??_R1A@?0A@EA@ISequentialOutStream@@8
	DD	FLAT:??_R1A@?0A@EA@IUnknown@@8
	DD	FLAT:??_R13?0A@EA@CMyUnknownImp@@8
rdata$r	ENDS
;	COMDAT ??_R3CLimitedSequentialOutStream@@8
rdata$r	SEGMENT
??_R3CLimitedSequentialOutStream@@8 DD 00H		; CLimitedSequentialOutStream::`RTTI Class Hierarchy Descriptor'
	DD	01H
	DD	04H
	DD	FLAT:??_R2CLimitedSequentialOutStream@@8
rdata$r	ENDS
;	COMDAT ??_R0?AVCLimitedSequentialOutStream@@@8
_DATA	SEGMENT
??_R0?AVCLimitedSequentialOutStream@@@8 DD FLAT:??_7type_info@@6B@ ; CLimitedSequentialOutStream `RTTI Type Descriptor'
	DD	00H
	DB	'.?AVCLimitedSequentialOutStream@@', 00H
_DATA	ENDS
;	COMDAT ??_R4CLimitedSequentialOutStream@@6B@
rdata$r	SEGMENT
??_R4CLimitedSequentialOutStream@@6B@ DD 00H		; CLimitedSequentialOutStream::`RTTI Complete Object Locator'
	DD	00H
	DD	00H
	DD	FLAT:??_R0?AVCLimitedSequentialOutStream@@@8
	DD	FLAT:??_R3CLimitedSequentialOutStream@@8
rdata$r	ENDS
;	COMDAT ??_7CLimitedSequentialOutStream@@6B@
CONST	SEGMENT
??_7CLimitedSequentialOutStream@@6B@ DD FLAT:??_R4CLimitedSequentialOutStream@@6B@ ; CLimitedSequentialOutStream::`vftable'
	DD	FLAT:?QueryInterface@CLimitedSequentialOutStream@@UAGJABU_GUID@@PAPAX@Z
	DD	FLAT:?AddRef@CLimitedSequentialOutStream@@UAGKXZ
	DD	FLAT:?Release@CLimitedSequentialOutStream@@UAGKXZ
	DD	FLAT:?Write@CLimitedSequentialOutStream@@UAGJPBXIPAI@Z
; Function compile flags: /Odtp /RTCsu
CONST	ENDS
;	COMDAT ??0CLimitedSequentialOutStream@@QAE@XZ
_TEXT	SEGMENT
_this$ = -4						; size = 4
??0CLimitedSequentialOutStream@@QAE@XZ PROC		; CLimitedSequentialOutStream::CLimitedSequentialOutStream, COMDAT
; _this$ = ecx
	push	ebp
	mov	ebp, esp
	push	ecx
	mov	DWORD PTR [ebp-4], -858993460		; ccccccccH
	mov	DWORD PTR _this$[ebp], ecx
	mov	ecx, DWORD PTR _this$[ebp]
	call	??0ISequentialOutStream@@QAE@XZ
	mov	ecx, DWORD PTR _this$[ebp]
	add	ecx, 4
	call	??0CMyUnknownImp@@QAE@XZ		; CMyUnknownImp::CMyUnknownImp
	mov	eax, DWORD PTR _this$[ebp]
	mov	DWORD PTR [eax], OFFSET ??_7CLimitedSequentialOutStream@@6B@
	mov	ecx, DWORD PTR _this$[ebp]
	add	ecx, 8
	call	??0?$CMyComPtr@UISequentialOutStream@@@@QAE@XZ ; CMyComPtr<ISequentialOutStream>::CMyComPtr<ISequentialOutStream>
	mov	eax, DWORD PTR _this$[ebp]
	add	esp, 4
	cmp	ebp, esp
	call	__RTC_CheckEsp
	mov	esp, ebp
	pop	ebp
	ret	0
??0CLimitedSequentialOutStream@@QAE@XZ ENDP		; CLimitedSequentialOutStream::CLimitedSequentialOutStream
_TEXT	ENDS
PUBLIC	??_7ISequentialOutStream@@6B@			; ISequentialOutStream::`vftable'
PUBLIC	??_R4ISequentialOutStream@@6B@			; ISequentialOutStream::`RTTI Complete Object Locator'
;	COMDAT ??_R4ISequentialOutStream@@6B@
rdata$r	SEGMENT
??_R4ISequentialOutStream@@6B@ DD 00H			; ISequentialOutStream::`RTTI Complete Object Locator'
	DD	00H
	DD	00H
	DD	FLAT:??_R0?AUISequentialOutStream@@@8
	DD	FLAT:??_R3ISequentialOutStream@@8
rdata$r	ENDS
;	COMDAT ??_7ISequentialOutStream@@6B@
CONST	SEGMENT
??_7ISequentialOutStream@@6B@ DD FLAT:??_R4ISequentialOutStream@@6B@ ; ISequentialOutStream::`vftable'
	DD	FLAT:__purecall
	DD	FLAT:__purecall
	DD	FLAT:__purecall
	DD	FLAT:__purecall
; Function compile flags: /Odtp /RTCsu
CONST	ENDS
;	COMDAT ??0ISequentialOutStream@@QAE@XZ
_TEXT	SEGMENT
_this$ = -4						; size = 4
??0ISequentialOutStream@@QAE@XZ PROC			; ISequentialOutStream::ISequentialOutStream, COMDAT
; _this$ = ecx
	push	ebp
	mov	ebp, esp
	push	ecx
	mov	DWORD PTR [ebp-4], -858993460		; ccccccccH
	mov	DWORD PTR _this$[ebp], ecx
	mov	ecx, DWORD PTR _this$[ebp]
	call	??0IUnknown@@QAE@XZ
	mov	eax, DWORD PTR _this$[ebp]
	mov	DWORD PTR [eax], OFFSET ??_7ISequentialOutStream@@6B@
	mov	eax, DWORD PTR _this$[ebp]
	add	esp, 4
	cmp	ebp, esp
	call	__RTC_CheckEsp
	mov	esp, ebp
	pop	ebp
	ret	0
??0ISequentialOutStream@@QAE@XZ ENDP			; ISequentialOutStream::ISequentialOutStream
_TEXT	ENDS
EXTRN	_IID_ISequentialOutStream:BYTE
; Function compile flags: /Odtp /RTCsu
;	COMDAT ?QueryInterface@CLimitedSequentialOutStream@@UAGJABU_GUID@@PAPAX@Z
_TEXT	SEGMENT
_this$ = 8						; size = 4
_iid$ = 12						; size = 4
_outObject$ = 16					; size = 4
?QueryInterface@CLimitedSequentialOutStream@@UAGJABU_GUID@@PAPAX@Z PROC ; CLimitedSequentialOutStream::QueryInterface, COMDAT
; Line 145
	push	ebp
	mov	ebp, esp
	mov	eax, DWORD PTR _outObject$[ebp]
	mov	DWORD PTR [eax], 0
	push	OFFSET _IID_IUnknown
	mov	ecx, DWORD PTR _iid$[ebp]
	push	ecx
	call	_==@8
	test	eax, eax
	je	SHORT $LN4@QueryInter@3
	mov	edx, DWORD PTR _outObject$[ebp]
	mov	eax, DWORD PTR _this$[ebp]
	mov	DWORD PTR [edx], eax
	jmp	SHORT $LN3@QueryInter@3
$LN4@QueryInter@3:
	push	OFFSET _IID_ISequentialOutStream
	mov	ecx, DWORD PTR _iid$[ebp]
	push	ecx
	call	_==@8
	test	eax, eax
	je	SHORT $LN2@QueryInter@3
	mov	edx, DWORD PTR _outObject$[ebp]
	mov	eax, DWORD PTR _this$[ebp]
	mov	DWORD PTR [edx], eax
	jmp	SHORT $LN3@QueryInter@3
$LN2@QueryInter@3:
	mov	eax, -2147467262			; 80004002H
	jmp	SHORT $LN5@QueryInter@3
$LN3@QueryInter@3:
	mov	ecx, DWORD PTR _this$[ebp]
	mov	edx, DWORD PTR [ecx+4]
	add	edx, 1
	mov	eax, DWORD PTR _this$[ebp]
	mov	DWORD PTR [eax+4], edx
	xor	eax, eax
$LN5@QueryInter@3:
	cmp	ebp, esp
	call	__RTC_CheckEsp
	pop	ebp
	ret	12					; 0000000cH
?QueryInterface@CLimitedSequentialOutStream@@UAGJABU_GUID@@PAPAX@Z ENDP ; CLimitedSequentialOutStream::QueryInterface
; Function compile flags: /Odtp /RTCsu
_TEXT	ENDS
;	COMDAT ?AddRef@CLimitedSequentialOutStream@@UAGKXZ
_TEXT	SEGMENT
tv70 = -4						; size = 4
_this$ = 8						; size = 4
?AddRef@CLimitedSequentialOutStream@@UAGKXZ PROC	; CLimitedSequentialOutStream::AddRef, COMDAT
; Line 145
	push	ebp
	mov	ebp, esp
	push	ecx
	mov	DWORD PTR [ebp-4], -858993460		; ccccccccH
	mov	eax, DWORD PTR _this$[ebp]
	mov	ecx, DWORD PTR [eax+4]
	add	ecx, 1
	mov	DWORD PTR tv70[ebp], ecx
	mov	edx, DWORD PTR _this$[ebp]
	mov	eax, DWORD PTR tv70[ebp]
	mov	DWORD PTR [edx+4], eax
	mov	eax, DWORD PTR tv70[ebp]
	mov	esp, ebp
	pop	ebp
	ret	4
?AddRef@CLimitedSequentialOutStream@@UAGKXZ ENDP	; CLimitedSequentialOutStream::AddRef
_TEXT	ENDS
PUBLIC	??_GCLimitedSequentialOutStream@@QAEPAXI@Z	; CLimitedSequentialOutStream::`scalar deleting destructor'
; Function compile flags: /Odtp /RTCsu
;	COMDAT ?Release@CLimitedSequentialOutStream@@UAGKXZ
_TEXT	SEGMENT
tv81 = -16						; size = 4
tv70 = -12						; size = 4
$T77447 = -8						; size = 4
$T77446 = -4						; size = 4
_this$ = 8						; size = 4
?Release@CLimitedSequentialOutStream@@UAGKXZ PROC	; CLimitedSequentialOutStream::Release, COMDAT
; Line 145
	push	ebp
	mov	ebp, esp
	sub	esp, 16					; 00000010H
	mov	eax, -858993460				; ccccccccH
	mov	DWORD PTR [ebp-16], eax
	mov	DWORD PTR [ebp-12], eax
	mov	DWORD PTR [ebp-8], eax
	mov	DWORD PTR [ebp-4], eax
	mov	eax, DWORD PTR _this$[ebp]
	mov	ecx, DWORD PTR [eax+4]
	sub	ecx, 1
	mov	DWORD PTR tv70[ebp], ecx
	mov	edx, DWORD PTR _this$[ebp]
	mov	eax, DWORD PTR tv70[ebp]
	mov	DWORD PTR [edx+4], eax
	cmp	DWORD PTR tv70[ebp], 0
	je	SHORT $LN1@Release@3
	mov	ecx, DWORD PTR _this$[ebp]
	mov	eax, DWORD PTR [ecx+4]
	jmp	SHORT $LN2@Release@3
$LN1@Release@3:
	mov	edx, DWORD PTR _this$[ebp]
	mov	DWORD PTR $T77447[ebp], edx
	mov	eax, DWORD PTR $T77447[ebp]
	mov	DWORD PTR $T77446[ebp], eax
	cmp	DWORD PTR $T77446[ebp], 0
	je	SHORT $LN4@Release@3
	push	1
	mov	ecx, DWORD PTR $T77446[ebp]
	call	??_GCLimitedSequentialOutStream@@QAEPAXI@Z
	mov	DWORD PTR tv81[ebp], eax
	jmp	SHORT $LN5@Release@3
$LN4@Release@3:
	mov	DWORD PTR tv81[ebp], 0
$LN5@Release@3:
	xor	eax, eax
$LN2@Release@3:
	add	esp, 16					; 00000010H
	cmp	ebp, esp
	call	__RTC_CheckEsp
	mov	esp, ebp
	pop	ebp
	ret	4
?Release@CLimitedSequentialOutStream@@UAGKXZ ENDP	; CLimitedSequentialOutStream::Release
_TEXT	ENDS
PUBLIC	??1CLimitedSequentialOutStream@@QAE@XZ		; CLimitedSequentialOutStream::~CLimitedSequentialOutStream
; Function compile flags: /Odtp /RTCsu
;	COMDAT ??_GCLimitedSequentialOutStream@@QAEPAXI@Z
_TEXT	SEGMENT
_this$ = -4						; size = 4
___flags$ = 8						; size = 4
??_GCLimitedSequentialOutStream@@QAEPAXI@Z PROC		; CLimitedSequentialOutStream::`scalar deleting destructor', COMDAT
; _this$ = ecx
	push	ebp
	mov	ebp, esp
	push	ecx
	mov	DWORD PTR [ebp-4], -858993460		; ccccccccH
	mov	DWORD PTR _this$[ebp], ecx
	mov	ecx, DWORD PTR _this$[ebp]
	call	??1CLimitedSequentialOutStream@@QAE@XZ
	mov	eax, DWORD PTR ___flags$[ebp]
	and	eax, 1
	je	SHORT $LN1@scalar@3
	mov	ecx, DWORD PTR _this$[ebp]
	push	ecx
	call	??3@YAXPAX@Z				; operator delete
	add	esp, 4
$LN1@scalar@3:
	mov	eax, DWORD PTR _this$[ebp]
	add	esp, 4
	cmp	ebp, esp
	call	__RTC_CheckEsp
	mov	esp, ebp
	pop	ebp
	ret	4
??_GCLimitedSequentialOutStream@@QAEPAXI@Z ENDP		; CLimitedSequentialOutStream::`scalar deleting destructor'
; Function compile flags: /Odtp /RTCsu
_TEXT	ENDS
;	COMDAT ??1CLimitedSequentialOutStream@@QAE@XZ
_TEXT	SEGMENT
_this$ = -4						; size = 4
??1CLimitedSequentialOutStream@@QAE@XZ PROC		; CLimitedSequentialOutStream::~CLimitedSequentialOutStream, COMDAT
; _this$ = ecx
	push	ebp
	mov	ebp, esp
	push	ecx
	mov	DWORD PTR [ebp-4], -858993460		; ccccccccH
	mov	DWORD PTR _this$[ebp], ecx
	mov	ecx, DWORD PTR _this$[ebp]
	add	ecx, 8
	call	??1?$CMyComPtr@UISequentialOutStream@@@@QAE@XZ ; CMyComPtr<ISequentialOutStream>::~CMyComPtr<ISequentialOutStream>
	add	esp, 4
	cmp	ebp, esp
	call	__RTC_CheckEsp
	mov	esp, ebp
	pop	ebp
	ret	0
??1CLimitedSequentialOutStream@@QAE@XZ ENDP		; CLimitedSequentialOutStream::~CLimitedSequentialOutStream
_TEXT	ENDS
PUBLIC	?GetStream@CHandler@NParser@NArchive@@UAGJIPAPAUISequentialInStream@@@Z ; NArchive::NParser::CHandler::GetStream
EXTRN	?CreateLimitedInStream@@YGJPAUIInStream@@_K1PAPAUISequentialInStream@@@Z:PROC ; CreateLimitedInStream
xdata$x	SEGMENT
__catchsym$?GetStream@CHandler@NParser@NArchive@@UAGJIPAPAUISequentialInStream@@@Z$2 DD 040H
	DD	00H
	DD	00H
	DD	FLAT:__catch$?GetStream@CHandler@NParser@NArchive@@UAGJIPAPAUISequentialInStream@@@Z$0
__unwindtable$?GetStream@CHandler@NParser@NArchive@@UAGJIPAPAUISequentialInStream@@@Z DD 0ffffffffH
	DD	00H
	DD	0ffffffffH
	DD	00H
__tryblocktable$?GetStream@CHandler@NParser@NArchive@@UAGJIPAPAUISequentialInStream@@@Z DD 00H
	DD	00H
	DD	01H
	DD	01H
	DD	FLAT:__catchsym$?GetStream@CHandler@NParser@NArchive@@UAGJIPAPAUISequentialInStream@@@Z$2
__ehfuncinfo$?GetStream@CHandler@NParser@NArchive@@UAGJIPAPAUISequentialInStream@@@Z DD 019930522H
	DD	02H
	DD	FLAT:__unwindtable$?GetStream@CHandler@NParser@NArchive@@UAGJIPAPAUISequentialInStream@@@Z
	DD	01H
	DD	FLAT:__tryblocktable$?GetStream@CHandler@NParser@NArchive@@UAGJIPAPAUISequentialInStream@@@Z
	DD	2 DUP(00H)
	DD	00H
	DD	01H
; Function compile flags: /Odtp /RTCsu
xdata$x	ENDS
_TEXT	SEGMENT
tv82 = -36						; size = 4
tv81 = -32						; size = 4
tv80 = -28						; size = 4
$T77457 = -24						; size = 4
_item$73159 = -20					; size = 4
__$EHRec$ = -16						; size = 16
_this$ = 8						; size = 4
_index$ = 12						; size = 4
_stream$ = 16						; size = 4
?GetStream@CHandler@NParser@NArchive@@UAGJIPAPAUISequentialInStream@@@Z PROC ; NArchive::NParser::CHandler::GetStream
; File c:\workspace\7z1505-src\cpp\7zip\ui\common\openarchive.cpp
; Line 437
	push	ebp
	mov	ebp, esp
	push	-1
	push	__ehhandler$?GetStream@CHandler@NParser@NArchive@@UAGJIPAPAUISequentialInStream@@@Z
	mov	eax, DWORD PTR fs:0
	push	eax
	push	ecx
	sub	esp, 20					; 00000014H
	push	ebx
	push	esi
	push	edi
	mov	eax, -858993460				; ccccccccH
	mov	DWORD PTR [ebp-36], eax
	mov	DWORD PTR [ebp-32], eax
	mov	DWORD PTR [ebp-28], eax
	mov	DWORD PTR [ebp-24], eax
	mov	DWORD PTR [ebp-20], eax
	mov	eax, DWORD PTR ___security_cookie
	xor	eax, ebp
	push	eax
	lea	eax, DWORD PTR __$EHRec$[ebp+4]
	mov	DWORD PTR fs:0, eax
	mov	DWORD PTR __$EHRec$[ebp], esp
; Line 438
	mov	DWORD PTR __$EHRec$[ebp+12], 0
; Line 439
	mov	eax, DWORD PTR _index$[ebp]
	push	eax
	mov	ecx, DWORD PTR _this$[ebp]
	add	ecx, 8
	call	??A?$CObjectVector@UCParseItem@NParser@NArchive@@@@QAEAAUCParseItem@NParser@NArchive@@I@Z ; CObjectVector<NArchive::NParser::CParseItem>::operator[]
	mov	DWORD PTR tv80[ebp], eax
	mov	ecx, DWORD PTR tv80[ebp]
	mov	DWORD PTR _item$73159[ebp], ecx
; Line 440
	mov	ecx, DWORD PTR _this$[ebp]
	add	ecx, 28					; 0000001cH
	call	??B?$CMyComPtr@UIInStream@@@@QBEPAUIInStream@@XZ ; CMyComPtr<IInStream>::operator IInStream *
	mov	DWORD PTR tv81[ebp], eax
	mov	edx, DWORD PTR _stream$[ebp]
	push	edx
	mov	eax, DWORD PTR _item$73159[ebp]
	mov	ecx, DWORD PTR [eax+12]
	push	ecx
	mov	edx, DWORD PTR [eax+8]
	push	edx
	mov	eax, DWORD PTR _item$73159[ebp]
	mov	ecx, DWORD PTR [eax+4]
	push	ecx
	mov	edx, DWORD PTR [eax]
	push	edx
	mov	eax, DWORD PTR tv81[ebp]
	push	eax
	call	?CreateLimitedInStream@@YGJPAUIInStream@@_K1PAPAUISequentialInStream@@@Z ; CreateLimitedInStream
	mov	DWORD PTR tv82[ebp], eax
	mov	eax, DWORD PTR tv82[ebp]
	jmp	SHORT $LN2@GetStream
__catch$?GetStream@CHandler@NParser@NArchive@@UAGJIPAPAUISequentialInStream@@@Z$0:
; Line 441
	mov	DWORD PTR $T77457[ebp], -2147024882	; 8007000eH
	mov	DWORD PTR __$EHRec$[ebp+12], -1
	mov	eax, $LN7@GetStream
	ret	0
	mov	eax, __tryend$?GetStream@CHandler@NParser@NArchive@@UAGJIPAPAUISequentialInStream@@@Z$1
	ret	0
__tryend$?GetStream@CHandler@NParser@NArchive@@UAGJIPAPAUISequentialInStream@@@Z$1:
	mov	DWORD PTR __$EHRec$[ebp+12], -1
	jmp	SHORT $LN2@GetStream
$LN7@GetStream:
	mov	eax, DWORD PTR $T77457[ebp]
$LN2@GetStream:
; Line 442
	mov	ecx, DWORD PTR __$EHRec$[ebp+4]
	mov	DWORD PTR fs:0, ecx
	pop	ecx
	pop	edi
	pop	esi
	pop	ebx
	add	esp, 36					; 00000024H
	cmp	ebp, esp
	call	__RTC_CheckEsp
	mov	esp, ebp
	pop	ebp
	ret	12					; 0000000cH
_TEXT	ENDS
text$x	SEGMENT
__ehhandler$?GetStream@CHandler@NParser@NArchive@@UAGJIPAPAUISequentialInStream@@@Z:
	mov	edx, DWORD PTR [esp+8]
	lea	eax, DWORD PTR [edx+12]
	mov	ecx, DWORD PTR [edx-40]
	xor	ecx, eax
	call	@__security_check_cookie@4
	mov	eax, OFFSET __ehfuncinfo$?GetStream@CHandler@NParser@NArchive@@UAGJIPAPAUISequentialInStream@@@Z
	jmp	___CxxFrameHandler3
text$x	ENDS
?GetStream@CHandler@NParser@NArchive@@UAGJIPAPAUISequentialInStream@@@Z ENDP ; NArchive::NParser::CHandler::GetStream
PUBLIC	?VARIANT_BOOLToBool@@YG_NF@Z			; VARIANT_BOOLToBool
PUBLIC	?Archive_GetItemBoolProp@@YGJPAUIInArchive@@IKAA_N@Z ; Archive_GetItemBoolProp
; Function compile flags: /Odtp /RTCsu
_TEXT	SEGMENT
$T77472 = -40						; size = 4
$T77471 = -36						; size = 4
$T77470 = -32						; size = 4
___result__$73169 = -28					; size = 4
_prop$ = -20						; size = 16
_arc$ = 8						; size = 4
_index$ = 12						; size = 4
_propID$ = 16						; size = 4
_result$ = 20						; size = 4
?Archive_GetItemBoolProp@@YGJPAUIInArchive@@IKAA_N@Z PROC ; Archive_GetItemBoolProp
; Line 449
	push	ebp
	mov	ebp, esp
	sub	esp, 40					; 00000028H
	push	esi
	push	edi
	lea	edi, DWORD PTR [ebp-40]
	mov	ecx, 10					; 0000000aH
	mov	eax, -858993460				; ccccccccH
	rep stosd
; Line 450
	lea	ecx, DWORD PTR _prop$[ebp]
	call	??0CPropVariant@NCOM@NWindows@@QAE@XZ	; NWindows::NCOM::CPropVariant::CPropVariant
; Line 451
	mov	eax, DWORD PTR _result$[ebp]
	mov	BYTE PTR [eax], 0
; Line 452
	mov	esi, esp
	lea	ecx, DWORD PTR _prop$[ebp]
	push	ecx
	mov	edx, DWORD PTR _propID$[ebp]
	push	edx
	mov	eax, DWORD PTR _index$[ebp]
	push	eax
	mov	ecx, DWORD PTR _arc$[ebp]
	mov	edx, DWORD PTR [ecx]
	mov	eax, DWORD PTR _arc$[ebp]
	push	eax
	mov	ecx, DWORD PTR [edx+24]
	call	ecx
	cmp	esi, esp
	call	__RTC_CheckEsp
	mov	DWORD PTR ___result__$73169[ebp], eax
	cmp	DWORD PTR ___result__$73169[ebp], 0
	je	SHORT $LN4@Archive_Ge
	mov	edx, DWORD PTR ___result__$73169[ebp]
	mov	DWORD PTR $T77470[ebp], edx
	lea	ecx, DWORD PTR _prop$[ebp]
	call	??1CPropVariant@NCOM@NWindows@@QAE@XZ	; NWindows::NCOM::CPropVariant::~CPropVariant
	mov	eax, DWORD PTR $T77470[ebp]
	jmp	SHORT $LN5@Archive_Ge
$LN4@Archive_Ge:
; Line 453
	movzx	eax, WORD PTR _prop$[ebp]
	cmp	eax, 11					; 0000000bH
	jne	SHORT $LN3@Archive_Ge
; Line 454
	movzx	ecx, WORD PTR _prop$[ebp+8]
	push	ecx
	call	?VARIANT_BOOLToBool@@YG_NF@Z		; VARIANT_BOOLToBool
	mov	edx, DWORD PTR _result$[ebp]
	mov	BYTE PTR [edx], al
	jmp	SHORT $LN2@Archive_Ge
$LN3@Archive_Ge:
; Line 455
	movzx	eax, WORD PTR _prop$[ebp]
	test	eax, eax
	je	SHORT $LN2@Archive_Ge
; Line 456
	mov	DWORD PTR $T77471[ebp], -2147467259	; 80004005H
	lea	ecx, DWORD PTR _prop$[ebp]
	call	??1CPropVariant@NCOM@NWindows@@QAE@XZ	; NWindows::NCOM::CPropVariant::~CPropVariant
	mov	eax, DWORD PTR $T77471[ebp]
	jmp	SHORT $LN5@Archive_Ge
$LN2@Archive_Ge:
; Line 457
	mov	DWORD PTR $T77472[ebp], 0
	lea	ecx, DWORD PTR _prop$[ebp]
	call	??1CPropVariant@NCOM@NWindows@@QAE@XZ	; NWindows::NCOM::CPropVariant::~CPropVariant
	mov	eax, DWORD PTR $T77472[ebp]
$LN5@Archive_Ge:
; Line 458
	push	edx
	mov	ecx, ebp
	push	eax
	lea	edx, DWORD PTR $LN9@Archive_Ge
	call	@_RTC_CheckStackVars@8
	pop	eax
	pop	edx
	pop	edi
	pop	esi
	add	esp, 40					; 00000028H
	cmp	ebp, esp
	call	__RTC_CheckEsp
	mov	esp, ebp
	pop	ebp
	ret	16					; 00000010H
	npad	1
$LN9@Archive_Ge:
	DD	1
	DD	$LN8@Archive_Ge
$LN8@Archive_Ge:
	DD	-20					; ffffffecH
	DD	16					; 00000010H
	DD	$LN7@Archive_Ge
$LN7@Archive_Ge:
	DB	112					; 00000070H
	DB	114					; 00000072H
	DB	111					; 0000006fH
	DB	112					; 00000070H
	DB	0
?Archive_GetItemBoolProp@@YGJPAUIInArchive@@IKAA_N@Z ENDP ; Archive_GetItemBoolProp
; Function compile flags: /Odtp /RTCsu
_TEXT	ENDS
;	COMDAT ?VARIANT_BOOLToBool@@YG_NF@Z
_TEXT	SEGMENT
_v$ = 8							; size = 2
?VARIANT_BOOLToBool@@YG_NF@Z PROC			; VARIANT_BOOLToBool, COMDAT
; File c:\workspace\7z1505-src\cpp\windows\defs.h
; Line 15
	push	ebp
	mov	ebp, esp
	movsx	eax, WORD PTR _v$[ebp]
	neg	eax
	sbb	eax, eax
	neg	eax
	pop	ebp
	ret	4
?VARIANT_BOOLToBool@@YG_NF@Z ENDP			; VARIANT_BOOLToBool
_TEXT	ENDS
PUBLIC	?Archive_IsItem_Dir@@YGJPAUIInArchive@@IAA_N@Z	; Archive_IsItem_Dir
; Function compile flags: /Odtp /RTCsu
_TEXT	SEGMENT
_arc$ = 8						; size = 4
_index$ = 12						; size = 4
_result$ = 16						; size = 4
?Archive_IsItem_Dir@@YGJPAUIInArchive@@IAA_N@Z PROC	; Archive_IsItem_Dir
; File c:\workspace\7z1505-src\cpp\7zip\ui\common\openarchive.cpp
; Line 461
	push	ebp
	mov	ebp, esp
; Line 462
	mov	eax, DWORD PTR _result$[ebp]
	push	eax
	push	6
	mov	ecx, DWORD PTR _index$[ebp]
	push	ecx
	mov	edx, DWORD PTR _arc$[ebp]
	push	edx
	call	?Archive_GetItemBoolProp@@YGJPAUIInArchive@@IKAA_N@Z ; Archive_GetItemBoolProp
; Line 463
	cmp	ebp, esp
	call	__RTC_CheckEsp
	pop	ebp
	ret	12					; 0000000cH
?Archive_IsItem_Dir@@YGJPAUIInArchive@@IAA_N@Z ENDP	; Archive_IsItem_Dir
_TEXT	ENDS
PUBLIC	?Archive_IsItem_Aux@@YGJPAUIInArchive@@IAA_N@Z	; Archive_IsItem_Aux
; Function compile flags: /Odtp /RTCsu
_TEXT	SEGMENT
_arc$ = 8						; size = 4
_index$ = 12						; size = 4
_result$ = 16						; size = 4
?Archive_IsItem_Aux@@YGJPAUIInArchive@@IAA_N@Z PROC	; Archive_IsItem_Aux
; Line 466
	push	ebp
	mov	ebp, esp
; Line 467
	mov	eax, DWORD PTR _result$[ebp]
	push	eax
	push	64					; 00000040H
	mov	ecx, DWORD PTR _index$[ebp]
	push	ecx
	mov	edx, DWORD PTR _arc$[ebp]
	push	edx
	call	?Archive_GetItemBoolProp@@YGJPAUIInArchive@@IKAA_N@Z ; Archive_GetItemBoolProp
; Line 468
	cmp	ebp, esp
	call	__RTC_CheckEsp
	pop	ebp
	ret	12					; 0000000cH
?Archive_IsItem_Aux@@YGJPAUIInArchive@@IAA_N@Z ENDP	; Archive_IsItem_Aux
_TEXT	ENDS
PUBLIC	?Archive_IsItem_AltStream@@YGJPAUIInArchive@@IAA_N@Z ; Archive_IsItem_AltStream
; Function compile flags: /Odtp /RTCsu
_TEXT	SEGMENT
_arc$ = 8						; size = 4
_index$ = 12						; size = 4
_result$ = 16						; size = 4
?Archive_IsItem_AltStream@@YGJPAUIInArchive@@IAA_N@Z PROC ; Archive_IsItem_AltStream
; Line 471
	push	ebp
	mov	ebp, esp
; Line 472
	mov	eax, DWORD PTR _result$[ebp]
	push	eax
	push	63					; 0000003fH
	mov	ecx, DWORD PTR _index$[ebp]
	push	ecx
	mov	edx, DWORD PTR _arc$[ebp]
	push	edx
	call	?Archive_GetItemBoolProp@@YGJPAUIInArchive@@IKAA_N@Z ; Archive_GetItemBoolProp
; Line 473
	cmp	ebp, esp
	call	__RTC_CheckEsp
	pop	ebp
	ret	12					; 0000000cH
?Archive_IsItem_AltStream@@YGJPAUIInArchive@@IAA_N@Z ENDP ; Archive_IsItem_AltStream
_TEXT	ENDS
PUBLIC	?Archive_IsItem_Deleted@@YGJPAUIInArchive@@IAA_N@Z ; Archive_IsItem_Deleted
; Function compile flags: /Odtp /RTCsu
_TEXT	SEGMENT
_arc$ = 8						; size = 4
_index$ = 12						; size = 4
_result$ = 16						; size = 4
?Archive_IsItem_Deleted@@YGJPAUIInArchive@@IAA_N@Z PROC	; Archive_IsItem_Deleted
; Line 476
	push	ebp
	mov	ebp, esp
; Line 477
	mov	eax, DWORD PTR _result$[ebp]
	push	eax
	push	65					; 00000041H
	mov	ecx, DWORD PTR _index$[ebp]
	push	ecx
	mov	edx, DWORD PTR _arc$[ebp]
	push	edx
	call	?Archive_GetItemBoolProp@@YGJPAUIInArchive@@IKAA_N@Z ; Archive_GetItemBoolProp
; Line 478
	cmp	ebp, esp
	call	__RTC_CheckEsp
	pop	ebp
	ret	12					; 0000000cH
?Archive_IsItem_Deleted@@YGJPAUIInArchive@@IAA_N@Z ENDP	; Archive_IsItem_Deleted
_TEXT	ENDS
PUBLIC	?DeleteBack@?$CObjectVector@VUString@@@@QAEXXZ	; CObjectVector<UString>::DeleteBack
PUBLIC	?Back@?$CObjectVector@VUString@@@@QAEAAVUString@@XZ ; CObjectVector<UString>::Back
PUBLIC	??A?$CObjectVector@VUString@@@@QAEAAVUString@@I@Z ; CObjectVector<UString>::operator[]
PUBLIC	?Size@?$CObjectVector@VUString@@@@QBEIXZ	; CObjectVector<UString>::Size
PUBLIC	?DeleteFrom@UString@@QAEXI@Z			; UString::DeleteFrom
PUBLIC	?Insert@?$CObjectVector@VUString@@@@QAEXIABVUString@@@Z ; CObjectVector<UString>::Insert
PUBLIC	?Ptr@UString@@QBEPB_WI@Z			; UString::Ptr
PUBLIC	?Empty@UString@@QAEXXZ				; UString::Empty
PUBLIC	??C?$CMyComPtr@UIInArchive@@@@QBEPAUIInArchive@@XZ ; CMyComPtr<IInArchive>::operator->
PUBLIC	??C?$CMyComPtr@UIArchiveGetRawProps@@@@QBEPAUIArchiveGetRawProps@@XZ ; CMyComPtr<IArchiveGetRawProps>::operator->
PUBLIC	??7?$CMyComPtr@UIArchiveGetRawProps@@@@QBE_NXZ	; CMyComPtr<IArchiveGetRawProps>::operator!
PUBLIC	?GetItemPathToParent@CArc@@ABEJIIAAV?$CObjectVector@VUString@@@@@Z ; CArc::GetItemPathToParent
EXTRN	?ReverseFind_PathSepar@UString@@QBEHXZ:PROC	; UString::ReverseFind_PathSepar
EXTRN	?SetFromBstr@UString@@QAEXPA_W@Z:PROC		; UString::SetFromBstr
EXTRN	??4UString@@QAEAAV0@PB_W@Z:PROC			; UString::operator=
xdata$x	SEGMENT
__unwindtable$?GetItemPathToParent@CArc@@ABEJIIAAV?$CObjectVector@VUString@@@@@Z DD 0ffffffffH
	DD	FLAT:__unwindfunclet$?GetItemPathToParent@CArc@@ABEJIIAAV?$CObjectVector@VUString@@@@@Z$0
	DD	00H
	DD	FLAT:__unwindfunclet$?GetItemPathToParent@CArc@@ABEJIIAAV?$CObjectVector@VUString@@@@@Z$1
	DD	00H
	DD	FLAT:__unwindfunclet$?GetItemPathToParent@CArc@@ABEJIIAAV?$CObjectVector@VUString@@@@@Z$2
__ehfuncinfo$?GetItemPathToParent@CArc@@ABEJIIAAV?$CObjectVector@VUString@@@@@Z DD 019930522H
	DD	03H
	DD	FLAT:__unwindtable$?GetItemPathToParent@CArc@@ABEJIIAAV?$CObjectVector@VUString@@@@@Z
	DD	2 DUP(00H)
	DD	2 DUP(00H)
	DD	00H
	DD	01H
; Function compile flags: /Odtp /RTCsu
xdata$x	ENDS
_TEXT	SEGMENT
tv173 = -196						; size = 4
tv129 = -192						; size = 4
tv77 = -188						; size = 4
$T77489 = -184						; size = 4
$T77488 = -180						; size = 4
$T77487 = -176						; size = 12
$T77486 = -164						; size = 4
$T77485 = -160						; size = 4
$T77484 = -156						; size = 4
$T77483 = -152						; size = 4
_s$73318 = -148						; size = 4
_pos$73314 = -144					; size = 4
___result__$73307 = -140				; size = 4
_parentType$73306 = -132				; size = 4
_curParent$73303 = -120					; size = 4
___result__$73294 = -112				; size = 4
_prop$73293 = -104					; size = 16
___result__$73286 = -84					; size = 4
_propType$73285 = -76					; size = 4
_size$73284 = -64					; size = 4
_p$73283 = -52						; size = 4
_prevWasAltStream$ = -41				; size = 1
_s$ = -36						; size = 12
_curIndex$ = -20					; size = 4
_this$ = -16						; size = 4
__$EHRec$ = -12						; size = 12
_index$ = 8						; size = 4
_parent$ = 12						; size = 4
_parts$ = 16						; size = 4
?GetItemPathToParent@CArc@@ABEJIIAAV?$CObjectVector@VUString@@@@@Z PROC ; CArc::GetItemPathToParent
; _this$ = ecx
; Line 529
	push	ebp
	mov	ebp, esp
	push	-1
	push	__ehhandler$?GetItemPathToParent@CArc@@ABEJIIAAV?$CObjectVector@VUString@@@@@Z
	mov	eax, DWORD PTR fs:0
	push	eax
	sub	esp, 184				; 000000b8H
	push	esi
	push	edi
	push	ecx
	lea	edi, DWORD PTR [ebp-196]
	mov	ecx, 46					; 0000002eH
	mov	eax, -858993460				; ccccccccH
	rep stosd
	pop	ecx
	mov	eax, DWORD PTR ___security_cookie
	xor	eax, ebp
	push	eax
	lea	eax, DWORD PTR __$EHRec$[ebp]
	mov	DWORD PTR fs:0, eax
	mov	DWORD PTR _this$[ebp], ecx
; Line 530
	mov	ecx, DWORD PTR _this$[ebp]
	add	ecx, 8
	call	??7?$CMyComPtr@UIArchiveGetRawProps@@@@QBE_NXZ ; CMyComPtr<IArchiveGetRawProps>::operator!
	movzx	eax, al
	test	eax, eax
	je	SHORT $LN21@GetItemPat
; Line 531
	mov	eax, -2147467259			; 80004005H
	jmp	$LN22@GetItemPat
$LN21@GetItemPat:
; Line 532
	mov	ecx, DWORD PTR _index$[ebp]
	cmp	ecx, DWORD PTR _parent$[ebp]
	jne	SHORT $LN20@GetItemPat
; Line 533
	xor	eax, eax
	jmp	$LN22@GetItemPat
$LN20@GetItemPat:
; Line 534
	mov	edx, DWORD PTR _index$[ebp]
	mov	DWORD PTR _curIndex$[ebp], edx
; Line 536
	lea	ecx, DWORD PTR _s$[ebp]
	call	??0UString@@QAE@XZ			; UString::UString
	mov	DWORD PTR __$EHRec$[ebp+8], 0
; Line 538
	mov	BYTE PTR _prevWasAltStream$[ebp], 0
$LN19@GetItemPat:
; Line 546
	mov	ecx, DWORD PTR _this$[ebp]
	add	ecx, 8
	call	??C?$CMyComPtr@UIArchiveGetRawProps@@@@QBEPAUIArchiveGetRawProps@@XZ ; CMyComPtr<IArchiveGetRawProps>::operator->
	mov	DWORD PTR tv77[ebp], eax
	mov	esi, esp
	lea	eax, DWORD PTR _propType$73285[ebp]
	push	eax
	lea	ecx, DWORD PTR _size$73284[ebp]
	push	ecx
	lea	edx, DWORD PTR _p$73283[ebp]
	push	edx
	push	4
	mov	eax, DWORD PTR _curIndex$[ebp]
	push	eax
	mov	ecx, DWORD PTR tv77[ebp]
	push	ecx
	mov	edx, DWORD PTR tv77[ebp]
	mov	eax, DWORD PTR [edx]
	mov	ecx, DWORD PTR [eax+16]
	call	ecx
	cmp	esi, esp
	call	__RTC_CheckEsp
	mov	DWORD PTR ___result__$73286[ebp], eax
	cmp	DWORD PTR ___result__$73286[ebp], 0
	je	SHORT $LN17@GetItemPat
	mov	edx, DWORD PTR ___result__$73286[ebp]
	mov	DWORD PTR $T77483[ebp], edx
	mov	DWORD PTR __$EHRec$[ebp+8], -1
	lea	ecx, DWORD PTR _s$[ebp]
	call	??1UString@@QAE@XZ			; UString::~UString
	mov	eax, DWORD PTR $T77483[ebp]
	jmp	$LN22@GetItemPat
$LN17@GetItemPat:
; Line 547
	cmp	DWORD PTR _p$73283[ebp], 0
	je	SHORT $LN16@GetItemPat
	cmp	DWORD PTR _propType$73285[ebp], 81	; 00000051H
	jne	SHORT $LN16@GetItemPat
; Line 548
	mov	eax, DWORD PTR _p$73283[ebp]
	push	eax
	lea	ecx, DWORD PTR _s$[ebp]
	call	??4UString@@QAEAAV0@PB_W@Z		; UString::operator=
; Line 549
	jmp	$LN15@GetItemPat
$LN16@GetItemPat:
; Line 552
	lea	ecx, DWORD PTR _prop$73293[ebp]
	call	??0CPropVariant@NCOM@NWindows@@QAE@XZ	; NWindows::NCOM::CPropVariant::CPropVariant
	mov	BYTE PTR __$EHRec$[ebp+8], 1
; Line 553
	mov	ecx, DWORD PTR _this$[ebp]
	call	??C?$CMyComPtr@UIInArchive@@@@QBEPAUIInArchive@@XZ ; CMyComPtr<IInArchive>::operator->
	mov	DWORD PTR tv129[ebp], eax
	mov	esi, esp
	lea	ecx, DWORD PTR _prop$73293[ebp]
	push	ecx
	push	4
	mov	edx, DWORD PTR _curIndex$[ebp]
	push	edx
	mov	eax, DWORD PTR tv129[ebp]
	push	eax
	mov	ecx, DWORD PTR tv129[ebp]
	mov	edx, DWORD PTR [ecx]
	mov	eax, DWORD PTR [edx+24]
	call	eax
	cmp	esi, esp
	call	__RTC_CheckEsp
	mov	DWORD PTR ___result__$73294[ebp], eax
	cmp	DWORD PTR ___result__$73294[ebp], 0
	je	SHORT $LN14@GetItemPat
	mov	ecx, DWORD PTR ___result__$73294[ebp]
	mov	DWORD PTR $T77484[ebp], ecx
	mov	BYTE PTR __$EHRec$[ebp+8], 0
	lea	ecx, DWORD PTR _prop$73293[ebp]
	call	??1CPropVariant@NCOM@NWindows@@QAE@XZ	; NWindows::NCOM::CPropVariant::~CPropVariant
	mov	DWORD PTR __$EHRec$[ebp+8], -1
	lea	ecx, DWORD PTR _s$[ebp]
	call	??1UString@@QAE@XZ			; UString::~UString
	mov	eax, DWORD PTR $T77484[ebp]
	jmp	$LN22@GetItemPat
$LN14@GetItemPat:
; Line 554
	movzx	edx, WORD PTR _prop$73293[ebp]
	cmp	edx, 8
	jne	SHORT $LN13@GetItemPat
	cmp	DWORD PTR _prop$73293[ebp+8], 0
	je	SHORT $LN13@GetItemPat
; Line 555
	mov	eax, DWORD PTR _prop$73293[ebp+8]
	push	eax
	lea	ecx, DWORD PTR _s$[ebp]
	call	?SetFromBstr@UString@@QAEXPA_W@Z	; UString::SetFromBstr
	jmp	SHORT $LN12@GetItemPat
$LN13@GetItemPat:
; Line 556
	movzx	ecx, WORD PTR _prop$73293[ebp]
	test	ecx, ecx
	jne	SHORT $LN11@GetItemPat
; Line 557
	lea	ecx, DWORD PTR _s$[ebp]
	call	?Empty@UString@@QAEXXZ			; UString::Empty
; Line 558
	jmp	SHORT $LN12@GetItemPat
$LN11@GetItemPat:
; Line 559
	mov	DWORD PTR $T77485[ebp], -2147467259	; 80004005H
	mov	BYTE PTR __$EHRec$[ebp+8], 0
	lea	ecx, DWORD PTR _prop$73293[ebp]
	call	??1CPropVariant@NCOM@NWindows@@QAE@XZ	; NWindows::NCOM::CPropVariant::~CPropVariant
	mov	DWORD PTR __$EHRec$[ebp+8], -1
	lea	ecx, DWORD PTR _s$[ebp]
	call	??1UString@@QAE@XZ			; UString::~UString
	mov	eax, DWORD PTR $T77485[ebp]
	jmp	$LN22@GetItemPat
$LN12@GetItemPat:
; Line 560
	mov	BYTE PTR __$EHRec$[ebp+8], 0
	lea	ecx, DWORD PTR _prop$73293[ebp]
	call	??1CPropVariant@NCOM@NWindows@@QAE@XZ	; NWindows::NCOM::CPropVariant::~CPropVariant
$LN15@GetItemPat:
; Line 562
	mov	DWORD PTR _curParent$73303[ebp], -1
; Line 563
	mov	DWORD PTR _parentType$73306[ebp], 0
; Line 564
	mov	ecx, DWORD PTR _this$[ebp]
	add	ecx, 8
	call	??C?$CMyComPtr@UIArchiveGetRawProps@@@@QBEPAUIArchiveGetRawProps@@XZ ; CMyComPtr<IArchiveGetRawProps>::operator->
	mov	DWORD PTR tv173[ebp], eax
	mov	esi, esp
	lea	edx, DWORD PTR _parentType$73306[ebp]
	push	edx
	lea	eax, DWORD PTR _curParent$73303[ebp]
	push	eax
	mov	ecx, DWORD PTR _curIndex$[ebp]
	push	ecx
	mov	edx, DWORD PTR tv173[ebp]
	push	edx
	mov	eax, DWORD PTR tv173[ebp]
	mov	ecx, DWORD PTR [eax]
	mov	edx, DWORD PTR [ecx+12]
	call	edx
	cmp	esi, esp
	call	__RTC_CheckEsp
	mov	DWORD PTR ___result__$73307[ebp], eax
	cmp	DWORD PTR ___result__$73307[ebp], 0
	je	SHORT $LN9@GetItemPat
	mov	eax, DWORD PTR ___result__$73307[ebp]
	mov	DWORD PTR $T77486[ebp], eax
	mov	DWORD PTR __$EHRec$[ebp+8], -1
	lea	ecx, DWORD PTR _s$[ebp]
	call	??1UString@@QAE@XZ			; UString::~UString
	mov	eax, DWORD PTR $T77486[ebp]
	jmp	$LN22@GetItemPat
$LN9@GetItemPat:
; Line 566
	cmp	DWORD PTR _parentType$73306[ebp], 1
	je	SHORT $LN8@GetItemPat
$LN7@GetItemPat:
; Line 570
	lea	ecx, DWORD PTR _s$[ebp]
	call	?ReverseFind_PathSepar@UString@@QBEHXZ	; UString::ReverseFind_PathSepar
	mov	DWORD PTR _pos$73314[ebp], eax
; Line 571
	cmp	DWORD PTR _pos$73314[ebp], 0
	jge	SHORT $LN5@GetItemPat
; Line 573
	jmp	SHORT $LN8@GetItemPat
$LN5@GetItemPat:
; Line 575
	mov	ecx, DWORD PTR _pos$73314[ebp]
	add	ecx, 1
	push	ecx
	lea	ecx, DWORD PTR _s$[ebp]
	call	?Ptr@UString@@QBEPB_WI@Z		; UString::Ptr
	push	eax
	lea	ecx, DWORD PTR $T77487[ebp]
	call	??0UString@@QAE@PB_W@Z			; UString::UString
	mov	BYTE PTR __$EHRec$[ebp+8], 2
	lea	edx, DWORD PTR $T77487[ebp]
	push	edx
	push	0
	mov	ecx, DWORD PTR _parts$[ebp]
	call	?Insert@?$CObjectVector@VUString@@@@QAEXIABVUString@@@Z ; CObjectVector<UString>::Insert
	mov	BYTE PTR __$EHRec$[ebp+8], 0
	lea	ecx, DWORD PTR $T77487[ebp]
	call	??1UString@@QAE@XZ			; UString::~UString
; Line 576
	mov	eax, DWORD PTR _pos$73314[ebp]
	push	eax
	lea	ecx, DWORD PTR _s$[ebp]
	call	?DeleteFrom@UString@@QAEXI@Z		; UString::DeleteFrom
; Line 577
	jmp	SHORT $LN7@GetItemPat
$LN8@GetItemPat:
; Line 580
	lea	ecx, DWORD PTR _s$[ebp]
	push	ecx
	push	0
	mov	ecx, DWORD PTR _parts$[ebp]
	call	?Insert@?$CObjectVector@VUString@@@@QAEXIABVUString@@@Z ; CObjectVector<UString>::Insert
; Line 582
	movzx	edx, BYTE PTR _prevWasAltStream$[ebp]
	test	edx, edx
	je	SHORT $LN4@GetItemPat
; Line 585
	mov	ecx, DWORD PTR _parts$[ebp]
	call	?Size@?$CObjectVector@VUString@@@@QBEIXZ ; CObjectVector<UString>::Size
	sub	eax, 2
	push	eax
	mov	ecx, DWORD PTR _parts$[ebp]
	call	??A?$CObjectVector@VUString@@@@QAEAAVUString@@I@Z ; CObjectVector<UString>::operator[]
	mov	DWORD PTR _s$73318[ebp], eax
; Line 586
	push	58					; 0000003aH
	mov	ecx, DWORD PTR _s$73318[ebp]
	call	??YUString@@QAEAAV0@_W@Z		; UString::operator+=
; Line 587
	mov	ecx, DWORD PTR _parts$[ebp]
	call	?Back@?$CObjectVector@VUString@@@@QAEAAVUString@@XZ ; CObjectVector<UString>::Back
	push	eax
	mov	ecx, DWORD PTR _s$73318[ebp]
	call	??YUString@@QAEAAV0@ABV0@@Z		; UString::operator+=
; Line 589
	mov	ecx, DWORD PTR _parts$[ebp]
	call	?DeleteBack@?$CObjectVector@VUString@@@@QAEXXZ ; CObjectVector<UString>::DeleteBack
$LN4@GetItemPat:
; Line 592
	mov	eax, DWORD PTR _parent$[ebp]
	cmp	eax, DWORD PTR _curParent$73303[ebp]
	jne	SHORT $LN3@GetItemPat
; Line 593
	mov	DWORD PTR $T77488[ebp], 0
	mov	DWORD PTR __$EHRec$[ebp+8], -1
	lea	ecx, DWORD PTR _s$[ebp]
	call	??1UString@@QAE@XZ			; UString::~UString
	mov	eax, DWORD PTR $T77488[ebp]
	jmp	SHORT $LN22@GetItemPat
$LN3@GetItemPat:
; Line 595
	mov	BYTE PTR _prevWasAltStream$[ebp], 0
; Line 596
	cmp	DWORD PTR _parentType$73306[ebp], 1
	jne	SHORT $LN2@GetItemPat
; Line 597
	mov	BYTE PTR _prevWasAltStream$[ebp], 1
$LN2@GetItemPat:
; Line 599
	cmp	DWORD PTR _curParent$73303[ebp], -1
	jne	SHORT $LN1@GetItemPat
; Line 600
	mov	DWORD PTR $T77489[ebp], -2147467259	; 80004005H
	mov	DWORD PTR __$EHRec$[ebp+8], -1
	lea	ecx, DWORD PTR _s$[ebp]
	call	??1UString@@QAE@XZ			; UString::~UString
	mov	eax, DWORD PTR $T77489[ebp]
	jmp	SHORT $LN22@GetItemPat
$LN1@GetItemPat:
; Line 601
	mov	ecx, DWORD PTR _curParent$73303[ebp]
	mov	DWORD PTR _curIndex$[ebp], ecx
; Line 602
	jmp	$LN19@GetItemPat
; Line 603
	mov	DWORD PTR __$EHRec$[ebp+8], -1
	lea	ecx, DWORD PTR _s$[ebp]
	call	??1UString@@QAE@XZ			; UString::~UString
$LN22@GetItemPat:
	push	edx
	mov	ecx, ebp
	push	eax
	lea	edx, DWORD PTR $LN36@GetItemPat
	call	@_RTC_CheckStackVars@8
	pop	eax
	pop	edx
	mov	ecx, DWORD PTR __$EHRec$[ebp]
	mov	DWORD PTR fs:0, ecx
	pop	ecx
	pop	edi
	pop	esi
	add	esp, 196				; 000000c4H
	cmp	ebp, esp
	call	__RTC_CheckEsp
	mov	esp, ebp
	pop	ebp
	ret	12					; 0000000cH
	npad	1
$LN36@GetItemPat:
	DD	7
	DD	$LN35@GetItemPat
$LN35@GetItemPat:
	DD	-36					; ffffffdcH
	DD	12					; 0000000cH
	DD	$LN27@GetItemPat
	DD	-52					; ffffffccH
	DD	4
	DD	$LN28@GetItemPat
	DD	-64					; ffffffc0H
	DD	4
	DD	$LN29@GetItemPat
	DD	-76					; ffffffb4H
	DD	4
	DD	$LN30@GetItemPat
	DD	-104					; ffffff98H
	DD	16					; 00000010H
	DD	$LN31@GetItemPat
	DD	-120					; ffffff88H
	DD	4
	DD	$LN32@GetItemPat
	DD	-132					; ffffff7cH
	DD	4
	DD	$LN33@GetItemPat
$LN33@GetItemPat:
	DB	112					; 00000070H
	DB	97					; 00000061H
	DB	114					; 00000072H
	DB	101					; 00000065H
	DB	110					; 0000006eH
	DB	116					; 00000074H
	DB	84					; 00000054H
	DB	121					; 00000079H
	DB	112					; 00000070H
	DB	101					; 00000065H
	DB	0
$LN32@GetItemPat:
	DB	99					; 00000063H
	DB	117					; 00000075H
	DB	114					; 00000072H
	DB	80					; 00000050H
	DB	97					; 00000061H
	DB	114					; 00000072H
	DB	101					; 00000065H
	DB	110					; 0000006eH
	DB	116					; 00000074H
	DB	0
$LN31@GetItemPat:
	DB	112					; 00000070H
	DB	114					; 00000072H
	DB	111					; 0000006fH
	DB	112					; 00000070H
	DB	0
$LN30@GetItemPat:
	DB	112					; 00000070H
	DB	114					; 00000072H
	DB	111					; 0000006fH
	DB	112					; 00000070H
	DB	84					; 00000054H
	DB	121					; 00000079H
	DB	112					; 00000070H
	DB	101					; 00000065H
	DB	0
$LN29@GetItemPat:
	DB	115					; 00000073H
	DB	105					; 00000069H
	DB	122					; 0000007aH
	DB	101					; 00000065H
	DB	0
$LN28@GetItemPat:
	DB	112					; 00000070H
	DB	0
$LN27@GetItemPat:
	DB	115					; 00000073H
	DB	0
_TEXT	ENDS
text$x	SEGMENT
__unwindfunclet$?GetItemPathToParent@CArc@@ABEJIIAAV?$CObjectVector@VUString@@@@@Z$0:
	lea	ecx, DWORD PTR _s$[ebp]
	jmp	??1UString@@QAE@XZ			; UString::~UString
__unwindfunclet$?GetItemPathToParent@CArc@@ABEJIIAAV?$CObjectVector@VUString@@@@@Z$1:
	lea	ecx, DWORD PTR _prop$73293[ebp]
	jmp	??1CPropVariant@NCOM@NWindows@@QAE@XZ	; NWindows::NCOM::CPropVariant::~CPropVariant
__unwindfunclet$?GetItemPathToParent@CArc@@ABEJIIAAV?$CObjectVector@VUString@@@@@Z$2:
	lea	ecx, DWORD PTR $T77487[ebp]
	jmp	??1UString@@QAE@XZ			; UString::~UString
__ehhandler$?GetItemPathToParent@CArc@@ABEJIIAAV?$CObjectVector@VUString@@@@@Z:
	mov	edx, DWORD PTR [esp+8]
	lea	eax, DWORD PTR [edx+12]
	mov	ecx, DWORD PTR [edx-196]
	xor	ecx, eax
	call	@__security_check_cookie@4
	mov	eax, OFFSET __ehfuncinfo$?GetItemPathToParent@CArc@@ABEJIIAAV?$CObjectVector@VUString@@@@@Z
	jmp	___CxxFrameHandler3
text$x	ENDS
?GetItemPathToParent@CArc@@ABEJIIAAV?$CObjectVector@VUString@@@@@Z ENDP ; CArc::GetItemPathToParent
; Function compile flags: /Odtp /RTCsu
;	COMDAT ?Empty@UString@@QAEXXZ
_TEXT	SEGMENT
_this$ = -4						; size = 4
?Empty@UString@@QAEXXZ PROC				; UString::Empty, COMDAT
; _this$ = ecx
; File c:\workspace\7z1505-src\cpp\common\mystring.h
; Line 474
	push	ebp
	mov	ebp, esp
	push	ecx
	mov	DWORD PTR [ebp-4], -858993460		; ccccccccH
	mov	DWORD PTR _this$[ebp], ecx
	mov	eax, DWORD PTR _this$[ebp]
	mov	DWORD PTR [eax+4], 0
	mov	ecx, DWORD PTR _this$[ebp]
	mov	edx, DWORD PTR [ecx]
	xor	eax, eax
	mov	WORD PTR [edx], ax
	mov	esp, ebp
	pop	ebp
	ret	0
?Empty@UString@@QAEXXZ ENDP				; UString::Empty
; Function compile flags: /Odtp /RTCsu
_TEXT	ENDS
;	COMDAT ?Ptr@UString@@QBEPB_WI@Z
_TEXT	SEGMENT
_this$ = -4						; size = 4
_pos$ = 8						; size = 4
?Ptr@UString@@QBEPB_WI@Z PROC				; UString::Ptr, COMDAT
; _this$ = ecx
; Line 478
	push	ebp
	mov	ebp, esp
	push	ecx
	mov	DWORD PTR [ebp-4], -858993460		; ccccccccH
	mov	DWORD PTR _this$[ebp], ecx
	mov	eax, DWORD PTR _this$[ebp]
	mov	ecx, DWORD PTR [eax]
	mov	edx, DWORD PTR _pos$[ebp]
	lea	eax, DWORD PTR [ecx+edx*2]
	mov	esp, ebp
	pop	ebp
	ret	4
?Ptr@UString@@QBEPB_WI@Z ENDP				; UString::Ptr
; Function compile flags: /Odtp /RTCsu
_TEXT	ENDS
;	COMDAT ?DeleteFrom@UString@@QAEXI@Z
_TEXT	SEGMENT
_this$ = -4						; size = 4
_index$ = 8						; size = 4
?DeleteFrom@UString@@QAEXI@Z PROC			; UString::DeleteFrom, COMDAT
; _this$ = ecx
; Line 604
	push	ebp
	mov	ebp, esp
	push	ecx
	mov	DWORD PTR [ebp-4], -858993460		; ccccccccH
	mov	DWORD PTR _this$[ebp], ecx
; Line 605
	mov	eax, DWORD PTR _this$[ebp]
	mov	ecx, DWORD PTR _index$[ebp]
	cmp	ecx, DWORD PTR [eax+4]
	jae	SHORT $LN2@DeleteFrom
; Line 607
	mov	edx, DWORD PTR _this$[ebp]
	mov	eax, DWORD PTR _index$[ebp]
	mov	DWORD PTR [edx+4], eax
; Line 608
	mov	ecx, DWORD PTR _this$[ebp]
	mov	edx, DWORD PTR [ecx]
	xor	eax, eax
	mov	ecx, DWORD PTR _index$[ebp]
	mov	WORD PTR [edx+ecx*2], ax
$LN2@DeleteFrom:
; Line 610
	mov	esp, ebp
	pop	ebp
	ret	4
?DeleteFrom@UString@@QAEXI@Z ENDP			; UString::DeleteFrom
_TEXT	ENDS
PUBLIC	?GetDefaultItemPath@CArc@@QBEJIAAVUString@@@Z	; CArc::GetDefaultItemPath
PUBLIC	?ReleaseBuf_SetLen@UString@@QAEXI@Z		; UString::ReleaseBuf_SetLen
PUBLIC	?GetBuf@UString@@QAEPA_WI@Z			; UString::GetBuf
PUBLIC	??B?$CMyComPtr@UIArchiveGetRawProps@@@@QBEPAUIArchiveGetRawProps@@XZ ; CMyComPtr<IArchiveGetRawProps>::operator IArchiveGetRawProps *
PUBLIC	?GetItemPath@CArc@@QBEJIAAVUString@@@Z		; CArc::GetItemPath
xdata$x	SEGMENT
__unwindtable$?GetItemPath@CArc@@QBEJIAAVUString@@@Z DD 0ffffffffH
	DD	FLAT:__unwindfunclet$?GetItemPath@CArc@@QBEJIAAVUString@@@Z$0
__ehfuncinfo$?GetItemPath@CArc@@QBEJIAAVUString@@@Z DD 019930522H
	DD	01H
	DD	FLAT:__unwindtable$?GetItemPath@CArc@@QBEJIAAVUString@@@Z
	DD	2 DUP(00H)
	DD	2 DUP(00H)
	DD	00H
	DD	01H
; Function compile flags: /Odtp /RTCsu
xdata$x	ENDS
_TEXT	SEGMENT
tv138 = -112						; size = 4
tv75 = -108						; size = 4
$T77514 = -104						; size = 4
$T77513 = -100						; size = 4
___result__$73355 = -96					; size = 4
_prop$73354 = -88					; size = 16
_c$73346 = -68						; size = 2
_i$73342 = -64						; size = 4
_s$73341 = -60						; size = 4
_len$73340 = -56					; size = 4
_propType$73336 = -48					; size = 4
_size$73335 = -36					; size = 4
_p$73334 = -24						; size = 4
_this$ = -16						; size = 4
__$EHRec$ = -12						; size = 12
_index$ = 8						; size = 4
_result$ = 12						; size = 4
?GetItemPath@CArc@@QBEJIAAVUString@@@Z PROC		; CArc::GetItemPath
; _this$ = ecx
; File c:\workspace\7z1505-src\cpp\7zip\ui\common\openarchive.cpp
; Line 608
	push	ebp
	mov	ebp, esp
	push	-1
	push	__ehhandler$?GetItemPath@CArc@@QBEJIAAVUString@@@Z
	mov	eax, DWORD PTR fs:0
	push	eax
	sub	esp, 100				; 00000064H
	push	esi
	push	edi
	push	ecx
	lea	edi, DWORD PTR [ebp-112]
	mov	ecx, 25					; 00000019H
	mov	eax, -858993460				; ccccccccH
	rep stosd
	pop	ecx
	mov	eax, DWORD PTR ___security_cookie
	xor	eax, ebp
	push	eax
	lea	eax, DWORD PTR __$EHRec$[ebp]
	mov	DWORD PTR fs:0, eax
	mov	DWORD PTR _this$[ebp], ecx
; Line 610
	mov	ecx, DWORD PTR _this$[ebp]
	add	ecx, 8
	call	??B?$CMyComPtr@UIArchiveGetRawProps@@@@QBEPAUIArchiveGetRawProps@@XZ ; CMyComPtr<IArchiveGetRawProps>::operator IArchiveGetRawProps *
	test	eax, eax
	je	$LN14@GetItemPat@2
; Line 615
	mov	eax, DWORD PTR _this$[ebp]
	movzx	ecx, BYTE PTR [eax+217]
	test	ecx, ecx
	jne	$LN14@GetItemPat@2
; Line 618
	mov	ecx, DWORD PTR _this$[ebp]
	add	ecx, 8
	call	??C?$CMyComPtr@UIArchiveGetRawProps@@@@QBEPAUIArchiveGetRawProps@@XZ ; CMyComPtr<IArchiveGetRawProps>::operator->
	mov	DWORD PTR tv75[ebp], eax
	mov	esi, esp
	lea	edx, DWORD PTR _propType$73336[ebp]
	push	edx
	lea	eax, DWORD PTR _size$73335[ebp]
	push	eax
	lea	ecx, DWORD PTR _p$73334[ebp]
	push	ecx
	push	3
	mov	edx, DWORD PTR _index$[ebp]
	push	edx
	mov	eax, DWORD PTR tv75[ebp]
	push	eax
	mov	ecx, DWORD PTR tv75[ebp]
	mov	edx, DWORD PTR [ecx]
	mov	eax, DWORD PTR [edx+16]
	call	eax
	cmp	esi, esp
	call	__RTC_CheckEsp
	test	eax, eax
	jne	$LN14@GetItemPat@2
	cmp	DWORD PTR _propType$73336[ebp], 81	; 00000051H
	jne	$LN14@GetItemPat@2
; Line 620
	mov	ecx, DWORD PTR _size$73335[ebp]
	shr	ecx, 1
	sub	ecx, 1
	mov	DWORD PTR _len$73340[ebp], ecx
; Line 621
	mov	edx, DWORD PTR _len$73340[ebp]
	push	edx
	mov	ecx, DWORD PTR _result$[ebp]
	call	?GetBuf@UString@@QAEPA_WI@Z		; UString::GetBuf
	mov	DWORD PTR _s$73341[ebp], eax
; Line 622
	mov	DWORD PTR _i$73342[ebp], 0
	jmp	SHORT $LN11@GetItemPat@2
$LN10@GetItemPat@2:
	mov	eax, DWORD PTR _i$73342[ebp]
	add	eax, 1
	mov	DWORD PTR _i$73342[ebp], eax
$LN11@GetItemPat@2:
	mov	ecx, DWORD PTR _i$73342[ebp]
	cmp	ecx, DWORD PTR _len$73340[ebp]
	jae	SHORT $LN9@GetItemPat@2
; Line 624
	mov	edx, DWORD PTR _p$73334[ebp]
	mov	ax, WORD PTR [edx]
	mov	WORD PTR _c$73346[ebp], ax
; Line 625
	mov	ecx, DWORD PTR _p$73334[ebp]
	add	ecx, 2
	mov	DWORD PTR _p$73334[ebp], ecx
; Line 627
	movzx	edx, WORD PTR _c$73346[ebp]
	cmp	edx, 47					; 0000002fH
	jne	SHORT $LN8@GetItemPat@2
; Line 628
	mov	eax, 92					; 0000005cH
	mov	WORD PTR _c$73346[ebp], ax
$LN8@GetItemPat@2:
; Line 630
	mov	ecx, DWORD PTR _s$73341[ebp]
	mov	dx, WORD PTR _c$73346[ebp]
	mov	WORD PTR [ecx], dx
	mov	eax, DWORD PTR _s$73341[ebp]
	add	eax, 2
	mov	DWORD PTR _s$73341[ebp], eax
; Line 631
	jmp	SHORT $LN10@GetItemPat@2
$LN9@GetItemPat@2:
; Line 632
	xor	ecx, ecx
	mov	edx, DWORD PTR _s$73341[ebp]
	mov	WORD PTR [edx], cx
; Line 633
	mov	eax, DWORD PTR _len$73340[ebp]
	push	eax
	mov	ecx, DWORD PTR _result$[ebp]
	call	?ReleaseBuf_SetLen@UString@@QAEXI@Z	; UString::ReleaseBuf_SetLen
; Line 634
	cmp	DWORD PTR _len$73340[ebp], 0
	je	SHORT $LN14@GetItemPat@2
; Line 635
	xor	eax, eax
	jmp	$LN15@GetItemPat@2
$LN14@GetItemPat@2:
; Line 709
	lea	ecx, DWORD PTR _prop$73354[ebp]
	call	??0CPropVariant@NCOM@NWindows@@QAE@XZ	; NWindows::NCOM::CPropVariant::CPropVariant
	mov	DWORD PTR __$EHRec$[ebp+8], 0
; Line 710
	mov	ecx, DWORD PTR _this$[ebp]
	call	??C?$CMyComPtr@UIInArchive@@@@QBEPAUIInArchive@@XZ ; CMyComPtr<IInArchive>::operator->
	mov	DWORD PTR tv138[ebp], eax
	mov	esi, esp
	lea	ecx, DWORD PTR _prop$73354[ebp]
	push	ecx
	push	3
	mov	edx, DWORD PTR _index$[ebp]
	push	edx
	mov	eax, DWORD PTR tv138[ebp]
	push	eax
	mov	ecx, DWORD PTR tv138[ebp]
	mov	edx, DWORD PTR [ecx]
	mov	eax, DWORD PTR [edx+24]
	call	eax
	cmp	esi, esp
	call	__RTC_CheckEsp
	mov	DWORD PTR ___result__$73355[ebp], eax
	cmp	DWORD PTR ___result__$73355[ebp], 0
	je	SHORT $LN6@GetItemPat@2
	mov	ecx, DWORD PTR ___result__$73355[ebp]
	mov	DWORD PTR $T77513[ebp], ecx
	mov	DWORD PTR __$EHRec$[ebp+8], -1
	lea	ecx, DWORD PTR _prop$73354[ebp]
	call	??1CPropVariant@NCOM@NWindows@@QAE@XZ	; NWindows::NCOM::CPropVariant::~CPropVariant
	mov	eax, DWORD PTR $T77513[ebp]
	jmp	SHORT $LN15@GetItemPat@2
$LN6@GetItemPat@2:
; Line 711
	movzx	edx, WORD PTR _prop$73354[ebp]
	cmp	edx, 8
	jne	SHORT $LN5@GetItemPat@2
	cmp	DWORD PTR _prop$73354[ebp+8], 0
	je	SHORT $LN5@GetItemPat@2
; Line 712
	mov	eax, DWORD PTR _prop$73354[ebp+8]
	push	eax
	mov	ecx, DWORD PTR _result$[ebp]
	call	?SetFromBstr@UString@@QAEXPA_W@Z	; UString::SetFromBstr
	jmp	SHORT $LN4@GetItemPat@2
$LN5@GetItemPat@2:
; Line 713
	movzx	ecx, WORD PTR _prop$73354[ebp]
	test	ecx, ecx
	jne	SHORT $LN3@GetItemPat@2
; Line 714
	mov	ecx, DWORD PTR _result$[ebp]
	call	?Empty@UString@@QAEXXZ			; UString::Empty
; Line 715
	jmp	SHORT $LN4@GetItemPat@2
$LN3@GetItemPat@2:
; Line 716
	mov	DWORD PTR $T77514[ebp], -2147467259	; 80004005H
	mov	DWORD PTR __$EHRec$[ebp+8], -1
	lea	ecx, DWORD PTR _prop$73354[ebp]
	call	??1CPropVariant@NCOM@NWindows@@QAE@XZ	; NWindows::NCOM::CPropVariant::~CPropVariant
	mov	eax, DWORD PTR $T77514[ebp]
	jmp	SHORT $LN15@GetItemPat@2
$LN4@GetItemPat@2:
; Line 717
	mov	DWORD PTR __$EHRec$[ebp+8], -1
	lea	ecx, DWORD PTR _prop$73354[ebp]
	call	??1CPropVariant@NCOM@NWindows@@QAE@XZ	; NWindows::NCOM::CPropVariant::~CPropVariant
; Line 719
	mov	ecx, DWORD PTR _result$[ebp]
	call	?IsEmpty@UString@@QBE_NXZ		; UString::IsEmpty
	movzx	edx, al
	test	edx, edx
	je	SHORT $LN1@GetItemPat@2
; Line 720
	mov	eax, DWORD PTR _result$[ebp]
	push	eax
	mov	ecx, DWORD PTR _index$[ebp]
	push	ecx
	mov	ecx, DWORD PTR _this$[ebp]
	call	?GetDefaultItemPath@CArc@@QBEJIAAVUString@@@Z ; CArc::GetDefaultItemPath
	jmp	SHORT $LN15@GetItemPat@2
$LN1@GetItemPat@2:
; Line 721
	xor	eax, eax
$LN15@GetItemPat@2:
; Line 722
	push	edx
	mov	ecx, ebp
	push	eax
	lea	edx, DWORD PTR $LN24@GetItemPat@2
	call	@_RTC_CheckStackVars@8
	pop	eax
	pop	edx
	mov	ecx, DWORD PTR __$EHRec$[ebp]
	mov	DWORD PTR fs:0, ecx
	pop	ecx
	pop	edi
	pop	esi
	add	esp, 112				; 00000070H
	cmp	ebp, esp
	call	__RTC_CheckEsp
	mov	esp, ebp
	pop	ebp
	ret	8
$LN24@GetItemPat@2:
	DD	4
	DD	$LN23@GetItemPat@2
$LN23@GetItemPat@2:
	DD	-24					; ffffffe8H
	DD	4
	DD	$LN18@GetItemPat@2
	DD	-36					; ffffffdcH
	DD	4
	DD	$LN19@GetItemPat@2
	DD	-48					; ffffffd0H
	DD	4
	DD	$LN20@GetItemPat@2
	DD	-88					; ffffffa8H
	DD	16					; 00000010H
	DD	$LN21@GetItemPat@2
$LN21@GetItemPat@2:
	DB	112					; 00000070H
	DB	114					; 00000072H
	DB	111					; 0000006fH
	DB	112					; 00000070H
	DB	0
$LN20@GetItemPat@2:
	DB	112					; 00000070H
	DB	114					; 00000072H
	DB	111					; 0000006fH
	DB	112					; 00000070H
	DB	84					; 00000054H
	DB	121					; 00000079H
	DB	112					; 00000070H
	DB	101					; 00000065H
	DB	0
$LN19@GetItemPat@2:
	DB	115					; 00000073H
	DB	105					; 00000069H
	DB	122					; 0000007aH
	DB	101					; 00000065H
	DB	0
$LN18@GetItemPat@2:
	DB	112					; 00000070H
	DB	0
_TEXT	ENDS
text$x	SEGMENT
__unwindfunclet$?GetItemPath@CArc@@QBEJIAAVUString@@@Z$0:
	lea	ecx, DWORD PTR _prop$73354[ebp]
	jmp	??1CPropVariant@NCOM@NWindows@@QAE@XZ	; NWindows::NCOM::CPropVariant::~CPropVariant
__ehhandler$?GetItemPath@CArc@@QBEJIAAVUString@@@Z:
	mov	edx, DWORD PTR [esp+8]
	lea	eax, DWORD PTR [edx+12]
	mov	ecx, DWORD PTR [edx-112]
	xor	ecx, eax
	call	@__security_check_cookie@4
	mov	eax, OFFSET __ehfuncinfo$?GetItemPath@CArc@@QBEJIAAVUString@@@Z
	jmp	___CxxFrameHandler3
text$x	ENDS
?GetItemPath@CArc@@QBEJIAAVUString@@@Z ENDP		; CArc::GetItemPath
EXTRN	?ReAlloc2@UString@@AAEXI@Z:PROC			; UString::ReAlloc2
; Function compile flags: /Odtp /RTCsu
;	COMDAT ?GetBuf@UString@@QAEPA_WI@Z
_TEXT	SEGMENT
_this$ = -4						; size = 4
_minLen$ = 8						; size = 4
?GetBuf@UString@@QAEPA_WI@Z PROC			; UString::GetBuf, COMDAT
; _this$ = ecx
; File c:\workspace\7z1505-src\cpp\common\mystring.h
; Line 485
	push	ebp
	mov	ebp, esp
	push	ecx
	mov	DWORD PTR [ebp-4], -858993460		; ccccccccH
	mov	DWORD PTR _this$[ebp], ecx
; Line 486
	mov	eax, DWORD PTR _this$[ebp]
	mov	ecx, DWORD PTR _minLen$[ebp]
	cmp	ecx, DWORD PTR [eax+8]
	jbe	SHORT $LN1@GetBuf
; Line 487
	mov	edx, DWORD PTR _minLen$[ebp]
	push	edx
	mov	ecx, DWORD PTR _this$[ebp]
	call	?ReAlloc2@UString@@AAEXI@Z		; UString::ReAlloc2
$LN1@GetBuf:
; Line 488
	mov	eax, DWORD PTR _this$[ebp]
	mov	eax, DWORD PTR [eax]
; Line 489
	add	esp, 4
	cmp	ebp, esp
	call	__RTC_CheckEsp
	mov	esp, ebp
	pop	ebp
	ret	4
?GetBuf@UString@@QAEPA_WI@Z ENDP			; UString::GetBuf
; Function compile flags: /Odtp /RTCsu
_TEXT	ENDS
;	COMDAT ?ReleaseBuf_SetLen@UString@@QAEXI@Z
_TEXT	SEGMENT
_this$ = -4						; size = 4
_newLen$ = 8						; size = 4
?ReleaseBuf_SetLen@UString@@QAEXI@Z PROC		; UString::ReleaseBuf_SetLen, COMDAT
; _this$ = ecx
; Line 500
	push	ebp
	mov	ebp, esp
	push	ecx
	mov	DWORD PTR [ebp-4], -858993460		; ccccccccH
	mov	DWORD PTR _this$[ebp], ecx
	mov	eax, DWORD PTR _this$[ebp]
	mov	ecx, DWORD PTR _newLen$[ebp]
	mov	DWORD PTR [eax+4], ecx
	mov	esp, ebp
	pop	ebp
	ret	4
?ReleaseBuf_SetLen@UString@@QAEXI@Z ENDP		; UString::ReleaseBuf_SetLen
_TEXT	ENDS
PUBLIC	??B?$CMyComPtr@UIInArchive@@@@QBEPAUIInArchive@@XZ ; CMyComPtr<IInArchive>::operator IInArchive *
EXTRN	??YUString@@QAEAAV0@PB_W@Z:PROC			; UString::operator+=
EXTRN	??4UString@@QAEAAV0@ABV0@@Z:PROC		; UString::operator=
xdata$x	SEGMENT
__unwindtable$?GetDefaultItemPath@CArc@@QBEJIAAVUString@@@Z DD 0ffffffffH
	DD	FLAT:__unwindfunclet$?GetDefaultItemPath@CArc@@QBEJIAAVUString@@@Z$0
__ehfuncinfo$?GetDefaultItemPath@CArc@@QBEJIAAVUString@@@Z DD 019930522H
	DD	01H
	DD	FLAT:__unwindtable$?GetDefaultItemPath@CArc@@QBEJIAAVUString@@@Z
	DD	2 DUP(00H)
	DD	2 DUP(00H)
	DD	00H
	DD	01H
; Function compile flags: /Odtp /RTCsu
xdata$x	ENDS
_TEXT	SEGMENT
tv83 = -72						; size = 4
$T77532 = -68						; size = 4
$T77531 = -64						; size = 4
___result__$73376 = -60					; size = 4
_prop$73375 = -52					; size = 16
___result__$73372 = -32					; size = 4
_isDir$ = -21						; size = 1
_this$ = -16						; size = 4
__$EHRec$ = -12						; size = 12
_index$ = 8						; size = 4
_result$ = 12						; size = 4
?GetDefaultItemPath@CArc@@QBEJIAAVUString@@@Z PROC	; CArc::GetDefaultItemPath
; _this$ = ecx
; File c:\workspace\7z1505-src\cpp\7zip\ui\common\openarchive.cpp
; Line 725
	push	ebp
	mov	ebp, esp
	push	-1
	push	__ehhandler$?GetDefaultItemPath@CArc@@QBEJIAAVUString@@@Z
	mov	eax, DWORD PTR fs:0
	push	eax
	sub	esp, 60					; 0000003cH
	push	esi
	push	edi
	push	ecx
	lea	edi, DWORD PTR [ebp-72]
	mov	ecx, 15					; 0000000fH
	mov	eax, -858993460				; ccccccccH
	rep stosd
	pop	ecx
	mov	eax, DWORD PTR ___security_cookie
	xor	eax, ebp
	push	eax
	lea	eax, DWORD PTR __$EHRec$[ebp]
	mov	DWORD PTR fs:0, eax
	mov	DWORD PTR _this$[ebp], ecx
; Line 726
	mov	ecx, DWORD PTR _result$[ebp]
	call	?Empty@UString@@QAEXXZ			; UString::Empty
; Line 728
	lea	eax, DWORD PTR _isDir$[ebp]
	push	eax
	mov	ecx, DWORD PTR _index$[ebp]
	push	ecx
	mov	ecx, DWORD PTR _this$[ebp]
	call	??B?$CMyComPtr@UIInArchive@@@@QBEPAUIInArchive@@XZ ; CMyComPtr<IInArchive>::operator IInArchive *
	push	eax
	call	?Archive_IsItem_Dir@@YGJPAUIInArchive@@IAA_N@Z ; Archive_IsItem_Dir
	mov	DWORD PTR ___result__$73372[ebp], eax
	cmp	DWORD PTR ___result__$73372[ebp], 0
	je	SHORT $LN6@GetDefault
	mov	eax, DWORD PTR ___result__$73372[ebp]
	jmp	$LN7@GetDefault
$LN6@GetDefault:
; Line 729
	movzx	edx, BYTE PTR _isDir$[ebp]
	test	edx, edx
	jne	$LN5@GetDefault
; Line 731
	mov	eax, DWORD PTR _this$[ebp]
	add	eax, 136				; 00000088H
	push	eax
	mov	ecx, DWORD PTR _result$[ebp]
	call	??4UString@@QAEAAV0@ABV0@@Z		; UString::operator=
; Line 732
	lea	ecx, DWORD PTR _prop$73375[ebp]
	call	??0CPropVariant@NCOM@NWindows@@QAE@XZ	; NWindows::NCOM::CPropVariant::CPropVariant
	mov	DWORD PTR __$EHRec$[ebp+8], 0
; Line 733
	mov	ecx, DWORD PTR _this$[ebp]
	call	??C?$CMyComPtr@UIInArchive@@@@QBEPAUIInArchive@@XZ ; CMyComPtr<IInArchive>::operator->
	mov	DWORD PTR tv83[ebp], eax
	mov	esi, esp
	lea	ecx, DWORD PTR _prop$73375[ebp]
	push	ecx
	push	5
	mov	edx, DWORD PTR _index$[ebp]
	push	edx
	mov	eax, DWORD PTR tv83[ebp]
	push	eax
	mov	ecx, DWORD PTR tv83[ebp]
	mov	edx, DWORD PTR [ecx]
	mov	eax, DWORD PTR [edx+24]
	call	eax
	cmp	esi, esp
	call	__RTC_CheckEsp
	mov	DWORD PTR ___result__$73376[ebp], eax
	cmp	DWORD PTR ___result__$73376[ebp], 0
	je	SHORT $LN4@GetDefault
	mov	ecx, DWORD PTR ___result__$73376[ebp]
	mov	DWORD PTR $T77531[ebp], ecx
	mov	DWORD PTR __$EHRec$[ebp+8], -1
	lea	ecx, DWORD PTR _prop$73375[ebp]
	call	??1CPropVariant@NCOM@NWindows@@QAE@XZ	; NWindows::NCOM::CPropVariant::~CPropVariant
	mov	eax, DWORD PTR $T77531[ebp]
	jmp	SHORT $LN7@GetDefault
$LN4@GetDefault:
; Line 734
	movzx	edx, WORD PTR _prop$73375[ebp]
	cmp	edx, 8
	jne	SHORT $LN3@GetDefault
; Line 736
	push	46					; 0000002eH
	mov	ecx, DWORD PTR _result$[ebp]
	call	??YUString@@QAEAAV0@_W@Z		; UString::operator+=
; Line 737
	mov	eax, DWORD PTR _prop$73375[ebp+8]
	push	eax
	mov	ecx, DWORD PTR _result$[ebp]
	call	??YUString@@QAEAAV0@PB_W@Z		; UString::operator+=
	jmp	SHORT $LN2@GetDefault
$LN3@GetDefault:
; Line 739
	movzx	ecx, WORD PTR _prop$73375[ebp]
	test	ecx, ecx
	je	SHORT $LN2@GetDefault
; Line 740
	mov	DWORD PTR $T77532[ebp], -2147467259	; 80004005H
	mov	DWORD PTR __$EHRec$[ebp+8], -1
	lea	ecx, DWORD PTR _prop$73375[ebp]
	call	??1CPropVariant@NCOM@NWindows@@QAE@XZ	; NWindows::NCOM::CPropVariant::~CPropVariant
	mov	eax, DWORD PTR $T77532[ebp]
	jmp	SHORT $LN7@GetDefault
$LN2@GetDefault:
; Line 741
	mov	DWORD PTR __$EHRec$[ebp+8], -1
	lea	ecx, DWORD PTR _prop$73375[ebp]
	call	??1CPropVariant@NCOM@NWindows@@QAE@XZ	; NWindows::NCOM::CPropVariant::~CPropVariant
$LN5@GetDefault:
; Line 742
	xor	eax, eax
$LN7@GetDefault:
; Line 743
	push	edx
	mov	ecx, ebp
	push	eax
	lea	edx, DWORD PTR $LN14@GetDefault
	call	@_RTC_CheckStackVars@8
	pop	eax
	pop	edx
	mov	ecx, DWORD PTR __$EHRec$[ebp]
	mov	DWORD PTR fs:0, ecx
	pop	ecx
	pop	edi
	pop	esi
	add	esp, 72					; 00000048H
	cmp	ebp, esp
	call	__RTC_CheckEsp
	mov	esp, ebp
	pop	ebp
	ret	8
$LN14@GetDefault:
	DD	2
	DD	$LN13@GetDefault
$LN13@GetDefault:
	DD	-21					; ffffffebH
	DD	1
	DD	$LN10@GetDefault
	DD	-52					; ffffffccH
	DD	16					; 00000010H
	DD	$LN11@GetDefault
$LN11@GetDefault:
	DB	112					; 00000070H
	DB	114					; 00000072H
	DB	111					; 0000006fH
	DB	112					; 00000070H
	DB	0
$LN10@GetDefault:
	DB	105					; 00000069H
	DB	115					; 00000073H
	DB	68					; 00000044H
	DB	105					; 00000069H
	DB	114					; 00000072H
	DB	0
_TEXT	ENDS
text$x	SEGMENT
__unwindfunclet$?GetDefaultItemPath@CArc@@QBEJIAAVUString@@@Z$0:
	lea	ecx, DWORD PTR _prop$73375[ebp]
	jmp	??1CPropVariant@NCOM@NWindows@@QAE@XZ	; NWindows::NCOM::CPropVariant::~CPropVariant
__ehhandler$?GetDefaultItemPath@CArc@@QBEJIAAVUString@@@Z:
	mov	edx, DWORD PTR [esp+8]
	lea	eax, DWORD PTR [edx+12]
	mov	ecx, DWORD PTR [edx-72]
	xor	ecx, eax
	call	@__security_check_cookie@4
	mov	eax, OFFSET __ehfuncinfo$?GetDefaultItemPath@CArc@@QBEJIAAVUString@@@Z
	jmp	___CxxFrameHandler3
text$x	ENDS
?GetDefaultItemPath@CArc@@QBEJIAAVUString@@@Z ENDP	; CArc::GetDefaultItemPath
PUBLIC	?GetItemPath2@CArc@@QBEJIAAVUString@@@Z		; CArc::GetItemPath2
EXTRN	?Insert@UString@@QAEXIPB_W@Z:PROC		; UString::Insert
; Function compile flags: /Odtp /RTCsu
_TEXT	SEGMENT
___result__$73394 = -24					; size = 4
_isDeleted$73393 = -13					; size = 1
___result__$73390 = -8					; size = 4
_this$ = -4						; size = 4
_index$ = 8						; size = 4
_result$ = 12						; size = 4
?GetItemPath2@CArc@@QBEJIAAVUString@@@Z PROC		; CArc::GetItemPath2
; _this$ = ecx
; Line 746
	push	ebp
	mov	ebp, esp
	sub	esp, 24					; 00000018H
	mov	eax, -858993460				; ccccccccH
	mov	DWORD PTR [ebp-24], eax
	mov	DWORD PTR [ebp-20], eax
	mov	DWORD PTR [ebp-16], eax
	mov	DWORD PTR [ebp-12], eax
	mov	DWORD PTR [ebp-8], eax
	mov	DWORD PTR [ebp-4], eax
	mov	DWORD PTR _this$[ebp], ecx
; Line 747
	mov	eax, DWORD PTR _result$[ebp]
	push	eax
	mov	ecx, DWORD PTR _index$[ebp]
	push	ecx
	mov	ecx, DWORD PTR _this$[ebp]
	call	?GetItemPath@CArc@@QBEJIAAVUString@@@Z	; CArc::GetItemPath
	mov	DWORD PTR ___result__$73390[ebp], eax
	cmp	DWORD PTR ___result__$73390[ebp], 0
	je	SHORT $LN4@GetItemPat@3
	mov	eax, DWORD PTR ___result__$73390[ebp]
	jmp	SHORT $LN5@GetItemPat@3
$LN4@GetItemPat@3:
; Line 748
	mov	edx, DWORD PTR _this$[ebp]
	movzx	eax, BYTE PTR [edx+219]
	test	eax, eax
	je	SHORT $LN3@GetItemPat@3
; Line 750
	mov	BYTE PTR _isDeleted$73393[ebp], 0
; Line 751
	lea	ecx, DWORD PTR _isDeleted$73393[ebp]
	push	ecx
	mov	edx, DWORD PTR _index$[ebp]
	push	edx
	mov	ecx, DWORD PTR _this$[ebp]
	call	??B?$CMyComPtr@UIInArchive@@@@QBEPAUIInArchive@@XZ ; CMyComPtr<IInArchive>::operator IInArchive *
	push	eax
	call	?Archive_IsItem_Deleted@@YGJPAUIInArchive@@IAA_N@Z ; Archive_IsItem_Deleted
	mov	DWORD PTR ___result__$73394[ebp], eax
	cmp	DWORD PTR ___result__$73394[ebp], 0
	je	SHORT $LN2@GetItemPat@3
	mov	eax, DWORD PTR ___result__$73394[ebp]
	jmp	SHORT $LN5@GetItemPat@3
$LN2@GetItemPat@3:
; Line 752
	movzx	eax, BYTE PTR _isDeleted$73393[ebp]
	test	eax, eax
	je	SHORT $LN3@GetItemPat@3
; Line 753
	push	OFFSET $SG73397
	push	0
	mov	ecx, DWORD PTR _result$[ebp]
	call	?Insert@UString@@QAEXIPB_W@Z		; UString::Insert
$LN3@GetItemPat@3:
; Line 755
	xor	eax, eax
$LN5@GetItemPat@3:
; Line 756
	push	edx
	mov	ecx, ebp
	push	eax
	lea	edx, DWORD PTR $LN9@GetItemPat@3
	call	@_RTC_CheckStackVars@8
	pop	eax
	pop	edx
	add	esp, 24					; 00000018H
	cmp	ebp, esp
	call	__RTC_CheckEsp
	mov	esp, ebp
	pop	ebp
	ret	8
	npad	2
$LN9@GetItemPat@3:
	DD	1
	DD	$LN8@GetItemPat@3
$LN8@GetItemPat@3:
	DD	-13					; fffffff3H
	DD	1
	DD	$LN7@GetItemPat@3
$LN7@GetItemPat@3:
	DB	105					; 00000069H
	DB	115					; 00000073H
	DB	68					; 00000044H
	DB	101					; 00000065H
	DB	108					; 0000006cH
	DB	101					; 00000065H
	DB	116					; 00000074H
	DB	101					; 00000065H
	DB	100					; 00000064H
	DB	0
?GetItemPath2@CArc@@QBEJIAAVUString@@@Z ENDP		; CArc::GetItemPath2
_TEXT	ENDS
PUBLIC	?FindAltStreamColon_in_Path@@YGHPB_W@Z		; FindAltStreamColon_in_Path
; Function compile flags: /Odtp /RTCsu
_TEXT	SEGMENT
_c$73407 = -12						; size = 2
_colonPos$ = -8						; size = 4
_i$ = -4						; size = 4
_path$ = 8						; size = 4
?FindAltStreamColon_in_Path@@YGHPB_W@Z PROC		; FindAltStreamColon_in_Path
; Line 761
	push	ebp
	mov	ebp, esp
	sub	esp, 12					; 0000000cH
	mov	DWORD PTR [ebp-12], -858993460		; ccccccccH
	mov	DWORD PTR [ebp-8], -858993460		; ccccccccH
	mov	DWORD PTR [ebp-4], -858993460		; ccccccccH
; Line 762
	mov	DWORD PTR _i$[ebp], 0
; Line 763
	mov	DWORD PTR _colonPos$[ebp], -1
	jmp	SHORT $LN7@FindAltStr
$LN6@FindAltStr:
; Line 764
	mov	eax, DWORD PTR _i$[ebp]
	add	eax, 1
	mov	DWORD PTR _i$[ebp], eax
$LN7@FindAltStr:
; Line 766
	mov	ecx, DWORD PTR _i$[ebp]
	mov	edx, DWORD PTR _path$[ebp]
	mov	ax, WORD PTR [edx+ecx*2]
	mov	WORD PTR _c$73407[ebp], ax
; Line 767
	movzx	ecx, WORD PTR _c$73407[ebp]
	test	ecx, ecx
	jne	SHORT $LN4@FindAltStr
; Line 768
	mov	eax, DWORD PTR _colonPos$[ebp]
	jmp	SHORT $LN8@FindAltStr
$LN4@FindAltStr:
; Line 769
	movzx	edx, WORD PTR _c$73407[ebp]
	cmp	edx, 58					; 0000003aH
	jne	SHORT $LN3@FindAltStr
; Line 771
	cmp	DWORD PTR _colonPos$[ebp], 0
	jge	SHORT $LN2@FindAltStr
; Line 772
	mov	eax, DWORD PTR _i$[ebp]
	mov	DWORD PTR _colonPos$[ebp], eax
$LN2@FindAltStr:
; Line 773
	jmp	SHORT $LN6@FindAltStr
$LN3@FindAltStr:
; Line 775
	movzx	ecx, WORD PTR _c$73407[ebp]
	cmp	ecx, 92					; 0000005cH
	jne	SHORT $LN1@FindAltStr
; Line 776
	mov	DWORD PTR _colonPos$[ebp], -1
$LN1@FindAltStr:
; Line 777
	jmp	SHORT $LN6@FindAltStr
$LN8@FindAltStr:
; Line 778
	mov	esp, ebp
	pop	ebp
	ret	4
?FindAltStreamColon_in_Path@@YGHPB_W@Z ENDP		; FindAltStreamColon_in_Path
_TEXT	ENDS
PUBLIC	?IsEmpty@?$CObjectVector@VUString@@@@QBE_NXZ	; CObjectVector<UString>::IsEmpty
PUBLIC	?IsPathSepar@@YG_N_W@Z				; IsPathSepar
PUBLIC	??BUString@@QBEPB_WXZ				; UString::operator wchar_t const *
PUBLIC	?Clear@?$CObjectVector@VUString@@@@QAEXXZ	; CObjectVector<UString>::Clear
PUBLIC	?GetItem@CArc@@QBEJIAAUCReadArcItem@@@Z		; CArc::GetItem
EXTRN	?SplitPathToParts@@YGXABVUString@@AAV?$CObjectVector@VUString@@@@@Z:PROC ; SplitPathToParts
xdata$x	SEGMENT
__unwindtable$?GetItem@CArc@@QBEJIAAUCReadArcItem@@@Z DD 0ffffffffH
	DD	FLAT:__unwindfunclet$?GetItem@CArc@@QBEJIAAUCReadArcItem@@@Z$0
__ehfuncinfo$?GetItem@CArc@@QBEJIAAUCReadArcItem@@@Z DD 019930522H
	DD	01H
	DD	FLAT:__unwindtable$?GetItem@CArc@@QBEJIAAUCReadArcItem@@@Z
	DD	2 DUP(00H)
	DD	2 DUP(00H)
	DD	00H
	DD	01H
; Function compile flags: /Odtp /RTCsu
xdata$x	ENDS
_TEXT	SEGMENT
tv301 = -148						; size = 4
tv251 = -144						; size = 4
tv161 = -140						; size = 4
tv146 = -136						; size = 4
$T77551 = -132						; size = 4
$T77550 = -128						; size = 4
$T77549 = -124						; size = 4
$T77548 = -120						; size = 4
_s$73465 = -116						; size = 4
_colon$73464 = -112					; size = 4
___result__$73460 = -108				; size = 4
_colon$73457 = -104					; size = 4
___result__$73452 = -100				; size = 4
___result__$73449 = -96					; size = 4
___result__$73436 = -92					; size = 4
_prop$73435 = -84					; size = 16
___result__$73432 = -64					; size = 4
_parentIndex$73431 = -56				; size = 4
_parentType$73430 = -44					; size = 4
_needFindAltStream$ = -33				; size = 1
___result__$73425 = -32					; size = 4
_mainIndex$ = -28					; size = 4
___result__$73421 = -24					; size = 4
___result__$73419 = -20					; size = 4
_this$ = -16						; size = 4
__$EHRec$ = -12						; size = 12
_index$ = 8						; size = 4
_item$ = 12						; size = 4
?GetItem@CArc@@QBEJIAAUCReadArcItem@@@Z PROC		; CArc::GetItem
; _this$ = ecx
; Line 783
	push	ebp
	mov	ebp, esp
	push	-1
	push	__ehhandler$?GetItem@CArc@@QBEJIAAUCReadArcItem@@@Z
	mov	eax, DWORD PTR fs:0
	push	eax
	sub	esp, 136				; 00000088H
	push	esi
	push	edi
	push	ecx
	lea	edi, DWORD PTR [ebp-148]
	mov	ecx, 34					; 00000022H
	mov	eax, -858993460				; ccccccccH
	rep stosd
	pop	ecx
	mov	eax, DWORD PTR ___security_cookie
	xor	eax, ebp
	push	eax
	lea	eax, DWORD PTR __$EHRec$[ebp]
	mov	DWORD PTR fs:0, eax
	mov	DWORD PTR _this$[ebp], ecx
; Line 785
	mov	eax, DWORD PTR _item$[ebp]
	mov	BYTE PTR [eax+48], 0
; Line 786
	mov	ecx, DWORD PTR _item$[ebp]
	add	ecx, 36					; 00000024H
	call	?Empty@UString@@QAEXXZ			; UString::Empty
; Line 787
	mov	ecx, DWORD PTR _item$[ebp]
	add	ecx, 24					; 00000018H
	call	?Empty@UString@@QAEXXZ			; UString::Empty
; Line 790
	mov	ecx, DWORD PTR _item$[ebp]
	mov	BYTE PTR [ecx+50], 0
; Line 791
	mov	ecx, DWORD PTR _item$[ebp]
	call	?Empty@UString@@QAEXXZ			; UString::Empty
; Line 792
	mov	edx, DWORD PTR _item$[ebp]
	mov	DWORD PTR [edx+52], -1
; Line 794
	mov	ecx, DWORD PTR _item$[ebp]
	add	ecx, 12					; 0000000cH
	call	?Clear@?$CObjectVector@VUString@@@@QAEXXZ ; CObjectVector<UString>::Clear
; Line 796
	mov	eax, DWORD PTR _item$[ebp]
	add	eax, 50					; 00000032H
	push	eax
	mov	ecx, DWORD PTR _index$[ebp]
	push	ecx
	mov	ecx, DWORD PTR _this$[ebp]
	call	??B?$CMyComPtr@UIInArchive@@@@QBEPAUIInArchive@@XZ ; CMyComPtr<IInArchive>::operator IInArchive *
	push	eax
	call	?Archive_IsItem_Dir@@YGJPAUIInArchive@@IAA_N@Z ; Archive_IsItem_Dir
	mov	DWORD PTR ___result__$73419[ebp], eax
	cmp	DWORD PTR ___result__$73419[ebp], 0
	je	SHORT $LN27@GetItem
	mov	eax, DWORD PTR ___result__$73419[ebp]
	jmp	$LN28@GetItem
$LN27@GetItem:
; Line 797
	mov	edx, DWORD PTR _item$[ebp]
	mov	eax, DWORD PTR _item$[ebp]
	mov	cl, BYTE PTR [eax+50]
	mov	BYTE PTR [edx+51], cl
; Line 799
	mov	edx, DWORD PTR _item$[ebp]
	push	edx
	mov	eax, DWORD PTR _index$[ebp]
	push	eax
	mov	ecx, DWORD PTR _this$[ebp]
	call	?GetItemPath2@CArc@@QBEJIAAVUString@@@Z	; CArc::GetItemPath2
	mov	DWORD PTR ___result__$73421[ebp], eax
	cmp	DWORD PTR ___result__$73421[ebp], 0
	je	SHORT $LN26@GetItem
	mov	eax, DWORD PTR ___result__$73421[ebp]
	jmp	$LN28@GetItem
$LN26@GetItem:
; Line 802
	mov	ecx, DWORD PTR _index$[ebp]
	mov	DWORD PTR _mainIndex$[ebp], ecx
; Line 807
	mov	edx, DWORD PTR _item$[ebp]
	push	edx
	mov	ecx, DWORD PTR _item$[ebp]
	add	ecx, 24					; 00000018H
	call	??4UString@@QAEAAV0@ABV0@@Z		; UString::operator=
; Line 808
	mov	eax, DWORD PTR _this$[ebp]
	movzx	ecx, BYTE PTR [eax+220]
	test	ecx, ecx
	je	SHORT $LN25@GetItem
; Line 810
	mov	edx, DWORD PTR _item$[ebp]
	add	edx, 48					; 00000030H
	push	edx
	mov	eax, DWORD PTR _index$[ebp]
	push	eax
	mov	ecx, DWORD PTR _this$[ebp]
	call	??B?$CMyComPtr@UIInArchive@@@@QBEPAUIInArchive@@XZ ; CMyComPtr<IInArchive>::operator IInArchive *
	push	eax
	call	?Archive_IsItem_AltStream@@YGJPAUIInArchive@@IAA_N@Z ; Archive_IsItem_AltStream
	mov	DWORD PTR ___result__$73425[ebp], eax
	cmp	DWORD PTR ___result__$73425[ebp], 0
	je	SHORT $LN25@GetItem
	mov	eax, DWORD PTR ___result__$73425[ebp]
	jmp	$LN28@GetItem
$LN25@GetItem:
; Line 813
	mov	BYTE PTR _needFindAltStream$[ebp], 0
; Line 815
	mov	ecx, DWORD PTR _item$[ebp]
	movzx	edx, BYTE PTR [ecx+48]
	test	edx, edx
	je	$LN23@GetItem
; Line 817
	mov	BYTE PTR _needFindAltStream$[ebp], 1
; Line 818
	mov	ecx, DWORD PTR _this$[ebp]
	add	ecx, 8
	call	??B?$CMyComPtr@UIArchiveGetRawProps@@@@QBEPAUIArchiveGetRawProps@@XZ ; CMyComPtr<IArchiveGetRawProps>::operator IArchiveGetRawProps *
	test	eax, eax
	je	$LN23@GetItem
; Line 820
	mov	DWORD PTR _parentType$73430[ebp], 0
; Line 822
	mov	ecx, DWORD PTR _this$[ebp]
	add	ecx, 8
	call	??C?$CMyComPtr@UIArchiveGetRawProps@@@@QBEPAUIArchiveGetRawProps@@XZ ; CMyComPtr<IArchiveGetRawProps>::operator->
	mov	DWORD PTR tv146[ebp], eax
	mov	esi, esp
	lea	eax, DWORD PTR _parentType$73430[ebp]
	push	eax
	lea	ecx, DWORD PTR _parentIndex$73431[ebp]
	push	ecx
	mov	edx, DWORD PTR _index$[ebp]
	push	edx
	mov	eax, DWORD PTR tv146[ebp]
	push	eax
	mov	ecx, DWORD PTR tv146[ebp]
	mov	edx, DWORD PTR [ecx]
	mov	eax, DWORD PTR [edx+12]
	call	eax
	cmp	esi, esp
	call	__RTC_CheckEsp
	mov	DWORD PTR ___result__$73432[ebp], eax
	cmp	DWORD PTR ___result__$73432[ebp], 0
	je	SHORT $LN21@GetItem
	mov	eax, DWORD PTR ___result__$73432[ebp]
	jmp	$LN28@GetItem
$LN21@GetItem:
; Line 823
	cmp	DWORD PTR _parentType$73430[ebp], 1
	jne	$LN23@GetItem
; Line 825
	lea	ecx, DWORD PTR _prop$73435[ebp]
	call	??0CPropVariant@NCOM@NWindows@@QAE@XZ	; NWindows::NCOM::CPropVariant::CPropVariant
	mov	DWORD PTR __$EHRec$[ebp+8], 0
; Line 826
	mov	ecx, DWORD PTR _this$[ebp]
	call	??C?$CMyComPtr@UIInArchive@@@@QBEPAUIInArchive@@XZ ; CMyComPtr<IInArchive>::operator->
	mov	DWORD PTR tv161[ebp], eax
	mov	esi, esp
	lea	ecx, DWORD PTR _prop$73435[ebp]
	push	ecx
	push	4
	mov	edx, DWORD PTR _index$[ebp]
	push	edx
	mov	eax, DWORD PTR tv161[ebp]
	push	eax
	mov	ecx, DWORD PTR tv161[ebp]
	mov	edx, DWORD PTR [ecx]
	mov	eax, DWORD PTR [edx+24]
	call	eax
	cmp	esi, esp
	call	__RTC_CheckEsp
	mov	DWORD PTR ___result__$73436[ebp], eax
	cmp	DWORD PTR ___result__$73436[ebp], 0
	je	SHORT $LN19@GetItem
	mov	ecx, DWORD PTR ___result__$73436[ebp]
	mov	DWORD PTR $T77548[ebp], ecx
	mov	DWORD PTR __$EHRec$[ebp+8], -1
	lea	ecx, DWORD PTR _prop$73435[ebp]
	call	??1CPropVariant@NCOM@NWindows@@QAE@XZ	; NWindows::NCOM::CPropVariant::~CPropVariant
	mov	eax, DWORD PTR $T77548[ebp]
	jmp	$LN28@GetItem
$LN19@GetItem:
; Line 827
	movzx	edx, WORD PTR _prop$73435[ebp]
	cmp	edx, 8
	jne	SHORT $LN18@GetItem
	cmp	DWORD PTR _prop$73435[ebp+8], 0
	je	SHORT $LN18@GetItem
; Line 828
	mov	eax, DWORD PTR _prop$73435[ebp+8]
	push	eax
	mov	ecx, DWORD PTR _item$[ebp]
	add	ecx, 36					; 00000024H
	call	?SetFromBstr@UString@@QAEXPA_W@Z	; UString::SetFromBstr
	jmp	SHORT $LN17@GetItem
$LN18@GetItem:
; Line 829
	movzx	ecx, WORD PTR _prop$73435[ebp]
	test	ecx, ecx
	je	SHORT $LN17@GetItem
; Line 830
	mov	DWORD PTR $T77549[ebp], -2147467259	; 80004005H
	mov	DWORD PTR __$EHRec$[ebp+8], -1
	lea	ecx, DWORD PTR _prop$73435[ebp]
	call	??1CPropVariant@NCOM@NWindows@@QAE@XZ	; NWindows::NCOM::CPropVariant::~CPropVariant
	mov	eax, DWORD PTR $T77549[ebp]
	jmp	$LN28@GetItem
$LN17@GetItem:
; Line 840
	mov	BYTE PTR _needFindAltStream$[ebp], 0
; Line 841
	mov	edx, DWORD PTR _item$[ebp]
	mov	eax, DWORD PTR _parentIndex$73431[ebp]
	mov	DWORD PTR [edx+52], eax
; Line 842
	mov	ecx, DWORD PTR _parentIndex$73431[ebp]
	mov	DWORD PTR _mainIndex$[ebp], ecx
; Line 844
	cmp	DWORD PTR _parentIndex$73431[ebp], -1
	jne	SHORT $LN14@GetItem
; Line 846
	mov	ecx, DWORD PTR _item$[ebp]
	add	ecx, 24					; 00000018H
	call	?Empty@UString@@QAEXXZ			; UString::Empty
; Line 847
	mov	edx, DWORD PTR _item$[ebp]
	mov	BYTE PTR [edx+51], 1
; Line 849
	jmp	SHORT $LN13@GetItem
$LN14@GetItem:
; Line 851
	mov	eax, DWORD PTR _item$[ebp]
	add	eax, 24					; 00000018H
	push	eax
	mov	ecx, DWORD PTR _parentIndex$73431[ebp]
	push	ecx
	mov	ecx, DWORD PTR _this$[ebp]
	call	?GetItemPath2@CArc@@QBEJIAAVUString@@@Z	; CArc::GetItemPath2
	mov	DWORD PTR ___result__$73449[ebp], eax
	cmp	DWORD PTR ___result__$73449[ebp], 0
	je	SHORT $LN12@GetItem
	mov	edx, DWORD PTR ___result__$73449[ebp]
	mov	DWORD PTR $T77550[ebp], edx
	mov	DWORD PTR __$EHRec$[ebp+8], -1
	lea	ecx, DWORD PTR _prop$73435[ebp]
	call	??1CPropVariant@NCOM@NWindows@@QAE@XZ	; NWindows::NCOM::CPropVariant::~CPropVariant
	mov	eax, DWORD PTR $T77550[ebp]
	jmp	$LN28@GetItem
$LN12@GetItem:
; Line 852
	mov	eax, DWORD PTR _item$[ebp]
	add	eax, 51					; 00000033H
	push	eax
	mov	ecx, DWORD PTR _parentIndex$73431[ebp]
	push	ecx
	mov	ecx, DWORD PTR _this$[ebp]
	call	??B?$CMyComPtr@UIInArchive@@@@QBEPAUIInArchive@@XZ ; CMyComPtr<IInArchive>::operator IInArchive *
	push	eax
	call	?Archive_IsItem_Dir@@YGJPAUIInArchive@@IAA_N@Z ; Archive_IsItem_Dir
	mov	DWORD PTR ___result__$73452[ebp], eax
	cmp	DWORD PTR ___result__$73452[ebp], 0
	je	SHORT $LN13@GetItem
	mov	edx, DWORD PTR ___result__$73452[ebp]
	mov	DWORD PTR $T77551[ebp], edx
	mov	DWORD PTR __$EHRec$[ebp+8], -1
	lea	ecx, DWORD PTR _prop$73435[ebp]
	call	??1CPropVariant@NCOM@NWindows@@QAE@XZ	; NWindows::NCOM::CPropVariant::~CPropVariant
	mov	eax, DWORD PTR $T77551[ebp]
	jmp	$LN28@GetItem
$LN13@GetItem:
; Line 854
	mov	DWORD PTR __$EHRec$[ebp+8], -1
	lea	ecx, DWORD PTR _prop$73435[ebp]
	call	??1CPropVariant@NCOM@NWindows@@QAE@XZ	; NWindows::NCOM::CPropVariant::~CPropVariant
$LN23@GetItem:
; Line 858
	mov	eax, DWORD PTR _item$[ebp]
	movzx	ecx, BYTE PTR [eax+49]
	test	ecx, ecx
	jne	SHORT $LN9@GetItem
	movzx	edx, BYTE PTR _needFindAltStream$[ebp]
	test	edx, edx
	je	$LN10@GetItem
$LN9@GetItem:
; Line 862
	mov	ecx, DWORD PTR _item$[ebp]
	call	??BUString@@QBEPB_WXZ			; UString::operator wchar_t const *
	push	eax
	call	?FindAltStreamColon_in_Path@@YGHPB_W@Z	; FindAltStreamColon_in_Path
	mov	DWORD PTR _colon$73457[ebp], eax
; Line 863
	cmp	DWORD PTR _colon$73457[ebp], 0
	jl	SHORT $LN10@GetItem
; Line 865
	mov	eax, DWORD PTR _colon$73457[ebp]
	push	eax
	mov	ecx, DWORD PTR _item$[ebp]
	add	ecx, 24					; 00000018H
	call	?DeleteFrom@UString@@QAEXI@Z		; UString::DeleteFrom
; Line 866
	mov	ecx, DWORD PTR _colon$73457[ebp]
	add	ecx, 1
	push	ecx
	mov	ecx, DWORD PTR _item$[ebp]
	call	?Ptr@UString@@QBEPB_WI@Z		; UString::Ptr
	push	eax
	mov	ecx, DWORD PTR _item$[ebp]
	add	ecx, 36					; 00000024H
	call	??4UString@@QAEAAV0@PB_W@Z		; UString::operator=
; Line 867
	cmp	DWORD PTR _colon$73457[ebp], 0
	je	SHORT $LN30@GetItem
	mov	ecx, DWORD PTR _item$[ebp]
	call	??BUString@@QBEPB_WXZ			; UString::operator wchar_t const *
	mov	edx, DWORD PTR _colon$73457[ebp]
	movzx	eax, WORD PTR [eax+edx*2-2]
	push	eax
	call	?IsPathSepar@@YG_N_W@Z			; IsPathSepar
	movzx	ecx, al
	test	ecx, ecx
	jne	SHORT $LN30@GetItem
	mov	DWORD PTR tv251[ebp], 0
	jmp	SHORT $LN31@GetItem
$LN30@GetItem:
	mov	DWORD PTR tv251[ebp], 1
$LN31@GetItem:
	mov	edx, DWORD PTR _item$[ebp]
	mov	al, BYTE PTR tv251[ebp]
	mov	BYTE PTR [edx+51], al
; Line 868
	mov	ecx, DWORD PTR _item$[ebp]
	mov	BYTE PTR [ecx+48], 1
$LN10@GetItem:
; Line 875
	mov	edx, DWORD PTR _item$[ebp]
	movzx	eax, BYTE PTR [edx+56]
	test	eax, eax
	je	$LN7@GetItem
; Line 877
	mov	ecx, DWORD PTR _item$[ebp]
	add	ecx, 12					; 0000000cH
	push	ecx
	mov	edx, DWORD PTR _item$[ebp]
	mov	eax, DWORD PTR [edx+60]
	push	eax
	mov	ecx, DWORD PTR _mainIndex$[ebp]
	push	ecx
	mov	ecx, DWORD PTR _this$[ebp]
	call	?GetItemPathToParent@CArc@@ABEJIIAAV?$CObjectVector@VUString@@@@@Z ; CArc::GetItemPathToParent
	mov	DWORD PTR ___result__$73460[ebp], eax
	cmp	DWORD PTR ___result__$73460[ebp], 0
	je	SHORT $LN6@GetItem
	mov	eax, DWORD PTR ___result__$73460[ebp]
	jmp	$LN28@GetItem
$LN6@GetItem:
; Line 880
	mov	edx, DWORD PTR _item$[ebp]
	movzx	eax, BYTE PTR [edx+49]
	test	eax, eax
	jne	SHORT $LN4@GetItem
	movzx	ecx, BYTE PTR _needFindAltStream$[ebp]
	test	ecx, ecx
	je	$LN5@GetItem
$LN4@GetItem:
	mov	ecx, DWORD PTR _item$[ebp]
	add	ecx, 12					; 0000000cH
	call	?IsEmpty@?$CObjectVector@VUString@@@@QBE_NXZ ; CObjectVector<UString>::IsEmpty
	movzx	edx, al
	test	edx, edx
	jne	$LN5@GetItem
; Line 884
	mov	ecx, DWORD PTR _item$[ebp]
	add	ecx, 12					; 0000000cH
	call	?Back@?$CObjectVector@VUString@@@@QAEAAVUString@@XZ ; CObjectVector<UString>::Back
	mov	DWORD PTR _s$73465[ebp], eax
; Line 885
	mov	ecx, DWORD PTR _s$73465[ebp]
	call	??BUString@@QBEPB_WXZ			; UString::operator wchar_t const *
	push	eax
	call	?FindAltStreamColon_in_Path@@YGHPB_W@Z	; FindAltStreamColon_in_Path
	mov	DWORD PTR _colon$73464[ebp], eax
; Line 886
	cmp	DWORD PTR _colon$73464[ebp], 0
	jl	SHORT $LN3@GetItem
; Line 888
	mov	eax, DWORD PTR _colon$73464[ebp]
	add	eax, 1
	push	eax
	mov	ecx, DWORD PTR _s$73465[ebp]
	call	?Ptr@UString@@QBEPB_WI@Z		; UString::Ptr
	push	eax
	mov	ecx, DWORD PTR _item$[ebp]
	add	ecx, 36					; 00000024H
	call	??4UString@@QAEAAV0@PB_W@Z		; UString::operator=
; Line 889
	cmp	DWORD PTR _colon$73464[ebp], 0
	je	SHORT $LN32@GetItem
	mov	ecx, DWORD PTR _s$73465[ebp]
	call	??BUString@@QBEPB_WXZ			; UString::operator wchar_t const *
	mov	ecx, DWORD PTR _colon$73464[ebp]
	movzx	edx, WORD PTR [eax+ecx*2-2]
	push	edx
	call	?IsPathSepar@@YG_N_W@Z			; IsPathSepar
	movzx	eax, al
	test	eax, eax
	jne	SHORT $LN32@GetItem
	mov	DWORD PTR tv301[ebp], 0
	jmp	SHORT $LN33@GetItem
$LN32@GetItem:
	mov	DWORD PTR tv301[ebp], 1
$LN33@GetItem:
	mov	ecx, DWORD PTR _item$[ebp]
	mov	dl, BYTE PTR tv301[ebp]
	mov	BYTE PTR [ecx+51], dl
; Line 890
	mov	eax, DWORD PTR _item$[ebp]
	mov	BYTE PTR [eax+48], 1
; Line 891
	mov	ecx, DWORD PTR _colon$73464[ebp]
	push	ecx
	mov	ecx, DWORD PTR _s$73465[ebp]
	call	?DeleteFrom@UString@@QAEXI@Z		; UString::DeleteFrom
$LN3@GetItem:
; Line 894
	cmp	DWORD PTR _colon$73464[ebp], 0
	jne	SHORT $LN5@GetItem
; Line 895
	mov	ecx, DWORD PTR _item$[ebp]
	add	ecx, 12					; 0000000cH
	call	?DeleteBack@?$CObjectVector@VUString@@@@QAEXXZ ; CObjectVector<UString>::DeleteBack
$LN5@GetItem:
; Line 900
	jmp	SHORT $LN1@GetItem
$LN7@GetItem:
; Line 908
	mov	edx, DWORD PTR _item$[ebp]
	add	edx, 12					; 0000000cH
	push	edx
	mov	eax, DWORD PTR _item$[ebp]
	add	eax, 24					; 00000018H
	push	eax
	call	?SplitPathToParts@@YGXABVUString@@AAV?$CObjectVector@VUString@@@@@Z ; SplitPathToParts
$LN1@GetItem:
; Line 910
	xor	eax, eax
$LN28@GetItem:
; Line 911
	push	edx
	mov	ecx, ebp
	push	eax
	lea	edx, DWORD PTR $LN40@GetItem
	call	@_RTC_CheckStackVars@8
	pop	eax
	pop	edx
	mov	ecx, DWORD PTR __$EHRec$[ebp]
	mov	DWORD PTR fs:0, ecx
	pop	ecx
	pop	edi
	pop	esi
	add	esp, 148				; 00000094H
	cmp	ebp, esp
	call	__RTC_CheckEsp
	mov	esp, ebp
	pop	ebp
	ret	8
	npad	2
$LN40@GetItem:
	DD	3
	DD	$LN39@GetItem
$LN39@GetItem:
	DD	-44					; ffffffd4H
	DD	4
	DD	$LN35@GetItem
	DD	-56					; ffffffc8H
	DD	4
	DD	$LN36@GetItem
	DD	-84					; ffffffacH
	DD	16					; 00000010H
	DD	$LN37@GetItem
$LN37@GetItem:
	DB	112					; 00000070H
	DB	114					; 00000072H
	DB	111					; 0000006fH
	DB	112					; 00000070H
	DB	0
$LN36@GetItem:
	DB	112					; 00000070H
	DB	97					; 00000061H
	DB	114					; 00000072H
	DB	101					; 00000065H
	DB	110					; 0000006eH
	DB	116					; 00000074H
	DB	73					; 00000049H
	DB	110					; 0000006eH
	DB	100					; 00000064H
	DB	101					; 00000065H
	DB	120					; 00000078H
	DB	0
$LN35@GetItem:
	DB	112					; 00000070H
	DB	97					; 00000061H
	DB	114					; 00000072H
	DB	101					; 00000065H
	DB	110					; 0000006eH
	DB	116					; 00000074H
	DB	84					; 00000054H
	DB	121					; 00000079H
	DB	112					; 00000070H
	DB	101					; 00000065H
	DB	0
_TEXT	ENDS
text$x	SEGMENT
__unwindfunclet$?GetItem@CArc@@QBEJIAAUCReadArcItem@@@Z$0:
	lea	ecx, DWORD PTR _prop$73435[ebp]
	jmp	??1CPropVariant@NCOM@NWindows@@QAE@XZ	; NWindows::NCOM::CPropVariant::~CPropVariant
__ehhandler$?GetItem@CArc@@QBEJIAAUCReadArcItem@@@Z:
	mov	edx, DWORD PTR [esp+8]
	lea	eax, DWORD PTR [edx+12]
	mov	ecx, DWORD PTR [edx-148]
	xor	ecx, eax
	call	@__security_check_cookie@4
	mov	eax, OFFSET __ehfuncinfo$?GetItem@CArc@@QBEJIAAUCReadArcItem@@@Z
	jmp	___CxxFrameHandler3
text$x	ENDS
?GetItem@CArc@@QBEJIAAUCReadArcItem@@@Z ENDP		; CArc::GetItem
; Function compile flags: /Odtp /RTCsu
;	COMDAT ?IsPathSepar@@YG_N_W@Z
_TEXT	SEGMENT
tv68 = -4						; size = 4
_c$ = 8							; size = 2
?IsPathSepar@@YG_N_W@Z PROC				; IsPathSepar, COMDAT
; File c:\workspace\7z1505-src\cpp\common\mystring.h
; Line 23
	push	ebp
	mov	ebp, esp
	push	ecx
	mov	DWORD PTR [ebp-4], -858993460		; ccccccccH
	movzx	eax, WORD PTR _c$[ebp]
	cmp	eax, 92					; 0000005cH
	je	SHORT $LN3@IsPathSepa
	movzx	ecx, WORD PTR _c$[ebp]
	cmp	ecx, 47					; 0000002fH
	je	SHORT $LN3@IsPathSepa
	mov	DWORD PTR tv68[ebp], 0
	jmp	SHORT $LN4@IsPathSepa
$LN3@IsPathSepa:
	mov	DWORD PTR tv68[ebp], 1
$LN4@IsPathSepa:
	mov	al, BYTE PTR tv68[ebp]
	mov	esp, ebp
	pop	ebp
	ret	4
?IsPathSepar@@YG_N_W@Z ENDP				; IsPathSepar
; Function compile flags: /Odtp /RTCsu
_TEXT	ENDS
;	COMDAT ??BUString@@QBEPB_WXZ
_TEXT	SEGMENT
_this$ = -4						; size = 4
??BUString@@QBEPB_WXZ PROC				; UString::operator wchar_t const *, COMDAT
; _this$ = ecx
; Line 476
	push	ebp
	mov	ebp, esp
	push	ecx
	mov	DWORD PTR [ebp-4], -858993460		; ccccccccH
	mov	DWORD PTR _this$[ebp], ecx
	mov	eax, DWORD PTR _this$[ebp]
	mov	eax, DWORD PTR [eax]
	mov	esp, ebp
	pop	ebp
	ret	0
??BUString@@QBEPB_WXZ ENDP				; UString::operator wchar_t const *
_TEXT	ENDS
PUBLIC	?GetItemSize@CArc@@QBEJIAA_KAA_N@Z		; CArc::GetItemSize
xdata$x	SEGMENT
__unwindtable$?GetItemSize@CArc@@QBEJIAA_KAA_N@Z DD 0ffffffffH
	DD	FLAT:__unwindfunclet$?GetItemSize@CArc@@QBEJIAA_KAA_N@Z$0
__ehfuncinfo$?GetItemSize@CArc@@QBEJIAA_KAA_N@Z DD 019930522H
	DD	01H
	DD	FLAT:__unwindtable$?GetItemSize@CArc@@QBEJIAA_KAA_N@Z
	DD	2 DUP(00H)
	DD	2 DUP(00H)
	DD	00H
	DD	01H
; Function compile flags: /Odtp /RTCsu
xdata$x	ENDS
_TEXT	SEGMENT
tv88 = -68						; size = 4
tv70 = -64						; size = 4
$T77576 = -60						; size = 4
$T77575 = -56						; size = 4
$T77574 = -52						; size = 4
$T77573 = -48						; size = 4
___result__$73505 = -44					; size = 4
_prop$ = -36						; size = 16
_this$ = -16						; size = 4
__$EHRec$ = -12						; size = 12
_index$ = 8						; size = 4
_size$ = 12						; size = 4
_defined$ = 16						; size = 4
?GetItemSize@CArc@@QBEJIAA_KAA_N@Z PROC			; CArc::GetItemSize
; _this$ = ecx
; File c:\workspace\7z1505-src\cpp\7zip\ui\common\openarchive.cpp
; Line 937
	push	ebp
	mov	ebp, esp
	push	-1
	push	__ehhandler$?GetItemSize@CArc@@QBEJIAA_KAA_N@Z
	mov	eax, DWORD PTR fs:0
	push	eax
	sub	esp, 56					; 00000038H
	push	esi
	push	edi
	push	ecx
	lea	edi, DWORD PTR [ebp-68]
	mov	ecx, 14					; 0000000eH
	mov	eax, -858993460				; ccccccccH
	rep stosd
	pop	ecx
	mov	eax, DWORD PTR ___security_cookie
	xor	eax, ebp
	push	eax
	lea	eax, DWORD PTR __$EHRec$[ebp]
	mov	DWORD PTR fs:0, eax
	mov	DWORD PTR _this$[ebp], ecx
; Line 938
	lea	ecx, DWORD PTR _prop$[ebp]
	call	??0CPropVariant@NCOM@NWindows@@QAE@XZ	; NWindows::NCOM::CPropVariant::CPropVariant
	mov	DWORD PTR __$EHRec$[ebp+8], 0
; Line 939
	mov	eax, DWORD PTR _defined$[ebp]
	mov	BYTE PTR [eax], 0
; Line 940
	mov	ecx, DWORD PTR _size$[ebp]
	mov	DWORD PTR [ecx], 0
	mov	DWORD PTR [ecx+4], 0
; Line 941
	mov	ecx, DWORD PTR _this$[ebp]
	call	??C?$CMyComPtr@UIInArchive@@@@QBEPAUIInArchive@@XZ ; CMyComPtr<IInArchive>::operator->
	mov	DWORD PTR tv70[ebp], eax
	mov	esi, esp
	lea	edx, DWORD PTR _prop$[ebp]
	push	edx
	push	7
	mov	eax, DWORD PTR _index$[ebp]
	push	eax
	mov	ecx, DWORD PTR tv70[ebp]
	push	ecx
	mov	edx, DWORD PTR tv70[ebp]
	mov	eax, DWORD PTR [edx]
	mov	ecx, DWORD PTR [eax+24]
	call	ecx
	cmp	esi, esp
	call	__RTC_CheckEsp
	mov	DWORD PTR ___result__$73505[ebp], eax
	cmp	DWORD PTR ___result__$73505[ebp], 0
	je	SHORT $LN9@GetItemSiz
	mov	edx, DWORD PTR ___result__$73505[ebp]
	mov	DWORD PTR $T77573[ebp], edx
	mov	DWORD PTR __$EHRec$[ebp+8], -1
	lea	ecx, DWORD PTR _prop$[ebp]
	call	??1CPropVariant@NCOM@NWindows@@QAE@XZ	; NWindows::NCOM::CPropVariant::~CPropVariant
	mov	eax, DWORD PTR $T77573[ebp]
	jmp	$LN10@GetItemSiz
$LN9@GetItemSiz:
; Line 942
	movzx	eax, WORD PTR _prop$[ebp]
	mov	DWORD PTR tv88[ebp], eax
	cmp	DWORD PTR tv88[ebp], 21			; 00000015H
	ja	SHORT $LN1@GetItemSiz
	mov	ecx, DWORD PTR tv88[ebp]
	movzx	edx, BYTE PTR $LN13@GetItemSiz[ecx]
	jmp	DWORD PTR $LN18@GetItemSiz[edx*4]
$LN6@GetItemSiz:
; Line 944
	movzx	eax, BYTE PTR _prop$[ebp+8]
	cdq
	mov	ecx, DWORD PTR _size$[ebp]
	mov	DWORD PTR [ecx], eax
	mov	DWORD PTR [ecx+4], edx
	jmp	SHORT $LN7@GetItemSiz
$LN5@GetItemSiz:
; Line 945
	movzx	eax, WORD PTR _prop$[ebp+8]
	cdq
	mov	ecx, DWORD PTR _size$[ebp]
	mov	DWORD PTR [ecx], eax
	mov	DWORD PTR [ecx+4], edx
	jmp	SHORT $LN7@GetItemSiz
$LN4@GetItemSiz:
; Line 946
	mov	edx, DWORD PTR _prop$[ebp+8]
	xor	eax, eax
	mov	ecx, DWORD PTR _size$[ebp]
	mov	DWORD PTR [ecx], edx
	mov	DWORD PTR [ecx+4], eax
	jmp	SHORT $LN7@GetItemSiz
$LN3@GetItemSiz:
; Line 947
	mov	edx, DWORD PTR _size$[ebp]
	mov	eax, DWORD PTR _prop$[ebp+8]
	mov	DWORD PTR [edx], eax
	mov	ecx, DWORD PTR _prop$[ebp+12]
	mov	DWORD PTR [edx+4], ecx
	jmp	SHORT $LN7@GetItemSiz
$LN2@GetItemSiz:
; Line 948
	mov	DWORD PTR $T77574[ebp], 0
	mov	DWORD PTR __$EHRec$[ebp+8], -1
	lea	ecx, DWORD PTR _prop$[ebp]
	call	??1CPropVariant@NCOM@NWindows@@QAE@XZ	; NWindows::NCOM::CPropVariant::~CPropVariant
	mov	eax, DWORD PTR $T77574[ebp]
	jmp	SHORT $LN10@GetItemSiz
$LN1@GetItemSiz:
; Line 949
	mov	DWORD PTR $T77575[ebp], -2147467259	; 80004005H
	mov	DWORD PTR __$EHRec$[ebp+8], -1
	lea	ecx, DWORD PTR _prop$[ebp]
	call	??1CPropVariant@NCOM@NWindows@@QAE@XZ	; NWindows::NCOM::CPropVariant::~CPropVariant
	mov	eax, DWORD PTR $T77575[ebp]
	jmp	SHORT $LN10@GetItemSiz
$LN7@GetItemSiz:
; Line 951
	mov	edx, DWORD PTR _defined$[ebp]
	mov	BYTE PTR [edx], 1
; Line 952
	mov	DWORD PTR $T77576[ebp], 0
	mov	DWORD PTR __$EHRec$[ebp+8], -1
	lea	ecx, DWORD PTR _prop$[ebp]
	call	??1CPropVariant@NCOM@NWindows@@QAE@XZ	; NWindows::NCOM::CPropVariant::~CPropVariant
	mov	eax, DWORD PTR $T77576[ebp]
$LN10@GetItemSiz:
; Line 953
	push	edx
	mov	ecx, ebp
	push	eax
	lea	edx, DWORD PTR $LN17@GetItemSiz
	call	@_RTC_CheckStackVars@8
	pop	eax
	pop	edx
	mov	ecx, DWORD PTR __$EHRec$[ebp]
	mov	DWORD PTR fs:0, ecx
	pop	ecx
	pop	edi
	pop	esi
	add	esp, 68					; 00000044H
	cmp	ebp, esp
	call	__RTC_CheckEsp
	mov	esp, ebp
	pop	ebp
	ret	12					; 0000000cH
$LN17@GetItemSiz:
	DD	1
	DD	$LN16@GetItemSiz
$LN16@GetItemSiz:
	DD	-36					; ffffffdcH
	DD	16					; 00000010H
	DD	$LN14@GetItemSiz
$LN14@GetItemSiz:
	DB	112					; 00000070H
	DB	114					; 00000072H
	DB	111					; 0000006fH
	DB	112					; 00000070H
	DB	0
	npad	3
$LN18@GetItemSiz:
	DD	$LN2@GetItemSiz
	DD	$LN6@GetItemSiz
	DD	$LN5@GetItemSiz
	DD	$LN4@GetItemSiz
	DD	$LN3@GetItemSiz
	DD	$LN1@GetItemSiz
$LN13@GetItemSiz:
	DB	0
	DB	5
	DB	5
	DB	5
	DB	5
	DB	5
	DB	5
	DB	5
	DB	5
	DB	5
	DB	5
	DB	5
	DB	5
	DB	5
	DB	5
	DB	5
	DB	5
	DB	1
	DB	2
	DB	3
	DB	5
	DB	4
_TEXT	ENDS
text$x	SEGMENT
__unwindfunclet$?GetItemSize@CArc@@QBEJIAA_KAA_N@Z$0:
	lea	ecx, DWORD PTR _prop$[ebp]
	jmp	??1CPropVariant@NCOM@NWindows@@QAE@XZ	; NWindows::NCOM::CPropVariant::~CPropVariant
__ehhandler$?GetItemSize@CArc@@QBEJIAA_KAA_N@Z:
	mov	edx, DWORD PTR [esp+8]
	lea	eax, DWORD PTR [edx+12]
	mov	ecx, DWORD PTR [edx-68]
	xor	ecx, eax
	call	@__security_check_cookie@4
	mov	eax, OFFSET __ehfuncinfo$?GetItemSize@CArc@@QBEJIAA_KAA_N@Z
	jmp	___CxxFrameHandler3
text$x	ENDS
?GetItemSize@CArc@@QBEJIAA_KAA_N@Z ENDP			; CArc::GetItemSize
PUBLIC	?GetItemMTime@CArc@@QBEJIAAU_FILETIME@@AA_N@Z	; CArc::GetItemMTime
xdata$x	SEGMENT
__unwindtable$?GetItemMTime@CArc@@QBEJIAAU_FILETIME@@AA_N@Z DD 0ffffffffH
	DD	FLAT:__unwindfunclet$?GetItemMTime@CArc@@QBEJIAAU_FILETIME@@AA_N@Z$0
__ehfuncinfo$?GetItemMTime@CArc@@QBEJIAAU_FILETIME@@AA_N@Z DD 019930522H
	DD	01H
	DD	FLAT:__unwindtable$?GetItemMTime@CArc@@QBEJIAAU_FILETIME@@AA_N@Z
	DD	2 DUP(00H)
	DD	2 DUP(00H)
	DD	00H
	DD	01H
; Function compile flags: /Odtp /RTCsu
xdata$x	ENDS
_TEXT	SEGMENT
tv71 = -60						; size = 4
$T77590 = -56						; size = 4
$T77589 = -52						; size = 4
$T77588 = -48						; size = 4
___result__$73532 = -44					; size = 4
_prop$ = -36						; size = 16
_this$ = -16						; size = 4
__$EHRec$ = -12						; size = 12
_index$ = 8						; size = 4
_ft$ = 12						; size = 4
_defined$ = 16						; size = 4
?GetItemMTime@CArc@@QBEJIAAU_FILETIME@@AA_N@Z PROC	; CArc::GetItemMTime
; _this$ = ecx
; Line 956
	push	ebp
	mov	ebp, esp
	push	-1
	push	__ehhandler$?GetItemMTime@CArc@@QBEJIAAU_FILETIME@@AA_N@Z
	mov	eax, DWORD PTR fs:0
	push	eax
	sub	esp, 48					; 00000030H
	push	esi
	push	edi
	push	ecx
	lea	edi, DWORD PTR [ebp-60]
	mov	ecx, 12					; 0000000cH
	mov	eax, -858993460				; ccccccccH
	rep stosd
	pop	ecx
	mov	eax, DWORD PTR ___security_cookie
	xor	eax, ebp
	push	eax
	lea	eax, DWORD PTR __$EHRec$[ebp]
	mov	DWORD PTR fs:0, eax
	mov	DWORD PTR _this$[ebp], ecx
; Line 957
	lea	ecx, DWORD PTR _prop$[ebp]
	call	??0CPropVariant@NCOM@NWindows@@QAE@XZ	; NWindows::NCOM::CPropVariant::CPropVariant
	mov	DWORD PTR __$EHRec$[ebp+8], 0
; Line 958
	mov	eax, DWORD PTR _defined$[ebp]
	mov	BYTE PTR [eax], 0
; Line 959
	mov	ecx, DWORD PTR _ft$[ebp]
	mov	DWORD PTR [ecx], 0
	mov	edx, DWORD PTR _ft$[ebp]
	mov	DWORD PTR [edx+4], 0
; Line 960
	mov	ecx, DWORD PTR _this$[ebp]
	call	??C?$CMyComPtr@UIInArchive@@@@QBEPAUIInArchive@@XZ ; CMyComPtr<IInArchive>::operator->
	mov	DWORD PTR tv71[ebp], eax
	mov	esi, esp
	lea	eax, DWORD PTR _prop$[ebp]
	push	eax
	push	12					; 0000000cH
	mov	ecx, DWORD PTR _index$[ebp]
	push	ecx
	mov	edx, DWORD PTR tv71[ebp]
	push	edx
	mov	eax, DWORD PTR tv71[ebp]
	mov	ecx, DWORD PTR [eax]
	mov	edx, DWORD PTR [ecx+24]
	call	edx
	cmp	esi, esp
	call	__RTC_CheckEsp
	mov	DWORD PTR ___result__$73532[ebp], eax
	cmp	DWORD PTR ___result__$73532[ebp], 0
	je	SHORT $LN6@GetItemMTi
	mov	eax, DWORD PTR ___result__$73532[ebp]
	mov	DWORD PTR $T77588[ebp], eax
	mov	DWORD PTR __$EHRec$[ebp+8], -1
	lea	ecx, DWORD PTR _prop$[ebp]
	call	??1CPropVariant@NCOM@NWindows@@QAE@XZ	; NWindows::NCOM::CPropVariant::~CPropVariant
	mov	eax, DWORD PTR $T77588[ebp]
	jmp	$LN7@GetItemMTi
$LN6@GetItemMTi:
; Line 961
	movzx	ecx, WORD PTR _prop$[ebp]
	cmp	ecx, 64					; 00000040H
	jne	SHORT $LN5@GetItemMTi
; Line 963
	mov	edx, DWORD PTR _ft$[ebp]
	mov	eax, DWORD PTR _prop$[ebp+8]
	mov	DWORD PTR [edx], eax
	mov	ecx, DWORD PTR _prop$[ebp+12]
	mov	DWORD PTR [edx+4], ecx
; Line 964
	mov	edx, DWORD PTR _defined$[ebp]
	mov	BYTE PTR [edx], 1
	jmp	SHORT $LN4@GetItemMTi
$LN5@GetItemMTi:
; Line 966
	movzx	eax, WORD PTR _prop$[ebp]
	test	eax, eax
	je	SHORT $LN3@GetItemMTi
; Line 967
	mov	DWORD PTR $T77589[ebp], -2147467259	; 80004005H
	mov	DWORD PTR __$EHRec$[ebp+8], -1
	lea	ecx, DWORD PTR _prop$[ebp]
	call	??1CPropVariant@NCOM@NWindows@@QAE@XZ	; NWindows::NCOM::CPropVariant::~CPropVariant
	mov	eax, DWORD PTR $T77589[ebp]
	jmp	SHORT $LN7@GetItemMTi
	jmp	SHORT $LN4@GetItemMTi
$LN3@GetItemMTi:
; Line 968
	mov	ecx, DWORD PTR _this$[ebp]
	movzx	edx, BYTE PTR [ecx+164]
	test	edx, edx
	je	SHORT $LN4@GetItemMTi
; Line 970
	mov	eax, DWORD PTR _this$[ebp]
	mov	ecx, DWORD PTR [eax+156]
	mov	edx, DWORD PTR [eax+160]
	mov	eax, DWORD PTR _ft$[ebp]
	mov	DWORD PTR [eax], ecx
	mov	DWORD PTR [eax+4], edx
; Line 971
	mov	ecx, DWORD PTR _defined$[ebp]
	mov	BYTE PTR [ecx], 1
$LN4@GetItemMTi:
; Line 973
	mov	DWORD PTR $T77590[ebp], 0
	mov	DWORD PTR __$EHRec$[ebp+8], -1
	lea	ecx, DWORD PTR _prop$[ebp]
	call	??1CPropVariant@NCOM@NWindows@@QAE@XZ	; NWindows::NCOM::CPropVariant::~CPropVariant
	mov	eax, DWORD PTR $T77590[ebp]
$LN7@GetItemMTi:
; Line 974
	push	edx
	mov	ecx, ebp
	push	eax
	lea	edx, DWORD PTR $LN13@GetItemMTi
	call	@_RTC_CheckStackVars@8
	pop	eax
	pop	edx
	mov	ecx, DWORD PTR __$EHRec$[ebp]
	mov	DWORD PTR fs:0, ecx
	pop	ecx
	pop	edi
	pop	esi
	add	esp, 60					; 0000003cH
	cmp	ebp, esp
	call	__RTC_CheckEsp
	mov	esp, ebp
	pop	ebp
	ret	12					; 0000000cH
	npad	1
$LN13@GetItemMTi:
	DD	1
	DD	$LN12@GetItemMTi
$LN12@GetItemMTi:
	DD	-36					; ffffffdcH
	DD	16					; 00000010H
	DD	$LN10@GetItemMTi
$LN10@GetItemMTi:
	DB	112					; 00000070H
	DB	114					; 00000072H
	DB	111					; 0000006fH
	DB	112					; 00000070H
	DB	0
_TEXT	ENDS
text$x	SEGMENT
__unwindfunclet$?GetItemMTime@CArc@@QBEJIAAU_FILETIME@@AA_N@Z$0:
	lea	ecx, DWORD PTR _prop$[ebp]
	jmp	??1CPropVariant@NCOM@NWindows@@QAE@XZ	; NWindows::NCOM::CPropVariant::~CPropVariant
__ehhandler$?GetItemMTime@CArc@@QBEJIAAU_FILETIME@@AA_N@Z:
	mov	edx, DWORD PTR [esp+8]
	lea	eax, DWORD PTR [edx+12]
	mov	ecx, DWORD PTR [edx-60]
	xor	ecx, eax
	call	@__security_check_cookie@4
	mov	eax, OFFSET __ehfuncinfo$?GetItemMTime@CArc@@QBEJIAAU_FILETIME@@AA_N@Z
	jmp	___CxxFrameHandler3
text$x	ENDS
?GetItemMTime@CArc@@QBEJIAAU_FILETIME@@AA_N@Z ENDP	; CArc::GetItemMTime
PUBLIC	??C?$CMyComPtr@UICryptoGetTextPassword@@@@QBEPAUICryptoGetTextPassword@@XZ ; CMyComPtr<ICryptoGetTextPassword>::operator->
PUBLIC	??B?$CMyComPtr@UICryptoGetTextPassword@@@@QBEPAUICryptoGetTextPassword@@XZ ; CMyComPtr<ICryptoGetTextPassword>::operator ICryptoGetTextPassword *
PUBLIC	?CryptoGetTextPassword@CArchiveOpenCallback_Offset@@UAGJPAPA_W@Z ; CArchiveOpenCallback_Offset::CryptoGetTextPassword
xdata$x	SEGMENT
__catchsym$?CryptoGetTextPassword@CArchiveOpenCallback_Offset@@UAGJPAPA_W@Z$2 DD 040H
	DD	00H
	DD	00H
	DD	FLAT:__catch$?CryptoGetTextPassword@CArchiveOpenCallback_Offset@@UAGJPAPA_W@Z$0
__unwindtable$?CryptoGetTextPassword@CArchiveOpenCallback_Offset@@UAGJPAPA_W@Z DD 0ffffffffH
	DD	00H
	DD	0ffffffffH
	DD	00H
__tryblocktable$?CryptoGetTextPassword@CArchiveOpenCallback_Offset@@UAGJPAPA_W@Z DD 00H
	DD	00H
	DD	01H
	DD	01H
	DD	FLAT:__catchsym$?CryptoGetTextPassword@CArchiveOpenCallback_Offset@@UAGJPAPA_W@Z$2
__ehfuncinfo$?CryptoGetTextPassword@CArchiveOpenCallback_Offset@@UAGJPAPA_W@Z DD 019930522H
	DD	02H
	DD	FLAT:__unwindtable$?CryptoGetTextPassword@CArchiveOpenCallback_Offset@@UAGJPAPA_W@Z
	DD	01H
	DD	FLAT:__tryblocktable$?CryptoGetTextPassword@CArchiveOpenCallback_Offset@@UAGJPAPA_W@Z
	DD	2 DUP(00H)
	DD	00H
	DD	01H
; Function compile flags: /Odtp /RTCsu
xdata$x	ENDS
_TEXT	SEGMENT
tv82 = -36						; size = 4
tv74 = -32						; size = 4
tv81 = -28						; size = 4
tv80 = -24						; size = 4
$T77600 = -20						; size = 4
__$EHRec$ = -16						; size = 16
_this$ = 8						; size = 4
_password$ = 12						; size = 4
?CryptoGetTextPassword@CArchiveOpenCallback_Offset@@UAGJPAPA_W@Z PROC ; CArchiveOpenCallback_Offset::CryptoGetTextPassword
; Line 1113
	push	ebp
	mov	ebp, esp
	push	-1
	push	__ehhandler$?CryptoGetTextPassword@CArchiveOpenCallback_Offset@@UAGJPAPA_W@Z
	mov	eax, DWORD PTR fs:0
	push	eax
	push	ecx
	sub	esp, 20					; 00000014H
	push	ebx
	push	esi
	push	edi
	mov	eax, -858993460				; ccccccccH
	mov	DWORD PTR [ebp-36], eax
	mov	DWORD PTR [ebp-32], eax
	mov	DWORD PTR [ebp-28], eax
	mov	DWORD PTR [ebp-24], eax
	mov	DWORD PTR [ebp-20], eax
	mov	eax, DWORD PTR ___security_cookie
	xor	eax, ebp
	push	eax
	lea	eax, DWORD PTR __$EHRec$[ebp+4]
	mov	DWORD PTR fs:0, eax
	mov	DWORD PTR __$EHRec$[ebp], esp
; Line 1114
	mov	DWORD PTR __$EHRec$[ebp+12], 0
; Line 1115
	mov	ecx, DWORD PTR _this$[ebp]
	add	ecx, 28					; 0000001cH
	call	??B?$CMyComPtr@UICryptoGetTextPassword@@@@QBEPAUICryptoGetTextPassword@@XZ ; CMyComPtr<ICryptoGetTextPassword>::operator ICryptoGetTextPassword *
	mov	DWORD PTR tv80[ebp], eax
	cmp	DWORD PTR tv80[ebp], 0
	je	SHORT $LN1@CryptoGetT
; Line 1116
	mov	ecx, DWORD PTR _this$[ebp]
	add	ecx, 28					; 0000001cH
	call	??C?$CMyComPtr@UICryptoGetTextPassword@@@@QBEPAUICryptoGetTextPassword@@XZ ; CMyComPtr<ICryptoGetTextPassword>::operator->
	mov	DWORD PTR tv81[ebp], eax
	mov	eax, DWORD PTR tv81[ebp]
	mov	DWORD PTR tv74[ebp], eax
	mov	esi, esp
	mov	ecx, DWORD PTR _password$[ebp]
	push	ecx
	mov	edx, DWORD PTR tv74[ebp]
	push	edx
	mov	eax, DWORD PTR tv74[ebp]
	mov	ecx, DWORD PTR [eax]
	mov	edx, DWORD PTR [ecx+12]
	call	edx
	cmp	esi, esp
	call	__RTC_CheckEsp
	mov	DWORD PTR tv82[ebp], eax
	mov	eax, DWORD PTR tv82[ebp]
	jmp	SHORT $LN3@CryptoGetT
$LN1@CryptoGetT:
; Line 1117
	mov	eax, -2147467263			; 80004001H
	jmp	SHORT $LN3@CryptoGetT
__catch$?CryptoGetTextPassword@CArchiveOpenCallback_Offset@@UAGJPAPA_W@Z$0:
; Line 1118
	mov	DWORD PTR $T77600[ebp], -2147024882	; 8007000eH
	mov	DWORD PTR __$EHRec$[ebp+12], -1
	mov	eax, $LN8@CryptoGetT
	ret	0
	mov	eax, __tryend$?CryptoGetTextPassword@CArchiveOpenCallback_Offset@@UAGJPAPA_W@Z$1
	ret	0
__tryend$?CryptoGetTextPassword@CArchiveOpenCallback_Offset@@UAGJPAPA_W@Z$1:
	mov	DWORD PTR __$EHRec$[ebp+12], -1
	jmp	SHORT $LN3@CryptoGetT
$LN8@CryptoGetT:
	mov	eax, DWORD PTR $T77600[ebp]
$LN3@CryptoGetT:
; Line 1119
	mov	ecx, DWORD PTR __$EHRec$[ebp+4]
	mov	DWORD PTR fs:0, ecx
	pop	ecx
	pop	edi
	pop	esi
	pop	ebx
	add	esp, 36					; 00000024H
	cmp	ebp, esp
	call	__RTC_CheckEsp
	mov	esp, ebp
	pop	ebp
	ret	8
_TEXT	ENDS
text$x	SEGMENT
__ehhandler$?CryptoGetTextPassword@CArchiveOpenCallback_Offset@@UAGJPAPA_W@Z:
	mov	edx, DWORD PTR [esp+8]
	lea	eax, DWORD PTR [edx+12]
	mov	ecx, DWORD PTR [edx-40]
	xor	ecx, eax
	call	@__security_check_cookie@4
	mov	eax, OFFSET __ehfuncinfo$?CryptoGetTextPassword@CArchiveOpenCallback_Offset@@UAGJPAPA_W@Z
	jmp	___CxxFrameHandler3
text$x	ENDS
?CryptoGetTextPassword@CArchiveOpenCallback_Offset@@UAGJPAPA_W@Z ENDP ; CArchiveOpenCallback_Offset::CryptoGetTextPassword
PUBLIC	?SetTotal@CArchiveOpenCallback_Offset@@UAGJPB_K0@Z ; CArchiveOpenCallback_Offset::SetTotal
; Function compile flags: /Odtp /RTCsu
_TEXT	SEGMENT
_this$ = 8						; size = 4
___formal$ = 12						; size = 4
___formal$ = 16						; size = 4
?SetTotal@CArchiveOpenCallback_Offset@@UAGJPB_K0@Z PROC	; CArchiveOpenCallback_Offset::SetTotal
; Line 1123
	push	ebp
	mov	ebp, esp
; Line 1124
	xor	eax, eax
; Line 1125
	pop	ebp
	ret	12					; 0000000cH
?SetTotal@CArchiveOpenCallback_Offset@@UAGJPB_K0@Z ENDP	; CArchiveOpenCallback_Offset::SetTotal
_TEXT	ENDS
PUBLIC	??C?$CMyComPtr@UIArchiveOpenCallback@@@@QBEPAUIArchiveOpenCallback@@XZ ; CMyComPtr<IArchiveOpenCallback>::operator->
PUBLIC	??7?$CMyComPtr@UIArchiveOpenCallback@@@@QBE_NXZ	; CMyComPtr<IArchiveOpenCallback>::operator!
PUBLIC	?SetCompleted@CArchiveOpenCallback_Offset@@UAGJPB_K0@Z ; CArchiveOpenCallback_Offset::SetCompleted
; Function compile flags: /Odtp /RTCsu
_TEXT	SEGMENT
tv76 = -20						; size = 4
_value$ = -12						; size = 8
_this$ = 8						; size = 4
___formal$ = 12						; size = 4
_bytes$ = 16						; size = 4
?SetCompleted@CArchiveOpenCallback_Offset@@UAGJPB_K0@Z PROC ; CArchiveOpenCallback_Offset::SetCompleted
; Line 1128
	push	ebp
	mov	ebp, esp
	sub	esp, 20					; 00000014H
	push	esi
	mov	eax, -858993460				; ccccccccH
	mov	DWORD PTR [ebp-20], eax
	mov	DWORD PTR [ebp-16], eax
	mov	DWORD PTR [ebp-12], eax
	mov	DWORD PTR [ebp-8], eax
	mov	DWORD PTR [ebp-4], eax
; Line 1129
	mov	ecx, DWORD PTR _this$[ebp]
	add	ecx, 12					; 0000000cH
	call	??7?$CMyComPtr@UIArchiveOpenCallback@@@@QBE_NXZ ; CMyComPtr<IArchiveOpenCallback>::operator!
	movzx	eax, al
	test	eax, eax
	je	SHORT $LN2@SetComplet
; Line 1130
	xor	eax, eax
	jmp	SHORT $LN3@SetComplet
$LN2@SetComplet:
; Line 1131
	mov	ecx, DWORD PTR _this$[ebp]
	mov	edx, DWORD PTR [ecx+24]
	mov	DWORD PTR _value$[ebp], edx
	mov	eax, DWORD PTR [ecx+28]
	mov	DWORD PTR _value$[ebp+4], eax
; Line 1132
	cmp	DWORD PTR _bytes$[ebp], 0
	je	SHORT $LN1@SetComplet
; Line 1133
	mov	ecx, DWORD PTR _bytes$[ebp]
	mov	edx, DWORD PTR _value$[ebp]
	add	edx, DWORD PTR [ecx]
	mov	eax, DWORD PTR _value$[ebp+4]
	adc	eax, DWORD PTR [ecx+4]
	mov	DWORD PTR _value$[ebp], edx
	mov	DWORD PTR _value$[ebp+4], eax
$LN1@SetComplet:
; Line 1134
	mov	ecx, DWORD PTR _this$[ebp]
	add	ecx, 12					; 0000000cH
	call	??C?$CMyComPtr@UIArchiveOpenCallback@@@@QBEPAUIArchiveOpenCallback@@XZ ; CMyComPtr<IArchiveOpenCallback>::operator->
	mov	DWORD PTR tv76[ebp], eax
	mov	esi, esp
	lea	ecx, DWORD PTR _value$[ebp]
	push	ecx
	mov	edx, DWORD PTR _this$[ebp]
	add	edx, 16					; 00000010H
	push	edx
	mov	eax, DWORD PTR tv76[ebp]
	push	eax
	mov	ecx, DWORD PTR tv76[ebp]
	mov	edx, DWORD PTR [ecx]
	mov	eax, DWORD PTR [edx+16]
	call	eax
	cmp	esi, esp
	call	__RTC_CheckEsp
$LN3@SetComplet:
; Line 1135
	push	edx
	mov	ecx, ebp
	push	eax
	lea	edx, DWORD PTR $LN7@SetComplet
	call	@_RTC_CheckStackVars@8
	pop	eax
	pop	edx
	pop	esi
	add	esp, 20					; 00000014H
	cmp	ebp, esp
	call	__RTC_CheckEsp
	mov	esp, ebp
	pop	ebp
	ret	12					; 0000000cH
$LN7@SetComplet:
	DD	1
	DD	$LN6@SetComplet
$LN6@SetComplet:
	DD	-12					; fffffff4H
	DD	8
	DD	$LN5@SetComplet
$LN5@SetComplet:
	DB	118					; 00000076H
	DB	97					; 00000061H
	DB	108					; 0000006cH
	DB	117					; 00000075H
	DB	101					; 00000065H
	DB	0
?SetCompleted@CArchiveOpenCallback_Offset@@UAGJPB_K0@Z ENDP ; CArchiveOpenCallback_Offset::SetCompleted
_TEXT	ENDS
PUBLIC	__TI1H
PUBLIC	?GetOpenArcErrorFlags@@YGIABVCPropVariant@NCOM@NWindows@@PA_N@Z ; GetOpenArcErrorFlags
PUBLIC	__CTA1H
PUBLIC	__CT??_R0H@84
PUBLIC	??_R0H@8					; int `RTTI Type Descriptor'
EXTRN	__CxxThrowException@8:PROC
;	COMDAT ??_R0H@8
_DATA	SEGMENT
??_R0H@8 DD	FLAT:??_7type_info@@6B@			; int `RTTI Type Descriptor'
	DD	00H
	DB	'.H', 00H
_DATA	ENDS
;	COMDAT __CT??_R0H@84
xdata$x	SEGMENT
__CT??_R0H@84 DD 01H
	DD	FLAT:??_R0H@8
	DD	00H
	DD	0ffffffffH
	ORG $+4
	DD	04H
	DD	00H
xdata$x	ENDS
;	COMDAT __CTA1H
xdata$x	SEGMENT
__CTA1H	DD	01H
	DD	FLAT:__CT??_R0H@84
xdata$x	ENDS
;	COMDAT __TI1H
xdata$x	SEGMENT
__TI1H	DD	00H
	DD	00H
	DD	00H
	DD	FLAT:__CTA1H
; Function compile flags: /Odtp /RTCsu
xdata$x	ENDS
_TEXT	SEGMENT
tv71 = -8						; size = 4
$T77618 = -4						; size = 4
_prop$ = 8						; size = 4
_isDefinedProp$ = 12					; size = 4
?GetOpenArcErrorFlags@@YGIABVCPropVariant@NCOM@NWindows@@PA_N@Z PROC ; GetOpenArcErrorFlags
; Line 1140
	push	ebp
	mov	ebp, esp
	sub	esp, 8
	mov	DWORD PTR [ebp-8], -858993460		; ccccccccH
	mov	DWORD PTR [ebp-4], -858993460		; ccccccccH
; Line 1141
	cmp	DWORD PTR _isDefinedProp$[ebp], 0
	je	SHORT $LN9@GetOpenArc
; Line 1142
	mov	eax, DWORD PTR _isDefinedProp$[ebp]
	mov	BYTE PTR [eax], 0
$LN9@GetOpenArc:
; Line 1144
	mov	ecx, DWORD PTR _prop$[ebp]
	movzx	edx, WORD PTR [ecx]
	mov	DWORD PTR tv71[ebp], edx
	cmp	DWORD PTR tv71[ebp], 0
	je	SHORT $LN2@GetOpenArc
	cmp	DWORD PTR tv71[ebp], 19			; 00000013H
	je	SHORT $LN4@GetOpenArc
	cmp	DWORD PTR tv71[ebp], 21			; 00000015H
	je	SHORT $LN6@GetOpenArc
	jmp	SHORT $LN1@GetOpenArc
$LN6@GetOpenArc:
; Line 1146
	cmp	DWORD PTR _isDefinedProp$[ebp], 0
	je	SHORT $LN5@GetOpenArc
	mov	eax, DWORD PTR _isDefinedProp$[ebp]
	mov	BYTE PTR [eax], 1
$LN5@GetOpenArc:
	mov	ecx, DWORD PTR _prop$[ebp]
	mov	eax, DWORD PTR [ecx+8]
	jmp	SHORT $LN11@GetOpenArc
$LN4@GetOpenArc:
; Line 1147
	cmp	DWORD PTR _isDefinedProp$[ebp], 0
	je	SHORT $LN3@GetOpenArc
	mov	edx, DWORD PTR _isDefinedProp$[ebp]
	mov	BYTE PTR [edx], 1
$LN3@GetOpenArc:
	mov	eax, DWORD PTR _prop$[ebp]
	mov	eax, DWORD PTR [eax+8]
	jmp	SHORT $LN11@GetOpenArc
$LN2@GetOpenArc:
; Line 1148
	xor	eax, eax
	jmp	SHORT $LN11@GetOpenArc
$LN1@GetOpenArc:
; Line 1149
	mov	DWORD PTR $T77618[ebp], 151199		; 00024e9fH
	push	OFFSET __TI1H
	lea	ecx, DWORD PTR $T77618[ebp]
	push	ecx
	call	__CxxThrowException@8
$LN11@GetOpenArc:
; Line 1151
	add	esp, 8
	cmp	ebp, esp
	call	__RTC_CheckEsp
	mov	esp, ebp
	pop	ebp
	ret	8
?GetOpenArcErrorFlags@@YGIABVCPropVariant@NCOM@NWindows@@PA_N@Z ENDP ; GetOpenArcErrorFlags
_TEXT	ENDS
PUBLIC	?ClearErrors@CArcErrorInfo@@QAEXXZ		; CArcErrorInfo::ClearErrors
; Function compile flags: /Odtp /RTCsu
_TEXT	SEGMENT
_this$ = -4						; size = 4
?ClearErrors@CArcErrorInfo@@QAEXXZ PROC			; CArcErrorInfo::ClearErrors
; _this$ = ecx
; Line 1154
	push	ebp
	mov	ebp, esp
	push	ecx
	mov	DWORD PTR [ebp-4], -858993460		; ccccccccH
	mov	DWORD PTR _this$[ebp], ecx
; Line 1157
	mov	eax, DWORD PTR _this$[ebp]
	mov	BYTE PTR [eax], 0
; Line 1158
	mov	ecx, DWORD PTR _this$[ebp]
	mov	BYTE PTR [ecx+1], 0
; Line 1159
	mov	edx, DWORD PTR _this$[ebp]
	mov	BYTE PTR [edx+2], 0
; Line 1161
	mov	eax, DWORD PTR _this$[ebp]
	mov	BYTE PTR [eax+3], 0
; Line 1162
	mov	ecx, DWORD PTR _this$[ebp]
	mov	DWORD PTR [ecx+4], 0
; Line 1163
	mov	edx, DWORD PTR _this$[ebp]
	mov	DWORD PTR [edx+8], 0
; Line 1164
	mov	eax, DWORD PTR _this$[ebp]
	mov	DWORD PTR [eax+16], 0
	mov	DWORD PTR [eax+20], 0
; Line 1166
	mov	ecx, DWORD PTR _this$[ebp]
	add	ecx, 24					; 00000018H
	call	?Empty@UString@@QAEXXZ			; UString::Empty
; Line 1167
	mov	ecx, DWORD PTR _this$[ebp]
	add	ecx, 36					; 00000024H
	call	?Empty@UString@@QAEXXZ			; UString::Empty
; Line 1168
	add	esp, 4
	cmp	ebp, esp
	call	__RTC_CheckEsp
	mov	esp, ebp
	pop	ebp
	ret	0
?ClearErrors@CArcErrorInfo@@QAEXXZ ENDP			; CArcErrorInfo::ClearErrors
_TEXT	ENDS
PUBLIC	?IsArc_After_NonOpen@CArcErrorInfo@@QBE_NXZ	; CArcErrorInfo::IsArc_After_NonOpen
PUBLIC	?ReadBasicProps@CArc@@QAEJPAUIInArchive@@_KJ@Z	; CArc::ReadBasicProps
xdata$x	SEGMENT
__unwindtable$?ReadBasicProps@CArc@@QAEJPAUIInArchive@@_KJ@Z DD 0ffffffffH
	DD	FLAT:__unwindfunclet$?ReadBasicProps@CArc@@QAEJPAUIInArchive@@_KJ@Z$0
	DD	0ffffffffH
	DD	FLAT:__unwindfunclet$?ReadBasicProps@CArc@@QAEJPAUIInArchive@@_KJ@Z$1
	DD	0ffffffffH
	DD	FLAT:__unwindfunclet$?ReadBasicProps@CArc@@QAEJPAUIInArchive@@_KJ@Z$2
	DD	0ffffffffH
	DD	FLAT:__unwindfunclet$?ReadBasicProps@CArc@@QAEJPAUIInArchive@@_KJ@Z$3
__ehfuncinfo$?ReadBasicProps@CArc@@QAEJPAUIInArchive@@_KJ@Z DD 019930522H
	DD	04H
	DD	FLAT:__unwindtable$?ReadBasicProps@CArc@@QAEJPAUIInArchive@@_KJ@Z
	DD	2 DUP(00H)
	DD	2 DUP(00H)
	DD	00H
	DD	01H
; Function compile flags: /Odtp /RTCsu
xdata$x	ENDS
_TEXT	SEGMENT
tv430 = -196						; size = 4
tv374 = -192						; size = 4
tv219 = -188						; size = 4
tv181 = -184						; size = 4
$T77627 = -180						; size = 4
$T77624 = -176						; size = 4
$T77623 = -172						; size = 4
$T77622 = -168						; size = 4
_endPos$73895 = -164					; size = 8
_globalOffset$73893 = -156				; size = 8
___result__$73891 = -148				; size = 4
_offsetDefined$73890 = -137				; size = 1
___result__$73888 = -132				; size = 4
___result__$73880 = -128				; size = 4
_prop$73879 = -120					; size = 16
___result__$73874 = -100				; size = 4
_prop$73873 = -92					; size = 16
___result__$73870 = -72					; size = 4
_prop$73869 = -64					; size = 16
___result__$73866 = -44					; size = 4
_prop$73865 = -36					; size = 16
_this$ = -16						; size = 4
__$EHRec$ = -12						; size = 12
_archive$ = 8						; size = 4
_startPos$ = 12						; size = 8
_openRes$ = 20						; size = 4
?ReadBasicProps@CArc@@QAEJPAUIInArchive@@_KJ@Z PROC	; CArc::ReadBasicProps
; _this$ = ecx
; Line 1171
	push	ebp
	mov	ebp, esp
	push	-1
	push	__ehhandler$?ReadBasicProps@CArc@@QAEJPAUIInArchive@@_KJ@Z
	mov	eax, DWORD PTR fs:0
	push	eax
	sub	esp, 184				; 000000b8H
	push	esi
	push	edi
	push	ecx
	lea	edi, DWORD PTR [ebp-196]
	mov	ecx, 46					; 0000002eH
	mov	eax, -858993460				; ccccccccH
	rep stosd
	pop	ecx
	mov	eax, DWORD PTR ___security_cookie
	xor	eax, ebp
	push	eax
	lea	eax, DWORD PTR __$EHRec$[ebp]
	mov	DWORD PTR fs:0, eax
	mov	DWORD PTR _this$[ebp], ecx
; Line 1173
	mov	eax, DWORD PTR _this$[ebp]
	mov	BYTE PTR [eax+184], 0
; Line 1174
	mov	ecx, DWORD PTR _this$[ebp]
	mov	DWORD PTR [ecx+176], 0
	mov	DWORD PTR [ecx+180], 0
; Line 1175
	mov	edx, DWORD PTR _this$[ebp]
	mov	DWORD PTR [edx+168], 0
	mov	DWORD PTR [edx+172], 0
; Line 1176
	mov	eax, DWORD PTR _this$[ebp]
