; Listing generated by Microsoft (R) Optimizing Compiler Version 16.00.40219.01 

	TITLE	C:\workspace\7z1505-src\CPP\7zip\UI\Common\Update.cpp
	.686P
	.XMM
	include listing.inc
	.model	flat

INCLUDELIB MSVCRTD
INCLUDELIB OLDNAMES

_DATA	SEGMENT
_kUpdateIsNotSupoorted DD FLAT:$SG74034
_kTempFolderPrefix DD FLAT:$SG74036
_kDefaultArcType DD FLAT:$SG74380
_kDefaultArcExt DD FLAT:$SG74382
_kSFXExtension DD FLAT:$SG74384
_DATA	ENDS
CONST	SEGMENT
$SG74034 DB	'update operations are not supported for this archive', 00H
	ORG $+3
$SG74036 DB	'7', 00H, 'z', 00H, 'E', 00H, 00H, 00H
$SG74378 DB	'.tmp', 00H
	ORG $+3
$SG74380 DB	'7', 00H, 'z', 00H, 00H, 00H
	ORG $+2
$SG74382 DB	'7', 00H, 'z', 00H, 00H, 00H
	ORG $+2
$SG74384 DB	'exe', 00H
$SG74931 DB	'cannot open file', 00H
	ORG $+3
$SG74957 DB	'cannot open SFX module', 00H
	ORG $+1
$SG74971 DB	'cannot open file', 00H
	ORG $+3
$SG75009 DB	'There are unclosed input file:', 00H
	ORG $+1
$SG75347 DB	'rsfx', 00H
	ORG $+3
$SG75349 DB	'SFX file is not specified', 00H
	ORG $+2
$SG75361 DB	'cannot find specified SFX module', 00H
	ORG $+3
$SG75374 DB	'type of archive is not specified', 00H
	ORG $+3
$SG75380 DB	'can''t find archive', 00H
	ORG $+1
$SG75388 DB	'there is no such archive', 00H
	ORG $+3
$SG75420 DB	'Updating for multivolume archives is not implemented', 00H
	ORG $+3
$SG75427 DB	'There is some data block after the end of the archive', 00H
	ORG $+2
$SG75467 DB	'Scanning error', 00H
	ORG $+1
$SG75502 DB	'The file already exists', 00H
$SG75524 DB	'stdout', 00H
	ORG $+1
$SG75551 DB	'cannot delete the file', 00H
	ORG $+1
$SG75553 DB	'cannot move the file', 00H
	ORG $+3
$SG75558 DB	'M', 00H, 'a', 00H, 'p', 00H, 'i', 00H, '3', 00H, '2', 00H
	DB	'.', 00H, 'd', 00H, 'l', 00H, 'l', 00H, 00H, 00H
	ORG $+2
$SG75559 DB	'cannot load Mapi32.dll', 00H
	ORG $+1
$SG75563 DB	'MAPISendMail', 00H
	ORG $+3
$SG75565 DB	'7-Zip cannot find MAPISendMail function', 00H
$SG75578 DB	'GetFullPathName error', 00H
CONST	ENDS
PUBLIC	?SetFromLastError@CUpdateErrorInfo@@QAEXPBD@Z	; CUpdateErrorInfo::SetFromLastError
EXTRN	??4AString@@QAEAAV0@PBD@Z:PROC			; AString::operator=
EXTRN	__imp__GetLastError@0:PROC
EXTRN	__RTC_CheckEsp:PROC
EXTRN	__RTC_Shutdown:PROC
EXTRN	__RTC_InitBase:PROC
;	COMDAT rtc$TMZ
; File c:\workspace\7z1505-src\cpp\7zip\ui\common\update.cpp
rtc$TMZ	SEGMENT
__RTC_Shutdown.rtc$TMZ DD FLAT:__RTC_Shutdown
rtc$TMZ	ENDS
;	COMDAT rtc$IMZ
rtc$IMZ	SEGMENT
__RTC_InitBase.rtc$IMZ DD FLAT:__RTC_InitBase
; Function compile flags: /Odtp /RTCsu
rtc$IMZ	ENDS
_TEXT	SEGMENT
_this$ = -4						; size = 4
_message$ = 8						; size = 4
?SetFromLastError@CUpdateErrorInfo@@QAEXPBD@Z PROC	; CUpdateErrorInfo::SetFromLastError
; _this$ = ecx
; Line 46
	push	ebp
	mov	ebp, esp
	push	ecx
	push	esi
	mov	DWORD PTR [ebp-4], -858993460		; ccccccccH
	mov	DWORD PTR _this$[ebp], ecx
; Line 47
	mov	esi, esp
	call	DWORD PTR __imp__GetLastError@0
	cmp	esi, esp
	call	__RTC_CheckEsp
	mov	ecx, DWORD PTR _this$[ebp]
	mov	DWORD PTR [ecx], eax
; Line 48
	mov	edx, DWORD PTR _message$[ebp]
	push	edx
	mov	ecx, DWORD PTR _this$[ebp]
	add	ecx, 4
	call	??4AString@@QAEAAV0@PBD@Z		; AString::operator=
; Line 49
	pop	esi
	add	esp, 4
	cmp	ebp, esp
	call	__RTC_CheckEsp
	mov	esp, ebp
	pop	ebp
	ret	4
?SetFromLastError@CUpdateErrorInfo@@QAEXPBD@Z ENDP	; CUpdateErrorInfo::SetFromLastError
_TEXT	ENDS
PUBLIC	?Get_HRESULT_Error@CUpdateErrorInfo@@QBEJXZ	; CUpdateErrorInfo::Get_HRESULT_Error
PUBLIC	?Add@?$CObjectVector@VUString@@@@QAEIABVUString@@@Z ; CObjectVector<UString>::Add
PUBLIC	?SetFromLastError@CUpdateErrorInfo@@QAEJPBDABVUString@@@Z ; CUpdateErrorInfo::SetFromLastError
; Function compile flags: /Odtp /RTCsu
_TEXT	SEGMENT
_this$ = -4						; size = 4
_message$ = 8						; size = 4
_fileName$ = 12						; size = 4
?SetFromLastError@CUpdateErrorInfo@@QAEJPBDABVUString@@@Z PROC ; CUpdateErrorInfo::SetFromLastError
; _this$ = ecx
; Line 52
	push	ebp
	mov	ebp, esp
	push	ecx
	mov	DWORD PTR [ebp-4], -858993460		; ccccccccH
	mov	DWORD PTR _this$[ebp], ecx
; Line 53
	mov	eax, DWORD PTR _message$[ebp]
	push	eax
	mov	ecx, DWORD PTR _this$[ebp]
	call	?SetFromLastError@CUpdateErrorInfo@@QAEXPBD@Z ; CUpdateErrorInfo::SetFromLastError
; Line 54
	mov	ecx, DWORD PTR _fileName$[ebp]
	push	ecx
	mov	ecx, DWORD PTR _this$[ebp]
	add	ecx, 16					; 00000010H
	call	?Add@?$CObjectVector@VUString@@@@QAEIABVUString@@@Z ; CObjectVector<UString>::Add
; Line 55
	mov	ecx, DWORD PTR _this$[ebp]
	call	?Get_HRESULT_Error@CUpdateErrorInfo@@QBEJXZ ; CUpdateErrorInfo::Get_HRESULT_Error
; Line 56
	add	esp, 4
	cmp	ebp, esp
	call	__RTC_CheckEsp
	mov	esp, ebp
	pop	ebp
	ret	8
?SetFromLastError@CUpdateErrorInfo@@QAEJPBDABVUString@@@Z ENDP ; CUpdateErrorInfo::SetFromLastError
_TEXT	ENDS
PUBLIC	_HRESULT_FROM_WIN32@4
; Function compile flags: /Odtp /RTCsu
;	COMDAT ?Get_HRESULT_Error@CUpdateErrorInfo@@QBEJXZ
_TEXT	SEGMENT
tv67 = -8						; size = 4
_this$ = -4						; size = 4
?Get_HRESULT_Error@CUpdateErrorInfo@@QBEJXZ PROC	; CUpdateErrorInfo::Get_HRESULT_Error, COMDAT
; _this$ = ecx
; File c:\workspace\7z1505-src\cpp\7zip\ui\common\update.h
; Line 156
	push	ebp
	mov	ebp, esp
	sub	esp, 8
	mov	DWORD PTR [ebp-8], -858993460		; ccccccccH
	mov	DWORD PTR [ebp-4], -858993460		; ccccccccH
	mov	DWORD PTR _this$[ebp], ecx
	mov	eax, DWORD PTR _this$[ebp]
	cmp	DWORD PTR [eax], 0
	jne	SHORT $LN3@Get_HRESUL
	mov	DWORD PTR tv67[ebp], -2147467259	; 80004005H
	jmp	SHORT $LN4@Get_HRESUL
$LN3@Get_HRESUL:
	mov	ecx, DWORD PTR _this$[ebp]
	mov	edx, DWORD PTR [ecx]
	push	edx
	call	_HRESULT_FROM_WIN32@4
	mov	DWORD PTR tv67[ebp], eax
$LN4@Get_HRESUL:
	mov	eax, DWORD PTR tv67[ebp]
	add	esp, 8
	cmp	ebp, esp
	call	__RTC_CheckEsp
	mov	esp, ebp
	pop	ebp
	ret	0
?Get_HRESULT_Error@CUpdateErrorInfo@@QBEJXZ ENDP	; CUpdateErrorInfo::Get_HRESULT_Error
; Function compile flags: /Odtp /RTCsu
_TEXT	ENDS
;	COMDAT _HRESULT_FROM_WIN32@4
_TEXT	SEGMENT
tv68 = -4						; size = 4
_x$ = 8							; size = 4
_HRESULT_FROM_WIN32@4 PROC				; COMDAT
; File c:\program files (x86)\microsoft sdks\windows\v7.0a\include\winerror.h
; Line 23841
	push	ebp
	mov	ebp, esp
	push	ecx
	mov	DWORD PTR [ebp-4], -858993460		; ccccccccH
	cmp	DWORD PTR _x$[ebp], 0
	jg	SHORT $LN3@HRESULT_FR
	mov	eax, DWORD PTR _x$[ebp]
	mov	DWORD PTR tv68[ebp], eax
	jmp	SHORT $LN4@HRESULT_FR
$LN3@HRESULT_FR:
	mov	ecx, DWORD PTR _x$[ebp]
	and	ecx, 65535				; 0000ffffH
	or	ecx, 458752				; 00070000H
	or	ecx, -2147483648			; 80000000H
	mov	DWORD PTR tv68[ebp], ecx
$LN4@HRESULT_FR:
	mov	eax, DWORD PTR tv68[ebp]
	mov	esp, ebp
	pop	ebp
	ret	4
_HRESULT_FROM_WIN32@4 ENDP
_TEXT	ENDS
PUBLIC	??A?$CObjectVector@UCAltStreamInfo@COutMultiVolStream@@@@QAEAAUCAltStreamInfo@COutMultiVolStream@@I@Z ; CObjectVector<COutMultiVolStream::CAltStreamInfo>::operator[]
PUBLIC	?Size@?$CObjectVector@UCAltStreamInfo@COutMultiVolStream@@@@QBEIXZ ; CObjectVector<COutMultiVolStream::CAltStreamInfo>::Size
PUBLIC	?Close@COutMultiVolStream@@QAEJXZ		; COutMultiVolStream::Close
EXTRN	?Close@COutFileStream@@QAEJXZ:PROC		; COutFileStream::Close
; Function compile flags: /Odtp /RTCsu
_TEXT	SEGMENT
_res2$74231 = -20					; size = 4
_s$74229 = -16						; size = 4
_i$74225 = -12						; size = 4
_res$ = -8						; size = 4
_this$ = -4						; size = 4
?Close@COutMultiVolStream@@QAEJXZ PROC			; COutMultiVolStream::Close
; _this$ = ecx
; File c:\workspace\7z1505-src\cpp\7zip\ui\common\update.cpp
; Line 129
	push	ebp
	mov	ebp, esp
	sub	esp, 20					; 00000014H
	mov	eax, -858993460				; ccccccccH
	mov	DWORD PTR [ebp-20], eax
	mov	DWORD PTR [ebp-16], eax
	mov	DWORD PTR [ebp-12], eax
	mov	DWORD PTR [ebp-8], eax
	mov	DWORD PTR [ebp-4], eax
	mov	DWORD PTR _this$[ebp], ecx
; Line 130
	mov	DWORD PTR _res$[ebp], 0
; Line 131
	mov	DWORD PTR _i$74225[ebp], 0
	jmp	SHORT $LN5@Close
$LN4@Close:
	mov	eax, DWORD PTR _i$74225[ebp]
	add	eax, 1
	mov	DWORD PTR _i$74225[ebp], eax
$LN5@Close:
	mov	ecx, DWORD PTR _this$[ebp]
	add	ecx, 40					; 00000028H
	call	?Size@?$CObjectVector@UCAltStreamInfo@COutMultiVolStream@@@@QBEIXZ ; CObjectVector<COutMultiVolStream::CAltStreamInfo>::Size
	cmp	DWORD PTR _i$74225[ebp], eax
	jae	SHORT $LN3@Close
; Line 133
	mov	ecx, DWORD PTR _i$74225[ebp]
	push	ecx
	mov	ecx, DWORD PTR _this$[ebp]
	add	ecx, 40					; 00000028H
	call	??A?$CObjectVector@UCAltStreamInfo@COutMultiVolStream@@@@QAEAAUCAltStreamInfo@COutMultiVolStream@@I@Z ; CObjectVector<COutMultiVolStream::CAltStreamInfo>::operator[]
	mov	edx, DWORD PTR [eax]
	mov	DWORD PTR _s$74229[ebp], edx
; Line 134
	cmp	DWORD PTR _s$74229[ebp], 0
	je	SHORT $LN2@Close
; Line 136
	mov	ecx, DWORD PTR _s$74229[ebp]
	call	?Close@COutFileStream@@QAEJXZ		; COutFileStream::Close
	mov	DWORD PTR _res2$74231[ebp], eax
; Line 137
	cmp	DWORD PTR _res2$74231[ebp], 0
	je	SHORT $LN2@Close
; Line 138
	mov	eax, DWORD PTR _res2$74231[ebp]
	mov	DWORD PTR _res$[ebp], eax
$LN2@Close:
; Line 140
	jmp	SHORT $LN4@Close
$LN3@Close:
; Line 141
	mov	eax, DWORD PTR _res$[ebp]
; Line 142
	add	esp, 20					; 00000014H
	cmp	ebp, esp
	call	__RTC_CheckEsp
	mov	esp, ebp
	pop	ebp
	ret	0
?Close@COutMultiVolStream@@QAEJXZ ENDP			; COutMultiVolStream::Close
_TEXT	ENDS
PUBLIC	?SetMTime@COutFileStream@@QAE_NPBU_FILETIME@@@Z	; COutFileStream::SetMTime
PUBLIC	?SetMTime@COutMultiVolStream@@QAE_NPBU_FILETIME@@@Z ; COutMultiVolStream::SetMTime
; Function compile flags: /Odtp /RTCsu
_TEXT	SEGMENT
_s$74243 = -16						; size = 4
_i$74239 = -12						; size = 4
_res$ = -5						; size = 1
_this$ = -4						; size = 4
_mTime$ = 8						; size = 4
?SetMTime@COutMultiVolStream@@QAE_NPBU_FILETIME@@@Z PROC ; COutMultiVolStream::SetMTime
; _this$ = ecx
; Line 145
	push	ebp
	mov	ebp, esp
	sub	esp, 16					; 00000010H
	mov	eax, -858993460				; ccccccccH
	mov	DWORD PTR [ebp-16], eax
	mov	DWORD PTR [ebp-12], eax
	mov	DWORD PTR [ebp-8], eax
	mov	DWORD PTR [ebp-4], eax
	mov	DWORD PTR _this$[ebp], ecx
; Line 146
	mov	BYTE PTR _res$[ebp], 1
; Line 147
	mov	DWORD PTR _i$74239[ebp], 0
	jmp	SHORT $LN5@SetMTime
$LN4@SetMTime:
	mov	eax, DWORD PTR _i$74239[ebp]
	add	eax, 1
	mov	DWORD PTR _i$74239[ebp], eax
$LN5@SetMTime:
	mov	ecx, DWORD PTR _this$[ebp]
	add	ecx, 40					; 00000028H
	call	?Size@?$CObjectVector@UCAltStreamInfo@COutMultiVolStream@@@@QBEIXZ ; CObjectVector<COutMultiVolStream::CAltStreamInfo>::Size
	cmp	DWORD PTR _i$74239[ebp], eax
	jae	SHORT $LN3@SetMTime
; Line 149
	mov	ecx, DWORD PTR _i$74239[ebp]
	push	ecx
	mov	ecx, DWORD PTR _this$[ebp]
	add	ecx, 40					; 00000028H
	call	??A?$CObjectVector@UCAltStreamInfo@COutMultiVolStream@@@@QAEAAUCAltStreamInfo@COutMultiVolStream@@I@Z ; CObjectVector<COutMultiVolStream::CAltStreamInfo>::operator[]
	mov	edx, DWORD PTR [eax]
	mov	DWORD PTR _s$74243[ebp], edx
; Line 150
	cmp	DWORD PTR _s$74243[ebp], 0
	je	SHORT $LN2@SetMTime
; Line 151
	mov	eax, DWORD PTR _mTime$[ebp]
	push	eax
	mov	ecx, DWORD PTR _s$74243[ebp]
	call	?SetMTime@COutFileStream@@QAE_NPBU_FILETIME@@@Z ; COutFileStream::SetMTime
	movzx	ecx, al
	test	ecx, ecx
	jne	SHORT $LN2@SetMTime
; Line 152
	mov	BYTE PTR _res$[ebp], 0
$LN2@SetMTime:
; Line 153
	jmp	SHORT $LN4@SetMTime
$LN3@SetMTime:
; Line 154
	mov	al, BYTE PTR _res$[ebp]
; Line 155
	add	esp, 16					; 00000010H
	cmp	ebp, esp
	call	__RTC_CheckEsp
	mov	esp, ebp
	pop	ebp
	ret	4
?SetMTime@COutMultiVolStream@@QAE_NPBU_FILETIME@@@Z ENDP ; COutMultiVolStream::SetMTime
_TEXT	ENDS
EXTRN	?SetMTime@COutFile@NIO@NFile@NWindows@@QAE_NPBU_FILETIME@@@Z:PROC ; NWindows::NFile::NIO::COutFile::SetMTime
; Function compile flags: /Odtp /RTCsu
;	COMDAT ?SetMTime@COutFileStream@@QAE_NPBU_FILETIME@@@Z
_TEXT	SEGMENT
_this$ = -4						; size = 4
_mTime$ = 8						; size = 4
?SetMTime@COutFileStream@@QAE_NPBU_FILETIME@@@Z PROC	; COutFileStream::SetMTime, COMDAT
; _this$ = ecx
; File c:\workspace\7z1505-src\cpp\7zip\common\filestreams.h
; Line 139
	push	ebp
	mov	ebp, esp
	push	ecx
	mov	DWORD PTR [ebp-4], -858993460		; ccccccccH
	mov	DWORD PTR _this$[ebp], ecx
	mov	eax, DWORD PTR _mTime$[ebp]
	push	eax
	mov	ecx, DWORD PTR _this$[ebp]
	add	ecx, 8
	call	?SetMTime@COutFile@NIO@NFile@NWindows@@QAE_NPBU_FILETIME@@@Z ; NWindows::NFile::NIO::COutFile::SetMTime
	add	esp, 4
	cmp	ebp, esp
	call	__RTC_CheckEsp
	mov	esp, ebp
	pop	ebp
	ret	4
?SetMTime@COutFileStream@@QAE_NPBU_FILETIME@@@Z ENDP	; COutFileStream::SetMTime
_TEXT	ENDS
PUBLIC	??$MyMin@_K@@YG_K_K0@Z				; MyMin<unsigned __int64>
PUBLIC	??C?$CMyComPtr@UIOutStream@@@@QBEPAUIOutStream@@XZ ; CMyComPtr<IOutStream>::operator->
PUBLIC	??A?$CRecordVector@_K@@QAEAA_KI@Z		; CRecordVector<unsigned __int64>::operator[]
PUBLIC	?Size@?$CRecordVector@_K@@QBEIXZ		; CRecordVector<unsigned __int64>::Size
PUBLIC	?Add@?$CObjectVector@UCAltStreamInfo@COutMultiVolStream@@@@QAEIABUCAltStreamInfo@COutMultiVolStream@@@Z ; CObjectVector<COutMultiVolStream::CAltStreamInfo>::Add
PUBLIC	??1CAltStreamInfo@COutMultiVolStream@@QAE@XZ	; COutMultiVolStream::CAltStreamInfo::~CAltStreamInfo
PUBLIC	??1UString@@QAE@XZ				; UString::~UString
PUBLIC	?Create@COutFileStream@@QAE_NPB_W_N@Z		; COutFileStream::Create
PUBLIC	??BUString@@QBEPB_WXZ				; UString::operator wchar_t const *
PUBLIC	??4?$CMyComPtr@UIOutStream@@@@QAEPAUIOutStream@@PAU1@@Z ; CMyComPtr<IOutStream>::operator=
PUBLIC	??0COutFileStream@@QAE@XZ			; COutFileStream::COutFileStream
PUBLIC	?Len@UString@@QBEIXZ				; UString::Len
PUBLIC	??0CAltStreamInfo@COutMultiVolStream@@QAE@XZ	; COutMultiVolStream::CAltStreamInfo::CAltStreamInfo
PUBLIC	__$ArrayPad$
PUBLIC	?Write@COutMultiVolStream@@UAGJPBXIPAI@Z	; COutMultiVolStream::Write
EXTRN	??4UString@@QAEAAV0@ABV0@@Z:PROC		; UString::operator=
EXTRN	??2@YAPAXI@Z:PROC				; operator new
EXTRN	?Insert@UString@@QAEXIABV1@@Z:PROC		; UString::Insert
EXTRN	?InsertAtFront@UString@@QAEX_W@Z:PROC		; UString::InsertAtFront
EXTRN	??0UString@@QAE@PB_W@Z:PROC			; UString::UString
EXTRN	?ConvertUInt32ToString@@YGXIPA_W@Z:PROC		; ConvertUInt32ToString
EXTRN	___security_cookie:DWORD
EXTRN	@__security_check_cookie@4:PROC
EXTRN	@_RTC_CheckStackVars@8:PROC
; Function compile flags: /Odtp /RTCsu
_TEXT	SEGMENT
tv454 = -208						; size = 4
tv436 = -204						; size = 4
tv435 = -200						; size = 4
tv418 = -196						; size = 4
tv417 = -192						; size = 4
tv213 = -188						; size = 4
tv187 = -184						; size = 4
tv327 = -180						; size = 4
tv326 = -176						; size = 4
tv306 = -172						; size = 4
tv130 = -168						; size = 4
$T77278 = -164						; size = 4
$T77275 = -160						; size = 4
$T77274 = -156						; size = 4
___result__$74286 = -152				; size = 4
_realProcessed$74285 = -144				; size = 4
_curSize$74277 = -136					; size = 4
___result__$74275 = -132				; size = 4
_volSize$74272 = -128					; size = 8
_index$74270 = -120					; size = 4
_altStream$74269 = -116					; size = 4
_name$74259 = -108					; size = 12
_temp$74258 = -88					; size = 32
_altStream$74257 = -48					; size = 40
__$ArrayPad$ = -4					; size = 4
_this$ = 8						; size = 4
_data$ = 12						; size = 4
_size$ = 16						; size = 4
_processedSize$ = 20					; size = 4
?Write@COutMultiVolStream@@UAGJPBXIPAI@Z PROC		; COutMultiVolStream::Write
; File c:\workspace\7z1505-src\cpp\7zip\ui\common\update.cpp
; Line 158
	push	ebp
	mov	ebp, esp
	sub	esp, 208				; 000000d0H
	push	esi
	push	edi
	lea	edi, DWORD PTR [ebp-208]
	mov	ecx, 52					; 00000034H
	mov	eax, -858993460				; ccccccccH
	rep stosd
	mov	eax, DWORD PTR ___security_cookie
	xor	eax, ebp
	mov	DWORD PTR __$ArrayPad$[ebp], eax
; Line 159
	cmp	DWORD PTR _processedSize$[ebp], 0
	je	SHORT $LN16@Write
; Line 160
	mov	eax, DWORD PTR _processedSize$[ebp]
	mov	DWORD PTR [eax], 0
$LN16@Write:
; Line 161
	cmp	DWORD PTR _size$[ebp], 0
	jbe	$LN15@Write
; Line 163
	mov	ecx, DWORD PTR _this$[ebp]
	add	ecx, 40					; 00000028H
	call	?Size@?$CObjectVector@UCAltStreamInfo@COutMultiVolStream@@@@QBEIXZ ; CObjectVector<COutMultiVolStream::CAltStreamInfo>::Size
	mov	ecx, DWORD PTR _this$[ebp]
	cmp	DWORD PTR [ecx+8], eax
	jb	$LN14@Write
; Line 165
	lea	ecx, DWORD PTR _altStream$74257[ebp]
	call	??0CAltStreamInfo@COutMultiVolStream@@QAE@XZ
; Line 168
	lea	edx, DWORD PTR _temp$74258[ebp]
	push	edx
	mov	eax, DWORD PTR _this$[ebp]
	mov	ecx, DWORD PTR [eax+8]
	add	ecx, 1
	push	ecx
	call	?ConvertUInt32ToString@@YGXIPA_W@Z	; ConvertUInt32ToString
; Line 169
	lea	edx, DWORD PTR _temp$74258[ebp]
	push	edx
	lea	ecx, DWORD PTR _name$74259[ebp]
	call	??0UString@@QAE@PB_W@Z			; UString::UString
$LN13@Write:
; Line 170
	lea	ecx, DWORD PTR _name$74259[ebp]
	call	?Len@UString@@QBEIXZ			; UString::Len
	cmp	eax, 3
	jae	SHORT $LN12@Write
; Line 171
	push	48					; 00000030H
	lea	ecx, DWORD PTR _name$74259[ebp]
	call	?InsertAtFront@UString@@QAEX_W@Z	; UString::InsertAtFront
	jmp	SHORT $LN13@Write
$LN12@Write:
; Line 172
	mov	eax, DWORD PTR _this$[ebp]
	add	eax, 64					; 00000040H
	push	eax
	push	0
	lea	ecx, DWORD PTR _name$74259[ebp]
	call	?Insert@UString@@QAEXIABV1@@Z		; UString::Insert
; Line 173
	push	32					; 00000020H
	call	??2@YAPAXI@Z				; operator new
	add	esp, 4
	mov	DWORD PTR $T77275[ebp], eax
	cmp	DWORD PTR $T77275[ebp], 0
	je	SHORT $LN20@Write
	mov	ecx, DWORD PTR $T77275[ebp]
	call	??0COutFileStream@@QAE@XZ
	mov	DWORD PTR tv130[ebp], eax
	jmp	SHORT $LN21@Write
$LN20@Write:
	mov	DWORD PTR tv130[ebp], 0
$LN21@Write:
	mov	ecx, DWORD PTR tv130[ebp]
	mov	DWORD PTR $T77274[ebp], ecx
	mov	edx, DWORD PTR $T77274[ebp]
	mov	DWORD PTR _altStream$74257[ebp], edx
; Line 174
	mov	eax, DWORD PTR _altStream$74257[ebp]
	push	eax
	lea	ecx, DWORD PTR _altStream$74257[ebp+4]
	call	??4?$CMyComPtr@UIOutStream@@@@QAEPAUIOutStream@@PAU1@@Z ; CMyComPtr<IOutStream>::operator=
; Line 175
	push	0
	lea	ecx, DWORD PTR _name$74259[ebp]
	call	??BUString@@QBEPB_WXZ			; UString::operator wchar_t const *
	push	eax
	mov	ecx, DWORD PTR _altStream$74257[ebp]
	call	?Create@COutFileStream@@QAE_NPB_W_N@Z	; COutFileStream::Create
	movzx	ecx, al
	test	ecx, ecx
	jne	SHORT $LN11@Write
; Line 176
	mov	esi, esp
	call	DWORD PTR __imp__GetLastError@0
	cmp	esi, esp
	call	__RTC_CheckEsp
	mov	DWORD PTR $T77278[ebp], eax
	lea	ecx, DWORD PTR _name$74259[ebp]
	call	??1UString@@QAE@XZ			; UString::~UString
	lea	ecx, DWORD PTR _altStream$74257[ebp]
	call	??1CAltStreamInfo@COutMultiVolStream@@QAE@XZ
	mov	eax, DWORD PTR $T77278[ebp]
	jmp	$LN18@Write
$LN11@Write:
; Line 179
	lea	edx, DWORD PTR _name$74259[ebp]
	push	edx
	mov	eax, DWORD PTR _this$[ebp]
	mov	ecx, DWORD PTR [eax+76]
	call	?Add@?$CObjectVector@VUString@@@@QAEIABVUString@@@Z ; CObjectVector<UString>::Add
; Line 182
	mov	DWORD PTR _altStream$74257[ebp+24], 0
	mov	DWORD PTR _altStream$74257[ebp+28], 0
; Line 183
	mov	DWORD PTR _altStream$74257[ebp+32], 0
	mov	DWORD PTR _altStream$74257[ebp+36], 0
; Line 184
	lea	ecx, DWORD PTR _name$74259[ebp]
	push	ecx
	lea	ecx, DWORD PTR _altStream$74257[ebp+8]
	call	??4UString@@QAEAAV0@ABV0@@Z		; UString::operator=
; Line 185
	lea	edx, DWORD PTR _altStream$74257[ebp]
	push	edx
	mov	ecx, DWORD PTR _this$[ebp]
	add	ecx, 40					; 00000028H
	call	?Add@?$CObjectVector@UCAltStreamInfo@COutMultiVolStream@@@@QAEIABUCAltStreamInfo@COutMultiVolStream@@@Z ; CObjectVector<COutMultiVolStream::CAltStreamInfo>::Add
; Line 186
	lea	ecx, DWORD PTR _name$74259[ebp]
	call	??1UString@@QAE@XZ			; UString::~UString
	lea	ecx, DWORD PTR _altStream$74257[ebp]
	call	??1CAltStreamInfo@COutMultiVolStream@@QAE@XZ
	jmp	$LN16@Write
$LN14@Write:
; Line 188
	mov	eax, DWORD PTR _this$[ebp]
	mov	ecx, DWORD PTR [eax+8]
	push	ecx
	mov	ecx, DWORD PTR _this$[ebp]
	add	ecx, 40					; 00000028H
	call	??A?$CObjectVector@UCAltStreamInfo@COutMultiVolStream@@@@QAEAAUCAltStreamInfo@COutMultiVolStream@@I@Z ; CObjectVector<COutMultiVolStream::CAltStreamInfo>::operator[]
	mov	DWORD PTR _altStream$74269[ebp], eax
; Line 190
	mov	edx, DWORD PTR _this$[ebp]
	mov	eax, DWORD PTR [edx+8]
	mov	DWORD PTR _index$74270[ebp], eax
; Line 191
	mov	ecx, DWORD PTR _this$[ebp]
	add	ecx, 52					; 00000034H
	call	?Size@?$CRecordVector@_K@@QBEIXZ	; CRecordVector<unsigned __int64>::Size
	cmp	DWORD PTR _index$74270[ebp], eax
	jb	SHORT $LN10@Write
; Line 192
	mov	ecx, DWORD PTR _this$[ebp]
	add	ecx, 52					; 00000034H
	call	?Size@?$CRecordVector@_K@@QBEIXZ	; CRecordVector<unsigned __int64>::Size
	sub	eax, 1
	mov	DWORD PTR _index$74270[ebp], eax
$LN10@Write:
; Line 193
	mov	ecx, DWORD PTR _index$74270[ebp]
	push	ecx
	mov	ecx, DWORD PTR _this$[ebp]
	add	ecx, 52					; 00000034H
	call	??A?$CRecordVector@_K@@QAEAA_KI@Z	; CRecordVector<unsigned __int64>::operator[]
	mov	edx, DWORD PTR [eax]
	mov	DWORD PTR _volSize$74272[ebp], edx
	mov	eax, DWORD PTR [eax+4]
	mov	DWORD PTR _volSize$74272[ebp+4], eax
; Line 195
	mov	ecx, DWORD PTR _this$[ebp]
	mov	DWORD PTR tv306[ebp], ecx
	mov	edx, DWORD PTR tv306[ebp]
	mov	eax, DWORD PTR [edx+20]
	cmp	eax, DWORD PTR _volSize$74272[ebp+4]
	jb	SHORT $LN9@Write
	ja	SHORT $LN23@Write
	mov	ecx, DWORD PTR tv306[ebp]
	mov	edx, DWORD PTR [ecx+16]
	cmp	edx, DWORD PTR _volSize$74272[ebp]
	jb	SHORT $LN9@Write
$LN23@Write:
; Line 197
	mov	eax, DWORD PTR _this$[ebp]
	mov	ecx, DWORD PTR [eax+16]
	sub	ecx, DWORD PTR _volSize$74272[ebp]
	mov	edx, DWORD PTR [eax+20]
	sbb	edx, DWORD PTR _volSize$74272[ebp+4]
	mov	eax, DWORD PTR _this$[ebp]
	mov	DWORD PTR [eax+16], ecx
	mov	DWORD PTR [eax+20], edx
; Line 198
	mov	ecx, DWORD PTR _this$[ebp]
	mov	edx, DWORD PTR [ecx+8]
	add	edx, 1
	mov	eax, DWORD PTR _this$[ebp]
	mov	DWORD PTR [eax+8], edx
; Line 199
	jmp	$LN16@Write
$LN9@Write:
; Line 201
	mov	ecx, DWORD PTR _this$[ebp]
	mov	edx, DWORD PTR _altStream$74269[ebp]
	mov	DWORD PTR tv326[ebp], ecx
	mov	DWORD PTR tv327[ebp], edx
	mov	eax, DWORD PTR tv326[ebp]
	mov	ecx, DWORD PTR tv327[ebp]
	mov	edx, DWORD PTR [eax+16]
	cmp	edx, DWORD PTR [ecx+24]
	jne	SHORT $LN24@Write
	mov	eax, DWORD PTR tv326[ebp]
	mov	ecx, DWORD PTR tv327[ebp]
	mov	edx, DWORD PTR [eax+20]
	cmp	edx, DWORD PTR [ecx+28]
	je	SHORT $LN8@Write
$LN24@Write:
; Line 205
	mov	ecx, DWORD PTR _altStream$74269[ebp]
	add	ecx, 4
	call	??C?$CMyComPtr@UIOutStream@@@@QBEPAUIOutStream@@XZ ; CMyComPtr<IOutStream>::operator->
	mov	DWORD PTR tv187[ebp], eax
	mov	esi, esp
	push	0
	push	0
	mov	eax, DWORD PTR _this$[ebp]
	mov	ecx, DWORD PTR [eax+20]
	push	ecx
	mov	edx, DWORD PTR [eax+16]
	push	edx
	mov	eax, DWORD PTR tv187[ebp]
	push	eax
	mov	ecx, DWORD PTR tv187[ebp]
	mov	edx, DWORD PTR [ecx]
	mov	eax, DWORD PTR [edx+16]
	call	eax
	cmp	esi, esp
	call	__RTC_CheckEsp
	mov	DWORD PTR ___result__$74275[ebp], eax
	cmp	DWORD PTR ___result__$74275[ebp], 0
	je	SHORT $LN7@Write
	mov	eax, DWORD PTR ___result__$74275[ebp]
	jmp	$LN18@Write
$LN7@Write:
; Line 206
	mov	ecx, DWORD PTR _altStream$74269[ebp]
	mov	edx, DWORD PTR _this$[ebp]
	mov	eax, DWORD PTR [edx+16]
	mov	DWORD PTR [ecx+24], eax
	mov	edx, DWORD PTR [edx+20]
	mov	DWORD PTR [ecx+28], edx
$LN8@Write:
; Line 209
	mov	eax, DWORD PTR _altStream$74269[ebp]
	mov	ecx, DWORD PTR _volSize$74272[ebp]
	sub	ecx, DWORD PTR [eax+24]
	mov	edx, DWORD PTR _volSize$74272[ebp+4]
	sbb	edx, DWORD PTR [eax+28]
	push	edx
	push	ecx
	mov	eax, DWORD PTR _size$[ebp]
	xor	ecx, ecx
	push	ecx
	push	eax
	call	??$MyMin@_K@@YG_K_K0@Z			; MyMin<unsigned __int64>
	mov	DWORD PTR _curSize$74277[ebp], eax
; Line 211
	mov	ecx, DWORD PTR _altStream$74269[ebp]
	add	ecx, 4
	call	??C?$CMyComPtr@UIOutStream@@@@QBEPAUIOutStream@@XZ ; CMyComPtr<IOutStream>::operator->
	mov	DWORD PTR tv213[ebp], eax
	mov	esi, esp
	lea	edx, DWORD PTR _realProcessed$74285[ebp]
	push	edx
	mov	eax, DWORD PTR _curSize$74277[ebp]
	push	eax
	mov	ecx, DWORD PTR _data$[ebp]
	push	ecx
	mov	edx, DWORD PTR tv213[ebp]
	push	edx
	mov	eax, DWORD PTR tv213[ebp]
	mov	ecx, DWORD PTR [eax]
	mov	edx, DWORD PTR [ecx+12]
	call	edx
	cmp	esi, esp
	call	__RTC_CheckEsp
	mov	DWORD PTR ___result__$74286[ebp], eax
	cmp	DWORD PTR ___result__$74286[ebp], 0
	je	SHORT $LN6@Write
	mov	eax, DWORD PTR ___result__$74286[ebp]
	jmp	$LN18@Write
$LN6@Write:
; Line 212
	mov	eax, DWORD PTR _data$[ebp]
	add	eax, DWORD PTR _realProcessed$74285[ebp]
	mov	DWORD PTR _data$[ebp], eax
; Line 213
	mov	ecx, DWORD PTR _size$[ebp]
	sub	ecx, DWORD PTR _realProcessed$74285[ebp]
	mov	DWORD PTR _size$[ebp], ecx
; Line 214
	mov	edx, DWORD PTR _realProcessed$74285[ebp]
	xor	eax, eax
	mov	ecx, DWORD PTR _altStream$74269[ebp]
	add	edx, DWORD PTR [ecx+24]
	adc	eax, DWORD PTR [ecx+28]
	mov	ecx, DWORD PTR _altStream$74269[ebp]
	mov	DWORD PTR [ecx+24], edx
	mov	DWORD PTR [ecx+28], eax
; Line 215
	mov	edx, DWORD PTR _realProcessed$74285[ebp]
	xor	eax, eax
	mov	ecx, DWORD PTR _this$[ebp]
	add	edx, DWORD PTR [ecx+16]
	adc	eax, DWORD PTR [ecx+20]
	mov	ecx, DWORD PTR _this$[ebp]
	mov	DWORD PTR [ecx+16], edx
	mov	DWORD PTR [ecx+20], eax
; Line 216
	mov	edx, DWORD PTR _realProcessed$74285[ebp]
	xor	eax, eax
	mov	ecx, DWORD PTR _this$[ebp]
	add	edx, DWORD PTR [ecx+24]
	adc	eax, DWORD PTR [ecx+28]
	mov	ecx, DWORD PTR _this$[ebp]
	mov	DWORD PTR [ecx+24], edx
	mov	DWORD PTR [ecx+28], eax
; Line 217
	mov	edx, DWORD PTR _this$[ebp]
	mov	eax, DWORD PTR _this$[ebp]
	mov	DWORD PTR tv417[ebp], edx
	mov	DWORD PTR tv418[ebp], eax
	mov	ecx, DWORD PTR tv417[ebp]
	mov	edx, DWORD PTR tv418[ebp]
	mov	eax, DWORD PTR [ecx+28]
	cmp	eax, DWORD PTR [edx+36]
	jb	SHORT $LN5@Write
	ja	SHORT $LN25@Write
	mov	ecx, DWORD PTR tv417[ebp]
	mov	edx, DWORD PTR tv418[ebp]
	mov	eax, DWORD PTR [ecx+24]
	cmp	eax, DWORD PTR [edx+32]
	jbe	SHORT $LN5@Write
$LN25@Write:
; Line 218
	mov	ecx, DWORD PTR _this$[ebp]
	mov	edx, DWORD PTR _this$[ebp]
	mov	eax, DWORD PTR [edx+24]
	mov	DWORD PTR [ecx+32], eax
	mov	edx, DWORD PTR [edx+28]
	mov	DWORD PTR [ecx+36], edx
$LN5@Write:
; Line 219
	mov	eax, DWORD PTR _this$[ebp]
	mov	ecx, DWORD PTR _altStream$74269[ebp]
	mov	DWORD PTR tv435[ebp], eax
	mov	DWORD PTR tv436[ebp], ecx
	mov	edx, DWORD PTR tv435[ebp]
	mov	eax, DWORD PTR tv436[ebp]
	mov	ecx, DWORD PTR [edx+20]
	cmp	ecx, DWORD PTR [eax+36]
	jb	SHORT $LN4@Write
	ja	SHORT $LN26@Write
	mov	edx, DWORD PTR tv435[ebp]
	mov	eax, DWORD PTR tv436[ebp]
	mov	ecx, DWORD PTR [edx+16]
	cmp	ecx, DWORD PTR [eax+32]
	jbe	SHORT $LN4@Write
$LN26@Write:
; Line 220
	mov	edx, DWORD PTR _altStream$74269[ebp]
	mov	eax, DWORD PTR _this$[ebp]
	mov	ecx, DWORD PTR [eax+16]
	mov	DWORD PTR [edx+32], ecx
	mov	eax, DWORD PTR [eax+20]
	mov	DWORD PTR [edx+36], eax
$LN4@Write:
; Line 221
	cmp	DWORD PTR _processedSize$[ebp], 0
	je	SHORT $LN3@Write
; Line 222
	mov	ecx, DWORD PTR _processedSize$[ebp]
	mov	edx, DWORD PTR [ecx]
	add	edx, DWORD PTR _realProcessed$74285[ebp]
	mov	eax, DWORD PTR _processedSize$[ebp]
	mov	DWORD PTR [eax], edx
$LN3@Write:
; Line 223
	mov	ecx, DWORD PTR _altStream$74269[ebp]
	mov	DWORD PTR tv454[ebp], ecx
	mov	edx, DWORD PTR tv454[ebp]
	mov	eax, DWORD PTR [edx+24]
	cmp	eax, DWORD PTR _volSize$74272[ebp]
	jne	SHORT $LN2@Write
	mov	ecx, DWORD PTR tv454[ebp]
	mov	edx, DWORD PTR [ecx+28]
	cmp	edx, DWORD PTR _volSize$74272[ebp+4]
	jne	SHORT $LN2@Write
; Line 225
	mov	eax, DWORD PTR _this$[ebp]
	mov	ecx, DWORD PTR [eax+8]
	add	ecx, 1
	mov	edx, DWORD PTR _this$[ebp]
	mov	DWORD PTR [edx+8], ecx
; Line 226
	mov	eax, DWORD PTR _this$[ebp]
	mov	DWORD PTR [eax+16], 0
	mov	DWORD PTR [eax+20], 0
$LN2@Write:
; Line 228
	cmp	DWORD PTR _realProcessed$74285[ebp], 0
	jne	SHORT $LN1@Write
	cmp	DWORD PTR _curSize$74277[ebp], 0
	je	SHORT $LN1@Write
; Line 229
	mov	eax, -2147467259			; 80004005H
	jmp	SHORT $LN18@Write
$LN1@Write:
; Line 230
	jmp	SHORT $LN15@Write
; Line 231
	jmp	$LN16@Write
$LN15@Write:
; Line 232
	xor	eax, eax
$LN18@Write:
; Line 233
	push	edx
	mov	ecx, ebp
	push	eax
	lea	edx, DWORD PTR $LN32@Write
	call	@_RTC_CheckStackVars@8
	pop	eax
	pop	edx
	pop	edi
	pop	esi
	mov	ecx, DWORD PTR __$ArrayPad$[ebp]
	xor	ecx, ebp
	call	@__security_check_cookie@4
	add	esp, 208				; 000000d0H
	cmp	ebp, esp
	call	__RTC_CheckEsp
	mov	esp, ebp
	pop	ebp
	ret	16					; 00000010H
	npad	1
$LN32@Write:
	DD	4
	DD	$LN31@Write
$LN31@Write:
	DD	-48					; ffffffd0H
	DD	40					; 00000028H
	DD	$LN27@Write
	DD	-88					; ffffffa8H
	DD	32					; 00000020H
	DD	$LN28@Write
	DD	-108					; ffffff94H
	DD	12					; 0000000cH
	DD	$LN29@Write
	DD	-144					; ffffff70H
	DD	4
	DD	$LN30@Write
$LN30@Write:
	DB	114					; 00000072H
	DB	101					; 00000065H
	DB	97					; 00000061H
	DB	108					; 0000006cH
	DB	80					; 00000050H
	DB	114					; 00000072H
	DB	111					; 0000006fH
	DB	99					; 00000063H
	DB	101					; 00000065H
	DB	115					; 00000073H
	DB	115					; 00000073H
	DB	101					; 00000065H
	DB	100					; 00000064H
	DB	0
$LN29@Write:
	DB	110					; 0000006eH
	DB	97					; 00000061H
	DB	109					; 0000006dH
	DB	101					; 00000065H
	DB	0
$LN28@Write:
	DB	116					; 00000074H
	DB	101					; 00000065H
	DB	109					; 0000006dH
	DB	112					; 00000070H
	DB	0
$LN27@Write:
	DB	97					; 00000061H
	DB	108					; 0000006cH
	DB	116					; 00000074H
	DB	83					; 00000053H
	DB	116					; 00000074H
	DB	114					; 00000072H
	DB	101					; 00000065H
	DB	97					; 00000061H
	DB	109					; 0000006dH
	DB	0
?Write@COutMultiVolStream@@UAGJPBXIPAI@Z ENDP		; COutMultiVolStream::Write
_TEXT	ENDS
EXTRN	??3@YAXPAX@Z:PROC				; operator delete
; Function compile flags: /Odtp /RTCsu
;	COMDAT ??1UString@@QAE@XZ
_TEXT	SEGMENT
$T77294 = -8						; size = 4
_this$ = -4						; size = 4
??1UString@@QAE@XZ PROC					; UString::~UString, COMDAT
; _this$ = ecx
; File c:\workspace\7z1505-src\cpp\common\mystring.h
; Line 470
	push	ebp
	mov	ebp, esp
	sub	esp, 8
	mov	DWORD PTR [ebp-8], -858993460		; ccccccccH
	mov	DWORD PTR [ebp-4], -858993460		; ccccccccH
	mov	DWORD PTR _this$[ebp], ecx
	mov	eax, DWORD PTR _this$[ebp]
	mov	ecx, DWORD PTR [eax]
	mov	DWORD PTR $T77294[ebp], ecx
	mov	edx, DWORD PTR $T77294[ebp]
	push	edx
	call	??3@YAXPAX@Z				; operator delete
	add	esp, 4
	add	esp, 8
	cmp	ebp, esp
	call	__RTC_CheckEsp
	mov	esp, ebp
	pop	ebp
	ret	0
??1UString@@QAE@XZ ENDP					; UString::~UString
; Function compile flags: /Odtp /RTCsu
_TEXT	ENDS
;	COMDAT ?Len@UString@@QBEIXZ
_TEXT	SEGMENT
_this$ = -4						; size = 4
?Len@UString@@QBEIXZ PROC				; UString::Len, COMDAT
; _this$ = ecx
; Line 472
	push	ebp
	mov	ebp, esp
	push	ecx
	mov	DWORD PTR [ebp-4], -858993460		; ccccccccH
	mov	DWORD PTR _this$[ebp], ecx
	mov	eax, DWORD PTR _this$[ebp]
	mov	eax, DWORD PTR [eax+4]
	mov	esp, ebp
	pop	ebp
	ret	0
?Len@UString@@QBEIXZ ENDP				; UString::Len
; Function compile flags: /Odtp /RTCsu
_TEXT	ENDS
;	COMDAT ??BUString@@QBEPB_WXZ
_TEXT	SEGMENT
_this$ = -4						; size = 4
??BUString@@QBEPB_WXZ PROC				; UString::operator wchar_t const *, COMDAT
; _this$ = ecx
; Line 476
	push	ebp
	mov	ebp, esp
	push	ecx
	mov	DWORD PTR [ebp-4], -858993460		; ccccccccH
	mov	DWORD PTR _this$[ebp], ecx
	mov	eax, DWORD PTR _this$[ebp]
	mov	eax, DWORD PTR [eax]
	mov	esp, ebp
	pop	ebp
	ret	0
??BUString@@QBEPB_WXZ ENDP				; UString::operator wchar_t const *
_TEXT	ENDS
EXTRN	?Create@COutFile@NIO@NFile@NWindows@@QAE_NPB_W_N@Z:PROC ; NWindows::NFile::NIO::COutFile::Create
; Function compile flags: /Odtp /RTCsu
;	COMDAT ?Create@COutFileStream@@QAE_NPB_W_N@Z
_TEXT	SEGMENT
_this$ = -4						; size = 4
_fileName$ = 8						; size = 4
_createAlways$ = 12					; size = 1
?Create@COutFileStream@@QAE_NPB_W_N@Z PROC		; COutFileStream::Create, COMDAT
; _this$ = ecx
; File c:\workspace\7z1505-src\cpp\7zip\common\filestreams.h
; Line 120
	push	ebp
	mov	ebp, esp
	push	ecx
	mov	DWORD PTR [ebp-4], -858993460		; ccccccccH
	mov	DWORD PTR _this$[ebp], ecx
; Line 121
	mov	eax, DWORD PTR _this$[ebp]
	mov	DWORD PTR [eax+24], 0
	mov	DWORD PTR [eax+28], 0
; Line 122
	movzx	ecx, BYTE PTR _createAlways$[ebp]
	push	ecx
	mov	edx, DWORD PTR _fileName$[ebp]
	push	edx
	mov	ecx, DWORD PTR _this$[ebp]
	add	ecx, 8
	call	?Create@COutFile@NIO@NFile@NWindows@@QAE_NPB_W_N@Z ; NWindows::NFile::NIO::COutFile::Create
; Line 123
	add	esp, 4
	cmp	ebp, esp
	call	__RTC_CheckEsp
	mov	esp, ebp
	pop	ebp
	ret	8
?Create@COutFileStream@@QAE_NPB_W_N@Z ENDP		; COutFileStream::Create
_TEXT	ENDS
PUBLIC	??1?$CMyComPtr@UIOutStream@@@@QAE@XZ		; CMyComPtr<IOutStream>::~CMyComPtr<IOutStream>
PUBLIC	??0?$CMyComPtr@UIOutStream@@@@QAE@XZ		; CMyComPtr<IOutStream>::CMyComPtr<IOutStream>
EXTRN	??0UString@@QAE@XZ:PROC				; UString::UString
EXTRN	___CxxFrameHandler3:PROC
;	COMDAT xdata$x
xdata$x	SEGMENT
__unwindtable$??0CAltStreamInfo@COutMultiVolStream@@QAE@XZ DD 0ffffffffH
	DD	FLAT:__unwindfunclet$??0CAltStreamInfo@COutMultiVolStream@@QAE@XZ$0
__ehfuncinfo$??0CAltStreamInfo@COutMultiVolStream@@QAE@XZ DD 019930522H
	DD	01H
	DD	FLAT:__unwindtable$??0CAltStreamInfo@COutMultiVolStream@@QAE@XZ
	DD	2 DUP(00H)
	DD	2 DUP(00H)
	DD	00H
	DD	01H
; Function compile flags: /Odtp /RTCsu
xdata$x	ENDS
;	COMDAT ??0CAltStreamInfo@COutMultiVolStream@@QAE@XZ
_TEXT	SEGMENT
_this$ = -16						; size = 4
__$EHRec$ = -12						; size = 12
??0CAltStreamInfo@COutMultiVolStream@@QAE@XZ PROC	; COutMultiVolStream::CAltStreamInfo::CAltStreamInfo, COMDAT
; _this$ = ecx
	push	ebp
	mov	ebp, esp
	push	-1
	push	__ehhandler$??0CAltStreamInfo@COutMultiVolStream@@QAE@XZ
	mov	eax, DWORD PTR fs:0
	push	eax
	push	ecx
	mov	DWORD PTR [ebp-16], -858993460		; ccccccccH
	mov	eax, DWORD PTR ___security_cookie
	xor	eax, ebp
	push	eax
	lea	eax, DWORD PTR __$EHRec$[ebp]
	mov	DWORD PTR fs:0, eax
	mov	DWORD PTR _this$[ebp], ecx
	mov	ecx, DWORD PTR _this$[ebp]
	add	ecx, 4
	call	??0?$CMyComPtr@UIOutStream@@@@QAE@XZ	; CMyComPtr<IOutStream>::CMyComPtr<IOutStream>
	mov	DWORD PTR __$EHRec$[ebp+8], 0
	mov	ecx, DWORD PTR _this$[ebp]
	add	ecx, 8
	call	??0UString@@QAE@XZ			; UString::UString
	mov	DWORD PTR __$EHRec$[ebp+8], -1
	mov	eax, DWORD PTR _this$[ebp]
	mov	ecx, DWORD PTR __$EHRec$[ebp]
	mov	DWORD PTR fs:0, ecx
	pop	ecx
	add	esp, 16					; 00000010H
	cmp	ebp, esp
	call	__RTC_CheckEsp
	mov	esp, ebp
	pop	ebp
	ret	0
_TEXT	ENDS
;	COMDAT text$x
text$x	SEGMENT
__unwindfunclet$??0CAltStreamInfo@COutMultiVolStream@@QAE@XZ$0:
	mov	ecx, DWORD PTR _this$[ebp]
	add	ecx, 4
	jmp	??1?$CMyComPtr@UIOutStream@@@@QAE@XZ	; CMyComPtr<IOutStream>::~CMyComPtr<IOutStream>
__ehhandler$??0CAltStreamInfo@COutMultiVolStream@@QAE@XZ:
	mov	edx, DWORD PTR [esp+8]
	lea	eax, DWORD PTR [edx+12]
	mov	ecx, DWORD PTR [edx-8]
	xor	ecx, eax
	call	@__security_check_cookie@4
	mov	eax, OFFSET __ehfuncinfo$??0CAltStreamInfo@COutMultiVolStream@@QAE@XZ
	jmp	___CxxFrameHandler3
text$x	ENDS
??0CAltStreamInfo@COutMultiVolStream@@QAE@XZ ENDP	; COutMultiVolStream::CAltStreamInfo::CAltStreamInfo
;	COMDAT xdata$x
xdata$x	SEGMENT
__unwindtable$??1CAltStreamInfo@COutMultiVolStream@@QAE@XZ DD 0ffffffffH
	DD	FLAT:__unwindfunclet$??1CAltStreamInfo@COutMultiVolStream@@QAE@XZ$0
__ehfuncinfo$??1CAltStreamInfo@COutMultiVolStream@@QAE@XZ DD 019930522H
	DD	01H
	DD	FLAT:__unwindtable$??1CAltStreamInfo@COutMultiVolStream@@QAE@XZ
	DD	2 DUP(00H)
	DD	2 DUP(00H)
	DD	00H
	DD	01H
; Function compile flags: /Odtp /RTCsu
xdata$x	ENDS
;	COMDAT ??1CAltStreamInfo@COutMultiVolStream@@QAE@XZ
_TEXT	SEGMENT
_this$ = -16						; size = 4
__$EHRec$ = -12						; size = 12
??1CAltStreamInfo@COutMultiVolStream@@QAE@XZ PROC	; COutMultiVolStream::CAltStreamInfo::~CAltStreamInfo, COMDAT
; _this$ = ecx
	push	ebp
	mov	ebp, esp
	push	-1
	push	__ehhandler$??1CAltStreamInfo@COutMultiVolStream@@QAE@XZ
	mov	eax, DWORD PTR fs:0
	push	eax
	push	ecx
	mov	DWORD PTR [ebp-16], -858993460		; ccccccccH
	mov	eax, DWORD PTR ___security_cookie
	xor	eax, ebp
	push	eax
	lea	eax, DWORD PTR __$EHRec$[ebp]
	mov	DWORD PTR fs:0, eax
	mov	DWORD PTR _this$[ebp], ecx
	mov	DWORD PTR __$EHRec$[ebp+8], 0
	mov	ecx, DWORD PTR _this$[ebp]
	add	ecx, 8
	call	??1UString@@QAE@XZ			; UString::~UString
	mov	DWORD PTR __$EHRec$[ebp+8], -1
	mov	ecx, DWORD PTR _this$[ebp]
	add	ecx, 4
	call	??1?$CMyComPtr@UIOutStream@@@@QAE@XZ	; CMyComPtr<IOutStream>::~CMyComPtr<IOutStream>
	mov	ecx, DWORD PTR __$EHRec$[ebp]
	mov	DWORD PTR fs:0, ecx
	pop	ecx
	add	esp, 16					; 00000010H
	cmp	ebp, esp
	call	__RTC_CheckEsp
	mov	esp, ebp
	pop	ebp
	ret	0
_TEXT	ENDS
;	COMDAT text$x
text$x	SEGMENT
__unwindfunclet$??1CAltStreamInfo@COutMultiVolStream@@QAE@XZ$0:
	mov	ecx, DWORD PTR _this$[ebp]
	add	ecx, 4
	jmp	??1?$CMyComPtr@UIOutStream@@@@QAE@XZ	; CMyComPtr<IOutStream>::~CMyComPtr<IOutStream>
__ehhandler$??1CAltStreamInfo@COutMultiVolStream@@QAE@XZ:
	mov	edx, DWORD PTR [esp+8]
	lea	eax, DWORD PTR [edx+12]
	mov	ecx, DWORD PTR [edx-8]
	xor	ecx, eax
	call	@__security_check_cookie@4
	mov	eax, OFFSET __ehfuncinfo$??1CAltStreamInfo@COutMultiVolStream@@QAE@XZ
	jmp	___CxxFrameHandler3
text$x	ENDS
??1CAltStreamInfo@COutMultiVolStream@@QAE@XZ ENDP	; COutMultiVolStream::CAltStreamInfo::~CAltStreamInfo
PUBLIC	??0COutFile@NIO@NFile@NWindows@@QAE@XZ		; NWindows::NFile::NIO::COutFile::COutFile
PUBLIC	??_7COutFileStream@@6B@				; COutFileStream::`vftable'
PUBLIC	??0CMyUnknownImp@@QAE@XZ			; CMyUnknownImp::CMyUnknownImp
PUBLIC	??0IOutStream@@QAE@XZ				; IOutStream::IOutStream
PUBLIC	??_R4COutFileStream@@6B@			; COutFileStream::`RTTI Complete Object Locator'
PUBLIC	??_R0?AVCOutFileStream@@@8			; COutFileStream `RTTI Type Descriptor'
PUBLIC	??_R3COutFileStream@@8				; COutFileStream::`RTTI Class Hierarchy Descriptor'
PUBLIC	??_R2COutFileStream@@8				; COutFileStream::`RTTI Base Class Array'
PUBLIC	??_R1A@?0A@EA@COutFileStream@@8			; COutFileStream::`RTTI Base Class Descriptor at (0,-1,0,64)'
PUBLIC	??_R1A@?0A@EA@IOutStream@@8			; IOutStream::`RTTI Base Class Descriptor at (0,-1,0,64)'
PUBLIC	??_R0?AUIOutStream@@@8				; IOutStream `RTTI Type Descriptor'
PUBLIC	??_R3IOutStream@@8				; IOutStream::`RTTI Class Hierarchy Descriptor'
PUBLIC	??_R2IOutStream@@8				; IOutStream::`RTTI Base Class Array'
PUBLIC	??_R1A@?0A@EA@ISequentialOutStream@@8		; ISequentialOutStream::`RTTI Base Class Descriptor at (0,-1,0,64)'
PUBLIC	??_R0?AUISequentialOutStream@@@8		; ISequentialOutStream `RTTI Type Descriptor'
PUBLIC	??_R3ISequentialOutStream@@8			; ISequentialOutStream::`RTTI Class Hierarchy Descriptor'
PUBLIC	??_R2ISequentialOutStream@@8			; ISequentialOutStream::`RTTI Base Class Array'
PUBLIC	??_R1A@?0A@EA@IUnknown@@8			; IUnknown::`RTTI Base Class Descriptor at (0,-1,0,64)'
PUBLIC	??_R0?AUIUnknown@@@8				; IUnknown `RTTI Type Descriptor'
PUBLIC	??_R3IUnknown@@8				; IUnknown::`RTTI Class Hierarchy Descriptor'
PUBLIC	??_R2IUnknown@@8				; IUnknown::`RTTI Base Class Array'
PUBLIC	??_R13?0A@EA@CMyUnknownImp@@8			; CMyUnknownImp::`RTTI Base Class Descriptor at (4,-1,0,64)'
PUBLIC	??_R0?AVCMyUnknownImp@@@8			; CMyUnknownImp `RTTI Type Descriptor'
PUBLIC	??_R3CMyUnknownImp@@8				; CMyUnknownImp::`RTTI Class Hierarchy Descriptor'
PUBLIC	??_R2CMyUnknownImp@@8				; CMyUnknownImp::`RTTI Base Class Array'
PUBLIC	??_R1A@?0A@EA@CMyUnknownImp@@8			; CMyUnknownImp::`RTTI Base Class Descriptor at (0,-1,0,64)'
PUBLIC	?QueryInterface@COutFileStream@@UAGJABU_GUID@@PAPAX@Z ; COutFileStream::QueryInterface
PUBLIC	?AddRef@COutFileStream@@UAGKXZ			; COutFileStream::AddRef
PUBLIC	?Release@COutFileStream@@UAGKXZ			; COutFileStream::Release
EXTRN	??_7type_info@@6B@:QWORD			; type_info::`vftable'
EXTRN	?Write@COutFileStream@@UAGJPBXIPAI@Z:PROC	; COutFileStream::Write
EXTRN	?Seek@COutFileStream@@UAGJ_JIPA_K@Z:PROC	; COutFileStream::Seek
EXTRN	?SetSize@COutFileStream@@UAGJ_K@Z:PROC		; COutFileStream::SetSize
EXTRN	??_ECOutFileStream@@UAEPAXI@Z:PROC		; COutFileStream::`vector deleting destructor'
;	COMDAT ??_R1A@?0A@EA@CMyUnknownImp@@8
rdata$r	SEGMENT
??_R1A@?0A@EA@CMyUnknownImp@@8 DD FLAT:??_R0?AVCMyUnknownImp@@@8 ; CMyUnknownImp::`RTTI Base Class Descriptor at (0,-1,0,64)'
	DD	00H
	DD	00H
	DD	0ffffffffH
	DD	00H
	DD	040H
	DD	FLAT:??_R3CMyUnknownImp@@8
rdata$r	ENDS
;	COMDAT ??_R2CMyUnknownImp@@8
rdata$r	SEGMENT
??_R2CMyUnknownImp@@8 DD FLAT:??_R1A@?0A@EA@CMyUnknownImp@@8 ; CMyUnknownImp::`RTTI Base Class Array'
rdata$r	ENDS
;	COMDAT ??_R3CMyUnknownImp@@8
rdata$r	SEGMENT
??_R3CMyUnknownImp@@8 DD 00H				; CMyUnknownImp::`RTTI Class Hierarchy Descriptor'
	DD	00H
	DD	01H
	DD	FLAT:??_R2CMyUnknownImp@@8
rdata$r	ENDS
;	COMDAT ??_R0?AVCMyUnknownImp@@@8
_DATA	SEGMENT
??_R0?AVCMyUnknownImp@@@8 DD FLAT:??_7type_info@@6B@	; CMyUnknownImp `RTTI Type Descriptor'
	DD	00H
	DB	'.?AVCMyUnknownImp@@', 00H
_DATA	ENDS
;	COMDAT ??_R13?0A@EA@CMyUnknownImp@@8
rdata$r	SEGMENT
??_R13?0A@EA@CMyUnknownImp@@8 DD FLAT:??_R0?AVCMyUnknownImp@@@8 ; CMyUnknownImp::`RTTI Base Class Descriptor at (4,-1,0,64)'
	DD	00H
	DD	04H
	DD	0ffffffffH
	DD	00H
	DD	040H
	DD	FLAT:??_R3CMyUnknownImp@@8
rdata$r	ENDS
;	COMDAT ??_R2IUnknown@@8
rdata$r	SEGMENT
??_R2IUnknown@@8 DD FLAT:??_R1A@?0A@EA@IUnknown@@8	; IUnknown::`RTTI Base Class Array'
rdata$r	ENDS
;	COMDAT ??_R3IUnknown@@8
rdata$r	SEGMENT
??_R3IUnknown@@8 DD 00H					; IUnknown::`RTTI Class Hierarchy Descriptor'
	DD	00H
	DD	01H
	DD	FLAT:??_R2IUnknown@@8
rdata$r	ENDS
;	COMDAT ??_R0?AUIUnknown@@@8
_DATA	SEGMENT
??_R0?AUIUnknown@@@8 DD FLAT:??_7type_info@@6B@		; IUnknown `RTTI Type Descriptor'
	DD	00H
	DB	'.?AUIUnknown@@', 00H
_DATA	ENDS
;	COMDAT ??_R1A@?0A@EA@IUnknown@@8
rdata$r	SEGMENT
??_R1A@?0A@EA@IUnknown@@8 DD FLAT:??_R0?AUIUnknown@@@8	; IUnknown::`RTTI Base Class Descriptor at (0,-1,0,64)'
	DD	00H
	DD	00H
	DD	0ffffffffH
	DD	00H
	DD	040H
	DD	FLAT:??_R3IUnknown@@8
rdata$r	ENDS
;	COMDAT ??_R2ISequentialOutStream@@8
rdata$r	SEGMENT
??_R2ISequentialOutStream@@8 DD FLAT:??_R1A@?0A@EA@ISequentialOutStream@@8 ; ISequentialOutStream::`RTTI Base Class Array'
	DD	FLAT:??_R1A@?0A@EA@IUnknown@@8
rdata$r	ENDS
;	COMDAT ??_R3ISequentialOutStream@@8
rdata$r	SEGMENT
??_R3ISequentialOutStream@@8 DD 00H			; ISequentialOutStream::`RTTI Class Hierarchy Descriptor'
	DD	00H
	DD	02H
	DD	FLAT:??_R2ISequentialOutStream@@8
rdata$r	ENDS
;	COMDAT ??_R0?AUISequentialOutStream@@@8
_DATA	SEGMENT
??_R0?AUISequentialOutStream@@@8 DD FLAT:??_7type_info@@6B@ ; ISequentialOutStream `RTTI Type Descriptor'
	DD	00H
	DB	'.?AUISequentialOutStream@@', 00H
_DATA	ENDS
;	COMDAT ??_R1A@?0A@EA@ISequentialOutStream@@8
rdata$r	SEGMENT
??_R1A@?0A@EA@ISequentialOutStream@@8 DD FLAT:??_R0?AUISequentialOutStream@@@8 ; ISequentialOutStream::`RTTI Base Class Descriptor at (0,-1,0,64)'
	DD	01H
	DD	00H
	DD	0ffffffffH
	DD	00H
	DD	040H
	DD	FLAT:??_R3ISequentialOutStream@@8
rdata$r	ENDS
;	COMDAT ??_R2IOutStream@@8
rdata$r	SEGMENT
??_R2IOutStream@@8 DD FLAT:??_R1A@?0A@EA@IOutStream@@8	; IOutStream::`RTTI Base Class Array'
	DD	FLAT:??_R1A@?0A@EA@ISequentialOutStream@@8
	DD	FLAT:??_R1A@?0A@EA@IUnknown@@8
rdata$r	ENDS
;	COMDAT ??_R3IOutStream@@8
rdata$r	SEGMENT
??_R3IOutStream@@8 DD 00H				; IOutStream::`RTTI Class Hierarchy Descriptor'
	DD	00H
	DD	03H
	DD	FLAT:??_R2IOutStream@@8
rdata$r	ENDS
;	COMDAT ??_R0?AUIOutStream@@@8
_DATA	SEGMENT
??_R0?AUIOutStream@@@8 DD FLAT:??_7type_info@@6B@	; IOutStream `RTTI Type Descriptor'
	DD	00H
	DB	'.?AUIOutStream@@', 00H
_DATA	ENDS
;	COMDAT ??_R1A@?0A@EA@IOutStream@@8
rdata$r	SEGMENT
??_R1A@?0A@EA@IOutStream@@8 DD FLAT:??_R0?AUIOutStream@@@8 ; IOutStream::`RTTI Base Class Descriptor at (0,-1,0,64)'
	DD	02H
	DD	00H
	DD	0ffffffffH
	DD	00H
	DD	040H
	DD	FLAT:??_R3IOutStream@@8
rdata$r	ENDS
;	COMDAT ??_R1A@?0A@EA@COutFileStream@@8
rdata$r	SEGMENT
??_R1A@?0A@EA@COutFileStream@@8 DD FLAT:??_R0?AVCOutFileStream@@@8 ; COutFileStream::`RTTI Base Class Descriptor at (0,-1,0,64)'
	DD	04H
	DD	00H
	DD	0ffffffffH
	DD	00H
	DD	040H
	DD	FLAT:??_R3COutFileStream@@8
rdata$r	ENDS
;	COMDAT ??_R2COutFileStream@@8
rdata$r	SEGMENT
??_R2COutFileStream@@8 DD FLAT:??_R1A@?0A@EA@COutFileStream@@8 ; COutFileStream::`RTTI Base Class Array'
	DD	FLAT:??_R1A@?0A@EA@IOutStream@@8
	DD	FLAT:??_R1A@?0A@EA@ISequentialOutStream@@8
	DD	FLAT:??_R1A@?0A@EA@IUnknown@@8
	DD	FLAT:??_R13?0A@EA@CMyUnknownImp@@8
rdata$r	ENDS
;	COMDAT ??_R3COutFileStream@@8
rdata$r	SEGMENT
??_R3COutFileStream@@8 DD 00H				; COutFileStream::`RTTI Class Hierarchy Descriptor'
	DD	01H
	DD	05H
	DD	FLAT:??_R2COutFileStream@@8
rdata$r	ENDS
;	COMDAT ??_R0?AVCOutFileStream@@@8
_DATA	SEGMENT
??_R0?AVCOutFileStream@@@8 DD FLAT:??_7type_info@@6B@	; COutFileStream `RTTI Type Descriptor'
	DD	00H
	DB	'.?AVCOutFileStream@@', 00H
_DATA	ENDS
;	COMDAT ??_R4COutFileStream@@6B@
rdata$r	SEGMENT
??_R4COutFileStream@@6B@ DD 00H				; COutFileStream::`RTTI Complete Object Locator'
	DD	00H
	DD	00H
	DD	FLAT:??_R0?AVCOutFileStream@@@8
	DD	FLAT:??_R3COutFileStream@@8
rdata$r	ENDS
;	COMDAT ??_7COutFileStream@@6B@
CONST	SEGMENT
??_7COutFileStream@@6B@ DD FLAT:??_R4COutFileStream@@6B@ ; COutFileStream::`vftable'
	DD	FLAT:?QueryInterface@COutFileStream@@UAGJABU_GUID@@PAPAX@Z
	DD	FLAT:?AddRef@COutFileStream@@UAGKXZ
	DD	FLAT:?Release@COutFileStream@@UAGKXZ
	DD	FLAT:?Write@COutFileStream@@UAGJPBXIPAI@Z
	DD	FLAT:?Seek@COutFileStream@@UAGJ_JIPA_K@Z
	DD	FLAT:?SetSize@COutFileStream@@UAGJ_K@Z
	DD	FLAT:??_ECOutFileStream@@UAEPAXI@Z
; Function compile flags: /Odtp /RTCsu
CONST	ENDS
;	COMDAT ??0COutFileStream@@QAE@XZ
_TEXT	SEGMENT
_this$ = -4						; size = 4
??0COutFileStream@@QAE@XZ PROC				; COutFileStream::COutFileStream, COMDAT
; _this$ = ecx
	push	ebp
	mov	ebp, esp
	push	ecx
	mov	DWORD PTR [ebp-4], -858993460		; ccccccccH
	mov	DWORD PTR _this$[ebp], ecx
	mov	ecx, DWORD PTR _this$[ebp]
	call	??0IOutStream@@QAE@XZ
	mov	ecx, DWORD PTR _this$[ebp]
	add	ecx, 4
	call	??0CMyUnknownImp@@QAE@XZ		; CMyUnknownImp::CMyUnknownImp
	mov	eax, DWORD PTR _this$[ebp]
	mov	DWORD PTR [eax], OFFSET ??_7COutFileStream@@6B@
	mov	ecx, DWORD PTR _this$[ebp]
	add	ecx, 8
	call	??0COutFile@NIO@NFile@NWindows@@QAE@XZ
	mov	eax, DWORD PTR _this$[ebp]
	add	esp, 4
	cmp	ebp, esp
	call	__RTC_CheckEsp
	mov	esp, ebp
	pop	ebp
	ret	0
??0COutFileStream@@QAE@XZ ENDP				; COutFileStream::COutFileStream
; Function compile flags: /Odtp /RTCsu
_TEXT	ENDS
;	COMDAT ??0CMyUnknownImp@@QAE@XZ
_TEXT	SEGMENT
_this$ = -4						; size = 4
??0CMyUnknownImp@@QAE@XZ PROC				; CMyUnknownImp::CMyUnknownImp, COMDAT
; _this$ = ecx
; File c:\workspace\7z1505-src\cpp\common\mycom.h
; Line 167
	push	ebp
	mov	ebp, esp
	push	ecx
	mov	DWORD PTR [ebp-4], -858993460		; ccccccccH
	mov	DWORD PTR _this$[ebp], ecx
	mov	eax, DWORD PTR _this$[ebp]
	mov	DWORD PTR [eax], 0
	mov	eax, DWORD PTR _this$[ebp]
	mov	esp, ebp
	pop	ebp
	ret	0
??0CMyUnknownImp@@QAE@XZ ENDP				; CMyUnknownImp::CMyUnknownImp
_TEXT	ENDS
PUBLIC	_==@8
EXTRN	_IID_IOutStream:BYTE
EXTRN	_IID_IUnknown:BYTE
; Function compile flags: /Odtp /RTCsu
;	COMDAT ?QueryInterface@COutFileStream@@UAGJABU_GUID@@PAPAX@Z
_TEXT	SEGMENT
_this$ = 8						; size = 4
_iid$ = 12						; size = 4
_outObject$ = 16					; size = 4
?QueryInterface@COutFileStream@@UAGJABU_GUID@@PAPAX@Z PROC ; COutFileStream::QueryInterface, COMDAT
; File c:\workspace\7z1505-src\cpp\7zip\common\filestreams.h
; Line 143
	push	ebp
	mov	ebp, esp
	mov	eax, DWORD PTR _outObject$[ebp]
	mov	DWORD PTR [eax], 0
	push	OFFSET _IID_IUnknown
	mov	ecx, DWORD PTR _iid$[ebp]
	push	ecx
	call	_==@8
	test	eax, eax
	je	SHORT $LN4@QueryInter
	mov	edx, DWORD PTR _outObject$[ebp]
	mov	eax, DWORD PTR _this$[ebp]
	mov	DWORD PTR [edx], eax
	jmp	SHORT $LN3@QueryInter
$LN4@QueryInter:
	push	OFFSET _IID_IOutStream
	mov	ecx, DWORD PTR _iid$[ebp]
	push	ecx
	call	_==@8
	test	eax, eax
	je	SHORT $LN2@QueryInter
	mov	edx, DWORD PTR _outObject$[ebp]
	mov	eax, DWORD PTR _this$[ebp]
	mov	DWORD PTR [edx], eax
	jmp	SHORT $LN3@QueryInter
$LN2@QueryInter:
	mov	eax, -2147467262			; 80004002H
	jmp	SHORT $LN5@QueryInter
$LN3@QueryInter:
	mov	ecx, DWORD PTR _this$[ebp]
	mov	edx, DWORD PTR [ecx+4]
	add	edx, 1
	mov	eax, DWORD PTR _this$[ebp]
	mov	DWORD PTR [eax+4], edx
	xor	eax, eax
$LN5@QueryInter:
	cmp	ebp, esp
	call	__RTC_CheckEsp
	pop	ebp
	ret	12					; 0000000cH
?QueryInterface@COutFileStream@@UAGJABU_GUID@@PAPAX@Z ENDP ; COutFileStream::QueryInterface
_TEXT	ENDS
PUBLIC	_IsEqualGUID@8
; Function compile flags: /Odtp /RTCsu
;	COMDAT _==@8
_TEXT	SEGMENT
_guidOne$ = 8						; size = 4
_guidOther$ = 12					; size = 4
_==@8	PROC						; COMDAT
; File c:\program files (x86)\microsoft sdks\windows\v7.0a\include\guiddef.h
; Line 193
	push	ebp
	mov	ebp, esp
; Line 194
	mov	eax, DWORD PTR _guidOther$[ebp]
	push	eax
	mov	ecx, DWORD PTR _guidOne$[ebp]
	push	ecx
	call	_IsEqualGUID@8
; Line 195
	cmp	ebp, esp
	call	__RTC_CheckEsp
	pop	ebp
	ret	8
_==@8	ENDP
_TEXT	ENDS
EXTRN	_memcmp:PROC
; Function compile flags: /Odtp /RTCsu
;	COMDAT _IsEqualGUID@8
_TEXT	SEGMENT
_rguid1$ = 8						; size = 4
_rguid2$ = 12						; size = 4
_IsEqualGUID@8 PROC					; COMDAT
; Line 160
	push	ebp
	mov	ebp, esp
; Line 161
	push	16					; 00000010H
	mov	eax, DWORD PTR _rguid2$[ebp]
	push	eax
	mov	ecx, DWORD PTR _rguid1$[ebp]
	push	ecx
	call	_memcmp
	add	esp, 12					; 0000000cH
	neg	eax
	sbb	eax, eax
	add	eax, 1
; Line 162
	cmp	ebp, esp
	call	__RTC_CheckEsp
	pop	ebp
	ret	8
_IsEqualGUID@8 ENDP
; Function compile flags: /Odtp /RTCsu
_TEXT	ENDS
;	COMDAT ?AddRef@COutFileStream@@UAGKXZ
_TEXT	SEGMENT
tv70 = -4						; size = 4
_this$ = 8						; size = 4
?AddRef@COutFileStream@@UAGKXZ PROC			; COutFileStream::AddRef, COMDAT
; File c:\workspace\7z1505-src\cpp\7zip\common\filestreams.h
; Line 143
	push	ebp
	mov	ebp, esp
	push	ecx
	mov	DWORD PTR [ebp-4], -858993460		; ccccccccH
	mov	eax, DWORD PTR _this$[ebp]
	mov	ecx, DWORD PTR [eax+4]
	add	ecx, 1
	mov	DWORD PTR tv70[ebp], ecx
	mov	edx, DWORD PTR _this$[ebp]
	mov	eax, DWORD PTR tv70[ebp]
	mov	DWORD PTR [edx+4], eax
	mov	eax, DWORD PTR tv70[ebp]
	mov	esp, ebp
	pop	ebp
	ret	4
?AddRef@COutFileStream@@UAGKXZ ENDP			; COutFileStream::AddRef
; Function compile flags: /Odtp /RTCsu
_TEXT	ENDS
;	COMDAT ?Release@COutFileStream@@UAGKXZ
_TEXT	SEGMENT
tv83 = -16						; size = 4
tv70 = -12						; size = 4
$T77340 = -8						; size = 4
$T77339 = -4						; size = 4
_this$ = 8						; size = 4
?Release@COutFileStream@@UAGKXZ PROC			; COutFileStream::Release, COMDAT
; Line 143
	push	ebp
	mov	ebp, esp
	sub	esp, 16					; 00000010H
	push	esi
	mov	eax, -858993460				; ccccccccH
	mov	DWORD PTR [ebp-16], eax
	mov	DWORD PTR [ebp-12], eax
	mov	DWORD PTR [ebp-8], eax
	mov	DWORD PTR [ebp-4], eax
	mov	eax, DWORD PTR _this$[ebp]
	mov	ecx, DWORD PTR [eax+4]
	sub	ecx, 1
	mov	DWORD PTR tv70[ebp], ecx
	mov	edx, DWORD PTR _this$[ebp]
	mov	eax, DWORD PTR tv70[ebp]
	mov	DWORD PTR [edx+4], eax
	cmp	DWORD PTR tv70[ebp], 0
	je	SHORT $LN1@Release
	mov	ecx, DWORD PTR _this$[ebp]
	mov	eax, DWORD PTR [ecx+4]
	jmp	SHORT $LN2@Release
$LN1@Release:
	mov	edx, DWORD PTR _this$[ebp]
	mov	DWORD PTR $T77340[ebp], edx
	mov	eax, DWORD PTR $T77340[ebp]
	mov	DWORD PTR $T77339[ebp], eax
	cmp	DWORD PTR $T77339[ebp], 0
	je	SHORT $LN4@Release
	mov	esi, esp
	push	1
	mov	ecx, DWORD PTR $T77339[ebp]
	mov	edx, DWORD PTR [ecx]
	mov	ecx, DWORD PTR $T77339[ebp]
	mov	eax, DWORD PTR [edx+24]
	call	eax
	cmp	esi, esp
	call	__RTC_CheckEsp
	mov	DWORD PTR tv83[ebp], eax
	jmp	SHORT $LN5@Release
$LN4@Release:
	mov	DWORD PTR tv83[ebp], 0
$LN5@Release:
	xor	eax, eax
$LN2@Release:
	pop	esi
	add	esp, 16					; 00000010H
	cmp	ebp, esp
	call	__RTC_CheckEsp
	mov	esp, ebp
	pop	ebp
	ret	4
?Release@COutFileStream@@UAGKXZ ENDP			; COutFileStream::Release
_TEXT	ENDS
PUBLIC	??1COutFileStream@@UAE@XZ			; COutFileStream::~COutFileStream
; Function compile flags: /Odtp /RTCsu
;	COMDAT ??_GCOutFileStream@@UAEPAXI@Z
_TEXT	SEGMENT
_this$ = -4						; size = 4
___flags$ = 8						; size = 4
??_GCOutFileStream@@UAEPAXI@Z PROC			; COutFileStream::`scalar deleting destructor', COMDAT
; _this$ = ecx
	push	ebp
	mov	ebp, esp
	push	ecx
	mov	DWORD PTR [ebp-4], -858993460		; ccccccccH
	mov	DWORD PTR _this$[ebp], ecx
	mov	ecx, DWORD PTR _this$[ebp]
	call	??1COutFileStream@@UAE@XZ		; COutFileStream::~COutFileStream
	mov	eax, DWORD PTR ___flags$[ebp]
	and	eax, 1
	je	SHORT $LN1@scalar
	mov	ecx, DWORD PTR _this$[ebp]
	push	ecx
	call	??3@YAXPAX@Z				; operator delete
	add	esp, 4
$LN1@scalar:
	mov	eax, DWORD PTR _this$[ebp]
	add	esp, 4
	cmp	ebp, esp
	call	__RTC_CheckEsp
	mov	esp, ebp
	pop	ebp
	ret	4
??_GCOutFileStream@@UAEPAXI@Z ENDP			; COutFileStream::`scalar deleting destructor'
_TEXT	ENDS
PUBLIC	??1COutFile@NIO@NFile@NWindows@@QAE@XZ		; NWindows::NFile::NIO::COutFile::~COutFile
; Function compile flags: /Odtp /RTCsu
;	COMDAT ??1COutFileStream@@UAE@XZ
_TEXT	SEGMENT
_this$ = -4						; size = 4
??1COutFileStream@@UAE@XZ PROC				; COutFileStream::~COutFileStream, COMDAT
; _this$ = ecx
; Line 118
	push	ebp
	mov	ebp, esp
	push	ecx
	mov	DWORD PTR [ebp-4], -858993460		; ccccccccH
	mov	DWORD PTR _this$[ebp], ecx
	mov	eax, DWORD PTR _this$[ebp]
	mov	DWORD PTR [eax], OFFSET ??_7COutFileStream@@6B@
	mov	ecx, DWORD PTR _this$[ebp]
	add	ecx, 8
	call	??1COutFile@NIO@NFile@NWindows@@QAE@XZ
	add	esp, 4
	cmp	ebp, esp
	call	__RTC_CheckEsp
	mov	esp, ebp
	pop	ebp
	ret	0
??1COutFileStream@@UAE@XZ ENDP				; COutFileStream::~COutFileStream
_TEXT	ENDS
PUBLIC	??1CFileBase@NIO@NFile@NWindows@@QAE@XZ		; NWindows::NFile::NIO::CFileBase::~CFileBase
; Function compile flags: /Odtp /RTCsu
;	COMDAT ??1COutFile@NIO@NFile@NWindows@@QAE@XZ
_TEXT	SEGMENT
_this$ = -4						; size = 4
??1COutFile@NIO@NFile@NWindows@@QAE@XZ PROC		; NWindows::NFile::NIO::COutFile::~COutFile, COMDAT
; _this$ = ecx
	push	ebp
	mov	ebp, esp
	push	ecx
	mov	DWORD PTR [ebp-4], -858993460		; ccccccccH
	mov	DWORD PTR _this$[ebp], ecx
	mov	ecx, DWORD PTR _this$[ebp]
	call	??1CFileBase@NIO@NFile@NWindows@@QAE@XZ	; NWindows::NFile::NIO::CFileBase::~CFileBase
	add	esp, 4
	cmp	ebp, esp
	call	__RTC_CheckEsp
	mov	esp, ebp
	pop	ebp
	ret	0
??1COutFile@NIO@NFile@NWindows@@QAE@XZ ENDP		; NWindows::NFile::NIO::COutFile::~COutFile
_TEXT	ENDS
EXTRN	?Close@CFileBase@NIO@NFile@NWindows@@QAE_NXZ:PROC ; NWindows::NFile::NIO::CFileBase::Close
; Function compile flags: /Odtp /RTCsu
;	COMDAT ??1CFileBase@NIO@NFile@NWindows@@QAE@XZ
_TEXT	SEGMENT
_this$ = -4						; size = 4
??1CFileBase@NIO@NFile@NWindows@@QAE@XZ PROC		; NWindows::NFile::NIO::CFileBase::~CFileBase, COMDAT
; _this$ = ecx
; File c:\workspace\7z1505-src\cpp\windows\fileio.h
; Line 98
	push	ebp
	mov	ebp, esp
	push	ecx
	mov	DWORD PTR [ebp-4], -858993460		; ccccccccH
	mov	DWORD PTR _this$[ebp], ecx
	mov	ecx, DWORD PTR _this$[ebp]
	call	?Close@CFileBase@NIO@NFile@NWindows@@QAE_NXZ ; NWindows::NFile::NIO::CFileBase::Close
	add	esp, 4
	cmp	ebp, esp
	call	__RTC_CheckEsp
	mov	esp, ebp
	pop	ebp
	ret	0
??1CFileBase@NIO@NFile@NWindows@@QAE@XZ ENDP		; NWindows::NFile::NIO::CFileBase::~CFileBase
_TEXT	ENDS
PUBLIC	??_7IOutStream@@6B@				; IOutStream::`vftable'
PUBLIC	??0ISequentialOutStream@@QAE@XZ			; ISequentialOutStream::ISequentialOutStream
PUBLIC	??_R4IOutStream@@6B@				; IOutStream::`RTTI Complete Object Locator'
EXTRN	__purecall:PROC
;	COMDAT ??_R4IOutStream@@6B@
rdata$r	SEGMENT
??_R4IOutStream@@6B@ DD 00H				; IOutStream::`RTTI Complete Object Locator'
	DD	00H
	DD	00H
	DD	FLAT:??_R0?AUIOutStream@@@8
	DD	FLAT:??_R3IOutStream@@8
rdata$r	ENDS
;	COMDAT ??_7IOutStream@@6B@
CONST	SEGMENT
??_7IOutStream@@6B@ DD FLAT:??_R4IOutStream@@6B@	; IOutStream::`vftable'
	DD	FLAT:__purecall
	DD	FLAT:__purecall
	DD	FLAT:__purecall
	DD	FLAT:__purecall
	DD	FLAT:__purecall
	DD	FLAT:__purecall
; Function compile flags: /Odtp /RTCsu
CONST	ENDS
;	COMDAT ??0IOutStream@@QAE@XZ
_TEXT	SEGMENT
_this$ = -4						; size = 4
??0IOutStream@@QAE@XZ PROC				; IOutStream::IOutStream, COMDAT
; _this$ = ecx
	push	ebp
	mov	ebp, esp
	push	ecx
	mov	DWORD PTR [ebp-4], -858993460		; ccccccccH
	mov	DWORD PTR _this$[ebp], ecx
	mov	ecx, DWORD PTR _this$[ebp]
	call	??0ISequentialOutStream@@QAE@XZ
	mov	eax, DWORD PTR _this$[ebp]
	mov	DWORD PTR [eax], OFFSET ??_7IOutStream@@6B@
	mov	eax, DWORD PTR _this$[ebp]
	add	esp, 4
	cmp	ebp, esp
	call	__RTC_CheckEsp
	mov	esp, ebp
	pop	ebp
	ret	0
??0IOutStream@@QAE@XZ ENDP				; IOutStream::IOutStream
_TEXT	ENDS
PUBLIC	??_7ISequentialOutStream@@6B@			; ISequentialOutStream::`vftable'
PUBLIC	??0IUnknown@@QAE@XZ				; IUnknown::IUnknown
PUBLIC	??_R4ISequentialOutStream@@6B@			; ISequentialOutStream::`RTTI Complete Object Locator'
;	COMDAT ??_R4ISequentialOutStream@@6B@
rdata$r	SEGMENT
??_R4ISequentialOutStream@@6B@ DD 00H			; ISequentialOutStream::`RTTI Complete Object Locator'
	DD	00H
	DD	00H
	DD	FLAT:??_R0?AUISequentialOutStream@@@8
	DD	FLAT:??_R3ISequentialOutStream@@8
rdata$r	ENDS
;	COMDAT ??_7ISequentialOutStream@@6B@
CONST	SEGMENT
??_7ISequentialOutStream@@6B@ DD FLAT:??_R4ISequentialOutStream@@6B@ ; ISequentialOutStream::`vftable'
	DD	FLAT:__purecall
	DD	FLAT:__purecall
	DD	FLAT:__purecall
	DD	FLAT:__purecall
; Function compile flags: /Odtp /RTCsu
CONST	ENDS
;	COMDAT ??0ISequentialOutStream@@QAE@XZ
_TEXT	SEGMENT
_this$ = -4						; size = 4
??0ISequentialOutStream@@QAE@XZ PROC			; ISequentialOutStream::ISequentialOutStream, COMDAT
; _this$ = ecx
	push	ebp
	mov	ebp, esp
	push	ecx
	mov	DWORD PTR [ebp-4], -858993460		; ccccccccH
	mov	DWORD PTR _this$[ebp], ecx
	mov	ecx, DWORD PTR _this$[ebp]
	call	??0IUnknown@@QAE@XZ
	mov	eax, DWORD PTR _this$[ebp]
	mov	DWORD PTR [eax], OFFSET ??_7ISequentialOutStream@@6B@
	mov	eax, DWORD PTR _this$[ebp]
	add	esp, 4
	cmp	ebp, esp
	call	__RTC_CheckEsp
	mov	esp, ebp
	pop	ebp
	ret	0
??0ISequentialOutStream@@QAE@XZ ENDP			; ISequentialOutStream::ISequentialOutStream
; Function compile flags: /Odtp /RTCsu
_TEXT	ENDS
;	COMDAT ??0IUnknown@@QAE@XZ
_TEXT	SEGMENT
_this$ = -4						; size = 4
??0IUnknown@@QAE@XZ PROC				; IUnknown::IUnknown, COMDAT
; _this$ = ecx
	push	ebp
	mov	ebp, esp
	push	ecx
	mov	DWORD PTR [ebp-4], -858993460		; ccccccccH
	mov	DWORD PTR _this$[ebp], ecx
	mov	eax, DWORD PTR _this$[ebp]
	mov	esp, ebp
	pop	ebp
	ret	0
??0IUnknown@@QAE@XZ ENDP				; IUnknown::IUnknown
_TEXT	ENDS
PUBLIC	??0CFileBase@NIO@NFile@NWindows@@QAE@XZ		; NWindows::NFile::NIO::CFileBase::CFileBase
; Function compile flags: /Odtp /RTCsu
;	COMDAT ??0COutFile@NIO@NFile@NWindows@@QAE@XZ
_TEXT	SEGMENT
_this$ = -4						; size = 4
??0COutFile@NIO@NFile@NWindows@@QAE@XZ PROC		; NWindows::NFile::NIO::COutFile::COutFile, COMDAT
; _this$ = ecx
	push	ebp
	mov	ebp, esp
	push	ecx
	mov	DWORD PTR [ebp-4], -858993460		; ccccccccH
	mov	DWORD PTR _this$[ebp], ecx
	mov	ecx, DWORD PTR _this$[ebp]
	call	??0CFileBase@NIO@NFile@NWindows@@QAE@XZ	; NWindows::NFile::NIO::CFileBase::CFileBase
	mov	eax, DWORD PTR _this$[ebp]
	add	esp, 4
	cmp	ebp, esp
	call	__RTC_CheckEsp
	mov	esp, ebp
	pop	ebp
	ret	0
??0COutFile@NIO@NFile@NWindows@@QAE@XZ ENDP		; NWindows::NFile::NIO::COutFile::COutFile
; Function compile flags: /Odtp /RTCsu
_TEXT	ENDS
;	COMDAT ??0CFileBase@NIO@NFile@NWindows@@QAE@XZ
_TEXT	SEGMENT
_this$ = -4						; size = 4
??0CFileBase@NIO@NFile@NWindows@@QAE@XZ PROC		; NWindows::NFile::NIO::CFileBase::CFileBase, COMDAT
; _this$ = ecx
; Line 97
	push	ebp
	mov	ebp, esp
	push	ecx
	mov	DWORD PTR [ebp-4], -858993460		; ccccccccH
	mov	DWORD PTR _this$[ebp], ecx
	mov	eax, DWORD PTR _this$[ebp]
	mov	DWORD PTR [eax], -1
	mov	eax, DWORD PTR _this$[ebp]
	mov	esp, ebp
	pop	ebp
	ret	0
??0CFileBase@NIO@NFile@NWindows@@QAE@XZ ENDP		; NWindows::NFile::NIO::CFileBase::CFileBase
_TEXT	ENDS
PUBLIC	?Seek@COutMultiVolStream@@UAGJ_JIPA_K@Z		; COutMultiVolStream::Seek
; Function compile flags: /Odtp /RTCsu
_TEXT	SEGMENT
tv65 = -4						; size = 4
_this$ = 8						; size = 4
_offset$ = 12						; size = 8
_seekOrigin$ = 20					; size = 4
_newPosition$ = 24					; size = 4
?Seek@COutMultiVolStream@@UAGJ_JIPA_K@Z PROC		; COutMultiVolStream::Seek
; File c:\workspace\7z1505-src\cpp\7zip\ui\common\update.cpp
; Line 236
	push	ebp
	mov	ebp, esp
	push	ecx
	mov	DWORD PTR [ebp-4], -858993460		; ccccccccH
; Line 237
	cmp	DWORD PTR _seekOrigin$[ebp], 3
	jb	SHORT $LN7@Seek
; Line 238
	mov	eax, -2147287039			; 80030001H
	jmp	$LN8@Seek
$LN7@Seek:
; Line 239
	mov	eax, DWORD PTR _seekOrigin$[ebp]
	mov	DWORD PTR tv65[ebp], eax
	cmp	DWORD PTR tv65[ebp], 0
	je	SHORT $LN4@Seek
	cmp	DWORD PTR tv65[ebp], 1
	je	SHORT $LN3@Seek
	cmp	DWORD PTR tv65[ebp], 2
	je	SHORT $LN2@Seek
	jmp	SHORT $LN5@Seek
$LN4@Seek:
; Line 241
	mov	ecx, DWORD PTR _this$[ebp]
	mov	edx, DWORD PTR _offset$[ebp]
	mov	DWORD PTR [ecx+24], edx
	mov	eax, DWORD PTR _offset$[ebp+4]
	mov	DWORD PTR [ecx+28], eax
	jmp	SHORT $LN5@Seek
$LN3@Seek:
; Line 242
	mov	ecx, DWORD PTR _this$[ebp]
	mov	edx, DWORD PTR [ecx+24]
	add	edx, DWORD PTR _offset$[ebp]
	mov	eax, DWORD PTR [ecx+28]
	adc	eax, DWORD PTR _offset$[ebp+4]
	mov	ecx, DWORD PTR _this$[ebp]
	mov	DWORD PTR [ecx+24], edx
	mov	DWORD PTR [ecx+28], eax
	jmp	SHORT $LN5@Seek
$LN2@Seek:
; Line 243
	mov	edx, DWORD PTR _this$[ebp]
	mov	eax, DWORD PTR [edx+32]
	add	eax, DWORD PTR _offset$[ebp]
	mov	ecx, DWORD PTR [edx+36]
	adc	ecx, DWORD PTR _offset$[ebp+4]
	mov	edx, DWORD PTR _this$[ebp]
	mov	DWORD PTR [edx+24], eax
	mov	DWORD PTR [edx+28], ecx
$LN5@Seek:
; Line 245
	mov	eax, DWORD PTR _this$[ebp]
	mov	ecx, DWORD PTR _this$[ebp]
	mov	edx, DWORD PTR [ecx+24]
	mov	DWORD PTR [eax+16], edx
	mov	ecx, DWORD PTR [ecx+28]
	mov	DWORD PTR [eax+20], ecx
; Line 246
	cmp	DWORD PTR _newPosition$[ebp], 0
	je	SHORT $LN1@Seek
; Line 247
	mov	edx, DWORD PTR _newPosition$[ebp]
	mov	eax, DWORD PTR _this$[ebp]
	mov	ecx, DWORD PTR [eax+24]
	mov	DWORD PTR [edx], ecx
	mov	eax, DWORD PTR [eax+28]
	mov	DWORD PTR [edx+4], eax
$LN1@Seek:
; Line 248
	mov	ecx, DWORD PTR _this$[ebp]
	mov	DWORD PTR [ecx+8], 0
; Line 249
	xor	eax, eax
$LN8@Seek:
; Line 250
	mov	esp, ebp
	pop	ebp
	ret	20					; 00000014H
?Seek@COutMultiVolStream@@UAGJ_JIPA_K@Z ENDP		; COutMultiVolStream::Seek
_TEXT	ENDS
PUBLIC	?DeleteBack@?$CObjectVector@UCAltStreamInfo@COutMultiVolStream@@@@QAEXXZ ; CObjectVector<COutMultiVolStream::CAltStreamInfo>::DeleteBack
PUBLIC	?Release@?$CMyComPtr@UIOutStream@@@@QAEXXZ	; CMyComPtr<IOutStream>::Release
PUBLIC	?Back@?$CObjectVector@UCAltStreamInfo@COutMultiVolStream@@@@QAEAAUCAltStreamInfo@COutMultiVolStream@@XZ ; CObjectVector<COutMultiVolStream::CAltStreamInfo>::Back
PUBLIC	?SetSize@COutMultiVolStream@@UAGJ_K@Z		; COutMultiVolStream::SetSize
EXTRN	?DeleteFileAlways@NDir@NFile@NWindows@@YG_NPB_W@Z:PROC ; NWindows::NFile::NDir::DeleteFileAlways
; Function compile flags: /Odtp /RTCsu
_TEXT	SEGMENT
tv81 = -28						; size = 4
tv153 = -24						; size = 4
tv73 = -20						; size = 4
_altStream$74342 = -16					; size = 4
___result__$74337 = -12					; size = 4
_altStream$74334 = -8					; size = 4
_i$ = -4						; size = 4
_this$ = 8						; size = 4
_newSize$ = 12						; size = 8
?SetSize@COutMultiVolStream@@UAGJ_K@Z PROC		; COutMultiVolStream::SetSize
; Line 253
	push	ebp
	mov	ebp, esp
	sub	esp, 28					; 0000001cH
	push	esi
	mov	eax, -858993460				; ccccccccH
	mov	DWORD PTR [ebp-28], eax
	mov	DWORD PTR [ebp-24], eax
	mov	DWORD PTR [ebp-20], eax
	mov	DWORD PTR [ebp-16], eax
	mov	DWORD PTR [ebp-12], eax
	mov	DWORD PTR [ebp-8], eax
	mov	DWORD PTR [ebp-4], eax
; Line 254
	cmp	DWORD PTR _newSize$[ebp+4], 0
	ja	SHORT $LN7@SetSize
	jb	SHORT $LN10@SetSize
	cmp	DWORD PTR _newSize$[ebp], 0
	jae	SHORT $LN7@SetSize
$LN10@SetSize:
; Line 255
	mov	eax, -2147024809			; 80070057H
	jmp	$LN8@SetSize
$LN7@SetSize:
; Line 256
	mov	DWORD PTR _i$[ebp], 0
$LN6@SetSize:
; Line 257
	mov	ecx, DWORD PTR _this$[ebp]
	add	ecx, 40					; 00000028H
	call	?Size@?$CObjectVector@UCAltStreamInfo@COutMultiVolStream@@@@QBEIXZ ; CObjectVector<COutMultiVolStream::CAltStreamInfo>::Size
	cmp	DWORD PTR _i$[ebp], eax
	jae	$LN2@SetSize
; Line 259
	mov	eax, DWORD PTR _i$[ebp]
	mov	DWORD PTR tv73[ebp], eax
	mov	ecx, DWORD PTR _i$[ebp]
	add	ecx, 1
	mov	DWORD PTR _i$[ebp], ecx
	mov	edx, DWORD PTR tv73[ebp]
	push	edx
	mov	ecx, DWORD PTR _this$[ebp]
	add	ecx, 40					; 00000028H
	call	??A?$CObjectVector@UCAltStreamInfo@COutMultiVolStream@@@@QAEAAUCAltStreamInfo@COutMultiVolStream@@I@Z ; CObjectVector<COutMultiVolStream::CAltStreamInfo>::operator[]
	mov	DWORD PTR _altStream$74334[ebp], eax
; Line 260
	mov	eax, DWORD PTR _altStream$74334[ebp]
	mov	DWORD PTR tv153[ebp], eax
	mov	ecx, DWORD PTR tv153[ebp]
	mov	edx, DWORD PTR _newSize$[ebp+4]
	cmp	edx, DWORD PTR [ecx+36]
	ja	SHORT $LN4@SetSize
	jb	SHORT $LN11@SetSize
	mov	eax, DWORD PTR tv153[ebp]
	mov	ecx, DWORD PTR _newSize$[ebp]
	cmp	ecx, DWORD PTR [eax+32]
	jae	SHORT $LN4@SetSize
$LN11@SetSize:
; Line 262
	mov	ecx, DWORD PTR _altStream$74334[ebp]
	add	ecx, 4
	call	??C?$CMyComPtr@UIOutStream@@@@QBEPAUIOutStream@@XZ ; CMyComPtr<IOutStream>::operator->
	mov	DWORD PTR tv81[ebp], eax
	mov	esi, esp
	mov	edx, DWORD PTR _newSize$[ebp+4]
	push	edx
	mov	eax, DWORD PTR _newSize$[ebp]
	push	eax
	mov	ecx, DWORD PTR tv81[ebp]
	push	ecx
	mov	edx, DWORD PTR tv81[ebp]
	mov	eax, DWORD PTR [edx]
	mov	ecx, DWORD PTR [eax+20]
	call	ecx
	cmp	esi, esp
	call	__RTC_CheckEsp
	mov	DWORD PTR ___result__$74337[ebp], eax
	cmp	DWORD PTR ___result__$74337[ebp], 0
	je	SHORT $LN3@SetSize
	mov	eax, DWORD PTR ___result__$74337[ebp]
	jmp	$LN8@SetSize
$LN3@SetSize:
; Line 263
	mov	edx, DWORD PTR _altStream$74334[ebp]
	mov	eax, DWORD PTR _newSize$[ebp]
	mov	DWORD PTR [edx+32], eax
	mov	ecx, DWORD PTR _newSize$[ebp+4]
	mov	DWORD PTR [edx+36], ecx
; Line 264
	jmp	SHORT $LN2@SetSize
$LN4@SetSize:
; Line 266
	mov	edx, DWORD PTR _altStream$74334[ebp]
	mov	eax, DWORD PTR _newSize$[ebp]
	sub	eax, DWORD PTR [edx+32]
	mov	ecx, DWORD PTR _newSize$[ebp+4]
	sbb	ecx, DWORD PTR [edx+36]
	mov	DWORD PTR _newSize$[ebp], eax
	mov	DWORD PTR _newSize$[ebp+4], ecx
; Line 267
	jmp	$LN6@SetSize
$LN2@SetSize:
; Line 268
	mov	ecx, DWORD PTR _this$[ebp]
	add	ecx, 40					; 00000028H
	call	?Size@?$CObjectVector@UCAltStreamInfo@COutMultiVolStream@@@@QBEIXZ ; CObjectVector<COutMultiVolStream::CAltStreamInfo>::Size
	cmp	DWORD PTR _i$[ebp], eax
	jae	SHORT $LN1@SetSize
; Line 271
	mov	ecx, DWORD PTR _this$[ebp]
	add	ecx, 40					; 00000028H
	call	?Back@?$CObjectVector@UCAltStreamInfo@COutMultiVolStream@@@@QAEAAUCAltStreamInfo@COutMultiVolStream@@XZ ; CObjectVector<COutMultiVolStream::CAltStreamInfo>::Back
	mov	DWORD PTR _altStream$74342[ebp], eax
; Line 272
	mov	ecx, DWORD PTR _altStream$74342[ebp]
	add	ecx, 4
	call	?Release@?$CMyComPtr@UIOutStream@@@@QAEXXZ ; CMyComPtr<IOutStream>::Release
; Line 273
	mov	ecx, DWORD PTR _altStream$74342[ebp]
	add	ecx, 8
	call	??BUString@@QBEPB_WXZ			; UString::operator wchar_t const *
	push	eax
	call	?DeleteFileAlways@NDir@NFile@NWindows@@YG_NPB_W@Z ; NWindows::NFile::NDir::DeleteFileAlways
; Line 275
	mov	ecx, DWORD PTR _this$[ebp]
	add	ecx, 40					; 00000028H
	call	?DeleteBack@?$CObjectVector@UCAltStreamInfo@COutMultiVolStream@@@@QAEXXZ ; CObjectVector<COutMultiVolStream::CAltStreamInfo>::DeleteBack
; Line 276
	jmp	SHORT $LN2@SetSize
$LN1@SetSize:
; Line 277
	mov	edx, DWORD PTR _this$[ebp]
	mov	eax, DWORD PTR _this$[ebp]
	mov	ecx, DWORD PTR [eax+24]
	mov	DWORD PTR [edx+16], ecx
	mov	eax, DWORD PTR [eax+28]
	mov	DWORD PTR [edx+20], eax
; Line 278
	mov	ecx, DWORD PTR _this$[ebp]
	mov	DWORD PTR [ecx+8], 0
; Line 279
	mov	edx, DWORD PTR _this$[ebp]
	mov	eax, DWORD PTR _newSize$[ebp]
	mov	DWORD PTR [edx+32], eax
	mov	ecx, DWORD PTR _newSize$[ebp+4]
	mov	DWORD PTR [edx+36], ecx
; Line 280
	xor	eax, eax
$LN8@SetSize:
; Line 281
	pop	esi
	add	esp, 28					; 0000001cH
	cmp	ebp, esp
	call	__RTC_CheckEsp
	mov	esp, ebp
	pop	ebp
	ret	12					; 0000000cH
?SetSize@COutMultiVolStream@@UAGJ_K@Z ENDP		; COutMultiVolStream::SetSize
_TEXT	ENDS
PUBLIC	?DeleteFrom@UString@@QAEXI@Z			; UString::DeleteFrom
PUBLIC	?IsEqualTo_NoCase@UString@@QBE_NPB_W@Z		; UString::IsEqualTo_NoCase
PUBLIC	?Ptr@UString@@QBEPB_WI@Z			; UString::Ptr
PUBLIC	?DeleteBack@UString@@QAEXXZ			; UString::DeleteBack
PUBLIC	?ReverseFind_Dot@UString@@QBEHXZ		; UString::ReverseFind_Dot
PUBLIC	?Empty@UString@@QAEXXZ				; UString::Empty
PUBLIC	?ParseFromPath@CArchivePath@@QAEXABVUString@@W4EArcNameMode@@@Z ; CArchivePath::ParseFromPath
EXTRN	?SplitPathToParts_2@@YGXABVUString@@AAV1@1@Z:PROC ; SplitPathToParts_2
xdata$x	SEGMENT
__unwindtable$?ParseFromPath@CArchivePath@@QAEXABVUString@@W4EArcNameMode@@@Z DD 0ffffffffH
	DD	FLAT:__unwindfunclet$?ParseFromPath@CArchivePath@@QAEXABVUString@@W4EArcNameMode@@@Z$0
__ehfuncinfo$?ParseFromPath@CArchivePath@@QAEXABVUString@@W4EArcNameMode@@@Z DD 019930522H
	DD	01H
	DD	FLAT:__unwindtable$?ParseFromPath@CArchivePath@@QAEXABVUString@@W4EArcNameMode@@@Z
	DD	2 DUP(00H)
	DD	2 DUP(00H)
	DD	00H
	DD	01H
; Function compile flags: /Odtp /RTCsu
xdata$x	ENDS
_TEXT	SEGMENT
_ext$ = -36						; size = 12
_dotPos$ = -20						; size = 4
_this$ = -16						; size = 4
__$EHRec$ = -12						; size = 12
_path$ = 8						; size = 4
_mode$ = 12						; size = 4
?ParseFromPath@CArchivePath@@QAEXABVUString@@W4EArcNameMode@@@Z PROC ; CArchivePath::ParseFromPath
; _this$ = ecx
; Line 284
	push	ebp
	mov	ebp, esp
	push	-1
	push	__ehhandler$?ParseFromPath@CArchivePath@@QAEXABVUString@@W4EArcNameMode@@@Z
	mov	eax, DWORD PTR fs:0
	push	eax
	sub	esp, 28					; 0000001cH
	mov	eax, -858993460				; ccccccccH
	mov	DWORD PTR [ebp-40], eax
	mov	DWORD PTR [ebp-36], eax
	mov	DWORD PTR [ebp-32], eax
	mov	DWORD PTR [ebp-28], eax
	mov	DWORD PTR [ebp-24], eax
	mov	DWORD PTR [ebp-20], eax
	mov	DWORD PTR [ebp-16], eax
	mov	eax, DWORD PTR ___security_cookie
	xor	eax, ebp
	push	eax
	lea	eax, DWORD PTR __$EHRec$[ebp]
	mov	DWORD PTR fs:0, eax
	mov	DWORD PTR _this$[ebp], ecx
; Line 285
	mov	eax, DWORD PTR _path$[ebp]
	push	eax
	mov	ecx, DWORD PTR _this$[ebp]
	call	??4UString@@QAEAAV0@ABV0@@Z		; UString::operator=
; Line 287
	mov	ecx, DWORD PTR _this$[ebp]
	add	ecx, 24					; 00000018H
	push	ecx
	mov	edx, DWORD PTR _this$[ebp]
	add	edx, 12					; 0000000cH
	push	edx
	mov	eax, DWORD PTR _path$[ebp]
	push	eax
	call	?SplitPathToParts_2@@YGXABVUString@@AAV1@1@Z ; SplitPathToParts_2
; Line 289
	cmp	DWORD PTR _mode$[ebp], 2
	jne	SHORT $LN6@ParseFromP
; Line 290
	jmp	$LN7@ParseFromP
$LN6@ParseFromP:
; Line 291
	cmp	DWORD PTR _mode$[ebp], 1
	jne	SHORT $LN5@ParseFromP
; Line 293
	mov	ecx, DWORD PTR _this$[ebp]
	add	ecx, 36					; 00000024H
	call	?Empty@UString@@QAEXXZ			; UString::Empty
; Line 294
	jmp	$LN7@ParseFromP
$LN5@ParseFromP:
; Line 297
	mov	ecx, DWORD PTR _this$[ebp]
	add	ecx, 24					; 00000018H
	call	?ReverseFind_Dot@UString@@QBEHXZ	; UString::ReverseFind_Dot
	mov	DWORD PTR _dotPos$[ebp], eax
; Line 298
	cmp	DWORD PTR _dotPos$[ebp], 0
	jge	SHORT $LN4@ParseFromP
; Line 299
	jmp	$LN7@ParseFromP
$LN4@ParseFromP:
; Line 300
	mov	ecx, DWORD PTR _this$[ebp]
	add	ecx, 24					; 00000018H
	call	?Len@UString@@QBEIXZ			; UString::Len
	sub	eax, 1
	cmp	DWORD PTR _dotPos$[ebp], eax
	jne	SHORT $LN3@ParseFromP
; Line 302
	mov	ecx, DWORD PTR _this$[ebp]
	add	ecx, 24					; 00000018H
	call	?DeleteBack@UString@@QAEXXZ		; UString::DeleteBack
; Line 303
	mov	ecx, DWORD PTR _this$[ebp]
	add	ecx, 36					; 00000024H
	call	?Empty@UString@@QAEXXZ			; UString::Empty
; Line 304
	jmp	SHORT $LN7@ParseFromP
$LN3@ParseFromP:
; Line 306
	mov	ecx, DWORD PTR _dotPos$[ebp]
	add	ecx, 1
	push	ecx
	mov	ecx, DWORD PTR _this$[ebp]
	add	ecx, 24					; 00000018H
	call	?Ptr@UString@@QBEPB_WI@Z		; UString::Ptr
	push	eax
	lea	ecx, DWORD PTR _ext$[ebp]
	call	??0UString@@QAE@PB_W@Z			; UString::UString
	mov	DWORD PTR __$EHRec$[ebp+8], 0
; Line 307
	lea	ecx, DWORD PTR _ext$[ebp]
	call	??BUString@@QBEPB_WXZ			; UString::operator wchar_t const *
	push	eax
	mov	ecx, DWORD PTR _this$[ebp]
	add	ecx, 36					; 00000024H
	call	?IsEqualTo_NoCase@UString@@QBE_NPB_W@Z	; UString::IsEqualTo_NoCase
	movzx	edx, al
	test	edx, edx
	je	SHORT $LN2@ParseFromP
; Line 309
	lea	eax, DWORD PTR _ext$[ebp]
	push	eax
	mov	ecx, DWORD PTR _this$[ebp]
	add	ecx, 36					; 00000024H
	call	??4UString@@QAEAAV0@ABV0@@Z		; UString::operator=
; Line 310
	mov	ecx, DWORD PTR _dotPos$[ebp]
	push	ecx
	mov	ecx, DWORD PTR _this$[ebp]
	add	ecx, 24					; 00000018H
	call	?DeleteFrom@UString@@QAEXI@Z		; UString::DeleteFrom
; Line 312
	jmp	SHORT $LN1@ParseFromP
$LN2@ParseFromP:
; Line 313
	mov	ecx, DWORD PTR _this$[ebp]
	add	ecx, 36					; 00000024H
	call	?Empty@UString@@QAEXXZ			; UString::Empty
$LN1@ParseFromP:
; Line 314
	mov	DWORD PTR __$EHRec$[ebp+8], -1
	lea	ecx, DWORD PTR _ext$[ebp]
	call	??1UString@@QAE@XZ			; UString::~UString
$LN7@ParseFromP:
	push	edx
	mov	ecx, ebp
	push	eax
	lea	edx, DWORD PTR $LN13@ParseFromP
	call	@_RTC_CheckStackVars@8
	pop	eax
	pop	edx
	mov	ecx, DWORD PTR __$EHRec$[ebp]
	mov	DWORD PTR fs:0, ecx
	pop	ecx
	add	esp, 40					; 00000028H
	cmp	ebp, esp
	call	__RTC_CheckEsp
	mov	esp, ebp
	pop	ebp
	ret	8
	npad	3
$LN13@ParseFromP:
	DD	1
	DD	$LN12@ParseFromP
$LN12@ParseFromP:
	DD	-36					; ffffffdcH
	DD	12					; 0000000cH
	DD	$LN10@ParseFromP
$LN10@ParseFromP:
	DB	101					; 00000065H
	DB	120					; 00000078H
	DB	116					; 00000074H
	DB	0
_TEXT	ENDS
text$x	SEGMENT
__unwindfunclet$?ParseFromPath@CArchivePath@@QAEXABVUString@@W4EArcNameMode@@@Z$0:
	lea	ecx, DWORD PTR _ext$[ebp]
	jmp	??1UString@@QAE@XZ			; UString::~UString
__ehhandler$?ParseFromPath@CArchivePath@@QAEXABVUString@@W4EArcNameMode@@@Z:
	mov	edx, DWORD PTR [esp+8]
	lea	eax, DWORD PTR [edx+12]
	mov	ecx, DWORD PTR [edx-32]
	xor	ecx, eax
	call	@__security_check_cookie@4
	mov	eax, OFFSET __ehfuncinfo$?ParseFromPath@CArchivePath@@QAEXABVUString@@W4EArcNameMode@@@Z
	jmp	___CxxFrameHandler3
text$x	ENDS
?ParseFromPath@CArchivePath@@QAEXABVUString@@W4EArcNameMode@@@Z ENDP ; CArchivePath::ParseFromPath
; Function compile flags: /Odtp /RTCsu
;	COMDAT ?Empty@UString@@QAEXXZ
_TEXT	SEGMENT
_this$ = -4						; size = 4
?Empty@UString@@QAEXXZ PROC				; UString::Empty, COMDAT
; _this$ = ecx
; File c:\workspace\7z1505-src\cpp\common\mystring.h
; Line 474
	push	ebp
	mov	ebp, esp
	push	ecx
	mov	DWORD PTR [ebp-4], -858993460		; ccccccccH
	mov	DWORD PTR _this$[ebp], ecx
	mov	eax, DWORD PTR _this$[ebp]
	mov	DWORD PTR [eax+4], 0
	mov	ecx, DWORD PTR _this$[ebp]
	mov	edx, DWORD PTR [ecx]
	xor	eax, eax
	mov	WORD PTR [edx], ax
	mov	esp, ebp
	pop	ebp
	ret	0
?Empty@UString@@QAEXXZ ENDP				; UString::Empty
; Function compile flags: /Odtp /RTCsu
_TEXT	ENDS
;	COMDAT ?Ptr@UString@@QBEPB_WI@Z
_TEXT	SEGMENT
_this$ = -4						; size = 4
_pos$ = 8						; size = 4
?Ptr@UString@@QBEPB_WI@Z PROC				; UString::Ptr, COMDAT
; _this$ = ecx
; Line 478
	push	ebp
	mov	ebp, esp
	push	ecx
	mov	DWORD PTR [ebp-4], -858993460		; ccccccccH
	mov	DWORD PTR _this$[ebp], ecx
	mov	eax, DWORD PTR _this$[ebp]
	mov	ecx, DWORD PTR [eax]
	mov	edx, DWORD PTR _pos$[ebp]
	lea	eax, DWORD PTR [ecx+edx*2]
	mov	esp, ebp
	pop	ebp
	ret	4
?Ptr@UString@@QBEPB_WI@Z ENDP				; UString::Ptr
_TEXT	ENDS
EXTRN	?StringsAreEqualNoCase@@YG_NPB_W0@Z:PROC	; StringsAreEqualNoCase
; Function compile flags: /Odtp /RTCsu
;	COMDAT ?IsEqualTo_NoCase@UString@@QBE_NPB_W@Z
_TEXT	SEGMENT
_this$ = -4						; size = 4
_s$ = 8							; size = 4
?IsEqualTo_NoCase@UString@@QBE_NPB_W@Z PROC		; UString::IsEqualTo_NoCase, COMDAT
; _this$ = ecx
; Line 548
	push	ebp
	mov	ebp, esp
	push	ecx
	mov	DWORD PTR [ebp-4], -858993460		; ccccccccH
	mov	DWORD PTR _this$[ebp], ecx
	mov	eax, DWORD PTR _s$[ebp]
	push	eax
	mov	ecx, DWORD PTR _this$[ebp]
	mov	edx, DWORD PTR [ecx]
	push	edx
	call	?StringsAreEqualNoCase@@YG_NPB_W0@Z	; StringsAreEqualNoCase
	add	esp, 4
	cmp	ebp, esp
	call	__RTC_CheckEsp
	mov	esp, ebp
	pop	ebp
	ret	4
?IsEqualTo_NoCase@UString@@QBE_NPB_W@Z ENDP		; UString::IsEqualTo_NoCase
_TEXT	ENDS
EXTRN	?ReverseFind@UString@@QBEH_W@Z:PROC		; UString::ReverseFind
; Function compile flags: /Odtp /RTCsu
;	COMDAT ?ReverseFind_Dot@UString@@QBEHXZ
_TEXT	SEGMENT
_this$ = -4						; size = 4
?ReverseFind_Dot@UString@@QBEHXZ PROC			; UString::ReverseFind_Dot, COMDAT
; _this$ = ecx
; Line 575
	push	ebp
	mov	ebp, esp
	push	ecx
	mov	DWORD PTR [ebp-4], -858993460		; ccccccccH
	mov	DWORD PTR _this$[ebp], ecx
	push	46					; 0000002eH
	mov	ecx, DWORD PTR _this$[ebp]
	call	?ReverseFind@UString@@QBEH_W@Z		; UString::ReverseFind
	add	esp, 4
	cmp	ebp, esp
	call	__RTC_CheckEsp
	mov	esp, ebp
	pop	ebp
	ret	0
?ReverseFind_Dot@UString@@QBEHXZ ENDP			; UString::ReverseFind_Dot
; Function compile flags: /Odtp /RTCsu
_TEXT	ENDS
;	COMDAT ?DeleteBack@UString@@QAEXXZ
_TEXT	SEGMENT
tv66 = -8						; size = 4
_this$ = -4						; size = 4
?DeleteBack@UString@@QAEXXZ PROC			; UString::DeleteBack, COMDAT
; _this$ = ecx
; Line 602
	push	ebp
	mov	ebp, esp
	sub	esp, 8
	mov	DWORD PTR [ebp-8], -858993460		; ccccccccH
	mov	DWORD PTR [ebp-4], -858993460		; ccccccccH
	mov	DWORD PTR _this$[ebp], ecx
	mov	eax, DWORD PTR _this$[ebp]
	mov	ecx, DWORD PTR [eax+4]
	sub	ecx, 1
	mov	DWORD PTR tv66[ebp], ecx
	mov	edx, DWORD PTR _this$[ebp]
	mov	eax, DWORD PTR tv66[ebp]
	mov	DWORD PTR [edx+4], eax
	mov	ecx, DWORD PTR _this$[ebp]
	mov	edx, DWORD PTR [ecx]
	xor	eax, eax
	mov	ecx, DWORD PTR tv66[ebp]
	mov	WORD PTR [edx+ecx*2], ax
	mov	esp, ebp
	pop	ebp
	ret	0
?DeleteBack@UString@@QAEXXZ ENDP			; UString::DeleteBack
; Function compile flags: /Odtp /RTCsu
_TEXT	ENDS
;	COMDAT ?DeleteFrom@UString@@QAEXI@Z
_TEXT	SEGMENT
_this$ = -4						; size = 4
_index$ = 8						; size = 4
?DeleteFrom@UString@@QAEXI@Z PROC			; UString::DeleteFrom, COMDAT
; _this$ = ecx
; Line 604
	push	ebp
	mov	ebp, esp
	push	ecx
	mov	DWORD PTR [ebp-4], -858993460		; ccccccccH
	mov	DWORD PTR _this$[ebp], ecx
; Line 605
	mov	eax, DWORD PTR _this$[ebp]
	mov	ecx, DWORD PTR _index$[ebp]
	cmp	ecx, DWORD PTR [eax+4]
	jae	SHORT $LN2@DeleteFrom
; Line 607
	mov	edx, DWORD PTR _this$[ebp]
	mov	eax, DWORD PTR _index$[ebp]
	mov	DWORD PTR [edx+4], eax
; Line 608
	mov	ecx, DWORD PTR _this$[ebp]
	mov	edx, DWORD PTR [ecx]
	xor	eax, eax
	mov	ecx, DWORD PTR _index$[ebp]
	mov	WORD PTR [edx+ecx*2], ax
$LN2@DeleteFrom:
; Line 610
	mov	esp, ebp
	pop	ebp
	ret	4
?DeleteFrom@UString@@QAEXI@Z ENDP			; UString::DeleteFrom
_TEXT	ENDS
PUBLIC	??YUString@@QAEAAV0@_W@Z			; UString::operator+=
PUBLIC	?IsEmpty@UString@@QBE_NXZ			; UString::IsEmpty
PUBLIC	?GetPathWithoutExt@CArchivePath@@QBE?AVUString@@XZ ; CArchivePath::GetPathWithoutExt
PUBLIC	?GetFinalPath@CArchivePath@@QBE?AVUString@@XZ	; CArchivePath::GetFinalPath
EXTRN	??0UString@@QAE@ABV0@@Z:PROC			; UString::UString
EXTRN	??YUString@@QAEAAV0@ABV0@@Z:PROC		; UString::operator+=
xdata$x	SEGMENT
__unwindtable$?GetFinalPath@CArchivePath@@QBE?AVUString@@XZ DD 0ffffffffH
	DD	FLAT:__unwindfunclet$?GetFinalPath@CArchivePath@@QBE?AVUString@@XZ$1
	DD	00H
	DD	FLAT:__unwindfunclet$?GetFinalPath@CArchivePath@@QBE?AVUString@@XZ$0
__ehfuncinfo$?GetFinalPath@CArchivePath@@QBE?AVUString@@XZ DD 019930522H
	DD	02H
	DD	FLAT:__unwindtable$?GetFinalPath@CArchivePath@@QBE?AVUString@@XZ
	DD	2 DUP(00H)
	DD	2 DUP(00H)
	DD	00H
	DD	01H
; Function compile flags: /Odtp /RTCsu
xdata$x	ENDS
_TEXT	SEGMENT
$T77393 = -40						; size = 4
_path$ = -32						; size = 12
_this$ = -16						; size = 4
__$EHRec$ = -12						; size = 12
___$ReturnUdt$ = 8					; size = 4
?GetFinalPath@CArchivePath@@QBE?AVUString@@XZ PROC	; CArchivePath::GetFinalPath
; _this$ = ecx
; File c:\workspace\7z1505-src\cpp\7zip\ui\common\update.cpp
; Line 317
	push	ebp
	mov	ebp, esp
	push	-1
	push	__ehhandler$?GetFinalPath@CArchivePath@@QBE?AVUString@@XZ
	mov	eax, DWORD PTR fs:0
	push	eax
	sub	esp, 28					; 0000001cH
	mov	eax, -858993460				; ccccccccH
	mov	DWORD PTR [ebp-40], eax
	mov	DWORD PTR [ebp-36], eax
	mov	DWORD PTR [ebp-32], eax
	mov	DWORD PTR [ebp-28], eax
	mov	DWORD PTR [ebp-24], eax
	mov	DWORD PTR [ebp-20], eax
	mov	DWORD PTR [ebp-16], eax
	mov	eax, DWORD PTR ___security_cookie
	xor	eax, ebp
	push	eax
	lea	eax, DWORD PTR __$EHRec$[ebp]
	mov	DWORD PTR fs:0, eax
	mov	DWORD PTR _this$[ebp], ecx
	mov	DWORD PTR $T77393[ebp], 0
; Line 318
	lea	eax, DWORD PTR _path$[ebp]
	push	eax
	mov	ecx, DWORD PTR _this$[ebp]
	call	?GetPathWithoutExt@CArchivePath@@QBE?AVUString@@XZ ; CArchivePath::GetPathWithoutExt
	mov	DWORD PTR __$EHRec$[ebp+8], 1
; Line 319
	mov	ecx, DWORD PTR _this$[ebp]
	add	ecx, 36					; 00000024H
	call	?IsEmpty@UString@@QBE_NXZ		; UString::IsEmpty
	movzx	ecx, al
	test	ecx, ecx
	jne	SHORT $LN1@GetFinalPa
; Line 321
	push	46					; 0000002eH
	lea	ecx, DWORD PTR _path$[ebp]
	call	??YUString@@QAEAAV0@_W@Z		; UString::operator+=
; Line 322
	mov	edx, DWORD PTR _this$[ebp]
	add	edx, 36					; 00000024H
	push	edx
	lea	ecx, DWORD PTR _path$[ebp]
	call	??YUString@@QAEAAV0@ABV0@@Z		; UString::operator+=
$LN1@GetFinalPa:
; Line 324
	lea	eax, DWORD PTR _path$[ebp]
	push	eax
	mov	ecx, DWORD PTR ___$ReturnUdt$[ebp]
	call	??0UString@@QAE@ABV0@@Z			; UString::UString
	mov	ecx, DWORD PTR $T77393[ebp]
	or	ecx, 1
	mov	DWORD PTR $T77393[ebp], ecx
	mov	BYTE PTR __$EHRec$[ebp+8], 0
	lea	ecx, DWORD PTR _path$[ebp]
	call	??1UString@@QAE@XZ			; UString::~UString
	mov	eax, DWORD PTR ___$ReturnUdt$[ebp]
; Line 325
	push	edx
	mov	ecx, ebp
	push	eax
	lea	edx, DWORD PTR $LN10@GetFinalPa
	call	@_RTC_CheckStackVars@8
	pop	eax
	pop	edx
	mov	ecx, DWORD PTR __$EHRec$[ebp]
	mov	DWORD PTR fs:0, ecx
	pop	ecx
	add	esp, 40					; 00000028H
	cmp	ebp, esp
	call	__RTC_CheckEsp
	mov	esp, ebp
	pop	ebp
	ret	4
	npad	1
$LN10@GetFinalPa:
	DD	1
	DD	$LN9@GetFinalPa
$LN9@GetFinalPa:
	DD	-32					; ffffffe0H
	DD	12					; 0000000cH
	DD	$LN7@GetFinalPa
$LN7@GetFinalPa:
	DB	112					; 00000070H
	DB	97					; 00000061H
	DB	116					; 00000074H
	DB	104					; 00000068H
	DB	0
_TEXT	ENDS
text$x	SEGMENT
__unwindfunclet$?GetFinalPath@CArchivePath@@QBE?AVUString@@XZ$0:
	lea	ecx, DWORD PTR _path$[ebp]
	jmp	??1UString@@QAE@XZ			; UString::~UString
__unwindfunclet$?GetFinalPath@CArchivePath@@QBE?AVUString@@XZ$1:
	mov	eax, DWORD PTR $T77393[ebp]
	and	eax, 1
	je	$LN6@GetFinalPa
	and	DWORD PTR $T77393[ebp], -2		; fffffffeH
	mov	ecx, DWORD PTR ___$ReturnUdt$[ebp]
	jmp	??1UString@@QAE@XZ			; UString::~UString
$LN6@GetFinalPa:
	ret	0
__ehhandler$?GetFinalPath@CArchivePath@@QBE?AVUString@@XZ:
	mov	edx, DWORD PTR [esp+8]
	lea	eax, DWORD PTR [edx+12]
	mov	ecx, DWORD PTR [edx-32]
	xor	ecx, eax
	call	@__security_check_cookie@4
	mov	eax, OFFSET __ehfuncinfo$?GetFinalPath@CArchivePath@@QBE?AVUString@@XZ
	jmp	___CxxFrameHandler3
text$x	ENDS
?GetFinalPath@CArchivePath@@QBE?AVUString@@XZ ENDP	; CArchivePath::GetFinalPath
; Function compile flags: /Odtp /RTCsu
;	COMDAT ?IsEmpty@UString@@QBE_NXZ
_TEXT	SEGMENT
_this$ = -4						; size = 4
?IsEmpty@UString@@QBE_NXZ PROC				; UString::IsEmpty, COMDAT
; _this$ = ecx
; File c:\workspace\7z1505-src\cpp\common\mystring.h
; Line 473
	push	ebp
	mov	ebp, esp
	push	ecx
	mov	DWORD PTR [ebp-4], -858993460		; ccccccccH
	mov	DWORD PTR _this$[ebp], ecx
	mov	eax, DWORD PTR _this$[ebp]
	xor	ecx, ecx
	cmp	DWORD PTR [eax+4], 0
	sete	cl
	mov	al, cl
	mov	esp, ebp
	pop	ebp
	ret	0
?IsEmpty@UString@@QBE_NXZ ENDP				; UString::IsEmpty
_TEXT	ENDS
EXTRN	?Grow_1@UString@@AAEXXZ:PROC			; UString::Grow_1
; Function compile flags: /Odtp /RTCsu
;	COMDAT ??YUString@@QAEAAV0@_W@Z
_TEXT	SEGMENT
_chars$ = -12						; size = 4
_len$ = -8						; size = 4
_this$ = -4						; size = 4
_c$ = 8							; size = 2
??YUString@@QAEAAV0@_W@Z PROC				; UString::operator+=, COMDAT
; _this$ = ecx
; Line 515
	push	ebp
	mov	ebp, esp
	sub	esp, 12					; 0000000cH
	mov	DWORD PTR [ebp-12], -858993460		; ccccccccH
	mov	DWORD PTR [ebp-8], -858993460		; ccccccccH
	mov	DWORD PTR [ebp-4], -858993460		; ccccccccH
	mov	DWORD PTR _this$[ebp], ecx
; Line 516
	mov	eax, DWORD PTR _this$[ebp]
	mov	ecx, DWORD PTR _this$[ebp]
	mov	edx, DWORD PTR [eax+8]
	cmp	edx, DWORD PTR [ecx+4]
	jne	SHORT $LN1@operator
; Line 517
	mov	ecx, DWORD PTR _this$[ebp]
	call	?Grow_1@UString@@AAEXXZ			; UString::Grow_1
$LN1@operator:
; Line 518
	mov	eax, DWORD PTR _this$[ebp]
	mov	ecx, DWORD PTR [eax+4]
	mov	DWORD PTR _len$[ebp], ecx
; Line 519
	mov	edx, DWORD PTR _this$[ebp]
	mov	eax, DWORD PTR [edx]
	mov	DWORD PTR _chars$[ebp], eax
; Line 520
	mov	ecx, DWORD PTR _len$[ebp]
	mov	edx, DWORD PTR _chars$[ebp]
	mov	ax, WORD PTR _c$[ebp]
	mov	WORD PTR [edx+ecx*2], ax
	mov	ecx, DWORD PTR _len$[ebp]
	add	ecx, 1
	mov	DWORD PTR _len$[ebp], ecx
; Line 521
	xor	edx, edx
	mov	eax, DWORD PTR _len$[ebp]
	mov	ecx, DWORD PTR _chars$[ebp]
	mov	WORD PTR [ecx+eax*2], dx
; Line 522
	mov	edx, DWORD PTR _this$[ebp]
	mov	eax, DWORD PTR _len$[ebp]
	mov	DWORD PTR [edx+4], eax
; Line 523
	mov	eax, DWORD PTR _this$[ebp]
; Line 524
	add	esp, 12					; 0000000cH
	cmp	ebp, esp
	call	__RTC_CheckEsp
	mov	esp, ebp
	pop	ebp
	ret	4
??YUString@@QAEAAV0@_W@Z ENDP				; UString::operator+=
_TEXT	ENDS
EXTRN	??H@YG?AVUString@@ABV0@0@Z:PROC			; operator+
; Function compile flags: /Odtp /RTCsu
;	COMDAT ?GetPathWithoutExt@CArchivePath@@QBE?AVUString@@XZ
_TEXT	SEGMENT
$T77408 = -8						; size = 4
_this$ = -4						; size = 4
___$ReturnUdt$ = 8					; size = 4
?GetPathWithoutExt@CArchivePath@@QBE?AVUString@@XZ PROC	; CArchivePath::GetPathWithoutExt, COMDAT
; _this$ = ecx
; File c:\workspace\7z1505-src\cpp\7zip\ui\common\update.h
; Line 40
	push	ebp
	mov	ebp, esp
	sub	esp, 8
	mov	DWORD PTR [ebp-8], -858993460		; ccccccccH
	mov	DWORD PTR [ebp-4], -858993460		; ccccccccH
	mov	DWORD PTR _this$[ebp], ecx
	mov	DWORD PTR $T77408[ebp], 0
	mov	eax, DWORD PTR _this$[ebp]
	add	eax, 24					; 00000018H
	push	eax
	mov	ecx, DWORD PTR _this$[ebp]
	add	ecx, 12					; 0000000cH
	push	ecx
	mov	edx, DWORD PTR ___$ReturnUdt$[ebp]
	push	edx
	call	??H@YG?AVUString@@ABV0@0@Z		; operator+
	mov	eax, DWORD PTR $T77408[ebp]
	or	eax, 1
	mov	DWORD PTR $T77408[ebp], eax
	mov	eax, DWORD PTR ___$ReturnUdt$[ebp]
	add	esp, 8
	cmp	ebp, esp
	call	__RTC_CheckEsp
	mov	esp, ebp
	pop	ebp
	ret	4
?GetPathWithoutExt@CArchivePath@@QBE?AVUString@@XZ ENDP	; CArchivePath::GetPathWithoutExt
_TEXT	ENDS
PUBLIC	?GetFinalVolPath@CArchivePath@@QBE?AVUString@@XZ ; CArchivePath::GetFinalVolPath
xdata$x	SEGMENT
__unwindtable$?GetFinalVolPath@CArchivePath@@QBE?AVUString@@XZ DD 0ffffffffH
	DD	FLAT:__unwindfunclet$?GetFinalVolPath@CArchivePath@@QBE?AVUString@@XZ$1
	DD	00H
	DD	FLAT:__unwindfunclet$?GetFinalVolPath@CArchivePath@@QBE?AVUString@@XZ$0
__ehfuncinfo$?GetFinalVolPath@CArchivePath@@QBE?AVUString@@XZ DD 019930522H
	DD	02H
	DD	FLAT:__unwindtable$?GetFinalVolPath@CArchivePath@@QBE?AVUString@@XZ
	DD	2 DUP(00H)
	DD	2 DUP(00H)
	DD	00H
	DD	01H
; Function compile flags: /Odtp /RTCsu
xdata$x	ENDS
_TEXT	SEGMENT
$T77414 = -40						; size = 4
_path$ = -32						; size = 12
_this$ = -16						; size = 4
__$EHRec$ = -12						; size = 12
___$ReturnUdt$ = 8					; size = 4
?GetFinalVolPath@CArchivePath@@QBE?AVUString@@XZ PROC	; CArchivePath::GetFinalVolPath
; _this$ = ecx
; File c:\workspace\7z1505-src\cpp\7zip\ui\common\update.cpp
; Line 328
	push	ebp
	mov	ebp, esp
	push	-1
	push	__ehhandler$?GetFinalVolPath@CArchivePath@@QBE?AVUString@@XZ
	mov	eax, DWORD PTR fs:0
	push	eax
	sub	esp, 28					; 0000001cH
	mov	eax, -858993460				; ccccccccH
	mov	DWORD PTR [ebp-40], eax
	mov	DWORD PTR [ebp-36], eax
	mov	DWORD PTR [ebp-32], eax
	mov	DWORD PTR [ebp-28], eax
	mov	DWORD PTR [ebp-24], eax
	mov	DWORD PTR [ebp-20], eax
	mov	DWORD PTR [ebp-16], eax
	mov	eax, DWORD PTR ___security_cookie
	xor	eax, ebp
	push	eax
	lea	eax, DWORD PTR __$EHRec$[ebp]
	mov	DWORD PTR fs:0, eax
	mov	DWORD PTR _this$[ebp], ecx
	mov	DWORD PTR $T77414[ebp], 0
; Line 329
	lea	eax, DWORD PTR _path$[ebp]
	push	eax
	mov	ecx, DWORD PTR _this$[ebp]
	call	?GetPathWithoutExt@CArchivePath@@QBE?AVUString@@XZ ; CArchivePath::GetPathWithoutExt
	mov	DWORD PTR __$EHRec$[ebp+8], 1
; Line 330
	mov	ecx, DWORD PTR _this$[ebp]
	add	ecx, 36					; 00000024H
	call	?IsEmpty@UString@@QBE_NXZ		; UString::IsEmpty
	movzx	ecx, al
	test	ecx, ecx
	jne	SHORT $LN1@GetFinalVo
; Line 332
	push	46					; 0000002eH
	lea	ecx, DWORD PTR _path$[ebp]
	call	??YUString@@QAEAAV0@_W@Z		; UString::operator+=
; Line 333
	mov	edx, DWORD PTR _this$[ebp]
	add	edx, 48					; 00000030H
	push	edx
	lea	ecx, DWORD PTR _path$[ebp]
	call	??YUString@@QAEAAV0@ABV0@@Z		; UString::operator+=
$LN1@GetFinalVo:
; Line 335
	lea	eax, DWORD PTR _path$[ebp]
	push	eax
	mov	ecx, DWORD PTR ___$ReturnUdt$[ebp]
	call	??0UString@@QAE@ABV0@@Z			; UString::UString
	mov	ecx, DWORD PTR $T77414[ebp]
	or	ecx, 1
	mov	DWORD PTR $T77414[ebp], ecx
	mov	BYTE PTR __$EHRec$[ebp+8], 0
	lea	ecx, DWORD PTR _path$[ebp]
	call	??1UString@@QAE@XZ			; UString::~UString
	mov	eax, DWORD PTR ___$ReturnUdt$[ebp]
; Line 336
	push	edx
	mov	ecx, ebp
	push	eax
	lea	edx, DWORD PTR $LN10@GetFinalVo
	call	@_RTC_CheckStackVars@8
	pop	eax
	pop	edx
	mov	ecx, DWORD PTR __$EHRec$[ebp]
	mov	DWORD PTR fs:0, ecx
	pop	ecx
	add	esp, 40					; 00000028H
	cmp	ebp, esp
	call	__RTC_CheckEsp
	mov	esp, ebp
	pop	ebp
	ret	4
	npad	1
$LN10@GetFinalVo:
	DD	1
	DD	$LN9@GetFinalVo
$LN9@GetFinalVo:
	DD	-32					; ffffffe0H
	DD	12					; 0000000cH
	DD	$LN7@GetFinalVo
$LN7@GetFinalVo:
	DB	112					; 00000070H
	DB	97					; 00000061H
	DB	116					; 00000074H
	DB	104					; 00000068H
	DB	0
_TEXT	ENDS
text$x	SEGMENT
__unwindfunclet$?GetFinalVolPath@CArchivePath@@QBE?AVUString@@XZ$0:
	lea	ecx, DWORD PTR _path$[ebp]
	jmp	??1UString@@QAE@XZ			; UString::~UString
__unwindfunclet$?GetFinalVolPath@CArchivePath@@QBE?AVUString@@XZ$1:
	mov	eax, DWORD PTR $T77414[ebp]
	and	eax, 1
	je	$LN6@GetFinalVo
	and	DWORD PTR $T77414[ebp], -2		; fffffffeH
	mov	ecx, DWORD PTR ___$ReturnUdt$[ebp]
	jmp	??1UString@@QAE@XZ			; UString::~UString
$LN6@GetFinalVo:
	ret	0
__ehhandler$?GetFinalVolPath@CArchivePath@@QBE?AVUString@@XZ:
	mov	edx, DWORD PTR [esp+8]
	lea	eax, DWORD PTR [edx+12]
	mov	ecx, DWORD PTR [edx-32]
	xor	ecx, eax
	call	@__security_check_cookie@4
	mov	eax, OFFSET __ehfuncinfo$?GetFinalVolPath@CArchivePath@@QBE?AVUString@@XZ
	jmp	___CxxFrameHandler3
text$x	ENDS
?GetFinalVolPath@CArchivePath@@QBE?AVUString@@XZ ENDP	; CArchivePath::GetFinalVolPath
PUBLIC	?GetTempPathA@CArchivePath@@QBE?AVUString@@XZ	; CArchivePath::GetTempPathA
EXTRN	?AddAscii@UString@@QAEXPBD@Z:PROC		; UString::AddAscii
xdata$x	SEGMENT
__unwindtable$?GetTempPathA@CArchivePath@@QBE?AVUString@@XZ DD 0ffffffffH
	DD	FLAT:__unwindfunclet$?GetTempPathA@CArchivePath@@QBE?AVUString@@XZ$1
	DD	00H
	DD	FLAT:__unwindfunclet$?GetTempPathA@CArchivePath@@QBE?AVUString@@XZ$0
__ehfuncinfo$?GetTempPathA@CArchivePath@@QBE?AVUString@@XZ DD 019930522H
	DD	02H
	DD	FLAT:__unwindtable$?GetTempPathA@CArchivePath@@QBE?AVUString@@XZ
	DD	2 DUP(00H)
	DD	2 DUP(00H)
	DD	00H
	DD	01H
; Function compile flags: /Odtp /RTCsu
xdata$x	ENDS
_TEXT	SEGMENT
$T77426 = -40						; size = 4
_path$ = -32						; size = 12
_this$ = -16						; size = 4
__$EHRec$ = -12						; size = 12
___$ReturnUdt$ = 8					; size = 4
?GetTempPathA@CArchivePath@@QBE?AVUString@@XZ PROC	; CArchivePath::GetTempPathA
; _this$ = ecx
; Line 339
	push	ebp
	mov	ebp, esp
	push	-1
	push	__ehhandler$?GetTempPathA@CArchivePath@@QBE?AVUString@@XZ
	mov	eax, DWORD PTR fs:0
	push	eax
	sub	esp, 28					; 0000001cH
	mov	eax, -858993460				; ccccccccH
	mov	DWORD PTR [ebp-40], eax
	mov	DWORD PTR [ebp-36], eax
	mov	DWORD PTR [ebp-32], eax
	mov	DWORD PTR [ebp-28], eax
	mov	DWORD PTR [ebp-24], eax
	mov	DWORD PTR [ebp-20], eax
	mov	DWORD PTR [ebp-16], eax
	mov	eax, DWORD PTR ___security_cookie
	xor	eax, ebp
	push	eax
	lea	eax, DWORD PTR __$EHRec$[ebp]
	mov	DWORD PTR fs:0, eax
	mov	DWORD PTR _this$[ebp], ecx
	mov	DWORD PTR $T77426[ebp], 0
; Line 340
	mov	eax, DWORD PTR _this$[ebp]
	add	eax, 64					; 00000040H
	push	eax
	lea	ecx, DWORD PTR _path$[ebp]
	call	??0UString@@QAE@ABV0@@Z			; UString::UString
	mov	DWORD PTR __$EHRec$[ebp+8], 1
; Line 341
	mov	ecx, DWORD PTR _this$[ebp]
	add	ecx, 24					; 00000018H
	push	ecx
	lea	ecx, DWORD PTR _path$[ebp]
	call	??YUString@@QAEAAV0@ABV0@@Z		; UString::operator+=
; Line 342
	mov	ecx, DWORD PTR _this$[ebp]
	add	ecx, 36					; 00000024H
	call	?IsEmpty@UString@@QBE_NXZ		; UString::IsEmpty
	movzx	edx, al
	test	edx, edx
	jne	SHORT $LN1@GetTempPat
; Line 344
	push	46					; 0000002eH
	lea	ecx, DWORD PTR _path$[ebp]
	call	??YUString@@QAEAAV0@_W@Z		; UString::operator+=
; Line 345
	mov	eax, DWORD PTR _this$[ebp]
	add	eax, 36					; 00000024H
	push	eax
	lea	ecx, DWORD PTR _path$[ebp]
	call	??YUString@@QAEAAV0@ABV0@@Z		; UString::operator+=
$LN1@GetTempPat:
; Line 347
	push	OFFSET $SG74378
	lea	ecx, DWORD PTR _path$[ebp]
	call	?AddAscii@UString@@QAEXPBD@Z		; UString::AddAscii
; Line 348
	mov	ecx, DWORD PTR _this$[ebp]
	add	ecx, 76					; 0000004cH
	push	ecx
	lea	ecx, DWORD PTR _path$[ebp]
	call	??YUString@@QAEAAV0@ABV0@@Z		; UString::operator+=
; Line 349
	lea	edx, DWORD PTR _path$[ebp]
	push	edx
	mov	ecx, DWORD PTR ___$ReturnUdt$[ebp]
	call	??0UString@@QAE@ABV0@@Z			; UString::UString
	mov	eax, DWORD PTR $T77426[ebp]
	or	eax, 1
	mov	DWORD PTR $T77426[ebp], eax
	mov	BYTE PTR __$EHRec$[ebp+8], 0
	lea	ecx, DWORD PTR _path$[ebp]
	call	??1UString@@QAE@XZ			; UString::~UString
	mov	eax, DWORD PTR ___$ReturnUdt$[ebp]
; Line 350
	push	edx
	mov	ecx, ebp
	push	eax
	lea	edx, DWORD PTR $LN10@GetTempPat
	call	@_RTC_CheckStackVars@8
	pop	eax
	pop	edx
	mov	ecx, DWORD PTR __$EHRec$[ebp]
	mov	DWORD PTR fs:0, ecx
	pop	ecx
	add	esp, 40					; 00000028H
	cmp	ebp, esp
	call	__RTC_CheckEsp
	mov	esp, ebp
	pop	ebp
	ret	4
	npad	3
$LN10@GetTempPat:
	DD	1
	DD	$LN9@GetTempPat
$LN9@GetTempPat:
	DD	-32					; ffffffe0H
	DD	12					; 0000000cH
	DD	$LN7@GetTempPat
$LN7@GetTempPat:
	DB	112					; 00000070H
	DB	97					; 00000061H
	DB	116					; 00000074H
	DB	104					; 00000068H
	DB	0
_TEXT	ENDS
text$x	SEGMENT
__unwindfunclet$?GetTempPathA@CArchivePath@@QBE?AVUString@@XZ$0:
	lea	ecx, DWORD PTR _path$[ebp]
	jmp	??1UString@@QAE@XZ			; UString::~UString
__unwindfunclet$?GetTempPathA@CArchivePath@@QBE?AVUString@@XZ$1:
	mov	eax, DWORD PTR $T77426[ebp]
	and	eax, 1
	je	$LN6@GetTempPat
	and	DWORD PTR $T77426[ebp], -2		; fffffffeH
	mov	ecx, DWORD PTR ___$ReturnUdt$[ebp]
	jmp	??1UString@@QAE@XZ			; UString::~UString
$LN6@GetTempPat:
	ret	0
__ehhandler$?GetTempPathA@CArchivePath@@QBE?AVUString@@XZ:
	mov	edx, DWORD PTR [esp+8]
	lea	eax, DWORD PTR [edx+12]
	mov	ecx, DWORD PTR [edx-32]
	xor	ecx, eax
	call	@__security_check_cookie@4
	mov	eax, OFFSET __ehfuncinfo$?GetTempPathA@CArchivePath@@QBE?AVUString@@XZ
	jmp	___CxxFrameHandler3
text$x	ENDS
?GetTempPathA@CArchivePath@@QBE?AVUString@@XZ ENDP	; CArchivePath::GetTempPathA
PUBLIC	??0COpenType@@QAE@XZ				; COpenType::COpenType
PUBLIC	??A?$CObjectVector@UCOpenType@@@@QBEABUCOpenType@@I@Z ; CObjectVector<COpenType>::operator[]
PUBLIC	?Size@?$CObjectVector@UCOpenType@@@@QBEIXZ	; CObjectVector<COpenType>::Size
PUBLIC	?InitFormatIndex@CUpdateOptions@@QAE_NPBVCCodecs@@ABV?$CObjectVector@UCOpenType@@@@ABVUString@@@Z ; CUpdateOptions::InitFormatIndex
EXTRN	?FindFormatForArchiveName@CCodecs@@QBEHABVUString@@@Z:PROC ; CCodecs::FindFormatForArchiveName
; Function compile flags: /Odtp /RTCsu
_TEXT	SEGMENT
$T77436 = -36						; size = 32
_this$ = -4						; size = 4
_codecs$ = 8						; size = 4
_types$ = 12						; size = 4
_arcPath$ = 16						; size = 4
?InitFormatIndex@CUpdateOptions@@QAE_NPBVCCodecs@@ABV?$CObjectVector@UCOpenType@@@@ABVUString@@@Z PROC ; CUpdateOptions::InitFormatIndex
; _this$ = ecx
; Line 363
	push	ebp
	mov	ebp, esp
	sub	esp, 36					; 00000024H
	push	esi
	push	edi
	mov	eax, -858993460				; ccccccccH
	mov	DWORD PTR [ebp-36], eax
	mov	DWORD PTR [ebp-32], eax
	mov	DWORD PTR [ebp-28], eax
	mov	DWORD PTR [ebp-24], eax
	mov	DWORD PTR [ebp-20], eax
	mov	DWORD PTR [ebp-16], eax
	mov	DWORD PTR [ebp-12], eax
	mov	DWORD PTR [ebp-8], eax
	mov	DWORD PTR [ebp-4], eax
	mov	DWORD PTR _this$[ebp], ecx
; Line 364
	mov	ecx, DWORD PTR _types$[ebp]
	call	?Size@?$CObjectVector@UCOpenType@@@@QBEIXZ ; CObjectVector<COpenType>::Size
	cmp	eax, 1
	jbe	SHORT $LN5@InitFormat
; Line 365
	xor	al, al
	jmp	SHORT $LN6@InitFormat
$LN5@InitFormat:
; Line 367
	mov	ecx, DWORD PTR _types$[ebp]
	call	?Size@?$CObjectVector@UCOpenType@@@@QBEIXZ ; CObjectVector<COpenType>::Size
	test	eax, eax
	je	SHORT $LN4@InitFormat
; Line 369
	push	0
	mov	ecx, DWORD PTR _types$[ebp]
	call	??A?$CObjectVector@UCOpenType@@@@QBEABUCOpenType@@I@Z ; CObjectVector<COpenType>::operator[]
	mov	edi, DWORD PTR _this$[ebp]
	add	edi, 8
	mov	ecx, 8
	mov	esi, eax
	rep movsd
; Line 370
	mov	eax, DWORD PTR _this$[ebp]
	mov	BYTE PTR [eax], 1
$LN4@InitFormat:
; Line 372
	mov	ecx, DWORD PTR _this$[ebp]
	cmp	DWORD PTR [ecx+8], 0
	jge	SHORT $LN3@InitFormat
; Line 375
	lea	ecx, DWORD PTR $T77436[ebp]
	call	??0COpenType@@QAE@XZ			; COpenType::COpenType
	mov	edi, DWORD PTR _this$[ebp]
	add	edi, 8
	mov	ecx, 8
	mov	esi, eax
	rep movsd
; Line 376
	mov	edx, DWORD PTR _this$[ebp]
	cmp	DWORD PTR [edx+160], 2
	je	SHORT $LN3@InitFormat
; Line 378
	mov	eax, DWORD PTR _arcPath$[ebp]
	push	eax
	mov	ecx, DWORD PTR _codecs$[ebp]
	call	?FindFormatForArchiveName@CCodecs@@QBEHABVUString@@@Z ; CCodecs::FindFormatForArchiveName
	mov	ecx, DWORD PTR _this$[ebp]
	mov	DWORD PTR [ecx+8], eax
; Line 379
	mov	edx, DWORD PTR _this$[ebp]
	cmp	DWORD PTR [edx+8], 0
	jl	SHORT $LN3@InitFormat
; Line 380
	mov	eax, DWORD PTR _this$[ebp]
	mov	BYTE PTR [eax], 1
$LN3@InitFormat:
; Line 383
	mov	al, 1
$LN6@InitFormat:
; Line 384
	pop	edi
	pop	esi
	add	esp, 36					; 00000024H
	cmp	ebp, esp
	call	__RTC_CheckEsp
	mov	esp, ebp
	pop	ebp
	ret	12					; 0000000cH
?InitFormatIndex@CUpdateOptions@@QAE_NPBVCCodecs@@ABV?$CObjectVector@UCOpenType@@@@ABVUString@@@Z ENDP ; CUpdateOptions::InitFormatIndex
_TEXT	ENDS
PUBLIC	??0COpenSpecFlags@@QAE@XZ			; COpenSpecFlags::COpenSpecFlags
; Function compile flags: /Odtp /RTCsu
;	COMDAT ??0COpenType@@QAE@XZ
_TEXT	SEGMENT
_this$ = -4						; size = 4
??0COpenType@@QAE@XZ PROC				; COpenType::COpenType, COMDAT
; _this$ = ecx
; File c:\workspace\7z1505-src\cpp\7zip\ui\common\openarchive.h
; Line 99
	push	ebp
	mov	ebp, esp
	push	ecx
	mov	DWORD PTR [ebp-4], -858993460		; ccccccccH
	mov	DWORD PTR _this$[ebp], ecx
	mov	eax, DWORD PTR _this$[ebp]
	mov	DWORD PTR [eax], -1
	mov	ecx, DWORD PTR _this$[ebp]
	add	ecx, 4
	call	??0COpenSpecFlags@@QAE@XZ		; COpenSpecFlags::COpenSpecFlags
	mov	ecx, DWORD PTR _this$[ebp]
	add	ecx, 7
	call	??0COpenSpecFlags@@QAE@XZ		; COpenSpecFlags::COpenSpecFlags
	mov	ecx, DWORD PTR _this$[ebp]
	add	ecx, 10					; 0000000aH
	call	??0COpenSpecFlags@@QAE@XZ		; COpenSpecFlags::COpenSpecFlags
	mov	ecx, DWORD PTR _this$[ebp]
	add	ecx, 13					; 0000000dH
	call	??0COpenSpecFlags@@QAE@XZ		; COpenSpecFlags::COpenSpecFlags
	mov	ecx, DWORD PTR _this$[ebp]
	mov	BYTE PTR [ecx+16], 1
	mov	edx, DWORD PTR _this$[ebp]
	mov	BYTE PTR [edx+17], 1
	mov	eax, DWORD PTR _this$[ebp]
	mov	BYTE PTR [eax+18], 0
	mov	ecx, DWORD PTR _this$[ebp]
	mov	BYTE PTR [ecx+19], 0
	mov	edx, DWORD PTR _this$[ebp]
	mov	BYTE PTR [edx+20], 0
	mov	eax, DWORD PTR _this$[ebp]
	mov	BYTE PTR [eax+21], 0
	mov	ecx, DWORD PTR _this$[ebp]
	mov	DWORD PTR [ecx+24], 0
	mov	DWORD PTR [ecx+28], 0
; Line 100
	mov	edx, DWORD PTR _this$[ebp]
	mov	BYTE PTR [edx+4], 1
; Line 101
	mov	eax, DWORD PTR _this$[ebp]
	mov	BYTE PTR [eax+5], 1
; Line 102
	mov	ecx, DWORD PTR _this$[ebp]
	mov	BYTE PTR [ecx+6], 1
; Line 104
	mov	edx, DWORD PTR _this$[ebp]
	mov	BYTE PTR [edx+7], 1
; Line 106
	mov	eax, DWORD PTR _this$[ebp]
	mov	BYTE PTR [eax+14], 1
; Line 107
	mov	ecx, DWORD PTR _this$[ebp]
	mov	BYTE PTR [ecx+15], 1
; Line 108
	mov	edx, DWORD PTR _this$[ebp]
	mov	BYTE PTR [edx+13], 1
; Line 111
	mov	eax, DWORD PTR _this$[ebp]
	add	esp, 4
	cmp	ebp, esp
	call	__RTC_CheckEsp
	mov	esp, ebp
	pop	ebp
	ret	0
??0COpenType@@QAE@XZ ENDP				; COpenType::COpenType
; Function compile flags: /Odtp /RTCsu
_TEXT	ENDS
;	COMDAT ??0COpenSpecFlags@@QAE@XZ
_TEXT	SEGMENT
_this$ = -4						; size = 4
??0COpenSpecFlags@@QAE@XZ PROC				; COpenSpecFlags::COpenSpecFlags, COMDAT
; _this$ = ecx
; Line 57
	push	ebp
	mov	ebp, esp
	push	ecx
	mov	DWORD PTR [ebp-4], -858993460		; ccccccccH
	mov	DWORD PTR _this$[ebp], ecx
	mov	eax, DWORD PTR _this$[ebp]
	mov	BYTE PTR [eax], 0
	mov	ecx, DWORD PTR _this$[ebp]
	mov	BYTE PTR [ecx+1], 0
	mov	edx, DWORD PTR _this$[ebp]
	mov	BYTE PTR [edx+2], 0
	mov	eax, DWORD PTR _this$[ebp]
	mov	esp, ebp
	pop	ebp
	ret	0
??0COpenSpecFlags@@QAE@XZ ENDP				; COpenSpecFlags::COpenSpecFlags
_TEXT	ENDS
PUBLIC	??A?$CObjectVector@UCUpdateArchiveCommand@@@@QAEAAUCUpdateArchiveCommand@@I@Z ; CObjectVector<CUpdateArchiveCommand>::operator[]
PUBLIC	?Size@?$CObjectVector@UCUpdateArchiveCommand@@@@QBEIXZ ; CObjectVector<CUpdateArchiveCommand>::Size
PUBLIC	?GetMainExt@CArcInfoEx@@QBE?AVUString@@XZ	; CArcInfoEx::GetMainExt
PUBLIC	??A?$CObjectVector@UCArcInfoEx@@@@QBEABUCArcInfoEx@@I@Z ; CObjectVector<CArcInfoEx>::operator[]
PUBLIC	?SetArcPath@CUpdateOptions@@QAE_NPBVCCodecs@@ABVUString@@@Z ; CUpdateOptions::SetArcPath
EXTRN	?SetFromAscii@UString@@QAEXPBD@Z:PROC		; UString::SetFromAscii
EXTRN	??4UString@@QAEAAV0@PB_W@Z:PROC			; UString::operator=
xdata$x	SEGMENT
__unwindtable$?SetArcPath@CUpdateOptions@@QAE_NPBVCCodecs@@ABVUString@@@Z DD 0ffffffffH
	DD	FLAT:__unwindfunclet$?SetArcPath@CUpdateOptions@@QAE_NPBVCCodecs@@ABVUString@@@Z$0
	DD	00H
	DD	FLAT:__unwindfunclet$?SetArcPath@CUpdateOptions@@QAE_NPBVCCodecs@@ABVUString@@@Z$1
	DD	00H
	DD	FLAT:__unwindfunclet$?SetArcPath@CUpdateOptions@@QAE_NPBVCCodecs@@ABVUString@@@Z$2
__ehfuncinfo$?SetArcPath@CUpdateOptions@@QAE_NPBVCCodecs@@ABVUString@@@Z DD 019930522H
	DD	03H
	DD	FLAT:__unwindtable$?SetArcPath@CUpdateOptions@@QAE_NPBVCCodecs@@ABVUString@@@Z
	DD	2 DUP(00H)
	DD	2 DUP(00H)
	DD	00H
	DD	01H
; Function compile flags: /Odtp /RTCsu
xdata$x	ENDS
_TEXT	SEGMENT
tv165 = -100						; size = 4
tv65 = -96						; size = 4
$T77444 = -89						; size = 1
$T77443 = -88						; size = 12
$T77442 = -73						; size = 1
_uc$74481 = -72						; size = 4
_i$74477 = -68						; size = 4
_ext$ = -60						; size = 12
_arcInfo$74471 = -44					; size = 4
_formatIndex$ = -40					; size = 4
_typeExt$ = -32						; size = 12
_this$ = -16						; size = 4
__$EHRec$ = -12						; size = 12
_codecs$ = 8						; size = 4
_arcPath$ = 12						; size = 4
?SetArcPath@CUpdateOptions@@QAE_NPBVCCodecs@@ABVUString@@@Z PROC ; CUpdateOptions::SetArcPath
; _this$ = ecx
; File c:\workspace\7z1505-src\cpp\7zip\ui\common\update.cpp
; Line 387
	push	ebp
	mov	ebp, esp
	push	-1
	push	__ehhandler$?SetArcPath@CUpdateOptions@@QAE_NPBVCCodecs@@ABVUString@@@Z
	mov	eax, DWORD PTR fs:0
	push	eax
	sub	esp, 88					; 00000058H
	push	edi
	push	ecx
	lea	edi, DWORD PTR [ebp-100]
	mov	ecx, 22					; 00000016H
	mov	eax, -858993460				; ccccccccH
	rep stosd
	pop	ecx
	mov	eax, DWORD PTR ___security_cookie
	xor	eax, ebp
	push	eax
	lea	eax, DWORD PTR __$EHRec$[ebp]
	mov	DWORD PTR fs:0, eax
	mov	DWORD PTR _this$[ebp], ecx
; Line 388
	lea	ecx, DWORD PTR _typeExt$[ebp]
	call	??0UString@@QAE@XZ			; UString::UString
	mov	DWORD PTR __$EHRec$[ebp+8], 0
; Line 389
	mov	eax, DWORD PTR _this$[ebp]
	mov	ecx, DWORD PTR [eax+8]
	mov	DWORD PTR _formatIndex$[ebp], ecx
; Line 390
	cmp	DWORD PTR _formatIndex$[ebp], 0
	jge	SHORT $LN7@SetArcPath
; Line 392
	mov	edx, DWORD PTR _kDefaultArcExt
	push	edx
	lea	ecx, DWORD PTR _typeExt$[ebp]
	call	??4UString@@QAEAAV0@PB_W@Z		; UString::operator=
; Line 394
	jmp	SHORT $LN6@SetArcPath
$LN7@SetArcPath:
; Line 396
	mov	eax, DWORD PTR _formatIndex$[ebp]
	push	eax
	mov	ecx, DWORD PTR _codecs$[ebp]
	add	ecx, 8
	call	??A?$CObjectVector@UCArcInfoEx@@@@QBEABUCArcInfoEx@@I@Z ; CObjectVector<CArcInfoEx>::operator[]
	mov	DWORD PTR _arcInfo$74471[ebp], eax
; Line 397
	mov	ecx, DWORD PTR _arcInfo$74471[ebp]
	movzx	edx, BYTE PTR [ecx+40]
	test	edx, edx
	jne	SHORT $LN5@SetArcPath
; Line 398
	mov	BYTE PTR $T77442[ebp], 0
	mov	DWORD PTR __$EHRec$[ebp+8], -1
	lea	ecx, DWORD PTR _typeExt$[ebp]
	call	??1UString@@QAE@XZ			; UString::~UString
	mov	al, BYTE PTR $T77442[ebp]
	jmp	$LN8@SetArcPath
$LN5@SetArcPath:
; Line 399
	lea	eax, DWORD PTR $T77443[ebp]
	push	eax
	mov	ecx, DWORD PTR _arcInfo$74471[ebp]
	call	?GetMainExt@CArcInfoEx@@QBE?AVUString@@XZ ; CArcInfoEx::GetMainExt
	mov	DWORD PTR tv65[ebp], eax
	mov	ecx, DWORD PTR tv65[ebp]
	mov	DWORD PTR tv165[ebp], ecx
	mov	BYTE PTR __$EHRec$[ebp+8], 1
	mov	edx, DWORD PTR tv165[ebp]
	push	edx
	lea	ecx, DWORD PTR _typeExt$[ebp]
	call	??4UString@@QAEAAV0@ABV0@@Z		; UString::operator=
	mov	BYTE PTR __$EHRec$[ebp+8], 0
	lea	ecx, DWORD PTR $T77443[ebp]
	call	??1UString@@QAE@XZ			; UString::~UString
$LN6@SetArcPath:
; Line 401
	lea	eax, DWORD PTR _typeExt$[ebp]
	push	eax
	lea	ecx, DWORD PTR _ext$[ebp]
	call	??0UString@@QAE@ABV0@@Z			; UString::UString
	mov	BYTE PTR __$EHRec$[ebp+8], 2
; Line 402
	mov	ecx, DWORD PTR _this$[ebp]
	movzx	edx, BYTE PTR [ecx+164]
	test	edx, edx
	je	SHORT $LN4@SetArcPath
; Line 403
	mov	eax, DWORD PTR _kSFXExtension
	push	eax
	lea	ecx, DWORD PTR _ext$[ebp]
	call	?SetFromAscii@UString@@QAEXPBD@Z	; UString::SetFromAscii
$LN4@SetArcPath:
; Line 404
	lea	ecx, DWORD PTR _ext$[ebp]
	push	ecx
	mov	ecx, DWORD PTR _this$[ebp]
	add	ecx, 108				; 0000006cH
	call	??4UString@@QAEAAV0@ABV0@@Z		; UString::operator=
; Line 405
	lea	edx, DWORD PTR _typeExt$[ebp]
	push	edx
	mov	ecx, DWORD PTR _this$[ebp]
	add	ecx, 120				; 00000078H
	call	??4UString@@QAEAAV0@ABV0@@Z		; UString::operator=
; Line 406
	mov	eax, DWORD PTR _this$[ebp]
	mov	ecx, DWORD PTR [eax+160]
	push	ecx
	mov	edx, DWORD PTR _arcPath$[ebp]
	push	edx
	mov	ecx, DWORD PTR _this$[ebp]
	add	ecx, 72					; 00000048H
	call	?ParseFromPath@CArchivePath@@QAEXABVUString@@W4EArcNameMode@@@Z ; CArchivePath::ParseFromPath
; Line 407
	mov	DWORD PTR _i$74477[ebp], 0
	jmp	SHORT $LN3@SetArcPath
$LN2@SetArcPath:
	mov	eax, DWORD PTR _i$74477[ebp]
	add	eax, 1
	mov	DWORD PTR _i$74477[ebp], eax
$LN3@SetArcPath:
	mov	ecx, DWORD PTR _this$[ebp]
	add	ecx, 56					; 00000038H
	call	?Size@?$CObjectVector@UCUpdateArchiveCommand@@@@QBEIXZ ; CObjectVector<CUpdateArchiveCommand>::Size
	cmp	DWORD PTR _i$74477[ebp], eax
	jae	SHORT $LN1@SetArcPath
; Line 409
	mov	ecx, DWORD PTR _i$74477[ebp]
	push	ecx
	mov	ecx, DWORD PTR _this$[ebp]
	add	ecx, 56					; 00000038H
	call	??A?$CObjectVector@UCUpdateArchiveCommand@@@@QAEAAUCUpdateArchiveCommand@@I@Z ; CObjectVector<CUpdateArchiveCommand>::operator[]
	mov	DWORD PTR _uc$74481[ebp], eax
; Line 410
	lea	edx, DWORD PTR _ext$[ebp]
	push	edx
	mov	ecx, DWORD PTR _uc$74481[ebp]
	add	ecx, 48					; 00000030H
	call	??4UString@@QAEAAV0@ABV0@@Z		; UString::operator=
; Line 411
	lea	eax, DWORD PTR _typeExt$[ebp]
	push	eax
	mov	ecx, DWORD PTR _uc$74481[ebp]
	add	ecx, 60					; 0000003cH
	call	??4UString@@QAEAAV0@ABV0@@Z		; UString::operator=
; Line 412
	mov	ecx, DWORD PTR _this$[ebp]
	mov	edx, DWORD PTR [ecx+160]
	push	edx
	mov	eax, DWORD PTR _uc$74481[ebp]
	push	eax
	mov	ecx, DWORD PTR _uc$74481[ebp]
	add	ecx, 12					; 0000000cH
	call	?ParseFromPath@CArchivePath@@QAEXABVUString@@W4EArcNameMode@@@Z ; CArchivePath::ParseFromPath
; Line 413
	jmp	SHORT $LN2@SetArcPath
$LN1@SetArcPath:
; Line 414
	mov	BYTE PTR $T77444[ebp], 1
	mov	BYTE PTR __$EHRec$[ebp+8], 0
	lea	ecx, DWORD PTR _ext$[ebp]
	call	??1UString@@QAE@XZ			; UString::~UString
	mov	DWORD PTR __$EHRec$[ebp+8], -1
	lea	ecx, DWORD PTR _typeExt$[ebp]
	call	??1UString@@QAE@XZ			; UString::~UString
	mov	al, BYTE PTR $T77444[ebp]
$LN8@SetArcPath:
; Line 415
	push	edx
	mov	ecx, ebp
	push	eax
	lea	edx, DWORD PTR $LN17@SetArcPath
	call	@_RTC_CheckStackVars@8
	pop	eax
	pop	edx
	mov	ecx, DWORD PTR __$EHRec$[ebp]
	mov	DWORD PTR fs:0, ecx
	pop	ecx
	pop	edi
	add	esp, 100				; 00000064H
	cmp	ebp, esp
	call	__RTC_CheckEsp
	mov	esp, ebp
	pop	ebp
	ret	8
	npad	3
$LN17@SetArcPath:
	DD	2
	DD	$LN16@SetArcPath
$LN16@SetArcPath:
	DD	-32					; ffffffe0H
	DD	12					; 0000000cH
	DD	$LN13@SetArcPath
	DD	-60					; ffffffc4H
	DD	12					; 0000000cH
	DD	$LN14@SetArcPath
$LN14@SetArcPath:
	DB	101					; 00000065H
	DB	120					; 00000078H
	DB	116					; 00000074H
	DB	0
$LN13@SetArcPath:
	DB	116					; 00000074H
	DB	121					; 00000079H
	DB	112					; 00000070H
	DB	101					; 00000065H
	DB	69					; 00000045H
	DB	120					; 00000078H
	DB	116					; 00000074H
	DB	0
_TEXT	ENDS
text$x	SEGMENT
__unwindfunclet$?SetArcPath@CUpdateOptions@@QAE_NPBVCCodecs@@ABVUString@@@Z$0:
	lea	ecx, DWORD PTR _typeExt$[ebp]
	jmp	??1UString@@QAE@XZ			; UString::~UString
__unwindfunclet$?SetArcPath@CUpdateOptions@@QAE_NPBVCCodecs@@ABVUString@@@Z$1:
	lea	ecx, DWORD PTR $T77443[ebp]
	jmp	??1UString@@QAE@XZ			; UString::~UString
__unwindfunclet$?SetArcPath@CUpdateOptions@@QAE_NPBVCCodecs@@ABVUString@@@Z$2:
	lea	ecx, DWORD PTR _ext$[ebp]
	jmp	??1UString@@QAE@XZ			; UString::~UString
__ehhandler$?SetArcPath@CUpdateOptions@@QAE_NPBVCCodecs@@ABVUString@@@Z:
	mov	edx, DWORD PTR [esp+8]
	lea	eax, DWORD PTR [edx+12]
	mov	ecx, DWORD PTR [edx-96]
	xor	ecx, eax
	call	@__security_check_cookie@4
	mov	eax, OFFSET __ehfuncinfo$?SetArcPath@CUpdateOptions@@QAE_NPBVCCodecs@@ABVUString@@@Z
	jmp	___CxxFrameHandler3
text$x	ENDS
?SetArcPath@CUpdateOptions@@QAE_NPBVCCodecs@@ABVUString@@@Z ENDP ; CUpdateOptions::SetArcPath
PUBLIC	??A?$CObjectVector@UCArcExtInfo@@@@QBEABUCArcExtInfo@@I@Z ; CObjectVector<CArcExtInfo>::operator[]
PUBLIC	?IsEmpty@?$CObjectVector@UCArcExtInfo@@@@QBE_NXZ ; CObjectVector<CArcExtInfo>::IsEmpty
; Function compile flags: /Odtp /RTCsu
;	COMDAT ?GetMainExt@CArcInfoEx@@QBE?AVUString@@XZ
_TEXT	SEGMENT
$T77458 = -8						; size = 4
_this$ = -4						; size = 4
___$ReturnUdt$ = 8					; size = 4
?GetMainExt@CArcInfoEx@@QBE?AVUString@@XZ PROC		; CArcInfoEx::GetMainExt, COMDAT
; _this$ = ecx
; File c:\workspace\7z1505-src\cpp\7zip\ui\common\loadcodecs.h
; Line 137
	push	ebp
	mov	ebp, esp
	sub	esp, 8
	mov	DWORD PTR [ebp-8], -858993460		; ccccccccH
	mov	DWORD PTR [ebp-4], -858993460		; ccccccccH
	mov	DWORD PTR _this$[ebp], ecx
	mov	DWORD PTR $T77458[ebp], 0
; Line 138
	mov	ecx, DWORD PTR _this$[ebp]
	add	ecx, 24					; 00000018H
	call	?IsEmpty@?$CObjectVector@UCArcExtInfo@@@@QBE_NXZ ; CObjectVector<CArcExtInfo>::IsEmpty
	movzx	eax, al
	test	eax, eax
	je	SHORT $LN1@GetMainExt
; Line 139
	mov	ecx, DWORD PTR ___$ReturnUdt$[ebp]
	call	??0UString@@QAE@XZ			; UString::UString
	mov	ecx, DWORD PTR $T77458[ebp]
	or	ecx, 1
	mov	DWORD PTR $T77458[ebp], ecx
	mov	eax, DWORD PTR ___$ReturnUdt$[ebp]
	jmp	SHORT $LN2@GetMainExt
$LN1@GetMainExt:
; Line 140
	push	0
	mov	ecx, DWORD PTR _this$[ebp]
	add	ecx, 24					; 00000018H
	call	??A?$CObjectVector@UCArcExtInfo@@@@QBEABUCArcExtInfo@@I@Z ; CObjectVector<CArcExtInfo>::operator[]
	push	eax
	mov	ecx, DWORD PTR ___$ReturnUdt$[ebp]
	call	??0UString@@QAE@ABV0@@Z			; UString::UString
	mov	edx, DWORD PTR $T77458[ebp]
	or	edx, 1
	mov	DWORD PTR $T77458[ebp], edx
	mov	eax, DWORD PTR ___$ReturnUdt$[ebp]
$LN2@GetMainExt:
; Line 141
	add	esp, 8
	cmp	ebp, esp
	call	__RTC_CheckEsp
	mov	esp, ebp
	pop	ebp
	ret	4
?GetMainExt@CArcInfoEx@@QBE?AVUString@@XZ ENDP		; CArcInfoEx::GetMainExt
_TEXT	ENDS
PUBLIC	??A?$CObjectVector@UCArcItem@@@@QBEABUCArcItem@@I@Z ; CObjectVector<CArcItem>::operator[]
PUBLIC	?ShowDeleteFile@CUpdateProduceCallbackImp@@UAEJI@Z ; CUpdateProduceCallbackImp::ShowDeleteFile
; Function compile flags: /Odtp /RTCsu
_TEXT	SEGMENT
_ai$ = -8						; size = 4
_this$ = -4						; size = 4
_arcIndex$ = 8						; size = 4
?ShowDeleteFile@CUpdateProduceCallbackImp@@UAEJI@Z PROC	; CUpdateProduceCallbackImp::ShowDeleteFile
; _this$ = ecx
; File c:\workspace\7z1505-src\cpp\7zip\ui\common\update.cpp
; Line 428
	push	ebp
	mov	ebp, esp
	sub	esp, 8
	push	esi
	mov	DWORD PTR [ebp-8], -858993460		; ccccccccH
	mov	DWORD PTR [ebp-4], -858993460		; ccccccccH
	mov	DWORD PTR _this$[ebp], ecx
; Line 429
	mov	eax, DWORD PTR _arcIndex$[ebp]
	push	eax
	mov	ecx, DWORD PTR _this$[ebp]
	mov	ecx, DWORD PTR [ecx+4]
	call	??A?$CObjectVector@UCArcItem@@@@QBEABUCArcItem@@I@Z ; CObjectVector<CArcItem>::operator[]
	mov	DWORD PTR _ai$[ebp], eax
; Line 430
	mov	esi, esp
	mov	edx, DWORD PTR _ai$[ebp]
	movzx	eax, BYTE PTR [edx+28]
	push	eax
	mov	ecx, DWORD PTR _ai$[ebp]
	add	ecx, 16					; 00000010H
	call	??BUString@@QBEPB_WXZ			; UString::operator wchar_t const *
	push	eax
	mov	ecx, DWORD PTR _this$[ebp]
	mov	edx, DWORD PTR [ecx+8]
	mov	eax, DWORD PTR _this$[ebp]
	mov	ecx, DWORD PTR [eax+8]
	mov	edx, DWORD PTR [edx]
	mov	eax, DWORD PTR [edx+56]
	call	eax
	cmp	esi, esp
	call	__RTC_CheckEsp
; Line 431
	pop	esi
	add	esp, 8
	cmp	ebp, esp
	call	__RTC_CheckEsp
	mov	esp, ebp
	pop	ebp
	ret	4
?ShowDeleteFile@CUpdateProduceCallbackImp@@UAEJI@Z ENDP	; CUpdateProduceCallbackImp::ShowDeleteFile
_TEXT	ENDS
PUBLIC	?Prepare@CRenamePair@@QAE_NXZ			; CRenamePair::Prepare
EXTRN	?DoesNameContainWildcard@@YG_NABVUString@@@Z:PROC ; DoesNameContainWildcard
; Function compile flags: /Odtp /RTCsu
_TEXT	SEGMENT
_this$ = -4						; size = 4
?Prepare@CRenamePair@@QAE_NXZ PROC			; CRenamePair::Prepare
; _this$ = ecx
; Line 434
	push	ebp
	mov	ebp, esp
	push	ecx
	mov	DWORD PTR [ebp-4], -858993460		; ccccccccH
	mov	DWORD PTR _this$[ebp], ecx
; Line 435
	mov	eax, DWORD PTR _this$[ebp]
	cmp	DWORD PTR [eax+28], 2
	je	SHORT $LN2@Prepare
; Line 436
	xor	al, al
	jmp	SHORT $LN3@Prepare
$LN2@Prepare:
; Line 437
	mov	ecx, DWORD PTR _this$[ebp]
	movzx	edx, BYTE PTR [ecx+24]
	test	edx, edx
	jne	SHORT $LN1@Prepare
; Line 438
	mov	al, 1
	jmp	SHORT $LN3@Prepare
$LN1@Prepare:
; Line 439
	mov	eax, DWORD PTR _this$[ebp]
	push	eax
	call	?DoesNameContainWildcard@@YG_NABVUString@@@Z ; DoesNameContainWildcard
	movzx	eax, al
	neg	eax
	sbb	eax, eax
	add	eax, 1
$LN3@Prepare:
; Line 440
	add	esp, 4
	cmp	ebp, esp
	call	__RTC_CheckEsp
	mov	esp, ebp
	pop	ebp
	ret	0
?Prepare@CRenamePair@@QAE_NXZ ENDP			; CRenamePair::Prepare
_TEXT	ENDS
PUBLIC	?IsPathSepar@@YG_N_W@Z				; IsPathSepar
PUBLIC	?GetNewPath@CRenamePair@@QBE_N_NABVUString@@AAV2@@Z ; CRenamePair::GetNewPath
EXTRN	??H@YG?AVUString@@ABV0@PB_W@Z:PROC		; operator+
xdata$x	SEGMENT
__unwindtable$?GetNewPath@CRenamePair@@QBE_N_NABVUString@@AAV2@@Z DD 0ffffffffH
	DD	FLAT:__unwindfunclet$?GetNewPath@CRenamePair@@QBE_N_NABVUString@@AAV2@@Z$0
__ehfuncinfo$?GetNewPath@CRenamePair@@QBE_N_NABVUString@@AAV2@@Z DD 019930522H
	DD	01H
	DD	FLAT:__unwindtable$?GetNewPath@CRenamePair@@QBE_N_NABVUString@@AAV2@@Z
	DD	2 DUP(00H)
	DD	2 DUP(00H)
	DD	00H
	DD	01H
; Function compile flags: /Odtp /RTCsu
xdata$x	ENDS
_TEXT	SEGMENT
tv169 = -40						; size = 4
tv170 = -36						; size = 4
$T77464 = -32						; size = 12
_num$ = -20						; size = 4
_this$ = -16						; size = 4
__$EHRec$ = -12						; size = 12
_isFolder$ = 8						; size = 1
_src$ = 12						; size = 4
_dest$ = 16						; size = 4
?GetNewPath@CRenamePair@@QBE_N_NABVUString@@AAV2@@Z PROC ; CRenamePair::GetNewPath
; _this$ = ecx
; Line 463
	push	ebp
	mov	ebp, esp
	push	-1
	push	__ehhandler$?GetNewPath@CRenamePair@@QBE_N_NABVUString@@AAV2@@Z
	mov	eax, DWORD PTR fs:0
	push	eax
	sub	esp, 28					; 0000001cH
	mov	eax, -858993460				; ccccccccH
	mov	DWORD PTR [ebp-40], eax
	mov	DWORD PTR [ebp-36], eax
	mov	DWORD PTR [ebp-32], eax
	mov	DWORD PTR [ebp-28], eax
	mov	DWORD PTR [ebp-24], eax
	mov	DWORD PTR [ebp-20], eax
	mov	DWORD PTR [ebp-16], eax
	mov	eax, DWORD PTR ___security_cookie
	xor	eax, ebp
	push	eax
	lea	eax, DWORD PTR __$EHRec$[ebp]
	mov	DWORD PTR fs:0, eax
	mov	DWORD PTR _this$[ebp], ecx
; Line 464
	mov	ecx, DWORD PTR _src$[ebp]
	call	??BUString@@QBEPB_WXZ			; UString::operator wchar_t const *
	push	eax
	mov	ecx, DWORD PTR _this$[ebp]
	call	??BUString@@QBEPB_WXZ			; UString::operator wchar_t const *
	push	eax
	call	?CompareTwoNames@@YGIPB_W0@Z		; CompareTwoNames
	mov	DWORD PTR _num$[ebp], eax
; Line 465
	mov	ecx, DWORD PTR _this$[ebp]
	call	??BUString@@QBEPB_WXZ			; UString::operator wchar_t const *
	mov	ecx, DWORD PTR _num$[ebp]
	movzx	edx, WORD PTR [eax+ecx*2]
	test	edx, edx
	jne	SHORT $LN5@GetNewPath
; Line 467
	mov	ecx, DWORD PTR _src$[ebp]
	call	??BUString@@QBEPB_WXZ			; UString::operator wchar_t const *
	mov	ecx, DWORD PTR _num$[ebp]
	movzx	edx, WORD PTR [eax+ecx*2]
	test	edx, edx
	je	SHORT $LN4@GetNewPath
	mov	ecx, DWORD PTR _src$[ebp]
	call	??BUString@@QBEPB_WXZ			; UString::operator wchar_t const *
	mov	ecx, DWORD PTR _num$[ebp]
	movzx	edx, WORD PTR [eax+ecx*2]
	push	edx
	call	?IsPathSepar@@YG_N_W@Z			; IsPathSepar
	movzx	eax, al
	test	eax, eax
	jne	SHORT $LN4@GetNewPath
	cmp	DWORD PTR _num$[ebp], 0
	je	SHORT $LN4@GetNewPath
	mov	ecx, DWORD PTR _src$[ebp]
	call	??BUString@@QBEPB_WXZ			; UString::operator wchar_t const *
	mov	ecx, DWORD PTR _num$[ebp]
	movzx	edx, WORD PTR [eax+ecx*2-2]
	push	edx
	call	?IsPathSepar@@YG_N_W@Z			; IsPathSepar
	movzx	eax, al
	test	eax, eax
	jne	SHORT $LN4@GetNewPath
; Line 468
	xor	al, al
	jmp	$LN6@GetNewPath
$LN4@GetNewPath:
; Line 470
	jmp	SHORT $LN3@GetNewPath
$LN5@GetNewPath:
; Line 479
	movzx	ecx, BYTE PTR _isFolder$[ebp]
	test	ecx, ecx
	je	SHORT $LN1@GetNewPath
	mov	ecx, DWORD PTR _src$[ebp]
	call	??BUString@@QBEPB_WXZ			; UString::operator wchar_t const *
	mov	edx, DWORD PTR _num$[ebp]
	movzx	eax, WORD PTR [eax+edx*2]
	test	eax, eax
	jne	SHORT $LN1@GetNewPath
	mov	ecx, DWORD PTR _this$[ebp]
	call	??BUString@@QBEPB_WXZ			; UString::operator wchar_t const *
	mov	ecx, DWORD PTR _num$[ebp]
	movzx	edx, WORD PTR [eax+ecx*2]
	push	edx
	call	?IsPathSepar@@YG_N_W@Z			; IsPathSepar
	movzx	eax, al
	test	eax, eax
	je	SHORT $LN1@GetNewPath
	mov	ecx, DWORD PTR _this$[ebp]
	call	??BUString@@QBEPB_WXZ			; UString::operator wchar_t const *
	mov	ecx, DWORD PTR _num$[ebp]
	movzx	edx, WORD PTR [eax+ecx*2+2]
	test	edx, edx
	je	SHORT $LN3@GetNewPath
$LN1@GetNewPath:
; Line 480
	xor	al, al
	jmp	SHORT $LN6@GetNewPath
$LN3@GetNewPath:
; Line 482
	mov	eax, DWORD PTR _num$[ebp]
	push	eax
	mov	ecx, DWORD PTR _src$[ebp]
	call	?Ptr@UString@@QBEPB_WI@Z		; UString::Ptr
	push	eax
	mov	ecx, DWORD PTR _this$[ebp]
	add	ecx, 12					; 0000000cH
	push	ecx
	lea	edx, DWORD PTR $T77464[ebp]
	push	edx
	call	??H@YG?AVUString@@ABV0@PB_W@Z		; operator+
	mov	DWORD PTR tv170[ebp], eax
	mov	eax, DWORD PTR tv170[ebp]
	mov	DWORD PTR tv169[ebp], eax
	mov	DWORD PTR __$EHRec$[ebp+8], 0
	mov	ecx, DWORD PTR tv169[ebp]
	push	ecx
	mov	ecx, DWORD PTR _dest$[ebp]
	call	??4UString@@QAEAAV0@ABV0@@Z		; UString::operator=
	mov	DWORD PTR __$EHRec$[ebp+8], -1
	lea	ecx, DWORD PTR $T77464[ebp]
	call	??1UString@@QAE@XZ			; UString::~UString
; Line 483
	mov	al, 1
$LN6@GetNewPath:
; Line 484
	mov	ecx, DWORD PTR __$EHRec$[ebp]
	mov	DWORD PTR fs:0, ecx
	pop	ecx
	add	esp, 40					; 00000028H
	cmp	ebp, esp
	call	__RTC_CheckEsp
	mov	esp, ebp
	pop	ebp
	ret	12					; 0000000cH
_TEXT	ENDS
text$x	SEGMENT
__unwindfunclet$?GetNewPath@CRenamePair@@QBE_N_NABVUString@@AAV2@@Z$0:
	lea	ecx, DWORD PTR $T77464[ebp]
	jmp	??1UString@@QAE@XZ			; UString::~UString
__ehhandler$?GetNewPath@CRenamePair@@QBE_N_NABVUString@@AAV2@@Z:
	mov	edx, DWORD PTR [esp+8]
	lea	eax, DWORD PTR [edx+12]
	mov	ecx, DWORD PTR [edx-32]
	xor	ecx, eax
	call	@__security_check_cookie@4
	mov	eax, OFFSET __ehfuncinfo$?GetNewPath@CRenamePair@@QBE_N_NABVUString@@AAV2@@Z
	jmp	___CxxFrameHandler3
text$x	ENDS
?GetNewPath@CRenamePair@@QBE_N_NABVUString@@AAV2@@Z ENDP ; CRenamePair::GetNewPath
; Function compile flags: /Odtp /RTCsu
;	COMDAT ?IsPathSepar@@YG_N_W@Z
_TEXT	SEGMENT
tv68 = -4						; size = 4
_c$ = 8							; size = 2
?IsPathSepar@@YG_N_W@Z PROC				; IsPathSepar, COMDAT
; File c:\workspace\7z1505-src\cpp\common\mystring.h
; Line 23
	push	ebp
	mov	ebp, esp
	push	ecx
	mov	DWORD PTR [ebp-4], -858993460		; ccccccccH
	movzx	eax, WORD PTR _c$[ebp]
	cmp	eax, 92					; 0000005cH
	je	SHORT $LN3@IsPathSepa
	movzx	ecx, WORD PTR _c$[ebp]
	cmp	ecx, 47					; 0000002fH
	je	SHORT $LN3@IsPathSepa
	mov	DWORD PTR tv68[ebp], 0
	jmp	SHORT $LN4@IsPathSepa
$LN3@IsPathSepa:
	mov	DWORD PTR tv68[ebp], 1
$LN4@IsPathSepa:
	mov	al, BYTE PTR tv68[ebp]
	mov	esp, ebp
	pop	ebp
	ret	4
?IsPathSepar@@YG_N_W@Z ENDP				; IsPathSepar
_TEXT	ENDS
PUBLIC	?MyCharUpper@@YG_W_W@Z				; MyCharUpper
EXTRN	?g_CaseSensitive@@3_NA:BYTE			; g_CaseSensitive
; Function compile flags: /Odtp /RTCsu
_TEXT	SEGMENT
_c2$74525 = -12						; size = 2
_c1$74524 = -8						; size = 2
_i$74520 = -4						; size = 4
_s1$ = 8						; size = 4
_s2$ = 12						; size = 4
?CompareTwoNames@@YGIPB_W0@Z PROC			; CompareTwoNames
; File c:\workspace\7z1505-src\cpp\7zip\ui\common\update.cpp
; Line 445
	push	ebp
	mov	ebp, esp
	sub	esp, 12					; 0000000cH
	push	esi
	mov	DWORD PTR [ebp-12], -858993460		; ccccccccH
	mov	DWORD PTR [ebp-8], -858993460		; ccccccccH
	mov	DWORD PTR [ebp-4], -858993460		; ccccccccH
; Line 446
	mov	DWORD PTR _i$74520[ebp], 0
	jmp	SHORT $LN8@CompareTwo
$LN7@CompareTwo:
	mov	eax, DWORD PTR _i$74520[ebp]
	add	eax, 1
	mov	DWORD PTR _i$74520[ebp], eax
$LN8@CompareTwo:
; Line 448
	mov	ecx, DWORD PTR _i$74520[ebp]
	mov	edx, DWORD PTR _s1$[ebp]
	mov	ax, WORD PTR [edx+ecx*2]
	mov	WORD PTR _c1$74524[ebp], ax
; Line 449
	mov	ecx, DWORD PTR _i$74520[ebp]
	mov	edx, DWORD PTR _s2$[ebp]
	mov	ax, WORD PTR [edx+ecx*2]
	mov	WORD PTR _c2$74525[ebp], ax
; Line 450
	movzx	ecx, WORD PTR _c1$74524[ebp]
	test	ecx, ecx
	je	SHORT $LN4@CompareTwo
	movzx	edx, WORD PTR _c2$74525[ebp]
	test	edx, edx
	jne	SHORT $LN5@CompareTwo
$LN4@CompareTwo:
; Line 451
	mov	eax, DWORD PTR _i$74520[ebp]
	jmp	SHORT $LN9@CompareTwo
$LN5@CompareTwo:
; Line 452
	movzx	eax, WORD PTR _c1$74524[ebp]
	movzx	ecx, WORD PTR _c2$74525[ebp]
	cmp	eax, ecx
	jne	SHORT $LN3@CompareTwo
; Line 453
	jmp	SHORT $LN7@CompareTwo
$LN3@CompareTwo:
; Line 454
	movzx	edx, BYTE PTR ?g_CaseSensitive@@3_NA	; g_CaseSensitive
	test	edx, edx
	jne	SHORT $LN2@CompareTwo
	movzx	eax, WORD PTR _c1$74524[ebp]
	push	eax
	call	?MyCharUpper@@YG_W_W@Z			; MyCharUpper
	movzx	esi, ax
	movzx	ecx, WORD PTR _c2$74525[ebp]
	push	ecx
	call	?MyCharUpper@@YG_W_W@Z			; MyCharUpper
	movzx	edx, ax
	cmp	esi, edx
	jne	SHORT $LN2@CompareTwo
; Line 455
	jmp	SHORT $LN7@CompareTwo
$LN2@CompareTwo:
; Line 456
	movzx	eax, WORD PTR _c1$74524[ebp]
	push	eax
	call	?IsPathSepar@@YG_N_W@Z			; IsPathSepar
	movzx	ecx, al
	test	ecx, ecx
	je	SHORT $LN1@CompareTwo
	movzx	edx, WORD PTR _c2$74525[ebp]
	push	edx
	call	?IsPathSepar@@YG_N_W@Z			; IsPathSepar
	movzx	eax, al
	test	eax, eax
	je	SHORT $LN1@CompareTwo
; Line 457
	jmp	$LN7@CompareTwo
$LN1@CompareTwo:
; Line 458
	mov	eax, DWORD PTR _i$74520[ebp]
	jmp	SHORT $LN9@CompareTwo
; Line 459
	jmp	$LN7@CompareTwo
$LN9@CompareTwo:
; Line 460
	pop	esi
	add	esp, 12					; 0000000cH
	cmp	ebp, esp
	call	__RTC_CheckEsp
	mov	esp, ebp
	pop	ebp
	ret	8
?CompareTwoNames@@YGIPB_W0@Z ENDP			; CompareTwoNames
_TEXT	ENDS
EXTRN	?MyCharUpper_WIN@@YG_W_W@Z:PROC			; MyCharUpper_WIN
; Function compile flags: /Odtp /RTCsu
;	COMDAT ?MyCharUpper@@YG_W_W@Z
_TEXT	SEGMENT
_c$ = 8							; size = 2
?MyCharUpper@@YG_W_W@Z PROC				; MyCharUpper, COMDAT
; File c:\workspace\7z1505-src\cpp\common\mystring.h
; Line 122
	push	ebp
	mov	ebp, esp
; Line 123
	movzx	eax, WORD PTR _c$[ebp]
	cmp	eax, 97					; 00000061H
	jge	SHORT $LN3@MyCharUppe
	mov	ax, WORD PTR _c$[ebp]
	jmp	SHORT $LN4@MyCharUppe
$LN3@MyCharUppe:
; Line 124
	movzx	ecx, WORD PTR _c$[ebp]
	cmp	ecx, 122				; 0000007aH
	jg	SHORT $LN2@MyCharUppe
	movzx	eax, WORD PTR _c$[ebp]
	sub	eax, 32					; 00000020H
	jmp	SHORT $LN4@MyCharUppe
$LN2@MyCharUppe:
; Line 125
	movzx	edx, WORD PTR _c$[ebp]
	cmp	edx, 127				; 0000007fH
	jg	SHORT $LN1@MyCharUppe
	mov	ax, WORD PTR _c$[ebp]
	jmp	SHORT $LN4@MyCharUppe
$LN1@MyCharUppe:
; Line 130
	movzx	eax, WORD PTR _c$[ebp]
	push	eax
	call	?MyCharUpper_WIN@@YG_W_W@Z		; MyCharUpper_WIN
$LN4@MyCharUppe:
; Line 135
	cmp	ebp, esp
	call	__RTC_CheckEsp
	pop	ebp
	ret	4
?MyCharUpper@@YG_W_W@Z ENDP				; MyCharUpper
_TEXT	ENDS
PUBLIC	??A?$CRecordVector@UCRefSortPair@@@@QAEAAUCRefSortPair@@I@Z ; CRecordVector<CRefSortPair>::operator[]
PUBLIC	?Size@?$CRecordVector@UCRefSortPair@@@@QBEIXZ	; CRecordVector<CRefSortPair>::Size
PUBLIC	?Sort@?$CRecordVector@UCRefSortPair@@@@QAEXP6GHPBUCRefSortPair@@0PAX@Z1@Z ; CRecordVector<CRefSortPair>::Sort
PUBLIC	??1?$CRecordVector@UCRefSortPair@@@@QAE@XZ	; CRecordVector<CRefSortPair>::~CRecordVector<CRefSortPair>
PUBLIC	?Add@?$CRecordVector@UCRefSortPair@@@@QAEIUCRefSortPair@@@Z ; CRecordVector<CRefSortPair>::Add
PUBLIC	?IsDir@CDirItem@@QBE_NXZ			; CDirItem::IsDir
PUBLIC	??A?$CObjectVector@UCDirItem@@@@QAEAAUCDirItem@@I@Z ; CObjectVector<CDirItem>::operator[]
PUBLIC	??0?$CRecordVector@UCRefSortPair@@@@QAE@XZ	; CRecordVector<CRefSortPair>::CRecordVector<CRefSortPair>
PUBLIC	??1CCurrentDirRestorer@NDir@NFile@NWindows@@QAE@XZ ; NWindows::NFile::NDir::CCurrentDirRestorer::~CCurrentDirRestorer
PUBLIC	??1AString@@QAE@XZ				; AString::~AString
PUBLIC	?IsEmpty@AString@@QBE_NXZ			; AString::IsEmpty
PUBLIC	??BAString@@QBEPBDXZ				; AString::operator char const *
PUBLIC	?GetAnsiString@@YG?AVAString@@ABVUString@@@Z	; GetAnsiString
PUBLIC	??A?$CObjectVector@VUString@@@@QAEAAVUString@@I@Z ; CObjectVector<UString>::operator[]
PUBLIC	??0CCurrentDirRestorer@NDir@NFile@NWindows@@QAE@XZ ; NWindows::NFile::NDir::CCurrentDirRestorer::CCurrentDirRestorer
PUBLIC	??1?$CObjectVector@VUString@@@@QAE@XZ		; CObjectVector<UString>::~CObjectVector<UString>
PUBLIC	??0?$CObjectVector@VUString@@@@QAE@XZ		; CObjectVector<UString>::CObjectVector<UString>
PUBLIC	?GetProc@CLibrary@NDLL@NWindows@@QBEP6GHXZPBD@Z	; NWindows::NDLL::CLibrary::GetProc
PUBLIC	??1CLibrary@NDLL@NWindows@@QAE@XZ		; NWindows::NDLL::CLibrary::~CLibrary
PUBLIC	??0CLibrary@NDLL@NWindows@@QAE@XZ		; NWindows::NDLL::CLibrary::CLibrary
PUBLIC	?Clear@?$CObjectVector@VUString@@@@QAEXXZ	; CObjectVector<UString>::Clear
PUBLIC	??0CFinishArchiveStat@@QAE@XZ			; CFinishArchiveStat::CFinishArchiveStat
PUBLIC	??1?$CBuffer@E@@QAE@XZ				; CBuffer<unsigned char>::~CBuffer<unsigned char>
PUBLIC	??B?$CBuffer@E@@QAEPAEXZ			; CBuffer<unsigned char>::operator unsigned char *
PUBLIC	?Alloc@?$CBuffer@E@@QAEXI@Z			; CBuffer<unsigned char>::Alloc
PUBLIC	?Size@?$CObjectVector@UCDirItem@@@@QBEIXZ	; CObjectVector<CDirItem>::Size
PUBLIC	??0?$CBuffer@E@@QAE@XZ				; CBuffer<unsigned char>::CBuffer<unsigned char>
PUBLIC	??1?$CObjectVector@UCArcItem@@@@QAE@XZ		; CObjectVector<CArcItem>::~CObjectVector<CArcItem>
PUBLIC	??0?$CObjectVector@UCArcItem@@@@QAE@XZ		; CObjectVector<CArcItem>::CObjectVector<CArcItem>
PUBLIC	??1CTempDir@NDir@NFile@NWindows@@QAE@XZ		; NWindows::NFile::NDir::CTempDir::~CTempDir
PUBLIC	??1CTempFiles@@QAE@XZ				; CTempFiles::~CTempFiles
PUBLIC	??4CArchivePath@@QAEAAU0@ABU0@@Z		; CArchivePath::operator=
PUBLIC	??0CTempFiles@@QAE@XZ				; CTempFiles::CTempFiles
PUBLIC	?GetPath@CTempDir@NDir@NFile@NWindows@@QBEABVUString@@XZ ; NWindows::NFile::NDir::CTempDir::GetPath
PUBLIC	??0CTempDir@NDir@NFile@NWindows@@QAE@XZ		; NWindows::NFile::NDir::CTempDir::CTempDir
PUBLIC	??A?$CObjectVector@UCPair@NWildcard@@@@QAEAAUCPair@NWildcard@@I@Z ; CObjectVector<NWildcard::CPair>::operator[]
PUBLIC	?Size@?$CObjectVector@UCPair@NWildcard@@@@QBEIXZ ; CObjectVector<NWildcard::CPair>::Size
PUBLIC	??1CDirItems@@QAE@XZ				; CDirItems::~CDirItems
PUBLIC	?NeedScanning@CActionSet@NUpdateArchive@@QBE_NXZ ; NUpdateArchive::CActionSet::NeedScanning
PUBLIC	??1CDirItem@@QAE@XZ				; CDirItem::~CDirItem
PUBLIC	?Add@?$CObjectVector@UCDirItem@@@@QAEIABUCDirItem@@@Z ; CObjectVector<CDirItem>::Add
PUBLIC	??0CDirItem@@QAE@XZ				; CDirItem::CDirItem
PUBLIC	?GetArc@CArchiveLink@@QBEPBVCArc@@XZ		; CArchiveLink::GetArc
PUBLIC	?Back@?$CObjectVector@VCArc@@@@QAEAAVCArc@@XZ	; CObjectVector<CArc>::Back
PUBLIC	?Size@?$CObjectVector@VUString@@@@QBEIXZ	; CObjectVector<UString>::Size
PUBLIC	??1?$CObjectVector@UCOpenType@@@@QAE@XZ		; CObjectVector<COpenType>::~CObjectVector<COpenType>
PUBLIC	??1?$CRecordVector@H@@QAE@XZ			; CRecordVector<int>::~CRecordVector<int>
PUBLIC	??1COpenOptions@@QAE@XZ				; COpenOptions::~COpenOptions
PUBLIC	??0COpenOptions@@QAE@XZ				; COpenOptions::COpenOptions
PUBLIC	??0?$CRecordVector@H@@QAE@XZ			; CRecordVector<int>::CRecordVector<int>
PUBLIC	?Add@?$CObjectVector@UCOpenType@@@@QAEIABUCOpenType@@@Z ; CObjectVector<COpenType>::Add
PUBLIC	??0?$CObjectVector@UCOpenType@@@@QAE@XZ		; CObjectVector<COpenType>::CObjectVector<COpenType>
PUBLIC	?IsDir@CFileInfoBase@NFind@NFile@NWindows@@QBE_NXZ ; NWindows::NFile::NFind::CFileInfoBase::IsDir
PUBLIC	??1CFileInfo@NFind@NFile@NWindows@@QAE@XZ	; NWindows::NFile::NFind::CFileInfo::~CFileInfo
PUBLIC	??0CFileInfo@NFind@NFile@NWindows@@QAE@XZ	; NWindows::NFile::NFind::CFileInfo::CFileInfo
PUBLIC	__TI2PAD
PUBLIC	??1CArchiveLink@@QAE@XZ				; CArchiveLink::~CArchiveLink
PUBLIC	??0CArchiveLink@@QAE@XZ				; CArchiveLink::CArchiveLink
PUBLIC	?Find@UString@@QBEH_W@Z				; UString::Find
PUBLIC	??1CProperty@@QAE@XZ				; CProperty::~CProperty
PUBLIC	?Add@?$CObjectVector@UCProperty@@@@QAEIABUCProperty@@@Z ; CObjectVector<CProperty>::Add
PUBLIC	??0CProperty@@QAE@XZ				; CProperty::CProperty
PUBLIC	?IsEmpty@?$CObjectVector@UCRenamePair@@@@QBE_NXZ ; CObjectVector<CRenamePair>::IsEmpty
PUBLIC	?UpdateArchive@@YGJPAVCCodecs@@ABV?$CObjectVector@UCOpenType@@@@ABVUString@@AAVCCensor@NWildcard@@AAUCUpdateOptions@@AAUCUpdateErrorInfo@@PAUIOpenCallbackUI@@PAUIUpdateCallbackUI2@@_N@Z ; UpdateArchive
PUBLIC	__CTA2PAD
PUBLIC	__CT??_R0PAD@84
PUBLIC	??_R0PAD@8					; char * `RTTI Type Descriptor'
PUBLIC	__CT??_R0PAX@84
PUBLIC	??_R0PAX@8					; void * `RTTI Type Descriptor'
EXTRN	?RemoveDir@NDir@NFile@NWindows@@YG_NPB_W@Z:PROC	; NWindows::NFile::NDir::RemoveDir
EXTRN	?DoesDirExist@NFind@NFile@NWindows@@YG_NPB_W@Z:PROC ; NWindows::NFile::NFind::DoesDirExist
EXTRN	?GetPhyPath@CDirItems@@QBE?AVUString@@I@Z:PROC	; CDirItems::GetPhyPath
EXTRN	_memset:PROC
EXTRN	?ExtractFileNameFromPath@@YG?AVUString@@ABV1@@Z:PROC ; ExtractFileNameFromPath
EXTRN	?MyGetFullPathName@NDir@NFile@NWindows@@YG_NPB_WAAVUString@@@Z:PROC ; NWindows::NFile::NDir::MyGetFullPathName
EXTRN	?Load@CLibrary@NDLL@NWindows@@QAE_NPB_W@Z:PROC	; NWindows::NDLL::CLibrary::Load
EXTRN	?MyMoveFile@NDir@NFile@NWindows@@YG_NPB_W0@Z:PROC ; NWindows::NFile::NDir::MyMoveFile
EXTRN	?Release@CArchiveLink@@QAEXXZ:PROC		; CArchiveLink::Release
EXTRN	?Close@CArchiveLink@@QAEJXZ:PROC		; CArchiveLink::Close
EXTRN	?DoesFileOrDirExist@NFind@NFile@NWindows@@YG_NPB_W@Z:PROC ; NWindows::NFile::NFind::DoesFileOrDirExist
EXTRN	?NormalizeDirPathPrefix@NName@NFile@NWindows@@YGXAAVUString@@@Z:PROC ; NWindows::NFile::NName::NormalizeDirPathPrefix
EXTRN	?Create@CTempDir@NDir@NFile@NWindows@@QAE_NPB_W@Z:PROC ; NWindows::NFile::NDir::CTempDir::Create
EXTRN	?AddSecurityItem@CDirItems@@QAEJABVUString@@AAH@Z:PROC ; CDirItems::AddSecurityItem
EXTRN	?EnumerateItems@@YGJABVCCensor@NWildcard@@W4ECensorPathMode@2@ABVUString@@AAVCDirItems@@@Z:PROC ; EnumerateItems
EXTRN	?GetCurUtcFileTime@NTime@NWindows@@YGXAAU_FILETIME@@@Z:PROC ; NWindows::NTime::GetCurUtcFileTime
EXTRN	??0CDirItems@@QAE@XZ:PROC			; CDirItems::CDirItems
EXTRN	?FindFormatForArchiveType@CCodecs@@QBEHABVUString@@@Z:PROC ; CCodecs::FindFormatForArchiveType
EXTRN	?Open3@CArchiveLink@@QAEJAAUCOpenOptions@@PAUIOpenCallbackUI@@@Z:PROC ; CArchiveLink::Open3
EXTRN	?Find@CFileInfo@NFind@NFile@NWindows@@QAE_NPB_W@Z:PROC ; NWindows::NFile::NFind::CFileInfo::Find
EXTRN	?DoesFileExist@NFind@NFile@NWindows@@YG_NPB_W@Z:PROC ; NWindows::NFile::NFind::DoesFileExist
EXTRN	?GetModuleDirPrefix@NDLL@NWindows@@YG?AVUString@@XZ:PROC ; NWindows::NDLL::GetModuleDirPrefix
EXTRN	?ExtendExclude@CCensor@NWildcard@@QAEXXZ:PROC	; NWildcard::CCensor::ExtendExclude
EXTRN	?ConvertToLongNames@@YGXAAVCCensor@NWildcard@@@Z:PROC ; ConvertToLongNames
EXTRN	?AddPathsToCensor@CCensor@NWildcard@@QAEXW4ECensorPathMode@2@@Z:PROC ; NWildcard::CCensor::AddPathsToCensor
EXTRN	__CxxThrowException@8:PROC
;	COMDAT ??_R0PAX@8
; File c:\workspace\7z1505-src\cpp\7zip\ui\common\update.cpp
_DATA	SEGMENT
??_R0PAX@8 DD	FLAT:??_7type_info@@6B@			; void * `RTTI Type Descriptor'
	DD	00H
	DB	'.PAX', 00H
_DATA	ENDS
;	COMDAT __CT??_R0PAX@84
xdata$x	SEGMENT
__CT??_R0PAX@84 DD 01H
	DD	FLAT:??_R0PAX@8
	DD	00H
	DD	0ffffffffH
	ORG $+4
	DD	04H
	DD	00H
xdata$x	ENDS
;	COMDAT ??_R0PAD@8
_DATA	SEGMENT
??_R0PAD@8 DD	FLAT:??_7type_info@@6B@			; char * `RTTI Type Descriptor'
	DD	00H
	DB	'.PAD', 00H
_DATA	ENDS
;	COMDAT __CT??_R0PAD@84
xdata$x	SEGMENT
__CT??_R0PAD@84 DD 01H
	DD	FLAT:??_R0PAD@8
	DD	00H
	DD	0ffffffffH
	ORG $+4
	DD	04H
	DD	00H
xdata$x	ENDS
;	COMDAT __CTA2PAD
xdata$x	SEGMENT
__CTA2PAD DD	02H
	DD	FLAT:__CT??_R0PAD@84
	DD	FLAT:__CT??_R0PAX@84
xdata$x	ENDS
;	COMDAT __TI2PAD
xdata$x	SEGMENT
__TI2PAD DD	00H
	DD	00H
	DD	00H
	DD	FLAT:__CTA2PAD
xdata$x	ENDS
xdata$x	SEGMENT
__catchsym$?UpdateArchive@@YGJPAVCCodecs@@ABV?$CObjectVector@UCOpenType@@@@ABVUString@@AAVCCensor@NWildcard@@AAUCUpdateOptions@@AAUCUpdateErrorInfo@@PAUIOpenCallbackUI@@PAUIUpdateCallbackUI2@@_N@Z$40 DD 040H
	DD	00H
	DD	00H
	DD	FLAT:__catch$?UpdateArchive@@YGJPAVCCodecs@@ABV?$CObjectVector@UCOpenType@@@@ABVUString@@AAVCCensor@NWildcard@@AAUCUpdateOptions@@AAUCUpdateErrorInfo@@PAUIOpenCallbackUI@@PAUIUpdateCallbackUI2@@_N@Z$0
__tryblocktable$?UpdateArchive@@YGJPAVCCodecs@@ABV?$CObjectVector@UCOpenType@@@@ABVUString@@AAVCCensor@NWildcard@@AAUCUpdateOptions@@AAUCUpdateErrorInfo@@PAUIOpenCallbackUI@@PAUIUpdateCallbackUI2@@_N@Z DD 018H
	DD	019H
	DD	01aH
	DD	01H
	DD	FLAT:__catchsym$?UpdateArchive@@YGJPAVCCodecs@@ABV?$CObjectVector@UCOpenType@@@@ABVUString@@AAVCCensor@NWildcard@@AAUCUpdateOptions@@AAUCUpdateErrorInfo@@PAUIOpenCallbackUI@@PAUIUpdateCallbackUI2@@_N@Z$40
__ehfuncinfo$?UpdateArchive@@YGJPAVCCodecs@@ABV?$CObjectVector@UCOpenType@@@@ABVUString@@AAVCCensor@NWildcard@@AAUCUpdateOptions@@AAUCUpdateErrorInfo@@PAUIOpenCallbackUI@@PAUIUpdateCallbackUI2@@_N@Z DD 019930522H
	DD	029H
	DD	FLAT:__unwindtable$?UpdateArchive@@YGJPAVCCodecs@@ABV?$CObjectVector@UCOpenType@@@@ABVUString@@AAVCCensor@NWildcard@@AAUCUpdateOptions@@AAUCUpdateErrorInfo@@PAUIOpenCallbackUI@@PAUIUpdateCallbackUI2@@_N@Z
	DD	01H
	DD	FLAT:__tryblocktable$?UpdateArchive@@YGJPAVCCodecs@@ABV?$CObjectVector@UCOpenType@@@@ABVUString@@AAVCCensor@NWildcard@@AAUCUpdateOptions@@AAUCUpdateErrorInfo@@PAUIOpenCallbackUI@@PAUIUpdateCallbackUI2@@_N@Z
	DD	2 DUP(00H)
	DD	00H
	DD	01H
__unwindtable$?UpdateArchive@@YGJPAVCCodecs@@ABV?$CObjectVector@UCOpenType@@@@ABVUString@@AAVCCensor@NWildcard@@AAUCUpdateOptions@@AAUCUpdateErrorInfo@@PAUIOpenCallbackUI@@PAUIUpdateCallbackUI2@@_N@Z DD 0ffffffffH
	DD	FLAT:__unwindfunclet$?UpdateArchive@@YGJPAVCCodecs@@ABV?$CObjectVector@UCOpenType@@@@ABVUString@@AAVCCensor@NWildcard@@AAUCUpdateOptions@@AAUCUpdateErrorInfo@@PAUIOpenCallbackUI@@PAUIUpdateCallbackUI2@@_N@Z$2
	DD	00H
	DD	FLAT:__unwindfunclet$?UpdateArchive@@YGJPAVCCodecs@@ABV?$CObjectVector@UCOpenType@@@@ABVUString@@AAVCCensor@NWildcard@@AAUCUpdateOptions@@AAUCUpdateErrorInfo@@PAUIOpenCallbackUI@@PAUIUpdateCallbackUI2@@_N@Z$3
	DD	01H
	DD	FLAT:__unwindfunclet$?UpdateArchive@@YGJPAVCCodecs@@ABV?$CObjectVector@UCOpenType@@@@ABVUString@@AAVCCensor@NWildcard@@AAUCUpdateOptions@@AAUCUpdateErrorInfo@@PAUIOpenCallbackUI@@PAUIUpdateCallbackUI2@@_N@Z$4
	DD	00H
	DD	FLAT:__unwindfunclet$?UpdateArchive@@YGJPAVCCodecs@@ABV?$CObjectVector@UCOpenType@@@@ABVUString@@AAVCCensor@NWildcard@@AAUCUpdateOptions@@AAUCUpdateErrorInfo@@PAUIOpenCallbackUI@@PAUIUpdateCallbackUI2@@_N@Z$4
	DD	0ffffffffH
	DD	FLAT:__unwindfunclet$?UpdateArchive@@YGJPAVCCodecs@@ABV?$CObjectVector@UCOpenType@@@@ABVUString@@AAVCCensor@NWildcard@@AAUCUpdateOptions@@AAUCUpdateErrorInfo@@PAUIOpenCallbackUI@@PAUIUpdateCallbackUI2@@_N@Z$5
	DD	04H
	DD	FLAT:__unwindfunclet$?UpdateArchive@@YGJPAVCCodecs@@ABV?$CObjectVector@UCOpenType@@@@ABVUString@@AAVCCensor@NWildcard@@AAUCUpdateOptions@@AAUCUpdateErrorInfo@@PAUIOpenCallbackUI@@PAUIUpdateCallbackUI2@@_N@Z$6
	DD	05H
	DD	FLAT:__unwindfunclet$?UpdateArchive@@YGJPAVCCodecs@@ABV?$CObjectVector@UCOpenType@@@@ABVUString@@AAVCCensor@NWildcard@@AAUCUpdateOptions@@AAUCUpdateErrorInfo@@PAUIOpenCallbackUI@@PAUIUpdateCallbackUI2@@_N@Z$7
	DD	06H
	DD	FLAT:__unwindfunclet$?UpdateArchive@@YGJPAVCCodecs@@ABV?$CObjectVector@UCOpenType@@@@ABVUString@@AAVCCensor@NWildcard@@AAUCUpdateOptions@@AAUCUpdateErrorInfo@@PAUIOpenCallbackUI@@PAUIUpdateCallbackUI2@@_N@Z$8
	DD	07H
	DD	FLAT:__unwindfunclet$?UpdateArchive@@YGJPAVCCodecs@@ABV?$CObjectVector@UCOpenType@@@@ABVUString@@AAVCCensor@NWildcard@@AAUCUpdateOptions@@AAUCUpdateErrorInfo@@PAUIOpenCallbackUI@@PAUIUpdateCallbackUI2@@_N@Z$9
	DD	08H
	DD	FLAT:__unwindfunclet$?UpdateArchive@@YGJPAVCCodecs@@ABV?$CObjectVector@UCOpenType@@@@ABVUString@@AAVCCensor@NWildcard@@AAUCUpdateOptions@@AAUCUpdateErrorInfo@@PAUIOpenCallbackUI@@PAUIUpdateCallbackUI2@@_N@Z$10
	DD	05H
	DD	FLAT:__unwindfunclet$?UpdateArchive@@YGJPAVCCodecs@@ABV?$CObjectVector@UCOpenType@@@@ABVUString@@AAVCCensor@NWildcard@@AAUCUpdateOptions@@AAUCUpdateErrorInfo@@PAUIOpenCallbackUI@@PAUIUpdateCallbackUI2@@_N@Z$11
	DD	05H
	DD	FLAT:__unwindfunclet$?UpdateArchive@@YGJPAVCCodecs@@ABV?$CObjectVector@UCOpenType@@@@ABVUString@@AAVCCensor@NWildcard@@AAUCUpdateOptions@@AAUCUpdateErrorInfo@@PAUIOpenCallbackUI@@PAUIUpdateCallbackUI2@@_N@Z$12
	DD	0bH
	DD	FLAT:__unwindfunclet$?UpdateArchive@@YGJPAVCCodecs@@ABV?$CObjectVector@UCOpenType@@@@ABVUString@@AAVCCensor@NWildcard@@AAUCUpdateOptions@@AAUCUpdateErrorInfo@@PAUIOpenCallbackUI@@PAUIUpdateCallbackUI2@@_N@Z$13
	DD	0cH
	DD	FLAT:__unwindfunclet$?UpdateArchive@@YGJPAVCCodecs@@ABV?$CObjectVector@UCOpenType@@@@ABVUString@@AAVCCensor@NWildcard@@AAUCUpdateOptions@@AAUCUpdateErrorInfo@@PAUIOpenCallbackUI@@PAUIUpdateCallbackUI2@@_N@Z$14
	DD	0cH
	DD	FLAT:__unwindfunclet$?UpdateArchive@@YGJPAVCCodecs@@ABV?$CObjectVector@UCOpenType@@@@ABVUString@@AAVCCensor@NWildcard@@AAUCUpdateOptions@@AAUCUpdateErrorInfo@@PAUIOpenCallbackUI@@PAUIUpdateCallbackUI2@@_N@Z$15
	DD	0eH
	DD	FLAT:__unwindfunclet$?UpdateArchive@@YGJPAVCCodecs@@ABV?$CObjectVector@UCOpenType@@@@ABVUString@@AAVCCensor@NWildcard@@AAUCUpdateOptions@@AAUCUpdateErrorInfo@@PAUIOpenCallbackUI@@PAUIUpdateCallbackUI2@@_N@Z$16
	DD	0cH
	DD	FLAT:__unwindfunclet$?UpdateArchive@@YGJPAVCCodecs@@ABV?$CObjectVector@UCOpenType@@@@ABVUString@@AAVCCensor@NWildcard@@AAUCUpdateOptions@@AAUCUpdateErrorInfo@@PAUIOpenCallbackUI@@PAUIUpdateCallbackUI2@@_N@Z$17
	DD	010H
	DD	FLAT:__unwindfunclet$?UpdateArchive@@YGJPAVCCodecs@@ABV?$CObjectVector@UCOpenType@@@@ABVUString@@AAVCCensor@NWildcard@@AAUCUpdateOptions@@AAUCUpdateErrorInfo@@PAUIOpenCallbackUI@@PAUIUpdateCallbackUI2@@_N@Z$18
	DD	011H
	DD	FLAT:__unwindfunclet$?UpdateArchive@@YGJPAVCCodecs@@ABV?$CObjectVector@UCOpenType@@@@ABVUString@@AAVCCensor@NWildcard@@AAUCUpdateOptions@@AAUCUpdateErrorInfo@@PAUIOpenCallbackUI@@PAUIUpdateCallbackUI2@@_N@Z$19
	DD	012H
	DD	FLAT:__unwindfunclet$?UpdateArchive@@YGJPAVCCodecs@@ABV?$CObjectVector@UCOpenType@@@@ABVUString@@AAVCCensor@NWildcard@@AAUCUpdateOptions@@AAUCUpdateErrorInfo@@PAUIOpenCallbackUI@@PAUIUpdateCallbackUI2@@_N@Z$20
	DD	012H
	DD	FLAT:__unwindfunclet$?UpdateArchive@@YGJPAVCCodecs@@ABV?$CObjectVector@UCOpenType@@@@ABVUString@@AAVCCensor@NWildcard@@AAUCUpdateOptions@@AAUCUpdateErrorInfo@@PAUIOpenCallbackUI@@PAUIUpdateCallbackUI2@@_N@Z$21
	DD	014H
	DD	FLAT:__unwindfunclet$?UpdateArchive@@YGJPAVCCodecs@@ABV?$CObjectVector@UCOpenType@@@@ABVUString@@AAVCCensor@NWildcard@@AAUCUpdateOptions@@AAUCUpdateErrorInfo@@PAUIOpenCallbackUI@@PAUIUpdateCallbackUI2@@_N@Z$22
	DD	015H
	DD	FLAT:__unwindfunclet$?UpdateArchive@@YGJPAVCCodecs@@ABV?$CObjectVector@UCOpenType@@@@ABVUString@@AAVCCensor@NWildcard@@AAUCUpdateOptions@@AAUCUpdateErrorInfo@@PAUIOpenCallbackUI@@PAUIUpdateCallbackUI2@@_N@Z$23
	DD	016H
	DD	FLAT:__unwindfunclet$?UpdateArchive@@YGJPAVCCodecs@@ABV?$CObjectVector@UCOpenType@@@@ABVUString@@AAVCCensor@NWildcard@@AAUCUpdateOptions@@AAUCUpdateErrorInfo@@PAUIOpenCallbackUI@@PAUIUpdateCallbackUI2@@_N@Z$24
	DD	015H
	DD	00H
	DD	018H
	DD	FLAT:__unwindfunclet$?UpdateArchive@@YGJPAVCCodecs@@ABV?$CObjectVector@UCOpenType@@@@ABVUString@@AAVCCensor@NWildcard@@AAUCUpdateOptions@@AAUCUpdateErrorInfo@@PAUIOpenCallbackUI@@PAUIUpdateCallbackUI2@@_N@Z$25
	DD	015H
	DD	00H
	DD	015H
	DD	FLAT:__unwindfunclet$?UpdateArchive@@YGJPAVCCodecs@@ABV?$CObjectVector@UCOpenType@@@@ABVUString@@AAVCCensor@NWildcard@@AAUCUpdateOptions@@AAUCUpdateErrorInfo@@PAUIOpenCallbackUI@@PAUIUpdateCallbackUI2@@_N@Z$26
	DD	01bH
	DD	FLAT:__unwindfunclet$?UpdateArchive@@YGJPAVCCodecs@@ABV?$CObjectVector@UCOpenType@@@@ABVUString@@AAVCCensor@NWildcard@@AAUCUpdateOptions@@AAUCUpdateErrorInfo@@PAUIOpenCallbackUI@@PAUIUpdateCallbackUI2@@_N@Z$27
	DD	01cH
	DD	FLAT:__unwindfunclet$?UpdateArchive@@YGJPAVCCodecs@@ABV?$CObjectVector@UCOpenType@@@@ABVUString@@AAVCCensor@NWildcard@@AAUCUpdateOptions@@AAUCUpdateErrorInfo@@PAUIOpenCallbackUI@@PAUIUpdateCallbackUI2@@_N@Z$28
	DD	01dH
	DD	FLAT:__unwindfunclet$?UpdateArchive@@YGJPAVCCodecs@@ABV?$CObjectVector@UCOpenType@@@@ABVUString@@AAVCCensor@NWildcard@@AAUCUpdateOptions@@AAUCUpdateErrorInfo@@PAUIOpenCallbackUI@@PAUIUpdateCallbackUI2@@_N@Z$29
	DD	01cH
	DD	FLAT:__unwindfunclet$?UpdateArchive@@YGJPAVCCodecs@@ABV?$CObjectVector@UCOpenType@@@@ABVUString@@AAVCCensor@NWildcard@@AAUCUpdateOptions@@AAUCUpdateErrorInfo@@PAUIOpenCallbackUI@@PAUIUpdateCallbackUI2@@_N@Z$30
	DD	01fH
	DD	FLAT:__unwindfunclet$?UpdateArchive@@YGJPAVCCodecs@@ABV?$CObjectVector@UCOpenType@@@@ABVUString@@AAVCCensor@NWildcard@@AAUCUpdateOptions@@AAUCUpdateErrorInfo@@PAUIOpenCallbackUI@@PAUIUpdateCallbackUI2@@_N@Z$31
	DD	020H
	DD	FLAT:__unwindfunclet$?UpdateArchive@@YGJPAVCCodecs@@ABV?$CObjectVector@UCOpenType@@@@ABVUString@@AAVCCensor@NWildcard@@AAUCUpdateOptions@@AAUCUpdateErrorInfo@@PAUIOpenCallbackUI@@PAUIUpdateCallbackUI2@@_N@Z$32
	DD	021H
	DD	FLAT:__unwindfunclet$?UpdateArchive@@YGJPAVCCodecs@@ABV?$CObjectVector@UCOpenType@@@@ABVUString@@AAVCCensor@NWildcard@@AAUCUpdateOptions@@AAUCUpdateErrorInfo@@PAUIOpenCallbackUI@@PAUIUpdateCallbackUI2@@_N@Z$33
	DD	022H
	DD	FLAT:__unwindfunclet$?UpdateArchive@@YGJPAVCCodecs@@ABV?$CObjectVector@UCOpenType@@@@ABVUString@@AAVCCensor@NWildcard@@AAUCUpdateOptions@@AAUCUpdateErrorInfo@@PAUIOpenCallbackUI@@PAUIUpdateCallbackUI2@@_N@Z$34
	DD	023H
	DD	FLAT:__unwindfunclet$?UpdateArchive@@YGJPAVCCodecs@@ABV?$CObjectVector@UCOpenType@@@@ABVUString@@AAVCCensor@NWildcard@@AAUCUpdateOptions@@AAUCUpdateErrorInfo@@PAUIOpenCallbackUI@@PAUIUpdateCallbackUI2@@_N@Z$35
	DD	015H
	DD	FLAT:__unwindfunclet$?UpdateArchive@@YGJPAVCCodecs@@ABV?$CObjectVector@UCOpenType@@@@ABVUString@@AAVCCensor@NWildcard@@AAUCUpdateOptions@@AAUCUpdateErrorInfo@@PAUIOpenCallbackUI@@PAUIUpdateCallbackUI2@@_N@Z$36
	DD	025H
	DD	FLAT:__unwindfunclet$?UpdateArchive@@YGJPAVCCodecs@@ABV?$CObjectVector@UCOpenType@@@@ABVUString@@AAVCCensor@NWildcard@@AAUCUpdateOptions@@AAUCUpdateErrorInfo@@PAUIOpenCallbackUI@@PAUIUpdateCallbackUI2@@_N@Z$37
	DD	026H
	DD	FLAT:__unwindfunclet$?UpdateArchive@@YGJPAVCCodecs@@ABV?$CObjectVector@UCOpenType@@@@ABVUString@@AAVCCensor@NWildcard@@AAUCUpdateOptions@@AAUCUpdateErrorInfo@@PAUIOpenCallbackUI@@PAUIUpdateCallbackUI2@@_N@Z$38
	DD	026H
	DD	FLAT:__unwindfunclet$?UpdateArchive@@YGJPAVCCodecs@@ABV?$CObjectVector@UCOpenType@@@@ABVUString@@AAVCCensor@NWildcard@@AAUCUpdateOptions@@AAUCUpdateErrorInfo@@PAUIOpenCallbackUI@@PAUIUpdateCallbackUI2@@_N@Z$39
; Function compile flags: /Odtp /RTCsu
xdata$x	ENDS
_TEXT	SEGMENT
tv1877 = -1832						; size = 4
tv468 = -1828						; size = 4
tv559 = -1821						; size = 1
tv562 = -1820						; size = 4
tv618 = -1816						; size = 4
tv621 = -1812						; size = 4
tv637 = -1805						; size = 1
tv704 = -1804						; size = 4
tv722 = -1800						; size = 4
tv734 = -1796						; size = 4
tv844 = -1792						; size = 4
tv816 = -1788						; size = 4
tv1280 = -1784						; size = 4
tv795 = -1780						; size = 4
tv789 = -1776						; size = 4
tv459 = -1772						; size = 4
tv1173 = -1768						; size = 4
tv151 = -1764						; size = 4
$T77525 = -1760						; size = 4
$T77524 = -1756						; size = 4
$T77523 = -1752						; size = 4
$T77522 = -1748						; size = 4
$T77521 = -1744						; size = 4
$T77520 = -1740						; size = 4
$T77519 = -1736						; size = 4
$T77518 = -1732						; size = 4
$T77517 = -1728						; size = 4
$T77516 = -1724						; size = 4
$T77515 = -1720						; size = 4
$T77514 = -1716						; size = 4
$T77511 = -1712						; size = 4
$T77508 = -1708						; size = 12
$T77505 = -1696						; size = 4
$T77504 = -1692						; size = 4
$T77503 = -1688						; size = 4
$T77502 = -1684						; size = 4
$T77501 = -1680						; size = 4
$T77498 = -1676						; size = 4
$T77497 = -1672						; size = 4
$T77496 = -1668						; size = 12
$T77495 = -1656						; size = 4
$T77494 = -1652						; size = 4
$T77493 = -1648						; size = 4
$T77492 = -1644						; size = 4
$T77491 = -1640						; size = 4
$T77490 = -1636						; size = 4
$T77489 = -1632						; size = 4
$T77488 = -1628						; size = 4
$T77487 = -1624						; size = 4
$T77486 = -1620						; size = 4
$T77485 = -1616						; size = 4
$T77484 = -1612						; size = 4
$T77482 = -1608						; size = 4
$T77481 = -1604						; size = 4
$T77480 = -1600						; size = 4
$T77479 = -1596						; size = 12
$T77478 = -1584						; size = 4
___result__$75727 = -1580				; size = 4
___result__$75724 = -1576				; size = 4
_phyPath$75721 = -1568					; size = 12
___result__$75714 = -1552				; size = 4
_pair$75710 = -1544					; size = 8
_phyPath$75707 = -1528					; size = 12
_dirItem$75706 = -1512					; size = 4
_foldersNames$75702 = -1504				; size = 12
_pairs$75701 = -1484					; size = 12
_rec$75598 = -1464					; size = 24
_addr$75596 = -1432					; size = 12
_m$75595 = -1412					; size = 48
_f$75590 = -1356					; size = 24
_name$75588 = -1324					; size = 12
_path$75586 = -1304					; size = 12
_fileName$75584 = -1284					; size = 12
_arcPath$75583 = -1264					; size = 12
_curDirRestorer$75579 = -1244				; size = 16
_arcPath$75575 = -1220					; size = 12
_finalPath$75573 = -1200				; size = 12
_ap$75572 = -1184					; size = 4
_i$75568 = -1180					; size = 4
_fullPaths$75567 = -1172				; size = 12
_sendMail$75561 = -1156					; size = 4
_mapiLib$75556 = -1148					; size = 4
_$S1$75547 = -1136					; size = 12
_tempPath$75545 = -1120					; size = 4
_ap$75544 = -1116					; size = 4
___result__$75539 = -1112				; size = 4
___result__$75535 = -1108				; size = 4
___result__$75531 = -1104				; size = 4
_st$75530 = -1096					; size = 8
___result__$75527 = -1084				; size = 4
_isUpdating$75522 = -1077				; size = 1
_name$75521 = -1072					; size = 12
_command$75520 = -1056					; size = 4
_arc$75519 = -1052					; size = 4
_num$75512 = -1048					; size = 4
_processedItems$ = -1040				; size = 8
___result__$75507 = -1028				; size = 4
_arcItems$ = -1020					; size = 12
_path$75499 = -1000					; size = 12
_ap$75495 = -984					; size = 4
_i$ = -980						; size = 4
_ap$75486 = -976					; size = 4
_createTempFile$ = -969					; size = 1
_tempFiles$ = -964					; size = 12
_tempDirectory$ = -944					; size = 16
_usesTempDir$ = -921					; size = 1
_tempDirPrefix$ = -916					; size = 12
_secureIndex$75477 = -896				; size = 4
_prefix$75474 = -884					; size = 12
_fi$75473 = -864					; size = 56
___result__$75469 = -804				; size = 4
_res$75462 = -800					; size = 4
___result__$75459 = -796				; size = 4
_i$75453 = -792						; size = 4
_needScanning$75451 = -785				; size = 1
_di$75447 = -780					; size = 80
_parentDirItem_Ptr$ = -696				; size = 4
_parentDirItem$ = -688					; size = 80
_dirItems$ = -600					; size = 160
_thereIsInArchive$ = -433				; size = 1
_arc$75423 = -432					; size = 4
___result__$75414 = -428				; size = 4
___result__$75411 = -424				; size = 4
_res2$75410 = -420					; size = 4
_result$75403 = -416					; size = 4
___result__$75400 = -412				; size = 4
_op$75399 = -404					; size = 88
_excl$75398 = -308					; size = 12
_types$75396 = -288					; size = 12
_fi$75376 = -268					; size = 56
_arcPath$ = -204					; size = 12
_arcLink$ = -184					; size = 96
_fullName$75354 = -80					; size = 12
_found$75352 = -61					; size = 1
_property$75346 = -56					; size = 24
_i$75337 = -28						; size = 4
_as$75336 = -24						; size = 4
_renameMode$ = -17					; size = 1
__$EHRec$ = -16						; size = 16
_codecs$ = 8						; size = 4
_types$ = 12						; size = 4
_cmdArcPath2$ = 16					; size = 4
_censor$ = 20						; size = 4
_options$ = 24						; size = 4
_errorInfo$ = 28					; size = 4
_openCallback$ = 32					; size = 4
_callback$ = 36						; size = 4
_needSetPath$ = 40					; size = 1
?UpdateArchive@@YGJPAVCCodecs@@ABV?$CObjectVector@UCOpenType@@@@ABVUString@@AAVCCensor@NWildcard@@AAUCUpdateOptions@@AAUCUpdateErrorInfo@@PAUIOpenCallbackUI@@PAUIUpdateCallbackUI2@@_N@Z PROC ; UpdateArchive
; Line 988
	push	ebp
	mov	ebp, esp
	push	-1
	push	__ehhandler$?UpdateArchive@@YGJPAVCCodecs@@ABV?$CObjectVector@UCOpenType@@@@ABVUString@@AAVCCensor@NWildcard@@AAUCUpdateOptions@@AAUCUpdateErrorInfo@@PAUIOpenCallbackUI@@PAUIUpdateCallbackUI2@@_N@Z
	mov	eax, DWORD PTR fs:0
	push	eax
	push	ecx
	sub	esp, 1816				; 00000718H
	push	ebx
	push	esi
	push	edi
	lea	edi, DWORD PTR [ebp-1832]
	mov	ecx, 454				; 000001c6H
	mov	eax, -858993460				; ccccccccH
	rep stosd
	mov	eax, DWORD PTR ___security_cookie
	xor	eax, ebp
	push	eax
	lea	eax, DWORD PTR __$EHRec$[ebp+4]
	mov	DWORD PTR fs:0, eax
	mov	DWORD PTR __$EHRec$[ebp], esp
; Line 989
	mov	eax, DWORD PTR _options$[ebp]
	movzx	ecx, BYTE PTR [eax+196]
	test	ecx, ecx
	je	SHORT $LN121@UpdateArch
	mov	edx, DWORD PTR _options$[ebp]
	movzx	eax, BYTE PTR [edx+197]
	test	eax, eax
	je	SHORT $LN121@UpdateArch
; Line 990
	mov	eax, -2147467259			; 80004005H
	jmp	$LN123@UpdateArch
$LN121@UpdateArch:
; Line 992
	mov	ecx, DWORD PTR _types$[ebp]
	call	?Size@?$CObjectVector@UCOpenType@@@@QBEIXZ ; CObjectVector<COpenType>::Size
	cmp	eax, 1
	jbe	SHORT $LN120@UpdateArch
; Line 993
	mov	eax, -2147467263			; 80004001H
	jmp	$LN123@UpdateArch
$LN120@UpdateArch:
; Line 995
	mov	ecx, DWORD PTR _options$[ebp]
	add	ecx, 252				; 000000fcH
	call	?IsEmpty@?$CObjectVector@UCRenamePair@@@@QBE_NXZ ; CObjectVector<CRenamePair>::IsEmpty
	movzx	ecx, al
	neg	ecx
	sbb	ecx, ecx
	add	ecx, 1
	mov	BYTE PTR _renameMode$[ebp], cl
; Line 996
	movzx	edx, BYTE PTR _renameMode$[ebp]
	test	edx, edx
	je	SHORT $LN119@UpdateArch
; Line 998
	mov	ecx, DWORD PTR _options$[ebp]
	add	ecx, 56					; 00000038H
	call	?Size@?$CObjectVector@UCUpdateArchiveCommand@@@@QBEIXZ ; CObjectVector<CUpdateArchiveCommand>::Size
	cmp	eax, 1
	je	SHORT $LN119@UpdateArch
; Line 999
	mov	eax, -2147467259			; 80004005H
	jmp	$LN123@UpdateArch
$LN119@UpdateArch:
; Line 1002
	mov	eax, DWORD PTR _options$[ebp]
	movzx	ecx, BYTE PTR [eax+248]
	test	ecx, ecx
	je	SHORT $LN117@UpdateArch
; Line 1004
	mov	ecx, DWORD PTR _options$[ebp]
	add	ecx, 56					; 00000038H
	call	?Size@?$CObjectVector@UCUpdateArchiveCommand@@@@QBEIXZ ; CObjectVector<CUpdateArchiveCommand>::Size
	cmp	eax, 1
	je	SHORT $LN116@UpdateArch
; Line 1005
	mov	eax, -2147467263			; 80004001H
	jmp	$LN123@UpdateArch
$LN116@UpdateArch:
; Line 1006
	push	0
	mov	ecx, DWORD PTR _options$[ebp]
	add	ecx, 56					; 00000038H
	call	??A?$CObjectVector@UCUpdateArchiveCommand@@@@QAEAAUCUpdateArchiveCommand@@I@Z ; CObjectVector<CUpdateArchiveCommand>::operator[]
	add	eax, 100				; 00000064H
	mov	DWORD PTR _as$75336[ebp], eax
; Line 1007
	mov	DWORD PTR _i$75337[ebp], 2
	jmp	SHORT $LN115@UpdateArch
$LN114@UpdateArch:
	mov	edx, DWORD PTR _i$75337[ebp]
	add	edx, 1
	mov	DWORD PTR _i$75337[ebp], edx
$LN115@UpdateArch:
	cmp	DWORD PTR _i$75337[ebp], 7
	jae	SHORT $LN117@UpdateArch
; Line 1008
	mov	eax, DWORD PTR _i$75337[ebp]
	mov	ecx, DWORD PTR _as$75336[ebp]
	cmp	DWORD PTR [ecx+eax*4], 2
	je	SHORT $LN112@UpdateArch
; Line 1009
	mov	eax, -2147467263			; 80004001H
	jmp	$LN123@UpdateArch
$LN112@UpdateArch:
; Line 1010
	jmp	SHORT $LN114@UpdateArch
$LN117@UpdateArch:
; Line 1012
	mov	edx, DWORD PTR _options$[ebp]
	mov	eax, DWORD PTR [edx+224]
	push	eax
	mov	ecx, DWORD PTR _censor$[ebp]
	call	?AddPathsToCensor@CCensor@NWildcard@@QAEXW4ECensorPathMode@2@@Z ; NWildcard::CCensor::AddPathsToCensor
; Line 1014
	mov	ecx, DWORD PTR _censor$[ebp]
	push	ecx
	call	?ConvertToLongNames@@YGXAAVCCensor@NWildcard@@@Z ; ConvertToLongNames
; Line 1016
	mov	ecx, DWORD PTR _censor$[ebp]
	call	?ExtendExclude@CCensor@NWildcard@@QAEXXZ ; NWildcard::CCensor::ExtendExclude
; Line 1019
	mov	ecx, DWORD PTR _options$[ebp]
	add	ecx, 264				; 00000108H
	call	?Size@?$CRecordVector@_K@@QBEIXZ	; CRecordVector<unsigned __int64>::Size
	test	eax, eax
	jbe	SHORT $LN111@UpdateArch
	mov	edx, DWORD PTR _options$[ebp]
	movzx	eax, BYTE PTR [edx+197]
	test	eax, eax
	je	SHORT $LN111@UpdateArch
; Line 1020
	mov	eax, -2147467263			; 80004001H
	jmp	$LN123@UpdateArch
$LN111@UpdateArch:
; Line 1022
	mov	ecx, DWORD PTR _options$[ebp]
	movzx	edx, BYTE PTR [ecx+164]
	test	edx, edx
	je	$LN110@UpdateArch
; Line 1024
	lea	ecx, DWORD PTR _property$75346[ebp]
	call	??0CProperty@@QAE@XZ
	mov	DWORD PTR __$EHRec$[ebp+12], 0
; Line 1025
	push	OFFSET $SG75347
	lea	ecx, DWORD PTR _property$75346[ebp]
	call	?SetFromAscii@UString@@QAEXPBD@Z	; UString::SetFromAscii
; Line 1026
	lea	eax, DWORD PTR _property$75346[ebp]
	push	eax
	mov	ecx, DWORD PTR _options$[ebp]
	add	ecx, 40					; 00000028H
	call	?Add@?$CObjectVector@UCProperty@@@@QAEIABUCProperty@@@Z ; CObjectVector<CProperty>::Add
; Line 1027
	mov	ecx, DWORD PTR _options$[ebp]
	add	ecx, 168				; 000000a8H
	call	?IsEmpty@UString@@QBE_NXZ		; UString::IsEmpty
	movzx	ecx, al
	test	ecx, ecx
	je	SHORT $LN109@UpdateArch
; Line 1029
	push	OFFSET $SG75349
	mov	ecx, DWORD PTR _errorInfo$[ebp]
	add	ecx, 4
	call	??4AString@@QAEAAV0@PBD@Z		; AString::operator=
; Line 1030
	mov	DWORD PTR $T77478[ebp], -2147467259	; 80004005H
	mov	DWORD PTR __$EHRec$[ebp+12], -1
	lea	ecx, DWORD PTR _property$75346[ebp]
	call	??1CProperty@@QAE@XZ
	mov	eax, DWORD PTR $T77478[ebp]
	jmp	$LN123@UpdateArch
$LN109@UpdateArch:
; Line 1032
	mov	BYTE PTR _found$75352[ebp], 0
; Line 1033
	push	92					; 0000005cH
	mov	ecx, DWORD PTR _options$[ebp]
	add	ecx, 168				; 000000a8H
	call	?Find@UString@@QBEH_W@Z			; UString::Find
	test	eax, eax
	jge	$LN108@UpdateArch
; Line 1035
	lea	edx, DWORD PTR $T77479[ebp]
	push	edx
	call	?GetModuleDirPrefix@NDLL@NWindows@@YG?AVUString@@XZ ; NWindows::NDLL::GetModuleDirPrefix
	mov	DWORD PTR tv151[ebp], eax
	mov	eax, DWORD PTR tv151[ebp]
	mov	DWORD PTR tv1173[ebp], eax
	mov	BYTE PTR __$EHRec$[ebp+12], 1
	mov	ecx, DWORD PTR _options$[ebp]
	add	ecx, 168				; 000000a8H
	push	ecx
	mov	edx, DWORD PTR tv1173[ebp]
	push	edx
	lea	eax, DWORD PTR _fullName$75354[ebp]
	push	eax
	call	??H@YG?AVUString@@ABV0@0@Z		; operator+
	mov	BYTE PTR __$EHRec$[ebp+12], 3
	lea	ecx, DWORD PTR $T77479[ebp]
	call	??1UString@@QAE@XZ			; UString::~UString
; Line 1036
	lea	ecx, DWORD PTR _fullName$75354[ebp]
	call	??BUString@@QBEPB_WXZ			; UString::operator wchar_t const *
	push	eax
	call	?DoesFileExist@NFind@NFile@NWindows@@YG_NPB_W@Z ; NWindows::NFile::NFind::DoesFileExist
	movzx	ecx, al
	test	ecx, ecx
	je	SHORT $LN107@UpdateArch
; Line 1038
	lea	edx, DWORD PTR _fullName$75354[ebp]
	push	edx
	mov	ecx, DWORD PTR _options$[ebp]
	add	ecx, 168				; 000000a8H
	call	??4UString@@QAEAAV0@ABV0@@Z		; UString::operator=
; Line 1039
	mov	BYTE PTR _found$75352[ebp], 1
$LN107@UpdateArch:
; Line 1041
	mov	BYTE PTR __$EHRec$[ebp+12], 0
	lea	ecx, DWORD PTR _fullName$75354[ebp]
	call	??1UString@@QAE@XZ			; UString::~UString
$LN108@UpdateArch:
; Line 1042
	movzx	eax, BYTE PTR _found$75352[ebp]
	test	eax, eax
	jne	SHORT $LN106@UpdateArch
; Line 1044
	mov	ecx, DWORD PTR _options$[ebp]
	add	ecx, 168				; 000000a8H
	call	??BUString@@QBEPB_WXZ			; UString::operator wchar_t const *
	push	eax
	call	?DoesFileExist@NFind@NFile@NWindows@@YG_NPB_W@Z ; NWindows::NFile::NFind::DoesFileExist
	movzx	ecx, al
	test	ecx, ecx
	jne	SHORT $LN106@UpdateArch
; Line 1045
	mov	edx, DWORD PTR _options$[ebp]
	add	edx, 168				; 000000a8H
	push	edx
	push	OFFSET $SG75361
	mov	ecx, DWORD PTR _errorInfo$[ebp]
	call	?SetFromLastError@CUpdateErrorInfo@@QAEJPBDABVUString@@@Z ; CUpdateErrorInfo::SetFromLastError
	mov	DWORD PTR $T77480[ebp], eax
	mov	DWORD PTR __$EHRec$[ebp+12], -1
	lea	ecx, DWORD PTR _property$75346[ebp]
	call	??1CProperty@@QAE@XZ
	mov	eax, DWORD PTR $T77480[ebp]
	jmp	$LN123@UpdateArch
$LN106@UpdateArch:
; Line 1047
	mov	DWORD PTR __$EHRec$[ebp+12], -1
	lea	ecx, DWORD PTR _property$75346[ebp]
	call	??1CProperty@@QAE@XZ
$LN110@UpdateArch:
; Line 1049
	lea	ecx, DWORD PTR _arcLink$[ebp]
	call	??0CArchiveLink@@QAE@XZ			; CArchiveLink::CArchiveLink
	mov	DWORD PTR __$EHRec$[ebp+12], 4
; Line 1052
	movzx	eax, BYTE PTR _needSetPath$[ebp]
	test	eax, eax
	je	SHORT $LN104@UpdateArch
; Line 1055
	mov	ecx, DWORD PTR _cmdArcPath2$[ebp]
	push	ecx
	mov	edx, DWORD PTR _types$[ebp]
	push	edx
	mov	eax, DWORD PTR _codecs$[ebp]
	push	eax
	mov	ecx, DWORD PTR _options$[ebp]
	call	?InitFormatIndex@CUpdateOptions@@QAE_NPBVCCodecs@@ABV?$CObjectVector@UCOpenType@@@@ABVUString@@@Z ; CUpdateOptions::InitFormatIndex
	movzx	ecx, al
	test	ecx, ecx
	je	SHORT $LN102@UpdateArch
	mov	edx, DWORD PTR _cmdArcPath2$[ebp]
	push	edx
	mov	eax, DWORD PTR _codecs$[ebp]
	push	eax
	mov	ecx, DWORD PTR _options$[ebp]
	call	?SetArcPath@CUpdateOptions@@QAE_NPBVCCodecs@@ABVUString@@@Z ; CUpdateOptions::SetArcPath
	movzx	ecx, al
	test	ecx, ecx
	jne	SHORT $LN104@UpdateArch
$LN102@UpdateArch:
; Line 1056
	mov	DWORD PTR $T77481[ebp], -2147467263	; 80004001H
	mov	DWORD PTR __$EHRec$[ebp+12], -1
	lea	ecx, DWORD PTR _arcLink$[ebp]
	call	??1CArchiveLink@@QAE@XZ			; CArchiveLink::~CArchiveLink
	mov	eax, DWORD PTR $T77481[ebp]
	jmp	$LN123@UpdateArch
$LN104@UpdateArch:
; Line 1058
	lea	edx, DWORD PTR _arcPath$[ebp]
	push	edx
	mov	ecx, DWORD PTR _options$[ebp]
	add	ecx, 72					; 00000048H
	call	?GetFinalPath@CArchivePath@@QBE?AVUString@@XZ ; CArchivePath::GetFinalPath
	mov	BYTE PTR __$EHRec$[ebp+12], 5
; Line 1060
	mov	ecx, DWORD PTR _cmdArcPath2$[ebp]
	call	?IsEmpty@UString@@QBE_NXZ		; UString::IsEmpty
	movzx	eax, al
	test	eax, eax
	je	SHORT $LN101@UpdateArch
; Line 1062
	mov	ecx, DWORD PTR _options$[ebp]
	cmp	DWORD PTR [ecx+8], 0
	jge	SHORT $LN100@UpdateArch
; Line 1063
	mov	DWORD PTR $T77482[ebp], OFFSET $SG75374
	push	OFFSET __TI2PAD
	lea	edx, DWORD PTR $T77482[ebp]
	push	edx
	call	__CxxThrowException@8
$LN100@UpdateArch:
; Line 1065
	jmp	$LN99@UpdateArch
$LN101@UpdateArch:
; Line 1067
	lea	ecx, DWORD PTR _fi$75376[ebp]
	call	??0CFileInfo@NFind@NFile@NWindows@@QAE@XZ
	mov	BYTE PTR __$EHRec$[ebp+12], 6
; Line 1068
	lea	ecx, DWORD PTR _arcPath$[ebp]
	call	??BUString@@QBEPB_WXZ			; UString::operator wchar_t const *
	push	eax
	lea	ecx, DWORD PTR _fi$75376[ebp]
	call	?Find@CFileInfo@NFind@NFile@NWindows@@QAE_NPB_W@Z ; NWindows::NFile::NFind::CFileInfo::Find
	movzx	eax, al
	test	eax, eax
	jne	$LN98@UpdateArch
; Line 1070
	movzx	ecx, BYTE PTR _renameMode$[ebp]
	test	ecx, ecx
	je	SHORT $LN97@UpdateArch
; Line 1071
	mov	DWORD PTR $T77484[ebp], OFFSET $SG75380
	push	OFFSET __TI2PAD
	lea	edx, DWORD PTR $T77484[ebp]
	push	edx
	call	__CxxThrowException@8
$LN97@UpdateArch:
; Line 1072
	mov	eax, DWORD PTR _options$[ebp]
	cmp	DWORD PTR [eax+8], 0
	jge	SHORT $LN96@UpdateArch
; Line 1074
	mov	ecx, DWORD PTR _cmdArcPath2$[ebp]
	push	ecx
	mov	edx, DWORD PTR _codecs$[ebp]
	push	edx
	mov	ecx, DWORD PTR _options$[ebp]
	call	?SetArcPath@CUpdateOptions@@QAE_NPBVCCodecs@@ABVUString@@@Z ; CUpdateOptions::SetArcPath
	movzx	eax, al
	test	eax, eax
	jne	SHORT $LN96@UpdateArch
; Line 1075
	mov	DWORD PTR $T77485[ebp], -2147467263	; 80004001H
	mov	BYTE PTR __$EHRec$[ebp+12], 5
	lea	ecx, DWORD PTR _fi$75376[ebp]
	call	??1CFileInfo@NFind@NFile@NWindows@@QAE@XZ
	mov	BYTE PTR __$EHRec$[ebp+12], 4
	lea	ecx, DWORD PTR _arcPath$[ebp]
	call	??1UString@@QAE@XZ			; UString::~UString
	mov	DWORD PTR __$EHRec$[ebp+12], -1
	lea	ecx, DWORD PTR _arcLink$[ebp]
	call	??1CArchiveLink@@QAE@XZ			; CArchiveLink::~CArchiveLink
	mov	eax, DWORD PTR $T77485[ebp]
	jmp	$LN123@UpdateArch
$LN96@UpdateArch:
; Line 1078
	jmp	$LN94@UpdateArch
$LN98@UpdateArch:
; Line 1080
	lea	ecx, DWORD PTR _fi$75376[ebp]
	call	?IsDir@CFileInfoBase@NFind@NFile@NWindows@@QBE_NXZ ; NWindows::NFile::NFind::CFileInfoBase::IsDir
	movzx	ecx, al
	test	ecx, ecx
	je	SHORT $LN93@UpdateArch
; Line 1081
	mov	DWORD PTR $T77486[ebp], OFFSET $SG75388
	push	OFFSET __TI2PAD
	lea	edx, DWORD PTR $T77486[ebp]
	push	edx
	call	__CxxThrowException@8
$LN93@UpdateArch:
; Line 1082
	movzx	eax, BYTE PTR _fi$75376[ebp+37]
	test	eax, eax
	je	SHORT $LN92@UpdateArch
; Line 1083
	mov	DWORD PTR $T77487[ebp], -2147467263	; 80004001H
	mov	BYTE PTR __$EHRec$[ebp+12], 5
	lea	ecx, DWORD PTR _fi$75376[ebp]
	call	??1CFileInfo@NFind@NFile@NWindows@@QAE@XZ
	mov	BYTE PTR __$EHRec$[ebp+12], 4
	lea	ecx, DWORD PTR _arcPath$[ebp]
	call	??1UString@@QAE@XZ			; UString::~UString
	mov	DWORD PTR __$EHRec$[ebp+12], -1
	lea	ecx, DWORD PTR _arcLink$[ebp]
	call	??1CArchiveLink@@QAE@XZ			; CArchiveLink::~CArchiveLink
	mov	eax, DWORD PTR $T77487[ebp]
	jmp	$LN123@UpdateArch
$LN92@UpdateArch:
; Line 1084
	mov	ecx, DWORD PTR _options$[ebp]
	add	ecx, 264				; 00000108H
	call	?Size@?$CRecordVector@_K@@QBEIXZ	; CRecordVector<unsigned __int64>::Size
	test	eax, eax
	jbe	SHORT $LN91@UpdateArch
; Line 1085
	mov	DWORD PTR $T77488[ebp], -2147467263	; 80004001H
	mov	BYTE PTR __$EHRec$[ebp+12], 5
	lea	ecx, DWORD PTR _fi$75376[ebp]
	call	??1CFileInfo@NFind@NFile@NWindows@@QAE@XZ
	mov	BYTE PTR __$EHRec$[ebp+12], 4
	lea	ecx, DWORD PTR _arcPath$[ebp]
	call	??1UString@@QAE@XZ			; UString::~UString
	mov	DWORD PTR __$EHRec$[ebp+12], -1
	lea	ecx, DWORD PTR _arcLink$[ebp]
	call	??1CArchiveLink@@QAE@XZ			; CArchiveLink::~CArchiveLink
	mov	eax, DWORD PTR $T77488[ebp]
	jmp	$LN123@UpdateArch
$LN91@UpdateArch:
; Line 1086
	lea	ecx, DWORD PTR _types$75396[ebp]
	call	??0?$CObjectVector@UCOpenType@@@@QAE@XZ	; CObjectVector<COpenType>::CObjectVector<COpenType>
	mov	BYTE PTR __$EHRec$[ebp+12], 7
; Line 1088
	mov	ecx, DWORD PTR _options$[ebp]
	movzx	edx, BYTE PTR [ecx]
	test	edx, edx
	je	SHORT $LN90@UpdateArch
; Line 1089
	mov	eax, DWORD PTR _options$[ebp]
	add	eax, 8
	push	eax
	lea	ecx, DWORD PTR _types$75396[ebp]
	call	?Add@?$CObjectVector@UCOpenType@@@@QAEIABUCOpenType@@@Z ; CObjectVector<COpenType>::Add
$LN90@UpdateArch:
; Line 1092
	lea	ecx, DWORD PTR _excl$75398[ebp]
	call	??0?$CRecordVector@H@@QAE@XZ		; CRecordVector<int>::CRecordVector<int>
	mov	BYTE PTR __$EHRec$[ebp+12], 8
; Line 1093
	lea	ecx, DWORD PTR _op$75399[ebp]
	call	??0COpenOptions@@QAE@XZ			; COpenOptions::COpenOptions
	mov	BYTE PTR __$EHRec$[ebp+12], 9
; Line 1095
	mov	ecx, DWORD PTR _options$[ebp]
	add	ecx, 40					; 00000028H
	mov	DWORD PTR _op$75399[ebp+64], ecx
; Line 1097
	mov	edx, DWORD PTR _codecs$[ebp]
	mov	DWORD PTR _op$75399[ebp], edx
; Line 1098
	lea	eax, DWORD PTR _types$75396[ebp]
	mov	DWORD PTR _op$75399[ebp+40], eax
; Line 1099
	lea	ecx, DWORD PTR _excl$75398[ebp]
	mov	DWORD PTR _op$75399[ebp+44], ecx
; Line 1100
	mov	BYTE PTR _op$75399[ebp+68], 0
; Line 1101
	mov	DWORD PTR _op$75399[ebp+48], 0
; Line 1102
	lea	edx, DWORD PTR _arcPath$[ebp]
	push	edx
	lea	ecx, DWORD PTR _op$75399[ebp+72]
	call	??4UString@@QAEAAV0@ABV0@@Z		; UString::operator=
; Line 1104
	lea	ecx, DWORD PTR _arcPath$[ebp]
	call	??BUString@@QBEPB_WXZ			; UString::operator wchar_t const *
	mov	esi, esp
	push	eax
	mov	eax, DWORD PTR _callback$[ebp]
	mov	edx, DWORD PTR [eax]
	mov	ecx, DWORD PTR _callback$[ebp]
	mov	eax, DWORD PTR [edx+72]
	call	eax
	cmp	esi, esp
	call	__RTC_CheckEsp
	mov	DWORD PTR ___result__$75400[ebp], eax
	cmp	DWORD PTR ___result__$75400[ebp], 0
	je	SHORT $LN89@UpdateArch
	mov	ecx, DWORD PTR ___result__$75400[ebp]
	mov	DWORD PTR $T77489[ebp], ecx
	mov	BYTE PTR __$EHRec$[ebp+12], 8
	lea	ecx, DWORD PTR _op$75399[ebp]
	call	??1COpenOptions@@QAE@XZ
	mov	BYTE PTR __$EHRec$[ebp+12], 7
	lea	ecx, DWORD PTR _excl$75398[ebp]
	call	??1?$CRecordVector@H@@QAE@XZ		; CRecordVector<int>::~CRecordVector<int>
	mov	BYTE PTR __$EHRec$[ebp+12], 6
	lea	ecx, DWORD PTR _types$75396[ebp]
	call	??1?$CObjectVector@UCOpenType@@@@QAE@XZ	; CObjectVector<COpenType>::~CObjectVector<COpenType>
	mov	BYTE PTR __$EHRec$[ebp+12], 5
	lea	ecx, DWORD PTR _fi$75376[ebp]
	call	??1CFileInfo@NFind@NFile@NWindows@@QAE@XZ
	mov	BYTE PTR __$EHRec$[ebp+12], 4
	lea	ecx, DWORD PTR _arcPath$[ebp]
	call	??1UString@@QAE@XZ			; UString::~UString
	mov	DWORD PTR __$EHRec$[ebp+12], -1
	lea	ecx, DWORD PTR _arcLink$[ebp]
	call	??1CArchiveLink@@QAE@XZ			; CArchiveLink::~CArchiveLink
	mov	eax, DWORD PTR $T77489[ebp]
	jmp	$LN123@UpdateArch
$LN89@UpdateArch:
; Line 1106
	mov	edx, DWORD PTR _openCallback$[ebp]
	push	edx
	lea	eax, DWORD PTR _op$75399[ebp]
	push	eax
	lea	ecx, DWORD PTR _arcLink$[ebp]
	call	?Open3@CArchiveLink@@QAEJAAUCOpenOptions@@PAUIOpenCallbackUI@@@Z ; CArchiveLink::Open3
	mov	DWORD PTR _result$75403[ebp], eax
; Line 1108
	cmp	DWORD PTR _result$75403[ebp], -2147467260 ; 80004004H
	jne	SHORT $LN88@UpdateArch
; Line 1109
	mov	ecx, DWORD PTR _result$75403[ebp]
	mov	DWORD PTR $T77490[ebp], ecx
	mov	BYTE PTR __$EHRec$[ebp+12], 8
	lea	ecx, DWORD PTR _op$75399[ebp]
	call	??1COpenOptions@@QAE@XZ
	mov	BYTE PTR __$EHRec$[ebp+12], 7
	lea	ecx, DWORD PTR _excl$75398[ebp]
	call	??1?$CRecordVector@H@@QAE@XZ		; CRecordVector<int>::~CRecordVector<int>
	mov	BYTE PTR __$EHRec$[ebp+12], 6
	lea	ecx, DWORD PTR _types$75396[ebp]
	call	??1?$CObjectVector@UCOpenType@@@@QAE@XZ	; CObjectVector<COpenType>::~CObjectVector<COpenType>
	mov	BYTE PTR __$EHRec$[ebp+12], 5
	lea	ecx, DWORD PTR _fi$75376[ebp]
	call	??1CFileInfo@NFind@NFile@NWindows@@QAE@XZ
	mov	BYTE PTR __$EHRec$[ebp+12], 4
	lea	ecx, DWORD PTR _arcPath$[ebp]
	call	??1UString@@QAE@XZ			; UString::~UString
	mov	DWORD PTR __$EHRec$[ebp+12], -1
	lea	ecx, DWORD PTR _arcLink$[ebp]
	call	??1CArchiveLink@@QAE@XZ			; CArchiveLink::~CArchiveLink
	mov	eax, DWORD PTR $T77490[ebp]
	jmp	$LN123@UpdateArch
$LN88@UpdateArch:
; Line 1111
	cmp	DWORD PTR _result$75403[ebp], 0
	jne	SHORT $LN87@UpdateArch
	cmp	DWORD PTR _arcLink$[ebp+60], 0
	jl	SHORT $LN87@UpdateArch
; Line 1112
	mov	DWORD PTR _result$75403[ebp], 1
$LN87@UpdateArch:
; Line 1114
	mov	esi, esp
	mov	edx, DWORD PTR _result$75403[ebp]
	push	edx
	lea	ecx, DWORD PTR _arcPath$[ebp]
	call	??BUString@@QBEPB_WXZ			; UString::operator wchar_t const *
	push	eax
	lea	eax, DWORD PTR _arcLink$[ebp]
	push	eax
	mov	ecx, DWORD PTR _codecs$[ebp]
	push	ecx
	mov	edx, DWORD PTR _callback$[ebp]
	mov	eax, DWORD PTR [edx]
	mov	ecx, DWORD PTR _callback$[ebp]
	mov	edx, DWORD PTR [eax+60]
	call	edx
	cmp	esi, esp
	call	__RTC_CheckEsp
	mov	DWORD PTR _res2$75410[ebp], eax
; Line 1119
	mov	eax, DWORD PTR _res2$75410[ebp]
	mov	DWORD PTR ___result__$75411[ebp], eax
	cmp	DWORD PTR ___result__$75411[ebp], 0
	je	SHORT $LN86@UpdateArch
	mov	ecx, DWORD PTR ___result__$75411[ebp]
	mov	DWORD PTR $T77491[ebp], ecx
	mov	BYTE PTR __$EHRec$[ebp+12], 8
	lea	ecx, DWORD PTR _op$75399[ebp]
	call	??1COpenOptions@@QAE@XZ
	mov	BYTE PTR __$EHRec$[ebp+12], 7
	lea	ecx, DWORD PTR _excl$75398[ebp]
	call	??1?$CRecordVector@H@@QAE@XZ		; CRecordVector<int>::~CRecordVector<int>
	mov	BYTE PTR __$EHRec$[ebp+12], 6
	lea	ecx, DWORD PTR _types$75396[ebp]
	call	??1?$CObjectVector@UCOpenType@@@@QAE@XZ	; CObjectVector<COpenType>::~CObjectVector<COpenType>
	mov	BYTE PTR __$EHRec$[ebp+12], 5
	lea	ecx, DWORD PTR _fi$75376[ebp]
	call	??1CFileInfo@NFind@NFile@NWindows@@QAE@XZ
	mov	BYTE PTR __$EHRec$[ebp+12], 4
	lea	ecx, DWORD PTR _arcPath$[ebp]
	call	??1UString@@QAE@XZ			; UString::~UString
	mov	DWORD PTR __$EHRec$[ebp+12], -1
	lea	ecx, DWORD PTR _arcLink$[ebp]
	call	??1CArchiveLink@@QAE@XZ			; CArchiveLink::~CArchiveLink
	mov	eax, DWORD PTR $T77491[ebp]
	jmp	$LN123@UpdateArch
$LN86@UpdateArch:
; Line 1120
	mov	edx, DWORD PTR _result$75403[ebp]
	mov	DWORD PTR ___result__$75414[ebp], edx
	cmp	DWORD PTR ___result__$75414[ebp], 0
	je	SHORT $LN85@UpdateArch
	mov	eax, DWORD PTR ___result__$75414[ebp]
	mov	DWORD PTR $T77492[ebp], eax
	mov	BYTE PTR __$EHRec$[ebp+12], 8
	lea	ecx, DWORD PTR _op$75399[ebp]
	call	??1COpenOptions@@QAE@XZ
	mov	BYTE PTR __$EHRec$[ebp+12], 7
	lea	ecx, DWORD PTR _excl$75398[ebp]
	call	??1?$CRecordVector@H@@QAE@XZ		; CRecordVector<int>::~CRecordVector<int>
	mov	BYTE PTR __$EHRec$[ebp+12], 6
	lea	ecx, DWORD PTR _types$75396[ebp]
	call	??1?$CObjectVector@UCOpenType@@@@QAE@XZ	; CObjectVector<COpenType>::~CObjectVector<COpenType>
	mov	BYTE PTR __$EHRec$[ebp+12], 5
	lea	ecx, DWORD PTR _fi$75376[ebp]
	call	??1CFileInfo@NFind@NFile@NWindows@@QAE@XZ
	mov	BYTE PTR __$EHRec$[ebp+12], 4
	lea	ecx, DWORD PTR _arcPath$[ebp]
	call	??1UString@@QAE@XZ			; UString::~UString
	mov	DWORD PTR __$EHRec$[ebp+12], -1
	lea	ecx, DWORD PTR _arcLink$[ebp]
	call	??1CArchiveLink@@QAE@XZ			; CArchiveLink::~CArchiveLink
	mov	eax, DWORD PTR $T77492[ebp]
	jmp	$LN123@UpdateArch
$LN85@UpdateArch:
; Line 1122
	lea	ecx, DWORD PTR _arcLink$[ebp+12]
	call	?Size@?$CObjectVector@VUString@@@@QBEIXZ ; CObjectVector<UString>::Size
	cmp	eax, 1
	jbe	$LN84@UpdateArch
; Line 1124
	mov	ecx, DWORD PTR _errorInfo$[ebp]
	mov	DWORD PTR [ecx], -2147467263		; 80004001H
; Line 1125
	push	OFFSET $SG75420
	mov	ecx, DWORD PTR _errorInfo$[ebp]
	add	ecx, 4
	call	??4AString@@QAEAAV0@PBD@Z		; AString::operator=
; Line 1126
	mov	DWORD PTR $T77493[ebp], -2147467263	; 80004001H
	mov	BYTE PTR __$EHRec$[ebp+12], 8
	lea	ecx, DWORD PTR _op$75399[ebp]
	call	??1COpenOptions@@QAE@XZ
	mov	BYTE PTR __$EHRec$[ebp+12], 7
	lea	ecx, DWORD PTR _excl$75398[ebp]
	call	??1?$CRecordVector@H@@QAE@XZ		; CRecordVector<int>::~CRecordVector<int>
	mov	BYTE PTR __$EHRec$[ebp+12], 6
	lea	ecx, DWORD PTR _types$75396[ebp]
	call	??1?$CObjectVector@UCOpenType@@@@QAE@XZ	; CObjectVector<COpenType>::~CObjectVector<COpenType>
	mov	BYTE PTR __$EHRec$[ebp+12], 5
	lea	ecx, DWORD PTR _fi$75376[ebp]
	call	??1CFileInfo@NFind@NFile@NWindows@@QAE@XZ
	mov	BYTE PTR __$EHRec$[ebp+12], 4
	lea	ecx, DWORD PTR _arcPath$[ebp]
	call	??1UString@@QAE@XZ			; UString::~UString
	mov	DWORD PTR __$EHRec$[ebp+12], -1
	lea	ecx, DWORD PTR _arcLink$[ebp]
	call	??1CArchiveLink@@QAE@XZ			; CArchiveLink::~CArchiveLink
	mov	eax, DWORD PTR $T77493[ebp]
	jmp	$LN123@UpdateArch
$LN84@UpdateArch:
; Line 1129
	lea	ecx, DWORD PTR _arcLink$[ebp]
	call	?Back@?$CObjectVector@VCArc@@@@QAEAAVCArc@@XZ ; CObjectVector<CArc>::Back
	mov	DWORD PTR _arc$75423[ebp], eax
; Line 1130
	movzx	edx, BYTE PTR _fi$75376[ebp+37]
	neg	edx
	sbb	edx, edx
	add	edx, 1
	mov	eax, DWORD PTR _arc$75423[ebp]
	mov	BYTE PTR [eax+164], dl
; Line 1131
	mov	ecx, DWORD PTR _arc$75423[ebp]
	mov	edx, DWORD PTR _fi$75376[ebp+24]
	mov	DWORD PTR [ecx+156], edx
	mov	eax, DWORD PTR _fi$75376[ebp+28]
	mov	DWORD PTR [ecx+160], eax
; Line 1133
	mov	ecx, DWORD PTR _arc$75423[ebp]
	movzx	edx, BYTE PTR [ecx+16]
	test	edx, edx
	je	$LN83@UpdateArch
; Line 1135
	mov	eax, DWORD PTR _errorInfo$[ebp]
	mov	DWORD PTR [eax], -2147467263		; 80004001H
; Line 1136
	push	OFFSET $SG75427
	mov	ecx, DWORD PTR _errorInfo$[ebp]
	add	ecx, 4
	call	??4AString@@QAEAAV0@PBD@Z		; AString::operator=
; Line 1137
	mov	DWORD PTR $T77494[ebp], -2147467263	; 80004001H
	mov	BYTE PTR __$EHRec$[ebp+12], 8
	lea	ecx, DWORD PTR _op$75399[ebp]
	call	??1COpenOptions@@QAE@XZ
	mov	BYTE PTR __$EHRec$[ebp+12], 7
	lea	ecx, DWORD PTR _excl$75398[ebp]
	call	??1?$CRecordVector@H@@QAE@XZ		; CRecordVector<int>::~CRecordVector<int>
	mov	BYTE PTR __$EHRec$[ebp+12], 6
	lea	ecx, DWORD PTR _types$75396[ebp]
	call	??1?$CObjectVector@UCOpenType@@@@QAE@XZ	; CObjectVector<COpenType>::~CObjectVector<COpenType>
	mov	BYTE PTR __$EHRec$[ebp+12], 5
	lea	ecx, DWORD PTR _fi$75376[ebp]
	call	??1CFileInfo@NFind@NFile@NWindows@@QAE@XZ
	mov	BYTE PTR __$EHRec$[ebp+12], 4
	lea	ecx, DWORD PTR _arcPath$[ebp]
	call	??1UString@@QAE@XZ			; UString::~UString
	mov	DWORD PTR __$EHRec$[ebp+12], -1
	lea	ecx, DWORD PTR _arcLink$[ebp]
	call	??1CArchiveLink@@QAE@XZ			; CArchiveLink::~CArchiveLink
	mov	eax, DWORD PTR $T77494[ebp]
	jmp	$LN123@UpdateArch
$LN83@UpdateArch:
; Line 1139
	mov	ecx, DWORD PTR _options$[ebp]
	cmp	DWORD PTR [ecx+8], 0
	jge	$LN82@UpdateArch
; Line 1141
	lea	ecx, DWORD PTR _arcLink$[ebp]
	call	?GetArc@CArchiveLink@@QBEPBVCArc@@XZ	; CArchiveLink::GetArc
	mov	edx, DWORD PTR _options$[ebp]
	mov	eax, DWORD PTR [eax+148]
	mov	DWORD PTR [edx+8], eax
; Line 1142
	mov	ecx, DWORD PTR _cmdArcPath2$[ebp]
	push	ecx
	mov	edx, DWORD PTR _codecs$[ebp]
	push	edx
	mov	ecx, DWORD PTR _options$[ebp]
	call	?SetArcPath@CUpdateOptions@@QAE_NPBVCCodecs@@ABVUString@@@Z ; CUpdateOptions::SetArcPath
	movzx	eax, al
	test	eax, eax
	jne	SHORT $LN82@UpdateArch
; Line 1143
	mov	DWORD PTR $T77495[ebp], -2147467263	; 80004001H
	mov	BYTE PTR __$EHRec$[ebp+12], 8
	lea	ecx, DWORD PTR _op$75399[ebp]
	call	??1COpenOptions@@QAE@XZ
	mov	BYTE PTR __$EHRec$[ebp+12], 7
	lea	ecx, DWORD PTR _excl$75398[ebp]
	call	??1?$CRecordVector@H@@QAE@XZ		; CRecordVector<int>::~CRecordVector<int>
	mov	BYTE PTR __$EHRec$[ebp+12], 6
	lea	ecx, DWORD PTR _types$75396[ebp]
	call	??1?$CObjectVector@UCOpenType@@@@QAE@XZ	; CObjectVector<COpenType>::~CObjectVector<COpenType>
	mov	BYTE PTR __$EHRec$[ebp+12], 5
	lea	ecx, DWORD PTR _fi$75376[ebp]
	call	??1CFileInfo@NFind@NFile@NWindows@@QAE@XZ
	mov	BYTE PTR __$EHRec$[ebp+12], 4
	lea	ecx, DWORD PTR _arcPath$[ebp]
	call	??1UString@@QAE@XZ			; UString::~UString
	mov	DWORD PTR __$EHRec$[ebp+12], -1
	lea	ecx, DWORD PTR _arcLink$[ebp]
	call	??1CArchiveLink@@QAE@XZ			; CArchiveLink::~CArchiveLink
	mov	eax, DWORD PTR $T77495[ebp]
	jmp	$LN123@UpdateArch
$LN82@UpdateArch:
; Line 1145
	mov	BYTE PTR __$EHRec$[ebp+12], 8
	lea	ecx, DWORD PTR _op$75399[ebp]
	call	??1COpenOptions@@QAE@XZ
	mov	BYTE PTR __$EHRec$[ebp+12], 7
	lea	ecx, DWORD PTR _excl$75398[ebp]
	call	??1?$CRecordVector@H@@QAE@XZ		; CRecordVector<int>::~CRecordVector<int>
	mov	BYTE PTR __$EHRec$[ebp+12], 6
	lea	ecx, DWORD PTR _types$75396[ebp]
	call	??1?$CObjectVector@UCOpenType@@@@QAE@XZ	; CObjectVector<COpenType>::~CObjectVector<COpenType>
$LN94@UpdateArch:
; Line 1146
	mov	BYTE PTR __$EHRec$[ebp+12], 5
	lea	ecx, DWORD PTR _fi$75376[ebp]
	call	??1CFileInfo@NFind@NFile@NWindows@@QAE@XZ
$LN99@UpdateArch:
; Line 1148
	mov	ecx, DWORD PTR _options$[ebp]
	cmp	DWORD PTR [ecx+8], 0
	jge	SHORT $LN80@UpdateArch
; Line 1150
	mov	edx, DWORD PTR _kDefaultArcType
	push	edx
	lea	ecx, DWORD PTR $T77496[ebp]
	call	??0UString@@QAE@PB_W@Z			; UString::UString
	mov	BYTE PTR __$EHRec$[ebp+12], 10		; 0000000aH
	lea	eax, DWORD PTR $T77496[ebp]
	push	eax
	mov	ecx, DWORD PTR _codecs$[ebp]
	call	?FindFormatForArchiveType@CCodecs@@QBEHABVUString@@@Z ; CCodecs::FindFormatForArchiveType
	mov	ecx, DWORD PTR _options$[ebp]
	mov	DWORD PTR [ecx+8], eax
	mov	BYTE PTR __$EHRec$[ebp+12], 5
	lea	ecx, DWORD PTR $T77496[ebp]
	call	??1UString@@QAE@XZ			; UString::~UString
; Line 1151
	mov	edx, DWORD PTR _options$[ebp]
	cmp	DWORD PTR [edx+8], 0
	jge	SHORT $LN80@UpdateArch
; Line 1152
	mov	DWORD PTR $T77497[ebp], -2147467263	; 80004001H
	mov	BYTE PTR __$EHRec$[ebp+12], 4
	lea	ecx, DWORD PTR _arcPath$[ebp]
	call	??1UString@@QAE@XZ			; UString::~UString
	mov	DWORD PTR __$EHRec$[ebp+12], -1
	lea	ecx, DWORD PTR _arcLink$[ebp]
	call	??1CArchiveLink@@QAE@XZ			; CArchiveLink::~CArchiveLink
	mov	eax, DWORD PTR $T77497[ebp]
	jmp	$LN123@UpdateArch
$LN80@UpdateArch:
; Line 1155
	mov	al, BYTE PTR _arcLink$[ebp+32]
	mov	BYTE PTR _thereIsInArchive$[ebp], al
; Line 1156
	movzx	ecx, BYTE PTR _thereIsInArchive$[ebp]
	test	ecx, ecx
	jne	SHORT $LN78@UpdateArch
	movzx	edx, BYTE PTR _renameMode$[ebp]
	test	edx, edx
	je	SHORT $LN78@UpdateArch
; Line 1157
	mov	DWORD PTR $T77498[ebp], -2147467259	; 80004005H
	mov	BYTE PTR __$EHRec$[ebp+12], 4
	lea	ecx, DWORD PTR _arcPath$[ebp]
	call	??1UString@@QAE@XZ			; UString::~UString
	mov	DWORD PTR __$EHRec$[ebp+12], -1
	lea	ecx, DWORD PTR _arcLink$[ebp]
	call	??1CArchiveLink@@QAE@XZ			; CArchiveLink::~CArchiveLink
	mov	eax, DWORD PTR $T77498[ebp]
	jmp	$LN123@UpdateArch
$LN78@UpdateArch:
; Line 1159
	lea	ecx, DWORD PTR _dirItems$[ebp]
	call	??0CDirItems@@QAE@XZ			; CDirItems::CDirItems
	mov	BYTE PTR __$EHRec$[ebp+12], 11		; 0000000bH
; Line 1160
	cmp	DWORD PTR _callback$[ebp], 0
	je	SHORT $LN124@UpdateArch
	mov	eax, DWORD PTR _callback$[ebp]
	add	eax, 4
	mov	DWORD PTR tv459[ebp], eax
	jmp	SHORT $LN125@UpdateArch
$LN124@UpdateArch:
	mov	DWORD PTR tv459[ebp], 0
$LN125@UpdateArch:
	mov	ecx, DWORD PTR tv459[ebp]
	mov	DWORD PTR _dirItems$[ebp+152], ecx
; Line 1162
	lea	ecx, DWORD PTR _parentDirItem$[ebp]
	call	??0CDirItem@@QAE@XZ			; CDirItem::CDirItem
	mov	BYTE PTR __$EHRec$[ebp+12], 12		; 0000000cH
; Line 1163
	mov	DWORD PTR _parentDirItem_Ptr$[ebp], 0
; Line 1172
	mov	edx, DWORD PTR _options$[ebp]
	movzx	eax, BYTE PTR [edx+181]
	test	eax, eax
	je	$LN77@UpdateArch
; Line 1174
	lea	ecx, DWORD PTR _di$75447[ebp]
	call	??0CDirItem@@QAE@XZ			; CDirItem::CDirItem
	mov	BYTE PTR __$EHRec$[ebp+12], 13		; 0000000dH
; Line 1175
	mov	ecx, DWORD PTR _options$[ebp]
	add	ecx, 184				; 000000b8H
	push	ecx
	lea	ecx, DWORD PTR _di$75447[ebp+32]
	call	??4UString@@QAEAAV0@ABV0@@Z		; UString::operator=
; Line 1176
	mov	DWORD PTR _di$75447[ebp], -1
	mov	DWORD PTR _di$75447[ebp+4], -1
; Line 1177
	mov	DWORD PTR _di$75447[ebp+60], 0
; Line 1178
	lea	edx, DWORD PTR _di$75447[ebp+24]
	push	edx
	call	?GetCurUtcFileTime@NTime@NWindows@@YGXAAU_FILETIME@@@Z ; NWindows::NTime::GetCurUtcFileTime
; Line 1179
	mov	eax, DWORD PTR _di$75447[ebp+24]
	mov	DWORD PTR _di$75447[ebp+16], eax
	mov	ecx, DWORD PTR _di$75447[ebp+28]
	mov	DWORD PTR _di$75447[ebp+20], ecx
	mov	edx, DWORD PTR _di$75447[ebp+16]
	mov	DWORD PTR _di$75447[ebp+8], edx
	mov	eax, DWORD PTR _di$75447[ebp+20]
	mov	DWORD PTR _di$75447[ebp+12], eax
; Line 1180
	lea	ecx, DWORD PTR _di$75447[ebp]
	push	ecx
	lea	ecx, DWORD PTR _dirItems$[ebp+36]
	call	?Add@?$CObjectVector@UCDirItem@@@@QAEIABUCDirItem@@@Z ; CObjectVector<CDirItem>::Add
; Line 1181
	mov	BYTE PTR __$EHRec$[ebp+12], 12		; 0000000cH
	lea	ecx, DWORD PTR _di$75447[ebp]
	call	??1CDirItem@@QAE@XZ
; Line 1182
	jmp	$LN76@UpdateArch
$LN77@UpdateArch:
; Line 1184
	mov	BYTE PTR _needScanning$75451[ebp], 0
; Line 1186
	movzx	edx, BYTE PTR _renameMode$[ebp]
	test	edx, edx
	jne	SHORT $LN75@UpdateArch
; Line 1187
	mov	DWORD PTR _i$75453[ebp], 0
	jmp	SHORT $LN74@UpdateArch
$LN73@UpdateArch:
	mov	eax, DWORD PTR _i$75453[ebp]
	add	eax, 1
	mov	DWORD PTR _i$75453[ebp], eax
$LN74@UpdateArch:
	mov	ecx, DWORD PTR _options$[ebp]
	add	ecx, 56					; 00000038H
	call	?Size@?$CObjectVector@UCUpdateArchiveCommand@@@@QBEIXZ ; CObjectVector<CUpdateArchiveCommand>::Size
	cmp	DWORD PTR _i$75453[ebp], eax
	jae	SHORT $LN75@UpdateArch
; Line 1188
	mov	ecx, DWORD PTR _i$75453[ebp]
	push	ecx
	mov	ecx, DWORD PTR _options$[ebp]
	add	ecx, 56					; 00000038H
	call	??A?$CObjectVector@UCUpdateArchiveCommand@@@@QAEAAUCUpdateArchiveCommand@@I@Z ; CObjectVector<CUpdateArchiveCommand>::operator[]
	add	eax, 100				; 00000064H
	mov	ecx, eax
	call	?NeedScanning@CActionSet@NUpdateArchive@@QBE_NXZ ; NUpdateArchive::CActionSet::NeedScanning
	movzx	edx, al
	test	edx, edx
	je	SHORT $LN71@UpdateArch
; Line 1189
	mov	BYTE PTR _needScanning$75451[ebp], 1
$LN71@UpdateArch:
; Line 1191
	jmp	SHORT $LN73@UpdateArch
$LN75@UpdateArch:
	movzx	eax, BYTE PTR _needScanning$75451[ebp]
	test	eax, eax
	je	$LN76@UpdateArch
; Line 1193
	mov	esi, esp
	mov	ecx, DWORD PTR _callback$[ebp]
	mov	edx, DWORD PTR [ecx]
	mov	ecx, DWORD PTR _callback$[ebp]
	mov	eax, DWORD PTR [edx+64]
	call	eax
	cmp	esi, esp
	call	__RTC_CheckEsp
	mov	DWORD PTR ___result__$75459[ebp], eax
	cmp	DWORD PTR ___result__$75459[ebp], 0
	je	SHORT $LN69@UpdateArch
	mov	ecx, DWORD PTR ___result__$75459[ebp]
	mov	DWORD PTR $T77501[ebp], ecx
	mov	BYTE PTR __$EHRec$[ebp+12], 11		; 0000000bH
	lea	ecx, DWORD PTR _parentDirItem$[ebp]
	call	??1CDirItem@@QAE@XZ
	mov	BYTE PTR __$EHRec$[ebp+12], 5
	lea	ecx, DWORD PTR _dirItems$[ebp]
	call	??1CDirItems@@QAE@XZ
	mov	BYTE PTR __$EHRec$[ebp+12], 4
	lea	ecx, DWORD PTR _arcPath$[ebp]
	call	??1UString@@QAE@XZ			; UString::~UString
	mov	DWORD PTR __$EHRec$[ebp+12], -1
	lea	ecx, DWORD PTR _arcLink$[ebp]
	call	??1CArchiveLink@@QAE@XZ			; CArchiveLink::~CArchiveLink
	mov	eax, DWORD PTR $T77501[ebp]
	jmp	$LN123@UpdateArch
$LN69@UpdateArch:
; Line 1195
	mov	edx, DWORD PTR _options$[ebp]
	mov	al, BYTE PTR [edx+246]
	mov	BYTE PTR _dirItems$[ebp+48], al
; Line 1198
	mov	ecx, DWORD PTR _options$[ebp]
	mov	dl, BYTE PTR [ecx+240]
	mov	BYTE PTR _dirItems$[ebp+149], dl
; Line 1201
	mov	eax, DWORD PTR _options$[ebp]
	mov	cl, BYTE PTR [eax+242]
	mov	BYTE PTR _dirItems$[ebp+49], cl
; Line 1206
	lea	edx, DWORD PTR _dirItems$[ebp]
	push	edx
	mov	eax, DWORD PTR _options$[ebp]
	add	eax, 228				; 000000e4H
	push	eax
	mov	ecx, DWORD PTR _options$[ebp]
	mov	edx, DWORD PTR [ecx+224]
	push	edx
	mov	eax, DWORD PTR _censor$[ebp]
	push	eax
	call	?EnumerateItems@@YGJABVCCensor@NWildcard@@W4ECensorPathMode@2@ABVUString@@AAVCDirItems@@@Z ; EnumerateItems
	mov	DWORD PTR _res$75462[ebp], eax
; Line 1208
	cmp	DWORD PTR _res$75462[ebp], 0
	je	SHORT $LN68@UpdateArch
; Line 1210
	cmp	DWORD PTR _res$75462[ebp], -2147467260	; 80004004H
	je	SHORT $LN67@UpdateArch
; Line 1211
	push	OFFSET $SG75467
	mov	ecx, DWORD PTR _errorInfo$[ebp]
	add	ecx, 4
	call	??4AString@@QAEAAV0@PBD@Z		; AString::operator=
$LN67@UpdateArch:
; Line 1212
	mov	ecx, DWORD PTR _res$75462[ebp]
	mov	DWORD PTR $T77502[ebp], ecx
	mov	BYTE PTR __$EHRec$[ebp+12], 11		; 0000000bH
	lea	ecx, DWORD PTR _parentDirItem$[ebp]
	call	??1CDirItem@@QAE@XZ
	mov	BYTE PTR __$EHRec$[ebp+12], 5
	lea	ecx, DWORD PTR _dirItems$[ebp]
	call	??1CDirItems@@QAE@XZ
	mov	BYTE PTR __$EHRec$[ebp+12], 4
	lea	ecx, DWORD PTR _arcPath$[ebp]
	call	??1UString@@QAE@XZ			; UString::~UString
	mov	DWORD PTR __$EHRec$[ebp+12], -1
	lea	ecx, DWORD PTR _arcLink$[ebp]
	call	??1CArchiveLink@@QAE@XZ			; CArchiveLink::~CArchiveLink
	mov	eax, DWORD PTR $T77502[ebp]
	jmp	$LN123@UpdateArch
$LN68@UpdateArch:
; Line 1215
	mov	esi, esp
	lea	edx, DWORD PTR _dirItems$[ebp+56]
	push	edx
	mov	eax, DWORD PTR _callback$[ebp]
	mov	edx, DWORD PTR [eax]
	mov	ecx, DWORD PTR _callback$[ebp]
	mov	eax, DWORD PTR [edx+68]
	call	eax
	cmp	esi, esp
	call	__RTC_CheckEsp
	mov	DWORD PTR ___result__$75469[ebp], eax
	cmp	DWORD PTR ___result__$75469[ebp], 0
	je	SHORT $LN66@UpdateArch
	mov	ecx, DWORD PTR ___result__$75469[ebp]
	mov	DWORD PTR $T77503[ebp], ecx
	mov	BYTE PTR __$EHRec$[ebp+12], 11		; 0000000bH
	lea	ecx, DWORD PTR _parentDirItem$[ebp]
	call	??1CDirItem@@QAE@XZ
	mov	BYTE PTR __$EHRec$[ebp+12], 5
	lea	ecx, DWORD PTR _dirItems$[ebp]
	call	??1CDirItems@@QAE@XZ
	mov	BYTE PTR __$EHRec$[ebp+12], 4
	lea	ecx, DWORD PTR _arcPath$[ebp]
	call	??1UString@@QAE@XZ			; UString::~UString
	mov	DWORD PTR __$EHRec$[ebp+12], -1
	lea	ecx, DWORD PTR _arcLink$[ebp]
	call	??1CArchiveLink@@QAE@XZ			; CArchiveLink::~CArchiveLink
	mov	eax, DWORD PTR $T77503[ebp]
	jmp	$LN123@UpdateArch
$LN66@UpdateArch:
; Line 1217
	mov	ecx, DWORD PTR _censor$[ebp]
	call	?Size@?$CObjectVector@UCPair@NWildcard@@@@QBEIXZ ; CObjectVector<NWildcard::CPair>::Size
	cmp	eax, 1
	jne	$LN76@UpdateArch
; Line 1219
	lea	ecx, DWORD PTR _fi$75473[ebp]
	call	??0CFileInfo@NFind@NFile@NWindows@@QAE@XZ
	mov	BYTE PTR __$EHRec$[ebp+12], 14		; 0000000eH
; Line 1220
	push	0
	mov	ecx, DWORD PTR _censor$[ebp]
	call	??A?$CObjectVector@UCPair@NWildcard@@@@QAEAAUCPair@NWildcard@@I@Z ; CObjectVector<NWildcard::CPair>::operator[]
	push	eax
	lea	ecx, DWORD PTR _prefix$75474[ebp]
	call	??0UString@@QAE@ABV0@@Z			; UString::UString
	mov	BYTE PTR __$EHRec$[ebp+12], 15		; 0000000fH
; Line 1221
	push	46					; 0000002eH
	lea	ecx, DWORD PTR _prefix$75474[ebp]
	call	??YUString@@QAEAAV0@_W@Z		; UString::operator+=
; Line 1229
	lea	ecx, DWORD PTR _prefix$75474[ebp]
	call	??BUString@@QBEPB_WXZ			; UString::operator wchar_t const *
	push	eax
	lea	ecx, DWORD PTR _fi$75473[ebp]
	call	?Find@CFileInfo@NFind@NFile@NWindows@@QAE_NPB_W@Z ; NWindows::NFile::NFind::CFileInfo::Find
	movzx	edx, al
	test	edx, edx
	je	$LN64@UpdateArch
; Line 1230
	lea	ecx, DWORD PTR _fi$75473[ebp]
	call	?IsDir@CFileInfoBase@NFind@NFile@NWindows@@QBE_NXZ ; NWindows::NFile::NFind::CFileInfoBase::IsDir
	movzx	eax, al
	test	eax, eax
	je	$LN64@UpdateArch
; Line 1232
	mov	ecx, DWORD PTR _fi$75473[ebp]
	mov	DWORD PTR _parentDirItem$[ebp], ecx
	mov	edx, DWORD PTR _fi$75473[ebp+4]
	mov	DWORD PTR _parentDirItem$[ebp+4], edx
; Line 1233
	mov	eax, DWORD PTR _fi$75473[ebp+8]
	mov	DWORD PTR _parentDirItem$[ebp+8], eax
	mov	ecx, DWORD PTR _fi$75473[ebp+12]
	mov	DWORD PTR _parentDirItem$[ebp+12], ecx
; Line 1234
	mov	edx, DWORD PTR _fi$75473[ebp+16]
	mov	DWORD PTR _parentDirItem$[ebp+16], edx
	mov	eax, DWORD PTR _fi$75473[ebp+20]
	mov	DWORD PTR _parentDirItem$[ebp+20], eax
; Line 1235
	mov	ecx, DWORD PTR _fi$75473[ebp+24]
	mov	DWORD PTR _parentDirItem$[ebp+24], ecx
	mov	edx, DWORD PTR _fi$75473[ebp+28]
	mov	DWORD PTR _parentDirItem$[ebp+28], edx
; Line 1236
	mov	eax, DWORD PTR _fi$75473[ebp+32]
	mov	DWORD PTR _parentDirItem$[ebp+60], eax
; Line 1237
	lea	ecx, DWORD PTR _parentDirItem$[ebp]
	mov	DWORD PTR _parentDirItem_Ptr$[ebp], ecx
; Line 1239
	mov	DWORD PTR _secureIndex$75477[ebp], -1
; Line 1241
	mov	edx, DWORD PTR _options$[ebp]
	movzx	eax, BYTE PTR [edx+240]
	test	eax, eax
	je	SHORT $LN62@UpdateArch
; Line 1242
	lea	ecx, DWORD PTR _secureIndex$75477[ebp]
	push	ecx
	lea	edx, DWORD PTR _prefix$75474[ebp]
	push	edx
	lea	ecx, DWORD PTR _dirItems$[ebp]
	call	?AddSecurityItem@CDirItems@@QAEJABVUString@@AAH@Z ; CDirItems::AddSecurityItem
$LN62@UpdateArch:
; Line 1244
	mov	eax, DWORD PTR _secureIndex$75477[ebp]
	mov	DWORD PTR _parentDirItem$[ebp+72], eax
; Line 1246
	lea	ecx, DWORD PTR _parentDirItem$[ebp]
	mov	DWORD PTR _parentDirItem_Ptr$[ebp], ecx
$LN64@UpdateArch:
; Line 1248
	mov	BYTE PTR __$EHRec$[ebp+12], 14		; 0000000eH
	lea	ecx, DWORD PTR _prefix$75474[ebp]
	call	??1UString@@QAE@XZ			; UString::~UString
	mov	BYTE PTR __$EHRec$[ebp+12], 12		; 0000000cH
	lea	ecx, DWORD PTR _fi$75473[ebp]
	call	??1CFileInfo@NFind@NFile@NWindows@@QAE@XZ
$LN76@UpdateArch:
; Line 1252
	lea	ecx, DWORD PTR _tempDirPrefix$[ebp]
	call	??0UString@@QAE@XZ			; UString::UString
	mov	BYTE PTR __$EHRec$[ebp+12], 16		; 00000010H
; Line 1253
	mov	BYTE PTR _usesTempDir$[ebp], 0
; Line 1256
	lea	ecx, DWORD PTR _tempDirectory$[ebp]
	call	??0CTempDir@NDir@NFile@NWindows@@QAE@XZ	; NWindows::NFile::NDir::CTempDir::CTempDir
	mov	BYTE PTR __$EHRec$[ebp+12], 17		; 00000011H
; Line 1257
	mov	edx, DWORD PTR _options$[ebp]
	movzx	eax, BYTE PTR [edx+197]
	test	eax, eax
	je	SHORT $LN61@UpdateArch
	mov	ecx, DWORD PTR _options$[ebp]
	movzx	edx, BYTE PTR [ecx+198]
	test	edx, edx
	je	SHORT $LN61@UpdateArch
; Line 1259
	mov	eax, DWORD PTR _kTempFolderPrefix
	push	eax
	lea	ecx, DWORD PTR _tempDirectory$[ebp]
	call	?Create@CTempDir@NDir@NFile@NWindows@@QAE_NPB_W@Z ; NWindows::NFile::NDir::CTempDir::Create
; Line 1260
	lea	ecx, DWORD PTR _tempDirectory$[ebp]
	call	?GetPath@CTempDir@NDir@NFile@NWindows@@QBEABVUString@@XZ ; NWindows::NFile::NDir::CTempDir::GetPath
	push	eax
	lea	ecx, DWORD PTR _tempDirPrefix$[ebp]
	call	??4UString@@QAEAAV0@ABV0@@Z		; UString::operator=
; Line 1261
	lea	ecx, DWORD PTR _tempDirPrefix$[ebp]
	push	ecx
	call	?NormalizeDirPathPrefix@NName@NFile@NWindows@@YGXAAVUString@@@Z ; NWindows::NFile::NName::NormalizeDirPathPrefix
; Line 1262
	mov	BYTE PTR _usesTempDir$[ebp], 1
$LN61@UpdateArch:
; Line 1266
	lea	ecx, DWORD PTR _tempFiles$[ebp]
	call	??0CTempFiles@@QAE@XZ
	mov	BYTE PTR __$EHRec$[ebp+12], 18		; 00000012H
; Line 1268
	mov	BYTE PTR _createTempFile$[ebp], 0
; Line 1270
	mov	edx, DWORD PTR _options$[ebp]
	movzx	eax, BYTE PTR [edx+196]
	test	eax, eax
	jne	$LN60@UpdateArch
	mov	ecx, DWORD PTR _options$[ebp]
	movzx	edx, BYTE PTR [ecx+68]
	test	edx, edx
	je	$LN60@UpdateArch
; Line 1272
	push	0
	mov	ecx, DWORD PTR _options$[ebp]
	add	ecx, 56					; 00000038H
	call	??A?$CObjectVector@UCUpdateArchiveCommand@@@@QAEAAUCUpdateArchiveCommand@@I@Z ; CObjectVector<CUpdateArchiveCommand>::operator[]
	add	eax, 12					; 0000000cH
	mov	DWORD PTR _ap$75486[ebp], eax
; Line 1273
	mov	eax, DWORD PTR _options$[ebp]
	add	eax, 72					; 00000048H
	push	eax
	mov	ecx, DWORD PTR _ap$75486[ebp]
	call	??4CArchivePath@@QAEAAU0@ABU0@@Z
; Line 1275
	movzx	ecx, BYTE PTR _thereIsInArchive$[ebp]
	test	ecx, ecx
	jne	SHORT $LN58@UpdateArch
	mov	ecx, DWORD PTR _options$[ebp]
	add	ecx, 212				; 000000d4H
	call	?IsEmpty@UString@@QBE_NXZ		; UString::IsEmpty
	movzx	edx, al
	test	edx, edx
	jne	$LN60@UpdateArch
$LN58@UpdateArch:
	movzx	eax, BYTE PTR _usesTempDir$[ebp]
	test	eax, eax
	jne	SHORT $LN60@UpdateArch
	mov	ecx, DWORD PTR _options$[ebp]
	add	ecx, 264				; 00000108H
	call	?Size@?$CRecordVector@_K@@QBEIXZ	; CRecordVector<unsigned __int64>::Size
	test	eax, eax
	jne	SHORT $LN60@UpdateArch
; Line 1277
	mov	BYTE PTR _createTempFile$[ebp], 1
; Line 1278
	mov	ecx, DWORD PTR _ap$75486[ebp]
	mov	BYTE PTR [ecx+60], 1
; Line 1279
	mov	ecx, DWORD PTR _options$[ebp]
	add	ecx, 212				; 000000d4H
	call	?IsEmpty@UString@@QBE_NXZ		; UString::IsEmpty
	movzx	edx, al
	test	edx, edx
	jne	SHORT $LN57@UpdateArch
; Line 1280
	mov	eax, DWORD PTR _options$[ebp]
	add	eax, 212				; 000000d4H
	push	eax
	mov	ecx, DWORD PTR _ap$75486[ebp]
	add	ecx, 64					; 00000040H
	call	??4UString@@QAEAAV0@ABV0@@Z		; UString::operator=
; Line 1281
	jmp	SHORT $LN56@UpdateArch
$LN57@UpdateArch:
; Line 1282
	mov	ecx, DWORD PTR _ap$75486[ebp]
	add	ecx, 12					; 0000000cH
	push	ecx
	mov	ecx, DWORD PTR _ap$75486[ebp]
	add	ecx, 64					; 00000040H
	call	??4UString@@QAEAAV0@ABV0@@Z		; UString::operator=
$LN56@UpdateArch:
; Line 1283
	mov	edx, DWORD PTR _ap$75486[ebp]
	add	edx, 64					; 00000040H
	push	edx
	call	?NormalizeDirPathPrefix@NName@NFile@NWindows@@YGXAAVUString@@@Z ; NWindows::NFile::NName::NormalizeDirPathPrefix
$LN60@UpdateArch:
; Line 1288
	mov	DWORD PTR _i$[ebp], 0
	jmp	SHORT $LN55@UpdateArch
$LN54@UpdateArch:
	mov	eax, DWORD PTR _i$[ebp]
	add	eax, 1
	mov	DWORD PTR _i$[ebp], eax
$LN55@UpdateArch:
	mov	ecx, DWORD PTR _options$[ebp]
	add	ecx, 56					; 00000038H
	call	?Size@?$CObjectVector@UCUpdateArchiveCommand@@@@QBEIXZ ; CObjectVector<CUpdateArchiveCommand>::Size
	cmp	DWORD PTR _i$[ebp], eax
	jae	$LN53@UpdateArch
; Line 1290
	mov	ecx, DWORD PTR _i$[ebp]
	push	ecx
	mov	ecx, DWORD PTR _options$[ebp]
	add	ecx, 56					; 00000038H
	call	??A?$CObjectVector@UCUpdateArchiveCommand@@@@QAEAAUCUpdateArchiveCommand@@I@Z ; CObjectVector<CUpdateArchiveCommand>::operator[]
	add	eax, 12					; 0000000cH
	mov	DWORD PTR _ap$75495[ebp], eax
; Line 1291
	movzx	edx, BYTE PTR _usesTempDir$[ebp]
	test	edx, edx
	je	SHORT $LN52@UpdateArch
; Line 1294
	lea	eax, DWORD PTR _tempDirPrefix$[ebp]
	push	eax
	mov	ecx, DWORD PTR _ap$75495[ebp]
	add	ecx, 12					; 0000000cH
	call	??4UString@@QAEAAV0@ABV0@@Z		; UString::operator=
$LN52@UpdateArch:
; Line 1299
	mov	ecx, DWORD PTR _options$[ebp]
	movzx	edx, BYTE PTR [ecx+196]
	test	edx, edx
	jne	$LN51@UpdateArch
	cmp	DWORD PTR _i$[ebp], 0
	ja	SHORT $LN50@UpdateArch
	movzx	eax, BYTE PTR _createTempFile$[ebp]
	test	eax, eax
	jne	$LN51@UpdateArch
$LN50@UpdateArch:
; Line 1301
	lea	ecx, DWORD PTR _path$75499[ebp]
	push	ecx
	mov	ecx, DWORD PTR _ap$75495[ebp]
	call	?GetFinalPath@CArchivePath@@QBE?AVUString@@XZ ; CArchivePath::GetFinalPath
	mov	BYTE PTR __$EHRec$[ebp+12], 19		; 00000013H
; Line 1302
	lea	ecx, DWORD PTR _path$75499[ebp]
	call	??BUString@@QBEPB_WXZ			; UString::operator wchar_t const *
	push	eax
	call	?DoesFileOrDirExist@NFind@NFile@NWindows@@YG_NPB_W@Z ; NWindows::NFile::NFind::DoesFileOrDirExist
	movzx	edx, al
	test	edx, edx
	je	$LN49@UpdateArch
; Line 1304
	mov	eax, DWORD PTR _errorInfo$[ebp]
	mov	DWORD PTR [eax], 80			; 00000050H
; Line 1305
	push	OFFSET $SG75502
	mov	ecx, DWORD PTR _errorInfo$[ebp]
	add	ecx, 4
	call	??4AString@@QAEAAV0@PBD@Z		; AString::operator=
; Line 1306
	lea	ecx, DWORD PTR _path$75499[ebp]
	push	ecx
	mov	ecx, DWORD PTR _errorInfo$[ebp]
	add	ecx, 16					; 00000010H
	call	?Add@?$CObjectVector@VUString@@@@QAEIABVUString@@@Z ; CObjectVector<UString>::Add
; Line 1307
	mov	ecx, DWORD PTR _errorInfo$[ebp]
	call	?Get_HRESULT_Error@CUpdateErrorInfo@@QBEJXZ ; CUpdateErrorInfo::Get_HRESULT_Error
	mov	DWORD PTR $T77504[ebp], eax
	mov	BYTE PTR __$EHRec$[ebp+12], 18		; 00000012H
	lea	ecx, DWORD PTR _path$75499[ebp]
	call	??1UString@@QAE@XZ			; UString::~UString
	mov	BYTE PTR __$EHRec$[ebp+12], 17		; 00000011H
	lea	ecx, DWORD PTR _tempFiles$[ebp]
	call	??1CTempFiles@@QAE@XZ			; CTempFiles::~CTempFiles
	mov	BYTE PTR __$EHRec$[ebp+12], 16		; 00000010H
	lea	ecx, DWORD PTR _tempDirectory$[ebp]
	call	??1CTempDir@NDir@NFile@NWindows@@QAE@XZ	; NWindows::NFile::NDir::CTempDir::~CTempDir
	mov	BYTE PTR __$EHRec$[ebp+12], 12		; 0000000cH
	lea	ecx, DWORD PTR _tempDirPrefix$[ebp]
	call	??1UString@@QAE@XZ			; UString::~UString
	mov	BYTE PTR __$EHRec$[ebp+12], 11		; 0000000bH
	lea	ecx, DWORD PTR _parentDirItem$[ebp]
	call	??1CDirItem@@QAE@XZ
	mov	BYTE PTR __$EHRec$[ebp+12], 5
	lea	ecx, DWORD PTR _dirItems$[ebp]
	call	??1CDirItems@@QAE@XZ
	mov	BYTE PTR __$EHRec$[ebp+12], 4
	lea	ecx, DWORD PTR _arcPath$[ebp]
	call	??1UString@@QAE@XZ			; UString::~UString
	mov	DWORD PTR __$EHRec$[ebp+12], -1
	lea	ecx, DWORD PTR _arcLink$[ebp]
	call	??1CArchiveLink@@QAE@XZ			; CArchiveLink::~CArchiveLink
	mov	eax, DWORD PTR $T77504[ebp]
	jmp	$LN123@UpdateArch
$LN49@UpdateArch:
; Line 1309
	mov	BYTE PTR __$EHRec$[ebp+12], 18		; 00000012H
	lea	ecx, DWORD PTR _path$75499[ebp]
	call	??1UString@@QAE@XZ			; UString::~UString
$LN51@UpdateArch:
; Line 1310
	jmp	$LN54@UpdateArch
$LN53@UpdateArch:
; Line 1312
	lea	ecx, DWORD PTR _arcItems$[ebp]
	call	??0?$CObjectVector@UCArcItem@@@@QAE@XZ	; CObjectVector<CArcItem>::CObjectVector<CArcItem>
	mov	BYTE PTR __$EHRec$[ebp+12], 20		; 00000014H
; Line 1313
	movzx	edx, BYTE PTR _thereIsInArchive$[ebp]
	test	edx, edx
	je	$LN48@UpdateArch
; Line 1317
	lea	eax, DWORD PTR _arcItems$[ebp]
	push	eax
	lea	ecx, DWORD PTR _arcLink$[ebp]
	call	?Back@?$CObjectVector@VCArc@@@@QAEAAVCArc@@XZ ; CObjectVector<CArc>::Back
	push	eax
	mov	ecx, DWORD PTR _censor$[ebp]
	push	ecx
	call	?EnumerateInArchiveItems@@YGJABVCCensor@NWildcard@@ABVCArc@@AAV?$CObjectVector@UCArcItem@@@@@Z ; EnumerateInArchiveItems
	mov	DWORD PTR ___result__$75507[ebp], eax
	cmp	DWORD PTR ___result__$75507[ebp], 0
	je	$LN48@UpdateArch
	mov	edx, DWORD PTR ___result__$75507[ebp]
	mov	DWORD PTR $T77505[ebp], edx
	mov	BYTE PTR __$EHRec$[ebp+12], 18		; 00000012H
	lea	ecx, DWORD PTR _arcItems$[ebp]
	call	??1?$CObjectVector@UCArcItem@@@@QAE@XZ	; CObjectVector<CArcItem>::~CObjectVector<CArcItem>
	mov	BYTE PTR __$EHRec$[ebp+12], 17		; 00000011H
	lea	ecx, DWORD PTR _tempFiles$[ebp]
	call	??1CTempFiles@@QAE@XZ			; CTempFiles::~CTempFiles
	mov	BYTE PTR __$EHRec$[ebp+12], 16		; 00000010H
	lea	ecx, DWORD PTR _tempDirectory$[ebp]
	call	??1CTempDir@NDir@NFile@NWindows@@QAE@XZ	; NWindows::NFile::NDir::CTempDir::~CTempDir
	mov	BYTE PTR __$EHRec$[ebp+12], 12		; 0000000cH
	lea	ecx, DWORD PTR _tempDirPrefix$[ebp]
	call	??1UString@@QAE@XZ			; UString::~UString
	mov	BYTE PTR __$EHRec$[ebp+12], 11		; 0000000bH
	lea	ecx, DWORD PTR _parentDirItem$[ebp]
	call	??1CDirItem@@QAE@XZ
	mov	BYTE PTR __$EHRec$[ebp+12], 5
	lea	ecx, DWORD PTR _dirItems$[ebp]
	call	??1CDirItems@@QAE@XZ
	mov	BYTE PTR __$EHRec$[ebp+12], 4
	lea	ecx, DWORD PTR _arcPath$[ebp]
	call	??1UString@@QAE@XZ			; UString::~UString
	mov	DWORD PTR __$EHRec$[ebp+12], -1
	lea	ecx, DWORD PTR _arcLink$[ebp]
	call	??1CArchiveLink@@QAE@XZ			; CArchiveLink::~CArchiveLink
	mov	eax, DWORD PTR $T77505[ebp]
	jmp	$LN123@UpdateArch
$LN48@UpdateArch:
; Line 1327
	lea	ecx, DWORD PTR _processedItems$[ebp]
	call	??0?$CBuffer@E@@QAE@XZ			; CBuffer<unsigned char>::CBuffer<unsigned char>
	mov	BYTE PTR __$EHRec$[ebp+12], 21		; 00000015H
; Line 1328
	mov	eax, DWORD PTR _options$[ebp]
	movzx	ecx, BYTE PTR [eax+248]
	test	ecx, ecx
	je	SHORT $LN46@UpdateArch
; Line 1330
	lea	ecx, DWORD PTR _dirItems$[ebp+36]
	call	?Size@?$CObjectVector@UCDirItem@@@@QBEIXZ ; CObjectVector<CDirItem>::Size
	mov	DWORD PTR _num$75512[ebp], eax
; Line 1331
	mov	edx, DWORD PTR _num$75512[ebp]
	push	edx
	lea	ecx, DWORD PTR _processedItems$[ebp]
	call	?Alloc@?$CBuffer@E@@QAEXI@Z		; CBuffer<unsigned char>::Alloc
; Line 1332
	mov	DWORD PTR _i$[ebp], 0
	jmp	SHORT $LN45@UpdateArch
$LN44@UpdateArch:
	mov	eax, DWORD PTR _i$[ebp]
	add	eax, 1
	mov	DWORD PTR _i$[ebp], eax
$LN45@UpdateArch:
	mov	ecx, DWORD PTR _i$[ebp]
	cmp	ecx, DWORD PTR _num$75512[ebp]
	jae	SHORT $LN46@UpdateArch
; Line 1333
	lea	ecx, DWORD PTR _processedItems$[ebp]
	call	??B?$CBuffer@E@@QAEPAEXZ		; CBuffer<unsigned char>::operator unsigned char *
	mov	edx, DWORD PTR _i$[ebp]
	mov	BYTE PTR [eax+edx], 0
	jmp	SHORT $LN44@UpdateArch
$LN46@UpdateArch:
; Line 1346
	mov	DWORD PTR _i$[ebp], 0
	jmp	SHORT $LN42@UpdateArch
$LN41@UpdateArch:
	mov	eax, DWORD PTR _i$[ebp]
	add	eax, 1
	mov	DWORD PTR _i$[ebp], eax
$LN42@UpdateArch:
	mov	ecx, DWORD PTR _options$[ebp]
	add	ecx, 56					; 00000038H
	call	?Size@?$CObjectVector@UCUpdateArchiveCommand@@@@QBEIXZ ; CObjectVector<CUpdateArchiveCommand>::Size
	cmp	DWORD PTR _i$[ebp], eax
	jae	$LN40@UpdateArch
; Line 1348
	movzx	ecx, BYTE PTR _thereIsInArchive$[ebp]
	test	ecx, ecx
	je	SHORT $LN126@UpdateArch
	lea	ecx, DWORD PTR _arcLink$[ebp]
	call	?GetArc@CArchiveLink@@QBEPBVCArc@@XZ	; CArchiveLink::GetArc
	mov	DWORD PTR tv789[ebp], eax
	jmp	SHORT $LN127@UpdateArch
$LN126@UpdateArch:
	mov	DWORD PTR tv789[ebp], 0
$LN127@UpdateArch:
	mov	edx, DWORD PTR tv789[ebp]
	mov	DWORD PTR _arc$75519[ebp], edx
; Line 1349
	mov	eax, DWORD PTR _i$[ebp]
	push	eax
	mov	ecx, DWORD PTR _options$[ebp]
	add	ecx, 56					; 00000038H
	call	??A?$CObjectVector@UCUpdateArchiveCommand@@@@QAEAAUCUpdateArchiveCommand@@I@Z ; CObjectVector<CUpdateArchiveCommand>::operator[]
	mov	DWORD PTR _command$75520[ebp], eax
; Line 1350
	lea	ecx, DWORD PTR _name$75521[ebp]
	call	??0UString@@QAE@XZ			; UString::UString
	mov	BYTE PTR __$EHRec$[ebp+12], 22		; 00000016H
; Line 1353
	mov	ecx, DWORD PTR _options$[ebp]
	movzx	edx, BYTE PTR [ecx+196]
	test	edx, edx
	je	SHORT $LN39@UpdateArch
; Line 1355
	push	OFFSET $SG75524
	lea	ecx, DWORD PTR _name$75521[ebp]
	call	?SetFromAscii@UString@@QAEXPBD@Z	; UString::SetFromAscii
; Line 1356
	mov	al, BYTE PTR _thereIsInArchive$[ebp]
	mov	BYTE PTR _isUpdating$75522[ebp], al
; Line 1358
	jmp	$LN38@UpdateArch
$LN39@UpdateArch:
; Line 1360
	lea	ecx, DWORD PTR $T77508[ebp]
	push	ecx
	mov	ecx, DWORD PTR _command$75520[ebp]
	add	ecx, 12					; 0000000cH
	call	?GetFinalPath@CArchivePath@@QBE?AVUString@@XZ ; CArchivePath::GetFinalPath
	mov	DWORD PTR tv795[ebp], eax
	mov	edx, DWORD PTR tv795[ebp]
	mov	DWORD PTR tv1280[ebp], edx
	mov	BYTE PTR __$EHRec$[ebp+12], 23		; 00000017H
	mov	eax, DWORD PTR tv1280[ebp]
	push	eax
	lea	ecx, DWORD PTR _name$75521[ebp]
	call	??4UString@@QAEAAV0@ABV0@@Z		; UString::operator=
	mov	BYTE PTR __$EHRec$[ebp+12], 22		; 00000016H
	lea	ecx, DWORD PTR $T77508[ebp]
	call	??1UString@@QAE@XZ			; UString::~UString
; Line 1361
	cmp	DWORD PTR _i$[ebp], 0
	jne	SHORT $LN128@UpdateArch
	mov	ecx, DWORD PTR _options$[ebp]
	movzx	edx, BYTE PTR [ecx+68]
	test	edx, edx
	je	SHORT $LN128@UpdateArch
	movzx	eax, BYTE PTR _thereIsInArchive$[ebp]
	test	eax, eax
	je	SHORT $LN128@UpdateArch
	mov	DWORD PTR tv816[ebp], 1
	jmp	SHORT $LN129@UpdateArch
$LN128@UpdateArch:
	mov	DWORD PTR tv816[ebp], 0
$LN129@UpdateArch:
	mov	cl, BYTE PTR tv816[ebp]
	mov	BYTE PTR _isUpdating$75522[ebp], cl
$LN38@UpdateArch:
; Line 1364
	mov	esi, esp
	movzx	edx, BYTE PTR _isUpdating$75522[ebp]
	push	edx
	lea	ecx, DWORD PTR _name$75521[ebp]
	call	??BUString@@QBEPB_WXZ			; UString::operator wchar_t const *
	push	eax
	mov	eax, DWORD PTR _callback$[ebp]
	mov	edx, DWORD PTR [eax]
	mov	ecx, DWORD PTR _callback$[ebp]
	mov	eax, DWORD PTR [edx+76]
	call	eax
	cmp	esi, esp
	call	__RTC_CheckEsp
	mov	DWORD PTR ___result__$75527[ebp], eax
	cmp	DWORD PTR ___result__$75527[ebp], 0
	je	$LN37@UpdateArch
	mov	ecx, DWORD PTR ___result__$75527[ebp]
	mov	DWORD PTR $T77511[ebp], ecx
	mov	BYTE PTR __$EHRec$[ebp+12], 21		; 00000015H
	lea	ecx, DWORD PTR _name$75521[ebp]
	call	??1UString@@QAE@XZ			; UString::~UString
	mov	BYTE PTR __$EHRec$[ebp+12], 20		; 00000014H
	lea	ecx, DWORD PTR _processedItems$[ebp]
	call	??1?$CBuffer@E@@QAE@XZ			; CBuffer<unsigned char>::~CBuffer<unsigned char>
	mov	BYTE PTR __$EHRec$[ebp+12], 18		; 00000012H
	lea	ecx, DWORD PTR _arcItems$[ebp]
	call	??1?$CObjectVector@UCArcItem@@@@QAE@XZ	; CObjectVector<CArcItem>::~CObjectVector<CArcItem>
	mov	BYTE PTR __$EHRec$[ebp+12], 17		; 00000011H
	lea	ecx, DWORD PTR _tempFiles$[ebp]
	call	??1CTempFiles@@QAE@XZ			; CTempFiles::~CTempFiles
	mov	BYTE PTR __$EHRec$[ebp+12], 16		; 00000010H
	lea	ecx, DWORD PTR _tempDirectory$[ebp]
	call	??1CTempDir@NDir@NFile@NWindows@@QAE@XZ	; NWindows::NFile::NDir::CTempDir::~CTempDir
	mov	BYTE PTR __$EHRec$[ebp+12], 12		; 0000000cH
	lea	ecx, DWORD PTR _tempDirPrefix$[ebp]
	call	??1UString@@QAE@XZ			; UString::~UString
	mov	BYTE PTR __$EHRec$[ebp+12], 11		; 0000000bH
	lea	ecx, DWORD PTR _parentDirItem$[ebp]
	call	??1CDirItem@@QAE@XZ
	mov	BYTE PTR __$EHRec$[ebp+12], 5
	lea	ecx, DWORD PTR _dirItems$[ebp]
	call	??1CDirItems@@QAE@XZ
	mov	BYTE PTR __$EHRec$[ebp+12], 4
	lea	ecx, DWORD PTR _arcPath$[ebp]
	call	??1UString@@QAE@XZ			; UString::~UString
	mov	DWORD PTR __$EHRec$[ebp+12], -1
	lea	ecx, DWORD PTR _arcLink$[ebp]
	call	??1CArchiveLink@@QAE@XZ			; CArchiveLink::~CArchiveLink
	mov	eax, DWORD PTR $T77511[ebp]
	jmp	$LN123@UpdateArch
$LN37@UpdateArch:
; Line 1366
	lea	ecx, DWORD PTR _st$75530[ebp]
	call	??0CFinishArchiveStat@@QAE@XZ		; CFinishArchiveStat::CFinishArchiveStat
; Line 1381
	mov	edx, DWORD PTR _options$[ebp]
	movzx	eax, BYTE PTR [edx+248]
	test	eax, eax
	je	SHORT $LN130@UpdateArch
	lea	ecx, DWORD PTR _processedItems$[ebp]
	call	??B?$CBuffer@E@@QAEPAEXZ		; CBuffer<unsigned char>::operator unsigned char *
	mov	DWORD PTR tv844[ebp], eax
	jmp	SHORT $LN131@UpdateArch
$LN130@UpdateArch:
	mov	DWORD PTR tv844[ebp], 0
$LN131@UpdateArch:
	lea	ecx, DWORD PTR _st$75530[ebp]
	push	ecx
	mov	edx, DWORD PTR _callback$[ebp]
	push	edx
	mov	eax, DWORD PTR _errorInfo$[ebp]
	push	eax
	lea	ecx, DWORD PTR _tempFiles$[ebp]
	push	ecx
	mov	edx, DWORD PTR _parentDirItem_Ptr$[ebp]
	push	edx
	lea	eax, DWORD PTR _dirItems$[ebp]
	push	eax
	mov	ecx, DWORD PTR tv844[ebp]
	push	ecx
	lea	edx, DWORD PTR _arcItems$[ebp]
	push	edx
	mov	eax, DWORD PTR _command$75520[ebp]
	add	eax, 12					; 0000000cH
	push	eax
	mov	ecx, DWORD PTR _arc$75519[ebp]
	push	ecx
	mov	edx, DWORD PTR _command$75520[ebp]
	add	edx, 100				; 00000064H
	push	edx
	mov	eax, DWORD PTR _codecs$[ebp]
	push	eax
	movzx	ecx, BYTE PTR _isUpdating$75522[ebp]
	push	ecx
	mov	edx, DWORD PTR _options$[ebp]
	push	edx
	call	?Compress@@YGJABUCUpdateOptions@@_NPAVCCodecs@@ABUCActionSet@NUpdateArchive@@PBVCArc@@AAUCArchivePath@@ABV?$CObjectVector@UCArcItem@@@@PAEABVCDirItems@@PBUCDirItem@@AAVCTempFiles@@AAUCUpdateErrorInfo@@PAUIUpdateCallbackUI@@AAUCFinishArchiveStat@@@Z ; Compress
	mov	DWORD PTR ___result__$75531[ebp], eax
	cmp	DWORD PTR ___result__$75531[ebp], 0
	je	$LN36@UpdateArch
	mov	eax, DWORD PTR ___result__$75531[ebp]
	mov	DWORD PTR $T77514[ebp], eax
	mov	BYTE PTR __$EHRec$[ebp+12], 21		; 00000015H
	lea	ecx, DWORD PTR _name$75521[ebp]
	call	??1UString@@QAE@XZ			; UString::~UString
	mov	BYTE PTR __$EHRec$[ebp+12], 20		; 00000014H
	lea	ecx, DWORD PTR _processedItems$[ebp]
	call	??1?$CBuffer@E@@QAE@XZ			; CBuffer<unsigned char>::~CBuffer<unsigned char>
	mov	BYTE PTR __$EHRec$[ebp+12], 18		; 00000012H
	lea	ecx, DWORD PTR _arcItems$[ebp]
	call	??1?$CObjectVector@UCArcItem@@@@QAE@XZ	; CObjectVector<CArcItem>::~CObjectVector<CArcItem>
	mov	BYTE PTR __$EHRec$[ebp+12], 17		; 00000011H
	lea	ecx, DWORD PTR _tempFiles$[ebp]
	call	??1CTempFiles@@QAE@XZ			; CTempFiles::~CTempFiles
	mov	BYTE PTR __$EHRec$[ebp+12], 16		; 00000010H
	lea	ecx, DWORD PTR _tempDirectory$[ebp]
	call	??1CTempDir@NDir@NFile@NWindows@@QAE@XZ	; NWindows::NFile::NDir::CTempDir::~CTempDir
	mov	BYTE PTR __$EHRec$[ebp+12], 12		; 0000000cH
	lea	ecx, DWORD PTR _tempDirPrefix$[ebp]
	call	??1UString@@QAE@XZ			; UString::~UString
	mov	BYTE PTR __$EHRec$[ebp+12], 11		; 0000000bH
	lea	ecx, DWORD PTR _parentDirItem$[ebp]
	call	??1CDirItem@@QAE@XZ
	mov	BYTE PTR __$EHRec$[ebp+12], 5
	lea	ecx, DWORD PTR _dirItems$[ebp]
	call	??1CDirItems@@QAE@XZ
	mov	BYTE PTR __$EHRec$[ebp+12], 4
	lea	ecx, DWORD PTR _arcPath$[ebp]
	call	??1UString@@QAE@XZ			; UString::~UString
	mov	DWORD PTR __$EHRec$[ebp+12], -1
	lea	ecx, DWORD PTR _arcLink$[ebp]
	call	??1CArchiveLink@@QAE@XZ			; CArchiveLink::~CArchiveLink
	mov	eax, DWORD PTR $T77514[ebp]
	jmp	$LN123@UpdateArch
$LN36@UpdateArch:
; Line 1383
	mov	esi, esp
	lea	ecx, DWORD PTR _st$75530[ebp]
	push	ecx
	mov	edx, DWORD PTR _callback$[ebp]
	mov	eax, DWORD PTR [edx]
	mov	ecx, DWORD PTR _callback$[ebp]
	mov	edx, DWORD PTR [eax+80]
	call	edx
	cmp	esi, esp
	call	__RTC_CheckEsp
	mov	DWORD PTR ___result__$75535[ebp], eax
	cmp	DWORD PTR ___result__$75535[ebp], 0
	je	$LN35@UpdateArch
	mov	eax, DWORD PTR ___result__$75535[ebp]
	mov	DWORD PTR $T77515[ebp], eax
	mov	BYTE PTR __$EHRec$[ebp+12], 21		; 00000015H
	lea	ecx, DWORD PTR _name$75521[ebp]
	call	??1UString@@QAE@XZ			; UString::~UString
	mov	BYTE PTR __$EHRec$[ebp+12], 20		; 00000014H
	lea	ecx, DWORD PTR _processedItems$[ebp]
	call	??1?$CBuffer@E@@QAE@XZ			; CBuffer<unsigned char>::~CBuffer<unsigned char>
	mov	BYTE PTR __$EHRec$[ebp+12], 18		; 00000012H
	lea	ecx, DWORD PTR _arcItems$[ebp]
	call	??1?$CObjectVector@UCArcItem@@@@QAE@XZ	; CObjectVector<CArcItem>::~CObjectVector<CArcItem>
	mov	BYTE PTR __$EHRec$[ebp+12], 17		; 00000011H
	lea	ecx, DWORD PTR _tempFiles$[ebp]
	call	??1CTempFiles@@QAE@XZ			; CTempFiles::~CTempFiles
	mov	BYTE PTR __$EHRec$[ebp+12], 16		; 00000010H
	lea	ecx, DWORD PTR _tempDirectory$[ebp]
	call	??1CTempDir@NDir@NFile@NWindows@@QAE@XZ	; NWindows::NFile::NDir::CTempDir::~CTempDir
	mov	BYTE PTR __$EHRec$[ebp+12], 12		; 0000000cH
	lea	ecx, DWORD PTR _tempDirPrefix$[ebp]
	call	??1UString@@QAE@XZ			; UString::~UString
	mov	BYTE PTR __$EHRec$[ebp+12], 11		; 0000000bH
	lea	ecx, DWORD PTR _parentDirItem$[ebp]
	call	??1CDirItem@@QAE@XZ
	mov	BYTE PTR __$EHRec$[ebp+12], 5
	lea	ecx, DWORD PTR _dirItems$[ebp]
	call	??1CDirItems@@QAE@XZ
	mov	BYTE PTR __$EHRec$[ebp+12], 4
	lea	ecx, DWORD PTR _arcPath$[ebp]
	call	??1UString@@QAE@XZ			; UString::~UString
	mov	DWORD PTR __$EHRec$[ebp+12], -1
	lea	ecx, DWORD PTR _arcLink$[ebp]
	call	??1CArchiveLink@@QAE@XZ			; CArchiveLink::~CArchiveLink
	mov	eax, DWORD PTR $T77515[ebp]
	jmp	$LN123@UpdateArch
$LN35@UpdateArch:
; Line 1384
	mov	BYTE PTR __$EHRec$[ebp+12], 21		; 00000015H
	lea	ecx, DWORD PTR _name$75521[ebp]
	call	??1UString@@QAE@XZ			; UString::~UString
	jmp	$LN41@UpdateArch
$LN40@UpdateArch:
; Line 1387
	movzx	ecx, BYTE PTR _thereIsInArchive$[ebp]
	test	ecx, ecx
	je	$LN34@UpdateArch
; Line 1389
	lea	ecx, DWORD PTR _arcLink$[ebp]
	call	?Close@CArchiveLink@@QAEJXZ		; CArchiveLink::Close
	mov	DWORD PTR ___result__$75539[ebp], eax
	cmp	DWORD PTR ___result__$75539[ebp], 0
	je	$LN33@UpdateArch
	mov	edx, DWORD PTR ___result__$75539[ebp]
	mov	DWORD PTR $T77516[ebp], edx
	mov	BYTE PTR __$EHRec$[ebp+12], 20		; 00000014H
	lea	ecx, DWORD PTR _processedItems$[ebp]
	call	??1?$CBuffer@E@@QAE@XZ			; CBuffer<unsigned char>::~CBuffer<unsigned char>
	mov	BYTE PTR __$EHRec$[ebp+12], 18		; 00000012H
	lea	ecx, DWORD PTR _arcItems$[ebp]
	call	??1?$CObjectVector@UCArcItem@@@@QAE@XZ	; CObjectVector<CArcItem>::~CObjectVector<CArcItem>
	mov	BYTE PTR __$EHRec$[ebp+12], 17		; 00000011H
	lea	ecx, DWORD PTR _tempFiles$[ebp]
	call	??1CTempFiles@@QAE@XZ			; CTempFiles::~CTempFiles
	mov	BYTE PTR __$EHRec$[ebp+12], 16		; 00000010H
	lea	ecx, DWORD PTR _tempDirectory$[ebp]
	call	??1CTempDir@NDir@NFile@NWindows@@QAE@XZ	; NWindows::NFile::NDir::CTempDir::~CTempDir
	mov	BYTE PTR __$EHRec$[ebp+12], 12		; 0000000cH
	lea	ecx, DWORD PTR _tempDirPrefix$[ebp]
	call	??1UString@@QAE@XZ			; UString::~UString
	mov	BYTE PTR __$EHRec$[ebp+12], 11		; 0000000bH
	lea	ecx, DWORD PTR _parentDirItem$[ebp]
	call	??1CDirItem@@QAE@XZ
	mov	BYTE PTR __$EHRec$[ebp+12], 5
	lea	ecx, DWORD PTR _dirItems$[ebp]
	call	??1CDirItems@@QAE@XZ
	mov	BYTE PTR __$EHRec$[ebp+12], 4
	lea	ecx, DWORD PTR _arcPath$[ebp]
	call	??1UString@@QAE@XZ			; UString::~UString
	mov	DWORD PTR __$EHRec$[ebp+12], -1
	lea	ecx, DWORD PTR _arcLink$[ebp]
	call	??1CArchiveLink@@QAE@XZ			; CArchiveLink::~CArchiveLink
	mov	eax, DWORD PTR $T77516[ebp]
	jmp	$LN123@UpdateArch
$LN33@UpdateArch:
; Line 1390
	lea	ecx, DWORD PTR _arcLink$[ebp]
	call	?Release@CArchiveLink@@QAEXXZ		; CArchiveLink::Release
$LN34@UpdateArch:
; Line 1393
	lea	ecx, DWORD PTR _tempFiles$[ebp]
	call	?Clear@?$CObjectVector@VUString@@@@QAEXXZ ; CObjectVector<UString>::Clear
; Line 1394
	movzx	eax, BYTE PTR _createTempFile$[ebp]
	test	eax, eax
	je	$LN32@UpdateArch
; Line 1397
	mov	BYTE PTR __$EHRec$[ebp+12], 24		; 00000018H
; Line 1398
	push	0
	mov	ecx, DWORD PTR _options$[ebp]
	add	ecx, 56					; 00000038H
	call	??A?$CObjectVector@UCUpdateArchiveCommand@@@@QAEAAUCUpdateArchiveCommand@@I@Z ; CObjectVector<CUpdateArchiveCommand>::operator[]
	mov	DWORD PTR tv734[ebp], eax
	mov	ecx, DWORD PTR tv734[ebp]
	add	ecx, 12					; 0000000cH
	mov	DWORD PTR _ap$75544[ebp], ecx
; Line 1399
	lea	edx, DWORD PTR _$S1$75547[ebp]
	push	edx
	mov	ecx, DWORD PTR _ap$75544[ebp]
	call	?GetTempPathA@CArchivePath@@QBE?AVUString@@XZ ; CArchivePath::GetTempPathA
	mov	DWORD PTR tv722[ebp], eax
	mov	BYTE PTR __$EHRec$[ebp+12], 25		; 00000019H
	lea	eax, DWORD PTR _$S1$75547[ebp]
	mov	DWORD PTR _tempPath$75545[ebp], eax
; Line 1401
	movzx	ecx, BYTE PTR _thereIsInArchive$[ebp]
	test	ecx, ecx
	je	$LN30@UpdateArch
; Line 1402
	lea	ecx, DWORD PTR _arcPath$[ebp]
	call	??BUString@@QBEPB_WXZ			; UString::operator wchar_t const *
	mov	DWORD PTR tv704[ebp], eax
	mov	edx, DWORD PTR tv704[ebp]
	push	edx
	call	?DeleteFileAlways@NDir@NFile@NWindows@@YG_NPB_W@Z ; NWindows::NFile::NDir::DeleteFileAlways
	mov	BYTE PTR tv637[ebp], al
	movzx	eax, BYTE PTR tv637[ebp]
	test	eax, eax
	jne	$LN30@UpdateArch
; Line 1403
	lea	ecx, DWORD PTR _arcPath$[ebp]
	push	ecx
	push	OFFSET $SG75551
	mov	ecx, DWORD PTR _errorInfo$[ebp]
	call	?SetFromLastError@CUpdateErrorInfo@@QAEJPBDABVUString@@@Z ; CUpdateErrorInfo::SetFromLastError
	mov	DWORD PTR tv621[ebp], eax
	mov	edx, DWORD PTR tv621[ebp]
	mov	DWORD PTR $T77517[ebp], edx
	mov	BYTE PTR __$EHRec$[ebp+12], 24		; 00000018H
	lea	ecx, DWORD PTR _$S1$75547[ebp]
	call	??1UString@@QAE@XZ			; UString::~UString
	mov	BYTE PTR __$EHRec$[ebp+12], 20		; 00000014H
	lea	ecx, DWORD PTR _processedItems$[ebp]
	call	??1?$CBuffer@E@@QAE@XZ			; CBuffer<unsigned char>::~CBuffer<unsigned char>
	mov	BYTE PTR __$EHRec$[ebp+12], 18		; 00000012H
	lea	ecx, DWORD PTR _arcItems$[ebp]
	call	??1?$CObjectVector@UCArcItem@@@@QAE@XZ	; CObjectVector<CArcItem>::~CObjectVector<CArcItem>
	mov	BYTE PTR __$EHRec$[ebp+12], 17		; 00000011H
	lea	ecx, DWORD PTR _tempFiles$[ebp]
	call	??1CTempFiles@@QAE@XZ			; CTempFiles::~CTempFiles
	mov	BYTE PTR __$EHRec$[ebp+12], 16		; 00000010H
	lea	ecx, DWORD PTR _tempDirectory$[ebp]
	call	??1CTempDir@NDir@NFile@NWindows@@QAE@XZ	; NWindows::NFile::NDir::CTempDir::~CTempDir
	mov	BYTE PTR __$EHRec$[ebp+12], 12		; 0000000cH
	lea	ecx, DWORD PTR _tempDirPrefix$[ebp]
	call	??1UString@@QAE@XZ			; UString::~UString
	mov	BYTE PTR __$EHRec$[ebp+12], 11		; 0000000bH
	lea	ecx, DWORD PTR _parentDirItem$[ebp]
	call	??1CDirItem@@QAE@XZ
	mov	BYTE PTR __$EHRec$[ebp+12], 5
	lea	ecx, DWORD PTR _dirItems$[ebp]
	call	??1CDirItems@@QAE@XZ
	mov	BYTE PTR __$EHRec$[ebp+12], 4
	lea	ecx, DWORD PTR _arcPath$[ebp]
	call	??1UString@@QAE@XZ			; UString::~UString
	mov	DWORD PTR __$EHRec$[ebp+12], -1
	lea	ecx, DWORD PTR _arcLink$[ebp]
	call	??1CArchiveLink@@QAE@XZ			; CArchiveLink::~CArchiveLink
	mov	eax, DWORD PTR $T77517[ebp]
	jmp	$LN123@UpdateArch
$LN30@UpdateArch:
; Line 1405
	lea	ecx, DWORD PTR _arcPath$[ebp]
	call	??BUString@@QBEPB_WXZ			; UString::operator wchar_t const *
	mov	DWORD PTR tv618[ebp], eax
	mov	ecx, DWORD PTR _tempPath$75545[ebp]
	call	??BUString@@QBEPB_WXZ			; UString::operator wchar_t const *
	mov	DWORD PTR tv562[ebp], eax
	mov	eax, DWORD PTR tv618[ebp]
	push	eax
	mov	ecx, DWORD PTR tv562[ebp]
	push	ecx
	call	?MyMoveFile@NDir@NFile@NWindows@@YG_NPB_W0@Z ; NWindows::NFile::NDir::MyMoveFile
	mov	BYTE PTR tv559[ebp], al
	movzx	edx, BYTE PTR tv559[ebp]
	test	edx, edx
	jne	$LN28@UpdateArch
; Line 1407
	mov	eax, DWORD PTR _tempPath$75545[ebp]
	push	eax
	push	OFFSET $SG75553
	mov	ecx, DWORD PTR _errorInfo$[ebp]
	call	?SetFromLastError@CUpdateErrorInfo@@QAEJPBDABVUString@@@Z ; CUpdateErrorInfo::SetFromLastError
; Line 1408
	lea	ecx, DWORD PTR _arcPath$[ebp]
	push	ecx
	mov	ecx, DWORD PTR _errorInfo$[ebp]
	add	ecx, 16					; 00000010H
	call	?Add@?$CObjectVector@VUString@@@@QAEIABVUString@@@Z ; CObjectVector<UString>::Add
; Line 1409
	mov	ecx, DWORD PTR _errorInfo$[ebp]
	call	?Get_HRESULT_Error@CUpdateErrorInfo@@QBEJXZ ; CUpdateErrorInfo::Get_HRESULT_Error
	mov	DWORD PTR tv468[ebp], eax
	mov	edx, DWORD PTR tv468[ebp]
	mov	DWORD PTR $T77518[ebp], edx
	mov	BYTE PTR __$EHRec$[ebp+12], 24		; 00000018H
	lea	ecx, DWORD PTR _$S1$75547[ebp]
	call	??1UString@@QAE@XZ			; UString::~UString
	mov	BYTE PTR __$EHRec$[ebp+12], 20		; 00000014H
	lea	ecx, DWORD PTR _processedItems$[ebp]
	call	??1?$CBuffer@E@@QAE@XZ			; CBuffer<unsigned char>::~CBuffer<unsigned char>
	mov	BYTE PTR __$EHRec$[ebp+12], 18		; 00000012H
	lea	ecx, DWORD PTR _arcItems$[ebp]
	call	??1?$CObjectVector@UCArcItem@@@@QAE@XZ	; CObjectVector<CArcItem>::~CObjectVector<CArcItem>
	mov	BYTE PTR __$EHRec$[ebp+12], 17		; 00000011H
	lea	ecx, DWORD PTR _tempFiles$[ebp]
	call	??1CTempFiles@@QAE@XZ			; CTempFiles::~CTempFiles
	mov	BYTE PTR __$EHRec$[ebp+12], 16		; 00000010H
	lea	ecx, DWORD PTR _tempDirectory$[ebp]
	call	??1CTempDir@NDir@NFile@NWindows@@QAE@XZ	; NWindows::NFile::NDir::CTempDir::~CTempDir
	mov	BYTE PTR __$EHRec$[ebp+12], 12		; 0000000cH
	lea	ecx, DWORD PTR _tempDirPrefix$[ebp]
	call	??1UString@@QAE@XZ			; UString::~UString
	mov	BYTE PTR __$EHRec$[ebp+12], 11		; 0000000bH
	lea	ecx, DWORD PTR _parentDirItem$[ebp]
	call	??1CDirItem@@QAE@XZ
	mov	BYTE PTR __$EHRec$[ebp+12], 5
	lea	ecx, DWORD PTR _dirItems$[ebp]
	call	??1CDirItems@@QAE@XZ
	mov	BYTE PTR __$EHRec$[ebp+12], 4
	lea	ecx, DWORD PTR _arcPath$[ebp]
	call	??1UString@@QAE@XZ			; UString::~UString
	mov	DWORD PTR __$EHRec$[ebp+12], -1
	lea	ecx, DWORD PTR _arcLink$[ebp]
	call	??1CArchiveLink@@QAE@XZ			; CArchiveLink::~CArchiveLink
	mov	eax, DWORD PTR $T77518[ebp]
	jmp	$LN123@UpdateArch
$LN28@UpdateArch:
; Line 1411
	mov	BYTE PTR __$EHRec$[ebp+12], 24		; 00000018H
	lea	ecx, DWORD PTR _$S1$75547[ebp]
	call	??1UString@@QAE@XZ			; UString::~UString
	jmp	SHORT $LN132@UpdateArch
__catch$?UpdateArchive@@YGJPAVCCodecs@@ABV?$CObjectVector@UCOpenType@@@@ABVUString@@AAVCCensor@NWildcard@@AAUCUpdateOptions@@AAUCUpdateErrorInfo@@PAUIOpenCallbackUI@@PAUIUpdateCallbackUI2@@_N@Z$0:
; Line 1414
	push	0
	push	0
	call	__CxxThrowException@8
; Line 1415
	mov	DWORD PTR __$EHRec$[ebp+12], 21		; 00000015H
	mov	eax, $LN32@UpdateArch
	ret	0
$LN132@UpdateArch:
	mov	DWORD PTR __$EHRec$[ebp+12], 21		; 00000015H
$LN32@UpdateArch:
; Line 1421
	mov	eax, DWORD PTR _options$[ebp]
	movzx	ecx, BYTE PTR [eax+197]
	test	ecx, ecx
	je	$LN27@UpdateArch
; Line 1423
	lea	ecx, DWORD PTR _mapiLib$75556[ebp]
	call	??0CLibrary@NDLL@NWindows@@QAE@XZ	; NWindows::NDLL::CLibrary::CLibrary
	mov	BYTE PTR __$EHRec$[ebp+12], 27		; 0000001bH
; Line 1424
	push	OFFSET $SG75558
	lea	ecx, DWORD PTR _mapiLib$75556[ebp]
	call	?Load@CLibrary@NDLL@NWindows@@QAE_NPB_W@Z ; NWindows::NDLL::CLibrary::Load
	movzx	edx, al
	test	edx, edx
	jne	$LN26@UpdateArch
; Line 1426
	push	OFFSET $SG75559
	mov	ecx, DWORD PTR _errorInfo$[ebp]
	call	?SetFromLastError@CUpdateErrorInfo@@QAEXPBD@Z ; CUpdateErrorInfo::SetFromLastError
; Line 1427
	mov	ecx, DWORD PTR _errorInfo$[ebp]
	call	?Get_HRESULT_Error@CUpdateErrorInfo@@QBEJXZ ; CUpdateErrorInfo::Get_HRESULT_Error
	mov	DWORD PTR $T77519[ebp], eax
	mov	BYTE PTR __$EHRec$[ebp+12], 21		; 00000015H
	lea	ecx, DWORD PTR _mapiLib$75556[ebp]
	call	??1CLibrary@NDLL@NWindows@@QAE@XZ	; NWindows::NDLL::CLibrary::~CLibrary
	mov	BYTE PTR __$EHRec$[ebp+12], 20		; 00000014H
	lea	ecx, DWORD PTR _processedItems$[ebp]
	call	??1?$CBuffer@E@@QAE@XZ			; CBuffer<unsigned char>::~CBuffer<unsigned char>
	mov	BYTE PTR __$EHRec$[ebp+12], 18		; 00000012H
	lea	ecx, DWORD PTR _arcItems$[ebp]
	call	??1?$CObjectVector@UCArcItem@@@@QAE@XZ	; CObjectVector<CArcItem>::~CObjectVector<CArcItem>
	mov	BYTE PTR __$EHRec$[ebp+12], 17		; 00000011H
	lea	ecx, DWORD PTR _tempFiles$[ebp]
	call	??1CTempFiles@@QAE@XZ			; CTempFiles::~CTempFiles
	mov	BYTE PTR __$EHRec$[ebp+12], 16		; 00000010H
	lea	ecx, DWORD PTR _tempDirectory$[ebp]
	call	??1CTempDir@NDir@NFile@NWindows@@QAE@XZ	; NWindows::NFile::NDir::CTempDir::~CTempDir
	mov	BYTE PTR __$EHRec$[ebp+12], 12		; 0000000cH
	lea	ecx, DWORD PTR _tempDirPrefix$[ebp]
	call	??1UString@@QAE@XZ			; UString::~UString
	mov	BYTE PTR __$EHRec$[ebp+12], 11		; 0000000bH
	lea	ecx, DWORD PTR _parentDirItem$[ebp]
	call	??1CDirItem@@QAE@XZ
	mov	BYTE PTR __$EHRec$[ebp+12], 5
	lea	ecx, DWORD PTR _dirItems$[ebp]
	call	??1CDirItems@@QAE@XZ
	mov	BYTE PTR __$EHRec$[ebp+12], 4
	lea	ecx, DWORD PTR _arcPath$[ebp]
	call	??1UString@@QAE@XZ			; UString::~UString
	mov	DWORD PTR __$EHRec$[ebp+12], -1
	lea	ecx, DWORD PTR _arcLink$[ebp]
	call	??1CArchiveLink@@QAE@XZ			; CArchiveLink::~CArchiveLink
	mov	eax, DWORD PTR $T77519[ebp]
	jmp	$LN123@UpdateArch
$LN26@UpdateArch:
; Line 1439
	push	OFFSET $SG75563
	lea	ecx, DWORD PTR _mapiLib$75556[ebp]
	call	?GetProc@CLibrary@NDLL@NWindows@@QBEP6GHXZPBD@Z ; NWindows::NDLL::CLibrary::GetProc
	mov	DWORD PTR _sendMail$75561[ebp], eax
; Line 1440
	cmp	DWORD PTR _sendMail$75561[ebp], 0
	jne	$LN25@UpdateArch
; Line 1442
	push	OFFSET $SG75565
	mov	ecx, DWORD PTR _errorInfo$[ebp]
	call	?SetFromLastError@CUpdateErrorInfo@@QAEXPBD@Z ; CUpdateErrorInfo::SetFromLastError
; Line 1443
	mov	ecx, DWORD PTR _errorInfo$[ebp]
	call	?Get_HRESULT_Error@CUpdateErrorInfo@@QBEJXZ ; CUpdateErrorInfo::Get_HRESULT_Error
	mov	DWORD PTR $T77520[ebp], eax
	mov	BYTE PTR __$EHRec$[ebp+12], 21		; 00000015H
	lea	ecx, DWORD PTR _mapiLib$75556[ebp]
	call	??1CLibrary@NDLL@NWindows@@QAE@XZ	; NWindows::NDLL::CLibrary::~CLibrary
	mov	BYTE PTR __$EHRec$[ebp+12], 20		; 00000014H
	lea	ecx, DWORD PTR _processedItems$[ebp]
	call	??1?$CBuffer@E@@QAE@XZ			; CBuffer<unsigned char>::~CBuffer<unsigned char>
	mov	BYTE PTR __$EHRec$[ebp+12], 18		; 00000012H
	lea	ecx, DWORD PTR _arcItems$[ebp]
	call	??1?$CObjectVector@UCArcItem@@@@QAE@XZ	; CObjectVector<CArcItem>::~CObjectVector<CArcItem>
	mov	BYTE PTR __$EHRec$[ebp+12], 17		; 00000011H
	lea	ecx, DWORD PTR _tempFiles$[ebp]
	call	??1CTempFiles@@QAE@XZ			; CTempFiles::~CTempFiles
	mov	BYTE PTR __$EHRec$[ebp+12], 16		; 00000010H
	lea	ecx, DWORD PTR _tempDirectory$[ebp]
	call	??1CTempDir@NDir@NFile@NWindows@@QAE@XZ	; NWindows::NFile::NDir::CTempDir::~CTempDir
	mov	BYTE PTR __$EHRec$[ebp+12], 12		; 0000000cH
	lea	ecx, DWORD PTR _tempDirPrefix$[ebp]
	call	??1UString@@QAE@XZ			; UString::~UString
	mov	BYTE PTR __$EHRec$[ebp+12], 11		; 0000000bH
	lea	ecx, DWORD PTR _parentDirItem$[ebp]
	call	??1CDirItem@@QAE@XZ
	mov	BYTE PTR __$EHRec$[ebp+12], 5
	lea	ecx, DWORD PTR _dirItems$[ebp]
	call	??1CDirItems@@QAE@XZ
	mov	BYTE PTR __$EHRec$[ebp+12], 4
	lea	ecx, DWORD PTR _arcPath$[ebp]
	call	??1UString@@QAE@XZ			; UString::~UString
	mov	DWORD PTR __$EHRec$[ebp+12], -1
	lea	ecx, DWORD PTR _arcLink$[ebp]
	call	??1CArchiveLink@@QAE@XZ			; CArchiveLink::~CArchiveLink
	mov	eax, DWORD PTR $T77520[ebp]
	jmp	$LN123@UpdateArch
$LN25@UpdateArch:
; Line 1446
	lea	ecx, DWORD PTR _fullPaths$75567[ebp]
	call	??0?$CObjectVector@VUString@@@@QAE@XZ	; CObjectVector<UString>::CObjectVector<UString>
	mov	BYTE PTR __$EHRec$[ebp+12], 28		; 0000001cH
; Line 1449
	mov	DWORD PTR _i$75568[ebp], 0
	jmp	SHORT $LN24@UpdateArch
$LN23@UpdateArch:
	mov	eax, DWORD PTR _i$75568[ebp]
	add	eax, 1
	mov	DWORD PTR _i$75568[ebp], eax
$LN24@UpdateArch:
	mov	ecx, DWORD PTR _options$[ebp]
	add	ecx, 56					; 00000038H
	call	?Size@?$CObjectVector@UCUpdateArchiveCommand@@@@QBEIXZ ; CObjectVector<CUpdateArchiveCommand>::Size
	cmp	DWORD PTR _i$75568[ebp], eax
	jae	$LN22@UpdateArch
; Line 1451
	mov	ecx, DWORD PTR _i$75568[ebp]
	push	ecx
	mov	ecx, DWORD PTR _options$[ebp]
	add	ecx, 56					; 00000038H
	call	??A?$CObjectVector@UCUpdateArchiveCommand@@@@QAEAAUCUpdateArchiveCommand@@I@Z ; CObjectVector<CUpdateArchiveCommand>::operator[]
	add	eax, 12					; 0000000cH
	mov	DWORD PTR _ap$75572[ebp], eax
; Line 1452
	lea	edx, DWORD PTR _finalPath$75573[ebp]
	push	edx
	mov	ecx, DWORD PTR _ap$75572[ebp]
	call	?GetFinalPath@CArchivePath@@QBE?AVUString@@XZ ; CArchivePath::GetFinalPath
	mov	BYTE PTR __$EHRec$[ebp+12], 29		; 0000001dH
; Line 1453
	lea	ecx, DWORD PTR _arcPath$75575[ebp]
	call	??0UString@@QAE@XZ			; UString::UString
	mov	BYTE PTR __$EHRec$[ebp+12], 30		; 0000001eH
; Line 1454
	lea	eax, DWORD PTR _arcPath$75575[ebp]
	push	eax
	lea	ecx, DWORD PTR _finalPath$75573[ebp]
	call	??BUString@@QBEPB_WXZ			; UString::operator wchar_t const *
	push	eax
	call	?MyGetFullPathName@NDir@NFile@NWindows@@YG_NPB_WAAVUString@@@Z ; NWindows::NFile::NDir::MyGetFullPathName
	movzx	ecx, al
	test	ecx, ecx
	jne	$LN21@UpdateArch
; Line 1455
	lea	edx, DWORD PTR _finalPath$75573[ebp]
	push	edx
	push	OFFSET $SG75578
	mov	ecx, DWORD PTR _errorInfo$[ebp]
	call	?SetFromLastError@CUpdateErrorInfo@@QAEJPBDABVUString@@@Z ; CUpdateErrorInfo::SetFromLastError
	mov	DWORD PTR $T77521[ebp], eax
	mov	BYTE PTR __$EHRec$[ebp+12], 29		; 0000001dH
	lea	ecx, DWORD PTR _arcPath$75575[ebp]
	call	??1UString@@QAE@XZ			; UString::~UString
	mov	BYTE PTR __$EHRec$[ebp+12], 28		; 0000001cH
	lea	ecx, DWORD PTR _finalPath$75573[ebp]
	call	??1UString@@QAE@XZ			; UString::~UString
	mov	BYTE PTR __$EHRec$[ebp+12], 27		; 0000001bH
	lea	ecx, DWORD PTR _fullPaths$75567[ebp]
	call	??1?$CObjectVector@VUString@@@@QAE@XZ	; CObjectVector<UString>::~CObjectVector<UString>
	mov	BYTE PTR __$EHRec$[ebp+12], 21		; 00000015H
	lea	ecx, DWORD PTR _mapiLib$75556[ebp]
	call	??1CLibrary@NDLL@NWindows@@QAE@XZ	; NWindows::NDLL::CLibrary::~CLibrary
	mov	BYTE PTR __$EHRec$[ebp+12], 20		; 00000014H
	lea	ecx, DWORD PTR _processedItems$[ebp]
	call	??1?$CBuffer@E@@QAE@XZ			; CBuffer<unsigned char>::~CBuffer<unsigned char>
	mov	BYTE PTR __$EHRec$[ebp+12], 18		; 00000012H
	lea	ecx, DWORD PTR _arcItems$[ebp]
	call	??1?$CObjectVector@UCArcItem@@@@QAE@XZ	; CObjectVector<CArcItem>::~CObjectVector<CArcItem>
	mov	BYTE PTR __$EHRec$[ebp+12], 17		; 00000011H
	lea	ecx, DWORD PTR _tempFiles$[ebp]
	call	??1CTempFiles@@QAE@XZ			; CTempFiles::~CTempFiles
	mov	BYTE PTR __$EHRec$[ebp+12], 16		; 00000010H
	lea	ecx, DWORD PTR _tempDirectory$[ebp]
	call	??1CTempDir@NDir@NFile@NWindows@@QAE@XZ	; NWindows::NFile::NDir::CTempDir::~CTempDir
	mov	BYTE PTR __$EHRec$[ebp+12], 12		; 0000000cH
	lea	ecx, DWORD PTR _tempDirPrefix$[ebp]
	call	??1UString@@QAE@XZ			; UString::~UString
	mov	BYTE PTR __$EHRec$[ebp+12], 11		; 0000000bH
	lea	ecx, DWORD PTR _parentDirItem$[ebp]
	call	??1CDirItem@@QAE@XZ
	mov	BYTE PTR __$EHRec$[ebp+12], 5
	lea	ecx, DWORD PTR _dirItems$[ebp]
	call	??1CDirItems@@QAE@XZ
	mov	BYTE PTR __$EHRec$[ebp+12], 4
	lea	ecx, DWORD PTR _arcPath$[ebp]
	call	??1UString@@QAE@XZ			; UString::~UString
	mov	DWORD PTR __$EHRec$[ebp+12], -1
	lea	ecx, DWORD PTR _arcLink$[ebp]
	call	??1CArchiveLink@@QAE@XZ			; CArchiveLink::~CArchiveLink
	mov	eax, DWORD PTR $T77521[ebp]
	jmp	$LN123@UpdateArch
$LN21@UpdateArch:
; Line 1456
	lea	eax, DWORD PTR _arcPath$75575[ebp]
	push	eax
	lea	ecx, DWORD PTR _fullPaths$75567[ebp]
	call	?Add@?$CObjectVector@VUString@@@@QAEIABVUString@@@Z ; CObjectVector<UString>::Add
; Line 1457
	mov	BYTE PTR __$EHRec$[ebp+12], 29		; 0000001dH
	lea	ecx, DWORD PTR _arcPath$75575[ebp]
	call	??1UString@@QAE@XZ			; UString::~UString
	mov	BYTE PTR __$EHRec$[ebp+12], 28		; 0000001cH
	lea	ecx, DWORD PTR _finalPath$75573[ebp]
	call	??1UString@@QAE@XZ			; UString::~UString
	jmp	$LN23@UpdateArch
$LN22@UpdateArch:
; Line 1459
	lea	ecx, DWORD PTR _curDirRestorer$75579[ebp]
	call	??0CCurrentDirRestorer@NDir@NFile@NWindows@@QAE@XZ ; NWindows::NFile::NDir::CCurrentDirRestorer::CCurrentDirRestorer
	mov	BYTE PTR __$EHRec$[ebp+12], 31		; 0000001fH
; Line 1461
	mov	DWORD PTR _i$75568[ebp], 0
	jmp	SHORT $LN20@UpdateArch
$LN19@UpdateArch:
	mov	ecx, DWORD PTR _i$75568[ebp]
	add	ecx, 1
	mov	DWORD PTR _i$75568[ebp], ecx
$LN20@UpdateArch:
	lea	ecx, DWORD PTR _fullPaths$75567[ebp]
	call	?Size@?$CObjectVector@VUString@@@@QBEIXZ ; CObjectVector<UString>::Size
	cmp	DWORD PTR _i$75568[ebp], eax
	jae	$LN18@UpdateArch
; Line 1463
	mov	edx, DWORD PTR _i$75568[ebp]
	push	edx
	lea	ecx, DWORD PTR _fullPaths$75567[ebp]
	call	??A?$CObjectVector@VUString@@@@QAEAAVUString@@I@Z ; CObjectVector<UString>::operator[]
	push	eax
	lea	ecx, DWORD PTR _arcPath$75583[ebp]
	call	??0UString@@QAE@ABV0@@Z			; UString::UString
	mov	BYTE PTR __$EHRec$[ebp+12], 32		; 00000020H
; Line 1464
	lea	eax, DWORD PTR _arcPath$75583[ebp]
	push	eax
	lea	ecx, DWORD PTR _fileName$75584[ebp]
	push	ecx
	call	?ExtractFileNameFromPath@@YG?AVUString@@ABV1@@Z ; ExtractFileNameFromPath
	mov	BYTE PTR __$EHRec$[ebp+12], 33		; 00000021H
; Line 1465
	lea	edx, DWORD PTR _arcPath$75583[ebp]
	push	edx
	lea	eax, DWORD PTR _path$75586[ebp]
	push	eax
	call	?GetAnsiString@@YG?AVAString@@ABVUString@@@Z ; GetAnsiString
	mov	BYTE PTR __$EHRec$[ebp+12], 34		; 00000022H
; Line 1466
	lea	ecx, DWORD PTR _fileName$75584[ebp]
	push	ecx
	lea	edx, DWORD PTR _name$75588[ebp]
	push	edx
	call	?GetAnsiString@@YG?AVAString@@ABVUString@@@Z ; GetAnsiString
	mov	BYTE PTR __$EHRec$[ebp+12], 35		; 00000023H
; Line 1471
	push	24					; 00000018H
	push	0
	lea	eax, DWORD PTR _f$75590[ebp]
	push	eax
	call	_memset
	add	esp, 12					; 0000000cH
; Line 1472
	mov	DWORD PTR _f$75590[ebp+8], -1
; Line 1473
	lea	ecx, DWORD PTR _path$75586[ebp]
	call	??BAString@@QBEPBDXZ			; AString::operator char const *
	mov	DWORD PTR _f$75590[ebp+12], eax
; Line 1474
	lea	ecx, DWORD PTR _name$75588[ebp]
	call	??BAString@@QBEPBDXZ			; AString::operator char const *
	mov	DWORD PTR _f$75590[ebp+16], eax
; Line 1477
	push	48					; 00000030H
	push	0
	lea	ecx, DWORD PTR _m$75595[ebp]
	push	ecx
	call	_memset
	add	esp, 12					; 0000000cH
; Line 1478
	mov	DWORD PTR _m$75595[ebp+40], 1
; Line 1479
	lea	edx, DWORD PTR _f$75590[ebp]
	mov	DWORD PTR _m$75595[ebp+44], edx
; Line 1481
	mov	eax, DWORD PTR _options$[ebp]
	add	eax, 200				; 000000c8H
	push	eax
	lea	ecx, DWORD PTR _addr$75596[ebp]
	push	ecx
	call	?GetAnsiString@@YG?AVAString@@ABVUString@@@Z ; GetAnsiString
	mov	BYTE PTR __$EHRec$[ebp+12], 36		; 00000024H
; Line 1483
	lea	ecx, DWORD PTR _addr$75596[ebp]
	call	?IsEmpty@AString@@QBE_NXZ		; AString::IsEmpty
	movzx	edx, al
	test	edx, edx
	jne	SHORT $LN17@UpdateArch
; Line 1485
	push	24					; 00000018H
	push	0
	lea	eax, DWORD PTR _rec$75598[ebp]
	push	eax
	call	_memset
	add	esp, 12					; 0000000cH
; Line 1486
	mov	DWORD PTR _rec$75598[ebp+4], 1
; Line 1487
	lea	ecx, DWORD PTR _addr$75596[ebp]
	call	??BAString@@QBEPBDXZ			; AString::operator char const *
	mov	DWORD PTR _rec$75598[ebp+12], eax
; Line 1488
	mov	DWORD PTR _m$75595[ebp+32], 1
; Line 1489
	lea	ecx, DWORD PTR _rec$75598[ebp]
	mov	DWORD PTR _m$75595[ebp+36], ecx
$LN17@UpdateArch:
; Line 1492
	mov	esi, esp
	push	0
	push	8
	lea	edx, DWORD PTR _m$75595[ebp]
	push	edx
	push	0
	push	0
	call	DWORD PTR _sendMail$75561[ebp]
	cmp	esi, esp
	call	__RTC_CheckEsp
; Line 1493
	mov	BYTE PTR __$EHRec$[ebp+12], 35		; 00000023H
	lea	ecx, DWORD PTR _addr$75596[ebp]
	call	??1AString@@QAE@XZ			; AString::~AString
	mov	BYTE PTR __$EHRec$[ebp+12], 34		; 00000022H
	lea	ecx, DWORD PTR _name$75588[ebp]
	call	??1AString@@QAE@XZ			; AString::~AString
	mov	BYTE PTR __$EHRec$[ebp+12], 33		; 00000021H
	lea	ecx, DWORD PTR _path$75586[ebp]
	call	??1AString@@QAE@XZ			; AString::~AString
	mov	BYTE PTR __$EHRec$[ebp+12], 32		; 00000020H
	lea	ecx, DWORD PTR _fileName$75584[ebp]
	call	??1UString@@QAE@XZ			; UString::~UString
	mov	BYTE PTR __$EHRec$[ebp+12], 31		; 0000001fH
	lea	ecx, DWORD PTR _arcPath$75583[ebp]
	call	??1UString@@QAE@XZ			; UString::~UString
	jmp	$LN19@UpdateArch
$LN18@UpdateArch:
; Line 1494
	mov	BYTE PTR __$EHRec$[ebp+12], 28		; 0000001cH
	lea	ecx, DWORD PTR _curDirRestorer$75579[ebp]
	call	??1CCurrentDirRestorer@NDir@NFile@NWindows@@QAE@XZ ; NWindows::NFile::NDir::CCurrentDirRestorer::~CCurrentDirRestorer
	mov	BYTE PTR __$EHRec$[ebp+12], 27		; 0000001bH
	lea	ecx, DWORD PTR _fullPaths$75567[ebp]
	call	??1?$CObjectVector@VUString@@@@QAE@XZ	; CObjectVector<UString>::~CObjectVector<UString>
	mov	BYTE PTR __$EHRec$[ebp+12], 21		; 00000015H
	lea	ecx, DWORD PTR _mapiLib$75556[ebp]
	call	??1CLibrary@NDLL@NWindows@@QAE@XZ	; NWindows::NDLL::CLibrary::~CLibrary
$LN27@UpdateArch:
; Line 1498
	mov	eax, DWORD PTR _options$[ebp]
	movzx	ecx, BYTE PTR [eax+248]
	test	ecx, ecx
	je	$LN16@UpdateArch
; Line 1500
	lea	ecx, DWORD PTR _pairs$75701[ebp]
	call	??0?$CRecordVector@UCRefSortPair@@@@QAE@XZ ; CRecordVector<CRefSortPair>::CRecordVector<CRefSortPair>
	mov	BYTE PTR __$EHRec$[ebp+12], 37		; 00000025H
; Line 1501
	lea	ecx, DWORD PTR _foldersNames$75702[ebp]
	call	??0?$CObjectVector@VUString@@@@QAE@XZ	; CObjectVector<UString>::CObjectVector<UString>
	mov	BYTE PTR __$EHRec$[ebp+12], 38		; 00000026H
; Line 1503
	mov	DWORD PTR _i$[ebp], 0
	jmp	SHORT $LN15@UpdateArch
$LN14@UpdateArch:
	mov	edx, DWORD PTR _i$[ebp]
	add	edx, 1
	mov	DWORD PTR _i$[ebp], edx
$LN15@UpdateArch:
	lea	ecx, DWORD PTR _dirItems$[ebp+36]
	call	?Size@?$CObjectVector@UCDirItem@@@@QBEIXZ ; CObjectVector<CDirItem>::Size
	cmp	DWORD PTR _i$[ebp], eax
	jae	$LN13@UpdateArch
; Line 1505
	mov	eax, DWORD PTR _i$[ebp]
	push	eax
	lea	ecx, DWORD PTR _dirItems$[ebp+36]
	call	??A?$CObjectVector@UCDirItem@@@@QAEAAUCDirItem@@I@Z ; CObjectVector<CDirItem>::operator[]
	mov	DWORD PTR _dirItem$75706[ebp], eax
; Line 1506
	mov	ecx, DWORD PTR _i$[ebp]
	push	ecx
	lea	edx, DWORD PTR _phyPath$75707[ebp]
	push	edx
	lea	ecx, DWORD PTR _dirItems$[ebp]
	call	?GetPhyPath@CDirItems@@QBE?AVUString@@I@Z ; CDirItems::GetPhyPath
	mov	BYTE PTR __$EHRec$[ebp+12], 39		; 00000027H
; Line 1507
	mov	ecx, DWORD PTR _dirItem$75706[ebp]
	call	?IsDir@CDirItem@@QBE_NXZ		; CDirItem::IsDir
	movzx	eax, al
	test	eax, eax
	je	SHORT $LN12@UpdateArch
; Line 1510
	mov	ecx, DWORD PTR _i$[ebp]
	mov	DWORD PTR _pair$75710[ebp+4], ecx
; Line 1511
	lea	ecx, DWORD PTR _phyPath$75707[ebp]
	call	??BUString@@QBEPB_WXZ			; UString::operator wchar_t const *
	push	eax
	call	?GetNumSlashes@@YGIPB_W@Z		; GetNumSlashes
	mov	DWORD PTR _pair$75710[ebp], eax
; Line 1512
	mov	edx, DWORD PTR _pair$75710[ebp+4]
	push	edx
	mov	eax, DWORD PTR _pair$75710[ebp]
	push	eax
	lea	ecx, DWORD PTR _pairs$75701[ebp]
	call	?Add@?$CRecordVector@UCRefSortPair@@@@QAEIUCRefSortPair@@@Z ; CRecordVector<CRefSortPair>::Add
; Line 1514
	jmp	$LN11@UpdateArch
$LN12@UpdateArch:
; Line 1516
	lea	ecx, DWORD PTR _processedItems$[ebp]
	call	??B?$CBuffer@E@@QAEPAEXZ		; CBuffer<unsigned char>::operator unsigned char *
	mov	ecx, DWORD PTR _i$[ebp]
	movzx	edx, BYTE PTR [eax+ecx]
	test	edx, edx
	jne	SHORT $LN9@UpdateArch
	mov	eax, DWORD PTR _dirItem$75706[ebp]
	mov	DWORD PTR tv1877[ebp], eax
	mov	ecx, DWORD PTR tv1877[ebp]
	mov	edx, DWORD PTR tv1877[ebp]
	mov	eax, DWORD PTR [ecx]
	or	eax, DWORD PTR [edx+4]
	jne	$LN11@UpdateArch
$LN9@UpdateArch:
; Line 1518
	mov	esi, esp
	push	0
	lea	ecx, DWORD PTR _phyPath$75707[ebp]
	push	ecx
	mov	edx, DWORD PTR _callback$[ebp]
	mov	eax, DWORD PTR [edx]
	mov	ecx, DWORD PTR _callback$[ebp]
	mov	edx, DWORD PTR [eax+84]
	call	edx
	cmp	esi, esp
	call	__RTC_CheckEsp
	mov	DWORD PTR ___result__$75714[ebp], eax
	cmp	DWORD PTR ___result__$75714[ebp], 0
	je	$LN8@UpdateArch
	mov	eax, DWORD PTR ___result__$75714[ebp]
	mov	DWORD PTR $T77522[ebp], eax
	mov	BYTE PTR __$EHRec$[ebp+12], 38		; 00000026H
	lea	ecx, DWORD PTR _phyPath$75707[ebp]
	call	??1UString@@QAE@XZ			; UString::~UString
	mov	BYTE PTR __$EHRec$[ebp+12], 37		; 00000025H
	lea	ecx, DWORD PTR _foldersNames$75702[ebp]
	call	??1?$CObjectVector@VUString@@@@QAE@XZ	; CObjectVector<UString>::~CObjectVector<UString>
	mov	BYTE PTR __$EHRec$[ebp+12], 21		; 00000015H
	lea	ecx, DWORD PTR _pairs$75701[ebp]
	call	??1?$CRecordVector@UCRefSortPair@@@@QAE@XZ ; CRecordVector<CRefSortPair>::~CRecordVector<CRefSortPair>
	mov	BYTE PTR __$EHRec$[ebp+12], 20		; 00000014H
	lea	ecx, DWORD PTR _processedItems$[ebp]
	call	??1?$CBuffer@E@@QAE@XZ			; CBuffer<unsigned char>::~CBuffer<unsigned char>
	mov	BYTE PTR __$EHRec$[ebp+12], 18		; 00000012H
	lea	ecx, DWORD PTR _arcItems$[ebp]
	call	??1?$CObjectVector@UCArcItem@@@@QAE@XZ	; CObjectVector<CArcItem>::~CObjectVector<CArcItem>
	mov	BYTE PTR __$EHRec$[ebp+12], 17		; 00000011H
	lea	ecx, DWORD PTR _tempFiles$[ebp]
	call	??1CTempFiles@@QAE@XZ			; CTempFiles::~CTempFiles
	mov	BYTE PTR __$EHRec$[ebp+12], 16		; 00000010H
	lea	ecx, DWORD PTR _tempDirectory$[ebp]
	call	??1CTempDir@NDir@NFile@NWindows@@QAE@XZ	; NWindows::NFile::NDir::CTempDir::~CTempDir
	mov	BYTE PTR __$EHRec$[ebp+12], 12		; 0000000cH
	lea	ecx, DWORD PTR _tempDirPrefix$[ebp]
	call	??1UString@@QAE@XZ			; UString::~UString
	mov	BYTE PTR __$EHRec$[ebp+12], 11		; 0000000bH
	lea	ecx, DWORD PTR _parentDirItem$[ebp]
	call	??1CDirItem@@QAE@XZ
	mov	BYTE PTR __$EHRec$[ebp+12], 5
	lea	ecx, DWORD PTR _dirItems$[ebp]
	call	??1CDirItems@@QAE@XZ
	mov	BYTE PTR __$EHRec$[ebp+12], 4
	lea	ecx, DWORD PTR _arcPath$[ebp]
	call	??1UString@@QAE@XZ			; UString::~UString
	mov	DWORD PTR __$EHRec$[ebp+12], -1
	lea	ecx, DWORD PTR _arcLink$[ebp]
	call	??1CArchiveLink@@QAE@XZ			; CArchiveLink::~CArchiveLink
	mov	eax, DWORD PTR $T77522[ebp]
	jmp	$LN123@UpdateArch
$LN8@UpdateArch:
; Line 1519
	lea	ecx, DWORD PTR _phyPath$75707[ebp]
	call	??BUString@@QBEPB_WXZ			; UString::operator wchar_t const *
	push	eax
	call	?DeleteFileAlways@NDir@NFile@NWindows@@YG_NPB_W@Z ; NWindows::NFile::NDir::DeleteFileAlways
$LN11@UpdateArch:
; Line 1532
	mov	BYTE PTR __$EHRec$[ebp+12], 38		; 00000026H
	lea	ecx, DWORD PTR _phyPath$75707[ebp]
	call	??1UString@@QAE@XZ			; UString::~UString
	jmp	$LN14@UpdateArch
$LN13@UpdateArch:
; Line 1534
	push	0
	push	OFFSET ?CompareRefSortPair@@YGHPBUCRefSortPair@@0PAX@Z ; CompareRefSortPair
	lea	ecx, DWORD PTR _pairs$75701[ebp]
	call	?Sort@?$CRecordVector@UCRefSortPair@@@@QAEXP6GHPBUCRefSortPair@@0PAX@Z1@Z ; CRecordVector<CRefSortPair>::Sort
; Line 1536
	mov	DWORD PTR _i$[ebp], 0
	jmp	SHORT $LN6@UpdateArch
$LN5@UpdateArch:
	mov	ecx, DWORD PTR _i$[ebp]
	add	ecx, 1
	mov	DWORD PTR _i$[ebp], ecx
$LN6@UpdateArch:
	lea	ecx, DWORD PTR _pairs$75701[ebp]
	call	?Size@?$CRecordVector@UCRefSortPair@@@@QBEIXZ ; CRecordVector<CRefSortPair>::Size
	cmp	DWORD PTR _i$[ebp], eax
	jae	$LN4@UpdateArch
; Line 1538
	mov	edx, DWORD PTR _i$[ebp]
	push	edx
	lea	ecx, DWORD PTR _pairs$75701[ebp]
	call	??A?$CRecordVector@UCRefSortPair@@@@QAEAAUCRefSortPair@@I@Z ; CRecordVector<CRefSortPair>::operator[]
	mov	eax, DWORD PTR [eax+4]
	push	eax
	lea	ecx, DWORD PTR _phyPath$75721[ebp]
	push	ecx
	lea	ecx, DWORD PTR _dirItems$[ebp]
	call	?GetPhyPath@CDirItems@@QBE?AVUString@@I@Z ; CDirItems::GetPhyPath
	mov	BYTE PTR __$EHRec$[ebp+12], 40		; 00000028H
; Line 1539
	lea	ecx, DWORD PTR _phyPath$75721[ebp]
	call	??BUString@@QBEPB_WXZ			; UString::operator wchar_t const *
	push	eax
	call	?DoesDirExist@NFind@NFile@NWindows@@YG_NPB_W@Z ; NWindows::NFile::NFind::DoesDirExist
	movzx	edx, al
	test	edx, edx
	je	$LN3@UpdateArch
; Line 1541
	mov	esi, esp
	push	1
	lea	eax, DWORD PTR _phyPath$75721[ebp]
	push	eax
	mov	ecx, DWORD PTR _callback$[ebp]
	mov	edx, DWORD PTR [ecx]
	mov	ecx, DWORD PTR _callback$[ebp]
	mov	eax, DWORD PTR [edx+84]
	call	eax
	cmp	esi, esp
	call	__RTC_CheckEsp
	mov	DWORD PTR ___result__$75724[ebp], eax
	cmp	DWORD PTR ___result__$75724[ebp], 0
	je	$LN2@UpdateArch
	mov	ecx, DWORD PTR ___result__$75724[ebp]
	mov	DWORD PTR $T77523[ebp], ecx
	mov	BYTE PTR __$EHRec$[ebp+12], 38		; 00000026H
	lea	ecx, DWORD PTR _phyPath$75721[ebp]
	call	??1UString@@QAE@XZ			; UString::~UString
	mov	BYTE PTR __$EHRec$[ebp+12], 37		; 00000025H
	lea	ecx, DWORD PTR _foldersNames$75702[ebp]
	call	??1?$CObjectVector@VUString@@@@QAE@XZ	; CObjectVector<UString>::~CObjectVector<UString>
	mov	BYTE PTR __$EHRec$[ebp+12], 21		; 00000015H
	lea	ecx, DWORD PTR _pairs$75701[ebp]
	call	??1?$CRecordVector@UCRefSortPair@@@@QAE@XZ ; CRecordVector<CRefSortPair>::~CRecordVector<CRefSortPair>
	mov	BYTE PTR __$EHRec$[ebp+12], 20		; 00000014H
	lea	ecx, DWORD PTR _processedItems$[ebp]
	call	??1?$CBuffer@E@@QAE@XZ			; CBuffer<unsigned char>::~CBuffer<unsigned char>
	mov	BYTE PTR __$EHRec$[ebp+12], 18		; 00000012H
	lea	ecx, DWORD PTR _arcItems$[ebp]
	call	??1?$CObjectVector@UCArcItem@@@@QAE@XZ	; CObjectVector<CArcItem>::~CObjectVector<CArcItem>
	mov	BYTE PTR __$EHRec$[ebp+12], 17		; 00000011H
	lea	ecx, DWORD PTR _tempFiles$[ebp]
	call	??1CTempFiles@@QAE@XZ			; CTempFiles::~CTempFiles
	mov	BYTE PTR __$EHRec$[ebp+12], 16		; 00000010H
	lea	ecx, DWORD PTR _tempDirectory$[ebp]
	call	??1CTempDir@NDir@NFile@NWindows@@QAE@XZ	; NWindows::NFile::NDir::CTempDir::~CTempDir
	mov	BYTE PTR __$EHRec$[ebp+12], 12		; 0000000cH
	lea	ecx, DWORD PTR _tempDirPrefix$[ebp]
	call	??1UString@@QAE@XZ			; UString::~UString
	mov	BYTE PTR __$EHRec$[ebp+12], 11		; 0000000bH
	lea	ecx, DWORD PTR _parentDirItem$[ebp]
	call	??1CDirItem@@QAE@XZ
	mov	BYTE PTR __$EHRec$[ebp+12], 5
	lea	ecx, DWORD PTR _dirItems$[ebp]
	call	??1CDirItems@@QAE@XZ
	mov	BYTE PTR __$EHRec$[ebp+12], 4
	lea	ecx, DWORD PTR _arcPath$[ebp]
	call	??1UString@@QAE@XZ			; UString::~UString
	mov	DWORD PTR __$EHRec$[ebp+12], -1
	lea	ecx, DWORD PTR _arcLink$[ebp]
	call	??1CArchiveLink@@QAE@XZ			; CArchiveLink::~CArchiveLink
	mov	eax, DWORD PTR $T77523[ebp]
	jmp	$LN123@UpdateArch
$LN2@UpdateArch:
; Line 1542
	lea	ecx, DWORD PTR _phyPath$75721[ebp]
	call	??BUString@@QBEPB_WXZ			; UString::operator wchar_t const *
	push	eax
	call	?RemoveDir@NDir@NFile@NWindows@@YG_NPB_W@Z ; NWindows::NFile::NDir::RemoveDir
$LN3@UpdateArch:
; Line 1544
	mov	BYTE PTR __$EHRec$[ebp+12], 38		; 00000026H
	lea	ecx, DWORD PTR _phyPath$75721[ebp]
	call	??1UString@@QAE@XZ			; UString::~UString
	jmp	$LN5@UpdateArch
$LN4@UpdateArch:
; Line 1546
	mov	esi, esp
	mov	edx, DWORD PTR _callback$[ebp]
	mov	eax, DWORD PTR [edx]
	mov	ecx, DWORD PTR _callback$[ebp]
	mov	edx, DWORD PTR [eax+88]
	call	edx
	cmp	esi, esp
	call	__RTC_CheckEsp
	mov	DWORD PTR ___result__$75727[ebp], eax
	cmp	DWORD PTR ___result__$75727[ebp], 0
	je	$LN1@UpdateArch
	mov	eax, DWORD PTR ___result__$75727[ebp]
	mov	DWORD PTR $T77524[ebp], eax
	mov	BYTE PTR __$EHRec$[ebp+12], 37		; 00000025H
	lea	ecx, DWORD PTR _foldersNames$75702[ebp]
	call	??1?$CObjectVector@VUString@@@@QAE@XZ	; CObjectVector<UString>::~CObjectVector<UString>
	mov	BYTE PTR __$EHRec$[ebp+12], 21		; 00000015H
	lea	ecx, DWORD PTR _pairs$75701[ebp]
	call	??1?$CRecordVector@UCRefSortPair@@@@QAE@XZ ; CRecordVector<CRefSortPair>::~CRecordVector<CRefSortPair>
	mov	BYTE PTR __$EHRec$[ebp+12], 20		; 00000014H
	lea	ecx, DWORD PTR _processedItems$[ebp]
	call	??1?$CBuffer@E@@QAE@XZ			; CBuffer<unsigned char>::~CBuffer<unsigned char>
	mov	BYTE PTR __$EHRec$[ebp+12], 18		; 00000012H
	lea	ecx, DWORD PTR _arcItems$[ebp]
	call	??1?$CObjectVector@UCArcItem@@@@QAE@XZ	; CObjectVector<CArcItem>::~CObjectVector<CArcItem>
	mov	BYTE PTR __$EHRec$[ebp+12], 17		; 00000011H
	lea	ecx, DWORD PTR _tempFiles$[ebp]
	call	??1CTempFiles@@QAE@XZ			; CTempFiles::~CTempFiles
	mov	BYTE PTR __$EHRec$[ebp+12], 16		; 00000010H
	lea	ecx, DWORD PTR _tempDirectory$[ebp]
	call	??1CTempDir@NDir@NFile@NWindows@@QAE@XZ	; NWindows::NFile::NDir::CTempDir::~CTempDir
	mov	BYTE PTR __$EHRec$[ebp+12], 12		; 0000000cH
	lea	ecx, DWORD PTR _tempDirPrefix$[ebp]
	call	??1UString@@QAE@XZ			; UString::~UString
	mov	BYTE PTR __$EHRec$[ebp+12], 11		; 0000000bH
	lea	ecx, DWORD PTR _parentDirItem$[ebp]
	call	??1CDirItem@@QAE@XZ
	mov	BYTE PTR __$EHRec$[ebp+12], 5
	lea	ecx, DWORD PTR _dirItems$[ebp]
	call	??1CDirItems@@QAE@XZ
	mov	BYTE PTR __$EHRec$[ebp+12], 4
	lea	ecx, DWORD PTR _arcPath$[ebp]
	call	??1UString@@QAE@XZ			; UString::~UString
	mov	DWORD PTR __$EHRec$[ebp+12], -1
	lea	ecx, DWORD PTR _arcLink$[ebp]
	call	??1CArchiveLink@@QAE@XZ			; CArchiveLink::~CArchiveLink
	mov	eax, DWORD PTR $T77524[ebp]
	jmp	$LN123@UpdateArch
$LN1@UpdateArch:
; Line 1547
	mov	BYTE PTR __$EHRec$[ebp+12], 37		; 00000025H
	lea	ecx, DWORD PTR _foldersNames$75702[ebp]
	call	??1?$CObjectVector@VUString@@@@QAE@XZ	; CObjectVector<UString>::~CObjectVector<UString>
	mov	BYTE PTR __$EHRec$[ebp+12], 21		; 00000015H
	lea	ecx, DWORD PTR _pairs$75701[ebp]
	call	??1?$CRecordVector@UCRefSortPair@@@@QAE@XZ ; CRecordVector<CRefSortPair>::~CRecordVector<CRefSortPair>
$LN16@UpdateArch:
; Line 1549
	mov	DWORD PTR $T77525[ebp], 0
	mov	BYTE PTR __$EHRec$[ebp+12], 20		; 00000014H
	lea	ecx, DWORD PTR _processedItems$[ebp]
	call	??1?$CBuffer@E@@QAE@XZ			; CBuffer<unsigned char>::~CBuffer<unsigned char>
	mov	BYTE PTR __$EHRec$[ebp+12], 18		; 00000012H
	lea	ecx, DWORD PTR _arcItems$[ebp]
	call	??1?$CObjectVector@UCArcItem@@@@QAE@XZ	; CObjectVector<CArcItem>::~CObjectVector<CArcItem>
	mov	BYTE PTR __$EHRec$[ebp+12], 17		; 00000011H
	lea	ecx, DWORD PTR _tempFiles$[ebp]
	call	??1CTempFiles@@QAE@XZ			; CTempFiles::~CTempFiles
	mov	BYTE PTR __$EHRec$[ebp+12], 16		; 00000010H
	lea	ecx, DWORD PTR _tempDirectory$[ebp]
	call	??1CTempDir@NDir@NFile@NWindows@@QAE@XZ	; NWindows::NFile::NDir::CTempDir::~CTempDir
	mov	BYTE PTR __$EHRec$[ebp+12], 12		; 0000000cH
	lea	ecx, DWORD PTR _tempDirPrefix$[ebp]
	call	??1UString@@QAE@XZ			; UString::~UString
	mov	BYTE PTR __$EHRec$[ebp+12], 11		; 0000000bH
	lea	ecx, DWORD PTR _parentDirItem$[ebp]
	call	??1CDirItem@@QAE@XZ
	mov	BYTE PTR __$EHRec$[ebp+12], 5
	lea	ecx, DWORD PTR _dirItems$[ebp]
	call	??1CDirItems@@QAE@XZ
	mov	BYTE PTR __$EHRec$[ebp+12], 4
	lea	ecx, DWORD PTR _arcPath$[ebp]
	call	??1UString@@QAE@XZ			; UString::~UString
	mov	DWORD PTR __$EHRec$[ebp+12], -1
	lea	ecx, DWORD PTR _arcLink$[ebp]
	call	??1CArchiveLink@@QAE@XZ			; CArchiveLink::~CArchiveLink
	mov	eax, DWORD PTR $T77525[ebp]
$LN123@UpdateArch:
; Line 1550
	push	edx
	mov	ecx, ebp
	push	eax
	lea	edx, DWORD PTR $LN236@UpdateArch
	call	@_RTC_CheckStackVars@8
	pop	eax
	pop	edx
	mov	ecx, DWORD PTR __$EHRec$[ebp+4]
	mov	DWORD PTR fs:0, ecx
	pop	ecx
	pop	edi
	pop	esi
	pop	ebx
	add	esp, 1832				; 00000728H
	cmp	ebp, esp
	call	__RTC_CheckEsp
	mov	esp, ebp
	pop	ebp
	ret	36					; 00000024H
	npad	2
$LN236@UpdateArch:
	DD	41					; 00000029H
	DD	$LN235@UpdateArch
$LN235@UpdateArch:
	DD	-56					; ffffffc8H
	DD	24					; 00000018H
	DD	$LN193@UpdateArch
	DD	-80					; ffffffb0H
	DD	12					; 0000000cH
	DD	$LN194@UpdateArch
	DD	-184					; ffffff48H
	DD	96					; 00000060H
	DD	$LN195@UpdateArch
	DD	-204					; ffffff34H
	DD	12					; 0000000cH
	DD	$LN196@UpdateArch
	DD	-268					; fffffef4H
	DD	56					; 00000038H
	DD	$LN197@UpdateArch
	DD	-288					; fffffee0H
	DD	12					; 0000000cH
	DD	$LN198@UpdateArch
	DD	-308					; fffffeccH
	DD	12					; 0000000cH
	DD	$LN199@UpdateArch
	DD	-404					; fffffe6cH
	DD	88					; 00000058H
	DD	$LN200@UpdateArch
	DD	-600					; fffffda8H
	DD	160					; 000000a0H
	DD	$LN201@UpdateArch
	DD	-688					; fffffd50H
	DD	80					; 00000050H
	DD	$LN202@UpdateArch
	DD	-780					; fffffcf4H
	DD	80					; 00000050H
	DD	$LN203@UpdateArch
	DD	-864					; fffffca0H
	DD	56					; 00000038H
	DD	$LN204@UpdateArch
	DD	-884					; fffffc8cH
	DD	12					; 0000000cH
	DD	$LN205@UpdateArch
	DD	-896					; fffffc80H
	DD	4
	DD	$LN206@UpdateArch
	DD	-916					; fffffc6cH
	DD	12					; 0000000cH
	DD	$LN207@UpdateArch
	DD	-944					; fffffc50H
	DD	16					; 00000010H
	DD	$LN208@UpdateArch
	DD	-964					; fffffc3cH
	DD	12					; 0000000cH
	DD	$LN209@UpdateArch
	DD	-1000					; fffffc18H
	DD	12					; 0000000cH
	DD	$LN210@UpdateArch
	DD	-1020					; fffffc04H
	DD	12					; 0000000cH
	DD	$LN211@UpdateArch
	DD	-1040					; fffffbf0H
	DD	8
	DD	$LN212@UpdateArch
	DD	-1072					; fffffbd0H
	DD	12					; 0000000cH
	DD	$LN213@UpdateArch
	DD	-1096					; fffffbb8H
	DD	8
	DD	$LN214@UpdateArch
	DD	-1136					; fffffb90H
	DD	12					; 0000000cH
	DD	$LN215@UpdateArch
	DD	-1148					; fffffb84H
	DD	4
	DD	$LN216@UpdateArch
	DD	-1172					; fffffb6cH
	DD	12					; 0000000cH
	DD	$LN217@UpdateArch
	DD	-1200					; fffffb50H
	DD	12					; 0000000cH
	DD	$LN218@UpdateArch
	DD	-1220					; fffffb3cH
	DD	12					; 0000000cH
	DD	$LN219@UpdateArch
	DD	-1244					; fffffb24H
	DD	16					; 00000010H
	DD	$LN220@UpdateArch
	DD	-1264					; fffffb10H
	DD	12					; 0000000cH
	DD	$LN221@UpdateArch
	DD	-1284					; fffffafcH
	DD	12					; 0000000cH
	DD	$LN222@UpdateArch
	DD	-1304					; fffffae8H
	DD	12					; 0000000cH
	DD	$LN223@UpdateArch
	DD	-1324					; fffffad4H
	DD	12					; 0000000cH
	DD	$LN224@UpdateArch
	DD	-1356					; fffffab4H
	DD	24					; 00000018H
	DD	$LN225@UpdateArch
	DD	-1412					; fffffa7cH
	DD	48					; 00000030H
	DD	$LN226@UpdateArch
	DD	-1432					; fffffa68H
	DD	12					; 0000000cH
	DD	$LN227@UpdateArch
	DD	-1464					; fffffa48H
	DD	24					; 00000018H
	DD	$LN228@UpdateArch
	DD	-1484					; fffffa34H
	DD	12					; 0000000cH
	DD	$LN229@UpdateArch
	DD	-1504					; fffffa20H
	DD	12					; 0000000cH
	DD	$LN230@UpdateArch
	DD	-1528					; fffffa08H
	DD	12					; 0000000cH
	DD	$LN231@UpdateArch
	DD	-1544					; fffff9f8H
	DD	8
	DD	$LN232@UpdateArch
	DD	-1568					; fffff9e0H
	DD	12					; 0000000cH
	DD	$LN233@UpdateArch
$LN233@UpdateArch:
	DB	112					; 00000070H
	DB	104					; 00000068H
	DB	121					; 00000079H
	DB	80					; 00000050H
	DB	97					; 00000061H
	DB	116					; 00000074H
	DB	104					; 00000068H
	DB	0
$LN232@UpdateArch:
	DB	112					; 00000070H
	DB	97					; 00000061H
	DB	105					; 00000069H
	DB	114					; 00000072H
	DB	0
$LN231@UpdateArch:
	DB	112					; 00000070H
	DB	104					; 00000068H
	DB	121					; 00000079H
	DB	80					; 00000050H
	DB	97					; 00000061H
	DB	116					; 00000074H
	DB	104					; 00000068H
	DB	0
$LN230@UpdateArch:
	DB	102					; 00000066H
	DB	111					; 0000006fH
	DB	108					; 0000006cH
	DB	100					; 00000064H
	DB	101					; 00000065H
	DB	114					; 00000072H
	DB	115					; 00000073H
	DB	78					; 0000004eH
	DB	97					; 00000061H
	DB	109					; 0000006dH
	DB	101					; 00000065H
	DB	115					; 00000073H
	DB	0
$LN229@UpdateArch:
	DB	112					; 00000070H
	DB	97					; 00000061H
	DB	105					; 00000069H
	DB	114					; 00000072H
	DB	115					; 00000073H
	DB	0
