; Listing generated by Microsoft (R) Optimizing Compiler Version 18.00.31101.0 

	TITLE	C:\workspace\notepad-plus-plus-6.7.9.2\PowerEditor\src\uchardet\nsMBCSSM.cpp
	.686P
	.XMM
	include listing.inc
	.model	flat

INCLUDELIB LIBCMTD
INCLUDELIB OLDNAMES

CONST	SEGMENT
_EUCJP_st DD	011105343H
	DD	022221111H
	DD	011101022H
	DD	013111011H
	DD	01113H
_EUCJPCharLenTable DD 02H
	DD	02H
	DD	02H
	DD	03H
	DD	01H
	DD	00H
_SJIS_st DD	011113001H
	DD	022221111H
	DD	01122H
$SG3214	DB	'EUC-JP', 00H
	ORG $+1
_EUCKR_cls DD	011111111H
	DD	0111111H
	DD	011111111H
	DD	011110111H
	DD	011111111H
	DD	011111111H
	DD	011111111H
	DD	011111111H
	DD	011111111H
	DD	011111111H
	DD	011111111H
	DD	011111111H
	DD	011111111H
	DD	011111111H
	DD	011111111H
	DD	011111111H
	DD	00H
	DD	00H
	DD	00H
	DD	00H
	DD	022222220H
	DD	033322222H
	DD	022222222H
	DD	022222222H
	DD	022222222H
	DD	022222232H
	DD	022222222H
	DD	022222222H
	DD	022222222H
	DD	022222222H
	DD	022222222H
	DD	02222222H
_SJISCharLenTable DD 00H
	DD	01H
	DD	01H
	DD	02H
	DD	00H
	DD	00H
$SG4265	DB	'Shift_JIS', 00H
	ORG $+6
_UTF8_cls DD	011111111H
	DD	0111111H
	DD	011111111H
	DD	011110111H
	DD	011111111H
	DD	011111111H
	DD	011111111H
	DD	011111111H
	DD	011111111H
	DD	011111111H
	DD	011111111H
	DD	011111111H
	DD	011111111H
	DD	011111111H
	DD	011111111H
	DD	011111111H
	DD	033332222H
	DD	044444444H
	DD	044444444H
	DD	044444444H
	DD	055555555H
	DD	055555555H
	DD	055555555H
	DD	055555555H
	DD	066666600H
	DD	066666666H
	DD	066666666H
	DD	066666666H
	DD	088888887H
	DD	088988888H
	DD	0bbbbbbbaH
	DD	0fedddcH
_EUCKR_st DD	011111301H
	DD	0112222H
_EUCKRCharLenTable DD 00H
	DD	01H
	DD	02H
	DD	00H
$SG3461	DB	'EUC-KR', 00H
	ORG $+1
_EUCTW_cls DD	022222222H
	DD	0222222H
	DD	022222222H
	DD	022220222H
	DD	022222222H
	DD	022222222H
	DD	022222222H
	DD	022222222H
	DD	022222222H
	DD	022222222H
	DD	022222222H
	DD	022222222H
	DD	022222222H
	DD	022222222H
	DD	022222222H
	DD	022222222H
	DD	00H
	DD	06000000H
	DD	00H
	DD	00H
	DD	044444430H
	DD	011111155H
	DD	011111111H
	DD	011111111H
	DD	033331311H
	DD	033333333H
	DD	033333333H
	DD	033333333H
	DD	033333333H
	DD	033333333H
	DD	033333333H
	DD	03333333H
_UTF8_st DD	0ac111101H
	DD	0345678b9H
	DD	011111111H
	DD	011111111H
	DD	022222222H
	DD	022222222H
	DD	011555511H
	DD	011111111H
	DD	011555111H
	DD	011111111H
	DD	011777711H
	DD	011111111H
	DD	011771111H
	DD	011111111H
	DD	011999911H
	DD	011111111H
	DD	011911111H
	DD	011111111H
	DD	011cccc11H
	DD	011111111H
	DD	011c11111H
	DD	011111111H
	DD	0111ccc11H
	DD	011111111H
	DD	011000011H
	DD	011111111H
_UTF8CharLenTable DD 00H
	DD	01H
	DD	00H
	DD	00H
	DD	00H
	DD	00H
	DD	02H
	DD	03H
	DD	03H
	DD	03H
	DD	04H
	DD	04H
	DD	05H
	DD	05H
	DD	06H
	DD	06H
$SG4680	DB	'UTF-8', 00H
	ORG $+2
_EUCTW_st DD	014333011H
	DD	022111111H
	DD	010122222H
	DD	011111000H
	DD	0101115H
	DD	010H
_BIG5_cls DD	011111111H
	DD	0111111H
	DD	011111111H
	DD	011110111H
	DD	011111111H
	DD	011111111H
	DD	011111111H
	DD	011111111H
	DD	022222222H
	DD	022222222H
	DD	022222222H
	DD	022222222H
	DD	022222222H
	DD	022222222H
	DD	022222222H
	DD	012222222H
	DD	044444444H
	DD	044444444H
	DD	044444444H
	DD	044444444H
	DD	033333334H
	DD	033333333H
	DD	033333333H
	DD	033333333H
	DD	033333333H
	DD	033333333H
	DD	033333333H
	DD	033333333H
	DD	033333333H
	DD	033333333H
	DD	033333333H
	DD	03333333H
_EUCTWCharLenTable DD 00H
	DD	00H
	DD	01H
	DD	02H
	DD	02H
	DD	02H
	DD	03H
$SG3736	DB	'x-euc-tw', 00H
	ORG $+3
_GB18030_cls DD	011111111H
	DD	0111111H
	DD	011111111H
	DD	011110111H
	DD	011111111H
	DD	011111111H
	DD	033333333H
	DD	011111133H
	DD	022222222H
	DD	022222222H
	DD	022222222H
	DD	022222222H
	DD	022222222H
	DD	022222222H
	DD	022222222H
	DD	042222222H
	DD	066666665H
	DD	066666666H
	DD	066666666H
	DD	066666666H
	DD	066666666H
	DD	066666666H
	DD	066666666H
	DD	066666666H
	DD	066666666H
	DD	066666666H
	DD	066666666H
	DD	066666666H
	DD	066666666H
	DD	066666666H
	DD	066666666H
	DD	06666666H
_BIG5_st DD	011113001H
	DD	012222211H
	DD	01H
_Big5CharLenTable DD 00H
	DD	01H
	DD	01H
	DD	02H
	DD	00H
$SG2922	DB	'Big5', 00H
	ORG $+3
_GB18030_st DD	013000001H
	DD	022111111H
	DD	01122222H
	DD	011110014H
	DD	012111511H
	DD	011H
_EUCJP_cls DD	044444444H
	DD	055444444H
	DD	044444444H
	DD	044445444H
	DD	044444444H
	DD	044444444H
	DD	044444444H
	DD	044444444H
	DD	044444444H
	DD	044444444H
	DD	044444444H
	DD	044444444H
	DD	044444444H
	DD	044444444H
	DD	044444444H
	DD	044444444H
	DD	055555555H
	DD	031555555H
	DD	055555555H
	DD	055555555H
	DD	022222225H
	DD	022222222H
	DD	022222222H
	DD	022222222H
	DD	022222222H
	DD	022222222H
	DD	022222222H
	DD	022222222H
	DD	00H
	DD	00H
	DD	00H
	DD	050000000H
_GB18030CharLenTable DD 00H
	DD	01H
	DD	01H
	DD	01H
	DD	01H
	DD	01H
	DD	02H
$SG4011	DB	'GB18030', 00H
	ORG $+4
_SJIS_cls DD	011111111H
	DD	0111111H
	DD	011111111H
	DD	011110111H
	DD	011111111H
	DD	011111111H
	DD	011111111H
	DD	011111111H
	DD	022222222H
	DD	022222222H
	DD	022222222H
	DD	022222222H
	DD	022222222H
	DD	022222222H
	DD	022222222H
	DD	012222222H
	DD	033333333H
	DD	033333333H
	DD	033333333H
	DD	033333333H
	DD	022222222H
	DD	022222222H
	DD	022222222H
	DD	022222222H
	DD	022222222H
	DD	022222222H
	DD	022222222H
	DD	022222222H
	DD	033333333H
	DD	044433333H
	DD	044444444H
	DD	044444H
CONST	ENDS
PUBLIC	??0nsPkgInt@@QAE@W4nsIdxSft@@W4nsSftMsk@@W4nsBitSft@@W4nsUnitMsk@@QBI@Z ; nsPkgInt::nsPkgInt
PUBLIC	??0SMModel@@QAE@UnsPkgInt@@I0PBIPBD@Z		; SMModel::SMModel
PUBLIC	?UTF8SMModel@@3USMModel@@B			; UTF8SMModel
PUBLIC	?Big5SMModel@@3USMModel@@B			; Big5SMModel
PUBLIC	?EUCJPSMModel@@3USMModel@@B			; EUCJPSMModel
PUBLIC	?EUCKRSMModel@@3USMModel@@B			; EUCKRSMModel
PUBLIC	?EUCTWSMModel@@3USMModel@@B			; EUCTWSMModel
PUBLIC	?GB18030SMModel@@3USMModel@@B			; GB18030SMModel
PUBLIC	?SJISSMModel@@3USMModel@@B			; SJISSMModel
_BSS	SEGMENT
?UTF8SMModel@@3USMModel@@B DB 034H DUP (?)		; UTF8SMModel
?Big5SMModel@@3USMModel@@B DB 034H DUP (?)		; Big5SMModel
?EUCJPSMModel@@3USMModel@@B DB 034H DUP (?)		; EUCJPSMModel
?EUCKRSMModel@@3USMModel@@B DB 034H DUP (?)		; EUCKRSMModel
?EUCTWSMModel@@3USMModel@@B DB 034H DUP (?)		; EUCTWSMModel
?GB18030SMModel@@3USMModel@@B DB 034H DUP (?)		; GB18030SMModel
?SJISSMModel@@3USMModel@@B DB 034H DUP (?)		; SJISSMModel
_BSS	ENDS
CRT$XCU	SEGMENT
_Big5SMModel$initializer$ DD FLAT:??__EBig5SMModel@@YAXXZ
CRT$XCU	ENDS
CRT$XCU	SEGMENT
_EUCJPSMModel$initializer$ DD FLAT:??__EEUCJPSMModel@@YAXXZ
CRT$XCU	ENDS
CRT$XCU	SEGMENT
_EUCKRSMModel$initializer$ DD FLAT:??__EEUCKRSMModel@@YAXXZ
CRT$XCU	ENDS
CRT$XCU	SEGMENT
_EUCTWSMModel$initializer$ DD FLAT:??__EEUCTWSMModel@@YAXXZ
CRT$XCU	ENDS
CRT$XCU	SEGMENT
_GB18030SMModel$initializer$ DD FLAT:??__EGB18030SMModel@@YAXXZ
CRT$XCU	ENDS
CRT$XCU	SEGMENT
_SJISSMModel$initializer$ DD FLAT:??__ESJISSMModel@@YAXXZ
CRT$XCU	ENDS
CRT$XCU	SEGMENT
_UTF8SMModel$initializer$ DD FLAT:??__EUTF8SMModel@@YAXXZ
CRT$XCU	ENDS
; Function compile flags: /Odtp
;	COMDAT ??__EUTF8SMModel@@YAXXZ
text$di	SEGMENT
$T1 = -40						; size = 20
$T2 = -20						; size = 20
??__EUTF8SMModel@@YAXXZ PROC				; `dynamic initializer for 'UTF8SMModel'', COMDAT
; File c:\workspace\notepad-plus-plus-6.7.9.2\powereditor\src\uchardet\nsmbcssm.cpp
; Line 506
	push	ebp
	mov	ebp, esp
	sub	esp, 40					; 00000028H
	push	OFFSET $SG4680
	push	OFFSET _UTF8CharLenTable
	push	OFFSET _UTF8_st
	push	15					; 0000000fH
	push	2
	push	7
	push	3
	lea	ecx, DWORD PTR $T2[ebp]
	call	??0nsPkgInt@@QAE@W4nsIdxSft@@W4nsSftMsk@@W4nsBitSft@@W4nsUnitMsk@@QBI@Z ; nsPkgInt::nsPkgInt
	sub	esp, 20					; 00000014H
	mov	ecx, esp
	mov	edx, DWORD PTR [eax]
	mov	DWORD PTR [ecx], edx
	mov	edx, DWORD PTR [eax+4]
	mov	DWORD PTR [ecx+4], edx
	mov	edx, DWORD PTR [eax+8]
	mov	DWORD PTR [ecx+8], edx
	mov	edx, DWORD PTR [eax+12]
	mov	DWORD PTR [ecx+12], edx
	mov	eax, DWORD PTR [eax+16]
	mov	DWORD PTR [ecx+16], eax
	push	16					; 00000010H
	push	OFFSET _UTF8_cls
	push	15					; 0000000fH
	push	2
	push	7
	push	3
	lea	ecx, DWORD PTR $T1[ebp]
	call	??0nsPkgInt@@QAE@W4nsIdxSft@@W4nsSftMsk@@W4nsBitSft@@W4nsUnitMsk@@QBI@Z ; nsPkgInt::nsPkgInt
	sub	esp, 20					; 00000014H
	mov	ecx, esp
	mov	edx, DWORD PTR [eax]
	mov	DWORD PTR [ecx], edx
	mov	edx, DWORD PTR [eax+4]
	mov	DWORD PTR [ecx+4], edx
	mov	edx, DWORD PTR [eax+8]
	mov	DWORD PTR [ecx+8], edx
	mov	edx, DWORD PTR [eax+12]
	mov	DWORD PTR [ecx+12], edx
	mov	eax, DWORD PTR [eax+16]
	mov	DWORD PTR [ecx+16], eax
	mov	ecx, OFFSET ?UTF8SMModel@@3USMModel@@B	; UTF8SMModel
	call	??0SMModel@@QAE@UnsPkgInt@@I0PBIPBD@Z	; SMModel::SMModel
	mov	esp, ebp
	pop	ebp
	ret	0
??__EUTF8SMModel@@YAXXZ ENDP				; `dynamic initializer for 'UTF8SMModel''
text$di	ENDS
; Function compile flags: /Odtp
;	COMDAT ??__ESJISSMModel@@YAXXZ
text$di	SEGMENT
$T1 = -40						; size = 20
$T2 = -20						; size = 20
??__ESJISSMModel@@YAXXZ PROC				; `dynamic initializer for 'SJISSMModel'', COMDAT
; File c:\workspace\notepad-plus-plus-6.7.9.2\powereditor\src\uchardet\nsmbcssm.cpp
; Line 429
	push	ebp
	mov	ebp, esp
	sub	esp, 40					; 00000028H
	push	OFFSET $SG4265
	push	OFFSET _SJISCharLenTable
	push	OFFSET _SJIS_st
	push	15					; 0000000fH
	push	2
	push	7
	push	3
	lea	ecx, DWORD PTR $T2[ebp]
	call	??0nsPkgInt@@QAE@W4nsIdxSft@@W4nsSftMsk@@W4nsBitSft@@W4nsUnitMsk@@QBI@Z ; nsPkgInt::nsPkgInt
	sub	esp, 20					; 00000014H
	mov	ecx, esp
	mov	edx, DWORD PTR [eax]
	mov	DWORD PTR [ecx], edx
	mov	edx, DWORD PTR [eax+4]
	mov	DWORD PTR [ecx+4], edx
	mov	edx, DWORD PTR [eax+8]
	mov	DWORD PTR [ecx+8], edx
	mov	edx, DWORD PTR [eax+12]
	mov	DWORD PTR [ecx+12], edx
	mov	eax, DWORD PTR [eax+16]
	mov	DWORD PTR [ecx+16], eax
	push	6
	push	OFFSET _SJIS_cls
	push	15					; 0000000fH
	push	2
	push	7
	push	3
	lea	ecx, DWORD PTR $T1[ebp]
	call	??0nsPkgInt@@QAE@W4nsIdxSft@@W4nsSftMsk@@W4nsBitSft@@W4nsUnitMsk@@QBI@Z ; nsPkgInt::nsPkgInt
	sub	esp, 20					; 00000014H
	mov	ecx, esp
	mov	edx, DWORD PTR [eax]
	mov	DWORD PTR [ecx], edx
	mov	edx, DWORD PTR [eax+4]
	mov	DWORD PTR [ecx+4], edx
	mov	edx, DWORD PTR [eax+8]
	mov	DWORD PTR [ecx+8], edx
	mov	edx, DWORD PTR [eax+12]
	mov	DWORD PTR [ecx+12], edx
	mov	eax, DWORD PTR [eax+16]
	mov	DWORD PTR [ecx+16], eax
	mov	ecx, OFFSET ?SJISSMModel@@3USMModel@@B	; SJISSMModel
	call	??0SMModel@@QAE@UnsPkgInt@@I0PBIPBD@Z	; SMModel::SMModel
	mov	esp, ebp
	pop	ebp
	ret	0
??__ESJISSMModel@@YAXXZ ENDP				; `dynamic initializer for 'SJISSMModel''
text$di	ENDS
; Function compile flags: /Odtp
;	COMDAT ??__EGB18030SMModel@@YAXXZ
text$di	SEGMENT
$T1 = -40						; size = 20
$T2 = -20						; size = 20
??__EGB18030SMModel@@YAXXZ PROC				; `dynamic initializer for 'GB18030SMModel'', COMDAT
; File c:\workspace\notepad-plus-plus-6.7.9.2\powereditor\src\uchardet\nsmbcssm.cpp
; Line 373
	push	ebp
	mov	ebp, esp
	sub	esp, 40					; 00000028H
	push	OFFSET $SG4011
	push	OFFSET _GB18030CharLenTable
	push	OFFSET _GB18030_st
	push	15					; 0000000fH
	push	2
	push	7
	push	3
	lea	ecx, DWORD PTR $T2[ebp]
	call	??0nsPkgInt@@QAE@W4nsIdxSft@@W4nsSftMsk@@W4nsBitSft@@W4nsUnitMsk@@QBI@Z ; nsPkgInt::nsPkgInt
	sub	esp, 20					; 00000014H
	mov	ecx, esp
	mov	edx, DWORD PTR [eax]
	mov	DWORD PTR [ecx], edx
	mov	edx, DWORD PTR [eax+4]
	mov	DWORD PTR [ecx+4], edx
	mov	edx, DWORD PTR [eax+8]
	mov	DWORD PTR [ecx+8], edx
	mov	edx, DWORD PTR [eax+12]
	mov	DWORD PTR [ecx+12], edx
	mov	eax, DWORD PTR [eax+16]
	mov	DWORD PTR [ecx+16], eax
	push	7
	push	OFFSET _GB18030_cls
	push	15					; 0000000fH
	push	2
	push	7
	push	3
	lea	ecx, DWORD PTR $T1[ebp]
	call	??0nsPkgInt@@QAE@W4nsIdxSft@@W4nsSftMsk@@W4nsBitSft@@W4nsUnitMsk@@QBI@Z ; nsPkgInt::nsPkgInt
	sub	esp, 20					; 00000014H
	mov	ecx, esp
	mov	edx, DWORD PTR [eax]
	mov	DWORD PTR [ecx], edx
	mov	edx, DWORD PTR [eax+4]
	mov	DWORD PTR [ecx+4], edx
	mov	edx, DWORD PTR [eax+8]
	mov	DWORD PTR [ecx+8], edx
	mov	edx, DWORD PTR [eax+12]
	mov	DWORD PTR [ecx+12], edx
	mov	eax, DWORD PTR [eax+16]
	mov	DWORD PTR [ecx+16], eax
	mov	ecx, OFFSET ?GB18030SMModel@@3USMModel@@B ; GB18030SMModel
	call	??0SMModel@@QAE@UnsPkgInt@@I0PBIPBD@Z	; SMModel::SMModel
	mov	esp, ebp
	pop	ebp
	ret	0
??__EGB18030SMModel@@YAXXZ ENDP				; `dynamic initializer for 'GB18030SMModel''
text$di	ENDS
; Function compile flags: /Odtp
;	COMDAT ??__EEUCTWSMModel@@YAXXZ
text$di	SEGMENT
$T1 = -40						; size = 20
$T2 = -20						; size = 20
??__EEUCTWSMModel@@YAXXZ PROC				; `dynamic initializer for 'EUCTWSMModel'', COMDAT
; File c:\workspace\notepad-plus-plus-6.7.9.2\powereditor\src\uchardet\nsmbcssm.cpp
; Line 258
	push	ebp
	mov	ebp, esp
	sub	esp, 40					; 00000028H
	push	OFFSET $SG3736
	push	OFFSET _EUCTWCharLenTable
	push	OFFSET _EUCTW_st
	push	15					; 0000000fH
	push	2
	push	7
	push	3
	lea	ecx, DWORD PTR $T2[ebp]
	call	??0nsPkgInt@@QAE@W4nsIdxSft@@W4nsSftMsk@@W4nsBitSft@@W4nsUnitMsk@@QBI@Z ; nsPkgInt::nsPkgInt
	sub	esp, 20					; 00000014H
	mov	ecx, esp
	mov	edx, DWORD PTR [eax]
	mov	DWORD PTR [ecx], edx
	mov	edx, DWORD PTR [eax+4]
	mov	DWORD PTR [ecx+4], edx
	mov	edx, DWORD PTR [eax+8]
	mov	DWORD PTR [ecx+8], edx
	mov	edx, DWORD PTR [eax+12]
	mov	DWORD PTR [ecx+12], edx
	mov	eax, DWORD PTR [eax+16]
	mov	DWORD PTR [ecx+16], eax
	push	7
	push	OFFSET _EUCTW_cls
	push	15					; 0000000fH
	push	2
	push	7
	push	3
	lea	ecx, DWORD PTR $T1[ebp]
	call	??0nsPkgInt@@QAE@W4nsIdxSft@@W4nsSftMsk@@W4nsBitSft@@W4nsUnitMsk@@QBI@Z ; nsPkgInt::nsPkgInt
	sub	esp, 20					; 00000014H
	mov	ecx, esp
	mov	edx, DWORD PTR [eax]
	mov	DWORD PTR [ecx], edx
	mov	edx, DWORD PTR [eax+4]
	mov	DWORD PTR [ecx+4], edx
	mov	edx, DWORD PTR [eax+8]
	mov	DWORD PTR [ecx+8], edx
	mov	edx, DWORD PTR [eax+12]
	mov	DWORD PTR [ecx+12], edx
	mov	eax, DWORD PTR [eax+16]
	mov	DWORD PTR [ecx+16], eax
	mov	ecx, OFFSET ?EUCTWSMModel@@3USMModel@@B	; EUCTWSMModel
	call	??0SMModel@@QAE@UnsPkgInt@@I0PBIPBD@Z	; SMModel::SMModel
	mov	esp, ebp
	pop	ebp
	ret	0
??__EEUCTWSMModel@@YAXXZ ENDP				; `dynamic initializer for 'EUCTWSMModel''
text$di	ENDS
; Function compile flags: /Odtp
;	COMDAT ??__EEUCKRSMModel@@YAXXZ
text$di	SEGMENT
$T1 = -40						; size = 20
$T2 = -20						; size = 20
??__EEUCKRSMModel@@YAXXZ PROC				; `dynamic initializer for 'EUCKRSMModel'', COMDAT
; File c:\workspace\notepad-plus-plus-6.7.9.2\powereditor\src\uchardet\nsmbcssm.cpp
; Line 203
	push	ebp
	mov	ebp, esp
	sub	esp, 40					; 00000028H
	push	OFFSET $SG3461
	push	OFFSET _EUCKRCharLenTable
	push	OFFSET _EUCKR_st
	push	15					; 0000000fH
	push	2
	push	7
	push	3
	lea	ecx, DWORD PTR $T2[ebp]
	call	??0nsPkgInt@@QAE@W4nsIdxSft@@W4nsSftMsk@@W4nsBitSft@@W4nsUnitMsk@@QBI@Z ; nsPkgInt::nsPkgInt
	sub	esp, 20					; 00000014H
	mov	ecx, esp
	mov	edx, DWORD PTR [eax]
	mov	DWORD PTR [ecx], edx
	mov	edx, DWORD PTR [eax+4]
	mov	DWORD PTR [ecx+4], edx
	mov	edx, DWORD PTR [eax+8]
	mov	DWORD PTR [ecx+8], edx
	mov	edx, DWORD PTR [eax+12]
	mov	DWORD PTR [ecx+12], edx
	mov	eax, DWORD PTR [eax+16]
	mov	DWORD PTR [ecx+16], eax
	push	4
	push	OFFSET _EUCKR_cls
	push	15					; 0000000fH
	push	2
	push	7
	push	3
	lea	ecx, DWORD PTR $T1[ebp]
	call	??0nsPkgInt@@QAE@W4nsIdxSft@@W4nsSftMsk@@W4nsBitSft@@W4nsUnitMsk@@QBI@Z ; nsPkgInt::nsPkgInt
	sub	esp, 20					; 00000014H
	mov	ecx, esp
	mov	edx, DWORD PTR [eax]
	mov	DWORD PTR [ecx], edx
	mov	edx, DWORD PTR [eax+4]
	mov	DWORD PTR [ecx+4], edx
	mov	edx, DWORD PTR [eax+8]
	mov	DWORD PTR [ecx+8], edx
	mov	edx, DWORD PTR [eax+12]
	mov	DWORD PTR [ecx+12], edx
	mov	eax, DWORD PTR [eax+16]
	mov	DWORD PTR [ecx+16], eax
	mov	ecx, OFFSET ?EUCKRSMModel@@3USMModel@@B	; EUCKRSMModel
	call	??0SMModel@@QAE@UnsPkgInt@@I0PBIPBD@Z	; SMModel::SMModel
	mov	esp, ebp
	pop	ebp
	ret	0
??__EEUCKRSMModel@@YAXXZ ENDP				; `dynamic initializer for 'EUCKRSMModel''
text$di	ENDS
; Function compile flags: /Odtp
;	COMDAT ??__EEUCJPSMModel@@YAXXZ
text$di	SEGMENT
$T1 = -40						; size = 20
$T2 = -20						; size = 20
??__EEUCJPSMModel@@YAXXZ PROC				; `dynamic initializer for 'EUCJPSMModel'', COMDAT
; File c:\workspace\notepad-plus-plus-6.7.9.2\powereditor\src\uchardet\nsmbcssm.cpp
; Line 152
	push	ebp
	mov	ebp, esp
	sub	esp, 40					; 00000028H
	push	OFFSET $SG3214
	push	OFFSET _EUCJPCharLenTable
	push	OFFSET _EUCJP_st
	push	15					; 0000000fH
	push	2
	push	7
	push	3
	lea	ecx, DWORD PTR $T2[ebp]
	call	??0nsPkgInt@@QAE@W4nsIdxSft@@W4nsSftMsk@@W4nsBitSft@@W4nsUnitMsk@@QBI@Z ; nsPkgInt::nsPkgInt
	sub	esp, 20					; 00000014H
	mov	ecx, esp
	mov	edx, DWORD PTR [eax]
	mov	DWORD PTR [ecx], edx
	mov	edx, DWORD PTR [eax+4]
	mov	DWORD PTR [ecx+4], edx
	mov	edx, DWORD PTR [eax+8]
	mov	DWORD PTR [ecx+8], edx
	mov	edx, DWORD PTR [eax+12]
	mov	DWORD PTR [ecx+12], edx
	mov	eax, DWORD PTR [eax+16]
	mov	DWORD PTR [ecx+16], eax
	push	6
	push	OFFSET _EUCJP_cls
	push	15					; 0000000fH
	push	2
	push	7
	push	3
	lea	ecx, DWORD PTR $T1[ebp]
	call	??0nsPkgInt@@QAE@W4nsIdxSft@@W4nsSftMsk@@W4nsBitSft@@W4nsUnitMsk@@QBI@Z ; nsPkgInt::nsPkgInt
	sub	esp, 20					; 00000014H
	mov	ecx, esp
	mov	edx, DWORD PTR [eax]
	mov	DWORD PTR [ecx], edx
	mov	edx, DWORD PTR [eax+4]
	mov	DWORD PTR [ecx+4], edx
	mov	edx, DWORD PTR [eax+8]
	mov	DWORD PTR [ecx+8], edx
	mov	edx, DWORD PTR [eax+12]
	mov	DWORD PTR [ecx+12], edx
	mov	eax, DWORD PTR [eax+16]
	mov	DWORD PTR [ecx+16], eax
	mov	ecx, OFFSET ?EUCJPSMModel@@3USMModel@@B	; EUCJPSMModel
	call	??0SMModel@@QAE@UnsPkgInt@@I0PBIPBD@Z	; SMModel::SMModel
	mov	esp, ebp
	pop	ebp
	ret	0
??__EEUCJPSMModel@@YAXXZ ENDP				; `dynamic initializer for 'EUCJPSMModel''
text$di	ENDS
; Function compile flags: /Odtp
;	COMDAT ??__EBig5SMModel@@YAXXZ
text$di	SEGMENT
$T1 = -40						; size = 20
$T2 = -20						; size = 20
??__EBig5SMModel@@YAXXZ PROC				; `dynamic initializer for 'Big5SMModel'', COMDAT
; File c:\workspace\notepad-plus-plus-6.7.9.2\powereditor\src\uchardet\nsmbcssm.cpp
; Line 98
	push	ebp
	mov	ebp, esp
	sub	esp, 40					; 00000028H
	push	OFFSET $SG2922
	push	OFFSET _Big5CharLenTable
	push	OFFSET _BIG5_st
	push	15					; 0000000fH
	push	2
	push	7
	push	3
	lea	ecx, DWORD PTR $T2[ebp]
	call	??0nsPkgInt@@QAE@W4nsIdxSft@@W4nsSftMsk@@W4nsBitSft@@W4nsUnitMsk@@QBI@Z ; nsPkgInt::nsPkgInt
	sub	esp, 20					; 00000014H
	mov	ecx, esp
	mov	edx, DWORD PTR [eax]
	mov	DWORD PTR [ecx], edx
	mov	edx, DWORD PTR [eax+4]
	mov	DWORD PTR [ecx+4], edx
	mov	edx, DWORD PTR [eax+8]
	mov	DWORD PTR [ecx+8], edx
	mov	edx, DWORD PTR [eax+12]
	mov	DWORD PTR [ecx+12], edx
	mov	eax, DWORD PTR [eax+16]
	mov	DWORD PTR [ecx+16], eax
	push	5
	push	OFFSET _BIG5_cls
	push	15					; 0000000fH
	push	2
	push	7
	push	3
	lea	ecx, DWORD PTR $T1[ebp]
	call	??0nsPkgInt@@QAE@W4nsIdxSft@@W4nsSftMsk@@W4nsBitSft@@W4nsUnitMsk@@QBI@Z ; nsPkgInt::nsPkgInt
	sub	esp, 20					; 00000014H
	mov	ecx, esp
	mov	edx, DWORD PTR [eax]
	mov	DWORD PTR [ecx], edx
	mov	edx, DWORD PTR [eax+4]
	mov	DWORD PTR [ecx+4], edx
	mov	edx, DWORD PTR [eax+8]
	mov	DWORD PTR [ecx+8], edx
	mov	edx, DWORD PTR [eax+12]
	mov	DWORD PTR [ecx+12], edx
	mov	eax, DWORD PTR [eax+16]
	mov	DWORD PTR [ecx+16], eax
	mov	ecx, OFFSET ?Big5SMModel@@3USMModel@@B	; Big5SMModel
	call	??0SMModel@@QAE@UnsPkgInt@@I0PBIPBD@Z	; SMModel::SMModel
	mov	esp, ebp
	pop	ebp
	ret	0
??__EBig5SMModel@@YAXXZ ENDP				; `dynamic initializer for 'Big5SMModel''
text$di	ENDS
; Function compile flags: /Odtp
;	COMDAT ??0SMModel@@QAE@UnsPkgInt@@I0PBIPBD@Z
_TEXT	SEGMENT
_this$ = -4						; size = 4
_a$ = 8							; size = 20
_b$ = 28						; size = 4
_c$ = 32						; size = 20
_d$ = 52						; size = 4
_e$ = 56						; size = 4
??0SMModel@@QAE@UnsPkgInt@@I0PBIPBD@Z PROC		; SMModel::SMModel, COMDAT
; _this$ = ecx
; File c:\workspace\notepad-plus-plus-6.7.9.2\powereditor\src\uchardet\nscodingstatemachine.h
; Line 60
	push	ebp
	mov	ebp, esp
	push	ecx
	mov	DWORD PTR _this$[ebp], ecx
	mov	eax, DWORD PTR _this$[ebp]
	mov	ecx, DWORD PTR _a$[ebp]
	mov	DWORD PTR [eax], ecx
	mov	edx, DWORD PTR _a$[ebp+4]
	mov	DWORD PTR [eax+4], edx
	mov	ecx, DWORD PTR _a$[ebp+8]
	mov	DWORD PTR [eax+8], ecx
	mov	edx, DWORD PTR _a$[ebp+12]
	mov	DWORD PTR [eax+12], edx
	mov	ecx, DWORD PTR _a$[ebp+16]
	mov	DWORD PTR [eax+16], ecx
	mov	edx, DWORD PTR _this$[ebp]
	mov	eax, DWORD PTR _b$[ebp]
	mov	DWORD PTR [edx+20], eax
	mov	ecx, DWORD PTR _this$[ebp]
	add	ecx, 24					; 00000018H
	mov	edx, DWORD PTR _c$[ebp]
	mov	DWORD PTR [ecx], edx
	mov	eax, DWORD PTR _c$[ebp+4]
	mov	DWORD PTR [ecx+4], eax
	mov	edx, DWORD PTR _c$[ebp+8]
	mov	DWORD PTR [ecx+8], edx
	mov	eax, DWORD PTR _c$[ebp+12]
	mov	DWORD PTR [ecx+12], eax
	mov	edx, DWORD PTR _c$[ebp+16]
	mov	DWORD PTR [ecx+16], edx
	mov	eax, DWORD PTR _this$[ebp]
	mov	ecx, DWORD PTR _d$[ebp]
	mov	DWORD PTR [eax+44], ecx
	mov	edx, DWORD PTR _this$[ebp]
	mov	eax, DWORD PTR _e$[ebp]
	mov	DWORD PTR [edx+48], eax
	mov	eax, DWORD PTR _this$[ebp]
	mov	esp, ebp
	pop	ebp
	ret	52					; 00000034H
??0SMModel@@QAE@UnsPkgInt@@I0PBIPBD@Z ENDP		; SMModel::SMModel
_TEXT	ENDS
; Function compile flags: /Odtp
;	COMDAT ??0nsPkgInt@@QAE@W4nsIdxSft@@W4nsSftMsk@@W4nsBitSft@@W4nsUnitMsk@@QBI@Z
_TEXT	SEGMENT
_this$ = -4						; size = 4
_a$ = 8							; size = 4
_b$ = 12						; size = 4
_c$ = 16						; size = 4
_d$ = 20						; size = 4
_e$ = 24						; size = 4
??0nsPkgInt@@QAE@W4nsIdxSft@@W4nsSftMsk@@W4nsBitSft@@W4nsUnitMsk@@QBI@Z PROC ; nsPkgInt::nsPkgInt, COMDAT
; _this$ = ecx
; File c:\workspace\notepad-plus-plus-6.7.9.2\powereditor\src\uchardet\nspkgint.h
; Line 72
	push	ebp
	mov	ebp, esp
	push	ecx
	mov	DWORD PTR _this$[ebp], ecx
	mov	eax, DWORD PTR _this$[ebp]
	mov	ecx, DWORD PTR _a$[ebp]
	mov	DWORD PTR [eax], ecx
	mov	edx, DWORD PTR _this$[ebp]
	mov	eax, DWORD PTR _b$[ebp]
	mov	DWORD PTR [edx+4], eax
	mov	ecx, DWORD PTR _this$[ebp]
	mov	edx, DWORD PTR _c$[ebp]
	mov	DWORD PTR [ecx+8], edx
	mov	eax, DWORD PTR _this$[ebp]
	mov	ecx, DWORD PTR _d$[ebp]
	mov	DWORD PTR [eax+12], ecx
	mov	edx, DWORD PTR _this$[ebp]
	mov	eax, DWORD PTR _e$[ebp]
	mov	DWORD PTR [edx+16], eax
	mov	eax, DWORD PTR _this$[ebp]
	mov	esp, ebp
	pop	ebp
	ret	20					; 00000014H
??0nsPkgInt@@QAE@W4nsIdxSft@@W4nsSftMsk@@W4nsBitSft@@W4nsUnitMsk@@QBI@Z ENDP ; nsPkgInt::nsPkgInt
_TEXT	ENDS
END
