; Listing generated by Microsoft (R) Optimizing Compiler Version 16.00.40219.01 

	TITLE	D:\mozilla\intl\icu\source\tools\gendict\gendict.cpp
	.686P
	.XMM
	include listing.inc
	.model	flat

INCLUDELIB MSVCRTD

PUBLIC	??_C@_05PMBAOCDH@quiet?$AA@			; `string'
PUBLIC	??_C@_09IFONHNKG@transform?$AA@			; `string'
PUBLIC	??_C@_05FBJAGGIG@bytes?$AA@			; `string'
PUBLIC	??_C@_06CLBMJIBI@uchars?$AA@			; `string'
PUBLIC	??_C@_09JHBDCMB@copyright?$AA@			; `string'
PUBLIC	??_C@_0L@JMMPKMPC@icudatadir?$AA@		; `string'
PUBLIC	??_C@_07KBAMPNJK@verbose?$AA@			; `string'
PUBLIC	??_C@_04PCJFHION@help?$AA@			; `string'
PUBLIC	?startTime@@3NA					; startTime
_BSS	SEGMENT
?startTime@@3NA DQ 01H DUP (?)				; startTime
_BSS	ENDS
_DATA	SEGMENT
_options DD	FLAT:??_C@_04PCJFHION@help?$AA@
	DD	00H
	DD	00H
	DD	00H
	DB	068H
	DB	00H
	DB	00H
	ORG $+1
	DD	FLAT:??_C@_04PCJFHION@help?$AA@
	DD	00H
	DD	00H
	DD	00H
	DB	03fH
	DB	00H
	DB	00H
	ORG $+1
	DD	FLAT:??_C@_07KBAMPNJK@verbose?$AA@
	DD	00H
	DD	00H
	DD	00H
	DB	076H
	DB	00H
	DB	00H
	ORG $+1
	DD	FLAT:??_C@_0L@JMMPKMPC@icudatadir?$AA@
	DD	00H
	DD	00H
	DD	00H
	DB	069H
	DB	01H
	DB	00H
	ORG $+1
	DD	FLAT:??_C@_09JHBDCMB@copyright?$AA@
	DD	00H
	DD	00H
	DD	00H
	DB	063H
	DB	00H
	DB	00H
	ORG $+1
	DD	FLAT:??_C@_06CLBMJIBI@uchars?$AA@
	DD	00H
	DD	00H
	DD	00H
	DB	01H
	DB	00H
	DB	00H
	ORG $+1
	DD	FLAT:??_C@_05FBJAGGIG@bytes?$AA@
	DD	00H
	DD	00H
	DD	00H
	DB	01H
	DB	00H
	DB	00H
	ORG $+1
	DD	FLAT:??_C@_09IFONHNKG@transform?$AA@
	DD	00H
	DD	00H
	DD	00H
	DB	01H
	DB	01H
	DB	00H
	ORG $+1
	DD	FLAT:??_C@_05PMBAOCDH@quiet?$AA@
	DD	00H
	DD	00H
	DD	00H
	DB	071H
	DB	00H
	DB	00H
	ORG $+1
_dataInfo DW	014H
	DW	00H
	DB	00H
	DB	00H
	DB	02H
	DB	00H
	DB	044H
	DB	069H
	DB	063H
	DB	074H
	DB	01H
	DB	00H
	DB	00H
	DB	00H
	DB	00H
	DB	00H
	DB	00H
	DB	00H
_DATA	ENDS
;	COMDAT ??_C@_05PMBAOCDH@quiet?$AA@
CONST	SEGMENT
??_C@_05PMBAOCDH@quiet?$AA@ DB 'quiet', 00H		; `string'
CONST	ENDS
;	COMDAT ??_C@_09IFONHNKG@transform?$AA@
CONST	SEGMENT
??_C@_09IFONHNKG@transform?$AA@ DB 'transform', 00H	; `string'
CONST	ENDS
;	COMDAT ??_C@_05FBJAGGIG@bytes?$AA@
CONST	SEGMENT
??_C@_05FBJAGGIG@bytes?$AA@ DB 'bytes', 00H		; `string'
CONST	ENDS
;	COMDAT ??_C@_06CLBMJIBI@uchars?$AA@
CONST	SEGMENT
??_C@_06CLBMJIBI@uchars?$AA@ DB 'uchars', 00H		; `string'
CONST	ENDS
;	COMDAT ??_C@_09JHBDCMB@copyright?$AA@
CONST	SEGMENT
??_C@_09JHBDCMB@copyright?$AA@ DB 'copyright', 00H	; `string'
CONST	ENDS
;	COMDAT ??_C@_0L@JMMPKMPC@icudatadir?$AA@
CONST	SEGMENT
??_C@_0L@JMMPKMPC@icudatadir?$AA@ DB 'icudatadir', 00H	; `string'
CONST	ENDS
;	COMDAT ??_C@_07KBAMPNJK@verbose?$AA@
CONST	SEGMENT
??_C@_07KBAMPNJK@verbose?$AA@ DB 'verbose', 00H		; `string'
CONST	ENDS
;	COMDAT ??_C@_04PCJFHION@help?$AA@
CONST	SEGMENT
??_C@_04PCJFHION@help?$AA@ DB 'help', 00H		; `string'
CONST	ENDS
PUBLIC	??1DataDict@@QAE@XZ				; DataDict::~DataDict
PUBLIC	??_C@_0BM@EIKMGPLI@?$CFs?3?5done?5writing?7?$CFs?5?$CI?$CFds?$CJ?4?6?$AA@ ; `string'
PUBLIC	??_C@_0CD@IEKCIACJ@Error?5writing?5to?5output?5file?5?$CC?$CFs@ ; `string'
PUBLIC	??_C@_0CN@HFEJBBAH@gendict?3?5error?5?$CC?$CFs?$CC?5writing?5the?5@ ; `string'
PUBLIC	?getTransform@DataDict@@QAEHXZ			; DataDict::getTransform
PUBLIC	??_C@_0BK@PHCFOODF@Writing?5to?5output?5file?4?4?4?$AA@ ; `string'
PUBLIC	??_C@_0DA@LKPPJNIH@gendict?3?5could?5not?5open?5output?5f@ ; `string'
PUBLIC	??_C@_0BH@EJAIIDKN@Opening?5output?5file?4?4?4?$AA@ ; `string'
PUBLIC	??_C@_0HN@LNAFHGH@gendict?3?5got?5failure?5of?5type?5?$CFs?5@ ; `string'
PUBLIC	?serializeUChars@DataDict@@QAEXAAVUnicodeString@icu_56@@AAW4UErrorCode@@@Z ; DataDict::serializeUChars
PUBLIC	?serializeBytes@DataDict@@QAE?AVStringPiece@icu_56@@AAW4UErrorCode@@@Z ; DataDict::serializeBytes
PUBLIC	??_C@_0CE@ICENJNHF@Serializing?5data?4?4?4isBytesTrie?$DP?5@ ; `string'
PUBLIC	??_C@_0DL@FNGKOPNH@warning?3?5file?5contained?5both?5val@ ; `string'
PUBLIC	??_C@_0DK@MENJFFHJ@Processed?5?$CFd?5lines?0?5added?5?$CFd?5wor@ ; `string'
PUBLIC	??_C@_0EL@PIKECADD@ICU?5Error?5?$CC?$CFs?$CC?3?5Failed?5to?5add?5wo@ ; `string'
PUBLIC	?addWord@DataDict@@QAEXABVUnicodeString@icu_56@@HAAW4UErrorCode@@@Z ; DataDict::addWord
PUBLIC	??_C@_0DK@EGLJDBAN@Error?3?5value?5syntax?5error?5or?5val@ ; `string'
PUBLIC	??_C@_0CD@FDBBOHPK@Error?3?5value?5too?5long?5on?5line?5?$CFi@ ; `string'
PUBLIC	??_C@_0BM@EKPFKGFP@Error?3?5no?5word?5on?5line?5?$CFi?$CB?6?$AA@ ; `string'
PUBLIC	??_C@_0BO@LELBGLKJ@Adding?5words?5to?5dictionary?4?4?4?$AA@ ; `string'
PUBLIC	?setTransform@DataDict@@QAEXPBD@Z		; DataDict::setTransform
PUBLIC	??_C@_0BO@EFNGAFKA@new?5DataDict?3?5ICU?5Error?5?$CC?$CFs?$CC?6?$AA@ ; `string'
PUBLIC	??0DataDict@@QAE@CAAW4UErrorCode@@@Z		; DataDict::DataDict
PUBLIC	??_C@_0CP@BNCOEFPB@Initializing?5dictionary?5builder?5@ ; `string'
PUBLIC	??_C@_0L@LGIONAHD@UCharsTrie?$AA@		; `string'
PUBLIC	??_C@_09PFDBNIIM@BytesTrie?$AA@			; `string'
PUBLIC	??_C@_0CK@FCIALHCO@error?5opening?5input?5file?3?5ICU?5Er@ ; `string'
PUBLIC	??_C@_05EGJIMALK@UTF?98?$AA@			; `string'
PUBLIC	??_C@_0BE@MPNGCDMF@Opening?5file?5?$CFs?4?4?4?6?$AA@ ; `string'
PUBLIC	??_C@_0P@KOHGMPLE@gendict?1main?$CI?$CJ?$AA@	; `string'
PUBLIC	??_C@_0GB@DGJJGBCD@you?5must?5provide?5a?5transformatio@ ; `string'
PUBLIC	??_C@_0DG@OKDAHDMA@you?5must?5specify?5exactly?5one?5typ@ ; `string'
PUBLIC	??_C@_0GD@IBBFEJOD@?5Copyright?5?$CIC?$CJ?52015?0?5Internation@ ; `string'
PUBLIC	??_C@_0CP@OLKHGAC@input?5and?5output?5file?5must?5both?5@ ; `string'
PUBLIC	??_C@_0CF@BGPNLJEE@error?5in?5command?5line?5argument?5?$CC@ ; `string'
PUBLIC	__$ArrayPad$
PUBLIC	_main
EXTRN	__imp_??1IcuToolErrorCode@icu_56@@UAE@XZ:PROC
EXTRN	_udata_finish:PROC
EXTRN	_udata_writeBlock:PROC
EXTRN	__imp_?TRIE_HAS_VALUES@DictionaryData@icu_56@@2HB:DWORD
EXTRN	__imp_?TRIE_TYPE_UCHARS@DictionaryData@icu_56@@2HB:DWORD
EXTRN	__imp_?TRIE_TYPE_BYTES@DictionaryData@icu_56@@2HB:DWORD
EXTRN	_udata_create:PROC
EXTRN	__imp_?getBuffer@UnicodeString@icu_56@@QBEPB_WXZ:PROC
EXTRN	__imp_?data@StringPiece@icu_56@@QBEPBDXZ:PROC
EXTRN	__imp_?size@StringPiece@icu_56@@QBEHXZ:PROC
EXTRN	__imp_?set@ErrorCode@icu_56@@QAEXW4UErrorCode@@@Z:PROC
EXTRN	__imp_?isSuccess@ErrorCode@icu_56@@QBECXZ:PROC
EXTRN	__imp_??1UnicodeString@icu_56@@UAE@XZ:PROC
EXTRN	__imp_?tempSubString@UnicodeString@icu_56@@QBE?AV12@HH@Z:PROC
EXTRN	_strlen:PROC
EXTRN	__imp__strtoul:PROC
EXTRN	__imp_?extract@UnicodeString@icu_56@@QBEHHHPADHW4EInvariant@12@@Z:PROC
EXTRN	_u_isspace_56:PROC
EXTRN	__imp_??AUnicodeString@icu_56@@QBE_WH@Z:PROC
EXTRN	__imp_?length@UnicodeString@icu_56@@QBEHXZ:PROC
EXTRN	__imp_?isEmpty@UnicodeString@icu_56@@QBECXZ:PROC
EXTRN	__imp__puts:PROC
EXTRN	__imp_??0UnicodeString@icu_56@@QAE@XZ:PROC
EXTRN	__imp_??BErrorCode@icu_56@@QAEAAW4UErrorCode@@XZ:PROC
EXTRN	__imp__exit:PROC
EXTRN	__imp_?reset@ErrorCode@icu_56@@QAE?AW4UErrorCode@@XZ:PROC
EXTRN	__imp_?errorName@ErrorCode@icu_56@@QBEPBDXZ:PROC
EXTRN	__imp_?isFailure@ErrorCode@icu_56@@QBECXZ:PROC
EXTRN	_ucbuf_open:PROC
EXTRN	__imp_??BErrorCode@icu_56@@QAEPAW4UErrorCode@@XZ:PROC
EXTRN	__imp__printf:PROC
EXTRN	__imp_??0IcuToolErrorCode@icu_56@@QAE@PBD@Z:PROC
EXTRN	_u_setDataDirectory_56:PROC
EXTRN	_uprv_getRawUTCtime_56:PROC
EXTRN	__imp__fprintf:PROC
EXTRN	__imp____iob_func:PROC
EXTRN	_u_parseArgs:PROC
EXTRN	___security_cookie:DWORD
EXTRN	___CxxFrameHandler3:PROC
EXTRN	__fltused:DWORD
EXTRN	@__security_check_cookie@4:PROC
EXTRN	@_RTC_CheckStackVars@8:PROC
EXTRN	__RTC_CheckEsp:PROC
EXTRN	__RTC_Shutdown:PROC
EXTRN	__RTC_InitBase:PROC
_BSS	SEGMENT
_progName DD	01H DUP (?)
_BSS	ENDS
;	COMDAT ??_C@_0BM@EIKMGPLI@?$CFs?3?5done?5writing?7?$CFs?5?$CI?$CFds?$CJ?4?6?$AA@
; File d:\mozilla\intl\icu\source\tools\gendict\gendict.cpp
CONST	SEGMENT
??_C@_0BM@EIKMGPLI@?$CFs?3?5done?5writing?7?$CFs?5?$CI?$CFds?$CJ?4?6?$AA@ DB '%'
	DB	's: done writing', 09H, '%s (%ds).', 0aH, 00H ; `string'
CONST	ENDS
;	COMDAT ??_C@_0CD@IEKCIACJ@Error?5writing?5to?5output?5file?5?$CC?$CFs@
CONST	SEGMENT
??_C@_0CD@IEKCIACJ@Error?5writing?5to?5output?5file?5?$CC?$CFs@ DB 'Error'
	DB	' writing to output file "%s"', 0aH, 00H	; `string'
CONST	ENDS
;	COMDAT ??_C@_0CN@HFEJBBAH@gendict?3?5error?5?$CC?$CFs?$CC?5writing?5the?5@
CONST	SEGMENT
??_C@_0CN@HFEJBBAH@gendict?3?5error?5?$CC?$CFs?$CC?5writing?5the?5@ DB 'g'
	DB	'endict: error "%s" writing the output file', 0aH, 00H ; `string'
CONST	ENDS
;	COMDAT ??_C@_0BK@PHCFOODF@Writing?5to?5output?5file?4?4?4?$AA@
CONST	SEGMENT
??_C@_0BK@PHCFOODF@Writing?5to?5output?5file?4?4?4?$AA@ DB 'Writing to ou'
	DB	'tput file...', 00H				; `string'
CONST	ENDS
;	COMDAT ??_C@_0DA@LKPPJNIH@gendict?3?5could?5not?5open?5output?5f@
CONST	SEGMENT
??_C@_0DA@LKPPJNIH@gendict?3?5could?5not?5open?5output?5f@ DB 'gendict: c'
	DB	'ould not open output file "%s", "%s"', 0aH, 00H ; `string'
CONST	ENDS
;	COMDAT ??_C@_0BH@EJAIIDKN@Opening?5output?5file?4?4?4?$AA@
CONST	SEGMENT
??_C@_0BH@EJAIIDKN@Opening?5output?5file?4?4?4?$AA@ DB 'Opening output fi'
	DB	'le...', 00H					; `string'
CONST	ENDS
;	COMDAT ??_C@_0HN@LNAFHGH@gendict?3?5got?5failure?5of?5type?5?$CFs?5@
CONST	SEGMENT
??_C@_0HN@LNAFHGH@gendict?3?5got?5failure?5of?5type?5?$CFs?5@ DB 'gendict'
	DB	': got failure of type %s while serializing, if U_ILLEGAL_ARGU'
	DB	'MENT_ERROR possibly due to duplicate dictionary entries', 0aH
	DB	00H						; `string'
CONST	ENDS
;	COMDAT ??_C@_0CE@ICENJNHF@Serializing?5data?4?4?4isBytesTrie?$DP?5@
CONST	SEGMENT
??_C@_0CE@ICENJNHF@Serializing?5data?4?4?4isBytesTrie?$DP?5@ DB 'Serializ'
	DB	'ing data...isBytesTrie? %d', 0aH, 00H	; `string'
CONST	ENDS
;	COMDAT ??_C@_0DL@FNGKOPNH@warning?3?5file?5contained?5both?5val@
CONST	SEGMENT
??_C@_0DL@FNGKOPNH@warning?3?5file?5contained?5both?5val@ DB 'warning: fi'
	DB	'le contained both valued and unvalued strings!', 0aH, 00H ; `string'
CONST	ENDS
;	COMDAT ??_C@_0DK@MENJFFHJ@Processed?5?$CFd?5lines?0?5added?5?$CFd?5wor@
CONST	SEGMENT
??_C@_0DK@MENJFFHJ@Processed?5?$CFd?5lines?0?5added?5?$CFd?5wor@ DB 'Proc'
	DB	'essed %d lines, added %d words, minlen %d, maxlen %d', 0aH, 00H ; `string'
CONST	ENDS
;	COMDAT ??_C@_0EL@PIKECADD@ICU?5Error?5?$CC?$CFs?$CC?3?5Failed?5to?5add?5wo@
CONST	SEGMENT
??_C@_0EL@PIKECADD@ICU?5Error?5?$CC?$CFs?$CC?3?5Failed?5to?5add?5wo@ DB 'I'
	DB	'CU Error "%s": Failed to add word to trie at input line %d in'
	DB	' input file', 0aH, 00H			; `string'
CONST	ENDS
;	COMDAT ??_C@_0DK@EGLJDBAN@Error?3?5value?5syntax?5error?5or?5val@
CONST	SEGMENT
??_C@_0DK@EGLJDBAN@Error?3?5value?5syntax?5error?5or?5val@ DB 'Error: val'
	DB	'ue syntax error or value too large on line %i!', 0aH, 00H ; `string'
CONST	ENDS
;	COMDAT ??_C@_0CD@FDBBOHPK@Error?3?5value?5too?5long?5on?5line?5?$CFi@
CONST	SEGMENT
??_C@_0CD@FDBBOHPK@Error?3?5value?5too?5long?5on?5line?5?$CFi@ DB 'Error:'
	DB	' value too long on line %i!', 0aH, 00H	; `string'
CONST	ENDS
;	COMDAT ??_C@_0BM@EKPFKGFP@Error?3?5no?5word?5on?5line?5?$CFi?$CB?6?$AA@
CONST	SEGMENT
??_C@_0BM@EKPFKGFP@Error?3?5no?5word?5on?5line?5?$CFi?$CB?6?$AA@ DB 'Erro'
	DB	'r: no word on line %i!', 0aH, 00H		; `string'
CONST	ENDS
;	COMDAT ??_C@_0BO@LELBGLKJ@Adding?5words?5to?5dictionary?4?4?4?$AA@
CONST	SEGMENT
??_C@_0BO@LELBGLKJ@Adding?5words?5to?5dictionary?4?4?4?$AA@ DB 'Adding wo'
	DB	'rds to dictionary...', 00H			; `string'
CONST	ENDS
;	COMDAT ??_C@_0BO@EFNGAFKA@new?5DataDict?3?5ICU?5Error?5?$CC?$CFs?$CC?6?$AA@
CONST	SEGMENT
??_C@_0BO@EFNGAFKA@new?5DataDict?3?5ICU?5Error?5?$CC?$CFs?$CC?6?$AA@ DB 'n'
	DB	'ew DataDict: ICU Error "%s"', 0aH, 00H	; `string'
CONST	ENDS
;	COMDAT ??_C@_0CP@BNCOEFPB@Initializing?5dictionary?5builder?5@
CONST	SEGMENT
??_C@_0CP@BNCOEFPB@Initializing?5dictionary?5builder?5@ DB 'Initializing '
	DB	'dictionary builder of type %s...', 0aH, 00H	; `string'
CONST	ENDS
;	COMDAT ??_C@_0L@LGIONAHD@UCharsTrie?$AA@
CONST	SEGMENT
??_C@_0L@LGIONAHD@UCharsTrie?$AA@ DB 'UCharsTrie', 00H	; `string'
CONST	ENDS
;	COMDAT ??_C@_09PFDBNIIM@BytesTrie?$AA@
CONST	SEGMENT
??_C@_09PFDBNIIM@BytesTrie?$AA@ DB 'BytesTrie', 00H	; `string'
CONST	ENDS
;	COMDAT ??_C@_0CK@FCIALHCO@error?5opening?5input?5file?3?5ICU?5Er@
CONST	SEGMENT
??_C@_0CK@FCIALHCO@error?5opening?5input?5file?3?5ICU?5Er@ DB 'error open'
	DB	'ing input file: ICU Error "%s"', 0aH, 00H	; `string'
CONST	ENDS
;	COMDAT ??_C@_05EGJIMALK@UTF?98?$AA@
CONST	SEGMENT
??_C@_05EGJIMALK@UTF?98?$AA@ DB 'UTF-8', 00H		; `string'
CONST	ENDS
;	COMDAT ??_C@_0BE@MPNGCDMF@Opening?5file?5?$CFs?4?4?4?6?$AA@
CONST	SEGMENT
??_C@_0BE@MPNGCDMF@Opening?5file?5?$CFs?4?4?4?6?$AA@ DB 'Opening file %s.'
	DB	'..', 0aH, 00H				; `string'
CONST	ENDS
;	COMDAT ??_C@_0P@KOHGMPLE@gendict?1main?$CI?$CJ?$AA@
CONST	SEGMENT
??_C@_0P@KOHGMPLE@gendict?1main?$CI?$CJ?$AA@ DB 'gendict/main()', 00H ; `string'
CONST	ENDS
;	COMDAT ??_C@_0GB@DGJJGBCD@you?5must?5provide?5a?5transformatio@
CONST	SEGMENT
??_C@_0GB@DGJJGBCD@you?5must?5provide?5a?5transformatio@ DB 'you must pro'
	DB	'vide a transformation for a bytes trie, and must not provide '
	DB	'one for a uchars trie!', 0aH, 00H		; `string'
CONST	ENDS
;	COMDAT ??_C@_0DG@OKDAHDMA@you?5must?5specify?5exactly?5one?5typ@
CONST	SEGMENT
??_C@_0DG@OKDAHDMA@you?5must?5specify?5exactly?5one?5typ@ DB 'you must sp'
	DB	'ecify exactly one type of trie to output!', 0aH, 00H ; `string'
CONST	ENDS
;	COMDAT ??_C@_0GD@IBBFEJOD@?5Copyright?5?$CIC?$CJ?52015?0?5Internation@
CONST	SEGMENT
??_C@_0GD@IBBFEJOD@?5Copyright?5?$CIC?$CJ?52015?0?5Internation@ DB ' Copy'
	DB	'right (C) 2015, International Business Machines Corporation a'
	DB	'nd others. All Rights Reserved. ', 00H	; `string'
CONST	ENDS
;	COMDAT ??_C@_0CP@OLKHGAC@input?5and?5output?5file?5must?5both?5@
CONST	SEGMENT
??_C@_0CP@OLKHGAC@input?5and?5output?5file?5must?5both?5@ DB 'input and o'
	DB	'utput file must both be specified.', 0aH, 00H ; `string'
CONST	ENDS
;	COMDAT ??_C@_0CF@BGPNLJEE@error?5in?5command?5line?5argument?5?$CC@
CONST	SEGMENT
??_C@_0CF@BGPNLJEE@error?5in?5command?5line?5argument?5?$CC@ DB 'error in'
	DB	' command line argument "%s"', 0aH, 00H	; `string'
CONST	ENDS
;	COMDAT xdata$x
xdata$x	SEGMENT
__ehfuncinfo$_main DD 019930522H
	DD	06H
	DD	FLAT:__unwindtable$_main
	DD	2 DUP(00H)
	DD	2 DUP(00H)
	DD	00H
	DD	01H
__unwindtable$_main DD 0ffffffffH
	DD	FLAT:__unwindfunclet$_main$0
	DD	00H
	DD	FLAT:__unwindfunclet$_main$1
	DD	01H
	DD	FLAT:__unwindfunclet$_main$2
	DD	02H
	DD	FLAT:__unwindfunclet$_main$3
	DD	02H
	DD	FLAT:__unwindfunclet$_main$4
	DD	02H
	DD	FLAT:__unwindfunclet$_main$5
xdata$x	ENDS
;	COMDAT rtc$TMZ
rtc$TMZ	SEGMENT
__RTC_Shutdown.rtc$TMZ DD FLAT:__RTC_Shutdown
rtc$TMZ	ENDS
;	COMDAT rtc$IMZ
rtc$IMZ	SEGMENT
__RTC_InitBase.rtc$IMZ DD FLAT:__RTC_InitBase
; Function compile flags: /Odtp /RTCsu /ZI
rtc$IMZ	ENDS
;	COMDAT _main
_TEXT	SEGMENT
tv723 = -940						; size = 4
tv721 = -940						; size = 4
tv733 = -936						; size = 4
tv730 = -936						; size = 4
tv653 = -936						; size = 4
tv217 = -936						; size = 4
$T44227 = -928						; size = 4
$T37232 = -916						; size = 64
$T37237 = -844						; size = 64
_bytesWritten$ = -580					; size = 4
_size$ = -568						; size = 4
_indexes$ = -556					; size = 32
_pData$ = -516						; size = 4
_sp$37253 = -504					; size = 8
_usp$ = -488						; size = 64
_outData$ = -416					; size = 4
_outDataSize$ = -404					; size = 4
_value$37227 = -392					; size = 4
_end$37226 = -380					; size = 4
_s$37225 = -368						; size = 16
_valueLength$37222 = -344				; size = 4
_valueStart$37217 = -332				; size = 4
_keyLen$37211 = -320					; size = 4
_isOk$ = -305						; size = 1
_maxlen$ = -296						; size = 4
_minlen$ = -284						; size = 4
_wordCount$ = -272					; size = 4
_lineCount$ = -260					; size = 4
_hasValuelessContents$ = -245				; size = 1
_hasValues$ = -233					; size = 1
_fileLine$ = -224					; size = 64
_dict$ = -152						; size = 16
_f$ = -128						; size = 4
_codepage$ = -116					; size = 4
_status$ = -104						; size = 12
_isBytesTrie$ = -81					; size = 1
_copyright$ = -72					; size = 4
_wordFileName$ = -60					; size = 4
_outFileName$ = -48					; size = 4
_quiet$ = -33						; size = 1
_verbose$ = -21						; size = 1
__$ArrayPad$ = -16					; size = 4
__$EHRec$ = -12						; size = 12
_argc$ = 8						; size = 4
_argv$ = 12						; size = 4
_main	PROC						; COMDAT
; Line 241
	push	ebp
	mov	ebp, esp
	push	-1
	push	__ehhandler$_main
	mov	eax, DWORD PTR fs:0
	push	eax
	sub	esp, 928				; 000003a0H
	push	ebx
	push	esi
	push	edi
	lea	edi, DWORD PTR [ebp-940]
	mov	ecx, 232				; 000000e8H
	mov	eax, -858993460				; ccccccccH
	rep stosd
	mov	eax, DWORD PTR ___security_cookie
	xor	eax, ebp
	mov	DWORD PTR __$ArrayPad$[ebp], eax
	push	eax
	lea	eax, DWORD PTR __$EHRec$[ebp]
	mov	DWORD PTR fs:0, eax
; Line 247
	mov	eax, DWORD PTR _argv$[ebp]
	mov	ecx, DWORD PTR [eax]
	mov	DWORD PTR _progName, ecx
; Line 248
	push	OFFSET _options
	push	9
	mov	eax, DWORD PTR _argv$[ebp]
	push	eax
	mov	ecx, DWORD PTR _argc$[ebp]
	push	ecx
	call	_u_parseArgs
	add	esp, 16					; 00000010H
	mov	DWORD PTR _argc$[ebp], eax
; Line 249
	cmp	DWORD PTR _argc$[ebp], 0
	jge	SHORT $LN48@main
; Line 251
	mov	eax, DWORD PTR _argc$[ebp]
	neg	eax
	mov	esi, esp
	mov	ecx, DWORD PTR _argv$[ebp]
	mov	edx, DWORD PTR [ecx+eax*4]
	push	edx
	push	OFFSET ??_C@_0CF@BGPNLJEE@error?5in?5command?5line?5argument?5?$CC@
	mov	edi, esp
	call	DWORD PTR __imp____iob_func
	cmp	edi, esp
	call	__RTC_CheckEsp
	add	eax, 64					; 00000040H
	push	eax
	call	DWORD PTR __imp__fprintf
	add	esp, 12					; 0000000cH
	cmp	esi, esp
	call	__RTC_CheckEsp
; Line 252
	push	1
	call	?usageAndDie@@YAXW4UErrorCode@@@Z	; usageAndDie
	add	esp, 4
$LN48@main:
; Line 255
	movsx	eax, BYTE PTR _options+18
	test	eax, eax
	jne	SHORT $LN46@main
	movsx	eax, BYTE PTR _options+38
	test	eax, eax
	je	SHORT $LN47@main
$LN46@main:
; Line 257
	push	0
	call	?usageAndDie@@YAXW4UErrorCode@@@Z	; usageAndDie
	add	esp, 4
$LN47@main:
; Line 260
	mov	al, BYTE PTR _options+58
	mov	BYTE PTR _verbose$[ebp], al
; Line 261
	mov	al, BYTE PTR _options+178
	mov	BYTE PTR _quiet$[ebp], al
; Line 263
	cmp	DWORD PTR _argc$[ebp], 3
	jge	SHORT $LN45@main
; Line 264
	mov	esi, esp
	push	OFFSET ??_C@_0CP@OLKHGAC@input?5and?5output?5file?5must?5both?5@
	mov	edi, esp
	call	DWORD PTR __imp____iob_func
	cmp	edi, esp
	call	__RTC_CheckEsp
	add	eax, 64					; 00000040H
	push	eax
	call	DWORD PTR __imp__fprintf
	add	esp, 8
	cmp	esi, esp
	call	__RTC_CheckEsp
; Line 265
	push	1
	call	?usageAndDie@@YAXW4UErrorCode@@@Z	; usageAndDie
	add	esp, 4
$LN45@main:
; Line 267
	mov	eax, DWORD PTR _argv$[ebp]
	mov	ecx, DWORD PTR [eax+8]
	mov	DWORD PTR _outFileName$[ebp], ecx
; Line 268
	mov	eax, DWORD PTR _argv$[ebp]
	mov	ecx, DWORD PTR [eax+4]
	mov	DWORD PTR _wordFileName$[ebp], ecx
; Line 270
	call	_uprv_getRawUTCtime_56
	fstp	QWORD PTR ?startTime@@3NA		; startTime
; Line 272
	movsx	eax, BYTE PTR _options+78
	test	eax, eax
	je	SHORT $LN44@main
; Line 273
	mov	eax, DWORD PTR _options+64
	push	eax
	call	_u_setDataDirectory_56
	add	esp, 4
$LN44@main:
; Line 276
	mov	DWORD PTR _copyright$[ebp], 0
; Line 277
	movsx	eax, BYTE PTR _options+98
	test	eax, eax
	je	SHORT $LN43@main
; Line 278
	mov	DWORD PTR _copyright$[ebp], OFFSET ??_C@_0GD@IBBFEJOD@?5Copyright?5?$CIC?$CJ?52015?0?5Internation@
$LN43@main:
; Line 281
	movsx	eax, BYTE PTR _options+118
	movsx	ecx, BYTE PTR _options+138
	cmp	eax, ecx
	jne	SHORT $LN42@main
; Line 282
	mov	esi, esp
	push	OFFSET ??_C@_0DG@OKDAHDMA@you?5must?5specify?5exactly?5one?5typ@
	mov	edi, esp
	call	DWORD PTR __imp____iob_func
	cmp	edi, esp
	call	__RTC_CheckEsp
	add	eax, 64					; 00000040H
	push	eax
	call	DWORD PTR __imp__fprintf
	add	esp, 8
	cmp	esi, esp
	call	__RTC_CheckEsp
; Line 283
	push	1
	call	?usageAndDie@@YAXW4UErrorCode@@@Z	; usageAndDie
	add	esp, 4
$LN42@main:
; Line 285
	mov	al, BYTE PTR _options+138
	mov	BYTE PTR _isBytesTrie$[ebp], al
; Line 286
	movsx	eax, BYTE PTR _isBytesTrie$[ebp]
	movsx	ecx, BYTE PTR _options+158
	cmp	eax, ecx
	je	SHORT $LN41@main
; Line 287
	mov	esi, esp
	push	OFFSET ??_C@_0GB@DGJJGBCD@you?5must?5provide?5a?5transformatio@
	mov	edi, esp
	call	DWORD PTR __imp____iob_func
	cmp	edi, esp
	call	__RTC_CheckEsp
	add	eax, 64					; 00000040H
	push	eax
	call	DWORD PTR __imp__fprintf
	add	esp, 8
	cmp	esi, esp
	call	__RTC_CheckEsp
; Line 288
	push	1
	call	?usageAndDie@@YAXW4UErrorCode@@@Z	; usageAndDie
	add	esp, 4
$LN41@main:
; Line 291
	mov	esi, esp
	push	OFFSET ??_C@_0P@KOHGMPLE@gendict?1main?$CI?$CJ?$AA@
	lea	ecx, DWORD PTR _status$[ebp]
	call	DWORD PTR __imp_??0IcuToolErrorCode@icu_56@@QAE@PBD@Z
	cmp	esi, esp
	call	__RTC_CheckEsp
	mov	DWORD PTR __$EHRec$[ebp+8], 0
; Line 312
	movsx	eax, BYTE PTR _verbose$[ebp]
	test	eax, eax
	je	SHORT $LN40@main
	mov	esi, esp
	mov	eax, DWORD PTR _wordFileName$[ebp]
	push	eax
	push	OFFSET ??_C@_0BE@MPNGCDMF@Opening?5file?5?$CFs?4?4?4?6?$AA@
	call	DWORD PTR __imp__printf
	add	esp, 8
	cmp	esi, esp
	call	__RTC_CheckEsp
$LN40@main:
; Line 313
	mov	DWORD PTR _codepage$[ebp], OFFSET ??_C@_05EGJIMALK@UTF?98?$AA@
; Line 314
	mov	esi, esp
	lea	ecx, DWORD PTR _status$[ebp]
	call	DWORD PTR __imp_??BErrorCode@icu_56@@QAEPAW4UErrorCode@@XZ
	cmp	esi, esp
	call	__RTC_CheckEsp
	push	eax
	push	0
	push	1
	lea	eax, DWORD PTR _codepage$[ebp]
	push	eax
	mov	ecx, DWORD PTR _wordFileName$[ebp]
	push	ecx
	call	_ucbuf_open
	add	esp, 20					; 00000014H
	mov	DWORD PTR _f$[ebp], eax
; Line 315
	mov	esi, esp
	lea	ecx, DWORD PTR _status$[ebp]
	call	DWORD PTR __imp_?isFailure@ErrorCode@icu_56@@QBECXZ
	cmp	esi, esp
	call	__RTC_CheckEsp
	movsx	eax, al
	test	eax, eax
	je	SHORT $LN39@main
; Line 316
	mov	esi, esp
	lea	ecx, DWORD PTR _status$[ebp]
	call	DWORD PTR __imp_?errorName@ErrorCode@icu_56@@QBEPBDXZ
	cmp	esi, esp
	call	__RTC_CheckEsp
	mov	esi, esp
	push	eax
	push	OFFSET ??_C@_0CK@FCIALHCO@error?5opening?5input?5file?3?5ICU?5Er@
	mov	edi, esp
	call	DWORD PTR __imp____iob_func
	cmp	edi, esp
	call	__RTC_CheckEsp
	add	eax, 64					; 00000040H
	push	eax
	call	DWORD PTR __imp__fprintf
	add	esp, 12					; 0000000cH
	cmp	esi, esp
	call	__RTC_CheckEsp
; Line 317
	mov	esi, esp
	lea	ecx, DWORD PTR _status$[ebp]
	call	DWORD PTR __imp_?reset@ErrorCode@icu_56@@QAE?AW4UErrorCode@@XZ
	cmp	esi, esp
	call	__RTC_CheckEsp
	mov	esi, esp
	push	eax
	call	DWORD PTR __imp__exit
	cmp	esi, esp
	call	__RTC_CheckEsp
$LN39@main:
; Line 319
	movsx	eax, BYTE PTR _verbose$[ebp]
	test	eax, eax
	je	SHORT $LN38@main
	movsx	eax, BYTE PTR _isBytesTrie$[ebp]
	test	eax, eax
	je	SHORT $LN51@main
	mov	DWORD PTR tv217[ebp], OFFSET ??_C@_09PFDBNIIM@BytesTrie?$AA@
	jmp	SHORT $LN52@main
$LN51@main:
	mov	DWORD PTR tv217[ebp], OFFSET ??_C@_0L@LGIONAHD@UCharsTrie?$AA@
$LN52@main:
	mov	esi, esp
	mov	ecx, DWORD PTR tv217[ebp]
	push	ecx
	push	OFFSET ??_C@_0CP@BNCOEFPB@Initializing?5dictionary?5builder?5@
	call	DWORD PTR __imp__printf
	add	esp, 8
	cmp	esi, esp
	call	__RTC_CheckEsp
$LN38@main:
; Line 320
	mov	esi, esp
	lea	ecx, DWORD PTR _status$[ebp]
	call	DWORD PTR __imp_??BErrorCode@icu_56@@QAEAAW4UErrorCode@@XZ
	cmp	esi, esp
	call	__RTC_CheckEsp
	push	eax
	movzx	eax, BYTE PTR _isBytesTrie$[ebp]
	push	eax
	lea	ecx, DWORD PTR _dict$[ebp]
	call	??0DataDict@@QAE@CAAW4UErrorCode@@@Z	; DataDict::DataDict
	mov	BYTE PTR __$EHRec$[ebp+8], 1
; Line 321
	mov	esi, esp
	lea	ecx, DWORD PTR _status$[ebp]
	call	DWORD PTR __imp_?isFailure@ErrorCode@icu_56@@QBECXZ
	cmp	esi, esp
	call	__RTC_CheckEsp
	movsx	eax, al
	test	eax, eax
	je	SHORT $LN37@main
; Line 322
	mov	esi, esp
	lea	ecx, DWORD PTR _status$[ebp]
	call	DWORD PTR __imp_?errorName@ErrorCode@icu_56@@QBEPBDXZ
	cmp	esi, esp
	call	__RTC_CheckEsp
	mov	esi, esp
	push	eax
	push	OFFSET ??_C@_0BO@EFNGAFKA@new?5DataDict?3?5ICU?5Error?5?$CC?$CFs?$CC?6?$AA@
	mov	edi, esp
	call	DWORD PTR __imp____iob_func
	cmp	edi, esp
	call	__RTC_CheckEsp
	add	eax, 64					; 00000040H
	push	eax
	call	DWORD PTR __imp__fprintf
	add	esp, 12					; 0000000cH
	cmp	esi, esp
	call	__RTC_CheckEsp
; Line 323
	mov	esi, esp
	lea	ecx, DWORD PTR _status$[ebp]
	call	DWORD PTR __imp_?reset@ErrorCode@icu_56@@QAE?AW4UErrorCode@@XZ
	cmp	esi, esp
	call	__RTC_CheckEsp
	mov	esi, esp
	push	eax
	call	DWORD PTR __imp__exit
	cmp	esi, esp
	call	__RTC_CheckEsp
$LN37@main:
; Line 325
	movsx	eax, BYTE PTR _options+158
	test	eax, eax
	je	SHORT $LN36@main
; Line 326
	mov	eax, DWORD PTR _options+144
	push	eax
	lea	ecx, DWORD PTR _dict$[ebp]
	call	?setTransform@DataDict@@QAEXPBD@Z	; DataDict::setTransform
$LN36@main:
; Line 329
	mov	esi, esp
	lea	ecx, DWORD PTR _fileLine$[ebp]
	call	DWORD PTR __imp_??0UnicodeString@icu_56@@QAE@XZ
	cmp	esi, esp
	call	__RTC_CheckEsp
	mov	BYTE PTR __$EHRec$[ebp+8], 2
; Line 330
	movsx	eax, BYTE PTR _verbose$[ebp]
	test	eax, eax
	je	SHORT $LN35@main
	mov	esi, esp
	push	OFFSET ??_C@_0BO@LELBGLKJ@Adding?5words?5to?5dictionary?4?4?4?$AA@
	call	DWORD PTR __imp__puts
	add	esp, 4
	cmp	esi, esp
	call	__RTC_CheckEsp
$LN35@main:
; Line 331
	mov	BYTE PTR _hasValues$[ebp], 0
; Line 332
	mov	BYTE PTR _hasValuelessContents$[ebp], 0
; Line 333
	mov	DWORD PTR _lineCount$[ebp], 0
; Line 334
	mov	DWORD PTR _wordCount$[ebp], 0
; Line 335
	mov	DWORD PTR _minlen$[ebp], 255		; 000000ffH
; Line 336
	mov	DWORD PTR _maxlen$[ebp], 0
; Line 337
	mov	BYTE PTR _isOk$[ebp], 1
$LN64@main:
; Line 338
	lea	eax, DWORD PTR _status$[ebp]
	push	eax
	lea	ecx, DWORD PTR _fileLine$[ebp]
	push	ecx
	mov	edx, DWORD PTR _f$[ebp]
	push	edx
	call	?readLine@@YACPAUUCHARBUF@@AAVUnicodeString@icu_56@@AAVIcuToolErrorCode@3@@Z ; readLine
	add	esp, 12					; 0000000cH
	movsx	eax, al
	test	eax, eax
	je	$LN33@main
; Line 339
	mov	eax, DWORD PTR _lineCount$[ebp]
	add	eax, 1
	mov	DWORD PTR _lineCount$[ebp], eax
; Line 340
	mov	esi, esp
	lea	ecx, DWORD PTR _fileLine$[ebp]
	call	DWORD PTR __imp_?isEmpty@UnicodeString@icu_56@@QBECXZ
	cmp	esi, esp
	call	__RTC_CheckEsp
	movsx	eax, al
	test	eax, eax
	je	SHORT $LN32@main
	jmp	SHORT $LN64@main
$LN32@main:
; Line 344
	mov	DWORD PTR _keyLen$37211[ebp], 0
	jmp	SHORT $LN31@main
$LN30@main:
	mov	eax, DWORD PTR _keyLen$37211[ebp]
	add	eax, 1
	mov	DWORD PTR _keyLen$37211[ebp], eax
$LN31@main:
	mov	esi, esp
	lea	ecx, DWORD PTR _fileLine$[ebp]
	call	DWORD PTR __imp_?length@UnicodeString@icu_56@@QBEHXZ
	cmp	esi, esp
	call	__RTC_CheckEsp
	cmp	DWORD PTR _keyLen$37211[ebp], eax
	jge	SHORT $LN29@main
	mov	esi, esp
	mov	eax, DWORD PTR _keyLen$37211[ebp]
	push	eax
	lea	ecx, DWORD PTR _fileLine$[ebp]
	call	DWORD PTR __imp_??AUnicodeString@icu_56@@QBE_WH@Z
	cmp	esi, esp
	call	__RTC_CheckEsp
	movzx	ecx, ax
	push	ecx
	call	_u_isspace_56
	add	esp, 4
	movsx	edx, al
	test	edx, edx
	jne	SHORT $LN29@main
	jmp	SHORT $LN30@main
$LN29@main:
; Line 345
	cmp	DWORD PTR _keyLen$37211[ebp], 0
	jne	SHORT $LN28@main
; Line 346
	mov	esi, esp
	mov	eax, DWORD PTR _lineCount$[ebp]
	push	eax
	push	OFFSET ??_C@_0BM@EKPFKGFP@Error?3?5no?5word?5on?5line?5?$CFi?$CB?6?$AA@
	mov	edi, esp
	call	DWORD PTR __imp____iob_func
	cmp	edi, esp
	call	__RTC_CheckEsp
	add	eax, 64					; 00000040H
	push	eax
	call	DWORD PTR __imp__fprintf
	add	esp, 12					; 0000000cH
	cmp	esi, esp
	call	__RTC_CheckEsp
; Line 347
	mov	BYTE PTR _isOk$[ebp], 0
; Line 348
	jmp	$LN64@main
$LN28@main:
; Line 351
	mov	eax, DWORD PTR _keyLen$37211[ebp]
	mov	DWORD PTR _valueStart$37217[ebp], eax
	jmp	SHORT $LN27@main
$LN26@main:
; Line 353
	mov	eax, DWORD PTR _valueStart$37217[ebp]
	add	eax, 1
	mov	DWORD PTR _valueStart$37217[ebp], eax
$LN27@main:
	mov	esi, esp
	lea	ecx, DWORD PTR _fileLine$[ebp]
	call	DWORD PTR __imp_?length@UnicodeString@icu_56@@QBEHXZ
	cmp	esi, esp
	call	__RTC_CheckEsp
	cmp	DWORD PTR _valueStart$37217[ebp], eax
	jge	SHORT $LN25@main
	mov	esi, esp
	mov	eax, DWORD PTR _valueStart$37217[ebp]
	push	eax
	lea	ecx, DWORD PTR _fileLine$[ebp]
	call	DWORD PTR __imp_??AUnicodeString@icu_56@@QBE_WH@Z
	cmp	esi, esp
	call	__RTC_CheckEsp
	movzx	ecx, ax
	push	ecx
	call	_u_isspace_56
	add	esp, 4
	movsx	edx, al
	test	edx, edx
	je	SHORT $LN25@main
	jmp	SHORT $LN26@main
$LN25@main:
; Line 355
	mov	eax, DWORD PTR _keyLen$37211[ebp]
	cmp	eax, DWORD PTR _valueStart$37217[ebp]
	jge	$LN24@main
; Line 356
	mov	esi, esp
	lea	ecx, DWORD PTR _fileLine$[ebp]
	call	DWORD PTR __imp_?length@UnicodeString@icu_56@@QBEHXZ
	cmp	esi, esp
	call	__RTC_CheckEsp
	sub	eax, DWORD PTR _valueStart$37217[ebp]
	mov	DWORD PTR _valueLength$37222[ebp], eax
; Line 357
	cmp	DWORD PTR _valueLength$37222[ebp], 15	; 0000000fH
	jle	SHORT $LN23@main
; Line 358
	mov	esi, esp
	mov	eax, DWORD PTR _lineCount$[ebp]
	push	eax
	push	OFFSET ??_C@_0CD@FDBBOHPK@Error?3?5value?5too?5long?5on?5line?5?$CFi@
	mov	edi, esp
	call	DWORD PTR __imp____iob_func
	cmp	edi, esp
	call	__RTC_CheckEsp
	add	eax, 64					; 00000040H
	push	eax
	call	DWORD PTR __imp__fprintf
	add	esp, 12					; 0000000cH
	cmp	esi, esp
	call	__RTC_CheckEsp
; Line 359
	mov	BYTE PTR _isOk$[ebp], 0
; Line 360
	jmp	$LN64@main
$LN23@main:
; Line 363
	mov	esi, esp
	push	0
	push	16					; 00000010H
	lea	eax, DWORD PTR _s$37225[ebp]
	push	eax
	mov	ecx, DWORD PTR _valueLength$37222[ebp]
	push	ecx
	mov	edx, DWORD PTR _valueStart$37217[ebp]
	push	edx
	lea	ecx, DWORD PTR _fileLine$[ebp]
	call	DWORD PTR __imp_?extract@UnicodeString@icu_56@@QBEHHHPADHW4EInvariant@12@@Z
	cmp	esi, esp
	call	__RTC_CheckEsp
; Line 365
	mov	esi, esp
	push	0
	lea	eax, DWORD PTR _end$37226[ebp]
	push	eax
	lea	ecx, DWORD PTR _s$37225[ebp]
	push	ecx
	call	DWORD PTR __imp__strtoul
	add	esp, 12					; 0000000cH
	cmp	esi, esp
	call	__RTC_CheckEsp
	mov	DWORD PTR _value$37227[ebp], eax
; Line 366
	mov	eax, DWORD PTR _end$37226[ebp]
	lea	ecx, DWORD PTR _s$37225[ebp]
	cmp	eax, ecx
	je	SHORT $LN21@main
	mov	eax, DWORD PTR _end$37226[ebp]
	movsx	ecx, BYTE PTR [eax]
	test	ecx, ecx
	jne	SHORT $LN21@main
	lea	eax, DWORD PTR _s$37225[ebp]
	push	eax
	call	_strlen
	add	esp, 4
	cmp	eax, DWORD PTR _valueLength$37222[ebp]
	jne	SHORT $LN21@main
	cmp	DWORD PTR _value$37227[ebp], -1
	jbe	SHORT $LN22@main
$LN21@main:
; Line 367
	mov	esi, esp
	mov	eax, DWORD PTR _lineCount$[ebp]
	push	eax
	push	OFFSET ??_C@_0DK@EGLJDBAN@Error?3?5value?5syntax?5error?5or?5val@
	mov	edi, esp
	call	DWORD PTR __imp____iob_func
	cmp	edi, esp
	call	__RTC_CheckEsp
	add	eax, 64					; 00000040H
	push	eax
	call	DWORD PTR __imp__fprintf
	add	esp, 12					; 0000000cH
	cmp	esi, esp
	call	__RTC_CheckEsp
; Line 368
	mov	BYTE PTR _isOk$[ebp], 0
; Line 369
	jmp	$LN64@main
$LN22@main:
; Line 371
	mov	esi, esp
	lea	ecx, DWORD PTR _status$[ebp]
	call	DWORD PTR __imp_??BErrorCode@icu_56@@QAEAAW4UErrorCode@@XZ
	cmp	esi, esp
	call	__RTC_CheckEsp
	push	eax
	mov	eax, DWORD PTR _value$37227[ebp]
	push	eax
	mov	esi, esp
	mov	ecx, DWORD PTR _keyLen$37211[ebp]
	push	ecx
	push	0
	lea	edx, DWORD PTR $T37232[ebp]
	push	edx
	lea	ecx, DWORD PTR _fileLine$[ebp]
	call	DWORD PTR __imp_?tempSubString@UnicodeString@icu_56@@QBE?AV12@HH@Z
	cmp	esi, esp
	call	__RTC_CheckEsp
	mov	DWORD PTR tv730[ebp], eax
	mov	eax, DWORD PTR tv730[ebp]
	mov	DWORD PTR tv721[ebp], eax
	mov	BYTE PTR __$EHRec$[ebp+8], 3
	mov	ecx, DWORD PTR tv721[ebp]
	push	ecx
	lea	ecx, DWORD PTR _dict$[ebp]
	call	?addWord@DataDict@@QAEXABVUnicodeString@icu_56@@HAAW4UErrorCode@@@Z ; DataDict::addWord
	mov	BYTE PTR __$EHRec$[ebp+8], 2
	mov	esi, esp
	lea	ecx, DWORD PTR $T37232[ebp]
	call	DWORD PTR __imp_??1UnicodeString@icu_56@@UAE@XZ
	cmp	esi, esp
	call	__RTC_CheckEsp
; Line 372
	mov	BYTE PTR _hasValues$[ebp], 1
; Line 373
	mov	eax, DWORD PTR _wordCount$[ebp]
	add	eax, 1
	mov	DWORD PTR _wordCount$[ebp], eax
; Line 374
	mov	eax, DWORD PTR _keyLen$37211[ebp]
	cmp	eax, DWORD PTR _minlen$[ebp]
	jge	SHORT $LN20@main
	mov	eax, DWORD PTR _keyLen$37211[ebp]
	mov	DWORD PTR _minlen$[ebp], eax
$LN20@main:
; Line 375
	mov	eax, DWORD PTR _keyLen$37211[ebp]
	cmp	eax, DWORD PTR _maxlen$[ebp]
	jle	SHORT $LN19@main
	mov	eax, DWORD PTR _keyLen$37211[ebp]
	mov	DWORD PTR _maxlen$[ebp], eax
$LN19@main:
; Line 376
	jmp	$LN16@main
$LN24@main:
; Line 377
	mov	esi, esp
	lea	ecx, DWORD PTR _status$[ebp]
	call	DWORD PTR __imp_??BErrorCode@icu_56@@QAEAAW4UErrorCode@@XZ
	cmp	esi, esp
	call	__RTC_CheckEsp
	push	eax
	push	0
	mov	esi, esp
	mov	eax, DWORD PTR _keyLen$37211[ebp]
	push	eax
	push	0
	lea	ecx, DWORD PTR $T37237[ebp]
	push	ecx
	lea	ecx, DWORD PTR _fileLine$[ebp]
	call	DWORD PTR __imp_?tempSubString@UnicodeString@icu_56@@QBE?AV12@HH@Z
	cmp	esi, esp
	call	__RTC_CheckEsp
	mov	DWORD PTR tv733[ebp], eax
	mov	edx, DWORD PTR tv733[ebp]
	mov	DWORD PTR tv723[ebp], edx
	mov	BYTE PTR __$EHRec$[ebp+8], 4
	mov	eax, DWORD PTR tv723[ebp]
	push	eax
	lea	ecx, DWORD PTR _dict$[ebp]
	call	?addWord@DataDict@@QAEXABVUnicodeString@icu_56@@HAAW4UErrorCode@@@Z ; DataDict::addWord
	mov	BYTE PTR __$EHRec$[ebp+8], 2
	mov	esi, esp
	lea	ecx, DWORD PTR $T37237[ebp]
	call	DWORD PTR __imp_??1UnicodeString@icu_56@@UAE@XZ
	cmp	esi, esp
	call	__RTC_CheckEsp
; Line 378
	mov	BYTE PTR _hasValuelessContents$[ebp], 1
; Line 379
	mov	eax, DWORD PTR _wordCount$[ebp]
	add	eax, 1
	mov	DWORD PTR _wordCount$[ebp], eax
; Line 380
	mov	eax, DWORD PTR _keyLen$37211[ebp]
	cmp	eax, DWORD PTR _minlen$[ebp]
	jge	SHORT $LN17@main
	mov	eax, DWORD PTR _keyLen$37211[ebp]
	mov	DWORD PTR _minlen$[ebp], eax
$LN17@main:
; Line 381
	mov	eax, DWORD PTR _keyLen$37211[ebp]
	cmp	eax, DWORD PTR _maxlen$[ebp]
	jle	SHORT $LN16@main
	mov	eax, DWORD PTR _keyLen$37211[ebp]
	mov	DWORD PTR _maxlen$[ebp], eax
$LN16@main:
; Line 384
	mov	esi, esp
	lea	ecx, DWORD PTR _status$[ebp]
	call	DWORD PTR __imp_?isFailure@ErrorCode@icu_56@@QBECXZ
	cmp	esi, esp
	call	__RTC_CheckEsp
	movsx	eax, al
	test	eax, eax
	je	SHORT $LN15@main
; Line 386
	mov	esi, esp
	mov	eax, DWORD PTR _lineCount$[ebp]
	push	eax
	mov	edi, esp
	lea	ecx, DWORD PTR _status$[ebp]
	call	DWORD PTR __imp_?errorName@ErrorCode@icu_56@@QBEPBDXZ
	cmp	edi, esp
	call	__RTC_CheckEsp
	push	eax
	push	OFFSET ??_C@_0EL@PIKECADD@ICU?5Error?5?$CC?$CFs?$CC?3?5Failed?5to?5add?5wo@
	mov	edi, esp
	call	DWORD PTR __imp____iob_func
	cmp	edi, esp
	call	__RTC_CheckEsp
	add	eax, 64					; 00000040H
	push	eax
	call	DWORD PTR __imp__fprintf
	add	esp, 16					; 00000010H
	cmp	esi, esp
	call	__RTC_CheckEsp
; Line 387
	mov	esi, esp
	lea	ecx, DWORD PTR _status$[ebp]
	call	DWORD PTR __imp_?reset@ErrorCode@icu_56@@QAE?AW4UErrorCode@@XZ
	cmp	esi, esp
	call	__RTC_CheckEsp
	mov	esi, esp
	push	eax
	call	DWORD PTR __imp__exit
	cmp	esi, esp
	call	__RTC_CheckEsp
$LN15@main:
; Line 389
	jmp	$LN64@main
$LN33@main:
; Line 390
	movsx	eax, BYTE PTR _verbose$[ebp]
	test	eax, eax
	je	SHORT $LN14@main
	mov	esi, esp
	mov	eax, DWORD PTR _maxlen$[ebp]
	push	eax
	mov	ecx, DWORD PTR _minlen$[ebp]
	push	ecx
	mov	edx, DWORD PTR _wordCount$[ebp]
	push	edx
	mov	eax, DWORD PTR _lineCount$[ebp]
	push	eax
	push	OFFSET ??_C@_0DK@MENJFFHJ@Processed?5?$CFd?5lines?0?5added?5?$CFd?5wor@
	call	DWORD PTR __imp__printf
	add	esp, 20					; 00000014H
	cmp	esi, esp
	call	__RTC_CheckEsp
$LN14@main:
; Line 392
	movsx	eax, BYTE PTR _isOk$[ebp]
	test	eax, eax
	jne	SHORT $LN13@main
	mov	esi, esp
	lea	ecx, DWORD PTR _status$[ebp]
	call	DWORD PTR __imp_?isSuccess@ErrorCode@icu_56@@QBECXZ
	cmp	esi, esp
	call	__RTC_CheckEsp
	movsx	eax, al
	test	eax, eax
	je	SHORT $LN13@main
; Line 393
	mov	esi, esp
	push	1
	lea	ecx, DWORD PTR _status$[ebp]
	call	DWORD PTR __imp_?set@ErrorCode@icu_56@@QAEXW4UErrorCode@@@Z
	cmp	esi, esp
	call	__RTC_CheckEsp
$LN13@main:
; Line 395
	movsx	eax, BYTE PTR _hasValues$[ebp]
	test	eax, eax
	je	SHORT $LN12@main
	movsx	eax, BYTE PTR _hasValuelessContents$[ebp]
	test	eax, eax
	je	SHORT $LN12@main
; Line 396
	mov	esi, esp
	push	OFFSET ??_C@_0DL@FNGKOPNH@warning?3?5file?5contained?5both?5val@
	mov	edi, esp
	call	DWORD PTR __imp____iob_func
	cmp	edi, esp
	call	__RTC_CheckEsp
	add	eax, 64					; 00000040H
	push	eax
	call	DWORD PTR __imp__fprintf
	add	esp, 8
	cmp	esi, esp
	call	__RTC_CheckEsp
$LN12@main:
; Line 399
	movsx	eax, BYTE PTR _verbose$[ebp]
	test	eax, eax
	je	SHORT $LN11@main
	movsx	eax, BYTE PTR _isBytesTrie$[ebp]
	mov	esi, esp
	push	eax
	push	OFFSET ??_C@_0CE@ICENJNHF@Serializing?5data?4?4?4isBytesTrie?$DP?5@
	call	DWORD PTR __imp__printf
	add	esp, 8
	cmp	esi, esp
	call	__RTC_CheckEsp
$LN11@main:
; Line 402
	mov	esi, esp
	lea	ecx, DWORD PTR _usp$[ebp]
	call	DWORD PTR __imp_??0UnicodeString@icu_56@@QAE@XZ
	cmp	esi, esp
	call	__RTC_CheckEsp
	mov	BYTE PTR __$EHRec$[ebp+8], 5
; Line 403
	movsx	eax, BYTE PTR _isBytesTrie$[ebp]
	test	eax, eax
	je	SHORT $LN10@main
; Line 404
	mov	esi, esp
	lea	ecx, DWORD PTR _status$[ebp]
	call	DWORD PTR __imp_??BErrorCode@icu_56@@QAEAAW4UErrorCode@@XZ
	cmp	esi, esp
	call	__RTC_CheckEsp
	push	eax
	lea	eax, DWORD PTR _sp$37253[ebp]
	push	eax
	lea	ecx, DWORD PTR _dict$[ebp]
	call	?serializeBytes@DataDict@@QAE?AVStringPiece@icu_56@@AAW4UErrorCode@@@Z ; DataDict::serializeBytes
; Line 405
	mov	esi, esp
	lea	ecx, DWORD PTR _sp$37253[ebp]
	call	DWORD PTR __imp_?size@StringPiece@icu_56@@QBEHXZ
	cmp	esi, esp
	call	__RTC_CheckEsp
	mov	DWORD PTR _outDataSize$[ebp], eax
; Line 406
	mov	esi, esp
	lea	ecx, DWORD PTR _sp$37253[ebp]
	call	DWORD PTR __imp_?data@StringPiece@icu_56@@QBEPBDXZ
	cmp	esi, esp
	call	__RTC_CheckEsp
	mov	DWORD PTR _outData$[ebp], eax
; Line 407
	jmp	SHORT $LN9@main
$LN10@main:
; Line 408
	mov	esi, esp
	lea	ecx, DWORD PTR _status$[ebp]
	call	DWORD PTR __imp_??BErrorCode@icu_56@@QAEAAW4UErrorCode@@XZ
	cmp	esi, esp
	call	__RTC_CheckEsp
	push	eax
	lea	eax, DWORD PTR _usp$[ebp]
	push	eax
	lea	ecx, DWORD PTR _dict$[ebp]
	call	?serializeUChars@DataDict@@QAEXAAVUnicodeString@icu_56@@AAW4UErrorCode@@@Z ; DataDict::serializeUChars
; Line 409
	mov	esi, esp
	lea	ecx, DWORD PTR _usp$[ebp]
	call	DWORD PTR __imp_?length@UnicodeString@icu_56@@QBEHXZ
	cmp	esi, esp
	call	__RTC_CheckEsp
	shl	eax, 1
	mov	DWORD PTR _outDataSize$[ebp], eax
; Line 410
	mov	esi, esp
	lea	ecx, DWORD PTR _usp$[ebp]
	call	DWORD PTR __imp_?getBuffer@UnicodeString@icu_56@@QBEPB_WXZ
	cmp	esi, esp
	call	__RTC_CheckEsp
	mov	DWORD PTR _outData$[ebp], eax
$LN9@main:
; Line 412
	mov	esi, esp
	lea	ecx, DWORD PTR _status$[ebp]
	call	DWORD PTR __imp_?isFailure@ErrorCode@icu_56@@QBECXZ
	cmp	esi, esp
	call	__RTC_CheckEsp
	movsx	eax, al
	test	eax, eax
	je	SHORT $LN8@main
; Line 413
	mov	esi, esp
	lea	ecx, DWORD PTR _status$[ebp]
	call	DWORD PTR __imp_?errorName@ErrorCode@icu_56@@QBEPBDXZ
	cmp	esi, esp
	call	__RTC_CheckEsp
	mov	esi, esp
	push	eax
	push	OFFSET ??_C@_0HN@LNAFHGH@gendict?3?5got?5failure?5of?5type?5?$CFs?5@
	mov	edi, esp
	call	DWORD PTR __imp____iob_func
	cmp	edi, esp
	call	__RTC_CheckEsp
	add	eax, 64					; 00000040H
	push	eax
	call	DWORD PTR __imp__fprintf
	add	esp, 12					; 0000000cH
	cmp	esi, esp
	call	__RTC_CheckEsp
; Line 414
	mov	esi, esp
	lea	ecx, DWORD PTR _status$[ebp]
	call	DWORD PTR __imp_?reset@ErrorCode@icu_56@@QAE?AW4UErrorCode@@XZ
	cmp	esi, esp
	call	__RTC_CheckEsp
	mov	esi, esp
	push	eax
	call	DWORD PTR __imp__exit
	cmp	esi, esp
	call	__RTC_CheckEsp
$LN8@main:
; Line 416
	movsx	eax, BYTE PTR _verbose$[ebp]
	test	eax, eax
	je	SHORT $LN7@main
	mov	esi, esp
	push	OFFSET ??_C@_0BH@EJAIIDKN@Opening?5output?5file?4?4?4?$AA@
	call	DWORD PTR __imp__puts
	add	esp, 4
	cmp	esi, esp
	call	__RTC_CheckEsp
$LN7@main:
; Line 417
	mov	esi, esp
	lea	ecx, DWORD PTR _status$[ebp]
	call	DWORD PTR __imp_??BErrorCode@icu_56@@QAEPAW4UErrorCode@@XZ
	cmp	esi, esp
	call	__RTC_CheckEsp
	push	eax
	mov	eax, DWORD PTR _copyright$[ebp]
	push	eax
	push	OFFSET _dataInfo
	mov	ecx, DWORD PTR _outFileName$[ebp]
	push	ecx
	push	0
	push	0
	call	_udata_create
	add	esp, 24					; 00000018H
	mov	DWORD PTR _pData$[ebp], eax
; Line 418
	mov	esi, esp
	lea	ecx, DWORD PTR _status$[ebp]
	call	DWORD PTR __imp_?isFailure@ErrorCode@icu_56@@QBECXZ
	cmp	esi, esp
	call	__RTC_CheckEsp
	movsx	eax, al
	test	eax, eax
	je	SHORT $LN6@main
; Line 419
	mov	esi, esp
	lea	ecx, DWORD PTR _status$[ebp]
	call	DWORD PTR __imp_?errorName@ErrorCode@icu_56@@QBEPBDXZ
	cmp	esi, esp
	call	__RTC_CheckEsp
	mov	esi, esp
	push	eax
	mov	eax, DWORD PTR _outFileName$[ebp]
	push	eax
	push	OFFSET ??_C@_0DA@LKPPJNIH@gendict?3?5could?5not?5open?5output?5f@
	mov	edi, esp
	call	DWORD PTR __imp____iob_func
	cmp	edi, esp
	call	__RTC_CheckEsp
	add	eax, 64					; 00000040H
	push	eax
	call	DWORD PTR __imp__fprintf
	add	esp, 16					; 00000010H
	cmp	esi, esp
	call	__RTC_CheckEsp
; Line 420
	mov	esi, esp
	lea	ecx, DWORD PTR _status$[ebp]
	call	DWORD PTR __imp_?reset@ErrorCode@icu_56@@QAE?AW4UErrorCode@@XZ
	cmp	esi, esp
	call	__RTC_CheckEsp
	mov	esi, esp
	push	eax
	call	DWORD PTR __imp__exit
	cmp	esi, esp
	call	__RTC_CheckEsp
$LN6@main:
; Line 423
	movsx	eax, BYTE PTR _verbose$[ebp]
	test	eax, eax
	je	SHORT $LN5@main
	mov	esi, esp
	push	OFFSET ??_C@_0BK@PHCFOODF@Writing?5to?5output?5file?4?4?4?$AA@
	call	DWORD PTR __imp__puts
	add	esp, 4
	cmp	esi, esp
	call	__RTC_CheckEsp
$LN5@main:
; Line 425
	mov	DWORD PTR _indexes$[ebp], 32		; 00000020H
	mov	DWORD PTR _indexes$[ebp+4], 0
	mov	DWORD PTR _indexes$[ebp+8], 0
	mov	DWORD PTR _indexes$[ebp+12], 0
	mov	DWORD PTR _indexes$[ebp+16], 0
	mov	DWORD PTR _indexes$[ebp+20], 0
	mov	DWORD PTR _indexes$[ebp+24], 0
; Line 426
	mov	DWORD PTR _indexes$[ebp+28], 0
; Line 427
	mov	eax, DWORD PTR _outDataSize$[ebp]
	add	eax, DWORD PTR _indexes$[ebp]
	mov	DWORD PTR _size$[ebp], eax
; Line 428
	mov	eax, DWORD PTR _size$[ebp]
	mov	DWORD PTR _indexes$[ebp+4], eax
; Line 429
	mov	eax, DWORD PTR _size$[ebp]
	mov	DWORD PTR _indexes$[ebp+8], eax
; Line 430
	mov	eax, DWORD PTR _size$[ebp]
	mov	DWORD PTR _indexes$[ebp+12], eax
; Line 432
	movsx	eax, BYTE PTR _isBytesTrie$[ebp]
	test	eax, eax
	je	SHORT $LN53@main
	mov	ecx, DWORD PTR __imp_?TRIE_TYPE_BYTES@DictionaryData@icu_56@@2HB
	mov	edx, DWORD PTR [ecx]
	mov	DWORD PTR tv653[ebp], edx
	jmp	SHORT $LN54@main
$LN53@main:
	mov	eax, DWORD PTR __imp_?TRIE_TYPE_UCHARS@DictionaryData@icu_56@@2HB
	mov	ecx, DWORD PTR [eax]
	mov	DWORD PTR tv653[ebp], ecx
$LN54@main:
	mov	edx, DWORD PTR tv653[ebp]
	mov	DWORD PTR _indexes$[ebp+16], edx
; Line 433
	movsx	eax, BYTE PTR _hasValues$[ebp]
	test	eax, eax
	je	SHORT $LN4@main
; Line 434
	mov	eax, DWORD PTR __imp_?TRIE_HAS_VALUES@DictionaryData@icu_56@@2HB
	mov	ecx, DWORD PTR _indexes$[ebp+16]
	or	ecx, DWORD PTR [eax]
	mov	DWORD PTR _indexes$[ebp+16], ecx
$LN4@main:
; Line 437
	lea	ecx, DWORD PTR _dict$[ebp]
	call	?getTransform@DataDict@@QAEHXZ		; DataDict::getTransform
	mov	DWORD PTR _indexes$[ebp+20], eax
; Line 438
	push	32					; 00000020H
	lea	eax, DWORD PTR _indexes$[ebp]
	push	eax
	mov	ecx, DWORD PTR _pData$[ebp]
	push	ecx
	call	_udata_writeBlock
	add	esp, 12					; 0000000cH
; Line 439
	mov	eax, DWORD PTR _outDataSize$[ebp]
	push	eax
	mov	ecx, DWORD PTR _outData$[ebp]
	push	ecx
	mov	edx, DWORD PTR _pData$[ebp]
	push	edx
	call	_udata_writeBlock
	add	esp, 12					; 0000000cH
; Line 440
	mov	esi, esp
	lea	ecx, DWORD PTR _status$[ebp]
	call	DWORD PTR __imp_??BErrorCode@icu_56@@QAEPAW4UErrorCode@@XZ
	cmp	esi, esp
	call	__RTC_CheckEsp
	push	eax
	mov	eax, DWORD PTR _pData$[ebp]
	push	eax
	call	_udata_finish
	add	esp, 8
	mov	DWORD PTR _bytesWritten$[ebp], eax
; Line 441
	mov	esi, esp
	lea	ecx, DWORD PTR _status$[ebp]
	call	DWORD PTR __imp_?isFailure@ErrorCode@icu_56@@QBECXZ
	cmp	esi, esp
	call	__RTC_CheckEsp
	movsx	eax, al
	test	eax, eax
	je	SHORT $LN3@main
; Line 442
	mov	esi, esp
	lea	ecx, DWORD PTR _status$[ebp]
	call	DWORD PTR __imp_?errorName@ErrorCode@icu_56@@QBEPBDXZ
	cmp	esi, esp
	call	__RTC_CheckEsp
	mov	esi, esp
	push	eax
	push	OFFSET ??_C@_0CN@HFEJBBAH@gendict?3?5error?5?$CC?$CFs?$CC?5writing?5the?5@
	mov	edi, esp
	call	DWORD PTR __imp____iob_func
	cmp	edi, esp
	call	__RTC_CheckEsp
	add	eax, 64					; 00000040H
	push	eax
	call	DWORD PTR __imp__fprintf
	add	esp, 12					; 0000000cH
	cmp	esi, esp
	call	__RTC_CheckEsp
; Line 443
	mov	esi, esp
	lea	ecx, DWORD PTR _status$[ebp]
	call	DWORD PTR __imp_?reset@ErrorCode@icu_56@@QAE?AW4UErrorCode@@XZ
	cmp	esi, esp
	call	__RTC_CheckEsp
	mov	esi, esp
	push	eax
	call	DWORD PTR __imp__exit
	cmp	esi, esp
	call	__RTC_CheckEsp
$LN3@main:
; Line 446
	mov	eax, DWORD PTR _bytesWritten$[ebp]
	cmp	eax, DWORD PTR _size$[ebp]
	je	SHORT $LN2@main
; Line 447
	mov	esi, esp
	mov	eax, DWORD PTR _outFileName$[ebp]
	push	eax
	push	OFFSET ??_C@_0CD@IEKCIACJ@Error?5writing?5to?5output?5file?5?$CC?$CFs@
	mov	edi, esp
	call	DWORD PTR __imp____iob_func
	cmp	edi, esp
	call	__RTC_CheckEsp
	add	eax, 64					; 00000040H
	push	eax
	call	DWORD PTR __imp__fprintf
	add	esp, 12					; 0000000cH
	cmp	esi, esp
	call	__RTC_CheckEsp
; Line 448
	mov	esi, esp
	push	5
	call	DWORD PTR __imp__exit
	cmp	esi, esp
	call	__RTC_CheckEsp
$LN2@main:
; Line 451
	movsx	eax, BYTE PTR _quiet$[ebp]
	test	eax, eax
	jne	SHORT $LN1@main
	call	?elapsedTime@@YAHXZ			; elapsedTime
	mov	esi, esp
	push	eax
	mov	eax, DWORD PTR _outFileName$[ebp]
	push	eax
	mov	ecx, DWORD PTR _progName
	push	ecx
	push	OFFSET ??_C@_0BM@EIKMGPLI@?$CFs?3?5done?5writing?7?$CFs?5?$CI?$CFds?$CJ?4?6?$AA@
	call	DWORD PTR __imp__printf
	add	esp, 16					; 00000010H
	cmp	esi, esp
	call	__RTC_CheckEsp
$LN1@main:
; Line 475
	mov	DWORD PTR $T44227[ebp], 0
	mov	BYTE PTR __$EHRec$[ebp+8], 2
	mov	esi, esp
	lea	ecx, DWORD PTR _usp$[ebp]
	call	DWORD PTR __imp_??1UnicodeString@icu_56@@UAE@XZ
	cmp	esi, esp
	call	__RTC_CheckEsp
	mov	BYTE PTR __$EHRec$[ebp+8], 1
	mov	esi, esp
	lea	ecx, DWORD PTR _fileLine$[ebp]
	call	DWORD PTR __imp_??1UnicodeString@icu_56@@UAE@XZ
	cmp	esi, esp
	call	__RTC_CheckEsp
	mov	BYTE PTR __$EHRec$[ebp+8], 0
	lea	ecx, DWORD PTR _dict$[ebp]
	call	??1DataDict@@QAE@XZ			; DataDict::~DataDict
	mov	DWORD PTR __$EHRec$[ebp+8], -1
	mov	esi, esp
	lea	ecx, DWORD PTR _status$[ebp]
	call	DWORD PTR __imp_??1IcuToolErrorCode@icu_56@@UAE@XZ
	cmp	esi, esp
	call	__RTC_CheckEsp
	mov	eax, DWORD PTR $T44227[ebp]
$LN49@main:
; Line 477
	push	edx
	mov	ecx, ebp
	push	eax
	lea	edx, DWORD PTR $LN76@main
	call	@_RTC_CheckStackVars@8
	pop	eax
	pop	edx
	mov	ecx, DWORD PTR __$EHRec$[ebp]
	mov	DWORD PTR fs:0, ecx
	pop	ecx
	pop	edi
	pop	esi
	pop	ebx
	mov	ecx, DWORD PTR __$ArrayPad$[ebp]
	xor	ecx, ebp
	call	@__security_check_cookie@4
	add	esp, 940				; 000003acH
	cmp	ebp, esp
	call	__RTC_CheckEsp
	mov	esp, ebp
	pop	ebp
	ret	0
	npad	1
$LN76@main:
	DD	9
	DD	$LN75@main
$LN75@main:
	DD	-104					; ffffff98H
	DD	12					; 0000000cH
	DD	$LN65@main
	DD	-116					; ffffff8cH
	DD	4
	DD	$LN66@main
	DD	-152					; ffffff68H
	DD	16					; 00000010H
	DD	$LN67@main
	DD	-224					; ffffff20H
	DD	64					; 00000040H
	DD	$LN68@main
	DD	-368					; fffffe90H
	DD	16					; 00000010H
	DD	$LN69@main
	DD	-380					; fffffe84H
	DD	4
	DD	$LN70@main
	DD	-488					; fffffe18H
	DD	64					; 00000040H
	DD	$LN71@main
	DD	-504					; fffffe08H
	DD	8
	DD	$LN72@main
	DD	-556					; fffffdd4H
	DD	32					; 00000020H
	DD	$LN73@main
$LN73@main:
	DB	105					; 00000069H
	DB	110					; 0000006eH
	DB	100					; 00000064H
	DB	101					; 00000065H
	DB	120					; 00000078H
	DB	101					; 00000065H
	DB	115					; 00000073H
	DB	0
$LN72@main:
	DB	115					; 00000073H
	DB	112					; 00000070H
	DB	0
$LN71@main:
	DB	117					; 00000075H
	DB	115					; 00000073H
	DB	112					; 00000070H
	DB	0
$LN70@main:
	DB	101					; 00000065H
	DB	110					; 0000006eH
	DB	100					; 00000064H
	DB	0
$LN69@main:
	DB	115					; 00000073H
	DB	0
$LN68@main:
	DB	102					; 00000066H
	DB	105					; 00000069H
	DB	108					; 0000006cH
	DB	101					; 00000065H
	DB	76					; 0000004cH
	DB	105					; 00000069H
	DB	110					; 0000006eH
	DB	101					; 00000065H
	DB	0
$LN67@main:
	DB	100					; 00000064H
	DB	105					; 00000069H
	DB	99					; 00000063H
	DB	116					; 00000074H
	DB	0
$LN66@main:
	DB	99					; 00000063H
	DB	111					; 0000006fH
	DB	100					; 00000064H
	DB	101					; 00000065H
	DB	112					; 00000070H
	DB	97					; 00000061H
	DB	103					; 00000067H
	DB	101					; 00000065H
	DB	0
$LN65@main:
	DB	115					; 00000073H
	DB	116					; 00000074H
	DB	97					; 00000061H
	DB	116					; 00000074H
	DB	117					; 00000075H
	DB	115					; 00000073H
	DB	0
_TEXT	ENDS
;	COMDAT text$x
text$x	SEGMENT
__unwindfunclet$_main$0:
	mov	esi, esp
	lea	ecx, DWORD PTR _status$[ebp]
	call	DWORD PTR __imp_??1IcuToolErrorCode@icu_56@@UAE@XZ
	cmp	esi, esp
	jmp	__RTC_CheckEsp
__unwindfunclet$_main$1:
	lea	ecx, DWORD PTR _dict$[ebp]
	jmp	??1DataDict@@QAE@XZ			; DataDict::~DataDict
__unwindfunclet$_main$2:
	mov	esi, esp
	lea	ecx, DWORD PTR _fileLine$[ebp]
	call	DWORD PTR __imp_??1UnicodeString@icu_56@@UAE@XZ
	cmp	esi, esp
	jmp	__RTC_CheckEsp
__unwindfunclet$_main$3:
	mov	esi, esp
	lea	ecx, DWORD PTR $T37232[ebp]
	call	DWORD PTR __imp_??1UnicodeString@icu_56@@UAE@XZ
	cmp	esi, esp
	jmp	__RTC_CheckEsp
__unwindfunclet$_main$4:
	mov	esi, esp
	lea	ecx, DWORD PTR $T37237[ebp]
	call	DWORD PTR __imp_??1UnicodeString@icu_56@@UAE@XZ
	cmp	esi, esp
	jmp	__RTC_CheckEsp
__unwindfunclet$_main$5:
	mov	esi, esp
	lea	ecx, DWORD PTR _usp$[ebp]
	call	DWORD PTR __imp_??1UnicodeString@icu_56@@UAE@XZ
	cmp	esi, esp
	jmp	__RTC_CheckEsp
__ehhandler$_main:
	mov	edx, DWORD PTR [esp+8]
	lea	eax, DWORD PTR [edx+12]
	mov	ecx, DWORD PTR [edx-944]
	xor	ecx, eax
	call	@__security_check_cookie@4
	mov	ecx, DWORD PTR [edx-4]
	xor	ecx, eax
	call	@__security_check_cookie@4
	mov	eax, OFFSET __ehfuncinfo$_main
	jmp	___CxxFrameHandler3
text$x	ENDS
_main	ENDP
PUBLIC	__real@408f400000000000
EXTRN	_uprv_floor_56:PROC
EXTRN	__ftol2_sse:PROC
;	COMDAT __real@408f400000000000
CONST	SEGMENT
__real@408f400000000000 DQ 0408f400000000000r	; 1000
; Function compile flags: /Odtp /RTCsu /ZI
CONST	ENDS
;	COMDAT ?elapsedTime@@YAHXZ
_TEXT	SEGMENT
?elapsedTime@@YAHXZ PROC				; elapsedTime, COMDAT
; Line 42
	push	ebp
	mov	ebp, esp
	sub	esp, 192				; 000000c0H
	push	ebx
	push	esi
	push	edi
	lea	edi, DWORD PTR [ebp-192]
	mov	ecx, 48					; 00000030H
	mov	eax, -858993460				; ccccccccH
	rep stosd
; Line 43
	call	_uprv_getRawUTCtime_56
	fsub	QWORD PTR ?startTime@@3NA		; startTime
	fdiv	QWORD PTR __real@408f400000000000
	sub	esp, 8
	fstp	QWORD PTR [esp]
	call	_uprv_floor_56
	add	esp, 8
	call	__ftol2_sse
; Line 44
	pop	edi
	pop	esi
	pop	ebx
	add	esp, 192				; 000000c0H
	cmp	ebp, esp
	call	__RTC_CheckEsp
	mov	esp, ebp
	pop	ebp
	ret	0
?elapsedTime@@YAHXZ ENDP				; elapsedTime
_TEXT	ENDS
PUBLIC	??_C@_0CNO@PCAFBOMG@?7Read?5in?5a?5word?5list?5and?5write?5o@ ; `string'
PUBLIC	??_C@_0EC@FEFIBPMC@Usage?3?5?$CFs?5?9trietype?5?$FL?9options?$FN?5i@ ; `string'
EXTRN	_u_getDataDirectory_56:PROC
;	COMDAT ??_C@_0CNO@PCAFBOMG@?7Read?5in?5a?5word?5list?5and?5write?5o@
CONST	SEGMENT
??_C@_0CNO@PCAFBOMG@?7Read?5in?5a?5word?5list?5and?5write?5o@ DB 09H, 'Re'
	DB	'ad in a word list and write out a string trie dictionary', 0aH
	DB	'options:', 0aH, 09H, '-h or -? or --help  this usage text', 0aH
	DB	09H, '-V or --version     show a version message', 0aH, 09H, '-'
	DB	'c or --copyright   include a copyright notice', 0aH, 09H, '-v'
	DB	' or --verbose     turn on verbose output', 0aH, 09H, '-q or -'
	DB	'-quiet       do not display warnings and progress', 0aH, 09H, '-'
	DB	'i or --icudatadir  directory for locating any needed intermed'
	DB	'iate data files,', 0aH, 09H, '                    followed by'
	DB	' path, defaults to %s', 0aH, 09H, '--uchars            output'
	DB	' a UCharsTrie (mutually exclusive with -b!)', 0aH, 09H, '--by'
	DB	'tes             output a BytesTrie (mutually exclusive with -'
	DB	'u!)', 0aH, 09H, '--transform         the kind of transform to'
	DB	' use (eg --transform offset-40A3,', 0aH, 09H, '              '
	DB	'      which specifies an offset transform with constant 0x40A'
	DB	'3)', 0aH, 00H				; `string'
CONST	ENDS
;	COMDAT ??_C@_0EC@FEFIBPMC@Usage?3?5?$CFs?5?9trietype?5?$FL?9options?$FN?5i@
CONST	SEGMENT
??_C@_0EC@FEFIBPMC@Usage?3?5?$CFs?5?9trietype?5?$FL?9options?$FN?5i@ DB 'U'
	DB	'sage: %s -trietype [-options] input-dictionary-file output-fi'
	DB	'le', 0aH, 00H				; `string'
; Function compile flags: /Odtp /RTCsu /ZI
CONST	ENDS
;	COMDAT ?usageAndDie@@YAXW4UErrorCode@@@Z
_TEXT	SEGMENT
tv88 = -196						; size = 4
tv75 = -196						; size = 4
_retCode$ = 8						; size = 4
?usageAndDie@@YAXW4UErrorCode@@@Z PROC			; usageAndDie, COMDAT
; Line 75
	push	ebp
	mov	ebp, esp
	sub	esp, 196				; 000000c4H
	push	ebx
	push	esi
	push	edi
	lea	edi, DWORD PTR [ebp-196]
	mov	ecx, 49					; 00000031H
	mov	eax, -858993460				; ccccccccH
	rep stosd
; Line 76
	mov	eax, DWORD PTR _retCode$[ebp]
	push	eax
	call	?U_SUCCESS@@YACW4UErrorCode@@@Z		; U_SUCCESS
	add	esp, 4
	movsx	ecx, al
	test	ecx, ecx
	je	SHORT $LN3@usageAndDi
	mov	esi, esp
	call	DWORD PTR __imp____iob_func
	cmp	esi, esp
	call	__RTC_CheckEsp
	add	eax, 32					; 00000020H
	mov	DWORD PTR tv75[ebp], eax
	jmp	SHORT $LN4@usageAndDi
$LN3@usageAndDi:
	mov	esi, esp
	call	DWORD PTR __imp____iob_func
	cmp	esi, esp
	call	__RTC_CheckEsp
	add	eax, 64					; 00000040H
	mov	DWORD PTR tv75[ebp], eax
$LN4@usageAndDi:
	mov	esi, esp
	mov	edx, DWORD PTR _progName
	push	edx
	push	OFFSET ??_C@_0EC@FEFIBPMC@Usage?3?5?$CFs?5?9trietype?5?$FL?9options?$FN?5i@
	mov	eax, DWORD PTR tv75[ebp]
	push	eax
	call	DWORD PTR __imp__fprintf
	add	esp, 12					; 0000000cH
	cmp	esi, esp
	call	__RTC_CheckEsp
; Line 91
	mov	eax, DWORD PTR _retCode$[ebp]
	push	eax
	call	?U_SUCCESS@@YACW4UErrorCode@@@Z		; U_SUCCESS
	add	esp, 4
	movsx	ecx, al
	test	ecx, ecx
	je	SHORT $LN5@usageAndDi
	mov	esi, esp
	call	DWORD PTR __imp____iob_func
	cmp	esi, esp
	call	__RTC_CheckEsp
	add	eax, 32					; 00000020H
	mov	DWORD PTR tv88[ebp], eax
	jmp	SHORT $LN6@usageAndDi
$LN5@usageAndDi:
	mov	esi, esp
	call	DWORD PTR __imp____iob_func
	cmp	esi, esp
	call	__RTC_CheckEsp
	add	eax, 64					; 00000040H
	mov	DWORD PTR tv88[ebp], eax
$LN6@usageAndDi:
	call	_u_getDataDirectory_56
	mov	esi, esp
	push	eax
	push	OFFSET ??_C@_0CNO@PCAFBOMG@?7Read?5in?5a?5word?5list?5and?5write?5o@
	mov	edx, DWORD PTR tv88[ebp]
	push	edx
	call	DWORD PTR __imp__fprintf
	add	esp, 12					; 0000000cH
	cmp	esi, esp
	call	__RTC_CheckEsp
; Line 92
	mov	esi, esp
	mov	eax, DWORD PTR _retCode$[ebp]
	push	eax
	call	DWORD PTR __imp__exit
	cmp	esi, esp
	call	__RTC_CheckEsp
$LN2@usageAndDi:
; Line 93
	pop	edi
	pop	esi
	pop	ebx
	add	esp, 196				; 000000c4H
	cmp	ebp, esp
	call	__RTC_CheckEsp
	mov	esp, ebp
	pop	ebp
	ret	0
?usageAndDie@@YAXW4UErrorCode@@@Z ENDP			; usageAndDie
; Function compile flags: /Odtp /RTCsu /ZI
_TEXT	ENDS
;	COMDAT ?U_SUCCESS@@YACW4UErrorCode@@@Z
_TEXT	SEGMENT
_code$ = 8						; size = 4
?U_SUCCESS@@YACW4UErrorCode@@@Z PROC			; U_SUCCESS, COMDAT
; File d:\mozilla\intl\icu\source\common\unicode\utypes.h
; Line 699
	push	ebp
	mov	ebp, esp
	sub	esp, 192				; 000000c0H
	push	ebx
	push	esi
	push	edi
	lea	edi, DWORD PTR [ebp-192]
	mov	ecx, 48					; 00000030H
	mov	eax, -858993460				; ccccccccH
	rep stosd
	cmp	DWORD PTR _code$[ebp], 0
	setle	al
	pop	edi
	pop	esi
	pop	ebx
	mov	esp, ebp
	pop	ebp
	ret	0
?U_SUCCESS@@YACW4UErrorCode@@@Z ENDP			; U_SUCCESS
_TEXT	ENDS
PUBLIC	??_SUCharsTrieBuilder@icu_56@@6B@		; icu_56::UCharsTrieBuilder::`local vftable'
PUBLIC	??_SBytesTrieBuilder@icu_56@@6B@		; icu_56::BytesTrieBuilder::`local vftable'
PUBLIC	??_R4BytesTrieBuilder@icu_56@@6B@		; icu_56::BytesTrieBuilder::`RTTI Complete Object Locator'
PUBLIC	??_R0?AVBytesTrieBuilder@icu_56@@@8		; icu_56::BytesTrieBuilder `RTTI Type Descriptor'
PUBLIC	??_R3BytesTrieBuilder@icu_56@@8			; icu_56::BytesTrieBuilder::`RTTI Class Hierarchy Descriptor'
PUBLIC	??_R2BytesTrieBuilder@icu_56@@8			; icu_56::BytesTrieBuilder::`RTTI Base Class Array'
PUBLIC	??_R1A@?0A@EA@BytesTrieBuilder@icu_56@@8	; icu_56::BytesTrieBuilder::`RTTI Base Class Descriptor at (0,-1,0,64)'
PUBLIC	??_R1A@?0A@EA@StringTrieBuilder@icu_56@@8	; icu_56::StringTrieBuilder::`RTTI Base Class Descriptor at (0,-1,0,64)'
PUBLIC	??_R0?AVStringTrieBuilder@icu_56@@@8		; icu_56::StringTrieBuilder `RTTI Type Descriptor'
PUBLIC	??_R3StringTrieBuilder@icu_56@@8		; icu_56::StringTrieBuilder::`RTTI Class Hierarchy Descriptor'
PUBLIC	??_R2StringTrieBuilder@icu_56@@8		; icu_56::StringTrieBuilder::`RTTI Base Class Array'
PUBLIC	??_R1A@?0A@EA@UObject@icu_56@@8			; icu_56::UObject::`RTTI Base Class Descriptor at (0,-1,0,64)'
PUBLIC	??_R0?AVUObject@icu_56@@@8			; icu_56::UObject `RTTI Type Descriptor'
PUBLIC	??_R3UObject@icu_56@@8				; icu_56::UObject::`RTTI Class Hierarchy Descriptor'
PUBLIC	??_R2UObject@icu_56@@8				; icu_56::UObject::`RTTI Base Class Array'
PUBLIC	??_R13?0A@EA@UMemory@icu_56@@8			; icu_56::UMemory::`RTTI Base Class Descriptor at (4,-1,0,64)'
PUBLIC	??_R0?AVUMemory@icu_56@@@8			; icu_56::UMemory `RTTI Type Descriptor'
PUBLIC	??_R3UMemory@icu_56@@8				; icu_56::UMemory::`RTTI Class Hierarchy Descriptor'
PUBLIC	??_R2UMemory@icu_56@@8				; icu_56::UMemory::`RTTI Base Class Array'
PUBLIC	??_R1A@?0A@EA@UMemory@icu_56@@8			; icu_56::UMemory::`RTTI Base Class Descriptor at (0,-1,0,64)'
PUBLIC	??_R4UCharsTrieBuilder@icu_56@@6B@		; icu_56::UCharsTrieBuilder::`RTTI Complete Object Locator'
PUBLIC	??_R0?AVUCharsTrieBuilder@icu_56@@@8		; icu_56::UCharsTrieBuilder `RTTI Type Descriptor'
PUBLIC	??_R3UCharsTrieBuilder@icu_56@@8		; icu_56::UCharsTrieBuilder::`RTTI Class Hierarchy Descriptor'
PUBLIC	??_R2UCharsTrieBuilder@icu_56@@8		; icu_56::UCharsTrieBuilder::`RTTI Base Class Array'
PUBLIC	??_R1A@?0A@EA@UCharsTrieBuilder@icu_56@@8	; icu_56::UCharsTrieBuilder::`RTTI Base Class Descriptor at (0,-1,0,64)'
EXTRN	__imp_??3UMemory@icu_56@@SAXPAX@Z:PROC
EXTRN	__imp_??0UCharsTrieBuilder@icu_56@@QAE@AAW4UErrorCode@@@Z:PROC
EXTRN	__imp_??0BytesTrieBuilder@icu_56@@QAE@AAW4UErrorCode@@@Z:PROC
EXTRN	__imp_??2UMemory@icu_56@@SAPAXI@Z:PROC
EXTRN	__imp_?TRANSFORM_NONE@DictionaryData@icu_56@@2HB:DWORD
EXTRN	??_7type_info@@6B@:QWORD			; type_info::`vftable'
EXTRN	??_EBytesTrieBuilder@icu_56@@UAEPAXI@Z:PROC	; icu_56::BytesTrieBuilder::`vector deleting destructor'
EXTRN	?getDynamicClassID@UObject@icu_56@@UBEPAXXZ:PROC ; icu_56::UObject::getDynamicClassID
EXTRN	?getElementStringLength@BytesTrieBuilder@icu_56@@EBEHH@Z:PROC ; icu_56::BytesTrieBuilder::getElementStringLength
EXTRN	?getElementUnit@BytesTrieBuilder@icu_56@@EBE_WHH@Z:PROC ; icu_56::BytesTrieBuilder::getElementUnit
EXTRN	?getElementValue@BytesTrieBuilder@icu_56@@EBEHH@Z:PROC ; icu_56::BytesTrieBuilder::getElementValue
EXTRN	?getLimitOfLinearMatch@BytesTrieBuilder@icu_56@@EBEHHHH@Z:PROC ; icu_56::BytesTrieBuilder::getLimitOfLinearMatch
EXTRN	?countElementUnits@BytesTrieBuilder@icu_56@@EBEHHHH@Z:PROC ; icu_56::BytesTrieBuilder::countElementUnits
EXTRN	?skipElementsBySomeUnits@BytesTrieBuilder@icu_56@@EBEHHHH@Z:PROC ; icu_56::BytesTrieBuilder::skipElementsBySomeUnits
EXTRN	?indexOfElementWithNextUnit@BytesTrieBuilder@icu_56@@EBEHHH_W@Z:PROC ; icu_56::BytesTrieBuilder::indexOfElementWithNextUnit
EXTRN	?matchNodesCanHaveValues@BytesTrieBuilder@icu_56@@EBECXZ:PROC ; icu_56::BytesTrieBuilder::matchNodesCanHaveValues
EXTRN	?getMaxBranchLinearSubNodeLength@BytesTrieBuilder@icu_56@@EBEHXZ:PROC ; icu_56::BytesTrieBuilder::getMaxBranchLinearSubNodeLength
EXTRN	?getMinLinearMatch@BytesTrieBuilder@icu_56@@EBEHXZ:PROC ; icu_56::BytesTrieBuilder::getMinLinearMatch
EXTRN	?getMaxLinearMatchLength@BytesTrieBuilder@icu_56@@EBEHXZ:PROC ; icu_56::BytesTrieBuilder::getMaxLinearMatchLength
EXTRN	?createLinearMatchNode@BytesTrieBuilder@icu_56@@EBEPAVNode@StringTrieBuilder@2@HHHPAV342@@Z:PROC ; icu_56::BytesTrieBuilder::createLinearMatchNode
EXTRN	?write@BytesTrieBuilder@icu_56@@EAEHH@Z:PROC	; icu_56::BytesTrieBuilder::write
EXTRN	?writeElementUnits@BytesTrieBuilder@icu_56@@EAEHHHH@Z:PROC ; icu_56::BytesTrieBuilder::writeElementUnits
EXTRN	?writeValueAndFinal@BytesTrieBuilder@icu_56@@EAEHHC@Z:PROC ; icu_56::BytesTrieBuilder::writeValueAndFinal
EXTRN	?writeValueAndType@BytesTrieBuilder@icu_56@@EAEHCHH@Z:PROC ; icu_56::BytesTrieBuilder::writeValueAndType
EXTRN	?writeDeltaTo@BytesTrieBuilder@icu_56@@EAEHH@Z:PROC ; icu_56::BytesTrieBuilder::writeDeltaTo
EXTRN	??_EUCharsTrieBuilder@icu_56@@UAEPAXI@Z:PROC	; icu_56::UCharsTrieBuilder::`vector deleting destructor'
EXTRN	?getElementStringLength@UCharsTrieBuilder@icu_56@@EBEHH@Z:PROC ; icu_56::UCharsTrieBuilder::getElementStringLength
EXTRN	?getElementUnit@UCharsTrieBuilder@icu_56@@EBE_WHH@Z:PROC ; icu_56::UCharsTrieBuilder::getElementUnit
EXTRN	?getElementValue@UCharsTrieBuilder@icu_56@@EBEHH@Z:PROC ; icu_56::UCharsTrieBuilder::getElementValue
EXTRN	?getLimitOfLinearMatch@UCharsTrieBuilder@icu_56@@EBEHHHH@Z:PROC ; icu_56::UCharsTrieBuilder::getLimitOfLinearMatch
EXTRN	?countElementUnits@UCharsTrieBuilder@icu_56@@EBEHHHH@Z:PROC ; icu_56::UCharsTrieBuilder::countElementUnits
EXTRN	?skipElementsBySomeUnits@UCharsTrieBuilder@icu_56@@EBEHHHH@Z:PROC ; icu_56::UCharsTrieBuilder::skipElementsBySomeUnits
EXTRN	?indexOfElementWithNextUnit@UCharsTrieBuilder@icu_56@@EBEHHH_W@Z:PROC ; icu_56::UCharsTrieBuilder::indexOfElementWithNextUnit
EXTRN	?matchNodesCanHaveValues@UCharsTrieBuilder@icu_56@@EBECXZ:PROC ; icu_56::UCharsTrieBuilder::matchNodesCanHaveValues
EXTRN	?getMaxBranchLinearSubNodeLength@UCharsTrieBuilder@icu_56@@EBEHXZ:PROC ; icu_56::UCharsTrieBuilder::getMaxBranchLinearSubNodeLength
EXTRN	?getMinLinearMatch@UCharsTrieBuilder@icu_56@@EBEHXZ:PROC ; icu_56::UCharsTrieBuilder::getMinLinearMatch
EXTRN	?getMaxLinearMatchLength@UCharsTrieBuilder@icu_56@@EBEHXZ:PROC ; icu_56::UCharsTrieBuilder::getMaxLinearMatchLength
EXTRN	?createLinearMatchNode@UCharsTrieBuilder@icu_56@@EBEPAVNode@StringTrieBuilder@2@HHHPAV342@@Z:PROC ; icu_56::UCharsTrieBuilder::createLinearMatchNode
EXTRN	?write@UCharsTrieBuilder@icu_56@@EAEHH@Z:PROC	; icu_56::UCharsTrieBuilder::write
EXTRN	?writeElementUnits@UCharsTrieBuilder@icu_56@@EAEHHHH@Z:PROC ; icu_56::UCharsTrieBuilder::writeElementUnits
EXTRN	?writeValueAndFinal@UCharsTrieBuilder@icu_56@@EAEHHC@Z:PROC ; icu_56::UCharsTrieBuilder::writeValueAndFinal
EXTRN	?writeValueAndType@UCharsTrieBuilder@icu_56@@EAEHCHH@Z:PROC ; icu_56::UCharsTrieBuilder::writeValueAndType
EXTRN	?writeDeltaTo@UCharsTrieBuilder@icu_56@@EAEHH@Z:PROC ; icu_56::UCharsTrieBuilder::writeDeltaTo
;	COMDAT ??_R1A@?0A@EA@UCharsTrieBuilder@icu_56@@8
; File d:\mozilla\intl\icu\source\tools\gendict\gendict.cpp
rdata$r	SEGMENT
??_R1A@?0A@EA@UCharsTrieBuilder@icu_56@@8 DD FLAT:??_R0?AVUCharsTrieBuilder@icu_56@@@8 ; icu_56::UCharsTrieBuilder::`RTTI Base Class Descriptor at (0,-1,0,64)'
	DD	03H
	DD	00H
	DD	0ffffffffH
	DD	00H
	DD	040H
	DD	FLAT:??_R3UCharsTrieBuilder@icu_56@@8
rdata$r	ENDS
;	COMDAT ??_R2UCharsTrieBuilder@icu_56@@8
rdata$r	SEGMENT
??_R2UCharsTrieBuilder@icu_56@@8 DD FLAT:??_R1A@?0A@EA@UCharsTrieBuilder@icu_56@@8 ; icu_56::UCharsTrieBuilder::`RTTI Base Class Array'
	DD	FLAT:??_R1A@?0A@EA@StringTrieBuilder@icu_56@@8
	DD	FLAT:??_R1A@?0A@EA@UObject@icu_56@@8
	DD	FLAT:??_R13?0A@EA@UMemory@icu_56@@8
rdata$r	ENDS
;	COMDAT ??_R3UCharsTrieBuilder@icu_56@@8
rdata$r	SEGMENT
??_R3UCharsTrieBuilder@icu_56@@8 DD 00H			; icu_56::UCharsTrieBuilder::`RTTI Class Hierarchy Descriptor'
	DD	00H
	DD	04H
	DD	FLAT:??_R2UCharsTrieBuilder@icu_56@@8
rdata$r	ENDS
;	COMDAT ??_R0?AVUCharsTrieBuilder@icu_56@@@8
_DATA	SEGMENT
??_R0?AVUCharsTrieBuilder@icu_56@@@8 DD FLAT:??_7type_info@@6B@ ; icu_56::UCharsTrieBuilder `RTTI Type Descriptor'
	DD	00H
	DB	'.?AVUCharsTrieBuilder@icu_56@@', 00H
_DATA	ENDS
;	COMDAT ??_R4UCharsTrieBuilder@icu_56@@6B@
rdata$r	SEGMENT
??_R4UCharsTrieBuilder@icu_56@@6B@ DD 00H		; icu_56::UCharsTrieBuilder::`RTTI Complete Object Locator'
	DD	00H
	DD	00H
	DD	FLAT:??_R0?AVUCharsTrieBuilder@icu_56@@@8
	DD	FLAT:??_R3UCharsTrieBuilder@icu_56@@8
rdata$r	ENDS
;	COMDAT ??_R1A@?0A@EA@UMemory@icu_56@@8
rdata$r	SEGMENT
??_R1A@?0A@EA@UMemory@icu_56@@8 DD FLAT:??_R0?AVUMemory@icu_56@@@8 ; icu_56::UMemory::`RTTI Base Class Descriptor at (0,-1,0,64)'
	DD	00H
	DD	00H
	DD	0ffffffffH
	DD	00H
	DD	040H
	DD	FLAT:??_R3UMemory@icu_56@@8
rdata$r	ENDS
;	COMDAT ??_R2UMemory@icu_56@@8
rdata$r	SEGMENT
??_R2UMemory@icu_56@@8 DD FLAT:??_R1A@?0A@EA@UMemory@icu_56@@8 ; icu_56::UMemory::`RTTI Base Class Array'
rdata$r	ENDS
;	COMDAT ??_R3UMemory@icu_56@@8
rdata$r	SEGMENT
??_R3UMemory@icu_56@@8 DD 00H				; icu_56::UMemory::`RTTI Class Hierarchy Descriptor'
	DD	00H
	DD	01H
	DD	FLAT:??_R2UMemory@icu_56@@8
rdata$r	ENDS
;	COMDAT ??_R0?AVUMemory@icu_56@@@8
_DATA	SEGMENT
??_R0?AVUMemory@icu_56@@@8 DD FLAT:??_7type_info@@6B@	; icu_56::UMemory `RTTI Type Descriptor'
	DD	00H
	DB	'.?AVUMemory@icu_56@@', 00H
_DATA	ENDS
;	COMDAT ??_R13?0A@EA@UMemory@icu_56@@8
rdata$r	SEGMENT
??_R13?0A@EA@UMemory@icu_56@@8 DD FLAT:??_R0?AVUMemory@icu_56@@@8 ; icu_56::UMemory::`RTTI Base Class Descriptor at (4,-1,0,64)'
	DD	00H
	DD	04H
	DD	0ffffffffH
	DD	00H
	DD	040H
	DD	FLAT:??_R3UMemory@icu_56@@8
rdata$r	ENDS
;	COMDAT ??_R2UObject@icu_56@@8
rdata$r	SEGMENT
??_R2UObject@icu_56@@8 DD FLAT:??_R1A@?0A@EA@UObject@icu_56@@8 ; icu_56::UObject::`RTTI Base Class Array'
	DD	FLAT:??_R13?0A@EA@UMemory@icu_56@@8
rdata$r	ENDS
;	COMDAT ??_R3UObject@icu_56@@8
rdata$r	SEGMENT
??_R3UObject@icu_56@@8 DD 00H				; icu_56::UObject::`RTTI Class Hierarchy Descriptor'
	DD	00H
	DD	02H
	DD	FLAT:??_R2UObject@icu_56@@8
rdata$r	ENDS
;	COMDAT ??_R0?AVUObject@icu_56@@@8
_DATA	SEGMENT
??_R0?AVUObject@icu_56@@@8 DD FLAT:??_7type_info@@6B@	; icu_56::UObject `RTTI Type Descriptor'
	DD	00H
	DB	'.?AVUObject@icu_56@@', 00H
_DATA	ENDS
;	COMDAT ??_R1A@?0A@EA@UObject@icu_56@@8
rdata$r	SEGMENT
??_R1A@?0A@EA@UObject@icu_56@@8 DD FLAT:??_R0?AVUObject@icu_56@@@8 ; icu_56::UObject::`RTTI Base Class Descriptor at (0,-1,0,64)'
	DD	01H
	DD	00H
	DD	0ffffffffH
	DD	00H
	DD	040H
	DD	FLAT:??_R3UObject@icu_56@@8
rdata$r	ENDS
;	COMDAT ??_R2StringTrieBuilder@icu_56@@8
rdata$r	SEGMENT
??_R2StringTrieBuilder@icu_56@@8 DD FLAT:??_R1A@?0A@EA@StringTrieBuilder@icu_56@@8 ; icu_56::StringTrieBuilder::`RTTI Base Class Array'
	DD	FLAT:??_R1A@?0A@EA@UObject@icu_56@@8
	DD	FLAT:??_R13?0A@EA@UMemory@icu_56@@8
rdata$r	ENDS
;	COMDAT ??_R3StringTrieBuilder@icu_56@@8
rdata$r	SEGMENT
??_R3StringTrieBuilder@icu_56@@8 DD 00H			; icu_56::StringTrieBuilder::`RTTI Class Hierarchy Descriptor'
	DD	00H
	DD	03H
	DD	FLAT:??_R2StringTrieBuilder@icu_56@@8
rdata$r	ENDS
;	COMDAT ??_R0?AVStringTrieBuilder@icu_56@@@8
_DATA	SEGMENT
??_R0?AVStringTrieBuilder@icu_56@@@8 DD FLAT:??_7type_info@@6B@ ; icu_56::StringTrieBuilder `RTTI Type Descriptor'
	DD	00H
	DB	'.?AVStringTrieBuilder@icu_56@@', 00H
_DATA	ENDS
;	COMDAT ??_R1A@?0A@EA@StringTrieBuilder@icu_56@@8
rdata$r	SEGMENT
??_R1A@?0A@EA@StringTrieBuilder@icu_56@@8 DD FLAT:??_R0?AVStringTrieBuilder@icu_56@@@8 ; icu_56::StringTrieBuilder::`RTTI Base Class Descriptor at (0,-1,0,64)'
	DD	02H
	DD	00H
	DD	0ffffffffH
	DD	00H
	DD	040H
	DD	FLAT:??_R3StringTrieBuilder@icu_56@@8
rdata$r	ENDS
;	COMDAT ??_R1A@?0A@EA@BytesTrieBuilder@icu_56@@8
rdata$r	SEGMENT
??_R1A@?0A@EA@BytesTrieBuilder@icu_56@@8 DD FLAT:??_R0?AVBytesTrieBuilder@icu_56@@@8 ; icu_56::BytesTrieBuilder::`RTTI Base Class Descriptor at (0,-1,0,64)'
	DD	03H
	DD	00H
	DD	0ffffffffH
	DD	00H
	DD	040H
	DD	FLAT:??_R3BytesTrieBuilder@icu_56@@8
rdata$r	ENDS
;	COMDAT ??_R2BytesTrieBuilder@icu_56@@8
rdata$r	SEGMENT
??_R2BytesTrieBuilder@icu_56@@8 DD FLAT:??_R1A@?0A@EA@BytesTrieBuilder@icu_56@@8 ; icu_56::BytesTrieBuilder::`RTTI Base Class Array'
	DD	FLAT:??_R1A@?0A@EA@StringTrieBuilder@icu_56@@8
	DD	FLAT:??_R1A@?0A@EA@UObject@icu_56@@8
	DD	FLAT:??_R13?0A@EA@UMemory@icu_56@@8
rdata$r	ENDS
;	COMDAT ??_R3BytesTrieBuilder@icu_56@@8
rdata$r	SEGMENT
??_R3BytesTrieBuilder@icu_56@@8 DD 00H			; icu_56::BytesTrieBuilder::`RTTI Class Hierarchy Descriptor'
	DD	00H
	DD	04H
	DD	FLAT:??_R2BytesTrieBuilder@icu_56@@8
rdata$r	ENDS
;	COMDAT ??_R0?AVBytesTrieBuilder@icu_56@@@8
_DATA	SEGMENT
??_R0?AVBytesTrieBuilder@icu_56@@@8 DD FLAT:??_7type_info@@6B@ ; icu_56::BytesTrieBuilder `RTTI Type Descriptor'
	DD	00H
	DB	'.?AVBytesTrieBuilder@icu_56@@', 00H
_DATA	ENDS
;	COMDAT ??_R4BytesTrieBuilder@icu_56@@6B@
rdata$r	SEGMENT
??_R4BytesTrieBuilder@icu_56@@6B@ DD 00H		; icu_56::BytesTrieBuilder::`RTTI Complete Object Locator'
	DD	00H
	DD	00H
	DD	FLAT:??_R0?AVBytesTrieBuilder@icu_56@@@8
	DD	FLAT:??_R3BytesTrieBuilder@icu_56@@8
rdata$r	ENDS
;	COMDAT ??_SUCharsTrieBuilder@icu_56@@6B@
CONST	SEGMENT
??_SUCharsTrieBuilder@icu_56@@6B@ DD FLAT:??_R4UCharsTrieBuilder@icu_56@@6B@ ; icu_56::UCharsTrieBuilder::`local vftable'
	DD	FLAT:??_EUCharsTrieBuilder@icu_56@@UAEPAXI@Z
	DD	FLAT:?getDynamicClassID@UObject@icu_56@@UBEPAXXZ
	DD	FLAT:?getElementStringLength@UCharsTrieBuilder@icu_56@@EBEHH@Z
	DD	FLAT:?getElementUnit@UCharsTrieBuilder@icu_56@@EBE_WHH@Z
	DD	FLAT:?getElementValue@UCharsTrieBuilder@icu_56@@EBEHH@Z
	DD	FLAT:?getLimitOfLinearMatch@UCharsTrieBuilder@icu_56@@EBEHHHH@Z
	DD	FLAT:?countElementUnits@UCharsTrieBuilder@icu_56@@EBEHHHH@Z
	DD	FLAT:?skipElementsBySomeUnits@UCharsTrieBuilder@icu_56@@EBEHHHH@Z
	DD	FLAT:?indexOfElementWithNextUnit@UCharsTrieBuilder@icu_56@@EBEHHH_W@Z
	DD	FLAT:?matchNodesCanHaveValues@UCharsTrieBuilder@icu_56@@EBECXZ
	DD	FLAT:?getMaxBranchLinearSubNodeLength@UCharsTrieBuilder@icu_56@@EBEHXZ
	DD	FLAT:?getMinLinearMatch@UCharsTrieBuilder@icu_56@@EBEHXZ
	DD	FLAT:?getMaxLinearMatchLength@UCharsTrieBuilder@icu_56@@EBEHXZ
	DD	FLAT:?createLinearMatchNode@UCharsTrieBuilder@icu_56@@EBEPAVNode@StringTrieBuilder@2@HHHPAV342@@Z
	DD	FLAT:?write@UCharsTrieBuilder@icu_56@@EAEHH@Z
	DD	FLAT:?writeElementUnits@UCharsTrieBuilder@icu_56@@EAEHHHH@Z
	DD	FLAT:?writeValueAndFinal@UCharsTrieBuilder@icu_56@@EAEHHC@Z
	DD	FLAT:?writeValueAndType@UCharsTrieBuilder@icu_56@@EAEHCHH@Z
	DD	FLAT:?writeDeltaTo@UCharsTrieBuilder@icu_56@@EAEHH@Z
CONST	ENDS
;	COMDAT ??_SBytesTrieBuilder@icu_56@@6B@
CONST	SEGMENT
??_SBytesTrieBuilder@icu_56@@6B@ DD FLAT:??_R4BytesTrieBuilder@icu_56@@6B@ ; icu_56::BytesTrieBuilder::`local vftable'
	DD	FLAT:??_EBytesTrieBuilder@icu_56@@UAEPAXI@Z
	DD	FLAT:?getDynamicClassID@UObject@icu_56@@UBEPAXXZ
	DD	FLAT:?getElementStringLength@BytesTrieBuilder@icu_56@@EBEHH@Z
	DD	FLAT:?getElementUnit@BytesTrieBuilder@icu_56@@EBE_WHH@Z
	DD	FLAT:?getElementValue@BytesTrieBuilder@icu_56@@EBEHH@Z
	DD	FLAT:?getLimitOfLinearMatch@BytesTrieBuilder@icu_56@@EBEHHHH@Z
	DD	FLAT:?countElementUnits@BytesTrieBuilder@icu_56@@EBEHHHH@Z
	DD	FLAT:?skipElementsBySomeUnits@BytesTrieBuilder@icu_56@@EBEHHHH@Z
	DD	FLAT:?indexOfElementWithNextUnit@BytesTrieBuilder@icu_56@@EBEHHH_W@Z
	DD	FLAT:?matchNodesCanHaveValues@BytesTrieBuilder@icu_56@@EBECXZ
	DD	FLAT:?getMaxBranchLinearSubNodeLength@BytesTrieBuilder@icu_56@@EBEHXZ
	DD	FLAT:?getMinLinearMatch@BytesTrieBuilder@icu_56@@EBEHXZ
	DD	FLAT:?getMaxLinearMatchLength@BytesTrieBuilder@icu_56@@EBEHXZ
	DD	FLAT:?createLinearMatchNode@BytesTrieBuilder@icu_56@@EBEPAVNode@StringTrieBuilder@2@HHHPAV342@@Z
	DD	FLAT:?write@BytesTrieBuilder@icu_56@@EAEHH@Z
	DD	FLAT:?writeElementUnits@BytesTrieBuilder@icu_56@@EAEHHHH@Z
	DD	FLAT:?writeValueAndFinal@BytesTrieBuilder@icu_56@@EAEHHC@Z
	DD	FLAT:?writeValueAndType@BytesTrieBuilder@icu_56@@EAEHCHH@Z
	DD	FLAT:?writeDeltaTo@BytesTrieBuilder@icu_56@@EAEHH@Z
CONST	ENDS
;	COMDAT xdata$x
xdata$x	SEGMENT
__unwindtable$??0DataDict@@QAE@CAAW4UErrorCode@@@Z DD 0ffffffffH
	DD	FLAT:__unwindfunclet$??0DataDict@@QAE@CAAW4UErrorCode@@@Z$0
	DD	0ffffffffH
	DD	FLAT:__unwindfunclet$??0DataDict@@QAE@CAAW4UErrorCode@@@Z$1
__ehfuncinfo$??0DataDict@@QAE@CAAW4UErrorCode@@@Z DD 019930522H
	DD	02H
	DD	FLAT:__unwindtable$??0DataDict@@QAE@CAAW4UErrorCode@@@Z
	DD	2 DUP(00H)
	DD	2 DUP(00H)
	DD	00H
	DD	01H
; Function compile flags: /Odtp /RTCsu /ZI
xdata$x	ENDS
;	COMDAT ??0DataDict@@QAE@CAAW4UErrorCode@@@Z
_TEXT	SEGMENT
tv83 = -268						; size = 4
tv75 = -268						; size = 4
$T44286 = -260						; size = 4
$T44287 = -248						; size = 4
$T44290 = -236						; size = 4
$T44291 = -224						; size = 4
_this$ = -20						; size = 4
__$EHRec$ = -12						; size = 12
_isBytesTrie$ = 8					; size = 1
_status$ = 12						; size = 4
??0DataDict@@QAE@CAAW4UErrorCode@@@Z PROC		; DataDict::DataDict, COMDAT
; _this$ = ecx
; Line 128
	push	ebp
	mov	ebp, esp
	push	-1
	push	__ehhandler$??0DataDict@@QAE@CAAW4UErrorCode@@@Z
	mov	eax, DWORD PTR fs:0
	push	eax
	sub	esp, 256				; 00000100H
	push	ebx
	push	esi
	push	edi
	push	ecx
	lea	edi, DWORD PTR [ebp-268]
	mov	ecx, 64					; 00000040H
	mov	eax, -858993460				; ccccccccH
	rep stosd
	pop	ecx
	mov	eax, DWORD PTR ___security_cookie
	xor	eax, ebp
	push	eax
	lea	eax, DWORD PTR __$EHRec$[ebp]
	mov	DWORD PTR fs:0, eax
	mov	DWORD PTR _this$[ebp], ecx
	mov	eax, DWORD PTR _this$[ebp]
	mov	DWORD PTR [eax], 0
	mov	eax, DWORD PTR _this$[ebp]
	mov	DWORD PTR [eax+4], 0
	mov	eax, DWORD PTR _this$[ebp]
	mov	DWORD PTR [eax+8], 0
	mov	eax, DWORD PTR _this$[ebp]
	mov	ecx, DWORD PTR __imp_?TRANSFORM_NONE@DictionaryData@icu_56@@2HB
	mov	edx, DWORD PTR [ecx]
	mov	DWORD PTR [eax+12], edx
; Line 129
	movsx	eax, BYTE PTR _isBytesTrie$[ebp]
	test	eax, eax
	je	$LN2@DataDict
; Line 130
	mov	esi, esp
	push	36					; 00000024H
	call	DWORD PTR __imp_??2UMemory@icu_56@@SAPAXI@Z
	add	esp, 4
	cmp	esi, esp
	call	__RTC_CheckEsp
	mov	DWORD PTR $T44287[ebp], eax
	mov	DWORD PTR __$EHRec$[ebp+8], 0
	cmp	DWORD PTR $T44287[ebp], 0
	je	SHORT $LN5@DataDict
	mov	esi, esp
	mov	eax, DWORD PTR _status$[ebp]
	push	eax
	mov	ecx, DWORD PTR $T44287[ebp]
	call	DWORD PTR __imp_??0BytesTrieBuilder@icu_56@@QAE@AAW4UErrorCode@@@Z
	cmp	esi, esp
	call	__RTC_CheckEsp
	mov	ecx, DWORD PTR $T44287[ebp]
	mov	DWORD PTR [ecx], OFFSET ??_SBytesTrieBuilder@icu_56@@6B@
	mov	edx, DWORD PTR $T44287[ebp]
	mov	DWORD PTR tv75[ebp], edx
	jmp	SHORT $LN6@DataDict
$LN5@DataDict:
	mov	DWORD PTR tv75[ebp], 0
$LN6@DataDict:
	mov	eax, DWORD PTR tv75[ebp]
	mov	DWORD PTR $T44286[ebp], eax
	mov	DWORD PTR __$EHRec$[ebp+8], -1
	mov	ecx, DWORD PTR _this$[ebp]
	mov	edx, DWORD PTR $T44286[ebp]
	mov	DWORD PTR [ecx], edx
; Line 131
	jmp	$LN3@DataDict
$LN2@DataDict:
; Line 132
	mov	esi, esp
	push	96					; 00000060H
	call	DWORD PTR __imp_??2UMemory@icu_56@@SAPAXI@Z
	add	esp, 4
	cmp	esi, esp
	call	__RTC_CheckEsp
	mov	DWORD PTR $T44291[ebp], eax
	mov	DWORD PTR __$EHRec$[ebp+8], 1
	cmp	DWORD PTR $T44291[ebp], 0
	je	SHORT $LN7@DataDict
	mov	esi, esp
	mov	eax, DWORD PTR _status$[ebp]
	push	eax
	mov	ecx, DWORD PTR $T44291[ebp]
	call	DWORD PTR __imp_??0UCharsTrieBuilder@icu_56@@QAE@AAW4UErrorCode@@@Z
	cmp	esi, esp
	call	__RTC_CheckEsp
	mov	ecx, DWORD PTR $T44291[ebp]
	mov	DWORD PTR [ecx], OFFSET ??_SUCharsTrieBuilder@icu_56@@6B@
	mov	edx, DWORD PTR $T44291[ebp]
	mov	DWORD PTR tv83[ebp], edx
	jmp	SHORT $LN8@DataDict
$LN7@DataDict:
	mov	DWORD PTR tv83[ebp], 0
$LN8@DataDict:
	mov	eax, DWORD PTR tv83[ebp]
	mov	DWORD PTR $T44290[ebp], eax
	mov	DWORD PTR __$EHRec$[ebp+8], -1
	mov	ecx, DWORD PTR _this$[ebp]
	mov	edx, DWORD PTR $T44290[ebp]
	mov	DWORD PTR [ecx+4], edx
$LN3@DataDict:
; Line 134
	mov	eax, DWORD PTR _this$[ebp]
	mov	ecx, DWORD PTR __$EHRec$[ebp]
	mov	DWORD PTR fs:0, ecx
	pop	ecx
	pop	edi
	pop	esi
	pop	ebx
	add	esp, 268				; 0000010cH
	cmp	ebp, esp
	call	__RTC_CheckEsp
	mov	esp, ebp
	pop	ebp
	ret	8
_TEXT	ENDS
;	COMDAT text$x
text$x	SEGMENT
__unwindfunclet$??0DataDict@@QAE@CAAW4UErrorCode@@@Z$0:
	mov	esi, esp
	mov	eax, DWORD PTR $T44287[ebp]
	push	eax
	call	DWORD PTR __imp_??3UMemory@icu_56@@SAXPAX@Z
	add	esp, 4
	cmp	esi, esp
	jmp	__RTC_CheckEsp
__unwindfunclet$??0DataDict@@QAE@CAAW4UErrorCode@@@Z$1:
	mov	esi, esp
	mov	eax, DWORD PTR $T44291[ebp]
	push	eax
	call	DWORD PTR __imp_??3UMemory@icu_56@@SAXPAX@Z
	add	esp, 4
	cmp	esi, esp
	jmp	__RTC_CheckEsp
__ehhandler$??0DataDict@@QAE@CAAW4UErrorCode@@@Z:
	mov	edx, DWORD PTR [esp+8]
	lea	eax, DWORD PTR [edx+12]
	mov	ecx, DWORD PTR [edx-272]
	xor	ecx, eax
	call	@__security_check_cookie@4
	mov	eax, OFFSET __ehfuncinfo$??0DataDict@@QAE@CAAW4UErrorCode@@@Z
	jmp	___CxxFrameHandler3
text$x	ENDS
??0DataDict@@QAE@CAAW4UErrorCode@@@Z ENDP		; DataDict::DataDict
; Function compile flags: /Odtp /RTCsu /ZI
;	COMDAT ??1DataDict@@QAE@XZ
_TEXT	SEGMENT
tv86 = -256						; size = 4
tv74 = -256						; size = 4
$T44304 = -248						; size = 4
$T44305 = -236						; size = 4
$T44308 = -224						; size = 4
$T44309 = -212						; size = 4
_this$ = -8						; size = 4
??1DataDict@@QAE@XZ PROC				; DataDict::~DataDict, COMDAT
; _this$ = ecx
; Line 136
	push	ebp
	mov	ebp, esp
	sub	esp, 256				; 00000100H
	push	ebx
	push	esi
	push	edi
	push	ecx
	lea	edi, DWORD PTR [ebp-256]
	mov	ecx, 64					; 00000040H
	mov	eax, -858993460				; ccccccccH
	rep stosd
	pop	ecx
	mov	DWORD PTR _this$[ebp], ecx
; Line 137
	mov	eax, DWORD PTR _this$[ebp]
	mov	ecx, DWORD PTR [eax]
	mov	DWORD PTR $T44305[ebp], ecx
	mov	edx, DWORD PTR $T44305[ebp]
	mov	DWORD PTR $T44304[ebp], edx
	cmp	DWORD PTR $T44304[ebp], 0
	je	SHORT $LN3@DataDict@2
	mov	esi, esp
	push	1
	mov	eax, DWORD PTR $T44304[ebp]
	mov	edx, DWORD PTR [eax]
	mov	ecx, DWORD PTR $T44304[ebp]
	mov	eax, DWORD PTR [edx]
	call	eax
	cmp	esi, esp
	call	__RTC_CheckEsp
	mov	DWORD PTR tv74[ebp], eax
	jmp	SHORT $LN4@DataDict@2
$LN3@DataDict@2:
	mov	DWORD PTR tv74[ebp], 0
$LN4@DataDict@2:
; Line 138
	mov	eax, DWORD PTR _this$[ebp]
	mov	ecx, DWORD PTR [eax+4]
	mov	DWORD PTR $T44309[ebp], ecx
	mov	edx, DWORD PTR $T44309[ebp]
	mov	DWORD PTR $T44308[ebp], edx
	cmp	DWORD PTR $T44308[ebp], 0
	je	SHORT $LN5@DataDict@2
	mov	esi, esp
	push	1
	mov	eax, DWORD PTR $T44308[ebp]
	mov	edx, DWORD PTR [eax]
	mov	ecx, DWORD PTR $T44308[ebp]
	mov	eax, DWORD PTR [edx]
	call	eax
	cmp	esi, esp
	call	__RTC_CheckEsp
	mov	DWORD PTR tv86[ebp], eax
	jmp	SHORT $LN1@DataDict@2
$LN5@DataDict@2:
	mov	DWORD PTR tv86[ebp], 0
$LN1@DataDict@2:
; Line 139
	pop	edi
	pop	esi
	pop	ebx
	add	esp, 256				; 00000100H
	cmp	ebp, esp
	call	__RTC_CheckEsp
	mov	esp, ebp
	pop	ebp
	ret	0
??1DataDict@@QAE@XZ ENDP				; DataDict::~DataDict
_TEXT	ENDS
PUBLIC	??_C@_0CB@LHJJDAJE@Invalid?5transform?5specified?3?5?$CFs?6@ ; `string'
PUBLIC	??_C@_0DL@JMLGIMOM@Syntax?5for?5offset?5value?5in?5?9?9tra@ ; `string'
PUBLIC	??_C@_07GEIFAAFE@offset?9?$AA@			; `string'
EXTRN	__imp_?TRANSFORM_TYPE_OFFSET@DictionaryData@icu_56@@2HB:DWORD
EXTRN	__imp__strncmp:PROC
;	COMDAT ??_C@_0CB@LHJJDAJE@Invalid?5transform?5specified?3?5?$CFs?6@
CONST	SEGMENT
??_C@_0CB@LHJJDAJE@Invalid?5transform?5specified?3?5?$CFs?6@ DB 'Invalid '
	DB	'transform specified: %s', 0aH, 00H		; `string'
CONST	ENDS
;	COMDAT ??_C@_0DL@JMLGIMOM@Syntax?5for?5offset?5value?5in?5?9?9tra@
CONST	SEGMENT
??_C@_0DL@JMLGIMOM@Syntax?5for?5offset?5value?5in?5?9?9tra@ DB 'Syntax fo'
	DB	'r offset value in --transform offset-%s invalid!', 0aH, 00H ; `string'
CONST	ENDS
;	COMDAT ??_C@_07GEIFAAFE@offset?9?$AA@
CONST	SEGMENT
??_C@_07GEIFAAFE@offset?9?$AA@ DB 'offset-', 00H	; `string'
; Function compile flags: /Odtp /RTCsu /ZI
CONST	ENDS
;	COMDAT ?setTransform@DataDict@@QAEXPBD@Z
_TEXT	SEGMENT
_base$37105 = -32					; size = 4
_end$37104 = -20					; size = 4
_this$ = -8						; size = 4
_t$ = 8							; size = 4
?setTransform@DataDict@@QAEXPBD@Z PROC			; DataDict::setTransform, COMDAT
; _this$ = ecx
; Line 174
	push	ebp
	mov	ebp, esp
	sub	esp, 228				; 000000e4H
	push	ebx
	push	esi
	push	edi
	push	ecx
	lea	edi, DWORD PTR [ebp-228]
	mov	ecx, 57					; 00000039H
	mov	eax, -858993460				; ccccccccH
	rep stosd
	pop	ecx
	mov	DWORD PTR _this$[ebp], ecx
; Line 175
	mov	esi, esp
	push	7
	push	OFFSET ??_C@_07GEIFAAFE@offset?9?$AA@
	mov	eax, DWORD PTR _t$[ebp]
	push	eax
	call	DWORD PTR __imp__strncmp
	add	esp, 12					; 0000000cH
	cmp	esi, esp
	call	__RTC_CheckEsp
	test	eax, eax
	jne	$LN4@setTransfo
; Line 177
	mov	esi, esp
	push	16					; 00000010H
	lea	eax, DWORD PTR _end$37104[ebp]
	push	eax
	mov	ecx, DWORD PTR _t$[ebp]
	add	ecx, 7
	push	ecx
	call	DWORD PTR __imp__strtoul
	add	esp, 12					; 0000000cH
	cmp	esi, esp
	call	__RTC_CheckEsp
	mov	DWORD PTR _base$37105[ebp], eax
; Line 178
	mov	eax, DWORD PTR _t$[ebp]
	add	eax, 7
	cmp	DWORD PTR _end$37104[ebp], eax
	je	SHORT $LN2@setTransfo
	mov	eax, DWORD PTR _end$37104[ebp]
	movsx	ecx, BYTE PTR [eax]
	test	ecx, ecx
	jne	SHORT $LN2@setTransfo
	cmp	DWORD PTR _base$37105[ebp], 1113984	; 0010ff80H
	jbe	SHORT $LN3@setTransfo
$LN2@setTransfo:
; Line 179
	mov	eax, DWORD PTR _t$[ebp]
	add	eax, 7
	mov	esi, esp
	push	eax
	push	OFFSET ??_C@_0DL@JMLGIMOM@Syntax?5for?5offset?5value?5in?5?9?9tra@
	mov	edi, esp
	call	DWORD PTR __imp____iob_func
	cmp	edi, esp
	call	__RTC_CheckEsp
	add	eax, 64					; 00000040H
	push	eax
	call	DWORD PTR __imp__fprintf
	add	esp, 12					; 0000000cH
	cmp	esi, esp
	call	__RTC_CheckEsp
; Line 180
	push	1
	call	?usageAndDie@@YAXW4UErrorCode@@@Z	; usageAndDie
	add	esp, 4
$LN3@setTransfo:
; Line 182
	mov	eax, DWORD PTR _this$[ebp]
	mov	ecx, DWORD PTR __imp_?TRANSFORM_TYPE_OFFSET@DictionaryData@icu_56@@2HB
	mov	edx, DWORD PTR [ecx]
	mov	DWORD PTR [eax+12], edx
; Line 183
	mov	eax, DWORD PTR _this$[ebp]
	mov	ecx, DWORD PTR _base$37105[ebp]
	mov	DWORD PTR [eax+8], ecx
; Line 185
	jmp	SHORT $LN5@setTransfo
$LN4@setTransfo:
; Line 186
	mov	esi, esp
	mov	eax, DWORD PTR _t$[ebp]
	push	eax
	push	OFFSET ??_C@_0CB@LHJJDAJE@Invalid?5transform?5specified?3?5?$CFs?6@
	mov	edi, esp
	call	DWORD PTR __imp____iob_func
	cmp	edi, esp
	call	__RTC_CheckEsp
	add	eax, 64					; 00000040H
	push	eax
	call	DWORD PTR __imp__fprintf
	add	esp, 12					; 0000000cH
	cmp	esi, esp
	call	__RTC_CheckEsp
; Line 187
	push	1
	call	?usageAndDie@@YAXW4UErrorCode@@@Z	; usageAndDie
	add	esp, 4
$LN5@setTransfo:
; Line 189
	push	edx
	mov	ecx, ebp
	push	eax
	lea	edx, DWORD PTR $LN9@setTransfo
	call	@_RTC_CheckStackVars@8
	pop	eax
	pop	edx
	pop	edi
	pop	esi
	pop	ebx
	add	esp, 228				; 000000e4H
	cmp	ebp, esp
	call	__RTC_CheckEsp
	mov	esp, ebp
	pop	ebp
	ret	4
	npad	1
$LN9@setTransfo:
	DD	1
	DD	$LN8@setTransfo
$LN8@setTransfo:
	DD	-20					; ffffffecH
	DD	4
	DD	$LN7@setTransfo
$LN7@setTransfo:
	DB	101					; 00000065H
	DB	110					; 0000006eH
	DB	100					; 00000064H
	DB	0
?setTransform@DataDict@@QAEXPBD@Z ENDP			; DataDict::setTransform
_TEXT	ENDS
PUBLIC	?transform@DataDict@@AAEXABVUnicodeString@icu_56@@AAVCharString@3@AAW4UErrorCode@@@Z ; DataDict::transform
PUBLIC	__$ArrayPad$
EXTRN	__imp_?add@UCharsTrieBuilder@icu_56@@QAEAAV12@ABVUnicodeString@2@HAAW4UErrorCode@@@Z:PROC
EXTRN	__imp_??1CharString@icu_56@@QAE@XZ:PROC
EXTRN	__imp_?add@BytesTrieBuilder@icu_56@@QAEAAV12@ABVStringPiece@2@HAAW4UErrorCode@@@Z:PROC
EXTRN	__imp_?toStringPiece@CharString@icu_56@@QBE?AVStringPiece@2@XZ:PROC
EXTRN	__imp_??0CharString@icu_56@@QAE@XZ:PROC
;	COMDAT xdata$x
xdata$x	SEGMENT
__unwindtable$?addWord@DataDict@@QAEXABVUnicodeString@icu_56@@HAAW4UErrorCode@@@Z DD 0ffffffffH
	DD	FLAT:__unwindfunclet$?addWord@DataDict@@QAEXABVUnicodeString@icu_56@@HAAW4UErrorCode@@@Z$0
__ehfuncinfo$?addWord@DataDict@@QAEXABVUnicodeString@icu_56@@HAAW4UErrorCode@@@Z DD 019930522H
	DD	01H
	DD	FLAT:__unwindtable$?addWord@DataDict@@QAEXABVUnicodeString@icu_56@@HAAW4UErrorCode@@@Z
	DD	2 DUP(00H)
	DD	2 DUP(00H)
	DD	00H
	DD	01H
; Function compile flags: /Odtp /RTCsu /ZI
xdata$x	ENDS
;	COMDAT ?addWord@DataDict@@QAEXABVUnicodeString@icu_56@@HAAW4UErrorCode@@@Z
_TEXT	SEGMENT
$T44320 = -296						; size = 8
_buf$37115 = -88					; size = 56
_this$ = -24						; size = 4
__$ArrayPad$ = -16					; size = 4
__$EHRec$ = -12						; size = 12
_word$ = 8						; size = 4
_value$ = 12						; size = 4
_status$ = 16						; size = 4
?addWord@DataDict@@QAEXABVUnicodeString@icu_56@@HAAW4UErrorCode@@@Z PROC ; DataDict::addWord, COMDAT
; _this$ = ecx
; Line 192
	push	ebp
	mov	ebp, esp
	push	-1
	push	__ehhandler$?addWord@DataDict@@QAEXABVUnicodeString@icu_56@@HAAW4UErrorCode@@@Z
	mov	eax, DWORD PTR fs:0
	push	eax
	sub	esp, 288				; 00000120H
	push	ebx
	push	esi
	push	edi
	push	ecx
	lea	edi, DWORD PTR [ebp-300]
	mov	ecx, 72					; 00000048H
	mov	eax, -858993460				; ccccccccH
	rep stosd
	pop	ecx
	mov	eax, DWORD PTR ___security_cookie
	xor	eax, ebp
	mov	DWORD PTR __$ArrayPad$[ebp], eax
	push	eax
	lea	eax, DWORD PTR __$EHRec$[ebp]
	mov	DWORD PTR fs:0, eax
	mov	DWORD PTR _this$[ebp], ecx
; Line 193
	mov	eax, DWORD PTR _this$[ebp]
	cmp	DWORD PTR [eax], 0
	je	SHORT $LN2@addWord
; Line 194
	mov	esi, esp
	lea	ecx, DWORD PTR _buf$37115[ebp]
	call	DWORD PTR __imp_??0CharString@icu_56@@QAE@XZ
	cmp	esi, esp
	call	__RTC_CheckEsp
	mov	DWORD PTR __$EHRec$[ebp+8], 0
; Line 195
	mov	eax, DWORD PTR _status$[ebp]
	push	eax
	lea	ecx, DWORD PTR _buf$37115[ebp]
	push	ecx
	mov	edx, DWORD PTR _word$[ebp]
	push	edx
	mov	ecx, DWORD PTR _this$[ebp]
	call	?transform@DataDict@@AAEXABVUnicodeString@icu_56@@AAVCharString@3@AAW4UErrorCode@@@Z ; DataDict::transform
; Line 196
	mov	esi, esp
	mov	eax, DWORD PTR _status$[ebp]
	push	eax
	mov	ecx, DWORD PTR _value$[ebp]
	push	ecx
	mov	edi, esp
	lea	edx, DWORD PTR $T44320[ebp]
	push	edx
	lea	ecx, DWORD PTR _buf$37115[ebp]
	call	DWORD PTR __imp_?toStringPiece@CharString@icu_56@@QBE?AVStringPiece@2@XZ
	cmp	edi, esp
	call	__RTC_CheckEsp
	push	eax
	mov	eax, DWORD PTR _this$[ebp]
	mov	ecx, DWORD PTR [eax]
	call	DWORD PTR __imp_?add@BytesTrieBuilder@icu_56@@QAEAAV12@ABVStringPiece@2@HAAW4UErrorCode@@@Z
	cmp	esi, esp
	call	__RTC_CheckEsp
; Line 197
	mov	DWORD PTR __$EHRec$[ebp+8], -1
	mov	esi, esp
	lea	ecx, DWORD PTR _buf$37115[ebp]
	call	DWORD PTR __imp_??1CharString@icu_56@@QAE@XZ
	cmp	esi, esp
	call	__RTC_CheckEsp
$LN2@addWord:
; Line 198
	mov	eax, DWORD PTR _this$[ebp]
	cmp	DWORD PTR [eax+4], 0
	je	SHORT $LN3@addWord
	mov	esi, esp
	mov	eax, DWORD PTR _status$[ebp]
	push	eax
	mov	ecx, DWORD PTR _value$[ebp]
	push	ecx
	mov	edx, DWORD PTR _word$[ebp]
	push	edx
	mov	eax, DWORD PTR _this$[ebp]
	mov	ecx, DWORD PTR [eax+4]
	call	DWORD PTR __imp_?add@UCharsTrieBuilder@icu_56@@QAEAAV12@ABVUnicodeString@2@HAAW4UErrorCode@@@Z
	cmp	esi, esp
	call	__RTC_CheckEsp
$LN3@addWord:
; Line 199
	push	edx
	mov	ecx, ebp
	push	eax
	lea	edx, DWORD PTR $LN9@addWord
	call	@_RTC_CheckStackVars@8
	pop	eax
	pop	edx
	mov	ecx, DWORD PTR __$EHRec$[ebp]
	mov	DWORD PTR fs:0, ecx
	pop	ecx
	pop	edi
	pop	esi
	pop	ebx
	mov	ecx, DWORD PTR __$ArrayPad$[ebp]
	xor	ecx, ebp
	call	@__security_check_cookie@4
	add	esp, 300				; 0000012cH
	cmp	ebp, esp
	call	__RTC_CheckEsp
	mov	esp, ebp
	pop	ebp
	ret	12					; 0000000cH
	npad	1
$LN9@addWord:
	DD	1
	DD	$LN8@addWord
$LN8@addWord:
	DD	-88					; ffffffa8H
	DD	56					; 00000038H
	DD	$LN6@addWord
$LN6@addWord:
	DB	98					; 00000062H
	DB	117					; 00000075H
	DB	102					; 00000066H
	DB	0
_TEXT	ENDS
;	COMDAT text$x
text$x	SEGMENT
__unwindfunclet$?addWord@DataDict@@QAEXABVUnicodeString@icu_56@@HAAW4UErrorCode@@@Z$0:
	mov	esi, esp
	lea	ecx, DWORD PTR _buf$37115[ebp]
	call	DWORD PTR __imp_??1CharString@icu_56@@QAE@XZ
	cmp	esi, esp
	jmp	__RTC_CheckEsp
__ehhandler$?addWord@DataDict@@QAEXABVUnicodeString@icu_56@@HAAW4UErrorCode@@@Z:
	mov	edx, DWORD PTR [esp+8]
	lea	eax, DWORD PTR [edx+12]
	mov	ecx, DWORD PTR [edx-304]
	xor	ecx, eax
	call	@__security_check_cookie@4
	mov	ecx, DWORD PTR [edx-4]
	xor	ecx, eax
	call	@__security_check_cookie@4
	mov	eax, OFFSET __ehfuncinfo$?addWord@DataDict@@QAEXABVUnicodeString@icu_56@@HAAW4UErrorCode@@@Z
	jmp	___CxxFrameHandler3
text$x	ENDS
?addWord@DataDict@@QAEXABVUnicodeString@icu_56@@HAAW4UErrorCode@@@Z ENDP ; DataDict::addWord
PUBLIC	?transform@DataDict@@AAEDHAAW4UErrorCode@@@Z	; DataDict::transform
EXTRN	__imp_?append@CharString@icu_56@@QAEAAV12@DAAW4UErrorCode@@@Z:PROC
EXTRN	__imp_?char32At@UnicodeString@icu_56@@QBEHH@Z:PROC
; Function compile flags: /Odtp /RTCsu /ZI
;	COMDAT ?transform@DataDict@@AAEXABVUnicodeString@icu_56@@AAVCharString@3@AAW4UErrorCode@@@Z
_TEXT	SEGMENT
_i$37095 = -44						; size = 4
_len$ = -32						; size = 4
_c$ = -20						; size = 4
_this$ = -8						; size = 4
_word$ = 8						; size = 4
_buf$ = 12						; size = 4
_errorCode$ = 16					; size = 4
?transform@DataDict@@AAEXABVUnicodeString@icu_56@@AAVCharString@3@AAW4UErrorCode@@@Z PROC ; DataDict::transform, COMDAT
; _this$ = ecx
; Line 159
	push	ebp
	mov	ebp, esp
	sub	esp, 240				; 000000f0H
	push	ebx
	push	esi
	push	edi
	push	ecx
	lea	edi, DWORD PTR [ebp-240]
	mov	ecx, 60					; 0000003cH
	mov	eax, -858993460				; ccccccccH
	rep stosd
	pop	ecx
	mov	DWORD PTR _this$[ebp], ecx
; Line 160
	mov	DWORD PTR _c$[ebp], 0
; Line 161
	mov	esi, esp
	mov	ecx, DWORD PTR _word$[ebp]
	call	DWORD PTR __imp_?length@UnicodeString@icu_56@@QBEHXZ
	cmp	esi, esp
	call	__RTC_CheckEsp
	mov	DWORD PTR _len$[ebp], eax
; Line 162
	mov	DWORD PTR _i$37095[ebp], 0
	jmp	SHORT $LN3@transform
$LN2@transform:
	mov	eax, 65535				; 0000ffffH
	cmp	eax, DWORD PTR _c$[ebp]
	sbb	ecx, ecx
	neg	ecx
	add	ecx, 1
	add	ecx, DWORD PTR _i$37095[ebp]
	mov	DWORD PTR _i$37095[ebp], ecx
$LN3@transform:
	mov	eax, DWORD PTR _i$37095[ebp]
	cmp	eax, DWORD PTR _len$[ebp]
	jge	SHORT $LN4@transform
; Line 163
	mov	esi, esp
	mov	eax, DWORD PTR _i$37095[ebp]
	push	eax
	mov	ecx, DWORD PTR _word$[ebp]
	call	DWORD PTR __imp_?char32At@UnicodeString@icu_56@@QBEHH@Z
	cmp	esi, esp
	call	__RTC_CheckEsp
	mov	DWORD PTR _c$[ebp], eax
; Line 164
	mov	esi, esp
	mov	eax, DWORD PTR _errorCode$[ebp]
	push	eax
	mov	ecx, DWORD PTR _errorCode$[ebp]
	push	ecx
	mov	edx, DWORD PTR _c$[ebp]
	push	edx
	mov	ecx, DWORD PTR _this$[ebp]
	call	?transform@DataDict@@AAEDHAAW4UErrorCode@@@Z ; DataDict::transform
	movzx	eax, al
	push	eax
	mov	ecx, DWORD PTR _buf$[ebp]
	call	DWORD PTR __imp_?append@CharString@icu_56@@QAEAAV12@DAAW4UErrorCode@@@Z
	cmp	esi, esp
	call	__RTC_CheckEsp
; Line 165
	jmp	SHORT $LN2@transform
$LN4@transform:
; Line 166
	pop	edi
	pop	esi
	pop	ebx
	add	esp, 240				; 000000f0H
	cmp	ebp, esp
	call	__RTC_CheckEsp
	mov	esp, ebp
	pop	ebp
	ret	12					; 0000000cH
?transform@DataDict@@AAEXABVUnicodeString@icu_56@@AAVCharString@3@AAW4UErrorCode@@@Z ENDP ; DataDict::transform
_TEXT	ENDS
PUBLIC	??_C@_0DO@NFANIDEJ@Codepoint?5U?$CL?$CF04lx?5out?5of?5range?5f@ ; `string'
;	COMDAT ??_C@_0DO@NFANIDEJ@Codepoint?5U?$CL?$CF04lx?5out?5of?5range?5f@
CONST	SEGMENT
??_C@_0DO@NFANIDEJ@Codepoint?5U?$CL?$CF04lx?5out?5of?5range?5f@ DB 'Codep'
	DB	'oint U+%04lx out of range for --transform offset-%04lx!', 0aH
	DB	00H						; `string'
; Function compile flags: /Odtp /RTCsu /ZI
CONST	ENDS
;	COMDAT ?transform@DataDict@@AAEDHAAW4UErrorCode@@@Z
_TEXT	SEGMENT
_delta$37082 = -20					; size = 4
_this$ = -8						; size = 4
_c$ = 8							; size = 4
_status$ = 12						; size = 4
?transform@DataDict@@AAEDHAAW4UErrorCode@@@Z PROC	; DataDict::transform, COMDAT
; _this$ = ecx
; Line 142
	push	ebp
	mov	ebp, esp
	sub	esp, 216				; 000000d8H
	push	ebx
	push	esi
	push	edi
	push	ecx
	lea	edi, DWORD PTR [ebp-216]
	mov	ecx, 54					; 00000036H
	mov	eax, -858993460				; ccccccccH
	rep stosd
	pop	ecx
	mov	DWORD PTR _this$[ebp], ecx
; Line 143
	mov	eax, DWORD PTR _this$[ebp]
	mov	ecx, DWORD PTR __imp_?TRANSFORM_TYPE_OFFSET@DictionaryData@icu_56@@2HB
	mov	edx, DWORD PTR [eax+12]
	cmp	edx, DWORD PTR [ecx]
	jne	$LN7@transform@2
; Line 144
	cmp	DWORD PTR _c$[ebp], 8205		; 0000200dH
	jne	SHORT $LN6@transform@2
	or	al, -1
	jmp	SHORT $LN9@transform@2
	jmp	SHORT $LN5@transform@2
$LN6@transform@2:
; Line 145
	cmp	DWORD PTR _c$[ebp], 8204		; 0000200cH
	jne	SHORT $LN5@transform@2
	mov	al, -2					; fffffffeH
	jmp	SHORT $LN9@transform@2
$LN5@transform@2:
; Line 146
	mov	eax, DWORD PTR _this$[ebp]
	mov	ecx, DWORD PTR _c$[ebp]
	sub	ecx, DWORD PTR [eax+8]
	mov	DWORD PTR _delta$37082[ebp], ecx
; Line 147
	js	SHORT $LN2@transform@2
	cmp	DWORD PTR _delta$37082[ebp], 253	; 000000fdH
	jle	SHORT $LN3@transform@2
$LN2@transform@2:
; Line 149
	mov	esi, esp
	mov	eax, DWORD PTR _this$[ebp]
	mov	ecx, DWORD PTR [eax+8]
	push	ecx
	mov	edx, DWORD PTR _c$[ebp]
	push	edx
	push	OFFSET ??_C@_0DO@NFANIDEJ@Codepoint?5U?$CL?$CF04lx?5out?5of?5range?5f@
	mov	edi, esp
	call	DWORD PTR __imp____iob_func
	cmp	edi, esp
	call	__RTC_CheckEsp
	add	eax, 64					; 00000040H
	push	eax
	call	DWORD PTR __imp__fprintf
	add	esp, 16					; 00000010H
	cmp	esi, esp
	call	__RTC_CheckEsp
; Line 150
	mov	esi, esp
	push	1
	call	DWORD PTR __imp__exit
	cmp	esi, esp
	call	__RTC_CheckEsp
$LN3@transform@2:
; Line 152
	mov	al, BYTE PTR _delta$37082[ebp]
	jmp	SHORT $LN9@transform@2
; Line 153
	jmp	SHORT $LN9@transform@2
$LN7@transform@2:
; Line 154
	mov	eax, DWORD PTR _status$[ebp]
	mov	DWORD PTR [eax], 5
; Line 155
	mov	al, BYTE PTR _c$[ebp]
$LN9@transform@2:
; Line 157
	pop	edi
	pop	esi
	pop	ebx
	add	esp, 216				; 000000d8H
	cmp	ebp, esp
	call	__RTC_CheckEsp
	mov	esp, ebp
	pop	ebp
	ret	8
?transform@DataDict@@AAEDHAAW4UErrorCode@@@Z ENDP	; DataDict::transform
_TEXT	ENDS
EXTRN	__imp_?buildStringPiece@BytesTrieBuilder@icu_56@@QAE?AVStringPiece@2@W4UStringTrieBuildOption@@AAW4UErrorCode@@@Z:PROC
; Function compile flags: /Odtp /RTCsu /ZI
;	COMDAT ?serializeBytes@DataDict@@QAE?AVStringPiece@icu_56@@AAW4UErrorCode@@@Z
_TEXT	SEGMENT
_this$ = -8						; size = 4
___$ReturnUdt$ = 8					; size = 4
_status$ = 12						; size = 4
?serializeBytes@DataDict@@QAE?AVStringPiece@icu_56@@AAW4UErrorCode@@@Z PROC ; DataDict::serializeBytes, COMDAT
; _this$ = ecx
; Line 202
	push	ebp
	mov	ebp, esp
	sub	esp, 204				; 000000ccH
	push	ebx
	push	esi
	push	edi
	push	ecx
	lea	edi, DWORD PTR [ebp-204]
	mov	ecx, 51					; 00000033H
	mov	eax, -858993460				; ccccccccH
	rep stosd
	pop	ecx
	mov	DWORD PTR _this$[ebp], ecx
; Line 203
	mov	esi, esp
	mov	eax, DWORD PTR _status$[ebp]
	push	eax
	push	1
	mov	ecx, DWORD PTR ___$ReturnUdt$[ebp]
	push	ecx
	mov	edx, DWORD PTR _this$[ebp]
	mov	ecx, DWORD PTR [edx]
	call	DWORD PTR __imp_?buildStringPiece@BytesTrieBuilder@icu_56@@QAE?AVStringPiece@2@W4UStringTrieBuildOption@@AAW4UErrorCode@@@Z
	cmp	esi, esp
	call	__RTC_CheckEsp
	mov	eax, DWORD PTR ___$ReturnUdt$[ebp]
; Line 204
	pop	edi
	pop	esi
	pop	ebx
	add	esp, 204				; 000000ccH
	cmp	ebp, esp
	call	__RTC_CheckEsp
	mov	esp, ebp
	pop	ebp
	ret	8
?serializeBytes@DataDict@@QAE?AVStringPiece@icu_56@@AAW4UErrorCode@@@Z ENDP ; DataDict::serializeBytes
_TEXT	ENDS
EXTRN	__imp_?buildUnicodeString@UCharsTrieBuilder@icu_56@@QAEAAVUnicodeString@2@W4UStringTrieBuildOption@@AAV32@AAW4UErrorCode@@@Z:PROC
; Function compile flags: /Odtp /RTCsu /ZI
;	COMDAT ?serializeUChars@DataDict@@QAEXAAVUnicodeString@icu_56@@AAW4UErrorCode@@@Z
_TEXT	SEGMENT
_this$ = -8						; size = 4
_s$ = 8							; size = 4
_status$ = 12						; size = 4
?serializeUChars@DataDict@@QAEXAAVUnicodeString@icu_56@@AAW4UErrorCode@@@Z PROC ; DataDict::serializeUChars, COMDAT
; _this$ = ecx
; Line 207
	push	ebp
	mov	ebp, esp
	sub	esp, 204				; 000000ccH
	push	ebx
	push	esi
	push	edi
	push	ecx
	lea	edi, DWORD PTR [ebp-204]
	mov	ecx, 51					; 00000033H
	mov	eax, -858993460				; ccccccccH
	rep stosd
	pop	ecx
	mov	DWORD PTR _this$[ebp], ecx
; Line 208
	mov	esi, esp
	mov	eax, DWORD PTR _status$[ebp]
	push	eax
	mov	ecx, DWORD PTR _s$[ebp]
	push	ecx
	push	1
	mov	edx, DWORD PTR _this$[ebp]
	mov	ecx, DWORD PTR [edx+4]
	call	DWORD PTR __imp_?buildUnicodeString@UCharsTrieBuilder@icu_56@@QAEAAVUnicodeString@2@W4UStringTrieBuildOption@@AAV32@AAW4UErrorCode@@@Z
	cmp	esi, esp
	call	__RTC_CheckEsp
; Line 209
	pop	edi
	pop	esi
	pop	ebx
	add	esp, 204				; 000000ccH
	cmp	ebp, esp
	call	__RTC_CheckEsp
	mov	esp, ebp
	pop	ebp
	ret	8
?serializeUChars@DataDict@@QAEXAAVUnicodeString@icu_56@@AAW4UErrorCode@@@Z ENDP ; DataDict::serializeUChars
; Function compile flags: /Odtp /RTCsu /ZI
_TEXT	ENDS
;	COMDAT ?getTransform@DataDict@@QAEHXZ
_TEXT	SEGMENT
_this$ = -8						; size = 4
?getTransform@DataDict@@QAEHXZ PROC			; DataDict::getTransform, COMDAT
; _this$ = ecx
; Line 211
	push	ebp
	mov	ebp, esp
	sub	esp, 204				; 000000ccH
	push	ebx
	push	esi
	push	edi
	push	ecx
	lea	edi, DWORD PTR [ebp-204]
	mov	ecx, 51					; 00000033H
	mov	eax, -858993460				; ccccccccH
	rep stosd
	pop	ecx
	mov	DWORD PTR _this$[ebp], ecx
; Line 212
	mov	eax, DWORD PTR _this$[ebp]
	mov	ecx, DWORD PTR _this$[ebp]
	mov	eax, DWORD PTR [eax+12]
	or	eax, DWORD PTR [ecx+8]
; Line 213
	pop	edi
	pop	esi
	pop	ebx
	mov	esp, ebp
	pop	ebp
	ret	0
?getTransform@DataDict@@QAEHXZ ENDP			; DataDict::getTransform
_TEXT	ENDS
EXTRN	__imp_??1BytesTrieBuilder@icu_56@@UAE@XZ:PROC
; Function compile flags: /Odtp /RTCsu /ZI
;	COMDAT ??_GBytesTrieBuilder@icu_56@@UAEPAXI@Z
_TEXT	SEGMENT
_this$ = -8						; size = 4
___flags$ = 8						; size = 4
??_GBytesTrieBuilder@icu_56@@UAEPAXI@Z PROC		; icu_56::BytesTrieBuilder::`scalar deleting destructor', COMDAT
; _this$ = ecx
	push	ebp
	mov	ebp, esp
	sub	esp, 204				; 000000ccH
	push	ebx
	push	esi
	push	edi
	push	ecx
	lea	edi, DWORD PTR [ebp-204]
	mov	ecx, 51					; 00000033H
	mov	eax, -858993460				; ccccccccH
	rep stosd
	pop	ecx
	mov	DWORD PTR _this$[ebp], ecx
	mov	esi, esp
	mov	ecx, DWORD PTR _this$[ebp]
	call	DWORD PTR __imp_??1BytesTrieBuilder@icu_56@@UAE@XZ
	cmp	esi, esp
	call	__RTC_CheckEsp
	mov	eax, DWORD PTR ___flags$[ebp]
	and	eax, 1
	je	SHORT $LN1@scalar
	mov	esi, esp
	mov	eax, DWORD PTR _this$[ebp]
	push	eax
	call	DWORD PTR __imp_??3UMemory@icu_56@@SAXPAX@Z
	add	esp, 4
	cmp	esi, esp
	call	__RTC_CheckEsp
$LN1@scalar:
	mov	eax, DWORD PTR _this$[ebp]
	pop	edi
	pop	esi
	pop	ebx
	add	esp, 204				; 000000ccH
	cmp	ebp, esp
	call	__RTC_CheckEsp
	mov	esp, ebp
	pop	ebp
	ret	4
??_GBytesTrieBuilder@icu_56@@UAEPAXI@Z ENDP		; icu_56::BytesTrieBuilder::`scalar deleting destructor'
_TEXT	ENDS
EXTRN	__imp_??1UCharsTrieBuilder@icu_56@@UAE@XZ:PROC
; Function compile flags: /Odtp /RTCsu /ZI
;	COMDAT ??_GUCharsTrieBuilder@icu_56@@UAEPAXI@Z
_TEXT	SEGMENT
_this$ = -8						; size = 4
___flags$ = 8						; size = 4
??_GUCharsTrieBuilder@icu_56@@UAEPAXI@Z PROC		; icu_56::UCharsTrieBuilder::`scalar deleting destructor', COMDAT
; _this$ = ecx
	push	ebp
	mov	ebp, esp
	sub	esp, 204				; 000000ccH
	push	ebx
	push	esi
	push	edi
	push	ecx
	lea	edi, DWORD PTR [ebp-204]
	mov	ecx, 51					; 00000033H
	mov	eax, -858993460				; ccccccccH
	rep stosd
	pop	ecx
	mov	DWORD PTR _this$[ebp], ecx
	mov	esi, esp
	mov	ecx, DWORD PTR _this$[ebp]
	call	DWORD PTR __imp_??1UCharsTrieBuilder@icu_56@@UAE@XZ
	cmp	esi, esp
	call	__RTC_CheckEsp
	mov	eax, DWORD PTR ___flags$[ebp]
	and	eax, 1
	je	SHORT $LN1@scalar@2
	mov	esi, esp
	mov	eax, DWORD PTR _this$[ebp]
	push	eax
	call	DWORD PTR __imp_??3UMemory@icu_56@@SAXPAX@Z
	add	esp, 4
	cmp	esi, esp
	call	__RTC_CheckEsp
$LN1@scalar@2:
	mov	eax, DWORD PTR _this$[ebp]
	pop	edi
	pop	esi
	pop	ebx
	add	esp, 204				; 000000ccH
	cmp	ebp, esp
	call	__RTC_CheckEsp
	mov	esp, ebp
	pop	ebp
	ret	4
??_GUCharsTrieBuilder@icu_56@@UAEPAXI@Z ENDP		; icu_56::UCharsTrieBuilder::`scalar deleting destructor'
_TEXT	ENDS
EXTRN	__imp_?setTo@UnicodeString@icu_56@@QAEAAV12@CPB_WH@Z:PROC
EXTRN	_u_memchr_56:PROC
EXTRN	_ucbuf_readline:PROC
; Function compile flags: /Odtp /RTCsu /ZI
;	COMDAT ?readLine@@YACPAUUCHARBUF@@AAVUnicodeString@icu_56@@AAVIcuToolErrorCode@3@@Z
_TEXT	SEGMENT
_comment$ = -32						; size = 4
_line$ = -20						; size = 4
_lineLength$ = -8					; size = 4
_f$ = 8							; size = 4
_fileLine$ = 12						; size = 4
_errorCode$ = 16					; size = 4
?readLine@@YACPAUUCHARBUF@@AAVUnicodeString@icu_56@@AAVIcuToolErrorCode@3@@Z PROC ; readLine, COMDAT
; Line 220
	push	ebp
	mov	ebp, esp
	sub	esp, 228				; 000000e4H
	push	ebx
	push	esi
	push	edi
	lea	edi, DWORD PTR [ebp-228]
	mov	ecx, 57					; 00000039H
	mov	eax, -858993460				; ccccccccH
	rep stosd
; Line 222
	mov	esi, esp
	mov	ecx, DWORD PTR _errorCode$[ebp]
	call	DWORD PTR __imp_??BErrorCode@icu_56@@QAEPAW4UErrorCode@@XZ
	cmp	esi, esp
	call	__RTC_CheckEsp
	push	eax
	lea	eax, DWORD PTR _lineLength$[ebp]
	push	eax
	mov	ecx, DWORD PTR _f$[ebp]
	push	ecx
	call	_ucbuf_readline
	add	esp, 12					; 0000000cH
	mov	DWORD PTR _line$[ebp], eax
; Line 223
	cmp	DWORD PTR _line$[ebp], 0
	je	SHORT $LN8@readLine
	mov	esi, esp
	mov	ecx, DWORD PTR _errorCode$[ebp]
	call	DWORD PTR __imp_?isFailure@ErrorCode@icu_56@@QBECXZ
	cmp	esi, esp
	call	__RTC_CheckEsp
	movsx	eax, al
	test	eax, eax
	je	SHORT $LN9@readLine
$LN8@readLine:
	xor	al, al
	jmp	$LN10@readLine
$LN9@readLine:
; Line 225
	mov	eax, DWORD PTR _lineLength$[ebp]
	push	eax
	push	35					; 00000023H
	mov	ecx, DWORD PTR _line$[ebp]
	push	ecx
	call	_u_memchr_56
	add	esp, 12					; 0000000cH
	mov	DWORD PTR _comment$[ebp], eax
; Line 226
	cmp	DWORD PTR _comment$[ebp], 0
	je	SHORT $LN5@readLine
; Line 227
	mov	eax, DWORD PTR _comment$[ebp]
	sub	eax, DWORD PTR _line$[ebp]
	sar	eax, 1
	mov	DWORD PTR _lineLength$[ebp], eax
; Line 228
	jmp	SHORT $LN2@readLine
$LN5@readLine:
; Line 229
	cmp	DWORD PTR _lineLength$[ebp], 0
	jle	SHORT $LN2@readLine
	mov	eax, DWORD PTR _lineLength$[ebp]
	mov	ecx, DWORD PTR _line$[ebp]
	movzx	edx, WORD PTR [ecx+eax*2-2]
	cmp	edx, 13					; 0000000dH
	je	SHORT $LN3@readLine
	mov	eax, DWORD PTR _lineLength$[ebp]
	mov	ecx, DWORD PTR _line$[ebp]
	movzx	edx, WORD PTR [ecx+eax*2-2]
	cmp	edx, 10					; 0000000aH
	jne	SHORT $LN2@readLine
$LN3@readLine:
	mov	eax, DWORD PTR _lineLength$[ebp]
	sub	eax, 1
	mov	DWORD PTR _lineLength$[ebp], eax
	jmp	SHORT $LN5@readLine
$LN2@readLine:
; Line 231
	cmp	DWORD PTR _lineLength$[ebp], 0
	jle	SHORT $LN1@readLine
	mov	eax, DWORD PTR _lineLength$[ebp]
	mov	ecx, DWORD PTR _line$[ebp]
	movzx	edx, WORD PTR [ecx+eax*2-2]
	push	edx
	call	_u_isspace_56
	add	esp, 4
	movsx	eax, al
	test	eax, eax
	je	SHORT $LN1@readLine
	mov	eax, DWORD PTR _lineLength$[ebp]
	sub	eax, 1
	mov	DWORD PTR _lineLength$[ebp], eax
	jmp	SHORT $LN2@readLine
$LN1@readLine:
; Line 232
	mov	esi, esp
	mov	eax, DWORD PTR _lineLength$[ebp]
	push	eax
	mov	ecx, DWORD PTR _line$[ebp]
	push	ecx
	push	0
	mov	ecx, DWORD PTR _fileLine$[ebp]
	call	DWORD PTR __imp_?setTo@UnicodeString@icu_56@@QAEAAV12@CPB_WH@Z
	cmp	esi, esp
	call	__RTC_CheckEsp
; Line 233
	mov	al, 1
$LN10@readLine:
; Line 234
	push	edx
	mov	ecx, ebp
	push	eax
	lea	edx, DWORD PTR $LN14@readLine
	call	@_RTC_CheckStackVars@8
	pop	eax
	pop	edx
	pop	edi
	pop	esi
	pop	ebx
	add	esp, 228				; 000000e4H
	cmp	ebp, esp
	call	__RTC_CheckEsp
	mov	esp, ebp
	pop	ebp
	ret	0
	npad	2
$LN14@readLine:
	DD	1
	DD	$LN13@readLine
$LN13@readLine:
	DD	-8					; fffffff8H
	DD	4
	DD	$LN12@readLine
$LN12@readLine:
	DB	108					; 0000006cH
	DB	105					; 00000069H
	DB	110					; 0000006eH
	DB	101					; 00000065H
	DB	76					; 0000004cH
	DB	101					; 00000065H
	DB	110					; 0000006eH
	DB	103					; 00000067H
	DB	116					; 00000074H
	DB	104					; 00000068H
	DB	0
?readLine@@YACPAUUCHARBUF@@AAVUnicodeString@icu_56@@AAVIcuToolErrorCode@3@@Z ENDP ; readLine
_TEXT	ENDS
END
