	.file	"autoaccept.c"
	.intel_syntax noprefix
	.text
Ltext0:
	.p2align 2,,3
	.def	_plugin_unload;	.scl	3;	.type	32;	.endef
_plugin_unload:
LFB100:
	.file 1 "autoaccept.c"
	.loc 1 257 0
	.cfi_startproc
LVL0:
	sub	esp, 28
LCFI0:
	.cfi_def_cfa_offset 32
	.loc 1 257 0
	mov	eax, DWORD PTR ___stack_chk_guard
	mov	DWORD PTR [esp+12], eax
	xor	eax, eax
	.loc 1 259 0
	mov	al, 1
	mov	edx, DWORD PTR [esp+12]
	xor	edx, DWORD PTR ___stack_chk_guard
	jne	L5
	add	esp, 28
LCFI1:
	.cfi_remember_state
	.cfi_def_cfa_offset 4
	ret
L5:
LCFI2:
	.cfi_restore_state
	call	___stack_chk_fail
LVL1:
	.cfi_endproc
LFE100:
	.section .rdata,"dr"
	.align 4
LC0:
	.ascii "Path to save the files in\12(Please provide the full path)\0"
LC1:
	.ascii "pidgin\0"
	.align 4
LC2:
	.ascii "/plugins/core/core-plugin_pack-autoaccept/path\0"
	.align 4
LC3:
	.ascii "When a file-transfer request arrives from a user who is\12*not* on your buddy list:\0"
	.align 4
LC4:
	.ascii "/plugins/core/core-plugin_pack-autoaccept/stranger\0"
LC5:
	.ascii "Ask\0"
LC6:
	.ascii "Auto Accept\0"
LC7:
	.ascii "Auto Reject\0"
	.align 4
LC8:
	.ascii "Notify with a popup when an autoaccepted file transfer is complete\12(only when there's no conversation with the sender)\0"
	.align 4
LC9:
	.ascii "/plugins/core/core-plugin_pack-autoaccept/notify\0"
	.align 4
LC10:
	.ascii "Create a new directory for each user\0"
	.align 4
LC11:
	.ascii "/plugins/core/core-plugin_pack-autoaccept/newdir\0"
LC12:
	.ascii "Escape the filenames\0"
	.align 4
LC13:
	.ascii "/plugins/core/core-plugin_pack-autoaccept/escape\0"
	.text
	.p2align 2,,3
	.def	_get_plugin_pref_frame;	.scl	3;	.type	32;	.endef
_get_plugin_pref_frame:
LFB101:
	.loc 1 263 0
	.cfi_startproc
LVL2:
	push	esi
LCFI3:
	.cfi_def_cfa_offset 8
	.cfi_offset 6, -8
	push	ebx
LCFI4:
	.cfi_def_cfa_offset 12
	.cfi_offset 3, -12
	sub	esp, 36
LCFI5:
	.cfi_def_cfa_offset 48
	.loc 1 263 0
	mov	eax, DWORD PTR ___stack_chk_guard
	mov	DWORD PTR [esp+28], eax
	xor	eax, eax
	.loc 1 267 0
	call	_purple_plugin_pref_frame_new
LVL3:
	mov	ebx, eax
LVL4:
	.loc 1 270 0
	mov	DWORD PTR [esp+4], OFFSET FLAT:LC0
	mov	DWORD PTR [esp], OFFSET FLAT:LC1
	call	_libintl_dgettext
LVL5:
	mov	DWORD PTR [esp+4], eax
	mov	DWORD PTR [esp], OFFSET FLAT:LC2
	call	_purple_plugin_pref_new_with_name_and_label
LVL6:
	.loc 1 272 0
	mov	DWORD PTR [esp+4], eax
	mov	DWORD PTR [esp], ebx
	call	_purple_plugin_pref_frame_add
LVL7:
	.loc 1 275 0
	mov	DWORD PTR [esp+4], OFFSET FLAT:LC3
	mov	DWORD PTR [esp], OFFSET FLAT:LC1
	call	_libintl_dgettext
LVL8:
	.loc 1 274 0
	mov	DWORD PTR [esp+4], eax
	mov	DWORD PTR [esp], OFFSET FLAT:LC4
	call	_purple_plugin_pref_new_with_name_and_label
LVL9:
	mov	esi, eax
LVL10:
	.loc 1 277 0
	mov	DWORD PTR [esp+4], 1
	mov	DWORD PTR [esp], eax
	call	_purple_plugin_pref_set_type
LVL11:
	.loc 1 278 0
	mov	DWORD PTR [esp+4], OFFSET FLAT:LC5
	mov	DWORD PTR [esp], OFFSET FLAT:LC1
	call	_libintl_dgettext
LVL12:
	mov	DWORD PTR [esp+8], 0
	mov	DWORD PTR [esp+4], eax
	mov	DWORD PTR [esp], esi
	call	_purple_plugin_pref_add_choice
LVL13:
	.loc 1 279 0
	mov	DWORD PTR [esp+4], OFFSET FLAT:LC6
	mov	DWORD PTR [esp], OFFSET FLAT:LC1
	call	_libintl_dgettext
LVL14:
	mov	DWORD PTR [esp+8], 1
	mov	DWORD PTR [esp+4], eax
	mov	DWORD PTR [esp], esi
	call	_purple_plugin_pref_add_choice
LVL15:
	.loc 1 280 0
	mov	DWORD PTR [esp+4], OFFSET FLAT:LC7
	mov	DWORD PTR [esp], OFFSET FLAT:LC1
	call	_libintl_dgettext
LVL16:
	mov	DWORD PTR [esp+8], 2
	mov	DWORD PTR [esp+4], eax
	mov	DWORD PTR [esp], esi
	call	_purple_plugin_pref_add_choice
LVL17:
	.loc 1 281 0
	mov	DWORD PTR [esp+4], esi
	mov	DWORD PTR [esp], ebx
	call	_purple_plugin_pref_frame_add
LVL18:
	.loc 1 284 0
	mov	DWORD PTR [esp+4], OFFSET FLAT:LC8
	mov	DWORD PTR [esp], OFFSET FLAT:LC1
	call	_libintl_dgettext
LVL19:
	.loc 1 283 0
	mov	DWORD PTR [esp+4], eax
	mov	DWORD PTR [esp], OFFSET FLAT:LC9
	call	_purple_plugin_pref_new_with_name_and_label
LVL20:
	.loc 1 286 0
	mov	DWORD PTR [esp+4], eax
	mov	DWORD PTR [esp], ebx
	call	_purple_plugin_pref_frame_add
LVL21:
	.loc 1 289 0
	mov	DWORD PTR [esp+4], OFFSET FLAT:LC10
	mov	DWORD PTR [esp], OFFSET FLAT:LC1
	call	_libintl_dgettext
LVL22:
	.loc 1 288 0
	mov	DWORD PTR [esp+4], eax
	mov	DWORD PTR [esp], OFFSET FLAT:LC11
	call	_purple_plugin_pref_new_with_name_and_label
LVL23:
	.loc 1 290 0
	mov	DWORD PTR [esp+4], eax
	mov	DWORD PTR [esp], ebx
	call	_purple_plugin_pref_frame_add
LVL24:
	.loc 1 293 0
	mov	DWORD PTR [esp+4], OFFSET FLAT:LC12
	mov	DWORD PTR [esp], OFFSET FLAT:LC1
	call	_libintl_dgettext
LVL25:
	.loc 1 292 0
	mov	DWORD PTR [esp+4], eax
	mov	DWORD PTR [esp], OFFSET FLAT:LC13
	call	_purple_plugin_pref_new_with_name_and_label
LVL26:
	.loc 1 294 0
	mov	DWORD PTR [esp+4], eax
	mov	DWORD PTR [esp], ebx
	call	_purple_plugin_pref_frame_add
LVL27:
	.loc 1 297 0
	mov	edx, DWORD PTR [esp+28]
	xor	edx, DWORD PTR ___stack_chk_guard
	jne	L9
	mov	eax, ebx
	add	esp, 36
LCFI6:
	.cfi_remember_state
	.cfi_def_cfa_offset 12
	pop	ebx
LCFI7:
	.cfi_restore 3
	.cfi_def_cfa_offset 8
LVL28:
	pop	esi
LCFI8:
	.cfi_restore 6
	.cfi_def_cfa_offset 4
	ret
LVL29:
L9:
LCFI9:
	.cfi_restore_state
	call	___stack_chk_fail
LVL30:
	.cfi_endproc
LFE101:
	.section .rdata,"dr"
	.align 4
LC14:
	.ascii "/plugins/core/core-plugin_pack-autoaccept/reject_stranger\0"
LC15:
	.ascii "file-recv-request\0"
LC16:
	.ascii "blist-node-extended-menu\0"
	.text
	.p2align 2,,3
	.def	_plugin_load;	.scl	3;	.type	32;	.endef
_plugin_load:
LFB99:
	.loc 1 232 0
	.cfi_startproc
LVL31:
	push	ebx
LCFI10:
	.cfi_def_cfa_offset 8
	.cfi_offset 3, -8
	sub	esp, 56
LCFI11:
	.cfi_def_cfa_offset 64
	mov	ebx, DWORD PTR [esp+64]
	.loc 1 232 0
	mov	eax, DWORD PTR ___stack_chk_guard
	mov	DWORD PTR [esp+44], eax
	xor	eax, eax
	.loc 1 241 0
	mov	DWORD PTR [esp], OFFSET FLAT:LC4
	call	_purple_prefs_exists
LVL32:
	test	eax, eax
	je	L15
L11:
	.loc 1 248 0
	call	_purple_xfers_get_handle
LVL33:
	mov	DWORD PTR [esp+16], ebx
	mov	DWORD PTR [esp+12], OFFSET FLAT:_file_recv_request_cb
	mov	DWORD PTR [esp+8], ebx
	mov	DWORD PTR [esp+4], OFFSET FLAT:LC15
	mov	DWORD PTR [esp], eax
	call	_purple_signal_connect
LVL34:
	.loc 1 250 0
	call	_purple_blist_get_handle
LVL35:
	mov	DWORD PTR [esp+16], ebx
	mov	DWORD PTR [esp+12], OFFSET FLAT:_context_menu
	mov	DWORD PTR [esp+8], ebx
	mov	DWORD PTR [esp+4], OFFSET FLAT:LC16
	mov	DWORD PTR [esp], eax
	call	_purple_signal_connect
LVL36:
	.loc 1 253 0
	mov	eax, 1
	mov	edx, DWORD PTR [esp+44]
	xor	edx, DWORD PTR ___stack_chk_guard
	jne	L16
	add	esp, 56
LCFI12:
	.cfi_remember_state
	.cfi_def_cfa_offset 8
	pop	ebx
LCFI13:
	.cfi_restore 3
	.cfi_def_cfa_offset 4
	ret
	.p2align 2,,3
L15:
LCFI14:
	.cfi_restore_state
	.loc 1 242 0
	mov	DWORD PTR [esp], OFFSET FLAT:LC14
	call	_purple_prefs_get_bool
LVL37:
	test	eax, eax
	jne	L17
	.loc 1 245 0
	mov	DWORD PTR [esp+4], 0
	mov	DWORD PTR [esp], OFFSET FLAT:LC4
	call	_purple_prefs_set_int
LVL38:
	jmp	L11
	.p2align 2,,3
L17:
	.loc 1 243 0
	mov	DWORD PTR [esp+4], 2
	mov	DWORD PTR [esp], OFFSET FLAT:LC4
	call	_purple_prefs_add_int
LVL39:
	jmp	L11
L16:
	.loc 1 253 0
	call	___stack_chk_fail
LVL40:
	.cfi_endproc
LFE99:
	.section .rdata,"dr"
LC17:
	.ascii "Autoaccept File Transfers...\0"
	.text
	.p2align 2,,3
	.def	_context_menu;	.scl	3;	.type	32;	.endef
_context_menu:
LFB98:
	.loc 1 218 0
	.cfi_startproc
LVL41:
	push	edi
LCFI15:
	.cfi_def_cfa_offset 8
	.cfi_offset 7, -8
	push	esi
LCFI16:
	.cfi_def_cfa_offset 12
	.cfi_offset 6, -12
	push	ebx
LCFI17:
	.cfi_def_cfa_offset 16
	.cfi_offset 3, -16
	sub	esp, 32
LCFI18:
	.cfi_def_cfa_offset 48
	mov	ebx, DWORD PTR [esp+48]
	mov	esi, DWORD PTR [esp+52]
	mov	edi, DWORD PTR [esp+56]
	.loc 1 218 0
	mov	eax, DWORD PTR ___stack_chk_guard
	mov	DWORD PTR [esp+28], eax
	xor	eax, eax
	.loc 1 221 0
	mov	DWORD PTR [esp], ebx
	call	_purple_blist_node_get_type
LVL42:
	cmp	eax, 2
	je	L21
	.loc 1 221 0 is_stmt 0 discriminator 1
	mov	DWORD PTR [esp], ebx
	call	_purple_blist_node_get_type
LVL43:
	dec	eax
	je	L21
	.loc 1 222 0 is_stmt 1 discriminator 1
	mov	DWORD PTR [esp], ebx
	call	_purple_blist_node_get_flags
LVL44:
	.loc 1 221 0 discriminator 1
	test	al, 1
	je	L18
L21:
	.loc 1 225 0
	mov	DWORD PTR [esp+4], OFFSET FLAT:LC17
	mov	DWORD PTR [esp], OFFSET FLAT:LC1
	call	_libintl_dgettext
LVL45:
	mov	DWORD PTR [esp+12], 0
	mov	DWORD PTR [esp+8], edi
	mov	DWORD PTR [esp+4], OFFSET FLAT:_set_auto_accept_settings
	mov	DWORD PTR [esp], eax
	call	_purple_menu_action_new
LVL46:
	.loc 1 227 0
	mov	DWORD PTR [esp+4], eax
	mov	eax, DWORD PTR [esi]
LVL47:
	mov	DWORD PTR [esp], eax
	call	_g_list_prepend
LVL48:
	mov	DWORD PTR [esi], eax
L18:
	.loc 1 228 0
	mov	eax, DWORD PTR [esp+28]
	xor	eax, DWORD PTR ___stack_chk_guard
	jne	L27
	add	esp, 32
LCFI19:
	.cfi_remember_state
	.cfi_def_cfa_offset 16
	pop	ebx
LCFI20:
	.cfi_restore 3
	.cfi_def_cfa_offset 12
	pop	esi
LCFI21:
	.cfi_restore 6
	.cfi_def_cfa_offset 8
	pop	edi
LCFI22:
	.cfi_restore 7
	.cfi_def_cfa_offset 4
	ret
L27:
LCFI23:
	.cfi_restore_state
	call	___stack_chk_fail
LVL49:
	.cfi_endproc
LFE98:
	.section .rdata,"dr"
	.align 4
LC18:
	.ascii "PURPLE_BLIST_NODE_IS_CONTACT(node)\0"
	.align 4
LC19:
	.ascii "When a file-transfer request arrives from %s\0"
LC20:
	.ascii "_Cancel\0"
LC21:
	.ascii "_Save\0"
LC22:
	.ascii "autoaccept\0"
LC23:
	.ascii "Set Autoaccept Setting\0"
	.text
	.p2align 2,,3
	.def	_set_auto_accept_settings;	.scl	3;	.type	32;	.endef
_set_auto_accept_settings:
LFB97:
	.loc 1 193 0
	.cfi_startproc
LVL50:
	push	ebp
LCFI24:
	.cfi_def_cfa_offset 8
	.cfi_offset 5, -8
	push	edi
LCFI25:
	.cfi_def_cfa_offset 12
	.cfi_offset 7, -12
	push	esi
LCFI26:
	.cfi_def_cfa_offset 16
	.cfi_offset 6, -16
	push	ebx
LCFI27:
	.cfi_def_cfa_offset 20
	.cfi_offset 3, -20
	sub	esp, 156
LCFI28:
	.cfi_def_cfa_offset 176
	mov	ebx, DWORD PTR [esp+176]
	mov	esi, DWORD PTR [esp+180]
	.loc 1 193 0
	mov	eax, DWORD PTR ___stack_chk_guard
	mov	DWORD PTR [esp+140], eax
	xor	eax, eax
	.loc 1 196 0
	mov	DWORD PTR [esp], ebx
	call	_purple_blist_node_get_type
LVL51:
	cmp	eax, 2
	je	L37
LVL52:
L29:
LBB4:
	.loc 1 198 0
	mov	DWORD PTR [esp], ebx
	call	_purple_blist_node_get_type
LVL53:
	dec	eax
	je	L30
LVL54:
LBE4:
	mov	DWORD PTR [esp+8], OFFSET FLAT:LC18
	mov	DWORD PTR [esp+4], OFFSET FLAT:___PRETTY_FUNCTION__.43891
	mov	DWORD PTR [esp], 0
	call	_g_return_if_fail_warning
LVL55:
	.loc 1 214 0
	mov	ecx, DWORD PTR [esp+140]
	xor	ecx, DWORD PTR ___stack_chk_guard
	jne	L35
	add	esp, 156
LCFI29:
	.cfi_remember_state
	.cfi_def_cfa_offset 20
	pop	ebx
LCFI30:
	.cfi_restore 3
	.cfi_def_cfa_offset 16
LVL56:
	pop	esi
LCFI31:
	.cfi_restore 6
	.cfi_def_cfa_offset 12
	pop	edi
LCFI32:
	.cfi_restore 7
	.cfi_def_cfa_offset 8
	pop	ebp
LCFI33:
	.cfi_restore 5
	.cfi_def_cfa_offset 4
	ret
LVL57:
	.p2align 2,,3
L30:
LCFI34:
	.cfi_restore_state
	.loc 1 200 0
	mov	DWORD PTR [esp], ebx
	call	_purple_contact_get_alias
LVL58:
	mov	edi, eax
	mov	DWORD PTR [esp+4], OFFSET FLAT:LC19
	mov	DWORD PTR [esp], OFFSET FLAT:LC1
	call	_libintl_dgettext
LVL59:
	mov	DWORD PTR [esp+4], edi
	mov	DWORD PTR [esp], eax
	call	_g_strdup_printf
LVL60:
	mov	edi, eax
LVL61:
	.loc 1 202 0
	mov	DWORD PTR [esp], ebx
	call	_purple_contact_get_alias
LVL62:
	.loc 1 210 0
	mov	DWORD PTR [esp+4], OFFSET FLAT:LC7
	mov	DWORD PTR [esp], OFFSET FLAT:LC1
	mov	DWORD PTR [esp+104], eax
	call	_libintl_dgettext
LVL63:
	mov	DWORD PTR [esp+112], eax
	.loc 1 209 0
	mov	DWORD PTR [esp+4], OFFSET FLAT:LC6
	mov	DWORD PTR [esp], OFFSET FLAT:LC1
	call	_libintl_dgettext
LVL64:
	mov	DWORD PTR [esp+116], eax
	.loc 1 208 0
	mov	DWORD PTR [esp+4], OFFSET FLAT:LC5
	mov	DWORD PTR [esp], OFFSET FLAT:LC1
	call	_libintl_dgettext
LVL65:
	mov	DWORD PTR [esp+120], eax
	.loc 1 205 0
	mov	DWORD PTR [esp+4], OFFSET FLAT:LC20
	mov	DWORD PTR [esp], OFFSET FLAT:LC1
	call	_libintl_dgettext
LVL66:
	mov	DWORD PTR [esp+124], eax
	.loc 1 204 0
	mov	DWORD PTR [esp+4], OFFSET FLAT:LC21
	mov	DWORD PTR [esp], OFFSET FLAT:LC1
	call	_libintl_dgettext
LVL67:
	.loc 1 202 0
	mov	DWORD PTR [esp+4], OFFSET FLAT:LC22
	mov	DWORD PTR [esp], ebx
	mov	DWORD PTR [esp+108], eax
	call	_purple_blist_node_get_int
LVL68:
	mov	ebp, eax
	mov	DWORD PTR [esp+4], OFFSET FLAT:LC23
	mov	DWORD PTR [esp], OFFSET FLAT:LC1
	call	_libintl_dgettext
LVL69:
	mov	DWORD PTR [esp+88], 0
	mov	DWORD PTR [esp+84], 0
	mov	ecx, DWORD PTR [esp+104]
	mov	DWORD PTR [esp+80], ecx
	mov	DWORD PTR [esp+76], 0
	mov	DWORD PTR [esp+72], 2
	mov	ecx, DWORD PTR [esp+112]
	mov	DWORD PTR [esp+68], ecx
	mov	DWORD PTR [esp+64], 1
	mov	ecx, DWORD PTR [esp+116]
	mov	DWORD PTR [esp+60], ecx
	mov	DWORD PTR [esp+56], 0
	mov	ecx, DWORD PTR [esp+120]
	mov	DWORD PTR [esp+52], ecx
	mov	DWORD PTR [esp+48], ebx
	mov	DWORD PTR [esp+44], 0
	mov	DWORD PTR [esp+40], 0
	mov	DWORD PTR [esp+36], 0
	mov	DWORD PTR [esp+32], 0
	mov	ecx, DWORD PTR [esp+124]
	mov	DWORD PTR [esp+28], ecx
	mov	DWORD PTR [esp+24], OFFSET FLAT:_save_cb
	mov	edx, DWORD PTR [esp+108]
	mov	DWORD PTR [esp+20], edx
	mov	DWORD PTR [esp+16], ebp
	mov	DWORD PTR [esp+12], 0
	mov	DWORD PTR [esp+8], edi
	mov	DWORD PTR [esp+4], eax
	mov	DWORD PTR [esp], esi
	call	_purple_request_choice
LVL70:
	.loc 1 213 0
	mov	eax, DWORD PTR [esp+140]
	xor	eax, DWORD PTR ___stack_chk_guard
	jne	L35
	mov	DWORD PTR [esp+176], edi
	.loc 1 214 0
	add	esp, 156
LCFI35:
	.cfi_remember_state
	.cfi_def_cfa_offset 20
	pop	ebx
LCFI36:
	.cfi_restore 3
	.cfi_def_cfa_offset 16
LVL71:
	pop	esi
LCFI37:
	.cfi_restore 6
	.cfi_def_cfa_offset 12
	pop	edi
LCFI38:
	.cfi_restore 7
	.cfi_def_cfa_offset 8
LVL72:
	pop	ebp
LCFI39:
	.cfi_restore 5
	.cfi_def_cfa_offset 4
	.loc 1 213 0
	jmp	_g_free
LVL73:
	.p2align 2,,3
L37:
LCFI40:
	.cfi_restore_state
	.loc 1 197 0
	mov	DWORD PTR [esp], ebx
	call	_purple_blist_node_get_parent
LVL74:
	mov	ebx, eax
LVL75:
	jmp	L29
LVL76:
L35:
	.loc 1 214 0
	call	___stack_chk_fail
LVL77:
	.cfi_endproc
LFE97:
	.p2align 2,,3
	.def	_save_cb;	.scl	3;	.type	32;	.endef
_save_cb:
LFB96:
	.loc 1 184 0
	.cfi_startproc
LVL78:
	push	esi
LCFI41:
	.cfi_def_cfa_offset 8
	.cfi_offset 6, -8
	push	ebx
LCFI42:
	.cfi_def_cfa_offset 12
	.cfi_offset 3, -12
	sub	esp, 36
LCFI43:
	.cfi_def_cfa_offset 48
	mov	ebx, DWORD PTR [esp+48]
	mov	esi, DWORD PTR [esp+52]
	.loc 1 184 0
	mov	eax, DWORD PTR ___stack_chk_guard
	mov	DWORD PTR [esp+28], eax
	xor	eax, eax
	.loc 1 185 0
	mov	DWORD PTR [esp], ebx
	call	_purple_blist_node_get_type
LVL79:
	cmp	eax, 2
	je	L47
LVL80:
L39:
LBB9:
	.loc 1 187 0
	mov	DWORD PTR [esp], ebx
	call	_purple_blist_node_get_type
LVL81:
	dec	eax
	je	L48
LVL82:
LBE9:
LBB10:
LBB11:
	mov	DWORD PTR [esp+8], OFFSET FLAT:LC18
	mov	DWORD PTR [esp+4], OFFSET FLAT:___PRETTY_FUNCTION__.43883
	mov	DWORD PTR [esp], 0
	call	_g_return_if_fail_warning
LVL83:
L42:
LBE11:
LBE10:
	.loc 1 189 0 discriminator 1
	mov	eax, DWORD PTR [esp+28]
	xor	eax, DWORD PTR ___stack_chk_guard
	jne	L49
	.loc 1 189 0 is_stmt 0
	add	esp, 36
LCFI44:
	.cfi_remember_state
	.cfi_def_cfa_offset 12
	pop	ebx
LCFI45:
	.cfi_restore 3
	.cfi_def_cfa_offset 8
LVL84:
	pop	esi
LCFI46:
	.cfi_restore 6
	.cfi_def_cfa_offset 4
	ret
LVL85:
	.p2align 2,,3
L48:
LCFI47:
	.cfi_restore_state
	.loc 1 188 0 is_stmt 1
	mov	DWORD PTR [esp+8], esi
	mov	DWORD PTR [esp+4], OFFSET FLAT:LC22
	mov	DWORD PTR [esp], ebx
	call	_purple_blist_node_set_int
LVL86:
	jmp	L42
LVL87:
	.p2align 2,,3
L47:
	.loc 1 186 0
	mov	DWORD PTR [esp], ebx
	call	_purple_blist_node_get_parent
LVL88:
	mov	ebx, eax
LVL89:
	jmp	L39
LVL90:
L49:
	.loc 1 189 0
	call	___stack_chk_fail
LVL91:
	.cfi_endproc
LFE96:
	.p2align 2,,3
	.def	_ensure_path_exists;	.scl	3;	.type	32;	.endef
_ensure_path_exists:
LFB93:
	.loc 1 62 0
	.cfi_startproc
LVL92:
	push	ebx
LCFI48:
	.cfi_def_cfa_offset 8
	.cfi_offset 3, -8
	sub	esp, 40
LCFI49:
	.cfi_def_cfa_offset 48
	mov	ebx, eax
	.loc 1 62 0
	mov	eax, DWORD PTR ___stack_chk_guard
	mov	DWORD PTR [esp+28], eax
	xor	eax, eax
LVL93:
	.loc 1 63 0
	mov	DWORD PTR [esp+4], 4
	mov	DWORD PTR [esp], ebx
	call	_g_file_test_utf8
LVL94:
	test	eax, eax
	je	L55
	.loc 1 69 0
	mov	eax, 1
L51:
	.loc 1 70 0
	mov	edx, DWORD PTR [esp+28]
	xor	edx, DWORD PTR ___stack_chk_guard
	jne	L56
	add	esp, 40
LCFI50:
	.cfi_remember_state
	.cfi_def_cfa_offset 8
	pop	ebx
LCFI51:
	.cfi_restore 3
	.cfi_def_cfa_offset 4
LVL95:
	ret
LVL96:
	.p2align 2,,3
L55:
LCFI52:
	.cfi_restore_state
LBB14:
LBB15:
	.loc 1 65 0
	mov	DWORD PTR [esp+4], 448
	mov	DWORD PTR [esp], ebx
	call	_purple_build_dir
LVL97:
	test	eax, eax
	.loc 1 66 0
	sete	al
	movzx	eax, al
	jmp	L51
LVL98:
L56:
LBE15:
LBE14:
	.loc 1 70 0
	call	___stack_chk_fail
LVL99:
	.cfi_endproc
LFE93:
	.section .rdata,"dr"
LC24:
	.ascii ".\0"
LC25:
	.ascii ".%s\0"
LC26:
	.ascii "\0"
LC27:
	.ascii "%s-%d%s\0"
LC28:
	.ascii "file-recv-complete\0"
LC29:
	.ascii "name != NULL\0"
	.text
	.p2align 2,,3
	.def	_file_recv_request_cb;	.scl	3;	.type	32;	.endef
_file_recv_request_cb:
LFB95:
	.loc 1 87 0
	.cfi_startproc
LVL100:
	push	ebp
LCFI53:
	.cfi_def_cfa_offset 8
	.cfi_offset 5, -8
	push	edi
LCFI54:
	.cfi_def_cfa_offset 12
	.cfi_offset 7, -12
	push	esi
LCFI55:
	.cfi_def_cfa_offset 16
	.cfi_offset 6, -16
	push	ebx
LCFI56:
	.cfi_def_cfa_offset 20
	.cfi_offset 3, -20
	sub	esp, 92
LCFI57:
	.cfi_def_cfa_offset 112
	mov	esi, DWORD PTR [esp+112]
	mov	edx, DWORD PTR [esp+116]
	mov	DWORD PTR [esp+52], edx
	.loc 1 87 0
	mov	eax, DWORD PTR ___stack_chk_guard
	mov	DWORD PTR [esp+76], eax
	xor	eax, eax
	.loc 1 96 0
	mov	ebx, DWORD PTR [esi+8]
LVL101:
	.loc 1 97 0
	mov	eax, DWORD PTR [esi+12]
	mov	DWORD PTR [esp+4], eax
	mov	DWORD PTR [esp], ebx
	call	_purple_find_buddy
LVL102:
	.loc 1 101 0
	test	eax, eax
	je	L58
	.loc 1 102 0
	mov	DWORD PTR [esp], eax
	call	_purple_blist_node_get_parent
LVL103:
	mov	edi, eax
LVL104:
LBB16:
	.loc 1 103 0
	mov	DWORD PTR [esp], eax
	call	_purple_blist_node_get_type
LVL105:
	dec	eax
	je	L88
LVL106:
LBE16:
	mov	DWORD PTR [esp+8], OFFSET FLAT:LC18
	mov	DWORD PTR [esp+4], OFFSET FLAT:___PRETTY_FUNCTION__.43861
	mov	DWORD PTR [esp], 0
	call	_g_return_if_fail_warning
LVL107:
L57:
	.loc 1 180 0
	mov	eax, DWORD PTR [esp+76]
	xor	eax, DWORD PTR ___stack_chk_guard
	jne	L87
	add	esp, 92
LCFI58:
	.cfi_remember_state
	.cfi_def_cfa_offset 20
	pop	ebx
LCFI59:
	.cfi_restore 3
	.cfi_def_cfa_offset 16
	pop	esi
LCFI60:
	.cfi_restore 6
	.cfi_def_cfa_offset 12
	pop	edi
LCFI61:
	.cfi_restore 7
	.cfi_def_cfa_offset 8
	pop	ebp
LCFI62:
	.cfi_restore 5
	.cfi_def_cfa_offset 4
	ret
LVL108:
	.p2align 2,,3
L88:
LCFI63:
	.cfi_restore_state
	.loc 1 104 0
	mov	DWORD PTR [esp+4], OFFSET FLAT:LC22
	mov	DWORD PTR [esp], edi
	call	_purple_blist_node_get_int
LVL109:
L76:
	.loc 1 109 0
	cmp	eax, 1
	je	L62
	cmp	eax, 2
	jne	L57
	.loc 1 177 0
	mov	DWORD PTR [esi+76], 5
	.loc 1 178 0
	jmp	L57
	.p2align 2,,3
L62:
	.loc 1 114 0
	mov	DWORD PTR [esp], OFFSET FLAT:LC2
	call	_purple_prefs_get_string
LVL110:
	mov	edi, eax
LVL111:
	.loc 1 115 0
	call	_ensure_path_exists
LVL112:
	test	eax, eax
	je	L64
LVL113:
LBB17:
	.loc 1 123 0
	mov	DWORD PTR [esp], OFFSET FLAT:LC11
	call	_purple_prefs_get_bool
LVL114:
	test	eax, eax
	jne	L89
	.loc 1 126 0
	mov	DWORD PTR [esp+4], 0
	mov	DWORD PTR [esp], edi
	call	_g_build_filename
LVL115:
	mov	ebp, eax
LVL116:
L66:
	.loc 1 128 0
	mov	eax, ebp
	call	_ensure_path_exists
LVL117:
	test	eax, eax
	je	L90
	.loc 1 135 0
	mov	DWORD PTR [esp], OFFSET FLAT:LC13
	call	_purple_prefs_get_bool
LVL118:
	test	eax, eax
	jne	L91
	.loc 1 138 0
	mov	edi, DWORD PTR [esi+20]
LVL119:
L70:
	.loc 1 140 0
	mov	DWORD PTR [esp+8], 0
	mov	DWORD PTR [esp+4], edi
	mov	DWORD PTR [esp], ebp
	call	_g_build_filename
LVL120:
	mov	ebx, eax
LVL121:
	.loc 1 143 0
	mov	DWORD PTR [esp+8], 2
	mov	DWORD PTR [esp+4], OFFSET FLAT:LC24
	mov	DWORD PTR [esp], edi
	call	_g_strsplit
LVL122:
	mov	DWORD PTR [esp+56], eax
LVL123:
	.loc 1 144 0
	mov	edx, DWORD PTR [eax]
	mov	DWORD PTR [esp+44], edx
LVL124:
LBB18:
	.loc 1 145 0
	test	edx, edx
	je	L92
LVL125:
LBE18:
	.loc 1 146 0
	mov	edx, DWORD PTR [esp+56]
LVL126:
	mov	eax, DWORD PTR [edx+4]
LVL127:
	test	eax, eax
	je	L93
	.loc 1 148 0
	mov	DWORD PTR [esp+4], eax
	mov	DWORD PTR [esp], OFFSET FLAT:LC25
	call	_g_strdup_printf
LVL128:
	mov	DWORD PTR [esp+48], eax
LVL129:
L74:
LBE17:
	.loc 1 87 0 discriminator 1
	mov	edi, 1
LVL130:
	mov	DWORD PTR [esp+60], esi
	mov	esi, edi
	jmp	L73
LVL131:
	.p2align 2,,3
L75:
LBB20:
LBB19:
	.loc 1 159 0
	lea	edi, [esi+1]
LVL132:
	mov	eax, DWORD PTR [esp+48]
	mov	DWORD PTR [esp+12], eax
	mov	DWORD PTR [esp+8], esi
	mov	edx, DWORD PTR [esp+44]
	mov	DWORD PTR [esp+4], edx
	mov	DWORD PTR [esp], OFFSET FLAT:LC27
	call	_g_strdup_printf
LVL133:
	mov	esi, eax
LVL134:
	.loc 1 160 0
	mov	DWORD PTR [esp], ebx
	call	_g_free
LVL135:
	.loc 1 161 0
	mov	DWORD PTR [esp+8], 0
	mov	DWORD PTR [esp+4], esi
	mov	DWORD PTR [esp], ebp
	call	_g_build_filename
LVL136:
	mov	ebx, eax
LVL137:
	.loc 1 162 0
	mov	DWORD PTR [esp], esi
	call	_g_free
LVL138:
	.loc 1 159 0
	mov	esi, edi
LVL139:
L73:
LBE19:
	.loc 1 158 0 discriminator 1
	mov	DWORD PTR [esp+4], 16
	mov	DWORD PTR [esp], ebx
	call	_g_file_test_utf8
LVL140:
	test	eax, eax
	jne	L75
	mov	esi, DWORD PTR [esp+60]
LVL141:
	.loc 1 165 0
	mov	DWORD PTR [esp+4], ebx
	mov	DWORD PTR [esp], esi
	call	_purple_xfer_request_accepted
LVL142:
	.loc 1 167 0
	mov	eax, DWORD PTR [esp+56]
	mov	DWORD PTR [esp], eax
	call	_g_strfreev
LVL143:
	.loc 1 168 0
	mov	eax, DWORD PTR [esp+48]
	mov	DWORD PTR [esp], eax
	call	_g_free
LVL144:
	.loc 1 169 0
	mov	DWORD PTR [esp], ebp
	call	_g_free
LVL145:
	.loc 1 170 0
	mov	DWORD PTR [esp], ebx
	call	_g_free
LVL146:
L64:
LBE20:
	.loc 1 173 0
	call	_purple_xfers_get_handle
LVL147:
	mov	DWORD PTR [esp+16], esi
	mov	DWORD PTR [esp+12], OFFSET FLAT:_auto_accept_complete_cb
	mov	edx, DWORD PTR [esp+52]
	mov	DWORD PTR [esp+8], edx
	mov	DWORD PTR [esp+4], OFFSET FLAT:LC28
	mov	DWORD PTR [esp], eax
	call	_purple_signal_connect
LVL148:
	.loc 1 175 0
	jmp	L57
LVL149:
	.p2align 2,,3
L89:
LBB21:
	.loc 1 124 0
	mov	eax, DWORD PTR [esi+12]
	mov	DWORD PTR [esp+4], eax
	mov	DWORD PTR [esp], ebx
	call	_purple_normalize
LVL150:
	mov	DWORD PTR [esp+8], 0
	mov	DWORD PTR [esp+4], eax
	mov	DWORD PTR [esp], edi
	call	_g_build_filename
LVL151:
	mov	ebp, eax
LVL152:
	jmp	L66
LVL153:
	.p2align 2,,3
L58:
LBE21:
	.loc 1 106 0
	mov	DWORD PTR [esp], OFFSET FLAT:LC4
	call	_purple_prefs_get_int
LVL154:
	jmp	L76
LVL155:
	.p2align 2,,3
L90:
LBB22:
	.loc 1 130 0
	mov	edx, DWORD PTR [esp+76]
	xor	edx, DWORD PTR ___stack_chk_guard
	jne	L87
	mov	DWORD PTR [esp+112], ebp
LBE22:
	.loc 1 180 0
	add	esp, 92
LCFI64:
	.cfi_remember_state
	.cfi_def_cfa_offset 20
	pop	ebx
LCFI65:
	.cfi_restore 3
	.cfi_def_cfa_offset 16
LVL156:
	pop	esi
LCFI66:
	.cfi_restore 6
	.cfi_def_cfa_offset 12
	pop	edi
LCFI67:
	.cfi_restore 7
	.cfi_def_cfa_offset 8
LVL157:
	pop	ebp
LCFI68:
	.cfi_restore 5
	.cfi_def_cfa_offset 4
LVL158:
LBB23:
	.loc 1 130 0
	jmp	_g_free
LVL159:
	.p2align 2,,3
L91:
LCFI69:
	.cfi_restore_state
	.loc 1 136 0
	mov	eax, DWORD PTR [esi+20]
	mov	DWORD PTR [esp], eax
	call	_purple_escape_filename
LVL160:
	mov	edi, eax
LVL161:
	jmp	L70
LVL162:
	.p2align 2,,3
L93:
	.loc 1 150 0
	mov	DWORD PTR [esp], OFFSET FLAT:LC26
	call	_g_strdup
LVL163:
	mov	DWORD PTR [esp+48], eax
LVL164:
	jmp	L74
LVL165:
	.p2align 2,,3
L92:
	.loc 1 145 0
	mov	DWORD PTR [esp+8], OFFSET FLAT:LC29
	mov	DWORD PTR [esp+4], OFFSET FLAT:___PRETTY_FUNCTION__.43861
	mov	DWORD PTR [esp], 0
	call	_g_return_if_fail_warning
LVL166:
	jmp	L57
LVL167:
L87:
LBE23:
	.loc 1 180 0
	call	___stack_chk_fail
LVL168:
	.cfi_endproc
LFE95:
	.section .rdata,"dr"
	.align 4
LC30:
	.ascii "Autoaccepted file transfer of \"%s\" from \"%s\" completed.\0"
LC31:
	.ascii "Autoaccept complete\0"
	.text
	.p2align 2,,3
	.def	_auto_accept_complete_cb;	.scl	3;	.type	32;	.endef
_auto_accept_complete_cb:
LFB94:
	.loc 1 74 0
	.cfi_startproc
LVL169:
	push	esi
LCFI70:
	.cfi_def_cfa_offset 8
	.cfi_offset 6, -8
	push	ebx
LCFI71:
	.cfi_def_cfa_offset 12
	.cfi_offset 3, -12
	sub	esp, 52
LCFI72:
	.cfi_def_cfa_offset 64
	mov	ebx, DWORD PTR [esp+64]
	.loc 1 74 0
	mov	eax, DWORD PTR ___stack_chk_guard
	mov	DWORD PTR [esp+44], eax
	xor	eax, eax
	.loc 1 75 0
	cmp	ebx, DWORD PTR [esp+68]
	je	L105
L94:
	.loc 1 83 0
	mov	eax, DWORD PTR [esp+44]
	xor	eax, DWORD PTR ___stack_chk_guard
	jne	L104
	add	esp, 52
LCFI73:
	.cfi_remember_state
	.cfi_def_cfa_offset 12
	pop	ebx
LCFI74:
	.cfi_restore 3
	.cfi_def_cfa_offset 8
	pop	esi
LCFI75:
	.cfi_restore 6
	.cfi_def_cfa_offset 4
	ret
	.p2align 2,,3
L105:
LCFI76:
	.cfi_restore_state
	.loc 1 75 0 discriminator 1
	mov	DWORD PTR [esp], OFFSET FLAT:LC9
	call	_purple_prefs_get_bool
LVL170:
	test	eax, eax
	je	L94
	.loc 1 76 0 discriminator 1
	mov	eax, DWORD PTR [ebx+8]
	mov	DWORD PTR [esp+8], eax
	mov	eax, DWORD PTR [ebx+12]
	mov	DWORD PTR [esp+4], eax
	mov	DWORD PTR [esp], 1
	call	_purple_find_conversation_with_account
LVL171:
	.loc 1 75 0 discriminator 1
	test	eax, eax
	jne	L94
LVL172:
LBB27:
LBB28:
LBB29:
	.loc 1 78 0
	mov	esi, DWORD PTR [ebx+12]
	mov	ebx, DWORD PTR [ebx+20]
LVL173:
	mov	DWORD PTR [esp+4], OFFSET FLAT:LC30
	mov	DWORD PTR [esp], OFFSET FLAT:LC1
	call	_libintl_dgettext
LVL174:
	mov	DWORD PTR [esp+8], esi
	mov	DWORD PTR [esp+4], ebx
	mov	DWORD PTR [esp], eax
	call	_g_strdup_printf
LVL175:
	mov	ebx, eax
LVL176:
	.loc 1 80 0
	mov	DWORD PTR [esp+4], OFFSET FLAT:LC31
	mov	DWORD PTR [esp], OFFSET FLAT:LC1
	call	_libintl_dgettext
LVL177:
	mov	DWORD PTR [esp+24], 0
	mov	DWORD PTR [esp+20], 0
	mov	DWORD PTR [esp+16], 0
	mov	DWORD PTR [esp+12], ebx
	mov	DWORD PTR [esp+8], eax
	mov	DWORD PTR [esp+4], 2
	mov	DWORD PTR [esp], 0
	call	_purple_notify_message
LVL178:
	.loc 1 81 0
	mov	eax, DWORD PTR [esp+44]
	xor	eax, DWORD PTR ___stack_chk_guard
	jne	L104
	mov	DWORD PTR [esp+64], ebx
LBE29:
LBE28:
LBE27:
	.loc 1 83 0
	add	esp, 52
LCFI77:
	.cfi_remember_state
	.cfi_def_cfa_offset 12
	pop	ebx
LCFI78:
	.cfi_restore 3
	.cfi_def_cfa_offset 8
LVL179:
	pop	esi
LCFI79:
	.cfi_restore 6
	.cfi_def_cfa_offset 4
LBB32:
LBB31:
LBB30:
	.loc 1 81 0
	jmp	_g_free
LVL180:
L104:
LCFI80:
	.cfi_restore_state
LBE30:
LBE31:
LBE32:
	.loc 1 83 0
	call	___stack_chk_fail
LVL181:
	.cfi_endproc
LFE94:
	.section .rdata,"dr"
	.align 4
LC32:
	.ascii "/plugins/core/core-plugin_pack-autoaccept\0"
	.text
	.p2align 2,,3
	.globl	_purple_init_plugin
	.def	_purple_init_plugin;	.scl	2;	.type	32;	.endef
_purple_init_plugin:
LFB103:
	.loc 1 358 0
	.cfi_startproc
LVL182:
	push	esi
LCFI81:
	.cfi_def_cfa_offset 8
	.cfi_offset 6, -8
	push	ebx
LCFI82:
	.cfi_def_cfa_offset 12
	.cfi_offset 3, -12
	sub	esp, 36
LCFI83:
	.cfi_def_cfa_offset 48
	mov	esi, DWORD PTR [esp+48]
	.loc 1 358 0
	mov	eax, DWORD PTR ___stack_chk_guard
	mov	DWORD PTR [esp+28], eax
	xor	eax, eax
	mov	DWORD PTR [esi+16], OFFSET FLAT:_info
LBB35:
LBB36:
	.loc 1 349 0
	call	_purple_user_dir
LVL183:
	mov	DWORD PTR [esp+8], 0
	mov	DWORD PTR [esp+4], OFFSET FLAT:LC22
	mov	DWORD PTR [esp], eax
	call	_g_build_filename
LVL184:
	mov	ebx, eax
LVL185:
	.loc 1 350 0
	mov	DWORD PTR [esp], OFFSET FLAT:LC32
	call	_purple_prefs_add_none
LVL186:
	.loc 1 351 0
	mov	DWORD PTR [esp+4], ebx
	mov	DWORD PTR [esp], OFFSET FLAT:LC2
	call	_purple_prefs_add_string
LVL187:
	.loc 1 352 0
	mov	DWORD PTR [esp+4], 1
	mov	DWORD PTR [esp], OFFSET FLAT:LC9
	call	_purple_prefs_add_bool
LVL188:
	.loc 1 353 0
	mov	DWORD PTR [esp+4], 1
	mov	DWORD PTR [esp], OFFSET FLAT:LC11
	call	_purple_prefs_add_bool
LVL189:
	.loc 1 354 0
	mov	DWORD PTR [esp+4], 1
	mov	DWORD PTR [esp], OFFSET FLAT:LC13
	call	_purple_prefs_add_bool
LVL190:
	.loc 1 355 0
	mov	DWORD PTR [esp], ebx
	call	_g_free
LVL191:
LBE36:
LBE35:
	.loc 1 358 0
	mov	eax, DWORD PTR [esp+28]
	xor	eax, DWORD PTR ___stack_chk_guard
	jne	L110
	mov	DWORD PTR [esp+48], esi
	add	esp, 36
LCFI84:
	.cfi_remember_state
	.cfi_def_cfa_offset 12
	pop	ebx
LCFI85:
	.cfi_restore 3
	.cfi_def_cfa_offset 8
LVL192:
	pop	esi
LCFI86:
	.cfi_restore 6
	.cfi_def_cfa_offset 4
	jmp	_purple_plugin_register
LVL193:
L110:
LCFI87:
	.cfi_restore_state
	call	___stack_chk_fail
LVL194:
	.cfi_endproc
LFE103:
	.section .rdata,"dr"
LC33:
	.ascii "core-plugin_pack-autoaccept\0"
LC34:
	.ascii "Autoaccept\0"
LC35:
	.ascii "2.10.11\0"
	.align 4
LC36:
	.ascii "Auto-accept file transfer requests from selected users.\0"
	.align 4
LC37:
	.ascii "Sadrul H Chowdhury <sadrul@users.sourceforge.net>\0"
LC38:
	.ascii "http://pidgin.im/\0"
	.data
	.align 32
_info:
	.long	5
	.long	2
	.long	10
	.long	0
	.long	0
	.long	0
	.long	0
	.long	0
	.long	LC33
	.long	LC34
	.long	LC35
	.long	LC36
	.long	LC36
	.long	LC37
	.long	LC38
	.long	_plugin_load
	.long	_plugin_unload
	.long	0
	.long	0
	.long	0
	.long	_prefs_info
	.long	0
	.long	0
	.long	0
	.long	0
	.long	0
	.section .rdata,"dr"
___PRETTY_FUNCTION__.43891:
	.ascii "set_auto_accept_settings\0"
___PRETTY_FUNCTION__.43883:
	.ascii "save_cb\0"
___PRETTY_FUNCTION__.43861:
	.ascii "file_recv_request_cb\0"
	.data
	.align 4
_prefs_info:
	.long	_get_plugin_pref_frame
	.long	0
	.long	0
	.long	0
	.long	0
	.long	0
	.long	0
	.text
Letext0:
	.file 2 "c:/workspace/pidgin-devel/win32-dev/mingw-4.7.2/bin/../lib/gcc/mingw32/4.7.2/../../../../include/stdio.h"
	.file 3 "c:/workspace/pidgin-devel/win32-dev/mingw-4.7.2/bin/../lib/gcc/mingw32/4.7.2/include/stddef.h"
	.file 4 "c:/workspace/pidgin-devel/win32-dev/mingw-4.7.2/bin/../lib/gcc/mingw32/4.7.2/../../../../include/sys/types.h"
	.file 5 "c:/workspace/pidgin-devel/win32-dev/mingw-4.7.2/bin/../lib/gcc/mingw32/4.7.2/../../../../include/time.h"
	.file 6 "../../../win32-dev/gtk_2_0-2.14/lib/glib-2.0/include/glibconfig.h"
	.file 7 "../../../win32-dev/gtk_2_0-2.14/include/glib-2.0/glib/gtypes.h"
	.file 8 "../../../win32-dev/gtk_2_0-2.14/include/glib-2.0/glib/glist.h"
	.file 9 "../../../win32-dev/gtk_2_0-2.14/include/glib-2.0/glib/gfileutils.h"
	.file 10 "../../../win32-dev/gtk_2_0-2.14/include/glib-2.0/glib/ghash.h"
	.file 11 "../../../win32-dev/gtk_2_0-2.14/include/glib-2.0/glib/gslist.h"
	.file 12 "../../../win32-dev/gtk_2_0-2.14/include/glib-2.0/gobject/gclosure.h"
	.file 13 "../../libpurple/account.h"
	.file 14 "../../libpurple/connection.h"
	.file 15 "../../libpurple/signals.h"
	.file 16 "../../libpurple/plugin.h"
	.file 17 "../../libpurple/pluginpref.h"
	.file 18 "../../libpurple/status.h"
	.file 19 "../../libpurple/blist.h"
	.file 20 "../../libpurple/buddyicon.h"
	.file 21 "../../libpurple/conversation.h"
	.file 22 "../../libpurple/log.h"
	.file 23 "../../libpurple/ft.h"
	.file 24 "../../libpurple/media/enum-types.h"
	.file 25 "../../libpurple/media/../util.h"
	.file 26 "../../libpurple/media/../notify.h"
	.file 27 "../../libpurple/proxy.h"
	.file 28 "c:/workspace/pidgin-devel/win32-dev/mingw-4.7.2/bin/../lib/gcc/mingw32/4.7.2/../../../../include/wtypes.h"
	.file 29 "../../libpurple/privacy.h"
	.file 30 "c:/workspace/pidgin-devel/win32-dev/mingw-4.7.2/bin/../lib/gcc/mingw32/4.7.2/../../../../include/ctype.h"
	.file 31 "../../../win32-dev/gtk_2_0-2.14/include/libintl.h"
	.file 32 "../../libpurple/prefs.h"
	.file 33 "../../../win32-dev/gtk_2_0-2.14/include/glib-2.0/glib/gmessages.h"
	.file 34 "../../../win32-dev/gtk_2_0-2.14/include/glib-2.0/glib/gstrfuncs.h"
	.file 35 "../../libpurple/request.h"
	.file 36 "../../../win32-dev/gtk_2_0-2.14/include/glib-2.0/glib/gmem.h"
	.section .drectve
	.ascii " -export:\"purple_init_plugin\""
