	.file	"bonjour.c"
	.intel_syntax noprefix
	.text
Ltext0:
	.section .rdata,"dr"
LC0:
	.ascii "bonjour\0"
	.text
	.p2align 2,,3
	.def	_bonjour_list_icon;	.scl	3;	.type	32;	.endef
_bonjour_list_icon:
LFB97:
	.file 1 "bonjour.c"
	.loc 1 200 0
	.cfi_startproc
LVL0:
	sub	esp, 28
LCFI0:
	.cfi_def_cfa_offset 32
	.loc 1 200 0
	mov	eax, DWORD PTR ___stack_chk_guard
	mov	DWORD PTR [esp+12], eax
	xor	eax, eax
	.loc 1 202 0
	mov	eax, OFFSET FLAT:LC0
	mov	edx, DWORD PTR [esp+12]
	xor	edx, DWORD PTR ___stack_chk_guard
	jne	L5
	add	esp, 28
LCFI1:
	.cfi_remember_state
	.cfi_def_cfa_offset 4
	ret
L5:
LCFI2:
	.cfi_restore_state
	call	___stack_chk_fail
LVL1:
	.cfi_endproc
LFE97:
	.p2align 2,,3
	.def	_bonjour_can_receive_file;	.scl	3;	.type	32;	.endef
_bonjour_can_receive_file:
LFB110:
	.loc 1 445 0
	.cfi_startproc
LVL2:
	sub	esp, 44
LCFI3:
	.cfi_def_cfa_offset 48
	.loc 1 445 0
	mov	eax, DWORD PTR ___stack_chk_guard
	mov	DWORD PTR [esp+28], eax
	xor	eax, eax
	.loc 1 446 0
	mov	eax, DWORD PTR [esp+52]
	mov	DWORD PTR [esp+4], eax
	mov	eax, DWORD PTR [esp+48]
	mov	eax, DWORD PTR [eax+12]
	mov	DWORD PTR [esp], eax
	call	_purple_find_buddy
LVL3:
	.loc 1 448 0
	test	eax, eax
	je	L9
	.loc 1 448 0 is_stmt 0 discriminator 1
	mov	DWORD PTR [esp], eax
	call	_purple_buddy_get_protocol_data
LVL4:
	test	eax, eax
	setne	al
	movzx	eax, al
L7:
	.loc 1 449 0 is_stmt 1 discriminator 4
	mov	edx, DWORD PTR [esp+28]
	xor	edx, DWORD PTR ___stack_chk_guard
	jne	L11
	.loc 1 449 0 is_stmt 0
	add	esp, 44
LCFI4:
	.cfi_remember_state
	.cfi_def_cfa_offset 4
	ret
LVL5:
	.p2align 2,,3
L9:
LCFI5:
	.cfi_restore_state
	.loc 1 448 0 is_stmt 1
	xor	eax, eax
LVL6:
	jmp	L7
L11:
	.loc 1 449 0
	call	___stack_chk_fail
LVL7:
	.cfi_endproc
LFE110:
	.p2align 2,,3
	.def	_bonjour_set_buddy_icon;	.scl	3;	.type	32;	.endef
_bonjour_set_buddy_icon:
LFB104:
	.loc 1 327 0
	.cfi_startproc
LVL8:
	sub	esp, 28
LCFI6:
	.cfi_def_cfa_offset 32
	mov	eax, DWORD PTR [esp+32]
	.loc 1 327 0
	mov	edx, DWORD PTR ___stack_chk_guard
	mov	DWORD PTR [esp+12], edx
	xor	edx, edx
LVL9:
	.loc 1 329 0
	mov	edx, DWORD PTR [esp+12]
	xor	edx, DWORD PTR ___stack_chk_guard
	jne	L16
	mov	eax, DWORD PTR [eax+28]
LVL10:
	mov	eax, DWORD PTR [eax]
LVL11:
	mov	DWORD PTR [esp+32], eax
	.loc 1 330 0
	add	esp, 28
LCFI7:
	.cfi_remember_state
	.cfi_def_cfa_offset 4
	.loc 1 329 0
	jmp	_bonjour_dns_sd_update_buddy_icon
LVL12:
L16:
LCFI8:
	.cfi_restore_state
	call	___stack_chk_fail
LVL13:
	.cfi_endproc
LFE104:
	.p2align 2,,3
	.def	_bonjour_convo_closed;	.scl	3;	.type	32;	.endef
_bonjour_convo_closed:
LFB103:
	.loc 1 308 0
	.cfi_startproc
LVL14:
	push	ebx
LCFI9:
	.cfi_def_cfa_offset 8
	.cfi_offset 3, -8
	sub	esp, 40
LCFI10:
	.cfi_def_cfa_offset 48
	.loc 1 308 0
	mov	eax, DWORD PTR ___stack_chk_guard
	mov	DWORD PTR [esp+28], eax
	xor	eax, eax
	.loc 1 309 0
	mov	eax, DWORD PTR [esp+52]
	mov	DWORD PTR [esp+4], eax
	mov	eax, DWORD PTR [esp+48]
	mov	eax, DWORD PTR [eax+12]
	mov	DWORD PTR [esp], eax
	call	_purple_find_buddy
LVL15:
	.loc 1 312 0
	test	eax, eax
	je	L17
	.loc 1 312 0 is_stmt 0 discriminator 1
	mov	DWORD PTR [esp], eax
	call	_purple_buddy_get_protocol_data
LVL16:
	mov	ebx, eax
LVL17:
	test	eax, eax
	je	L17
	.loc 1 321 0 is_stmt 1
	mov	eax, DWORD PTR [eax+68]
LVL18:
	mov	DWORD PTR [esp], eax
	call	_bonjour_jabber_close_conversation
LVL19:
	.loc 1 322 0
	mov	DWORD PTR [ebx+68], 0
LVL20:
L17:
	.loc 1 323 0
	mov	eax, DWORD PTR [esp+28]
	xor	eax, DWORD PTR ___stack_chk_guard
	jne	L26
	add	esp, 40
LCFI11:
	.cfi_remember_state
	.cfi_def_cfa_offset 8
	pop	ebx
LCFI12:
	.cfi_restore 3
	.cfi_def_cfa_offset 4
	ret
L26:
LCFI13:
	.cfi_restore_state
	call	___stack_chk_fail
LVL21:
	.cfi_endproc
LFE103:
	.section .rdata,"dr"
LC1:
	.ascii "Bonjour\0"
LC2:
	.ascii "pidgin\0"
	.text
	.p2align 2,,3
	.def	_bonjour_do_group_change;	.scl	3;	.type	32;	.endef
_bonjour_do_group_change:
LFB107:
	.loc 1 402 0
	.cfi_startproc
LVL22:
	push	edi
LCFI14:
	.cfi_def_cfa_offset 8
	.cfi_offset 7, -8
	push	esi
LCFI15:
	.cfi_def_cfa_offset 12
	.cfi_offset 6, -12
	push	ebx
LCFI16:
	.cfi_def_cfa_offset 16
	.cfi_offset 3, -16
	sub	esp, 32
LCFI17:
	.cfi_def_cfa_offset 48
	mov	ebx, eax
	.loc 1 402 0
	mov	eax, DWORD PTR ___stack_chk_guard
	mov	DWORD PTR [esp+28], eax
	xor	eax, eax
LVL23:
	.loc 1 405 0
	test	ebx, ebx
	je	L27
	mov	esi, edx
	.loc 1 408 0
	mov	DWORD PTR [esp], ebx
	call	_purple_blist_node_get_flags
LVL24:
	mov	edi, eax
LVL25:
	.loc 1 411 0
	mov	DWORD PTR [esp+4], OFFSET FLAT:LC1
	mov	DWORD PTR [esp], OFFSET FLAT:LC2
	call	_libintl_dgettext
LVL26:
	mov	DWORD PTR [esp+4], eax
	mov	DWORD PTR [esp], esi
	call	_purple_strequal
LVL27:
	test	eax, eax
	jne	L35
	.loc 1 414 0
	xor	edi, 1
LVL28:
	mov	DWORD PTR [esp+4], edi
	mov	DWORD PTR [esp], ebx
	call	_purple_blist_node_set_flags
LVL29:
L27:
	.loc 1 416 0
	mov	eax, DWORD PTR [esp+28]
	xor	eax, DWORD PTR ___stack_chk_guard
	jne	L36
	add	esp, 32
LCFI18:
	.cfi_remember_state
	.cfi_def_cfa_offset 16
	pop	ebx
LCFI19:
	.cfi_restore 3
	.cfi_def_cfa_offset 12
LVL30:
	pop	esi
LCFI20:
	.cfi_restore 6
	.cfi_def_cfa_offset 8
	pop	edi
LCFI21:
	.cfi_restore 7
	.cfi_def_cfa_offset 4
	ret
LVL31:
	.p2align 2,,3
L35:
LCFI22:
	.cfi_restore_state
	.loc 1 412 0
	or	edi, 1
LVL32:
	mov	DWORD PTR [esp+4], edi
	mov	DWORD PTR [esp], ebx
	call	_purple_blist_node_set_flags
LVL33:
	jmp	L27
LVL34:
L36:
	.loc 1 416 0
	call	___stack_chk_fail
LVL35:
	.cfi_endproc
LFE107:
	.p2align 2,,3
	.def	_bonjour_rename_group;	.scl	3;	.type	32;	.endef
_bonjour_rename_group:
LFB109:
	.loc 1 429 0
	.cfi_startproc
LVL36:
	push	esi
LCFI23:
	.cfi_def_cfa_offset 8
	.cfi_offset 6, -8
	push	ebx
LCFI24:
	.cfi_def_cfa_offset 12
	.cfi_offset 3, -12
	sub	esp, 36
LCFI25:
	.cfi_def_cfa_offset 48
	mov	ebx, DWORD PTR [esp+60]
	.loc 1 429 0
	mov	eax, DWORD PTR ___stack_chk_guard
	mov	DWORD PTR [esp+28], eax
	xor	eax, eax
	.loc 1 434 0
	mov	eax, DWORD PTR [esp+56]
	mov	DWORD PTR [esp], eax
	call	_purple_group_get_name
LVL37:
	mov	esi, eax
LVL38:
	.loc 1 436 0
	test	ebx, ebx
	je	L37
LVL39:
	.p2align 2,,3
L42:
	.loc 1 438 0 discriminator 2
	mov	edx, esi
	mov	eax, DWORD PTR [ebx]
	call	_bonjour_do_group_change
LVL40:
	.loc 1 436 0 discriminator 2
	mov	ebx, DWORD PTR [ebx+4]
LVL41:
	test	ebx, ebx
	jne	L42
L37:
	.loc 1 441 0
	mov	eax, DWORD PTR [esp+28]
	xor	eax, DWORD PTR ___stack_chk_guard
	jne	L45
	add	esp, 36
LCFI26:
	.cfi_remember_state
	.cfi_def_cfa_offset 12
	pop	ebx
LCFI27:
	.cfi_restore 3
	.cfi_def_cfa_offset 8
LVL42:
	pop	esi
LCFI28:
	.cfi_restore 6
	.cfi_def_cfa_offset 4
LVL43:
	ret
LVL44:
L45:
LCFI29:
	.cfi_restore_state
	call	___stack_chk_fail
LVL45:
	.cfi_endproc
LFE109:
	.p2align 2,,3
	.def	_bonjour_group_buddy;	.scl	3;	.type	32;	.endef
_bonjour_group_buddy:
LFB108:
	.loc 1 420 0
	.cfi_startproc
LVL46:
	push	ebx
LCFI30:
	.cfi_def_cfa_offset 8
	.cfi_offset 3, -8
	sub	esp, 40
LCFI31:
	.cfi_def_cfa_offset 48
	mov	ebx, DWORD PTR [esp+60]
	.loc 1 420 0
	mov	eax, DWORD PTR ___stack_chk_guard
	mov	DWORD PTR [esp+28], eax
	xor	eax, eax
	.loc 1 421 0
	mov	eax, DWORD PTR [esp+52]
	mov	DWORD PTR [esp+4], eax
	mov	eax, DWORD PTR [esp+48]
	mov	eax, DWORD PTR [eax+12]
	mov	DWORD PTR [esp], eax
	call	_purple_find_buddy
LVL47:
	.loc 1 423 0
	mov	edx, DWORD PTR [esp+28]
	xor	edx, DWORD PTR ___stack_chk_guard
	jne	L50
	mov	edx, ebx
	.loc 1 425 0
	add	esp, 40
LCFI32:
	.cfi_remember_state
	.cfi_def_cfa_offset 8
	pop	ebx
LCFI33:
	.cfi_restore 3
	.cfi_def_cfa_offset 4
	.loc 1 423 0
	jmp	_bonjour_do_group_change
LVL48:
L50:
LCFI34:
	.cfi_restore_state
	call	___stack_chk_fail
LVL49:
	.cfi_endproc
LFE108:
	.p2align 2,,3
	.def	_bonjour_remove_buddy;	.scl	3;	.type	32;	.endef
_bonjour_remove_buddy:
LFB101:
	.loc 1 268 0
	.cfi_startproc
LVL50:
	push	ebx
LCFI35:
	.cfi_def_cfa_offset 8
	.cfi_offset 3, -8
	sub	esp, 40
LCFI36:
	.cfi_def_cfa_offset 48
	mov	ebx, DWORD PTR [esp+52]
	.loc 1 268 0
	mov	eax, DWORD PTR ___stack_chk_guard
	mov	DWORD PTR [esp+28], eax
	xor	eax, eax
	.loc 1 269 0
	mov	DWORD PTR [esp], ebx
	call	_purple_buddy_get_protocol_data
LVL51:
	.loc 1 270 0
	test	eax, eax
	je	L51
	.loc 1 271 0
	mov	DWORD PTR [esp], eax
	call	_bonjour_buddy_delete
LVL52:
	.loc 1 272 0
	mov	eax, DWORD PTR [esp+28]
	xor	eax, DWORD PTR ___stack_chk_guard
	jne	L56
	mov	DWORD PTR [esp+52], 0
	mov	DWORD PTR [esp+48], ebx
	.loc 1 274 0
	add	esp, 40
LCFI37:
	.cfi_remember_state
	.cfi_def_cfa_offset 8
	pop	ebx
LCFI38:
	.cfi_restore 3
	.cfi_def_cfa_offset 4
	.loc 1 272 0
	jmp	_purple_buddy_set_protocol_data
LVL53:
	.p2align 2,,3
L51:
LCFI39:
	.cfi_restore_state
	.loc 1 274 0
	mov	eax, DWORD PTR [esp+28]
	xor	eax, DWORD PTR ___stack_chk_guard
LVL54:
	jne	L56
	add	esp, 40
LCFI40:
	.cfi_remember_state
	.cfi_def_cfa_offset 8
	pop	ebx
LCFI41:
	.cfi_restore 3
	.cfi_def_cfa_offset 4
	ret
L56:
LCFI42:
	.cfi_restore_state
	call	___stack_chk_fail
LVL55:
	.cfi_endproc
LFE101:
	.section .rdata,"dr"
	.align 4
LC3:
	.ascii "Buddy '%s' manually added; removing.  Bonjour buddies must be discovered and not manually added.\12\0"
	.text
	.p2align 2,,3
	.def	_bonjour_fake_add_buddy;	.scl	3;	.type	32;	.endef
_bonjour_fake_add_buddy:
LFB100:
	.loc 1 256 0
	.cfi_startproc
LVL56:
	push	ebx
LCFI43:
	.cfi_def_cfa_offset 8
	.cfi_offset 3, -8
	sub	esp, 40
LCFI44:
	.cfi_def_cfa_offset 48
	mov	ebx, DWORD PTR [esp+52]
	.loc 1 256 0
	mov	eax, DWORD PTR ___stack_chk_guard
	mov	DWORD PTR [esp+28], eax
	xor	eax, eax
	.loc 1 257 0
	mov	DWORD PTR [esp], ebx
	call	_purple_buddy_get_name
LVL57:
	mov	DWORD PTR [esp+8], eax
	mov	DWORD PTR [esp+4], OFFSET FLAT:LC3
	mov	DWORD PTR [esp], OFFSET FLAT:LC0
	call	_purple_debug_error
LVL58:
	.loc 1 264 0
	mov	eax, DWORD PTR [esp+28]
	xor	eax, DWORD PTR ___stack_chk_guard
	jne	L61
	mov	DWORD PTR [esp+48], ebx
	.loc 1 265 0
	add	esp, 40
LCFI45:
	.cfi_remember_state
	.cfi_def_cfa_offset 8
	pop	ebx
LCFI46:
	.cfi_restore 3
	.cfi_def_cfa_offset 4
	.loc 1 264 0
	jmp	_purple_blist_remove_buddy
LVL59:
L61:
LCFI47:
	.cfi_restore_state
	call	___stack_chk_fail
LVL60:
	.cfi_endproc
LFE100:
	.section .rdata,"dr"
LC4:
	.ascii "\0"
LC5:
	.ascii "avail\0"
LC6:
	.ascii "away\0"
LC7:
	.ascii "dnd\0"
LC8:
	.ascii "message\0"
	.text
	.p2align 2,,3
	.def	_bonjour_set_status;	.scl	3;	.type	32;	.endef
_bonjour_set_status:
LFB99:
	.loc 1 215 0
	.cfi_startproc
LVL61:
	push	ebp
LCFI48:
	.cfi_def_cfa_offset 8
	.cfi_offset 5, -8
	push	edi
LCFI49:
	.cfi_def_cfa_offset 12
	.cfi_offset 7, -12
	push	esi
LCFI50:
	.cfi_def_cfa_offset 16
	.cfi_offset 6, -16
	push	ebx
LCFI51:
	.cfi_def_cfa_offset 20
	.cfi_offset 3, -20
	sub	esp, 44
LCFI52:
	.cfi_def_cfa_offset 64
	mov	ebx, DWORD PTR [esp+64]
	mov	ebp, DWORD PTR [esp+68]
	.loc 1 215 0
	mov	eax, DWORD PTR ___stack_chk_guard
	mov	DWORD PTR [esp+28], eax
	xor	eax, eax
	.loc 1 222 0
	mov	DWORD PTR [esp], ebx
	call	_purple_account_get_connection
LVL62:
	.loc 1 223 0
	mov	esi, DWORD PTR [eax+28]
LVL63:
	.loc 1 224 0
	mov	DWORD PTR [esp], ebx
	call	_purple_account_get_presence
LVL64:
	mov	edi, eax
LVL65:
	.loc 1 226 0
	mov	DWORD PTR [esp+4], OFFSET FLAT:LC8
	mov	DWORD PTR [esp], ebp
	call	_purple_status_get_attr_string
LVL66:
	.loc 1 227 0
	test	eax, eax
	je	L71
LVL67:
L63:
	.loc 1 229 0
	mov	DWORD PTR [esp], eax
	call	_purple_markup_strip_html
LVL68:
	mov	ebx, eax
LVL69:
	.loc 1 238 0
	mov	DWORD PTR [esp], edi
	call	_purple_presence_is_available
LVL70:
	test	eax, eax
	je	L72
	.loc 1 239 0
	mov	eax, OFFSET FLAT:LC5
L64:
LVL71:
	.loc 1 245 0
	mov	DWORD PTR [esp+8], ebx
	mov	DWORD PTR [esp+4], eax
	mov	eax, DWORD PTR [esi]
LVL72:
	mov	DWORD PTR [esp], eax
	call	_bonjour_dns_sd_send_status
LVL73:
	.loc 1 246 0
	mov	eax, DWORD PTR [esp+28]
	xor	eax, DWORD PTR ___stack_chk_guard
	jne	L73
	mov	DWORD PTR [esp+64], ebx
	.loc 1 247 0
	add	esp, 44
LCFI53:
	.cfi_remember_state
	.cfi_def_cfa_offset 20
	pop	ebx
LCFI54:
	.cfi_restore 3
	.cfi_def_cfa_offset 16
LVL74:
	pop	esi
LCFI55:
	.cfi_restore 6
	.cfi_def_cfa_offset 12
LVL75:
	pop	edi
LCFI56:
	.cfi_restore 7
	.cfi_def_cfa_offset 8
LVL76:
	pop	ebp
LCFI57:
	.cfi_restore 5
	.cfi_def_cfa_offset 4
	.loc 1 246 0
	jmp	_g_free
LVL77:
	.p2align 2,,3
L72:
LCFI58:
	.cfi_restore_state
	.loc 1 240 0
	mov	DWORD PTR [esp], edi
	call	_purple_presence_is_idle
LVL78:
	test	eax, eax
	jne	L74
	.loc 1 243 0
	mov	eax, OFFSET FLAT:LC7
	jmp	L64
	.p2align 2,,3
L74:
	.loc 1 241 0
	mov	eax, OFFSET FLAT:LC6
	jmp	L64
LVL79:
	.p2align 2,,3
L71:
	.loc 1 228 0
	mov	eax, OFFSET FLAT:LC4
LVL80:
	jmp	L63
LVL81:
L73:
	.loc 1 246 0
	call	___stack_chk_fail
LVL82:
	.cfi_endproc
LFE99:
	.p2align 2,,3
	.def	_plugin_unload;	.scl	3;	.type	32;	.endef
_plugin_unload:
LFB111:
	.loc 1 453 0
	.cfi_startproc
LVL83:
	sub	esp, 44
LCFI59:
	.cfi_def_cfa_offset 48
	.loc 1 453 0
	mov	eax, DWORD PTR ___stack_chk_guard
	mov	DWORD PTR [esp+28], eax
	xor	eax, eax
	.loc 1 456 0
	mov	eax, DWORD PTR _default_firstname
	mov	DWORD PTR [esp], eax
	call	_g_free
LVL84:
	.loc 1 457 0
	mov	eax, DWORD PTR _default_lastname
	mov	DWORD PTR [esp], eax
	call	_g_free
LVL85:
	.loc 1 460 0
	mov	eax, 1
	mov	edx, DWORD PTR [esp+28]
	xor	edx, DWORD PTR ___stack_chk_guard
	jne	L78
	add	esp, 44
LCFI60:
	.cfi_remember_state
	.cfi_def_cfa_offset 4
	ret
L78:
LCFI61:
	.cfi_restore_state
	call	___stack_chk_fail
LVL86:
	.cfi_endproc
LFE111:
	.p2align 2,,3
	.def	_bonjour_send_im;	.scl	3;	.type	32;	.endef
_bonjour_send_im:
LFB98:
	.loc 1 206 0
	.cfi_startproc
LVL87:
	push	ebx
LCFI62:
	.cfi_def_cfa_offset 8
	.cfi_offset 3, -8
	sub	esp, 24
LCFI63:
	.cfi_def_cfa_offset 32
	mov	ecx, DWORD PTR [esp+32]
	mov	eax, DWORD PTR [esp+36]
	mov	edx, DWORD PTR [esp+40]
	.loc 1 206 0
	mov	ebx, DWORD PTR ___stack_chk_guard
	mov	DWORD PTR [esp+12], ebx
	xor	ebx, ebx
	.loc 1 207 0
	test	eax, eax
	je	L80
	.loc 1 207 0 is_stmt 0 discriminator 1
	test	edx, edx
	je	L80
	.loc 1 210 0 is_stmt 1
	mov	ebx, DWORD PTR [esp+12]
	xor	ebx, DWORD PTR ___stack_chk_guard
	jne	L88
	mov	DWORD PTR [esp+40], edx
	mov	DWORD PTR [esp+36], eax
	mov	eax, DWORD PTR [ecx+28]
	mov	eax, DWORD PTR [eax+4]
	mov	DWORD PTR [esp+32], eax
	.loc 1 211 0
	add	esp, 24
LCFI64:
	.cfi_remember_state
	.cfi_def_cfa_offset 8
	pop	ebx
LCFI65:
	.cfi_restore 3
	.cfi_def_cfa_offset 4
	.loc 1 210 0
	jmp	_bonjour_jabber_send_message
LVL88:
	.p2align 2,,3
L80:
LCFI66:
	.cfi_restore_state
	.loc 1 211 0
	xor	eax, eax
	mov	edx, DWORD PTR [esp+12]
	xor	edx, DWORD PTR ___stack_chk_guard
	jne	L88
	add	esp, 24
LCFI67:
	.cfi_remember_state
	.cfi_def_cfa_offset 8
	pop	ebx
LCFI68:
	.cfi_restore 3
	.cfi_def_cfa_offset 4
	ret
L88:
LCFI69:
	.cfi_restore_state
	call	___stack_chk_fail
LVL89:
	.cfi_endproc
LFE98:
	.p2align 2,,3
	.def	_bonjour_close;	.scl	3;	.type	32;	.endef
_bonjour_close:
LFB96:
	.loc 1 158 0
	.cfi_startproc
LVL90:
	push	ebp
LCFI70:
	.cfi_def_cfa_offset 8
	.cfi_offset 5, -8
	push	edi
LCFI71:
	.cfi_def_cfa_offset 12
	.cfi_offset 7, -12
	push	esi
LCFI72:
	.cfi_def_cfa_offset 16
	.cfi_offset 6, -16
	push	ebx
LCFI73:
	.cfi_def_cfa_offset 20
	.cfi_offset 3, -20
	sub	esp, 60
LCFI74:
	.cfi_def_cfa_offset 80
	mov	eax, DWORD PTR [esp+80]
	mov	DWORD PTR [esp+24], eax
	.loc 1 158 0
	mov	eax, DWORD PTR ___stack_chk_guard
	mov	DWORD PTR [esp+44], eax
	xor	eax, eax
	.loc 1 160 0
	mov	eax, DWORD PTR [esp+24]
	mov	esi, DWORD PTR [eax+28]
LVL91:
	.loc 1 162 0
	mov	DWORD PTR [esp+4], OFFSET FLAT:LC1
	mov	DWORD PTR [esp], OFFSET FLAT:LC2
	call	_libintl_dgettext
LVL92:
	mov	DWORD PTR [esp], eax
	call	_purple_find_group
LVL93:
	mov	DWORD PTR [esp+20], eax
LVL94:
LBB4:
LBB5:
	.loc 1 61 0
	mov	eax, DWORD PTR [esp+24]
LVL95:
	mov	DWORD PTR [esp], eax
	call	_purple_connection_get_account
LVL96:
	mov	DWORD PTR [esp+28], eax
LVL97:
	.loc 1 65 0
	mov	edx, DWORD PTR [esp+20]
	test	edx, edx
	je	L93
	.loc 1 69 0
	mov	eax, DWORD PTR [esp+20]
LVL98:
	mov	DWORD PTR [esp], eax
	call	_purple_blist_node_get_first_child
LVL99:
	mov	ebx, eax
LVL100:
	test	eax, eax
	jne	L121
	jmp	L93
LVL101:
	.p2align 2,,3
L96:
	mov	ebx, edi
	test	edi, edi
	je	L93
LVL102:
L121:
	.loc 1 70 0
	mov	DWORD PTR [esp], ebx
	call	_purple_blist_node_get_sibling_next
LVL103:
	mov	edi, eax
LVL104:
	.loc 1 71 0
	mov	DWORD PTR [esp], ebx
	call	_purple_blist_node_get_type
LVL105:
	dec	eax
	jne	L96
	.loc 1 73 0
	mov	DWORD PTR [esp], ebx
	call	_purple_blist_node_get_first_child
LVL106:
	mov	ebp, eax
LVL107:
	test	eax, eax
	jne	L122
	jmp	L96
LVL108:
	.p2align 2,,3
L98:
	mov	ebp, ebx
	test	ebx, ebx
	je	L96
LVL109:
L122:
	.loc 1 74 0
	mov	DWORD PTR [esp], ebp
	call	_purple_blist_node_get_sibling_next
LVL110:
	mov	ebx, eax
LVL111:
	.loc 1 75 0
	mov	DWORD PTR [esp], ebp
	call	_purple_blist_node_get_type
LVL112:
	cmp	eax, 2
	jne	L98
LVL113:
	.loc 1 78 0
	mov	DWORD PTR [esp], ebp
	call	_purple_buddy_get_account
LVL114:
	cmp	DWORD PTR [esp+28], eax
	jne	L98
	.loc 1 80 0
	mov	DWORD PTR [esp+8], 0
	mov	DWORD PTR [esp+4], ebp
	mov	eax, DWORD PTR [esp+28]
	mov	DWORD PTR [esp], eax
	call	_purple_account_remove_buddy
LVL115:
	.loc 1 81 0
	mov	DWORD PTR [esp], ebp
	call	_purple_blist_remove_buddy
LVL116:
	jmp	L98
LVL117:
	.p2align 2,,3
L93:
LBE5:
LBE4:
	.loc 1 168 0
	test	esi, esi
	je	L101
	.loc 1 168 0 is_stmt 0 discriminator 1
	mov	eax, DWORD PTR [esi]
	test	eax, eax
	je	L102
	.loc 1 170 0 is_stmt 1
	mov	DWORD PTR [esp], eax
	call	_bonjour_dns_sd_stop
LVL118:
	.loc 1 171 0
	mov	eax, DWORD PTR [esi]
	mov	DWORD PTR [esp], eax
	call	_bonjour_dns_sd_free
LVL119:
L102:
	.loc 1 174 0
	mov	eax, DWORD PTR [esi+4]
	test	eax, eax
	je	L101
	.loc 1 177 0
	mov	DWORD PTR [esp], eax
	call	_bonjour_jabber_stop
LVL120:
	.loc 1 178 0
	mov	eax, DWORD PTR [esi+4]
	mov	DWORD PTR [esp], eax
	call	_g_free
LVL121:
L101:
	.loc 1 184 0
	mov	eax, DWORD PTR [esp+20]
	test	eax, eax
	je	L103
	.loc 1 185 0
	mov	eax, DWORD PTR [esp+20]
	mov	DWORD PTR [esp], eax
	call	_purple_blist_remove_group
LVL122:
L103:
	.loc 1 188 0 discriminator 1
	test	esi, esi
	jne	L109
	jmp	L104
	.p2align 2,,3
L105:
	.loc 1 189 0
	mov	eax, DWORD PTR [eax]
	mov	DWORD PTR [esp], eax
	call	_purple_xfer_cancel_local
LVL123:
L109:
	.loc 1 188 0 discriminator 2
	mov	eax, DWORD PTR [esi+8]
	test	eax, eax
	jne	L105
	.loc 1 193 0
	mov	eax, DWORD PTR [esi+12]
	mov	DWORD PTR [esp], eax
	call	_g_free
LVL124:
L104:
	.loc 1 194 0
	mov	DWORD PTR [esp], esi
	call	_g_free
LVL125:
	.loc 1 195 0
	mov	eax, DWORD PTR [esp+24]
	mov	DWORD PTR [eax+28], 0
	.loc 1 196 0
	mov	eax, DWORD PTR [esp+44]
	xor	eax, DWORD PTR ___stack_chk_guard
	jne	L132
	add	esp, 60
LCFI75:
	.cfi_remember_state
	.cfi_def_cfa_offset 20
	pop	ebx
LCFI76:
	.cfi_restore 3
	.cfi_def_cfa_offset 16
	pop	esi
LCFI77:
	.cfi_restore 6
	.cfi_def_cfa_offset 12
LVL126:
	pop	edi
LCFI78:
	.cfi_restore 7
	.cfi_def_cfa_offset 8
	pop	ebp
LCFI79:
	.cfi_restore 5
	.cfi_def_cfa_offset 4
	ret
LVL127:
L132:
LCFI80:
	.cfi_restore_state
	call	___stack_chk_fail
LVL128:
	.cfi_endproc
LFE96:
	.section .rdata,"dr"
	.align 4
LC9:
	.ascii "Unable to find Apple's \"Bonjour for Windows\" toolkit, see http://d.pidgin.im/BonjourWindows for more information.\0"
LC10:
	.ascii "port\0"
	.align 4
LC11:
	.ascii "Unable to listen for incoming IM connections\0"
LC12:
	.ascii "first\0"
LC13:
	.ascii "last\0"
LC14:
	.ascii "!\0"
	.align 4
LC15:
	.ascii "Unable to establish connection with the local mDNS server.  Is it running?\0"
	.text
	.p2align 2,,3
	.def	_bonjour_login;	.scl	3;	.type	32;	.endef
_bonjour_login:
LFB95:
	.loc 1 89 0
	.cfi_startproc
LVL129:
	push	ebp
LCFI81:
	.cfi_def_cfa_offset 8
	.cfi_offset 5, -8
	push	edi
LCFI82:
	.cfi_def_cfa_offset 12
	.cfi_offset 7, -12
	push	esi
LCFI83:
	.cfi_def_cfa_offset 16
	.cfi_offset 6, -16
	push	ebx
LCFI84:
	.cfi_def_cfa_offset 20
	.cfi_offset 3, -20
	sub	esp, 60
LCFI85:
	.cfi_def_cfa_offset 80
	mov	esi, DWORD PTR [esp+80]
	.loc 1 89 0
	mov	eax, DWORD PTR ___stack_chk_guard
	mov	DWORD PTR [esp+44], eax
	xor	eax, eax
	.loc 1 90 0
	mov	DWORD PTR [esp], esi
	call	_purple_account_get_connection
LVL130:
	mov	edi, eax
LVL131:
	.loc 1 96 0
	call	_dns_sd_available
LVL132:
	test	eax, eax
	je	L144
	.loc 1 105 0
	or	DWORD PTR [edi+4], 1
	.loc 1 106 0
	mov	DWORD PTR [esp], 16
	call	_g_malloc0
LVL133:
	mov	ebx, eax
LVL134:
	mov	DWORD PTR [edi+28], eax
	.loc 1 109 0
	mov	DWORD PTR [esp], 28
	call	_g_malloc0
LVL135:
	mov	ebp, eax
	mov	DWORD PTR [ebx+4], eax
	.loc 1 110 0
	mov	DWORD PTR [eax+4], -1
	.loc 1 111 0
	mov	DWORD PTR [eax+8], -1
	.loc 1 112 0
	mov	DWORD PTR [esp+8], 5298
	mov	DWORD PTR [esp+4], OFFSET FLAT:LC10
	mov	DWORD PTR [esp], esi
	call	_purple_account_get_int
LVL136:
	mov	DWORD PTR [ebp+0], eax
	.loc 1 113 0
	mov	eax, DWORD PTR [ebx+4]
	mov	DWORD PTR [eax+20], esi
	.loc 1 115 0
	mov	DWORD PTR [esp], eax
	call	_bonjour_jabber_start
LVL137:
	inc	eax
	je	L145
	.loc 1 124 0
	call	_bonjour_dns_sd_new
LVL138:
	mov	ebp, eax
	mov	DWORD PTR [ebx], eax
	.loc 1 125 0
	mov	eax, DWORD PTR _default_firstname
	mov	DWORD PTR [esp+8], eax
	mov	DWORD PTR [esp+4], OFFSET FLAT:LC12
	mov	DWORD PTR [esp], esi
	call	_purple_account_get_string
LVL139:
	mov	DWORD PTR [esp], eax
	call	_g_strdup
LVL140:
	mov	DWORD PTR [ebp+8], eax
	.loc 1 126 0
	mov	ebp, DWORD PTR [ebx]
	mov	eax, DWORD PTR _default_lastname
	mov	DWORD PTR [esp+8], eax
	mov	DWORD PTR [esp+4], OFFSET FLAT:LC13
	mov	DWORD PTR [esp], esi
	call	_purple_account_get_string
LVL141:
	mov	DWORD PTR [esp], eax
	call	_g_strdup
LVL142:
	mov	DWORD PTR [ebp+12], eax
	.loc 1 127 0
	mov	ebp, DWORD PTR [ebx]
	mov	eax, DWORD PTR [ebx+4]
	mov	eax, DWORD PTR [eax]
	mov	DWORD PTR [ebp+16], eax
	.loc 1 129 0
	mov	DWORD PTR [esp], OFFSET FLAT:LC14
	call	_g_strdup
LVL143:
	mov	DWORD PTR [ebp+28], eax
	.loc 1 131 0
	mov	DWORD PTR [esp], esi
	call	_purple_account_get_active_status
LVL144:
	mov	ebp, eax
LVL145:
	.loc 1 132 0
	mov	DWORD PTR [esp], esi
	call	_purple_account_get_presence
LVL146:
	.loc 1 133 0
	mov	DWORD PTR [esp], eax
	mov	DWORD PTR [esp+28], eax
	call	_purple_presence_is_available
LVL147:
	test	eax, eax
	mov	edx, DWORD PTR [esp+28]
	je	L137
	.loc 1 134 0
	mov	edx, DWORD PTR [ebx]
	mov	DWORD PTR [esp], OFFSET FLAT:LC5
	mov	DWORD PTR [esp+28], edx
	call	_g_strdup
LVL148:
	mov	edx, DWORD PTR [esp+28]
	mov	DWORD PTR [edx+24], eax
L138:
	.loc 1 139 0
	mov	edx, DWORD PTR [ebx]
	mov	DWORD PTR [esp+4], OFFSET FLAT:LC8
	mov	DWORD PTR [esp], ebp
	mov	DWORD PTR [esp+28], edx
	call	_purple_status_get_attr_string
LVL149:
	mov	DWORD PTR [esp], eax
	call	_g_strdup
LVL150:
	mov	edx, DWORD PTR [esp+28]
	mov	DWORD PTR [edx+32], eax
	.loc 1 141 0
	mov	eax, DWORD PTR [ebx]
	mov	DWORD PTR [eax+4], esi
	.loc 1 142 0
	mov	DWORD PTR [esp], eax
	call	_bonjour_dns_sd_start
LVL151:
	test	eax, eax
	je	L146
	.loc 1 150 0
	mov	eax, DWORD PTR [ebx]
	mov	DWORD PTR [esp], eax
	call	_bonjour_dns_sd_update_buddy_icon
LVL152:
	.loc 1 153 0
	mov	DWORD PTR [esp+4], 1
	mov	DWORD PTR [esp], edi
	call	_purple_connection_set_state
LVL153:
L133:
	.loc 1 154 0
	mov	eax, DWORD PTR [esp+44]
	xor	eax, DWORD PTR ___stack_chk_guard
	jne	L147
	add	esp, 60
LCFI86:
	.cfi_remember_state
	.cfi_def_cfa_offset 20
	pop	ebx
LCFI87:
	.cfi_restore 3
	.cfi_def_cfa_offset 16
	pop	esi
LCFI88:
	.cfi_restore 6
	.cfi_def_cfa_offset 12
	pop	edi
LCFI89:
	.cfi_restore 7
	.cfi_def_cfa_offset 8
LVL154:
	pop	ebp
LCFI90:
	.cfi_restore 5
	.cfi_def_cfa_offset 4
	ret
LVL155:
	.p2align 2,,3
L144:
LCFI91:
	.cfi_restore_state
	.loc 1 99 0
	mov	DWORD PTR [esp+4], OFFSET FLAT:LC9
	mov	DWORD PTR [esp], OFFSET FLAT:LC2
	call	_libintl_dgettext
LVL156:
	.loc 1 97 0
	mov	DWORD PTR [esp+8], eax
	mov	DWORD PTR [esp+4], 16
	mov	DWORD PTR [esp], edi
	call	_purple_connection_error_reason
LVL157:
	.loc 1 101 0
	jmp	L133
LVL158:
	.p2align 2,,3
L137:
	.loc 1 135 0
	mov	DWORD PTR [esp], edx
	call	_purple_presence_is_idle
LVL159:
	.loc 1 136 0
	mov	edx, DWORD PTR [ebx]
	.loc 1 135 0
	test	eax, eax
	je	L139
	.loc 1 136 0
	mov	DWORD PTR [esp], OFFSET FLAT:LC6
	mov	DWORD PTR [esp+28], edx
	call	_g_strdup
LVL160:
	mov	edx, DWORD PTR [esp+28]
	mov	DWORD PTR [edx+24], eax
	jmp	L138
	.p2align 2,,3
L139:
	.loc 1 138 0
	mov	DWORD PTR [esp], OFFSET FLAT:LC7
	mov	DWORD PTR [esp+28], edx
	call	_g_strdup
LVL161:
	mov	edx, DWORD PTR [esp+28]
	mov	DWORD PTR [edx+24], eax
	jmp	L138
LVL162:
	.p2align 2,,3
L145:
	.loc 1 119 0
	mov	DWORD PTR [esp+4], OFFSET FLAT:LC11
L143:
	.loc 1 146 0
	mov	DWORD PTR [esp], OFFSET FLAT:LC2
	call	_libintl_dgettext
LVL163:
	.loc 1 144 0
	mov	DWORD PTR [esp+8], eax
	mov	DWORD PTR [esp+4], 0
	mov	DWORD PTR [esp], edi
	call	_purple_connection_error_reason
LVL164:
	.loc 1 147 0
	jmp	L133
LVL165:
	.p2align 2,,3
L146:
	.loc 1 146 0
	mov	DWORD PTR [esp+4], OFFSET FLAT:LC15
	jmp	L143
LVL166:
L147:
	.loc 1 154 0
	call	___stack_chk_fail
LVL167:
	.cfi_endproc
LFE95:
	.section .rdata,"dr"
LC16:
	.ascii "account != NULL\0"
LC17:
	.ascii "Message\0"
LC18:
	.ascii "available\0"
LC19:
	.ascii "offline\0"
	.text
	.p2align 2,,3
	.def	_bonjour_status_types;	.scl	3;	.type	32;	.endef
_bonjour_status_types:
LFB102:
	.loc 1 278 0
	.cfi_startproc
LVL168:
	push	esi
LCFI92:
	.cfi_def_cfa_offset 8
	.cfi_offset 6, -8
	push	ebx
LCFI93:
	.cfi_def_cfa_offset 12
	.cfi_offset 3, -12
	sub	esp, 68
LCFI94:
	.cfi_def_cfa_offset 80
	.loc 1 278 0
	mov	eax, DWORD PTR ___stack_chk_guard
	mov	DWORD PTR [esp+60], eax
	xor	eax, eax
LVL169:
LBB6:
	.loc 1 282 0
	mov	ecx, DWORD PTR [esp+80]
	test	ecx, ecx
	je	L156
LVL170:
LBE6:
	.loc 1 284 0
	mov	DWORD PTR [esp], 13
	call	_purple_value_new
LVL171:
	mov	ebx, eax
	.loc 1 287 0
	mov	DWORD PTR [esp+4], OFFSET FLAT:LC17
	mov	DWORD PTR [esp], OFFSET FLAT:LC2
	call	_libintl_dgettext
LVL172:
	.loc 1 284 0
	mov	DWORD PTR [esp+36], 0
	mov	DWORD PTR [esp+32], ebx
	mov	DWORD PTR [esp+28], eax
	mov	DWORD PTR [esp+24], OFFSET FLAT:LC8
	mov	DWORD PTR [esp+20], 0
	mov	DWORD PTR [esp+16], 1
	mov	DWORD PTR [esp+12], 1
	mov	DWORD PTR [esp+8], 0
	mov	DWORD PTR [esp+4], OFFSET FLAT:LC18
	mov	DWORD PTR [esp], 2
	call	_purple_status_type_new_with_attrs
LVL173:
	.loc 1 289 0
	mov	DWORD PTR [esp+4], eax
	mov	DWORD PTR [esp], 0
	call	_g_list_append
LVL174:
	mov	ebx, eax
LVL175:
	.loc 1 291 0
	mov	DWORD PTR [esp], 13
	call	_purple_value_new
LVL176:
	mov	esi, eax
	.loc 1 294 0
	mov	DWORD PTR [esp+4], OFFSET FLAT:LC17
	mov	DWORD PTR [esp], OFFSET FLAT:LC2
	call	_libintl_dgettext
LVL177:
	.loc 1 291 0
	mov	DWORD PTR [esp+36], 0
	mov	DWORD PTR [esp+32], esi
	mov	DWORD PTR [esp+28], eax
	mov	DWORD PTR [esp+24], OFFSET FLAT:LC8
	mov	DWORD PTR [esp+20], 0
	mov	DWORD PTR [esp+16], 1
	mov	DWORD PTR [esp+12], 1
	mov	DWORD PTR [esp+8], 0
	mov	DWORD PTR [esp+4], OFFSET FLAT:LC6
	mov	DWORD PTR [esp], 5
	call	_purple_status_type_new_with_attrs
LVL178:
	.loc 1 296 0
	mov	DWORD PTR [esp+4], eax
	mov	DWORD PTR [esp], ebx
	call	_g_list_append
LVL179:
	mov	ebx, eax
LVL180:
	.loc 1 298 0
	mov	DWORD PTR [esp+20], 0
	mov	DWORD PTR [esp+16], 1
	mov	DWORD PTR [esp+12], 1
	mov	DWORD PTR [esp+8], 0
	mov	DWORD PTR [esp+4], OFFSET FLAT:LC19
	mov	DWORD PTR [esp], 1
	call	_purple_status_type_new_full
LVL181:
	.loc 1 301 0
	mov	DWORD PTR [esp+4], eax
	mov	DWORD PTR [esp], ebx
	call	_g_list_append
LVL182:
L151:
	.loc 1 304 0
	mov	edx, DWORD PTR [esp+60]
	xor	edx, DWORD PTR ___stack_chk_guard
	jne	L157
	add	esp, 68
LCFI95:
	.cfi_remember_state
	.cfi_def_cfa_offset 12
	pop	ebx
LCFI96:
	.cfi_restore 3
	.cfi_def_cfa_offset 8
	pop	esi
LCFI97:
	.cfi_restore 6
	.cfi_def_cfa_offset 4
	ret
LVL183:
	.p2align 2,,3
L156:
LCFI98:
	.cfi_restore_state
	.loc 1 282 0
	mov	DWORD PTR [esp+8], OFFSET FLAT:LC16
	mov	DWORD PTR [esp+4], OFFSET FLAT:___PRETTY_FUNCTION__.51290
	mov	DWORD PTR [esp], 0
	call	_g_return_if_fail_warning
LVL184:
	xor	eax, eax
	jmp	L151
LVL185:
L157:
	.loc 1 304 0
	call	___stack_chk_fail
LVL186:
	.cfi_endproc
LFE102:
	.section .rdata,"dr"
LC20:
	.ascii "Idle\0"
LC21:
	.ascii "Status\0"
	.align 4
LC22:
	.ascii "Got tooltip request for a buddy without protocol data.\12\0"
LC23:
	.ascii "First name\0"
LC24:
	.ascii "Last name\0"
LC25:
	.ascii "Email\0"
LC26:
	.ascii "AIM Account\0"
LC27:
	.ascii "XMPP Account\0"
	.text
	.p2align 2,,3
	.def	_bonjour_tooltip_text;	.scl	3;	.type	32;	.endef
_bonjour_tooltip_text:
LFB106:
	.loc 1 356 0
	.cfi_startproc
LVL187:
	push	ebp
LCFI99:
	.cfi_def_cfa_offset 8
	.cfi_offset 5, -8
	push	edi
LCFI100:
	.cfi_def_cfa_offset 12
	.cfi_offset 7, -12
	push	esi
LCFI101:
	.cfi_def_cfa_offset 16
	.cfi_offset 6, -16
	push	ebx
LCFI102:
	.cfi_def_cfa_offset 20
	.cfi_offset 3, -20
	sub	esp, 60
LCFI103:
	.cfi_def_cfa_offset 80
	mov	edi, DWORD PTR [esp+80]
	mov	esi, DWORD PTR [esp+84]
	.loc 1 356 0
	mov	eax, DWORD PTR ___stack_chk_guard
	mov	DWORD PTR [esp+44], eax
	xor	eax, eax
	.loc 1 359 0
	mov	DWORD PTR [esp], edi
	call	_purple_buddy_get_protocol_data
LVL188:
	mov	ebx, eax
LVL189:
	.loc 1 363 0
	mov	DWORD PTR [esp], edi
	call	_purple_buddy_get_presence
LVL190:
	mov	edi, eax
LVL191:
	.loc 1 364 0
	mov	DWORD PTR [esp], eax
	call	_purple_presence_get_active_status
LVL192:
	mov	ebp, eax
LVL193:
	.loc 1 365 0
	mov	DWORD PTR [esp+4], OFFSET FLAT:LC8
	mov	DWORD PTR [esp], eax
	call	_purple_status_get_attr_string
LVL194:
	mov	DWORD PTR [esp+28], eax
LVL195:
	.loc 1 367 0
	mov	DWORD PTR [esp], edi
	call	_purple_presence_is_available
LVL196:
	test	eax, eax
	jne	L161
	.loc 1 369 0
	mov	DWORD PTR [esp], edi
	call	_purple_presence_is_idle
LVL197:
	test	eax, eax
	jne	L195
L161:
	.loc 1 372 0
	mov	DWORD PTR [esp], ebp
	call	_purple_status_get_name
LVL198:
	mov	edi, eax
LVL199:
L160:
	.loc 1 374 0
	mov	DWORD PTR [esp+4], OFFSET FLAT:LC21
	mov	DWORD PTR [esp], OFFSET FLAT:LC2
	call	_libintl_dgettext
LVL200:
	mov	DWORD PTR [esp+8], edi
	mov	DWORD PTR [esp+4], eax
	mov	DWORD PTR [esp], esi
	call	_purple_notify_user_info_add_pair
LVL201:
	.loc 1 375 0
	mov	edi, DWORD PTR [esp+28]
LVL202:
	test	edi, edi
	je	L162
	.loc 1 376 0
	mov	DWORD PTR [esp+4], OFFSET FLAT:LC17
	mov	DWORD PTR [esp], OFFSET FLAT:LC2
	call	_libintl_dgettext
LVL203:
	mov	edx, DWORD PTR [esp+28]
	mov	DWORD PTR [esp+8], edx
	mov	DWORD PTR [esp+4], eax
	mov	DWORD PTR [esp], esi
	call	_purple_notify_user_info_add_pair
LVL204:
L162:
	.loc 1 378 0
	test	ebx, ebx
	je	L196
	.loc 1 384 0
	mov	eax, DWORD PTR [ebx+56]
	test	eax, eax
	je	L166
	.loc 1 384 0 is_stmt 0 discriminator 1
	cmp	BYTE PTR [eax], 0
	jne	L197
L166:
	.loc 1 391 0 is_stmt 1
	mov	edi, DWORD PTR [ebx+28]
	test	edi, edi
	je	L169
	.loc 1 391 0 is_stmt 0 discriminator 1
	cmp	BYTE PTR [edi], 0
	jne	L198
L169:
	.loc 1 394 0 is_stmt 1
	mov	edi, DWORD PTR [ebx+40]
	test	edi, edi
	je	L170
	.loc 1 394 0 is_stmt 0 discriminator 1
	cmp	BYTE PTR [edi], 0
	jne	L199
L170:
	.loc 1 397 0 is_stmt 1
	mov	ebx, DWORD PTR [ebx+36]
LVL205:
	test	ebx, ebx
	je	L158
	.loc 1 397 0 is_stmt 0 discriminator 1
	cmp	BYTE PTR [ebx], 0
	jne	L200
L158:
	.loc 1 399 0 is_stmt 1
	mov	eax, DWORD PTR [esp+44]
	xor	eax, DWORD PTR ___stack_chk_guard
	jne	L194
	add	esp, 60
LCFI104:
	.cfi_remember_state
	.cfi_def_cfa_offset 20
	pop	ebx
LCFI105:
	.cfi_restore 3
	.cfi_def_cfa_offset 16
	pop	esi
LCFI106:
	.cfi_restore 6
	.cfi_def_cfa_offset 12
	pop	edi
LCFI107:
	.cfi_restore 7
	.cfi_def_cfa_offset 8
	pop	ebp
LCFI108:
	.cfi_restore 5
	.cfi_def_cfa_offset 4
LVL206:
	ret
LVL207:
	.p2align 2,,3
L197:
LCFI109:
	.cfi_restore_state
	.loc 1 385 0
	mov	edi, DWORD PTR [ebx+16]
	test	edi, edi
	je	L168
	.loc 1 385 0 is_stmt 0 discriminator 1
	cmp	BYTE PTR [edi], 0
	jne	L201
L168:
	.loc 1 387 0 is_stmt 1
	mov	edi, DWORD PTR [ebx+32]
	test	edi, edi
	je	L166
	.loc 1 387 0 is_stmt 0 discriminator 1
	cmp	BYTE PTR [edi], 0
	je	L166
	.loc 1 388 0 is_stmt 1
	mov	DWORD PTR [esp+4], OFFSET FLAT:LC24
	mov	DWORD PTR [esp], OFFSET FLAT:LC2
	call	_libintl_dgettext
LVL208:
	mov	DWORD PTR [esp+8], edi
	mov	DWORD PTR [esp+4], eax
	mov	DWORD PTR [esp], esi
	call	_purple_notify_user_info_add_pair
LVL209:
	jmp	L166
LVL210:
	.p2align 2,,3
L195:
	.loc 1 370 0
	mov	DWORD PTR [esp+4], OFFSET FLAT:LC20
	mov	DWORD PTR [esp], OFFSET FLAT:LC2
	call	_libintl_dgettext
LVL211:
	mov	edi, eax
LVL212:
	jmp	L160
LVL213:
	.p2align 2,,3
L200:
	.loc 1 398 0
	mov	DWORD PTR [esp+4], OFFSET FLAT:LC27
	mov	DWORD PTR [esp], OFFSET FLAT:LC2
	call	_libintl_dgettext
LVL214:
	mov	edx, DWORD PTR [esp+44]
	xor	edx, DWORD PTR ___stack_chk_guard
	jne	L194
	mov	DWORD PTR [esp+88], ebx
	mov	DWORD PTR [esp+84], eax
	mov	DWORD PTR [esp+80], esi
	.loc 1 399 0
	add	esp, 60
LCFI110:
	.cfi_remember_state
	.cfi_def_cfa_offset 20
	pop	ebx
LCFI111:
	.cfi_restore 3
	.cfi_def_cfa_offset 16
	pop	esi
LCFI112:
	.cfi_restore 6
	.cfi_def_cfa_offset 12
	pop	edi
LCFI113:
	.cfi_restore 7
	.cfi_def_cfa_offset 8
	pop	ebp
LCFI114:
	.cfi_restore 5
	.cfi_def_cfa_offset 4
LVL215:
	.loc 1 398 0
	jmp	_purple_notify_user_info_add_pair
LVL216:
	.p2align 2,,3
L199:
LCFI115:
	.cfi_restore_state
	.loc 1 395 0
	mov	DWORD PTR [esp+4], OFFSET FLAT:LC26
	mov	DWORD PTR [esp], OFFSET FLAT:LC2
	call	_libintl_dgettext
LVL217:
	mov	DWORD PTR [esp+8], edi
	mov	DWORD PTR [esp+4], eax
	mov	DWORD PTR [esp], esi
	call	_purple_notify_user_info_add_pair
LVL218:
	jmp	L170
	.p2align 2,,3
L198:
	.loc 1 392 0
	mov	DWORD PTR [esp+4], OFFSET FLAT:LC25
	mov	DWORD PTR [esp], OFFSET FLAT:LC2
	call	_libintl_dgettext
LVL219:
	mov	DWORD PTR [esp+8], edi
	mov	DWORD PTR [esp+4], eax
	mov	DWORD PTR [esp], esi
	call	_purple_notify_user_info_add_pair
LVL220:
	jmp	L169
	.p2align 2,,3
L201:
	.loc 1 386 0
	mov	DWORD PTR [esp+4], OFFSET FLAT:LC23
	mov	DWORD PTR [esp], OFFSET FLAT:LC2
	call	_libintl_dgettext
LVL221:
	mov	DWORD PTR [esp+8], edi
	mov	DWORD PTR [esp+4], eax
	mov	DWORD PTR [esp], esi
	call	_purple_notify_user_info_add_pair
LVL222:
	jmp	L168
	.p2align 2,,3
L196:
	.loc 1 379 0
	mov	eax, DWORD PTR [esp+44]
	xor	eax, DWORD PTR ___stack_chk_guard
	jne	L194
	mov	DWORD PTR [esp+84], OFFSET FLAT:LC22
	mov	DWORD PTR [esp+80], OFFSET FLAT:LC0
	.loc 1 399 0
	add	esp, 60
LCFI116:
	.cfi_remember_state
	.cfi_def_cfa_offset 20
	pop	ebx
LCFI117:
	.cfi_restore 3
	.cfi_def_cfa_offset 16
LVL223:
	pop	esi
LCFI118:
	.cfi_restore 6
	.cfi_def_cfa_offset 12
	pop	edi
LCFI119:
	.cfi_restore 7
	.cfi_def_cfa_offset 8
	pop	ebp
LCFI120:
	.cfi_restore 5
	.cfi_def_cfa_offset 4
LVL224:
	.loc 1 379 0
	jmp	_purple_debug_error
LVL225:
L194:
LCFI121:
	.cfi_restore_state
	.loc 1 399 0
	call	___stack_chk_fail
LVL226:
	.cfi_endproc
LFE106:
	.p2align 2,,3
	.def	_bonjour_status_text;	.scl	3;	.type	32;	.endef
_bonjour_status_text:
LFB105:
	.loc 1 335 0
	.cfi_startproc
LVL227:
	sub	esp, 60
LCFI122:
	.cfi_def_cfa_offset 64
	.loc 1 335 0
	mov	eax, DWORD PTR ___stack_chk_guard
	mov	DWORD PTR [esp+44], eax
	xor	eax, eax
LVL228:
	.loc 1 341 0
	mov	eax, DWORD PTR [esp+64]
	mov	DWORD PTR [esp], eax
	call	_purple_buddy_get_presence
LVL229:
	.loc 1 342 0
	mov	DWORD PTR [esp], eax
	call	_purple_presence_get_active_status
LVL230:
	.loc 1 344 0
	mov	DWORD PTR [esp+4], OFFSET FLAT:LC8
	mov	DWORD PTR [esp], eax
	call	_purple_status_get_attr_string
LVL231:
	.loc 1 346 0
	test	eax, eax
	je	L205
	.loc 1 347 0
	mov	DWORD PTR [esp+4], -1
	mov	DWORD PTR [esp], eax
	call	_g_markup_escape_text
LVL232:
	.loc 1 348 0
	mov	DWORD PTR [esp+8], 32
	mov	DWORD PTR [esp+4], 10
	mov	DWORD PTR [esp], eax
	mov	DWORD PTR [esp+28], eax
	call	_purple_util_chrreplace
LVL233:
	mov	eax, DWORD PTR [esp+28]
L203:
LVL234:
	.loc 1 352 0
	mov	edx, DWORD PTR [esp+44]
	xor	edx, DWORD PTR ___stack_chk_guard
	jne	L207
	add	esp, 60
LCFI123:
	.cfi_remember_state
	.cfi_def_cfa_offset 4
	ret
LVL235:
	.p2align 2,,3
L205:
LCFI124:
	.cfi_restore_state
	.loc 1 339 0
	xor	eax, eax
LVL236:
	jmp	L203
LVL237:
L207:
	.loc 1 352 0
	call	___stack_chk_fail
LVL238:
	.cfi_endproc
LFE105:
	.p2align 2,,3
	.def	__win32_name_lookup_thread;	.scl	3;	.type	32;	.endef
__win32_name_lookup_thread:
LFB113:
	.loc 1 619 0
	.cfi_startproc
LVL239:
	push	esi
LCFI125:
	.cfi_def_cfa_offset 8
	.cfi_offset 6, -8
	push	ebx
LCFI126:
	.cfi_def_cfa_offset 12
	.cfi_offset 3, -12
	sub	esp, 580
LCFI127:
	.cfi_def_cfa_offset 592
	.loc 1 619 0
	mov	eax, DWORD PTR ___stack_chk_guard
	mov	DWORD PTR [esp+572], eax
	xor	eax, eax
LVL240:
	.loc 1 622 0
	mov	DWORD PTR [esp+44], 257
LVL241:
	.loc 1 624 0
	lea	eax, [esp+44]
	mov	DWORD PTR [esp+4], eax
	lea	ebx, [esp+58]
	mov	DWORD PTR [esp], ebx
	call	_GetUserNameW@8
LCFI128:
	.cfi_def_cfa_offset 584
LVL242:
	sub	esp, 8
LCFI129:
	.cfi_def_cfa_offset 592
	.loc 1 626 0
	cmp	WORD PTR [esp+58], 0
	jne	L242
	.loc 1 620 0
	xor	esi, esi
LVL243:
L209:
	.loc 1 664 0
	mov	DWORD PTR [esp+8], esi
	mov	DWORD PTR [esp+4], OFFSET FLAT:__set_default_name_cb
	mov	DWORD PTR [esp], 0
	call	_purple_timeout_add
LVL244:
	.loc 1 667 0
	xor	eax, eax
	mov	edx, DWORD PTR [esp+572]
	xor	edx, DWORD PTR ___stack_chk_guard
	jne	L243
	add	esp, 580
LCFI130:
	.cfi_remember_state
	.cfi_def_cfa_offset 12
	pop	ebx
LCFI131:
	.cfi_restore 3
	.cfi_def_cfa_offset 8
	pop	esi
LCFI132:
	.cfi_restore 6
	.cfi_def_cfa_offset 4
LVL245:
	ret
LVL246:
	.p2align 2,,3
L242:
LCFI133:
	.cfi_restore_state
LBB7:
	.loc 1 627 0
	mov	DWORD PTR [esp+48], 0
LVL247:
	.loc 1 628 0
	mov	DWORD PTR [esp+52], 0
LVL248:
	.loc 1 630 0
	lea	eax, [esp+48]
	mov	DWORD PTR [esp+8], eax
	mov	DWORD PTR [esp+4], 0
	mov	DWORD PTR [esp], 0
	call	_NetGetDCName@12
LCFI134:
	.cfi_def_cfa_offset 580
LVL249:
	sub	esp, 12
LCFI135:
	.cfi_def_cfa_offset 592
	.loc 1 634 0
	lea	esi, [esp+52]
	mov	DWORD PTR [esp+12], esi
	mov	DWORD PTR [esp+8], 10
	mov	DWORD PTR [esp+4], ebx
	mov	eax, DWORD PTR [esp+48]
	mov	DWORD PTR [esp], eax
	call	_NetUserGetInfo@16
LCFI136:
	.cfi_def_cfa_offset 576
LVL250:
	sub	esp, 16
LCFI137:
	.cfi_def_cfa_offset 592
	.loc 1 635 0
	mov	edx, DWORD PTR [esp+52]
	.loc 1 634 0
	test	eax, eax
	je	L244
	.loc 1 642 0
	mov	eax, DWORD PTR [esp+48]
	test	eax, eax
	je	L223
	.loc 1 645 0
	test	edx, edx
	je	L214
L220:
	.loc 1 645 0 is_stmt 0 discriminator 1
	mov	DWORD PTR [esp], edx
	call	_NetApiBufferFree@4
LCFI138:
	.cfi_def_cfa_offset 588
LVL251:
	push	eax
LCFI139:
	.cfi_def_cfa_offset 592
L214:
	.loc 1 646 0 is_stmt 1
	mov	DWORD PTR [esp+52], 0
	.loc 1 648 0
	mov	DWORD PTR [esp+12], esi
	mov	DWORD PTR [esp+8], 10
	mov	DWORD PTR [esp+4], ebx
	mov	DWORD PTR [esp], 0
	call	_NetUserGetInfo@16
LCFI140:
	.cfi_def_cfa_offset 576
LVL252:
	sub	esp, 16
LCFI141:
	.cfi_def_cfa_offset 592
	.loc 1 649 0
	mov	edx, DWORD PTR [esp+52]
	.loc 1 648 0
	test	eax, eax
	jne	L223
	.loc 1 649 0
	test	edx, edx
	je	L224
	.loc 1 649 0 is_stmt 0 discriminator 1
	mov	eax, DWORD PTR [edx+12]
	test	eax, eax
	je	L226
	.loc 1 650 0 is_stmt 1
	cmp	WORD PTR [eax], 0
	jne	L241
L226:
	xor	esi, esi
LVL253:
L217:
	.loc 1 657 0 discriminator 1
	mov	DWORD PTR [esp], edx
	call	_NetApiBufferFree@4
LCFI142:
	.cfi_def_cfa_offset 588
LVL254:
	push	eax
LCFI143:
	.cfi_def_cfa_offset 592
L216:
	.loc 1 658 0
	mov	eax, DWORD PTR [esp+48]
	test	eax, eax
	je	L218
	.loc 1 658 0 is_stmt 0 discriminator 1
	mov	DWORD PTR [esp], eax
	call	_NetApiBufferFree@4
LCFI144:
	.cfi_def_cfa_offset 588
LVL255:
	push	eax
LCFI145:
	.cfi_def_cfa_offset 592
L218:
	.loc 1 660 0 is_stmt 1
	test	esi, esi
	jne	L209
	.loc 1 661 0
	mov	DWORD PTR [esp+16], 0
	mov	DWORD PTR [esp+12], 0
	mov	DWORD PTR [esp+8], 0
	mov	DWORD PTR [esp+4], -1
	mov	DWORD PTR [esp], ebx
	call	_g_utf16_to_utf8
LVL256:
	mov	esi, eax
LVL257:
	jmp	L209
LVL258:
	.p2align 2,,3
L244:
	.loc 1 635 0
	test	edx, edx
	je	L211
	.loc 1 635 0 is_stmt 0 discriminator 1
	mov	eax, DWORD PTR [edx+12]
	test	eax, eax
	je	L212
	.loc 1 636 0 is_stmt 1
	cmp	WORD PTR [eax], 0
	jne	L241
L212:
	.loc 1 642 0
	cmp	DWORD PTR [esp+48], 0
	jne	L220
	jmp	L226
	.p2align 2,,3
L241:
	.loc 1 651 0
	mov	DWORD PTR [esp+16], 0
	mov	DWORD PTR [esp+12], 0
	mov	DWORD PTR [esp+8], 0
	mov	DWORD PTR [esp+4], -1
	mov	DWORD PTR [esp], eax
	call	_g_utf16_to_utf8
LVL259:
	mov	esi, eax
LVL260:
	mov	edx, DWORD PTR [esp+52]
LVL261:
L213:
	.loc 1 657 0
	test	edx, edx
	jne	L217
	jmp	L216
LVL262:
	.p2align 2,,3
L223:
	.loc 1 620 0
	xor	esi, esi
	jmp	L213
L211:
	.loc 1 642 0
	cmp	DWORD PTR [esp+48], 0
	jne	L214
	.p2align 2,,3
L224:
	.loc 1 620 0
	xor	esi, esi
	jmp	L216
LVL263:
L243:
LBE7:
	.loc 1 667 0
	call	___stack_chk_fail
LVL264:
	.cfi_endproc
LFE113:
	.section .rdata,"dr"
	.align 4
LC28:
	.ascii "Unable to look up First and Last name or Username from system; using defaults.\12\0"
	.text
	.p2align 2,,3
	.def	__set_default_name_cb;	.scl	3;	.type	32;	.endef
__set_default_name_cb:
LFB112:
	.loc 1 581 0
	.cfi_startproc
LVL265:
	push	ebp
LCFI146:
	.cfi_def_cfa_offset 8
	.cfi_offset 5, -8
	push	edi
LCFI147:
	.cfi_def_cfa_offset 12
	.cfi_offset 7, -12
	push	esi
LCFI148:
	.cfi_def_cfa_offset 16
	.cfi_offset 6, -16
	push	ebx
LCFI149:
	.cfi_def_cfa_offset 20
	.cfi_offset 3, -20
	sub	esp, 44
LCFI150:
	.cfi_def_cfa_offset 64
	mov	esi, DWORD PTR [esp+64]
	.loc 1 581 0
	mov	eax, DWORD PTR ___stack_chk_guard
	mov	DWORD PTR [esp+28], eax
	xor	eax, eax
LVL266:
	.loc 1 584 0
	mov	ebx, DWORD PTR _prpl_info+8
LVL267:
	.loc 1 587 0
	test	esi, esi
	je	L260
	.loc 1 592 0
	mov	eax, DWORD PTR _default_firstname
	mov	DWORD PTR [esp], eax
	call	_g_free
LVL268:
	.loc 1 593 0
	mov	eax, DWORD PTR _default_lastname
	mov	DWORD PTR [esp], eax
	call	_g_free
LVL269:
	.loc 1 596 0
	mov	DWORD PTR [esp+4], 32
	mov	DWORD PTR [esp], esi
	call	_strchr
LVL270:
	mov	edi, eax
LVL271:
	.loc 1 597 0
	test	eax, eax
	je	L248
	.loc 1 598 0
	sub	eax, esi
LVL272:
	mov	DWORD PTR [esp+4], eax
	mov	DWORD PTR [esp], esi
	call	_g_strndup
LVL273:
	mov	DWORD PTR _default_firstname, eax
	.loc 1 599 0
	inc	edi
LVL274:
	mov	DWORD PTR [esp], edi
	call	_g_strdup
LVL275:
	mov	DWORD PTR _default_lastname, eax
LVL276:
L249:
	.loc 1 604 0
	mov	DWORD PTR [esp], esi
	call	_g_free
LVL277:
	.loc 1 607 0
	test	ebx, ebx
	jne	L257
	jmp	L247
LVL278:
	.p2align 2,,3
L261:
	.loc 1 610 0
	mov	eax, DWORD PTR _default_firstname
	mov	DWORD PTR [esp+4], eax
	mov	DWORD PTR [esp], ebp
	call	_purple_account_option_set_default_string
LVL279:
L252:
	.loc 1 607 0
	mov	ebx, DWORD PTR [ebx+4]
LVL280:
	test	ebx, ebx
	je	L247
LVL281:
L257:
	.loc 1 608 0
	mov	ebp, DWORD PTR [ebx]
LVL282:
	.loc 1 609 0
	mov	DWORD PTR [esp], ebp
	call	_purple_account_option_get_setting
LVL283:
	mov	esi, OFFSET FLAT:LC12
	mov	edi, eax
	mov	ecx, 6
	repe cmpsb
	je	L261
	.loc 1 611 0
	mov	DWORD PTR [esp], ebp
	call	_purple_account_option_get_setting
LVL284:
	mov	esi, OFFSET FLAT:LC13
	mov	edi, eax
	mov	ecx, 5
	repe cmpsb
	jne	L252
	.loc 1 612 0
	mov	eax, DWORD PTR _default_lastname
	mov	DWORD PTR [esp+4], eax
	mov	DWORD PTR [esp], ebp
	call	_purple_account_option_set_default_string
LVL285:
	.loc 1 607 0
	mov	ebx, DWORD PTR [ebx+4]
LVL286:
	test	ebx, ebx
	jne	L257
LVL287:
	.p2align 2,,3
L247:
	.loc 1 616 0
	xor	eax, eax
	mov	edx, DWORD PTR [esp+28]
	xor	edx, DWORD PTR ___stack_chk_guard
	jne	L262
	add	esp, 44
LCFI151:
	.cfi_remember_state
	.cfi_def_cfa_offset 20
	pop	ebx
LCFI152:
	.cfi_restore 3
	.cfi_def_cfa_offset 16
LVL288:
	pop	esi
LCFI153:
	.cfi_restore 6
	.cfi_def_cfa_offset 12
	pop	edi
LCFI154:
	.cfi_restore 7
	.cfi_def_cfa_offset 8
	pop	ebp
LCFI155:
	.cfi_restore 5
	.cfi_def_cfa_offset 4
	ret
LVL289:
	.p2align 2,,3
L248:
LCFI156:
	.cfi_restore_state
	.loc 1 601 0
	mov	DWORD PTR [esp], esi
	call	_g_strdup
LVL290:
	mov	DWORD PTR _default_firstname, eax
	.loc 1 602 0
	mov	DWORD PTR [esp], OFFSET FLAT:LC4
	call	_g_strdup
LVL291:
	mov	DWORD PTR _default_lastname, eax
	jmp	L249
LVL292:
	.p2align 2,,3
L260:
	.loc 1 588 0
	mov	DWORD PTR [esp+4], OFFSET FLAT:LC28
	mov	DWORD PTR [esp], OFFSET FLAT:LC0
	call	_purple_debug_info
LVL293:
	.loc 1 589 0
	jmp	L247
LVL294:
L262:
	.loc 1 616 0
	call	___stack_chk_fail
LVL295:
	.cfi_endproc
LFE112:
	.p2align 2,,3
	.globl	_bonjour_get_jid
	.def	_bonjour_get_jid;	.scl	2;	.type	32;	.endef
_bonjour_get_jid:
LFB93:
	.loc 1 52 0
	.cfi_startproc
LVL296:
	sub	esp, 44
LCFI157:
	.cfi_def_cfa_offset 48
	.loc 1 52 0
	mov	eax, DWORD PTR ___stack_chk_guard
	mov	DWORD PTR [esp+28], eax
	xor	eax, eax
	.loc 1 53 0
	mov	eax, DWORD PTR [esp+48]
	mov	DWORD PTR [esp], eax
	call	_purple_account_get_connection
LVL297:
	.loc 1 55 0
	mov	eax, DWORD PTR [eax+28]
LVL298:
	mov	eax, DWORD PTR [eax+12]
LVL299:
	.loc 1 56 0
	mov	edx, DWORD PTR [esp+28]
	xor	edx, DWORD PTR ___stack_chk_guard
	jne	L266
	add	esp, 44
LCFI158:
	.cfi_remember_state
	.cfi_def_cfa_offset 4
	ret
L266:
LCFI159:
	.cfi_restore_state
	call	___stack_chk_fail
LVL300:
	.cfi_endproc
LFE93:
	.section .rdata,"dr"
LC29:
	.ascii "Purple Person\0"
LC30:
	.ascii "Local Port\0"
LC31:
	.ascii "email\0"
LC32:
	.ascii "AIM\0"
LC33:
	.ascii "jid\0"
	.text
	.p2align 2,,3
	.globl	_purple_init_plugin
	.def	_purple_init_plugin;	.scl	2;	.type	32;	.endef
_purple_init_plugin:
LFB116:
	.loc 1 754 0
	.cfi_startproc
LVL301:
	push	edi
LCFI160:
	.cfi_def_cfa_offset 8
	.cfi_offset 7, -8
	push	esi
LCFI161:
	.cfi_def_cfa_offset 12
	.cfi_offset 6, -12
	push	ebx
LCFI162:
	.cfi_def_cfa_offset 16
	.cfi_offset 3, -16
	sub	esp, 48
LCFI163:
	.cfi_def_cfa_offset 64
	mov	ebx, DWORD PTR [esp+64]
	.loc 1 754 0
	mov	eax, DWORD PTR ___stack_chk_guard
	mov	DWORD PTR [esp+44], eax
	xor	eax, eax
	mov	DWORD PTR [ebx+16], OFFSET FLAT:_info
LVL302:
LBB12:
LBB13:
LBB14:
LBB15:
	.loc 1 690 0
	mov	DWORD PTR [esp+24], 0
	mov	DWORD PTR [esp+20], 1
	mov	DWORD PTR [esp+16], 0
	mov	DWORD PTR [esp+12], 0
	mov	DWORD PTR [esp+8], 0
	mov	DWORD PTR [esp+4], 0
	mov	DWORD PTR [esp], OFFSET FLAT:__win32_name_lookup_thread
	call	_g_thread_create_full
LVL303:
	.loc 1 701 0
	mov	DWORD PTR [esp+4], OFFSET FLAT:LC29
	mov	DWORD PTR [esp], OFFSET FLAT:LC2
	call	_libintl_dgettext
LVL304:
	mov	esi, eax
LVL305:
	.loc 1 704 0
	mov	DWORD PTR [esp+4], 32
	mov	DWORD PTR [esp], eax
	call	_strchr
LVL306:
	mov	edi, eax
LVL307:
	.loc 1 705 0
	test	eax, eax
	je	L268
	.loc 1 706 0
	sub	eax, esi
LVL308:
	mov	DWORD PTR [esp+4], eax
	mov	DWORD PTR [esp], esi
	call	_g_strndup
LVL309:
	mov	DWORD PTR _default_firstname, eax
	.loc 1 707 0
	inc	edi
LVL310:
	.loc 1 712 0
	mov	DWORD PTR [esp+4], 44
	mov	DWORD PTR [esp], edi
	call	_strchr
LVL311:
	.loc 1 713 0
	test	eax, eax
	je	L269
	.loc 1 714 0
	sub	eax, edi
LVL312:
	mov	DWORD PTR [esp+4], eax
	mov	DWORD PTR [esp], edi
	call	_g_strndup
LVL313:
	mov	DWORD PTR _default_lastname, eax
LVL314:
L270:
	.loc 1 722 0
	mov	DWORD PTR [esp], 0
	call	_g_free
LVL315:
LBE15:
LBE14:
	.loc 1 733 0
	mov	DWORD PTR [esp+4], OFFSET FLAT:LC30
	mov	DWORD PTR [esp], OFFSET FLAT:LC2
	call	_libintl_dgettext
LVL316:
	mov	DWORD PTR [esp+8], 5298
	mov	DWORD PTR [esp+4], OFFSET FLAT:LC10
	mov	DWORD PTR [esp], eax
	call	_purple_account_option_int_new
LVL317:
	.loc 1 734 0
	mov	DWORD PTR [esp+4], eax
	mov	eax, DWORD PTR _prpl_info+8
LVL318:
	mov	DWORD PTR [esp], eax
	call	_g_list_append
LVL319:
	mov	DWORD PTR _prpl_info+8, eax
	.loc 1 736 0
	mov	esi, DWORD PTR _default_firstname
LVL320:
	mov	DWORD PTR [esp+4], OFFSET FLAT:LC23
	mov	DWORD PTR [esp], OFFSET FLAT:LC2
	call	_libintl_dgettext
LVL321:
	mov	DWORD PTR [esp+8], esi
	mov	DWORD PTR [esp+4], OFFSET FLAT:LC12
	mov	DWORD PTR [esp], eax
	call	_purple_account_option_string_new
LVL322:
	.loc 1 737 0
	mov	DWORD PTR [esp+4], eax
	mov	eax, DWORD PTR _prpl_info+8
LVL323:
	mov	DWORD PTR [esp], eax
	call	_g_list_append
LVL324:
	mov	DWORD PTR _prpl_info+8, eax
	.loc 1 739 0
	mov	esi, DWORD PTR _default_lastname
	mov	DWORD PTR [esp+4], OFFSET FLAT:LC24
	mov	DWORD PTR [esp], OFFSET FLAT:LC2
	call	_libintl_dgettext
LVL325:
	mov	DWORD PTR [esp+8], esi
	mov	DWORD PTR [esp+4], OFFSET FLAT:LC13
	mov	DWORD PTR [esp], eax
	call	_purple_account_option_string_new
LVL326:
	.loc 1 740 0
	mov	DWORD PTR [esp+4], eax
	mov	eax, DWORD PTR _prpl_info+8
LVL327:
	mov	DWORD PTR [esp], eax
	call	_g_list_append
LVL328:
	mov	DWORD PTR _prpl_info+8, eax
	.loc 1 742 0
	mov	DWORD PTR [esp+4], OFFSET FLAT:LC25
	mov	DWORD PTR [esp], OFFSET FLAT:LC2
	call	_libintl_dgettext
LVL329:
	mov	DWORD PTR [esp+8], OFFSET FLAT:LC4
	mov	DWORD PTR [esp+4], OFFSET FLAT:LC31
	mov	DWORD PTR [esp], eax
	call	_purple_account_option_string_new
LVL330:
	.loc 1 743 0
	mov	DWORD PTR [esp+4], eax
	mov	eax, DWORD PTR _prpl_info+8
LVL331:
	mov	DWORD PTR [esp], eax
	call	_g_list_append
LVL332:
	mov	DWORD PTR _prpl_info+8, eax
	.loc 1 745 0
	mov	DWORD PTR [esp+4], OFFSET FLAT:LC26
	mov	DWORD PTR [esp], OFFSET FLAT:LC2
	call	_libintl_dgettext
LVL333:
	mov	DWORD PTR [esp+8], OFFSET FLAT:LC4
	mov	DWORD PTR [esp+4], OFFSET FLAT:LC32
	mov	DWORD PTR [esp], eax
	call	_purple_account_option_string_new
LVL334:
	.loc 1 746 0
	mov	DWORD PTR [esp+4], eax
	mov	eax, DWORD PTR _prpl_info+8
LVL335:
	mov	DWORD PTR [esp], eax
	call	_g_list_append
LVL336:
	mov	DWORD PTR _prpl_info+8, eax
	.loc 1 748 0
	mov	DWORD PTR [esp+4], OFFSET FLAT:LC27
	mov	DWORD PTR [esp], OFFSET FLAT:LC2
	call	_libintl_dgettext
LVL337:
	mov	DWORD PTR [esp+8], OFFSET FLAT:LC4
	mov	DWORD PTR [esp+4], OFFSET FLAT:LC33
	mov	DWORD PTR [esp], eax
	call	_purple_account_option_string_new
LVL338:
	.loc 1 749 0
	mov	DWORD PTR [esp+4], eax
	mov	eax, DWORD PTR _prpl_info+8
LVL339:
	mov	DWORD PTR [esp], eax
	call	_g_list_append
LVL340:
	mov	DWORD PTR _prpl_info+8, eax
	.loc 1 751 0
	mov	DWORD PTR _my_protocol, ebx
LBE13:
LBE12:
	.loc 1 754 0
	mov	eax, DWORD PTR [esp+44]
	xor	eax, DWORD PTR ___stack_chk_guard
	jne	L274
	mov	DWORD PTR [esp+64], ebx
	add	esp, 48
LCFI164:
	.cfi_remember_state
	.cfi_def_cfa_offset 16
	pop	ebx
LCFI165:
	.cfi_restore 3
	.cfi_def_cfa_offset 12
LVL341:
	pop	esi
LCFI166:
	.cfi_restore 6
	.cfi_def_cfa_offset 8
	pop	edi
LCFI167:
	.cfi_restore 7
	.cfi_def_cfa_offset 4
	jmp	_purple_plugin_register
LVL342:
	.p2align 2,,3
L268:
LCFI168:
	.cfi_restore_state
LBB19:
LBB18:
LBB17:
LBB16:
	.loc 1 718 0
	mov	DWORD PTR [esp], esi
	call	_g_strdup
LVL343:
	mov	DWORD PTR _default_firstname, eax
	.loc 1 719 0
	mov	DWORD PTR [esp], OFFSET FLAT:LC4
	call	_g_strdup
LVL344:
	mov	DWORD PTR _default_lastname, eax
	jmp	L270
LVL345:
	.p2align 2,,3
L269:
	.loc 1 716 0
	mov	DWORD PTR [esp], edi
	call	_g_strdup
LVL346:
	mov	DWORD PTR _default_lastname, eax
	jmp	L270
LVL347:
L274:
LBE16:
LBE17:
LBE18:
LBE19:
	.loc 1 754 0
	call	___stack_chk_fail
LVL348:
	.cfi_endproc
LFE116:
	.section .rdata,"dr"
LC34:
	.ascii "prpl-bonjour\0"
LC35:
	.ascii "2.10.11\0"
LC36:
	.ascii "Bonjour Protocol Plugin\0"
LC37:
	.ascii "http://pidgin.im/\0"
	.data
	.align 32
_info:
	.long	5
	.long	2
	.long	10
	.long	2
	.long	0
	.long	0
	.long	0
	.long	0
	.long	LC34
	.long	LC1
	.long	LC35
	.long	LC36
	.long	LC36
	.long	0
	.long	LC37
	.long	0
	.long	_plugin_unload
	.long	0
	.long	0
	.long	_prpl_info
	.long	0
	.long	0
	.long	0
	.long	0
	.long	0
	.long	0
	.section .rdata,"dr"
LC38:
	.ascii "png,gif,jpeg\0"
	.data
	.align 32
_prpl_info:
	.long	16
	.long	0
	.long	0
	.long	LC38
	.long	0
	.long	0
	.long	96
	.long	96
	.long	65535
	.long	1
	.long	_bonjour_list_icon
	.long	0
	.long	_bonjour_status_text
	.long	_bonjour_tooltip_text
	.long	_bonjour_status_types
	.long	0
	.long	0
	.long	0
	.long	_bonjour_login
	.long	_bonjour_close
	.long	_bonjour_send_im
	.long	0
	.long	0
	.long	0
	.long	_bonjour_set_status
	.long	0
	.long	0
	.long	_bonjour_fake_add_buddy
	.long	0
	.long	_bonjour_remove_buddy
	.long	0
	.long	0
	.long	0
	.long	0
	.long	0
	.long	0
	.long	0
	.long	0
	.long	0
	.long	0
	.long	0
	.long	0
	.long	0
	.long	0
	.long	0
	.long	0
	.long	0
	.long	0
	.long	_bonjour_group_buddy
	.long	_bonjour_rename_group
	.long	0
	.long	_bonjour_convo_closed
	.long	0
	.long	_bonjour_set_buddy_icon
	.long	0
	.long	0
	.long	0
	.long	0
	.long	0
	.long	0
	.long	0
	.long	_bonjour_can_receive_file
	.long	_bonjour_send_file
	.long	_bonjour_new_xfer
	.long	0
	.long	0
	.long	0
	.long	0
	.long	0
	.long	0
	.long	0
	.long	320
	.long	0
	.long	0
	.long	0
	.long	0
	.long	0
	.long	0
	.long	0
	.long	0
.lcomm _default_firstname,4,4
.lcomm _default_lastname,4,4
.lcomm _my_protocol,4,4
	.section .rdata,"dr"
___PRETTY_FUNCTION__.51290:
	.ascii "bonjour_status_types\0"
	.text
Letext0:
	.file 2 "c:/workspace/pidgin-devel/win32-dev/mingw-4.7.2/bin/../lib/gcc/mingw32/4.7.2/include/stddef.h"
	.file 3 "../../../../win32-dev/gtk_2_0-2.14/lib/glib-2.0/include/glibconfig.h"
	.file 4 "../../../../win32-dev/gtk_2_0-2.14/include/glib-2.0/glib/gtypes.h"
	.file 5 "../../../../win32-dev/gtk_2_0-2.14/include/glib-2.0/glib/gquark.h"
	.file 6 "../../../../win32-dev/gtk_2_0-2.14/include/glib-2.0/glib/gerror.h"
	.file 7 "../../../../win32-dev/gtk_2_0-2.14/include/glib-2.0/glib/gthread.h"
	.file 8 "c:/workspace/pidgin-devel/win32-dev/mingw-4.7.2/bin/../lib/gcc/mingw32/4.7.2/../../../../include/time.h"
	.file 9 "../../../../win32-dev/gtk_2_0-2.14/include/glib-2.0/glib/glist.h"
	.file 10 "../../../../win32-dev/gtk_2_0-2.14/include/glib-2.0/glib/ghash.h"
	.file 11 "../../../../win32-dev/gtk_2_0-2.14/include/glib-2.0/glib/gslist.h"
	.file 12 "../../../../win32-dev/gtk_2_0-2.14/include/glib-2.0/glib/gmain.h"
	.file 13 "../../../../win32-dev/gtk_2_0-2.14/include/glib-2.0/glib/gunicode.h"
	.file 14 "c:/workspace/pidgin-devel/win32-dev/mingw-4.7.2/bin/../lib/gcc/mingw32/4.7.2/../../../../include/windef.h"
	.file 15 "c:/workspace/pidgin-devel/win32-dev/mingw-4.7.2/bin/../lib/gcc/mingw32/4.7.2/../../../../include/winnt.h"
	.file 16 "c:/workspace/pidgin-devel/win32-dev/mingw-4.7.2/bin/../lib/gcc/mingw32/4.7.2/../../../../include/lmaccess.h"
	.file 17 "c:/workspace/pidgin-devel/win32-dev/mingw-4.7.2/bin/../lib/gcc/mingw32/4.7.2/../../../../include/stdio.h"
	.file 18 "../../../libpurple/account.h"
	.file 19 "../../../libpurple/connection.h"
	.file 20 "../../../libpurple/value.h"
	.file 21 "../../../libpurple/plugin.h"
	.file 22 "../../../libpurple/pluginpref.h"
	.file 23 "../../../libpurple/prefs.h"
	.file 24 "../../../libpurple/status.h"
	.file 25 "../../../libpurple/blist.h"
	.file 26 "../../../libpurple/buddyicon.h"
	.file 27 "../../../libpurple/imgstore.h"
	.file 28 "../../../libpurple/prpl.h"
	.file 29 "../../../libpurple/conversation.h"
	.file 30 "../../../libpurple/log.h"
	.file 31 "../../../libpurple/ft.h"
	.file 32 "../../../libpurple/media/enum-types.h"
	.file 33 "../../../libpurple/media/../xmlnode.h"
	.file 34 "../../../libpurple/media/../notify.h"
	.file 35 "../../../libpurple/proxy.h"
	.file 36 "../../../libpurple/roomlist.h"
	.file 37 "../../../libpurple/whiteboard.h"
	.file 38 "../../../libpurple/privacy.h"
	.file 39 "../../../libpurple/accountopt.h"
	.file 40 "mdns_types.h"
	.file 41 "../../../../win32-dev/libxml2-2.9.0/include/libxml2/libxml/xmlstring.h"
	.file 42 "../../../../win32-dev/libxml2-2.9.0/include/libxml2/libxml/tree.h"
	.file 43 "../../../../win32-dev/libxml2-2.9.0/include/libxml2/libxml/xmlIO.h"
	.file 44 "../../../../win32-dev/libxml2-2.9.0/include/libxml2/libxml/parser.h"
	.file 45 "../../../../win32-dev/libxml2-2.9.0/include/libxml2/libxml/entities.h"
	.file 46 "../../../../win32-dev/libxml2-2.9.0/include/libxml2/libxml/dict.h"
	.file 47 "../../../../win32-dev/libxml2-2.9.0/include/libxml2/libxml/hash.h"
	.file 48 "../../../../win32-dev/libxml2-2.9.0/include/libxml2/libxml/xmlerror.h"
	.file 49 "../../../../win32-dev/libxml2-2.9.0/include/libxml2/libxml/xmlautomata.h"
	.file 50 "../../../../win32-dev/libxml2-2.9.0/include/libxml2/libxml/valid.h"
	.file 51 "../../../../win32-dev/libxml2-2.9.0/include/libxml2/libxml/encoding.h"
	.file 52 "../../../libpurple/circbuffer.h"
	.file 53 "jabber.h"
	.file 54 "buddy.h"
	.file 55 "bonjour.h"
	.file 56 "c:/workspace/pidgin-devel/win32-dev/mingw-4.7.2/bin/../lib/gcc/mingw32/4.7.2/../../../../include/ctype.h"
	.file 57 "mdns_common.h"
	.file 58 "../../../../win32-dev/gtk_2_0-2.14/include/libintl.h"
	.file 59 "../../../libpurple/media/../util.h"
	.file 60 "../../../libpurple/debug.h"
	.file 61 "../../../../win32-dev/gtk_2_0-2.14/include/glib-2.0/glib/gmem.h"
	.file 62 "dns_sd_proxy.h"
	.file 63 "../../../../win32-dev/gtk_2_0-2.14/include/glib-2.0/glib/gstrfuncs.h"
	.file 64 "../../../../win32-dev/gtk_2_0-2.14/include/glib-2.0/glib/gmessages.h"
	.file 65 "../../../../win32-dev/gtk_2_0-2.14/include/glib-2.0/glib/gmarkup.h"
	.file 66 "c:/workspace/pidgin-devel/win32-dev/mingw-4.7.2/bin/../lib/gcc/mingw32/4.7.2/../../../../include/lmapibuf.h"
	.file 67 "c:/workspace/pidgin-devel/win32-dev/mingw-4.7.2/bin/../lib/gcc/mingw32/4.7.2/../../../../include/winbase.h"
	.file 68 "../../../libpurple/eventloop.h"
	.file 69 "c:/workspace/pidgin-devel/win32-dev/mingw-4.7.2/bin/../lib/gcc/mingw32/4.7.2/../../../../include/string.h"
	.section .drectve
	.ascii " -export:\"purple_init_plugin\""
