	.file	"bstream.c"
	.intel_syntax noprefix
	.text
Ltext0:
	.p2align 2,,3
	.globl	_byte_stream_new
	.def	_byte_stream_new;	.scl	2;	.type	32;	.endef
_byte_stream_new:
LFB93:
	.file 1 "bstream.c"
	.loc 1 28 0
	.cfi_startproc
LVL0:
	push	esi
LCFI0:
	.cfi_def_cfa_offset 8
	.cfi_offset 6, -8
	push	ebx
LCFI1:
	.cfi_def_cfa_offset 12
	.cfi_offset 3, -12
	sub	esp, 36
LCFI2:
	.cfi_def_cfa_offset 48
	mov	ebx, DWORD PTR [esp+48]
	mov	esi, DWORD PTR [esp+52]
	.loc 1 28 0
	mov	eax, DWORD PTR ___stack_chk_guard
	mov	DWORD PTR [esp+28], eax
	xor	eax, eax
	.loc 1 29 0
	test	ebx, ebx
	je	L4
	.loc 1 32 0
	mov	DWORD PTR [esp], esi
	call	_g_malloc
LVL1:
LBB70:
LBB71:
	.loc 1 40 0
	mov	DWORD PTR [ebx], eax
	.loc 1 41 0
	mov	DWORD PTR [ebx+4], esi
	.loc 1 42 0
	mov	DWORD PTR [ebx+8], 0
	.loc 1 44 0
	xor	eax, eax
LVL2:
L2:
LBE71:
LBE70:
	.loc 1 33 0
	mov	edx, DWORD PTR [esp+28]
	xor	edx, DWORD PTR ___stack_chk_guard
	jne	L7
	add	esp, 36
LCFI3:
	.cfi_remember_state
	.cfi_def_cfa_offset 12
	pop	ebx
LCFI4:
	.cfi_restore 3
	.cfi_def_cfa_offset 8
	pop	esi
LCFI5:
	.cfi_restore 6
	.cfi_def_cfa_offset 4
	ret
L4:
LCFI6:
	.cfi_restore_state
	.loc 1 30 0
	mov	eax, -1
	jmp	L2
L7:
	.loc 1 33 0
	call	___stack_chk_fail
LVL3:
	.cfi_endproc
LFE93:
	.p2align 2,,3
	.globl	_byte_stream_init
	.def	_byte_stream_init;	.scl	2;	.type	32;	.endef
_byte_stream_init:
LFB94:
	.loc 1 36 0
	.cfi_startproc
LVL4:
	push	ebx
LCFI7:
	.cfi_def_cfa_offset 8
	.cfi_offset 3, -8
	sub	esp, 24
LCFI8:
	.cfi_def_cfa_offset 32
	mov	eax, DWORD PTR [esp+32]
	mov	ecx, DWORD PTR [esp+36]
	mov	edx, DWORD PTR [esp+40]
	.loc 1 36 0
	mov	ebx, DWORD PTR ___stack_chk_guard
	mov	DWORD PTR [esp+12], ebx
	xor	ebx, ebx
	.loc 1 37 0
	test	eax, eax
	je	L11
	.loc 1 40 0
	mov	DWORD PTR [eax], ecx
	.loc 1 41 0
	mov	DWORD PTR [eax+4], edx
	.loc 1 42 0
	mov	DWORD PTR [eax+8], 0
	.loc 1 44 0
	xor	eax, eax
L9:
	.loc 1 45 0
	mov	edx, DWORD PTR [esp+12]
	xor	edx, DWORD PTR ___stack_chk_guard
	jne	L13
	add	esp, 24
LCFI9:
	.cfi_remember_state
	.cfi_def_cfa_offset 8
	pop	ebx
LCFI10:
	.cfi_restore 3
	.cfi_def_cfa_offset 4
	ret
L11:
LCFI11:
	.cfi_restore_state
	.loc 1 38 0
	mov	eax, -1
	jmp	L9
L13:
	.loc 1 45 0
	call	___stack_chk_fail
LVL5:
	.cfi_endproc
LFE94:
	.p2align 2,,3
	.globl	_byte_stream_destroy
	.def	_byte_stream_destroy;	.scl	2;	.type	32;	.endef
_byte_stream_destroy:
LFB95:
	.loc 1 48 0
	.cfi_startproc
LVL6:
	sub	esp, 28
LCFI12:
	.cfi_def_cfa_offset 32
	mov	eax, DWORD PTR [esp+32]
	.loc 1 48 0
	mov	edx, DWORD PTR ___stack_chk_guard
	mov	DWORD PTR [esp+12], edx
	xor	edx, edx
	.loc 1 49 0
	mov	edx, DWORD PTR [esp+12]
	xor	edx, DWORD PTR ___stack_chk_guard
	jne	L18
	mov	eax, DWORD PTR [eax]
	mov	DWORD PTR [esp+32], eax
	.loc 1 50 0
	add	esp, 28
LCFI13:
	.cfi_remember_state
	.cfi_def_cfa_offset 4
	.loc 1 49 0
	jmp	_g_free
LVL7:
L18:
LCFI14:
	.cfi_restore_state
	call	___stack_chk_fail
LVL8:
	.cfi_endproc
LFE95:
	.p2align 2,,3
	.globl	_byte_stream_bytes_left
	.def	_byte_stream_bytes_left;	.scl	2;	.type	32;	.endef
_byte_stream_bytes_left:
LFB96:
	.loc 1 53 0
	.cfi_startproc
LVL9:
	sub	esp, 28
LCFI15:
	.cfi_def_cfa_offset 32
	mov	edx, DWORD PTR [esp+32]
	.loc 1 53 0
	mov	eax, DWORD PTR ___stack_chk_guard
	mov	DWORD PTR [esp+12], eax
	xor	eax, eax
	.loc 1 54 0
	mov	eax, DWORD PTR [edx+4]
	sub	eax, DWORD PTR [edx+8]
	.loc 1 55 0
	mov	edx, DWORD PTR [esp+12]
	xor	edx, DWORD PTR ___stack_chk_guard
	jne	L22
	add	esp, 28
LCFI16:
	.cfi_remember_state
	.cfi_def_cfa_offset 4
	ret
L22:
LCFI17:
	.cfi_restore_state
	call	___stack_chk_fail
LVL10:
	.cfi_endproc
LFE96:
	.p2align 2,,3
	.globl	_byte_stream_curpos
	.def	_byte_stream_curpos;	.scl	2;	.type	32;	.endef
_byte_stream_curpos:
LFB97:
	.loc 1 58 0
	.cfi_startproc
LVL11:
	sub	esp, 28
LCFI18:
	.cfi_def_cfa_offset 32
	.loc 1 58 0
	mov	eax, DWORD PTR ___stack_chk_guard
	mov	DWORD PTR [esp+12], eax
	xor	eax, eax
	.loc 1 59 0
	mov	eax, DWORD PTR [esp+32]
	mov	eax, DWORD PTR [eax+8]
	.loc 1 60 0
	mov	edx, DWORD PTR [esp+12]
	xor	edx, DWORD PTR ___stack_chk_guard
	jne	L26
	add	esp, 28
LCFI19:
	.cfi_remember_state
	.cfi_def_cfa_offset 4
	ret
L26:
LCFI20:
	.cfi_restore_state
	call	___stack_chk_fail
LVL12:
	.cfi_endproc
LFE97:
	.section .rdata,"dr"
LC0:
	.ascii "off <= bs->len\0"
	.text
	.p2align 2,,3
	.globl	_byte_stream_setpos
	.def	_byte_stream_setpos;	.scl	2;	.type	32;	.endef
_byte_stream_setpos:
LFB98:
	.loc 1 63 0
	.cfi_startproc
LVL13:
	sub	esp, 44
LCFI21:
	.cfi_def_cfa_offset 48
	mov	edx, DWORD PTR [esp+48]
	mov	eax, DWORD PTR [esp+52]
	.loc 1 63 0
	mov	ecx, DWORD PTR ___stack_chk_guard
	mov	DWORD PTR [esp+28], ecx
	xor	ecx, ecx
LBB72:
	.loc 1 64 0
	cmp	DWORD PTR [edx+4], eax
	jb	L35
LVL14:
LBE72:
	.loc 1 66 0
	mov	DWORD PTR [edx+8], eax
LVL15:
L30:
	.loc 1 68 0
	mov	edx, DWORD PTR [esp+28]
	xor	edx, DWORD PTR ___stack_chk_guard
	jne	L36
	add	esp, 44
LCFI22:
	.cfi_remember_state
	.cfi_def_cfa_offset 4
	ret
	.p2align 2,,3
L35:
LCFI23:
	.cfi_restore_state
LVL16:
	.loc 1 64 0
	mov	DWORD PTR [esp+8], OFFSET FLAT:LC0
	mov	DWORD PTR [esp+4], OFFSET FLAT:___PRETTY_FUNCTION__.44930
	mov	DWORD PTR [esp], 0
	call	_g_return_if_fail_warning
LVL17:
	mov	eax, -1
	jmp	L30
LVL18:
L36:
	.loc 1 68 0
	call	___stack_chk_fail
LVL19:
	.cfi_endproc
LFE98:
	.p2align 2,,3
	.globl	_byte_stream_rewind
	.def	_byte_stream_rewind;	.scl	2;	.type	32;	.endef
_byte_stream_rewind:
LFB99:
	.loc 1 71 0
	.cfi_startproc
LVL20:
	sub	esp, 44
LCFI24:
	.cfi_def_cfa_offset 48
	.loc 1 71 0
	mov	eax, DWORD PTR ___stack_chk_guard
	mov	DWORD PTR [esp+28], eax
	xor	eax, eax
	.loc 1 72 0
	mov	DWORD PTR [esp+4], 0
	mov	eax, DWORD PTR [esp+48]
	mov	DWORD PTR [esp], eax
	call	_byte_stream_setpos
LVL21:
	.loc 1 73 0
	mov	eax, DWORD PTR [esp+28]
	xor	eax, DWORD PTR ___stack_chk_guard
	jne	L40
	add	esp, 44
LCFI25:
	.cfi_remember_state
	.cfi_def_cfa_offset 4
	ret
L40:
LCFI26:
	.cfi_restore_state
	call	___stack_chk_fail
LVL22:
	.cfi_endproc
LFE99:
	.section .rdata,"dr"
	.align 4
LC1:
	.ascii "byte_stream_curpos(bs) + n >= 0\0"
	.align 4
LC2:
	.ascii "(gsize)n <= byte_stream_bytes_left(bs)\0"
	.text
	.p2align 2,,3
	.globl	_byte_stream_advance
	.def	_byte_stream_advance;	.scl	2;	.type	32;	.endef
_byte_stream_advance:
LFB100:
	.loc 1 80 0
	.cfi_startproc
LVL23:
	push	esi
LCFI27:
	.cfi_def_cfa_offset 8
	.cfi_offset 6, -8
	push	ebx
LCFI28:
	.cfi_def_cfa_offset 12
	.cfi_offset 3, -12
	sub	esp, 36
LCFI29:
	.cfi_def_cfa_offset 48
	mov	ecx, DWORD PTR [esp+48]
	mov	eax, DWORD PTR [esp+52]
	.loc 1 80 0
	mov	edx, DWORD PTR ___stack_chk_guard
	mov	DWORD PTR [esp+28], edx
	xor	edx, edx
LVL24:
LBB73:
LBB74:
LBB75:
	.loc 1 59 0
	mov	edx, DWORD PTR [ecx+8]
LBE75:
LBE74:
	.loc 1 81 0
	mov	esi, eax
	add	esi, edx
	js	L50
LVL25:
LBE73:
LBB76:
LBB77:
LBB78:
	.loc 1 54 0
	mov	ebx, DWORD PTR [ecx+4]
	sub	ebx, edx
LBE78:
LBE77:
	.loc 1 82 0
	cmp	eax, ebx
	jbe	L45
LVL26:
LBE76:
	mov	DWORD PTR [esp+8], OFFSET FLAT:LC2
	mov	DWORD PTR [esp+4], OFFSET FLAT:___PRETTY_FUNCTION__.44940
	mov	DWORD PTR [esp], 0
	call	_g_return_if_fail_warning
LVL27:
	xor	eax, eax
LVL28:
L44:
	.loc 1 86 0
	mov	edx, DWORD PTR [esp+28]
	xor	edx, DWORD PTR ___stack_chk_guard
	jne	L51
	add	esp, 36
LCFI30:
	.cfi_remember_state
	.cfi_def_cfa_offset 12
	pop	ebx
LCFI31:
	.cfi_restore 3
	.cfi_def_cfa_offset 8
	pop	esi
LCFI32:
	.cfi_restore 6
	.cfi_def_cfa_offset 4
	ret
LVL29:
	.p2align 2,,3
L45:
LCFI33:
	.cfi_restore_state
	.loc 1 84 0
	mov	DWORD PTR [ecx+8], esi
	.loc 1 85 0
	jmp	L44
LVL30:
	.p2align 2,,3
L50:
	.loc 1 81 0
	mov	DWORD PTR [esp+8], OFFSET FLAT:LC1
	mov	DWORD PTR [esp+4], OFFSET FLAT:___PRETTY_FUNCTION__.44940
	mov	DWORD PTR [esp], 0
	call	_g_return_if_fail_warning
LVL31:
	xor	eax, eax
	jmp	L44
LVL32:
L51:
	.loc 1 86 0
	call	___stack_chk_fail
LVL33:
	.cfi_endproc
LFE100:
	.section .rdata,"dr"
	.align 4
LC3:
	.ascii "byte_stream_bytes_left(bs) >= 1\0"
	.text
	.p2align 2,,3
	.globl	_byte_stream_get8
	.def	_byte_stream_get8;	.scl	2;	.type	32;	.endef
_byte_stream_get8:
LFB101:
	.loc 1 89 0
	.cfi_startproc
LVL34:
	sub	esp, 44
LCFI34:
	.cfi_def_cfa_offset 48
	mov	eax, DWORD PTR [esp+48]
	.loc 1 89 0
	mov	edx, DWORD PTR ___stack_chk_guard
	mov	DWORD PTR [esp+28], edx
	xor	edx, edx
LVL35:
LBB79:
LBB80:
LBB81:
	.loc 1 54 0
	mov	edx, DWORD PTR [eax+8]
LBE81:
LBE80:
	.loc 1 90 0
	cmp	DWORD PTR [eax+4], edx
	je	L60
LVL36:
LBE79:
	.loc 1 92 0
	lea	ecx, [edx+1]
	mov	DWORD PTR [eax+8], ecx
	.loc 1 93 0
	mov	eax, DWORD PTR [eax]
LVL37:
	mov	al, BYTE PTR [eax+edx]
LVL38:
L55:
	.loc 1 94 0
	mov	edx, DWORD PTR [esp+28]
	xor	edx, DWORD PTR ___stack_chk_guard
	jne	L61
	add	esp, 44
LCFI35:
	.cfi_remember_state
	.cfi_def_cfa_offset 4
	ret
LVL39:
	.p2align 2,,3
L60:
LCFI36:
	.cfi_restore_state
	.loc 1 90 0
	mov	DWORD PTR [esp+8], OFFSET FLAT:LC3
	mov	DWORD PTR [esp+4], OFFSET FLAT:___PRETTY_FUNCTION__.44948
	mov	DWORD PTR [esp], 0
	call	_g_return_if_fail_warning
LVL40:
	xor	eax, eax
	jmp	L55
LVL41:
L61:
	.loc 1 94 0
	call	___stack_chk_fail
LVL42:
	.cfi_endproc
LFE101:
	.section .rdata,"dr"
	.align 4
LC4:
	.ascii "byte_stream_bytes_left(bs) >= 2\0"
	.text
	.p2align 2,,3
	.globl	_byte_stream_get16
	.def	_byte_stream_get16;	.scl	2;	.type	32;	.endef
_byte_stream_get16:
LFB102:
	.loc 1 97 0
	.cfi_startproc
LVL43:
	sub	esp, 44
LCFI37:
	.cfi_def_cfa_offset 48
	mov	eax, DWORD PTR [esp+48]
	.loc 1 97 0
	mov	edx, DWORD PTR ___stack_chk_guard
	mov	DWORD PTR [esp+28], edx
	xor	edx, edx
LVL44:
LBB82:
LBB83:
LBB84:
	.loc 1 54 0
	mov	edx, DWORD PTR [eax+8]
	mov	ecx, DWORD PTR [eax+4]
	sub	ecx, edx
LBE84:
LBE83:
	.loc 1 98 0
	cmp	ecx, 1
	jbe	L70
LVL45:
LBE82:
	.loc 1 100 0
	lea	ecx, [edx+2]
	mov	DWORD PTR [eax+8], ecx
	.loc 1 101 0
	mov	ecx, DWORD PTR [eax]
	movzx	eax, BYTE PTR [ecx+edx]
LVL46:
	sal	eax, 8
	movzx	edx, BYTE PTR [ecx+1+edx]
	add	eax, edx
LVL47:
L65:
	.loc 1 102 0
	mov	edx, DWORD PTR [esp+28]
	xor	edx, DWORD PTR ___stack_chk_guard
	jne	L71
	add	esp, 44
LCFI38:
	.cfi_remember_state
	.cfi_def_cfa_offset 4
	ret
LVL48:
	.p2align 2,,3
L70:
LCFI39:
	.cfi_restore_state
	.loc 1 98 0
	mov	DWORD PTR [esp+8], OFFSET FLAT:LC4
	mov	DWORD PTR [esp+4], OFFSET FLAT:___PRETTY_FUNCTION__.44954
	mov	DWORD PTR [esp], 0
	call	_g_return_if_fail_warning
LVL49:
	xor	eax, eax
	jmp	L65
LVL50:
L71:
	.loc 1 102 0
	call	___stack_chk_fail
LVL51:
	.cfi_endproc
LFE102:
	.section .rdata,"dr"
	.align 4
LC5:
	.ascii "byte_stream_bytes_left(bs) >= 4\0"
	.text
	.p2align 2,,3
	.globl	_byte_stream_get32
	.def	_byte_stream_get32;	.scl	2;	.type	32;	.endef
_byte_stream_get32:
LFB103:
	.loc 1 105 0
	.cfi_startproc
LVL52:
	push	ebx
LCFI40:
	.cfi_def_cfa_offset 8
	.cfi_offset 3, -8
	sub	esp, 40
LCFI41:
	.cfi_def_cfa_offset 48
	mov	eax, DWORD PTR [esp+48]
	.loc 1 105 0
	mov	edx, DWORD PTR ___stack_chk_guard
	mov	DWORD PTR [esp+28], edx
	xor	edx, edx
LVL53:
LBB85:
LBB86:
LBB87:
	.loc 1 54 0
	mov	edx, DWORD PTR [eax+8]
	mov	ecx, DWORD PTR [eax+4]
	sub	ecx, edx
LBE87:
LBE86:
	.loc 1 106 0
	cmp	ecx, 3
	jbe	L80
LVL54:
LBE85:
	.loc 1 108 0
	lea	ecx, [edx+4]
	mov	DWORD PTR [eax+8], ecx
	.loc 1 109 0
	mov	ecx, DWORD PTR [eax]
	movzx	eax, BYTE PTR [ecx+edx]
LVL55:
	sal	eax, 24
	movzx	ebx, BYTE PTR [ecx+3+edx]
	add	ebx, eax
	movzx	eax, BYTE PTR [ecx+1+edx]
	sal	eax, 16
	add	eax, ebx
	movzx	edx, BYTE PTR [ecx+2+edx]
	sal	edx, 8
	add	eax, edx
LVL56:
L75:
	.loc 1 110 0
	mov	edx, DWORD PTR [esp+28]
	xor	edx, DWORD PTR ___stack_chk_guard
	jne	L81
	add	esp, 40
LCFI42:
	.cfi_remember_state
	.cfi_def_cfa_offset 8
	pop	ebx
LCFI43:
	.cfi_restore 3
	.cfi_def_cfa_offset 4
	ret
LVL57:
	.p2align 2,,3
L80:
LCFI44:
	.cfi_restore_state
	.loc 1 106 0
	mov	DWORD PTR [esp+8], OFFSET FLAT:LC5
	mov	DWORD PTR [esp+4], OFFSET FLAT:___PRETTY_FUNCTION__.44960
	mov	DWORD PTR [esp], 0
	call	_g_return_if_fail_warning
LVL58:
	xor	eax, eax
	jmp	L75
LVL59:
L81:
	.loc 1 110 0
	call	___stack_chk_fail
LVL60:
	.cfi_endproc
LFE103:
	.p2align 2,,3
	.globl	_byte_stream_getle8
	.def	_byte_stream_getle8;	.scl	2;	.type	32;	.endef
_byte_stream_getle8:
LFB104:
	.loc 1 113 0
	.cfi_startproc
LVL61:
	sub	esp, 44
LCFI45:
	.cfi_def_cfa_offset 48
	mov	eax, DWORD PTR [esp+48]
	.loc 1 113 0
	mov	edx, DWORD PTR ___stack_chk_guard
	mov	DWORD PTR [esp+28], edx
	xor	edx, edx
LVL62:
LBB88:
LBB89:
LBB90:
	.loc 1 54 0
	mov	edx, DWORD PTR [eax+8]
LBE90:
LBE89:
	.loc 1 114 0
	cmp	DWORD PTR [eax+4], edx
	je	L90
LVL63:
LBE88:
	.loc 1 116 0
	lea	ecx, [edx+1]
	mov	DWORD PTR [eax+8], ecx
	.loc 1 117 0
	mov	eax, DWORD PTR [eax]
LVL64:
	mov	al, BYTE PTR [eax+edx]
LVL65:
L85:
	.loc 1 118 0
	mov	edx, DWORD PTR [esp+28]
	xor	edx, DWORD PTR ___stack_chk_guard
	jne	L91
	add	esp, 44
LCFI46:
	.cfi_remember_state
	.cfi_def_cfa_offset 4
	ret
LVL66:
	.p2align 2,,3
L90:
LCFI47:
	.cfi_restore_state
	.loc 1 114 0
	mov	DWORD PTR [esp+8], OFFSET FLAT:LC3
	mov	DWORD PTR [esp+4], OFFSET FLAT:___PRETTY_FUNCTION__.44966
	mov	DWORD PTR [esp], 0
	call	_g_return_if_fail_warning
LVL67:
	xor	eax, eax
	jmp	L85
LVL68:
L91:
	.loc 1 118 0
	call	___stack_chk_fail
LVL69:
	.cfi_endproc
LFE104:
	.p2align 2,,3
	.globl	_byte_stream_getle16
	.def	_byte_stream_getle16;	.scl	2;	.type	32;	.endef
_byte_stream_getle16:
LFB105:
	.loc 1 121 0
	.cfi_startproc
LVL70:
	sub	esp, 44
LCFI48:
	.cfi_def_cfa_offset 48
	mov	eax, DWORD PTR [esp+48]
	.loc 1 121 0
	mov	edx, DWORD PTR ___stack_chk_guard
	mov	DWORD PTR [esp+28], edx
	xor	edx, edx
LVL71:
LBB91:
LBB92:
LBB93:
	.loc 1 54 0
	mov	edx, DWORD PTR [eax+8]
	mov	ecx, DWORD PTR [eax+4]
	sub	ecx, edx
LBE93:
LBE92:
	.loc 1 122 0
	cmp	ecx, 1
	jbe	L100
LVL72:
LBE91:
	.loc 1 124 0
	lea	ecx, [edx+2]
	mov	DWORD PTR [eax+8], ecx
	.loc 1 125 0
	mov	ecx, DWORD PTR [eax]
	movzx	eax, BYTE PTR [ecx+1+edx]
LVL73:
	sal	eax, 8
	movzx	edx, BYTE PTR [ecx+edx]
	add	eax, edx
LVL74:
L95:
	.loc 1 126 0
	mov	edx, DWORD PTR [esp+28]
	xor	edx, DWORD PTR ___stack_chk_guard
	jne	L101
	add	esp, 44
LCFI49:
	.cfi_remember_state
	.cfi_def_cfa_offset 4
	ret
LVL75:
	.p2align 2,,3
L100:
LCFI50:
	.cfi_restore_state
	.loc 1 122 0
	mov	DWORD PTR [esp+8], OFFSET FLAT:LC4
	mov	DWORD PTR [esp+4], OFFSET FLAT:___PRETTY_FUNCTION__.44972
	mov	DWORD PTR [esp], 0
	call	_g_return_if_fail_warning
LVL76:
	xor	eax, eax
	jmp	L95
LVL77:
L101:
	.loc 1 126 0
	call	___stack_chk_fail
LVL78:
	.cfi_endproc
LFE105:
	.p2align 2,,3
	.globl	_byte_stream_getle32
	.def	_byte_stream_getle32;	.scl	2;	.type	32;	.endef
_byte_stream_getle32:
LFB106:
	.loc 1 129 0
	.cfi_startproc
LVL79:
	push	esi
LCFI51:
	.cfi_def_cfa_offset 8
	.cfi_offset 6, -8
	push	ebx
LCFI52:
	.cfi_def_cfa_offset 12
	.cfi_offset 3, -12
	sub	esp, 36
LCFI53:
	.cfi_def_cfa_offset 48
	mov	eax, DWORD PTR [esp+48]
	.loc 1 129 0
	mov	edx, DWORD PTR ___stack_chk_guard
	mov	DWORD PTR [esp+28], edx
	xor	edx, edx
LVL80:
LBB94:
LBB95:
LBB96:
	.loc 1 54 0
	mov	edx, DWORD PTR [eax+8]
	mov	ecx, DWORD PTR [eax+4]
	sub	ecx, edx
LBE96:
LBE95:
	.loc 1 130 0
	cmp	ecx, 3
	jbe	L110
LVL81:
LBE94:
	.loc 1 132 0
	lea	ecx, [edx+4]
	mov	DWORD PTR [eax+8], ecx
	.loc 1 133 0
	mov	ecx, DWORD PTR [eax]
	movzx	ebx, BYTE PTR [ecx+1+edx]
	sal	ebx, 8
	movzx	eax, BYTE PTR [ecx+2+edx]
LVL82:
	sal	eax, 16
	add	eax, ebx
	movzx	esi, BYTE PTR [ecx+edx]
	add	eax, esi
	movzx	edx, BYTE PTR [ecx+3+edx]
	sal	edx, 24
	add	eax, edx
LVL83:
L105:
	.loc 1 134 0
	mov	edx, DWORD PTR [esp+28]
	xor	edx, DWORD PTR ___stack_chk_guard
	jne	L111
	add	esp, 36
LCFI54:
	.cfi_remember_state
	.cfi_def_cfa_offset 12
	pop	ebx
LCFI55:
	.cfi_restore 3
	.cfi_def_cfa_offset 8
	pop	esi
LCFI56:
	.cfi_restore 6
	.cfi_def_cfa_offset 4
	ret
LVL84:
	.p2align 2,,3
L110:
LCFI57:
	.cfi_restore_state
	.loc 1 130 0
	mov	DWORD PTR [esp+8], OFFSET FLAT:LC5
	mov	DWORD PTR [esp+4], OFFSET FLAT:___PRETTY_FUNCTION__.44978
	mov	DWORD PTR [esp], 0
	call	_g_return_if_fail_warning
LVL85:
	xor	eax, eax
	jmp	L105
LVL86:
L111:
	.loc 1 134 0
	call	___stack_chk_fail
LVL87:
	.cfi_endproc
LFE106:
	.section .rdata,"dr"
	.align 4
LC6:
	.ascii "byte_stream_bytes_left(bs) >= len\0"
	.text
	.p2align 2,,3
	.globl	_byte_stream_getrawbuf
	.def	_byte_stream_getrawbuf;	.scl	2;	.type	32;	.endef
_byte_stream_getrawbuf:
LFB108:
	.loc 1 143 0
	.cfi_startproc
LVL88:
	push	edi
LCFI58:
	.cfi_def_cfa_offset 8
	.cfi_offset 7, -8
	push	esi
LCFI59:
	.cfi_def_cfa_offset 12
	.cfi_offset 6, -12
	push	ebx
LCFI60:
	.cfi_def_cfa_offset 16
	.cfi_offset 3, -16
	sub	esp, 32
LCFI61:
	.cfi_def_cfa_offset 48
	mov	edx, DWORD PTR [esp+48]
	mov	ebx, DWORD PTR [esp+52]
	mov	eax, DWORD PTR [esp+56]
	.loc 1 143 0
	mov	ecx, DWORD PTR ___stack_chk_guard
	mov	DWORD PTR [esp+28], ecx
	xor	ecx, ecx
LVL89:
LBB102:
LBB103:
LBB104:
	.loc 1 54 0
	mov	esi, DWORD PTR [edx+8]
	mov	ecx, DWORD PTR [edx+4]
	sub	ecx, esi
LBE104:
LBE103:
	.loc 1 144 0
	cmp	eax, ecx
	ja	L120
LVL90:
LBE102:
LBB105:
LBB106:
	.loc 1 138 0
	add	esi, DWORD PTR [edx]
	mov	edi, ebx
	mov	ecx, eax
	rep movsb
	.loc 1 139 0
	add	DWORD PTR [edx+8], eax
LVL91:
L115:
LBE106:
LBE105:
	.loc 1 148 0
	mov	edx, DWORD PTR [esp+28]
	xor	edx, DWORD PTR ___stack_chk_guard
	jne	L121
	add	esp, 32
LCFI62:
	.cfi_remember_state
	.cfi_def_cfa_offset 16
	pop	ebx
LCFI63:
	.cfi_restore 3
	.cfi_def_cfa_offset 12
	pop	esi
LCFI64:
	.cfi_restore 6
	.cfi_def_cfa_offset 8
	pop	edi
LCFI65:
	.cfi_restore 7
	.cfi_def_cfa_offset 4
	ret
LVL92:
	.p2align 2,,3
L120:
LCFI66:
	.cfi_restore_state
	.loc 1 144 0
	mov	DWORD PTR [esp+8], OFFSET FLAT:LC6
	mov	DWORD PTR [esp+4], OFFSET FLAT:___PRETTY_FUNCTION__.44991
	mov	DWORD PTR [esp], 0
	call	_g_return_if_fail_warning
LVL93:
	xor	eax, eax
	jmp	L115
LVL94:
L121:
	.loc 1 148 0
	call	___stack_chk_fail
LVL95:
	.cfi_endproc
LFE108:
	.p2align 2,,3
	.globl	_byte_stream_getraw
	.def	_byte_stream_getraw;	.scl	2;	.type	32;	.endef
_byte_stream_getraw:
LFB109:
	.loc 1 151 0
	.cfi_startproc
LVL96:
	push	ebp
LCFI67:
	.cfi_def_cfa_offset 8
	.cfi_offset 5, -8
	push	edi
LCFI68:
	.cfi_def_cfa_offset 12
	.cfi_offset 7, -12
	push	esi
LCFI69:
	.cfi_def_cfa_offset 16
	.cfi_offset 6, -16
	push	ebx
LCFI70:
	.cfi_def_cfa_offset 20
	.cfi_offset 3, -20
	sub	esp, 44
LCFI71:
	.cfi_def_cfa_offset 64
	mov	ebx, DWORD PTR [esp+64]
	mov	ebp, DWORD PTR [esp+68]
	.loc 1 151 0
	mov	eax, DWORD PTR ___stack_chk_guard
	mov	DWORD PTR [esp+28], eax
	xor	eax, eax
LVL97:
LBB112:
LBB113:
LBB114:
	.loc 1 54 0
	mov	eax, DWORD PTR [ebx+4]
	sub	eax, DWORD PTR [ebx+8]
LBE114:
LBE113:
	.loc 1 154 0
	cmp	ebp, eax
	ja	L130
LVL98:
LBE112:
	.loc 1 156 0
	mov	DWORD PTR [esp], ebp
	call	_g_malloc
LVL99:
LBB115:
LBB116:
	.loc 1 138 0
	mov	esi, DWORD PTR [ebx]
	add	esi, DWORD PTR [ebx+8]
	mov	edi, eax
	mov	ecx, ebp
	rep movsb
	.loc 1 139 0
	add	DWORD PTR [ebx+8], ebp
LVL100:
L125:
LBE116:
LBE115:
	.loc 1 159 0
	mov	edx, DWORD PTR [esp+28]
	xor	edx, DWORD PTR ___stack_chk_guard
	jne	L131
	add	esp, 44
LCFI72:
	.cfi_remember_state
	.cfi_def_cfa_offset 20
	pop	ebx
LCFI73:
	.cfi_restore 3
	.cfi_def_cfa_offset 16
LVL101:
	pop	esi
LCFI74:
	.cfi_restore 6
	.cfi_def_cfa_offset 12
	pop	edi
LCFI75:
	.cfi_restore 7
	.cfi_def_cfa_offset 8
	pop	ebp
LCFI76:
	.cfi_restore 5
	.cfi_def_cfa_offset 4
	ret
LVL102:
	.p2align 2,,3
L130:
LCFI77:
	.cfi_restore_state
	.loc 1 154 0
	mov	DWORD PTR [esp+8], OFFSET FLAT:LC6
	mov	DWORD PTR [esp+4], OFFSET FLAT:___PRETTY_FUNCTION__.44999
	mov	DWORD PTR [esp], 0
	call	_g_return_if_fail_warning
LVL103:
	xor	eax, eax
	jmp	L125
LVL104:
L131:
	.loc 1 159 0
	call	___stack_chk_fail
LVL105:
	.cfi_endproc
LFE109:
	.p2align 2,,3
	.globl	_byte_stream_getstr
	.def	_byte_stream_getstr;	.scl	2;	.type	32;	.endef
_byte_stream_getstr:
LFB110:
	.loc 1 162 0
	.cfi_startproc
LVL106:
	push	ebp
LCFI78:
	.cfi_def_cfa_offset 8
	.cfi_offset 5, -8
	push	edi
LCFI79:
	.cfi_def_cfa_offset 12
	.cfi_offset 7, -12
	push	esi
LCFI80:
	.cfi_def_cfa_offset 16
	.cfi_offset 6, -16
	push	ebx
LCFI81:
	.cfi_def_cfa_offset 20
	.cfi_offset 3, -20
	sub	esp, 44
LCFI82:
	.cfi_def_cfa_offset 64
	mov	ebx, DWORD PTR [esp+64]
	mov	ebp, DWORD PTR [esp+68]
	.loc 1 162 0
	mov	eax, DWORD PTR ___stack_chk_guard
	mov	DWORD PTR [esp+28], eax
	xor	eax, eax
LVL107:
LBB122:
LBB123:
LBB124:
	.loc 1 54 0
	mov	eax, DWORD PTR [ebx+4]
	sub	eax, DWORD PTR [ebx+8]
LBE124:
LBE123:
	.loc 1 165 0
	cmp	ebp, eax
	ja	L140
LVL108:
LBE122:
	.loc 1 167 0
	lea	eax, [ebp+1]
	mov	DWORD PTR [esp], eax
	call	_g_malloc
LVL109:
LBB125:
LBB126:
	.loc 1 138 0
	mov	esi, DWORD PTR [ebx]
	add	esi, DWORD PTR [ebx+8]
	mov	edi, eax
	mov	ecx, ebp
	rep movsb
	.loc 1 139 0
	add	DWORD PTR [ebx+8], ebp
LBE126:
LBE125:
	.loc 1 169 0
	mov	BYTE PTR [eax+ebp], 0
LVL110:
L135:
	.loc 1 171 0
	mov	edx, DWORD PTR [esp+28]
	xor	edx, DWORD PTR ___stack_chk_guard
	jne	L141
	add	esp, 44
LCFI83:
	.cfi_remember_state
	.cfi_def_cfa_offset 20
	pop	ebx
LCFI84:
	.cfi_restore 3
	.cfi_def_cfa_offset 16
LVL111:
	pop	esi
LCFI85:
	.cfi_restore 6
	.cfi_def_cfa_offset 12
	pop	edi
LCFI86:
	.cfi_restore 7
	.cfi_def_cfa_offset 8
	pop	ebp
LCFI87:
	.cfi_restore 5
	.cfi_def_cfa_offset 4
	ret
LVL112:
	.p2align 2,,3
L140:
LCFI88:
	.cfi_restore_state
	.loc 1 165 0
	mov	DWORD PTR [esp+8], OFFSET FLAT:LC6
	mov	DWORD PTR [esp+4], OFFSET FLAT:___PRETTY_FUNCTION__.45007
	mov	DWORD PTR [esp], 0
	call	_g_return_if_fail_warning
LVL113:
	xor	eax, eax
	jmp	L135
LVL114:
L141:
	.loc 1 171 0
	call	___stack_chk_fail
LVL115:
	.cfi_endproc
LFE110:
	.p2align 2,,3
	.globl	_byte_stream_put8
	.def	_byte_stream_put8;	.scl	2;	.type	32;	.endef
_byte_stream_put8:
LFB111:
	.loc 1 174 0
	.cfi_startproc
LVL116:
	push	ebx
LCFI89:
	.cfi_def_cfa_offset 8
	.cfi_offset 3, -8
	sub	esp, 40
LCFI90:
	.cfi_def_cfa_offset 48
	mov	eax, DWORD PTR [esp+48]
	mov	ecx, DWORD PTR [esp+52]
	.loc 1 174 0
	mov	edx, DWORD PTR ___stack_chk_guard
	mov	DWORD PTR [esp+28], edx
	xor	edx, edx
LVL117:
LBB135:
LBB136:
LBB137:
	.loc 1 54 0
	mov	edx, DWORD PTR [eax+8]
LBE137:
LBE136:
	.loc 1 175 0
	cmp	DWORD PTR [eax+4], edx
	je	L150
LVL118:
LBE135:
	.loc 1 177 0
	mov	ebx, DWORD PTR [eax]
	mov	BYTE PTR [ebx+edx], cl
	inc	DWORD PTR [eax+8]
	.loc 1 178 0
	mov	eax, 1
LVL119:
L145:
	.loc 1 179 0
	mov	ebx, DWORD PTR [esp+28]
	xor	ebx, DWORD PTR ___stack_chk_guard
	jne	L151
	add	esp, 40
LCFI91:
	.cfi_remember_state
	.cfi_def_cfa_offset 8
	pop	ebx
LCFI92:
	.cfi_restore 3
	.cfi_def_cfa_offset 4
	ret
LVL120:
	.p2align 2,,3
L150:
LCFI93:
	.cfi_restore_state
LBB138:
LBB139:
	.loc 1 175 0
	mov	DWORD PTR [esp+8], OFFSET FLAT:LC3
	mov	DWORD PTR [esp+4], OFFSET FLAT:___PRETTY_FUNCTION__.45014
	mov	DWORD PTR [esp], 0
	call	_g_return_if_fail_warning
LVL121:
	xor	eax, eax
	jmp	L145
LVL122:
L151:
LBE139:
LBE138:
	.loc 1 179 0
	call	___stack_chk_fail
LVL123:
	.cfi_endproc
LFE111:
	.p2align 2,,3
	.globl	_byte_stream_put16
	.def	_byte_stream_put16;	.scl	2;	.type	32;	.endef
_byte_stream_put16:
LFB112:
	.loc 1 182 0
	.cfi_startproc
LVL124:
	push	esi
LCFI94:
	.cfi_def_cfa_offset 8
	.cfi_offset 6, -8
	push	ebx
LCFI95:
	.cfi_def_cfa_offset 12
	.cfi_offset 3, -12
	sub	esp, 36
LCFI96:
	.cfi_def_cfa_offset 48
	mov	eax, DWORD PTR [esp+48]
	mov	ebx, DWORD PTR [esp+52]
	.loc 1 182 0
	mov	edx, DWORD PTR ___stack_chk_guard
	mov	DWORD PTR [esp+28], edx
	xor	edx, edx
LVL125:
LBB148:
LBB149:
LBB150:
	.loc 1 54 0
	mov	ecx, DWORD PTR [eax+8]
	mov	edx, DWORD PTR [eax+4]
	sub	edx, ecx
LBE150:
LBE149:
	.loc 1 183 0
	cmp	edx, 1
	jbe	L160
LVL126:
LBE148:
	.loc 1 185 0
	mov	esi, DWORD PTR [eax]
	mov	edx, ebx
	shr	dx, 8
	mov	BYTE PTR [esi+ecx], dl
	mov	ecx, DWORD PTR [eax]
	mov	edx, DWORD PTR [eax+8]
	mov	BYTE PTR [ecx+1+edx], bl
	add	DWORD PTR [eax+8], 2
	.loc 1 186 0
	mov	eax, 2
LVL127:
L155:
	.loc 1 187 0
	mov	edx, DWORD PTR [esp+28]
	xor	edx, DWORD PTR ___stack_chk_guard
	jne	L161
	add	esp, 36
LCFI97:
	.cfi_remember_state
	.cfi_def_cfa_offset 12
	pop	ebx
LCFI98:
	.cfi_restore 3
	.cfi_def_cfa_offset 8
	pop	esi
LCFI99:
	.cfi_restore 6
	.cfi_def_cfa_offset 4
	ret
LVL128:
	.p2align 2,,3
L160:
LCFI100:
	.cfi_restore_state
LBB151:
LBB152:
	.loc 1 183 0
	mov	DWORD PTR [esp+8], OFFSET FLAT:LC4
	mov	DWORD PTR [esp+4], OFFSET FLAT:___PRETTY_FUNCTION__.45021
	mov	DWORD PTR [esp], 0
	call	_g_return_if_fail_warning
LVL129:
	xor	eax, eax
	jmp	L155
LVL130:
L161:
LBE152:
LBE151:
	.loc 1 187 0
	call	___stack_chk_fail
LVL131:
	.cfi_endproc
LFE112:
	.p2align 2,,3
	.globl	_byte_stream_put32
	.def	_byte_stream_put32;	.scl	2;	.type	32;	.endef
_byte_stream_put32:
LFB113:
	.loc 1 190 0
	.cfi_startproc
LVL132:
	push	esi
LCFI101:
	.cfi_def_cfa_offset 8
	.cfi_offset 6, -8
	push	ebx
LCFI102:
	.cfi_def_cfa_offset 12
	.cfi_offset 3, -12
	sub	esp, 36
LCFI103:
	.cfi_def_cfa_offset 48
	mov	eax, DWORD PTR [esp+48]
	mov	ecx, DWORD PTR [esp+52]
	.loc 1 190 0
	mov	edx, DWORD PTR ___stack_chk_guard
	mov	DWORD PTR [esp+28], edx
	xor	edx, edx
LVL133:
LBB153:
LBB154:
LBB155:
	.loc 1 54 0
	mov	ebx, DWORD PTR [eax+8]
	mov	edx, DWORD PTR [eax+4]
	sub	edx, ebx
LBE155:
LBE154:
	.loc 1 191 0
	cmp	edx, 3
	jbe	L170
LVL134:
LBE153:
	.loc 1 193 0
	mov	esi, DWORD PTR [eax]
	mov	edx, ecx
	shr	edx, 24
	mov	BYTE PTR [esi+ebx], dl
	mov	ebx, DWORD PTR [eax]
	mov	esi, DWORD PTR [eax+8]
	mov	edx, ecx
	shr	edx, 16
	mov	BYTE PTR [ebx+1+esi], dl
	mov	ebx, DWORD PTR [eax]
	mov	esi, DWORD PTR [eax+8]
	mov	edx, ecx
	shr	edx, 8
	mov	BYTE PTR [ebx+2+esi], dl
	mov	ebx, DWORD PTR [eax]
	mov	edx, DWORD PTR [eax+8]
	mov	BYTE PTR [ebx+3+edx], cl
	add	DWORD PTR [eax+8], 4
	.loc 1 194 0
	mov	eax, 1
LVL135:
L165:
	.loc 1 195 0
	mov	edx, DWORD PTR [esp+28]
	xor	edx, DWORD PTR ___stack_chk_guard
	jne	L171
	add	esp, 36
LCFI104:
	.cfi_remember_state
	.cfi_def_cfa_offset 12
	pop	ebx
LCFI105:
	.cfi_restore 3
	.cfi_def_cfa_offset 8
	pop	esi
LCFI106:
	.cfi_restore 6
	.cfi_def_cfa_offset 4
	ret
LVL136:
	.p2align 2,,3
L170:
LCFI107:
	.cfi_restore_state
	.loc 1 191 0
	mov	DWORD PTR [esp+8], OFFSET FLAT:LC5
	mov	DWORD PTR [esp+4], OFFSET FLAT:___PRETTY_FUNCTION__.45028
	mov	DWORD PTR [esp], 0
	call	_g_return_if_fail_warning
LVL137:
	xor	eax, eax
	jmp	L165
LVL138:
L171:
	.loc 1 195 0
	call	___stack_chk_fail
LVL139:
	.cfi_endproc
LFE113:
	.p2align 2,,3
	.globl	_byte_stream_putle8
	.def	_byte_stream_putle8;	.scl	2;	.type	32;	.endef
_byte_stream_putle8:
LFB114:
	.loc 1 198 0
	.cfi_startproc
LVL140:
	push	ebx
LCFI108:
	.cfi_def_cfa_offset 8
	.cfi_offset 3, -8
	sub	esp, 40
LCFI109:
	.cfi_def_cfa_offset 48
	mov	eax, DWORD PTR [esp+48]
	mov	ecx, DWORD PTR [esp+52]
	.loc 1 198 0
	mov	edx, DWORD PTR ___stack_chk_guard
	mov	DWORD PTR [esp+28], edx
	xor	edx, edx
LVL141:
LBB156:
LBB157:
LBB158:
	.loc 1 54 0
	mov	edx, DWORD PTR [eax+8]
LBE158:
LBE157:
	.loc 1 199 0
	cmp	DWORD PTR [eax+4], edx
	je	L180
LVL142:
LBE156:
	.loc 1 201 0
	mov	ebx, DWORD PTR [eax]
	mov	BYTE PTR [ebx+edx], cl
	inc	DWORD PTR [eax+8]
	.loc 1 202 0
	mov	eax, 1
LVL143:
L175:
	.loc 1 203 0
	mov	ebx, DWORD PTR [esp+28]
	xor	ebx, DWORD PTR ___stack_chk_guard
	jne	L181
	add	esp, 40
LCFI110:
	.cfi_remember_state
	.cfi_def_cfa_offset 8
	pop	ebx
LCFI111:
	.cfi_restore 3
	.cfi_def_cfa_offset 4
	ret
LVL144:
	.p2align 2,,3
L180:
LCFI112:
	.cfi_restore_state
	.loc 1 199 0
	mov	DWORD PTR [esp+8], OFFSET FLAT:LC3
	mov	DWORD PTR [esp+4], OFFSET FLAT:___PRETTY_FUNCTION__.45035
	mov	DWORD PTR [esp], 0
	call	_g_return_if_fail_warning
LVL145:
	xor	eax, eax
	jmp	L175
LVL146:
L181:
	.loc 1 203 0
	call	___stack_chk_fail
LVL147:
	.cfi_endproc
LFE114:
	.p2align 2,,3
	.globl	_byte_stream_putle16
	.def	_byte_stream_putle16;	.scl	2;	.type	32;	.endef
_byte_stream_putle16:
LFB115:
	.loc 1 206 0
	.cfi_startproc
LVL148:
	push	ebx
LCFI113:
	.cfi_def_cfa_offset 8
	.cfi_offset 3, -8
	sub	esp, 40
LCFI114:
	.cfi_def_cfa_offset 48
	mov	eax, DWORD PTR [esp+48]
	mov	ebx, DWORD PTR [esp+52]
	.loc 1 206 0
	mov	edx, DWORD PTR ___stack_chk_guard
	mov	DWORD PTR [esp+28], edx
	xor	edx, edx
LVL149:
LBB159:
LBB160:
LBB161:
	.loc 1 54 0
	mov	ecx, DWORD PTR [eax+8]
	mov	edx, DWORD PTR [eax+4]
	sub	edx, ecx
LBE161:
LBE160:
	.loc 1 207 0
	cmp	edx, 1
	jbe	L190
LVL150:
LBE159:
	.loc 1 209 0
	mov	edx, DWORD PTR [eax]
	mov	BYTE PTR [edx+ecx], bl
	mov	ecx, DWORD PTR [eax]
	mov	edx, DWORD PTR [eax+8]
	shr	bx, 8
	mov	BYTE PTR [ecx+1+edx], bl
	add	DWORD PTR [eax+8], 2
	.loc 1 210 0
	mov	eax, 2
LVL151:
L185:
	.loc 1 211 0
	mov	edx, DWORD PTR [esp+28]
	xor	edx, DWORD PTR ___stack_chk_guard
	jne	L191
	add	esp, 40
LCFI115:
	.cfi_remember_state
	.cfi_def_cfa_offset 8
	pop	ebx
LCFI116:
	.cfi_restore 3
	.cfi_def_cfa_offset 4
	ret
LVL152:
	.p2align 2,,3
L190:
LCFI117:
	.cfi_restore_state
	.loc 1 207 0
	mov	DWORD PTR [esp+8], OFFSET FLAT:LC4
	mov	DWORD PTR [esp+4], OFFSET FLAT:___PRETTY_FUNCTION__.45042
	mov	DWORD PTR [esp], 0
	call	_g_return_if_fail_warning
LVL153:
	xor	eax, eax
	jmp	L185
LVL154:
L191:
	.loc 1 211 0
	call	___stack_chk_fail
LVL155:
	.cfi_endproc
LFE115:
	.p2align 2,,3
	.globl	_byte_stream_putle32
	.def	_byte_stream_putle32;	.scl	2;	.type	32;	.endef
_byte_stream_putle32:
LFB116:
	.loc 1 214 0
	.cfi_startproc
LVL156:
	push	esi
LCFI118:
	.cfi_def_cfa_offset 8
	.cfi_offset 6, -8
	push	ebx
LCFI119:
	.cfi_def_cfa_offset 12
	.cfi_offset 3, -12
	sub	esp, 36
LCFI120:
	.cfi_def_cfa_offset 48
	mov	eax, DWORD PTR [esp+48]
	mov	ecx, DWORD PTR [esp+52]
	.loc 1 214 0
	mov	edx, DWORD PTR ___stack_chk_guard
	mov	DWORD PTR [esp+28], edx
	xor	edx, edx
LVL157:
LBB162:
LBB163:
LBB164:
	.loc 1 54 0
	mov	ebx, DWORD PTR [eax+8]
	mov	edx, DWORD PTR [eax+4]
	sub	edx, ebx
LBE164:
LBE163:
	.loc 1 215 0
	cmp	edx, 3
	jbe	L200
LVL158:
LBE162:
	.loc 1 217 0
	mov	edx, DWORD PTR [eax]
	mov	BYTE PTR [edx+ebx], cl
	mov	ebx, DWORD PTR [eax]
	mov	esi, DWORD PTR [eax+8]
	mov	edx, ecx
	shr	edx, 8
	mov	BYTE PTR [ebx+1+esi], dl
	mov	ebx, DWORD PTR [eax]
	mov	esi, DWORD PTR [eax+8]
	mov	edx, ecx
	shr	edx, 16
	mov	BYTE PTR [ebx+2+esi], dl
	mov	ebx, DWORD PTR [eax]
	mov	edx, DWORD PTR [eax+8]
	shr	ecx, 24
	mov	BYTE PTR [ebx+3+edx], cl
	add	DWORD PTR [eax+8], 4
	.loc 1 218 0
	mov	eax, 1
LVL159:
L195:
	.loc 1 219 0
	mov	edx, DWORD PTR [esp+28]
	xor	edx, DWORD PTR ___stack_chk_guard
	jne	L201
	add	esp, 36
LCFI121:
	.cfi_remember_state
	.cfi_def_cfa_offset 12
	pop	ebx
LCFI122:
	.cfi_restore 3
	.cfi_def_cfa_offset 8
	pop	esi
LCFI123:
	.cfi_restore 6
	.cfi_def_cfa_offset 4
	ret
LVL160:
	.p2align 2,,3
L200:
LCFI124:
	.cfi_restore_state
	.loc 1 215 0
	mov	DWORD PTR [esp+8], OFFSET FLAT:LC5
	mov	DWORD PTR [esp+4], OFFSET FLAT:___PRETTY_FUNCTION__.45049
	mov	DWORD PTR [esp], 0
	call	_g_return_if_fail_warning
LVL161:
	xor	eax, eax
	jmp	L195
LVL162:
L201:
	.loc 1 219 0
	call	___stack_chk_fail
LVL163:
	.cfi_endproc
LFE116:
	.p2align 2,,3
	.globl	_byte_stream_putraw
	.def	_byte_stream_putraw;	.scl	2;	.type	32;	.endef
_byte_stream_putraw:
LFB117:
	.loc 1 223 0
	.cfi_startproc
LVL164:
	push	edi
LCFI125:
	.cfi_def_cfa_offset 8
	.cfi_offset 7, -8
	push	esi
LCFI126:
	.cfi_def_cfa_offset 12
	.cfi_offset 6, -12
	push	ebx
LCFI127:
	.cfi_def_cfa_offset 16
	.cfi_offset 3, -16
	sub	esp, 32
LCFI128:
	.cfi_def_cfa_offset 48
	mov	eax, DWORD PTR [esp+48]
	mov	esi, DWORD PTR [esp+52]
	mov	ebx, DWORD PTR [esp+56]
	.loc 1 223 0
	mov	edx, DWORD PTR ___stack_chk_guard
	mov	DWORD PTR [esp+28], edx
	xor	edx, edx
LVL165:
LBB165:
LBB166:
LBB167:
	.loc 1 54 0
	mov	edx, DWORD PTR [eax+8]
	mov	ecx, DWORD PTR [eax+4]
	sub	ecx, edx
LBE167:
LBE166:
	.loc 1 224 0
	cmp	ebx, ecx
	ja	L210
LVL166:
LBE165:
	.loc 1 226 0
	add	edx, DWORD PTR [eax]
	mov	edi, edx
	mov	ecx, ebx
	rep movsb
	.loc 1 227 0
	add	DWORD PTR [eax+8], ebx
	.loc 1 228 0
	mov	eax, ebx
LVL167:
L205:
	.loc 1 229 0
	mov	edx, DWORD PTR [esp+28]
	xor	edx, DWORD PTR ___stack_chk_guard
	jne	L211
	add	esp, 32
LCFI129:
	.cfi_remember_state
	.cfi_def_cfa_offset 16
	pop	ebx
LCFI130:
	.cfi_restore 3
	.cfi_def_cfa_offset 12
	pop	esi
LCFI131:
	.cfi_restore 6
	.cfi_def_cfa_offset 8
	pop	edi
LCFI132:
	.cfi_restore 7
	.cfi_def_cfa_offset 4
	ret
LVL168:
	.p2align 2,,3
L210:
LCFI133:
	.cfi_restore_state
	.loc 1 224 0
	mov	DWORD PTR [esp+8], OFFSET FLAT:LC6
	mov	DWORD PTR [esp+4], OFFSET FLAT:___PRETTY_FUNCTION__.45057
	mov	DWORD PTR [esp], 0
	call	_g_return_if_fail_warning
LVL169:
	xor	eax, eax
	jmp	L205
LVL170:
L211:
	.loc 1 229 0
	call	___stack_chk_fail
LVL171:
	.cfi_endproc
LFE117:
	.p2align 2,,3
	.globl	_byte_stream_putstr
	.def	_byte_stream_putstr;	.scl	2;	.type	32;	.endef
_byte_stream_putstr:
LFB118:
	.loc 1 232 0
	.cfi_startproc
LVL172:
	push	edi
LCFI134:
	.cfi_def_cfa_offset 8
	.cfi_offset 7, -8
	sub	esp, 40
LCFI135:
	.cfi_def_cfa_offset 48
	mov	edx, DWORD PTR [esp+52]
	.loc 1 232 0
	mov	eax, DWORD PTR ___stack_chk_guard
	mov	DWORD PTR [esp+28], eax
	xor	eax, eax
	.loc 1 233 0
	mov	ecx, -1
	mov	edi, edx
	repne scasb
LVL173:
	not	ecx
	dec	ecx
	mov	DWORD PTR [esp+8], ecx
	mov	DWORD PTR [esp+4], edx
	mov	eax, DWORD PTR [esp+48]
	mov	DWORD PTR [esp], eax
	call	_byte_stream_putraw
LVL174:
	.loc 1 234 0
	mov	edx, DWORD PTR [esp+28]
	xor	edx, DWORD PTR ___stack_chk_guard
	jne	L215
	add	esp, 40
LCFI136:
	.cfi_remember_state
	.cfi_def_cfa_offset 8
	pop	edi
LCFI137:
	.cfi_restore 7
	.cfi_def_cfa_offset 4
	ret
L215:
LCFI138:
	.cfi_restore_state
	call	___stack_chk_fail
LVL175:
	.cfi_endproc
LFE118:
	.section .rdata,"dr"
	.align 4
LC7:
	.ascii "byte_stream_bytes_left(srcbs) >= len\0"
	.text
	.p2align 2,,3
	.globl	_byte_stream_putbs
	.def	_byte_stream_putbs;	.scl	2;	.type	32;	.endef
_byte_stream_putbs:
LFB119:
	.loc 1 237 0
	.cfi_startproc
LVL176:
	push	ebp
LCFI139:
	.cfi_def_cfa_offset 8
	.cfi_offset 5, -8
	push	edi
LCFI140:
	.cfi_def_cfa_offset 12
	.cfi_offset 7, -12
	push	esi
LCFI141:
	.cfi_def_cfa_offset 16
	.cfi_offset 6, -16
	push	ebx
LCFI142:
	.cfi_def_cfa_offset 20
	.cfi_offset 3, -20
	sub	esp, 44
LCFI143:
	.cfi_def_cfa_offset 64
	mov	edx, DWORD PTR [esp+64]
	mov	eax, DWORD PTR [esp+68]
	mov	ebx, DWORD PTR [esp+72]
	.loc 1 237 0
	mov	ecx, DWORD PTR ___stack_chk_guard
	mov	DWORD PTR [esp+28], ecx
	xor	ecx, ecx
LVL177:
LBB168:
LBB169:
LBB170:
	.loc 1 54 0
	mov	esi, DWORD PTR [eax+8]
	mov	ecx, DWORD PTR [eax+4]
	sub	ecx, esi
LBE170:
LBE169:
	.loc 1 238 0
	cmp	ebx, ecx
	ja	L225
LVL178:
LBE168:
LBB171:
LBB172:
LBB173:
	.loc 1 54 0
	mov	ebp, DWORD PTR [edx+8]
	mov	ecx, DWORD PTR [edx+4]
	sub	ecx, ebp
LBE173:
LBE172:
	.loc 1 239 0
	cmp	ebx, ecx
	ja	L226
LVL179:
LBE171:
	.loc 1 241 0
	add	ebp, DWORD PTR [edx]
	add	esi, DWORD PTR [eax]
	mov	edi, ebp
	mov	ecx, ebx
	rep movsb
	.loc 1 242 0
	add	DWORD PTR [edx+8], ebx
	.loc 1 243 0
	add	DWORD PTR [eax+8], ebx
	.loc 1 244 0
	mov	eax, ebx
LVL180:
	jmp	L219
LVL181:
	.p2align 2,,3
L225:
	.loc 1 238 0
	mov	DWORD PTR [esp+8], OFFSET FLAT:LC7
	mov	DWORD PTR [esp+4], OFFSET FLAT:___PRETTY_FUNCTION__.45069
	mov	DWORD PTR [esp], 0
	call	_g_return_if_fail_warning
LVL182:
	xor	eax, eax
LVL183:
L219:
	.loc 1 245 0
	mov	edx, DWORD PTR [esp+28]
	xor	edx, DWORD PTR ___stack_chk_guard
	jne	L227
	add	esp, 44
LCFI144:
	.cfi_remember_state
	.cfi_def_cfa_offset 20
	pop	ebx
LCFI145:
	.cfi_restore 3
	.cfi_def_cfa_offset 16
	pop	esi
LCFI146:
	.cfi_restore 6
	.cfi_def_cfa_offset 12
	pop	edi
LCFI147:
	.cfi_restore 7
	.cfi_def_cfa_offset 8
	pop	ebp
LCFI148:
	.cfi_restore 5
	.cfi_def_cfa_offset 4
	ret
LVL184:
	.p2align 2,,3
L226:
LCFI149:
	.cfi_restore_state
	.loc 1 239 0
	mov	DWORD PTR [esp+8], OFFSET FLAT:LC6
	mov	DWORD PTR [esp+4], OFFSET FLAT:___PRETTY_FUNCTION__.45069
	mov	DWORD PTR [esp], 0
	call	_g_return_if_fail_warning
LVL185:
	xor	eax, eax
	jmp	L219
LVL186:
L227:
	.loc 1 245 0
	call	___stack_chk_fail
LVL187:
	.cfi_endproc
LFE119:
	.p2align 2,,3
	.globl	_byte_stream_putuid
	.def	_byte_stream_putuid;	.scl	2;	.type	32;	.endef
_byte_stream_putuid:
LFB120:
	.loc 1 248 0
	.cfi_startproc
LVL188:
	push	ebx
LCFI150:
	.cfi_def_cfa_offset 8
	.cfi_offset 3, -8
	sub	esp, 40
LCFI151:
	.cfi_def_cfa_offset 48
	mov	ebx, DWORD PTR [esp+48]
	.loc 1 248 0
	mov	eax, DWORD PTR ___stack_chk_guard
	mov	DWORD PTR [esp+28], eax
	xor	eax, eax
	.loc 1 251 0
	mov	eax, DWORD PTR [esp+52]
	mov	eax, DWORD PTR [eax+104]
	mov	DWORD PTR [esp], eax
	call	_purple_connection_get_account
LVL189:
	.loc 1 253 0
	mov	DWORD PTR [esp], eax
	call	_purple_account_get_username
LVL190:
	mov	DWORD PTR [esp], eax
	call	_atoi
LVL191:
	mov	edx, DWORD PTR [esp+28]
	xor	edx, DWORD PTR ___stack_chk_guard
	jne	L232
	mov	DWORD PTR [esp+52], eax
	mov	DWORD PTR [esp+48], ebx
	.loc 1 254 0
	add	esp, 40
LCFI152:
	.cfi_remember_state
	.cfi_def_cfa_offset 8
	pop	ebx
LCFI153:
	.cfi_restore 3
	.cfi_def_cfa_offset 4
	.loc 1 253 0
	jmp	_byte_stream_putle32
LVL192:
L232:
LCFI154:
	.cfi_restore_state
	call	___stack_chk_fail
LVL193:
	.cfi_endproc
LFE120:
	.p2align 2,,3
	.globl	_byte_stream_put_bart_asset
	.def	_byte_stream_put_bart_asset;	.scl	2;	.type	32;	.endef
_byte_stream_put_bart_asset:
LFB121:
	.loc 1 257 0
	.cfi_startproc
LVL194:
	push	esi
LCFI155:
	.cfi_def_cfa_offset 8
	.cfi_offset 6, -8
	push	ebx
LCFI156:
	.cfi_def_cfa_offset 12
	.cfi_offset 3, -12
	sub	esp, 36
LCFI157:
	.cfi_def_cfa_offset 48
	mov	ebx, DWORD PTR [esp+48]
	mov	esi, DWORD PTR [esp+56]
	movzx	eax, WORD PTR [esp+52]
	.loc 1 257 0
	mov	edx, DWORD PTR ___stack_chk_guard
	mov	DWORD PTR [esp+28], edx
	xor	edx, edx
	.loc 1 258 0
	mov	DWORD PTR [esp+4], eax
	mov	DWORD PTR [esp], ebx
	call	_byte_stream_put16
LVL195:
	.loc 1 260 0
	test	esi, esi
	je	L234
	.loc 1 260 0 is_stmt 0 discriminator 1
	mov	eax, DWORD PTR [esi+4]
	test	eax, eax
	jne	L243
L234:
	.loc 1 267 0 is_stmt 1
	mov	DWORD PTR [esp+4], 0
	mov	DWORD PTR [esp], ebx
	call	_byte_stream_put8
LVL196:
	.loc 1 268 0
	mov	edx, DWORD PTR [esp+28]
	xor	edx, DWORD PTR ___stack_chk_guard
	jne	L242
	mov	DWORD PTR [esp+52], 0
	mov	DWORD PTR [esp+48], ebx
	.loc 1 271 0
	add	esp, 36
LCFI158:
	.cfi_remember_state
	.cfi_def_cfa_offset 12
	pop	ebx
LCFI159:
	.cfi_restore 3
	.cfi_def_cfa_offset 8
	pop	esi
LCFI160:
	.cfi_restore 6
	.cfi_def_cfa_offset 4
	.loc 1 268 0
	jmp	_byte_stream_put8
LVL197:
	.p2align 2,,3
L243:
LCFI161:
	.cfi_restore_state
LBB176:
LBB177:
	.loc 1 262 0
	mov	DWORD PTR [esp+4], 4
	mov	DWORD PTR [esp], ebx
	call	_byte_stream_put8
LVL198:
LBE177:
	.loc 1 288 0
	movzx	eax, BYTE PTR [esi+4]
LBB178:
	.loc 1 263 0
	mov	DWORD PTR [esp+4], eax
	mov	DWORD PTR [esp], ebx
	call	_byte_stream_put8
LVL199:
	.loc 1 264 0
	mov	DWORD PTR [esp], esi
	call	_byte_stream_rewind
LVL200:
	.loc 1 265 0
	mov	eax, DWORD PTR [esp+28]
	xor	eax, DWORD PTR ___stack_chk_guard
	jne	L242
	mov	eax, DWORD PTR [esi+4]
	mov	DWORD PTR [esp+56], eax
	mov	DWORD PTR [esp+52], esi
	mov	DWORD PTR [esp+48], ebx
LBE178:
LBE176:
	.loc 1 271 0
	add	esp, 36
LCFI162:
	.cfi_remember_state
	.cfi_def_cfa_offset 12
	pop	ebx
LCFI163:
	.cfi_restore 3
	.cfi_def_cfa_offset 8
LVL201:
	pop	esi
LCFI164:
	.cfi_restore 6
	.cfi_def_cfa_offset 4
LVL202:
LBB180:
LBB179:
	.loc 1 265 0
	jmp	_byte_stream_putbs
LVL203:
L242:
LCFI165:
	.cfi_restore_state
LBE179:
LBE180:
	.loc 1 268 0
	call	___stack_chk_fail
LVL204:
	.cfi_endproc
LFE121:
	.p2align 2,,3
	.globl	_byte_stream_put_bart_asset_str
	.def	_byte_stream_put_bart_asset_str;	.scl	2;	.type	32;	.endef
_byte_stream_put_bart_asset_str:
LFB122:
	.loc 1 274 0
	.cfi_startproc
LVL205:
	push	ebp
LCFI166:
	.cfi_def_cfa_offset 8
	.cfi_offset 5, -8
	push	edi
LCFI167:
	.cfi_def_cfa_offset 12
	.cfi_offset 7, -12
	push	esi
LCFI168:
	.cfi_def_cfa_offset 16
	.cfi_offset 6, -16
	push	ebx
LCFI169:
	.cfi_def_cfa_offset 20
	.cfi_offset 3, -20
	sub	esp, 60
LCFI170:
	.cfi_def_cfa_offset 80
	mov	ebp, DWORD PTR [esp+80]
	mov	ebx, DWORD PTR [esp+88]
	movzx	edx, WORD PTR [esp+84]
	.loc 1 274 0
	mov	eax, DWORD PTR ___stack_chk_guard
	mov	DWORD PTR [esp+44], eax
	xor	eax, eax
	.loc 1 276 0
	test	ebx, ebx
	je	L245
	.loc 1 276 0 is_stmt 0 discriminator 1
	mov	ecx, -1
	mov	edi, ebx
	repne scasb
LVL206:
	not	ecx
LVL207:
	.loc 1 278 0 is_stmt 1 discriminator 1
	mov	edi, ecx
	dec	edi
LVL208:
	jne	L255
LVL209:
L245:
	.loc 1 286 0
	mov	DWORD PTR [esp+8], 0
	mov	DWORD PTR [esp+4], edx
	mov	DWORD PTR [esp], ebp
	call	_byte_stream_put_bart_asset
LVL210:
L244:
	.loc 1 288 0
	mov	eax, DWORD PTR [esp+44]
	xor	eax, DWORD PTR ___stack_chk_guard
	jne	L256
	add	esp, 60
LCFI171:
	.cfi_remember_state
	.cfi_def_cfa_offset 20
	pop	ebx
LCFI172:
	.cfi_restore 3
	.cfi_def_cfa_offset 16
	pop	esi
LCFI173:
	.cfi_restore 6
	.cfi_def_cfa_offset 12
	pop	edi
LCFI174:
	.cfi_restore 7
	.cfi_def_cfa_offset 8
	pop	ebp
LCFI175:
	.cfi_restore 5
	.cfi_def_cfa_offset 4
	ret
LVL211:
	.p2align 2,,3
L255:
LCFI176:
	.cfi_restore_state
	.loc 1 279 0
	add	ecx, 3
	mov	DWORD PTR [esp+4], ecx
	lea	esi, [esp+32]
	mov	DWORD PTR [esp], esi
	mov	DWORD PTR [esp+28], edx
	call	_byte_stream_new
LVL212:
	.loc 1 288 0
	and	edi, 65535
LVL213:
	.loc 1 280 0
	mov	DWORD PTR [esp+4], edi
	mov	DWORD PTR [esp], esi
	call	_byte_stream_put16
LVL214:
	.loc 1 281 0
	mov	DWORD PTR [esp+4], ebx
	mov	DWORD PTR [esp], esi
	call	_byte_stream_putstr
LVL215:
	.loc 1 282 0
	mov	DWORD PTR [esp+4], 0
	mov	DWORD PTR [esp], esi
	call	_byte_stream_put16
LVL216:
	.loc 1 283 0
	mov	DWORD PTR [esp+8], esi
	mov	edx, DWORD PTR [esp+28]
	movzx	edx, dx
	mov	DWORD PTR [esp+4], edx
	mov	DWORD PTR [esp], ebp
	call	_byte_stream_put_bart_asset
LVL217:
	.loc 1 284 0
	mov	DWORD PTR [esp], esi
	call	_byte_stream_destroy
LVL218:
	jmp	L244
L256:
	.loc 1 288 0
	call	___stack_chk_fail
LVL219:
	.cfi_endproc
LFE122:
	.section .rdata,"dr"
___PRETTY_FUNCTION__.44930:
	.ascii "byte_stream_setpos\0"
___PRETTY_FUNCTION__.44940:
	.ascii "byte_stream_advance\0"
___PRETTY_FUNCTION__.44948:
	.ascii "byte_stream_get8\0"
___PRETTY_FUNCTION__.44954:
	.ascii "byte_stream_get16\0"
___PRETTY_FUNCTION__.44960:
	.ascii "byte_stream_get32\0"
___PRETTY_FUNCTION__.44966:
	.ascii "byte_stream_getle8\0"
___PRETTY_FUNCTION__.44972:
	.ascii "byte_stream_getle16\0"
___PRETTY_FUNCTION__.44978:
	.ascii "byte_stream_getle32\0"
___PRETTY_FUNCTION__.44991:
	.ascii "byte_stream_getrawbuf\0"
___PRETTY_FUNCTION__.44999:
	.ascii "byte_stream_getraw\0"
___PRETTY_FUNCTION__.45007:
	.ascii "byte_stream_getstr\0"
___PRETTY_FUNCTION__.45014:
	.ascii "byte_stream_put8\0"
___PRETTY_FUNCTION__.45021:
	.ascii "byte_stream_put16\0"
___PRETTY_FUNCTION__.45028:
	.ascii "byte_stream_put32\0"
___PRETTY_FUNCTION__.45035:
	.ascii "byte_stream_putle8\0"
___PRETTY_FUNCTION__.45042:
	.ascii "byte_stream_putle16\0"
___PRETTY_FUNCTION__.45049:
	.ascii "byte_stream_putle32\0"
___PRETTY_FUNCTION__.45057:
	.ascii "byte_stream_putraw\0"
___PRETTY_FUNCTION__.45069:
	.ascii "byte_stream_putbs\0"
	.text
Letext0:
	.file 2 "c:/workspace/pidgin-devel/win32-dev/mingw-4.7.2/bin/../lib/gcc/mingw32/4.7.2/../../../../include/stdio.h"
	.file 3 "c:/workspace/pidgin-devel/win32-dev/mingw-4.7.2/bin/../lib/gcc/mingw32/4.7.2/include/stddef.h"
	.file 4 "c:/workspace/pidgin-devel/win32-dev/mingw-4.7.2/bin/../lib/gcc/mingw32/4.7.2/../../../../include/sys/types.h"
	.file 5 "c:/workspace/pidgin-devel/win32-dev/mingw-4.7.2/bin/../lib/gcc/mingw32/4.7.2/../../../../include/time.h"
	.file 6 "../../../../win32-dev/gtk_2_0-2.14/lib/glib-2.0/include/glibconfig.h"
	.file 7 "../../../../win32-dev/gtk_2_0-2.14/include/glib-2.0/glib/gtypes.h"
	.file 8 "../../../../win32-dev/gtk_2_0-2.14/include/glib-2.0/glib/glist.h"
	.file 9 "../../../../win32-dev/gtk_2_0-2.14/include/glib-2.0/glib/ghash.h"
	.file 10 "../../../../win32-dev/gtk_2_0-2.14/include/glib-2.0/glib/gslist.h"
	.file 11 "../../../libpurple/account.h"
	.file 12 "../../../libpurple/connection.h"
	.file 13 "../../../libpurple/plugin.h"
	.file 14 "../../../libpurple/pluginpref.h"
	.file 15 "../../../libpurple/status.h"
	.file 16 "../../../libpurple/buddyicon.h"
	.file 17 "../../../libpurple/conversation.h"
	.file 18 "../../../libpurple/log.h"
	.file 19 "../../../libpurple/media/../util.h"
	.file 20 "../../../libpurple/proxy.h"
	.file 21 "../../../libpurple/privacy.h"
	.file 22 "oscar.h"
	.file 23 "c:/workspace/pidgin-devel/win32-dev/mingw-4.7.2/bin/../lib/gcc/mingw32/4.7.2/../../../../include/ctype.h"
	.file 24 "../../../../win32-dev/gtk_2_0-2.14/include/glib-2.0/glib/gmem.h"
	.file 25 "../../../../win32-dev/gtk_2_0-2.14/include/glib-2.0/glib/gmessages.h"
	.file 26 "c:/workspace/pidgin-devel/win32-dev/mingw-4.7.2/bin/../lib/gcc/mingw32/4.7.2/../../../../include/stdlib.h"