	.file	"buddy.c"
	.intel_syntax noprefix
	.text
Ltext0:
	.p2align 2,,3
	.def	_user_search_cancel_cb;	.scl	3;	.type	32;	.endef
_user_search_cancel_cb:
LFB140:
	.file 1 "buddy.c"
	.loc 1 2070 0
	.cfi_startproc
LVL0:
	push	ebx
LCFI0:
	.cfi_def_cfa_offset 8
	.cfi_offset 3, -8
	sub	esp, 40
LCFI1:
	.cfi_def_cfa_offset 48
	mov	ebx, DWORD PTR [esp+48]
	.loc 1 2070 0
	mov	eax, DWORD PTR ___stack_chk_guard
	mov	DWORD PTR [esp+28], eax
	xor	eax, eax
	.loc 1 2071 0
	mov	eax, DWORD PTR [ebx+4]
	mov	DWORD PTR [esp], eax
	call	_g_free
LVL1:
	.loc 1 2072 0
	mov	eax, DWORD PTR [esp+28]
	xor	eax, DWORD PTR ___stack_chk_guard
	jne	L6
	mov	DWORD PTR [esp+48], ebx
	.loc 1 2073 0
	add	esp, 40
LCFI2:
	.cfi_remember_state
	.cfi_def_cfa_offset 8
	pop	ebx
LCFI3:
	.cfi_restore 3
	.cfi_def_cfa_offset 4
	.loc 1 2072 0
	jmp	_g_free
LVL2:
L6:
LCFI4:
	.cfi_restore_state
	call	___stack_chk_fail
LVL3:
	.cfi_endproc
LFE140:
	.p2align 2,,3
	.def	_jabber_buddy_info_resource_free;	.scl	3;	.type	32;	.endef
_jabber_buddy_info_resource_free:
LFB113:
	.loc 1 1219 0
	.cfi_startproc
LVL4:
	sub	esp, 28
LCFI5:
	.cfi_def_cfa_offset 32
	mov	eax, DWORD PTR [esp+32]
	.loc 1 1219 0
	mov	edx, DWORD PTR ___stack_chk_guard
	mov	DWORD PTR [esp+12], edx
	xor	edx, edx
LVL5:
	.loc 1 1221 0
	mov	edx, DWORD PTR [esp+12]
	xor	edx, DWORD PTR ___stack_chk_guard
	jne	L11
	mov	DWORD PTR [esp+32], eax
	.loc 1 1222 0
	add	esp, 28
LCFI6:
	.cfi_remember_state
	.cfi_def_cfa_offset 4
	.loc 1 1221 0
	jmp	_g_free
LVL6:
L11:
LCFI7:
	.cfi_restore_state
	call	___stack_chk_fail
LVL7:
	.cfi_endproc
LFE113:
	.section .rdata,"dr"
LC0:
	.ascii "Unknown error\0"
LC1:
	.ascii "pidgin\0"
	.align 4
LC2:
	.ascii "Could not query the directory server.\0"
LC3:
	.ascii "Directory Query Failed\0"
LC4:
	.ascii "query\0"
LC5:
	.ascii "jabber:x:data\0"
LC6:
	.ascii "x\0"
LC7:
	.ascii "instructions\0"
LC8:
	.ascii "Server Instructions: %s\0"
	.align 4
LC9:
	.ascii "Fill in one or more fields to search for any matching XMPP users.\0"
LC10:
	.ascii "first\0"
LC11:
	.ascii "First Name\0"
LC12:
	.ascii "last\0"
LC13:
	.ascii "Last Name\0"
LC14:
	.ascii "nick\0"
LC15:
	.ascii "Nickname\0"
LC16:
	.ascii "email\0"
LC17:
	.ascii "Email Address\0"
LC18:
	.ascii "Cancel\0"
LC19:
	.ascii "Search\0"
LC20:
	.ascii "Search for XMPP users\0"
	.text
	.p2align 2,,3
	.def	_user_search_fields_result_cb;	.scl	3;	.type	32;	.endef
_user_search_fields_result_cb:
LFB142:
	.loc 1 2128 0
	.cfi_startproc
LVL8:
	push	ebp
LCFI8:
	.cfi_def_cfa_offset 8
	.cfi_offset 5, -8
	push	edi
LCFI9:
	.cfi_def_cfa_offset 12
	.cfi_offset 7, -12
	push	esi
LCFI10:
	.cfi_def_cfa_offset 16
	.cfi_offset 6, -16
	push	ebx
LCFI11:
	.cfi_def_cfa_offset 20
	.cfi_offset 3, -20
	sub	esp, 108
LCFI12:
	.cfi_def_cfa_offset 128
	mov	edi, DWORD PTR [esp+128]
	mov	ebx, DWORD PTR [esp+132]
	mov	edx, DWORD PTR [esp+136]
	mov	eax, DWORD PTR [esp+144]
	.loc 1 2128 0
	mov	ecx, DWORD PTR ___stack_chk_guard
	mov	DWORD PTR [esp+92], ecx
	xor	ecx, ecx
	.loc 1 2131 0
	test	ebx, ebx
	je	L12
	.loc 1 2134 0
	cmp	edx, 3
	je	L54
	.loc 1 2148 0
	mov	DWORD PTR [esp+4], OFFSET FLAT:LC4
	mov	DWORD PTR [esp], eax
	call	_xmlnode_get_child
LVL9:
	mov	esi, eax
LVL10:
	test	eax, eax
	je	L12
	.loc 1 2151 0
	mov	DWORD PTR [esp+8], OFFSET FLAT:LC5
	mov	DWORD PTR [esp+4], OFFSET FLAT:LC6
	mov	DWORD PTR [esp], eax
	call	_xmlnode_get_child_with_namespace
LVL11:
	mov	ebp, eax
LVL12:
	test	eax, eax
	je	L19
	.loc 1 2152 0
	mov	DWORD PTR [esp], ebx
	call	_g_strdup
LVL13:
	mov	edx, DWORD PTR [esp+92]
	xor	edx, DWORD PTR ___stack_chk_guard
	jne	L53
	mov	DWORD PTR [esp+140], eax
	mov	DWORD PTR [esp+136], OFFSET FLAT:_user_search_x_data_cb
	mov	DWORD PTR [esp+132], ebp
	mov	DWORD PTR [esp+128], edi
	.loc 1 2220 0
	add	esp, 108
LCFI13:
	.cfi_remember_state
	.cfi_def_cfa_offset 20
	pop	ebx
LCFI14:
	.cfi_restore 3
	.cfi_def_cfa_offset 16
	pop	esi
LCFI15:
	.cfi_restore 6
	.cfi_def_cfa_offset 12
LVL14:
	pop	edi
LCFI16:
	.cfi_restore 7
	.cfi_def_cfa_offset 8
	pop	ebp
LCFI17:
	.cfi_restore 5
	.cfi_def_cfa_offset 4
LVL15:
	.loc 1 2152 0
	jmp	_jabber_x_data_request
LVL16:
	.p2align 2,,3
L54:
LCFI18:
	.cfi_restore_state
LBB16:
	.loc 1 2135 0
	mov	DWORD PTR [esp+8], 0
	mov	DWORD PTR [esp+4], eax
	mov	DWORD PTR [esp], edi
	call	_jabber_parse_error
LVL17:
	mov	ebx, eax
LVL18:
	.loc 1 2137 0
	test	eax, eax
	je	L55
L16:
	.loc 1 2140 0
	mov	DWORD PTR [esp+4], OFFSET FLAT:LC2
	mov	DWORD PTR [esp], OFFSET FLAT:LC1
	call	_libintl_dgettext
LVL19:
	mov	esi, eax
	mov	DWORD PTR [esp+4], OFFSET FLAT:LC3
	mov	DWORD PTR [esp], OFFSET FLAT:LC1
	call	_libintl_dgettext
LVL20:
	mov	DWORD PTR [esp+24], 0
	mov	DWORD PTR [esp+20], 0
	mov	DWORD PTR [esp+16], ebx
	mov	DWORD PTR [esp+12], esi
	mov	DWORD PTR [esp+8], eax
	mov	DWORD PTR [esp+4], 0
	mov	eax, DWORD PTR [edi+100]
	mov	DWORD PTR [esp], eax
	call	_purple_notify_message
LVL21:
	.loc 1 2142 0
	mov	eax, DWORD PTR [esp+92]
	xor	eax, DWORD PTR ___stack_chk_guard
	jne	L53
	mov	DWORD PTR [esp+128], ebx
LBE16:
	.loc 1 2220 0
	add	esp, 108
LCFI19:
	.cfi_remember_state
	.cfi_def_cfa_offset 20
	pop	ebx
LCFI20:
	.cfi_restore 3
	.cfi_def_cfa_offset 16
LVL22:
	pop	esi
LCFI21:
	.cfi_restore 6
	.cfi_def_cfa_offset 12
	pop	edi
LCFI22:
	.cfi_restore 7
	.cfi_def_cfa_offset 8
	pop	ebp
LCFI23:
	.cfi_restore 5
	.cfi_def_cfa_offset 4
LBB17:
	.loc 1 2218 0
	jmp	_g_free
LVL23:
	.p2align 2,,3
L12:
LCFI24:
	.cfi_restore_state
LBE17:
	.loc 1 2220 0
	mov	edx, DWORD PTR [esp+92]
	xor	edx, DWORD PTR ___stack_chk_guard
	jne	L53
	add	esp, 108
LCFI25:
	.cfi_remember_state
	.cfi_def_cfa_offset 20
	pop	ebx
LCFI26:
	.cfi_restore 3
	.cfi_def_cfa_offset 16
	pop	esi
LCFI27:
	.cfi_restore 6
	.cfi_def_cfa_offset 12
	pop	edi
LCFI28:
	.cfi_restore 7
	.cfi_def_cfa_offset 8
	pop	ebp
LCFI29:
	.cfi_restore 5
	.cfi_def_cfa_offset 4
	ret
LVL24:
	.p2align 2,,3
L19:
LCFI30:
	.cfi_restore_state
LBB19:
	.loc 1 2163 0
	call	_purple_request_fields_new
LVL25:
	mov	DWORD PTR [esp+76], eax
LVL26:
	.loc 1 2164 0
	mov	DWORD PTR [esp], 0
	call	_purple_request_field_group_new
LVL27:
	mov	ebp, eax
LVL28:
	.loc 1 2165 0
	mov	DWORD PTR [esp+4], eax
	mov	eax, DWORD PTR [esp+76]
LVL29:
	mov	DWORD PTR [esp], eax
	call	_purple_request_fields_add_group
LVL30:
	.loc 1 2167 0
	mov	DWORD PTR [esp+4], OFFSET FLAT:LC7
	mov	DWORD PTR [esp], esi
	call	_xmlnode_get_child
LVL31:
	test	eax, eax
	je	L28
LBB18:
	.loc 1 2169 0
	mov	DWORD PTR [esp], eax
	call	_xmlnode_get_data
LVL32:
	.loc 1 2171 0
	test	eax, eax
	je	L28
	.loc 1 2175 0
	mov	DWORD PTR [esp+4], eax
	mov	DWORD PTR [esp], OFFSET FLAT:LC1
	mov	DWORD PTR [esp+64], eax
	call	_libintl_dgettext
LVL33:
	mov	DWORD PTR [esp+4], OFFSET FLAT:LC8
	mov	DWORD PTR [esp], OFFSET FLAT:LC1
	mov	DWORD PTR [esp+68], eax
	call	_libintl_dgettext
LVL34:
	mov	ecx, DWORD PTR [esp+68]
	mov	DWORD PTR [esp+4], ecx
	mov	DWORD PTR [esp], eax
	call	_g_strdup_printf
LVL35:
	mov	DWORD PTR [esp+72], eax
LVL36:
	.loc 1 2176 0
	mov	edx, DWORD PTR [esp+64]
	mov	DWORD PTR [esp], edx
	call	_g_free
LVL37:
LBE18:
	.loc 1 2180 0
	mov	eax, DWORD PTR [esp+72]
	test	eax, eax
	je	L28
LVL38:
L22:
	.loc 1 2186 0
	mov	DWORD PTR [esp+4], OFFSET FLAT:LC10
	mov	DWORD PTR [esp], esi
	call	_xmlnode_get_child
LVL39:
	test	eax, eax
	je	L23
	.loc 1 2187 0
	mov	DWORD PTR [esp+4], OFFSET FLAT:LC11
	mov	DWORD PTR [esp], OFFSET FLAT:LC1
	call	_libintl_dgettext
LVL40:
	mov	DWORD PTR [esp+12], 0
	mov	DWORD PTR [esp+8], 0
	mov	DWORD PTR [esp+4], eax
	mov	DWORD PTR [esp], OFFSET FLAT:LC10
	call	_purple_request_field_string_new
LVL41:
	.loc 1 2189 0
	mov	DWORD PTR [esp+4], eax
	mov	DWORD PTR [esp], ebp
	call	_purple_request_field_group_add_field
LVL42:
L23:
	.loc 1 2191 0
	mov	DWORD PTR [esp+4], OFFSET FLAT:LC12
	mov	DWORD PTR [esp], esi
	call	_xmlnode_get_child
LVL43:
	test	eax, eax
	je	L24
	.loc 1 2192 0
	mov	DWORD PTR [esp+4], OFFSET FLAT:LC13
	mov	DWORD PTR [esp], OFFSET FLAT:LC1
	call	_libintl_dgettext
LVL44:
	mov	DWORD PTR [esp+12], 0
	mov	DWORD PTR [esp+8], 0
	mov	DWORD PTR [esp+4], eax
	mov	DWORD PTR [esp], OFFSET FLAT:LC12
	call	_purple_request_field_string_new
LVL45:
	.loc 1 2194 0
	mov	DWORD PTR [esp+4], eax
	mov	DWORD PTR [esp], ebp
	call	_purple_request_field_group_add_field
LVL46:
L24:
	.loc 1 2196 0
	mov	DWORD PTR [esp+4], OFFSET FLAT:LC14
	mov	DWORD PTR [esp], esi
	call	_xmlnode_get_child
LVL47:
	test	eax, eax
	je	L25
	.loc 1 2197 0
	mov	DWORD PTR [esp+4], OFFSET FLAT:LC15
	mov	DWORD PTR [esp], OFFSET FLAT:LC1
	call	_libintl_dgettext
LVL48:
	mov	DWORD PTR [esp+12], 0
	mov	DWORD PTR [esp+8], 0
	mov	DWORD PTR [esp+4], eax
	mov	DWORD PTR [esp], OFFSET FLAT:LC14
	call	_purple_request_field_string_new
LVL49:
	.loc 1 2199 0
	mov	DWORD PTR [esp+4], eax
	mov	DWORD PTR [esp], ebp
	call	_purple_request_field_group_add_field
LVL50:
L25:
	.loc 1 2201 0
	mov	DWORD PTR [esp+4], OFFSET FLAT:LC16
	mov	DWORD PTR [esp], esi
	call	_xmlnode_get_child
LVL51:
	test	eax, eax
	je	L26
	.loc 1 2202 0
	mov	DWORD PTR [esp+4], OFFSET FLAT:LC17
	mov	DWORD PTR [esp], OFFSET FLAT:LC1
	call	_libintl_dgettext
LVL52:
	mov	DWORD PTR [esp+12], 0
	mov	DWORD PTR [esp+8], 0
	mov	DWORD PTR [esp+4], eax
	mov	DWORD PTR [esp], OFFSET FLAT:LC16
	call	_purple_request_field_string_new
LVL53:
	.loc 1 2204 0
	mov	DWORD PTR [esp+4], eax
	mov	DWORD PTR [esp], ebp
	call	_purple_request_field_group_add_field
LVL54:
L26:
	.loc 1 2207 0
	mov	DWORD PTR [esp], 8
	call	_g_malloc0
LVL55:
	mov	esi, eax
LVL56:
	.loc 1 2208 0
	mov	DWORD PTR [eax], edi
	.loc 1 2209 0
	mov	DWORD PTR [esp], ebx
	call	_g_strdup
LVL57:
	mov	DWORD PTR [esi+4], eax
	.loc 1 2211 0
	mov	eax, DWORD PTR [edi+100]
	mov	DWORD PTR [esp], eax
	call	_purple_connection_get_account
LVL58:
	mov	ebp, eax
LVL59:
	.loc 1 2214 0
	mov	DWORD PTR [esp+4], OFFSET FLAT:LC18
	mov	DWORD PTR [esp], OFFSET FLAT:LC1
	call	_libintl_dgettext
LVL60:
	.loc 1 2213 0
	mov	DWORD PTR [esp+4], OFFSET FLAT:LC19
	mov	DWORD PTR [esp], OFFSET FLAT:LC1
	mov	DWORD PTR [esp+64], eax
	call	_libintl_dgettext
LVL61:
	.loc 1 2212 0
	mov	DWORD PTR [esp+4], OFFSET FLAT:LC20
	mov	DWORD PTR [esp], OFFSET FLAT:LC1
	mov	DWORD PTR [esp+68], eax
	call	_libintl_dgettext
LVL62:
	mov	ebx, eax
	.loc 1 2211 0
	mov	DWORD PTR [esp+4], OFFSET FLAT:LC20
	mov	DWORD PTR [esp], OFFSET FLAT:LC1
	call	_libintl_dgettext
LVL63:
	mov	DWORD PTR [esp+48], esi
	mov	DWORD PTR [esp+44], 0
	mov	DWORD PTR [esp+40], 0
	mov	DWORD PTR [esp+36], ebp
	mov	DWORD PTR [esp+32], OFFSET FLAT:_user_search_cancel_cb
	mov	edx, DWORD PTR [esp+64]
	mov	DWORD PTR [esp+28], edx
	mov	DWORD PTR [esp+24], OFFSET FLAT:_user_search_cb
	mov	ecx, DWORD PTR [esp+68]
	mov	DWORD PTR [esp+20], ecx
	mov	edx, DWORD PTR [esp+76]
	mov	DWORD PTR [esp+16], edx
	mov	ecx, DWORD PTR [esp+72]
	mov	DWORD PTR [esp+12], ecx
	mov	DWORD PTR [esp+8], ebx
	mov	DWORD PTR [esp+4], eax
	mov	eax, DWORD PTR [edi+100]
	mov	DWORD PTR [esp], eax
	call	_purple_request_fields
LVL64:
	.loc 1 2218 0
	mov	eax, DWORD PTR [esp+92]
	xor	eax, DWORD PTR ___stack_chk_guard
	jne	L53
	mov	eax, DWORD PTR [esp+72]
	mov	DWORD PTR [esp+128], eax
LBE19:
	.loc 1 2220 0
	add	esp, 108
LCFI31:
	.cfi_remember_state
	.cfi_def_cfa_offset 20
	pop	ebx
LCFI32:
	.cfi_restore 3
	.cfi_def_cfa_offset 16
	pop	esi
LCFI33:
	.cfi_restore 6
	.cfi_def_cfa_offset 12
LVL65:
	pop	edi
LCFI34:
	.cfi_restore 7
	.cfi_def_cfa_offset 8
	pop	ebp
LCFI35:
	.cfi_restore 5
	.cfi_def_cfa_offset 4
LBB20:
	.loc 1 2218 0
	jmp	_g_free
LVL66:
	.p2align 2,,3
L55:
LCFI36:
	.cfi_restore_state
LBE20:
LBB21:
	.loc 1 2138 0
	mov	DWORD PTR [esp+4], OFFSET FLAT:LC0
	mov	DWORD PTR [esp], OFFSET FLAT:LC1
	call	_libintl_dgettext
LVL67:
	mov	DWORD PTR [esp], eax
	call	_g_strdup
LVL68:
	mov	ebx, eax
LVL69:
	jmp	L16
LVL70:
	.p2align 2,,3
L28:
LBE21:
LBB22:
	.loc 1 2182 0
	mov	DWORD PTR [esp+4], OFFSET FLAT:LC9
	mov	DWORD PTR [esp], OFFSET FLAT:LC1
	call	_libintl_dgettext
LVL71:
	mov	DWORD PTR [esp], eax
	call	_g_strdup
LVL72:
	mov	DWORD PTR [esp+72], eax
LVL73:
	jmp	L22
LVL74:
L53:
LBE22:
	.loc 1 2220 0
	call	___stack_chk_fail
LVL75:
	.cfi_endproc
LFE142:
	.section .rdata,"dr"
LC21:
	.ascii "jabber:iq:search\0"
LC22:
	.ascii "to\0"
	.text
	.p2align 2,,3
	.def	_user_search_cb;	.scl	3;	.type	32;	.endef
_user_search_cb:
LFB141:
	.loc 1 2076 0
	.cfi_startproc
LVL76:
	push	ebp
LCFI37:
	.cfi_def_cfa_offset 8
	.cfi_offset 5, -8
	push	edi
LCFI38:
	.cfi_def_cfa_offset 12
	.cfi_offset 7, -12
	push	esi
LCFI39:
	.cfi_def_cfa_offset 16
	.cfi_offset 6, -16
	push	ebx
LCFI40:
	.cfi_def_cfa_offset 20
	.cfi_offset 3, -20
	sub	esp, 76
LCFI41:
	.cfi_def_cfa_offset 96
	mov	edx, DWORD PTR [esp+96]
	mov	DWORD PTR [esp+44], edx
	mov	ebx, DWORD PTR [esp+100]
	.loc 1 2076 0
	mov	eax, DWORD PTR ___stack_chk_guard
	mov	DWORD PTR [esp+60], eax
	xor	eax, eax
LVL77:
	.loc 1 2082 0
	mov	DWORD PTR [esp+8], OFFSET FLAT:LC21
	mov	DWORD PTR [esp+4], 0
	mov	eax, DWORD PTR [edx]
	mov	DWORD PTR [esp], eax
	call	_jabber_iq_new_query
LVL78:
	mov	DWORD PTR [esp+40], eax
LVL79:
	.loc 1 2083 0
	mov	DWORD PTR [esp+4], OFFSET FLAT:LC4
	mov	eax, DWORD PTR [eax+8]
LVL80:
	mov	DWORD PTR [esp], eax
	call	_xmlnode_get_child
LVL81:
	mov	DWORD PTR [esp+32], eax
LVL82:
	.loc 1 2085 0
	mov	DWORD PTR [esp], ebx
	call	_purple_request_fields_get_groups
LVL83:
	mov	DWORD PTR [esp+36], eax
LVL84:
	test	eax, eax
	je	L61
	.p2align 2,,3
L75:
	.loc 1 2086 0
	mov	edx, DWORD PTR [esp+36]
	mov	eax, DWORD PTR [edx]
LVL85:
	mov	DWORD PTR [esp], eax
	call	_purple_request_field_group_get_fields
LVL86:
	mov	ebx, eax
LVL87:
	test	eax, eax
	je	L65
LVL88:
	.p2align 2,,3
L76:
LBB23:
	.loc 1 2088 0
	mov	esi, DWORD PTR [ebx]
LVL89:
	.loc 1 2089 0
	mov	DWORD PTR [esp], esi
	call	_purple_request_field_get_id
LVL90:
	mov	DWORD PTR [esp+28], eax
LVL91:
	.loc 1 2090 0
	mov	DWORD PTR [esp], esi
	call	_purple_request_field_string_get_value
LVL92:
	mov	ebp, eax
LVL93:
	.loc 1 2092 0
	test	eax, eax
	je	L62
	.loc 1 2092 0 is_stmt 0 discriminator 1
	mov	edi, OFFSET FLAT:LC10
	mov	esi, DWORD PTR [esp+28]
LVL94:
	mov	ecx, 6
	repe cmpsb
LVL95:
	je	L63
	mov	edi, OFFSET FLAT:LC12
	mov	esi, DWORD PTR [esp+28]
	mov	ecx, 5
	repe cmpsb
	je	L63
	mov	edi, OFFSET FLAT:LC14
	mov	esi, DWORD PTR [esp+28]
	mov	ecx, 5
	repe cmpsb
	je	L63
	mov	edi, OFFSET FLAT:LC16
	mov	esi, DWORD PTR [esp+28]
	mov	ecx, 6
	repe cmpsb
	jne	L62
	.p2align 2,,3
L63:
LBB24:
	.loc 1 2093 0 is_stmt 1
	mov	edx, DWORD PTR [esp+28]
	mov	DWORD PTR [esp+4], edx
	mov	eax, DWORD PTR [esp+32]
LVL96:
	mov	DWORD PTR [esp], eax
	call	_xmlnode_new_child
LVL97:
	.loc 1 2094 0
	mov	DWORD PTR [esp+8], -1
	mov	DWORD PTR [esp+4], ebp
	mov	DWORD PTR [esp], eax
	call	_xmlnode_insert_data
LVL98:
L62:
LBE24:
LBE23:
	.loc 1 2087 0
	mov	ebx, DWORD PTR [ebx+4]
LVL99:
	.loc 1 2086 0
	test	ebx, ebx
	jne	L76
LVL100:
L65:
	.loc 1 2085 0
	mov	eax, DWORD PTR [esp+36]
	mov	eax, DWORD PTR [eax+4]
	mov	DWORD PTR [esp+36], eax
LVL101:
	test	eax, eax
	jne	L75
LVL102:
L61:
	.loc 1 2099 0
	mov	DWORD PTR [esp+8], 0
	mov	DWORD PTR [esp+4], OFFSET FLAT:_user_search_result_cb
	mov	eax, DWORD PTR [esp+40]
LVL103:
	mov	DWORD PTR [esp], eax
	call	_jabber_iq_set_callback
LVL104:
	.loc 1 2100 0
	mov	edx, DWORD PTR [esp+44]
	mov	eax, DWORD PTR [edx+4]
	mov	DWORD PTR [esp+8], eax
	mov	DWORD PTR [esp+4], OFFSET FLAT:LC22
	mov	edx, DWORD PTR [esp+40]
	mov	eax, DWORD PTR [edx+8]
	mov	DWORD PTR [esp], eax
	call	_xmlnode_set_attrib
LVL105:
	.loc 1 2101 0
	mov	eax, DWORD PTR [esp+40]
	mov	DWORD PTR [esp], eax
	call	_jabber_iq_send
LVL106:
	.loc 1 2103 0
	mov	edx, DWORD PTR [esp+44]
	mov	eax, DWORD PTR [edx+4]
	mov	DWORD PTR [esp], eax
	call	_g_free
LVL107:
	.loc 1 2104 0
	mov	eax, DWORD PTR [esp+60]
	xor	eax, DWORD PTR ___stack_chk_guard
	jne	L85
	mov	edx, DWORD PTR [esp+44]
	mov	DWORD PTR [esp+96], edx
	.loc 1 2105 0
	add	esp, 76
LCFI42:
	.cfi_remember_state
	.cfi_def_cfa_offset 20
	pop	ebx
LCFI43:
	.cfi_restore 3
	.cfi_def_cfa_offset 16
	pop	esi
LCFI44:
	.cfi_restore 6
	.cfi_def_cfa_offset 12
	pop	edi
LCFI45:
	.cfi_restore 7
	.cfi_def_cfa_offset 8
	pop	ebp
LCFI46:
	.cfi_restore 5
	.cfi_def_cfa_offset 4
	.loc 1 2104 0
	jmp	_g_free
LVL108:
L85:
LCFI47:
	.cfi_restore_state
	call	___stack_chk_fail
LVL109:
	.cfi_endproc
LFE141:
	.section .rdata,"dr"
LC23:
	.ascii "new-skool\12\0"
LC24:
	.ascii "jabber\0"
LC25:
	.ascii "reported\0"
LC26:
	.ascii "field\0"
LC27:
	.ascii "var\0"
LC28:
	.ascii "label\0"
LC29:
	.ascii "item\0"
LC30:
	.ascii "value\0"
LC31:
	.ascii "old-skool\12\0"
LC32:
	.ascii "JID\0"
LC33:
	.ascii "Email\0"
LC34:
	.ascii "jid\0"
LC35:
	.ascii "row=%p\12\0"
	.align 4
LC36:
	.ascii "The following are the results of your search\0"
	.text
	.p2align 2,,3
	.def	_user_search_result_cb;	.scl	3;	.type	32;	.endef
_user_search_result_cb:
LFB138:
	.loc 1 1930 0
	.cfi_startproc
LVL110:
	push	ebp
LCFI48:
	.cfi_def_cfa_offset 8
	.cfi_offset 5, -8
	push	edi
LCFI49:
	.cfi_def_cfa_offset 12
	.cfi_offset 7, -12
	push	esi
LCFI50:
	.cfi_def_cfa_offset 16
	.cfi_offset 6, -16
	push	ebx
LCFI51:
	.cfi_def_cfa_offset 20
	.cfi_offset 3, -20
	sub	esp, 76
LCFI52:
	.cfi_def_cfa_offset 96
	mov	edx, DWORD PTR [esp+96]
	mov	DWORD PTR [esp+44], edx
	.loc 1 1930 0
	mov	eax, DWORD PTR ___stack_chk_guard
	mov	DWORD PTR [esp+60], eax
	xor	eax, eax
	.loc 1 1936 0
	mov	DWORD PTR [esp+4], OFFSET FLAT:LC4
	mov	eax, DWORD PTR [esp+112]
	mov	DWORD PTR [esp], eax
	call	_xmlnode_get_child
LVL111:
	mov	ebx, eax
LVL112:
	test	eax, eax
	je	L86
	.loc 1 1939 0
	call	_purple_notify_searchresults_new
LVL113:
	mov	DWORD PTR [esp+36], eax
LVL114:
	.loc 1 1940 0
	mov	DWORD PTR [esp+8], OFFSET FLAT:LC5
	mov	DWORD PTR [esp+4], OFFSET FLAT:LC6
	mov	DWORD PTR [esp], ebx
	call	_xmlnode_get_child_with_namespace
LVL115:
	mov	edi, eax
LVL116:
	test	eax, eax
	je	L88
LVL117:
LBB25:
	.loc 1 1944 0
	mov	DWORD PTR [esp+4], OFFSET FLAT:LC23
	mov	DWORD PTR [esp], OFFSET FLAT:LC24
	call	_purple_debug_info
LVL118:
	.loc 1 1946 0
	mov	DWORD PTR [esp+4], OFFSET FLAT:LC25
	mov	DWORD PTR [esp], edi
	call	_xmlnode_get_child
LVL119:
	test	eax, eax
	je	L91
LBB26:
	.loc 1 1947 0
	mov	DWORD PTR [esp+4], OFFSET FLAT:LC26
	mov	DWORD PTR [esp], eax
	call	_xmlnode_get_child
LVL120:
	mov	ebx, eax
LVL121:
	.loc 1 1948 0
	test	eax, eax
	je	L91
	mov	DWORD PTR [esp+40], 0
	xor	ebp, ebp
	jmp	L94
LVL122:
L93:
LBB27:
	.loc 1 1952 0 discriminator 3
	mov	DWORD PTR [esp], eax
	call	_purple_notify_searchresults_column_new
LVL123:
	.loc 1 1953 0 discriminator 3
	mov	DWORD PTR [esp+4], eax
	mov	eax, DWORD PTR [esp+36]
LVL124:
	mov	DWORD PTR [esp], eax
	call	_purple_notify_searchresults_column_add
LVL125:
	.loc 1 1954 0 discriminator 3
	mov	DWORD PTR [esp+4], esi
	mov	DWORD PTR [esp], ebp
	call	_g_slist_append
LVL126:
	mov	ebp, eax
LVL127:
L92:
	.loc 1 1956 0
	mov	DWORD PTR [esp], ebx
	call	_xmlnode_get_next_twin
LVL128:
	mov	ebx, eax
LVL129:
LBE27:
	.loc 1 1948 0
	test	eax, eax
	je	L151
LVL130:
L94:
LBB28:
	.loc 1 1949 0
	mov	DWORD PTR [esp+4], OFFSET FLAT:LC27
	mov	DWORD PTR [esp], ebx
	call	_xmlnode_get_attrib
LVL131:
	mov	esi, eax
LVL132:
	.loc 1 1950 0
	mov	DWORD PTR [esp+4], OFFSET FLAT:LC28
	mov	DWORD PTR [esp], ebx
	call	_xmlnode_get_attrib
LVL133:
	.loc 1 1951 0
	test	esi, esi
	je	L92
	.loc 1 1952 0
	test	eax, eax
	jne	L93
	mov	eax, esi
LVL134:
	jmp	L93
LVL135:
L151:
	mov	DWORD PTR [esp+40], ebp
LVL136:
L90:
LBE28:
LBE26:
	.loc 1 1960 0
	mov	DWORD PTR [esp+4], OFFSET FLAT:LC29
	mov	DWORD PTR [esp], edi
	call	_xmlnode_get_child
LVL137:
	mov	ebp, eax
LVL138:
	.loc 1 1961 0
	test	eax, eax
	je	L96
LVL139:
L134:
LBB30:
	.loc 1 1967 0 discriminator 1
	mov	edx, DWORD PTR [esp+40]
	xor	edi, edi
	test	edx, edx
	je	L103
	.loc 1 1967 0 is_stmt 0
	mov	esi, DWORD PTR [esp+40]
	xor	edi, edi
LVL140:
	.p2align 2,,3
L101:
	.loc 1 1972 0 is_stmt 1
	mov	DWORD PTR [esp+4], OFFSET FLAT:LC26
	mov	DWORD PTR [esp], ebp
	call	_xmlnode_get_child
LVL141:
	mov	ebx, eax
LVL142:
	test	eax, eax
	jne	L135
	jmp	L97
LVL143:
	.p2align 2,,3
L98:
	.loc 1 1974 0
	mov	DWORD PTR [esp], ebx
	call	_xmlnode_get_next_twin
LVL144:
	mov	ebx, eax
LVL145:
	.loc 1 1972 0
	test	eax, eax
	je	L97
L135:
	.loc 1 1976 0
	mov	DWORD PTR [esp+4], OFFSET FLAT:LC27
	mov	DWORD PTR [esp], ebx
	call	_xmlnode_get_attrib
LVL146:
	test	eax, eax
	je	L98
	.loc 1 1977 0 discriminator 1
	mov	edx, DWORD PTR [esi]
	mov	DWORD PTR [esp+4], edx
	mov	DWORD PTR [esp], eax
	call	_strcmp
LVL147:
	.loc 1 1976 0 discriminator 1
	test	eax, eax
	jne	L98
	.loc 1 1977 0
	mov	DWORD PTR [esp+4], OFFSET FLAT:LC30
	mov	DWORD PTR [esp], ebx
	call	_xmlnode_get_child
LVL148:
	test	eax, eax
	je	L98
LBB31:
	.loc 1 1980 0
	mov	DWORD PTR [esp], eax
	call	_xmlnode_get_data
LVL149:
	.loc 1 1981 0
	mov	DWORD PTR [esp+4], eax
	mov	DWORD PTR [esp], edi
	call	_g_list_append
LVL150:
	mov	edi, eax
LVL151:
L99:
LBE31:
	.loc 1 1967 0
	mov	esi, DWORD PTR [esi+4]
LVL152:
	test	esi, esi
	jne	L101
LVL153:
L103:
	.loc 1 1989 0
	mov	DWORD PTR [esp+4], edi
	mov	eax, DWORD PTR [esp+36]
	mov	DWORD PTR [esp], eax
	call	_purple_notify_searchresults_row_add
LVL154:
	.loc 1 1990 0
	mov	DWORD PTR [esp], ebp
	call	_xmlnode_get_next_twin
LVL155:
	mov	ebp, eax
LVL156:
LBE30:
	.loc 1 1961 0
	test	eax, eax
	jne	L134
L96:
	.loc 1 1993 0
	mov	eax, DWORD PTR [esp+40]
LVL157:
	mov	DWORD PTR [esp], eax
	call	_g_slist_free
LVL158:
L104:
LBE25:
	.loc 1 2031 0
	mov	DWORD PTR [esp+8], OFFSET FLAT:_user_search_result_add_buddy_cb
	mov	DWORD PTR [esp+4], 2
	mov	eax, DWORD PTR [esp+36]
	mov	DWORD PTR [esp], eax
	call	_purple_notify_searchresults_button_add
LVL159:
	.loc 1 2034 0
	mov	DWORD PTR [esp+4], OFFSET FLAT:LC36
	mov	DWORD PTR [esp], OFFSET FLAT:LC1
	call	_libintl_dgettext
LVL160:
	mov	DWORD PTR [esp+24], 0
	mov	DWORD PTR [esp+20], 0
	mov	edx, DWORD PTR [esp+36]
	mov	DWORD PTR [esp+16], edx
	mov	DWORD PTR [esp+12], eax
	mov	DWORD PTR [esp+8], 0
	mov	DWORD PTR [esp+4], 0
	mov	edx, DWORD PTR [esp+44]
	mov	eax, DWORD PTR [edx+100]
	mov	DWORD PTR [esp], eax
	call	_purple_notify_searchresults
LVL161:
L86:
	.loc 1 2035 0
	mov	eax, DWORD PTR [esp+60]
	xor	eax, DWORD PTR ___stack_chk_guard
	jne	L152
	add	esp, 76
LCFI53:
	.cfi_remember_state
	.cfi_def_cfa_offset 20
	pop	ebx
LCFI54:
	.cfi_restore 3
	.cfi_def_cfa_offset 16
	pop	esi
LCFI55:
	.cfi_restore 6
	.cfi_def_cfa_offset 12
	pop	edi
LCFI56:
	.cfi_restore 7
	.cfi_def_cfa_offset 8
	pop	ebp
LCFI57:
	.cfi_restore 5
	.cfi_def_cfa_offset 4
	ret
LVL162:
	.p2align 2,,3
L97:
LCFI58:
	.cfi_restore_state
LBB34:
LBB32:
	.loc 1 1987 0
	mov	DWORD PTR [esp+4], 0
	mov	DWORD PTR [esp], edi
	call	_g_list_append
LVL163:
	mov	edi, eax
LVL164:
	jmp	L99
LVL165:
L91:
LBE32:
LBB33:
LBB29:
	.loc 1 1942 0
	mov	DWORD PTR [esp+40], 0
	jmp	L90
LVL166:
L88:
LBE29:
LBE33:
LBE34:
	.loc 1 1996 0
	mov	DWORD PTR [esp+4], OFFSET FLAT:LC31
	mov	DWORD PTR [esp], OFFSET FLAT:LC24
	call	_purple_debug_info
LVL167:
	.loc 1 1998 0
	mov	DWORD PTR [esp+4], OFFSET FLAT:LC32
	mov	DWORD PTR [esp], OFFSET FLAT:LC1
	call	_libintl_dgettext
LVL168:
	mov	DWORD PTR [esp], eax
	call	_purple_notify_searchresults_column_new
LVL169:
	.loc 1 1999 0
	mov	DWORD PTR [esp+4], eax
	mov	eax, DWORD PTR [esp+36]
LVL170:
	mov	DWORD PTR [esp], eax
	call	_purple_notify_searchresults_column_add
LVL171:
	.loc 1 2000 0
	mov	DWORD PTR [esp+4], OFFSET FLAT:LC11
	mov	DWORD PTR [esp], OFFSET FLAT:LC1
	call	_libintl_dgettext
LVL172:
	mov	DWORD PTR [esp], eax
	call	_purple_notify_searchresults_column_new
LVL173:
	.loc 1 2001 0
	mov	DWORD PTR [esp+4], eax
	mov	eax, DWORD PTR [esp+36]
LVL174:
	mov	DWORD PTR [esp], eax
	call	_purple_notify_searchresults_column_add
LVL175:
	.loc 1 2002 0
	mov	DWORD PTR [esp+4], OFFSET FLAT:LC13
	mov	DWORD PTR [esp], OFFSET FLAT:LC1
	call	_libintl_dgettext
LVL176:
	mov	DWORD PTR [esp], eax
	call	_purple_notify_searchresults_column_new
LVL177:
	.loc 1 2003 0
	mov	DWORD PTR [esp+4], eax
	mov	eax, DWORD PTR [esp+36]
LVL178:
	mov	DWORD PTR [esp], eax
	call	_purple_notify_searchresults_column_add
LVL179:
	.loc 1 2004 0
	mov	DWORD PTR [esp+4], OFFSET FLAT:LC15
	mov	DWORD PTR [esp], OFFSET FLAT:LC1
	call	_libintl_dgettext
LVL180:
	mov	DWORD PTR [esp], eax
	call	_purple_notify_searchresults_column_new
LVL181:
	.loc 1 2005 0
	mov	DWORD PTR [esp+4], eax
	mov	eax, DWORD PTR [esp+36]
LVL182:
	mov	DWORD PTR [esp], eax
	call	_purple_notify_searchresults_column_add
LVL183:
	.loc 1 2006 0
	mov	DWORD PTR [esp+4], OFFSET FLAT:LC33
	mov	DWORD PTR [esp], OFFSET FLAT:LC1
	call	_libintl_dgettext
LVL184:
	mov	DWORD PTR [esp], eax
	call	_purple_notify_searchresults_column_new
LVL185:
	.loc 1 2007 0
	mov	DWORD PTR [esp+4], eax
	mov	eax, DWORD PTR [esp+36]
LVL186:
	mov	DWORD PTR [esp], eax
	call	_purple_notify_searchresults_column_add
LVL187:
	.loc 1 2009 0
	mov	DWORD PTR [esp+4], OFFSET FLAT:LC29
	mov	DWORD PTR [esp], ebx
	call	_xmlnode_get_child
LVL188:
	mov	ebx, eax
LVL189:
	test	eax, eax
	jne	L136
	jmp	L104
LVL190:
	.p2align 2,,3
L153:
LBB35:
	.loc 1 2019 0 discriminator 1
	mov	DWORD PTR [esp], eax
	call	_xmlnode_get_data
LVL191:
L107:
	.loc 1 2019 0 is_stmt 0 discriminator 3
	mov	DWORD PTR [esp+4], eax
	mov	DWORD PTR [esp], esi
	call	_g_list_append
LVL192:
	mov	esi, eax
LVL193:
	.loc 1 2020 0 is_stmt 1 discriminator 3
	mov	DWORD PTR [esp+4], OFFSET FLAT:LC12
	mov	DWORD PTR [esp], ebx
	call	_xmlnode_get_child
LVL194:
	.loc 1 2021 0 discriminator 3
	test	eax, eax
	je	L117
	.loc 1 2021 0 is_stmt 0 discriminator 1
	mov	DWORD PTR [esp], eax
	call	_xmlnode_get_data
LVL195:
L108:
	.loc 1 2021 0 discriminator 3
	mov	DWORD PTR [esp+4], eax
	mov	DWORD PTR [esp], esi
	call	_g_list_append
LVL196:
	mov	esi, eax
LVL197:
	.loc 1 2022 0 is_stmt 1 discriminator 3
	mov	DWORD PTR [esp+4], OFFSET FLAT:LC14
	mov	DWORD PTR [esp], ebx
	call	_xmlnode_get_child
LVL198:
	.loc 1 2023 0 discriminator 3
	test	eax, eax
	je	L118
	.loc 1 2023 0 is_stmt 0 discriminator 1
	mov	DWORD PTR [esp], eax
	call	_xmlnode_get_data
LVL199:
L109:
	.loc 1 2023 0 discriminator 3
	mov	DWORD PTR [esp+4], eax
	mov	DWORD PTR [esp], esi
	call	_g_list_append
LVL200:
	mov	esi, eax
LVL201:
	.loc 1 2024 0 is_stmt 1 discriminator 3
	mov	DWORD PTR [esp+4], OFFSET FLAT:LC16
	mov	DWORD PTR [esp], ebx
	call	_xmlnode_get_child
LVL202:
	.loc 1 2025 0 discriminator 3
	test	eax, eax
	je	L119
	.loc 1 2025 0 is_stmt 0 discriminator 1
	mov	DWORD PTR [esp], eax
	call	_xmlnode_get_data
LVL203:
L110:
	.loc 1 2025 0 discriminator 3
	mov	DWORD PTR [esp+4], eax
	mov	DWORD PTR [esp], esi
	call	_g_list_append
LVL204:
	mov	esi, eax
LVL205:
	.loc 1 2026 0 is_stmt 1 discriminator 3
	mov	DWORD PTR [esp+8], eax
	mov	DWORD PTR [esp+4], OFFSET FLAT:LC35
	mov	DWORD PTR [esp], OFFSET FLAT:LC24
	call	_purple_debug_info
LVL206:
	.loc 1 2027 0 discriminator 3
	mov	DWORD PTR [esp+4], esi
	mov	eax, DWORD PTR [esp+36]
	mov	DWORD PTR [esp], eax
	call	_purple_notify_searchresults_row_add
LVL207:
L106:
LBE35:
	.loc 1 2009 0
	mov	DWORD PTR [esp], ebx
	call	_xmlnode_get_next_twin
LVL208:
	mov	ebx, eax
LVL209:
	test	eax, eax
	je	L104
L136:
LVL210:
LBB36:
	.loc 1 2014 0
	mov	DWORD PTR [esp+4], OFFSET FLAT:LC34
	mov	DWORD PTR [esp], ebx
	call	_xmlnode_get_attrib
LVL211:
	test	eax, eax
	je	L106
	.loc 1 2017 0
	mov	DWORD PTR [esp], eax
	call	_g_strdup
LVL212:
	mov	DWORD PTR [esp+4], eax
	mov	DWORD PTR [esp], 0
	call	_g_list_append
LVL213:
	mov	esi, eax
LVL214:
	.loc 1 2018 0
	mov	DWORD PTR [esp+4], OFFSET FLAT:LC10
	mov	DWORD PTR [esp], ebx
	call	_xmlnode_get_child
LVL215:
	.loc 1 2019 0
	test	eax, eax
	jne	L153
	xor	eax, eax
LVL216:
	jmp	L107
LVL217:
L119:
	.loc 1 2025 0
	xor	eax, eax
LVL218:
	jmp	L110
LVL219:
L117:
	.loc 1 2021 0
	xor	eax, eax
LVL220:
	jmp	L108
LVL221:
L118:
	.loc 1 2023 0
	xor	eax, eax
LVL222:
	jmp	L109
LVL223:
L152:
LBE36:
	.loc 1 2035 0
	call	___stack_chk_fail
LVL224:
	.cfi_endproc
LFE138:
	.p2align 2,,3
	.def	_user_search_result_add_buddy_cb;	.scl	3;	.type	32;	.endef
_user_search_result_add_buddy_cb:
LFB137:
	.loc 1 1921 0
	.cfi_startproc
LVL225:
	push	esi
LCFI59:
	.cfi_def_cfa_offset 8
	.cfi_offset 6, -8
	push	ebx
LCFI60:
	.cfi_def_cfa_offset 12
	.cfi_offset 3, -12
	sub	esp, 36
LCFI61:
	.cfi_def_cfa_offset 48
	mov	esi, DWORD PTR [esp+48]
	.loc 1 1921 0
	mov	eax, DWORD PTR ___stack_chk_guard
	mov	DWORD PTR [esp+28], eax
	xor	eax, eax
	.loc 1 1924 0
	mov	DWORD PTR [esp+4], 0
	mov	eax, DWORD PTR [esp+52]
	mov	DWORD PTR [esp], eax
	call	_g_list_nth_data
LVL226:
	mov	ebx, eax
	.loc 1 1923 0
	mov	DWORD PTR [esp], esi
	call	_purple_connection_get_account
LVL227:
	mov	DWORD PTR [esp+12], 0
	mov	DWORD PTR [esp+8], 0
	mov	DWORD PTR [esp+4], ebx
	mov	DWORD PTR [esp], eax
	call	_purple_blist_request_add_buddy
LVL228:
	.loc 1 1925 0
	mov	eax, DWORD PTR [esp+28]
	xor	eax, DWORD PTR ___stack_chk_guard
	jne	L157
	add	esp, 36
LCFI62:
	.cfi_remember_state
	.cfi_def_cfa_offset 12
	pop	ebx
LCFI63:
	.cfi_restore 3
	.cfi_def_cfa_offset 8
	pop	esi
LCFI64:
	.cfi_restore 6
	.cfi_def_cfa_offset 4
	ret
L157:
LCFI65:
	.cfi_restore_state
	call	___stack_chk_fail
LVL229:
	.cfi_endproc
LFE137:
	.section .rdata,"dr"
LC37:
	.ascii "type\0"
LC38:
	.ascii "cancel\0"
	.text
	.p2align 2,,3
	.def	_user_search_x_data_cb;	.scl	3;	.type	32;	.endef
_user_search_x_data_cb:
LFB139:
	.loc 1 2038 0
	.cfi_startproc
LVL230:
	push	ebp
LCFI66:
	.cfi_def_cfa_offset 8
	.cfi_offset 5, -8
	push	edi
LCFI67:
	.cfi_def_cfa_offset 12
	.cfi_offset 7, -12
	push	esi
LCFI68:
	.cfi_def_cfa_offset 16
	.cfi_offset 6, -16
	push	ebx
LCFI69:
	.cfi_def_cfa_offset 20
	.cfi_offset 3, -20
	sub	esp, 60
LCFI70:
	.cfi_def_cfa_offset 80
	mov	eax, DWORD PTR [esp+80]
	mov	DWORD PTR [esp+28], eax
	mov	ebx, DWORD PTR [esp+84]
	mov	ebp, DWORD PTR [esp+88]
	.loc 1 2038 0
	mov	eax, DWORD PTR ___stack_chk_guard
	mov	DWORD PTR [esp+44], eax
	xor	eax, eax
LVL231:
	.loc 1 2047 0
	mov	DWORD PTR [esp+4], OFFSET FLAT:LC37
	mov	DWORD PTR [esp], ebx
	call	_xmlnode_get_attrib
LVL232:
	.loc 1 2048 0
	test	eax, eax
	je	L159
	.loc 1 2048 0 is_stmt 0 discriminator 1
	mov	edi, OFFSET FLAT:LC38
	mov	ecx, 7
	mov	esi, eax
	repe cmpsb
LVL233:
	je	L169
L159:
	.loc 1 2053 0 is_stmt 1
	mov	DWORD PTR [esp+8], OFFSET FLAT:LC21
	mov	DWORD PTR [esp+4], 0
	mov	eax, DWORD PTR [esp+28]
	mov	DWORD PTR [esp], eax
	call	_jabber_iq_new_query
LVL234:
	mov	esi, eax
LVL235:
	.loc 1 2054 0
	mov	DWORD PTR [esp+4], OFFSET FLAT:LC4
	mov	eax, DWORD PTR [eax+8]
LVL236:
	mov	DWORD PTR [esp], eax
	call	_xmlnode_get_child
LVL237:
	.loc 1 2056 0
	mov	DWORD PTR [esp+4], ebx
	mov	DWORD PTR [esp], eax
	call	_xmlnode_insert_child
LVL238:
	.loc 1 2058 0
	mov	DWORD PTR [esp+8], 0
	mov	DWORD PTR [esp+4], OFFSET FLAT:_user_search_result_cb
	mov	DWORD PTR [esp], esi
	call	_jabber_iq_set_callback
LVL239:
	.loc 1 2059 0
	mov	DWORD PTR [esp+8], ebp
	mov	DWORD PTR [esp+4], OFFSET FLAT:LC22
	mov	eax, DWORD PTR [esi+8]
	mov	DWORD PTR [esp], eax
	call	_xmlnode_set_attrib
LVL240:
	.loc 1 2060 0
	mov	DWORD PTR [esp], esi
	call	_jabber_iq_send
LVL241:
L169:
	.loc 1 2061 0
	mov	eax, DWORD PTR [esp+44]
	xor	eax, DWORD PTR ___stack_chk_guard
	jne	L170
	mov	DWORD PTR [esp+80], ebp
	.loc 1 2062 0
	add	esp, 60
LCFI71:
	.cfi_remember_state
	.cfi_def_cfa_offset 20
	pop	ebx
LCFI72:
	.cfi_restore 3
	.cfi_def_cfa_offset 16
	pop	esi
LCFI73:
	.cfi_restore 6
	.cfi_def_cfa_offset 12
	pop	edi
LCFI74:
	.cfi_restore 7
	.cfi_def_cfa_offset 8
	pop	ebp
LCFI75:
	.cfi_restore 5
	.cfi_def_cfa_offset 4
LVL242:
	.loc 1 2061 0
	jmp	_g_free
LVL243:
L170:
LCFI76:
	.cfi_restore_state
	call	___stack_chk_fail
LVL244:
	.cfi_endproc
LFE139:
	.section .rdata,"dr"
LC39:
	.ascii "unsubscribed\0"
	.text
	.p2align 2,,3
	.def	_cancel_presence_notification;	.scl	3;	.type	32;	.endef
_cancel_presence_notification:
LFB129:
	.loc 1 1703 0
	.cfi_startproc
LVL245:
	push	esi
LCFI77:
	.cfi_def_cfa_offset 8
	.cfi_offset 6, -8
	push	ebx
LCFI78:
	.cfi_def_cfa_offset 12
	.cfi_offset 3, -12
	sub	esp, 36
LCFI79:
	.cfi_def_cfa_offset 48
	mov	ebx, DWORD PTR [esp+48]
	.loc 1 1703 0
	mov	eax, DWORD PTR ___stack_chk_guard
	mov	DWORD PTR [esp+28], eax
	xor	eax, eax
LVL246:
	.loc 1 1709 0
	mov	DWORD PTR [esp], ebx
	call	_purple_buddy_get_account
LVL247:
	mov	DWORD PTR [esp], eax
	call	_purple_account_get_connection
LVL248:
	.loc 1 1710 0
	mov	DWORD PTR [esp], eax
	call	_purple_connection_get_protocol_data
LVL249:
	mov	esi, eax
LVL250:
	.loc 1 1712 0
	mov	DWORD PTR [esp], ebx
	call	_purple_buddy_get_name
LVL251:
	mov	DWORD PTR [esp+8], OFFSET FLAT:LC39
	mov	DWORD PTR [esp+4], eax
	mov	DWORD PTR [esp], esi
	call	_jabber_presence_subscription_set
LVL252:
	.loc 1 1713 0
	mov	eax, DWORD PTR [esp+28]
	xor	eax, DWORD PTR ___stack_chk_guard
	jne	L174
	add	esp, 36
LCFI80:
	.cfi_remember_state
	.cfi_def_cfa_offset 12
	pop	ebx
LCFI81:
	.cfi_restore 3
	.cfi_def_cfa_offset 8
LVL253:
	pop	esi
LCFI82:
	.cfi_restore 6
	.cfi_def_cfa_offset 4
LVL254:
	ret
LVL255:
L174:
LCFI83:
	.cfi_restore_state
	call	___stack_chk_fail
LVL256:
	.cfi_endproc
LFE129:
	.section .rdata,"dr"
	.align 4
LC40:
	.ascii "PURPLE_BLIST_NODE_IS_BUDDY(node)\0"
	.align 4
LC41:
	.ascii "%s will no longer be able to see your status updates.  Do you want to continue?\0"
LC42:
	.ascii "_No\0"
LC43:
	.ascii "_Yes\0"
LC44:
	.ascii "Cancel Presence Notification\0"
	.text
	.p2align 2,,3
	.def	_jabber_buddy_cancel_presence_notification;	.scl	3;	.type	32;	.endef
_jabber_buddy_cancel_presence_notification:
LFB130:
	.loc 1 1718 0
	.cfi_startproc
LVL257:
	push	ebp
LCFI84:
	.cfi_def_cfa_offset 8
	.cfi_offset 5, -8
	push	edi
LCFI85:
	.cfi_def_cfa_offset 12
	.cfi_offset 7, -12
	push	esi
LCFI86:
	.cfi_def_cfa_offset 16
	.cfi_offset 6, -16
	push	ebx
LCFI87:
	.cfi_def_cfa_offset 20
	.cfi_offset 3, -20
	sub	esp, 108
LCFI88:
	.cfi_def_cfa_offset 128
	mov	ebx, DWORD PTR [esp+128]
	.loc 1 1718 0
	mov	eax, DWORD PTR ___stack_chk_guard
	mov	DWORD PTR [esp+92], eax
	xor	eax, eax
LBB37:
	.loc 1 1725 0
	mov	DWORD PTR [esp], ebx
	call	_purple_blist_node_get_type
LVL258:
	cmp	eax, 2
	je	L176
LVL259:
LBE37:
	mov	DWORD PTR [esp+8], OFFSET FLAT:LC40
	mov	DWORD PTR [esp+4], OFFSET FLAT:___PRETTY_FUNCTION__.50090
	mov	DWORD PTR [esp], 0
	call	_g_return_if_fail_warning
LVL260:
	.loc 1 1738 0
	mov	eax, DWORD PTR [esp+92]
	xor	eax, DWORD PTR ___stack_chk_guard
	jne	L181
	add	esp, 108
LCFI89:
	.cfi_remember_state
	.cfi_def_cfa_offset 20
	pop	ebx
LCFI90:
	.cfi_restore 3
	.cfi_def_cfa_offset 16
	pop	esi
LCFI91:
	.cfi_restore 6
	.cfi_def_cfa_offset 12
	pop	edi
LCFI92:
	.cfi_restore 7
	.cfi_def_cfa_offset 8
	pop	ebp
LCFI93:
	.cfi_restore 5
	.cfi_def_cfa_offset 4
	ret
LVL261:
	.p2align 2,,3
L176:
LCFI94:
	.cfi_restore_state
	.loc 1 1728 0
	mov	DWORD PTR [esp], ebx
	call	_purple_buddy_get_name
LVL262:
	mov	esi, eax
LVL263:
	.loc 1 1729 0
	mov	DWORD PTR [esp], ebx
	call	_purple_buddy_get_account
LVL264:
	mov	edi, eax
LVL265:
	.loc 1 1730 0
	mov	DWORD PTR [esp], eax
	call	_purple_account_get_connection
LVL266:
	mov	DWORD PTR [esp+76], eax
LVL267:
	.loc 1 1732 0
	mov	DWORD PTR [esp+4], OFFSET FLAT:LC41
	mov	DWORD PTR [esp], OFFSET FLAT:LC1
	call	_libintl_dgettext
LVL268:
	mov	DWORD PTR [esp+4], esi
	mov	DWORD PTR [esp], eax
	call	_g_strdup_printf
LVL269:
	mov	ebp, eax
LVL270:
	.loc 1 1734 0
	mov	DWORD PTR [esp+4], OFFSET FLAT:LC42
	mov	DWORD PTR [esp], OFFSET FLAT:LC1
	call	_libintl_dgettext
LVL271:
	mov	DWORD PTR [esp+4], OFFSET FLAT:LC43
	mov	DWORD PTR [esp], OFFSET FLAT:LC1
	mov	DWORD PTR [esp+68], eax
	call	_libintl_dgettext
LVL272:
	mov	DWORD PTR [esp+4], OFFSET FLAT:LC44
	mov	DWORD PTR [esp], OFFSET FLAT:LC1
	mov	DWORD PTR [esp+72], eax
	call	_libintl_dgettext
LVL273:
	mov	DWORD PTR [esp+52], 0
	mov	ecx, DWORD PTR [esp+68]
	mov	DWORD PTR [esp+48], ecx
	mov	DWORD PTR [esp+44], OFFSET FLAT:_cancel_presence_notification
	mov	edx, DWORD PTR [esp+72]
	mov	DWORD PTR [esp+40], edx
	mov	DWORD PTR [esp+36], 2
	mov	DWORD PTR [esp+32], ebx
	mov	DWORD PTR [esp+28], 0
	mov	DWORD PTR [esp+24], esi
	mov	DWORD PTR [esp+20], edi
	mov	DWORD PTR [esp+16], 0
	mov	DWORD PTR [esp+12], ebp
	mov	DWORD PTR [esp+8], eax
	mov	DWORD PTR [esp+4], 0
	mov	eax, DWORD PTR [esp+76]
	mov	DWORD PTR [esp], eax
	call	_purple_request_action
LVL274:
	.loc 1 1737 0
	mov	eax, DWORD PTR [esp+92]
	xor	eax, DWORD PTR ___stack_chk_guard
	jne	L181
	mov	DWORD PTR [esp+128], ebp
	.loc 1 1738 0
	add	esp, 108
LCFI95:
	.cfi_remember_state
	.cfi_def_cfa_offset 20
	pop	ebx
LCFI96:
	.cfi_restore 3
	.cfi_def_cfa_offset 16
LVL275:
	pop	esi
LCFI97:
	.cfi_restore 6
	.cfi_def_cfa_offset 12
LVL276:
	pop	edi
LCFI98:
	.cfi_restore 7
	.cfi_def_cfa_offset 8
LVL277:
	pop	ebp
LCFI99:
	.cfi_restore 5
	.cfi_def_cfa_offset 4
LVL278:
	.loc 1 1737 0
	jmp	_g_free
LVL279:
L181:
LCFI100:
	.cfi_restore_state
	.loc 1 1738 0
	call	___stack_chk_fail
LVL280:
	.cfi_endproc
LFE130:
	.p2align 2,,3
	.def	_jbir_equal;	.scl	3;	.type	32;	.endef
_jbir_equal:
LFB115:
	.loc 1 1233 0
	.cfi_startproc
LVL281:
	sub	esp, 28
LCFI101:
	.cfi_def_cfa_offset 32
	mov	eax, DWORD PTR [esp+32]
	mov	edx, DWORD PTR [esp+36]
	.loc 1 1233 0
	mov	ecx, DWORD PTR ___stack_chk_guard
	mov	DWORD PTR [esp+12], ecx
	xor	ecx, ecx
LVL282:
	.loc 1 1237 0
	mov	ecx, DWORD PTR [esp+12]
	xor	ecx, DWORD PTR ___stack_chk_guard
	jne	L187
	mov	DWORD PTR [esp+36], edx
	mov	DWORD PTR [esp+32], eax
	.loc 1 1238 0
	add	esp, 28
LCFI102:
	.cfi_remember_state
	.cfi_def_cfa_offset 4
	.loc 1 1237 0
	jmp	_purple_strequal
LVL283:
L187:
LCFI103:
	.cfi_restore_state
	call	___stack_chk_fail
LVL284:
	.cfi_endproc
LFE115:
	.p2align 2,,3
	.def	_jabber_buddy_info_destroy;	.scl	3;	.type	32;	.endef
_jabber_buddy_info_destroy:
LFB105:
	.loc 1 695 0
	.cfi_startproc
LVL285:
	push	ebx
LCFI104:
	.cfi_def_cfa_offset 8
	.cfi_offset 3, -8
	sub	esp, 40
LCFI105:
	.cfi_def_cfa_offset 48
	mov	ebx, eax
	.loc 1 695 0
	mov	eax, DWORD PTR ___stack_chk_guard
	mov	DWORD PTR [esp+28], eax
	xor	eax, eax
LVL286:
	.loc 1 697 0
	mov	eax, DWORD PTR [ebx+20]
	test	eax, eax
	je	L189
	.loc 1 698 0
	mov	DWORD PTR [esp], eax
	call	_purple_timeout_remove
LVL287:
L189:
	.loc 1 700 0
	mov	eax, DWORD PTR [ebx+8]
	mov	DWORD PTR [esp], eax
	call	_g_free
LVL288:
	.loc 1 701 0
	mov	eax, DWORD PTR [ebx+16]
	mov	DWORD PTR [esp], eax
	call	_g_hash_table_destroy
LVL289:
	.loc 1 702 0
	mov	eax, DWORD PTR [ebx+36]
	mov	DWORD PTR [esp], eax
	call	_g_free
LVL290:
	.loc 1 703 0
	mov	eax, DWORD PTR [ebx+28]
	mov	DWORD PTR [esp], eax
	call	_purple_notify_user_info_destroy
LVL291:
	.loc 1 704 0
	mov	DWORD PTR [esp], ebx
	call	_g_free
LVL292:
	.loc 1 705 0
	mov	eax, DWORD PTR [esp+28]
	xor	eax, DWORD PTR ___stack_chk_guard
	jne	L195
	add	esp, 40
LCFI106:
	.cfi_remember_state
	.cfi_def_cfa_offset 8
	pop	ebx
LCFI107:
	.cfi_restore 3
	.cfi_def_cfa_offset 4
LVL293:
	ret
LVL294:
L195:
LCFI108:
	.cfi_restore_state
	call	___stack_chk_fail
LVL295:
	.cfi_endproc
LFE105:
	.p2align 2,,3
	.def	_jbir_hash;	.scl	3;	.type	32;	.endef
_jbir_hash:
LFB114:
	.loc 1 1225 0
	.cfi_startproc
LVL296:
	sub	esp, 28
LCFI109:
	.cfi_def_cfa_offset 32
	mov	eax, DWORD PTR [esp+32]
	.loc 1 1225 0
	mov	edx, DWORD PTR ___stack_chk_guard
	mov	DWORD PTR [esp+12], edx
	xor	edx, edx
	.loc 1 1226 0
	test	eax, eax
	je	L197
	.loc 1 1227 0
	mov	edx, DWORD PTR [esp+12]
	xor	edx, DWORD PTR ___stack_chk_guard
	jne	L201
	mov	DWORD PTR [esp+32], eax
	.loc 1 1230 0
	add	esp, 28
LCFI110:
	.cfi_remember_state
	.cfi_def_cfa_offset 4
	.loc 1 1227 0
	jmp	_g_str_hash
LVL297:
	.p2align 2,,3
L197:
LCFI111:
	.cfi_restore_state
	.loc 1 1230 0
	xor	eax, eax
	mov	edx, DWORD PTR [esp+12]
	xor	edx, DWORD PTR ___stack_chk_guard
	jne	L201
	add	esp, 28
LCFI112:
	.cfi_remember_state
	.cfi_def_cfa_offset 4
	ret
L201:
LCFI113:
	.cfi_restore_state
	call	___stack_chk_fail
LVL298:
	.cfi_endproc
LFE114:
	.p2align 2,,3
	.def	_insert_tag_to_parent_tag;	.scl	3;	.type	32;	.endef
_insert_tag_to_parent_tag:
LFB100:
	.loc 1 399 0
	.cfi_startproc
LVL299:
	push	ebp
LCFI114:
	.cfi_def_cfa_offset 8
	.cfi_offset 5, -8
	push	edi
LCFI115:
	.cfi_def_cfa_offset 12
	.cfi_offset 7, -12
	push	esi
LCFI116:
	.cfi_def_cfa_offset 16
	.cfi_offset 6, -16
	push	ebx
LCFI117:
	.cfi_def_cfa_offset 20
	.cfi_offset 3, -20
	sub	esp, 60
LCFI118:
	.cfi_def_cfa_offset 80
	mov	edi, eax
	mov	esi, ecx
	.loc 1 399 0
	mov	eax, DWORD PTR ___stack_chk_guard
	mov	DWORD PTR [esp+44], eax
	xor	eax, eax
LVL300:
	.loc 1 406 0
	test	edx, edx
	je	L218
LVL301:
L203:
	.loc 1 425 0
	mov	DWORD PTR [esp+4], edx
	mov	DWORD PTR [esp], edi
	mov	DWORD PTR [esp+28], edx
	call	_xmlnode_get_child
LVL302:
	mov	ebx, eax
LVL303:
	test	eax, eax
	mov	edx, DWORD PTR [esp+28]
	je	L219
LBB38:
	.loc 1 445 0
	mov	DWORD PTR [esp+4], esi
	mov	DWORD PTR [esp], eax
	call	_xmlnode_get_child
LVL304:
	test	eax, eax
	je	L220
LVL305:
L211:
LBE38:
	.loc 1 455 0
	mov	edx, DWORD PTR [esp+44]
	xor	edx, DWORD PTR ___stack_chk_guard
	jne	L221
	add	esp, 60
LCFI119:
	.cfi_remember_state
	.cfi_def_cfa_offset 20
	pop	ebx
LCFI120:
	.cfi_restore 3
	.cfi_def_cfa_offset 16
	pop	esi
LCFI121:
	.cfi_restore 6
	.cfi_def_cfa_offset 12
LVL306:
	pop	edi
LCFI122:
	.cfi_restore 7
	.cfi_def_cfa_offset 8
	pop	ebp
LCFI123:
	.cfi_restore 5
	.cfi_def_cfa_offset 4
	ret
LVL307:
	.p2align 2,,3
L220:
LCFI124:
	.cfi_restore_state
LBB39:
	.loc 1 445 0
	mov	edi, ebx
LVL308:
L210:
LBE39:
	.loc 1 454 0 discriminator 3
	mov	DWORD PTR [esp+4], esi
	mov	DWORD PTR [esp], edi
	call	_xmlnode_new_child
LVL309:
	jmp	L211
LVL310:
	.p2align 2,,3
L218:
	.loc 1 406 0
	mov	ebx, OFFSET FLAT:_vcard_template_data
	jmp	L206
LVL311:
	.p2align 2,,3
L204:
LBB40:
	.loc 1 414 0
	add	ebx, 12
LVL312:
	.loc 1 409 0
	mov	ecx, DWORD PTR [ebx]
	test	ecx, ecx
	je	L210
LVL313:
L206:
	.loc 1 410 0
	mov	DWORD PTR [esp+4], esi
	mov	eax, DWORD PTR [ebx+4]
	mov	DWORD PTR [esp], eax
	call	_strcmp
LVL314:
	test	eax, eax
	jne	L204
	.loc 1 411 0
	mov	edx, DWORD PTR [ebx+8]
LVL315:
LBE40:
	.loc 1 421 0
	test	edx, edx
	je	L210
	jmp	L203
LVL316:
	.p2align 2,,3
L219:
LBB41:
	.loc 1 429 0
	mov	DWORD PTR [esp], edx
	call	_g_strdup
LVL317:
	mov	ebx, eax
LVL318:
	.loc 1 432 0
	mov	DWORD PTR [esp+4], 47
	mov	DWORD PTR [esp], eax
	call	_strrchr
LVL319:
	test	eax, eax
	je	L208
	.loc 1 433 0
	mov	BYTE PTR [eax], 0
LVL320:
	lea	ecx, [eax+1]
LVL321:
	.loc 1 434 0
	mov	edx, ebx
	mov	eax, edi
	call	_insert_tag_to_parent_tag
LVL322:
	mov	ebp, eax
LVL323:
L209:
	.loc 1 438 0
	mov	DWORD PTR [esp], ebx
	call	_g_free
LVL324:
LBE41:
	.loc 1 454 0
	test	ebp, ebp
	je	L210
	mov	edi, ebp
LVL325:
	jmp	L210
LVL326:
L208:
LBB42:
	.loc 1 436 0
	mov	DWORD PTR [esp+4], ebx
	mov	DWORD PTR [esp], edi
	call	_xmlnode_new_child
LVL327:
	mov	ebp, eax
LVL328:
	jmp	L209
LVL329:
L221:
LBE42:
	.loc 1 455 0
	call	___stack_chk_fail
LVL330:
	.cfi_endproc
LFE100:
	.section .rdata,"dr"
LC45:
	.ascii "prodid\0"
LC46:
	.ascii "Full Name\0"
LC47:
	.ascii "vCard\0"
LC48:
	.ascii "Setting %s to '%s'\12\0"
	.text
	.p2align 2,,3
	.def	_jabber_format_info;	.scl	3;	.type	32;	.endef
_jabber_format_info:
LFB103:
	.loc 1 565 0
	.cfi_startproc
LVL331:
	push	ebp
LCFI125:
	.cfi_def_cfa_offset 8
	.cfi_offset 5, -8
	push	edi
LCFI126:
	.cfi_def_cfa_offset 12
	.cfi_offset 7, -12
	push	esi
LCFI127:
	.cfi_def_cfa_offset 16
	.cfi_offset 6, -16
	push	ebx
LCFI128:
	.cfi_def_cfa_offset 20
	.cfi_offset 3, -20
	sub	esp, 60
LCFI129:
	.cfi_def_cfa_offset 80
	mov	eax, DWORD PTR [esp+80]
	mov	DWORD PTR [esp+28], eax
	mov	ebp, DWORD PTR [esp+84]
	.loc 1 565 0
	mov	eax, DWORD PTR ___stack_chk_guard
	mov	DWORD PTR [esp+44], eax
	xor	eax, eax
	.loc 1 573 0
	mov	DWORD PTR [esp], OFFSET FLAT:LC47
	call	_xmlnode_new
LVL332:
	mov	esi, eax
LVL333:
	.loc 1 575 0
	mov	eax, OFFSET FLAT:LC45
LVL334:
	mov	ebx, OFFSET FLAT:_vcard_tag_attr_list
LVL335:
	.p2align 2,,3
L223:
	.loc 1 576 0 discriminator 2
	mov	edx, DWORD PTR [ebx+4]
	mov	DWORD PTR [esp+8], edx
	mov	DWORD PTR [esp+4], eax
	mov	DWORD PTR [esp], esi
	call	_xmlnode_set_attrib
LVL336:
	.loc 1 575 0 discriminator 2
	add	ebx, 8
LVL337:
	mov	eax, DWORD PTR [ebx]
	test	eax, eax
	jne	L223
	.loc 1 575 0 is_stmt 0
	mov	eax, OFFSET FLAT:LC46
	mov	ebx, OFFSET FLAT:_vcard_template_data
LVL338:
	jmp	L227
	.p2align 2,,3
L225:
	.loc 1 578 0 is_stmt 1
	add	ebx, 12
LVL339:
	mov	eax, DWORD PTR [ebx]
	test	eax, eax
	je	L239
LVL340:
L227:
	.loc 1 579 0
	cmp	BYTE PTR [eax], 0
	je	L225
	.loc 1 582 0
	mov	eax, DWORD PTR [ebx+4]
	mov	DWORD PTR [esp+4], eax
	mov	DWORD PTR [esp], ebp
	call	_purple_request_fields_get_field
LVL341:
	.loc 1 583 0
	mov	DWORD PTR [esp], eax
	call	_purple_request_field_string_get_value
LVL342:
	mov	edi, eax
LVL343:
	.loc 1 586 0
	test	eax, eax
	je	L225
	.loc 1 586 0 is_stmt 0 discriminator 1
	cmp	BYTE PTR [eax], 0
	je	L225
LBB43:
	.loc 1 589 0 is_stmt 1
	mov	DWORD PTR [esp+12], eax
	mov	eax, DWORD PTR [ebx+4]
LVL344:
	mov	DWORD PTR [esp+8], eax
	mov	DWORD PTR [esp+4], OFFSET FLAT:LC48
	mov	DWORD PTR [esp], OFFSET FLAT:LC24
	call	_purple_debug_info
LVL345:
	.loc 1 591 0
	mov	ecx, DWORD PTR [ebx+4]
	xor	edx, edx
	mov	eax, esi
	call	_insert_tag_to_parent_tag
LVL346:
	test	eax, eax
	je	L225
	.loc 1 594 0
	mov	DWORD PTR [esp+8], -1
	mov	DWORD PTR [esp+4], edi
	mov	DWORD PTR [esp], eax
	call	_xmlnode_insert_data
LVL347:
LBE43:
	.loc 1 578 0
	add	ebx, 12
LVL348:
	mov	eax, DWORD PTR [ebx]
	test	eax, eax
	jne	L227
LVL349:
	.p2align 2,,3
L239:
	.loc 1 599 0
	mov	DWORD PTR [esp+4], 0
	mov	DWORD PTR [esp], esi
	call	_xmlnode_to_str
LVL350:
	mov	ebx, eax
LVL351:
	.loc 1 600 0
	mov	DWORD PTR [esp], esi
	call	_xmlnode_free
LVL352:
	.loc 1 602 0
	mov	eax, DWORD PTR [esp+28]
	mov	DWORD PTR [esp], eax
	call	_purple_connection_get_account
LVL353:
	mov	DWORD PTR [esp+4], ebx
	mov	DWORD PTR [esp], eax
	call	_purple_account_set_user_info
LVL354:
	.loc 1 603 0
	mov	DWORD PTR [esp+4], ebx
	mov	eax, DWORD PTR [esp+28]
	mov	DWORD PTR [esp], eax
	call	_serv_set_info
LVL355:
	.loc 1 605 0
	mov	eax, DWORD PTR [esp+44]
	xor	eax, DWORD PTR ___stack_chk_guard
	jne	L240
	mov	DWORD PTR [esp+80], ebx
	.loc 1 606 0
	add	esp, 60
LCFI130:
	.cfi_remember_state
	.cfi_def_cfa_offset 20
	pop	ebx
LCFI131:
	.cfi_restore 3
	.cfi_def_cfa_offset 16
LVL356:
	pop	esi
LCFI132:
	.cfi_restore 6
	.cfi_def_cfa_offset 12
LVL357:
	pop	edi
LCFI133:
	.cfi_restore 7
	.cfi_def_cfa_offset 8
	pop	ebp
LCFI134:
	.cfi_restore 5
	.cfi_def_cfa_offset 4
	.loc 1 605 0
	jmp	_g_free
LVL358:
L240:
LCFI135:
	.cfi_restore_state
	call	___stack_chk_fail
LVL359:
	.cfi_endproc
LFE103:
	.section .rdata,"dr"
LC49:
	.ascii "jbr != NULL\0"
	.text
	.p2align 2,,3
	.def	_jabber_buddy_resource_free;	.scl	3;	.type	32;	.endef
_jabber_buddy_resource_free:
LFB93:
	.loc 1 62 0
	.cfi_startproc
LVL360:
	push	esi
LCFI136:
	.cfi_def_cfa_offset 8
	.cfi_offset 6, -8
	push	ebx
LCFI137:
	.cfi_def_cfa_offset 12
	.cfi_offset 3, -12
	sub	esp, 36
LCFI138:
	.cfi_def_cfa_offset 48
	mov	ebx, eax
	.loc 1 62 0
	mov	eax, DWORD PTR ___stack_chk_guard
	mov	DWORD PTR [esp+28], eax
	xor	eax, eax
LVL361:
LBB44:
	.loc 1 63 0
	test	ebx, ebx
	je	L258
LVL362:
LBE44:
	.loc 1 65 0
	mov	esi, DWORD PTR [ebx]
	mov	DWORD PTR [esp+4], ebx
	mov	eax, DWORD PTR [esi]
	mov	DWORD PTR [esp], eax
	call	_g_list_remove
LVL363:
	mov	DWORD PTR [esi], eax
	.loc 1 67 0
	mov	eax, DWORD PTR [ebx+60]
	test	eax, eax
	je	L250
	.p2align 2,,3
L253:
LBB45:
	.loc 1 68 0
	mov	esi, DWORD PTR [eax]
LVL364:
	.loc 1 69 0
	mov	eax, DWORD PTR [esi]
	mov	DWORD PTR [esp], eax
	call	_g_free
LVL365:
	.loc 1 70 0
	mov	eax, DWORD PTR [esi+4]
	mov	DWORD PTR [esp], eax
	call	_g_free
LVL366:
	.loc 1 71 0
	mov	eax, DWORD PTR [esi+8]
	mov	DWORD PTR [esp], eax
	call	_g_free
LVL367:
	.loc 1 72 0
	mov	DWORD PTR [esp], esi
	call	_g_free
LVL368:
	.loc 1 73 0
	mov	eax, DWORD PTR [ebx+60]
	mov	DWORD PTR [esp+4], eax
	mov	DWORD PTR [esp], eax
	call	_g_list_delete_link
LVL369:
	mov	DWORD PTR [ebx+60], eax
LBE45:
	.loc 1 67 0
	test	eax, eax
	jne	L253
LVL370:
L250:
	.loc 1 76 0
	mov	eax, DWORD PTR [ebx+56]
	test	eax, eax
	je	L248
	.p2align 2,,3
L252:
	.loc 1 77 0
	mov	eax, DWORD PTR [eax]
	mov	DWORD PTR [esp], eax
	call	_g_free
LVL371:
	.loc 1 78 0
	mov	eax, DWORD PTR [ebx+56]
	mov	DWORD PTR [esp+4], eax
	mov	DWORD PTR [esp], eax
	call	_g_list_delete_link
LVL372:
	mov	DWORD PTR [ebx+56], eax
	.loc 1 76 0
	test	eax, eax
	jne	L252
L248:
	.loc 1 81 0
	mov	eax, DWORD PTR [ebx+4]
	mov	DWORD PTR [esp], eax
	call	_g_free
LVL373:
	.loc 1 82 0
	mov	eax, DWORD PTR [ebx+16]
	mov	DWORD PTR [esp], eax
	call	_g_free
LVL374:
	.loc 1 83 0
	mov	eax, DWORD PTR [ebx+28]
	mov	DWORD PTR [esp], eax
	call	_g_free
LVL375:
	.loc 1 84 0
	mov	eax, DWORD PTR [ebx+40]
	mov	DWORD PTR [esp], eax
	call	_g_free
LVL376:
	.loc 1 85 0
	mov	eax, DWORD PTR [ebx+36]
	mov	DWORD PTR [esp], eax
	call	_g_free
LVL377:
	.loc 1 86 0
	mov	eax, DWORD PTR [ebx+44]
	mov	DWORD PTR [esp], eax
	call	_g_free
LVL378:
	.loc 1 87 0
	mov	DWORD PTR [esp], ebx
	call	_g_free
LVL379:
L241:
	.loc 1 88 0
	mov	eax, DWORD PTR [esp+28]
	xor	eax, DWORD PTR ___stack_chk_guard
	jne	L259
	add	esp, 36
LCFI139:
	.cfi_remember_state
	.cfi_def_cfa_offset 12
	pop	ebx
LCFI140:
	.cfi_restore 3
	.cfi_def_cfa_offset 8
LVL380:
	pop	esi
LCFI141:
	.cfi_restore 6
	.cfi_def_cfa_offset 4
	ret
LVL381:
	.p2align 2,,3
L258:
LCFI142:
	.cfi_restore_state
	.loc 1 63 0
	mov	DWORD PTR [esp+8], OFFSET FLAT:LC49
	mov	DWORD PTR [esp+4], OFFSET FLAT:___PRETTY_FUNCTION__.49619
	mov	DWORD PTR [esp], 0
	call	_g_return_if_fail_warning
LVL382:
	jmp	L241
LVL383:
L259:
	.loc 1 88 0
	call	___stack_chk_fail
LVL384:
	.cfi_endproc
LFE93:
	.p2align 2,,3
	.def	_resource_compare_cb;	.scl	3;	.type	32;	.endef
_resource_compare_cb:
LFB96:
	.loc 1 129 0
	.cfi_startproc
LVL385:
	push	ebx
LCFI143:
	.cfi_def_cfa_offset 8
	.cfi_offset 3, -8
	sub	esp, 24
LCFI144:
	.cfi_def_cfa_offset 32
	mov	edx, DWORD PTR [esp+32]
	mov	eax, DWORD PTR [esp+36]
	.loc 1 129 0
	mov	ecx, DWORD PTR ___stack_chk_guard
	mov	DWORD PTR [esp+12], ecx
	xor	ecx, ecx
LVL386:
	.loc 1 134 0
	mov	ecx, DWORD PTR [eax+8]
	cmp	DWORD PTR [edx+8], ecx
	je	L261
	.loc 1 135 0
	setle	al
LVL387:
	movzx	eax, al
	lea	eax, [eax-1+eax]
LVL388:
L262:
	.loc 1 205 0
	mov	edx, DWORD PTR [esp+12]
	xor	edx, DWORD PTR ___stack_chk_guard
	jne	L287
	add	esp, 24
LCFI145:
	.cfi_remember_state
	.cfi_def_cfa_offset 8
	pop	ebx
LCFI146:
	.cfi_restore 3
	.cfi_def_cfa_offset 4
	ret
LVL389:
	.p2align 2,,3
L261:
LCFI147:
	.cfi_restore_state
	mov	ecx, DWORD PTR [edx+12]
	cmp	ecx, 5
	ja	L274
	mov	ecx, DWORD PTR _CSWTCH.41[0+ecx*4]
LVL390:
	mov	ebx, DWORD PTR [eax+12]
	cmp	ebx, 5
	ja	L275
L290:
	mov	ebx, DWORD PTR _CSWTCH.43[0+ebx*4]
L264:
LVL391:
LBB48:
LBB49:
	.loc 1 179 0
	cmp	ecx, ebx
	je	L288
	.loc 1 189 0
	cmp	ecx, 1
	je	L283
	.loc 1 191 0
	cmp	ecx, 3
	je	L289
	.loc 1 196 0
	cmp	ecx, 4
	je	L286
	.loc 1 200 0
	test	ecx, ecx
	jne	L271
L285:
	.loc 1 193 0
	cmp	ebx, -2
	je	L283
LVL392:
L271:
	.loc 1 204 0
	mov	eax, 1
	jmp	L262
LVL393:
	.p2align 2,,3
L274:
	mov	ecx, -2
LVL394:
	mov	ebx, DWORD PTR [eax+12]
	cmp	ebx, 5
	jbe	L290
L275:
	mov	ebx, -2
	jmp	L264
LVL395:
	.p2align 2,,3
L289:
	.loc 1 191 0
	cmp	ebx, 4
	je	L283
L286:
	.loc 1 196 0
	test	ebx, ebx
	jne	L285
LVL396:
	.p2align 2,,3
L283:
	.loc 1 190 0
	mov	eax, -1
	jmp	L262
LVL397:
	.p2align 2,,3
L288:
	.loc 1 180 0
	mov	edx, DWORD PTR [edx+20]
LVL398:
	mov	eax, DWORD PTR [eax+20]
LVL399:
	cmp	edx, eax
	je	L276
	.loc 1 182 0
	test	edx, edx
	je	L283
	test	eax, eax
	je	L271
	.loc 1 183 0
	cmp	edx, eax
	jl	L271
	jmp	L283
L276:
	.loc 1 181 0
	xor	eax, eax
	jmp	L262
LVL400:
L287:
LBE49:
LBE48:
	.loc 1 205 0
	call	___stack_chk_fail
LVL401:
	.cfi_endproc
LFE96:
	.section .rdata,"dr"
LC50:
	.ascii "Invalid Directory\0"
LC51:
	.ascii "\0"
LC52:
	.ascii "user_directory\0"
	.text
	.p2align 2,,3
	.globl	_jabber_user_search
	.def	_jabber_user_search;	.scl	2;	.type	32;	.endef
_jabber_user_search:
LFB143:
	.loc 1 2223 0
	.cfi_startproc
LVL402:
	push	esi
LCFI148:
	.cfi_def_cfa_offset 8
	.cfi_offset 6, -8
	push	ebx
LCFI149:
	.cfi_def_cfa_offset 12
	.cfi_offset 3, -12
	sub	esp, 52
LCFI150:
	.cfi_def_cfa_offset 64
	mov	esi, DWORD PTR [esp+64]
	mov	ebx, DWORD PTR [esp+68]
	.loc 1 2223 0
	mov	eax, DWORD PTR ___stack_chk_guard
	mov	DWORD PTR [esp+44], eax
	xor	eax, eax
	.loc 1 2227 0
	test	ebx, ebx
	je	L292
	.loc 1 2227 0 is_stmt 0 discriminator 1
	cmp	BYTE PTR [ebx], 0
	je	L292
LVL403:
LBB52:
LBB53:
	.loc 1 2234 0 is_stmt 1
	mov	eax, DWORD PTR [esi+56]
	test	eax, eax
	je	L295
	mov	eax, DWORD PTR [eax]
	test	eax, eax
	je	L295
	.loc 1 2235 0
	mov	DWORD PTR [esp+4], eax
	mov	DWORD PTR [esp], ebx
	call	_strcmp
LVL404:
	.loc 1 2234 0
	test	eax, eax
	je	L311
L295:
	.loc 1 2239 0
	mov	DWORD PTR [esp+8], ebx
L310:
	mov	DWORD PTR [esp+4], OFFSET FLAT:LC52
	mov	eax, DWORD PTR [esi+100]
	mov	eax, DWORD PTR [eax+12]
	mov	DWORD PTR [esp], eax
	call	_purple_account_set_string
LVL405:
	.loc 1 2242 0
	mov	DWORD PTR [esp+8], OFFSET FLAT:LC21
	mov	DWORD PTR [esp+4], 1
	mov	DWORD PTR [esp], esi
	call	_jabber_iq_new_query
LVL406:
	mov	esi, eax
LVL407:
	.loc 1 2243 0
	mov	DWORD PTR [esp+8], ebx
	mov	DWORD PTR [esp+4], OFFSET FLAT:LC22
	mov	eax, DWORD PTR [eax+8]
LVL408:
	mov	DWORD PTR [esp], eax
	call	_xmlnode_set_attrib
LVL409:
	.loc 1 2245 0
	mov	DWORD PTR [esp+8], 0
	mov	DWORD PTR [esp+4], OFFSET FLAT:_user_search_fields_result_cb
	mov	DWORD PTR [esp], esi
	call	_jabber_iq_set_callback
LVL410:
	.loc 1 2247 0
	mov	eax, DWORD PTR [esp+44]
	xor	eax, DWORD PTR ___stack_chk_guard
	jne	L308
	mov	DWORD PTR [esp+64], esi
LBE53:
LBE52:
	.loc 1 2248 0
	add	esp, 52
LCFI151:
	.cfi_remember_state
	.cfi_def_cfa_offset 12
	pop	ebx
LCFI152:
	.cfi_restore 3
	.cfi_def_cfa_offset 8
LVL411:
	pop	esi
LCFI153:
	.cfi_restore 6
	.cfi_def_cfa_offset 4
LVL412:
LBB56:
LBB54:
	.loc 1 2247 0
	jmp	_jabber_iq_send
LVL413:
	.p2align 2,,3
L292:
LCFI154:
	.cfi_restore_state
LBE54:
LBE56:
	.loc 1 2228 0
	mov	DWORD PTR [esp+4], OFFSET FLAT:LC50
	mov	DWORD PTR [esp], OFFSET FLAT:LC1
	call	_libintl_dgettext
LVL414:
	mov	ebx, eax
	mov	DWORD PTR [esp+4], OFFSET FLAT:LC50
	mov	DWORD PTR [esp], OFFSET FLAT:LC1
	call	_libintl_dgettext
LVL415:
	mov	DWORD PTR [esp+24], 0
	mov	DWORD PTR [esp+20], 0
	mov	DWORD PTR [esp+16], 0
	mov	DWORD PTR [esp+12], ebx
	mov	DWORD PTR [esp+8], eax
	mov	DWORD PTR [esp+4], 0
	mov	eax, DWORD PTR [esi+100]
	mov	DWORD PTR [esp], eax
	call	_purple_notify_message
LVL416:
	.loc 1 2248 0
	mov	eax, DWORD PTR [esp+44]
	xor	eax, DWORD PTR ___stack_chk_guard
	jne	L308
	add	esp, 52
LCFI155:
	.cfi_remember_state
	.cfi_def_cfa_offset 12
	pop	ebx
LCFI156:
	.cfi_restore 3
	.cfi_def_cfa_offset 8
	pop	esi
LCFI157:
	.cfi_restore 6
	.cfi_def_cfa_offset 4
	ret
LVL417:
	.p2align 2,,3
L311:
LCFI158:
	.cfi_restore_state
LBB57:
LBB55:
	.loc 1 2236 0
	mov	DWORD PTR [esp+8], OFFSET FLAT:LC51
	jmp	L310
LVL418:
L308:
LBE55:
LBE57:
	.loc 1 2248 0
	call	___stack_chk_fail
LVL419:
	.cfi_endproc
LFE143:
	.p2align 2,,3
	.def	_jabber_buddy_logout;	.scl	3;	.type	32;	.endef
_jabber_buddy_logout:
LFB134:
	.loc 1 1797 0
	.cfi_startproc
LVL420:
	push	edi
LCFI159:
	.cfi_def_cfa_offset 8
	.cfi_offset 7, -8
	push	esi
LCFI160:
	.cfi_def_cfa_offset 12
	.cfi_offset 6, -12
	push	ebx
LCFI161:
	.cfi_def_cfa_offset 16
	.cfi_offset 3, -16
	sub	esp, 32
LCFI162:
	.cfi_def_cfa_offset 48
	mov	ebx, DWORD PTR [esp+48]
	.loc 1 1797 0
	mov	eax, DWORD PTR ___stack_chk_guard
	mov	DWORD PTR [esp+28], eax
	xor	eax, eax
	.loc 1 1798 0
	mov	DWORD PTR [esp], ebx
	call	_purple_blist_node_get_type
LVL421:
	cmp	eax, 2
	je	L318
	.loc 1 1812 0
	mov	eax, DWORD PTR [esp+28]
	xor	eax, DWORD PTR ___stack_chk_guard
	jne	L317
	add	esp, 32
LCFI163:
	.cfi_remember_state
	.cfi_def_cfa_offset 16
	pop	ebx
LCFI164:
	.cfi_restore 3
	.cfi_def_cfa_offset 12
	pop	esi
LCFI165:
	.cfi_restore 6
	.cfi_def_cfa_offset 8
	pop	edi
LCFI166:
	.cfi_restore 7
	.cfi_def_cfa_offset 4
	ret
	.p2align 2,,3
L318:
LCFI167:
	.cfi_restore_state
LVL422:
LBB61:
LBB62:
LBB63:
	.loc 1 1801 0
	mov	DWORD PTR [esp], ebx
	call	_purple_buddy_get_account
LVL423:
	mov	DWORD PTR [esp], eax
	call	_purple_account_get_connection
LVL424:
	.loc 1 1802 0
	mov	DWORD PTR [esp], eax
	call	_purple_connection_get_protocol_data
LVL425:
	mov	edi, eax
LVL426:
	.loc 1 1805 0
	mov	DWORD PTR [esp+12], 0
	mov	DWORD PTR [esp+8], 0
	mov	DWORD PTR [esp+4], 0
	mov	DWORD PTR [esp], eax
	call	_jabber_presence_create_js
LVL427:
	mov	esi, eax
LVL428:
	.loc 1 1807 0
	mov	DWORD PTR [esp], ebx
	call	_purple_buddy_get_name
LVL429:
	mov	DWORD PTR [esp+8], eax
	mov	DWORD PTR [esp+4], OFFSET FLAT:LC22
	mov	DWORD PTR [esp], esi
	call	_xmlnode_set_attrib
LVL430:
	.loc 1 1809 0
	mov	DWORD PTR [esp+4], esi
	mov	DWORD PTR [esp], edi
	call	_jabber_send
LVL431:
	.loc 1 1810 0
	mov	eax, DWORD PTR [esp+28]
	xor	eax, DWORD PTR ___stack_chk_guard
	jne	L317
	mov	DWORD PTR [esp+48], esi
LBE63:
LBE62:
LBE61:
	.loc 1 1812 0
	add	esp, 32
LCFI168:
	.cfi_remember_state
	.cfi_def_cfa_offset 16
	pop	ebx
LCFI169:
	.cfi_restore 3
	.cfi_def_cfa_offset 12
LVL432:
	pop	esi
LCFI170:
	.cfi_restore 6
	.cfi_def_cfa_offset 8
LVL433:
	pop	edi
LCFI171:
	.cfi_restore 7
	.cfi_def_cfa_offset 4
LVL434:
LBB66:
LBB65:
LBB64:
	.loc 1 1810 0
	jmp	_xmlnode_free
LVL435:
L317:
LCFI172:
	.cfi_restore_state
LBE64:
LBE65:
LBE66:
	.loc 1 1812 0
	call	___stack_chk_fail
LVL436:
	.cfi_endproc
LFE134:
	.p2align 2,,3
	.def	_jabber_buddy_login;	.scl	3;	.type	32;	.endef
_jabber_buddy_login:
LFB133:
	.loc 1 1771 0
	.cfi_startproc
LVL437:
	push	edi
LCFI173:
	.cfi_def_cfa_offset 8
	.cfi_offset 7, -8
	push	esi
LCFI174:
	.cfi_def_cfa_offset 12
	.cfi_offset 6, -12
	push	ebx
LCFI175:
	.cfi_def_cfa_offset 16
	.cfi_offset 3, -16
	sub	esp, 32
LCFI176:
	.cfi_def_cfa_offset 48
	mov	ebx, DWORD PTR [esp+48]
	.loc 1 1771 0
	mov	eax, DWORD PTR ___stack_chk_guard
	mov	DWORD PTR [esp+28], eax
	xor	eax, eax
	.loc 1 1772 0
	mov	DWORD PTR [esp], ebx
	call	_purple_blist_node_get_type
LVL438:
	cmp	eax, 2
	je	L323
LVL439:
L319:
	.loc 1 1795 0
	mov	eax, DWORD PTR [esp+28]
	xor	eax, DWORD PTR ___stack_chk_guard
	jne	L324
	add	esp, 32
LCFI177:
	.cfi_remember_state
	.cfi_def_cfa_offset 16
	pop	ebx
LCFI178:
	.cfi_restore 3
	.cfi_def_cfa_offset 12
	pop	esi
LCFI179:
	.cfi_restore 6
	.cfi_def_cfa_offset 8
	pop	edi
LCFI180:
	.cfi_restore 7
	.cfi_def_cfa_offset 4
	ret
LVL440:
	.p2align 2,,3
L323:
LCFI181:
	.cfi_restore_state
LBB70:
LBB71:
LBB72:
	.loc 1 1775 0
	mov	DWORD PTR [esp], ebx
	call	_purple_buddy_get_account
LVL441:
	mov	DWORD PTR [esp], eax
	call	_purple_account_get_connection
LVL442:
	mov	esi, eax
LVL443:
	.loc 1 1776 0
	mov	DWORD PTR [esp], eax
	call	_purple_connection_get_protocol_data
LVL444:
	mov	edi, eax
LVL445:
	.loc 1 1777 0
	mov	DWORD PTR [esp], esi
	call	_purple_connection_get_account
LVL446:
	.loc 1 1778 0
	mov	DWORD PTR [esp], eax
	call	_purple_account_get_presence
LVL447:
	.loc 1 1779 0
	mov	DWORD PTR [esp], eax
	call	_purple_presence_get_active_status
LVL448:
	.loc 1 1785 0
	lea	edx, [esp+24]
	mov	DWORD PTR [esp+12], edx
	lea	edx, [esp+20]
	mov	DWORD PTR [esp+8], edx
	lea	edx, [esp+16]
	mov	DWORD PTR [esp+4], edx
	mov	DWORD PTR [esp], eax
	call	_purple_status_to_jabber
LVL449:
	.loc 1 1786 0
	mov	eax, DWORD PTR [esp+24]
	mov	DWORD PTR [esp+12], eax
LVL450:
	mov	eax, DWORD PTR [esp+20]
	mov	DWORD PTR [esp+8], eax
LVL451:
	mov	eax, DWORD PTR [esp+16]
	mov	DWORD PTR [esp+4], eax
	mov	DWORD PTR [esp], edi
	call	_jabber_presence_create_js
LVL452:
	mov	esi, eax
LVL453:
	.loc 1 1788 0
	mov	eax, DWORD PTR [esp+20]
LVL454:
	mov	DWORD PTR [esp], eax
	call	_g_free
LVL455:
	.loc 1 1790 0
	mov	DWORD PTR [esp], ebx
	call	_purple_buddy_get_name
LVL456:
	mov	DWORD PTR [esp+8], eax
	mov	DWORD PTR [esp+4], OFFSET FLAT:LC22
	mov	DWORD PTR [esp], esi
	call	_xmlnode_set_attrib
LVL457:
	.loc 1 1792 0
	mov	DWORD PTR [esp+4], esi
	mov	DWORD PTR [esp], edi
	call	_jabber_send
LVL458:
	.loc 1 1793 0
	mov	DWORD PTR [esp], esi
	call	_xmlnode_free
LVL459:
	jmp	L319
LVL460:
L324:
LBE72:
LBE71:
LBE70:
	.loc 1 1795 0
	call	___stack_chk_fail
LVL461:
	.cfi_endproc
LFE133:
	.section .rdata,"dr"
LC53:
	.ascii "unsubscribe\0"
	.text
	.p2align 2,,3
	.def	_jabber_buddy_unsubscribe;	.scl	3;	.type	32;	.endef
_jabber_buddy_unsubscribe:
LFB132:
	.loc 1 1757 0
	.cfi_startproc
LVL462:
	push	esi
LCFI182:
	.cfi_def_cfa_offset 8
	.cfi_offset 6, -8
	push	ebx
LCFI183:
	.cfi_def_cfa_offset 12
	.cfi_offset 3, -12
	sub	esp, 36
LCFI184:
	.cfi_def_cfa_offset 48
	mov	ebx, DWORD PTR [esp+48]
	.loc 1 1757 0
	mov	eax, DWORD PTR ___stack_chk_guard
	mov	DWORD PTR [esp+28], eax
	xor	eax, eax
LBB77:
	.loc 1 1762 0
	mov	DWORD PTR [esp], ebx
	call	_purple_blist_node_get_type
LVL463:
	cmp	eax, 2
	je	L333
LVL464:
LBE77:
LBB78:
LBB79:
	mov	DWORD PTR [esp+8], OFFSET FLAT:LC40
	mov	DWORD PTR [esp+4], OFFSET FLAT:___PRETTY_FUNCTION__.50110
	mov	DWORD PTR [esp], 0
	call	_g_return_if_fail_warning
LVL465:
L328:
LBE79:
LBE78:
	.loc 1 1769 0 discriminator 1
	mov	eax, DWORD PTR [esp+28]
	xor	eax, DWORD PTR ___stack_chk_guard
	jne	L334
	.loc 1 1769 0 is_stmt 0
	add	esp, 36
LCFI185:
	.cfi_remember_state
	.cfi_def_cfa_offset 12
	pop	ebx
LCFI186:
	.cfi_restore 3
	.cfi_def_cfa_offset 8
	pop	esi
LCFI187:
	.cfi_restore 6
	.cfi_def_cfa_offset 4
	ret
	.p2align 2,,3
L333:
LCFI188:
	.cfi_restore_state
LVL466:
	.loc 1 1765 0 is_stmt 1
	mov	DWORD PTR [esp], ebx
	call	_purple_buddy_get_account
LVL467:
	mov	DWORD PTR [esp], eax
	call	_purple_account_get_connection
LVL468:
	.loc 1 1766 0
	mov	DWORD PTR [esp], eax
	call	_purple_connection_get_protocol_data
LVL469:
	mov	esi, eax
LVL470:
	.loc 1 1768 0
	mov	DWORD PTR [esp], ebx
	call	_purple_buddy_get_name
LVL471:
	mov	DWORD PTR [esp+8], OFFSET FLAT:LC53
	mov	DWORD PTR [esp+4], eax
	mov	DWORD PTR [esp], esi
	call	_jabber_presence_subscription_set
LVL472:
	jmp	L328
LVL473:
L334:
	.loc 1 1769 0
	call	___stack_chk_fail
LVL474:
	.cfi_endproc
LFE132:
	.section .rdata,"dr"
LC54:
	.ascii "subscribe\0"
	.text
	.p2align 2,,3
	.def	_jabber_buddy_rerequest_auth;	.scl	3;	.type	32;	.endef
_jabber_buddy_rerequest_auth:
LFB131:
	.loc 1 1741 0
	.cfi_startproc
LVL475:
	push	esi
LCFI189:
	.cfi_def_cfa_offset 8
	.cfi_offset 6, -8
	push	ebx
LCFI190:
	.cfi_def_cfa_offset 12
	.cfi_offset 3, -12
	sub	esp, 36
LCFI191:
	.cfi_def_cfa_offset 48
	mov	ebx, DWORD PTR [esp+48]
	.loc 1 1741 0
	mov	eax, DWORD PTR ___stack_chk_guard
	mov	DWORD PTR [esp+28], eax
	xor	eax, eax
LBB84:
	.loc 1 1746 0
	mov	DWORD PTR [esp], ebx
	call	_purple_blist_node_get_type
LVL476:
	cmp	eax, 2
	je	L343
LVL477:
LBE84:
LBB85:
LBB86:
	mov	DWORD PTR [esp+8], OFFSET FLAT:LC40
	mov	DWORD PTR [esp+4], OFFSET FLAT:___PRETTY_FUNCTION__.50100
	mov	DWORD PTR [esp], 0
	call	_g_return_if_fail_warning
LVL478:
L338:
LBE86:
LBE85:
	.loc 1 1753 0 discriminator 1
	mov	eax, DWORD PTR [esp+28]
	xor	eax, DWORD PTR ___stack_chk_guard
	jne	L344
	.loc 1 1753 0 is_stmt 0
	add	esp, 36
LCFI192:
	.cfi_remember_state
	.cfi_def_cfa_offset 12
	pop	ebx
LCFI193:
	.cfi_restore 3
	.cfi_def_cfa_offset 8
	pop	esi
LCFI194:
	.cfi_restore 6
	.cfi_def_cfa_offset 4
	ret
	.p2align 2,,3
L343:
LCFI195:
	.cfi_restore_state
LVL479:
	.loc 1 1749 0 is_stmt 1
	mov	DWORD PTR [esp], ebx
	call	_purple_buddy_get_account
LVL480:
	mov	DWORD PTR [esp], eax
	call	_purple_account_get_connection
LVL481:
	.loc 1 1750 0
	mov	DWORD PTR [esp], eax
	call	_purple_connection_get_protocol_data
LVL482:
	mov	esi, eax
LVL483:
	.loc 1 1752 0
	mov	DWORD PTR [esp], ebx
	call	_purple_buddy_get_name
LVL484:
	mov	DWORD PTR [esp+8], OFFSET FLAT:LC54
	mov	DWORD PTR [esp+4], eax
	mov	DWORD PTR [esp], esi
	call	_jabber_presence_subscription_set
LVL485:
	jmp	L338
LVL486:
L344:
	.loc 1 1753 0
	call	___stack_chk_fail
LVL487:
	.cfi_endproc
LFE131:
	.p2align 2,,3
	.def	_jabber_buddy_info_remove_id.isra.7;	.scl	3;	.type	32;	.endef
_jabber_buddy_info_remove_id.isra.7:
LFB156:
	.loc 1 868 0
	.cfi_startproc
LVL488:
	push	ebp
LCFI196:
	.cfi_def_cfa_offset 8
	.cfi_offset 5, -8
	push	edi
LCFI197:
	.cfi_def_cfa_offset 12
	.cfi_offset 7, -12
	push	esi
LCFI198:
	.cfi_def_cfa_offset 16
	.cfi_offset 6, -16
	push	ebx
LCFI199:
	.cfi_def_cfa_offset 20
	.cfi_offset 3, -20
	sub	esp, 60
LCFI200:
	.cfi_def_cfa_offset 80
	mov	DWORD PTR [esp+28], eax
	mov	esi, edx
	.loc 1 868 0
	mov	eax, DWORD PTR ___stack_chk_guard
	mov	DWORD PTR [esp+44], eax
	xor	eax, eax
LVL489:
	.loc 1 870 0
	mov	eax, DWORD PTR [esp+28]
	mov	edi, DWORD PTR [eax]
LVL490:
	.loc 1 873 0
	test	edx, edx
	je	L345
	.loc 1 876 0
	test	edi, edi
	je	L345
	mov	ebx, edi
	jmp	L348
LVL491:
	.p2align 2,,3
L347:
	.loc 1 883 0
	mov	ebx, DWORD PTR [ebx+4]
LVL492:
	.loc 1 876 0
	test	ebx, ebx
	je	L345
LVL493:
L348:
	.loc 1 877 0
	mov	ebp, DWORD PTR [ebx]
LVL494:
	.loc 1 878 0
	mov	DWORD PTR [esp+4], ebp
	mov	DWORD PTR [esp], esi
	call	_strcmp
LVL495:
	test	eax, eax
	jne	L347
	.loc 1 879 0
	mov	DWORD PTR [esp+4], ebp
	mov	DWORD PTR [esp], edi
	call	_g_slist_remove
LVL496:
	mov	edx, DWORD PTR [esp+28]
	mov	DWORD PTR [edx], eax
	.loc 1 880 0
	mov	DWORD PTR [esp], ebp
	call	_g_free
LVL497:
L345:
	.loc 1 885 0
	mov	eax, DWORD PTR [esp+44]
	xor	eax, DWORD PTR ___stack_chk_guard
	jne	L358
	add	esp, 60
LCFI201:
	.cfi_remember_state
	.cfi_def_cfa_offset 20
	pop	ebx
LCFI202:
	.cfi_restore 3
	.cfi_def_cfa_offset 16
	pop	esi
LCFI203:
	.cfi_restore 6
	.cfi_def_cfa_offset 12
LVL498:
	pop	edi
LCFI204:
	.cfi_restore 7
	.cfi_def_cfa_offset 8
	pop	ebp
LCFI205:
	.cfi_restore 5
	.cfi_def_cfa_offset 4
	ret
LVL499:
L358:
LCFI206:
	.cfi_restore_state
	call	___stack_chk_fail
LVL500:
	.cfi_endproc
LFE156:
	.section .rdata,"dr"
LC55:
	.ascii " \0"
LC56:
	.ascii ": \0"
LC57:
	.ascii "%s%s%s\0"
LC58:
	.ascii "Client\0"
LC59:
	.ascii "Operating System\0"
LC60:
	.ascii "%s %c%02d%02d\0"
LC61:
	.ascii "Local Time\0"
LC62:
	.ascii "Idle\0"
LC63:
	.ascii "Status\0"
LC64:
	.ascii "%d\0"
LC65:
	.ascii "Priority\0"
LC66:
	.ascii "Unknown\0"
	.text
	.p2align 2,,3
	.def	_add_jbr_info.isra.8;	.scl	3;	.type	32;	.endef
_add_jbr_info.isra.8:
LFB157:
	.loc 1 708 0
	.cfi_startproc
LVL501:
	push	ebp
LCFI207:
	.cfi_def_cfa_offset 8
	.cfi_offset 5, -8
	push	edi
LCFI208:
	.cfi_def_cfa_offset 12
	.cfi_offset 7, -12
	push	esi
LCFI209:
	.cfi_def_cfa_offset 16
	.cfi_offset 6, -16
	push	ebx
LCFI210:
	.cfi_def_cfa_offset 20
	.cfi_offset 3, -20
	sub	esp, 92
LCFI211:
	.cfi_def_cfa_offset 112
	mov	esi, edx
	mov	ebx, DWORD PTR [esp+112]
	.loc 1 708 0
	mov	edx, DWORD PTR ___stack_chk_guard
	mov	DWORD PTR [esp+76], edx
	xor	edx, edx
LVL502:
	.loc 1 714 0
	mov	DWORD PTR [esp+4], ecx
	mov	DWORD PTR [esp], eax
	call	_g_hash_table_lookup
LVL503:
	mov	edi, eax
LVL504:
	.loc 1 715 0
	mov	esi, DWORD PTR [esi]
LVL505:
	.loc 1 717 0
	test	ebx, ebx
	je	L361
	mov	eax, DWORD PTR [ebx+40]
LVL506:
	test	eax, eax
	je	L364
LBB87:
	.loc 1 721 0
	mov	edx, DWORD PTR [ebx+36]
	.loc 1 719 0
	test	edx, edx
	je	L379
	mov	ecx, OFFSET FLAT:LC55
L363:
	.loc 1 718 0
	mov	DWORD PTR [esp+12], edx
	mov	DWORD PTR [esp+8], ecx
	mov	DWORD PTR [esp+4], eax
	mov	DWORD PTR [esp], OFFSET FLAT:LC57
	call	_g_strdup_printf
LVL507:
	mov	ebp, eax
LVL508:
	.loc 1 722 0
	mov	DWORD PTR [esp+4], OFFSET FLAT:LC58
	mov	DWORD PTR [esp], OFFSET FLAT:LC1
	call	_libintl_dgettext
LVL509:
	mov	DWORD PTR [esp+8], ebp
	mov	DWORD PTR [esp+4], eax
	mov	DWORD PTR [esp], esi
	call	_purple_notify_user_info_prepend_pair
LVL510:
	.loc 1 723 0
	mov	DWORD PTR [esp], ebp
	call	_g_free
LVL511:
	.loc 1 725 0
	mov	ebp, DWORD PTR [ebx+44]
LVL512:
	test	ebp, ebp
	je	L364
	.loc 1 726 0
	mov	DWORD PTR [esp+4], OFFSET FLAT:LC59
	mov	DWORD PTR [esp], OFFSET FLAT:LC1
	call	_libintl_dgettext
LVL513:
	mov	DWORD PTR [esp+8], ebp
	mov	DWORD PTR [esp+4], eax
	mov	DWORD PTR [esp], esi
	call	_purple_notify_user_info_prepend_pair
LVL514:
L364:
LBE87:
	.loc 1 729 0
	cmp	DWORD PTR [ebx+48], -500000
	je	L361
LBB88:
	.loc 1 733 0
	lea	ebp, [esp+60]
	mov	DWORD PTR [esp], ebp
	call	_time
LVL515:
	.loc 1 734 0
	mov	eax, DWORD PTR [ebx+48]
LVL516:
	add	DWORD PTR [esp+60], eax
	.loc 1 735 0
	mov	DWORD PTR [esp], ebp
	call	_gmtime
LVL517:
	mov	DWORD PTR [esp+44], eax
LVL518:
	.loc 1 741 0
	mov	ecx, DWORD PTR [ebx+48]
	mov	eax, ecx
LVL519:
	mov	ebp, 3600
	cdq
	idiv	ebp
	mov	DWORD PTR [esp+36], edx
	mov	eax, -2004318071
	imul	edx
	mov	eax, DWORD PTR [esp+36]
	add	eax, edx
	sar	eax, 5
	mov	ebp, DWORD PTR [esp+36]
	sar	ebp, 31
	.loc 1 738 0
	sub	eax, ebp
	mov	DWORD PTR [esp+36], eax
	js	L398
L365:
	.loc 1 740 0
	mov	eax, -1851608123
	imul	ecx
	lea	ebp, [ecx+edx]
	sar	ebp, 11
	mov	eax, ecx
	sar	eax, 31
	.loc 1 738 0
	sub	ebp, eax
	mov	DWORD PTR [esp+40], ebp
	js	L399
L366:
	mov	ebp, ecx
	sar	ebp, 31
	and	ebp, 2
	add	ebp, 43
	mov	eax, DWORD PTR [esp+44]
	mov	DWORD PTR [esp], eax
	call	_purple_time_format
LVL520:
	.loc 1 737 0
	mov	edx, DWORD PTR [esp+36]
	mov	DWORD PTR [esp+16], edx
	mov	edx, DWORD PTR [esp+40]
	mov	DWORD PTR [esp+12], edx
	mov	DWORD PTR [esp+8], ebp
	mov	DWORD PTR [esp+4], eax
	mov	DWORD PTR [esp], OFFSET FLAT:LC60
	call	_g_strdup_printf
LVL521:
	mov	ebp, eax
LVL522:
	.loc 1 742 0
	mov	DWORD PTR [esp+4], OFFSET FLAT:LC61
	mov	DWORD PTR [esp], OFFSET FLAT:LC1
	call	_libintl_dgettext
LVL523:
	mov	DWORD PTR [esp+8], ebp
	mov	DWORD PTR [esp+4], eax
	mov	DWORD PTR [esp], esi
	call	_purple_notify_user_info_prepend_pair
LVL524:
	.loc 1 743 0
	mov	DWORD PTR [esp], ebp
	call	_g_free
LVL525:
L361:
LBE88:
	.loc 1 746 0
	test	edi, edi
	je	L368
	mov	eax, DWORD PTR [edi]
	test	eax, eax
	jle	L368
LBB89:
	.loc 1 747 0
	mov	DWORD PTR [esp], eax
	call	_purple_str_seconds_to_string
LVL526:
	mov	edi, eax
LVL527:
	.loc 1 748 0
	mov	DWORD PTR [esp+4], OFFSET FLAT:LC62
	mov	DWORD PTR [esp], OFFSET FLAT:LC1
	call	_libintl_dgettext
LVL528:
	mov	DWORD PTR [esp+8], edi
	mov	DWORD PTR [esp+4], eax
	mov	DWORD PTR [esp], esi
	call	_purple_notify_user_info_prepend_pair
LVL529:
	.loc 1 749 0
	mov	DWORD PTR [esp], edi
	call	_g_free
LVL530:
L368:
LBE89:
	.loc 1 752 0
	test	ebx, ebx
	je	L369
LVL531:
LBB90:
	.loc 1 756 0
	mov	eax, DWORD PTR [ebx+12]
	mov	DWORD PTR [esp], eax
	call	_jabber_buddy_state_get_name
LVL532:
	mov	edx, eax
LVL533:
	.loc 1 758 0
	mov	eax, DWORD PTR [ebx+16]
LVL534:
	test	eax, eax
	je	L370
	.loc 1 759 0
	mov	DWORD PTR [esp+4], -1
	mov	DWORD PTR [esp], eax
	mov	DWORD PTR [esp+32], edx
	call	_purple_markup_escape_text
LVL535:
	mov	ebp, eax
LVL536:
	.loc 1 760 0
	mov	DWORD PTR [esp], eax
	call	_purple_strdup_withhtml
LVL537:
	mov	edi, eax
LVL538:
	.loc 1 761 0
	mov	DWORD PTR [esp], ebp
	call	_g_free
LVL539:
	.loc 1 763 0
	mov	DWORD PTR [esp+4], edi
	mov	edx, DWORD PTR [esp+32]
	mov	DWORD PTR [esp], edx
	call	_purple_strequal
LVL540:
	test	eax, eax
	mov	edx, DWORD PTR [esp+32]
	je	L400
LVL541:
	.loc 1 767 0
	mov	ebp, edi
LVL542:
	test	edi, edi
	jne	L377
LVL543:
	.p2align 2,,3
L396:
	xor	ebp, ebp
	mov	edi, OFFSET FLAT:LC51
L377:
	mov	eax, OFFSET FLAT:LC51
	mov	edx, eax
L373:
	mov	DWORD PTR [esp+12], edi
	mov	DWORD PTR [esp+8], eax
	mov	DWORD PTR [esp+4], edx
	mov	DWORD PTR [esp], OFFSET FLAT:LC57
	call	_g_strdup_printf
LVL544:
	mov	edi, eax
LVL545:
	.loc 1 770 0
	mov	DWORD PTR [esp+4], OFFSET FLAT:LC63
	mov	DWORD PTR [esp], OFFSET FLAT:LC1
	call	_libintl_dgettext
LVL546:
	mov	DWORD PTR [esp+8], edi
	mov	DWORD PTR [esp+4], eax
	mov	DWORD PTR [esp], esi
	call	_purple_notify_user_info_prepend_pair
LVL547:
	.loc 1 772 0
	mov	eax, DWORD PTR [ebx+8]
	mov	DWORD PTR [esp+12], eax
	mov	DWORD PTR [esp+8], OFFSET FLAT:LC64
	mov	DWORD PTR [esp+4], 12
	lea	ebx, [esp+64]
	mov	DWORD PTR [esp], ebx
	call	_g_snprintf
LVL548:
	.loc 1 773 0
	mov	DWORD PTR [esp+4], OFFSET FLAT:LC65
	mov	DWORD PTR [esp], OFFSET FLAT:LC1
	call	_libintl_dgettext
LVL549:
	mov	DWORD PTR [esp+8], ebx
	mov	DWORD PTR [esp+4], eax
	mov	DWORD PTR [esp], esi
	call	_purple_notify_user_info_prepend_pair
LVL550:
	.loc 1 775 0
	mov	DWORD PTR [esp], edi
	call	_g_free
LVL551:
	.loc 1 776 0
	mov	DWORD PTR [esp], ebp
	call	_g_free
LVL552:
L359:
LBE90:
	.loc 1 780 0
	mov	ebp, DWORD PTR [esp+76]
	xor	ebp, DWORD PTR ___stack_chk_guard
	jne	L401
	add	esp, 92
LCFI212:
	.cfi_remember_state
	.cfi_def_cfa_offset 20
	pop	ebx
LCFI213:
	.cfi_restore 3
	.cfi_def_cfa_offset 16
	pop	esi
LCFI214:
	.cfi_restore 6
	.cfi_def_cfa_offset 12
LVL553:
	pop	edi
LCFI215:
	.cfi_restore 7
	.cfi_def_cfa_offset 8
	pop	ebp
LCFI216:
	.cfi_restore 5
	.cfi_def_cfa_offset 4
	ret
LVL554:
	.p2align 2,,3
L400:
LCFI217:
	.cfi_restore_state
LBB91:
	.loc 1 767 0
	test	edi, edi
	je	L370
	mov	ebp, edi
LVL555:
	mov	eax, OFFSET FLAT:LC56
	test	edx, edx
	jne	L373
	jmp	L377
LVL556:
	.p2align 2,,3
L369:
LBE91:
	.loc 1 778 0
	mov	DWORD PTR [esp+4], OFFSET FLAT:LC66
	mov	DWORD PTR [esp], OFFSET FLAT:LC1
	call	_libintl_dgettext
LVL557:
	mov	ebx, eax
	mov	DWORD PTR [esp+4], OFFSET FLAT:LC63
	mov	DWORD PTR [esp], OFFSET FLAT:LC1
	call	_libintl_dgettext
LVL558:
	mov	DWORD PTR [esp+8], ebx
	mov	DWORD PTR [esp+4], eax
	mov	DWORD PTR [esp], esi
	call	_purple_notify_user_info_prepend_pair
LVL559:
	jmp	L359
LVL560:
	.p2align 2,,3
L370:
LBB92:
	.loc 1 767 0
	test	edx, edx
	je	L396
	xor	ebp, ebp
	mov	edi, OFFSET FLAT:LC51
	mov	eax, edi
	jmp	L373
LVL561:
	.p2align 2,,3
L379:
LBE92:
LBB93:
	.loc 1 719 0
	mov	edx, OFFSET FLAT:LC51
	mov	ecx, edx
	jmp	L363
LVL562:
	.p2align 2,,3
L399:
LBE93:
LBB94:
	.loc 1 738 0
	neg	ebp
	mov	DWORD PTR [esp+40], ebp
	jmp	L366
	.p2align 2,,3
L398:
	neg	eax
	mov	DWORD PTR [esp+36], eax
	jmp	L365
LVL563:
L401:
LBE94:
	.loc 1 780 0
	call	___stack_chk_fail
LVL564:
	.cfi_endproc
LFE157:
	.section .rdata,"dr"
LC67:
	.ascii "jb != NULL\0"
	.text
	.p2align 2,,3
	.globl	_jabber_buddy_free
	.def	_jabber_buddy_free;	.scl	2;	.type	32;	.endef
_jabber_buddy_free:
LFB94:
	.loc 1 91 0
	.cfi_startproc
LVL565:
	push	ebx
LCFI218:
	.cfi_def_cfa_offset 8
	.cfi_offset 3, -8
	sub	esp, 40
LCFI219:
	.cfi_def_cfa_offset 48
	mov	ebx, DWORD PTR [esp+48]
	.loc 1 91 0
	mov	eax, DWORD PTR ___stack_chk_guard
	mov	DWORD PTR [esp+28], eax
	xor	eax, eax
LBB95:
	.loc 1 92 0
	test	ebx, ebx
	je	L416
LVL566:
LBE95:
	.loc 1 94 0
	mov	eax, DWORD PTR [ebx+4]
	mov	DWORD PTR [esp], eax
	call	_g_free
LVL567:
	.loc 1 95 0
	mov	eax, DWORD PTR [ebx]
	test	eax, eax
	je	L409
	.p2align 2,,3
L411:
	.loc 1 96 0
	mov	eax, DWORD PTR [eax]
	call	_jabber_buddy_resource_free
LVL568:
	.loc 1 95 0
	mov	eax, DWORD PTR [ebx]
	test	eax, eax
	jne	L411
L409:
	.loc 1 98 0
	mov	eax, DWORD PTR [esp+28]
	xor	eax, DWORD PTR ___stack_chk_guard
	jne	L414
	mov	DWORD PTR [esp+48], ebx
	.loc 1 99 0
	add	esp, 40
LCFI220:
	.cfi_remember_state
	.cfi_def_cfa_offset 8
	pop	ebx
LCFI221:
	.cfi_restore 3
	.cfi_def_cfa_offset 4
	.loc 1 98 0
	jmp	_g_free
LVL569:
	.p2align 2,,3
L416:
LCFI222:
	.cfi_restore_state
	.loc 1 92 0
	mov	DWORD PTR [esp+8], OFFSET FLAT:LC67
	mov	DWORD PTR [esp+4], OFFSET FLAT:___PRETTY_FUNCTION__.49632
	mov	DWORD PTR [esp], 0
	call	_g_return_if_fail_warning
LVL570:
	.loc 1 99 0
	mov	eax, DWORD PTR [esp+28]
	xor	eax, DWORD PTR ___stack_chk_guard
	jne	L414
	add	esp, 40
LCFI223:
	.cfi_remember_state
	.cfi_def_cfa_offset 8
	pop	ebx
LCFI224:
	.cfi_restore 3
	.cfi_def_cfa_offset 4
	ret
LVL571:
L414:
LCFI225:
	.cfi_restore_state
	call	___stack_chk_fail
LVL572:
	.cfi_endproc
LFE94:
	.p2align 2,,3
	.globl	_jabber_buddy_find
	.def	_jabber_buddy_find;	.scl	2;	.type	32;	.endef
_jabber_buddy_find:
LFB95:
	.loc 1 103 0
	.cfi_startproc
LVL573:
	push	edi
LCFI226:
	.cfi_def_cfa_offset 8
	.cfi_offset 7, -8
	push	esi
LCFI227:
	.cfi_def_cfa_offset 12
	.cfi_offset 6, -12
	push	ebx
LCFI228:
	.cfi_def_cfa_offset 16
	.cfi_offset 3, -16
	sub	esp, 48
LCFI229:
	.cfi_def_cfa_offset 64
	mov	esi, DWORD PTR [esp+64]
	mov	eax, DWORD PTR [esp+68]
	mov	edi, DWORD PTR [esp+72]
	.loc 1 103 0
	mov	edx, DWORD PTR ___stack_chk_guard
	mov	DWORD PTR [esp+44], edx
	xor	edx, edx
	.loc 1 107 0
	mov	ebx, DWORD PTR [esi+36]
	test	ebx, ebx
	je	L420
	.loc 1 110 0
	mov	DWORD PTR [esp], eax
	call	_jabber_get_bare_jid
LVL574:
	mov	ebx, eax
LVL575:
	test	eax, eax
	je	L420
	.loc 1 113 0
	mov	DWORD PTR [esp+4], eax
	mov	eax, DWORD PTR [esi+36]
LVL576:
	mov	DWORD PTR [esp], eax
	call	_g_hash_table_lookup
LVL577:
	.loc 1 115 0
	test	eax, eax
	je	L430
L421:
	.loc 1 119 0
	mov	DWORD PTR [esp], ebx
	mov	DWORD PTR [esp+28], eax
	call	_g_free
LVL578:
	mov	eax, DWORD PTR [esp+28]
LVL579:
L419:
	.loc 1 122 0
	mov	edx, DWORD PTR [esp+44]
	xor	edx, DWORD PTR ___stack_chk_guard
	jne	L431
	add	esp, 48
LCFI230:
	.cfi_remember_state
	.cfi_def_cfa_offset 16
	pop	ebx
LCFI231:
	.cfi_restore 3
	.cfi_def_cfa_offset 12
	pop	esi
LCFI232:
	.cfi_restore 6
	.cfi_def_cfa_offset 8
	pop	edi
LCFI233:
	.cfi_restore 7
	.cfi_def_cfa_offset 4
	ret
LVL580:
	.p2align 2,,3
L430:
LCFI234:
	.cfi_restore_state
	.loc 1 115 0 discriminator 1
	test	edi, edi
	je	L421
	.loc 1 116 0
	mov	DWORD PTR [esp], 16
	call	_g_malloc0
LVL581:
	.loc 1 117 0
	mov	DWORD PTR [esp+8], eax
	mov	DWORD PTR [esp+4], ebx
	mov	edx, DWORD PTR [esi+36]
	mov	DWORD PTR [esp], edx
	mov	DWORD PTR [esp+28], eax
	call	_g_hash_table_insert
LVL582:
	mov	eax, DWORD PTR [esp+28]
	jmp	L419
LVL583:
	.p2align 2,,3
L420:
	.loc 1 108 0
	xor	eax, eax
	jmp	L419
L431:
	.loc 1 122 0
	call	___stack_chk_fail
LVL584:
	.cfi_endproc
LFE95:
	.section .rdata,"dr"
LC68:
	.ascii "invisible\0"
	.text
	.p2align 2,,3
	.def	_jabber_buddy_set_invisibility;	.scl	3;	.type	32;	.endef
_jabber_buddy_set_invisibility:
LFB126:
	.loc 1 1641 0
	.cfi_startproc
LVL585:
	push	ebp
LCFI235:
	.cfi_def_cfa_offset 8
	.cfi_offset 5, -8
	push	edi
LCFI236:
	.cfi_def_cfa_offset 12
	.cfi_offset 7, -12
	push	esi
LCFI237:
	.cfi_def_cfa_offset 16
	.cfi_offset 6, -16
	push	ebx
LCFI238:
	.cfi_def_cfa_offset 20
	.cfi_offset 3, -20
	sub	esp, 60
LCFI239:
	.cfi_def_cfa_offset 80
	mov	ebx, eax
	mov	edi, edx
	.loc 1 1641 0
	mov	eax, DWORD PTR ___stack_chk_guard
	mov	DWORD PTR [esp+44], eax
	xor	eax, eax
LVL586:
	.loc 1 1645 0
	mov	DWORD PTR [esp+8], 1
	mov	DWORD PTR [esp+4], edx
	mov	DWORD PTR [esp], ebx
	mov	DWORD PTR [esp+28], ecx
	call	_jabber_buddy_find
LVL587:
	mov	ebp, eax
LVL588:
	.loc 1 1651 0
	mov	eax, DWORD PTR [ebx+100]
LVL589:
	mov	DWORD PTR [esp], eax
	call	_purple_connection_get_account
LVL590:
	.loc 1 1652 0
	mov	DWORD PTR [esp], eax
	call	_purple_account_get_presence
LVL591:
	.loc 1 1653 0
	mov	DWORD PTR [esp], eax
	call	_purple_presence_get_active_status
LVL592:
	.loc 1 1655 0
	lea	edx, [esp+40]
	mov	DWORD PTR [esp+12], edx
	lea	edx, [esp+36]
	mov	DWORD PTR [esp+8], edx
	lea	edx, [esp+32]
	mov	DWORD PTR [esp+4], edx
	mov	DWORD PTR [esp], eax
	call	_purple_status_to_jabber
LVL593:
	.loc 1 1656 0
	mov	eax, DWORD PTR [esp+40]
	mov	DWORD PTR [esp+12], eax
LVL594:
	mov	eax, DWORD PTR [esp+36]
	mov	DWORD PTR [esp+8], eax
LVL595:
	mov	eax, DWORD PTR [esp+32]
	mov	DWORD PTR [esp+4], eax
	mov	DWORD PTR [esp], ebx
	call	_jabber_presence_create_js
LVL596:
	mov	esi, eax
LVL597:
	.loc 1 1658 0
	mov	eax, DWORD PTR [esp+36]
LVL598:
	mov	DWORD PTR [esp], eax
	call	_g_free
LVL599:
	.loc 1 1660 0
	mov	DWORD PTR [esp+8], edi
	mov	DWORD PTR [esp+4], OFFSET FLAT:LC22
	mov	DWORD PTR [esp], esi
	call	_xmlnode_set_attrib
LVL600:
	.loc 1 1661 0
	mov	ecx, DWORD PTR [esp+28]
	test	ecx, ecx
	jne	L437
	.loc 1 1665 0
	and	DWORD PTR [ebp+8], -5
L434:
	.loc 1 1668 0
	mov	DWORD PTR [esp+4], esi
	mov	DWORD PTR [esp], ebx
	call	_jabber_send
LVL601:
	.loc 1 1669 0
	mov	DWORD PTR [esp], esi
	call	_xmlnode_free
LVL602:
	.loc 1 1670 0
	mov	eax, DWORD PTR [esp+44]
	xor	eax, DWORD PTR ___stack_chk_guard
	jne	L438
	add	esp, 60
LCFI240:
	.cfi_remember_state
	.cfi_def_cfa_offset 20
	pop	ebx
LCFI241:
	.cfi_restore 3
	.cfi_def_cfa_offset 16
LVL603:
	pop	esi
LCFI242:
	.cfi_restore 6
	.cfi_def_cfa_offset 12
LVL604:
	pop	edi
LCFI243:
	.cfi_restore 7
	.cfi_def_cfa_offset 8
LVL605:
	pop	ebp
LCFI244:
	.cfi_restore 5
	.cfi_def_cfa_offset 4
LVL606:
	ret
LVL607:
	.p2align 2,,3
L437:
LCFI245:
	.cfi_restore_state
	.loc 1 1662 0
	mov	DWORD PTR [esp+8], OFFSET FLAT:LC68
	mov	DWORD PTR [esp+4], OFFSET FLAT:LC37
	mov	DWORD PTR [esp], esi
	call	_xmlnode_set_attrib
LVL608:
	.loc 1 1663 0
	or	DWORD PTR [ebp+8], 4
	jmp	L434
L438:
	.loc 1 1670 0
	call	___stack_chk_fail
LVL609:
	.cfi_endproc
LFE126:
	.p2align 2,,3
	.def	_jabber_buddy_make_invisible;	.scl	3;	.type	32;	.endef
_jabber_buddy_make_invisible:
LFB127:
	.loc 1 1673 0
	.cfi_startproc
LVL610:
	push	esi
LCFI246:
	.cfi_def_cfa_offset 8
	.cfi_offset 6, -8
	push	ebx
LCFI247:
	.cfi_def_cfa_offset 12
	.cfi_offset 3, -12
	sub	esp, 36
LCFI248:
	.cfi_def_cfa_offset 48
	mov	ebx, DWORD PTR [esp+48]
	.loc 1 1673 0
	mov	eax, DWORD PTR ___stack_chk_guard
	mov	DWORD PTR [esp+28], eax
	xor	eax, eax
LBB100:
	.loc 1 1678 0
	mov	DWORD PTR [esp], ebx
	call	_purple_blist_node_get_type
LVL611:
	cmp	eax, 2
	je	L440
LVL612:
LBE100:
LBB101:
LBB102:
	mov	DWORD PTR [esp+8], OFFSET FLAT:LC40
	mov	DWORD PTR [esp+4], OFFSET FLAT:___PRETTY_FUNCTION__.50062
	mov	DWORD PTR [esp], 0
	call	_g_return_if_fail_warning
LVL613:
LBE102:
LBE101:
	.loc 1 1685 0
	mov	edx, DWORD PTR [esp+28]
	xor	edx, DWORD PTR ___stack_chk_guard
	jne	L445
	add	esp, 36
LCFI249:
	.cfi_remember_state
	.cfi_def_cfa_offset 12
	pop	ebx
LCFI250:
	.cfi_restore 3
	.cfi_def_cfa_offset 8
	pop	esi
LCFI251:
	.cfi_restore 6
	.cfi_def_cfa_offset 4
	ret
LVL614:
	.p2align 2,,3
L440:
LCFI252:
	.cfi_restore_state
	.loc 1 1681 0
	mov	DWORD PTR [esp], ebx
	call	_purple_buddy_get_account
LVL615:
	mov	DWORD PTR [esp], eax
	call	_purple_account_get_connection
LVL616:
	.loc 1 1682 0
	mov	DWORD PTR [esp], eax
	call	_purple_connection_get_protocol_data
LVL617:
	mov	esi, eax
LVL618:
	.loc 1 1684 0
	mov	DWORD PTR [esp], ebx
	call	_purple_buddy_get_name
LVL619:
	mov	edx, DWORD PTR [esp+28]
	xor	edx, DWORD PTR ___stack_chk_guard
	jne	L445
	mov	ecx, 1
	mov	edx, eax
	mov	eax, esi
	.loc 1 1685 0
	add	esp, 36
LCFI253:
	.cfi_remember_state
	.cfi_def_cfa_offset 12
	pop	ebx
LCFI254:
	.cfi_restore 3
	.cfi_def_cfa_offset 8
LVL620:
	pop	esi
LCFI255:
	.cfi_restore 6
	.cfi_def_cfa_offset 4
LVL621:
	.loc 1 1684 0
	jmp	_jabber_buddy_set_invisibility
LVL622:
L445:
LCFI256:
	.cfi_restore_state
	.loc 1 1685 0
	call	___stack_chk_fail
LVL623:
	.cfi_endproc
LFE127:
	.p2align 2,,3
	.def	_jabber_buddy_make_visible;	.scl	3;	.type	32;	.endef
_jabber_buddy_make_visible:
LFB128:
	.loc 1 1688 0
	.cfi_startproc
LVL624:
	push	esi
LCFI257:
	.cfi_def_cfa_offset 8
	.cfi_offset 6, -8
	push	ebx
LCFI258:
	.cfi_def_cfa_offset 12
	.cfi_offset 3, -12
	sub	esp, 36
LCFI259:
	.cfi_def_cfa_offset 48
	mov	ebx, DWORD PTR [esp+48]
	.loc 1 1688 0
	mov	eax, DWORD PTR ___stack_chk_guard
	mov	DWORD PTR [esp+28], eax
	xor	eax, eax
LBB107:
	.loc 1 1693 0
	mov	DWORD PTR [esp], ebx
	call	_purple_blist_node_get_type
LVL625:
	cmp	eax, 2
	je	L448
LVL626:
LBE107:
LBB108:
LBB109:
	mov	DWORD PTR [esp+8], OFFSET FLAT:LC40
	mov	DWORD PTR [esp+4], OFFSET FLAT:___PRETTY_FUNCTION__.50072
	mov	DWORD PTR [esp], 0
	call	_g_return_if_fail_warning
LVL627:
LBE109:
LBE108:
	.loc 1 1700 0
	mov	edx, DWORD PTR [esp+28]
	xor	edx, DWORD PTR ___stack_chk_guard
	jne	L453
	add	esp, 36
LCFI260:
	.cfi_remember_state
	.cfi_def_cfa_offset 12
	pop	ebx
LCFI261:
	.cfi_restore 3
	.cfi_def_cfa_offset 8
	pop	esi
LCFI262:
	.cfi_restore 6
	.cfi_def_cfa_offset 4
	ret
LVL628:
	.p2align 2,,3
L448:
LCFI263:
	.cfi_restore_state
	.loc 1 1696 0
	mov	DWORD PTR [esp], ebx
	call	_purple_buddy_get_account
LVL629:
	mov	DWORD PTR [esp], eax
	call	_purple_account_get_connection
LVL630:
	.loc 1 1697 0
	mov	DWORD PTR [esp], eax
	call	_purple_connection_get_protocol_data
LVL631:
	mov	esi, eax
LVL632:
	.loc 1 1699 0
	mov	DWORD PTR [esp], ebx
	call	_purple_buddy_get_name
LVL633:
	mov	edx, DWORD PTR [esp+28]
	xor	edx, DWORD PTR ___stack_chk_guard
	jne	L453
	xor	ecx, ecx
	mov	edx, eax
	mov	eax, esi
	.loc 1 1700 0
	add	esp, 36
LCFI264:
	.cfi_remember_state
	.cfi_def_cfa_offset 12
	pop	ebx
LCFI265:
	.cfi_restore 3
	.cfi_def_cfa_offset 8
LVL634:
	pop	esi
LCFI266:
	.cfi_restore 6
	.cfi_def_cfa_offset 4
LVL635:
	.loc 1 1699 0
	jmp	_jabber_buddy_set_invisibility
LVL636:
L453:
LCFI267:
	.cfi_restore_state
	.loc 1 1700 0
	call	___stack_chk_fail
LVL637:
	.cfi_endproc
LFE128:
	.p2align 2,,3
	.globl	_jabber_buddy_find_resource
	.def	_jabber_buddy_find_resource;	.scl	2;	.type	32;	.endef
_jabber_buddy_find_resource:
LFB97:
	.loc 1 209 0
	.cfi_startproc
LVL638:
	push	edi
LCFI268:
	.cfi_def_cfa_offset 8
	.cfi_offset 7, -8
	push	esi
LCFI269:
	.cfi_def_cfa_offset 12
	.cfi_offset 6, -12
	push	ebx
LCFI270:
	.cfi_def_cfa_offset 16
	.cfi_offset 3, -16
	sub	esp, 32
LCFI271:
	.cfi_def_cfa_offset 48
	mov	eax, DWORD PTR [esp+48]
	mov	edi, DWORD PTR [esp+52]
	.loc 1 209 0
	mov	edx, DWORD PTR ___stack_chk_guard
	mov	DWORD PTR [esp+28], edx
	xor	edx, edx
	.loc 1 212 0
	test	eax, eax
	je	L465
	.loc 1 215 0
	test	edi, edi
	je	L475
	.loc 1 218 0
	mov	ebx, DWORD PTR [eax]
LVL639:
	test	ebx, ebx
	je	L465
	.p2align 2,,3
L470:
LBB114:
	.loc 1 220 0
	mov	esi, DWORD PTR [ebx]
LVL640:
	.loc 1 221 0
	mov	edx, DWORD PTR [esi+4]
	test	edx, edx
	je	L463
	.loc 1 221 0 is_stmt 0 discriminator 1
	mov	DWORD PTR [esp+4], edx
	mov	DWORD PTR [esp], edi
	call	_g_str_equal
LVL641:
	test	eax, eax
	jne	L457
L463:
LBE114:
	.loc 1 218 0 is_stmt 1
	mov	ebx, DWORD PTR [ebx+4]
LVL642:
	test	ebx, ebx
	jne	L470
LVL643:
L465:
LBB115:
LBB116:
	.loc 1 216 0
	xor	esi, esi
L457:
LBE116:
LBE115:
	.loc 1 226 0
	mov	eax, esi
	mov	edx, DWORD PTR [esp+28]
	xor	edx, DWORD PTR ___stack_chk_guard
	jne	L476
	add	esp, 32
LCFI272:
	.cfi_remember_state
	.cfi_def_cfa_offset 16
	pop	ebx
LCFI273:
	.cfi_restore 3
	.cfi_def_cfa_offset 12
	pop	esi
LCFI274:
	.cfi_restore 6
	.cfi_def_cfa_offset 8
	pop	edi
LCFI275:
	.cfi_restore 7
	.cfi_def_cfa_offset 4
	ret
	.p2align 2,,3
L475:
LCFI276:
	.cfi_restore_state
LVL644:
LBB118:
LBB117:
	.loc 1 216 0
	mov	eax, DWORD PTR [eax]
LVL645:
	test	eax, eax
	je	L465
	mov	esi, DWORD PTR [eax]
	jmp	L457
LVL646:
L476:
LBE117:
LBE118:
	.loc 1 226 0
	call	___stack_chk_fail
LVL647:
	.cfi_endproc
LFE97:
	.section .rdata,"dr"
LC69:
	.ascii "Resource\0"
LC70:
	.ascii "Uptime\0"
LC71:
	.ascii "Logged Off\0"
LC72:
	.ascii "%s ago\0"
LC73:
	.ascii "Offline\0"
	.text
	.p2align 2,,3
	.def	_jabber_buddy_info_show_if_ready;	.scl	3;	.type	32;	.endef
_jabber_buddy_info_show_if_ready:
LFB107:
	.loc 1 783 0
	.cfi_startproc
LVL648:
	push	ebp
LCFI277:
	.cfi_def_cfa_offset 8
	.cfi_offset 5, -8
	push	edi
LCFI278:
	.cfi_def_cfa_offset 12
	.cfi_offset 7, -12
	push	esi
LCFI279:
	.cfi_def_cfa_offset 16
	.cfi_offset 6, -16
	push	ebx
LCFI280:
	.cfi_def_cfa_offset 20
	.cfi_offset 3, -20
	sub	esp, 76
LCFI281:
	.cfi_def_cfa_offset 96
	mov	ebx, eax
	.loc 1 783 0
	mov	eax, DWORD PTR ___stack_chk_guard
	mov	DWORD PTR [esp+60], eax
	xor	eax, eax
LVL649:
	.loc 1 790 0
	mov	ebp, DWORD PTR [ebx+12]
	test	ebp, ebp
	je	L515
	.loc 1 866 0
	mov	ecx, DWORD PTR [esp+60]
	xor	ecx, DWORD PTR ___stack_chk_guard
	jne	L514
	add	esp, 76
LCFI282:
	.cfi_remember_state
	.cfi_def_cfa_offset 20
	pop	ebx
LCFI283:
	.cfi_restore 3
	.cfi_def_cfa_offset 16
LVL650:
	pop	esi
LCFI284:
	.cfi_restore 6
	.cfi_def_cfa_offset 12
	pop	edi
LCFI285:
	.cfi_restore 7
	.cfi_def_cfa_offset 8
	pop	ebp
LCFI286:
	.cfi_restore 5
	.cfi_def_cfa_offset 4
	ret
LVL651:
	.p2align 2,,3
L515:
LCFI287:
	.cfi_restore_state
LBB124:
LBB125:
	.loc 1 793 0
	mov	ebp, DWORD PTR [ebx+28]
LVL652:
	.loc 1 794 0
	mov	eax, DWORD PTR [ebx+8]
	mov	DWORD PTR [esp], eax
	call	_jabber_get_resource
LVL653:
	mov	DWORD PTR [esp+44], eax
LVL654:
	.loc 1 797 0
	mov	DWORD PTR [esp], ebp
	call	_purple_notify_user_info_get_entries
LVL655:
	test	eax, eax
	je	L479
	.loc 1 798 0
	mov	DWORD PTR [esp], ebp
	call	_purple_notify_user_info_prepend_section_break
LVL656:
L479:
	.loc 1 801 0
	mov	edi, DWORD PTR [esp+44]
	test	edi, edi
	je	L480
	.loc 1 802 0
	mov	eax, DWORD PTR [esp+44]
	mov	DWORD PTR [esp+4], eax
	mov	eax, DWORD PTR [ebx+4]
	mov	DWORD PTR [esp], eax
	call	_jabber_buddy_find_resource
LVL657:
LBE125:
	.loc 1 2334 0
	lea	edx, [ebx+28]
LBB131:
	.loc 1 803 0
	mov	DWORD PTR [esp], eax
	mov	ecx, DWORD PTR [esp+44]
	mov	eax, DWORD PTR [ebx+16]
LVL658:
	call	_add_jbr_info.isra.8
LVL659:
L481:
	.loc 1 823 0
	mov	eax, DWORD PTR [ebx+4]
	mov	esi, DWORD PTR [eax]
	test	esi, esi
	je	L488
L489:
	.loc 1 854 0
	mov	eax, DWORD PTR [esp+44]
	mov	DWORD PTR [esp], eax
	call	_g_free
LVL660:
	.loc 1 856 0
	mov	DWORD PTR [esp+16], 0
	mov	DWORD PTR [esp+12], 0
	mov	DWORD PTR [esp+8], ebp
	mov	eax, DWORD PTR [ebx+8]
	mov	DWORD PTR [esp+4], eax
	mov	eax, DWORD PTR [ebx]
	mov	eax, DWORD PTR [eax+100]
	mov	DWORD PTR [esp], eax
	call	_purple_notify_userinfo
LVL661:
	.loc 1 858 0
	mov	eax, DWORD PTR [ebx+24]
	test	eax, eax
	je	L497
	.p2align 2,,3
L506:
	.loc 1 859 0
	mov	eax, DWORD PTR [eax]
	mov	DWORD PTR [esp], eax
	call	_purple_imgstore_unref_by_id
LVL662:
	.loc 1 860 0
	mov	eax, DWORD PTR [ebx+24]
	mov	DWORD PTR [esp+4], eax
	mov	DWORD PTR [esp], eax
	call	_g_slist_delete_link
LVL663:
	mov	DWORD PTR [ebx+24], eax
	.loc 1 858 0
	test	eax, eax
	jne	L506
L497:
	.loc 1 863 0
	mov	esi, DWORD PTR [ebx]
	mov	DWORD PTR [esp+4], ebx
	mov	eax, DWORD PTR [esi+124]
	mov	DWORD PTR [esp], eax
	call	_g_slist_remove
LVL664:
	mov	DWORD PTR [esi+124], eax
	.loc 1 865 0
	mov	ecx, DWORD PTR [esp+60]
	xor	ecx, DWORD PTR ___stack_chk_guard
	jne	L514
	mov	eax, ebx
LBE131:
LBE124:
	.loc 1 866 0
	add	esp, 76
LCFI288:
	.cfi_remember_state
	.cfi_def_cfa_offset 20
	pop	ebx
LCFI289:
	.cfi_restore 3
	.cfi_def_cfa_offset 16
LVL665:
	pop	esi
LCFI290:
	.cfi_restore 6
	.cfi_def_cfa_offset 12
	pop	edi
LCFI291:
	.cfi_restore 7
	.cfi_def_cfa_offset 8
	pop	ebp
LCFI292:
	.cfi_restore 5
	.cfi_def_cfa_offset 4
LVL666:
LBB133:
LBB132:
	.loc 1 865 0
	jmp	_jabber_buddy_info_destroy
LVL667:
	.p2align 2,,3
L480:
LCFI293:
	.cfi_restore_state
	.loc 1 807 0
	mov	eax, DWORD PTR [ebx+4]
	mov	esi, DWORD PTR [eax]
LVL668:
	test	esi, esi
	je	L488
	.loc 1 808 0
	mov	edi, DWORD PTR [esi]
LVL669:
	lea	eax, [ebx+28]
	mov	DWORD PTR [esp+40], eax
	.p2align 2,,3
L511:
	.loc 1 816 0
	mov	ecx, DWORD PTR [edi+4]
	mov	eax, DWORD PTR [ebx+16]
	mov	DWORD PTR [esp], edi
	mov	edx, DWORD PTR [esp+40]
	call	_add_jbr_info.isra.8
LVL670:
	.loc 1 818 0
	mov	edi, DWORD PTR [edi+4]
LVL671:
	test	edi, edi
	je	L486
	.loc 1 819 0
	mov	DWORD PTR [esp+4], OFFSET FLAT:LC69
	mov	DWORD PTR [esp], OFFSET FLAT:LC1
	call	_libintl_dgettext
LVL672:
	mov	DWORD PTR [esp+8], edi
	mov	DWORD PTR [esp+4], eax
	mov	DWORD PTR [esp], ebp
	call	_purple_notify_user_info_prepend_pair
LVL673:
L486:
	.loc 1 807 0
	mov	esi, DWORD PTR [esi+4]
LVL674:
	test	esi, esi
	je	L481
	.loc 1 808 0
	mov	edi, DWORD PTR [esi]
LVL675:
	.loc 1 813 0
	mov	eax, DWORD PTR [ebx+4]
	cmp	DWORD PTR [eax], esi
	je	L511
	.loc 1 814 0
	mov	DWORD PTR [esp], ebp
	call	_purple_notify_user_info_prepend_section_break
LVL676:
	jmp	L511
LVL677:
L488:
LBB126:
	.loc 1 825 0
	mov	eax, DWORD PTR [ebx+8]
	mov	DWORD PTR [esp], eax
	call	_jabber_jid_is_domain
LVL678:
	mov	esi, eax
LVL679:
	.loc 1 827 0
	mov	eax, DWORD PTR [ebx+32]
LVL680:
	test	eax, eax
	jle	L484
LBB127:
	.loc 1 828 0
	mov	DWORD PTR [esp], eax
	call	_purple_str_seconds_to_string
LVL681:
	mov	edi, eax
LVL682:
	.loc 1 831 0
	test	esi, esi
	je	L490
	.loc 1 832 0
	mov	DWORD PTR [esp+4], OFFSET FLAT:LC70
	mov	DWORD PTR [esp], OFFSET FLAT:LC1
	call	_libintl_dgettext
LVL683:
	mov	edx, eax
LVL684:
	.loc 1 834 0
	mov	DWORD PTR [esp+40], 0
LVL685:
L491:
	.loc 1 839 0
	mov	DWORD PTR [esp+8], edi
	mov	DWORD PTR [esp+4], edx
	mov	DWORD PTR [esp], ebp
	call	_purple_notify_user_info_prepend_pair
LVL686:
	.loc 1 840 0
	mov	ecx, DWORD PTR [esp+40]
	mov	DWORD PTR [esp], ecx
	call	_g_free
LVL687:
	.loc 1 841 0
	mov	DWORD PTR [esp], edi
	call	_g_free
LVL688:
L484:
LBE127:
	.loc 1 844 0
	test	esi, esi
	jne	L489
LBB128:
	.loc 1 848 0
	mov	esi, DWORD PTR [ebx+36]
LVL689:
	.loc 1 846 0
	test	esi, esi
	je	L500
	mov	edi, OFFSET FLAT:LC56
L493:
	mov	DWORD PTR [esp+4], OFFSET FLAT:LC73
	mov	DWORD PTR [esp], OFFSET FLAT:LC1
	call	_libintl_dgettext
LVL690:
	.loc 1 845 0
	mov	DWORD PTR [esp+12], esi
	mov	DWORD PTR [esp+8], edi
	mov	DWORD PTR [esp+4], eax
	mov	DWORD PTR [esp], OFFSET FLAT:LC57
	call	_g_strdup_printf
LVL691:
	mov	esi, eax
LVL692:
	.loc 1 849 0
	mov	DWORD PTR [esp+4], OFFSET FLAT:LC63
	mov	DWORD PTR [esp], OFFSET FLAT:LC1
	call	_libintl_dgettext
LVL693:
	mov	DWORD PTR [esp+8], esi
	mov	DWORD PTR [esp+4], eax
	mov	DWORD PTR [esp], ebp
	call	_purple_notify_user_info_prepend_pair
LVL694:
	.loc 1 850 0
	mov	DWORD PTR [esp], esi
	call	_g_free
LVL695:
	jmp	L489
LVL696:
L490:
LBE128:
LBB129:
	.loc 1 836 0
	mov	DWORD PTR [esp+4], OFFSET FLAT:LC71
	mov	DWORD PTR [esp], OFFSET FLAT:LC1
	call	_libintl_dgettext
LVL697:
	.loc 1 837 0
	mov	DWORD PTR [esp+4], OFFSET FLAT:LC72
	mov	DWORD PTR [esp], OFFSET FLAT:LC1
	mov	DWORD PTR [esp+36], eax
	call	_libintl_dgettext
LVL698:
	mov	DWORD PTR [esp+4], edi
	mov	DWORD PTR [esp], eax
	call	_g_strdup_printf
LVL699:
	.loc 1 828 0
	mov	DWORD PTR [esp+40], edi
	.loc 1 837 0
	mov	edi, eax
LVL700:
	mov	edx, DWORD PTR [esp+36]
	jmp	L491
LVL701:
L500:
LBE129:
LBB130:
	.loc 1 846 0
	mov	esi, OFFSET FLAT:LC51
	mov	edi, esi
	jmp	L493
LVL702:
L514:
LBE130:
LBE126:
LBE132:
LBE133:
	.loc 1 866 0
	call	___stack_chk_fail
LVL703:
	.cfi_endproc
LFE107:
	.p2align 2,,3
	.def	_jabber_buddy_get_info_timeout;	.scl	3;	.type	32;	.endef
_jabber_buddy_get_info_timeout:
LFB121:
	.loc 1 1459 0
	.cfi_startproc
LVL704:
	push	esi
LCFI294:
	.cfi_def_cfa_offset 8
	.cfi_offset 6, -8
	push	ebx
LCFI295:
	.cfi_def_cfa_offset 12
	.cfi_offset 3, -12
	sub	esp, 36
LCFI296:
	.cfi_def_cfa_offset 48
	mov	ebx, DWORD PTR [esp+48]
	.loc 1 1459 0
	mov	eax, DWORD PTR ___stack_chk_guard
	mov	DWORD PTR [esp+28], eax
	xor	eax, eax
LVL705:
	.loc 1 1463 0
	mov	eax, DWORD PTR [ebx+12]
	test	eax, eax
	je	L519
	.p2align 2,,3
L521:
LBB134:
	.loc 1 1464 0
	mov	esi, DWORD PTR [eax]
LVL706:
	.loc 1 1465 0
	mov	DWORD PTR [esp+4], esi
	mov	eax, DWORD PTR [ebx]
	mov	DWORD PTR [esp], eax
	call	_jabber_iq_remove_callback_by_id
LVL707:
	.loc 1 1466 0
	mov	DWORD PTR [esp+4], esi
	mov	eax, DWORD PTR [ebx+12]
	mov	DWORD PTR [esp], eax
	call	_g_slist_remove
LVL708:
	mov	DWORD PTR [ebx+12], eax
	.loc 1 1467 0
	mov	DWORD PTR [esp], esi
	call	_g_free
LVL709:
LBE134:
	.loc 1 1463 0
	mov	eax, DWORD PTR [ebx+12]
	test	eax, eax
	jne	L521
LVL710:
L519:
	.loc 1 1470 0
	mov	esi, DWORD PTR [ebx]
	mov	DWORD PTR [esp+4], ebx
	mov	eax, DWORD PTR [esi+124]
	mov	DWORD PTR [esp], eax
	call	_g_slist_remove
LVL711:
	mov	DWORD PTR [esi+124], eax
	.loc 1 1471 0
	mov	DWORD PTR [ebx+20], 0
	.loc 1 1473 0
	mov	eax, ebx
	call	_jabber_buddy_info_show_if_ready
LVL712:
	.loc 1 1476 0
	xor	eax, eax
	mov	edx, DWORD PTR [esp+28]
	xor	edx, DWORD PTR ___stack_chk_guard
	jne	L525
	add	esp, 36
LCFI297:
	.cfi_remember_state
	.cfi_def_cfa_offset 12
	pop	ebx
LCFI298:
	.cfi_restore 3
	.cfi_def_cfa_offset 8
LVL713:
	pop	esi
LCFI299:
	.cfi_restore 6
	.cfi_def_cfa_offset 4
	ret
LVL714:
L525:
LCFI300:
	.cfi_restore_state
	call	___stack_chk_fail
LVL715:
	.cfi_endproc
LFE121:
	.section .rdata,"dr"
LC74:
	.ascii "seconds\0"
LC75:
	.ascii "jbi != NULL\0"
	.text
	.p2align 2,,3
	.def	_jabber_last_offline_parse;	.scl	3;	.type	32;	.endef
_jabber_last_offline_parse:
LFB118:
	.loc 1 1362 0
	.cfi_startproc
LVL716:
	push	edi
LCFI301:
	.cfi_def_cfa_offset 8
	.cfi_offset 7, -8
	push	esi
LCFI302:
	.cfi_def_cfa_offset 12
	.cfi_offset 6, -12
	push	ebx
LCFI303:
	.cfi_def_cfa_offset 16
	.cfi_offset 3, -16
	sub	esp, 32
LCFI304:
	.cfi_def_cfa_offset 48
	mov	esi, DWORD PTR [esp+56]
	mov	edx, DWORD PTR [esp+60]
	mov	edi, DWORD PTR [esp+64]
	mov	ebx, DWORD PTR [esp+68]
	.loc 1 1362 0
	mov	eax, DWORD PTR ___stack_chk_guard
	mov	DWORD PTR [esp+28], eax
	xor	eax, eax
LVL717:
LBB135:
	.loc 1 1367 0
	test	ebx, ebx
	je	L542
LVL718:
LBE135:
	.loc 1 2334 0
	lea	eax, [ebx+12]
	.loc 1 1369 0
	call	_jabber_buddy_info_remove_id.isra.7
LVL719:
	.loc 1 1371 0
	cmp	esi, 2
	je	L543
LVL720:
L530:
	.loc 1 1385 0
	mov	eax, ebx
	call	_jabber_buddy_info_show_if_ready
LVL721:
L526:
	.loc 1 1386 0
	mov	eax, DWORD PTR [esp+28]
	xor	eax, DWORD PTR ___stack_chk_guard
	jne	L544
	add	esp, 32
LCFI305:
	.cfi_remember_state
	.cfi_def_cfa_offset 16
	pop	ebx
LCFI306:
	.cfi_restore 3
	.cfi_def_cfa_offset 12
LVL722:
	pop	esi
LCFI307:
	.cfi_restore 6
	.cfi_def_cfa_offset 8
	pop	edi
LCFI308:
	.cfi_restore 7
	.cfi_def_cfa_offset 4
	ret
LVL723:
	.p2align 2,,3
L542:
LCFI309:
	.cfi_restore_state
	.loc 1 1367 0
	mov	DWORD PTR [esp+8], OFFSET FLAT:LC75
	mov	DWORD PTR [esp+4], OFFSET FLAT:___PRETTY_FUNCTION__.49961
	mov	DWORD PTR [esp], 0
	call	_g_return_if_fail_warning
LVL724:
	jmp	L526
LVL725:
	.p2align 2,,3
L543:
	.loc 1 1372 0
	mov	DWORD PTR [esp+4], OFFSET FLAT:LC4
	mov	DWORD PTR [esp], edi
	call	_xmlnode_get_child
LVL726:
	mov	esi, eax
LVL727:
	test	eax, eax
	je	L530
	.loc 1 1373 0
	mov	DWORD PTR [esp+4], OFFSET FLAT:LC74
	mov	DWORD PTR [esp], eax
	call	_xmlnode_get_attrib
LVL728:
	mov	edi, eax
LVL729:
	.loc 1 1374 0
	test	eax, eax
	je	L531
LBB136:
	.loc 1 1375 0
	mov	DWORD PTR [esp+24], 0
LVL730:
	.loc 1 1376 0
	mov	DWORD PTR [esp+8], 10
	lea	eax, [esp+24]
LVL731:
	mov	DWORD PTR [esp+4], eax
	mov	DWORD PTR [esp], edi
	call	_strtol
LVL732:
	.loc 1 1377 0
	cmp	DWORD PTR [esp+24], edi
	je	L531
	.loc 1 1378 0
	mov	DWORD PTR [ebx+32], eax
LVL733:
L531:
LBE136:
	.loc 1 1381 0
	mov	DWORD PTR [esp], esi
	call	_xmlnode_get_data
LVL734:
	mov	DWORD PTR [ebx+36], eax
	jmp	L530
LVL735:
L544:
	.loc 1 1386 0
	call	___stack_chk_fail
LVL736:
	.cfi_endproc
LFE118:
	.section .rdata,"dr"
LC76:
	.ascii "Got error response for vCard\12\0"
LC77:
	.ascii "vcard-temp\0"
LC78:
	.ascii "FN\0"
LC79:
	.ascii "FAMILY\0"
LC80:
	.ascii "Family Name\0"
LC81:
	.ascii "GIVEN\0"
LC82:
	.ascii "Given Name\0"
LC83:
	.ascii "MIDDLE\0"
LC84:
	.ascii "Middle Name\0"
LC85:
	.ascii "NICKNAME\0"
LC86:
	.ascii "BDAY\0"
LC87:
	.ascii "Birthday\0"
LC88:
	.ascii "ADR\0"
LC89:
	.ascii "Address\0"
LC90:
	.ascii "POBOX\0"
LC91:
	.ascii "P.O. Box\0"
LC92:
	.ascii "EXTADD\0"
LC93:
	.ascii "Extended Address\0"
LC94:
	.ascii "EXTADR\0"
LC95:
	.ascii "STREET\0"
LC96:
	.ascii "Street Address\0"
LC97:
	.ascii "LOCALITY\0"
LC98:
	.ascii "Locality\0"
LC99:
	.ascii "REGION\0"
LC100:
	.ascii "Region\0"
LC101:
	.ascii "PCODE\0"
LC102:
	.ascii "Postal Code\0"
LC103:
	.ascii "CTRY\0"
LC104:
	.ascii "COUNTRY\0"
LC105:
	.ascii "Country\0"
LC106:
	.ascii "TEL\0"
LC107:
	.ascii "NUMBER\0"
LC108:
	.ascii "Telephone\0"
LC109:
	.ascii "EMAIL\0"
LC110:
	.ascii "USERID\0"
LC111:
	.ascii "<a href=\"mailto:%s\">%s</a>\0"
LC112:
	.ascii "ORG\0"
LC113:
	.ascii "ORGNAME\0"
LC114:
	.ascii "Organization Name\0"
LC115:
	.ascii "ORGUNIT\0"
LC116:
	.ascii "Organization Unit\0"
LC117:
	.ascii "TITLE\0"
LC118:
	.ascii "Job Title\0"
LC119:
	.ascii "ROLE\0"
LC120:
	.ascii "Role\0"
LC121:
	.ascii "DESC\0"
LC122:
	.ascii "Description\0"
LC123:
	.ascii "PHOTO\0"
LC124:
	.ascii "LOGO\0"
LC125:
	.ascii "BINVAL\0"
LC126:
	.ascii "logo.png\0"
LC127:
	.ascii "<img id='%d'>\0"
LC128:
	.ascii "Photo\0"
LC129:
	.ascii "Logo\0"
LC130:
	.ascii "sha1\0"
LC131:
	.ascii "servernick\0"
LC132:
	.ascii "N\0"
	.text
	.p2align 2,,3
	.def	_jabber_vcard_parse;	.scl	3;	.type	32;	.endef
_jabber_vcard_parse:
LFB112:
	.loc 1 985 0
	.cfi_startproc
LVL737:
	push	ebp
LCFI310:
	.cfi_def_cfa_offset 8
	.cfi_offset 5, -8
	push	edi
LCFI311:
	.cfi_def_cfa_offset 12
	.cfi_offset 7, -12
	push	esi
LCFI312:
	.cfi_def_cfa_offset 16
	.cfi_offset 6, -16
	push	ebx
LCFI313:
	.cfi_def_cfa_offset 20
	.cfi_offset 3, -20
	sub	esp, 108
LCFI314:
	.cfi_def_cfa_offset 128
	mov	eax, DWORD PTR [esp+128]
	mov	DWORD PTR [esp+60], eax
	mov	ebx, DWORD PTR [esp+132]
	mov	esi, DWORD PTR [esp+136]
	mov	edx, DWORD PTR [esp+140]
	mov	edi, DWORD PTR [esp+144]
	mov	eax, DWORD PTR [esp+148]
	mov	DWORD PTR [esp+44], eax
	.loc 1 985 0
	mov	eax, DWORD PTR ___stack_chk_guard
	mov	DWORD PTR [esp+92], eax
	xor	eax, eax
LVL738:
LBB137:
	.loc 1 994 0
	mov	ebp, DWORD PTR [esp+44]
	test	ebp, ebp
	je	L684
LVL739:
LBE137:
	.loc 1 2334 0
	mov	eax, DWORD PTR [esp+44]
	add	eax, 12
	.loc 1 996 0
	call	_jabber_buddy_info_remove_id.isra.7
LVL740:
	.loc 1 998 0
	cmp	esi, 3
	je	L685
	.loc 1 1004 0
	mov	eax, DWORD PTR [esp+44]
	mov	eax, DWORD PTR [eax+28]
	mov	DWORD PTR [esp+52], eax
LVL741:
	.loc 1 1005 0
	mov	edx, DWORD PTR [esp+60]
	mov	eax, DWORD PTR [edx+100]
LVL742:
	mov	DWORD PTR [esp], eax
	call	_purple_connection_get_account
LVL743:
	mov	DWORD PTR [esp+68], eax
LVL744:
	.loc 1 1006 0
	test	ebx, ebx
	je	L686
LVL745:
L549:
	.loc 1 1006 0 is_stmt 0 discriminator 3
	mov	DWORD PTR [esp], ebx
	call	_jabber_get_bare_jid
LVL746:
	mov	DWORD PTR [esp+56], eax
LVL747:
	.loc 1 1009 0 is_stmt 1 discriminator 3
	mov	DWORD PTR [esp+4], OFFSET FLAT:LC47
	mov	DWORD PTR [esp], edi
	call	_xmlnode_get_child
LVL748:
	test	eax, eax
	je	L687
L550:
LBB138:
	.loc 1 1012 0
	mov	ebp, DWORD PTR [eax+24]
LVL749:
	test	ebp, ebp
	je	L551
	mov	DWORD PTR [esp+48], 0
LBB139:
LBB140:
LBB141:
	.loc 1 1179 0
	mov	ebx, ebp
	jmp	L594
LVL750:
	.p2align 2,,3
L553:
LBE141:
LBE140:
LBE139:
	.loc 1 1012 0
	mov	ebx, DWORD PTR [ebx+32]
LVL751:
	test	ebx, ebx
	je	L688
LVL752:
L594:
LBB172:
	.loc 1 1016 0
	mov	esi, DWORD PTR [ebx+8]
	test	esi, esi
	jne	L553
	.loc 1 1019 0
	mov	DWORD PTR [esp], ebx
	call	_xmlnode_get_data
LVL753:
	mov	DWORD PTR [esp+40], eax
LVL754:
	.loc 1 1020 0
	mov	ebp, DWORD PTR [ebx]
	test	eax, eax
	je	L554
	.loc 1 1020 0 is_stmt 0 discriminator 1
	mov	edi, OFFSET FLAT:LC78
	mov	ecx, 3
	mov	esi, ebp
	repe cmpsb
	je	L689
	.loc 1 1025 0 is_stmt 1
	mov	DWORD PTR [esp+4], OFFSET FLAT:LC132
	mov	DWORD PTR [esp], ebp
	call	_strcmp
LVL755:
	test	eax, eax
	jne	L690
L598:
	.loc 1 1026 0
	mov	ebp, DWORD PTR [ebx+24]
LVL756:
	test	ebp, ebp
	je	L557
LBB146:
	.loc 1 1036 0
	mov	DWORD PTR [esp+64], ebx
	jmp	L645
LVL757:
	.p2align 2,,3
L558:
LBE146:
	.loc 1 1026 0
	mov	ebp, DWORD PTR [ebp+32]
LVL758:
	test	ebp, ebp
	je	L680
L645:
LBB147:
	.loc 1 1030 0
	mov	edx, DWORD PTR [ebp+8]
	test	edx, edx
	jne	L558
	.loc 1 1033 0
	mov	DWORD PTR [esp], ebp
	call	_xmlnode_get_data
LVL759:
	mov	ebx, eax
LVL760:
	.loc 1 1034 0
	test	eax, eax
	je	L559
	.loc 1 1034 0 is_stmt 0 discriminator 1
	mov	eax, DWORD PTR [ebp+0]
LVL761:
	mov	edi, OFFSET FLAT:LC79
	mov	esi, eax
	mov	ecx, 7
	repe cmpsb
	je	L691
	.loc 1 1036 0 is_stmt 1 discriminator 1
	mov	edi, OFFSET FLAT:LC81
	mov	esi, eax
	mov	ecx, 6
	repe cmpsb
	je	L692
	.loc 1 1038 0 discriminator 1
	mov	edi, OFFSET FLAT:LC83
	mov	esi, eax
	mov	ecx, 7
	repe cmpsb
	je	L693
L559:
	.loc 1 1041 0
	mov	DWORD PTR [esp], ebx
	call	_g_free
LVL762:
LBE147:
	.loc 1 1026 0
	mov	ebp, DWORD PTR [ebp+32]
LVL763:
	test	ebp, ebp
	jne	L645
LVL764:
L680:
	mov	ebx, DWORD PTR [esp+64]
	jmp	L557
LVL765:
	.p2align 2,,3
L689:
	.loc 1 1021 0
	mov	ecx, DWORD PTR [esp+48]
	test	ecx, ecx
	je	L694
LVL766:
L556:
	.loc 1 1024 0
	mov	DWORD PTR [esp+4], OFFSET FLAT:LC46
LVL767:
L681:
	.loc 1 1167 0
	mov	DWORD PTR [esp], OFFSET FLAT:LC1
	call	_libintl_dgettext
LVL768:
	mov	edx, DWORD PTR [esp+40]
	mov	DWORD PTR [esp+8], edx
	mov	DWORD PTR [esp+4], eax
	mov	edx, DWORD PTR [esp+52]
	mov	DWORD PTR [esp], edx
	call	_purple_notify_user_info_add_pair_plaintext
LVL769:
L557:
	.loc 1 1197 0
	mov	eax, DWORD PTR [esp+40]
	mov	DWORD PTR [esp], eax
	call	_g_free
LVL770:
LBE172:
	.loc 1 1012 0
	mov	ebx, DWORD PTR [ebx+32]
LVL771:
	test	ebx, ebx
	jne	L594
LVL772:
L688:
LBE138:
	.loc 1 1201 0
	mov	eax, DWORD PTR [esp+48]
	test	eax, eax
	je	L551
LBB177:
	.loc 1 1204 0
	mov	eax, DWORD PTR [esp+48]
	mov	DWORD PTR [esp+8], eax
	mov	eax, DWORD PTR [esp+56]
	mov	DWORD PTR [esp+4], eax
	mov	edx, DWORD PTR [esp+60]
	mov	eax, DWORD PTR [edx+100]
	mov	DWORD PTR [esp], eax
	call	_serv_got_alias
LVL773:
	.loc 1 1205 0
	mov	eax, DWORD PTR [esp+56]
	mov	DWORD PTR [esp+4], eax
	mov	eax, DWORD PTR [esp+68]
	mov	DWORD PTR [esp], eax
	call	_purple_find_buddy
LVL774:
	.loc 1 1206 0
	test	eax, eax
	je	L595
	.loc 1 1207 0
	mov	edx, DWORD PTR [esp+48]
	mov	DWORD PTR [esp+8], edx
	mov	DWORD PTR [esp+4], OFFSET FLAT:LC131
	mov	DWORD PTR [esp], eax
	call	_purple_blist_node_set_string
LVL775:
L595:
	.loc 1 1210 0
	mov	eax, DWORD PTR [esp+48]
	mov	DWORD PTR [esp], eax
	call	_g_free
LVL776:
L551:
LBE177:
	.loc 1 1213 0
	mov	eax, DWORD PTR [esp+56]
	mov	DWORD PTR [esp], eax
	call	_g_free
LVL777:
	.loc 1 1215 0
	mov	eax, DWORD PTR [esp+44]
	call	_jabber_buddy_info_show_if_ready
LVL778:
L545:
	.loc 1 1216 0
	mov	edx, DWORD PTR [esp+92]
	xor	edx, DWORD PTR ___stack_chk_guard
	jne	L695
	add	esp, 108
LCFI315:
	.cfi_remember_state
	.cfi_def_cfa_offset 20
	pop	ebx
LCFI316:
	.cfi_restore 3
	.cfi_def_cfa_offset 16
	pop	esi
LCFI317:
	.cfi_restore 6
	.cfi_def_cfa_offset 12
	pop	edi
LCFI318:
	.cfi_restore 7
	.cfi_def_cfa_offset 8
	pop	ebp
LCFI319:
	.cfi_restore 5
	.cfi_def_cfa_offset 4
	ret
LVL779:
L690:
LCFI320:
	.cfi_restore_state
LBB178:
LBB173:
	.loc 1 1043 0 discriminator 1
	mov	edi, OFFSET FLAT:LC85
	mov	ecx, 9
	mov	esi, ebp
	repe cmpsb
	je	L696
	.loc 1 1052 0 discriminator 1
	mov	edi, OFFSET FLAT:LC86
	mov	ecx, 5
	mov	esi, ebp
	repe cmpsb
	je	L697
L564:
	.loc 1 1054 0
	mov	edi, OFFSET FLAT:LC88
	mov	esi, ebp
	mov	ecx, 4
	repe cmpsb
	jne	L565
LVL780:
LBB148:
	.loc 1 1057 0
	mov	ebp, DWORD PTR [ebx+24]
LVL781:
	test	ebp, ebp
	je	L557
	mov	DWORD PTR [esp+64], 0
LBB149:
	.loc 1 1085 0
	mov	DWORD PTR [esp+72], ebx
	jmp	L577
LVL782:
	.p2align 2,,3
L566:
LBE149:
	.loc 1 1057 0
	mov	ebp, DWORD PTR [ebp+32]
LVL783:
	test	ebp, ebp
	je	L698
LVL784:
L577:
LBB150:
	.loc 1 1061 0
	mov	eax, DWORD PTR [ebp+8]
	test	eax, eax
	jne	L566
	.loc 1 1064 0
	mov	DWORD PTR [esp], ebp
	call	_xmlnode_get_data
LVL785:
	mov	ebx, eax
LVL786:
	.loc 1 1065 0
	test	eax, eax
	je	L566
	.loc 1 1070 0
	mov	eax, DWORD PTR [esp+64]
LVL787:
	test	eax, eax
	je	L699
L567:
LVL788:
	.loc 1 1076 0
	mov	eax, DWORD PTR [ebp+0]
	mov	edi, OFFSET FLAT:LC90
	mov	esi, eax
	mov	ecx, 6
	repe cmpsb
	jne	L568
	.loc 1 1077 0
	mov	DWORD PTR [esp+4], OFFSET FLAT:LC91
L678:
	.loc 1 1095 0
	mov	DWORD PTR [esp], OFFSET FLAT:LC1
	call	_libintl_dgettext
LVL789:
	mov	DWORD PTR [esp+8], ebx
	mov	DWORD PTR [esp+4], eax
	mov	edx, DWORD PTR [esp+52]
	mov	DWORD PTR [esp], edx
	call	_purple_notify_user_info_add_pair_plaintext
LVL790:
L569:
	.loc 1 1097 0
	mov	DWORD PTR [esp], ebx
	call	_g_free
LVL791:
LBE150:
	.loc 1 1057 0
	mov	ebp, DWORD PTR [ebp+32]
LVL792:
	test	ebp, ebp
	jne	L577
LVL793:
L698:
	mov	ebx, DWORD PTR [esp+72]
	.loc 1 1100 0
	mov	eax, DWORD PTR [esp+64]
	test	eax, eax
	je	L557
	.loc 1 1101 0
	mov	edx, DWORD PTR [esp+52]
	mov	DWORD PTR [esp], edx
	call	_purple_notify_user_info_add_section_break
LVL794:
	jmp	L557
LVL795:
	.p2align 2,,3
L696:
LBE148:
	.loc 1 1046 0
	mov	eax, DWORD PTR [esp+40]
	mov	DWORD PTR [esp+4], eax
	mov	eax, DWORD PTR [esp+56]
	mov	DWORD PTR [esp], eax
	call	_strstr
LVL796:
	test	eax, eax
	jne	L557
	.loc 1 1047 0
	mov	eax, DWORD PTR [esp+48]
	mov	DWORD PTR [esp], eax
	call	_g_free
LVL797:
	.loc 1 1048 0
	mov	eax, DWORD PTR [esp+40]
	mov	DWORD PTR [esp], eax
	call	_g_strdup
LVL798:
	mov	DWORD PTR [esp+48], eax
LVL799:
	.loc 1 1050 0
	mov	DWORD PTR [esp+4], OFFSET FLAT:LC15
	jmp	L681
LVL800:
	.p2align 2,,3
L691:
LBB156:
	.loc 1 1035 0
	mov	DWORD PTR [esp+4], OFFSET FLAT:LC80
L677:
	.loc 1 1039 0
	mov	DWORD PTR [esp], OFFSET FLAT:LC1
	call	_libintl_dgettext
LVL801:
	mov	DWORD PTR [esp+8], ebx
	mov	DWORD PTR [esp+4], eax
	mov	edx, DWORD PTR [esp+52]
	mov	DWORD PTR [esp], edx
	call	_purple_notify_user_info_add_pair_plaintext
LVL802:
	jmp	L559
	.p2align 2,,3
L692:
	.loc 1 1037 0
	mov	DWORD PTR [esp+4], OFFSET FLAT:LC82
	jmp	L677
	.p2align 2,,3
L693:
	.loc 1 1039 0
	mov	DWORD PTR [esp+4], OFFSET FLAT:LC84
	jmp	L677
LVL803:
	.p2align 2,,3
L565:
LBE156:
	.loc 1 1103 0
	mov	edi, OFFSET FLAT:LC106
	mov	esi, ebp
	mov	ecx, 4
	repe cmpsb
	je	L700
	.loc 1 1118 0
	mov	edi, OFFSET FLAT:LC109
	mov	ecx, 6
	mov	esi, ebp
	repe cmpsb
	je	L701
	.loc 1 1146 0
	mov	edi, OFFSET FLAT:LC112
	mov	esi, ebp
	mov	ecx, 4
	repe cmpsb
	je	L702
	.loc 1 1162 0
	mov	eax, DWORD PTR [esp+40]
	test	eax, eax
	je	L587
	.loc 1 1162 0 is_stmt 0 discriminator 1
	mov	edi, OFFSET FLAT:LC117
	mov	ecx, 6
	mov	esi, ebp
	repe cmpsb
	je	L703
	.loc 1 1164 0 is_stmt 1 discriminator 1
	mov	edi, OFFSET FLAT:LC119
	mov	ecx, 5
	mov	esi, ebp
	repe cmpsb
	je	L704
	.loc 1 1166 0 discriminator 1
	mov	edi, OFFSET FLAT:LC121
	mov	ecx, 5
	mov	esi, ebp
	repe cmpsb
	je	L705
L587:
	.loc 1 1168 0
	mov	ecx, 6
	mov	esi, ebp
	mov	edi, OFFSET FLAT:LC123
	repe cmpsb
	je	L590
	.loc 1 1169 0 discriminator 1
	mov	edi, OFFSET FLAT:LC124
	mov	ecx, 5
	mov	esi, ebp
	.loc 1 1168 0 discriminator 1
	repe cmpsb
	jne	L557
L590:
LVL804:
LBB157:
	.loc 1 1173 0
	mov	DWORD PTR [esp+4], OFFSET FLAT:LC125
	mov	DWORD PTR [esp], ebx
	call	_xmlnode_get_child
LVL805:
	test	eax, eax
	je	L557
	.loc 1 1173 0 is_stmt 0 discriminator 1
	mov	DWORD PTR [esp], eax
	call	_xmlnode_get_data
LVL806:
	mov	DWORD PTR [esp+64], eax
LVL807:
	test	eax, eax
	je	L557
LBB144:
	.loc 1 1177 0 is_stmt 1
	mov	esi, DWORD PTR [ebx]
	mov	ecx, 6
	mov	edi, OFFSET FLAT:LC123
	repe cmpsb
	seta	dl
	setb	al
LVL808:
	sub	edx, eax
	movsx	edi, dl
LVL809:
	.loc 1 1179 0
	lea	eax, [esp+88]
	mov	DWORD PTR [esp+4], eax
	mov	eax, DWORD PTR [esp+64]
	mov	DWORD PTR [esp], eax
	call	_purple_base64_decode
LVL810:
	mov	esi, eax
LVL811:
	.loc 1 1180 0
	test	eax, eax
	je	L591
LBB142:
	.loc 1 1184 0
	mov	ebp, DWORD PTR [esp+88]
	mov	DWORD PTR [esp+4], ebp
	mov	DWORD PTR [esp], eax
	call	_g_memdup
LVL812:
	mov	DWORD PTR [esp+8], OFFSET FLAT:LC126
	mov	DWORD PTR [esp+4], ebp
	mov	DWORD PTR [esp], eax
	call	_purple_imgstore_add_with_id
LVL813:
	mov	DWORD PTR [esp+4], eax
	mov	edx, DWORD PTR [esp+44]
	mov	eax, DWORD PTR [edx+24]
	mov	DWORD PTR [esp], eax
	call	_g_slist_prepend
LVL814:
	mov	edx, DWORD PTR [esp+44]
	mov	DWORD PTR [edx+24], eax
	.loc 1 1185 0
	mov	eax, DWORD PTR [eax]
	mov	DWORD PTR [esp+4], eax
	mov	DWORD PTR [esp], OFFSET FLAT:LC127
	call	_g_strdup_printf
LVL815:
	mov	ebp, eax
LVL816:
	.loc 1 1187 0
	test	edi, edi
	jne	L592
	.loc 1 1187 0 is_stmt 0 discriminator 1
	mov	DWORD PTR [esp+4], OFFSET FLAT:LC128
	mov	DWORD PTR [esp], OFFSET FLAT:LC1
	call	_libintl_dgettext
LVL817:
L593:
	.loc 1 1187 0 discriminator 3
	mov	DWORD PTR [esp+8], ebp
	mov	DWORD PTR [esp+4], eax
	mov	edx, DWORD PTR [esp+52]
	mov	DWORD PTR [esp], edx
	call	_purple_notify_user_info_add_pair
LVL818:
	.loc 1 1189 0 is_stmt 1 discriminator 3
	mov	DWORD PTR [esp+8], OFFSET FLAT:LC130
	mov	eax, DWORD PTR [esp+88]
	mov	DWORD PTR [esp+4], eax
	mov	DWORD PTR [esp], esi
	call	_jabber_calculate_data_hash
LVL819:
	mov	edi, eax
LVL820:
	.loc 1 1190 0 discriminator 3
	mov	DWORD PTR [esp+16], eax
	mov	eax, DWORD PTR [esp+88]
LVL821:
	mov	DWORD PTR [esp+12], eax
	mov	DWORD PTR [esp+8], esi
	mov	eax, DWORD PTR [esp+56]
	mov	DWORD PTR [esp+4], eax
	mov	eax, DWORD PTR [esp+68]
	mov	DWORD PTR [esp], eax
	call	_purple_buddy_icons_set_for_user
LVL822:
	.loc 1 1191 0 discriminator 3
	mov	DWORD PTR [esp], edi
	call	_g_free
LVL823:
	.loc 1 1192 0 discriminator 3
	mov	DWORD PTR [esp], ebp
	call	_g_free
LVL824:
L591:
LBE142:
	.loc 1 1194 0
	mov	eax, DWORD PTR [esp+64]
	mov	DWORD PTR [esp], eax
	call	_g_free
LVL825:
	jmp	L557
LVL826:
	.p2align 2,,3
L685:
LBE144:
LBE157:
LBE173:
LBE178:
	.loc 1 999 0
	mov	DWORD PTR [esp+4], OFFSET FLAT:LC76
	mov	DWORD PTR [esp], OFFSET FLAT:LC24
	call	_purple_debug_info
LVL827:
	.loc 1 1000 0
	mov	eax, DWORD PTR [esp+44]
	call	_jabber_buddy_info_show_if_ready
LVL828:
	.loc 1 1001 0
	jmp	L545
LVL829:
	.p2align 2,,3
L568:
LBB179:
LBB174:
LBB158:
LBB151:
	.loc 1 1078 0
	mov	DWORD PTR [esp+4], OFFSET FLAT:LC92
	mov	DWORD PTR [esp], eax
	call	_g_str_equal
LVL830:
	test	eax, eax
	jne	L571
	.loc 1 1078 0 is_stmt 0 discriminator 1
	mov	DWORD PTR [esp+4], OFFSET FLAT:LC94
	mov	eax, DWORD PTR [ebp+0]
	mov	DWORD PTR [esp], eax
	call	_g_str_equal
LVL831:
	test	eax, eax
	jne	L571
	.loc 1 1085 0 is_stmt 1
	mov	eax, DWORD PTR [ebp+0]
	mov	DWORD PTR [esp+76], eax
	mov	edi, OFFSET FLAT:LC95
	mov	esi, eax
	mov	ecx, 7
	repe cmpsb
	je	L706
	.loc 1 1087 0
	mov	edi, OFFSET FLAT:LC97
	mov	ecx, 9
	mov	esi, DWORD PTR [esp+76]
	repe cmpsb
	je	L707
	.loc 1 1089 0
	mov	edi, OFFSET FLAT:LC99
	mov	esi, DWORD PTR [esp+76]
	mov	ecx, 7
	repe cmpsb
	je	L708
	.loc 1 1091 0
	mov	edi, OFFSET FLAT:LC101
	mov	esi, DWORD PTR [esp+76]
	mov	ecx, 6
	repe cmpsb
	je	L709
	.loc 1 1093 0
	mov	edi, OFFSET FLAT:LC103
	mov	ecx, 5
	mov	esi, DWORD PTR [esp+76]
	repe cmpsb
	je	L576
	.loc 1 1094 0
	mov	edi, OFFSET FLAT:LC104
	mov	ecx, 8
	mov	esi, DWORD PTR [esp+76]
	repe cmpsb
	jne	L569
L576:
	.loc 1 1095 0
	mov	DWORD PTR [esp+4], OFFSET FLAT:LC105
	jmp	L678
	.p2align 2,,3
L571:
	.loc 1 1084 0
	mov	DWORD PTR [esp+4], OFFSET FLAT:LC93
	jmp	L678
LVL832:
	.p2align 2,,3
L684:
LBE151:
LBE158:
LBE174:
LBE179:
	.loc 1 994 0
	mov	DWORD PTR [esp+8], OFFSET FLAT:LC75
	mov	DWORD PTR [esp+4], OFFSET FLAT:___PRETTY_FUNCTION__.49861
	mov	DWORD PTR [esp], 0
	call	_g_return_if_fail_warning
LVL833:
	jmp	L545
LVL834:
	.p2align 2,,3
L699:
LBB180:
LBB175:
LBB159:
LBB152:
	.loc 1 1072 0
	mov	DWORD PTR [esp+4], OFFSET FLAT:LC89
	mov	DWORD PTR [esp], OFFSET FLAT:LC1
	call	_libintl_dgettext
LVL835:
	mov	DWORD PTR [esp+4], eax
	mov	edx, DWORD PTR [esp+52]
	mov	DWORD PTR [esp], edx
	call	_purple_notify_user_info_add_section_header
LVL836:
	.loc 1 1073 0
	mov	DWORD PTR [esp+64], 1
	jmp	L567
LVL837:
	.p2align 2,,3
L697:
LBE152:
LBE159:
	.loc 1 1053 0
	mov	DWORD PTR [esp+4], OFFSET FLAT:LC87
	jmp	L681
LVL838:
L694:
	.loc 1 1022 0
	mov	eax, DWORD PTR [esp+40]
LVL839:
	mov	DWORD PTR [esp], eax
	call	_g_strdup
LVL840:
	mov	DWORD PTR [esp+48], eax
LVL841:
	jmp	L556
LVL842:
L687:
LBE175:
LBE180:
	.loc 1 1009 0 discriminator 1
	mov	DWORD PTR [esp+8], OFFSET FLAT:LC77
	mov	DWORD PTR [esp+4], OFFSET FLAT:LC4
	mov	DWORD PTR [esp], edi
	call	_xmlnode_get_child_with_namespace
LVL843:
	test	eax, eax
	jne	L550
	jmp	L551
LVL844:
L686:
	.loc 1 1006 0 discriminator 1
	mov	DWORD PTR [esp], eax
	call	_purple_account_get_username
LVL845:
	mov	ebx, eax
	jmp	L549
LVL846:
L702:
LBB181:
LBB176:
	.loc 1 1147 0
	mov	ebp, DWORD PTR [ebx+24]
LVL847:
	test	ebp, ebp
	je	L557
LBB160:
	.loc 1 1155 0
	mov	DWORD PTR [esp+64], ebx
	jmp	L646
LVL848:
	.p2align 2,,3
L583:
LBE160:
	.loc 1 1147 0
	mov	ebp, DWORD PTR [ebp+32]
LVL849:
	test	ebp, ebp
	je	L680
L646:
LBB161:
	.loc 1 1151 0
	mov	eax, DWORD PTR [ebp+8]
	test	eax, eax
	jne	L583
	.loc 1 1154 0
	mov	DWORD PTR [esp], ebp
	call	_xmlnode_get_data
LVL850:
	mov	ebx, eax
LVL851:
	.loc 1 1155 0
	test	eax, eax
	je	L584
	.loc 1 1155 0 is_stmt 0 discriminator 1
	mov	eax, DWORD PTR [ebp+0]
LVL852:
	mov	edi, OFFSET FLAT:LC113
	mov	esi, eax
	mov	ecx, 8
	repe cmpsb
	je	L710
	.loc 1 1157 0 is_stmt 1 discriminator 1
	mov	edi, OFFSET FLAT:LC115
	mov	esi, eax
	mov	ecx, 8
	repe cmpsb
	je	L711
L584:
	.loc 1 1160 0
	mov	DWORD PTR [esp], ebx
	call	_g_free
LVL853:
	jmp	L583
LVL854:
L700:
LBE161:
LBB162:
	.loc 1 1105 0
	mov	DWORD PTR [esp+4], OFFSET FLAT:LC107
	mov	DWORD PTR [esp], ebx
	call	_xmlnode_get_child
LVL855:
	test	eax, eax
	je	L579
	.loc 1 1107 0
	mov	DWORD PTR [esp], eax
	call	_xmlnode_get_data
LVL856:
	mov	esi, eax
LVL857:
	.loc 1 1108 0
	test	eax, eax
	je	L557
L683:
	.loc 1 1115 0
	mov	DWORD PTR [esp+4], OFFSET FLAT:LC108
	mov	DWORD PTR [esp], OFFSET FLAT:LC1
	call	_libintl_dgettext
LVL858:
	mov	DWORD PTR [esp+8], esi
	mov	DWORD PTR [esp+4], eax
	mov	edx, DWORD PTR [esp+52]
	mov	DWORD PTR [esp], edx
	call	_purple_notify_user_info_add_pair_plaintext
LVL859:
	.loc 1 1116 0
	mov	DWORD PTR [esp], esi
	call	_g_free
LVL860:
	jmp	L557
LVL861:
L701:
LBE162:
LBB163:
	.loc 1 1120 0
	mov	DWORD PTR [esp+4], OFFSET FLAT:LC110
	mov	DWORD PTR [esp], ebx
	call	_xmlnode_get_child
LVL862:
	test	eax, eax
	je	L581
	.loc 1 1122 0
	mov	DWORD PTR [esp], eax
	call	_xmlnode_get_data
LVL863:
	mov	ebp, eax
LVL864:
	.loc 1 1123 0
	test	eax, eax
	je	L557
L682:
LBB164:
	.loc 1 1138 0
	mov	DWORD PTR [esp+4], -1
	mov	DWORD PTR [esp], ebp
	call	_g_markup_escape_text
LVL865:
	mov	edi, eax
LVL866:
	.loc 1 1139 0
	mov	DWORD PTR [esp+8], eax
	mov	DWORD PTR [esp+4], eax
	mov	DWORD PTR [esp], OFFSET FLAT:LC111
	call	_g_strdup_printf
LVL867:
	mov	esi, eax
LVL868:
	.loc 1 1140 0
	mov	DWORD PTR [esp+4], OFFSET FLAT:LC33
	mov	DWORD PTR [esp], OFFSET FLAT:LC1
	call	_libintl_dgettext
LVL869:
	mov	DWORD PTR [esp+8], esi
	mov	DWORD PTR [esp+4], eax
	mov	edx, DWORD PTR [esp+52]
	mov	DWORD PTR [esp], edx
	call	_purple_notify_user_info_add_pair
LVL870:
	.loc 1 1142 0
	mov	DWORD PTR [esp], esi
	call	_g_free
LVL871:
	.loc 1 1143 0
	mov	DWORD PTR [esp], edi
	call	_g_free
LVL872:
	.loc 1 1144 0
	mov	DWORD PTR [esp], ebp
	call	_g_free
LVL873:
	jmp	L557
LVL874:
L710:
LBE164:
LBE163:
LBB165:
	.loc 1 1156 0
	mov	DWORD PTR [esp+4], OFFSET FLAT:LC114
L679:
	.loc 1 1158 0
	mov	DWORD PTR [esp], OFFSET FLAT:LC1
	call	_libintl_dgettext
LVL875:
	mov	DWORD PTR [esp+8], ebx
	mov	DWORD PTR [esp+4], eax
	mov	edx, DWORD PTR [esp+52]
	mov	DWORD PTR [esp], edx
	call	_purple_notify_user_info_add_pair_plaintext
LVL876:
	jmp	L584
L711:
	mov	DWORD PTR [esp+4], OFFSET FLAT:LC116
	jmp	L679
LVL877:
L706:
LBE165:
LBB166:
LBB153:
	.loc 1 1086 0
	mov	DWORD PTR [esp+4], OFFSET FLAT:LC96
	jmp	L678
L707:
	.loc 1 1088 0
	mov	DWORD PTR [esp+4], OFFSET FLAT:LC98
	jmp	L678
LVL878:
L703:
LBE153:
LBE166:
	.loc 1 1163 0
	mov	DWORD PTR [esp+4], OFFSET FLAT:LC118
	jmp	L681
L704:
	.loc 1 1165 0
	mov	DWORD PTR [esp+4], OFFSET FLAT:LC120
	jmp	L681
LVL879:
L708:
LBB167:
LBB154:
	.loc 1 1090 0
	mov	DWORD PTR [esp+4], OFFSET FLAT:LC100
	jmp	L678
LVL880:
L579:
LBE154:
LBE167:
LBB168:
	.loc 1 1112 0
	mov	DWORD PTR [esp], ebx
	call	_xmlnode_get_data
LVL881:
	mov	esi, eax
LVL882:
	test	eax, eax
	jne	L683
	jmp	L557
LVL883:
L705:
LBE168:
	.loc 1 1167 0
	mov	DWORD PTR [esp+4], OFFSET FLAT:LC122
	jmp	L681
LVL884:
L581:
LBB169:
	.loc 1 1133 0
	mov	DWORD PTR [esp], ebx
	call	_xmlnode_get_data
LVL885:
	mov	ebp, eax
LVL886:
	test	eax, eax
	jne	L682
	jmp	L557
LVL887:
L709:
LBE169:
LBB170:
LBB155:
	.loc 1 1092 0
	mov	DWORD PTR [esp+4], OFFSET FLAT:LC102
	jmp	L678
LVL888:
L592:
LBE155:
LBE170:
LBB171:
LBB145:
LBB143:
	.loc 1 1187 0 discriminator 2
	mov	DWORD PTR [esp+4], OFFSET FLAT:LC129
	mov	DWORD PTR [esp], OFFSET FLAT:LC1
	call	_libintl_dgettext
LVL889:
	jmp	L593
LVL890:
L554:
LBE143:
LBE145:
LBE171:
	.loc 1 1025 0
	mov	DWORD PTR [esp+4], OFFSET FLAT:LC132
	mov	DWORD PTR [esp], ebp
	call	_strcmp
LVL891:
	test	eax, eax
	je	L598
	jmp	L564
LVL892:
L695:
LBE176:
LBE181:
	.loc 1 1216 0
	call	___stack_chk_fail
LVL893:
	.cfi_endproc
LFE112:
	.section .rdata,"dr"
LC133:
	.ascii "time\0"
LC134:
	.ascii "tzo\0"
LC135:
	.ascii "%02d:%02d\0"
	.align 4
LC136:
	.ascii "Ignoring malformed timezone %s\0"
	.text
	.p2align 2,,3
	.def	_jabber_time_parse;	.scl	3;	.type	32;	.endef
_jabber_time_parse:
LFB119:
	.loc 1 1391 0
	.cfi_startproc
LVL894:
	push	ebp
LCFI321:
	.cfi_def_cfa_offset 8
	.cfi_offset 5, -8
	push	edi
LCFI322:
	.cfi_def_cfa_offset 12
	.cfi_offset 7, -12
	push	esi
LCFI323:
	.cfi_def_cfa_offset 16
	.cfi_offset 6, -16
	push	ebx
LCFI324:
	.cfi_def_cfa_offset 20
	.cfi_offset 3, -20
	sub	esp, 60
LCFI325:
	.cfi_def_cfa_offset 80
	mov	edi, DWORD PTR [esp+84]
	mov	esi, DWORD PTR [esp+88]
	mov	edx, DWORD PTR [esp+92]
	mov	eax, DWORD PTR [esp+96]
	mov	DWORD PTR [esp+28], eax
	mov	ebx, DWORD PTR [esp+100]
	.loc 1 1391 0
	mov	eax, DWORD PTR ___stack_chk_guard
	mov	DWORD PTR [esp+44], eax
	xor	eax, eax
LVL895:
LBB182:
	.loc 1 1396 0
	test	ebx, ebx
	je	L750
LVL896:
LBE182:
	.loc 1 2334 0
	lea	eax, [ebx+12]
	.loc 1 1398 0
	call	_jabber_buddy_info_remove_id.isra.7
LVL897:
	.loc 1 1400 0
	test	edi, edi
	je	L712
	.loc 1 1403 0
	mov	DWORD PTR [esp], edi
	call	_jabber_get_resource
LVL898:
	mov	ebp, eax
LVL899:
	.loc 1 1404 0
	test	eax, eax
	je	L715
	.loc 1 1404 0 is_stmt 0 discriminator 1
	mov	DWORD PTR [esp+4], eax
	mov	eax, DWORD PTR [ebx+4]
LVL900:
	mov	DWORD PTR [esp], eax
	call	_jabber_buddy_find_resource
LVL901:
	mov	edi, eax
LVL902:
	.loc 1 1405 0 is_stmt 1 discriminator 1
	mov	DWORD PTR [esp], ebp
	call	_g_free
LVL903:
	.loc 1 1406 0 discriminator 1
	test	edi, edi
	je	L717
	.loc 1 1407 0
	cmp	esi, 2
	je	L751
LVL904:
L717:
	.loc 1 1435 0
	mov	eax, ebx
	call	_jabber_buddy_info_show_if_ready
LVL905:
L712:
	.loc 1 1436 0
	mov	eax, DWORD PTR [esp+44]
	xor	eax, DWORD PTR ___stack_chk_guard
	jne	L752
	add	esp, 60
LCFI326:
	.cfi_remember_state
	.cfi_def_cfa_offset 20
	pop	ebx
LCFI327:
	.cfi_restore 3
	.cfi_def_cfa_offset 16
LVL906:
	pop	esi
LCFI328:
	.cfi_restore 6
	.cfi_def_cfa_offset 12
	pop	edi
LCFI329:
	.cfi_restore 7
	.cfi_def_cfa_offset 8
	pop	ebp
LCFI330:
	.cfi_restore 5
	.cfi_def_cfa_offset 4
	ret
LVL907:
	.p2align 2,,3
L715:
LCFI331:
	.cfi_restore_state
	.loc 1 1405 0
	mov	DWORD PTR [esp], 0
	call	_g_free
LVL908:
	jmp	L717
LVL909:
	.p2align 2,,3
L750:
	.loc 1 1396 0
	mov	DWORD PTR [esp+8], OFFSET FLAT:LC75
	mov	DWORD PTR [esp+4], OFFSET FLAT:___PRETTY_FUNCTION__.49977
	mov	DWORD PTR [esp], 0
	call	_g_return_if_fail_warning
LVL910:
	jmp	L712
LVL911:
	.p2align 2,,3
L751:
LBB183:
	.loc 1 1408 0
	mov	DWORD PTR [esp+4], OFFSET FLAT:LC133
	mov	eax, DWORD PTR [esp+28]
	mov	DWORD PTR [esp], eax
	call	_xmlnode_get_child
LVL912:
	.loc 1 1409 0
	test	eax, eax
	je	L717
	.loc 1 1409 0 is_stmt 0 discriminator 1
	mov	DWORD PTR [esp+4], OFFSET FLAT:LC134
	mov	DWORD PTR [esp], eax
	call	_xmlnode_get_child
LVL913:
	.loc 1 1410 0 is_stmt 1 discriminator 1
	test	eax, eax
	je	L717
	mov	DWORD PTR [esp], eax
	call	_xmlnode_get_data
LVL914:
	mov	esi, eax
LVL915:
	.loc 1 1411 0 discriminator 1
	test	eax, eax
	je	L717
LVL916:
LBB184:
	.loc 1 1414 0
	mov	dl, BYTE PTR [eax]
	cmp	dl, 90
	je	L753
LVL917:
LBB185:
	.loc 1 1419 0
	cmp	dl, 43
	je	L723
	.loc 1 1419 0 is_stmt 0 discriminator 2
	cmp	dl, 45
	je	L723
LVL918:
L721:
	.loc 1 1425 0 is_stmt 1
	mov	DWORD PTR [esp+8], esi
	mov	DWORD PTR [esp+4], OFFSET FLAT:LC136
	mov	DWORD PTR [esp], OFFSET FLAT:LC24
	call	_purple_debug_info
LVL919:
L722:
LBE185:
	.loc 1 1430 0
	mov	DWORD PTR [esp], esi
	call	_g_free
LVL920:
	jmp	L717
LVL921:
	.p2align 2,,3
L723:
LBB186:
	.loc 1 1419 0 discriminator 1
	mov	eax, esi
LVL922:
	inc	eax
LVL923:
	je	L721
	.loc 1 1420 0 discriminator 1
	lea	ecx, [esp+40]
	mov	DWORD PTR [esp+12], ecx
	lea	ecx, [esp+36]
	mov	DWORD PTR [esp+8], ecx
	mov	DWORD PTR [esp+4], OFFSET FLAT:LC135
	mov	DWORD PTR [esp], eax
	mov	BYTE PTR [esp+24], dl
	call	_sscanf
LVL924:
	.loc 1 1419 0 discriminator 1
	cmp	eax, 2
	mov	dl, BYTE PTR [esp+24]
	jne	L721
LVL925:
	.loc 1 1421 0
	mov	eax, DWORD PTR [esp+40]
	lea	eax, [eax+eax*2]
	lea	ebp, [eax+eax*4]
LVL926:
	mov	eax, DWORD PTR [esp+36]
	lea	eax, [eax+eax*2]
	lea	ecx, [eax+eax*4]
	mov	eax, ecx
	sal	eax, 4
	sub	eax, ecx
	sal	eax, 4
	lea	eax, [eax+ebp*4]
	.loc 1 1422 0
	cmp	dl, 43
	je	L749
	.loc 1 1423 0
	neg	eax
L749:
	mov	DWORD PTR [edi+48], eax
	jmp	L722
LVL927:
	.p2align 2,,3
L753:
LBE186:
	.loc 1 1414 0 discriminator 1
	cmp	BYTE PTR [eax+1], 0
	jne	L721
	.loc 1 1415 0
	mov	DWORD PTR [edi+48], 0
	jmp	L722
LVL928:
L752:
LBE184:
LBE183:
	.loc 1 1436 0
	call	___stack_chk_fail
LVL929:
	.cfi_endproc
LFE119:
	.p2align 2,,3
	.def	_jabber_last_parse;	.scl	3;	.type	32;	.endef
_jabber_last_parse:
LFB117:
	.loc 1 1284 0
	.cfi_startproc
LVL930:
	push	ebp
LCFI332:
	.cfi_def_cfa_offset 8
	.cfi_offset 5, -8
	push	edi
LCFI333:
	.cfi_def_cfa_offset 12
	.cfi_offset 7, -12
	push	esi
LCFI334:
	.cfi_def_cfa_offset 16
	.cfi_offset 6, -16
	push	ebx
LCFI335:
	.cfi_def_cfa_offset 20
	.cfi_offset 3, -20
	sub	esp, 60
LCFI336:
	.cfi_def_cfa_offset 80
	mov	ecx, DWORD PTR [esp+80]
	mov	DWORD PTR [esp+24], ecx
	mov	esi, DWORD PTR [esp+84]
	mov	edi, DWORD PTR [esp+88]
	mov	edx, DWORD PTR [esp+92]
	mov	ebp, DWORD PTR [esp+96]
	mov	ebx, DWORD PTR [esp+100]
	.loc 1 1284 0
	mov	eax, DWORD PTR ___stack_chk_guard
	mov	DWORD PTR [esp+44], eax
	xor	eax, eax
LVL931:
LBB187:
	.loc 1 1290 0
	test	ebx, ebx
	je	L800
LVL932:
LBE187:
	.loc 1 2334 0
	lea	eax, [ebx+12]
	.loc 1 1292 0
	call	_jabber_buddy_info_remove_id.isra.7
LVL933:
	.loc 1 1294 0
	test	esi, esi
	je	L754
	.loc 1 1297 0
	mov	DWORD PTR [esp], esi
	call	_jabber_get_resource
LVL934:
	mov	edx, eax
LVL935:
	.loc 1 1299 0
	test	eax, eax
	je	L757
	.loc 1 1300 0
	cmp	edi, 2
	je	L801
LVL936:
L759:
	.loc 1 1353 0
	mov	DWORD PTR [esp], edx
	call	_g_free
LVL937:
L757:
	.loc 1 1356 0
	mov	eax, ebx
	call	_jabber_buddy_info_show_if_ready
LVL938:
L754:
	.loc 1 1357 0
	mov	eax, DWORD PTR [esp+44]
	xor	eax, DWORD PTR ___stack_chk_guard
	jne	L802
	add	esp, 60
LCFI337:
	.cfi_remember_state
	.cfi_def_cfa_offset 20
	pop	ebx
LCFI338:
	.cfi_restore 3
	.cfi_def_cfa_offset 16
LVL939:
	pop	esi
LCFI339:
	.cfi_restore 6
	.cfi_def_cfa_offset 12
	pop	edi
LCFI340:
	.cfi_restore 7
	.cfi_def_cfa_offset 8
	pop	ebp
LCFI341:
	.cfi_restore 5
	.cfi_def_cfa_offset 4
	ret
LVL940:
	.p2align 2,,3
L800:
LCFI342:
	.cfi_restore_state
	.loc 1 1290 0
	mov	DWORD PTR [esp+8], OFFSET FLAT:LC75
	mov	DWORD PTR [esp+4], OFFSET FLAT:___PRETTY_FUNCTION__.49940
	mov	DWORD PTR [esp], 0
	call	_g_return_if_fail_warning
LVL941:
	jmp	L754
LVL942:
	.p2align 2,,3
L801:
	.loc 1 1301 0
	mov	DWORD PTR [esp+4], OFFSET FLAT:LC4
	mov	DWORD PTR [esp], ebp
	mov	DWORD PTR [esp+16], eax
	call	_xmlnode_get_child
LVL943:
	test	eax, eax
	mov	edx, DWORD PTR [esp+16]
	je	L759
	.loc 1 1302 0
	mov	DWORD PTR [esp+4], OFFSET FLAT:LC74
	mov	DWORD PTR [esp], eax
	call	_xmlnode_get_attrib
LVL944:
	mov	edi, eax
LVL945:
	.loc 1 1303 0
	test	eax, eax
	mov	edx, DWORD PTR [esp+16]
	je	L759
LBB188:
	.loc 1 1304 0
	mov	DWORD PTR [esp+40], 0
LVL946:
	.loc 1 1305 0
	mov	DWORD PTR [esp+8], 10
	lea	eax, [esp+40]
LVL947:
	mov	DWORD PTR [esp+4], eax
	mov	DWORD PTR [esp], edi
	call	_strtol
LVL948:
	mov	DWORD PTR [esp+28], eax
LVL949:
	.loc 1 1311 0
	cmp	DWORD PTR [esp+40], edi
	mov	edx, DWORD PTR [esp+16]
	je	L762
LBB189:
	.loc 1 1312 0
	mov	DWORD PTR [esp+4], edx
	mov	eax, DWORD PTR [ebx+16]
LVL950:
	mov	DWORD PTR [esp], eax
	call	_g_hash_table_lookup
LVL951:
	.loc 1 1313 0
	test	eax, eax
	mov	edx, DWORD PTR [esp+16]
	je	L762
	.loc 1 1314 0
	mov	ecx, DWORD PTR [esp+28]
	mov	DWORD PTR [eax], ecx
LVL952:
L762:
LBE189:
	.loc 1 1320 0
	mov	DWORD PTR [esp+8], 0
	mov	DWORD PTR [esp+4], esi
	mov	ecx, DWORD PTR [esp+24]
	mov	DWORD PTR [esp], ecx
	mov	DWORD PTR [esp+16], edx
	call	_jabber_buddy_find
LVL953:
	mov	ebp, eax
LVL954:
	.loc 1 1321 0
	test	eax, eax
	mov	edx, DWORD PTR [esp+16]
	je	L759
	.loc 1 1322 0
	mov	DWORD PTR [esp], esi
	call	_jabber_get_resource
LVL955:
	mov	edi, eax
LVL956:
	.loc 1 1323 0
	mov	DWORD PTR [esp], esi
	call	_jabber_get_bare_jid
LVL957:
	mov	esi, eax
LVL958:
	.loc 1 1329 0
	test	edi, edi
	mov	edx, DWORD PTR [esp+16]
	je	L766
	.loc 1 1329 0 is_stmt 0 discriminator 1
	test	eax, eax
	je	L766
	.loc 1 1330 0 is_stmt 1
	mov	DWORD PTR [esp+4], edi
	mov	DWORD PTR [esp], ebp
	call	_jabber_buddy_find_resource
LVL959:
	mov	ecx, eax
LVL960:
	.loc 1 1331 0
	test	eax, eax
	mov	edx, DWORD PTR [esp+16]
	je	L766
	.loc 1 1332 0
	mov	eax, DWORD PTR [eax+20]
LVL961:
	test	eax, eax
	je	L766
	.loc 1 1333 0
	mov	eax, DWORD PTR [esp+28]
	test	eax, eax
	jne	L803
	.loc 1 1336 0
	mov	DWORD PTR [ecx+20], 0
LVL962:
L769:
	.loc 1 1340 0
	mov	DWORD PTR [esp+4], 0
	mov	DWORD PTR [esp], ebp
	mov	DWORD PTR [esp+16], edx
	mov	DWORD PTR [esp+20], ecx
	call	_jabber_buddy_find_resource
LVL963:
	.loc 1 1339 0
	mov	ecx, DWORD PTR [esp+20]
	cmp	eax, ecx
	mov	edx, DWORD PTR [esp+16]
	je	L804
L766:
	.loc 1 1347 0
	mov	DWORD PTR [esp], edi
	mov	DWORD PTR [esp+16], edx
	call	_g_free
LVL964:
	.loc 1 1348 0
	mov	DWORD PTR [esp], esi
	call	_g_free
LVL965:
	mov	edx, DWORD PTR [esp+16]
	jmp	L759
LVL966:
L803:
	.loc 1 1334 0
	mov	DWORD PTR [esp], 0
	mov	DWORD PTR [esp+20], ecx
	call	_time
LVL967:
	sub	eax, DWORD PTR [esp+28]
	mov	ecx, DWORD PTR [esp+20]
	mov	DWORD PTR [ecx+20], eax
	mov	edx, DWORD PTR [esp+16]
	jmp	L769
L804:
	.loc 1 1342 0
	mov	eax, DWORD PTR [ecx+20]
	.loc 1 1341 0
	mov	DWORD PTR [esp+12], eax
	mov	DWORD PTR [esp+8], eax
	mov	DWORD PTR [esp+4], esi
	mov	ecx, DWORD PTR [esp+24]
	mov	eax, DWORD PTR [ecx+100]
	mov	eax, DWORD PTR [eax+12]
	mov	DWORD PTR [esp], eax
	call	_purple_prpl_got_user_idle
LVL968:
	mov	edx, DWORD PTR [esp+16]
	jmp	L766
LVL969:
L802:
LBE188:
	.loc 1 1357 0
	call	___stack_chk_fail
LVL970:
	.cfi_endproc
LFE117:
	.section .rdata,"dr"
LC137:
	.ascii "name\0"
LC138:
	.ascii "version\0"
LC139:
	.ascii "os\0"
	.text
	.p2align 2,,3
	.def	_jabber_version_parse;	.scl	3;	.type	32;	.endef
_jabber_version_parse:
LFB116:
	.loc 1 1243 0
	.cfi_startproc
LVL971:
	push	ebp
LCFI343:
	.cfi_def_cfa_offset 8
	.cfi_offset 5, -8
	push	edi
LCFI344:
	.cfi_def_cfa_offset 12
	.cfi_offset 7, -12
	push	esi
LCFI345:
	.cfi_def_cfa_offset 16
	.cfi_offset 6, -16
	push	ebx
LCFI346:
	.cfi_def_cfa_offset 20
	.cfi_offset 3, -20
	sub	esp, 44
LCFI347:
	.cfi_def_cfa_offset 64
	mov	esi, DWORD PTR [esp+68]
	mov	edi, DWORD PTR [esp+72]
	mov	edx, DWORD PTR [esp+76]
	mov	ebp, DWORD PTR [esp+80]
	mov	ebx, DWORD PTR [esp+84]
	.loc 1 1243 0
	mov	eax, DWORD PTR ___stack_chk_guard
	mov	DWORD PTR [esp+28], eax
	xor	eax, eax
LVL972:
LBB190:
	.loc 1 1248 0
	test	ebx, ebx
	je	L842
LVL973:
LBE190:
	.loc 1 2334 0
	lea	eax, [ebx+12]
	.loc 1 1250 0
	call	_jabber_buddy_info_remove_id.isra.7
LVL974:
	.loc 1 1252 0
	test	esi, esi
	je	L843
	.loc 1 1255 0
	mov	DWORD PTR [esp], esi
	call	_jabber_get_resource
LVL975:
	mov	esi, eax
LVL976:
	.loc 1 1257 0
	test	eax, eax
	je	L808
	.loc 1 1258 0
	cmp	edi, 2
	je	L844
LVL977:
L810:
	.loc 1 1275 0
	mov	DWORD PTR [esp], esi
	call	_g_free
LVL978:
L808:
	.loc 1 1278 0
	mov	eax, DWORD PTR [esp+28]
	xor	eax, DWORD PTR ___stack_chk_guard
	jne	L838
	mov	eax, ebx
	.loc 1 1279 0
	add	esp, 44
LCFI348:
	.cfi_remember_state
	.cfi_def_cfa_offset 20
	pop	ebx
LCFI349:
	.cfi_restore 3
	.cfi_def_cfa_offset 16
LVL979:
	pop	esi
LCFI350:
	.cfi_restore 6
	.cfi_def_cfa_offset 12
LVL980:
	pop	edi
LCFI351:
	.cfi_restore 7
	.cfi_def_cfa_offset 8
	pop	ebp
LCFI352:
	.cfi_restore 5
	.cfi_def_cfa_offset 4
	.loc 1 1278 0
	jmp	_jabber_buddy_info_show_if_ready
LVL981:
	.p2align 2,,3
L842:
LCFI353:
	.cfi_restore_state
	.loc 1 1248 0
	mov	eax, DWORD PTR [esp+28]
	xor	eax, DWORD PTR ___stack_chk_guard
	jne	L838
	mov	DWORD PTR [esp+72], OFFSET FLAT:LC75
	mov	DWORD PTR [esp+68], OFFSET FLAT:___PRETTY_FUNCTION__.49923
	mov	DWORD PTR [esp+64], 0
	.loc 1 1279 0
	add	esp, 44
LCFI354:
	.cfi_remember_state
	.cfi_def_cfa_offset 20
	pop	ebx
LCFI355:
	.cfi_restore 3
	.cfi_def_cfa_offset 16
LVL982:
	pop	esi
LCFI356:
	.cfi_restore 6
	.cfi_def_cfa_offset 12
	pop	edi
LCFI357:
	.cfi_restore 7
	.cfi_def_cfa_offset 8
	pop	ebp
LCFI358:
	.cfi_restore 5
	.cfi_def_cfa_offset 4
	.loc 1 1248 0
	jmp	_g_return_if_fail_warning
LVL983:
	.p2align 2,,3
L844:
LCFI359:
	.cfi_restore_state
	.loc 1 1259 0
	mov	DWORD PTR [esp+4], OFFSET FLAT:LC4
	mov	DWORD PTR [esp], ebp
	call	_xmlnode_get_child
LVL984:
	mov	edi, eax
LVL985:
	test	eax, eax
	je	L810
LBB191:
	.loc 1 1260 0
	mov	DWORD PTR [esp+4], esi
	mov	eax, DWORD PTR [ebx+4]
LVL986:
	mov	DWORD PTR [esp], eax
	call	_jabber_buddy_find_resource
LVL987:
	mov	ebp, eax
LVL988:
	.loc 1 1261 0
	test	eax, eax
	je	L810
LBB192:
	.loc 1 1263 0
	mov	DWORD PTR [esp+4], OFFSET FLAT:LC137
	mov	DWORD PTR [esp], edi
	call	_xmlnode_get_child
LVL989:
	test	eax, eax
	je	L812
	.loc 1 1264 0
	mov	DWORD PTR [esp], eax
	call	_xmlnode_get_data
LVL990:
	mov	DWORD PTR [ebp+40], eax
L812:
	.loc 1 1266 0
	mov	DWORD PTR [esp+4], OFFSET FLAT:LC138
	mov	DWORD PTR [esp], edi
	call	_xmlnode_get_child
LVL991:
	test	eax, eax
	je	L813
	.loc 1 1267 0
	mov	DWORD PTR [esp], eax
	call	_xmlnode_get_data
LVL992:
	mov	DWORD PTR [ebp+36], eax
L813:
	.loc 1 1269 0
	mov	DWORD PTR [esp+4], OFFSET FLAT:LC139
	mov	DWORD PTR [esp], edi
	call	_xmlnode_get_child
LVL993:
	test	eax, eax
	je	L810
	.loc 1 1270 0
	mov	DWORD PTR [esp], eax
	call	_xmlnode_get_data
LVL994:
	mov	DWORD PTR [ebp+44], eax
	jmp	L810
LVL995:
	.p2align 2,,3
L843:
LBE192:
LBE191:
	.loc 1 1279 0
	mov	eax, DWORD PTR [esp+28]
	xor	eax, DWORD PTR ___stack_chk_guard
	jne	L838
	add	esp, 44
LCFI360:
	.cfi_remember_state
	.cfi_def_cfa_offset 20
	pop	ebx
LCFI361:
	.cfi_restore 3
	.cfi_def_cfa_offset 16
LVL996:
	pop	esi
LCFI362:
	.cfi_restore 6
	.cfi_def_cfa_offset 12
	pop	edi
LCFI363:
	.cfi_restore 7
	.cfi_def_cfa_offset 8
	pop	ebp
LCFI364:
	.cfi_restore 5
	.cfi_def_cfa_offset 4
	ret
LVL997:
L838:
LCFI365:
	.cfi_restore_state
	call	___stack_chk_fail
LVL998:
	.cfi_endproc
LFE116:
	.p2align 2,,3
	.globl	_jabber_buddy_track_resource
	.def	_jabber_buddy_track_resource;	.scl	2;	.type	32;	.endef
_jabber_buddy_track_resource:
LFB98:
	.loc 1 230 0
	.cfi_startproc
LVL999:
	push	ebp
LCFI366:
	.cfi_def_cfa_offset 8
	.cfi_offset 5, -8
	push	edi
LCFI367:
	.cfi_def_cfa_offset 12
	.cfi_offset 7, -12
	push	esi
LCFI368:
	.cfi_def_cfa_offset 16
	.cfi_offset 6, -16
	push	ebx
LCFI369:
	.cfi_def_cfa_offset 20
	.cfi_offset 3, -20
	sub	esp, 60
LCFI370:
	.cfi_def_cfa_offset 80
	mov	ebx, DWORD PTR [esp+80]
	mov	esi, DWORD PTR [esp+84]
	mov	ebp, DWORD PTR [esp+88]
	mov	edx, DWORD PTR [esp+92]
	mov	DWORD PTR [esp+24], edx
	mov	edx, DWORD PTR [esp+96]
	mov	DWORD PTR [esp+28], edx
	.loc 1 230 0
	mov	eax, DWORD PTR ___stack_chk_guard
	mov	DWORD PTR [esp+44], eax
	xor	eax, eax
	.loc 1 232 0
	mov	DWORD PTR [esp+4], esi
	mov	DWORD PTR [esp], ebx
	call	_jabber_buddy_find_resource
LVL1000:
	mov	edi, eax
LVL1001:
	.loc 1 233 0
	test	eax, eax
	je	L846
	.loc 1 234 0
	mov	DWORD PTR [esp+4], eax
	mov	eax, DWORD PTR [ebx]
LVL1002:
	mov	DWORD PTR [esp], eax
	call	_g_list_remove
LVL1003:
	mov	DWORD PTR [ebx], eax
L847:
	.loc 1 242 0
	mov	DWORD PTR [edi+8], ebp
	.loc 1 243 0
	mov	edx, DWORD PTR [esp+24]
	mov	DWORD PTR [edi+12], edx
	.loc 1 244 0
	mov	eax, DWORD PTR [edi+16]
	mov	DWORD PTR [esp], eax
	call	_g_free
LVL1004:
	.loc 1 245 0
	mov	edx, DWORD PTR [esp+28]
	mov	DWORD PTR [esp], edx
	call	_g_strdup
LVL1005:
	mov	DWORD PTR [edi+16], eax
	.loc 1 247 0
	mov	DWORD PTR [esp+8], OFFSET FLAT:_resource_compare_cb
	mov	DWORD PTR [esp+4], edi
	mov	eax, DWORD PTR [ebx]
	mov	DWORD PTR [esp], eax
	call	_g_list_insert_sorted
LVL1006:
	mov	DWORD PTR [ebx], eax
	.loc 1 250 0
	mov	eax, edi
	mov	edx, DWORD PTR [esp+44]
	xor	edx, DWORD PTR ___stack_chk_guard
	jne	L850
LVL1007:
	add	esp, 60
LCFI371:
	.cfi_remember_state
	.cfi_def_cfa_offset 20
	pop	ebx
LCFI372:
	.cfi_restore 3
	.cfi_def_cfa_offset 16
	pop	esi
LCFI373:
	.cfi_restore 6
	.cfi_def_cfa_offset 12
	pop	edi
LCFI374:
	.cfi_restore 7
	.cfi_def_cfa_offset 8
	pop	ebp
LCFI375:
	.cfi_restore 5
	.cfi_def_cfa_offset 4
	ret
	.p2align 2,,3
L846:
LCFI376:
	.cfi_restore_state
	.loc 1 236 0
	mov	DWORD PTR [esp], 68
	call	_g_malloc0
LVL1008:
	mov	edi, eax
LVL1009:
	.loc 1 237 0
	mov	DWORD PTR [eax], ebx
	.loc 1 238 0
	mov	DWORD PTR [esp], esi
	call	_g_strdup
LVL1010:
	mov	DWORD PTR [edi+4], eax
	.loc 1 239 0
	mov	DWORD PTR [edi+24], 0
	.loc 1 240 0
	mov	DWORD PTR [edi+48], -500000
	jmp	L847
LVL1011:
L850:
	.loc 1 250 0
	call	___stack_chk_fail
LVL1012:
	.cfi_endproc
LFE98:
	.p2align 2,,3
	.globl	_jabber_buddy_remove_resource
	.def	_jabber_buddy_remove_resource;	.scl	2;	.type	32;	.endef
_jabber_buddy_remove_resource:
LFB99:
	.loc 1 253 0
	.cfi_startproc
LVL1013:
	sub	esp, 44
LCFI377:
	.cfi_def_cfa_offset 48
	.loc 1 253 0
	mov	eax, DWORD PTR ___stack_chk_guard
	mov	DWORD PTR [esp+28], eax
	xor	eax, eax
	.loc 1 254 0
	mov	eax, DWORD PTR [esp+52]
	mov	DWORD PTR [esp+4], eax
	mov	eax, DWORD PTR [esp+48]
	mov	DWORD PTR [esp], eax
	call	_jabber_buddy_find_resource
LVL1014:
	.loc 1 256 0
	test	eax, eax
	je	L851
	.loc 1 259 0
	mov	edx, DWORD PTR [esp+28]
	xor	edx, DWORD PTR ___stack_chk_guard
	jne	L856
	.loc 1 260 0
	add	esp, 44
LCFI378:
	.cfi_remember_state
	.cfi_def_cfa_offset 4
	.loc 1 259 0
	jmp	_jabber_buddy_resource_free
LVL1015:
	.p2align 2,,3
L851:
LCFI379:
	.cfi_restore_state
	.loc 1 260 0
	mov	eax, DWORD PTR [esp+28]
	xor	eax, DWORD PTR ___stack_chk_guard
LVL1016:
	jne	L856
	add	esp, 44
LCFI380:
	.cfi_remember_state
	.cfi_def_cfa_offset 4
	ret
L856:
LCFI381:
	.cfi_restore_state
	call	___stack_chk_fail
LVL1017:
	.cfi_endproc
LFE99:
	.section .rdata,"dr"
LC140:
	.ascii "TYPE\0"
LC141:
	.ascii "image/png\0"
	.text
	.p2align 2,,3
	.globl	_jabber_set_info
	.def	_jabber_set_info;	.scl	2;	.type	32;	.endef
_jabber_set_info:
LFB101:
	.loc 1 461 0
	.cfi_startproc
LVL1018:
	push	ebp
LCFI382:
	.cfi_def_cfa_offset 8
	.cfi_offset 5, -8
	push	edi
LCFI383:
	.cfi_def_cfa_offset 12
	.cfi_offset 7, -12
	push	esi
LCFI384:
	.cfi_def_cfa_offset 16
	.cfi_offset 6, -16
	push	ebx
LCFI385:
	.cfi_def_cfa_offset 20
	.cfi_offset 3, -20
	sub	esp, 60
LCFI386:
	.cfi_def_cfa_offset 80
	mov	edi, DWORD PTR [esp+80]
	mov	esi, DWORD PTR [esp+84]
	.loc 1 461 0
	mov	eax, DWORD PTR ___stack_chk_guard
	mov	DWORD PTR [esp+44], eax
	xor	eax, eax
	.loc 1 464 0
	mov	DWORD PTR [esp], edi
	call	_purple_connection_get_protocol_data
LVL1019:
	mov	ebx, eax
LVL1020:
	.loc 1 470 0
	mov	eax, DWORD PTR [eax+208]
LVL1021:
	test	eax, eax
	je	L857
	.loc 1 473 0
	mov	eax, DWORD PTR [ebx+212]
	test	eax, eax
	jne	L896
L860:
	.loc 1 478 0
	mov	eax, DWORD PTR [ebx+116]
	mov	DWORD PTR [esp], eax
	call	_g_free
LVL1022:
	.loc 1 479 0
	mov	DWORD PTR [ebx+116], 0
	.loc 1 484 0
	test	esi, esi
	je	L863
	.loc 1 484 0 is_stmt 0 discriminator 1
	mov	DWORD PTR [esp+4], -1
	mov	DWORD PTR [esp], esi
	call	_xmlnode_from_str
LVL1023:
	mov	esi, eax
LVL1024:
	.loc 1 486 0 is_stmt 1 discriminator 1
	test	eax, eax
	je	L863
	mov	eax, DWORD PTR [eax]
LVL1025:
	test	eax, eax
	je	L864
	.loc 1 487 0 discriminator 1
	mov	DWORD PTR [esp+8], 5
	mov	DWORD PTR [esp+4], OFFSET FLAT:LC47
	mov	DWORD PTR [esp], eax
	call	_g_ascii_strncasecmp
LVL1026:
	.loc 1 486 0 discriminator 1
	test	eax, eax
	jne	L864
	.loc 1 492 0
	mov	eax, DWORD PTR [edi+12]
	mov	DWORD PTR [esp], eax
	call	_purple_buddy_icons_find_account_icon
LVL1027:
	mov	edi, eax
LVL1028:
	test	eax, eax
	je	L897
LVL1029:
	.p2align 2,,3
L872:
LBB193:
	.loc 1 504 0
	mov	DWORD PTR [esp], edi
	call	_purple_imgstore_get_data
LVL1030:
	mov	DWORD PTR [esp+24], eax
LVL1031:
	.loc 1 505 0
	mov	DWORD PTR [esp], edi
	call	_purple_imgstore_get_size
LVL1032:
	mov	ebp, eax
LVL1033:
	.loc 1 510 0
	mov	DWORD PTR [esp+4], OFFSET FLAT:LC123
	mov	DWORD PTR [esp], esi
	call	_xmlnode_get_child
LVL1034:
	test	eax, eax
	je	L867
	.loc 1 511 0
	mov	DWORD PTR [esp], eax
	call	_xmlnode_free
LVL1035:
L867:
	.loc 1 513 0
	mov	DWORD PTR [esp+4], OFFSET FLAT:LC123
	mov	DWORD PTR [esp], esi
	call	_xmlnode_new_child
LVL1036:
	.loc 1 514 0
	mov	DWORD PTR [esp+4], OFFSET FLAT:LC140
	mov	DWORD PTR [esp], eax
	mov	DWORD PTR [esp+20], eax
	call	_xmlnode_new_child
LVL1037:
	.loc 1 515 0
	mov	DWORD PTR [esp+8], -1
	mov	DWORD PTR [esp+4], OFFSET FLAT:LC141
	mov	DWORD PTR [esp], eax
	call	_xmlnode_insert_data
LVL1038:
	.loc 1 516 0
	mov	DWORD PTR [esp+4], OFFSET FLAT:LC125
	mov	edx, DWORD PTR [esp+20]
	mov	DWORD PTR [esp], edx
	call	_xmlnode_new_child
LVL1039:
	mov	edx, eax
LVL1040:
	.loc 1 517 0
	mov	DWORD PTR [esp+4], ebp
	mov	eax, DWORD PTR [esp+24]
LVL1041:
	mov	DWORD PTR [esp], eax
	mov	DWORD PTR [esp+20], edx
	call	_purple_base64_encode
LVL1042:
	mov	DWORD PTR [esp+28], eax
LVL1043:
	.loc 1 520 0
	mov	DWORD PTR [esp+8], OFFSET FLAT:LC130
	mov	DWORD PTR [esp+4], ebp
	mov	eax, DWORD PTR [esp+24]
LVL1044:
	mov	DWORD PTR [esp], eax
	call	_jabber_calculate_data_hash
LVL1045:
	.loc 1 519 0
	mov	DWORD PTR [ebx+116], eax
	.loc 1 522 0
	mov	DWORD PTR [esp+8], -1
	mov	eax, DWORD PTR [esp+28]
	mov	DWORD PTR [esp+4], eax
	mov	edx, DWORD PTR [esp+20]
	mov	DWORD PTR [esp], edx
	call	_xmlnode_insert_data
LVL1046:
	.loc 1 523 0
	mov	eax, DWORD PTR [esp+28]
	mov	DWORD PTR [esp], eax
	call	_g_free
LVL1047:
	.loc 1 524 0
	mov	DWORD PTR [esp], edi
	call	_purple_imgstore_unref
LVL1048:
LBE193:
	.loc 1 533 0
	test	esi, esi
	je	L857
LVL1049:
L868:
	.loc 1 534 0
	mov	DWORD PTR [esp+4], 0
	mov	DWORD PTR [esp], ebx
	call	_jabber_iq_new
LVL1050:
	mov	edi, eax
LVL1051:
	.loc 1 535 0
	mov	DWORD PTR [esp+4], esi
	mov	eax, DWORD PTR [eax+8]
LVL1052:
	mov	DWORD PTR [esp], eax
	call	_xmlnode_insert_child
LVL1053:
	.loc 1 536 0
	mov	DWORD PTR [esp], edi
	call	_jabber_iq_send
LVL1054:
	.loc 1 539 0
	mov	eax, DWORD PTR [esp+44]
	xor	eax, DWORD PTR ___stack_chk_guard
	jne	L895
	mov	DWORD PTR [esp+84], 0
	mov	DWORD PTR [esp+80], ebx
	.loc 1 541 0
	add	esp, 60
LCFI387:
	.cfi_remember_state
	.cfi_def_cfa_offset 20
	pop	ebx
LCFI388:
	.cfi_restore 3
	.cfi_def_cfa_offset 16
LVL1055:
	pop	esi
LCFI389:
	.cfi_restore 6
	.cfi_def_cfa_offset 12
LVL1056:
	pop	edi
LCFI390:
	.cfi_restore 7
	.cfi_def_cfa_offset 8
LVL1057:
	pop	ebp
LCFI391:
	.cfi_restore 5
	.cfi_def_cfa_offset 4
	.loc 1 539 0
	jmp	_jabber_presence_send
LVL1058:
	.p2align 2,,3
L864:
LCFI392:
	.cfi_restore_state
	.loc 1 488 0
	mov	DWORD PTR [esp], esi
	call	_xmlnode_free
LVL1059:
L863:
	.loc 1 492 0
	mov	eax, DWORD PTR [edi+12]
	mov	DWORD PTR [esp], eax
	call	_purple_buddy_icons_find_account_icon
LVL1060:
	mov	edi, eax
LVL1061:
	test	eax, eax
	jne	L898
LVL1062:
	.p2align 2,,3
L857:
	.loc 1 541 0
	mov	eax, DWORD PTR [esp+44]
	xor	eax, DWORD PTR ___stack_chk_guard
	jne	L895
	add	esp, 60
LCFI393:
	.cfi_remember_state
	.cfi_def_cfa_offset 20
	pop	ebx
LCFI394:
	.cfi_restore 3
	.cfi_def_cfa_offset 16
LVL1063:
	pop	esi
LCFI395:
	.cfi_restore 6
	.cfi_def_cfa_offset 12
	pop	edi
LCFI396:
	.cfi_restore 7
	.cfi_def_cfa_offset 8
	pop	ebp
LCFI397:
	.cfi_restore 5
	.cfi_def_cfa_offset 4
	ret
LVL1064:
	.p2align 2,,3
L896:
LCFI398:
	.cfi_restore_state
	.loc 1 474 0
	mov	DWORD PTR [esp], eax
	call	_purple_timeout_remove
LVL1065:
	.loc 1 475 0
	mov	DWORD PTR [ebx+212], 0
	jmp	L860
LVL1066:
L897:
LBB194:
	.loc 1 528 0
	mov	DWORD PTR [esp+4], OFFSET FLAT:LC123
	mov	DWORD PTR [esp], esi
	call	_xmlnode_get_child
LVL1067:
	test	eax, eax
	je	L868
	.loc 1 529 0
	mov	DWORD PTR [esp], eax
	call	_xmlnode_free
LVL1068:
	jmp	L868
LVL1069:
L895:
LBE194:
	.loc 1 541 0
	call	___stack_chk_fail
LVL1070:
L898:
LBB195:
	.loc 1 499 0
	mov	DWORD PTR [esp], OFFSET FLAT:LC47
	call	_xmlnode_new
LVL1071:
	mov	esi, eax
LVL1072:
	.loc 1 500 0
	mov	eax, OFFSET FLAT:LC45
LVL1073:
	mov	ebp, OFFSET FLAT:_vcard_tag_attr_list
LVL1074:
	.p2align 2,,3
L866:
	.loc 1 501 0 discriminator 2
	mov	edx, DWORD PTR [ebp+4]
	mov	DWORD PTR [esp+8], edx
	mov	DWORD PTR [esp+4], eax
	mov	DWORD PTR [esp], esi
	call	_xmlnode_set_attrib
LVL1075:
	.loc 1 500 0 discriminator 2
	add	ebp, 8
LVL1076:
	mov	eax, DWORD PTR [ebp+0]
	test	eax, eax
	jne	L866
	jmp	L872
LBE195:
	.cfi_endproc
LFE101:
	.section .rdata,"dr"
	.align 4
LC142:
	.ascii "Server returned error while retrieving vCard\12\0"
LC143:
	.ascii "error\0"
LC144:
	.ascii "item-not-found\0"
	.text
	.p2align 2,,3
	.def	_jabber_vcard_save_mine;	.scl	3;	.type	32;	.endef
_jabber_vcard_save_mine:
LFB110:
	.loc 1 903 0
	.cfi_startproc
LVL1077:
	push	ebp
LCFI399:
	.cfi_def_cfa_offset 8
	.cfi_offset 5, -8
	push	edi
LCFI400:
	.cfi_def_cfa_offset 12
	.cfi_offset 7, -12
	push	esi
LCFI401:
	.cfi_def_cfa_offset 16
	.cfi_offset 6, -16
	push	ebx
LCFI402:
	.cfi_def_cfa_offset 20
	.cfi_offset 3, -20
	sub	esp, 44
LCFI403:
	.cfi_def_cfa_offset 64
	mov	ebx, DWORD PTR [esp+64]
	mov	ebp, DWORD PTR [esp+80]
	.loc 1 903 0
	mov	eax, DWORD PTR ___stack_chk_guard
	mov	DWORD PTR [esp+28], eax
	xor	eax, eax
LVL1078:
	.loc 1 908 0
	cmp	DWORD PTR [esp+72], 3
	je	L900
L906:
	.loc 1 917 0
	mov	eax, DWORD PTR [ebx+100]
	mov	DWORD PTR [esp], eax
	call	_purple_connection_get_account
LVL1079:
	mov	edi, eax
LVL1080:
	.loc 1 919 0
	mov	DWORD PTR [esp+4], OFFSET FLAT:LC47
	mov	DWORD PTR [esp], ebp
	call	_xmlnode_get_child
LVL1081:
	mov	esi, eax
LVL1082:
	test	eax, eax
	je	L936
L901:
	.loc 1 922 0
	mov	DWORD PTR [esp+4], 0
	mov	DWORD PTR [esp], esi
	call	_xmlnode_to_str
LVL1083:
	mov	ebp, eax
LVL1084:
	.loc 1 923 0
	mov	DWORD PTR [esp+4], eax
	mov	DWORD PTR [esp], edi
	call	_purple_account_set_user_info
LVL1085:
	.loc 1 924 0
	mov	DWORD PTR [esp], ebp
	call	_g_free
LVL1086:
	.loc 1 929 0
	mov	DWORD PTR [ebx+208], 1
	.loc 1 931 0
	mov	DWORD PTR [esp+4], OFFSET FLAT:LC123
	mov	DWORD PTR [esp], esi
	call	_xmlnode_get_child
LVL1087:
	test	eax, eax
	je	L935
	.loc 1 931 0 is_stmt 0 discriminator 1
	mov	DWORD PTR [esp+4], OFFSET FLAT:LC125
	mov	DWORD PTR [esp], eax
	call	_xmlnode_get_child
LVL1088:
	test	eax, eax
	je	L935
LBB196:
	.loc 1 934 0 is_stmt 1
	mov	DWORD PTR [esp], eax
	call	_xmlnode_get_data
LVL1089:
	mov	esi, eax
LVL1090:
	.loc 1 935 0
	test	eax, eax
	je	L935
LBB197:
	.loc 1 936 0
	lea	eax, [esp+24]
LVL1091:
	mov	DWORD PTR [esp+4], eax
	mov	DWORD PTR [esp], esi
	call	_purple_base64_decode
LVL1092:
	mov	ebp, eax
LVL1093:
	.loc 1 937 0
	mov	DWORD PTR [esp], esi
	call	_g_free
LVL1094:
	.loc 1 939 0
	test	ebp, ebp
	je	L935
	.loc 1 940 0
	mov	DWORD PTR [esp+8], OFFSET FLAT:LC130
LVL1095:
	mov	eax, DWORD PTR [esp+24]
	mov	DWORD PTR [esp+4], eax
	mov	DWORD PTR [esp], ebp
	call	_jabber_calculate_data_hash
LVL1096:
	mov	esi, eax
LVL1097:
	.loc 1 941 0
	mov	DWORD PTR [esp], ebp
	call	_g_free
LVL1098:
LBE197:
LBE196:
	.loc 1 947 0
	mov	eax, DWORD PTR [ebx+112]
	test	eax, eax
	jne	L937
LVL1099:
	.p2align 2,,3
L914:
	.loc 1 959 0
	test	esi, esi
	je	L916
	.loc 1 961 0
	mov	DWORD PTR [ebx+116], esi
LVL1100:
	.loc 1 965 0
	mov	DWORD PTR [esp+4], 0
	mov	DWORD PTR [esp], ebx
	call	_jabber_presence_send
LVL1101:
	.loc 1 962 0
	xor	esi, esi
LVL1102:
L916:
	.loc 1 968 0
	mov	DWORD PTR [esp], esi
	call	_g_free
LVL1103:
L899:
	.loc 1 969 0
	mov	eax, DWORD PTR [esp+28]
	xor	eax, DWORD PTR ___stack_chk_guard
	jne	L938
	add	esp, 44
LCFI404:
	.cfi_remember_state
	.cfi_def_cfa_offset 20
	pop	ebx
LCFI405:
	.cfi_restore 3
	.cfi_def_cfa_offset 16
	pop	esi
LCFI406:
	.cfi_restore 6
	.cfi_def_cfa_offset 12
	pop	edi
LCFI407:
	.cfi_restore 7
	.cfi_def_cfa_offset 8
	pop	ebp
LCFI408:
	.cfi_restore 5
	.cfi_def_cfa_offset 4
	ret
LVL1104:
	.p2align 2,,3
L936:
LCFI409:
	.cfi_restore_state
	.loc 1 919 0 discriminator 1
	mov	DWORD PTR [esp+8], OFFSET FLAT:LC77
	mov	DWORD PTR [esp+4], OFFSET FLAT:LC4
	mov	DWORD PTR [esp], ebp
	call	_xmlnode_get_child_with_namespace
LVL1105:
	mov	esi, eax
LVL1106:
	test	eax, eax
	jne	L901
LVL1107:
	.loc 1 929 0
	mov	DWORD PTR [ebx+208], 1
LVL1108:
	.p2align 2,,3
L935:
	.loc 1 905 0
	xor	esi, esi
LVL1109:
	.loc 1 947 0
	mov	eax, DWORD PTR [ebx+112]
	test	eax, eax
	je	L914
LVL1110:
L937:
	.loc 1 947 0 is_stmt 0 discriminator 1
	mov	DWORD PTR [esp+4], eax
	mov	DWORD PTR [esp], esi
	call	_purple_strequal
LVL1111:
	test	eax, eax
	jne	L914
	.loc 1 954 0 is_stmt 1
	mov	eax, DWORD PTR [ebx+144]
	test	eax, eax
	je	L915
	.loc 1 955 0
	mov	DWORD PTR [esp+8], ebx
	mov	DWORD PTR [esp+4], OFFSET FLAT:_set_own_vcard_cb
	mov	DWORD PTR [esp], 10
	call	_purple_timeout_add_seconds
LVL1112:
	mov	DWORD PTR [ebx+212], eax
	jmp	L916
LVL1113:
	.p2align 2,,3
L900:
LBB198:
	.loc 1 910 0
	mov	DWORD PTR [esp+4], OFFSET FLAT:LC142
	mov	DWORD PTR [esp], OFFSET FLAT:LC24
	call	_purple_debug_warning
LVL1114:
	.loc 1 912 0
	mov	DWORD PTR [esp+4], OFFSET FLAT:LC143
	mov	DWORD PTR [esp], ebp
	call	_xmlnode_get_child
LVL1115:
	.loc 1 913 0
	test	eax, eax
	je	L899
	.loc 1 913 0 is_stmt 0 discriminator 1
	mov	DWORD PTR [esp+4], OFFSET FLAT:LC144
	mov	DWORD PTR [esp], eax
	call	_xmlnode_get_child
LVL1116:
	test	eax, eax
	jne	L906
	jmp	L899
LVL1117:
	.p2align 2,,3
L915:
LBE198:
	.loc 1 958 0 is_stmt 1
	mov	DWORD PTR [esp], edi
	call	_purple_account_get_user_info
LVL1118:
	mov	DWORD PTR [esp+4], eax
	mov	eax, DWORD PTR [ebx+100]
	mov	DWORD PTR [esp], eax
	call	_jabber_set_info
LVL1119:
	jmp	L916
LVL1120:
L938:
	.loc 1 969 0
	call	___stack_chk_fail
LVL1121:
	.cfi_endproc
LFE110:
	.p2align 2,,3
	.def	_set_own_vcard_cb;	.scl	3;	.type	32;	.endef
_set_own_vcard_cb:
LFB109:
	.loc 1 889 0
	.cfi_startproc
LVL1122:
	push	ebx
LCFI410:
	.cfi_def_cfa_offset 8
	.cfi_offset 3, -8
	sub	esp, 40
LCFI411:
	.cfi_def_cfa_offset 48
	mov	ebx, DWORD PTR [esp+48]
	.loc 1 889 0
	mov	eax, DWORD PTR ___stack_chk_guard
	mov	DWORD PTR [esp+28], eax
	xor	eax, eax
LVL1123:
	.loc 1 891 0
	mov	eax, DWORD PTR [ebx+100]
	mov	DWORD PTR [esp], eax
	call	_purple_connection_get_account
LVL1124:
	.loc 1 893 0
	mov	DWORD PTR [ebx+212], 0
	.loc 1 895 0
	mov	DWORD PTR [esp], eax
	call	_purple_account_get_user_info
LVL1125:
	mov	DWORD PTR [esp+4], eax
	mov	eax, DWORD PTR [ebx+100]
	mov	DWORD PTR [esp], eax
	call	_jabber_set_info
LVL1126:
	.loc 1 898 0
	xor	eax, eax
	mov	edx, DWORD PTR [esp+28]
	xor	edx, DWORD PTR ___stack_chk_guard
	jne	L942
	add	esp, 40
LCFI412:
	.cfi_remember_state
	.cfi_def_cfa_offset 8
	pop	ebx
LCFI413:
	.cfi_restore 3
	.cfi_def_cfa_offset 4
LVL1127:
	ret
LVL1128:
L942:
LCFI414:
	.cfi_restore_state
	call	___stack_chk_fail
LVL1129:
	.cfi_endproc
LFE109:
	.p2align 2,,3
	.globl	_jabber_set_buddy_icon
	.def	_jabber_set_buddy_icon;	.scl	2;	.type	32;	.endef
_jabber_set_buddy_icon:
LFB102:
	.loc 1 544 0
	.cfi_startproc
LVL1130:
	push	edi
LCFI415:
	.cfi_def_cfa_offset 8
	.cfi_offset 7, -8
	push	esi
LCFI416:
	.cfi_def_cfa_offset 12
	.cfi_offset 6, -12
	push	ebx
LCFI417:
	.cfi_def_cfa_offset 16
	.cfi_offset 3, -16
	sub	esp, 32
LCFI418:
	.cfi_def_cfa_offset 48
	mov	ebx, DWORD PTR [esp+48]
	mov	esi, DWORD PTR [esp+52]
	.loc 1 544 0
	mov	eax, DWORD PTR ___stack_chk_guard
	mov	DWORD PTR [esp+28], eax
	xor	eax, eax
	.loc 1 545 0
	mov	DWORD PTR [esp], ebx
	call	_purple_connection_get_account
LVL1131:
	mov	edi, eax
LVL1132:
	.loc 1 548 0
	mov	DWORD PTR [esp+4], esi
	mov	eax, DWORD PTR [ebx+28]
LVL1133:
	mov	DWORD PTR [esp], eax
	call	_jabber_avatar_set
LVL1134:
	.loc 1 550 0
	mov	DWORD PTR [esp], edi
	call	_purple_account_get_user_info
LVL1135:
	mov	edx, DWORD PTR [esp+28]
	xor	edx, DWORD PTR ___stack_chk_guard
	jne	L947
	mov	DWORD PTR [esp+52], eax
	mov	DWORD PTR [esp+48], ebx
	.loc 1 556 0
	add	esp, 32
LCFI419:
	.cfi_remember_state
	.cfi_def_cfa_offset 16
	pop	ebx
LCFI420:
	.cfi_restore 3
	.cfi_def_cfa_offset 12
	pop	esi
LCFI421:
	.cfi_restore 6
	.cfi_def_cfa_offset 8
	pop	edi
LCFI422:
	.cfi_restore 7
	.cfi_def_cfa_offset 4
LVL1136:
	.loc 1 550 0
	jmp	_jabber_set_info
LVL1137:
L947:
LCFI423:
	.cfi_restore_state
	call	___stack_chk_fail
LVL1138:
	.cfi_endproc
LFE102:
	.section .rdata,"dr"
LC145:
	.ascii "%s/%s\0"
LC146:
	.ascii "Save\0"
	.align 4
LC147:
	.ascii "All items below are optional. Enter only the information with which you feel comfortable.\0"
LC148:
	.ascii "Edit XMPP vCard\0"
	.text
	.p2align 2,,3
	.globl	_jabber_setup_set_info
	.def	_jabber_setup_set_info;	.scl	2;	.type	32;	.endef
_jabber_setup_set_info:
LFB104:
	.loc 1 616 0
	.cfi_startproc
LVL1139:
	push	ebp
LCFI424:
	.cfi_def_cfa_offset 8
	.cfi_offset 5, -8
	push	edi
LCFI425:
	.cfi_def_cfa_offset 12
	.cfi_offset 7, -12
	push	esi
LCFI426:
	.cfi_def_cfa_offset 16
	.cfi_offset 6, -16
	push	ebx
LCFI427:
	.cfi_def_cfa_offset 20
	.cfi_offset 3, -20
	sub	esp, 124
LCFI428:
	.cfi_def_cfa_offset 144
	.loc 1 616 0
	mov	eax, DWORD PTR ___stack_chk_guard
	mov	DWORD PTR [esp+108], eax
	xor	eax, eax
	.loc 1 617 0
	mov	eax, DWORD PTR [esp+144]
	mov	eax, DWORD PTR [eax+12]
	mov	DWORD PTR [esp+88], eax
LVL1140:
	.loc 1 626 0
	call	_purple_request_fields_new
LVL1141:
	mov	DWORD PTR [esp+92], eax
LVL1142:
	.loc 1 627 0
	mov	DWORD PTR [esp], 0
	call	_purple_request_field_group_new
LVL1143:
	mov	DWORD PTR [esp+84], eax
LVL1144:
	.loc 1 628 0
	mov	DWORD PTR [esp+4], eax
	mov	eax, DWORD PTR [esp+92]
LVL1145:
	mov	DWORD PTR [esp], eax
	call	_purple_request_fields_add_group
LVL1146:
	.loc 1 633 0
	mov	edx, DWORD PTR [esp+88]
	mov	eax, DWORD PTR [edx+12]
	mov	DWORD PTR [esp], eax
	call	_purple_account_get_user_info
LVL1147:
	test	eax, eax
	je	L961
	.loc 1 634 0
	mov	DWORD PTR [esp+4], -1
	mov	DWORD PTR [esp], eax
	call	_xmlnode_from_str
LVL1148:
	mov	DWORD PTR [esp+80], eax
LVL1149:
L949:
	.loc 1 639 0
	mov	eax, OFFSET FLAT:LC46
	mov	ebx, OFFSET FLAT:_vcard_template_data
	jmp	L958
LVL1150:
	.p2align 2,,3
L974:
LBB199:
	.loc 1 658 0
	call	_libintl_dgettext
LVL1151:
	.loc 1 657 0
	mov	DWORD PTR [esp+12], 1
L971:
	.loc 1 661 0
	mov	DWORD PTR [esp+8], ebp
	mov	DWORD PTR [esp+4], eax
	mov	eax, DWORD PTR [ebx+4]
	mov	DWORD PTR [esp], eax
	call	_purple_request_field_string_new
LVL1152:
	mov	esi, eax
LVL1153:
	.loc 1 666 0
	mov	DWORD PTR [esp], ebp
	call	_g_free
LVL1154:
	.loc 1 669 0
	mov	DWORD PTR [esp+4], esi
	mov	eax, DWORD PTR [esp+84]
	mov	DWORD PTR [esp], eax
	call	_purple_request_field_group_add_field
LVL1155:
L950:
LBE199:
	.loc 1 639 0
	add	ebx, 12
LVL1156:
	mov	eax, DWORD PTR [ebx]
	test	eax, eax
	je	L972
LVL1157:
L958:
LBB201:
	.loc 1 641 0
	cmp	BYTE PTR [eax], 0
	je	L950
	.loc 1 644 0
	mov	eax, DWORD PTR [esp+80]
	test	eax, eax
	je	L955
	.loc 1 645 0
	mov	eax, DWORD PTR [ebx+8]
	test	eax, eax
	je	L973
LBB200:
	.loc 1 648 0
	mov	edx, DWORD PTR [ebx+4]
	mov	DWORD PTR [esp+8], edx
	mov	DWORD PTR [esp+4], eax
	mov	DWORD PTR [esp], OFFSET FLAT:LC145
	call	_g_strdup_printf
LVL1158:
	mov	edi, eax
LVL1159:
	.loc 1 649 0
	mov	DWORD PTR [esp+4], eax
	mov	eax, DWORD PTR [esp+80]
LVL1160:
	mov	DWORD PTR [esp], eax
	call	_xmlnode_get_child
LVL1161:
	mov	esi, eax
LVL1162:
	.loc 1 650 0
	mov	DWORD PTR [esp], edi
	call	_g_free
LVL1163:
L954:
LBE200:
	.loc 1 652 0
	test	esi, esi
	je	L955
	.loc 1 653 0
	mov	DWORD PTR [esp], esi
	call	_xmlnode_get_data
LVL1164:
	mov	ebp, eax
LVL1165:
L952:
	.loc 1 656 0
	mov	esi, DWORD PTR [ebx+4]
	mov	edi, OFFSET FLAT:LC121
	mov	ecx, 5
	repe cmpsb
	.loc 1 658 0
	mov	eax, DWORD PTR [ebx]
	mov	DWORD PTR [esp+4], eax
	mov	DWORD PTR [esp], OFFSET FLAT:LC1
	.loc 1 656 0
	je	L974
	.loc 1 662 0
	call	_libintl_dgettext
LVL1166:
	.loc 1 661 0
	mov	DWORD PTR [esp+12], 0
	jmp	L971
LVL1167:
	.p2align 2,,3
L955:
LBE201:
	.loc 1 639 0
	xor	ebp, ebp
	jmp	L952
LVL1168:
	.p2align 2,,3
L972:
	.loc 1 672 0
	mov	eax, DWORD PTR [esp+80]
	test	eax, eax
	je	L959
	.loc 1 673 0
	mov	eax, DWORD PTR [esp+80]
	mov	DWORD PTR [esp], eax
	call	_xmlnode_free
LVL1169:
L959:
	.loc 1 675 0
	mov	edx, DWORD PTR [esp+88]
	mov	DWORD PTR [esp], edx
	call	_purple_connection_get_account
LVL1170:
	.loc 1 681 0
	mov	DWORD PTR [esp+4], OFFSET FLAT:LC18
	mov	DWORD PTR [esp], OFFSET FLAT:LC1
	mov	DWORD PTR [esp+76], eax
	call	_libintl_dgettext
LVL1171:
	mov	ebp, eax
	.loc 1 680 0
	mov	DWORD PTR [esp+4], OFFSET FLAT:LC146
	mov	DWORD PTR [esp], OFFSET FLAT:LC1
	call	_libintl_dgettext
LVL1172:
	mov	edi, eax
	.loc 1 677 0
	mov	DWORD PTR [esp+4], OFFSET FLAT:LC147
	mov	DWORD PTR [esp], OFFSET FLAT:LC1
	call	_libintl_dgettext
LVL1173:
	mov	esi, eax
	.loc 1 676 0
	mov	DWORD PTR [esp+4], OFFSET FLAT:LC148
	mov	DWORD PTR [esp], OFFSET FLAT:LC1
	call	_libintl_dgettext
LVL1174:
	mov	ebx, eax
LVL1175:
	.loc 1 675 0
	mov	DWORD PTR [esp+4], OFFSET FLAT:LC148
	mov	DWORD PTR [esp], OFFSET FLAT:LC1
	call	_libintl_dgettext
LVL1176:
	mov	ecx, DWORD PTR [esp+88]
	mov	DWORD PTR [esp+48], ecx
	mov	DWORD PTR [esp+44], 0
	mov	DWORD PTR [esp+40], 0
	mov	edx, DWORD PTR [esp+76]
	mov	DWORD PTR [esp+36], edx
	mov	DWORD PTR [esp+32], 0
	mov	DWORD PTR [esp+28], ebp
	mov	DWORD PTR [esp+24], OFFSET FLAT:_jabber_format_info
	mov	DWORD PTR [esp+20], edi
	mov	edx, DWORD PTR [esp+92]
	mov	DWORD PTR [esp+16], edx
	mov	DWORD PTR [esp+12], esi
	mov	DWORD PTR [esp+8], ebx
	mov	DWORD PTR [esp+4], eax
	mov	DWORD PTR [esp], ecx
	call	_purple_request_fields
LVL1177:
	.loc 1 684 0
	mov	ecx, DWORD PTR [esp+108]
	xor	ecx, DWORD PTR ___stack_chk_guard
	jne	L975
	add	esp, 124
LCFI429:
	.cfi_remember_state
	.cfi_def_cfa_offset 20
	pop	ebx
LCFI430:
	.cfi_restore 3
	.cfi_def_cfa_offset 16
	pop	esi
LCFI431:
	.cfi_restore 6
	.cfi_def_cfa_offset 12
	pop	edi
LCFI432:
	.cfi_restore 7
	.cfi_def_cfa_offset 8
	pop	ebp
LCFI433:
	.cfi_restore 5
	.cfi_def_cfa_offset 4
	ret
	.p2align 2,,3
L973:
LCFI434:
	.cfi_restore_state
LBB202:
	.loc 1 646 0
	mov	eax, DWORD PTR [ebx+4]
	mov	DWORD PTR [esp+4], eax
	mov	eax, DWORD PTR [esp+80]
	mov	DWORD PTR [esp], eax
	call	_xmlnode_get_child
LVL1178:
	mov	esi, eax
LVL1179:
	jmp	L954
LVL1180:
	.p2align 2,,3
L961:
LBE202:
	.loc 1 624 0
	mov	DWORD PTR [esp+80], 0
	jmp	L949
LVL1181:
L975:
	.loc 1 684 0
	call	___stack_chk_fail
LVL1182:
	.cfi_endproc
LFE104:
	.p2align 2,,3
	.globl	_jabber_vcard_fetch_mine
	.def	_jabber_vcard_fetch_mine;	.scl	2;	.type	32;	.endef
_jabber_vcard_fetch_mine:
LFB111:
	.loc 1 972 0
	.cfi_startproc
LVL1183:
	push	ebx
LCFI435:
	.cfi_def_cfa_offset 8
	.cfi_offset 3, -8
	sub	esp, 40
LCFI436:
	.cfi_def_cfa_offset 48
	.loc 1 972 0
	mov	eax, DWORD PTR ___stack_chk_guard
	mov	DWORD PTR [esp+28], eax
	xor	eax, eax
	.loc 1 973 0
	mov	DWORD PTR [esp+4], 1
	mov	eax, DWORD PTR [esp+48]
	mov	DWORD PTR [esp], eax
	call	_jabber_iq_new
LVL1184:
	mov	ebx, eax
LVL1185:
	.loc 1 975 0
	mov	DWORD PTR [esp+4], OFFSET FLAT:LC47
	mov	eax, DWORD PTR [eax+8]
LVL1186:
	mov	DWORD PTR [esp], eax
	call	_xmlnode_new_child
LVL1187:
	.loc 1 976 0
	mov	DWORD PTR [esp+4], OFFSET FLAT:LC77
	mov	DWORD PTR [esp], eax
	call	_xmlnode_set_namespace
LVL1188:
	.loc 1 977 0
	mov	DWORD PTR [esp+8], 0
	mov	DWORD PTR [esp+4], OFFSET FLAT:_jabber_vcard_save_mine
	mov	DWORD PTR [esp], ebx
	call	_jabber_iq_set_callback
LVL1189:
	.loc 1 979 0
	mov	eax, DWORD PTR [esp+28]
	xor	eax, DWORD PTR ___stack_chk_guard
	jne	L980
	mov	DWORD PTR [esp+48], ebx
	.loc 1 980 0
	add	esp, 40
LCFI437:
	.cfi_remember_state
	.cfi_def_cfa_offset 8
	pop	ebx
LCFI438:
	.cfi_restore 3
	.cfi_def_cfa_offset 4
LVL1190:
	.loc 1 979 0
	jmp	_jabber_iq_send
LVL1191:
L980:
LCFI439:
	.cfi_restore_state
	call	___stack_chk_fail
LVL1192:
	.cfi_endproc
LFE111:
	.p2align 2,,3
	.globl	_jabber_buddy_remove_all_pending_buddy_info_requests
	.def	_jabber_buddy_remove_all_pending_buddy_info_requests;	.scl	2;	.type	32;	.endef
_jabber_buddy_remove_all_pending_buddy_info_requests:
LFB120:
	.loc 1 1439 0
	.cfi_startproc
LVL1193:
	push	edi
LCFI440:
	.cfi_def_cfa_offset 8
	.cfi_offset 7, -8
	push	esi
LCFI441:
	.cfi_def_cfa_offset 12
	.cfi_offset 6, -12
	push	ebx
LCFI442:
	.cfi_def_cfa_offset 16
	.cfi_offset 3, -16
	sub	esp, 32
LCFI443:
	.cfi_def_cfa_offset 48
	mov	edi, DWORD PTR [esp+48]
	.loc 1 1439 0
	mov	eax, DWORD PTR ___stack_chk_guard
	mov	DWORD PTR [esp+28], eax
	xor	eax, eax
	.loc 1 1440 0
	mov	ebx, DWORD PTR [edi+124]
	test	ebx, ebx
	je	L981
	.p2align 2,,3
L987:
LBB203:
	.loc 1 1445 0
	mov	esi, DWORD PTR [ebx]
LVL1194:
	.loc 1 1447 0
	mov	eax, DWORD PTR [esi+12]
	mov	DWORD PTR [esp], eax
	call	_g_slist_free
LVL1195:
	.loc 1 1448 0
	mov	eax, esi
	call	_jabber_buddy_info_destroy
LVL1196:
	.loc 1 1450 0
	mov	ebx, DWORD PTR [ebx+4]
LVL1197:
	.loc 1 1444 0
	test	ebx, ebx
	jne	L987
	.loc 1 1453 0
	mov	eax, DWORD PTR [edi+124]
	mov	DWORD PTR [esp], eax
	call	_g_slist_free
LVL1198:
	.loc 1 1454 0
	mov	DWORD PTR [edi+124], 0
LVL1199:
L981:
LBE203:
	.loc 1 1456 0
	mov	eax, DWORD PTR [esp+28]
	xor	eax, DWORD PTR ___stack_chk_guard
	jne	L991
	add	esp, 32
LCFI444:
	.cfi_remember_state
	.cfi_def_cfa_offset 16
	pop	ebx
LCFI445:
	.cfi_restore 3
	.cfi_def_cfa_offset 12
	pop	esi
LCFI446:
	.cfi_restore 6
	.cfi_def_cfa_offset 8
	pop	edi
LCFI447:
	.cfi_restore 7
	.cfi_def_cfa_offset 4
	ret
L991:
LCFI448:
	.cfi_restore_state
	call	___stack_chk_fail
LVL1200:
	.cfi_endproc
LFE120:
	.section .rdata,"dr"
LC149:
	.ascii "Un-hide From\0"
LC150:
	.ascii "Temporarily Hide From\0"
LC151:
	.ascii "(Re-)Request authorization\0"
LC152:
	.ascii "Unsubscribe\0"
LC153:
	.ascii "Initiate _Chat\0"
LC154:
	.ascii "Log In\0"
LC155:
	.ascii "Log Out\0"
	.text
	.p2align 2,,3
	.globl	_jabber_blist_node_menu
	.def	_jabber_blist_node_menu;	.scl	2;	.type	32;	.endef
_jabber_blist_node_menu:
LFB136:
	.loc 1 1911 0
	.cfi_startproc
LVL1201:
	push	ebp
LCFI449:
	.cfi_def_cfa_offset 8
	.cfi_offset 5, -8
	push	edi
LCFI450:
	.cfi_def_cfa_offset 12
	.cfi_offset 7, -12
	push	esi
LCFI451:
	.cfi_def_cfa_offset 16
	.cfi_offset 6, -16
	push	ebx
LCFI452:
	.cfi_def_cfa_offset 20
	.cfi_offset 3, -20
	sub	esp, 44
LCFI453:
	.cfi_def_cfa_offset 64
	mov	ebx, DWORD PTR [esp+64]
	.loc 1 1911 0
	mov	eax, DWORD PTR ___stack_chk_guard
	mov	DWORD PTR [esp+28], eax
	xor	eax, eax
	.loc 1 1912 0
	mov	DWORD PTR [esp], ebx
	call	_purple_blist_node_get_type
LVL1202:
	cmp	eax, 2
	jne	L1007
LVL1203:
LBB208:
LBB209:
	.loc 1 1816 0
	mov	DWORD PTR [esp], ebx
	call	_purple_buddy_get_account
LVL1204:
	mov	DWORD PTR [esp], eax
	call	_purple_account_get_connection
LVL1205:
	.loc 1 1817 0
	mov	DWORD PTR [esp], eax
	call	_purple_connection_get_protocol_data
LVL1206:
	mov	edi, eax
LVL1207:
	.loc 1 1818 0
	mov	DWORD PTR [esp], ebx
	call	_purple_buddy_get_name
LVL1208:
	mov	ebp, eax
LVL1209:
	.loc 1 1819 0
	mov	DWORD PTR [esp+8], 1
	mov	DWORD PTR [esp+4], eax
	mov	DWORD PTR [esp], edi
	call	_jabber_buddy_find
LVL1210:
	mov	ebx, eax
LVL1211:
	.loc 1 1825 0
	test	eax, eax
	je	L1007
	.loc 1 1828 0
	cmp	WORD PTR [edi+16], 2304
	je	L1026
L1010:
	.loc 1 1822 0
	xor	esi, esi
LVL1212:
L995:
	.loc 1 1842 0
	mov	eax, DWORD PTR [ebx+12]
	test	al, 8
	je	L998
	cmp	ebx, DWORD PTR [edi+96]
	je	L998
	.loc 1 1843 0
	mov	DWORD PTR [esp+4], OFFSET FLAT:LC44
	mov	DWORD PTR [esp], OFFSET FLAT:LC1
	call	_libintl_dgettext
LVL1213:
	mov	DWORD PTR [esp+12], 0
	mov	DWORD PTR [esp+8], 0
	mov	DWORD PTR [esp+4], OFFSET FLAT:_jabber_buddy_cancel_presence_notification
	mov	DWORD PTR [esp], eax
	call	_purple_menu_action_new
LVL1214:
	.loc 1 1846 0
	mov	DWORD PTR [esp+4], eax
	mov	DWORD PTR [esp], esi
	call	_g_list_append
LVL1215:
	mov	esi, eax
LVL1216:
	mov	eax, DWORD PTR [ebx+12]
LVL1217:
L998:
	.loc 1 1849 0
	test	al, 4
	je	L1027
	.loc 1 1855 0
	cmp	ebx, DWORD PTR [edi+96]
	je	L1000
	.loc 1 1859 0
	mov	DWORD PTR [esp+4], OFFSET FLAT:LC152
	mov	DWORD PTR [esp], OFFSET FLAT:LC1
	call	_libintl_dgettext
LVL1218:
	mov	DWORD PTR [esp+12], 0
	mov	DWORD PTR [esp+8], 0
	mov	DWORD PTR [esp+4], OFFSET FLAT:_jabber_buddy_unsubscribe
L1025:
	mov	DWORD PTR [esp], eax
	call	_purple_menu_action_new
LVL1219:
	.loc 1 1862 0
	mov	DWORD PTR [esp+4], eax
	mov	DWORD PTR [esp], esi
	call	_g_list_append
LVL1220:
	mov	esi, eax
LVL1221:
L1000:
	.loc 1 1865 0
	mov	edx, DWORD PTR [edi+144]
	test	edx, edx
	jne	L1028
L1001:
	.loc 1 1882 0
	mov	DWORD PTR [esp+4], 64
	mov	DWORD PTR [esp], ebp
	call	_strchr
LVL1222:
	test	eax, eax
	je	L1029
L1002:
	.loc 1 1894 0
	mov	edi, DWORD PTR [ebx]
LVL1223:
	test	edi, edi
	je	L993
LVL1224:
	.p2align 2,,3
L1017:
LBB210:
	.loc 1 1897 0
	mov	eax, DWORD PTR [edi]
	mov	ebx, DWORD PTR [eax+60]
	test	ebx, ebx
	je	L1003
LVL1225:
	.p2align 2,,3
L1018:
LBB211:
	.loc 1 1900 0
	mov	edx, DWORD PTR [ebx]
LVL1226:
	.loc 1 1901 0
	mov	DWORD PTR [esp+12], 0
	mov	DWORD PTR [esp+8], edx
	mov	DWORD PTR [esp+4], OFFSET FLAT:_jabber_adhoc_execute_action
	mov	eax, DWORD PTR [edx+8]
	mov	DWORD PTR [esp], eax
	call	_purple_menu_action_new
LVL1227:
	.loc 1 1902 0
	mov	DWORD PTR [esp+4], eax
	mov	DWORD PTR [esp], esi
	call	_g_list_append
LVL1228:
	mov	esi, eax
LVL1229:
LBE211:
	.loc 1 1899 0
	mov	ebx, DWORD PTR [ebx+4]
LVL1230:
	test	ebx, ebx
	jne	L1018
LVL1231:
L1003:
LBE210:
	.loc 1 1894 0
	mov	edi, DWORD PTR [edi+4]
LVL1232:
	test	edi, edi
	jne	L1017
LVL1233:
L993:
LBE209:
LBE208:
	.loc 1 1917 0
	mov	eax, esi
	mov	edx, DWORD PTR [esp+28]
	xor	edx, DWORD PTR ___stack_chk_guard
	jne	L1030
	add	esp, 44
LCFI454:
	.cfi_remember_state
	.cfi_def_cfa_offset 20
	pop	ebx
LCFI455:
	.cfi_restore 3
	.cfi_def_cfa_offset 16
	pop	esi
LCFI456:
	.cfi_restore 6
	.cfi_def_cfa_offset 12
	pop	edi
LCFI457:
	.cfi_restore 7
	.cfi_def_cfa_offset 8
	pop	ebp
LCFI458:
	.cfi_restore 5
	.cfi_def_cfa_offset 4
	ret
L1007:
LCFI459:
	.cfi_restore_state
	.loc 1 1915 0
	xor	esi, esi
	jmp	L993
LVL1234:
L1026:
LBB213:
LBB212:
	.loc 1 1828 0
	cmp	eax, DWORD PTR [edi+96]
	je	L1010
	.loc 1 1830 0
	test	BYTE PTR [eax+8], 4
	je	L996
	.loc 1 1831 0
	mov	DWORD PTR [esp+4], OFFSET FLAT:LC149
	mov	DWORD PTR [esp], OFFSET FLAT:LC1
	call	_libintl_dgettext
LVL1235:
	mov	DWORD PTR [esp+12], 0
	mov	DWORD PTR [esp+8], 0
	mov	DWORD PTR [esp+4], OFFSET FLAT:_jabber_buddy_make_visible
	mov	DWORD PTR [esp], eax
	call	_purple_menu_action_new
LVL1236:
L997:
	.loc 1 1839 0
	mov	DWORD PTR [esp+4], eax
	mov	DWORD PTR [esp], 0
	call	_g_list_append
LVL1237:
	mov	esi, eax
LVL1238:
	jmp	L995
LVL1239:
L1028:
	.loc 1 1866 0
	mov	DWORD PTR [esp+4], OFFSET FLAT:LC153
	mov	DWORD PTR [esp], OFFSET FLAT:LC1
	call	_libintl_dgettext
LVL1240:
	mov	DWORD PTR [esp+12], 0
	mov	DWORD PTR [esp+8], 0
	mov	DWORD PTR [esp+4], OFFSET FLAT:_google_buddy_node_chat
	mov	DWORD PTR [esp], eax
	call	_purple_menu_action_new
LVL1241:
	.loc 1 1869 0
	mov	DWORD PTR [esp+4], eax
	mov	DWORD PTR [esp], esi
	call	_g_list_append
LVL1242:
	mov	esi, eax
LVL1243:
	jmp	L1001
LVL1244:
L1027:
	.loc 1 1850 0
	mov	DWORD PTR [esp+4], OFFSET FLAT:LC151
	mov	DWORD PTR [esp], OFFSET FLAT:LC1
	call	_libintl_dgettext
LVL1245:
	mov	DWORD PTR [esp+12], 0
	mov	DWORD PTR [esp+8], 0
	mov	DWORD PTR [esp+4], OFFSET FLAT:_jabber_buddy_rerequest_auth
	jmp	L1025
LVL1246:
L996:
	.loc 1 1835 0
	mov	DWORD PTR [esp+4], OFFSET FLAT:LC150
	mov	DWORD PTR [esp], OFFSET FLAT:LC1
	call	_libintl_dgettext
LVL1247:
	mov	DWORD PTR [esp+12], 0
	mov	DWORD PTR [esp+8], 0
	mov	DWORD PTR [esp+4], OFFSET FLAT:_jabber_buddy_make_invisible
	mov	DWORD PTR [esp], eax
	call	_purple_menu_action_new
LVL1248:
	jmp	L997
LVL1249:
L1029:
	.loc 1 1883 0
	mov	DWORD PTR [esp+4], OFFSET FLAT:LC154
	mov	DWORD PTR [esp], OFFSET FLAT:LC1
	call	_libintl_dgettext
LVL1250:
	mov	DWORD PTR [esp+12], 0
	mov	DWORD PTR [esp+8], 0
	mov	DWORD PTR [esp+4], OFFSET FLAT:_jabber_buddy_login
	mov	DWORD PTR [esp], eax
	call	_purple_menu_action_new
LVL1251:
	.loc 1 1886 0
	mov	DWORD PTR [esp+4], eax
	mov	DWORD PTR [esp], esi
	call	_g_list_append
LVL1252:
	mov	esi, eax
LVL1253:
	.loc 1 1887 0
	mov	DWORD PTR [esp+4], OFFSET FLAT:LC155
	mov	DWORD PTR [esp], OFFSET FLAT:LC1
	call	_libintl_dgettext
LVL1254:
	mov	DWORD PTR [esp+12], 0
	mov	DWORD PTR [esp+8], 0
	mov	DWORD PTR [esp+4], OFFSET FLAT:_jabber_buddy_logout
	mov	DWORD PTR [esp], eax
	call	_purple_menu_action_new
LVL1255:
	.loc 1 1890 0
	mov	DWORD PTR [esp+4], eax
	mov	DWORD PTR [esp], esi
	call	_g_list_append
LVL1256:
	mov	esi, eax
LVL1257:
	jmp	L1002
LVL1258:
L1030:
LBE212:
LBE213:
	.loc 1 1917 0
	call	___stack_chk_fail
LVL1259:
	.cfi_endproc
LFE136:
	.section .rdata,"dr"
LC156:
	.ascii "Search Directory\0"
	.align 4
LC157:
	.ascii "Select a user directory to search\0"
LC158:
	.ascii "Enter a User Directory\0"
	.text
	.p2align 2,,3
	.globl	_jabber_user_search_begin
	.def	_jabber_user_search_begin;	.scl	2;	.type	32;	.endef
_jabber_user_search_begin:
LFB144:
	.loc 1 2251 0
	.cfi_startproc
LVL1260:
	push	ebp
LCFI460:
	.cfi_def_cfa_offset 8
	.cfi_offset 5, -8
	push	edi
LCFI461:
	.cfi_def_cfa_offset 12
	.cfi_offset 7, -12
	push	esi
LCFI462:
	.cfi_def_cfa_offset 16
	.cfi_offset 6, -16
	push	ebx
LCFI463:
	.cfi_def_cfa_offset 20
	.cfi_offset 3, -20
	sub	esp, 108
LCFI464:
	.cfi_def_cfa_offset 128
	.loc 1 2251 0
	mov	eax, DWORD PTR ___stack_chk_guard
	mov	DWORD PTR [esp+92], eax
	xor	eax, eax
	.loc 1 2252 0
	mov	eax, DWORD PTR [esp+128]
	mov	edi, DWORD PTR [eax+12]
LVL1261:
	.loc 1 2253 0
	mov	DWORD PTR [esp], edi
	call	_purple_connection_get_protocol_data
LVL1262:
	mov	ebx, eax
LVL1263:
	.loc 1 2254 0
	mov	DWORD PTR [esp+8], OFFSET FLAT:LC51
	mov	DWORD PTR [esp+4], OFFSET FLAT:LC52
	mov	eax, DWORD PTR [eax+100]
LVL1264:
	mov	eax, DWORD PTR [eax+12]
	mov	DWORD PTR [esp], eax
	call	_purple_account_get_string
LVL1265:
	mov	esi, eax
LVL1266:
	.loc 1 2255 0
	cmp	BYTE PTR [eax], 0
	jne	L1032
	.loc 1 2255 0 is_stmt 0 discriminator 1
	mov	eax, DWORD PTR [ebx+56]
LVL1267:
	test	eax, eax
	je	L1032
	.loc 1 2256 0 is_stmt 1
	mov	esi, DWORD PTR [eax]
LVL1268:
L1032:
	.loc 1 2263 0
	mov	DWORD PTR [esp+4], OFFSET FLAT:LC18
	mov	DWORD PTR [esp], OFFSET FLAT:LC1
	call	_libintl_dgettext
LVL1269:
	.loc 1 2262 0
	mov	DWORD PTR [esp+4], OFFSET FLAT:LC156
	mov	DWORD PTR [esp], OFFSET FLAT:LC1
	mov	DWORD PTR [esp+68], eax
	call	_libintl_dgettext
LVL1270:
	.loc 1 2259 0
	mov	DWORD PTR [esp+4], OFFSET FLAT:LC157
	mov	DWORD PTR [esp], OFFSET FLAT:LC1
	mov	DWORD PTR [esp+72], eax
	call	_libintl_dgettext
LVL1271:
	mov	ebp, eax
	.loc 1 2258 0
	mov	DWORD PTR [esp+4], OFFSET FLAT:LC158
	mov	DWORD PTR [esp], OFFSET FLAT:LC1
	call	_libintl_dgettext
LVL1272:
	mov	DWORD PTR [esp+76], eax
	mov	DWORD PTR [esp+4], OFFSET FLAT:LC158
	mov	DWORD PTR [esp], OFFSET FLAT:LC1
	call	_libintl_dgettext
LVL1273:
	mov	DWORD PTR [esp+60], ebx
	mov	DWORD PTR [esp+56], 0
	mov	DWORD PTR [esp+52], 0
	mov	DWORD PTR [esp+48], 0
	mov	DWORD PTR [esp+44], 0
	mov	ecx, DWORD PTR [esp+68]
	mov	DWORD PTR [esp+40], ecx
	mov	DWORD PTR [esp+36], OFFSET FLAT:_jabber_user_search
	mov	edx, DWORD PTR [esp+72]
	mov	DWORD PTR [esp+32], edx
	mov	DWORD PTR [esp+28], 0
	mov	DWORD PTR [esp+24], 0
	mov	DWORD PTR [esp+20], 0
	mov	DWORD PTR [esp+16], esi
	mov	DWORD PTR [esp+12], ebp
	mov	edx, DWORD PTR [esp+76]
	mov	DWORD PTR [esp+8], edx
	mov	DWORD PTR [esp+4], eax
	mov	DWORD PTR [esp], edi
	call	_purple_request_input
LVL1274:
	.loc 1 2266 0
	mov	eax, DWORD PTR [esp+92]
	xor	eax, DWORD PTR ___stack_chk_guard
	jne	L1038
	add	esp, 108
LCFI465:
	.cfi_remember_state
	.cfi_def_cfa_offset 20
	pop	ebx
LCFI466:
	.cfi_restore 3
	.cfi_def_cfa_offset 16
LVL1275:
	pop	esi
LCFI467:
	.cfi_restore 6
	.cfi_def_cfa_offset 12
LVL1276:
	pop	edi
LCFI468:
	.cfi_restore 7
	.cfi_def_cfa_offset 8
LVL1277:
	pop	ebp
LCFI469:
	.cfi_restore 5
	.cfi_def_cfa_offset 4
	ret
LVL1278:
L1038:
LCFI470:
	.cfi_restore_state
	call	___stack_chk_fail
LVL1279:
	.cfi_endproc
LFE144:
	.p2align 2,,3
	.globl	_jabber_resource_know_capabilities
	.def	_jabber_resource_know_capabilities;	.scl	2;	.type	32;	.endef
_jabber_resource_know_capabilities:
LFB145:
	.loc 1 2270 0
	.cfi_startproc
LVL1280:
	sub	esp, 28
LCFI471:
	.cfi_def_cfa_offset 32
	.loc 1 2270 0
	mov	eax, DWORD PTR ___stack_chk_guard
	mov	DWORD PTR [esp+12], eax
	xor	eax, eax
	.loc 1 2271 0
	mov	eax, DWORD PTR [esp+32]
	mov	ecx, DWORD PTR [eax+52]
	xor	eax, eax
	test	ecx, ecx
	setne	al
	.loc 1 2272 0
	mov	edx, DWORD PTR [esp+12]
	xor	edx, DWORD PTR ___stack_chk_guard
	jne	L1042
	add	esp, 28
LCFI472:
	.cfi_remember_state
	.cfi_def_cfa_offset 4
	ret
L1042:
LCFI473:
	.cfi_restore_state
	call	___stack_chk_fail
LVL1281:
	.cfi_endproc
LFE145:
	.section .rdata,"dr"
	.align 4
LC159:
	.ascii "Unable to find caps: nothing known about buddy\12\0"
	.text
	.p2align 2,,3
	.globl	_jabber_resource_has_capability
	.def	_jabber_resource_has_capability;	.scl	2;	.type	32;	.endef
_jabber_resource_has_capability:
LFB146:
	.loc 1 2276 0
	.cfi_startproc
LVL1282:
	push	edi
LCFI474:
	.cfi_def_cfa_offset 8
	.cfi_offset 7, -8
	push	esi
LCFI475:
	.cfi_def_cfa_offset 12
	.cfi_offset 6, -12
	push	ebx
LCFI476:
	.cfi_def_cfa_offset 16
	.cfi_offset 3, -16
	sub	esp, 32
LCFI477:
	.cfi_def_cfa_offset 48
	mov	edi, DWORD PTR [esp+48]
	mov	esi, DWORD PTR [esp+52]
	.loc 1 2276 0
	mov	eax, DWORD PTR ___stack_chk_guard
	mov	DWORD PTR [esp+28], eax
	xor	eax, eax
LVL1283:
	.loc 1 2280 0
	mov	eax, DWORD PTR [edi+52]
	test	eax, eax
	je	L1064
	.loc 1 2286 0
	mov	DWORD PTR [esp+8], OFFSET FLAT:_strcmp
	mov	DWORD PTR [esp+4], esi
	mov	eax, DWORD PTR [eax+4]
	mov	DWORD PTR [esp], eax
	call	_g_list_find_custom
LVL1284:
	.loc 1 2287 0
	test	eax, eax
	je	L1065
L1053:
	mov	eax, 1
LVL1285:
L1045:
	.loc 1 2300 0
	mov	edx, DWORD PTR [esp+28]
	xor	edx, DWORD PTR ___stack_chk_guard
	jne	L1066
	add	esp, 32
LCFI478:
	.cfi_remember_state
	.cfi_def_cfa_offset 16
	pop	ebx
LCFI479:
	.cfi_restore 3
	.cfi_def_cfa_offset 12
	pop	esi
LCFI480:
	.cfi_restore 6
	.cfi_def_cfa_offset 8
	pop	edi
LCFI481:
	.cfi_restore 7
	.cfi_def_cfa_offset 4
	ret
LVL1286:
	.p2align 2,,3
L1065:
LCFI482:
	.cfi_restore_state
	.loc 1 2287 0 discriminator 1
	mov	ebx, DWORD PTR [edi+56]
	test	ebx, ebx
	je	L1055
	mov	eax, DWORD PTR [edi+52]
LVL1287:
	mov	edi, DWORD PTR [eax+12]
	test	edi, edi
	jne	L1061
	jmp	L1055
LVL1288:
	.p2align 2,,3
L1067:
LBB214:
LBB215:
	.loc 1 2295 0
	mov	DWORD PTR [esp+8], OFFSET FLAT:_strcmp
	mov	DWORD PTR [esp+4], esi
	mov	DWORD PTR [esp], eax
	call	_g_list_find_custom
LVL1289:
LBE215:
	.loc 1 2292 0
	mov	ebx, DWORD PTR [ebx+4]
LVL1290:
	test	ebx, ebx
	je	L1051
	.loc 1 2292 0 is_stmt 0 discriminator 2
	test	eax, eax
	jne	L1053
LVL1291:
L1061:
LBB216:
	.loc 1 2293 0 is_stmt 1
	mov	eax, DWORD PTR [ebx]
	mov	DWORD PTR [esp+4], eax
	mov	eax, DWORD PTR [edi+4]
	mov	DWORD PTR [esp], eax
	call	_g_hash_table_lookup
LVL1292:
	.loc 1 2294 0
	test	eax, eax
	jne	L1067
LVL1293:
LBE216:
	.loc 1 2292 0
	mov	ebx, DWORD PTR [ebx+4]
LVL1294:
	test	ebx, ebx
	jne	L1061
	xor	eax, eax
LVL1295:
	.p2align 2,,3
L1051:
	test	eax, eax
	setne	al
	movzx	eax, al
	jmp	L1045
LVL1296:
	.p2align 2,,3
L1064:
LBE214:
	.loc 1 2281 0
	mov	DWORD PTR [esp+4], OFFSET FLAT:LC159
	mov	DWORD PTR [esp], OFFSET FLAT:LC24
	call	_purple_debug_info
LVL1297:
	.loc 1 2283 0
	xor	eax, eax
	jmp	L1045
LVL1298:
	.p2align 2,,3
L1055:
	.loc 1 2287 0
	xor	eax, eax
	.loc 1 2299 0
	jmp	L1045
L1066:
	.loc 1 2300 0
	call	___stack_chk_fail
LVL1299:
	.cfi_endproc
LFE146:
	.section .rdata,"dr"
LC160:
	.ascii "jabber:iq:version\0"
LC161:
	.ascii "Trillian\0"
LC162:
	.ascii "3.1.0.121\0"
LC163:
	.ascii "3.1.7.0\0"
LC164:
	.ascii "urn:xmpp:time\0"
LC165:
	.ascii "jabber:iq:last\0"
	.text
	.p2align 2,,3
	.def	_dispatch_queries_for_resource;	.scl	3;	.type	32;	.endef
_dispatch_queries_for_resource:
LFB123:
	.loc 1 1502 0
	.cfi_startproc
LVL1300:
	push	ebp
LCFI483:
	.cfi_def_cfa_offset 8
	.cfi_offset 5, -8
	push	edi
LCFI484:
	.cfi_def_cfa_offset 12
	.cfi_offset 7, -12
	push	esi
LCFI485:
	.cfi_def_cfa_offset 16
	.cfi_offset 6, -16
	push	ebx
LCFI486:
	.cfi_def_cfa_offset 20
	.cfi_offset 3, -20
	sub	esp, 60
LCFI487:
	.cfi_def_cfa_offset 80
	mov	DWORD PTR [esp+24], eax
	mov	ebp, edx
	mov	eax, DWORD PTR [esp+80]
LVL1301:
	mov	ebx, DWORD PTR [esp+84]
	.loc 1 1502 0
	mov	edx, DWORD PTR ___stack_chk_guard
	mov	DWORD PTR [esp+44], edx
	xor	edx, edx
LVL1302:
	.loc 1 1508 0
	test	ecx, ecx
	je	L1082
	.loc 1 1508 0 is_stmt 0 discriminator 1
	mov	edx, DWORD PTR [ebx+4]
	test	edx, edx
	je	L1082
	.loc 1 1509 0 is_stmt 1
	mov	DWORD PTR [esp+8], edx
	mov	DWORD PTR [esp+4], eax
	mov	DWORD PTR [esp], OFFSET FLAT:LC145
	call	_g_strdup_printf
LVL1303:
	mov	DWORD PTR [esp+20], eax
LVL1304:
	.loc 1 1510 0
	mov	DWORD PTR [esp+28], eax
	jmp	L1069
LVL1305:
	.p2align 2,,3
L1082:
	.loc 1 1512 0
	mov	DWORD PTR [esp+28], eax
	.loc 1 1505 0
	mov	DWORD PTR [esp+20], 0
LVL1306:
L1069:
	.loc 1 1514 0
	mov	DWORD PTR [esp], 4
	call	_g_malloc0
LVL1307:
	mov	esi, eax
LVL1308:
	.loc 1 1515 0
	mov	eax, DWORD PTR [ebx+4]
LVL1309:
	mov	DWORD PTR [esp], eax
	call	_g_strdup
LVL1310:
	mov	DWORD PTR [esp+8], esi
	mov	DWORD PTR [esp+4], eax
	mov	eax, DWORD PTR [ebp+16]
	mov	DWORD PTR [esp], eax
	call	_g_hash_table_insert
LVL1311:
	.loc 1 1517 0
	mov	esi, DWORD PTR [ebx+40]
LVL1312:
	test	esi, esi
	je	L1090
	.loc 1 2334 0
	mov	eax, DWORD PTR [ebx+36]
LVL1313:
L1079:
LBB220:
LBB221:
	.loc 1 1485 0
	mov	edi, OFFSET FLAT:LC161
	mov	ecx, 9
	repe cmpsb
	je	L1091
L1071:
LBE221:
LBE220:
	.loc 1 1531 0
	mov	DWORD PTR [esp+8], OFFSET FLAT:LC165
	mov	DWORD PTR [esp+4], 1
	mov	eax, DWORD PTR [esp+24]
	mov	DWORD PTR [esp], eax
	call	_jabber_iq_new_query
LVL1314:
	mov	esi, eax
LVL1315:
	.loc 1 1532 0
	mov	edx, DWORD PTR [esp+28]
	mov	DWORD PTR [esp+8], edx
	mov	DWORD PTR [esp+4], OFFSET FLAT:LC22
	mov	eax, DWORD PTR [eax+8]
LVL1316:
	mov	DWORD PTR [esp], eax
	call	_xmlnode_set_attrib
LVL1317:
	.loc 1 1533 0
	mov	DWORD PTR [esp+8], ebp
	mov	DWORD PTR [esp+4], OFFSET FLAT:_jabber_last_parse
	mov	DWORD PTR [esp], esi
	call	_jabber_iq_set_callback
LVL1318:
	.loc 1 1534 0
	mov	eax, DWORD PTR [esi+4]
	mov	DWORD PTR [esp], eax
	call	_g_strdup
LVL1319:
	mov	DWORD PTR [esp+4], eax
	mov	eax, DWORD PTR [ebp+12]
	mov	DWORD PTR [esp], eax
	call	_g_slist_prepend
LVL1320:
	mov	DWORD PTR [ebp+12], eax
	.loc 1 1535 0
	mov	DWORD PTR [esp], esi
	call	_jabber_iq_send
LVL1321:
L1072:
	.loc 1 1538 0
	cmp	DWORD PTR [ebx+48], -500000
	je	L1092
L1074:
	.loc 1 1551 0
	mov	eax, DWORD PTR [esp+44]
	xor	eax, DWORD PTR ___stack_chk_guard
	jne	L1093
	mov	eax, DWORD PTR [esp+20]
	mov	DWORD PTR [esp+80], eax
	.loc 1 1552 0
	add	esp, 60
LCFI488:
	.cfi_remember_state
	.cfi_def_cfa_offset 20
	pop	ebx
LCFI489:
	.cfi_restore 3
	.cfi_def_cfa_offset 16
	pop	esi
LCFI490:
	.cfi_restore 6
	.cfi_def_cfa_offset 12
	pop	edi
LCFI491:
	.cfi_restore 7
	.cfi_def_cfa_offset 8
	pop	ebp
LCFI492:
	.cfi_restore 5
	.cfi_def_cfa_offset 4
LVL1322:
	.loc 1 1551 0
	jmp	_g_free
LVL1323:
	.p2align 2,,3
L1091:
LCFI493:
	.cfi_restore_state
LBB224:
LBB222:
	.loc 1 1487 0
	mov	edi, OFFSET FLAT:LC162
	mov	ecx, 10
	mov	esi, eax
	repe cmpsb
	je	L1072
	.loc 1 1489 0
	mov	edi, OFFSET FLAT:LC163
	mov	ecx, 8
	mov	esi, eax
	.loc 1 1487 0
	repe cmpsb
	jne	L1071
	jmp	L1072
	.p2align 2,,3
L1092:
LBE222:
LBE224:
	.loc 1 1538 0 discriminator 1
	mov	esi, DWORD PTR [ebx+52]
	test	esi, esi
	je	L1076
	.loc 1 1540 0
	mov	DWORD PTR [esp+4], OFFSET FLAT:LC164
	mov	DWORD PTR [esp], ebx
	call	_jabber_resource_has_capability
LVL1324:
	.loc 1 1539 0
	test	eax, eax
	je	L1074
L1076:
LBB225:
	.loc 1 1542 0
	mov	DWORD PTR [esp+4], 1
	mov	eax, DWORD PTR [esp+24]
	mov	DWORD PTR [esp], eax
	call	_jabber_iq_new
LVL1325:
	mov	ebx, eax
LVL1326:
	.loc 1 1543 0
	mov	edx, DWORD PTR [esp+28]
	mov	DWORD PTR [esp+8], edx
	mov	DWORD PTR [esp+4], OFFSET FLAT:LC22
	mov	eax, DWORD PTR [eax+8]
LVL1327:
	mov	DWORD PTR [esp], eax
	call	_xmlnode_set_attrib
LVL1328:
	.loc 1 1544 0
	mov	DWORD PTR [esp+4], OFFSET FLAT:LC133
	mov	eax, DWORD PTR [ebx+8]
	mov	DWORD PTR [esp], eax
	call	_xmlnode_new_child
LVL1329:
	.loc 1 1545 0
	mov	DWORD PTR [esp+4], OFFSET FLAT:LC164
	mov	DWORD PTR [esp], eax
	call	_xmlnode_set_namespace
LVL1330:
	.loc 1 1546 0
	mov	DWORD PTR [esp+8], ebp
	mov	DWORD PTR [esp+4], OFFSET FLAT:_jabber_time_parse
	mov	DWORD PTR [esp], ebx
	call	_jabber_iq_set_callback
LVL1331:
	.loc 1 1547 0
	mov	eax, DWORD PTR [ebx+4]
	mov	DWORD PTR [esp], eax
	call	_g_strdup
LVL1332:
	mov	DWORD PTR [esp+4], eax
	mov	eax, DWORD PTR [ebp+12]
	mov	DWORD PTR [esp], eax
	call	_g_slist_prepend
LVL1333:
	mov	DWORD PTR [ebp+12], eax
	.loc 1 1548 0
	mov	DWORD PTR [esp], ebx
	call	_jabber_iq_send
LVL1334:
	jmp	L1074
LVL1335:
	.p2align 2,,3
L1090:
LBE225:
	.loc 1 1518 0
	mov	DWORD PTR [esp+8], OFFSET FLAT:LC160
	mov	DWORD PTR [esp+4], 1
	mov	eax, DWORD PTR [esp+24]
	mov	DWORD PTR [esp], eax
	call	_jabber_iq_new_query
LVL1336:
	mov	esi, eax
LVL1337:
	.loc 1 1519 0
	mov	edx, DWORD PTR [esp+28]
	mov	DWORD PTR [esp+8], edx
	mov	DWORD PTR [esp+4], OFFSET FLAT:LC22
	mov	eax, DWORD PTR [eax+8]
LVL1338:
	mov	DWORD PTR [esp], eax
	call	_xmlnode_set_attrib
LVL1339:
	.loc 1 1520 0
	mov	DWORD PTR [esp+8], ebp
	mov	DWORD PTR [esp+4], OFFSET FLAT:_jabber_version_parse
	mov	DWORD PTR [esp], esi
	call	_jabber_iq_set_callback
LVL1340:
	.loc 1 1521 0
	mov	eax, DWORD PTR [esi+4]
	mov	DWORD PTR [esp], eax
	call	_g_strdup
LVL1341:
	mov	DWORD PTR [esp+4], eax
	mov	eax, DWORD PTR [ebp+12]
	mov	DWORD PTR [esp], eax
	call	_g_slist_prepend
LVL1342:
	mov	DWORD PTR [ebp+12], eax
	.loc 1 1522 0
	mov	DWORD PTR [esp], esi
	call	_jabber_iq_send
LVL1343:
	mov	esi, DWORD PTR [ebx+40]
LVL1344:
	.loc 1 2334 0
	mov	eax, DWORD PTR [ebx+36]
LVL1345:
LBB226:
LBB223:
	.loc 1 1481 0
	test	esi, esi
	je	L1071
	jmp	L1079
L1093:
LBE223:
LBE226:
	.loc 1 1551 0
	call	___stack_chk_fail
LVL1346:
	.cfi_endproc
LFE123:
	.section .rdata,"dr"
	.align 4
LC166:
	.ascii "jabber_buddy_get_info_for_jid() was passed JID %s, but there is no corresponding JabberBuddyResource!\12\0"
	.text
	.p2align 2,,3
	.def	_jabber_buddy_get_info_for_jid;	.scl	3;	.type	32;	.endef
_jabber_buddy_get_info_for_jid:
LFB124:
	.loc 1 1555 0
	.cfi_startproc
LVL1347:
	push	ebp
LCFI494:
	.cfi_def_cfa_offset 8
	.cfi_offset 5, -8
	push	edi
LCFI495:
	.cfi_def_cfa_offset 12
	.cfi_offset 7, -12
	push	esi
LCFI496:
	.cfi_def_cfa_offset 16
	.cfi_offset 6, -16
	push	ebx
LCFI497:
	.cfi_def_cfa_offset 20
	.cfi_offset 3, -20
	sub	esp, 60
LCFI498:
	.cfi_def_cfa_offset 80
	mov	edi, eax
	mov	ebp, edx
	.loc 1 1555 0
	mov	eax, DWORD PTR ___stack_chk_guard
	mov	DWORD PTR [esp+44], eax
	xor	eax, eax
LVL1348:
	.loc 1 1564 0
	mov	DWORD PTR [esp+8], 1
	mov	DWORD PTR [esp+4], edx
	mov	DWORD PTR [esp], edi
	call	_jabber_buddy_find
LVL1349:
	.loc 1 1567 0
	test	eax, eax
	je	L1094
	.loc 1 1570 0
	mov	DWORD PTR [esp+4], 47
	mov	DWORD PTR [esp], ebp
	mov	DWORD PTR [esp+24], eax
	call	_strchr
LVL1350:
	.loc 1 1573 0
	mov	DWORD PTR [esp], 40
	mov	DWORD PTR [esp+28], eax
	call	_g_malloc0
LVL1351:
	mov	esi, eax
LVL1352:
	.loc 1 1574 0
	mov	DWORD PTR [esp], ebp
	call	_g_strdup
LVL1353:
	mov	DWORD PTR [esi+8], eax
	.loc 1 1575 0
	mov	DWORD PTR [esi], edi
	.loc 1 1576 0
	mov	edx, DWORD PTR [esp+24]
	mov	DWORD PTR [esi+4], edx
	.loc 1 1577 0
	mov	DWORD PTR [esp+12], OFFSET FLAT:_jabber_buddy_info_resource_free
	mov	DWORD PTR [esp+8], OFFSET FLAT:_g_free
	mov	DWORD PTR [esp+4], OFFSET FLAT:_jbir_equal
	mov	DWORD PTR [esp], OFFSET FLAT:_jbir_hash
	call	_g_hash_table_new_full
LVL1354:
	mov	DWORD PTR [esi+16], eax
	.loc 1 1578 0
	call	_purple_notify_user_info_new
LVL1355:
	mov	DWORD PTR [esi+28], eax
	.loc 1 1580 0
	mov	DWORD PTR [esp+4], 1
	mov	DWORD PTR [esp], edi
	call	_jabber_iq_new
LVL1356:
	mov	ebx, eax
LVL1357:
	.loc 1 1582 0
	mov	DWORD PTR [esp+8], ebp
	mov	DWORD PTR [esp+4], OFFSET FLAT:LC22
	mov	eax, DWORD PTR [eax+8]
LVL1358:
	mov	DWORD PTR [esp], eax
	call	_xmlnode_set_attrib
LVL1359:
	.loc 1 1583 0
	mov	DWORD PTR [esp+4], OFFSET FLAT:LC47
	mov	eax, DWORD PTR [ebx+8]
	mov	DWORD PTR [esp], eax
	call	_xmlnode_new_child
LVL1360:
	.loc 1 1584 0
	mov	DWORD PTR [esp+4], OFFSET FLAT:LC77
	mov	DWORD PTR [esp], eax
	call	_xmlnode_set_namespace
LVL1361:
	.loc 1 1586 0
	mov	DWORD PTR [esp+8], esi
	mov	DWORD PTR [esp+4], OFFSET FLAT:_jabber_vcard_parse
	mov	DWORD PTR [esp], ebx
	call	_jabber_iq_set_callback
LVL1362:
	.loc 1 1587 0
	mov	eax, DWORD PTR [ebx+4]
	mov	DWORD PTR [esp], eax
	call	_g_strdup
LVL1363:
	mov	DWORD PTR [esp+4], eax
	mov	eax, DWORD PTR [esi+12]
	mov	DWORD PTR [esp], eax
	call	_g_slist_prepend
LVL1364:
	mov	DWORD PTR [esi+12], eax
	.loc 1 1589 0
	mov	DWORD PTR [esp], ebx
	call	_jabber_iq_send
LVL1365:
	.loc 1 1591 0
	mov	ecx, DWORD PTR [esp+28]
	test	ecx, ecx
	mov	edx, DWORD PTR [esp+24]
	jne	L1096
	.loc 1 1592 0
	mov	ebx, DWORD PTR [edx]
LVL1366:
	test	ebx, ebx
	je	L1097
	.p2align 2,,3
L1104:
LVL1367:
LBB227:
	.loc 1 1595 0 discriminator 2
	mov	eax, DWORD PTR [ebx]
	mov	DWORD PTR [esp+4], eax
	mov	DWORD PTR [esp], ebp
	mov	ecx, 1
	mov	edx, esi
	mov	eax, edi
	call	_dispatch_queries_for_resource
LVL1368:
LBE227:
	.loc 1 1593 0 discriminator 2
	mov	ebx, DWORD PTR [ebx+4]
LVL1369:
	test	ebx, ebx
	jne	L1104
LVL1370:
L1099:
	.loc 1 1615 0
	mov	DWORD PTR [esp+4], esi
	mov	eax, DWORD PTR [edi+124]
	mov	DWORD PTR [esp], eax
	call	_g_slist_prepend
LVL1371:
	mov	DWORD PTR [edi+124], eax
	.loc 1 1616 0
	mov	DWORD PTR [esp+8], esi
	mov	DWORD PTR [esp+4], OFFSET FLAT:_jabber_buddy_get_info_timeout
	mov	DWORD PTR [esp], 30
	call	_purple_timeout_add_seconds
LVL1372:
	mov	DWORD PTR [esi+20], eax
LVL1373:
L1094:
	.loc 1 1617 0
	mov	eax, DWORD PTR [esp+44]
	xor	eax, DWORD PTR ___stack_chk_guard
	jne	L1108
	add	esp, 60
LCFI499:
	.cfi_remember_state
	.cfi_def_cfa_offset 20
	pop	ebx
LCFI500:
	.cfi_restore 3
	.cfi_def_cfa_offset 16
	pop	esi
LCFI501:
	.cfi_restore 6
	.cfi_def_cfa_offset 12
	pop	edi
LCFI502:
	.cfi_restore 7
	.cfi_def_cfa_offset 8
LVL1374:
	pop	ebp
LCFI503:
	.cfi_restore 5
	.cfi_def_cfa_offset 4
LVL1375:
	ret
LVL1376:
	.p2align 2,,3
L1096:
LCFI504:
	.cfi_restore_state
LBB228:
	.loc 1 1606 0
	inc	ecx
	mov	DWORD PTR [esp+4], ecx
	mov	DWORD PTR [esp], edx
	call	_jabber_buddy_find_resource
LVL1377:
	.loc 1 1607 0
	test	eax, eax
	je	L1100
	.loc 1 1608 0
	mov	DWORD PTR [esp+4], eax
	mov	DWORD PTR [esp], ebp
	xor	ecx, ecx
	mov	edx, esi
	mov	eax, edi
LVL1378:
	call	_dispatch_queries_for_resource
LVL1379:
	jmp	L1099
LVL1380:
L1100:
	.loc 1 1610 0
	mov	DWORD PTR [esp+8], ebp
	mov	DWORD PTR [esp+4], OFFSET FLAT:LC166
	mov	DWORD PTR [esp], OFFSET FLAT:LC24
	call	_purple_debug_warning
LVL1381:
	jmp	L1099
LVL1382:
L1097:
LBE228:
	.loc 1 1599 0
	mov	DWORD PTR [esp+8], OFFSET FLAT:LC165
	mov	DWORD PTR [esp+4], 1
	mov	DWORD PTR [esp], edi
	call	_jabber_iq_new_query
LVL1383:
	mov	ebx, eax
LVL1384:
	.loc 1 1600 0
	mov	DWORD PTR [esp+8], ebp
	mov	DWORD PTR [esp+4], OFFSET FLAT:LC22
	mov	eax, DWORD PTR [eax+8]
LVL1385:
	mov	DWORD PTR [esp], eax
	call	_xmlnode_set_attrib
LVL1386:
	.loc 1 1601 0
	mov	DWORD PTR [esp+8], esi
	mov	DWORD PTR [esp+4], OFFSET FLAT:_jabber_last_offline_parse
	mov	DWORD PTR [esp], ebx
	call	_jabber_iq_set_callback
LVL1387:
	.loc 1 1602 0
	mov	eax, DWORD PTR [ebx+4]
	mov	DWORD PTR [esp], eax
	call	_g_strdup
LVL1388:
	mov	DWORD PTR [esp+4], eax
	mov	eax, DWORD PTR [esi+12]
	mov	DWORD PTR [esp], eax
	call	_g_slist_prepend
LVL1389:
	mov	DWORD PTR [esi+12], eax
	.loc 1 1603 0
	mov	DWORD PTR [esp], ebx
	call	_jabber_iq_send
LVL1390:
	jmp	L1099
LVL1391:
L1108:
	.loc 1 1617 0
	call	___stack_chk_fail
LVL1392:
	.cfi_endproc
LFE124:
	.p2align 2,,3
	.globl	_jabber_buddy_get_info
	.def	_jabber_buddy_get_info;	.scl	2;	.type	32;	.endef
_jabber_buddy_get_info:
LFB125:
	.loc 1 1620 0
	.cfi_startproc
LVL1393:
	push	edi
LCFI505:
	.cfi_def_cfa_offset 8
	.cfi_offset 7, -8
	push	esi
LCFI506:
	.cfi_def_cfa_offset 12
	.cfi_offset 6, -12
	push	ebx
LCFI507:
	.cfi_def_cfa_offset 16
	.cfi_offset 3, -16
	sub	esp, 32
LCFI508:
	.cfi_def_cfa_offset 48
	mov	esi, DWORD PTR [esp+52]
	.loc 1 1620 0
	mov	eax, DWORD PTR ___stack_chk_guard
	mov	DWORD PTR [esp+28], eax
	xor	eax, eax
	.loc 1 1621 0
	mov	eax, DWORD PTR [esp+48]
	mov	DWORD PTR [esp], eax
	call	_purple_connection_get_protocol_data
LVL1394:
	mov	edi, eax
LVL1395:
	.loc 1 1622 0
	mov	DWORD PTR [esp], esi
	call	_jabber_id_new
LVL1396:
	mov	ebx, eax
LVL1397:
	.loc 1 1624 0
	test	eax, eax
	je	L1109
	.loc 1 1627 0
	mov	eax, DWORD PTR [eax]
LVL1398:
	test	eax, eax
	je	L1111
	.loc 1 1627 0 is_stmt 0 discriminator 1
	mov	edx, DWORD PTR [ebx+4]
	mov	DWORD PTR [esp+8], edx
	mov	DWORD PTR [esp+4], eax
	mov	DWORD PTR [esp], edi
	call	_jabber_chat_find
LVL1399:
	test	eax, eax
	je	L1111
	.loc 1 1629 0 is_stmt 1
	mov	edx, esi
	mov	eax, edi
	call	_jabber_buddy_get_info_for_jid
LVL1400:
L1112:
	.loc 1 1636 0
	mov	eax, DWORD PTR [esp+28]
	xor	eax, DWORD PTR ___stack_chk_guard
	jne	L1122
	mov	DWORD PTR [esp+48], ebx
	.loc 1 1637 0
	add	esp, 32
LCFI509:
	.cfi_remember_state
	.cfi_def_cfa_offset 16
	pop	ebx
LCFI510:
	.cfi_restore 3
	.cfi_def_cfa_offset 12
LVL1401:
	pop	esi
LCFI511:
	.cfi_restore 6
	.cfi_def_cfa_offset 8
	pop	edi
LCFI512:
	.cfi_restore 7
	.cfi_def_cfa_offset 4
LVL1402:
	.loc 1 1636 0
	jmp	_jabber_id_free
LVL1403:
	.p2align 2,,3
L1111:
LCFI513:
	.cfi_restore_state
LBB229:
	.loc 1 1631 0
	mov	DWORD PTR [esp], esi
	call	_jabber_get_bare_jid
LVL1404:
	mov	esi, eax
LVL1405:
	.loc 1 1632 0
	mov	edx, eax
	mov	eax, edi
LVL1406:
	call	_jabber_buddy_get_info_for_jid
LVL1407:
	.loc 1 1633 0
	mov	DWORD PTR [esp], esi
	call	_g_free
LVL1408:
	jmp	L1112
LVL1409:
	.p2align 2,,3
L1109:
LBE229:
	.loc 1 1637 0
	mov	eax, DWORD PTR [esp+28]
	xor	eax, DWORD PTR ___stack_chk_guard
LVL1410:
	jne	L1122
	add	esp, 32
LCFI514:
	.cfi_remember_state
	.cfi_def_cfa_offset 16
	pop	ebx
LCFI515:
	.cfi_restore 3
	.cfi_def_cfa_offset 12
LVL1411:
	pop	esi
LCFI516:
	.cfi_restore 6
	.cfi_def_cfa_offset 8
	pop	edi
LCFI517:
	.cfi_restore 7
	.cfi_def_cfa_offset 4
LVL1412:
	ret
LVL1413:
L1122:
LCFI518:
	.cfi_restore_state
	call	___stack_chk_fail
LVL1414:
	.cfi_endproc
LFE125:
	.section .rdata,"dr"
	.align 4
LC167:
	.ascii "Unable to find caps: buddy might be offline\12\0"
	.text
	.p2align 2,,3
	.globl	_jabber_buddy_has_capability
	.def	_jabber_buddy_has_capability;	.scl	2;	.type	32;	.endef
_jabber_buddy_has_capability:
LFB147:
	.loc 1 2304 0
	.cfi_startproc
LVL1415:
	push	ebx
LCFI519:
	.cfi_def_cfa_offset 8
	.cfi_offset 3, -8
	sub	esp, 40
LCFI520:
	.cfi_def_cfa_offset 48
	mov	ebx, DWORD PTR [esp+52]
	.loc 1 2304 0
	mov	eax, DWORD PTR ___stack_chk_guard
	mov	DWORD PTR [esp+28], eax
	xor	eax, eax
	.loc 1 2305 0
	mov	DWORD PTR [esp+4], 0
	mov	eax, DWORD PTR [esp+48]
	mov	DWORD PTR [esp], eax
	call	_jabber_buddy_find_resource
LVL1416:
	.loc 1 2307 0
	test	eax, eax
	je	L1130
	.loc 1 2313 0
	mov	edx, DWORD PTR [esp+28]
	xor	edx, DWORD PTR ___stack_chk_guard
	jne	L1128
	mov	DWORD PTR [esp+52], ebx
	mov	DWORD PTR [esp+48], eax
	.loc 1 2314 0
	add	esp, 40
LCFI521:
	.cfi_remember_state
	.cfi_def_cfa_offset 8
	pop	ebx
LCFI522:
	.cfi_restore 3
	.cfi_def_cfa_offset 4
	.loc 1 2313 0
	jmp	_jabber_resource_has_capability
LVL1417:
	.p2align 2,,3
L1130:
LCFI523:
	.cfi_restore_state
	.loc 1 2308 0
	mov	DWORD PTR [esp+4], OFFSET FLAT:LC167
	mov	DWORD PTR [esp], OFFSET FLAT:LC24
	call	_purple_debug_info
LVL1418:
	.loc 1 2314 0
	xor	eax, eax
	mov	edx, DWORD PTR [esp+28]
	xor	edx, DWORD PTR ___stack_chk_guard
	jne	L1128
	add	esp, 40
LCFI524:
	.cfi_remember_state
	.cfi_def_cfa_offset 8
	pop	ebx
LCFI525:
	.cfi_restore 3
	.cfi_def_cfa_offset 4
	ret
L1128:
LCFI526:
	.cfi_restore_state
	call	___stack_chk_fail
LVL1419:
	.cfi_endproc
LFE147:
	.p2align 2,,3
	.globl	_jabber_resource_get_identity_category_type
	.def	_jabber_resource_get_identity_category_type;	.scl	2;	.type	32;	.endef
_jabber_resource_get_identity_category_type:
LFB148:
	.loc 1 2319 0
	.cfi_startproc
LVL1420:
	push	edi
LCFI527:
	.cfi_def_cfa_offset 8
	.cfi_offset 7, -8
	push	esi
LCFI528:
	.cfi_def_cfa_offset 12
	.cfi_offset 6, -12
	push	ebx
LCFI529:
	.cfi_def_cfa_offset 16
	.cfi_offset 3, -16
	sub	esp, 32
LCFI530:
	.cfi_def_cfa_offset 48
	mov	edi, DWORD PTR [esp+52]
	.loc 1 2319 0
	mov	eax, DWORD PTR ___stack_chk_guard
	mov	DWORD PTR [esp+28], eax
	xor	eax, eax
LVL1421:
	.loc 1 2322 0
	mov	eax, DWORD PTR [esp+48]
	mov	eax, DWORD PTR [eax+52]
	test	eax, eax
	je	L1137
	.loc 1 2323 0
	mov	ebx, DWORD PTR [eax]
LVL1422:
	test	ebx, ebx
	je	L1137
	.p2align 2,,3
L1138:
LBB230:
	.loc 1 2324 0
	mov	esi, DWORD PTR [ebx]
LVL1423:
	.loc 1 2327 0
	mov	DWORD PTR [esp+4], edi
	mov	eax, DWORD PTR [esi]
	mov	DWORD PTR [esp], eax
	call	_strcmp
LVL1424:
	test	eax, eax
	je	L1141
LBE230:
	.loc 1 2323 0 discriminator 1
	mov	ebx, DWORD PTR [ebx+4]
LVL1425:
	test	ebx, ebx
	jne	L1138
LVL1426:
L1137:
	.loc 1 2333 0
	xor	eax, eax
L1132:
	.loc 1 2334 0
	mov	edx, DWORD PTR [esp+28]
	xor	edx, DWORD PTR ___stack_chk_guard
	jne	L1142
	add	esp, 32
LCFI531:
	.cfi_remember_state
	.cfi_def_cfa_offset 16
	pop	ebx
LCFI532:
	.cfi_restore 3
	.cfi_def_cfa_offset 12
	pop	esi
LCFI533:
	.cfi_restore 6
	.cfi_def_cfa_offset 8
	pop	edi
LCFI534:
	.cfi_restore 7
	.cfi_def_cfa_offset 4
	ret
LVL1427:
	.p2align 2,,3
L1141:
LCFI535:
	.cfi_restore_state
LBB231:
	.loc 1 2328 0
	mov	eax, DWORD PTR [esi+4]
	jmp	L1132
LVL1428:
L1142:
LBE231:
	.loc 1 2334 0
	call	___stack_chk_fail
LVL1429:
	.cfi_endproc
LFE148:
	.globl	_vcard_tag_attr_list
	.section .rdata,"dr"
	.align 4
LC168:
	.ascii "-//HandGen//NONSGML vGen v1.0//EN\0"
LC169:
	.ascii "2.0\0"
LC170:
	.ascii "xmlns\0"
	.align 32
_vcard_tag_attr_list:
	.long	LC45
	.long	LC168
	.long	LC138
	.long	LC169
	.long	LC170
	.long	LC77
	.long	0
	.long	0
	.globl	_vcard_template_data
LC171:
	.ascii "URL\0"
	.align 32
_vcard_template_data:
	.long	LC46
	.long	LC78
	.long	0
	.long	LC80
	.long	LC79
	.long	LC132
	.long	LC82
	.long	LC81
	.long	LC132
	.long	LC15
	.long	LC85
	.long	0
	.long	LC171
	.long	LC171
	.long	0
	.long	LC96
	.long	LC95
	.long	LC88
	.long	LC93
	.long	LC92
	.long	LC88
	.long	LC98
	.long	LC97
	.long	LC88
	.long	LC100
	.long	LC99
	.long	LC88
	.long	LC102
	.long	LC101
	.long	LC88
	.long	LC105
	.long	LC103
	.long	LC88
	.long	LC108
	.long	LC107
	.long	LC106
	.long	LC33
	.long	LC110
	.long	LC109
	.long	LC114
	.long	LC113
	.long	LC112
	.long	LC116
	.long	LC115
	.long	LC112
	.long	LC118
	.long	LC117
	.long	0
	.long	LC120
	.long	LC119
	.long	0
	.long	LC87
	.long	LC86
	.long	0
	.long	LC122
	.long	LC121
	.long	0
	.long	LC51
	.long	LC132
	.long	0
	.long	LC51
	.long	LC88
	.long	0
	.long	LC51
	.long	LC112
	.long	0
	.long	0
	.long	0
	.long	0
___PRETTY_FUNCTION__.49632:
	.ascii "jabber_buddy_free\0"
___PRETTY_FUNCTION__.49619:
	.ascii "jabber_buddy_resource_free\0"
	.align 4
_CSWTCH.41:
	.long	0
	.long	1
	.long	1
	.long	3
	.long	4
	.long	3
	.align 4
_CSWTCH.43:
	.long	0
	.long	1
	.long	1
	.long	3
	.long	4
	.long	3
___PRETTY_FUNCTION__.49961:
	.ascii "jabber_last_offline_parse\0"
___PRETTY_FUNCTION__.49861:
	.ascii "jabber_vcard_parse\0"
___PRETTY_FUNCTION__.49977:
	.ascii "jabber_time_parse\0"
___PRETTY_FUNCTION__.49940:
	.ascii "jabber_last_parse\0"
___PRETTY_FUNCTION__.49923:
	.ascii "jabber_version_parse\0"
___PRETTY_FUNCTION__.50110:
	.ascii "jabber_buddy_unsubscribe\0"
___PRETTY_FUNCTION__.50100:
	.ascii "jabber_buddy_rerequest_auth\0"
	.align 32
___PRETTY_FUNCTION__.50090:
	.ascii "jabber_buddy_cancel_presence_notification\0"
___PRETTY_FUNCTION__.50062:
	.ascii "jabber_buddy_make_invisible\0"
___PRETTY_FUNCTION__.50072:
	.ascii "jabber_buddy_make_visible\0"
	.text
Letext0:
	.file 2 "c:/workspace/pidgin-devel/win32-dev/mingw-4.7.2/bin/../lib/gcc/mingw32/4.7.2/../../../../include/stdio.h"
	.file 3 "c:/workspace/pidgin-devel/win32-dev/mingw-4.7.2/bin/../lib/gcc/mingw32/4.7.2/include/stddef.h"
	.file 4 "c:/workspace/pidgin-devel/win32-dev/mingw-4.7.2/bin/../lib/gcc/mingw32/4.7.2/../../../../include/sys/types.h"
	.file 5 "c:/workspace/pidgin-devel/win32-dev/mingw-4.7.2/bin/../lib/gcc/mingw32/4.7.2/../../../../include/time.h"
	.file 6 "../../../../win32-dev/gtk_2_0-2.14/lib/glib-2.0/include/glibconfig.h"
	.file 7 "../../../../win32-dev/gtk_2_0-2.14/include/glib-2.0/glib/gtypes.h"
	.file 8 "../../../../win32-dev/gtk_2_0-2.14/include/glib-2.0/glib/garray.h"
	.file 9 "../../../../win32-dev/gtk_2_0-2.14/include/glib-2.0/glib/glist.h"
	.file 10 "../../../../win32-dev/gtk_2_0-2.14/include/glib-2.0/glib/ghash.h"
	.file 11 "../../../../win32-dev/gtk_2_0-2.14/include/glib-2.0/glib/gslist.h"
	.file 12 "../../../../win32-dev/gtk_2_0-2.14/include/glib-2.0/glib/gmain.h"
	.file 13 "../../../../win32-dev/gtk_2_0-2.14/include/glib-2.0/glib/gstring.h"
	.file 14 "../../../../win32-dev/gtk_2_0-2.14/include/glib-2.0/gobject/gclosure.h"
	.file 15 "../../../libpurple/account.h"
	.file 16 "../../../libpurple/connection.h"
	.file 17 "../../../libpurple/signals.h"
	.file 18 "../../../libpurple/plugin.h"
	.file 19 "../../../libpurple/pluginpref.h"
	.file 20 "../../../libpurple/status.h"
	.file 21 "../../../libpurple/blist.h"
	.file 22 "../../../libpurple/buddyicon.h"
	.file 23 "../../../libpurple/imgstore.h"
	.file 24 "../../../libpurple/conversation.h"
	.file 25 "../../../libpurple/log.h"
	.file 26 "../../../libpurple/media/enum-types.h"
	.file 27 "../../../libpurple/media/../util.h"
	.file 28 "c:/workspace/pidgin-devel/win32-dev/mingw-4.7.2/bin/../lib/gcc/mingw32/4.7.2/../../../../include/wtypes.h"
	.file 29 "../../../libpurple/media/../xmlnode.h"
	.file 30 "../../../libpurple/media/../notify.h"
	.file 31 "../../../libpurple/eventloop.h"
	.file 32 "../../../libpurple/proxy.h"
	.file 33 "../../../libpurple/roomlist.h"
	.file 34 "../../../libpurple/sslconn.h"
	.file 35 "../../../libpurple/certificate.h"
	.file 36 "../../../libpurple/privacy.h"
	.file 37 "../../../libpurple/request.h"
	.file 38 "buddy.h"
	.file 39 "jabber.h"
	.file 40 "../../../../win32-dev/libxml2-2.9.0/include/libxml2/libxml/xmlstring.h"
	.file 41 "../../../../win32-dev/libxml2-2.9.0/include/libxml2/libxml/tree.h"
	.file 42 "../../../../win32-dev/libxml2-2.9.0/include/libxml2/libxml/xmlIO.h"
	.file 43 "../../../../win32-dev/libxml2-2.9.0/include/libxml2/libxml/parser.h"
	.file 44 "../../../../win32-dev/libxml2-2.9.0/include/libxml2/libxml/entities.h"
	.file 45 "../../../../win32-dev/libxml2-2.9.0/include/libxml2/libxml/dict.h"
	.file 46 "../../../../win32-dev/libxml2-2.9.0/include/libxml2/libxml/hash.h"
	.file 47 "../../../../win32-dev/libxml2-2.9.0/include/libxml2/libxml/xmlerror.h"
	.file 48 "../../../../win32-dev/libxml2-2.9.0/include/libxml2/libxml/xmlautomata.h"
	.file 49 "../../../../win32-dev/libxml2-2.9.0/include/libxml2/libxml/valid.h"
	.file 50 "../../../../win32-dev/libxml2-2.9.0/include/libxml2/libxml/encoding.h"
	.file 51 "../../../libpurple/circbuffer.h"
	.file 52 "../../../libpurple/dnsquery.h"
	.file 53 "../../../libpurple/dnssrv.h"
	.file 54 "auth.h"
	.file 55 "iq.h"
	.file 56 "jutil.h"
	.file 57 "bosh.h"
	.file 58 "../../../../win32-dev/cyrus-sasl-2.1.25/include/sasl/sasl.h"
	.file 59 "caps.h"
	.file 60 "chat.h"
	.file 61 "xdata.h"
	.file 62 "c:/workspace/pidgin-devel/win32-dev/mingw-4.7.2/bin/../lib/gcc/mingw32/4.7.2/../../../../include/ctype.h"
	.file 63 "../../../../win32-dev/gtk_2_0-2.14/include/glib-2.0/glib/gmem.h"
	.file 64 "../../../../win32-dev/gtk_2_0-2.14/include/libintl.h"
	.file 65 "../../../../win32-dev/gtk_2_0-2.14/include/glib-2.0/glib/gstrfuncs.h"
	.file 66 "c:/workspace/pidgin-devel/win32-dev/mingw-4.7.2/bin/../lib/gcc/mingw32/4.7.2/../../../../include/string.h"
	.file 67 "../../../libpurple/debug.h"
	.file 68 "presence.h"
	.file 69 "../../../../win32-dev/gtk_2_0-2.14/include/glib-2.0/glib/gmessages.h"
	.file 70 "../../../libpurple/server.h"
	.file 71 "../../../../win32-dev/gtk_2_0-2.14/include/glib-2.0/glib/gutils.h"
	.file 72 "c:/workspace/pidgin-devel/win32-dev/mingw-4.7.2/bin/../lib/gcc/mingw32/4.7.2/../../../../include/stdlib.h"
	.file 73 "../../../../win32-dev/gtk_2_0-2.14/include/glib-2.0/glib/gmarkup.h"
	.file 74 "../../../libpurple/prpl.h"
	.file 75 "useravatar.h"