	.file	"buddylist.c"
	.intel_syntax noprefix
	.text
Ltext0:
	.section .rdata,"dr"
LC0:
	.ascii "send: ret=%d; size=%d\12\0"
LC1:
	.ascii "gg\0"
	.align 4
LC2:
	.ascii "ggp_buddylist_send: adding %d\12\0"
	.text
	.p2align 2,,3
	.globl	_ggp_buddylist_send
	.def	_ggp_buddylist_send;	.scl	2;	.type	32;	.endef
_ggp_buddylist_send:
LFB93:
	.file 1 "buddylist.c"
	.loc 1 40 0
	.cfi_startproc
LVL0:
	push	ebp
LCFI0:
	.cfi_def_cfa_offset 8
	.cfi_offset 5, -8
	push	edi
LCFI1:
	.cfi_def_cfa_offset 12
	.cfi_offset 7, -12
	push	esi
LCFI2:
	.cfi_def_cfa_offset 16
	.cfi_offset 6, -16
	push	ebx
LCFI3:
	.cfi_def_cfa_offset 20
	.cfi_offset 3, -20
	sub	esp, 60
LCFI4:
	.cfi_def_cfa_offset 80
	mov	eax, DWORD PTR [esp+80]
	.loc 1 40 0
	mov	edx, DWORD PTR ___stack_chk_guard
	mov	DWORD PTR [esp+44], edx
	xor	edx, edx
	.loc 1 41 0
	mov	edx, DWORD PTR [eax+28]
	mov	DWORD PTR [esp+28], edx
LVL1:
	.loc 1 42 0
	mov	DWORD PTR [esp], eax
	call	_purple_connection_get_account
LVL2:
	mov	ebx, eax
LVL3:
	.loc 1 49 0
	mov	DWORD PTR [esp+4], 0
	mov	DWORD PTR [esp], eax
	call	_purple_find_buddies
LVL4:
	.loc 1 51 0
	mov	DWORD PTR [esp], eax
	call	_g_slist_length
LVL5:
	mov	DWORD PTR [esp+24], eax
LVL6:
	.loc 1 52 0
	sal	eax, 2
LVL7:
	mov	DWORD PTR [esp], eax
	call	_g_malloc
LVL8:
	mov	esi, eax
LVL9:
	.loc 1 53 0
	mov	eax, DWORD PTR [esp+24]
LVL10:
	mov	DWORD PTR [esp], eax
	call	_g_malloc
LVL11:
	mov	edi, eax
LVL12:
	.loc 1 55 0
	mov	DWORD PTR [esp+4], 0
	mov	DWORD PTR [esp], ebx
	call	_purple_find_buddies
LVL13:
	mov	ebp, eax
LVL14:
	xor	ebx, ebx
LVL15:
	test	eax, eax
	je	L5
LVL16:
	.p2align 2,,3
L9:
LBB2:
	.loc 1 59 0
	mov	eax, DWORD PTR [ebp+0]
LVL17:
	mov	DWORD PTR [esp], eax
	call	_purple_buddy_get_name
LVL18:
	.loc 1 61 0
	mov	DWORD PTR [esp], eax
	call	_ggp_str_to_uin
LVL19:
	mov	DWORD PTR [esi+ebx*4], eax
	.loc 1 62 0
	mov	BYTE PTR [edi+ebx], 3
	.loc 1 63 0
	mov	DWORD PTR [esp+8], eax
	mov	DWORD PTR [esp+4], OFFSET FLAT:LC2
	mov	DWORD PTR [esp], OFFSET FLAT:LC1
	call	_purple_debug_info
LVL20:
LBE2:
	.loc 1 56 0
	mov	DWORD PTR [esp+4], ebp
	mov	DWORD PTR [esp], ebp
	call	_g_slist_delete_link
LVL21:
	mov	ebp, eax
LVL22:
	inc	ebx
LVL23:
	.loc 1 55 0
	test	eax, eax
	jne	L9
LVL24:
L5:
	.loc 1 67 0
	mov	eax, DWORD PTR [esp+24]
LVL25:
	mov	DWORD PTR [esp+12], eax
	mov	DWORD PTR [esp+8], edi
	mov	DWORD PTR [esp+4], esi
	mov	edx, DWORD PTR [esp+28]
	mov	eax, DWORD PTR [edx]
	mov	DWORD PTR [esp], eax
	call	_gg_notify_ex
LVL26:
	.loc 1 68 0
	mov	edx, DWORD PTR [esp+24]
	mov	DWORD PTR [esp+12], edx
	mov	DWORD PTR [esp+8], eax
	mov	DWORD PTR [esp+4], OFFSET FLAT:LC0
	mov	DWORD PTR [esp], OFFSET FLAT:LC1
	call	_purple_debug_info
LVL27:
	.loc 1 70 0
	test	esi, esi
	je	L15
	.loc 1 71 0
	mov	DWORD PTR [esp], esi
	call	_g_free
LVL28:
	.loc 1 72 0
	mov	eax, DWORD PTR [esp+44]
	xor	eax, DWORD PTR ___stack_chk_guard
	jne	L13
	mov	DWORD PTR [esp+80], edi
	.loc 1 74 0
	add	esp, 60
LCFI5:
	.cfi_remember_state
	.cfi_def_cfa_offset 20
	pop	ebx
LCFI6:
	.cfi_restore 3
	.cfi_def_cfa_offset 16
	pop	esi
LCFI7:
	.cfi_restore 6
	.cfi_def_cfa_offset 12
LVL29:
	pop	edi
LCFI8:
	.cfi_restore 7
	.cfi_def_cfa_offset 8
LVL30:
	pop	ebp
LCFI9:
	.cfi_restore 5
	.cfi_def_cfa_offset 4
LVL31:
	.loc 1 72 0
	jmp	_g_free
LVL32:
	.p2align 2,,3
L15:
LCFI10:
	.cfi_restore_state
	.loc 1 74 0
	mov	edx, DWORD PTR [esp+44]
	xor	edx, DWORD PTR ___stack_chk_guard
	jne	L13
	add	esp, 60
LCFI11:
	.cfi_remember_state
	.cfi_def_cfa_offset 20
	pop	ebx
LCFI12:
	.cfi_restore 3
	.cfi_def_cfa_offset 16
	pop	esi
LCFI13:
	.cfi_restore 6
	.cfi_def_cfa_offset 12
LVL33:
	pop	edi
LCFI14:
	.cfi_restore 7
	.cfi_def_cfa_offset 8
LVL34:
	pop	ebp
LCFI15:
	.cfi_restore 5
	.cfi_def_cfa_offset 4
LVL35:
	ret
LVL36:
L13:
LCFI16:
	.cfi_restore_state
	call	___stack_chk_fail
LVL37:
	.cfi_endproc
LFE93:
	.section .rdata,"dr"
LC3:
	.ascii "UTF-8\0"
LC4:
	.ascii "CP1250\0"
LC5:
	.ascii "\15\12\0"
LC6:
	.ascii ";\0"
	.align 4
LC7:
	.ascii "Something is wrong on line %d of the buddylist. Skipping.\12\0"
	.align 4
LC8:
	.ascii "Identifier on line %d of the buddylist is not a number. Skipping.\12\0"
LC9:
	.ascii "got buddy: name=%s; show=%s\12\0"
LC10:
	.ascii "Gadu-Gadu\0"
LC11:
	.ascii ",\0"
	.text
	.p2align 2,,3
	.globl	_ggp_buddylist_load
	.def	_ggp_buddylist_load;	.scl	2;	.type	32;	.endef
_ggp_buddylist_load:
LFB94:
	.loc 1 79 0
	.cfi_startproc
LVL38:
	push	ebp
LCFI17:
	.cfi_def_cfa_offset 8
	.cfi_offset 5, -8
	push	edi
LCFI18:
	.cfi_def_cfa_offset 12
	.cfi_offset 7, -12
	push	esi
LCFI19:
	.cfi_def_cfa_offset 16
	.cfi_offset 6, -16
	push	ebx
LCFI20:
	.cfi_def_cfa_offset 20
	.cfi_offset 3, -20
	sub	esp, 76
LCFI21:
	.cfi_def_cfa_offset 96
	mov	edx, DWORD PTR [esp+96]
	mov	DWORD PTR [esp+40], edx
	.loc 1 79 0
	mov	eax, DWORD PTR ___stack_chk_guard
	mov	DWORD PTR [esp+60], eax
	xor	eax, eax
	.loc 1 84 0
	mov	DWORD PTR [esp+8], OFFSET FLAT:LC3
	mov	DWORD PTR [esp+4], OFFSET FLAT:LC4
	mov	eax, DWORD PTR [esp+100]
	mov	DWORD PTR [esp], eax
	call	_charset_convert
LVL39:
	mov	DWORD PTR [esp+36], eax
LVL40:
	.loc 1 87 0
	mov	DWORD PTR [esp+8], -1
	mov	DWORD PTR [esp+4], OFFSET FLAT:LC5
	mov	DWORD PTR [esp], eax
	call	_g_strsplit
LVL41:
	mov	ebp, eax
LVL42:
	.loc 1 89 0
	mov	eax, DWORD PTR [eax]
LVL43:
	mov	ebx, 1
	test	eax, eax
	jne	L39
	jmp	L29
LVL44:
	.p2align 2,,3
L19:
	inc	ebx
	mov	eax, DWORD PTR [ebp-4+ebx*4]
	test	eax, eax
	je	L29
L39:
LBB3:
	.loc 1 93 0
	cmp	BYTE PTR [eax], 0
	je	L19
	.loc 1 96 0
	mov	DWORD PTR [esp+8], 8
	mov	DWORD PTR [esp+4], OFFSET FLAT:LC6
	mov	DWORD PTR [esp], eax
	call	_g_strsplit
LVL45:
	mov	esi, eax
LVL46:
	.loc 1 97 0
	mov	DWORD PTR [esp], eax
	call	_ggp_array_size
LVL47:
	cmp	eax, 7
	jbe	L47
	.loc 1 104 0
	mov	edx, DWORD PTR [esi+12]
	mov	DWORD PTR [esp+32], edx
LVL48:
	.loc 1 105 0
	mov	edi, DWORD PTR [esi+24]
LVL49:
	.loc 1 106 0
	cmp	BYTE PTR [edi], 0
	je	L22
	.loc 1 106 0 is_stmt 0 discriminator 1
	mov	DWORD PTR [esp], edi
	call	_atol
LVL50:
	test	eax, eax
	je	L22
	.loc 1 113 0 is_stmt 1
	mov	edx, DWORD PTR [esp+32]
	cmp	BYTE PTR [edx], 0
	jne	L23
	mov	DWORD PTR [esp+32], edi
L23:
	.loc 1 117 0
	mov	edx, DWORD PTR [esp+32]
	mov	DWORD PTR [esp+12], edx
	mov	DWORD PTR [esp+8], edi
	mov	DWORD PTR [esp+4], OFFSET FLAT:LC9
	mov	DWORD PTR [esp], OFFSET FLAT:LC1
	call	_purple_debug_info
LVL51:
	.loc 1 119 0
	mov	edx, DWORD PTR [esp+40]
	mov	DWORD PTR [esp], edx
	call	_purple_connection_get_account
LVL52:
	mov	DWORD PTR [esp+4], edi
	mov	DWORD PTR [esp], eax
	call	_purple_find_buddy
LVL53:
	test	eax, eax
	je	L24
LVL54:
L46:
	.loc 1 148 0
	mov	DWORD PTR [esp], esi
	call	_g_strfreev
LVL55:
	inc	ebx
LBE3:
	.loc 1 89 0
	mov	eax, DWORD PTR [ebp-4+ebx*4]
	test	eax, eax
	jne	L39
LVL56:
	.p2align 2,,3
L29:
	.loc 1 150 0
	mov	DWORD PTR [esp], ebp
	call	_g_strfreev
LVL57:
	.loc 1 151 0
	mov	eax, DWORD PTR [esp+36]
	mov	DWORD PTR [esp], eax
	call	_g_free
LVL58:
	.loc 1 153 0
	mov	edx, DWORD PTR [esp+60]
	xor	edx, DWORD PTR ___stack_chk_guard
	jne	L48
	mov	edx, DWORD PTR [esp+40]
	mov	DWORD PTR [esp+96], edx
	.loc 1 154 0
	add	esp, 76
LCFI22:
	.cfi_remember_state
	.cfi_def_cfa_offset 20
	pop	ebx
LCFI23:
	.cfi_restore 3
	.cfi_def_cfa_offset 16
	pop	esi
LCFI24:
	.cfi_restore 6
	.cfi_def_cfa_offset 12
	pop	edi
LCFI25:
	.cfi_restore 7
	.cfi_def_cfa_offset 8
	pop	ebp
LCFI26:
	.cfi_restore 5
	.cfi_def_cfa_offset 4
LVL59:
	.loc 1 153 0
	jmp	_ggp_buddylist_send
LVL60:
	.p2align 2,,3
L22:
LCFI27:
	.cfi_restore_state
LBB6:
	.loc 1 107 0
	mov	DWORD PTR [esp+8], ebx
	mov	DWORD PTR [esp+4], OFFSET FLAT:LC8
	mov	DWORD PTR [esp], OFFSET FLAT:LC1
	call	_purple_debug_warning
LVL61:
	.loc 1 110 0
	jmp	L19
LVL62:
	.p2align 2,,3
L47:
	.loc 1 98 0
	mov	DWORD PTR [esp+8], ebx
	mov	DWORD PTR [esp+4], OFFSET FLAT:LC7
	mov	DWORD PTR [esp], OFFSET FLAT:LC1
	call	_purple_debug_warning
LVL63:
	.loc 1 101 0
	jmp	L19
LVL64:
L24:
	.loc 1 124 0
	mov	DWORD PTR [esp], OFFSET FLAT:LC10
	call	_g_strdup
LVL65:
	mov	DWORD PTR [esp+44], eax
LVL66:
	.loc 1 126 0
	mov	eax, DWORD PTR [esi+20]
LVL67:
	test	eax, eax
	je	L25
LBB4:
	.loc 1 129 0
	mov	DWORD PTR [esp+8], 50
	mov	DWORD PTR [esp+4], OFFSET FLAT:LC11
	mov	DWORD PTR [esp], eax
	call	_g_strsplit
LVL68:
	.loc 1 130 0
	mov	DWORD PTR [esp], eax
	mov	DWORD PTR [esp+28], eax
	call	_ggp_array_size
LVL69:
	test	eax, eax
	mov	ecx, DWORD PTR [esp+28]
	jne	L49
L26:
	.loc 1 134 0
	mov	DWORD PTR [esp], ecx
	call	_g_strfreev
LVL70:
L25:
LBE4:
	.loc 1 137 0
	mov	edx, DWORD PTR [esp+32]
	cmp	BYTE PTR [edx], 0
	je	L50
L27:
	.loc 1 137 0 is_stmt 0 discriminator 3
	mov	edx, DWORD PTR [esp+40]
	mov	DWORD PTR [esp], edx
	call	_purple_connection_get_account
LVL71:
	mov	edx, DWORD PTR [esp+32]
	mov	DWORD PTR [esp+8], edx
	mov	DWORD PTR [esp+4], edi
	mov	DWORD PTR [esp], eax
	call	_purple_buddy_new
LVL72:
	mov	edi, eax
LVL73:
	.loc 1 140 0 is_stmt 1 discriminator 3
	mov	eax, DWORD PTR [esp+44]
LVL74:
	mov	DWORD PTR [esp], eax
	call	_purple_find_group
LVL75:
	test	eax, eax
	je	L51
LVL76:
L28:
	.loc 1 145 0
	mov	DWORD PTR [esp+12], 0
	mov	DWORD PTR [esp+8], eax
	mov	DWORD PTR [esp+4], 0
	mov	DWORD PTR [esp], edi
	call	_purple_blist_add_buddy
LVL77:
	.loc 1 146 0
	mov	eax, DWORD PTR [esp+44]
	mov	DWORD PTR [esp], eax
	call	_g_free
LVL78:
	jmp	L46
LVL79:
L50:
	.loc 1 137 0
	mov	DWORD PTR [esp+32], 0
	jmp	L27
L49:
LBB5:
	.loc 1 131 0
	mov	eax, DWORD PTR [esp+44]
	mov	DWORD PTR [esp], eax
	call	_g_free
LVL80:
	.loc 1 132 0
	mov	ecx, DWORD PTR [esp+28]
	mov	eax, DWORD PTR [ecx]
	mov	DWORD PTR [esp], eax
	call	_g_strdup
LVL81:
	mov	DWORD PTR [esp+44], eax
LVL82:
	mov	ecx, DWORD PTR [esp+28]
	jmp	L26
LVL83:
L51:
LBE5:
	.loc 1 141 0
	mov	eax, DWORD PTR [esp+44]
LVL84:
	mov	DWORD PTR [esp], eax
	call	_purple_group_new
LVL85:
	.loc 1 142 0
	mov	DWORD PTR [esp+4], 0
	mov	DWORD PTR [esp], eax
	mov	DWORD PTR [esp+28], eax
	call	_purple_blist_add_group
LVL86:
	mov	eax, DWORD PTR [esp+28]
	jmp	L28
LVL87:
L48:
LBE6:
	.loc 1 153 0
	call	___stack_chk_fail
LVL88:
	.cfi_endproc
LFE94:
	.section .rdata,"dr"
LC12:
	.ascii "\0"
LC13:
	.ascii "%s;%s;%s;%s;%s;%s;%s;%s%s\15\12\0"
	.text
	.p2align 2,,3
	.globl	_ggp_buddylist_dump
	.def	_ggp_buddylist_dump;	.scl	2;	.type	32;	.endef
_ggp_buddylist_dump:
LFB95:
	.loc 1 159 0
	.cfi_startproc
LVL89:
	push	ebp
LCFI28:
	.cfi_def_cfa_offset 8
	.cfi_offset 5, -8
	push	edi
LCFI29:
	.cfi_def_cfa_offset 12
	.cfi_offset 7, -12
	push	esi
LCFI30:
	.cfi_def_cfa_offset 16
	.cfi_offset 6, -16
	push	ebx
LCFI31:
	.cfi_def_cfa_offset 20
	.cfi_offset 3, -20
	sub	esp, 92
LCFI32:
	.cfi_def_cfa_offset 112
	mov	ebx, DWORD PTR [esp+112]
	.loc 1 159 0
	mov	eax, DWORD PTR ___stack_chk_guard
	mov	DWORD PTR [esp+76], eax
	xor	eax, eax
	.loc 1 161 0
	mov	DWORD PTR [esp], 1024
	call	_g_string_sized_new
LVL90:
	mov	DWORD PTR [esp+60], eax
LVL91:
	.loc 1 164 0
	mov	DWORD PTR [esp+4], 0
	mov	DWORD PTR [esp], ebx
	call	_purple_find_buddies
LVL92:
	mov	ebx, eax
LVL93:
	test	eax, eax
	jne	L59
	jmp	L56
LVL94:
	.p2align 2,,3
L54:
LBB7:
	.loc 1 175 0
	mov	DWORD PTR [esp+40], OFFSET FLAT:LC12
	mov	DWORD PTR [esp+36], OFFSET FLAT:LC12
	mov	DWORD PTR [esp+32], ebp
	mov	DWORD PTR [esp+28], edi
	mov	DWORD PTR [esp+24], OFFSET FLAT:LC12
	mov	DWORD PTR [esp+20], eax
	mov	DWORD PTR [esp+16], eax
	mov	DWORD PTR [esp+12], eax
	mov	DWORD PTR [esp+8], eax
	mov	DWORD PTR [esp+4], OFFSET FLAT:LC13
	mov	eax, DWORD PTR [esp+60]
LVL95:
	mov	DWORD PTR [esp], eax
	call	_g_string_append_printf
LVL96:
LBE7:
	.loc 1 165 0
	mov	DWORD PTR [esp+4], ebx
	mov	DWORD PTR [esp], ebx
	call	_g_slist_delete_link
LVL97:
	mov	ebx, eax
LVL98:
	.loc 1 164 0
	test	eax, eax
	je	L56
LVL99:
L59:
LBB8:
	.loc 1 166 0
	mov	esi, DWORD PTR [ebx]
LVL100:
	.loc 1 167 0
	mov	DWORD PTR [esp], esi
	call	_purple_buddy_get_group
LVL101:
	mov	edi, eax
LVL102:
	.loc 1 168 0
	mov	DWORD PTR [esp], esi
	call	_purple_buddy_get_name
LVL103:
	mov	ebp, eax
LVL104:
	.loc 1 169 0
	mov	DWORD PTR [esp], edi
	call	_purple_group_get_name
LVL105:
	mov	edi, eax
LVL106:
	.loc 1 170 0
	mov	DWORD PTR [esp], esi
	call	_purple_buddy_get_alias
LVL107:
	.loc 1 172 0
	test	eax, eax
	jne	L54
	.loc 1 173 0
	mov	eax, ebp
LVL108:
	jmp	L54
LVL109:
	.p2align 2,,3
L56:
LBE8:
	.loc 1 181 0
	mov	DWORD PTR [esp+8], OFFSET FLAT:LC4
	mov	DWORD PTR [esp+4], OFFSET FLAT:LC3
	mov	edx, DWORD PTR [esp+60]
	mov	eax, DWORD PTR [edx]
LVL110:
	mov	DWORD PTR [esp], eax
	call	_charset_convert
LVL111:
	mov	ebx, eax
LVL112:
	.loc 1 182 0
	mov	DWORD PTR [esp+4], 1
	mov	eax, DWORD PTR [esp+60]
LVL113:
	mov	DWORD PTR [esp], eax
	call	_g_string_free
LVL114:
	.loc 1 184 0
	mov	eax, ebx
	mov	edx, DWORD PTR [esp+76]
	xor	edx, DWORD PTR ___stack_chk_guard
	jne	L63
	add	esp, 92
LCFI33:
	.cfi_remember_state
	.cfi_def_cfa_offset 20
	pop	ebx
LCFI34:
	.cfi_restore 3
	.cfi_def_cfa_offset 16
LVL115:
	pop	esi
LCFI35:
	.cfi_restore 6
	.cfi_def_cfa_offset 12
	pop	edi
LCFI36:
	.cfi_restore 7
	.cfi_def_cfa_offset 8
	pop	ebp
LCFI37:
	.cfi_restore 5
	.cfi_def_cfa_offset 4
	ret
L63:
LCFI38:
	.cfi_restore_state
	call	___stack_chk_fail
LVL116:
	.cfi_endproc
LFE95:
Letext0:
	.file 2 "c:/workspace/pidgin-devel/win32-dev/mingw-4.7.2/bin/../lib/gcc/mingw32/4.7.2/include/stddef.h"
	.file 3 "c:/workspace/pidgin-devel/win32-dev/mingw-4.7.2/bin/../lib/gcc/mingw32/4.7.2/../../../../include/sys/types.h"
	.file 4 "c:/workspace/pidgin-devel/win32-dev/mingw-4.7.2/bin/../lib/gcc/mingw32/4.7.2/../../../../include/stdio.h"
	.file 5 "c:/workspace/pidgin-devel/win32-dev/mingw-4.7.2/bin/../lib/gcc/mingw32/4.7.2/../../../../include/stdint.h"
	.file 6 "./lib/libgadu.h"
	.file 7 "c:/workspace/pidgin-devel/win32-dev/mingw-4.7.2/bin/../lib/gcc/mingw32/4.7.2/../../../../include/winsock2.h"
	.file 8 "c:/workspace/pidgin-devel/win32-dev/mingw-4.7.2/bin/../lib/gcc/mingw32/4.7.2/../../../../include/time.h"
	.file 9 "../../../../win32-dev/gtk_2_0-2.14/lib/glib-2.0/include/glibconfig.h"
	.file 10 "../../../../win32-dev/gtk_2_0-2.14/include/glib-2.0/glib/gtypes.h"
	.file 11 "../../../../win32-dev/gtk_2_0-2.14/include/glib-2.0/glib/glist.h"
	.file 12 "../../../../win32-dev/gtk_2_0-2.14/include/glib-2.0/glib/ghash.h"
	.file 13 "../../../../win32-dev/gtk_2_0-2.14/include/glib-2.0/glib/gslist.h"
	.file 14 "../../../../win32-dev/gtk_2_0-2.14/include/glib-2.0/glib/gstring.h"
	.file 15 "../../../libpurple/account.h"
	.file 16 "../../../libpurple/connection.h"
	.file 17 "../../../libpurple/plugin.h"
	.file 18 "../../../libpurple/pluginpref.h"
	.file 19 "../../../libpurple/status.h"
	.file 20 "../../../libpurple/blist.h"
	.file 21 "../../../libpurple/buddyicon.h"
	.file 22 "../../../libpurple/conversation.h"
	.file 23 "../../../libpurple/log.h"
	.file 24 "../../../libpurple/media/enum-types.h"
	.file 25 "../../../libpurple/proxy.h"
	.file 26 "../../../libpurple/privacy.h"
	.file 27 "../../../libpurple/dnsquery.h"
	.file 28 "search.h"
	.file 29 "gg.h"
	.file 30 "c:/workspace/pidgin-devel/win32-dev/mingw-4.7.2/bin/../lib/gcc/mingw32/4.7.2/../../../../include/ctype.h"
	.file 31 "gg-utils.h"
	.file 32 "../../../../win32-dev/gtk_2_0-2.14/include/glib-2.0/glib/gmem.h"
	.file 33 "../../../libpurple/debug.h"
	.file 34 "../../../../win32-dev/gtk_2_0-2.14/include/glib-2.0/glib/gstrfuncs.h"
	.file 35 "c:/workspace/pidgin-devel/win32-dev/mingw-4.7.2/bin/../lib/gcc/mingw32/4.7.2/../../../../include/stdlib.h"