	.file	"caps.c"
	.intel_syntax noprefix
	.text
Ltext0:
	.section .rdata,"dr"
	.align 4
LC0:
	.ascii "Lost a reference to caps cbdata: %d\12\0"
LC1:
	.ascii "jabber\0"
	.text
	.p2align 2,,3
	.def	_jabber_caps_get_info_complete;	.scl	3;	.type	32;	.endef
_jabber_caps_get_info_complete:
LFB110:
	.file 1 "caps.c"
	.loc 1 423 0
	.cfi_startproc
LVL0:
	sub	esp, 60
LCFI0:
	.cfi_def_cfa_offset 64
	.loc 1 423 0
	mov	edx, DWORD PTR ___stack_chk_guard
	mov	DWORD PTR [esp+44], edx
	xor	edx, edx
	.loc 1 424 0
	mov	edx, DWORD PTR [eax+4]
	test	edx, edx
	je	L2
	.loc 1 425 0
	mov	ecx, DWORD PTR [eax+8]
	mov	DWORD PTR [esp+8], ecx
	mov	ecx, DWORD PTR [eax+32]
	mov	DWORD PTR [esp+4], ecx
	mov	ecx, DWORD PTR [eax+28]
	mov	DWORD PTR [esp], ecx
	mov	DWORD PTR [esp+28], eax
	call	edx
LVL1:
	.loc 1 426 0
	mov	eax, DWORD PTR [esp+28]
	mov	DWORD PTR [eax+28], 0
	.loc 1 427 0
	mov	DWORD PTR [eax+32], 0
L2:
	.loc 1 430 0
	mov	eax, DWORD PTR [eax]
	cmp	eax, 1
	je	L1
	.loc 1 431 0
	mov	DWORD PTR [esp+8], eax
	mov	DWORD PTR [esp+4], OFFSET FLAT:LC0
	mov	DWORD PTR [esp], OFFSET FLAT:LC1
	call	_purple_debug_warning
LVL2:
L1:
	.loc 1 433 0
	mov	eax, DWORD PTR [esp+44]
	xor	eax, DWORD PTR ___stack_chk_guard
	jne	L13
	add	esp, 60
LCFI1:
	.cfi_remember_state
	.cfi_def_cfa_offset 4
	ret
L13:
LCFI2:
	.cfi_restore_state
	call	___stack_chk_fail
LVL3:
	.cfi_endproc
LFE110:
	.p2align 2,,3
	.def	_jabber_caps_xdata_field_compare;	.scl	3;	.type	32;	.endef
_jabber_caps_xdata_field_compare:
LFB116:
	.loc 1 775 0
	.cfi_startproc
LVL4:
	sub	esp, 28
LCFI3:
	.cfi_def_cfa_offset 32
	mov	eax, DWORD PTR [esp+32]
	mov	edx, DWORD PTR [esp+36]
	.loc 1 775 0
	mov	ecx, DWORD PTR ___stack_chk_guard
	mov	DWORD PTR [esp+12], ecx
	xor	ecx, ecx
LVL5:
	.loc 1 779 0
	mov	ecx, DWORD PTR [esp+12]
	xor	ecx, DWORD PTR ___stack_chk_guard
	jne	L18
	mov	edx, DWORD PTR [edx]
LVL6:
	mov	DWORD PTR [esp+36], edx
	mov	eax, DWORD PTR [eax]
LVL7:
	mov	DWORD PTR [esp+32], eax
	.loc 1 780 0
	add	esp, 28
LCFI4:
	.cfi_remember_state
	.cfi_def_cfa_offset 4
	.loc 1 779 0
	jmp	_strcmp
LVL8:
L18:
LCFI5:
	.cfi_restore_state
	call	___stack_chk_fail
LVL9:
	.cfi_endproc
LFE116:
	.section .rdata,"dr"
LC2:
	.ascii "<\0"
	.text
	.p2align 2,,3
	.def	_append_escaped_string;	.scl	3;	.type	32;	.endef
_append_escaped_string:
LFB118:
	.loc 1 810 0
	.cfi_startproc
LVL10:
	push	edi
LCFI6:
	.cfi_def_cfa_offset 8
	.cfi_offset 7, -8
	push	esi
LCFI7:
	.cfi_def_cfa_offset 12
	.cfi_offset 6, -12
	push	ebx
LCFI8:
	.cfi_def_cfa_offset 16
	.cfi_offset 3, -16
	sub	esp, 32
LCFI9:
	.cfi_def_cfa_offset 48
	mov	ebx, eax
	.loc 1 810 0
	mov	eax, DWORD PTR ___stack_chk_guard
	mov	DWORD PTR [esp+28], eax
	xor	eax, eax
LVL11:
	.loc 1 811 0
	test	edx, edx
	je	L20
	.loc 1 811 0 is_stmt 0 discriminator 1
	cmp	BYTE PTR [edx], 0
	je	L20
LBB6:
	.loc 1 812 0 is_stmt 1
	mov	DWORD PTR [esp+4], -1
	mov	DWORD PTR [esp], edx
	call	_g_markup_escape_text
LVL12:
	mov	esi, eax
LVL13:
	.loc 1 813 0
	xor	eax, eax
LVL14:
	mov	ecx, -1
	mov	edi, esi
	repne scasb
LVL15:
	not	ecx
	dec	ecx
	mov	DWORD PTR [esp+8], ecx
	mov	DWORD PTR [esp+4], esi
	mov	DWORD PTR [esp], ebx
	call	_purple_cipher_context_append
LVL16:
	.loc 1 814 0
	mov	DWORD PTR [esp], esi
	call	_g_free
LVL17:
L20:
LBE6:
	.loc 1 817 0
	mov	DWORD PTR [esp+8], 1
	mov	DWORD PTR [esp+4], OFFSET FLAT:LC2
	mov	DWORD PTR [esp], ebx
	call	_purple_cipher_context_append
LVL18:
	.loc 1 818 0
	mov	eax, DWORD PTR [esp+28]
	xor	eax, DWORD PTR ___stack_chk_guard
	jne	L26
	add	esp, 32
LCFI10:
	.cfi_remember_state
	.cfi_def_cfa_offset 16
	pop	ebx
LCFI11:
	.cfi_restore 3
	.cfi_def_cfa_offset 12
LVL19:
	pop	esi
LCFI12:
	.cfi_restore 6
	.cfi_def_cfa_offset 8
	pop	edi
LCFI13:
	.cfi_restore 7
	.cfi_def_cfa_offset 4
	ret
LVL20:
L26:
LCFI14:
	.cfi_restore_state
	call	___stack_chk_fail
LVL21:
	.cfi_endproc
LFE118:
	.p2align 2,,3
	.def	_jabber_xdata_compare;	.scl	3;	.type	32;	.endef
_jabber_xdata_compare:
LFB114:
	.loc 1 710 0
	.cfi_startproc
LVL22:
	push	esi
LCFI15:
	.cfi_def_cfa_offset 8
	.cfi_offset 6, -8
	push	ebx
LCFI16:
	.cfi_def_cfa_offset 12
	.cfi_offset 3, -12
	sub	esp, 52
LCFI17:
	.cfi_def_cfa_offset 64
	mov	esi, DWORD PTR [esp+68]
	.loc 1 710 0
	mov	eax, DWORD PTR ___stack_chk_guard
	mov	DWORD PTR [esp+44], eax
	xor	eax, eax
LVL23:
	.loc 1 717 0
	mov	eax, DWORD PTR [esp+64]
	mov	DWORD PTR [esp], eax
	call	_jabber_x_data_get_formtype
LVL24:
	mov	ebx, eax
LVL25:
	.loc 1 718 0
	mov	DWORD PTR [esp], esi
	call	_jabber_x_data_get_formtype
LVL26:
	mov	esi, eax
LVL27:
	.loc 1 720 0
	mov	DWORD PTR [esp+4], eax
	mov	DWORD PTR [esp], ebx
	call	_strcmp
LVL28:
	.loc 1 721 0
	mov	DWORD PTR [esp], ebx
	mov	DWORD PTR [esp+28], eax
	call	_g_free
LVL29:
	.loc 1 722 0
	mov	DWORD PTR [esp], esi
	call	_g_free
LVL30:
	.loc 1 724 0
	mov	eax, DWORD PTR [esp+28]
	mov	edx, DWORD PTR [esp+44]
	xor	edx, DWORD PTR ___stack_chk_guard
	jne	L30
	add	esp, 52
LCFI18:
	.cfi_remember_state
	.cfi_def_cfa_offset 12
	pop	ebx
LCFI19:
	.cfi_restore 3
	.cfi_def_cfa_offset 8
LVL31:
	pop	esi
LCFI20:
	.cfi_restore 6
	.cfi_def_cfa_offset 4
LVL32:
	ret
LVL33:
L30:
LCFI21:
	.cfi_restore_state
	call	___stack_chk_fail
LVL34:
	.cfi_endproc
LFE114:
	.p2align 2,,3
	.def	_free_string_glist;	.scl	3;	.type	32;	.endef
_free_string_glist:
LFB93:
	.loc 1 48 0
	.cfi_startproc
LVL35:
	push	ebx
LCFI22:
	.cfi_def_cfa_offset 8
	.cfi_offset 3, -8
	sub	esp, 40
LCFI23:
	.cfi_def_cfa_offset 48
	mov	ebx, DWORD PTR [esp+48]
	.loc 1 48 0
	mov	eax, DWORD PTR ___stack_chk_guard
	mov	DWORD PTR [esp+28], eax
	xor	eax, eax
LVL36:
	.loc 1 49 0
	test	ebx, ebx
	je	L31
	.p2align 2,,3
L36:
	.loc 1 50 0
	mov	eax, DWORD PTR [ebx]
	mov	DWORD PTR [esp], eax
	call	_g_free
LVL37:
	.loc 1 51 0
	mov	DWORD PTR [esp+4], ebx
	mov	DWORD PTR [esp], ebx
	call	_g_list_delete_link
LVL38:
	mov	ebx, eax
LVL39:
	.loc 1 49 0
	test	eax, eax
	jne	L36
LVL40:
L31:
	.loc 1 53 0
	mov	eax, DWORD PTR [esp+28]
	xor	eax, DWORD PTR ___stack_chk_guard
	jne	L39
	add	esp, 40
LCFI24:
	.cfi_remember_state
	.cfi_def_cfa_offset 8
	pop	ebx
LCFI25:
	.cfi_restore 3
	.cfi_def_cfa_offset 4
LVL41:
	ret
LVL42:
L39:
LCFI26:
	.cfi_restore_state
	call	___stack_chk_fail
LVL43:
	.cfi_endproc
LFE93:
	.p2align 2,,3
	.def	_jabber_caps_hash;	.scl	3;	.type	32;	.endef
_jabber_caps_hash:
LFB96:
	.loc 1 79 0
	.cfi_startproc
LVL44:
	push	edi
LCFI27:
	.cfi_def_cfa_offset 8
	.cfi_offset 7, -8
	push	esi
LCFI28:
	.cfi_def_cfa_offset 12
	.cfi_offset 6, -12
	push	ebx
LCFI29:
	.cfi_def_cfa_offset 16
	.cfi_offset 3, -16
	sub	esp, 32
LCFI30:
	.cfi_def_cfa_offset 48
	mov	ebx, DWORD PTR [esp+48]
	.loc 1 79 0
	mov	eax, DWORD PTR ___stack_chk_guard
	mov	DWORD PTR [esp+28], eax
	xor	eax, eax
LVL45:
	.loc 1 81 0
	mov	eax, DWORD PTR [ebx]
	mov	DWORD PTR [esp], eax
	call	_g_str_hash
LVL46:
	mov	esi, eax
LVL47:
	.loc 1 82 0
	mov	eax, DWORD PTR [ebx+4]
LVL48:
	mov	DWORD PTR [esp], eax
	call	_g_str_hash
LVL49:
	mov	edi, eax
LVL50:
	.loc 1 88 0
	mov	edx, DWORD PTR [ebx+8]
	test	edx, edx
	je	L43
	.loc 1 88 0 is_stmt 0 discriminator 1
	mov	DWORD PTR [esp], edx
	call	_g_str_hash
LVL51:
	mov	edx, eax
L41:
LVL52:
	.loc 1 89 0 is_stmt 1 discriminator 3
	mov	eax, edi
	xor	eax, esi
	xor	eax, edx
	.loc 1 90 0 discriminator 3
	mov	edx, DWORD PTR [esp+28]
	xor	edx, DWORD PTR ___stack_chk_guard
LVL53:
	jne	L45
	.loc 1 90 0 is_stmt 0
	add	esp, 32
LCFI31:
	.cfi_remember_state
	.cfi_def_cfa_offset 16
	pop	ebx
LCFI32:
	.cfi_restore 3
	.cfi_def_cfa_offset 12
LVL54:
	pop	esi
LCFI33:
	.cfi_restore 6
	.cfi_def_cfa_offset 8
LVL55:
	pop	edi
LCFI34:
	.cfi_restore 7
	.cfi_def_cfa_offset 4
LVL56:
	ret
LVL57:
	.p2align 2,,3
L43:
LCFI35:
	.cfi_restore_state
	.loc 1 88 0 is_stmt 1
	xor	edx, edx
	jmp	L41
LVL58:
L45:
	.loc 1 90 0
	call	___stack_chk_fail
LVL59:
	.cfi_endproc
LFE96:
	.section .rdata,"dr"
LC3:
	.ascii "capabilities\0"
LC4:
	.ascii "xmpp-caps.xml\0"
	.text
	.p2align 2,,3
	.def	_do_jabber_caps_store;	.scl	3;	.type	32;	.endef
_do_jabber_caps_store:
LFB102:
	.loc 1 206 0
	.cfi_startproc
LVL60:
	push	esi
LCFI36:
	.cfi_def_cfa_offset 8
	.cfi_offset 6, -8
	push	ebx
LCFI37:
	.cfi_def_cfa_offset 12
	.cfi_offset 3, -12
	sub	esp, 36
LCFI38:
	.cfi_def_cfa_offset 48
	.loc 1 206 0
	mov	eax, DWORD PTR ___stack_chk_guard
	mov	DWORD PTR [esp+28], eax
	xor	eax, eax
	.loc 1 208 0
	mov	DWORD PTR [esp+24], 0
LVL61:
	.loc 1 209 0
	mov	DWORD PTR [esp], OFFSET FLAT:LC3
	call	_xmlnode_new
LVL62:
	mov	ebx, eax
LVL63:
	.loc 1 210 0
	mov	DWORD PTR [esp+8], eax
	mov	DWORD PTR [esp+4], OFFSET FLAT:_jabber_caps_store_client
	mov	eax, DWORD PTR _capstable
LVL64:
	mov	DWORD PTR [esp], eax
	call	_g_hash_table_foreach
LVL65:
	.loc 1 211 0
	lea	eax, [esp+24]
	mov	DWORD PTR [esp+4], eax
	mov	DWORD PTR [esp], ebx
	call	_xmlnode_to_formatted_str
LVL66:
	mov	esi, eax
LVL67:
	.loc 1 212 0
	mov	DWORD PTR [esp], ebx
	call	_xmlnode_free
LVL68:
	.loc 1 213 0
	mov	eax, DWORD PTR [esp+24]
	mov	DWORD PTR [esp+8], eax
	mov	DWORD PTR [esp+4], esi
	mov	DWORD PTR [esp], OFFSET FLAT:LC4
	call	_purple_util_write_data_to_file
LVL69:
	.loc 1 214 0
	mov	DWORD PTR [esp], esi
	call	_g_free
LVL70:
	.loc 1 216 0
	mov	DWORD PTR _save_timer, 0
	.loc 1 218 0
	xor	eax, eax
	mov	edx, DWORD PTR [esp+28]
	xor	edx, DWORD PTR ___stack_chk_guard
	jne	L49
	add	esp, 36
LCFI39:
	.cfi_remember_state
	.cfi_def_cfa_offset 12
	pop	ebx
LCFI40:
	.cfi_restore 3
	.cfi_def_cfa_offset 8
LVL71:
	pop	esi
LCFI41:
	.cfi_restore 6
	.cfi_def_cfa_offset 4
LVL72:
	ret
LVL73:
L49:
LCFI42:
	.cfi_restore_state
	call	___stack_chk_fail
LVL74:
	.cfi_endproc
LFE102:
	.section .rdata,"dr"
LC5:
	.ascii "ext\0"
LC6:
	.ascii "identifier\0"
LC7:
	.ascii "feature\0"
LC8:
	.ascii "var\0"
	.text
	.p2align 2,,3
	.def	_exts_to_xmlnode;	.scl	3;	.type	32;	.endef
_exts_to_xmlnode:
LFB100:
	.loc 1 151 0
	.cfi_startproc
LVL75:
	push	edi
LCFI43:
	.cfi_def_cfa_offset 8
	.cfi_offset 7, -8
	push	esi
LCFI44:
	.cfi_def_cfa_offset 12
	.cfi_offset 6, -12
	push	ebx
LCFI45:
	.cfi_def_cfa_offset 16
	.cfi_offset 3, -16
	sub	esp, 32
LCFI46:
	.cfi_def_cfa_offset 48
	mov	edi, DWORD PTR [esp+48]
	mov	ebx, DWORD PTR [esp+52]
	.loc 1 151 0
	mov	eax, DWORD PTR ___stack_chk_guard
	mov	DWORD PTR [esp+28], eax
	xor	eax, eax
LVL76:
	.loc 1 156 0
	mov	DWORD PTR [esp+4], OFFSET FLAT:LC5
	mov	eax, DWORD PTR [esp+56]
	mov	DWORD PTR [esp], eax
	call	_xmlnode_new_child
LVL77:
	mov	esi, eax
LVL78:
	.loc 1 157 0
	mov	DWORD PTR [esp+8], edi
	mov	DWORD PTR [esp+4], OFFSET FLAT:LC6
	mov	DWORD PTR [esp], eax
	call	_xmlnode_set_attrib
LVL79:
	.loc 1 159 0
	test	ebx, ebx
	je	L50
LVL80:
	.p2align 2,,3
L55:
	.loc 1 160 0 discriminator 2
	mov	DWORD PTR [esp+4], OFFSET FLAT:LC7
	mov	DWORD PTR [esp], esi
	call	_xmlnode_new_child
LVL81:
	.loc 1 161 0 discriminator 2
	mov	ecx, DWORD PTR [ebx]
	mov	DWORD PTR [esp+8], ecx
	mov	DWORD PTR [esp+4], OFFSET FLAT:LC8
	mov	DWORD PTR [esp], eax
	call	_xmlnode_set_attrib
LVL82:
	.loc 1 159 0 discriminator 2
	mov	ebx, DWORD PTR [ebx+4]
LVL83:
	test	ebx, ebx
	jne	L55
L50:
	.loc 1 163 0
	mov	eax, DWORD PTR [esp+28]
	xor	eax, DWORD PTR ___stack_chk_guard
	jne	L58
	add	esp, 32
LCFI47:
	.cfi_remember_state
	.cfi_def_cfa_offset 16
	pop	ebx
LCFI48:
	.cfi_restore 3
	.cfi_def_cfa_offset 12
LVL84:
	pop	esi
LCFI49:
	.cfi_restore 6
	.cfi_def_cfa_offset 8
LVL85:
	pop	edi
LCFI50:
	.cfi_restore 7
	.cfi_def_cfa_offset 4
LVL86:
	ret
LVL87:
L58:
LCFI51:
	.cfi_restore_state
	call	___stack_chk_fail
LVL88:
	.cfi_endproc
LFE100:
	.section .rdata,"dr"
LC9:
	.ascii "client\0"
LC10:
	.ascii "node\0"
LC11:
	.ascii "ver\0"
LC12:
	.ascii "hash\0"
LC13:
	.ascii "identity\0"
LC14:
	.ascii "category\0"
LC15:
	.ascii "type\0"
LC16:
	.ascii "name\0"
LC17:
	.ascii "lang\0"
	.text
	.p2align 2,,3
	.def	_jabber_caps_store_client;	.scl	3;	.type	32;	.endef
_jabber_caps_store_client:
LFB101:
	.loc 1 165 0
	.cfi_startproc
LVL89:
	push	ebp
LCFI52:
	.cfi_def_cfa_offset 8
	.cfi_offset 5, -8
	push	edi
LCFI53:
	.cfi_def_cfa_offset 12
	.cfi_offset 7, -12
	push	esi
LCFI54:
	.cfi_def_cfa_offset 16
	.cfi_offset 6, -16
	push	ebx
LCFI55:
	.cfi_def_cfa_offset 20
	.cfi_offset 3, -20
	sub	esp, 60
LCFI56:
	.cfi_def_cfa_offset 80
	mov	ebx, DWORD PTR [esp+80]
	mov	edx, DWORD PTR [esp+84]
	mov	DWORD PTR [esp+28], edx
	.loc 1 165 0
	mov	eax, DWORD PTR ___stack_chk_guard
	mov	DWORD PTR [esp+44], eax
	xor	eax, eax
LVL90:
	.loc 1 169 0
	mov	DWORD PTR [esp+4], OFFSET FLAT:LC9
	mov	eax, DWORD PTR [esp+88]
	mov	DWORD PTR [esp], eax
	call	_xmlnode_new_child
LVL91:
	mov	edi, eax
LVL92:
	.loc 1 172 0
	mov	eax, DWORD PTR [ebx]
LVL93:
	mov	DWORD PTR [esp+8], eax
	mov	DWORD PTR [esp+4], OFFSET FLAT:LC10
	mov	DWORD PTR [esp], edi
	call	_xmlnode_set_attrib
LVL94:
	.loc 1 173 0
	mov	eax, DWORD PTR [ebx+4]
	mov	DWORD PTR [esp+8], eax
	mov	DWORD PTR [esp+4], OFFSET FLAT:LC11
	mov	DWORD PTR [esp], edi
	call	_xmlnode_set_attrib
LVL95:
	.loc 1 174 0
	mov	eax, DWORD PTR [ebx+8]
	test	eax, eax
	je	L60
	.loc 1 175 0
	mov	DWORD PTR [esp+8], eax
	mov	DWORD PTR [esp+4], OFFSET FLAT:LC12
	mov	DWORD PTR [esp], edi
	call	_xmlnode_set_attrib
LVL96:
L60:
	.loc 1 176 0
	mov	edx, DWORD PTR [esp+28]
	mov	esi, DWORD PTR [edx]
LVL97:
	test	esi, esi
	je	L67
LVL98:
	.p2align 2,,3
L84:
LBB7:
	.loc 1 177 0
	mov	ebx, DWORD PTR [esi]
LVL99:
	.loc 1 178 0
	mov	DWORD PTR [esp+4], OFFSET FLAT:LC13
	mov	DWORD PTR [esp], edi
	call	_xmlnode_new_child
LVL100:
	mov	ebp, eax
LVL101:
	.loc 1 179 0
	mov	edx, DWORD PTR [ebx]
	mov	DWORD PTR [esp+8], edx
	mov	DWORD PTR [esp+4], OFFSET FLAT:LC14
	mov	DWORD PTR [esp], eax
	call	_xmlnode_set_attrib
LVL102:
	.loc 1 180 0
	mov	edx, DWORD PTR [ebx+4]
	mov	DWORD PTR [esp+8], edx
	mov	DWORD PTR [esp+4], OFFSET FLAT:LC15
	mov	DWORD PTR [esp], ebp
	call	_xmlnode_set_attrib
LVL103:
	.loc 1 181 0
	mov	edx, DWORD PTR [ebx+8]
	test	edx, edx
	je	L64
	.loc 1 182 0
	mov	DWORD PTR [esp+8], edx
	mov	DWORD PTR [esp+4], OFFSET FLAT:LC16
	mov	DWORD PTR [esp], ebp
	call	_xmlnode_set_attrib
LVL104:
L64:
	.loc 1 183 0
	mov	edx, DWORD PTR [ebx+12]
	test	edx, edx
	je	L65
	.loc 1 184 0
	mov	DWORD PTR [esp+8], edx
	mov	DWORD PTR [esp+4], OFFSET FLAT:LC17
	mov	DWORD PTR [esp], ebp
	call	_xmlnode_set_attrib
LVL105:
L65:
LBE7:
	.loc 1 176 0
	mov	esi, DWORD PTR [esi+4]
LVL106:
	test	esi, esi
	jne	L84
LVL107:
L67:
	.loc 1 187 0
	mov	edx, DWORD PTR [esp+28]
	mov	ebx, DWORD PTR [edx+4]
LVL108:
	test	ebx, ebx
	je	L63
	.p2align 2,,3
L83:
LBB8:
	.loc 1 188 0 discriminator 2
	mov	esi, DWORD PTR [ebx]
LVL109:
	.loc 1 189 0 discriminator 2
	mov	DWORD PTR [esp+4], OFFSET FLAT:LC7
	mov	DWORD PTR [esp], edi
	call	_xmlnode_new_child
LVL110:
	.loc 1 190 0 discriminator 2
	mov	DWORD PTR [esp+8], esi
	mov	DWORD PTR [esp+4], OFFSET FLAT:LC8
	mov	DWORD PTR [esp], eax
	call	_xmlnode_set_attrib
LVL111:
LBE8:
	.loc 1 187 0 discriminator 2
	mov	ebx, DWORD PTR [ebx+4]
LVL112:
	test	ebx, ebx
	jne	L83
LVL113:
L63:
	.loc 1 193 0
	mov	edx, DWORD PTR [esp+28]
	mov	ebx, DWORD PTR [edx+8]
LVL114:
	test	ebx, ebx
	je	L69
	.p2align 2,,3
L82:
LVL115:
LBB9:
	.loc 1 196 0 discriminator 2
	mov	eax, DWORD PTR [ebx]
	mov	DWORD PTR [esp], eax
	call	_xmlnode_copy
LVL116:
	mov	DWORD PTR [esp+4], eax
	mov	DWORD PTR [esp], edi
	call	_xmlnode_insert_child
LVL117:
LBE9:
	.loc 1 193 0 discriminator 2
	mov	ebx, DWORD PTR [ebx+4]
LVL118:
	test	ebx, ebx
	jne	L82
L69:
	.loc 1 200 0
	mov	edx, DWORD PTR [esp+28]
	mov	eax, DWORD PTR [edx+12]
	test	eax, eax
	je	L94
	.loc 1 201 0
	mov	edx, DWORD PTR [esp+44]
	xor	edx, DWORD PTR ___stack_chk_guard
	jne	L93
	mov	DWORD PTR [esp+88], edi
	mov	DWORD PTR [esp+84], OFFSET FLAT:_exts_to_xmlnode
	mov	eax, DWORD PTR [eax+4]
	mov	DWORD PTR [esp+80], eax
	.loc 1 202 0
	add	esp, 60
LCFI57:
	.cfi_remember_state
	.cfi_def_cfa_offset 20
	pop	ebx
LCFI58:
	.cfi_restore 3
	.cfi_def_cfa_offset 16
LVL119:
	pop	esi
LCFI59:
	.cfi_restore 6
	.cfi_def_cfa_offset 12
	pop	edi
LCFI60:
	.cfi_restore 7
	.cfi_def_cfa_offset 8
LVL120:
	pop	ebp
LCFI61:
	.cfi_restore 5
	.cfi_def_cfa_offset 4
	.loc 1 201 0
	jmp	_g_hash_table_foreach
LVL121:
	.p2align 2,,3
L94:
LCFI62:
	.cfi_restore_state
	.loc 1 202 0
	mov	eax, DWORD PTR [esp+44]
	xor	eax, DWORD PTR ___stack_chk_guard
	jne	L93
	add	esp, 60
LCFI63:
	.cfi_remember_state
	.cfi_def_cfa_offset 20
	pop	ebx
LCFI64:
	.cfi_restore 3
	.cfi_def_cfa_offset 16
LVL122:
	pop	esi
LCFI65:
	.cfi_restore 6
	.cfi_def_cfa_offset 12
	pop	edi
LCFI66:
	.cfi_restore 7
	.cfi_def_cfa_offset 8
LVL123:
	pop	ebp
LCFI67:
	.cfi_restore 5
	.cfi_def_cfa_offset 4
	ret
LVL124:
L93:
LCFI68:
	.cfi_restore_state
	call	___stack_chk_fail
LVL125:
	.cfi_endproc
LFE101:
	.p2align 2,,3
	.def	_jabber_caps_compare;	.scl	3;	.type	32;	.endef
_jabber_caps_compare:
LFB97:
	.loc 1 92 0
	.cfi_startproc
LVL126:
	push	esi
LCFI69:
	.cfi_def_cfa_offset 8
	.cfi_offset 6, -8
	push	ebx
LCFI70:
	.cfi_def_cfa_offset 12
	.cfi_offset 3, -12
	sub	esp, 36
LCFI71:
	.cfi_def_cfa_offset 48
	mov	ebx, DWORD PTR [esp+48]
	mov	esi, DWORD PTR [esp+52]
	.loc 1 92 0
	mov	eax, DWORD PTR ___stack_chk_guard
	mov	DWORD PTR [esp+28], eax
	xor	eax, eax
LVL127:
	.loc 1 96 0
	mov	eax, DWORD PTR [esi]
	mov	DWORD PTR [esp+4], eax
	mov	eax, DWORD PTR [ebx]
	mov	DWORD PTR [esp], eax
	call	_g_str_equal
LVL128:
	.loc 1 97 0
	test	eax, eax
	jne	L96
L98:
	xor	eax, eax
L97:
	.loc 1 99 0
	mov	edx, DWORD PTR [esp+28]
	xor	edx, DWORD PTR ___stack_chk_guard
	jne	L104
	add	esp, 36
LCFI72:
	.cfi_remember_state
	.cfi_def_cfa_offset 12
	pop	ebx
LCFI73:
	.cfi_restore 3
	.cfi_def_cfa_offset 8
LVL129:
	pop	esi
LCFI74:
	.cfi_restore 6
	.cfi_def_cfa_offset 4
LVL130:
	ret
LVL131:
	.p2align 2,,3
L96:
LCFI75:
	.cfi_restore_state
	.loc 1 97 0 discriminator 1
	mov	eax, DWORD PTR [esi+4]
	mov	DWORD PTR [esp+4], eax
	mov	eax, DWORD PTR [ebx+4]
	mov	DWORD PTR [esp], eax
	call	_g_str_equal
LVL132:
	.loc 1 96 0 discriminator 1
	test	eax, eax
	je	L98
LVL133:
LBB12:
LBB13:
	.loc 1 98 0
	mov	eax, DWORD PTR [esi+8]
	mov	DWORD PTR [esp+4], eax
	mov	eax, DWORD PTR [ebx+8]
	mov	DWORD PTR [esp], eax
	call	_purple_strequal
LVL134:
	.loc 1 97 0
	test	eax, eax
	setne	al
	movzx	eax, al
	jmp	L97
LVL135:
L104:
LBE13:
LBE12:
	.loc 1 99 0
	call	___stack_chk_fail
LVL136:
	.cfi_endproc
LFE97:
	.section .rdata,"dr"
LC18:
	.ascii "data != NULL\0"
	.text
	.p2align 2,,3
	.def	_cbplususerdata_ref;	.scl	3;	.type	32;	.endef
_cbplususerdata_ref:
LFB108:
	.loc 1 390 0
	.cfi_startproc
LVL137:
	sub	esp, 60
LCFI76:
	.cfi_def_cfa_offset 64
	.loc 1 390 0
	mov	edx, DWORD PTR ___stack_chk_guard
	mov	DWORD PTR [esp+44], edx
	xor	edx, edx
LBB18:
	.loc 1 391 0
	test	eax, eax
	je	L113
LVL138:
LBE18:
	.loc 1 393 0
	inc	DWORD PTR [eax]
LVL139:
L108:
	.loc 1 395 0
	mov	edx, DWORD PTR [esp+44]
	xor	edx, DWORD PTR ___stack_chk_guard
	jne	L114
	add	esp, 60
LCFI77:
	.cfi_remember_state
	.cfi_def_cfa_offset 4
	ret
LVL140:
	.p2align 2,,3
L113:
LCFI78:
	.cfi_restore_state
LBB19:
LBB20:
	.loc 1 391 0
	mov	DWORD PTR [esp+8], OFFSET FLAT:LC18
	mov	DWORD PTR [esp+4], OFFSET FLAT:___PRETTY_FUNCTION__.49848
	mov	DWORD PTR [esp], 0
	mov	DWORD PTR [esp+28], eax
	call	_g_return_if_fail_warning
LVL141:
	mov	eax, DWORD PTR [esp+28]
	jmp	L108
LVL142:
L114:
LBE20:
LBE19:
	.loc 1 395 0
	call	___stack_chk_fail
LVL143:
	.cfi_endproc
LFE108:
	.section .rdata,"dr"
LC19:
	.ascii "exts->ref != 0\0"
	.text
	.p2align 2,,3
	.def	_jabber_caps_node_exts_unref;	.scl	3;	.type	32;	.endef
_jabber_caps_node_exts_unref:
LFB95:
	.loc 1 66 0
	.cfi_startproc
LVL144:
	push	ebx
LCFI79:
	.cfi_def_cfa_offset 8
	.cfi_offset 3, -8
	sub	esp, 40
LCFI80:
	.cfi_def_cfa_offset 48
	mov	ebx, DWORD PTR [esp+48]
	.loc 1 66 0
	mov	eax, DWORD PTR ___stack_chk_guard
	mov	DWORD PTR [esp+28], eax
	xor	eax, eax
	.loc 1 67 0
	test	ebx, ebx
	je	L115
LBB25:
	.loc 1 70 0
	mov	eax, DWORD PTR [ebx]
	test	eax, eax
	je	L128
LVL145:
LBE25:
	.loc 1 72 0
	dec	eax
	mov	DWORD PTR [ebx], eax
	test	eax, eax
	je	L129
LVL146:
L115:
	.loc 1 77 0
	mov	eax, DWORD PTR [esp+28]
	xor	eax, DWORD PTR ___stack_chk_guard
	jne	L127
	add	esp, 40
LCFI81:
	.cfi_remember_state
	.cfi_def_cfa_offset 8
	pop	ebx
LCFI82:
	.cfi_restore 3
	.cfi_def_cfa_offset 4
	ret
	.p2align 2,,3
L128:
LCFI83:
	.cfi_restore_state
LVL147:
LBB26:
LBB27:
	.loc 1 70 0
	mov	DWORD PTR [esp+8], OFFSET FLAT:LC19
	mov	DWORD PTR [esp+4], OFFSET FLAT:___PRETTY_FUNCTION__.49706
	mov	DWORD PTR [esp], 0
	call	_g_return_if_fail_warning
LVL148:
	jmp	L115
LVL149:
	.p2align 2,,3
L129:
LBE27:
LBE26:
	.loc 1 75 0
	mov	eax, DWORD PTR [ebx+4]
	mov	DWORD PTR [esp], eax
	call	_g_hash_table_destroy
LVL150:
	.loc 1 76 0
	mov	eax, DWORD PTR [esp+28]
	xor	eax, DWORD PTR ___stack_chk_guard
	jne	L127
	mov	DWORD PTR [esp+48], ebx
	.loc 1 77 0
	add	esp, 40
LCFI84:
	.cfi_remember_state
	.cfi_def_cfa_offset 8
	pop	ebx
LCFI85:
	.cfi_restore 3
	.cfi_def_cfa_offset 4
	.loc 1 76 0
	jmp	_g_free
LVL151:
L127:
LCFI86:
	.cfi_restore_state
	.loc 1 77 0
	call	___stack_chk_fail
LVL152:
	.cfi_endproc
LFE95:
	.p2align 2,,3
	.def	_jabber_caps_client_info_destroy;	.scl	3;	.type	32;	.endef
_jabber_caps_client_info_destroy:
LFB98:
	.loc 1 103 0
	.cfi_startproc
LVL153:
	push	esi
LCFI87:
	.cfi_def_cfa_offset 8
	.cfi_offset 6, -8
	push	ebx
LCFI88:
	.cfi_def_cfa_offset 12
	.cfi_offset 3, -12
	sub	esp, 36
LCFI89:
	.cfi_def_cfa_offset 48
	mov	esi, DWORD PTR [esp+48]
	.loc 1 103 0
	mov	eax, DWORD PTR ___stack_chk_guard
	mov	DWORD PTR [esp+28], eax
	xor	eax, eax
	.loc 1 104 0
	test	esi, esi
	je	L130
	.loc 1 107 0 discriminator 1
	mov	eax, DWORD PTR [esi]
	test	eax, eax
	je	L136
	.p2align 2,,3
L141:
LBB28:
	.loc 1 108 0
	mov	ebx, DWORD PTR [eax]
LVL154:
	.loc 1 109 0
	mov	eax, DWORD PTR [ebx]
	mov	DWORD PTR [esp], eax
	call	_g_free
LVL155:
	.loc 1 110 0
	mov	eax, DWORD PTR [ebx+4]
	mov	DWORD PTR [esp], eax
	call	_g_free
LVL156:
	.loc 1 111 0
	mov	eax, DWORD PTR [ebx+8]
	mov	DWORD PTR [esp], eax
	call	_g_free
LVL157:
	.loc 1 112 0
	mov	eax, DWORD PTR [ebx+12]
	mov	DWORD PTR [esp], eax
	call	_g_free
LVL158:
	.loc 1 113 0
	mov	DWORD PTR [esp], ebx
	call	_g_free
LVL159:
	.loc 1 114 0
	mov	eax, DWORD PTR [esi]
	mov	DWORD PTR [esp+4], eax
	mov	DWORD PTR [esp], eax
	call	_g_list_delete_link
LVL160:
	mov	DWORD PTR [esi], eax
LBE28:
	.loc 1 107 0
	test	eax, eax
	jne	L141
LVL161:
L136:
	.loc 1 117 0
	mov	eax, DWORD PTR [esi+4]
	mov	DWORD PTR [esp], eax
	call	_free_string_glist
LVL162:
	.loc 1 119 0
	mov	eax, DWORD PTR [esi+8]
	test	eax, eax
	je	L134
	.p2align 2,,3
L140:
	.loc 1 120 0
	mov	eax, DWORD PTR [eax]
	mov	DWORD PTR [esp], eax
	call	_xmlnode_free
LVL163:
	.loc 1 121 0
	mov	eax, DWORD PTR [esi+8]
	mov	DWORD PTR [esp+4], eax
	mov	DWORD PTR [esp], eax
	call	_g_list_delete_link
LVL164:
	mov	DWORD PTR [esi+8], eax
	.loc 1 119 0
	test	eax, eax
	jne	L140
L134:
	.loc 1 124 0
	mov	eax, DWORD PTR [esi+12]
	mov	DWORD PTR [esp], eax
	call	_jabber_caps_node_exts_unref
LVL165:
	.loc 1 126 0
	mov	eax, DWORD PTR [esi+16]
	mov	DWORD PTR [esp], eax
	call	_g_free
LVL166:
	.loc 1 127 0
	mov	eax, DWORD PTR [esi+20]
	mov	DWORD PTR [esp], eax
	call	_g_free
LVL167:
	.loc 1 128 0
	mov	eax, DWORD PTR [esi+24]
	mov	DWORD PTR [esp], eax
	call	_g_free
LVL168:
	.loc 1 130 0
	mov	eax, DWORD PTR [esp+28]
	xor	eax, DWORD PTR ___stack_chk_guard
	jne	L145
	mov	DWORD PTR [esp+48], esi
	.loc 1 131 0
	add	esp, 36
LCFI90:
	.cfi_remember_state
	.cfi_def_cfa_offset 12
	pop	ebx
LCFI91:
	.cfi_restore 3
	.cfi_def_cfa_offset 8
	pop	esi
LCFI92:
	.cfi_restore 6
	.cfi_def_cfa_offset 4
	.loc 1 130 0
	jmp	_g_free
LVL169:
	.p2align 2,,3
L130:
LCFI93:
	.cfi_restore_state
	.loc 1 131 0
	mov	eax, DWORD PTR [esp+28]
	xor	eax, DWORD PTR ___stack_chk_guard
	jne	L145
	add	esp, 36
LCFI94:
	.cfi_remember_state
	.cfi_def_cfa_offset 12
	pop	ebx
LCFI95:
	.cfi_restore 3
	.cfi_def_cfa_offset 8
	pop	esi
LCFI96:
	.cfi_restore 6
	.cfi_def_cfa_offset 4
	ret
L145:
LCFI97:
	.cfi_restore_state
	call	___stack_chk_fail
LVL170:
	.cfi_endproc
LFE98:
	.section .rdata,"dr"
LC20:
	.ascii "data->ref != 0\0"
	.text
	.p2align 2,,3
	.def	_cbplususerdata_unref;	.scl	3;	.type	32;	.endef
_cbplususerdata_unref:
LFB109:
	.loc 1 399 0
	.cfi_startproc
LVL171:
	push	ebx
LCFI98:
	.cfi_def_cfa_offset 8
	.cfi_offset 3, -8
	sub	esp, 40
LCFI99:
	.cfi_def_cfa_offset 48
	mov	ebx, eax
	.loc 1 399 0
	mov	eax, DWORD PTR ___stack_chk_guard
	mov	DWORD PTR [esp+28], eax
	xor	eax, eax
LVL172:
	.loc 1 400 0
	test	ebx, ebx
	je	L146
LBB33:
	.loc 1 403 0
	mov	eax, DWORD PTR [ebx]
	test	eax, eax
	je	L165
LVL173:
LBE33:
	.loc 1 405 0
	dec	eax
	mov	DWORD PTR [ebx], eax
	test	eax, eax
	je	L166
LVL174:
L146:
	.loc 1 419 0
	mov	eax, DWORD PTR [esp+28]
	xor	eax, DWORD PTR ___stack_chk_guard
	jne	L167
	add	esp, 40
LCFI100:
	.cfi_remember_state
	.cfi_def_cfa_offset 8
	pop	ebx
LCFI101:
	.cfi_restore 3
	.cfi_def_cfa_offset 4
LVL175:
	ret
LVL176:
	.p2align 2,,3
L165:
LCFI102:
	.cfi_restore_state
LBB34:
LBB35:
	.loc 1 403 0
	mov	DWORD PTR [esp+8], OFFSET FLAT:LC20
	mov	DWORD PTR [esp+4], OFFSET FLAT:___PRETTY_FUNCTION__.49854
	mov	DWORD PTR [esp], 0
	call	_g_return_if_fail_warning
LVL177:
	jmp	L146
LVL178:
	.p2align 2,,3
L166:
LBE35:
LBE34:
	.loc 1 408 0
	mov	eax, DWORD PTR [ebx+12]
	mov	DWORD PTR [esp], eax
	call	_g_free
LVL179:
	.loc 1 409 0
	mov	eax, DWORD PTR [ebx+16]
	mov	DWORD PTR [esp], eax
	call	_g_free
LVL180:
	.loc 1 410 0
	mov	eax, DWORD PTR [ebx+20]
	mov	DWORD PTR [esp], eax
	call	_g_free
LVL181:
	.loc 1 411 0
	mov	eax, DWORD PTR [ebx+24]
	mov	DWORD PTR [esp], eax
	call	_g_free
LVL182:
	.loc 1 414 0
	mov	eax, DWORD PTR [ebx+32]
	test	eax, eax
	je	L151
	.loc 1 415 0
	mov	DWORD PTR [esp], eax
	call	_free_string_glist
LVL183:
L151:
	.loc 1 416 0
	mov	eax, DWORD PTR [ebx+40]
	test	eax, eax
	je	L152
	.loc 1 417 0
	mov	DWORD PTR [esp], eax
	call	_jabber_caps_node_exts_unref
LVL184:
L152:
	.loc 1 418 0
	mov	DWORD PTR [esp], ebx
	call	_g_free
LVL185:
	jmp	L146
LVL186:
L167:
	.loc 1 419 0
	call	___stack_chk_fail
LVL187:
	.cfi_endproc
LFE109:
	.p2align 2,,3
	.def	_schedule_caps_save.part.5;	.scl	3;	.type	32;	.endef
_schedule_caps_save.part.5:
LFB128:
	.loc 1 221 0
	.cfi_startproc
	sub	esp, 44
LCFI103:
	.cfi_def_cfa_offset 48
	.loc 1 221 0
	mov	eax, DWORD PTR ___stack_chk_guard
	mov	DWORD PTR [esp+28], eax
	xor	eax, eax
	.loc 1 224 0
	mov	DWORD PTR [esp+8], 0
	mov	DWORD PTR [esp+4], OFFSET FLAT:_do_jabber_caps_store
	mov	DWORD PTR [esp], 5
	call	_purple_timeout_add_seconds
LVL188:
	mov	DWORD PTR _save_timer, eax
	.loc 1 225 0
	mov	eax, DWORD PTR [esp+28]
	xor	eax, DWORD PTR ___stack_chk_guard
	jne	L171
	add	esp, 44
LCFI104:
	.cfi_remember_state
	.cfi_def_cfa_offset 4
	ret
L171:
LCFI105:
	.cfi_restore_state
	call	___stack_chk_fail
LVL189:
	.cfi_endproc
LFE128:
	.p2align 2,,3
	.def	_jabber_caps_find_exts_by_node;	.scl	3;	.type	32;	.endef
_jabber_caps_find_exts_by_node:
LFB99:
	.loc 1 137 0
	.cfi_startproc
LVL190:
	push	esi
LCFI106:
	.cfi_def_cfa_offset 8
	.cfi_offset 6, -8
	push	ebx
LCFI107:
	.cfi_def_cfa_offset 12
	.cfi_offset 3, -12
	sub	esp, 36
LCFI108:
	.cfi_def_cfa_offset 48
	mov	esi, eax
	.loc 1 137 0
	mov	eax, DWORD PTR ___stack_chk_guard
	mov	DWORD PTR [esp+28], eax
	xor	eax, eax
LVL191:
	.loc 1 139 0
	mov	DWORD PTR [esp+4], esi
	mov	eax, DWORD PTR _nodetable
	mov	DWORD PTR [esp], eax
	call	_g_hash_table_lookup
LVL192:
	mov	ebx, eax
LVL193:
	test	eax, eax
	je	L176
LVL194:
L173:
LBB48:
LBB49:
	.loc 1 60 0
	inc	DWORD PTR [ebx]
LBE49:
LBE48:
	.loc 1 147 0
	mov	eax, ebx
	mov	edx, DWORD PTR [esp+28]
	xor	edx, DWORD PTR ___stack_chk_guard
	jne	L177
LVL195:
	add	esp, 36
LCFI109:
	.cfi_remember_state
	.cfi_def_cfa_offset 12
	pop	ebx
LCFI110:
	.cfi_restore 3
	.cfi_def_cfa_offset 8
	pop	esi
LCFI111:
	.cfi_restore 6
	.cfi_def_cfa_offset 4
LVL196:
	ret
LVL197:
	.p2align 2,,3
L176:
LCFI112:
	.cfi_restore_state
	.loc 1 140 0
	mov	DWORD PTR [esp], 8
	call	_g_malloc0
LVL198:
	mov	ebx, eax
LVL199:
	.loc 1 141 0
	mov	DWORD PTR [esp+12], OFFSET FLAT:_free_string_glist
	mov	DWORD PTR [esp+8], OFFSET FLAT:_g_free
	mov	DWORD PTR [esp+4], OFFSET FLAT:_g_str_equal
	mov	DWORD PTR [esp], OFFSET FLAT:_g_str_hash
	call	_g_hash_table_new_full
LVL200:
	mov	DWORD PTR [ebx+4], eax
LVL201:
LBB50:
LBB51:
	.loc 1 60 0
	inc	DWORD PTR [ebx]
LBE51:
LBE50:
	.loc 1 143 0
	mov	DWORD PTR [esp], esi
	call	_g_strdup
LVL202:
	mov	DWORD PTR [esp+8], ebx
	mov	DWORD PTR [esp+4], eax
	mov	eax, DWORD PTR _nodetable
	mov	DWORD PTR [esp], eax
	call	_g_hash_table_insert
LVL203:
	jmp	L173
LVL204:
L177:
	.loc 1 147 0
	call	___stack_chk_fail
LVL205:
	.cfi_endproc
LFE99:
	.section .rdata,"dr"
	.align 4
LC21:
	.ascii "http://jabber.org/protocol/disco#info\0"
LC22:
	.ascii "query\0"
	.align 4
LC23:
	.ascii "Couldn't find JabberCapsNodeExts. If you see this, please tell darkrain42 and save your debug log.\12JabberCapsClientInfo = %p\12\0"
	.align 4
LC24:
	.ascii "Found the exts on the second try.\12\0"
LC25:
	.ascii "caps.c\0"
	.align 4
LC26:
	.ascii "file %s: line %d (%s): should not be reached\0"
	.text
	.p2align 2,,3
	.def	_jabber_caps_ext_iqcb;	.scl	3;	.type	32;	.endef
_jabber_caps_ext_iqcb:
LFB112:
	.loc 1 529 0
	.cfi_startproc
LVL206:
	push	ebp
LCFI113:
	.cfi_def_cfa_offset 8
	.cfi_offset 5, -8
	push	edi
LCFI114:
	.cfi_def_cfa_offset 12
	.cfi_offset 7, -12
	push	esi
LCFI115:
	.cfi_def_cfa_offset 16
	.cfi_offset 6, -16
	push	ebx
LCFI116:
	.cfi_def_cfa_offset 20
	.cfi_offset 3, -20
	sub	esp, 44
LCFI117:
	.cfi_def_cfa_offset 64
	mov	esi, DWORD PTR [esp+72]
	mov	edi, DWORD PTR [esp+84]
	.loc 1 529 0
	mov	eax, DWORD PTR ___stack_chk_guard
	mov	DWORD PTR [esp+28], eax
	xor	eax, eax
	.loc 1 530 0
	mov	DWORD PTR [esp+8], OFFSET FLAT:LC21
	mov	DWORD PTR [esp+4], OFFSET FLAT:LC22
	mov	eax, DWORD PTR [esp+80]
	mov	DWORD PTR [esp], eax
	call	_xmlnode_get_child_with_namespace
LVL207:
	mov	ebx, eax
LVL208:
	.loc 1 537 0
	test	eax, eax
	je	L206
	.loc 1 537 0 is_stmt 0 discriminator 1
	cmp	esi, 3
	je	L206
	.loc 1 543 0 is_stmt 1
	mov	edx, DWORD PTR [edi+4]
	mov	eax, DWORD PTR [edx+28]
LVL209:
	test	eax, eax
	je	L182
	.loc 1 543 0 is_stmt 0 discriminator 1
	mov	ebp, DWORD PTR [eax+12]
L183:
LVL210:
	.loc 1 547 0 is_stmt 1 discriminator 3
	test	ebp, ebp
	je	L207
L184:
	.loc 1 572 0
	dec	DWORD PTR [edx+36]
	.loc 1 574 0
	mov	DWORD PTR [esp+4], OFFSET FLAT:LC7
	mov	DWORD PTR [esp], ebx
	call	_xmlnode_get_child
LVL211:
	mov	ebx, eax
LVL212:
	xor	esi, esi
	test	eax, eax
	je	L188
LVL213:
	.p2align 2,,3
L190:
LBB55:
	.loc 1 576 0
	mov	DWORD PTR [esp+4], OFFSET FLAT:LC8
	mov	DWORD PTR [esp], ebx
	call	_xmlnode_get_attrib
LVL214:
	.loc 1 577 0
	test	eax, eax
	je	L189
	.loc 1 578 0
	mov	DWORD PTR [esp], eax
	call	_g_strdup
LVL215:
	mov	DWORD PTR [esp+4], eax
	mov	DWORD PTR [esp], esi
	call	_g_list_prepend
LVL216:
	mov	esi, eax
LVL217:
L189:
LBE55:
	.loc 1 575 0
	mov	DWORD PTR [esp], ebx
	call	_xmlnode_get_next_twin
LVL218:
	mov	ebx, eax
LVL219:
	.loc 1 574 0
	test	eax, eax
	jne	L190
LVL220:
L188:
	.loc 1 581 0
	mov	eax, DWORD PTR [edi]
LVL221:
	mov	DWORD PTR [esp], eax
	call	_g_strdup
LVL222:
	mov	DWORD PTR [esp+8], esi
	mov	DWORD PTR [esp+4], eax
	mov	eax, DWORD PTR [ebp+4]
	mov	DWORD PTR [esp], eax
	call	_g_hash_table_insert
LVL223:
LBB56:
LBB57:
	.loc 1 223 0
	mov	ebx, DWORD PTR _save_timer
LVL224:
	test	ebx, ebx
	je	L208
L191:
LBE57:
LBE56:
	.loc 1 585 0
	mov	eax, DWORD PTR [edi+4]
	mov	ecx, DWORD PTR [eax+28]
	test	ecx, ecx
	je	L192
	.loc 1 585 0 is_stmt 0 discriminator 1
	mov	edx, DWORD PTR [eax+36]
	test	edx, edx
	je	L209
LVL225:
L192:
	.loc 1 588 0 is_stmt 1
	call	_cbplususerdata_unref
LVL226:
	.loc 1 589 0
	mov	eax, DWORD PTR [esp+28]
	xor	eax, DWORD PTR ___stack_chk_guard
	jne	L204
	mov	DWORD PTR [esp+64], edi
	.loc 1 590 0
	add	esp, 44
LCFI118:
	.cfi_remember_state
	.cfi_def_cfa_offset 20
	pop	ebx
LCFI119:
	.cfi_restore 3
	.cfi_def_cfa_offset 16
	pop	esi
LCFI120:
	.cfi_restore 6
	.cfi_def_cfa_offset 12
	pop	edi
LCFI121:
	.cfi_restore 7
	.cfi_def_cfa_offset 8
LVL227:
	pop	ebp
LCFI122:
	.cfi_restore 5
	.cfi_def_cfa_offset 4
	.loc 1 589 0
	jmp	_g_free
LVL228:
	.p2align 2,,3
L208:
LCFI123:
	.cfi_restore_state
	call	_schedule_caps_save.part.5
LVL229:
	jmp	L191
	.p2align 2,,3
L209:
	.loc 1 586 0
	call	_jabber_caps_get_info_complete
LVL230:
L206:
	mov	eax, DWORD PTR [edi+4]
	jmp	L192
LVL231:
	.p2align 2,,3
L207:
	.loc 1 548 0
	mov	DWORD PTR [esp+8], eax
	mov	DWORD PTR [esp+4], OFFSET FLAT:LC23
	mov	DWORD PTR [esp], OFFSET FLAT:LC1
	call	_purple_debug_error
LVL232:
	.loc 1 554 0
	mov	eax, DWORD PTR [edi+4]
	mov	eax, DWORD PTR [eax+16]
	call	_jabber_caps_find_exts_by_node
LVL233:
	mov	ebp, eax
LVL234:
	.loc 1 555 0
	test	eax, eax
	je	L185
	.loc 1 556 0
	mov	DWORD PTR [esp+4], OFFSET FLAT:LC24
	mov	DWORD PTR [esp], OFFSET FLAT:LC1
	call	_purple_debug_info
LVL235:
	.loc 1 557 0
	mov	edx, DWORD PTR [edi+4]
	mov	eax, DWORD PTR [edx+28]
	test	eax, eax
	je	L186
	.loc 1 558 0
	mov	DWORD PTR [eax+12], ebp
	jmp	L184
LVL236:
	.p2align 2,,3
L182:
	.loc 1 543 0 discriminator 2
	mov	ebp, DWORD PTR [edx+40]
	jmp	L183
LVL237:
L186:
	.loc 1 560 0
	mov	DWORD PTR [edx+40], ebp
	jmp	L184
LVL238:
L185:
	.loc 1 562 0
	mov	eax, DWORD PTR [edi+4]
LVL239:
	call	_cbplususerdata_unref
LVL240:
	.loc 1 563 0
	mov	DWORD PTR [esp], edi
	call	_g_free
LVL241:
	.loc 1 564 0
	mov	eax, DWORD PTR [esp+28]
	xor	eax, DWORD PTR ___stack_chk_guard
	jne	L204
	mov	DWORD PTR [esp+84], OFFSET FLAT:___PRETTY_FUNCTION__.49890
	mov	DWORD PTR [esp+80], 564
	mov	DWORD PTR [esp+76], OFFSET FLAT:LC25
	mov	DWORD PTR [esp+72], OFFSET FLAT:LC26
	mov	DWORD PTR [esp+68], 8
	mov	DWORD PTR [esp+64], 0
	.loc 1 590 0
	add	esp, 44
LCFI124:
	.cfi_remember_state
	.cfi_def_cfa_offset 20
	pop	ebx
LCFI125:
	.cfi_restore 3
	.cfi_def_cfa_offset 16
LVL242:
	pop	esi
LCFI126:
	.cfi_restore 6
	.cfi_def_cfa_offset 12
	pop	edi
LCFI127:
	.cfi_restore 7
	.cfi_def_cfa_offset 8
LVL243:
	pop	ebp
LCFI128:
	.cfi_restore 5
	.cfi_def_cfa_offset 4
LVL244:
	.loc 1 564 0
	jmp	_g_log
LVL245:
L204:
LCFI129:
	.cfi_restore_state
	.loc 1 589 0
	call	___stack_chk_fail
LVL246:
	.cfi_endproc
LFE112:
	.section .rdata,"dr"
LC27:
	.ascii "XMPP capabilities cache\0"
LC28:
	.ascii "x\0"
	.align 4
LC29:
	.ascii "Ignoring exts when reading new-style caps\12\0"
LC30:
	.ascii "Caps ext %s had no features.\12\0"
	.text
	.p2align 2,,3
	.globl	_jabber_caps_init
	.def	_jabber_caps_init;	.scl	2;	.type	32;	.endef
_jabber_caps_init:
LFB105:
	.loc 1 330 0
	.cfi_startproc
	push	ebp
LCFI130:
	.cfi_def_cfa_offset 8
	.cfi_offset 5, -8
	push	edi
LCFI131:
	.cfi_def_cfa_offset 12
	.cfi_offset 7, -12
	push	esi
LCFI132:
	.cfi_def_cfa_offset 16
	.cfi_offset 6, -16
	push	ebx
LCFI133:
	.cfi_def_cfa_offset 20
	.cfi_offset 3, -20
	sub	esp, 76
LCFI134:
	.cfi_def_cfa_offset 96
	.loc 1 330 0
	mov	eax, DWORD PTR ___stack_chk_guard
	mov	DWORD PTR [esp+60], eax
	xor	eax, eax
	.loc 1 331 0
	mov	DWORD PTR [esp+12], OFFSET FLAT:_jabber_caps_node_exts_unref
	mov	DWORD PTR [esp+8], OFFSET FLAT:_g_free
	mov	DWORD PTR [esp+4], OFFSET FLAT:_g_str_equal
	mov	DWORD PTR [esp], OFFSET FLAT:_g_str_hash
	call	_g_hash_table_new_full
LVL247:
	mov	DWORD PTR _nodetable, eax
	.loc 1 332 0
	mov	DWORD PTR [esp+12], OFFSET FLAT:_jabber_caps_client_info_destroy
	mov	DWORD PTR [esp+8], 0
	mov	DWORD PTR [esp+4], OFFSET FLAT:_jabber_caps_compare
	mov	DWORD PTR [esp], OFFSET FLAT:_jabber_caps_hash
	call	_g_hash_table_new_full
LVL248:
	mov	DWORD PTR _capstable, eax
LBB65:
LBB66:
	.loc 1 230 0
	mov	DWORD PTR [esp+4], OFFSET FLAT:LC27
	mov	DWORD PTR [esp], OFFSET FLAT:LC4
	call	_purple_util_read_xml_from_file
LVL249:
	mov	ebp, eax
LVL250:
	.loc 1 233 0
	test	eax, eax
	je	L210
	.loc 1 236 0
	mov	DWORD PTR [esp+4], OFFSET FLAT:LC3
	mov	eax, DWORD PTR [eax]
LVL251:
	mov	DWORD PTR [esp], eax
	call	_g_str_equal
LVL252:
	test	eax, eax
	je	L232
	.loc 1 241 0
	mov	edi, DWORD PTR [ebp+24]
LVL253:
	test	edi, edi
	je	L232
	mov	DWORD PTR [esp+24], ebp
	mov	esi, edi
	jmp	L257
LVL254:
	.p2align 2,,3
L215:
	mov	esi, DWORD PTR [esi+32]
LVL255:
	test	esi, esi
	je	L276
L257:
	.loc 1 242 0
	mov	eax, DWORD PTR [esi+8]
	test	eax, eax
	jne	L215
	.loc 1 244 0
	mov	DWORD PTR [esp+4], OFFSET FLAT:LC9
	mov	eax, DWORD PTR [esi]
	mov	DWORD PTR [esp], eax
	call	_g_str_equal
LVL256:
	test	eax, eax
	je	L215
LBB67:
	.loc 1 245 0
	mov	DWORD PTR [esp], 28
	call	_g_malloc0
LVL257:
	mov	ebp, eax
LVL258:
	.loc 1 246 0
	lea	edx, [eax+16]
	mov	DWORD PTR [esp+32], edx
LVL259:
	.loc 1 249 0
	mov	DWORD PTR [esp+4], OFFSET FLAT:LC10
	mov	DWORD PTR [esp], esi
	call	_xmlnode_get_attrib
LVL260:
	mov	DWORD PTR [esp], eax
	call	_g_strdup
LVL261:
	mov	DWORD PTR [ebp+16], eax
	.loc 1 250 0
	mov	DWORD PTR [esp+4], OFFSET FLAT:LC11
	mov	DWORD PTR [esp], esi
	call	_xmlnode_get_attrib
LVL262:
	mov	DWORD PTR [esp], eax
	call	_g_strdup
LVL263:
	mov	DWORD PTR [ebp+20], eax
	.loc 1 251 0
	mov	DWORD PTR [esp+4], OFFSET FLAT:LC12
	mov	DWORD PTR [esp], esi
	call	_xmlnode_get_attrib
LVL264:
	mov	DWORD PTR [esp], eax
	call	_g_strdup
LVL265:
	mov	DWORD PTR [ebp+24], eax
	.loc 1 248 0
	mov	DWORD PTR [esp+28], 0
	.loc 1 254 0
	test	eax, eax
	je	L277
LVL266:
L217:
	.loc 1 257 0
	mov	edi, DWORD PTR [esi+24]
LVL267:
	test	edi, edi
	je	L230
	mov	DWORD PTR [esp+40], esi
	mov	esi, edi
LVL268:
	jmp	L258
LVL269:
	.p2align 2,,3
L220:
	mov	esi, DWORD PTR [esi+32]
LVL270:
	test	esi, esi
	je	L278
L258:
	.loc 1 258 0
	mov	eax, DWORD PTR [esi+8]
	test	eax, eax
	jne	L220
	.loc 1 260 0
	mov	DWORD PTR [esp+4], OFFSET FLAT:LC7
	mov	eax, DWORD PTR [esi]
	mov	DWORD PTR [esp], eax
	call	_g_str_equal
LVL271:
	test	eax, eax
	je	L221
LBB68:
	.loc 1 261 0
	mov	DWORD PTR [esp+4], OFFSET FLAT:LC8
	mov	DWORD PTR [esp], esi
	call	_xmlnode_get_attrib
LVL272:
	.loc 1 262 0
	test	eax, eax
	je	L220
	.loc 1 264 0
	mov	DWORD PTR [esp], eax
	call	_g_strdup
LVL273:
	mov	DWORD PTR [esp+4], eax
	mov	eax, DWORD PTR [ebp+4]
	mov	DWORD PTR [esp], eax
	call	_g_list_append
LVL274:
	mov	DWORD PTR [ebp+4], eax
LBE68:
	.loc 1 257 0
	mov	esi, DWORD PTR [esi+32]
LVL275:
	test	esi, esi
	jne	L258
	.p2align 2,,3
L278:
	mov	esi, DWORD PTR [esp+40]
LVL276:
L230:
	.loc 1 321 0
	mov	eax, DWORD PTR [esp+28]
	mov	DWORD PTR [ebp+12], eax
	.loc 1 322 0
	mov	DWORD PTR [esp+8], ebp
	mov	edx, DWORD PTR [esp+32]
	mov	DWORD PTR [esp+4], edx
	mov	eax, DWORD PTR _capstable
	mov	DWORD PTR [esp], eax
	call	_g_hash_table_replace
LVL277:
LBE67:
	.loc 1 241 0
	mov	esi, DWORD PTR [esi+32]
LVL278:
	test	esi, esi
	jne	L257
LVL279:
	.p2align 2,,3
L276:
	mov	ebp, DWORD PTR [esp+24]
LVL280:
L232:
	.loc 1 326 0
	mov	DWORD PTR [esp], ebp
	call	_xmlnode_free
LVL281:
L210:
LBE66:
LBE65:
	.loc 1 334 0
	mov	eax, DWORD PTR [esp+60]
	xor	eax, DWORD PTR ___stack_chk_guard
	jne	L279
	add	esp, 76
LCFI135:
	.cfi_remember_state
	.cfi_def_cfa_offset 20
	pop	ebx
LCFI136:
	.cfi_restore 3
	.cfi_def_cfa_offset 16
	pop	esi
LCFI137:
	.cfi_restore 6
	.cfi_def_cfa_offset 12
	pop	edi
LCFI138:
	.cfi_restore 7
	.cfi_def_cfa_offset 8
	pop	ebp
LCFI139:
	.cfi_restore 5
	.cfi_def_cfa_offset 4
	ret
LVL282:
	.p2align 2,,3
L221:
LCFI140:
	.cfi_restore_state
LBB74:
LBB73:
LBB72:
	.loc 1 265 0
	mov	DWORD PTR [esp+4], OFFSET FLAT:LC13
	mov	eax, DWORD PTR [esi]
	mov	DWORD PTR [esp], eax
	call	_g_str_equal
LVL283:
	test	eax, eax
	je	L223
LBB69:
	.loc 1 266 0
	mov	DWORD PTR [esp+4], OFFSET FLAT:LC14
	mov	DWORD PTR [esp], esi
	call	_xmlnode_get_attrib
LVL284:
	mov	edi, eax
LVL285:
	.loc 1 267 0
	mov	DWORD PTR [esp+4], OFFSET FLAT:LC15
	mov	DWORD PTR [esp], esi
	call	_xmlnode_get_attrib
LVL286:
	mov	DWORD PTR [esp+36], eax
LVL287:
	.loc 1 268 0
	mov	DWORD PTR [esp+4], OFFSET FLAT:LC16
	mov	DWORD PTR [esp], esi
	call	_xmlnode_get_attrib
LVL288:
	mov	DWORD PTR [esp+44], eax
LVL289:
	.loc 1 269 0
	mov	DWORD PTR [esp+4], OFFSET FLAT:LC17
	mov	DWORD PTR [esp], esi
	call	_xmlnode_get_attrib
LVL290:
	mov	ecx, eax
LVL291:
	.loc 1 272 0
	test	edi, edi
	je	L220
	mov	eax, DWORD PTR [esp+36]
LVL292:
	test	eax, eax
	je	L220
	.loc 1 275 0
	mov	DWORD PTR [esp], 16
	mov	DWORD PTR [esp+20], ecx
	call	_g_malloc0
LVL293:
	mov	ebx, eax
LVL294:
	.loc 1 276 0
	mov	DWORD PTR [esp], edi
	call	_g_strdup
LVL295:
	mov	DWORD PTR [ebx], eax
	.loc 1 277 0
	mov	eax, DWORD PTR [esp+36]
	mov	DWORD PTR [esp], eax
	call	_g_strdup
LVL296:
	mov	DWORD PTR [ebx+4], eax
	.loc 1 278 0
	mov	eax, DWORD PTR [esp+44]
	mov	DWORD PTR [esp], eax
	call	_g_strdup
LVL297:
	mov	DWORD PTR [ebx+8], eax
	.loc 1 279 0
	mov	ecx, DWORD PTR [esp+20]
	mov	DWORD PTR [esp], ecx
	call	_g_strdup
LVL298:
	mov	DWORD PTR [ebx+12], eax
	.loc 1 281 0
	mov	DWORD PTR [esp+4], ebx
	mov	eax, DWORD PTR [ebp+0]
	mov	DWORD PTR [esp], eax
	call	_g_list_append
LVL299:
	mov	DWORD PTR [ebp+0], eax
	jmp	L220
LVL300:
	.p2align 2,,3
L223:
LBE69:
	.loc 1 282 0
	mov	DWORD PTR [esp+4], OFFSET FLAT:LC28
	mov	eax, DWORD PTR [esi]
	mov	DWORD PTR [esp], eax
	call	_g_str_equal
LVL301:
	test	eax, eax
	jne	L280
	.loc 1 288 0
	mov	DWORD PTR [esp+4], OFFSET FLAT:LC5
	mov	eax, DWORD PTR [esi]
	mov	DWORD PTR [esp], eax
	call	_g_str_equal
LVL302:
	test	eax, eax
	je	L220
	.loc 1 289 0
	mov	eax, DWORD PTR [ebp+24]
	test	eax, eax
	je	L225
	.loc 1 290 0
	mov	DWORD PTR [esp+4], OFFSET FLAT:LC29
	mov	DWORD PTR [esp], OFFSET FLAT:LC1
	call	_purple_debug_warning
LVL303:
	jmp	L220
	.p2align 2,,3
L280:
	.loc 1 287 0
	mov	DWORD PTR [esp], esi
	call	_xmlnode_copy
LVL304:
	mov	DWORD PTR [esp+4], eax
	mov	eax, DWORD PTR [ebp+8]
	mov	DWORD PTR [esp], eax
	call	_g_list_append
LVL305:
	mov	DWORD PTR [ebp+8], eax
	jmp	L220
LVL306:
L277:
	.loc 1 255 0
	mov	eax, DWORD PTR [ebp+16]
	call	_jabber_caps_find_exts_by_node
LVL307:
	mov	DWORD PTR [esp+28], eax
LVL308:
	jmp	L217
LVL309:
L225:
LBB70:
	.loc 1 293 0
	mov	DWORD PTR [esp+4], OFFSET FLAT:LC6
	mov	DWORD PTR [esp], esi
	call	_xmlnode_get_attrib
LVL310:
	mov	ebx, eax
LVL311:
	.loc 1 297 0
	test	eax, eax
	je	L220
	.loc 1 300 0
	mov	edi, DWORD PTR [esi+24]
LVL312:
	test	edi, edi
	je	L226
	mov	DWORD PTR [esp+36], 0
	jmp	L228
LVL313:
	.p2align 2,,3
L227:
	mov	edi, DWORD PTR [edi+32]
LVL314:
	test	edi, edi
	je	L281
LVL315:
L228:
	.loc 1 301 0
	mov	eax, DWORD PTR [edi+8]
	test	eax, eax
	jne	L227
	.loc 1 303 0
	mov	DWORD PTR [esp+4], OFFSET FLAT:LC7
	mov	eax, DWORD PTR [edi]
	mov	DWORD PTR [esp], eax
	call	_g_str_equal
LVL316:
	test	eax, eax
	je	L227
LBB71:
	.loc 1 304 0
	mov	DWORD PTR [esp+4], OFFSET FLAT:LC8
	mov	DWORD PTR [esp], edi
	call	_xmlnode_get_attrib
LVL317:
	.loc 1 305 0
	test	eax, eax
	je	L227
	.loc 1 307 0
	mov	DWORD PTR [esp], eax
	call	_g_strdup
LVL318:
	mov	DWORD PTR [esp+4], eax
	mov	eax, DWORD PTR [esp+36]
	mov	DWORD PTR [esp], eax
	call	_g_list_prepend
LVL319:
	mov	DWORD PTR [esp+36], eax
LVL320:
	jmp	L227
LVL321:
L281:
LBE71:
	.loc 1 311 0
	mov	edi, DWORD PTR [esp+36]
LVL322:
	test	edi, edi
	je	L226
	.loc 1 312 0
	mov	DWORD PTR [esp], ebx
	call	_g_strdup
LVL323:
	mov	edx, DWORD PTR [esp+36]
	mov	DWORD PTR [esp+8], edx
	mov	DWORD PTR [esp+4], eax
	mov	edx, DWORD PTR [esp+28]
	mov	eax, DWORD PTR [edx+4]
	mov	DWORD PTR [esp], eax
	call	_g_hash_table_insert
LVL324:
	jmp	L220
LVL325:
L226:
	.loc 1 315 0
	mov	DWORD PTR [esp+8], ebx
	mov	DWORD PTR [esp+4], OFFSET FLAT:LC30
	mov	DWORD PTR [esp], OFFSET FLAT:LC1
	call	_purple_debug_warning
LVL326:
	jmp	L220
LVL327:
L279:
LBE70:
LBE72:
LBE73:
LBE74:
	.loc 1 334 0
	call	___stack_chk_fail
LVL328:
	.cfi_endproc
LFE105:
	.p2align 2,,3
	.globl	_jabber_caps_uninit
	.def	_jabber_caps_uninit;	.scl	2;	.type	32;	.endef
_jabber_caps_uninit:
LFB106:
	.loc 1 337 0
	.cfi_startproc
	sub	esp, 44
LCFI141:
	.cfi_def_cfa_offset 48
	.loc 1 337 0
	mov	eax, DWORD PTR ___stack_chk_guard
	mov	DWORD PTR [esp+28], eax
	xor	eax, eax
	.loc 1 338 0
	mov	eax, DWORD PTR _save_timer
	test	eax, eax
	je	L283
	.loc 1 339 0
	mov	DWORD PTR [esp], eax
	call	_purple_timeout_remove
LVL329:
	.loc 1 340 0
	mov	DWORD PTR _save_timer, 0
	.loc 1 341 0
	mov	DWORD PTR [esp], 0
	call	_do_jabber_caps_store
LVL330:
L283:
	.loc 1 343 0
	mov	eax, DWORD PTR _capstable
	mov	DWORD PTR [esp], eax
	call	_g_hash_table_destroy
LVL331:
	.loc 1 344 0
	mov	eax, DWORD PTR _nodetable
	mov	DWORD PTR [esp], eax
	call	_g_hash_table_destroy
LVL332:
	.loc 1 345 0
	mov	DWORD PTR _nodetable, 0
	mov	DWORD PTR _capstable, 0
	.loc 1 346 0
	mov	eax, DWORD PTR [esp+28]
	xor	eax, DWORD PTR ___stack_chk_guard
	jne	L289
	add	esp, 44
LCFI142:
	.cfi_remember_state
	.cfi_def_cfa_offset 4
	ret
L289:
LCFI143:
	.cfi_restore_state
	call	___stack_chk_fail
LVL333:
	.cfi_endproc
LFE106:
	.section .rdata,"dr"
LC31:
	.ascii "voice-v1\0"
LC32:
	.ascii "info != NULL\0"
	.text
	.p2align 2,,3
	.globl	_jabber_caps_exts_known
	.def	_jabber_caps_exts_known;	.scl	2;	.type	32;	.endef
_jabber_caps_exts_known:
LFB107:
	.loc 1 350 0
	.cfi_startproc
LVL334:
	push	edi
LCFI144:
	.cfi_def_cfa_offset 8
	.cfi_offset 7, -8
	push	esi
LCFI145:
	.cfi_def_cfa_offset 12
	.cfi_offset 6, -12
	push	ebx
LCFI146:
	.cfi_def_cfa_offset 16
	.cfi_offset 3, -16
	sub	esp, 32
LCFI147:
	.cfi_def_cfa_offset 48
	mov	esi, DWORD PTR [esp+48]
	mov	edi, DWORD PTR [esp+52]
	.loc 1 350 0
	mov	eax, DWORD PTR ___stack_chk_guard
	mov	DWORD PTR [esp+28], eax
	xor	eax, eax
LBB75:
	.loc 1 352 0
	test	esi, esi
	je	L315
LVL335:
LBE75:
	.loc 1 354 0
	test	edi, edi
	je	L296
LVL336:
	.loc 1 357 0 discriminator 1
	mov	eax, DWORD PTR [edi]
	test	eax, eax
	je	L296
	.loc 1 348 0
	lea	ebx, [edi+4]
	jmp	L295
LVL337:
	.p2align 2,,3
L316:
	.loc 1 360 0 discriminator 1
	test	eax, eax
	je	L299
L294:
	.loc 1 363 0 discriminator 1
	mov	edx, DWORD PTR [edi]
	mov	DWORD PTR [esp+4], edx
	mov	eax, DWORD PTR [eax+4]
	mov	DWORD PTR [esp], eax
	call	_g_hash_table_lookup
LVL338:
	.loc 1 362 0 discriminator 1
	test	eax, eax
	je	L314
L299:
	.loc 1 357 0
	mov	edi, ebx
	add	ebx, 4
	mov	eax, DWORD PTR [ebx-4]
	test	eax, eax
	je	L296
L295:
	.loc 1 360 0
	mov	DWORD PTR [esp+4], OFFSET FLAT:LC31
	mov	DWORD PTR [esp], eax
	call	_g_str_equal
LVL339:
	test	eax, eax
	mov	eax, DWORD PTR [esi+12]
	jne	L316
	.loc 1 362 0
	test	eax, eax
	jne	L294
LVL340:
L314:
	.loc 1 352 0
	xor	eax, eax
L297:
	.loc 1 368 0
	mov	edx, DWORD PTR [esp+28]
	xor	edx, DWORD PTR ___stack_chk_guard
	jne	L317
	add	esp, 32
LCFI148:
	.cfi_remember_state
	.cfi_def_cfa_offset 16
	pop	ebx
LCFI149:
	.cfi_restore 3
	.cfi_def_cfa_offset 12
	pop	esi
LCFI150:
	.cfi_restore 6
	.cfi_def_cfa_offset 8
	pop	edi
LCFI151:
	.cfi_restore 7
	.cfi_def_cfa_offset 4
	ret
LVL341:
	.p2align 2,,3
L296:
LCFI152:
	.cfi_restore_state
	.loc 1 367 0
	mov	eax, 1
	jmp	L297
LVL342:
	.p2align 2,,3
L315:
	.loc 1 352 0
	mov	DWORD PTR [esp+8], OFFSET FLAT:LC32
	mov	DWORD PTR [esp+4], OFFSET FLAT:___PRETTY_FUNCTION__.49825
	mov	DWORD PTR [esp], 0
	call	_g_return_if_fail_warning
LVL343:
	jmp	L314
LVL344:
L317:
	.loc 1 368 0
	call	___stack_chk_fail
LVL345:
	.cfi_endproc
LFE107:
	.section .rdata,"dr"
	.align 4
LC33:
	.ascii "Ignoring exts in new-style caps from %s\12\0"
LC34:
	.ascii "%s#%s\0"
LC35:
	.ascii "to\0"
	.text
	.p2align 2,,3
	.globl	_jabber_caps_get_info
	.def	_jabber_caps_get_info;	.scl	2;	.type	32;	.endef
_jabber_caps_get_info:
LFB113:
	.loc 1 595 0
	.cfi_startproc
LVL346:
	push	ebp
LCFI153:
	.cfi_def_cfa_offset 8
	.cfi_offset 5, -8
	push	edi
LCFI154:
	.cfi_def_cfa_offset 12
	.cfi_offset 7, -12
	push	esi
LCFI155:
	.cfi_def_cfa_offset 16
	.cfi_offset 6, -16
	push	ebx
LCFI156:
	.cfi_def_cfa_offset 20
	.cfi_offset 3, -20
	sub	esp, 76
LCFI157:
	.cfi_def_cfa_offset 96
	mov	edx, DWORD PTR [esp+96]
	mov	DWORD PTR [esp+40], edx
	mov	edx, DWORD PTR [esp+100]
	mov	DWORD PTR [esp+36], edx
	mov	edx, DWORD PTR [esp+104]
	mov	DWORD PTR [esp+28], edx
	mov	edi, DWORD PTR [esp+108]
	mov	ebx, DWORD PTR [esp+112]
	mov	edx, DWORD PTR [esp+116]
	mov	DWORD PTR [esp+24], edx
	mov	ebp, DWORD PTR [esp+120]
	mov	edx, DWORD PTR [esp+124]
	mov	DWORD PTR [esp+32], edx
	.loc 1 595 0
	mov	eax, DWORD PTR ___stack_chk_guard
	mov	DWORD PTR [esp+60], eax
	xor	eax, eax
	.loc 1 600 0
	mov	ecx, DWORD PTR [esp+24]
	test	ecx, ecx
	je	L319
	.loc 1 600 0 is_stmt 0 discriminator 1
	test	ebx, ebx
	je	L320
	.loc 1 601 0 is_stmt 1
	mov	edx, DWORD PTR [esp+36]
	mov	DWORD PTR [esp+8], edx
	mov	DWORD PTR [esp+4], OFFSET FLAT:LC33
	mov	DWORD PTR [esp], OFFSET FLAT:LC1
	call	_purple_debug_misc
LVL347:
	.loc 1 603 0
	mov	edx, DWORD PTR [esp+24]
	mov	DWORD PTR [esp], edx
	call	_g_strfreev
LVL348:
	.loc 1 608 0
	mov	edx, DWORD PTR [esp+28]
	mov	DWORD PTR [esp+48], edx
	.loc 1 609 0
	mov	DWORD PTR [esp+52], edi
	.loc 1 610 0
	mov	DWORD PTR [esp+56], ebx
	.loc 1 612 0
	lea	eax, [esp+48]
	mov	DWORD PTR [esp+4], eax
	mov	eax, DWORD PTR _capstable
	mov	DWORD PTR [esp], eax
	call	_g_hash_table_lookup
LVL349:
	mov	edx, eax
LVL350:
	.loc 1 613 0
	test	eax, eax
	je	L322
L321:
	.loc 1 615 0
	test	ebp, ebp
	je	L318
	.loc 1 616 0
	mov	eax, DWORD PTR [esp+32]
LVL351:
	mov	DWORD PTR [esp+8], eax
	mov	DWORD PTR [esp+4], 0
	mov	DWORD PTR [esp], edx
	call	ebp
LVL352:
L318:
	.loc 1 706 0
	mov	edx, DWORD PTR [esp+60]
	xor	edx, DWORD PTR ___stack_chk_guard
	jne	L351
	add	esp, 76
LCFI158:
	.cfi_remember_state
	.cfi_def_cfa_offset 20
	pop	ebx
LCFI159:
	.cfi_restore 3
	.cfi_def_cfa_offset 16
	pop	esi
LCFI160:
	.cfi_restore 6
	.cfi_def_cfa_offset 12
	pop	edi
LCFI161:
	.cfi_restore 7
	.cfi_def_cfa_offset 8
	pop	ebp
LCFI162:
	.cfi_restore 5
	.cfi_def_cfa_offset 4
	ret
LVL353:
	.p2align 2,,3
L319:
LCFI163:
	.cfi_restore_state
	.loc 1 608 0
	mov	edx, DWORD PTR [esp+28]
	mov	DWORD PTR [esp+48], edx
	.loc 1 609 0
	mov	DWORD PTR [esp+52], edi
	.loc 1 610 0
	mov	DWORD PTR [esp+56], ebx
	.loc 1 612 0
	lea	eax, [esp+48]
	mov	DWORD PTR [esp+4], eax
	mov	eax, DWORD PTR _capstable
	mov	DWORD PTR [esp], eax
	call	_g_hash_table_lookup
LVL354:
	mov	edx, eax
LVL355:
	.loc 1 613 0
	test	eax, eax
	je	L322
	.loc 1 613 0 is_stmt 0 discriminator 1
	test	ebx, ebx
	jne	L321
	.loc 1 620 0 is_stmt 1
	mov	DWORD PTR [esp], 44
	mov	DWORD PTR [esp+16], eax
	call	_g_malloc0
LVL356:
	mov	esi, eax
LVL357:
	.loc 1 622 0
	mov	DWORD PTR [eax+4], ebp
	.loc 1 623 0
	mov	eax, DWORD PTR [esp+32]
LVL358:
	mov	DWORD PTR [esi+8], eax
	.loc 1 624 0
	mov	eax, DWORD PTR [esp+36]
	mov	DWORD PTR [esp], eax
	call	_g_strdup
LVL359:
	mov	DWORD PTR [esi+12], eax
	.loc 1 625 0
	mov	eax, DWORD PTR [esp+28]
	mov	DWORD PTR [esp], eax
	call	_g_strdup
LVL360:
	mov	DWORD PTR [esi+16], eax
	.loc 1 626 0
	mov	DWORD PTR [esp], edi
	call	_g_strdup
LVL361:
	mov	DWORD PTR [esi+20], eax
	.loc 1 627 0
	mov	DWORD PTR [esp], 0
	call	_g_strdup
LVL362:
	mov	DWORD PTR [esi+24], eax
	.loc 1 630 0
	mov	edx, DWORD PTR [esp+16]
	mov	DWORD PTR [esi+28], edx
LVL363:
L336:
	.loc 1 698 0 discriminator 1
	mov	edx, DWORD PTR [esi+36]
	test	edx, edx
	jne	L318
	.loc 1 700 0
	mov	DWORD PTR [esi], 1
	.loc 1 703 0
	mov	eax, esi
	call	_jabber_caps_get_info_complete
LVL364:
	.loc 1 704 0
	mov	eax, esi
	call	_cbplususerdata_unref
LVL365:
	jmp	L318
LVL366:
	.p2align 2,,3
L322:
	.loc 1 604 0
	mov	DWORD PTR [esp+24], 0
LVL367:
L335:
	.loc 1 620 0
	mov	DWORD PTR [esp], 44
	call	_g_malloc0
LVL368:
	mov	esi, eax
LVL369:
	.loc 1 622 0
	mov	DWORD PTR [eax+4], ebp
	.loc 1 623 0
	mov	edx, DWORD PTR [esp+32]
	mov	DWORD PTR [eax+8], edx
	.loc 1 624 0
	mov	edx, DWORD PTR [esp+36]
	mov	DWORD PTR [esp], edx
	call	_g_strdup
LVL370:
	mov	DWORD PTR [esi+12], eax
	.loc 1 625 0
	mov	edx, DWORD PTR [esp+28]
	mov	DWORD PTR [esp], edx
	call	_g_strdup
LVL371:
	mov	DWORD PTR [esi+16], eax
	.loc 1 626 0
	mov	DWORD PTR [esp], edi
	call	_g_strdup
LVL372:
	mov	DWORD PTR [esi+20], eax
	.loc 1 627 0
	mov	DWORD PTR [esp], ebx
	call	_g_strdup
LVL373:
	mov	DWORD PTR [esi+24], eax
LBB76:
	.loc 1 638 0
	mov	DWORD PTR [esp+8], OFFSET FLAT:LC21
	mov	DWORD PTR [esp+4], 1
	mov	edx, DWORD PTR [esp+40]
	mov	DWORD PTR [esp], edx
	call	_jabber_iq_new_query
LVL374:
	mov	ebx, eax
LVL375:
	.loc 1 639 0
	mov	DWORD PTR [esp+8], OFFSET FLAT:LC21
	mov	DWORD PTR [esp+4], OFFSET FLAT:LC22
	mov	eax, DWORD PTR [eax+8]
LVL376:
	mov	DWORD PTR [esp], eax
	call	_xmlnode_get_child_with_namespace
LVL377:
	mov	ebp, eax
LVL378:
	.loc 1 641 0
	mov	DWORD PTR [esp+8], edi
	mov	edx, DWORD PTR [esp+28]
	mov	DWORD PTR [esp+4], edx
	mov	DWORD PTR [esp], OFFSET FLAT:LC34
	call	_g_strdup_printf
LVL379:
	mov	edi, eax
LVL380:
	.loc 1 642 0
	mov	DWORD PTR [esp+8], eax
	mov	DWORD PTR [esp+4], OFFSET FLAT:LC10
	mov	DWORD PTR [esp], ebp
	call	_xmlnode_set_attrib
LVL381:
	.loc 1 643 0
	mov	DWORD PTR [esp], edi
	call	_g_free
LVL382:
	.loc 1 644 0
	mov	edx, DWORD PTR [esp+36]
	mov	DWORD PTR [esp+8], edx
	mov	DWORD PTR [esp+4], OFFSET FLAT:LC35
	mov	eax, DWORD PTR [ebx+8]
	mov	DWORD PTR [esp], eax
	call	_xmlnode_set_attrib
LVL383:
	.loc 1 646 0
	mov	eax, esi
	call	_cbplususerdata_ref
LVL384:
	.loc 1 648 0
	mov	DWORD PTR [esp+8], esi
	mov	DWORD PTR [esp+4], OFFSET FLAT:_jabber_caps_client_iqcb
	mov	DWORD PTR [esp], ebx
	call	_jabber_iq_set_callback
LVL385:
	.loc 1 649 0
	mov	DWORD PTR [esp], ebx
	call	_jabber_iq_send
LVL386:
LBE76:
	.loc 1 653 0
	mov	eax, DWORD PTR [esp+24]
	test	eax, eax
	je	L352
LBB77:
	.loc 1 664 0
	mov	eax, DWORD PTR [esp+28]
	call	_jabber_caps_find_exts_by_node
LVL387:
	mov	ebp, eax
LVL388:
	mov	DWORD PTR [esi+40], eax
LVL389:
L325:
	.loc 1 666 0
	mov	edx, DWORD PTR [esp+24]
	mov	eax, DWORD PTR [edx]
	test	eax, eax
	je	L330
	.loc 1 592 0
	mov	ebx, DWORD PTR [esp+24]
	add	ebx, 4
LBE77:
	mov	edi, DWORD PTR [esp+24]
LVL390:
	.p2align 2,,3
L329:
LBB79:
	.loc 1 667 0
	mov	DWORD PTR [esp+4], eax
	mov	eax, DWORD PTR [esi+32]
	mov	DWORD PTR [esp], eax
	call	_g_list_prepend
LVL391:
	mov	DWORD PTR [esi+32], eax
	.loc 1 669 0
	mov	eax, DWORD PTR [edi]
	mov	DWORD PTR [esp+4], eax
	mov	eax, DWORD PTR [ebp+4]
	mov	DWORD PTR [esp], eax
	call	_g_hash_table_lookup
LVL392:
	test	eax, eax
	je	L353
L328:
	.loc 1 691 0
	mov	DWORD PTR [edi], 0
	.loc 1 666 0
	mov	edi, ebx
	add	ebx, 4
	mov	eax, DWORD PTR [ebx-4]
	test	eax, eax
	jne	L329
L330:
	.loc 1 695 0
	mov	edx, DWORD PTR [esp+24]
	mov	DWORD PTR [esp], edx
	call	_g_free
LVL393:
	mov	eax, DWORD PTR [esi+28]
LVL394:
L327:
LBE79:
	.loc 1 698 0
	test	eax, eax
	jne	L336
	jmp	L318
LVL395:
	.p2align 2,,3
L353:
LBB80:
LBB78:
	.loc 1 673 0
	mov	DWORD PTR [esp], 8
	call	_g_malloc
LVL396:
	mov	DWORD PTR [esp+32], eax
LVL397:
	.loc 1 675 0
	mov	eax, DWORD PTR [edi]
LVL398:
	mov	edx, DWORD PTR [esp+32]
	mov	DWORD PTR [edx], eax
	.loc 1 676 0
	mov	eax, esi
	call	_cbplususerdata_ref
LVL399:
	mov	edx, DWORD PTR [esp+32]
	mov	DWORD PTR [edx+4], eax
	.loc 1 678 0
	mov	DWORD PTR [esp+8], OFFSET FLAT:LC21
	mov	DWORD PTR [esp+4], 1
	mov	edx, DWORD PTR [esp+40]
	mov	DWORD PTR [esp], edx
	call	_jabber_iq_new_query
LVL400:
	mov	edx, eax
LVL401:
	.loc 1 679 0
	mov	DWORD PTR [esp+8], OFFSET FLAT:LC21
	mov	DWORD PTR [esp+4], OFFSET FLAT:LC22
	mov	eax, DWORD PTR [eax+8]
LVL402:
	mov	DWORD PTR [esp], eax
	mov	DWORD PTR [esp+16], edx
	call	_xmlnode_get_child_with_namespace
LVL403:
	mov	ecx, eax
LVL404:
	.loc 1 681 0
	mov	eax, DWORD PTR [edi]
LVL405:
	mov	DWORD PTR [esp+8], eax
	mov	eax, DWORD PTR [esp+28]
	mov	DWORD PTR [esp+4], eax
	mov	DWORD PTR [esp], OFFSET FLAT:LC34
	mov	DWORD PTR [esp+20], ecx
	call	_g_strdup_printf
LVL406:
	.loc 1 682 0
	mov	DWORD PTR [esp+8], eax
	mov	DWORD PTR [esp+4], OFFSET FLAT:LC10
	mov	ecx, DWORD PTR [esp+20]
	mov	DWORD PTR [esp], ecx
	mov	DWORD PTR [esp+20], eax
	call	_xmlnode_set_attrib
LVL407:
	.loc 1 683 0
	mov	eax, DWORD PTR [esp+20]
	mov	DWORD PTR [esp], eax
	call	_g_free
LVL408:
	.loc 1 684 0
	mov	eax, DWORD PTR [esp+36]
	mov	DWORD PTR [esp+8], eax
	mov	DWORD PTR [esp+4], OFFSET FLAT:LC35
	mov	edx, DWORD PTR [esp+16]
	mov	eax, DWORD PTR [edx+8]
	mov	DWORD PTR [esp], eax
	call	_xmlnode_set_attrib
LVL409:
	.loc 1 686 0
	mov	eax, DWORD PTR [esp+32]
	mov	DWORD PTR [esp+8], eax
	mov	DWORD PTR [esp+4], OFFSET FLAT:_jabber_caps_ext_iqcb
	mov	edx, DWORD PTR [esp+16]
	mov	DWORD PTR [esp], edx
	call	_jabber_iq_set_callback
LVL410:
	.loc 1 687 0
	mov	edx, DWORD PTR [esp+16]
	mov	DWORD PTR [esp], edx
	call	_jabber_iq_send
LVL411:
	.loc 1 689 0
	inc	DWORD PTR [esi+36]
	jmp	L328
LVL412:
L352:
	mov	eax, DWORD PTR [esi+28]
	jmp	L327
LVL413:
L351:
LBE78:
LBE80:
	.loc 1 706 0
	call	___stack_chk_fail
LVL414:
L320:
	.loc 1 608 0
	mov	edx, DWORD PTR [esp+28]
	mov	DWORD PTR [esp+48], edx
	.loc 1 609 0
	mov	DWORD PTR [esp+52], edi
	.loc 1 610 0
	mov	DWORD PTR [esp+56], 0
	.loc 1 612 0
	lea	eax, [esp+48]
	mov	DWORD PTR [esp+4], eax
	mov	eax, DWORD PTR _capstable
	mov	DWORD PTR [esp], eax
	call	_g_hash_table_lookup
LVL415:
	mov	DWORD PTR [esp+44], eax
LVL416:
	.loc 1 613 0
	test	eax, eax
	je	L335
	.loc 1 620 0
	mov	DWORD PTR [esp], 44
	call	_g_malloc0
LVL417:
	mov	esi, eax
LVL418:
	.loc 1 622 0
	mov	DWORD PTR [eax+4], ebp
	.loc 1 623 0
	mov	edx, DWORD PTR [esp+32]
	mov	DWORD PTR [eax+8], edx
	.loc 1 624 0
	mov	edx, DWORD PTR [esp+36]
	mov	DWORD PTR [esp], edx
	call	_g_strdup
LVL419:
	mov	DWORD PTR [esi+12], eax
	.loc 1 625 0
	mov	edx, DWORD PTR [esp+28]
	mov	DWORD PTR [esp], edx
	call	_g_strdup
LVL420:
	mov	DWORD PTR [esi+16], eax
	.loc 1 626 0
	mov	DWORD PTR [esp], edi
	call	_g_strdup
LVL421:
	mov	DWORD PTR [esi+20], eax
	.loc 1 627 0
	mov	DWORD PTR [esp], 0
	call	_g_strdup
LVL422:
	mov	DWORD PTR [esi+24], eax
	.loc 1 630 0
	mov	eax, DWORD PTR [esp+44]
	mov	DWORD PTR [esi+28], eax
LBB81:
	.loc 1 658 0
	mov	ebp, DWORD PTR [eax+12]
	test	ebp, ebp
	jne	L325
	.loc 1 661 0
	mov	eax, DWORD PTR [esp+28]
	call	_jabber_caps_find_exts_by_node
LVL423:
	mov	ebp, eax
	mov	eax, DWORD PTR [esp+44]
	mov	DWORD PTR [eax+12], ebp
LVL424:
	jmp	L325
LBE81:
	.cfi_endproc
LFE113:
	.section .rdata,"dr"
LC36:
	.ascii "jabber:x:data\0"
	.text
	.p2align 2,,3
	.globl	_jabber_caps_parse_client_info
	.def	_jabber_caps_parse_client_info;	.scl	2;	.type	32;	.endef
_jabber_caps_parse_client_info:
LFB115:
	.loc 1 727 0
	.cfi_startproc
LVL425:
	push	ebp
LCFI164:
	.cfi_def_cfa_offset 8
	.cfi_offset 5, -8
	push	edi
LCFI165:
	.cfi_def_cfa_offset 12
	.cfi_offset 7, -12
	push	esi
LCFI166:
	.cfi_def_cfa_offset 16
	.cfi_offset 6, -16
	push	ebx
LCFI167:
	.cfi_def_cfa_offset 20
	.cfi_offset 3, -20
	sub	esp, 60
LCFI168:
	.cfi_def_cfa_offset 80
	mov	esi, DWORD PTR [esp+80]
	.loc 1 727 0
	mov	eax, DWORD PTR ___stack_chk_guard
	mov	DWORD PTR [esp+44], eax
	xor	eax, eax
	.loc 1 731 0
	test	esi, esi
	je	L357
	.loc 1 731 0 is_stmt 0 discriminator 1
	mov	DWORD PTR [esp+4], OFFSET FLAT:LC22
	mov	eax, DWORD PTR [esi]
	mov	DWORD PTR [esp], eax
	call	_g_str_equal
LVL426:
	test	eax, eax
	je	L357
	.loc 1 732 0 is_stmt 1 discriminator 1
	mov	DWORD PTR [esp+4], OFFSET FLAT:LC21
	mov	eax, DWORD PTR [esi+4]
	mov	DWORD PTR [esp], eax
	call	_purple_strequal
LVL427:
	.loc 1 731 0 discriminator 1
	test	eax, eax
	je	L357
	.loc 1 735 0
	mov	DWORD PTR [esp], 28
	call	_g_malloc0
LVL428:
	mov	ebx, eax
LVL429:
	.loc 1 737 0
	mov	ebp, DWORD PTR [esi+24]
LVL430:
	test	ebp, ebp
	jne	L381
	jmp	L356
LVL431:
	.p2align 2,,3
L359:
	mov	ebp, DWORD PTR [ebp+32]
LVL432:
	test	ebp, ebp
	je	L356
L381:
	.loc 1 738 0
	mov	edi, DWORD PTR [ebp+8]
	test	edi, edi
	jne	L359
	.loc 1 740 0
	mov	DWORD PTR [esp+4], OFFSET FLAT:LC13
	mov	eax, DWORD PTR [ebp+0]
	mov	DWORD PTR [esp], eax
	call	_g_str_equal
LVL433:
	test	eax, eax
	je	L360
LBB82:
	.loc 1 742 0
	mov	DWORD PTR [esp+4], OFFSET FLAT:LC14
	mov	DWORD PTR [esp], ebp
	call	_xmlnode_get_attrib
LVL434:
	mov	edi, eax
LVL435:
	.loc 1 743 0
	mov	DWORD PTR [esp+4], OFFSET FLAT:LC15
	mov	DWORD PTR [esp], ebp
	call	_xmlnode_get_attrib
LVL436:
	mov	DWORD PTR [esp+24], eax
LVL437:
	.loc 1 744 0
	mov	DWORD PTR [esp+4], OFFSET FLAT:LC16
	mov	DWORD PTR [esp], ebp
	call	_xmlnode_get_attrib
LVL438:
	mov	DWORD PTR [esp+28], eax
LVL439:
	.loc 1 745 0
	mov	DWORD PTR [esp+4], OFFSET FLAT:LC17
	mov	DWORD PTR [esp], ebp
	call	_xmlnode_get_attrib
LVL440:
	.loc 1 748 0
	test	edi, edi
	je	L359
	.loc 1 748 0 is_stmt 0 discriminator 1
	mov	esi, DWORD PTR [esp+24]
	test	esi, esi
	je	L359
	.loc 1 751 0 is_stmt 1
	mov	DWORD PTR [esp], 16
	mov	DWORD PTR [esp+20], eax
	call	_g_malloc0
LVL441:
	mov	esi, eax
LVL442:
	.loc 1 752 0
	mov	DWORD PTR [esp], edi
	call	_g_strdup
LVL443:
	mov	DWORD PTR [esi], eax
	.loc 1 753 0
	mov	eax, DWORD PTR [esp+24]
	mov	DWORD PTR [esp], eax
	call	_g_strdup
LVL444:
	mov	DWORD PTR [esi+4], eax
	.loc 1 754 0
	mov	eax, DWORD PTR [esp+28]
	mov	DWORD PTR [esp], eax
	call	_g_strdup
LVL445:
	mov	DWORD PTR [esi+8], eax
	.loc 1 755 0
	mov	ecx, DWORD PTR [esp+20]
	mov	DWORD PTR [esp], ecx
	call	_g_strdup
LVL446:
	mov	DWORD PTR [esi+12], eax
	.loc 1 757 0
	mov	DWORD PTR [esp+4], esi
	mov	eax, DWORD PTR [ebx]
	mov	DWORD PTR [esp], eax
	call	_g_list_append
LVL447:
	mov	DWORD PTR [ebx], eax
LBE82:
	.loc 1 737 0
	mov	ebp, DWORD PTR [ebp+32]
LVL448:
	test	ebp, ebp
	jne	L381
LVL449:
	.p2align 2,,3
L356:
	.loc 1 772 0
	mov	eax, ebx
	mov	edx, DWORD PTR [esp+44]
	xor	edx, DWORD PTR ___stack_chk_guard
	jne	L392
	add	esp, 60
LCFI169:
	.cfi_remember_state
	.cfi_def_cfa_offset 20
	pop	ebx
LCFI170:
	.cfi_restore 3
	.cfi_def_cfa_offset 16
	pop	esi
LCFI171:
	.cfi_restore 6
	.cfi_def_cfa_offset 12
	pop	edi
LCFI172:
	.cfi_restore 7
	.cfi_def_cfa_offset 8
	pop	ebp
LCFI173:
	.cfi_restore 5
	.cfi_def_cfa_offset 4
	ret
LVL450:
	.p2align 2,,3
L360:
LCFI174:
	.cfi_restore_state
	.loc 1 758 0
	mov	DWORD PTR [esp+4], OFFSET FLAT:LC7
	mov	eax, DWORD PTR [ebp+0]
	mov	DWORD PTR [esp], eax
	call	_g_str_equal
LVL451:
	test	eax, eax
	je	L362
LBB83:
	.loc 1 760 0
	mov	DWORD PTR [esp+4], OFFSET FLAT:LC8
	mov	DWORD PTR [esp], ebp
	call	_xmlnode_get_attrib
LVL452:
	.loc 1 761 0
	test	eax, eax
	je	L359
	.loc 1 762 0
	mov	DWORD PTR [esp], eax
	call	_g_strdup
LVL453:
	mov	DWORD PTR [esp+4], eax
	mov	eax, DWORD PTR [ebx+4]
	mov	DWORD PTR [esp], eax
	call	_g_list_prepend
LVL454:
	mov	DWORD PTR [ebx+4], eax
	jmp	L359
	.p2align 2,,3
L362:
LBE83:
	.loc 1 763 0
	mov	DWORD PTR [esp+4], OFFSET FLAT:LC28
	mov	eax, DWORD PTR [ebp+0]
	mov	DWORD PTR [esp], eax
	call	_g_str_equal
LVL455:
	test	eax, eax
	je	L359
	.loc 1 764 0
	mov	DWORD PTR [esp+4], OFFSET FLAT:LC36
	mov	eax, DWORD PTR [ebp+4]
	mov	DWORD PTR [esp], eax
	call	_purple_strequal
LVL456:
	test	eax, eax
	je	L359
LBB84:
	.loc 1 766 0
	mov	DWORD PTR [esp], ebp
	call	_xmlnode_copy
LVL457:
	.loc 1 767 0
	mov	DWORD PTR [esp+4], eax
	mov	eax, DWORD PTR [ebx+8]
LVL458:
	mov	DWORD PTR [esp], eax
	call	_g_list_append
LVL459:
	mov	DWORD PTR [ebx+8], eax
	jmp	L359
LVL460:
	.p2align 2,,3
L357:
LBE84:
	.loc 1 733 0
	xor	ebx, ebx
	jmp	L356
L392:
	.loc 1 772 0
	call	___stack_chk_fail
LVL461:
	.cfi_endproc
LFE115:
	.section .rdata,"dr"
LC37:
	.ascii "\0"
LC38:
	.ascii "/\0"
LC39:
	.ascii "field\0"
LC40:
	.ascii "value\0"
LC41:
	.ascii "FORM_TYPE\0"
	.text
	.p2align 2,,3
	.globl	_jabber_caps_calculate_hash
	.def	_jabber_caps_calculate_hash;	.scl	2;	.type	32;	.endef
_jabber_caps_calculate_hash:
LFB119:
	.loc 1 821 0
	.cfi_startproc
LVL462:
	push	ebp
LCFI175:
	.cfi_def_cfa_offset 8
	.cfi_offset 5, -8
	push	edi
LCFI176:
	.cfi_def_cfa_offset 12
	.cfi_offset 7, -12
	push	esi
LCFI177:
	.cfi_def_cfa_offset 16
	.cfi_offset 6, -16
	push	ebx
LCFI178:
	.cfi_def_cfa_offset 20
	.cfi_offset 3, -20
	sub	esp, 124
LCFI179:
	.cfi_def_cfa_offset 144
	mov	eax, DWORD PTR [esp+144]
	mov	DWORD PTR [esp+76], eax
	mov	eax, DWORD PTR [esp+148]
	.loc 1 821 0
	mov	edx, DWORD PTR ___stack_chk_guard
	mov	DWORD PTR [esp+108], edx
	xor	edx, edx
	.loc 1 825 0
	mov	DWORD PTR [esp+84], 20
LVL463:
	.loc 1 828 0
	mov	ebp, DWORD PTR [esp+76]
	test	ebp, ebp
	je	L396
	.loc 1 828 0 is_stmt 0 discriminator 1
	mov	DWORD PTR [esp+4], 0
	mov	DWORD PTR [esp], eax
	call	_purple_cipher_context_new_by_name
LVL464:
	mov	DWORD PTR [esp+72], eax
LVL465:
	test	eax, eax
	je	L396
	.loc 1 832 0 is_stmt 1
	mov	DWORD PTR [esp+4], OFFSET FLAT:_jabber_identity_compare
	mov	edx, DWORD PTR [esp+76]
	mov	eax, DWORD PTR [edx]
LVL466:
	mov	DWORD PTR [esp], eax
	call	_g_list_sort
LVL467:
	mov	edx, DWORD PTR [esp+76]
	mov	DWORD PTR [edx], eax
	.loc 1 833 0
	mov	DWORD PTR [esp+4], OFFSET FLAT:_strcmp
	mov	eax, DWORD PTR [edx+4]
	mov	DWORD PTR [esp], eax
	call	_g_list_sort
LVL468:
	mov	edx, DWORD PTR [esp+76]
	mov	DWORD PTR [edx+4], eax
	.loc 1 834 0
	mov	DWORD PTR [esp+4], OFFSET FLAT:_jabber_xdata_compare
	mov	eax, DWORD PTR [edx+8]
	mov	DWORD PTR [esp], eax
	call	_g_list_sort
LVL469:
	mov	edx, DWORD PTR [esp+76]
	mov	DWORD PTR [edx+8], eax
	.loc 1 837 0
	mov	esi, DWORD PTR [edx]
LVL470:
	test	esi, esi
	jne	L440
	jmp	L405
LVL471:
	.p2align 2,,3
L457:
LBB92:
	.loc 1 846 0
	mov	DWORD PTR [esp+4], -1
	mov	DWORD PTR [esp], eax
	call	_g_markup_escape_text
LVL472:
	mov	ebx, eax
LVL473:
	.loc 1 847 0
	mov	eax, DWORD PTR [edi+8]
LVL474:
	test	eax, eax
	je	L401
L458:
	.loc 1 848 0
	mov	DWORD PTR [esp+4], -1
	mov	DWORD PTR [esp], eax
	call	_g_markup_escape_text
LVL475:
	.loc 1 850 0
	test	eax, eax
	je	L401
	mov	DWORD PTR [esp+68], eax
	test	ebx, ebx
	je	L456
LVL476:
L427:
	mov	edx, ebx
L403:
	.loc 1 850 0 is_stmt 0 discriminator 6
	mov	DWORD PTR [esp+32], 0
	mov	DWORD PTR [esp+28], OFFSET FLAT:LC2
	mov	DWORD PTR [esp+24], eax
	mov	DWORD PTR [esp+20], OFFSET FLAT:LC38
	mov	DWORD PTR [esp+16], edx
	mov	DWORD PTR [esp+12], OFFSET FLAT:LC38
	mov	eax, DWORD PTR [esp+64]
	mov	DWORD PTR [esp+8], eax
	mov	DWORD PTR [esp+4], OFFSET FLAT:LC38
	mov	DWORD PTR [esp], ebp
	call	_g_strconcat
LVL477:
	mov	edx, eax
LVL478:
	.loc 1 853 0 is_stmt 1 discriminator 6
	mov	ecx, -1
	mov	edi, eax
LVL479:
	xor	eax, eax
LVL480:
	repne scasb
LVL481:
	not	ecx
	dec	ecx
	mov	DWORD PTR [esp+8], ecx
	mov	DWORD PTR [esp+4], edx
	mov	eax, DWORD PTR [esp+72]
	mov	DWORD PTR [esp], eax
	mov	DWORD PTR [esp+60], edx
	call	_purple_cipher_context_append
LVL482:
	.loc 1 855 0 discriminator 6
	mov	edx, DWORD PTR [esp+60]
	mov	DWORD PTR [esp], edx
	call	_g_free
LVL483:
	.loc 1 856 0 discriminator 6
	mov	DWORD PTR [esp], ebp
	call	_g_free
LVL484:
	.loc 1 857 0 discriminator 6
	mov	eax, DWORD PTR [esp+64]
	mov	DWORD PTR [esp], eax
	call	_g_free
LVL485:
	.loc 1 858 0 discriminator 6
	mov	DWORD PTR [esp], ebx
	call	_g_free
LVL486:
	.loc 1 859 0 discriminator 6
	mov	edx, DWORD PTR [esp+68]
	mov	DWORD PTR [esp], edx
	call	_g_free
LVL487:
LBE92:
	.loc 1 837 0 discriminator 6
	mov	esi, DWORD PTR [esi+4]
LVL488:
	test	esi, esi
	je	L405
LVL489:
L440:
LBB93:
	.loc 1 838 0
	mov	edi, DWORD PTR [esi]
LVL490:
	.loc 1 839 0
	mov	DWORD PTR [esp+4], -1
	mov	eax, DWORD PTR [edi]
	mov	DWORD PTR [esp], eax
	call	_g_markup_escape_text
LVL491:
	mov	ebp, eax
LVL492:
	.loc 1 840 0
	mov	DWORD PTR [esp+4], -1
	mov	eax, DWORD PTR [edi+4]
LVL493:
	mov	DWORD PTR [esp], eax
	call	_g_markup_escape_text
LVL494:
	mov	DWORD PTR [esp+64], eax
LVL495:
	.loc 1 845 0
	mov	eax, DWORD PTR [edi+12]
LVL496:
	test	eax, eax
	jne	L457
	.loc 1 841 0
	xor	ebx, ebx
LVL497:
	.loc 1 847 0
	mov	eax, DWORD PTR [edi+8]
	test	eax, eax
	jne	L458
LVL498:
L401:
	.loc 1 850 0
	mov	DWORD PTR [esp+68], 0
	mov	eax, OFFSET FLAT:LC37
	test	ebx, ebx
	jne	L427
L456:
	mov	edx, OFFSET FLAT:LC37
	jmp	L403
LVL499:
L405:
LBE93:
	.loc 1 863 0
	mov	eax, DWORD PTR [esp+76]
	mov	ebx, DWORD PTR [eax+4]
LVL500:
	test	ebx, ebx
	je	L399
	mov	esi, DWORD PTR [esp+72]
	.p2align 2,,3
L439:
	.loc 1 864 0 discriminator 2
	mov	edx, DWORD PTR [ebx]
	mov	eax, esi
	call	_append_escaped_string
LVL501:
	.loc 1 863 0 discriminator 2
	mov	ebx, DWORD PTR [ebx+4]
LVL502:
	test	ebx, ebx
	jne	L439
L399:
	.loc 1 868 0
	mov	eax, DWORD PTR [esp+76]
	mov	eax, DWORD PTR [eax+8]
	mov	DWORD PTR [esp+64], eax
LVL503:
	test	eax, eax
	je	L407
LVL504:
	.p2align 2,,3
L435:
LBB94:
	.loc 1 869 0
	mov	edx, DWORD PTR [esp+64]
	mov	ebx, DWORD PTR [edx]
LVL505:
	.loc 1 870 0
	mov	DWORD PTR [esp], ebx
	call	_jabber_x_data_get_formtype
LVL506:
	mov	DWORD PTR [esp+68], eax
LVL507:
LBB95:
LBB96:
	.loc 1 787 0
	test	ebx, ebx
	je	L410
	.loc 1 790 0
	mov	DWORD PTR [esp+4], OFFSET FLAT:LC39
	mov	DWORD PTR [esp], ebx
	call	_xmlnode_get_child
LVL508:
	mov	esi, eax
LVL509:
	xor	ebp, ebp
	test	eax, eax
	je	L411
LVL510:
	.p2align 2,,3
L413:
LBB97:
	.loc 1 792 0
	mov	DWORD PTR [esp], 8
	call	_g_malloc0
LVL511:
	mov	edi, eax
LVL512:
	.loc 1 793 0
	mov	DWORD PTR [esp+4], OFFSET FLAT:LC8
	mov	DWORD PTR [esp], esi
	call	_xmlnode_get_attrib
LVL513:
	mov	DWORD PTR [esp], eax
	call	_g_strdup
LVL514:
	mov	DWORD PTR [edi], eax
	.loc 1 795 0
	mov	DWORD PTR [esp+4], OFFSET FLAT:LC40
	mov	DWORD PTR [esp], esi
	call	_xmlnode_get_child
LVL515:
	mov	ebx, eax
LVL516:
	test	eax, eax
	je	L415
	.p2align 2,,3
L438:
LBB98:
	.loc 1 796 0
	mov	DWORD PTR [esp], ebx
	call	_xmlnode_get_data
LVL517:
	.loc 1 797 0
	mov	DWORD PTR [esp+4], eax
	mov	eax, DWORD PTR [edi+4]
LVL518:
	mov	DWORD PTR [esp], eax
	call	_g_list_append
LVL519:
	mov	DWORD PTR [edi+4], eax
LBE98:
	.loc 1 795 0
	mov	DWORD PTR [esp], ebx
	call	_xmlnode_get_next_twin
LVL520:
	mov	ebx, eax
LVL521:
	test	eax, eax
	jne	L438
L415:
	.loc 1 800 0
	mov	DWORD PTR [esp+4], OFFSET FLAT:_strcmp
	mov	eax, DWORD PTR [edi+4]
LVL522:
	mov	DWORD PTR [esp], eax
	call	_g_list_sort
LVL523:
	mov	DWORD PTR [edi+4], eax
	.loc 1 801 0
	mov	DWORD PTR [esp+4], edi
	mov	DWORD PTR [esp], ebp
	call	_g_list_append
LVL524:
	mov	ebp, eax
LVL525:
LBE97:
	.loc 1 790 0
	mov	DWORD PTR [esp], esi
	call	_xmlnode_get_next_twin
LVL526:
	mov	esi, eax
LVL527:
	test	eax, eax
	jne	L413
LVL528:
L411:
	.loc 1 804 0
	mov	DWORD PTR [esp+4], OFFSET FLAT:_jabber_caps_xdata_field_compare
	mov	DWORD PTR [esp], ebp
	call	_g_list_sort
LVL529:
	mov	ebx, eax
LVL530:
LBE96:
LBE95:
	.loc 1 874 0
	mov	edx, DWORD PTR [esp+68]
	mov	eax, DWORD PTR [esp+72]
LVL531:
	call	_append_escaped_string
LVL532:
	.loc 1 875 0
	mov	eax, DWORD PTR [esp+68]
	mov	DWORD PTR [esp], eax
	call	_g_free
LVL533:
	.loc 1 877 0
	test	ebx, ebx
	je	L417
	mov	ebp, DWORD PTR [esp+72]
	jmp	L436
LVL534:
	.p2align 2,,3
L421:
LBB100:
	.loc 1 891 0
	mov	eax, DWORD PTR [edi]
	mov	DWORD PTR [esp], eax
	call	_g_free
LVL535:
	.loc 1 892 0
	mov	eax, DWORD PTR [edi+4]
	mov	DWORD PTR [esp], eax
	call	_g_list_free
LVL536:
	.loc 1 894 0
	mov	DWORD PTR [esp+4], ebx
	mov	DWORD PTR [esp], ebx
	call	_g_list_delete_link
LVL537:
	mov	ebx, eax
LVL538:
LBE100:
	.loc 1 877 0
	test	eax, eax
	je	L417
LVL539:
L436:
LBB101:
	.loc 1 879 0
	mov	edi, DWORD PTR [ebx]
LVL540:
	.loc 1 881 0
	mov	DWORD PTR [esp+4], OFFSET FLAT:LC41
	mov	eax, DWORD PTR [edi]
	mov	DWORD PTR [esp], eax
	call	_g_str_equal
LVL541:
	test	eax, eax
	jne	L421
	.loc 1 883 0
	mov	edx, DWORD PTR [edi]
	mov	eax, ebp
	call	_append_escaped_string
LVL542:
	.loc 1 885 0
	mov	esi, DWORD PTR [edi+4]
LVL543:
	test	esi, esi
	je	L421
	.p2align 2,,3
L437:
	.loc 1 886 0 discriminator 2
	mov	edx, DWORD PTR [esi]
	mov	eax, ebp
	call	_append_escaped_string
LVL544:
	.loc 1 887 0 discriminator 2
	mov	eax, DWORD PTR [esi]
	mov	DWORD PTR [esp], eax
	call	_g_free
LVL545:
	.loc 1 885 0 discriminator 2
	mov	esi, DWORD PTR [esi+4]
LVL546:
	test	esi, esi
	jne	L437
	jmp	L421
LVL547:
L410:
LBE101:
	.loc 1 874 0
	mov	edx, DWORD PTR [esp+68]
	mov	eax, DWORD PTR [esp+72]
LVL548:
	call	_append_escaped_string
LVL549:
	.loc 1 875 0
	mov	eax, DWORD PTR [esp+68]
	mov	DWORD PTR [esp], eax
	call	_g_free
LVL550:
	.p2align 2,,3
L417:
LBE94:
	.loc 1 868 0
	mov	edx, DWORD PTR [esp+64]
	mov	edx, DWORD PTR [edx+4]
	mov	DWORD PTR [esp+64], edx
LVL551:
	test	edx, edx
	jne	L435
LVL552:
L407:
	.loc 1 900 0
	lea	eax, [esp+84]
	mov	DWORD PTR [esp+12], eax
	lea	ebx, [esp+88]
	mov	DWORD PTR [esp+8], ebx
	.loc 1 899 0
	mov	eax, DWORD PTR [esp+84]
	mov	DWORD PTR [esp+4], eax
	mov	eax, DWORD PTR [esp+72]
	mov	DWORD PTR [esp], eax
	call	_purple_cipher_context_digest
LVL553:
	mov	esi, eax
LVL554:
	.loc 1 902 0
	mov	eax, DWORD PTR [esp+72]
LVL555:
	mov	DWORD PTR [esp], eax
	call	_purple_cipher_context_destroy
LVL556:
	.loc 1 904 0
	test	esi, esi
	jne	L459
LVL557:
L396:
LBB103:
LBB102:
LBB99:
	.loc 1 829 0
	xor	eax, eax
L395:
LBE99:
LBE102:
LBE103:
	.loc 1 905 0
	mov	edx, DWORD PTR [esp+108]
	xor	edx, DWORD PTR ___stack_chk_guard
	jne	L460
	add	esp, 124
LCFI180:
	.cfi_remember_state
	.cfi_def_cfa_offset 20
	pop	ebx
LCFI181:
	.cfi_restore 3
	.cfi_def_cfa_offset 16
	pop	esi
LCFI182:
	.cfi_restore 6
	.cfi_def_cfa_offset 12
	pop	edi
LCFI183:
	.cfi_restore 7
	.cfi_def_cfa_offset 8
	pop	ebp
LCFI184:
	.cfi_restore 5
	.cfi_def_cfa_offset 4
	ret
LVL558:
L459:
LCFI185:
	.cfi_restore_state
	.loc 1 904 0 discriminator 1
	mov	eax, DWORD PTR [esp+84]
	mov	DWORD PTR [esp+4], eax
	mov	DWORD PTR [esp], ebx
	call	_purple_base64_encode
LVL559:
	jmp	L395
LVL560:
L460:
	.loc 1 905 0
	call	___stack_chk_fail
LVL561:
	.cfi_endproc
LFE119:
	.section .rdata,"dr"
LC42:
	.ascii "(null)\0"
LC43:
	.ascii "sha-1\0"
LC44:
	.ascii "sha1\0"
LC45:
	.ascii "md5\0"
LC46:
	.ascii "from\0"
	.align 4
LC47:
	.ascii "Could not validate caps info from %s. Expected %s, got %s\12\0"
	.text
	.p2align 2,,3
	.def	_jabber_caps_client_iqcb;	.scl	3;	.type	32;	.endef
_jabber_caps_client_iqcb:
LFB111:
	.loc 1 438 0
	.cfi_startproc
LVL562:
	push	ebp
LCFI186:
	.cfi_def_cfa_offset 8
	.cfi_offset 5, -8
	push	edi
LCFI187:
	.cfi_def_cfa_offset 12
	.cfi_offset 7, -12
	push	esi
LCFI188:
	.cfi_def_cfa_offset 16
	.cfi_offset 6, -16
	push	ebx
LCFI189:
	.cfi_def_cfa_offset 20
	.cfi_offset 3, -20
	sub	esp, 76
LCFI190:
	.cfi_def_cfa_offset 96
	mov	edi, DWORD PTR [esp+104]
	mov	esi, DWORD PTR [esp+112]
	mov	ebx, DWORD PTR [esp+116]
	.loc 1 438 0
	mov	eax, DWORD PTR ___stack_chk_guard
	mov	DWORD PTR [esp+60], eax
	xor	eax, eax
	.loc 1 439 0
	mov	DWORD PTR [esp+8], OFFSET FLAT:LC21
	mov	DWORD PTR [esp+4], OFFSET FLAT:LC22
	mov	DWORD PTR [esp], esi
	call	_xmlnode_get_child_with_namespace
LVL563:
	.loc 1 445 0
	test	eax, eax
	je	L462
	.loc 1 445 0 is_stmt 0 discriminator 1
	cmp	edi, 3
	je	L462
	.loc 1 453 0 is_stmt 1
	mov	DWORD PTR [esp], eax
	call	_jabber_caps_parse_client_info
LVL564:
	mov	edi, eax
LVL565:
	.loc 1 456 0
	mov	eax, DWORD PTR [ebx+24]
LVL566:
	test	eax, eax
	je	L465
LVL567:
LBB108:
	.loc 1 463 0
	mov	DWORD PTR [esp+4], OFFSET FLAT:LC43
	mov	DWORD PTR [esp], eax
	call	_g_str_equal
LVL568:
	test	eax, eax
	je	L466
	.loc 1 464 0
	mov	DWORD PTR [esp+4], OFFSET FLAT:LC44
	mov	DWORD PTR [esp], edi
	call	_jabber_caps_calculate_hash
LVL569:
	mov	ebp, eax
LVL570:
L467:
	.loc 1 469 0
	test	ebp, ebp
	je	L468
	.loc 1 469 0 is_stmt 0 discriminator 1
	mov	eax, DWORD PTR [ebx+20]
LVL571:
	mov	DWORD PTR [esp+4], eax
	mov	DWORD PTR [esp], ebp
	call	_g_str_equal
LVL572:
	test	eax, eax
	jne	L469
	.loc 1 469 0
	mov	DWORD PTR [esp+44], ebp
	jmp	L475
LVL573:
	.p2align 2,,3
L462:
LBE108:
	.loc 1 447 0 is_stmt 1
	mov	eax, DWORD PTR [ebx+8]
LVL574:
	mov	DWORD PTR [esp+8], eax
	mov	DWORD PTR [esp+4], 0
	mov	DWORD PTR [esp], 0
	call	[DWORD PTR [ebx+4]]
LVL575:
	.loc 1 448 0
	mov	eax, ebx
	call	_cbplususerdata_unref
LVL576:
L461:
	.loc 1 519 0
	mov	eax, DWORD PTR [esp+60]
	xor	eax, DWORD PTR ___stack_chk_guard
	jne	L491
	add	esp, 76
LCFI191:
	.cfi_remember_state
	.cfi_def_cfa_offset 20
	pop	ebx
LCFI192:
	.cfi_restore 3
	.cfi_def_cfa_offset 16
LVL577:
	pop	esi
LCFI193:
	.cfi_restore 6
	.cfi_def_cfa_offset 12
	pop	edi
LCFI194:
	.cfi_restore 7
	.cfi_def_cfa_offset 8
	pop	ebp
LCFI195:
	.cfi_restore 5
	.cfi_def_cfa_offset 4
	ret
LVL578:
	.p2align 2,,3
L466:
LCFI196:
	.cfi_restore_state
LBB109:
	.loc 1 465 0
	mov	DWORD PTR [esp+4], OFFSET FLAT:LC45
	mov	eax, DWORD PTR [ebx+24]
	mov	DWORD PTR [esp], eax
	call	_g_str_equal
LVL579:
	test	eax, eax
	jne	L492
LVL580:
L468:
	.loc 1 469 0
	mov	DWORD PTR [esp+44], 0
	.loc 1 470 0
	mov	ebp, OFFSET FLAT:LC42
L475:
	.loc 1 470 0 is_stmt 0 discriminator 3
	mov	ecx, DWORD PTR [ebx+20]
	mov	DWORD PTR [esp+4], OFFSET FLAT:LC46
	mov	DWORD PTR [esp], esi
	mov	DWORD PTR [esp+40], ecx
	call	_xmlnode_get_attrib
LVL581:
	mov	DWORD PTR [esp+16], ebp
	mov	ecx, DWORD PTR [esp+40]
	mov	DWORD PTR [esp+12], ecx
	mov	DWORD PTR [esp+8], eax
	mov	DWORD PTR [esp+4], OFFSET FLAT:LC47
	mov	DWORD PTR [esp], OFFSET FLAT:LC1
	call	_purple_debug_warning
LVL582:
	.loc 1 475 0 is_stmt 1 discriminator 3
	mov	eax, DWORD PTR [ebx+8]
	mov	DWORD PTR [esp+8], eax
	mov	DWORD PTR [esp+4], 0
	mov	DWORD PTR [esp], 0
	call	[DWORD PTR [ebx+4]]
LVL583:
	.loc 1 476 0 discriminator 3
	mov	DWORD PTR [esp], edi
	call	_jabber_caps_client_info_destroy
LVL584:
	.loc 1 477 0 discriminator 3
	mov	eax, ebx
	call	_cbplususerdata_unref
LVL585:
	.loc 1 478 0 discriminator 3
	mov	eax, DWORD PTR [esp+44]
	mov	DWORD PTR [esp], eax
	call	_g_free
LVL586:
	jmp	L461
LVL587:
	.p2align 2,,3
L469:
	.loc 1 482 0
	mov	DWORD PTR [esp], ebp
	call	_g_free
LVL588:
LBE109:
	.loc 1 485 0
	mov	edx, DWORD PTR [ebx+24]
	test	edx, edx
	je	L465
LVL589:
L470:
	.loc 1 492 0
	mov	eax, DWORD PTR [ebx+16]
	mov	DWORD PTR [esp+48], eax
	.loc 1 493 0
	mov	eax, DWORD PTR [ebx+20]
	mov	DWORD PTR [esp+52], eax
	.loc 1 494 0
	mov	DWORD PTR [esp+56], edx
	.loc 1 498 0
	lea	eax, [esp+48]
	mov	DWORD PTR [esp+4], eax
	mov	eax, DWORD PTR _capstable
	mov	DWORD PTR [esp], eax
	call	_g_hash_table_lookup
LVL590:
	mov	esi, eax
LVL591:
	test	eax, eax
	je	L471
	.loc 1 499 0
	mov	DWORD PTR [esp], edi
	call	_jabber_caps_client_info_destroy
LVL592:
	mov	edi, esi
LVL593:
L472:
	.loc 1 513 0
	mov	DWORD PTR [ebx+28], edi
	.loc 1 515 0
	mov	eax, DWORD PTR [ebx+36]
	test	eax, eax
	jne	L473
	.loc 1 516 0
	mov	eax, ebx
	call	_jabber_caps_get_info_complete
LVL594:
L473:
	.loc 1 518 0
	mov	eax, ebx
	call	_cbplususerdata_unref
LVL595:
	jmp	L461
LVL596:
	.p2align 2,,3
L492:
LBB110:
	.loc 1 466 0
	mov	DWORD PTR [esp+4], OFFSET FLAT:LC45
	mov	DWORD PTR [esp], edi
	call	_jabber_caps_calculate_hash
LVL597:
	mov	ebp, eax
LVL598:
	jmp	L467
LVL599:
	.p2align 2,,3
L465:
LBE110:
	.loc 1 485 0 discriminator 1
	mov	eax, DWORD PTR [ebx+40]
	test	eax, eax
	je	L477
	.loc 1 488 0
	mov	DWORD PTR [edi+12], eax
	.loc 1 489 0
	mov	DWORD PTR [ebx+40], 0
	xor	edx, edx
	jmp	L470
LVL600:
	.p2align 2,,3
L471:
LBB111:
	.loc 1 503 0
	mov	eax, DWORD PTR [ebx+16]
LVL601:
	mov	DWORD PTR [edi+16], eax
	.loc 1 504 0
	mov	eax, DWORD PTR [ebx+20]
	mov	DWORD PTR [edi+20], eax
	.loc 1 505 0
	mov	eax, DWORD PTR [ebx+24]
	mov	DWORD PTR [edi+24], eax
	.loc 1 506 0
	mov	DWORD PTR [ebx+24], 0
	mov	DWORD PTR [ebx+20], 0
	mov	DWORD PTR [ebx+16], 0
	.loc 1 509 0
	mov	DWORD PTR [esp+8], edi
	.loc 1 502 0
	lea	eax, [edi+16]
LVL602:
	mov	DWORD PTR [esp+4], eax
	.loc 1 509 0
	mov	eax, DWORD PTR _capstable
LVL603:
	mov	DWORD PTR [esp], eax
	call	_g_hash_table_insert
LVL604:
LBB112:
LBB113:
	.loc 1 223 0
	mov	eax, DWORD PTR _save_timer
	test	eax, eax
	jne	L472
	call	_schedule_caps_save.part.5
LVL605:
	jmp	L472
LVL606:
L477:
LBE113:
LBE112:
LBE111:
	.loc 1 485 0
	xor	edx, edx
	jmp	L470
LVL607:
L491:
	.loc 1 519 0
	call	___stack_chk_fail
LVL608:
	.cfi_endproc
LFE111:
	.section .rdata,"dr"
	.align 4
LC48:
	.ascii "No features or identities, cannot calculate own caps hash.\12\0"
	.text
	.p2align 2,,3
	.globl	_jabber_caps_calculate_own_hash
	.def	_jabber_caps_calculate_own_hash;	.scl	2;	.type	32;	.endef
_jabber_caps_calculate_own_hash:
LFB120:
	.loc 1 907 0
	.cfi_startproc
LVL609:
	push	ebp
LCFI197:
	.cfi_def_cfa_offset 8
	.cfi_offset 5, -8
	push	edi
LCFI198:
	.cfi_def_cfa_offset 12
	.cfi_offset 7, -12
	push	esi
LCFI199:
	.cfi_def_cfa_offset 16
	.cfi_offset 6, -16
	push	ebx
LCFI200:
	.cfi_def_cfa_offset 20
	.cfi_offset 3, -20
	sub	esp, 60
LCFI201:
	.cfi_def_cfa_offset 80
	mov	ebp, DWORD PTR [esp+80]
	.loc 1 907 0
	mov	eax, DWORD PTR ___stack_chk_guard
	mov	DWORD PTR [esp+44], eax
	xor	eax, eax
LVL610:
	.loc 1 912 0
	mov	ebx, DWORD PTR _jabber_features
	mov	eax, DWORD PTR _jabber_identities
	test	eax, eax
	je	L505
	.loc 1 921 0
	test	ebx, ebx
	je	L506
L495:
LVL611:
	.loc 1 907 0
	xor	edi, edi
LVL612:
	.p2align 2,,3
L501:
LBB114:
	.loc 1 923 0
	mov	esi, DWORD PTR [ebx]
LVL613:
	.loc 1 924 0
	mov	eax, DWORD PTR [esi+4]
	test	eax, eax
	je	L500
	.loc 1 924 0 is_stmt 0 discriminator 1
	mov	edx, DWORD PTR [esi]
	mov	DWORD PTR [esp+4], edx
	mov	DWORD PTR [esp], ebp
	call	eax
LVL614:
	test	eax, eax
	je	L499
L500:
	.loc 1 925 0 is_stmt 1
	mov	eax, DWORD PTR [esi]
	mov	DWORD PTR [esp+4], eax
	mov	DWORD PTR [esp], edi
	call	_g_list_append
LVL615:
	mov	edi, eax
LVL616:
L499:
LBE114:
	.loc 1 922 0
	mov	ebx, DWORD PTR [ebx+4]
LVL617:
	test	ebx, ebx
	jne	L501
LVL618:
L497:
	.loc 1 930 0
	mov	DWORD PTR [esp+20], edi
	.loc 1 935 0
	mov	eax, DWORD PTR _jabber_identities
	mov	DWORD PTR [esp], eax
	call	_g_list_copy
LVL619:
	mov	DWORD PTR [esp+16], eax
	.loc 1 936 0
	mov	DWORD PTR [esp+24], 0
	.loc 1 938 0
	mov	eax, DWORD PTR [ebp+216]
	mov	DWORD PTR [esp], eax
	call	_g_free
LVL620:
	.loc 1 939 0
	mov	DWORD PTR [esp+4], OFFSET FLAT:LC44
	lea	eax, [esp+16]
	mov	DWORD PTR [esp], eax
	call	_jabber_caps_calculate_hash
LVL621:
	mov	DWORD PTR [ebp+216], eax
	.loc 1 940 0
	mov	eax, DWORD PTR [esp+16]
	mov	DWORD PTR [esp], eax
	call	_g_list_free
LVL622:
	.loc 1 941 0
	mov	eax, DWORD PTR [esp+20]
	mov	DWORD PTR [esp], eax
	call	_g_list_free
LVL623:
L493:
	.loc 1 942 0
	mov	eax, DWORD PTR [esp+44]
	xor	eax, DWORD PTR ___stack_chk_guard
	jne	L507
	add	esp, 60
LCFI202:
	.cfi_remember_state
	.cfi_def_cfa_offset 20
	pop	ebx
LCFI203:
	.cfi_restore 3
	.cfi_def_cfa_offset 16
	pop	esi
LCFI204:
	.cfi_restore 6
	.cfi_def_cfa_offset 12
	pop	edi
LCFI205:
	.cfi_restore 7
	.cfi_def_cfa_offset 8
	pop	ebp
LCFI206:
	.cfi_restore 5
	.cfi_def_cfa_offset 4
	ret
LVL624:
	.p2align 2,,3
L506:
LCFI207:
	.cfi_restore_state
	.loc 1 910 0
	xor	edi, edi
	jmp	L497
	.p2align 2,,3
L505:
	.loc 1 912 0 discriminator 1
	test	ebx, ebx
	jne	L495
	.loc 1 914 0
	mov	DWORD PTR [esp+4], OFFSET FLAT:LC48
	mov	DWORD PTR [esp], OFFSET FLAT:LC1
	call	_purple_debug_warning
LVL625:
	.loc 1 915 0
	mov	eax, DWORD PTR [ebp+216]
	mov	DWORD PTR [esp], eax
	call	_g_free
LVL626:
	.loc 1 916 0
	mov	DWORD PTR [ebp+216], 0
	jmp	L493
LVL627:
L507:
	.loc 1 942 0
	call	___stack_chk_fail
LVL628:
	.cfi_endproc
LFE120:
	.p2align 2,,3
	.globl	_jabber_caps_get_own_hash
	.def	_jabber_caps_get_own_hash;	.scl	2;	.type	32;	.endef
_jabber_caps_get_own_hash:
LFB121:
	.loc 1 945 0
	.cfi_startproc
LVL629:
	push	ebx
LCFI208:
	.cfi_def_cfa_offset 8
	.cfi_offset 3, -8
	sub	esp, 40
LCFI209:
	.cfi_def_cfa_offset 48
	mov	ebx, DWORD PTR [esp+48]
	.loc 1 945 0
	mov	eax, DWORD PTR ___stack_chk_guard
	mov	DWORD PTR [esp+28], eax
	xor	eax, eax
	.loc 1 946 0
	mov	eax, DWORD PTR [ebx+216]
	test	eax, eax
	je	L512
L509:
	.loc 1 950 0
	mov	edx, DWORD PTR [esp+28]
	xor	edx, DWORD PTR ___stack_chk_guard
	jne	L513
	add	esp, 40
LCFI210:
	.cfi_remember_state
	.cfi_def_cfa_offset 8
	pop	ebx
LCFI211:
	.cfi_restore 3
	.cfi_def_cfa_offset 4
	ret
	.p2align 2,,3
L512:
LCFI212:
	.cfi_restore_state
	.loc 1 947 0
	mov	DWORD PTR [esp], ebx
	call	_jabber_caps_calculate_own_hash
LVL630:
	mov	eax, DWORD PTR [ebx+216]
	jmp	L509
L513:
	.loc 1 950 0
	call	___stack_chk_fail
LVL631:
	.cfi_endproc
LFE121:
	.section .rdata,"dr"
LC49:
	.ascii "prpl-jabber\0"
	.text
	.p2align 2,,3
	.globl	_jabber_caps_broadcast_change
	.def	_jabber_caps_broadcast_change;	.scl	2;	.type	32;	.endef
_jabber_caps_broadcast_change:
LFB122:
	.loc 1 953 0
	.cfi_startproc
	push	edi
LCFI213:
	.cfi_def_cfa_offset 8
	.cfi_offset 7, -8
	push	esi
LCFI214:
	.cfi_def_cfa_offset 12
	.cfi_offset 6, -12
	push	ebx
LCFI215:
	.cfi_def_cfa_offset 16
	.cfi_offset 3, -16
	sub	esp, 32
LCFI216:
	.cfi_def_cfa_offset 48
	.loc 1 953 0
	mov	eax, DWORD PTR ___stack_chk_guard
	mov	DWORD PTR [esp+28], eax
	xor	eax, eax
	.loc 1 954 0
	call	_purple_accounts_get_all_active
LVL632:
	mov	edi, eax
LVL633:
	.loc 1 956 0
	mov	ebx, eax
	test	eax, eax
	jne	L524
	jmp	L520
LVL634:
	.p2align 2,,3
L517:
	mov	ebx, DWORD PTR [ebx+4]
LVL635:
	test	ebx, ebx
	je	L520
LVL636:
L524:
LBB115:
	.loc 1 957 0
	mov	esi, DWORD PTR [ebx]
LVL637:
	.loc 1 958 0
	mov	DWORD PTR [esp], esi
	call	_purple_account_get_protocol_id
LVL638:
	.loc 1 959 0
	mov	DWORD PTR [esp+4], eax
	mov	DWORD PTR [esp], OFFSET FLAT:LC49
	call	_g_str_equal
LVL639:
	test	eax, eax
	je	L517
	.loc 1 959 0 is_stmt 0 discriminator 1
	mov	DWORD PTR [esp], esi
	call	_purple_account_is_connected
LVL640:
	test	eax, eax
	je	L517
LBB116:
	.loc 1 960 0 is_stmt 1
	mov	DWORD PTR [esp], esi
	call	_purple_account_get_connection
LVL641:
	.loc 1 961 0
	mov	DWORD PTR [esp+4], 1
	mov	eax, DWORD PTR [eax+28]
LVL642:
	mov	DWORD PTR [esp], eax
	call	_jabber_presence_send
LVL643:
LBE116:
LBE115:
	.loc 1 956 0
	mov	ebx, DWORD PTR [ebx+4]
LVL644:
	test	ebx, ebx
	jne	L524
LVL645:
	.p2align 2,,3
L520:
	.loc 1 965 0
	mov	DWORD PTR [esp], edi
	call	_g_list_free
LVL646:
	.loc 1 966 0
	mov	eax, DWORD PTR [esp+28]
	xor	eax, DWORD PTR ___stack_chk_guard
	jne	L529
	add	esp, 32
LCFI217:
	.cfi_remember_state
	.cfi_def_cfa_offset 16
	pop	ebx
LCFI218:
	.cfi_restore 3
	.cfi_def_cfa_offset 12
LVL647:
	pop	esi
LCFI219:
	.cfi_restore 6
	.cfi_def_cfa_offset 8
	pop	edi
LCFI220:
	.cfi_restore 7
	.cfi_def_cfa_offset 4
LVL648:
	ret
LVL649:
L529:
LCFI221:
	.cfi_restore_state
	call	___stack_chk_fail
LVL650:
	.cfi_endproc
LFE122:
.lcomm _nodetable,4,4
.lcomm _capstable,4,4
	.section .rdata,"dr"
___PRETTY_FUNCTION__.49706:
	.ascii "jabber_caps_node_exts_unref\0"
.lcomm _save_timer,4,4
___PRETTY_FUNCTION__.49825:
	.ascii "jabber_caps_exts_known\0"
___PRETTY_FUNCTION__.49890:
	.ascii "jabber_caps_ext_iqcb\0"
___PRETTY_FUNCTION__.49848:
	.ascii "cbplususerdata_ref\0"
___PRETTY_FUNCTION__.49854:
	.ascii "cbplususerdata_unref\0"
	.text
Letext0:
	.file 2 "c:/workspace/pidgin-devel/win32-dev/mingw-4.7.2/bin/../lib/gcc/mingw32/4.7.2/../../../../include/stdio.h"
	.file 3 "c:/workspace/pidgin-devel/win32-dev/mingw-4.7.2/bin/../lib/gcc/mingw32/4.7.2/include/stddef.h"
	.file 4 "c:/workspace/pidgin-devel/win32-dev/mingw-4.7.2/bin/../lib/gcc/mingw32/4.7.2/../../../../include/sys/types.h"
	.file 5 "c:/workspace/pidgin-devel/win32-dev/mingw-4.7.2/bin/../lib/gcc/mingw32/4.7.2/../../../../include/time.h"
	.file 6 "../../../../win32-dev/gtk_2_0-2.14/lib/glib-2.0/include/glibconfig.h"
	.file 7 "../../../../win32-dev/gtk_2_0-2.14/include/glib-2.0/glib/gtypes.h"
	.file 8 "../../../../win32-dev/gtk_2_0-2.14/include/glib-2.0/glib/garray.h"
	.file 9 "../../../../win32-dev/gtk_2_0-2.14/include/glib-2.0/glib/glist.h"
	.file 10 "../../../../win32-dev/gtk_2_0-2.14/include/glib-2.0/glib/ghash.h"
	.file 11 "../../../../win32-dev/gtk_2_0-2.14/include/glib-2.0/glib/gslist.h"
	.file 12 "../../../../win32-dev/gtk_2_0-2.14/include/glib-2.0/glib/gmain.h"
	.file 13 "../../../../win32-dev/gtk_2_0-2.14/include/glib-2.0/glib/gstring.h"
	.file 14 "../../../../win32-dev/gtk_2_0-2.14/include/glib-2.0/glib/gmessages.h"
	.file 15 "../../../libpurple/account.h"
	.file 16 "../../../libpurple/connection.h"
	.file 17 "../../../libpurple/plugin.h"
	.file 18 "../../../libpurple/pluginpref.h"
	.file 19 "../../../libpurple/status.h"
	.file 20 "../../../libpurple/buddyicon.h"
	.file 21 "../../../libpurple/conversation.h"
	.file 22 "../../../libpurple/log.h"
	.file 23 "c:/workspace/pidgin-devel/win32-dev/mingw-4.7.2/bin/../lib/gcc/mingw32/4.7.2/../../../../include/wtypes.h"
	.file 24 "../../../libpurple/media/../xmlnode.h"
	.file 25 "../../../libpurple/eventloop.h"
	.file 26 "../../../libpurple/proxy.h"
	.file 27 "../../../libpurple/roomlist.h"
	.file 28 "../../../libpurple/sslconn.h"
	.file 29 "../../../libpurple/certificate.h"
	.file 30 "../../../libpurple/privacy.h"
	.file 31 "caps.h"
	.file 32 "jabber.h"
	.file 33 "../../../../win32-dev/libxml2-2.9.0/include/libxml2/libxml/xmlstring.h"
	.file 34 "../../../../win32-dev/libxml2-2.9.0/include/libxml2/libxml/tree.h"
	.file 35 "../../../../win32-dev/libxml2-2.9.0/include/libxml2/libxml/xmlIO.h"
	.file 36 "../../../../win32-dev/libxml2-2.9.0/include/libxml2/libxml/parser.h"
	.file 37 "../../../../win32-dev/libxml2-2.9.0/include/libxml2/libxml/entities.h"
	.file 38 "../../../../win32-dev/libxml2-2.9.0/include/libxml2/libxml/dict.h"
	.file 39 "../../../../win32-dev/libxml2-2.9.0/include/libxml2/libxml/hash.h"
	.file 40 "../../../../win32-dev/libxml2-2.9.0/include/libxml2/libxml/xmlerror.h"
	.file 41 "../../../../win32-dev/libxml2-2.9.0/include/libxml2/libxml/xmlautomata.h"
	.file 42 "../../../../win32-dev/libxml2-2.9.0/include/libxml2/libxml/valid.h"
	.file 43 "../../../../win32-dev/libxml2-2.9.0/include/libxml2/libxml/encoding.h"
	.file 44 "../../../libpurple/circbuffer.h"
	.file 45 "../../../libpurple/dnsquery.h"
	.file 46 "../../../libpurple/dnssrv.h"
	.file 47 "auth.h"
	.file 48 "iq.h"
	.file 49 "jutil.h"
	.file 50 "buddy.h"
	.file 51 "bosh.h"
	.file 52 "../../../../win32-dev/cyrus-sasl-2.1.25/include/sasl/sasl.h"
	.file 53 "../../../libpurple/cipher.h"
	.file 54 "c:/workspace/pidgin-devel/win32-dev/mingw-4.7.2/bin/../lib/gcc/mingw32/4.7.2/../../../../include/ctype.h"
	.file 55 "c:/workspace/pidgin-devel/win32-dev/mingw-4.7.2/bin/../lib/gcc/mingw32/4.7.2/../../../../include/string.h"
	.file 56 "../../../../win32-dev/gtk_2_0-2.14/include/glib-2.0/glib/gmarkup.h"
	.file 57 "../../../libpurple/debug.h"
	.file 58 "../../../../win32-dev/gtk_2_0-2.14/include/glib-2.0/glib/gmem.h"
	.file 59 "xdata.h"
	.file 60 "../../../libpurple/media/../util.h"
	.file 61 "../../../../win32-dev/gtk_2_0-2.14/include/glib-2.0/glib/gstrfuncs.h"
	.file 62 "presence.h"