	.file	"common.c"
	.intel_syntax noprefix
	.text
Ltext0:
	.p2align 2,,3
	.globl	_gg_vsaprintf
	.def	_gg_vsaprintf;	.scl	2;	.type	32;	.endef
_gg_vsaprintf:
LFB60:
	.file 1 "lib/common.c"
	.loc 1 68 0
	.cfi_startproc
LVL0:
	push	ebp
LCFI0:
	.cfi_def_cfa_offset 8
	.cfi_offset 5, -8
	push	edi
LCFI1:
	.cfi_def_cfa_offset 12
	.cfi_offset 7, -12
	push	esi
LCFI2:
	.cfi_def_cfa_offset 16
	.cfi_offset 6, -16
	push	ebx
LCFI3:
	.cfi_def_cfa_offset 20
	.cfi_offset 3, -20
	sub	esp, 60
LCFI4:
	.cfi_def_cfa_offset 80
	mov	edi, DWORD PTR [esp+80]
	mov	edx, DWORD PTR [esp+84]
	mov	DWORD PTR [esp+28], edx
	.loc 1 68 0
	mov	eax, DWORD PTR ___stack_chk_guard
	mov	DWORD PTR [esp+44], eax
	xor	eax, eax
LVL1:
LBB4:
	.loc 1 70 0
	xor	esi, esi
	.loc 1 78 0
	mov	ebx, 128
LVL2:
	.loc 1 80 0
	cmp	ebx, eax
	jge	L3
LVL3:
	.p2align 2,,3
L16:
	.loc 1 82 0
	lea	ebx, [eax+1]
LVL4:
L4:
	.loc 1 87 0
	mov	DWORD PTR [esp+4], ebx
	mov	DWORD PTR [esp], esi
	call	_realloc
LVL5:
	mov	ebp, eax
LVL6:
	test	eax, eax
	je	L14
LVL7:
	.loc 1 94 0
	mov	edx, DWORD PTR [esp+28]
	mov	DWORD PTR [esp+12], edx
	mov	DWORD PTR [esp+8], edi
	mov	DWORD PTR [esp+4], ebx
	mov	DWORD PTR [esp], eax
	call	_vsnprintf
LVL8:
	.loc 1 96 0
	cmp	ebx, eax
	jle	L10
	.loc 1 96 0 is_stmt 0 discriminator 1
	test	eax, eax
	jns	L15
L10:
	.loc 1 96 0
	mov	esi, ebp
LVL9:
	.loc 1 80 0 is_stmt 1
	cmp	ebx, eax
	jl	L16
LVL10:
L3:
	.loc 1 84 0
	sal	ebx
LVL11:
	jmp	L4
LVL12:
	.p2align 2,,3
L14:
	.loc 1 88 0
	mov	DWORD PTR [esp], esi
	call	_free
LVL13:
	.loc 1 89 0
	xor	eax, eax
LVL14:
L6:
LBE4:
	.loc 1 120 0
	mov	edx, DWORD PTR [esp+44]
	xor	edx, DWORD PTR ___stack_chk_guard
	jne	L17
	add	esp, 60
LCFI5:
	.cfi_remember_state
	.cfi_def_cfa_offset 20
	pop	ebx
LCFI6:
	.cfi_restore 3
	.cfi_def_cfa_offset 16
LVL15:
	pop	esi
LCFI7:
	.cfi_restore 6
	.cfi_def_cfa_offset 12
	pop	edi
LCFI8:
	.cfi_restore 7
	.cfi_def_cfa_offset 8
	pop	ebp
LCFI9:
	.cfi_restore 5
	.cfi_def_cfa_offset 4
LVL16:
	ret
LVL17:
	.p2align 2,,3
L15:
LCFI10:
	.cfi_restore_state
LBB5:
	.loc 1 96 0
	mov	eax, ebp
LVL18:
	jmp	L6
LVL19:
L17:
LBE5:
	.loc 1 120 0
	call	___stack_chk_fail
LVL20:
	.cfi_endproc
LFE60:
	.p2align 2,,3
	.globl	_gg_saprintf
	.def	_gg_saprintf;	.scl	2;	.type	32;	.endef
_gg_saprintf:
LFB61:
	.loc 1 135 0
	.cfi_startproc
LVL21:
	sub	esp, 44
LCFI11:
	.cfi_def_cfa_offset 48
	.loc 1 135 0
	mov	eax, DWORD PTR ___stack_chk_guard
	mov	DWORD PTR [esp+28], eax
	xor	eax, eax
	.loc 1 139 0
	lea	eax, [esp+52]
LVL22:
	.loc 1 140 0
	mov	DWORD PTR [esp+4], eax
	mov	eax, DWORD PTR [esp+48]
LVL23:
	mov	DWORD PTR [esp], eax
	call	_gg_vsaprintf
LVL24:
	.loc 1 144 0
	mov	edx, DWORD PTR [esp+28]
	xor	edx, DWORD PTR ___stack_chk_guard
	jne	L21
	add	esp, 44
LCFI12:
	.cfi_remember_state
	.cfi_def_cfa_offset 4
	ret
L21:
LCFI13:
	.cfi_restore_state
	call	___stack_chk_fail
LVL25:
	.cfi_endproc
LFE61:
	.p2align 2,,3
	.globl	_gg_get_line
	.def	_gg_get_line;	.scl	2;	.type	32;	.endef
_gg_get_line:
LFB62:
	.loc 1 161 0
	.cfi_startproc
LVL26:
	push	edi
LCFI14:
	.cfi_def_cfa_offset 8
	.cfi_offset 7, -8
	push	esi
LCFI15:
	.cfi_def_cfa_offset 12
	.cfi_offset 6, -12
	push	ebx
LCFI16:
	.cfi_def_cfa_offset 16
	.cfi_offset 3, -16
	sub	esp, 32
LCFI17:
	.cfi_def_cfa_offset 48
	mov	esi, DWORD PTR [esp+48]
	.loc 1 161 0
	mov	eax, DWORD PTR ___stack_chk_guard
	mov	DWORD PTR [esp+28], eax
	xor	eax, eax
	.loc 1 164 0
	test	esi, esi
	je	L27
	.loc 1 164 0 is_stmt 0 discriminator 1
	mov	ebx, DWORD PTR [esi]
	test	ebx, ebx
	je	L23
	cmp	BYTE PTR [ebx], 0
	je	L27
LVL27:
	.loc 1 169 0 is_stmt 1
	mov	DWORD PTR [esp+4], 10
	mov	DWORD PTR [esp], ebx
	call	_strchr
LVL28:
	test	eax, eax
	je	L32
LBB6:
	.loc 1 173 0
	lea	edx, [eax+1]
	mov	DWORD PTR [esi], edx
	.loc 1 174 0
	mov	BYTE PTR [eax], 0
	.loc 1 176 0
	xor	eax, eax
LVL29:
	mov	ecx, -1
	mov	edi, ebx
	repne scasb
LVL30:
	not	ecx
	lea	eax, [ecx-1]
LVL31:
	.loc 1 178 0
	cmp	eax, 1
	jbe	L23
	.loc 1 178 0 is_stmt 0 discriminator 1
	lea	eax, [ebx-2+ecx]
LVL32:
	cmp	BYTE PTR [eax], 13
	je	L33
LVL33:
L23:
LBE6:
	.loc 1 183 0 is_stmt 1
	mov	eax, ebx
	mov	edx, DWORD PTR [esp+28]
	xor	edx, DWORD PTR ___stack_chk_guard
	jne	L34
	add	esp, 32
LCFI18:
	.cfi_remember_state
	.cfi_def_cfa_offset 16
	pop	ebx
LCFI19:
	.cfi_restore 3
	.cfi_def_cfa_offset 12
	pop	esi
LCFI20:
	.cfi_restore 6
	.cfi_def_cfa_offset 8
	pop	edi
LCFI21:
	.cfi_restore 7
	.cfi_def_cfa_offset 4
	ret
LVL34:
	.p2align 2,,3
L33:
LCFI22:
	.cfi_restore_state
LBB7:
	.loc 1 179 0
	mov	BYTE PTR [eax], 0
	jmp	L23
LVL35:
	.p2align 2,,3
L32:
LBE7:
	.loc 1 170 0
	mov	ecx, -1
	mov	edi, ebx
	repne scasb
LVL36:
	not	ecx
	lea	eax, [ebx-1+ecx]
LVL37:
	mov	DWORD PTR [esi], eax
	jmp	L23
	.p2align 2,,3
L27:
	.loc 1 165 0
	xor	ebx, ebx
	jmp	L23
L34:
	.loc 1 183 0
	call	___stack_chk_fail
LVL38:
	.cfi_endproc
LFE62:
	.section .rdata,"dr"
	.align 4
LC0:
	.ascii "// gg_read_line() error on read (errno=%d, %s)\12\0"
	.align 4
LC1:
	.ascii "// gg_read_line() eof reached\12\0"
	.text
	.p2align 2,,3
	.globl	_gg_read_line
	.def	_gg_read_line;	.scl	2;	.type	32;	.endef
_gg_read_line:
LFB63:
	.loc 1 202 0
	.cfi_startproc
LVL39:
	push	edi
LCFI23:
	.cfi_def_cfa_offset 8
	.cfi_offset 7, -8
	push	esi
LCFI24:
	.cfi_def_cfa_offset 12
	.cfi_offset 6, -12
	push	ebx
LCFI25:
	.cfi_def_cfa_offset 16
	.cfi_offset 3, -16
	sub	esp, 32
LCFI26:
	.cfi_def_cfa_offset 48
	mov	esi, DWORD PTR [esp+48]
	mov	ebx, DWORD PTR [esp+52]
	mov	eax, DWORD PTR [esp+56]
	.loc 1 202 0
	mov	edx, DWORD PTR ___stack_chk_guard
	mov	DWORD PTR [esp+28], edx
	xor	edx, edx
	.loc 1 205 0
	test	ebx, ebx
	je	L36
	.loc 1 205 0 is_stmt 0 discriminator 1
	test	eax, eax
	js	L49
LVL40:
	.loc 1 208 0 is_stmt 1 discriminator 1
	cmp	eax, 1
	jle	L37
	.loc 1 201 0
	lea	edi, [ebx-1+eax]
LVL41:
	.p2align 2,,3
L55:
	.loc 1 210 0
	mov	DWORD PTR [esp+12], 0
	mov	DWORD PTR [esp+8], 1
	mov	DWORD PTR [esp+4], ebx
	mov	DWORD PTR [esp], esi
	call	_gg_win32_recv
LVL42:
	cmp	eax, -1
	je	L60
	.loc 1 218 0
	test	eax, eax
	je	L40
	.loc 1 226 0
	cmp	BYTE PTR [ebx], 10
	je	L61
LVL43:
L56:
	.loc 1 208 0
	inc	ebx
LVL44:
	cmp	ebx, edi
	jne	L55
L37:
	.loc 1 232 0
	mov	BYTE PTR [ebx], 0
LVL45:
	.p2align 2,,3
L36:
	.loc 1 234 0
	mov	eax, ebx
	mov	edx, DWORD PTR [esp+28]
	xor	edx, DWORD PTR ___stack_chk_guard
	jne	L62
	add	esp, 32
LCFI27:
	.cfi_remember_state
	.cfi_def_cfa_offset 16
	pop	ebx
LCFI28:
	.cfi_restore 3
	.cfi_def_cfa_offset 12
	pop	esi
LCFI29:
	.cfi_restore 6
	.cfi_def_cfa_offset 8
	pop	edi
LCFI30:
	.cfi_restore 7
	.cfi_def_cfa_offset 4
	ret
LVL46:
	.p2align 2,,3
L60:
LCFI31:
	.cfi_restore_state
	.loc 1 211 0 discriminator 1
	call	__errno
LVL47:
	.loc 1 210 0 discriminator 1
	cmp	DWORD PTR [eax], 4
	je	L39
	.loc 1 211 0
	call	__errno
LVL48:
	cmp	DWORD PTR [eax], 11
	jne	L63
L39:
	.loc 1 224 0
	call	__errno
LVL49:
	cmp	DWORD PTR [eax], 4
	je	L55
	.loc 1 224 0 is_stmt 0 discriminator 1
	call	__errno
LVL50:
	cmp	DWORD PTR [eax], 11
	je	L55
	.loc 1 226 0 is_stmt 1
	cmp	BYTE PTR [ebx], 10
	jne	L56
	.p2align 2,,3
L61:
	.loc 1 227 0
	inc	ebx
LVL51:
	.loc 1 228 0
	jmp	L37
LVL52:
	.p2align 2,,3
L40:
	.loc 1 219 0
	mov	DWORD PTR [esp+4], OFFSET FLAT:LC1
	mov	DWORD PTR [esp], 16
	call	_gg_debug
LVL53:
	.loc 1 221 0
	mov	BYTE PTR [ebx], 0
	.loc 1 222 0
	xor	ebx, ebx
	jmp	L36
L63:
	.loc 1 215 0
	call	__errno
LVL54:
	.loc 1 213 0
	mov	eax, DWORD PTR [eax]
	mov	DWORD PTR [esp], eax
	call	_strerror
LVL55:
	mov	esi, eax
	.loc 1 215 0
	call	__errno
LVL56:
	.loc 1 213 0
	mov	DWORD PTR [esp+12], esi
	mov	eax, DWORD PTR [eax]
	mov	DWORD PTR [esp+8], eax
	mov	DWORD PTR [esp+4], OFFSET FLAT:LC0
	mov	DWORD PTR [esp], 16
	call	_gg_debug
LVL57:
	.loc 1 216 0
	mov	BYTE PTR [ebx], 0
	.loc 1 217 0
	xor	ebx, ebx
	jmp	L36
LVL58:
L49:
	.loc 1 206 0
	xor	ebx, ebx
	jmp	L36
LVL59:
L62:
	.loc 1 234 0
	call	___stack_chk_fail
LVL60:
	.cfi_endproc
LFE63:
	.section .rdata,"dr"
LC2:
	.ascii "** gg_connect(%s, %d, %d);\12\0"
	.align 4
LC3:
	.ascii "// gg_connect() socket() failed (errno=%d, %s)\12\0"
	.align 4
LC4:
	.ascii "// gg_connect() bind() failed (errno=%d, %s)\12\0"
	.align 4
LC5:
	.ascii "// gg_connect() can't set nonblocking (errno=%d, %s)\12\0"
	.align 4
LC6:
	.ascii "// gg_connect() connect() failed (errno=%d, %s)\12\0"
	.align 4
LC7:
	.ascii "// gg_connect() connect() in progress\12\0"
	.text
	.p2align 2,,3
	.globl	_gg_connect
	.def	_gg_connect;	.scl	2;	.type	32;	.endef
_gg_connect:
LFB64:
	.loc 1 248 0
	.cfi_startproc
LVL61:
	push	ebp
LCFI32:
	.cfi_def_cfa_offset 8
	.cfi_offset 5, -8
	push	edi
LCFI33:
	.cfi_def_cfa_offset 12
	.cfi_offset 7, -12
	push	esi
LCFI34:
	.cfi_def_cfa_offset 16
	.cfi_offset 6, -16
	push	ebx
LCFI35:
	.cfi_def_cfa_offset 20
	.cfi_offset 3, -20
	sub	esp, 108
LCFI36:
	.cfi_def_cfa_offset 128
	mov	ebp, DWORD PTR [esp+128]
	mov	edx, DWORD PTR [esp+132]
	mov	DWORD PTR [esp+44], edx
	mov	esi, DWORD PTR [esp+136]
	.loc 1 248 0
	mov	eax, DWORD PTR ___stack_chk_guard
	mov	DWORD PTR [esp+92], eax
	xor	eax, eax
LVL62:
	.loc 1 254 0
	mov	eax, DWORD PTR [ebp+0]
	mov	DWORD PTR [esp], eax
	call	_inet_ntoa@4
LCFI37:
	.cfi_def_cfa_offset 124
LVL63:
	push	ecx
LCFI38:
	.cfi_def_cfa_offset 128
	mov	DWORD PTR [esp+16], esi
	mov	edx, DWORD PTR [esp+44]
	mov	DWORD PTR [esp+12], edx
	mov	DWORD PTR [esp+8], eax
	mov	DWORD PTR [esp+4], OFFSET FLAT:LC2
	mov	DWORD PTR [esp], 8
	call	_gg_debug
LVL64:
	.loc 1 257 0
	mov	DWORD PTR [esp+8], 6
	mov	DWORD PTR [esp+4], 1
	mov	DWORD PTR [esp], 2
	call	_gg_win32_socket
LVL65:
	mov	ebx, eax
LVL66:
	cmp	eax, -1
	je	L81
	.loc 1 263 0
	lea	edx, [esp+76]
	mov	ecx, 16
	xor	eax, eax
LVL67:
	mov	edi, edx
	rep stosb
	.loc 1 264 0
	mov	WORD PTR [esp+76], 2
	.loc 1 266 0
	mov	eax, DWORD PTR _gg_local_ip
	mov	DWORD PTR [esp+80], eax
	.loc 1 268 0
	mov	DWORD PTR [esp+8], 16
	mov	DWORD PTR [esp+4], edx
	mov	DWORD PTR [esp], ebx
	call	_gg_win32_bind
LVL68:
	inc	eax
	je	L82
	.loc 1 277 0
	test	esi, esi
	jne	L83
LVL69:
L68:
	.loc 1 289 0
	lea	edx, [esp+60]
	mov	ecx, 16
	xor	eax, eax
	mov	edi, edx
	rep stosb
	.loc 1 290 0
	movzx	eax, WORD PTR [esp+44]
	mov	DWORD PTR [esp], eax
	mov	DWORD PTR [esp+40], edx
	call	_htons@4
LCFI39:
	.cfi_def_cfa_offset 124
LVL70:
	push	edx
LCFI40:
	.cfi_def_cfa_offset 128
	mov	WORD PTR [esp+62], ax
	.loc 1 291 0
	mov	WORD PTR [esp+60], 2
	.loc 1 292 0
	mov	eax, DWORD PTR [ebp+0]
	mov	DWORD PTR [esp+64], eax
	.loc 1 294 0
	mov	DWORD PTR [esp+8], 16
	mov	edx, DWORD PTR [esp+40]
	mov	DWORD PTR [esp+4], edx
	mov	DWORD PTR [esp], ebx
	call	_gg_win32_connect
LVL71:
	inc	eax
	je	L84
LVL72:
L66:
	.loc 1 309 0
	mov	eax, ebx
	mov	edx, DWORD PTR [esp+92]
	xor	edx, DWORD PTR ___stack_chk_guard
	jne	L85
	add	esp, 108
LCFI41:
	.cfi_remember_state
	.cfi_def_cfa_offset 20
	pop	ebx
LCFI42:
	.cfi_restore 3
	.cfi_def_cfa_offset 16
	pop	esi
LCFI43:
	.cfi_restore 6
	.cfi_def_cfa_offset 12
	pop	edi
LCFI44:
	.cfi_restore 7
	.cfi_def_cfa_offset 8
	pop	ebp
LCFI45:
	.cfi_restore 5
	.cfi_def_cfa_offset 4
LVL73:
	ret
LVL74:
	.p2align 2,,3
L83:
LCFI46:
	.cfi_restore_state
LBB10:
LBB11:
	.file 2 "lib/network.h"
	.loc 2 116 0
	mov	DWORD PTR [esp+56], 1
LVL75:
	.loc 2 117 0
	lea	eax, [esp+56]
	mov	DWORD PTR [esp+8], eax
	mov	DWORD PTR [esp+4], -2147195266
	mov	DWORD PTR [esp], ebx
	call	_gg_win32_ioctl
LVL76:
LBE11:
LBE10:
	.loc 1 278 0
	test	eax, eax
	je	L68
	.loc 1 281 0
	call	__errno
LVL77:
	.loc 1 279 0
	mov	eax, DWORD PTR [eax]
	mov	DWORD PTR [esp], eax
	call	_strerror
LVL78:
	mov	esi, eax
	.loc 1 281 0
	call	__errno
LVL79:
	.loc 1 279 0
	mov	DWORD PTR [esp+12], esi
	mov	eax, DWORD PTR [eax]
	mov	DWORD PTR [esp+8], eax
	mov	DWORD PTR [esp+4], OFFSET FLAT:LC5
LVL80:
L80:
	mov	DWORD PTR [esp], 16
	call	_gg_debug
LVL81:
	.loc 1 282 0
	call	__errno
LVL82:
	mov	esi, DWORD PTR [eax]
LVL83:
	.loc 1 283 0
	mov	DWORD PTR [esp], ebx
	call	_gg_win32_close
LVL84:
	.loc 1 284 0
	call	__errno
LVL85:
	mov	DWORD PTR [eax], esi
	.loc 1 285 0
	mov	ebx, -1
LVL86:
	jmp	L66
LVL87:
	.p2align 2,,3
L84:
	.loc 1 295 0
	call	__errno
LVL88:
	mov	eax, DWORD PTR [eax]
	test	eax, eax
	je	L69
	.loc 1 295 0 is_stmt 0 discriminator 1
	test	esi, esi
	je	L71
	call	__errno
LVL89:
	cmp	DWORD PTR [eax], 10036
	jne	L71
L69:
	.loc 1 304 0 is_stmt 1
	mov	DWORD PTR [esp+4], OFFSET FLAT:LC7
	mov	DWORD PTR [esp], 16
	call	_gg_debug
LVL90:
	jmp	L66
LVL91:
L81:
	.loc 1 259 0
	call	__errno
LVL92:
	.loc 1 258 0
	mov	eax, DWORD PTR [eax]
	mov	DWORD PTR [esp], eax
	call	_strerror
LVL93:
	mov	esi, eax
	.loc 1 259 0
	call	__errno
LVL94:
	.loc 1 258 0
	mov	DWORD PTR [esp+12], esi
	mov	eax, DWORD PTR [eax]
	mov	DWORD PTR [esp+8], eax
	mov	DWORD PTR [esp+4], OFFSET FLAT:LC3
	mov	DWORD PTR [esp], 16
	call	_gg_debug
LVL95:
	jmp	L66
LVL96:
L71:
	.loc 1 298 0
	call	__errno
LVL97:
	.loc 1 296 0
	mov	eax, DWORD PTR [eax]
	mov	DWORD PTR [esp], eax
	call	_strerror
LVL98:
	mov	esi, eax
	.loc 1 298 0
	call	__errno
LVL99:
	.loc 1 296 0
	mov	DWORD PTR [esp+12], esi
	mov	eax, DWORD PTR [eax]
	mov	DWORD PTR [esp+8], eax
	mov	DWORD PTR [esp+4], OFFSET FLAT:LC6
	jmp	L80
LVL100:
L82:
	.loc 1 270 0
	call	__errno
LVL101:
	.loc 1 269 0
	mov	eax, DWORD PTR [eax]
	mov	DWORD PTR [esp], eax
	call	_strerror
LVL102:
	mov	esi, eax
	.loc 1 270 0
	call	__errno
LVL103:
	.loc 1 269 0
	mov	DWORD PTR [esp+12], esi
	mov	eax, DWORD PTR [eax]
	mov	DWORD PTR [esp+8], eax
	mov	DWORD PTR [esp+4], OFFSET FLAT:LC4
	jmp	L80
LVL104:
L85:
	.loc 1 309 0
	call	___stack_chk_fail
LVL105:
	.cfi_endproc
LFE64:
	.p2align 2,,3
	.globl	_gg_chomp
	.def	_gg_chomp;	.scl	2;	.type	32;	.endef
_gg_chomp:
LFB65:
	.loc 1 321 0
	.cfi_startproc
LVL106:
	push	edi
LCFI47:
	.cfi_def_cfa_offset 8
	.cfi_offset 7, -8
	push	ebx
LCFI48:
	.cfi_def_cfa_offset 12
	.cfi_offset 3, -12
	sub	esp, 20
LCFI49:
	.cfi_def_cfa_offset 32
	mov	edx, DWORD PTR [esp+32]
	.loc 1 321 0
	mov	eax, DWORD PTR ___stack_chk_guard
	mov	DWORD PTR [esp+12], eax
	xor	eax, eax
	.loc 1 324 0
	test	edx, edx
	je	L86
	.loc 1 327 0
	mov	ecx, -1
	mov	edi, edx
	repne scasb
LVL107:
	not	ecx
	lea	eax, [ecx-1]
	mov	ebx, eax
LVL108:
	.loc 1 329 0
	test	eax, eax
	jle	L86
	.loc 1 329 0 is_stmt 0 discriminator 1
	cmp	BYTE PTR [edx-1+eax], 10
	je	L97
	.loc 1 331 0 is_stmt 1 discriminator 1
	cmp	BYTE PTR [edx-1+eax], 13
	je	L98
LVL109:
L86:
	.loc 1 333 0
	mov	eax, DWORD PTR [esp+12]
	xor	eax, DWORD PTR ___stack_chk_guard
	jne	L99
	add	esp, 20
LCFI50:
	.cfi_remember_state
	.cfi_def_cfa_offset 12
	pop	ebx
LCFI51:
	.cfi_restore 3
	.cfi_def_cfa_offset 8
	pop	edi
LCFI52:
	.cfi_restore 7
	.cfi_def_cfa_offset 4
	ret
LVL110:
	.p2align 2,,3
L98:
LCFI53:
	.cfi_restore_state
	.loc 1 332 0
	mov	BYTE PTR [edx-1+ebx], 0
	jmp	L86
LVL111:
	.p2align 2,,3
L97:
	.loc 1 330 0
	lea	ebx, [ecx-2]
LVL112:
	mov	eax, ebx
	mov	BYTE PTR [edx+ebx], 0
	.loc 1 331 0
	test	ebx, ebx
	je	L86
	cmp	BYTE PTR [edx-1+eax], 13
	jne	L86
	jmp	L98
LVL113:
L99:
	.loc 1 333 0
	call	___stack_chk_fail
LVL114:
	.cfi_endproc
LFE65:
	.section .rdata,"dr"
LC8:
	.ascii "\0"
LC9:
	.ascii "0123456789abcdef\0"
	.text
	.p2align 2,,3
	.globl	_gg_urlencode
	.def	_gg_urlencode;	.scl	2;	.type	32;	.endef
_gg_urlencode:
LFB66:
	.loc 1 349 0
	.cfi_startproc
LVL115:
	push	ebp
LCFI54:
	.cfi_def_cfa_offset 8
	.cfi_offset 5, -8
	push	edi
LCFI55:
	.cfi_def_cfa_offset 12
	.cfi_offset 7, -12
	push	esi
LCFI56:
	.cfi_def_cfa_offset 16
	.cfi_offset 6, -16
	push	ebx
LCFI57:
	.cfi_def_cfa_offset 20
	.cfi_offset 3, -20
	sub	esp, 60
LCFI58:
	.cfi_def_cfa_offset 80
	mov	ebp, DWORD PTR [esp+80]
	.loc 1 349 0
	mov	eax, DWORD PTR ___stack_chk_guard
	mov	DWORD PTR [esp+44], eax
	xor	eax, eax
	.loc 1 351 0
	lea	edi, [esp+27]
	mov	esi, OFFSET FLAT:LC9
	mov	ecx, 17
	rep movsb
LVL116:
	.loc 1 355 0
	test	ebp, ebp
	je	L139
L101:
LVL117:
	.loc 1 358 0
	mov	bl, BYTE PTR [ebp+0]
	test	bl, bl
	je	L102
	mov	al, bl
	mov	ecx, ebp
	xor	edi, edi
	jmp	L106
LVL118:
	.p2align 2,,3
L141:
	.loc 1 359 0 discriminator 1
	lea	esi, [eax-65]
	mov	edx, esi
	cmp	dl, 25
	jbe	L103
	.loc 1 360 0 discriminator 1
	lea	esi, [eax-48]
	.loc 1 359 0 discriminator 1
	mov	edx, esi
	cmp	dl, 9
	jbe	L103
	cmp	al, 32
	je	L105
	.p2align 2,,3
L104:
	.loc 1 363 0
	add	edi, 2
LVL119:
L105:
	.loc 1 358 0
	inc	ecx
LVL120:
	inc	edi
LVL121:
	mov	al, BYTE PTR [ecx]
	test	al, al
	je	L140
LVL122:
L106:
	.loc 1 359 0
	lea	esi, [eax-97]
	mov	edx, esi
	cmp	dl, 25
	ja	L141
L103:
	.loc 1 360 0
	cmp	al, 64
	je	L104
	.loc 1 360 0 is_stmt 0 discriminator 1
	cmp	al, 46
	je	L104
	.loc 1 361 0 is_stmt 1
	cmp	al, 45
	je	L104
LVL123:
	.loc 1 358 0
	inc	ecx
LVL124:
	inc	edi
LVL125:
	mov	al, BYTE PTR [ecx]
	test	al, al
	jne	L106
L140:
	.loc 1 367 0
	lea	edx, [edi+1]
	mov	DWORD PTR [esp], edx
	call	_malloc
LVL126:
	test	eax, eax
	je	L107
	mov	edx, eax
LVL127:
	.p2align 2,,3
L112:
	.loc 1 371 0
	lea	ecx, [ebx-97]
	cmp	cl, 25
	jbe	L108
	.loc 1 371 0 is_stmt 0 discriminator 1
	lea	ecx, [ebx-65]
	cmp	cl, 25
	jbe	L108
	.loc 1 372 0 is_stmt 1 discriminator 1
	lea	ecx, [ebx-48]
	.loc 1 371 0 discriminator 1
	cmp	cl, 9
	jbe	L108
	.loc 1 372 0
	cmp	bl, 64
	je	L108
	.loc 1 372 0 is_stmt 0 discriminator 1
	cmp	bl, 46
	je	L108
	.loc 1 373 0 is_stmt 1
	cmp	bl, 45
	je	L108
	.loc 1 377 0
	cmp	bl, 32
	je	L142
	.loc 1 380 0
	mov	BYTE PTR [edx], 37
LVL128:
	.loc 1 381 0
	mov	cl, BYTE PTR [ebp+0]
	shr	cl, 4
	movsx	ecx, cl
	mov	cl, BYTE PTR [esp+27+ecx]
	mov	BYTE PTR [edx+1], cl
LVL129:
	.loc 1 382 0
	mov	cl, BYTE PTR [ebp+0]
	and	ecx, 15
	mov	cl, BYTE PTR [esp+27+ecx]
	mov	BYTE PTR [edx+2], cl
	.loc 1 381 0
	add	edx, 2
LVL130:
	.loc 1 370 0
	inc	ebp
LVL131:
	inc	edx
LVL132:
	mov	bl, BYTE PTR [ebp+0]
	test	bl, bl
	jne	L112
LVL133:
	.p2align 2,,3
L113:
	.loc 1 387 0
	mov	BYTE PTR [edx], 0
LVL134:
L107:
	.loc 1 390 0
	mov	ecx, DWORD PTR [esp+44]
	xor	ecx, DWORD PTR ___stack_chk_guard
	jne	L143
	add	esp, 60
LCFI59:
	.cfi_remember_state
	.cfi_def_cfa_offset 20
	pop	ebx
LCFI60:
	.cfi_restore 3
	.cfi_def_cfa_offset 16
	pop	esi
LCFI61:
	.cfi_restore 6
	.cfi_def_cfa_offset 12
	pop	edi
LCFI62:
	.cfi_restore 7
	.cfi_def_cfa_offset 8
	pop	ebp
LCFI63:
	.cfi_restore 5
	.cfi_def_cfa_offset 4
	ret
LVL135:
	.p2align 2,,3
L108:
LCFI64:
	.cfi_restore_state
	.loc 1 375 0
	mov	BYTE PTR [edx], bl
L110:
LVL136:
	.loc 1 370 0
	inc	ebp
LVL137:
	inc	edx
LVL138:
	mov	bl, BYTE PTR [ebp+0]
	test	bl, bl
	jne	L112
	jmp	L113
LVL139:
	.p2align 2,,3
L139:
	.loc 1 356 0
	mov	ebp, OFFSET FLAT:LC8
	jmp	L101
LVL140:
	.p2align 2,,3
L142:
	.loc 1 378 0
	mov	BYTE PTR [edx], 43
	jmp	L110
LVL141:
L143:
	.loc 1 390 0
	call	___stack_chk_fail
LVL142:
L102:
	.loc 1 367 0
	mov	DWORD PTR [esp], 1
	call	_malloc
LVL143:
	test	eax, eax
	je	L107
	mov	edx, eax
	jmp	L113
	.cfi_endproc
LFE66:
	.section .rdata,"dr"
LC10:
	.ascii "%d\0"
	.text
	.p2align 2,,3
	.globl	_gg_http_hash
	.def	_gg_http_hash;	.scl	2;	.type	32;	.endef
_gg_http_hash:
LFB67:
	.loc 1 407 0
	.cfi_startproc
LVL144:
	push	ebp
LCFI65:
	.cfi_def_cfa_offset 8
	.cfi_offset 5, -8
	push	edi
LCFI66:
	.cfi_def_cfa_offset 12
	.cfi_offset 7, -12
	push	esi
LCFI67:
	.cfi_def_cfa_offset 16
	.cfi_offset 6, -16
	push	ebx
LCFI68:
	.cfi_def_cfa_offset 20
	.cfi_offset 3, -20
	sub	esp, 60
LCFI69:
	.cfi_def_cfa_offset 80
	mov	ebp, DWORD PTR [esp+80]
	.loc 1 407 0
	mov	eax, DWORD PTR ___stack_chk_guard
	mov	DWORD PTR [esp+44], eax
	xor	eax, eax
LVL145:
	.loc 1 412 0
	lea	edx, [esp+84]
LVL146:
	.loc 1 410 0
	mov	ebx, -1
	.loc 1 414 0
	xor	esi, esi
LVL147:
	.p2align 2,,3
L145:
	.loc 1 414 0 is_stmt 0 discriminator 1
	xor	eax, eax
	mov	ecx, -1
	mov	edi, ebp
	repne scasb
	not	ecx
	dec	ecx
	cmp	esi, ecx
	jae	L159
LBB12:
	.loc 1 418 0 is_stmt 1
	cmp	BYTE PTR [ebp+0+esi], 117
	je	L160
	.loc 1 422 0
	mov	eax, edx
	add	edx, 4
LVL148:
	mov	ecx, DWORD PTR [eax]
LVL149:
	test	ecx, ecx
	je	L161
LVL150:
L147:
	.loc 1 427 0
	movzx	eax, BYTE PTR [ecx]
LVL151:
	test	eax, eax
	je	L148
	.loc 1 406 0
	inc	ecx
LVL152:
	.p2align 2,,3
L149:
	.loc 1 428 0
	mov	edi, eax
	sal	edi, 8
	xor	ebx, eax
LVL153:
	add	ebx, edi
LVL154:
	.loc 1 429 0
	rol	ebx, 8
LVL155:
	.loc 1 427 0
	movzx	eax, BYTE PTR [ecx]
LVL156:
	inc	ecx
	test	eax, eax
	jne	L149
L148:
LBE12:
	.loc 1 414 0
	inc	esi
LVL157:
	jmp	L145
LVL158:
	.p2align 2,,3
L160:
LBB13:
	.loc 1 419 0
	lea	edi, [edx+4]
LVL159:
	mov	eax, DWORD PTR [edx]
	mov	DWORD PTR [esp+12], eax
	mov	DWORD PTR [esp+8], OFFSET FLAT:LC10
	mov	DWORD PTR [esp+4], 16
	lea	edx, [esp+28]
	mov	DWORD PTR [esp], edx
	call	_snprintf
LVL160:
	mov	edx, edi
	.loc 1 420 0
	lea	ecx, [esp+28]
LVL161:
	jmp	L147
LVL162:
	.p2align 2,,3
L161:
	.loc 1 423 0
	mov	ecx, OFFSET FLAT:LC8
LVL163:
	jmp	L147
LVL164:
L159:
LBE13:
	.loc 1 435 0
	mov	eax, ebx
	test	ebx, ebx
	js	L162
L151:
	.loc 1 436 0
	mov	edx, DWORD PTR [esp+44]
	xor	edx, DWORD PTR ___stack_chk_guard
LVL165:
	jne	L163
	add	esp, 60
LCFI70:
	.cfi_remember_state
	.cfi_def_cfa_offset 20
	pop	ebx
LCFI71:
	.cfi_restore 3
	.cfi_def_cfa_offset 16
LVL166:
	pop	esi
LCFI72:
	.cfi_restore 6
	.cfi_def_cfa_offset 12
LVL167:
	pop	edi
LCFI73:
	.cfi_restore 7
	.cfi_def_cfa_offset 8
	pop	ebp
LCFI74:
	.cfi_restore 5
	.cfi_def_cfa_offset 4
	ret
LVL168:
L162:
LCFI75:
	.cfi_restore_state
	.loc 1 435 0
	neg	eax
LVL169:
	jmp	L151
LVL170:
L163:
	.loc 1 436 0
	call	___stack_chk_fail
LVL171:
	.cfi_endproc
LFE67:
	.p2align 2,,3
	.globl	_gg_base64_encode
	.def	_gg_base64_encode;	.scl	2;	.type	32;	.endef
_gg_base64_encode:
LFB68:
	.loc 1 456 0
	.cfi_startproc
LVL172:
	push	ebp
LCFI76:
	.cfi_def_cfa_offset 8
	.cfi_offset 5, -8
	push	edi
LCFI77:
	.cfi_def_cfa_offset 12
	.cfi_offset 7, -12
	push	esi
LCFI78:
	.cfi_def_cfa_offset 16
	.cfi_offset 6, -16
	push	ebx
LCFI79:
	.cfi_def_cfa_offset 20
	.cfi_offset 3, -20
	sub	esp, 60
LCFI80:
	.cfi_def_cfa_offset 80
	mov	esi, DWORD PTR [esp+80]
	.loc 1 456 0
	mov	eax, DWORD PTR ___stack_chk_guard
	mov	DWORD PTR [esp+44], eax
	xor	eax, eax
LVL173:
	.loc 1 458 0
	mov	ecx, -1
	mov	edi, esi
	repne scasb
LVL174:
	not	ecx
	lea	ebp, [ecx-1]
LVL175:
	.loc 1 460 0
	mov	edx, -1431655765
	mov	eax, ebp
	mul	edx
	shr	edx
	lea	eax, [6+edx*4]
	mov	DWORD PTR [esp], eax
	call	_malloc
LVL176:
	mov	DWORD PTR [esp+28], eax
LVL177:
	.loc 1 462 0
	test	eax, eax
	je	L179
	mov	edx, eax
	xor	edi, edi
	xor	eax, eax
LVL178:
	jmp	L175
LVL179:
	.p2align 2,,3
L187:
	.loc 1 466 0
	cmp	ecx, 3
	je	L169
	dec	ecx
	je	L167
	.loc 1 468 0
	movsx	ecx, BYTE PTR [esi+edi]
	and	ecx, 252
	sar	ecx, 2
LVL180:
L170:
	.loc 1 490 0
	mov	cl, BYTE PTR _gg_base64_charset[ecx]
LVL181:
	mov	BYTE PTR [edx], cl
	inc	edx
LVL182:
	.loc 1 491 0
	inc	eax
LVL183:
	.loc 1 465 0
	cmp	edi, ebp
	ja	L186
LVL184:
L175:
	.loc 1 466 0
	mov	ecx, eax
	and	ecx, 3
	cmp	ecx, 2
	jne	L187
	.loc 1 479 0
	cmp	ebp, edi
	jbe	L173
	.loc 1 480 0
	mov	bl, BYTE PTR [esi+edi]
	and	ebx, 15
	sal	ebx, 2
	inc	edi
	movsx	ecx, BYTE PTR [esi+edi]
	and	ecx, 192
	sar	ecx, 6
	or	ecx, ebx
LVL185:
	.loc 1 490 0
	mov	cl, BYTE PTR _gg_base64_charset[ecx]
LVL186:
	mov	BYTE PTR [edx], cl
	inc	edx
LVL187:
	.loc 1 491 0
	inc	eax
LVL188:
	.loc 1 465 0
	cmp	edi, ebp
	jbe	L175
LVL189:
	.p2align 2,,3
L186:
	.loc 1 494 0
	and	eax, 3
LVL190:
	jne	L188
LVL191:
L176:
	.loc 1 498 0
	mov	BYTE PTR [edx], 0
	.loc 1 500 0
	mov	eax, DWORD PTR [esp+28]
LVL192:
L165:
	.loc 1 501 0
	mov	edx, DWORD PTR [esp+44]
	xor	edx, DWORD PTR ___stack_chk_guard
	jne	L189
	add	esp, 60
LCFI81:
	.cfi_remember_state
	.cfi_def_cfa_offset 20
	pop	ebx
LCFI82:
	.cfi_restore 3
	.cfi_def_cfa_offset 16
	pop	esi
LCFI83:
	.cfi_restore 6
	.cfi_def_cfa_offset 12
	pop	edi
LCFI84:
	.cfi_restore 7
	.cfi_def_cfa_offset 8
	pop	ebp
LCFI85:
	.cfi_restore 5
	.cfi_def_cfa_offset 4
LVL193:
	ret
LVL194:
	.p2align 2,,3
L167:
LCFI86:
	.cfi_restore_state
	.loc 1 471 0
	cmp	ebp, edi
	jbe	L171
	.loc 1 472 0
	mov	bl, BYTE PTR [esi+edi]
	and	ebx, 3
	sal	ebx, 4
	inc	edi
	movsx	ecx, BYTE PTR [esi+edi]
	and	ecx, 240
	sar	ecx, 4
	or	ecx, ebx
LVL195:
	jmp	L170
LVL196:
	.p2align 2,,3
L169:
	.loc 1 487 0
	mov	cl, BYTE PTR [esi+edi]
	and	ecx, 63
LVL197:
	inc	edi
LVL198:
	.loc 1 488 0
	jmp	L170
LVL199:
	.p2align 2,,3
L173:
	.loc 1 482 0
	mov	cl, BYTE PTR [esi+edi]
	and	ecx, 15
	sal	ecx, 2
LVL200:
	inc	edi
LVL201:
	.loc 1 485 0
	jmp	L170
LVL202:
	.p2align 2,,3
L171:
	.loc 1 474 0
	mov	cl, BYTE PTR [esi+edi]
	and	ecx, 3
	sal	ecx, 4
LVL203:
	inc	edi
LVL204:
	.loc 1 477 0
	jmp	L170
LVL205:
	.p2align 2,,3
L188:
	.loc 1 495 0 discriminator 1
	mov	ecx, edx
	sub	ecx, eax
	mov	eax, ecx
	.loc 1 455 0 discriminator 1
	add	eax, 4
LVL206:
	.p2align 2,,3
L177:
	.loc 1 496 0 discriminator 2
	mov	BYTE PTR [edx], 61
	.loc 1 495 0 discriminator 2
	inc	edx
LVL207:
	cmp	edx, eax
	jne	L177
	jmp	L176
LVL208:
L179:
	.loc 1 463 0
	xor	eax, eax
LVL209:
	jmp	L165
LVL210:
L189:
	.loc 1 501 0
	call	___stack_chk_fail
LVL211:
	.cfi_endproc
LFE68:
	.p2align 2,,3
	.globl	_gg_base64_decode
	.def	_gg_base64_decode;	.scl	2;	.type	32;	.endef
_gg_base64_decode:
LFB69:
	.loc 1 515 0
	.cfi_startproc
LVL212:
	push	ebp
LCFI87:
	.cfi_def_cfa_offset 8
	.cfi_offset 5, -8
	push	edi
LCFI88:
	.cfi_def_cfa_offset 12
	.cfi_offset 7, -12
	push	esi
LCFI89:
	.cfi_def_cfa_offset 16
	.cfi_offset 6, -16
	push	ebx
LCFI90:
	.cfi_def_cfa_offset 20
	.cfi_offset 3, -20
	sub	esp, 60
LCFI91:
	.cfi_def_cfa_offset 80
	mov	ebx, DWORD PTR [esp+80]
	.loc 1 515 0
	mov	eax, DWORD PTR ___stack_chk_guard
	mov	DWORD PTR [esp+44], eax
	xor	eax, eax
LVL213:
	.loc 1 520 0
	test	ebx, ebx
	je	L193
	.loc 1 523 0
	xor	eax, eax
	mov	ecx, -1
	mov	edi, ebx
	repne scasb
LVL214:
	not	ecx
	lea	esi, [ecx-1]
	mov	eax, esi
	shr	eax, 2
	lea	eax, [eax+5+eax*2]
	mov	DWORD PTR [esp+4], eax
	mov	DWORD PTR [esp], 1
	call	_calloc
LVL215:
	mov	DWORD PTR [esp+28], eax
LVL216:
	.loc 1 525 0
	test	eax, eax
	je	L193
	.loc 1 528 0
	add	esi, ebx
LVL217:
	.loc 1 514 0
	lea	edi, [ebx+1]
	.loc 1 530 0
	mov	ebp, eax
	.loc 1 518 0
	xor	ebx, ebx
LVL218:
	.loc 1 530 0
	movsx	eax, BYTE PTR [edi-1]
LVL219:
	test	al, al
	je	L204
LVL220:
	.p2align 2,,3
L202:
	.loc 1 514 0 discriminator 2
	lea	ecx, [edi-1]
	.loc 1 530 0 discriminator 2
	cmp	esi, ecx
	jbe	L204
	.loc 1 531 0
	cmp	al, 13
	je	L195
	.loc 1 531 0 is_stmt 0 discriminator 1
	cmp	al, 10
	je	L195
	.loc 1 535 0 is_stmt 1
	mov	DWORD PTR [esp+8], 65
	mov	DWORD PTR [esp+4], eax
	mov	DWORD PTR [esp], OFFSET FLAT:_gg_base64_charset
	call	_memchr
LVL221:
	test	eax, eax
	je	L206
	sub	eax, OFFSET FLAT:_gg_base64_charset
LVL222:
L196:
	.loc 1 539 0
	cmp	ebx, 1
	je	L199
	jae	L217
	.loc 1 541 0
	sal	eax, 2
LVL223:
	or	BYTE PTR [ebp+0], al
L197:
	.loc 1 555 0
	inc	ebx
LVL224:
	.loc 1 556 0
	and	ebx, 3
LVL225:
L195:
	inc	edi
	.loc 1 530 0 discriminator 1
	movsx	eax, BYTE PTR [edi-1]
	test	al, al
	jne	L202
L204:
	.loc 1 558 0
	mov	BYTE PTR [ebp+0], 0
	.loc 1 560 0
	mov	eax, DWORD PTR [esp+28]
LVL226:
L192:
	.loc 1 561 0
	mov	edx, DWORD PTR [esp+44]
	xor	edx, DWORD PTR ___stack_chk_guard
	jne	L218
	add	esp, 60
LCFI92:
	.cfi_remember_state
	.cfi_def_cfa_offset 20
	pop	ebx
LCFI93:
	.cfi_restore 3
	.cfi_def_cfa_offset 16
	pop	esi
LCFI94:
	.cfi_restore 6
	.cfi_def_cfa_offset 12
	pop	edi
LCFI95:
	.cfi_restore 7
	.cfi_def_cfa_offset 8
	pop	ebp
LCFI96:
	.cfi_restore 5
	.cfi_def_cfa_offset 4
	ret
LVL227:
	.p2align 2,,3
L217:
LCFI97:
	.cfi_restore_state
	.loc 1 539 0
	cmp	ebx, 2
	je	L200
	cmp	ebx, 3
	jne	L197
	.loc 1 552 0
	or	BYTE PTR [ebp+0], al
	inc	ebp
LVL228:
	.loc 1 553 0
	jmp	L197
	.p2align 2,,3
L200:
	.loc 1 548 0
	mov	cl, al
	sar	cl, 2
	or	BYTE PTR [ebp+0], cl
LVL229:
	.loc 1 549 0
	sal	eax, 6
LVL230:
	or	BYTE PTR [ebp+1], al
	.loc 1 548 0
	inc	ebp
LVL231:
	.loc 1 550 0
	jmp	L197
LVL232:
	.p2align 2,,3
L199:
	.loc 1 544 0
	mov	cl, al
	sar	cl, 4
	or	BYTE PTR [ebp+0], cl
LVL233:
	.loc 1 545 0
	sal	eax, 4
LVL234:
	or	BYTE PTR [ebp+1], al
	.loc 1 544 0
	inc	ebp
LVL235:
	.loc 1 546 0
	jmp	L197
LVL236:
	.p2align 2,,3
L206:
	.loc 1 535 0
	xor	eax, eax
LVL237:
	jmp	L196
LVL238:
L193:
	.loc 1 521 0
	xor	eax, eax
	jmp	L192
LVL239:
L218:
	.loc 1 561 0
	call	___stack_chk_fail
LVL240:
	.cfi_endproc
LFE69:
	.section .rdata,"dr"
LC11:
	.ascii "%s:%s\0"
	.align 4
LC12:
	.ascii "Proxy-Authorization: Basic %s\15\12\0"
	.text
	.p2align 2,,3
	.globl	_gg_proxy_auth
	.def	_gg_proxy_auth;	.scl	2;	.type	32;	.endef
_gg_proxy_auth:
LFB70:
	.loc 1 573 0
	.cfi_startproc
	push	ebp
LCFI98:
	.cfi_def_cfa_offset 8
	.cfi_offset 5, -8
	push	edi
LCFI99:
	.cfi_def_cfa_offset 12
	.cfi_offset 7, -12
	push	esi
LCFI100:
	.cfi_def_cfa_offset 16
	.cfi_offset 6, -16
	push	ebx
LCFI101:
	.cfi_def_cfa_offset 20
	.cfi_offset 3, -20
	sub	esp, 60
LCFI102:
	.cfi_def_cfa_offset 80
	.loc 1 573 0
	mov	eax, DWORD PTR ___stack_chk_guard
	mov	DWORD PTR [esp+44], eax
	xor	eax, eax
	.loc 1 577 0
	mov	ebx, DWORD PTR _gg_proxy_enabled
	test	ebx, ebx
	je	L236
	.loc 1 577 0 is_stmt 0 discriminator 1
	mov	ebx, DWORD PTR _gg_proxy_username
	test	ebx, ebx
	je	L236
	mov	esi, DWORD PTR _gg_proxy_password
	test	esi, esi
	je	L236
	.loc 1 580 0 is_stmt 1
	mov	ecx, -1
	mov	edi, ebx
	xor	eax, eax
	repne scasb
	mov	edx, ecx
	not	edx
	mov	ecx, -1
	mov	edi, esi
	repne scasb
	not	ecx
	lea	ebp, [edx+ecx]
LVL241:
	.loc 1 581 0
	mov	DWORD PTR [esp], ebp
	call	_malloc
LVL242:
	mov	edi, eax
LVL243:
	.loc 1 582 0
	test	eax, eax
	je	L236
	.loc 1 585 0
	mov	DWORD PTR [esp+16], esi
	mov	DWORD PTR [esp+12], ebx
	mov	DWORD PTR [esp+8], OFFSET FLAT:LC11
	mov	DWORD PTR [esp+4], ebp
	mov	DWORD PTR [esp], eax
	call	_snprintf
LVL244:
	.loc 1 587 0
	mov	DWORD PTR [esp], edi
	call	_gg_base64_encode
LVL245:
	mov	ebx, eax
LVL246:
	.loc 1 589 0
	mov	DWORD PTR [esp], edi
	.loc 1 588 0
	test	eax, eax
	je	L238
	.loc 1 593 0
	call	_free
LVL247:
	.loc 1 595 0
	mov	ecx, -1
	mov	edi, ebx
LVL248:
	xor	eax, eax
	repne scasb
LVL249:
	not	ecx
	lea	ebp, [ecx+39]
LVL250:
	mov	DWORD PTR [esp], ebp
	call	_malloc
LVL251:
	mov	esi, eax
LVL252:
	.loc 1 596 0
	test	eax, eax
	je	L237
	.loc 1 601 0
	mov	DWORD PTR [esp+12], ebx
	mov	DWORD PTR [esp+8], OFFSET FLAT:LC12
	mov	DWORD PTR [esp+4], ebp
	mov	DWORD PTR [esp], eax
	call	_snprintf
LVL253:
L237:
	.loc 1 603 0
	mov	DWORD PTR [esp], ebx
	call	_free
LVL254:
L221:
	.loc 1 606 0
	mov	eax, esi
	mov	edx, DWORD PTR [esp+44]
	xor	edx, DWORD PTR ___stack_chk_guard
	jne	L239
	add	esp, 60
LCFI103:
	.cfi_remember_state
	.cfi_def_cfa_offset 20
	pop	ebx
LCFI104:
	.cfi_restore 3
	.cfi_def_cfa_offset 16
	pop	esi
LCFI105:
	.cfi_restore 6
	.cfi_def_cfa_offset 12
	pop	edi
LCFI106:
	.cfi_restore 7
	.cfi_def_cfa_offset 8
	pop	ebp
LCFI107:
	.cfi_restore 5
	.cfi_def_cfa_offset 4
	ret
LVL255:
L238:
LCFI108:
	.cfi_restore_state
	.loc 1 589 0
	call	_free
LVL256:
	.p2align 2,,3
L236:
	.loc 1 590 0
	xor	esi, esi
	jmp	L221
L239:
	.loc 1 606 0
	call	___stack_chk_fail
LVL257:
	.cfi_endproc
LFE70:
	.p2align 2,,3
	.globl	_gg_crc32
	.def	_gg_crc32;	.scl	2;	.type	32;	.endef
_gg_crc32:
LFB71:
	.loc 1 690 0
	.cfi_startproc
LVL258:
	push	ebx
LCFI109:
	.cfi_def_cfa_offset 8
	.cfi_offset 3, -8
	sub	esp, 24
LCFI110:
	.cfi_def_cfa_offset 32
	mov	eax, DWORD PTR [esp+32]
	mov	edx, DWORD PTR [esp+36]
	mov	ebx, DWORD PTR [esp+40]
	.loc 1 690 0
	mov	ecx, DWORD PTR ___stack_chk_guard
	mov	DWORD PTR [esp+12], ecx
	xor	ecx, ecx
	.loc 1 691 0
	test	edx, edx
	je	L241
	.loc 1 691 0 is_stmt 0 discriminator 1
	cmp	ebx, 0
	jl	L241
	.loc 1 694 0 is_stmt 1
	not	eax
LVL259:
	.loc 1 696 0
	je	L242
	.loc 1 689 0
	add	ebx, edx
LVL260:
	.p2align 2,,3
L243:
	.loc 1 697 0
	mov	ecx, eax
	shr	ecx, 8
	xor	al, BYTE PTR [edx]
LVL261:
	movzx	eax, al
	mov	eax, DWORD PTR _gg_crc32_table[0+eax*4]
	xor	eax, ecx
LVL262:
	inc	edx
LVL263:
	.loc 1 696 0
	cmp	edx, ebx
	jne	L243
L242:
	.loc 1 699 0
	not	eax
LVL264:
L241:
	.loc 1 700 0
	mov	edx, DWORD PTR [esp+12]
	xor	edx, DWORD PTR ___stack_chk_guard
	jne	L253
	add	esp, 24
LCFI111:
	.cfi_remember_state
	.cfi_def_cfa_offset 8
	pop	ebx
LCFI112:
	.cfi_restore 3
	.cfi_def_cfa_offset 4
	ret
L253:
LCFI113:
	.cfi_restore_state
	call	___stack_chk_fail
LVL265:
	.cfi_endproc
LFE71:
	.p2align 2,,3
	.globl	_gg_str_to_uin
	.def	_gg_str_to_uin;	.scl	2;	.type	32;	.endef
_gg_str_to_uin:
LFB72:
	.loc 1 711 0
	.cfi_startproc
LVL266:
	push	edi
LCFI114:
	.cfi_def_cfa_offset 8
	.cfi_offset 7, -8
	push	esi
LCFI115:
	.cfi_def_cfa_offset 12
	.cfi_offset 6, -12
	push	ebx
LCFI116:
	.cfi_def_cfa_offset 16
	.cfi_offset 3, -16
	sub	esp, 48
LCFI117:
	.cfi_def_cfa_offset 64
	mov	esi, DWORD PTR [esp+64]
	mov	eax, DWORD PTR [esp+68]
	.loc 1 711 0
	mov	edx, DWORD PTR ___stack_chk_guard
	mov	DWORD PTR [esp+44], edx
	xor	edx, edx
	.loc 1 716 0
	test	eax, eax
	js	L261
LVL267:
L255:
	.loc 1 718 0
	cmp	eax, 10
	jle	L256
LVL268:
L258:
	.loc 1 719 0
	xor	ebx, ebx
L257:
	.loc 1 729 0
	mov	eax, ebx
LVL269:
	mov	edx, DWORD PTR [esp+44]
	xor	edx, DWORD PTR ___stack_chk_guard
	jne	L262
	add	esp, 48
LCFI118:
	.cfi_remember_state
	.cfi_def_cfa_offset 16
	pop	ebx
LCFI119:
	.cfi_restore 3
	.cfi_def_cfa_offset 12
	pop	esi
LCFI120:
	.cfi_restore 6
	.cfi_def_cfa_offset 8
	pop	edi
LCFI121:
	.cfi_restore 7
	.cfi_def_cfa_offset 4
	ret
LVL270:
	.p2align 2,,3
L256:
LCFI122:
	.cfi_restore_state
	.loc 1 720 0
	lea	ebx, [esp+33]
	mov	edi, ebx
	mov	ecx, eax
	rep movsb
	.loc 1 721 0
	mov	BYTE PTR [esp+33+eax], 0
	.loc 1 723 0
	call	__errno
LVL271:
	mov	DWORD PTR [eax], 0
	.loc 1 724 0
	mov	DWORD PTR [esp+8], 10
	lea	eax, [esp+28]
	mov	DWORD PTR [esp+4], eax
	mov	DWORD PTR [esp], ebx
	call	_strtoul
LVL272:
	mov	ebx, eax
LVL273:
	.loc 1 725 0
	call	__errno
LVL274:
	cmp	DWORD PTR [eax], 34
	je	L258
LVL275:
	.loc 1 725 0 is_stmt 0 discriminator 1
	mov	eax, DWORD PTR [esp+28]
	cmp	BYTE PTR [eax], 0
	je	L257
	jmp	L258
LVL276:
	.p2align 2,,3
L261:
	.loc 1 717 0 is_stmt 1
	xor	eax, eax
	mov	ecx, -1
	mov	edi, esi
	repne scasb
LVL277:
	not	ecx
	lea	eax, [ecx-1]
LVL278:
	jmp	L255
LVL279:
L262:
	.loc 1 729 0
	call	___stack_chk_fail
LVL280:
	.cfi_endproc
LFE72:
	.p2align 2,,3
	.globl	_gg_chat_find
	.def	_gg_chat_find;	.scl	2;	.type	32;	.endef
_gg_chat_find:
LFB73:
	.loc 1 740 0
	.cfi_startproc
LVL281:
	push	esi
LCFI123:
	.cfi_def_cfa_offset 8
	.cfi_offset 6, -8
	push	ebx
LCFI124:
	.cfi_def_cfa_offset 12
	.cfi_offset 3, -12
	sub	esp, 20
LCFI125:
	.cfi_def_cfa_offset 32
	mov	ebx, DWORD PTR [esp+36]
	mov	esi, DWORD PTR [esp+40]
	.loc 1 740 0
	mov	eax, DWORD PTR ___stack_chk_guard
	mov	DWORD PTR [esp+12], eax
	xor	eax, eax
	.loc 1 741 0
	mov	eax, DWORD PTR [esp+32]
	mov	eax, DWORD PTR [eax+254]
	mov	eax, DWORD PTR [eax+4]
LVL282:
	.loc 1 743 0
	test	eax, eax
	jne	L267
	jmp	L264
	.p2align 2,,3
L280:
	.loc 1 746 0
	mov	eax, DWORD PTR [eax+20]
LVL283:
	.loc 1 743 0
	test	eax, eax
	je	L264
L267:
	.loc 1 744 0
	mov	ecx, DWORD PTR [eax+4]
	xor	ecx, esi
	mov	edx, DWORD PTR [eax]
	xor	edx, ebx
	or	ecx, edx
	jne	L280
L264:
	.loc 1 750 0
	mov	edx, DWORD PTR [esp+12]
	xor	edx, DWORD PTR ___stack_chk_guard
	jne	L281
	add	esp, 20
LCFI126:
	.cfi_remember_state
	.cfi_def_cfa_offset 12
	pop	ebx
LCFI127:
	.cfi_restore 3
	.cfi_def_cfa_offset 8
	pop	esi
LCFI128:
	.cfi_restore 6
	.cfi_def_cfa_offset 4
	ret
L281:
LCFI129:
	.cfi_restore_state
	call	___stack_chk_fail
LVL284:
	.cfi_endproc
LFE73:
	.p2align 2,,3
	.globl	_gg_chat_update
	.def	_gg_chat_update;	.scl	2;	.type	32;	.endef
_gg_chat_update:
LFB74:
	.loc 1 765 0
	.cfi_startproc
LVL285:
	push	ebp
LCFI130:
	.cfi_def_cfa_offset 8
	.cfi_offset 5, -8
	push	edi
LCFI131:
	.cfi_def_cfa_offset 12
	.cfi_offset 7, -12
	push	esi
LCFI132:
	.cfi_def_cfa_offset 16
	.cfi_offset 6, -16
	push	ebx
LCFI133:
	.cfi_def_cfa_offset 20
	.cfi_offset 3, -20
	sub	esp, 60
LCFI134:
	.cfi_def_cfa_offset 80
	mov	edx, DWORD PTR [esp+80]
	mov	esi, DWORD PTR [esp+84]
	mov	ebp, DWORD PTR [esp+88]
	mov	eax, DWORD PTR [esp+92]
	mov	DWORD PTR [esp+28], eax
	mov	eax, DWORD PTR [esp+96]
	mov	DWORD PTR [esp+24], eax
	mov	eax, DWORD PTR [esp+100]
	mov	DWORD PTR [esp+20], eax
	.loc 1 765 0
	mov	eax, DWORD PTR ___stack_chk_guard
	mov	DWORD PTR [esp+44], eax
	xor	eax, eax
	.loc 1 769 0
	cmp	DWORD PTR [esp+20], 1073741822
	ja	L290
LVL286:
LBB14:
LBB15:
	.loc 1 741 0
	mov	eax, DWORD PTR [edx+254]
	mov	ebx, DWORD PTR [eax+4]
LVL287:
	.loc 1 743 0
	test	ebx, ebx
	jne	L289
	jmp	L285
	.p2align 2,,3
L315:
	.loc 1 746 0
	mov	ebx, DWORD PTR [ebx+20]
LVL288:
	.loc 1 743 0
	test	ebx, ebx
	je	L285
L289:
	.loc 1 744 0
	mov	ecx, DWORD PTR [ebx+4]
	xor	ecx, ebp
	mov	eax, DWORD PTR [ebx]
	xor	eax, esi
	or	ecx, eax
	jne	L315
LVL289:
L291:
LBE15:
LBE14:
	.loc 1 786 0
	mov	ebp, DWORD PTR [esp+20]
LVL290:
	sal	ebp, 2
	mov	DWORD PTR [esp+4], ebp
	mov	eax, DWORD PTR [ebx+16]
	mov	DWORD PTR [esp], eax
	call	_realloc
LVL291:
	.loc 1 789 0
	test	eax, eax
	je	L290
	.loc 1 792 0
	mov	edx, DWORD PTR [esp+28]
	mov	DWORD PTR [ebx+8], edx
	.loc 1 793 0
	mov	DWORD PTR [ebx+16], eax
	.loc 1 794 0
	mov	edx, DWORD PTR [esp+20]
	mov	DWORD PTR [ebx+12], edx
	.loc 1 795 0
	mov	edi, eax
	mov	esi, DWORD PTR [esp+24]
LVL292:
	mov	ecx, ebp
	rep movsb
	.loc 1 798 0
	xor	eax, eax
LVL293:
L284:
	.loc 1 799 0
	mov	edx, DWORD PTR [esp+44]
	xor	edx, DWORD PTR ___stack_chk_guard
	jne	L316
	add	esp, 60
LCFI135:
	.cfi_remember_state
	.cfi_def_cfa_offset 20
	pop	ebx
LCFI136:
	.cfi_restore 3
	.cfi_def_cfa_offset 16
	pop	esi
LCFI137:
	.cfi_restore 6
	.cfi_def_cfa_offset 12
	pop	edi
LCFI138:
	.cfi_restore 7
	.cfi_def_cfa_offset 8
	pop	ebp
LCFI139:
	.cfi_restore 5
	.cfi_def_cfa_offset 4
	ret
LVL294:
	.p2align 2,,3
L285:
LCFI140:
	.cfi_restore_state
	.loc 1 775 0
	mov	DWORD PTR [esp], 24
	mov	DWORD PTR [esp+16], edx
	call	_malloc
LVL295:
	mov	ebx, eax
LVL296:
	.loc 1 777 0
	test	eax, eax
	mov	edx, DWORD PTR [esp+16]
	je	L290
	.loc 1 780 0
	mov	ecx, 24
	xor	eax, eax
LVL297:
	mov	edi, ebx
	rep stosb
	.loc 1 781 0
	mov	DWORD PTR [ebx], esi
	mov	DWORD PTR [ebx+4], ebp
	.loc 1 782 0
	mov	eax, DWORD PTR [edx+254]
	mov	ecx, DWORD PTR [eax+4]
	mov	DWORD PTR [ebx+20], ecx
	.loc 1 783 0
	mov	DWORD PTR [eax+4], ebx
	jmp	L291
LVL298:
L290:
	.loc 1 770 0
	mov	eax, -1
	jmp	L284
L316:
	.loc 1 799 0
	call	___stack_chk_fail
LVL299:
	.cfi_endproc
LFE74:
	.p2align 2,,3
	.globl	_gg_connection_failure
	.def	_gg_connection_failure;	.scl	2;	.type	32;	.endef
_gg_connection_failure:
LFB75:
	.loc 1 803 0
	.cfi_startproc
LVL300:
	push	edi
LCFI141:
	.cfi_def_cfa_offset 8
	.cfi_offset 7, -8
	push	esi
LCFI142:
	.cfi_def_cfa_offset 12
	.cfi_offset 6, -12
	push	ebx
LCFI143:
	.cfi_def_cfa_offset 16
	.cfi_offset 3, -16
	sub	esp, 32
LCFI144:
	.cfi_def_cfa_offset 48
	mov	esi, DWORD PTR [esp+48]
	mov	ebx, DWORD PTR [esp+52]
	mov	edi, DWORD PTR [esp+56]
	.loc 1 803 0
	mov	eax, DWORD PTR ___stack_chk_guard
	mov	DWORD PTR [esp+28], eax
	xor	eax, eax
	.loc 1 804 0
	mov	DWORD PTR [esp], esi
	call	_gg_close
LVL301:
	.loc 1 806 0
	test	ebx, ebx
	je	L318
	.loc 1 807 0
	mov	DWORD PTR [ebx], 7
	.loc 1 808 0
	mov	DWORD PTR [ebx+4], edi
L318:
	.loc 1 810 0
	mov	DWORD PTR [esi+8], 0
	.loc 1 811 0
	mov	eax, DWORD PTR [esp+28]
	xor	eax, DWORD PTR ___stack_chk_guard
	jne	L324
	add	esp, 32
LCFI145:
	.cfi_remember_state
	.cfi_def_cfa_offset 16
	pop	ebx
LCFI146:
	.cfi_restore 3
	.cfi_def_cfa_offset 12
	pop	esi
LCFI147:
	.cfi_restore 6
	.cfi_def_cfa_offset 8
	pop	edi
LCFI148:
	.cfi_restore 7
	.cfi_def_cfa_offset 4
	ret
L324:
LCFI149:
	.cfi_restore_state
	call	___stack_chk_fail
LVL302:
	.cfi_endproc
LFE75:
	.section .rdata,"dr"
	.align 4
LC13:
	.ascii "time diff data is not accessible\12\0"
	.text
	.p2align 2,,3
	.globl	_gg_server_time
	.def	_gg_server_time;	.scl	2;	.type	32;	.endef
_gg_server_time:
LFB76:
	.loc 1 814 0
	.cfi_startproc
LVL303:
	push	ebx
LCFI150:
	.cfi_def_cfa_offset 8
	.cfi_offset 3, -8
	sub	esp, 56
LCFI151:
	.cfi_def_cfa_offset 64
	mov	ebx, DWORD PTR [esp+64]
	.loc 1 814 0
	mov	eax, DWORD PTR ___stack_chk_guard
	mov	DWORD PTR [esp+44], eax
	xor	eax, eax
	.loc 1 815 0
	mov	DWORD PTR [esp], 0
	call	_time
LVL304:
	.loc 1 817 0
	test	ebx, ebx
	je	L326
	.loc 1 817 0 is_stmt 0 discriminator 1
	mov	edx, DWORD PTR [ebx+254]
	test	edx, edx
	je	L326
	.loc 1 823 0 is_stmt 1
	add	eax, DWORD PTR [edx+88]
LVL305:
L328:
	.loc 1 824 0
	mov	edx, DWORD PTR [esp+44]
	xor	edx, DWORD PTR ___stack_chk_guard
	jne	L334
	add	esp, 56
LCFI152:
	.cfi_remember_state
	.cfi_def_cfa_offset 8
	pop	ebx
LCFI153:
	.cfi_restore 3
	.cfi_def_cfa_offset 4
	ret
LVL306:
	.p2align 2,,3
L326:
LCFI154:
	.cfi_restore_state
	.loc 1 818 0
	mov	DWORD PTR [esp+8], OFFSET FLAT:LC13
	mov	DWORD PTR [esp+4], 128
	mov	DWORD PTR [esp], ebx
	mov	DWORD PTR [esp+28], eax
	call	_gg_debug_session
LVL307:
	.loc 1 820 0
	mov	eax, DWORD PTR [esp+28]
	jmp	L328
L334:
	.loc 1 824 0
	call	___stack_chk_fail
LVL308:
	.cfi_endproc
LFE76:
	.p2align 2,,3
	.globl	_gg_strarr_free
	.def	_gg_strarr_free;	.scl	2;	.type	32;	.endef
_gg_strarr_free:
LFB77:
	.loc 1 827 0
	.cfi_startproc
LVL309:
	push	esi
LCFI155:
	.cfi_def_cfa_offset 8
	.cfi_offset 6, -8
	push	ebx
LCFI156:
	.cfi_def_cfa_offset 12
	.cfi_offset 3, -12
	sub	esp, 36
LCFI157:
	.cfi_def_cfa_offset 48
	mov	esi, DWORD PTR [esp+48]
	.loc 1 827 0
	mov	eax, DWORD PTR ___stack_chk_guard
	mov	DWORD PTR [esp+28], eax
	xor	eax, eax
	.loc 1 830 0
	test	esi, esi
	je	L335
LVL310:
	.loc 1 833 0 discriminator 1
	mov	eax, DWORD PTR [esi]
	mov	ebx, esi
	test	eax, eax
	je	L340
LVL311:
	.p2align 2,,3
L342:
	.loc 1 834 0 discriminator 2
	mov	DWORD PTR [esp], eax
	call	_free
LVL312:
	.loc 1 833 0 discriminator 2
	add	ebx, 4
LVL313:
	mov	eax, DWORD PTR [ebx]
	test	eax, eax
	jne	L342
L340:
	.loc 1 835 0
	mov	eax, DWORD PTR [esp+28]
	xor	eax, DWORD PTR ___stack_chk_guard
	jne	L345
	mov	DWORD PTR [esp+48], esi
	.loc 1 836 0
	add	esp, 36
LCFI158:
	.cfi_remember_state
	.cfi_def_cfa_offset 12
	pop	ebx
LCFI159:
	.cfi_restore 3
	.cfi_def_cfa_offset 8
LVL314:
	pop	esi
LCFI160:
	.cfi_restore 6
	.cfi_def_cfa_offset 4
	.loc 1 835 0
	jmp	_free
LVL315:
	.p2align 2,,3
L335:
LCFI161:
	.cfi_restore_state
	.loc 1 836 0
	mov	eax, DWORD PTR [esp+28]
	xor	eax, DWORD PTR ___stack_chk_guard
	jne	L345
	add	esp, 36
LCFI162:
	.cfi_remember_state
	.cfi_def_cfa_offset 12
	pop	ebx
LCFI163:
	.cfi_restore 3
	.cfi_def_cfa_offset 8
	pop	esi
LCFI164:
	.cfi_restore 6
	.cfi_def_cfa_offset 4
	ret
L345:
LCFI165:
	.cfi_restore_state
	call	___stack_chk_fail
LVL316:
	.cfi_endproc
LFE77:
	.section .rdata,"dr"
	.align 4
LC14:
	.ascii "// gg_strarr_dup() not enough memory for the array\12\0"
	.align 4
LC15:
	.ascii "// gg_strarr_dup() not enough memory for the array element\12\0"
	.text
	.p2align 2,,3
	.globl	_gg_strarr_dup
	.def	_gg_strarr_dup;	.scl	2;	.type	32;	.endef
_gg_strarr_dup:
LFB78:
	.loc 1 839 0
	.cfi_startproc
LVL317:
	push	ebp
LCFI166:
	.cfi_def_cfa_offset 8
	.cfi_offset 5, -8
	push	edi
LCFI167:
	.cfi_def_cfa_offset 12
	.cfi_offset 7, -12
	push	esi
LCFI168:
	.cfi_def_cfa_offset 16
	.cfi_offset 6, -16
	push	ebx
LCFI169:
	.cfi_def_cfa_offset 20
	.cfi_offset 3, -20
	sub	esp, 60
LCFI170:
	.cfi_def_cfa_offset 80
	mov	ebp, DWORD PTR [esp+80]
	.loc 1 839 0
	mov	eax, DWORD PTR ___stack_chk_guard
	mov	DWORD PTR [esp+44], eax
	xor	eax, eax
	.loc 1 843 0
	test	ebp, ebp
	je	L354
LVL318:
	.loc 1 847 0 discriminator 1
	mov	eax, DWORD PTR [ebp+0]
	test	eax, eax
	je	L355
	.loc 1 847 0 is_stmt 0
	xor	esi, esi
LVL319:
	.p2align 2,,3
L349:
	.loc 1 848 0 is_stmt 1 discriminator 2
	inc	esi
LVL320:
	.loc 1 847 0 discriminator 2
	mov	edi, DWORD PTR [ebp+0+esi*4]
	test	edi, edi
	jne	L349
	lea	ebx, [4+esi*4]
LVL321:
L348:
	.loc 1 851 0
	mov	DWORD PTR [esp], ebx
	call	_malloc
LVL322:
	mov	DWORD PTR [esp+28], eax
LVL323:
	.loc 1 853 0
	test	eax, eax
	je	L362
	.loc 1 858 0
	xor	eax, eax
LVL324:
	mov	edi, DWORD PTR [esp+28]
	mov	ecx, ebx
	rep stosb
LVL325:
	.loc 1 860 0
	test	esi, esi
	je	L347
	xor	ebx, ebx
LVL326:
	jmp	L352
LVL327:
	.p2align 2,,3
L351:
	inc	ebx
LVL328:
	cmp	ebx, esi
	je	L347
LVL329:
L352:
	.loc 1 861 0
	mov	eax, DWORD PTR [ebp+0+ebx*4]
	mov	DWORD PTR [esp], eax
	call	_strdup
LVL330:
	mov	edx, DWORD PTR [esp+28]
	mov	DWORD PTR [edx+ebx*4], eax
	.loc 1 862 0
	test	eax, eax
	jne	L351
	.loc 1 863 0
	mov	DWORD PTR [esp+4], OFFSET FLAT:LC15
	mov	DWORD PTR [esp], 144
	call	_gg_debug
LVL331:
	.loc 1 866 0
	mov	eax, DWORD PTR [esp+28]
	mov	DWORD PTR [esp], eax
	call	_gg_strarr_free
LVL332:
	.loc 1 867 0
	mov	DWORD PTR [esp+28], 0
LVL333:
L347:
	.loc 1 872 0
	mov	eax, DWORD PTR [esp+28]
	mov	edx, DWORD PTR [esp+44]
	xor	edx, DWORD PTR ___stack_chk_guard
	jne	L363
	add	esp, 60
LCFI171:
	.cfi_remember_state
	.cfi_def_cfa_offset 20
	pop	ebx
LCFI172:
	.cfi_restore 3
	.cfi_def_cfa_offset 16
	pop	esi
LCFI173:
	.cfi_restore 6
	.cfi_def_cfa_offset 12
	pop	edi
LCFI174:
	.cfi_restore 7
	.cfi_def_cfa_offset 8
	pop	ebp
LCFI175:
	.cfi_restore 5
	.cfi_def_cfa_offset 4
	ret
LVL334:
L355:
LCFI176:
	.cfi_restore_state
	.loc 1 847 0
	mov	ebx, 4
	xor	esi, esi
	jmp	L348
LVL335:
L354:
	.loc 1 844 0
	mov	DWORD PTR [esp+28], 0
	jmp	L347
LVL336:
L362:
	.loc 1 854 0
	mov	DWORD PTR [esp+4], OFFSET FLAT:LC14
	mov	DWORD PTR [esp], 144
	call	_gg_debug
LVL337:
	.loc 1 856 0
	jmp	L347
LVL338:
L363:
	.loc 1 872 0
	call	___stack_chk_fail
LVL339:
	.cfi_endproc
LFE78:
	.data
	.align 32
_gg_base64_charset:
	.ascii "ABCDEFGHIJKLMNOPQRSTUVWXYZabcdefghijklmnopqrstuvwxyz0123456789+/\0"
	.section .rdata,"dr"
	.align 32
_gg_crc32_table:
	.long	0
	.long	1996959894
	.long	-301047508
	.long	-1727442502
	.long	124634137
	.long	1886057615
	.long	-379345611
	.long	-1637575261
	.long	249268274
	.long	2044508324
	.long	-522852066
	.long	-1747789432
	.long	162941995
	.long	2125561021
	.long	-407360249
	.long	-1866523247
	.long	498536548
	.long	1789927666
	.long	-205950648
	.long	-2067906082
	.long	450548861
	.long	1843258603
	.long	-187386543
	.long	-2083289657
	.long	325883990
	.long	1684777152
	.long	-43845254
	.long	-1973040660
	.long	335633487
	.long	1661365465
	.long	-99664541
	.long	-1928851979
	.long	997073096
	.long	1281953886
	.long	-715111964
	.long	-1570279054
	.long	1006888145
	.long	1258607687
	.long	-770865667
	.long	-1526024853
	.long	901097722
	.long	1119000684
	.long	-608450090
	.long	-1396901568
	.long	853044451
	.long	1172266101
	.long	-589951537
	.long	-1412350631
	.long	651767980
	.long	1373503546
	.long	-925412992
	.long	-1076862698
	.long	565507253
	.long	1454621731
	.long	-809855591
	.long	-1195530993
	.long	671266974
	.long	1594198024
	.long	-972236366
	.long	-1324619484
	.long	795835527
	.long	1483230225
	.long	-1050600021
	.long	-1234817731
	.long	1994146192
	.long	31158534
	.long	-1731059524
	.long	-271249366
	.long	1907459465
	.long	112637215
	.long	-1614814043
	.long	-390540237
	.long	2013776290
	.long	251722036
	.long	-1777751922
	.long	-519137256
	.long	2137656763
	.long	141376813
	.long	-1855689577
	.long	-429695999
	.long	1802195444
	.long	476864866
	.long	-2056965928
	.long	-228458418
	.long	1812370925
	.long	453092731
	.long	-2113342271
	.long	-183516073
	.long	1706088902
	.long	314042704
	.long	-1950435094
	.long	-54949764
	.long	1658658271
	.long	366619977
	.long	-1932296973
	.long	-69972891
	.long	1303535960
	.long	984961486
	.long	-1547960204
	.long	-725929758
	.long	1256170817
	.long	1037604311
	.long	-1529756563
	.long	-740887301
	.long	1131014506
	.long	879679996
	.long	-1385723834
	.long	-631195440
	.long	1141124467
	.long	855842277
	.long	-1442165665
	.long	-586318647
	.long	1342533948
	.long	654459306
	.long	-1106571248
	.long	-921952122
	.long	1466479909
	.long	544179635
	.long	-1184443383
	.long	-832445281
	.long	1591671054
	.long	702138776
	.long	-1328506846
	.long	-942167884
	.long	1504918807
	.long	783551873
	.long	-1212326853
	.long	-1061524307
	.long	-306674912
	.long	-1698712650
	.long	62317068
	.long	1957810842
	.long	-355121351
	.long	-1647151185
	.long	81470997
	.long	1943803523
	.long	-480048366
	.long	-1805370492
	.long	225274430
	.long	2053790376
	.long	-468791541
	.long	-1828061283
	.long	167816743
	.long	2097651377
	.long	-267414716
	.long	-2029476910
	.long	503444072
	.long	1762050814
	.long	-144550051
	.long	-2140837941
	.long	426522225
	.long	1852507879
	.long	-19653770
	.long	-1982649376
	.long	282753626
	.long	1742555852
	.long	-105259153
	.long	-1900089351
	.long	397917763
	.long	1622183637
	.long	-690576408
	.long	-1580100738
	.long	953729732
	.long	1340076626
	.long	-776247311
	.long	-1497606297
	.long	1068828381
	.long	1219638859
	.long	-670225446
	.long	-1358292148
	.long	906185462
	.long	1090812512
	.long	-547295293
	.long	-1469587627
	.long	829329135
	.long	1181335161
	.long	-882789492
	.long	-1134132454
	.long	628085408
	.long	1382605366
	.long	-871598187
	.long	-1156888829
	.long	570562233
	.long	1426400815
	.long	-977650754
	.long	-1296233688
	.long	733239954
	.long	1555261956
	.long	-1026031705
	.long	-1244606671
	.long	752459403
	.long	1541320221
	.long	-1687895376
	.long	-328994266
	.long	1969922972
	.long	40735498
	.long	-1677130071
	.long	-351390145
	.long	1913087877
	.long	83908371
	.long	-1782625662
	.long	-491226604
	.long	2075208622
	.long	213261112
	.long	-1831694693
	.long	-438977011
	.long	2094854071
	.long	198958881
	.long	-2032938284
	.long	-237706686
	.long	1759359992
	.long	534414190
	.long	-2118248755
	.long	-155638181
	.long	1873836001
	.long	414664567
	.long	-2012718362
	.long	-15766928
	.long	1711684554
	.long	285281116
	.long	-1889165569
	.long	-127750551
	.long	1634467795
	.long	376229701
	.long	-1609899400
	.long	-686959890
	.long	1308918612
	.long	956543938
	.long	-1486412191
	.long	-799009033
	.long	1231636301
	.long	1047427035
	.long	-1362007478
	.long	-640263460
	.long	1088359270
	.long	936918000
	.long	-1447252397
	.long	-558129467
	.long	1202900863
	.long	817233897
	.long	-1111625188
	.long	-893730166
	.long	1404277552
	.long	615818150
	.long	-1160759803
	.long	-841546093
	.long	1423857449
	.long	601450431
	.long	-1285129682
	.long	-1000256840
	.long	1567103746
	.long	711928724
	.long	-1274298825
	.long	-1022587231
	.long	1510334235
	.long	755167117
	.text
Letext0:
	.file 3 "c:/workspace/pidgin-devel/win32-dev/mingw-4.7.2/bin/../lib/gcc/mingw32/4.7.2/include/stdarg.h"
	.file 4 "c:/workspace/pidgin-devel/win32-dev/mingw-4.7.2/bin/../lib/gcc/mingw32/4.7.2/include/stddef.h"
	.file 5 "c:/workspace/pidgin-devel/win32-dev/mingw-4.7.2/bin/../lib/gcc/mingw32/4.7.2/../../../../include/winsock2.h"
	.file 6 "c:/workspace/pidgin-devel/win32-dev/mingw-4.7.2/bin/../lib/gcc/mingw32/4.7.2/../../../../include/ws2tcpip.h"
	.file 7 "c:/workspace/pidgin-devel/win32-dev/mingw-4.7.2/bin/../lib/gcc/mingw32/4.7.2/../../../../include/stdio.h"
	.file 8 "c:/workspace/pidgin-devel/win32-dev/mingw-4.7.2/bin/../lib/gcc/mingw32/4.7.2/../../../../include/sys/types.h"
	.file 9 "c:/workspace/pidgin-devel/win32-dev/mingw-4.7.2/bin/../lib/gcc/mingw32/4.7.2/../../../../include/stdint.h"
	.file 10 "lib/libgadu.h"
	.file 11 "lib/internal.h"
	.file 12 "c:/workspace/pidgin-devel/win32-dev/mingw-4.7.2/bin/../lib/gcc/mingw32/4.7.2/../../../../include/stdlib.h"
	.file 13 "c:/workspace/pidgin-devel/win32-dev/mingw-4.7.2/bin/../lib/gcc/mingw32/4.7.2/../../../../include/ctype.h"
	.file 14 "c:/workspace/pidgin-devel/win32-dev/mingw-4.7.2/bin/../lib/gcc/mingw32/4.7.2/../../../../include/string.h"
	.file 15 "c:/workspace/pidgin-devel/win32-dev/mingw-4.7.2/bin/../lib/gcc/mingw32/4.7.2/../../../../include/io.h"
	.file 16 "c:/workspace/pidgin-devel/win32-dev/mingw-4.7.2/bin/../lib/gcc/mingw32/4.7.2/../../../../include/errno.h"
	.file 17 "c:/workspace/pidgin-devel/win32-dev/mingw-4.7.2/bin/../lib/gcc/mingw32/4.7.2/../../../../include/time.h"