	.file	"confer.c"
	.intel_syntax noprefix
	.text
Ltext0:
	.section .rdata,"dr"
LC0:
	.ascii "gc != NULL\0"
LC1:
	.ascii "name != NULL\0"
	.text
	.p2align 2,,3
	.globl	_ggp_confer_find_by_name
	.def	_ggp_confer_find_by_name;	.scl	2;	.type	32;	.endef
_ggp_confer_find_by_name:
LFB93:
	.file 1 "confer.c"
	.loc 1 31 0
	.cfi_startproc
LVL0:
	push	ebx
LCFI0:
	.cfi_def_cfa_offset 8
	.cfi_offset 3, -8
	sub	esp, 40
LCFI1:
	.cfi_def_cfa_offset 48
	mov	eax, DWORD PTR [esp+48]
	mov	ebx, DWORD PTR [esp+52]
	.loc 1 31 0
	mov	edx, DWORD PTR ___stack_chk_guard
	mov	DWORD PTR [esp+28], edx
	xor	edx, edx
LBB10:
	.loc 1 32 0
	test	eax, eax
	je	L11
LVL1:
LBE10:
LBB11:
	.loc 1 33 0
	test	ebx, ebx
	je	L12
LVL2:
LBE11:
	.loc 1 36 0
	mov	DWORD PTR [esp], eax
	call	_purple_connection_get_account
LVL3:
	.loc 1 35 0
	mov	DWORD PTR [esp+8], eax
	mov	DWORD PTR [esp+4], ebx
	mov	DWORD PTR [esp], 2
	call	_purple_find_conversation_with_account
LVL4:
L4:
	.loc 1 37 0
	mov	edx, DWORD PTR [esp+28]
	xor	edx, DWORD PTR ___stack_chk_guard
	jne	L13
	add	esp, 40
LCFI2:
	.cfi_remember_state
	.cfi_def_cfa_offset 8
	pop	ebx
LCFI3:
	.cfi_restore 3
	.cfi_def_cfa_offset 4
	ret
	.p2align 2,,3
L11:
LCFI4:
	.cfi_restore_state
LVL5:
	.loc 1 32 0
	mov	DWORD PTR [esp+8], OFFSET FLAT:LC0
	mov	DWORD PTR [esp+4], OFFSET FLAT:___PRETTY_FUNCTION__.45641
	mov	DWORD PTR [esp], 0
	call	_g_return_if_fail_warning
LVL6:
	xor	eax, eax
	jmp	L4
LVL7:
	.p2align 2,,3
L12:
LBB12:
LBB13:
	.loc 1 33 0
	mov	DWORD PTR [esp+8], OFFSET FLAT:LC1
	mov	DWORD PTR [esp+4], OFFSET FLAT:___PRETTY_FUNCTION__.45641
	mov	DWORD PTR [esp], 0
	call	_g_return_if_fail_warning
LVL8:
	xor	eax, eax
	jmp	L4
LVL9:
L13:
LBE13:
LBE12:
	.loc 1 37 0
	call	___stack_chk_fail
LVL10:
	.cfi_endproc
LFE93:
	.section .rdata,"dr"
LC2:
	.ascii "%lu\0"
	.text
	.p2align 2,,3
	.globl	_ggp_confer_participants_add_uin
	.def	_ggp_confer_participants_add_uin;	.scl	2;	.type	32;	.endef
_ggp_confer_participants_add_uin:
LFB94:
	.loc 1 43 0
	.cfi_startproc
LVL11:
	push	ebp
LCFI5:
	.cfi_def_cfa_offset 8
	.cfi_offset 5, -8
	push	edi
LCFI6:
	.cfi_def_cfa_offset 12
	.cfi_offset 7, -12
	push	esi
LCFI7:
	.cfi_def_cfa_offset 16
	.cfi_offset 6, -16
	push	ebx
LCFI8:
	.cfi_def_cfa_offset 20
	.cfi_offset 3, -20
	sub	esp, 76
LCFI9:
	.cfi_def_cfa_offset 96
	mov	edi, DWORD PTR [esp+96]
	mov	esi, DWORD PTR [esp+100]
	mov	eax, DWORD PTR [esp+104]
	mov	DWORD PTR [esp+44], eax
	.loc 1 43 0
	mov	eax, DWORD PTR ___stack_chk_guard
	mov	DWORD PTR [esp+60], eax
	xor	eax, eax
LVL12:
	.loc 1 50 0
	mov	eax, DWORD PTR [edi+28]
	mov	ebx, DWORD PTR [eax+8]
LVL13:
	test	ebx, ebx
	je	L14
LVL14:
L22:
	.loc 1 51 0
	mov	ebp, DWORD PTR [ebx]
LVL15:
	.loc 1 53 0
	mov	DWORD PTR [esp+4], esi
	mov	eax, DWORD PTR [ebp+0]
	mov	DWORD PTR [esp], eax
	call	_g_utf8_collate
LVL16:
	test	eax, eax
	je	L17
	.loc 1 50 0
	mov	ebx, DWORD PTR [ebx+4]
LVL17:
	test	ebx, ebx
	jne	L22
LVL18:
	.p2align 2,,3
L14:
	.loc 1 69 0
	mov	eax, DWORD PTR [esp+60]
	xor	eax, DWORD PTR ___stack_chk_guard
	jne	L25
	add	esp, 76
LCFI10:
	.cfi_remember_state
	.cfi_def_cfa_offset 20
	pop	ebx
LCFI11:
	.cfi_restore 3
	.cfi_def_cfa_offset 16
LVL19:
	pop	esi
LCFI12:
	.cfi_restore 6
	.cfi_def_cfa_offset 12
	pop	edi
LCFI13:
	.cfi_restore 7
	.cfi_def_cfa_offset 8
	pop	ebp
LCFI14:
	.cfi_restore 5
	.cfi_def_cfa_offset 4
	ret
LVL20:
	.p2align 2,,3
L17:
LCFI15:
	.cfi_restore_state
	.loc 1 56 0
	mov	eax, DWORD PTR [esp+44]
	mov	DWORD PTR [esp+4], eax
	mov	eax, DWORD PTR [ebp+4]
	mov	DWORD PTR [esp], eax
	call	_g_list_find
LVL21:
	test	eax, eax
	jne	L14
	.loc 1 57 0
	mov	eax, DWORD PTR [esp+44]
	mov	DWORD PTR [esp+4], eax
	mov	eax, DWORD PTR [ebp+4]
	mov	DWORD PTR [esp], eax
	call	_g_list_append
LVL22:
	mov	DWORD PTR [ebp+4], eax
	.loc 1 60 0
	mov	eax, DWORD PTR [esp+44]
	mov	DWORD PTR [esp+4], eax
	mov	DWORD PTR [esp], OFFSET FLAT:LC2
	call	_g_strdup_printf
LVL23:
	mov	ebx, eax
LVL24:
	.loc 1 61 0
	mov	DWORD PTR [esp+4], esi
	mov	DWORD PTR [esp], edi
	call	_ggp_confer_find_by_name
LVL25:
	.loc 1 62 0
	mov	DWORD PTR [esp], eax
	call	_purple_conversation_get_chat_data
LVL26:
	mov	DWORD PTR [esp+16], 1
	mov	DWORD PTR [esp+12], 0
	mov	DWORD PTR [esp+8], 0
	mov	DWORD PTR [esp+4], ebx
	mov	DWORD PTR [esp], eax
	call	_purple_conv_chat_add_user
LVL27:
	.loc 1 65 0
	mov	eax, DWORD PTR [esp+60]
	xor	eax, DWORD PTR ___stack_chk_guard
	jne	L25
	mov	DWORD PTR [esp+96], ebx
	.loc 1 69 0
	add	esp, 76
LCFI16:
	.cfi_remember_state
	.cfi_def_cfa_offset 20
	pop	ebx
LCFI17:
	.cfi_restore 3
	.cfi_def_cfa_offset 16
LVL28:
	pop	esi
LCFI18:
	.cfi_restore 6
	.cfi_def_cfa_offset 12
	pop	edi
LCFI19:
	.cfi_restore 7
	.cfi_def_cfa_offset 8
	pop	ebp
LCFI20:
	.cfi_restore 5
	.cfi_def_cfa_offset 4
LVL29:
	.loc 1 65 0
	jmp	_g_free
LVL30:
L25:
LCFI21:
	.cfi_restore_state
	.loc 1 69 0
	call	___stack_chk_fail
LVL31:
	.cfi_endproc
LFE94:
	.p2align 2,,3
	.globl	_ggp_confer_participants_add
	.def	_ggp_confer_participants_add;	.scl	2;	.type	32;	.endef
_ggp_confer_participants_add:
LFB95:
	.loc 1 75 0
	.cfi_startproc
LVL32:
	push	ebp
LCFI22:
	.cfi_def_cfa_offset 8
	.cfi_offset 5, -8
	push	edi
LCFI23:
	.cfi_def_cfa_offset 12
	.cfi_offset 7, -12
	push	esi
LCFI24:
	.cfi_def_cfa_offset 16
	.cfi_offset 6, -16
	push	ebx
LCFI25:
	.cfi_def_cfa_offset 20
	.cfi_offset 3, -20
	sub	esp, 76
LCFI26:
	.cfi_def_cfa_offset 96
	mov	edx, DWORD PTR [esp+96]
	mov	DWORD PTR [esp+40], edx
	mov	edx, DWORD PTR [esp+100]
	mov	DWORD PTR [esp+36], edx
	mov	ebx, DWORD PTR [esp+104]
	mov	esi, DWORD PTR [esp+108]
	.loc 1 75 0
	mov	eax, DWORD PTR ___stack_chk_guard
	mov	DWORD PTR [esp+60], eax
	xor	eax, eax
LVL33:
	.loc 1 80 0
	mov	edx, DWORD PTR [esp+40]
	mov	eax, DWORD PTR [edx+28]
	mov	ebp, DWORD PTR [eax+8]
LVL34:
	test	ebp, ebp
	je	L26
LVL35:
L36:
LBB14:
	.loc 1 81 0
	mov	edi, DWORD PTR [ebp+0]
LVL36:
	.loc 1 84 0
	mov	edx, DWORD PTR [esp+36]
	mov	DWORD PTR [esp+4], edx
	mov	eax, DWORD PTR [edi]
	mov	DWORD PTR [esp], eax
	call	_g_utf8_collate
LVL37:
	test	eax, eax
	jne	L28
LVL38:
	.loc 1 87 0 discriminator 1
	xor	ebp, ebp
LVL39:
	test	esi, esi
	jle	L26
LVL40:
	.p2align 2,,3
L35:
LBB15:
	.loc 1 90 0
	mov	eax, DWORD PTR [ebx+ebp*4]
	mov	DWORD PTR [esp+4], eax
	mov	eax, DWORD PTR [edi+4]
	mov	DWORD PTR [esp], eax
	call	_g_list_find
LVL41:
	test	eax, eax
	je	L41
L32:
LBE15:
	.loc 1 87 0
	inc	ebp
LVL42:
	cmp	ebp, esi
	jne	L35
LVL43:
L26:
LBE14:
	.loc 1 107 0
	mov	edx, DWORD PTR [esp+60]
	xor	edx, DWORD PTR ___stack_chk_guard
	jne	L42
	add	esp, 76
LCFI27:
	.cfi_remember_state
	.cfi_def_cfa_offset 20
	pop	ebx
LCFI28:
	.cfi_restore 3
	.cfi_def_cfa_offset 16
	pop	esi
LCFI29:
	.cfi_restore 6
	.cfi_def_cfa_offset 12
	pop	edi
LCFI30:
	.cfi_restore 7
	.cfi_def_cfa_offset 8
	pop	ebp
LCFI31:
	.cfi_restore 5
	.cfi_def_cfa_offset 4
	ret
LVL44:
	.p2align 2,,3
L28:
LCFI32:
	.cfi_restore_state
	.loc 1 80 0
	mov	ebp, DWORD PTR [ebp+4]
LVL45:
	test	ebp, ebp
	jne	L36
	jmp	L26
LVL46:
	.p2align 2,,3
L41:
LBB17:
LBB16:
	.loc 1 95 0
	mov	eax, DWORD PTR [ebx+ebp*4]
	mov	DWORD PTR [esp+4], eax
	mov	eax, DWORD PTR [edi+4]
	mov	DWORD PTR [esp], eax
	call	_g_list_append
LVL47:
	mov	DWORD PTR [edi+4], eax
	.loc 1 98 0
	mov	eax, DWORD PTR [ebx+ebp*4]
	mov	DWORD PTR [esp+4], eax
	mov	DWORD PTR [esp], OFFSET FLAT:LC2
	call	_g_strdup_printf
LVL48:
	mov	DWORD PTR [esp+44], eax
LVL49:
	.loc 1 99 0
	mov	edx, DWORD PTR [esp+36]
	mov	DWORD PTR [esp+4], edx
	mov	edx, DWORD PTR [esp+40]
	mov	DWORD PTR [esp], edx
	call	_ggp_confer_find_by_name
LVL50:
	.loc 1 100 0
	mov	DWORD PTR [esp], eax
	call	_purple_conversation_get_chat_data
LVL51:
	mov	DWORD PTR [esp+16], 1
	mov	DWORD PTR [esp+12], 0
	mov	DWORD PTR [esp+8], 0
	mov	edx, DWORD PTR [esp+44]
	mov	DWORD PTR [esp+4], edx
	mov	DWORD PTR [esp], eax
	call	_purple_conv_chat_add_user
LVL52:
	.loc 1 103 0
	mov	eax, DWORD PTR [esp+44]
	mov	DWORD PTR [esp], eax
	call	_g_free
LVL53:
	jmp	L32
LVL54:
L42:
LBE16:
LBE17:
	.loc 1 107 0
	call	___stack_chk_fail
LVL55:
	.cfi_endproc
LFE95:
	.section .rdata,"dr"
LC3:
	.ascii "info->chats != NULL\0"
	.text
	.p2align 2,,3
	.globl	_ggp_confer_find_by_participants
	.def	_ggp_confer_find_by_participants;	.scl	2;	.type	32;	.endef
_ggp_confer_find_by_participants:
LFB96:
	.loc 1 113 0
	.cfi_startproc
LVL56:
	push	ebp
LCFI33:
	.cfi_def_cfa_offset 8
	.cfi_offset 5, -8
	push	edi
LCFI34:
	.cfi_def_cfa_offset 12
	.cfi_offset 7, -12
	push	esi
LCFI35:
	.cfi_def_cfa_offset 16
	.cfi_offset 6, -16
	push	ebx
LCFI36:
	.cfi_def_cfa_offset 20
	.cfi_offset 3, -20
	sub	esp, 60
LCFI37:
	.cfi_def_cfa_offset 80
	mov	ebp, DWORD PTR [esp+84]
	mov	edi, DWORD PTR [esp+88]
	.loc 1 113 0
	mov	eax, DWORD PTR ___stack_chk_guard
	mov	DWORD PTR [esp+44], eax
	xor	eax, eax
LVL57:
LBB18:
	.loc 1 119 0
	mov	eax, DWORD PTR [esp+80]
	mov	eax, DWORD PTR [eax+28]
	mov	eax, DWORD PTR [eax+8]
	mov	DWORD PTR [esp+24], eax
	test	eax, eax
	je	L44
	.loc 1 111 0
	lea	ecx, [ebp+0+edi*4]
L51:
LBE18:
LBB19:
	.loc 1 124 0
	mov	edx, DWORD PTR [esp+24]
	mov	edx, DWORD PTR [edx]
	mov	DWORD PTR [esp+28], edx
LVL58:
	.loc 1 127 0
	mov	esi, DWORD PTR [edx+4]
LVL59:
	xor	ebx, ebx
	test	esi, esi
	je	L45
LVL60:
	.p2align 2,,3
L49:
LBB20:
	.loc 1 128 0
	mov	edx, DWORD PTR [esi]
LVL61:
	.loc 1 131 0
	test	edi, edi
	jle	L46
	mov	eax, ebp
	jmp	L48
LVL62:
	.p2align 2,,3
L47:
	add	eax, 4
	cmp	eax, ecx
	je	L46
L48:
	.loc 1 132 0
	cmp	DWORD PTR [eax], edx
	jne	L47
	.loc 1 133 0
	inc	ebx
LVL63:
	add	eax, 4
	.loc 1 131 0
	cmp	eax, ecx
	jne	L48
L46:
LBE20:
	.loc 1 127 0
	mov	esi, DWORD PTR [esi+4]
LVL64:
	test	esi, esi
	jne	L49
LVL65:
L45:
	.loc 1 136 0
	cmp	ebx, edi
	je	L50
LVL66:
LBE19:
	.loc 1 121 0
	mov	eax, DWORD PTR [esp+24]
	mov	eax, DWORD PTR [eax+4]
	mov	DWORD PTR [esp+24], eax
LVL67:
	test	eax, eax
	jne	L51
LVL68:
L52:
	.loc 1 146 0
	mov	edx, DWORD PTR [esp+44]
	xor	edx, DWORD PTR ___stack_chk_guard
	jne	L60
	add	esp, 60
LCFI38:
	.cfi_remember_state
	.cfi_def_cfa_offset 20
	pop	ebx
LCFI39:
	.cfi_restore 3
	.cfi_def_cfa_offset 16
	pop	esi
LCFI40:
	.cfi_restore 6
	.cfi_def_cfa_offset 12
	pop	edi
LCFI41:
	.cfi_restore 7
	.cfi_def_cfa_offset 8
	pop	ebp
LCFI42:
	.cfi_restore 5
	.cfi_def_cfa_offset 4
	ret
LVL69:
L50:
LCFI43:
	.cfi_restore_state
	.loc 1 145 0
	mov	edx, DWORD PTR [esp+28]
	mov	eax, DWORD PTR [edx]
	jmp	L52
LVL70:
L44:
	.loc 1 119 0
	mov	DWORD PTR [esp+8], OFFSET FLAT:LC3
	mov	DWORD PTR [esp+4], OFFSET FLAT:___PRETTY_FUNCTION__.45689
	mov	DWORD PTR [esp], 0
	call	_g_return_if_fail_warning
LVL71:
	xor	eax, eax
	jmp	L52
LVL72:
L60:
	.loc 1 146 0
	call	___stack_chk_fail
LVL73:
	.cfi_endproc
LFE96:
	.section .rdata,"dr"
LC4:
	.ascii "conf#%d\0"
	.text
	.p2align 2,,3
	.globl	_ggp_confer_add_new
	.def	_ggp_confer_add_new;	.scl	2;	.type	32;	.endef
_ggp_confer_add_new:
LFB97:
	.loc 1 151 0
	.cfi_startproc
LVL74:
	push	edi
LCFI44:
	.cfi_def_cfa_offset 8
	.cfi_offset 7, -8
	push	esi
LCFI45:
	.cfi_def_cfa_offset 12
	.cfi_offset 6, -12
	push	ebx
LCFI46:
	.cfi_def_cfa_offset 16
	.cfi_offset 3, -16
	sub	esp, 32
LCFI47:
	.cfi_def_cfa_offset 48
	mov	edi, DWORD PTR [esp+52]
	.loc 1 151 0
	mov	eax, DWORD PTR ___stack_chk_guard
	mov	DWORD PTR [esp+28], eax
	xor	eax, eax
	.loc 1 152 0
	mov	eax, DWORD PTR [esp+48]
	mov	esi, DWORD PTR [eax+28]
LVL75:
	.loc 1 155 0
	mov	DWORD PTR [esp], 8
	call	_g_malloc0
LVL76:
	mov	ebx, eax
LVL77:
	.loc 1 157 0
	test	edi, edi
	je	L66
	.loc 1 160 0
	mov	DWORD PTR [esp], edi
	call	_g_strdup
LVL78:
	mov	DWORD PTR [ebx], eax
L63:
	.loc 1 162 0
	mov	DWORD PTR [ebx+4], 0
	.loc 1 164 0
	mov	DWORD PTR [esp+4], ebx
	mov	eax, DWORD PTR [esi+8]
	mov	DWORD PTR [esp], eax
	call	_g_list_append
LVL79:
	mov	DWORD PTR [esi+8], eax
	.loc 1 166 0
	mov	eax, DWORD PTR [ebx]
	.loc 1 167 0
	mov	edx, DWORD PTR [esp+28]
	xor	edx, DWORD PTR ___stack_chk_guard
	jne	L67
	add	esp, 32
LCFI48:
	.cfi_remember_state
	.cfi_def_cfa_offset 16
	pop	ebx
LCFI49:
	.cfi_restore 3
	.cfi_def_cfa_offset 12
LVL80:
	pop	esi
LCFI50:
	.cfi_restore 6
	.cfi_def_cfa_offset 8
LVL81:
	pop	edi
LCFI51:
	.cfi_restore 7
	.cfi_def_cfa_offset 4
	ret
LVL82:
	.p2align 2,,3
L66:
LCFI52:
	.cfi_restore_state
	.loc 1 158 0
	mov	eax, DWORD PTR [esi+16]
LVL83:
	lea	edx, [eax+1]
	mov	DWORD PTR [esi+16], edx
	mov	DWORD PTR [esp+4], eax
	mov	DWORD PTR [esp], OFFSET FLAT:LC4
	call	_g_strdup_printf
LVL84:
	mov	DWORD PTR [ebx], eax
	jmp	L63
L67:
	.loc 1 167 0
	call	___stack_chk_fail
LVL85:
	.cfi_endproc
LFE97:
	.section .rdata,"dr"
___PRETTY_FUNCTION__.45641:
	.ascii "ggp_confer_find_by_name\0"
	.align 32
___PRETTY_FUNCTION__.45689:
	.ascii "ggp_confer_find_by_participants\0"
	.text
Letext0:
	.file 2 "c:/workspace/pidgin-devel/win32-dev/mingw-4.7.2/bin/../lib/gcc/mingw32/4.7.2/include/stddef.h"
	.file 3 "c:/workspace/pidgin-devel/win32-dev/mingw-4.7.2/bin/../lib/gcc/mingw32/4.7.2/../../../../include/sys/types.h"
	.file 4 "c:/workspace/pidgin-devel/win32-dev/mingw-4.7.2/bin/../lib/gcc/mingw32/4.7.2/../../../../include/stdio.h"
	.file 5 "c:/workspace/pidgin-devel/win32-dev/mingw-4.7.2/bin/../lib/gcc/mingw32/4.7.2/../../../../include/stdint.h"
	.file 6 "./lib/libgadu.h"
	.file 7 "c:/workspace/pidgin-devel/win32-dev/mingw-4.7.2/bin/../lib/gcc/mingw32/4.7.2/../../../../include/winsock2.h"
	.file 8 "c:/workspace/pidgin-devel/win32-dev/mingw-4.7.2/bin/../lib/gcc/mingw32/4.7.2/../../../../include/time.h"
	.file 9 "../../../../win32-dev/gtk_2_0-2.14/lib/glib-2.0/include/glibconfig.h"
	.file 10 "../../../../win32-dev/gtk_2_0-2.14/include/glib-2.0/glib/gtypes.h"
	.file 11 "../../../../win32-dev/gtk_2_0-2.14/include/glib-2.0/glib/glist.h"
	.file 12 "../../../../win32-dev/gtk_2_0-2.14/include/glib-2.0/glib/ghash.h"
	.file 13 "../../../../win32-dev/gtk_2_0-2.14/include/glib-2.0/glib/gslist.h"
	.file 14 "../../../libpurple/account.h"
	.file 15 "../../../libpurple/connection.h"
	.file 16 "../../../libpurple/plugin.h"
	.file 17 "../../../libpurple/pluginpref.h"
	.file 18 "../../../libpurple/status.h"
	.file 19 "../../../libpurple/buddyicon.h"
	.file 20 "../../../libpurple/conversation.h"
	.file 21 "../../../libpurple/log.h"
	.file 22 "../../../libpurple/proxy.h"
	.file 23 "../../../libpurple/privacy.h"
	.file 24 "../../../libpurple/dnsquery.h"
	.file 25 "search.h"
	.file 26 "gg.h"
	.file 27 "c:/workspace/pidgin-devel/win32-dev/mingw-4.7.2/bin/../lib/gcc/mingw32/4.7.2/../../../../include/ctype.h"
	.file 28 "../../../../win32-dev/gtk_2_0-2.14/include/glib-2.0/glib/gunicode.h"
	.file 29 "../../../../win32-dev/gtk_2_0-2.14/include/glib-2.0/glib/gstrfuncs.h"
	.file 30 "../../../../win32-dev/gtk_2_0-2.14/include/glib-2.0/glib/gmessages.h"
	.file 31 "../../../../win32-dev/gtk_2_0-2.14/include/glib-2.0/glib/gmem.h"