	.file	"dcc.c"
	.intel_syntax noprefix
	.text
Ltext0:
	.section .rdata,"dr"
LC0:
	.ascii "** gg_dcc_free(%p);\12\0"
	.text
	.p2align 2,,3
	.globl	_gg_dcc_free
	.def	_gg_dcc_free;	.scl	2;	.type	32;	.endef
_gg_dcc_free:
LFB74:
	.file 1 "lib/dcc.c"
	.loc 1 1379 0
	.cfi_startproc
LVL0:
	push	ebx
LCFI0:
	.cfi_def_cfa_offset 8
	.cfi_offset 3, -8
	sub	esp, 40
LCFI1:
	.cfi_def_cfa_offset 48
	mov	ebx, DWORD PTR [esp+48]
	.loc 1 1379 0
	mov	eax, DWORD PTR ___stack_chk_guard
	mov	DWORD PTR [esp+28], eax
	xor	eax, eax
	.loc 1 1380 0
	mov	DWORD PTR [esp+8], ebx
	mov	DWORD PTR [esp+4], OFFSET FLAT:LC0
	mov	DWORD PTR [esp], 8
	call	_gg_debug
LVL1:
	.loc 1 1382 0
	test	ebx, ebx
	je	L1
	.loc 1 1385 0
	mov	eax, DWORD PTR [ebx]
	cmp	eax, -1
	je	L3
	.loc 1 1386 0
	mov	DWORD PTR [esp], eax
	call	_gg_win32_close
LVL2:
L3:
	.loc 1 1388 0
	mov	eax, DWORD PTR [ebx+56]
	cmp	eax, -1
	je	L4
	.loc 1 1389 0
	mov	DWORD PTR [esp], eax
	call	__close
LVL3:
L4:
	.loc 1 1391 0
	mov	eax, DWORD PTR [ebx+404]
	mov	DWORD PTR [esp], eax
	call	_free
LVL4:
	.loc 1 1392 0
	mov	eax, DWORD PTR [esp+28]
	xor	eax, DWORD PTR ___stack_chk_guard
	jne	L14
	mov	DWORD PTR [esp+48], ebx
	.loc 1 1393 0
	add	esp, 40
LCFI2:
	.cfi_remember_state
	.cfi_def_cfa_offset 8
	pop	ebx
LCFI3:
	.cfi_restore 3
	.cfi_def_cfa_offset 4
	.loc 1 1392 0
	jmp	_free
LVL5:
	.p2align 2,,3
L1:
LCFI4:
	.cfi_restore_state
	.loc 1 1393 0
	mov	eax, DWORD PTR [esp+28]
	xor	eax, DWORD PTR ___stack_chk_guard
	jne	L14
	add	esp, 40
LCFI5:
	.cfi_remember_state
	.cfi_def_cfa_offset 8
	pop	ebx
LCFI6:
	.cfi_restore 3
	.cfi_def_cfa_offset 4
	ret
L14:
LCFI7:
	.cfi_restore_state
	call	___stack_chk_fail
LVL6:
	.cfi_endproc
LFE74:
	.section .rdata,"dr"
LC1:
	.ascii "++ gg_dcc %s (fd=%d,len=%d)\0"
LC2:
	.ascii "\12\0"
	.text
	.p2align 2,,3
	.def	_gg_dcc_debug_data;	.scl	3;	.type	32;	.endef
_gg_dcc_debug_data:
LFB60:
	.loc 1 50 0
	.cfi_startproc
LVL7:
	push	esi
LCFI8:
	.cfi_def_cfa_offset 8
	.cfi_offset 6, -8
	push	ebx
LCFI9:
	.cfi_def_cfa_offset 12
	.cfi_offset 3, -12
	sub	esp, 52
LCFI10:
	.cfi_def_cfa_offset 64
	mov	esi, ecx
	mov	ebx, DWORD PTR [esp+64]
	.loc 1 50 0
	mov	ecx, DWORD PTR ___stack_chk_guard
	mov	DWORD PTR [esp+44], ecx
	xor	ecx, ecx
LVL8:
	.loc 1 51 0
	mov	DWORD PTR [esp+16], ebx
	mov	DWORD PTR [esp+12], edx
	mov	DWORD PTR [esp+8], eax
	mov	DWORD PTR [esp+4], OFFSET FLAT:LC1
	mov	DWORD PTR [esp], 16
	call	_gg_debug
LVL9:
	.loc 1 52 0
	mov	DWORD PTR [esp+12], ebx
	mov	DWORD PTR [esp+8], esi
	mov	DWORD PTR [esp+4], 4
	mov	DWORD PTR [esp], 0
	call	_gg_debug_dump
LVL10:
	.loc 1 53 0
	mov	DWORD PTR [esp+4], OFFSET FLAT:LC2
	mov	DWORD PTR [esp], 16
	call	_gg_debug
LVL11:
	.loc 1 54 0
	mov	eax, DWORD PTR [esp+44]
	xor	eax, DWORD PTR ___stack_chk_guard
	jne	L19
	add	esp, 52
LCFI11:
	.cfi_remember_state
	.cfi_def_cfa_offset 12
	pop	ebx
LCFI12:
	.cfi_restore 3
	.cfi_def_cfa_offset 8
	pop	esi
LCFI13:
	.cfi_restore 6
	.cfi_def_cfa_offset 4
LVL12:
	ret
LVL13:
L19:
LCFI14:
	.cfi_restore_state
	call	___stack_chk_fail
LVL14:
	.cfi_endproc
LFE60:
	.section .rdata,"dr"
LC3:
	.ascii "SEND\0"
LC4:
	.ascii "GET\0"
	.align 4
LC5:
	.ascii "** gg_dcc_transfer(%s, %d, %u, %u, %s);\12\0"
	.align 4
LC6:
	.ascii "// gg_dcc_transfer() invalid arguments\12\0"
	.align 4
LC7:
	.ascii "// gg_dcc_transfer() not enough memory\12\0"
	.align 4
LC8:
	.ascii "// gg_dcc_transfer() connection failed\12\0"
	.text
	.p2align 2,,3
	.def	_gg_dcc_transfer;	.scl	3;	.type	32;	.endef
_gg_dcc_transfer:
LFB65:
	.loc 1 236 0
	.cfi_startproc
LVL15:
	push	ebp
LCFI15:
	.cfi_def_cfa_offset 8
	.cfi_offset 5, -8
	push	edi
LCFI16:
	.cfi_def_cfa_offset 12
	.cfi_offset 7, -12
	push	esi
LCFI17:
	.cfi_def_cfa_offset 16
	.cfi_offset 6, -16
	push	ebx
LCFI18:
	.cfi_def_cfa_offset 20
	.cfi_offset 3, -20
	sub	esp, 76
LCFI19:
	.cfi_def_cfa_offset 96
	mov	edi, eax
	mov	ebx, ecx
	mov	esi, DWORD PTR [esp+96]
	mov	eax, DWORD PTR [esp+100]
LVL16:
	mov	DWORD PTR [esp+44], eax
	mov	ebp, edx
	.loc 1 236 0
	mov	edx, DWORD PTR ___stack_chk_guard
	mov	DWORD PTR [esp+60], edx
	xor	edx, edx
LVL17:
	.loc 1 240 0
	mov	DWORD PTR [esp+56], edi
	.loc 1 242 0
	cmp	eax, 10
	je	L35
	mov	ecx, OFFSET FLAT:LC4
LVL18:
L21:
	.loc 1 242 0 is_stmt 0 discriminator 3
	movzx	edx, bp
	mov	DWORD PTR [esp+40], edx
	mov	eax, DWORD PTR [esp+56]
	mov	DWORD PTR [esp], eax
	mov	DWORD PTR [esp+36], ecx
	call	_inet_ntoa@4
LCFI20:
	.cfi_def_cfa_offset 92
LVL19:
	push	edx
LCFI21:
	.cfi_def_cfa_offset 96
	mov	ecx, DWORD PTR [esp+36]
	mov	DWORD PTR [esp+24], ecx
	mov	DWORD PTR [esp+20], esi
	mov	DWORD PTR [esp+16], ebx
	mov	edx, DWORD PTR [esp+40]
	mov	DWORD PTR [esp+12], edx
	mov	DWORD PTR [esp+8], eax
	mov	DWORD PTR [esp+4], OFFSET FLAT:LC5
	mov	DWORD PTR [esp], 8
	call	_gg_debug
LVL20:
	.loc 1 246 0 is_stmt 1 discriminator 3
	dec	edi
LVL21:
	cmp	edi, -3
	ja	L22
	.loc 1 246 0 is_stmt 0 discriminator 1
	test	bp, bp
	je	L22
	test	ebx, ebx
	je	L22
	test	esi, esi
	je	L22
	.loc 1 252 0 is_stmt 1
	mov	DWORD PTR [esp+4], 414
	mov	DWORD PTR [esp], 1
	call	_calloc
LVL22:
	mov	edi, eax
LVL23:
	test	eax, eax
	je	L36
	.loc 1 257 0
	mov	DWORD PTR [eax+4], 1
	.loc 1 258 0
	mov	DWORD PTR [eax+8], 2
	.loc 1 259 0
	mov	edx, DWORD PTR [esp+44]
	mov	DWORD PTR [eax+16], edx
	.loc 1 260 0
	mov	DWORD PTR [eax+24], 30
	.loc 1 261 0
	mov	DWORD PTR [eax+56], -1
	.loc 1 262 0
	mov	DWORD PTR [eax+40], 1
	.loc 1 263 0
	mov	DWORD PTR [eax], -1
	.loc 1 264 0
	mov	DWORD PTR [eax+48], ebx
	.loc 1 265 0
	mov	DWORD PTR [eax+52], esi
	.loc 1 267 0
	mov	DWORD PTR [esp+8], 1
	mov	edx, DWORD PTR [esp+40]
	mov	DWORD PTR [esp+4], edx
	lea	eax, [esp+56]
LVL24:
	mov	DWORD PTR [esp], eax
	call	_gg_connect
LVL25:
	mov	DWORD PTR [edi], eax
	inc	eax
	je	L37
LVL26:
L24:
	.loc 1 274 0
	mov	eax, edi
	mov	edx, DWORD PTR [esp+60]
	xor	edx, DWORD PTR ___stack_chk_guard
	jne	L38
	add	esp, 76
LCFI22:
	.cfi_remember_state
	.cfi_def_cfa_offset 20
	pop	ebx
LCFI23:
	.cfi_restore 3
	.cfi_def_cfa_offset 16
LVL27:
	pop	esi
LCFI24:
	.cfi_restore 6
	.cfi_def_cfa_offset 12
	pop	edi
LCFI25:
	.cfi_restore 7
	.cfi_def_cfa_offset 8
	pop	ebp
LCFI26:
	.cfi_restore 5
	.cfi_def_cfa_offset 4
LVL28:
	ret
LVL29:
	.p2align 2,,3
L22:
LCFI27:
	.cfi_restore_state
	.loc 1 247 0
	mov	DWORD PTR [esp+4], OFFSET FLAT:LC6
	mov	DWORD PTR [esp], 16
	call	_gg_debug
LVL30:
	.loc 1 248 0
	call	__errno
LVL31:
	mov	DWORD PTR [eax], 22
	.loc 1 249 0
	xor	edi, edi
	jmp	L24
LVL32:
	.p2align 2,,3
L35:
	.loc 1 242 0
	mov	ecx, OFFSET FLAT:LC3
LVL33:
	jmp	L21
LVL34:
L36:
	.loc 1 253 0
	mov	DWORD PTR [esp+4], OFFSET FLAT:LC7
	mov	DWORD PTR [esp], 16
	call	_gg_debug
LVL35:
	jmp	L24
L37:
	.loc 1 268 0
	mov	DWORD PTR [esp+4], OFFSET FLAT:LC8
	mov	DWORD PTR [esp], 16
	call	_gg_debug
LVL36:
	.loc 1 269 0
	mov	DWORD PTR [esp], edi
	call	_free
LVL37:
	.loc 1 270 0
	xor	edi, edi
LVL38:
	jmp	L24
L38:
	.loc 1 274 0
	call	___stack_chk_fail
LVL39:
	.cfi_endproc
LFE65:
	.p2align 2,,3
	.def	_gg_dcc_fill_filetime;	.scl	3;	.type	32;	.endef
_gg_dcc_fill_filetime:
LFB62:
	.loc 1 86 0
	.cfi_startproc
LVL40:
	push	ebx
LCFI28:
	.cfi_def_cfa_offset 8
	.cfi_offset 3, -8
	sub	esp, 40
LCFI29:
	.cfi_def_cfa_offset 48
	mov	ebx, edx
	.loc 1 86 0
	mov	edx, DWORD PTR ___stack_chk_guard
	mov	DWORD PTR [esp+28], edx
	xor	edx, edx
LVL41:
	.loc 1 89 0
	xor	edx, edx
	.loc 1 90 0
	add	eax, -1240428288
LVL42:
	adc	edx, 2
	.loc 1 91 0
	imul	ecx, edx, 10000000
	mov	edx, 10000000
	mul	edx
LVL43:
	add	edx, ecx
	.loc 1 93 0
	mov	DWORD PTR [esp], eax
	mov	DWORD PTR [esp+4], edx
	call	_gg_fix64
LVL44:
	mov	DWORD PTR [esp+16], eax
LVL45:
	mov	DWORD PTR [esp+20], edx
	.loc 1 95 0
	mov	DWORD PTR [ebx], eax
LVL46:
	mov	DWORD PTR [ebx+4], edx
	.loc 1 96 0
	mov	eax, DWORD PTR [esp+28]
	xor	eax, DWORD PTR ___stack_chk_guard
	jne	L42
	add	esp, 40
LCFI30:
	.cfi_remember_state
	.cfi_def_cfa_offset 8
	pop	ebx
LCFI31:
	.cfi_restore 3
	.cfi_def_cfa_offset 4
LVL47:
	ret
LVL48:
L42:
LCFI32:
	.cfi_restore_state
	call	___stack_chk_fail
LVL49:
	.cfi_endproc
LFE62:
	.section .rdata,"dr"
LC9:
	.ascii "\2\0"
	.text
	.p2align 2,,3
	.globl	_gg_dcc_request
	.def	_gg_dcc_request;	.scl	2;	.type	32;	.endef
_gg_dcc_request:
LFB61:
	.loc 1 72 0
	.cfi_startproc
LVL50:
	sub	esp, 60
LCFI33:
	.cfi_def_cfa_offset 64
	.loc 1 72 0
	mov	eax, DWORD PTR ___stack_chk_guard
	mov	DWORD PTR [esp+44], eax
	xor	eax, eax
	.loc 1 73 0
	mov	DWORD PTR [esp+16], 1
	mov	DWORD PTR [esp+12], OFFSET FLAT:LC9
	mov	eax, DWORD PTR [esp+68]
	mov	DWORD PTR [esp+8], eax
	mov	DWORD PTR [esp+4], 16
	mov	eax, DWORD PTR [esp+64]
	mov	DWORD PTR [esp], eax
	call	_gg_send_message_ctcp
LVL51:
	.loc 1 74 0
	mov	edx, DWORD PTR [esp+44]
	xor	edx, DWORD PTR ___stack_chk_guard
	jne	L46
	add	esp, 60
LCFI34:
	.cfi_remember_state
	.cfi_def_cfa_offset 4
	ret
L46:
LCFI35:
	.cfi_restore_state
	call	___stack_chk_fail
LVL52:
	.cfi_endproc
LFE61:
	.section .rdata,"dr"
	.align 4
LC10:
	.ascii "** gg_dcc_fill_file_info2(%p, \"%s\", \"%s\");\12\0"
	.align 4
LC11:
	.ascii "// gg_dcc_fill_file_info2() invalid arguments\12\0"
	.align 4
LC12:
	.ascii "// gg_dcc_fill_file_info2() open() failed (%s)\12\0"
	.align 4
LC13:
	.ascii "// gg_dcc_fill_file_info2() fstat() failed (%s)\12\0"
	.align 4
LC14:
	.ascii "// gg_dcc_fill_file_info2() that's a directory\12\0"
	.align 4
LC15:
	.ascii "// gg_dcc_fill_file_info2() short name \"%s\", dos name \"%s\"\12\0"
	.text
	.p2align 2,,3
	.globl	_gg_dcc_fill_file_info2
	.def	_gg_dcc_fill_file_info2;	.scl	2;	.type	32;	.endef
_gg_dcc_fill_file_info2:
LFB64:
	.loc 1 127 0
	.cfi_startproc
LVL53:
	push	ebp
LCFI36:
	.cfi_def_cfa_offset 8
	.cfi_offset 5, -8
	push	edi
LCFI37:
	.cfi_def_cfa_offset 12
	.cfi_offset 7, -12
	push	esi
LCFI38:
	.cfi_def_cfa_offset 16
	.cfi_offset 6, -16
	push	ebx
LCFI39:
	.cfi_def_cfa_offset 20
	.cfi_offset 3, -20
	sub	esp, 108
LCFI40:
	.cfi_def_cfa_offset 128
	mov	ebx, DWORD PTR [esp+128]
	mov	ebp, DWORD PTR [esp+132]
	mov	esi, DWORD PTR [esp+136]
	.loc 1 127 0
	mov	eax, DWORD PTR ___stack_chk_guard
	mov	DWORD PTR [esp+92], eax
	xor	eax, eax
	.loc 1 133 0
	mov	DWORD PTR [esp+16], esi
	mov	DWORD PTR [esp+12], ebp
	mov	DWORD PTR [esp+8], ebx
	mov	DWORD PTR [esp+4], OFFSET FLAT:LC10
	mov	DWORD PTR [esp], 8
	call	_gg_debug
LVL54:
	.loc 1 135 0
	test	ebx, ebx
	je	L48
	.loc 1 135 0 is_stmt 0 discriminator 1
	cmp	DWORD PTR [ebx+16], 10
	jne	L48
	.loc 1 141 0 is_stmt 1
	mov	DWORD PTR [esp+4], 0
	mov	DWORD PTR [esp], esi
	call	__open
LVL55:
	mov	DWORD PTR [ebx+56], eax
	cmp	eax, -1
	je	L90
	.loc 1 146 0
	lea	edx, [esp+56]
	mov	DWORD PTR [esp+4], edx
	mov	DWORD PTR [esp], eax
	call	__fstat
LVL56:
	inc	eax
	je	L91
	.loc 1 154 0
	mov	dx, WORD PTR [esp+62]
	test	dh, 64
	jne	L92
	.loc 1 162 0
	lea	esi, [ebx+72]
	mov	ecx, 320
	xor	eax, eax
	mov	edi, esi
	rep stosb
	.loc 1 164 0
	and	edx, 128
	je	L93
L54:
	.loc 1 167 0
	lea	edx, [ebx+84]
	mov	eax, DWORD PTR [esp+80]
	call	_gg_dcc_fill_filetime
LVL57:
	.loc 1 168 0
	lea	edx, [ebx+92]
	mov	eax, DWORD PTR [esp+84]
	call	_gg_dcc_fill_filetime
LVL58:
	.loc 1 169 0
	lea	edx, [ebx+76]
	mov	eax, DWORD PTR [esp+88]
	call	_gg_dcc_fill_filetime
LVL59:
	.loc 1 171 0
	mov	eax, DWORD PTR [esp+76]
	mov	DWORD PTR [esp], eax
	call	_gg_fix32
LVL60:
	mov	DWORD PTR [ebx+104], eax
	.loc 1 172 0
	mov	DWORD PTR [esp], 32
	call	_gg_fix32
LVL61:
	mov	DWORD PTR [ebx+72], eax
	.loc 1 174 0
	mov	DWORD PTR [esp+4], 47
	mov	DWORD PTR [esp], ebp
	call	_strrchr
LVL62:
	test	eax, eax
	je	L79
	.loc 1 177 0
	inc	eax
LVL63:
	mov	DWORD PTR [esp+40], eax
LVL64:
L55:
	.loc 1 179 0
	mov	DWORD PTR [esp+4], 46
	mov	edx, DWORD PTR [esp+40]
	mov	DWORD PTR [esp], edx
	call	_strrchr
LVL65:
	mov	esi, eax
LVL66:
	test	eax, eax
	je	L94
LVL67:
L56:
	.loc 1 182 0
	xor	edi, edi
	cmp	DWORD PTR [esp+40], esi
	jae	L75
	.loc 1 183 0
	mov	edx, DWORD PTR [esp+40]
	movsx	eax, BYTE PTR [edx]
	mov	DWORD PTR [esp], eax
	call	_toupper
LVL68:
	mov	BYTE PTR [ebx+378], al
LVL69:
	.loc 1 182 0
	mov	ebp, DWORD PTR [esp+40]
	inc	ebp
LVL70:
	.loc 1 126 0
	mov	edx, esi
	sub	edx, DWORD PTR [esp+40]
	mov	DWORD PTR [esp+44], edx
	.loc 1 182 0
	mov	edi, 1
LVL71:
	.p2align 2,,3
L77:
	.loc 1 182 0 is_stmt 0 discriminator 2
	cmp	edi, DWORD PTR [esp+44]
	je	L75
	.loc 1 183 0 is_stmt 1 discriminator 1
	movsx	eax, BYTE PTR [ebp+0]
	mov	DWORD PTR [esp], eax
	call	_toupper
LVL72:
	mov	BYTE PTR [ebx+378+edi], al
	.loc 1 182 0 discriminator 1
	inc	edi
LVL73:
	inc	ebp
LVL74:
	cmp	edi, 8
	jne	L77
	.loc 1 185 0
	cmp	esi, ebp
	jbe	L75
	.loc 1 186 0
	mov	BYTE PTR [ebx+384], 126
	.loc 1 187 0
	mov	BYTE PTR [ebx+385], 49
LVL75:
	.p2align 2,,3
L75:
	.loc 1 190 0
	cmp	BYTE PTR [esi], 0
	jne	L80
L64:
	.loc 1 195 0
	lea	ecx, [ebx+378]
LVL76:
	mov	dl, BYTE PTR [ebx+378]
	mov	eax, ecx
	test	dl, dl
	je	L63
LVL77:
	.p2align 2,,3
L83:
	.loc 1 196 0
	cmp	dl, -71
	je	L95
	.loc 1 198 0
	cmp	dl, -26
	je	L96
	.loc 1 200 0
	cmp	dl, -22
	je	L97
	.loc 1 202 0
	cmp	dl, -77
	je	L98
	.loc 1 204 0
	cmp	dl, -15
	je	L99
	.loc 1 206 0
	cmp	dl, -13
	je	L100
	.loc 1 208 0
	cmp	dl, -100
	je	L101
	.loc 1 210 0
	cmp	dl, -97
	je	L102
	.loc 1 212 0
	cmp	dl, -65
	je	L103
	.loc 1 195 0
	inc	eax
LVL78:
	mov	dl, BYTE PTR [eax]
	test	dl, dl
	jne	L83
	.p2align 2,,3
L63:
	.loc 1 217 0
	mov	DWORD PTR [esp+12], ecx
	mov	edx, DWORD PTR [esp+40]
	mov	DWORD PTR [esp+8], edx
	mov	DWORD PTR [esp+4], OFFSET FLAT:LC15
	mov	DWORD PTR [esp], 16
	call	_gg_debug
LVL79:
	.loc 1 219 0
	mov	DWORD PTR [esp+8], 261
	mov	eax, DWORD PTR [esp+40]
	mov	DWORD PTR [esp+4], eax
	add	ebx, 116
	mov	DWORD PTR [esp], ebx
	call	_strncpy
LVL80:
	.loc 1 221 0
	xor	eax, eax
LVL81:
L50:
	.loc 1 222 0
	mov	edx, DWORD PTR [esp+92]
	xor	edx, DWORD PTR ___stack_chk_guard
	jne	L104
	add	esp, 108
LCFI41:
	.cfi_remember_state
	.cfi_def_cfa_offset 20
	pop	ebx
LCFI42:
	.cfi_restore 3
	.cfi_def_cfa_offset 16
	pop	esi
LCFI43:
	.cfi_restore 6
	.cfi_def_cfa_offset 12
	pop	edi
LCFI44:
	.cfi_restore 7
	.cfi_def_cfa_offset 8
	pop	ebp
LCFI45:
	.cfi_restore 5
	.cfi_def_cfa_offset 4
	ret
LVL82:
	.p2align 2,,3
L95:
LCFI46:
	.cfi_restore_state
	.loc 1 197 0
	mov	BYTE PTR [eax], -91
	.loc 1 195 0
	inc	eax
LVL83:
	mov	dl, BYTE PTR [eax]
	test	dl, dl
	jne	L83
	jmp	L63
	.p2align 2,,3
L96:
	.loc 1 199 0
	mov	BYTE PTR [eax], -58
	.loc 1 195 0
	inc	eax
LVL84:
	mov	dl, BYTE PTR [eax]
	test	dl, dl
	jne	L83
	jmp	L63
	.p2align 2,,3
L97:
	.loc 1 201 0
	mov	BYTE PTR [eax], -54
	.loc 1 195 0
	inc	eax
LVL85:
	mov	dl, BYTE PTR [eax]
	test	dl, dl
	jne	L83
	jmp	L63
	.p2align 2,,3
L98:
	.loc 1 203 0
	mov	BYTE PTR [eax], -93
	.loc 1 195 0
	inc	eax
LVL86:
	mov	dl, BYTE PTR [eax]
	test	dl, dl
	jne	L83
	jmp	L63
	.p2align 2,,3
L99:
	.loc 1 205 0
	mov	BYTE PTR [eax], -47
	.loc 1 195 0
	inc	eax
LVL87:
	mov	dl, BYTE PTR [eax]
	test	dl, dl
	jne	L83
	jmp	L63
LVL88:
	.p2align 2,,3
L80:
	.loc 1 190 0
	xor	ebp, ebp
	lea	edi, [ebx+edi]
L61:
	.loc 1 192 0 discriminator 1
	movsx	eax, BYTE PTR [esi+ebp]
	mov	DWORD PTR [esp], eax
	call	_toupper
LVL89:
	mov	BYTE PTR [edi+378+ebp], al
	.loc 1 191 0 discriminator 1
	inc	ebp
LVL90:
	cmp	BYTE PTR [esi], 0
	je	L64
	.loc 1 191 0 is_stmt 0 discriminator 2
	cmp	ebp, 4
	jne	L61
	jmp	L64
LVL91:
	.p2align 2,,3
L100:
	.loc 1 207 0 is_stmt 1
	mov	BYTE PTR [eax], -45
	.loc 1 195 0
	inc	eax
LVL92:
	mov	dl, BYTE PTR [eax]
	test	dl, dl
	jne	L83
	jmp	L63
	.p2align 2,,3
L101:
	.loc 1 209 0
	mov	BYTE PTR [eax], -116
	.loc 1 195 0
	inc	eax
LVL93:
	mov	dl, BYTE PTR [eax]
	test	dl, dl
	jne	L83
	jmp	L63
LVL94:
	.p2align 2,,3
L93:
	.loc 1 165 0
	mov	esi, DWORD PTR [ebx+72]
	mov	DWORD PTR [esp], 32
	call	_gg_fix32
LVL95:
	or	eax, esi
	mov	DWORD PTR [ebx+72], eax
	jmp	L54
LVL96:
	.p2align 2,,3
L102:
	.loc 1 211 0
	mov	BYTE PTR [eax], -113
	.loc 1 195 0
	inc	eax
LVL97:
	mov	dl, BYTE PTR [eax]
	test	dl, dl
	jne	L83
	jmp	L63
LVL98:
	.p2align 2,,3
L48:
	.loc 1 136 0
	mov	DWORD PTR [esp+4], OFFSET FLAT:LC11
	mov	DWORD PTR [esp], 16
	call	_gg_debug
LVL99:
	.loc 1 137 0
	call	__errno
LVL100:
	mov	DWORD PTR [eax], 22
	.loc 1 138 0
	mov	eax, -1
	jmp	L50
LVL101:
	.p2align 2,,3
L103:
	.loc 1 213 0
	mov	BYTE PTR [eax], -81
	.loc 1 195 0
	inc	eax
LVL102:
	mov	dl, BYTE PTR [eax]
	test	dl, dl
	jne	L83
	jmp	L63
LVL103:
	.p2align 2,,3
L94:
	.loc 1 180 0
	xor	eax, eax
LVL104:
	mov	ecx, -1
	mov	edi, DWORD PTR [esp+40]
	repne scasb
LVL105:
	not	ecx
	mov	eax, DWORD PTR [esp+40]
	lea	esi, [eax-1+ecx]
LVL106:
	jmp	L56
LVL107:
	.p2align 2,,3
L79:
	.loc 1 175 0
	mov	DWORD PTR [esp+40], ebp
	jmp	L55
LVL108:
L92:
	.loc 1 155 0
	mov	DWORD PTR [esp+4], OFFSET FLAT:LC14
	mov	DWORD PTR [esp], 16
	call	_gg_debug
LVL109:
	.loc 1 156 0
	call	__errno
LVL110:
	mov	DWORD PTR [eax], 22
L89:
	.loc 1 157 0
	mov	eax, DWORD PTR [ebx+56]
	mov	DWORD PTR [esp], eax
	call	_gg_win32_close
LVL111:
	.loc 1 158 0
	mov	DWORD PTR [ebx+56], -1
	.loc 1 159 0
	mov	eax, -1
	jmp	L50
L90:
	.loc 1 142 0
	call	__errno
LVL112:
	mov	eax, DWORD PTR [eax]
	mov	DWORD PTR [esp], eax
	call	_strerror
LVL113:
	mov	DWORD PTR [esp+8], eax
	mov	DWORD PTR [esp+4], OFFSET FLAT:LC12
	mov	DWORD PTR [esp], 16
	call	_gg_debug
LVL114:
	.loc 1 143 0
	mov	eax, -1
	jmp	L50
L91:
	.loc 1 148 0
	call	__errno
LVL115:
	.loc 1 147 0
	mov	eax, DWORD PTR [eax]
	mov	DWORD PTR [esp], eax
	call	_strerror
LVL116:
	mov	DWORD PTR [esp+8], eax
	mov	DWORD PTR [esp+4], OFFSET FLAT:LC13
	mov	DWORD PTR [esp], 16
	call	_gg_debug
LVL117:
	jmp	L89
L104:
	.loc 1 222 0
	call	___stack_chk_fail
LVL118:
	.cfi_endproc
LFE64:
	.p2align 2,,3
	.globl	_gg_dcc_fill_file_info
	.def	_gg_dcc_fill_file_info;	.scl	2;	.type	32;	.endef
_gg_dcc_fill_file_info:
LFB63:
	.loc 1 111 0
	.cfi_startproc
LVL119:
	sub	esp, 44
LCFI47:
	.cfi_def_cfa_offset 48
	mov	eax, DWORD PTR [esp+52]
	.loc 1 111 0
	mov	edx, DWORD PTR ___stack_chk_guard
	mov	DWORD PTR [esp+28], edx
	xor	edx, edx
	.loc 1 112 0
	mov	DWORD PTR [esp+8], eax
	mov	DWORD PTR [esp+4], eax
	mov	eax, DWORD PTR [esp+48]
	mov	DWORD PTR [esp], eax
	call	_gg_dcc_fill_file_info2
LVL120:
	.loc 1 113 0
	mov	edx, DWORD PTR [esp+28]
	xor	edx, DWORD PTR ___stack_chk_guard
	jne	L108
	add	esp, 44
LCFI48:
	.cfi_remember_state
	.cfi_def_cfa_offset 4
	ret
L108:
LCFI49:
	.cfi_restore_state
	call	___stack_chk_fail
LVL121:
	.cfi_endproc
LFE63:
	.section .rdata,"dr"
	.align 4
LC16:
	.ascii "// gg_dcc_get_file() handing over to gg_dcc_transfer()\12\0"
	.text
	.p2align 2,,3
	.globl	_gg_dcc_get_file
	.def	_gg_dcc_get_file;	.scl	2;	.type	32;	.endef
_gg_dcc_get_file:
LFB66:
	.loc 1 289 0
	.cfi_startproc
LVL122:
	push	ebp
LCFI50:
	.cfi_def_cfa_offset 8
	.cfi_offset 5, -8
	push	edi
LCFI51:
	.cfi_def_cfa_offset 12
	.cfi_offset 7, -12
	push	esi
LCFI52:
	.cfi_def_cfa_offset 16
	.cfi_offset 6, -16
	push	ebx
LCFI53:
	.cfi_def_cfa_offset 20
	.cfi_offset 3, -20
	sub	esp, 44
LCFI54:
	.cfi_def_cfa_offset 64
	mov	edi, DWORD PTR [esp+64]
	mov	ebp, DWORD PTR [esp+72]
	mov	ebx, DWORD PTR [esp+76]
	mov	esi, DWORD PTR [esp+68]
	.loc 1 289 0
	mov	eax, DWORD PTR ___stack_chk_guard
	mov	DWORD PTR [esp+28], eax
	xor	eax, eax
	.loc 1 290 0
	mov	DWORD PTR [esp+4], OFFSET FLAT:LC16
	mov	DWORD PTR [esp], 16
	call	_gg_debug
LVL123:
	.loc 1 292 0
	mov	eax, DWORD PTR [esp+28]
	xor	eax, DWORD PTR ___stack_chk_guard
	jne	L113
	movzx	edx, si
	mov	DWORD PTR [esp+68], 11
	mov	DWORD PTR [esp+64], ebx
	mov	ecx, ebp
	mov	eax, edi
	.loc 1 293 0
	add	esp, 44
LCFI55:
	.cfi_remember_state
	.cfi_def_cfa_offset 20
	pop	ebx
LCFI56:
	.cfi_restore 3
	.cfi_def_cfa_offset 16
	pop	esi
LCFI57:
	.cfi_restore 6
	.cfi_def_cfa_offset 12
	pop	edi
LCFI58:
	.cfi_restore 7
	.cfi_def_cfa_offset 8
	pop	ebp
LCFI59:
	.cfi_restore 5
	.cfi_def_cfa_offset 4
	.loc 1 292 0
	jmp	_gg_dcc_transfer
LVL124:
L113:
LCFI60:
	.cfi_restore_state
	call	___stack_chk_fail
LVL125:
	.cfi_endproc
LFE66:
	.section .rdata,"dr"
	.align 4
LC17:
	.ascii "// gg_dcc_send_file() handing over to gg_dcc_transfer()\12\0"
	.text
	.p2align 2,,3
	.globl	_gg_dcc_send_file
	.def	_gg_dcc_send_file;	.scl	2;	.type	32;	.endef
_gg_dcc_send_file:
LFB67:
	.loc 1 308 0
	.cfi_startproc
LVL126:
	push	ebp
LCFI61:
	.cfi_def_cfa_offset 8
	.cfi_offset 5, -8
	push	edi
LCFI62:
	.cfi_def_cfa_offset 12
	.cfi_offset 7, -12
	push	esi
LCFI63:
	.cfi_def_cfa_offset 16
	.cfi_offset 6, -16
	push	ebx
LCFI64:
	.cfi_def_cfa_offset 20
	.cfi_offset 3, -20
	sub	esp, 44
LCFI65:
	.cfi_def_cfa_offset 64
	mov	edi, DWORD PTR [esp+64]
	mov	ebp, DWORD PTR [esp+72]
	mov	ebx, DWORD PTR [esp+76]
	mov	esi, DWORD PTR [esp+68]
	.loc 1 308 0
	mov	eax, DWORD PTR ___stack_chk_guard
	mov	DWORD PTR [esp+28], eax
	xor	eax, eax
	.loc 1 309 0
	mov	DWORD PTR [esp+4], OFFSET FLAT:LC17
	mov	DWORD PTR [esp], 16
	call	_gg_debug
LVL127:
	.loc 1 311 0
	mov	eax, DWORD PTR [esp+28]
	xor	eax, DWORD PTR ___stack_chk_guard
	jne	L118
	movzx	edx, si
	mov	DWORD PTR [esp+68], 10
	mov	DWORD PTR [esp+64], ebx
	mov	ecx, ebp
	mov	eax, edi
	.loc 1 312 0
	add	esp, 44
LCFI66:
	.cfi_remember_state
	.cfi_def_cfa_offset 20
	pop	ebx
LCFI67:
	.cfi_restore 3
	.cfi_def_cfa_offset 16
	pop	esi
LCFI68:
	.cfi_restore 6
	.cfi_def_cfa_offset 12
	pop	edi
LCFI69:
	.cfi_restore 7
	.cfi_def_cfa_offset 8
	pop	ebp
LCFI70:
	.cfi_restore 5
	.cfi_def_cfa_offset 4
	.loc 1 311 0
	jmp	_gg_dcc_transfer
LVL128:
L118:
LCFI71:
	.cfi_restore_state
	call	___stack_chk_fail
LVL129:
	.cfi_endproc
LFE67:
	.section .rdata,"dr"
	.align 4
LC18:
	.ascii "// gg_dcc_voice_chat() handing over to gg_dcc_transfer()\12\0"
	.text
	.p2align 2,,3
	.globl	_gg_dcc_voice_chat
	.def	_gg_dcc_voice_chat;	.scl	2;	.type	32;	.endef
_gg_dcc_voice_chat:
LFB68:
	.loc 1 327 0
	.cfi_startproc
LVL130:
	push	ebp
LCFI72:
	.cfi_def_cfa_offset 8
	.cfi_offset 5, -8
	push	edi
LCFI73:
	.cfi_def_cfa_offset 12
	.cfi_offset 7, -12
	push	esi
LCFI74:
	.cfi_def_cfa_offset 16
	.cfi_offset 6, -16
	push	ebx
LCFI75:
	.cfi_def_cfa_offset 20
	.cfi_offset 3, -20
	sub	esp, 44
LCFI76:
	.cfi_def_cfa_offset 64
	mov	edi, DWORD PTR [esp+64]
	mov	ebp, DWORD PTR [esp+72]
	mov	ebx, DWORD PTR [esp+76]
	mov	esi, DWORD PTR [esp+68]
	.loc 1 327 0
	mov	eax, DWORD PTR ___stack_chk_guard
	mov	DWORD PTR [esp+28], eax
	xor	eax, eax
	.loc 1 328 0
	mov	DWORD PTR [esp+4], OFFSET FLAT:LC18
	mov	DWORD PTR [esp], 16
	call	_gg_debug
LVL131:
	.loc 1 330 0
	mov	eax, DWORD PTR [esp+28]
	xor	eax, DWORD PTR ___stack_chk_guard
	jne	L123
	movzx	edx, si
	mov	DWORD PTR [esp+68], 12
	mov	DWORD PTR [esp+64], ebx
	mov	ecx, ebp
	mov	eax, edi
	.loc 1 331 0
	add	esp, 44
LCFI77:
	.cfi_remember_state
	.cfi_def_cfa_offset 20
	pop	ebx
LCFI78:
	.cfi_restore 3
	.cfi_def_cfa_offset 16
	pop	esi
LCFI79:
	.cfi_restore 6
	.cfi_def_cfa_offset 12
	pop	edi
LCFI80:
	.cfi_restore 7
	.cfi_def_cfa_offset 8
	pop	ebp
LCFI81:
	.cfi_restore 5
	.cfi_def_cfa_offset 4
	.loc 1 330 0
	jmp	_gg_dcc_transfer
LVL132:
L123:
LCFI82:
	.cfi_restore_state
	call	___stack_chk_fail
LVL133:
	.cfi_endproc
LFE68:
	.p2align 2,,3
	.globl	_gg_dcc_set_type
	.def	_gg_dcc_set_type;	.scl	2;	.type	32;	.endef
_gg_dcc_set_type:
LFB69:
	.loc 1 345 0
	.cfi_startproc
LVL134:
	sub	esp, 28
LCFI83:
	.cfi_def_cfa_offset 32
	mov	eax, DWORD PTR [esp+32]
	mov	edx, DWORD PTR [esp+36]
	.loc 1 345 0
	mov	ecx, DWORD PTR ___stack_chk_guard
	mov	DWORD PTR [esp+12], ecx
	xor	ecx, ecx
	.loc 1 346 0
	mov	DWORD PTR [eax+16], edx
	.loc 1 347 0
	cmp	edx, 10
	je	L129
	mov	edx, 35
L125:
	.loc 1 347 0 is_stmt 0 discriminator 3
	mov	DWORD PTR [eax+8], edx
	.loc 1 348 0 is_stmt 1 discriminator 3
	mov	eax, DWORD PTR [esp+12]
	xor	eax, DWORD PTR ___stack_chk_guard
	jne	L130
	.loc 1 348 0 is_stmt 0
	add	esp, 28
LCFI84:
	.cfi_remember_state
	.cfi_def_cfa_offset 4
	ret
	.p2align 2,,3
L129:
LCFI85:
	.cfi_restore_state
	.loc 1 347 0 is_stmt 1
	mov	dl, 21
	jmp	L125
L130:
	.loc 1 348 0
	call	___stack_chk_fail
LVL135:
	.cfi_endproc
LFE69:
	.section .rdata,"dr"
	.align 4
LC19:
	.ascii "** gg_create_dcc_socket(%d, %d);\12\0"
	.align 4
LC20:
	.ascii "// gg_create_dcc_socket() invalid arguments\12\0"
	.align 4
LC21:
	.ascii "// gg_create_dcc_socket() can't create socket (%s)\12\0"
	.align 4
LC22:
	.ascii "// gg_create_dcc_socket() trying port %d\12\0"
	.align 4
LC23:
	.ascii "// gg_create_dcc_socket() no free port found\12\0"
	.align 4
LC24:
	.ascii "// gg_create_dcc_socket() unable to listen (%s)\12\0"
	.align 4
LC25:
	.ascii "// gg_create_dcc_socket() bound to port %d\12\0"
	.align 4
LC26:
	.ascii "// gg_create_dcc_socket() not enough memory for struct\12\0"
	.text
	.p2align 2,,3
	.globl	_gg_dcc_socket_create
	.def	_gg_dcc_socket_create;	.scl	2;	.type	32;	.endef
_gg_dcc_socket_create:
LFB71:
	.loc 1 387 0
	.cfi_startproc
LVL136:
	push	ebp
LCFI86:
	.cfi_def_cfa_offset 8
	.cfi_offset 5, -8
	push	edi
LCFI87:
	.cfi_def_cfa_offset 12
	.cfi_offset 7, -12
	push	esi
LCFI88:
	.cfi_def_cfa_offset 16
	.cfi_offset 6, -16
	push	ebx
LCFI89:
	.cfi_def_cfa_offset 20
	.cfi_offset 3, -20
	sub	esp, 76
LCFI90:
	.cfi_def_cfa_offset 96
	mov	edx, DWORD PTR [esp+96]
	mov	DWORD PTR [esp+28], edx
	mov	ebp, DWORD PTR [esp+100]
	.loc 1 387 0
	mov	eax, DWORD PTR ___stack_chk_guard
	mov	DWORD PTR [esp+60], eax
	xor	eax, eax
LVL137:
	.loc 1 391 0
	movzx	esi, bp
	mov	DWORD PTR [esp+12], esi
	mov	DWORD PTR [esp+8], edx
	mov	DWORD PTR [esp+4], OFFSET FLAT:LC19
	mov	DWORD PTR [esp], 8
	call	_gg_debug
LVL138:
	.loc 1 393 0
	mov	ebx, DWORD PTR [esp+28]
	test	ebx, ebx
	je	L151
	.loc 1 399 0
	mov	DWORD PTR [esp+8], 6
	mov	DWORD PTR [esp+4], 1
	mov	DWORD PTR [esp], 2
	call	_gg_win32_socket
LVL139:
	mov	DWORD PTR [esp+24], eax
LVL140:
	inc	eax
LVL141:
	je	L152
	.loc 1 404 0
	lea	eax, [ebp-1]
	cmp	ax, -3
	ja	L143
LVL142:
L150:
	lea	ebx, [esp+44]
	.p2align 2,,3
L146:
LBB2:
	.loc 1 410 0
	mov	edi, ebx
	mov	ecx, 16
	xor	eax, eax
	rep stosb
	.loc 1 411 0
	mov	WORD PTR [esp+44], 2
	.loc 1 413 0
	mov	DWORD PTR [esp], esi
	call	_htons@4
LCFI91:
	.cfi_def_cfa_offset 92
LVL143:
	push	ecx
LCFI92:
	.cfi_def_cfa_offset 96
	mov	WORD PTR [esp+46], ax
	.loc 1 415 0
	mov	DWORD PTR [esp+8], esi
	mov	DWORD PTR [esp+4], OFFSET FLAT:LC22
	mov	DWORD PTR [esp], 16
	call	_gg_debug
LVL144:
	.loc 1 416 0
	mov	DWORD PTR [esp+8], 16
	mov	DWORD PTR [esp+4], ebx
	mov	eax, DWORD PTR [esp+24]
	mov	DWORD PTR [esp], eax
	call	_gg_win32_bind
LVL145:
	test	eax, eax
	je	L136
	.loc 1 419 0
	inc	ebp
LVL146:
	cmp	bp, -1
	je	L145
	movzx	esi, bp
	jmp	L146
LVL147:
	.p2align 2,,3
L136:
LBE2:
	.loc 1 427 0
	mov	DWORD PTR [esp+4], 10
	mov	eax, DWORD PTR [esp+24]
	mov	DWORD PTR [esp], eax
	call	_gg_win32_listen
LVL148:
	test	eax, eax
	jne	L153
	.loc 1 435 0
	mov	DWORD PTR [esp+8], esi
	mov	DWORD PTR [esp+4], OFFSET FLAT:LC25
	mov	DWORD PTR [esp], 16
	call	_gg_debug
LVL149:
	.loc 1 437 0
	mov	DWORD PTR [esp], 414
	call	_malloc
LVL150:
	mov	ebx, eax
LVL151:
	test	eax, eax
	je	L154
	.loc 1 442 0
	mov	ecx, 414
	xor	eax, eax
LVL152:
	mov	edi, ebx
	rep stosb
	.loc 1 444 0
	mov	DWORD PTR [ebx+20], esi
	mov	DWORD PTR [ebx+44], esi
	.loc 1 445 0
	mov	eax, DWORD PTR [esp+24]
	mov	DWORD PTR [ebx], eax
	.loc 1 446 0
	mov	DWORD PTR [ebx+56], -1
	.loc 1 447 0
	mov	DWORD PTR [ebx+16], 9
	.loc 1 448 0
	mov	edx, DWORD PTR [esp+28]
	mov	DWORD PTR [ebx+48], edx
	.loc 1 449 0
	mov	DWORD PTR [ebx+24], -1
	.loc 1 450 0
	mov	DWORD PTR [ebx+8], 14
	.loc 1 451 0
	mov	DWORD PTR [ebx+4], 2
	.loc 1 452 0
	mov	DWORD PTR [ebx+28], OFFSET FLAT:_gg_dcc_callback
	.loc 1 453 0
	mov	DWORD PTR [ebx+32], OFFSET FLAT:_gg_dcc_free
LVL153:
L133:
	.loc 1 456 0
	mov	eax, ebx
	mov	edx, DWORD PTR [esp+60]
	xor	edx, DWORD PTR ___stack_chk_guard
	jne	L155
	add	esp, 76
LCFI93:
	.cfi_remember_state
	.cfi_def_cfa_offset 20
	pop	ebx
LCFI94:
	.cfi_restore 3
	.cfi_def_cfa_offset 16
	pop	esi
LCFI95:
	.cfi_restore 6
	.cfi_def_cfa_offset 12
	pop	edi
LCFI96:
	.cfi_restore 7
	.cfi_def_cfa_offset 8
	pop	ebp
LCFI97:
	.cfi_restore 5
	.cfi_def_cfa_offset 4
	ret
LVL154:
	.p2align 2,,3
L143:
LCFI98:
	.cfi_restore_state
	.loc 1 405 0
	mov	ebp, 1550
LVL155:
	mov	esi, 1550
	jmp	L150
LVL156:
	.p2align 2,,3
L145:
LBB3:
	.loc 1 420 0
	mov	DWORD PTR [esp+4], OFFSET FLAT:LC23
	mov	DWORD PTR [esp], 16
	call	_gg_debug
LVL157:
	.loc 1 421 0
	mov	eax, DWORD PTR [esp+24]
	mov	DWORD PTR [esp], eax
	call	_gg_win32_close
LVL158:
	.loc 1 422 0
	xor	ebx, ebx
	jmp	L133
LVL159:
L151:
LBE3:
	.loc 1 394 0
	mov	DWORD PTR [esp+4], OFFSET FLAT:LC20
	mov	DWORD PTR [esp], 16
	call	_gg_debug
LVL160:
	.loc 1 395 0
	call	__errno
LVL161:
	mov	DWORD PTR [eax], 22
	.loc 1 396 0
	xor	ebx, ebx
	jmp	L133
LVL162:
	.p2align 2,,3
L153:
	.loc 1 428 0
	call	__errno
LVL163:
	mov	eax, DWORD PTR [eax]
	mov	DWORD PTR [esp], eax
	call	_strerror
LVL164:
	mov	DWORD PTR [esp+8], eax
	mov	DWORD PTR [esp+4], OFFSET FLAT:LC24
	mov	DWORD PTR [esp], 16
	call	_gg_debug
LVL165:
	.loc 1 429 0
	call	__errno
LVL166:
	mov	ebx, DWORD PTR [eax]
LVL167:
	.loc 1 430 0
	mov	eax, DWORD PTR [esp+24]
	mov	DWORD PTR [esp], eax
	call	_gg_win32_close
LVL168:
	.loc 1 431 0
	call	__errno
LVL169:
	mov	DWORD PTR [eax], ebx
	.loc 1 432 0
	xor	ebx, ebx
LVL170:
	jmp	L133
LVL171:
L152:
	.loc 1 400 0
	call	__errno
LVL172:
	mov	eax, DWORD PTR [eax]
	mov	DWORD PTR [esp], eax
	call	_strerror
LVL173:
	mov	DWORD PTR [esp+8], eax
	mov	DWORD PTR [esp+4], OFFSET FLAT:LC21
	mov	DWORD PTR [esp], 16
	call	_gg_debug
LVL174:
	.loc 1 401 0
	xor	ebx, ebx
	jmp	L133
LVL175:
L154:
	.loc 1 438 0
	mov	DWORD PTR [esp+4], OFFSET FLAT:LC26
	mov	DWORD PTR [esp], 16
	call	_gg_debug
LVL176:
	.loc 1 439 0
	mov	eax, DWORD PTR [esp+24]
	mov	DWORD PTR [esp], eax
	call	_gg_win32_close
LVL177:
	.loc 1 440 0
	jmp	L133
LVL178:
L155:
	.loc 1 456 0
	call	___stack_chk_fail
LVL179:
	.cfi_endproc
LFE71:
	.section .rdata,"dr"
	.align 4
LC27:
	.ascii "++ gg_dcc_voice_send(%p, %p, %d);\12\0"
	.align 4
LC28:
	.ascii "// gg_dcc_voice_send() invalid argument\12\0"
	.align 4
LC29:
	.ascii "// gg_dcc_voice_send() send() failed\12\0"
LC30:
	.ascii "write\0"
	.text
	.p2align 2,,3
	.globl	_gg_dcc_voice_send
	.def	_gg_dcc_voice_send;	.scl	2;	.type	32;	.endef
_gg_dcc_voice_send:
LFB72:
	.loc 1 470 0
	.cfi_startproc
LVL180:
	push	ebp
LCFI99:
	.cfi_def_cfa_offset 8
	.cfi_offset 5, -8
	push	edi
LCFI100:
	.cfi_def_cfa_offset 12
	.cfi_offset 7, -12
	push	esi
LCFI101:
	.cfi_def_cfa_offset 16
	.cfi_offset 6, -16
	push	ebx
LCFI102:
	.cfi_def_cfa_offset 20
	.cfi_offset 3, -20
	sub	esp, 60
LCFI103:
	.cfi_def_cfa_offset 80
	mov	ebx, DWORD PTR [esp+80]
	mov	edi, DWORD PTR [esp+84]
	mov	esi, DWORD PTR [esp+88]
	.loc 1 470 0
	mov	eax, DWORD PTR ___stack_chk_guard
	mov	DWORD PTR [esp+44], eax
	xor	eax, eax
	.loc 1 477 0
	mov	DWORD PTR [esp+16], esi
	mov	DWORD PTR [esp+12], edi
	mov	DWORD PTR [esp+8], ebx
	mov	DWORD PTR [esp+4], OFFSET FLAT:LC27
	mov	DWORD PTR [esp], 8
	call	_gg_debug
LVL181:
	.loc 1 478 0
	test	ebx, ebx
	je	L157
	.loc 1 478 0 is_stmt 0 discriminator 1
	test	edi, edi
	je	L157
	test	esi, esi
	js	L157
	cmp	DWORD PTR [ebx+16], 12
	jne	L157
	.loc 1 484 0 is_stmt 1
	mov	BYTE PTR [esp+36], 3
	.loc 1 485 0
	mov	DWORD PTR [esp], esi
	call	_gg_fix32
LVL182:
	mov	DWORD PTR [esp+40], eax
	.loc 1 487 0
	mov	DWORD PTR [esp+12], 0
	mov	DWORD PTR [esp+8], 8
	lea	ebp, [esp+36]
	mov	DWORD PTR [esp+4], ebp
	mov	eax, DWORD PTR [ebx]
	mov	DWORD PTR [esp], eax
	call	_gg_win32_send
LVL183:
	cmp	eax, 7
	jle	L161
	.loc 1 491 0
	mov	DWORD PTR [esp], 8
	mov	ecx, ebp
	mov	edx, DWORD PTR [ebx]
	mov	eax, OFFSET FLAT:LC30
	call	_gg_dcc_debug_data
LVL184:
	.loc 1 493 0
	mov	DWORD PTR [esp+12], 0
	mov	DWORD PTR [esp+8], esi
	mov	DWORD PTR [esp+4], edi
	mov	eax, DWORD PTR [ebx]
	mov	DWORD PTR [esp], eax
	call	_gg_win32_send
LVL185:
	cmp	esi, eax
	jg	L161
	.loc 1 497 0
	mov	DWORD PTR [esp], esi
	mov	ecx, edi
	mov	edx, DWORD PTR [ebx]
	mov	eax, OFFSET FLAT:LC30
	call	_gg_dcc_debug_data
LVL186:
	.loc 1 499 0
	xor	eax, eax
L159:
	.loc 1 500 0
	mov	edx, DWORD PTR [esp+44]
	xor	edx, DWORD PTR ___stack_chk_guard
	jne	L170
	add	esp, 60
LCFI104:
	.cfi_remember_state
	.cfi_def_cfa_offset 20
	pop	ebx
LCFI105:
	.cfi_restore 3
	.cfi_def_cfa_offset 16
	pop	esi
LCFI106:
	.cfi_restore 6
	.cfi_def_cfa_offset 12
	pop	edi
LCFI107:
	.cfi_restore 7
	.cfi_def_cfa_offset 8
	pop	ebp
LCFI108:
	.cfi_restore 5
	.cfi_def_cfa_offset 4
	ret
	.p2align 2,,3
L157:
LCFI109:
	.cfi_restore_state
	.loc 1 479 0
	mov	DWORD PTR [esp+4], OFFSET FLAT:LC28
	mov	DWORD PTR [esp], 16
	call	_gg_debug
LVL187:
	.loc 1 480 0
	call	__errno
LVL188:
	mov	DWORD PTR [eax], 22
	.loc 1 481 0
	mov	eax, -1
	jmp	L159
	.p2align 2,,3
L161:
	.loc 1 488 0
	mov	DWORD PTR [esp+4], OFFSET FLAT:LC29
	mov	DWORD PTR [esp], 16
	call	_gg_debug
LVL189:
	.loc 1 489 0
	mov	eax, -1
	jmp	L159
L170:
	.loc 1 500 0
	call	___stack_chk_fail
LVL190:
	.cfi_endproc
LFE72:
	.section .rdata,"dr"
LC31:
	.ascii "** gg_dcc_watch_fd(%p);\12\0"
	.align 4
LC32:
	.ascii "// gg_dcc_watch_fd() invalid argument\12\0"
	.align 4
LC33:
	.ascii "// gg_dcc_watch_fd() not enough memory\12\0"
	.align 4
LC34:
	.ascii "// gg_dcc_watch_fd() can't accept() new connection (errno=%d, %s)\12\0"
	.align 4
LC35:
	.ascii "// gg_dcc_watch_fd() new direct connection from %s:%d\12\0"
	.align 4
LC36:
	.ascii "// gg_dcc_watch_fd() can't set nonblocking (errno=%d, %s)\12\0"
	.align 4
LC37:
	.ascii "// gg_dcc_watch_fd() not enough memory for client data\12\0"
	.align 4
LC38:
	.ascii "// gg_dcc_watch_fd() GG_READING_UIN_%d\12\0"
	.align 4
LC39:
	.ascii "// gg_dcc_watch_fd() recv() failed (errno=%d, %s)\12\0"
	.align 4
LC40:
	.ascii "// gg_dcc_watch_fd() recv() failed, connection broken\12\0"
	.align 4
LC41:
	.ascii "// gg_dcc_watch_fd() recv() failed (%d bytes, %Iu needed)\12\0"
LC42:
	.ascii "read\0"
	.align 4
LC43:
	.ascii "// gg_dcc_watch_fd() GG_SENDING_ACK\12\0"
	.align 4
LC44:
	.ascii "// gg_dcc_watch_fd() send() failed (errno=%d, %s)\12\0"
	.align 4
LC45:
	.ascii "// gg_dcc_watch_fd() send() failed (%Iu needed, %d done)\12\0"
	.align 4
LC46:
	.ascii "// gg_dcc_watch_fd() GG_STATE_READING_TYPE\12\0"
	.align 4
LC47:
	.ascii "// gg_dcc_watch_fd() callback\12\0"
LC48:
	.ascii "// gg_dcc_watch_fd() dialin\12\0"
	.align 4
LC49:
	.ascii "// gg_dcc_watch_fd() unknown dcc type (%.4x) from %u\12\0"
	.align 4
LC50:
	.ascii "// gg_dcc_watch_fd() GG_STATE_READING_REQUEST\12\0"
	.align 4
LC51:
	.ascii "// gg_dcc_watch_fd() file transfer request\12\0"
	.align 4
LC52:
	.ascii "// gg_dcc_watch_fd() voice chat request\12\0"
	.align 4
LC53:
	.ascii "// gg_dcc_watch_fd() unknown dcc request (%.4x) from %u\12\0"
	.align 4
LC54:
	.ascii "// gg_dcc_watch_fd() GG_STATE_READING_FILE_INFO\12\0"
	.align 4
LC55:
	.ascii "// gg_dcc_watch_fd() GG_STATE_SENDING_FILE_ACK\12\0"
	.align 4
LC56:
	.ascii "// gg_dcc_watch_fd() out of memory\12\0"
	.align 4
LC57:
	.ascii "// gg_dcc_watch_fd() GG_STATE_SENDING_VOICE_ACK\12\0"
	.align 4
LC58:
	.ascii "// gg_dcc_watch_fd() GG_STATE_READING_FILE_HEADER\12\0"
	.align 4
LC59:
	.ascii "// gg_dcc_watch_fd() transfer refused\12\0"
	.align 4
LC60:
	.ascii "// gg_dcc_watch_fd() empty chunk, EOF\12\0"
	.align 4
LC61:
	.ascii "// gg_dcc_watch_fd() GG_STATE_READING_VOICE_HEADER\12\0"
	.align 4
LC62:
	.ascii "// gg_dcc_watch_fd() peer breaking connection\12\0"
	.align 4
LC63:
	.ascii "// gg_dcc_watch_fd() unknown request (%.2x)\12\0"
	.align 4
LC64:
	.ascii "// gg_dcc_watch_fd() GG_STATE_READING_VOICE_SIZE\12\0"
	.align 4
LC65:
	.ascii "// gg_dcc_watch_fd() invalid voice frame size (%d)\12\0"
	.align 4
LC66:
	.ascii "// gg_dcc_watch_fd() out of memory for voice frame\12\0"
	.align 4
LC67:
	.ascii "// gg_dcc_watch_fd() GG_STATE_READING_VOICE_DATA\12\0"
	.align 4
LC68:
	.ascii "// gg_dcc_watch_fd() GG_STATE_CONNECTING\12\0"
	.align 4
LC69:
	.ascii "// gg_dcc_watch_fd() connection failed (fd=%d,errno=%d(%s),foo=%d,res=%d(%s))\12\0"
	.align 4
LC70:
	.ascii "// gg_dcc_watch_fd() connected, sending uins\12\0"
	.align 4
LC71:
	.ascii "// gg_dcc_watch_fd() GG_STATE_READING_ACK\12\0"
	.align 4
LC72:
	.ascii "// gg_dcc_watch_fd() did't get ack\12\0"
	.align 4
LC73:
	.ascii "// gg_dcc_watch_fd() GG_STATE_SENDING_VOICE_REQUEST\12\0"
	.align 4
LC74:
	.ascii "// gg_dcc_watch_fd() GG_STATE_SENDING_REQUEST\12\0"
	.align 4
LC75:
	.ascii "// gg_dcc_watch_fd() GG_STATE_SENDING_FILE_INFO\12\0"
	.align 4
LC76:
	.ascii "// gg_dcc_watch_fd() GG_STATE_READING_FILE_ACK\12\0"
	.align 4
LC77:
	.ascii "// gg_dcc_watch_fd() GG_STATE_READING_VOICE_ACK\12\0"
	.align 4
LC78:
	.ascii "// invalid reply (%.2x), connection refused\12\0"
	.align 4
LC79:
	.ascii "// gg_dcc_watch_fd() GG_STATE_SENDING_FILE_HEADER\12\0"
	.align 4
LC80:
	.ascii "// gg_dcc_watch_fd() GG_STATE_SENDING_FILE\12\0"
	.align 4
LC81:
	.ascii "// gg_dcc_watch_fd() offset=%d, size=%d\12\0"
	.align 4
LC82:
	.ascii "// gg_dcc_watch_fd() read()reached eof on empty file\12\0"
	.align 4
LC83:
	.ascii "// gg_dcc_watch_fd() offset >= size, finished\12\0"
	.align 4
LC84:
	.ascii "// gg_dcc_watch_fd() lseek() failed. (errno=%d, %s)\12\0"
	.align 4
LC85:
	.ascii "// gg_dcc_watch_fd() read() failed. (errno=%d, %s)\12\0"
	.align 4
LC86:
	.ascii "// gg_dcc_watch_fd() read() reached eof\12\0"
	.align 4
LC87:
	.ascii "// gg_dcc_watch_fd() read() too much (read=%d, ofs=%d, size=%d)\12\0"
	.align 4
LC88:
	.ascii "// gg_dcc_watch_fd() reached EOF after cutting\12\0"
	.align 4
LC89:
	.ascii "// gg_dcc_watch_fd() send() failed (%s)\12\0"
	.align 4
LC90:
	.ascii "// gg_dcc_watch_fd() send() failed (connection reset)\12\0"
	.align 4
LC91:
	.ascii "// gg_dcc_watch_fd() chunk finished\12\0"
	.align 4
LC92:
	.ascii "// gg_dcc_watch_fd() GG_STATE_GETTING_FILE\12\0"
	.align 4
LC93:
	.ascii "// gg_dcc_watch_fd() ofs=%d, size=%d, recv()=%d\12\0"
	.align 4
LC94:
	.ascii "// gg_dcc_watch_fd() recv() failed. (errno=%d, %s)\12\0"
	.align 4
LC95:
	.ascii "// gg_dcc_watch_fd() recv() reached eof\12\0"
	.align 4
LC96:
	.ascii "// gg_dcc_watch_fd() write() failed (%d:fd=%d:res=%d:%s)\12\0"
	.align 4
LC97:
	.ascii "// gg_dcc_watch_fd() GG_STATE_???\12\0"
	.text
	.p2align 2,,3
	.globl	_gg_dcc_watch_fd
	.def	_gg_dcc_watch_fd;	.scl	2;	.type	32;	.endef
_gg_dcc_watch_fd:
LFB73:
	.loc 1 573 0
	.cfi_startproc
LVL191:
	push	ebp
LCFI110:
	.cfi_def_cfa_offset 8
	.cfi_offset 5, -8
	push	edi
LCFI111:
	.cfi_def_cfa_offset 12
	.cfi_offset 7, -12
	push	esi
LCFI112:
	.cfi_def_cfa_offset 16
	.cfi_offset 6, -16
	push	ebx
LCFI113:
	.cfi_def_cfa_offset 20
	.cfi_offset 3, -20
	sub	esp, 1484
LCFI114:
	.cfi_def_cfa_offset 1504
	mov	ebx, DWORD PTR [esp+1504]
	.loc 1 573 0
	mov	eax, DWORD PTR ___stack_chk_guard
	mov	DWORD PTR [esp+1468], eax
	xor	eax, eax
	.loc 1 577 0
	mov	DWORD PTR [esp+8], ebx
	mov	DWORD PTR [esp+4], OFFSET FLAT:LC31
	mov	DWORD PTR [esp], 8
	call	_gg_debug
LVL192:
	.loc 1 579 0
	test	ebx, ebx
	je	L172
	.loc 1 579 0 is_stmt 0 discriminator 1
	mov	esi, DWORD PTR [ebx+16]
	lea	eax, [esi-8]
	cmp	eax, 1
	jbe	L173
	.loc 1 580 0 is_stmt 1
	cmp	esi, 10
	je	L173
	.loc 1 581 0
	cmp	esi, 11
	je	L173
	.loc 1 582 0
	cmp	esi, 12
	jne	L172
L173:
	.loc 1 590 0
	mov	DWORD PTR [esp+4], 60
	mov	DWORD PTR [esp], 1
	call	_calloc
LVL193:
	mov	ebp, eax
LVL194:
	test	eax, eax
	je	L375
	.loc 1 595 0
	mov	DWORD PTR [eax], 0
	.loc 1 597 0
	cmp	esi, 9
	je	L376
LBB28:
	.loc 1 651 0
	mov	DWORD PTR [esp+56], 4
LVL195:
	.loc 1 652 0
	mov	DWORD PTR [esp+439], 1195459669
	mov	BYTE PTR [esp+443], 0
	.loc 1 660 0
	mov	eax, DWORD PTR [ebx+8]
LVL196:
	cmp	eax, 36
	jbe	L377
L181:
	.loc 1 1360 0
	mov	DWORD PTR [esp+4], OFFSET FLAT:LC97
	mov	DWORD PTR [esp], 16
	call	_gg_debug
LVL197:
	.p2align 2,,3
L346:
	.loc 1 1361 0
	mov	DWORD PTR [ebp+0], 11
	.loc 1 1362 0
	mov	DWORD PTR [ebp+4], 5
	jmp	L174
LVL198:
	.p2align 2,,3
L377:
	.loc 1 660 0
	jmp	[DWORD PTR L203[0+eax*4]]
	.section .rdata,"dr"
	.align 4
L203:
	.long	L181
	.long	L181
	.long	L182
	.long	L181
	.long	L181
	.long	L181
	.long	L181
	.long	L181
	.long	L181
	.long	L181
	.long	L181
	.long	L181
	.long	L181
	.long	L181
	.long	L181
	.long	L183
	.long	L183
	.long	L184
	.long	L185
	.long	L186
	.long	L187
	.long	L188
	.long	L181
	.long	L189
	.long	L190
	.long	L191
	.long	L192
	.long	L193
	.long	L194
	.long	L195
	.long	L196
	.long	L197
	.long	L198
	.long	L199
	.long	L200
	.long	L201
	.long	L202
	.text
LVL199:
	.p2align 2,,3
L172:
LBE28:
	.loc 1 585 0
	mov	DWORD PTR [esp+4], OFFSET FLAT:LC32
	mov	DWORD PTR [esp], 16
	call	_gg_debug
LVL200:
	.loc 1 586 0
	call	__errno
LVL201:
	mov	DWORD PTR [eax], 22
	.loc 1 587 0
	xor	ebp, ebp
LVL202:
	.p2align 2,,3
L174:
	.loc 1 1369 0
	mov	eax, ebp
	mov	edi, DWORD PTR [esp+1468]
	xor	edi, DWORD PTR ___stack_chk_guard
	jne	L378
	add	esp, 1484
LCFI115:
	.cfi_remember_state
	.cfi_def_cfa_offset 20
	pop	ebx
LCFI116:
	.cfi_restore 3
	.cfi_def_cfa_offset 16
	pop	esi
LCFI117:
	.cfi_restore 6
	.cfi_def_cfa_offset 12
	pop	edi
LCFI118:
	.cfi_restore 7
	.cfi_def_cfa_offset 8
	pop	ebp
LCFI119:
	.cfi_restore 5
	.cfi_def_cfa_offset 4
	ret
LVL203:
	.p2align 2,,3
L376:
LCFI120:
	.cfi_restore_state
LBB64:
	.loc 1 601 0
	mov	DWORD PTR [esp+56], 16
LVL204:
	.loc 1 603 0
	lea	eax, [esp+56]
LVL205:
	mov	DWORD PTR [esp+8], eax
	lea	eax, [esp+88]
	mov	DWORD PTR [esp+4], eax
	mov	eax, DWORD PTR [ebx]
	mov	DWORD PTR [esp], eax
	call	_gg_win32_accept
LVL206:
	mov	esi, eax
LVL207:
	cmp	eax, -1
	je	L379
	.loc 1 612 0
	movzx	eax, WORD PTR [esp+90]
LVL208:
	mov	DWORD PTR [esp], eax
	call	_htons@4
LCFI121:
	.cfi_def_cfa_offset 1500
LVL209:
	push	edi
LCFI122:
	.cfi_def_cfa_offset 1504
	movzx	ebx, ax
	.loc 1 610 0
	mov	eax, DWORD PTR [esp+92]
	mov	DWORD PTR [esp], eax
	call	_inet_ntoa@4
LCFI123:
	.cfi_def_cfa_offset 1500
LVL210:
	push	edx
LCFI124:
	.cfi_def_cfa_offset 1504
	mov	DWORD PTR [esp+12], ebx
	mov	DWORD PTR [esp+8], eax
	mov	DWORD PTR [esp+4], OFFSET FLAT:LC35
	mov	DWORD PTR [esp], 16
	call	_gg_debug
LVL211:
LBB65:
LBB66:
	.file 2 "lib/network.h"
	.loc 2 116 0
	mov	DWORD PTR [esp+60], 1
LVL212:
	.loc 2 117 0
	lea	eax, [esp+60]
	mov	DWORD PTR [esp+8], eax
	mov	DWORD PTR [esp+4], -2147195266
	mov	DWORD PTR [esp], esi
	call	_gg_win32_ioctl
LVL213:
LBE66:
LBE65:
	.loc 1 614 0
	test	eax, eax
	jne	L380
	.loc 1 624 0
	mov	DWORD PTR [esp+4], 414
	mov	DWORD PTR [esp], 1
	call	_calloc
LVL214:
	mov	ebx, eax
LVL215:
	test	eax, eax
	je	L381
	.loc 1 632 0
	mov	DWORD PTR [eax], esi
	.loc 1 633 0
	mov	DWORD PTR [eax+4], 2
	.loc 1 634 0
	mov	DWORD PTR [eax+8], 15
	.loc 1 635 0
	mov	DWORD PTR [eax+16], 8
	.loc 1 636 0
	mov	DWORD PTR [eax+24], 30
	.loc 1 637 0
	mov	DWORD PTR [eax+56], -1
	.loc 1 638 0
	mov	eax, DWORD PTR [esp+92]
LVL216:
	mov	DWORD PTR [ebx+408], eax
	.loc 1 639 0
	movzx	eax, WORD PTR [esp+90]
	mov	DWORD PTR [esp], eax
	call	_ntohs@4
LCFI125:
	.cfi_def_cfa_offset 1500
LVL217:
LVL218:
	push	esi
LCFI126:
	.cfi_def_cfa_offset 1504
	mov	WORD PTR [ebx+412], ax
	.loc 1 641 0
	mov	DWORD PTR [ebp+0], 10
	.loc 1 642 0
	mov	DWORD PTR [ebp+4], ebx
	jmp	L174
LVL219:
	.p2align 2,,3
L380:
	.loc 1 617 0
	call	__errno
LVL220:
	.loc 1 615 0
	mov	eax, DWORD PTR [eax]
	mov	DWORD PTR [esp], eax
	call	_strerror
LVL221:
	mov	ebx, eax
	.loc 1 617 0
	call	__errno
LVL222:
	.loc 1 615 0
	mov	DWORD PTR [esp+12], ebx
	mov	eax, DWORD PTR [eax]
	mov	DWORD PTR [esp+8], eax
	mov	DWORD PTR [esp+4], OFFSET FLAT:LC36
	mov	DWORD PTR [esp], 16
	call	_gg_debug
LVL223:
	.loc 1 618 0
	mov	DWORD PTR [esp], esi
	call	_gg_win32_close
LVL224:
	.loc 1 619 0
	mov	DWORD PTR [ebp+0], 11
	.loc 1 620 0
	mov	DWORD PTR [ebp+4], 5
	jmp	L174
LVL225:
L189:
LBE64:
LBB67:
	.loc 1 773 0
	mov	DWORD PTR [esp+4], OFFSET FLAT:LC54
	mov	DWORD PTR [esp], 16
	call	_gg_debug
LVL226:
LBB29:
	.loc 1 775 0
	mov	DWORD PTR [esp+12], 0
	mov	DWORD PTR [esp+8], 332
	lea	esi, [esp+107]
	mov	DWORD PTR [esp+4], esi
	mov	eax, DWORD PTR [ebx]
	mov	DWORD PTR [esp], eax
	call	_gg_win32_recv
LVL227:
	cmp	eax, 331
	jg	L229
	.loc 1 775 0 is_stmt 0 discriminator 1
	cmp	eax, -1
	je	L355
	.loc 1 775 0 discriminator 2
	test	eax, eax
	je	L354
	mov	DWORD PTR [esp+12], 332
	mov	DWORD PTR [esp+8], eax
	mov	DWORD PTR [esp+4], OFFSET FLAT:LC41
	mov	DWORD PTR [esp], 16
	call	_gg_debug
LVL228:
	jmp	L346
L190:
LBE29:
	.loc 1 791 0 is_stmt 1
	mov	DWORD PTR [esp+4], OFFSET FLAT:LC55
	mov	DWORD PTR [esp], 16
	call	_gg_debug
LVL229:
	.loc 1 793 0
	mov	DWORD PTR [esp], 6
	call	_gg_fix32
LVL230:
	mov	DWORD PTR [esp+68], eax
	.loc 1 794 0
	mov	eax, DWORD PTR [ebx+60]
	mov	DWORD PTR [esp], eax
	call	_gg_fix32
LVL231:
	mov	DWORD PTR [esp+72], eax
	.loc 1 795 0
	mov	DWORD PTR [esp+76], 0
LBB30:
	.loc 1 797 0
	lea	esi, [esp+68]
	mov	DWORD PTR [esp], 12
	mov	ecx, esi
	mov	edx, DWORD PTR [ebx]
	mov	eax, OFFSET FLAT:LC30
	call	_gg_dcc_debug_data
LVL232:
	mov	DWORD PTR [esp+12], 0
	mov	DWORD PTR [esp+8], 12
	mov	DWORD PTR [esp+4], esi
	mov	eax, DWORD PTR [ebx]
	mov	DWORD PTR [esp], eax
	call	_gg_win32_send
LVL233:
	cmp	eax, 11
	jg	L233
LVL234:
L366:
LBE30:
LBB31:
	.loc 1 1146 0 discriminator 1
	cmp	eax, -1
	je	L356
	.loc 1 1146 0 is_stmt 0 discriminator 2
	mov	DWORD PTR [esp+12], eax
	mov	DWORD PTR [esp+8], 12
	mov	DWORD PTR [esp+4], OFFSET FLAT:LC45
	mov	DWORD PTR [esp], 16
	call	_gg_debug
LVL235:
	jmp	L346
L191:
LBE31:
	.loc 1 1095 0 is_stmt 1
	mov	DWORD PTR [esp+4], OFFSET FLAT:LC76
	mov	DWORD PTR [esp], 16
	call	_gg_debug
LVL236:
LBB32:
	.loc 1 1097 0
	mov	DWORD PTR [esp+12], 0
	mov	DWORD PTR [esp+8], 12
	lea	esi, [esp+68]
	mov	DWORD PTR [esp+4], esi
	mov	eax, DWORD PTR [ebx]
	mov	DWORD PTR [esp], eax
	call	_gg_win32_recv
LVL237:
	cmp	eax, 11
	jg	L290
	.loc 1 1097 0 is_stmt 0 discriminator 1
	cmp	eax, -1
	je	L355
	.loc 1 1097 0 discriminator 2
	test	eax, eax
	je	L354
	mov	DWORD PTR [esp+12], 12
	mov	DWORD PTR [esp+8], eax
	mov	DWORD PTR [esp+4], OFFSET FLAT:LC41
	mov	DWORD PTR [esp], 16
	call	_gg_debug
LVL238:
	jmp	L346
L192:
LBE32:
	.loc 1 1133 0 is_stmt 1
	mov	DWORD PTR [esp+4], OFFSET FLAT:LC79
	mov	DWORD PTR [esp], 16
	call	_gg_debug
LVL239:
	.loc 1 1135 0
	mov	DWORD PTR [ebx+68], 0
	.loc 1 1137 0
	mov	eax, DWORD PTR [ebx+104]
	sub	eax, DWORD PTR [ebx+60]
	mov	DWORD PTR [ebx+64], eax
	cmp	eax, 4096
	jbe	L299
	.loc 1 1138 0
	mov	DWORD PTR [ebx+64], 4096
	.loc 1 1139 0
	mov	DWORD PTR [esp], 3
	call	_gg_fix32
LVL240:
	mov	DWORD PTR [esp+68], eax
L300:
	.loc 1 1143 0
	mov	eax, DWORD PTR [ebx+64]
	mov	DWORD PTR [esp], eax
	call	_gg_fix32
LVL241:
	mov	DWORD PTR [esp+72], eax
	.loc 1 1144 0
	mov	DWORD PTR [esp+76], 0
LBB33:
	.loc 1 1146 0
	lea	esi, [esp+68]
	mov	DWORD PTR [esp], 12
	mov	ecx, esi
	mov	edx, DWORD PTR [ebx]
	mov	eax, OFFSET FLAT:LC30
	call	_gg_dcc_debug_data
LVL242:
	mov	DWORD PTR [esp+12], 0
	mov	DWORD PTR [esp+8], 12
	mov	DWORD PTR [esp+4], esi
	mov	eax, DWORD PTR [ebx]
	mov	DWORD PTR [esp], eax
	call	_gg_win32_send
LVL243:
	cmp	eax, 11
	jle	L366
LBE33:
	.loc 1 1148 0
	mov	DWORD PTR [ebx+8], 29
	.loc 1 1149 0
	mov	DWORD PTR [ebx+4], 1
	.loc 1 1150 0
	mov	DWORD PTR [ebx+24], 30
	.loc 1 1151 0
	mov	DWORD PTR [ebx+392], 1
	jmp	L174
LVL244:
L187:
	.loc 1 1032 0
	mov	DWORD PTR [esp+4], OFFSET FLAT:LC74
	mov	DWORD PTR [esp], 16
	call	_gg_debug
LVL245:
	.loc 1 1035 0
	cmp	DWORD PTR [ebx+16], 11
	je	L382
	.loc 1 1035 0 is_stmt 0 discriminator 2
	mov	DWORD PTR [esp], 2
	call	_gg_fix32
LVL246:
L276:
	.loc 1 1034 0 is_stmt 1
	mov	DWORD PTR [esp+64], eax
LBB34:
	.loc 1 1037 0
	lea	esi, [esp+64]
	mov	DWORD PTR [esp], 4
	mov	ecx, esi
	mov	edx, DWORD PTR [ebx]
	mov	eax, OFFSET FLAT:LC30
	call	_gg_dcc_debug_data
LVL247:
	mov	DWORD PTR [esp+12], 0
	mov	DWORD PTR [esp+8], 4
	mov	DWORD PTR [esp+4], esi
	mov	eax, DWORD PTR [ebx]
	mov	DWORD PTR [esp], eax
	call	_gg_win32_send
LVL248:
	cmp	eax, 3
	jle	L363
LBE34:
	.loc 1 1039 0
	mov	eax, DWORD PTR [ebx+16]
LVL249:
	cmp	eax, 10
	je	L280
	jl	L174
	cmp	eax, 11
	je	L281
	cmp	eax, 12
	jne	L174
	.loc 1 1056 0
	mov	DWORD PTR [ebx+8], 35
	.loc 1 1057 0
	mov	DWORD PTR [ebx+4], 1
	.loc 1 1058 0
	mov	DWORD PTR [ebx+24], 30
	.loc 1 1059 0
	jmp	L174
L188:
	.loc 1 1065 0
	mov	DWORD PTR [esp+4], OFFSET FLAT:LC75
	mov	DWORD PTR [esp], 16
	call	_gg_debug
LVL250:
	.loc 1 1067 0
	cmp	DWORD PTR [ebx+56], -1
	jne	L283
L353:
	.loc 1 1068 0
	mov	DWORD PTR [ebp+0], 15
	jmp	L174
L193:
	.loc 1 828 0
	mov	DWORD PTR [esp+4], OFFSET FLAT:LC58
	mov	DWORD PTR [esp], 16
	call	_gg_debug
LVL251:
	.loc 1 830 0
	mov	edx, DWORD PTR [ebx+68]
	mov	DWORD PTR [esp+12], 0
	mov	eax, DWORD PTR [ebx+64]
	sub	eax, edx
	mov	DWORD PTR [esp+8], eax
	add	edx, DWORD PTR [ebx+404]
	mov	DWORD PTR [esp+4], edx
	mov	eax, DWORD PTR [ebx]
	mov	DWORD PTR [esp], eax
	call	_gg_win32_recv
LVL252:
	mov	esi, eax
LVL253:
	.loc 1 832 0
	cmp	eax, -1
	je	L383
	.loc 1 842 0
	mov	eax, DWORD PTR [ebx+68]
LVL254:
	.loc 1 840 0
	mov	ecx, DWORD PTR [ebx+404]
	add	ecx, eax
	mov	edx, DWORD PTR [ebx+64]
	sub	edx, eax
	mov	DWORD PTR [esp], edx
	mov	edx, DWORD PTR [ebx]
	mov	eax, OFFSET FLAT:LC42
	call	_gg_dcc_debug_data
LVL255:
	.loc 1 844 0
	add	esi, DWORD PTR [ebx+68]
LVL256:
	mov	DWORD PTR [ebx+68], esi
	.loc 1 846 0
	cmp	esi, DWORD PTR [ebx+64]
	jb	L174
	.loc 1 849 0
	mov	eax, DWORD PTR [ebx+404]
	lea	edi, [esp+68]
	mov	ecx, 3
	mov	esi, eax
	rep movsd
	.loc 1 850 0
	mov	DWORD PTR [esp], eax
	call	_free
LVL257:
	.loc 1 851 0
	mov	DWORD PTR [ebx+404], 0
	.loc 1 853 0
	mov	eax, DWORD PTR [esp+68]
	mov	DWORD PTR [esp], eax
	call	_gg_fix32
LVL258:
	mov	DWORD PTR [esp+68], eax
	.loc 1 854 0
	mov	eax, DWORD PTR [esp+72]
	mov	DWORD PTR [esp], eax
	call	_gg_fix32
LVL259:
	mov	DWORD PTR [ebx+64], eax
	.loc 1 855 0
	mov	DWORD PTR [ebx+68], 0
	.loc 1 857 0
	cmp	DWORD PTR [esp+68], 5
	je	L384
	.loc 1 864 0
	test	eax, eax
	je	L385
	.loc 1 870 0
	mov	DWORD PTR [ebx+8], 28
	.loc 1 871 0
	mov	DWORD PTR [ebx+4], 2
	.loc 1 872 0
	mov	DWORD PTR [ebx+24], 30
	.loc 1 873 0
	mov	DWORD PTR [ebx+392], 1
	jmp	L174
L201:
	.loc 1 1019 0
	mov	DWORD PTR [esp+4], OFFSET FLAT:LC73
	mov	DWORD PTR [esp], 16
	call	_gg_debug
LVL260:
	.loc 1 1021 0
	mov	DWORD PTR [esp], 3
	call	_gg_fix32
LVL261:
	mov	DWORD PTR [esp+64], eax
LBB35:
	.loc 1 1023 0
	lea	esi, [esp+64]
	mov	DWORD PTR [esp], 4
	mov	ecx, esi
	mov	edx, DWORD PTR [ebx]
	mov	eax, OFFSET FLAT:LC30
	call	_gg_dcc_debug_data
LVL262:
	mov	DWORD PTR [esp+12], 0
	mov	DWORD PTR [esp+8], 4
	mov	DWORD PTR [esp+4], esi
	mov	eax, DWORD PTR [ebx]
	mov	DWORD PTR [esp], eax
	call	_gg_win32_send
LVL263:
	cmp	eax, 3
	jle	L363
LBE35:
	.loc 1 1025 0
	mov	DWORD PTR [ebx+8], 30
	.loc 1 1026 0
	mov	DWORD PTR [ebx+4], 2
	.loc 1 1027 0
	mov	DWORD PTR [ebx+24], 30
	jmp	L174
LVL264:
L183:
LBB36:
	.loc 1 666 0
	cmp	eax, 15
	setne	al
	movzx	eax, al
	inc	eax
	mov	DWORD PTR [esp+8], eax
	mov	DWORD PTR [esp+4], OFFSET FLAT:LC38
	mov	DWORD PTR [esp], 16
	call	_gg_debug
LVL265:
LBB37:
	.loc 1 670 0
	mov	DWORD PTR [esp+12], 0
	mov	DWORD PTR [esp+8], 4
	lea	esi, [esp+60]
	mov	DWORD PTR [esp+4], esi
	mov	eax, DWORD PTR [ebx]
	mov	DWORD PTR [esp], eax
	call	_gg_win32_recv
LVL266:
	cmp	eax, 3
	jg	L205
LVL267:
L369:
LBE37:
LBE36:
LBB39:
	.loc 1 1002 0 discriminator 1
	cmp	eax, -1
	je	L355
	.loc 1 1002 0 is_stmt 0 discriminator 2
	test	eax, eax
	je	L354
	mov	DWORD PTR [esp+12], 4
	mov	DWORD PTR [esp+8], eax
	mov	DWORD PTR [esp+4], OFFSET FLAT:LC41
	mov	DWORD PTR [esp], 16
	call	_gg_debug
LVL268:
	jmp	L346
L184:
LBE39:
	.loc 1 689 0 is_stmt 1
	mov	DWORD PTR [esp+4], OFFSET FLAT:LC43
	mov	DWORD PTR [esp], 16
	call	_gg_debug
LVL269:
LBB40:
	.loc 1 691 0
	lea	esi, [esp+439]
	mov	DWORD PTR [esp], 4
	mov	ecx, esi
	mov	edx, DWORD PTR [ebx]
	mov	eax, OFFSET FLAT:LC30
	call	_gg_dcc_debug_data
LVL270:
	mov	DWORD PTR [esp+12], 0
	mov	DWORD PTR [esp+8], 4
	mov	DWORD PTR [esp+4], esi
	mov	eax, DWORD PTR [ebx]
	mov	DWORD PTR [esp], eax
	call	_gg_win32_send
LVL271:
	cmp	eax, 3
	jle	L363
LBE40:
	.loc 1 693 0
	mov	DWORD PTR [ebx+8], 36
	.loc 1 694 0
	mov	DWORD PTR [ebx+4], 2
	.loc 1 695 0
	mov	DWORD PTR [ebx+24], 30
	jmp	L174
LVL272:
L197:
	.loc 1 878 0
	mov	DWORD PTR [esp+4], OFFSET FLAT:LC61
	mov	DWORD PTR [esp], 16
	call	_gg_debug
LVL273:
LBB41:
	.loc 1 880 0
	mov	DWORD PTR [esp+12], 0
	mov	DWORD PTR [esp+8], 1
	lea	esi, [esp+55]
	mov	DWORD PTR [esp+4], esi
	mov	eax, DWORD PTR [ebx]
	mov	DWORD PTR [esp], eax
	call	_gg_win32_recv
LVL274:
	test	eax, eax
	jle	L371
	.loc 1 880 0 is_stmt 0 discriminator 2
	mov	DWORD PTR [esp], 1
	mov	ecx, esi
	mov	edx, DWORD PTR [ebx]
	mov	eax, OFFSET FLAT:LC42
LVL275:
	call	_gg_dcc_debug_data
LVL276:
LBE41:
	.loc 1 882 0 is_stmt 1 discriminator 2
	movzx	eax, BYTE PTR [esp+55]
	cmp	al, 3
	je	L248
	cmp	al, 4
	jne	L247
	.loc 1 890 0
	mov	DWORD PTR [esp+4], OFFSET FLAT:LC62
	mov	DWORD PTR [esp], 16
	call	_gg_debug
LVL277:
	movzx	eax, BYTE PTR [esp+55]
L247:
	.loc 1 894 0
	mov	DWORD PTR [esp+8], eax
	mov	DWORD PTR [esp+4], OFFSET FLAT:LC63
	mov	DWORD PTR [esp], 16
	call	_gg_debug
LVL278:
	.loc 1 896 0
	mov	DWORD PTR [ebp+0], 11
	.loc 1 897 0
	mov	DWORD PTR [ebp+4], 5
	jmp	L174
L198:
	.loc 1 903 0
	mov	DWORD PTR [esp+4], OFFSET FLAT:LC64
	mov	DWORD PTR [esp], 16
	call	_gg_debug
LVL279:
LBB42:
	.loc 1 905 0
	mov	DWORD PTR [esp+12], 0
	mov	DWORD PTR [esp+8], 4
	lea	esi, [esp+64]
	mov	DWORD PTR [esp+4], esi
	mov	eax, DWORD PTR [ebx]
	mov	DWORD PTR [esp], eax
	call	_gg_win32_recv
LVL280:
	cmp	eax, 3
	jle	L369
	.loc 1 905 0 is_stmt 0 discriminator 2
	mov	DWORD PTR [esp], 4
	mov	ecx, esi
	mov	edx, DWORD PTR [ebx]
	mov	eax, OFFSET FLAT:LC42
LVL281:
	call	_gg_dcc_debug_data
LVL282:
LBE42:
	.loc 1 907 0 is_stmt 1 discriminator 2
	mov	eax, DWORD PTR [esp+64]
	mov	DWORD PTR [esp], eax
	call	_gg_fix32
LVL283:
	mov	DWORD PTR [esp+64], eax
	.loc 1 909 0 discriminator 2
	lea	edx, [eax-16]
	cmp	edx, 1008
	jbe	L254
	.loc 1 910 0
	mov	DWORD PTR [esp+8], eax
	mov	DWORD PTR [esp+4], OFFSET FLAT:LC65
	mov	DWORD PTR [esp], 16
	call	_gg_debug
LVL284:
	.loc 1 912 0
	mov	DWORD PTR [ebp+0], 11
	.loc 1 913 0
	mov	DWORD PTR [ebp+4], 8
	jmp	L174
L199:
	.loc 1 934 0
	mov	DWORD PTR [esp+4], OFFSET FLAT:LC67
	mov	DWORD PTR [esp], 16
	call	_gg_debug
LVL285:
	.loc 1 936 0
	mov	edx, DWORD PTR [ebx+68]
	mov	DWORD PTR [esp+12], 0
	mov	eax, DWORD PTR [ebx+64]
	sub	eax, edx
	mov	DWORD PTR [esp+8], eax
	add	edx, DWORD PTR [ebx+396]
	mov	DWORD PTR [esp+4], edx
	mov	eax, DWORD PTR [ebx]
	mov	DWORD PTR [esp], eax
	call	_gg_win32_recv
LVL286:
	mov	esi, eax
LVL287:
	.loc 1 937 0
	test	eax, eax
	jle	L386
	.loc 1 951 0
	mov	ecx, DWORD PTR [ebx+396]
	add	ecx, DWORD PTR [ebx+68]
	mov	DWORD PTR [esp], eax
	mov	edx, DWORD PTR [ebx]
	mov	eax, OFFSET FLAT:LC42
LVL288:
	call	_gg_dcc_debug_data
LVL289:
	.loc 1 953 0
	add	esi, DWORD PTR [ebx+68]
LVL290:
	mov	DWORD PTR [ebx+68], esi
	.loc 1 955 0
	cmp	esi, DWORD PTR [ebx+64]
	jb	L348
	.loc 1 956 0
	mov	DWORD PTR [ebp+0], 18
	.loc 1 957 0
	mov	eax, DWORD PTR [ebx+396]
	mov	DWORD PTR [ebp+4], eax
	.loc 1 958 0
	mov	eax, DWORD PTR [ebx+64]
	mov	DWORD PTR [ebp+8], eax
	.loc 1 959 0
	mov	DWORD PTR [ebx+8], 31
	.loc 1 960 0
	mov	DWORD PTR [ebx+396], 0
L348:
	.loc 1 928 0
	mov	DWORD PTR [ebx+4], 2
	.loc 1 929 0
	mov	DWORD PTR [ebx+24], 30
	jmp	L174
L200:
	.loc 1 813 0
	mov	DWORD PTR [esp+4], OFFSET FLAT:LC57
	mov	DWORD PTR [esp], 16
	call	_gg_debug
LVL291:
	.loc 1 815 0
	mov	BYTE PTR [esp+55], 1
LBB43:
	.loc 1 817 0
	lea	esi, [esp+55]
	mov	DWORD PTR [esp], 1
	mov	ecx, esi
	mov	edx, DWORD PTR [ebx]
	mov	eax, OFFSET FLAT:LC30
	call	_gg_dcc_debug_data
LVL292:
	mov	DWORD PTR [esp+12], 0
	mov	DWORD PTR [esp+8], 1
	mov	DWORD PTR [esp+4], esi
	mov	eax, DWORD PTR [ebx]
	mov	DWORD PTR [esp], eax
	call	_gg_win32_send
LVL293:
	test	eax, eax
	jle	L387
LBE43:
	.loc 1 819 0
	mov	DWORD PTR [ebx+8], 31
	.loc 1 820 0
	mov	DWORD PTR [ebx+4], 2
	.loc 1 821 0
	mov	DWORD PTR [ebx+24], 30
	.loc 1 823 0
	mov	DWORD PTR [ebx+60], 0
	jmp	L174
LVL294:
L195:
	.loc 1 1156 0
	mov	DWORD PTR [esp+4], OFFSET FLAT:LC80
	mov	DWORD PTR [esp], 16
	call	_gg_debug
LVL295:
	.loc 1 1158 0
	mov	edi, DWORD PTR [ebx+64]
	mov	esi, DWORD PTR [ebx+68]
LVL296:
	.loc 1 1161 0
	mov	eax, DWORD PTR [ebx+104]
	mov	DWORD PTR [esp+12], eax
	mov	eax, DWORD PTR [ebx+60]
	mov	DWORD PTR [esp+8], eax
	mov	DWORD PTR [esp+4], OFFSET FLAT:LC81
	mov	DWORD PTR [esp], 16
	call	_gg_debug
LVL297:
	.loc 1 1166 0
	mov	eax, DWORD PTR [ebx+104]
	test	eax, eax
	je	L388
	.loc 1 1175 0
	mov	edx, DWORD PTR [ebx+60]
	cmp	eax, edx
	jbe	L352
	.loc 1 1181 0
	mov	DWORD PTR [esp+8], 0
	mov	DWORD PTR [esp+4], edx
	mov	eax, DWORD PTR [ebx+56]
	mov	DWORD PTR [esp], eax
	call	__lseek
LVL298:
	cmp	eax, DWORD PTR [ebx+60]
	je	L306
	.loc 1 1185 0
	call	__errno
LVL299:
	.loc 1 1182 0
	mov	eax, DWORD PTR [eax]
	mov	DWORD PTR [esp], eax
	call	_strerror
LVL300:
	mov	ebx, eax
	.loc 1 1185 0
	call	__errno
LVL301:
	.loc 1 1182 0
	mov	DWORD PTR [esp+12], ebx
	mov	eax, DWORD PTR [eax]
	mov	DWORD PTR [esp+8], eax
	mov	DWORD PTR [esp+4], OFFSET FLAT:LC84
	mov	DWORD PTR [esp], 16
	call	_gg_debug
LVL302:
	.loc 1 1187 0
	mov	DWORD PTR [ebp+0], 11
	.loc 1 1188 0
	mov	DWORD PTR [ebp+4], 6
	jmp	L174
LVL303:
L194:
	.loc 1 1278 0
	mov	DWORD PTR [esp+4], OFFSET FLAT:LC92
	mov	DWORD PTR [esp], 16
	call	_gg_debug
LVL304:
	.loc 1 1280 0
	mov	eax, DWORD PTR [ebx+64]
	mov	edx, DWORD PTR [ebx+68]
LVL305:
	.loc 1 1283 0
	mov	ecx, DWORD PTR [ebx+104]
	cmp	DWORD PTR [ebx+60], ecx
	jae	L352
	.loc 1 1289 0
	mov	DWORD PTR [esp+12], 0
	sub	eax, edx
LVL306:
	cmp	eax, 1024
	jbe	L318
	mov	eax, 1024
LVL307:
L318:
	mov	DWORD PTR [esp+8], eax
	lea	edi, [esp+444]
	mov	DWORD PTR [esp+4], edi
	mov	eax, DWORD PTR [ebx]
	mov	DWORD PTR [esp], eax
	call	_gg_win32_recv
LVL308:
	mov	esi, eax
LVL309:
	.loc 1 1291 0
	mov	DWORD PTR [esp+16], eax
	mov	eax, DWORD PTR [ebx+104]
LVL310:
	mov	DWORD PTR [esp+12], eax
	mov	eax, DWORD PTR [ebx+60]
	mov	DWORD PTR [esp+8], eax
	mov	DWORD PTR [esp+4], OFFSET FLAT:LC93
	mov	DWORD PTR [esp], 16
	call	_gg_debug
LVL311:
	.loc 1 1296 0
	cmp	esi, -1
	je	L389
	.loc 1 1309 0
	test	esi, esi
	jne	L320
	.loc 1 1310 0
	mov	DWORD PTR [esp+4], OFFSET FLAT:LC95
	mov	DWORD PTR [esp], 16
	call	_gg_debug
LVL312:
	.loc 1 1311 0
	mov	DWORD PTR [ebp+0], 11
	.loc 1 1312 0
	mov	DWORD PTR [ebp+4], 7
	jmp	L174
LVL313:
L196:
	.loc 1 1111 0
	mov	DWORD PTR [esp+4], OFFSET FLAT:LC77
	mov	DWORD PTR [esp], 16
	call	_gg_debug
LVL314:
LBB44:
	.loc 1 1113 0
	mov	DWORD PTR [esp+12], 0
	mov	DWORD PTR [esp+8], 1
	lea	esi, [esp+55]
	mov	DWORD PTR [esp+4], esi
	mov	eax, DWORD PTR [ebx]
	mov	DWORD PTR [esp], eax
	call	_gg_win32_recv
LVL315:
	test	eax, eax
	jle	L371
	.loc 1 1113 0 is_stmt 0 discriminator 2
	mov	DWORD PTR [esp], 1
	mov	ecx, esi
	mov	edx, DWORD PTR [ebx]
	mov	eax, OFFSET FLAT:LC42
LVL316:
	call	_gg_dcc_debug_data
LVL317:
LBE44:
	.loc 1 1115 0 is_stmt 1 discriminator 2
	movzx	eax, BYTE PTR [esp+55]
	cmp	al, 1
	je	L298
	.loc 1 1116 0
	mov	DWORD PTR [esp+8], eax
	mov	DWORD PTR [esp+4], OFFSET FLAT:LC78
	mov	DWORD PTR [esp], 16
	call	_gg_debug
LVL318:
	.loc 1 1119 0
	mov	DWORD PTR [ebp+0], 11
	.loc 1 1120 0
	mov	DWORD PTR [ebp+4], 9
	jmp	L174
L185:
	.loc 1 1000 0
	mov	DWORD PTR [esp+4], OFFSET FLAT:LC71
	mov	DWORD PTR [esp], 16
	call	_gg_debug
LVL319:
LBB45:
	.loc 1 1002 0
	mov	DWORD PTR [esp+12], 0
	mov	DWORD PTR [esp+8], 4
	lea	esi, [esp+444]
	mov	DWORD PTR [esp+4], esi
	mov	eax, DWORD PTR [ebx]
	mov	DWORD PTR [esp], eax
	call	_gg_win32_recv
LVL320:
	cmp	eax, 3
	jle	L369
	.loc 1 1002 0 is_stmt 0 discriminator 2
	mov	DWORD PTR [esp], 4
	mov	ecx, esi
	mov	edx, DWORD PTR [ebx]
	mov	eax, OFFSET FLAT:LC42
LVL321:
	call	_gg_dcc_debug_data
LVL322:
LBE45:
	.loc 1 1004 0 is_stmt 1 discriminator 2
	mov	DWORD PTR [esp+8], 4
	lea	eax, [esp+439]
	mov	DWORD PTR [esp+4], eax
	mov	DWORD PTR [esp], esi
	call	_strncmp
LVL323:
	test	eax, eax
	jne	L390
	.loc 1 1012 0
	mov	DWORD PTR [ebx+4], 1
	.loc 1 1013 0
	mov	DWORD PTR [ebx+24], 30
	.loc 1 1014 0
	mov	DWORD PTR [ebx+8], 20
	jmp	L174
L202:
	.loc 1 700 0
	mov	DWORD PTR [esp+4], OFFSET FLAT:LC46
	mov	DWORD PTR [esp], 16
	call	_gg_debug
LVL324:
LBB46:
	.loc 1 702 0
	mov	DWORD PTR [esp+12], 0
	mov	DWORD PTR [esp+8], 4
	lea	esi, [esp+64]
	mov	DWORD PTR [esp+4], esi
	mov	eax, DWORD PTR [ebx]
	mov	DWORD PTR [esp], eax
	call	_gg_win32_recv
LVL325:
	cmp	eax, 3
	jle	L369
	.loc 1 702 0 is_stmt 0 discriminator 2
	mov	DWORD PTR [esp], 4
	mov	ecx, esi
	mov	edx, DWORD PTR [ebx]
	mov	eax, OFFSET FLAT:LC42
LVL326:
	call	_gg_dcc_debug_data
LVL327:
LBE46:
	.loc 1 704 0 is_stmt 1 discriminator 2
	mov	eax, DWORD PTR [esp+64]
	mov	DWORD PTR [esp], eax
	call	_gg_fix32
LVL328:
	mov	DWORD PTR [esp+64], eax
	.loc 1 706 0 discriminator 2
	cmp	eax, 2
	je	L220
	cmp	eax, 3
	je	L391
	.loc 1 729 0
	mov	edx, DWORD PTR [ebx+52]
	mov	DWORD PTR [esp+12], edx
	mov	DWORD PTR [esp+8], eax
	mov	DWORD PTR [esp+4], OFFSET FLAT:LC49
	mov	DWORD PTR [esp], 16
	call	_gg_debug
LVL329:
	.loc 1 731 0
	mov	DWORD PTR [ebp+0], 11
	.loc 1 732 0
	mov	DWORD PTR [ebp+4], 5
	jmp	L174
	.p2align 2,,3
L182:
LBB47:
	.loc 1 972 0
	mov	DWORD PTR [esp+4], OFFSET FLAT:LC68
	mov	DWORD PTR [esp], 16
	call	_gg_debug
LVL330:
	.loc 1 974 0
	mov	DWORD PTR [esp+60], 0
LVL331:
	.loc 1 975 0
	lea	eax, [esp+56]
	mov	DWORD PTR [esp+16], eax
	lea	eax, [esp+60]
	mov	DWORD PTR [esp+12], eax
	mov	DWORD PTR [esp+8], 4103
	mov	DWORD PTR [esp+4], 65535
	mov	eax, DWORD PTR [ebx]
	mov	DWORD PTR [esp], eax
	call	_gg_win32_getsockopt
LVL332:
	mov	esi, eax
LVL333:
	mov	eax, DWORD PTR [esp+60]
LVL334:
	test	esi, esi
	jne	L261
	.loc 1 975 0 is_stmt 0 discriminator 1
	test	eax, eax
	je	L262
L261:
	.loc 1 976 0 is_stmt 1
	mov	DWORD PTR [esp], eax
	call	_strerror
LVL335:
	mov	edx, DWORD PTR [esp+60]
	.loc 1 979 0
	mov	DWORD PTR [esp+36], edx
	mov	DWORD PTR [esp+40], eax
	call	__errno
LVL336:
	.loc 1 976 0
	mov	eax, DWORD PTR [eax]
	mov	DWORD PTR [esp], eax
	call	_strerror
LVL337:
	mov	edi, eax
	.loc 1 979 0
	call	__errno
LVL338:
	.loc 1 976 0
	mov	ecx, DWORD PTR [esp+40]
	mov	DWORD PTR [esp+28], ecx
	mov	edx, DWORD PTR [esp+36]
	mov	DWORD PTR [esp+24], edx
	mov	DWORD PTR [esp+20], esi
	mov	DWORD PTR [esp+16], edi
	mov	eax, DWORD PTR [eax]
	mov	DWORD PTR [esp+12], eax
	mov	eax, DWORD PTR [ebx]
	mov	DWORD PTR [esp+8], eax
	mov	DWORD PTR [esp+4], OFFSET FLAT:LC69
	mov	DWORD PTR [esp], 16
	call	_gg_debug
LVL339:
	.loc 1 980 0
	mov	DWORD PTR [ebp+0], 11
	.loc 1 981 0
	mov	DWORD PTR [ebp+4], 5
	jmp	L174
LVL340:
L186:
LBE47:
	.loc 1 738 0
	mov	DWORD PTR [esp+4], OFFSET FLAT:LC50
	mov	DWORD PTR [esp], 16
	call	_gg_debug
LVL341:
LBB49:
	.loc 1 740 0
	mov	DWORD PTR [esp+12], 0
	mov	DWORD PTR [esp+8], 4
	lea	esi, [esp+64]
	mov	DWORD PTR [esp+4], esi
	mov	eax, DWORD PTR [ebx]
	mov	DWORD PTR [esp], eax
	call	_gg_win32_recv
LVL342:
	cmp	eax, 3
	jle	L369
	.loc 1 740 0 is_stmt 0 discriminator 2
	mov	DWORD PTR [esp], 4
	mov	ecx, esi
	mov	edx, DWORD PTR [ebx]
	mov	eax, OFFSET FLAT:LC42
LVL343:
	call	_gg_dcc_debug_data
LVL344:
LBE49:
	.loc 1 742 0 is_stmt 1 discriminator 2
	mov	eax, DWORD PTR [esp+64]
	mov	DWORD PTR [esp], eax
	call	_gg_fix32
LVL345:
	mov	DWORD PTR [esp+64], eax
	.loc 1 744 0 discriminator 2
	cmp	eax, 1
	je	L227
	cmp	eax, 3
	je	L392
	.loc 1 763 0
	mov	edx, DWORD PTR [ebx+52]
	mov	DWORD PTR [esp+12], edx
	mov	DWORD PTR [esp+8], eax
	mov	DWORD PTR [esp+4], OFFSET FLAT:LC53
	mov	DWORD PTR [esp], 16
	call	_gg_debug
LVL346:
	.loc 1 766 0
	mov	DWORD PTR [ebp+0], 11
	.loc 1 767 0
	mov	DWORD PTR [ebp+4], 5
	jmp	L174
	.p2align 2,,3
L354:
LBB50:
	.loc 1 1113 0 discriminator 1
	mov	DWORD PTR [esp+4], OFFSET FLAT:LC40
	mov	DWORD PTR [esp], 16
	call	_gg_debug
LVL347:
	jmp	L346
	.p2align 2,,3
L363:
LBE50:
LBB51:
	.loc 1 1074 0 discriminator 1
	cmp	eax, -1
	je	L356
	.loc 1 1074 0 is_stmt 0 discriminator 2
	mov	DWORD PTR [esp+12], eax
	mov	DWORD PTR [esp+8], 4
	mov	DWORD PTR [esp+4], OFFSET FLAT:LC45
	mov	DWORD PTR [esp], 16
	call	_gg_debug
LVL348:
	jmp	L346
LVL349:
	.p2align 2,,3
L356:
LBE51:
LBB52:
	.loc 1 1146 0 is_stmt 1 discriminator 1
	call	__errno
LVL350:
	mov	eax, DWORD PTR [eax]
	mov	DWORD PTR [esp], eax
	call	_strerror
LVL351:
	mov	ebx, eax
	call	__errno
LVL352:
	mov	DWORD PTR [esp+12], ebx
	mov	eax, DWORD PTR [eax]
	mov	DWORD PTR [esp+8], eax
	mov	DWORD PTR [esp+4], OFFSET FLAT:LC44
	mov	DWORD PTR [esp], 16
	call	_gg_debug
LVL353:
	jmp	L346
LVL354:
	.p2align 2,,3
L379:
LBE52:
LBE67:
LBB68:
	.loc 1 606 0
	call	__errno
LVL355:
	.loc 1 604 0
	mov	eax, DWORD PTR [eax]
	mov	DWORD PTR [esp], eax
	call	_strerror
LVL356:
	mov	ebx, eax
	.loc 1 606 0
	call	__errno
LVL357:
	.loc 1 604 0
	mov	DWORD PTR [esp+12], ebx
	mov	eax, DWORD PTR [eax]
	mov	DWORD PTR [esp+8], eax
	mov	DWORD PTR [esp+4], OFFSET FLAT:LC34
	mov	DWORD PTR [esp], 16
	call	_gg_debug
LVL358:
	jmp	L174
LVL359:
	.p2align 2,,3
L371:
LBE68:
LBB69:
LBB53:
	.loc 1 1113 0 discriminator 1
	cmp	eax, -1
	je	L355
	.loc 1 1113 0 is_stmt 0 discriminator 2
	test	eax, eax
	je	L354
	mov	DWORD PTR [esp+12], 1
	mov	DWORD PTR [esp+8], eax
	mov	DWORD PTR [esp+4], OFFSET FLAT:LC41
	mov	DWORD PTR [esp], 16
	call	_gg_debug
LVL360:
	jmp	L346
	.p2align 2,,3
L352:
LBE53:
	.loc 1 1284 0 is_stmt 1
	mov	DWORD PTR [esp+4], OFFSET FLAT:LC83
	mov	DWORD PTR [esp], 16
	call	_gg_debug
LVL361:
	.loc 1 1285 0
	mov	DWORD PTR [ebp+0], 12
	jmp	L174
	.p2align 2,,3
L355:
LBB54:
	.loc 1 1113 0 discriminator 1
	call	__errno
LVL362:
	mov	eax, DWORD PTR [eax]
	mov	DWORD PTR [esp], eax
	call	_strerror
LVL363:
	mov	ebx, eax
	call	__errno
LVL364:
	mov	DWORD PTR [esp+12], ebx
	mov	eax, DWORD PTR [eax]
	mov	DWORD PTR [esp+8], eax
	mov	DWORD PTR [esp+4], OFFSET FLAT:LC39
	mov	DWORD PTR [esp], 16
	call	_gg_debug
LVL365:
	jmp	L346
L283:
LBE54:
	.loc 1 1072 0
	mov	DWORD PTR [esp], 1
	call	_gg_fix32
LVL366:
	mov	DWORD PTR [esp+64], eax
LBB55:
	.loc 1 1074 0
	lea	esi, [esp+64]
	mov	DWORD PTR [esp], 4
	mov	ecx, esi
	mov	edx, DWORD PTR [ebx]
	mov	eax, OFFSET FLAT:LC30
	call	_gg_dcc_debug_data
LVL367:
	mov	DWORD PTR [esp+12], 0
	mov	DWORD PTR [esp+8], 4
	mov	DWORD PTR [esp+4], esi
	mov	eax, DWORD PTR [ebx]
	mov	DWORD PTR [esp], eax
	call	_gg_win32_send
LVL368:
	cmp	eax, 3
	jle	L363
LBE55:
	.loc 1 1076 0
	mov	DWORD PTR [esp], 3
	call	_gg_fix32
LVL369:
	mov	DWORD PTR [esp+107], eax
	.loc 1 1077 0
	mov	DWORD PTR [esp+111], 0
	.loc 1 1078 0
	mov	DWORD PTR [esp+115], 0
	.loc 1 1080 0
	lea	edi, [esp+119]
	lea	esi, [ebx+72]
	mov	ecx, 80
	rep movsd
	.loc 1 1083 0
	mov	eax, DWORD PTR [ebx+104]
	mov	DWORD PTR [esp], eax
	call	_gg_fix32
LVL370:
	mov	DWORD PTR [ebx+104], eax
	.loc 1 1084 0
	mov	eax, DWORD PTR [ebx+72]
	mov	DWORD PTR [esp], eax
	call	_gg_fix32
LVL371:
	mov	DWORD PTR [ebx+72], eax
LBB56:
	.loc 1 1086 0
	lea	esi, [esp+107]
	mov	DWORD PTR [esp], 332
	mov	ecx, esi
	mov	edx, DWORD PTR [ebx]
	mov	eax, OFFSET FLAT:LC30
	call	_gg_dcc_debug_data
LVL372:
	mov	DWORD PTR [esp+12], 0
	mov	DWORD PTR [esp+8], 332
	mov	DWORD PTR [esp+4], esi
	mov	eax, DWORD PTR [ebx]
	mov	DWORD PTR [esp], eax
	call	_gg_win32_send
LVL373:
	cmp	eax, 331
	jg	L287
	.loc 1 1086 0 is_stmt 0 discriminator 1
	cmp	eax, -1
	je	L356
	.loc 1 1086 0 discriminator 2
	mov	DWORD PTR [esp+12], eax
	mov	DWORD PTR [esp+8], 332
	mov	DWORD PTR [esp+4], OFFSET FLAT:LC45
	mov	DWORD PTR [esp], 16
	call	_gg_debug
LVL374:
	jmp	L346
L299:
LBE56:
	.loc 1 1141 0 is_stmt 1
	mov	DWORD PTR [esp], 2
	call	_gg_fix32
LVL375:
	mov	DWORD PTR [esp+68], eax
	jmp	L300
LVL376:
L386:
	.loc 1 938 0
	inc	esi
LVL377:
	je	L393
	.loc 1 943 0
	mov	DWORD PTR [esp+4], OFFSET FLAT:LC40
	mov	DWORD PTR [esp], 16
	call	_gg_debug
LVL378:
L351:
	.loc 1 1325 0
	mov	DWORD PTR [ebp+0], 11
	.loc 1 1326 0
	mov	DWORD PTR [ebp+4], 8
	jmp	L174
LVL379:
L205:
LBB57:
LBB38:
	.loc 1 670 0 discriminator 2
	mov	DWORD PTR [esp], 4
	mov	ecx, esi
	mov	edx, DWORD PTR [ebx]
	mov	eax, OFFSET FLAT:LC42
LVL380:
	call	_gg_dcc_debug_data
LVL381:
LBE38:
	.loc 1 672 0 discriminator 2
	cmp	DWORD PTR [ebx+8], 15
	je	L394
	.loc 1 678 0
	mov	DWORD PTR [ebx+8], 17
	.loc 1 679 0
	mov	DWORD PTR [ebx+4], 1
	.loc 1 680 0
	mov	DWORD PTR [ebx+24], 30
LVL382:
	.loc 1 681 0
	mov	eax, DWORD PTR [esp+60]
	mov	DWORD PTR [esp], eax
	call	_gg_fix32
LVL383:
	mov	DWORD PTR [ebx+48], eax
	.loc 1 682 0
	mov	DWORD PTR [ebp+0], 13
	jmp	L174
LVL384:
L388:
LBE57:
	.loc 1 1167 0
	mov	DWORD PTR [esp+4], OFFSET FLAT:LC82
	mov	DWORD PTR [esp], 16
	call	_gg_debug
LVL385:
	.loc 1 1170 0
	mov	DWORD PTR [ebp+0], 12
	jmp	L174
LVL386:
L233:
	.loc 1 799 0
	mov	DWORD PTR [ebx+8], 27
	.loc 1 800 0
	mov	DWORD PTR [ebx+64], 12
	.loc 1 801 0
	mov	DWORD PTR [ebx+68], 0
	.loc 1 802 0
	mov	DWORD PTR [esp], 12
	call	_malloc
LVL387:
	mov	DWORD PTR [ebx+404], eax
	test	eax, eax
	jne	L348
L347:
	.loc 1 1346 0
	mov	DWORD PTR [esp+4], OFFSET FLAT:LC56
L350:
	mov	DWORD PTR [esp], 16
	call	_gg_debug
LVL388:
	.loc 1 1347 0
	mov	DWORD PTR [esp], ebp
	call	_free
LVL389:
	.loc 1 1348 0
	xor	ebp, ebp
LVL390:
	jmp	L174
LVL391:
	.p2align 2,,3
L290:
LBB58:
	.loc 1 1097 0 discriminator 2
	mov	DWORD PTR [esp], 12
	mov	ecx, esi
	mov	edx, DWORD PTR [ebx]
	mov	eax, OFFSET FLAT:LC42
LVL392:
	call	_gg_dcc_debug_data
LVL393:
LBE58:
	.loc 1 1100 0 discriminator 2
	mov	eax, DWORD PTR [esp+72]
	mov	DWORD PTR [esp], eax
	call	_gg_fix32
LVL394:
	mov	DWORD PTR [ebx+60], eax
	.loc 1 1102 0 discriminator 2
	mov	DWORD PTR [ebx+8], 26
	.loc 1 1103 0 discriminator 2
	mov	DWORD PTR [ebx+4], 1
	.loc 1 1104 0 discriminator 2
	mov	DWORD PTR [ebx+24], 30
	.loc 1 1106 0 discriminator 2
	mov	DWORD PTR [ebp+0], 27
	jmp	L174
LVL395:
L229:
LBB59:
	.loc 1 775 0 discriminator 2
	mov	DWORD PTR [esp], 332
	mov	ecx, esi
	mov	edx, DWORD PTR [ebx]
	mov	eax, OFFSET FLAT:LC42
LVL396:
	call	_gg_dcc_debug_data
LVL397:
LBE59:
	.loc 1 777 0 discriminator 2
	lea	edi, [ebx+72]
	lea	esi, [esp+119]
	mov	ecx, 80
	rep movsd
	.loc 1 779 0 discriminator 2
	mov	eax, DWORD PTR [ebx+72]
	mov	DWORD PTR [esp], eax
	call	_gg_fix32
LVL398:
	mov	DWORD PTR [ebx+72], eax
	.loc 1 780 0 discriminator 2
	mov	eax, DWORD PTR [ebx+104]
	mov	DWORD PTR [esp], eax
	call	_gg_fix32
LVL399:
	mov	DWORD PTR [ebx+104], eax
	.loc 1 782 0 discriminator 2
	mov	DWORD PTR [ebx+8], 24
	.loc 1 783 0 discriminator 2
	mov	DWORD PTR [ebx+4], 1
	.loc 1 784 0 discriminator 2
	mov	DWORD PTR [ebx+24], 300
	.loc 1 786 0 discriminator 2
	mov	DWORD PTR [ebp+0], 16
	jmp	L174
LVL400:
L383:
	.loc 1 834 0
	call	__errno
LVL401:
	.loc 1 833 0
	mov	eax, DWORD PTR [eax]
	mov	DWORD PTR [esp], eax
	call	_strerror
LVL402:
	mov	ebx, eax
	.loc 1 834 0
	call	__errno
LVL403:
	.loc 1 833 0
	mov	DWORD PTR [esp+12], ebx
	mov	eax, DWORD PTR [eax]
	mov	DWORD PTR [esp+8], eax
	mov	DWORD PTR [esp+4], OFFSET FLAT:LC39
	mov	DWORD PTR [esp], 16
	call	_gg_debug
LVL404:
	.loc 1 835 0
	mov	DWORD PTR [ebp+0], 11
	.loc 1 836 0
	mov	DWORD PTR [ebp+4], 8
	jmp	L174
LVL405:
L382:
	.loc 1 1035 0 discriminator 1
	mov	DWORD PTR [esp], 3
	call	_gg_fix32
LVL406:
	jmp	L276
LVL407:
L387:
LBB60:
	.loc 1 817 0 discriminator 1
	cmp	eax, -1
	je	L356
	.loc 1 817 0 is_stmt 0 discriminator 2
	mov	DWORD PTR [esp+12], eax
	mov	DWORD PTR [esp+8], 1
	mov	DWORD PTR [esp+4], OFFSET FLAT:LC45
	mov	DWORD PTR [esp], 16
	call	_gg_debug
LVL408:
	jmp	L346
L298:
LBE60:
	.loc 1 1124 0 is_stmt 1
	mov	DWORD PTR [ebx+8], 31
	.loc 1 1125 0
	mov	DWORD PTR [ebx+4], 2
	.loc 1 1126 0
	mov	DWORD PTR [ebx+24], 30
	.loc 1 1128 0
	mov	DWORD PTR [ebp+0], 27
	jmp	L174
LVL409:
L320:
	.loc 1 1317 0
	mov	DWORD PTR [esp+8], esi
	mov	DWORD PTR [esp+4], edi
	mov	eax, DWORD PTR [ebx+56]
	mov	DWORD PTR [esp], eax
	call	__write
LVL410:
	mov	edi, eax
LVL411:
	.loc 1 1319 0
	cmp	eax, -1
	je	L321
	.loc 1 1319 0 is_stmt 0 discriminator 1
	cmp	esi, eax
	jg	L321
	.loc 1 1330 0 is_stmt 1
	mov	eax, DWORD PTR [ebx+60]
LVL412:
	add	eax, esi
	mov	DWORD PTR [ebx+60], eax
	.loc 1 1332 0
	cmp	eax, DWORD PTR [ebx+104]
	jae	L349
	.loc 1 1337 0
	add	esi, DWORD PTR [ebx+68]
LVL413:
	mov	DWORD PTR [ebx+68], esi
	.loc 1 1339 0
	cmp	esi, DWORD PTR [ebx+64]
	jae	L395
	.loc 1 1351 0
	mov	DWORD PTR [ebx+8], 28
	.loc 1 1352 0
	mov	DWORD PTR [ebx+24], 1800
L325:
	.loc 1 1355 0
	mov	DWORD PTR [ebx+4], 2
	jmp	L174
LVL414:
L262:
LBB61:
	.loc 1 985 0
	mov	DWORD PTR [esp+4], OFFSET FLAT:LC70
	mov	DWORD PTR [esp], 16
	call	_gg_debug
LVL415:
	.loc 1 987 0
	mov	eax, DWORD PTR [ebx+48]
	mov	DWORD PTR [esp], eax
	call	_gg_fix32
LVL416:
	mov	DWORD PTR [esp+80], eax
	.loc 1 988 0
	mov	eax, DWORD PTR [ebx+52]
	mov	DWORD PTR [esp], eax
	call	_gg_fix32
LVL417:
	mov	DWORD PTR [esp+84], eax
LBB48:
	.loc 1 990 0
	lea	esi, [esp+80]
LVL418:
	mov	DWORD PTR [esp], 8
	mov	ecx, esi
	mov	edx, DWORD PTR [ebx]
	mov	eax, OFFSET FLAT:LC30
	call	_gg_dcc_debug_data
LVL419:
	mov	DWORD PTR [esp+12], 0
	mov	DWORD PTR [esp+8], 8
	mov	DWORD PTR [esp+4], esi
	mov	eax, DWORD PTR [ebx]
	mov	DWORD PTR [esp], eax
	call	_gg_win32_send
LVL420:
	cmp	eax, 7
	jg	L264
	.loc 1 990 0 is_stmt 0 discriminator 1
	cmp	eax, -1
	je	L356
	.loc 1 990 0 discriminator 2
	mov	DWORD PTR [esp+12], eax
	mov	DWORD PTR [esp+8], 8
	mov	DWORD PTR [esp+4], OFFSET FLAT:LC45
	mov	DWORD PTR [esp], 16
	call	_gg_debug
LVL421:
	jmp	L346
LVL422:
L375:
LBE48:
LBE61:
LBE69:
	.loc 1 591 0 is_stmt 1
	mov	DWORD PTR [esp+4], OFFSET FLAT:LC33
	mov	DWORD PTR [esp], 16
	call	_gg_debug
LVL423:
	.loc 1 592 0
	jmp	L174
LVL424:
L381:
LBB70:
	.loc 1 625 0
	mov	DWORD PTR [esp+4], OFFSET FLAT:LC37
	mov	DWORD PTR [esp], 16
	call	_gg_debug
LVL425:
	.loc 1 627 0
	mov	DWORD PTR [esp], ebp
	call	_free
LVL426:
	.loc 1 628 0
	mov	DWORD PTR [esp], esi
	call	_gg_win32_close
LVL427:
	.loc 1 629 0
	xor	ebp, ebp
LVL428:
	jmp	L174
LVL429:
L248:
LBE70:
LBB71:
	.loc 1 884 0
	mov	DWORD PTR [ebx+8], 32
	.loc 1 885 0
	mov	DWORD PTR [ebx+4], 2
	.loc 1 886 0
	mov	DWORD PTR [ebx+24], 30
	.loc 1 887 0
	mov	DWORD PTR [ebx+392], 1
	.loc 1 888 0
	jmp	L174
L254:
	.loc 1 918 0
	mov	DWORD PTR [ebx+64], eax
	.loc 1 919 0
	mov	DWORD PTR [ebx+68], 0
	.loc 1 921 0
	mov	DWORD PTR [esp], eax
	call	_malloc
LVL430:
	mov	DWORD PTR [ebx+396], eax
	test	eax, eax
	je	L396
	.loc 1 927 0
	mov	DWORD PTR [ebx+8], 33
	jmp	L348
L393:
	.loc 1 941 0
	call	__errno
LVL431:
	.loc 1 939 0
	mov	eax, DWORD PTR [eax]
	mov	DWORD PTR [esp], eax
	call	_strerror
LVL432:
	mov	ebx, eax
	.loc 1 941 0
	call	__errno
LVL433:
	.loc 1 939 0
	mov	DWORD PTR [esp+12], ebx
	mov	eax, DWORD PTR [eax]
	mov	DWORD PTR [esp+8], eax
	mov	DWORD PTR [esp+4], OFFSET FLAT:LC39
	mov	DWORD PTR [esp], 16
	call	_gg_debug
LVL434:
	jmp	L351
LVL435:
L321:
	.loc 1 1324 0
	call	__errno
LVL436:
	.loc 1 1320 0
	mov	eax, DWORD PTR [eax]
	mov	DWORD PTR [esp], eax
	call	_strerror
LVL437:
	mov	DWORD PTR [esp+20], eax
	mov	DWORD PTR [esp+16], esi
	mov	eax, DWORD PTR [ebx+56]
	mov	DWORD PTR [esp+12], eax
	mov	DWORD PTR [esp+8], edi
	mov	DWORD PTR [esp+4], OFFSET FLAT:LC96
	mov	DWORD PTR [esp], 16
	call	_gg_debug
LVL438:
	jmp	L351
LVL439:
L281:
	.loc 1 1041 0
	mov	DWORD PTR [ebx+8], 19
	.loc 1 1042 0
	mov	DWORD PTR [ebx+4], 2
	.loc 1 1043 0
	mov	DWORD PTR [ebx+24], 30
	.loc 1 1044 0
	jmp	L174
L280:
	.loc 1 1047 0
	mov	DWORD PTR [ebx+8], 21
	.loc 1 1048 0
	mov	DWORD PTR [ebx+4], 1
	.loc 1 1049 0
	mov	DWORD PTR [ebx+24], 30
	.loc 1 1051 0
	cmp	DWORD PTR [ebx+56], -1
	jne	L174
	jmp	L353
LVL440:
L264:
LBB62:
	.loc 1 992 0
	mov	DWORD PTR [ebx+8], 18
	.loc 1 993 0
	mov	DWORD PTR [ebx+4], 2
	.loc 1 994 0
	mov	DWORD PTR [ebx+24], 30
	jmp	L174
LVL441:
L306:
LBE62:
	.loc 1 1193 0
	sub	edi, esi
LVL442:
	cmp	edi, 1024
	jbe	L307
	mov	edi, 1024
L307:
	mov	DWORD PTR [esp+8], edi
	lea	esi, [esp+444]
	mov	DWORD PTR [esp+4], esi
	mov	eax, DWORD PTR [ebx+56]
	mov	DWORD PTR [esp], eax
	call	__read
LVL443:
	.loc 1 1196 0
	cmp	eax, -1
	je	L397
	.loc 1 1209 0
	test	eax, eax
	je	L398
	.loc 1 1218 0
	mov	ecx, DWORD PTR [ebx+60]
	mov	edx, eax
	mov	edi, DWORD PTR [ebx+104]
	mov	DWORD PTR [esp+32], edi
	lea	edi, [eax+ecx]
	mov	DWORD PTR [esp+44], edi
	mov	edi, DWORD PTR [esp+32]
	cmp	DWORD PTR [esp+44], edi
	jbe	L310
	.loc 1 1219 0
	mov	DWORD PTR [esp+16], edi
	mov	DWORD PTR [esp+12], ecx
	mov	DWORD PTR [esp+8], eax
	mov	DWORD PTR [esp+4], OFFSET FLAT:LC87
	mov	DWORD PTR [esp], 16
	call	_gg_debug
LVL444:
	.loc 1 1224 0
	mov	edx, DWORD PTR [ebx+104]
	sub	edx, DWORD PTR [ebx+60]
LVL445:
	.loc 1 1226 0
	test	edx, edx
	jle	L399
L310:
LVL446:
	.loc 1 1235 0
	mov	DWORD PTR [esp+12], 0
	mov	DWORD PTR [esp+8], edx
	mov	DWORD PTR [esp+4], esi
	mov	eax, DWORD PTR [ebx]
	mov	DWORD PTR [esp], eax
	call	_gg_win32_send
LVL447:
	.loc 1 1237 0
	cmp	eax, -1
	je	L400
	.loc 1 1246 0
	test	eax, eax
	je	L401
	.loc 1 1255 0
	mov	edx, DWORD PTR [ebx+60]
	add	edx, eax
	mov	DWORD PTR [ebx+60], edx
	.loc 1 1257 0
	cmp	edx, DWORD PTR [ebx+104]
	jae	L349
	.loc 1 1262 0
	add	eax, DWORD PTR [ebx+68]
LVL448:
	mov	DWORD PTR [ebx+68], eax
	.loc 1 1264 0
	cmp	eax, DWORD PTR [ebx+64]
	jae	L402
	.loc 1 1269 0
	mov	DWORD PTR [ebx+8], 29
	.loc 1 1270 0
	mov	DWORD PTR [ebx+24], 1800
L316:
	.loc 1 1273 0
	mov	DWORD PTR [ebx+4], 1
	jmp	L174
L392:
	.loc 1 753 0
	mov	DWORD PTR [esp+4], OFFSET FLAT:LC52
	mov	DWORD PTR [esp], 16
	call	_gg_debug
LVL449:
	.loc 1 754 0
	mov	DWORD PTR [ebx+8], 34
	.loc 1 755 0
	mov	DWORD PTR [ebx+4], 1
	.loc 1 756 0
	mov	DWORD PTR [ebx+24], 300
	.loc 1 757 0
	mov	DWORD PTR [ebx+16], 12
	.loc 1 758 0
	mov	DWORD PTR [ebp+0], 17
	.loc 1 760 0
	jmp	L174
L391:
	.loc 1 708 0
	mov	DWORD PTR [esp+4], OFFSET FLAT:LC47
	mov	DWORD PTR [esp], 16
	call	_gg_debug
LVL450:
	.loc 1 709 0
	mov	DWORD PTR [ebx+16], 10
	.loc 1 710 0
	mov	DWORD PTR [ebx+8], 21
	.loc 1 711 0
	mov	DWORD PTR [ebx+4], 1
	.loc 1 712 0
	mov	DWORD PTR [ebx+24], 30
	.loc 1 714 0
	mov	DWORD PTR [ebp+0], 14
	.loc 1 716 0
	jmp	L174
L220:
	.loc 1 719 0
	mov	DWORD PTR [esp+4], OFFSET FLAT:LC48
	mov	DWORD PTR [esp], 16
	call	_gg_debug
LVL451:
	.loc 1 720 0
	mov	DWORD PTR [ebx+16], 11
	.loc 1 721 0
	mov	DWORD PTR [ebx+8], 19
	.loc 1 722 0
	mov	DWORD PTR [ebx+4], 2
	.loc 1 723 0
	mov	DWORD PTR [ebx+24], 30
	.loc 1 724 0
	mov	DWORD PTR [ebx+400], 1
	.loc 1 726 0
	jmp	L174
L227:
	.loc 1 746 0
	mov	DWORD PTR [esp+4], OFFSET FLAT:LC51
	mov	DWORD PTR [esp], 16
	call	_gg_debug
LVL452:
	.loc 1 747 0
	mov	DWORD PTR [ebx+8], 23
	.loc 1 748 0
	mov	DWORD PTR [ebx+4], 2
	.loc 1 749 0
	mov	DWORD PTR [ebx+24], 30
	.loc 1 750 0
	jmp	L174
L390:
	.loc 1 1005 0
	mov	DWORD PTR [esp+4], OFFSET FLAT:LC72
	mov	DWORD PTR [esp], 16
	call	_gg_debug
LVL453:
	.loc 1 1007 0
	mov	DWORD PTR [ebp+0], 11
	.loc 1 1008 0
	mov	DWORD PTR [ebp+4], 5
	jmp	L174
L394:
LBB63:
	.loc 1 673 0
	mov	DWORD PTR [ebx+8], 16
	.loc 1 674 0
	mov	DWORD PTR [ebx+4], 2
	.loc 1 675 0
	mov	DWORD PTR [ebx+24], 30
LVL454:
	.loc 1 676 0
	mov	eax, DWORD PTR [esp+60]
	mov	DWORD PTR [esp], eax
	call	_gg_fix32
LVL455:
	mov	DWORD PTR [ebx+52], eax
	jmp	L174
LVL456:
L287:
LBE63:
	.loc 1 1088 0
	mov	DWORD PTR [ebx+8], 25
	.loc 1 1089 0
	mov	DWORD PTR [ebx+4], 2
	.loc 1 1090 0
	mov	DWORD PTR [ebx+24], 300
	jmp	L174
LVL457:
L389:
	.loc 1 1300 0
	call	__errno
LVL458:
	.loc 1 1297 0
	mov	eax, DWORD PTR [eax]
	mov	DWORD PTR [esp], eax
	call	_strerror
LVL459:
	mov	ebx, eax
	.loc 1 1300 0
	call	__errno
LVL460:
	.loc 1 1297 0
	mov	DWORD PTR [esp+12], ebx
	mov	eax, DWORD PTR [eax]
	mov	DWORD PTR [esp+8], eax
	mov	DWORD PTR [esp+4], OFFSET FLAT:LC94
	mov	DWORD PTR [esp], 16
	call	_gg_debug
LVL461:
	.loc 1 1302 0
	mov	DWORD PTR [ebp+0], 11
	.loc 1 1303 0
	mov	DWORD PTR [ebp+4], 8
	jmp	L174
LVL462:
L349:
	.loc 1 1333 0
	mov	DWORD PTR [ebp+0], 12
	jmp	L174
L385:
	.loc 1 865 0
	mov	DWORD PTR [esp+4], OFFSET FLAT:LC60
	mov	DWORD PTR [esp], 16
	call	_gg_debug
LVL463:
	.loc 1 866 0
	mov	DWORD PTR [ebp+0], 12
	jmp	L174
L384:
	.loc 1 858 0
	mov	DWORD PTR [esp+4], OFFSET FLAT:LC59
	mov	DWORD PTR [esp], 16
	call	_gg_debug
LVL464:
	.loc 1 859 0
	mov	DWORD PTR [ebp+0], 11
	.loc 1 860 0
	mov	DWORD PTR [ebp+4], 9
	jmp	L174
LVL465:
L398:
	.loc 1 1210 0
	mov	DWORD PTR [esp+4], OFFSET FLAT:LC86
	mov	DWORD PTR [esp], 16
	call	_gg_debug
LVL466:
	.loc 1 1211 0
	mov	DWORD PTR [ebp+0], 11
	.loc 1 1212 0
	mov	DWORD PTR [ebp+4], 7
	jmp	L174
LVL467:
L378:
LBE71:
	.loc 1 1369 0
	call	___stack_chk_fail
LVL468:
L395:
LBB72:
	.loc 1 1340 0
	mov	DWORD PTR [esp+4], OFFSET FLAT:LC91
	mov	DWORD PTR [esp], 16
	call	_gg_debug
LVL469:
	.loc 1 1341 0
	mov	DWORD PTR [ebx+8], 27
	.loc 1 1342 0
	mov	DWORD PTR [ebx+24], 30
	.loc 1 1343 0
	mov	DWORD PTR [ebx+68], 0
	.loc 1 1344 0
	mov	DWORD PTR [ebx+64], 12
	.loc 1 1345 0
	mov	DWORD PTR [esp], 12
	call	_malloc
LVL470:
	mov	DWORD PTR [ebx+404], eax
	test	eax, eax
	jne	L325
	jmp	L347
LVL471:
L397:
	.loc 1 1200 0
	call	__errno
LVL472:
	.loc 1 1197 0
	mov	eax, DWORD PTR [eax]
	mov	DWORD PTR [esp], eax
	call	_strerror
LVL473:
	mov	ebx, eax
	.loc 1 1200 0
	call	__errno
LVL474:
	.loc 1 1197 0
	mov	DWORD PTR [esp+12], ebx
	mov	eax, DWORD PTR [eax]
	mov	DWORD PTR [esp+8], eax
	mov	DWORD PTR [esp+4], OFFSET FLAT:LC85
	mov	DWORD PTR [esp], 16
	call	_gg_debug
LVL475:
	.loc 1 1202 0
	mov	DWORD PTR [ebp+0], 11
	.loc 1 1203 0
	mov	DWORD PTR [ebp+4], 6
	jmp	L174
LVL476:
L401:
	.loc 1 1247 0
	mov	DWORD PTR [esp+4], OFFSET FLAT:LC90
	mov	DWORD PTR [esp], 16
	call	_gg_debug
LVL477:
	.loc 1 1250 0
	mov	DWORD PTR [ebp+0], 11
	.loc 1 1251 0
	mov	DWORD PTR [ebp+4], 8
	jmp	L174
LVL478:
L400:
	.loc 1 1240 0
	call	__errno
LVL479:
	.loc 1 1238 0
	mov	eax, DWORD PTR [eax]
	mov	DWORD PTR [esp], eax
	call	_strerror
LVL480:
	mov	DWORD PTR [esp+8], eax
	mov	DWORD PTR [esp+4], OFFSET FLAT:LC89
	mov	DWORD PTR [esp], 16
	call	_gg_debug
LVL481:
	.loc 1 1241 0
	mov	DWORD PTR [ebp+0], 11
	.loc 1 1242 0
	mov	DWORD PTR [ebp+4], 8
	jmp	L174
L396:
	.loc 1 922 0
	mov	DWORD PTR [esp+4], OFFSET FLAT:LC66
	jmp	L350
L402:
	.loc 1 1265 0
	mov	DWORD PTR [esp+4], OFFSET FLAT:LC91
	mov	DWORD PTR [esp], 16
	call	_gg_debug
LVL482:
	.loc 1 1266 0
	mov	DWORD PTR [ebx+8], 26
	.loc 1 1267 0
	mov	DWORD PTR [ebx+24], 30
	jmp	L316
LVL483:
L399:
	.loc 1 1227 0
	mov	DWORD PTR [esp+4], OFFSET FLAT:LC88
	mov	DWORD PTR [esp], 16
	call	_gg_debug
LVL484:
	.loc 1 1230 0
	mov	DWORD PTR [ebp+0], 12
	jmp	L174
LBE72:
	.cfi_endproc
LFE73:
	.p2align 2,,3
	.def	_gg_dcc_callback;	.scl	3;	.type	32;	.endef
_gg_dcc_callback:
LFB70:
	.loc 1 363 0
	.cfi_startproc
LVL485:
	push	ebx
LCFI127:
	.cfi_def_cfa_offset 8
	.cfi_offset 3, -8
	sub	esp, 40
LCFI128:
	.cfi_def_cfa_offset 48
	mov	ebx, DWORD PTR [esp+48]
	.loc 1 363 0
	mov	eax, DWORD PTR ___stack_chk_guard
	mov	DWORD PTR [esp+28], eax
	xor	eax, eax
	.loc 1 364 0
	mov	DWORD PTR [esp], ebx
	call	_gg_dcc_watch_fd
LVL486:
	.loc 1 366 0
	mov	DWORD PTR [ebx+36], eax
	.loc 1 368 0
	cmp	eax, 1
	sbb	eax, eax
LVL487:
	.loc 1 369 0
	mov	edx, DWORD PTR [esp+28]
	xor	edx, DWORD PTR ___stack_chk_guard
	jne	L408
	add	esp, 40
LCFI129:
	.cfi_remember_state
	.cfi_def_cfa_offset 8
	pop	ebx
LCFI130:
	.cfi_restore 3
	.cfi_def_cfa_offset 4
LVL488:
	ret
LVL489:
L408:
LCFI131:
	.cfi_restore_state
	call	___stack_chk_fail
LVL490:
	.cfi_endproc
LFE70:
Letext0:
	.file 3 "c:/workspace/pidgin-devel/win32-dev/mingw-4.7.2/bin/../lib/gcc/mingw32/4.7.2/include/stddef.h"
	.file 4 "c:/workspace/pidgin-devel/win32-dev/mingw-4.7.2/bin/../lib/gcc/mingw32/4.7.2/../../../../include/sys/types.h"
	.file 5 "c:/workspace/pidgin-devel/win32-dev/mingw-4.7.2/bin/../lib/gcc/mingw32/4.7.2/../../../../include/sys/stat.h"
	.file 6 "c:/workspace/pidgin-devel/win32-dev/mingw-4.7.2/bin/../lib/gcc/mingw32/4.7.2/../../../../include/winsock2.h"
	.file 7 "c:/workspace/pidgin-devel/win32-dev/mingw-4.7.2/bin/../lib/gcc/mingw32/4.7.2/../../../../include/ws2tcpip.h"
	.file 8 "c:/workspace/pidgin-devel/win32-dev/mingw-4.7.2/bin/../lib/gcc/mingw32/4.7.2/../../../../include/stdio.h"
	.file 9 "c:/workspace/pidgin-devel/win32-dev/mingw-4.7.2/bin/../lib/gcc/mingw32/4.7.2/../../../../include/stdint.h"
	.file 10 "lib/libgadu.h"
	.file 11 "lib/internal.h"
	.file 12 "c:/workspace/pidgin-devel/win32-dev/mingw-4.7.2/bin/../lib/gcc/mingw32/4.7.2/../../../../include/stdlib.h"
	.file 13 "c:/workspace/pidgin-devel/win32-dev/mingw-4.7.2/bin/../lib/gcc/mingw32/4.7.2/../../../../include/ctype.h"
	.file 14 "c:/workspace/pidgin-devel/win32-dev/mingw-4.7.2/bin/../lib/gcc/mingw32/4.7.2/../../../../include/io.h"
	.file 15 "lib/debug.h"
	.file 16 "c:/workspace/pidgin-devel/win32-dev/mingw-4.7.2/bin/../lib/gcc/mingw32/4.7.2/../../../../include/string.h"
	.file 17 "c:/workspace/pidgin-devel/win32-dev/mingw-4.7.2/bin/../lib/gcc/mingw32/4.7.2/../../../../include/errno.h"