	.file	"deflate.c"
	.intel_syntax noprefix
	.text
Ltext0:
	.section .rdata,"dr"
LC0:
	.ascii "no error message provided\0"
LC1:
	.ascii "1.2.2\0"
	.align 4
LC2:
	.ascii "// gg_deflate() deflateInit() failed (%d)\12\0"
	.align 4
LC3:
	.ascii "// gg_deflate() not enough memory for output data (%Iu)\12\0"
	.align 4
LC4:
	.ascii "// gg_deflate() deflate() failed (ret=%d, msg=%s)\12\0"
	.text
	.p2align 2,,3
	.globl	_gg_deflate
	.def	_gg_deflate;	.scl	2;	.type	32;	.endef
_gg_deflate:
LFB23:
	.file 1 "lib/deflate.c"
	.loc 1 51 0
	.cfi_startproc
LVL0:
	push	ebp
LCFI0:
	.cfi_def_cfa_offset 8
	.cfi_offset 5, -8
	push	edi
LCFI1:
	.cfi_def_cfa_offset 12
	.cfi_offset 7, -12
	push	esi
LCFI2:
	.cfi_def_cfa_offset 16
	.cfi_offset 6, -16
	push	ebx
LCFI3:
	.cfi_def_cfa_offset 20
	.cfi_offset 3, -20
	sub	esp, 108
LCFI4:
	.cfi_def_cfa_offset 128
	mov	edx, DWORD PTR [esp+128]
	mov	ebp, DWORD PTR [esp+132]
	.loc 1 51 0
	mov	eax, DWORD PTR ___stack_chk_guard
	mov	DWORD PTR [esp+92], eax
	xor	eax, eax
	.loc 1 58 0
	test	edx, edx
	je	L14
	.loc 1 58 0 is_stmt 0 discriminator 1
	test	ebp, ebp
	je	L14
	.loc 1 61 0 is_stmt 1
	mov	DWORD PTR [esp+68], 0
	.loc 1 62 0
	mov	DWORD PTR [esp+72], 0
	.loc 1 63 0
	mov	DWORD PTR [esp+76], 0
	.loc 1 64 0
	mov	ecx, -1
	mov	edi, edx
	repne scasb
LVL1:
	not	ecx
	dec	ecx
	mov	DWORD PTR [esp+40], ecx
	.loc 1 65 0
	mov	DWORD PTR [esp+36], edx
	.loc 1 67 0
	mov	DWORD PTR [esp+12], 56
	mov	DWORD PTR [esp+8], OFFSET FLAT:LC1
	mov	DWORD PTR [esp+4], 9
	lea	edi, [esp+36]
	mov	DWORD PTR [esp], edi
	call	_deflateInit_
LVL2:
	.loc 1 68 0
	test	eax, eax
	jne	L18
	.loc 1 73 0
	mov	eax, DWORD PTR [esp+40]
LVL3:
	mov	DWORD PTR [esp+4], eax
	mov	DWORD PTR [esp], edi
	call	_deflateBound
LVL4:
	mov	ebx, eax
LVL5:
	.loc 1 74 0
	mov	DWORD PTR [esp], eax
	call	_malloc
LVL6:
	mov	esi, eax
LVL7:
	.loc 1 76 0
	test	eax, eax
	je	L16
	.loc 1 82 0
	mov	DWORD PTR [esp+52], ebx
	.loc 1 83 0
	mov	DWORD PTR [esp+48], eax
	jmp	L9
LVL8:
	.p2align 2,,3
L19:
	.loc 1 93 0
	test	eax, eax
	jne	L7
	.loc 1 94 0
	sal	ebx
LVL9:
	.loc 1 95 0
	mov	DWORD PTR [esp+4], ebx
	mov	DWORD PTR [esp], esi
	call	_realloc
LVL10:
	.loc 1 97 0
	test	eax, eax
	je	L16
LVL11:
	.loc 1 106 0
	mov	edx, ebx
	shr	edx
	mov	DWORD PTR [esp+52], edx
	.loc 1 107 0
	add	edx, eax
	mov	DWORD PTR [esp+48], edx
	mov	esi, eax
LVL12:
L9:
	.loc 1 86 0
	mov	DWORD PTR [esp+4], 4
	mov	DWORD PTR [esp], edi
	call	_deflate
LVL13:
	.loc 1 88 0
	cmp	eax, 1
	jne	L19
	.loc 1 117 0
	mov	edx, DWORD PTR [esp+56]
LVL14:
	.loc 1 118 0
	mov	DWORD PTR [esp+4], edx
	mov	DWORD PTR [esp], esi
	mov	DWORD PTR [esp+28], edx
	call	_realloc
LVL15:
	mov	ebx, eax
LVL16:
	.loc 1 120 0
	test	eax, eax
	mov	edx, DWORD PTR [esp+28]
	je	L20
	.loc 1 126 0
	mov	DWORD PTR [ebp+0], edx
	.loc 1 127 0
	mov	DWORD PTR [esp], edi
	call	_deflateEnd
LVL17:
L2:
	.loc 1 137 0
	mov	eax, ebx
	mov	edx, DWORD PTR [esp+92]
	xor	edx, DWORD PTR ___stack_chk_guard
	jne	L21
	add	esp, 108
LCFI5:
	.cfi_remember_state
	.cfi_def_cfa_offset 20
	pop	ebx
LCFI6:
	.cfi_restore 3
	.cfi_def_cfa_offset 16
	pop	esi
LCFI7:
	.cfi_restore 6
	.cfi_def_cfa_offset 12
	pop	edi
LCFI8:
	.cfi_restore 7
	.cfi_def_cfa_offset 8
	pop	ebp
LCFI9:
	.cfi_restore 5
	.cfi_def_cfa_offset 4
	ret
LVL18:
	.p2align 2,,3
L7:
LCFI10:
	.cfi_restore_state
	.loc 1 111 0
	mov	edx, DWORD PTR [esp+60]
	.loc 1 109 0
	test	edx, edx
	je	L22
L10:
	.loc 1 109 0 is_stmt 0 discriminator 3
	mov	DWORD PTR [esp+12], edx
	mov	DWORD PTR [esp+8], eax
	mov	DWORD PTR [esp+4], OFFSET FLAT:LC4
	mov	DWORD PTR [esp], 16
	call	_gg_debug
LVL19:
L5:
	.loc 1 132 0 is_stmt 1
	mov	DWORD PTR [ebp+0], 0
	.loc 1 133 0
	mov	DWORD PTR [esp], edi
	call	_deflateEnd
LVL20:
	.loc 1 134 0
	mov	DWORD PTR [esp], esi
	call	_free
LVL21:
	.loc 1 136 0
	xor	ebx, ebx
	jmp	L2
LVL22:
	.p2align 2,,3
L16:
	.loc 1 98 0
	mov	DWORD PTR [esp+8], ebx
	mov	DWORD PTR [esp+4], OFFSET FLAT:LC3
	mov	DWORD PTR [esp], 16
	call	_gg_debug
LVL23:
	.loc 1 101 0
	jmp	L5
LVL24:
L18:
	.loc 1 69 0
	mov	DWORD PTR [esp+8], eax
	mov	DWORD PTR [esp+4], OFFSET FLAT:LC2
	mov	DWORD PTR [esp], 16
	call	_gg_debug
LVL25:
	.loc 1 70 0
	xor	ebx, ebx
	jmp	L2
LVL26:
L14:
	.loc 1 59 0
	xor	ebx, ebx
	jmp	L2
LVL27:
L22:
	.loc 1 109 0
	mov	edx, OFFSET FLAT:LC0
	jmp	L10
LVL28:
L20:
	.loc 1 121 0
	mov	DWORD PTR [esp+8], edx
	mov	DWORD PTR [esp+4], OFFSET FLAT:LC3
	mov	DWORD PTR [esp], 16
	call	_gg_debug
LVL29:
	.loc 1 123 0
	jmp	L5
LVL30:
L21:
	.loc 1 137 0
	call	___stack_chk_fail
LVL31:
	.cfi_endproc
LFE23:
	.section .rdata,"dr"
	.align 4
LC5:
	.ascii "// gg_inflate() inflateInit() failed (%d)\12\0"
	.align 4
LC6:
	.ascii "// gg_inflate() not enough memory for output data (%Iu)\12\0"
	.align 4
LC7:
	.ascii "// gg_inflate() inflate() failed (ret=%d, msg=%s)\12\0"
	.text
	.p2align 2,,3
	.globl	_gg_inflate
	.def	_gg_inflate;	.scl	2;	.type	32;	.endef
_gg_inflate:
LFB24:
	.loc 1 153 0
	.cfi_startproc
LVL32:
	push	ebp
LCFI11:
	.cfi_def_cfa_offset 8
	.cfi_offset 5, -8
	push	edi
LCFI12:
	.cfi_def_cfa_offset 12
	.cfi_offset 7, -12
	push	esi
LCFI13:
	.cfi_def_cfa_offset 16
	.cfi_offset 6, -16
	push	ebx
LCFI14:
	.cfi_def_cfa_offset 20
	.cfi_offset 3, -20
	sub	esp, 108
LCFI15:
	.cfi_def_cfa_offset 128
	mov	eax, DWORD PTR [esp+128]
	mov	edx, DWORD PTR [esp+132]
	.loc 1 153 0
	mov	ecx, DWORD PTR ___stack_chk_guard
	mov	DWORD PTR [esp+92], ecx
	xor	ecx, ecx
LVL33:
	.loc 1 161 0
	test	eax, eax
	je	L34
	.loc 1 164 0
	mov	DWORD PTR [esp+68], 0
	.loc 1 165 0
	mov	DWORD PTR [esp+72], 0
	.loc 1 166 0
	mov	DWORD PTR [esp+76], 0
	.loc 1 167 0
	mov	DWORD PTR [esp+40], edx
	.loc 1 168 0
	mov	DWORD PTR [esp+36], eax
	.loc 1 170 0
	mov	DWORD PTR [esp+8], 56
	mov	DWORD PTR [esp+4], OFFSET FLAT:LC1
	lea	eax, [esp+36]
	mov	DWORD PTR [esp], eax
	call	_inflateInit_
LVL34:
	.loc 1 171 0
	test	eax, eax
	jne	L38
	mov	ebp, 1
	mov	ebx, 1024
	xor	edi, edi
	jmp	L25
LVL35:
	.p2align 2,,3
L42:
	.loc 1 189 0
	mov	DWORD PTR [esp+52], ebx
	.loc 1 190 0
	mov	DWORD PTR [esp+48], eax
LVL36:
L29:
	.loc 1 196 0
	mov	DWORD PTR [esp+4], 0
	lea	edx, [esp+36]
	mov	DWORD PTR [esp], edx
	call	_inflate
LVL37:
	.loc 1 198 0
	cmp	eax, 1
	ja	L39
LVL38:
	mov	edi, esi
	.loc 1 206 0
	mov	ebp, 0
	.loc 1 207 0
	je	L40
LVL39:
L25:
	.loc 1 177 0
	sal	ebx
LVL40:
	.loc 1 178 0
	mov	DWORD PTR [esp+4], ebx
	mov	DWORD PTR [esp], edi
	call	_realloc
LVL41:
	mov	esi, eax
LVL42:
	.loc 1 180 0
	test	eax, eax
	je	L41
LVL43:
	.loc 1 188 0
	test	ebp, ebp
	jne	L42
	.loc 1 192 0
	mov	eax, ebx
LVL44:
	shr	eax
	mov	DWORD PTR [esp+52], eax
	.loc 1 193 0
	add	eax, esi
	mov	DWORD PTR [esp+48], eax
	jmp	L29
LVL45:
	.p2align 2,,3
L40:
	.loc 1 210 0
	mov	esi, DWORD PTR [esp+56]
LVL46:
	lea	edx, [esi+1]
LVL47:
	.loc 1 211 0
	mov	DWORD PTR [esp+4], edx
	mov	DWORD PTR [esp], edi
	mov	DWORD PTR [esp+28], edx
	call	_realloc
LVL48:
	mov	ebx, eax
LVL49:
	.loc 1 213 0
	test	eax, eax
	mov	edx, DWORD PTR [esp+28]
	je	L43
LVL50:
	.loc 1 220 0
	mov	BYTE PTR [eax+esi], 0
	.loc 1 222 0
	lea	ecx, [esp+36]
	mov	DWORD PTR [esp], ecx
	call	_inflateEnd
LVL51:
	mov	eax, ebx
LVL52:
L24:
	.loc 1 231 0
	mov	edx, DWORD PTR [esp+92]
	xor	edx, DWORD PTR ___stack_chk_guard
	jne	L44
	add	esp, 108
LCFI16:
	.cfi_remember_state
	.cfi_def_cfa_offset 20
	pop	ebx
LCFI17:
	.cfi_restore 3
	.cfi_def_cfa_offset 16
	pop	esi
LCFI18:
	.cfi_restore 6
	.cfi_def_cfa_offset 12
	pop	edi
LCFI19:
	.cfi_restore 7
	.cfi_def_cfa_offset 8
	pop	ebp
LCFI20:
	.cfi_restore 5
	.cfi_def_cfa_offset 4
	ret
LVL53:
	.p2align 2,,3
L41:
LCFI21:
	.cfi_restore_state
	.loc 1 181 0
	mov	DWORD PTR [esp+8], ebx
	mov	DWORD PTR [esp+4], OFFSET FLAT:LC6
	mov	DWORD PTR [esp], 16
	call	_gg_debug
LVL54:
L27:
	.loc 1 227 0
	lea	eax, [esp+36]
	mov	DWORD PTR [esp], eax
	call	_inflateEnd
LVL55:
	.loc 1 228 0
	mov	DWORD PTR [esp], edi
	call	_free
LVL56:
	.loc 1 230 0
	xor	eax, eax
	jmp	L24
LVL57:
	.p2align 2,,3
L39:
	.loc 1 201 0
	mov	edx, DWORD PTR [esp+60]
	.loc 1 199 0
	test	edx, edx
	je	L45
L31:
	.loc 1 199 0 is_stmt 0 discriminator 3
	mov	DWORD PTR [esp+12], edx
	mov	DWORD PTR [esp+8], eax
	mov	DWORD PTR [esp+4], OFFSET FLAT:LC7
	mov	DWORD PTR [esp], 16
	call	_gg_debug
LVL58:
	.loc 1 178 0 is_stmt 1 discriminator 3
	mov	edi, esi
	.loc 1 203 0 discriminator 3
	jmp	L27
LVL59:
L34:
	.loc 1 162 0
	xor	eax, eax
	jmp	L24
LVL60:
L38:
	.loc 1 172 0
	mov	DWORD PTR [esp+8], eax
	mov	DWORD PTR [esp+4], OFFSET FLAT:LC5
	mov	DWORD PTR [esp], 16
	call	_gg_debug
LVL61:
	.loc 1 173 0
	xor	eax, eax
	jmp	L24
LVL62:
L45:
	.loc 1 199 0
	mov	edx, OFFSET FLAT:LC0
	jmp	L31
LVL63:
L43:
	.loc 1 214 0
	mov	DWORD PTR [esp+8], edx
	mov	DWORD PTR [esp+4], OFFSET FLAT:LC6
	mov	DWORD PTR [esp], 16
	call	_gg_debug
LVL64:
	.loc 1 216 0
	jmp	L27
LVL65:
L44:
	.loc 1 231 0
	call	___stack_chk_fail
LVL66:
	.cfi_endproc
LFE24:
Letext0:
	.file 2 "c:/workspace/pidgin-devel/win32-dev/mingw-4.7.2/bin/../lib/gcc/mingw32/4.7.2/../../../../include/stdio.h"
	.file 3 "c:/workspace/pidgin-devel/win32-dev/mingw-4.7.2/bin/../lib/gcc/mingw32/4.7.2/include/stddef.h"
	.file 4 "../../../../win32-dev/gtk_2_0-2.14/include/zconf.h"
	.file 5 "../../../../win32-dev/gtk_2_0-2.14/include/zlib.h"
	.file 6 "c:/workspace/pidgin-devel/win32-dev/mingw-4.7.2/bin/../lib/gcc/mingw32/4.7.2/../../../../include/stdlib.h"
	.file 7 "lib/libgadu.h"