	.file	"error.c"
	.intel_syntax noprefix
	.text
Ltext0:
	.p2align 2,,3
	.def	_msn_rem_cb;	.scl	3;	.type	32;	.endef
_msn_rem_cb:
LFB97:
	.file 1 "error.c"
	.loc 1 323 0
	.cfi_startproc
LVL0:
	push	esi
LCFI0:
	.cfi_def_cfa_offset 8
	.cfi_offset 6, -8
	push	ebx
LCFI1:
	.cfi_def_cfa_offset 12
	.cfi_offset 3, -12
	sub	esp, 36
LCFI2:
	.cfi_def_cfa_offset 48
	mov	ebx, DWORD PTR [esp+48]
	.loc 1 323 0
	mov	eax, DWORD PTR ___stack_chk_guard
	mov	DWORD PTR [esp+28], eax
	xor	eax, eax
	.loc 1 324 0
	mov	edx, DWORD PTR [ebx]
	mov	esi, DWORD PTR [edx+40]
LVL1:
LBB4:
LBB5:
	.loc 1 292 0
	mov	eax, DWORD PTR [ebx+8]
	test	eax, eax
	je	L2
	.loc 1 293 0
	mov	DWORD PTR [esp], eax
	call	_purple_find_group
LVL2:
	.loc 1 295 0
	test	eax, eax
	je	L18
	.loc 1 296 0
	mov	DWORD PTR [esp+8], eax
	mov	eax, DWORD PTR [ebx+4]
LVL3:
	mov	DWORD PTR [esp+4], eax
	mov	eax, DWORD PTR [ebx]
	mov	eax, DWORD PTR [eax]
	mov	DWORD PTR [esp], eax
	call	_purple_find_buddy_in_group
LVL4:
L4:
	.loc 1 300 0
	test	eax, eax
	je	L5
	.loc 1 301 0
	mov	DWORD PTR [esp], eax
	call	_purple_blist_remove_buddy
LVL5:
L5:
LBE5:
LBE4:
	.loc 1 328 0
	mov	eax, DWORD PTR [ebx+8]
	test	eax, eax
	je	L19
	.loc 1 331 0
	mov	DWORD PTR [esp], eax
	call	_g_free
LVL6:
L7:
	.loc 1 334 0
	mov	eax, DWORD PTR [ebx+4]
	mov	DWORD PTR [esp], eax
	call	_g_free
LVL7:
	.loc 1 335 0
	mov	eax, DWORD PTR [esp+28]
	xor	eax, DWORD PTR ___stack_chk_guard
	jne	L20
	mov	DWORD PTR [esp+48], ebx
	.loc 1 336 0
	add	esp, 36
LCFI3:
	.cfi_remember_state
	.cfi_def_cfa_offset 12
	pop	ebx
LCFI4:
	.cfi_restore 3
	.cfi_def_cfa_offset 8
LVL8:
	pop	esi
LCFI5:
	.cfi_restore 6
	.cfi_def_cfa_offset 4
LVL9:
	.loc 1 335 0
	jmp	_g_free
LVL10:
L18:
LCFI6:
	.cfi_restore_state
	mov	edx, DWORD PTR [ebx]
LVL11:
	.p2align 2,,3
L2:
LBB7:
LBB6:
	.loc 1 298 0
	mov	eax, DWORD PTR [ebx+4]
	mov	DWORD PTR [esp+4], eax
	mov	eax, DWORD PTR [edx]
	mov	DWORD PTR [esp], eax
	call	_purple_find_buddy
LVL12:
	jmp	L4
LVL13:
	.p2align 2,,3
L19:
LBE6:
LBE7:
	.loc 1 329 0
	mov	DWORD PTR [esp+8], 0
	mov	eax, DWORD PTR [ebx+4]
	mov	DWORD PTR [esp+4], eax
	mov	DWORD PTR [esp], esi
	call	_msn_userlist_rem_buddy_from_list
LVL14:
	jmp	L7
L20:
	.loc 1 335 0
	call	___stack_chk_fail
LVL15:
	.cfi_endproc
LFE97:
	.p2align 2,,3
	.def	_msn_add_cb;	.scl	3;	.type	32;	.endef
_msn_add_cb:
LFB96:
	.loc 1 307 0
	.cfi_startproc
LVL16:
	push	ebx
LCFI7:
	.cfi_def_cfa_offset 8
	.cfi_offset 3, -8
	sub	esp, 40
LCFI8:
	.cfi_def_cfa_offset 48
	mov	ebx, DWORD PTR [esp+48]
	.loc 1 307 0
	mov	eax, DWORD PTR ___stack_chk_guard
	mov	DWORD PTR [esp+28], eax
	xor	eax, eax
LVL17:
	.loc 1 314 0
	mov	eax, DWORD PTR [ebx+8]
	mov	DWORD PTR [esp+8], eax
	mov	eax, DWORD PTR [ebx+4]
	mov	DWORD PTR [esp+4], eax
	.loc 1 312 0
	mov	eax, DWORD PTR [ebx]
	.loc 1 314 0
	mov	eax, DWORD PTR [eax+40]
	mov	DWORD PTR [esp], eax
	call	_msn_userlist_add_buddy
LVL18:
	.loc 1 316 0
	mov	eax, DWORD PTR [ebx+8]
	mov	DWORD PTR [esp], eax
	call	_g_free
LVL19:
	.loc 1 317 0
	mov	eax, DWORD PTR [ebx+4]
	mov	DWORD PTR [esp], eax
	call	_g_free
LVL20:
	.loc 1 318 0
	mov	eax, DWORD PTR [esp+28]
	xor	eax, DWORD PTR ___stack_chk_guard
	jne	L25
	mov	DWORD PTR [esp+48], ebx
	.loc 1 319 0
	add	esp, 40
LCFI9:
	.cfi_remember_state
	.cfi_def_cfa_offset 8
	pop	ebx
LCFI10:
	.cfi_restore 3
	.cfi_def_cfa_offset 4
	.loc 1 318 0
	jmp	_g_free
LVL21:
L25:
LCFI11:
	.cfi_restore_state
	call	___stack_chk_fail
LVL22:
	.cfi_endproc
LFE96:
	.section .rdata,"dr"
LC0:
	.ascii "Unable to parse message\0"
LC1:
	.ascii "pidgin\0"
	.align 4
LC2:
	.ascii "Syntax Error (probably a client bug)\0"
LC3:
	.ascii "Invalid email address\0"
LC4:
	.ascii "User does not exist\0"
	.align 4
LC5:
	.ascii "Fully qualified domain name missing\0"
LC6:
	.ascii "Already logged in\0"
LC7:
	.ascii "Invalid username\0"
LC8:
	.ascii "Invalid friendly name\0"
LC9:
	.ascii "List full\0"
LC10:
	.ascii "Already there\0"
LC11:
	.ascii "Not on list\0"
LC12:
	.ascii "User is offline\0"
LC13:
	.ascii "Already in the mode\0"
LC14:
	.ascii "Already in opposite list\0"
LC15:
	.ascii "Too many groups\0"
LC16:
	.ascii "Invalid group\0"
LC17:
	.ascii "User not in group\0"
LC18:
	.ascii "Group name too long\0"
LC19:
	.ascii "Cannot remove group zero\0"
	.align 4
LC20:
	.ascii "Tried to add a user to a group that doesn't exist\0"
LC21:
	.ascii "Switchboard failed\0"
LC22:
	.ascii "Notify transfer failed\0"
LC23:
	.ascii "Required fields missing\0"
LC24:
	.ascii "Too many hits to a FND\0"
LC25:
	.ascii "Not logged in\0"
	.align 4
LC26:
	.ascii "Service temporarily unavailable\0"
LC27:
	.ascii "Database server error\0"
LC28:
	.ascii "Command disabled\0"
LC29:
	.ascii "File operation error\0"
LC30:
	.ascii "Memory allocation error\0"
	.align 4
LC31:
	.ascii "Wrong CHL value sent to server\0"
LC32:
	.ascii "Server busy\0"
LC33:
	.ascii "Server unavailable\0"
LC34:
	.ascii "Peer notification server down\0"
LC35:
	.ascii "Database connect error\0"
	.align 4
LC36:
	.ascii "Server is going down (abandon ship)\0"
LC37:
	.ascii "Error creating connection\0"
	.align 4
LC38:
	.ascii "CVR parameters are either unknown or not allowed\0"
LC39:
	.ascii "Unable to write\0"
LC40:
	.ascii "Session overload\0"
LC41:
	.ascii "User is too active\0"
LC42:
	.ascii "Too many sessions\0"
LC43:
	.ascii "Passport not verified\0"
LC44:
	.ascii "Bad friend file\0"
LC45:
	.ascii "Not expected\0"
	.align 4
LC46:
	.ascii "Friendly name is changing too rapidly\0"
LC47:
	.ascii "Server too busy\0"
LC48:
	.ascii "Authentication failed\0"
LC49:
	.ascii "Not allowed when offline\0"
LC50:
	.ascii "Not accepting new users\0"
	.align 4
LC51:
	.ascii "Kids Passport without parental consent\0"
	.align 4
LC52:
	.ascii "Passport account not yet verified\0"
LC53:
	.ascii "Passport account suspended\0"
LC54:
	.ascii "Bad ticket\0"
LC55:
	.ascii "Unknown Error Code %d\0"
	.text
	.p2align 2,,3
	.globl	_msn_error_get_text
	.def	_msn_error_get_text;	.scl	2;	.type	32;	.endef
_msn_error_get_text:
LFB93:
	.loc 1 43 0
	.cfi_startproc
LVL23:
	push	esi
LCFI12:
	.cfi_def_cfa_offset 8
	.cfi_offset 6, -8
	push	ebx
LCFI13:
	.cfi_def_cfa_offset 12
	.cfi_offset 3, -12
	sub	esp, 36
LCFI14:
	.cfi_def_cfa_offset 48
	mov	ebx, DWORD PTR [esp+48]
	mov	esi, DWORD PTR [esp+52]
	.loc 1 43 0
	mov	eax, DWORD PTR ___stack_chk_guard
	mov	DWORD PTR [esp+28], eax
	xor	eax, eax
	.loc 1 46 0
	mov	DWORD PTR [esi], 0
	.loc 1 48 0
	cmp	ebx, 600
	je	L59
	jbe	L149
	cmp	ebx, 910
	je	L75
	jbe	L150
	cmp	ebx, 919
	ja	L96
	cmp	ebx, 918
	jae	L75
	cmp	ebx, 913
	je	L77
	ja	L97
	cmp	ebx, 911
	je	L76
	cmp	ebx, 912
	jne	L27
	jmp	L75
	.p2align 2,,3
L149:
	cmp	ebx, 224
	je	L43
	jbe	L151
	cmp	ebx, 301
	je	L51
	ja	L89
	cmp	ebx, 231
	je	L47
	ja	L90
	cmp	ebx, 229
	je	L45
	ja	L46
	cmp	ebx, 225
	je	L152
	.p2align 2,,3
L27:
	.loc 1 257 0
	mov	DWORD PTR [esp+4], OFFSET FLAT:LC55
	mov	DWORD PTR [esp], OFFSET FLAT:LC1
	call	_libintl_dgettext
LVL24:
	.loc 1 256 0
	mov	DWORD PTR [esp+12], ebx
	mov	DWORD PTR [esp+8], eax
	mov	DWORD PTR [esp+4], 256
	mov	DWORD PTR [esp], OFFSET FLAT:_msg.45723
	call	_g_snprintf
LVL25:
	.loc 1 258 0
	mov	DWORD PTR [esi], 1
LVL26:
	.loc 1 259 0
	mov	eax, OFFSET FLAT:_msg.45723
LVL27:
	.p2align 2,,3
L99:
	.loc 1 264 0
	mov	edx, DWORD PTR [esp+28]
	xor	edx, DWORD PTR ___stack_chk_guard
	jne	L148
	add	esp, 36
LCFI15:
	.cfi_remember_state
	.cfi_def_cfa_offset 12
	pop	ebx
LCFI16:
	.cfi_restore 3
	.cfi_def_cfa_offset 8
	pop	esi
LCFI17:
	.cfi_restore 6
	.cfi_def_cfa_offset 4
	ret
LVL28:
	.p2align 2,,3
L150:
LCFI18:
	.cfi_restore_state
	.loc 1 48 0
	cmp	ebx, 711
	je	L67
	jbe	L153
	cmp	ebx, 715
	je	L71
	ja	L95
	cmp	ebx, 713
	je	L69
	jbe	L154
	.loc 1 200 0
	mov	edx, DWORD PTR [esp+28]
	xor	edx, DWORD PTR ___stack_chk_guard
	jne	L148
	mov	DWORD PTR [esp+52], OFFSET FLAT:LC42
	jmp	L147
	.p2align 2,,3
L151:
	.loc 1 48 0
	cmp	ebx, 209
	je	L35
	jbe	L155
	cmp	ebx, 217
	je	L39
	ja	L88
	cmp	ebx, 215
	je	L37
	ja	L38
	cmp	ebx, 210
	jne	L27
	.loc 1 76 0
	mov	edx, DWORD PTR [esp+28]
	xor	edx, DWORD PTR ___stack_chk_guard
	jne	L148
	mov	DWORD PTR [esp+52], OFFSET FLAT:LC9
	jmp	L147
	.p2align 2,,3
L96:
	.loc 1 48 0
	cmp	ebx, 923
	je	L80
	ja	L98
	cmp	ebx, 920
	je	L156
	.p2align 2,,3
L75:
	.loc 1 224 0
	mov	eax, DWORD PTR [esp+28]
	xor	eax, DWORD PTR ___stack_chk_guard
	jne	L148
	mov	DWORD PTR [esp+52], OFFSET FLAT:LC47
	.p2align 2,,3
L147:
	.loc 1 248 0
	mov	DWORD PTR [esp+48], OFFSET FLAT:LC1
	.loc 1 264 0
	add	esp, 36
LCFI19:
	.cfi_remember_state
	.cfi_def_cfa_offset 12
	pop	ebx
LCFI20:
	.cfi_restore 3
	.cfi_def_cfa_offset 8
	pop	esi
LCFI21:
	.cfi_restore 6
	.cfi_def_cfa_offset 4
	.loc 1 248 0
	jmp	_libintl_dgettext
LVL29:
	.p2align 2,,3
L155:
LCFI22:
	.cfi_restore_state
	.loc 1 48 0
	cmp	ebx, 205
	je	L31
	ja	L87
	cmp	ebx, 200
	je	L29
	cmp	ebx, 201
	je	L30
	test	ebx, ebx
	jne	L27
	.loc 1 50 0
	mov	DWORD PTR [esp+4], OFFSET FLAT:LC0
	mov	DWORD PTR [esp], OFFSET FLAT:LC1
	call	_libintl_dgettext
LVL30:
	.loc 1 51 0
	mov	DWORD PTR [esi], 1
	.loc 1 52 0
	jmp	L99
LVL31:
	.p2align 2,,3
L89:
	.loc 1 48 0
	cmp	ebx, 502
	je	L55
	ja	L91
	cmp	ebx, 500
	je	L53
	ja	L54
	cmp	ebx, 302
	jne	L27
	.loc 1 133 0
	mov	edx, DWORD PTR [esp+28]
	xor	edx, DWORD PTR ___stack_chk_guard
	jne	L148
	mov	DWORD PTR [esp+52], OFFSET FLAT:LC25
	jmp	L147
	.p2align 2,,3
L153:
	.loc 1 48 0
	cmp	ebx, 604
	je	L63
	ja	L94
	cmp	ebx, 602
	je	L61
	jbe	L64
	.loc 1 171 0
	mov	DWORD PTR [esp+4], OFFSET FLAT:LC35
	mov	DWORD PTR [esp], OFFSET FLAT:LC1
	call	_libintl_dgettext
LVL32:
	.loc 1 172 0
	mov	DWORD PTR [esi], 1
	.loc 1 173 0
	jmp	L99
LVL33:
	.p2align 2,,3
L80:
	.loc 1 242 0
	mov	edx, DWORD PTR [esp+28]
	xor	edx, DWORD PTR ___stack_chk_guard
	jne	L148
	mov	DWORD PTR [esp+52], OFFSET FLAT:LC51
	jmp	L147
	.p2align 2,,3
L94:
	.loc 1 48 0
	cmp	ebx, 707
	je	L65
	cmp	ebx, 710
	je	L66
	cmp	ebx, 605
	jne	L27
L64:
	.loc 1 178 0
	mov	eax, DWORD PTR [esp+28]
	xor	eax, DWORD PTR ___stack_chk_guard
	jne	L148
L128:
	.loc 1 236 0
	mov	DWORD PTR [esp+52], OFFSET FLAT:LC33
	jmp	L147
	.p2align 2,,3
L98:
	.loc 1 48 0
	cmp	ebx, 927
	je	L82
	cmp	ebx, 928
	je	L83
	cmp	ebx, 924
	jne	L27
	.loc 1 245 0
	mov	eax, DWORD PTR [esp+28]
	xor	eax, DWORD PTR ___stack_chk_guard
	jne	L148
	mov	DWORD PTR [esp+52], OFFSET FLAT:LC52
	jmp	L147
	.p2align 2,,3
L63:
	.loc 1 175 0
	mov	edx, DWORD PTR [esp+28]
	xor	edx, DWORD PTR ___stack_chk_guard
	jne	L148
	mov	DWORD PTR [esp+52], OFFSET FLAT:LC36
	jmp	L147
L83:
	.loc 1 251 0
	mov	DWORD PTR [esp+4], OFFSET FLAT:LC54
	mov	DWORD PTR [esp], OFFSET FLAT:LC1
	call	_libintl_dgettext
LVL34:
	.loc 1 252 0
	mov	DWORD PTR [esi], 1
	.loc 1 253 0
	jmp	L99
LVL35:
L82:
	.loc 1 248 0
	mov	edx, DWORD PTR [esp+28]
	xor	edx, DWORD PTR ___stack_chk_guard
	jne	L148
	mov	DWORD PTR [esp+52], OFFSET FLAT:LC53
	jmp	L147
L61:
	.loc 1 167 0
	mov	DWORD PTR [esp+4], OFFSET FLAT:LC34
	mov	DWORD PTR [esp], OFFSET FLAT:LC1
	call	_libintl_dgettext
LVL36:
	.loc 1 168 0
	mov	DWORD PTR [esi], 1
	.loc 1 169 0
	jmp	L99
LVL37:
L156:
	.loc 1 239 0
	mov	eax, DWORD PTR [esp+28]
	xor	eax, DWORD PTR ___stack_chk_guard
	jne	L148
	mov	DWORD PTR [esp+52], OFFSET FLAT:LC50
	jmp	L147
	.p2align 2,,3
L67:
	.loc 1 190 0
	mov	edx, DWORD PTR [esp+28]
	xor	edx, DWORD PTR ___stack_chk_guard
	jne	L148
	mov	DWORD PTR [esp+52], OFFSET FLAT:LC39
	jmp	L147
	.p2align 2,,3
L35:
	.loc 1 73 0
	mov	eax, DWORD PTR [esp+28]
	xor	eax, DWORD PTR ___stack_chk_guard
	jne	L148
	mov	DWORD PTR [esp+52], OFFSET FLAT:LC8
	jmp	L147
L154:
	.loc 1 193 0
	mov	DWORD PTR [esp+4], OFFSET FLAT:LC40
	mov	DWORD PTR [esp], OFFSET FLAT:LC1
	call	_libintl_dgettext
LVL38:
	.loc 1 194 0
	mov	DWORD PTR [esi], 1
	.loc 1 195 0
	jmp	L99
LVL39:
L69:
	.loc 1 197 0
	mov	eax, DWORD PTR [esp+28]
	xor	eax, DWORD PTR ___stack_chk_guard
	jne	L148
	mov	DWORD PTR [esp+52], OFFSET FLAT:LC41
	jmp	L147
	.p2align 2,,3
L71:
	.loc 1 203 0
	mov	eax, DWORD PTR [esp+28]
	xor	eax, DWORD PTR ___stack_chk_guard
	jne	L148
	mov	DWORD PTR [esp+52], OFFSET FLAT:LC43
	jmp	L147
L38:
	.loc 1 83 0
	mov	eax, DWORD PTR [esp+28]
	xor	eax, DWORD PTR ___stack_chk_guard
	jne	L148
	mov	DWORD PTR [esp+52], OFFSET FLAT:LC11
	jmp	L147
L37:
	.loc 1 79 0
	mov	DWORD PTR [esp+4], OFFSET FLAT:LC10
	mov	DWORD PTR [esp], OFFSET FLAT:LC1
	call	_libintl_dgettext
LVL40:
	.loc 1 80 0
	mov	DWORD PTR [esi], 1
	.loc 1 81 0
	jmp	L99
LVL41:
	.p2align 2,,3
L39:
	.loc 1 86 0
	mov	edx, DWORD PTR [esp+28]
	xor	edx, DWORD PTR ___stack_chk_guard
	jne	L148
	mov	DWORD PTR [esp+52], OFFSET FLAT:LC12
	jmp	L147
L76:
	.loc 1 228 0
	mov	edx, DWORD PTR [esp+28]
	xor	edx, DWORD PTR ___stack_chk_guard
	jne	L148
	mov	DWORD PTR [esp+52], OFFSET FLAT:LC48
	jmp	L147
L77:
	.loc 1 231 0
	mov	eax, DWORD PTR [esp+28]
	xor	eax, DWORD PTR ___stack_chk_guard
	jne	L148
	mov	DWORD PTR [esp+52], OFFSET FLAT:LC49
	jmp	L147
	.p2align 2,,3
L59:
	.loc 1 161 0
	mov	edx, DWORD PTR [esp+28]
	xor	edx, DWORD PTR ___stack_chk_guard
	jne	L148
	mov	DWORD PTR [esp+52], OFFSET FLAT:LC32
	jmp	L147
	.p2align 2,,3
L43:
	.loc 1 100 0
	mov	edx, DWORD PTR [esp+28]
	xor	edx, DWORD PTR ___stack_chk_guard
	jne	L148
	mov	DWORD PTR [esp+52], OFFSET FLAT:LC16
	jmp	L147
	.p2align 2,,3
L51:
	.loc 1 129 0
	mov	DWORD PTR [esp+4], OFFSET FLAT:LC24
	mov	DWORD PTR [esp], OFFSET FLAT:LC1
	call	_libintl_dgettext
LVL42:
	.loc 1 130 0
	mov	DWORD PTR [esi], 1
	.loc 1 131 0
	jmp	L99
LVL43:
L152:
	.loc 1 103 0
	mov	eax, DWORD PTR [esp+28]
	xor	eax, DWORD PTR ___stack_chk_guard
	jne	L148
	mov	DWORD PTR [esp+52], OFFSET FLAT:LC17
	jmp	L147
L54:
	.loc 1 140 0
	mov	DWORD PTR [esp+4], OFFSET FLAT:LC27
	mov	DWORD PTR [esp], OFFSET FLAT:LC1
	call	_libintl_dgettext
LVL44:
	.loc 1 141 0
	mov	DWORD PTR [esi], 1
	.loc 1 142 0
	jmp	L99
LVL45:
L53:
	.loc 1 137 0
	mov	eax, DWORD PTR [esp+28]
	xor	eax, DWORD PTR ___stack_chk_guard
	jne	L148
	mov	DWORD PTR [esp+52], OFFSET FLAT:LC26
	jmp	L147
	.p2align 2,,3
L55:
	.loc 1 144 0
	mov	DWORD PTR [esp+4], OFFSET FLAT:LC28
	mov	DWORD PTR [esp], OFFSET FLAT:LC1
	call	_libintl_dgettext
LVL46:
	.loc 1 145 0
	mov	DWORD PTR [esi], 1
	.loc 1 146 0
	jmp	L99
LVL47:
L46:
	.loc 1 109 0
	mov	DWORD PTR [esp+4], OFFSET FLAT:LC19
	mov	DWORD PTR [esp], OFFSET FLAT:LC1
	call	_libintl_dgettext
LVL48:
	.loc 1 110 0
	mov	DWORD PTR [esi], 1
	.loc 1 111 0
	jmp	L99
LVL49:
L45:
	.loc 1 106 0
	mov	edx, DWORD PTR [esp+28]
	xor	edx, DWORD PTR ___stack_chk_guard
	jne	L148
	mov	DWORD PTR [esp+52], OFFSET FLAT:LC18
	jmp	L147
	.p2align 2,,3
L47:
	.loc 1 113 0
	mov	eax, DWORD PTR [esp+28]
	xor	eax, DWORD PTR ___stack_chk_guard
	jne	L148
	mov	DWORD PTR [esp+52], OFFSET FLAT:LC20
	jmp	L147
L30:
	.loc 1 58 0
	mov	edx, DWORD PTR [esp+28]
	xor	edx, DWORD PTR ___stack_chk_guard
	jne	L148
	mov	DWORD PTR [esp+52], OFFSET FLAT:LC3
	jmp	L147
L29:
	.loc 1 54 0
	mov	DWORD PTR [esp+4], OFFSET FLAT:LC2
	mov	DWORD PTR [esp], OFFSET FLAT:LC1
	call	_libintl_dgettext
LVL50:
	.loc 1 55 0
	mov	DWORD PTR [esi], 1
	.loc 1 56 0
	jmp	L99
LVL51:
	.p2align 2,,3
L31:
	.loc 1 61 0
	mov	eax, DWORD PTR [esp+28]
	xor	eax, DWORD PTR ___stack_chk_guard
	jne	L148
	mov	DWORD PTR [esp+52], OFFSET FLAT:LC4
	jmp	L147
	.p2align 2,,3
L90:
	.loc 1 48 0
	cmp	ebx, 281
	je	L49
	cmp	ebx, 300
	je	L50
	cmp	ebx, 280
	jne	L27
	.loc 1 116 0
	mov	DWORD PTR [esp+4], OFFSET FLAT:LC21
	mov	DWORD PTR [esp], OFFSET FLAT:LC1
	call	_libintl_dgettext
LVL52:
	.loc 1 117 0
	mov	DWORD PTR [esi], 1
	.loc 1 118 0
	jmp	L99
LVL53:
L49:
	.loc 1 120 0
	mov	DWORD PTR [esp+4], OFFSET FLAT:LC22
	mov	DWORD PTR [esp], OFFSET FLAT:LC1
	call	_libintl_dgettext
LVL54:
	.loc 1 121 0
	mov	DWORD PTR [esi], 1
	.loc 1 122 0
	jmp	L99
LVL55:
L50:
	.loc 1 125 0
	mov	DWORD PTR [esp+4], OFFSET FLAT:LC23
	mov	DWORD PTR [esp], OFFSET FLAT:LC1
	call	_libintl_dgettext
LVL56:
	.loc 1 126 0
	mov	DWORD PTR [esi], 1
	.loc 1 127 0
	jmp	L99
LVL57:
	.p2align 2,,3
L87:
	.loc 1 48 0
	cmp	ebx, 207
	je	L33
	jbe	L157
	.loc 1 70 0
	mov	edx, DWORD PTR [esp+28]
	xor	edx, DWORD PTR ___stack_chk_guard
	jne	L148
	mov	DWORD PTR [esp+52], OFFSET FLAT:LC7
	jmp	L147
L33:
	.loc 1 67 0
	mov	eax, DWORD PTR [esp+28]
	xor	eax, DWORD PTR ___stack_chk_guard
	jne	L148
	mov	DWORD PTR [esp+52], OFFSET FLAT:LC6
	jmp	L147
L157:
	.loc 1 64 0
	mov	edx, DWORD PTR [esp+28]
	xor	edx, DWORD PTR ___stack_chk_guard
	jne	L148
	mov	DWORD PTR [esp+52], OFFSET FLAT:LC5
	jmp	L147
	.p2align 2,,3
L91:
	.loc 1 48 0
	cmp	ebx, 520
	je	L57
	cmp	ebx, 540
	je	L58
	cmp	ebx, 510
	jne	L27
	.loc 1 148 0
	mov	DWORD PTR [esp+4], OFFSET FLAT:LC29
	mov	DWORD PTR [esp], OFFSET FLAT:LC1
	call	_libintl_dgettext
LVL58:
	.loc 1 149 0
	mov	DWORD PTR [esi], 1
	.loc 1 150 0
	jmp	L99
LVL59:
L57:
	.loc 1 152 0
	mov	DWORD PTR [esp+4], OFFSET FLAT:LC30
	mov	DWORD PTR [esp], OFFSET FLAT:LC1
	call	_libintl_dgettext
LVL60:
	.loc 1 153 0
	mov	DWORD PTR [esi], 1
	.loc 1 154 0
	jmp	L99
LVL61:
L58:
	.loc 1 156 0
	mov	DWORD PTR [esp+4], OFFSET FLAT:LC31
	mov	DWORD PTR [esp], OFFSET FLAT:LC1
	call	_libintl_dgettext
LVL62:
	.loc 1 157 0
	mov	DWORD PTR [esi], 1
	.loc 1 158 0
	jmp	L99
LVL63:
L65:
	.loc 1 182 0
	mov	DWORD PTR [esp+4], OFFSET FLAT:LC37
	mov	DWORD PTR [esp], OFFSET FLAT:LC1
	call	_libintl_dgettext
LVL64:
	.loc 1 183 0
	mov	DWORD PTR [esi], 1
	.loc 1 184 0
	jmp	L99
LVL65:
L66:
	.loc 1 186 0
	mov	DWORD PTR [esp+4], OFFSET FLAT:LC38
	mov	DWORD PTR [esp], OFFSET FLAT:LC1
	call	_libintl_dgettext
LVL66:
	.loc 1 187 0
	mov	DWORD PTR [esi], 1
	.loc 1 188 0
	jmp	L99
LVL67:
	.p2align 2,,3
L95:
	.loc 1 48 0
	cmp	ebx, 731
	je	L73
	cmp	ebx, 800
	je	L74
	cmp	ebx, 717
	jne	L27
	.loc 1 206 0
	mov	DWORD PTR [esp+4], OFFSET FLAT:LC44
	mov	DWORD PTR [esp], OFFSET FLAT:LC1
	call	_libintl_dgettext
LVL68:
	.loc 1 207 0
	mov	DWORD PTR [esi], 1
	.loc 1 208 0
	jmp	L99
LVL69:
L73:
	.loc 1 210 0
	mov	DWORD PTR [esp+4], OFFSET FLAT:LC45
	mov	DWORD PTR [esp], OFFSET FLAT:LC1
	call	_libintl_dgettext
LVL70:
	.loc 1 211 0
	mov	DWORD PTR [esi], 1
	.loc 1 212 0
	jmp	L99
LVL71:
L74:
	.loc 1 215 0
	mov	edx, DWORD PTR [esp+28]
	xor	edx, DWORD PTR ___stack_chk_guard
	jne	L148
	mov	DWORD PTR [esp+52], OFFSET FLAT:LC46
	jmp	L147
	.p2align 2,,3
L88:
	.loc 1 48 0
	cmp	ebx, 219
	je	L41
	jb	L40
	cmp	ebx, 223
	jne	L27
	.loc 1 97 0
	mov	eax, DWORD PTR [esp+28]
	xor	eax, DWORD PTR ___stack_chk_guard
	jne	L148
	mov	DWORD PTR [esp+52], OFFSET FLAT:LC15
	jmp	L147
L41:
	.loc 1 93 0
	mov	DWORD PTR [esp+4], OFFSET FLAT:LC14
	mov	DWORD PTR [esp], OFFSET FLAT:LC1
	call	_libintl_dgettext
LVL72:
	.loc 1 94 0
	mov	DWORD PTR [esi], 1
	.loc 1 95 0
	jmp	L99
LVL73:
L40:
	.loc 1 89 0
	mov	DWORD PTR [esp+4], OFFSET FLAT:LC13
	mov	DWORD PTR [esp], OFFSET FLAT:LC1
	call	_libintl_dgettext
LVL74:
	.loc 1 90 0
	mov	DWORD PTR [esi], 1
	.loc 1 91 0
	jmp	L99
LVL75:
	.p2align 2,,3
L97:
	.loc 1 48 0
	cmp	ebx, 916
	ja	L76
	.loc 1 236 0
	mov	edx, DWORD PTR [esp+28]
	xor	edx, DWORD PTR ___stack_chk_guard
	je	L128
L148:
	.loc 1 264 0
	call	___stack_chk_fail
LVL76:
	.cfi_endproc
LFE93:
	.section .rdata,"dr"
LC56:
	.ascii "MSN Error: %s\12\0"
LC57:
	.ascii "error %d: %s\12\0"
LC58:
	.ascii "msn\0"
	.text
	.p2align 2,,3
	.globl	_msn_error_handle
	.def	_msn_error_handle;	.scl	2;	.type	32;	.endef
_msn_error_handle:
LFB94:
	.loc 1 268 0
	.cfi_startproc
LVL77:
	push	edi
LCFI23:
	.cfi_def_cfa_offset 8
	.cfi_offset 7, -8
	push	esi
LCFI24:
	.cfi_def_cfa_offset 12
	.cfi_offset 6, -12
	push	ebx
LCFI25:
	.cfi_def_cfa_offset 16
	.cfi_offset 3, -16
	sub	esp, 48
LCFI26:
	.cfi_def_cfa_offset 64
	mov	edi, DWORD PTR [esp+64]
	mov	esi, DWORD PTR [esp+68]
	.loc 1 268 0
	mov	eax, DWORD PTR ___stack_chk_guard
	mov	DWORD PTR [esp+44], eax
	xor	eax, eax
	.loc 1 272 0
	lea	eax, [esp+40]
	mov	DWORD PTR [esp+4], eax
	mov	DWORD PTR [esp], esi
	call	_msn_error_get_text
LVL78:
	mov	ebx, eax
	mov	DWORD PTR [esp+4], OFFSET FLAT:LC56
	mov	DWORD PTR [esp], OFFSET FLAT:LC1
	call	_libintl_dgettext
LVL79:
	mov	DWORD PTR [esp+4], ebx
	mov	DWORD PTR [esp], eax
	call	_g_strdup_printf
LVL80:
	mov	ebx, eax
LVL81:
	.loc 1 274 0
	mov	eax, DWORD PTR [esp+40]
LVL82:
	test	eax, eax
	jne	L163
	.loc 1 277 0
	mov	DWORD PTR [esp+24], 0
	mov	DWORD PTR [esp+20], 0
	mov	DWORD PTR [esp+16], 0
	mov	DWORD PTR [esp+12], ebx
	mov	DWORD PTR [esp+8], 0
	mov	DWORD PTR [esp+4], 0
	mov	eax, DWORD PTR [edi]
	mov	eax, DWORD PTR [eax+28]
	mov	DWORD PTR [esp], eax
	call	_purple_notify_message
LVL83:
L160:
	.loc 1 278 0
	mov	DWORD PTR [esp], ebx
	call	_g_free
LVL84:
	.loc 1 279 0
	mov	eax, DWORD PTR [esp+44]
	xor	eax, DWORD PTR ___stack_chk_guard
	jne	L164
	add	esp, 48
LCFI27:
	.cfi_remember_state
	.cfi_def_cfa_offset 16
	pop	ebx
LCFI28:
	.cfi_restore 3
	.cfi_def_cfa_offset 12
LVL85:
	pop	esi
LCFI29:
	.cfi_restore 6
	.cfi_def_cfa_offset 8
	pop	edi
LCFI30:
	.cfi_restore 7
	.cfi_def_cfa_offset 4
	ret
LVL86:
	.p2align 2,,3
L163:
LCFI31:
	.cfi_restore_state
	.loc 1 275 0
	mov	DWORD PTR [esp+12], ebx
	mov	DWORD PTR [esp+8], esi
	mov	DWORD PTR [esp+4], OFFSET FLAT:LC57
	mov	DWORD PTR [esp], OFFSET FLAT:LC58
	call	_purple_debug_warning
LVL87:
	jmp	L160
L164:
	.loc 1 279 0
	call	___stack_chk_fail
LVL88:
	.cfi_endproc
LFE94:
	.section .rdata,"dr"
	.align 4
LC59:
	.ascii "Buddy list synchronization issue in %s (%s)\0"
	.align 4
LC60:
	.ascii "%s on the local list is inside the group \"%s\" but not on the server list. Do you want this buddy to be added?\0"
	.align 4
LC61:
	.ascii "%s is on the local list but not on the server list. Do you want this buddy to be added?\0"
LC62:
	.ascii "No\0"
LC63:
	.ascii "Yes\0"
	.text
	.p2align 2,,3
	.globl	_msn_error_sync_issue
	.def	_msn_error_sync_issue;	.scl	2;	.type	32;	.endef
_msn_error_sync_issue:
LFB98:
	.loc 1 341 0
	.cfi_startproc
LVL89:
	push	ebp
LCFI32:
	.cfi_def_cfa_offset 8
	.cfi_offset 5, -8
	push	edi
LCFI33:
	.cfi_def_cfa_offset 12
	.cfi_offset 7, -12
	push	esi
LCFI34:
	.cfi_def_cfa_offset 16
	.cfi_offset 6, -16
	push	ebx
LCFI35:
	.cfi_def_cfa_offset 20
	.cfi_offset 3, -20
	sub	esp, 108
LCFI36:
	.cfi_def_cfa_offset 128
	mov	ebp, DWORD PTR [esp+128]
	mov	edx, DWORD PTR [esp+132]
	mov	DWORD PTR [esp+72], edx
	mov	edi, DWORD PTR [esp+136]
	.loc 1 341 0
	mov	eax, DWORD PTR ___stack_chk_guard
	mov	DWORD PTR [esp+92], eax
	xor	eax, eax
	.loc 1 347 0
	mov	esi, DWORD PTR [ebp+0]
LVL90:
	.loc 1 348 0
	mov	DWORD PTR [esp], esi
	call	_purple_account_get_connection
LVL91:
	mov	DWORD PTR [esp+76], eax
LVL92:
	.loc 1 350 0
	mov	DWORD PTR [esp], 16
	call	_g_malloc0
LVL93:
	mov	ebx, eax
LVL94:
	.loc 1 351 0
	mov	edx, DWORD PTR [esp+72]
	mov	DWORD PTR [esp], edx
	call	_g_strdup
LVL95:
	mov	DWORD PTR [ebx+4], eax
	.loc 1 352 0
	mov	DWORD PTR [esp], edi
	call	_g_strdup
LVL96:
	mov	DWORD PTR [ebx+8], eax
	.loc 1 353 0
	mov	DWORD PTR [ebx], ebp
	.loc 1 355 0
	mov	DWORD PTR [esp], esi
	call	_purple_account_get_protocol_name
LVL97:
	mov	DWORD PTR [esp], esi
	mov	DWORD PTR [esp+68], eax
	call	_purple_account_get_username
LVL98:
	mov	ebp, eax
	mov	DWORD PTR [esp+4], OFFSET FLAT:LC59
	mov	DWORD PTR [esp], OFFSET FLAT:LC1
	call	_libintl_dgettext
LVL99:
	mov	edx, DWORD PTR [esp+68]
	mov	DWORD PTR [esp+8], edx
	mov	DWORD PTR [esp+4], ebp
	mov	DWORD PTR [esp], eax
	call	_g_strdup_printf
LVL100:
	mov	ebp, eax
LVL101:
	.loc 1 359 0
	test	edi, edi
	je	L166
	.loc 1 361 0
	mov	DWORD PTR [esp+4], OFFSET FLAT:LC60
	mov	DWORD PTR [esp], OFFSET FLAT:LC1
	call	_libintl_dgettext
LVL102:
	mov	DWORD PTR [esp+8], edi
	mov	edx, DWORD PTR [esp+72]
	mov	DWORD PTR [esp+4], edx
	mov	DWORD PTR [esp], eax
	call	_g_strdup_printf
LVL103:
	mov	edi, eax
LVL104:
L167:
	.loc 1 379 0
	mov	DWORD PTR [esp+4], OFFSET FLAT:LC62
	mov	DWORD PTR [esp], OFFSET FLAT:LC1
	call	_libintl_dgettext
LVL105:
	.loc 1 378 0
	mov	DWORD PTR [esp+4], OFFSET FLAT:LC63
	mov	DWORD PTR [esp], OFFSET FLAT:LC1
	mov	DWORD PTR [esp+68], eax
	call	_libintl_dgettext
LVL106:
	.loc 1 375 0
	mov	DWORD PTR [esp+52], OFFSET FLAT:_msn_rem_cb
	mov	edx, DWORD PTR [esp+68]
	mov	DWORD PTR [esp+48], edx
	mov	DWORD PTR [esp+44], OFFSET FLAT:_msn_add_cb
	mov	DWORD PTR [esp+40], eax
	mov	DWORD PTR [esp+36], 2
	mov	DWORD PTR [esp+32], ebx
	mov	DWORD PTR [esp+28], 0
	mov	eax, DWORD PTR [ebx+4]
	mov	DWORD PTR [esp+24], eax
	mov	DWORD PTR [esp+20], esi
	mov	DWORD PTR [esp+16], -1
	mov	DWORD PTR [esp+12], edi
	mov	DWORD PTR [esp+8], ebp
	mov	DWORD PTR [esp+4], 0
	mov	eax, DWORD PTR [esp+76]
	mov	DWORD PTR [esp], eax
	call	_purple_request_action
LVL107:
	.loc 1 381 0
	mov	DWORD PTR [esp], edi
	call	_g_free
LVL108:
	.loc 1 382 0
	mov	edx, DWORD PTR [esp+92]
	xor	edx, DWORD PTR ___stack_chk_guard
	jne	L171
	mov	DWORD PTR [esp+128], ebp
	.loc 1 383 0
	add	esp, 108
LCFI37:
	.cfi_remember_state
	.cfi_def_cfa_offset 20
	pop	ebx
LCFI38:
	.cfi_restore 3
	.cfi_def_cfa_offset 16
LVL109:
	pop	esi
LCFI39:
	.cfi_restore 6
	.cfi_def_cfa_offset 12
LVL110:
	pop	edi
LCFI40:
	.cfi_restore 7
	.cfi_def_cfa_offset 8
LVL111:
	pop	ebp
LCFI41:
	.cfi_restore 5
	.cfi_def_cfa_offset 4
LVL112:
	.loc 1 382 0
	jmp	_g_free
LVL113:
	.p2align 2,,3
L166:
LCFI42:
	.cfi_restore_state
	.loc 1 369 0
	mov	DWORD PTR [esp+4], OFFSET FLAT:LC61
	mov	DWORD PTR [esp], OFFSET FLAT:LC1
	call	_libintl_dgettext
LVL114:
	mov	edx, DWORD PTR [esp+72]
	mov	DWORD PTR [esp+4], edx
	mov	DWORD PTR [esp], eax
	call	_g_strdup_printf
LVL115:
	mov	edi, eax
LVL116:
	jmp	L167
LVL117:
L171:
	.loc 1 382 0
	call	___stack_chk_fail
LVL118:
	.cfi_endproc
LFE98:
.lcomm _msg.45723,256,32
Letext0:
	.file 2 "c:/workspace/pidgin-devel/win32-dev/mingw-4.7.2/bin/../lib/gcc/mingw32/4.7.2/../../../../include/stdio.h"
	.file 3 "c:/workspace/pidgin-devel/win32-dev/mingw-4.7.2/bin/../lib/gcc/mingw32/4.7.2/include/stddef.h"
	.file 4 "c:/workspace/pidgin-devel/win32-dev/mingw-4.7.2/bin/../lib/gcc/mingw32/4.7.2/../../../../include/sys/types.h"
	.file 5 "c:/workspace/pidgin-devel/win32-dev/mingw-4.7.2/bin/../lib/gcc/mingw32/4.7.2/../../../../include/time.h"
	.file 6 "../../../../win32-dev/gtk_2_0-2.14/lib/glib-2.0/include/glibconfig.h"
	.file 7 "../../../../win32-dev/gtk_2_0-2.14/include/glib-2.0/glib/gtypes.h"
	.file 8 "../../../../win32-dev/gtk_2_0-2.14/include/glib-2.0/glib/glist.h"
	.file 9 "../../../../win32-dev/gtk_2_0-2.14/include/glib-2.0/glib/ghash.h"
	.file 10 "../../../../win32-dev/gtk_2_0-2.14/include/glib-2.0/glib/gslist.h"
	.file 11 "../../../../win32-dev/gtk_2_0-2.14/include/glib-2.0/glib/gqueue.h"
	.file 12 "../../../../win32-dev/gtk_2_0-2.14/include/glib-2.0/gobject/gclosure.h"
	.file 13 "../../../libpurple/account.h"
	.file 14 "../../../libpurple/connection.h"
	.file 15 "../../../libpurple/plugin.h"
	.file 16 "../../../libpurple/pluginpref.h"
	.file 17 "../../../libpurple/status.h"
	.file 18 "../../../libpurple/blist.h"
	.file 19 "../../../libpurple/buddyicon.h"
	.file 20 "../../../libpurple/imgstore.h"
	.file 21 "../../../libpurple/conversation.h"
	.file 22 "../../../libpurple/log.h"
	.file 23 "../../../libpurple/media/enum-types.h"
	.file 24 "../../../libpurple/media/../notify.h"
	.file 25 "../../../libpurple/proxy.h"
	.file 26 "../../../libpurple/privacy.h"
	.file 27 "session.h"
	.file 28 "nexus.h"
	.file 29 "notification.h"
	.file 30 "cmdproc.h"
	.file 31 "command.h"
	.file 32 "transaction.h"
	.file 33 "history.h"
	.file 34 "servconn.h"
	.file 35 "httpconn.h"
	.file 36 "../../../libpurple/circbuffer.h"
	.file 37 "table.h"
	.file 38 "user.h"
	.file 39 "object.h"
	.file 40 "userlist.h"
	.file 41 "oim.h"
	.file 42 "c:/workspace/pidgin-devel/win32-dev/mingw-4.7.2/bin/../lib/gcc/mingw32/4.7.2/../../../../include/ctype.h"
	.file 43 "../../../../win32-dev/gtk_2_0-2.14/include/glib-2.0/glib/gmem.h"
	.file 44 "../../../../win32-dev/gtk_2_0-2.14/include/libintl.h"
	.file 45 "../../../../win32-dev/gtk_2_0-2.14/include/glib-2.0/glib/gutils.h"
	.file 46 "../../../../win32-dev/gtk_2_0-2.14/include/glib-2.0/glib/gstrfuncs.h"
	.file 47 "../../../libpurple/debug.h"
	.file 48 "../../../libpurple/request.h"