	.file	"extplacement.c"
	.intel_syntax noprefix
	.text
Ltext0:
	.section .rdata,"dr"
LC0:
	.ascii "Conversation Placement\0"
LC1:
	.ascii "pidgin\0"
	.align 4
LC2:
	.ascii "Note: The preference for \"New conversations\" must be set to \"By conversation count\".\0"
	.align 4
LC3:
	.ascii "Number of conversations per window\0"
	.align 4
LC4:
	.ascii "/plugins/gtk/extplacement/placement_number\0"
	.align 4
LC5:
	.ascii "Separate IM and Chat windows when placing by number\0"
	.align 4
LC6:
	.ascii "/plugins/gtk/extplacement/placement_number_separate\0"
	.text
	.p2align 2,,3
	.def	_get_plugin_pref_frame;	.scl	3;	.type	32;	.endef
_get_plugin_pref_frame:
LFB96:
	.file 1 "extplacement.c"
	.loc 1 95 0
	.cfi_startproc
LVL0:
	push	esi
LCFI0:
	.cfi_def_cfa_offset 8
	.cfi_offset 6, -8
	push	ebx
LCFI1:
	.cfi_def_cfa_offset 12
	.cfi_offset 3, -12
	sub	esp, 36
LCFI2:
	.cfi_def_cfa_offset 48
	.loc 1 95 0
	mov	eax, DWORD PTR ___stack_chk_guard
	mov	DWORD PTR [esp+28], eax
	xor	eax, eax
	.loc 1 99 0
	call	_purple_plugin_pref_frame_new
LVL1:
	mov	ebx, eax
LVL2:
	.loc 1 101 0
	mov	DWORD PTR [esp+4], OFFSET FLAT:LC0
	mov	DWORD PTR [esp], OFFSET FLAT:LC1
	call	_libintl_dgettext
LVL3:
	mov	DWORD PTR [esp], eax
	call	_purple_plugin_pref_new_with_label
LVL4:
	.loc 1 102 0
	mov	DWORD PTR [esp+4], eax
	mov	DWORD PTR [esp], ebx
	call	_purple_plugin_pref_frame_add
LVL5:
	.loc 1 105 0
	mov	DWORD PTR [esp+4], OFFSET FLAT:LC2
	mov	DWORD PTR [esp], OFFSET FLAT:LC1
	call	_libintl_dgettext
LVL6:
	mov	DWORD PTR [esp], eax
	call	_purple_plugin_pref_new_with_label
LVL7:
	mov	esi, eax
LVL8:
	.loc 1 106 0
	mov	DWORD PTR [esp+4], 2
	mov	DWORD PTR [esp], eax
	call	_purple_plugin_pref_set_type
LVL9:
	.loc 1 107 0
	mov	DWORD PTR [esp+4], esi
	mov	DWORD PTR [esp], ebx
	call	_purple_plugin_pref_frame_add
LVL10:
	.loc 1 111 0
	mov	DWORD PTR [esp+4], OFFSET FLAT:LC3
	mov	DWORD PTR [esp], OFFSET FLAT:LC1
	call	_libintl_dgettext
LVL11:
	.loc 1 109 0
	mov	DWORD PTR [esp+4], eax
	mov	DWORD PTR [esp], OFFSET FLAT:LC4
	call	_purple_plugin_pref_new_with_name_and_label
LVL12:
	mov	esi, eax
LVL13:
	.loc 1 112 0
	mov	DWORD PTR [esp+8], 50
	mov	DWORD PTR [esp+4], 1
	mov	DWORD PTR [esp], eax
	call	_purple_plugin_pref_set_bounds
LVL14:
	.loc 1 113 0
	mov	DWORD PTR [esp+4], esi
	mov	DWORD PTR [esp], ebx
	call	_purple_plugin_pref_frame_add
LVL15:
	.loc 1 117 0
	mov	DWORD PTR [esp+4], OFFSET FLAT:LC5
	mov	DWORD PTR [esp], OFFSET FLAT:LC1
	call	_libintl_dgettext
LVL16:
	.loc 1 115 0
	mov	DWORD PTR [esp+4], eax
	mov	DWORD PTR [esp], OFFSET FLAT:LC6
	call	_purple_plugin_pref_new_with_name_and_label
LVL17:
	.loc 1 118 0
	mov	DWORD PTR [esp+4], eax
	mov	DWORD PTR [esp], ebx
	call	_purple_plugin_pref_frame_add
LVL18:
	.loc 1 121 0
	mov	edx, DWORD PTR [esp+28]
	xor	edx, DWORD PTR ___stack_chk_guard
	jne	L5
	mov	eax, ebx
	add	esp, 36
LCFI3:
	.cfi_remember_state
	.cfi_def_cfa_offset 12
	pop	ebx
LCFI4:
	.cfi_restore 3
	.cfi_def_cfa_offset 8
LVL19:
	pop	esi
LCFI5:
	.cfi_restore 6
	.cfi_def_cfa_offset 4
	ret
LVL20:
L5:
LCFI6:
	.cfi_restore_state
	call	___stack_chk_fail
LVL21:
	.cfi_endproc
LFE96:
	.section .rdata,"dr"
LC7:
	.ascii "number\0"
	.align 4
LC8:
	.ascii "/pidgin/conversations/placement\0"
	.text
	.p2align 2,,3
	.def	_plugin_unload;	.scl	3;	.type	32;	.endef
_plugin_unload:
LFB95:
	.loc 1 88 0
	.cfi_startproc
LVL22:
	sub	esp, 44
LCFI7:
	.cfi_def_cfa_offset 48
	.loc 1 88 0
	mov	eax, DWORD PTR ___stack_chk_guard
	mov	DWORD PTR [esp+28], eax
	xor	eax, eax
	.loc 1 89 0
	mov	DWORD PTR [esp], OFFSET FLAT:LC7
	call	_pidgin_conv_placement_remove_fnc
LVL23:
	.loc 1 90 0
	mov	DWORD PTR [esp], OFFSET FLAT:LC8
	call	_purple_prefs_trigger_callback
LVL24:
	.loc 1 92 0
	mov	eax, 1
	mov	edx, DWORD PTR [esp+28]
	xor	edx, DWORD PTR ___stack_chk_guard
	jne	L9
	add	esp, 44
LCFI8:
	.cfi_remember_state
	.cfi_def_cfa_offset 4
	ret
L9:
LCFI9:
	.cfi_restore_state
	call	___stack_chk_fail
LVL25:
	.cfi_endproc
LFE95:
	.section .rdata,"dr"
LC9:
	.ascii "By conversation count\0"
	.text
	.p2align 2,,3
	.def	_plugin_load;	.scl	3;	.type	32;	.endef
_plugin_load:
LFB94:
	.loc 1 79 0
	.cfi_startproc
LVL26:
	sub	esp, 44
LCFI10:
	.cfi_def_cfa_offset 48
	.loc 1 79 0
	mov	eax, DWORD PTR ___stack_chk_guard
	mov	DWORD PTR [esp+28], eax
	xor	eax, eax
	.loc 1 80 0
	mov	DWORD PTR [esp+4], OFFSET FLAT:LC9
	mov	DWORD PTR [esp], OFFSET FLAT:LC1
	call	_libintl_dgettext
LVL27:
	mov	DWORD PTR [esp+8], OFFSET FLAT:_conv_placement_by_number
	mov	DWORD PTR [esp+4], eax
	mov	DWORD PTR [esp], OFFSET FLAT:LC7
	call	_pidgin_conv_placement_add_fnc
LVL28:
	.loc 1 82 0
	mov	DWORD PTR [esp], OFFSET FLAT:LC8
	call	_purple_prefs_trigger_callback
LVL29:
	.loc 1 84 0
	mov	eax, 1
	mov	edx, DWORD PTR [esp+28]
	xor	edx, DWORD PTR ___stack_chk_guard
	jne	L13
	add	esp, 44
LCFI11:
	.cfi_remember_state
	.cfi_def_cfa_offset 4
	ret
L13:
LCFI12:
	.cfi_restore_state
	call	___stack_chk_fail
LVL30:
	.cfi_endproc
LFE94:
	.p2align 2,,3
	.def	_conv_placement_by_number;	.scl	3;	.type	32;	.endef
_conv_placement_by_number:
LFB93:
	.loc 1 33 0
	.cfi_startproc
LVL31:
	push	ebp
LCFI13:
	.cfi_def_cfa_offset 8
	.cfi_offset 5, -8
	push	edi
LCFI14:
	.cfi_def_cfa_offset 12
	.cfi_offset 7, -12
	push	esi
LCFI15:
	.cfi_def_cfa_offset 16
	.cfi_offset 6, -16
	push	ebx
LCFI16:
	.cfi_def_cfa_offset 20
	.cfi_offset 3, -20
	sub	esp, 60
LCFI17:
	.cfi_def_cfa_offset 80
	mov	ebp, DWORD PTR [esp+80]
	.loc 1 33 0
	mov	eax, DWORD PTR ___stack_chk_guard
	mov	DWORD PTR [esp+44], eax
	xor	eax, eax
LVL32:
	.loc 1 37 0
	mov	DWORD PTR [esp], OFFSET FLAT:LC6
	call	_purple_prefs_get_bool
LVL33:
	test	eax, eax
	je	L15
	.loc 1 38 0
	mov	eax, DWORD PTR [ebp+0]
	mov	DWORD PTR [esp], eax
	call	_purple_conversation_get_type
LVL34:
	mov	DWORD PTR [esp], eax
	call	_pidgin_conv_window_last_with_type
LVL35:
	mov	ebx, eax
LVL36:
L16:
	.loc 1 42 0
	test	ebx, ebx
	je	L29
LBB2:
	.loc 1 48 0
	mov	DWORD PTR [esp], OFFSET FLAT:LC4
	call	_purple_prefs_get_int
LVL37:
	mov	DWORD PTR [esp+28], eax
LVL38:
	.loc 1 49 0
	mov	DWORD PTR [esp], ebx
	call	_pidgin_conv_window_get_gtkconv_count
LVL39:
	.loc 1 51 0
	cmp	DWORD PTR [esp+28], eax
	jg	L38
LVL40:
LBB3:
	.loc 1 56 0
	call	_pidgin_conv_windows_get_list
LVL41:
	mov	ebx, eax
LVL42:
	test	eax, eax
	jne	L33
	jmp	L29
LVL43:
	.p2align 2,,3
L24:
	.loc 1 60 0 discriminator 1
	mov	DWORD PTR [esp], esi
	call	_pidgin_conv_window_get_active_conversation
LVL44:
	mov	DWORD PTR [esp], eax
	call	_purple_conversation_get_type
LVL45:
	mov	edi, eax
	mov	eax, DWORD PTR [ebp+0]
	mov	DWORD PTR [esp], eax
	call	_purple_conversation_get_type
LVL46:
	.loc 1 59 0 discriminator 1
	cmp	edi, eax
	je	L27
L26:
	.loc 1 56 0
	mov	ebx, DWORD PTR [ebx+4]
LVL47:
	test	ebx, ebx
	je	L29
LVL48:
L33:
	.loc 1 57 0
	mov	esi, DWORD PTR [ebx]
LVL49:
	.loc 1 59 0
	mov	DWORD PTR [esp], OFFSET FLAT:LC6
	call	_purple_prefs_get_bool
LVL50:
	test	eax, eax
	jne	L24
L27:
	.loc 1 63 0
	mov	DWORD PTR [esp], esi
	call	_pidgin_conv_window_get_gtkconv_count
LVL51:
	.loc 1 64 0
	cmp	DWORD PTR [esp+28], eax
	jle	L26
	.loc 1 65 0
	mov	DWORD PTR [esp+4], ebp
	mov	DWORD PTR [esp], esi
	call	_pidgin_conv_window_add_gtkconv
LVL52:
L14:
LBE3:
LBE2:
	.loc 1 75 0
	mov	eax, DWORD PTR [esp+44]
	xor	eax, DWORD PTR ___stack_chk_guard
	jne	L37
	add	esp, 60
LCFI18:
	.cfi_remember_state
	.cfi_def_cfa_offset 20
	pop	ebx
LCFI19:
	.cfi_restore 3
	.cfi_def_cfa_offset 16
	pop	esi
LCFI20:
	.cfi_restore 6
	.cfi_def_cfa_offset 12
	pop	edi
LCFI21:
	.cfi_restore 7
	.cfi_def_cfa_offset 8
	pop	ebp
LCFI22:
	.cfi_restore 5
	.cfi_def_cfa_offset 4
	ret
LVL53:
	.p2align 2,,3
L15:
LCFI23:
	.cfi_restore_state
	.loc 1 39 0
	call	_pidgin_conv_windows_get_list
LVL54:
	test	eax, eax
	je	L29
	.loc 1 40 0
	mov	DWORD PTR [esp], eax
	call	_g_list_last
LVL55:
	mov	ebx, DWORD PTR [eax]
LVL56:
	jmp	L16
LVL57:
	.p2align 2,,3
L29:
LBB6:
LBB4:
	.loc 1 69 0
	call	_pidgin_conv_window_new
LVL58:
	mov	ebx, eax
LVL59:
	.loc 1 71 0
	mov	DWORD PTR [esp+4], ebp
	mov	DWORD PTR [esp], eax
	call	_pidgin_conv_window_add_gtkconv
LVL60:
	.loc 1 72 0
	mov	eax, DWORD PTR [esp+44]
	xor	eax, DWORD PTR ___stack_chk_guard
	jne	L37
	mov	DWORD PTR [esp+80], ebx
LBE4:
LBE6:
	.loc 1 75 0
	add	esp, 60
LCFI24:
	.cfi_remember_state
	.cfi_def_cfa_offset 20
	pop	ebx
LCFI25:
	.cfi_restore 3
	.cfi_def_cfa_offset 16
LVL61:
	pop	esi
LCFI26:
	.cfi_restore 6
	.cfi_def_cfa_offset 12
	pop	edi
LCFI27:
	.cfi_restore 7
	.cfi_def_cfa_offset 8
	pop	ebp
LCFI28:
	.cfi_restore 5
	.cfi_def_cfa_offset 4
LBB7:
LBB5:
	.loc 1 72 0
	jmp	_pidgin_conv_window_show
LVL62:
	.p2align 2,,3
L38:
LCFI29:
	.cfi_restore_state
LBE5:
	.loc 1 52 0
	mov	DWORD PTR [esp+4], ebp
	mov	DWORD PTR [esp], ebx
	call	_pidgin_conv_window_add_gtkconv
LVL63:
	jmp	L14
LVL64:
L37:
LBE7:
	.loc 1 75 0
	call	___stack_chk_fail
LVL65:
	.cfi_endproc
LFE93:
	.section .rdata,"dr"
LC10:
	.ascii "/plugins/gtk/extplacement\0"
	.text
	.p2align 2,,3
	.globl	_purple_init_plugin
	.def	_purple_init_plugin;	.scl	2;	.type	32;	.endef
_purple_init_plugin:
LFB98:
	.loc 1 177 0
	.cfi_startproc
LVL66:
	push	ebx
LCFI30:
	.cfi_def_cfa_offset 8
	.cfi_offset 3, -8
	sub	esp, 40
LCFI31:
	.cfi_def_cfa_offset 48
	mov	ebx, DWORD PTR [esp+48]
	.loc 1 177 0
	mov	eax, DWORD PTR ___stack_chk_guard
	mov	DWORD PTR [esp+28], eax
	xor	eax, eax
	mov	DWORD PTR [ebx+16], OFFSET FLAT:_info
LBB10:
LBB11:
	.loc 1 172 0
	mov	DWORD PTR [esp], OFFSET FLAT:LC10
	call	_purple_prefs_add_none
LVL67:
	.loc 1 173 0
	mov	DWORD PTR [esp+4], 4
	mov	DWORD PTR [esp], OFFSET FLAT:LC4
	call	_purple_prefs_add_int
LVL68:
	.loc 1 174 0
	mov	DWORD PTR [esp+4], 0
	mov	DWORD PTR [esp], OFFSET FLAT:LC6
	call	_purple_prefs_add_bool
LVL69:
LBE11:
LBE10:
	.loc 1 177 0
	mov	eax, DWORD PTR [esp+28]
	xor	eax, DWORD PTR ___stack_chk_guard
	jne	L43
	mov	DWORD PTR [esp+48], ebx
	add	esp, 40
LCFI32:
	.cfi_remember_state
	.cfi_def_cfa_offset 8
	pop	ebx
LCFI33:
	.cfi_restore 3
	.cfi_def_cfa_offset 4
	jmp	_purple_plugin_register
LVL70:
L43:
LCFI34:
	.cfi_restore_state
	call	___stack_chk_fail
LVL71:
	.cfi_endproc
LFE98:
	.section .rdata,"dr"
LC11:
	.ascii "gtk-gaim\0"
LC12:
	.ascii "gtk-extplacement\0"
LC13:
	.ascii "ExtPlacement\0"
LC14:
	.ascii "2.10.11\0"
	.align 4
LC15:
	.ascii "Extra conversation placement options.\0"
	.align 4
LC16:
	.ascii "Restrict the number of conversations per windows, optionally separating IMs and Chats\0"
	.align 4
LC17:
	.ascii "Stu Tomlinson <stu@nosnilmot.com>\0"
LC18:
	.ascii "http://pidgin.im/\0"
	.data
	.align 32
_info:
	.long	5
	.long	2
	.long	10
	.long	0
	.long	LC11
	.long	0
	.long	0
	.long	0
	.long	LC12
	.long	LC13
	.long	LC14
	.long	LC15
	.long	LC16
	.long	LC17
	.long	LC18
	.long	_plugin_load
	.long	_plugin_unload
	.long	0
	.long	0
	.long	0
	.long	_prefs_info
	.long	0
	.long	0
	.long	0
	.long	0
	.long	0
	.align 4
_prefs_info:
	.long	_get_plugin_pref_frame
	.long	0
	.long	0
	.long	0
	.long	0
	.long	0
	.long	0
	.text
Letext0:
	.file 2 "c:/workspace/pidgin-devel/win32-dev/mingw-4.7.2/bin/../lib/gcc/mingw32/4.7.2/../../../../include/stdio.h"
	.file 3 "c:/workspace/pidgin-devel/win32-dev/mingw-4.7.2/bin/../lib/gcc/mingw32/4.7.2/../../../../include/sys/types.h"
	.file 4 "c:/workspace/pidgin-devel/win32-dev/mingw-4.7.2/bin/../lib/gcc/mingw32/4.7.2/../../../../include/time.h"
	.file 5 "../../../win32-dev/gtk_2_0-2.14/lib/glib-2.0/include/glibconfig.h"
	.file 6 "../../../win32-dev/gtk_2_0-2.14/include/glib-2.0/glib/gtypes.h"
	.file 7 "../../../win32-dev/gtk_2_0-2.14/include/glib-2.0/glib/garray.h"
	.file 8 "../../../win32-dev/gtk_2_0-2.14/include/glib-2.0/glib/gquark.h"
	.file 9 "../../../win32-dev/gtk_2_0-2.14/include/glib-2.0/glib/glist.h"
	.file 10 "../../../win32-dev/gtk_2_0-2.14/include/glib-2.0/glib/gdataset.h"
	.file 11 "../../../win32-dev/gtk_2_0-2.14/include/glib-2.0/glib/ghash.h"
	.file 12 "../../../win32-dev/gtk_2_0-2.14/include/glib-2.0/glib/gslist.h"
	.file 13 "../../../win32-dev/gtk_2_0-2.14/include/glib-2.0/gobject/gtype.h"
	.file 14 "../../../win32-dev/gtk_2_0-2.14/include/glib-2.0/gobject/gvalue.h"
	.file 15 "../../../win32-dev/gtk_2_0-2.14/include/glib-2.0/glib/gscanner.h"
	.file 16 "../../../win32-dev/gtk_2_0-2.14/include/glib-2.0/gobject/gparam.h"
	.file 17 "../../../win32-dev/gtk_2_0-2.14/include/glib-2.0/gobject/gclosure.h"
	.file 18 "../../../win32-dev/gtk_2_0-2.14/include/glib-2.0/gobject/gsignal.h"
	.file 19 "../../../win32-dev/gtk_2_0-2.14/include/glib-2.0/gobject/gobject.h"
	.file 20 "../../libpurple/account.h"
	.file 21 "../../libpurple/connection.h"
	.file 22 "../../libpurple/plugin.h"
	.file 23 "../../libpurple/pluginpref.h"
	.file 24 "../../libpurple/status.h"
	.file 25 "../../libpurple/buddyicon.h"
	.file 26 "../../libpurple/conversation.h"
	.file 27 "../../libpurple/log.h"
	.file 28 "../../libpurple/proxy.h"
	.file 29 "c:/workspace/pidgin-devel/win32-dev/mingw-4.7.2/bin/../lib/gcc/mingw32/4.7.2/../../../../include/wtypes.h"
	.file 30 "../../libpurple/privacy.h"
	.file 31 "../../../win32-dev/gtk_2_0-2.14/include/pango-1.0/pango/pango-font.h"
	.file 32 "../../../win32-dev/gtk_2_0-2.14/include/gtk-2.0/gdk/gdktypes.h"
	.file 33 "../../../win32-dev/gtk_2_0-2.14/include/gtk-2.0/gdk/gdkcolor.h"
	.file 34 "../../../win32-dev/gtk_2_0-2.14/include/gtk-2.0/gdk/gdkfont.h"
	.file 35 "../../../win32-dev/gtk_2_0-2.14/include/gtk-2.0/gdk/gdkgc.h"
	.file 36 "../../../win32-dev/gtk_2_0-2.14/include/gtk-2.0/gdk/gdkvisual.h"
	.file 37 "../../../win32-dev/gtk_2_0-2.14/include/gtk-2.0/gdk/gdkdrawable.h"
	.file 38 "../../../win32-dev/gtk_2_0-2.14/include/gtk-2.0/gdk/gdkinput.h"
	.file 39 "../../../win32-dev/gtk_2_0-2.14/include/gtk-2.0/gdk-pixbuf/gdk-pixbuf-animation.h"
	.file 40 "../../../win32-dev/gtk_2_0-2.14/include/gtk-2.0/gtk/gtkenums.h"
	.file 41 "../../../win32-dev/gtk_2_0-2.14/include/gtk-2.0/gtk/gtkaccelgroup.h"
	.file 42 "../../../win32-dev/gtk_2_0-2.14/include/gtk-2.0/gtk/gtktypeutils.h"
	.file 43 "../../../win32-dev/gtk_2_0-2.14/include/gtk-2.0/gtk/gtkobject.h"
	.file 44 "../../../win32-dev/gtk_2_0-2.14/include/gtk-2.0/gtk/gtkstyle.h"
	.file 45 "../../../win32-dev/gtk_2_0-2.14/include/gtk-2.0/gtk/gtkrc.h"
	.file 46 "../../../win32-dev/gtk_2_0-2.14/include/gtk-2.0/gtk/gtkwidget.h"
	.file 47 "../../../win32-dev/gtk_2_0-2.14/include/gtk-2.0/gtk/gtktreemodel.h"
	.file 48 "../../../win32-dev/gtk_2_0-2.14/include/gtk-2.0/gtk/gtktreesortable.h"
	.file 49 "../../../win32-dev/gtk_2_0-2.14/include/gtk-2.0/gtk/gtktexttag.h"
	.file 50 "../../../win32-dev/gtk_2_0-2.14/include/gtk-2.0/gtk/gtktexttagtable.h"
	.file 51 "../../../win32-dev/gtk_2_0-2.14/include/gtk-2.0/gtk/gtktextiter.h"
	.file 52 "../../../win32-dev/gtk_2_0-2.14/include/gtk-2.0/gtk/gtktextbuffer.h"
	.file 53 "../../../win32-dev/gtk_2_0-2.14/include/gtk-2.0/gtk/gtkliststore.h"
	.file 54 "../../../win32-dev/gtk_2_0-2.14/include/gtk-2.0/gtk/gtktooltips.h"
	.file 55 "../../../win32-dev/gtk_2_0-2.14/include/gtk-2.0/gtk/gtksizegroup.h"
	.file 56 "../../../win32-dev/gtk_2_0-2.14/include/gtk-2.0/gtk/gtkitemfactory.h"
	.file 57 "../../pidgin/gtkconv.h"
	.file 58 "../../pidgin/gtkconvwin.h"
	.file 59 "c:/workspace/pidgin-devel/win32-dev/mingw-4.7.2/bin/../lib/gcc/mingw32/4.7.2/../../../../include/ctype.h"
	.file 60 "../../../win32-dev/gtk_2_0-2.14/include/libintl.h"
	.file 61 "../../libpurple/prefs.h"
	.section .drectve
	.ascii " -export:\"purple_init_plugin\""
