	.file	"facebook_roster.c"
	.intel_syntax noprefix
	.text
Ltext0:
	.section .rdata,"dr"
LC0:
	.ascii "item\0"
LC1:
	.ascii "jid\0"
LC2:
	.ascii "remove\0"
LC3:
	.ascii "subscription\0"
LC4:
	.ascii "name\0"
	.text
	.p2align 2,,3
	.globl	_jabber_facebook_roster_cleanup
	.def	_jabber_facebook_roster_cleanup;	.scl	2;	.type	32;	.endef
_jabber_facebook_roster_cleanup:
LFB93:
	.file 1 "facebook_roster.c"
	.loc 1 31 0
	.cfi_startproc
LVL0:
	push	ebp
LCFI0:
	.cfi_def_cfa_offset 8
	.cfi_offset 5, -8
	push	edi
LCFI1:
	.cfi_def_cfa_offset 12
	.cfi_offset 7, -12
	push	esi
LCFI2:
	.cfi_def_cfa_offset 16
	.cfi_offset 6, -16
	push	ebx
LCFI3:
	.cfi_def_cfa_offset 20
	.cfi_offset 3, -20
	sub	esp, 92
LCFI4:
	.cfi_def_cfa_offset 112
	mov	ebx, DWORD PTR [esp+112]
	mov	esi, DWORD PTR [esp+116]
	.loc 1 31 0
	mov	eax, DWORD PTR ___stack_chk_guard
	mov	DWORD PTR [esp+76], eax
	xor	eax, eax
	.loc 1 32 0
	mov	eax, DWORD PTR [ebx+100]
	mov	DWORD PTR [esp], eax
	call	_purple_connection_get_account
LVL1:
	.loc 1 40 0
	mov	edx, DWORD PTR [ebx+336]
	test	edx, edx
	je	L28
LVL2:
L1:
	.loc 1 80 0
	mov	eax, DWORD PTR [esp+76]
	xor	eax, DWORD PTR ___stack_chk_guard
	jne	L29
	add	esp, 92
LCFI5:
	.cfi_remember_state
	.cfi_def_cfa_offset 20
	pop	ebx
LCFI6:
	.cfi_restore 3
	.cfi_def_cfa_offset 16
	pop	esi
LCFI7:
	.cfi_restore 6
	.cfi_def_cfa_offset 12
	pop	edi
LCFI8:
	.cfi_restore 7
	.cfi_def_cfa_offset 8
	pop	ebp
LCFI9:
	.cfi_restore 5
	.cfi_def_cfa_offset 4
	ret
LVL3:
	.p2align 2,,3
L28:
LCFI10:
	.cfi_restore_state
	mov	edi, eax
LVL4:
	.loc 1 42 0
	mov	DWORD PTR [ebx+336], 1
	.loc 1 45 0
	mov	DWORD PTR [esp+12], 0
	mov	DWORD PTR [esp+8], OFFSET FLAT:_g_free
	mov	DWORD PTR [esp+4], OFFSET FLAT:_g_str_equal
	mov	DWORD PTR [esp], OFFSET FLAT:_g_str_hash
	call	_g_hash_table_new_full
LVL5:
	mov	DWORD PTR [esp+24], eax
LVL6:
	.loc 1 47 0
	mov	DWORD PTR [esp+4], 0
	mov	DWORD PTR [esp], edi
	call	_purple_find_buddies
LVL7:
	mov	ebx, eax
LVL8:
	.loc 1 48 0
	test	eax, eax
	je	L7
	mov	ebp, DWORD PTR [esp+24]
	mov	DWORD PTR [esp+28], esi
LVL9:
	.p2align 2,,3
L18:
	.loc 1 51 0 discriminator 2
	mov	esi, DWORD PTR [ebx]
LVL10:
	mov	DWORD PTR [esp+44], esi
LVL11:
	.loc 1 53 0 discriminator 2
	mov	DWORD PTR [esp], esi
	call	_purple_buddy_get_name
LVL12:
	mov	DWORD PTR [esp+4], eax
	mov	DWORD PTR [esp], edi
	call	_jabber_normalize
LVL13:
	mov	DWORD PTR [esp], eax
	call	_g_strdup
LVL14:
	mov	DWORD PTR [esp+8], esi
	mov	DWORD PTR [esp+4], eax
	mov	DWORD PTR [esp], ebp
	call	_g_hash_table_insert
LVL15:
	.loc 1 48 0 discriminator 2
	mov	DWORD PTR [esp+4], ebx
	mov	DWORD PTR [esp], ebx
	call	_g_slist_delete_link
LVL16:
	mov	ebx, eax
LVL17:
	test	eax, eax
	jne	L18
	mov	esi, DWORD PTR [esp+28]
LVL18:
L7:
	.loc 1 58 0
	mov	DWORD PTR [esp+4], OFFSET FLAT:LC0
	mov	DWORD PTR [esp], esi
	call	_xmlnode_get_child
LVL19:
	mov	ebx, eax
LVL20:
	test	eax, eax
	je	L5
	mov	ebp, DWORD PTR [esp+24]
LVL21:
	.p2align 2,,3
L17:
	.loc 1 61 0
	mov	DWORD PTR [esp+4], OFFSET FLAT:LC1
	mov	DWORD PTR [esp], ebx
	call	_xmlnode_get_attrib
LVL22:
	mov	DWORD PTR [esp+48], eax
	.loc 1 64 0
	mov	DWORD PTR [esp+4], eax
	mov	DWORD PTR [esp], edi
	call	_jabber_normalize
LVL23:
	.loc 1 63 0
	mov	DWORD PTR [esp+4], eax
	mov	DWORD PTR [esp], ebp
	call	_g_hash_table_remove
LVL24:
	.loc 1 59 0
	mov	DWORD PTR [esp], ebx
	call	_xmlnode_get_next_twin
LVL25:
	mov	ebx, eax
LVL26:
	.loc 1 58 0
	test	eax, eax
	jne	L17
L5:
	.loc 1 68 0
	mov	eax, DWORD PTR [esp+24]
LVL27:
	mov	DWORD PTR [esp+4], eax
	lea	edi, [esp+52]
	mov	DWORD PTR [esp], edi
	call	_g_hash_table_iter_init
LVL28:
	.loc 1 69 0
	jmp	L23
	.p2align 2,,3
L11:
LBB2:
	.loc 1 70 0
	mov	eax, DWORD PTR [esp+44]
	mov	DWORD PTR [esp], eax
	call	_purple_buddy_get_local_buddy_alias
LVL29:
	mov	ebp, eax
LVL30:
	.loc 1 71 0
	mov	DWORD PTR [esp+4], OFFSET FLAT:LC0
	mov	DWORD PTR [esp], esi
	call	_xmlnode_new_child
LVL31:
	mov	ebx, eax
LVL32:
	.loc 1 72 0
	mov	DWORD PTR [esp], esi
	call	_xmlnode_get_namespace
LVL33:
	mov	DWORD PTR [esp+4], eax
	mov	DWORD PTR [esp], ebx
	call	_xmlnode_set_namespace
LVL34:
	.loc 1 73 0
	mov	eax, DWORD PTR [esp+48]
	mov	DWORD PTR [esp+8], eax
	mov	DWORD PTR [esp+4], OFFSET FLAT:LC1
	mov	DWORD PTR [esp], ebx
	call	_xmlnode_set_attrib
LVL35:
	.loc 1 74 0
	mov	DWORD PTR [esp+8], OFFSET FLAT:LC2
	mov	DWORD PTR [esp+4], OFFSET FLAT:LC3
	mov	DWORD PTR [esp], ebx
	call	_xmlnode_set_attrib
LVL36:
	.loc 1 75 0
	test	ebp, ebp
	jne	L30
LVL37:
L23:
LBE2:
	.loc 1 69 0 discriminator 1
	lea	eax, [esp+44]
	mov	DWORD PTR [esp+8], eax
	lea	eax, [esp+48]
	mov	DWORD PTR [esp+4], eax
	mov	DWORD PTR [esp], edi
	call	_g_hash_table_iter_next
LVL38:
	test	eax, eax
	jne	L11
	.loc 1 79 0
	mov	eax, DWORD PTR [esp+24]
	mov	DWORD PTR [esp], eax
	call	_g_hash_table_destroy
LVL39:
	jmp	L1
LVL40:
	.p2align 2,,3
L30:
LBB3:
	.loc 1 76 0
	mov	DWORD PTR [esp+8], ebp
	mov	DWORD PTR [esp+4], OFFSET FLAT:LC4
	mov	DWORD PTR [esp], ebx
	call	_xmlnode_set_attrib
LVL41:
	jmp	L23
LVL42:
L29:
LBE3:
	.loc 1 80 0
	call	___stack_chk_fail
LVL43:
	.cfi_endproc
LFE93:
	.section .rdata,"dr"
LC5:
	.ascii "group\0"
LC6:
	.ascii "Buddies\0"
LC7:
	.ascii "pidgin\0"
	.text
	.p2align 2,,3
	.globl	_jabber_facebook_roster_incoming
	.def	_jabber_facebook_roster_incoming;	.scl	2;	.type	32;	.endef
_jabber_facebook_roster_incoming:
LFB94:
	.loc 1 84 0
	.cfi_startproc
LVL44:
	push	ebp
LCFI11:
	.cfi_def_cfa_offset 8
	.cfi_offset 5, -8
	push	edi
LCFI12:
	.cfi_def_cfa_offset 12
	.cfi_offset 7, -12
	push	esi
LCFI13:
	.cfi_def_cfa_offset 16
	.cfi_offset 6, -16
	push	ebx
LCFI14:
	.cfi_def_cfa_offset 20
	.cfi_offset 3, -20
	sub	esp, 44
LCFI15:
	.cfi_def_cfa_offset 64
	mov	ebx, DWORD PTR [esp+68]
	.loc 1 84 0
	mov	eax, DWORD PTR ___stack_chk_guard
	mov	DWORD PTR [esp+28], eax
	xor	eax, eax
	.loc 1 85 0
	mov	eax, DWORD PTR [esp+64]
	mov	eax, DWORD PTR [eax+100]
	mov	DWORD PTR [esp], eax
	call	_purple_connection_get_account
LVL45:
	mov	esi, eax
LVL46:
	.loc 1 93 0
	mov	DWORD PTR [esp+4], OFFSET FLAT:LC3
	mov	DWORD PTR [esp], ebx
	call	_xmlnode_get_attrib
LVL47:
	.loc 1 96 0
	mov	DWORD PTR [esp+4], OFFSET FLAT:LC2
	mov	DWORD PTR [esp], eax
	call	_g_strcmp0
LVL48:
	test	eax, eax
	jne	L52
LVL49:
L32:
	.loc 1 135 0
	mov	eax, 1
	mov	edx, DWORD PTR [esp+28]
	xor	edx, DWORD PTR ___stack_chk_guard
	jne	L53
	add	esp, 44
LCFI16:
	.cfi_remember_state
	.cfi_def_cfa_offset 20
	pop	ebx
LCFI17:
	.cfi_restore 3
	.cfi_def_cfa_offset 16
	pop	esi
LCFI18:
	.cfi_restore 6
	.cfi_def_cfa_offset 12
	pop	edi
LCFI19:
	.cfi_restore 7
	.cfi_def_cfa_offset 8
	pop	ebp
LCFI20:
	.cfi_restore 5
	.cfi_def_cfa_offset 4
	ret
LVL50:
	.p2align 2,,3
L52:
LCFI21:
	.cfi_restore_state
	.loc 1 99 0
	mov	DWORD PTR [esp+4], OFFSET FLAT:LC1
	mov	DWORD PTR [esp], ebx
	call	_xmlnode_get_attrib
LVL51:
	mov	edi, eax
LVL52:
	.loc 1 100 0
	mov	DWORD PTR [esp+4], eax
	mov	DWORD PTR [esp], esi
	call	_jabber_normalize
LVL53:
	mov	DWORD PTR [esp], eax
	call	_g_strdup
LVL54:
	mov	ebp, eax
LVL55:
	.loc 1 101 0
	mov	DWORD PTR [esp+4], edi
	mov	DWORD PTR [esp], esi
	call	_purple_find_buddy
LVL56:
	mov	esi, eax
LVL57:
	.loc 1 102 0
	mov	DWORD PTR [esp], ebp
	call	_g_free
LVL58:
	.loc 1 105 0
	jmp	L33
LVL59:
	.p2align 2,,3
L34:
	.loc 1 106 0
	mov	DWORD PTR [esp], eax
	call	_xmlnode_free
LVL60:
L33:
	.loc 1 105 0 discriminator 1
	mov	DWORD PTR [esp+4], OFFSET FLAT:LC5
	mov	DWORD PTR [esp], ebx
	call	_xmlnode_get_child
LVL61:
	test	eax, eax
	jne	L34
	.loc 1 107 0
	mov	DWORD PTR [esp+4], OFFSET FLAT:LC5
	mov	DWORD PTR [esp], ebx
	call	_xmlnode_new_child
LVL62:
	mov	edi, eax
LVL63:
	.loc 1 108 0
	mov	DWORD PTR [esp], ebx
	call	_xmlnode_get_namespace
LVL64:
	mov	DWORD PTR [esp+4], eax
	mov	DWORD PTR [esp], edi
	call	_xmlnode_set_namespace
LVL65:
	.loc 1 111 0
	test	esi, esi
	je	L37
	.loc 1 118 0
	mov	DWORD PTR [esp], esi
	call	_purple_buddy_get_local_buddy_alias
LVL66:
	.loc 1 119 0
	test	eax, eax
	je	L36
	.loc 1 120 0
	mov	DWORD PTR [esp+8], eax
	mov	DWORD PTR [esp+4], OFFSET FLAT:LC4
	mov	DWORD PTR [esp], ebx
	call	_xmlnode_set_attrib
LVL67:
L36:
	.loc 1 123 0
	mov	DWORD PTR [esp], esi
	call	_purple_buddy_get_group
LVL68:
	mov	ebx, eax
LVL69:
	.loc 1 124 0
	mov	DWORD PTR [esp+4], OFFSET FLAT:LC6
	mov	DWORD PTR [esp], OFFSET FLAT:LC7
	call	_libintl_dgettext
LVL70:
	mov	esi, eax
LVL71:
	mov	DWORD PTR [esp], ebx
	call	_purple_group_get_name
LVL72:
	mov	DWORD PTR [esp+4], esi
	mov	DWORD PTR [esp], eax
	call	_g_strcmp0
LVL73:
	test	eax, eax
	je	L37
	.loc 1 126 0
	test	ebx, ebx
	je	L37
	.loc 1 127 0
	mov	DWORD PTR [esp], ebx
	call	_purple_group_get_name
LVL74:
	mov	DWORD PTR [esp+8], -1
	mov	DWORD PTR [esp+4], eax
	mov	DWORD PTR [esp], edi
	call	_xmlnode_insert_data
LVL75:
	jmp	L32
LVL76:
	.p2align 2,,3
L37:
	.loc 1 130 0
	mov	DWORD PTR [esp+8], -1
	mov	DWORD PTR [esp+4], OFFSET FLAT:LC6
	mov	DWORD PTR [esp], edi
	call	_xmlnode_insert_data
LVL77:
	jmp	L32
LVL78:
L53:
	.loc 1 135 0
	call	___stack_chk_fail
LVL79:
	.cfi_endproc
LFE94:
Letext0:
	.file 2 "jabber.h"
	.file 3 "c:/workspace/pidgin-devel/win32-dev/mingw-4.7.2/bin/../lib/gcc/mingw32/4.7.2/include/stddef.h"
	.file 4 "c:/workspace/pidgin-devel/win32-dev/mingw-4.7.2/bin/../lib/gcc/mingw32/4.7.2/../../../../include/stdio.h"
	.file 5 "c:/workspace/pidgin-devel/win32-dev/mingw-4.7.2/bin/../lib/gcc/mingw32/4.7.2/../../../../include/sys/types.h"
	.file 6 "../../../../win32-dev/libxml2-2.9.0/include/libxml2/libxml/xmlstring.h"
	.file 7 "../../../../win32-dev/libxml2-2.9.0/include/libxml2/libxml/tree.h"
	.file 8 "../../../../win32-dev/libxml2-2.9.0/include/libxml2/libxml/xmlIO.h"
	.file 9 "../../../../win32-dev/libxml2-2.9.0/include/libxml2/libxml/parser.h"
	.file 10 "../../../../win32-dev/libxml2-2.9.0/include/libxml2/libxml/entities.h"
	.file 11 "../../../../win32-dev/libxml2-2.9.0/include/libxml2/libxml/dict.h"
	.file 12 "../../../../win32-dev/libxml2-2.9.0/include/libxml2/libxml/hash.h"
	.file 13 "../../../../win32-dev/libxml2-2.9.0/include/libxml2/libxml/xmlerror.h"
	.file 14 "../../../../win32-dev/libxml2-2.9.0/include/libxml2/libxml/xmlautomata.h"
	.file 15 "../../../../win32-dev/libxml2-2.9.0/include/libxml2/libxml/valid.h"
	.file 16 "../../../../win32-dev/libxml2-2.9.0/include/libxml2/libxml/encoding.h"
	.file 17 "../../../../win32-dev/gtk_2_0-2.14/lib/glib-2.0/include/glibconfig.h"
	.file 18 "../../../../win32-dev/gtk_2_0-2.14/include/glib-2.0/glib/gtypes.h"
	.file 19 "../../../../win32-dev/gtk_2_0-2.14/include/glib-2.0/glib/garray.h"
	.file 20 "c:/workspace/pidgin-devel/win32-dev/mingw-4.7.2/bin/../lib/gcc/mingw32/4.7.2/../../../../include/time.h"
	.file 21 "../../../../win32-dev/gtk_2_0-2.14/include/glib-2.0/glib/glist.h"
	.file 22 "../../../../win32-dev/gtk_2_0-2.14/include/glib-2.0/glib/ghash.h"
	.file 23 "../../../../win32-dev/gtk_2_0-2.14/include/glib-2.0/glib/gslist.h"
	.file 24 "../../../../win32-dev/gtk_2_0-2.14/include/glib-2.0/glib/gstring.h"
	.file 25 "../../../libpurple/circbuffer.h"
	.file 26 "../../../libpurple/connection.h"
	.file 27 "../../../libpurple/account.h"
	.file 28 "../../../libpurple/log.h"
	.file 29 "../../../libpurple/conversation.h"
	.file 30 "../../../libpurple/buddyicon.h"
	.file 31 "../../../libpurple/blist.h"
	.file 32 "../../../libpurple/media/enum-types.h"
	.file 33 "../../../libpurple/media/../xmlnode.h"
	.file 34 "../../../libpurple/status.h"
	.file 35 "../../../libpurple/eventloop.h"
	.file 36 "../../../libpurple/proxy.h"
	.file 37 "../../../libpurple/plugin.h"
	.file 38 "../../../libpurple/pluginpref.h"
	.file 39 "../../../libpurple/roomlist.h"
	.file 40 "../../../libpurple/privacy.h"
	.file 41 "../../../libpurple/sslconn.h"
	.file 42 "../../../libpurple/certificate.h"
	.file 43 "../../../libpurple/dnsquery.h"
	.file 44 "../../../libpurple/dnssrv.h"
	.file 45 "auth.h"
	.file 46 "jutil.h"
	.file 47 "buddy.h"
	.file 48 "bosh.h"
	.file 49 "../../../../win32-dev/cyrus-sasl-2.1.25/include/sasl/sasl.h"
	.file 50 "c:/workspace/pidgin-devel/win32-dev/mingw-4.7.2/bin/../lib/gcc/mingw32/4.7.2/../../../../include/stdlib.h"
	.file 51 "c:/workspace/pidgin-devel/win32-dev/mingw-4.7.2/bin/../lib/gcc/mingw32/4.7.2/../../../../include/ctype.h"
	.file 52 "../../../../win32-dev/gtk_2_0-2.14/include/glib-2.0/glib/gstrfuncs.h"
	.file 53 "../../../../win32-dev/gtk_2_0-2.14/include/glib-2.0/glib/gtestutils.h"
	.file 54 "../../../../win32-dev/gtk_2_0-2.14/include/glib-2.0/glib/gmem.h"
	.file 55 "../../../../win32-dev/gtk_2_0-2.14/include/libintl.h"