	.file	"family_icbm.c"
	.intel_syntax noprefix
	.text
Ltext0:
	.p2align 2,,3
	.def	_incomingim_ch2_buddyicon_free;	.scl	3;	.type	32;	.endef
_incomingim_ch2_buddyicon_free:
LFB111:
	.file 1 "family_icbm.c"
	.loc 1 1081 0
	.cfi_startproc
LVL0:
	sub	esp, 28
LCFI0:
	.cfi_def_cfa_offset 32
	mov	eax, DWORD PTR [esp+36]
	.loc 1 1081 0
	mov	edx, DWORD PTR ___stack_chk_guard
	mov	DWORD PTR [esp+12], edx
	xor	edx, edx
	.loc 1 1082 0
	mov	edx, DWORD PTR [esp+12]
	xor	edx, DWORD PTR ___stack_chk_guard
	jne	L6
	mov	eax, DWORD PTR [eax+80]
	mov	DWORD PTR [esp+32], eax
	.loc 1 1085 0
	add	esp, 28
LCFI1:
	.cfi_remember_state
	.cfi_def_cfa_offset 4
	.loc 1 1082 0
	jmp	_g_free
LVL1:
L6:
LCFI2:
	.cfi_restore_state
	call	___stack_chk_fail
LVL2:
	.cfi_endproc
LFE111:
	.p2align 2,,3
	.def	_incomingim_ch2_chat_free;	.scl	3;	.type	32;	.endef
_incomingim_ch2_chat_free:
LFB113:
	.loc 1 1102 0
	.cfi_startproc
LVL3:
	sub	esp, 28
LCFI3:
	.cfi_def_cfa_offset 32
	mov	eax, DWORD PTR [esp+36]
	.loc 1 1102 0
	mov	edx, DWORD PTR ___stack_chk_guard
	mov	DWORD PTR [esp+12], edx
	xor	edx, edx
	.loc 1 1104 0
	mov	edx, DWORD PTR [esp+12]
	xor	edx, DWORD PTR ___stack_chk_guard
	jne	L11
	mov	eax, DWORD PTR [eax+72]
	mov	DWORD PTR [esp+32], eax
	.loc 1 1107 0
	add	esp, 28
LCFI4:
	.cfi_remember_state
	.cfi_def_cfa_offset 4
	.loc 1 1104 0
	jmp	_g_free
LVL4:
L11:
LCFI5:
	.cfi_restore_state
	call	___stack_chk_fail
LVL5:
	.cfi_endproc
LFE113:
	.p2align 2,,3
	.def	_incomingim_ch2_icqserverrelay_free;	.scl	3;	.type	32;	.endef
_incomingim_ch2_icqserverrelay_free:
LFB115:
	.loc 1 1122 0
	.cfi_startproc
LVL6:
	sub	esp, 28
LCFI6:
	.cfi_def_cfa_offset 32
	mov	eax, DWORD PTR [esp+36]
	.loc 1 1122 0
	mov	edx, DWORD PTR ___stack_chk_guard
	mov	DWORD PTR [esp+12], edx
	xor	edx, edx
	.loc 1 1123 0
	mov	edx, DWORD PTR [esp+12]
	xor	edx, DWORD PTR ___stack_chk_guard
	jne	L16
	mov	eax, DWORD PTR [eax+72]
	mov	DWORD PTR [esp+32], eax
	.loc 1 1124 0
	add	esp, 28
LCFI7:
	.cfi_remember_state
	.cfi_def_cfa_offset 4
	.loc 1 1123 0
	jmp	_g_free
LVL7:
L16:
LCFI8:
	.cfi_restore_state
	call	___stack_chk_fail
LVL8:
	.cfi_endproc
LFE115:
	.p2align 2,,3
	.def	_incomingim_ch2_sendfile_free;	.scl	3;	.type	32;	.endef
_incomingim_ch2_sendfile_free:
LFB117:
	.loc 1 1169 0
	.cfi_startproc
LVL9:
	sub	esp, 28
LCFI9:
	.cfi_def_cfa_offset 32
	mov	eax, DWORD PTR [esp+36]
	.loc 1 1169 0
	mov	edx, DWORD PTR ___stack_chk_guard
	mov	DWORD PTR [esp+12], edx
	xor	edx, edx
	.loc 1 1170 0
	mov	edx, DWORD PTR [esp+12]
	xor	edx, DWORD PTR ___stack_chk_guard
	jne	L21
	mov	eax, DWORD PTR [eax+76]
	mov	DWORD PTR [esp+32], eax
	.loc 1 1171 0
	add	esp, 28
LCFI10:
	.cfi_remember_state
	.cfi_def_cfa_offset 4
	.loc 1 1170 0
	jmp	_g_free
LVL10:
L21:
LCFI11:
	.cfi_restore_state
	call	___stack_chk_fail
LVL11:
	.cfi_endproc
LFE117:
	.p2align 2,,3
	.def	_aim_im_puticbm;	.scl	3;	.type	32;	.endef
_aim_im_puticbm:
LFB93:
	.loc 1 88 0
	.cfi_startproc
LVL12:
	push	ebp
LCFI12:
	.cfi_def_cfa_offset 8
	.cfi_offset 5, -8
	push	edi
LCFI13:
	.cfi_def_cfa_offset 12
	.cfi_offset 7, -12
	push	esi
LCFI14:
	.cfi_def_cfa_offset 16
	.cfi_offset 6, -16
	push	ebx
LCFI15:
	.cfi_def_cfa_offset 20
	.cfi_offset 3, -20
	sub	esp, 44
LCFI16:
	.cfi_def_cfa_offset 64
	mov	ebx, eax
	mov	esi, DWORD PTR [esp+64]
	movzx	ebp, cx
	.loc 1 88 0
	mov	eax, DWORD PTR ___stack_chk_guard
	mov	DWORD PTR [esp+28], eax
	xor	eax, eax
LVL13:
	.loc 1 89 0
	mov	DWORD PTR [esp+8], 8
	mov	DWORD PTR [esp+4], edx
	mov	DWORD PTR [esp], ebx
	call	_byte_stream_putraw
LVL14:
	.loc 1 90 0
	mov	DWORD PTR [esp+4], ebp
	mov	DWORD PTR [esp], ebx
	call	_byte_stream_put16
LVL15:
	.loc 1 91 0
	mov	ebp, -1
LVL16:
	mov	ecx, ebp
	mov	edi, esi
	xor	eax, eax
	repne scasb
LVL17:
	not	ecx
	dec	ecx
	.loc 1 2143 0
	and	ecx, 255
	.loc 1 91 0
	mov	DWORD PTR [esp+4], ecx
	mov	DWORD PTR [esp], ebx
	call	_byte_stream_put8
LVL18:
	.loc 1 92 0
	mov	DWORD PTR [esp+4], esi
	mov	DWORD PTR [esp], ebx
	call	_byte_stream_putstr
LVL19:
	.loc 1 93 0
	mov	ecx, ebp
	mov	edi, esi
	xor	eax, eax
	repne scasb
	not	ecx
	lea	eax, [ecx+10]
	.loc 1 94 0
	mov	edx, DWORD PTR [esp+28]
	xor	edx, DWORD PTR ___stack_chk_guard
	jne	L25
	add	esp, 44
LCFI17:
	.cfi_remember_state
	.cfi_def_cfa_offset 20
	pop	ebx
LCFI18:
	.cfi_restore 3
	.cfi_def_cfa_offset 16
LVL20:
	pop	esi
LCFI19:
	.cfi_restore 6
	.cfi_def_cfa_offset 12
	pop	edi
LCFI20:
	.cfi_restore 7
	.cfi_def_cfa_offset 8
	pop	ebp
LCFI21:
	.cfi_restore 5
	.cfi_def_cfa_offset 4
	ret
LVL21:
L25:
LCFI22:
	.cfi_restore_state
	call	___stack_chk_fail
LVL22:
	.cfi_endproc
LFE93:
	.p2align 2,,3
	.globl	_aim_icbm_makecookie
	.def	_aim_icbm_makecookie;	.scl	2;	.type	32;	.endef
_aim_icbm_makecookie:
LFB94:
	.loc 1 102 0
	.cfi_startproc
LVL23:
	push	esi
LCFI23:
	.cfi_def_cfa_offset 8
	.cfi_offset 6, -8
	push	ebx
LCFI24:
	.cfi_def_cfa_offset 12
	.cfi_offset 3, -12
	sub	esp, 20
LCFI25:
	.cfi_def_cfa_offset 32
	mov	esi, DWORD PTR [esp+32]
	.loc 1 102 0
	mov	eax, DWORD PTR ___stack_chk_guard
	mov	DWORD PTR [esp+12], eax
	xor	eax, eax
LVL24:
	.loc 1 106 0
	xor	ebx, ebx
LVL25:
	.p2align 2,,3
L27:
	.loc 1 107 0 discriminator 2
	call	_rand
LVL26:
	movzx	edx, al
	lea	ecx, [edx+edx*4]
	lea	edx, [edx+ecx*8]
	lea	edx, [edx+edx*4]
	shr	dx, 11
	lea	edx, [edx+edx*4]
	sal	edx
	sub	eax, edx
	add	eax, 48
	mov	BYTE PTR [esi+ebx], al
	.loc 1 106 0 discriminator 2
	inc	ebx
LVL27:
	cmp	ebx, 7
	jne	L27
	.loc 1 108 0
	mov	BYTE PTR [esi+7], 0
	.loc 1 109 0
	mov	eax, DWORD PTR [esp+12]
	xor	eax, DWORD PTR ___stack_chk_guard
	jne	L31
	add	esp, 20
LCFI26:
	.cfi_remember_state
	.cfi_def_cfa_offset 12
	pop	ebx
LCFI27:
	.cfi_restore 3
	.cfi_def_cfa_offset 8
LVL28:
	pop	esi
LCFI28:
	.cfi_restore 6
	.cfi_def_cfa_offset 4
	ret
LVL29:
L31:
LCFI29:
	.cfi_restore_state
	call	___stack_chk_fail
LVL30:
	.cfi_endproc
LFE94:
	.p2align 2,,3
	.globl	_aim_im_setparams
	.def	_aim_im_setparams;	.scl	2;	.type	32;	.endef
_aim_im_setparams:
LFB96:
	.loc 1 204 0
	.cfi_startproc
LVL31:
	push	ebp
LCFI30:
	.cfi_def_cfa_offset 8
	.cfi_offset 5, -8
	push	edi
LCFI31:
	.cfi_def_cfa_offset 12
	.cfi_offset 7, -12
	push	esi
LCFI32:
	.cfi_def_cfa_offset 16
	.cfi_offset 6, -16
	push	ebx
LCFI33:
	.cfi_def_cfa_offset 20
	.cfi_offset 3, -20
	sub	esp, 60
LCFI34:
	.cfi_def_cfa_offset 80
	mov	edi, DWORD PTR [esp+80]
	mov	esi, DWORD PTR [esp+84]
	.loc 1 204 0
	mov	eax, DWORD PTR ___stack_chk_guard
	mov	DWORD PTR [esp+44], eax
	xor	eax, eax
	.loc 1 209 0
	test	edi, edi
	je	L35
	.loc 1 209 0 is_stmt 0 discriminator 1
	mov	DWORD PTR [esp+4], 4
	mov	DWORD PTR [esp], edi
	call	_flap_connection_findbygroup
LVL32:
	mov	ebp, eax
LVL33:
	test	eax, eax
	je	L35
	.loc 1 212 0 is_stmt 1
	test	esi, esi
	je	L35
	.loc 1 215 0
	mov	DWORD PTR [esp+4], 16
	lea	ebx, [esp+32]
	mov	DWORD PTR [esp], ebx
	call	_byte_stream_new
LVL34:
	.loc 1 218 0
	mov	DWORD PTR [esp+4], 0
	mov	DWORD PTR [esp], ebx
	call	_byte_stream_put16
LVL35:
	.loc 1 221 0
	mov	eax, DWORD PTR [esi+4]
	mov	DWORD PTR [esp+4], eax
	mov	DWORD PTR [esp], ebx
	call	_byte_stream_put32
LVL36:
	.loc 1 222 0
	movzx	eax, WORD PTR [esi+8]
	mov	DWORD PTR [esp+4], eax
	mov	DWORD PTR [esp], ebx
	call	_byte_stream_put16
LVL37:
	.loc 1 223 0
	movzx	eax, WORD PTR [esi+10]
	mov	DWORD PTR [esp+4], eax
	mov	DWORD PTR [esp], ebx
	call	_byte_stream_put16
LVL38:
	.loc 1 224 0
	movzx	eax, WORD PTR [esi+12]
	mov	DWORD PTR [esp+4], eax
	mov	DWORD PTR [esp], ebx
	call	_byte_stream_put16
LVL39:
	.loc 1 225 0
	mov	eax, DWORD PTR [esi+16]
	mov	DWORD PTR [esp+4], eax
	mov	DWORD PTR [esp], ebx
	call	_byte_stream_put32
LVL40:
	.loc 1 227 0
	mov	DWORD PTR [esp+20], 0
	mov	DWORD PTR [esp+16], 0
	mov	DWORD PTR [esp+12], 0
	mov	DWORD PTR [esp+8], 2
	mov	DWORD PTR [esp+4], 4
	mov	DWORD PTR [esp], edi
	call	_aim_cachesnac
LVL41:
	.loc 1 228 0
	mov	DWORD PTR [esp+20], ebx
	mov	DWORD PTR [esp+16], eax
	mov	DWORD PTR [esp+12], 2
	mov	DWORD PTR [esp+8], 4
	mov	DWORD PTR [esp+4], ebp
	mov	DWORD PTR [esp], edi
	call	_flap_connection_send_snac
LVL42:
	.loc 1 230 0
	mov	DWORD PTR [esp], ebx
	call	_byte_stream_destroy
LVL43:
	.loc 1 232 0
	xor	eax, eax
LVL44:
L34:
	.loc 1 233 0
	mov	edx, DWORD PTR [esp+44]
	xor	edx, DWORD PTR ___stack_chk_guard
	jne	L44
	add	esp, 60
LCFI35:
	.cfi_remember_state
	.cfi_def_cfa_offset 20
	pop	ebx
LCFI36:
	.cfi_restore 3
	.cfi_def_cfa_offset 16
	pop	esi
LCFI37:
	.cfi_restore 6
	.cfi_def_cfa_offset 12
	pop	edi
LCFI38:
	.cfi_restore 7
	.cfi_def_cfa_offset 8
	pop	ebp
LCFI39:
	.cfi_restore 5
	.cfi_def_cfa_offset 4
	ret
	.p2align 2,,3
L35:
LCFI40:
	.cfi_restore_state
	.loc 1 210 0
	mov	eax, -22
	jmp	L34
L44:
	.loc 1 233 0
	call	___stack_chk_fail
LVL45:
	.cfi_endproc
LFE96:
	.section .rdata,"dr"
	.align 4
LC0:
	.ascii "icbm error: received response from unknown request!\12\0"
LC1:
	.ascii "oscar\0"
	.align 4
LC2:
	.ascii "icbm error: received response from invalid request! %d\12\0"
	.align 4
LC3:
	.ascii "icbm error: received response from request without a buddy name!\12\0"
	.align 4
LC4:
	.ascii "Message error with bn %s and reason %hu and errcode %hu\12\0"
LC5:
	.ascii "pidgin\0"
	.align 4
LC6:
	.ascii "Unable to send message: %s (%s)\0"
LC7:
	.ascii "Unable to send message: %s\0"
	.align 4
LC8:
	.ascii "Unable to send message to %s: %s (%s)\0"
	.align 4
LC9:
	.ascii "Unable to send message to %s: %s\0"
	.align 4
LC10:
	.ascii "Received an IM containing an invalid message part from %s.  They are probably trying to do something malicious.\12\0"
	.align 4
LC11:
	.ascii "Cookies don't match in rendezvous ICBM, bailing out.\12\0"
LC12:
	.ascii "%hhu.%hhu.%hhu.%hhu\0"
	.align 4
LC13:
	.ascii "got a buddy list from %s: group %s, buddy %s\12\0"
	.align 4
LC14:
	.ascii "Expected to find a header with length 0x001b; ignoring message\0"
	.align 4
LC15:
	.ascii "Expected to find a header with length 0x000e; ignoring message\0"
	.align 4
LC16:
	.ascii "icbm: ICBM received on an unsupported channel.  Ignoring.  (chan = %04x)\12\0"
LC17:
	.ascii "X-Status: num1 %hu, num2 %hu\12\0"
LC18:
	.ascii "X-Status: Received XML reply\12\0"
LC19:
	.ascii "&lt;title&gt;\0"
LC20:
	.ascii "&lt;/title&gt;\0"
LC21:
	.ascii "&lt;desc&gt;\0"
LC22:
	.ascii "&lt;/desc&gt;\0"
LC23:
	.ascii " - \0"
LC24:
	.ascii "X-Status reply: %s\12\0"
LC25:
	.ascii "mood\0"
LC26:
	.ascii "moodtext\0"
	.align 4
LC27:
	.ascii "X-Status: Can't get XML reply string\12\0"
	.align 4
LC28:
	.ascii "X-Status: 0x0004, 0x000b not an xstatus reply\12\0"
LC29:
	.ascii "Sent message to %s.\12\0"
	.text
	.p2align 2,,3
	.def	_snachandler;	.scl	3;	.type	32;	.endef
_snachandler:
LFB132:
	.loc 1 2112 0
	.cfi_startproc
LVL46:
	push	ebp
LCFI41:
	.cfi_def_cfa_offset 8
	.cfi_offset 5, -8
	push	edi
LCFI42:
	.cfi_def_cfa_offset 12
	.cfi_offset 7, -12
	push	esi
LCFI43:
	.cfi_def_cfa_offset 16
	.cfi_offset 6, -16
	push	ebx
LCFI44:
	.cfi_def_cfa_offset 20
	.cfi_offset 3, -20
	sub	esp, 524
LCFI45:
	.cfi_def_cfa_offset 544
	mov	eax, DWORD PTR [esp+544]
	mov	DWORD PTR [esp+52], eax
	mov	edx, DWORD PTR [esp+548]
	mov	DWORD PTR [esp+64], edx
	mov	eax, DWORD PTR [esp+556]
	mov	DWORD PTR [esp+68], eax
	mov	edx, DWORD PTR [esp+560]
	mov	DWORD PTR [esp+56], edx
	mov	ebp, DWORD PTR [esp+564]
	.loc 1 2112 0
	mov	eax, DWORD PTR ___stack_chk_guard
	mov	DWORD PTR [esp+508], eax
	xor	eax, eax
	.loc 1 2113 0
	mov	ax, WORD PTR [edx+2]
	cmp	ax, 1
	je	L224
	.loc 1 2115 0
	cmp	ax, 5
	je	L225
	.loc 1 2117 0
	cmp	ax, 7
	je	L226
	.loc 1 2119 0
	cmp	ax, 10
	je	L227
	.loc 1 2121 0
	cmp	ax, 11
	je	L228
	.loc 1 2123 0
	cmp	ax, 12
	je	L229
	.loc 1 2125 0
	cmp	ax, 20
	je	L230
	.loc 1 2128 0
	mov	DWORD PTR [esp+60], 0
L48:
	.loc 1 2129 0
	mov	eax, DWORD PTR [esp+60]
	mov	edx, DWORD PTR [esp+508]
	xor	edx, DWORD PTR ___stack_chk_guard
	jne	L231
	add	esp, 524
LCFI46:
	.cfi_remember_state
	.cfi_def_cfa_offset 20
	pop	ebx
LCFI47:
	.cfi_restore 3
	.cfi_def_cfa_offset 16
	pop	esi
LCFI48:
	.cfi_restore 6
	.cfi_def_cfa_offset 12
	pop	edi
LCFI49:
	.cfi_restore 7
	.cfi_def_cfa_offset 8
	pop	ebp
LCFI50:
	.cfi_restore 5
	.cfi_def_cfa_offset 4
	ret
	.p2align 2,,3
L230:
LCFI51:
	.cfi_restore_state
LVL47:
LBB52:
LBB53:
	.loc 1 2096 0
	mov	DWORD PTR [esp+4], 8
	mov	DWORD PTR [esp], ebp
	call	_byte_stream_advance
LVL48:
	.loc 1 2097 0
	mov	DWORD PTR [esp], ebp
	call	_byte_stream_get16
LVL49:
	movzx	ebx, ax
LVL50:
	.loc 1 2098 0
	mov	DWORD PTR [esp], ebp
	call	_byte_stream_get8
LVL51:
	.loc 1 2099 0
	movzx	eax, al
	mov	DWORD PTR [esp+4], eax
	mov	DWORD PTR [esp], ebp
	call	_byte_stream_getstr
LVL52:
	mov	esi, eax
LVL53:
	.loc 1 2100 0
	mov	DWORD PTR [esp], ebp
	call	_byte_stream_get16
LVL54:
	movzx	edi, ax
LVL55:
	.loc 1 2102 0
	mov	edx, DWORD PTR [esp+56]
	movzx	eax, WORD PTR [edx+2]
	mov	DWORD PTR [esp+8], eax
	movzx	eax, WORD PTR [edx]
	mov	DWORD PTR [esp+4], eax
	mov	eax, DWORD PTR [esp+52]
	mov	DWORD PTR [esp], eax
	call	_aim_callhandler
LVL56:
	test	eax, eax
	je	L152
	.loc 1 2103 0
	mov	DWORD PTR [esp+20], edi
	mov	DWORD PTR [esp+16], esi
	mov	DWORD PTR [esp+12], ebx
	mov	edx, DWORD PTR [esp+68]
	mov	DWORD PTR [esp+8], edx
	mov	edx, DWORD PTR [esp+64]
	mov	DWORD PTR [esp+4], edx
	mov	edx, DWORD PTR [esp+52]
	mov	DWORD PTR [esp], edx
	call	eax
LVL57:
	mov	DWORD PTR [esp+60], eax
LVL58:
L141:
	.loc 1 2105 0
	mov	DWORD PTR [esp], esi
	call	_g_free
LVL59:
LBE53:
LBE52:
	.loc 1 2126 0
	jmp	L48
LVL60:
	.p2align 2,,3
L224:
LBB55:
LBB56:
	.loc 1 121 0
	mov	edx, DWORD PTR [esp+52]
	mov	edx, DWORD PTR [edx+104]
	mov	DWORD PTR [esp+60], edx
LVL61:
	.loc 1 128 0
	mov	edx, DWORD PTR [esp+56]
LVL62:
	mov	eax, DWORD PTR [edx+8]
	mov	DWORD PTR [esp+4], eax
	mov	eax, DWORD PTR [esp+52]
	mov	DWORD PTR [esp], eax
	call	_aim_remsnac
LVL63:
	mov	esi, eax
LVL64:
	.loc 1 129 0
	test	eax, eax
	je	L232
	.loc 1 134 0
	movzx	eax, WORD PTR [eax+4]
LVL65:
	cmp	ax, 4
	jne	L233
	.loc 1 142 0
	mov	ebx, DWORD PTR [esi+12]
LVL66:
	.loc 1 143 0
	test	ebx, ebx
	je	L50
	cmp	BYTE PTR [ebx], 0
	jne	L51
L50:
	.loc 1 144 0
	mov	DWORD PTR [esp+4], OFFSET FLAT:LC3
	mov	DWORD PTR [esp], OFFSET FLAT:LC1
	call	_purple_debug_misc
LVL67:
L223:
	.loc 1 190 0
	mov	eax, DWORD PTR [esi+12]
	mov	DWORD PTR [esp], eax
	call	_g_free
LVL68:
	.loc 1 191 0
	mov	DWORD PTR [esp], esi
	call	_g_free
LVL69:
	.loc 1 2114 0
	mov	DWORD PTR [esp+60], 1
	jmp	L48
LVL70:
	.p2align 2,,3
L225:
LBE56:
LBE55:
LBB61:
LBB62:
	.loc 1 259 0
	mov	DWORD PTR [esp], ebp
	call	_byte_stream_get16
LVL71:
	mov	WORD PTR [esp+132], ax
	.loc 1 260 0
	mov	DWORD PTR [esp], ebp
	call	_byte_stream_get32
LVL72:
	mov	DWORD PTR [esp+136], eax
	.loc 1 261 0
	mov	DWORD PTR [esp], ebp
	call	_byte_stream_get16
LVL73:
	mov	WORD PTR [esp+140], ax
	.loc 1 262 0
	mov	DWORD PTR [esp], ebp
	call	_byte_stream_get16
LVL74:
	mov	WORD PTR [esp+142], ax
	.loc 1 263 0
	mov	DWORD PTR [esp], ebp
	call	_byte_stream_get16
LVL75:
	mov	WORD PTR [esp+144], ax
	.loc 1 264 0
	mov	DWORD PTR [esp], ebp
	call	_byte_stream_get32
LVL76:
	.loc 1 266 0
	mov	DWORD PTR [esp+136], 1307
	.loc 1 272 0
	mov	WORD PTR [esp+140], 8000
	.loc 1 273 0
	mov	DWORD PTR [esp+148], 0
	.loc 1 275 0
	lea	eax, [esp+132]
	mov	DWORD PTR [esp+4], eax
	mov	eax, DWORD PTR [esp+52]
	mov	DWORD PTR [esp], eax
	call	_aim_im_setparams
LVL77:
LBE62:
LBE61:
	.loc 1 2116 0
	mov	DWORD PTR [esp+60], 0
	jmp	L48
LVL78:
	.p2align 2,,3
L226:
LBB63:
LBB64:
	.loc 1 1460 0
	lea	edx, [esp+264]
	mov	DWORD PTR [esp+44], edx
	xor	ebx, ebx
	mov	ecx, 152
	mov	edi, edx
	mov	al, bl
	rep stosb
	.loc 1 1465 0
	mov	DWORD PTR [esp+4], 8
	mov	DWORD PTR [esp], ebp
	call	_byte_stream_getraw
LVL79:
	mov	DWORD PTR [esp+72], eax
LVL80:
	.loc 1 1483 0
	mov	DWORD PTR [esp], ebp
	call	_byte_stream_get16
LVL81:
	movzx	esi, ax
LVL82:
	.loc 1 1500 0
	lea	edx, [esp+264]
	mov	DWORD PTR [esp+8], edx
	mov	DWORD PTR [esp+4], ebp
	mov	eax, DWORD PTR [esp+52]
	mov	DWORD PTR [esp], eax
	call	_aim_info_extract
LVL83:
	.loc 1 1509 0
	cmp	si, 1
	je	L234
	.loc 1 1513 0
	cmp	si, 2
	je	L235
	.loc 1 1526 0
	cmp	si, 4
	je	L236
	.loc 1 1534 0
	mov	DWORD PTR [esp+8], esi
	mov	DWORD PTR [esp+4], OFFSET FLAT:LC16
	mov	DWORD PTR [esp], OFFSET FLAT:LC1
	call	_purple_debug_misc
LVL84:
	.loc 1 1455 0
	mov	DWORD PTR [esp+60], 0
LVL85:
L80:
	.loc 1 1537 0
	lea	eax, [esp+264]
	mov	DWORD PTR [esp], eax
	call	_aim_info_free
LVL86:
	.loc 1 1538 0
	mov	eax, DWORD PTR [esp+72]
	mov	DWORD PTR [esp], eax
	call	_g_free
LVL87:
LBE64:
LBE63:
	.loc 1 2118 0
	jmp	L48
LVL88:
	.p2align 2,,3
L227:
	.loc 1 2143 0
	mov	edx, DWORD PTR [esp+56]
	add	edx, 2
	mov	DWORD PTR [esp+72], edx
LVL89:
LBB142:
LBB133:
	.loc 1 1546 0
	mov	DWORD PTR [esp+60], 0
	jmp	L120
LVL90:
	.p2align 2,,3
L122:
LBE133:
LBE142:
LBB143:
LBB144:
	.loc 1 1553 0
	mov	DWORD PTR [esp], ebp
	call	_byte_stream_get16
LVL91:
	movzx	ebx, ax
LVL92:
	.loc 1 1554 0
	lea	eax, [esp+264]
	mov	DWORD PTR [esp+8], eax
	mov	DWORD PTR [esp+4], ebp
	mov	edx, DWORD PTR [esp+52]
	mov	DWORD PTR [esp], edx
	call	_aim_info_extract
LVL93:
	.loc 1 1555 0
	mov	DWORD PTR [esp], ebp
	call	_byte_stream_get16
LVL94:
	movzx	esi, ax
LVL95:
	.loc 1 1556 0
	mov	DWORD PTR [esp], ebp
	call	_byte_stream_get16
LVL96:
	movzx	edi, ax
LVL97:
	.loc 1 1558 0
	mov	edx, DWORD PTR [esp+72]
	movzx	eax, WORD PTR [edx]
	mov	DWORD PTR [esp+8], eax
	mov	edx, DWORD PTR [esp+56]
	movzx	eax, WORD PTR [edx]
	mov	DWORD PTR [esp+4], eax
	mov	eax, DWORD PTR [esp+52]
	mov	DWORD PTR [esp], eax
	call	_aim_callhandler
LVL98:
	test	eax, eax
	je	L121
	.loc 1 1559 0
	mov	DWORD PTR [esp+24], edi
	mov	DWORD PTR [esp+20], esi
	lea	edx, [esp+264]
	mov	DWORD PTR [esp+16], edx
	mov	DWORD PTR [esp+12], ebx
	mov	edx, DWORD PTR [esp+68]
	mov	DWORD PTR [esp+8], edx
	mov	edx, DWORD PTR [esp+64]
	mov	DWORD PTR [esp+4], edx
	mov	edx, DWORD PTR [esp+52]
	mov	DWORD PTR [esp], edx
	call	eax
LVL99:
	mov	DWORD PTR [esp+60], eax
LVL100:
L121:
	.loc 1 1561 0
	lea	eax, [esp+264]
	mov	DWORD PTR [esp], eax
	call	_aim_info_free
LVL101:
L120:
	.loc 1 1551 0
	mov	DWORD PTR [esp], ebp
	call	_byte_stream_bytes_left
LVL102:
	test	eax, eax
	jne	L122
	jmp	L48
LVL103:
	.p2align 2,,3
L228:
LBE144:
LBE143:
LBB145:
LBB146:
	.loc 1 1679 0
	mov	DWORD PTR [esp+4], 8
	mov	DWORD PTR [esp], ebp
	call	_byte_stream_getraw
LVL104:
	mov	DWORD PTR [esp+72], eax
LVL105:
	.loc 1 1680 0
	mov	DWORD PTR [esp], ebp
	call	_byte_stream_get16
LVL106:
	mov	ebx, eax
LVL107:
	.loc 1 1681 0
	mov	DWORD PTR [esp], ebp
	call	_byte_stream_get8
LVL108:
	.loc 1 1682 0
	movzx	eax, al
	mov	DWORD PTR [esp+4], eax
	mov	DWORD PTR [esp], ebp
	call	_byte_stream_getstr
LVL109:
	mov	edi, eax
LVL110:
	.loc 1 1683 0
	mov	DWORD PTR [esp], ebp
	call	_byte_stream_get16
LVL111:
	movzx	esi, ax
LVL112:
	.loc 1 1685 0
	cmp	bx, 2
	je	L237
	.loc 1 1749 0
	cmp	bx, 4
	je	L238
LVL113:
L222:
	.loc 1 1670 0
	xor	esi, esi
	.loc 1 1664 0
	mov	DWORD PTR [esp+60], 0
LVL114:
L126:
	.loc 1 1804 0
	mov	eax, DWORD PTR [esp+72]
	mov	DWORD PTR [esp], eax
	call	_g_free
LVL115:
	.loc 1 1805 0
	mov	DWORD PTR [esp], edi
	call	_g_free
LVL116:
	.loc 1 1806 0
	mov	DWORD PTR [esp], esi
	call	_g_free
LVL117:
LBE146:
LBE145:
	.loc 1 2122 0
	jmp	L48
LVL118:
	.p2align 2,,3
L229:
LBB157:
LBB158:
	.loc 1 1820 0
	mov	DWORD PTR [esp+4], 8
	mov	DWORD PTR [esp], ebp
	call	_byte_stream_getraw
LVL119:
	mov	esi, eax
LVL120:
	.loc 1 1821 0
	mov	DWORD PTR [esp], ebp
	call	_byte_stream_get16
LVL121:
	.loc 1 1822 0
	mov	DWORD PTR [esp], ebp
	call	_byte_stream_get8
LVL122:
	movzx	eax, al
	mov	DWORD PTR [esp+4], eax
	mov	DWORD PTR [esp], ebp
	call	_byte_stream_getstr
LVL123:
	mov	ebx, eax
LVL124:
	.loc 1 1824 0
	mov	DWORD PTR [esp+8], eax
	mov	DWORD PTR [esp+4], OFFSET FLAT:LC29
	mov	DWORD PTR [esp], OFFSET FLAT:LC1
	call	_purple_debug_info
LVL125:
	.loc 1 1826 0
	mov	DWORD PTR [esp], ebx
	call	_g_free
LVL126:
	.loc 1 1827 0
	mov	DWORD PTR [esp], esi
	call	_g_free
LVL127:
LBE158:
LBE157:
	.loc 1 2124 0
	mov	DWORD PTR [esp+60], 0
	jmp	L48
LVL128:
	.p2align 2,,3
L238:
LBB159:
LBB151:
	.loc 1 1750 0
	cmp	si, 3
	je	L239
	.loc 1 1798 0
	mov	edx, DWORD PTR [esp+56]
	movzx	eax, WORD PTR [edx+2]
	mov	DWORD PTR [esp+8], eax
	movzx	eax, WORD PTR [edx]
	mov	DWORD PTR [esp+4], eax
	mov	eax, DWORD PTR [esp+52]
	mov	DWORD PTR [esp], eax
	call	_aim_callhandler
LVL129:
	test	eax, eax
	je	L222
	.loc 1 1799 0
	mov	DWORD PTR [esp+20], esi
	mov	DWORD PTR [esp+16], edi
	mov	DWORD PTR [esp+12], 4
	mov	edx, DWORD PTR [esp+68]
	mov	DWORD PTR [esp+8], edx
	mov	edx, DWORD PTR [esp+64]
	mov	DWORD PTR [esp+4], edx
	mov	edx, DWORD PTR [esp+52]
	mov	DWORD PTR [esp], edx
	call	eax
LVL130:
	mov	DWORD PTR [esp+60], eax
LVL131:
	.loc 1 1670 0
	xor	esi, esi
LVL132:
	jmp	L126
LVL133:
L51:
LBE151:
LBE159:
LBB160:
LBB57:
	.loc 1 150 0
	mov	DWORD PTR [esp], ebp
	call	_byte_stream_get16
LVL134:
	movzx	edi, ax
LVL135:
	.loc 1 152 0
	mov	DWORD PTR [esp], ebp
	call	_aim_tlvlist_read
LVL136:
	.loc 1 153 0
	mov	DWORD PTR [esp+8], 1
	mov	DWORD PTR [esp+4], 8
	mov	DWORD PTR [esp], eax
	mov	DWORD PTR [esp+40], eax
	call	_aim_tlv_gettlv
LVL137:
	test	eax, eax
	mov	ecx, DWORD PTR [esp+40]
	je	L52
	.loc 1 154 0
	mov	DWORD PTR [esp+8], 1
	mov	DWORD PTR [esp+4], 8
	mov	DWORD PTR [esp], ecx
	call	_aim_tlv_get16
LVL138:
	mov	ebp, eax
LVL139:
	.loc 1 155 0
	mov	ecx, DWORD PTR [esp+40]
	mov	DWORD PTR [esp], ecx
	call	_aim_tlvlist_free
LVL140:
	.loc 1 157 0
	movzx	edx, bp
	mov	DWORD PTR [esp+64], edx
	mov	DWORD PTR [esp+16], edx
	mov	DWORD PTR [esp+12], edi
	mov	DWORD PTR [esp+8], ebx
	mov	DWORD PTR [esp+4], OFFSET FLAT:LC4
	mov	DWORD PTR [esp], OFFSET FLAT:LC1
	call	_purple_debug_error
LVL141:
	.loc 1 170 0
	mov	DWORD PTR [esp], edi
	call	_oscar_get_msgerr_reason
LVL142:
	mov	DWORD PTR [esp+56], eax
LVL143:
	.loc 1 171 0
	dec	ebp
LVL144:
	cmp	bp, 14
	ja	L53
	.loc 1 173 0
	mov	edx, DWORD PTR [esp+64]
	mov	eax, DWORD PTR _errcodereason[0+edx*4]
LVL145:
	mov	DWORD PTR [esp+4], eax
	mov	DWORD PTR [esp], OFFSET FLAT:LC5
	call	_libintl_dgettext
LVL146:
	mov	edi, eax
LVL147:
	.loc 1 172 0
	mov	DWORD PTR [esp+4], OFFSET FLAT:LC6
	mov	DWORD PTR [esp], OFFSET FLAT:LC5
	call	_libintl_dgettext
LVL148:
	mov	DWORD PTR [esp+8], edi
	mov	edx, DWORD PTR [esp+56]
	mov	DWORD PTR [esp+4], edx
	mov	DWORD PTR [esp], eax
	call	_g_strdup_printf
LVL149:
	mov	edi, eax
LVL150:
L54:
	.loc 1 177 0
	mov	edx, DWORD PTR [esp+60]
	mov	DWORD PTR [esp], edx
	call	_purple_connection_get_account
LVL151:
	mov	DWORD PTR [esp+8], edi
	mov	DWORD PTR [esp+4], eax
	mov	DWORD PTR [esp], ebx
	call	_purple_conv_present_error
LVL152:
	test	eax, eax
	je	L240
L55:
	.loc 1 188 0
	mov	DWORD PTR [esp], edi
	call	_g_free
LVL153:
	jmp	L223
LVL154:
	.p2align 2,,3
L233:
	.loc 1 135 0
	mov	DWORD PTR [esp+8], eax
	mov	DWORD PTR [esp+4], OFFSET FLAT:LC2
	mov	DWORD PTR [esp], OFFSET FLAT:LC1
	call	_purple_debug_misc
LVL155:
	jmp	L223
LVL156:
	.p2align 2,,3
L152:
LBE57:
LBE160:
LBB161:
LBB54:
	.loc 1 2090 0
	mov	DWORD PTR [esp+60], 0
	jmp	L141
LVL157:
L236:
LBE54:
LBE161:
LBB162:
LBB134:
LBB65:
	.loc 1 1529 0
	mov	DWORD PTR [esp], ebp
	call	_aim_tlvlist_read
LVL158:
	mov	esi, eax
LVL159:
LBB66:
LBB67:
	.loc 1 1418 0
	mov	DWORD PTR [esp+8], 1
	mov	DWORD PTR [esp+4], 5
	mov	DWORD PTR [esp], eax
	call	_aim_tlv_gettlv
LVL160:
	mov	ebx, eax
LVL161:
	test	eax, eax
	je	L147
	.loc 1 1420 0
	movzx	eax, WORD PTR [eax+2]
LVL162:
	mov	DWORD PTR [esp+8], eax
	mov	eax, DWORD PTR [ebx+4]
	mov	DWORD PTR [esp+4], eax
	lea	ebp, [esp+104]
LVL163:
	mov	DWORD PTR [esp], ebp
	call	_byte_stream_init
LVL164:
	.loc 1 1422 0
	mov	DWORD PTR [esp], ebp
	call	_byte_stream_getle32
LVL165:
	mov	DWORD PTR [esp+116], eax
	.loc 1 1423 0
	mov	DWORD PTR [esp], ebp
	call	_byte_stream_getle8
LVL166:
	mov	BYTE PTR [esp+120], al
	.loc 1 1424 0
	mov	DWORD PTR [esp], ebp
	call	_byte_stream_getle8
LVL167:
	mov	BYTE PTR [esp+121], al
	.loc 1 1425 0
	cmp	BYTE PTR [esp+120], 26
	jne	L116
	.loc 1 1427 0
	movzx	eax, WORD PTR [ebx+2]
	sub	eax, 6
	mov	DWORD PTR [esp+128], eax
L117:
	.loc 1 1430 0
	mov	DWORD PTR [esp+4], eax
	mov	DWORD PTR [esp], ebp
	call	_byte_stream_getraw
LVL168:
	mov	DWORD PTR [esp+124], eax
	.loc 1 1432 0
	mov	edx, DWORD PTR [esp+56]
	movzx	eax, WORD PTR [edx+2]
	mov	DWORD PTR [esp+8], eax
	movzx	eax, WORD PTR [edx]
	mov	DWORD PTR [esp+4], eax
	mov	eax, DWORD PTR [esp+52]
	mov	DWORD PTR [esp], eax
	call	_aim_callhandler
LVL169:
	test	eax, eax
	je	L148
	.loc 1 1433 0
	lea	edx, [esp+116]
	mov	DWORD PTR [esp+20], edx
	.loc 1 1530 0
	lea	edx, [esp+264]
	mov	DWORD PTR [esp+16], edx
	.loc 1 1433 0
	mov	DWORD PTR [esp+12], 4
	mov	edx, DWORD PTR [esp+68]
	mov	DWORD PTR [esp+8], edx
	mov	edx, DWORD PTR [esp+64]
	mov	DWORD PTR [esp+4], edx
	mov	edx, DWORD PTR [esp+52]
	mov	DWORD PTR [esp], edx
	call	eax
LVL170:
	mov	DWORD PTR [esp+60], eax
LVL171:
L118:
	.loc 1 1435 0
	mov	eax, DWORD PTR [esp+124]
	mov	DWORD PTR [esp], eax
	call	_g_free
LVL172:
L115:
LBE67:
LBE66:
	.loc 1 1531 0
	mov	DWORD PTR [esp], esi
	call	_aim_tlvlist_free
LVL173:
	jmp	L80
LVL174:
L239:
LBE65:
LBE134:
LBE162:
LBB163:
LBB152:
LBB147:
	.loc 1 1756 0
	mov	DWORD PTR [esp], ebp
	call	_byte_stream_getle16
LVL175:
	.loc 1 1757 0
	movzx	eax, ax
	mov	DWORD PTR [esp+4], eax
	mov	DWORD PTR [esp], ebp
	call	_byte_stream_advance
LVL176:
	.loc 1 1759 0
	mov	DWORD PTR [esp], ebp
	call	_byte_stream_getle16
LVL177:
	.loc 1 1760 0
	movzx	eax, ax
	mov	DWORD PTR [esp+4], eax
	mov	DWORD PTR [esp], ebp
	call	_byte_stream_advance
LVL178:
	.loc 1 1762 0
	mov	DWORD PTR [esp], ebp
	call	_byte_stream_getle8
LVL179:
	add	eax, 24
LVL180:
	cmp	al, 4
	ja	L149
	movzx	eax, al
	mov	ebx, DWORD PTR _CSWTCH.71[0+eax*4]
LVL181:
L138:
	.loc 1 1784 0
	mov	DWORD PTR [esp], ebp
	call	_byte_stream_getle8
LVL182:
	.loc 1 1785 0
	mov	DWORD PTR [esp], ebp
	call	_byte_stream_getle16
LVL183:
	.loc 1 1786 0
	mov	DWORD PTR [esp], ebp
	call	_byte_stream_getle16
LVL184:
	.loc 1 1788 0
	mov	DWORD PTR [esp], ebp
	call	_byte_stream_getle16
LVL185:
	.loc 1 1789 0
	movzx	eax, ax
	mov	DWORD PTR [esp+4], eax
	mov	DWORD PTR [esp], ebp
	call	_byte_stream_getraw
LVL186:
	mov	esi, eax
LVL187:
	.loc 1 1791 0
	mov	edx, DWORD PTR [esp+56]
	movzx	eax, WORD PTR [edx+2]
LVL188:
	mov	DWORD PTR [esp+8], eax
	movzx	eax, WORD PTR [edx]
	mov	DWORD PTR [esp+4], eax
	mov	eax, DWORD PTR [esp+52]
	mov	DWORD PTR [esp], eax
	call	_aim_callhandler
LVL189:
	test	eax, eax
	je	L150
	.loc 1 1792 0
	mov	DWORD PTR [esp+28], esi
	mov	DWORD PTR [esp+24], ebx
	mov	DWORD PTR [esp+20], 3
	mov	DWORD PTR [esp+16], edi
	mov	DWORD PTR [esp+12], 4
	mov	edx, DWORD PTR [esp+68]
	mov	DWORD PTR [esp+8], edx
	mov	edx, DWORD PTR [esp+64]
	mov	DWORD PTR [esp+4], edx
	mov	edx, DWORD PTR [esp+52]
	mov	DWORD PTR [esp], edx
	call	eax
LVL190:
	mov	DWORD PTR [esp+60], eax
LVL191:
L139:
	.loc 1 1794 0
	mov	DWORD PTR [esp], esi
	call	_g_free
LVL192:
	.loc 1 1670 0
	xor	esi, esi
LVL193:
	jmp	L126
LVL194:
L52:
LBE147:
LBE152:
LBE163:
LBB164:
LBB58:
	.loc 1 155 0
	mov	DWORD PTR [esp], ecx
	call	_aim_tlvlist_free
LVL195:
	.loc 1 157 0
	mov	DWORD PTR [esp+16], 0
	mov	DWORD PTR [esp+12], edi
	mov	DWORD PTR [esp+8], ebx
	mov	DWORD PTR [esp+4], OFFSET FLAT:LC4
	mov	DWORD PTR [esp], OFFSET FLAT:LC1
	call	_purple_debug_error
LVL196:
	.loc 1 170 0
	mov	DWORD PTR [esp], edi
	call	_oscar_get_msgerr_reason
LVL197:
	mov	DWORD PTR [esp+56], eax
LVL198:
	.loc 1 171 0
	mov	ebp, -1
LVL199:
	.loc 1 157 0
	mov	DWORD PTR [esp+64], 0
LVL200:
L53:
	.loc 1 175 0
	mov	DWORD PTR [esp+4], OFFSET FLAT:LC7
	mov	DWORD PTR [esp], OFFSET FLAT:LC5
	call	_libintl_dgettext
LVL201:
	mov	edx, DWORD PTR [esp+56]
	mov	DWORD PTR [esp+4], edx
	mov	DWORD PTR [esp], eax
	call	_g_strdup_printf
LVL202:
	mov	edi, eax
LVL203:
	jmp	L54
LVL204:
L237:
LBE58:
LBE164:
LBB165:
LBB153:
	.loc 1 1687 0
	mov	DWORD PTR [esp], ebp
	call	_byte_stream_getle16
LVL205:
	.loc 1 1688 0
	cmp	ax, 27
	jne	L222
	cmp	DWORD PTR [ebp+4], 78
	jbe	L222
	.loc 1 1689 0
	mov	DWORD PTR [esp+4], 51
	mov	DWORD PTR [esp], ebp
	call	_byte_stream_advance
LVL206:
	.loc 1 1690 0
	mov	DWORD PTR [esp], ebp
	call	_byte_stream_getle16
LVL207:
	mov	ebx, eax
LVL208:
	.loc 1 1691 0
	mov	DWORD PTR [esp], ebp
	call	_byte_stream_getle16
LVL209:
	mov	esi, eax
LVL210:
	.loc 1 1692 0
	movzx	eax, ax
LVL211:
	mov	DWORD PTR [esp+12], eax
	movzx	eax, bx
	mov	DWORD PTR [esp+8], eax
	mov	DWORD PTR [esp+4], OFFSET FLAT:LC17
	mov	DWORD PTR [esp], OFFSET FLAT:LC1
	call	_purple_debug_misc
LVL212:
	.loc 1 1694 0
	cmp	bx, 20224
	jne	L128
	cmp	si, 15104
	je	L241
L128:
	.loc 1 1744 0
	mov	DWORD PTR [esp+4], OFFSET FLAT:LC28
	mov	DWORD PTR [esp], OFFSET FLAT:LC1
	call	_purple_debug_misc
LVL213:
	jmp	L222
LVL214:
L234:
LBE153:
LBE165:
LBB166:
LBB135:
LBB74:
LBB75:
	.loc 1 946 0
	lea	edx, [esp+152]
	mov	DWORD PTR [esp+48], edx
	mov	ecx, 24
	mov	edi, edx
	mov	al, bl
	rep stosb
LBB76:
	.loc 1 968 0
	lea	edi, [esp+104]
	jmp	L61
LVL215:
	.p2align 2,,3
L70:
LBE76:
	.loc 1 972 0
	cmp	bx, 4
	je	L242
	.loc 1 974 0
	cmp	bx, 6
	je	L243
	.loc 1 980 0
	cmp	bx, 8
	je	L244
	.loc 1 998 0
	cmp	bx, 9
	je	L245
	.loc 1 1000 0
	cmp	bx, 11
	je	L246
	.loc 1 1002 0
	cmp	bx, 22
	je	L247
LVL216:
	.p2align 2,,3
L69:
	.loc 1 1018 0
	mov	edx, DWORD PTR [esp+60]
	mov	DWORD PTR [esp+4], edx
	mov	DWORD PTR [esp], ebp
	call	_byte_stream_setpos
LVL217:
L61:
	.loc 1 953 0
	mov	DWORD PTR [esp], ebp
	call	_byte_stream_bytes_left
LVL218:
	cmp	eax, 3
	jbe	L63
	.loc 1 955 0
	mov	DWORD PTR [esp], ebp
	call	_byte_stream_get16
LVL219:
	mov	ebx, eax
LVL220:
	.loc 1 956 0
	mov	DWORD PTR [esp], ebp
	call	_byte_stream_get16
LVL221:
	.loc 1 958 0
	movzx	esi, ax
	mov	DWORD PTR [esp], ebp
	call	_byte_stream_bytes_left
LVL222:
	cmp	esi, eax
	ja	L248
	.loc 1 964 0
	mov	DWORD PTR [esp], ebp
	call	_byte_stream_curpos
LVL223:
	add	eax, esi
	mov	DWORD PTR [esp+60], eax
LVL224:
	.loc 1 966 0
	cmp	bx, 2
	je	L249
	.loc 1 970 0
	cmp	bx, 3
	jne	L70
	.loc 1 971 0
	or	DWORD PTR [esp+152], 2
	jmp	L69
L242:
	.loc 1 973 0
	or	DWORD PTR [esp+152], 1
	jmp	L69
L249:
LBB82:
	.loc 1 968 0
	mov	DWORD PTR [esp+8], esi
	mov	eax, DWORD PTR [ebp+0]
LVL225:
	add	eax, DWORD PTR [ebp+8]
	mov	DWORD PTR [esp+4], eax
	mov	DWORD PTR [esp], edi
	call	_byte_stream_init
LVL226:
LBB77:
LBB78:
	.loc 1 915 0
	mov	edx, DWORD PTR [esp+52]
	mov	eax, DWORD PTR [edx+104]
	mov	DWORD PTR [esp], eax
	call	_purple_connection_get_account
LVL227:
	mov	DWORD PTR [esp+76], eax
LVL228:
L216:
	.loc 1 969 0
	mov	DWORD PTR [esp], edi
	.loc 1 919 0
	call	_byte_stream_bytes_left
LVL229:
	cmp	eax, 3
	jbe	L69
L68:
LBB79:
	.loc 1 969 0
	mov	DWORD PTR [esp], edi
	.loc 1 920 0
	call	_byte_stream_get16
LVL230:
	mov	ebx, eax
LVL231:
	.loc 1 969 0
	mov	DWORD PTR [esp], edi
	.loc 1 921 0
	call	_byte_stream_get16
LVL232:
	movzx	esi, ax
LVL233:
	.loc 1 922 0
	cmp	bx, 257
	je	L250
	.loc 1 932 0
	mov	DWORD PTR [esp+4], esi
	.loc 1 969 0
	mov	DWORD PTR [esp], edi
	.loc 1 932 0
	call	_byte_stream_advance
LVL234:
LBE79:
	.loc 1 969 0
	mov	DWORD PTR [esp], edi
	.loc 1 919 0
	call	_byte_stream_bytes_left
LVL235:
	cmp	eax, 3
	ja	L68
	jmp	L69
	.p2align 2,,3
L250:
LVL236:
LBB81:
LBB80:
	.loc 1 969 0
	mov	DWORD PTR [esp], edi
	.loc 1 925 0
	call	_byte_stream_get16
LVL237:
	movzx	ebx, ax
LVL238:
	.loc 1 926 0
	mov	DWORD PTR [esp+4], 2
	.loc 1 969 0
	mov	DWORD PTR [esp], edi
	.loc 1 926 0
	call	_byte_stream_advance
LVL239:
	.loc 1 924 0
	lea	edx, [esi-4]
	.loc 1 928 0
	movzx	edx, dx
	mov	DWORD PTR [esp+4], edx
	.loc 1 969 0
	mov	DWORD PTR [esp], edi
	.loc 1 928 0
	mov	DWORD PTR [esp+40], edx
	call	_byte_stream_getstr
LVL240:
	mov	esi, eax
LVL241:
	.loc 1 929 0
	mov	edx, DWORD PTR [esp+40]
	mov	DWORD PTR [esp+16], edx
	mov	DWORD PTR [esp+12], eax
	mov	DWORD PTR [esp+8], ebx
	mov	eax, DWORD PTR [esp+264]
LVL242:
	mov	DWORD PTR [esp+4], eax
	mov	eax, DWORD PTR [esp+76]
	mov	DWORD PTR [esp], eax
	call	_oscar_decode_im
LVL243:
	mov	DWORD PTR [esp+160], eax
	.loc 1 930 0
	mov	DWORD PTR [esp], esi
	call	_g_free
LVL244:
	jmp	L216
LVL245:
L243:
LBE80:
LBE81:
LBE78:
LBE77:
LBE82:
	.loc 1 979 0
	or	DWORD PTR [esp+152], 2048
	jmp	L69
LVL246:
L248:
	.loc 1 960 0
	mov	eax, DWORD PTR [esp+264]
	mov	DWORD PTR [esp+8], eax
	mov	DWORD PTR [esp+4], OFFSET FLAT:LC10
	mov	DWORD PTR [esp], OFFSET FLAT:LC1
	call	_purple_debug_misc
LVL247:
L63:
	.loc 1 1022 0
	mov	edx, DWORD PTR [esp+56]
	movzx	eax, WORD PTR [edx+2]
	mov	DWORD PTR [esp+8], eax
	movzx	eax, WORD PTR [edx]
	mov	DWORD PTR [esp+4], eax
	mov	eax, DWORD PTR [esp+52]
	mov	DWORD PTR [esp], eax
	call	_aim_callhandler
LVL248:
	test	eax, eax
	je	L143
	.loc 1 1023 0
	lea	edx, [esp+152]
	mov	DWORD PTR [esp+20], edx
	.loc 1 1511 0
	lea	edx, [esp+264]
	mov	DWORD PTR [esp+16], edx
	.loc 1 1023 0
	mov	DWORD PTR [esp+12], 1
	mov	edx, DWORD PTR [esp+68]
	mov	DWORD PTR [esp+8], edx
	mov	edx, DWORD PTR [esp+64]
	mov	DWORD PTR [esp+4], edx
	mov	edx, DWORD PTR [esp+52]
	mov	DWORD PTR [esp], edx
	call	eax
LVL249:
	mov	DWORD PTR [esp+60], eax
LVL250:
L79:
	.loc 1 1025 0
	mov	eax, DWORD PTR [esp+160]
	mov	DWORD PTR [esp], eax
	call	_g_free
LVL251:
	jmp	L80
LVL252:
L235:
LBE75:
LBE74:
LBB88:
	.loc 1 1520 0
	mov	DWORD PTR [esp], ebp
	call	_aim_tlvlist_read
LVL253:
	mov	DWORD PTR [esp+76], eax
LVL254:
LBB89:
LBB90:
	.loc 1 1223 0
	mov	DWORD PTR [esp+418], 0
	lea	edi, [esp+422]
	mov	ecx, 26
	mov	al, bl
LVL255:
	rep stosb
	.loc 1 1224 0
	mov	DWORD PTR [esp+448], 0
	lea	edi, [esp+452]
	mov	cl, 26
	rep stosb
	.loc 1 1225 0
	mov	DWORD PTR [esp+478], 0
	lea	edi, [esp+482]
	mov	cl, 26
	rep stosb
	.loc 1 1227 0
	lea	edx, [esp+176]
	mov	DWORD PTR [esp+48], edx
	mov	cl, 88
	mov	edi, edx
	rep stosb
	.loc 1 1232 0
	mov	DWORD PTR [esp+8], 1
	mov	DWORD PTR [esp+4], 5
	mov	eax, DWORD PTR [esp+76]
	mov	DWORD PTR [esp], eax
	call	_aim_tlv_gettlv
LVL256:
	.loc 1 1233 0
	test	eax, eax
	je	L144
	.loc 1 1238 0
	movzx	edx, WORD PTR [eax+2]
	mov	DWORD PTR [esp+8], edx
	mov	eax, DWORD PTR [eax+4]
LVL257:
	mov	DWORD PTR [esp+4], eax
	lea	ebx, [esp+92]
	mov	DWORD PTR [esp], ebx
	call	_byte_stream_init
LVL258:
	.loc 1 1246 0
	mov	DWORD PTR [esp], ebx
	call	_byte_stream_get16
LVL259:
	mov	WORD PTR [esp+176], ax
	.loc 1 1251 0
	mov	DWORD PTR [esp+4], 8
	mov	DWORD PTR [esp], ebx
	call	_byte_stream_getraw
LVL260:
	mov	esi, eax
LVL261:
	.loc 1 1252 0
	mov	DWORD PTR [esp+8], 8
	mov	DWORD PTR [esp+4], eax
	mov	eax, DWORD PTR [esp+72]
LVL262:
	mov	DWORD PTR [esp], eax
	call	_memcmp
LVL263:
	test	eax, eax
	jne	L251
	.loc 1 1259 0
	mov	eax, DWORD PTR [esi]
	mov	edx, DWORD PTR [esi+4]
	mov	DWORD PTR [esp+178], eax
	mov	DWORD PTR [esp+182], edx
	.loc 1 1260 0
	mov	DWORD PTR [esp], esi
	call	_g_free
LVL264:
	.loc 1 1266 0
	mov	DWORD PTR [esp+8], 16
	mov	DWORD PTR [esp+4], ebx
	mov	edx, DWORD PTR [esp+52]
	mov	DWORD PTR [esp], edx
	call	_aim_locate_getcaps
LVL265:
	mov	DWORD PTR [esp+192], eax
	mov	DWORD PTR [esp+196], edx
	.loc 1 1274 0
	mov	DWORD PTR [esp], ebx
	call	_aim_tlvlist_read
LVL266:
	mov	edi, eax
LVL267:
	.loc 1 1281 0
	mov	DWORD PTR [esp+8], 1
	mov	DWORD PTR [esp+4], 2
	mov	DWORD PTR [esp], eax
	call	_aim_tlv_gettlv
LVL268:
	.loc 1 1282 0
	test	eax, eax
	je	L84
	cmp	WORD PTR [eax+2], 4
	je	L252
LVL269:
L84:
	.loc 1 1290 0
	mov	DWORD PTR [esp+8], 1
	mov	DWORD PTR [esp+4], 3
	mov	DWORD PTR [esp], edi
	call	_aim_tlv_gettlv
LVL270:
	.loc 1 1291 0
	test	eax, eax
	je	L85
	cmp	WORD PTR [eax+2], 4
	je	L253
LVL271:
L85:
	.loc 1 1301 0
	mov	DWORD PTR [esp+8], 1
	mov	DWORD PTR [esp+4], 4
	mov	DWORD PTR [esp], edi
	call	_aim_tlv_gettlv
LVL272:
	.loc 1 1302 0
	test	eax, eax
	je	L86
	cmp	WORD PTR [eax+2], 4
	je	L254
LVL273:
L86:
	.loc 1 1310 0
	mov	DWORD PTR [esp+8], 1
	mov	DWORD PTR [esp+4], 5
	mov	DWORD PTR [esp], edi
	call	_aim_tlv_gettlv
LVL274:
	test	eax, eax
	je	L87
	.loc 1 1311 0
	mov	DWORD PTR [esp+8], 1
	mov	DWORD PTR [esp+4], 5
	mov	DWORD PTR [esp], edi
	call	_aim_tlv_get16
LVL275:
	mov	WORD PTR [esp+212], ax
L87:
	.loc 1 1319 0
	mov	DWORD PTR [esp+8], 1
	mov	DWORD PTR [esp+4], 10
	mov	DWORD PTR [esp], edi
	call	_aim_tlv_gettlv
LVL276:
	test	eax, eax
	je	L88
	.loc 1 1320 0
	mov	DWORD PTR [esp+8], 1
	mov	DWORD PTR [esp+4], 10
	mov	DWORD PTR [esp], edi
	call	_aim_tlv_get16
LVL277:
	mov	WORD PTR [esp+240], ax
L88:
	.loc 1 1326 0
	mov	DWORD PTR [esp+8], 1
	mov	DWORD PTR [esp+4], 11
	mov	DWORD PTR [esp], edi
	call	_aim_tlv_gettlv
LVL278:
	test	eax, eax
	je	L89
	.loc 1 1327 0
	mov	DWORD PTR [esp+8], 1
	mov	DWORD PTR [esp+4], 11
	mov	DWORD PTR [esp], edi
	call	_aim_tlv_get16
LVL279:
	mov	WORD PTR [esp+220], ax
L89:
	.loc 1 1332 0
	mov	DWORD PTR [esp+8], 1
	mov	DWORD PTR [esp+4], 12
	mov	DWORD PTR [esp], edi
	call	_aim_tlv_gettlv
LVL280:
	test	eax, eax
	je	L90
	.loc 1 1333 0
	mov	DWORD PTR [esp+8], 1
	mov	DWORD PTR [esp+4], 12
	mov	DWORD PTR [esp], edi
	call	_aim_tlv_getstr
LVL281:
	mov	DWORD PTR [esp+224], eax
	.loc 1 1334 0
	mov	DWORD PTR [esp+8], 1
	mov	DWORD PTR [esp+4], 12
	mov	DWORD PTR [esp], edi
	call	_aim_tlv_getlength
LVL282:
	mov	WORD PTR [esp+228], ax
L90:
	.loc 1 1340 0
	mov	DWORD PTR [esp+8], 1
	mov	DWORD PTR [esp+4], 13
	mov	DWORD PTR [esp], edi
	call	_aim_tlv_gettlv
LVL283:
	test	eax, eax
	je	L91
	.loc 1 1341 0
	mov	DWORD PTR [esp+8], 1
	mov	DWORD PTR [esp+4], 13
	mov	DWORD PTR [esp], edi
	call	_aim_tlv_getstr
LVL284:
	mov	DWORD PTR [esp+232], eax
L91:
	.loc 1 1346 0
	mov	DWORD PTR [esp+8], 1
	mov	DWORD PTR [esp+4], 14
	mov	DWORD PTR [esp], edi
	call	_aim_tlv_gettlv
LVL285:
	test	eax, eax
	je	L92
	.loc 1 1347 0
	mov	DWORD PTR [esp+8], 1
	mov	DWORD PTR [esp+4], 14
	mov	DWORD PTR [esp], edi
	call	_aim_tlv_getstr
LVL286:
	mov	DWORD PTR [esp+236], eax
L92:
	.loc 1 1352 0
	mov	DWORD PTR [esp+8], 1
	mov	DWORD PTR [esp+4], 16
	mov	DWORD PTR [esp], edi
	call	_aim_tlv_gettlv
LVL287:
	test	eax, eax
	je	L93
	.loc 1 1353 0
	mov	DWORD PTR [esp+216], 1
L93:
	.loc 1 1355 0
	cmp	BYTE PTR [esp+418], 0
	je	L94
	.loc 1 1356 0
	lea	eax, [esp+418]
	mov	DWORD PTR [esp+200], eax
L94:
	.loc 1 1357 0
	cmp	BYTE PTR [esp+448], 0
	je	L95
	.loc 1 1358 0
	lea	eax, [esp+448]
	mov	DWORD PTR [esp+204], eax
L95:
	.loc 1 1359 0
	cmp	BYTE PTR [esp+478], 0
	je	L96
	.loc 1 1360 0
	lea	eax, [esp+478]
	mov	DWORD PTR [esp+208], eax
L96:
	.loc 1 1369 0
	mov	DWORD PTR [esp+8], 1
	mov	DWORD PTR [esp+4], 10001
	mov	DWORD PTR [esp], edi
	call	_aim_tlv_gettlv
LVL288:
	test	eax, eax
	je	L98
	.loc 1 1371 0
	movzx	edx, WORD PTR [eax+2]
	mov	DWORD PTR [esp+8], edx
	mov	eax, DWORD PTR [eax+4]
LVL289:
	mov	DWORD PTR [esp+4], eax
	lea	ebp, [esp+104]
LVL290:
	mov	DWORD PTR [esp], ebp
	call	_byte_stream_init
LVL291:
	.loc 1 1379 0
	mov	eax, DWORD PTR [esp+192]
	test	al, 1
	jne	L255
	.loc 1 1381 0
	test	ah, 1
	jne	L256
	.loc 1 1383 0
	test	al, 8
	jne	L257
	.loc 1 1385 0
	test	ah, 64
	jne	L258
	.loc 1 1387 0
	test	al, 32
	jne	L259
LVL292:
L98:
	.loc 1 1391 0
	mov	edx, DWORD PTR [esp+56]
	movzx	eax, WORD PTR [edx+2]
	mov	DWORD PTR [esp+8], eax
	movzx	eax, WORD PTR [edx]
	mov	DWORD PTR [esp+4], eax
	mov	eax, DWORD PTR [esp+52]
	mov	DWORD PTR [esp], eax
	call	_aim_callhandler
LVL293:
	test	eax, eax
	je	L146
	.loc 1 1392 0
	lea	edx, [esp+176]
	mov	DWORD PTR [esp+20], edx
	.loc 1 1522 0
	lea	edx, [esp+264]
	mov	DWORD PTR [esp+16], edx
	.loc 1 1392 0
	mov	DWORD PTR [esp+12], 2
	mov	edx, DWORD PTR [esp+68]
	mov	DWORD PTR [esp+8], edx
	mov	edx, DWORD PTR [esp+64]
	mov	DWORD PTR [esp+4], edx
	mov	edx, DWORD PTR [esp+52]
	mov	DWORD PTR [esp], edx
	call	eax
LVL294:
	mov	DWORD PTR [esp+60], eax
LVL295:
L112:
	.loc 1 1395 0
	mov	eax, DWORD PTR [esp+260]
	test	eax, eax
	je	L113
	.loc 1 1396 0
	lea	edx, [esp+176]
	mov	DWORD PTR [esp+4], edx
	mov	edx, DWORD PTR [esp+52]
	mov	DWORD PTR [esp], edx
	call	eax
LVL296:
L113:
	.loc 1 1398 0
	mov	eax, DWORD PTR [esp+224]
	mov	DWORD PTR [esp], eax
	call	_g_free
LVL297:
	.loc 1 1399 0
	mov	eax, DWORD PTR [esp+232]
	mov	DWORD PTR [esp], eax
	call	_g_free
LVL298:
	.loc 1 1400 0
	mov	eax, DWORD PTR [esp+236]
	mov	DWORD PTR [esp], eax
	call	_g_free
LVL299:
	.loc 1 1402 0
	mov	DWORD PTR [esp], edi
	call	_aim_tlvlist_free
LVL300:
L82:
LBE90:
LBE89:
	.loc 1 1524 0
	mov	eax, DWORD PTR [esp+76]
	mov	DWORD PTR [esp], eax
	call	_aim_tlvlist_free
LVL301:
	jmp	L80
LVL302:
L116:
LBE88:
LBB119:
LBB71:
LBB68:
	.loc 1 1429 0
	mov	DWORD PTR [esp], ebp
	call	_byte_stream_getle16
LVL303:
	movzx	eax, ax
	mov	DWORD PTR [esp+128], eax
	jmp	L117
LVL304:
L245:
LBE68:
LBE71:
LBE119:
LBB120:
LBB83:
	.loc 1 999 0
	or	DWORD PTR [esp+152], 16
	jmp	L69
LVL305:
L240:
LBE83:
LBE120:
LBE135:
LBE166:
LBB167:
LBB59:
	.loc 1 178 0
	mov	DWORD PTR [esp], edi
	call	_g_free
LVL306:
	.loc 1 179 0
	cmp	bp, 14
	jbe	L260
	.loc 1 184 0
	mov	DWORD PTR [esp+4], OFFSET FLAT:LC9
	mov	DWORD PTR [esp], OFFSET FLAT:LC5
	call	_libintl_dgettext
LVL307:
	mov	edx, DWORD PTR [esp+56]
	mov	DWORD PTR [esp+8], edx
	mov	DWORD PTR [esp+4], ebx
	mov	DWORD PTR [esp], eax
	call	_g_strdup_printf
LVL308:
	mov	edi, eax
LVL309:
L57:
	.loc 1 186 0
	mov	DWORD PTR [esp+24], 0
	mov	DWORD PTR [esp+20], 0
	mov	eax, DWORD PTR [esp+56]
LVL310:
	mov	DWORD PTR [esp+16], eax
	mov	DWORD PTR [esp+12], edi
	mov	DWORD PTR [esp+8], 0
	mov	DWORD PTR [esp+4], 0
	mov	edx, DWORD PTR [esp+52]
	mov	eax, DWORD PTR [edx+104]
	mov	DWORD PTR [esp], eax
	call	_purple_notify_message
LVL311:
	jmp	L55
LVL312:
L149:
	xor	ebx, ebx
LVL313:
	jmp	L138
LVL314:
L232:
	.loc 1 130 0
	mov	DWORD PTR [esp+4], OFFSET FLAT:LC0
	mov	DWORD PTR [esp], OFFSET FLAT:LC1
	call	_purple_debug_misc
LVL315:
	.loc 1 2114 0
	mov	DWORD PTR [esp+60], 1
	jmp	L48
LVL316:
L246:
LBE59:
LBE167:
LBB168:
LBB136:
LBB121:
LBB84:
	.loc 1 1001 0
	or	DWORD PTR [esp+152], 4096
	jmp	L69
LVL317:
L148:
LBE84:
LBE121:
LBB122:
LBB72:
LBB69:
	.loc 1 1413 0
	mov	DWORD PTR [esp+60], 0
	jmp	L118
LVL318:
L244:
LBE69:
LBE72:
LBE122:
LBB123:
LBB85:
	.loc 1 981 0
	mov	DWORD PTR [esp], ebp
	call	_byte_stream_get32
LVL319:
	mov	DWORD PTR [esp+168], eax
	.loc 1 982 0
	mov	DWORD PTR [esp], ebp
	call	_byte_stream_get16
LVL320:
	.loc 1 983 0
	mov	DWORD PTR [esp], ebp
	call	_byte_stream_get16
LVL321:
	mov	WORD PTR [esp+172], ax
	.loc 1 984 0
	mov	DWORD PTR [esp], ebp
	call	_byte_stream_get32
LVL322:
	mov	DWORD PTR [esp+164], eax
	.loc 1 996 0
	mov	eax, DWORD PTR [esp+168]
	test	eax, eax
	je	L69
	.loc 1 997 0
	or	DWORD PTR [esp+152], 32
	jmp	L69
LVL323:
L150:
LBE85:
LBE123:
LBE136:
LBE168:
LBB169:
LBB154:
LBB148:
	.loc 1 1664 0
	mov	DWORD PTR [esp+60], 0
	jmp	L139
LVL324:
L251:
LBE148:
LBE154:
LBE169:
LBB170:
LBB137:
LBB124:
LBB113:
LBB107:
	.loc 1 1254 0
	mov	DWORD PTR [esp+4], OFFSET FLAT:LC11
	mov	DWORD PTR [esp], OFFSET FLAT:LC1
	call	_purple_debug_warning
LVL325:
	.loc 1 1256 0
	mov	DWORD PTR [esp], esi
	call	_g_free
LVL326:
	.loc 1 1257 0
	mov	DWORD PTR [esp+60], 1
	jmp	L82
LVL327:
L260:
LBE107:
LBE113:
LBE124:
LBE137:
LBE170:
LBB171:
LBB60:
	.loc 1 182 0
	mov	edx, DWORD PTR [esp+64]
	mov	eax, DWORD PTR _errcodereason[0+edx*4]
	mov	DWORD PTR [esp+4], eax
	mov	DWORD PTR [esp], OFFSET FLAT:LC5
	call	_libintl_dgettext
LVL328:
	mov	edi, eax
LVL329:
	.loc 1 180 0
	mov	DWORD PTR [esp+4], OFFSET FLAT:LC8
	mov	DWORD PTR [esp], OFFSET FLAT:LC5
	call	_libintl_dgettext
LVL330:
	mov	DWORD PTR [esp+12], edi
	mov	edx, DWORD PTR [esp+56]
	mov	DWORD PTR [esp+8], edx
	mov	DWORD PTR [esp+4], ebx
	mov	DWORD PTR [esp], eax
	call	_g_strdup_printf
LVL331:
	mov	edi, eax
LVL332:
	jmp	L57
LVL333:
L143:
LBE60:
LBE171:
LBB172:
LBB138:
LBB125:
LBB86:
	.loc 1 942 0
	mov	DWORD PTR [esp+60], 0
	jmp	L79
LVL334:
L144:
LBE86:
LBE125:
LBB126:
LBB114:
LBB108:
	.loc 1 1236 0
	mov	DWORD PTR [esp+60], 1
	jmp	L82
LVL335:
L247:
LBE108:
LBE114:
LBE126:
LBB127:
LBB87:
	.loc 1 1007 0
	mov	DWORD PTR [esp], ebp
	call	_byte_stream_get32
LVL336:
	mov	DWORD PTR [esp+156], eax
	jmp	L69
LVL337:
L146:
LBE87:
LBE127:
LBB128:
LBB115:
LBB109:
	.loc 1 1221 0
	mov	DWORD PTR [esp+60], 0
	jmp	L112
LVL338:
L231:
LBE109:
LBE115:
LBE128:
LBE138:
LBE172:
	.loc 1 2129 0
	call	___stack_chk_fail
LVL339:
L255:
LBB173:
LBB139:
LBB129:
LBB116:
LBB110:
LBB91:
LBB92:
	.loc 1 1372 0
	mov	DWORD PTR [esp], ebp
	.loc 1 1090 0
	call	_byte_stream_get32
LVL340:
	mov	DWORD PTR [esp+244], eax
	.loc 1 1372 0
	mov	DWORD PTR [esp], ebp
	.loc 1 1091 0
	call	_byte_stream_get32
LVL341:
	mov	DWORD PTR [esp+248], eax
	.loc 1 1372 0
	mov	DWORD PTR [esp], ebp
	.loc 1 1092 0
	call	_byte_stream_get32
LVL342:
	mov	DWORD PTR [esp+252], eax
	.loc 1 1093 0
	mov	eax, DWORD PTR [esp+248]
	mov	DWORD PTR [esp+4], eax
	.loc 1 1372 0
	mov	DWORD PTR [esp], ebp
	.loc 1 1093 0
	call	_byte_stream_getraw
LVL343:
	mov	DWORD PTR [esp+256], eax
	.loc 1 1095 0
	mov	DWORD PTR [esp+260], OFFSET FLAT:_incomingim_ch2_buddyicon_free
	jmp	L98
LVL344:
L256:
	mov	DWORD PTR [esp+60], edi
LVL345:
L195:
LBE92:
LBE91:
LBB93:
LBB94:
	.loc 1 1372 0
	mov	DWORD PTR [esp], ebp
	.loc 1 1051 0
	call	_byte_stream_bytes_left
LVL346:
	test	eax, eax
	je	L261
LBB95:
	.loc 1 1372 0
	mov	DWORD PTR [esp], ebp
	.loc 1 1057 0
	call	_byte_stream_get16
LVL347:
	.loc 1 1058 0
	movzx	eax, ax
	mov	DWORD PTR [esp+4], eax
	.loc 1 1372 0
	mov	DWORD PTR [esp], ebp
	.loc 1 1058 0
	call	_byte_stream_getstr
LVL348:
	mov	esi, eax
LVL349:
	.loc 1 1372 0
	mov	DWORD PTR [esp], ebp
	.loc 1 1059 0
	call	_byte_stream_get16
LVL350:
	.loc 1 1061 0
	movzx	edi, ax
	xor	ebx, ebx
	test	edi, edi
	je	L103
LVL351:
	.p2align 2,,3
L193:
LBB96:
	.loc 1 1372 0
	mov	DWORD PTR [esp], ebp
	.loc 1 1065 0
	call	_byte_stream_get16
LVL352:
	.loc 1 1066 0
	movzx	eax, ax
	mov	DWORD PTR [esp+4], eax
	.loc 1 1372 0
	mov	DWORD PTR [esp], ebp
	.loc 1 1066 0
	call	_byte_stream_getstr
LVL353:
	.loc 1 1068 0
	mov	DWORD PTR [esp+16], eax
	mov	DWORD PTR [esp+12], esi
	mov	edx, DWORD PTR [esp+264]
	mov	DWORD PTR [esp+8], edx
	mov	DWORD PTR [esp+4], OFFSET FLAT:LC13
	mov	DWORD PTR [esp], OFFSET FLAT:LC1
	mov	DWORD PTR [esp+40], eax
	call	_purple_debug_misc
LVL354:
	.loc 1 1070 0
	mov	eax, DWORD PTR [esp+40]
	mov	DWORD PTR [esp], eax
	call	_g_free
LVL355:
LBE96:
	.loc 1 1061 0
	inc	ebx
LVL356:
	cmp	ebx, edi
	jl	L193
LVL357:
L103:
	.loc 1 1073 0
	mov	DWORD PTR [esp], esi
	call	_g_free
LVL358:
	jmp	L195
LVL359:
L261:
	mov	edi, DWORD PTR [esp+60]
	jmp	L98
LVL360:
L252:
LBE95:
LBE94:
LBE93:
	.loc 1 1285 0
	mov	eax, DWORD PTR [eax+4]
LVL361:
	.loc 1 1283 0
	movzx	edx, BYTE PTR [eax+3]
	mov	DWORD PTR [esp+24], edx
	movzx	edx, BYTE PTR [eax+2]
	mov	DWORD PTR [esp+20], edx
	movzx	edx, BYTE PTR [eax+1]
	mov	DWORD PTR [esp+16], edx
	movzx	eax, BYTE PTR [eax]
	mov	DWORD PTR [esp+12], eax
	mov	DWORD PTR [esp+8], OFFSET FLAT:LC12
	mov	DWORD PTR [esp+4], 30
	lea	eax, [esp+418]
	mov	DWORD PTR [esp], eax
	call	__snprintf
LVL362:
	jmp	L84
LVL363:
L253:
	.loc 1 1294 0
	mov	eax, DWORD PTR [eax+4]
LVL364:
	.loc 1 1292 0
	movzx	edx, BYTE PTR [eax+3]
	mov	DWORD PTR [esp+24], edx
	movzx	edx, BYTE PTR [eax+2]
	mov	DWORD PTR [esp+20], edx
	movzx	edx, BYTE PTR [eax+1]
	mov	DWORD PTR [esp+16], edx
	movzx	eax, BYTE PTR [eax]
	mov	DWORD PTR [esp+12], eax
	mov	DWORD PTR [esp+8], OFFSET FLAT:LC12
	mov	DWORD PTR [esp+4], 30
	lea	eax, [esp+448]
	mov	DWORD PTR [esp], eax
	call	__snprintf
LVL365:
	jmp	L85
LVL366:
L254:
	.loc 1 1305 0
	mov	eax, DWORD PTR [eax+4]
LVL367:
	.loc 1 1303 0
	movzx	edx, BYTE PTR [eax+3]
	mov	DWORD PTR [esp+24], edx
	movzx	edx, BYTE PTR [eax+2]
	mov	DWORD PTR [esp+20], edx
	movzx	edx, BYTE PTR [eax+1]
	mov	DWORD PTR [esp+16], edx
	movzx	eax, BYTE PTR [eax]
	mov	DWORD PTR [esp+12], eax
	mov	DWORD PTR [esp+8], OFFSET FLAT:LC12
	mov	DWORD PTR [esp+4], 30
	lea	eax, [esp+478]
	mov	DWORD PTR [esp], eax
	call	__snprintf
LVL368:
	jmp	L86
LVL369:
L257:
LBB97:
LBB98:
	.loc 1 1115 0
	lea	eax, [esp+244]
	mov	DWORD PTR [esp+4], eax
	.loc 1 1372 0
	mov	DWORD PTR [esp], ebp
	.loc 1 1115 0
	call	_aim_chat_readroominfo
LVL370:
	.loc 1 1117 0
	mov	DWORD PTR [esp+260], OFFSET FLAT:_incomingim_ch2_chat_free
	jmp	L98
LVL371:
L259:
LBE98:
LBE97:
LBB99:
LBB100:
	.loc 1 1179 0
	mov	DWORD PTR [esp+260], OFFSET FLAT:_incomingim_ch2_sendfile_free
	.loc 1 1372 0
	mov	DWORD PTR [esp], ebp
	.loc 1 1185 0
	call	_byte_stream_get16
LVL372:
	mov	WORD PTR [esp+244], ax
	.loc 1 1372 0
	mov	DWORD PTR [esp], ebp
	.loc 1 1186 0
	call	_byte_stream_get16
LVL373:
	mov	WORD PTR [esp+246], ax
	.loc 1 1372 0
	mov	DWORD PTR [esp], ebp
	.loc 1 1187 0
	call	_byte_stream_get32
LVL374:
	mov	DWORD PTR [esp+248], eax
LVL375:
	.loc 1 1198 0
	xor	ebx, ebx
	jmp	L110
LVL376:
L111:
	inc	ebx
LVL377:
L110:
	.loc 1 1372 0
	mov	DWORD PTR [esp], ebp
	.loc 1 1198 0
	call	_byte_stream_get8
LVL378:
	test	al, al
	jne	L111
	.loc 1 1199 0
	mov	eax, ebx
	not	eax
	mov	DWORD PTR [esp+4], eax
	.loc 1 1372 0
	mov	DWORD PTR [esp], ebp
	.loc 1 1199 0
	call	_byte_stream_advance
LVL379:
	.loc 1 1200 0
	mov	DWORD PTR [esp+4], ebx
	.loc 1 1372 0
	mov	DWORD PTR [esp], ebp
	.loc 1 1200 0
	call	_byte_stream_getstr
LVL380:
	mov	DWORD PTR [esp+252], eax
	jmp	L98
LVL381:
L258:
LBE100:
LBE99:
LBB101:
LBB102:
	.loc 1 1139 0
	mov	DWORD PTR [esp+260], OFFSET FLAT:_incomingim_ch2_icqserverrelay_free
	.loc 1 1372 0
	mov	DWORD PTR [esp], ebp
	.loc 1 1149 0
	call	_byte_stream_getle16
LVL382:
	cmp	ax, 27
	je	L108
	mov	DWORD PTR [esp+4], OFFSET FLAT:LC14
	mov	DWORD PTR [esp], OFFSET FLAT:LC1
	call	_purple_debug_warning
LVL383:
	jmp	L98
LVL384:
L147:
LBE102:
LBE101:
LBE110:
LBE116:
LBE129:
LBB130:
LBB73:
LBB70:
	.loc 1 1419 0
	mov	DWORD PTR [esp+60], -1
	jmp	L115
LVL385:
L241:
LBE70:
LBE73:
LBE130:
LBE139:
LBE173:
LBB174:
LBB155:
	.loc 1 1695 0
	mov	DWORD PTR [esp+4], 86
	mov	DWORD PTR [esp], ebp
	call	_byte_stream_advance
LVL386:
	.loc 1 1696 0
	mov	DWORD PTR [esp], ebp
	call	_byte_stream_curpos
LVL387:
	.loc 1 1697 0
	mov	edx, DWORD PTR [ebp+4]
	sub	edx, eax
	mov	DWORD PTR [esp+4], edx
	mov	DWORD PTR [esp], ebp
	call	_byte_stream_getstr
LVL388:
	mov	esi, eax
LVL389:
	.loc 1 1698 0
	mov	DWORD PTR [esp+4], OFFSET FLAT:LC18
	mov	DWORD PTR [esp], OFFSET FLAT:LC1
	call	_purple_debug_misc
LVL390:
	.loc 1 1699 0
	test	esi, esi
	je	L129
LBB149:
	.loc 1 1705 0
	mov	DWORD PTR [esp], 0
	call	_g_string_new
LVL391:
	mov	ebx, eax
LVL392:
	.loc 1 1707 0
	mov	DWORD PTR [esp+4], OFFSET FLAT:LC19
	mov	DWORD PTR [esp], esi
	call	_strstr
LVL393:
	.loc 1 1708 0
	test	eax, eax
	je	L130
	.loc 1 1709 0
	lea	ebp, [eax+13]
LVL394:
	.loc 1 1710 0
	mov	DWORD PTR [esp+4], OFFSET FLAT:LC20
	mov	DWORD PTR [esp], ebp
	call	_strstr
LVL395:
	.loc 1 1711 0
	test	eax, eax
	je	L130
	.loc 1 1712 0
	sub	eax, ebp
LVL396:
	mov	DWORD PTR [esp+8], eax
	mov	DWORD PTR [esp+4], ebp
	mov	DWORD PTR [esp], ebx
	call	_g_string_append_len
LVL397:
L130:
	.loc 1 1714 0
	mov	DWORD PTR [esp+4], OFFSET FLAT:LC21
	mov	DWORD PTR [esp], esi
	call	_strstr
LVL398:
	.loc 1 1715 0
	test	eax, eax
	je	L131
	.loc 1 1716 0
	lea	ebp, [eax+12]
LVL399:
	.loc 1 1717 0
	mov	DWORD PTR [esp+4], OFFSET FLAT:LC22
	mov	DWORD PTR [esp], ebp
	call	_strstr
LVL400:
	mov	edx, eax
LVL401:
	.loc 1 1718 0
	test	eax, eax
	je	L131
	.loc 1 1719 0
	cmp	DWORD PTR [ebx+4], 0
	je	L132
	cmp	ebp, eax
	jae	L132
	.loc 1 1720 0
	mov	DWORD PTR [esp+4], OFFSET FLAT:LC23
	mov	DWORD PTR [esp], ebx
	mov	DWORD PTR [esp+40], eax
	call	_g_string_append
LVL402:
	mov	edx, DWORD PTR [esp+40]
L132:
	.loc 1 1721 0
	sub	edx, ebp
	mov	DWORD PTR [esp+8], edx
	mov	DWORD PTR [esp+4], ebp
	mov	DWORD PTR [esp], ebx
	call	_g_string_append_len
LVL403:
L131:
	.loc 1 1724 0
	mov	eax, DWORD PTR [ebx]
	mov	DWORD PTR [esp], eax
	call	_purple_unescape_text
LVL404:
	mov	ebp, eax
LVL405:
	.loc 1 1725 0
	mov	DWORD PTR [esp+4], 1
	mov	DWORD PTR [esp], ebx
	call	_g_string_free
LVL406:
	.loc 1 1726 0
	cmp	BYTE PTR [ebp+0], 0
	jne	L262
LVL407:
L134:
	.loc 1 1739 0
	mov	DWORD PTR [esp], ebp
	call	_g_free
LVL408:
	.loc 1 1664 0
	mov	DWORD PTR [esp+60], 0
	jmp	L126
LVL409:
L108:
LBE149:
LBE155:
LBE174:
LBB175:
LBB140:
LBB131:
LBB117:
LBB111:
LBB105:
LBB103:
	.loc 1 1149 0
	mov	DWORD PTR [esp+4], 27
	.loc 1 1372 0
	mov	DWORD PTR [esp], ebp
	.loc 1 1149 0
	call	_byte_stream_advance
LVL410:
	.loc 1 1372 0
	mov	DWORD PTR [esp], ebp
	.loc 1 1150 0
	call	_byte_stream_getle16
LVL411:
	cmp	ax, 14
	je	L109
	mov	DWORD PTR [esp+4], OFFSET FLAT:LC15
	mov	DWORD PTR [esp], OFFSET FLAT:LC1
	call	_purple_debug_warning
LVL412:
	jmp	L98
LVL413:
L262:
LBE103:
LBE105:
LBE111:
LBE117:
LBE131:
LBE140:
LBE175:
LBB176:
LBB156:
LBB150:
	.loc 1 1727 0
	mov	DWORD PTR [esp+8], ebp
	mov	DWORD PTR [esp+4], OFFSET FLAT:LC24
	mov	DWORD PTR [esp], OFFSET FLAT:LC1
	call	_purple_debug_misc
LVL414:
	.loc 1 1728 0
	mov	edx, DWORD PTR [esp+52]
	mov	eax, DWORD PTR [edx+104]
	mov	DWORD PTR [esp], eax
	call	_purple_connection_get_account
LVL415:
	mov	ebx, eax
LVL416:
	.loc 1 1729 0
	mov	DWORD PTR [esp+4], edi
	mov	DWORD PTR [esp], eax
	call	_purple_find_buddy
LVL417:
	.loc 1 1730 0
	mov	DWORD PTR [esp], eax
	call	_purple_buddy_get_presence
LVL418:
	.loc 1 1731 0
	mov	DWORD PTR [esp+4], OFFSET FLAT:LC25
	mov	DWORD PTR [esp], eax
	call	_purple_presence_get_status
LVL419:
	.loc 1 1732 0
	test	eax, eax
	je	L134
	.loc 1 1733 0
	mov	DWORD PTR [esp+4], OFFSET FLAT:LC25
	mov	DWORD PTR [esp], eax
	call	_purple_status_get_attr_string
LVL420:
	mov	DWORD PTR [esp+28], 0
	mov	DWORD PTR [esp+24], ebp
	mov	DWORD PTR [esp+20], OFFSET FLAT:LC26
	mov	DWORD PTR [esp+16], eax
	mov	DWORD PTR [esp+12], OFFSET FLAT:LC25
	mov	DWORD PTR [esp+8], OFFSET FLAT:LC25
	mov	DWORD PTR [esp+4], edi
	mov	DWORD PTR [esp], ebx
	call	_purple_prpl_got_user_status
LVL421:
	jmp	L134
LVL422:
L129:
LBE150:
	.loc 1 1741 0
	mov	DWORD PTR [esp+4], OFFSET FLAT:LC27
	mov	DWORD PTR [esp], OFFSET FLAT:LC1
	call	_purple_debug_misc
LVL423:
	.loc 1 1664 0
	mov	DWORD PTR [esp+60], 0
	jmp	L126
LVL424:
L109:
LBE156:
LBE176:
LBB177:
LBB141:
LBB132:
LBB118:
LBB112:
LBB106:
LBB104:
	.loc 1 1150 0
	mov	DWORD PTR [esp+4], 14
	.loc 1 1372 0
	mov	DWORD PTR [esp], ebp
	.loc 1 1150 0
	call	_byte_stream_advance
LVL425:
	.loc 1 1372 0
	mov	DWORD PTR [esp], ebp
	.loc 1 1152 0
	call	_byte_stream_get8
LVL426:
	mov	BYTE PTR [esp+244], al
	.loc 1 1161 0
	mov	DWORD PTR [esp+4], 5
	.loc 1 1372 0
	mov	DWORD PTR [esp], ebp
	.loc 1 1161 0
	call	_byte_stream_advance
LVL427:
	.loc 1 1372 0
	mov	DWORD PTR [esp], ebp
	.loc 1 1163 0
	call	_byte_stream_getle16
LVL428:
	.loc 1 1164 0
	movzx	eax, ax
	mov	DWORD PTR [esp+4], eax
	.loc 1 1372 0
	mov	DWORD PTR [esp], ebp
	.loc 1 1164 0
	call	_byte_stream_getstr
LVL429:
	mov	DWORD PTR [esp+248], eax
	jmp	L98
LBE104:
LBE106:
LBE112:
LBE118:
LBE132:
LBE141:
LBE177:
	.cfi_endproc
LFE132:
	.p2align 2,,3
	.globl	_aim_im_reqparams
	.def	_aim_im_reqparams;	.scl	2;	.type	32;	.endef
_aim_im_reqparams:
LFB97:
	.loc 1 240 0
	.cfi_startproc
LVL430:
	push	ebx
LCFI52:
	.cfi_def_cfa_offset 8
	.cfi_offset 3, -8
	sub	esp, 40
LCFI53:
	.cfi_def_cfa_offset 48
	mov	ebx, DWORD PTR [esp+48]
	.loc 1 240 0
	mov	eax, DWORD PTR ___stack_chk_guard
	mov	DWORD PTR [esp+28], eax
	xor	eax, eax
	.loc 1 243 0
	test	ebx, ebx
	je	L266
	.loc 1 243 0 is_stmt 0 discriminator 1
	mov	DWORD PTR [esp+4], 4
	mov	DWORD PTR [esp], ebx
	call	_flap_connection_findbygroup
LVL431:
	test	eax, eax
	je	L266
	.loc 1 246 0 is_stmt 1
	mov	DWORD PTR [esp+12], 4
	mov	DWORD PTR [esp+8], 4
	mov	DWORD PTR [esp+4], eax
	mov	DWORD PTR [esp], ebx
	call	_aim_genericreq_n_snacid
LVL432:
	.loc 1 248 0
	xor	eax, eax
L265:
	.loc 1 249 0
	mov	edx, DWORD PTR [esp+28]
	xor	edx, DWORD PTR ___stack_chk_guard
	jne	L272
	add	esp, 40
LCFI54:
	.cfi_remember_state
	.cfi_def_cfa_offset 8
	pop	ebx
LCFI55:
	.cfi_restore 3
	.cfi_def_cfa_offset 4
	ret
	.p2align 2,,3
L266:
LCFI56:
	.cfi_restore_state
	.loc 1 244 0
	mov	eax, -22
	jmp	L265
L272:
	.loc 1 249 0
	call	___stack_chk_fail
LVL433:
	.cfi_endproc
LFE97:
	.p2align 2,,3
	.globl	_aim_im_sendch1_ext
	.def	_aim_im_sendch1_ext;	.scl	2;	.type	32;	.endef
_aim_im_sendch1_ext:
LFB99:
	.loc 1 296 0
	.cfi_startproc
LVL434:
	push	ebp
LCFI57:
	.cfi_def_cfa_offset 8
	.cfi_offset 5, -8
	push	edi
LCFI58:
	.cfi_def_cfa_offset 12
	.cfi_offset 7, -12
	push	esi
LCFI59:
	.cfi_def_cfa_offset 16
	.cfi_offset 6, -16
	push	ebx
LCFI60:
	.cfi_def_cfa_offset 20
	.cfi_offset 3, -20
	sub	esp, 92
LCFI61:
	.cfi_def_cfa_offset 112
	mov	esi, DWORD PTR [esp+112]
	mov	edi, DWORD PTR [esp+116]
	.loc 1 296 0
	mov	eax, DWORD PTR ___stack_chk_guard
	mov	DWORD PTR [esp+76], eax
	xor	eax, eax
	.loc 1 303 0
	test	esi, esi
	je	L276
	.loc 1 303 0 is_stmt 0 discriminator 1
	mov	DWORD PTR [esp+4], 4
	mov	DWORD PTR [esp], esi
	call	_flap_connection_findbygroup
LVL435:
	mov	ebp, eax
LVL436:
	test	eax, eax
	je	L276
	.loc 1 306 0 is_stmt 1
	test	edi, edi
	je	L276
	.loc 1 309 0
	mov	edx, DWORD PTR [edi+8]
	test	edx, edx
	je	L276
	.loc 1 309 0 is_stmt 0 discriminator 1
	mov	eax, DWORD PTR [edi+12]
LVL437:
	test	eax, eax
	je	L276
	.loc 1 312 0 is_stmt 1
	cmp	eax, 2544
	ja	L282
LVL438:
	.loc 1 317 0
	movzx	edx, WORD PTR [edi+28]
	.loc 1 319 0
	lea	edx, [eax+12+edx]
	mov	DWORD PTR [esp+44], edx
LVL439:
	.loc 1 321 0
	mov	eax, edx
	sub	eax, -128
	mov	DWORD PTR [esp+4], eax
	lea	ebx, [esp+56]
	mov	DWORD PTR [esp], ebx
	call	_byte_stream_new
LVL440:
	.loc 1 324 0
	lea	edx, [esp+68]
	mov	DWORD PTR [esp], edx
	mov	DWORD PTR [esp+40], edx
	call	_aim_icbm_makecookie
LVL441:
	.loc 1 327 0
	mov	eax, DWORD PTR [edi]
	mov	DWORD PTR [esp], eax
	mov	ecx, 1
	mov	edx, DWORD PTR [esp+40]
	mov	eax, ebx
	call	_aim_im_puticbm
LVL442:
	.loc 1 330 0
	mov	DWORD PTR [esp+4], 2
	mov	DWORD PTR [esp], ebx
	call	_byte_stream_put16
LVL443:
	.loc 1 2143 0
	movzx	eax, WORD PTR [esp+44]
	.loc 1 331 0
	mov	DWORD PTR [esp+4], eax
	mov	DWORD PTR [esp], ebx
	call	_byte_stream_put16
LVL444:
	.loc 1 334 0
	mov	DWORD PTR [esp+4], 1281
	mov	DWORD PTR [esp], ebx
	call	_byte_stream_put16
LVL445:
	.loc 1 335 0
	movzx	eax, WORD PTR [edi+28]
	mov	DWORD PTR [esp+4], eax
	mov	DWORD PTR [esp], ebx
	call	_byte_stream_put16
LVL446:
	.loc 1 336 0
	movzx	eax, WORD PTR [edi+28]
	mov	DWORD PTR [esp+8], eax
	mov	eax, DWORD PTR [edi+32]
	mov	DWORD PTR [esp+4], eax
	mov	DWORD PTR [esp], ebx
	call	_byte_stream_putraw
LVL447:
	.loc 1 339 0
	mov	DWORD PTR [esp+4], 257
	mov	DWORD PTR [esp], ebx
	call	_byte_stream_put16
LVL448:
	.loc 1 342 0
	mov	eax, DWORD PTR [edi+12]
	add	eax, 4
	movzx	eax, ax
	mov	DWORD PTR [esp+4], eax
	mov	DWORD PTR [esp], ebx
	call	_byte_stream_put16
LVL449:
	.loc 1 345 0
	movzx	eax, WORD PTR [edi+36]
	mov	DWORD PTR [esp+4], eax
	mov	DWORD PTR [esp], ebx
	call	_byte_stream_put16
LVL450:
	.loc 1 347 0
	mov	DWORD PTR [esp+4], 0
	mov	DWORD PTR [esp], ebx
	call	_byte_stream_put16
LVL451:
	.loc 1 350 0
	mov	eax, DWORD PTR [edi+12]
	mov	DWORD PTR [esp+8], eax
	mov	eax, DWORD PTR [edi+8]
	mov	DWORD PTR [esp+4], eax
	mov	DWORD PTR [esp], ebx
	call	_byte_stream_putraw
LVL452:
	.loc 1 353 0
	test	BYTE PTR [edi+4], 1
	jne	L303
	.loc 1 358 0
	mov	DWORD PTR [esp+4], 3
	mov	DWORD PTR [esp], ebx
	call	_byte_stream_put16
LVL453:
	.loc 1 359 0
	mov	DWORD PTR [esp+4], 0
	mov	DWORD PTR [esp], ebx
	call	_byte_stream_put16
LVL454:
	.loc 1 361 0
	mov	eax, DWORD PTR [edi+4]
	test	ah, 8
	jne	L304
	.loc 1 373 0
	test	al, 32
	jne	L305
L279:
	.loc 1 386 0
	test	al, 16
	jne	L306
L280:
	.loc 1 392 0
	mov	edx, DWORD PTR [edi]
	xor	eax, eax
	mov	ecx, -1
	mov	edi, edx
	repne scasb
	not	ecx
	mov	DWORD PTR [esp+20], ecx
	mov	DWORD PTR [esp+16], edx
	mov	DWORD PTR [esp+12], 0
	mov	DWORD PTR [esp+8], 6
	mov	DWORD PTR [esp+4], 4
	mov	DWORD PTR [esp], esi
	call	_aim_cachesnac
LVL455:
	.loc 1 394 0
	mov	DWORD PTR [esp+20], ebx
	mov	DWORD PTR [esp+16], eax
	mov	DWORD PTR [esp+12], 6
	mov	DWORD PTR [esp+8], 4
	mov	DWORD PTR [esp+4], ebp
	mov	DWORD PTR [esp], esi
	call	_flap_connection_send_snac
LVL456:
	.loc 1 395 0
	mov	DWORD PTR [esp], ebx
	call	_byte_stream_destroy
LVL457:
	.loc 1 398 0
	mov	DWORD PTR [esp+4], 60
	mov	DWORD PTR [esp], esi
	call	_aim_cleansnacs
LVL458:
	.loc 1 400 0
	xor	eax, eax
LVL459:
L275:
	.loc 1 401 0
	mov	edx, DWORD PTR [esp+76]
	xor	edx, DWORD PTR ___stack_chk_guard
	jne	L307
	add	esp, 92
LCFI62:
	.cfi_remember_state
	.cfi_def_cfa_offset 20
	pop	ebx
LCFI63:
	.cfi_restore 3
	.cfi_def_cfa_offset 16
	pop	esi
LCFI64:
	.cfi_restore 6
	.cfi_def_cfa_offset 12
	pop	edi
LCFI65:
	.cfi_restore 7
	.cfi_def_cfa_offset 8
	pop	ebp
LCFI66:
	.cfi_restore 5
	.cfi_def_cfa_offset 4
	ret
LVL460:
	.p2align 2,,3
L303:
LCFI67:
	.cfi_restore_state
	.loc 1 354 0
	mov	DWORD PTR [esp+4], 4
L302:
	.loc 1 363 0
	mov	DWORD PTR [esp], ebx
	call	_byte_stream_put16
LVL461:
	.loc 1 364 0
	mov	DWORD PTR [esp+4], 0
	mov	DWORD PTR [esp], ebx
	call	_byte_stream_put16
LVL462:
	mov	eax, DWORD PTR [edi+4]
	.loc 1 373 0
	test	al, 32
	je	L279
L305:
	.loc 1 374 0
	mov	DWORD PTR [esp+4], 8
	mov	DWORD PTR [esp], ebx
	call	_byte_stream_put16
LVL463:
	.loc 1 375 0
	mov	DWORD PTR [esp+4], 12
	mov	DWORD PTR [esp], ebx
	call	_byte_stream_put16
LVL464:
	.loc 1 376 0
	mov	eax, DWORD PTR [edi+16]
	mov	DWORD PTR [esp+4], eax
	mov	DWORD PTR [esp], ebx
	call	_byte_stream_put32
LVL465:
	.loc 1 377 0
	mov	DWORD PTR [esp+4], 1
	mov	DWORD PTR [esp], ebx
	call	_byte_stream_put16
LVL466:
	.loc 1 2143 0
	movzx	eax, WORD PTR [edi+24]
	.loc 1 378 0
	mov	DWORD PTR [esp+4], eax
	mov	DWORD PTR [esp], ebx
	call	_byte_stream_put16
LVL467:
	.loc 1 379 0
	mov	eax, DWORD PTR [edi+20]
	mov	DWORD PTR [esp+4], eax
	mov	DWORD PTR [esp], ebx
	call	_byte_stream_put32
LVL468:
	mov	eax, DWORD PTR [edi+4]
	.loc 1 386 0
	test	al, 16
	je	L280
L306:
	.loc 1 387 0
	mov	DWORD PTR [esp+4], 9
	mov	DWORD PTR [esp], ebx
	call	_byte_stream_put16
LVL469:
	.loc 1 388 0
	mov	DWORD PTR [esp+4], 0
	mov	DWORD PTR [esp], ebx
	call	_byte_stream_put16
LVL470:
	jmp	L280
	.p2align 2,,3
L304:
	.loc 1 363 0
	mov	DWORD PTR [esp+4], 6
	jmp	L302
LVL471:
	.p2align 2,,3
L282:
	.loc 1 313 0
	mov	eax, -7
	jmp	L275
LVL472:
	.p2align 2,,3
L276:
	.loc 1 304 0
	mov	eax, -22
	jmp	L275
L307:
	.loc 1 401 0
	call	___stack_chk_fail
LVL473:
	.cfi_endproc
LFE99:
	.p2align 2,,3
	.globl	_aim_im_sendch2_chatinvite
	.def	_aim_im_sendch2_chatinvite;	.scl	2;	.type	32;	.endef
_aim_im_sendch2_chatinvite:
LFB100:
	.loc 1 407 0
	.cfi_startproc
LVL474:
	push	ebp
LCFI68:
	.cfi_def_cfa_offset 8
	.cfi_offset 5, -8
	push	edi
LCFI69:
	.cfi_def_cfa_offset 12
	.cfi_offset 7, -12
	push	esi
LCFI70:
	.cfi_def_cfa_offset 16
	.cfi_offset 6, -16
	push	ebx
LCFI71:
	.cfi_def_cfa_offset 20
	.cfi_offset 3, -20
	sub	esp, 124
LCFI72:
	.cfi_def_cfa_offset 144
	mov	ebp, DWORD PTR [esp+144]
	mov	esi, DWORD PTR [esp+148]
	mov	eax, DWORD PTR [esp+152]
	mov	DWORD PTR [esp+40], eax
	mov	edx, DWORD PTR [esp+156]
	mov	DWORD PTR [esp+48], edx
	mov	ecx, DWORD PTR [esp+160]
	mov	DWORD PTR [esp+36], ecx
	mov	edx, DWORD PTR [esp+164]
	mov	DWORD PTR [esp+52], edx
	mov	ecx, DWORD PTR [esp+48]
	mov	WORD PTR [esp+60], cx
	mov	WORD PTR [esp+62], dx
	.loc 1 407 0
	mov	eax, DWORD PTR ___stack_chk_guard
	mov	DWORD PTR [esp+108], eax
	xor	eax, eax
	.loc 1 414 0
	mov	DWORD PTR [esp+68], 0
LVL475:
	mov	DWORD PTR [esp+72], 0
LVL476:
	.loc 1 417 0
	test	ebp, ebp
	je	L311
	.loc 1 417 0 is_stmt 0 discriminator 1
	mov	DWORD PTR [esp+4], 4
	mov	DWORD PTR [esp], ebp
	call	_flap_connection_findbygroup
LVL477:
	mov	DWORD PTR [esp+56], eax
LVL478:
	test	eax, eax
	je	L311
	.loc 1 420 0 is_stmt 1
	test	esi, esi
	je	L311
	.loc 1 420 0 is_stmt 0 discriminator 1
	mov	ebx, DWORD PTR [esp+40]
	test	ebx, ebx
	je	L311
	mov	ecx, DWORD PTR [esp+36]
	test	ecx, ecx
	je	L311
	.loc 1 423 0 is_stmt 1
	lea	edx, [esp+100]
	mov	DWORD PTR [esp], edx
	call	_aim_icbm_makecookie
LVL479:
	.loc 1 425 0
	xor	ebx, ebx
	mov	ecx, -1
	mov	edi, esi
	mov	al, bl
	repne scasb
LVL480:
	mov	DWORD PTR [esp+44], ecx
	mov	ecx, -1
	mov	edi, DWORD PTR [esp+36]
	repne scasb
LVL481:
	mov	edx, ecx
	not	edx
	mov	ecx, -1
	mov	edi, DWORD PTR [esp+40]
	repne scasb
LVL482:
	not	ecx
	sub	edx, DWORD PTR [esp+44]
	lea	eax, [edx+1138+ecx]
	mov	DWORD PTR [esp+4], eax
	lea	eax, [esp+76]
	mov	DWORD PTR [esp], eax
	call	_byte_stream_new
LVL483:
	.loc 1 427 0
	mov	ecx, -1
	mov	edi, esi
	mov	al, bl
	repne scasb
	not	ecx
	mov	DWORD PTR [esp+20], ecx
	mov	DWORD PTR [esp+16], esi
	mov	DWORD PTR [esp+12], 0
	mov	DWORD PTR [esp+8], 6
	mov	DWORD PTR [esp+4], 4
	mov	DWORD PTR [esp], ebp
	call	_aim_cachesnac
LVL484:
	mov	DWORD PTR [esp+44], eax
LVL485:
	.loc 1 430 0
	mov	DWORD PTR [esp], 12
	call	_g_malloc
LVL486:
	mov	ebx, eax
LVL487:
	.loc 1 431 0
	mov	DWORD PTR [esp], esi
	call	_g_strdup
LVL488:
	mov	DWORD PTR [ebx], eax
	.loc 1 432 0
	mov	edx, DWORD PTR [esp+36]
	mov	DWORD PTR [esp], edx
	call	_g_strdup
LVL489:
	mov	DWORD PTR [ebx+4], eax
	.loc 1 433 0
	mov	ecx, DWORD PTR [esp+48]
	mov	WORD PTR [ebx+8], cx
	.loc 1 434 0
	mov	eax, DWORD PTR [esp+52]
	mov	WORD PTR [ebx+10], ax
	.loc 1 436 0
	mov	DWORD PTR [esp+8], ebx
	mov	DWORD PTR [esp+4], 2
	lea	edx, [esp+100]
	mov	DWORD PTR [esp], edx
	call	_aim_mkcookie
LVL490:
	test	eax, eax
	je	L312
	.loc 1 437 0
	mov	DWORD PTR [esp+4], eax
	mov	DWORD PTR [esp], ebp
	call	_aim_cachecookie
LVL491:
L313:
	.loc 1 442 0
	mov	DWORD PTR [esp], esi
	mov	ecx, 2
	lea	edx, [esp+100]
	lea	eax, [esp+76]
	call	_aim_im_puticbm
LVL492:
	.loc 1 454 0
	mov	ebx, -1
LVL493:
	xor	eax, eax
	mov	ecx, ebx
	mov	edi, DWORD PTR [esp+40]
	repne scasb
	mov	edx, ecx
	not	edx
	mov	ecx, ebx
	mov	edi, DWORD PTR [esp+36]
	repne scasb
	not	ecx
	lea	eax, [edx+47+ecx]
	mov	DWORD PTR [esp+4], eax
	lea	ebx, [esp+88]
	mov	DWORD PTR [esp], ebx
	call	_byte_stream_new
LVL494:
	.loc 1 456 0
	mov	DWORD PTR [esp+4], 0
	mov	DWORD PTR [esp], ebx
	call	_byte_stream_put16
LVL495:
	.loc 1 457 0
	mov	DWORD PTR [esp+8], 8
	lea	eax, [esp+100]
	mov	DWORD PTR [esp+4], eax
	mov	DWORD PTR [esp], ebx
	call	_byte_stream_putraw
LVL496:
	.loc 1 458 0
	mov	DWORD PTR [esp+4], 8
	mov	DWORD PTR [esp+8], 0
	mov	DWORD PTR [esp], ebx
	call	_byte_stream_putcaps
LVL497:
	.loc 1 460 0
	mov	DWORD PTR [esp+8], 1
	mov	DWORD PTR [esp+4], 10
	lea	esi, [esp+72]
	mov	DWORD PTR [esp], esi
	call	_aim_tlvlist_add_16
LVL498:
	.loc 1 461 0
	mov	DWORD PTR [esp+4], 15
	mov	DWORD PTR [esp], esi
	call	_aim_tlvlist_add_noval
LVL499:
	.loc 1 462 0
	mov	edx, DWORD PTR [esp+40]
	mov	DWORD PTR [esp+8], edx
	mov	DWORD PTR [esp+4], 12
	mov	DWORD PTR [esp], esi
	call	_aim_tlvlist_add_str
LVL500:
	.loc 1 463 0
	movzx	eax, WORD PTR [esp+62]
	mov	DWORD PTR [esp+16], eax
	mov	ecx, DWORD PTR [esp+36]
	mov	DWORD PTR [esp+12], ecx
	movzx	eax, WORD PTR [esp+60]
	mov	DWORD PTR [esp+8], eax
	mov	DWORD PTR [esp+4], 10001
	mov	DWORD PTR [esp], esi
	call	_aim_tlvlist_add_chatroom
LVL501:
	.loc 1 464 0
	mov	DWORD PTR [esp+4], esi
	mov	DWORD PTR [esp], ebx
	call	_aim_tlvlist_write
LVL502:
	.loc 1 466 0
	mov	esi, DWORD PTR [esp+88]
	mov	DWORD PTR [esp], ebx
	call	_byte_stream_curpos
LVL503:
	mov	DWORD PTR [esp+12], esi
	and	eax, 65535
	mov	DWORD PTR [esp+8], eax
	mov	DWORD PTR [esp+4], 5
	lea	esi, [esp+68]
	mov	DWORD PTR [esp], esi
	call	_aim_tlvlist_add_raw
LVL504:
	.loc 1 467 0
	mov	DWORD PTR [esp], ebx
	call	_byte_stream_destroy
LVL505:
	.loc 1 469 0
	mov	DWORD PTR [esp+4], esi
	lea	eax, [esp+76]
	mov	DWORD PTR [esp], eax
	call	_aim_tlvlist_write
LVL506:
	.loc 1 471 0
	mov	eax, DWORD PTR [esp+72]
	mov	DWORD PTR [esp], eax
	call	_aim_tlvlist_free
LVL507:
	.loc 1 472 0
	mov	eax, DWORD PTR [esp+68]
	mov	DWORD PTR [esp], eax
	call	_aim_tlvlist_free
LVL508:
	.loc 1 474 0
	lea	edx, [esp+76]
	mov	DWORD PTR [esp+20], edx
	mov	eax, DWORD PTR [esp+44]
	mov	DWORD PTR [esp+16], eax
	mov	DWORD PTR [esp+12], 6
	mov	DWORD PTR [esp+8], 4
	mov	eax, DWORD PTR [esp+56]
	mov	DWORD PTR [esp+4], eax
	mov	DWORD PTR [esp], ebp
	call	_flap_connection_send_snac
LVL509:
	.loc 1 476 0
	lea	edx, [esp+76]
	mov	DWORD PTR [esp], edx
	call	_byte_stream_destroy
LVL510:
	.loc 1 478 0
	xor	eax, eax
LVL511:
L310:
	.loc 1 479 0
	mov	ecx, DWORD PTR [esp+108]
	xor	ecx, DWORD PTR ___stack_chk_guard
	jne	L328
	add	esp, 124
LCFI73:
	.cfi_remember_state
	.cfi_def_cfa_offset 20
	pop	ebx
LCFI74:
	.cfi_restore 3
	.cfi_def_cfa_offset 16
	pop	esi
LCFI75:
	.cfi_restore 6
	.cfi_def_cfa_offset 12
	pop	edi
LCFI76:
	.cfi_restore 7
	.cfi_def_cfa_offset 8
	pop	ebp
LCFI77:
	.cfi_restore 5
	.cfi_def_cfa_offset 4
	ret
LVL512:
	.p2align 2,,3
L312:
LCFI78:
	.cfi_restore_state
	.loc 1 439 0
	mov	DWORD PTR [esp], ebx
	call	_g_free
LVL513:
	jmp	L313
LVL514:
	.p2align 2,,3
L311:
	.loc 1 418 0
	mov	eax, -22
	jmp	L310
LVL515:
L328:
	.loc 1 479 0
	call	___stack_chk_fail
LVL516:
	.cfi_endproc
LFE100:
	.section .rdata,"dr"
LC30:
	.ascii "AVT1picture.id\0"
	.text
	.p2align 2,,3
	.globl	_aim_im_sendch2_icon
	.def	_aim_im_sendch2_icon;	.scl	2;	.type	32;	.endef
_aim_im_sendch2_icon:
LFB101:
	.loc 1 488 0
	.cfi_startproc
LVL517:
	push	ebp
LCFI79:
	.cfi_def_cfa_offset 8
	.cfi_offset 5, -8
	push	edi
LCFI80:
	.cfi_def_cfa_offset 12
	.cfi_offset 7, -12
	push	esi
LCFI81:
	.cfi_def_cfa_offset 16
	.cfi_offset 6, -16
	push	ebx
LCFI82:
	.cfi_def_cfa_offset 20
	.cfi_offset 3, -20
	sub	esp, 108
LCFI83:
	.cfi_def_cfa_offset 128
	mov	ebp, DWORD PTR [esp+128]
	mov	esi, DWORD PTR [esp+132]
	mov	eax, DWORD PTR [esp+136]
	mov	DWORD PTR [esp+44], eax
	mov	ebx, DWORD PTR [esp+140]
	mov	edx, DWORD PTR [esp+144]
	mov	DWORD PTR [esp+52], edx
	mov	eax, DWORD PTR [esp+148]
	mov	WORD PTR [esp+58], ax
	.loc 1 488 0
	mov	edx, DWORD PTR ___stack_chk_guard
	mov	DWORD PTR [esp+92], edx
	xor	edx, edx
	.loc 1 494 0
	test	ebp, ebp
	je	L332
	.loc 1 494 0 is_stmt 0 discriminator 1
	mov	DWORD PTR [esp+4], 4
	mov	DWORD PTR [esp], ebp
	call	_flap_connection_findbygroup
LVL518:
	mov	DWORD PTR [esp+48], eax
LVL519:
	test	eax, eax
	je	L332
	.loc 1 497 0 is_stmt 1
	test	esi, esi
	je	L332
	.loc 1 497 0 is_stmt 0 discriminator 1
	mov	edi, DWORD PTR [esp+44]
	test	edi, edi
	je	L332
	test	ebx, ebx
	jle	L332
	cmp	ebx, 7167
	jg	L332
	.loc 1 500 0 is_stmt 1
	lea	eax, [esp+84]
LVL520:
	mov	DWORD PTR [esp], eax
	call	_aim_icbm_makecookie
LVL521:
	.loc 1 502 0
	xor	eax, eax
	mov	ecx, -1
	mov	edi, esi
	repne scasb
LVL522:
	not	ecx
	lea	eax, [ebx+84+ecx]
	mov	DWORD PTR [esp+4], eax
	lea	edi, [esp+72]
	mov	DWORD PTR [esp], edi
	call	_byte_stream_new
LVL523:
	.loc 1 504 0
	mov	DWORD PTR [esp+20], 0
	mov	DWORD PTR [esp+16], 0
	mov	DWORD PTR [esp+12], 0
	mov	DWORD PTR [esp+8], 6
	mov	DWORD PTR [esp+4], 4
	mov	DWORD PTR [esp], ebp
	call	_aim_cachesnac
LVL524:
	mov	DWORD PTR [esp+60], eax
LVL525:
	.loc 1 507 0
	mov	DWORD PTR [esp], esi
	mov	ecx, 2
	lea	edx, [esp+84]
	mov	eax, edi
LVL526:
	call	_aim_im_puticbm
LVL527:
	.loc 1 514 0
	mov	DWORD PTR [esp+4], 5
	mov	DWORD PTR [esp], edi
	call	_byte_stream_put16
LVL528:
	.loc 1 515 0
	mov	esi, ebx
	lea	eax, [esi+66]
	movzx	eax, ax
	mov	DWORD PTR [esp+4], eax
	mov	DWORD PTR [esp], edi
	call	_byte_stream_put16
LVL529:
	.loc 1 517 0
	mov	DWORD PTR [esp+4], 0
	mov	DWORD PTR [esp], edi
	call	_byte_stream_put16
LVL530:
	.loc 1 518 0
	mov	DWORD PTR [esp+8], 8
	lea	edx, [esp+84]
	mov	DWORD PTR [esp+4], edx
	mov	DWORD PTR [esp], edi
	call	_byte_stream_putraw
LVL531:
	.loc 1 519 0
	mov	DWORD PTR [esp+4], 1
	mov	DWORD PTR [esp+8], 0
	mov	DWORD PTR [esp], edi
	call	_byte_stream_putcaps
LVL532:
	.loc 1 522 0
	mov	DWORD PTR [esp+4], 10
	mov	DWORD PTR [esp], edi
	call	_byte_stream_put16
LVL533:
	.loc 1 523 0
	mov	DWORD PTR [esp+4], 2
	mov	DWORD PTR [esp], edi
	call	_byte_stream_put16
LVL534:
	.loc 1 524 0
	mov	DWORD PTR [esp+4], 1
	mov	DWORD PTR [esp], edi
	call	_byte_stream_put16
LVL535:
	.loc 1 527 0
	mov	DWORD PTR [esp+4], 15
	mov	DWORD PTR [esp], edi
	call	_byte_stream_put16
LVL536:
	.loc 1 528 0
	mov	DWORD PTR [esp+4], 0
	mov	DWORD PTR [esp], edi
	call	_byte_stream_put16
LVL537:
	.loc 1 531 0
	mov	DWORD PTR [esp+4], 10001
	mov	DWORD PTR [esp], edi
	call	_byte_stream_put16
LVL538:
	.loc 1 532 0
	add	esi, 26
	movzx	esi, si
	mov	DWORD PTR [esp+4], esi
	mov	DWORD PTR [esp], edi
	call	_byte_stream_put16
LVL539:
	.loc 1 533 0
	mov	DWORD PTR [esp+4], 0
	mov	DWORD PTR [esp], edi
	call	_byte_stream_put16
LVL540:
	.loc 1 534 0
	movzx	eax, WORD PTR [esp+58]
	mov	DWORD PTR [esp+4], eax
	mov	DWORD PTR [esp], edi
	call	_byte_stream_put16
LVL541:
	.loc 1 535 0
	mov	DWORD PTR [esp+4], ebx
	mov	DWORD PTR [esp], edi
	call	_byte_stream_put32
LVL542:
	.loc 1 536 0
	mov	eax, DWORD PTR [esp+52]
	mov	DWORD PTR [esp+4], eax
	mov	DWORD PTR [esp], edi
	call	_byte_stream_put32
LVL543:
	.loc 1 537 0
	mov	DWORD PTR [esp+8], ebx
	mov	edx, DWORD PTR [esp+44]
	mov	DWORD PTR [esp+4], edx
	mov	DWORD PTR [esp], edi
	call	_byte_stream_putraw
LVL544:
	.loc 1 538 0
	mov	DWORD PTR [esp+4], OFFSET FLAT:LC30
	mov	DWORD PTR [esp], edi
	call	_byte_stream_putstr
LVL545:
	.loc 1 541 0
	mov	DWORD PTR [esp+4], 3
	mov	DWORD PTR [esp], edi
	call	_byte_stream_put16
LVL546:
	.loc 1 542 0
	mov	DWORD PTR [esp+4], 0
	mov	DWORD PTR [esp], edi
	call	_byte_stream_put16
LVL547:
	.loc 1 544 0
	mov	DWORD PTR [esp+20], edi
	mov	eax, DWORD PTR [esp+60]
	mov	DWORD PTR [esp+16], eax
	mov	DWORD PTR [esp+12], 6
	mov	DWORD PTR [esp+8], 4
	mov	eax, DWORD PTR [esp+48]
	mov	DWORD PTR [esp+4], eax
	mov	DWORD PTR [esp], ebp
	call	_flap_connection_send_snac
LVL548:
	.loc 1 546 0
	mov	DWORD PTR [esp], edi
	call	_byte_stream_destroy
LVL549:
	.loc 1 548 0
	xor	eax, eax
LVL550:
L331:
	.loc 1 549 0
	mov	edx, DWORD PTR [esp+92]
	xor	edx, DWORD PTR ___stack_chk_guard
	jne	L344
	add	esp, 108
LCFI84:
	.cfi_remember_state
	.cfi_def_cfa_offset 20
	pop	ebx
LCFI85:
	.cfi_restore 3
	.cfi_def_cfa_offset 16
	pop	esi
LCFI86:
	.cfi_restore 6
	.cfi_def_cfa_offset 12
	pop	edi
LCFI87:
	.cfi_restore 7
	.cfi_def_cfa_offset 8
	pop	ebp
LCFI88:
	.cfi_restore 5
	.cfi_def_cfa_offset 4
	ret
LVL551:
	.p2align 2,,3
L332:
LCFI89:
	.cfi_restore_state
	.loc 1 495 0
	mov	eax, -22
	jmp	L331
LVL552:
L344:
	.loc 1 549 0
	call	___stack_chk_fail
LVL553:
	.cfi_endproc
LFE101:
	.p2align 2,,3
	.globl	_aim_im_sendch2_cancel
	.def	_aim_im_sendch2_cancel;	.scl	2;	.type	32;	.endef
_aim_im_sendch2_cancel:
LFB102:
	.loc 1 557 0
	.cfi_startproc
LVL554:
	push	ebp
LCFI90:
	.cfi_def_cfa_offset 8
	.cfi_offset 5, -8
	push	edi
LCFI91:
	.cfi_def_cfa_offset 12
	.cfi_offset 7, -12
	push	esi
LCFI92:
	.cfi_def_cfa_offset 16
	.cfi_offset 6, -16
	push	ebx
LCFI93:
	.cfi_def_cfa_offset 20
	.cfi_offset 3, -20
	sub	esp, 108
LCFI94:
	.cfi_def_cfa_offset 128
	mov	esi, DWORD PTR [esp+128]
	.loc 1 557 0
	mov	eax, DWORD PTR ___stack_chk_guard
	mov	DWORD PTR [esp+92], eax
	xor	eax, eax
	.loc 1 562 0
	mov	DWORD PTR [esp+60], 0
LVL555:
	mov	DWORD PTR [esp+64], 0
LVL556:
	.loc 1 565 0
	mov	ebp, DWORD PTR [esi]
LVL557:
	.loc 1 566 0
	mov	DWORD PTR [esp+4], 4
	mov	DWORD PTR [esp], ebp
	call	_flap_connection_findbygroup
LVL558:
	mov	DWORD PTR [esp+40], eax
LVL559:
	.loc 1 567 0
	test	eax, eax
	je	L345
	.loc 1 570 0
	mov	edi, DWORD PTR [esi+16]
	xor	eax, eax
LVL560:
	mov	ecx, -1
	repne scasb
	not	ecx
	add	ecx, 117
	mov	DWORD PTR [esp+4], ecx
	lea	edi, [esp+68]
	mov	DWORD PTR [esp], edi
	call	_byte_stream_new
LVL561:
	.loc 1 572 0
	mov	DWORD PTR [esp+20], 0
	mov	DWORD PTR [esp+16], 0
	mov	DWORD PTR [esp+12], 0
	mov	DWORD PTR [esp+8], 6
	mov	DWORD PTR [esp+4], 4
	mov	DWORD PTR [esp], ebp
	call	_aim_cachesnac
LVL562:
	mov	DWORD PTR [esp+44], eax
LVL563:
	.loc 1 575 0
	lea	edx, [esi+24]
	mov	DWORD PTR [esp+36], edx
	mov	eax, DWORD PTR [esi+16]
LVL564:
	mov	DWORD PTR [esp], eax
	mov	ecx, 2
	mov	eax, edi
	call	_aim_im_puticbm
LVL565:
	.loc 1 577 0
	mov	DWORD PTR [esp+4], 3
	lea	ecx, [esp+60]
	mov	DWORD PTR [esp], ecx
	mov	DWORD PTR [esp+32], ecx
	call	_aim_tlvlist_add_noval
LVL566:
	.loc 1 579 0
	mov	DWORD PTR [esp+4], 64
	lea	ebx, [esp+80]
	mov	DWORD PTR [esp], ebx
	call	_byte_stream_new
LVL567:
	.loc 1 581 0
	mov	DWORD PTR [esp+4], 1
	mov	DWORD PTR [esp], ebx
	call	_byte_stream_put16
LVL568:
	.loc 1 582 0
	mov	DWORD PTR [esp+8], 8
	mov	eax, DWORD PTR [esp+36]
	mov	DWORD PTR [esp+4], eax
	mov	DWORD PTR [esp], ebx
	call	_byte_stream_putraw
LVL569:
	.loc 1 583 0
	mov	eax, DWORD PTR [esi+8]
	mov	edx, DWORD PTR [esi+12]
	mov	DWORD PTR [esp+4], eax
	mov	DWORD PTR [esp+8], edx
	mov	DWORD PTR [esp], ebx
	call	_byte_stream_putcaps
LVL570:
	.loc 1 586 0
	mov	DWORD PTR [esp+8], 1
	mov	DWORD PTR [esp+4], 11
	lea	esi, [esp+64]
	mov	DWORD PTR [esp], esi
	call	_aim_tlvlist_add_16
LVL571:
	.loc 1 587 0
	mov	DWORD PTR [esp+4], esi
	mov	DWORD PTR [esp], ebx
	call	_aim_tlvlist_write
LVL572:
	.loc 1 589 0
	mov	esi, DWORD PTR [esp+80]
	mov	DWORD PTR [esp], ebx
	call	_byte_stream_curpos
LVL573:
	mov	DWORD PTR [esp+12], esi
	and	eax, 65535
	mov	DWORD PTR [esp+8], eax
	mov	DWORD PTR [esp+4], 5
	mov	ecx, DWORD PTR [esp+32]
	mov	DWORD PTR [esp], ecx
	call	_aim_tlvlist_add_raw
LVL574:
	.loc 1 590 0
	mov	DWORD PTR [esp], ebx
	call	_byte_stream_destroy
LVL575:
	.loc 1 592 0
	mov	ecx, DWORD PTR [esp+32]
	mov	DWORD PTR [esp+4], ecx
	mov	DWORD PTR [esp], edi
	call	_aim_tlvlist_write
LVL576:
	.loc 1 594 0
	mov	eax, DWORD PTR [esp+64]
	mov	DWORD PTR [esp], eax
	call	_aim_tlvlist_free
LVL577:
	.loc 1 595 0
	mov	eax, DWORD PTR [esp+60]
	mov	DWORD PTR [esp], eax
	call	_aim_tlvlist_free
LVL578:
	.loc 1 597 0
	mov	DWORD PTR [esp+20], edi
	mov	eax, DWORD PTR [esp+44]
	mov	DWORD PTR [esp+16], eax
	mov	DWORD PTR [esp+12], 6
	mov	DWORD PTR [esp+8], 4
	mov	eax, DWORD PTR [esp+40]
	mov	DWORD PTR [esp+4], eax
	mov	DWORD PTR [esp], ebp
	call	_flap_connection_send_snac
LVL579:
	.loc 1 599 0
	mov	DWORD PTR [esp], edi
	call	_byte_stream_destroy
LVL580:
L345:
	.loc 1 600 0
	mov	edx, DWORD PTR [esp+92]
	xor	edx, DWORD PTR ___stack_chk_guard
	jne	L353
	add	esp, 108
LCFI95:
	.cfi_remember_state
	.cfi_def_cfa_offset 20
	pop	ebx
LCFI96:
	.cfi_restore 3
	.cfi_def_cfa_offset 16
	pop	esi
LCFI97:
	.cfi_restore 6
	.cfi_def_cfa_offset 12
	pop	edi
LCFI98:
	.cfi_restore 7
	.cfi_def_cfa_offset 8
	pop	ebp
LCFI99:
	.cfi_restore 5
	.cfi_def_cfa_offset 4
LVL581:
	ret
LVL582:
L353:
LCFI100:
	.cfi_restore_state
	call	___stack_chk_fail
LVL583:
	.cfi_endproc
LFE102:
	.p2align 2,,3
	.globl	_aim_im_sendch2_connected
	.def	_aim_im_sendch2_connected;	.scl	2;	.type	32;	.endef
_aim_im_sendch2_connected:
LFB103:
	.loc 1 608 0
	.cfi_startproc
LVL584:
	push	ebp
LCFI101:
	.cfi_def_cfa_offset 8
	.cfi_offset 5, -8
	push	edi
LCFI102:
	.cfi_def_cfa_offset 12
	.cfi_offset 7, -12
	push	esi
LCFI103:
	.cfi_def_cfa_offset 16
	.cfi_offset 6, -16
	push	ebx
LCFI104:
	.cfi_def_cfa_offset 20
	.cfi_offset 3, -20
	sub	esp, 76
LCFI105:
	.cfi_def_cfa_offset 96
	mov	ebx, DWORD PTR [esp+96]
	.loc 1 608 0
	mov	eax, DWORD PTR ___stack_chk_guard
	mov	DWORD PTR [esp+60], eax
	xor	eax, eax
	.loc 1 614 0
	mov	esi, DWORD PTR [ebx]
LVL585:
	.loc 1 615 0
	mov	DWORD PTR [esp+4], 4
	mov	DWORD PTR [esp], esi
	call	_flap_connection_findbygroup
LVL586:
	mov	ebp, eax
LVL587:
	.loc 1 616 0
	test	eax, eax
	je	L354
	.loc 1 619 0
	mov	edi, DWORD PTR [ebx+16]
	xor	eax, eax
LVL588:
	mov	ecx, -1
	repne scasb
	not	ecx
	add	ecx, 40
	mov	DWORD PTR [esp+4], ecx
	lea	edi, [esp+48]
	mov	DWORD PTR [esp], edi
	call	_byte_stream_new
LVL589:
	.loc 1 621 0
	mov	DWORD PTR [esp+20], 0
	mov	DWORD PTR [esp+16], 0
	mov	DWORD PTR [esp+12], 0
	mov	DWORD PTR [esp+8], 6
	mov	DWORD PTR [esp+4], 4
	mov	DWORD PTR [esp], esi
	call	_aim_cachesnac
LVL590:
	mov	DWORD PTR [esp+44], eax
LVL591:
	.loc 1 624 0
	lea	eax, [ebx+24]
LVL592:
	mov	DWORD PTR [esp+40], eax
	mov	eax, DWORD PTR [ebx+16]
	mov	DWORD PTR [esp], eax
	mov	ecx, 2
	mov	edx, DWORD PTR [esp+40]
	mov	eax, edi
	call	_aim_im_puticbm
LVL593:
	.loc 1 626 0
	mov	DWORD PTR [esp+4], 5
	mov	DWORD PTR [esp], edi
	call	_byte_stream_put16
LVL594:
	.loc 1 627 0
	mov	DWORD PTR [esp+4], 26
	mov	DWORD PTR [esp], edi
	call	_byte_stream_put16
LVL595:
	.loc 1 628 0
	mov	DWORD PTR [esp+4], 2
	mov	DWORD PTR [esp], edi
	call	_byte_stream_put16
LVL596:
	.loc 1 629 0
	mov	DWORD PTR [esp+8], 8
	mov	eax, DWORD PTR [esp+40]
	mov	DWORD PTR [esp+4], eax
	mov	DWORD PTR [esp], edi
	call	_byte_stream_putraw
LVL597:
	.loc 1 630 0
	mov	eax, DWORD PTR [ebx+8]
	mov	edx, DWORD PTR [ebx+12]
	mov	DWORD PTR [esp+4], eax
	mov	DWORD PTR [esp+8], edx
	mov	DWORD PTR [esp], edi
	call	_byte_stream_putcaps
LVL598:
	.loc 1 632 0
	mov	DWORD PTR [esp+20], edi
	mov	eax, DWORD PTR [esp+44]
	mov	DWORD PTR [esp+16], eax
	mov	DWORD PTR [esp+12], 6
	mov	DWORD PTR [esp+8], 4
	mov	DWORD PTR [esp+4], ebp
	mov	DWORD PTR [esp], esi
	call	_flap_connection_send_snac
LVL599:
	.loc 1 634 0
	mov	DWORD PTR [esp], edi
	call	_byte_stream_destroy
LVL600:
L354:
	.loc 1 635 0
	mov	eax, DWORD PTR [esp+60]
	xor	eax, DWORD PTR ___stack_chk_guard
	jne	L362
	add	esp, 76
LCFI106:
	.cfi_remember_state
	.cfi_def_cfa_offset 20
	pop	ebx
LCFI107:
	.cfi_restore 3
	.cfi_def_cfa_offset 16
	pop	esi
LCFI108:
	.cfi_restore 6
	.cfi_def_cfa_offset 12
LVL601:
	pop	edi
LCFI109:
	.cfi_restore 7
	.cfi_def_cfa_offset 8
	pop	ebp
LCFI110:
	.cfi_restore 5
	.cfi_def_cfa_offset 4
LVL602:
	ret
LVL603:
L362:
LCFI111:
	.cfi_restore_state
	call	___stack_chk_fail
LVL604:
	.cfi_endproc
LFE103:
	.p2align 2,,3
	.globl	_aim_im_sendch2_odc_requestdirect
	.def	_aim_im_sendch2_odc_requestdirect;	.scl	2;	.type	32;	.endef
_aim_im_sendch2_odc_requestdirect:
LFB104:
	.loc 1 646 0
	.cfi_startproc
LVL605:
	push	ebp
LCFI112:
	.cfi_def_cfa_offset 8
	.cfi_offset 5, -8
	push	edi
LCFI113:
	.cfi_def_cfa_offset 12
	.cfi_offset 7, -12
	push	esi
LCFI114:
	.cfi_def_cfa_offset 16
	.cfi_offset 6, -16
	push	ebx
LCFI115:
	.cfi_def_cfa_offset 20
	.cfi_offset 3, -20
	sub	esp, 124
LCFI116:
	.cfi_def_cfa_offset 144
	mov	eax, DWORD PTR [esp+144]
	mov	DWORD PTR [esp+44], eax
	mov	ebx, DWORD PTR [esp+148]
	mov	esi, DWORD PTR [esp+152]
	mov	eax, DWORD PTR [esp+156]
	mov	DWORD PTR [esp+52], eax
	movzx	ebp, WORD PTR [esp+160]
	mov	eax, DWORD PTR [esp+164]
	mov	WORD PTR [esp+58], ax
	.loc 1 646 0
	mov	eax, DWORD PTR ___stack_chk_guard
	mov	DWORD PTR [esp+108], eax
	xor	eax, eax
	.loc 1 650 0
	mov	DWORD PTR [esp+76], 0
LVL606:
	mov	DWORD PTR [esp+80], 0
LVL607:
	.loc 1 653 0
	mov	DWORD PTR [esp+4], 4
	mov	eax, DWORD PTR [esp+44]
	mov	DWORD PTR [esp], eax
	call	_flap_connection_findbygroup
LVL608:
	mov	DWORD PTR [esp+48], eax
LVL609:
	.loc 1 654 0
	test	eax, eax
	je	L363
	.loc 1 657 0
	xor	eax, eax
LVL610:
	mov	ecx, -1
	mov	edi, esi
	repne scasb
LVL611:
	not	ecx
	add	ecx, 245
	mov	DWORD PTR [esp+4], ecx
	lea	edi, [esp+84]
	mov	DWORD PTR [esp], edi
	call	_byte_stream_new
LVL612:
	.loc 1 659 0
	mov	DWORD PTR [esp+20], 0
	mov	DWORD PTR [esp+16], 0
	mov	DWORD PTR [esp+12], 0
	mov	DWORD PTR [esp+8], 6
	mov	DWORD PTR [esp+4], 4
	mov	eax, DWORD PTR [esp+44]
	mov	DWORD PTR [esp], eax
	call	_aim_cachesnac
LVL613:
	mov	DWORD PTR [esp+60], eax
LVL614:
	.loc 1 662 0
	mov	DWORD PTR [esp], esi
	mov	ecx, 2
	mov	edx, ebx
	mov	eax, edi
LVL615:
	call	_aim_im_puticbm
LVL616:
	.loc 1 664 0
	mov	DWORD PTR [esp+4], 3
	lea	edx, [esp+76]
	mov	DWORD PTR [esp], edx
	mov	DWORD PTR [esp+40], edx
	call	_aim_tlvlist_add_noval
LVL617:
	.loc 1 666 0
	mov	DWORD PTR [esp+4], 128
	lea	esi, [esp+96]
	mov	DWORD PTR [esp], esi
	call	_byte_stream_new
LVL618:
	.loc 1 668 0
	mov	DWORD PTR [esp+4], 0
	mov	DWORD PTR [esp], esi
	call	_byte_stream_put16
LVL619:
	.loc 1 669 0
	mov	DWORD PTR [esp+8], 8
	mov	DWORD PTR [esp+4], ebx
	mov	DWORD PTR [esp], esi
	call	_byte_stream_putraw
LVL620:
	.loc 1 670 0
	mov	DWORD PTR [esp+4], 4
	mov	DWORD PTR [esp+8], 0
	mov	DWORD PTR [esp], esi
	call	_byte_stream_putcaps
LVL621:
	.loc 1 672 0
	mov	eax, DWORD PTR [esp+52]
	mov	DWORD PTR [esp+12], eax
	mov	DWORD PTR [esp+8], 4
	mov	DWORD PTR [esp+4], 2
	lea	ebx, [esp+80]
	mov	DWORD PTR [esp], ebx
	call	_aim_tlvlist_add_raw
LVL622:
	.loc 1 673 0
	mov	eax, DWORD PTR [esp+52]
	mov	DWORD PTR [esp+12], eax
	mov	DWORD PTR [esp+8], 4
	mov	DWORD PTR [esp+4], 3
	mov	DWORD PTR [esp], ebx
	call	_aim_tlvlist_add_raw
LVL623:
	.loc 1 674 0
	mov	DWORD PTR [esp+8], ebp
	mov	DWORD PTR [esp+4], 5
	mov	DWORD PTR [esp], ebx
	call	_aim_tlvlist_add_16
LVL624:
	.loc 1 675 0
	movzx	eax, WORD PTR [esp+58]
	mov	DWORD PTR [esp+8], eax
	mov	DWORD PTR [esp+4], 10
	mov	DWORD PTR [esp], ebx
	call	_aim_tlvlist_add_16
LVL625:
	.loc 1 676 0
	mov	DWORD PTR [esp+4], 15
	mov	DWORD PTR [esp], ebx
	call	_aim_tlvlist_add_noval
LVL626:
	.loc 1 677 0
	mov	DWORD PTR [esp+4], ebx
	mov	DWORD PTR [esp], esi
	call	_aim_tlvlist_write
LVL627:
	.loc 1 679 0
	mov	ebx, DWORD PTR [esp+96]
	mov	DWORD PTR [esp], esi
	call	_byte_stream_curpos
LVL628:
	mov	DWORD PTR [esp+12], ebx
	and	eax, 65535
	mov	DWORD PTR [esp+8], eax
	mov	DWORD PTR [esp+4], 5
	mov	edx, DWORD PTR [esp+40]
	mov	DWORD PTR [esp], edx
	call	_aim_tlvlist_add_raw
LVL629:
	.loc 1 680 0
	mov	DWORD PTR [esp], esi
	call	_byte_stream_destroy
LVL630:
	.loc 1 682 0
	mov	edx, DWORD PTR [esp+40]
	mov	DWORD PTR [esp+4], edx
	mov	DWORD PTR [esp], edi
	call	_aim_tlvlist_write
LVL631:
	.loc 1 684 0
	mov	eax, DWORD PTR [esp+80]
	mov	DWORD PTR [esp], eax
	call	_aim_tlvlist_free
LVL632:
	.loc 1 685 0
	mov	eax, DWORD PTR [esp+76]
	mov	DWORD PTR [esp], eax
	call	_aim_tlvlist_free
LVL633:
	.loc 1 687 0
	mov	DWORD PTR [esp+20], edi
	mov	eax, DWORD PTR [esp+60]
	mov	DWORD PTR [esp+16], eax
	mov	DWORD PTR [esp+12], 6
	mov	DWORD PTR [esp+8], 4
	mov	eax, DWORD PTR [esp+48]
	mov	DWORD PTR [esp+4], eax
	mov	eax, DWORD PTR [esp+44]
	mov	DWORD PTR [esp], eax
	call	_flap_connection_send_snac
LVL634:
	.loc 1 689 0
	mov	DWORD PTR [esp], edi
	call	_byte_stream_destroy
LVL635:
L363:
	.loc 1 690 0
	mov	eax, DWORD PTR [esp+108]
	xor	eax, DWORD PTR ___stack_chk_guard
	jne	L371
	add	esp, 124
LCFI117:
	.cfi_remember_state
	.cfi_def_cfa_offset 20
	pop	ebx
LCFI118:
	.cfi_restore 3
	.cfi_def_cfa_offset 16
	pop	esi
LCFI119:
	.cfi_restore 6
	.cfi_def_cfa_offset 12
	pop	edi
LCFI120:
	.cfi_restore 7
	.cfi_def_cfa_offset 8
	pop	ebp
LCFI121:
	.cfi_restore 5
	.cfi_def_cfa_offset 4
	ret
L371:
LCFI122:
	.cfi_restore_state
	call	___stack_chk_fail
LVL636:
	.cfi_endproc
LFE104:
	.p2align 2,,3
	.globl	_aim_im_sendch2_odc_requestproxy
	.def	_aim_im_sendch2_odc_requestproxy;	.scl	2;	.type	32;	.endef
_aim_im_sendch2_odc_requestproxy:
LFB105:
	.loc 1 698 0
	.cfi_startproc
LVL637:
	push	ebp
LCFI123:
	.cfi_def_cfa_offset 8
	.cfi_offset 5, -8
	push	edi
LCFI124:
	.cfi_def_cfa_offset 12
	.cfi_offset 7, -12
	push	esi
LCFI125:
	.cfi_def_cfa_offset 16
	.cfi_offset 6, -16
	push	ebx
LCFI126:
	.cfi_def_cfa_offset 20
	.cfi_offset 3, -20
	sub	esp, 124
LCFI127:
	.cfi_def_cfa_offset 144
	mov	eax, DWORD PTR [esp+144]
	mov	DWORD PTR [esp+48], eax
	mov	esi, DWORD PTR [esp+148]
	mov	ebp, DWORD PTR [esp+152]
	mov	ebx, DWORD PTR [esp+156]
	mov	eax, DWORD PTR [esp+160]
	mov	WORD PTR [esp+56], ax
	mov	eax, DWORD PTR [esp+164]
	mov	WORD PTR [esp+58], ax
	.loc 1 698 0
	mov	eax, DWORD PTR ___stack_chk_guard
	mov	DWORD PTR [esp+108], eax
	xor	eax, eax
	.loc 1 702 0
	mov	DWORD PTR [esp+72], 0
LVL638:
	mov	DWORD PTR [esp+76], 0
LVL639:
	.loc 1 706 0
	mov	DWORD PTR [esp+4], 4
	mov	eax, DWORD PTR [esp+48]
	mov	DWORD PTR [esp], eax
	call	_flap_connection_findbygroup
LVL640:
	mov	DWORD PTR [esp+52], eax
LVL641:
	.loc 1 707 0
	test	eax, eax
	je	L372
	.loc 1 710 0
	xor	eax, eax
LVL642:
	mov	ecx, -1
	mov	edi, ebp
	repne scasb
LVL643:
	not	ecx
	add	ecx, 245
	mov	DWORD PTR [esp+4], ecx
	lea	edi, [esp+80]
	mov	DWORD PTR [esp], edi
	call	_byte_stream_new
LVL644:
	.loc 1 712 0
	mov	DWORD PTR [esp+20], 0
	mov	DWORD PTR [esp+16], 0
	mov	DWORD PTR [esp+12], 0
	mov	DWORD PTR [esp+8], 6
	mov	DWORD PTR [esp+4], 4
	mov	eax, DWORD PTR [esp+48]
	mov	DWORD PTR [esp], eax
	call	_aim_cachesnac
LVL645:
	mov	DWORD PTR [esp+60], eax
LVL646:
	.loc 1 715 0
	mov	DWORD PTR [esp], ebp
	mov	ecx, 2
	mov	edx, esi
	mov	eax, edi
LVL647:
	call	_aim_im_puticbm
LVL648:
	.loc 1 717 0
	mov	DWORD PTR [esp+4], 3
	lea	edx, [esp+72]
	mov	DWORD PTR [esp], edx
	mov	DWORD PTR [esp+44], edx
	call	_aim_tlvlist_add_noval
LVL649:
	.loc 1 719 0
	mov	DWORD PTR [esp+4], 128
	lea	ebp, [esp+92]
	mov	DWORD PTR [esp], ebp
	call	_byte_stream_new
LVL650:
	.loc 1 721 0
	mov	DWORD PTR [esp+4], 0
	mov	DWORD PTR [esp], ebp
	call	_byte_stream_put16
LVL651:
	.loc 1 722 0
	mov	DWORD PTR [esp+8], 8
	mov	DWORD PTR [esp+4], esi
	mov	DWORD PTR [esp], ebp
	call	_byte_stream_putraw
LVL652:
	.loc 1 723 0
	mov	DWORD PTR [esp+4], 4
	mov	DWORD PTR [esp+8], 0
	mov	DWORD PTR [esp], ebp
	call	_byte_stream_putcaps
LVL653:
	.loc 1 725 0
	mov	DWORD PTR [esp+12], ebx
	mov	DWORD PTR [esp+8], 4
	mov	DWORD PTR [esp+4], 2
	lea	esi, [esp+76]
	mov	DWORD PTR [esp], esi
	call	_aim_tlvlist_add_raw
LVL654:
	.loc 1 726 0
	mov	DWORD PTR [esp+12], ebx
	mov	DWORD PTR [esp+8], 4
	mov	DWORD PTR [esp+4], 3
	mov	DWORD PTR [esp], esi
	call	_aim_tlvlist_add_raw
LVL655:
	.loc 1 727 0
	movzx	eax, WORD PTR [esp+56]
	mov	DWORD PTR [esp+8], eax
	mov	DWORD PTR [esp+4], 5
	mov	DWORD PTR [esp], esi
	call	_aim_tlvlist_add_16
LVL656:
	.loc 1 728 0
	movzx	eax, WORD PTR [esp+58]
	mov	DWORD PTR [esp+8], eax
	mov	DWORD PTR [esp+4], 10
	mov	DWORD PTR [esp], esi
	call	_aim_tlvlist_add_16
LVL657:
	.loc 1 729 0
	mov	DWORD PTR [esp+4], 15
	mov	DWORD PTR [esp], esi
	call	_aim_tlvlist_add_noval
LVL658:
	.loc 1 730 0
	mov	DWORD PTR [esp+4], 16
	mov	DWORD PTR [esp], esi
	call	_aim_tlvlist_add_noval
LVL659:
	.loc 1 733 0
	mov	al, BYTE PTR [ebx]
	not	eax
	mov	BYTE PTR [esp+104], al
	.loc 1 734 0
	mov	al, BYTE PTR [ebx+1]
	not	eax
	mov	BYTE PTR [esp+105], al
	.loc 1 735 0
	mov	al, BYTE PTR [ebx+2]
	not	eax
	mov	BYTE PTR [esp+106], al
	.loc 1 736 0
	mov	al, BYTE PTR [ebx+3]
	not	eax
	mov	BYTE PTR [esp+107], al
	.loc 1 737 0
	lea	eax, [esp+104]
	mov	DWORD PTR [esp+12], eax
	mov	DWORD PTR [esp+8], 4
	mov	DWORD PTR [esp+4], 22
	mov	DWORD PTR [esp], esi
	call	_aim_tlvlist_add_raw
LVL660:
	.loc 1 738 0
	mov	eax, DWORD PTR [esp+56]
	not	eax
	movzx	eax, ax
	mov	DWORD PTR [esp+8], eax
	mov	DWORD PTR [esp+4], 23
	mov	DWORD PTR [esp], esi
	call	_aim_tlvlist_add_16
LVL661:
	.loc 1 740 0
	mov	DWORD PTR [esp+4], esi
	mov	DWORD PTR [esp], ebp
	call	_aim_tlvlist_write
LVL662:
	.loc 1 742 0
	mov	ebx, DWORD PTR [esp+92]
	mov	DWORD PTR [esp], ebp
	call	_byte_stream_curpos
LVL663:
	mov	DWORD PTR [esp+12], ebx
	and	eax, 65535
	mov	DWORD PTR [esp+8], eax
	mov	DWORD PTR [esp+4], 5
	mov	edx, DWORD PTR [esp+44]
	mov	DWORD PTR [esp], edx
	call	_aim_tlvlist_add_raw
LVL664:
	.loc 1 743 0
	mov	DWORD PTR [esp], ebp
	call	_byte_stream_destroy
LVL665:
	.loc 1 745 0
	mov	edx, DWORD PTR [esp+44]
	mov	DWORD PTR [esp+4], edx
	mov	DWORD PTR [esp], edi
	call	_aim_tlvlist_write
LVL666:
	.loc 1 747 0
	mov	eax, DWORD PTR [esp+76]
	mov	DWORD PTR [esp], eax
	call	_aim_tlvlist_free
LVL667:
	.loc 1 748 0
	mov	eax, DWORD PTR [esp+72]
	mov	DWORD PTR [esp], eax
	call	_aim_tlvlist_free
LVL668:
	.loc 1 750 0
	mov	DWORD PTR [esp+20], edi
	mov	eax, DWORD PTR [esp+60]
	mov	DWORD PTR [esp+16], eax
	mov	DWORD PTR [esp+12], 6
	mov	DWORD PTR [esp+8], 4
	mov	eax, DWORD PTR [esp+52]
	mov	DWORD PTR [esp+4], eax
	mov	eax, DWORD PTR [esp+48]
	mov	DWORD PTR [esp], eax
	call	_flap_connection_send_snac
LVL669:
	.loc 1 752 0
	mov	DWORD PTR [esp], edi
	call	_byte_stream_destroy
LVL670:
L372:
	.loc 1 753 0
	mov	eax, DWORD PTR [esp+108]
	xor	eax, DWORD PTR ___stack_chk_guard
	jne	L380
	add	esp, 124
LCFI128:
	.cfi_remember_state
	.cfi_def_cfa_offset 20
	pop	ebx
LCFI129:
	.cfi_restore 3
	.cfi_def_cfa_offset 16
	pop	esi
LCFI130:
	.cfi_restore 6
	.cfi_def_cfa_offset 12
	pop	edi
LCFI131:
	.cfi_restore 7
	.cfi_def_cfa_offset 8
	pop	ebp
LCFI132:
	.cfi_restore 5
	.cfi_def_cfa_offset 4
	ret
L380:
LCFI133:
	.cfi_restore_state
	call	___stack_chk_fail
LVL671:
	.cfi_endproc
LFE105:
	.section .rdata,"dr"
LC31:
	.ascii "bn != NULL\0"
LC32:
	.ascii "ip != NULL\0"
	.text
	.p2align 2,,3
	.globl	_aim_im_sendch2_sendfile_requestdirect
	.def	_aim_im_sendch2_sendfile_requestdirect;	.scl	2;	.type	32;	.endef
_aim_im_sendch2_sendfile_requestdirect:
LFB106:
	.loc 1 761 0
	.cfi_startproc
LVL672:
	push	ebp
LCFI134:
	.cfi_def_cfa_offset 8
	.cfi_offset 5, -8
	push	edi
LCFI135:
	.cfi_def_cfa_offset 12
	.cfi_offset 7, -12
	push	esi
LCFI136:
	.cfi_def_cfa_offset 16
	.cfi_offset 6, -16
	push	ebx
LCFI137:
	.cfi_def_cfa_offset 20
	.cfi_offset 3, -20
	sub	esp, 124
LCFI138:
	.cfi_def_cfa_offset 144
	mov	eax, DWORD PTR [esp+144]
	mov	DWORD PTR [esp+40], eax
	mov	esi, DWORD PTR [esp+148]
	mov	ebx, DWORD PTR [esp+152]
	mov	edi, DWORD PTR [esp+156]
	mov	eax, DWORD PTR [esp+168]
	mov	DWORD PTR [esp+44], eax
	mov	eax, DWORD PTR [esp+172]
	mov	DWORD PTR [esp+56], eax
	movzx	ebp, WORD PTR [esp+160]
	mov	eax, DWORD PTR [esp+164]
	mov	WORD PTR [esp+54], ax
	mov	eax, DWORD PTR [esp+176]
	mov	WORD PTR [esp+52], ax
	.loc 1 761 0
	mov	eax, DWORD PTR ___stack_chk_guard
	mov	DWORD PTR [esp+108], eax
	xor	eax, eax
	.loc 1 765 0
	mov	DWORD PTR [esp+64], 0
LVL673:
	mov	DWORD PTR [esp+68], 0
LVL674:
LBB178:
	.loc 1 768 0
	test	ebx, ebx
	je	L401
LVL675:
LBE178:
LBB179:
	.loc 1 769 0
	test	edi, edi
	je	L402
LVL676:
LBE179:
	.loc 1 771 0
	mov	DWORD PTR [esp+4], 4
	mov	eax, DWORD PTR [esp+40]
	mov	DWORD PTR [esp], eax
	call	_flap_connection_findbygroup
LVL677:
	mov	DWORD PTR [esp+48], eax
LVL678:
	.loc 1 772 0
	test	eax, eax
	je	L381
	.loc 1 775 0
	mov	DWORD PTR [esp+4], 1014
	lea	eax, [esp+72]
LVL679:
	mov	DWORD PTR [esp], eax
	call	_byte_stream_new
LVL680:
	.loc 1 777 0
	mov	DWORD PTR [esp+20], 0
	mov	DWORD PTR [esp+16], 0
	mov	DWORD PTR [esp+12], 0
	mov	DWORD PTR [esp+8], 6
	mov	DWORD PTR [esp+4], 4
	mov	eax, DWORD PTR [esp+40]
	mov	DWORD PTR [esp], eax
	call	_aim_cachesnac
LVL681:
	mov	DWORD PTR [esp+60], eax
LVL682:
	.loc 1 780 0
	mov	DWORD PTR [esp], ebx
	mov	ecx, 2
	mov	edx, esi
	lea	eax, [esp+72]
LVL683:
	call	_aim_im_puticbm
LVL684:
	.loc 1 782 0
	mov	DWORD PTR [esp+4], 3
	lea	eax, [esp+64]
	mov	DWORD PTR [esp], eax
	call	_aim_tlvlist_add_noval
LVL685:
	.loc 1 784 0
	mov	DWORD PTR [esp+4], 512
	lea	ebx, [esp+84]
	mov	DWORD PTR [esp], ebx
	call	_byte_stream_new
LVL686:
	.loc 1 786 0
	mov	DWORD PTR [esp+4], 0
	mov	DWORD PTR [esp], ebx
	call	_byte_stream_put16
LVL687:
	.loc 1 787 0
	mov	DWORD PTR [esp+8], 8
	mov	DWORD PTR [esp+4], esi
	mov	DWORD PTR [esp], ebx
	call	_byte_stream_putraw
LVL688:
	.loc 1 788 0
	mov	DWORD PTR [esp+4], 32
	mov	DWORD PTR [esp+8], 0
	mov	DWORD PTR [esp], ebx
	call	_byte_stream_putcaps
LVL689:
	.loc 1 790 0
	mov	DWORD PTR [esp+12], edi
	mov	DWORD PTR [esp+8], 4
	mov	DWORD PTR [esp+4], 2
	lea	esi, [esp+68]
	mov	DWORD PTR [esp], esi
	call	_aim_tlvlist_add_raw
LVL690:
	.loc 1 791 0
	mov	DWORD PTR [esp+12], edi
	mov	DWORD PTR [esp+8], 4
	mov	DWORD PTR [esp+4], 3
	mov	DWORD PTR [esp], esi
	call	_aim_tlvlist_add_raw
LVL691:
	.loc 1 792 0
	mov	DWORD PTR [esp+8], ebp
	mov	DWORD PTR [esp+4], 5
	mov	DWORD PTR [esp], esi
	call	_aim_tlvlist_add_16
LVL692:
	.loc 1 793 0
	movzx	eax, WORD PTR [esp+54]
	mov	DWORD PTR [esp+8], eax
	mov	DWORD PTR [esp+4], 10
	mov	DWORD PTR [esp], esi
	call	_aim_tlvlist_add_16
LVL693:
	.loc 1 794 0
	mov	DWORD PTR [esp+4], 15
	mov	DWORD PTR [esp], esi
	call	_aim_tlvlist_add_noval
LVL694:
	.loc 1 797 0
	mov	ebp, DWORD PTR [esp+44]
	test	ebp, ebp
	je	L384
LBB180:
	.loc 1 802 0
	xor	eax, eax
	mov	ecx, -1
	mov	edi, DWORD PTR [esp+44]
	repne scasb
LVL695:
	not	ecx
	add	ecx, 8
	mov	DWORD PTR [esp+4], ecx
	lea	edi, [esp+96]
	mov	DWORD PTR [esp], edi
	call	_byte_stream_new
LVL696:
	.loc 1 803 0
	cmp	WORD PTR [esp+52], 2
	sbb	eax, eax
	add	eax, 2
	mov	DWORD PTR [esp+4], eax
	mov	DWORD PTR [esp], edi
	call	_byte_stream_put16
LVL697:
	.loc 1 804 0
	movzx	eax, WORD PTR [esp+52]
	mov	DWORD PTR [esp+4], eax
	mov	DWORD PTR [esp], edi
	call	_byte_stream_put16
LVL698:
	.loc 1 805 0
	mov	eax, DWORD PTR [esp+56]
	mov	DWORD PTR [esp+4], eax
	mov	DWORD PTR [esp], edi
	call	_byte_stream_put32
LVL699:
	.loc 1 808 0
	mov	eax, DWORD PTR [esp+44]
	mov	DWORD PTR [esp+4], eax
	mov	DWORD PTR [esp], edi
	call	_byte_stream_putstr
LVL700:
	.loc 1 809 0
	mov	DWORD PTR [esp+4], 0
	mov	DWORD PTR [esp], edi
	call	_byte_stream_put8
LVL701:
	.loc 1 811 0
	mov	eax, DWORD PTR [esp+96]
	mov	DWORD PTR [esp+12], eax
	.loc 1 2143 0
	movzx	eax, WORD PTR [esp+100]
	.loc 1 811 0
	mov	DWORD PTR [esp+8], eax
	mov	DWORD PTR [esp+4], 10001
	mov	DWORD PTR [esp], esi
	call	_aim_tlvlist_add_raw
LVL702:
	.loc 1 812 0
	mov	DWORD PTR [esp], edi
	call	_byte_stream_destroy
LVL703:
L384:
LBE180:
	.loc 1 816 0
	mov	DWORD PTR [esp+4], esi
	mov	DWORD PTR [esp], ebx
	call	_aim_tlvlist_write
LVL704:
	.loc 1 817 0
	mov	esi, DWORD PTR [esp+84]
	mov	DWORD PTR [esp], ebx
	call	_byte_stream_curpos
LVL705:
	mov	DWORD PTR [esp+12], esi
	and	eax, 65535
	mov	DWORD PTR [esp+8], eax
	mov	DWORD PTR [esp+4], 5
	lea	eax, [esp+64]
	mov	DWORD PTR [esp], eax
	call	_aim_tlvlist_add_raw
LVL706:
	.loc 1 818 0
	mov	DWORD PTR [esp], ebx
	call	_byte_stream_destroy
LVL707:
	.loc 1 820 0
	lea	eax, [esp+64]
	mov	DWORD PTR [esp+4], eax
	lea	eax, [esp+72]
	mov	DWORD PTR [esp], eax
	call	_aim_tlvlist_write
LVL708:
	.loc 1 822 0
	mov	eax, DWORD PTR [esp+68]
	mov	DWORD PTR [esp], eax
	call	_aim_tlvlist_free
LVL709:
	.loc 1 823 0
	mov	eax, DWORD PTR [esp+64]
	mov	DWORD PTR [esp], eax
	call	_aim_tlvlist_free
LVL710:
	.loc 1 825 0
	lea	eax, [esp+72]
	mov	DWORD PTR [esp+20], eax
	mov	eax, DWORD PTR [esp+60]
	mov	DWORD PTR [esp+16], eax
	mov	DWORD PTR [esp+12], 6
	mov	DWORD PTR [esp+8], 4
	mov	eax, DWORD PTR [esp+48]
	mov	DWORD PTR [esp+4], eax
	mov	eax, DWORD PTR [esp+40]
	mov	DWORD PTR [esp], eax
	call	_flap_connection_send_snac
LVL711:
	.loc 1 827 0
	lea	eax, [esp+72]
	mov	DWORD PTR [esp], eax
	call	_byte_stream_destroy
LVL712:
L381:
	.loc 1 828 0
	mov	eax, DWORD PTR [esp+108]
	xor	eax, DWORD PTR ___stack_chk_guard
	jne	L403
	add	esp, 124
LCFI139:
	.cfi_remember_state
	.cfi_def_cfa_offset 20
	pop	ebx
LCFI140:
	.cfi_restore 3
	.cfi_def_cfa_offset 16
	pop	esi
LCFI141:
	.cfi_restore 6
	.cfi_def_cfa_offset 12
	pop	edi
LCFI142:
	.cfi_restore 7
	.cfi_def_cfa_offset 8
	pop	ebp
LCFI143:
	.cfi_restore 5
	.cfi_def_cfa_offset 4
	ret
LVL713:
	.p2align 2,,3
L401:
LCFI144:
	.cfi_restore_state
	.loc 1 768 0
	mov	DWORD PTR [esp+8], OFFSET FLAT:LC31
	mov	DWORD PTR [esp+4], OFFSET FLAT:___PRETTY_FUNCTION__.45321
	mov	DWORD PTR [esp], 0
	call	_g_return_if_fail_warning
LVL714:
	jmp	L381
LVL715:
	.p2align 2,,3
L402:
	.loc 1 769 0
	mov	DWORD PTR [esp+8], OFFSET FLAT:LC32
	mov	DWORD PTR [esp+4], OFFSET FLAT:___PRETTY_FUNCTION__.45321
	mov	DWORD PTR [esp], 0
	call	_g_return_if_fail_warning
LVL716:
	jmp	L381
LVL717:
L403:
	.loc 1 828 0
	call	___stack_chk_fail
LVL718:
	.cfi_endproc
LFE106:
	.p2align 2,,3
	.globl	_aim_im_sendch2_sendfile_requestproxy
	.def	_aim_im_sendch2_sendfile_requestproxy;	.scl	2;	.type	32;	.endef
_aim_im_sendch2_sendfile_requestproxy:
LFB107:
	.loc 1 836 0
	.cfi_startproc
LVL719:
	push	ebp
LCFI145:
	.cfi_def_cfa_offset 8
	.cfi_offset 5, -8
	push	edi
LCFI146:
	.cfi_def_cfa_offset 12
	.cfi_offset 7, -12
	push	esi
LCFI147:
	.cfi_def_cfa_offset 16
	.cfi_offset 6, -16
	push	ebx
LCFI148:
	.cfi_def_cfa_offset 20
	.cfi_offset 3, -20
	sub	esp, 140
LCFI149:
	.cfi_def_cfa_offset 160
	mov	eax, DWORD PTR [esp+160]
	mov	DWORD PTR [esp+40], eax
	mov	ebx, DWORD PTR [esp+164]
	mov	esi, DWORD PTR [esp+168]
	mov	edi, DWORD PTR [esp+172]
	mov	eax, DWORD PTR [esp+184]
	mov	DWORD PTR [esp+44], eax
	mov	eax, DWORD PTR [esp+188]
	mov	DWORD PTR [esp+56], eax
	mov	eax, DWORD PTR [esp+176]
	mov	WORD PTR [esp+52], ax
	movzx	ebp, WORD PTR [esp+180]
	mov	eax, DWORD PTR [esp+192]
	mov	WORD PTR [esp+54], ax
	.loc 1 836 0
	mov	eax, DWORD PTR ___stack_chk_guard
	mov	DWORD PTR [esp+124], eax
	xor	eax, eax
	.loc 1 840 0
	mov	DWORD PTR [esp+76], 0
LVL720:
	mov	DWORD PTR [esp+80], 0
LVL721:
	.loc 1 844 0
	mov	DWORD PTR [esp+4], 4
	mov	eax, DWORD PTR [esp+40]
	mov	DWORD PTR [esp], eax
	call	_flap_connection_findbygroup
LVL722:
	mov	DWORD PTR [esp+48], eax
LVL723:
	.loc 1 845 0
	test	eax, eax
	je	L404
	.loc 1 848 0
	mov	DWORD PTR [esp+4], 1014
	lea	eax, [esp+84]
LVL724:
	mov	DWORD PTR [esp], eax
	call	_byte_stream_new
LVL725:
	.loc 1 850 0
	mov	DWORD PTR [esp+20], 0
	mov	DWORD PTR [esp+16], 0
	mov	DWORD PTR [esp+12], 0
	mov	DWORD PTR [esp+8], 6
	mov	DWORD PTR [esp+4], 4
	mov	eax, DWORD PTR [esp+40]
	mov	DWORD PTR [esp], eax
	call	_aim_cachesnac
LVL726:
	mov	DWORD PTR [esp+60], eax
LVL727:
	.loc 1 853 0
	mov	DWORD PTR [esp], esi
	mov	ecx, 2
	mov	edx, ebx
	lea	eax, [esp+84]
LVL728:
	call	_aim_im_puticbm
LVL729:
	.loc 1 855 0
	mov	DWORD PTR [esp+4], 3
	lea	eax, [esp+76]
	mov	DWORD PTR [esp], eax
	call	_aim_tlvlist_add_noval
LVL730:
	.loc 1 857 0
	mov	DWORD PTR [esp+4], 512
	lea	esi, [esp+96]
	mov	DWORD PTR [esp], esi
	call	_byte_stream_new
LVL731:
	.loc 1 859 0
	mov	DWORD PTR [esp+4], 0
	mov	DWORD PTR [esp], esi
	call	_byte_stream_put16
LVL732:
	.loc 1 860 0
	mov	DWORD PTR [esp+8], 8
	mov	DWORD PTR [esp+4], ebx
	mov	DWORD PTR [esp], esi
	call	_byte_stream_putraw
LVL733:
	.loc 1 861 0
	mov	DWORD PTR [esp+4], 32
	mov	DWORD PTR [esp+8], 0
	mov	DWORD PTR [esp], esi
	call	_byte_stream_putcaps
LVL734:
	.loc 1 863 0
	mov	DWORD PTR [esp+12], edi
	mov	DWORD PTR [esp+8], 4
	mov	DWORD PTR [esp+4], 2
	lea	ebx, [esp+80]
	mov	DWORD PTR [esp], ebx
	call	_aim_tlvlist_add_raw
LVL735:
	.loc 1 864 0
	mov	DWORD PTR [esp+12], edi
	mov	DWORD PTR [esp+8], 4
	mov	DWORD PTR [esp+4], 3
	mov	DWORD PTR [esp], ebx
	call	_aim_tlvlist_add_raw
LVL736:
	.loc 1 865 0
	movzx	eax, WORD PTR [esp+52]
	mov	DWORD PTR [esp+8], eax
	mov	DWORD PTR [esp+4], 5
	mov	DWORD PTR [esp], ebx
	call	_aim_tlvlist_add_16
LVL737:
	.loc 1 866 0
	mov	DWORD PTR [esp+8], ebp
	mov	DWORD PTR [esp+4], 10
	mov	DWORD PTR [esp], ebx
	call	_aim_tlvlist_add_16
LVL738:
	.loc 1 867 0
	mov	DWORD PTR [esp+4], 15
	mov	DWORD PTR [esp], ebx
	call	_aim_tlvlist_add_noval
LVL739:
	.loc 1 868 0
	mov	DWORD PTR [esp+4], 16
	mov	DWORD PTR [esp], ebx
	call	_aim_tlvlist_add_noval
LVL740:
	.loc 1 871 0
	mov	al, BYTE PTR [edi]
	not	eax
	mov	BYTE PTR [esp+120], al
	.loc 1 872 0
	mov	al, BYTE PTR [edi+1]
	not	eax
	mov	BYTE PTR [esp+121], al
	.loc 1 873 0
	mov	al, BYTE PTR [edi+2]
	not	eax
	mov	BYTE PTR [esp+122], al
	.loc 1 874 0
	mov	al, BYTE PTR [edi+3]
	not	eax
	mov	BYTE PTR [esp+123], al
	.loc 1 875 0
	lea	eax, [esp+120]
	mov	DWORD PTR [esp+12], eax
	mov	DWORD PTR [esp+8], 4
	mov	DWORD PTR [esp+4], 22
	mov	DWORD PTR [esp], ebx
	call	_aim_tlvlist_add_raw
LVL741:
	.loc 1 876 0
	mov	eax, DWORD PTR [esp+52]
	not	eax
	movzx	eax, ax
	mov	DWORD PTR [esp+8], eax
	mov	DWORD PTR [esp+4], 23
	mov	DWORD PTR [esp], ebx
	call	_aim_tlvlist_add_16
LVL742:
	.loc 1 878 0
	mov	eax, DWORD PTR [esp+44]
	test	eax, eax
	je	L406
LBB181:
	.loc 1 883 0
	xor	eax, eax
	mov	ecx, -1
	mov	edi, DWORD PTR [esp+44]
	repne scasb
LVL743:
	not	ecx
	add	ecx, 8
	mov	DWORD PTR [esp+4], ecx
	lea	edi, [esp+108]
	mov	DWORD PTR [esp], edi
	call	_byte_stream_new
LVL744:
	.loc 1 884 0
	cmp	WORD PTR [esp+54], 2
	sbb	eax, eax
	add	eax, 2
	mov	DWORD PTR [esp+4], eax
	mov	DWORD PTR [esp], edi
	call	_byte_stream_put16
LVL745:
	.loc 1 885 0
	movzx	eax, WORD PTR [esp+54]
	mov	DWORD PTR [esp+4], eax
	mov	DWORD PTR [esp], edi
	call	_byte_stream_put16
LVL746:
	.loc 1 886 0
	mov	eax, DWORD PTR [esp+56]
	mov	DWORD PTR [esp+4], eax
	mov	DWORD PTR [esp], edi
	call	_byte_stream_put32
LVL747:
	.loc 1 889 0
	mov	eax, DWORD PTR [esp+44]
	mov	DWORD PTR [esp+4], eax
	mov	DWORD PTR [esp], edi
	call	_byte_stream_putstr
LVL748:
	.loc 1 890 0
	mov	DWORD PTR [esp+4], 0
	mov	DWORD PTR [esp], edi
	call	_byte_stream_put8
LVL749:
	.loc 1 892 0
	mov	eax, DWORD PTR [esp+108]
	mov	DWORD PTR [esp+12], eax
	.loc 1 2143 0
	movzx	eax, WORD PTR [esp+112]
	.loc 1 892 0
	mov	DWORD PTR [esp+8], eax
	mov	DWORD PTR [esp+4], 10001
	mov	DWORD PTR [esp], ebx
	call	_aim_tlvlist_add_raw
LVL750:
	.loc 1 893 0
	mov	DWORD PTR [esp], edi
	call	_byte_stream_destroy
LVL751:
L406:
LBE181:
	.loc 1 897 0
	mov	DWORD PTR [esp+4], ebx
	mov	DWORD PTR [esp], esi
	call	_aim_tlvlist_write
LVL752:
	.loc 1 899 0
	mov	ebx, DWORD PTR [esp+96]
	mov	DWORD PTR [esp], esi
	call	_byte_stream_curpos
LVL753:
	mov	DWORD PTR [esp+12], ebx
	and	eax, 65535
	mov	DWORD PTR [esp+8], eax
	mov	DWORD PTR [esp+4], 5
	lea	eax, [esp+76]
	mov	DWORD PTR [esp], eax
	call	_aim_tlvlist_add_raw
LVL754:
	.loc 1 900 0
	mov	DWORD PTR [esp], esi
	call	_byte_stream_destroy
LVL755:
	.loc 1 902 0
	lea	eax, [esp+76]
	mov	DWORD PTR [esp+4], eax
	lea	eax, [esp+84]
	mov	DWORD PTR [esp], eax
	call	_aim_tlvlist_write
LVL756:
	.loc 1 904 0
	mov	eax, DWORD PTR [esp+80]
	mov	DWORD PTR [esp], eax
	call	_aim_tlvlist_free
LVL757:
	.loc 1 905 0
	mov	eax, DWORD PTR [esp+76]
	mov	DWORD PTR [esp], eax
	call	_aim_tlvlist_free
LVL758:
	.loc 1 907 0
	lea	eax, [esp+84]
	mov	DWORD PTR [esp+20], eax
	mov	eax, DWORD PTR [esp+60]
	mov	DWORD PTR [esp+16], eax
	mov	DWORD PTR [esp+12], 6
	mov	DWORD PTR [esp+8], 4
	mov	eax, DWORD PTR [esp+48]
	mov	DWORD PTR [esp+4], eax
	mov	eax, DWORD PTR [esp+40]
	mov	DWORD PTR [esp], eax
	call	_flap_connection_send_snac
LVL759:
	.loc 1 909 0
	lea	eax, [esp+84]
	mov	DWORD PTR [esp], eax
	call	_byte_stream_destroy
LVL760:
L404:
	.loc 1 910 0
	mov	eax, DWORD PTR [esp+124]
	xor	eax, DWORD PTR ___stack_chk_guard
	jne	L418
	add	esp, 140
LCFI150:
	.cfi_remember_state
	.cfi_def_cfa_offset 20
	pop	ebx
LCFI151:
	.cfi_restore 3
	.cfi_def_cfa_offset 16
	pop	esi
LCFI152:
	.cfi_restore 6
	.cfi_def_cfa_offset 12
	pop	edi
LCFI153:
	.cfi_restore 7
	.cfi_def_cfa_offset 8
	pop	ebp
LCFI154:
	.cfi_restore 5
	.cfi_def_cfa_offset 4
	ret
L418:
LCFI155:
	.cfi_restore_state
	call	___stack_chk_fail
LVL761:
	.cfi_endproc
LFE107:
	.p2align 2,,3
	.globl	_aim_im_denytransfer
	.def	_aim_im_denytransfer;	.scl	2;	.type	32;	.endef
_aim_im_denytransfer:
LFB123:
	.loc 1 1575 0
	.cfi_startproc
LVL762:
	push	ebp
LCFI156:
	.cfi_def_cfa_offset 8
	.cfi_offset 5, -8
	push	edi
LCFI157:
	.cfi_def_cfa_offset 12
	.cfi_offset 7, -12
	push	esi
LCFI158:
	.cfi_def_cfa_offset 16
	.cfi_offset 6, -16
	push	ebx
LCFI159:
	.cfi_def_cfa_offset 20
	.cfi_offset 3, -20
	sub	esp, 92
LCFI160:
	.cfi_def_cfa_offset 112
	mov	esi, DWORD PTR [esp+112]
	mov	eax, DWORD PTR [esp+116]
	mov	DWORD PTR [esp+36], eax
	mov	edx, DWORD PTR [esp+120]
	mov	DWORD PTR [esp+40], edx
	movzx	ebp, WORD PTR [esp+124]
	.loc 1 1575 0
	mov	eax, DWORD PTR ___stack_chk_guard
	mov	DWORD PTR [esp+76], eax
	xor	eax, eax
	.loc 1 1579 0
	mov	DWORD PTR [esp+60], 0
LVL763:
	.loc 1 1581 0
	test	esi, esi
	je	L422
	.loc 1 1581 0 is_stmt 0 discriminator 1
	mov	DWORD PTR [esp+4], 4
	mov	DWORD PTR [esp], esi
	call	_flap_connection_findbygroup
LVL764:
	mov	edx, eax
LVL765:
	test	eax, eax
	je	L422
	.loc 1 1584 0 is_stmt 1
	mov	ecx, -1
	mov	edi, DWORD PTR [esp+36]
	xor	eax, eax
LVL766:
	repne scasb
LVL767:
	not	ecx
	add	ecx, 16
	mov	DWORD PTR [esp+4], ecx
	lea	ebx, [esp+64]
	mov	DWORD PTR [esp], ebx
	mov	DWORD PTR [esp+32], edx
	call	_byte_stream_new
LVL768:
	.loc 1 1586 0
	mov	DWORD PTR [esp+20], 0
	mov	DWORD PTR [esp+16], 0
	mov	DWORD PTR [esp+12], 0
	mov	DWORD PTR [esp+8], 11
	mov	DWORD PTR [esp+4], 4
	mov	DWORD PTR [esp], esi
	call	_aim_cachesnac
LVL769:
	mov	DWORD PTR [esp+44], eax
LVL770:
	.loc 1 1588 0
	mov	DWORD PTR [esp+8], 8
	mov	eax, DWORD PTR [esp+40]
LVL771:
	mov	DWORD PTR [esp+4], eax
	mov	DWORD PTR [esp], ebx
	call	_byte_stream_putraw
LVL772:
	.loc 1 1590 0
	mov	DWORD PTR [esp+4], 2
	mov	DWORD PTR [esp], ebx
	call	_byte_stream_put16
LVL773:
	.loc 1 1591 0
	mov	ecx, -1
	mov	edi, DWORD PTR [esp+36]
	xor	eax, eax
	repne scasb
	not	ecx
	dec	ecx
	.loc 1 2143 0
	and	ecx, 255
	.loc 1 1591 0
	mov	DWORD PTR [esp+4], ecx
	mov	DWORD PTR [esp], ebx
	call	_byte_stream_put8
LVL774:
	.loc 1 1592 0
	mov	eax, DWORD PTR [esp+36]
	mov	DWORD PTR [esp+4], eax
	mov	DWORD PTR [esp], ebx
	call	_byte_stream_putstr
LVL775:
	.loc 1 1594 0
	mov	DWORD PTR [esp+8], ebp
	mov	DWORD PTR [esp+4], 3
	lea	ebp, [esp+60]
	mov	DWORD PTR [esp], ebp
	call	_aim_tlvlist_add_16
LVL776:
	.loc 1 1595 0
	mov	DWORD PTR [esp+4], ebp
	mov	DWORD PTR [esp], ebx
	call	_aim_tlvlist_write
LVL777:
	.loc 1 1596 0
	mov	eax, DWORD PTR [esp+60]
	mov	DWORD PTR [esp], eax
	call	_aim_tlvlist_free
LVL778:
	.loc 1 1598 0
	mov	DWORD PTR [esp+20], ebx
	mov	eax, DWORD PTR [esp+44]
	mov	DWORD PTR [esp+16], eax
	mov	DWORD PTR [esp+12], 11
	mov	DWORD PTR [esp+8], 4
	mov	edx, DWORD PTR [esp+32]
	mov	DWORD PTR [esp+4], edx
	mov	DWORD PTR [esp], esi
	call	_flap_connection_send_snac
LVL779:
	.loc 1 1600 0
	mov	DWORD PTR [esp], ebx
	call	_byte_stream_destroy
LVL780:
	.loc 1 1602 0
	xor	eax, eax
LVL781:
L421:
	.loc 1 1603 0
	mov	edx, DWORD PTR [esp+76]
	xor	edx, DWORD PTR ___stack_chk_guard
	jne	L428
	add	esp, 92
LCFI161:
	.cfi_remember_state
	.cfi_def_cfa_offset 20
	pop	ebx
LCFI162:
	.cfi_restore 3
	.cfi_def_cfa_offset 16
	pop	esi
LCFI163:
	.cfi_restore 6
	.cfi_def_cfa_offset 12
	pop	edi
LCFI164:
	.cfi_restore 7
	.cfi_def_cfa_offset 8
	pop	ebp
LCFI165:
	.cfi_restore 5
	.cfi_def_cfa_offset 4
	ret
LVL782:
	.p2align 2,,3
L422:
LCFI166:
	.cfi_restore_state
	.loc 1 1582 0
	mov	eax, -22
	jmp	L421
LVL783:
L428:
	.loc 1 1603 0
	call	___stack_chk_fail
LVL784:
	.cfi_endproc
LFE123:
	.section .rdata,"dr"
LC33:
	.ascii "Sending message ack to %s\12\0"
LC34:
	.ascii "conn\0"
LC35:
	.ascii "family_icbm.c\0"
	.text
	.p2align 2,,3
	.globl	_aim_im_send_icq_confirmation
	.def	_aim_im_send_icq_confirmation;	.scl	2;	.type	32;	.endef
_aim_im_send_icq_confirmation:
LFB124:
	.loc 1 1611 0
	.cfi_startproc
LVL785:
	push	ebp
LCFI167:
	.cfi_def_cfa_offset 8
	.cfi_offset 5, -8
	push	edi
LCFI168:
	.cfi_def_cfa_offset 12
	.cfi_offset 7, -12
	push	esi
LCFI169:
	.cfi_def_cfa_offset 16
	.cfi_offset 6, -16
	push	ebx
LCFI170:
	.cfi_def_cfa_offset 20
	.cfi_offset 3, -20
	sub	esp, 76
LCFI171:
	.cfi_def_cfa_offset 96
	mov	esi, DWORD PTR [esp+96]
	mov	ebx, DWORD PTR [esp+100]
	mov	edx, DWORD PTR [esp+104]
	.loc 1 1611 0
	mov	eax, DWORD PTR ___stack_chk_guard
	mov	DWORD PTR [esp+60], eax
	xor	eax, eax
	.loc 1 1616 0
	mov	DWORD PTR [esp+44], edx
	call	_g_random_int
LVL786:
	mov	ebp, eax
LVL787:
	.loc 1 1618 0
	mov	DWORD PTR [esp+8], ebx
	mov	DWORD PTR [esp+4], OFFSET FLAT:LC33
	mov	DWORD PTR [esp], OFFSET FLAT:LC1
	call	_purple_debug_misc
LVL788:
	.loc 1 1620 0
	xor	eax, eax
	mov	ecx, -1
	mov	edi, ebx
	repne scasb
LVL789:
	not	ecx
LVL790:
	.loc 1 1622 0
	add	ecx, 66
	mov	DWORD PTR [esp+4], ecx
	lea	edi, [esp+48]
	mov	DWORD PTR [esp], edi
	call	_byte_stream_new
LVL791:
	.loc 1 1625 0
	mov	DWORD PTR [esp], ebx
	mov	ecx, 2
	mov	edx, DWORD PTR [esp+44]
	mov	eax, edi
	call	_aim_im_puticbm
LVL792:
	.loc 1 1626 0
	mov	DWORD PTR [esp+4], 3
	mov	DWORD PTR [esp], edi
	call	_byte_stream_put16
LVL793:
	.loc 1 1629 0
	mov	DWORD PTR [esp+4], 27
	mov	DWORD PTR [esp], edi
	call	_byte_stream_putle16
LVL794:
	.loc 1 1630 0
	mov	DWORD PTR [esp+4], 8
	mov	DWORD PTR [esp], edi
	call	_byte_stream_put8
LVL795:
	.loc 1 1631 0
	mov	DWORD PTR [esp+4], 8192
	mov	DWORD PTR [esp+8], 0
	mov	DWORD PTR [esp], edi
	call	_byte_stream_putcaps
LVL796:
	.loc 1 1632 0
	mov	DWORD PTR [esp+4], 3
	mov	DWORD PTR [esp], edi
	call	_byte_stream_put32
LVL797:
	.loc 1 1633 0
	mov	DWORD PTR [esp+4], 4
	mov	DWORD PTR [esp], edi
	call	_byte_stream_put32
LVL798:
	.loc 1 2143 0
	and	ebp, 65535
LVL799:
	.loc 1 1634 0
	mov	DWORD PTR [esp+4], ebp
	mov	DWORD PTR [esp], edi
	call	_byte_stream_put16
LVL800:
	.loc 1 1635 0
	mov	DWORD PTR [esp+4], 14
	mov	DWORD PTR [esp], edi
	call	_byte_stream_putle16
LVL801:
	.loc 1 1636 0
	mov	DWORD PTR [esp+4], ebp
	mov	DWORD PTR [esp], edi
	call	_byte_stream_put16
LVL802:
	.loc 1 1637 0
	mov	DWORD PTR [esp+4], 0
	mov	DWORD PTR [esp], edi
	call	_byte_stream_put32
LVL803:
	.loc 1 1638 0
	mov	DWORD PTR [esp+4], 0
	mov	DWORD PTR [esp], edi
	call	_byte_stream_put32
LVL804:
	.loc 1 1639 0
	mov	DWORD PTR [esp+4], 0
	mov	DWORD PTR [esp], edi
	call	_byte_stream_put32
LVL805:
	.loc 1 1640 0
	mov	DWORD PTR [esp+4], 1
	mov	DWORD PTR [esp], edi
	call	_byte_stream_put8
LVL806:
	.loc 1 1641 0
	mov	DWORD PTR [esp+4], 0
	mov	DWORD PTR [esp], edi
	call	_byte_stream_put8
LVL807:
	.loc 1 1642 0
	mov	DWORD PTR [esp+4], 0
	mov	DWORD PTR [esp], edi
	call	_byte_stream_put16
LVL808:
	.loc 1 1643 0
	mov	DWORD PTR [esp+4], 256
	mov	DWORD PTR [esp], edi
	call	_byte_stream_put16
LVL809:
	.loc 1 1644 0
	mov	DWORD PTR [esp+4], 1
	mov	DWORD PTR [esp], edi
	call	_byte_stream_putle16
LVL810:
	.loc 1 1645 0
	mov	DWORD PTR [esp+4], 0
	mov	DWORD PTR [esp], edi
	call	_byte_stream_put8
LVL811:
	.loc 1 1647 0
	mov	DWORD PTR [esp+20], 0
	mov	DWORD PTR [esp+16], 0
	mov	DWORD PTR [esp+12], 0
	mov	DWORD PTR [esp+8], 11
	mov	DWORD PTR [esp+4], 4
	mov	DWORD PTR [esp], esi
	call	_aim_cachesnac
LVL812:
	mov	ebx, eax
LVL813:
	.loc 1 1648 0
	mov	DWORD PTR [esp+4], 4
	mov	DWORD PTR [esp], esi
	call	_flap_connection_findbygroup
LVL814:
LBB182:
	.loc 1 1649 0
	test	eax, eax
	je	L437
LBE182:
	.loc 1 1651 0
	mov	DWORD PTR [esp+20], edi
	mov	DWORD PTR [esp+16], ebx
	mov	DWORD PTR [esp+12], 11
	mov	DWORD PTR [esp+8], 4
	mov	DWORD PTR [esp+4], eax
	mov	DWORD PTR [esp], esi
	call	_flap_connection_send_snac
LVL815:
L432:
	.loc 1 1654 0
	mov	DWORD PTR [esp], edi
	call	_byte_stream_destroy
LVL816:
	.loc 1 1655 0
	mov	eax, DWORD PTR [esp+60]
	xor	eax, DWORD PTR ___stack_chk_guard
	jne	L438
	add	esp, 76
LCFI172:
	.cfi_remember_state
	.cfi_def_cfa_offset 20
	pop	ebx
LCFI173:
	.cfi_restore 3
	.cfi_def_cfa_offset 16
LVL817:
	pop	esi
LCFI174:
	.cfi_restore 6
	.cfi_def_cfa_offset 12
	pop	edi
LCFI175:
	.cfi_restore 7
	.cfi_def_cfa_offset 8
	pop	ebp
LCFI176:
	.cfi_restore 5
	.cfi_def_cfa_offset 4
	ret
LVL818:
	.p2align 2,,3
L437:
LCFI177:
	.cfi_restore_state
	.loc 1 1649 0
	mov	DWORD PTR [esp+16], OFFSET FLAT:LC34
	mov	DWORD PTR [esp+12], OFFSET FLAT:___PRETTY_FUNCTION__.45562
	mov	DWORD PTR [esp+8], 1649
	mov	DWORD PTR [esp+4], OFFSET FLAT:LC35
	mov	DWORD PTR [esp], 0
	call	_g_warn_message
LVL819:
	jmp	L432
LVL820:
L438:
	.loc 1 1655 0
	call	___stack_chk_fail
LVL821:
	.cfi_endproc
LFE124:
	.p2align 2,,3
	.globl	_aim_im_reqofflinemsgs
	.def	_aim_im_reqofflinemsgs;	.scl	2;	.type	32;	.endef
_aim_im_reqofflinemsgs:
LFB127:
	.loc 1 1845 0
	.cfi_startproc
LVL822:
	push	ebx
LCFI178:
	.cfi_def_cfa_offset 8
	.cfi_offset 3, -8
	sub	esp, 40
LCFI179:
	.cfi_def_cfa_offset 48
	mov	ebx, DWORD PTR [esp+48]
	.loc 1 1845 0
	mov	eax, DWORD PTR ___stack_chk_guard
	mov	DWORD PTR [esp+28], eax
	xor	eax, eax
	.loc 1 1848 0
	test	ebx, ebx
	je	L442
	.loc 1 1848 0 is_stmt 0 discriminator 1
	mov	DWORD PTR [esp+4], 2
	mov	DWORD PTR [esp], ebx
	call	_flap_connection_findbygroup
LVL823:
	test	eax, eax
	je	L442
	.loc 1 1851 0 is_stmt 1
	mov	DWORD PTR [esp+12], 16
	mov	DWORD PTR [esp+8], 4
	mov	DWORD PTR [esp+4], eax
	mov	DWORD PTR [esp], ebx
	call	_aim_genericreq_n
LVL824:
	.loc 1 1853 0
	xor	eax, eax
L441:
	.loc 1 1854 0
	mov	edx, DWORD PTR [esp+28]
	xor	edx, DWORD PTR ___stack_chk_guard
	jne	L448
	add	esp, 40
LCFI180:
	.cfi_remember_state
	.cfi_def_cfa_offset 8
	pop	ebx
LCFI181:
	.cfi_restore 3
	.cfi_def_cfa_offset 4
	ret
	.p2align 2,,3
L442:
LCFI182:
	.cfi_restore_state
	.loc 1 1849 0
	mov	eax, -22
	jmp	L441
L448:
	.loc 1 1854 0
	call	___stack_chk_fail
LVL825:
	.cfi_endproc
LFE127:
	.p2align 2,,3
	.globl	_aim_im_sendmtn
	.def	_aim_im_sendmtn;	.scl	2;	.type	32;	.endef
_aim_im_sendmtn:
LFB128:
	.loc 1 1864 0
	.cfi_startproc
LVL826:
	push	ebp
LCFI183:
	.cfi_def_cfa_offset 8
	.cfi_offset 5, -8
	push	edi
LCFI184:
	.cfi_def_cfa_offset 12
	.cfi_offset 7, -12
	push	esi
LCFI185:
	.cfi_def_cfa_offset 16
	.cfi_offset 6, -16
	push	ebx
LCFI186:
	.cfi_def_cfa_offset 20
	.cfi_offset 3, -20
	sub	esp, 76
LCFI187:
	.cfi_def_cfa_offset 96
	mov	esi, DWORD PTR [esp+96]
	mov	eax, DWORD PTR [esp+104]
	mov	DWORD PTR [esp+36], eax
	movzx	ebp, WORD PTR [esp+100]
	mov	edx, DWORD PTR [esp+108]
	mov	WORD PTR [esp+42], dx
	.loc 1 1864 0
	mov	eax, DWORD PTR ___stack_chk_guard
	mov	DWORD PTR [esp+60], eax
	xor	eax, eax
	.loc 1 1869 0
	test	esi, esi
	je	L452
	.loc 1 1869 0 is_stmt 0 discriminator 1
	mov	DWORD PTR [esp+4], 2
	mov	DWORD PTR [esp], esi
	call	_flap_connection_findbygroup
LVL827:
	mov	edx, eax
LVL828:
	test	eax, eax
	je	L452
	.loc 1 1872 0 is_stmt 1
	mov	eax, DWORD PTR [esp+36]
LVL829:
	test	eax, eax
	je	L452
	.loc 1 1875 0
	mov	ecx, -1
	mov	edi, DWORD PTR [esp+36]
	xor	eax, eax
	repne scasb
LVL830:
	not	ecx
	add	ecx, 12
	mov	DWORD PTR [esp+4], ecx
	lea	ebx, [esp+48]
	mov	DWORD PTR [esp], ebx
	mov	DWORD PTR [esp+32], edx
	call	_byte_stream_new
LVL831:
	.loc 1 1877 0
	mov	DWORD PTR [esp+20], 0
	mov	DWORD PTR [esp+16], 0
	mov	DWORD PTR [esp+12], 0
	mov	DWORD PTR [esp+8], 20
	mov	DWORD PTR [esp+4], 4
	mov	DWORD PTR [esp], esi
	call	_aim_cachesnac
LVL832:
	mov	DWORD PTR [esp+44], eax
LVL833:
	.loc 1 1880 0
	mov	DWORD PTR [esp+4], 0
	mov	DWORD PTR [esp], ebx
	call	_byte_stream_put32
LVL834:
	.loc 1 1881 0
	mov	DWORD PTR [esp+4], 0
	mov	DWORD PTR [esp], ebx
	call	_byte_stream_put32
LVL835:
	.loc 1 1886 0
	mov	DWORD PTR [esp+4], ebp
	mov	DWORD PTR [esp], ebx
	call	_byte_stream_put16
LVL836:
	.loc 1 1891 0
	mov	ecx, -1
	mov	edi, DWORD PTR [esp+36]
	xor	eax, eax
	repne scasb
	not	ecx
	dec	ecx
	.loc 1 2143 0
	and	ecx, 255
	.loc 1 1891 0
	mov	DWORD PTR [esp+4], ecx
	mov	DWORD PTR [esp], ebx
	call	_byte_stream_put8
LVL837:
	.loc 1 1892 0
	mov	eax, DWORD PTR [esp+36]
	mov	DWORD PTR [esp+4], eax
	mov	DWORD PTR [esp], ebx
	call	_byte_stream_putstr
LVL838:
	.loc 1 1897 0
	movzx	eax, WORD PTR [esp+42]
	mov	DWORD PTR [esp+4], eax
	mov	DWORD PTR [esp], ebx
	call	_byte_stream_put16
LVL839:
	.loc 1 1899 0
	mov	DWORD PTR [esp+20], ebx
	mov	eax, DWORD PTR [esp+44]
	mov	DWORD PTR [esp+16], eax
	mov	DWORD PTR [esp+12], 20
	mov	DWORD PTR [esp+8], 4
	mov	edx, DWORD PTR [esp+32]
	mov	DWORD PTR [esp+4], edx
	mov	DWORD PTR [esp], esi
	call	_flap_connection_send_snac
LVL840:
	.loc 1 1901 0
	mov	DWORD PTR [esp], ebx
	call	_byte_stream_destroy
LVL841:
	.loc 1 1903 0
	xor	eax, eax
LVL842:
L451:
	.loc 1 1904 0
	mov	edx, DWORD PTR [esp+60]
	xor	edx, DWORD PTR ___stack_chk_guard
	jne	L461
	add	esp, 76
LCFI188:
	.cfi_remember_state
	.cfi_def_cfa_offset 20
	pop	ebx
LCFI189:
	.cfi_restore 3
	.cfi_def_cfa_offset 16
	pop	esi
LCFI190:
	.cfi_restore 6
	.cfi_def_cfa_offset 12
	pop	edi
LCFI191:
	.cfi_restore 7
	.cfi_def_cfa_offset 8
	pop	ebp
LCFI192:
	.cfi_restore 5
	.cfi_def_cfa_offset 4
	ret
LVL843:
	.p2align 2,,3
L452:
LCFI193:
	.cfi_restore_state
	.loc 1 1870 0
	mov	eax, -22
	jmp	L451
LVL844:
L461:
	.loc 1 1904 0
	call	___stack_chk_fail
LVL845:
	.cfi_endproc
LFE128:
	.section .rdata,"dr"
	.align 4
LC36:
	.ascii "<N><QUERY>&lt;Q&gt;&lt;PluginID&gt;srvMng&lt;/PluginID&gt;&lt;/Q&gt;</QUERY><NOTIFY>&lt;srv&gt;&lt;id&gt;cAwaySrv&lt;/id&gt;&lt;req&gt;&lt;id&gt;AwayStat&lt;/id&gt;&lt;trans&gt;2&lt;/trans&gt;&lt;senderId&gt;%s&lt;/senderId&gt;&lt;/req&gt;&lt;/srv&gt;</NOTIFY></N>\15\12\0"
LC37:
	.ascii "X-Status Request\12\0"
	.text
	.p2align 2,,3
	.globl	_icq_im_xstatus_request
	.def	_icq_im_xstatus_request;	.scl	2;	.type	32;	.endef
_icq_im_xstatus_request:
LFB129:
	.loc 1 1910 0
	.cfi_startproc
LVL846:
	push	ebp
LCFI194:
	.cfi_def_cfa_offset 8
	.cfi_offset 5, -8
	push	edi
LCFI195:
	.cfi_def_cfa_offset 12
	.cfi_offset 7, -12
	push	esi
LCFI196:
	.cfi_def_cfa_offset 16
	.cfi_offset 6, -16
	push	ebx
LCFI197:
	.cfi_def_cfa_offset 20
	.cfi_offset 3, -20
	sub	esp, 140
LCFI198:
	.cfi_def_cfa_offset 160
	mov	eax, DWORD PTR [esp+160]
	mov	DWORD PTR [esp+40], eax
	mov	ebx, DWORD PTR [esp+164]
	.loc 1 1910 0
	mov	edx, DWORD PTR ___stack_chk_guard
	mov	DWORD PTR [esp+124], edx
	xor	edx, edx
	.loc 1 1914 0
	mov	DWORD PTR [esp+72], 0
LVL847:
	mov	DWORD PTR [esp+76], 0
LVL848:
	.loc 1 1939 0
	test	eax, eax
	je	L465
	.loc 1 1939 0 is_stmt 0 discriminator 1
	mov	DWORD PTR [esp+4], 4
	mov	ecx, DWORD PTR [esp+40]
	mov	DWORD PTR [esp], ecx
	call	_flap_connection_findbygroup
LVL849:
	mov	DWORD PTR [esp+56], eax
LVL850:
	test	eax, eax
	je	L465
	.loc 1 1942 0 is_stmt 1
	test	ebx, ebx
	je	L465
LVL851:
	.loc 1 1947 0
	mov	edx, DWORD PTR [esp+40]
	mov	eax, DWORD PTR [edx+104]
LVL852:
	mov	DWORD PTR [esp], eax
	call	_purple_connection_get_account
LVL853:
	.loc 1 1949 0
	mov	eax, DWORD PTR [eax]
LVL854:
	mov	DWORD PTR [esp+4], eax
	mov	DWORD PTR [esp], OFFSET FLAT:LC36
	call	_g_strdup_printf
LVL855:
	mov	DWORD PTR [esp+52], eax
LVL856:
	.loc 1 1950 0
	mov	ebp, -1
	xor	eax, eax
LVL857:
	mov	ecx, ebp
	mov	edi, DWORD PTR [esp+52]
	repne scasb
LVL858:
	not	ecx
	mov	DWORD PTR [esp+44], ecx
	dec	ecx
	mov	DWORD PTR [esp+48], ecx
LVL859:
	.loc 1 1952 0
	lea	esi, [esp+116]
	mov	DWORD PTR [esp], esi
	mov	BYTE PTR [esp+36], al
	call	_aim_icbm_makecookie
LVL860:
	.loc 1 1954 0
	mov	al, BYTE PTR [esp+36]
	mov	ecx, ebp
	mov	edi, ebx
	repne scasb
LVL861:
	not	ecx
	mov	edx, DWORD PTR [esp+48]
	lea	eax, [edx+211+ecx]
	mov	DWORD PTR [esp+4], eax
	lea	edi, [esp+80]
	mov	DWORD PTR [esp], edi
	call	_byte_stream_new
LVL862:
	.loc 1 1959 0
	mov	DWORD PTR [esp+20], 0
	mov	DWORD PTR [esp+16], 0
	mov	DWORD PTR [esp+12], 0
	mov	DWORD PTR [esp+8], 6
	mov	DWORD PTR [esp+4], 4
	mov	ecx, DWORD PTR [esp+40]
	mov	DWORD PTR [esp], ecx
	call	_aim_cachesnac
LVL863:
	mov	DWORD PTR [esp+60], eax
LVL864:
	.loc 1 1960 0
	mov	DWORD PTR [esp], ebx
	mov	ecx, 2
	mov	edx, esi
	mov	eax, edi
LVL865:
	call	_aim_im_puticbm
LVL866:
	.loc 1 1962 0
	mov	eax, DWORD PTR [esp+44]
	add	eax, 182
	mov	DWORD PTR [esp+4], eax
	lea	ebx, [esp+92]
	mov	DWORD PTR [esp], ebx
	call	_byte_stream_new
LVL867:
	.loc 1 1963 0
	mov	DWORD PTR [esp+4], 0
	mov	DWORD PTR [esp], ebx
	call	_byte_stream_put16
LVL868:
	.loc 1 1964 0
	mov	DWORD PTR [esp+8], 8
	mov	DWORD PTR [esp+4], esi
	mov	DWORD PTR [esp], ebx
	call	_byte_stream_putraw
LVL869:
	.loc 1 1965 0
	mov	DWORD PTR [esp+8], 16
	mov	DWORD PTR [esp+4], OFFSET FLAT:_pluginid.45645
	mov	DWORD PTR [esp], ebx
	call	_byte_stream_putraw
LVL870:
	.loc 1 1967 0
	mov	DWORD PTR [esp+8], 1
	mov	DWORD PTR [esp+4], 10
	lea	ebp, [esp+76]
	mov	DWORD PTR [esp], ebp
	call	_aim_tlvlist_add_16
LVL871:
	.loc 1 1968 0
	mov	DWORD PTR [esp+4], 15
	mov	DWORD PTR [esp], ebp
	call	_aim_tlvlist_add_noval
LVL872:
	.loc 1 1971 0
	mov	eax, DWORD PTR [esp+44]
	add	eax, 142
	mov	DWORD PTR [esp+4], eax
	lea	esi, [esp+104]
	mov	DWORD PTR [esp], esi
	call	_byte_stream_new
LVL873:
	.loc 1 1972 0
	mov	DWORD PTR [esp+8], 143
	mov	DWORD PTR [esp+4], OFFSET FLAT:_c_plugindata.45646
	mov	DWORD PTR [esp], esi
	call	_byte_stream_putraw
LVL874:
	.loc 1 1973 0
	mov	eax, DWORD PTR [esp+48]
	mov	DWORD PTR [esp+8], eax
	mov	edx, DWORD PTR [esp+52]
	mov	DWORD PTR [esp+4], edx
	mov	DWORD PTR [esp], esi
	call	_byte_stream_putraw
LVL875:
	.loc 1 1975 0
	mov	eax, DWORD PTR [esp+104]
	mov	DWORD PTR [esp+12], eax
	mov	eax, DWORD PTR [esp+48]
	add	eax, 143
	movzx	eax, ax
	mov	DWORD PTR [esp+8], eax
	mov	DWORD PTR [esp+4], 10001
	mov	DWORD PTR [esp], ebp
	call	_aim_tlvlist_add_raw
LVL876:
	.loc 1 1977 0
	mov	DWORD PTR [esp+4], ebp
	mov	DWORD PTR [esp], ebx
	call	_aim_tlvlist_write
LVL877:
	.loc 1 1978 0
	mov	eax, DWORD PTR [esp+76]
	mov	DWORD PTR [esp], eax
	call	_aim_tlvlist_free
LVL878:
	.loc 1 1980 0
	mov	ebp, DWORD PTR [esp+92]
	mov	DWORD PTR [esp], ebx
	call	_byte_stream_curpos
LVL879:
	mov	DWORD PTR [esp+12], ebp
	and	eax, 65535
	mov	DWORD PTR [esp+8], eax
	mov	DWORD PTR [esp+4], 5
	lea	ebp, [esp+72]
	mov	DWORD PTR [esp], ebp
	call	_aim_tlvlist_add_raw
LVL880:
	.loc 1 1981 0
	mov	DWORD PTR [esp+4], 3
	mov	DWORD PTR [esp], ebp
	call	_aim_tlvlist_add_noval
LVL881:
	.loc 1 1983 0
	mov	DWORD PTR [esp+4], ebp
	mov	DWORD PTR [esp], edi
	call	_aim_tlvlist_write
LVL882:
	.loc 1 1985 0
	mov	DWORD PTR [esp+4], OFFSET FLAT:LC37
	mov	DWORD PTR [esp], OFFSET FLAT:LC1
	call	_purple_debug_misc
LVL883:
	.loc 1 1986 0
	mov	DWORD PTR [esp+24], 1
	mov	DWORD PTR [esp+20], edi
	mov	eax, DWORD PTR [esp+60]
	mov	DWORD PTR [esp+16], eax
	mov	DWORD PTR [esp+12], 6
	mov	DWORD PTR [esp+8], 4
	mov	eax, DWORD PTR [esp+56]
	mov	DWORD PTR [esp+4], eax
	mov	edx, DWORD PTR [esp+40]
	mov	DWORD PTR [esp], edx
	call	_flap_connection_send_snac_with_priority
LVL884:
	.loc 1 1988 0
	mov	eax, DWORD PTR [esp+72]
	mov	DWORD PTR [esp], eax
	call	_aim_tlvlist_free
LVL885:
	.loc 1 1989 0
	mov	DWORD PTR [esp], ebx
	call	_byte_stream_destroy
LVL886:
	.loc 1 1990 0
	mov	DWORD PTR [esp], esi
	call	_byte_stream_destroy
LVL887:
	.loc 1 1991 0
	mov	DWORD PTR [esp], edi
	call	_byte_stream_destroy
LVL888:
	.loc 1 1992 0
	mov	ecx, DWORD PTR [esp+52]
	mov	DWORD PTR [esp], ecx
	call	_g_free
LVL889:
	.loc 1 1994 0
	xor	eax, eax
LVL890:
L464:
	.loc 1 1995 0
	mov	edx, DWORD PTR [esp+124]
	xor	edx, DWORD PTR ___stack_chk_guard
	jne	L474
	add	esp, 140
LCFI199:
	.cfi_remember_state
	.cfi_def_cfa_offset 20
	pop	ebx
LCFI200:
	.cfi_restore 3
	.cfi_def_cfa_offset 16
	pop	esi
LCFI201:
	.cfi_restore 6
	.cfi_def_cfa_offset 12
	pop	edi
LCFI202:
	.cfi_restore 7
	.cfi_def_cfa_offset 8
	pop	ebp
LCFI203:
	.cfi_restore 5
	.cfi_def_cfa_offset 4
	ret
LVL891:
	.p2align 2,,3
L465:
LCFI204:
	.cfi_restore_state
	.loc 1 1940 0
	mov	eax, -22
	jmp	L464
LVL892:
L474:
	.loc 1 1995 0
	call	___stack_chk_fail
LVL893:
	.cfi_endproc
LFE129:
	.section .rdata,"dr"
LC38:
	.ascii "message\0"
	.align 4
LC39:
	.ascii "<NR><RES>&lt;ret event='OnRemoteNotification'&gt;&lt;srv&gt;&lt;id&gt;cAwaySrv&lt;/id&gt;&lt;val srv_id='cAwaySrv'&gt;&lt;Root&gt;&lt;CASXtraSetAwayMessage&gt;&lt;/CASXtraSetAwayMessage&gt;&l t;uin&gt;%s&lt;/uin&gt;&lt;index&gt;1&lt;/index&gt;&lt;title&gt;%s&lt;/title&gt;&lt;desc&gt;%s&lt;/desc&gt;&lt;/Root&gt;&lt;/val&gt;&lt;/srv&gt;&lt;srv&gt;&lt;id&gt;cRandomizerSrv&lt;/id&gt;&lt;val srv_id='cRandomizerSrv'&gt;undefined&lt;/val&gt;&lt;/srv&gt;&lt;/ret&gt;</RES></NR>\15\12\0"
LC40:
	.ascii "X-Status AutoReply: %s, %s\12\0"
	.text
	.p2align 2,,3
	.globl	_icq_relay_xstatus
	.def	_icq_relay_xstatus;	.scl	2;	.type	32;	.endef
_icq_relay_xstatus:
LFB130:
	.loc 1 1998 0
	.cfi_startproc
LVL894:
	push	ebp
LCFI205:
	.cfi_def_cfa_offset 8
	.cfi_offset 5, -8
	push	edi
LCFI206:
	.cfi_def_cfa_offset 12
	.cfi_offset 7, -12
	push	esi
LCFI207:
	.cfi_def_cfa_offset 16
	.cfi_offset 6, -16
	push	ebx
LCFI208:
	.cfi_def_cfa_offset 20
	.cfi_offset 3, -20
	sub	esp, 92
LCFI209:
	.cfi_def_cfa_offset 112
	mov	esi, DWORD PTR [esp+112]
	mov	eax, DWORD PTR [esp+116]
	mov	DWORD PTR [esp+44], eax
	mov	edx, DWORD PTR [esp+120]
	mov	DWORD PTR [esp+60], edx
	.loc 1 1998 0
	mov	eax, DWORD PTR ___stack_chk_guard
	mov	DWORD PTR [esp+76], eax
	xor	eax, eax
LVL895:
	.loc 1 2030 0
	test	esi, esi
	je	L478
	.loc 1 2030 0 is_stmt 0 discriminator 1
	mov	DWORD PTR [esp+4], 2
	mov	DWORD PTR [esp], esi
	call	_flap_connection_findbygroup
LVL896:
	mov	DWORD PTR [esp+52], eax
LVL897:
	test	eax, eax
	je	L478
	.loc 1 2033 0 is_stmt 1
	mov	eax, DWORD PTR [esp+44]
LVL898:
	test	eax, eax
	je	L478
	.loc 1 2036 0
	mov	eax, DWORD PTR [esi+104]
	mov	DWORD PTR [esp], eax
	call	_purple_connection_get_account
LVL899:
	mov	ebx, eax
LVL900:
	.loc 1 2037 0
	test	eax, eax
	je	L478
	.loc 1 2043 0
	mov	eax, DWORD PTR [eax+64]
LVL901:
	mov	DWORD PTR [esp], eax
	call	_purple_presence_get_active_status
LVL902:
	mov	ebp, eax
LVL903:
	.loc 1 2044 0
	test	eax, eax
	je	L478
	.loc 1 2047 0
	mov	DWORD PTR [esp], eax
	call	_purple_status_get_name
LVL904:
	mov	edi, eax
LVL905:
	.loc 1 2048 0
	test	eax, eax
	je	L478
	.loc 1 2051 0
	mov	DWORD PTR [esp+4], OFFSET FLAT:LC38
	mov	DWORD PTR [esp], ebp
	call	_purple_status_get_attr_string
LVL906:
	.loc 1 2052 0
	test	eax, eax
	je	L478
	.loc 1 2055 0
	mov	DWORD PTR [esp], eax
	mov	DWORD PTR [esp+40], eax
	call	_purple_markup_strip_html
LVL907:
	mov	ebp, eax
LVL908:
	.loc 1 2056 0
	test	eax, eax
	je	L478
	.loc 1 2059 0
	mov	DWORD PTR [esp+12], eax
	mov	DWORD PTR [esp+8], edi
	mov	eax, DWORD PTR [ebx]
LVL909:
	mov	DWORD PTR [esp+4], eax
	mov	DWORD PTR [esp], OFFSET FLAT:LC39
	call	_g_strdup_printf
LVL910:
	mov	DWORD PTR [esp+48], eax
LVL911:
	.loc 1 2060 0
	mov	ebx, -1
LVL912:
	xor	eax, eax
LVL913:
	mov	ecx, ebx
	mov	edi, DWORD PTR [esp+48]
LVL914:
	repne scasb
LVL915:
	not	ecx
	dec	ecx
	mov	DWORD PTR [esp+56], ecx
LVL916:
	.loc 1 2062 0
	mov	DWORD PTR [esp+12], ebp
	mov	edx, DWORD PTR [esp+40]
	mov	DWORD PTR [esp+8], edx
	mov	DWORD PTR [esp+4], OFFSET FLAT:LC40
	mov	DWORD PTR [esp], OFFSET FLAT:LC1
	mov	BYTE PTR [esp+40], al
	call	_purple_debug_misc
LVL917:
	.loc 1 2064 0
	mov	al, BYTE PTR [esp+40]
	mov	ecx, ebx
	mov	edi, DWORD PTR [esp+44]
	repne scasb
LVL918:
	not	ecx
	mov	edx, DWORD PTR [esp+56]
	lea	eax, [edx+165+ecx]
	mov	DWORD PTR [esp+4], eax
	lea	ebx, [esp+64]
	mov	DWORD PTR [esp], ebx
	call	_byte_stream_new
LVL919:
	.loc 1 2066 0
	mov	DWORD PTR [esp+20], 0
	mov	DWORD PTR [esp+16], 0
	mov	DWORD PTR [esp+12], 0
	mov	DWORD PTR [esp+8], 11
	mov	DWORD PTR [esp+4], 4
	mov	DWORD PTR [esp], esi
	call	_aim_cachesnac
LVL920:
	mov	edi, eax
LVL921:
	.loc 1 2067 0
	mov	eax, DWORD PTR [esp+44]
LVL922:
	mov	DWORD PTR [esp], eax
	mov	ecx, 2
	mov	edx, DWORD PTR [esp+60]
	mov	eax, ebx
	call	_aim_im_puticbm
LVL923:
	.loc 1 2068 0
	mov	DWORD PTR [esp+4], 3
	mov	DWORD PTR [esp], ebx
	call	_byte_stream_put16
LVL924:
	.loc 1 2069 0
	mov	DWORD PTR [esp+8], 143
	mov	DWORD PTR [esp+4], OFFSET FLAT:_plugindata.45663
	mov	DWORD PTR [esp], ebx
	call	_byte_stream_putraw
LVL925:
	.loc 1 2070 0
	mov	edx, DWORD PTR [esp+56]
	mov	DWORD PTR [esp+8], edx
	mov	eax, DWORD PTR [esp+48]
	mov	DWORD PTR [esp+4], eax
	mov	DWORD PTR [esp], ebx
	call	_byte_stream_putraw
LVL926:
	.loc 1 2072 0
	mov	DWORD PTR [esp+24], 1
	mov	DWORD PTR [esp+20], ebx
	mov	DWORD PTR [esp+16], edi
	mov	DWORD PTR [esp+12], 11
	mov	DWORD PTR [esp+8], 4
	mov	eax, DWORD PTR [esp+52]
	mov	DWORD PTR [esp+4], eax
	mov	DWORD PTR [esp], esi
	call	_flap_connection_send_snac_with_priority
LVL927:
	.loc 1 2074 0
	mov	edx, DWORD PTR [esp+48]
	mov	DWORD PTR [esp], edx
	call	_g_free
LVL928:
	.loc 1 2075 0
	mov	DWORD PTR [esp], ebp
	call	_g_free
LVL929:
	.loc 1 2076 0
	mov	DWORD PTR [esp], ebx
	call	_byte_stream_destroy
LVL930:
	.loc 1 2078 0
	xor	eax, eax
LVL931:
L477:
	.loc 1 2079 0
	mov	edx, DWORD PTR [esp+76]
	xor	edx, DWORD PTR ___stack_chk_guard
	jne	L502
	add	esp, 92
LCFI210:
	.cfi_remember_state
	.cfi_def_cfa_offset 20
	pop	ebx
LCFI211:
	.cfi_restore 3
	.cfi_def_cfa_offset 16
	pop	esi
LCFI212:
	.cfi_restore 6
	.cfi_def_cfa_offset 12
	pop	edi
LCFI213:
	.cfi_restore 7
	.cfi_def_cfa_offset 8
	pop	ebp
LCFI214:
	.cfi_restore 5
	.cfi_def_cfa_offset 4
	ret
LVL932:
	.p2align 2,,3
L478:
LCFI215:
	.cfi_restore_state
	.loc 1 2031 0
	mov	eax, -22
	jmp	L477
LVL933:
L502:
	.loc 1 2079 0
	call	___stack_chk_fail
LVL934:
	.cfi_endproc
LFE130:
	.section .rdata,"dr"
LC41:
	.ascii "messaging\0"
	.text
	.p2align 2,,3
	.globl	_msg_modfirst
	.def	_msg_modfirst;	.scl	2;	.type	32;	.endef
_msg_modfirst:
LFB133:
	.loc 1 2133 0
	.cfi_startproc
LVL935:
	push	ebx
LCFI216:
	.cfi_def_cfa_offset 8
	.cfi_offset 3, -8
	sub	esp, 40
LCFI217:
	.cfi_def_cfa_offset 48
	mov	ebx, DWORD PTR [esp+52]
	.loc 1 2133 0
	mov	eax, DWORD PTR ___stack_chk_guard
	mov	DWORD PTR [esp+28], eax
	xor	eax, eax
	.loc 1 2134 0
	mov	WORD PTR [ebx], 4
	.loc 1 2135 0
	mov	WORD PTR [ebx+2], 1
	.loc 1 2136 0
	mov	WORD PTR [ebx+4], 272
	.loc 1 2137 0
	mov	WORD PTR [ebx+6], 1577
	.loc 1 2138 0
	mov	WORD PTR [ebx+8], 0
	.loc 1 2139 0
	mov	DWORD PTR [esp+8], 17
	mov	DWORD PTR [esp+4], OFFSET FLAT:LC41
	lea	eax, [ebx+10]
	mov	DWORD PTR [esp], eax
	call	_strncpy
LVL936:
	.loc 1 2140 0
	mov	DWORD PTR [ebx+28], OFFSET FLAT:_snachandler
	.loc 1 2143 0
	xor	eax, eax
	mov	edx, DWORD PTR [esp+28]
	xor	edx, DWORD PTR ___stack_chk_guard
	jne	L506
	add	esp, 40
LCFI218:
	.cfi_remember_state
	.cfi_def_cfa_offset 8
	pop	ebx
LCFI219:
	.cfi_restore 3
	.cfi_def_cfa_offset 4
	ret
L506:
LCFI220:
	.cfi_restore_state
	call	___stack_chk_fail
LVL937:
	.cfi_endproc
LFE133:
	.section .rdata,"dr"
	.align 32
___PRETTY_FUNCTION__.45321:
	.ascii "aim_im_sendch2_sendfile_requestdirect\0"
___PRETTY_FUNCTION__.45562:
	.ascii "aim_im_send_icq_confirmation\0"
_pluginid.45645:
	.byte	9
	.byte	70
	.byte	19
	.byte	73
	.byte	76
	.byte	127
	.byte	17
	.byte	-47
	.byte	-126
	.byte	34
	.byte	68
	.byte	69
	.byte	83
	.byte	84
	.byte	0
	.byte	0
	.align 32
_c_plugindata.45646:
	.byte	27
	.byte	0
	.byte	10
	.byte	0
	.byte	0
	.byte	0
	.byte	0
	.byte	0
	.byte	0
	.byte	0
	.byte	0
	.byte	0
	.byte	0
	.byte	0
	.byte	0
	.byte	0
	.byte	0
	.byte	0
	.byte	0
	.byte	0
	.byte	0
	.byte	0
	.byte	3
	.byte	0
	.byte	0
	.byte	0
	.byte	0
	.byte	-7
	.byte	-47
	.byte	14
	.byte	0
	.byte	-7
	.byte	-47
	.byte	0
	.byte	0
	.byte	0
	.byte	0
	.byte	0
	.byte	0
	.byte	0
	.byte	0
	.byte	0
	.byte	0
	.byte	0
	.byte	0
	.byte	26
	.byte	0
	.byte	0
	.byte	0
	.byte	1
	.byte	0
	.byte	1
	.byte	0
	.byte	0
	.byte	79
	.byte	0
	.byte	59
	.byte	96
	.byte	-77
	.byte	-17
	.byte	-40
	.byte	42
	.byte	108
	.byte	69
	.byte	-92
	.byte	-32
	.byte	-100
	.byte	90
	.byte	94
	.byte	103
	.byte	-24
	.byte	101
	.byte	8
	.byte	0
	.byte	42
	.byte	0
	.byte	0
	.byte	0
	.byte	83
	.byte	99
	.byte	114
	.byte	105
	.byte	112
	.byte	116
	.byte	32
	.byte	80
	.byte	108
	.byte	117
	.byte	103
	.byte	45
	.byte	105
	.byte	110
	.byte	58
	.byte	32
	.byte	82
	.byte	101
	.byte	109
	.byte	111
	.byte	116
	.byte	101
	.byte	32
	.byte	78
	.byte	111
	.byte	116
	.byte	105
	.byte	102
	.byte	105
	.byte	99
	.byte	97
	.byte	116
	.byte	105
	.byte	111
	.byte	110
	.byte	32
	.byte	65
	.byte	114
	.byte	114
	.byte	105
	.byte	118
	.byte	101
	.byte	0
	.byte	0
	.byte	1
	.byte	0
	.byte	0
	.byte	0
	.byte	0
	.byte	0
	.byte	0
	.byte	0
	.byte	0
	.byte	0
	.byte	0
	.byte	0
	.byte	0
	.byte	20
	.byte	1
	.byte	0
	.byte	0
	.byte	16
	.byte	1
	.byte	0
	.byte	0
	.align 32
_plugindata.45663:
	.byte	27
	.byte	0
	.byte	9
	.byte	0
	.byte	0
	.byte	0
	.byte	0
	.byte	0
	.byte	0
	.byte	0
	.byte	0
	.byte	0
	.byte	0
	.byte	0
	.byte	0
	.byte	0
	.byte	0
	.byte	0
	.byte	0
	.byte	0
	.byte	0
	.byte	0
	.byte	1
	.byte	0
	.byte	0
	.byte	0
	.byte	0
	.byte	-7
	.byte	-47
	.byte	14
	.byte	0
	.byte	-7
	.byte	-47
	.byte	0
	.byte	0
	.byte	0
	.byte	0
	.byte	0
	.byte	0
	.byte	0
	.byte	0
	.byte	0
	.byte	0
	.byte	0
	.byte	0
	.byte	26
	.byte	0
	.byte	0
	.byte	0
	.byte	0
	.byte	0
	.byte	1
	.byte	0
	.byte	0
	.byte	79
	.byte	0
	.byte	59
	.byte	96
	.byte	-77
	.byte	-17
	.byte	-40
	.byte	42
	.byte	108
	.byte	69
	.byte	-92
	.byte	-32
	.byte	-100
	.byte	90
	.byte	94
	.byte	103
	.byte	-24
	.byte	101
	.byte	8
	.byte	0
	.byte	42
	.byte	0
	.byte	0
	.byte	0
	.byte	83
	.byte	99
	.byte	114
	.byte	105
	.byte	112
	.byte	116
	.byte	32
	.byte	80
	.byte	108
	.byte	117
	.byte	103
	.byte	45
	.byte	105
	.byte	110
	.byte	58
	.byte	32
	.byte	82
	.byte	101
	.byte	109
	.byte	111
	.byte	116
	.byte	101
	.byte	32
	.byte	78
	.byte	111
	.byte	116
	.byte	105
	.byte	102
	.byte	105
	.byte	99
	.byte	97
	.byte	116
	.byte	105
	.byte	111
	.byte	110
	.byte	32
	.byte	65
	.byte	114
	.byte	114
	.byte	105
	.byte	118
	.byte	101
	.byte	0
	.byte	0
	.byte	1
	.byte	0
	.byte	0
	.byte	0
	.byte	0
	.byte	0
	.byte	0
	.byte	0
	.byte	0
	.byte	0
	.byte	0
	.byte	0
	.byte	0
	.byte	-13
	.byte	1
	.byte	0
	.byte	0
	.byte	-17
	.byte	1
	.byte	0
	.byte	0
LC42:
	.ascii "Invalid error\0"
LC43:
	.ascii "Not logged in\0"
	.align 4
LC44:
	.ascii "Cannot receive IM due to parental controls\0"
	.align 4
LC45:
	.ascii "Cannot send SMS without accepting terms\0"
LC46:
	.ascii "Cannot send SMS\0"
	.align 4
LC47:
	.ascii "Cannot send SMS to this country\0"
LC48:
	.ascii "Unknown error\0"
	.align 4
LC49:
	.ascii "Cannot send SMS to unknown country\0"
	.align 4
LC50:
	.ascii "Bot accounts cannot initiate IMs\0"
	.align 4
LC51:
	.ascii "Bot account cannot IM this user\0"
LC52:
	.ascii "Bot account reached IM limit\0"
	.align 4
LC53:
	.ascii "Bot account reached daily IM limit\0"
	.align 4
LC54:
	.ascii "Bot account reached monthly IM limit\0"
	.align 4
LC55:
	.ascii "Unable to receive offline messages\0"
LC56:
	.ascii "Offline message store full\0"
	.align 32
_errcodereason:
	.long	LC42
	.long	LC43
	.long	LC44
	.long	LC45
	.long	LC46
	.long	LC47
	.long	LC48
	.long	LC48
	.long	LC49
	.long	LC50
	.long	LC51
	.long	LC52
	.long	LC53
	.long	LC54
	.long	LC55
	.long	LC56
	.align 4
_CSWTCH.71:
	.long	1
	.long	17
	.long	5
	.long	19
	.long	32
	.text
Letext0:
	.file 2 "c:/workspace/pidgin-devel/win32-dev/mingw-4.7.2/bin/../lib/gcc/mingw32/4.7.2/../../../../include/stdio.h"
	.file 3 "c:/workspace/pidgin-devel/win32-dev/mingw-4.7.2/bin/../lib/gcc/mingw32/4.7.2/include/stddef.h"
	.file 4 "c:/workspace/pidgin-devel/win32-dev/mingw-4.7.2/bin/../lib/gcc/mingw32/4.7.2/../../../../include/sys/types.h"
	.file 5 "c:/workspace/pidgin-devel/win32-dev/mingw-4.7.2/bin/../lib/gcc/mingw32/4.7.2/../../../../include/time.h"
	.file 6 "../../../../win32-dev/gtk_2_0-2.14/lib/glib-2.0/include/glibconfig.h"
	.file 7 "../../../../win32-dev/gtk_2_0-2.14/include/glib-2.0/glib/gtypes.h"
	.file 8 "../../../../win32-dev/gtk_2_0-2.14/include/glib-2.0/glib/garray.h"
	.file 9 "../../../../win32-dev/gtk_2_0-2.14/include/glib-2.0/glib/glist.h"
	.file 10 "../../../../win32-dev/gtk_2_0-2.14/include/glib-2.0/glib/ghash.h"
	.file 11 "../../../../win32-dev/gtk_2_0-2.14/include/glib-2.0/glib/gslist.h"
	.file 12 "../../../../win32-dev/gtk_2_0-2.14/include/glib-2.0/glib/gstring.h"
	.file 13 "../../../../win32-dev/gtk_2_0-2.14/include/glib-2.0/glib/gqueue.h"
	.file 14 "c:/workspace/pidgin-devel/win32-dev/mingw-4.7.2/bin/../lib/gcc/mingw32/4.7.2/../../../../include/winsock2.h"
	.file 15 "../../../libpurple/account.h"
	.file 16 "../../../libpurple/connection.h"
	.file 17 "../../../libpurple/plugin.h"
	.file 18 "../../../libpurple/pluginpref.h"
	.file 19 "../../../libpurple/status.h"
	.file 20 "../../../libpurple/blist.h"
	.file 21 "../../../libpurple/buddyicon.h"
	.file 22 "../../../libpurple/conversation.h"
	.file 23 "../../../libpurple/log.h"
	.file 24 "../../../libpurple/ft.h"
	.file 25 "../../../libpurple/media/enum-types.h"
	.file 26 "../../../libpurple/media/../util.h"
	.file 27 "../../../libpurple/media/../notify.h"
	.file 28 "../../../libpurple/eventloop.h"
	.file 29 "../../../libpurple/proxy.h"
	.file 30 "../../../libpurple/sslconn.h"
	.file 31 "../../../libpurple/certificate.h"
	.file 32 "c:/workspace/pidgin-devel/win32-dev/mingw-4.7.2/bin/../lib/gcc/mingw32/4.7.2/../../../../include/wtypes.h"
	.file 33 "../../../libpurple/privacy.h"
	.file 34 "../../../libpurple/circbuffer.h"
	.file 35 "oscar.h"
	.file 36 "../../../libpurple/network.h"
	.file 37 "peer.h"
	.file 38 "c:/workspace/pidgin-devel/win32-dev/mingw-4.7.2/bin/../lib/gcc/mingw32/4.7.2/../../../../include/ctype.h"
	.file 39 "../../../../win32-dev/gtk_2_0-2.14/include/glib-2.0/glib/gmem.h"
	.file 40 "../../../libpurple/debug.h"
	.file 41 "../../../../win32-dev/gtk_2_0-2.14/include/libintl.h"
	.file 42 "../../../../win32-dev/gtk_2_0-2.14/include/glib-2.0/glib/gstrfuncs.h"
	.file 43 "encoding.h"
	.file 44 "c:/workspace/pidgin-devel/win32-dev/mingw-4.7.2/bin/../lib/gcc/mingw32/4.7.2/../../../../include/string.h"
	.file 45 "../../../libpurple/prpl.h"
	.file 46 "../../../../win32-dev/gtk_2_0-2.14/include/glib-2.0/glib/gmessages.h"
	.file 47 "c:/workspace/pidgin-devel/win32-dev/mingw-4.7.2/bin/../lib/gcc/mingw32/4.7.2/../../../../include/stdlib.h"
	.file 48 "../../../../win32-dev/gtk_2_0-2.14/include/glib-2.0/glib/grand.h"