	.file	"gg.c"
	.intel_syntax noprefix
	.text
Ltext0:
	.section .rdata,"dr"
LC0:
	.ascii "gadu-gadu\0"
	.text
	.p2align 2,,3
	.def	_ggp_list_icon;	.scl	3;	.type	32;	.endef
_ggp_list_icon:
LFB124:
	.file 1 "gg.c"
	.loc 1 1531 0
	.cfi_startproc
LVL0:
	sub	esp, 28
LCFI0:
	.cfi_def_cfa_offset 32
	.loc 1 1531 0
	mov	eax, DWORD PTR ___stack_chk_guard
	mov	DWORD PTR [esp+12], eax
	xor	eax, eax
	.loc 1 1533 0
	mov	eax, OFFSET FLAT:LC0
	mov	edx, DWORD PTR [esp+12]
	xor	edx, DWORD PTR ___stack_chk_guard
	jne	L5
	add	esp, 28
LCFI1:
	.cfi_remember_state
	.cfi_def_cfa_offset 4
	ret
L5:
LCFI2:
	.cfi_restore_state
	call	___stack_chk_fail
LVL1:
	.cfi_endproc
LFE124:
	.p2align 2,,3
	.def	_ggp_offline_message;	.scl	3;	.type	32;	.endef
_ggp_offline_message:
LFB146:
	.loc 1 2241 0
	.cfi_startproc
LVL2:
	sub	esp, 28
LCFI3:
	.cfi_def_cfa_offset 32
	.loc 1 2241 0
	mov	eax, DWORD PTR ___stack_chk_guard
	mov	DWORD PTR [esp+12], eax
	xor	eax, eax
	.loc 1 2243 0
	mov	al, 1
	mov	edx, DWORD PTR [esp+12]
	xor	edx, DWORD PTR ___stack_chk_guard
	jne	L9
	add	esp, 28
LCFI4:
	.cfi_remember_state
	.cfi_def_cfa_offset 4
	ret
L9:
LCFI5:
	.cfi_restore_state
	call	___stack_chk_fail
LVL3:
	.cfi_endproc
LFE146:
	.section .rdata,"dr"
	.align 4
LC1:
	.ascii "ggp_chat_send: Hm... that's strange. No such chat?\12\0"
LC2:
	.ascii "gg\0"
	.text
	.p2align 2,,3
	.def	_ggp_chat_send;	.scl	3;	.type	32;	.endef
_ggp_chat_send:
LFB143:
	.loc 1 2144 0
	.cfi_startproc
LVL4:
	push	ebp
LCFI6:
	.cfi_def_cfa_offset 8
	.cfi_offset 5, -8
	push	edi
LCFI7:
	.cfi_def_cfa_offset 12
	.cfi_offset 7, -12
	push	esi
LCFI8:
	.cfi_def_cfa_offset 16
	.cfi_offset 6, -16
	push	ebx
LCFI9:
	.cfi_def_cfa_offset 20
	.cfi_offset 3, -20
	sub	esp, 76
LCFI10:
	.cfi_def_cfa_offset 96
	mov	esi, DWORD PTR [esp+96]
	mov	edx, DWORD PTR [esp+100]
	mov	DWORD PTR [esp+36], edx
	mov	edx, DWORD PTR [esp+104]
	mov	DWORD PTR [esp+40], edx
	mov	edx, DWORD PTR [esp+108]
	mov	DWORD PTR [esp+44], edx
	.loc 1 2144 0
	mov	eax, DWORD PTR ___stack_chk_guard
	mov	DWORD PTR [esp+60], eax
	xor	eax, eax
	.loc 1 2146 0
	mov	edx, DWORD PTR [esi+28]
	mov	DWORD PTR [esp+32], edx
LVL5:
	.loc 1 2154 0
	mov	edx, DWORD PTR [esp+36]
LVL6:
	mov	DWORD PTR [esp+4], edx
	mov	DWORD PTR [esp], esi
	call	_purple_find_chat
LVL7:
	test	eax, eax
	je	L18
	.loc 1 2157 0
	mov	edx, DWORD PTR [esp+32]
	mov	ebp, DWORD PTR [edx+8]
LVL8:
	test	ebp, ebp
	je	L12
	mov	ebx, DWORD PTR [eax+8]
	jmp	L14
LVL9:
	.p2align 2,,3
L29:
	mov	ebp, DWORD PTR [ebp+4]
LVL10:
	test	ebp, ebp
	je	L12
L14:
	.loc 1 2158 0
	mov	edi, DWORD PTR [ebp+0]
LVL11:
	.loc 1 2160 0
	mov	DWORD PTR [esp+4], ebx
	mov	eax, DWORD PTR [edi]
	mov	DWORD PTR [esp], eax
	call	_g_utf8_collate
LVL12:
	test	eax, eax
	jne	L29
	.loc 1 2173 0
	mov	eax, DWORD PTR [edi+4]
	mov	DWORD PTR [esp], eax
	call	_g_list_length
LVL13:
	sal	eax, 2
	mov	DWORD PTR [esp], eax
	call	_g_malloc0
LVL14:
	mov	ebp, eax
LVL15:
	.loc 1 2175 0
	mov	eax, DWORD PTR [edi+4]
LVL16:
	xor	ebx, ebx
	test	eax, eax
	je	L16
LVL17:
	.p2align 2,,3
L22:
LBB19:
	.loc 1 2178 0 discriminator 2
	mov	edx, DWORD PTR [eax]
	mov	DWORD PTR [ebp+0+ebx*4], edx
	inc	ebx
LVL18:
LBE19:
	.loc 1 2175 0 discriminator 2
	mov	eax, DWORD PTR [eax+4]
LVL19:
	test	eax, eax
	jne	L22
LVL20:
L16:
	.loc 1 2186 0
	mov	edx, DWORD PTR [esp+40]
	mov	DWORD PTR [esp], edx
	call	_purple_unescape_html
LVL21:
	mov	edi, eax
LVL22:
	.loc 1 2187 0
	mov	DWORD PTR [esp+16], eax
	mov	DWORD PTR [esp+12], ebp
	mov	DWORD PTR [esp+8], ebx
	mov	DWORD PTR [esp+4], 8
	mov	edx, DWORD PTR [esp+32]
	mov	eax, DWORD PTR [edx]
LVL23:
	mov	DWORD PTR [esp], eax
	call	_gg_send_message_confer
LVL24:
	.loc 1 2189 0
	mov	DWORD PTR [esp], edi
	call	_g_free
LVL25:
	.loc 1 2190 0
	mov	DWORD PTR [esp], ebp
	call	_g_free
LVL26:
	.loc 1 2192 0
	mov	DWORD PTR [esp], 0
	call	_time
LVL27:
	mov	ebx, eax
	.loc 1 2193 0
	mov	DWORD PTR [esp], esi
	call	_purple_connection_get_account
LVL28:
	.loc 1 2192 0
	mov	DWORD PTR [esp], eax
	call	_purple_account_get_username
LVL29:
	mov	DWORD PTR [esp+20], ebx
	mov	edx, DWORD PTR [esp+40]
	mov	DWORD PTR [esp+16], edx
	mov	edx, DWORD PTR [esp+44]
	mov	DWORD PTR [esp+12], edx
	mov	DWORD PTR [esp+8], eax
	mov	edx, DWORD PTR [esp+36]
	mov	DWORD PTR [esp+4], edx
	mov	DWORD PTR [esp], esi
	call	_serv_got_chat_in
LVL30:
	.loc 1 2196 0
	xor	eax, eax
	jmp	L11
LVL31:
	.p2align 2,,3
L12:
	.loc 1 2168 0
	mov	DWORD PTR [esp+4], OFFSET FLAT:LC1
	mov	DWORD PTR [esp], OFFSET FLAT:LC2
	call	_purple_debug_error
LVL32:
	.loc 1 2170 0
	mov	eax, -22
LVL33:
L11:
	.loc 1 2197 0
	mov	edx, DWORD PTR [esp+60]
	xor	edx, DWORD PTR ___stack_chk_guard
	jne	L30
	add	esp, 76
LCFI11:
	.cfi_remember_state
	.cfi_def_cfa_offset 20
	pop	ebx
LCFI12:
	.cfi_restore 3
	.cfi_def_cfa_offset 16
	pop	esi
LCFI13:
	.cfi_restore 6
	.cfi_def_cfa_offset 12
	pop	edi
LCFI14:
	.cfi_restore 7
	.cfi_def_cfa_offset 8
	pop	ebp
LCFI15:
	.cfi_restore 5
	.cfi_def_cfa_offset 4
	ret
LVL34:
L18:
LCFI16:
	.cfi_restore_state
	.loc 1 2155 0
	mov	eax, -22
LVL35:
	jmp	L11
LVL36:
L30:
	.loc 1 2197 0
	call	___stack_chk_fail
LVL37:
	.cfi_endproc
LFE143:
	.section .rdata,"dr"
LC3:
	.ascii "name\0"
	.text
	.p2align 2,,3
	.def	_ggp_get_chat_name;	.scl	3;	.type	32;	.endef
_ggp_get_chat_name:
LFB142:
	.loc 1 2139 0
	.cfi_startproc
LVL38:
	sub	esp, 44
LCFI17:
	.cfi_def_cfa_offset 48
	.loc 1 2139 0
	mov	eax, DWORD PTR ___stack_chk_guard
	mov	DWORD PTR [esp+28], eax
	xor	eax, eax
	.loc 1 2140 0
	mov	DWORD PTR [esp+4], OFFSET FLAT:LC3
	mov	eax, DWORD PTR [esp+48]
	mov	DWORD PTR [esp], eax
	call	_g_hash_table_lookup
LVL39:
	mov	edx, DWORD PTR [esp+28]
	xor	edx, DWORD PTR ___stack_chk_guard
	jne	L35
	mov	DWORD PTR [esp+48], eax
	.loc 1 2141 0
	add	esp, 44
LCFI18:
	.cfi_remember_state
	.cfi_def_cfa_offset 4
	.loc 1 2140 0
	jmp	_g_strdup
LVL40:
L35:
LCFI19:
	.cfi_restore_state
	call	___stack_chk_fail
LVL41:
	.cfi_endproc
LFE142:
	.section .rdata,"dr"
LC4:
	.ascii "joined %s chat\12\0"
	.align 4
LC5:
	.ascii "This chat name is already in use\0"
LC6:
	.ascii "pidgin\0"
LC7:
	.ascii "Chat error\0"
	.text
	.p2align 2,,3
	.def	_ggp_join_chat;	.scl	3;	.type	32;	.endef
_ggp_join_chat:
LFB141:
	.loc 1 2107 0
	.cfi_startproc
LVL42:
	push	ebp
LCFI20:
	.cfi_def_cfa_offset 8
	.cfi_offset 5, -8
	push	edi
LCFI21:
	.cfi_def_cfa_offset 12
	.cfi_offset 7, -12
	push	esi
LCFI22:
	.cfi_def_cfa_offset 16
	.cfi_offset 6, -16
	push	ebx
LCFI23:
	.cfi_def_cfa_offset 20
	.cfi_offset 3, -20
	sub	esp, 76
LCFI24:
	.cfi_def_cfa_offset 96
	mov	esi, DWORD PTR [esp+96]
	mov	ebx, DWORD PTR [esp+100]
	.loc 1 2107 0
	mov	eax, DWORD PTR ___stack_chk_guard
	mov	DWORD PTR [esp+60], eax
	xor	eax, eax
	.loc 1 2108 0
	mov	edi, DWORD PTR [esi+28]
LVL43:
	.loc 1 2113 0
	mov	DWORD PTR [esp], esi
	call	_purple_connection_get_account
LVL44:
	mov	DWORD PTR [esp+44], eax
LVL45:
	.loc 1 2115 0
	mov	DWORD PTR [esp+4], OFFSET FLAT:LC3
	mov	DWORD PTR [esp], ebx
	call	_g_hash_table_lookup
LVL46:
	mov	ebx, eax
LVL47:
	.loc 1 2117 0
	test	eax, eax
	je	L36
	.loc 1 2120 0
	mov	DWORD PTR [esp+8], eax
	mov	DWORD PTR [esp+4], OFFSET FLAT:LC4
	mov	DWORD PTR [esp], OFFSET FLAT:LC2
	call	_purple_debug_info
LVL48:
	.loc 1 2122 0
	mov	ebp, DWORD PTR [edi+8]
LVL49:
	test	ebp, ebp
	je	L38
	.p2align 2,,3
L48:
	.loc 1 2123 0
	mov	eax, DWORD PTR [ebp+0]
LVL50:
	.loc 1 2125 0
	test	eax, eax
	je	L39
	.loc 1 2125 0 is_stmt 0 discriminator 1
	mov	DWORD PTR [esp+4], ebx
	mov	eax, DWORD PTR [eax]
LVL51:
	mov	DWORD PTR [esp], eax
	call	_g_utf8_collate
LVL52:
	test	eax, eax
	je	L54
L39:
	.loc 1 2122 0 is_stmt 1
	mov	ebp, DWORD PTR [ebp+4]
LVL53:
	test	ebp, ebp
	jne	L48
L38:
	.loc 1 2132 0
	mov	DWORD PTR [esp+4], ebx
	mov	DWORD PTR [esp], esi
	call	_ggp_confer_add_new
LVL54:
	.loc 1 2133 0
	mov	DWORD PTR [esp+8], ebx
	mov	eax, DWORD PTR [edi+16]
	mov	DWORD PTR [esp+4], eax
	mov	DWORD PTR [esp], esi
	call	_serv_got_joined_chat
LVL55:
	mov	esi, eax
LVL56:
	.loc 1 2134 0
	mov	eax, DWORD PTR [esp+44]
LVL57:
	mov	DWORD PTR [esp], eax
	call	_purple_account_get_username
LVL58:
	mov	ebx, eax
LVL59:
	mov	DWORD PTR [esp], esi
	call	_purple_conversation_get_chat_data
LVL60:
	mov	DWORD PTR [esp+16], 1
	mov	DWORD PTR [esp+12], 0
	mov	DWORD PTR [esp+8], 0
	mov	DWORD PTR [esp+4], ebx
	mov	DWORD PTR [esp], eax
	call	_purple_conv_chat_add_user
LVL61:
L36:
	.loc 1 2137 0
	mov	eax, DWORD PTR [esp+60]
	xor	eax, DWORD PTR ___stack_chk_guard
	jne	L55
	add	esp, 76
LCFI25:
	.cfi_remember_state
	.cfi_def_cfa_offset 20
	pop	ebx
LCFI26:
	.cfi_restore 3
	.cfi_def_cfa_offset 16
	pop	esi
LCFI27:
	.cfi_restore 6
	.cfi_def_cfa_offset 12
	pop	edi
LCFI28:
	.cfi_restore 7
	.cfi_def_cfa_offset 8
LVL62:
	pop	ebp
LCFI29:
	.cfi_restore 5
	.cfi_def_cfa_offset 4
	ret
LVL63:
	.p2align 2,,3
L54:
LCFI30:
	.cfi_restore_state
	.loc 1 2126 0
	mov	DWORD PTR [esp+4], OFFSET FLAT:LC5
	mov	DWORD PTR [esp], OFFSET FLAT:LC6
	call	_libintl_dgettext
LVL64:
	mov	ebx, eax
LVL65:
	mov	DWORD PTR [esp+4], OFFSET FLAT:LC7
	mov	DWORD PTR [esp], OFFSET FLAT:LC6
	call	_libintl_dgettext
LVL66:
	mov	DWORD PTR [esp+24], 0
	mov	DWORD PTR [esp+20], 0
	mov	DWORD PTR [esp+16], 0
	mov	DWORD PTR [esp+12], ebx
	mov	DWORD PTR [esp+8], eax
	mov	DWORD PTR [esp+4], 0
	mov	DWORD PTR [esp], esi
	call	_purple_notify_message
LVL67:
	.loc 1 2128 0
	jmp	L36
LVL68:
L55:
	.loc 1 2137 0
	call	___stack_chk_fail
LVL69:
	.cfi_endproc
LFE141:
	.section .rdata,"dr"
LC8:
	.ascii "ggp_rem_deny: %u\12\0"
	.text
	.p2align 2,,3
	.def	_ggp_rem_deny;	.scl	3;	.type	32;	.endef
_ggp_rem_deny:
LFB109:
	.loc 1 476 0
	.cfi_startproc
LVL70:
	push	esi
LCFI31:
	.cfi_def_cfa_offset 8
	.cfi_offset 6, -8
	push	ebx
LCFI32:
	.cfi_def_cfa_offset 12
	.cfi_offset 3, -12
	sub	esp, 36
LCFI33:
	.cfi_def_cfa_offset 48
	.loc 1 476 0
	mov	eax, DWORD PTR ___stack_chk_guard
	mov	DWORD PTR [esp+28], eax
	xor	eax, eax
	.loc 1 477 0
	mov	eax, DWORD PTR [esp+48]
	mov	esi, DWORD PTR [eax+28]
LVL71:
	.loc 1 478 0
	mov	eax, DWORD PTR [esp+52]
	mov	DWORD PTR [esp], eax
	call	_ggp_str_to_uin
LVL72:
	mov	ebx, eax
LVL73:
	.loc 1 480 0
	mov	DWORD PTR [esp+8], eax
	mov	DWORD PTR [esp+4], OFFSET FLAT:LC8
	mov	DWORD PTR [esp], OFFSET FLAT:LC2
	call	_purple_debug_info
LVL74:
	.loc 1 482 0
	mov	DWORD PTR [esp+8], 4
	mov	DWORD PTR [esp+4], ebx
	mov	eax, DWORD PTR [esi]
	mov	DWORD PTR [esp], eax
	call	_gg_remove_notify_ex
LVL75:
	.loc 1 483 0
	mov	DWORD PTR [esp+8], 3
	mov	DWORD PTR [esp+4], ebx
	mov	eax, DWORD PTR [esi]
	mov	DWORD PTR [esp], eax
	call	_gg_add_notify_ex
LVL76:
	.loc 1 484 0
	mov	eax, DWORD PTR [esp+28]
	xor	eax, DWORD PTR ___stack_chk_guard
	jne	L59
	add	esp, 36
LCFI34:
	.cfi_remember_state
	.cfi_def_cfa_offset 12
	pop	ebx
LCFI35:
	.cfi_restore 3
	.cfi_def_cfa_offset 8
LVL77:
	pop	esi
LCFI36:
	.cfi_restore 6
	.cfi_def_cfa_offset 4
LVL78:
	ret
LVL79:
L59:
LCFI37:
	.cfi_restore_state
	call	___stack_chk_fail
LVL80:
	.cfi_endproc
LFE109:
	.section .rdata,"dr"
LC9:
	.ascii "ggp_add_deny: %u\12\0"
	.text
	.p2align 2,,3
	.def	_ggp_add_deny;	.scl	3;	.type	32;	.endef
_ggp_add_deny:
LFB108:
	.loc 1 465 0
	.cfi_startproc
LVL81:
	push	esi
LCFI38:
	.cfi_def_cfa_offset 8
	.cfi_offset 6, -8
	push	ebx
LCFI39:
	.cfi_def_cfa_offset 12
	.cfi_offset 3, -12
	sub	esp, 36
LCFI40:
	.cfi_def_cfa_offset 48
	.loc 1 465 0
	mov	eax, DWORD PTR ___stack_chk_guard
	mov	DWORD PTR [esp+28], eax
	xor	eax, eax
	.loc 1 466 0
	mov	eax, DWORD PTR [esp+48]
	mov	esi, DWORD PTR [eax+28]
LVL82:
	.loc 1 467 0
	mov	eax, DWORD PTR [esp+52]
	mov	DWORD PTR [esp], eax
	call	_ggp_str_to_uin
LVL83:
	mov	ebx, eax
LVL84:
	.loc 1 469 0
	mov	DWORD PTR [esp+8], eax
	mov	DWORD PTR [esp+4], OFFSET FLAT:LC9
	mov	DWORD PTR [esp], OFFSET FLAT:LC2
	call	_purple_debug_info
LVL85:
	.loc 1 471 0
	mov	DWORD PTR [esp+8], 3
	mov	DWORD PTR [esp+4], ebx
	mov	eax, DWORD PTR [esi]
	mov	DWORD PTR [esp], eax
	call	_gg_remove_notify_ex
LVL86:
	.loc 1 472 0
	mov	DWORD PTR [esp+8], 4
	mov	DWORD PTR [esp+4], ebx
	mov	eax, DWORD PTR [esi]
	mov	DWORD PTR [esp], eax
	call	_gg_add_notify_ex
LVL87:
	.loc 1 473 0
	mov	eax, DWORD PTR [esp+28]
	xor	eax, DWORD PTR ___stack_chk_guard
	jne	L63
	add	esp, 36
LCFI41:
	.cfi_remember_state
	.cfi_def_cfa_offset 12
	pop	ebx
LCFI42:
	.cfi_restore 3
	.cfi_def_cfa_offset 8
LVL88:
	pop	esi
LCFI43:
	.cfi_restore 6
	.cfi_def_cfa_offset 4
LVL89:
	ret
LVL90:
L63:
LCFI44:
	.cfi_restore_state
	call	___stack_chk_fail
LVL91:
	.cfi_endproc
LFE108:
	.p2align 2,,3
	.def	_ggp_remove_buddy;	.scl	3;	.type	32;	.endef
_ggp_remove_buddy:
LFB140:
	.loc 1 2100 0
	.cfi_startproc
LVL92:
	push	ebx
LCFI45:
	.cfi_def_cfa_offset 8
	.cfi_offset 3, -8
	sub	esp, 40
LCFI46:
	.cfi_def_cfa_offset 48
	.loc 1 2100 0
	mov	eax, DWORD PTR ___stack_chk_guard
	mov	DWORD PTR [esp+28], eax
	xor	eax, eax
	.loc 1 2101 0
	mov	eax, DWORD PTR [esp+48]
	mov	ebx, DWORD PTR [eax+28]
LVL93:
	.loc 1 2103 0
	mov	eax, DWORD PTR [esp+52]
	mov	DWORD PTR [esp], eax
	call	_purple_buddy_get_name
LVL94:
	mov	DWORD PTR [esp], eax
	call	_ggp_str_to_uin
LVL95:
	mov	edx, DWORD PTR [esp+28]
	xor	edx, DWORD PTR ___stack_chk_guard
	jne	L68
	mov	DWORD PTR [esp+52], eax
	mov	eax, DWORD PTR [ebx]
	mov	DWORD PTR [esp+48], eax
	.loc 1 2104 0
	add	esp, 40
LCFI47:
	.cfi_remember_state
	.cfi_def_cfa_offset 8
	pop	ebx
LCFI48:
	.cfi_restore 3
	.cfi_def_cfa_offset 4
LVL96:
	.loc 1 2103 0
	jmp	_gg_remove_notify
LVL97:
L68:
LCFI49:
	.cfi_restore_state
	call	___stack_chk_fail
LVL98:
	.cfi_endproc
LFE140:
	.p2align 2,,3
	.def	_ggp_add_buddy;	.scl	3;	.type	32;	.endef
_ggp_add_buddy:
LFB139:
	.loc 1 2085 0
	.cfi_startproc
LVL99:
	push	edi
LCFI50:
	.cfi_def_cfa_offset 8
	.cfi_offset 7, -8
	push	esi
LCFI51:
	.cfi_def_cfa_offset 12
	.cfi_offset 6, -12
	push	ebx
LCFI52:
	.cfi_def_cfa_offset 16
	.cfi_offset 3, -16
	sub	esp, 32
LCFI53:
	.cfi_def_cfa_offset 48
	mov	esi, DWORD PTR [esp+48]
	.loc 1 2085 0
	mov	eax, DWORD PTR ___stack_chk_guard
	mov	DWORD PTR [esp+28], eax
	xor	eax, eax
	.loc 1 2087 0
	mov	edi, DWORD PTR [esi+28]
LVL100:
	.loc 1 2088 0
	mov	eax, DWORD PTR [esp+52]
	mov	DWORD PTR [esp], eax
	call	_purple_buddy_get_name
LVL101:
	mov	ebx, eax
LVL102:
	.loc 1 2090 0
	mov	DWORD PTR [esp], eax
	call	_ggp_str_to_uin
LVL103:
	mov	DWORD PTR [esp+4], eax
	mov	eax, DWORD PTR [edi]
	mov	DWORD PTR [esp], eax
	call	_gg_add_notify
LVL104:
	.loc 1 2092 0
	mov	DWORD PTR [esp], esi
	call	_purple_connection_get_account
LVL105:
	mov	esi, eax
LVL106:
	.loc 1 2093 0
	mov	DWORD PTR [esp], eax
	call	_purple_account_get_username
LVL107:
	mov	DWORD PTR [esp+4], ebx
	mov	DWORD PTR [esp], eax
	call	_strcmp
LVL108:
	test	eax, eax
	je	L75
	.loc 1 2096 0
	mov	eax, DWORD PTR [esp+28]
	xor	eax, DWORD PTR ___stack_chk_guard
	jne	L74
	add	esp, 32
LCFI54:
	.cfi_remember_state
	.cfi_def_cfa_offset 16
	pop	ebx
LCFI55:
	.cfi_restore 3
	.cfi_def_cfa_offset 12
LVL109:
	pop	esi
LCFI56:
	.cfi_restore 6
	.cfi_def_cfa_offset 8
LVL110:
	pop	edi
LCFI57:
	.cfi_restore 7
	.cfi_def_cfa_offset 4
LVL111:
	ret
LVL112:
	.p2align 2,,3
L75:
LCFI58:
	.cfi_restore_state
	.loc 1 2094 0
	mov	eax, DWORD PTR [esp+28]
	xor	eax, DWORD PTR ___stack_chk_guard
	jne	L74
	mov	DWORD PTR [esp+48], esi
	.loc 1 2096 0
	add	esp, 32
LCFI59:
	.cfi_remember_state
	.cfi_def_cfa_offset 16
	pop	ebx
LCFI60:
	.cfi_restore 3
	.cfi_def_cfa_offset 12
LVL113:
	pop	esi
LCFI61:
	.cfi_restore 6
	.cfi_def_cfa_offset 8
LVL114:
	pop	edi
LCFI62:
	.cfi_restore 7
	.cfi_def_cfa_offset 4
LVL115:
	.loc 1 2094 0
	jmp	_ggp_status_fake_to_self
LVL116:
L74:
LCFI63:
	.cfi_restore_state
	.loc 1 2096 0
	call	___stack_chk_fail
LVL117:
	.cfi_endproc
LFE139:
	.section .rdata,"dr"
LC10:
	.ascii "away\0"
LC11:
	.ascii "unavailable\0"
LC12:
	.ascii "invisible\0"
LC13:
	.ascii "offline\0"
	.align 4
LC14:
	.ascii "ggp_set_status: unknown status requested (status_id=%s)\12\0"
LC15:
	.ascii "message\0"
LC16:
	.ascii "msg != NULL\0"
	.align 4
LC17:
	.ascii "ggp_to_gg_status: Requested status = %s\12\0"
LC18:
	.ascii "available\0"
	.text
	.p2align 2,,3
	.def	_ggp_to_gg_status;	.scl	3;	.type	32;	.endef
_ggp_to_gg_status:
LFB137:
	.loc 1 2005 0
	.cfi_startproc
LVL118:
	push	ebp
LCFI64:
	.cfi_def_cfa_offset 8
	.cfi_offset 5, -8
	push	edi
LCFI65:
	.cfi_def_cfa_offset 12
	.cfi_offset 7, -12
	push	esi
LCFI66:
	.cfi_def_cfa_offset 16
	.cfi_offset 6, -16
	push	ebx
LCFI67:
	.cfi_def_cfa_offset 20
	.cfi_offset 3, -20
	sub	esp, 60
LCFI68:
	.cfi_def_cfa_offset 80
	mov	ebx, eax
	mov	ebp, edx
	.loc 1 2005 0
	mov	eax, DWORD PTR ___stack_chk_guard
	mov	DWORD PTR [esp+44], eax
	xor	eax, eax
LVL119:
	.loc 1 2006 0
	mov	DWORD PTR [esp], ebx
	call	_purple_status_get_id
LVL120:
LBB20:
	.loc 1 2010 0
	test	ebp, ebp
	je	L93
LVL121:
LBE20:
	.loc 1 2012 0
	mov	DWORD PTR [esp+8], eax
	mov	DWORD PTR [esp+4], OFFSET FLAT:LC17
	mov	DWORD PTR [esp], OFFSET FLAT:LC2
	mov	DWORD PTR [esp+28], eax
	call	_purple_debug_info
LVL122:
	.loc 1 2015 0
	mov	edi, OFFSET FLAT:LC18
	mov	ecx, 10
	mov	eax, DWORD PTR [esp+28]
	mov	esi, eax
	repe cmpsb
	jne	L94
	.loc 1 2017 0
	mov	esi, 4
	.loc 1 2016 0
	mov	edi, 2
L79:
LVL123:
	.loc 1 2038 0
	mov	DWORD PTR [esp+4], OFFSET FLAT:LC15
	mov	DWORD PTR [esp], ebx
	call	_purple_status_get_attr_string
LVL124:
	.loc 1 2040 0
	test	eax, eax
	je	L80
	.loc 1 2046 0
	mov	DWORD PTR [esp], eax
	call	_purple_markup_strip_html
LVL125:
	mov	DWORD PTR [ebp+0], eax
LVL126:
L81:
	.loc 1 2053 0
	mov	eax, esi
	mov	edx, DWORD PTR [esp+44]
	xor	edx, DWORD PTR ___stack_chk_guard
	jne	L95
	add	esp, 60
LCFI69:
	.cfi_remember_state
	.cfi_def_cfa_offset 20
	pop	ebx
LCFI70:
	.cfi_restore 3
	.cfi_def_cfa_offset 16
LVL127:
	pop	esi
LCFI71:
	.cfi_restore 6
	.cfi_def_cfa_offset 12
	pop	edi
LCFI72:
	.cfi_restore 7
	.cfi_def_cfa_offset 8
	pop	ebp
LCFI73:
	.cfi_restore 5
	.cfi_def_cfa_offset 4
LVL128:
	ret
LVL129:
	.p2align 2,,3
L94:
LCFI74:
	.cfi_restore_state
	.loc 1 2018 0
	mov	edi, OFFSET FLAT:LC10
	mov	ecx, 5
	mov	esi, eax
	repe cmpsb
	je	L84
	.loc 1 2021 0
	mov	edi, OFFSET FLAT:LC11
	mov	ecx, 12
	mov	esi, eax
	repe cmpsb
	je	L85
	.loc 1 2024 0
	mov	edi, OFFSET FLAT:LC12
	mov	ecx, 10
	mov	esi, eax
	repe cmpsb
	je	L86
	.loc 1 2027 0
	mov	edi, OFFSET FLAT:LC13
	mov	ecx, 8
	mov	esi, eax
	repe cmpsb
	jne	L96
	.loc 1 2029 0
	mov	esi, 21
	.loc 1 2028 0
	mov	edi, 1
	jmp	L79
LVL130:
	.p2align 2,,3
L80:
	.loc 1 2050 0
	mov	DWORD PTR [ebp+0], 0
	.loc 1 2051 0
	mov	esi, edi
LVL131:
	jmp	L81
LVL132:
	.p2align 2,,3
L84:
	.loc 1 2020 0
	mov	esi, 5
	.loc 1 2019 0
	mov	edi, 3
	jmp	L79
	.p2align 2,,3
L85:
	.loc 1 2023 0
	mov	esi, 34
	.loc 1 2022 0
	mov	edi, 33
	jmp	L79
LVL133:
	.p2align 2,,3
L93:
	.loc 1 2010 0
	mov	DWORD PTR [esp+8], OFFSET FLAT:LC16
	mov	DWORD PTR [esp+4], OFFSET FLAT:___PRETTY_FUNCTION__.46139
	mov	DWORD PTR [esp], 0
	call	_g_return_if_fail_warning
LVL134:
	xor	esi, esi
	jmp	L81
LVL135:
	.p2align 2,,3
L86:
	.loc 1 2026 0
	mov	esi, 22
	.loc 1 2025 0
	mov	edi, 20
	jmp	L79
L96:
LVL136:
	.loc 1 2033 0
	mov	DWORD PTR [esp+8], eax
	mov	DWORD PTR [esp+4], OFFSET FLAT:LC14
	mov	DWORD PTR [esp], OFFSET FLAT:LC2
	call	_purple_debug_info
LVL137:
	.loc 1 2032 0
	mov	esi, 4
	.loc 1 2031 0
	mov	edi, 2
	jmp	L79
LVL138:
L95:
	.loc 1 2053 0
	call	___stack_chk_fail
LVL139:
	.cfi_endproc
LFE137:
	.p2align 2,,3
	.def	_ggp_set_status;	.scl	3;	.type	32;	.endef
_ggp_set_status:
LFB138:
	.loc 1 2056 0
	.cfi_startproc
LVL140:
	push	edi
LCFI75:
	.cfi_def_cfa_offset 8
	.cfi_offset 7, -8
	push	esi
LCFI76:
	.cfi_def_cfa_offset 12
	.cfi_offset 6, -12
	push	ebx
LCFI77:
	.cfi_def_cfa_offset 16
	.cfi_offset 3, -16
	sub	esp, 32
LCFI78:
	.cfi_def_cfa_offset 48
	mov	esi, DWORD PTR [esp+48]
	mov	ebx, DWORD PTR [esp+52]
	.loc 1 2056 0
	mov	eax, DWORD PTR ___stack_chk_guard
	mov	DWORD PTR [esp+28], eax
	xor	eax, eax
	.loc 1 2060 0
	mov	DWORD PTR [esp+24], 0
LVL141:
	.loc 1 2062 0
	mov	DWORD PTR [esp], ebx
	call	_purple_status_is_active
LVL142:
	test	eax, eax
	jne	L108
L97:
	.loc 1 2082 0
	mov	eax, DWORD PTR [esp+28]
	xor	eax, DWORD PTR ___stack_chk_guard
	jne	L109
	add	esp, 32
LCFI79:
	.cfi_remember_state
	.cfi_def_cfa_offset 16
	pop	ebx
LCFI80:
	.cfi_restore 3
	.cfi_def_cfa_offset 12
	pop	esi
LCFI81:
	.cfi_restore 6
	.cfi_def_cfa_offset 8
	pop	edi
LCFI82:
	.cfi_restore 7
	.cfi_def_cfa_offset 4
	ret
	.p2align 2,,3
L108:
LCFI83:
	.cfi_restore_state
	.loc 1 2065 0
	mov	DWORD PTR [esp], esi
	call	_purple_account_get_connection
LVL143:
	.loc 1 2066 0
	mov	edi, DWORD PTR [eax+28]
LVL144:
	.loc 1 2068 0
	lea	edx, [esp+24]
	mov	eax, ebx
LVL145:
	call	_ggp_to_gg_status
LVL146:
	.loc 1 2070 0
	mov	edx, DWORD PTR [edi+28]
	test	edx, edx
	je	L110
L99:
	.loc 1 2073 0
	mov	edx, DWORD PTR [esp+24]
	test	edx, edx
	je	L111
	.loc 1 2076 0
	mov	DWORD PTR [esp+8], edx
	mov	DWORD PTR [esp+4], eax
	mov	eax, DWORD PTR [edi]
LVL147:
	mov	DWORD PTR [esp], eax
	call	_gg_change_status_descr
LVL148:
	.loc 1 2077 0
	mov	eax, DWORD PTR [esp+24]
	mov	DWORD PTR [esp], eax
	call	_g_free
LVL149:
L101:
	.loc 1 2080 0
	mov	DWORD PTR [esp], esi
	call	_ggp_status_fake_to_self
LVL150:
	jmp	L97
LVL151:
	.p2align 2,,3
L110:
	.loc 1 2071 0
	or	ah, 128
LVL152:
	jmp	L99
	.p2align 2,,3
L111:
	.loc 1 2074 0
	mov	DWORD PTR [esp+4], eax
	mov	eax, DWORD PTR [edi]
LVL153:
	mov	DWORD PTR [esp], eax
	call	_gg_change_status
LVL154:
	jmp	L101
LVL155:
L109:
	.loc 1 2082 0
	call	___stack_chk_fail
LVL156:
	.cfi_endproc
LFE138:
	.section .rdata,"dr"
LC19:
	.ascii "ggp_get_info(): Added seq %u\0"
	.text
	.p2align 2,,3
	.def	_ggp_get_info;	.scl	3;	.type	32;	.endef
_ggp_get_info:
LFB136:
	.loc 1 1989 0
	.cfi_startproc
LVL157:
	push	ebp
LCFI84:
	.cfi_def_cfa_offset 8
	.cfi_offset 5, -8
	push	edi
LCFI85:
	.cfi_def_cfa_offset 12
	.cfi_offset 7, -12
	push	esi
LCFI86:
	.cfi_def_cfa_offset 16
	.cfi_offset 6, -16
	push	ebx
LCFI87:
	.cfi_def_cfa_offset 20
	.cfi_offset 3, -20
	sub	esp, 44
LCFI88:
	.cfi_def_cfa_offset 64
	mov	edi, DWORD PTR [esp+64]
	mov	ebp, DWORD PTR [esp+68]
	.loc 1 1989 0
	mov	eax, DWORD PTR ___stack_chk_guard
	mov	DWORD PTR [esp+28], eax
	xor	eax, eax
	.loc 1 1990 0
	mov	esi, DWORD PTR [edi+28]
LVL158:
	.loc 1 1994 0
	mov	DWORD PTR [esp], 0
	call	_ggp_search_form_new
LVL159:
	mov	ebx, eax
LVL160:
	.loc 1 1996 0
	mov	DWORD PTR [eax+44], esi
	.loc 1 1997 0
	mov	DWORD PTR [esp], ebp
	call	_g_strdup
LVL161:
	mov	DWORD PTR [ebx], eax
	.loc 1 1999 0
	mov	DWORD PTR [esp+4], ebx
	mov	DWORD PTR [esp], edi
	call	_ggp_search_start
LVL162:
	mov	edi, eax
LVL163:
	.loc 1 2000 0
	mov	DWORD PTR [esp+8], ebx
	mov	DWORD PTR [esp+4], eax
	mov	eax, DWORD PTR [esi+12]
LVL164:
	mov	DWORD PTR [esp], eax
	call	_ggp_search_add
LVL165:
	.loc 1 2001 0
	mov	DWORD PTR [esp+8], edi
	mov	DWORD PTR [esp+4], OFFSET FLAT:LC19
	mov	DWORD PTR [esp], OFFSET FLAT:LC2
	call	_purple_debug_info
LVL166:
	.loc 1 2002 0
	mov	eax, DWORD PTR [esp+28]
	xor	eax, DWORD PTR ___stack_chk_guard
	jne	L115
	add	esp, 44
LCFI89:
	.cfi_remember_state
	.cfi_def_cfa_offset 20
	pop	ebx
LCFI90:
	.cfi_restore 3
	.cfi_def_cfa_offset 16
LVL167:
	pop	esi
LCFI91:
	.cfi_restore 6
	.cfi_def_cfa_offset 12
LVL168:
	pop	edi
LCFI92:
	.cfi_restore 7
	.cfi_def_cfa_offset 8
LVL169:
	pop	ebp
LCFI93:
	.cfi_restore 5
	.cfi_def_cfa_offset 4
	ret
LVL170:
L115:
LCFI94:
	.cfi_restore_state
	call	___stack_chk_fail
LVL171:
	.cfi_endproc
LFE136:
	.p2align 2,,3
	.def	_ggp_send_typing;	.scl	3;	.type	32;	.endef
_ggp_send_typing:
LFB135:
	.loc 1 1969 0
	.cfi_startproc
LVL172:
	push	edi
LCFI95:
	.cfi_def_cfa_offset 8
	.cfi_offset 7, -8
	push	esi
LCFI96:
	.cfi_def_cfa_offset 12
	.cfi_offset 6, -12
	push	ebx
LCFI97:
	.cfi_def_cfa_offset 16
	.cfi_offset 3, -16
	sub	esp, 32
LCFI98:
	.cfi_def_cfa_offset 48
	mov	ebx, DWORD PTR [esp+48]
	mov	esi, DWORD PTR [esp+52]
	mov	eax, DWORD PTR [esp+56]
	.loc 1 1969 0
	mov	edx, DWORD PTR ___stack_chk_guard
	mov	DWORD PTR [esp+28], edx
	xor	edx, edx
	.loc 1 1972 0
	cmp	eax, 2
	je	L117
	.loc 1 1975 0
	dec	eax
LVL173:
	je	L125
	.loc 1 1978 0
	xor	edi, edi
L118:
LVL174:
	.loc 1 1980 0
	mov	DWORD PTR [esp], esi
	call	_ggp_str_to_uin
LVL175:
	mov	DWORD PTR [esp+8], edi
	mov	DWORD PTR [esp+4], eax
	.loc 1 1981 0
	mov	eax, DWORD PTR [ebx+28]
	.loc 1 1980 0
	mov	eax, DWORD PTR [eax]
	mov	DWORD PTR [esp], eax
	call	_gg_typing_notification
LVL176:
L117:
	.loc 1 1986 0
	mov	eax, 1
	mov	edx, DWORD PTR [esp+28]
	xor	edx, DWORD PTR ___stack_chk_guard
	jne	L126
	add	esp, 32
LCFI99:
	.cfi_remember_state
	.cfi_def_cfa_offset 16
	pop	ebx
LCFI100:
	.cfi_restore 3
	.cfi_def_cfa_offset 12
	pop	esi
LCFI101:
	.cfi_restore 6
	.cfi_def_cfa_offset 8
	pop	edi
LCFI102:
	.cfi_restore 7
	.cfi_def_cfa_offset 4
	ret
	.p2align 2,,3
L125:
LCFI103:
	.cfi_restore_state
	.loc 1 1976 0
	call	_g_random_int
LVL177:
	mov	edi, eax
LVL178:
	jmp	L118
LVL179:
L126:
	.loc 1 1986 0
	call	___stack_chk_fail
LVL180:
	.cfi_endproc
LFE135:
	.section .rdata,"dr"
LC20:
	.ascii "img\0"
LC21:
	.ascii "id\0"
	.align 4
LC22:
	.ascii "ggp_send_im_richtext: got crc: %u for imgid: %i\12\0"
	.align 4
LC23:
	.ascii "ggp_send_im_richtext: image over 255kb!\12\0"
	.align 4
LC24:
	.ascii "ggp_send_im_richtext: adding images to richtext, size: %i, crc32: %u, name: %s\12\0"
	.align 4
LC25:
	.ascii "ggp_send_im_richtext: image not found in the image store!\0"
	.align 4
LC26:
	.ascii "ggp_send_im: richtext msg = %s\12\0"
LC27:
	.ascii "%s\0"
LC28:
	.ascii "ggp_send_im: msg = %s\12\0"
	.text
	.p2align 2,,3
	.def	_ggp_send_im;	.scl	3;	.type	32;	.endef
_ggp_send_im:
LFB134:
	.loc 1 1851 0
	.cfi_startproc
LVL181:
	push	ebp
LCFI104:
	.cfi_def_cfa_offset 8
	.cfi_offset 5, -8
	push	edi
LCFI105:
	.cfi_def_cfa_offset 12
	.cfi_offset 7, -12
	push	esi
LCFI106:
	.cfi_def_cfa_offset 16
	.cfi_offset 6, -16
	push	ebx
LCFI107:
	.cfi_def_cfa_offset 20
	.cfi_offset 3, -20
	sub	esp, 1116
LCFI108:
	.cfi_def_cfa_offset 1136
	mov	edx, DWORD PTR [esp+1140]
	mov	DWORD PTR [esp+56], edx
	mov	ebx, DWORD PTR [esp+1144]
	.loc 1 1851 0
	mov	ecx, DWORD PTR ___stack_chk_guard
	mov	DWORD PTR [esp+1100], ecx
	xor	ecx, ecx
	.loc 1 1852 0
	mov	eax, DWORD PTR [esp+1136]
	mov	eax, DWORD PTR [eax+28]
	mov	DWORD PTR [esp+48], eax
LVL182:
	.loc 1 1859 0
	mov	DWORD PTR [esp+72], 0
LVL183:
	.loc 1 1861 0
	test	ebx, ebx
	je	L141
	.loc 1 1861 0 is_stmt 0 discriminator 1
	cmp	BYTE PTR [ebx], 0
	jne	L161
L141:
	.loc 1 1862 0 is_stmt 1
	xor	eax, eax
LVL184:
L128:
	.loc 1 1966 0
	mov	ecx, DWORD PTR [esp+1100]
	xor	ecx, DWORD PTR ___stack_chk_guard
	jne	L162
	add	esp, 1116
LCFI109:
	.cfi_remember_state
	.cfi_def_cfa_offset 20
	pop	ebx
LCFI110:
	.cfi_restore 3
	.cfi_def_cfa_offset 16
	pop	esi
LCFI111:
	.cfi_restore 6
	.cfi_def_cfa_offset 12
	pop	edi
LCFI112:
	.cfi_restore 7
	.cfi_def_cfa_offset 8
	pop	ebp
LCFI113:
	.cfi_restore 5
	.cfi_def_cfa_offset 4
	ret
LVL185:
	.p2align 2,,3
L161:
LCFI114:
	.cfi_restore_state
	.loc 1 1869 0
	lea	edi, [esp+64]
	mov	DWORD PTR [esp+16], edi
	lea	eax, [esp+72]
LVL186:
	mov	DWORD PTR [esp+12], eax
	lea	edx, [esp+68]
	mov	DWORD PTR [esp+8], edx
	mov	DWORD PTR [esp+4], ebx
	mov	DWORD PTR [esp], OFFSET FLAT:LC20
	call	_purple_markup_find_tag
LVL187:
	test	eax, eax
	je	L129
LBB21:
	.loc 1 1871 0
	mov	DWORD PTR [esp], 0
	call	_g_string_new
LVL188:
	mov	DWORD PTR [esp+52], eax
LVL189:
	.loc 1 1857 0
	mov	DWORD PTR [esp+36], 0
	.loc 1 1856 0
	mov	DWORD PTR [esp+40], 3
	jmp	L134
LVL190:
	.p2align 2,,3
L164:
LBB22:
LBB23:
	.loc 1 1904 0
	mov	DWORD PTR [esp+4], OFFSET FLAT:LC23
	mov	DWORD PTR [esp], OFFSET FLAT:LC2
	call	_purple_debug_warning
LVL191:
L133:
LBE23:
	.loc 1 1917 0
	mov	esi, DWORD PTR [esp+72]
	lea	ebx, [esi+1]
LVL192:
	.loc 1 1918 0
	mov	DWORD PTR [esp], edi
	call	_g_datalist_clear
LVL193:
LBE22:
	.loc 1 1920 0
	mov	DWORD PTR [esp+16], edi
	lea	eax, [esp+72]
	mov	DWORD PTR [esp+12], eax
	lea	edx, [esp+68]
	mov	DWORD PTR [esp+8], edx
	mov	DWORD PTR [esp+4], ebx
	mov	DWORD PTR [esp], OFFSET FLAT:LC20
	call	_purple_markup_find_tag
LVL194:
	test	eax, eax
	je	L163
LVL195:
L134:
LBB25:
	.loc 1 1879 0
	mov	eax, DWORD PTR [esp+68]
	cmp	eax, ebx
	je	L130
	.loc 1 1880 0
	mov	esi, eax
	sub	esi, ebx
	mov	DWORD PTR [esp+4], esi
	mov	DWORD PTR [esp], ebx
	call	_g_utf8_strlen
LVL196:
	add	DWORD PTR [esp+36], eax
	.loc 1 1881 0
	mov	DWORD PTR [esp+8], esi
	mov	DWORD PTR [esp+4], ebx
	mov	eax, DWORD PTR [esp+52]
	mov	DWORD PTR [esp], eax
	call	_g_string_append_len
LVL197:
L130:
	.loc 1 1884 0
	mov	DWORD PTR [esp], OFFSET FLAT:LC21
	call	_g_quark_try_string
LVL198:
	mov	DWORD PTR [esp+4], eax
	mov	DWORD PTR [esp], edi
	call	_g_datalist_id_get_data
LVL199:
	mov	ebx, eax
LVL200:
	test	eax, eax
	je	L131
	.loc 1 1884 0 is_stmt 0 discriminator 1
	mov	DWORD PTR [esp], eax
	call	_atoi
LVL201:
	mov	DWORD PTR [esp], eax
	call	_purple_imgstore_find_by_id
LVL202:
	mov	ebp, eax
LVL203:
	test	eax, eax
	je	L131
LBB24:
	.loc 1 1887 0 is_stmt 1
	mov	DWORD PTR [esp], eax
	call	_purple_imgstore_get_size
LVL204:
	mov	DWORD PTR [esp+44], eax
LVL205:
	.loc 1 1888 0
	mov	DWORD PTR [esp], ebp
	call	_purple_imgstore_get_data
LVL206:
	mov	esi, eax
LVL207:
	.loc 1 1889 0
	mov	DWORD PTR [esp], ebp
	call	_purple_imgstore_get_filename
LVL208:
	mov	DWORD PTR [esp+60], eax
LVL209:
	.loc 1 1890 0
	mov	eax, DWORD PTR [esp+44]
LVL210:
	mov	DWORD PTR [esp+8], eax
	mov	DWORD PTR [esp+4], esi
	mov	DWORD PTR [esp], 0
	call	_gg_crc32
LVL211:
	mov	esi, eax
LVL212:
	.loc 1 1892 0
	mov	DWORD PTR [esp], ebx
	call	_atoi
LVL213:
	mov	DWORD PTR [esp+8], eax
	mov	DWORD PTR [esp+4], esi
	mov	edx, DWORD PTR [esp+48]
	mov	eax, DWORD PTR [edx+24]
	mov	DWORD PTR [esp], eax
	call	_g_hash_table_insert
LVL214:
	.loc 1 1893 0
	mov	DWORD PTR [esp], ebp
	call	_purple_imgstore_ref
LVL215:
	.loc 1 1894 0
	mov	DWORD PTR [esp], ebx
	call	_atoi
LVL216:
	mov	DWORD PTR [esp+12], eax
	mov	DWORD PTR [esp+8], esi
	mov	DWORD PTR [esp+4], OFFSET FLAT:LC22
	mov	DWORD PTR [esp], OFFSET FLAT:LC2
	call	_purple_debug_info
LVL217:
	.loc 1 1900 0
	mov	eax, DWORD PTR [esp+44]
	mov	DWORD PTR [esp], eax
	call	_gg_fix32
LVL218:
	mov	ebx, eax
LVL219:
	.loc 1 1901 0
	mov	DWORD PTR [esp], esi
	call	_gg_fix32
LVL220:
	.loc 1 1903 0
	cmp	ebx, 255000
	ja	L164
	.loc 1 1906 0
	mov	edx, DWORD PTR [esp+60]
	mov	DWORD PTR [esp+16], edx
	mov	DWORD PTR [esp+12], eax
	mov	DWORD PTR [esp+8], ebx
	mov	DWORD PTR [esp+4], OFFSET FLAT:LC24
	mov	DWORD PTR [esp], OFFSET FLAT:LC2
	mov	DWORD PTR [esp+32], eax
	call	_purple_debug_info
LVL221:
	.loc 1 1908 0
	lea	edx, [esp+76]
	add	edx, DWORD PTR [esp+40]
	.loc 1 1897 0
	mov	ecx, DWORD PTR [esp+36]
	mov	WORD PTR [edx], cx
	.loc 1 1908 0
	mov	BYTE PTR [edx+2], -128
LVL222:
	.loc 1 1910 0
	mov	ecx, DWORD PTR [esp+40]
	lea	edx, [esp+79+ecx]
	mov	WORD PTR [edx], 265
	mov	DWORD PTR [edx+2], ebx
	mov	eax, DWORD PTR [esp+32]
	mov	DWORD PTR [edx+6], eax
	.loc 1 1911 0
	add	ecx, 13
	mov	DWORD PTR [esp+40], ecx
LVL223:
	jmp	L133
LVL224:
	.p2align 2,,3
L129:
LBE24:
LBE25:
LBE21:
	.loc 1 1936 0
	mov	DWORD PTR [esp+8], ebx
	mov	DWORD PTR [esp+4], OFFSET FLAT:LC28
	mov	DWORD PTR [esp], OFFSET FLAT:LC2
	call	_purple_debug_info
LVL225:
	.loc 1 1937 0
	mov	DWORD PTR [esp], ebx
	call	_purple_unescape_html
LVL226:
	mov	ebx, eax
LVL227:
	.loc 1 1943 0
	mov	DWORD PTR [esp+4], eax
	mov	DWORD PTR [esp], OFFSET FLAT:LC27
	call	_g_strdup_printf
LVL228:
	mov	esi, eax
LVL229:
	.loc 1 1945 0
	test	eax, eax
	je	L143
LVL230:
L138:
	.loc 1 1951 0 discriminator 1
	cmp	BYTE PTR [esi], 0
	je	L143
	.loc 1 1953 0
	xor	eax, eax
LVL231:
	mov	ecx, -1
	mov	edi, esi
	repne scasb
LVL232:
	not	ecx
	dec	ecx
	cmp	ecx, 1989
	jbe	L165
	.loc 1 1954 0
	mov	eax, -7
	.p2align 2,,3
L137:
LVL233:
	.loc 1 1962 0
	mov	DWORD PTR [esp], ebx
	mov	DWORD PTR [esp+32], eax
	call	_g_free
LVL234:
	.loc 1 1963 0
	mov	DWORD PTR [esp], esi
	call	_g_free
LVL235:
	mov	eax, DWORD PTR [esp+32]
	jmp	L128
LVL236:
	.p2align 2,,3
L131:
LBB27:
LBB26:
	.loc 1 1914 0
	mov	DWORD PTR [esp+4], OFFSET FLAT:LC25
	mov	DWORD PTR [esp], OFFSET FLAT:LC2
	call	_purple_debug_error
LVL237:
	jmp	L133
LVL238:
	.p2align 2,,3
L163:
LBE26:
	.loc 1 1923 0
	test	ebx, ebx
	je	L135
	.loc 1 1923 0 is_stmt 0 discriminator 1
	cmp	BYTE PTR [esi+1], 0
	jne	L166
LVL239:
L135:
	.loc 1 1930 0 is_stmt 1
	mov	BYTE PTR [esp+76], 2
	.loc 1 1929 0
	mov	eax, DWORD PTR [esp+40]
	sub	eax, 3
	mov	WORD PTR [esp+77], ax
	.loc 1 1932 0
	mov	edx, DWORD PTR [esp+52]
	mov	eax, DWORD PTR [edx]
	mov	DWORD PTR [esp+8], eax
	mov	DWORD PTR [esp+4], OFFSET FLAT:LC26
	mov	DWORD PTR [esp], OFFSET FLAT:LC2
	call	_purple_debug_info
LVL240:
	.loc 1 1933 0
	mov	ecx, DWORD PTR [esp+52]
	mov	eax, DWORD PTR [ecx]
	mov	DWORD PTR [esp], eax
	call	_purple_unescape_html
LVL241:
	mov	ebx, eax
LVL242:
	.loc 1 1934 0
	mov	DWORD PTR [esp+4], 1
	mov	eax, DWORD PTR [esp+52]
LVL243:
	mov	DWORD PTR [esp], eax
	call	_g_string_free
LVL244:
LBE27:
	.loc 1 1943 0
	mov	DWORD PTR [esp+4], ebx
	mov	DWORD PTR [esp], OFFSET FLAT:LC27
	call	_g_strdup_printf
LVL245:
	mov	esi, eax
LVL246:
	.loc 1 1945 0
	test	eax, eax
	je	L143
	.loc 1 1945 0 is_stmt 0 discriminator 1
	cmp	DWORD PTR [esp+40], 3
	je	L138
	.loc 1 1946 0 is_stmt 1
	mov	edx, DWORD PTR [esp+56]
	mov	DWORD PTR [esp], edx
	call	_ggp_str_to_uin
LVL247:
	mov	ecx, DWORD PTR [esp+40]
	mov	DWORD PTR [esp+20], ecx
	lea	edx, [esp+76]
	mov	DWORD PTR [esp+16], edx
	mov	DWORD PTR [esp+12], esi
	mov	DWORD PTR [esp+8], eax
	mov	DWORD PTR [esp+4], 8
	mov	edx, DWORD PTR [esp+48]
	mov	eax, DWORD PTR [edx]
	mov	DWORD PTR [esp], eax
	call	_gg_send_message_richtext
LVL248:
	.loc 1 1947 0
	sar	eax, 31
	or	eax, 1
	jmp	L137
LVL249:
	.p2align 2,,3
L143:
	.loc 1 1952 0
	xor	eax, eax
LVL250:
	jmp	L137
LVL251:
	.p2align 2,,3
L166:
LBB28:
	.loc 1 1925 0
	mov	DWORD PTR [esp+4], ebx
	mov	eax, DWORD PTR [esp+52]
	mov	DWORD PTR [esp], eax
	call	_g_string_append
LVL252:
	jmp	L135
LVL253:
	.p2align 2,,3
L165:
LBE28:
	.loc 1 1955 0
	mov	edx, DWORD PTR [esp+56]
	mov	DWORD PTR [esp], edx
	call	_ggp_str_to_uin
LVL254:
	mov	DWORD PTR [esp+12], esi
	mov	DWORD PTR [esp+8], eax
	mov	DWORD PTR [esp+4], 8
	mov	edx, DWORD PTR [esp+48]
	mov	eax, DWORD PTR [edx]
	mov	DWORD PTR [esp], eax
	call	_gg_send_message
LVL255:
	.loc 1 1957 0
	sar	eax, 31
	or	eax, 1
	jmp	L137
LVL256:
L162:
	.loc 1 1966 0
	call	___stack_chk_fail
LVL257:
	.cfi_endproc
LFE134:
	.section .rdata,"dr"
LC29:
	.ascii "gc == NULL\12\0"
LC30:
	.ascii "status_broadcasting\0"
LC31:
	.ascii "Connection closed.\12\0"
	.text
	.p2align 2,,3
	.def	_ggp_close;	.scl	3;	.type	32;	.endef
_ggp_close:
LFB133:
	.loc 1 1807 0
	.cfi_startproc
LVL258:
	push	edi
LCFI115:
	.cfi_def_cfa_offset 8
	.cfi_offset 7, -8
	push	esi
LCFI116:
	.cfi_def_cfa_offset 12
	.cfi_offset 6, -12
	push	ebx
LCFI117:
	.cfi_def_cfa_offset 16
	.cfi_offset 3, -16
	sub	esp, 32
LCFI118:
	.cfi_def_cfa_offset 48
	mov	ebx, DWORD PTR [esp+48]
	.loc 1 1807 0
	mov	eax, DWORD PTR ___stack_chk_guard
	mov	DWORD PTR [esp+28], eax
	xor	eax, eax
	.loc 1 1808 0
	test	ebx, ebx
	je	L179
	.loc 1 1813 0
	mov	esi, DWORD PTR [ebx+28]
	test	esi, esi
	je	L170
LBB29:
	.loc 1 1814 0
	mov	DWORD PTR [esp], ebx
	call	_purple_connection_get_account
LVL259:
	mov	edi, eax
LVL260:
	.loc 1 1816 0
	mov	esi, DWORD PTR [ebx+28]
LVL261:
	.loc 1 1818 0
	mov	eax, DWORD PTR [esi+32]
LVL262:
	test	eax, eax
	je	L171
	.loc 1 1819 0
	mov	DWORD PTR [esp], eax
	call	_purple_dnsquery_destroy
LVL263:
L171:
	.loc 1 1821 0
	mov	DWORD PTR [esp], edi
	call	_purple_account_get_active_status
LVL264:
	.loc 1 1823 0
	mov	ecx, DWORD PTR [esi]
	test	ecx, ecx
	je	L172
	.loc 1 1824 0
	mov	DWORD PTR [esp+4], eax
	mov	DWORD PTR [esp], edi
	call	_ggp_set_status
LVL265:
	.loc 1 1825 0
	mov	eax, DWORD PTR [esi]
	mov	DWORD PTR [esp], eax
	call	_gg_logoff
LVL266:
	.loc 1 1826 0
	mov	eax, DWORD PTR [esi]
	mov	DWORD PTR [esp], eax
	call	_gg_free_session
LVL267:
L172:
	.loc 1 1829 0
	mov	eax, DWORD PTR [esi+28]
	mov	DWORD PTR [esp+8], eax
	mov	DWORD PTR [esp+4], OFFSET FLAT:LC30
	mov	DWORD PTR [esp], edi
	call	_purple_account_set_bool
LVL268:
	.loc 1 1834 0
	mov	DWORD PTR [esp], ebx
	call	_purple_notify_close_with_handle
LVL269:
	.loc 1 1836 0
	mov	eax, DWORD PTR [esi+12]
	mov	DWORD PTR [esp], eax
	call	_ggp_search_destroy
LVL270:
	.loc 1 1837 0
	mov	eax, DWORD PTR [esi+20]
	mov	DWORD PTR [esp], eax
	call	_g_list_free
LVL271:
	.loc 1 1838 0
	mov	eax, DWORD PTR [esi+24]
	mov	DWORD PTR [esp], eax
	call	_g_hash_table_destroy
LVL272:
	.loc 1 1839 0
	mov	DWORD PTR [esp], esi
	call	_g_free
LVL273:
	.loc 1 1840 0
	mov	DWORD PTR [ebx+28], 0
LVL274:
L170:
LBE29:
	.loc 1 1843 0
	mov	eax, DWORD PTR [ebx+20]
	test	eax, eax
	jle	L173
	.loc 1 1844 0
	mov	DWORD PTR [esp], eax
	call	_purple_input_remove
LVL275:
L173:
	.loc 1 1846 0
	mov	DWORD PTR [esp+4], OFFSET FLAT:LC31
	mov	DWORD PTR [esp], OFFSET FLAT:LC2
	call	_purple_debug_info
LVL276:
L167:
	.loc 1 1847 0
	mov	eax, DWORD PTR [esp+28]
	xor	eax, DWORD PTR ___stack_chk_guard
	jne	L180
	add	esp, 32
LCFI119:
	.cfi_remember_state
	.cfi_def_cfa_offset 16
	pop	ebx
LCFI120:
	.cfi_restore 3
	.cfi_def_cfa_offset 12
	pop	esi
LCFI121:
	.cfi_restore 6
	.cfi_def_cfa_offset 8
	pop	edi
LCFI122:
	.cfi_restore 7
	.cfi_def_cfa_offset 4
	ret
	.p2align 2,,3
L179:
LCFI123:
	.cfi_restore_state
	.loc 1 1809 0
	mov	DWORD PTR [esp+4], OFFSET FLAT:LC29
	mov	DWORD PTR [esp], OFFSET FLAT:LC2
	call	_purple_debug_info
LVL277:
	.loc 1 1810 0
	jmp	L167
L180:
	.loc 1 1847 0
	call	___stack_chk_fail
LVL278:
	.cfi_endproc
LFE133:
	.section .rdata,"dr"
	.align 4
LC32:
	.ascii "Either the host name or port number specified for your given proxy type is invalid.\0"
LC33:
	.ascii "Invalid proxy settings\0"
	.text
	.p2align 2,,3
	.def	_ggp_setup_proxy;	.scl	3;	.type	32;	.endef
_ggp_setup_proxy:
LFB94:
	.loc 1 86 0
	.cfi_startproc
LVL279:
	push	ebx
LCFI124:
	.cfi_def_cfa_offset 8
	.cfi_offset 3, -8
	sub	esp, 56
LCFI125:
	.cfi_def_cfa_offset 64
	.loc 1 86 0
	mov	edx, DWORD PTR ___stack_chk_guard
	mov	DWORD PTR [esp+44], edx
	xor	edx, edx
	.loc 1 89 0
	mov	DWORD PTR [esp], eax
	call	_purple_proxy_get_setup
LVL280:
	mov	ebx, eax
LVL281:
	.loc 1 91 0
	mov	DWORD PTR [esp], eax
	call	_purple_proxy_info_get_type
LVL282:
	test	eax, eax
	je	L182
	.loc 1 92 0 discriminator 1
	mov	DWORD PTR [esp], ebx
	call	_purple_proxy_info_get_host
LVL283:
	.loc 1 91 0 discriminator 1
	test	eax, eax
	je	L185
	.loc 1 93 0
	mov	DWORD PTR [esp], ebx
	call	_purple_proxy_info_get_port
LVL284:
	.loc 1 92 0
	test	eax, eax
	jle	L185
L182:
	.loc 1 99 0
	mov	DWORD PTR [esp], ebx
	call	_purple_proxy_info_get_type
LVL285:
	test	eax, eax
	jne	L192
	.loc 1 106 0
	mov	DWORD PTR _gg_proxy_enabled, 0
	.loc 1 109 0
	xor	eax, eax
LVL286:
L184:
	.loc 1 110 0
	mov	edx, DWORD PTR [esp+44]
	xor	edx, DWORD PTR ___stack_chk_guard
	jne	L193
	add	esp, 56
LCFI126:
	.cfi_remember_state
	.cfi_def_cfa_offset 8
	pop	ebx
LCFI127:
	.cfi_restore 3
	.cfi_def_cfa_offset 4
	ret
LVL287:
	.p2align 2,,3
L192:
LCFI128:
	.cfi_restore_state
	.loc 1 100 0
	mov	DWORD PTR _gg_proxy_enabled, 1
	.loc 1 101 0
	mov	DWORD PTR [esp], ebx
	call	_purple_proxy_info_get_host
LVL288:
	mov	DWORD PTR [esp], eax
	call	_g_strdup
LVL289:
	mov	DWORD PTR _gg_proxy_host, eax
	.loc 1 102 0
	mov	DWORD PTR [esp], ebx
	call	_purple_proxy_info_get_port
LVL290:
	mov	DWORD PTR _gg_proxy_port, eax
	.loc 1 103 0
	mov	DWORD PTR [esp], ebx
	call	_purple_proxy_info_get_username
LVL291:
	mov	DWORD PTR [esp], eax
	call	_g_strdup
LVL292:
	mov	DWORD PTR _gg_proxy_username, eax
	.loc 1 104 0
	mov	DWORD PTR [esp], ebx
	call	_purple_proxy_info_get_password
LVL293:
	mov	DWORD PTR [esp], eax
	call	_g_strdup
LVL294:
	mov	DWORD PTR _gg_proxy_password, eax
	.loc 1 109 0
	xor	eax, eax
	jmp	L184
L185:
	.loc 1 95 0
	mov	DWORD PTR _gg_proxy_enabled, 0
	.loc 1 96 0
	mov	DWORD PTR [esp+4], OFFSET FLAT:LC32
	mov	DWORD PTR [esp], OFFSET FLAT:LC6
	call	_libintl_dgettext
LVL295:
	mov	ebx, eax
LVL296:
	mov	DWORD PTR [esp+4], OFFSET FLAT:LC33
	mov	DWORD PTR [esp], OFFSET FLAT:LC6
	call	_libintl_dgettext
LVL297:
	mov	DWORD PTR [esp+24], 0
	mov	DWORD PTR [esp+20], 0
	mov	DWORD PTR [esp+16], ebx
	mov	DWORD PTR [esp+12], eax
	mov	DWORD PTR [esp+8], 0
	mov	DWORD PTR [esp+4], 0
	mov	DWORD PTR [esp], 0
	call	_purple_notify_message
LVL298:
	.loc 1 98 0
	mov	eax, -1
	jmp	L184
L193:
	.loc 1 110 0
	call	___stack_chk_fail
LVL299:
	.cfi_endproc
LFE94:
	.section .rdata,"dr"
LC34:
	.ascii "GG_STATE_RESOLVING\12\0"
LC35:
	.ascii "GG_STATE_RESOLVING_GG\12\0"
LC36:
	.ascii "GG_STATE_CONNECTING_HUB\12\0"
LC37:
	.ascii "GG_STATE_READING_DATA\12\0"
LC38:
	.ascii "GG_STATE_CONNECTING_GG\12\0"
LC39:
	.ascii "GG_STATE_READING_KEY\12\0"
LC40:
	.ascii "GG_STATE_READING_REPLY\12\0"
LC41:
	.ascii "GG_STATE_TLS_NEGOTIATION\12\0"
LC42:
	.ascii "unknown state = %d\12\0"
	.align 4
LC43:
	.ascii "login_handler: gg_watch_fd failed!\12\0"
LC44:
	.ascii "Unable to read from socket\0"
	.align 4
LC45:
	.ascii "login_handler: session->fd = %d\12\0"
	.align 4
LC46:
	.ascii "login_handler: session: check = %d; state = %d;\12\0"
LC47:
	.ascii "GG_EVENT_NONE\12\0"
LC48:
	.ascii "GG_EVENT_CONN_SUCCESS\12\0"
LC49:
	.ascii "Connected\0"
LC50:
	.ascii "Connection failed\0"
LC51:
	.ascii "System message:\12%s\12\0"
	.align 4
LC52:
	.ascii "GG_EVENT_MSG: message from user %u unexpected while connecting:\12%s\12\0"
LC53:
	.ascii "strange event: %d\12\0"
	.align 4
LC54:
	.ascii "PURPLE_CONNECTION_IS_VALID(gc)\0"
	.text
	.p2align 2,,3
	.def	_ggp_async_login_handler;	.scl	3;	.type	32;	.endef
_ggp_async_login_handler:
LFB123:
	.loc 1 1420 0
	.cfi_startproc
LVL300:
	push	edi
LCFI129:
	.cfi_def_cfa_offset 8
	.cfi_offset 7, -8
	push	esi
LCFI130:
	.cfi_def_cfa_offset 12
	.cfi_offset 6, -12
	push	ebx
LCFI131:
	.cfi_def_cfa_offset 16
	.cfi_offset 3, -16
	sub	esp, 32
LCFI132:
	.cfi_def_cfa_offset 48
	mov	ebx, DWORD PTR [esp+48]
	.loc 1 1420 0
	mov	eax, DWORD PTR ___stack_chk_guard
	mov	DWORD PTR [esp+28], eax
	xor	eax, eax
LVL301:
LBB30:
	.loc 1 1425 0
	call	_purple_connections_get_all
LVL302:
	mov	DWORD PTR [esp+4], ebx
	mov	DWORD PTR [esp], eax
	call	_g_list_find
LVL303:
	test	eax, eax
	je	L234
LVL304:
LBE30:
	.loc 1 1427 0
	mov	esi, DWORD PTR [ebx+28]
LVL305:
	.loc 1 1430 0
	mov	eax, DWORD PTR [esi]
	.loc 1 1429 0
	mov	edx, DWORD PTR [eax+8]
	mov	DWORD PTR [esp+12], edx
	mov	eax, DWORD PTR [eax+4]
	mov	DWORD PTR [esp+8], eax
	mov	DWORD PTR [esp+4], OFFSET FLAT:LC46
	mov	DWORD PTR [esp], OFFSET FLAT:LC2
	call	_purple_debug_info
LVL306:
	.loc 1 1432 0
	mov	eax, DWORD PTR [esi]
	mov	eax, DWORD PTR [eax+8]
	cmp	eax, 43
	jbe	L235
L206:
	.loc 1 1458 0
	mov	DWORD PTR [esp+8], eax
	mov	DWORD PTR [esp+4], OFFSET FLAT:LC42
	mov	DWORD PTR [esp], OFFSET FLAT:LC2
	call	_purple_debug_error
LVL307:
	.p2align 2,,3
L198:
	.loc 1 1463 0
	mov	eax, DWORD PTR [esi]
	mov	DWORD PTR [esp], eax
	call	_gg_watch_fd
LVL308:
	mov	edi, eax
LVL309:
	test	eax, eax
	je	L236
L207:
	.loc 1 1470 0
	mov	eax, DWORD PTR [esi]
LVL310:
	mov	eax, DWORD PTR [eax]
	mov	DWORD PTR [esp+8], eax
	mov	DWORD PTR [esp+4], OFFSET FLAT:LC45
	mov	DWORD PTR [esp], OFFSET FLAT:LC2
	call	_purple_debug_info
LVL311:
	.loc 1 1472 0
	mov	eax, DWORD PTR [esi]
	.loc 1 1471 0
	mov	edx, DWORD PTR [eax+8]
	mov	DWORD PTR [esp+12], edx
	mov	eax, DWORD PTR [eax+4]
	mov	DWORD PTR [esp+8], eax
	mov	DWORD PTR [esp+4], OFFSET FLAT:LC46
	mov	DWORD PTR [esp], OFFSET FLAT:LC2
	call	_purple_debug_info
LVL312:
	.loc 1 1474 0
	mov	eax, DWORD PTR [ebx+20]
	mov	DWORD PTR [esp], eax
	call	_purple_input_remove
LVL313:
	.loc 1 1477 0
	mov	eax, DWORD PTR [esi]
	mov	edx, DWORD PTR [eax]
	test	edx, edx
	js	L209
	.loc 1 1479 0
	mov	ecx, DWORD PTR [eax+4]
LVL314:
	.loc 1 70 0
	mov	eax, ecx
	shr	eax
	.loc 1 68 0
	and	eax, 1
LVL315:
LBB31:
LBB32:
	.loc 1 72 0
	and	ecx, 1
LVL316:
	je	L210
	.loc 1 73 0
	or	eax, 2
LVL317:
L210:
LBE32:
LBE31:
	.loc 1 1478 0
	mov	DWORD PTR [esp+12], ebx
	mov	DWORD PTR [esp+8], OFFSET FLAT:_ggp_async_login_handler
	mov	DWORD PTR [esp+4], eax
	mov	DWORD PTR [esp], edx
	call	_purple_input_add
LVL318:
	mov	DWORD PTR [ebx+20], eax
L209:
	.loc 1 1482 0
	mov	eax, DWORD PTR [edi]
	cmp	eax, 1
	je	L213
	jle	L237
	cmp	eax, 7
	je	L214
	cmp	eax, 8
	je	L238
L211:
	.loc 1 1519 0
	mov	DWORD PTR [esp+8], eax
	mov	DWORD PTR [esp+4], OFFSET FLAT:LC53
	mov	DWORD PTR [esp], OFFSET FLAT:LC2
	call	_purple_debug_error
LVL319:
L217:
	.loc 1 1523 0
	mov	eax, DWORD PTR [esp+28]
	xor	eax, DWORD PTR ___stack_chk_guard
	jne	L233
	mov	DWORD PTR [esp+48], edi
	.loc 1 1524 0
	add	esp, 32
LCFI133:
	.cfi_remember_state
	.cfi_def_cfa_offset 16
	pop	ebx
LCFI134:
	.cfi_restore 3
	.cfi_def_cfa_offset 12
LVL320:
	pop	esi
LCFI135:
	.cfi_restore 6
	.cfi_def_cfa_offset 8
LVL321:
	pop	edi
LCFI136:
	.cfi_restore 7
	.cfi_def_cfa_offset 4
LVL322:
	.loc 1 1523 0
	jmp	_gg_event_free
LVL323:
	.p2align 2,,3
L235:
LCFI137:
	.cfi_restore_state
	.loc 1 1432 0
	jmp	[DWORD PTR L222[0+eax*4]]
	.section .rdata,"dr"
	.align 4
L222:
	.long	L206
	.long	L197
	.long	L206
	.long	L201
	.long	L206
	.long	L200
	.long	L202
	.long	L203
	.long	L204
	.long	L206
	.long	L206
	.long	L206
	.long	L206
	.long	L206
	.long	L206
	.long	L206
	.long	L206
	.long	L206
	.long	L206
	.long	L206
	.long	L206
	.long	L206
	.long	L206
	.long	L206
	.long	L206
	.long	L206
	.long	L206
	.long	L206
	.long	L206
	.long	L206
	.long	L206
	.long	L206
	.long	L206
	.long	L206
	.long	L206
	.long	L206
	.long	L206
	.long	L205
	.long	L206
	.long	L206
	.long	L206
	.long	L206
	.long	L206
	.long	L199
	.text
	.p2align 2,,3
L199:
	.loc 1 1437 0
	mov	DWORD PTR [esp+4], OFFSET FLAT:LC35
	mov	DWORD PTR [esp], OFFSET FLAT:LC2
	call	_purple_debug_info
LVL324:
	.loc 1 1463 0
	mov	eax, DWORD PTR [esi]
	mov	DWORD PTR [esp], eax
	call	_gg_watch_fd
LVL325:
	mov	edi, eax
LVL326:
	test	eax, eax
	jne	L207
	.p2align 2,,3
L236:
	.loc 1 1464 0
	mov	DWORD PTR [esp+4], OFFSET FLAT:LC43
	mov	DWORD PTR [esp], OFFSET FLAT:LC2
	call	_purple_debug_error
LVL327:
	.loc 1 1467 0
	mov	DWORD PTR [esp+4], OFFSET FLAT:LC44
	mov	DWORD PTR [esp], OFFSET FLAT:LC6
	call	_libintl_dgettext
LVL328:
	.loc 1 1465 0
	mov	edx, DWORD PTR [esp+28]
	xor	edx, DWORD PTR ___stack_chk_guard
	jne	L233
	mov	DWORD PTR [esp+56], eax
	mov	DWORD PTR [esp+52], 0
	mov	DWORD PTR [esp+48], ebx
	.loc 1 1524 0
	add	esp, 32
LCFI138:
	.cfi_remember_state
	.cfi_def_cfa_offset 16
	pop	ebx
LCFI139:
	.cfi_restore 3
	.cfi_def_cfa_offset 12
LVL329:
	pop	esi
LCFI140:
	.cfi_restore 6
	.cfi_def_cfa_offset 8
LVL330:
	pop	edi
LCFI141:
	.cfi_restore 7
	.cfi_def_cfa_offset 4
LVL331:
	.loc 1 1465 0
	jmp	_purple_connection_error_reason
LVL332:
	.p2align 2,,3
L205:
LCFI142:
	.cfi_restore_state
	.loc 1 1455 0
	mov	DWORD PTR [esp+4], OFFSET FLAT:LC41
	mov	DWORD PTR [esp], OFFSET FLAT:LC2
	call	_purple_debug_info
LVL333:
	.loc 1 1456 0
	jmp	L198
	.p2align 2,,3
L204:
	.loc 1 1452 0
	mov	DWORD PTR [esp+4], OFFSET FLAT:LC40
	mov	DWORD PTR [esp], OFFSET FLAT:LC2
	call	_purple_debug_info
LVL334:
	.loc 1 1453 0
	jmp	L198
	.p2align 2,,3
L203:
	.loc 1 1449 0
	mov	DWORD PTR [esp+4], OFFSET FLAT:LC39
	mov	DWORD PTR [esp], OFFSET FLAT:LC2
	call	_purple_debug_info
LVL335:
	.loc 1 1450 0
	jmp	L198
	.p2align 2,,3
L202:
	.loc 1 1446 0
	mov	DWORD PTR [esp+4], OFFSET FLAT:LC38
	mov	DWORD PTR [esp], OFFSET FLAT:LC2
	call	_purple_debug_info
LVL336:
	.loc 1 1447 0
	jmp	L198
	.p2align 2,,3
L200:
	.loc 1 1440 0
	mov	DWORD PTR [esp+4], OFFSET FLAT:LC36
	mov	DWORD PTR [esp], OFFSET FLAT:LC2
	call	_purple_debug_info
LVL337:
	.loc 1 1441 0
	jmp	L198
	.p2align 2,,3
L201:
	.loc 1 1443 0
	mov	DWORD PTR [esp+4], OFFSET FLAT:LC37
	mov	DWORD PTR [esp], OFFSET FLAT:LC2
	call	_purple_debug_info
LVL338:
	.loc 1 1444 0
	jmp	L198
	.p2align 2,,3
L197:
	.loc 1 1434 0
	mov	DWORD PTR [esp+4], OFFSET FLAT:LC34
	mov	DWORD PTR [esp], OFFSET FLAT:LC2
	call	_purple_debug_info
LVL339:
	.loc 1 1435 0
	jmp	L198
LVL340:
	.p2align 2,,3
L238:
	.loc 1 1489 0
	mov	DWORD PTR [esp+4], OFFSET FLAT:LC48
	mov	DWORD PTR [esp], OFFSET FLAT:LC2
	call	_purple_debug_info
LVL341:
	.loc 1 1490 0
	mov	eax, DWORD PTR [ebx+20]
	mov	DWORD PTR [esp], eax
	call	_purple_input_remove
LVL342:
	.loc 1 1492 0
	mov	edx, DWORD PTR [esi]
	mov	ecx, DWORD PTR [edx+4]
LVL343:
	.loc 1 70 0
	mov	eax, ecx
	shr	eax
	.loc 1 68 0
	and	eax, 1
LVL344:
LBB33:
LBB34:
	.loc 1 72 0
	and	ecx, 1
LVL345:
	je	L218
	.loc 1 73 0
	or	eax, 2
LVL346:
L218:
LBE34:
LBE33:
	.loc 1 1491 0
	mov	DWORD PTR [esp+12], ebx
	mov	DWORD PTR [esp+8], OFFSET FLAT:_ggp_callback_recv
	mov	DWORD PTR [esp+4], eax
	mov	eax, DWORD PTR [edx]
LVL347:
	mov	DWORD PTR [esp], eax
	call	_purple_input_add
LVL348:
	mov	DWORD PTR [ebx+20], eax
	.loc 1 1495 0
	mov	DWORD PTR [esp], ebx
	call	_ggp_buddylist_send
LVL349:
	.loc 1 1496 0
	mov	DWORD PTR [esp+4], OFFSET FLAT:LC49
	mov	DWORD PTR [esp], OFFSET FLAT:LC6
	call	_libintl_dgettext
LVL350:
	mov	DWORD PTR [esp+12], 2
	mov	DWORD PTR [esp+8], 1
	mov	DWORD PTR [esp+4], eax
	mov	DWORD PTR [esp], ebx
	call	_purple_connection_update_progress
LVL351:
	.loc 1 1497 0
	mov	DWORD PTR [esp+4], 1
	mov	DWORD PTR [esp], ebx
	call	_purple_connection_set_state
LVL352:
	.loc 1 1499 0
	jmp	L217
	.p2align 2,,3
L214:
	.loc 1 1501 0
	mov	eax, DWORD PTR [ebx+20]
	mov	DWORD PTR [esp], eax
	call	_purple_input_remove
LVL353:
	.loc 1 1502 0
	mov	DWORD PTR [ebx+20], 0
	.loc 1 1505 0
	mov	DWORD PTR [esp+4], OFFSET FLAT:LC50
	mov	DWORD PTR [esp], OFFSET FLAT:LC6
	call	_libintl_dgettext
LVL354:
	.loc 1 1503 0
	mov	DWORD PTR [esp+8], eax
	mov	DWORD PTR [esp+4], 0
	mov	DWORD PTR [esp], ebx
	call	_purple_connection_error_reason
LVL355:
	.loc 1 1506 0
	jmp	L217
	.p2align 2,,3
L213:
	.loc 1 1508 0
	mov	eax, DWORD PTR [edi+4]
	test	eax, eax
	jne	L219
	.loc 1 1510 0
	mov	eax, DWORD PTR [edi+16]
	mov	DWORD PTR [esp+8], eax
	mov	DWORD PTR [esp+4], OFFSET FLAT:LC51
	mov	DWORD PTR [esp], OFFSET FLAT:LC2
	call	_purple_debug_info
LVL356:
	jmp	L217
LVL357:
	.p2align 2,,3
L234:
	.loc 1 1425 0
	mov	edx, DWORD PTR [esp+28]
	xor	edx, DWORD PTR ___stack_chk_guard
	jne	L233
	mov	DWORD PTR [esp+56], OFFSET FLAT:LC54
	mov	DWORD PTR [esp+52], OFFSET FLAT:___PRETTY_FUNCTION__.45985
	mov	DWORD PTR [esp+48], 0
	.loc 1 1524 0
	add	esp, 32
LCFI143:
	.cfi_remember_state
	.cfi_def_cfa_offset 16
	pop	ebx
LCFI144:
	.cfi_restore 3
	.cfi_def_cfa_offset 12
LVL358:
	pop	esi
LCFI145:
	.cfi_restore 6
	.cfi_def_cfa_offset 8
	pop	edi
LCFI146:
	.cfi_restore 7
	.cfi_def_cfa_offset 4
	.loc 1 1425 0
	jmp	_g_return_if_fail_warning
LVL359:
	.p2align 2,,3
L237:
LCFI147:
	.cfi_restore_state
	.loc 1 1482 0
	test	eax, eax
	jne	L211
	.loc 1 1485 0
	mov	DWORD PTR [esp+4], OFFSET FLAT:LC47
	mov	DWORD PTR [esp], OFFSET FLAT:LC2
	call	_purple_debug_info
LVL360:
	.loc 1 1486 0
	jmp	L217
	.p2align 2,,3
L219:
	.loc 1 1513 0
	mov	edx, DWORD PTR [edi+16]
	mov	DWORD PTR [esp+12], edx
	mov	DWORD PTR [esp+8], eax
	mov	DWORD PTR [esp+4], OFFSET FLAT:LC52
	mov	DWORD PTR [esp], OFFSET FLAT:LC2
	call	_purple_debug_warning
LVL361:
	jmp	L217
LVL362:
L233:
	.loc 1 1425 0
	call	___stack_chk_fail
LVL363:
	.cfi_endproc
LFE123:
	.section .rdata,"dr"
LC55:
	.ascii "Chat _name:\0"
	.text
	.p2align 2,,3
	.def	_ggp_chat_info;	.scl	3;	.type	32;	.endef
_ggp_chat_info:
LFB129:
	.loc 1 1664 0
	.cfi_startproc
LVL364:
	push	ebx
LCFI148:
	.cfi_def_cfa_offset 8
	.cfi_offset 3, -8
	sub	esp, 40
LCFI149:
	.cfi_def_cfa_offset 48
	.loc 1 1664 0
	mov	eax, DWORD PTR ___stack_chk_guard
	mov	DWORD PTR [esp+28], eax
	xor	eax, eax
LVL365:
	.loc 1 1668 0
	mov	DWORD PTR [esp], 28
	call	_g_malloc0
LVL366:
	mov	ebx, eax
LVL367:
	.loc 1 1669 0
	mov	DWORD PTR [esp+4], OFFSET FLAT:LC55
	mov	DWORD PTR [esp], OFFSET FLAT:LC6
	call	_libintl_dgettext
LVL368:
	mov	DWORD PTR [ebx], eax
	.loc 1 1670 0
	mov	DWORD PTR [ebx+4], OFFSET FLAT:LC3
	.loc 1 1671 0
	mov	DWORD PTR [ebx+8], 1
	.loc 1 1672 0
	mov	DWORD PTR [esp+4], ebx
	mov	DWORD PTR [esp], 0
	call	_g_list_append
LVL369:
	.loc 1 1675 0
	mov	edx, DWORD PTR [esp+28]
	xor	edx, DWORD PTR ___stack_chk_guard
	jne	L242
	add	esp, 40
LCFI150:
	.cfi_remember_state
	.cfi_def_cfa_offset 8
	pop	ebx
LCFI151:
	.cfi_restore 3
	.cfi_def_cfa_offset 4
LVL370:
	ret
LVL371:
L242:
LCFI152:
	.cfi_restore_state
	call	___stack_chk_fail
LVL372:
	.cfi_endproc
LFE129:
	.section .rdata,"dr"
	.align 4
LC56:
	.ascii "ggp_callback_show_next(): Removed seq %u\12\0"
	.align 4
LC57:
	.ascii "ggp_callback_show_next(): Added seq %u\12\0"
	.text
	.p2align 2,,3
	.def	_ggp_callback_show_next;	.scl	3;	.type	32;	.endef
_ggp_callback_show_next:
LFB99:
	.loc 1 207 0
	.cfi_startproc
LVL373:
	push	edi
LCFI153:
	.cfi_def_cfa_offset 8
	.cfi_offset 7, -8
	push	esi
LCFI154:
	.cfi_def_cfa_offset 12
	.cfi_offset 6, -12
	push	ebx
LCFI155:
	.cfi_def_cfa_offset 16
	.cfi_offset 3, -16
	sub	esp, 32
LCFI156:
	.cfi_def_cfa_offset 48
	mov	edi, DWORD PTR [esp+48]
	mov	ebx, DWORD PTR [esp+56]
	.loc 1 207 0
	mov	eax, DWORD PTR ___stack_chk_guard
	mov	DWORD PTR [esp+28], eax
	xor	eax, eax
	.loc 1 208 0
	mov	esi, DWORD PTR [edi+28]
LVL374:
	.loc 1 212 0
	inc	WORD PTR [ebx+40]
	.loc 1 214 0
	mov	eax, DWORD PTR [ebx+36]
	mov	DWORD PTR [esp+4], eax
	mov	eax, DWORD PTR [esi+12]
	mov	DWORD PTR [esp], eax
	call	_ggp_search_remove
LVL375:
	.loc 1 215 0
	mov	eax, DWORD PTR [ebx+36]
	mov	DWORD PTR [esp+8], eax
	mov	DWORD PTR [esp+4], OFFSET FLAT:LC56
	mov	DWORD PTR [esp], OFFSET FLAT:LC2
	call	_purple_debug_info
LVL376:
	.loc 1 218 0
	mov	DWORD PTR [esp+4], ebx
	mov	DWORD PTR [esp], edi
	call	_ggp_search_start
LVL377:
	mov	edi, eax
LVL378:
	.loc 1 219 0
	mov	DWORD PTR [esp+8], ebx
	mov	DWORD PTR [esp+4], eax
	mov	eax, DWORD PTR [esi+12]
LVL379:
	mov	DWORD PTR [esp], eax
	call	_ggp_search_add
LVL380:
	.loc 1 220 0
	mov	eax, DWORD PTR [esp+28]
	xor	eax, DWORD PTR ___stack_chk_guard
	jne	L247
	mov	DWORD PTR [esp+56], edi
	mov	DWORD PTR [esp+52], OFFSET FLAT:LC57
	mov	DWORD PTR [esp+48], OFFSET FLAT:LC2
	.loc 1 222 0
	add	esp, 32
LCFI157:
	.cfi_remember_state
	.cfi_def_cfa_offset 16
	pop	ebx
LCFI158:
	.cfi_restore 3
	.cfi_def_cfa_offset 12
LVL381:
	pop	esi
LCFI159:
	.cfi_restore 6
	.cfi_def_cfa_offset 8
LVL382:
	pop	edi
LCFI160:
	.cfi_restore 7
	.cfi_def_cfa_offset 4
LVL383:
	.loc 1 220 0
	jmp	_purple_debug_info
LVL384:
L247:
LCFI161:
	.cfi_restore_state
	call	___stack_chk_fail
LVL385:
	.cfi_endproc
LFE99:
	.section .rdata,"dr"
	.align 4
LC58:
	.ascii "ggp_sr_close_cb(): Removed seq %u\12\0"
	.text
	.p2align 2,,3
	.def	_ggp_sr_close_cb;	.scl	3;	.type	32;	.endef
_ggp_sr_close_cb:
LFB112:
	.loc 1 730 0
	.cfi_startproc
LVL386:
	push	ebx
LCFI162:
	.cfi_def_cfa_offset 8
	.cfi_offset 3, -8
	sub	esp, 40
LCFI163:
	.cfi_def_cfa_offset 48
	mov	ebx, DWORD PTR [esp+48]
	.loc 1 730 0
	mov	eax, DWORD PTR ___stack_chk_guard
	mov	DWORD PTR [esp+28], eax
	xor	eax, eax
LVL387:
	.loc 1 734 0
	mov	eax, DWORD PTR [ebx+36]
	mov	DWORD PTR [esp+4], eax
	mov	eax, DWORD PTR [ebx+44]
	mov	eax, DWORD PTR [eax+12]
	mov	DWORD PTR [esp], eax
	call	_ggp_search_remove
LVL388:
	.loc 1 735 0
	mov	eax, DWORD PTR [ebx+36]
	mov	DWORD PTR [esp+8], eax
	mov	DWORD PTR [esp+4], OFFSET FLAT:LC58
	mov	DWORD PTR [esp], OFFSET FLAT:LC2
	call	_purple_debug_info
LVL389:
	.loc 1 737 0
	mov	eax, DWORD PTR [esp+28]
	xor	eax, DWORD PTR ___stack_chk_guard
	jne	L252
	mov	DWORD PTR [esp+48], ebx
	.loc 1 738 0
	add	esp, 40
LCFI164:
	.cfi_remember_state
	.cfi_def_cfa_offset 8
	pop	ebx
LCFI165:
	.cfi_restore 3
	.cfi_def_cfa_offset 4
LVL390:
	.loc 1 737 0
	jmp	_ggp_search_form_destroy
LVL391:
L252:
LCFI166:
	.cfi_restore_state
	call	___stack_chk_fail
LVL392:
	.cfi_endproc
LFE112:
	.p2align 2,,3
	.def	_ggp_status_text;	.scl	3;	.type	32;	.endef
_ggp_status_text:
LFB125:
	.loc 1 1536 0
	.cfi_startproc
LVL393:
	push	ebx
LCFI167:
	.cfi_def_cfa_offset 8
	.cfi_offset 3, -8
	sub	esp, 56
LCFI168:
	.cfi_def_cfa_offset 64
	.loc 1 1536 0
	mov	eax, DWORD PTR ___stack_chk_guard
	mov	DWORD PTR [esp+44], eax
	xor	eax, eax
	.loc 1 1543 0
	mov	eax, DWORD PTR [esp+64]
	mov	DWORD PTR [esp], eax
	call	_purple_buddy_get_presence
LVL394:
	.loc 1 1542 0
	mov	DWORD PTR [esp], eax
	call	_purple_presence_get_active_status
LVL395:
	.loc 1 1544 0
	mov	DWORD PTR [esp+4], OFFSET FLAT:LC15
	mov	DWORD PTR [esp], eax
	call	_purple_status_get_attr_string
LVL396:
	.loc 1 1546 0
	test	eax, eax
	je	L256
	.loc 1 1549 0
	mov	DWORD PTR [esp], eax
	call	_purple_markup_strip_html
LVL397:
	mov	ebx, eax
LVL398:
	.loc 1 1550 0
	mov	DWORD PTR [esp+4], -1
	mov	DWORD PTR [esp], eax
	call	_g_markup_escape_text
LVL399:
	.loc 1 1551 0
	mov	DWORD PTR [esp], ebx
	mov	DWORD PTR [esp+28], eax
	call	_g_free
LVL400:
	.loc 1 1553 0
	mov	eax, DWORD PTR [esp+28]
LVL401:
L254:
	.loc 1 1554 0
	mov	edx, DWORD PTR [esp+44]
	xor	edx, DWORD PTR ___stack_chk_guard
	jne	L258
	add	esp, 56
LCFI169:
	.cfi_remember_state
	.cfi_def_cfa_offset 8
	pop	ebx
LCFI170:
	.cfi_restore 3
	.cfi_def_cfa_offset 4
	ret
LVL402:
	.p2align 2,,3
L256:
LCFI171:
	.cfi_restore_state
	.loc 1 1547 0
	xor	eax, eax
LVL403:
	jmp	L254
L258:
	.loc 1 1554 0
	call	___stack_chk_fail
LVL404:
	.cfi_endproc
LFE125:
	.p2align 2,,3
	.def	_ggp_callback_im;	.scl	3;	.type	32;	.endef
_ggp_callback_im:
LFB101:
	.loc 1 231 0
	.cfi_startproc
LVL405:
	push	esi
LCFI172:
	.cfi_def_cfa_offset 8
	.cfi_offset 6, -8
	push	ebx
LCFI173:
	.cfi_def_cfa_offset 12
	.cfi_offset 3, -12
	sub	esp, 36
LCFI174:
	.cfi_def_cfa_offset 48
	mov	esi, DWORD PTR [esp+52]
	.loc 1 231 0
	mov	eax, DWORD PTR ___stack_chk_guard
	mov	DWORD PTR [esp+28], eax
	xor	eax, eax
	.loc 1 236 0
	mov	eax, DWORD PTR [esp+48]
	mov	DWORD PTR [esp], eax
	call	_purple_connection_get_account
LVL406:
	mov	ebx, eax
LVL407:
	.loc 1 238 0
	mov	DWORD PTR [esp+4], 0
	mov	DWORD PTR [esp], esi
	call	_g_list_nth_data
LVL408:
	.loc 1 239 0
	mov	DWORD PTR [esp+8], eax
	mov	DWORD PTR [esp+4], ebx
	mov	DWORD PTR [esp], 1
	call	_purple_conversation_new
LVL409:
	.loc 1 240 0
	mov	edx, DWORD PTR [esp+28]
	xor	edx, DWORD PTR ___stack_chk_guard
	jne	L263
	mov	DWORD PTR [esp+48], eax
	.loc 1 241 0
	add	esp, 36
LCFI175:
	.cfi_remember_state
	.cfi_def_cfa_offset 12
	pop	ebx
LCFI176:
	.cfi_restore 3
	.cfi_def_cfa_offset 8
LVL410:
	pop	esi
LCFI177:
	.cfi_restore 6
	.cfi_def_cfa_offset 4
	.loc 1 240 0
	jmp	_purple_conversation_present
LVL411:
L263:
LCFI178:
	.cfi_restore_state
	call	___stack_chk_fail
LVL412:
	.cfi_endproc
LFE101:
	.p2align 2,,3
	.def	_ggp_callback_add_buddy;	.scl	3;	.type	32;	.endef
_ggp_callback_add_buddy:
LFB100:
	.loc 1 225 0
	.cfi_startproc
LVL413:
	push	esi
LCFI179:
	.cfi_def_cfa_offset 8
	.cfi_offset 6, -8
	push	ebx
LCFI180:
	.cfi_def_cfa_offset 12
	.cfi_offset 3, -12
	sub	esp, 36
LCFI181:
	.cfi_def_cfa_offset 48
	mov	esi, DWORD PTR [esp+48]
	.loc 1 225 0
	mov	eax, DWORD PTR ___stack_chk_guard
	mov	DWORD PTR [esp+28], eax
	xor	eax, eax
	.loc 1 227 0
	mov	DWORD PTR [esp+4], 0
	mov	eax, DWORD PTR [esp+52]
	mov	DWORD PTR [esp], eax
	call	_g_list_nth_data
LVL414:
	mov	ebx, eax
	.loc 1 226 0
	mov	DWORD PTR [esp], esi
	call	_purple_connection_get_account
LVL415:
	mov	DWORD PTR [esp+12], 0
	mov	DWORD PTR [esp+8], 0
	mov	DWORD PTR [esp+4], ebx
	mov	DWORD PTR [esp], eax
	call	_purple_blist_request_add_buddy
LVL416:
	.loc 1 228 0
	mov	eax, DWORD PTR [esp+28]
	xor	eax, DWORD PTR ___stack_chk_guard
	jne	L267
	add	esp, 36
LCFI182:
	.cfi_remember_state
	.cfi_def_cfa_offset 12
	pop	ebx
LCFI183:
	.cfi_restore 3
	.cfi_def_cfa_offset 8
	pop	esi
LCFI184:
	.cfi_restore 6
	.cfi_def_cfa_offset 4
	ret
L267:
LCFI185:
	.cfi_restore_state
	call	___stack_chk_fail
LVL417:
	.cfi_endproc
LFE100:
	.section .rdata,"dr"
LC59:
	.ascii "Chat name\0"
LC60:
	.ascii "Select a chat for buddy: %s\0"
LC61:
	.ascii "Cancel\0"
LC62:
	.ascii "Add\0"
LC63:
	.ascii "Add to chat...\0"
	.text
	.p2align 2,,3
	.def	_ggp_bmenu_add_to_chat;	.scl	3;	.type	32;	.endef
_ggp_bmenu_add_to_chat:
LFB107:
	.loc 1 421 0
	.cfi_startproc
LVL418:
	push	ebp
LCFI186:
	.cfi_def_cfa_offset 8
	.cfi_offset 5, -8
	push	edi
LCFI187:
	.cfi_def_cfa_offset 12
	.cfi_offset 7, -12
	push	esi
LCFI188:
	.cfi_def_cfa_offset 16
	.cfi_offset 6, -16
	push	ebx
LCFI189:
	.cfi_def_cfa_offset 20
	.cfi_offset 3, -20
	sub	esp, 108
LCFI190:
	.cfi_def_cfa_offset 128
	mov	edi, DWORD PTR [esp+128]
	.loc 1 421 0
	mov	eax, DWORD PTR ___stack_chk_guard
	mov	DWORD PTR [esp+92], eax
	xor	eax, eax
LVL419:
	.loc 1 434 0
	mov	DWORD PTR [esp], edi
	call	_purple_buddy_get_account
LVL420:
	mov	DWORD PTR [esp], eax
	call	_purple_account_get_connection
LVL421:
	mov	esi, eax
LVL422:
	.loc 1 435 0
	mov	ebp, DWORD PTR [eax+28]
LVL423:
	.loc 1 437 0
	call	_purple_request_fields_new
LVL424:
	mov	DWORD PTR [esp+76], eax
LVL425:
	.loc 1 438 0
	mov	DWORD PTR [esp], 0
	call	_purple_request_field_group_new
LVL426:
	mov	DWORD PTR [esp+72], eax
LVL427:
	.loc 1 439 0
	mov	DWORD PTR [esp+4], eax
	mov	eax, DWORD PTR [esp+76]
LVL428:
	mov	DWORD PTR [esp], eax
	call	_purple_request_fields_add_group
LVL429:
	.loc 1 441 0
	mov	DWORD PTR [esp+4], OFFSET FLAT:LC59
	mov	DWORD PTR [esp], OFFSET FLAT:LC3
	call	_purple_request_field_list_new
LVL430:
	mov	ebx, eax
LVL431:
	.loc 1 442 0
	mov	ebp, DWORD PTR [ebp+8]
LVL432:
	test	ebp, ebp
	je	L272
LVL433:
	.p2align 2,,3
L274:
LBB35:
	.loc 1 444 0 discriminator 2
	mov	eax, DWORD PTR [ebp+0]
	mov	eax, DWORD PTR [eax]
	mov	DWORD PTR [esp+8], eax
	mov	DWORD PTR [esp+4], eax
	mov	DWORD PTR [esp], ebx
	call	_purple_request_field_list_add
LVL434:
LBE35:
	.loc 1 442 0 discriminator 2
	mov	ebp, DWORD PTR [ebp+4]
LVL435:
	test	ebp, ebp
	jne	L274
L272:
	.loc 1 446 0
	mov	DWORD PTR [esp+4], ebx
	mov	eax, DWORD PTR [esp+72]
	mov	DWORD PTR [esp], eax
	call	_purple_request_field_group_add_field
LVL436:
	.loc 1 448 0
	mov	DWORD PTR [esp], edi
	call	_purple_buddy_get_alias
LVL437:
	mov	ebx, eax
LVL438:
	mov	DWORD PTR [esp+4], OFFSET FLAT:LC60
	mov	DWORD PTR [esp], OFFSET FLAT:LC6
	call	_libintl_dgettext
LVL439:
	mov	DWORD PTR [esp+4], ebx
	mov	DWORD PTR [esp], eax
	call	_g_strdup_printf
LVL440:
	mov	ebx, eax
LVL441:
	.loc 1 450 0
	mov	DWORD PTR [esp], esi
	call	_purple_connection_get_account
LVL442:
	.loc 1 456 0
	mov	DWORD PTR [esp+4], OFFSET FLAT:LC61
	mov	DWORD PTR [esp], OFFSET FLAT:LC6
	mov	DWORD PTR [esp+64], eax
	call	_libintl_dgettext
LVL443:
	.loc 1 455 0
	mov	DWORD PTR [esp+4], OFFSET FLAT:LC62
	mov	DWORD PTR [esp], OFFSET FLAT:LC6
	mov	DWORD PTR [esp+68], eax
	call	_libintl_dgettext
LVL444:
	mov	DWORD PTR [esp+72], eax
	.loc 1 452 0
	mov	DWORD PTR [esp+4], OFFSET FLAT:LC63
	mov	DWORD PTR [esp], OFFSET FLAT:LC6
	call	_libintl_dgettext
LVL445:
	mov	ebp, eax
LVL446:
	.loc 1 451 0
	mov	DWORD PTR [esp+4], OFFSET FLAT:LC63
	mov	DWORD PTR [esp], OFFSET FLAT:LC6
	call	_libintl_dgettext
LVL447:
	.loc 1 450 0
	mov	DWORD PTR [esp+48], edi
	mov	DWORD PTR [esp+44], 0
	mov	DWORD PTR [esp+40], 0
	mov	edx, DWORD PTR [esp+64]
	mov	DWORD PTR [esp+36], edx
	mov	DWORD PTR [esp+32], 0
	mov	ecx, DWORD PTR [esp+68]
	mov	DWORD PTR [esp+28], ecx
	mov	DWORD PTR [esp+24], OFFSET FLAT:_ggp_callback_add_to_chat_ok
	mov	edx, DWORD PTR [esp+72]
	mov	DWORD PTR [esp+20], edx
	mov	edx, DWORD PTR [esp+76]
	mov	DWORD PTR [esp+16], edx
	mov	DWORD PTR [esp+12], ebx
	mov	DWORD PTR [esp+8], ebp
	mov	DWORD PTR [esp+4], eax
	mov	DWORD PTR [esp], esi
	call	_purple_request_fields
LVL448:
	.loc 1 459 0
	mov	eax, DWORD PTR [esp+92]
	xor	eax, DWORD PTR ___stack_chk_guard
	jne	L278
	mov	DWORD PTR [esp+128], ebx
	.loc 1 460 0
	add	esp, 108
LCFI191:
	.cfi_remember_state
	.cfi_def_cfa_offset 20
	pop	ebx
LCFI192:
	.cfi_restore 3
	.cfi_def_cfa_offset 16
LVL449:
	pop	esi
LCFI193:
	.cfi_restore 6
	.cfi_def_cfa_offset 12
LVL450:
	pop	edi
LCFI194:
	.cfi_restore 7
	.cfi_def_cfa_offset 8
LVL451:
	pop	ebp
LCFI195:
	.cfi_restore 5
	.cfi_def_cfa_offset 4
	.loc 1 459 0
	jmp	_g_free
LVL452:
L278:
LCFI196:
	.cfi_restore_state
	call	___stack_chk_fail
LVL453:
	.cfi_endproc
LFE107:
	.section .rdata,"dr"
LC64:
	.ascii "Message\0"
LC65:
	.ascii "Blocked\0"
LC66:
	.ascii "blocked\0"
	.text
	.p2align 2,,3
	.def	_ggp_status_types;	.scl	3;	.type	32;	.endef
_ggp_status_types:
LFB127:
	.loc 1 1588 0
	.cfi_startproc
LVL454:
	push	edi
LCFI197:
	.cfi_def_cfa_offset 8
	.cfi_offset 7, -8
	push	esi
LCFI198:
	.cfi_def_cfa_offset 12
	.cfi_offset 6, -12
	push	ebx
LCFI199:
	.cfi_def_cfa_offset 16
	.cfi_offset 3, -16
	sub	esp, 64
LCFI200:
	.cfi_def_cfa_offset 80
	.loc 1 1588 0
	mov	eax, DWORD PTR ___stack_chk_guard
	mov	DWORD PTR [esp+60], eax
	xor	eax, eax
LVL455:
	.loc 1 1592 0
	mov	DWORD PTR [esp], 13
	call	_purple_value_new
LVL456:
	mov	ebx, eax
	.loc 1 1594 0
	mov	DWORD PTR [esp+4], OFFSET FLAT:LC64
	mov	DWORD PTR [esp], OFFSET FLAT:LC6
	call	_libintl_dgettext
LVL457:
	.loc 1 1592 0
	mov	DWORD PTR [esp+36], 0
	mov	DWORD PTR [esp+32], ebx
	mov	DWORD PTR [esp+28], eax
	mov	DWORD PTR [esp+24], OFFSET FLAT:LC15
	mov	DWORD PTR [esp+20], 0
	mov	DWORD PTR [esp+16], 1
	mov	DWORD PTR [esp+12], 1
	mov	DWORD PTR [esp+8], 0
	mov	DWORD PTR [esp+4], 0
	mov	DWORD PTR [esp], 2
	call	_purple_status_type_new_with_attrs
LVL458:
	.loc 1 1596 0
	mov	DWORD PTR [esp+4], eax
	mov	DWORD PTR [esp], 0
	call	_g_list_append
LVL459:
	mov	ebx, eax
LVL460:
	.loc 1 1602 0
	mov	DWORD PTR [esp], 13
	call	_purple_value_new
LVL461:
	mov	esi, eax
	.loc 1 1604 0
	mov	DWORD PTR [esp+4], OFFSET FLAT:LC64
	mov	DWORD PTR [esp], OFFSET FLAT:LC6
	call	_libintl_dgettext
LVL462:
	.loc 1 1602 0
	mov	DWORD PTR [esp+36], 0
	mov	DWORD PTR [esp+32], esi
	mov	DWORD PTR [esp+28], eax
	mov	DWORD PTR [esp+24], OFFSET FLAT:LC15
	mov	DWORD PTR [esp+20], 0
	mov	DWORD PTR [esp+16], 1
	mov	DWORD PTR [esp+12], 1
	mov	DWORD PTR [esp+8], 0
	mov	DWORD PTR [esp+4], 0
	mov	DWORD PTR [esp], 4
	call	_purple_status_type_new_with_attrs
LVL463:
	.loc 1 1606 0
	mov	DWORD PTR [esp+4], eax
	mov	DWORD PTR [esp], ebx
	call	_g_list_append
LVL464:
	mov	ebx, eax
LVL465:
	.loc 1 1608 0
	mov	DWORD PTR [esp], 13
	call	_purple_value_new
LVL466:
	mov	esi, eax
	.loc 1 1610 0
	mov	DWORD PTR [esp+4], OFFSET FLAT:LC64
	mov	DWORD PTR [esp], OFFSET FLAT:LC6
	call	_libintl_dgettext
LVL467:
	.loc 1 1608 0
	mov	DWORD PTR [esp+36], 0
	mov	DWORD PTR [esp+32], esi
	mov	DWORD PTR [esp+28], eax
	mov	DWORD PTR [esp+24], OFFSET FLAT:LC15
	mov	DWORD PTR [esp+20], 0
	mov	DWORD PTR [esp+16], 1
	mov	DWORD PTR [esp+12], 1
	mov	DWORD PTR [esp+8], 0
	mov	DWORD PTR [esp+4], 0
	mov	DWORD PTR [esp], 5
	call	_purple_status_type_new_with_attrs
LVL468:
	.loc 1 1612 0
	mov	DWORD PTR [esp+4], eax
	mov	DWORD PTR [esp], ebx
	call	_g_list_append
LVL469:
	mov	ebx, eax
LVL470:
	.loc 1 1618 0
	mov	DWORD PTR [esp], 13
	call	_purple_value_new
LVL471:
	mov	esi, eax
	.loc 1 1620 0
	mov	DWORD PTR [esp+4], OFFSET FLAT:LC64
	mov	DWORD PTR [esp], OFFSET FLAT:LC6
	call	_libintl_dgettext
LVL472:
	.loc 1 1618 0
	mov	DWORD PTR [esp+36], 0
	mov	DWORD PTR [esp+32], esi
	mov	DWORD PTR [esp+28], eax
	mov	DWORD PTR [esp+24], OFFSET FLAT:LC15
	mov	DWORD PTR [esp+20], 0
	mov	DWORD PTR [esp+16], 1
	mov	DWORD PTR [esp+12], 1
	mov	DWORD PTR [esp+8], 0
	mov	DWORD PTR [esp+4], 0
	mov	DWORD PTR [esp], 3
	call	_purple_status_type_new_with_attrs
LVL473:
	.loc 1 1622 0
	mov	DWORD PTR [esp+4], eax
	mov	DWORD PTR [esp], ebx
	call	_g_list_append
LVL474:
	mov	ebx, eax
LVL475:
	.loc 1 1627 0
	mov	DWORD PTR [esp], 13
	call	_purple_value_new
LVL476:
	mov	edi, eax
	.loc 1 1629 0
	mov	DWORD PTR [esp+4], OFFSET FLAT:LC64
	mov	DWORD PTR [esp], OFFSET FLAT:LC6
	call	_libintl_dgettext
LVL477:
	mov	esi, eax
	.loc 1 1628 0
	mov	DWORD PTR [esp+4], OFFSET FLAT:LC65
	mov	DWORD PTR [esp], OFFSET FLAT:LC6
	call	_libintl_dgettext
LVL478:
	.loc 1 1627 0
	mov	DWORD PTR [esp+36], 0
	mov	DWORD PTR [esp+32], edi
	mov	DWORD PTR [esp+28], esi
	mov	DWORD PTR [esp+24], OFFSET FLAT:LC15
	mov	DWORD PTR [esp+20], 0
	mov	DWORD PTR [esp+16], 0
	mov	DWORD PTR [esp+12], 1
	mov	DWORD PTR [esp+8], eax
	mov	DWORD PTR [esp+4], OFFSET FLAT:LC66
	mov	DWORD PTR [esp], 4
	call	_purple_status_type_new_with_attrs
LVL479:
	.loc 1 1630 0
	mov	DWORD PTR [esp+4], eax
	mov	DWORD PTR [esp], ebx
	call	_g_list_append
LVL480:
	mov	ebx, eax
LVL481:
	.loc 1 1632 0
	mov	DWORD PTR [esp], 13
	call	_purple_value_new
LVL482:
	mov	esi, eax
	.loc 1 1634 0
	mov	DWORD PTR [esp+4], OFFSET FLAT:LC64
	mov	DWORD PTR [esp], OFFSET FLAT:LC6
	call	_libintl_dgettext
LVL483:
	.loc 1 1632 0
	mov	DWORD PTR [esp+36], 0
	mov	DWORD PTR [esp+32], esi
	mov	DWORD PTR [esp+28], eax
	mov	DWORD PTR [esp+24], OFFSET FLAT:LC15
	mov	DWORD PTR [esp+20], 0
	mov	DWORD PTR [esp+16], 1
	mov	DWORD PTR [esp+12], 1
	mov	DWORD PTR [esp+8], 0
	mov	DWORD PTR [esp+4], 0
	mov	DWORD PTR [esp], 1
	call	_purple_status_type_new_with_attrs
LVL484:
	.loc 1 1636 0
	mov	DWORD PTR [esp+4], eax
	mov	DWORD PTR [esp], ebx
	call	_g_list_append
LVL485:
	.loc 1 1639 0
	mov	edx, DWORD PTR [esp+60]
	xor	edx, DWORD PTR ___stack_chk_guard
	jne	L282
	add	esp, 64
LCFI201:
	.cfi_remember_state
	.cfi_def_cfa_offset 16
	pop	ebx
LCFI202:
	.cfi_restore 3
	.cfi_def_cfa_offset 12
	pop	esi
LCFI203:
	.cfi_restore 6
	.cfi_def_cfa_offset 8
	pop	edi
LCFI204:
	.cfi_restore 7
	.cfi_def_cfa_offset 4
	ret
L282:
LCFI205:
	.cfi_restore_state
	call	___stack_chk_fail
LVL486:
	.cfi_endproc
LFE127:
	.section .rdata,"dr"
LC67:
	.ascii "%s: %s\0"
LC68:
	.ascii "Status\0"
LC69:
	.ascii "b != NULL\0"
LC70:
	.ascii "Alias\0"
	.text
	.p2align 2,,3
	.def	_ggp_tooltip_text;	.scl	3;	.type	32;	.endef
_ggp_tooltip_text:
LFB126:
	.loc 1 1557 0
	.cfi_startproc
LVL487:
	push	ebp
LCFI206:
	.cfi_def_cfa_offset 8
	.cfi_offset 5, -8
	push	edi
LCFI207:
	.cfi_def_cfa_offset 12
	.cfi_offset 7, -12
	push	esi
LCFI208:
	.cfi_def_cfa_offset 16
	.cfi_offset 6, -16
	push	ebx
LCFI209:
	.cfi_def_cfa_offset 20
	.cfi_offset 3, -20
	sub	esp, 60
LCFI210:
	.cfi_def_cfa_offset 80
	mov	ebx, DWORD PTR [esp+80]
	mov	esi, DWORD PTR [esp+84]
	.loc 1 1557 0
	mov	eax, DWORD PTR ___stack_chk_guard
	mov	DWORD PTR [esp+44], eax
	xor	eax, eax
LBB36:
	.loc 1 1562 0
	test	ebx, ebx
	je	L311
LVL488:
LBE36:
	.loc 1 1564 0
	mov	DWORD PTR [esp], ebx
	call	_purple_buddy_get_presence
LVL489:
	mov	DWORD PTR [esp], eax
	call	_purple_presence_get_active_status
LVL490:
	mov	edi, eax
LVL491:
	.loc 1 1565 0
	mov	DWORD PTR [esp+4], OFFSET FLAT:LC15
	mov	DWORD PTR [esp], eax
	call	_purple_status_get_attr_string
LVL492:
	mov	ebp, eax
LVL493:
	.loc 1 1566 0
	mov	DWORD PTR [esp], edi
	call	_purple_status_get_name
LVL494:
	mov	DWORD PTR [esp+28], eax
LVL495:
	.loc 1 1567 0
	mov	DWORD PTR [esp], ebx
	call	_purple_buddy_get_alias
LVL496:
	mov	edi, eax
LVL497:
	.loc 1 1569 0
	mov	DWORD PTR [esp+4], OFFSET FLAT:LC70
	mov	DWORD PTR [esp], OFFSET FLAT:LC6
	call	_libintl_dgettext
LVL498:
	mov	DWORD PTR [esp+8], edi
	mov	DWORD PTR [esp+4], eax
	mov	DWORD PTR [esp], esi
	call	_purple_notify_user_info_add_pair
LVL499:
	.loc 1 1571 0
	test	ebp, ebp
	je	L312
	.loc 1 1572 0
	mov	DWORD PTR [esp+4], -1
	mov	DWORD PTR [esp], ebp
	call	_g_markup_escape_text
LVL500:
	mov	ebp, eax
LVL501:
	.loc 1 1573 0
	mov	DWORD PTR [esp], ebx
	call	_purple_buddy_get_account
LVL502:
	mov	DWORD PTR [esp], eax
	call	_purple_account_is_connected
LVL503:
	test	eax, eax
	jne	L313
L286:
	.loc 1 1578 0
	mov	DWORD PTR [esp+4], OFFSET FLAT:LC64
	mov	DWORD PTR [esp], OFFSET FLAT:LC6
	call	_libintl_dgettext
LVL504:
	mov	DWORD PTR [esp+8], ebp
	mov	DWORD PTR [esp+4], eax
	mov	DWORD PTR [esp], esi
	call	_purple_notify_user_info_add_pair
LVL505:
L287:
	.loc 1 1580 0
	mov	edx, DWORD PTR [esp+44]
	xor	edx, DWORD PTR ___stack_chk_guard
	jne	L310
	mov	DWORD PTR [esp+80], ebp
	.loc 1 1585 0
	add	esp, 60
LCFI211:
	.cfi_remember_state
	.cfi_def_cfa_offset 20
	pop	ebx
LCFI212:
	.cfi_restore 3
	.cfi_def_cfa_offset 16
	pop	esi
LCFI213:
	.cfi_restore 6
	.cfi_def_cfa_offset 12
	pop	edi
LCFI214:
	.cfi_restore 7
	.cfi_def_cfa_offset 8
LVL506:
	pop	ebp
LCFI215:
	.cfi_restore 5
	.cfi_def_cfa_offset 4
LVL507:
	.loc 1 1580 0
	jmp	_g_free
LVL508:
	.p2align 2,,3
L312:
LCFI216:
	.cfi_restore_state
	.loc 1 1582 0 discriminator 1
	mov	DWORD PTR [esp], ebx
	call	_purple_buddy_get_account
LVL509:
	mov	DWORD PTR [esp], eax
	call	_purple_account_is_connected
LVL510:
	test	eax, eax
	jne	L314
L283:
	.loc 1 1585 0
	mov	edx, DWORD PTR [esp+44]
	xor	edx, DWORD PTR ___stack_chk_guard
	jne	L310
	add	esp, 60
LCFI217:
	.cfi_remember_state
	.cfi_def_cfa_offset 20
	pop	ebx
LCFI218:
	.cfi_restore 3
	.cfi_def_cfa_offset 16
	pop	esi
LCFI219:
	.cfi_restore 6
	.cfi_def_cfa_offset 12
	pop	edi
LCFI220:
	.cfi_restore 7
	.cfi_def_cfa_offset 8
LVL511:
	pop	ebp
LCFI221:
	.cfi_restore 5
	.cfi_def_cfa_offset 4
LVL512:
	ret
LVL513:
	.p2align 2,,3
L313:
LCFI222:
	.cfi_restore_state
	.loc 1 1573 0 discriminator 1
	mov	DWORD PTR [esp], ebx
	call	_purple_buddy_get_presence
LVL514:
	mov	DWORD PTR [esp], eax
	call	_purple_presence_is_online
LVL515:
	test	eax, eax
	je	L286
	.loc 1 1574 0
	mov	DWORD PTR [esp+8], ebp
	mov	eax, DWORD PTR [esp+28]
	mov	DWORD PTR [esp+4], eax
	mov	DWORD PTR [esp], OFFSET FLAT:LC67
	call	_g_strdup_printf
LVL516:
	mov	ebx, eax
LVL517:
	.loc 1 1575 0
	mov	DWORD PTR [esp+4], OFFSET FLAT:LC68
	mov	DWORD PTR [esp], OFFSET FLAT:LC6
	call	_libintl_dgettext
LVL518:
	mov	DWORD PTR [esp+8], ebx
	mov	DWORD PTR [esp+4], eax
	mov	DWORD PTR [esp], esi
	call	_purple_notify_user_info_add_pair
LVL519:
	.loc 1 1576 0
	mov	DWORD PTR [esp], ebx
	call	_g_free
LVL520:
	jmp	L287
LVL521:
	.p2align 2,,3
L314:
	.loc 1 1582 0 discriminator 1
	mov	DWORD PTR [esp], ebx
	call	_purple_buddy_get_presence
LVL522:
	mov	DWORD PTR [esp], eax
	call	_purple_presence_is_online
LVL523:
	test	eax, eax
	je	L283
	.loc 1 1583 0
	mov	DWORD PTR [esp+4], OFFSET FLAT:LC68
	mov	DWORD PTR [esp], OFFSET FLAT:LC6
	call	_libintl_dgettext
LVL524:
	mov	edx, DWORD PTR [esp+44]
	xor	edx, DWORD PTR ___stack_chk_guard
	jne	L310
	mov	edx, DWORD PTR [esp+28]
	mov	DWORD PTR [esp+88], edx
	mov	DWORD PTR [esp+84], eax
	mov	DWORD PTR [esp+80], esi
	.loc 1 1585 0
	add	esp, 60
LCFI223:
	.cfi_remember_state
	.cfi_def_cfa_offset 20
	pop	ebx
LCFI224:
	.cfi_restore 3
	.cfi_def_cfa_offset 16
	pop	esi
LCFI225:
	.cfi_restore 6
	.cfi_def_cfa_offset 12
	pop	edi
LCFI226:
	.cfi_restore 7
	.cfi_def_cfa_offset 8
LVL525:
	pop	ebp
LCFI227:
	.cfi_restore 5
	.cfi_def_cfa_offset 4
LVL526:
	.loc 1 1583 0
	jmp	_purple_notify_user_info_add_pair
LVL527:
	.p2align 2,,3
L311:
LCFI228:
	.cfi_restore_state
	.loc 1 1562 0
	mov	eax, DWORD PTR [esp+44]
	xor	eax, DWORD PTR ___stack_chk_guard
	jne	L310
	mov	DWORD PTR [esp+88], OFFSET FLAT:LC69
	mov	DWORD PTR [esp+84], OFFSET FLAT:___PRETTY_FUNCTION__.46026
	mov	DWORD PTR [esp+80], 0
	.loc 1 1585 0
	add	esp, 60
LCFI229:
	.cfi_remember_state
	.cfi_def_cfa_offset 20
	pop	ebx
LCFI230:
	.cfi_restore 3
	.cfi_def_cfa_offset 16
	pop	esi
LCFI231:
	.cfi_restore 6
	.cfi_def_cfa_offset 12
	pop	edi
LCFI232:
	.cfi_restore 7
	.cfi_def_cfa_offset 8
	pop	ebp
LCFI233:
	.cfi_restore 5
	.cfi_def_cfa_offset 4
	.loc 1 1562 0
	jmp	_g_return_if_fail_warning
LVL528:
L310:
LCFI234:
	.cfi_restore_state
	.loc 1 1585 0
	call	___stack_chk_fail
LVL529:
	.cfi_endproc
LFE126:
	.section .rdata,"dr"
LC71:
	.ascii "Find buddies...\0"
LC72:
	.ascii "Change status broadcasting\0"
LC73:
	.ascii "Save buddylist to file...\0"
LC74:
	.ascii "Load buddylist from file...\0"
	.text
	.p2align 2,,3
	.def	_ggp_actions;	.scl	3;	.type	32;	.endef
_ggp_actions:
LFB145:
	.loc 1 2215 0
	.cfi_startproc
LVL530:
	push	ebx
LCFI235:
	.cfi_def_cfa_offset 8
	.cfi_offset 3, -8
	sub	esp, 40
LCFI236:
	.cfi_def_cfa_offset 48
	.loc 1 2215 0
	mov	eax, DWORD PTR ___stack_chk_guard
	mov	DWORD PTR [esp+28], eax
	xor	eax, eax
LVL531:
	.loc 1 2219 0
	mov	DWORD PTR [esp+4], OFFSET FLAT:LC71
	mov	DWORD PTR [esp], OFFSET FLAT:LC6
	call	_libintl_dgettext
LVL532:
	mov	DWORD PTR [esp+4], OFFSET FLAT:_ggp_find_buddies
	mov	DWORD PTR [esp], eax
	call	_purple_plugin_action_new
LVL533:
	.loc 1 2221 0
	mov	DWORD PTR [esp+4], eax
	mov	DWORD PTR [esp], 0
	call	_g_list_append
LVL534:
	mov	ebx, eax
LVL535:
	.loc 1 2223 0
	mov	DWORD PTR [esp+4], OFFSET FLAT:LC72
	mov	DWORD PTR [esp], OFFSET FLAT:LC6
	call	_libintl_dgettext
LVL536:
	mov	DWORD PTR [esp+4], OFFSET FLAT:_ggp_action_change_status_broadcasting
	mov	DWORD PTR [esp], eax
	call	_purple_plugin_action_new
LVL537:
	.loc 1 2225 0
	mov	DWORD PTR [esp+4], eax
	mov	DWORD PTR [esp], ebx
	call	_g_list_append
LVL538:
	.loc 1 2227 0
	mov	DWORD PTR [esp+4], 0
	mov	DWORD PTR [esp], eax
	call	_g_list_append
LVL539:
	mov	ebx, eax
LVL540:
	.loc 1 2229 0
	mov	DWORD PTR [esp+4], OFFSET FLAT:LC73
	mov	DWORD PTR [esp], OFFSET FLAT:LC6
	call	_libintl_dgettext
LVL541:
	mov	DWORD PTR [esp+4], OFFSET FLAT:_ggp_action_buddylist_save
	mov	DWORD PTR [esp], eax
	call	_purple_plugin_action_new
LVL542:
	.loc 1 2231 0
	mov	DWORD PTR [esp+4], eax
	mov	DWORD PTR [esp], ebx
	call	_g_list_append
LVL543:
	mov	ebx, eax
LVL544:
	.loc 1 2233 0
	mov	DWORD PTR [esp+4], OFFSET FLAT:LC74
	mov	DWORD PTR [esp], OFFSET FLAT:LC6
	call	_libintl_dgettext
LVL545:
	mov	DWORD PTR [esp+4], OFFSET FLAT:_ggp_action_buddylist_load
	mov	DWORD PTR [esp], eax
	call	_purple_plugin_action_new
LVL546:
	.loc 1 2235 0
	mov	edx, DWORD PTR [esp+28]
	xor	edx, DWORD PTR ___stack_chk_guard
	jne	L319
	mov	DWORD PTR [esp+52], eax
	mov	DWORD PTR [esp+48], ebx
	.loc 1 2238 0
	add	esp, 40
LCFI237:
	.cfi_remember_state
	.cfi_def_cfa_offset 8
	pop	ebx
LCFI238:
	.cfi_restore 3
	.cfi_def_cfa_offset 4
LVL547:
	.loc 1 2235 0
	jmp	_g_list_append
LVL548:
L319:
LCFI239:
	.cfi_restore_state
	call	___stack_chk_fail
LVL549:
	.cfi_endproc
LFE145:
	.p2align 2,,3
	.def	_ggp_action_buddylist_load;	.scl	3;	.type	32;	.endef
_ggp_action_buddylist_load:
LFB98:
	.loc 1 194 0
	.cfi_startproc
LVL550:
	push	edi
LCFI240:
	.cfi_def_cfa_offset 8
	.cfi_offset 7, -8
	push	esi
LCFI241:
	.cfi_def_cfa_offset 12
	.cfi_offset 6, -12
	push	ebx
LCFI242:
	.cfi_def_cfa_offset 16
	.cfi_offset 3, -16
	sub	esp, 64
LCFI243:
	.cfi_def_cfa_offset 80
	mov	ebx, DWORD PTR [esp+80]
	.loc 1 194 0
	mov	eax, DWORD PTR ___stack_chk_guard
	mov	DWORD PTR [esp+60], eax
	xor	eax, eax
	.loc 1 195 0
	mov	esi, DWORD PTR [ebx+12]
LVL551:
	.loc 1 197 0
	mov	DWORD PTR [esp], esi
	call	_purple_connection_get_account
LVL552:
	mov	edi, eax
	mov	DWORD PTR [esp+4], OFFSET FLAT:LC74
	mov	DWORD PTR [esp], OFFSET FLAT:LC6
	call	_libintl_dgettext
LVL553:
	mov	DWORD PTR [esp+36], esi
	mov	DWORD PTR [esp+32], 0
	mov	DWORD PTR [esp+28], 0
	mov	DWORD PTR [esp+24], edi
	mov	DWORD PTR [esp+20], 0
	mov	DWORD PTR [esp+16], OFFSET FLAT:_ggp_callback_buddylist_load_ok
	mov	DWORD PTR [esp+12], 0
	mov	DWORD PTR [esp+8], 0
	mov	DWORD PTR [esp+4], eax
	mov	DWORD PTR [esp], ebx
	call	_purple_request_file
LVL554:
	.loc 1 202 0
	mov	eax, DWORD PTR [esp+60]
	xor	eax, DWORD PTR ___stack_chk_guard
	jne	L323
	add	esp, 64
LCFI244:
	.cfi_remember_state
	.cfi_def_cfa_offset 16
	pop	ebx
LCFI245:
	.cfi_restore 3
	.cfi_def_cfa_offset 12
	pop	esi
LCFI246:
	.cfi_restore 6
	.cfi_def_cfa_offset 8
LVL555:
	pop	edi
LCFI247:
	.cfi_restore 7
	.cfi_def_cfa_offset 4
	ret
LVL556:
L323:
LCFI248:
	.cfi_restore_state
	call	___stack_chk_fail
LVL557:
	.cfi_endproc
LFE98:
	.section .rdata,"dr"
LC75:
	.ascii "Save buddylist...\0"
	.text
	.p2align 2,,3
	.def	_ggp_action_buddylist_save;	.scl	3;	.type	32;	.endef
_ggp_action_buddylist_save:
LFB97:
	.loc 1 184 0
	.cfi_startproc
LVL558:
	push	edi
LCFI249:
	.cfi_def_cfa_offset 8
	.cfi_offset 7, -8
	push	esi
LCFI250:
	.cfi_def_cfa_offset 12
	.cfi_offset 6, -12
	push	ebx
LCFI251:
	.cfi_def_cfa_offset 16
	.cfi_offset 3, -16
	sub	esp, 64
LCFI252:
	.cfi_def_cfa_offset 80
	mov	ebx, DWORD PTR [esp+80]
	.loc 1 184 0
	mov	eax, DWORD PTR ___stack_chk_guard
	mov	DWORD PTR [esp+60], eax
	xor	eax, eax
	.loc 1 185 0
	mov	esi, DWORD PTR [ebx+12]
LVL559:
	.loc 1 187 0
	mov	DWORD PTR [esp], esi
	call	_purple_connection_get_account
LVL560:
	mov	edi, eax
	mov	DWORD PTR [esp+4], OFFSET FLAT:LC75
	mov	DWORD PTR [esp], OFFSET FLAT:LC6
	call	_libintl_dgettext
LVL561:
	mov	DWORD PTR [esp+36], esi
	mov	DWORD PTR [esp+32], 0
	mov	DWORD PTR [esp+28], 0
	mov	DWORD PTR [esp+24], edi
	mov	DWORD PTR [esp+20], 0
	mov	DWORD PTR [esp+16], OFFSET FLAT:_ggp_callback_buddylist_save_ok
	mov	DWORD PTR [esp+12], 1
	mov	DWORD PTR [esp+8], 0
	mov	DWORD PTR [esp+4], eax
	mov	DWORD PTR [esp], ebx
	call	_purple_request_file
LVL562:
	.loc 1 191 0
	mov	eax, DWORD PTR [esp+60]
	xor	eax, DWORD PTR ___stack_chk_guard
	jne	L327
	add	esp, 64
LCFI253:
	.cfi_remember_state
	.cfi_def_cfa_offset 16
	pop	ebx
LCFI254:
	.cfi_restore 3
	.cfi_def_cfa_offset 12
	pop	esi
LCFI255:
	.cfi_restore 6
	.cfi_def_cfa_offset 8
LVL563:
	pop	edi
LCFI256:
	.cfi_restore 7
	.cfi_def_cfa_offset 4
	ret
LVL564:
L327:
LCFI257:
	.cfi_restore_state
	call	___stack_chk_fail
LVL565:
	.cfi_endproc
LFE97:
	.section .rdata,"dr"
LC76:
	.ascii "file_name = %s\12\0"
LC77:
	.ascii "Couldn't load buddylist\0"
	.align 4
LC78:
	.ascii "Couldn't load buddylist. file = %s; error = %s\12\0"
	.align 4
LC79:
	.ascii "Buddylist loaded successfully!\0"
LC80:
	.ascii "Load Buddylist...\0"
	.text
	.p2align 2,,3
	.def	_ggp_callback_buddylist_load_ok;	.scl	3;	.type	32;	.endef
_ggp_callback_buddylist_load_ok:
LFB96:
	.loc 1 148 0
	.cfi_startproc
LVL566:
	push	ebp
LCFI258:
	.cfi_def_cfa_offset 8
	.cfi_offset 5, -8
	push	edi
LCFI259:
	.cfi_def_cfa_offset 12
	.cfi_offset 7, -12
	push	esi
LCFI260:
	.cfi_def_cfa_offset 16
	.cfi_offset 6, -16
	push	ebx
LCFI261:
	.cfi_def_cfa_offset 20
	.cfi_offset 3, -20
	sub	esp, 60
LCFI262:
	.cfi_def_cfa_offset 80
	mov	esi, DWORD PTR [esp+80]
	mov	ebx, DWORD PTR [esp+84]
	.loc 1 148 0
	mov	eax, DWORD PTR ___stack_chk_guard
	mov	DWORD PTR [esp+44], eax
	xor	eax, eax
	.loc 1 149 0
	mov	DWORD PTR [esp], esi
	call	_purple_connection_get_account
LVL567:
	mov	edi, eax
LVL568:
	.loc 1 150 0
	mov	DWORD PTR [esp+32], 0
LVL569:
	.loc 1 151 0
	mov	DWORD PTR [esp+36], 0
LVL570:
	.loc 1 154 0
	mov	DWORD PTR [esp+8], ebx
	mov	DWORD PTR [esp+4], OFFSET FLAT:LC76
	mov	DWORD PTR [esp], OFFSET FLAT:LC2
	call	_purple_debug_info
LVL571:
	.loc 1 156 0
	lea	eax, [esp+32]
	mov	DWORD PTR [esp+12], eax
	lea	eax, [esp+40]
	mov	DWORD PTR [esp+8], eax
	lea	eax, [esp+36]
	mov	DWORD PTR [esp+4], eax
	mov	DWORD PTR [esp], ebx
	call	_g_file_get_contents_utf8
LVL572:
	test	eax, eax
	je	L333
	.loc 1 171 0
	mov	eax, DWORD PTR [esp+36]
	mov	DWORD PTR [esp+4], eax
	mov	DWORD PTR [esp], esi
	call	_ggp_buddylist_load
LVL573:
	.loc 1 172 0
	mov	eax, DWORD PTR [esp+36]
	mov	DWORD PTR [esp], eax
	call	_g_free
LVL574:
	.loc 1 174 0
	mov	DWORD PTR [esp+4], OFFSET FLAT:LC79
	mov	DWORD PTR [esp], OFFSET FLAT:LC6
	call	_libintl_dgettext
LVL575:
	mov	ebx, eax
	mov	DWORD PTR [esp+4], OFFSET FLAT:LC80
	mov	DWORD PTR [esp], OFFSET FLAT:LC6
	call	_libintl_dgettext
LVL576:
	mov	DWORD PTR [esp+24], 0
	mov	DWORD PTR [esp+20], 0
	mov	DWORD PTR [esp+16], 0
	mov	DWORD PTR [esp+12], ebx
	mov	DWORD PTR [esp+8], eax
	mov	DWORD PTR [esp+4], 2
	mov	DWORD PTR [esp], edi
	call	_purple_notify_message
LVL577:
L328:
	.loc 1 177 0
	mov	eax, DWORD PTR [esp+44]
	xor	eax, DWORD PTR ___stack_chk_guard
	jne	L334
	add	esp, 60
LCFI263:
	.cfi_remember_state
	.cfi_def_cfa_offset 20
	pop	ebx
LCFI264:
	.cfi_restore 3
	.cfi_def_cfa_offset 16
	pop	esi
LCFI265:
	.cfi_restore 6
	.cfi_def_cfa_offset 12
	pop	edi
LCFI266:
	.cfi_restore 7
	.cfi_def_cfa_offset 8
LVL578:
	pop	ebp
LCFI267:
	.cfi_restore 5
	.cfi_def_cfa_offset 4
	ret
LVL579:
	.p2align 2,,3
L333:
LCFI268:
	.cfi_restore_state
	.loc 1 157 0
	mov	eax, DWORD PTR [esp+32]
	mov	ebp, DWORD PTR [eax+8]
	mov	DWORD PTR [esp+4], OFFSET FLAT:LC77
	mov	DWORD PTR [esp], OFFSET FLAT:LC6
	call	_libintl_dgettext
LVL580:
	mov	esi, eax
	mov	DWORD PTR [esp+4], OFFSET FLAT:LC77
	mov	DWORD PTR [esp], OFFSET FLAT:LC6
	call	_libintl_dgettext
LVL581:
	mov	DWORD PTR [esp+24], 0
	mov	DWORD PTR [esp+20], 0
	mov	DWORD PTR [esp+16], ebp
	mov	DWORD PTR [esp+12], esi
	mov	DWORD PTR [esp+8], eax
	mov	DWORD PTR [esp+4], 0
	mov	DWORD PTR [esp], edi
	call	_purple_notify_message
LVL582:
	.loc 1 164 0
	mov	eax, DWORD PTR [esp+32]
	.loc 1 162 0
	mov	eax, DWORD PTR [eax+8]
	mov	DWORD PTR [esp+12], eax
	mov	DWORD PTR [esp+8], ebx
	mov	DWORD PTR [esp+4], OFFSET FLAT:LC78
	mov	DWORD PTR [esp], OFFSET FLAT:LC2
	call	_purple_debug_error
LVL583:
	.loc 1 166 0
	mov	eax, DWORD PTR [esp+32]
	mov	DWORD PTR [esp], eax
	call	_g_error_free
LVL584:
	jmp	L328
L334:
	.loc 1 177 0
	call	___stack_chk_fail
LVL585:
	.cfi_endproc
LFE96:
	.section .rdata,"dr"
LC81:
	.ascii "Saving...\12\0"
LC82:
	.ascii "file = %s\12\0"
	.align 4
LC83:
	.ascii "Your buddylist is empty, nothing was written to the file.\0"
LC84:
	.ascii "Save Buddylist...\0"
LC85:
	.ascii "Buddylist saved successfully!\0"
	.align 4
LC86:
	.ascii "Couldn't write buddy list for %s to %s\0"
	.text
	.p2align 2,,3
	.def	_ggp_callback_buddylist_save_ok;	.scl	3;	.type	32;	.endef
_ggp_callback_buddylist_save_ok:
LFB95:
	.loc 1 117 0
	.cfi_startproc
LVL586:
	push	ebp
LCFI269:
	.cfi_def_cfa_offset 8
	.cfi_offset 5, -8
	push	edi
LCFI270:
	.cfi_def_cfa_offset 12
	.cfi_offset 7, -12
	push	esi
LCFI271:
	.cfi_def_cfa_offset 16
	.cfi_offset 6, -16
	push	ebx
LCFI272:
	.cfi_def_cfa_offset 20
	.cfi_offset 3, -20
	sub	esp, 60
LCFI273:
	.cfi_def_cfa_offset 80
	mov	edi, DWORD PTR [esp+84]
	.loc 1 117 0
	mov	eax, DWORD PTR ___stack_chk_guard
	mov	DWORD PTR [esp+44], eax
	xor	eax, eax
	.loc 1 118 0
	mov	eax, DWORD PTR [esp+80]
	mov	DWORD PTR [esp], eax
	call	_purple_connection_get_account
LVL587:
	mov	esi, eax
LVL588:
	.loc 1 120 0
	mov	DWORD PTR [esp], eax
	call	_ggp_buddylist_dump
LVL589:
	mov	ebx, eax
LVL590:
	.loc 1 122 0
	mov	DWORD PTR [esp+4], OFFSET FLAT:LC81
	mov	DWORD PTR [esp], OFFSET FLAT:LC2
	call	_purple_debug_info
LVL591:
	.loc 1 123 0
	mov	DWORD PTR [esp+8], edi
	mov	DWORD PTR [esp+4], OFFSET FLAT:LC82
	mov	DWORD PTR [esp], OFFSET FLAT:LC2
	call	_purple_debug_info
LVL592:
	.loc 1 125 0
	test	ebx, ebx
	je	L344
	.loc 1 132 0
	mov	DWORD PTR [esp+8], -1
	mov	DWORD PTR [esp+4], ebx
	mov	DWORD PTR [esp], edi
	call	_purple_util_write_data_to_file_absolute
LVL593:
	test	eax, eax
	jne	L345
LBB37:
	.loc 1 136 0
	mov	DWORD PTR [esp], esi
	call	_purple_account_get_username
LVL594:
	mov	ebp, eax
	.loc 1 137 0
	mov	DWORD PTR [esp+4], OFFSET FLAT:LC86
	mov	DWORD PTR [esp], OFFSET FLAT:LC6
	call	_libintl_dgettext
LVL595:
	.loc 1 136 0
	mov	DWORD PTR [esp+8], edi
	mov	DWORD PTR [esp+4], ebp
	mov	DWORD PTR [esp], eax
	call	_g_strdup_printf
LVL596:
	mov	edi, eax
LVL597:
	.loc 1 139 0
	mov	DWORD PTR [esp+4], OFFSET FLAT:LC84
	mov	DWORD PTR [esp], OFFSET FLAT:LC6
	call	_libintl_dgettext
LVL598:
	mov	DWORD PTR [esp+24], 0
	mov	DWORD PTR [esp+20], 0
	mov	DWORD PTR [esp+16], 0
	mov	DWORD PTR [esp+12], edi
	mov	DWORD PTR [esp+8], eax
	mov	DWORD PTR [esp+4], 0
	mov	DWORD PTR [esp], esi
	call	_purple_notify_message
LVL599:
	.loc 1 141 0
	mov	DWORD PTR [esp], edi
	call	_g_free
LVL600:
L339:
LBE37:
	.loc 1 144 0
	mov	eax, DWORD PTR [esp+44]
	xor	eax, DWORD PTR ___stack_chk_guard
	jne	L342
	mov	DWORD PTR [esp+80], ebx
	.loc 1 145 0
	add	esp, 60
LCFI274:
	.cfi_remember_state
	.cfi_def_cfa_offset 20
	pop	ebx
LCFI275:
	.cfi_restore 3
	.cfi_def_cfa_offset 16
LVL601:
	pop	esi
LCFI276:
	.cfi_restore 6
	.cfi_def_cfa_offset 12
LVL602:
	pop	edi
LCFI277:
	.cfi_restore 7
	.cfi_def_cfa_offset 8
	pop	ebp
LCFI278:
	.cfi_restore 5
	.cfi_def_cfa_offset 4
	.loc 1 144 0
	jmp	_g_free
LVL603:
	.p2align 2,,3
L345:
LCFI279:
	.cfi_restore_state
	.loc 1 133 0
	mov	DWORD PTR [esp+4], OFFSET FLAT:LC85
	mov	DWORD PTR [esp], OFFSET FLAT:LC6
	call	_libintl_dgettext
LVL604:
	mov	edi, eax
	mov	DWORD PTR [esp+4], OFFSET FLAT:LC84
	mov	DWORD PTR [esp], OFFSET FLAT:LC6
	call	_libintl_dgettext
LVL605:
	mov	DWORD PTR [esp+24], 0
	mov	DWORD PTR [esp+20], 0
	mov	DWORD PTR [esp+16], 0
	mov	DWORD PTR [esp+12], edi
	mov	DWORD PTR [esp+8], eax
	mov	DWORD PTR [esp+4], 2
	mov	DWORD PTR [esp], esi
	call	_purple_notify_message
LVL606:
	jmp	L339
	.p2align 2,,3
L344:
	.loc 1 126 0
	mov	DWORD PTR [esp+4], OFFSET FLAT:LC83
	mov	DWORD PTR [esp], OFFSET FLAT:LC6
	call	_libintl_dgettext
LVL607:
	mov	ebx, eax
LVL608:
	mov	DWORD PTR [esp+4], OFFSET FLAT:LC84
	mov	DWORD PTR [esp], OFFSET FLAT:LC6
	call	_libintl_dgettext
LVL609:
	mov	DWORD PTR [esp+24], 0
	mov	DWORD PTR [esp+20], 0
	mov	DWORD PTR [esp+16], 0
	mov	DWORD PTR [esp+12], ebx
	mov	DWORD PTR [esp+8], eax
	mov	DWORD PTR [esp+4], 2
	mov	DWORD PTR [esp], esi
	call	_purple_notify_message
LVL610:
	.loc 1 145 0
	mov	eax, DWORD PTR [esp+44]
	xor	eax, DWORD PTR ___stack_chk_guard
	jne	L342
	add	esp, 60
LCFI280:
	.cfi_remember_state
	.cfi_def_cfa_offset 20
	pop	ebx
LCFI281:
	.cfi_restore 3
	.cfi_def_cfa_offset 16
	pop	esi
LCFI282:
	.cfi_restore 6
	.cfi_def_cfa_offset 12
LVL611:
	pop	edi
LCFI283:
	.cfi_restore 7
	.cfi_def_cfa_offset 8
	pop	ebp
LCFI284:
	.cfi_restore 5
	.cfi_def_cfa_offset 4
	ret
LVL612:
L342:
LCFI285:
	.cfi_restore_state
	call	___stack_chk_fail
LVL613:
	.cfi_endproc
LFE95:
	.section .rdata,"dr"
LC87:
	.ascii "Show status to:\0"
LC88:
	.ascii "All people\0"
LC89:
	.ascii "Only buddies\0"
LC90:
	.ascii "OK\0"
	.align 4
LC91:
	.ascii "Please, select who can see your status\0"
	.text
	.p2align 2,,3
	.def	_ggp_action_change_status_broadcasting;	.scl	3;	.type	32;	.endef
_ggp_action_change_status_broadcasting:
LFB105:
	.loc 1 363 0
	.cfi_startproc
LVL614:
	push	ebp
LCFI286:
	.cfi_def_cfa_offset 8
	.cfi_offset 5, -8
	push	edi
LCFI287:
	.cfi_def_cfa_offset 12
	.cfi_offset 7, -12
	push	esi
LCFI288:
	.cfi_def_cfa_offset 16
	.cfi_offset 6, -16
	push	ebx
LCFI289:
	.cfi_def_cfa_offset 20
	.cfi_offset 3, -20
	sub	esp, 108
LCFI290:
	.cfi_def_cfa_offset 128
	.loc 1 363 0
	mov	eax, DWORD PTR ___stack_chk_guard
	mov	DWORD PTR [esp+92], eax
	xor	eax, eax
	.loc 1 364 0
	mov	eax, DWORD PTR [esp+128]
	mov	ebx, DWORD PTR [eax+12]
LVL615:
	.loc 1 365 0
	mov	edx, DWORD PTR [ebx+28]
LVL616:
	.loc 1 371 0
	mov	DWORD PTR [esp+68], edx
	call	_purple_request_fields_new
LVL617:
	mov	esi, eax
LVL618:
	.loc 1 372 0
	mov	DWORD PTR [esp], 0
	call	_purple_request_field_group_new
LVL619:
	mov	ebp, eax
LVL620:
	.loc 1 373 0
	mov	DWORD PTR [esp+4], eax
	mov	DWORD PTR [esp], esi
	call	_purple_request_fields_add_group
LVL621:
	.loc 1 375 0
	mov	DWORD PTR [esp+4], OFFSET FLAT:LC87
	mov	DWORD PTR [esp], OFFSET FLAT:LC6
	call	_libintl_dgettext
LVL622:
	mov	DWORD PTR [esp+8], 0
	mov	DWORD PTR [esp+4], eax
	mov	DWORD PTR [esp], OFFSET FLAT:LC30
	call	_purple_request_field_choice_new
LVL623:
	mov	edi, eax
LVL624:
	.loc 1 376 0
	mov	DWORD PTR [esp+4], OFFSET FLAT:LC88
	mov	DWORD PTR [esp], OFFSET FLAT:LC6
	call	_libintl_dgettext
LVL625:
	mov	DWORD PTR [esp+4], eax
	mov	DWORD PTR [esp], edi
	call	_purple_request_field_choice_add
LVL626:
	.loc 1 377 0
	mov	DWORD PTR [esp+4], OFFSET FLAT:LC89
	mov	DWORD PTR [esp], OFFSET FLAT:LC6
	call	_libintl_dgettext
LVL627:
	mov	DWORD PTR [esp+4], eax
	mov	DWORD PTR [esp], edi
	call	_purple_request_field_choice_add
LVL628:
	.loc 1 378 0
	mov	DWORD PTR [esp+4], edi
	mov	DWORD PTR [esp], ebp
	call	_purple_request_field_group_add_field
LVL629:
	.loc 1 380 0
	mov	edx, DWORD PTR [esp+68]
	mov	ebp, DWORD PTR [edx+28]
LVL630:
	test	ebp, ebp
	jne	L351
	.loc 1 383 0
	mov	DWORD PTR [esp+4], 1
	mov	DWORD PTR [esp], edi
	call	_purple_request_field_choice_set_default_value
LVL631:
L348:
	.loc 1 385 0
	mov	DWORD PTR [esp], ebx
	call	_purple_connection_get_account
LVL632:
	.loc 1 391 0
	mov	DWORD PTR [esp+4], OFFSET FLAT:LC61
	mov	DWORD PTR [esp], OFFSET FLAT:LC6
	mov	DWORD PTR [esp+72], eax
	call	_libintl_dgettext
LVL633:
	.loc 1 390 0
	mov	DWORD PTR [esp+4], OFFSET FLAT:LC90
	mov	DWORD PTR [esp], OFFSET FLAT:LC6
	mov	DWORD PTR [esp+68], eax
	call	_libintl_dgettext
LVL634:
	mov	ebp, eax
	.loc 1 388 0
	mov	DWORD PTR [esp+4], OFFSET FLAT:LC91
	mov	DWORD PTR [esp], OFFSET FLAT:LC6
	call	_libintl_dgettext
LVL635:
	mov	edi, eax
LVL636:
	.loc 1 387 0
	mov	DWORD PTR [esp+4], OFFSET FLAT:LC72
	mov	DWORD PTR [esp], OFFSET FLAT:LC6
	call	_libintl_dgettext
LVL637:
	mov	DWORD PTR [esp+76], eax
	.loc 1 386 0
	mov	DWORD PTR [esp+4], OFFSET FLAT:LC72
	mov	DWORD PTR [esp], OFFSET FLAT:LC6
	call	_libintl_dgettext
LVL638:
	.loc 1 385 0
	mov	DWORD PTR [esp+48], ebx
	mov	DWORD PTR [esp+44], 0
	mov	DWORD PTR [esp+40], 0
	mov	ecx, DWORD PTR [esp+72]
	mov	DWORD PTR [esp+36], ecx
	mov	DWORD PTR [esp+32], 0
	mov	edx, DWORD PTR [esp+68]
	mov	DWORD PTR [esp+28], edx
	mov	DWORD PTR [esp+24], OFFSET FLAT:_ggp_action_change_status_broadcasting_ok
	mov	DWORD PTR [esp+20], ebp
	mov	DWORD PTR [esp+16], esi
	mov	DWORD PTR [esp+12], edi
	mov	edx, DWORD PTR [esp+76]
	mov	DWORD PTR [esp+8], edx
	mov	DWORD PTR [esp+4], eax
	mov	DWORD PTR [esp], ebx
	call	_purple_request_fields
LVL639:
	.loc 1 394 0
	mov	eax, DWORD PTR [esp+92]
	xor	eax, DWORD PTR ___stack_chk_guard
	jne	L352
	add	esp, 108
LCFI291:
	.cfi_remember_state
	.cfi_def_cfa_offset 20
	pop	ebx
LCFI292:
	.cfi_restore 3
	.cfi_def_cfa_offset 16
LVL640:
	pop	esi
LCFI293:
	.cfi_restore 6
	.cfi_def_cfa_offset 12
LVL641:
	pop	edi
LCFI294:
	.cfi_restore 7
	.cfi_def_cfa_offset 8
	pop	ebp
LCFI295:
	.cfi_restore 5
	.cfi_def_cfa_offset 4
	ret
LVL642:
	.p2align 2,,3
L351:
LCFI296:
	.cfi_restore_state
	.loc 1 381 0
	mov	DWORD PTR [esp+4], 0
	mov	DWORD PTR [esp], edi
	call	_purple_request_field_choice_set_default_value
LVL643:
	jmp	L348
LVL644:
L352:
	.loc 1 394 0
	call	___stack_chk_fail
LVL645:
	.cfi_endproc
LFE105:
	.p2align 2,,3
	.def	_ggp_action_change_status_broadcasting_ok;	.scl	3;	.type	32;	.endef
_ggp_action_change_status_broadcasting_ok:
LFB104:
	.loc 1 344 0
	.cfi_startproc
LVL646:
	push	edi
LCFI297:
	.cfi_def_cfa_offset 8
	.cfi_offset 7, -8
	push	esi
LCFI298:
	.cfi_def_cfa_offset 12
	.cfi_offset 6, -12
	push	ebx
LCFI299:
	.cfi_def_cfa_offset 16
	.cfi_offset 3, -16
	sub	esp, 32
LCFI300:
	.cfi_def_cfa_offset 48
	mov	eax, DWORD PTR [esp+48]
	mov	edi, DWORD PTR [esp+52]
	.loc 1 344 0
	mov	edx, DWORD PTR ___stack_chk_guard
	mov	DWORD PTR [esp+28], edx
	xor	edx, edx
	.loc 1 345 0
	mov	esi, DWORD PTR [eax+28]
LVL647:
	.loc 1 347 0
	mov	DWORD PTR [esp], eax
	call	_purple_connection_get_account
LVL648:
	mov	ebx, eax
LVL649:
	.loc 1 350 0
	mov	DWORD PTR [esp+4], OFFSET FLAT:LC30
	mov	DWORD PTR [esp], edi
	call	_purple_request_fields_get_choice
LVL650:
	.loc 1 353 0
	test	eax, eax
	sete	al
LVL651:
	movzx	eax, al
	mov	DWORD PTR [esi+28], eax
	.loc 1 357 0
	mov	DWORD PTR [esp], ebx
	call	_purple_account_get_active_status
LVL652:
	.loc 1 359 0
	mov	edx, DWORD PTR [esp+28]
	xor	edx, DWORD PTR ___stack_chk_guard
	jne	L359
	mov	DWORD PTR [esp+52], eax
	mov	DWORD PTR [esp+48], ebx
	.loc 1 360 0
	add	esp, 32
LCFI301:
	.cfi_remember_state
	.cfi_def_cfa_offset 16
	pop	ebx
LCFI302:
	.cfi_restore 3
	.cfi_def_cfa_offset 12
LVL653:
	pop	esi
LCFI303:
	.cfi_restore 6
	.cfi_def_cfa_offset 8
LVL654:
	pop	edi
LCFI304:
	.cfi_restore 7
	.cfi_def_cfa_offset 4
	.loc 1 359 0
	jmp	_ggp_set_status
LVL655:
L359:
LCFI305:
	.cfi_restore_state
	call	___stack_chk_fail
LVL656:
	.cfi_endproc
LFE104:
	.section .rdata,"dr"
LC92:
	.ascii "Last name\0"
LC93:
	.ascii "lastname\0"
LC94:
	.ascii "First name\0"
LC95:
	.ascii "firstname\0"
LC96:
	.ascii "Nickname\0"
LC97:
	.ascii "nickname\0"
LC98:
	.ascii "City\0"
LC99:
	.ascii "city\0"
LC100:
	.ascii "Year of birth\0"
LC101:
	.ascii "year\0"
LC102:
	.ascii "Gender\0"
LC103:
	.ascii "gender\0"
LC104:
	.ascii "Male or female\0"
LC105:
	.ascii "Male\0"
LC106:
	.ascii "Female\0"
LC107:
	.ascii "Only online\0"
LC108:
	.ascii "active\0"
	.align 4
LC109:
	.ascii "Please, enter your search criteria below\0"
LC110:
	.ascii "Find buddies\0"
	.text
	.p2align 2,,3
	.def	_ggp_find_buddies;	.scl	3;	.type	32;	.endef
_ggp_find_buddies:
LFB103:
	.loc 1 285 0
	.cfi_startproc
LVL657:
	push	ebp
LCFI306:
	.cfi_def_cfa_offset 8
	.cfi_offset 5, -8
	push	edi
LCFI307:
	.cfi_def_cfa_offset 12
	.cfi_offset 7, -12
	push	esi
LCFI308:
	.cfi_def_cfa_offset 16
	.cfi_offset 6, -16
	push	ebx
LCFI309:
	.cfi_def_cfa_offset 20
	.cfi_offset 3, -20
	sub	esp, 108
LCFI310:
	.cfi_def_cfa_offset 128
	.loc 1 285 0
	mov	eax, DWORD PTR ___stack_chk_guard
	mov	DWORD PTR [esp+92], eax
	xor	eax, eax
	.loc 1 286 0
	mov	eax, DWORD PTR [esp+128]
	mov	ebx, DWORD PTR [eax+12]
LVL658:
	.loc 1 292 0
	call	_purple_request_fields_new
LVL659:
	mov	esi, eax
LVL660:
	.loc 1 293 0
	mov	DWORD PTR [esp], 0
	call	_purple_request_field_group_new
LVL661:
	mov	edi, eax
LVL662:
	.loc 1 294 0
	mov	DWORD PTR [esp+4], eax
	mov	DWORD PTR [esp], esi
	call	_purple_request_fields_add_group
LVL663:
	.loc 1 297 0
	mov	DWORD PTR [esp+4], OFFSET FLAT:LC92
	mov	DWORD PTR [esp], OFFSET FLAT:LC6
	call	_libintl_dgettext
LVL664:
	.loc 1 296 0
	mov	DWORD PTR [esp+12], 0
	mov	DWORD PTR [esp+8], 0
	mov	DWORD PTR [esp+4], eax
	mov	DWORD PTR [esp], OFFSET FLAT:LC93
	call	_purple_request_field_string_new
LVL665:
	mov	ebp, eax
LVL666:
	.loc 1 298 0
	mov	DWORD PTR [esp+4], 0
	mov	DWORD PTR [esp], eax
	call	_purple_request_field_string_set_masked
LVL667:
	.loc 1 299 0
	mov	DWORD PTR [esp+4], ebp
	mov	DWORD PTR [esp], edi
	call	_purple_request_field_group_add_field
LVL668:
	.loc 1 302 0
	mov	DWORD PTR [esp+4], OFFSET FLAT:LC94
	mov	DWORD PTR [esp], OFFSET FLAT:LC6
	call	_libintl_dgettext
LVL669:
	.loc 1 301 0
	mov	DWORD PTR [esp+12], 0
	mov	DWORD PTR [esp+8], 0
	mov	DWORD PTR [esp+4], eax
	mov	DWORD PTR [esp], OFFSET FLAT:LC95
	call	_purple_request_field_string_new
LVL670:
	mov	ebp, eax
LVL671:
	.loc 1 303 0
	mov	DWORD PTR [esp+4], 0
	mov	DWORD PTR [esp], eax
	call	_purple_request_field_string_set_masked
LVL672:
	.loc 1 304 0
	mov	DWORD PTR [esp+4], ebp
	mov	DWORD PTR [esp], edi
	call	_purple_request_field_group_add_field
LVL673:
	.loc 1 307 0
	mov	DWORD PTR [esp+4], OFFSET FLAT:LC96
	mov	DWORD PTR [esp], OFFSET FLAT:LC6
	call	_libintl_dgettext
LVL674:
	.loc 1 306 0
	mov	DWORD PTR [esp+12], 0
	mov	DWORD PTR [esp+8], 0
	mov	DWORD PTR [esp+4], eax
	mov	DWORD PTR [esp], OFFSET FLAT:LC97
	call	_purple_request_field_string_new
LVL675:
	mov	ebp, eax
LVL676:
	.loc 1 308 0
	mov	DWORD PTR [esp+4], 0
	mov	DWORD PTR [esp], eax
	call	_purple_request_field_string_set_masked
LVL677:
	.loc 1 309 0
	mov	DWORD PTR [esp+4], ebp
	mov	DWORD PTR [esp], edi
	call	_purple_request_field_group_add_field
LVL678:
	.loc 1 312 0
	mov	DWORD PTR [esp+4], OFFSET FLAT:LC98
	mov	DWORD PTR [esp], OFFSET FLAT:LC6
	call	_libintl_dgettext
LVL679:
	.loc 1 311 0
	mov	DWORD PTR [esp+12], 0
	mov	DWORD PTR [esp+8], 0
	mov	DWORD PTR [esp+4], eax
	mov	DWORD PTR [esp], OFFSET FLAT:LC99
	call	_purple_request_field_string_new
LVL680:
	mov	ebp, eax
LVL681:
	.loc 1 313 0
	mov	DWORD PTR [esp+4], 0
	mov	DWORD PTR [esp], eax
	call	_purple_request_field_string_set_masked
LVL682:
	.loc 1 314 0
	mov	DWORD PTR [esp+4], ebp
	mov	DWORD PTR [esp], edi
	call	_purple_request_field_group_add_field
LVL683:
	.loc 1 317 0
	mov	DWORD PTR [esp+4], OFFSET FLAT:LC100
	mov	DWORD PTR [esp], OFFSET FLAT:LC6
	call	_libintl_dgettext
LVL684:
	.loc 1 316 0
	mov	DWORD PTR [esp+12], 0
	mov	DWORD PTR [esp+8], 0
	mov	DWORD PTR [esp+4], eax
	mov	DWORD PTR [esp], OFFSET FLAT:LC101
	call	_purple_request_field_string_new
LVL685:
	.loc 1 318 0
	mov	DWORD PTR [esp+4], eax
	mov	DWORD PTR [esp], edi
	call	_purple_request_field_group_add_field
LVL686:
	.loc 1 320 0
	mov	DWORD PTR [esp+4], OFFSET FLAT:LC102
	mov	DWORD PTR [esp], OFFSET FLAT:LC6
	call	_libintl_dgettext
LVL687:
	mov	DWORD PTR [esp+8], 0
	mov	DWORD PTR [esp+4], eax
	mov	DWORD PTR [esp], OFFSET FLAT:LC103
	call	_purple_request_field_choice_new
LVL688:
	mov	ebp, eax
LVL689:
	.loc 1 321 0
	mov	DWORD PTR [esp+4], OFFSET FLAT:LC104
	mov	DWORD PTR [esp], OFFSET FLAT:LC6
	call	_libintl_dgettext
LVL690:
	mov	DWORD PTR [esp+4], eax
	mov	DWORD PTR [esp], ebp
	call	_purple_request_field_choice_add
LVL691:
	.loc 1 322 0
	mov	DWORD PTR [esp+4], OFFSET FLAT:LC105
	mov	DWORD PTR [esp], OFFSET FLAT:LC6
	call	_libintl_dgettext
LVL692:
	mov	DWORD PTR [esp+4], eax
	mov	DWORD PTR [esp], ebp
	call	_purple_request_field_choice_add
LVL693:
	.loc 1 323 0
	mov	DWORD PTR [esp+4], OFFSET FLAT:LC106
	mov	DWORD PTR [esp], OFFSET FLAT:LC6
	call	_libintl_dgettext
LVL694:
	mov	DWORD PTR [esp+4], eax
	mov	DWORD PTR [esp], ebp
	call	_purple_request_field_choice_add
LVL695:
	.loc 1 324 0
	mov	DWORD PTR [esp+4], ebp
	mov	DWORD PTR [esp], edi
	call	_purple_request_field_group_add_field
LVL696:
	.loc 1 327 0
	mov	DWORD PTR [esp+4], OFFSET FLAT:LC107
	mov	DWORD PTR [esp], OFFSET FLAT:LC6
	call	_libintl_dgettext
LVL697:
	.loc 1 326 0
	mov	DWORD PTR [esp+8], 0
	mov	DWORD PTR [esp+4], eax
	mov	DWORD PTR [esp], OFFSET FLAT:LC108
	call	_purple_request_field_bool_new
LVL698:
	.loc 1 328 0
	mov	DWORD PTR [esp+4], eax
	mov	DWORD PTR [esp], edi
	call	_purple_request_field_group_add_field
LVL699:
	.loc 1 330 0
	mov	DWORD PTR [esp], ebx
	call	_purple_connection_get_account
LVL700:
	.loc 1 336 0
	mov	DWORD PTR [esp+4], OFFSET FLAT:LC61
	mov	DWORD PTR [esp], OFFSET FLAT:LC6
	mov	DWORD PTR [esp+68], eax
	call	_libintl_dgettext
LVL701:
	.loc 1 335 0
	mov	DWORD PTR [esp+4], OFFSET FLAT:LC90
	mov	DWORD PTR [esp], OFFSET FLAT:LC6
	mov	DWORD PTR [esp+72], eax
	call	_libintl_dgettext
LVL702:
	mov	ebp, eax
	.loc 1 333 0
	mov	DWORD PTR [esp+4], OFFSET FLAT:LC109
	mov	DWORD PTR [esp], OFFSET FLAT:LC6
	call	_libintl_dgettext
LVL703:
	mov	edi, eax
LVL704:
	.loc 1 332 0
	mov	DWORD PTR [esp+4], OFFSET FLAT:LC110
	mov	DWORD PTR [esp], OFFSET FLAT:LC6
	call	_libintl_dgettext
LVL705:
	mov	DWORD PTR [esp+76], eax
	.loc 1 331 0
	mov	DWORD PTR [esp+4], OFFSET FLAT:LC110
	mov	DWORD PTR [esp], OFFSET FLAT:LC6
	call	_libintl_dgettext
LVL706:
	.loc 1 330 0
	mov	DWORD PTR [esp+48], ebx
	mov	DWORD PTR [esp+44], 0
	mov	DWORD PTR [esp+40], 0
	mov	ecx, DWORD PTR [esp+68]
	mov	DWORD PTR [esp+36], ecx
	mov	DWORD PTR [esp+32], 0
	mov	edx, DWORD PTR [esp+72]
	mov	DWORD PTR [esp+28], edx
	mov	DWORD PTR [esp+24], OFFSET FLAT:_ggp_callback_find_buddies
	mov	DWORD PTR [esp+20], ebp
	mov	DWORD PTR [esp+16], esi
	mov	DWORD PTR [esp+12], edi
	mov	edx, DWORD PTR [esp+76]
	mov	DWORD PTR [esp+8], edx
	mov	DWORD PTR [esp+4], eax
	mov	DWORD PTR [esp], ebx
	call	_purple_request_fields
LVL707:
	.loc 1 339 0
	mov	eax, DWORD PTR [esp+92]
	xor	eax, DWORD PTR ___stack_chk_guard
	jne	L363
	add	esp, 108
LCFI311:
	.cfi_remember_state
	.cfi_def_cfa_offset 20
	pop	ebx
LCFI312:
	.cfi_restore 3
	.cfi_def_cfa_offset 16
LVL708:
	pop	esi
LCFI313:
	.cfi_restore 6
	.cfi_def_cfa_offset 12
LVL709:
	pop	edi
LCFI314:
	.cfi_restore 7
	.cfi_def_cfa_offset 8
	pop	ebp
LCFI315:
	.cfi_restore 5
	.cfi_def_cfa_offset 4
	ret
LVL710:
L363:
LCFI316:
	.cfi_restore_state
	call	___stack_chk_fail
LVL711:
	.cfi_endproc
LFE103:
	.section .rdata,"dr"
LC111:
	.ascii "2\0"
LC112:
	.ascii "1\0"
	.align 4
LC113:
	.ascii "ggp_callback_find_buddies(): Added seq %u\12\0"
	.text
	.p2align 2,,3
	.def	_ggp_callback_find_buddies;	.scl	3;	.type	32;	.endef
_ggp_callback_find_buddies:
LFB102:
	.loc 1 244 0
	.cfi_startproc
LVL712:
	push	ebp
LCFI317:
	.cfi_def_cfa_offset 8
	.cfi_offset 5, -8
	push	edi
LCFI318:
	.cfi_def_cfa_offset 12
	.cfi_offset 7, -12
	push	esi
LCFI319:
	.cfi_def_cfa_offset 16
	.cfi_offset 6, -16
	push	ebx
LCFI320:
	.cfi_def_cfa_offset 20
	.cfi_offset 3, -20
	sub	esp, 44
LCFI321:
	.cfi_def_cfa_offset 64
	mov	ebp, DWORD PTR [esp+64]
	mov	esi, DWORD PTR [esp+68]
	.loc 1 244 0
	mov	eax, DWORD PTR ___stack_chk_guard
	mov	DWORD PTR [esp+28], eax
	xor	eax, eax
	.loc 1 245 0
	mov	edi, DWORD PTR [ebp+28]
LVL713:
	.loc 1 249 0
	mov	DWORD PTR [esp], 1
	call	_ggp_search_form_new
LVL714:
	mov	ebx, eax
LVL715:
	.loc 1 251 0
	mov	DWORD PTR [eax+44], edi
	.loc 1 253 0
	mov	DWORD PTR [esp+4], OFFSET FLAT:LC93
	mov	DWORD PTR [esp], esi
	call	_purple_request_fields_get_string
LVL716:
	.loc 1 252 0
	mov	DWORD PTR [esp], eax
	call	_g_strdup
LVL717:
	mov	DWORD PTR [ebx+4], eax
	.loc 1 255 0
	mov	DWORD PTR [esp+4], OFFSET FLAT:LC95
	mov	DWORD PTR [esp], esi
	call	_purple_request_fields_get_string
LVL718:
	.loc 1 254 0
	mov	DWORD PTR [esp], eax
	call	_g_strdup
LVL719:
	mov	DWORD PTR [ebx+8], eax
	.loc 1 257 0
	mov	DWORD PTR [esp+4], OFFSET FLAT:LC97
	mov	DWORD PTR [esp], esi
	call	_purple_request_fields_get_string
LVL720:
	.loc 1 256 0
	mov	DWORD PTR [esp], eax
	call	_g_strdup
LVL721:
	mov	DWORD PTR [ebx+12], eax
	.loc 1 259 0
	mov	DWORD PTR [esp+4], OFFSET FLAT:LC99
	mov	DWORD PTR [esp], esi
	call	_purple_request_fields_get_string
LVL722:
	.loc 1 258 0
	mov	DWORD PTR [esp], eax
	call	_g_strdup
LVL723:
	mov	DWORD PTR [ebx+16], eax
	.loc 1 261 0
	mov	DWORD PTR [esp+4], OFFSET FLAT:LC101
	mov	DWORD PTR [esp], esi
	call	_purple_request_fields_get_string
LVL724:
	.loc 1 260 0
	mov	DWORD PTR [esp], eax
	call	_g_strdup
LVL725:
	mov	DWORD PTR [ebx+20], eax
	.loc 1 263 0
	mov	DWORD PTR [esp+4], OFFSET FLAT:LC103
	mov	DWORD PTR [esp], esi
	call	_purple_request_fields_get_choice
LVL726:
	cmp	eax, 1
	je	L366
	cmp	eax, 2
	je	L374
	.loc 1 271 0
	mov	DWORD PTR [ebx+24], 0
L368:
	.loc 1 275 0
	mov	DWORD PTR [esp+4], OFFSET FLAT:LC108
	mov	DWORD PTR [esp], esi
	call	_purple_request_fields_get_bool
LVL727:
	.loc 1 276 0
	test	eax, eax
	jne	L375
	xor	eax, eax
L369:
	.loc 1 275 0
	mov	DWORD PTR [ebx+28], eax
	.loc 1 278 0
	mov	DWORD PTR [esp+4], ebx
	mov	DWORD PTR [esp], ebp
	call	_ggp_search_start
LVL728:
	mov	esi, eax
LVL729:
	.loc 1 279 0
	mov	DWORD PTR [esp+8], ebx
	mov	DWORD PTR [esp+4], eax
	mov	eax, DWORD PTR [edi+12]
LVL730:
	mov	DWORD PTR [esp], eax
	call	_ggp_search_add
LVL731:
	.loc 1 280 0
	mov	DWORD PTR [esp+8], esi
	mov	DWORD PTR [esp+4], OFFSET FLAT:LC113
	mov	DWORD PTR [esp], OFFSET FLAT:LC2
	call	_purple_debug_info
LVL732:
	.loc 1 282 0
	mov	eax, DWORD PTR [esp+28]
	xor	eax, DWORD PTR ___stack_chk_guard
	jne	L376
	add	esp, 44
LCFI322:
	.cfi_remember_state
	.cfi_def_cfa_offset 20
	pop	ebx
LCFI323:
	.cfi_restore 3
	.cfi_def_cfa_offset 16
LVL733:
	pop	esi
LCFI324:
	.cfi_restore 6
	.cfi_def_cfa_offset 12
LVL734:
	pop	edi
LCFI325:
	.cfi_restore 7
	.cfi_def_cfa_offset 8
LVL735:
	pop	ebp
LCFI326:
	.cfi_restore 5
	.cfi_def_cfa_offset 4
	ret
LVL736:
	.p2align 2,,3
L375:
LCFI327:
	.cfi_restore_state
	.loc 1 276 0 discriminator 1
	mov	DWORD PTR [esp], OFFSET FLAT:LC112
	call	_g_strdup
LVL737:
	jmp	L369
	.p2align 2,,3
L374:
	.loc 1 268 0
	mov	DWORD PTR [esp], OFFSET FLAT:LC112
	call	_g_strdup
LVL738:
	mov	DWORD PTR [ebx+24], eax
	.loc 1 269 0
	jmp	L368
	.p2align 2,,3
L366:
	.loc 1 265 0
	mov	DWORD PTR [esp], OFFSET FLAT:LC111
	call	_g_strdup
LVL739:
	mov	DWORD PTR [ebx+24], eax
	.loc 1 266 0
	jmp	L368
LVL740:
L376:
	.loc 1 282 0
	call	___stack_chk_fail
LVL741:
	.cfi_endproc
LFE102:
	.section .rdata,"dr"
	.align 4
LC114:
	.ascii "Loading Gadu-Gadu protocol plugin with libgadu %s...\12\0"
	.text
	.p2align 2,,3
	.def	_ggp_load;	.scl	3;	.type	32;	.endef
_ggp_load:
LFB147:
	.loc 1 2246 0
	.cfi_startproc
LVL742:
	sub	esp, 44
LCFI328:
	.cfi_def_cfa_offset 48
	.loc 1 2246 0
	mov	eax, DWORD PTR ___stack_chk_guard
	mov	DWORD PTR [esp+28], eax
	xor	eax, eax
	.loc 1 2247 0
	call	_gg_libgadu_version
LVL743:
	mov	DWORD PTR [esp+8], eax
	mov	DWORD PTR [esp+4], OFFSET FLAT:LC114
	mov	DWORD PTR [esp], OFFSET FLAT:LC2
	call	_purple_debug_info
LVL744:
	.loc 1 2250 0
	call	_gg_is_gpl_compliant
LVL745:
	.loc 1 2253 0
	mov	eax, 1
	mov	edx, DWORD PTR [esp+28]
	xor	edx, DWORD PTR ___stack_chk_guard
	jne	L380
	add	esp, 44
LCFI329:
	.cfi_remember_state
	.cfi_def_cfa_offset 4
	ret
L380:
LCFI330:
	.cfi_restore_state
	call	___stack_chk_fail
LVL746:
	.cfi_endproc
LFE147:
	.section .rdata,"dr"
	.align 4
LC115:
	.ascii "Not connected to the server or gg_session is not correct\12\0"
LC116:
	.ascii "Not connected to the server\0"
	.text
	.p2align 2,,3
	.def	_ggp_keepalive;	.scl	3;	.type	32;	.endef
_ggp_keepalive:
LFB144:
	.loc 1 2200 0
	.cfi_startproc
LVL747:
	push	ebx
LCFI331:
	.cfi_def_cfa_offset 8
	.cfi_offset 3, -8
	sub	esp, 40
LCFI332:
	.cfi_def_cfa_offset 48
	mov	ebx, DWORD PTR [esp+48]
	.loc 1 2200 0
	mov	eax, DWORD PTR ___stack_chk_guard
	mov	DWORD PTR [esp+28], eax
	xor	eax, eax
LVL748:
	.loc 1 2205 0
	mov	eax, DWORD PTR [ebx+28]
	mov	eax, DWORD PTR [eax]
	mov	DWORD PTR [esp], eax
	call	_gg_ping
LVL749:
	test	eax, eax
	js	L385
L381:
	.loc 1 2212 0
	mov	eax, DWORD PTR [esp+28]
	xor	eax, DWORD PTR ___stack_chk_guard
	jne	L386
	add	esp, 40
LCFI333:
	.cfi_remember_state
	.cfi_def_cfa_offset 8
	pop	ebx
LCFI334:
	.cfi_restore 3
	.cfi_def_cfa_offset 4
	ret
	.p2align 2,,3
L385:
LCFI335:
	.cfi_restore_state
LVL750:
LBB40:
LBB41:
	.loc 1 2206 0
	mov	DWORD PTR [esp+4], OFFSET FLAT:LC115
	mov	DWORD PTR [esp], OFFSET FLAT:LC2
	call	_purple_debug_info
LVL751:
	.loc 1 2210 0
	mov	DWORD PTR [esp+4], OFFSET FLAT:LC116
	mov	DWORD PTR [esp], OFFSET FLAT:LC6
	call	_libintl_dgettext
LVL752:
	.loc 1 2208 0
	mov	DWORD PTR [esp+8], eax
	mov	DWORD PTR [esp+4], 0
	mov	DWORD PTR [esp], ebx
	call	_purple_connection_error_reason
LVL753:
	jmp	L381
LVL754:
L386:
LBE41:
LBE40:
	.loc 1 2212 0
	call	___stack_chk_fail
LVL755:
	.cfi_endproc
LFE144:
	.section .rdata,"dr"
	.align 4
LC117:
	.ascii "ggp_update_buddy_avatar: disabled, please update to 3.0.0, when available\12\0"
LC118:
	.ascii "%u\0"
	.align 4
LC119:
	.ascii "GG_EVENT_NOTIFY: Unknown status: %d\12\0"
LC120:
	.ascii "\0"
LC121:
	.ascii "status of %u is %s [%s]\12\0"
	.text
	.p2align 2,,3
	.def	_ggp_generic_status_handler;	.scl	3;	.type	32;	.endef
_ggp_generic_status_handler:
LFB111:
	.loc 1 666 0
	.cfi_startproc
LVL756:
	push	ebp
LCFI336:
	.cfi_def_cfa_offset 8
	.cfi_offset 5, -8
	push	edi
LCFI337:
	.cfi_def_cfa_offset 12
	.cfi_offset 7, -12
	push	esi
LCFI338:
	.cfi_def_cfa_offset 16
	.cfi_offset 6, -16
	push	ebx
LCFI339:
	.cfi_def_cfa_offset 20
	.cfi_offset 3, -20
	sub	esp, 76
LCFI340:
	.cfi_def_cfa_offset 96
	mov	DWORD PTR [esp+44], eax
	mov	esi, edx
	mov	ebp, DWORD PTR [esp+96]
	.loc 1 666 0
	mov	eax, DWORD PTR ___stack_chk_guard
	mov	DWORD PTR [esp+60], eax
	xor	eax, eax
LVL757:
LBB44:
LBB45:
	.loc 1 637 0
	mov	DWORD PTR [esp+4], OFFSET FLAT:LC117
	mov	DWORD PTR [esp], OFFSET FLAT:LC2
	mov	DWORD PTR [esp+40], ecx
	call	_purple_debug_warning
LVL758:
LBE45:
LBE44:
	.loc 1 673 0
	mov	DWORD PTR [esp+4], esi
	mov	DWORD PTR [esp], OFFSET FLAT:LC118
	call	_g_strdup_printf
LVL759:
	mov	ebx, eax
LVL760:
	.loc 1 675 0
	mov	ecx, DWORD PTR [esp+40]
	cmp	ecx, 34
	jbe	L406
L388:
	.loc 1 701 0
	mov	DWORD PTR [esp], 2
	mov	DWORD PTR [esp+40], ecx
	call	_purple_primitive_get_id_from_type
LVL761:
	mov	edi, eax
LVL762:
	.loc 1 702 0
	mov	ecx, DWORD PTR [esp+40]
	mov	DWORD PTR [esp+8], ecx
	mov	DWORD PTR [esp+4], OFFSET FLAT:LC119
	mov	DWORD PTR [esp], OFFSET FLAT:LC2
	call	_purple_debug_info
LVL763:
	.p2align 2,,3
L392:
	.loc 1 707 0
	test	ebp, ebp
	je	L396
	.loc 1 708 0
	mov	DWORD PTR [esp], ebp
	call	_g_strdup
LVL764:
	mov	ebp, eax
LVL765:
	.loc 1 709 0
	mov	DWORD PTR [esp], eax
	call	_g_strchug
LVL766:
	mov	DWORD PTR [esp], eax
	call	_g_strchomp
LVL767:
	.loc 1 710 0
	cmp	BYTE PTR [ebp+0], 0
	je	L407
	.loc 1 716 0
	mov	DWORD PTR [esp+16], ebp
	mov	DWORD PTR [esp+12], edi
	mov	DWORD PTR [esp+8], esi
	mov	DWORD PTR [esp+4], OFFSET FLAT:LC121
	mov	DWORD PTR [esp], OFFSET FLAT:LC2
	call	_purple_debug_info
LVL768:
	.loc 1 722 0
	mov	eax, DWORD PTR [esp+44]
	mov	DWORD PTR [esp], eax
	call	_purple_connection_get_account
LVL769:
	mov	DWORD PTR [esp+20], 0
	mov	DWORD PTR [esp+16], ebp
	mov	DWORD PTR [esp+12], OFFSET FLAT:LC15
	mov	DWORD PTR [esp+8], edi
	mov	DWORD PTR [esp+4], ebx
	mov	DWORD PTR [esp], eax
	call	_purple_prpl_got_user_status
LVL770:
	.loc 1 724 0
	mov	DWORD PTR [esp], ebp
	call	_g_free
LVL771:
	jmp	L399
	.p2align 2,,3
L407:
	.loc 1 711 0
	mov	DWORD PTR [esp], ebp
	call	_g_free
LVL772:
L396:
	.loc 1 716 0
	mov	DWORD PTR [esp+16], OFFSET FLAT:LC120
	mov	DWORD PTR [esp+12], edi
	mov	DWORD PTR [esp+8], esi
	mov	DWORD PTR [esp+4], OFFSET FLAT:LC121
	mov	DWORD PTR [esp], OFFSET FLAT:LC2
	call	_purple_debug_info
LVL773:
	.loc 1 719 0
	mov	eax, DWORD PTR [esp+44]
	mov	DWORD PTR [esp], eax
	call	_purple_connection_get_account
LVL774:
	mov	DWORD PTR [esp+12], 0
	mov	DWORD PTR [esp+8], edi
	mov	DWORD PTR [esp+4], ebx
	mov	DWORD PTR [esp], eax
	call	_purple_prpl_got_user_status
LVL775:
L399:
	.loc 1 726 0
	mov	eax, DWORD PTR [esp+60]
	xor	eax, DWORD PTR ___stack_chk_guard
	jne	L408
	mov	DWORD PTR [esp+96], ebx
	.loc 1 727 0
	add	esp, 76
LCFI341:
	.cfi_remember_state
	.cfi_def_cfa_offset 20
	pop	ebx
LCFI342:
	.cfi_restore 3
	.cfi_def_cfa_offset 16
LVL776:
	pop	esi
LCFI343:
	.cfi_restore 6
	.cfi_def_cfa_offset 12
LVL777:
	pop	edi
LCFI344:
	.cfi_restore 7
	.cfi_def_cfa_offset 8
LVL778:
	pop	ebp
LCFI345:
	.cfi_restore 5
	.cfi_def_cfa_offset 4
	.loc 1 726 0
	jmp	_g_free
LVL779:
	.p2align 2,,3
L406:
LCFI346:
	.cfi_restore_state
	.loc 1 675 0
	jmp	[DWORD PTR L395[0+ecx*4]]
	.section .rdata,"dr"
	.align 4
L395:
	.long	L388
	.long	L389
	.long	L390
	.long	L391
	.long	L390
	.long	L391
	.long	L401
	.long	L388
	.long	L388
	.long	L388
	.long	L388
	.long	L388
	.long	L388
	.long	L388
	.long	L388
	.long	L388
	.long	L388
	.long	L388
	.long	L388
	.long	L388
	.long	L388
	.long	L389
	.long	L388
	.long	L390
	.long	L390
	.long	L388
	.long	L388
	.long	L388
	.long	L388
	.long	L388
	.long	L388
	.long	L388
	.long	L388
	.long	L394
	.long	L394
	.text
	.p2align 2,,3
L390:
	.loc 1 686 0
	mov	DWORD PTR [esp], 2
	call	_purple_primitive_get_id_from_type
LVL780:
	mov	edi, eax
LVL781:
	.loc 1 687 0
	jmp	L392
LVL782:
	.p2align 2,,3
L391:
	.loc 1 690 0
	mov	DWORD PTR [esp], 5
	call	_purple_primitive_get_id_from_type
LVL783:
	mov	edi, eax
LVL784:
	.loc 1 691 0
	jmp	L392
LVL785:
	.p2align 2,,3
L389:
	.loc 1 678 0
	mov	DWORD PTR [esp], 1
	call	_purple_primitive_get_id_from_type
LVL786:
	mov	edi, eax
LVL787:
	.loc 1 679 0
	jmp	L392
LVL788:
	.p2align 2,,3
L401:
	.loc 1 698 0
	mov	edi, OFFSET FLAT:LC66
	jmp	L392
	.p2align 2,,3
L394:
	.loc 1 694 0
	mov	DWORD PTR [esp], 3
	call	_purple_primitive_get_id_from_type
LVL789:
	mov	edi, eax
LVL790:
	.loc 1 695 0
	jmp	L392
LVL791:
L408:
	.loc 1 726 0
	call	___stack_chk_fail
LVL792:
	.cfi_endproc
LFE111:
	.section .rdata,"dr"
LC122:
	.ascii "TLS enabled: %d\12\0"
LC123:
	.ascii "Connecting\0"
LC124:
	.ascii "info\0"
LC125:
	.ascii "none\0"
LC126:
	.ascii "encryption\0"
	.align 4
LC127:
	.ascii "Requested encryption type: %s\12\0"
LC128:
	.ascii "opportunistic_tls\0"
	.text
	.p2align 2,,3
	.def	_ggp_login_to.part.2;	.scl	3;	.type	32;	.endef
_ggp_login_to.part.2:
LFB153:
	.loc 1 1677 0
	.cfi_startproc
LVL793:
	push	ebp
LCFI347:
	.cfi_def_cfa_offset 8
	.cfi_offset 5, -8
	push	edi
LCFI348:
	.cfi_def_cfa_offset 12
	.cfi_offset 7, -12
	push	esi
LCFI349:
	.cfi_def_cfa_offset 16
	.cfi_offset 6, -16
	push	ebx
LCFI350:
	.cfi_def_cfa_offset 20
	.cfi_offset 3, -20
	sub	esp, 60
LCFI351:
	.cfi_def_cfa_offset 80
	mov	esi, eax
	mov	DWORD PTR [esp+28], edx
	.loc 1 1677 0
	mov	eax, DWORD PTR ___stack_chk_guard
	mov	DWORD PTR [esp+44], eax
	xor	eax, eax
LVL794:
	.loc 1 1689 0
	mov	DWORD PTR [esp], esi
	call	_purple_account_get_connection
LVL795:
	mov	DWORD PTR [esp+24], eax
LVL796:
	.loc 1 1690 0
	mov	DWORD PTR [esp], 142
	call	_g_malloc0
LVL797:
	mov	ebx, eax
LVL798:
	.loc 1 1691 0
	mov	eax, DWORD PTR [esp+24]
LVL799:
	mov	ebp, DWORD PTR [eax+28]
LVL800:
LBB46:
	.loc 1 1692 0
	test	ebp, ebp
	je	L426
LVL801:
LBE46:
	.loc 1 1695 0
	mov	DWORD PTR [ebp+0], 0
	.loc 1 1696 0
	mov	DWORD PTR [ebp+8], 0
	.loc 1 1697 0
	mov	DWORD PTR [ebp+16], 0
	.loc 1 1698 0
	mov	DWORD PTR [ebp+4], 0
	.loc 1 1699 0
	call	_ggp_search_new
LVL802:
	mov	DWORD PTR [ebp+12], eax
	.loc 1 1700 0
	mov	DWORD PTR [ebp+20], 0
	.loc 1 1701 0
	mov	DWORD PTR [esp+4], OFFSET FLAT:_g_direct_equal
	mov	DWORD PTR [esp], OFFSET FLAT:_g_direct_hash
	call	_g_hash_table_new
LVL803:
	mov	DWORD PTR [ebp+24], eax
	.loc 1 1702 0
	mov	DWORD PTR [esp+8], 1
	mov	DWORD PTR [esp+4], OFFSET FLAT:LC30
	mov	DWORD PTR [esp], esi
	call	_purple_account_get_bool
LVL804:
	mov	DWORD PTR [ebp+28], eax
	.loc 1 1704 0
	mov	DWORD PTR [esp], esi
	call	_ggp_get_uin
LVL805:
	mov	DWORD PTR [ebx], eax
	.loc 1 1705 0
	mov	DWORD PTR [esp], esi
	call	_purple_account_get_password
LVL806:
	mov	DWORD PTR [ebx+4], eax
	.loc 1 1706 0
	mov	DWORD PTR [ebx+58], 255
	.loc 1 1708 0
	mov	DWORD PTR [esp], esi
	call	_purple_account_get_presence
LVL807:
	.loc 1 1709 0
	mov	DWORD PTR [esp], eax
	call	_purple_presence_get_active_status
LVL808:
	.loc 1 1711 0
	mov	DWORD PTR [ebx+70], 1
	.loc 1 1712 0
	mov	DWORD PTR [ebx+78], 8208
	.loc 1 1715 0
	mov	DWORD PTR [ebx+8], 1
	.loc 1 1716 0
	lea	edx, [ebx+16]
	call	_ggp_to_gg_status
LVL809:
	mov	DWORD PTR [ebx+12], eax
	.loc 1 1718 0
	mov	DWORD PTR [esp+8], OFFSET FLAT:LC125
	mov	DWORD PTR [esp+4], OFFSET FLAT:LC126
	mov	DWORD PTR [esp], esi
	call	_purple_account_get_string
LVL810:
	mov	esi, eax
LVL811:
	.loc 1 1719 0
	mov	DWORD PTR [esp+8], eax
	mov	DWORD PTR [esp+4], OFFSET FLAT:LC127
	mov	DWORD PTR [esp], OFFSET FLAT:LC2
	call	_purple_debug_info
LVL812:
	.loc 1 1720 0
	mov	edi, OFFSET FLAT:LC128
	mov	ecx, 18
	repe cmpsb
LVL813:
	je	L417
	.loc 1 1723 0
	mov	DWORD PTR [ebx+54], 0
	xor	eax, eax
L412:
	.loc 1 1724 0
	mov	DWORD PTR [esp+8], eax
	mov	DWORD PTR [esp+4], OFFSET FLAT:LC122
	mov	DWORD PTR [esp], OFFSET FLAT:LC2
	call	_purple_debug_info
LVL814:
	.loc 1 1726 0
	mov	eax, DWORD PTR [ebp+28]
	test	eax, eax
	jne	L413
	.loc 1 1727 0
	or	DWORD PTR [ebx+12], 32768
L413:
	.loc 1 1728 0
	mov	edx, DWORD PTR [esp+28]
	mov	DWORD PTR [ebx+20], edx
	.loc 1 1730 0
	mov	DWORD PTR [esp], ebx
	call	_gg_login
LVL815:
	mov	DWORD PTR [ebp+0], eax
	.loc 1 1731 0
	mov	DWORD PTR [esp+4], OFFSET FLAT:LC123
	mov	DWORD PTR [esp], OFFSET FLAT:LC6
	call	_libintl_dgettext
LVL816:
	mov	DWORD PTR [esp+12], 2
	mov	DWORD PTR [esp+8], 0
	mov	DWORD PTR [esp+4], eax
	mov	eax, DWORD PTR [esp+24]
	mov	DWORD PTR [esp], eax
	call	_purple_connection_update_progress
LVL817:
	.loc 1 1732 0
	mov	edx, DWORD PTR [ebp+0]
	test	edx, edx
	je	L427
	.loc 1 1740 0
	mov	ecx, DWORD PTR [edx+4]
LVL818:
	.loc 1 70 0
	mov	eax, ecx
	shr	eax
	.loc 1 68 0
	and	eax, 1
LVL819:
LBB47:
LBB48:
	.loc 1 72 0
	and	ecx, 1
LVL820:
	je	L416
	.loc 1 73 0
	or	eax, 2
LVL821:
L416:
LBE48:
LBE47:
	.loc 1 1739 0
	mov	ecx, DWORD PTR [esp+24]
	mov	DWORD PTR [esp+12], ecx
	mov	DWORD PTR [esp+8], OFFSET FLAT:_ggp_async_login_handler
	mov	DWORD PTR [esp+4], eax
	mov	eax, DWORD PTR [edx]
LVL822:
	mov	DWORD PTR [esp], eax
	call	_purple_input_add
LVL823:
	mov	edx, DWORD PTR [esp+24]
	mov	DWORD PTR [edx+20], eax
LVL824:
L409:
	.loc 1 1742 0
	mov	ecx, DWORD PTR [esp+44]
	xor	ecx, DWORD PTR ___stack_chk_guard
	jne	L428
	add	esp, 60
LCFI352:
	.cfi_remember_state
	.cfi_def_cfa_offset 20
	pop	ebx
LCFI353:
	.cfi_restore 3
	.cfi_def_cfa_offset 16
LVL825:
	pop	esi
LCFI354:
	.cfi_restore 6
	.cfi_def_cfa_offset 12
	pop	edi
LCFI355:
	.cfi_restore 7
	.cfi_def_cfa_offset 8
	pop	ebp
LCFI356:
	.cfi_restore 5
	.cfi_def_cfa_offset 4
LVL826:
	ret
LVL827:
	.p2align 2,,3
L417:
LCFI357:
	.cfi_restore_state
	.loc 1 1721 0
	mov	DWORD PTR [ebx+54], 1
	mov	eax, 1
	jmp	L412
LVL828:
	.p2align 2,,3
L426:
	.loc 1 1692 0
	mov	DWORD PTR [esp+8], OFFSET FLAT:LC124
	mov	DWORD PTR [esp+4], OFFSET FLAT:___PRETTY_FUNCTION__.46056
	mov	DWORD PTR [esp], 0
	call	_g_return_if_fail_warning
LVL829:
	jmp	L409
LVL830:
	.p2align 2,,3
L427:
	.loc 1 1735 0
	mov	DWORD PTR [esp+4], OFFSET FLAT:LC50
	mov	DWORD PTR [esp], OFFSET FLAT:LC6
	call	_libintl_dgettext
LVL831:
	.loc 1 1733 0
	mov	DWORD PTR [esp+8], eax
	mov	DWORD PTR [esp+4], 0
	mov	eax, DWORD PTR [esp+24]
	mov	DWORD PTR [esp], eax
	call	_purple_connection_error_reason
LVL832:
	.loc 1 1736 0
	mov	DWORD PTR [esp], ebx
	call	_g_free
LVL833:
	jmp	L409
LVL834:
L428:
	.loc 1 1742 0
	call	___stack_chk_fail
LVL835:
	.cfi_endproc
LFE153:
	.section .rdata,"dr"
	.align 4
LC129:
	.ascii "Unable to resolve hostname: %s\0"
	.text
	.p2align 2,,3
	.def	_ggp_login_resolved;	.scl	3;	.type	32;	.endef
_ggp_login_resolved:
LFB131:
	.loc 1 1746 0
	.cfi_startproc
LVL836:
	push	ebp
LCFI358:
	.cfi_def_cfa_offset 8
	.cfi_offset 5, -8
	push	edi
LCFI359:
	.cfi_def_cfa_offset 12
	.cfi_offset 7, -12
	push	esi
LCFI360:
	.cfi_def_cfa_offset 16
	.cfi_offset 6, -16
	push	ebx
LCFI361:
	.cfi_def_cfa_offset 20
	.cfi_offset 3, -20
	sub	esp, 60
LCFI362:
	.cfi_def_cfa_offset 80
	mov	ebp, DWORD PTR [esp+80]
	mov	esi, DWORD PTR [esp+84]
	mov	edx, DWORD PTR [esp+88]
	mov	DWORD PTR [esp+28], edx
	.loc 1 1746 0
	mov	eax, DWORD PTR ___stack_chk_guard
	mov	DWORD PTR [esp+44], eax
	xor	eax, eax
LVL837:
	.loc 1 1752 0
	mov	DWORD PTR [esp], esi
	call	_purple_account_get_connection
LVL838:
	mov	edi, eax
LVL839:
	.loc 1 1753 0
	mov	eax, DWORD PTR [eax+28]
LVL840:
LBB55:
	.loc 1 1754 0
	test	eax, eax
	je	L452
LVL841:
LBE55:
	.loc 1 1755 0
	mov	DWORD PTR [eax+32], 0
LVL842:
	.loc 1 1757 0
	xor	ebx, ebx
	test	ebp, ebp
	jne	L446
	jmp	L441
LVL843:
	.p2align 2,,3
L432:
LBB56:
	.loc 1 1766 0
	mov	DWORD PTR [esp], edx
	call	_g_free
LVL844:
	.loc 1 1767 0
	mov	DWORD PTR [esp+4], ebp
	mov	DWORD PTR [esp], ebp
	call	_g_slist_delete_link
LVL845:
	mov	ebp, eax
LVL846:
LBE56:
	.loc 1 1757 0
	test	eax, eax
	je	L433
LVL847:
L446:
	.loc 1 1757 0 is_stmt 0 discriminator 2
	mov	DWORD PTR [esp+4], ebp
	mov	DWORD PTR [esp], ebp
	call	_g_slist_delete_link
LVL848:
	mov	ebp, eax
LVL849:
	test	eax, eax
	je	L433
LBB58:
	.loc 1 1758 0 is_stmt 1
	mov	edx, DWORD PTR [ebp+0]
LVL850:
	.loc 1 1760 0
	cmp	WORD PTR [edx], 2
	jne	L432
	.loc 1 1760 0 is_stmt 0 discriminator 1
	test	ebx, ebx
	jne	L432
LVL851:
LBB57:
	.loc 1 1763 0 is_stmt 1
	mov	ebx, DWORD PTR [edx+4]
LVL852:
	jmp	L432
LVL853:
	.p2align 2,,3
L433:
LBE57:
LBE58:
	.loc 1 1770 0
	test	ebx, ebx
	je	L441
LVL854:
LBB59:
LBB60:
	.loc 1 1686 0
	mov	eax, esi
LVL855:
	call	_ggp_setup_proxy
LVL856:
	inc	eax
	je	L429
	mov	edx, DWORD PTR [esp+44]
	xor	edx, DWORD PTR ___stack_chk_guard
	jne	L451
	mov	edx, ebx
	mov	eax, esi
LBE60:
LBE59:
	.loc 1 1781 0
	add	esp, 60
LCFI363:
	.cfi_remember_state
	.cfi_def_cfa_offset 20
	pop	ebx
LCFI364:
	.cfi_restore 3
	.cfi_def_cfa_offset 16
LVL857:
	pop	esi
LCFI365:
	.cfi_restore 6
	.cfi_def_cfa_offset 12
LVL858:
	pop	edi
LCFI366:
	.cfi_restore 7
	.cfi_def_cfa_offset 8
LVL859:
	pop	ebp
LCFI367:
	.cfi_restore 5
	.cfi_def_cfa_offset 4
LVL860:
	jmp	_ggp_login_to.part.2
LVL861:
	.p2align 2,,3
L441:
LCFI368:
	.cfi_restore_state
LBB61:
	.loc 1 1772 0
	mov	DWORD PTR [esp+4], OFFSET FLAT:LC129
	mov	DWORD PTR [esp], OFFSET FLAT:LC6
	call	_libintl_dgettext
LVL862:
	.loc 1 1771 0
	mov	edx, DWORD PTR [esp+28]
	mov	DWORD PTR [esp+4], edx
	mov	DWORD PTR [esp], eax
	call	_g_strdup_printf
LVL863:
	mov	ebx, eax
LVL864:
	.loc 1 1773 0
	mov	DWORD PTR [esp+8], eax
	mov	DWORD PTR [esp+4], 0
	mov	DWORD PTR [esp], edi
	call	_purple_connection_error_reason
LVL865:
	.loc 1 1776 0
	mov	eax, DWORD PTR [esp+44]
	xor	eax, DWORD PTR ___stack_chk_guard
	jne	L451
	mov	DWORD PTR [esp+80], ebx
LBE61:
	.loc 1 1781 0
	add	esp, 60
LCFI369:
	.cfi_remember_state
	.cfi_def_cfa_offset 20
	pop	ebx
LCFI370:
	.cfi_restore 3
	.cfi_def_cfa_offset 16
LVL866:
	pop	esi
LCFI371:
	.cfi_restore 6
	.cfi_def_cfa_offset 12
LVL867:
	pop	edi
LCFI372:
	.cfi_restore 7
	.cfi_def_cfa_offset 8
LVL868:
	pop	ebp
LCFI373:
	.cfi_restore 5
	.cfi_def_cfa_offset 4
LVL869:
LBB62:
	.loc 1 1776 0
	jmp	_g_free
LVL870:
	.p2align 2,,3
L429:
LCFI374:
	.cfi_restore_state
LBE62:
	.loc 1 1781 0
	mov	edx, DWORD PTR [esp+44]
	xor	edx, DWORD PTR ___stack_chk_guard
	jne	L451
	add	esp, 60
LCFI375:
	.cfi_remember_state
	.cfi_def_cfa_offset 20
	pop	ebx
LCFI376:
	.cfi_restore 3
	.cfi_def_cfa_offset 16
LVL871:
	pop	esi
LCFI377:
	.cfi_restore 6
	.cfi_def_cfa_offset 12
LVL872:
	pop	edi
LCFI378:
	.cfi_restore 7
	.cfi_def_cfa_offset 8
LVL873:
	pop	ebp
LCFI379:
	.cfi_restore 5
	.cfi_def_cfa_offset 4
LVL874:
	ret
LVL875:
	.p2align 2,,3
L452:
LCFI380:
	.cfi_restore_state
	.loc 1 1754 0
	mov	eax, DWORD PTR [esp+44]
	xor	eax, DWORD PTR ___stack_chk_guard
LVL876:
	jne	L451
	mov	DWORD PTR [esp+88], OFFSET FLAT:LC124
	mov	DWORD PTR [esp+84], OFFSET FLAT:___PRETTY_FUNCTION__.46068
	mov	DWORD PTR [esp+80], 0
	.loc 1 1781 0
	add	esp, 60
LCFI381:
	.cfi_remember_state
	.cfi_def_cfa_offset 20
	pop	ebx
LCFI382:
	.cfi_restore 3
	.cfi_def_cfa_offset 16
	pop	esi
LCFI383:
	.cfi_restore 6
	.cfi_def_cfa_offset 12
LVL877:
	pop	edi
LCFI384:
	.cfi_restore 7
	.cfi_def_cfa_offset 8
LVL878:
	pop	ebp
LCFI385:
	.cfi_restore 5
	.cfi_def_cfa_offset 4
	.loc 1 1754 0
	jmp	_g_return_if_fail_warning
LVL879:
L451:
LCFI386:
	.cfi_restore_state
	.loc 1 1781 0
	call	___stack_chk_fail
LVL880:
	.cfi_endproc
LFE131:
	.section .rdata,"dr"
LC130:
	.ascii "Add to chat\0"
	.text
	.p2align 2,,3
	.def	_ggp_blist_node_menu;	.scl	3;	.type	32;	.endef
_ggp_blist_node_menu:
LFB128:
	.loc 1 1642 0
	.cfi_startproc
LVL881:
	push	ebx
LCFI387:
	.cfi_def_cfa_offset 8
	.cfi_offset 3, -8
	sub	esp, 40
LCFI388:
	.cfi_def_cfa_offset 48
	mov	ebx, DWORD PTR [esp+48]
	.loc 1 1642 0
	mov	eax, DWORD PTR ___stack_chk_guard
	mov	DWORD PTR [esp+28], eax
	xor	eax, eax
LVL882:
	.loc 1 1648 0
	mov	DWORD PTR [esp], ebx
	call	_purple_blist_node_get_type
LVL883:
	cmp	eax, 2
	jne	L457
LVL884:
LBB65:
LBB66:
	.loc 1 1651 0
	mov	DWORD PTR [esp], ebx
	call	_purple_buddy_get_account
LVL885:
	.loc 1 1652 0
	mov	DWORD PTR [esp], eax
	call	_purple_account_get_connection
LVL886:
	.loc 1 1653 0
	mov	eax, DWORD PTR [eax+28]
LVL887:
	mov	eax, DWORD PTR [eax+8]
LVL888:
	test	eax, eax
	je	L457
	.loc 1 1654 0
	mov	DWORD PTR [esp+4], OFFSET FLAT:LC130
	mov	DWORD PTR [esp], OFFSET FLAT:LC6
	call	_libintl_dgettext
LVL889:
	mov	DWORD PTR [esp+12], 0
	mov	DWORD PTR [esp+8], 0
	mov	DWORD PTR [esp+4], OFFSET FLAT:_ggp_bmenu_add_to_chat
	mov	DWORD PTR [esp], eax
	call	_purple_menu_action_new
LVL890:
	.loc 1 1657 0
	mov	DWORD PTR [esp+4], eax
	mov	DWORD PTR [esp], 0
	call	_g_list_append
LVL891:
	jmp	L454
LVL892:
	.p2align 2,,3
L457:
LBE66:
LBE65:
	.loc 1 1649 0
	xor	eax, eax
L454:
	.loc 1 1661 0
	mov	edx, DWORD PTR [esp+28]
	xor	edx, DWORD PTR ___stack_chk_guard
	jne	L460
	add	esp, 40
LCFI389:
	.cfi_remember_state
	.cfi_def_cfa_offset 8
	pop	ebx
LCFI390:
	.cfi_restore 3
	.cfi_def_cfa_offset 4
	ret
L460:
LCFI391:
	.cfi_restore_state
	call	___stack_chk_fail
LVL893:
	.cfi_endproc
LFE128:
	.section .rdata,"dr"
LC131:
	.ascii "No chat selected\12\0"
LC132:
	.ascii "conn != NULL\0"
	.text
	.p2align 2,,3
	.def	_ggp_callback_add_to_chat_ok;	.scl	3;	.type	32;	.endef
_ggp_callback_add_to_chat_ok:
LFB106:
	.loc 1 399 0
	.cfi_startproc
LVL894:
	push	edi
LCFI392:
	.cfi_def_cfa_offset 8
	.cfi_offset 7, -8
	push	esi
LCFI393:
	.cfi_def_cfa_offset 12
	.cfi_offset 6, -12
	push	ebx
LCFI394:
	.cfi_def_cfa_offset 16
	.cfi_offset 3, -16
	sub	esp, 32
LCFI395:
	.cfi_def_cfa_offset 48
	mov	esi, DWORD PTR [esp+48]
	mov	edi, DWORD PTR [esp+52]
	.loc 1 399 0
	mov	eax, DWORD PTR ___stack_chk_guard
	mov	DWORD PTR [esp+28], eax
	xor	eax, eax
	.loc 1 404 0
	mov	DWORD PTR [esp], esi
	call	_purple_buddy_get_account
LVL895:
	mov	DWORD PTR [esp], eax
	call	_purple_account_get_connection
LVL896:
	mov	ebx, eax
LVL897:
LBB71:
	.loc 1 406 0
	test	eax, eax
	je	L473
LVL898:
LBE71:
	.loc 1 408 0
	mov	DWORD PTR [esp+4], OFFSET FLAT:LC3
	mov	DWORD PTR [esp], edi
	call	_purple_request_fields_get_field
LVL899:
	.loc 1 409 0
	mov	DWORD PTR [esp], eax
	call	_purple_request_field_list_get_selected
LVL900:
	mov	edi, eax
LVL901:
	.loc 1 411 0
	test	eax, eax
	je	L474
	.loc 1 416 0
	mov	DWORD PTR [esp], esi
	call	_purple_buddy_get_name
LVL902:
	mov	DWORD PTR [esp], eax
	call	_ggp_str_to_uin
LVL903:
	mov	DWORD PTR [esp+8], eax
	mov	eax, DWORD PTR [edi]
	mov	DWORD PTR [esp+4], eax
	mov	DWORD PTR [esp], ebx
	call	_ggp_confer_participants_add_uin
LVL904:
L461:
	.loc 1 418 0
	mov	eax, DWORD PTR [esp+28]
	xor	eax, DWORD PTR ___stack_chk_guard
	jne	L472
	add	esp, 32
LCFI396:
	.cfi_remember_state
	.cfi_def_cfa_offset 16
	pop	ebx
LCFI397:
	.cfi_restore 3
	.cfi_def_cfa_offset 12
LVL905:
	pop	esi
LCFI398:
	.cfi_restore 6
	.cfi_def_cfa_offset 8
	pop	edi
LCFI399:
	.cfi_restore 7
	.cfi_def_cfa_offset 4
	ret
LVL906:
	.p2align 2,,3
L473:
LCFI400:
	.cfi_restore_state
LBB72:
LBB73:
	.loc 1 406 0
	mov	DWORD PTR [esp+8], OFFSET FLAT:LC132
	mov	DWORD PTR [esp+4], OFFSET FLAT:___PRETTY_FUNCTION__.45744
	mov	DWORD PTR [esp], 0
	call	_g_return_if_fail_warning
LVL907:
	jmp	L461
LVL908:
	.p2align 2,,3
L474:
LBE73:
LBE72:
	.loc 1 412 0
	mov	eax, DWORD PTR [esp+28]
	xor	eax, DWORD PTR ___stack_chk_guard
LVL909:
	jne	L472
	mov	DWORD PTR [esp+52], OFFSET FLAT:LC131
	mov	DWORD PTR [esp+48], OFFSET FLAT:LC2
	.loc 1 418 0
	add	esp, 32
LCFI401:
	.cfi_remember_state
	.cfi_def_cfa_offset 16
	pop	ebx
LCFI402:
	.cfi_restore 3
	.cfi_def_cfa_offset 12
LVL910:
	pop	esi
LCFI403:
	.cfi_restore 6
	.cfi_def_cfa_offset 8
	pop	edi
LCFI404:
	.cfi_restore 7
	.cfi_def_cfa_offset 4
LVL911:
	.loc 1 412 0
	jmp	_purple_debug_error
LVL912:
L472:
LCFI405:
	.cfi_restore_state
	.loc 1 418 0
	call	___stack_chk_fail
LVL913:
	.cfi_endproc
LFE106:
	.section .rdata,"dr"
LC133:
	.ascii "(null)\12\0"
	.align 4
LC134:
	.ascii "failed to vprintf the following message: %s\0"
	.text
	.p2align 2,,3
	.def	_purple_gg_debug_handler;	.scl	3;	.type	32;	.endef
_purple_gg_debug_handler:
LFB148:
	.loc 1 2368 0
	.cfi_startproc
LVL914:
	push	edi
LCFI406:
	.cfi_def_cfa_offset 8
	.cfi_offset 7, -8
	push	esi
LCFI407:
	.cfi_def_cfa_offset 12
	.cfi_offset 6, -12
	push	ebx
LCFI408:
	.cfi_def_cfa_offset 16
	.cfi_offset 3, -16
	sub	esp, 32
LCFI409:
	.cfi_def_cfa_offset 48
	mov	edi, DWORD PTR [esp+48]
	mov	esi, DWORD PTR [esp+52]
	.loc 1 2368 0
	mov	eax, DWORD PTR ___stack_chk_guard
	mov	DWORD PTR [esp+28], eax
	xor	eax, eax
	.loc 1 2370 0
	mov	eax, DWORD PTR [esp+56]
	mov	DWORD PTR [esp+4], eax
	mov	DWORD PTR [esp], esi
	call	_g_strdup_vprintf
LVL915:
	mov	ebx, eax
LVL916:
	.loc 1 2372 0
	test	eax, eax
	je	L485
	xor	eax, eax
LVL917:
	cmp	edi, 8
	sete	al
	inc	eax
LVL918:
	.loc 1 2395 0
	mov	DWORD PTR [esp+12], ebx
	mov	DWORD PTR [esp+8], OFFSET FLAT:LC27
	mov	DWORD PTR [esp+4], OFFSET FLAT:LC2
	mov	DWORD PTR [esp], eax
	call	_purple_debug
LVL919:
	.loc 1 2396 0
	mov	eax, DWORD PTR [esp+28]
	xor	eax, DWORD PTR ___stack_chk_guard
	jne	L484
	mov	DWORD PTR [esp+48], ebx
	.loc 1 2397 0
	add	esp, 32
LCFI410:
	.cfi_remember_state
	.cfi_def_cfa_offset 16
	pop	ebx
LCFI411:
	.cfi_restore 3
	.cfi_def_cfa_offset 12
LVL920:
	pop	esi
LCFI412:
	.cfi_restore 6
	.cfi_def_cfa_offset 8
	pop	edi
LCFI413:
	.cfi_restore 7
	.cfi_def_cfa_offset 4
	.loc 1 2396 0
	jmp	_g_free
LVL921:
	.p2align 2,,3
L485:
LCFI414:
	.cfi_restore_state
LBB76:
LBB77:
	.loc 1 2373 0
	test	esi, esi
	je	L486
LVL922:
L477:
	mov	eax, DWORD PTR [esp+28]
	xor	eax, DWORD PTR ___stack_chk_guard
LVL923:
	jne	L484
	mov	DWORD PTR [esp+56], esi
	mov	DWORD PTR [esp+52], OFFSET FLAT:LC134
	mov	DWORD PTR [esp+48], OFFSET FLAT:LC2
LBE77:
LBE76:
	.loc 1 2397 0
	add	esp, 32
LCFI415:
	.cfi_remember_state
	.cfi_def_cfa_offset 16
	pop	ebx
LCFI416:
	.cfi_restore 3
	.cfi_def_cfa_offset 12
LVL924:
	pop	esi
LCFI417:
	.cfi_restore 6
	.cfi_def_cfa_offset 8
	pop	edi
LCFI418:
	.cfi_restore 7
	.cfi_def_cfa_offset 4
LBB79:
LBB78:
	.loc 1 2373 0
	jmp	_purple_debug_fatal
LVL925:
	.p2align 2,,3
L486:
LCFI419:
	.cfi_restore_state
	mov	esi, OFFSET FLAT:LC133
LVL926:
	jmp	L477
LVL927:
L484:
LBE78:
LBE79:
	.loc 1 2396 0
	call	___stack_chk_fail
LVL928:
	.cfi_endproc
LFE148:
	.section .rdata,"dr"
LC135:
	.ascii "(null)\0"
	.align 4
LC136:
	.ascii "ggp_callback_recv: gg_watch_fd failed -- CRITICAL!\12\0"
	.align 4
LC137:
	.ascii "ggp_recv_message_handler: NULL as message pointer\12\0"
LC138:
	.ascii "%lu\0"
	.align 4
LC139:
	.ascii "ggp_recv_message_handler: richtext msg from (%s): %s %i formats\12\0"
	.align 4
LC140:
	.ascii "ggp_recv_message_handler: bogus formatting (inc: %i)\12\0"
	.align 4
LC141:
	.ascii "ggp_recv_message_handler: format at pos: %i, image:%i, bold:%i, italic: %i, under:%i (inc: %i)\12\0"
	.align 4
LC142:
	.ascii "ggp_recv_message_handler: image received, size: %d, crc32: %i\12\0"
	.align 4
LC143:
	.ascii "ggp_recv_message_handler: received image large than 255 kb\12\0"
LC144:
	.ascii "<IMG ID=\"IMGID_HANDLER-%i\">\0"
LC145:
	.ascii "<b>\0"
LC146:
	.ascii "</b>\0"
LC147:
	.ascii "<i>\0"
LC148:
	.ascii "</i>\0"
LC149:
	.ascii "<u>\0"
LC150:
	.ascii "</u>\0"
	.align 4
LC151:
	.ascii "ggp_recv_message_handler: msg from (%s): %s (class = %d; rcpt_count = %d)\12\0"
	.align 4
LC152:
	.ascii "ggp_callback_recv: message sent to: %i, delivery status=%d, seq=%d\12\0"
LC153:
	.ascii "IMGID_HANDLER-%i\0"
	.align 4
LC154:
	.ascii "ggp_recv_image_handler: got image with crc32: %u\12\0"
LC155:
	.ascii "%s%i%s\0"
	.align 4
LC156:
	.ascii "ggp_recv_image_handler: found message matching crc32: %s\12\0"
LC157:
	.ascii "<IMG ID=\"IMGID_HANDLER\0"
	.align 4
LC158:
	.ascii "ggp_recv_image_handler: richtext message: %s\12\0"
	.align 4
LC159:
	.ascii "ggp_send_image_handler: image request received, crc32: %u, imgid: %d\12\0"
	.align 4
LC160:
	.ascii "ggp_send_image_handler: sending image imgid: %i, crc: %u\12\0"
	.align 4
LC161:
	.ascii "ggp_send_image_handler: image imgid: %i, crc: %u in hash but not found in imgstore!\12\0"
LC162:
	.ascii "notify_pre: (%d) status: %d\12\0"
	.align 4
LC163:
	.ascii "notify: (%d) status: %d; descr: %s\12\0"
	.align 4
LC164:
	.ascii "notify60: (%d) status=%d; version=%d; descr=%s\12\0"
	.align 4
LC165:
	.ascii "status: (%d) status=%d; descr=%s\12\0"
	.align 4
LC166:
	.ascii "status60: (%d) status=%d; version=%d; descr=%s\12\0"
	.align 4
LC167:
	.ascii "ggp_pubdir_reply_handler(): seq %u --> form %p\12\0"
	.align 4
LC168:
	.ascii "GG_EVENT_PUBDIR50_SEARCH_REPLY: Nothing found\12\0"
	.align 4
LC169:
	.ascii "There are no users matching your search criteria.\0"
LC170:
	.ascii "No matching users found\0"
LC171:
	.ascii "FmStatus\0"
LC172:
	.ascii "ggp_status_by_id: %d\12\0"
LC173:
	.ascii "Offline\0"
LC174:
	.ascii "Available\0"
LC175:
	.ascii "Chatty\0"
LC176:
	.ascii "Do Not Disturb\0"
LC177:
	.ascii "Away\0"
LC178:
	.ascii "Unknown\0"
LC179:
	.ascii "FmNumber\0"
LC180:
	.ascii "UIN\0"
LC181:
	.ascii "First Name\0"
LC182:
	.ascii "birthyear\0"
LC183:
	.ascii "Birth Year\0"
	.align 4
LC184:
	.ascii "ggp_pubdir_reply_handler: Unable to display the search results.\12\0"
	.align 4
LC185:
	.ascii "Unable to display the search results.\0"
LC186:
	.ascii "Going with %d entries\12\0"
LC187:
	.ascii "fmstart\0"
LC188:
	.ascii "start = %d\12\0"
LC189:
	.ascii "-\0"
LC190:
	.ascii "Search results\0"
LC191:
	.ascii "Gadu-Gadu Public Directory\0"
LC192:
	.ascii "Unknown search_type!\12\0"
LC193:
	.ascii "GG_EVENT_XML_EVENT\12\0"
LC194:
	.ascii "event\0"
LC195:
	.ascii "type\0"
LC196:
	.ascii "sender\0"
	.align 4
LC197:
	.ascii "ggp_xml_event_handler: avatar updated (uid: %u)\12\0"
	.align 4
LC198:
	.ascii "ggp_xml_event_handler: unsupported event type=%d from=%u\12\0"
LC199:
	.ascii "unsupported event type=%d\12\0"
LC200:
	.ascii "form != NULL\0"
	.text
	.p2align 2,,3
	.def	_ggp_callback_recv;	.scl	3;	.type	32;	.endef
_ggp_callback_recv:
LFB122:
	.loc 1 1301 0
	.cfi_startproc
LVL929:
	push	ebp
LCFI420:
	.cfi_def_cfa_offset 8
	.cfi_offset 5, -8
	push	edi
LCFI421:
	.cfi_def_cfa_offset 12
	.cfi_offset 7, -12
	push	esi
LCFI422:
	.cfi_def_cfa_offset 16
	.cfi_offset 6, -16
	push	ebx
LCFI423:
	.cfi_def_cfa_offset 20
	.cfi_offset 3, -20
	sub	esp, 124
LCFI424:
	.cfi_def_cfa_offset 144
	mov	esi, DWORD PTR [esp+144]
	.loc 1 1301 0
	mov	eax, DWORD PTR ___stack_chk_guard
	mov	DWORD PTR [esp+108], eax
	xor	eax, eax
LVL930:
	.loc 1 1303 0
	mov	ebx, DWORD PTR [esi+28]
LVL931:
	.loc 1 1307 0
	mov	eax, DWORD PTR [ebx]
	mov	DWORD PTR [esp], eax
	call	_gg_watch_fd
LVL932:
	mov	ebp, eax
LVL933:
	test	eax, eax
	je	L656
	.loc 1 1316 0
	mov	eax, DWORD PTR [esi+20]
LVL934:
	mov	DWORD PTR [esp], eax
	call	_purple_input_remove
LVL935:
	.loc 1 1318 0
	mov	edx, DWORD PTR [ebx]
	mov	ecx, DWORD PTR [edx+4]
LVL936:
	.loc 1 70 0
	mov	eax, ecx
	shr	eax
	.loc 1 68 0
	and	eax, 1
LVL937:
LBB115:
LBB116:
	.loc 1 72 0
	and	ecx, 1
LVL938:
	je	L490
	.loc 1 73 0
	or	eax, 2
LVL939:
L490:
LBE116:
LBE115:
	.loc 1 1317 0
	mov	DWORD PTR [esp+12], esi
	mov	DWORD PTR [esp+8], OFFSET FLAT:_ggp_callback_recv
	mov	DWORD PTR [esp+4], eax
	mov	eax, DWORD PTR [edx]
LVL940:
	mov	DWORD PTR [esp], eax
	call	_purple_input_add
LVL941:
	mov	DWORD PTR [esi+20], eax
	.loc 1 1321 0
	mov	eax, DWORD PTR [ebp+0]
	cmp	eax, 37
	jbe	L657
L491:
	.loc 1 1411 0
	mov	DWORD PTR [esp+8], eax
	mov	DWORD PTR [esp+4], OFFSET FLAT:LC199
	mov	DWORD PTR [esp], OFFSET FLAT:LC2
	call	_purple_debug_error
LVL942:
	.p2align 2,,3
L492:
	.loc 1 1416 0
	mov	edx, DWORD PTR [esp+108]
	xor	edx, DWORD PTR ___stack_chk_guard
	jne	L653
	mov	DWORD PTR [esp+144], ebp
	.loc 1 1417 0
	add	esp, 124
LCFI425:
	.cfi_remember_state
	.cfi_def_cfa_offset 20
	pop	ebx
LCFI426:
	.cfi_restore 3
	.cfi_def_cfa_offset 16
	pop	esi
LCFI427:
	.cfi_restore 6
	.cfi_def_cfa_offset 12
	pop	edi
LCFI428:
	.cfi_restore 7
	.cfi_def_cfa_offset 8
	pop	ebp
LCFI429:
	.cfi_restore 5
	.cfi_def_cfa_offset 4
	.loc 1 1416 0
	jmp	_gg_event_free
LVL943:
	.p2align 2,,3
L657:
LCFI430:
	.cfi_restore_state
	.loc 1 1321 0
	jmp	[DWORD PTR L504[0+eax*4]]
	.section .rdata,"dr"
	.align 4
L504:
	.long	L492
	.long	L493
	.long	L494
	.long	L494
	.long	L495
	.long	L496
	.long	L491
	.long	L491
	.long	L491
	.long	L491
	.long	L491
	.long	L491
	.long	L491
	.long	L491
	.long	L491
	.long	L491
	.long	L491
	.long	L491
	.long	L491
	.long	L497
	.long	L491
	.long	L491
	.long	L498
	.long	L499
	.long	L491
	.long	L500
	.long	L501
	.long	L491
	.long	L491
	.long	L491
	.long	L491
	.long	L491
	.long	L491
	.long	L491
	.long	L491
	.long	L502
	.long	L491
	.long	L503
	.text
	.p2align 2,,3
L503:
	.loc 1 1403 0
	mov	edi, DWORD PTR [ebp+8]
LVL944:
LBB117:
LBB118:
	.loc 1 1223 0
	mov	eax, DWORD PTR [ebp+4]
	mov	DWORD PTR [esp+4], eax
	mov	DWORD PTR [esp], OFFSET FLAT:LC118
	call	_g_strdup_printf
LVL945:
	mov	ebx, eax
LVL946:
	.loc 1 1224 0
	test	edi, edi
	jne	L658
	.loc 1 1227 0
	mov	DWORD PTR [esp+4], eax
	mov	DWORD PTR [esp], esi
	call	_serv_got_typing_stopped
LVL947:
L567:
	.loc 1 1228 0
	mov	DWORD PTR [esp], ebx
	call	_g_free
LVL948:
	jmp	L492
LVL949:
	.p2align 2,,3
L502:
LBE118:
LBE117:
	.loc 1 1407 0
	mov	DWORD PTR [esp+4], OFFSET FLAT:LC193
	mov	DWORD PTR [esp], OFFSET FLAT:LC2
	call	_purple_debug_info
LVL950:
LBB120:
LBB121:
	.loc 1 1244 0
	mov	DWORD PTR [esp+4], -1
	mov	eax, DWORD PTR [ebp+4]
	mov	DWORD PTR [esp], eax
	call	_xmlnode_from_str
LVL951:
	mov	DWORD PTR [esp+52], eax
LVL952:
	.loc 1 1245 0
	test	eax, eax
	je	L492
	.loc 1 1248 0
	mov	DWORD PTR [esp+4], OFFSET FLAT:LC194
	mov	DWORD PTR [esp], eax
	call	_xmlnode_get_child
LVL953:
	mov	ebx, eax
LVL954:
	.loc 1 1249 0
	test	eax, eax
	je	L568
	mov	DWORD PTR [esp+56], ebp
	jmp	L622
LVL955:
	.p2align 2,,3
L661:
LBB122:
	.loc 1 1268 0
	mov	DWORD PTR [esp], eax
	call	_atoi
LVL956:
	mov	edi, eax
LVL957:
L570:
	.loc 1 1269 0
	mov	DWORD PTR [esp], ebp
	call	_g_free
LVL958:
	.loc 1 1271 0
	mov	DWORD PTR [esp+4], OFFSET FLAT:LC196
	mov	DWORD PTR [esp], ebx
	call	_xmlnode_get_child
LVL959:
	.loc 1 1272 0
	test	eax, eax
	je	L586
	.loc 1 1274 0
	mov	DWORD PTR [esp], eax
	call	_xmlnode_get_data
LVL960:
	mov	ebx, eax
LVL961:
	.loc 1 1275 0
	test	eax, eax
	je	L587
	.loc 1 1276 0
	mov	DWORD PTR [esp], eax
	call	_ggp_str_to_uin
LVL962:
	mov	ebp, eax
LVL963:
L572:
	.loc 1 1277 0
	mov	DWORD PTR [esp], ebx
	call	_g_free
LVL964:
L571:
	.loc 1 1280 0
	cmp	edi, 28
	je	L659
	.loc 1 1289 0
	mov	DWORD PTR [esp+12], ebp
	mov	DWORD PTR [esp+8], edi
	mov	DWORD PTR [esp+4], OFFSET FLAT:LC198
	mov	DWORD PTR [esp], OFFSET FLAT:LC2
	call	_purple_debug_error
LVL965:
L569:
	mov	ebx, esi
LBE122:
	.loc 1 1249 0
	test	esi, esi
	je	L660
LVL966:
L622:
LBB125:
	.loc 1 1261 0
	mov	DWORD PTR [esp], ebx
	call	_xmlnode_get_next_twin
LVL967:
	mov	esi, eax
LVL968:
	.loc 1 1263 0
	mov	DWORD PTR [esp+4], OFFSET FLAT:LC195
	mov	DWORD PTR [esp], ebx
	call	_xmlnode_get_child
LVL969:
	.loc 1 1264 0
	test	eax, eax
	je	L569
	.loc 1 1266 0
	mov	DWORD PTR [esp], eax
	call	_xmlnode_get_data
LVL970:
	mov	ebp, eax
LVL971:
	.loc 1 1267 0
	test	eax, eax
	jne	L661
	.loc 1 1255 0
	xor	edi, edi
	jmp	L570
LVL972:
	.p2align 2,,3
L501:
LBE125:
LBE121:
LBE120:
LBB131:
LBB132:
	.loc 1 980 0
	mov	edx, DWORD PTR [esi+28]
	mov	DWORD PTR [esp+56], edx
LVL973:
	.loc 1 981 0
	mov	eax, DWORD PTR [edx+20]
	mov	DWORD PTR [esp], eax
	call	_g_list_first
LVL974:
	mov	edi, eax
LVL975:
	.loc 1 982 0
	mov	eax, DWORD PTR [ebp+12]
LVL976:
	mov	DWORD PTR [esp+4], eax
	mov	DWORD PTR [esp], OFFSET FLAT:LC153
	call	_g_strdup_printf
LVL977:
	mov	DWORD PTR [esp+52], eax
LVL978:
	.loc 1 987 0
	mov	edx, DWORD PTR [ebp+16]
	.loc 1 984 0
	mov	ebx, DWORD PTR [ebp+8]
LVL979:
	mov	DWORD PTR [esp+4], ebx
	mov	eax, DWORD PTR [ebp+20]
LVL980:
	mov	DWORD PTR [esp], eax
	mov	DWORD PTR [esp+44], edx
	call	_g_memdup
LVL981:
	mov	edx, DWORD PTR [esp+44]
	mov	DWORD PTR [esp+8], edx
	mov	DWORD PTR [esp+4], ebx
	mov	DWORD PTR [esp], eax
	call	_purple_imgstore_add_with_id
LVL982:
	mov	DWORD PTR [esp+60], eax
LVL983:
	.loc 1 989 0
	mov	eax, DWORD PTR [ebp+12]
LVL984:
	mov	DWORD PTR [esp+8], eax
	mov	DWORD PTR [esp+4], OFFSET FLAT:LC154
	mov	DWORD PTR [esp], OFFSET FLAT:LC2
	call	_purple_debug_info
LVL985:
	.loc 1 991 0
	test	edi, edi
	je	L524
	mov	ebx, DWORD PTR [esp+52]
	mov	DWORD PTR [esp+64], esi
LVL986:
	.p2align 2,,3
L621:
	.loc 1 992 0
	mov	esi, DWORD PTR [edi]
	mov	DWORD PTR [esp+4], ebx
	mov	DWORD PTR [esp], esi
	call	_strstr
LVL987:
	test	eax, eax
	jne	L662
	.loc 1 1010 0
	mov	edi, DWORD PTR [edi+4]
LVL988:
	.loc 1 991 0
	test	edi, edi
	jne	L621
L524:
	.loc 1 1012 0
	mov	eax, DWORD PTR [esp+52]
	mov	DWORD PTR [esp], eax
	call	_g_free
LVL989:
	jmp	L492
LVL990:
	.p2align 2,,3
L500:
LBE132:
LBE131:
	.loc 1 2439 0
	mov	esi, DWORD PTR [esi+28]
LVL991:
LBB138:
LBB139:
	.loc 1 1199 0
	mov	eax, DWORD PTR [ebp+12]
	mov	DWORD PTR [esp+4], eax
	mov	eax, DWORD PTR [esi+24]
	mov	DWORD PTR [esp], eax
	call	_g_hash_table_lookup
LVL992:
	mov	ebx, eax
LVL993:
	.loc 1 1201 0
	mov	DWORD PTR [esp+12], eax
	mov	eax, DWORD PTR [ebp+12]
LVL994:
	mov	DWORD PTR [esp+8], eax
	mov	DWORD PTR [esp+4], OFFSET FLAT:LC159
	mov	DWORD PTR [esp], OFFSET FLAT:LC2
	call	_purple_debug_info
LVL995:
	.loc 1 1203 0
	test	ebx, ebx
	je	L492
	.loc 1 1205 0
	mov	DWORD PTR [esp], ebx
	call	_purple_imgstore_find_by_id
LVL996:
	mov	edi, eax
LVL997:
	test	eax, eax
	je	L529
LBB140:
	.loc 1 1206 0
	mov	DWORD PTR [esp], eax
	call	_purple_imgstore_get_size
LVL998:
	.loc 1 1207 0
	mov	DWORD PTR [esp], edi
	mov	DWORD PTR [esp+44], eax
	call	_purple_imgstore_get_data
LVL999:
	mov	DWORD PTR [esp+52], eax
LVL1000:
	.loc 1 1208 0
	mov	DWORD PTR [esp], edi
	call	_purple_imgstore_get_filename
LVL1001:
	.loc 1 1210 0
	mov	ecx, DWORD PTR [ebp+12]
	mov	DWORD PTR [esp+12], ecx
	mov	DWORD PTR [esp+8], ebx
	mov	DWORD PTR [esp+4], OFFSET FLAT:LC160
	mov	DWORD PTR [esp], OFFSET FLAT:LC2
	mov	DWORD PTR [esp+48], eax
	call	_purple_debug_info
LVL1002:
	.loc 1 1211 0
	mov	edx, DWORD PTR [esp+44]
	mov	DWORD PTR [esp+16], edx
	mov	edx, DWORD PTR [esp+52]
	mov	DWORD PTR [esp+12], edx
	mov	eax, DWORD PTR [esp+48]
	mov	DWORD PTR [esp+8], eax
	mov	eax, DWORD PTR [ebp+4]
	mov	DWORD PTR [esp+4], eax
	mov	eax, DWORD PTR [esi]
	mov	DWORD PTR [esp], eax
	call	_gg_image_reply
LVL1003:
	.loc 1 1212 0
	mov	DWORD PTR [esp], edi
	call	_purple_imgstore_unref
LVL1004:
L530:
LBE140:
	.loc 1 1216 0
	mov	eax, DWORD PTR [ebp+12]
	mov	DWORD PTR [esp+4], eax
	mov	eax, DWORD PTR [esi+24]
	mov	DWORD PTR [esp], eax
	call	_g_hash_table_remove
LVL1005:
	jmp	L492
LVL1006:
	.p2align 2,,3
L499:
LBE139:
LBE138:
	.loc 1 1368 0 discriminator 1
	mov	eax, DWORD PTR [ebp+4]
	mov	edx, DWORD PTR [eax]
	test	edx, edx
	je	L492
	.loc 1 1368 0 is_stmt 0
	mov	ebx, 30
LVL1007:
	xor	edi, edi
	mov	ecx, eax
	jmp	L505
LVL1008:
	.p2align 2,,3
L536:
	.loc 1 1369 0 is_stmt 1
	mov	DWORD PTR [esp+20], eax
	mov	eax, DWORD PTR [ecx+14]
	mov	DWORD PTR [esp+16], eax
	mov	eax, DWORD PTR [ecx+4]
	and	eax, 255
	mov	DWORD PTR [esp+12], eax
	mov	DWORD PTR [esp+8], edx
	mov	DWORD PTR [esp+4], OFFSET FLAT:LC164
	mov	DWORD PTR [esp], OFFSET FLAT:LC2
	call	_purple_debug_info
LVL1009:
	.loc 1 1378 0
	add	edi, DWORD PTR [ebp+4]
	.loc 1 1376 0
	movzx	ecx, BYTE PTR [edi+4]
	mov	eax, DWORD PTR [edi+22]
	mov	DWORD PTR [esp], eax
	mov	edx, DWORD PTR [edi]
	mov	eax, esi
	call	_ggp_generic_status_handler
LVL1010:
	.loc 1 1368 0
	mov	ecx, DWORD PTR [ebp+4]
	add	ecx, ebx
	mov	edx, DWORD PTR [ecx]
	lea	eax, [ebx+30]
	mov	edi, ebx
	test	edx, edx
	je	L492
	mov	ebx, eax
L505:
	.loc 1 1374 0
	mov	eax, DWORD PTR [ecx+22]
	.loc 1 1369 0
	test	eax, eax
	jne	L536
	mov	eax, OFFSET FLAT:LC135
	jmp	L536
LVL1011:
	.p2align 2,,3
L498:
	.loc 1 1394 0
	mov	eax, DWORD PTR [ebp+26]
	.loc 1 1390 0
	test	eax, eax
	je	L663
L538:
	.loc 1 1390 0 is_stmt 0 discriminator 3
	mov	DWORD PTR [esp+20], eax
	mov	eax, DWORD PTR [ebp+18]
	mov	DWORD PTR [esp+16], eax
	movzx	eax, BYTE PTR [ebp+8]
	mov	DWORD PTR [esp+12], eax
	mov	eax, DWORD PTR [ebp+4]
	mov	DWORD PTR [esp+8], eax
	mov	DWORD PTR [esp+4], OFFSET FLAT:LC166
	mov	DWORD PTR [esp], OFFSET FLAT:LC2
	call	_purple_debug_info
LVL1012:
	.loc 1 1396 0 is_stmt 1 discriminator 3
	movzx	ecx, BYTE PTR [ebp+8]
	mov	edx, DWORD PTR [ebp+4]
	mov	eax, DWORD PTR [ebp+26]
	mov	DWORD PTR [esp], eax
	mov	eax, esi
	call	_ggp_generic_status_handler
LVL1013:
	.loc 1 1398 0 discriminator 3
	jmp	L492
	.p2align 2,,3
L497:
	.loc 1 1400 0
	mov	ebx, DWORD PTR [ebp+4]
LVL1014:
LBB142:
LBB143:
	.loc 1 938 0
	mov	edi, DWORD PTR [esi+28]
LVL1015:
	.loc 1 943 0
	mov	DWORD PTR [esp], ebx
	call	_gg_pubdir50_seq
LVL1016:
	mov	edx, eax
LVL1017:
	.loc 1 944 0
	mov	DWORD PTR [esp+4], eax
	mov	eax, DWORD PTR [edi+12]
LVL1018:
	mov	DWORD PTR [esp], eax
	mov	DWORD PTR [esp+44], edx
	call	_ggp_search_get
LVL1019:
	mov	DWORD PTR [esp+56], eax
LVL1020:
	.loc 1 945 0
	mov	DWORD PTR [esp+12], eax
	mov	edx, DWORD PTR [esp+44]
	mov	DWORD PTR [esp+8], edx
	mov	DWORD PTR [esp+4], OFFSET FLAT:LC167
	mov	DWORD PTR [esp], OFFSET FLAT:LC2
	call	_purple_debug_info
LVL1021:
LBB144:
	.loc 1 951 0
	mov	ecx, DWORD PTR [esp+56]
	test	ecx, ecx
	je	L664
LVL1022:
LBE144:
	.loc 1 953 0
	mov	DWORD PTR [esp], ebx
	call	_gg_pubdir50_count
LVL1023:
	.loc 1 954 0
	test	eax, eax
	jle	L665
	.loc 1 964 0
	mov	edx, DWORD PTR [esp+56]
	mov	eax, DWORD PTR [edx+32]
LVL1024:
	test	eax, eax
	jne	L666
LVL1025:
LBB145:
LBB146:
	.loc 1 786 0
	call	_purple_notify_user_info_new
LVL1026:
	mov	edi, eax
LVL1027:
	.loc 1 788 0
	mov	DWORD PTR [esp+8], OFFSET FLAT:LC171
	mov	DWORD PTR [esp+4], 0
	mov	DWORD PTR [esp], ebx
	call	_ggp_search_get_result
LVL1028:
	mov	DWORD PTR [esp+52], eax
LVL1029:
	.loc 1 790 0
	mov	DWORD PTR [esp], eax
	call	_ggp_str_to_uin
LVL1030:
LBB147:
LBB148:
	.loc 1 751 0
	mov	DWORD PTR [esp+8], eax
	mov	DWORD PTR [esp+4], OFFSET FLAT:LC172
	mov	DWORD PTR [esp], OFFSET FLAT:LC2
	mov	DWORD PTR [esp+48], eax
	call	_purple_debug_info
LVL1031:
	.loc 1 752 0
	mov	eax, DWORD PTR [esp+48]
	cmp	eax, 34
	jbe	L667
L544:
	.loc 1 772 0
	mov	DWORD PTR [esp+4], OFFSET FLAT:LC178
	mov	DWORD PTR [esp], OFFSET FLAT:LC6
	call	_libintl_dgettext
LVL1032:
	mov	DWORD PTR [esp+60], eax
LVL1033:
	.p2align 2,,3
L551:
LBE148:
LBE147:
	.loc 1 790 0
	mov	DWORD PTR [esp+4], OFFSET FLAT:LC68
	mov	DWORD PTR [esp], OFFSET FLAT:LC6
	call	_libintl_dgettext
LVL1034:
	mov	edx, DWORD PTR [esp+60]
	mov	DWORD PTR [esp+8], edx
	mov	DWORD PTR [esp+4], eax
	mov	DWORD PTR [esp], edi
	call	_purple_notify_user_info_add_pair
LVL1035:
	.loc 1 791 0
	mov	eax, DWORD PTR [esp+52]
	mov	DWORD PTR [esp], eax
	call	_g_free
LVL1036:
	.loc 1 793 0
	mov	DWORD PTR [esp+8], OFFSET FLAT:LC179
	mov	DWORD PTR [esp+4], 0
	mov	DWORD PTR [esp], ebx
	call	_ggp_search_get_result
LVL1037:
	mov	DWORD PTR [esp+52], eax
LVL1038:
	.loc 1 794 0
	mov	DWORD PTR [esp+4], OFFSET FLAT:LC180
	mov	DWORD PTR [esp], OFFSET FLAT:LC6
	call	_libintl_dgettext
LVL1039:
	mov	edx, DWORD PTR [esp+52]
	mov	DWORD PTR [esp+8], edx
	mov	DWORD PTR [esp+4], eax
	mov	DWORD PTR [esp], edi
	call	_purple_notify_user_info_add_pair
LVL1040:
	.loc 1 796 0
	mov	DWORD PTR [esp+8], OFFSET FLAT:LC95
	mov	DWORD PTR [esp+4], 0
	mov	DWORD PTR [esp], ebx
	call	_ggp_search_get_result
LVL1041:
	mov	DWORD PTR [esp+60], eax
LVL1042:
	.loc 1 797 0
	mov	DWORD PTR [esp+4], OFFSET FLAT:LC181
	mov	DWORD PTR [esp], OFFSET FLAT:LC6
	call	_libintl_dgettext
LVL1043:
	mov	edx, DWORD PTR [esp+60]
	mov	DWORD PTR [esp+8], edx
	mov	DWORD PTR [esp+4], eax
	mov	DWORD PTR [esp], edi
	call	_purple_notify_user_info_add_pair
LVL1044:
	.loc 1 798 0
	mov	eax, DWORD PTR [esp+60]
	mov	DWORD PTR [esp], eax
	call	_g_free
LVL1045:
	.loc 1 800 0
	mov	DWORD PTR [esp+8], OFFSET FLAT:LC97
	mov	DWORD PTR [esp+4], 0
	mov	DWORD PTR [esp], ebx
	call	_ggp_search_get_result
LVL1046:
	mov	DWORD PTR [esp+60], eax
LVL1047:
	.loc 1 801 0
	mov	DWORD PTR [esp+4], OFFSET FLAT:LC96
	mov	DWORD PTR [esp], OFFSET FLAT:LC6
	call	_libintl_dgettext
LVL1048:
	mov	edx, DWORD PTR [esp+60]
	mov	DWORD PTR [esp+8], edx
	mov	DWORD PTR [esp+4], eax
	mov	DWORD PTR [esp], edi
	call	_purple_notify_user_info_add_pair
LVL1049:
	.loc 1 802 0
	mov	eax, DWORD PTR [esp+60]
	mov	DWORD PTR [esp], eax
	call	_g_free
LVL1050:
	.loc 1 804 0
	mov	DWORD PTR [esp+8], OFFSET FLAT:LC99
	mov	DWORD PTR [esp+4], 0
	mov	DWORD PTR [esp], ebx
	call	_ggp_search_get_result
LVL1051:
	mov	DWORD PTR [esp+60], eax
LVL1052:
	.loc 1 805 0
	mov	DWORD PTR [esp+4], OFFSET FLAT:LC98
	mov	DWORD PTR [esp], OFFSET FLAT:LC6
	call	_libintl_dgettext
LVL1053:
	mov	edx, DWORD PTR [esp+60]
	mov	DWORD PTR [esp+8], edx
	mov	DWORD PTR [esp+4], eax
	mov	DWORD PTR [esp], edi
	call	_purple_notify_user_info_add_pair
LVL1054:
	.loc 1 806 0
	mov	eax, DWORD PTR [esp+60]
	mov	DWORD PTR [esp], eax
	call	_g_free
LVL1055:
	.loc 1 808 0
	mov	DWORD PTR [esp+8], OFFSET FLAT:LC182
	mov	DWORD PTR [esp+4], 0
	mov	DWORD PTR [esp], ebx
	call	_ggp_search_get_result
LVL1056:
	mov	ebx, eax
LVL1057:
	.loc 1 809 0
	cmp	BYTE PTR [eax], 48
	je	L552
	.loc 1 810 0
	mov	DWORD PTR [esp+4], OFFSET FLAT:LC183
	mov	DWORD PTR [esp], OFFSET FLAT:LC6
	call	_libintl_dgettext
LVL1058:
	mov	DWORD PTR [esp+8], ebx
	mov	DWORD PTR [esp+4], eax
	mov	DWORD PTR [esp], edi
	call	_purple_notify_user_info_add_pair
LVL1059:
L552:
	.loc 1 812 0
	mov	DWORD PTR [esp], ebx
	call	_g_free
LVL1060:
	.loc 1 817 0
	mov	DWORD PTR [esp], esi
	call	_purple_connection_get_account
LVL1061:
	mov	edx, DWORD PTR [esp+52]
	mov	DWORD PTR [esp+4], edx
	mov	DWORD PTR [esp], eax
	call	_purple_find_buddy
LVL1062:
	.loc 1 818 0
	test	eax, eax
	je	L554
LBB150:
	.loc 1 823 0
	mov	DWORD PTR [esp], eax
	call	_purple_buddy_get_presence
LVL1063:
	mov	DWORD PTR [esp], eax
	call	_purple_presence_get_active_status
LVL1064:
	.loc 1 824 0
	mov	DWORD PTR [esp+4], OFFSET FLAT:LC15
	mov	DWORD PTR [esp], eax
	call	_purple_status_get_attr_string
LVL1065:
	.loc 1 826 0
	test	eax, eax
	je	L554
	.loc 1 827 0
	mov	DWORD PTR [esp+4], -1
	mov	DWORD PTR [esp], eax
	call	_g_markup_escape_text
LVL1066:
	mov	ebx, eax
LVL1067:
	.loc 1 828 0
	mov	DWORD PTR [esp+4], OFFSET FLAT:LC64
	mov	DWORD PTR [esp], OFFSET FLAT:LC6
	call	_libintl_dgettext
LVL1068:
	mov	DWORD PTR [esp+8], ebx
	mov	DWORD PTR [esp+4], eax
	mov	DWORD PTR [esp], edi
	call	_purple_notify_user_info_add_pair
LVL1069:
	.loc 1 829 0
	mov	DWORD PTR [esp], ebx
	call	_g_free
LVL1070:
L554:
LBE150:
	.loc 1 833 0
	mov	eax, DWORD PTR [esp+56]
	mov	DWORD PTR [esp+16], eax
	mov	DWORD PTR [esp+12], OFFSET FLAT:_ggp_sr_close_cb
	mov	DWORD PTR [esp+8], edi
	mov	eax, DWORD PTR [esp+52]
	mov	DWORD PTR [esp+4], eax
	mov	DWORD PTR [esp], esi
	call	_purple_notify_userinfo
LVL1071:
	.loc 1 834 0
	mov	eax, DWORD PTR [esp+52]
	mov	DWORD PTR [esp], eax
	call	_g_free
LVL1072:
	.loc 1 835 0
	mov	DWORD PTR [esp], edi
	call	_purple_notify_user_info_destroy
LVL1073:
	jmp	L492
LVL1074:
	.p2align 2,,3
L496:
LBE146:
LBE145:
LBE143:
LBE142:
	.loc 1 1330 0
	mov	eax, DWORD PTR [ebp+12]
	mov	DWORD PTR [esp+16], eax
	mov	eax, DWORD PTR [ebp+8]
	mov	DWORD PTR [esp+12], eax
	mov	eax, DWORD PTR [ebp+4]
	mov	DWORD PTR [esp+8], eax
	mov	DWORD PTR [esp+4], OFFSET FLAT:LC152
	mov	DWORD PTR [esp], OFFSET FLAT:LC2
	call	_purple_debug_info
LVL1075:
	.loc 1 1334 0
	jmp	L492
	.p2align 2,,3
L495:
	.loc 1 1384 0
	mov	eax, DWORD PTR [ebp+12]
	.loc 1 1382 0
	test	eax, eax
	je	L668
L537:
	mov	DWORD PTR [esp+16], eax
	movzx	eax, BYTE PTR [ebp+8]
	mov	DWORD PTR [esp+12], eax
	mov	eax, DWORD PTR [ebp+4]
	mov	DWORD PTR [esp+8], eax
	mov	DWORD PTR [esp+4], OFFSET FLAT:LC165
	mov	DWORD PTR [esp], OFFSET FLAT:LC2
	call	_purple_debug_info
LVL1076:
	.loc 1 1386 0
	movzx	ecx, BYTE PTR [ebp+8]
	mov	edx, DWORD PTR [ebp+4]
	mov	eax, DWORD PTR [ebp+12]
	mov	DWORD PTR [esp], eax
	mov	eax, esi
	call	_ggp_generic_status_handler
LVL1077:
	.loc 1 1388 0
	jmp	L492
	.p2align 2,,3
L494:
LBB172:
	.loc 1 1349 0
	mov	eax, DWORD PTR [ebp+4]
	.loc 1 1347 0
	movzx	edx, BYTE PTR [eax+4]
	mov	DWORD PTR [esp+12], edx
	mov	eax, DWORD PTR [eax]
	mov	DWORD PTR [esp+8], eax
	mov	DWORD PTR [esp+4], OFFSET FLAT:LC162
	mov	DWORD PTR [esp], OFFSET FLAT:LC2
	call	_purple_debug_info
LVL1078:
	.loc 1 1351 0
	mov	eax, DWORD PTR [ebp+0]
	.loc 1 1352 0
	mov	ebx, DWORD PTR [ebp+4]
LVL1079:
	.loc 1 1354 0
	mov	edx, DWORD PTR [ebx]
	test	edx, edx
	jne	L643
	jmp	L492
	.p2align 2,,3
L669:
	.loc 1 1356 0 discriminator 1
	mov	eax, DWORD PTR [ebp+8]
LVL1080:
	.loc 1 1358 0 discriminator 1
	test	eax, eax
	je	L534
	.loc 1 1358 0 is_stmt 0
	mov	edi, eax
LVL1081:
L535:
	mov	DWORD PTR [esp+16], eax
	movzx	eax, BYTE PTR [ebx+4]
	mov	DWORD PTR [esp+12], eax
	mov	DWORD PTR [esp+8], edx
	mov	DWORD PTR [esp+4], OFFSET FLAT:LC163
	mov	DWORD PTR [esp], OFFSET FLAT:LC2
	call	_purple_debug_info
LVL1082:
	.loc 1 1362 0 is_stmt 1
	movzx	ecx, BYTE PTR [ebx+4]
	mov	DWORD PTR [esp], edi
	mov	edx, DWORD PTR [ebx]
	mov	eax, esi
	call	_ggp_generic_status_handler
LVL1083:
	.loc 1 1354 0
	add	ebx, 20
LVL1084:
	mov	edx, DWORD PTR [ebx]
	test	edx, edx
	je	L492
	mov	eax, DWORD PTR [ebp+0]
L643:
	.loc 1 1356 0
	cmp	eax, 2
	jne	L669
L534:
	.loc 1 1358 0
	xor	edi, edi
	mov	eax, OFFSET FLAT:LC135
	jmp	L535
LVL1085:
	.p2align 2,,3
L493:
LBE172:
LBB173:
LBB174:
	.loc 1 1028 0
	mov	edx, DWORD PTR [esi+28]
	mov	DWORD PTR [esp+80], edx
LVL1086:
	.loc 1 1034 0
	mov	ebx, DWORD PTR [ebp+16]
LVL1087:
	test	ebx, ebx
	je	L670
	.loc 1 1040 0
	mov	eax, DWORD PTR [ebp+4]
	mov	DWORD PTR [esp+4], eax
	mov	DWORD PTR [esp], OFFSET FLAT:LC138
	call	_g_strdup_printf
LVL1088:
	mov	DWORD PTR [esp+76], eax
LVL1089:
	.loc 1 1046 0
	mov	eax, DWORD PTR [ebp+16]
LVL1090:
	mov	DWORD PTR [esp+4], eax
	mov	DWORD PTR [esp], OFFSET FLAT:LC27
	call	_g_strdup_printf
LVL1091:
	mov	edi, eax
LVL1092:
	.loc 1 1047 0
	mov	DWORD PTR [esp+4], 13
	mov	DWORD PTR [esp], eax
	call	_purple_str_strip_char
LVL1093:
	.loc 1 1048 0
	mov	DWORD PTR [esp+4], -1
	mov	DWORD PTR [esp], edi
	call	_g_markup_escape_text
LVL1094:
	mov	ebx, eax
LVL1095:
	.loc 1 1049 0
	mov	DWORD PTR [esp], edi
	call	_g_free
LVL1096:
	.loc 1 1052 0
	mov	eax, DWORD PTR [ebp+28]
	test	eax, eax
	je	L507
LVL1097:
LBB175:
	.loc 1 1055 0
	mov	edi, DWORD PTR [ebp+32]
LVL1098:
	.loc 1 1056 0
	add	eax, edi
	mov	DWORD PTR [esp+60], eax
LVL1099:
	.loc 1 1060 0
	mov	DWORD PTR [esp], ebx
	call	_g_string_new
LVL1100:
	mov	DWORD PTR [esp+52], eax
LVL1101:
	.loc 1 1063 0
	mov	eax, DWORD PTR [ebp+28]
LVL1102:
	mov	DWORD PTR [esp+16], eax
	mov	DWORD PTR [esp+12], ebx
	mov	eax, DWORD PTR [esp+76]
	mov	DWORD PTR [esp+8], eax
	mov	DWORD PTR [esp+4], OFFSET FLAT:LC139
	mov	DWORD PTR [esp], OFFSET FLAT:LC2
	call	_purple_debug_info
LVL1103:
	.loc 1 1065 0
	cmp	edi, DWORD PTR [esp+60]
	jae	L508
	mov	DWORD PTR [esp+84], 0
	mov	DWORD PTR [esp+64], 0
	mov	DWORD PTR [esp+68], 0
	mov	DWORD PTR [esp+72], 0
	xor	edx, edx
LBB176:
	.loc 1 1102 0
	mov	DWORD PTR [esp+88], ebp
	mov	DWORD PTR [esp+92], esi
	mov	esi, edx
LVL1104:
	jmp	L520
LVL1105:
	.p2align 2,,3
L677:
	.loc 1 1108 0
	mov	ecx, DWORD PTR [esp+72]
	test	ecx, ecx
	je	L671
L515:
LVL1106:
	.loc 1 1119 0
	test	al, 2
	je	L516
	.loc 1 1120 0
	mov	ebp, DWORD PTR [esp+68]
	test	ebp, ebp
	je	L672
L517:
LVL1107:
	.loc 1 1131 0
	test	al, 4
	je	L518
	.loc 1 1132 0
	mov	edx, DWORD PTR [esp+64]
	test	edx, edx
	je	L673
L519:
LVL1108:
	.loc 1 1143 0
	test	al, 8
	je	L581
	.loc 1 1144 0
	add	edi, 6
LVL1109:
L511:
LBE176:
	.loc 1 1065 0
	cmp	DWORD PTR [esp+60], edi
	jbe	L674
LVL1110:
L520:
LBB177:
	.loc 1 1069 0
	lea	edx, [edi+3]
	mov	DWORD PTR [esp+56], edx
LVL1111:
	.loc 1 1070 0
	mov	bp, WORD PTR [edi]
	movzx	ecx, bp
	mov	eax, DWORD PTR [esp+52]
	mov	edx, DWORD PTR [eax]
LVL1112:
	lea	eax, [esi+ecx]
	mov	DWORD PTR [esp+4], eax
	mov	DWORD PTR [esp], edx
	mov	DWORD PTR [esp+44], edx
	mov	DWORD PTR [esp+48], ecx
	call	_g_utf8_offset_to_pointer
LVL1113:
	mov	ebx, eax
	mov	edx, DWORD PTR [esp+44]
	sub	ebx, edx
LVL1114:
	.loc 1 1072 0
	movsx	eax, BYTE PTR [edi+2]
	test	bp, bp
	mov	ecx, DWORD PTR [esp+48]
	jne	L510
	test	al, al
	je	L675
L510:
	.loc 1 1076 0
	mov	DWORD PTR [esp+28], esi
	mov	dl, al
	shr	dl, 2
	and	edx, 1
	mov	DWORD PTR [esp+24], edx
	mov	dl, al
	shr	dl
	and	edx, 1
	mov	DWORD PTR [esp+20], edx
	mov	edx, eax
	and	edx, 1
	mov	DWORD PTR [esp+16], edx
	shr	eax, 31
	mov	DWORD PTR [esp+12], eax
	mov	DWORD PTR [esp+8], ecx
	mov	DWORD PTR [esp+4], OFFSET FLAT:LC141
	mov	DWORD PTR [esp], OFFSET FLAT:LC2
	call	_purple_debug_info
LVL1115:
	.loc 1 1084 0
	mov	al, BYTE PTR [edi+2]
	test	al, al
	js	L676
	.loc 1 1107 0
	test	al, 1
	jne	L677
	.loc 1 1113 0
	mov	edx, DWORD PTR [esp+72]
	test	edx, edx
	je	L515
	.loc 1 1114 0
	mov	DWORD PTR [esp+8], OFFSET FLAT:LC146
	mov	DWORD PTR [esp+4], ebx
	mov	eax, DWORD PTR [esp+52]
	mov	DWORD PTR [esp], eax
	call	_g_string_insert
LVL1116:
	.loc 1 1115 0
	add	esi, 4
LVL1117:
	mov	al, BYTE PTR [edi+2]
	.loc 1 1116 0
	mov	DWORD PTR [esp+72], 0
	jmp	L515
LVL1118:
L508:
LBE177:
	.loc 1 1148 0
	mov	eax, DWORD PTR [esp+52]
	mov	ebx, DWORD PTR [eax]
LVL1119:
	.loc 1 1149 0
	mov	DWORD PTR [esp+4], 0
	mov	DWORD PTR [esp], eax
	call	_g_string_free
LVL1120:
	.p2align 2,,3
L507:
LBE175:
	.loc 1 1157 0
	mov	eax, DWORD PTR [ebp+20]
	mov	DWORD PTR [esp+20], eax
	mov	eax, DWORD PTR [ebp+8]
	mov	DWORD PTR [esp+16], eax
	mov	DWORD PTR [esp+12], ebx
	mov	eax, DWORD PTR [esp+76]
	mov	DWORD PTR [esp+8], eax
	mov	DWORD PTR [esp+4], OFFSET FLAT:LC151
	mov	DWORD PTR [esp], OFFSET FLAT:LC2
	call	_purple_debug_info
LVL1121:
	.loc 1 1161 0
	mov	eax, DWORD PTR [ebp+20]
	test	eax, eax
	je	L678
LBB182:
	.loc 1 1168 0
	mov	DWORD PTR [esp+8], eax
	mov	eax, DWORD PTR [ebp+24]
	mov	DWORD PTR [esp+4], eax
	mov	DWORD PTR [esp], esi
	call	_ggp_confer_find_by_participants
LVL1122:
	mov	edi, eax
LVL1123:
	.loc 1 1172 0
	test	eax, eax
	je	L679
LVL1124:
L523:
	.loc 1 1183 0
	mov	DWORD PTR [esp+4], edi
	mov	DWORD PTR [esp], esi
	call	_ggp_confer_find_by_name
LVL1125:
	.loc 1 1184 0
	mov	DWORD PTR [esp], eax
	call	_purple_conversation_get_chat_data
LVL1126:
	mov	DWORD PTR [esp], eax
	call	_purple_conv_chat_get_id
LVL1127:
	mov	edi, eax
LVL1128:
	.loc 1 1186 0
	mov	eax, DWORD PTR [ebp+4]
LVL1129:
	mov	DWORD PTR [esp+4], eax
	mov	DWORD PTR [esp], esi
	call	_ggp_buddy_get_name
LVL1130:
	.loc 1 1187 0
	mov	edx, DWORD PTR [ebp+12]
	mov	DWORD PTR [esp+20], edx
	mov	DWORD PTR [esp+16], ebx
	mov	DWORD PTR [esp+12], 2
	mov	DWORD PTR [esp+8], eax
	mov	DWORD PTR [esp+4], edi
	mov	DWORD PTR [esp], esi
	mov	DWORD PTR [esp+48], eax
	call	_serv_got_chat_in
LVL1131:
	.loc 1 1189 0
	mov	eax, DWORD PTR [esp+48]
	mov	DWORD PTR [esp], eax
	call	_g_free
LVL1132:
L522:
LBE182:
	.loc 1 1191 0
	mov	DWORD PTR [esp], ebx
	call	_g_free
LVL1133:
	.loc 1 1192 0
	mov	eax, DWORD PTR [esp+76]
	mov	DWORD PTR [esp], eax
	call	_g_free
LVL1134:
	jmp	L492
LVL1135:
	.p2align 2,,3
L656:
LBE174:
LBE173:
	.loc 1 1308 0
	mov	DWORD PTR [esp+4], OFFSET FLAT:LC136
	mov	DWORD PTR [esp], OFFSET FLAT:LC2
	call	_purple_debug_error
LVL1136:
	.loc 1 1312 0
	mov	DWORD PTR [esp+4], OFFSET FLAT:LC44
	mov	DWORD PTR [esp], OFFSET FLAT:LC6
	call	_libintl_dgettext
LVL1137:
	.loc 1 1310 0
	mov	edx, DWORD PTR [esp+108]
	xor	edx, DWORD PTR ___stack_chk_guard
	jne	L653
	mov	DWORD PTR [esp+152], eax
	mov	DWORD PTR [esp+148], 0
	mov	DWORD PTR [esp+144], esi
	.loc 1 1417 0
	add	esp, 124
LCFI431:
	.cfi_remember_state
	.cfi_def_cfa_offset 20
	pop	ebx
LCFI432:
	.cfi_restore 3
	.cfi_def_cfa_offset 16
LVL1138:
	pop	esi
LCFI433:
	.cfi_restore 6
	.cfi_def_cfa_offset 12
LVL1139:
	pop	edi
LCFI434:
	.cfi_restore 7
	.cfi_def_cfa_offset 8
	pop	ebp
LCFI435:
	.cfi_restore 5
	.cfi_def_cfa_offset 4
LVL1140:
	.loc 1 1310 0
	jmp	_purple_connection_error_reason
LVL1141:
	.p2align 2,,3
L666:
LCFI436:
	.cfi_restore_state
LBB195:
LBB166:
	.loc 1 964 0
	dec	eax
	je	L680
	.loc 1 972 0
	mov	DWORD PTR [esp+4], OFFSET FLAT:LC192
	mov	DWORD PTR [esp], OFFSET FLAT:LC2
	call	_purple_debug_warning
LVL1142:
	jmp	L492
LVL1143:
	.p2align 2,,3
L678:
LBE166:
LBE195:
LBB196:
LBB188:
	.loc 1 1162 0
	mov	eax, DWORD PTR [ebp+12]
	mov	DWORD PTR [esp+16], eax
	mov	DWORD PTR [esp+12], 0
	mov	DWORD PTR [esp+8], ebx
	mov	eax, DWORD PTR [esp+76]
	mov	DWORD PTR [esp+4], eax
	mov	DWORD PTR [esp], esi
	call	_serv_got_im
LVL1144:
	jmp	L522
LVL1145:
	.p2align 2,,3
L658:
LBE188:
LBE196:
LBB197:
LBB119:
	.loc 1 1225 0
	mov	DWORD PTR [esp+12], 1
	mov	DWORD PTR [esp+8], 0
	mov	DWORD PTR [esp+4], eax
	mov	DWORD PTR [esp], esi
	call	_serv_got_typing
LVL1146:
	jmp	L567
LVL1147:
	.p2align 2,,3
L659:
LBE119:
LBE197:
LBB198:
LBB128:
LBB126:
	.loc 1 1283 0
	mov	DWORD PTR [esp+8], ebp
	mov	DWORD PTR [esp+4], OFFSET FLAT:LC197
	mov	DWORD PTR [esp], OFFSET FLAT:LC2
	call	_purple_debug_info
LVL1148:
LBB123:
LBB124:
	.loc 1 637 0
	mov	DWORD PTR [esp+4], OFFSET FLAT:LC117
	mov	DWORD PTR [esp], OFFSET FLAT:LC2
	call	_purple_debug_warning
LVL1149:
	jmp	L569
LVL1150:
	.p2align 2,,3
L581:
LBE124:
LBE123:
LBE126:
LBE128:
LBE198:
LBB199:
LBB189:
LBB183:
LBB178:
	.loc 1 1069 0
	mov	edi, DWORD PTR [esp+56]
LVL1151:
	jmp	L511
LVL1152:
	.p2align 2,,3
L518:
	.loc 1 1137 0
	mov	ebp, DWORD PTR [esp+64]
	test	ebp, ebp
	je	L519
	.loc 1 1138 0
	mov	DWORD PTR [esp+8], OFFSET FLAT:LC150
	mov	DWORD PTR [esp+4], ebx
	mov	eax, DWORD PTR [esp+52]
	mov	DWORD PTR [esp], eax
	call	_g_string_insert
LVL1153:
	.loc 1 1139 0
	add	esi, 4
LVL1154:
	mov	al, BYTE PTR [edi+2]
	.loc 1 1140 0
	mov	DWORD PTR [esp+64], 0
	jmp	L519
LVL1155:
	.p2align 2,,3
L516:
	.loc 1 1125 0
	mov	ecx, DWORD PTR [esp+68]
	test	ecx, ecx
	je	L517
	.loc 1 1126 0
	mov	DWORD PTR [esp+8], OFFSET FLAT:LC148
	mov	DWORD PTR [esp+4], ebx
	mov	eax, DWORD PTR [esp+52]
	mov	DWORD PTR [esp], eax
	call	_g_string_insert
LVL1156:
	.loc 1 1127 0
	add	esi, 4
LVL1157:
	mov	al, BYTE PTR [edi+2]
	.loc 1 1128 0
	mov	DWORD PTR [esp+68], 0
	jmp	L517
LVL1158:
	.p2align 2,,3
L586:
LBE178:
LBE183:
LBE189:
LBE199:
LBB200:
LBB129:
LBB127:
	.loc 1 1259 0
	xor	ebp, ebp
LVL1159:
	jmp	L571
LVL1160:
	.p2align 2,,3
L587:
	xor	ebp, ebp
LVL1161:
	jmp	L572
LVL1162:
	.p2align 2,,3
L675:
LBE127:
LBE129:
LBE200:
LBB201:
LBB190:
LBB184:
LBB179:
	.loc 1 1073 0
	mov	DWORD PTR [esp+8], esi
	mov	DWORD PTR [esp+4], OFFSET FLAT:LC140
	mov	DWORD PTR [esp], OFFSET FLAT:LC2
	call	_purple_debug_warning
LVL1163:
	.loc 1 1069 0
	mov	edi, DWORD PTR [esp+56]
LVL1164:
	jmp	L511
LVL1165:
	.p2align 2,,3
L660:
	mov	ebp, DWORD PTR [esp+56]
LVL1166:
L568:
LBE179:
LBE184:
LBE190:
LBE201:
LBB202:
LBB130:
	.loc 1 1297 0
	mov	eax, DWORD PTR [esp+52]
	mov	DWORD PTR [esp], eax
	call	_xmlnode_free
LVL1167:
	jmp	L492
LVL1168:
	.p2align 2,,3
L662:
	mov	ebx, esi
	mov	esi, DWORD PTR [esp+64]
LBE130:
LBE202:
LBB203:
LBB136:
LBB133:
	.loc 1 993 0
	mov	DWORD PTR [esp+8], 3
	mov	eax, DWORD PTR [esp+52]
	mov	DWORD PTR [esp+4], eax
	mov	DWORD PTR [esp], ebx
	call	_g_strsplit
LVL1169:
	mov	edx, eax
LVL1170:
	.loc 1 994 0
	mov	eax, DWORD PTR [eax+4]
LVL1171:
	mov	DWORD PTR [esp+12], eax
	mov	eax, DWORD PTR [esp+60]
	mov	DWORD PTR [esp+8], eax
	mov	eax, DWORD PTR [edx]
	mov	DWORD PTR [esp+4], eax
	mov	DWORD PTR [esp], OFFSET FLAT:LC155
	mov	DWORD PTR [esp+44], edx
	call	_g_strdup_printf
LVL1172:
	mov	DWORD PTR [esp+60], eax
LVL1173:
	.loc 1 995 0
	mov	eax, DWORD PTR [edi]
LVL1174:
	mov	DWORD PTR [esp+8], eax
	mov	DWORD PTR [esp+4], OFFSET FLAT:LC156
	mov	DWORD PTR [esp], OFFSET FLAT:LC2
	call	_purple_debug_info
LVL1175:
	.loc 1 996 0
	mov	edx, DWORD PTR [esp+44]
	mov	DWORD PTR [esp], edx
	call	_g_strfreev
LVL1176:
	.loc 1 997 0
	mov	eax, DWORD PTR [edi]
	mov	DWORD PTR [esp+4], eax
	mov	edx, DWORD PTR [esp+56]
	mov	eax, DWORD PTR [edx+20]
	mov	DWORD PTR [esp], eax
	call	_g_list_remove
LVL1177:
	mov	ebx, eax
	mov	edx, DWORD PTR [esp+56]
	mov	DWORD PTR [edx+20], eax
	.loc 1 999 0
	mov	DWORD PTR [esp+4], OFFSET FLAT:LC157
	mov	eax, DWORD PTR [esp+60]
	mov	DWORD PTR [esp], eax
	call	_strstr
LVL1178:
	test	eax, eax
	je	L681
	.loc 1 1007 0
	mov	eax, DWORD PTR [esp+60]
	mov	DWORD PTR [esp+4], eax
	mov	DWORD PTR [esp], ebx
	call	_g_list_append
LVL1179:
	mov	edx, DWORD PTR [esp+56]
	mov	DWORD PTR [edx+20], eax
	jmp	L524
LVL1180:
	.p2align 2,,3
L676:
LBE133:
LBE136:
LBE203:
LBB204:
LBB191:
LBB185:
LBB180:
	.loc 1 1087 0
	lea	ebp, [edi+13]
LVL1181:
	.loc 1 1088 0
	mov	eax, DWORD PTR [edi+9]
	mov	DWORD PTR [esp+12], eax
	mov	eax, DWORD PTR [edi+5]
	mov	DWORD PTR [esp+8], eax
	mov	DWORD PTR [esp+4], OFFSET FLAT:LC142
	mov	DWORD PTR [esp], OFFSET FLAT:LC2
	call	_purple_debug_info
LVL1182:
	.loc 1 1092 0
	mov	eax, DWORD PTR [edi+5]
	cmp	eax, 255000
	jbe	L513
	.loc 1 1093 0
	mov	DWORD PTR [esp+4], OFFSET FLAT:LC143
	mov	DWORD PTR [esp], OFFSET FLAT:LC2
	call	_purple_debug_warning
LVL1183:
	.loc 1 1087 0
	mov	edi, ebp
LVL1184:
	.loc 1 1085 0
	mov	DWORD PTR [esp+84], 1
	jmp	L511
LVL1185:
	.p2align 2,,3
L673:
	.loc 1 1133 0
	mov	DWORD PTR [esp+8], OFFSET FLAT:LC149
	mov	DWORD PTR [esp+4], ebx
	mov	eax, DWORD PTR [esp+52]
	mov	DWORD PTR [esp], eax
	call	_g_string_insert
LVL1186:
	.loc 1 1134 0
	add	esi, 3
LVL1187:
	mov	al, BYTE PTR [edi+2]
	.loc 1 1135 0
	mov	DWORD PTR [esp+64], 1
	jmp	L519
LVL1188:
	.p2align 2,,3
L672:
	.loc 1 1121 0
	mov	DWORD PTR [esp+8], OFFSET FLAT:LC147
	mov	DWORD PTR [esp+4], ebx
	mov	eax, DWORD PTR [esp+52]
	mov	DWORD PTR [esp], eax
	call	_g_string_insert
LVL1189:
	.loc 1 1122 0
	add	esi, 3
LVL1190:
	mov	al, BYTE PTR [edi+2]
	.loc 1 1123 0
	mov	DWORD PTR [esp+68], 1
	jmp	L517
LVL1191:
	.p2align 2,,3
L671:
	.loc 1 1109 0
	mov	DWORD PTR [esp+8], OFFSET FLAT:LC145
	mov	DWORD PTR [esp+4], ebx
	mov	eax, DWORD PTR [esp+52]
	mov	DWORD PTR [esp], eax
	call	_g_string_insert
LVL1192:
	.loc 1 1110 0
	add	esi, 3
LVL1193:
	mov	al, BYTE PTR [edi+2]
	.loc 1 1111 0
	mov	DWORD PTR [esp+72], 1
	jmp	L515
LVL1194:
	.p2align 2,,3
L674:
	mov	ebp, DWORD PTR [esp+88]
	mov	esi, DWORD PTR [esp+92]
LVL1195:
LBE180:
	.loc 1 1148 0
	mov	eax, DWORD PTR [esp+52]
	mov	ebx, DWORD PTR [eax]
LVL1196:
	.loc 1 1149 0
	mov	DWORD PTR [esp+4], 0
	mov	DWORD PTR [esp], eax
	call	_g_string_free
LVL1197:
	.loc 1 1151 0
	mov	edi, DWORD PTR [esp+84]
LVL1198:
	test	edi, edi
	je	L507
	.loc 1 1152 0
	mov	DWORD PTR [esp+4], ebx
	mov	edx, DWORD PTR [esp+80]
	mov	eax, DWORD PTR [edx+20]
	mov	DWORD PTR [esp], eax
	call	_g_list_append
LVL1199:
	mov	edx, DWORD PTR [esp+80]
	mov	DWORD PTR [edx+20], eax
	jmp	L492
LVL1200:
L680:
LBE185:
LBE191:
LBE204:
LBB205:
LBB167:
LBB153:
LBB154:
	.loc 1 849 0
	mov	DWORD PTR [esp], ebx
	call	_gg_pubdir50_count
LVL1201:
	mov	DWORD PTR [esp+60], eax
	.loc 1 850 0
	cmp	eax, 20
	jle	L556
	mov	DWORD PTR [esp+60], 20
L556:
LVL1202:
	.loc 1 851 0
	mov	eax, DWORD PTR [esp+56]
	cmp	WORD PTR [eax+42], 0
	jne	L557
	.loc 1 852 0
	mov	edx, DWORD PTR [esp+60]
	mov	WORD PTR [eax+42], dx
L557:
	.loc 1 854 0
	call	_purple_notify_searchresults_new
LVL1203:
	mov	DWORD PTR [esp+52], eax
LVL1204:
	.loc 1 856 0
	test	eax, eax
	je	L682
	.loc 1 867 0
	mov	DWORD PTR [esp+4], OFFSET FLAT:LC180
	mov	DWORD PTR [esp], OFFSET FLAT:LC6
	call	_libintl_dgettext
LVL1205:
	mov	DWORD PTR [esp], eax
	call	_purple_notify_searchresults_column_new
LVL1206:
	.loc 1 868 0
	mov	DWORD PTR [esp+4], eax
	mov	eax, DWORD PTR [esp+52]
LVL1207:
	mov	DWORD PTR [esp], eax
	call	_purple_notify_searchresults_column_add
LVL1208:
	.loc 1 870 0
	mov	DWORD PTR [esp+4], OFFSET FLAT:LC181
	mov	DWORD PTR [esp], OFFSET FLAT:LC6
	call	_libintl_dgettext
LVL1209:
	mov	DWORD PTR [esp], eax
	call	_purple_notify_searchresults_column_new
LVL1210:
	.loc 1 871 0
	mov	DWORD PTR [esp+4], eax
	mov	eax, DWORD PTR [esp+52]
LVL1211:
	mov	DWORD PTR [esp], eax
	call	_purple_notify_searchresults_column_add
LVL1212:
	.loc 1 873 0
	mov	DWORD PTR [esp+4], OFFSET FLAT:LC96
	mov	DWORD PTR [esp], OFFSET FLAT:LC6
	call	_libintl_dgettext
LVL1213:
	mov	DWORD PTR [esp], eax
	call	_purple_notify_searchresults_column_new
LVL1214:
	.loc 1 874 0
	mov	DWORD PTR [esp+4], eax
	mov	eax, DWORD PTR [esp+52]
LVL1215:
	mov	DWORD PTR [esp], eax
	call	_purple_notify_searchresults_column_add
LVL1216:
	.loc 1 876 0
	mov	DWORD PTR [esp+4], OFFSET FLAT:LC98
	mov	DWORD PTR [esp], OFFSET FLAT:LC6
	call	_libintl_dgettext
LVL1217:
	mov	DWORD PTR [esp], eax
	call	_purple_notify_searchresults_column_new
LVL1218:
	.loc 1 877 0
	mov	DWORD PTR [esp+4], eax
	mov	eax, DWORD PTR [esp+52]
LVL1219:
	mov	DWORD PTR [esp], eax
	call	_purple_notify_searchresults_column_add
LVL1220:
	.loc 1 879 0
	mov	DWORD PTR [esp+4], OFFSET FLAT:LC183
	mov	DWORD PTR [esp], OFFSET FLAT:LC6
	call	_libintl_dgettext
LVL1221:
	mov	DWORD PTR [esp], eax
	call	_purple_notify_searchresults_column_new
LVL1222:
	.loc 1 880 0
	mov	DWORD PTR [esp+4], eax
	mov	eax, DWORD PTR [esp+52]
LVL1223:
	mov	DWORD PTR [esp], eax
	call	_purple_notify_searchresults_column_add
LVL1224:
	.loc 1 882 0
	mov	eax, DWORD PTR [esp+60]
	mov	DWORD PTR [esp+8], eax
	mov	DWORD PTR [esp+4], OFFSET FLAT:LC186
	mov	DWORD PTR [esp], OFFSET FLAT:LC2
	call	_purple_debug_info
LVL1225:
	.loc 1 884 0
	mov	DWORD PTR [esp+8], OFFSET FLAT:LC187
	mov	DWORD PTR [esp+4], 0
	mov	DWORD PTR [esp], ebx
	call	_gg_pubdir50_get
LVL1226:
	mov	DWORD PTR [esp], eax
	call	_ggp_str_to_uin
LVL1227:
	.loc 1 885 0
	mov	DWORD PTR [esp+8], eax
	mov	DWORD PTR [esp+4], OFFSET FLAT:LC188
	mov	DWORD PTR [esp], OFFSET FLAT:LC2
	call	_purple_debug_info
LVL1228:
	.loc 1 887 0
	xor	edi, edi
LVL1229:
	mov	eax, DWORD PTR [esp+60]
	test	eax, eax
	jle	L564
	mov	DWORD PTR [esp+64], ebp
	mov	DWORD PTR [esp+68], esi
	jmp	L620
LVL1230:
	.p2align 2,,3
L563:
LBB155:
	.loc 1 901 0
	mov	DWORD PTR [esp+4], ebp
	mov	DWORD PTR [esp], esi
	call	_g_list_append
LVL1231:
	.loc 1 904 0
	mov	DWORD PTR [esp+4], eax
	mov	eax, DWORD PTR [esp+52]
LVL1232:
	mov	DWORD PTR [esp], eax
	call	_purple_notify_searchresults_row_add
LVL1233:
LBE155:
	.loc 1 887 0
	inc	edi
LVL1234:
	cmp	edi, DWORD PTR [esp+60]
	je	L683
LVL1235:
L620:
LBB156:
	.loc 1 889 0
	mov	DWORD PTR [esp+8], OFFSET FLAT:LC182
	mov	DWORD PTR [esp+4], edi
	mov	DWORD PTR [esp], ebx
	call	_ggp_search_get_result
LVL1236:
	mov	ebp, eax
LVL1237:
	.loc 1 893 0
	mov	DWORD PTR [esp+8], OFFSET FLAT:LC179
	mov	DWORD PTR [esp+4], edi
	mov	DWORD PTR [esp], ebx
	call	_ggp_search_get_result
LVL1238:
	mov	DWORD PTR [esp+4], eax
	mov	DWORD PTR [esp], 0
	call	_g_list_append
LVL1239:
	mov	esi, eax
LVL1240:
	.loc 1 895 0
	mov	DWORD PTR [esp+8], OFFSET FLAT:LC95
	mov	DWORD PTR [esp+4], edi
	mov	DWORD PTR [esp], ebx
	call	_ggp_search_get_result
LVL1241:
	mov	DWORD PTR [esp+4], eax
	mov	DWORD PTR [esp], esi
	call	_g_list_append
LVL1242:
	mov	esi, eax
LVL1243:
	.loc 1 897 0
	mov	DWORD PTR [esp+8], OFFSET FLAT:LC97
	mov	DWORD PTR [esp+4], edi
	mov	DWORD PTR [esp], ebx
	call	_ggp_search_get_result
LVL1244:
	mov	DWORD PTR [esp+4], eax
	mov	DWORD PTR [esp], esi
	call	_g_list_append
LVL1245:
	mov	esi, eax
LVL1246:
	.loc 1 899 0
	mov	DWORD PTR [esp+8], OFFSET FLAT:LC99
	mov	DWORD PTR [esp+4], edi
	mov	DWORD PTR [esp], ebx
	call	_ggp_search_get_result
LVL1247:
	mov	DWORD PTR [esp+4], eax
	mov	DWORD PTR [esp], esi
	call	_g_list_append
LVL1248:
	mov	esi, eax
LVL1249:
	.loc 1 901 0
	test	ebp, ebp
	je	L562
	.loc 1 902 0
	cmp	BYTE PTR [ebp+0], 48
	jne	L563
L562:
	.loc 1 901 0
	mov	DWORD PTR [esp], OFFSET FLAT:LC189
	call	_g_strdup
LVL1250:
	mov	ebp, eax
LVL1251:
	jmp	L563
LVL1252:
	.p2align 2,,3
L683:
	mov	ebp, DWORD PTR [esp+64]
	mov	esi, DWORD PTR [esp+68]
LVL1253:
L564:
LBE156:
	.loc 1 907 0
	mov	DWORD PTR [esp+8], OFFSET FLAT:_ggp_callback_show_next
	mov	DWORD PTR [esp+4], 1
	mov	eax, DWORD PTR [esp+52]
	mov	DWORD PTR [esp], eax
	call	_purple_notify_searchresults_button_add
LVL1254:
	.loc 1 909 0
	mov	DWORD PTR [esp+8], OFFSET FLAT:_ggp_callback_add_buddy
	mov	DWORD PTR [esp+4], 2
	mov	eax, DWORD PTR [esp+52]
	mov	DWORD PTR [esp], eax
	call	_purple_notify_searchresults_button_add
LVL1255:
	.loc 1 911 0
	mov	DWORD PTR [esp+8], OFFSET FLAT:_ggp_callback_im
	mov	DWORD PTR [esp+4], 4
	mov	eax, DWORD PTR [esp+52]
	mov	DWORD PTR [esp], eax
	call	_purple_notify_searchresults_button_add
LVL1256:
	.loc 1 914 0
	mov	edx, DWORD PTR [esp+56]
	mov	eax, DWORD PTR [edx+48]
	test	eax, eax
	je	L684
	.loc 1 932 0
	mov	DWORD PTR [esp+8], eax
	mov	eax, DWORD PTR [esp+52]
	mov	DWORD PTR [esp+4], eax
	mov	DWORD PTR [esp], esi
	call	_purple_notify_searchresults_new_rows
LVL1257:
	jmp	L492
LVL1258:
	.p2align 2,,3
L513:
LBE154:
LBE153:
LBE167:
LBE205:
LBB206:
LBB192:
LBB186:
LBB181:
	.loc 1 1097 0
	mov	edx, DWORD PTR [edi+9]
	mov	DWORD PTR [esp+12], edx
	mov	DWORD PTR [esp+8], eax
	mov	edx, DWORD PTR [esp+88]
	mov	eax, DWORD PTR [edx+4]
	mov	DWORD PTR [esp+4], eax
	mov	edx, DWORD PTR [esp+80]
	mov	eax, DWORD PTR [edx]
	mov	DWORD PTR [esp], eax
	call	_gg_image_request
LVL1259:
	.loc 1 1100 0
	mov	eax, DWORD PTR [edi+9]
	mov	DWORD PTR [esp+4], eax
	mov	DWORD PTR [esp], OFFSET FLAT:LC144
	call	_g_strdup_printf
LVL1260:
	mov	edx, eax
LVL1261:
	.loc 1 1101 0
	mov	DWORD PTR [esp+8], eax
	mov	DWORD PTR [esp+4], ebx
	mov	eax, DWORD PTR [esp+52]
LVL1262:
	mov	DWORD PTR [esp], eax
	mov	DWORD PTR [esp+44], edx
	call	_g_string_insert
LVL1263:
	.loc 1 1102 0
	mov	edx, DWORD PTR [esp+44]
	mov	ecx, -1
	mov	edi, edx
LVL1264:
	xor	eax, eax
	repne scasb
	not	ecx
	lea	esi, [esi-1+ecx]
LVL1265:
	.loc 1 1103 0
	mov	DWORD PTR [esp], edx
	call	_g_free
LVL1266:
	.loc 1 1087 0
	mov	edi, ebp
	.loc 1 1085 0
	mov	DWORD PTR [esp+84], 1
	jmp	L511
LVL1267:
	.p2align 2,,3
L668:
LBE181:
LBE186:
LBE192:
LBE206:
	.loc 1 1382 0
	mov	eax, OFFSET FLAT:LC135
	jmp	L537
LVL1268:
	.p2align 2,,3
L664:
LBB207:
LBB168:
	.loc 1 951 0
	mov	DWORD PTR [esp+8], OFFSET FLAT:LC200
	mov	DWORD PTR [esp+4], OFFSET FLAT:___PRETTY_FUNCTION__.45861
	mov	DWORD PTR [esp], 0
	call	_g_return_if_fail_warning
LVL1269:
	jmp	L492
LVL1270:
	.p2align 2,,3
L663:
LBE168:
LBE207:
	.loc 1 1390 0
	mov	eax, OFFSET FLAT:LC135
	jmp	L538
LVL1271:
L667:
LBB208:
LBB169:
LBB162:
LBB152:
LBB151:
LBB149:
	.loc 1 752 0
	jmp	[DWORD PTR L550[0+eax*4]]
	.section .rdata,"dr"
	.align 4
L550:
	.long	L544
	.long	L545
	.long	L546
	.long	L547
	.long	L546
	.long	L547
	.long	L544
	.long	L544
	.long	L544
	.long	L544
	.long	L544
	.long	L544
	.long	L544
	.long	L544
	.long	L544
	.long	L544
	.long	L544
	.long	L544
	.long	L544
	.long	L544
	.long	L544
	.long	L545
	.long	L544
	.long	L548
	.long	L548
	.long	L544
	.long	L544
	.long	L544
	.long	L544
	.long	L544
	.long	L544
	.long	L544
	.long	L544
	.long	L549
	.long	L549
	.text
L549:
	.loc 1 766 0
	mov	DWORD PTR [esp+4], OFFSET FLAT:LC176
	mov	DWORD PTR [esp], OFFSET FLAT:LC6
	call	_libintl_dgettext
LVL1272:
	mov	DWORD PTR [esp+60], eax
	jmp	L551
L548:
	.loc 1 763 0
	mov	DWORD PTR [esp+4], OFFSET FLAT:LC175
	mov	DWORD PTR [esp], OFFSET FLAT:LC6
	call	_libintl_dgettext
LVL1273:
	mov	DWORD PTR [esp+60], eax
	jmp	L551
L547:
	.loc 1 769 0
	mov	DWORD PTR [esp+4], OFFSET FLAT:LC177
	mov	DWORD PTR [esp], OFFSET FLAT:LC6
	call	_libintl_dgettext
LVL1274:
	mov	DWORD PTR [esp+60], eax
LVL1275:
	jmp	L551
LVL1276:
L546:
	.loc 1 759 0
	mov	DWORD PTR [esp+4], OFFSET FLAT:LC174
	mov	DWORD PTR [esp], OFFSET FLAT:LC6
	call	_libintl_dgettext
LVL1277:
	mov	DWORD PTR [esp+60], eax
LVL1278:
	jmp	L551
LVL1279:
L545:
	.loc 1 755 0
	mov	DWORD PTR [esp+4], OFFSET FLAT:LC173
	mov	DWORD PTR [esp], OFFSET FLAT:LC6
	call	_libintl_dgettext
LVL1280:
	mov	DWORD PTR [esp+60], eax
LVL1281:
	jmp	L551
LVL1282:
L665:
LBE149:
LBE151:
LBE152:
LBE162:
	.loc 1 955 0
	mov	DWORD PTR [esp+4], OFFSET FLAT:LC168
	mov	DWORD PTR [esp], OFFSET FLAT:LC2
	call	_purple_debug_info
LVL1283:
	.loc 1 956 0
	mov	DWORD PTR [esp+4], OFFSET FLAT:LC169
	mov	DWORD PTR [esp], OFFSET FLAT:LC6
	call	_libintl_dgettext
LVL1284:
	mov	ebx, eax
LVL1285:
	mov	DWORD PTR [esp+4], OFFSET FLAT:LC170
	mov	DWORD PTR [esp], OFFSET FLAT:LC6
	call	_libintl_dgettext
LVL1286:
	mov	DWORD PTR [esp+24], 0
	mov	DWORD PTR [esp+20], 0
	mov	DWORD PTR [esp+16], ebx
L655:
LBB163:
LBB159:
	.loc 1 859 0
	mov	DWORD PTR [esp+12], eax
	mov	DWORD PTR [esp+8], 0
	mov	DWORD PTR [esp+4], 0
	mov	DWORD PTR [esp], esi
	call	_purple_notify_message
LVL1287:
	.loc 1 862 0
	mov	eax, DWORD PTR [esp+56]
	mov	edx, DWORD PTR [eax+48]
	test	edx, edx
	jne	L492
	.loc 1 863 0
	mov	DWORD PTR [esp], eax
	call	_ggp_sr_close_cb
LVL1288:
	jmp	L492
LVL1289:
L670:
LBE159:
LBE163:
LBE169:
LBE208:
LBB209:
LBB193:
	.loc 1 1036 0
	mov	DWORD PTR [esp+4], OFFSET FLAT:LC137
	mov	DWORD PTR [esp], OFFSET FLAT:LC2
	call	_purple_debug_warning
LVL1290:
	jmp	L492
LVL1291:
L681:
LBE193:
LBE209:
LBB210:
LBB137:
LBB135:
LBB134:
	.loc 1 1000 0
	mov	eax, DWORD PTR [ebp+4]
	mov	DWORD PTR [esp+4], eax
	mov	DWORD PTR [esp], OFFSET FLAT:LC138
	call	_g_strdup_printf
LVL1292:
	mov	ebx, eax
LVL1293:
	.loc 1 1001 0
	mov	DWORD PTR [esp], 0
	call	_time
LVL1294:
	mov	DWORD PTR [esp+16], eax
	mov	DWORD PTR [esp+12], 4096
	mov	eax, DWORD PTR [esp+60]
	mov	DWORD PTR [esp+8], eax
	mov	DWORD PTR [esp+4], ebx
	mov	DWORD PTR [esp], esi
	call	_serv_got_im
LVL1295:
	.loc 1 1002 0
	mov	DWORD PTR [esp], ebx
	call	_g_free
LVL1296:
	.loc 1 1003 0
	mov	eax, DWORD PTR [esp+60]
	mov	DWORD PTR [esp+8], eax
	mov	DWORD PTR [esp+4], OFFSET FLAT:LC158
	mov	DWORD PTR [esp], OFFSET FLAT:LC2
	call	_purple_debug_info
LVL1297:
	.loc 1 1004 0
	mov	eax, DWORD PTR [esp+60]
	mov	DWORD PTR [esp], eax
	call	_g_free
LVL1298:
	jmp	L524
LVL1299:
L529:
LBE134:
LBE135:
LBE137:
LBE210:
LBB211:
LBB141:
	.loc 1 1214 0
	mov	eax, DWORD PTR [ebp+12]
LVL1300:
	mov	DWORD PTR [esp+12], eax
	mov	DWORD PTR [esp+8], ebx
	mov	DWORD PTR [esp+4], OFFSET FLAT:LC161
	mov	DWORD PTR [esp], OFFSET FLAT:LC2
	call	_purple_debug_error
LVL1301:
	jmp	L530
LVL1302:
L682:
LBE141:
LBE211:
LBB212:
LBB170:
LBB164:
LBB160:
	.loc 1 857 0
	mov	DWORD PTR [esp+4], OFFSET FLAT:LC184
	mov	DWORD PTR [esp], OFFSET FLAT:LC2
	call	_purple_debug_error
LVL1303:
	.loc 1 859 0
	mov	DWORD PTR [esp+4], OFFSET FLAT:LC185
	mov	DWORD PTR [esp], OFFSET FLAT:LC6
	call	_libintl_dgettext
LVL1304:
	mov	DWORD PTR [esp+24], 0
	mov	DWORD PTR [esp+20], 0
	mov	DWORD PTR [esp+16], 0
	jmp	L655
LVL1305:
L684:
LBB157:
	.loc 1 917 0
	mov	DWORD PTR [esp+4], OFFSET FLAT:LC190
	mov	DWORD PTR [esp], OFFSET FLAT:LC6
	call	_libintl_dgettext
LVL1306:
	mov	ebx, eax
LVL1307:
	.loc 1 916 0
	mov	DWORD PTR [esp+4], OFFSET FLAT:LC191
	mov	DWORD PTR [esp], OFFSET FLAT:LC6
	call	_libintl_dgettext
LVL1308:
	.loc 1 915 0
	mov	edx, DWORD PTR [esp+56]
	mov	DWORD PTR [esp+24], edx
	mov	DWORD PTR [esp+20], OFFSET FLAT:_ggp_sr_close_cb
	mov	edx, DWORD PTR [esp+52]
	mov	DWORD PTR [esp+16], edx
	mov	DWORD PTR [esp+12], 0
	mov	DWORD PTR [esp+8], ebx
	mov	DWORD PTR [esp+4], eax
	mov	DWORD PTR [esp], esi
	call	_purple_notify_searchresults
LVL1309:
	.loc 1 921 0
	test	eax, eax
	je	L685
	.loc 1 930 0
	mov	edx, DWORD PTR [esp+56]
	mov	DWORD PTR [edx+48], eax
	jmp	L492
LVL1310:
L679:
LBE157:
LBE160:
LBE164:
LBE170:
LBE212:
LBB213:
LBB194:
LBB187:
	.loc 1 1173 0
	mov	DWORD PTR [esp+4], 0
	mov	DWORD PTR [esp], esi
	call	_ggp_confer_add_new
LVL1311:
	mov	edi, eax
LVL1312:
	.loc 1 1174 0
	mov	DWORD PTR [esp+8], eax
	mov	edx, DWORD PTR [esp+80]
	mov	eax, DWORD PTR [edx+16]
LVL1313:
	mov	DWORD PTR [esp+4], eax
	mov	DWORD PTR [esp], esi
	call	_serv_got_joined_chat
LVL1314:
	.loc 1 1176 0
	mov	eax, DWORD PTR [ebp+4]
	mov	DWORD PTR [esp+8], eax
	mov	DWORD PTR [esp+4], edi
	mov	DWORD PTR [esp], esi
	call	_ggp_confer_participants_add_uin
LVL1315:
	.loc 1 1179 0
	mov	eax, DWORD PTR [ebp+20]
	mov	DWORD PTR [esp+12], eax
	mov	eax, DWORD PTR [ebp+24]
	mov	DWORD PTR [esp+8], eax
	mov	DWORD PTR [esp+4], edi
	mov	DWORD PTR [esp], esi
	call	_ggp_confer_participants_add
LVL1316:
	jmp	L523
LVL1317:
L653:
LBE187:
LBE194:
LBE213:
	.loc 1 1416 0
	call	___stack_chk_fail
LVL1318:
L685:
LBB214:
LBB171:
LBB165:
LBB161:
LBB158:
	.loc 1 922 0
	mov	DWORD PTR [esp+4], OFFSET FLAT:LC184
	mov	DWORD PTR [esp], OFFSET FLAT:LC2
	call	_purple_debug_error
LVL1319:
	.loc 1 924 0
	mov	DWORD PTR [esp+4], OFFSET FLAT:LC185
	mov	DWORD PTR [esp], OFFSET FLAT:LC6
	call	_libintl_dgettext
LVL1320:
	mov	DWORD PTR [esp+24], 0
	mov	DWORD PTR [esp+20], 0
	mov	DWORD PTR [esp+16], 0
	mov	DWORD PTR [esp+12], eax
	mov	DWORD PTR [esp+8], 0
	mov	DWORD PTR [esp+4], 0
	mov	DWORD PTR [esp], esi
	call	_purple_notify_message
LVL1321:
	jmp	L492
LBE158:
LBE161:
LBE165:
LBE171:
LBE214:
	.cfi_endproc
LFE122:
	.section .rdata,"dr"
LC201:
	.ascii "gg_server\0"
	.align 4
LC202:
	.ascii "Trying to retrieve address from gg appmsg service\12\0"
	.align 4
LC203:
	.ascii "Using gg server given by user (%s)\12\0"
	.text
	.p2align 2,,3
	.def	_ggp_login;	.scl	3;	.type	32;	.endef
_ggp_login:
LFB132:
	.loc 1 1785 0
	.cfi_startproc
LVL1322:
	push	edi
LCFI437:
	.cfi_def_cfa_offset 8
	.cfi_offset 7, -8
	push	esi
LCFI438:
	.cfi_def_cfa_offset 12
	.cfi_offset 6, -12
	push	ebx
LCFI439:
	.cfi_def_cfa_offset 16
	.cfi_offset 3, -16
	sub	esp, 64
LCFI440:
	.cfi_def_cfa_offset 80
	mov	ebx, DWORD PTR [esp+80]
	.loc 1 1785 0
	mov	eax, DWORD PTR ___stack_chk_guard
	mov	DWORD PTR [esp+60], eax
	xor	eax, eax
	.loc 1 1790 0
	mov	DWORD PTR [esp], ebx
	call	_purple_account_get_connection
LVL1323:
	mov	esi, eax
LVL1324:
	.loc 1 1791 0
	mov	DWORD PTR [esp], 36
	call	_g_malloc0
LVL1325:
	mov	edi, eax
LVL1326:
	.loc 1 1792 0
	mov	DWORD PTR [esi+28], eax
	.loc 1 1794 0
	mov	DWORD PTR [esp+8], OFFSET FLAT:LC120
	mov	DWORD PTR [esp+4], OFFSET FLAT:LC201
	mov	DWORD PTR [esp], ebx
	call	_purple_account_get_string
LVL1327:
	.loc 1 1795 0
	test	eax, eax
	je	L687
	.loc 1 1795 0 is_stmt 0 discriminator 1
	cmp	BYTE PTR [eax], 0
	jne	L688
L687:
LVL1328:
LBB219:
LBB220:
	.loc 1 1796 0 is_stmt 1
	mov	DWORD PTR [esp+4], OFFSET FLAT:LC202
	mov	DWORD PTR [esp], OFFSET FLAT:LC2
	call	_purple_debug_info
LVL1329:
LBB221:
LBB222:
	.loc 1 1686 0
	mov	eax, ebx
	call	_ggp_setup_proxy
LVL1330:
	inc	eax
	je	L686
	mov	eax, DWORD PTR [esp+60]
	xor	eax, DWORD PTR ___stack_chk_guard
	jne	L699
	xor	edx, edx
	mov	eax, ebx
LBE222:
LBE221:
LBE220:
LBE219:
	.loc 1 1804 0
	add	esp, 64
LCFI441:
	.cfi_remember_state
	.cfi_def_cfa_offset 16
	pop	ebx
LCFI442:
	.cfi_restore 3
	.cfi_def_cfa_offset 12
LVL1331:
	pop	esi
LCFI443:
	.cfi_restore 6
	.cfi_def_cfa_offset 8
LVL1332:
	pop	edi
LCFI444:
	.cfi_restore 7
	.cfi_def_cfa_offset 4
LVL1333:
	jmp	_ggp_login_to.part.2
LVL1334:
	.p2align 2,,3
L688:
LCFI445:
	.cfi_restore_state
	.loc 1 1801 0
	mov	DWORD PTR [esp+8], eax
	mov	DWORD PTR [esp+4], OFFSET FLAT:LC203
	mov	DWORD PTR [esp], OFFSET FLAT:LC2
	mov	DWORD PTR [esp+44], eax
	call	_purple_debug_info
LVL1335:
	.loc 1 1802 0
	mov	DWORD PTR [esp+16], ebx
	mov	DWORD PTR [esp+12], OFFSET FLAT:_ggp_login_resolved
	mov	DWORD PTR [esp+8], 8074
	mov	eax, DWORD PTR [esp+44]
	mov	DWORD PTR [esp+4], eax
	mov	DWORD PTR [esp], ebx
	call	_purple_dnsquery_a_account
LVL1336:
	mov	DWORD PTR [edi+32], eax
L686:
	.loc 1 1804 0
	mov	eax, DWORD PTR [esp+60]
	xor	eax, DWORD PTR ___stack_chk_guard
	jne	L699
	add	esp, 64
LCFI446:
	.cfi_remember_state
	.cfi_def_cfa_offset 16
	pop	ebx
LCFI447:
	.cfi_restore 3
	.cfi_def_cfa_offset 12
	pop	esi
LCFI448:
	.cfi_restore 6
	.cfi_def_cfa_offset 8
LVL1337:
	pop	edi
LCFI449:
	.cfi_restore 7
	.cfi_def_cfa_offset 4
LVL1338:
	ret
LVL1339:
L699:
LCFI450:
	.cfi_restore_state
	call	___stack_chk_fail
LVL1340:
	.cfi_endproc
LFE132:
	.section .rdata,"dr"
LC204:
	.ascii "Gadu-Gadu User\0"
LC205:
	.ascii "nick\0"
LC206:
	.ascii "GG server\0"
LC207:
	.ascii "Don't use encryption\0"
LC208:
	.ascii "Use encryption if available\0"
LC209:
	.ascii "Connection security\0"
	.text
	.p2align 2,,3
	.globl	_purple_init_plugin
	.def	_purple_init_plugin;	.scl	2;	.type	32;	.endef
_purple_init_plugin:
LFB150:
	.loc 1 2439 0
	.cfi_startproc
LVL1341:
	push	edi
LCFI451:
	.cfi_def_cfa_offset 8
	.cfi_offset 7, -8
	push	esi
LCFI452:
	.cfi_def_cfa_offset 12
	.cfi_offset 6, -12
	push	ebx
LCFI453:
	.cfi_def_cfa_offset 16
	.cfi_offset 3, -16
	sub	esp, 32
LCFI454:
	.cfi_def_cfa_offset 48
	mov	esi, DWORD PTR [esp+48]
	.loc 1 2439 0
	mov	eax, DWORD PTR ___stack_chk_guard
	mov	DWORD PTR [esp+28], eax
	xor	eax, eax
	mov	DWORD PTR [esi+16], OFFSET FLAT:_info
LVL1342:
LBB227:
LBB228:
	.loc 1 2405 0
	mov	DWORD PTR [esp+4], OFFSET FLAT:LC204
	mov	DWORD PTR [esp], OFFSET FLAT:LC6
	call	_libintl_dgettext
LVL1343:
	mov	ebx, eax
	.loc 1 2404 0
	mov	DWORD PTR [esp+4], OFFSET FLAT:LC96
	mov	DWORD PTR [esp], OFFSET FLAT:LC6
	call	_libintl_dgettext
LVL1344:
	mov	DWORD PTR [esp+8], ebx
	mov	DWORD PTR [esp+4], OFFSET FLAT:LC205
	mov	DWORD PTR [esp], eax
	call	_purple_account_option_string_new
LVL1345:
	.loc 1 2406 0
	mov	DWORD PTR [esp+4], eax
	mov	eax, DWORD PTR _prpl_info+8
LVL1346:
	mov	DWORD PTR [esp], eax
	call	_g_list_append
LVL1347:
	mov	DWORD PTR _prpl_info+8, eax
	.loc 1 2409 0
	mov	DWORD PTR [esp+4], OFFSET FLAT:LC206
	mov	DWORD PTR [esp], OFFSET FLAT:LC6
	call	_libintl_dgettext
LVL1348:
	mov	DWORD PTR [esp+8], OFFSET FLAT:LC120
	mov	DWORD PTR [esp+4], OFFSET FLAT:LC201
	mov	DWORD PTR [esp], eax
	call	_purple_account_option_string_new
LVL1349:
	.loc 1 2411 0
	mov	DWORD PTR [esp+4], eax
	mov	eax, DWORD PTR _prpl_info+8
LVL1350:
	mov	DWORD PTR [esp], eax
	call	_g_list_append
LVL1351:
	mov	DWORD PTR _prpl_info+8, eax
LBB229:
	.loc 1 2421 0
	mov	DWORD PTR [esp], 8
	call	_g_malloc0
LVL1352:
	mov	ebx, eax
LVL1353:
	mov	DWORD PTR [esp+4], OFFSET FLAT:LC207
	mov	DWORD PTR [esp], OFFSET FLAT:LC6
	call	_libintl_dgettext
LVL1354:
	mov	DWORD PTR [esp], eax
	call	_g_strdup
LVL1355:
	mov	DWORD PTR [ebx], eax
	mov	DWORD PTR [esp], OFFSET FLAT:LC125
	call	_g_strdup
LVL1356:
	mov	DWORD PTR [ebx+4], eax
	mov	DWORD PTR [esp+4], ebx
	mov	DWORD PTR [esp], 0
	call	_g_list_append
LVL1357:
	mov	edi, eax
LVL1358:
LBE229:
LBB230:
	.loc 1 2422 0
	mov	DWORD PTR [esp], 8
	call	_g_malloc0
LVL1359:
	mov	ebx, eax
LVL1360:
	mov	DWORD PTR [esp+4], OFFSET FLAT:LC208
	mov	DWORD PTR [esp], OFFSET FLAT:LC6
	call	_libintl_dgettext
LVL1361:
	mov	DWORD PTR [esp], eax
	call	_g_strdup
LVL1362:
	mov	DWORD PTR [ebx], eax
	mov	DWORD PTR [esp], OFFSET FLAT:LC128
	call	_g_strdup
LVL1363:
	mov	DWORD PTR [ebx+4], eax
	mov	DWORD PTR [esp+4], ebx
	mov	DWORD PTR [esp], edi
	call	_g_list_append
LVL1364:
	mov	ebx, eax
LVL1365:
LBE230:
	.loc 1 2429 0
	mov	DWORD PTR [esp+4], OFFSET FLAT:LC209
	mov	DWORD PTR [esp], OFFSET FLAT:LC6
	call	_libintl_dgettext
LVL1366:
	mov	DWORD PTR [esp+8], ebx
	mov	DWORD PTR [esp+4], OFFSET FLAT:LC126
	mov	DWORD PTR [esp], eax
	call	_purple_account_option_list_new
LVL1367:
	.loc 1 2431 0
	mov	DWORD PTR [esp+4], eax
	mov	eax, DWORD PTR _prpl_info+8
LVL1368:
	mov	DWORD PTR [esp], eax
	call	_g_list_append
LVL1369:
	mov	DWORD PTR _prpl_info+8, eax
	.loc 1 2434 0
	mov	DWORD PTR _my_protocol, esi
	.loc 1 2436 0
	mov	DWORD PTR _gg_debug_handler, OFFSET FLAT:_purple_gg_debug_handler
LBE228:
LBE227:
	.loc 1 2439 0
	mov	eax, DWORD PTR [esp+28]
	xor	eax, DWORD PTR ___stack_chk_guard
	jne	L704
	mov	DWORD PTR [esp+48], esi
	add	esp, 32
LCFI455:
	.cfi_remember_state
	.cfi_def_cfa_offset 16
	pop	ebx
LCFI456:
	.cfi_restore 3
	.cfi_def_cfa_offset 12
LVL1370:
	pop	esi
LCFI457:
	.cfi_restore 6
	.cfi_def_cfa_offset 8
LVL1371:
	pop	edi
LCFI458:
	.cfi_restore 7
	.cfi_def_cfa_offset 4
	jmp	_purple_plugin_register
LVL1372:
L704:
LCFI459:
	.cfi_restore_state
	call	___stack_chk_fail
LVL1373:
	.cfi_endproc
LFE150:
	.section .rdata,"dr"
LC210:
	.ascii "prpl-gg\0"
LC211:
	.ascii "Gadu-Gadu\0"
LC212:
	.ascii "2.10.11\0"
LC213:
	.ascii "Gadu-Gadu Protocol Plugin\0"
LC214:
	.ascii "Polish popular IM\0"
LC215:
	.ascii "boler@sourceforge.net\0"
LC216:
	.ascii "http://pidgin.im/\0"
	.data
	.align 32
_info:
	.long	5
	.long	2
	.long	10
	.long	2
	.long	0
	.long	0
	.long	0
	.long	0
	.long	LC210
	.long	LC211
	.long	LC212
	.long	LC213
	.long	LC214
	.long	LC215
	.long	LC216
	.long	_ggp_load
	.long	0
	.long	0
	.long	0
	.long	_prpl_info
	.long	0
	.long	_ggp_actions
	.long	0
	.long	0
	.long	0
	.long	0
	.section .rdata,"dr"
LC217:
	.ascii "png\0"
	.data
	.align 32
_prpl_info:
	.long	64
	.long	0
	.long	0
	.long	LC217
	.long	32
	.long	32
	.long	96
	.long	96
	.long	0
	.long	1
	.long	_ggp_list_icon
	.long	0
	.long	_ggp_status_text
	.long	_ggp_tooltip_text
	.long	_ggp_status_types
	.long	_ggp_blist_node_menu
	.long	_ggp_chat_info
	.long	0
	.long	_ggp_login
	.long	_ggp_close
	.long	_ggp_send_im
	.long	0
	.long	_ggp_send_typing
	.long	_ggp_get_info
	.long	_ggp_set_status
	.long	0
	.long	0
	.long	_ggp_add_buddy
	.long	0
	.long	_ggp_remove_buddy
	.long	0
	.long	0
	.long	_ggp_add_deny
	.long	0
	.long	_ggp_rem_deny
	.long	0
	.long	_ggp_join_chat
	.long	0
	.long	_ggp_get_chat_name
	.long	0
	.long	0
	.long	0
	.long	_ggp_chat_send
	.long	_ggp_keepalive
	.long	0
	.long	0
	.long	0
	.long	0
	.long	0
	.long	0
	.long	0
	.long	0
	.long	0
	.long	0
	.long	0
	.long	0
	.long	0
	.long	0
	.long	0
	.long	0
	.long	0
	.long	0
	.long	0
	.long	0
	.long	_ggp_offline_message
	.long	0
	.long	0
	.long	0
	.long	0
	.long	0
	.long	0
	.long	320
	.long	0
	.long	0
	.long	0
	.long	0
	.long	0
	.long	0
	.long	0
	.long	0
	.section .rdata,"dr"
___PRETTY_FUNCTION__.46139:
	.ascii "ggp_to_gg_status\0"
___PRETTY_FUNCTION__.46068:
	.ascii "ggp_login_resolved\0"
___PRETTY_FUNCTION__.46056:
	.ascii "ggp_login_to\0"
___PRETTY_FUNCTION__.45985:
	.ascii "ggp_async_login_handler\0"
___PRETTY_FUNCTION__.45861:
	.ascii "ggp_pubdir_reply_handler\0"
___PRETTY_FUNCTION__.45744:
	.ascii "ggp_callback_add_to_chat_ok\0"
___PRETTY_FUNCTION__.46026:
	.ascii "ggp_tooltip_text\0"
.lcomm _my_protocol,4,4
	.text
Letext0:
	.file 2 "c:/workspace/pidgin-devel/win32-dev/mingw-4.7.2/bin/../lib/gcc/mingw32/4.7.2/include/stddef.h"
	.file 3 "c:/workspace/pidgin-devel/win32-dev/mingw-4.7.2/bin/../lib/gcc/mingw32/4.7.2/include/stdarg.h"
	.file 4 "c:/workspace/pidgin-devel/win32-dev/mingw-4.7.2/bin/../lib/gcc/mingw32/4.7.2/../../../../include/stdio.h"
	.file 5 "c:/workspace/pidgin-devel/win32-dev/mingw-4.7.2/bin/../lib/gcc/mingw32/4.7.2/../../../../include/sys/types.h"
	.file 6 "c:/workspace/pidgin-devel/win32-dev/mingw-4.7.2/bin/../lib/gcc/mingw32/4.7.2/../../../../include/time.h"
	.file 7 "../../../../win32-dev/gtk_2_0-2.14/lib/glib-2.0/include/glibconfig.h"
	.file 8 "../../../../win32-dev/gtk_2_0-2.14/include/glib-2.0/glib/gtypes.h"
	.file 9 "../../../../win32-dev/gtk_2_0-2.14/include/glib-2.0/glib/gquark.h"
	.file 10 "../../../../win32-dev/gtk_2_0-2.14/include/glib-2.0/glib/gerror.h"
	.file 11 "../../../../win32-dev/gtk_2_0-2.14/include/glib-2.0/glib/glist.h"
	.file 12 "../../../../win32-dev/gtk_2_0-2.14/include/glib-2.0/glib/gdataset.h"
	.file 13 "../../../../win32-dev/gtk_2_0-2.14/include/glib-2.0/glib/ghash.h"
	.file 14 "../../../../win32-dev/gtk_2_0-2.14/include/glib-2.0/glib/gslist.h"
	.file 15 "../../../../win32-dev/gtk_2_0-2.14/include/glib-2.0/glib/gstring.h"
	.file 16 "c:/workspace/pidgin-devel/win32-dev/mingw-4.7.2/bin/../lib/gcc/mingw32/4.7.2/../../../../include/winsock2.h"
	.file 17 "c:/workspace/pidgin-devel/win32-dev/mingw-4.7.2/bin/../lib/gcc/mingw32/4.7.2/../../../../include/stdint.h"
	.file 18 "../../../../win32-dev/gtk_2_0-2.14/include/glib-2.0/gobject/gclosure.h"
	.file 19 "../../../libpurple/account.h"
	.file 20 "../../../libpurple/connection.h"
	.file 21 "../../../libpurple/value.h"
	.file 22 "../../../libpurple/signals.h"
	.file 23 "../../../libpurple/plugin.h"
	.file 24 "../../../libpurple/pluginpref.h"
	.file 25 "c:/workspace/pidgin-devel/win32-dev/mingw-4.7.2/bin/../lib/gcc/mingw32/4.7.2/../../../../include/wtypes.h"
	.file 26 "../../../libpurple/prefs.h"
	.file 27 "../../../libpurple/status.h"
	.file 28 "../../../libpurple/blist.h"
	.file 29 "../../../libpurple/buddyicon.h"
	.file 30 "../../../libpurple/imgstore.h"
	.file 31 "../../../libpurple/prpl.h"
	.file 32 "../../../libpurple/conversation.h"
	.file 33 "../../../libpurple/log.h"
	.file 34 "../../../libpurple/ft.h"
	.file 35 "../../../libpurple/media/enum-types.h"
	.file 36 "../../../libpurple/media/../util.h"
	.file 37 "../../../libpurple/media/../xmlnode.h"
	.file 38 "../../../libpurple/media/../notify.h"
	.file 39 "../../../libpurple/eventloop.h"
	.file 40 "../../../libpurple/proxy.h"
	.file 41 "../../../libpurple/roomlist.h"
	.file 42 "../../../libpurple/whiteboard.h"
	.file 43 "../../../libpurple/privacy.h"
	.file 44 "../../../libpurple/accountopt.h"
	.file 45 "../../../libpurple/debug.h"
	.file 46 "../../../libpurple/request.h"
	.file 47 "./lib/libgadu.h"
	.file 48 "../../../libpurple/dnsquery.h"
	.file 49 "search.h"
	.file 50 "gg.h"
	.file 51 "c:/workspace/pidgin-devel/win32-dev/mingw-4.7.2/bin/../lib/gcc/mingw32/4.7.2/../../../../include/ctype.h"
	.file 52 "../../../../win32-dev/gtk_2_0-2.14/include/glib-2.0/glib/gunicode.h"
	.file 53 "../../../../win32-dev/gtk_2_0-2.14/include/glib-2.0/glib/gmem.h"
	.file 54 "../../../libpurple/server.h"
	.file 55 "../../../../win32-dev/gtk_2_0-2.14/include/glib-2.0/glib/gstrfuncs.h"
	.file 56 "confer.h"
	.file 57 "../../../../win32-dev/gtk_2_0-2.14/include/libintl.h"
	.file 58 "gg-utils.h"
	.file 59 "c:/workspace/pidgin-devel/win32-dev/mingw-4.7.2/bin/../lib/gcc/mingw32/4.7.2/../../../../include/string.h"
	.file 60 "../../../../win32-dev/gtk_2_0-2.14/include/glib-2.0/glib/gmessages.h"
	.file 61 "c:/workspace/pidgin-devel/win32-dev/mingw-4.7.2/bin/../lib/gcc/mingw32/4.7.2/../../../../include/stdlib.h"
	.file 62 "../../../../win32-dev/gtk_2_0-2.14/include/glib-2.0/glib/grand.h"
	.file 63 "buddylist.h"
	.file 64 "../../../../win32-dev/gtk_2_0-2.14/include/glib-2.0/glib/gmarkup.h"
	.file 65 "../../../../win32-dev/gtk_2_0-2.14/include/glib-2.0/glib/gfileutils.h"
	.section .drectve
	.ascii " -export:\"purple_init_plugin\""
