	.file	"gtkblist-theme-loader.c"
	.intel_syntax noprefix
	.text
Ltext0:
	.p2align 2,,3
	.def	_pidgin_blist_theme_loader_class_init;	.scl	3;	.type	32;	.endef
_pidgin_blist_theme_loader_class_init:
LFB96:
	.file 1 "gtkblist-theme-loader.c"
	.loc 1 255 0
	.cfi_startproc
LVL0:
	push	ebx
LCFI0:
	.cfi_def_cfa_offset 8
	.cfi_offset 3, -8
	sub	esp, 40
LCFI1:
	.cfi_def_cfa_offset 48
	mov	ebx, DWORD PTR [esp+48]
	.loc 1 255 0
	mov	eax, DWORD PTR ___stack_chk_guard
	mov	DWORD PTR [esp+28], eax
	xor	eax, eax
	.loc 1 256 0
	call	_purple_theme_loader_get_type
LVL1:
	mov	DWORD PTR [esp+4], eax
	mov	DWORD PTR [esp], ebx
	call	_g_type_check_class_cast
LVL2:
	.loc 1 258 0
	mov	DWORD PTR [eax+68], OFFSET FLAT:_pidgin_blist_loader_build
	.loc 1 259 0
	mov	eax, DWORD PTR [esp+28]
	xor	eax, DWORD PTR ___stack_chk_guard
LVL3:
	jne	L5
	add	esp, 40
LCFI2:
	.cfi_remember_state
	.cfi_def_cfa_offset 8
	pop	ebx
LCFI3:
	.cfi_restore 3
	.cfi_def_cfa_offset 4
	ret
L5:
LCFI4:
	.cfi_restore_state
	call	___stack_chk_fail
LVL4:
	.cfi_endproc
LFE96:
	.p2align 2,,3
	.def	_parse_color;	.scl	3;	.type	32;	.endef
_parse_color:
LFB94:
	.loc 1 63 0
	.cfi_startproc
LVL5:
	push	ebx
LCFI5:
	.cfi_def_cfa_offset 8
	.cfi_offset 3, -8
	sub	esp, 40
LCFI6:
	.cfi_def_cfa_offset 48
	.loc 1 63 0
	mov	ecx, DWORD PTR ___stack_chk_guard
	mov	DWORD PTR [esp+28], ecx
	xor	ecx, ecx
	.loc 1 64 0
	mov	DWORD PTR [esp+4], edx
	mov	DWORD PTR [esp], eax
	call	_xmlnode_get_attrib
LVL6:
	.loc 1 67 0
	test	eax, eax
	je	L9
	.loc 1 67 0 is_stmt 0 discriminator 1
	lea	ebx, [esp+16]
	mov	DWORD PTR [esp+4], ebx
	mov	DWORD PTR [esp], eax
	call	_gdk_color_parse
LVL7:
	test	eax, eax
	je	L9
	.loc 1 68 0 is_stmt 1
	call	_gdk_colormap_get_system
LVL8:
	mov	DWORD PTR [esp+12], 1
	mov	DWORD PTR [esp+8], 0
	mov	DWORD PTR [esp+4], ebx
	mov	DWORD PTR [esp], eax
	call	_gdk_colormap_alloc_color
LVL9:
	.loc 1 69 0
	mov	DWORD PTR [esp], ebx
	call	_gdk_color_copy
LVL10:
L8:
	.loc 1 73 0
	mov	edx, DWORD PTR [esp+28]
	xor	edx, DWORD PTR ___stack_chk_guard
	jne	L15
	add	esp, 40
LCFI7:
	.cfi_remember_state
	.cfi_def_cfa_offset 8
	pop	ebx
LCFI8:
	.cfi_restore 3
	.cfi_def_cfa_offset 4
	ret
	.p2align 2,,3
L9:
LCFI9:
	.cfi_restore_state
	.loc 1 71 0
	xor	eax, eax
	jmp	L8
L15:
	.loc 1 73 0
	call	___stack_chk_fail
LVL11:
	.cfi_endproc
LFE94:
	.section .rdata,"dr"
LC0:
	.ascii "font\0"
LC1:
	.ascii "color\0"
LC2:
	.ascii "black\0"
	.text
	.p2align 2,,3
	.def	_pidgin_theme_font_parse;	.scl	3;	.type	32;	.endef
_pidgin_theme_font_parse:
LFB93:
	.loc 1 47 0
	.cfi_startproc
LVL12:
	push	esi
LCFI10:
	.cfi_def_cfa_offset 8
	.cfi_offset 6, -8
	push	ebx
LCFI11:
	.cfi_def_cfa_offset 12
	.cfi_offset 3, -12
	sub	esp, 36
LCFI12:
	.cfi_def_cfa_offset 48
	mov	ebx, eax
	.loc 1 47 0
	mov	eax, DWORD PTR ___stack_chk_guard
	mov	DWORD PTR [esp+28], eax
	xor	eax, eax
LVL13:
	.loc 1 52 0
	mov	DWORD PTR [esp+4], OFFSET FLAT:LC0
	mov	DWORD PTR [esp], ebx
	call	_xmlnode_get_attrib
LVL14:
	mov	esi, eax
LVL15:
	.loc 1 54 0
	mov	DWORD PTR [esp+4], OFFSET FLAT:LC1
	mov	DWORD PTR [esp], ebx
	call	_xmlnode_get_attrib
LVL16:
	lea	ebx, [esp+16]
LVL17:
	test	eax, eax
	je	L19
	.loc 1 55 0 discriminator 1
	mov	DWORD PTR [esp+4], ebx
	mov	DWORD PTR [esp], eax
	call	_gdk_color_parse
LVL18:
	.loc 1 54 0 discriminator 1
	test	eax, eax
	jne	L18
L19:
	.loc 1 56 0
	mov	DWORD PTR [esp+4], ebx
	mov	DWORD PTR [esp], OFFSET FLAT:LC2
	call	_gdk_color_parse
LVL19:
L18:
	.loc 1 58 0
	mov	DWORD PTR [esp+4], ebx
	mov	DWORD PTR [esp], esi
	call	_pidgin_theme_font_new
LVL20:
	.loc 1 59 0
	mov	edx, DWORD PTR [esp+28]
	xor	edx, DWORD PTR ___stack_chk_guard
	jne	L25
	add	esp, 36
LCFI13:
	.cfi_remember_state
	.cfi_def_cfa_offset 12
	pop	ebx
LCFI14:
	.cfi_restore 3
	.cfi_def_cfa_offset 8
	pop	esi
LCFI15:
	.cfi_restore 6
	.cfi_def_cfa_offset 4
LVL21:
	ret
LVL22:
L25:
LCFI16:
	.cfi_restore_state
	call	___stack_chk_fail
LVL23:
	.cfi_endproc
LFE93:
	.section .rdata,"dr"
LC3:
	.ascii "contact_text\0"
LC4:
	.ascii "online_text\0"
LC5:
	.ascii "away_text\0"
LC6:
	.ascii "offline_text\0"
LC7:
	.ascii "idle_text\0"
LC8:
	.ascii "message_text\0"
LC9:
	.ascii "message_nick_said_text\0"
LC10:
	.ascii "status_text\0"
LC11:
	.ascii "blist-loader\0"
LC12:
	.ascii "buddy list themes\0"
LC13:
	.ascii "theme.xml\0"
LC14:
	.ascii "description\0"
LC15:
	.ascii "name\0"
LC16:
	.ascii "type\0"
LC17:
	.ascii "pidgin buddy list\0"
LC18:
	.ascii "groups\0"
	.align 4
LC19:
	.ascii "Missing or problem with tags: <blist>.\12\0"
LC20:
	.ascii "gtkblist-theme-loader\0"
LC21:
	.ascii "expanded\0"
LC22:
	.ascii "placement\0"
LC23:
	.ascii "emblem\0"
LC24:
	.ascii "protocol_icon\0"
LC25:
	.ascii "buddy_icon\0"
LC26:
	.ascii "status_icon\0"
LC27:
	.ascii "image\0"
LC28:
	.ascii "author\0"
LC29:
	.ascii "status\0"
LC30:
	.ascii "message_nick_said\0"
LC31:
	.ascii "message\0"
LC32:
	.ascii "idle\0"
LC33:
	.ascii "offline\0"
LC34:
	.ascii "away\0"
LC35:
	.ascii "online\0"
LC36:
	.ascii "contact\0"
LC37:
	.ascii "contact-color\0"
LC38:
	.ascii "collapsed-text\0"
LC39:
	.ascii "collapsed-color\0"
LC40:
	.ascii "expanded-text\0"
LC41:
	.ascii "expanded-color\0"
LC42:
	.ascii "layout\0"
LC43:
	.ascii "background-color\0"
LC44:
	.ascii "directory\0"
LC45:
	.ascii "blist\0"
LC46:
	.ascii "dir != NULL\0"
	.align 4
LC47:
	.ascii "Missing attribute or problem with the root element\12\0"
LC48:
	.ascii "background\0"
LC49:
	.ascii "collapsed\0"
	.align 4
LC50:
	.ascii "Missing or problem with tags: <groups> <expanded>.\12\0"
LC51:
	.ascii "buddys\0"
	.align 4
LC52:
	.ascii "Missing or problem with tags: <groups> <collapsed>.\12\0"
	.align 4
LC53:
	.ascii "Missing or problem with tags: <buddys> <placement>.\12\0"
	.align 4
LC54:
	.ascii "Missing or problem with tags: <buddys> <background>.\12\0"
	.text
	.p2align 2,,3
	.def	_pidgin_blist_loader_build;	.scl	3;	.type	32;	.endef
_pidgin_blist_loader_build:
LFB95:
	.loc 1 77 0
	.cfi_startproc
LVL24:
	push	ebp
LCFI17:
	.cfi_def_cfa_offset 8
	.cfi_offset 5, -8
	push	edi
LCFI18:
	.cfi_def_cfa_offset 12
	.cfi_offset 7, -12
	push	esi
LCFI19:
	.cfi_def_cfa_offset 16
	.cfi_offset 6, -16
	push	ebx
LCFI20:
	.cfi_def_cfa_offset 20
	.cfi_offset 3, -20
	sub	esp, 412
LCFI21:
	.cfi_def_cfa_offset 432
	mov	eax, DWORD PTR [esp+432]
	mov	DWORD PTR [esp+196], eax
	.loc 1 77 0
	mov	edx, DWORD PTR ___stack_chk_guard
	mov	DWORD PTR [esp+396], edx
	xor	edx, edx
LVL25:
	.loc 1 90 0
	mov	DWORD PTR [esp+324], OFFSET FLAT:LC3
	lea	esi, [esp+268]
	mov	DWORD PTR [esp+328], esi
	mov	DWORD PTR [esp+332], OFFSET FLAT:LC4
	lea	eax, [esp+272]
	mov	DWORD PTR [esp+336], eax
	mov	DWORD PTR [esp+340], OFFSET FLAT:LC5
	lea	eax, [esp+276]
	mov	DWORD PTR [esp+344], eax
	mov	DWORD PTR [esp+348], OFFSET FLAT:LC6
	lea	eax, [esp+280]
	mov	DWORD PTR [esp+352], eax
	mov	DWORD PTR [esp+356], OFFSET FLAT:LC7
	lea	eax, [esp+284]
	mov	DWORD PTR [esp+360], eax
	mov	DWORD PTR [esp+364], OFFSET FLAT:LC8
	lea	eax, [esp+288]
	mov	DWORD PTR [esp+368], eax
	mov	DWORD PTR [esp+372], OFFSET FLAT:LC9
	lea	eax, [esp+292]
	mov	DWORD PTR [esp+376], eax
	mov	DWORD PTR [esp+380], OFFSET FLAT:LC10
	lea	eax, [esp+296]
	mov	DWORD PTR [esp+384], eax
	mov	DWORD PTR [esp+388], 0
	mov	DWORD PTR [esp+392], 0
LVL26:
	.loc 1 105 0
	mov	DWORD PTR [esp+268], 0
LVL27:
	.loc 1 106 0
	mov	DWORD PTR [esp+272], 0
LVL28:
	.loc 1 107 0
	mov	DWORD PTR [esp+276], 0
LVL29:
	.loc 1 108 0
	mov	DWORD PTR [esp+280], 0
LVL30:
	.loc 1 109 0
	mov	DWORD PTR [esp+284], 0
LVL31:
	.loc 1 110 0
	mov	DWORD PTR [esp+288], 0
LVL32:
	.loc 1 111 0
	mov	DWORD PTR [esp+292], 0
LVL33:
	.loc 1 112 0
	mov	DWORD PTR [esp+296], 0
LVL34:
LBB2:
	.loc 1 115 0
	mov	eax, DWORD PTR [esp+196]
	test	eax, eax
	je	L102
LVL35:
LBE2:
	.loc 1 116 0
	mov	DWORD PTR [esp+8], 0
	mov	DWORD PTR [esp+4], OFFSET FLAT:LC13
	mov	eax, DWORD PTR [esp+196]
	mov	DWORD PTR [esp], eax
	call	_g_build_filename
LVL36:
	mov	ebx, eax
LVL37:
	.loc 1 118 0
	mov	DWORD PTR [esp+4], 1
	mov	DWORD PTR [esp], eax
	call	_g_file_test_utf8
LVL38:
	test	eax, eax
	jne	L52
	.loc 1 121 0
	mov	DWORD PTR [esp], ebx
	call	_g_free
LVL39:
	.loc 1 123 0
	xor	eax, eax
LVL40:
L29:
	.loc 1 247 0
	mov	edx, DWORD PTR [esp+396]
	xor	edx, DWORD PTR ___stack_chk_guard
	jne	L103
	add	esp, 412
LCFI22:
	.cfi_remember_state
	.cfi_def_cfa_offset 20
	pop	ebx
LCFI23:
	.cfi_restore 3
	.cfi_def_cfa_offset 16
	pop	esi
LCFI24:
	.cfi_restore 6
	.cfi_def_cfa_offset 12
	pop	edi
LCFI25:
	.cfi_restore 7
	.cfi_def_cfa_offset 8
	pop	ebp
LCFI26:
	.cfi_restore 5
	.cfi_def_cfa_offset 4
	ret
LVL41:
	.p2align 2,,3
L52:
LCFI27:
	.cfi_restore_state
	.loc 1 119 0
	mov	DWORD PTR [esp+12], OFFSET FLAT:LC11
	mov	DWORD PTR [esp+8], OFFSET FLAT:LC12
	mov	DWORD PTR [esp+4], OFFSET FLAT:LC13
	mov	eax, DWORD PTR [esp+196]
	mov	DWORD PTR [esp], eax
	call	_xmlnode_from_file
LVL42:
	mov	ebp, eax
LVL43:
	.loc 1 121 0
	mov	DWORD PTR [esp], ebx
	call	_g_free
LVL44:
	.loc 1 122 0
	test	ebp, ebp
	je	L70
	.loc 1 125 0
	mov	DWORD PTR [esp+4], OFFSET FLAT:LC14
	mov	DWORD PTR [esp], ebp
	call	_xmlnode_get_child
LVL45:
	.loc 1 126 0
	mov	DWORD PTR [esp], eax
	call	_xmlnode_get_data
LVL46:
	mov	DWORD PTR [esp+224], eax
LVL47:
	.loc 1 128 0
	mov	DWORD PTR [esp+4], OFFSET FLAT:LC15
	mov	DWORD PTR [esp], ebp
	call	_xmlnode_get_attrib
LVL48:
	mov	DWORD PTR [esp+228], eax
LVL49:
	.loc 1 131 0
	test	eax, eax
	je	L30
	.loc 1 131 0 is_stmt 0 discriminator 1
	mov	DWORD PTR [esp+4], OFFSET FLAT:LC16
	mov	DWORD PTR [esp], ebp
	call	_xmlnode_get_attrib
LVL50:
	mov	DWORD PTR [esp+4], OFFSET FLAT:LC17
	mov	DWORD PTR [esp], eax
	call	_purple_strequal
LVL51:
	test	eax, eax
	je	L30
	.loc 1 137 0 is_stmt 1
	mov	DWORD PTR [esp+4], OFFSET FLAT:LC45
	mov	DWORD PTR [esp], ebp
	call	_xmlnode_get_child
LVL52:
	test	eax, eax
	je	L104
	.loc 1 138 0
	mov	edx, OFFSET FLAT:LC1
	call	_parse_color
LVL53:
	mov	DWORD PTR [esp+212], eax
LVL54:
	.loc 1 146 0
	mov	DWORD PTR [esp+4], OFFSET FLAT:LC18
	mov	DWORD PTR [esp], ebp
	call	_xmlnode_get_child
LVL55:
	mov	ebx, eax
LVL56:
	test	eax, eax
	je	L33
	.loc 1 146 0 is_stmt 0 discriminator 1
	mov	DWORD PTR [esp+4], OFFSET FLAT:LC21
	mov	DWORD PTR [esp], eax
	call	_xmlnode_get_child
LVL57:
	mov	edi, eax
LVL58:
	test	eax, eax
	je	L33
	.loc 1 147 0 is_stmt 1
	call	_pidgin_theme_font_parse
LVL59:
	mov	DWORD PTR [esp+220], eax
LVL60:
	.loc 1 148 0
	mov	edx, OFFSET FLAT:LC48
	mov	eax, edi
LVL61:
	call	_parse_color
LVL62:
	mov	DWORD PTR [esp+208], eax
LVL63:
	.loc 1 154 0
	mov	DWORD PTR [esp+4], OFFSET FLAT:LC49
	mov	DWORD PTR [esp], ebx
	call	_xmlnode_get_child
LVL64:
	mov	ebx, eax
LVL65:
	test	eax, eax
	je	L105
	.loc 1 155 0
	call	_pidgin_theme_font_parse
LVL66:
	mov	DWORD PTR [esp+216], eax
LVL67:
	.loc 1 156 0
	mov	edx, OFFSET FLAT:LC48
	mov	eax, ebx
LVL68:
	call	_parse_color
LVL69:
	mov	DWORD PTR [esp+204], eax
LVL70:
	.loc 1 163 0
	mov	DWORD PTR [esp+4], OFFSET FLAT:LC51
	mov	DWORD PTR [esp], ebp
	call	_xmlnode_get_child
LVL71:
	mov	edi, eax
LVL72:
	test	eax, eax
	je	L37
	.loc 1 163 0 is_stmt 0 discriminator 1
	mov	DWORD PTR [esp+4], OFFSET FLAT:LC22
	mov	DWORD PTR [esp], edi
	call	_xmlnode_get_child
LVL73:
	mov	ebx, eax
LVL74:
	test	eax, eax
	je	L37
	.loc 1 166 0 is_stmt 1
	mov	DWORD PTR [esp+4], OFFSET FLAT:LC26
	mov	DWORD PTR [esp], eax
	call	_xmlnode_get_attrib
LVL75:
	test	eax, eax
	je	L62
	.loc 1 166 0 is_stmt 0 discriminator 1
	mov	DWORD PTR [esp], eax
	call	_atoi
LVL76:
L62:
	.loc 1 166 0 discriminator 3
	mov	DWORD PTR [esp+300], eax
	.loc 1 167 0 is_stmt 1 discriminator 3
	mov	DWORD PTR [esp+4], OFFSET FLAT:LC15
	mov	DWORD PTR [esp], ebx
	call	_xmlnode_get_attrib
LVL77:
	test	eax, eax
	je	L71
	.loc 1 167 0 is_stmt 0 discriminator 1
	mov	DWORD PTR [esp], eax
	call	_atoi
LVL78:
L38:
	.loc 1 167 0 discriminator 3
	mov	DWORD PTR [esp+304], eax
	.loc 1 168 0 is_stmt 1 discriminator 3
	mov	DWORD PTR [esp+4], OFFSET FLAT:LC23
	mov	DWORD PTR [esp], ebx
	call	_xmlnode_get_attrib
LVL79:
	test	eax, eax
	je	L72
	.loc 1 168 0 is_stmt 0 discriminator 1
	mov	DWORD PTR [esp], eax
	call	_atoi
LVL80:
L39:
	.loc 1 168 0 discriminator 3
	mov	DWORD PTR [esp+308], eax
	.loc 1 169 0 is_stmt 1 discriminator 3
	mov	DWORD PTR [esp+4], OFFSET FLAT:LC24
	mov	DWORD PTR [esp], ebx
	call	_xmlnode_get_attrib
LVL81:
	test	eax, eax
	je	L73
	.loc 1 169 0 is_stmt 0 discriminator 1
	mov	DWORD PTR [esp], eax
	call	_atoi
LVL82:
L40:
	.loc 1 169 0 discriminator 3
	mov	DWORD PTR [esp+312], eax
	.loc 1 170 0 is_stmt 1 discriminator 3
	mov	DWORD PTR [esp+4], OFFSET FLAT:LC25
	mov	DWORD PTR [esp], ebx
	call	_xmlnode_get_attrib
LVL83:
	test	eax, eax
	je	L74
	.loc 1 170 0 is_stmt 0 discriminator 1
	mov	DWORD PTR [esp], eax
	call	_atoi
LVL84:
L41:
	.loc 1 170 0 discriminator 3
	mov	DWORD PTR [esp+316], eax
	.loc 1 171 0 is_stmt 1 discriminator 3
	mov	DWORD PTR [esp+4], OFFSET FLAT:LC26
	mov	DWORD PTR [esp], ebx
	call	_xmlnode_get_attrib
LVL85:
	test	eax, eax
	je	L75
	.loc 1 171 0 is_stmt 0 discriminator 2
	mov	DWORD PTR [esp], eax
	call	_atoi
LVL86:
	test	eax, eax
	setne	al
	movzx	eax, al
L42:
	.loc 1 171 0
	mov	DWORD PTR [esp+320], eax
LVL87:
	.loc 1 177 0 is_stmt 1
	mov	DWORD PTR [esp+4], OFFSET FLAT:LC48
	mov	DWORD PTR [esp], edi
	call	_xmlnode_get_child
LVL88:
	test	eax, eax
	je	L106
	.loc 1 178 0
	mov	edx, OFFSET FLAT:LC1
	call	_parse_color
LVL89:
	mov	DWORD PTR [esp+200], eax
LVL90:
	lea	ebx, [esp+336]
	.loc 1 183 0
	mov	eax, OFFSET FLAT:LC3
LVL91:
	.loc 1 184 0
	mov	DWORD PTR [esp+4], eax
	mov	DWORD PTR [esp], edi
	call	_xmlnode_get_child
LVL92:
	test	eax, eax
	je	L107
LVL93:
	.p2align 2,,3
L43:
	.loc 1 186 0
	call	_pidgin_theme_font_parse
LVL94:
	mov	DWORD PTR [esi], eax
	.loc 1 183 0
	mov	eax, DWORD PTR [ebx-4]
	test	eax, eax
	je	L65
	mov	esi, DWORD PTR [ebx]
	add	ebx, 8
	.loc 1 184 0
	mov	DWORD PTR [esp+4], eax
	mov	DWORD PTR [esp], edi
	call	_xmlnode_get_child
LVL95:
	test	eax, eax
	jne	L43
L107:
LVL96:
	.loc 1 188 0
	mov	DWORD PTR [esi], 0
	.loc 1 193 0
	xor	edi, edi
LVL97:
	jmp	L66
LVL98:
	.p2align 2,,3
L30:
	.loc 1 134 0
	mov	DWORD PTR [esp+4], OFFSET FLAT:LC47
	mov	DWORD PTR [esp], OFFSET FLAT:LC20
	call	_purple_debug_warning
LVL99:
L34:
	.loc 1 123 0
	mov	DWORD PTR [esp+212], 0
LVL100:
L55:
	mov	DWORD PTR [esp+220], 0
	mov	DWORD PTR [esp+208], 0
LVL101:
L58:
	mov	DWORD PTR [esp+216], 0
	mov	DWORD PTR [esp+204], 0
LVL102:
L63:
	.loc 1 193 0
	mov	DWORD PTR [esp+200], 0
	xor	edi, edi
LVL103:
	.p2align 2,,3
L66:
	.loc 1 196 0 discriminator 4
	mov	ecx, DWORD PTR [esp+296]
	mov	edx, DWORD PTR [esp+292]
	mov	eax, DWORD PTR [esp+288]
	mov	DWORD PTR [esp+232], eax
	mov	eax, DWORD PTR [esp+284]
	mov	DWORD PTR [esp+236], eax
	mov	esi, DWORD PTR [esp+280]
	mov	ebx, DWORD PTR [esp+276]
	mov	eax, DWORD PTR [esp+272]
	mov	DWORD PTR [esp+240], eax
	mov	eax, DWORD PTR [esp+268]
	mov	DWORD PTR [esp+244], eax
	mov	DWORD PTR [esp+4], OFFSET FLAT:LC27
	mov	DWORD PTR [esp], ebp
	mov	DWORD PTR [esp+188], edx
	mov	DWORD PTR [esp+192], ecx
	call	_xmlnode_get_attrib
LVL104:
	mov	DWORD PTR [esp+248], eax
	mov	DWORD PTR [esp+4], OFFSET FLAT:LC28
	mov	DWORD PTR [esp], ebp
	call	_xmlnode_get_attrib
LVL105:
	mov	DWORD PTR [esp+252], eax
	call	_pidgin_blist_theme_get_type
LVL106:
	mov	DWORD PTR [esp+172], 0
	mov	ecx, DWORD PTR [esp+192]
	mov	DWORD PTR [esp+168], ecx
	mov	DWORD PTR [esp+164], OFFSET FLAT:LC29
	mov	edx, DWORD PTR [esp+188]
	mov	DWORD PTR [esp+160], edx
	mov	DWORD PTR [esp+156], OFFSET FLAT:LC30
	mov	edx, DWORD PTR [esp+232]
	mov	DWORD PTR [esp+152], edx
	mov	DWORD PTR [esp+148], OFFSET FLAT:LC31
	mov	edx, DWORD PTR [esp+236]
	mov	DWORD PTR [esp+144], edx
	mov	DWORD PTR [esp+140], OFFSET FLAT:LC32
	mov	DWORD PTR [esp+136], esi
	mov	DWORD PTR [esp+132], OFFSET FLAT:LC33
	mov	DWORD PTR [esp+128], ebx
	mov	DWORD PTR [esp+124], OFFSET FLAT:LC34
	mov	edx, DWORD PTR [esp+240]
	mov	DWORD PTR [esp+120], edx
	mov	DWORD PTR [esp+116], OFFSET FLAT:LC35
	mov	edx, DWORD PTR [esp+244]
	mov	DWORD PTR [esp+112], edx
	mov	DWORD PTR [esp+108], OFFSET FLAT:LC36
	mov	edx, DWORD PTR [esp+200]
	mov	DWORD PTR [esp+104], edx
	mov	DWORD PTR [esp+100], OFFSET FLAT:LC37
	mov	edx, DWORD PTR [esp+216]
	mov	DWORD PTR [esp+96], edx
	mov	DWORD PTR [esp+92], OFFSET FLAT:LC38
	mov	edx, DWORD PTR [esp+204]
	mov	DWORD PTR [esp+88], edx
	mov	DWORD PTR [esp+84], OFFSET FLAT:LC39
	mov	edx, DWORD PTR [esp+220]
	mov	DWORD PTR [esp+80], edx
	mov	DWORD PTR [esp+76], OFFSET FLAT:LC40
	mov	edx, DWORD PTR [esp+208]
	mov	DWORD PTR [esp+72], edx
	mov	DWORD PTR [esp+68], OFFSET FLAT:LC41
	lea	edx, [esp+300]
	mov	DWORD PTR [esp+64], edx
	mov	DWORD PTR [esp+60], OFFSET FLAT:LC42
	mov	edx, DWORD PTR [esp+212]
	mov	DWORD PTR [esp+56], edx
	mov	DWORD PTR [esp+52], OFFSET FLAT:LC43
	mov	edx, DWORD PTR [esp+224]
	mov	DWORD PTR [esp+48], edx
	mov	DWORD PTR [esp+44], OFFSET FLAT:LC14
	mov	edx, DWORD PTR [esp+196]
	mov	DWORD PTR [esp+40], edx
	mov	DWORD PTR [esp+36], OFFSET FLAT:LC44
	mov	edx, DWORD PTR [esp+248]
	mov	DWORD PTR [esp+32], edx
	mov	DWORD PTR [esp+28], OFFSET FLAT:LC27
	mov	edx, DWORD PTR [esp+252]
	mov	DWORD PTR [esp+24], edx
	mov	DWORD PTR [esp+20], OFFSET FLAT:LC28
	mov	edx, DWORD PTR [esp+228]
	mov	DWORD PTR [esp+16], edx
	mov	DWORD PTR [esp+12], OFFSET FLAT:LC15
	mov	DWORD PTR [esp+8], OFFSET FLAT:LC45
	mov	DWORD PTR [esp+4], OFFSET FLAT:LC16
	mov	DWORD PTR [esp], eax
	call	_g_object_new
LVL107:
	mov	ebx, eax
LVL108:
	lea	esi, [esp+328]
LVL109:
	.p2align 2,,3
L46:
	.loc 1 220 0
	mov	eax, DWORD PTR [esi]
	mov	eax, DWORD PTR [eax]
	test	eax, eax
	je	L45
	.loc 1 221 0
	mov	DWORD PTR [esp], eax
	call	_pidgin_theme_font_free
LVL110:
L45:
	add	esi, 8
	.loc 1 219 0
	mov	eax, DWORD PTR [esi-4]
	test	eax, eax
	jne	L46
	.loc 1 225 0
	mov	eax, DWORD PTR [esp+220]
	mov	DWORD PTR [esp], eax
	call	_pidgin_theme_font_free
LVL111:
	.loc 1 226 0
	mov	eax, DWORD PTR [esp+216]
	mov	DWORD PTR [esp], eax
	call	_pidgin_theme_font_free
LVL112:
	.loc 1 228 0
	mov	DWORD PTR [esp], ebp
	call	_xmlnode_free
LVL113:
	.loc 1 229 0
	mov	eax, DWORD PTR [esp+224]
	mov	DWORD PTR [esp], eax
	call	_g_free
LVL114:
	.loc 1 232 0
	test	edi, edi
	je	L108
LVL115:
L47:
	.loc 1 237 0
	mov	esi, DWORD PTR [esp+212]
	test	esi, esi
	je	L48
	.loc 1 238 0
	mov	eax, DWORD PTR [esp+212]
	mov	DWORD PTR [esp], eax
	call	_gdk_color_free
LVL116:
L48:
	.loc 1 239 0
	mov	ecx, DWORD PTR [esp+208]
	test	ecx, ecx
	je	L49
	.loc 1 240 0
	mov	eax, DWORD PTR [esp+208]
	mov	DWORD PTR [esp], eax
	call	_gdk_color_free
LVL117:
L49:
	.loc 1 241 0
	mov	edx, DWORD PTR [esp+204]
	test	edx, edx
	je	L50
	.loc 1 242 0
	mov	eax, DWORD PTR [esp+204]
	mov	DWORD PTR [esp], eax
	call	_gdk_color_free
LVL118:
L50:
	.loc 1 243 0
	mov	eax, DWORD PTR [esp+200]
	test	eax, eax
	je	L51
	.loc 1 244 0
	mov	eax, DWORD PTR [esp+200]
	mov	DWORD PTR [esp], eax
	call	_gdk_color_free
LVL119:
L51:
	.loc 1 246 0
	call	_purple_theme_get_type
LVL120:
	mov	DWORD PTR [esp+4], eax
	mov	DWORD PTR [esp], ebx
	call	_g_type_check_instance_cast
LVL121:
	jmp	L29
	.p2align 2,,3
L108:
	.loc 1 233 0
	mov	DWORD PTR [esp], ebx
	call	_g_object_unref
LVL122:
	.loc 1 234 0
	xor	ebx, ebx
	jmp	L47
LVL123:
L33:
	.loc 1 150 0
	mov	DWORD PTR [esp+4], OFFSET FLAT:LC50
	mov	DWORD PTR [esp], OFFSET FLAT:LC20
	call	_purple_debug_warning
LVL124:
	jmp	L55
LVL125:
	.p2align 2,,3
L65:
	.loc 1 193 0
	mov	DWORD PTR [esp+4], OFFSET FLAT:LC15
	mov	DWORD PTR [esp], ebp
	call	_xmlnode_get_attrib
LVL126:
	xor	edx, edx
	test	eax, eax
	setne	dl
	mov	edi, edx
LVL127:
	jmp	L66
LVL128:
L105:
	.loc 1 158 0
	mov	DWORD PTR [esp+4], OFFSET FLAT:LC52
	mov	DWORD PTR [esp], OFFSET FLAT:LC20
	call	_purple_debug_warning
LVL129:
	jmp	L58
LVL130:
L106:
	.loc 1 180 0
	mov	DWORD PTR [esp+4], OFFSET FLAT:LC54
	mov	DWORD PTR [esp], OFFSET FLAT:LC20
	call	_purple_debug_warning
LVL131:
	jmp	L63
LVL132:
	.p2align 2,,3
L102:
	.loc 1 115 0
	mov	DWORD PTR [esp+8], OFFSET FLAT:LC46
	mov	DWORD PTR [esp+4], OFFSET FLAT:___PRETTY_FUNCTION__.76337
	mov	DWORD PTR [esp], 0
	call	_g_return_if_fail_warning
LVL133:
	xor	eax, eax
	jmp	L29
LVL134:
	.p2align 2,,3
L104:
	.loc 1 140 0
	mov	DWORD PTR [esp+4], OFFSET FLAT:LC19
	mov	DWORD PTR [esp], OFFSET FLAT:LC20
	call	_purple_debug_warning
LVL135:
	jmp	L34
LVL136:
	.p2align 2,,3
L37:
	.loc 1 173 0
	mov	DWORD PTR [esp+4], OFFSET FLAT:LC53
	mov	DWORD PTR [esp], OFFSET FLAT:LC20
	call	_purple_debug_warning
LVL137:
	jmp	L63
LVL138:
L71:
	.loc 1 167 0
	mov	eax, 1
LVL139:
	jmp	L38
LVL140:
L75:
	.loc 1 171 0
	mov	eax, 1
LVL141:
	jmp	L42
LVL142:
L74:
	.loc 1 170 0
	mov	eax, 4
LVL143:
	jmp	L41
LVL144:
L73:
	.loc 1 169 0
	mov	eax, 3
LVL145:
	jmp	L40
LVL146:
L72:
	.loc 1 168 0
	mov	eax, 2
LVL147:
	jmp	L39
LVL148:
L103:
	.loc 1 247 0
	call	___stack_chk_fail
LVL149:
L70:
	.loc 1 123 0
	xor	eax, eax
	jmp	L29
	.cfi_endproc
LFE95:
	.section .rdata,"dr"
LC55:
	.ascii "PidginBlistThemeLoader\0"
	.text
	.p2align 2,,3
	.globl	_pidgin_blist_theme_loader_get_type
	.def	_pidgin_blist_theme_loader_get_type;	.scl	2;	.type	32;	.endef
_pidgin_blist_theme_loader_get_type:
LFB97:
	.loc 1 263 0
	.cfi_startproc
	sub	esp, 44
LCFI28:
	.cfi_def_cfa_offset 48
	.loc 1 263 0
	mov	eax, DWORD PTR ___stack_chk_guard
	mov	DWORD PTR [esp+28], eax
	xor	eax, eax
	.loc 1 265 0
	mov	eax, DWORD PTR _type.76351
	test	eax, eax
	jne	L110
LBB3:
	.loc 1 278 0
	call	_purple_theme_loader_get_type
LVL150:
	mov	DWORD PTR [esp+12], 0
	mov	DWORD PTR [esp+8], OFFSET FLAT:_info.76352
	mov	DWORD PTR [esp+4], OFFSET FLAT:LC55
	mov	DWORD PTR [esp], eax
	call	_g_type_register_static
LVL151:
	mov	DWORD PTR _type.76351, eax
L110:
LBE3:
	.loc 1 282 0
	mov	edx, DWORD PTR [esp+28]
	xor	edx, DWORD PTR ___stack_chk_guard
	jne	L113
	add	esp, 44
LCFI29:
	.cfi_remember_state
	.cfi_def_cfa_offset 4
	ret
L113:
LCFI30:
	.cfi_restore_state
	call	___stack_chk_fail
LVL152:
	.cfi_endproc
LFE97:
.lcomm _type.76351,4,4
	.section .rdata,"dr"
	.align 32
_info.76352:
	.word	72
	.space 2
	.long	0
	.long	0
	.long	_pidgin_blist_theme_loader_class_init
	.long	0
	.long	0
	.word	16
	.word	0
	.long	0
	.long	0
___PRETTY_FUNCTION__.76337:
	.ascii "pidgin_blist_loader_build\0"
	.text
Letext0:
	.file 2 "c:/workspace/pidgin-devel/win32-dev/mingw-4.7.2/bin/../lib/gcc/mingw32/4.7.2/../../../../include/stdio.h"
	.file 3 "c:/workspace/pidgin-devel/win32-dev/mingw-4.7.2/bin/../lib/gcc/mingw32/4.7.2/include/stddef.h"
	.file 4 "../../win32-dev/gtk_2_0-2.14/lib/glib-2.0/include/glibconfig.h"
	.file 5 "../../win32-dev/gtk_2_0-2.14/include/glib-2.0/glib/gtypes.h"
	.file 6 "../../win32-dev/gtk_2_0-2.14/include/glib-2.0/glib/gdataset.h"
	.file 7 "../../win32-dev/gtk_2_0-2.14/include/glib-2.0/glib/gfileutils.h"
	.file 8 "../../win32-dev/gtk_2_0-2.14/include/glib-2.0/glib/ghash.h"
	.file 9 "../../win32-dev/gtk_2_0-2.14/include/glib-2.0/glib/gslist.h"
	.file 10 "../../win32-dev/gtk_2_0-2.14/include/glib-2.0/gobject/gtype.h"
	.file 11 "../../win32-dev/gtk_2_0-2.14/include/glib-2.0/gobject/gvalue.h"
	.file 12 "../../win32-dev/gtk_2_0-2.14/include/glib-2.0/gobject/gparam.h"
	.file 13 "../../win32-dev/gtk_2_0-2.14/include/glib-2.0/gobject/gobject.h"
	.file 14 "../libpurple/media/../xmlnode.h"
	.file 15 "../libpurple/theme.h"
	.file 16 "../libpurple/theme-loader.h"
	.file 17 "gtkblist-theme-loader.h"
	.file 18 "../../win32-dev/gtk_2_0-2.14/include/gtk-2.0/gdk/gdktypes.h"
	.file 19 "../../win32-dev/gtk_2_0-2.14/include/gtk-2.0/gdk/gdkcolor.h"
	.file 20 "../../win32-dev/gtk_2_0-2.14/include/gtk-2.0/gdk/gdkvisual.h"
	.file 21 "gtkblist-theme.h"
	.file 22 "c:/workspace/pidgin-devel/win32-dev/mingw-4.7.2/bin/../lib/gcc/mingw32/4.7.2/../../../../include/ctype.h"
	.file 23 "../libpurple/media/../util.h"
	.file 24 "c:/workspace/pidgin-devel/win32-dev/mingw-4.7.2/bin/../lib/gcc/mingw32/4.7.2/../../../../include/stdlib.h"
	.file 25 "../../win32-dev/gtk_2_0-2.14/include/glib-2.0/glib/gmem.h"
	.file 26 "../libpurple/debug.h"
	.file 27 "../../win32-dev/gtk_2_0-2.14/include/glib-2.0/glib/gmessages.h"