	.file	"gtkdnd-hints.c"
	.intel_syntax noprefix
	.text
Ltext0:
	.p2align 2,,3
	.def	_get_widget_coords;	.scl	3;	.type	32;	.endef
_get_widget_coords:
LFB35:
	.file 1 "gtkdnd-hints.c"
	.loc 1 89 0
	.cfi_startproc
LVL0:
	push	ebp
LCFI0:
	.cfi_def_cfa_offset 8
	.cfi_offset 5, -8
	push	edi
LCFI1:
	.cfi_def_cfa_offset 12
	.cfi_offset 7, -12
	push	esi
LCFI2:
	.cfi_def_cfa_offset 16
	.cfi_offset 6, -16
	push	ebx
LCFI3:
	.cfi_def_cfa_offset 20
	.cfi_offset 3, -20
	sub	esp, 76
LCFI4:
	.cfi_def_cfa_offset 96
	mov	ebx, eax
	mov	ebp, edx
	mov	edi, ecx
	mov	eax, DWORD PTR [esp+96]
LVL1:
	mov	DWORD PTR [esp+28], eax
	mov	esi, DWORD PTR [esp+100]
	.loc 1 89 0
	mov	edx, DWORD PTR ___stack_chk_guard
	mov	DWORD PTR [esp+60], edx
	xor	edx, edx
LVL2:
	.loc 1 92 0
	mov	eax, DWORD PTR [ebx+56]
	mov	edx, DWORD PTR [ebx+52]
	test	eax, eax
	je	L3
	.loc 1 92 0 is_stmt 0 discriminator 1
	cmp	DWORD PTR [eax+52], edx
	je	L24
L3:
	.loc 1 100 0 is_stmt 1
	lea	eax, [esp+48]
	mov	DWORD PTR [esp+8], eax
	lea	eax, [esp+44]
	mov	DWORD PTR [esp+4], eax
	mov	DWORD PTR [esp], edx
	call	_gdk_window_get_origin
LVL3:
	.loc 1 101 0
	lea	eax, [esp+56]
	mov	DWORD PTR [esp+8], eax
	lea	eax, [esp+52]
	mov	DWORD PTR [esp+4], eax
	mov	eax, DWORD PTR [ebx+52]
	mov	DWORD PTR [esp], eax
	call	_gdk_drawable_get_size
LVL4:
L4:
	.loc 1 104 0
	test	ebp, ebp
	je	L5
LVL5:
	.loc 1 104 0 is_stmt 0 discriminator 1
	mov	eax, DWORD PTR [esp+44]
	mov	DWORD PTR [ebp+0], eax
L5:
	.loc 1 105 0 is_stmt 1
	test	edi, edi
	je	L6
LVL6:
	.loc 1 105 0 is_stmt 0 discriminator 1
	mov	eax, DWORD PTR [esp+48]
	mov	DWORD PTR [edi], eax
L6:
	.loc 1 106 0 is_stmt 1
	mov	eax, DWORD PTR [esp+28]
	test	eax, eax
	je	L7
	.loc 1 106 0 is_stmt 0 discriminator 1
	mov	eax, DWORD PTR [esp+52]
	add	eax, DWORD PTR [esp+44]
	mov	edx, DWORD PTR [esp+28]
	mov	DWORD PTR [edx], eax
L7:
	.loc 1 107 0 is_stmt 1
	test	esi, esi
	je	L1
	.loc 1 107 0 is_stmt 0 discriminator 1
	mov	eax, DWORD PTR [esp+56]
	add	eax, DWORD PTR [esp+48]
	mov	DWORD PTR [esi], eax
L1:
	.loc 1 108 0 is_stmt 1
	mov	eax, DWORD PTR [esp+60]
	xor	eax, DWORD PTR ___stack_chk_guard
	jne	L25
	add	esp, 76
LCFI5:
	.cfi_remember_state
	.cfi_def_cfa_offset 20
	pop	ebx
LCFI6:
	.cfi_restore 3
	.cfi_def_cfa_offset 16
LVL7:
	pop	esi
LCFI7:
	.cfi_restore 6
	.cfi_def_cfa_offset 12
	pop	edi
LCFI8:
	.cfi_restore 7
	.cfi_def_cfa_offset 8
LVL8:
	pop	ebp
LCFI9:
	.cfi_restore 5
	.cfi_def_cfa_offset 4
LVL9:
	ret
LVL10:
	.p2align 2,,3
L24:
LCFI10:
	.cfi_restore_state
	.loc 1 94 0
	mov	DWORD PTR [esp+4], 0
	mov	DWORD PTR [esp], 0
	lea	ecx, [esp+48]
LVL11:
	lea	edx, [esp+44]
	call	_get_widget_coords
LVL12:
	.loc 1 95 0
	mov	eax, DWORD PTR [ebx+48]
	mov	DWORD PTR [esp+56], eax
LVL13:
	.loc 1 96 0
	mov	eax, DWORD PTR [ebx+44]
	mov	DWORD PTR [esp+52], eax
LVL14:
	jmp	L4
LVL15:
L25:
	.loc 1 108 0
	call	___stack_chk_fail
LVL16:
	.cfi_endproc
LFE35:
	.p2align 2,,3
	.globl	_dnd_hints_hide
	.def	_dnd_hints_hide;	.scl	2;	.type	32;	.endef
_dnd_hints_hide:
LFB38:
	.loc 1 144 0
	.cfi_startproc
LVL17:
	push	ebx
LCFI11:
	.cfi_def_cfa_offset 8
	.cfi_offset 3, -8
	sub	esp, 40
LCFI12:
	.cfi_def_cfa_offset 48
	mov	eax, DWORD PTR [esp+48]
	.loc 1 144 0
	mov	edx, DWORD PTR ___stack_chk_guard
	mov	DWORD PTR [esp+28], edx
	xor	edx, edx
	.loc 1 145 0
	sal	eax, 4
	mov	ebx, DWORD PTR _hint_windows[eax]
LVL18:
	.loc 1 147 0
	test	ebx, ebx
	je	L26
LVL19:
LBB2:
	.loc 1 147 0 is_stmt 0 discriminator 1
	call	_gtk_widget_get_type
LVL20:
	mov	edx, DWORD PTR [ebx]
	test	edx, edx
	je	L28
	cmp	DWORD PTR [edx], eax
	je	L29
L28:
	.loc 1 147 0 discriminator 2
	mov	DWORD PTR [esp+4], eax
	mov	DWORD PTR [esp], ebx
	call	_g_type_check_instance_is_a
LVL21:
LBE2:
	test	eax, eax
	jne	L29
LVL22:
L26:
	.loc 1 149 0 is_stmt 1
	mov	edx, DWORD PTR [esp+28]
	xor	edx, DWORD PTR ___stack_chk_guard
	jne	L42
	add	esp, 40
LCFI13:
	.cfi_remember_state
	.cfi_def_cfa_offset 8
	pop	ebx
LCFI14:
	.cfi_restore 3
	.cfi_def_cfa_offset 4
LVL23:
	ret
LVL24:
	.p2align 2,,3
L29:
LCFI15:
	.cfi_restore_state
	.loc 1 148 0
	mov	eax, DWORD PTR [esp+28]
	xor	eax, DWORD PTR ___stack_chk_guard
	jne	L42
	mov	DWORD PTR [esp+48], ebx
	.loc 1 149 0
	add	esp, 40
LCFI16:
	.cfi_remember_state
	.cfi_def_cfa_offset 8
	pop	ebx
LCFI17:
	.cfi_restore 3
	.cfi_def_cfa_offset 4
LVL25:
	.loc 1 148 0
	jmp	_gtk_widget_hide
LVL26:
L42:
LCFI18:
	.cfi_restore_state
	.loc 1 149 0
	call	___stack_chk_fail
LVL27:
	.cfi_endproc
LFE38:
	.p2align 2,,3
	.globl	_dnd_hints_hide_all
	.def	_dnd_hints_hide_all;	.scl	2;	.type	32;	.endef
_dnd_hints_hide_all:
LFB37:
	.loc 1 135 0
	.cfi_startproc
	push	ebx
LCFI19:
	.cfi_def_cfa_offset 8
	.cfi_offset 3, -8
	sub	esp, 40
LCFI20:
	.cfi_def_cfa_offset 48
	.loc 1 135 0
	mov	eax, DWORD PTR ___stack_chk_guard
	mov	DWORD PTR [esp+28], eax
	xor	eax, eax
LVL28:
	.loc 1 138 0
	mov	ecx, DWORD PTR _hint_windows+4
	test	ecx, ecx
	je	L43
	xor	ebx, ebx
LVL29:
L44:
	.loc 1 139 0 discriminator 2
	mov	DWORD PTR [esp], ebx
	call	_dnd_hints_hide
LVL30:
	.loc 1 138 0 discriminator 2
	inc	ebx
LVL31:
	.loc 1 134 0 discriminator 2
	mov	eax, ebx
	sal	eax, 4
	.loc 1 138 0 discriminator 2
	mov	edx, DWORD PTR _hint_windows[eax+4]
	test	edx, edx
	jne	L44
LVL32:
L43:
	.loc 1 140 0
	mov	eax, DWORD PTR [esp+28]
	xor	eax, DWORD PTR ___stack_chk_guard
	jne	L50
	add	esp, 40
LCFI21:
	.cfi_remember_state
	.cfi_def_cfa_offset 8
	pop	ebx
LCFI22:
	.cfi_restore 3
	.cfi_def_cfa_offset 4
	ret
L50:
LCFI23:
	.cfi_restore_state
	call	___stack_chk_fail
LVL33:
	.cfi_endproc
LFE37:
	.section .rdata,"dr"
LC0:
	.ascii "pidgin\0"
LC1:
	.ascii "pixmaps\0"
LC2:
	.ascii "pixbuf\0"
	.text
	.p2align 2,,3
	.globl	_dnd_hints_show
	.def	_dnd_hints_show;	.scl	2;	.type	32;	.endef
_dnd_hints_show:
LFB39:
	.loc 1 153 0
	.cfi_startproc
LVL34:
	push	ebp
LCFI24:
	.cfi_def_cfa_offset 8
	.cfi_offset 5, -8
	push	edi
LCFI25:
	.cfi_def_cfa_offset 12
	.cfi_offset 7, -12
	push	esi
LCFI26:
	.cfi_def_cfa_offset 16
	.cfi_offset 6, -16
	push	ebx
LCFI27:
	.cfi_def_cfa_offset 20
	.cfi_offset 3, -20
	sub	esp, 76
LCFI28:
	.cfi_def_cfa_offset 96
	mov	eax, DWORD PTR [esp+96]
	mov	DWORD PTR [esp+36], eax
	mov	eax, DWORD PTR [esp+100]
	mov	DWORD PTR [esp+40], eax
	mov	eax, DWORD PTR [esp+104]
	mov	DWORD PTR [esp+44], eax
	.loc 1 153 0
	mov	eax, DWORD PTR ___stack_chk_guard
	mov	DWORD PTR [esp+60], eax
	xor	eax, eax
LBB10:
LBB11:
	.loc 1 116 0
	mov	ebx, DWORD PTR _done.69803
	test	ebx, ebx
	jne	L55
	.loc 1 119 0
	mov	DWORD PTR _done.69803, 1
LVL35:
	.loc 1 121 0
	mov	esi, DWORD PTR _hint_windows+4
	test	esi, esi
	je	L55
	mov	ebx, OFFSET FLAT:_hint_windows
LVL36:
L58:
LBB12:
	.loc 1 124 0
	call	_wpurple_install_dir
LVL37:
	mov	DWORD PTR [esp+16], 0
	mov	DWORD PTR [esp+12], esi
	mov	DWORD PTR [esp+8], OFFSET FLAT:LC0
	mov	DWORD PTR [esp+4], OFFSET FLAT:LC1
	mov	DWORD PTR [esp], eax
	call	_g_build_filename
LVL38:
	mov	edi, eax
LVL39:
LBB13:
LBB14:
	.loc 1 66 0
	mov	DWORD PTR [esp+4], 0
	mov	DWORD PTR [esp], eax
	call	_gdk_pixbuf_new_from_file_utf8
LVL40:
	mov	esi, eax
LVL41:
LBB15:
	.loc 1 67 0
	test	eax, eax
	je	L75
LVL42:
LBE15:
	.loc 1 69 0
	mov	DWORD PTR [esp+12], 128
	lea	eax, [esp+56]
LVL43:
	mov	DWORD PTR [esp+8], eax
	lea	eax, [esp+52]
	mov	DWORD PTR [esp+4], eax
	mov	DWORD PTR [esp], esi
	call	_gdk_pixbuf_render_pixmap_and_mask
LVL44:
	.loc 1 70 0
	mov	DWORD PTR [esp+4], 80
	mov	DWORD PTR [esp], esi
	call	_g_type_check_instance_cast
LVL45:
	mov	DWORD PTR [esp], eax
	call	_g_object_unref
LVL46:
	.loc 1 72 0
	call	_gdk_rgb_get_colormap
LVL47:
	mov	DWORD PTR [esp], eax
	call	_gtk_widget_push_colormap
LVL48:
	.loc 1 73 0
	mov	DWORD PTR [esp], 1
	call	_gtk_window_new
LVL49:
	mov	esi, eax
LVL50:
	.loc 1 74 0
	mov	eax, DWORD PTR [esp+56]
LVL51:
	mov	DWORD PTR [esp+4], eax
	mov	eax, DWORD PTR [esp+52]
	mov	DWORD PTR [esp], eax
	call	_gtk_image_new_from_pixmap
LVL52:
	mov	ebp, eax
LVL53:
	.loc 1 75 0
	call	_gtk_container_get_type
LVL54:
	mov	DWORD PTR [esp+4], eax
	mov	DWORD PTR [esp], esi
	call	_g_type_check_instance_cast
LVL55:
	mov	DWORD PTR [esp+4], ebp
	mov	DWORD PTR [esp], eax
	call	_gtk_container_add
LVL56:
	.loc 1 76 0
	mov	DWORD PTR [esp+12], 0
	mov	DWORD PTR [esp+8], 0
	mov	eax, DWORD PTR [esp+56]
	mov	DWORD PTR [esp+4], eax
	mov	DWORD PTR [esp], esi
	call	_gtk_widget_shape_combine_mask
LVL57:
	.loc 1 77 0
	call	_gtk_widget_pop_colormap
LVL58:
	.loc 1 79 0
	mov	DWORD PTR [esp+4], 80
	mov	eax, DWORD PTR [esp+52]
	mov	DWORD PTR [esp], eax
	call	_g_type_check_instance_cast
LVL59:
	mov	DWORD PTR [esp], eax
	call	_g_object_unref
LVL60:
	.loc 1 80 0
	mov	DWORD PTR [esp+4], 80
	mov	eax, DWORD PTR [esp+56]
	mov	DWORD PTR [esp], eax
	call	_g_type_check_instance_cast
LVL61:
	mov	DWORD PTR [esp], eax
	call	_g_object_unref
LVL62:
	.loc 1 82 0
	mov	DWORD PTR [esp], ebp
	call	_gtk_widget_show_all
LVL63:
L61:
LBE14:
LBE13:
	.loc 1 127 0
	mov	DWORD PTR [ebx], esi
	.loc 1 129 0
	mov	DWORD PTR [esp], edi
	call	_g_free
LVL64:
	add	ebx, 16
LBE12:
	.loc 1 121 0
	mov	esi, DWORD PTR [ebx+4]
	test	esi, esi
	jne	L58
LVL65:
L55:
LBE11:
LBE10:
	.loc 1 158 0
	mov	eax, DWORD PTR [esp+36]
	sal	eax, 4
	mov	ebx, DWORD PTR _hint_windows[eax]
LVL66:
	.loc 1 160 0
	test	ebx, ebx
	je	L51
LVL67:
LBB20:
	.loc 1 160 0 is_stmt 0 discriminator 1
	call	_gtk_widget_get_type
LVL68:
	mov	edx, DWORD PTR [ebx]
	test	edx, edx
	je	L59
	cmp	DWORD PTR [edx], eax
	je	L60
L59:
	.loc 1 160 0 discriminator 2
	mov	DWORD PTR [esp+4], eax
	mov	DWORD PTR [esp], ebx
	call	_g_type_check_instance_is_a
LVL69:
LBE20:
	test	eax, eax
	jne	L60
LVL70:
L51:
	.loc 1 166 0 is_stmt 1
	mov	eax, DWORD PTR [esp+60]
	xor	eax, DWORD PTR ___stack_chk_guard
	jne	L76
	add	esp, 76
LCFI29:
	.cfi_remember_state
	.cfi_def_cfa_offset 20
	pop	ebx
LCFI30:
	.cfi_restore 3
	.cfi_def_cfa_offset 16
LVL71:
	pop	esi
LCFI31:
	.cfi_restore 6
	.cfi_def_cfa_offset 12
	pop	edi
LCFI32:
	.cfi_restore 7
	.cfi_def_cfa_offset 8
	pop	ebp
LCFI33:
	.cfi_restore 5
	.cfi_def_cfa_offset 4
	ret
LVL72:
	.p2align 2,,3
L60:
LCFI34:
	.cfi_restore_state
	.loc 1 163 0
	mov	eax, DWORD PTR [esp+36]
	sal	eax, 4
	.loc 1 162 0
	mov	edi, DWORD PTR [esp+44]
	add	edi, DWORD PTR _hint_windows[eax+12]
	mov	esi, DWORD PTR [esp+40]
	add	esi, DWORD PTR _hint_windows[eax+8]
	call	_gtk_window_get_type
LVL73:
	mov	DWORD PTR [esp+4], eax
	mov	DWORD PTR [esp], ebx
	call	_g_type_check_instance_cast
LVL74:
	mov	DWORD PTR [esp+8], edi
	mov	DWORD PTR [esp+4], esi
	mov	DWORD PTR [esp], eax
	call	_gtk_window_move
LVL75:
	.loc 1 164 0
	mov	DWORD PTR [esp], ebx
	call	_gtk_widget_show
LVL76:
	jmp	L51
LVL77:
	.p2align 2,,3
L75:
LBB21:
LBB19:
LBB18:
LBB17:
LBB16:
	.loc 1 67 0
	mov	DWORD PTR [esp+8], OFFSET FLAT:LC2
	mov	DWORD PTR [esp+4], OFFSET FLAT:___PRETTY_FUNCTION__.69788
	mov	DWORD PTR [esp], 0
	call	_g_return_if_fail_warning
LVL78:
	xor	esi, esi
LVL79:
	jmp	L61
LVL80:
L76:
LBE16:
LBE17:
LBE18:
LBE19:
LBE21:
	.loc 1 166 0
	call	___stack_chk_fail
LVL81:
	.cfi_endproc
LFE39:
	.section .rdata,"dr"
	.align 4
LC3:
	.ascii "Invalid parameter to dnd_hints_show_relative\0"
	.text
	.p2align 2,,3
	.globl	_dnd_hints_show_relative
	.def	_dnd_hints_show_relative;	.scl	2;	.type	32;	.endef
_dnd_hints_show_relative:
LFB40:
	.loc 1 171 0
	.cfi_startproc
LVL82:
	push	ebp
LCFI35:
	.cfi_def_cfa_offset 8
	.cfi_offset 5, -8
	push	edi
LCFI36:
	.cfi_def_cfa_offset 12
	.cfi_offset 7, -12
	push	esi
LCFI37:
	.cfi_def_cfa_offset 16
	.cfi_offset 6, -16
	push	ebx
LCFI38:
	.cfi_def_cfa_offset 20
	.cfi_offset 3, -20
	sub	esp, 76
LCFI39:
	.cfi_def_cfa_offset 96
	mov	ebp, DWORD PTR [esp+96]
	mov	ebx, DWORD PTR [esp+100]
	mov	edi, DWORD PTR [esp+104]
	mov	esi, DWORD PTR [esp+108]
	.loc 1 171 0
	mov	eax, DWORD PTR ___stack_chk_guard
	mov	DWORD PTR [esp+60], eax
	xor	eax, eax
LVL83:
	.loc 1 175 0
	lea	eax, [esp+56]
	mov	DWORD PTR [esp+4], eax
	lea	eax, [esp+48]
	mov	DWORD PTR [esp], eax
	lea	ecx, [esp+52]
	lea	edx, [esp+44]
	mov	eax, ebx
	call	_get_widget_coords
LVL84:
	.loc 1 176 0
	mov	edx, DWORD PTR [ebx+36]
LVL85:
	mov	eax, DWORD PTR [esp+44]
	add	eax, edx
	mov	DWORD PTR [esp+44], eax
LVL86:
	mov	ecx, DWORD PTR [esp+48]
	add	ecx, edx
	mov	DWORD PTR [esp+48], ecx
	.loc 1 177 0
	mov	edx, DWORD PTR [ebx+40]
LVL87:
	add	DWORD PTR [esp+52], edx
LVL88:
	add	DWORD PTR [esp+56], edx
	.loc 1 179 0
	cmp	edi, 1
	je	L80
	jb	L79
	cmp	edi, 4
	je	L94
	.loc 1 186 0
	mov	DWORD PTR [esp+8], OFFSET FLAT:LC3
	mov	DWORD PTR [esp+4], 16
	mov	DWORD PTR [esp], 0
	call	_g_log
LVL89:
	.loc 1 173 0
	xor	eax, eax
LVL90:
L80:
	.loc 1 190 0
	cmp	esi, 3
	je	L84
L97:
	cmp	esi, 4
	je	L85
	cmp	esi, 2
	je	L95
	.loc 1 197 0
	mov	DWORD PTR [esp+8], OFFSET FLAT:LC3
	mov	DWORD PTR [esp+4], 16
	mov	DWORD PTR [esp], 0
	mov	DWORD PTR [esp+28], eax
	call	_g_log
LVL91:
	.loc 1 173 0
	xor	edx, edx
	mov	eax, DWORD PTR [esp+28]
LVL92:
L86:
	.loc 1 201 0
	mov	DWORD PTR [esp+8], edx
	mov	DWORD PTR [esp+4], eax
	mov	DWORD PTR [esp], ebp
	call	_dnd_hints_show
LVL93:
	.loc 1 202 0
	mov	eax, DWORD PTR [esp+60]
	xor	eax, DWORD PTR ___stack_chk_guard
	jne	L96
	add	esp, 76
LCFI40:
	.cfi_remember_state
	.cfi_def_cfa_offset 20
	pop	ebx
LCFI41:
	.cfi_restore 3
	.cfi_def_cfa_offset 16
	pop	esi
LCFI42:
	.cfi_restore 6
	.cfi_def_cfa_offset 12
	pop	edi
LCFI43:
	.cfi_restore 7
	.cfi_def_cfa_offset 8
	pop	ebp
LCFI44:
	.cfi_restore 5
	.cfi_def_cfa_offset 4
	ret
LVL94:
	.p2align 2,,3
L79:
LCFI45:
	.cfi_restore_state
	.loc 1 181 0
	mov	eax, ecx
LVL95:
	.loc 1 190 0
	cmp	esi, 3
	jne	L97
L84:
	.loc 1 193 0
	mov	edx, DWORD PTR [esp+56]
LVL96:
	jmp	L86
LVL97:
	.p2align 2,,3
L95:
	.loc 1 192 0
	mov	edx, DWORD PTR [esp+52]
LVL98:
	jmp	L86
LVL99:
	.p2align 2,,3
L94:
	.loc 1 183 0
	add	eax, ecx
	mov	edx, eax
	shr	edx, 31
	add	eax, edx
	sar	eax
LVL100:
	jmp	L80
	.p2align 2,,3
L85:
	.loc 1 194 0
	mov	edx, DWORD PTR [esp+56]
	add	edx, DWORD PTR [esp+52]
	mov	ecx, edx
	shr	ecx, 31
	add	edx, ecx
	sar	edx
LVL101:
	jmp	L86
LVL102:
L96:
	.loc 1 202 0
	call	___stack_chk_fail
LVL103:
	.cfi_endproc
LFE40:
	.section .rdata,"dr"
LC4:
	.ascii "arrow-up.xpm\0"
LC5:
	.ascii "arrow-down.xpm\0"
LC6:
	.ascii "arrow-left.xpm\0"
LC7:
	.ascii "arrow-right.xpm\0"
	.data
	.align 32
_hint_windows:
	.long	0
	.long	LC4
	.long	-6
	.long	0
	.long	0
	.long	LC5
	.long	-6
	.long	-16
	.long	0
	.long	LC6
	.long	0
	.long	-6
	.long	0
	.long	LC7
	.long	-16
	.long	-6
	.long	0
	.long	0
	.long	0
	.long	0
.lcomm _done.69803,4,4
	.section .rdata,"dr"
___PRETTY_FUNCTION__.69788:
	.ascii "dnd_hints_init_window\0"
	.text
Letext0:
	.file 2 "../../win32-dev/gtk_2_0-2.14/lib/glib-2.0/include/glibconfig.h"
	.file 3 "../../win32-dev/gtk_2_0-2.14/include/glib-2.0/glib/gtypes.h"
	.file 4 "../../win32-dev/gtk_2_0-2.14/include/glib-2.0/glib/garray.h"
	.file 5 "../../win32-dev/gtk_2_0-2.14/include/glib-2.0/glib/gquark.h"
	.file 6 "../../win32-dev/gtk_2_0-2.14/include/glib-2.0/glib/gerror.h"
	.file 7 "../../win32-dev/gtk_2_0-2.14/include/glib-2.0/glib/gdataset.h"
	.file 8 "../../win32-dev/gtk_2_0-2.14/include/glib-2.0/glib/gslist.h"
	.file 9 "../../win32-dev/gtk_2_0-2.14/include/glib-2.0/glib/gmessages.h"
	.file 10 "../../win32-dev/gtk_2_0-2.14/include/glib-2.0/glib/gscanner.h"
	.file 11 "../../win32-dev/gtk_2_0-2.14/include/glib-2.0/gobject/gtype.h"
	.file 12 "../../win32-dev/gtk_2_0-2.14/include/glib-2.0/gobject/gparam.h"
	.file 13 "../../win32-dev/gtk_2_0-2.14/include/glib-2.0/gobject/gsignal.h"
	.file 14 "../../win32-dev/gtk_2_0-2.14/include/glib-2.0/gobject/gobject.h"
	.file 15 "../../win32-dev/gtk_2_0-2.14/include/cairo/cairo.h"
	.file 16 "../../win32-dev/gtk_2_0-2.14/include/pango-1.0/pango/pango-font.h"
	.file 17 "c:/workspace/pidgin-devel/win32-dev/mingw-4.7.2/bin/../lib/gcc/mingw32/4.7.2/../../../../include/stdio.h"
	.file 18 "../../win32-dev/gtk_2_0-2.14/include/gtk-2.0/gdk/gdktypes.h"
	.file 19 "../../win32-dev/gtk_2_0-2.14/include/gtk-2.0/gdk/gdkcolor.h"
	.file 20 "../../win32-dev/gtk_2_0-2.14/include/gtk-2.0/gdk/gdkfont.h"
	.file 21 "../../win32-dev/gtk_2_0-2.14/include/gtk-2.0/gdk/gdkgc.h"
	.file 22 "../../win32-dev/gtk_2_0-2.14/include/gtk-2.0/gdk/gdkvisual.h"
	.file 23 "../../win32-dev/gtk_2_0-2.14/include/gtk-2.0/gdk/gdkdrawable.h"
	.file 24 "../../win32-dev/gtk_2_0-2.14/include/gtk-2.0/gdk/gdkscreen.h"
	.file 25 "../../win32-dev/gtk_2_0-2.14/include/gtk-2.0/gdk/gdkinput.h"
	.file 26 "../../win32-dev/gtk_2_0-2.14/include/gtk-2.0/gdk-pixbuf/gdk-pixbuf-core.h"
	.file 27 "../../win32-dev/gtk_2_0-2.14/include/gtk-2.0/gtk/gtkenums.h"
	.file 28 "../../win32-dev/gtk_2_0-2.14/include/gtk-2.0/gtk/gtktypeutils.h"
	.file 29 "../../win32-dev/gtk_2_0-2.14/include/gtk-2.0/gtk/gtkobject.h"
	.file 30 "../../win32-dev/gtk_2_0-2.14/include/gtk-2.0/gtk/gtkstyle.h"
	.file 31 "../../win32-dev/gtk_2_0-2.14/include/gtk-2.0/gtk/gtkrc.h"
	.file 32 "../../win32-dev/gtk_2_0-2.14/include/gtk-2.0/gtk/gtkwidget.h"
	.file 33 "../../win32-dev/gtk_2_0-2.14/include/gtk-2.0/gtk/gtkwindow.h"
	.file 34 "../../win32-dev/gtk_2_0-2.14/include/gtk-2.0/gtk/gtkcontainer.h"
	.file 35 "../../win32-dev/gtk_2_0-2.14/include/gtk-2.0/gtk/gtkbin.h"
	.file 36 "gtkdnd-hints.h"
	.file 37 "../../win32-dev/gtk_2_0-2.14/include/gtk-2.0/gdk/gdkwindow.h"
	.file 38 "../../win32-dev/gtk_2_0-2.14/include/gtk-2.0/gdk/gdkpixbuf.h"
	.file 39 "../../win32-dev/gtk_2_0-2.14/include/gtk-2.0/gdk/gdkrgb.h"
	.file 40 "../../win32-dev/gtk_2_0-2.14/include/gtk-2.0/gtk/gtkimage.h"
	.file 41 "../libpurple/win32/win32dep.h"
	.file 42 "../../win32-dev/gtk_2_0-2.14/include/glib-2.0/glib/gfileutils.h"
	.file 43 "../../win32-dev/gtk_2_0-2.14/include/glib-2.0/glib/gmem.h"
	.file 44 "c:/workspace/pidgin-devel/win32-dev/mingw-4.7.2/bin/../lib/gcc/mingw32/4.7.2/../../../../include/wtypes.h"