	.file	"GtkDebug.c"
	.intel_syntax noprefix
	.text
Ltext0:
	.section .rdata,"dr"
LC0:
	.ascii "\0"
LC1:
	.ascii "Usage: %s::%s(%s)\0"
LC2:
	.ascii "Usage: CODE(0x%lx)(%s)\0"
LC3:
	.ascii "Usage: %s(%s)\0"
	.section	.text.unlikely,"x"
	.def	_S_croak_xs_usage.isra.0.constprop.1;	.scl	3;	.type	32;	.endef
_S_croak_xs_usage.isra.0.constprop.1:
LFB99:
	.file 1 "GtkDebug.c"
	.loc 1 115 0
	.cfi_startproc
LVL0:
	push	esi
LCFI0:
	.cfi_def_cfa_offset 8
	.cfi_offset 6, -8
	push	ebx
LCFI1:
	.cfi_def_cfa_offset 12
	.cfi_offset 3, -12
	sub	esp, 52
LCFI2:
	.cfi_def_cfa_offset 64
	mov	ebx, eax
	.loc 1 115 0
	mov	eax, DWORD PTR ___stack_chk_guard
	mov	DWORD PTR [esp+44], eax
	xor	eax, eax
LVL1:
	.loc 1 117 0
	mov	eax, DWORD PTR [ebx]
	mov	edx, DWORD PTR [eax+40]
LVL2:
	.loc 1 121 0
	test	edx, edx
	je	L2
LBB4:
	.loc 1 122 0
	mov	eax, DWORD PTR [edx]
	mov	ebx, DWORD PTR [eax+16]
LVL3:
	add	ebx, 8
LVL4:
	.loc 1 123 0
	mov	eax, DWORD PTR [eax]
LVL5:
	.loc 1 124 0
	test	eax, eax
	je	L3
	test	BYTE PTR [eax+11], 2
	je	L3
	mov	edx, DWORD PTR [eax]
LVL6:
	mov	edx, DWORD PTR [edx+12]
	mov	eax, DWORD PTR [eax+12]
LVL7:
	mov	esi, DWORD PTR [eax+4+edx*4]
	test	esi, esi
	je	L3
LVL8:
	.loc 1 127 0
	call	_Perl_get_context
LVL9:
	mov	DWORD PTR [esp+16], OFFSET FLAT:LC0
	mov	DWORD PTR [esp+12], ebx
	.loc 1 124 0
	add	esi, 8
LVL10:
	mov	DWORD PTR [esp+8], esi
	.loc 1 127 0
	mov	DWORD PTR [esp+4], OFFSET FLAT:LC1
	mov	DWORD PTR [esp], eax
	call	_Perl_croak
LVL11:
L2:
LBE4:
	.loc 1 132 0
	call	_Perl_get_context
LVL12:
	mov	DWORD PTR [esp+12], OFFSET FLAT:LC0
	mov	DWORD PTR [esp+8], ebx
	mov	DWORD PTR [esp+4], OFFSET FLAT:LC2
	mov	DWORD PTR [esp], eax
	call	_Perl_croak
LVL13:
L3:
LBB5:
	.loc 1 129 0
	call	_Perl_get_context
LVL14:
	mov	DWORD PTR [esp+12], OFFSET FLAT:LC0
	mov	DWORD PTR [esp+8], ebx
	mov	DWORD PTR [esp+4], OFFSET FLAT:LC3
	mov	DWORD PTR [esp], eax
	call	_Perl_croak
LVL15:
LBE5:
	.cfi_endproc
LFE99:
	.section .rdata,"dr"
LC4:
	.ascii "Purple::Handle\0"
	.text
	.p2align 2,,3
	.def	_XS_Pidgin__Debug_get_handle;	.scl	3;	.type	32;	.endef
_XS_Pidgin__Debug_get_handle:
LFB94:
	.loc 1 158 0
	.cfi_startproc
LVL16:
	push	ebp
LCFI3:
	.cfi_def_cfa_offset 8
	.cfi_offset 5, -8
	push	edi
LCFI4:
	.cfi_def_cfa_offset 12
	.cfi_offset 7, -12
	push	esi
LCFI5:
	.cfi_def_cfa_offset 16
	.cfi_offset 6, -16
	push	ebx
LCFI6:
	.cfi_def_cfa_offset 20
	.cfi_offset 3, -20
	sub	esp, 44
LCFI7:
	.cfi_def_cfa_offset 64
	mov	ebp, DWORD PTR [esp+68]
	.loc 1 158 0
	mov	eax, DWORD PTR ___stack_chk_guard
	mov	DWORD PTR [esp+28], eax
	xor	eax, eax
	.loc 1 159 0
	call	_Perl_get_context
LVL17:
	mov	DWORD PTR [esp], eax
	call	_Perl_Istack_sp_ptr
LVL18:
	mov	edi, DWORD PTR [eax]
LVL19:
	call	_Perl_get_context
LVL20:
	mov	DWORD PTR [esp], eax
	call	_Perl_Imarkstack_ptr_ptr
LVL21:
	mov	edx, eax
	mov	eax, DWORD PTR [eax]
	mov	esi, DWORD PTR [eax]
LVL22:
	sub	eax, 4
	mov	DWORD PTR [edx], eax
	call	_Perl_get_context
LVL23:
	mov	DWORD PTR [esp], eax
	call	_Perl_Istack_base_ptr
LVL24:
	lea	ebx, [esi+1]
LVL25:
	mov	eax, DWORD PTR [eax]
LVL26:
	lea	eax, [eax+esi*4]
LVL27:
	sub	edi, eax
LVL28:
	.loc 1 160 0
	shr	edi, 2
	jne	L20
LBB6:
	.loc 1 165 0
	call	_pidgin_debug_get_handle
LVL29:
	mov	edi, eax
LVL30:
	.loc 1 166 0
	call	_Perl_get_context
LVL31:
	mov	DWORD PTR [esp], eax
	call	_Perl_Istack_base_ptr
LVL32:
	sal	ebx, 2
LVL33:
	mov	esi, DWORD PTR [eax]
LVL34:
	add	esi, ebx
	mov	DWORD PTR [esp+4], OFFSET FLAT:LC4
	mov	DWORD PTR [esp], edi
	call	_purple_perl_bless_object
LVL35:
	mov	DWORD PTR [esi], eax
	.loc 1 167 0
	call	_Perl_get_context
LVL36:
	mov	DWORD PTR [esp], eax
	call	_Perl_Istack_base_ptr
LVL37:
	mov	eax, DWORD PTR [eax]
	mov	esi, DWORD PTR [eax+ebx]
	call	_Perl_get_context
LVL38:
	mov	DWORD PTR [esp+4], esi
	mov	DWORD PTR [esp], eax
	call	_Perl_sv_2mortal
LVL39:
LBE6:
LBB7:
	.loc 1 169 0
	call	_Perl_get_context
LVL40:
	mov	DWORD PTR [esp], eax
	call	_Perl_Istack_sp_ptr
LVL41:
	mov	esi, eax
	call	_Perl_get_context
LVL42:
	mov	DWORD PTR [esp], eax
	call	_Perl_Istack_base_ptr
LVL43:
	add	ebx, DWORD PTR [eax]
	mov	DWORD PTR [esi], ebx
LBE7:
	.loc 1 170 0
	mov	eax, DWORD PTR [esp+28]
	xor	eax, DWORD PTR ___stack_chk_guard
	jne	L21
	add	esp, 44
LCFI8:
	.cfi_remember_state
	.cfi_def_cfa_offset 20
	pop	ebx
LCFI9:
	.cfi_restore 3
	.cfi_def_cfa_offset 16
	pop	esi
LCFI10:
	.cfi_restore 6
	.cfi_def_cfa_offset 12
	pop	edi
LCFI11:
	.cfi_restore 7
	.cfi_def_cfa_offset 8
LVL44:
	pop	ebp
LCFI12:
	.cfi_restore 5
	.cfi_def_cfa_offset 4
	ret
LVL45:
L20:
LCFI13:
	.cfi_restore_state
	.loc 1 161 0
	call	_Perl_get_context
LVL46:
	mov	eax, ebp
	call	_S_croak_xs_usage.isra.0.constprop.1
LVL47:
L21:
	.loc 1 170 0
	call	___stack_chk_fail
LVL48:
	.cfi_endproc
LFE94:
	.p2align 2,,3
	.def	_XS_Pidgin__Debug__Window_show;	.scl	3;	.type	32;	.endef
_XS_Pidgin__Debug__Window_show:
LFB95:
	.loc 1 175 0
	.cfi_startproc
LVL49:
	push	edi
LCFI14:
	.cfi_def_cfa_offset 8
	.cfi_offset 7, -8
	push	esi
LCFI15:
	.cfi_def_cfa_offset 12
	.cfi_offset 6, -12
	push	ebx
LCFI16:
	.cfi_def_cfa_offset 16
	.cfi_offset 3, -16
	sub	esp, 32
LCFI17:
	.cfi_def_cfa_offset 48
	mov	edi, DWORD PTR [esp+52]
	.loc 1 175 0
	mov	eax, DWORD PTR ___stack_chk_guard
	mov	DWORD PTR [esp+28], eax
	xor	eax, eax
	.loc 1 176 0
	call	_Perl_get_context
LVL50:
	mov	DWORD PTR [esp], eax
	call	_Perl_Istack_sp_ptr
LVL51:
	mov	ebx, DWORD PTR [eax]
LVL52:
	call	_Perl_get_context
LVL53:
	mov	DWORD PTR [esp], eax
	call	_Perl_Imarkstack_ptr_ptr
LVL54:
	mov	edx, eax
	mov	eax, DWORD PTR [eax]
	mov	esi, DWORD PTR [eax]
LVL55:
	sub	eax, 4
	mov	DWORD PTR [edx], eax
	call	_Perl_get_context
LVL56:
	mov	DWORD PTR [esp], eax
	call	_Perl_Istack_base_ptr
LVL57:
	sal	esi, 2
LVL58:
	mov	eax, DWORD PTR [eax]
	add	eax, esi
LVL59:
	sub	ebx, eax
LVL60:
	.loc 1 177 0
	shr	ebx, 2
	jne	L26
	.loc 1 181 0
	call	_pidgin_debug_window_show
LVL61:
LBB8:
	.loc 1 183 0
	call	_Perl_get_context
LVL62:
	mov	DWORD PTR [esp], eax
	call	_Perl_Istack_sp_ptr
LVL63:
	mov	ebx, eax
	call	_Perl_get_context
LVL64:
	mov	DWORD PTR [esp], eax
	call	_Perl_Istack_base_ptr
LVL65:
	add	esi, DWORD PTR [eax]
	mov	DWORD PTR [ebx], esi
LBE8:
	.loc 1 184 0
	mov	eax, DWORD PTR [esp+28]
	xor	eax, DWORD PTR ___stack_chk_guard
	jne	L27
	add	esp, 32
LCFI18:
	.cfi_remember_state
	.cfi_def_cfa_offset 16
	pop	ebx
LCFI19:
	.cfi_restore 3
	.cfi_def_cfa_offset 12
	pop	esi
LCFI20:
	.cfi_restore 6
	.cfi_def_cfa_offset 8
	pop	edi
LCFI21:
	.cfi_restore 7
	.cfi_def_cfa_offset 4
	ret
LVL66:
L26:
LCFI22:
	.cfi_restore_state
	.loc 1 178 0
	call	_Perl_get_context
LVL67:
	mov	eax, edi
	call	_S_croak_xs_usage.isra.0.constprop.1
LVL68:
L27:
	.loc 1 184 0
	call	___stack_chk_fail
LVL69:
	.cfi_endproc
LFE95:
	.p2align 2,,3
	.def	_XS_Pidgin__Debug__Window_hide;	.scl	3;	.type	32;	.endef
_XS_Pidgin__Debug__Window_hide:
LFB96:
	.loc 1 189 0
	.cfi_startproc
LVL70:
	push	edi
LCFI23:
	.cfi_def_cfa_offset 8
	.cfi_offset 7, -8
	push	esi
LCFI24:
	.cfi_def_cfa_offset 12
	.cfi_offset 6, -12
	push	ebx
LCFI25:
	.cfi_def_cfa_offset 16
	.cfi_offset 3, -16
	sub	esp, 32
LCFI26:
	.cfi_def_cfa_offset 48
	mov	edi, DWORD PTR [esp+52]
	.loc 1 189 0
	mov	eax, DWORD PTR ___stack_chk_guard
	mov	DWORD PTR [esp+28], eax
	xor	eax, eax
	.loc 1 190 0
	call	_Perl_get_context
LVL71:
	mov	DWORD PTR [esp], eax
	call	_Perl_Istack_sp_ptr
LVL72:
	mov	ebx, DWORD PTR [eax]
LVL73:
	call	_Perl_get_context
LVL74:
	mov	DWORD PTR [esp], eax
	call	_Perl_Imarkstack_ptr_ptr
LVL75:
	mov	edx, eax
	mov	eax, DWORD PTR [eax]
	mov	esi, DWORD PTR [eax]
LVL76:
	sub	eax, 4
	mov	DWORD PTR [edx], eax
	call	_Perl_get_context
LVL77:
	mov	DWORD PTR [esp], eax
	call	_Perl_Istack_base_ptr
LVL78:
	sal	esi, 2
LVL79:
	mov	eax, DWORD PTR [eax]
	add	eax, esi
LVL80:
	sub	ebx, eax
LVL81:
	.loc 1 191 0
	shr	ebx, 2
	jne	L32
	.loc 1 195 0
	call	_pidgin_debug_window_hide
LVL82:
LBB9:
	.loc 1 197 0
	call	_Perl_get_context
LVL83:
	mov	DWORD PTR [esp], eax
	call	_Perl_Istack_sp_ptr
LVL84:
	mov	ebx, eax
	call	_Perl_get_context
LVL85:
	mov	DWORD PTR [esp], eax
	call	_Perl_Istack_base_ptr
LVL86:
	add	esi, DWORD PTR [eax]
	mov	DWORD PTR [ebx], esi
LBE9:
	.loc 1 198 0
	mov	eax, DWORD PTR [esp+28]
	xor	eax, DWORD PTR ___stack_chk_guard
	jne	L33
	add	esp, 32
LCFI27:
	.cfi_remember_state
	.cfi_def_cfa_offset 16
	pop	ebx
LCFI28:
	.cfi_restore 3
	.cfi_def_cfa_offset 12
	pop	esi
LCFI29:
	.cfi_restore 6
	.cfi_def_cfa_offset 8
	pop	edi
LCFI30:
	.cfi_restore 7
	.cfi_def_cfa_offset 4
	ret
LVL87:
L32:
LCFI31:
	.cfi_restore_state
	.loc 1 192 0
	call	_Perl_get_context
LVL88:
	mov	eax, edi
	call	_S_croak_xs_usage.isra.0.constprop.1
LVL89:
L33:
	.loc 1 198 0
	call	___stack_chk_fail
LVL90:
	.cfi_endproc
LFE96:
	.section .rdata,"dr"
LC5:
	.ascii "GtkDebug.c\0"
LC6:
	.ascii "Pidgin::Debug::get_handle\0"
LC7:
	.ascii "Pidgin::Debug::Window::show\0"
LC8:
	.ascii "Pidgin::Debug::Window::hide\0"
	.text
	.p2align 2,,3
	.globl	_boot_Pidgin__Debug
	.def	_boot_Pidgin__Debug;	.scl	2;	.type	32;	.endef
_boot_Pidgin__Debug:
LFB97:
	.loc 1 205 0
	.cfi_startproc
LVL91:
	push	edi
LCFI32:
	.cfi_def_cfa_offset 8
	.cfi_offset 7, -8
	push	esi
LCFI33:
	.cfi_def_cfa_offset 12
	.cfi_offset 6, -12
	push	ebx
LCFI34:
	.cfi_def_cfa_offset 16
	.cfi_offset 3, -16
	sub	esp, 48
LCFI35:
	.cfi_def_cfa_offset 64
	.loc 1 205 0
	mov	eax, DWORD PTR ___stack_chk_guard
	mov	DWORD PTR [esp+44], eax
	xor	eax, eax
	.loc 1 206 0
	call	_Perl_get_context
LVL92:
	mov	DWORD PTR [esp], eax
	call	_Perl_Istack_sp_ptr
LVL93:
	call	_Perl_get_context
LVL94:
	mov	DWORD PTR [esp], eax
	call	_Perl_Imarkstack_ptr_ptr
LVL95:
	mov	edx, DWORD PTR [eax]
	mov	ebx, DWORD PTR [edx]
LVL96:
	sub	edx, 4
	mov	DWORD PTR [eax], edx
	call	_Perl_get_context
LVL97:
	mov	DWORD PTR [esp], eax
	call	_Perl_Istack_base_ptr
LVL98:
	inc	ebx
LVL99:
	.loc 1 220 0
	call	_Perl_get_context
LVL100:
	mov	DWORD PTR [esp+20], 0
	mov	DWORD PTR [esp+16], OFFSET FLAT:LC0
	mov	DWORD PTR [esp+12], OFFSET FLAT:LC5
	mov	DWORD PTR [esp+8], OFFSET FLAT:_XS_Pidgin__Debug_get_handle
	mov	DWORD PTR [esp+4], OFFSET FLAT:LC6
	mov	DWORD PTR [esp], eax
	call	_Perl_newXS_flags
LVL101:
	.loc 1 221 0
	call	_Perl_get_context
LVL102:
	mov	DWORD PTR [esp+20], 0
	mov	DWORD PTR [esp+16], OFFSET FLAT:LC0
	mov	DWORD PTR [esp+12], OFFSET FLAT:LC5
	mov	DWORD PTR [esp+8], OFFSET FLAT:_XS_Pidgin__Debug__Window_show
	mov	DWORD PTR [esp+4], OFFSET FLAT:LC7
	mov	DWORD PTR [esp], eax
	call	_Perl_newXS_flags
LVL103:
	.loc 1 222 0
	call	_Perl_get_context
LVL104:
	mov	DWORD PTR [esp+20], 0
	mov	DWORD PTR [esp+16], OFFSET FLAT:LC0
	mov	DWORD PTR [esp+12], OFFSET FLAT:LC5
	mov	DWORD PTR [esp+8], OFFSET FLAT:_XS_Pidgin__Debug__Window_hide
	mov	DWORD PTR [esp+4], OFFSET FLAT:LC8
	mov	DWORD PTR [esp], eax
	call	_Perl_newXS_flags
LVL105:
	.loc 1 224 0
	call	_Perl_get_context
LVL106:
	mov	DWORD PTR [esp], eax
	call	_Perl_Iunitcheckav_ptr
LVL107:
	mov	eax, DWORD PTR [eax]
	test	eax, eax
	je	L35
	.loc 1 225 0
	call	_Perl_get_context
LVL108:
	mov	DWORD PTR [esp], eax
	call	_Perl_Iunitcheckav_ptr
LVL109:
	mov	edi, DWORD PTR [eax]
	call	_Perl_get_context
LVL110:
	mov	DWORD PTR [esp], eax
	call	_Perl_Iscopestack_ix_ptr
LVL111:
	mov	esi, DWORD PTR [eax]
	call	_Perl_get_context
LVL112:
	mov	DWORD PTR [esp+8], edi
	mov	DWORD PTR [esp+4], esi
	mov	DWORD PTR [esp], eax
	call	_Perl_call_list
LVL113:
L35:
LBB10:
	.loc 1 227 0
	call	_Perl_get_context
LVL114:
	mov	DWORD PTR [esp], eax
	call	_Perl_Istack_base_ptr
LVL115:
	sal	ebx, 2
LVL116:
	mov	esi, DWORD PTR [eax]
	add	esi, ebx
	call	_Perl_get_context
LVL117:
	mov	DWORD PTR [esp], eax
	call	_Perl_Isv_yes_ptr
LVL118:
	mov	DWORD PTR [esi], eax
LVL119:
LBB11:
	call	_Perl_get_context
LVL120:
	mov	DWORD PTR [esp], eax
	call	_Perl_Istack_sp_ptr
LVL121:
	mov	esi, eax
	call	_Perl_get_context
LVL122:
	mov	DWORD PTR [esp], eax
	call	_Perl_Istack_base_ptr
LVL123:
	add	ebx, DWORD PTR [eax]
	mov	DWORD PTR [esi], ebx
LBE11:
LBE10:
	.loc 1 228 0
	mov	eax, DWORD PTR [esp+44]
	xor	eax, DWORD PTR ___stack_chk_guard
	jne	L38
	add	esp, 48
LCFI36:
	.cfi_remember_state
	.cfi_def_cfa_offset 16
	pop	ebx
LCFI37:
	.cfi_restore 3
	.cfi_def_cfa_offset 12
	pop	esi
LCFI38:
	.cfi_restore 6
	.cfi_def_cfa_offset 8
	pop	edi
LCFI39:
	.cfi_restore 7
	.cfi_def_cfa_offset 4
	ret
L38:
LCFI40:
	.cfi_restore_state
	call	___stack_chk_fail
LVL124:
	.cfi_endproc
LFE97:
Letext0:
	.file 2 "c:/workspace/pidgin-devel/win32-dev/mingw-4.7.2/bin/../lib/gcc/mingw32/4.7.2/../../../../include/windef.h"
	.file 3 "c:/workspace/pidgin-devel/win32-dev/mingw-4.7.2/bin/../lib/gcc/mingw32/4.7.2/include/stddef.h"
	.file 4 "c:/workspace/pidgin-devel/win32-dev/mingw-4.7.2/bin/../lib/gcc/mingw32/4.7.2/../../../../include/winnt.h"
	.file 5 "c:/workspace/pidgin-devel/win32-dev/mingw-4.7.2/bin/../lib/gcc/mingw32/4.7.2/../../../../include/winsock2.h"
	.file 6 "c:/workspace/pidgin-devel/win32-dev/mingw-4.7.2/bin/../lib/gcc/mingw32/4.7.2/../../../../include/time.h"
	.file 7 "c:/workspace/pidgin-devel/win32-dev/mingw-4.7.2/bin/../lib/gcc/mingw32/4.7.2/../../../../include/stdio.h"
	.file 8 "c:/workspace/pidgin-devel/win32-dev/mingw-4.7.2/bin/../lib/gcc/mingw32/4.7.2/../../../../include/sys/types.h"
	.file 9 "c:/workspace/pidgin-devel/win32-dev/mingw-4.7.2/bin/../lib/gcc/mingw32/4.7.2/../../../../include/setjmp.h"
	.file 10 "c:/workspace/pidgin-devel/win32-dev/mingw-4.7.2/bin/../lib/gcc/mingw32/4.7.2/../../../../include/sys/stat.h"
	.file 11 "../../../../../win32-dev/perl-5.10.0/CORE/dirent.h"
	.file 12 "../../../../../win32-dev/perl-5.10.0/CORE/perl.h"
	.file 13 "../../../../../win32-dev/perl-5.10.0/CORE/op.h"
	.file 14 "../../../../../win32-dev/perl-5.10.0/CORE/cop.h"
	.file 15 "../../../../../win32-dev/perl-5.10.0/CORE/intrpvar.h"
	.file 16 "../../../../../win32-dev/perl-5.10.0/CORE/sv.h"
	.file 17 "../../../../../win32-dev/perl-5.10.0/CORE/regexp.h"
	.file 18 "../../../../../win32-dev/perl-5.10.0/CORE/gv.h"
	.file 19 "../../../../../win32-dev/perl-5.10.0/CORE/mg.h"
	.file 20 "../../../../../win32-dev/perl-5.10.0/CORE/av.h"
	.file 21 "../../../../../win32-dev/perl-5.10.0/CORE/hv.h"
	.file 22 "../../../../../win32-dev/perl-5.10.0/CORE/cv.h"
	.file 23 "../../../../../win32-dev/perl-5.10.0/CORE/handy.h"
	.file 24 "../../../../../win32-dev/perl-5.10.0/CORE/win32.h"
	.file 25 "../../../../../win32-dev/perl-5.10.0/CORE/perlio.h"
	.file 26 "../../../../../win32-dev/perl-5.10.0/CORE/perly.h"
	.file 27 "../../../../../win32-dev/perl-5.10.0/CORE/pad.h"
	.file 28 "../../../../../win32-dev/perl-5.10.0/CORE/parser.h"
	.file 29 "../../../../libpurple/plugins/perl/common/module.h"
	.file 30 "c:/workspace/pidgin-devel/win32-dev/mingw-4.7.2/bin/../lib/gcc/mingw32/4.7.2/../../../../include/stdlib.h"
	.file 31 "c:/workspace/pidgin-devel/win32-dev/mingw-4.7.2/bin/../lib/gcc/mingw32/4.7.2/../../../../include/ctype.h"
	.file 32 "../../../../../win32-dev/perl-5.10.0/CORE/proto.h"
	.file 33 "../../../../pidgin/gtkdebug.h"
	.file 34 "../../../../libpurple/plugins/perl/common/../perl-common.h"