	.file	"gtkplugin.c"
	.intel_syntax noprefix
	.text
Ltext0:
	.p2align 2,,3
	.def	_website_button_motion_cb;	.scl	3;	.type	32;	.endef
_website_button_motion_cb:
LFB109:
	.file 1 "gtkplugin.c"
	.loc 1 618 0
	.cfi_startproc
LVL0:
	sub	esp, 44
LCFI0:
	.cfi_def_cfa_offset 48
	mov	eax, DWORD PTR [esp+48]
	.loc 1 618 0
	mov	edx, DWORD PTR ___stack_chk_guard
	mov	DWORD PTR [esp+28], edx
	xor	edx, edx
	.loc 1 619 0
	mov	edx, DWORD PTR _plugin_website_uri
	test	edx, edx
	je	L4
	.loc 1 620 0
	mov	DWORD PTR [esp+4], 60
	mov	DWORD PTR [esp], eax
	call	_pidgin_set_cursor
LVL1:
	.loc 1 621 0
	mov	eax, 1
L2:
	.loc 1 624 0
	mov	edx, DWORD PTR [esp+28]
	xor	edx, DWORD PTR ___stack_chk_guard
	jne	L7
	add	esp, 44
LCFI1:
	.cfi_remember_state
	.cfi_def_cfa_offset 4
	ret
	.p2align 2,,3
L4:
LCFI2:
	.cfi_restore_state
	.loc 1 623 0
	xor	eax, eax
	jmp	L2
L7:
	.loc 1 624 0
	call	___stack_chk_fail
LVL2:
	.cfi_endproc
LFE109:
	.p2align 2,,3
	.def	_website_button_clicked_cb;	.scl	3;	.type	32;	.endef
_website_button_clicked_cb:
LFB110:
	.loc 1 629 0
	.cfi_startproc
LVL3:
	sub	esp, 44
LCFI3:
	.cfi_def_cfa_offset 48
	.loc 1 629 0
	mov	eax, DWORD PTR ___stack_chk_guard
	mov	DWORD PTR [esp+28], eax
	xor	eax, eax
	.loc 1 630 0
	mov	eax, DWORD PTR _plugin_website_uri
	test	eax, eax
	je	L11
	.loc 1 631 0
	mov	DWORD PTR [esp+4], eax
	mov	DWORD PTR [esp], 0
	call	_purple_notify_uri
LVL4:
	.loc 1 632 0
	mov	eax, 1
L9:
	.loc 1 635 0
	mov	edx, DWORD PTR [esp+28]
	xor	edx, DWORD PTR ___stack_chk_guard
	jne	L13
	add	esp, 44
LCFI4:
	.cfi_remember_state
	.cfi_def_cfa_offset 4
	ret
	.p2align 2,,3
L11:
LCFI5:
	.cfi_restore_state
	.loc 1 634 0
	xor	eax, eax
	jmp	L9
L13:
	.loc 1 635 0
	call	___stack_chk_fail
LVL5:
	.cfi_endproc
LFE110:
	.section .rdata,"dr"
	.align 4
LC0:
	.ascii "<span size=\"larger\" weight=\"bold\">%s</span> <span size=\"smaller\">%s</span>\0"
	.align 4
LC1:
	.ascii "<span underline=\"single\" foreground=\"blue\">%s</span>\0"
	.align 4
LC2:
	.ascii "<span foreground=\"red\" weight=\"bold\">Error: %s\12Check the plugin website for an update.</span>\0"
LC3:
	.ascii "pidgin\0"
LC4:
	.ascii "gtk-gaim\0"
	.text
	.p2align 2,,3
	.def	_prefs_plugin_sel;	.scl	3;	.type	32;	.endef
_prefs_plugin_sel:
LFB104:
	.loc 1 400 0
	.cfi_startproc
LVL6:
	push	ebp
LCFI6:
	.cfi_def_cfa_offset 8
	.cfi_offset 5, -8
	push	edi
LCFI7:
	.cfi_def_cfa_offset 12
	.cfi_offset 7, -12
	push	esi
LCFI8:
	.cfi_def_cfa_offset 16
	.cfi_offset 6, -16
	push	ebx
LCFI9:
	.cfi_def_cfa_offset 20
	.cfi_offset 3, -20
	sub	esp, 92
LCFI10:
	.cfi_def_cfa_offset 112
	mov	ebx, DWORD PTR [esp+112]
	mov	eax, DWORD PTR [esp+116]
	mov	DWORD PTR [esp+28], eax
	.loc 1 400 0
	mov	eax, DWORD PTR ___stack_chk_guard
	mov	DWORD PTR [esp+76], eax
	xor	eax, eax
	.loc 1 406 0
	lea	esi, [esp+32]
	mov	DWORD PTR [esp+8], esi
	lea	eax, [esp+28]
	mov	DWORD PTR [esp+4], eax
	mov	DWORD PTR [esp], ebx
	call	_gtk_tree_selection_get_selected
LVL7:
	test	eax, eax
	je	L34
	.loc 1 417 0
	mov	DWORD PTR [esp+4], 1
	mov	eax, DWORD PTR _expander
	mov	DWORD PTR [esp], eax
	call	_gtk_widget_set_sensitive
LVL8:
	.loc 1 419 0
	mov	DWORD PTR [esp+48], 0
	.loc 1 420 0
	lea	ebp, [esp+48]
	mov	DWORD PTR [esp+12], ebp
	mov	DWORD PTR [esp+8], 2
	mov	DWORD PTR [esp+4], esi
	mov	eax, DWORD PTR [esp+28]
LVL9:
	mov	DWORD PTR [esp], eax
	call	_gtk_tree_model_get_value
LVL10:
	.loc 1 421 0
	mov	DWORD PTR [esp], ebp
	call	_g_value_get_pointer
LVL11:
	mov	esi, eax
LVL12:
	.loc 1 423 0
	mov	DWORD PTR [esp], eax
	call	_purple_plugin_get_name
LVL13:
	mov	DWORD PTR [esp+4], -1
	mov	DWORD PTR [esp], eax
	call	_g_markup_escape_text
LVL14:
	mov	edi, eax
LVL15:
	.loc 1 424 0
	mov	DWORD PTR [esp], esi
	call	_purple_plugin_get_version
LVL16:
	mov	DWORD PTR [esp+4], -1
	mov	DWORD PTR [esp], eax
	call	_g_markup_escape_text
LVL17:
	.loc 1 425 0
	mov	DWORD PTR [esp+8], eax
	mov	DWORD PTR [esp+4], edi
	mov	DWORD PTR [esp], OFFSET FLAT:LC0
	mov	DWORD PTR [esp+20], eax
	call	_g_strdup_printf
LVL18:
	.loc 1 429 0
	mov	DWORD PTR [esp+4], eax
	mov	ecx, DWORD PTR _plugin_name
	mov	DWORD PTR [esp], ecx
	mov	DWORD PTR [esp+16], eax
	call	_gtk_label_set_markup
LVL19:
	.loc 1 430 0
	mov	DWORD PTR [esp], edi
	call	_g_free
LVL20:
	.loc 1 431 0
	mov	edx, DWORD PTR [esp+20]
	mov	DWORD PTR [esp], edx
	call	_g_free
LVL21:
	.loc 1 432 0
	mov	eax, DWORD PTR [esp+16]
	mov	DWORD PTR [esp], eax
	call	_g_free
LVL22:
	.loc 1 434 0
	mov	DWORD PTR [esp], esi
	call	_purple_plugin_get_description
LVL23:
	mov	DWORD PTR [esp+8], -1
	mov	DWORD PTR [esp+4], eax
	mov	eax, DWORD PTR _plugin_desc
	mov	DWORD PTR [esp], eax
	call	_gtk_text_buffer_set_text
LVL24:
	.loc 1 435 0
	mov	DWORD PTR [esp], esi
	call	_purple_plugin_get_author
LVL25:
	mov	DWORD PTR [esp+4], eax
	mov	eax, DWORD PTR _plugin_author
	mov	DWORD PTR [esp], eax
	call	_gtk_label_set_text
LVL26:
	.loc 1 436 0
	mov	eax, DWORD PTR [esi+12]
	mov	DWORD PTR [esp+4], eax
	mov	eax, DWORD PTR _plugin_filename
	mov	DWORD PTR [esp], eax
	call	_gtk_label_set_text
LVL27:
	.loc 1 438 0
	mov	eax, DWORD PTR _plugin_website_uri
	mov	DWORD PTR [esp], eax
	call	_g_free
LVL28:
	.loc 1 439 0
	mov	DWORD PTR [esp], esi
	call	_purple_plugin_get_homepage
LVL29:
	mov	DWORD PTR [esp], eax
	call	_g_strdup
LVL30:
	mov	DWORD PTR _plugin_website_uri, eax
	.loc 1 440 0
	test	eax, eax
	je	L17
	.loc 1 442 0
	mov	DWORD PTR [esp+4], -1
	mov	DWORD PTR [esp], eax
	call	_g_markup_escape_text
LVL31:
	mov	edi, eax
LVL32:
	.loc 1 443 0
	mov	DWORD PTR [esp+4], eax
	mov	DWORD PTR [esp], OFFSET FLAT:LC1
	call	_g_strdup_printf
LVL33:
	.loc 1 445 0
	mov	DWORD PTR [esp+4], eax
	mov	edx, DWORD PTR _plugin_website
	mov	DWORD PTR [esp], edx
	mov	DWORD PTR [esp+16], eax
	call	_gtk_label_set_markup
LVL34:
	.loc 1 446 0
	mov	DWORD PTR [esp], edi
	call	_g_free
LVL35:
	.loc 1 447 0
	mov	eax, DWORD PTR [esp+16]
	mov	DWORD PTR [esp], eax
	call	_g_free
LVL36:
L18:
	.loc 1 454 0
	mov	eax, DWORD PTR [esi+20]
	test	eax, eax
	je	L35
	.loc 1 460 0
	mov	DWORD PTR [esp+4], -1
	mov	DWORD PTR [esp], eax
	call	_g_markup_escape_text
LVL37:
	mov	edi, eax
LVL38:
	.loc 1 462 0
	mov	DWORD PTR [esp+4], OFFSET FLAT:LC2
	mov	DWORD PTR [esp], OFFSET FLAT:LC3
	call	_libintl_dgettext
LVL39:
	.loc 1 461 0
	mov	DWORD PTR [esp+4], edi
	mov	DWORD PTR [esp], eax
	call	_g_strdup_printf
LVL40:
	.loc 1 467 0
	mov	DWORD PTR [esp+4], eax
	mov	edx, DWORD PTR _plugin_error
	mov	DWORD PTR [esp], edx
	mov	DWORD PTR [esp+16], eax
	call	_gtk_label_set_markup
LVL41:
	.loc 1 468 0
	mov	eax, DWORD PTR [esp+16]
	mov	DWORD PTR [esp], eax
	call	_g_free
LVL42:
	.loc 1 469 0
	mov	DWORD PTR [esp], edi
	call	_g_free
LVL43:
L20:
	.loc 1 473 0
	mov	DWORD PTR [esp], esi
	call	_purple_plugin_is_loaded
LVL44:
	.loc 1 472 0
	test	eax, eax
	jne	L36
LVL45:
L26:
	xor	eax, eax
L21:
	.loc 1 472 0 is_stmt 0 discriminator 3
	mov	DWORD PTR [esp+4], eax
	mov	eax, DWORD PTR _pref_button
	mov	DWORD PTR [esp], eax
	call	_gtk_widget_set_sensitive
LVL46:
	.loc 1 480 0 is_stmt 1 discriminator 3
	mov	DWORD PTR [esp+4], ebx
	mov	DWORD PTR [esp], OFFSET FLAT:_ensure_plugin_visible
	call	_g_idle_add
LVL47:
	.loc 1 482 0 discriminator 3
	mov	DWORD PTR [esp], ebp
	call	_g_value_unset
LVL48:
L14:
	.loc 1 483 0
	mov	eax, DWORD PTR [esp+76]
	xor	eax, DWORD PTR ___stack_chk_guard
	jne	L37
	add	esp, 92
LCFI11:
	.cfi_remember_state
	.cfi_def_cfa_offset 20
	pop	ebx
LCFI12:
	.cfi_restore 3
	.cfi_def_cfa_offset 16
	pop	esi
LCFI13:
	.cfi_restore 6
	.cfi_def_cfa_offset 12
	pop	edi
LCFI14:
	.cfi_restore 7
	.cfi_def_cfa_offset 8
	pop	ebp
LCFI15:
	.cfi_restore 5
	.cfi_def_cfa_offset 4
	ret
LVL49:
	.p2align 2,,3
L36:
LCFI16:
	.cfi_restore_state
	.loc 1 474 0 discriminator 1
	mov	eax, DWORD PTR [esi+16]
	.loc 1 472 0 discriminator 1
	test	eax, eax
	je	L22
	.loc 1 474 0
	mov	edx, DWORD PTR [eax+72]
	test	edx, edx
	je	L22
	.loc 1 474 0 is_stmt 0 discriminator 1
	mov	esi, DWORD PTR [eax+16]
LVL50:
	mov	edi, OFFSET FLAT:LC4
	mov	ecx, 9
	repe cmpsb
	seta	cl
	setb	BYTE PTR [esp+27]
	cmp	cl, BYTE PTR [esp+27]
	jne	L22
	.loc 1 475 0 is_stmt 1
	mov	esi, DWORD PTR [edx]
	test	esi, esi
	jne	L23
	.p2align 2,,3
L22:
	.loc 1 476 0
	mov	eax, DWORD PTR [eax+80]
	test	eax, eax
	je	L26
	.loc 1 477 0
	mov	ecx, DWORD PTR [eax]
	test	ecx, ecx
	je	L26
L23:
	.loc 1 472 0
	mov	eax, 1
	jmp	L21
	.p2align 2,,3
L34:
	.loc 1 408 0
	mov	DWORD PTR [esp+4], 0
	mov	eax, DWORD PTR _pref_button
	mov	DWORD PTR [esp], eax
	call	_gtk_widget_set_sensitive
LVL51:
	.loc 1 411 0
	call	_gtk_expander_get_type
LVL52:
	mov	DWORD PTR [esp+4], eax
	mov	eax, DWORD PTR _expander
	mov	DWORD PTR [esp], eax
	call	_g_type_check_instance_cast
LVL53:
	mov	DWORD PTR [esp+4], 0
	mov	DWORD PTR [esp], eax
	call	_gtk_expander_set_expanded
LVL54:
	.loc 1 412 0
	mov	DWORD PTR [esp+4], 0
	mov	eax, DWORD PTR _expander
	mov	DWORD PTR [esp], eax
	call	_gtk_widget_set_sensitive
LVL55:
	jmp	L14
LVL56:
	.p2align 2,,3
L35:
	.loc 1 456 0
	mov	DWORD PTR [esp+4], 0
	mov	eax, DWORD PTR _plugin_error
	mov	DWORD PTR [esp], eax
	call	_gtk_label_set_text
LVL57:
	jmp	L20
LVL58:
	.p2align 2,,3
L17:
	.loc 1 451 0
	mov	DWORD PTR [esp+4], 0
	mov	eax, DWORD PTR _plugin_website
	mov	DWORD PTR [esp], eax
	call	_gtk_label_set_text
LVL59:
	jmp	L18
LVL60:
L37:
	.loc 1 483 0
	call	___stack_chk_fail
LVL61:
	.cfi_endproc
LFE104:
	.p2align 2,,3
	.def	_ensure_plugin_visible;	.scl	3;	.type	32;	.endef
_ensure_plugin_visible:
LFB103:
	.loc 1 385 0
	.cfi_startproc
LVL62:
	push	esi
LCFI17:
	.cfi_def_cfa_offset 8
	.cfi_offset 6, -8
	push	ebx
LCFI18:
	.cfi_def_cfa_offset 12
	.cfi_offset 3, -12
	sub	esp, 68
LCFI19:
	.cfi_def_cfa_offset 80
	mov	ebx, DWORD PTR [esp+80]
	.loc 1 385 0
	mov	eax, DWORD PTR ___stack_chk_guard
	mov	DWORD PTR [esp+60], eax
	xor	eax, eax
	.loc 1 386 0
	call	_gtk_tree_selection_get_type
LVL63:
	mov	DWORD PTR [esp+4], eax
	mov	DWORD PTR [esp], ebx
	call	_g_type_check_instance_cast
LVL64:
	mov	ebx, eax
LVL65:
	.loc 1 387 0
	mov	DWORD PTR [esp], eax
	call	_gtk_tree_selection_get_tree_view
LVL66:
	.loc 1 388 0
	mov	DWORD PTR [esp], eax
	call	_gtk_tree_view_get_model
LVL67:
	mov	DWORD PTR [esp+40], eax
	.loc 1 391 0
	lea	esi, [esp+44]
	mov	DWORD PTR [esp+8], esi
	lea	eax, [esp+40]
LVL68:
	mov	DWORD PTR [esp+4], eax
	mov	DWORD PTR [esp], ebx
	call	_gtk_tree_selection_get_selected
LVL69:
	test	eax, eax
	je	L39
	.loc 1 393 0
	mov	DWORD PTR [esp+4], esi
	mov	eax, DWORD PTR [esp+40]
	mov	DWORD PTR [esp], eax
	call	_gtk_tree_model_get_path
LVL70:
	mov	esi, eax
LVL71:
	.loc 1 394 0
	mov	DWORD PTR [esp], ebx
	call	_gtk_tree_selection_get_tree_view
LVL72:
	mov	DWORD PTR [esp+20], 0x00000000
	mov	DWORD PTR [esp+16], 0x00000000
	mov	DWORD PTR [esp+12], 0
	mov	DWORD PTR [esp+8], 0
	mov	DWORD PTR [esp+4], esi
	mov	DWORD PTR [esp], eax
	call	_gtk_tree_view_scroll_to_cell
LVL73:
	.loc 1 395 0
	mov	DWORD PTR [esp], esi
	call	_gtk_tree_path_free
LVL74:
L39:
	.loc 1 397 0
	xor	eax, eax
	mov	edx, DWORD PTR [esp+60]
	xor	edx, DWORD PTR ___stack_chk_guard
	jne	L45
	add	esp, 68
LCFI20:
	.cfi_remember_state
	.cfi_def_cfa_offset 12
	pop	ebx
LCFI21:
	.cfi_restore 3
	.cfi_def_cfa_offset 8
LVL75:
	pop	esi
LCFI22:
	.cfi_restore 6
	.cfi_def_cfa_offset 4
	ret
LVL76:
L45:
LCFI23:
	.cfi_restore_state
	call	___stack_chk_fail
LVL77:
	.cfi_endproc
LFE103:
	.section .rdata,"dr"
LC6:
	.ascii "tooltip-plugin\0"
LC7:
	.ascii "tooltip\0"
	.text
	.p2align 2,,3
	.def	_pidgin_plugins_paint_tooltip;	.scl	3;	.type	32;	.endef
_pidgin_plugins_paint_tooltip:
LFB107:
	.loc 1 565 0
	.cfi_startproc
LVL78:
	push	ebx
LCFI24:
	.cfi_def_cfa_offset 8
	.cfi_offset 3, -8
	sub	esp, 72
LCFI25:
	.cfi_def_cfa_offset 80
	mov	ebx, DWORD PTR [esp+80]
	.loc 1 565 0
	mov	eax, DWORD PTR ___stack_chk_guard
	mov	DWORD PTR [esp+60], eax
	xor	eax, eax
	.loc 1 566 0
	mov	DWORD PTR [esp+4], 80
	mov	DWORD PTR [esp], ebx
	call	_g_type_check_instance_cast
LVL79:
	mov	DWORD PTR [esp+4], OFFSET FLAT:LC6
	mov	DWORD PTR [esp], eax
	call	_g_object_get_data
LVL80:
	.loc 1 567 0
	mov	DWORD PTR [esp+36], eax
	mov	DWORD PTR [esp+32], 6
	mov	DWORD PTR [esp+28], 6
	mov	DWORD PTR [esp+24], OFFSET FLAT:LC7
	mov	DWORD PTR [esp+20], ebx
	mov	DWORD PTR [esp+16], 0
	mov	DWORD PTR [esp+12], 0
	mov	DWORD PTR [esp+8], 0
	mov	eax, DWORD PTR [ebx+52]
LVL81:
	mov	DWORD PTR [esp+4], eax
	mov	eax, DWORD PTR [ebx+24]
	mov	DWORD PTR [esp], eax
	call	_gtk_paint_layout
LVL82:
	.loc 1 571 0
	mov	eax, 1
	mov	edx, DWORD PTR [esp+60]
	xor	edx, DWORD PTR ___stack_chk_guard
	jne	L49
	add	esp, 72
LCFI26:
	.cfi_remember_state
	.cfi_def_cfa_offset 8
	pop	ebx
LCFI27:
	.cfi_restore 3
	.cfi_def_cfa_offset 4
	ret
L49:
LCFI28:
	.cfi_restore_state
	call	___stack_chk_fail
LVL83:
	.cfi_endproc
LFE107:
	.section .rdata,"dr"
LC8:
	.ascii "Author\0"
LC9:
	.ascii "Description\0"
	.align 4
LC10:
	.ascii "<span size='x-large' weight='bold'>%s</span>\12<b>%s:</b> %s\12<b>%s:</b> %s\0"
	.text
	.p2align 2,,3
	.def	_pidgin_plugins_create_tooltip;	.scl	3;	.type	32;	.endef
_pidgin_plugins_create_tooltip:
LFB108:
	.loc 1 576 0
	.cfi_startproc
LVL84:
	push	ebp
LCFI29:
	.cfi_def_cfa_offset 8
	.cfi_offset 5, -8
	push	edi
LCFI30:
	.cfi_def_cfa_offset 12
	.cfi_offset 7, -12
	push	esi
LCFI31:
	.cfi_def_cfa_offset 16
	.cfi_offset 6, -16
	push	ebx
LCFI32:
	.cfi_def_cfa_offset 20
	.cfi_offset 3, -20
	sub	esp, 108
LCFI33:
	.cfi_def_cfa_offset 128
	mov	esi, DWORD PTR [esp+128]
	mov	edi, DWORD PTR [esp+132]
	mov	ebx, DWORD PTR [esp+136]
	mov	ebp, DWORD PTR [esp+140]
	mov	edx, DWORD PTR [esp+144]
	mov	DWORD PTR [esp+44], edx
	.loc 1 576 0
	mov	eax, DWORD PTR ___stack_chk_guard
	mov	DWORD PTR [esp+92], eax
	xor	eax, eax
	.loc 1 578 0
	call	_gtk_tree_view_get_type
LVL85:
	mov	DWORD PTR [esp+4], eax
	mov	DWORD PTR [esp], ebx
	call	_g_type_check_instance_cast
LVL86:
	.loc 1 579 0
	mov	DWORD PTR [esp+64], 0
LVL87:
	.loc 1 580 0
	mov	DWORD PTR [esp], eax
	call	_gtk_tree_view_get_model
LVL88:
	mov	ebx, eax
LVL89:
	.loc 1 585 0
	mov	DWORD PTR [esp+8], edi
	lea	edi, [esp+76]
	mov	DWORD PTR [esp+4], edi
	mov	DWORD PTR [esp], eax
	call	_gtk_tree_model_get_iter
LVL90:
	test	eax, eax
	jne	L63
	.loc 1 586 0
	xor	eax, eax
LVL91:
L51:
	.loc 1 613 0
	mov	edx, DWORD PTR [esp+92]
	xor	edx, DWORD PTR ___stack_chk_guard
	jne	L64
	add	esp, 108
LCFI34:
	.cfi_remember_state
	.cfi_def_cfa_offset 20
	pop	ebx
LCFI35:
	.cfi_restore 3
	.cfi_def_cfa_offset 16
	pop	esi
LCFI36:
	.cfi_restore 6
	.cfi_def_cfa_offset 12
	pop	edi
LCFI37:
	.cfi_restore 7
	.cfi_def_cfa_offset 8
	pop	ebp
LCFI38:
	.cfi_restore 5
	.cfi_def_cfa_offset 4
	ret
LVL92:
	.p2align 2,,3
L63:
LCFI39:
	.cfi_restore_state
	.loc 1 588 0
	mov	DWORD PTR [esp+16], -1
	lea	eax, [esp+64]
	mov	DWORD PTR [esp+12], eax
	mov	DWORD PTR [esp+8], 2
	mov	DWORD PTR [esp+4], edi
	mov	DWORD PTR [esp], ebx
	call	_gtk_tree_model_get
LVL93:
	.loc 1 593 0
	mov	eax, DWORD PTR [esp+64]
	mov	DWORD PTR [esp], eax
	call	_purple_plugin_get_author
LVL94:
	.loc 1 590 0
	mov	DWORD PTR [esp+4], -1
	mov	DWORD PTR [esp], eax
	call	_g_markup_escape_text
LVL95:
	mov	DWORD PTR [esp+48], eax
LVL96:
	.loc 1 593 0
	mov	DWORD PTR [esp+4], OFFSET FLAT:LC8
	mov	DWORD PTR [esp], OFFSET FLAT:LC3
	call	_libintl_dgettext
LVL97:
	mov	edx, eax
	.loc 1 592 0
	mov	eax, DWORD PTR [esp+64]
	mov	DWORD PTR [esp], eax
	mov	DWORD PTR [esp+40], edx
	call	_purple_plugin_get_description
LVL98:
	.loc 1 590 0
	mov	DWORD PTR [esp+4], -1
	mov	DWORD PTR [esp], eax
	call	_g_markup_escape_text
LVL99:
	mov	DWORD PTR [esp+52], eax
LVL100:
	.loc 1 592 0
	mov	DWORD PTR [esp+4], OFFSET FLAT:LC9
	mov	DWORD PTR [esp], OFFSET FLAT:LC3
	call	_libintl_dgettext
LVL101:
	mov	ebx, eax
LVL102:
	.loc 1 591 0
	mov	eax, DWORD PTR [esp+64]
	mov	DWORD PTR [esp], eax
	call	_purple_plugin_get_name
LVL103:
	.loc 1 590 0
	mov	DWORD PTR [esp+4], -1
	mov	DWORD PTR [esp], eax
	call	_g_markup_escape_text
LVL104:
	mov	DWORD PTR [esp+56], eax
LVL105:
	mov	eax, DWORD PTR [esp+48]
LVL106:
	mov	DWORD PTR [esp+20], eax
	mov	edx, DWORD PTR [esp+40]
	mov	DWORD PTR [esp+16], edx
	mov	eax, DWORD PTR [esp+52]
	mov	DWORD PTR [esp+12], eax
	mov	DWORD PTR [esp+8], ebx
	mov	eax, DWORD PTR [esp+56]
	mov	DWORD PTR [esp+4], eax
	mov	DWORD PTR [esp], OFFSET FLAT:LC10
	call	_g_strdup_printf
LVL107:
	mov	DWORD PTR [esp+60], eax
LVL108:
	.loc 1 595 0
	mov	DWORD PTR [esp+4], 0
	mov	DWORD PTR [esp], esi
	call	_gtk_widget_create_pango_layout
LVL109:
	mov	ebx, eax
LVL110:
	.loc 1 596 0
	mov	DWORD PTR [esp+8], -1
	mov	eax, DWORD PTR [esp+60]
LVL111:
	mov	DWORD PTR [esp+4], eax
	mov	DWORD PTR [esp], ebx
	call	_pango_layout_set_markup
LVL112:
	.loc 1 597 0
	mov	DWORD PTR [esp+4], 0
	mov	DWORD PTR [esp], ebx
	call	_pango_layout_set_wrap
LVL113:
	.loc 1 598 0
	mov	DWORD PTR [esp+4], 600000
	mov	DWORD PTR [esp], ebx
	call	_pango_layout_set_width
LVL114:
	.loc 1 599 0
	lea	eax, [esp+72]
	mov	DWORD PTR [esp+8], eax
	lea	eax, [esp+68]
	mov	DWORD PTR [esp+4], eax
	mov	DWORD PTR [esp], ebx
	call	_pango_layout_get_size
LVL115:
	.loc 1 600 0
	mov	DWORD PTR [esp+4], 80
	mov	DWORD PTR [esp], esi
	call	_g_type_check_instance_cast
LVL116:
	mov	DWORD PTR [esp+12], OFFSET FLAT:_g_object_unref
	mov	DWORD PTR [esp+8], ebx
	mov	DWORD PTR [esp+4], OFFSET FLAT:LC6
	mov	DWORD PTR [esp], eax
	call	_g_object_set_data_full
LVL117:
	.loc 1 602 0
	test	ebp, ebp
	je	L52
LVL118:
	.loc 1 603 0
	mov	eax, DWORD PTR [esp+68]
	add	eax, 512
	sar	eax, 10
	add	eax, 12
	mov	DWORD PTR [ebp+0], eax
L52:
	.loc 1 604 0
	mov	edi, DWORD PTR [esp+44]
	test	edi, edi
	je	L53
LVL119:
	.loc 1 605 0
	mov	eax, DWORD PTR [esp+72]
	add	eax, 512
	sar	eax, 10
	add	eax, 12
	mov	edx, DWORD PTR [esp+44]
	mov	DWORD PTR [edx], eax
L53:
	.loc 1 607 0
	mov	eax, DWORD PTR [esp+60]
	mov	DWORD PTR [esp], eax
	call	_g_free
LVL120:
	.loc 1 608 0
	mov	eax, DWORD PTR [esp+56]
	mov	DWORD PTR [esp], eax
	call	_g_free
LVL121:
	.loc 1 609 0
	mov	eax, DWORD PTR [esp+52]
	mov	DWORD PTR [esp], eax
	call	_g_free
LVL122:
	.loc 1 610 0
	mov	eax, DWORD PTR [esp+48]
	mov	DWORD PTR [esp], eax
	call	_g_free
LVL123:
	.loc 1 612 0
	mov	eax, 1
	jmp	L51
LVL124:
L64:
	.loc 1 613 0
	call	___stack_chk_fail
LVL125:
	.cfi_endproc
LFE108:
	.p2align 2,,3
	.def	_plugin_loading_common;	.scl	3;	.type	32;	.endef
_plugin_loading_common:
LFB96:
	.loc 1 166 0
	.cfi_startproc
LVL126:
	push	ebp
LCFI40:
	.cfi_def_cfa_offset 8
	.cfi_offset 5, -8
	push	edi
LCFI41:
	.cfi_def_cfa_offset 12
	.cfi_offset 7, -12
	push	esi
LCFI42:
	.cfi_def_cfa_offset 16
	.cfi_offset 6, -16
	push	ebx
LCFI43:
	.cfi_def_cfa_offset 20
	.cfi_offset 3, -20
	sub	esp, 92
LCFI44:
	.cfi_def_cfa_offset 112
	mov	esi, eax
	mov	ebp, edx
	mov	DWORD PTR [esp+44], ecx
	.loc 1 166 0
	mov	eax, DWORD PTR ___stack_chk_guard
	mov	DWORD PTR [esp+76], eax
	xor	eax, eax
LVL127:
	.loc 1 168 0
	mov	DWORD PTR [esp], edx
	call	_gtk_tree_view_get_model
LVL128:
	mov	DWORD PTR [esp+52], eax
	.loc 1 170 0
	lea	ebx, [esp+60]
	mov	DWORD PTR [esp+4], ebx
	mov	DWORD PTR [esp], eax
	call	_gtk_tree_model_get_iter_first
LVL129:
	test	eax, eax
	je	L65
	lea	edi, [esp+56]
LVL130:
L66:
LBB2:
	.loc 1 175 0
	mov	DWORD PTR [esp+16], -1
	mov	DWORD PTR [esp+12], edi
	mov	DWORD PTR [esp+8], 2
	mov	DWORD PTR [esp+4], ebx
	mov	eax, DWORD PTR [esp+52]
	mov	DWORD PTR [esp], eax
	call	_gtk_tree_model_get
LVL131:
	.loc 1 177 0
	cmp	DWORD PTR [esp+56], esi
	je	L68
LBE2:
	.loc 1 200 0
	mov	DWORD PTR [esp+4], ebx
	mov	eax, DWORD PTR [esp+52]
	mov	DWORD PTR [esp], eax
	call	_gtk_tree_model_iter_next
LVL132:
	test	eax, eax
	jne	L66
LVL133:
L65:
	.loc 1 202 0
	mov	eax, DWORD PTR [esp+76]
	xor	eax, DWORD PTR ___stack_chk_guard
	jne	L88
	add	esp, 92
LCFI45:
	.cfi_remember_state
	.cfi_def_cfa_offset 20
	pop	ebx
LCFI46:
	.cfi_restore 3
	.cfi_def_cfa_offset 16
	pop	esi
LCFI47:
	.cfi_restore 6
	.cfi_def_cfa_offset 12
	pop	edi
LCFI48:
	.cfi_restore 7
	.cfi_def_cfa_offset 8
	pop	ebp
LCFI49:
	.cfi_restore 5
	.cfi_def_cfa_offset 4
	ret
LVL134:
	.p2align 2,,3
L68:
LCFI50:
	.cfi_restore_state
LBB3:
	.loc 1 180 0
	call	_gtk_list_store_get_type
LVL135:
	mov	DWORD PTR [esp+4], eax
	mov	eax, DWORD PTR [esp+52]
	mov	DWORD PTR [esp], eax
	call	_g_type_check_instance_cast
LVL136:
	mov	DWORD PTR [esp+16], -1
	mov	edx, DWORD PTR [esp+44]
	mov	DWORD PTR [esp+12], edx
	mov	DWORD PTR [esp+8], 0
	mov	DWORD PTR [esp+4], ebx
	mov	DWORD PTR [esp], eax
	call	_gtk_list_store_set
LVL137:
	.loc 1 184 0
	mov	DWORD PTR [esp], ebp
	call	_gtk_tree_view_get_selection
LVL138:
	.loc 1 185 0
	mov	DWORD PTR [esp+8], ebx
	lea	edx, [esp+52]
	mov	DWORD PTR [esp+4], edx
	mov	DWORD PTR [esp], eax
	call	_gtk_tree_selection_get_selected
LVL139:
	test	eax, eax
	je	L65
	.loc 1 187 0
	mov	DWORD PTR [esp+16], -1
	mov	DWORD PTR [esp+12], edi
	mov	DWORD PTR [esp+8], 2
	mov	DWORD PTR [esp+4], ebx
	mov	eax, DWORD PTR [esp+52]
	mov	DWORD PTR [esp], eax
	call	_gtk_tree_model_get
LVL140:
	.loc 1 188 0
	cmp	DWORD PTR [esp+56], esi
	jne	L65
	.loc 1 190 0
	mov	ecx, DWORD PTR [esp+44]
	test	ecx, ecx
	je	L78
	.loc 1 192 0 discriminator 1
	mov	eax, DWORD PTR [esi+16]
	.loc 1 190 0 discriminator 1
	test	eax, eax
	je	L74
	.loc 1 192 0
	mov	edx, DWORD PTR [eax+72]
	test	edx, edx
	je	L74
	.loc 1 192 0 is_stmt 0 discriminator 1
	mov	esi, DWORD PTR [eax+16]
LVL141:
	mov	edi, OFFSET FLAT:LC4
	mov	ecx, 9
	repe cmpsb
	jne	L74
	.loc 1 193 0 is_stmt 1
	mov	edx, DWORD PTR [edx]
	test	edx, edx
	je	L74
LVL142:
L75:
LBE3:
	.loc 1 190 0
	mov	eax, 1
L73:
LBB4:
	.loc 1 190 0 is_stmt 0 discriminator 3
	mov	DWORD PTR [esp+4], eax
	mov	eax, DWORD PTR _pref_button
	mov	DWORD PTR [esp], eax
	call	_gtk_widget_set_sensitive
LVL143:
	jmp	L65
LVL144:
L74:
	.loc 1 194 0 is_stmt 1
	mov	eax, DWORD PTR [eax+80]
	test	eax, eax
	je	L78
	.loc 1 195 0
	mov	ebp, DWORD PTR [eax]
LVL145:
	test	ebp, ebp
	jne	L75
L78:
	.loc 1 190 0
	xor	eax, eax
	jmp	L73
L88:
LBE4:
	.loc 1 202 0
	call	___stack_chk_fail
LVL146:
	.cfi_endproc
LFE96:
	.p2align 2,,3
	.def	_plugin_unload_cb;	.scl	3;	.type	32;	.endef
_plugin_unload_cb:
LFB98:
	.loc 1 211 0
	.cfi_startproc
LVL147:
	sub	esp, 28
LCFI51:
	.cfi_def_cfa_offset 32
	mov	eax, DWORD PTR [esp+32]
	mov	edx, DWORD PTR [esp+36]
	.loc 1 211 0
	mov	ecx, DWORD PTR ___stack_chk_guard
	mov	DWORD PTR [esp+12], ecx
	xor	ecx, ecx
LVL148:
	.loc 1 213 0
	mov	ecx, DWORD PTR [esp+12]
	xor	ecx, DWORD PTR ___stack_chk_guard
	jne	L93
	xor	ecx, ecx
	.loc 1 214 0
	add	esp, 28
LCFI52:
	.cfi_remember_state
	.cfi_def_cfa_offset 4
	.loc 1 213 0
	jmp	_plugin_loading_common
LVL149:
L93:
LCFI53:
	.cfi_restore_state
	call	___stack_chk_fail
LVL150:
	.cfi_endproc
LFE98:
	.p2align 2,,3
	.def	_plugin_load_cb;	.scl	3;	.type	32;	.endef
_plugin_load_cb:
LFB97:
	.loc 1 205 0
	.cfi_startproc
LVL151:
	sub	esp, 28
LCFI54:
	.cfi_def_cfa_offset 32
	mov	eax, DWORD PTR [esp+32]
	mov	edx, DWORD PTR [esp+36]
	.loc 1 205 0
	mov	ecx, DWORD PTR ___stack_chk_guard
	mov	DWORD PTR [esp+12], ecx
	xor	ecx, ecx
LVL152:
	.loc 1 207 0
	mov	ecx, DWORD PTR [esp+12]
	xor	ecx, DWORD PTR ___stack_chk_guard
	jne	L98
	mov	ecx, 1
	.loc 1 208 0
	add	esp, 28
LCFI55:
	.cfi_remember_state
	.cfi_def_cfa_offset 4
	.loc 1 207 0
	jmp	_plugin_loading_common
LVL153:
L98:
LCFI56:
	.cfi_restore_state
	call	___stack_chk_fail
LVL154:
	.cfi_endproc
LFE97:
	.p2align 2,,3
	.def	_pref_dialog_response_cb.part.0;	.scl	3;	.type	32;	.endef
_pref_dialog_response_cb.part.0:
LFB113:
	.loc 1 216 0
	.cfi_startproc
LVL155:
	push	esi
LCFI57:
	.cfi_def_cfa_offset 8
	.cfi_offset 6, -8
	push	ebx
LCFI58:
	.cfi_def_cfa_offset 12
	.cfi_offset 3, -12
	sub	esp, 36
LCFI59:
	.cfi_def_cfa_offset 48
	mov	esi, eax
	mov	ebx, edx
	.loc 1 216 0
	mov	eax, DWORD PTR ___stack_chk_guard
	mov	DWORD PTR [esp+28], eax
	xor	eax, eax
LVL156:
	.loc 1 221 0
	mov	DWORD PTR [esp+4], edx
	mov	eax, DWORD PTR _plugin_pref_dialogs
	mov	DWORD PTR [esp], eax
	call	_g_hash_table_remove
LVL157:
	.loc 1 222 0
	mov	eax, DWORD PTR _plugin_pref_dialogs
	mov	DWORD PTR [esp], eax
	call	_g_hash_table_size
LVL158:
	test	eax, eax
	je	L110
L100:
	.loc 1 226 0
	mov	DWORD PTR [esp], esi
	call	_gtk_widget_destroy
LVL159:
	.loc 1 228 0
	mov	eax, DWORD PTR [ebx+16]
	mov	eax, DWORD PTR [eax+80]
	test	eax, eax
	je	L99
	mov	eax, DWORD PTR [eax+8]
	test	eax, eax
	je	L99
	.loc 1 229 0
	mov	DWORD PTR [esp], eax
	call	_purple_plugin_pref_frame_destroy
LVL160:
	.loc 1 230 0
	mov	eax, DWORD PTR [ebx+16]
	mov	eax, DWORD PTR [eax+80]
	mov	DWORD PTR [eax+8], 0
L99:
	.loc 1 235 0
	mov	eax, DWORD PTR [esp+28]
	xor	eax, DWORD PTR ___stack_chk_guard
	jne	L111
	add	esp, 36
LCFI60:
	.cfi_remember_state
	.cfi_def_cfa_offset 12
	pop	ebx
LCFI61:
	.cfi_restore 3
	.cfi_def_cfa_offset 8
LVL161:
	pop	esi
LCFI62:
	.cfi_restore 6
	.cfi_def_cfa_offset 4
LVL162:
	ret
LVL163:
	.p2align 2,,3
L110:
LCFI63:
	.cfi_restore_state
	.loc 1 223 0
	mov	eax, DWORD PTR _plugin_pref_dialogs
	mov	DWORD PTR [esp], eax
	call	_g_hash_table_destroy
LVL164:
	.loc 1 224 0
	mov	DWORD PTR _plugin_pref_dialogs, 0
	jmp	L100
L111:
	.loc 1 235 0
	call	___stack_chk_fail
LVL165:
	.cfi_endproc
LFE113:
	.p2align 2,,3
	.def	_pref_dialog_response_cb;	.scl	3;	.type	32;	.endef
_pref_dialog_response_cb:
LFB99:
	.loc 1 217 0
	.cfi_startproc
LVL166:
	push	ebx
LCFI64:
	.cfi_def_cfa_offset 8
	.cfi_offset 3, -8
	sub	esp, 24
LCFI65:
	.cfi_def_cfa_offset 32
	mov	eax, DWORD PTR [esp+32]
	mov	ecx, DWORD PTR [esp+36]
	mov	edx, DWORD PTR [esp+40]
	.loc 1 217 0
	mov	ebx, DWORD PTR ___stack_chk_guard
	mov	DWORD PTR [esp+12], ebx
	xor	ebx, ebx
	.loc 1 218 0
	cmp	ecx, -7
	je	L114
	cmp	ecx, -4
	je	L114
	.loc 1 235 0
	mov	ebx, DWORD PTR [esp+12]
	xor	ebx, DWORD PTR ___stack_chk_guard
	jne	L125
	add	esp, 24
LCFI66:
	.cfi_remember_state
	.cfi_def_cfa_offset 8
	pop	ebx
LCFI67:
	.cfi_restore 3
	.cfi_def_cfa_offset 4
	ret
	.p2align 2,,3
L114:
LCFI68:
	.cfi_restore_state
	mov	ecx, DWORD PTR [esp+12]
	xor	ecx, DWORD PTR ___stack_chk_guard
	jne	L125
	add	esp, 24
LCFI69:
	.cfi_remember_state
	.cfi_def_cfa_offset 8
	pop	ebx
LCFI70:
	.cfi_restore 3
	.cfi_def_cfa_offset 4
	jmp	_pref_dialog_response_cb.part.0
LVL167:
L125:
LCFI71:
	.cfi_restore_state
	call	___stack_chk_fail
LVL168:
	.cfi_endproc
LFE99:
	.section .rdata,"dr"
	.align 4
LC11:
	.ascii "Plugin %s contains both, ui_info and prefs_info preferences; prefs_info will be ignored.\0"
LC12:
	.ascii "gtkplugin\0"
LC13:
	.ascii "plugin != NULL\0"
	.text
	.p2align 2,,3
	.globl	_pidgin_plugin_get_config_frame
	.def	_pidgin_plugin_get_config_frame;	.scl	2;	.type	32;	.endef
_pidgin_plugin_get_config_frame:
LFB93:
	.loc 1 59 0
	.cfi_startproc
LVL169:
	push	edi
LCFI72:
	.cfi_def_cfa_offset 8
	.cfi_offset 7, -8
	push	esi
LCFI73:
	.cfi_def_cfa_offset 12
	.cfi_offset 6, -12
	push	ebx
LCFI74:
	.cfi_def_cfa_offset 16
	.cfi_offset 3, -16
	sub	esp, 48
LCFI75:
	.cfi_def_cfa_offset 64
	mov	ebx, DWORD PTR [esp+64]
	.loc 1 59 0
	mov	eax, DWORD PTR ___stack_chk_guard
	mov	DWORD PTR [esp+44], eax
	xor	eax, eax
LVL170:
LBB5:
	.loc 1 62 0
	test	ebx, ebx
	je	L148
LVL171:
LBE5:
	.loc 1 64 0
	mov	eax, DWORD PTR [ebx+16]
	test	eax, eax
	je	L129
	.loc 1 64 0 is_stmt 0 discriminator 1
	mov	edx, DWORD PTR [eax+72]
	test	edx, edx
	je	L129
	mov	esi, DWORD PTR [eax+16]
	mov	edi, OFFSET FLAT:LC4
	mov	ecx, 9
	repe cmpsb
	seta	cl
	setb	BYTE PTR [esp+31]
	cmp	cl, BYTE PTR [esp+31]
	je	L149
LVL172:
L129:
	.loc 1 83 0 is_stmt 1 discriminator 1
	mov	eax, DWORD PTR [eax+80]
	test	eax, eax
	je	L135
	.loc 1 84 0
	mov	eax, DWORD PTR [eax]
	test	eax, eax
	je	L135
LBB6:
	.loc 1 88 0
	mov	DWORD PTR [esp], ebx
	call	eax
LVL173:
	mov	esi, eax
LVL174:
	.loc 1 90 0
	mov	DWORD PTR [esp], eax
	call	_pidgin_plugin_pref_create_frame
LVL175:
	.loc 1 92 0
	mov	edx, DWORD PTR [ebx+16]
	mov	edx, DWORD PTR [edx+80]
	mov	DWORD PTR [edx+8], esi
	jmp	L131
LVL176:
	.p2align 2,,3
L149:
LBE6:
	.loc 1 65 0
	mov	edx, DWORD PTR [edx]
	test	edx, edx
	je	L129
LBB7:
	.loc 1 71 0
	mov	DWORD PTR [esp], ebx
	call	edx
LVL177:
	.loc 1 73 0
	mov	ecx, DWORD PTR [ebx+16]
	mov	edx, DWORD PTR [ecx+80]
	test	edx, edx
	je	L130
	.loc 1 74 0
	mov	esi, DWORD PTR [edx]
	test	esi, esi
	je	L130
	.loc 1 76 0
	mov	edx, DWORD PTR [ecx+36]
	mov	DWORD PTR [esp+8], edx
	mov	DWORD PTR [esp+4], OFFSET FLAT:LC11
	mov	DWORD PTR [esp], OFFSET FLAT:LC12
	mov	DWORD PTR [esp+24], eax
	call	_purple_debug_warning
LVL178:
	mov	eax, DWORD PTR [esp+24]
L130:
LVL179:
LBE7:
	.loc 1 83 0
	test	eax, eax
	je	L150
LVL180:
L131:
	.loc 1 96 0
	mov	edx, DWORD PTR [esp+44]
	xor	edx, DWORD PTR ___stack_chk_guard
	jne	L151
	add	esp, 48
LCFI76:
	.cfi_remember_state
	.cfi_def_cfa_offset 16
	pop	ebx
LCFI77:
	.cfi_restore 3
	.cfi_def_cfa_offset 12
	pop	esi
LCFI78:
	.cfi_restore 6
	.cfi_def_cfa_offset 8
	pop	edi
LCFI79:
	.cfi_restore 7
	.cfi_def_cfa_offset 4
	ret
LVL181:
	.p2align 2,,3
L148:
LCFI80:
	.cfi_restore_state
	.loc 1 62 0
	mov	DWORD PTR [esp+8], OFFSET FLAT:LC13
	mov	DWORD PTR [esp+4], OFFSET FLAT:___PRETTY_FUNCTION__.77318
	mov	DWORD PTR [esp], 0
	call	_g_return_if_fail_warning
LVL182:
	xor	eax, eax
	jmp	L131
LVL183:
	.p2align 2,,3
L135:
	.loc 1 84 0
	xor	eax, eax
	jmp	L131
LVL184:
L151:
	.loc 1 96 0
	call	___stack_chk_fail
LVL185:
L150:
	mov	eax, DWORD PTR [ebx+16]
LVL186:
	jmp	L129
	.cfi_endproc
LFE93:
	.section .rdata,"dr"
LC14:
	.ascii "Pidgin\0"
LC15:
	.ascii "gtk-close\0"
LC16:
	.ascii "response\0"
LC17:
	.ascii "plugin_config\0"
	.text
	.p2align 2,,3
	.def	_plugin_dialog_response_cb;	.scl	3;	.type	32;	.endef
_plugin_dialog_response_cb:
LFB105:
	.loc 1 486 0
	.cfi_startproc
LVL187:
	push	ebp
LCFI81:
	.cfi_def_cfa_offset 8
	.cfi_offset 5, -8
	push	edi
LCFI82:
	.cfi_def_cfa_offset 12
	.cfi_offset 7, -12
	push	esi
LCFI83:
	.cfi_def_cfa_offset 16
	.cfi_offset 6, -16
	push	ebx
LCFI84:
	.cfi_def_cfa_offset 20
	.cfi_offset 3, -20
	sub	esp, 124
LCFI85:
	.cfi_def_cfa_offset 144
	mov	ebx, DWORD PTR [esp+144]
	mov	eax, DWORD PTR [esp+148]
	mov	edx, DWORD PTR [esp+152]
	.loc 1 486 0
	mov	ecx, DWORD PTR ___stack_chk_guard
	mov	DWORD PTR [esp+108], ecx
	xor	ecx, ecx
	.loc 1 493 0
	cmp	eax, -4
	je	L154
	cmp	eax, 98121
	je	L155
	cmp	eax, -7
	je	L154
LVL188:
L152:
	.loc 1 539 0
	mov	ecx, DWORD PTR [esp+108]
	xor	ecx, DWORD PTR ___stack_chk_guard
	jne	L183
	add	esp, 124
LCFI86:
	.cfi_remember_state
	.cfi_def_cfa_offset 20
	pop	ebx
LCFI87:
	.cfi_restore 3
	.cfi_def_cfa_offset 16
	pop	esi
LCFI88:
	.cfi_restore 6
	.cfi_def_cfa_offset 12
	pop	edi
LCFI89:
	.cfi_restore 7
	.cfi_def_cfa_offset 8
	pop	ebp
LCFI90:
	.cfi_restore 5
	.cfi_def_cfa_offset 4
	ret
LVL189:
	.p2align 2,,3
L154:
LCFI91:
	.cfi_restore_state
	.loc 1 496 0
	mov	eax, DWORD PTR _plugin_dialog
	mov	DWORD PTR [esp], eax
	call	_purple_request_close_with_handle
LVL190:
	.loc 1 497 0
	mov	eax, DWORD PTR _plugin_dialog
	mov	DWORD PTR [esp], eax
	call	_purple_signals_disconnect_by_handle
LVL191:
	.loc 1 498 0
	mov	DWORD PTR [esp], ebx
	call	_gtk_widget_destroy
LVL192:
	.loc 1 499 0
	mov	eax, DWORD PTR _plugin_pref_dialogs
	test	eax, eax
	je	L156
	.loc 1 500 0
	mov	DWORD PTR [esp], eax
	call	_g_hash_table_destroy
LVL193:
	.loc 1 501 0
	mov	DWORD PTR _plugin_pref_dialogs, 0
L156:
	.loc 1 503 0
	mov	DWORD PTR _plugin_dialog, 0
	.loc 1 504 0
	jmp	L152
	.p2align 2,,3
L155:
	.loc 1 506 0
	lea	esi, [esp+64]
	mov	DWORD PTR [esp+8], esi
	lea	eax, [esp+60]
	mov	DWORD PTR [esp+4], eax
	mov	DWORD PTR [esp], edx
	call	_gtk_tree_selection_get_selected
LVL194:
	test	eax, eax
	je	L152
	.loc 1 508 0
	mov	DWORD PTR [esp+80], 0
	.loc 1 509 0
	lea	edi, [esp+80]
	mov	DWORD PTR [esp+12], edi
	mov	DWORD PTR [esp+8], 2
	mov	DWORD PTR [esp+4], esi
LVL195:
	mov	eax, DWORD PTR [esp+60]
	mov	DWORD PTR [esp], eax
	call	_gtk_tree_model_get_value
LVL196:
	.loc 1 510 0
	mov	DWORD PTR [esp], edi
	call	_g_value_get_pointer
LVL197:
	mov	esi, eax
LVL198:
	.loc 1 511 0
	test	eax, eax
	je	L152
	.loc 1 513 0
	mov	eax, DWORD PTR _plugin_pref_dialogs
LVL199:
	test	eax, eax
	je	L162
	.loc 1 514 0 discriminator 1
	mov	DWORD PTR [esp+4], esi
	mov	DWORD PTR [esp], eax
	call	_g_hash_table_lookup
LVL200:
	.loc 1 513 0 discriminator 1
	test	eax, eax
	jne	L152
L162:
	.loc 1 516 0
	mov	DWORD PTR [esp], esi
	call	_pidgin_plugin_get_config_frame
LVL201:
	mov	ebp, eax
LVL202:
	.loc 1 517 0
	test	eax, eax
	je	L152
	.loc 1 520 0
	call	_gtk_window_get_type
LVL203:
	mov	DWORD PTR [esp+44], eax
	mov	DWORD PTR [esp+4], eax
	mov	DWORD PTR [esp], ebx
	call	_g_type_check_instance_cast
LVL204:
	mov	ebx, eax
	mov	DWORD PTR [esp+4], OFFSET FLAT:LC14
	mov	DWORD PTR [esp], OFFSET FLAT:LC3
	call	_libintl_dgettext
LVL205:
	mov	DWORD PTR [esp+20], 0
	mov	DWORD PTR [esp+16], -7
	mov	DWORD PTR [esp+12], OFFSET FLAT:LC15
	mov	DWORD PTR [esp+8], 6
	mov	DWORD PTR [esp+4], ebx
	mov	DWORD PTR [esp], eax
	call	_gtk_dialog_new_with_buttons
LVL206:
	mov	ebx, eax
LVL207:
	.loc 1 524 0
	mov	eax, DWORD PTR _plugin_pref_dialogs
LVL208:
	test	eax, eax
	je	L184
L163:
	.loc 1 527 0
	mov	DWORD PTR [esp+8], ebx
	mov	DWORD PTR [esp+4], esi
	mov	DWORD PTR [esp], eax
	call	_g_hash_table_insert
LVL209:
	.loc 1 529 0
	mov	DWORD PTR [esp+4], 80
	mov	DWORD PTR [esp], ebx
	call	_g_type_check_instance_cast
LVL210:
	mov	DWORD PTR [esp+20], 0
	mov	DWORD PTR [esp+16], 0
	mov	DWORD PTR [esp+12], esi
	mov	DWORD PTR [esp+8], OFFSET FLAT:_pref_dialog_response_cb
	mov	DWORD PTR [esp+4], OFFSET FLAT:LC16
	mov	DWORD PTR [esp], eax
	call	_g_signal_connect_data
LVL211:
	.loc 1 530 0
	mov	DWORD PTR [esp+20], 400
	mov	DWORD PTR [esp+16], 400
	mov	DWORD PTR [esp+12], 1
	mov	DWORD PTR [esp+8], 1
	mov	DWORD PTR [esp+4], 1
	mov	DWORD PTR [esp], ebp
	call	_pidgin_make_scrollable
LVL212:
	mov	ebp, eax
LVL213:
	call	_gtk_container_get_type
LVL214:
	mov	DWORD PTR [esp+40], eax
	call	_gtk_dialog_get_type
LVL215:
	mov	DWORD PTR [esp+4], eax
	mov	DWORD PTR [esp], ebx
	call	_g_type_check_instance_cast
LVL216:
	mov	ecx, DWORD PTR [esp+40]
	mov	DWORD PTR [esp+4], ecx
	mov	eax, DWORD PTR [eax+148]
	mov	DWORD PTR [esp], eax
	call	_g_type_check_instance_cast
LVL217:
	mov	DWORD PTR [esp+4], ebp
	mov	DWORD PTR [esp], eax
	call	_gtk_container_add
LVL218:
	.loc 1 533 0
	mov	eax, DWORD PTR [esp+44]
	mov	DWORD PTR [esp+4], eax
	mov	DWORD PTR [esp], ebx
	call	_g_type_check_instance_cast
LVL219:
	mov	DWORD PTR [esp+4], OFFSET FLAT:LC17
	mov	DWORD PTR [esp], eax
	call	_gtk_window_set_role
LVL220:
	.loc 1 534 0
	mov	DWORD PTR [esp], esi
	call	_purple_plugin_get_name
LVL221:
	mov	DWORD PTR [esp+4], eax
	mov	DWORD PTR [esp], OFFSET FLAT:LC3
	call	_libintl_dgettext
LVL222:
	mov	ebp, eax
	mov	eax, DWORD PTR [esp+44]
	mov	DWORD PTR [esp+4], eax
	mov	DWORD PTR [esp], ebx
	call	_g_type_check_instance_cast
LVL223:
	mov	DWORD PTR [esp+4], ebp
	mov	DWORD PTR [esp], eax
	call	_gtk_window_set_title
LVL224:
	.loc 1 535 0
	mov	DWORD PTR [esp], ebx
	call	_gtk_widget_show_all
LVL225:
	.loc 1 536 0
	mov	DWORD PTR [esp], edi
	call	_g_value_unset
LVL226:
	.loc 1 537 0
	jmp	L152
LVL227:
L184:
	.loc 1 525 0
	mov	DWORD PTR [esp+4], 0
	mov	DWORD PTR [esp], 0
	call	_g_hash_table_new
LVL228:
	mov	DWORD PTR _plugin_pref_dialogs, eax
	jmp	L163
LVL229:
L183:
	.loc 1 539 0
	call	___stack_chk_fail
LVL230:
	.cfi_endproc
LFE105:
	.p2align 2,,3
	.def	_show_plugin_prefs_cb;	.scl	3;	.type	32;	.endef
_show_plugin_prefs_cb:
LFB106:
	.loc 1 543 0
	.cfi_startproc
LVL231:
	push	edi
LCFI92:
	.cfi_def_cfa_offset 8
	.cfi_offset 7, -8
	push	esi
LCFI93:
	.cfi_def_cfa_offset 12
	.cfi_offset 6, -12
	push	ebx
LCFI94:
	.cfi_def_cfa_offset 16
	.cfi_offset 3, -16
	sub	esp, 64
LCFI95:
	.cfi_def_cfa_offset 80
	mov	edi, DWORD PTR [esp+92]
	.loc 1 543 0
	mov	eax, DWORD PTR ___stack_chk_guard
	mov	DWORD PTR [esp+60], eax
	xor	eax, eax
	.loc 1 549 0
	mov	eax, DWORD PTR [esp+80]
	mov	DWORD PTR [esp], eax
	call	_gtk_tree_view_get_selection
LVL232:
	mov	esi, eax
LVL233:
	.loc 1 551 0
	lea	ebx, [esp+44]
	mov	DWORD PTR [esp+8], ebx
	lea	eax, [esp+40]
LVL234:
	mov	DWORD PTR [esp+4], eax
	mov	DWORD PTR [esp], esi
	call	_gtk_tree_selection_get_selected
LVL235:
	test	eax, eax
	jne	L196
LVL236:
L185:
	.loc 1 561 0
	mov	eax, DWORD PTR [esp+60]
	xor	eax, DWORD PTR ___stack_chk_guard
	jne	L197
	add	esp, 64
LCFI96:
	.cfi_remember_state
	.cfi_def_cfa_offset 16
	pop	ebx
LCFI97:
	.cfi_restore 3
	.cfi_def_cfa_offset 12
	pop	esi
LCFI98:
	.cfi_restore 6
	.cfi_def_cfa_offset 8
LVL237:
	pop	edi
LCFI99:
	.cfi_restore 7
	.cfi_def_cfa_offset 4
	ret
LVL238:
	.p2align 2,,3
L196:
LCFI100:
	.cfi_restore_state
	.loc 1 554 0
	mov	DWORD PTR [esp+16], -1
	lea	eax, [esp+36]
	mov	DWORD PTR [esp+12], eax
	mov	DWORD PTR [esp+8], 2
	mov	DWORD PTR [esp+4], ebx
LVL239:
	mov	eax, DWORD PTR [esp+40]
	mov	DWORD PTR [esp], eax
	call	_gtk_tree_model_get
LVL240:
	.loc 1 556 0
	mov	eax, DWORD PTR [esp+36]
	mov	DWORD PTR [esp], eax
	call	_purple_plugin_is_loaded
LVL241:
	test	eax, eax
	je	L185
	.loc 1 560 0
	mov	DWORD PTR [esp+8], esi
	mov	DWORD PTR [esp+4], 98121
	mov	DWORD PTR [esp], edi
	call	_plugin_dialog_response_cb
LVL242:
	jmp	L185
L197:
	.loc 1 561 0
	call	___stack_chk_fail
LVL243:
	.cfi_endproc
LFE106:
	.section .rdata,"dr"
LC18:
	.ascii "/pidgin/plugins/loaded\0"
	.text
	.p2align 2,,3
	.globl	_pidgin_plugins_save
	.def	_pidgin_plugins_save;	.scl	2;	.type	32;	.endef
_pidgin_plugins_save:
LFB94:
	.loc 1 100 0
	.cfi_startproc
	sub	esp, 44
LCFI101:
	.cfi_def_cfa_offset 48
	.loc 1 100 0
	mov	eax, DWORD PTR ___stack_chk_guard
	mov	DWORD PTR [esp+28], eax
	xor	eax, eax
	.loc 1 101 0
	mov	DWORD PTR [esp], OFFSET FLAT:LC18
	call	_purple_plugins_save_loaded
LVL244:
	.loc 1 102 0
	mov	eax, DWORD PTR [esp+28]
	xor	eax, DWORD PTR ___stack_chk_guard
	jne	L201
	add	esp, 44
LCFI102:
	.cfi_remember_state
	.cfi_def_cfa_offset 4
	ret
L201:
LCFI103:
	.cfi_restore_state
	call	___stack_chk_fail
LVL245:
	.cfi_endproc
LFE94:
	.section .rdata,"dr"
LC19:
	.ascii "Could not unload plugin\0"
	.align 4
LC20:
	.ascii "The plugin could not be unloaded now, but will be disabled at the next startup.\0"
LC21:
	.ascii "%s\12\12%s\0"
	.align 4
LC22:
	.ascii "<b>%s</b> %s\12<span weight=\"bold\" color=\"red\"%s</span>\0"
	.align 4
LC23:
	.ascii "<span weight=\"bold\" color=\"red\">%s</span>\0"
	.text
	.p2align 2,,3
	.def	_plugin_toggled_stage_two;	.scl	3;	.type	32;	.endef
_plugin_toggled_stage_two:
LFB102:
	.loc 1 317 0
	.cfi_startproc
LVL246:
	push	ebp
LCFI104:
	.cfi_def_cfa_offset 8
	.cfi_offset 5, -8
	push	edi
LCFI105:
	.cfi_def_cfa_offset 12
	.cfi_offset 7, -12
	push	esi
LCFI106:
	.cfi_def_cfa_offset 16
	.cfi_offset 6, -16
	push	ebx
LCFI107:
	.cfi_def_cfa_offset 20
	.cfi_offset 3, -20
	sub	esp, 76
LCFI108:
	.cfi_def_cfa_offset 96
	mov	ebx, eax
	mov	DWORD PTR [esp+44], edx
	mov	DWORD PTR [esp+40], ecx
	.loc 1 317 0
	mov	eax, DWORD PTR ___stack_chk_guard
	mov	DWORD PTR [esp+60], eax
	xor	eax, eax
LVL247:
	.loc 1 318 0
	mov	ecx, DWORD PTR [esp+96]
LVL248:
	test	ecx, ecx
	jne	L226
LVL249:
L203:
	.loc 1 345 0
	mov	DWORD PTR [esp], ebx
	call	_purple_plugin_is_loaded
LVL250:
	.loc 1 344 0
	test	eax, eax
	je	L215
	.loc 1 346 0 discriminator 1
	mov	eax, DWORD PTR [ebx+16]
	.loc 1 344 0 discriminator 1
	test	eax, eax
	je	L208
	.loc 1 346 0
	mov	ebp, DWORD PTR [eax+72]
	test	ebp, ebp
	je	L208
	.loc 1 346 0 is_stmt 0 discriminator 1
	mov	esi, DWORD PTR [eax+16]
	mov	edi, OFFSET FLAT:LC4
	mov	ecx, 9
	repe cmpsb
	je	L227
L208:
	.loc 1 348 0 is_stmt 1
	mov	eax, DWORD PTR [eax+80]
	test	eax, eax
	je	L215
	.loc 1 349 0
	mov	ebp, DWORD PTR [eax]
	test	ebp, ebp
	je	L215
L209:
	.loc 1 344 0
	mov	eax, 1
	jmp	L207
	.p2align 2,,3
L215:
	xor	eax, eax
L207:
	.loc 1 344 0 is_stmt 0 discriminator 3
	mov	DWORD PTR [esp+4], eax
	mov	eax, DWORD PTR _pref_button
	mov	DWORD PTR [esp], eax
	call	_gtk_widget_set_sensitive
LVL251:
	.loc 1 351 0 is_stmt 1 discriminator 3
	mov	edi, DWORD PTR [ebx+20]
	test	edi, edi
	je	L228
LBB8:
	.loc 1 353 0
	mov	DWORD PTR [esp], ebx
	call	_purple_plugin_get_name
LVL252:
	mov	DWORD PTR [esp+4], -1
	mov	DWORD PTR [esp], eax
	call	_g_markup_escape_text
LVL253:
	mov	edx, eax
LVL254:
	.loc 1 355 0
	mov	DWORD PTR [esp+4], -1
	mov	eax, DWORD PTR [ebx+20]
LVL255:
	mov	DWORD PTR [esp], eax
	mov	DWORD PTR [esp+36], edx
	call	_g_markup_escape_text
LVL256:
	mov	esi, eax
LVL257:
	.loc 1 358 0
	mov	DWORD PTR [esp], ebx
	call	_purple_plugin_get_version
LVL258:
	mov	edi, eax
	mov	DWORD PTR [esp], ebx
	call	_purple_plugin_get_name
LVL259:
	mov	DWORD PTR [esp+12], esi
	mov	DWORD PTR [esp+8], edi
	mov	DWORD PTR [esp+4], eax
	mov	DWORD PTR [esp], OFFSET FLAT:LC22
	call	_g_strdup_printf
LVL260:
	mov	ebp, eax
LVL261:
	.loc 1 361 0
	call	_gtk_list_store_get_type
LVL262:
	mov	edi, eax
	mov	DWORD PTR [esp+4], eax
	mov	ecx, DWORD PTR [esp+44]
	mov	DWORD PTR [esp], ecx
	call	_g_type_check_instance_cast
LVL263:
	mov	DWORD PTR [esp+16], -1
	mov	DWORD PTR [esp+12], ebp
	mov	DWORD PTR [esp+8], 1
	mov	ecx, DWORD PTR [esp+40]
	mov	DWORD PTR [esp+4], ecx
	mov	DWORD PTR [esp], eax
	call	_gtk_list_store_set
LVL264:
	.loc 1 364 0
	mov	DWORD PTR [esp], ebp
	call	_g_free
LVL265:
	.loc 1 366 0
	mov	DWORD PTR [esp+4], esi
	mov	DWORD PTR [esp], OFFSET FLAT:LC23
	call	_g_strdup_printf
LVL266:
	mov	ebp, eax
LVL267:
	.loc 1 369 0
	mov	DWORD PTR [esp+4], eax
	mov	eax, DWORD PTR _plugin_error
LVL268:
	mov	DWORD PTR [esp], eax
	call	_gtk_label_set_markup
LVL269:
	.loc 1 370 0
	mov	DWORD PTR [esp], ebp
	call	_g_free
LVL270:
	.loc 1 372 0
	mov	DWORD PTR [esp], esi
	call	_g_free
LVL271:
	.loc 1 373 0
	mov	edx, DWORD PTR [esp+36]
	mov	DWORD PTR [esp], edx
	call	_g_free
LVL272:
L211:
LBE8:
	.loc 1 376 0
	mov	DWORD PTR [esp], ebx
	call	_purple_plugin_is_loaded
LVL273:
	mov	ebx, eax
LVL274:
	mov	DWORD PTR [esp+4], edi
	mov	edx, DWORD PTR [esp+44]
	mov	DWORD PTR [esp], edx
	call	_g_type_check_instance_cast
LVL275:
	mov	DWORD PTR [esp+16], -1
	mov	DWORD PTR [esp+12], ebx
	mov	DWORD PTR [esp+8], 0
	mov	ecx, DWORD PTR [esp+40]
	mov	DWORD PTR [esp+4], ecx
	mov	DWORD PTR [esp], eax
	call	_gtk_list_store_set
LVL276:
	.loc 1 379 0
	mov	ecx, DWORD PTR [esp+40]
	mov	DWORD PTR [esp], ecx
	call	_g_free
LVL277:
	.loc 1 381 0
	mov	eax, DWORD PTR [esp+60]
	xor	eax, DWORD PTR ___stack_chk_guard
	jne	L229
	.loc 1 382 0
	add	esp, 76
LCFI109:
	.cfi_remember_state
	.cfi_def_cfa_offset 20
	pop	ebx
LCFI110:
	.cfi_restore 3
	.cfi_def_cfa_offset 16
	pop	esi
LCFI111:
	.cfi_restore 6
	.cfi_def_cfa_offset 12
	pop	edi
LCFI112:
	.cfi_restore 7
	.cfi_def_cfa_offset 8
	pop	ebp
LCFI113:
	.cfi_restore 5
	.cfi_def_cfa_offset 4
	.loc 1 381 0
	jmp	_pidgin_plugins_save
LVL278:
	.p2align 2,,3
L226:
LCFI114:
	.cfi_restore_state
	.loc 1 320 0
	mov	DWORD PTR [esp+4], 150
	mov	eax, DWORD PTR _plugin_dialog
	mov	DWORD PTR [esp], eax
	call	_pidgin_set_cursor
LVL279:
	.loc 1 322 0
	mov	DWORD PTR [esp], ebx
	call	_purple_plugin_unload
LVL280:
	test	eax, eax
	je	L230
L204:
	.loc 1 341 0
	mov	eax, DWORD PTR _plugin_dialog
	mov	DWORD PTR [esp], eax
	call	_pidgin_clear_cursor
LVL281:
	jmp	L203
	.p2align 2,,3
L228:
	.loc 1 316 0
	call	_gtk_list_store_get_type
LVL282:
	mov	edi, eax
	jmp	L211
	.p2align 2,,3
L227:
	.loc 1 347 0
	mov	edx, DWORD PTR [ebp+0]
	test	edx, edx
	jne	L209
	jmp	L208
	.p2align 2,,3
L230:
LBB9:
	.loc 1 324 0
	mov	DWORD PTR [esp+4], OFFSET FLAT:LC19
	mov	DWORD PTR [esp], OFFSET FLAT:LC3
	call	_libintl_dgettext
LVL283:
	mov	esi, eax
LVL284:
	.loc 1 325 0
	mov	DWORD PTR [esp+4], OFFSET FLAT:LC20
	mov	DWORD PTR [esp], OFFSET FLAT:LC3
	call	_libintl_dgettext
LVL285:
	.loc 1 327 0
	mov	edx, DWORD PTR [ebx+20]
	test	edx, edx
	je	L231
LBB10:
	.loc 1 333 0
	mov	DWORD PTR [esp+8], edx
	mov	DWORD PTR [esp+4], eax
	mov	DWORD PTR [esp], OFFSET FLAT:LC21
	call	_g_strdup_printf
LVL286:
	mov	edi, eax
LVL287:
	.loc 1 334 0
	mov	DWORD PTR [esp+24], 0
	mov	DWORD PTR [esp+20], 0
	mov	DWORD PTR [esp+16], eax
	mov	DWORD PTR [esp+12], esi
	mov	DWORD PTR [esp+8], 0
	mov	DWORD PTR [esp+4], 1
	mov	DWORD PTR [esp], 0
	call	_purple_notify_message
LVL288:
	.loc 1 335 0
	mov	DWORD PTR [esp], edi
	call	_g_free
LVL289:
L206:
LBE10:
	.loc 1 338 0
	mov	DWORD PTR [esp], ebx
	call	_purple_plugin_disable
LVL290:
	jmp	L204
LVL291:
	.p2align 2,,3
L231:
	.loc 1 329 0
	mov	DWORD PTR [esp+24], 0
	mov	DWORD PTR [esp+20], 0
	mov	DWORD PTR [esp+16], eax
	mov	DWORD PTR [esp+12], esi
	mov	DWORD PTR [esp+8], 0
	mov	DWORD PTR [esp+4], 1
	mov	DWORD PTR [esp], 0
	call	_purple_notify_message
LVL292:
	jmp	L206
LVL293:
L229:
LBE9:
	.loc 1 381 0
	call	___stack_chk_fail
LVL294:
	.cfi_endproc
LFE102:
	.section .rdata,"dr"
	.align 4
LC24:
	.ascii "The following plugins will be unloaded.\0"
LC25:
	.ascii "Cancel\0"
LC26:
	.ascii "Unload Plugins\0"
	.align 4
LC27:
	.ascii "Multiple plugins will be unloaded.\0"
LC28:
	.ascii "dep_plugin != NULL\0"
LC29:
	.ascii "\12\11%s\12\0"
	.text
	.p2align 2,,3
	.def	_plugin_toggled;	.scl	3;	.type	32;	.endef
_plugin_toggled:
LFB101:
	.loc 1 249 0
	.cfi_startproc
LVL295:
	push	ebp
LCFI115:
	.cfi_def_cfa_offset 8
	.cfi_offset 5, -8
	push	edi
LCFI116:
	.cfi_def_cfa_offset 12
	.cfi_offset 7, -12
	push	esi
LCFI117:
	.cfi_def_cfa_offset 16
	.cfi_offset 6, -16
	push	ebx
LCFI118:
	.cfi_def_cfa_offset 20
	.cfi_offset 3, -20
	sub	esp, 108
LCFI119:
	.cfi_def_cfa_offset 128
	mov	ebx, DWORD PTR [esp+132]
	mov	ebp, DWORD PTR [esp+136]
	.loc 1 249 0
	mov	eax, DWORD PTR ___stack_chk_guard
	mov	DWORD PTR [esp+92], eax
	xor	eax, eax
LVL296:
	.loc 1 251 0
	mov	DWORD PTR [esp], 16
	call	_g_malloc
LVL297:
	mov	edi, eax
LVL298:
	.loc 1 252 0
	mov	DWORD PTR [esp], ebx
	call	_gtk_tree_path_new_from_string
LVL299:
	mov	ebx, eax
LVL300:
	.loc 1 256 0
	mov	DWORD PTR [esp+8], eax
	mov	DWORD PTR [esp+4], edi
	mov	DWORD PTR [esp], ebp
	call	_gtk_tree_model_get_iter
LVL301:
	.loc 1 257 0
	mov	DWORD PTR [esp], ebx
	call	_gtk_tree_path_free
LVL302:
	.loc 1 258 0
	mov	DWORD PTR [esp+16], -1
	lea	eax, [esp+88]
	mov	DWORD PTR [esp+12], eax
	mov	DWORD PTR [esp+8], 2
	mov	DWORD PTR [esp+4], edi
	mov	DWORD PTR [esp], ebp
	call	_gtk_tree_model_get
LVL303:
	.loc 1 261 0
	mov	eax, DWORD PTR [esp+88]
	mov	DWORD PTR [esp], eax
	call	_purple_plugin_is_unloadable
LVL304:
	test	eax, eax
	je	L233
	.loc 1 263 0
	mov	DWORD PTR [esp], edi
	call	_g_free
LVL305:
L232:
	.loc 1 314 0
	mov	eax, DWORD PTR [esp+92]
	xor	eax, DWORD PTR ___stack_chk_guard
	jne	L257
	add	esp, 108
LCFI120:
	.cfi_remember_state
	.cfi_def_cfa_offset 20
	pop	ebx
LCFI121:
	.cfi_restore 3
	.cfi_def_cfa_offset 16
	pop	esi
LCFI122:
	.cfi_restore 6
	.cfi_def_cfa_offset 12
	pop	edi
LCFI123:
	.cfi_restore 7
	.cfi_def_cfa_offset 8
	pop	ebp
LCFI124:
	.cfi_restore 5
	.cfi_def_cfa_offset 4
	ret
LVL306:
	.p2align 2,,3
L233:
LCFI125:
	.cfi_restore_state
	.loc 1 267 0
	mov	eax, DWORD PTR [esp+88]
	mov	DWORD PTR [esp], eax
	call	_purple_plugin_is_loaded
LVL307:
	test	eax, eax
	je	L258
	.loc 1 278 0
	mov	eax, DWORD PTR _plugin_pref_dialogs
	test	eax, eax
	je	L238
	.loc 1 278 0 is_stmt 0 discriminator 1
	mov	edx, DWORD PTR [esp+88]
	mov	DWORD PTR [esp+4], edx
	mov	DWORD PTR [esp], eax
	call	_g_hash_table_lookup
LVL308:
	test	eax, eax
	je	L238
LVL309:
	mov	edx, DWORD PTR [esp+88]
	call	_pref_dialog_response_cb.part.0
LVL310:
L238:
	.loc 1 282 0 is_stmt 1
	mov	eax, DWORD PTR [esp+88]
	mov	ebx, DWORD PTR [eax+36]
LVL311:
	test	ebx, ebx
	je	L240
LBB16:
	.loc 1 284 0
	mov	DWORD PTR [esp+4], OFFSET FLAT:LC24
	mov	DWORD PTR [esp], OFFSET FLAT:LC3
	call	_libintl_dgettext
LVL312:
	mov	DWORD PTR [esp], eax
	call	_g_string_new
LVL313:
	mov	esi, eax
LVL314:
	.loc 1 288 0
	mov	eax, DWORD PTR [esp+88]
LVL315:
	mov	ebx, DWORD PTR [eax+36]
LVL316:
	test	ebx, ebx
	jne	L251
	jmp	L241
LVL317:
	.p2align 2,,3
L242:
LBB17:
	.loc 1 294 0
	mov	DWORD PTR [esp], eax
	call	_purple_plugin_get_name
LVL318:
	mov	DWORD PTR [esp+8], eax
	mov	DWORD PTR [esp+4], OFFSET FLAT:LC29
	mov	DWORD PTR [esp], esi
	call	_g_string_append_printf
LVL319:
LBE17:
	.loc 1 288 0
	mov	ebx, DWORD PTR [ebx+4]
LVL320:
	test	ebx, ebx
	je	L241
LVL321:
L251:
LBB19:
	.loc 1 291 0
	mov	eax, DWORD PTR [ebx]
	mov	DWORD PTR [esp], eax
	call	_purple_plugins_find_with_id
LVL322:
LBB18:
	.loc 1 292 0
	test	eax, eax
	jne	L242
LVL323:
LBE18:
	mov	DWORD PTR [esp+8], OFFSET FLAT:LC28
	mov	DWORD PTR [esp+4], OFFSET FLAT:___PRETTY_FUNCTION__.77397
	mov	DWORD PTR [esp], 0
	call	_g_return_if_fail_warning
LVL324:
	jmp	L232
LVL325:
	.p2align 2,,3
L241:
LBE19:
	.loc 1 297 0
	mov	DWORD PTR [esp], 12
	call	_g_malloc
LVL326:
	mov	ebx, eax
LVL327:
	.loc 1 298 0
	mov	eax, DWORD PTR [esp+88]
LVL328:
	mov	DWORD PTR [ebx], eax
	.loc 1 299 0
	mov	DWORD PTR [ebx+4], ebp
	.loc 1 300 0
	mov	DWORD PTR [ebx+8], edi
	.loc 1 308 0
	mov	DWORD PTR [esp+4], OFFSET FLAT:LC25
	mov	DWORD PTR [esp], OFFSET FLAT:LC3
	call	_libintl_dgettext
LVL329:
	.loc 1 307 0
	mov	DWORD PTR [esp+4], OFFSET FLAT:LC26
	mov	DWORD PTR [esp], OFFSET FLAT:LC3
	mov	DWORD PTR [esp+76], eax
	call	_libintl_dgettext
LVL330:
	mov	ebp, eax
LVL331:
	.loc 1 304 0
	mov	edi, DWORD PTR [esi]
LVL332:
	.loc 1 303 0
	mov	DWORD PTR [esp+4], OFFSET FLAT:LC27
	mov	DWORD PTR [esp], OFFSET FLAT:LC3
	call	_libintl_dgettext
LVL333:
	.loc 1 302 0
	mov	DWORD PTR [esp+52], OFFSET FLAT:_g_free
	mov	edx, DWORD PTR [esp+76]
	mov	DWORD PTR [esp+48], edx
	mov	DWORD PTR [esp+44], OFFSET FLAT:_plugin_unload_confirm_cb
	mov	DWORD PTR [esp+40], ebp
	mov	DWORD PTR [esp+36], 2
	mov	DWORD PTR [esp+32], ebx
	mov	DWORD PTR [esp+28], 0
	mov	DWORD PTR [esp+24], 0
	mov	DWORD PTR [esp+20], 0
	mov	DWORD PTR [esp+16], 0
	mov	DWORD PTR [esp+12], edi
	mov	DWORD PTR [esp+8], eax
	mov	DWORD PTR [esp+4], 0
	mov	eax, DWORD PTR _plugin_dialog
	mov	DWORD PTR [esp], eax
	call	_purple_request_action
LVL334:
	.loc 1 309 0
	mov	DWORD PTR [esp+4], 1
	mov	DWORD PTR [esp], esi
	call	_g_string_free
LVL335:
	jmp	L232
LVL336:
	.p2align 2,,3
L258:
LBE16:
	.loc 1 269 0
	mov	DWORD PTR [esp+4], 150
	mov	eax, DWORD PTR _plugin_dialog
	mov	DWORD PTR [esp], eax
	call	_pidgin_set_cursor
LVL337:
	.loc 1 271 0
	mov	eax, DWORD PTR [esp+88]
	mov	DWORD PTR [esp], eax
	call	_purple_plugin_load
LVL338:
	.loc 1 272 0
	mov	DWORD PTR [esp], 0
	mov	ecx, edi
	mov	edx, ebp
	mov	eax, DWORD PTR [esp+88]
	call	_plugin_toggled_stage_two
LVL339:
	.loc 1 274 0
	mov	eax, DWORD PTR _plugin_dialog
	mov	DWORD PTR [esp], eax
	call	_pidgin_clear_cursor
LVL340:
	jmp	L232
LVL341:
L240:
	.loc 1 312 0
	mov	DWORD PTR [esp], 1
	mov	ecx, edi
	mov	edx, ebp
	call	_plugin_toggled_stage_two
LVL342:
	jmp	L232
LVL343:
L257:
	.loc 1 314 0
	call	___stack_chk_fail
LVL344:
	.cfi_endproc
LFE101:
	.p2align 2,,3
	.def	_plugin_unload_confirm_cb;	.scl	3;	.type	32;	.endef
_plugin_unload_confirm_cb:
LFB100:
	.loc 1 238 0
	.cfi_startproc
LVL345:
	push	ebx
LCFI126:
	.cfi_def_cfa_offset 8
	.cfi_offset 3, -8
	sub	esp, 40
LCFI127:
	.cfi_def_cfa_offset 48
	mov	ebx, DWORD PTR [esp+48]
	.loc 1 238 0
	mov	eax, DWORD PTR ___stack_chk_guard
	mov	DWORD PTR [esp+28], eax
	xor	eax, eax
LVL346:
	.loc 1 243 0
	mov	ecx, DWORD PTR [ebx+8]
	mov	edx, DWORD PTR [ebx+4]
	mov	DWORD PTR [esp], 1
	mov	eax, DWORD PTR [ebx]
	call	_plugin_toggled_stage_two
LVL347:
	.loc 1 245 0
	mov	eax, DWORD PTR [esp+28]
	xor	eax, DWORD PTR ___stack_chk_guard
	jne	L263
	mov	DWORD PTR [esp+48], ebx
	.loc 1 246 0
	add	esp, 40
LCFI128:
	.cfi_remember_state
	.cfi_def_cfa_offset 8
	pop	ebx
LCFI129:
	.cfi_restore 3
	.cfi_def_cfa_offset 4
	.loc 1 245 0
	jmp	_g_free
LVL348:
L263:
LCFI130:
	.cfi_restore_state
	call	___stack_chk_fail
LVL349:
	.cfi_endproc
LFE100:
	.section .rdata,"dr"
LC30:
	.ascii "Plugins\0"
LC31:
	.ascii "Configure Pl_ugin\0"
LC32:
	.ascii "plugins\0"
LC33:
	.ascii "dll\0"
LC34:
	.ascii "row-activated\0"
LC35:
	.ascii "plugin-load\0"
LC36:
	.ascii "plugin-unload\0"
LC37:
	.ascii "Enabled\0"
LC38:
	.ascii "active\0"
LC39:
	.ascii "toggled\0"
LC40:
	.ascii "#c0c0c0\0"
LC41:
	.ascii "foreground\0"
LC42:
	.ascii "Name\0"
LC43:
	.ascii "foreground-set\0"
LC44:
	.ascii "markup\0"
LC45:
	.ascii "ellipsize\0"
LC46:
	.ascii "<b>Plugin Details</b>\0"
LC47:
	.ascii "right-margin\0"
LC48:
	.ascii "left-margin\0"
LC49:
	.ascii "editable\0"
LC50:
	.ascii "wrap-mode\0"
LC51:
	.ascii "\0"
LC52:
	.ascii "<b>Written by:</b>\0"
LC53:
	.ascii "button-release-event\0"
LC54:
	.ascii "enter-notify-event\0"
LC55:
	.ascii "leave-notify-event\0"
LC56:
	.ascii "<b>Web site:</b>\0"
LC58:
	.ascii "<b>Filename:</b>\0"
LC59:
	.ascii "changed\0"
LC60:
	.ascii "<b>%s</b> %s\12%s\0"
	.text
	.p2align 2,,3
	.globl	_pidgin_plugin_dialog_show
	.def	_pidgin_plugin_dialog_show;	.scl	2;	.type	32;	.endef
_pidgin_plugin_dialog_show:
LFB112:
	.loc 1 710 0
	.cfi_startproc
	push	ebp
LCFI131:
	.cfi_def_cfa_offset 8
	.cfi_offset 5, -8
	push	edi
LCFI132:
	.cfi_def_cfa_offset 12
	.cfi_offset 7, -12
	push	esi
LCFI133:
	.cfi_def_cfa_offset 16
	.cfi_offset 6, -16
	push	ebx
LCFI134:
	.cfi_def_cfa_offset 20
	.cfi_offset 3, -20
	sub	esp, 124
LCFI135:
	.cfi_def_cfa_offset 144
	.loc 1 710 0
	mov	eax, DWORD PTR ___stack_chk_guard
	mov	DWORD PTR [esp+108], eax
	xor	eax, eax
	.loc 1 717 0
	mov	ebx, DWORD PTR _plugin_dialog
	test	ebx, ebx
	je	L265
	.loc 1 718 0
	call	_gtk_window_get_type
LVL350:
	mov	DWORD PTR [esp+4], eax
	mov	DWORD PTR [esp], ebx
	call	_g_type_check_instance_cast
LVL351:
	mov	DWORD PTR [esp], eax
	call	_gtk_window_present
LVL352:
L264:
	.loc 1 804 0
	mov	edx, DWORD PTR [esp+108]
	xor	edx, DWORD PTR ___stack_chk_guard
	jne	L284
	add	esp, 124
LCFI136:
	.cfi_remember_state
	.cfi_def_cfa_offset 20
	pop	ebx
LCFI137:
	.cfi_restore 3
	.cfi_def_cfa_offset 16
	pop	esi
LCFI138:
	.cfi_restore 6
	.cfi_def_cfa_offset 12
	pop	edi
LCFI139:
	.cfi_restore 7
	.cfi_def_cfa_offset 8
	pop	ebp
LCFI140:
	.cfi_restore 5
	.cfi_def_cfa_offset 4
	ret
LVL353:
	.p2align 2,,3
L265:
LCFI141:
	.cfi_restore_state
	.loc 1 722 0
	mov	DWORD PTR [esp+4], OFFSET FLAT:LC30
	mov	DWORD PTR [esp], OFFSET FLAT:LC3
	call	_libintl_dgettext
LVL354:
	mov	DWORD PTR [esp+12], 0
	mov	DWORD PTR [esp+8], 4
	mov	DWORD PTR [esp+4], 0
	mov	DWORD PTR [esp], eax
	call	_gtk_dialog_new_with_buttons
LVL355:
	mov	DWORD PTR _plugin_dialog, eax
	.loc 1 727 0
	mov	DWORD PTR [esp+4], OFFSET FLAT:LC31
	mov	DWORD PTR [esp], OFFSET FLAT:LC3
	call	_libintl_dgettext
LVL356:
	mov	ebx, eax
	.loc 1 726 0
	call	_gtk_dialog_get_type
LVL357:
	mov	DWORD PTR [esp+68], eax
	mov	DWORD PTR [esp+4], eax
	mov	eax, DWORD PTR _plugin_dialog
	mov	DWORD PTR [esp], eax
	call	_g_type_check_instance_cast
LVL358:
	mov	DWORD PTR [esp+8], 98121
	mov	DWORD PTR [esp+4], ebx
	mov	DWORD PTR [esp], eax
	call	_gtk_dialog_add_button
LVL359:
	mov	DWORD PTR _pref_button, eax
	.loc 1 728 0
	mov	eax, DWORD PTR [esp+68]
	mov	DWORD PTR [esp+4], eax
	mov	eax, DWORD PTR _plugin_dialog
	mov	DWORD PTR [esp], eax
	call	_g_type_check_instance_cast
LVL360:
	mov	DWORD PTR [esp+8], -7
	mov	DWORD PTR [esp+4], OFFSET FLAT:LC15
	mov	DWORD PTR [esp], eax
	call	_gtk_dialog_add_button
LVL361:
	.loc 1 730 0
	mov	DWORD PTR [esp+4], 0
	mov	eax, DWORD PTR _pref_button
	mov	DWORD PTR [esp], eax
	call	_gtk_widget_set_sensitive
LVL362:
	.loc 1 731 0
	call	_gtk_window_get_type
LVL363:
	mov	DWORD PTR [esp+72], eax
	mov	DWORD PTR [esp+4], eax
	mov	eax, DWORD PTR _plugin_dialog
	mov	DWORD PTR [esp], eax
	call	_g_type_check_instance_cast
LVL364:
	mov	DWORD PTR [esp+4], OFFSET FLAT:LC32
	mov	DWORD PTR [esp], eax
	call	_gtk_window_set_role
LVL365:
	.loc 1 733 0
	mov	DWORD PTR [esp+16], 20
	mov	DWORD PTR [esp+12], 68
	mov	DWORD PTR [esp+8], 64
	mov	DWORD PTR [esp+4], 20
	mov	DWORD PTR [esp], 4
	call	_gtk_list_store_new
LVL366:
	mov	DWORD PTR [esp+56], eax
LVL367:
	.loc 1 734 0
	call	_gtk_tree_sortable_get_type
LVL368:
	mov	DWORD PTR [esp+4], eax
	mov	eax, DWORD PTR [esp+56]
	mov	DWORD PTR [esp], eax
	call	_g_type_check_instance_cast
LVL369:
	mov	DWORD PTR [esp+8], 0
	mov	DWORD PTR [esp+4], 1
	mov	DWORD PTR [esp], eax
	call	_gtk_tree_sortable_set_sort_column_id
LVL370:
LBB27:
LBB28:
	.loc 1 107 0
	call	_gtk_list_store_get_type
LVL371:
	mov	DWORD PTR [esp+4], eax
	mov	eax, DWORD PTR [esp+56]
	mov	DWORD PTR [esp], eax
	call	_g_type_check_instance_cast
LVL372:
	mov	ebp, eax
LVL373:
	.loc 1 112 0
	mov	DWORD PTR [esp], eax
	call	_gtk_list_store_clear
LVL374:
	.loc 1 113 0
	mov	DWORD PTR [esp], OFFSET FLAT:LC33
	call	_purple_plugins_probe
LVL375:
	.loc 1 115 0
	call	_purple_plugins_get_all
LVL376:
	mov	ebx, eax
LVL377:
	test	eax, eax
	je	L276
	mov	DWORD PTR [esp+64], ebp
	jmp	L278
LVL378:
	.p2align 2,,3
L268:
LBB29:
	.loc 1 131 0
	test	eax, eax
	jne	L270
	test	BYTE PTR [ecx+20], 1
	je	L285
L270:
LBE29:
	.loc 1 117 0
	mov	ebx, DWORD PTR [ebx+4]
LVL379:
	.loc 1 115 0
	test	ebx, ebx
	je	L276
LVL380:
L278:
LBB32:
	.loc 1 123 0
	mov	ebp, DWORD PTR [ebx]
LVL381:
	.loc 1 125 0
	mov	ecx, DWORD PTR [ebp+16]
	mov	eax, DWORD PTR [ecx+12]
	cmp	eax, 1
	jne	L268
LBB30:
	.loc 1 127 0
	mov	eax, DWORD PTR [ecx+76]
	mov	esi, DWORD PTR [eax]
LVL382:
	test	esi, esi
	je	L270
	.p2align 2,,3
L279:
	.loc 1 129 0
	mov	eax, DWORD PTR [esi]
	mov	DWORD PTR [esp], eax
	call	_purple_plugins_probe
LVL383:
	.loc 1 128 0
	mov	esi, DWORD PTR [esi+4]
LVL384:
	.loc 1 127 0
	test	esi, esi
	jne	L279
LBE30:
LBE32:
	.loc 1 117 0
	mov	ebx, DWORD PTR [ebx+4]
LVL385:
	.loc 1 115 0
	test	ebx, ebx
	jne	L278
LVL386:
L276:
LBE28:
LBE27:
	.loc 1 739 0
	call	_gtk_tree_model_get_type
LVL387:
	mov	DWORD PTR [esp+4], eax
	mov	eax, DWORD PTR [esp+56]
	mov	DWORD PTR [esp], eax
	call	_g_type_check_instance_cast
LVL388:
	mov	DWORD PTR [esp], eax
	call	_gtk_tree_view_new_with_model
LVL389:
	mov	ebx, eax
LVL390:
	.loc 1 741 0
	call	_gtk_tree_view_get_type
LVL391:
	mov	esi, eax
	mov	DWORD PTR [esp+4], eax
	mov	DWORD PTR [esp], ebx
	call	_g_type_check_instance_cast
LVL392:
	mov	DWORD PTR [esp+4], 1
	mov	DWORD PTR [esp], eax
	call	_gtk_tree_view_set_rules_hint
LVL393:
	.loc 1 743 0
	mov	edi, DWORD PTR _plugin_dialog
	mov	DWORD PTR [esp+4], 80
	mov	DWORD PTR [esp], ebx
	call	_g_type_check_instance_cast
LVL394:
	mov	DWORD PTR [esp+20], 0
	mov	DWORD PTR [esp+16], 0
	mov	DWORD PTR [esp+12], edi
	mov	DWORD PTR [esp+8], OFFSET FLAT:_show_plugin_prefs_cb
	mov	DWORD PTR [esp+4], OFFSET FLAT:LC34
	mov	DWORD PTR [esp], eax
	call	_g_signal_connect_data
LVL395:
	.loc 1 746 0
	mov	edi, DWORD PTR _plugin_dialog
	call	_purple_plugins_get_handle
LVL396:
	mov	DWORD PTR [esp+16], ebx
	mov	DWORD PTR [esp+12], OFFSET FLAT:_plugin_load_cb
	mov	DWORD PTR [esp+8], edi
	mov	DWORD PTR [esp+4], OFFSET FLAT:LC35
	mov	DWORD PTR [esp], eax
	call	_purple_signal_connect
LVL397:
	.loc 1 748 0
	mov	edi, DWORD PTR _plugin_dialog
	call	_purple_plugins_get_handle
LVL398:
	mov	DWORD PTR [esp+16], ebx
	mov	DWORD PTR [esp+12], OFFSET FLAT:_plugin_unload_cb
	mov	DWORD PTR [esp+8], edi
	mov	DWORD PTR [esp+4], OFFSET FLAT:LC36
	mov	DWORD PTR [esp], eax
	call	_purple_signal_connect
LVL399:
	.loc 1 751 0
	call	_gtk_cell_renderer_toggle_new
LVL400:
	mov	edi, eax
LVL401:
	.loc 1 752 0
	mov	DWORD PTR [esp+4], esi
	mov	DWORD PTR [esp], ebx
	call	_g_type_check_instance_cast
LVL402:
	mov	DWORD PTR [esp], eax
	call	_gtk_tree_view_get_selection
LVL403:
	mov	DWORD PTR [esp+76], eax
LVL404:
	.loc 1 754 0
	mov	DWORD PTR [esp+4], OFFSET FLAT:LC37
	mov	DWORD PTR [esp], OFFSET FLAT:LC3
	call	_libintl_dgettext
LVL405:
	mov	DWORD PTR [esp+16], 0
	mov	DWORD PTR [esp+12], 0
	mov	DWORD PTR [esp+8], OFFSET FLAT:LC38
	mov	DWORD PTR [esp+4], edi
	mov	DWORD PTR [esp], eax
	call	_gtk_tree_view_column_new_with_attributes
LVL406:
	mov	ebp, eax
LVL407:
	.loc 1 758 0
	mov	DWORD PTR [esp+4], esi
	mov	DWORD PTR [esp], ebx
	call	_g_type_check_instance_cast
LVL408:
	mov	DWORD PTR [esp+4], ebp
	mov	DWORD PTR [esp], eax
	call	_gtk_tree_view_append_column
LVL409:
	.loc 1 759 0
	mov	DWORD PTR [esp+4], 0
	mov	DWORD PTR [esp], ebp
	call	_gtk_tree_view_column_set_sort_column_id
LVL410:
	.loc 1 760 0
	mov	DWORD PTR [esp+4], 80
	mov	DWORD PTR [esp], edi
	call	_g_type_check_instance_cast
LVL411:
	mov	DWORD PTR [esp+20], 0
	mov	DWORD PTR [esp+16], 0
	mov	edx, DWORD PTR [esp+56]
	mov	DWORD PTR [esp+12], edx
	mov	DWORD PTR [esp+8], OFFSET FLAT:_plugin_toggled
	mov	DWORD PTR [esp+4], OFFSET FLAT:LC39
	mov	DWORD PTR [esp], eax
	call	_g_signal_connect_data
LVL412:
	.loc 1 763 0
	call	_gtk_cell_renderer_text_new
LVL413:
	mov	ebp, eax
LVL414:
	.loc 1 764 0
	mov	DWORD PTR [esp+12], 0
	mov	DWORD PTR [esp+8], OFFSET FLAT:LC40
	mov	DWORD PTR [esp+4], OFFSET FLAT:LC41
	mov	DWORD PTR [esp], eax
	call	_g_object_set
LVL415:
	.loc 1 767 0
	mov	DWORD PTR [esp+4], OFFSET FLAT:LC42
	mov	DWORD PTR [esp], OFFSET FLAT:LC3
	call	_libintl_dgettext
LVL416:
	mov	DWORD PTR [esp+24], 0
	mov	DWORD PTR [esp+20], 3
	mov	DWORD PTR [esp+16], OFFSET FLAT:LC43
	mov	DWORD PTR [esp+12], 1
	mov	DWORD PTR [esp+8], OFFSET FLAT:LC44
	mov	DWORD PTR [esp+4], ebp
	mov	DWORD PTR [esp], eax
	call	_gtk_tree_view_column_new_with_attributes
LVL417:
	mov	edi, eax
LVL418:
	.loc 1 772 0
	mov	DWORD PTR [esp+4], 1
	mov	DWORD PTR [esp], eax
	call	_gtk_tree_view_column_set_expand
LVL419:
	.loc 1 773 0
	mov	DWORD PTR [esp+12], 0
	mov	DWORD PTR [esp+8], 3
	mov	DWORD PTR [esp+4], OFFSET FLAT:LC45
	mov	DWORD PTR [esp], ebp
	call	_g_object_set
LVL420:
	.loc 1 774 0
	mov	DWORD PTR [esp+4], esi
	mov	DWORD PTR [esp], ebx
	call	_g_type_check_instance_cast
LVL421:
	mov	DWORD PTR [esp+4], edi
	mov	DWORD PTR [esp], eax
	call	_gtk_tree_view_append_column
LVL422:
	.loc 1 775 0
	mov	DWORD PTR [esp+4], 1
	mov	DWORD PTR [esp], edi
	call	_gtk_tree_view_column_set_sort_column_id
LVL423:
	.loc 1 776 0
	mov	DWORD PTR [esp+4], 80
	mov	eax, DWORD PTR [esp+56]
	mov	DWORD PTR [esp], eax
	call	_g_type_check_instance_cast
LVL424:
	mov	DWORD PTR [esp], eax
	call	_g_object_unref
LVL425:
	.loc 1 777 0
	mov	DWORD PTR [esp+20], -1
	mov	DWORD PTR [esp+16], -1
	mov	DWORD PTR [esp+12], 1
	mov	DWORD PTR [esp+8], 1
	mov	DWORD PTR [esp+4], 1
	mov	DWORD PTR [esp], ebx
	call	_pidgin_make_scrollable
LVL426:
	mov	edi, eax
LVL427:
	call	_gtk_box_get_type
LVL428:
	mov	DWORD PTR [esp+64], eax
	mov	eax, DWORD PTR [esp+68]
	mov	DWORD PTR [esp+4], eax
	mov	eax, DWORD PTR _plugin_dialog
	mov	DWORD PTR [esp], eax
	call	_g_type_check_instance_cast
LVL429:
	mov	edx, DWORD PTR [esp+64]
	mov	DWORD PTR [esp+4], edx
	mov	eax, DWORD PTR [eax+148]
	mov	DWORD PTR [esp], eax
	call	_g_type_check_instance_cast
LVL430:
	mov	DWORD PTR [esp+16], 0
	mov	DWORD PTR [esp+12], 1
	mov	DWORD PTR [esp+8], 1
	mov	DWORD PTR [esp+4], edi
	mov	DWORD PTR [esp], eax
	call	_gtk_box_pack_start
LVL431:
	.loc 1 780 0
	mov	DWORD PTR [esp+4], esi
	mov	DWORD PTR [esp], ebx
	call	_g_type_check_instance_cast
LVL432:
	mov	DWORD PTR [esp+4], 1
	mov	DWORD PTR [esp], eax
	call	_gtk_tree_view_set_search_column
LVL433:
	.loc 1 781 0
	mov	DWORD PTR [esp+4], esi
	mov	DWORD PTR [esp], ebx
	call	_g_type_check_instance_cast
LVL434:
	mov	DWORD PTR [esp+12], 0
	mov	DWORD PTR [esp+8], 0
	mov	DWORD PTR [esp+4], OFFSET FLAT:_pidgin_tree_view_search_equal_func
	mov	DWORD PTR [esp], eax
	call	_gtk_tree_view_set_search_equal_func
LVL435:
	.loc 1 784 0
	mov	DWORD PTR [esp+12], OFFSET FLAT:_pidgin_plugins_paint_tooltip
	mov	DWORD PTR [esp+8], OFFSET FLAT:_pidgin_plugins_create_tooltip
	mov	DWORD PTR [esp+4], ebx
	mov	DWORD PTR [esp], ebx
	call	_pidgin_tooltip_setup_for_treeview
LVL436:
	.loc 1 789 0
	mov	DWORD PTR [esp+4], OFFSET FLAT:LC46
	mov	DWORD PTR [esp], OFFSET FLAT:LC3
	call	_libintl_dgettext
LVL437:
	mov	DWORD PTR [esp], eax
	call	_gtk_expander_new
LVL438:
	mov	ebx, eax
LVL439:
	mov	DWORD PTR _expander, eax
	.loc 1 790 0
	call	_gtk_expander_get_type
LVL440:
	mov	DWORD PTR [esp+4], eax
	mov	DWORD PTR [esp], ebx
	call	_g_type_check_instance_cast
LVL441:
	mov	DWORD PTR [esp+4], 1
	mov	DWORD PTR [esp], eax
	call	_gtk_expander_set_use_markup
LVL442:
	.loc 1 791 0
	mov	DWORD PTR [esp+4], 0
	mov	eax, DWORD PTR _expander
	mov	DWORD PTR [esp], eax
	call	_gtk_widget_set_sensitive
LVL443:
LBB35:
LBB36:
	.loc 1 640 0
	mov	DWORD PTR [esp+4], 3
	mov	DWORD PTR [esp], 0
	call	_gtk_vbox_new
LVL444:
	mov	ecx, DWORD PTR [esp+64]
	mov	DWORD PTR [esp+4], ecx
	mov	DWORD PTR [esp], eax
	call	_g_type_check_instance_cast
LVL445:
	mov	edi, eax
LVL446:
	.loc 1 641 0
	mov	DWORD PTR [esp], 1
	call	_gtk_size_group_new
LVL447:
	mov	DWORD PTR [esp+60], eax
LVL448:
	.loc 1 644 0
	call	_gtk_label_get_type
LVL449:
	mov	esi, eax
	mov	DWORD PTR [esp], 0
	call	_gtk_label_new
LVL450:
	mov	DWORD PTR [esp+4], esi
	mov	DWORD PTR [esp], eax
	call	_g_type_check_instance_cast
LVL451:
	mov	ebp, eax
LVL452:
	mov	DWORD PTR _plugin_name, eax
	.loc 1 645 0
	call	_gtk_misc_get_type
LVL453:
	mov	ebx, eax
	mov	DWORD PTR [esp+4], eax
	mov	DWORD PTR [esp], ebp
	call	_g_type_check_instance_cast
LVL454:
	mov	DWORD PTR [esp+8], 0x00000000
	mov	DWORD PTR [esp+4], 0x00000000
	mov	DWORD PTR [esp], eax
	call	_gtk_misc_set_alignment
LVL455:
	.loc 1 646 0
	mov	DWORD PTR [esp+4], 0
	mov	eax, DWORD PTR _plugin_name
	mov	DWORD PTR [esp], eax
	call	_gtk_label_set_line_wrap
LVL456:
	.loc 1 647 0
	mov	DWORD PTR [esp+4], 1
	mov	eax, DWORD PTR _plugin_name
	mov	DWORD PTR [esp], eax
	call	_gtk_label_set_selectable
LVL457:
	.loc 1 648 0
	call	_gtk_widget_get_type
LVL458:
	mov	DWORD PTR [esp+56], eax
	mov	DWORD PTR [esp+4], eax
	mov	eax, DWORD PTR _plugin_name
	mov	DWORD PTR [esp], eax
	call	_g_type_check_instance_cast
LVL459:
	mov	DWORD PTR [esp+16], 0
	mov	DWORD PTR [esp+12], 0
	mov	DWORD PTR [esp+8], 0
	mov	DWORD PTR [esp+4], eax
	mov	DWORD PTR [esp], edi
	call	_gtk_box_pack_start
LVL460:
	.loc 1 650 0
	call	_gtk_text_view_new
LVL461:
	mov	ebp, eax
LVL462:
	.loc 1 651 0
	call	_gtk_text_view_get_type
LVL463:
	mov	DWORD PTR [esp+4], eax
	mov	DWORD PTR [esp], ebp
	call	_g_type_check_instance_cast
LVL464:
	mov	DWORD PTR [esp], eax
	call	_gtk_text_view_get_buffer
LVL465:
	mov	DWORD PTR _plugin_desc, eax
	.loc 1 652 0
	mov	DWORD PTR [esp+36], 0
	mov	DWORD PTR [esp+32], 18
	mov	DWORD PTR [esp+28], OFFSET FLAT:LC47
	mov	DWORD PTR [esp+24], 18
	mov	DWORD PTR [esp+20], OFFSET FLAT:LC48
	mov	DWORD PTR [esp+16], 0
	mov	DWORD PTR [esp+12], OFFSET FLAT:LC49
	mov	DWORD PTR [esp+8], 2
	mov	DWORD PTR [esp+4], OFFSET FLAT:LC50
	mov	DWORD PTR [esp], ebp
	call	_g_object_set
LVL466:
	.loc 1 657 0
	mov	DWORD PTR [esp+16], 0
	mov	DWORD PTR [esp+12], 1
	mov	DWORD PTR [esp+8], 1
	mov	DWORD PTR [esp+4], ebp
	mov	DWORD PTR [esp], edi
	call	_gtk_box_pack_start
LVL467:
	.loc 1 659 0
	mov	DWORD PTR [esp], 0
	call	_gtk_label_new
LVL468:
	mov	DWORD PTR [esp+4], esi
	mov	DWORD PTR [esp], eax
	call	_g_type_check_instance_cast
LVL469:
	mov	DWORD PTR _plugin_error, eax
	.loc 1 660 0
	mov	DWORD PTR [esp+4], ebx
	mov	DWORD PTR [esp], eax
	call	_g_type_check_instance_cast
LVL470:
	mov	DWORD PTR [esp+8], 0x00000000
	mov	DWORD PTR [esp+4], 0x00000000
	mov	DWORD PTR [esp], eax
	call	_gtk_misc_set_alignment
LVL471:
	.loc 1 661 0
	mov	DWORD PTR [esp+4], 0
	mov	eax, DWORD PTR _plugin_error
	mov	DWORD PTR [esp], eax
	call	_gtk_label_set_line_wrap
LVL472:
	.loc 1 662 0
	mov	DWORD PTR [esp+4], 1
	mov	eax, DWORD PTR _plugin_error
	mov	DWORD PTR [esp], eax
	call	_gtk_label_set_selectable
LVL473:
	.loc 1 663 0
	mov	eax, DWORD PTR [esp+56]
	mov	DWORD PTR [esp+4], eax
	mov	eax, DWORD PTR _plugin_error
	mov	DWORD PTR [esp], eax
	call	_g_type_check_instance_cast
LVL474:
	mov	DWORD PTR [esp+16], 0
	mov	DWORD PTR [esp+12], 0
	mov	DWORD PTR [esp+8], 0
	mov	DWORD PTR [esp+4], eax
	mov	DWORD PTR [esp], edi
	call	_gtk_box_pack_start
LVL475:
	.loc 1 665 0
	mov	DWORD PTR [esp], 0
	call	_gtk_label_new
LVL476:
	mov	DWORD PTR [esp+4], esi
	mov	DWORD PTR [esp], eax
	call	_g_type_check_instance_cast
LVL477:
	mov	DWORD PTR _plugin_author, eax
	.loc 1 666 0
	mov	DWORD PTR [esp+4], 0
	mov	DWORD PTR [esp], eax
	call	_gtk_label_set_line_wrap
LVL478:
	.loc 1 667 0
	mov	DWORD PTR [esp+4], ebx
	mov	eax, DWORD PTR _plugin_author
	mov	DWORD PTR [esp], eax
	call	_g_type_check_instance_cast
LVL479:
	mov	DWORD PTR [esp+8], 0x00000000
	mov	DWORD PTR [esp+4], 0x00000000
	mov	DWORD PTR [esp], eax
	call	_gtk_misc_set_alignment
LVL480:
	.loc 1 668 0
	mov	DWORD PTR [esp+4], 1
	mov	eax, DWORD PTR _plugin_author
	mov	DWORD PTR [esp], eax
	call	_gtk_label_set_selectable
LVL481:
	.loc 1 670 0
	mov	eax, DWORD PTR [esp+56]
	mov	DWORD PTR [esp+4], eax
	mov	eax, DWORD PTR _plugin_author
	mov	DWORD PTR [esp], eax
	call	_g_type_check_instance_cast
LVL482:
	.loc 1 669 0
	lea	edx, [esp+88]
	mov	DWORD PTR [esp+20], edx
	mov	DWORD PTR [esp+16], 1
	mov	DWORD PTR [esp+12], eax
	mov	eax, DWORD PTR [esp+60]
	mov	DWORD PTR [esp+8], eax
	mov	DWORD PTR [esp+4], OFFSET FLAT:LC51
	mov	DWORD PTR [esp], edi
	call	_pidgin_add_widget_to_vbox
LVL483:
	.loc 1 671 0
	mov	DWORD PTR [esp+4], OFFSET FLAT:LC52
	mov	DWORD PTR [esp], OFFSET FLAT:LC3
	call	_libintl_dgettext
LVL484:
	mov	ebp, eax
LVL485:
	mov	DWORD PTR [esp+4], esi
LVL486:
	mov	eax, DWORD PTR [esp+88]
	mov	DWORD PTR [esp], eax
	call	_g_type_check_instance_cast
LVL487:
	mov	DWORD PTR [esp+4], ebp
	mov	DWORD PTR [esp], eax
	call	_gtk_label_set_markup
LVL488:
	.loc 1 672 0
	mov	DWORD PTR [esp+4], ebx
	mov	eax, DWORD PTR [esp+88]
	mov	DWORD PTR [esp], eax
	call	_g_type_check_instance_cast
LVL489:
	mov	DWORD PTR [esp+8], 0x00000000
	mov	DWORD PTR [esp+4], 0x00000000
	mov	DWORD PTR [esp], eax
	call	_gtk_misc_set_alignment
LVL490:
	.loc 1 674 0
	call	_gtk_event_box_new
LVL491:
	mov	ebp, eax
LVL492:
	.loc 1 675 0
	call	_gtk_event_box_get_type
LVL493:
	mov	DWORD PTR [esp+4], eax
	mov	DWORD PTR [esp], ebp
	call	_g_type_check_instance_cast
LVL494:
	mov	DWORD PTR [esp+4], 0
	mov	DWORD PTR [esp], eax
	call	_gtk_event_box_set_visible_window
LVL495:
	.loc 1 677 0
	mov	DWORD PTR [esp], 0
	call	_gtk_label_new
LVL496:
	mov	DWORD PTR [esp+4], esi
	mov	DWORD PTR [esp], eax
	call	_g_type_check_instance_cast
LVL497:
	mov	DWORD PTR _plugin_website, eax
	.loc 1 678 0
	mov	DWORD PTR [esp+4], 80
	mov	DWORD PTR [esp], eax
	call	_g_type_check_instance_cast
LVL498:
	mov	DWORD PTR [esp+12], 0
	mov	DWORD PTR [esp+8], 2
	mov	DWORD PTR [esp+4], OFFSET FLAT:LC45
	mov	DWORD PTR [esp], eax
	call	_g_object_set
LVL499:
	.loc 1 680 0
	mov	DWORD PTR [esp+4], ebx
	mov	eax, DWORD PTR _plugin_website
	mov	DWORD PTR [esp], eax
	call	_g_type_check_instance_cast
LVL500:
	mov	DWORD PTR [esp+8], 0x00000000
	mov	DWORD PTR [esp+4], 0x00000000
	mov	DWORD PTR [esp], eax
	call	_gtk_misc_set_alignment
LVL501:
	.loc 1 682 0
	mov	eax, DWORD PTR [esp+56]
	mov	DWORD PTR [esp+4], eax
	mov	eax, DWORD PTR _plugin_website
	mov	DWORD PTR [esp], eax
	call	_g_type_check_instance_cast
LVL502:
	.loc 1 681 0
	mov	DWORD PTR [esp+52], eax
	call	_gtk_container_get_type
LVL503:
	mov	DWORD PTR [esp+4], eax
	mov	DWORD PTR [esp], ebp
	mov	DWORD PTR [esp+48], eax
	call	_g_type_check_instance_cast
LVL504:
	mov	ecx, DWORD PTR [esp+52]
	mov	DWORD PTR [esp+4], ecx
	mov	DWORD PTR [esp], eax
	call	_gtk_container_add
LVL505:
	.loc 1 683 0
	mov	DWORD PTR [esp+20], 0
	mov	DWORD PTR [esp+16], 0
	mov	DWORD PTR [esp+12], 0
	mov	DWORD PTR [esp+8], OFFSET FLAT:_website_button_clicked_cb
	mov	DWORD PTR [esp+4], OFFSET FLAT:LC53
	mov	DWORD PTR [esp], ebp
	call	_g_signal_connect_data
LVL506:
	.loc 1 685 0
	mov	DWORD PTR [esp+20], 0
	mov	DWORD PTR [esp+16], 0
	mov	DWORD PTR [esp+12], 0
	mov	DWORD PTR [esp+8], OFFSET FLAT:_website_button_motion_cb
	mov	DWORD PTR [esp+4], OFFSET FLAT:LC54
	mov	DWORD PTR [esp], ebp
	call	_g_signal_connect_data
LVL507:
	.loc 1 687 0
	mov	DWORD PTR [esp+20], 0
	mov	DWORD PTR [esp+16], 0
	mov	DWORD PTR [esp+12], 0
	mov	DWORD PTR [esp+8], OFFSET FLAT:_pidgin_clear_cursor
	mov	DWORD PTR [esp+4], OFFSET FLAT:LC55
	mov	DWORD PTR [esp], ebp
	call	_g_signal_connect_data
LVL508:
	.loc 1 690 0
	lea	ecx, [esp+88]
	mov	DWORD PTR [esp+20], ecx
	mov	DWORD PTR [esp+16], 1
	mov	DWORD PTR [esp+12], ebp
	mov	eax, DWORD PTR [esp+60]
	mov	DWORD PTR [esp+8], eax
	mov	DWORD PTR [esp+4], OFFSET FLAT:LC51
	mov	DWORD PTR [esp], edi
	call	_pidgin_add_widget_to_vbox
LVL509:
	.loc 1 691 0
	mov	DWORD PTR [esp+4], OFFSET FLAT:LC56
	mov	DWORD PTR [esp], OFFSET FLAT:LC3
	call	_libintl_dgettext
LVL510:
	mov	ebp, eax
LVL511:
	mov	DWORD PTR [esp+4], esi
	mov	eax, DWORD PTR [esp+88]
	mov	DWORD PTR [esp], eax
	call	_g_type_check_instance_cast
LVL512:
	mov	DWORD PTR [esp+4], ebp
	mov	DWORD PTR [esp], eax
	call	_gtk_label_set_markup
LVL513:
	.loc 1 692 0
	mov	DWORD PTR [esp+4], ebx
	mov	eax, DWORD PTR [esp+88]
	mov	DWORD PTR [esp], eax
	call	_g_type_check_instance_cast
LVL514:
	mov	DWORD PTR [esp+8], 0x3f000000
	mov	DWORD PTR [esp+4], 0x00000000
	mov	DWORD PTR [esp], eax
	call	_gtk_misc_set_alignment
LVL515:
	.loc 1 694 0
	mov	DWORD PTR [esp], 0
	call	_gtk_label_new
LVL516:
	mov	DWORD PTR [esp+4], esi
	mov	DWORD PTR [esp], eax
	call	_g_type_check_instance_cast
LVL517:
	mov	DWORD PTR _plugin_filename, eax
	.loc 1 695 0
	mov	DWORD PTR [esp+4], 0
	mov	DWORD PTR [esp], eax
	call	_gtk_label_set_line_wrap
LVL518:
	.loc 1 696 0
	mov	DWORD PTR [esp+4], ebx
	mov	eax, DWORD PTR _plugin_filename
	mov	DWORD PTR [esp], eax
	call	_g_type_check_instance_cast
LVL519:
	mov	DWORD PTR [esp+8], 0x00000000
	mov	DWORD PTR [esp+4], 0x00000000
	mov	DWORD PTR [esp], eax
	call	_gtk_misc_set_alignment
LVL520:
	.loc 1 697 0
	mov	DWORD PTR [esp+4], 1
	mov	eax, DWORD PTR _plugin_filename
	mov	DWORD PTR [esp], eax
	call	_gtk_label_set_selectable
LVL521:
	.loc 1 699 0
	mov	eax, DWORD PTR [esp+56]
	mov	DWORD PTR [esp+4], eax
	mov	eax, DWORD PTR _plugin_filename
	mov	DWORD PTR [esp], eax
	call	_g_type_check_instance_cast
LVL522:
	.loc 1 698 0
	lea	ecx, [esp+88]
	mov	DWORD PTR [esp+20], ecx
	mov	DWORD PTR [esp+16], 1
	mov	DWORD PTR [esp+12], eax
	mov	eax, DWORD PTR [esp+60]
	mov	DWORD PTR [esp+8], eax
	mov	DWORD PTR [esp+4], OFFSET FLAT:LC51
	mov	DWORD PTR [esp], edi
	call	_pidgin_add_widget_to_vbox
LVL523:
	.loc 1 700 0
	mov	DWORD PTR [esp+4], OFFSET FLAT:LC58
	mov	DWORD PTR [esp], OFFSET FLAT:LC3
	call	_libintl_dgettext
LVL524:
	mov	ebp, eax
	mov	DWORD PTR [esp+4], esi
	mov	eax, DWORD PTR [esp+88]
	mov	DWORD PTR [esp], eax
	call	_g_type_check_instance_cast
LVL525:
	mov	DWORD PTR [esp+4], ebp
	mov	DWORD PTR [esp], eax
	call	_gtk_label_set_markup
LVL526:
	.loc 1 701 0
	mov	DWORD PTR [esp+4], ebx
	mov	eax, DWORD PTR [esp+88]
	mov	DWORD PTR [esp], eax
	call	_g_type_check_instance_cast
LVL527:
	mov	DWORD PTR [esp+8], 0x00000000
	mov	DWORD PTR [esp+4], 0x00000000
	mov	DWORD PTR [esp], eax
	call	_gtk_misc_set_alignment
LVL528:
	.loc 1 703 0
	mov	eax, DWORD PTR [esp+60]
	mov	DWORD PTR [esp], eax
	call	_g_object_unref
LVL529:
	.loc 1 705 0
	mov	eax, DWORD PTR [esp+56]
	mov	DWORD PTR [esp+4], eax
	mov	DWORD PTR [esp], edi
	call	_g_type_check_instance_cast
LVL530:
	mov	ebx, eax
LBE36:
LBE35:
	.loc 1 792 0
	mov	edx, DWORD PTR [esp+48]
	mov	DWORD PTR [esp+4], edx
	mov	eax, DWORD PTR _expander
	mov	DWORD PTR [esp], eax
	call	_g_type_check_instance_cast
LVL531:
	mov	DWORD PTR [esp+4], ebx
	mov	DWORD PTR [esp], eax
	call	_gtk_container_add
LVL532:
	.loc 1 793 0
	mov	ebx, DWORD PTR _expander
	mov	eax, DWORD PTR [esp+68]
	mov	DWORD PTR [esp+4], eax
	mov	eax, DWORD PTR _plugin_dialog
	mov	DWORD PTR [esp], eax
	call	_g_type_check_instance_cast
LVL533:
	mov	edx, DWORD PTR [esp+64]
	mov	DWORD PTR [esp+4], edx
	mov	eax, DWORD PTR [eax+148]
	mov	DWORD PTR [esp], eax
	call	_g_type_check_instance_cast
LVL534:
	mov	DWORD PTR [esp+16], 0
	mov	DWORD PTR [esp+12], 0
	mov	DWORD PTR [esp+8], 0
	mov	DWORD PTR [esp+4], ebx
	mov	DWORD PTR [esp], eax
	call	_gtk_box_pack_start
LVL535:
	.loc 1 797 0
	mov	DWORD PTR [esp+4], 80
	mov	eax, DWORD PTR [esp+76]
	mov	DWORD PTR [esp], eax
	call	_g_type_check_instance_cast
LVL536:
	mov	DWORD PTR [esp+20], 0
	mov	DWORD PTR [esp+16], 0
	mov	DWORD PTR [esp+12], 0
	mov	DWORD PTR [esp+8], OFFSET FLAT:_prefs_plugin_sel
	mov	DWORD PTR [esp+4], OFFSET FLAT:LC59
	mov	DWORD PTR [esp], eax
	call	_g_signal_connect_data
LVL537:
	.loc 1 798 0
	mov	DWORD PTR [esp+4], 80
	mov	eax, DWORD PTR _plugin_dialog
	mov	DWORD PTR [esp], eax
	call	_g_type_check_instance_cast
LVL538:
	mov	DWORD PTR [esp+20], 0
	mov	DWORD PTR [esp+16], 0
	mov	edx, DWORD PTR [esp+76]
	mov	DWORD PTR [esp+12], edx
	mov	DWORD PTR [esp+8], OFFSET FLAT:_plugin_dialog_response_cb
	mov	DWORD PTR [esp+4], OFFSET FLAT:LC16
	mov	DWORD PTR [esp], eax
	call	_g_signal_connect_data
LVL539:
	.loc 1 799 0
	mov	eax, DWORD PTR [esp+72]
	mov	DWORD PTR [esp+4], eax
	mov	eax, DWORD PTR _plugin_dialog
	mov	DWORD PTR [esp], eax
	call	_g_type_check_instance_cast
LVL540:
	mov	DWORD PTR [esp+8], 530
	mov	DWORD PTR [esp+4], 430
	mov	DWORD PTR [esp], eax
	call	_gtk_window_set_default_size
LVL541:
	.loc 1 801 0
	mov	eax, DWORD PTR _plugin_dialog
	mov	DWORD PTR [esp], eax
	call	_pidgin_auto_parent_window
LVL542:
	.loc 1 803 0
	mov	eax, DWORD PTR _plugin_dialog
	mov	DWORD PTR [esp], eax
	call	_gtk_widget_show_all
LVL543:
	jmp	L264
LVL544:
	.p2align 2,,3
L285:
LBB37:
LBB34:
LBB33:
	.loc 1 136 0
	lea	edx, [esp+92]
	mov	DWORD PTR [esp+4], edx
	mov	eax, DWORD PTR [esp+64]
	mov	DWORD PTR [esp], eax
	call	_gtk_list_store_append
LVL545:
	.loc 1 138 0
	mov	eax, DWORD PTR [ebp+16]
	mov	eax, DWORD PTR [eax+36]
	test	eax, eax
	je	L273
	.loc 1 139 0
	mov	DWORD PTR [esp+4], eax
	mov	DWORD PTR [esp], OFFSET FLAT:LC3
	call	_libintl_dgettext
LVL546:
	mov	DWORD PTR [esp+4], -1
	mov	DWORD PTR [esp], eax
	call	_g_markup_escape_text
LVL547:
	mov	DWORD PTR [esp+60], eax
LVL548:
L274:
	.loc 1 145 0
	mov	DWORD PTR [esp], ebp
	call	_purple_plugin_get_version
LVL549:
	mov	DWORD PTR [esp+4], -1
	mov	DWORD PTR [esp], eax
	call	_g_markup_escape_text
LVL550:
	mov	edi, eax
LVL551:
	.loc 1 146 0
	mov	DWORD PTR [esp], ebp
	call	_purple_plugin_get_summary
LVL552:
	mov	DWORD PTR [esp+4], -1
	mov	DWORD PTR [esp], eax
	call	_g_markup_escape_text
LVL553:
	mov	ecx, eax
LVL554:
	.loc 1 148 0
	mov	DWORD PTR [esp+12], eax
	mov	DWORD PTR [esp+8], edi
	mov	eax, DWORD PTR [esp+60]
LVL555:
	mov	DWORD PTR [esp+4], eax
	mov	DWORD PTR [esp], OFFSET FLAT:LC60
	mov	DWORD PTR [esp+52], ecx
	call	_g_strdup_printf
LVL556:
	mov	esi, eax
LVL557:
	.loc 1 151 0
	mov	eax, DWORD PTR [esp+60]
LVL558:
	mov	DWORD PTR [esp], eax
	call	_g_free
LVL559:
	.loc 1 152 0
	mov	DWORD PTR [esp], edi
	call	_g_free
LVL560:
	.loc 1 153 0
	mov	ecx, DWORD PTR [esp+52]
	mov	DWORD PTR [esp], ecx
	call	_g_free
LVL561:
	.loc 1 155 0
	mov	DWORD PTR [esp], ebp
	call	_purple_plugin_is_unloadable
LVL562:
	mov	edi, eax
LVL563:
	mov	DWORD PTR [esp], ebp
	call	_purple_plugin_is_loaded
LVL564:
	mov	DWORD PTR [esp+40], -1
	mov	DWORD PTR [esp+36], edi
	mov	DWORD PTR [esp+32], 3
	mov	DWORD PTR [esp+28], ebp
	mov	DWORD PTR [esp+24], 2
	mov	DWORD PTR [esp+20], esi
	mov	DWORD PTR [esp+16], 1
	mov	DWORD PTR [esp+12], eax
	mov	DWORD PTR [esp+8], 0
	lea	edx, [esp+92]
	mov	DWORD PTR [esp+4], edx
	mov	eax, DWORD PTR [esp+64]
	mov	DWORD PTR [esp], eax
	call	_gtk_list_store_set
LVL565:
	.loc 1 161 0
	mov	DWORD PTR [esp], esi
	call	_g_free
LVL566:
	jmp	L270
LVL567:
L273:
LBB31:
	.loc 1 141 0
	mov	eax, DWORD PTR [ebp+12]
	mov	DWORD PTR [esp], eax
	call	_g_path_get_basename
LVL568:
	mov	esi, eax
LVL569:
	.loc 1 142 0
	mov	DWORD PTR [esp+4], -1
	mov	DWORD PTR [esp], eax
	call	_g_markup_escape_text
LVL570:
	mov	DWORD PTR [esp+60], eax
LVL571:
	.loc 1 143 0
	mov	DWORD PTR [esp], esi
	call	_g_free
LVL572:
	jmp	L274
LVL573:
L284:
LBE31:
LBE33:
LBE34:
LBE37:
	.loc 1 804 0
	call	___stack_chk_fail
LVL574:
	.cfi_endproc
LFE112:
	.section .rdata,"dr"
	.align 4
___PRETTY_FUNCTION__.77318:
	.ascii "pidgin_plugin_get_config_frame\0"
.lcomm _plugin_dialog,4,4
.lcomm _pref_button,4,4
.lcomm _expander,4,4
.lcomm _plugin_pref_dialogs,4,4
.lcomm _plugin_name,4,4
.lcomm _plugin_desc,4,4
.lcomm _plugin_author,4,4
.lcomm _plugin_filename,4,4
.lcomm _plugin_website_uri,4,4
.lcomm _plugin_website,4,4
.lcomm _plugin_error,4,4
___PRETTY_FUNCTION__.77397:
	.ascii "plugin_toggled\0"
	.text
Letext0:
	.file 2 "c:/workspace/pidgin-devel/win32-dev/mingw-4.7.2/bin/../lib/gcc/mingw32/4.7.2/../../../../include/stdio.h"
	.file 3 "c:/workspace/pidgin-devel/win32-dev/mingw-4.7.2/bin/../lib/gcc/mingw32/4.7.2/include/stddef.h"
	.file 4 "c:/workspace/pidgin-devel/win32-dev/mingw-4.7.2/bin/../lib/gcc/mingw32/4.7.2/../../../../include/sys/types.h"
	.file 5 "c:/workspace/pidgin-devel/win32-dev/mingw-4.7.2/bin/../lib/gcc/mingw32/4.7.2/../../../../include/time.h"
	.file 6 "../../win32-dev/gtk_2_0-2.14/lib/glib-2.0/include/glibconfig.h"
	.file 7 "../../win32-dev/gtk_2_0-2.14/include/glib-2.0/glib/gtypes.h"
	.file 8 "../../win32-dev/gtk_2_0-2.14/include/glib-2.0/glib/garray.h"
	.file 9 "../../win32-dev/gtk_2_0-2.14/include/glib-2.0/glib/glist.h"
	.file 10 "../../win32-dev/gtk_2_0-2.14/include/glib-2.0/glib/gdataset.h"
	.file 11 "../../win32-dev/gtk_2_0-2.14/include/glib-2.0/glib/ghash.h"
	.file 12 "../../win32-dev/gtk_2_0-2.14/include/glib-2.0/glib/gslist.h"
	.file 13 "../../win32-dev/gtk_2_0-2.14/include/glib-2.0/glib/gmain.h"
	.file 14 "../../win32-dev/gtk_2_0-2.14/include/glib-2.0/glib/gstring.h"
	.file 15 "../../win32-dev/gtk_2_0-2.14/include/glib-2.0/gobject/gtype.h"
	.file 16 "../../win32-dev/gtk_2_0-2.14/include/glib-2.0/gobject/gvalue.h"
	.file 17 "../../win32-dev/gtk_2_0-2.14/include/glib-2.0/glib/gscanner.h"
	.file 18 "../../win32-dev/gtk_2_0-2.14/include/glib-2.0/gobject/gparam.h"
	.file 19 "../../win32-dev/gtk_2_0-2.14/include/glib-2.0/gobject/gclosure.h"
	.file 20 "../../win32-dev/gtk_2_0-2.14/include/glib-2.0/gobject/gsignal.h"
	.file 21 "../../win32-dev/gtk_2_0-2.14/include/glib-2.0/gobject/gobject.h"
	.file 22 "../libpurple/account.h"
	.file 23 "../libpurple/connection.h"
	.file 24 "../libpurple/signals.h"
	.file 25 "../libpurple/plugin.h"
	.file 26 "../libpurple/pluginpref.h"
	.file 27 "../libpurple/status.h"
	.file 28 "../libpurple/buddyicon.h"
	.file 29 "../libpurple/conversation.h"
	.file 30 "../libpurple/log.h"
	.file 31 "../libpurple/media/../notify.h"
	.file 32 "../libpurple/proxy.h"
	.file 33 "c:/workspace/pidgin-devel/win32-dev/mingw-4.7.2/bin/../lib/gcc/mingw32/4.7.2/../../../../include/wtypes.h"
	.file 34 "../libpurple/privacy.h"
	.file 35 "../../win32-dev/gtk_2_0-2.14/include/cairo/cairo.h"
	.file 36 "../../win32-dev/gtk_2_0-2.14/include/pango-1.0/pango/pango-font.h"
	.file 37 "../../win32-dev/gtk_2_0-2.14/include/pango-1.0/pango/pango-attributes.h"
	.file 38 "../../win32-dev/gtk_2_0-2.14/include/pango-1.0/pango/pango-tabs.h"
	.file 39 "../../win32-dev/gtk_2_0-2.14/include/pango-1.0/pango/pango-layout.h"
	.file 40 "../../win32-dev/gtk_2_0-2.14/include/gtk-2.0/gdk/gdktypes.h"
	.file 41 "../../win32-dev/gtk_2_0-2.14/include/gtk-2.0/gdk/gdkcolor.h"
	.file 42 "../../win32-dev/gtk_2_0-2.14/include/gtk-2.0/gdk/gdkfont.h"
	.file 43 "../../win32-dev/gtk_2_0-2.14/include/gtk-2.0/gdk/gdkgc.h"
	.file 44 "../../win32-dev/gtk_2_0-2.14/include/gtk-2.0/gdk/gdkvisual.h"
	.file 45 "../../win32-dev/gtk_2_0-2.14/include/gtk-2.0/gdk/gdkdrawable.h"
	.file 46 "../../win32-dev/gtk_2_0-2.14/include/gtk-2.0/gdk/gdkscreen.h"
	.file 47 "../../win32-dev/gtk_2_0-2.14/include/gtk-2.0/gdk/gdkinput.h"
	.file 48 "../../win32-dev/gtk_2_0-2.14/include/gtk-2.0/gdk/gdkevents.h"
	.file 49 "../../win32-dev/gtk_2_0-2.14/include/gtk-2.0/gdk/gdkcursor.h"
	.file 50 "../../win32-dev/gtk_2_0-2.14/include/gtk-2.0/gtk/gtkenums.h"
	.file 51 "../../win32-dev/gtk_2_0-2.14/include/gtk-2.0/gtk/gtktypeutils.h"
	.file 52 "../../win32-dev/gtk_2_0-2.14/include/gtk-2.0/gtk/gtkobject.h"
	.file 53 "../../win32-dev/gtk_2_0-2.14/include/gtk-2.0/gtk/gtkadjustment.h"
	.file 54 "../../win32-dev/gtk_2_0-2.14/include/gtk-2.0/gtk/gtkstyle.h"
	.file 55 "../../win32-dev/gtk_2_0-2.14/include/gtk-2.0/gtk/gtkrc.h"
	.file 56 "../../win32-dev/gtk_2_0-2.14/include/gtk-2.0/gtk/gtkwidget.h"
	.file 57 "../../win32-dev/gtk_2_0-2.14/include/gtk-2.0/gtk/gtkwindow.h"
	.file 58 "../../win32-dev/gtk_2_0-2.14/include/gtk-2.0/gtk/gtkcontainer.h"
	.file 59 "../../win32-dev/gtk_2_0-2.14/include/gtk-2.0/gtk/gtkbin.h"
	.file 60 "../../win32-dev/gtk_2_0-2.14/include/gtk-2.0/gtk/gtkdialog.h"
	.file 61 "../../win32-dev/gtk_2_0-2.14/include/gtk-2.0/gtk/gtkmisc.h"
	.file 62 "../../win32-dev/gtk_2_0-2.14/include/gtk-2.0/gtk/gtklabel.h"
	.file 63 "../../win32-dev/gtk_2_0-2.14/include/gtk-2.0/gtk/gtkbox.h"
	.file 64 "../../win32-dev/gtk_2_0-2.14/include/gtk-2.0/gtk/gtkbutton.h"
	.file 65 "../../win32-dev/gtk_2_0-2.14/include/gtk-2.0/gtk/gtkcelleditable.h"
	.file 66 "../../win32-dev/gtk_2_0-2.14/include/gtk-2.0/gtk/gtkcellrenderer.h"
	.file 67 "../../win32-dev/gtk_2_0-2.14/include/gtk-2.0/gtk/gtktreemodel.h"
	.file 68 "../../win32-dev/gtk_2_0-2.14/include/gtk-2.0/gtk/gtktreesortable.h"
	.file 69 "../../win32-dev/gtk_2_0-2.14/include/gtk-2.0/gtk/gtktreeviewcolumn.h"
	.file 70 "../../win32-dev/gtk_2_0-2.14/include/gtk-2.0/gtk/gtkcellrenderertoggle.h"
	.file 71 "../../win32-dev/gtk_2_0-2.14/include/gtk-2.0/gtk/gtktexttag.h"
	.file 72 "../../win32-dev/gtk_2_0-2.14/include/gtk-2.0/gtk/gtktexttagtable.h"
	.file 73 "../../win32-dev/gtk_2_0-2.14/include/gtk-2.0/gtk/gtktextiter.h"
	.file 74 "../../win32-dev/gtk_2_0-2.14/include/gtk-2.0/gtk/gtktextbuffer.h"
	.file 75 "../../win32-dev/gtk_2_0-2.14/include/gtk-2.0/gtk/gtkimcontext.h"
	.file 76 "../../win32-dev/gtk_2_0-2.14/include/gtk-2.0/gtk/gtkliststore.h"
	.file 77 "../../win32-dev/gtk_2_0-2.14/include/gtk-2.0/gtk/gtktreeview.h"
	.file 78 "../../win32-dev/gtk_2_0-2.14/include/gtk-2.0/gtk/gtktreeselection.h"
	.file 79 "../../win32-dev/gtk_2_0-2.14/include/gtk-2.0/gtk/gtkeventbox.h"
	.file 80 "../../win32-dev/gtk_2_0-2.14/include/gtk-2.0/gtk/gtkexpander.h"
	.file 81 "../../win32-dev/gtk_2_0-2.14/include/gtk-2.0/gtk/gtksizegroup.h"
	.file 82 "../../win32-dev/gtk_2_0-2.14/include/gtk-2.0/gtk/gtktextmark.h"
	.file 83 "../../win32-dev/gtk_2_0-2.14/include/gtk-2.0/gtk/gtktextview.h"
	.file 84 "gtkplugin.h"
	.file 85 "pidgintooltip.h"
	.file 86 "c:/workspace/pidgin-devel/win32-dev/mingw-4.7.2/bin/../lib/gcc/mingw32/4.7.2/../../../../include/ctype.h"
	.file 87 "gtkutils.h"
	.file 88 "../../win32-dev/gtk_2_0-2.14/include/glib-2.0/gobject/gvaluetypes.h"
	.file 89 "../../win32-dev/gtk_2_0-2.14/include/glib-2.0/glib/gmarkup.h"
	.file 90 "../../win32-dev/gtk_2_0-2.14/include/glib-2.0/glib/gstrfuncs.h"
	.file 91 "../../win32-dev/gtk_2_0-2.14/include/glib-2.0/glib/gmem.h"
	.file 92 "../../win32-dev/gtk_2_0-2.14/include/libintl.h"
	.file 93 "gtkpluginpref.h"
	.file 94 "../libpurple/debug.h"
	.file 95 "../../win32-dev/gtk_2_0-2.14/include/glib-2.0/glib/gmessages.h"
	.file 96 "../libpurple/request.h"
	.file 97 "../../win32-dev/gtk_2_0-2.14/include/glib-2.0/glib/gutils.h"
	.file 98 "../../win32-dev/gtk_2_0-2.14/include/gtk-2.0/gtk/gtkvbox.h"
	.file 99 "../../win32-dev/gtk_2_0-2.14/include/gtk-2.0/gtk/gtkcellrenderertext.h"