	.file	"gtkpluginpref.c"
	.intel_syntax noprefix
	.text
Ltext0:
	.p2align 2,,3
	.def	_entry_cb;	.scl	3;	.type	32;	.endef
_entry_cb:
LFB93:
	.file 1 "gtkpluginpref.c"
	.loc 1 41 0
	.cfi_startproc
LVL0:
	push	esi
LCFI0:
	.cfi_def_cfa_offset 8
	.cfi_offset 6, -8
	push	ebx
LCFI1:
	.cfi_def_cfa_offset 12
	.cfi_offset 3, -12
	sub	esp, 36
LCFI2:
	.cfi_def_cfa_offset 48
	mov	esi, DWORD PTR [esp+48]
	mov	ebx, DWORD PTR [esp+52]
	.loc 1 41 0
	mov	eax, DWORD PTR ___stack_chk_guard
	mov	DWORD PTR [esp+28], eax
	xor	eax, eax
LVL1:
	.loc 1 44 0
	call	_gtk_entry_get_type
LVL2:
	mov	DWORD PTR [esp+4], eax
	mov	DWORD PTR [esp], esi
	call	_g_type_check_instance_cast
LVL3:
	mov	DWORD PTR [esp], eax
	call	_gtk_entry_get_text
LVL4:
	mov	DWORD PTR [esp+4], eax
	mov	DWORD PTR [esp], ebx
	call	_purple_prefs_set_string
LVL5:
	.loc 1 47 0
	xor	eax, eax
	mov	edx, DWORD PTR [esp+28]
	xor	edx, DWORD PTR ___stack_chk_guard
	jne	L5
	add	esp, 36
LCFI3:
	.cfi_remember_state
	.cfi_def_cfa_offset 12
	pop	ebx
LCFI4:
	.cfi_restore 3
	.cfi_def_cfa_offset 8
LVL6:
	pop	esi
LCFI5:
	.cfi_restore 6
	.cfi_def_cfa_offset 4
	ret
LVL7:
L5:
LCFI6:
	.cfi_restore_state
	call	___stack_chk_fail
LVL8:
	.cfi_endproc
LFE93:
	.section .rdata,"dr"
LC0:
	.ascii "pref-key\0"
LC1:
	.ascii "pref\0"
	.text
	.p2align 2,,3
	.def	_imhtml_cb;	.scl	3;	.type	32;	.endef
_imhtml_cb:
LFB94:
	.loc 1 52 0
	.cfi_startproc
LVL9:
	push	esi
LCFI7:
	.cfi_def_cfa_offset 8
	.cfi_offset 6, -8
	push	ebx
LCFI8:
	.cfi_def_cfa_offset 12
	.cfi_offset 3, -12
	sub	esp, 36
LCFI9:
	.cfi_def_cfa_offset 48
	mov	esi, DWORD PTR [esp+52]
	.loc 1 52 0
	mov	eax, DWORD PTR ___stack_chk_guard
	mov	DWORD PTR [esp+28], eax
	xor	eax, eax
LVL10:
	.loc 1 57 0
	mov	DWORD PTR [esp+4], 80
	mov	DWORD PTR [esp], esi
	call	_g_type_check_instance_cast
LVL11:
	mov	DWORD PTR [esp+4], OFFSET FLAT:LC0
	mov	DWORD PTR [esp], eax
	call	_g_object_get_data
LVL12:
	mov	ebx, eax
LVL13:
LBB7:
	.loc 1 58 0
	test	eax, eax
	je	L14
LVL14:
LBE7:
	.loc 1 60 0
	mov	DWORD PTR [esp], esi
	call	_gtk_imhtml_get_markup
LVL15:
	mov	esi, eax
LVL16:
	.loc 1 61 0
	mov	DWORD PTR [esp+4], eax
	mov	DWORD PTR [esp], ebx
	call	_purple_prefs_set_string
LVL17:
	.loc 1 62 0
	mov	eax, DWORD PTR [esp+28]
	xor	eax, DWORD PTR ___stack_chk_guard
	jne	L12
	mov	DWORD PTR [esp+48], esi
	.loc 1 63 0
	add	esp, 36
LCFI10:
	.cfi_remember_state
	.cfi_def_cfa_offset 12
	pop	ebx
LCFI11:
	.cfi_restore 3
	.cfi_def_cfa_offset 8
LVL18:
	pop	esi
LCFI12:
	.cfi_restore 6
	.cfi_def_cfa_offset 4
LVL19:
	.loc 1 62 0
	jmp	_g_free
LVL20:
	.p2align 2,,3
L14:
LCFI13:
	.cfi_restore_state
LBB8:
LBB9:
	.loc 1 58 0
	mov	DWORD PTR [esp+8], OFFSET FLAT:LC1
	mov	DWORD PTR [esp+4], OFFSET FLAT:___PRETTY_FUNCTION__.77160
	mov	DWORD PTR [esp], 0
	call	_g_return_if_fail_warning
LVL21:
LBE9:
LBE8:
	.loc 1 63 0
	mov	eax, DWORD PTR [esp+28]
	xor	eax, DWORD PTR ___stack_chk_guard
	jne	L12
	add	esp, 36
LCFI14:
	.cfi_remember_state
	.cfi_def_cfa_offset 12
	pop	ebx
LCFI15:
	.cfi_restore 3
	.cfi_def_cfa_offset 8
LVL22:
	pop	esi
LCFI16:
	.cfi_restore 6
	.cfi_def_cfa_offset 4
LVL23:
	ret
LVL24:
L12:
LCFI17:
	.cfi_restore_state
	call	___stack_chk_fail
LVL25:
	.cfi_endproc
LFE94:
	.p2align 2,,3
	.def	_imhtml_format_cb;	.scl	3;	.type	32;	.endef
_imhtml_format_cb:
LFB95:
	.loc 1 67 0
	.cfi_startproc
LVL26:
	push	esi
LCFI18:
	.cfi_def_cfa_offset 8
	.cfi_offset 6, -8
	push	ebx
LCFI19:
	.cfi_def_cfa_offset 12
	.cfi_offset 3, -12
	sub	esp, 36
LCFI20:
	.cfi_def_cfa_offset 48
	mov	ebx, DWORD PTR [esp+48]
	mov	esi, DWORD PTR [esp+56]
	.loc 1 67 0
	mov	eax, DWORD PTR ___stack_chk_guard
	mov	DWORD PTR [esp+28], eax
	xor	eax, eax
	.loc 1 68 0
	call	_gtk_text_view_get_type
LVL27:
	mov	DWORD PTR [esp+4], eax
	mov	DWORD PTR [esp], ebx
	call	_g_type_check_instance_cast
LVL28:
	mov	DWORD PTR [esp], eax
	call	_gtk_text_view_get_buffer
LVL29:
	mov	edx, DWORD PTR [esp+28]
	xor	edx, DWORD PTR ___stack_chk_guard
	jne	L19
	mov	DWORD PTR [esp+52], esi
	mov	DWORD PTR [esp+48], eax
	.loc 1 69 0
	add	esp, 36
LCFI21:
	.cfi_remember_state
	.cfi_def_cfa_offset 12
	pop	ebx
LCFI22:
	.cfi_restore 3
	.cfi_def_cfa_offset 8
	pop	esi
LCFI23:
	.cfi_restore 6
	.cfi_def_cfa_offset 4
	.loc 1 68 0
	jmp	_imhtml_cb
LVL30:
L19:
LCFI24:
	.cfi_restore_state
	call	___stack_chk_fail
LVL31:
	.cfi_endproc
LFE95:
	.section .rdata,"dr"
LC4:
	.ascii "changed\0"
LC5:
	.ascii "    \0"
LC6:
	.ascii "format_function_toggle\0"
LC7:
	.ascii "frame\0"
	.text
	.p2align 2,,3
	.globl	_pidgin_plugin_pref_create_frame
	.def	_pidgin_plugin_pref_create_frame;	.scl	2;	.type	32;	.endef
_pidgin_plugin_pref_create_frame:
LFB99:
	.loc 1 204 0
	.cfi_startproc
LVL32:
	push	ebp
LCFI25:
	.cfi_def_cfa_offset 8
	.cfi_offset 5, -8
	push	edi
LCFI26:
	.cfi_def_cfa_offset 12
	.cfi_offset 7, -12
	push	esi
LCFI27:
	.cfi_def_cfa_offset 16
	.cfi_offset 6, -16
	push	ebx
LCFI28:
	.cfi_def_cfa_offset 20
	.cfi_offset 3, -20
	sub	esp, 108
LCFI29:
	.cfi_def_cfa_offset 128
	mov	ebx, DWORD PTR [esp+128]
	.loc 1 204 0
	mov	eax, DWORD PTR ___stack_chk_guard
	mov	DWORD PTR [esp+92], eax
	xor	eax, eax
LBB19:
	.loc 1 209 0
	test	ebx, ebx
	je	L69
LVL33:
LBE19:
	.loc 1 211 0
	mov	DWORD PTR [esp], 1
	call	_gtk_size_group_new
LVL34:
	mov	DWORD PTR [esp+48], eax
LVL35:
	.loc 1 213 0
	mov	DWORD PTR [esp+4], 16
	mov	DWORD PTR [esp], 0
	call	_gtk_vbox_new
LVL36:
	mov	DWORD PTR [esp+52], eax
LVL37:
	.loc 1 214 0
	call	_gtk_container_get_type
LVL38:
	mov	DWORD PTR [esp+4], eax
	mov	eax, DWORD PTR [esp+52]
	mov	DWORD PTR [esp], eax
	call	_g_type_check_instance_cast
LVL39:
	mov	DWORD PTR [esp+4], 12
	mov	DWORD PTR [esp], eax
	call	_gtk_container_set_border_width
LVL40:
	.loc 1 215 0
	mov	eax, DWORD PTR [esp+52]
	mov	DWORD PTR [esp], eax
	call	_gtk_widget_show
LVL41:
	.loc 1 217 0
	mov	DWORD PTR [esp], ebx
	call	_purple_plugin_pref_frame_get_prefs
LVL42:
	mov	ebp, eax
LVL43:
	mov	eax, DWORD PTR [esp+52]
LVL44:
	mov	DWORD PTR [esp+40], eax
	test	ebp, ebp
	jne	L55
	jmp	L44
LVL45:
	.p2align 2,,3
L23:
LBB20:
	.loc 1 240 0
	mov	DWORD PTR [esp], esi
	call	_purple_prefs_get_type
LVL46:
	cmp	eax, 2
	je	L27
	cmp	eax, 3
	je	L28
	dec	eax
	jne	L24
	.loc 1 242 0
	mov	eax, DWORD PTR [esp+40]
	mov	DWORD PTR [esp+8], eax
	mov	DWORD PTR [esp+4], esi
	mov	DWORD PTR [esp], edi
	call	_pidgin_prefs_checkbox
LVL47:
	.p2align 2,,3
L24:
LBE20:
	.loc 1 219 0
	mov	ebp, DWORD PTR [ebp+4]
LVL48:
	.loc 1 217 0
	test	ebp, ebp
	je	L44
L55:
LBB33:
	.loc 1 221 0
	mov	ebx, DWORD PTR [ebp+0]
LVL49:
	.loc 1 223 0
	mov	DWORD PTR [esp], ebx
	call	_purple_plugin_pref_get_name
LVL50:
	mov	esi, eax
LVL51:
	.loc 1 224 0
	mov	DWORD PTR [esp], ebx
	call	_purple_plugin_pref_get_label
LVL52:
	mov	edi, eax
LVL53:
	.loc 1 226 0
	test	esi, esi
	jne	L23
	.loc 1 227 0
	test	eax, eax
	je	L24
	.loc 1 230 0
	mov	DWORD PTR [esp], ebx
	call	_purple_plugin_pref_get_type
LVL54:
	cmp	eax, 2
	je	L70
	.loc 1 233 0
	mov	DWORD PTR [esp+4], edi
	mov	eax, DWORD PTR [esp+52]
	mov	DWORD PTR [esp], eax
	call	_pidgin_make_frame
LVL55:
	mov	DWORD PTR [esp+40], eax
LVL56:
	.loc 1 234 0
	mov	DWORD PTR [esp], eax
	call	_gtk_widget_show
LVL57:
LBE33:
	.loc 1 219 0
	mov	ebp, DWORD PTR [ebp+4]
LVL58:
	.loc 1 217 0
	test	ebp, ebp
	jne	L55
LVL59:
	.p2align 2,,3
L44:
	.loc 1 255 0
	mov	eax, DWORD PTR [esp+48]
	mov	DWORD PTR [esp], eax
	call	_g_object_unref
LVL60:
L42:
	.loc 1 258 0
	mov	eax, DWORD PTR [esp+52]
	mov	edx, DWORD PTR [esp+92]
	xor	edx, DWORD PTR ___stack_chk_guard
	jne	L71
	add	esp, 108
LCFI30:
	.cfi_remember_state
	.cfi_def_cfa_offset 20
	pop	ebx
LCFI31:
	.cfi_restore 3
	.cfi_def_cfa_offset 16
	pop	esi
LCFI32:
	.cfi_restore 6
	.cfi_def_cfa_offset 12
	pop	edi
LCFI33:
	.cfi_restore 7
	.cfi_def_cfa_offset 8
	pop	ebp
LCFI34:
	.cfi_restore 5
	.cfi_def_cfa_offset 4
	ret
LVL61:
	.p2align 2,,3
L28:
LCFI35:
	.cfi_restore_state
LBB34:
LBB21:
LBB22:
	.loc 1 78 0
	mov	DWORD PTR [esp], ebx
	call	_purple_plugin_pref_get_name
LVL62:
	mov	DWORD PTR [esp+56], eax
LVL63:
	.loc 1 79 0
	mov	DWORD PTR [esp], ebx
	call	_purple_plugin_pref_get_label
LVL64:
	mov	DWORD PTR [esp+44], eax
LVL65:
	.loc 1 80 0
	mov	DWORD PTR [esp], ebx
	call	_purple_plugin_pref_get_format_type
LVL66:
	mov	esi, eax
LVL67:
	.loc 1 82 0
	mov	DWORD PTR [esp], ebx
	call	_purple_plugin_pref_get_type
LVL68:
	dec	eax
	je	L72
	.loc 1 95 0
	test	esi, esi
	jne	L34
	.loc 1 97 0
	call	_gtk_entry_new
LVL69:
	mov	esi, eax
LVL70:
	.loc 1 98 0
	mov	eax, DWORD PTR [esp+56]
LVL71:
	mov	DWORD PTR [esp], eax
	call	_purple_prefs_get_string
LVL72:
	mov	DWORD PTR [esp+36], eax
	call	_gtk_entry_get_type
LVL73:
	mov	edi, eax
LVL74:
	mov	DWORD PTR [esp+4], eax
	mov	DWORD PTR [esp], esi
	call	_g_type_check_instance_cast
LVL75:
	mov	edx, DWORD PTR [esp+36]
	mov	DWORD PTR [esp+4], edx
	mov	DWORD PTR [esp], eax
	call	_gtk_entry_set_text
LVL76:
	.loc 1 100 0
	mov	DWORD PTR [esp], ebx
	call	_purple_plugin_pref_get_max_length
LVL77:
	.loc 1 99 0
	mov	DWORD PTR [esp+4], edi
	mov	DWORD PTR [esp], esi
	mov	DWORD PTR [esp+36], eax
	call	_g_type_check_instance_cast
LVL78:
	mov	edx, DWORD PTR [esp+36]
	mov	DWORD PTR [esp+4], edx
	mov	DWORD PTR [esp], eax
	call	_gtk_entry_set_max_length
LVL79:
	.loc 1 101 0
	mov	DWORD PTR [esp], ebx
	call	_purple_plugin_pref_get_masked
LVL80:
	test	eax, eax
	jne	L73
L36:
	.loc 1 109 0
	mov	DWORD PTR [esp+4], 80
	mov	DWORD PTR [esp], esi
	call	_g_type_check_instance_cast
LVL81:
	mov	DWORD PTR [esp+20], 0
	mov	DWORD PTR [esp+16], 0
	mov	edx, DWORD PTR [esp+56]
	mov	DWORD PTR [esp+12], edx
	mov	DWORD PTR [esp+8], OFFSET FLAT:_entry_cb
	mov	DWORD PTR [esp+4], OFFSET FLAT:LC4
	mov	DWORD PTR [esp], eax
	call	_g_signal_connect_data
LVL82:
	.loc 1 112 0
	call	_gtk_box_get_type
LVL83:
	mov	DWORD PTR [esp+4], eax
	mov	eax, DWORD PTR [esp+40]
	mov	DWORD PTR [esp], eax
	call	_g_type_check_instance_cast
LVL84:
	mov	DWORD PTR [esp+20], 0
	mov	DWORD PTR [esp+16], 1
	mov	DWORD PTR [esp+12], esi
	mov	edx, DWORD PTR [esp+48]
	mov	DWORD PTR [esp+8], edx
	mov	edx, DWORD PTR [esp+44]
	mov	DWORD PTR [esp+4], edx
	mov	DWORD PTR [esp], eax
	call	_pidgin_add_widget_to_vbox
LVL85:
	jmp	L24
LVL86:
	.p2align 2,,3
L27:
LBE22:
LBE21:
LBB27:
LBB28:
	.loc 1 170 0
	mov	DWORD PTR [esp], ebx
	call	_purple_plugin_pref_get_name
LVL87:
	mov	edi, eax
LVL88:
	.loc 1 171 0
	mov	DWORD PTR [esp], ebx
	call	_purple_plugin_pref_get_label
LVL89:
	mov	esi, eax
LVL90:
	.loc 1 173 0
	mov	DWORD PTR [esp], ebx
	call	_purple_plugin_pref_get_type
LVL91:
	dec	eax
	je	L74
	.loc 1 185 0
	lea	edx, [esp+76]
	mov	DWORD PTR [esp+8], edx
	lea	eax, [esp+80]
	mov	DWORD PTR [esp+4], eax
	mov	DWORD PTR [esp], ebx
	call	_purple_plugin_pref_get_bounds
LVL92:
	.loc 1 186 0
	mov	eax, DWORD PTR [esp+48]
	mov	DWORD PTR [esp+20], eax
	mov	eax, DWORD PTR [esp+76]
	mov	DWORD PTR [esp+16], eax
	mov	eax, DWORD PTR [esp+80]
	mov	DWORD PTR [esp+12], eax
	mov	DWORD PTR [esp+8], edi
	mov	DWORD PTR [esp+4], esi
	mov	eax, DWORD PTR [esp+40]
	mov	DWORD PTR [esp], eax
	call	_pidgin_prefs_labeled_spin_button
LVL93:
	jmp	L24
	.p2align 2,,3
L74:
	.loc 1 175 0
	mov	DWORD PTR [esp], ebx
	call	_purple_plugin_pref_get_choices
LVL94:
	mov	DWORD PTR [esp+16], eax
	mov	DWORD PTR [esp+12], edi
	mov	DWORD PTR [esp+8], 2
	mov	DWORD PTR [esp+4], esi
LVL95:
L68:
LBE28:
LBE27:
LBB29:
LBB25:
	.loc 1 84 0
	mov	eax, DWORD PTR [esp+40]
	mov	DWORD PTR [esp], eax
	call	_pidgin_prefs_dropdown_from_list
LVL96:
	mov	ebx, eax
LVL97:
	.loc 1 87 0
	call	_gtk_misc_get_type
LVL98:
	mov	DWORD PTR [esp+4], eax
	mov	DWORD PTR [esp], ebx
	call	_g_type_check_instance_cast
LVL99:
	mov	DWORD PTR [esp+8], 0x3f000000
	mov	DWORD PTR [esp+4], 0x00000000
	mov	DWORD PTR [esp], eax
	call	_gtk_misc_set_alignment
LVL100:
	.loc 1 89 0
	mov	edx, DWORD PTR [esp+48]
	test	edx, edx
	je	L24
	.loc 1 90 0
	mov	DWORD PTR [esp+4], ebx
	mov	eax, DWORD PTR [esp+48]
	mov	DWORD PTR [esp], eax
	call	_gtk_size_group_add_widget
LVL101:
	jmp	L24
LVL102:
	.p2align 2,,3
L34:
LBB23:
	.loc 1 122 0
	mov	DWORD PTR [esp+4], 6
	mov	DWORD PTR [esp], 0
	call	_gtk_vbox_new
LVL103:
	mov	ebx, eax
LVL104:
	.loc 1 124 0
	mov	DWORD PTR [esp], eax
	call	_gtk_widget_show
LVL105:
	.loc 1 125 0
	call	_gtk_box_get_type
LVL106:
	mov	edi, eax
LVL107:
	mov	DWORD PTR [esp+4], eax
	mov	eax, DWORD PTR [esp+40]
	mov	DWORD PTR [esp], eax
	call	_g_type_check_instance_cast
LVL108:
	mov	DWORD PTR [esp+16], 0
	mov	DWORD PTR [esp+12], 0
	mov	DWORD PTR [esp+8], 0
	mov	DWORD PTR [esp+4], ebx
	mov	DWORD PTR [esp], eax
	call	_gtk_box_pack_start
LVL109:
	.loc 1 127 0
	mov	eax, DWORD PTR [esp+44]
	mov	DWORD PTR [esp], eax
	call	_gtk_label_new_with_mnemonic
LVL110:
	mov	DWORD PTR [esp+44], eax
LVL111:
	.loc 1 128 0
	call	_gtk_misc_get_type
LVL112:
	mov	DWORD PTR [esp+4], eax
	mov	eax, DWORD PTR [esp+44]
	mov	DWORD PTR [esp], eax
	call	_g_type_check_instance_cast
LVL113:
	mov	DWORD PTR [esp+8], 0x3f000000
	mov	DWORD PTR [esp+4], 0x00000000
	mov	DWORD PTR [esp], eax
	call	_gtk_misc_set_alignment
LVL114:
	.loc 1 129 0
	mov	eax, DWORD PTR [esp+44]
	mov	DWORD PTR [esp], eax
	call	_gtk_widget_show
LVL115:
	.loc 1 130 0
	mov	DWORD PTR [esp+4], edi
	mov	DWORD PTR [esp], ebx
	call	_g_type_check_instance_cast
LVL116:
	mov	DWORD PTR [esp+16], 0
	mov	DWORD PTR [esp+12], 0
	mov	DWORD PTR [esp+8], 0
	mov	edx, DWORD PTR [esp+44]
	mov	DWORD PTR [esp+4], edx
	mov	DWORD PTR [esp], eax
	call	_gtk_box_pack_start
LVL117:
	.loc 1 132 0
	mov	eax, DWORD PTR [esp+48]
	test	eax, eax
	je	L38
	.loc 1 133 0
	mov	eax, DWORD PTR [esp+44]
	mov	DWORD PTR [esp+4], eax
	mov	eax, DWORD PTR [esp+48]
	mov	DWORD PTR [esp], eax
	call	_gtk_size_group_add_widget
LVL118:
L38:
	.loc 1 135 0
	mov	DWORD PTR [esp+4], 6
	mov	DWORD PTR [esp], 0
	call	_gtk_hbox_new
LVL119:
	mov	DWORD PTR [esp+60], eax
LVL120:
	.loc 1 136 0
	mov	DWORD PTR [esp+4], edi
	mov	DWORD PTR [esp], ebx
	call	_g_type_check_instance_cast
LVL121:
	mov	DWORD PTR [esp+16], 0
	mov	DWORD PTR [esp+12], 0
	mov	DWORD PTR [esp+8], 0
	mov	edx, DWORD PTR [esp+60]
	mov	DWORD PTR [esp+4], edx
	mov	DWORD PTR [esp], eax
	call	_gtk_box_pack_start
LVL122:
	.loc 1 137 0
	mov	eax, DWORD PTR [esp+60]
	mov	DWORD PTR [esp], eax
	call	_gtk_widget_show
LVL123:
	.loc 1 139 0
	mov	DWORD PTR [esp], OFFSET FLAT:LC5
	call	_gtk_label_new
LVL124:
	mov	ebx, eax
LVL125:
	.loc 1 140 0
	mov	DWORD PTR [esp+4], edi
	mov	eax, DWORD PTR [esp+60]
LVL126:
	mov	DWORD PTR [esp], eax
	call	_g_type_check_instance_cast
LVL127:
	mov	DWORD PTR [esp+16], 0
	mov	DWORD PTR [esp+12], 0
	mov	DWORD PTR [esp+8], 0
	mov	DWORD PTR [esp+4], ebx
	mov	DWORD PTR [esp], eax
	call	_gtk_box_pack_start
LVL128:
	.loc 1 141 0
	mov	DWORD PTR [esp], ebx
	call	_gtk_widget_show
LVL129:
	.loc 1 143 0
	mov	DWORD PTR [esp+12], 0
	lea	eax, [esp+88]
	mov	DWORD PTR [esp+8], eax
	lea	eax, [esp+84]
	mov	DWORD PTR [esp+4], eax
	mov	DWORD PTR [esp], 1
	call	_pidgin_create_imhtml
LVL130:
	mov	ebx, eax
LVL131:
	.loc 1 144 0
	test	esi, 2
	je	L75
LVL132:
L39:
	.loc 1 147 0
	and	esi, 1
LVL133:
	cmp	esi, 1
	sbb	esi, esi
	and	esi, 16
	mov	eax, DWORD PTR [esp+56]
	mov	DWORD PTR [esp], eax
	call	_purple_prefs_get_string
LVL134:
	mov	DWORD PTR [esp+36], eax
	call	_gtk_imhtml_get_type
LVL135:
	mov	DWORD PTR [esp+4], eax
	mov	eax, DWORD PTR [esp+84]
	mov	DWORD PTR [esp], eax
	call	_g_type_check_instance_cast
LVL136:
	mov	DWORD PTR [esp+12], 0
	mov	DWORD PTR [esp+8], esi
	mov	edx, DWORD PTR [esp+36]
	mov	DWORD PTR [esp+4], edx
	mov	DWORD PTR [esp], eax
	call	_gtk_imhtml_append_text_with_images
LVL137:
	.loc 1 149 0
	mov	esi, DWORD PTR [esp+84]
	call	_gtk_label_get_type
LVL138:
	mov	DWORD PTR [esp+4], eax
	mov	eax, DWORD PTR [esp+44]
	mov	DWORD PTR [esp], eax
	call	_g_type_check_instance_cast
LVL139:
	mov	DWORD PTR [esp+4], esi
	mov	DWORD PTR [esp], eax
	call	_gtk_label_set_mnemonic_widget
LVL140:
	.loc 1 150 0
	mov	DWORD PTR [esp], ebx
	call	_gtk_widget_show_all
LVL141:
	.loc 1 151 0
	mov	DWORD PTR [esp+4], 80
	mov	eax, DWORD PTR [esp+84]
	mov	DWORD PTR [esp], eax
	call	_g_type_check_instance_cast
LVL142:
	mov	edx, DWORD PTR [esp+56]
	mov	DWORD PTR [esp+8], edx
	mov	DWORD PTR [esp+4], OFFSET FLAT:LC0
	mov	DWORD PTR [esp], eax
	call	_g_object_set_data
LVL143:
	.loc 1 152 0
	call	_gtk_text_view_get_type
LVL144:
	mov	esi, DWORD PTR [esp+84]
	mov	DWORD PTR [esp+4], eax
	mov	DWORD PTR [esp], esi
	call	_g_type_check_instance_cast
LVL145:
	mov	DWORD PTR [esp], eax
	call	_gtk_text_view_get_buffer
LVL146:
	mov	DWORD PTR [esp+4], 80
	mov	DWORD PTR [esp], eax
	call	_g_type_check_instance_cast
LVL147:
	mov	DWORD PTR [esp+20], 0
	mov	DWORD PTR [esp+16], 0
	mov	DWORD PTR [esp+12], esi
	mov	DWORD PTR [esp+8], OFFSET FLAT:_imhtml_cb
	mov	DWORD PTR [esp+4], OFFSET FLAT:LC4
	mov	DWORD PTR [esp], eax
	call	_g_signal_connect_data
LVL148:
	.loc 1 154 0
	mov	esi, DWORD PTR [esp+84]
	mov	DWORD PTR [esp+4], 80
	mov	DWORD PTR [esp], esi
	call	_g_type_check_instance_cast
LVL149:
	mov	DWORD PTR [esp+20], 0
	mov	DWORD PTR [esp+16], 0
	mov	DWORD PTR [esp+12], esi
	mov	DWORD PTR [esp+8], OFFSET FLAT:_imhtml_format_cb
	mov	DWORD PTR [esp+4], OFFSET FLAT:LC6
	mov	DWORD PTR [esp], eax
	call	_g_signal_connect_data
LVL150:
	.loc 1 156 0
	mov	DWORD PTR [esp+4], edi
	mov	eax, DWORD PTR [esp+60]
	mov	DWORD PTR [esp], eax
	call	_g_type_check_instance_cast
LVL151:
	mov	DWORD PTR [esp+16], 0
	mov	DWORD PTR [esp+12], 1
	mov	DWORD PTR [esp+8], 1
	mov	DWORD PTR [esp+4], ebx
	mov	DWORD PTR [esp], eax
	call	_gtk_box_pack_start
LVL152:
	jmp	L24
LVL153:
	.p2align 2,,3
L70:
LBE23:
LBE25:
LBE29:
LBB30:
LBB31:
	.loc 1 195 0
	mov	DWORD PTR [esp], ebx
	call	_purple_plugin_pref_get_label
LVL154:
	mov	DWORD PTR [esp], eax
	call	_gtk_label_new
LVL155:
	mov	ebx, eax
LVL156:
	.loc 1 196 0
	call	_gtk_misc_get_type
LVL157:
	mov	DWORD PTR [esp+4], eax
	mov	DWORD PTR [esp], ebx
	call	_g_type_check_instance_cast
LVL158:
	mov	DWORD PTR [esp+8], 0x00000000
	mov	DWORD PTR [esp+4], 0x00000000
	mov	DWORD PTR [esp], eax
	call	_gtk_misc_set_alignment
LVL159:
	.loc 1 197 0
	call	_gtk_label_get_type
LVL160:
	mov	DWORD PTR [esp+4], eax
	mov	DWORD PTR [esp], ebx
	call	_g_type_check_instance_cast
LVL161:
	mov	DWORD PTR [esp+4], 1
	mov	DWORD PTR [esp], eax
	call	_gtk_label_set_line_wrap
LVL162:
	.loc 1 198 0
	call	_gtk_box_get_type
LVL163:
	mov	DWORD PTR [esp+4], eax
	mov	eax, DWORD PTR [esp+40]
	mov	DWORD PTR [esp], eax
	call	_g_type_check_instance_cast
LVL164:
	mov	DWORD PTR [esp+16], 0
	mov	DWORD PTR [esp+12], 0
	mov	DWORD PTR [esp+8], 0
	mov	DWORD PTR [esp+4], ebx
	mov	DWORD PTR [esp], eax
	call	_gtk_box_pack_start
LVL165:
	.loc 1 199 0
	mov	DWORD PTR [esp], ebx
	call	_gtk_widget_show
LVL166:
	jmp	L24
LVL167:
	.p2align 2,,3
L72:
LBE31:
LBE30:
LBB32:
LBB26:
	.loc 1 84 0
	mov	DWORD PTR [esp], ebx
	call	_purple_plugin_pref_get_choices
LVL168:
	mov	DWORD PTR [esp+16], eax
	mov	eax, DWORD PTR [esp+56]
	mov	DWORD PTR [esp+12], eax
	mov	DWORD PTR [esp+8], 3
	mov	eax, DWORD PTR [esp+44]
	mov	DWORD PTR [esp+4], eax
	jmp	L68
LVL169:
	.p2align 2,,3
L73:
	.loc 1 103 0
	mov	DWORD PTR [esp+4], edi
	mov	DWORD PTR [esp], esi
	call	_g_type_check_instance_cast
LVL170:
	mov	DWORD PTR [esp+4], 0
	mov	DWORD PTR [esp], eax
	call	_gtk_entry_set_visibility
LVL171:
	.loc 1 105 0
	mov	DWORD PTR [esp+4], edi
	mov	DWORD PTR [esp], esi
	call	_g_type_check_instance_cast
LVL172:
	mov	DWORD PTR [esp], eax
	call	_gtk_entry_get_invisible_char
LVL173:
	cmp	eax, 42
	jne	L36
	.loc 1 106 0
	mov	DWORD PTR [esp+4], edi
	mov	DWORD PTR [esp], esi
	call	_g_type_check_instance_cast
LVL174:
	mov	DWORD PTR [esp+4], 9679
	mov	DWORD PTR [esp], eax
	call	_gtk_entry_set_invisible_char
LVL175:
	jmp	L36
LVL176:
	.p2align 2,,3
L75:
LBB24:
	.loc 1 145 0
	mov	eax, DWORD PTR [esp+88]
LVL177:
	mov	DWORD PTR [esp], eax
	call	_gtk_widget_destroy
LVL178:
	jmp	L39
LVL179:
	.p2align 2,,3
L69:
LBE24:
LBE26:
LBE32:
LBE34:
	.loc 1 209 0
	mov	DWORD PTR [esp+8], OFFSET FLAT:LC7
	mov	DWORD PTR [esp+4], OFFSET FLAT:___PRETTY_FUNCTION__.77214
	mov	DWORD PTR [esp], 0
	call	_g_return_if_fail_warning
LVL180:
	mov	DWORD PTR [esp+52], 0
	jmp	L42
LVL181:
L71:
	.loc 1 258 0
	call	___stack_chk_fail
LVL182:
	.cfi_endproc
LFE99:
	.section .rdata,"dr"
	.align 32
___PRETTY_FUNCTION__.77214:
	.ascii "pidgin_plugin_pref_create_frame\0"
___PRETTY_FUNCTION__.77160:
	.ascii "imhtml_cb\0"
	.text
Letext0:
	.file 2 "c:/workspace/pidgin-devel/win32-dev/mingw-4.7.2/bin/../lib/gcc/mingw32/4.7.2/include/stddef.h"
	.file 3 "../../win32-dev/gtk_2_0-2.14/lib/glib-2.0/include/glibconfig.h"
	.file 4 "../../win32-dev/gtk_2_0-2.14/include/glib-2.0/glib/gtypes.h"
	.file 5 "../../win32-dev/gtk_2_0-2.14/include/glib-2.0/glib/garray.h"
	.file 6 "../../win32-dev/gtk_2_0-2.14/include/glib-2.0/glib/glist.h"
	.file 7 "../../win32-dev/gtk_2_0-2.14/include/glib-2.0/glib/gdataset.h"
	.file 8 "../../win32-dev/gtk_2_0-2.14/include/glib-2.0/glib/ghash.h"
	.file 9 "../../win32-dev/gtk_2_0-2.14/include/glib-2.0/glib/gslist.h"
	.file 10 "../../win32-dev/gtk_2_0-2.14/include/glib-2.0/glib/gunicode.h"
	.file 11 "../../win32-dev/gtk_2_0-2.14/include/glib-2.0/glib/gstring.h"
	.file 12 "../../win32-dev/gtk_2_0-2.14/include/glib-2.0/glib/gqueue.h"
	.file 13 "../../win32-dev/gtk_2_0-2.14/include/glib-2.0/glib/gtimer.h"
	.file 14 "c:/workspace/pidgin-devel/win32-dev/mingw-4.7.2/bin/../lib/gcc/mingw32/4.7.2/../../../../include/stdio.h"
	.file 15 "../../win32-dev/gtk_2_0-2.14/include/glib-2.0/gobject/gtype.h"
	.file 16 "../../win32-dev/gtk_2_0-2.14/include/glib-2.0/gobject/gvalue.h"
	.file 17 "../../win32-dev/gtk_2_0-2.14/include/glib-2.0/gobject/gclosure.h"
	.file 18 "../../win32-dev/gtk_2_0-2.14/include/glib-2.0/gobject/gsignal.h"
	.file 19 "../../win32-dev/gtk_2_0-2.14/include/glib-2.0/gobject/gobject.h"
	.file 20 "../libpurple/pluginpref.h"
	.file 21 "../libpurple/prefs.h"
	.file 22 "../../win32-dev/gtk_2_0-2.14/include/cairo/cairo.h"
	.file 23 "../../win32-dev/gtk_2_0-2.14/include/pango-1.0/pango/pango-language.h"
	.file 24 "../../win32-dev/gtk_2_0-2.14/include/pango-1.0/pango/pango-font.h"
	.file 25 "../../win32-dev/gtk_2_0-2.14/include/pango-1.0/pango/pango-attributes.h"
	.file 26 "../../win32-dev/gtk_2_0-2.14/include/pango-1.0/pango/pango-tabs.h"
	.file 27 "../../win32-dev/gtk_2_0-2.14/include/pango-1.0/pango/pango-layout.h"
	.file 28 "../../win32-dev/gtk_2_0-2.14/include/gtk-2.0/gdk/gdktypes.h"
	.file 29 "../../win32-dev/gtk_2_0-2.14/include/gtk-2.0/gdk/gdkcolor.h"
	.file 30 "../../win32-dev/gtk_2_0-2.14/include/gtk-2.0/gdk/gdkcursor.h"
	.file 31 "../../win32-dev/gtk_2_0-2.14/include/gtk-2.0/gdk/gdkfont.h"
	.file 32 "../../win32-dev/gtk_2_0-2.14/include/gtk-2.0/gdk/gdkgc.h"
	.file 33 "../../win32-dev/gtk_2_0-2.14/include/gtk-2.0/gdk/gdkvisual.h"
	.file 34 "../../win32-dev/gtk_2_0-2.14/include/gtk-2.0/gdk/gdkdrawable.h"
	.file 35 "../../win32-dev/gtk_2_0-2.14/include/gtk-2.0/gdk/gdkscreen.h"
	.file 36 "../../win32-dev/gtk_2_0-2.14/include/gtk-2.0/gdk-pixbuf/gdk-pixbuf-animation.h"
	.file 37 "../../win32-dev/gtk_2_0-2.14/include/gtk-2.0/gdk-pixbuf/gdk-pixbuf-loader.h"
	.file 38 "../../win32-dev/gtk_2_0-2.14/include/gtk-2.0/gtk/gtkenums.h"
	.file 39 "../../win32-dev/gtk_2_0-2.14/include/gtk-2.0/gtk/gtktypeutils.h"
	.file 40 "../../win32-dev/gtk_2_0-2.14/include/gtk-2.0/gtk/gtkobject.h"
	.file 41 "../../win32-dev/gtk_2_0-2.14/include/gtk-2.0/gtk/gtkadjustment.h"
	.file 42 "../../win32-dev/gtk_2_0-2.14/include/gtk-2.0/gtk/gtkstyle.h"
	.file 43 "../../win32-dev/gtk_2_0-2.14/include/gtk-2.0/gtk/gtkrc.h"
	.file 44 "../../win32-dev/gtk_2_0-2.14/include/gtk-2.0/gtk/gtkwidget.h"
	.file 45 "../../win32-dev/gtk_2_0-2.14/include/gtk-2.0/gtk/gtkwindow.h"
	.file 46 "../../win32-dev/gtk_2_0-2.14/include/gtk-2.0/gtk/gtkcontainer.h"
	.file 47 "../../win32-dev/gtk_2_0-2.14/include/gtk-2.0/gtk/gtkbin.h"
	.file 48 "../../win32-dev/gtk_2_0-2.14/include/gtk-2.0/gtk/gtkmisc.h"
	.file 49 "../../win32-dev/gtk_2_0-2.14/include/gtk-2.0/gtk/gtklabel.h"
	.file 50 "../../win32-dev/gtk_2_0-2.14/include/gtk-2.0/gtk/gtkbox.h"
	.file 51 "../../win32-dev/gtk_2_0-2.14/include/gtk-2.0/gtk/gtktexttag.h"
	.file 52 "../../win32-dev/gtk_2_0-2.14/include/gtk-2.0/gtk/gtktexttagtable.h"
	.file 53 "../../win32-dev/gtk_2_0-2.14/include/gtk-2.0/gtk/gtktextiter.h"
	.file 54 "../../win32-dev/gtk_2_0-2.14/include/gtk-2.0/gtk/gtktextbuffer.h"
	.file 55 "../../win32-dev/gtk_2_0-2.14/include/gtk-2.0/gtk/gtkimcontext.h"
	.file 56 "../../win32-dev/gtk_2_0-2.14/include/gtk-2.0/gtk/gtkentry.h"
	.file 57 "../../win32-dev/gtk_2_0-2.14/include/gtk-2.0/gtk/gtksizegroup.h"
	.file 58 "../../win32-dev/gtk_2_0-2.14/include/gtk-2.0/gtk/gtktextmark.h"
	.file 59 "../../win32-dev/gtk_2_0-2.14/include/gtk-2.0/gtk/gtktextview.h"
	.file 60 "gtksourceundomanager.h"
	.file 61 "gtkimhtml.h"
	.file 62 "c:/workspace/pidgin-devel/win32-dev/mingw-4.7.2/bin/../lib/gcc/mingw32/4.7.2/../../../../include/ctype.h"
	.file 63 "../../win32-dev/gtk_2_0-2.14/include/glib-2.0/glib/gmessages.h"
	.file 64 "../../win32-dev/gtk_2_0-2.14/include/glib-2.0/glib/gmem.h"
	.file 65 "../../win32-dev/gtk_2_0-2.14/include/gtk-2.0/gtk/gtkvbox.h"
	.file 66 "../../win32-dev/gtk_2_0-2.14/include/gtk-2.0/gtk/gtkhbox.h"
	.file 67 "gtkutils.h"
	.file 68 "gtkprefs.h"