	.file	"gtkstatusbox.c"
	.intel_syntax noprefix
	.text
Ltext0:
	.p2align 2,,3
	.def	_pidgin_status_box_child_type;	.scl	3;	.type	32;	.endef
_pidgin_status_box_child_type:
LFB107:
	.file 1 "gtkstatusbox.c"
	.loc 1 604 0
	.cfi_startproc
LVL0:
	sub	esp, 28
LCFI0:
	.cfi_def_cfa_offset 32
	.loc 1 604 0
	mov	eax, DWORD PTR ___stack_chk_guard
	mov	DWORD PTR [esp+12], eax
	xor	eax, eax
	.loc 1 605 0
	mov	eax, DWORD PTR [esp+12]
	xor	eax, DWORD PTR ___stack_chk_guard
	jne	L6
	.loc 1 606 0
	add	esp, 28
LCFI1:
	.cfi_remember_state
	.cfi_def_cfa_offset 4
	.loc 1 605 0
	jmp	_gtk_widget_get_type
LVL1:
L6:
LCFI2:
	.cfi_restore_state
	call	___stack_chk_fail
LVL2:
	.cfi_endproc
LFE107:
	.p2align 2,,3
	.def	_dropdown_store_row_separator_func;	.scl	3;	.type	32;	.endef
_dropdown_store_row_separator_func:
LFB119:
	.loc 1 1177 0
	.cfi_startproc
LVL3:
	sub	esp, 60
LCFI3:
	.cfi_def_cfa_offset 64
	.loc 1 1177 0
	mov	eax, DWORD PTR ___stack_chk_guard
	mov	DWORD PTR [esp+44], eax
	xor	eax, eax
	.loc 1 1180 0
	mov	DWORD PTR [esp+16], -1
	lea	eax, [esp+40]
	mov	DWORD PTR [esp+12], eax
	mov	DWORD PTR [esp+8], 0
	mov	eax, DWORD PTR [esp+68]
	mov	DWORD PTR [esp+4], eax
	mov	eax, DWORD PTR [esp+64]
	mov	DWORD PTR [esp], eax
	call	_gtk_tree_model_get
LVL4:
	.loc 1 1182 0
	xor	eax, eax
LVL5:
	mov	edx, DWORD PTR [esp+40]
	test	edx, edx
	sete	al
	.loc 1 1186 0
	mov	edx, DWORD PTR [esp+44]
	xor	edx, DWORD PTR ___stack_chk_guard
	jne	L10
	add	esp, 60
LCFI4:
	.cfi_remember_state
	.cfi_def_cfa_offset 4
	ret
L10:
LCFI5:
	.cfi_restore_state
	call	___stack_chk_fail
LVL6:
	.cfi_endproc
LFE119:
	.section .rdata,"dr"
LC0:
	.ascii "pidgin-icon-size-tango-medium\0"
	.text
	.p2align 2,,3
	.def	_pixbuf_size_prepared_cb;	.scl	3;	.type	32;	.endef
_pixbuf_size_prepared_cb:
LFB155:
	.loc 1 2200 0
	.cfi_startproc
LVL7:
	push	ebp
LCFI6:
	.cfi_def_cfa_offset 8
	.cfi_offset 5, -8
	push	edi
LCFI7:
	.cfi_def_cfa_offset 12
	.cfi_offset 7, -12
	push	esi
LCFI8:
	.cfi_def_cfa_offset 16
	.cfi_offset 6, -16
	push	ebx
LCFI9:
	.cfi_def_cfa_offset 20
	.cfi_offset 3, -20
	sub	esp, 44
LCFI10:
	.cfi_def_cfa_offset 64
	mov	ebp, DWORD PTR [esp+64]
	mov	esi, DWORD PTR [esp+68]
	mov	ebx, DWORD PTR [esp+72]
	.loc 1 2200 0
	mov	eax, DWORD PTR ___stack_chk_guard
	mov	DWORD PTR [esp+28], eax
	xor	eax, eax
	.loc 1 2202 0
	mov	DWORD PTR [esp], OFFSET FLAT:LC0
	call	_gtk_icon_size_from_name
LVL8:
	.loc 1 2203 0
	lea	edx, [esp+24]
	mov	DWORD PTR [esp+8], edx
	lea	edx, [esp+20]
	mov	DWORD PTR [esp+4], edx
	mov	DWORD PTR [esp], eax
	call	_gtk_icon_size_lookup
LVL9:
	.loc 1 2204 0
	cmp	ebx, esi
	jg	L17
	.loc 1 2206 0
	jge	L18
LVL10:
	.loc 1 2207 0
	mov	ecx, DWORD PTR [esp+20]
	mov	eax, ebx
	imul	eax, ecx
	cdq
	idiv	esi
	mov	edi, eax
	mov	DWORD PTR [esp+24], eax
LVL11:
L13:
	.loc 1 2208 0
	mov	DWORD PTR [esp+8], edi
	mov	DWORD PTR [esp+4], ecx
	mov	DWORD PTR [esp], ebp
	call	_gdk_pixbuf_loader_set_size
LVL12:
	.loc 1 2209 0
	mov	eax, DWORD PTR [esp+28]
	xor	eax, DWORD PTR ___stack_chk_guard
	jne	L19
	add	esp, 44
LCFI11:
	.cfi_remember_state
	.cfi_def_cfa_offset 20
	pop	ebx
LCFI12:
	.cfi_restore 3
	.cfi_def_cfa_offset 16
	pop	esi
LCFI13:
	.cfi_restore 6
	.cfi_def_cfa_offset 12
	pop	edi
LCFI14:
	.cfi_restore 7
	.cfi_def_cfa_offset 8
	pop	ebp
LCFI15:
	.cfi_restore 5
	.cfi_def_cfa_offset 4
	ret
LVL13:
	.p2align 2,,3
L18:
LCFI16:
	.cfi_restore_state
	mov	edi, DWORD PTR [esp+24]
LVL14:
	mov	ecx, DWORD PTR [esp+20]
	jmp	L13
LVL15:
	.p2align 2,,3
L17:
	.loc 1 2205 0
	mov	edi, DWORD PTR [esp+24]
	mov	eax, esi
	imul	eax, edi
	cdq
	idiv	ebx
	mov	ecx, eax
	mov	DWORD PTR [esp+20], eax
LVL16:
	jmp	L13
L19:
	.loc 1 2209 0
	call	___stack_chk_fail
LVL17:
	.cfi_endproc
LFE155:
	.p2align 2,,3
	.def	_check_active_accounts_for_identical_statuses;	.scl	3;	.type	32;	.endef
_check_active_accounts_for_identical_statuses:
LFB113:
	.loc 1 1004 0
	.cfi_startproc
	push	ebp
LCFI17:
	.cfi_def_cfa_offset 8
	.cfi_offset 5, -8
	push	edi
LCFI18:
	.cfi_def_cfa_offset 12
	.cfi_offset 7, -12
	push	esi
LCFI19:
	.cfi_def_cfa_offset 16
	.cfi_offset 6, -16
	push	ebx
LCFI20:
	.cfi_def_cfa_offset 20
	.cfi_offset 3, -20
	sub	esp, 76
LCFI21:
	.cfi_def_cfa_offset 96
	.loc 1 1004 0
	mov	eax, DWORD PTR ___stack_chk_guard
	mov	DWORD PTR [esp+60], eax
	xor	eax, eax
	.loc 1 1005 0
	call	_purple_accounts_get_all_active
LVL18:
	mov	DWORD PTR [esp+44], eax
LVL19:
	.loc 1 1009 0
	test	eax, eax
	je	L29
	.loc 1 1010 0
	mov	eax, DWORD PTR [eax]
LVL20:
	mov	DWORD PTR [esp+36], eax
LVL21:
	.loc 1 1011 0
	mov	DWORD PTR [esp], eax
	call	_purple_account_get_protocol_id
LVL22:
	mov	DWORD PTR [esp+40], eax
LVL23:
	.loc 1 1018 0
	mov	eax, DWORD PTR [esp+44]
LVL24:
	mov	eax, DWORD PTR [eax+4]
	mov	DWORD PTR [esp+32], eax
LVL25:
	test	eax, eax
	je	L22
LVL26:
	.p2align 2,,3
L41:
LBB12:
	.loc 1 1019 0
	mov	edx, DWORD PTR [esp+32]
	mov	esi, DWORD PTR [edx]
LVL27:
	.loc 1 1022 0
	mov	DWORD PTR [esp], esi
	call	_purple_account_get_protocol_id
LVL28:
	mov	DWORD PTR [esp+4], eax
	mov	eax, DWORD PTR [esp+40]
	mov	DWORD PTR [esp], eax
	call	_g_str_equal
LVL29:
	test	eax, eax
	je	L25
	.loc 1 1027 0
	mov	eax, DWORD PTR [esp+36]
	mov	DWORD PTR [esp], eax
	call	_purple_account_get_status_types
LVL30:
	mov	ebx, eax
LVL31:
	.loc 1 1028 0
	mov	DWORD PTR [esp], esi
	call	_purple_account_get_status_types
LVL32:
	mov	ebp, eax
LVL33:
	.loc 1 1027 0
	test	ebx, ebx
	jne	L51
	jmp	L24
LVL34:
	.p2align 2,,3
L52:
LBB13:
	.loc 1 1030 0
	mov	esi, DWORD PTR [ebx]
LVL35:
	mov	edi, DWORD PTR [ebp+0]
LVL36:
	.loc 1 1032 0
	mov	DWORD PTR [esp], esi
	call	_purple_status_type_get_primitive
LVL37:
	mov	DWORD PTR [esp+28], eax
	mov	DWORD PTR [esp], edi
	call	_purple_status_type_get_primitive
LVL38:
	cmp	DWORD PTR [esp+28], eax
	jne	L32
	.loc 1 1033 0
	mov	DWORD PTR [esp], edi
	call	_purple_status_type_get_id
LVL39:
	mov	DWORD PTR [esp], esi
	mov	DWORD PTR [esp+24], eax
	call	_purple_status_type_get_id
LVL40:
	mov	edx, DWORD PTR [esp+24]
	mov	DWORD PTR [esp+4], edx
	mov	DWORD PTR [esp], eax
	call	_strcmp
LVL41:
	test	eax, eax
	jne	L32
	.loc 1 1034 0
	mov	DWORD PTR [esp], edi
	call	_purple_status_type_get_name
LVL42:
	mov	edi, eax
LVL43:
	mov	DWORD PTR [esp], esi
	call	_purple_status_type_get_name
LVL44:
	mov	DWORD PTR [esp+4], edi
	mov	DWORD PTR [esp], eax
	call	_strcmp
LVL45:
	test	eax, eax
	jne	L32
LBE13:
	.loc 1 1029 0
	mov	ebx, DWORD PTR [ebx+4]
LVL46:
	mov	ebp, DWORD PTR [ebp+4]
LVL47:
	.loc 1 1027 0
	test	ebx, ebx
	je	L24
LVL48:
L51:
	.loc 1 1028 0
	test	ebp, ebp
	jne	L52
LVL49:
L25:
LBB14:
	.loc 1 1023 0
	mov	DWORD PTR [esp+36], 0
L22:
LBE14:
LBE12:
	.loc 1 1046 0
	mov	eax, DWORD PTR [esp+44]
	mov	DWORD PTR [esp], eax
	call	_g_list_free
LVL50:
L21:
	.loc 1 1049 0
	mov	eax, DWORD PTR [esp+36]
	mov	edx, DWORD PTR [esp+60]
	xor	edx, DWORD PTR ___stack_chk_guard
	jne	L53
	add	esp, 76
LCFI22:
	.cfi_remember_state
	.cfi_def_cfa_offset 20
	pop	ebx
LCFI23:
	.cfi_restore 3
	.cfi_def_cfa_offset 16
	pop	esi
LCFI24:
	.cfi_restore 6
	.cfi_def_cfa_offset 12
	pop	edi
LCFI25:
	.cfi_restore 7
	.cfi_def_cfa_offset 8
	pop	ebp
LCFI26:
	.cfi_restore 5
	.cfi_def_cfa_offset 4
	ret
LVL51:
	.p2align 2,,3
L32:
LCFI27:
	.cfi_restore_state
LBB16:
LBB15:
	.loc 1 1035 0
	mov	DWORD PTR [esp+36], 0
LVL52:
L24:
LBE15:
	.loc 1 1040 0
	cmp	ebx, ebp
	jne	L25
LBE16:
	.loc 1 1018 0
	mov	edx, DWORD PTR [esp+32]
	mov	edx, DWORD PTR [edx+4]
	mov	DWORD PTR [esp+32], edx
LVL53:
	test	edx, edx
	jne	L41
	jmp	L22
LVL54:
L29:
	.loc 1 1014 0
	mov	DWORD PTR [esp+36], 0
	jmp	L21
LVL55:
L53:
	.loc 1 1049 0
	call	___stack_chk_fail
LVL56:
	.cfi_endproc
LFE113:
	.p2align 2,,3
	.def	_find_status_type_by_index;	.scl	3;	.type	32;	.endef
_find_status_type_by_index:
LFB110:
	.loc 1 794 0
	.cfi_startproc
LVL57:
	push	ebp
LCFI28:
	.cfi_def_cfa_offset 8
	.cfi_offset 5, -8
	push	edi
LCFI29:
	.cfi_def_cfa_offset 12
	.cfi_offset 7, -12
	push	esi
LCFI30:
	.cfi_def_cfa_offset 16
	.cfi_offset 6, -16
	push	ebx
LCFI31:
	.cfi_def_cfa_offset 20
	.cfi_offset 3, -20
	sub	esp, 44
LCFI32:
	.cfi_def_cfa_offset 64
	mov	ebp, edx
	.loc 1 794 0
	mov	edx, DWORD PTR ___stack_chk_guard
	mov	DWORD PTR [esp+28], edx
	xor	edx, edx
LVL58:
	.loc 1 795 0
	mov	DWORD PTR [esp], eax
	call	_purple_account_get_status_types
LVL59:
	mov	ebx, eax
LVL60:
	.loc 1 798 0
	xor	edi, edi
	test	eax, eax
	jne	L63
	jmp	L58
LVL61:
	.p2align 2,,3
L57:
	mov	ebx, DWORD PTR [ebx+4]
LVL62:
	test	ebx, ebx
	je	L58
LVL63:
L63:
LBB17:
	.loc 1 799 0
	mov	esi, DWORD PTR [ebx]
LVL64:
	.loc 1 800 0
	mov	DWORD PTR [esp], esi
	call	_purple_status_type_is_user_settable
LVL65:
	test	eax, eax
	je	L57
	.loc 1 801 0 discriminator 1
	mov	DWORD PTR [esp], esi
	call	_purple_status_type_is_independent
LVL66:
	.loc 1 800 0 discriminator 1
	test	eax, eax
	jne	L57
	.loc 1 804 0
	cmp	ebp, edi
	je	L56
	.loc 1 806 0
	inc	edi
LVL67:
LBE17:
	.loc 1 798 0
	mov	ebx, DWORD PTR [ebx+4]
LVL68:
	test	ebx, ebx
	jne	L63
LVL69:
	.p2align 2,,3
L58:
	.loc 1 809 0
	xor	esi, esi
L56:
	.loc 1 810 0
	mov	eax, esi
	mov	edx, DWORD PTR [esp+28]
	xor	edx, DWORD PTR ___stack_chk_guard
	jne	L67
	add	esp, 44
LCFI33:
	.cfi_remember_state
	.cfi_def_cfa_offset 20
	pop	ebx
LCFI34:
	.cfi_restore 3
	.cfi_def_cfa_offset 16
LVL70:
	pop	esi
LCFI35:
	.cfi_restore 6
	.cfi_def_cfa_offset 12
	pop	edi
LCFI36:
	.cfi_restore 7
	.cfi_def_cfa_offset 8
	pop	ebp
LCFI37:
	.cfi_restore 5
	.cfi_def_cfa_offset 4
LVL71:
	ret
LVL72:
L67:
LCFI38:
	.cfi_restore_state
	call	___stack_chk_fail
LVL73:
	.cfi_endproc
LFE110:
	.p2align 2,,3
	.def	_treeview_cursor_changed_cb;	.scl	3;	.type	32;	.endef
_treeview_cursor_changed_cb:
LFB142:
	.loc 1 1702 0
	.cfi_startproc
LVL74:
	push	ebp
LCFI39:
	.cfi_def_cfa_offset 8
	.cfi_offset 5, -8
	push	edi
LCFI40:
	.cfi_def_cfa_offset 12
	.cfi_offset 7, -12
	push	esi
LCFI41:
	.cfi_def_cfa_offset 16
	.cfi_offset 6, -16
	push	ebx
LCFI42:
	.cfi_def_cfa_offset 20
	.cfi_offset 3, -20
	sub	esp, 60
LCFI43:
	.cfi_def_cfa_offset 80
	mov	ebx, DWORD PTR [esp+80]
	mov	esi, DWORD PTR [esp+84]
	.loc 1 1702 0
	mov	eax, DWORD PTR ___stack_chk_guard
	mov	DWORD PTR [esp+44], eax
	xor	eax, eax
	.loc 1 1703 0
	mov	DWORD PTR [esp], ebx
	call	_gtk_tree_view_get_selection
LVL75:
	mov	edi, eax
LVL76:
	.loc 1 1704 0
	call	_gtk_tree_model_get_type
LVL77:
	mov	DWORD PTR [esp+4], eax
	mov	DWORD PTR [esp], esi
	call	_g_type_check_instance_cast
LVL78:
	mov	ebp, eax
LVL79:
	.loc 1 1710 0
	lea	esi, [esp+28]
	mov	DWORD PTR [esp+8], esi
	mov	DWORD PTR [esp+4], 0
	mov	DWORD PTR [esp], edi
	call	_gtk_tree_selection_get_selected
LVL80:
	test	eax, eax
	jne	L87
LVL81:
L68:
	.loc 1 1740 0
	mov	eax, DWORD PTR [esp+44]
	xor	eax, DWORD PTR ___stack_chk_guard
	jne	L88
	add	esp, 60
LCFI44:
	.cfi_remember_state
	.cfi_def_cfa_offset 20
	pop	ebx
LCFI45:
	.cfi_restore 3
	.cfi_def_cfa_offset 16
	pop	esi
LCFI46:
	.cfi_restore 6
	.cfi_def_cfa_offset 12
	pop	edi
LCFI47:
	.cfi_restore 7
	.cfi_def_cfa_offset 8
LVL82:
	pop	ebp
LCFI48:
	.cfi_restore 5
	.cfi_def_cfa_offset 4
LVL83:
	ret
LVL84:
	.p2align 2,,3
L87:
LCFI49:
	.cfi_restore_state
	.loc 1 1711 0
	mov	DWORD PTR [esp+4], esi
	mov	DWORD PTR [esp], ebp
	call	_gtk_tree_model_get_path
LVL85:
	mov	esi, eax
LVL86:
	test	eax, eax
	je	L68
	.loc 1 1720 0
	mov	DWORD PTR [esp+8], 0
	lea	eax, [esp+24]
LVL87:
	mov	DWORD PTR [esp+4], eax
	mov	DWORD PTR [esp], ebx
	call	_gtk_tree_view_get_cursor
LVL88:
	.loc 1 1721 0
	mov	eax, DWORD PTR [esp+24]
	test	eax, eax
	je	L89
	.loc 1 1727 0
	mov	DWORD PTR [esp+4], esi
	mov	DWORD PTR [esp], eax
	call	_gtk_tree_path_compare
LVL89:
	.loc 1 1728 0
	cmp	eax, 0
	jl	L90
	.loc 1 1732 0
	je	L73
	.loc 1 1734 0
	mov	eax, DWORD PTR [esp+24]
LVL90:
	mov	DWORD PTR [esp], eax
	call	_gtk_tree_path_next
LVL91:
L86:
	.loc 1 1735 0
	mov	DWORD PTR [esp+12], 0
	mov	DWORD PTR [esp+8], 0
	mov	eax, DWORD PTR [esp+24]
	mov	DWORD PTR [esp+4], eax
	mov	DWORD PTR [esp], ebx
	call	_gtk_tree_view_set_cursor
LVL92:
L73:
	.loc 1 1738 0
	mov	DWORD PTR [esp], esi
	call	_gtk_tree_path_free
LVL93:
	.loc 1 1739 0
	mov	eax, DWORD PTR [esp+24]
	mov	DWORD PTR [esp], eax
	call	_gtk_tree_path_free
LVL94:
	jmp	L68
	.p2align 2,,3
L89:
	.loc 1 1723 0
	mov	DWORD PTR [esp], esi
	call	_gtk_tree_path_free
LVL95:
	jmp	L68
LVL96:
	.p2align 2,,3
L90:
	.loc 1 1730 0
	mov	eax, DWORD PTR [esp+24]
LVL97:
	mov	DWORD PTR [esp], eax
	call	_gtk_tree_path_prev
LVL98:
	jmp	L86
LVL99:
L88:
	.loc 1 1740 0
	call	___stack_chk_fail
LVL100:
	.cfi_endproc
LFE142:
	.p2align 2,,3
	.def	_pidgin_status_box_popdown;	.scl	3;	.type	32;	.endef
_pidgin_status_box_popdown:
LFB128:
	.loc 1 1416 0
	.cfi_startproc
LVL101:
	push	ebx
LCFI50:
	.cfi_def_cfa_offset 8
	.cfi_offset 3, -8
	sub	esp, 40
LCFI51:
	.cfi_def_cfa_offset 48
	mov	ebx, eax
	.loc 1 1416 0
	mov	eax, DWORD PTR ___stack_chk_guard
	mov	DWORD PTR [esp+28], eax
	xor	eax, eax
LVL102:
	.loc 1 1417 0
	mov	eax, DWORD PTR [ebx+276]
	mov	DWORD PTR [esp], eax
	call	_gtk_widget_hide
LVL103:
	.loc 1 1418 0
	mov	DWORD PTR [ebx+300], 0
	.loc 1 1419 0
	call	_gtk_toggle_button_get_type
LVL104:
	mov	DWORD PTR [esp+4], eax
	mov	eax, DWORD PTR [ebx+264]
	mov	DWORD PTR [esp], eax
	call	_g_type_check_instance_cast
LVL105:
	mov	DWORD PTR [esp+4], 0
	mov	DWORD PTR [esp], eax
	call	_gtk_toggle_button_set_active
LVL106:
	.loc 1 1421 0
	mov	eax, DWORD PTR [ebx+276]
	mov	DWORD PTR [esp], eax
	call	_gtk_grab_remove
LVL107:
	.loc 1 1422 0
	mov	eax, DWORD PTR [esp+28]
	xor	eax, DWORD PTR ___stack_chk_guard
	jne	L94
	add	esp, 40
LCFI52:
	.cfi_remember_state
	.cfi_def_cfa_offset 8
	pop	ebx
LCFI53:
	.cfi_restore 3
	.cfi_def_cfa_offset 4
LVL108:
	ret
LVL109:
L94:
LCFI54:
	.cfi_restore_state
	call	___stack_chk_fail
LVL110:
	.cfi_endproc
LFE128:
	.p2align 2,,3
	.def	_imhtml_scroll_event_cb;	.scl	3;	.type	32;	.endef
_imhtml_scroll_event_cb:
LFB117:
	.loc 1 1128 0
	.cfi_startproc
LVL111:
	sub	esp, 44
LCFI55:
	.cfi_def_cfa_offset 48
	mov	edx, DWORD PTR [esp+56]
	.loc 1 1128 0
	mov	eax, DWORD PTR ___stack_chk_guard
	mov	DWORD PTR [esp+28], eax
	xor	eax, eax
	.loc 1 1129 0
	mov	eax, DWORD PTR [esp+52]
	mov	eax, DWORD PTR [eax+36]
	test	eax, eax
	je	L100
	.loc 1 1131 0
	dec	eax
	je	L101
L97:
	.loc 1 1134 0
	mov	eax, 1
	mov	edx, DWORD PTR [esp+28]
	xor	edx, DWORD PTR ___stack_chk_guard
	jne	L102
	add	esp, 44
LCFI56:
	.cfi_remember_state
	.cfi_def_cfa_offset 4
	ret
	.p2align 2,,3
L100:
LCFI57:
	.cfi_restore_state
	.loc 1 1130 0
	mov	DWORD PTR [esp], edx
	call	_gtk_imhtml_page_up
LVL112:
	jmp	L97
	.p2align 2,,3
L101:
	.loc 1 1132 0
	mov	DWORD PTR [esp], edx
	call	_gtk_imhtml_page_down
LVL113:
	jmp	L97
L102:
	.loc 1 1134 0
	call	___stack_chk_fail
LVL114:
	.cfi_endproc
LFE117:
	.section .rdata,"dr"
	.align 4
LC1:
	.ascii "The account, or NULL for all accounts\0"
LC2:
	.ascii "Account\0"
LC3:
	.ascii "account\0"
	.align 4
LC4:
	.ascii "Whether the icon selector should be displayed or not.\0"
LC5:
	.ascii "Icon Selector\0"
LC6:
	.ascii "iconsel\0"
	.text
	.p2align 2,,3
	.def	_pidgin_status_box_class_init;	.scl	3;	.type	32;	.endef
_pidgin_status_box_class_init:
LFB108:
	.loc 1 610 0
	.cfi_startproc
LVL115:
	push	ebx
LCFI58:
	.cfi_def_cfa_offset 8
	.cfi_offset 3, -8
	sub	esp, 56
LCFI59:
	.cfi_def_cfa_offset 64
	mov	ebx, DWORD PTR [esp+64]
	.loc 1 610 0
	mov	eax, DWORD PTR ___stack_chk_guard
	mov	DWORD PTR [esp+44], eax
	xor	eax, eax
LVL116:
	.loc 1 615 0
	mov	DWORD PTR [esp], ebx
	call	_g_type_class_peek_parent
LVL117:
	mov	DWORD PTR _parent_class, eax
LVL118:
	.loc 1 618 0
	mov	DWORD PTR [ebx+124], OFFSET FLAT:_pidgin_status_box_size_request
	.loc 1 619 0
	mov	DWORD PTR [ebx+128], OFFSET FLAT:_pidgin_status_box_size_allocate
	.loc 1 620 0
	mov	DWORD PTR [ebx+200], OFFSET FLAT:_pidgin_status_box_expose_event
	.loc 1 622 0
	mov	DWORD PTR [ebx+384], OFFSET FLAT:_pidgin_status_box_child_type
	.loc 1 623 0
	mov	DWORD PTR [ebx+376], OFFSET FLAT:_pidgin_status_box_forall
	.loc 1 624 0
	mov	DWORD PTR [ebx+368], 0
LVL119:
	.loc 1 628 0
	mov	DWORD PTR [ebx+24], OFFSET FLAT:_pidgin_status_box_finalize
	.loc 1 630 0
	mov	DWORD PTR [ebx+16], OFFSET FLAT:_pidgin_status_box_get_property
	.loc 1 631 0
	mov	DWORD PTR [ebx+12], OFFSET FLAT:_pidgin_status_box_set_property
	.loc 1 633 0
	mov	DWORD PTR [esp+12], 3
	mov	DWORD PTR [esp+8], OFFSET FLAT:LC1
	mov	DWORD PTR [esp+4], OFFSET FLAT:LC2
	mov	DWORD PTR [esp], OFFSET FLAT:LC3
	call	_g_param_spec_pointer
LVL120:
	mov	DWORD PTR [esp+8], eax
	mov	DWORD PTR [esp+4], 1
	mov	DWORD PTR [esp], ebx
	call	_g_object_class_install_property
LVL121:
	.loc 1 641 0
	mov	DWORD PTR [esp+16], 3
	mov	DWORD PTR [esp+12], 0
	mov	DWORD PTR [esp+8], OFFSET FLAT:LC4
	mov	DWORD PTR [esp+4], OFFSET FLAT:LC5
	mov	DWORD PTR [esp], OFFSET FLAT:LC6
	call	_g_param_spec_boolean
LVL122:
	mov	DWORD PTR [esp+8], eax
	mov	DWORD PTR [esp+4], 2
	mov	DWORD PTR [esp], ebx
	call	_g_object_class_install_property
LVL123:
	.loc 1 650 0
	mov	eax, DWORD PTR [esp+44]
	xor	eax, DWORD PTR ___stack_chk_guard
	jne	L106
	add	esp, 56
LCFI60:
	.cfi_remember_state
	.cfi_def_cfa_offset 8
	pop	ebx
LCFI61:
	.cfi_restore 3
	.cfi_def_cfa_offset 4
LVL124:
	ret
LVL125:
L106:
LCFI62:
	.cfi_restore_state
	call	___stack_chk_fail
LVL126:
	.cfi_endproc
LFE108:
	.p2align 2,,3
	.def	_icon_box_leave_cb;	.scl	3;	.type	32;	.endef
_icon_box_leave_cb:
LFB102:
	.loc 1 429 0
	.cfi_startproc
LVL127:
	push	esi
LCFI63:
	.cfi_def_cfa_offset 8
	.cfi_offset 6, -8
	push	ebx
LCFI64:
	.cfi_def_cfa_offset 12
	.cfi_offset 3, -12
	sub	esp, 36
LCFI65:
	.cfi_def_cfa_offset 48
	mov	ebx, DWORD PTR [esp+56]
	.loc 1 429 0
	mov	eax, DWORD PTR ___stack_chk_guard
	mov	DWORD PTR [esp+28], eax
	xor	eax, eax
	.loc 1 430 0
	mov	eax, DWORD PTR [ebx+128]
	mov	DWORD PTR [esp+4], eax
	mov	eax, DWORD PTR [esp+48]
	mov	eax, DWORD PTR [eax+52]
	mov	DWORD PTR [esp], eax
	call	_gdk_window_set_cursor
LVL128:
	.loc 1 431 0
	mov	esi, DWORD PTR [ebx+100]
	call	_gtk_image_get_type
LVL129:
	mov	DWORD PTR [esp+4], eax
	mov	eax, DWORD PTR [ebx+112]
	mov	DWORD PTR [esp], eax
	call	_g_type_check_instance_cast
LVL130:
	mov	DWORD PTR [esp+4], esi
	mov	DWORD PTR [esp], eax
	call	_gtk_image_set_from_pixbuf
LVL131:
	.loc 1 433 0
	xor	eax, eax
	mov	edx, DWORD PTR [esp+28]
	xor	edx, DWORD PTR ___stack_chk_guard
	jne	L110
	add	esp, 36
LCFI66:
	.cfi_remember_state
	.cfi_def_cfa_offset 12
	pop	ebx
LCFI67:
	.cfi_restore 3
	.cfi_def_cfa_offset 8
	pop	esi
LCFI68:
	.cfi_restore 6
	.cfi_def_cfa_offset 4
	ret
L110:
LCFI69:
	.cfi_restore_state
	call	___stack_chk_fail
LVL132:
	.cfi_endproc
LFE102:
	.p2align 2,,3
	.def	_icon_box_enter_cb;	.scl	3;	.type	32;	.endef
_icon_box_enter_cb:
LFB101:
	.loc 1 421 0
	.cfi_startproc
LVL133:
	push	esi
LCFI70:
	.cfi_def_cfa_offset 8
	.cfi_offset 6, -8
	push	ebx
LCFI71:
	.cfi_def_cfa_offset 12
	.cfi_offset 3, -12
	sub	esp, 36
LCFI72:
	.cfi_def_cfa_offset 48
	mov	ebx, DWORD PTR [esp+56]
	.loc 1 421 0
	mov	eax, DWORD PTR ___stack_chk_guard
	mov	DWORD PTR [esp+28], eax
	xor	eax, eax
	.loc 1 422 0
	mov	eax, DWORD PTR [ebx+124]
	mov	DWORD PTR [esp+4], eax
	mov	eax, DWORD PTR [esp+48]
	mov	eax, DWORD PTR [eax+52]
	mov	DWORD PTR [esp], eax
	call	_gdk_window_set_cursor
LVL134:
	.loc 1 423 0
	mov	esi, DWORD PTR [ebx+104]
	call	_gtk_image_get_type
LVL135:
	mov	DWORD PTR [esp+4], eax
	mov	eax, DWORD PTR [ebx+112]
	mov	DWORD PTR [esp], eax
	call	_g_type_check_instance_cast
LVL136:
	mov	DWORD PTR [esp+4], esi
	mov	DWORD PTR [esp], eax
	call	_gtk_image_set_from_pixbuf
LVL137:
	.loc 1 425 0
	xor	eax, eax
	mov	edx, DWORD PTR [esp+28]
	xor	edx, DWORD PTR ___stack_chk_guard
	jne	L114
	add	esp, 36
LCFI73:
	.cfi_remember_state
	.cfi_def_cfa_offset 12
	pop	ebx
LCFI74:
	.cfi_restore 3
	.cfi_def_cfa_offset 8
	pop	esi
LCFI75:
	.cfi_restore 6
	.cfi_def_cfa_offset 4
	ret
L114:
LCFI76:
	.cfi_restore_state
	call	___stack_chk_fail
LVL138:
	.cfi_endproc
LFE101:
	.p2align 2,,3
	.def	_destroy_icon_box;	.scl	3;	.type	32;	.endef
_destroy_icon_box:
LFB104:
	.loc 1 505 0
	.cfi_startproc
LVL139:
	push	ebx
LCFI77:
	.cfi_def_cfa_offset 8
	.cfi_offset 3, -8
	sub	esp, 40
LCFI78:
	.cfi_def_cfa_offset 48
	mov	ebx, eax
	.loc 1 505 0
	mov	eax, DWORD PTR ___stack_chk_guard
	mov	DWORD PTR [esp+28], eax
	xor	eax, eax
LVL140:
	.loc 1 506 0
	mov	eax, DWORD PTR [ebx+116]
	test	eax, eax
	je	L115
	.loc 1 509 0
	mov	DWORD PTR [esp], eax
	call	_gtk_widget_destroy
LVL141:
	.loc 1 510 0
	mov	eax, DWORD PTR [ebx+124]
	mov	DWORD PTR [esp], eax
	call	_gdk_cursor_unref
LVL142:
	.loc 1 511 0
	mov	eax, DWORD PTR [ebx+128]
	mov	DWORD PTR [esp], eax
	call	_gdk_cursor_unref
LVL143:
	.loc 1 513 0
	mov	eax, DWORD PTR [ebx+96]
	mov	DWORD PTR [esp], eax
	call	_purple_imgstore_unref
LVL144:
	.loc 1 515 0
	mov	DWORD PTR [esp+4], 80
	mov	eax, DWORD PTR [ebx+100]
	mov	DWORD PTR [esp], eax
	call	_g_type_check_instance_cast
LVL145:
	mov	DWORD PTR [esp], eax
	call	_g_object_unref
LVL146:
	.loc 1 516 0
	mov	DWORD PTR [esp+4], 80
	mov	eax, DWORD PTR [ebx+104]
	mov	DWORD PTR [esp], eax
	call	_g_type_check_instance_cast
LVL147:
	mov	DWORD PTR [esp], eax
	call	_g_object_unref
LVL148:
	.loc 1 518 0
	mov	eax, DWORD PTR [ebx+108]
	test	eax, eax
	je	L117
	.loc 1 519 0
	mov	DWORD PTR [esp], eax
	call	_gtk_widget_destroy
LVL149:
L117:
	.loc 1 521 0
	mov	eax, DWORD PTR [ebx+120]
	test	eax, eax
	je	L118
	.loc 1 522 0
	mov	DWORD PTR [esp], eax
	call	_gtk_widget_destroy
LVL150:
L118:
	.loc 1 524 0
	mov	DWORD PTR [ebx+112], 0
	.loc 1 525 0
	mov	DWORD PTR [ebx+116], 0
	.loc 1 526 0
	mov	DWORD PTR [ebx+120], 0
	.loc 1 527 0
	mov	DWORD PTR [ebx+96], 0
	.loc 1 528 0
	mov	DWORD PTR [ebx+100], 0
	.loc 1 529 0
	mov	DWORD PTR [ebx+104], 0
	.loc 1 530 0
	mov	DWORD PTR [ebx+124], 0
	.loc 1 531 0
	mov	DWORD PTR [ebx+128], 0
L115:
	.loc 1 532 0
	mov	eax, DWORD PTR [esp+28]
	xor	eax, DWORD PTR ___stack_chk_guard
	jne	L130
	add	esp, 40
LCFI79:
	.cfi_remember_state
	.cfi_def_cfa_offset 8
	pop	ebx
LCFI80:
	.cfi_restore 3
	.cfi_def_cfa_offset 4
LVL151:
	ret
LVL152:
L130:
LCFI81:
	.cfi_restore_state
	call	___stack_chk_fail
LVL153:
	.cfi_endproc
LFE104:
	.section .rdata,"dr"
LC7:
	.ascii "focus-line-width\0"
LC8:
	.ascii "interior-focus\0"
	.text
	.p2align 2,,3
	.def	_update_size;	.scl	3;	.type	32;	.endef
_update_size:
LFB161:
	.loc 1 2514 0
	.cfi_startproc
LVL154:
	push	ebp
LCFI82:
	.cfi_def_cfa_offset 8
	.cfi_offset 5, -8
	push	edi
LCFI83:
	.cfi_def_cfa_offset 12
	.cfi_offset 7, -12
	push	esi
LCFI84:
	.cfi_def_cfa_offset 16
	.cfi_offset 6, -16
	push	ebx
LCFI85:
	.cfi_def_cfa_offset 20
	.cfi_offset 3, -20
	sub	esp, 156
LCFI86:
	.cfi_def_cfa_offset 176
	mov	ebp, eax
	.loc 1 2514 0
	mov	eax, DWORD PTR ___stack_chk_guard
	mov	DWORD PTR [esp+140], eax
	xor	eax, eax
LVL155:
	.loc 1 2525 0
	mov	ebx, DWORD PTR [ebp+140]
	test	ebx, ebx
	jne	L132
	.loc 1 2527 0
	mov	eax, DWORD PTR [ebp+84]
	test	eax, eax
	je	L131
	.loc 1 2528 0
	mov	DWORD PTR [esp+8], -1
	mov	DWORD PTR [esp+4], -1
	mov	DWORD PTR [esp], eax
	call	_gtk_widget_set_size_request
LVL156:
L131:
	.loc 1 2582 0
	mov	eax, DWORD PTR [esp+140]
	xor	eax, DWORD PTR ___stack_chk_guard
	jne	L152
	add	esp, 156
LCFI87:
	.cfi_remember_state
	.cfi_def_cfa_offset 20
	pop	ebx
LCFI88:
	.cfi_restore 3
	.cfi_def_cfa_offset 16
	pop	esi
LCFI89:
	.cfi_restore 6
	.cfi_def_cfa_offset 12
	pop	edi
LCFI90:
	.cfi_restore 7
	.cfi_def_cfa_offset 8
	pop	ebp
LCFI91:
	.cfi_restore 5
	.cfi_def_cfa_offset 4
LVL157:
	ret
LVL158:
	.p2align 2,,3
L132:
LCFI92:
	.cfi_restore_state
LBB20:
LBB21:
	.loc 1 2532 0
	call	_gtk_text_view_get_type
LVL159:
	mov	ebx, eax
	mov	DWORD PTR [esp+4], eax
	mov	eax, DWORD PTR [ebp+92]
	mov	DWORD PTR [esp], eax
	call	_g_type_check_instance_cast
LVL160:
	mov	DWORD PTR [esp], eax
	call	_gtk_text_view_get_buffer
LVL161:
	mov	DWORD PTR [esp+44], eax
LVL162:
	.loc 1 2536 0
	lea	edi, [esp+84]
	mov	DWORD PTR [esp+4], edi
	mov	DWORD PTR [esp], eax
	call	_gtk_text_buffer_get_start_iter
LVL163:
	.loc 1 2538 0
	mov	DWORD PTR [esp+4], ebx
	mov	eax, DWORD PTR [ebp+92]
	mov	DWORD PTR [esp], eax
	call	_g_type_check_instance_cast
LVL164:
	lea	edx, [esp+68]
	mov	DWORD PTR [esp+8], edx
	mov	DWORD PTR [esp+4], edi
	mov	DWORD PTR [esp], eax
	call	_gtk_text_view_get_iter_location
LVL165:
	.loc 1 2539 0
	mov	edx, DWORD PTR [esp+80]
	mov	DWORD PTR [esp+36], edx
LVL166:
	.loc 1 2540 0
	mov	esi, 2
	.loc 1 2535 0
	mov	DWORD PTR [esp+40], 1
LVL167:
L134:
	.loc 1 2542 0
	mov	DWORD PTR [esp+4], ebx
	mov	eax, DWORD PTR [ebp+92]
	mov	DWORD PTR [esp], eax
	call	_g_type_check_instance_cast
LVL168:
	mov	DWORD PTR [esp+4], edi
	mov	DWORD PTR [esp], eax
	call	_gtk_text_view_forward_display_line
LVL169:
	.loc 1 2541 0
	test	eax, eax
	je	L153
LVL170:
	.loc 1 2538 0
	mov	DWORD PTR [esp+4], ebx
	mov	eax, DWORD PTR [ebp+92]
	mov	DWORD PTR [esp], eax
	call	_g_type_check_instance_cast
LVL171:
	lea	edx, [esp+68]
	mov	DWORD PTR [esp+8], edx
	mov	DWORD PTR [esp+4], edi
	mov	DWORD PTR [esp], eax
	call	_gtk_text_view_get_iter_location
LVL172:
	.loc 1 2539 0
	mov	eax, DWORD PTR [esp+80]
	add	DWORD PTR [esp+36], eax
	.loc 1 2540 0
	lea	eax, [esi+1]
LVL173:
	mov	DWORD PTR [esp+40], esi
	.loc 1 2542 0
	cmp	eax, 5
	je	L146
	.loc 1 2540 0
	mov	esi, eax
	jmp	L134
LVL174:
	.p2align 2,,3
L155:
	.loc 1 2554 0
	mov	DWORD PTR [esp], edi
	call	_gtk_text_iter_get_char
LVL175:
	cmp	eax, 10
	jne	L150
	.loc 1 2556 0
	mov	DWORD PTR [esp+4], ebx
	mov	eax, DWORD PTR [ebp+92]
	mov	DWORD PTR [esp], eax
	call	_g_type_check_instance_cast
LVL176:
	lea	edx, [esp+68]
	mov	DWORD PTR [esp+8], edx
	mov	DWORD PTR [esp+4], edi
	mov	DWORD PTR [esp], eax
	call	_gtk_text_view_get_iter_location
LVL177:
	.loc 1 2557 0
	mov	eax, DWORD PTR [esp+80]
	add	DWORD PTR [esp+36], eax
LVL178:
	.loc 1 2558 0
	mov	edx, DWORD PTR [esp+40]
	add	edx, 2
LVL179:
	mov	DWORD PTR [esp+40], edx
	cmp	edx, 4
	jle	L135
LVL180:
	.p2align 2,,3
L146:
	.loc 1 2542 0
	mov	DWORD PTR [esp+40], 4
L135:
	.loc 1 2561 0
	mov	eax, DWORD PTR [esp+44]
	mov	DWORD PTR [esp], eax
	call	_gtk_text_buffer_get_line_count
LVL181:
	mov	esi, eax
	.loc 1 2564 0
	cmp	eax, 4
	jg	L154
L141:
LVL182:
	.loc 1 2567 0
	mov	DWORD PTR [esp+4], ebx
	mov	eax, DWORD PTR [ebp+92]
	mov	DWORD PTR [esp], eax
	call	_g_type_check_instance_cast
LVL183:
	mov	DWORD PTR [esp], eax
	call	_gtk_text_view_get_pixels_above_lines
LVL184:
	mov	edi, eax
LVL185:
	.loc 1 2568 0
	mov	DWORD PTR [esp+4], ebx
	mov	eax, DWORD PTR [ebp+92]
LVL186:
	mov	DWORD PTR [esp], eax
	call	_g_type_check_instance_cast
LVL187:
	mov	DWORD PTR [esp], eax
	call	_gtk_text_view_get_pixels_below_lines
LVL188:
	mov	DWORD PTR [esp+44], eax
LVL189:
	.loc 1 2569 0
	mov	DWORD PTR [esp+4], ebx
	mov	eax, DWORD PTR [ebp+92]
LVL190:
	mov	DWORD PTR [esp], eax
	call	_g_type_check_instance_cast
LVL191:
	mov	DWORD PTR [esp], eax
	call	_gtk_text_view_get_pixels_inside_wrap
LVL192:
	.loc 1 2571 0
	add	edi, DWORD PTR [esp+44]
LVL193:
	imul	edi, esi
	add	edi, DWORD PTR [esp+36]
LVL194:
	.loc 1 2572 0
	mov	edx, DWORD PTR [esp+40]
	sub	edx, esi
	mov	esi, edx
LVL195:
	imul	esi, eax
	add	esi, edi
LVL196:
	.loc 1 2574 0
	mov	DWORD PTR [esp+20], 0
	lea	eax, [esp+64]
LVL197:
	mov	DWORD PTR [esp+16], eax
	mov	DWORD PTR [esp+12], OFFSET FLAT:LC7
	lea	eax, [esp+60]
	mov	DWORD PTR [esp+8], eax
	mov	DWORD PTR [esp+4], OFFSET FLAT:LC8
	mov	eax, DWORD PTR [ebp+92]
	mov	DWORD PTR [esp], eax
	call	_gtk_widget_style_get
LVL198:
	.loc 1 2578 0
	mov	ecx, DWORD PTR [esp+60]
	test	ecx, ecx
	jne	L142
LVL199:
	.loc 1 2579 0
	mov	eax, DWORD PTR [esp+64]
	lea	esi, [esi+eax*2]
LVL200:
L142:
	.loc 1 2581 0
	add	esi, 6
LVL201:
	mov	DWORD PTR [esp+8], esi
	mov	DWORD PTR [esp+4], -1
	mov	eax, DWORD PTR [ebp+84]
	mov	DWORD PTR [esp], eax
	call	_gtk_widget_set_size_request
LVL202:
	jmp	L131
LVL203:
	.p2align 2,,3
L154:
	.loc 1 2564 0
	mov	esi, 4
	jmp	L141
	.p2align 2,,3
L153:
	.loc 1 2553 0
	mov	DWORD PTR [esp], edi
	call	_gtk_text_iter_backward_char
LVL204:
	test	eax, eax
	jne	L155
L150:
	mov	DWORD PTR [esp+40], esi
	cmp	esi, 4
	jle	L135
	jmp	L146
LVL205:
L152:
LBE21:
LBE20:
	.loc 1 2582 0
	call	___stack_chk_fail
LVL206:
	.cfi_endproc
LFE161:
	.section .rdata,"dr"
LC9:
	.ascii "#%02x%02x%02x\0"
LC10:
	.ascii "New status\0"
LC11:
	.ascii "Typing\0"
LC12:
	.ascii "pidgin\0"
LC13:
	.ascii "Connecting\0"
	.align 4
LC14:
	.ascii "Waiting for network connection\0"
	.align 4
LC15:
	.ascii "%s - <span size=\"smaller\" color=\"%s\">%s</span>\0"
	.align 4
LC16:
	.ascii "%s<span size=\"smaller\" color=\"%s\"> - %s</span>\0"
LC17:
	.ascii "0\0"
	.text
	.p2align 2,,3
	.def	_pidgin_status_box_refresh;	.scl	3;	.type	32;	.endef
_pidgin_status_box_refresh:
LFB109:
	.loc 1 659 0
	.cfi_startproc
LVL207:
	push	ebp
LCFI93:
	.cfi_def_cfa_offset 8
	.cfi_offset 5, -8
	push	edi
LCFI94:
	.cfi_def_cfa_offset 12
	.cfi_offset 7, -12
	push	esi
LCFI95:
	.cfi_def_cfa_offset 16
	.cfi_offset 6, -16
	push	ebx
LCFI96:
	.cfi_def_cfa_offset 20
	.cfi_offset 3, -20
	sub	esp, 124
LCFI97:
	.cfi_def_cfa_offset 144
	mov	ebx, eax
	.loc 1 659 0
	mov	eax, DWORD PTR ___stack_chk_guard
	mov	DWORD PTR [esp+108], eax
	xor	eax, eax
LVL208:
	.loc 1 668 0
	mov	edi, DWORD PTR [ebx+76]
	test	edi, edi
	je	L200
L157:
LVL209:
	.loc 1 670 0 discriminator 3
	call	_gtk_widget_get_type
LVL210:
	mov	DWORD PTR [esp+4], eax
	mov	DWORD PTR [esp], ebx
	call	_g_type_check_instance_cast
LVL211:
	mov	DWORD PTR [esp], eax
	call	_gtk_widget_get_style
LVL212:
	.loc 1 671 0 discriminator 3
	movzx	edx, BYTE PTR [eax+441]
	mov	DWORD PTR [esp+20], edx
	movzx	edx, BYTE PTR [eax+439]
	mov	DWORD PTR [esp+16], edx
	movzx	eax, BYTE PTR [eax+437]
LVL213:
	mov	DWORD PTR [esp+12], eax
	mov	DWORD PTR [esp+8], OFFSET FLAT:LC9
	mov	DWORD PTR [esp+4], 8
	lea	edx, [esp+100]
	mov	DWORD PTR [esp], edx
	call	__snprintf
LVL214:
	.loc 1 676 0 discriminator 3
	call	_purple_savedstatus_get_current
LVL215:
	mov	ebp, eax
LVL216:
	.loc 1 678 0 discriminator 3
	mov	esi, DWORD PTR [ebx+76]
	test	esi, esi
	je	L201
LVL217:
L158:
	.loc 1 683 0
	mov	eax, DWORD PTR [ebx+236]
	test	eax, eax
	jne	L202
	.loc 1 706 0
	mov	DWORD PTR [esp], edi
	call	_purple_account_get_active_status
LVL218:
	mov	DWORD PTR [esp], eax
	call	_purple_status_get_name
LVL219:
	mov	DWORD PTR [esp], eax
	call	_g_strdup
LVL220:
	mov	DWORD PTR [esp+56], eax
LVL221:
	mov	DWORD PTR [esp+52], 1
LVL222:
L163:
	.loc 1 713 0
	mov	edx, DWORD PTR [ebx+236]
	test	edx, edx
	jne	L203
	.loc 1 715 0
	mov	eax, DWORD PTR [ebx+232]
	test	eax, eax
	jne	L204
	.loc 1 717 0
	mov	eax, DWORD PTR [ebx+228]
	test	eax, eax
	jne	L169
	.loc 1 718 0
	mov	DWORD PTR [esp+4], OFFSET FLAT:LC14
L199:
	.loc 1 716 0
	mov	DWORD PTR [esp], OFFSET FLAT:LC12
	call	_libintl_dgettext
LVL223:
	mov	DWORD PTR [esp], eax
	call	_g_strdup
LVL224:
	mov	esi, eax
LVL225:
L167:
	.loc 1 738 0
	mov	eax, DWORD PTR [ebx+236]
	test	eax, eax
	je	L172
	.loc 1 739 0
	mov	eax, DWORD PTR [ebx+200]
	mov	eax, DWORD PTR _typing_stock_ids[0+eax*4]
	mov	DWORD PTR [esp+52], eax
LVL226:
L173:
	.loc 1 756 0
	mov	eax, DWORD PTR [ebx+76]
	test	eax, eax
	je	L177
L206:
	.loc 1 757 0
	test	esi, esi
	je	L187
	mov	ebp, esi
LVL227:
L178:
	mov	DWORD PTR [esp], eax
	call	_purple_account_get_username
LVL228:
	mov	DWORD PTR [esp+12], ebp
	.loc 1 759 0
	lea	edx, [esp+100]
	mov	DWORD PTR [esp+8], edx
	.loc 1 757 0
	mov	DWORD PTR [esp+4], eax
	mov	DWORD PTR [esp], OFFSET FLAT:LC15
	call	_g_strdup_printf
LVL229:
	mov	ebp, eax
LVL230:
	.loc 1 760 0
	mov	DWORD PTR [esp+4], 0
	mov	eax, DWORD PTR [ebx+76]
LVL231:
	mov	DWORD PTR [esp], eax
	call	_pidgin_create_prpl_icon
LVL232:
	mov	edi, eax
LVL233:
	.loc 1 767 0
	mov	eax, DWORD PTR [esp+56]
LVL234:
	mov	DWORD PTR [esp], eax
	call	_g_free
LVL235:
	.loc 1 768 0
	mov	DWORD PTR [esp], esi
	call	_g_free
LVL236:
	.loc 1 774 0
	test	edi, edi
	setne	al
	mov	DWORD PTR [esp+40], -1
	movzx	edx, al
	mov	DWORD PTR [esp+36], edx
	mov	DWORD PTR [esp+32], 8
	mov	DWORD PTR [esp+28], edi
	mov	DWORD PTR [esp+24], 7
	mov	DWORD PTR [esp+20], ebp
	mov	DWORD PTR [esp+16], 3
	mov	edx, DWORD PTR [esp+52]
	mov	DWORD PTR [esp+12], edx
	mov	DWORD PTR [esp+8], 1
	lea	edx, [ebx+240]
	mov	DWORD PTR [esp+4], edx
	mov	edx, DWORD PTR [ebx+68]
	mov	DWORD PTR [esp], edx
	mov	BYTE PTR [esp+48], al
	call	_gtk_list_store_set
LVL237:
	.loc 1 780 0
	mov	DWORD PTR [esp], ebp
	call	_g_free
LVL238:
	.loc 1 781 0
	mov	al, BYTE PTR [esp+48]
	test	al, al
	je	L180
	.loc 1 782 0
	mov	DWORD PTR [esp], edi
	call	_g_object_unref
LVL239:
L180:
	.loc 1 785 0
	mov	DWORD PTR [esp], OFFSET FLAT:LC17
	call	_gtk_tree_path_new_from_string
LVL240:
	mov	esi, eax
LVL241:
	.loc 1 786 0
	call	_gtk_cell_view_get_type
LVL242:
	mov	DWORD PTR [esp+4], eax
	mov	eax, DWORD PTR [ebx+144]
	mov	DWORD PTR [esp], eax
	call	_g_type_check_instance_cast
LVL243:
	mov	DWORD PTR [esp+4], esi
	mov	DWORD PTR [esp], eax
	call	_gtk_cell_view_set_displayed_row
LVL244:
	.loc 1 787 0
	mov	DWORD PTR [esp], esi
	call	_gtk_tree_path_free
LVL245:
	.loc 1 789 0
	mov	eax, ebx
	call	_update_size
LVL246:
L156:
	.loc 1 790 0
	mov	edx, DWORD PTR [esp+108]
	xor	edx, DWORD PTR ___stack_chk_guard
	jne	L205
	add	esp, 124
LCFI98:
	.cfi_remember_state
	.cfi_def_cfa_offset 20
	pop	ebx
LCFI99:
	.cfi_restore 3
	.cfi_def_cfa_offset 16
LVL247:
	pop	esi
LCFI100:
	.cfi_restore 6
	.cfi_def_cfa_offset 12
	pop	edi
LCFI101:
	.cfi_restore 7
	.cfi_def_cfa_offset 8
	pop	ebp
LCFI102:
	.cfi_restore 5
	.cfi_def_cfa_offset 4
	ret
LVL248:
	.p2align 2,,3
L172:
LCFI103:
	.cfi_restore_state
	.loc 1 740 0
	mov	eax, DWORD PTR [ebx+232]
	test	eax, eax
	je	L174
	.loc 1 741 0
	mov	eax, DWORD PTR [ebx+160]
	mov	eax, DWORD PTR _connecting_stock_ids[0+eax*4]
	mov	DWORD PTR [esp+52], eax
LVL249:
	.loc 1 756 0
	mov	eax, DWORD PTR [ebx+76]
LVL250:
	test	eax, eax
	jne	L206
L177:
	.loc 1 761 0
	test	esi, esi
	je	L181
	.loc 1 762 0
	mov	DWORD PTR [esp+12], esi
	.loc 1 763 0
	lea	eax, [esp+100]
	mov	DWORD PTR [esp+8], eax
	.loc 1 762 0
	mov	eax, DWORD PTR [esp+56]
	mov	DWORD PTR [esp+4], eax
	mov	DWORD PTR [esp], OFFSET FLAT:LC16
	call	_g_strdup_printf
LVL251:
	mov	ebp, eax
LVL252:
L182:
	.loc 1 767 0
	mov	eax, DWORD PTR [esp+56]
LVL253:
	mov	DWORD PTR [esp], eax
	call	_g_free
LVL254:
	.loc 1 768 0
	mov	DWORD PTR [esp], esi
	call	_g_free
LVL255:
	.loc 1 774 0
	mov	DWORD PTR [esp+40], -1
	mov	DWORD PTR [esp+36], 0
	mov	DWORD PTR [esp+32], 8
	mov	DWORD PTR [esp+28], 0
	mov	DWORD PTR [esp+24], 7
	mov	DWORD PTR [esp+20], ebp
	mov	DWORD PTR [esp+16], 3
	mov	eax, DWORD PTR [esp+52]
	mov	DWORD PTR [esp+12], eax
	mov	DWORD PTR [esp+8], 1
	lea	eax, [ebx+240]
	mov	DWORD PTR [esp+4], eax
	mov	eax, DWORD PTR [ebx+68]
	mov	DWORD PTR [esp], eax
	call	_gtk_list_store_set
LVL256:
	.loc 1 780 0
	mov	DWORD PTR [esp], ebp
	call	_g_free
LVL257:
	jmp	L180
LVL258:
	.p2align 2,,3
L202:
	.loc 1 683 0
	mov	DWORD PTR [esp+52], 1
LVL259:
L183:
LBB22:
	.loc 1 690 0
	mov	eax, DWORD PTR [ebx+304]
	mov	DWORD PTR [esp], eax
	call	_gtk_tree_row_reference_get_path
LVL260:
	mov	DWORD PTR [esp+56], eax
LVL261:
	.loc 1 691 0
	call	_gtk_tree_model_get_type
LVL262:
	mov	DWORD PTR [esp+60], eax
	mov	DWORD PTR [esp+4], eax
	mov	eax, DWORD PTR [ebx+72]
	mov	DWORD PTR [esp], eax
	call	_g_type_check_instance_cast
LVL263:
	mov	edx, DWORD PTR [esp+56]
	mov	DWORD PTR [esp+8], edx
	lea	esi, [esp+84]
	mov	DWORD PTR [esp+4], esi
	mov	DWORD PTR [esp], eax
	call	_gtk_tree_model_get_iter
LVL264:
	test	eax, eax
	je	L156
	.loc 1 693 0
	mov	eax, DWORD PTR [esp+56]
	mov	DWORD PTR [esp], eax
	call	_gtk_tree_path_free
LVL265:
	.loc 1 695 0
	mov	eax, DWORD PTR [esp+60]
	mov	DWORD PTR [esp+4], eax
	mov	eax, DWORD PTR [ebx+72]
	mov	DWORD PTR [esp], eax
	call	_g_type_check_instance_cast
LVL266:
	mov	DWORD PTR [esp+24], -1
	lea	edx, [esp+80]
	mov	DWORD PTR [esp+20], edx
	mov	DWORD PTR [esp+16], 6
	lea	edx, [esp+76]
	mov	DWORD PTR [esp+12], edx
	mov	DWORD PTR [esp+8], 0
	mov	DWORD PTR [esp+4], esi
	mov	DWORD PTR [esp], eax
	call	_gtk_tree_model_get
LVL267:
	.loc 1 699 0
	cmp	DWORD PTR [esp+76], 1
	je	L207
	.loc 1 703 0
	mov	DWORD PTR [esp], OFFSET FLAT:LC10
	call	_g_strdup
LVL268:
	mov	DWORD PTR [esp+56], eax
LVL269:
	jmp	L163
LVL270:
	.p2align 2,,3
L203:
LBE22:
	.loc 1 714 0
	mov	DWORD PTR [esp+4], OFFSET FLAT:LC11
	jmp	L199
	.p2align 2,,3
L169:
	.loc 1 719 0
	mov	DWORD PTR [esp], ebp
	call	_purple_savedstatus_is_transient
LVL271:
	test	eax, eax
	je	L170
L171:
	.loc 1 720 0
	xor	esi, esi
	jmp	L167
LVL272:
	.p2align 2,,3
L174:
LBB23:
	.loc 1 746 0
	mov	eax, DWORD PTR [esp+52]
	test	eax, eax
	je	L175
	.loc 1 747 0
	mov	DWORD PTR [esp], edi
	call	_purple_account_get_active_status
LVL273:
	mov	DWORD PTR [esp], eax
	call	_purple_status_get_type
LVL274:
	.loc 1 748 0
	mov	DWORD PTR [esp], eax
	call	_purple_status_type_get_primitive
LVL275:
L176:
	.loc 1 753 0
	mov	DWORD PTR [esp], eax
	call	_pidgin_stock_id_from_status_primitive
LVL276:
	mov	DWORD PTR [esp+52], eax
LVL277:
	jmp	L173
LVL278:
	.p2align 2,,3
L204:
LBE23:
	.loc 1 716 0
	mov	DWORD PTR [esp+4], OFFSET FLAT:LC13
	jmp	L199
LVL279:
	.p2align 2,,3
L175:
LBB24:
	.loc 1 750 0
	mov	DWORD PTR [esp], ebp
	call	_purple_savedstatus_get_type
LVL280:
	jmp	L176
LVL281:
	.p2align 2,,3
L170:
LBE24:
LBB25:
	.loc 1 725 0
	mov	DWORD PTR [esp], ebp
	call	_purple_savedstatus_get_message
LVL282:
	.loc 1 726 0
	test	eax, eax
	je	L171
	.loc 1 728 0
	mov	DWORD PTR [esp], eax
	call	_purple_markup_strip_html
LVL283:
	.loc 1 729 0
	mov	DWORD PTR [esp+8], 32
	mov	DWORD PTR [esp+4], 10
	mov	DWORD PTR [esp], eax
	mov	DWORD PTR [esp+48], eax
	call	_purple_util_chrreplace
LVL284:
	.loc 1 730 0
	mov	DWORD PTR [esp+4], -1
	mov	ecx, DWORD PTR [esp+48]
	mov	DWORD PTR [esp], ecx
	call	_g_markup_escape_text
LVL285:
	mov	esi, eax
LVL286:
	.loc 1 731 0
	mov	ecx, DWORD PTR [esp+48]
	mov	DWORD PTR [esp], ecx
	call	_g_free
LVL287:
	jmp	L167
LVL288:
	.p2align 2,,3
L201:
LBE25:
	.loc 1 678 0 discriminator 1
	mov	ecx, DWORD PTR [ebx+80]
	test	ecx, ecx
	je	L159
	.loc 1 679 0
	mov	DWORD PTR [esp], eax
	call	_purple_savedstatus_is_transient
LVL289:
	test	eax, eax
	jne	L158
L159:
	.loc 1 683 0
	mov	esi, DWORD PTR [ebx+236]
	test	esi, esi
	jne	L208
	.loc 1 707 0
	mov	DWORD PTR [esp], ebp
	call	_purple_savedstatus_is_transient
LVL290:
	.loc 1 708 0
	mov	DWORD PTR [esp], ebp
	.loc 1 707 0
	test	eax, eax
	je	L165
	.loc 1 708 0
	call	_purple_savedstatus_get_type
LVL291:
	mov	DWORD PTR [esp], eax
	call	_purple_primitive_get_name_from_type
LVL292:
	mov	DWORD PTR [esp], eax
	call	_g_strdup
LVL293:
	mov	DWORD PTR [esp+56], eax
LVL294:
	mov	DWORD PTR [esp+52], 0
	jmp	L163
LVL295:
	.p2align 2,,3
L165:
	.loc 1 710 0
	call	_purple_savedstatus_get_title
LVL296:
	mov	DWORD PTR [esp+4], -1
	mov	DWORD PTR [esp], eax
	call	_g_markup_escape_text
LVL297:
	mov	DWORD PTR [esp+56], eax
LVL298:
	mov	DWORD PTR [esp+52], 0
	jmp	L163
LVL299:
	.p2align 2,,3
L200:
	.loc 1 668 0 discriminator 2
	mov	edi, DWORD PTR [ebx+80]
	jmp	L157
LVL300:
	.p2align 2,,3
L187:
	.loc 1 757 0
	mov	ebp, DWORD PTR [esp+56]
LVL301:
	jmp	L178
LVL302:
	.p2align 2,,3
L207:
LBB26:
	.loc 1 700 0
	mov	eax, DWORD PTR [esp+80]
	mov	DWORD PTR [esp], eax
	call	_purple_primitive_get_name_from_type
LVL303:
	mov	DWORD PTR [esp], eax
	call	_g_strdup
LVL304:
	mov	DWORD PTR [esp+56], eax
LVL305:
	jmp	L163
LVL306:
	.p2align 2,,3
L208:
LBE26:
	.loc 1 683 0
	mov	DWORD PTR [esp+52], 0
	jmp	L183
LVL307:
	.p2align 2,,3
L181:
	.loc 1 765 0
	mov	eax, DWORD PTR [esp+56]
	mov	DWORD PTR [esp], eax
	call	_g_strdup
LVL308:
	mov	ebp, eax
LVL309:
	jmp	L182
LVL310:
L205:
	.loc 1 790 0
	call	___stack_chk_fail
LVL311:
	.cfi_endproc
LFE109:
	.section .rdata,"dr"
LC18:
	.ascii "message\0"
	.text
	.p2align 2,,3
	.def	_update_to_reflect_account_status;	.scl	3;	.type	32;	.endef
_update_to_reflect_account_status:
LFB95:
	.loc 1 249 0
	.cfi_startproc
LVL312:
	push	ebp
LCFI104:
	.cfi_def_cfa_offset 8
	.cfi_offset 5, -8
	push	edi
LCFI105:
	.cfi_def_cfa_offset 12
	.cfi_offset 7, -12
	push	esi
LCFI106:
	.cfi_def_cfa_offset 16
	.cfi_offset 6, -16
	push	ebx
LCFI107:
	.cfi_def_cfa_offset 20
	.cfi_offset 3, -20
	sub	esp, 60
LCFI108:
	.cfi_def_cfa_offset 80
	mov	edi, eax
	mov	ebx, edx
	mov	DWORD PTR [esp+28], ecx
	.loc 1 249 0
	mov	eax, DWORD PTR ___stack_chk_guard
	mov	DWORD PTR [esp+44], eax
	xor	eax, eax
LVL313:
	.loc 1 256 0
	mov	DWORD PTR [esp], ecx
	call	_purple_status_get_type
LVL314:
	.loc 1 255 0
	mov	DWORD PTR [esp], eax
	call	_purple_status_type_get_id
LVL315:
	mov	esi, eax
	mov	DWORD PTR [esp], ebx
	call	_purple_account_get_status_types
LVL316:
	mov	DWORD PTR [esp+4], esi
	mov	DWORD PTR [esp], eax
	call	_purple_status_type_find_with_id
LVL317:
	mov	DWORD PTR [esp+24], eax
LVL318:
	.loc 1 258 0
	mov	DWORD PTR [esp], ebx
	call	_purple_account_get_status_types
LVL319:
	mov	ebp, eax
LVL320:
	test	eax, eax
	je	L210
	mov	esi, -1
	jmp	L213
LVL321:
	.p2align 2,,3
L211:
	mov	ebp, DWORD PTR [ebp+4]
LVL322:
	test	ebp, ebp
	je	L212
LVL323:
L213:
LBB27:
	.loc 1 259 0
	mov	ebx, DWORD PTR [ebp+0]
LVL324:
	.loc 1 261 0
	mov	DWORD PTR [esp], ebx
	call	_purple_status_type_is_user_settable
LVL325:
	test	eax, eax
	je	L211
	.loc 1 262 0 discriminator 1
	mov	DWORD PTR [esp], ebx
	call	_purple_status_type_is_independent
LVL326:
	.loc 1 261 0 discriminator 1
	test	eax, eax
	jne	L211
	.loc 1 264 0
	inc	esi
LVL327:
	.loc 1 265 0
	cmp	DWORD PTR [esp+24], ebx
	jne	L211
	.p2align 2,,3
L212:
LBE27:
	.loc 1 270 0
	call	_gtk_imhtml_get_type
LVL328:
	mov	DWORD PTR [esp+4], eax
	mov	eax, DWORD PTR [edi+92]
	mov	DWORD PTR [esp], eax
	call	_g_type_check_instance_cast
LVL329:
	.loc 1 269 0
	mov	DWORD PTR [esp+4], 1
	mov	DWORD PTR [esp], eax
	call	_gtk_imhtml_set_populate_primary_clipboard
LVL330:
	.loc 1 272 0
	cmp	esi, -1
	je	L209
LBB28:
	.loc 1 274 0
	call	_gtk_widget_get_type
LVL331:
	mov	ebx, eax
LVL332:
	mov	DWORD PTR [esp+4], eax
	mov	DWORD PTR [esp], edi
	call	_g_type_check_instance_cast
LVL333:
	mov	DWORD PTR [esp+4], 0
	mov	DWORD PTR [esp], eax
	call	_gtk_widget_set_sensitive
LVL334:
	.loc 1 275 0
	mov	DWORD PTR [esp+4], -1
	mov	DWORD PTR [esp], esi
	call	_gtk_tree_path_new_from_indices
LVL335:
	mov	esi, eax
LVL336:
	.loc 1 276 0
	mov	eax, DWORD PTR [edi+304]
LVL337:
	test	eax, eax
	je	L215
	.loc 1 277 0
	mov	DWORD PTR [esp], eax
	call	_gtk_tree_row_reference_free
LVL338:
L215:
	.loc 1 278 0
	call	_gtk_tree_model_get_type
LVL339:
	mov	DWORD PTR [esp+4], eax
	mov	eax, DWORD PTR [edi+72]
	mov	DWORD PTR [esp], eax
	call	_g_type_check_instance_cast
LVL340:
	mov	DWORD PTR [esp+4], esi
	mov	DWORD PTR [esp], eax
	call	_gtk_tree_row_reference_new
LVL341:
	mov	DWORD PTR [edi+304], eax
	.loc 1 279 0
	mov	DWORD PTR [esp], esi
	call	_gtk_tree_path_free
LVL342:
	.loc 1 281 0
	mov	DWORD PTR [esp+4], OFFSET FLAT:LC18
	mov	eax, DWORD PTR [esp+28]
	mov	DWORD PTR [esp], eax
	call	_purple_status_get_attr_string
LVL343:
	mov	esi, eax
LVL344:
	.loc 1 283 0
	test	eax, eax
	je	L216
	.loc 1 283 0 is_stmt 0 discriminator 1
	cmp	BYTE PTR [eax], 0
	jne	L217
L216:
	.loc 1 285 0 is_stmt 1
	mov	eax, DWORD PTR [edi+84]
LVL345:
	mov	DWORD PTR [esp], eax
	call	_gtk_widget_hide_all
LVL346:
	.loc 1 286 0
	mov	DWORD PTR [edi+140], 0
L218:
	.loc 1 296 0
	mov	DWORD PTR [esp+4], ebx
	mov	DWORD PTR [esp], edi
	call	_g_type_check_instance_cast
LVL347:
	mov	DWORD PTR [esp+4], 1
	mov	DWORD PTR [esp], eax
	call	_gtk_widget_set_sensitive
LVL348:
	.loc 1 297 0
	mov	eax, DWORD PTR [esp+44]
	xor	eax, DWORD PTR ___stack_chk_guard
	jne	L235
	mov	eax, edi
LBE28:
	.loc 1 299 0
	add	esp, 60
LCFI109:
	.cfi_remember_state
	.cfi_def_cfa_offset 20
	pop	ebx
LCFI110:
	.cfi_restore 3
	.cfi_def_cfa_offset 16
	pop	esi
LCFI111:
	.cfi_restore 6
	.cfi_def_cfa_offset 12
LVL349:
	pop	edi
LCFI112:
	.cfi_restore 7
	.cfi_def_cfa_offset 8
LVL350:
	pop	ebp
LCFI113:
	.cfi_restore 5
	.cfi_def_cfa_offset 4
LVL351:
LBB29:
	.loc 1 297 0
	jmp	_pidgin_status_box_refresh
LVL352:
L210:
LCFI114:
	.cfi_restore_state
LBE29:
	.loc 1 270 0
	call	_gtk_imhtml_get_type
LVL353:
	mov	DWORD PTR [esp+4], eax
	mov	eax, DWORD PTR [edi+92]
	mov	DWORD PTR [esp], eax
	call	_g_type_check_instance_cast
LVL354:
	.loc 1 269 0
	mov	DWORD PTR [esp+4], 1
	mov	DWORD PTR [esp], eax
	call	_gtk_imhtml_set_populate_primary_clipboard
LVL355:
	.p2align 2,,3
L209:
	.loc 1 299 0
	mov	eax, DWORD PTR [esp+44]
	xor	eax, DWORD PTR ___stack_chk_guard
	jne	L235
	add	esp, 60
LCFI115:
	.cfi_remember_state
	.cfi_def_cfa_offset 20
	pop	ebx
LCFI116:
	.cfi_restore 3
	.cfi_def_cfa_offset 16
	pop	esi
LCFI117:
	.cfi_restore 6
	.cfi_def_cfa_offset 12
	pop	edi
LCFI118:
	.cfi_restore 7
	.cfi_def_cfa_offset 8
LVL356:
	pop	ebp
LCFI119:
	.cfi_restore 5
	.cfi_def_cfa_offset 4
LVL357:
	ret
LVL358:
L217:
LCFI120:
	.cfi_restore_state
LBB30:
	.loc 1 290 0
	mov	eax, DWORD PTR [edi+84]
LVL359:
	mov	DWORD PTR [esp], eax
	call	_gtk_widget_show_all
LVL360:
	.loc 1 291 0
	mov	DWORD PTR [edi+140], 1
	.loc 1 292 0
	call	_gtk_imhtml_get_type
LVL361:
	mov	DWORD PTR [esp+4], eax
	mov	eax, DWORD PTR [edi+92]
	mov	DWORD PTR [esp], eax
	call	_g_type_check_instance_cast
LVL362:
	mov	DWORD PTR [esp+8], 0
	mov	DWORD PTR [esp+4], 0
	mov	DWORD PTR [esp], eax
	call	_gtk_imhtml_delete
LVL363:
	.loc 1 293 0
	call	_gtk_imhtml_get_type
LVL364:
	mov	DWORD PTR [esp+4], eax
	mov	eax, DWORD PTR [edi+92]
	mov	DWORD PTR [esp], eax
	call	_g_type_check_instance_cast
LVL365:
	mov	DWORD PTR [esp], eax
	call	_gtk_imhtml_clear_formatting
LVL366:
	.loc 1 294 0
	call	_gtk_imhtml_get_type
LVL367:
	mov	DWORD PTR [esp+4], eax
	mov	eax, DWORD PTR [edi+92]
	mov	DWORD PTR [esp], eax
	call	_g_type_check_instance_cast
LVL368:
	mov	DWORD PTR [esp+12], 0
	mov	DWORD PTR [esp+8], 0
	mov	DWORD PTR [esp+4], esi
	mov	DWORD PTR [esp], eax
	call	_gtk_imhtml_append_text_with_images
LVL369:
	jmp	L218
LVL370:
L235:
LBE30:
	.loc 1 299 0
	call	___stack_chk_fail
LVL371:
	.cfi_endproc
LFE95:
	.p2align 2,,3
	.def	_imhtml_changed_cb;	.scl	3;	.type	32;	.endef
_imhtml_changed_cb:
LFB165:
	.loc 1 2748 0
	.cfi_startproc
LVL372:
	push	edi
LCFI121:
	.cfi_def_cfa_offset 8
	.cfi_offset 7, -8
	push	esi
LCFI122:
	.cfi_def_cfa_offset 12
	.cfi_offset 6, -12
	push	ebx
LCFI123:
	.cfi_def_cfa_offset 16
	.cfi_offset 3, -16
	sub	esp, 32
LCFI124:
	.cfi_def_cfa_offset 48
	mov	ebx, DWORD PTR [esp+52]
	.loc 1 2748 0
	mov	eax, DWORD PTR ___stack_chk_guard
	mov	DWORD PTR [esp+28], eax
	xor	eax, eax
LVL373:
	.loc 1 2750 0
	call	_gtk_object_get_type
LVL374:
	mov	esi, eax
	call	_gtk_widget_get_type
LVL375:
	mov	edi, eax
	mov	DWORD PTR [esp+4], eax
	mov	DWORD PTR [esp], ebx
	call	_g_type_check_instance_cast
LVL376:
	mov	DWORD PTR [esp+4], esi
	mov	DWORD PTR [esp], eax
	call	_g_type_check_instance_cast
LVL377:
	test	BYTE PTR [eax+13], 2
	jne	L248
L238:
	.loc 1 2758 0
	mov	eax, DWORD PTR [esp+28]
	xor	eax, DWORD PTR ___stack_chk_guard
	jne	L249
	mov	eax, ebx
	.loc 1 2759 0
	add	esp, 32
LCFI125:
	.cfi_remember_state
	.cfi_def_cfa_offset 16
	pop	ebx
LCFI126:
	.cfi_restore 3
	.cfi_def_cfa_offset 12
LVL378:
	pop	esi
LCFI127:
	.cfi_restore 6
	.cfi_def_cfa_offset 8
	pop	edi
LCFI128:
	.cfi_restore 7
	.cfi_def_cfa_offset 4
	.loc 1 2758 0
	jmp	_pidgin_status_box_refresh
LVL379:
	.p2align 2,,3
L248:
LCFI129:
	.cfi_restore_state
	.loc 1 2750 0 discriminator 1
	mov	DWORD PTR [esp+4], edi
	mov	DWORD PTR [esp], ebx
	call	_g_type_check_instance_cast
LVL380:
	mov	DWORD PTR [esp+4], esi
	mov	DWORD PTR [esp], eax
	call	_g_type_check_instance_cast
LVL381:
	test	BYTE PTR [eax+13], 4
	je	L238
	.loc 1 2752 0
	mov	eax, DWORD PTR [ebx+236]
	test	eax, eax
	jne	L250
L240:
	.loc 1 2756 0
	mov	DWORD PTR [esp+8], ebx
	mov	DWORD PTR [esp+4], OFFSET FLAT:_remove_typing_cb
	mov	DWORD PTR [esp], 4
	call	_purple_timeout_add_seconds
LVL382:
	mov	DWORD PTR [ebx+236], eax
	jmp	L238
	.p2align 2,,3
L250:
LVL383:
LBB33:
LBB34:
	.loc 1 2312 0
	mov	eax, DWORD PTR [ebx+200]
	inc	eax
	mov	DWORD PTR [ebx+200], eax
	mov	edi, DWORD PTR _typing_stock_ids[0+eax*4]
	test	edi, edi
	je	L251
L241:
	.loc 1 2314 0
	mov	eax, ebx
	call	_pidgin_status_box_refresh
LVL384:
LBE34:
LBE33:
	.loc 1 2754 0
	mov	eax, DWORD PTR [ebx+236]
	mov	DWORD PTR [esp], eax
	call	_purple_timeout_remove
LVL385:
	jmp	L240
	.p2align 2,,3
L251:
LBB36:
LBB35:
	.loc 1 2313 0
	mov	DWORD PTR [ebx+200], 0
	jmp	L241
LVL386:
L249:
LBE35:
LBE36:
	.loc 1 2758 0
	call	___stack_chk_fail
LVL387:
	.cfi_endproc
LFE165:
	.p2align 2,,3
	.def	_imhtml_cursor_moved_cb;	.scl	3;	.type	32;	.endef
_imhtml_cursor_moved_cb:
LFB141:
	.loc 1 1692 0
	.cfi_startproc
LVL388:
	sub	esp, 28
LCFI130:
	.cfi_def_cfa_offset 32
	mov	eax, DWORD PTR [esp+32]
	.loc 1 1692 0
	mov	edx, DWORD PTR ___stack_chk_guard
	mov	DWORD PTR [esp+12], edx
	xor	edx, edx
LVL389:
	.loc 1 1695 0
	mov	edx, DWORD PTR [eax+236]
	test	edx, edx
	jne	L258
	.loc 1 1698 0
	mov	eax, DWORD PTR [esp+12]
	xor	eax, DWORD PTR ___stack_chk_guard
LVL390:
	jne	L257
	add	esp, 28
LCFI131:
	.cfi_remember_state
	.cfi_def_cfa_offset 4
	ret
LVL391:
	.p2align 2,,3
L258:
LCFI132:
	.cfi_restore_state
	.loc 1 1697 0
	mov	edx, DWORD PTR [esp+12]
	xor	edx, DWORD PTR ___stack_chk_guard
	jne	L257
	mov	DWORD PTR [esp+36], eax
	mov	DWORD PTR [esp+32], 0
	.loc 1 1698 0
	add	esp, 28
LCFI133:
	.cfi_remember_state
	.cfi_def_cfa_offset 4
	.loc 1 1697 0
	jmp	_imhtml_changed_cb
LVL392:
L257:
LCFI134:
	.cfi_restore_state
	.loc 1 1698 0
	call	___stack_chk_fail
LVL393:
	.cfi_endproc
LFE141:
	.p2align 2,,3
	.def	_imhtml_format_changed_cb;	.scl	3;	.type	32;	.endef
_imhtml_format_changed_cb:
LFB166:
	.loc 1 2762 0
	.cfi_startproc
LVL394:
	sub	esp, 28
LCFI135:
	.cfi_def_cfa_offset 32
	mov	eax, DWORD PTR [esp+40]
	.loc 1 2762 0
	mov	edx, DWORD PTR ___stack_chk_guard
	mov	DWORD PTR [esp+12], edx
	xor	edx, edx
	.loc 1 2763 0
	mov	edx, DWORD PTR [esp+12]
	xor	edx, DWORD PTR ___stack_chk_guard
	jne	L263
	mov	DWORD PTR [esp+36], eax
	mov	DWORD PTR [esp+32], 0
	.loc 1 2764 0
	add	esp, 28
LCFI136:
	.cfi_remember_state
	.cfi_def_cfa_offset 4
	.loc 1 2763 0
	jmp	_imhtml_changed_cb
LVL395:
L263:
LCFI137:
	.cfi_restore_state
	call	___stack_chk_fail
LVL396:
	.cfi_endproc
LFE166:
	.p2align 2,,3
	.def	_spellcheck_prefs_cb;	.scl	3;	.type	32;	.endef
_spellcheck_prefs_cb:
LFB124:
	.loc 1 1254 0
	.cfi_startproc
LVL397:
	push	esi
LCFI138:
	.cfi_def_cfa_offset 8
	.cfi_offset 6, -8
	push	ebx
LCFI139:
	.cfi_def_cfa_offset 12
	.cfi_offset 3, -12
	sub	esp, 36
LCFI140:
	.cfi_def_cfa_offset 48
	mov	ebx, DWORD PTR [esp+60]
	.loc 1 1254 0
	mov	eax, DWORD PTR ___stack_chk_guard
	mov	DWORD PTR [esp+28], eax
	xor	eax, eax
LVL398:
	.loc 1 1258 0
	mov	ecx, DWORD PTR [esp+56]
	test	ecx, ecx
	je	L265
	.loc 1 1259 0
	call	_gtk_text_view_get_type
LVL399:
	mov	DWORD PTR [esp+4], eax
	mov	eax, DWORD PTR [ebx+92]
	mov	DWORD PTR [esp], eax
	call	_g_type_check_instance_cast
LVL400:
	mov	edx, DWORD PTR [esp+28]
	xor	edx, DWORD PTR ___stack_chk_guard
	jne	L270
	mov	DWORD PTR [esp+48], eax
	.loc 1 1267 0
	add	esp, 36
LCFI141:
	.cfi_remember_state
	.cfi_def_cfa_offset 12
	pop	ebx
LCFI142:
	.cfi_restore 3
	.cfi_def_cfa_offset 8
LVL401:
	pop	esi
LCFI143:
	.cfi_restore 6
	.cfi_def_cfa_offset 4
	.loc 1 1259 0
	jmp	_pidgin_setup_gtkspell
LVL402:
	.p2align 2,,3
L265:
LCFI144:
	.cfi_restore_state
LBB40:
LBB41:
LBB42:
	.loc 1 1263 0
	mov	esi, DWORD PTR _wpidginspell_get_from_text_view
	call	_gtk_text_view_get_type
LVL403:
	mov	DWORD PTR [esp+4], eax
	mov	eax, DWORD PTR [ebx+92]
	mov	DWORD PTR [esp], eax
	call	_g_type_check_instance_cast
LVL404:
	mov	DWORD PTR [esp], eax
	call	esi
LVL405:
	.loc 1 1264 0
	mov	edx, DWORD PTR [esp+28]
	xor	edx, DWORD PTR ___stack_chk_guard
	jne	L270
	mov	DWORD PTR [esp+48], eax
	mov	eax, DWORD PTR _wpidginspell_detach
LVL406:
LBE42:
LBE41:
LBE40:
	.loc 1 1267 0
	add	esp, 36
LCFI145:
	.cfi_remember_state
	.cfi_def_cfa_offset 12
	pop	ebx
LCFI146:
	.cfi_restore 3
	.cfi_def_cfa_offset 8
LVL407:
	pop	esi
LCFI147:
	.cfi_restore 6
	.cfi_def_cfa_offset 4
LBB45:
LBB44:
LBB43:
	.loc 1 1264 0
	jmp	eax
LVL408:
L270:
LCFI148:
	.cfi_restore_state
	call	___stack_chk_fail
LVL409:
LBE43:
LBE44:
LBE45:
	.cfi_endproc
LFE124:
	.p2align 2,,3
	.def	_status_menu_refresh_iter;	.scl	3;	.type	32;	.endef
_status_menu_refresh_iter:
LFB111:
	.loc 1 824 0
	.cfi_startproc
LVL410:
	push	ebp
LCFI149:
	.cfi_def_cfa_offset 8
	.cfi_offset 5, -8
	push	edi
LCFI150:
	.cfi_def_cfa_offset 12
	.cfi_offset 7, -12
	push	esi
LCFI151:
	.cfi_def_cfa_offset 16
	.cfi_offset 6, -16
	push	ebx
LCFI152:
	.cfi_def_cfa_offset 20
	.cfi_offset 3, -20
	sub	esp, 108
LCFI153:
	.cfi_def_cfa_offset 128
	mov	ebp, eax
	.loc 1 824 0
	mov	eax, DWORD PTR ___stack_chk_guard
	mov	DWORD PTR [esp+92], eax
	xor	eax, eax
LVL411:
	.loc 1 832 0
	mov	eax, DWORD PTR [ebp+76]
	test	eax, eax
	je	L340
LVL412:
L271:
	.loc 1 950 0
	mov	edx, DWORD PTR [esp+92]
	xor	edx, DWORD PTR ___stack_chk_guard
	jne	L341
	add	esp, 108
LCFI154:
	.cfi_remember_state
	.cfi_def_cfa_offset 20
	pop	ebx
LCFI155:
	.cfi_restore 3
	.cfi_def_cfa_offset 16
	pop	esi
LCFI156:
	.cfi_restore 6
	.cfi_def_cfa_offset 12
	pop	edi
LCFI157:
	.cfi_restore 7
	.cfi_def_cfa_offset 8
	pop	ebp
LCFI158:
	.cfi_restore 5
	.cfi_def_cfa_offset 4
LVL413:
	ret
LVL414:
	.p2align 2,,3
L340:
LCFI159:
	.cfi_restore_state
	mov	ebx, edx
LVL415:
LBB52:
LBB53:
	.loc 1 835 0
	call	_purple_savedstatus_get_current
LVL416:
	mov	DWORD PTR [esp+48], eax
LVL417:
	.loc 1 841 0
	call	_gtk_widget_get_type
LVL418:
	mov	DWORD PTR [esp+44], eax
	mov	DWORD PTR [esp+4], eax
	mov	DWORD PTR [esp], ebp
	call	_g_type_check_instance_cast
LVL419:
	mov	DWORD PTR [esp+4], 0
	mov	DWORD PTR [esp], eax
	call	_gtk_widget_set_sensitive
LVL420:
	.loc 1 847 0
	mov	eax, DWORD PTR [esp+48]
	mov	DWORD PTR [esp], eax
	call	_purple_savedstatus_get_type
LVL421:
	mov	DWORD PTR [esp+52], eax
LVL422:
	.loc 1 848 0
	mov	eax, DWORD PTR [ebp+80]
LVL423:
	test	eax, eax
	je	L342
L273:
LBB54:
	.loc 1 864 0
	call	_gtk_tree_model_get_type
LVL424:
	mov	edi, eax
	mov	DWORD PTR [esp+4], eax
	mov	eax, DWORD PTR [ebp+72]
	mov	DWORD PTR [esp], eax
	call	_g_type_check_instance_cast
LVL425:
	lea	esi, [esp+76]
	mov	DWORD PTR [esp+4], esi
	mov	DWORD PTR [esp], eax
	call	_gtk_tree_model_get_iter_first
LVL426:
	test	eax, eax
	jne	L343
LVL427:
L292:
	.loc 1 829 0
	xor	esi, esi
L282:
LVL428:
LBE54:
	.loc 1 906 0
	mov	eax, DWORD PTR [ebp+304]
	test	eax, eax
	je	L293
	.loc 1 907 0
	mov	DWORD PTR [esp], eax
	call	_gtk_tree_row_reference_free
LVL429:
L293:
	.loc 1 908 0
	test	esi, esi
	je	L294
	.loc 1 909 0
	call	_gtk_tree_model_get_type
LVL430:
	mov	DWORD PTR [esp+4], eax
	mov	eax, DWORD PTR [ebp+72]
	mov	DWORD PTR [esp], eax
	call	_g_type_check_instance_cast
LVL431:
	mov	DWORD PTR [esp+4], esi
	mov	DWORD PTR [esp], eax
	call	_gtk_tree_row_reference_new
LVL432:
	mov	DWORD PTR [ebp+304], eax
	.loc 1 910 0
	mov	DWORD PTR [esp], esi
	call	_gtk_tree_path_free
LVL433:
L295:
	.loc 1 914 0
	test	ebx, ebx
	jne	L344
L296:
	.loc 1 949 0
	mov	eax, DWORD PTR [esp+44]
	mov	DWORD PTR [esp+4], eax
	mov	DWORD PTR [esp], ebp
	call	_g_type_check_instance_cast
LVL434:
	mov	DWORD PTR [esp+4], 1
	mov	DWORD PTR [esp], eax
	call	_gtk_widget_set_sensitive
LVL435:
	jmp	L271
LVL436:
	.p2align 2,,3
L343:
	mov	DWORD PTR [esp+56], ebx
	mov	ebx, DWORD PTR [esp+48]
LVL437:
	jmp	L283
LVL438:
	.p2align 2,,3
L348:
LBB57:
	.loc 1 875 0
	mov	DWORD PTR [esp], ebx
	call	_purple_savedstatus_is_transient
LVL439:
	test	eax, eax
	.loc 1 876 0
	mov	eax, DWORD PTR [esp+64]
	.loc 1 875 0
	je	L287
	.loc 1 876 0
	cmp	eax, 1
	je	L345
L287:
	.loc 1 895 0
	cmp	eax, 2
	je	L346
L291:
	.loc 1 902 0
	mov	DWORD PTR [esp+4], edi
	mov	eax, DWORD PTR [ebp+72]
	mov	DWORD PTR [esp], eax
	call	_g_type_check_instance_cast
LVL440:
	mov	DWORD PTR [esp+4], esi
	mov	DWORD PTR [esp], eax
	call	_gtk_tree_model_iter_next
LVL441:
	test	eax, eax
	je	L347
L283:
	.loc 1 868 0
	mov	DWORD PTR [esp+4], edi
	mov	eax, DWORD PTR [ebp+72]
	mov	DWORD PTR [esp], eax
	call	_g_type_check_instance_cast
LVL442:
	mov	DWORD PTR [esp+24], -1
	lea	edx, [esp+68]
	mov	DWORD PTR [esp+20], edx
	mov	DWORD PTR [esp+16], 6
	lea	edx, [esp+64]
	mov	DWORD PTR [esp+12], edx
	mov	DWORD PTR [esp+8], 0
	mov	DWORD PTR [esp+4], esi
	mov	DWORD PTR [esp], eax
	call	_gtk_tree_model_get
LVL443:
	.loc 1 875 0
	mov	eax, DWORD PTR [ebp+80]
	test	eax, eax
	jne	L348
	mov	eax, DWORD PTR [esp+64]
	jmp	L287
	.p2align 2,,3
L347:
	mov	ebx, DWORD PTR [esp+56]
	jmp	L292
	.p2align 2,,3
L346:
	.loc 1 896 0
	mov	edx, DWORD PTR [esp+68]
	mov	DWORD PTR [esp+60], edx
	mov	DWORD PTR [esp], ebx
	call	_purple_savedstatus_get_creation_time
LVL444:
	.loc 1 895 0
	cmp	DWORD PTR [esp+60], eax
	jne	L291
	mov	ebx, DWORD PTR [esp+56]
	.loc 1 899 0
	mov	DWORD PTR [esp+4], edi
	mov	eax, DWORD PTR [ebp+72]
	mov	DWORD PTR [esp], eax
	call	_g_type_check_instance_cast
LVL445:
	mov	DWORD PTR [esp+4], esi
	mov	DWORD PTR [esp], eax
	call	_gtk_tree_model_get_path
LVL446:
	mov	esi, eax
LVL447:
	jmp	L282
LVL448:
	.p2align 2,,3
L345:
	.loc 1 876 0
	mov	eax, DWORD PTR [esp+52]
	cmp	DWORD PTR [esp+68], eax
	jne	L291
LBB55:
	.loc 1 880 0
	mov	eax, DWORD PTR [ebp+80]
	mov	DWORD PTR [esp], eax
	call	_purple_account_get_active_status
LVL449:
	.loc 1 879 0
	mov	DWORD PTR [esp], eax
	call	_purple_status_get_name
LVL450:
	mov	ecx, eax
LVL451:
	.loc 1 882 0
	mov	DWORD PTR [esp+4], edi
	mov	eax, DWORD PTR [ebp+72]
LVL452:
	mov	DWORD PTR [esp], eax
	mov	DWORD PTR [esp+40], ecx
	call	_g_type_check_instance_cast
LVL453:
	mov	DWORD PTR [esp+16], -1
	lea	edx, [esp+72]
	mov	DWORD PTR [esp+12], edx
	mov	DWORD PTR [esp+8], 3
	mov	DWORD PTR [esp+4], esi
	mov	DWORD PTR [esp], eax
	call	_gtk_tree_model_get
LVL454:
	.loc 1 885 0
	mov	DWORD PTR [esp], ebx
	call	_purple_savedstatus_has_substatuses
LVL455:
	test	eax, eax
	mov	ecx, DWORD PTR [esp+40]
	je	L289
	.loc 1 886 0
	mov	edx, DWORD PTR [esp+72]
	mov	DWORD PTR [esp+4], ecx
	mov	DWORD PTR [esp], edx
	mov	DWORD PTR [esp+40], edx
	call	_strcmp
LVL456:
	test	eax, eax
	mov	edx, DWORD PTR [esp+40]
	je	L289
	.loc 1 893 0
	mov	DWORD PTR [esp], edx
	call	_g_free
LVL457:
	jmp	L291
LVL458:
	.p2align 2,,3
L294:
LBE55:
LBE57:
	.loc 1 912 0
	mov	DWORD PTR [ebp+304], 0
	jmp	L295
	.p2align 2,,3
L344:
	.loc 1 915 0
	mov	eax, DWORD PTR [esp+48]
	mov	DWORD PTR [esp], eax
	call	_purple_savedstatus_get_message
LVL459:
	mov	ebx, eax
LVL460:
	.loc 1 926 0
	mov	eax, DWORD PTR [esp+44]
LVL461:
	mov	DWORD PTR [esp+4], eax
	mov	eax, DWORD PTR [ebp+92]
	mov	DWORD PTR [esp], eax
	call	_g_type_check_instance_cast
LVL462:
	mov	DWORD PTR [esp+4], 0
	mov	DWORD PTR [esp], eax
	call	_gtk_widget_set_sensitive
LVL463:
	.loc 1 928 0
	call	_gtk_imhtml_get_type
LVL464:
	mov	DWORD PTR [esp+4], eax
	mov	eax, DWORD PTR [ebp+92]
	mov	DWORD PTR [esp], eax
	call	_g_type_check_instance_cast
LVL465:
	mov	DWORD PTR [esp+8], 0
	mov	DWORD PTR [esp+4], 0
	mov	DWORD PTR [esp], eax
	call	_gtk_imhtml_delete
LVL466:
	.loc 1 929 0
	call	_gtk_imhtml_get_type
LVL467:
	mov	DWORD PTR [esp+4], eax
	mov	eax, DWORD PTR [ebp+92]
	mov	DWORD PTR [esp], eax
	call	_g_type_check_instance_cast
LVL468:
	mov	DWORD PTR [esp], eax
	call	_gtk_imhtml_clear_formatting
LVL469:
	.loc 1 931 0
	mov	eax, DWORD PTR [esp+48]
	mov	DWORD PTR [esp], eax
	call	_purple_savedstatus_is_transient
LVL470:
	test	eax, eax
	je	L297
	test	ebx, ebx
	je	L297
	cmp	BYTE PTR [ebx], 0
	jne	L298
L297:
	.loc 1 933 0
	mov	DWORD PTR [ebp+140], 0
	.loc 1 934 0
	mov	eax, DWORD PTR [ebp+84]
	mov	DWORD PTR [esp], eax
	call	_gtk_widget_hide_all
LVL471:
L299:
	.loc 1 944 0
	mov	eax, DWORD PTR [esp+44]
	mov	DWORD PTR [esp+4], eax
	mov	eax, DWORD PTR [ebp+92]
	mov	DWORD PTR [esp], eax
	call	_g_type_check_instance_cast
LVL472:
	mov	DWORD PTR [esp+4], 1
	mov	DWORD PTR [esp], eax
	call	_gtk_widget_set_sensitive
LVL473:
	.loc 1 945 0
	mov	eax, ebp
	call	_update_size
LVL474:
	jmp	L296
LVL475:
	.p2align 2,,3
L342:
	.loc 1 848 0
	mov	eax, DWORD PTR [esp+48]
	mov	DWORD PTR [esp], eax
	call	_purple_savedstatus_is_transient
LVL476:
	test	eax, eax
	je	L273
	cmp	DWORD PTR [esp+52], 2
	je	L274
	.loc 1 849 0
	cmp	DWORD PTR [esp+52], 5
	je	L274
	cmp	DWORD PTR [esp+52], 4
	je	L274
	.loc 1 850 0
	cmp	DWORD PTR [esp+52], 1
	je	L274
	cmp	DWORD PTR [esp+52], 3
	jne	L273
L274:
	.loc 1 852 0
	mov	eax, DWORD PTR [esp+48]
	mov	DWORD PTR [esp], eax
	call	_purple_savedstatus_has_substatuses
LVL477:
	.loc 1 851 0
	test	eax, eax
	jne	L273
LVL478:
LBB58:
LBB59:
	.loc 1 2722 0
	mov	eax, DWORD PTR [esp+48]
	mov	DWORD PTR [esp], eax
	call	_purple_savedstatus_get_type
LVL479:
	cmp	eax, 5
	jbe	L349
L301:
	.loc 1 2720 0
	or	eax, -1
LVL480:
L275:
LBE59:
LBE58:
	.loc 1 855 0
	mov	DWORD PTR [esp+4], -1
	mov	DWORD PTR [esp], eax
	call	_gtk_tree_path_new_from_indices
LVL481:
	mov	esi, eax
LVL482:
	jmp	L282
LVL483:
L298:
	.loc 1 938 0
	mov	DWORD PTR [ebp+140], 1
	.loc 1 939 0
	mov	eax, DWORD PTR [ebp+84]
	mov	DWORD PTR [esp], eax
	call	_gtk_widget_show_all
LVL484:
	.loc 1 941 0
	call	_gtk_imhtml_get_type
LVL485:
	mov	DWORD PTR [esp+4], eax
	mov	eax, DWORD PTR [ebp+92]
	mov	DWORD PTR [esp], eax
	call	_g_type_check_instance_cast
LVL486:
	mov	DWORD PTR [esp+12], 0
	mov	DWORD PTR [esp+8], 0
	mov	DWORD PTR [esp+4], ebx
	mov	DWORD PTR [esp], eax
	call	_gtk_imhtml_append_text_with_images
LVL487:
	jmp	L299
LVL488:
L349:
LBB61:
LBB60:
	.loc 1 2722 0
	jmp	[DWORD PTR L281[0+eax*4]]
	.section .rdata,"dr"
	.align 4
L281:
	.long	L301
	.long	L302
	.long	L303
	.long	L304
	.long	L279
	.long	L305
	.text
L305:
	.loc 1 2720 0
	or	eax, -1
LVL489:
	.loc 1 2735 0
	inc	eax
LVL490:
L277:
	.loc 1 2738 0
	inc	eax
LVL491:
	jmp	L275
LVL492:
L279:
	.loc 1 2720 0
	or	eax, -1
LVL493:
	.loc 1 2729 0
	inc	eax
LVL494:
L278:
	.loc 1 2732 0
	inc	eax
LVL495:
L350:
	.loc 1 2735 0
	inc	eax
LVL496:
	jmp	L277
LVL497:
L304:
	.loc 1 2720 0
	or	eax, -1
LVL498:
	.loc 1 2732 0
	inc	eax
LVL499:
	jmp	L350
LVL500:
L303:
	.loc 1 2720 0
	or	eax, -1
LVL501:
	.loc 1 2738 0
	inc	eax
LVL502:
	jmp	L275
LVL503:
L302:
	.loc 1 2726 0
	xor	eax, eax
LVL504:
	.loc 1 2729 0
	inc	eax
LVL505:
	jmp	L278
LVL506:
L341:
LBE60:
LBE61:
LBE53:
LBE52:
	.loc 1 950 0
	call	___stack_chk_fail
LVL507:
L289:
	mov	ebx, DWORD PTR [esp+56]
LBB64:
LBB63:
LBB62:
LBB56:
	.loc 1 889 0
	mov	DWORD PTR [esp+4], edi
	mov	eax, DWORD PTR [ebp+72]
	mov	DWORD PTR [esp], eax
	call	_g_type_check_instance_cast
LVL508:
	mov	DWORD PTR [esp+4], esi
	mov	DWORD PTR [esp], eax
	call	_gtk_tree_model_get_path
LVL509:
	mov	esi, eax
LVL510:
	.loc 1 890 0
	mov	eax, DWORD PTR [esp+72]
LVL511:
	mov	DWORD PTR [esp], eax
	call	_g_free
LVL512:
	jmp	L282
LBE56:
LBE62:
LBE63:
LBE64:
	.cfi_endproc
LFE111:
	.p2align 2,,3
	.def	_account_status_changed_cb;	.scl	3;	.type	32;	.endef
_account_status_changed_cb:
LFB96:
	.loc 1 303 0
	.cfi_startproc
LVL513:
	push	ebx
LCFI160:
	.cfi_def_cfa_offset 8
	.cfi_offset 3, -8
	sub	esp, 24
LCFI161:
	.cfi_def_cfa_offset 32
	mov	ebx, DWORD PTR [esp+32]
	mov	ecx, DWORD PTR [esp+40]
	mov	eax, DWORD PTR [esp+44]
	.loc 1 303 0
	mov	edx, DWORD PTR ___stack_chk_guard
	mov	DWORD PTR [esp+12], edx
	xor	edx, edx
	.loc 1 304 0
	mov	edx, DWORD PTR [eax+76]
	cmp	edx, ebx
	je	L360
	.loc 1 306 0
	cmp	DWORD PTR [eax+80], ebx
	je	L361
	.loc 1 308 0
	mov	ebx, DWORD PTR [esp+12]
	xor	ebx, DWORD PTR ___stack_chk_guard
	jne	L359
	add	esp, 24
LCFI162:
	.cfi_remember_state
	.cfi_def_cfa_offset 8
	pop	ebx
LCFI163:
	.cfi_restore 3
	.cfi_def_cfa_offset 4
	ret
	.p2align 2,,3
L361:
LCFI164:
	.cfi_restore_state
	.loc 1 307 0
	mov	edx, DWORD PTR [esp+12]
	xor	edx, DWORD PTR ___stack_chk_guard
	jne	L359
	mov	edx, 1
	.loc 1 308 0
	add	esp, 24
LCFI165:
	.cfi_remember_state
	.cfi_def_cfa_offset 8
	pop	ebx
LCFI166:
	.cfi_restore 3
	.cfi_def_cfa_offset 4
	.loc 1 307 0
	jmp	_status_menu_refresh_iter
LVL514:
	.p2align 2,,3
L360:
LCFI167:
	.cfi_restore_state
	.loc 1 305 0
	mov	ebx, DWORD PTR [esp+12]
	xor	ebx, DWORD PTR ___stack_chk_guard
	jne	L359
	.loc 1 308 0
	add	esp, 24
LCFI168:
	.cfi_remember_state
	.cfi_def_cfa_offset 8
	pop	ebx
LCFI169:
	.cfi_restore 3
	.cfi_def_cfa_offset 4
	.loc 1 305 0
	jmp	_update_to_reflect_account_status
LVL515:
L359:
LCFI170:
	.cfi_restore_state
	.loc 1 308 0
	call	___stack_chk_fail
LVL516:
	.cfi_endproc
LFE96:
	.section .rdata,"dr"
LC19:
	.ascii "aim\0"
LC20:
	.ascii "buddyicon\0"
	.text
	.p2align 2,,3
	.def	_statusbox_uri_handler;	.scl	3;	.type	32;	.endef
_statusbox_uri_handler:
LFB100:
	.loc 1 402 0
	.cfi_startproc
LVL517:
	push	edi
LCFI171:
	.cfi_def_cfa_offset 8
	.cfi_offset 7, -8
	push	esi
LCFI172:
	.cfi_def_cfa_offset 12
	.cfi_offset 6, -12
	push	ebx
LCFI173:
	.cfi_def_cfa_offset 16
	.cfi_offset 3, -16
	sub	esp, 48
LCFI174:
	.cfi_def_cfa_offset 64
	mov	ebx, DWORD PTR [esp+68]
	mov	esi, DWORD PTR [esp+72]
	mov	edi, DWORD PTR [esp+76]
	.loc 1 402 0
	mov	eax, DWORD PTR ___stack_chk_guard
	mov	DWORD PTR [esp+44], eax
	xor	eax, eax
	.loc 1 405 0
	mov	DWORD PTR [esp+4], OFFSET FLAT:LC19
	mov	eax, DWORD PTR [esp+64]
	mov	DWORD PTR [esp], eax
	call	_g_ascii_strcasecmp
LVL518:
	test	eax, eax
	je	L363
L368:
LBB67:
LBB68:
	.loc 1 413 0
	xor	eax, eax
L364:
LBE68:
LBE67:
	.loc 1 417 0
	mov	edx, DWORD PTR [esp+44]
	xor	edx, DWORD PTR ___stack_chk_guard
	jne	L370
	add	esp, 48
LCFI175:
	.cfi_remember_state
	.cfi_def_cfa_offset 16
	pop	ebx
LCFI176:
	.cfi_restore 3
	.cfi_def_cfa_offset 12
	pop	esi
LCFI177:
	.cfi_restore 6
	.cfi_def_cfa_offset 8
	pop	edi
LCFI178:
	.cfi_restore 7
	.cfi_def_cfa_offset 4
	ret
	.p2align 2,,3
L363:
LCFI179:
	.cfi_restore_state
	.loc 1 408 0
	mov	DWORD PTR [esp+4], OFFSET FLAT:LC20
	mov	DWORD PTR [esp], ebx
	call	_g_ascii_strcasecmp
LVL519:
	test	eax, eax
	jne	L368
LVL520:
LBB70:
LBB69:
	.loc 1 411 0
	mov	DWORD PTR [esp+4], OFFSET FLAT:LC3
	mov	DWORD PTR [esp], esi
	call	_g_hash_table_lookup
LVL521:
	.loc 1 412 0
	test	eax, eax
	je	L368
	.loc 1 415 0
	mov	DWORD PTR [esp+28], edi
	mov	DWORD PTR [esp+24], OFFSET FLAT:_statusbox_got_url
	mov	DWORD PTR [esp+20], 0
	mov	DWORD PTR [esp+16], 0
	mov	DWORD PTR [esp+12], 0
	mov	DWORD PTR [esp+8], 0
	mov	DWORD PTR [esp+4], 1
	mov	DWORD PTR [esp], eax
	call	_purple_util_fetch_url_request
LVL522:
	.loc 1 416 0
	mov	eax, 1
	jmp	L364
LVL523:
L370:
LBE69:
LBE70:
	.loc 1 417 0
	call	___stack_chk_fail
LVL524:
	.cfi_endproc
LFE100:
	.section .rdata,"dr"
LC21:
	.ascii "saved != NULL\0"
	.text
	.p2align 2,,3
	.def	_tree_view_delete_current_selection_cb;	.scl	3;	.type	32;	.endef
_tree_view_delete_current_selection_cb:
LFB137:
	.loc 1 1569 0
	.cfi_startproc
LVL525:
	push	ebx
LCFI180:
	.cfi_def_cfa_offset 8
	.cfi_offset 3, -8
	sub	esp, 40
LCFI181:
	.cfi_def_cfa_offset 48
	.loc 1 1569 0
	mov	eax, DWORD PTR ___stack_chk_guard
	mov	DWORD PTR [esp+28], eax
	xor	eax, eax
	.loc 1 1572 0
	mov	eax, DWORD PTR [esp+48]
	mov	DWORD PTR [esp], eax
	call	_purple_savedstatus_find_by_creation_time
LVL526:
	mov	ebx, eax
LVL527:
LBB75:
	.loc 1 1573 0
	test	eax, eax
	je	L381
LVL528:
LBE75:
	.loc 1 1575 0
	call	_purple_savedstatus_get_current
LVL529:
	cmp	eax, ebx
	je	L375
	.loc 1 1576 0
	mov	eax, DWORD PTR [esp+28]
	xor	eax, DWORD PTR ___stack_chk_guard
	jne	L379
	mov	DWORD PTR [esp+48], ebx
	.loc 1 1577 0
	add	esp, 40
LCFI182:
	.cfi_remember_state
	.cfi_def_cfa_offset 8
	pop	ebx
LCFI183:
	.cfi_restore 3
	.cfi_def_cfa_offset 4
LVL530:
	.loc 1 1576 0
	jmp	_purple_savedstatus_delete_by_status
LVL531:
	.p2align 2,,3
L381:
LCFI184:
	.cfi_restore_state
LBB76:
LBB77:
	.loc 1 1573 0
	mov	DWORD PTR [esp+8], OFFSET FLAT:LC21
	mov	DWORD PTR [esp+4], OFFSET FLAT:___PRETTY_FUNCTION__.78562
	mov	DWORD PTR [esp], 0
	call	_g_return_if_fail_warning
LVL532:
L375:
LBE77:
LBE76:
	.loc 1 1577 0 discriminator 1
	mov	eax, DWORD PTR [esp+28]
	xor	eax, DWORD PTR ___stack_chk_guard
	jne	L379
	.loc 1 1577 0 is_stmt 0
	add	esp, 40
LCFI185:
	.cfi_remember_state
	.cfi_def_cfa_offset 8
	pop	ebx
LCFI186:
	.cfi_restore 3
	.cfi_def_cfa_offset 4
LVL533:
	ret
LVL534:
L379:
LCFI187:
	.cfi_restore_state
	call	___stack_chk_fail
LVL535:
	.cfi_endproc
LFE137:
	.p2align 2,,3
	.def	_choose_buddy_icon_cb;	.scl	3;	.type	32;	.endef
_choose_buddy_icon_cb:
LFB133:
	.loc 1 1526 0 is_stmt 1
	.cfi_startproc
LVL536:
	push	edi
LCFI188:
	.cfi_def_cfa_offset 8
	.cfi_offset 7, -8
	push	esi
LCFI189:
	.cfi_def_cfa_offset 12
	.cfi_offset 6, -12
	push	ebx
LCFI190:
	.cfi_def_cfa_offset 16
	.cfi_offset 3, -16
	sub	esp, 32
LCFI191:
	.cfi_def_cfa_offset 48
	mov	edi, DWORD PTR [esp+48]
	mov	esi, DWORD PTR [esp+52]
	.loc 1 1526 0
	mov	eax, DWORD PTR ___stack_chk_guard
	mov	DWORD PTR [esp+28], eax
	xor	eax, eax
	.loc 1 1527 0
	mov	ebx, DWORD PTR [esi+108]
	test	ebx, ebx
	je	L383
	.loc 1 1528 0
	call	_gtk_window_get_type
LVL537:
	mov	DWORD PTR [esp+4], eax
	mov	DWORD PTR [esp], ebx
	call	_g_type_check_instance_cast
LVL538:
	mov	edx, DWORD PTR [esp+28]
	xor	edx, DWORD PTR ___stack_chk_guard
	jne	L388
	mov	DWORD PTR [esp+48], eax
	.loc 1 1533 0
	add	esp, 32
LCFI192:
	.cfi_remember_state
	.cfi_def_cfa_offset 16
	pop	ebx
LCFI193:
	.cfi_restore 3
	.cfi_def_cfa_offset 12
	pop	esi
LCFI194:
	.cfi_restore 6
	.cfi_def_cfa_offset 8
	pop	edi
LCFI195:
	.cfi_restore 7
	.cfi_def_cfa_offset 4
	.loc 1 1528 0
	jmp	_gtk_window_present
LVL539:
	.p2align 2,,3
L383:
LCFI196:
	.cfi_restore_state
LBB80:
LBB81:
	.loc 1 1530 0
	call	_gtk_window_get_type
LVL540:
	mov	ebx, eax
	mov	DWORD PTR [esp], edi
	call	_gtk_widget_get_toplevel
LVL541:
	mov	DWORD PTR [esp+4], ebx
	mov	DWORD PTR [esp], eax
	call	_g_type_check_instance_cast
LVL542:
	mov	DWORD PTR [esp+8], esi
	mov	DWORD PTR [esp+4], OFFSET FLAT:_icon_choose_cb
	mov	DWORD PTR [esp], eax
	call	_pidgin_buddy_icon_chooser_new
LVL543:
	mov	DWORD PTR [esi+108], eax
	.loc 1 1531 0
	mov	edx, DWORD PTR [esp+28]
	xor	edx, DWORD PTR ___stack_chk_guard
	jne	L388
	mov	DWORD PTR [esp+48], eax
LBE81:
LBE80:
	.loc 1 1533 0
	add	esp, 32
LCFI197:
	.cfi_remember_state
	.cfi_def_cfa_offset 16
	pop	ebx
LCFI198:
	.cfi_restore 3
	.cfi_def_cfa_offset 12
	pop	esi
LCFI199:
	.cfi_restore 6
	.cfi_def_cfa_offset 8
LVL544:
	pop	edi
LCFI200:
	.cfi_restore 7
	.cfi_def_cfa_offset 4
LVL545:
LBB83:
LBB82:
	.loc 1 1531 0
	jmp	_gtk_widget_show_all
LVL546:
L388:
LCFI201:
	.cfi_restore_state
	call	___stack_chk_fail
LVL547:
LBE82:
LBE83:
	.cfi_endproc
LFE133:
	.section .rdata,"dr"
LC22:
	.ascii "Select Buddy Icon\0"
LC23:
	.ascii "gtk-add\0"
LC24:
	.ascii "Remove\0"
LC25:
	.ascii "gtk-remove\0"
LC26:
	.ascii "/pidgin/accounts/buddyicon\0"
	.text
	.p2align 2,,3
	.def	_icon_box_press_cb;	.scl	3;	.type	32;	.endef
_icon_box_press_cb:
LFB97:
	.loc 1 312 0
	.cfi_startproc
LVL548:
	push	edi
LCFI202:
	.cfi_def_cfa_offset 8
	.cfi_offset 7, -8
	push	esi
LCFI203:
	.cfi_def_cfa_offset 12
	.cfi_offset 6, -12
	push	ebx
LCFI204:
	.cfi_def_cfa_offset 16
	.cfi_offset 3, -16
	sub	esp, 48
LCFI205:
	.cfi_def_cfa_offset 64
	mov	eax, DWORD PTR [esp+64]
	mov	esi, DWORD PTR [esp+68]
	mov	ebx, DWORD PTR [esp+72]
	.loc 1 312 0
	mov	edx, DWORD PTR ___stack_chk_guard
	mov	DWORD PTR [esp+44], edx
	xor	edx, edx
	.loc 1 313 0
	cmp	DWORD PTR [esi+40], 3
	je	L403
	.loc 1 337 0
	mov	DWORD PTR [esp+4], ebx
	mov	DWORD PTR [esp], eax
	call	_choose_buddy_icon_cb
LVL549:
L394:
	.loc 1 340 0
	xor	eax, eax
	mov	edx, DWORD PTR [esp+44]
	xor	edx, DWORD PTR ___stack_chk_guard
	jne	L404
	add	esp, 48
LCFI206:
	.cfi_remember_state
	.cfi_def_cfa_offset 16
	pop	ebx
LCFI207:
	.cfi_restore 3
	.cfi_def_cfa_offset 12
	pop	esi
LCFI208:
	.cfi_restore 6
	.cfi_def_cfa_offset 8
	pop	edi
LCFI209:
	.cfi_restore 7
	.cfi_def_cfa_offset 4
	ret
	.p2align 2,,3
L403:
LCFI210:
	.cfi_restore_state
LVL550:
LBB87:
LBB88:
LBB89:
	.loc 1 317 0
	mov	eax, DWORD PTR [ebx+120]
	test	eax, eax
	je	L391
	.loc 1 318 0
	mov	DWORD PTR [esp], eax
	call	_gtk_widget_destroy
LVL551:
L391:
	.loc 1 320 0
	call	_gtk_menu_new
LVL552:
	mov	DWORD PTR [ebx+120], eax
	.loc 1 323 0
	mov	DWORD PTR [esp+4], OFFSET FLAT:LC22
	mov	DWORD PTR [esp], OFFSET FLAT:LC12
	call	_libintl_dgettext
LVL553:
	.loc 1 322 0
	mov	DWORD PTR [esp+28], 0
	mov	DWORD PTR [esp+24], 0
	mov	DWORD PTR [esp+20], 0
	mov	DWORD PTR [esp+16], ebx
	mov	DWORD PTR [esp+12], OFFSET FLAT:_choose_buddy_icon_cb
	mov	DWORD PTR [esp+8], OFFSET FLAT:LC23
	mov	DWORD PTR [esp+4], eax
	mov	eax, DWORD PTR [ebx+120]
	mov	DWORD PTR [esp], eax
	call	_pidgin_new_item_from_stock
LVL554:
	.loc 1 326 0
	mov	DWORD PTR [esp+4], OFFSET FLAT:LC24
	mov	DWORD PTR [esp], OFFSET FLAT:LC12
	call	_libintl_dgettext
LVL555:
	mov	DWORD PTR [esp+28], 0
	mov	DWORD PTR [esp+24], 0
	mov	DWORD PTR [esp+20], 0
	mov	DWORD PTR [esp+16], ebx
	mov	DWORD PTR [esp+12], OFFSET FLAT:_remove_buddy_icon_cb
	mov	DWORD PTR [esp+8], OFFSET FLAT:LC25
	mov	DWORD PTR [esp+4], eax
	mov	eax, DWORD PTR [ebx+120]
	mov	DWORD PTR [esp], eax
	call	_pidgin_new_item_from_stock
LVL556:
	mov	edi, eax
LVL557:
	.loc 1 329 0
	mov	DWORD PTR [esp], OFFSET FLAT:LC26
	call	_purple_prefs_get_path
LVL558:
	test	eax, eax
	je	L392
	.loc 1 330 0
	cmp	BYTE PTR [eax], 0
	jne	L393
L392:
	.loc 1 331 0
	mov	DWORD PTR [esp+4], 0
	mov	DWORD PTR [esp], edi
	call	_gtk_widget_set_sensitive
LVL559:
L393:
	.loc 1 333 0
	mov	edi, DWORD PTR [esi+12]
LVL560:
	mov	esi, DWORD PTR [esi+40]
LVL561:
	call	_gtk_menu_get_type
LVL562:
	mov	DWORD PTR [esp+4], eax
	mov	eax, DWORD PTR [ebx+120]
	mov	DWORD PTR [esp], eax
	call	_g_type_check_instance_cast
LVL563:
	mov	DWORD PTR [esp+24], edi
	mov	DWORD PTR [esp+20], esi
	mov	DWORD PTR [esp+16], 0
	mov	DWORD PTR [esp+12], 0
	mov	DWORD PTR [esp+8], 0
	mov	DWORD PTR [esp+4], 0
	mov	DWORD PTR [esp], eax
	call	_gtk_menu_popup
LVL564:
	jmp	L394
LVL565:
L404:
LBE89:
LBE88:
LBE87:
	.loc 1 340 0
	call	___stack_chk_fail
LVL566:
	.cfi_endproc
LFE97:
	.section .rdata,"dr"
LC27:
	.ascii "(no error message)\0"
LC28:
	.ascii "size-prepared\0"
	.align 4
LC29:
	.ascii "gdk_pixbuf_loader_write() failed with size=%zu: %s\12\0"
LC30:
	.ascii "gtkstatusbox\0"
	.align 4
LC31:
	.ascii "gdk_pixbuf_loader_close() failed for image of size %zu: %s\12\0"
LC32:
	.ascii "pidgin-icon-size-tango-small\0"
LC33:
	.ascii "PidginStatusBox\0"
LC34:
	.ascii "pidgin-select-avatar\0"
	.text
	.p2align 2,,3
	.def	_pidgin_status_box_redisplay_buddy_icon;	.scl	3;	.type	32;	.endef
_pidgin_status_box_redisplay_buddy_icon:
LFB156:
	.loc 1 2213 0
	.cfi_startproc
LVL567:
	push	ebp
LCFI211:
	.cfi_def_cfa_offset 8
	.cfi_offset 5, -8
	push	edi
LCFI212:
	.cfi_def_cfa_offset 12
	.cfi_offset 7, -12
	push	esi
LCFI213:
	.cfi_def_cfa_offset 16
	.cfi_offset 6, -16
	push	ebx
LCFI214:
	.cfi_def_cfa_offset 20
	.cfi_offset 3, -20
	sub	esp, 108
LCFI215:
	.cfi_def_cfa_offset 128
	mov	DWORD PTR [esp+60], eax
	.loc 1 2213 0
	mov	eax, DWORD PTR ___stack_chk_guard
	mov	DWORD PTR [esp+92], eax
	xor	eax, eax
LVL568:
	.loc 1 2216 0
	mov	eax, DWORD PTR [esp+60]
	mov	edx, DWORD PTR [eax+132]
	test	edx, edx
	jle	L405
	.loc 1 2219 0
	mov	eax, DWORD PTR [eax+100]
	test	eax, eax
	je	L408
	.loc 1 2220 0
	mov	DWORD PTR [esp], eax
	call	_g_object_unref
LVL569:
L408:
	.loc 1 2221 0
	mov	ebx, DWORD PTR [esp+60]
	mov	eax, DWORD PTR [ebx+104]
	test	eax, eax
	je	L409
	.loc 1 2222 0
	mov	DWORD PTR [esp], eax
	call	_g_object_unref
LVL570:
L409:
	.loc 1 2223 0
	mov	eax, DWORD PTR [esp+60]
	mov	DWORD PTR [eax+100], 0
	.loc 1 2224 0
	mov	DWORD PTR [eax+104], 0
	.loc 1 2226 0
	mov	eax, DWORD PTR [eax+96]
	test	eax, eax
	je	L410
LBB95:
	.loc 1 2229 0
	mov	DWORD PTR [esp+88], 0
LVL571:
	.loc 1 2231 0
	call	_gdk_pixbuf_loader_new
LVL572:
	mov	ebx, eax
LVL573:
	.loc 1 2233 0
	mov	DWORD PTR [esp+4], 80
	mov	DWORD PTR [esp], eax
	call	_g_type_check_instance_cast
LVL574:
	mov	DWORD PTR [esp+20], 0
	mov	DWORD PTR [esp+16], 0
	mov	DWORD PTR [esp+12], 0
	mov	DWORD PTR [esp+8], OFFSET FLAT:_pixbuf_size_prepared_cb
	mov	DWORD PTR [esp+4], OFFSET FLAT:LC28
	mov	DWORD PTR [esp], eax
	call	_g_signal_connect_data
LVL575:
	.loc 1 2234 0
	mov	edx, DWORD PTR [esp+60]
	mov	eax, DWORD PTR [edx+96]
	mov	DWORD PTR [esp], eax
	call	_purple_imgstore_get_size
LVL576:
	mov	edi, eax
	.loc 1 2235 0
	mov	edx, DWORD PTR [esp+60]
	mov	eax, DWORD PTR [edx+96]
	mov	DWORD PTR [esp], eax
	call	_purple_imgstore_get_data
LVL577:
	.loc 1 2234 0
	lea	esi, [esp+88]
	mov	DWORD PTR [esp+12], esi
	mov	DWORD PTR [esp+8], edi
	mov	DWORD PTR [esp+4], eax
	mov	DWORD PTR [esp], ebx
	call	_gdk_pixbuf_loader_write
LVL578:
	test	eax, eax
	.loc 1 2242 0
	mov	eax, DWORD PTR [esp+88]
	.loc 1 2234 0
	je	L411
	.loc 1 2237 0
	test	eax, eax
	je	L471
L412:
	.loc 1 2239 0
	mov	esi, DWORD PTR [eax+8]
L414:
	.loc 1 2239 0 is_stmt 0 discriminator 2
	mov	edx, DWORD PTR [esp+60]
	mov	eax, DWORD PTR [edx+96]
	mov	DWORD PTR [esp], eax
	call	_purple_imgstore_get_size
LVL579:
	mov	DWORD PTR [esp+12], esi
	mov	DWORD PTR [esp+8], eax
	mov	DWORD PTR [esp+4], OFFSET FLAT:LC29
L470:
	.loc 1 2246 0 is_stmt 1 discriminator 2
	mov	DWORD PTR [esp], OFFSET FLAT:LC30
	call	_purple_debug_warning
LVL580:
	.loc 1 2250 0 discriminator 2
	mov	eax, DWORD PTR [esp+88]
	test	eax, eax
	je	L416
	.loc 1 2251 0
	mov	DWORD PTR [esp], eax
	call	_g_error_free
LVL581:
L416:
	.loc 1 2267 0
	mov	DWORD PTR [esp], ebx
	call	_g_object_unref
LVL582:
	mov	eax, DWORD PTR [esp+60]
	mov	ebx, DWORD PTR [eax+100]
LVL583:
LBE95:
	.loc 1 2270 0
	test	ebx, ebx
	je	L410
	.loc 1 2212 0
	call	_gtk_widget_get_type
LVL584:
	mov	DWORD PTR [esp+76], eax
L438:
	.loc 1 2280 0
	mov	DWORD PTR [esp], ebx
	call	_pidgin_gdk_pixbuf_is_opaque
LVL585:
	mov	edx, DWORD PTR [esp+60]
	mov	DWORD PTR [edx+136], eax
	.loc 1 2281 0
	mov	ebx, DWORD PTR [edx+100]
	call	_gtk_image_get_type
LVL586:
	mov	DWORD PTR [esp+4], eax
	mov	edx, DWORD PTR [esp+60]
	mov	eax, DWORD PTR [edx+112]
	mov	DWORD PTR [esp], eax
	call	_g_type_check_instance_cast
LVL587:
	mov	DWORD PTR [esp+4], ebx
	mov	DWORD PTR [esp], eax
	call	_gtk_image_set_from_pixbuf
LVL588:
	.loc 1 2282 0
	mov	ebx, DWORD PTR [esp+60]
	mov	eax, DWORD PTR [ebx+100]
	mov	DWORD PTR [esp], eax
	call	_gdk_pixbuf_copy
LVL589:
	mov	ebx, eax
	mov	eax, DWORD PTR [esp+60]
	mov	DWORD PTR [eax+104], ebx
LVL590:
LBB97:
LBB98:
	.loc 1 1961 0
	mov	DWORD PTR [esp], ebx
	call	_gdk_pixbuf_get_has_alpha
LVL591:
	mov	edi, eax
LVL592:
	.loc 1 1962 0
	mov	DWORD PTR [esp], ebx
	call	_gdk_pixbuf_get_width
LVL593:
	mov	DWORD PTR [esp+44], eax
LVL594:
	.loc 1 1963 0
	mov	DWORD PTR [esp], ebx
	call	_gdk_pixbuf_get_height
LVL595:
	mov	DWORD PTR [esp+64], eax
LVL596:
	.loc 1 1964 0
	mov	DWORD PTR [esp], ebx
	call	_gdk_pixbuf_get_rowstride
LVL597:
	mov	DWORD PTR [esp+68], eax
LVL598:
	.loc 1 1965 0
	mov	DWORD PTR [esp], ebx
	call	_gdk_pixbuf_get_rowstride
LVL599:
	mov	DWORD PTR [esp+72], eax
LVL600:
	.loc 1 1966 0
	mov	DWORD PTR [esp], ebx
	call	_gdk_pixbuf_get_pixels
LVL601:
	mov	esi, eax
LVL602:
	.loc 1 1967 0
	mov	DWORD PTR [esp], ebx
	call	_gdk_pixbuf_get_pixels
LVL603:
	.loc 1 1969 0
	mov	ebp, DWORD PTR [esp+64]
	test	ebp, ebp
	jle	L428
	mov	DWORD PTR [esp+48], eax
	mov	DWORD PTR [esp+52], esi
LBE98:
LBE97:
LBB102:
	mov	DWORD PTR [esp+56], 0
LVL604:
	.p2align 2,,3
L427:
LBE102:
LBB103:
LBB99:
	.loc 1 1970 0
	mov	edx, DWORD PTR [esp+52]
LVL605:
	.loc 1 1971 0
	mov	eax, DWORD PTR [esp+48]
LVL606:
	.loc 1 1972 0
	xor	ecx, ecx
	mov	ebx, DWORD PTR [esp+44]
	test	ebx, ebx
	jg	L456
	jmp	L437
LVL607:
	.p2align 2,,3
L472:
	.loc 1 1979 0
	mov	ebx, ebp
L431:
	mov	BYTE PTR [edx+1], bl
LVL608:
	.loc 1 1980 0
	and	esi, 255
LVL609:
	add	esi, 32
LVL610:
	.loc 1 1981 0
	cmp	esi, 255
	jg	L445
	mov	ebx, esi
L433:
	mov	BYTE PTR [edx+2], bl
LVL611:
	.loc 1 1982 0
	test	edi, edi
	jne	L435
	.loc 1 1975 0
	add	eax, 3
LVL612:
	.loc 1 1981 0
	add	edx, 3
LVL613:
	.loc 1 1972 0
	inc	ecx
LVL614:
	cmp	ecx, DWORD PTR [esp+44]
	je	L437
LVL615:
L456:
	.loc 1 1974 0
	movzx	ebp, BYTE PTR [eax+1]
LVL616:
	.loc 1 1975 0
	movzx	esi, BYTE PTR [eax+2]
LVL617:
	.loc 1 1976 0
	movzx	ebx, BYTE PTR [eax]
	add	ebx, 32
LVL618:
	.loc 1 1977 0
	cmp	ebx, 255
	jle	L429
	mov	bl, -1
LVL619:
L429:
	mov	BYTE PTR [edx], bl
LVL620:
	.loc 1 1978 0
	and	ebp, 255
LVL621:
	add	ebp, 32
LVL622:
	.loc 1 1979 0
	cmp	ebp, 255
	jle	L472
	mov	bl, -1
	jmp	L431
LVL623:
L410:
LBE99:
LBE103:
LBB104:
	.loc 1 2273 0
	mov	DWORD PTR [esp], OFFSET FLAT:LC32
	call	_gtk_icon_size_from_name
LVL624:
	mov	ebx, eax
LVL625:
	.loc 1 2274 0
	call	_gtk_widget_get_type
LVL626:
	mov	DWORD PTR [esp+76], eax
	mov	DWORD PTR [esp+4], eax
	mov	eax, DWORD PTR [esp+60]
	mov	DWORD PTR [esp], eax
	call	_g_type_check_instance_cast
LVL627:
	mov	DWORD PTR [esp+12], OFFSET FLAT:LC33
	mov	DWORD PTR [esp+8], ebx
	mov	DWORD PTR [esp+4], OFFSET FLAT:LC34
	mov	DWORD PTR [esp], eax
	call	_gtk_widget_render_icon
LVL628:
	mov	ebx, eax
LVL629:
	mov	eax, DWORD PTR [esp+60]
	mov	DWORD PTR [eax+100], ebx
LBE104:
	.loc 1 2279 0
	test	ebx, ebx
	jne	L438
	.p2align 2,,3
L405:
	.loc 1 2286 0
	mov	eax, DWORD PTR [esp+92]
	xor	eax, DWORD PTR ___stack_chk_guard
	jne	L473
	add	esp, 108
LCFI216:
	.cfi_remember_state
	.cfi_def_cfa_offset 20
	pop	ebx
LCFI217:
	.cfi_restore 3
	.cfi_def_cfa_offset 16
	pop	esi
LCFI218:
	.cfi_restore 6
	.cfi_def_cfa_offset 12
	pop	edi
LCFI219:
	.cfi_restore 7
	.cfi_def_cfa_offset 8
	pop	ebp
LCFI220:
	.cfi_restore 5
	.cfi_def_cfa_offset 4
	ret
LVL630:
L411:
LCFI221:
	.cfi_restore_state
LBB105:
	.loc 1 2239 0
	test	eax, eax
	jne	L412
	mov	esi, OFFSET FLAT:LC27
	jmp	L414
LVL631:
	.p2align 2,,3
L435:
LBE105:
LBB106:
LBB100:
	.loc 1 1983 0
	mov	bl, BYTE PTR [eax+3]
	mov	BYTE PTR [edx+3], bl
	add	edx, 4
LVL632:
	add	eax, 4
LVL633:
	.loc 1 1972 0
	inc	ecx
LVL634:
	cmp	ecx, DWORD PTR [esp+44]
	jne	L456
LVL635:
L437:
	.loc 1 1969 0
	inc	DWORD PTR [esp+56]
LVL636:
	mov	eax, DWORD PTR [esp+68]
LVL637:
	add	DWORD PTR [esp+48], eax
	mov	eax, DWORD PTR [esp+72]
	add	DWORD PTR [esp+52], eax
	mov	eax, DWORD PTR [esp+64]
	cmp	DWORD PTR [esp+56], eax
	jne	L427
LVL638:
L428:
LBE100:
LBE106:
	.loc 1 2284 0
	mov	eax, DWORD PTR [esp+76]
	mov	DWORD PTR [esp+4], eax
	mov	eax, DWORD PTR [esp+60]
	mov	DWORD PTR [esp], eax
	call	_g_type_check_instance_cast
LVL639:
	mov	DWORD PTR [esp], eax
	call	_gtk_widget_queue_resize
LVL640:
	jmp	L405
LVL641:
	.p2align 2,,3
L445:
LBB107:
LBB101:
	.loc 1 1981 0
	mov	bl, -1
	jmp	L433
LVL642:
L471:
LBE101:
LBE107:
LBB108:
	.loc 1 2245 0
	mov	DWORD PTR [esp+4], esi
	mov	DWORD PTR [esp], ebx
	call	_gdk_pixbuf_loader_close
LVL643:
	test	eax, eax
	.loc 1 2249 0
	mov	eax, DWORD PTR [esp+88]
	.loc 1 2245 0
	je	L417
	.loc 1 2245 0 is_stmt 0 discriminator 1
	test	eax, eax
	je	L474
L418:
	.loc 1 2246 0 is_stmt 1
	mov	esi, DWORD PTR [eax+8]
L420:
	.loc 1 2246 0 is_stmt 0 discriminator 2
	mov	edx, DWORD PTR [esp+60]
	mov	eax, DWORD PTR [edx+96]
	mov	DWORD PTR [esp], eax
	call	_purple_imgstore_get_size
LVL644:
	mov	DWORD PTR [esp+12], esi
	mov	DWORD PTR [esp+8], eax
	mov	DWORD PTR [esp+4], OFFSET FLAT:LC31
	jmp	L470
L417:
	.loc 1 2246 0
	test	eax, eax
	jne	L418
	mov	esi, OFFSET FLAT:LC27
	jmp	L420
LVL645:
L473:
LBE108:
	.loc 1 2286 0 is_stmt 1
	call	___stack_chk_fail
LVL646:
L474:
LBB109:
LBB96:
	.loc 1 2256 0
	mov	DWORD PTR [esp], ebx
	call	_gdk_pixbuf_loader_get_pixbuf
LVL647:
	mov	ebp, eax
LVL648:
	.loc 1 2257 0
	mov	DWORD PTR [esp], eax
	call	_gdk_pixbuf_get_width
LVL649:
	mov	edi, eax
LVL650:
	.loc 1 2258 0
	mov	DWORD PTR [esp], ebp
	call	_gdk_pixbuf_get_height
LVL651:
	.loc 1 2259 0
	mov	DWORD PTR [esp+16], eax
	mov	DWORD PTR [esp+12], edi
	mov	DWORD PTR [esp+8], 8
	mov	DWORD PTR [esp+4], 1
	mov	DWORD PTR [esp], 0
	mov	DWORD PTR [esp+40], eax
	call	_gdk_pixbuf_new
LVL652:
	mov	esi, eax
LVL653:
	.loc 1 2260 0
	mov	DWORD PTR [esp+4], 0
	mov	DWORD PTR [esp], eax
	call	_gdk_pixbuf_fill
LVL654:
	.loc 1 2261 0
	mov	DWORD PTR [esp+28], 0
	mov	DWORD PTR [esp+24], 0
	mov	DWORD PTR [esp+20], esi
	mov	edx, DWORD PTR [esp+40]
	mov	DWORD PTR [esp+16], edx
	mov	DWORD PTR [esp+12], edi
	mov	DWORD PTR [esp+8], 0
	mov	DWORD PTR [esp+4], 0
	mov	DWORD PTR [esp], ebp
	call	_gdk_pixbuf_copy_area
LVL655:
	.loc 1 2262 0
	mov	DWORD PTR [esp], esi
	call	_pidgin_gdk_pixbuf_is_opaque
LVL656:
	test	eax, eax
	je	L422
	.loc 1 2263 0
	mov	DWORD PTR [esp], esi
	call	_pidgin_gdk_pixbuf_make_round
LVL657:
L422:
	.loc 1 2264 0
	mov	eax, DWORD PTR [esp+60]
	mov	DWORD PTR [eax+100], esi
	jmp	L416
LBE96:
LBE109:
	.cfi_endproc
LFE156:
	.section .rdata,"dr"
LC35:
	.ascii "vscrollbar-policy\0"
LC36:
	.ascii "hscrollbar-policy\0"
	.text
	.p2align 2,,3
	.def	_pidgin_status_box_popup;	.scl	3;	.type	32;	.endef
_pidgin_status_box_popup:
LFB127:
	.loc 1 1389 0
	.cfi_startproc
LVL658:
	push	ebp
LCFI222:
	.cfi_def_cfa_offset 8
	.cfi_offset 5, -8
	push	edi
LCFI223:
	.cfi_def_cfa_offset 12
	.cfi_offset 7, -12
	push	esi
LCFI224:
	.cfi_def_cfa_offset 16
	.cfi_offset 6, -16
	push	ebx
LCFI225:
	.cfi_def_cfa_offset 20
	.cfi_offset 3, -20
	sub	esp, 108
LCFI226:
	.cfi_def_cfa_offset 128
	mov	ebx, eax
	.loc 1 1389 0
	mov	eax, DWORD PTR ___stack_chk_guard
	mov	DWORD PTR [esp+92], eax
	xor	eax, eax
LVL659:
LBB115:
LBB116:
	.loc 1 1303 0
	call	_gtk_widget_get_type
LVL660:
	mov	esi, eax
	mov	DWORD PTR [esp+4], eax
	mov	DWORD PTR [esp], ebx
	call	_g_type_check_instance_cast
LVL661:
	.loc 1 1391 0
	lea	edx, [esp+64]
LVL662:
	mov	DWORD PTR [esp+8], edx
	lea	edx, [esp+60]
LVL663:
	mov	DWORD PTR [esp+4], edx
	.loc 1 1303 0
	mov	eax, DWORD PTR [eax+52]
	mov	DWORD PTR [esp], eax
	call	_gdk_window_get_origin
LVL664:
	.loc 1 1305 0
	mov	edi, DWORD PTR [esp+60]
	mov	DWORD PTR [esp+4], esi
	mov	DWORD PTR [esp], ebx
	call	_g_type_check_instance_cast
LVL665:
	add	edi, DWORD PTR [eax+36]
	mov	DWORD PTR [esp+60], edi
LVL666:
	.loc 1 1306 0
	mov	edi, DWORD PTR [esp+64]
	mov	DWORD PTR [esp+4], esi
	mov	DWORD PTR [esp], ebx
	call	_g_type_check_instance_cast
LVL667:
	add	edi, DWORD PTR [eax+40]
	mov	DWORD PTR [esp+64], edi
	.loc 1 1308 0
	mov	DWORD PTR [esp+4], esi
	mov	DWORD PTR [esp], ebx
	call	_g_type_check_instance_cast
LVL668:
	mov	eax, DWORD PTR [eax+44]
	mov	DWORD PTR [esp+36], eax
LVL669:
	.loc 1 1311 0
	mov	DWORD PTR [esp+4], 80
	mov	eax, DWORD PTR [ebx+284]
LVL670:
	mov	DWORD PTR [esp], eax
	call	_g_type_check_instance_cast
LVL671:
	mov	DWORD PTR [esp+20], 0
	mov	DWORD PTR [esp+16], 2
	mov	DWORD PTR [esp+12], OFFSET FLAT:LC35
	mov	DWORD PTR [esp+8], 2
	mov	DWORD PTR [esp+4], OFFSET FLAT:LC36
	mov	DWORD PTR [esp], eax
	call	_g_object_set
LVL672:
	.loc 1 1315 0
	lea	edi, [esp+68]
	mov	DWORD PTR [esp+4], edi
	mov	eax, DWORD PTR [ebx+280]
	mov	DWORD PTR [esp], eax
	call	_gtk_widget_size_request
LVL673:
	.loc 1 1317 0
	mov	edx, DWORD PTR [esp+36]
	cmp	edx, DWORD PTR [esp+68]
	jl	L493
	.loc 1 1310 0
	mov	DWORD PTR [esp+40], 2
LVL674:
L476:
	.loc 1 1327 0
	mov	edi, DWORD PTR [esp+72]
LVL675:
	.loc 1 1329 0
	mov	DWORD PTR [esp+4], esi
	mov	DWORD PTR [esp], ebx
	call	_g_type_check_instance_cast
LVL676:
	mov	DWORD PTR [esp], eax
	call	_gtk_widget_get_screen
LVL677:
	mov	ebp, eax
LVL678:
	.loc 1 1331 0
	mov	DWORD PTR [esp+4], esi
	mov	DWORD PTR [esp], ebx
	call	_g_type_check_instance_cast
LVL679:
	.loc 1 1330 0
	mov	eax, DWORD PTR [eax+52]
	mov	DWORD PTR [esp+4], eax
	mov	DWORD PTR [esp], ebp
	call	_gdk_screen_get_monitor_at_window
LVL680:
	.loc 1 1332 0
	lea	edx, [esp+76]
	mov	DWORD PTR [esp+8], edx
	mov	DWORD PTR [esp+4], eax
	mov	DWORD PTR [esp], ebp
	call	_gdk_screen_get_monitor_geometry
LVL681:
	.loc 1 1334 0
	mov	edx, DWORD PTR [esp+60]
	mov	eax, DWORD PTR [esp+76]
	cmp	edx, eax
	jl	L492
	.loc 1 1336 0
	add	eax, DWORD PTR [esp+84]
	add	edx, DWORD PTR [esp+36]
	cmp	edx, eax
	jg	L494
L478:
	.loc 1 1339 0
	mov	ebp, DWORD PTR [esp+64]
LVL682:
	mov	DWORD PTR [esp+4], esi
	mov	DWORD PTR [esp], ebx
	call	_g_type_check_instance_cast
LVL683:
	mov	edx, DWORD PTR [esp+80]
	mov	ecx, DWORD PTR [esp+88]
	add	ecx, edx
	add	ebp, edi
	add	ebp, DWORD PTR [eax+48]
	cmp	ebp, ecx
	.loc 1 1340 0
	mov	ebp, DWORD PTR [esp+64]
	.loc 1 1339 0
	jle	L495
	.loc 1 1341 0
	mov	eax, ebp
	sub	eax, edi
	cmp	edx, eax
	jg	L481
	.loc 1 1342 0
	mov	DWORD PTR [esp+64], eax
L480:
	.loc 1 1354 0
	cmp	edi, DWORD PTR [esp+72]
	jge	L483
LVL684:
	.loc 1 1358 0
	mov	DWORD PTR [esp+4], 80
	mov	eax, DWORD PTR [ebx+284]
	mov	DWORD PTR [esp], eax
	call	_g_type_check_instance_cast
LVL685:
	mov	DWORD PTR [esp+20], 0
	mov	DWORD PTR [esp+16], 0
	mov	DWORD PTR [esp+12], OFFSET FLAT:LC35
	mov	edx, DWORD PTR [esp+40]
	mov	DWORD PTR [esp+8], edx
	mov	DWORD PTR [esp+4], OFFSET FLAT:LC36
	mov	DWORD PTR [esp], eax
	call	_g_object_set
LVL686:
L483:
LBE116:
LBE115:
	.loc 1 1393 0
	mov	DWORD PTR [esp+8], edi
	mov	edx, DWORD PTR [esp+36]
	mov	DWORD PTR [esp+4], edx
	mov	eax, DWORD PTR [ebx+276]
	mov	DWORD PTR [esp], eax
	call	_gtk_widget_set_size_request
LVL687:
	.loc 1 1394 0
	mov	edi, DWORD PTR [esp+64]
LVL688:
	mov	esi, DWORD PTR [esp+60]
	call	_gtk_window_get_type
LVL689:
	mov	DWORD PTR [esp+4], eax
	mov	eax, DWORD PTR [ebx+276]
	mov	DWORD PTR [esp], eax
	call	_g_type_check_instance_cast
LVL690:
	mov	DWORD PTR [esp+8], edi
	mov	DWORD PTR [esp+4], esi
	mov	DWORD PTR [esp], eax
	call	_gtk_window_move
LVL691:
	.loc 1 1395 0
	mov	eax, DWORD PTR [ebx+276]
	mov	DWORD PTR [esp], eax
	call	_gtk_widget_show
LVL692:
	.loc 1 1396 0
	mov	eax, DWORD PTR [ebx+296]
	mov	DWORD PTR [esp], eax
	call	_gtk_widget_grab_focus
LVL693:
	.loc 1 1397 0
	mov	eax, DWORD PTR [ebx+276]
	mov	esi, DWORD PTR [eax+52]
LVL694:
LBB119:
LBB120:
	.loc 1 1370 0
	mov	DWORD PTR [esp+20], 0
	mov	DWORD PTR [esp+16], 0
	mov	DWORD PTR [esp+12], 0
	mov	DWORD PTR [esp+8], 772
	mov	DWORD PTR [esp+4], 1
	mov	DWORD PTR [esp], esi
	call	_gdk_pointer_grab
LVL695:
	test	eax, eax
	jne	L484
	.loc 1 1375 0
	mov	DWORD PTR [esp+8], 0
	mov	DWORD PTR [esp+4], 1
	mov	DWORD PTR [esp], esi
	call	_gdk_keyboard_grab
LVL696:
	test	eax, eax
	jne	L496
LBE120:
LBE119:
	.loc 1 1402 0
	mov	eax, DWORD PTR [ebx+276]
	mov	DWORD PTR [esp], eax
	call	_gtk_grab_add
LVL697:
	.loc 1 1404 0
	call	_gtk_toggle_button_get_type
LVL698:
	mov	DWORD PTR [esp+4], eax
	mov	eax, DWORD PTR [ebx+264]
	mov	DWORD PTR [esp], eax
	call	_g_type_check_instance_cast
LVL699:
	mov	DWORD PTR [esp+4], 1
	mov	DWORD PTR [esp], eax
	call	_gtk_toggle_button_set_active
LVL700:
	.loc 1 1407 0
	mov	eax, DWORD PTR [ebx+304]
	test	eax, eax
	je	L475
LBB122:
	.loc 1 1408 0
	mov	DWORD PTR [esp], eax
	call	_gtk_tree_row_reference_get_path
LVL701:
	mov	esi, eax
LVL702:
	.loc 1 1409 0
	call	_gtk_tree_view_get_type
LVL703:
	mov	DWORD PTR [esp+4], eax
	mov	eax, DWORD PTR [ebx+296]
	mov	DWORD PTR [esp], eax
	call	_g_type_check_instance_cast
LVL704:
	mov	DWORD PTR [esp+12], 0
	mov	DWORD PTR [esp+8], 0
	mov	DWORD PTR [esp+4], esi
	mov	DWORD PTR [esp], eax
	call	_gtk_tree_view_set_cursor
LVL705:
	.loc 1 1410 0
	mov	DWORD PTR [esp], esi
	call	_gtk_tree_path_free
LVL706:
	jmp	L475
LVL707:
	.p2align 2,,3
L494:
LBE122:
LBB123:
LBB117:
	.loc 1 1337 0
	sub	eax, DWORD PTR [esp+36]
L492:
	mov	DWORD PTR [esp+60], eax
	jmp	L478
LVL708:
	.p2align 2,,3
L496:
LBE117:
LBE123:
LBB124:
LBB121:
	.loc 1 1378 0
	mov	DWORD PTR [esp], esi
	call	_gdk_drawable_get_display
LVL709:
	mov	DWORD PTR [esp+4], 0
	mov	DWORD PTR [esp], eax
	call	_gdk_display_pointer_ungrab
LVL710:
L484:
LBE121:
LBE124:
	.loc 1 1399 0
	mov	eax, DWORD PTR [ebx+276]
	mov	DWORD PTR [esp], eax
	call	_gtk_widget_hide
LVL711:
L475:
	.loc 1 1412 0
	mov	eax, DWORD PTR [esp+92]
	xor	eax, DWORD PTR ___stack_chk_guard
	jne	L497
	add	esp, 108
LCFI227:
	.cfi_remember_state
	.cfi_def_cfa_offset 20
	pop	ebx
LCFI228:
	.cfi_restore 3
	.cfi_def_cfa_offset 16
LVL712:
	pop	esi
LCFI229:
	.cfi_restore 6
	.cfi_def_cfa_offset 12
	pop	edi
LCFI230:
	.cfi_restore 7
	.cfi_def_cfa_offset 8
	pop	ebp
LCFI231:
	.cfi_restore 5
	.cfi_def_cfa_offset 4
	ret
LVL713:
	.p2align 2,,3
L493:
LCFI232:
	.cfi_restore_state
LBB125:
LBB118:
	.loc 1 1320 0
	mov	DWORD PTR [esp+4], 80
	mov	eax, DWORD PTR [ebx+284]
	mov	DWORD PTR [esp], eax
	call	_g_type_check_instance_cast
LVL714:
	mov	DWORD PTR [esp+20], 0
	mov	DWORD PTR [esp+16], 2
	mov	DWORD PTR [esp+12], OFFSET FLAT:LC35
	mov	DWORD PTR [esp+8], 0
	mov	DWORD PTR [esp+4], OFFSET FLAT:LC36
	mov	DWORD PTR [esp], eax
	call	_g_object_set
LVL715:
	.loc 1 1324 0
	mov	DWORD PTR [esp+4], edi
	mov	eax, DWORD PTR [ebx+280]
	mov	DWORD PTR [esp], eax
	call	_gtk_widget_size_request
LVL716:
	.loc 1 1319 0
	mov	DWORD PTR [esp+40], 0
	jmp	L476
LVL717:
	.p2align 2,,3
L495:
	.loc 1 1340 0
	mov	DWORD PTR [esp+4], esi
	mov	DWORD PTR [esp], ebx
	call	_g_type_check_instance_cast
LVL718:
	add	ebp, DWORD PTR [eax+48]
	mov	DWORD PTR [esp+64], ebp
	jmp	L480
	.p2align 2,,3
L481:
	.loc 1 1343 0
	mov	DWORD PTR [esp+4], esi
	mov	DWORD PTR [esp], ebx
	mov	DWORD PTR [esp+32], ecx
	call	_g_type_check_instance_cast
LVL719:
	mov	edx, DWORD PTR [esp+64]
	mov	DWORD PTR [esp+44], edx
	mov	edx, DWORD PTR [esp+80]
	mov	edi, DWORD PTR [esp+44]
LVL720:
	sub	edi, edx
	.loc 1 1388 0
	mov	ecx, DWORD PTR [esp+32]
	sub	ecx, DWORD PTR [eax+48]
	.loc 1 1343 0
	sub	ecx, ebp
	cmp	ecx, edi
	jg	L498
LVL721:
	.loc 1 1351 0
	mov	DWORD PTR [esp+64], edx
	jmp	L480
LVL722:
	.p2align 2,,3
L498:
	.loc 1 1345 0
	mov	DWORD PTR [esp+4], esi
	mov	DWORD PTR [esp], ebx
	call	_g_type_check_instance_cast
LVL723:
	mov	eax, DWORD PTR [eax+48]
	add	eax, DWORD PTR [esp+44]
	mov	DWORD PTR [esp+64], eax
	.loc 1 1346 0
	mov	edi, DWORD PTR [esp+88]
	add	edi, DWORD PTR [esp+80]
	sub	edi, eax
LVL724:
	jmp	L480
LVL725:
L497:
LBE118:
LBE125:
	.loc 1 1412 0
	call	___stack_chk_fail
LVL726:
	.cfi_endproc
LFE127:
	.p2align 2,,3
	.def	_toggled_cb;	.scl	3;	.type	32;	.endef
_toggled_cb:
LFB130:
	.loc 1 1446 0
	.cfi_startproc
LVL727:
	sub	esp, 28
LCFI233:
	.cfi_def_cfa_offset 32
	mov	eax, DWORD PTR [esp+40]
	.loc 1 1446 0
	mov	edx, DWORD PTR ___stack_chk_guard
	mov	DWORD PTR [esp+12], edx
	xor	edx, edx
	.loc 1 1447 0
	mov	ecx, DWORD PTR [eax+300]
	test	ecx, ecx
	je	L504
	.loc 1 1450 0
	call	_pidgin_status_box_popdown
LVL728:
L501:
	.loc 1 1452 0
	mov	eax, 1
	mov	edx, DWORD PTR [esp+12]
	xor	edx, DWORD PTR ___stack_chk_guard
	jne	L505
	add	esp, 28
LCFI234:
	.cfi_remember_state
	.cfi_def_cfa_offset 4
	ret
	.p2align 2,,3
L504:
LCFI235:
	.cfi_restore_state
	.loc 1 1448 0
	call	_pidgin_status_box_popup
LVL729:
	jmp	L501
L505:
	.loc 1 1452 0
	call	___stack_chk_fail
LVL730:
	.cfi_endproc
LFE130:
	.p2align 2,,3
	.def	_toggle_key_press_cb;	.scl	3;	.type	32;	.endef
_toggle_key_press_cb:
LFB129:
	.loc 1 1426 0
	.cfi_startproc
LVL731:
	push	ebx
LCFI236:
	.cfi_def_cfa_offset 8
	.cfi_offset 3, -8
	sub	esp, 24
LCFI237:
	.cfi_def_cfa_offset 32
	mov	ebx, DWORD PTR [esp+40]
	.loc 1 1426 0
	mov	eax, DWORD PTR ___stack_chk_guard
	mov	DWORD PTR [esp+12], eax
	xor	eax, eax
	.loc 1 1427 0
	mov	eax, DWORD PTR [esp+36]
	mov	edx, DWORD PTR [eax+20]
	cmp	edx, 65293
	je	L508
	jbe	L526
	cmp	edx, 65408
	je	L508
	cmp	edx, 65421
	je	L508
L512:
	.loc 1 1440 0
	xor	eax, eax
	jmp	L507
	.p2align 2,,3
L526:
	.loc 1 1427 0
	cmp	edx, 32
	jne	L512
	.p2align 2,,3
L508:
LVL732:
LBB128:
LBB129:
	.loc 1 1433 0
	mov	eax, ebx
	.loc 1 1432 0
	mov	edx, DWORD PTR [ebx+300]
	test	edx, edx
	je	L527
LVL733:
	.loc 1 1436 0
	call	_pidgin_status_box_popdown
LVL734:
	mov	eax, 1
LVL735:
L507:
LBE129:
LBE128:
	.loc 1 1442 0
	mov	edx, DWORD PTR [esp+12]
	xor	edx, DWORD PTR ___stack_chk_guard
	jne	L528
	add	esp, 24
LCFI238:
	.cfi_remember_state
	.cfi_def_cfa_offset 8
	pop	ebx
LCFI239:
	.cfi_restore 3
	.cfi_def_cfa_offset 4
	ret
LVL736:
	.p2align 2,,3
L527:
LCFI240:
	.cfi_restore_state
LBB131:
LBB130:
	.loc 1 1433 0
	call	_pidgin_status_box_popup
LVL737:
	.loc 1 1434 0
	mov	DWORD PTR [ebx+300], 1
	mov	eax, 1
	jmp	L507
LVL738:
L528:
LBE130:
LBE131:
	.loc 1 1442 0
	call	___stack_chk_fail
LVL739:
	.cfi_endproc
LFE129:
	.section .rdata,"dr"
LC37:
	.ascii "move_focus\0"
	.text
	.p2align 2,,3
	.def	_imhtml_remove_focus;	.scl	3;	.type	32;	.endef
_imhtml_remove_focus:
LFB118:
	.loc 1 1137 0
	.cfi_startproc
LVL740:
	push	esi
LCFI241:
	.cfi_def_cfa_offset 8
	.cfi_offset 6, -8
	push	ebx
LCFI242:
	.cfi_def_cfa_offset 12
	.cfi_offset 3, -12
	sub	esp, 36
LCFI243:
	.cfi_def_cfa_offset 48
	mov	eax, DWORD PTR [esp+48]
	mov	esi, DWORD PTR [esp+52]
	mov	ebx, DWORD PTR [esp+56]
	.loc 1 1137 0
	mov	edx, DWORD PTR ___stack_chk_guard
	mov	DWORD PTR [esp+28], edx
	xor	edx, edx
	.loc 1 1138 0
	mov	edx, DWORD PTR [esi+20]
	cmp	edx, 65289
	je	L530
	.loc 1 1138 0 is_stmt 0 discriminator 1
	cmp	edx, 65417
	je	L530
	cmp	edx, 65056
	je	L530
	.loc 1 1147 0 is_stmt 1
	mov	eax, DWORD PTR [ebx+236]
	test	eax, eax
	je	L537
	.loc 1 1151 0
	cmp	edx, 65307
	je	L545
LVL741:
LBB135:
LBB136:
	.loc 1 2312 0
	mov	eax, DWORD PTR [ebx+200]
	inc	eax
	mov	DWORD PTR [ebx+200], eax
	mov	ecx, DWORD PTR _typing_stock_ids[0+eax*4]
	test	ecx, ecx
	je	L546
L535:
	.loc 1 2314 0
	mov	eax, ebx
	call	_pidgin_status_box_refresh
LVL742:
LBE136:
LBE135:
	.loc 1 1168 0
	mov	eax, DWORD PTR [ebx+236]
	mov	DWORD PTR [esp], eax
	call	_purple_timeout_remove
LVL743:
	.loc 1 1169 0
	mov	DWORD PTR [esp+8], ebx
	mov	DWORD PTR [esp+4], OFFSET FLAT:_remove_typing_cb
	mov	DWORD PTR [esp], 4
	call	_purple_timeout_add_seconds
LVL744:
	mov	DWORD PTR [ebx+236], eax
	.loc 1 1171 0
	xor	eax, eax
LVL745:
L532:
	.loc 1 1172 0
	mov	edx, DWORD PTR [esp+28]
	xor	edx, DWORD PTR ___stack_chk_guard
	jne	L547
	add	esp, 36
LCFI244:
	.cfi_remember_state
	.cfi_def_cfa_offset 12
	pop	ebx
LCFI245:
	.cfi_restore 3
	.cfi_def_cfa_offset 8
	pop	esi
LCFI246:
	.cfi_restore 6
	.cfi_def_cfa_offset 4
	ret
	.p2align 2,,3
L537:
LCFI247:
	.cfi_restore_state
	.loc 1 1148 0
	xor	eax, eax
	jmp	L532
	.p2align 2,,3
L530:
LBB138:
	.loc 1 1141 0
	mov	DWORD PTR [esp], eax
	call	_gtk_widget_get_toplevel
LVL746:
	.loc 1 1143 0
	mov	ebx, DWORD PTR [esi+16]
	and	ebx, 1
	.loc 1 1142 0
	mov	DWORD PTR [esp+4], 80
	mov	DWORD PTR [esp], eax
	call	_g_type_check_instance_cast
LVL747:
	mov	DWORD PTR [esp+8], ebx
	mov	DWORD PTR [esp+4], OFFSET FLAT:LC37
	mov	DWORD PTR [esp], eax
	call	_g_signal_emit_by_name
LVL748:
	.loc 1 1145 0
	mov	eax, 1
	jmp	L532
	.p2align 2,,3
L545:
LBE138:
	.loc 1 1153 0
	mov	DWORD PTR [esp], eax
	call	_purple_timeout_remove
LVL749:
	.loc 1 1154 0
	mov	DWORD PTR [ebx+236], 0
	.loc 1 1156 0
	call	_gtk_imhtml_get_type
LVL750:
	mov	DWORD PTR [esp+4], eax
	mov	eax, DWORD PTR [ebx+92]
	mov	DWORD PTR [esp], eax
	call	_g_type_check_instance_cast
LVL751:
	.loc 1 1155 0
	mov	DWORD PTR [esp+4], 1
	mov	DWORD PTR [esp], eax
	call	_gtk_imhtml_set_populate_primary_clipboard
LVL752:
	.loc 1 1157 0
	mov	eax, DWORD PTR [ebx+76]
	test	eax, eax
	je	L534
	.loc 1 1158 0
	mov	DWORD PTR [esp], eax
	call	_purple_account_get_active_status
LVL753:
	mov	edx, DWORD PTR [ebx+76]
	mov	ecx, eax
	mov	eax, ebx
	call	_update_to_reflect_account_status
LVL754:
	.loc 1 1164 0
	mov	eax, 1
	jmp	L532
LVL755:
	.p2align 2,,3
L546:
LBB139:
LBB137:
	.loc 1 2313 0
	mov	DWORD PTR [ebx+200], 0
	jmp	L535
LVL756:
L534:
LBE137:
LBE139:
	.loc 1 1161 0
	mov	edx, 1
	mov	eax, ebx
	call	_status_menu_refresh_iter
LVL757:
	.loc 1 1162 0
	mov	eax, ebx
	call	_pidgin_status_box_refresh
LVL758:
	.loc 1 1164 0
	mov	eax, 1
	jmp	L532
L547:
	.loc 1 1172 0
	call	___stack_chk_fail
LVL759:
	.cfi_endproc
LFE118:
	.p2align 2,,3
	.globl	_pidgin_status_box_get_type
	.def	_pidgin_status_box_get_type;	.scl	2;	.type	32;	.endef
_pidgin_status_box_get_type:
LFB93:
	.loc 1 200 0
	.cfi_startproc
	sub	esp, 44
LCFI248:
	.cfi_def_cfa_offset 48
	.loc 1 200 0
	mov	eax, DWORD PTR ___stack_chk_guard
	mov	DWORD PTR [esp+28], eax
	xor	eax, eax
	.loc 1 203 0
	mov	eax, DWORD PTR _status_box_type.78192
	test	eax, eax
	jne	L549
LBB140:
	.loc 1 219 0
	call	_gtk_container_get_type
LVL760:
	mov	DWORD PTR [esp+12], 0
	mov	DWORD PTR [esp+8], OFFSET FLAT:_status_box_info.78193
	mov	DWORD PTR [esp+4], OFFSET FLAT:LC33
	mov	DWORD PTR [esp], eax
	call	_g_type_register_static
LVL761:
	mov	DWORD PTR _status_box_type.78192, eax
L549:
LBE140:
	.loc 1 226 0
	mov	edx, DWORD PTR [esp+28]
	xor	edx, DWORD PTR ___stack_chk_guard
	jne	L552
	add	esp, 44
LCFI249:
	.cfi_remember_state
	.cfi_def_cfa_offset 4
	ret
L552:
LCFI250:
	.cfi_restore_state
	call	___stack_chk_fail
LVL762:
	.cfi_endproc
LFE93:
	.p2align 2,,3
	.def	_combo_box_scroll_event_cb;	.scl	3;	.type	32;	.endef
_combo_box_scroll_event_cb:
LFB116:
	.loc 1 1122 0
	.cfi_startproc
LVL763:
	push	ebx
LCFI251:
	.cfi_def_cfa_offset 8
	.cfi_offset 3, -8
	sub	esp, 40
LCFI252:
	.cfi_def_cfa_offset 48
	mov	ebx, DWORD PTR [esp+48]
	.loc 1 1122 0
	mov	eax, DWORD PTR ___stack_chk_guard
	mov	DWORD PTR [esp+28], eax
	xor	eax, eax
	.loc 1 1123 0
	call	_pidgin_status_box_get_type
LVL764:
	mov	DWORD PTR [esp+4], eax
	mov	DWORD PTR [esp], ebx
	call	_g_type_check_instance_cast
LVL765:
	call	_pidgin_status_box_popup
LVL766:
	.loc 1 1125 0
	mov	eax, 1
	mov	edx, DWORD PTR [esp+28]
	xor	edx, DWORD PTR ___stack_chk_guard
	jne	L556
	add	esp, 40
LCFI253:
	.cfi_remember_state
	.cfi_def_cfa_offset 8
	pop	ebx
LCFI254:
	.cfi_restore 3
	.cfi_def_cfa_offset 4
	ret
L556:
LCFI255:
	.cfi_restore_state
	call	___stack_chk_fail
LVL767:
	.cfi_endproc
LFE116:
	.section .rdata,"dr"
LC38:
	.ascii "property\0"
LC39:
	.ascii "gtkstatusbox.c:242\0"
	.align 4
LC40:
	.ascii "%s: invalid %s id %u for \"%s\" of type `%s' in `%s'\0"
	.text
	.p2align 2,,3
	.def	_pidgin_status_box_get_property;	.scl	3;	.type	32;	.endef
_pidgin_status_box_get_property:
LFB94:
	.loc 1 231 0
	.cfi_startproc
LVL768:
	push	ebp
LCFI256:
	.cfi_def_cfa_offset 8
	.cfi_offset 5, -8
	push	edi
LCFI257:
	.cfi_def_cfa_offset 12
	.cfi_offset 7, -12
	push	esi
LCFI258:
	.cfi_def_cfa_offset 16
	.cfi_offset 6, -16
	push	ebx
LCFI259:
	.cfi_def_cfa_offset 20
	.cfi_offset 3, -20
	sub	esp, 76
LCFI260:
	.cfi_def_cfa_offset 96
	mov	esi, DWORD PTR [esp+96]
	mov	ebx, DWORD PTR [esp+100]
	mov	ebp, DWORD PTR [esp+104]
	mov	edi, DWORD PTR [esp+108]
	.loc 1 231 0
	mov	eax, DWORD PTR ___stack_chk_guard
	mov	DWORD PTR [esp+60], eax
	xor	eax, eax
	.loc 1 232 0
	call	_pidgin_status_box_get_type
LVL769:
	mov	DWORD PTR [esp+4], eax
	mov	DWORD PTR [esp], esi
	call	_g_type_check_instance_cast
LVL770:
	.loc 1 234 0
	cmp	ebx, 1
	je	L559
	cmp	ebx, 2
	je	L568
LVL771:
LBB144:
LBB145:
LBB146:
	.loc 1 242 0
	mov	eax, DWORD PTR [esi]
LVL772:
	mov	eax, DWORD PTR [eax]
	mov	DWORD PTR [esp], eax
	call	_g_type_name
LVL773:
	mov	esi, eax
LVL774:
	mov	eax, DWORD PTR [edi]
	mov	eax, DWORD PTR [eax]
	mov	DWORD PTR [esp], eax
	call	_g_type_name
LVL775:
	mov	DWORD PTR [esp+32], esi
	mov	DWORD PTR [esp+28], eax
	mov	eax, DWORD PTR [edi+4]
	mov	DWORD PTR [esp+24], eax
	mov	DWORD PTR [esp+20], ebx
	mov	DWORD PTR [esp+16], OFFSET FLAT:LC38
	mov	DWORD PTR [esp+12], OFFSET FLAT:LC39
	mov	DWORD PTR [esp+8], OFFSET FLAT:LC40
	mov	DWORD PTR [esp+4], 16
	mov	DWORD PTR [esp], 0
	call	_g_log
LVL776:
LBE146:
LBE145:
LBE144:
	.loc 1 245 0
	mov	eax, DWORD PTR [esp+60]
	xor	eax, DWORD PTR ___stack_chk_guard
	jne	L567
	add	esp, 76
LCFI261:
	.cfi_remember_state
	.cfi_def_cfa_offset 20
	pop	ebx
LCFI262:
	.cfi_restore 3
	.cfi_def_cfa_offset 16
LVL777:
	pop	esi
LCFI263:
	.cfi_restore 6
	.cfi_def_cfa_offset 12
	pop	edi
LCFI264:
	.cfi_restore 7
	.cfi_def_cfa_offset 8
LVL778:
	pop	ebp
LCFI265:
	.cfi_restore 5
	.cfi_def_cfa_offset 4
	ret
LVL779:
	.p2align 2,,3
L568:
LCFI266:
	.cfi_restore_state
	.loc 1 239 0
	mov	edx, DWORD PTR [esp+60]
	xor	edx, DWORD PTR ___stack_chk_guard
	jne	L567
	mov	ebx, DWORD PTR [eax+116]
	xor	eax, eax
LVL780:
	test	ebx, ebx
	setne	al
	mov	DWORD PTR [esp+100], eax
	mov	DWORD PTR [esp+96], ebp
	.loc 1 245 0
	add	esp, 76
LCFI267:
	.cfi_remember_state
	.cfi_def_cfa_offset 20
	pop	ebx
LCFI268:
	.cfi_restore 3
	.cfi_def_cfa_offset 16
	pop	esi
LCFI269:
	.cfi_restore 6
	.cfi_def_cfa_offset 12
	pop	edi
LCFI270:
	.cfi_restore 7
	.cfi_def_cfa_offset 8
	pop	ebp
LCFI271:
	.cfi_restore 5
	.cfi_def_cfa_offset 4
	.loc 1 239 0
	jmp	_g_value_set_boolean
LVL781:
	.p2align 2,,3
L559:
LCFI272:
	.cfi_restore_state
	.loc 1 236 0
	mov	edx, DWORD PTR [esp+60]
	xor	edx, DWORD PTR ___stack_chk_guard
	jne	L567
	mov	eax, DWORD PTR [eax+76]
LVL782:
	mov	DWORD PTR [esp+100], eax
	mov	DWORD PTR [esp+96], ebp
	.loc 1 245 0
	add	esp, 76
LCFI273:
	.cfi_remember_state
	.cfi_def_cfa_offset 20
	pop	ebx
LCFI274:
	.cfi_restore 3
	.cfi_def_cfa_offset 16
	pop	esi
LCFI275:
	.cfi_restore 6
	.cfi_def_cfa_offset 12
	pop	edi
LCFI276:
	.cfi_restore 7
	.cfi_def_cfa_offset 8
	pop	ebp
LCFI277:
	.cfi_restore 5
	.cfi_def_cfa_offset 4
	.loc 1 236 0
	jmp	_g_value_set_pointer
LVL783:
L567:
LCFI278:
	.cfi_restore_state
	.loc 1 245 0
	call	___stack_chk_fail
LVL784:
	.cfi_endproc
LFE94:
	.p2align 2,,3
	.def	_pidgin_status_box_finalize;	.scl	3;	.type	32;	.endef
_pidgin_status_box_finalize:
LFB106:
	.loc 1 575 0
	.cfi_startproc
LVL785:
	push	edi
LCFI279:
	.cfi_def_cfa_offset 8
	.cfi_offset 7, -8
	push	esi
LCFI280:
	.cfi_def_cfa_offset 12
	.cfi_offset 6, -12
	push	ebx
LCFI281:
	.cfi_def_cfa_offset 16
	.cfi_offset 3, -16
	sub	esp, 32
LCFI282:
	.cfi_def_cfa_offset 48
	mov	edi, DWORD PTR [esp+48]
	.loc 1 575 0
	mov	eax, DWORD PTR ___stack_chk_guard
	mov	DWORD PTR [esp+28], eax
	xor	eax, eax
	.loc 1 576 0
	call	_pidgin_status_box_get_type
LVL786:
	mov	DWORD PTR [esp+4], eax
	mov	DWORD PTR [esp], edi
	call	_g_type_check_instance_cast
LVL787:
	mov	esi, eax
LVL788:
	.loc 1 579 0
	mov	DWORD PTR [esp], eax
	call	_purple_signals_disconnect_by_handle
LVL789:
	.loc 1 580 0
	mov	DWORD PTR [esp], esi
	call	_purple_prefs_disconnect_by_handle
LVL790:
	.loc 1 582 0
	mov	eax, esi
	call	_destroy_icon_box
LVL791:
	.loc 1 584 0
	mov	eax, DWORD PTR [esi+304]
	test	eax, eax
	je	L570
	.loc 1 585 0
	mov	DWORD PTR [esp], eax
	call	_gtk_tree_row_reference_free
LVL792:
L570:
	.loc 1 575 0 discriminator 1
	xor	ebx, ebx
LVL793:
	.p2align 2,,3
L572:
	.loc 1 588 0
	mov	eax, DWORD PTR [esi+164+ebx*4]
	test	eax, eax
	je	L571
	.loc 1 589 0
	mov	DWORD PTR [esp+4], 80
	mov	DWORD PTR [esp], eax
	call	_g_type_check_instance_cast
LVL794:
	mov	DWORD PTR [esp], eax
	call	_g_object_unref
LVL795:
L571:
	.loc 1 587 0
	inc	ebx
LVL796:
	cmp	ebx, 9
	jne	L572
	xor	bl, bl
LVL797:
	.p2align 2,,3
L574:
	.loc 1 593 0
	mov	eax, DWORD PTR [esi+204+ebx*4]
	test	eax, eax
	je	L573
	.loc 1 594 0
	mov	DWORD PTR [esp+4], 80
	mov	DWORD PTR [esp], eax
	call	_g_type_check_instance_cast
LVL798:
	mov	DWORD PTR [esp], eax
	call	_g_object_unref
LVL799:
L573:
	.loc 1 592 0
	inc	ebx
LVL800:
	cmp	ebx, 6
	jne	L574
	.loc 1 597 0
	mov	DWORD PTR [esp+4], 80
	mov	eax, DWORD PTR [esi+68]
	mov	DWORD PTR [esp], eax
	call	_g_type_check_instance_cast
LVL801:
	mov	DWORD PTR [esp], eax
	call	_g_object_unref
LVL802:
	.loc 1 598 0
	mov	DWORD PTR [esp+4], 80
	mov	eax, DWORD PTR [esi+72]
	mov	DWORD PTR [esp], eax
	call	_g_type_check_instance_cast
LVL803:
	mov	DWORD PTR [esp], eax
	call	_g_object_unref
LVL804:
	.loc 1 599 0
	mov	DWORD PTR [esp+4], 80
	mov	eax, DWORD PTR _parent_class
	mov	DWORD PTR [esp], eax
	call	_g_type_check_class_cast
LVL805:
	mov	edx, DWORD PTR [esp+28]
	xor	edx, DWORD PTR ___stack_chk_guard
	jne	L589
	mov	DWORD PTR [esp+48], edi
	mov	eax, DWORD PTR [eax+24]
	.loc 1 600 0
	add	esp, 32
LCFI283:
	.cfi_remember_state
	.cfi_def_cfa_offset 16
	pop	ebx
LCFI284:
	.cfi_restore 3
	.cfi_def_cfa_offset 12
LVL806:
	pop	esi
LCFI285:
	.cfi_restore 6
	.cfi_def_cfa_offset 8
LVL807:
	pop	edi
LCFI286:
	.cfi_restore 7
	.cfi_def_cfa_offset 4
	.loc 1 599 0
	jmp	eax
LVL808:
L589:
LCFI287:
	.cfi_restore_state
	call	___stack_chk_fail
LVL809:
	.cfi_endproc
LFE106:
	.p2align 2,,3
	.def	_pidgin_status_box_forall;	.scl	3;	.type	32;	.endef
_pidgin_status_box_forall:
LFB148:
	.loc 1 2057 0
	.cfi_startproc
LVL810:
	push	ebp
LCFI288:
	.cfi_def_cfa_offset 8
	.cfi_offset 5, -8
	push	edi
LCFI289:
	.cfi_def_cfa_offset 12
	.cfi_offset 7, -12
	push	esi
LCFI290:
	.cfi_def_cfa_offset 16
	.cfi_offset 6, -16
	push	ebx
LCFI291:
	.cfi_def_cfa_offset 20
	.cfi_offset 3, -20
	sub	esp, 44
LCFI292:
	.cfi_def_cfa_offset 64
	mov	ebx, DWORD PTR [esp+64]
	mov	ebp, DWORD PTR [esp+68]
	mov	esi, DWORD PTR [esp+72]
	mov	edi, DWORD PTR [esp+76]
	.loc 1 2057 0
	mov	eax, DWORD PTR ___stack_chk_guard
	mov	DWORD PTR [esp+28], eax
	xor	eax, eax
	.loc 1 2058 0
	call	_pidgin_status_box_get_type
LVL811:
	mov	DWORD PTR [esp+4], eax
	mov	DWORD PTR [esp], ebx
	call	_g_type_check_instance_cast
LVL812:
	.loc 1 2060 0
	test	ebp, ebp
	jne	L601
LVL813:
L590:
	.loc 1 2068 0
	mov	edx, DWORD PTR [esp+28]
	xor	edx, DWORD PTR ___stack_chk_guard
	jne	L600
	add	esp, 44
LCFI293:
	.cfi_remember_state
	.cfi_def_cfa_offset 20
	pop	ebx
LCFI294:
	.cfi_restore 3
	.cfi_def_cfa_offset 16
	pop	esi
LCFI295:
	.cfi_restore 6
	.cfi_def_cfa_offset 12
	pop	edi
LCFI296:
	.cfi_restore 7
	.cfi_def_cfa_offset 8
	pop	ebp
LCFI297:
	.cfi_restore 5
	.cfi_def_cfa_offset 4
	ret
LVL814:
	.p2align 2,,3
L601:
LCFI298:
	.cfi_restore_state
	mov	ebx, eax
LVL815:
	.loc 1 2062 0
	mov	DWORD PTR [esp+4], edi
	mov	eax, DWORD PTR [eax+84]
	mov	DWORD PTR [esp], eax
	call	esi
LVL816:
	.loc 1 2063 0
	mov	DWORD PTR [esp+4], edi
	mov	eax, DWORD PTR [ebx+264]
	mov	DWORD PTR [esp], eax
	call	esi
LVL817:
	.loc 1 2064 0
	mov	DWORD PTR [esp+4], edi
	mov	eax, DWORD PTR [ebx+272]
	mov	DWORD PTR [esp], eax
	call	esi
LVL818:
	.loc 1 2065 0
	mov	eax, DWORD PTR [ebx+116]
	test	eax, eax
	je	L590
	.loc 1 2066 0
	mov	edx, DWORD PTR [esp+28]
	xor	edx, DWORD PTR ___stack_chk_guard
	jne	L600
	mov	DWORD PTR [esp+68], edi
	mov	DWORD PTR [esp+64], eax
	mov	eax, esi
	.loc 1 2068 0
	add	esp, 44
LCFI299:
	.cfi_remember_state
	.cfi_def_cfa_offset 20
	pop	ebx
LCFI300:
	.cfi_restore 3
	.cfi_def_cfa_offset 16
	pop	esi
LCFI301:
	.cfi_restore 6
	.cfi_def_cfa_offset 12
	pop	edi
LCFI302:
	.cfi_restore 7
	.cfi_def_cfa_offset 8
	pop	ebp
LCFI303:
	.cfi_restore 5
	.cfi_def_cfa_offset 4
	.loc 1 2066 0
	jmp	eax
LVL819:
L600:
LCFI304:
	.cfi_restore_state
	.loc 1 2068 0
	call	___stack_chk_fail
LVL820:
	.cfi_endproc
LFE148:
	.section .rdata,"dr"
LC41:
	.ascii "button\0"
	.text
	.p2align 2,,3
	.def	_pidgin_status_box_expose_event;	.scl	3;	.type	32;	.endef
_pidgin_status_box_expose_event:
LFB147:
	.loc 1 2040 0
	.cfi_startproc
LVL821:
	push	ebp
LCFI305:
	.cfi_def_cfa_offset 8
	.cfi_offset 5, -8
	push	edi
LCFI306:
	.cfi_def_cfa_offset 12
	.cfi_offset 7, -12
	push	esi
LCFI307:
	.cfi_def_cfa_offset 16
	.cfi_offset 6, -16
	push	ebx
LCFI308:
	.cfi_def_cfa_offset 20
	.cfi_offset 3, -20
	sub	esp, 92
LCFI309:
	.cfi_def_cfa_offset 112
	mov	esi, DWORD PTR [esp+112]
	mov	edi, DWORD PTR [esp+116]
	.loc 1 2040 0
	mov	eax, DWORD PTR ___stack_chk_guard
	mov	DWORD PTR [esp+76], eax
	xor	eax, eax
	.loc 1 2041 0
	call	_pidgin_status_box_get_type
LVL822:
	mov	DWORD PTR [esp+4], eax
	mov	DWORD PTR [esp], esi
	call	_g_type_check_instance_cast
LVL823:
	mov	ebx, eax
LVL824:
	.loc 1 2042 0
	mov	edx, DWORD PTR [eax+84]
	mov	DWORD PTR [esp+60], edx
	call	_gtk_container_get_type
LVL825:
	mov	ebp, eax
	mov	DWORD PTR [esp+4], eax
	mov	DWORD PTR [esp], esi
	call	_g_type_check_instance_cast
LVL826:
	mov	DWORD PTR [esp+8], edi
	mov	edx, DWORD PTR [esp+60]
	mov	DWORD PTR [esp+4], edx
	mov	DWORD PTR [esp], eax
	call	_gtk_container_propagate_expose
LVL827:
	.loc 1 2043 0
	mov	edx, DWORD PTR [ebx+264]
	mov	DWORD PTR [esp+4], ebp
	mov	DWORD PTR [esp], esi
	mov	DWORD PTR [esp+60], edx
	call	_g_type_check_instance_cast
LVL828:
	mov	DWORD PTR [esp+8], edi
	mov	edx, DWORD PTR [esp+60]
	mov	DWORD PTR [esp+4], edx
	mov	DWORD PTR [esp], eax
	call	_gtk_container_propagate_expose
LVL829:
	.loc 1 2044 0
	mov	eax, DWORD PTR [ebx+116]
	test	eax, eax
	je	L603
	.loc 1 2044 0 is_stmt 0 discriminator 1
	mov	edi, DWORD PTR [ebx+136]
	test	edi, edi
	je	L603
	.loc 1 2045 0 is_stmt 1
	mov	DWORD PTR [esp+40], 34
	mov	DWORD PTR [esp+36], 34
	mov	edx, DWORD PTR [eax+40]
	dec	edx
	mov	DWORD PTR [esp+32], edx
	mov	edx, DWORD PTR [eax+36]
	dec	edx
	mov	DWORD PTR [esp+28], edx
	mov	DWORD PTR [esp+24], OFFSET FLAT:LC41
	mov	DWORD PTR [esp+20], eax
	mov	DWORD PTR [esp+16], 0
	mov	DWORD PTR [esp+12], 2
	mov	DWORD PTR [esp+8], 0
	mov	eax, DWORD PTR [esi+52]
	mov	DWORD PTR [esp+4], eax
	mov	eax, DWORD PTR [esi+24]
	mov	DWORD PTR [esp], eax
	call	_gtk_paint_box
LVL830:
L603:
	.loc 1 2050 0
	xor	eax, eax
	mov	edx, DWORD PTR [esp+76]
	xor	edx, DWORD PTR ___stack_chk_guard
	jne	L609
	add	esp, 92
LCFI310:
	.cfi_remember_state
	.cfi_def_cfa_offset 20
	pop	ebx
LCFI311:
	.cfi_restore 3
	.cfi_def_cfa_offset 16
LVL831:
	pop	esi
LCFI312:
	.cfi_restore 6
	.cfi_def_cfa_offset 12
	pop	edi
LCFI313:
	.cfi_restore 7
	.cfi_def_cfa_offset 8
	pop	ebp
LCFI314:
	.cfi_restore 5
	.cfi_def_cfa_offset 4
	ret
LVL832:
L609:
LCFI315:
	.cfi_restore_state
	call	___stack_chk_fail
LVL833:
	.cfi_endproc
LFE147:
	.p2align 2,,3
	.def	_pidgin_status_box_size_allocate;	.scl	3;	.type	32;	.endef
_pidgin_status_box_size_allocate:
LFB146:
	.loc 1 1991 0
	.cfi_startproc
LVL834:
	push	ebp
LCFI316:
	.cfi_def_cfa_offset 8
	.cfi_offset 5, -8
	push	edi
LCFI317:
	.cfi_def_cfa_offset 12
	.cfi_offset 7, -12
	push	esi
LCFI318:
	.cfi_def_cfa_offset 16
	.cfi_offset 6, -16
	push	ebx
LCFI319:
	.cfi_def_cfa_offset 20
	.cfi_offset 3, -20
	sub	esp, 124
LCFI320:
	.cfi_def_cfa_offset 144
	mov	edx, DWORD PTR [esp+144]
	mov	DWORD PTR [esp+40], edx
	mov	esi, DWORD PTR [esp+148]
	mov	DWORD PTR [esp+32], esi
	.loc 1 1991 0
	mov	eax, DWORD PTR ___stack_chk_guard
	mov	DWORD PTR [esp+108], eax
	xor	eax, eax
	.loc 1 1992 0
	call	_pidgin_status_box_get_type
LVL835:
	mov	DWORD PTR [esp+4], eax
	mov	edx, DWORD PTR [esp+40]
	mov	DWORD PTR [esp], edx
	call	_g_type_check_instance_cast
LVL836:
	mov	ebx, eax
LVL837:
	.loc 1 1993 0
	mov	DWORD PTR [esp+52], 0
	mov	DWORD PTR [esp+56], 0
	.loc 1 1995 0
	call	_gtk_container_get_type
LVL838:
	mov	DWORD PTR [esp+4], eax
	mov	edx, DWORD PTR [esp+40]
	mov	DWORD PTR [esp], edx
	call	_g_type_check_instance_cast
LVL839:
	movzx	eax, WORD PTR [eax+64]
	mov	DWORD PTR [esp+36], eax
LVL840:
	.loc 1 1997 0
	lea	eax, [esp+52]
LVL841:
	mov	DWORD PTR [esp+4], eax
	mov	eax, DWORD PTR [ebx+264]
	mov	DWORD PTR [esp], eax
	call	_gtk_widget_size_request
LVL842:
	.loc 1 2001 0
	mov	edx, DWORD PTR [esp+36]
	sal	edx
	.loc 1 2000 0
	mov	eax, DWORD PTR [esp+56]
	cmp	eax, 34
	jge	L611
	mov	eax, 34
L611:
	.loc 1 2001 0
	add	edx, eax
	mov	DWORD PTR [esp+56], edx
	.loc 1 2003 0
	lea	eax, [esp+76]
	mov	ecx, 4
	mov	edi, eax
	mov	esi, DWORD PTR [esp+32]
	rep movsd
	.loc 1 2005 0
	mov	ebp, DWORD PTR [esp+36]
	neg	ebp
	sal	ebp
	add	DWORD PTR [esp+84], ebp
	.loc 1 2006 0
	mov	ecx, ebp
	mov	esi, DWORD PTR [esp+32]
	add	ecx, DWORD PTR [esi+12]
	sub	ecx, edx
	test	ecx, ecx
	jle	L622
L612:
	mov	DWORD PTR [esp+88], ecx
	.loc 1 2007 0
	mov	ecx, DWORD PTR [esp+36]
	add	DWORD PTR [esp+76], ecx
	.loc 1 2008 0
	add	ecx, DWORD PTR [esp+80]
	add	edx, ecx
	mov	DWORD PTR [esp+80], edx
	.loc 1 2009 0
	mov	DWORD PTR [esp+4], eax
	mov	eax, DWORD PTR [ebx+84]
	mov	DWORD PTR [esp], eax
	call	_gtk_widget_size_allocate
LVL843:
	.loc 1 2011 0
	lea	esi, [esp+60]
	mov	DWORD PTR [esp+24], esi
	mov	ecx, 4
	mov	edi, esi
	mov	esi, DWORD PTR [esp+32]
	rep movsd
	.loc 1 2012 0
	mov	eax, DWORD PTR [esp+56]
	add	eax, ebp
	test	eax, eax
	jle	L623
L613:
	mov	DWORD PTR [esp+72], eax
	.loc 1 2013 0
	mov	ecx, DWORD PTR [esp+68]
	add	ecx, ebp
	mov	DWORD PTR [esp+68], ecx
	.loc 1 2014 0
	mov	ebp, DWORD PTR [esp+36]
	add	ebp, DWORD PTR [esp+60]
	mov	DWORD PTR [esp+60], ebp
	.loc 1 2015 0
	mov	edx, DWORD PTR [esp+36]
	add	edx, DWORD PTR [esp+64]
	mov	DWORD PTR [esp+44], edx
	mov	DWORD PTR [esp+64], edx
	.loc 1 2017 0
	mov	edx, DWORD PTR [ebx+116]
	test	edx, edx
	je	L614
	.loc 1 2019 0
	sub	ecx, DWORD PTR [esp+36]
	sub	ecx, eax
	mov	DWORD PTR [esp+68], ecx
	.loc 1 2020 0
	lea	ecx, [esp+92]
	mov	DWORD PTR [esp+28], ecx
	mov	ecx, 4
	mov	edi, DWORD PTR [esp+28]
	mov	esi, DWORD PTR [esp+24]
	rep movsd
	.loc 1 2021 0
	test	eax, eax
	jle	L624
L615:
	sub	eax, 2
	mov	DWORD PTR [esp+104], eax
	.loc 1 2022 0
	mov	DWORD PTR [esp+100], eax
	.loc 1 2023 0
	mov	esi, DWORD PTR [esp+32]
	add	ebp, DWORD PTR [esi+8]
	mov	ecx, DWORD PTR [esp+36]
	add	ecx, eax
	not	ecx
	add	ecx, ebp
	mov	DWORD PTR [esp+92], ecx
	.loc 1 2024 0
	mov	ecx, DWORD PTR [esp+44]
	inc	ecx
	mov	DWORD PTR [esp+96], ecx
	.loc 1 2026 0
	cmp	eax, DWORD PTR [ebx+132]
	je	L616
	.loc 1 2028 0
	mov	DWORD PTR [ebx+132], eax
	.loc 1 2029 0
	mov	eax, ebx
	call	_pidgin_status_box_redisplay_buddy_icon
LVL844:
	mov	edx, DWORD PTR [ebx+116]
L616:
	.loc 1 2031 0
	lea	eax, [esp+92]
	mov	DWORD PTR [esp+4], eax
	mov	DWORD PTR [esp], edx
	call	_gtk_widget_size_allocate
LVL845:
L614:
	.loc 1 2033 0
	lea	edx, [esp+60]
	mov	DWORD PTR [esp+4], edx
	mov	eax, DWORD PTR [ebx+264]
	mov	DWORD PTR [esp], eax
	call	_gtk_widget_size_allocate
LVL846:
	.loc 1 2034 0
	mov	edi, DWORD PTR [esp+40]
	add	edi, 36
	mov	ecx, 4
	mov	esi, DWORD PTR [esp+32]
	rep movsd
	.loc 1 2035 0
	mov	ecx, DWORD PTR [esp+108]
	xor	ecx, DWORD PTR ___stack_chk_guard
	jne	L625
	add	esp, 124
LCFI321:
	.cfi_remember_state
	.cfi_def_cfa_offset 20
	pop	ebx
LCFI322:
	.cfi_restore 3
	.cfi_def_cfa_offset 16
LVL847:
	pop	esi
LCFI323:
	.cfi_restore 6
	.cfi_def_cfa_offset 12
	pop	edi
LCFI324:
	.cfi_restore 7
	.cfi_def_cfa_offset 8
	pop	ebp
LCFI325:
	.cfi_restore 5
	.cfi_def_cfa_offset 4
	ret
LVL848:
	.p2align 2,,3
L623:
LCFI326:
	.cfi_restore_state
	.loc 1 2012 0
	mov	eax, 1
	jmp	L613
	.p2align 2,,3
L622:
	.loc 1 2006 0
	mov	ecx, 1
	jmp	L612
	.p2align 2,,3
L624:
	.loc 1 2021 0
	mov	eax, 1
	jmp	L615
L625:
	.loc 1 2035 0
	call	___stack_chk_fail
LVL849:
	.cfi_endproc
LFE146:
	.p2align 2,,3
	.def	_pidgin_status_box_size_request;	.scl	3;	.type	32;	.endef
_pidgin_status_box_size_request:
LFB144:
	.loc 1 1930 0
	.cfi_startproc
LVL850:
	push	ebp
LCFI327:
	.cfi_def_cfa_offset 8
	.cfi_offset 5, -8
	push	edi
LCFI328:
	.cfi_def_cfa_offset 12
	.cfi_offset 7, -12
	push	esi
LCFI329:
	.cfi_def_cfa_offset 16
	.cfi_offset 6, -16
	push	ebx
LCFI330:
	.cfi_def_cfa_offset 20
	.cfi_offset 3, -20
	sub	esp, 44
LCFI331:
	.cfi_def_cfa_offset 64
	mov	esi, DWORD PTR [esp+64]
	mov	ebx, DWORD PTR [esp+68]
	.loc 1 1930 0
	mov	eax, DWORD PTR ___stack_chk_guard
	mov	DWORD PTR [esp+28], eax
	xor	eax, eax
	.loc 1 1932 0
	call	_gtk_container_get_type
LVL851:
	mov	DWORD PTR [esp+4], eax
	mov	DWORD PTR [esp], esi
	call	_g_type_check_instance_cast
LVL852:
	movzx	edi, WORD PTR [eax+64]
LVL853:
	.loc 1 1934 0
	call	_pidgin_status_box_get_type
LVL854:
	mov	ebp, eax
	mov	DWORD PTR [esp+4], eax
	mov	DWORD PTR [esp], esi
	call	_g_type_check_instance_cast
LVL855:
	mov	DWORD PTR [esp+4], ebx
	mov	eax, DWORD PTR [eax+264]
	mov	DWORD PTR [esp], eax
	call	_gtk_widget_size_request
LVL856:
	.loc 1 1938 0
	sal	edi
LVL857:
	.loc 1 1937 0
	mov	edx, DWORD PTR [ebx+4]
	cmp	edx, 34
	jge	L627
	mov	edx, 34
L627:
	.loc 1 1938 0
	add	edx, edi
	mov	DWORD PTR [ebx+4], edx
	.loc 1 1941 0
	mov	DWORD PTR [esp+4], ebp
	mov	DWORD PTR [esp], esi
	call	_g_type_check_instance_cast
LVL858:
	lea	edx, [esp+20]
	mov	DWORD PTR [esp+4], edx
	mov	eax, DWORD PTR [eax+84]
	mov	DWORD PTR [esp], eax
	call	_gtk_widget_size_request
LVL859:
	.loc 1 1942 0
	mov	eax, DWORD PTR [esp+24]
	cmp	eax, 1
	jle	L628
	.loc 1 1943 0
	lea	eax, [edi+eax]
	add	DWORD PTR [ebx+4], eax
L628:
	.loc 1 1945 0
	mov	DWORD PTR [ebx], 1
	.loc 1 1946 0
	mov	eax, DWORD PTR [esp+28]
	xor	eax, DWORD PTR ___stack_chk_guard
	jne	L631
	add	esp, 44
LCFI332:
	.cfi_remember_state
	.cfi_def_cfa_offset 20
	pop	ebx
LCFI333:
	.cfi_restore 3
	.cfi_def_cfa_offset 16
	pop	esi
LCFI334:
	.cfi_restore 6
	.cfi_def_cfa_offset 12
	pop	edi
LCFI335:
	.cfi_restore 7
	.cfi_def_cfa_offset 8
	pop	ebp
LCFI336:
	.cfi_restore 5
	.cfi_def_cfa_offset 4
	ret
L631:
LCFI337:
	.cfi_restore_state
	call	___stack_chk_fail
LVL860:
	.cfi_endproc
LFE144:
	.p2align 2,,3
	.globl	_pidgin_status_box_new
	.def	_pidgin_status_box_new;	.scl	2;	.type	32;	.endef
_pidgin_status_box_new:
LFB149:
	.loc 1 2072 0
	.cfi_startproc
	sub	esp, 60
LCFI338:
	.cfi_def_cfa_offset 64
	.loc 1 2072 0
	mov	eax, DWORD PTR ___stack_chk_guard
	mov	DWORD PTR [esp+44], eax
	xor	eax, eax
	.loc 1 2073 0
	call	_pidgin_status_box_get_type
LVL861:
	mov	DWORD PTR [esp+20], 0
	mov	DWORD PTR [esp+16], 1
	mov	DWORD PTR [esp+12], OFFSET FLAT:LC6
	mov	DWORD PTR [esp+8], 0
	mov	DWORD PTR [esp+4], OFFSET FLAT:LC3
	mov	DWORD PTR [esp], eax
	call	_g_object_new
LVL862:
	.loc 1 2075 0
	mov	edx, DWORD PTR [esp+44]
	xor	edx, DWORD PTR ___stack_chk_guard
	jne	L635
	add	esp, 60
LCFI339:
	.cfi_remember_state
	.cfi_def_cfa_offset 4
	ret
L635:
LCFI340:
	.cfi_restore_state
	call	___stack_chk_fail
LVL863:
	.cfi_endproc
LFE149:
	.p2align 2,,3
	.globl	_pidgin_status_box_new_with_account
	.def	_pidgin_status_box_new_with_account;	.scl	2;	.type	32;	.endef
_pidgin_status_box_new_with_account:
LFB150:
	.loc 1 2079 0
	.cfi_startproc
LVL864:
	push	ebx
LCFI341:
	.cfi_def_cfa_offset 8
	.cfi_offset 3, -8
	sub	esp, 56
LCFI342:
	.cfi_def_cfa_offset 64
	mov	ebx, DWORD PTR [esp+64]
	.loc 1 2079 0
	mov	eax, DWORD PTR ___stack_chk_guard
	mov	DWORD PTR [esp+44], eax
	xor	eax, eax
	.loc 1 2080 0
	call	_pidgin_status_box_get_type
LVL865:
	mov	DWORD PTR [esp+20], 0
	mov	DWORD PTR [esp+16], 1
	mov	DWORD PTR [esp+12], OFFSET FLAT:LC6
	mov	DWORD PTR [esp+8], ebx
	mov	DWORD PTR [esp+4], OFFSET FLAT:LC3
	mov	DWORD PTR [esp], eax
	call	_g_object_new
LVL866:
	.loc 1 2082 0
	mov	edx, DWORD PTR [esp+44]
	xor	edx, DWORD PTR ___stack_chk_guard
	jne	L639
	add	esp, 56
LCFI343:
	.cfi_remember_state
	.cfi_def_cfa_offset 8
	pop	ebx
LCFI344:
	.cfi_restore 3
	.cfi_def_cfa_offset 4
	ret
L639:
LCFI345:
	.cfi_restore_state
	call	___stack_chk_fail
LVL867:
	.cfi_endproc
LFE150:
	.section .rdata,"dr"
	.align 4
LC42:
	.ascii "%s - <span color=\"%s\" size=\"smaller\">%s</span>\0"
LC43:
	.ascii "gtk-save\0"
	.text
	.p2align 2,,3
	.globl	_pidgin_status_box_add
	.def	_pidgin_status_box_add;	.scl	2;	.type	32;	.endef
_pidgin_status_box_add:
LFB151:
	.loc 1 2108 0
	.cfi_startproc
LVL868:
	push	ebp
LCFI346:
	.cfi_def_cfa_offset 8
	.cfi_offset 5, -8
	push	edi
LCFI347:
	.cfi_def_cfa_offset 12
	.cfi_offset 7, -12
	push	esi
LCFI348:
	.cfi_def_cfa_offset 16
	.cfi_offset 6, -16
	push	ebx
LCFI349:
	.cfi_def_cfa_offset 20
	.cfi_offset 3, -20
	sub	esp, 156
LCFI350:
	.cfi_def_cfa_offset 176
	mov	ebx, DWORD PTR [esp+176]
	mov	edx, DWORD PTR [esp+180]
	mov	DWORD PTR [esp+100], edx
	mov	ecx, DWORD PTR [esp+184]
	mov	edx, DWORD PTR [esp+188]
	mov	DWORD PTR [esp+104], edx
	mov	esi, DWORD PTR [esp+192]
	mov	edx, DWORD PTR [esp+196]
	mov	DWORD PTR [esp+108], edx
	.loc 1 2108 0
	mov	eax, DWORD PTR ___stack_chk_guard
	mov	DWORD PTR [esp+140], eax
	xor	eax, eax
LVL869:
	.loc 1 2113 0
	test	esi, esi
	je	L654
LBB147:
	.loc 1 2123 0
	mov	DWORD PTR [esp+92], ecx
	call	_gtk_widget_get_type
LVL870:
	mov	DWORD PTR [esp+4], eax
	mov	DWORD PTR [esp], ebx
	call	_g_type_check_instance_cast
LVL871:
	mov	DWORD PTR [esp], eax
	call	_gtk_widget_get_style
LVL872:
	.loc 1 2124 0
	movzx	edx, BYTE PTR [eax+441]
	mov	DWORD PTR [esp+20], edx
	movzx	edx, BYTE PTR [eax+439]
	mov	DWORD PTR [esp+16], edx
	movzx	eax, BYTE PTR [eax+437]
LVL873:
	mov	DWORD PTR [esp+12], eax
	mov	DWORD PTR [esp+8], OFFSET FLAT:LC9
	mov	DWORD PTR [esp+4], 8
	lea	edi, [esp+132]
	mov	DWORD PTR [esp], edi
	call	__snprintf
LVL874:
	.loc 1 2129 0
	mov	DWORD PTR [esp+4], -1
	mov	edx, DWORD PTR [esp+104]
	mov	DWORD PTR [esp], edx
	call	_g_markup_escape_text
LVL875:
	mov	ebp, eax
LVL876:
	.loc 1 2130 0
	mov	DWORD PTR [esp+4], -1
	mov	DWORD PTR [esp], esi
	call	_g_markup_escape_text
LVL877:
	.loc 1 2131 0
	mov	DWORD PTR [esp+12], eax
	.loc 1 2133 0
	mov	DWORD PTR [esp+8], edi
	.loc 1 2131 0
	mov	DWORD PTR [esp+4], ebp
	mov	DWORD PTR [esp], OFFSET FLAT:LC42
	mov	DWORD PTR [esp+96], eax
	call	_g_strdup_printf
LVL878:
	mov	edi, eax
LVL879:
	.loc 1 2134 0
	mov	DWORD PTR [esp], ebp
	call	_g_free
LVL880:
	.loc 1 2135 0
	mov	edx, DWORD PTR [esp+96]
	mov	DWORD PTR [esp], edx
	call	_g_free
LVL881:
	mov	ecx, DWORD PTR [esp+92]
LVL882:
L642:
LBE147:
	.loc 1 2138 0
	test	ecx, ecx
	je	L655
	.loc 1 2111 0
	xor	eax, eax
LVL883:
L643:
	.loc 1 2153 0
	lea	ebp, [esp+116]
	mov	DWORD PTR [esp+4], ebp
	mov	edx, DWORD PTR [ebx+72]
	mov	DWORD PTR [esp], edx
	mov	DWORD PTR [esp+96], eax
	call	_gtk_list_store_append
LVL884:
	.loc 1 2154 0
	mov	DWORD PTR [esp+72], -1
	mov	DWORD PTR [esp+68], OFFSET FLAT:LC43
	mov	DWORD PTR [esp+64], 7
	xor	edx, edx
	cmp	DWORD PTR [esp+100], 3
	sete	dl
	mov	DWORD PTR [esp+60], edx
	mov	DWORD PTR [esp+56], 8
	mov	edx, DWORD PTR [esp+108]
	mov	DWORD PTR [esp+52], edx
	mov	DWORD PTR [esp+48], 6
	mov	DWORD PTR [esp+44], esi
	mov	DWORD PTR [esp+40], 5
	mov	edx, DWORD PTR [esp+104]
	mov	DWORD PTR [esp+36], edx
	mov	DWORD PTR [esp+32], 4
	mov	DWORD PTR [esp+28], edi
	mov	DWORD PTR [esp+24], 3
	mov	eax, DWORD PTR [esp+96]
	mov	DWORD PTR [esp+20], eax
	mov	DWORD PTR [esp+16], 1
	mov	edx, DWORD PTR [esp+100]
	mov	DWORD PTR [esp+12], edx
	mov	DWORD PTR [esp+8], 0
	mov	DWORD PTR [esp+4], ebp
	mov	eax, DWORD PTR [ebx+72]
	mov	DWORD PTR [esp], eax
	call	_gtk_list_store_set
LVL885:
	.loc 1 2164 0
	mov	DWORD PTR [esp], edi
	call	_g_free
LVL886:
	.loc 1 2165 0
	mov	eax, DWORD PTR [esp+140]
	xor	eax, DWORD PTR ___stack_chk_guard
	jne	L656
	add	esp, 156
LCFI351:
	.cfi_remember_state
	.cfi_def_cfa_offset 20
	pop	ebx
LCFI352:
	.cfi_restore 3
	.cfi_def_cfa_offset 16
	pop	esi
LCFI353:
	.cfi_restore 6
	.cfi_def_cfa_offset 12
	pop	edi
LCFI354:
	.cfi_restore 7
	.cfi_def_cfa_offset 8
LVL887:
	pop	ebp
LCFI355:
	.cfi_restore 5
	.cfi_def_cfa_offset 4
	ret
LVL888:
	.p2align 2,,3
L655:
LCFI356:
	.cfi_restore_state
LBB148:
	.loc 1 2140 0
	cmp	DWORD PTR [esp+100], 1
	je	L657
	.loc 1 2142 0
	mov	eax, DWORD PTR [esp+100]
	sub	eax, 2
	cmp	eax, 1
	jbe	L646
L647:
LBE148:
	.loc 1 2139 0
	xor	eax, eax
LVL889:
L645:
LBB150:
	.loc 1 2150 0
	mov	DWORD PTR [esp], eax
	call	_pidgin_stock_id_from_status_primitive
LVL890:
	jmp	L643
LVL891:
	.p2align 2,,3
L657:
	.loc 1 2141 0
	mov	eax, DWORD PTR [esp+108]
LVL892:
	jmp	L645
LVL893:
	.p2align 2,,3
L654:
LBE150:
	.loc 1 2115 0
	mov	DWORD PTR [esp+4], -1
	mov	edx, DWORD PTR [esp+104]
	mov	DWORD PTR [esp], edx
	mov	DWORD PTR [esp+92], ecx
	call	_g_markup_escape_text
LVL894:
	mov	edi, eax
LVL895:
	mov	ecx, DWORD PTR [esp+92]
	jmp	L642
LVL896:
	.p2align 2,,3
L646:
LBB151:
LBB149:
	.loc 1 2144 0
	mov	edx, DWORD PTR [esp+108]
	mov	DWORD PTR [esp], edx
	call	_purple_savedstatus_find_by_creation_time
LVL897:
	.loc 1 2145 0
	test	eax, eax
	je	L647
	.loc 1 2146 0
	mov	DWORD PTR [esp], eax
	call	_purple_savedstatus_get_type
LVL898:
	jmp	L645
LVL899:
L656:
LBE149:
LBE151:
	.loc 1 2165 0
	call	___stack_chk_fail
LVL900:
	.cfi_endproc
LFE151:
	.p2align 2,,3
	.def	_add_account_statuses;	.scl	3;	.type	32;	.endef
_add_account_statuses:
LFB114:
	.loc 1 1053 0
	.cfi_startproc
LVL901:
	push	ebp
LCFI357:
	.cfi_def_cfa_offset 8
	.cfi_offset 5, -8
	push	edi
LCFI358:
	.cfi_def_cfa_offset 12
	.cfi_offset 7, -12
	push	esi
LCFI359:
	.cfi_def_cfa_offset 16
	.cfi_offset 6, -16
	push	ebx
LCFI360:
	.cfi_def_cfa_offset 20
	.cfi_offset 3, -20
	sub	esp, 60
LCFI361:
	.cfi_def_cfa_offset 80
	mov	edi, eax
	.loc 1 1053 0
	mov	eax, DWORD PTR ___stack_chk_guard
	mov	DWORD PTR [esp+44], eax
	xor	eax, eax
LVL902:
	.loc 1 1057 0
	mov	DWORD PTR [esp], edx
	call	_purple_account_get_status_types
LVL903:
	mov	ebx, eax
LVL904:
	test	eax, eax
	jne	L666
	jmp	L658
LVL905:
	.p2align 2,,3
L661:
	mov	ebx, DWORD PTR [ebx+4]
LVL906:
	test	ebx, ebx
	je	L658
LVL907:
L666:
LBB152:
	.loc 1 1059 0
	mov	esi, DWORD PTR [ebx]
LVL908:
	.loc 1 1062 0
	mov	DWORD PTR [esp], esi
	call	_purple_status_type_is_user_settable
LVL909:
	test	eax, eax
	je	L661
	.loc 1 1063 0 discriminator 1
	mov	DWORD PTR [esp], esi
	call	_purple_status_type_is_independent
LVL910:
	.loc 1 1062 0 discriminator 1
	test	eax, eax
	jne	L661
	.loc 1 1066 0
	mov	DWORD PTR [esp], esi
	call	_purple_status_type_get_primitive
LVL911:
	mov	ebp, eax
LVL912:
	.loc 1 1068 0
	mov	DWORD PTR [esp], esi
	call	_purple_status_type_get_name
LVL913:
	mov	esi, eax
LVL914:
	call	_pidgin_status_box_get_type
LVL915:
	mov	DWORD PTR [esp+4], eax
	mov	DWORD PTR [esp], edi
	call	_g_type_check_instance_cast
LVL916:
	mov	DWORD PTR [esp+20], ebp
	mov	DWORD PTR [esp+16], 0
	mov	DWORD PTR [esp+12], esi
	mov	DWORD PTR [esp+8], 0
	mov	DWORD PTR [esp+4], 1
	mov	DWORD PTR [esp], eax
	call	_pidgin_status_box_add
LVL917:
LBE152:
	.loc 1 1057 0
	mov	ebx, DWORD PTR [ebx+4]
LVL918:
	test	ebx, ebx
	jne	L666
LVL919:
	.p2align 2,,3
L658:
	.loc 1 1074 0
	mov	eax, DWORD PTR [esp+44]
	xor	eax, DWORD PTR ___stack_chk_guard
	jne	L669
	add	esp, 60
LCFI362:
	.cfi_remember_state
	.cfi_def_cfa_offset 20
	pop	ebx
LCFI363:
	.cfi_restore 3
	.cfi_def_cfa_offset 16
LVL920:
	pop	esi
LCFI364:
	.cfi_restore 6
	.cfi_def_cfa_offset 12
	pop	edi
LCFI365:
	.cfi_restore 7
	.cfi_def_cfa_offset 8
LVL921:
	pop	ebp
LCFI366:
	.cfi_restore 5
	.cfi_def_cfa_offset 4
	ret
LVL922:
L669:
LCFI367:
	.cfi_restore_state
	call	___stack_chk_fail
LVL923:
	.cfi_endproc
LFE114:
	.p2align 2,,3
	.globl	_pidgin_status_box_add_separator
	.def	_pidgin_status_box_add_separator;	.scl	2;	.type	32;	.endef
_pidgin_status_box_add_separator:
LFB152:
	.loc 1 2169 0
	.cfi_startproc
LVL924:
	push	esi
LCFI368:
	.cfi_def_cfa_offset 8
	.cfi_offset 6, -8
	push	ebx
LCFI369:
	.cfi_def_cfa_offset 12
	.cfi_offset 3, -12
	sub	esp, 68
LCFI370:
	.cfi_def_cfa_offset 80
	mov	ebx, DWORD PTR [esp+80]
	.loc 1 2169 0
	mov	eax, DWORD PTR ___stack_chk_guard
	mov	DWORD PTR [esp+60], eax
	xor	eax, eax
	.loc 1 2174 0
	lea	esi, [esp+44]
	mov	DWORD PTR [esp+4], esi
	mov	eax, DWORD PTR [ebx+72]
	mov	DWORD PTR [esp], eax
	call	_gtk_list_store_append
LVL925:
	.loc 1 2175 0
	mov	DWORD PTR [esp+16], -1
	mov	DWORD PTR [esp+12], 0
	mov	DWORD PTR [esp+8], 0
	mov	DWORD PTR [esp+4], esi
	mov	eax, DWORD PTR [ebx+72]
	mov	DWORD PTR [esp], eax
	call	_gtk_list_store_set
LVL926:
	.loc 1 2178 0
	mov	eax, DWORD PTR [esp+60]
	xor	eax, DWORD PTR ___stack_chk_guard
	jne	L673
	add	esp, 68
LCFI371:
	.cfi_remember_state
	.cfi_def_cfa_offset 12
	pop	ebx
LCFI372:
	.cfi_restore 3
	.cfi_def_cfa_offset 8
	pop	esi
LCFI373:
	.cfi_restore 6
	.cfi_def_cfa_offset 4
	ret
L673:
LCFI374:
	.cfi_restore_state
	call	___stack_chk_fail
LVL927:
	.cfi_endproc
LFE152:
	.section .rdata,"dr"
LC44:
	.ascii "Available\0"
LC45:
	.ascii "Away\0"
LC46:
	.ascii "Do not disturb\0"
LC47:
	.ascii "Invisible\0"
LC48:
	.ascii "Offline\0"
LC49:
	.ascii "New status...\0"
LC50:
	.ascii "Saved statuses...\0"
	.text
	.p2align 2,,3
	.def	_pidgin_status_box_regenerate;	.scl	3;	.type	32;	.endef
_pidgin_status_box_regenerate:
LFB115:
	.loc 1 1078 0
	.cfi_startproc
LVL928:
	push	ebp
LCFI375:
	.cfi_def_cfa_offset 8
	.cfi_offset 5, -8
	push	edi
LCFI376:
	.cfi_def_cfa_offset 12
	.cfi_offset 7, -12
	push	esi
LCFI377:
	.cfi_def_cfa_offset 16
	.cfi_offset 6, -16
	push	ebx
LCFI378:
	.cfi_def_cfa_offset 20
	.cfi_offset 3, -20
	sub	esp, 92
LCFI379:
	.cfi_def_cfa_offset 112
	mov	ebx, eax
	mov	DWORD PTR [esp+56], edx
	.loc 1 1078 0
	mov	eax, DWORD PTR ___stack_chk_guard
	mov	DWORD PTR [esp+76], eax
	xor	eax, eax
LVL929:
	.loc 1 1080 0
	call	_gtk_tree_view_get_type
LVL930:
	mov	DWORD PTR [esp+44], eax
	mov	DWORD PTR [esp+4], eax
	mov	eax, DWORD PTR [ebx+296]
	mov	DWORD PTR [esp], eax
	call	_g_type_check_instance_cast
LVL931:
	mov	DWORD PTR [esp+4], 0
	mov	DWORD PTR [esp], eax
	call	_gtk_tree_view_set_model
LVL932:
	.loc 1 1081 0
	mov	eax, DWORD PTR [ebx+72]
	mov	DWORD PTR [esp], eax
	call	_gtk_list_store_clear
LVL933:
	.loc 1 1087 0
	mov	edx, DWORD PTR [ebx+76]
	test	edx, edx
	je	L690
	.loc 1 1113 0
	mov	eax, ebx
	call	_add_account_statuses
LVL934:
	.loc 1 1114 0
	mov	eax, DWORD PTR [ebx+76]
	mov	DWORD PTR [esp], eax
	call	_purple_account_get_active_status
LVL935:
	mov	edx, DWORD PTR [ebx+76]
	mov	ecx, eax
	mov	eax, ebx
	call	_update_to_reflect_account_status
LVL936:
L681:
	.loc 1 1117 0
	call	_gtk_tree_model_get_type
LVL937:
	mov	DWORD PTR [esp+4], eax
	mov	eax, DWORD PTR [ebx+72]
	mov	DWORD PTR [esp], eax
	call	_g_type_check_instance_cast
LVL938:
	mov	esi, eax
	mov	eax, DWORD PTR [esp+44]
	mov	DWORD PTR [esp+4], eax
	mov	eax, DWORD PTR [ebx+296]
	mov	DWORD PTR [esp], eax
	call	_g_type_check_instance_cast
LVL939:
	mov	DWORD PTR [esp+4], esi
	mov	DWORD PTR [esp], eax
	call	_gtk_tree_view_set_model
LVL940:
	.loc 1 1118 0
	mov	eax, DWORD PTR [esp+44]
	mov	DWORD PTR [esp+4], eax
	mov	eax, DWORD PTR [ebx+296]
	mov	DWORD PTR [esp], eax
	call	_g_type_check_instance_cast
LVL941:
	mov	DWORD PTR [esp+4], 3
	mov	DWORD PTR [esp], eax
	call	_gtk_tree_view_set_search_column
LVL942:
	.loc 1 1119 0
	mov	eax, DWORD PTR [esp+76]
	xor	eax, DWORD PTR ___stack_chk_guard
	jne	L691
	add	esp, 92
LCFI380:
	.cfi_remember_state
	.cfi_def_cfa_offset 20
	pop	ebx
LCFI381:
	.cfi_restore 3
	.cfi_def_cfa_offset 16
	pop	esi
LCFI382:
	.cfi_restore 6
	.cfi_def_cfa_offset 12
	pop	edi
LCFI383:
	.cfi_restore 7
	.cfi_def_cfa_offset 8
	pop	ebp
LCFI384:
	.cfi_restore 5
	.cfi_def_cfa_offset 4
	ret
LVL943:
	.p2align 2,,3
L690:
LCFI385:
	.cfi_restore_state
	.loc 1 1092 0
	mov	edx, DWORD PTR [ebx+80]
	test	edx, edx
	je	L676
	.loc 1 1093 0
	mov	eax, ebx
	call	_add_account_statuses
LVL944:
	.loc 1 1077 0
	call	_pidgin_status_box_get_type
LVL945:
	mov	DWORD PTR [esp+52], eax
L677:
LVL946:
LBB156:
LBB157:
	.loc 1 957 0
	mov	DWORD PTR [esp], 6
	call	_purple_savedstatuses_get_popular
LVL947:
	mov	DWORD PTR [esp+60], eax
LVL948:
	.loc 1 958 0
	test	eax, eax
	je	L678
	.loc 1 962 0
	mov	DWORD PTR [esp], ebx
	call	_pidgin_status_box_add_separator
LVL949:
	mov	ebp, DWORD PTR [esp+60]
	mov	DWORD PTR [esp+48], ebx
	jmp	L680
LVL950:
	.p2align 2,,3
L683:
LBB158:
	.loc 1 978 0
	mov	DWORD PTR [esp+40], 2
	.loc 1 968 0
	xor	esi, esi
LVL951:
L679:
	.loc 1 994 0
	mov	DWORD PTR [esp], ebx
	call	_purple_savedstatus_get_creation_time
LVL952:
	mov	edi, eax
	.loc 1 992 0
	mov	DWORD PTR [esp], ebx
	call	_purple_savedstatus_get_title
LVL953:
	mov	DWORD PTR [esp+20], edi
	mov	DWORD PTR [esp+16], esi
	mov	DWORD PTR [esp+12], eax
	mov	DWORD PTR [esp+8], 0
	mov	eax, DWORD PTR [esp+40]
	mov	DWORD PTR [esp+4], eax
	mov	eax, DWORD PTR [esp+48]
	mov	DWORD PTR [esp], eax
	call	_pidgin_status_box_add
LVL954:
	.loc 1 995 0
	mov	DWORD PTR [esp], esi
	call	_g_free
LVL955:
LBE158:
	.loc 1 964 0
	mov	ebp, DWORD PTR [ebp+4]
LVL956:
	test	ebp, ebp
	je	L692
LVL957:
L680:
LBB159:
	.loc 1 966 0
	mov	ebx, DWORD PTR [ebp+0]
LVL958:
	.loc 1 971 0
	mov	DWORD PTR [esp], ebx
	call	_purple_savedstatus_is_transient
LVL959:
	test	eax, eax
	jne	L683
LVL960:
	.loc 1 984 0
	mov	DWORD PTR [esp], ebx
	call	_purple_savedstatus_get_message
LVL961:
	.loc 1 985 0
	test	eax, eax
	je	L684
	.loc 1 987 0
	mov	DWORD PTR [esp], eax
	call	_purple_markup_strip_html
LVL962:
	mov	esi, eax
LVL963:
	.loc 1 988 0
	mov	DWORD PTR [esp+8], 32
	mov	DWORD PTR [esp+4], 10
	mov	DWORD PTR [esp], eax
	call	_purple_util_chrreplace
LVL964:
	.loc 1 982 0
	mov	DWORD PTR [esp+40], 3
	jmp	L679
LVL965:
	.p2align 2,,3
L692:
	mov	ebx, DWORD PTR [esp+48]
LVL966:
LBE159:
	.loc 1 998 0
	mov	eax, DWORD PTR [esp+60]
	mov	DWORD PTR [esp], eax
	call	_g_list_free
LVL967:
L678:
LBE157:
LBE156:
	.loc 1 1105 0
	mov	eax, DWORD PTR [esp+52]
	mov	DWORD PTR [esp+4], eax
	mov	DWORD PTR [esp], ebx
	call	_g_type_check_instance_cast
LVL968:
	mov	DWORD PTR [esp], eax
	call	_pidgin_status_box_add_separator
LVL969:
	.loc 1 1106 0
	mov	DWORD PTR [esp+4], OFFSET FLAT:LC49
	mov	DWORD PTR [esp], OFFSET FLAT:LC12
	call	_libintl_dgettext
LVL970:
	mov	esi, eax
	mov	eax, DWORD PTR [esp+52]
	mov	DWORD PTR [esp+4], eax
	mov	DWORD PTR [esp], ebx
	call	_g_type_check_instance_cast
LVL971:
	mov	DWORD PTR [esp+20], 0
	mov	DWORD PTR [esp+16], 0
	mov	DWORD PTR [esp+12], esi
	mov	DWORD PTR [esp+8], 0
	mov	DWORD PTR [esp+4], 4
	mov	DWORD PTR [esp], eax
	call	_pidgin_status_box_add
LVL972:
	.loc 1 1107 0
	mov	DWORD PTR [esp+4], OFFSET FLAT:LC50
	mov	DWORD PTR [esp], OFFSET FLAT:LC12
	call	_libintl_dgettext
LVL973:
	mov	esi, eax
	mov	eax, DWORD PTR [esp+52]
	mov	DWORD PTR [esp+4], eax
	mov	DWORD PTR [esp], ebx
	call	_g_type_check_instance_cast
LVL974:
	mov	DWORD PTR [esp+20], 0
	mov	DWORD PTR [esp+16], 0
	mov	DWORD PTR [esp+12], esi
	mov	DWORD PTR [esp+8], 0
	mov	DWORD PTR [esp+4], 5
	mov	DWORD PTR [esp], eax
	call	_pidgin_status_box_add
LVL975:
	.loc 1 1109 0
	mov	edx, DWORD PTR [esp+56]
	mov	eax, ebx
	call	_status_menu_refresh_iter
LVL976:
	.loc 1 1110 0
	mov	eax, ebx
	call	_pidgin_status_box_refresh
LVL977:
	jmp	L681
LVL978:
	.p2align 2,,3
L684:
LBB162:
LBB161:
LBB160:
	.loc 1 982 0
	mov	DWORD PTR [esp+40], 3
	.loc 1 968 0
	xor	esi, esi
	jmp	L679
LVL979:
	.p2align 2,,3
L676:
LBE160:
LBE161:
LBE162:
	.loc 1 1096 0
	mov	DWORD PTR [esp+4], OFFSET FLAT:LC44
	mov	DWORD PTR [esp], OFFSET FLAT:LC12
	call	_libintl_dgettext
LVL980:
	mov	esi, eax
	call	_pidgin_status_box_get_type
LVL981:
	mov	DWORD PTR [esp+52], eax
	mov	DWORD PTR [esp+4], eax
	mov	DWORD PTR [esp], ebx
	call	_g_type_check_instance_cast
LVL982:
	mov	DWORD PTR [esp+20], 2
	mov	DWORD PTR [esp+16], 0
	mov	DWORD PTR [esp+12], esi
	mov	DWORD PTR [esp+8], 0
	mov	DWORD PTR [esp+4], 1
	mov	DWORD PTR [esp], eax
	call	_pidgin_status_box_add
LVL983:
	.loc 1 1097 0
	mov	DWORD PTR [esp+4], OFFSET FLAT:LC45
	mov	DWORD PTR [esp], OFFSET FLAT:LC12
	call	_libintl_dgettext
LVL984:
	mov	esi, eax
	mov	eax, DWORD PTR [esp+52]
	mov	DWORD PTR [esp+4], eax
	mov	DWORD PTR [esp], ebx
	call	_g_type_check_instance_cast
LVL985:
	mov	DWORD PTR [esp+20], 5
	mov	DWORD PTR [esp+16], 0
	mov	DWORD PTR [esp+12], esi
	mov	DWORD PTR [esp+8], 0
	mov	DWORD PTR [esp+4], 1
	mov	DWORD PTR [esp], eax
	call	_pidgin_status_box_add
LVL986:
	.loc 1 1098 0
	mov	DWORD PTR [esp+4], OFFSET FLAT:LC46
	mov	DWORD PTR [esp], OFFSET FLAT:LC12
	call	_libintl_dgettext
LVL987:
	mov	esi, eax
	mov	eax, DWORD PTR [esp+52]
	mov	DWORD PTR [esp+4], eax
	mov	DWORD PTR [esp], ebx
	call	_g_type_check_instance_cast
LVL988:
	mov	DWORD PTR [esp+20], 3
	mov	DWORD PTR [esp+16], 0
	mov	DWORD PTR [esp+12], esi
	mov	DWORD PTR [esp+8], 0
	mov	DWORD PTR [esp+4], 1
	mov	DWORD PTR [esp], eax
	call	_pidgin_status_box_add
LVL989:
	.loc 1 1099 0
	mov	DWORD PTR [esp+4], OFFSET FLAT:LC47
	mov	DWORD PTR [esp], OFFSET FLAT:LC12
	call	_libintl_dgettext
LVL990:
	mov	esi, eax
	mov	eax, DWORD PTR [esp+52]
	mov	DWORD PTR [esp+4], eax
	mov	DWORD PTR [esp], ebx
	call	_g_type_check_instance_cast
LVL991:
	mov	DWORD PTR [esp+20], 4
	mov	DWORD PTR [esp+16], 0
	mov	DWORD PTR [esp+12], esi
	mov	DWORD PTR [esp+8], 0
	mov	DWORD PTR [esp+4], 1
	mov	DWORD PTR [esp], eax
	call	_pidgin_status_box_add
LVL992:
	.loc 1 1100 0
	mov	DWORD PTR [esp+4], OFFSET FLAT:LC48
	mov	DWORD PTR [esp], OFFSET FLAT:LC12
	call	_libintl_dgettext
LVL993:
	mov	esi, eax
	mov	eax, DWORD PTR [esp+52]
	mov	DWORD PTR [esp+4], eax
	mov	DWORD PTR [esp], ebx
	call	_g_type_check_instance_cast
LVL994:
	mov	DWORD PTR [esp+20], 1
	mov	DWORD PTR [esp+16], 0
	mov	DWORD PTR [esp+12], esi
	mov	DWORD PTR [esp+8], 0
	mov	DWORD PTR [esp+4], 1
	mov	DWORD PTR [esp], eax
	call	_pidgin_status_box_add
LVL995:
	jmp	L677
LVL996:
L691:
	.loc 1 1119 0
	call	___stack_chk_fail
LVL997:
	.cfi_endproc
LFE115:
	.section .rdata,"dr"
LC51:
	.ascii "Status Selector\0"
LC52:
	.ascii "stock-id\0"
LC53:
	.ascii "markup\0"
LC54:
	.ascii "visible\0"
LC55:
	.ascii "ellipsize\0"
LC56:
	.ascii "pixbuf\0"
LC57:
	.ascii "key-press-event\0"
LC58:
	.ascii "button-press-event\0"
LC59:
	.ascii "changed\0"
LC60:
	.ascii "format_function_toggle\0"
LC61:
	.ascii "move_cursor\0"
LC62:
	.ascii "key_press_event\0"
LC63:
	.ascii "message_send\0"
	.align 4
LC64:
	.ascii "/pidgin/conversations/spellcheck\0"
LC65:
	.ascii "scroll_event\0"
LC66:
	.ascii "button_release_event\0"
LC67:
	.ascii "cursor-changed\0"
LC68:
	.ascii "xpad\0"
	.align 4
LC69:
	.ascii "pidgin-icon-size-tango-extra-small\0"
LC70:
	.ascii "savedstatus-changed\0"
LC71:
	.ascii "savedstatus-added\0"
LC72:
	.ascii "savedstatus-deleted\0"
LC73:
	.ascii "savedstatus-modified\0"
LC74:
	.ascii "account-enabled\0"
LC75:
	.ascii "account-disabled\0"
LC76:
	.ascii "account-status-changed\0"
LC77:
	.ascii "uri-handler\0"
	.text
	.p2align 2,,3
	.def	_pidgin_status_box_init;	.scl	3;	.type	32;	.endef
_pidgin_status_box_init:
LFB143:
	.loc 1 1744 0
	.cfi_startproc
LVL998:
	push	ebp
LCFI386:
	.cfi_def_cfa_offset 8
	.cfi_offset 5, -8
	push	edi
LCFI387:
	.cfi_def_cfa_offset 12
	.cfi_offset 7, -12
	push	esi
LCFI388:
	.cfi_def_cfa_offset 16
	.cfi_offset 6, -16
	push	ebx
LCFI389:
	.cfi_def_cfa_offset 20
	.cfi_offset 3, -20
	sub	esp, 108
LCFI390:
	.cfi_def_cfa_offset 128
	mov	ebx, DWORD PTR [esp+128]
	.loc 1 1744 0
	mov	eax, DWORD PTR ___stack_chk_guard
	mov	DWORD PTR [esp+92], eax
	xor	eax, eax
	.loc 1 1752 0
	call	_gtk_object_get_type
LVL999:
	mov	DWORD PTR [esp+4], eax
	mov	DWORD PTR [esp], ebx
	call	_g_type_check_instance_cast
LVL1000:
	or	DWORD PTR [eax+12], 32
	.loc 1 1753 0
	mov	DWORD PTR [ebx+140], 0
	.loc 1 1754 0
	call	_purple_network_is_available
LVL1001:
	mov	DWORD PTR [ebx+228], eax
	.loc 1 1755 0
	mov	DWORD PTR [ebx+232], 0
	.loc 1 1756 0
	mov	DWORD PTR [ebx+236], 0
	.loc 1 1757 0
	call	_gtk_toggle_button_new
LVL1002:
	mov	DWORD PTR [ebx+264], eax
	.loc 1 1758 0
	mov	DWORD PTR [esp+4], 6
	mov	DWORD PTR [esp], 0
	call	_gtk_hbox_new
LVL1003:
	mov	DWORD PTR [ebx+260], eax
	.loc 1 1759 0
	call	_gtk_cell_view_new
LVL1004:
	mov	DWORD PTR [ebx+144], eax
	.loc 1 1760 0
	call	_gtk_vseparator_new
LVL1005:
	mov	DWORD PTR [ebx+268], eax
	.loc 1 1761 0
	mov	DWORD PTR [esp+4], 0
	mov	DWORD PTR [esp], 1
	call	_gtk_arrow_new
LVL1006:
	mov	DWORD PTR [ebx+272], eax
	.loc 1 1763 0
	call	_gdk_pixbuf_get_type
LVL1007:
	mov	esi, eax
	mov	DWORD PTR [esp+36], 20
	mov	DWORD PTR [esp+32], eax
	mov	DWORD PTR [esp+28], 68
	mov	DWORD PTR [esp+24], 64
	mov	DWORD PTR [esp+20], 64
	mov	DWORD PTR [esp+16], 64
	mov	DWORD PTR [esp+12], eax
	mov	DWORD PTR [esp+8], 64
	mov	DWORD PTR [esp+4], 24
	mov	DWORD PTR [esp], 9
	call	_gtk_list_store_new
LVL1008:
	mov	DWORD PTR [ebx+68], eax
	.loc 1 1765 0
	mov	DWORD PTR [esp+36], 20
	mov	DWORD PTR [esp+32], 64
	mov	DWORD PTR [esp+28], 68
	mov	DWORD PTR [esp+24], 64
	mov	DWORD PTR [esp+20], 64
	mov	DWORD PTR [esp+16], 64
	mov	DWORD PTR [esp+12], esi
	mov	DWORD PTR [esp+8], 64
	mov	DWORD PTR [esp+4], 24
	mov	DWORD PTR [esp], 9
	call	_gtk_list_store_new
LVL1009:
	mov	DWORD PTR [ebx+72], eax
	.loc 1 1768 0
	call	_gtk_tree_model_get_type
LVL1010:
	mov	DWORD PTR [esp+68], eax
	mov	DWORD PTR [esp+4], eax
	mov	eax, DWORD PTR [ebx+68]
	mov	DWORD PTR [esp], eax
	call	_g_type_check_instance_cast
LVL1011:
	mov	esi, eax
	call	_gtk_cell_view_get_type
LVL1012:
	mov	DWORD PTR [esp+4], eax
	mov	eax, DWORD PTR [ebx+144]
	mov	DWORD PTR [esp], eax
	call	_g_type_check_instance_cast
LVL1013:
	mov	DWORD PTR [esp+4], esi
	mov	DWORD PTR [esp], eax
	call	_gtk_cell_view_set_model
LVL1014:
	.loc 1 1769 0
	lea	eax, [ebx+240]
	mov	DWORD PTR [esp+4], eax
	mov	eax, DWORD PTR [ebx+68]
	mov	DWORD PTR [esp], eax
	call	_gtk_list_store_append
LVL1015:
	.loc 1 1771 0
	mov	DWORD PTR [esp+4], OFFSET FLAT:LC51
	mov	DWORD PTR [esp], OFFSET FLAT:LC12
	call	_libintl_dgettext
LVL1016:
	mov	esi, eax
	mov	eax, DWORD PTR [ebx+264]
	mov	DWORD PTR [esp], eax
	call	_gtk_widget_get_accessible
LVL1017:
	mov	DWORD PTR [esp+4], esi
	mov	DWORD PTR [esp], eax
	call	_atk_object_set_name
LVL1018:
	.loc 1 1773 0
	mov	esi, DWORD PTR [ebx+260]
	call	_gtk_container_get_type
LVL1019:
	mov	edi, eax
	mov	DWORD PTR [esp+4], eax
	mov	eax, DWORD PTR [ebx+264]
	mov	DWORD PTR [esp], eax
	call	_g_type_check_instance_cast
LVL1020:
	mov	DWORD PTR [esp+4], esi
	mov	DWORD PTR [esp], eax
	call	_gtk_container_add
LVL1021:
	.loc 1 1774 0
	mov	esi, DWORD PTR [ebx+144]
	call	_gtk_box_get_type
LVL1022:
	mov	DWORD PTR [esp+64], eax
	mov	DWORD PTR [esp+4], eax
	mov	eax, DWORD PTR [ebx+260]
	mov	DWORD PTR [esp], eax
	call	_g_type_check_instance_cast
LVL1023:
	mov	DWORD PTR [esp+16], 0
	mov	DWORD PTR [esp+12], 1
	mov	DWORD PTR [esp+8], 1
	mov	DWORD PTR [esp+4], esi
	mov	DWORD PTR [esp], eax
	call	_gtk_box_pack_start
LVL1024:
	.loc 1 1775 0
	mov	esi, DWORD PTR [ebx+268]
	mov	eax, DWORD PTR [esp+64]
	mov	DWORD PTR [esp+4], eax
	mov	eax, DWORD PTR [ebx+260]
	mov	DWORD PTR [esp], eax
	call	_g_type_check_instance_cast
LVL1025:
	mov	DWORD PTR [esp+16], 0
	mov	DWORD PTR [esp+12], 0
	mov	DWORD PTR [esp+8], 0
	mov	DWORD PTR [esp+4], esi
	mov	DWORD PTR [esp], eax
	call	_gtk_box_pack_start
LVL1026:
	.loc 1 1776 0
	mov	esi, DWORD PTR [ebx+272]
	mov	eax, DWORD PTR [esp+64]
	mov	DWORD PTR [esp+4], eax
	mov	eax, DWORD PTR [ebx+260]
	mov	DWORD PTR [esp], eax
	call	_g_type_check_instance_cast
LVL1027:
	mov	DWORD PTR [esp+16], 0
	mov	DWORD PTR [esp+12], 0
	mov	DWORD PTR [esp+8], 0
	mov	DWORD PTR [esp+4], esi
	mov	DWORD PTR [esp], eax
	call	_gtk_box_pack_start
LVL1028:
	.loc 1 1777 0
	mov	eax, DWORD PTR [ebx+264]
	mov	DWORD PTR [esp], eax
	call	_gtk_widget_show_all
LVL1029:
	.loc 1 1778 0
	call	_gtk_button_get_type
LVL1030:
	mov	DWORD PTR [esp+4], eax
	mov	eax, DWORD PTR [ebx+264]
	mov	DWORD PTR [esp], eax
	call	_g_type_check_instance_cast
LVL1031:
	mov	DWORD PTR [esp+4], 0
	mov	DWORD PTR [esp], eax
	call	_gtk_button_set_focus_on_click
LVL1032:
	.loc 1 1780 0
	call	_gtk_cell_renderer_text_new
LVL1033:
	mov	ebp, eax
LVL1034:
	.loc 1 1781 0
	call	_gtk_cell_renderer_pixbuf_new
LVL1035:
	mov	DWORD PTR [esp+72], eax
LVL1036:
	.loc 1 1782 0
	call	_gtk_cell_renderer_pixbuf_new
LVL1037:
	mov	DWORD PTR [esp+76], eax
LVL1038:
	.loc 1 1783 0
	mov	DWORD PTR [esp], 1
	call	_gtk_window_new
LVL1039:
	mov	DWORD PTR [ebx+276], eax
	.loc 1 1785 0
	call	_gtk_widget_get_type
LVL1040:
	mov	DWORD PTR [esp+60], eax
	mov	DWORD PTR [esp+4], eax
	mov	DWORD PTR [esp], ebx
	call	_g_type_check_instance_cast
LVL1041:
	mov	DWORD PTR [esp], eax
	call	_gtk_widget_get_toplevel
LVL1042:
LBB166:
	.loc 1 1786 0
	mov	DWORD PTR [esp+56], eax
	call	_gtk_window_get_type
LVL1043:
	mov	esi, eax
LVL1044:
	mov	edx, DWORD PTR [esp+56]
LVL1045:
	test	edx, edx
	je	L694
	.loc 1 1786 0 is_stmt 0 discriminator 1
	mov	eax, DWORD PTR [edx]
LVL1046:
	test	eax, eax
	je	L694
	cmp	DWORD PTR [eax], esi
	je	L695
L694:
	.loc 1 1786 0 discriminator 2
	mov	DWORD PTR [esp+4], esi
	mov	DWORD PTR [esp], edx
	mov	DWORD PTR [esp+56], edx
	call	_g_type_check_instance_is_a
LVL1047:
LBE166:
	test	eax, eax
	mov	edx, DWORD PTR [esp+56]
LVL1048:
	jne	L695
LVL1049:
L696:
	.loc 1 1791 0 is_stmt 1
	mov	DWORD PTR [esp+4], esi
	mov	eax, DWORD PTR [ebx+276]
	mov	DWORD PTR [esp], eax
	call	_g_type_check_instance_cast
LVL1050:
	mov	DWORD PTR [esp+4], 0
	mov	DWORD PTR [esp], eax
	call	_gtk_window_set_resizable
LVL1051:
	.loc 1 1792 0
	mov	DWORD PTR [esp+4], esi
	mov	eax, DWORD PTR [ebx+276]
	mov	DWORD PTR [esp], eax
	call	_g_type_check_instance_cast
LVL1052:
	mov	DWORD PTR [esp+4], 9
	mov	DWORD PTR [esp], eax
	call	_gtk_window_set_type_hint
LVL1053:
	.loc 1 1795 0
	mov	eax, DWORD PTR [esp+60]
	mov	DWORD PTR [esp+4], eax
	mov	DWORD PTR [esp], ebx
	call	_g_type_check_instance_cast
LVL1054:
	.loc 1 1794 0
	mov	DWORD PTR [esp], eax
	call	_gtk_widget_get_screen
LVL1055:
	mov	edx, eax
	mov	DWORD PTR [esp+4], esi
	mov	eax, DWORD PTR [ebx+276]
	mov	DWORD PTR [esp], eax
	mov	DWORD PTR [esp+56], edx
	call	_g_type_check_instance_cast
LVL1056:
	mov	edx, DWORD PTR [esp+56]
	mov	DWORD PTR [esp+4], edx
	mov	DWORD PTR [esp], eax
	call	_gtk_window_set_screen
LVL1057:
	.loc 1 1796 0
	mov	DWORD PTR [esp], 0
	call	_gtk_frame_new
LVL1058:
	mov	esi, eax
LVL1059:
	mov	DWORD PTR [ebx+280], eax
	.loc 1 1797 0
	call	_gtk_frame_get_type
LVL1060:
	mov	DWORD PTR [esp+4], eax
	mov	DWORD PTR [esp], esi
	call	_g_type_check_instance_cast
LVL1061:
	mov	DWORD PTR [esp+4], 3
	mov	DWORD PTR [esp], eax
	call	_gtk_frame_set_shadow_type
LVL1062:
	.loc 1 1799 0
	mov	esi, DWORD PTR [ebx+280]
	mov	DWORD PTR [esp+4], edi
	mov	eax, DWORD PTR [ebx+276]
	mov	DWORD PTR [esp], eax
	call	_g_type_check_instance_cast
LVL1063:
	mov	DWORD PTR [esp+4], esi
	mov	DWORD PTR [esp], eax
	call	_gtk_container_add
LVL1064:
	.loc 1 1802 0
	mov	eax, DWORD PTR [ebx+280]
	mov	DWORD PTR [esp], eax
	call	_gtk_widget_show
LVL1065:
	.loc 1 1804 0
	call	_gtk_tree_view_new
LVL1066:
	mov	DWORD PTR [ebx+296], eax
	.loc 1 1805 0
	mov	DWORD PTR [esp+56], eax
	call	_gtk_tree_view_get_type
LVL1067:
	mov	esi, eax
	mov	DWORD PTR [esp+4], eax
	mov	edx, DWORD PTR [esp+56]
	mov	DWORD PTR [esp], edx
	call	_g_type_check_instance_cast
LVL1068:
	mov	DWORD PTR [esp], eax
	call	_gtk_tree_view_get_selection
LVL1069:
	.loc 1 1806 0
	mov	DWORD PTR [esp+4], 2
	mov	DWORD PTR [esp], eax
	call	_gtk_tree_selection_set_mode
LVL1070:
	.loc 1 1807 0
	mov	DWORD PTR [esp+4], esi
	mov	eax, DWORD PTR [ebx+296]
	mov	DWORD PTR [esp], eax
	call	_g_type_check_instance_cast
LVL1071:
	mov	DWORD PTR [esp+4], 0
	mov	DWORD PTR [esp], eax
	call	_gtk_tree_view_set_headers_visible
LVL1072:
	.loc 1 1809 0
	mov	DWORD PTR [esp+4], esi
	mov	eax, DWORD PTR [ebx+296]
	mov	DWORD PTR [esp], eax
	call	_g_type_check_instance_cast
LVL1073:
	mov	DWORD PTR [esp+4], 1
	mov	DWORD PTR [esp], eax
	call	_gtk_tree_view_set_hover_selection
LVL1074:
	.loc 1 1812 0
	mov	eax, DWORD PTR [esp+68]
	mov	DWORD PTR [esp+4], eax
	mov	eax, DWORD PTR [ebx+72]
	mov	DWORD PTR [esp], eax
	call	_g_type_check_instance_cast
LVL1075:
	mov	edx, eax
	.loc 1 1811 0
	mov	DWORD PTR [esp+4], esi
	mov	eax, DWORD PTR [ebx+296]
	mov	DWORD PTR [esp], eax
	mov	DWORD PTR [esp+56], edx
	call	_g_type_check_instance_cast
LVL1076:
	mov	edx, DWORD PTR [esp+56]
	mov	DWORD PTR [esp+4], edx
	mov	DWORD PTR [esp], eax
	call	_gtk_tree_view_set_model
LVL1077:
	.loc 1 1813 0
	call	_gtk_tree_view_column_new
LVL1078:
	mov	edx, eax
	mov	DWORD PTR [ebx+292], eax
	.loc 1 1814 0
	mov	DWORD PTR [esp+4], esi
	mov	eax, DWORD PTR [ebx+296]
	mov	DWORD PTR [esp], eax
	mov	DWORD PTR [esp+56], edx
	call	_g_type_check_instance_cast
LVL1079:
	mov	edx, DWORD PTR [esp+56]
	mov	DWORD PTR [esp+4], edx
	mov	DWORD PTR [esp], eax
	call	_gtk_tree_view_append_column
LVL1080:
	.loc 1 1816 0
	mov	DWORD PTR [esp+8], 0
	mov	eax, DWORD PTR [esp+72]
	mov	DWORD PTR [esp+4], eax
	mov	eax, DWORD PTR [ebx+292]
	mov	DWORD PTR [esp], eax
	call	_gtk_tree_view_column_pack_start
LVL1081:
	.loc 1 1817 0
	mov	DWORD PTR [esp+8], 1
	mov	DWORD PTR [esp+4], ebp
	mov	eax, DWORD PTR [ebx+292]
	mov	DWORD PTR [esp], eax
	call	_gtk_tree_view_column_pack_start
LVL1082:
	.loc 1 1818 0
	mov	DWORD PTR [esp+8], 0
	mov	eax, DWORD PTR [esp+76]
	mov	DWORD PTR [esp+4], eax
	mov	eax, DWORD PTR [ebx+292]
	mov	DWORD PTR [esp], eax
	call	_gtk_tree_view_column_pack_start
LVL1083:
	.loc 1 1819 0
	mov	DWORD PTR [esp+16], 0
	mov	DWORD PTR [esp+12], 1
	mov	DWORD PTR [esp+8], OFFSET FLAT:LC52
	mov	eax, DWORD PTR [esp+72]
	mov	DWORD PTR [esp+4], eax
	mov	eax, DWORD PTR [ebx+292]
	mov	DWORD PTR [esp], eax
	call	_gtk_tree_view_column_set_attributes
LVL1084:
	.loc 1 1820 0
	mov	DWORD PTR [esp+16], 0
	mov	DWORD PTR [esp+12], 3
	mov	DWORD PTR [esp+8], OFFSET FLAT:LC53
	mov	DWORD PTR [esp+4], ebp
	mov	eax, DWORD PTR [ebx+292]
	mov	DWORD PTR [esp], eax
	call	_gtk_tree_view_column_set_attributes
LVL1085:
	.loc 1 1821 0
	mov	DWORD PTR [esp+24], 0
	mov	DWORD PTR [esp+20], 8
	mov	DWORD PTR [esp+16], OFFSET FLAT:LC54
	mov	DWORD PTR [esp+12], 7
	mov	DWORD PTR [esp+8], OFFSET FLAT:LC52
	mov	eax, DWORD PTR [esp+76]
	mov	DWORD PTR [esp+4], eax
	mov	eax, DWORD PTR [ebx+292]
	mov	DWORD PTR [esp], eax
	call	_gtk_tree_view_column_set_attributes
LVL1086:
	.loc 1 1823 0
	mov	DWORD PTR [esp+20], -1
	mov	DWORD PTR [esp+16], -1
	mov	DWORD PTR [esp+12], 0
	mov	DWORD PTR [esp+8], 2
	mov	DWORD PTR [esp+4], 2
	mov	eax, DWORD PTR [ebx+296]
	mov	DWORD PTR [esp], eax
	call	_pidgin_make_scrollable
LVL1087:
	mov	edx, eax
	mov	DWORD PTR [ebx+284], eax
	.loc 1 1824 0
	mov	DWORD PTR [esp+4], edi
	mov	eax, DWORD PTR [ebx+280]
	mov	DWORD PTR [esp], eax
	mov	DWORD PTR [esp+56], edx
	call	_g_type_check_instance_cast
LVL1088:
	mov	edx, DWORD PTR [esp+56]
	mov	DWORD PTR [esp+4], edx
	mov	DWORD PTR [esp], eax
	call	_gtk_container_add
LVL1089:
	.loc 1 1827 0
	mov	eax, DWORD PTR [ebx+296]
	mov	DWORD PTR [esp], eax
	call	_gtk_widget_show
LVL1090:
	.loc 1 1828 0
	mov	DWORD PTR [esp+4], esi
	mov	eax, DWORD PTR [ebx+296]
	mov	DWORD PTR [esp], eax
	call	_g_type_check_instance_cast
LVL1091:
	mov	DWORD PTR [esp+4], 3
	mov	DWORD PTR [esp], eax
	call	_gtk_tree_view_set_search_column
LVL1092:
	.loc 1 1829 0
	mov	DWORD PTR [esp+4], esi
	mov	eax, DWORD PTR [ebx+296]
	mov	DWORD PTR [esp], eax
	call	_g_type_check_instance_cast
LVL1093:
	mov	DWORD PTR [esp+12], 0
	mov	DWORD PTR [esp+8], 0
	mov	DWORD PTR [esp+4], OFFSET FLAT:_pidgin_tree_view_search_equal_func
	mov	DWORD PTR [esp], eax
	call	_gtk_tree_view_set_search_equal_func
LVL1094:
	.loc 1 1832 0
	mov	DWORD PTR [esp+12], 0
	mov	DWORD PTR [esp+8], 3
	mov	DWORD PTR [esp+4], OFFSET FLAT:LC55
	mov	DWORD PTR [esp], ebp
	call	_g_object_set
LVL1095:
	.loc 1 1834 0
	call	_gtk_cell_renderer_pixbuf_new
LVL1096:
	mov	DWORD PTR [ebx+148], eax
	.loc 1 1835 0
	call	_gtk_cell_renderer_text_new
LVL1097:
	mov	DWORD PTR [ebx+152], eax
	.loc 1 1836 0
	call	_gtk_cell_renderer_pixbuf_new
LVL1098:
	mov	ebp, eax
LVL1099:
	.loc 1 1837 0
	mov	edx, DWORD PTR [ebx+148]
	mov	DWORD PTR [esp+56], edx
	call	_gtk_cell_layout_get_type
LVL1100:
	mov	edi, eax
	mov	DWORD PTR [esp+4], eax
	mov	eax, DWORD PTR [ebx+144]
	mov	DWORD PTR [esp], eax
	call	_g_type_check_instance_cast
LVL1101:
	mov	DWORD PTR [esp+8], 0
	mov	edx, DWORD PTR [esp+56]
	mov	DWORD PTR [esp+4], edx
	mov	DWORD PTR [esp], eax
	call	_gtk_cell_layout_pack_start
LVL1102:
	.loc 1 1838 0
	mov	edx, DWORD PTR [ebx+152]
	mov	DWORD PTR [esp+4], edi
	mov	eax, DWORD PTR [ebx+144]
	mov	DWORD PTR [esp], eax
	mov	DWORD PTR [esp+56], edx
	call	_g_type_check_instance_cast
LVL1103:
	mov	DWORD PTR [esp+8], 1
	mov	edx, DWORD PTR [esp+56]
	mov	DWORD PTR [esp+4], edx
	mov	DWORD PTR [esp], eax
	call	_gtk_cell_layout_pack_start
LVL1104:
	.loc 1 1839 0
	mov	DWORD PTR [esp+4], edi
	mov	eax, DWORD PTR [ebx+144]
	mov	DWORD PTR [esp], eax
	call	_g_type_check_instance_cast
LVL1105:
	mov	DWORD PTR [esp+8], 0
	mov	DWORD PTR [esp+4], ebp
	mov	DWORD PTR [esp], eax
	call	_gtk_cell_layout_pack_start
LVL1106:
	.loc 1 1840 0
	mov	edx, DWORD PTR [ebx+148]
	mov	DWORD PTR [esp+4], edi
	mov	eax, DWORD PTR [ebx+144]
	mov	DWORD PTR [esp], eax
	mov	DWORD PTR [esp+56], edx
	call	_g_type_check_instance_cast
LVL1107:
	mov	DWORD PTR [esp+16], 0
	mov	DWORD PTR [esp+12], 1
	mov	DWORD PTR [esp+8], OFFSET FLAT:LC52
	mov	edx, DWORD PTR [esp+56]
	mov	DWORD PTR [esp+4], edx
	mov	DWORD PTR [esp], eax
	call	_gtk_cell_layout_set_attributes
LVL1108:
	.loc 1 1841 0
	mov	edx, DWORD PTR [ebx+152]
	mov	DWORD PTR [esp+4], edi
	mov	eax, DWORD PTR [ebx+144]
	mov	DWORD PTR [esp], eax
	mov	DWORD PTR [esp+56], edx
	call	_g_type_check_instance_cast
LVL1109:
	mov	DWORD PTR [esp+16], 0
	mov	DWORD PTR [esp+12], 3
	mov	DWORD PTR [esp+8], OFFSET FLAT:LC53
	mov	edx, DWORD PTR [esp+56]
	mov	DWORD PTR [esp+4], edx
	mov	DWORD PTR [esp], eax
	call	_gtk_cell_layout_set_attributes
LVL1110:
	.loc 1 1842 0
	mov	DWORD PTR [esp+4], edi
	mov	eax, DWORD PTR [ebx+144]
	mov	DWORD PTR [esp], eax
	call	_g_type_check_instance_cast
LVL1111:
	mov	DWORD PTR [esp+24], 0
	mov	DWORD PTR [esp+20], 8
	mov	DWORD PTR [esp+16], OFFSET FLAT:LC54
	mov	DWORD PTR [esp+12], 7
	mov	DWORD PTR [esp+8], OFFSET FLAT:LC56
	mov	DWORD PTR [esp+4], ebp
	mov	DWORD PTR [esp], eax
	call	_gtk_cell_layout_set_attributes
LVL1112:
	.loc 1 1843 0
	mov	DWORD PTR [esp+12], 0
	mov	DWORD PTR [esp+8], 3
	mov	DWORD PTR [esp+4], OFFSET FLAT:LC55
	mov	eax, DWORD PTR [ebx+152]
	mov	DWORD PTR [esp], eax
	call	_g_object_set
LVL1113:
	.loc 1 1845 0
	mov	DWORD PTR [esp+4], 0
	mov	DWORD PTR [esp], 0
	call	_gtk_vbox_new
LVL1114:
	mov	DWORD PTR [ebx+84], eax
	.loc 1 1846 0
	mov	DWORD PTR [esp+12], 0
	mov	DWORD PTR [esp+8], 0
	lea	eax, [ebx+92]
	mov	DWORD PTR [esp+4], eax
	mov	DWORD PTR [esp], 0
	call	_pidgin_create_imhtml
LVL1115:
	mov	DWORD PTR [ebx+88], eax
	.loc 1 1847 0
	call	_gtk_imhtml_get_type
LVL1116:
	mov	DWORD PTR [esp+4], eax
	mov	eax, DWORD PTR [ebx+92]
	mov	DWORD PTR [esp], eax
	call	_g_type_check_instance_cast
LVL1117:
	mov	DWORD PTR [esp+4], 1
	mov	DWORD PTR [esp], eax
	call	_gtk_imhtml_set_editable
LVL1118:
	.loc 1 1849 0
	call	_gtk_text_view_get_type
LVL1119:
	mov	edi, eax
	mov	DWORD PTR [esp+4], eax
	mov	eax, DWORD PTR [ebx+92]
	mov	DWORD PTR [esp], eax
	call	_g_type_check_instance_cast
LVL1120:
	mov	DWORD PTR [esp], eax
	call	_gtk_text_view_get_buffer
LVL1121:
	mov	ebp, eax
LVL1122:
	.loc 1 1856 0
	mov	DWORD PTR [esp+4], 80
	mov	eax, DWORD PTR [ebx+264]
LVL1123:
	mov	DWORD PTR [esp], eax
	call	_g_type_check_instance_cast
LVL1124:
	mov	DWORD PTR [esp+20], 0
	mov	DWORD PTR [esp+16], 0
	mov	DWORD PTR [esp+12], ebx
	mov	DWORD PTR [esp+8], OFFSET FLAT:_toggle_key_press_cb
	mov	DWORD PTR [esp+4], OFFSET FLAT:LC57
	mov	DWORD PTR [esp], eax
	call	_g_signal_connect_data
LVL1125:
	.loc 1 1858 0
	mov	DWORD PTR [esp+4], 80
	mov	eax, DWORD PTR [ebx+264]
	mov	DWORD PTR [esp], eax
	call	_g_type_check_instance_cast
LVL1126:
	mov	DWORD PTR [esp+20], 0
	mov	DWORD PTR [esp+16], 0
	mov	DWORD PTR [esp+12], ebx
	mov	DWORD PTR [esp+8], OFFSET FLAT:_toggled_cb
	mov	DWORD PTR [esp+4], OFFSET FLAT:LC58
	mov	DWORD PTR [esp], eax
	call	_g_signal_connect_data
LVL1127:
	.loc 1 1860 0
	mov	DWORD PTR [esp+4], 80
	mov	DWORD PTR [esp], ebp
	call	_g_type_check_instance_cast
LVL1128:
	mov	DWORD PTR [esp+20], 0
	mov	DWORD PTR [esp+16], 0
	mov	DWORD PTR [esp+12], ebx
	mov	DWORD PTR [esp+8], OFFSET FLAT:_imhtml_changed_cb
	mov	DWORD PTR [esp+4], OFFSET FLAT:LC59
	mov	DWORD PTR [esp], eax
	call	_g_signal_connect_data
LVL1129:
	.loc 1 1861 0
	mov	DWORD PTR [esp+4], 80
	mov	eax, DWORD PTR [ebx+92]
	mov	DWORD PTR [esp], eax
	call	_g_type_check_instance_cast
LVL1130:
	mov	DWORD PTR [esp+20], 0
	mov	DWORD PTR [esp+16], 0
	mov	DWORD PTR [esp+12], ebx
	mov	DWORD PTR [esp+8], OFFSET FLAT:_imhtml_format_changed_cb
	mov	DWORD PTR [esp+4], OFFSET FLAT:LC60
	mov	DWORD PTR [esp], eax
	call	_g_signal_connect_data
LVL1131:
	.loc 1 1863 0
	mov	DWORD PTR [esp+4], 80
	mov	eax, DWORD PTR [ebx+92]
	mov	DWORD PTR [esp], eax
	call	_g_type_check_instance_cast
LVL1132:
	mov	DWORD PTR [esp+20], 2
	mov	DWORD PTR [esp+16], 0
	mov	DWORD PTR [esp+12], ebx
	mov	DWORD PTR [esp+8], OFFSET FLAT:_imhtml_cursor_moved_cb
	mov	DWORD PTR [esp+4], OFFSET FLAT:LC61
	mov	DWORD PTR [esp], eax
	call	_g_signal_connect_data
LVL1133:
	.loc 1 1865 0
	mov	DWORD PTR [esp+4], 80
	mov	eax, DWORD PTR [ebx+92]
	mov	DWORD PTR [esp], eax
	call	_g_type_check_instance_cast
LVL1134:
	mov	DWORD PTR [esp+20], 0
	mov	DWORD PTR [esp+16], 0
	mov	DWORD PTR [esp+12], ebx
	mov	DWORD PTR [esp+8], OFFSET FLAT:_imhtml_remove_focus
	mov	DWORD PTR [esp+4], OFFSET FLAT:LC62
	mov	DWORD PTR [esp], eax
	call	_g_signal_connect_data
LVL1135:
	.loc 1 1867 0
	mov	DWORD PTR [esp+4], 80
	mov	eax, DWORD PTR [ebx+92]
	mov	DWORD PTR [esp], eax
	call	_g_type_check_instance_cast
LVL1136:
	mov	DWORD PTR [esp+20], 2
	mov	DWORD PTR [esp+16], 0
	mov	DWORD PTR [esp+12], ebx
	mov	DWORD PTR [esp+8], OFFSET FLAT:_remove_typing_cb
	mov	DWORD PTR [esp+4], OFFSET FLAT:LC63
	mov	DWORD PTR [esp], eax
	call	_g_signal_connect_data
LVL1137:
	.loc 1 1870 0
	mov	DWORD PTR [esp], OFFSET FLAT:LC64
	call	_purple_prefs_get_bool
LVL1138:
	test	eax, eax
	je	L697
	.loc 1 1871 0
	mov	DWORD PTR [esp+4], edi
	mov	eax, DWORD PTR [ebx+92]
	mov	DWORD PTR [esp], eax
	call	_g_type_check_instance_cast
LVL1139:
	mov	DWORD PTR [esp], eax
	call	_pidgin_setup_gtkspell
LVL1140:
L697:
	.loc 1 1873 0
	mov	eax, DWORD PTR [esp+60]
	mov	DWORD PTR [esp+4], eax
	mov	DWORD PTR [esp], ebx
	call	_g_type_check_instance_cast
LVL1141:
	mov	DWORD PTR [esp+4], eax
	mov	eax, DWORD PTR [ebx+84]
	mov	DWORD PTR [esp], eax
	call	_gtk_widget_set_parent
LVL1142:
	.loc 1 1874 0
	mov	eax, DWORD PTR [ebx+84]
	mov	DWORD PTR [esp], eax
	call	_gtk_widget_show_all
LVL1143:
	.loc 1 1876 0
	mov	eax, DWORD PTR [esp+60]
	mov	DWORD PTR [esp+4], eax
	mov	DWORD PTR [esp], ebx
	call	_g_type_check_instance_cast
LVL1144:
	mov	DWORD PTR [esp+4], eax
	mov	eax, DWORD PTR [ebx+264]
	mov	DWORD PTR [esp], eax
	call	_gtk_widget_set_parent
LVL1145:
	.loc 1 1878 0
	mov	edi, DWORD PTR [ebx+88]
	mov	eax, DWORD PTR [esp+64]
	mov	DWORD PTR [esp+4], eax
	mov	eax, DWORD PTR [ebx+84]
	mov	DWORD PTR [esp], eax
	call	_g_type_check_instance_cast
LVL1146:
	mov	DWORD PTR [esp+16], 0
	mov	DWORD PTR [esp+12], 1
	mov	DWORD PTR [esp+8], 1
	mov	DWORD PTR [esp+4], edi
	mov	DWORD PTR [esp], eax
	call	_gtk_box_pack_start
LVL1147:
	.loc 1 1880 0
	mov	DWORD PTR [esp+4], 80
	mov	DWORD PTR [esp], ebx
	call	_g_type_check_instance_cast
LVL1148:
	mov	DWORD PTR [esp+20], 0
	mov	DWORD PTR [esp+16], 0
	mov	DWORD PTR [esp+12], 0
	mov	DWORD PTR [esp+8], OFFSET FLAT:_combo_box_scroll_event_cb
	mov	DWORD PTR [esp+4], OFFSET FLAT:LC65
	mov	DWORD PTR [esp], eax
	call	_g_signal_connect_data
LVL1149:
	.loc 1 1881 0
	mov	edi, DWORD PTR [ebx+92]
	mov	DWORD PTR [esp+4], 80
	mov	DWORD PTR [esp], edi
	call	_g_type_check_instance_cast
LVL1150:
	mov	DWORD PTR [esp+20], 0
	mov	DWORD PTR [esp+16], 0
	mov	DWORD PTR [esp+12], edi
	mov	DWORD PTR [esp+8], OFFSET FLAT:_imhtml_scroll_event_cb
	mov	DWORD PTR [esp+4], OFFSET FLAT:LC65
	mov	DWORD PTR [esp], eax
	call	_g_signal_connect_data
LVL1151:
	.loc 1 1883 0
	mov	DWORD PTR [esp+4], 80
	mov	eax, DWORD PTR [ebx+276]
	mov	DWORD PTR [esp], eax
	call	_g_type_check_instance_cast
LVL1152:
	mov	DWORD PTR [esp+20], 0
	mov	DWORD PTR [esp+16], 0
	mov	DWORD PTR [esp+12], ebx
	mov	DWORD PTR [esp+8], OFFSET FLAT:_treeview_button_release_cb
	mov	DWORD PTR [esp+4], OFFSET FLAT:LC66
	mov	DWORD PTR [esp], eax
	call	_g_signal_connect_data
LVL1153:
	.loc 1 1884 0
	mov	DWORD PTR [esp+4], 80
	mov	eax, DWORD PTR [ebx+276]
	mov	DWORD PTR [esp], eax
	call	_g_type_check_instance_cast
LVL1154:
	mov	DWORD PTR [esp+20], 0
	mov	DWORD PTR [esp+16], 0
	mov	DWORD PTR [esp+12], ebx
	mov	DWORD PTR [esp+8], OFFSET FLAT:_treeview_key_press_event
	mov	DWORD PTR [esp+4], OFFSET FLAT:LC62
	mov	DWORD PTR [esp], eax
	call	_g_signal_connect_data
LVL1155:
	.loc 1 1885 0
	mov	edi, DWORD PTR [ebx+72]
	mov	DWORD PTR [esp+4], 80
	mov	eax, DWORD PTR [ebx+296]
	mov	DWORD PTR [esp], eax
	call	_g_type_check_instance_cast
LVL1156:
	mov	DWORD PTR [esp+20], 0
	mov	DWORD PTR [esp+16], 0
	mov	DWORD PTR [esp+12], edi
	mov	DWORD PTR [esp+8], OFFSET FLAT:_treeview_cursor_changed_cb
	mov	DWORD PTR [esp+4], OFFSET FLAT:LC67
	mov	DWORD PTR [esp], eax
	call	_g_signal_connect_data
LVL1157:
	.loc 1 1888 0
	mov	DWORD PTR [esp+4], esi
	mov	eax, DWORD PTR [ebx+296]
	mov	DWORD PTR [esp], eax
	call	_g_type_check_instance_cast
LVL1158:
	mov	DWORD PTR [esp+12], 0
	mov	DWORD PTR [esp+8], 0
	mov	DWORD PTR [esp+4], OFFSET FLAT:_dropdown_store_row_separator_func
	mov	DWORD PTR [esp], eax
	call	_gtk_tree_view_set_row_separator_func
LVL1159:
	.loc 1 1890 0
	call	_check_active_accounts_for_identical_statuses
LVL1160:
	mov	DWORD PTR [ebx+80], eax
LVL1161:
LBB167:
LBB168:
	.loc 1 1194 0
	mov	DWORD PTR [esp+4], 80
	mov	eax, DWORD PTR [ebx+148]
	mov	DWORD PTR [esp], eax
	call	_g_type_check_instance_cast
LVL1162:
	mov	DWORD PTR [esp+12], 0
	mov	DWORD PTR [esp+8], 3
	mov	DWORD PTR [esp+4], OFFSET FLAT:LC68
	mov	DWORD PTR [esp], eax
	call	_g_object_set
LVL1163:
	.loc 1 1195 0
	mov	DWORD PTR [esp], OFFSET FLAT:LC69
	call	_gtk_icon_size_from_name
LVL1164:
	mov	edi, eax
LVL1165:
	.loc 1 1197 0
	xor	esi, esi
	jmp	L701
LVL1166:
	.p2align 2,,3
L729:
	.loc 1 1201 0
	mov	eax, DWORD PTR [esp+60]
	mov	DWORD PTR [esp+4], eax
	mov	eax, DWORD PTR [ebx+84]
	mov	DWORD PTR [esp], eax
	call	_g_type_check_instance_cast
LVL1167:
	mov	DWORD PTR [esp+12], OFFSET FLAT:LC33
	mov	DWORD PTR [esp+8], edi
	mov	DWORD PTR [esp+4], ebp
	mov	DWORD PTR [esp], eax
	call	_gtk_widget_render_icon
LVL1168:
	mov	DWORD PTR [ebx+164+esi*4], eax
	.loc 1 1197 0
	inc	esi
LVL1169:
	cmp	esi, 9
	je	L728
LVL1170:
L701:
	.loc 1 1198 0
	mov	eax, DWORD PTR [ebx+164+esi*4]
	test	eax, eax
	je	L698
	.loc 1 1199 0
	mov	DWORD PTR [esp+4], 80
	mov	DWORD PTR [esp], eax
	call	_g_type_check_instance_cast
LVL1171:
	mov	DWORD PTR [esp], eax
	call	_g_object_unref
LVL1172:
L698:
	.loc 1 1200 0
	mov	ebp, DWORD PTR _connecting_stock_ids[0+esi*4]
	test	ebp, ebp
	jne	L729
	.loc 1 1204 0
	mov	DWORD PTR [ebx+164+esi*4], 0
	.loc 1 1197 0
	inc	esi
LVL1173:
	cmp	esi, 9
	jne	L701
L728:
	.loc 1 1206 0
	mov	DWORD PTR [ebx+160], 0
LVL1174:
	.loc 1 1209 0
	xor	si, si
	jmp	L705
LVL1175:
	.p2align 2,,3
L731:
	.loc 1 1213 0
	mov	eax, DWORD PTR [esp+60]
	mov	DWORD PTR [esp+4], eax
	mov	eax, DWORD PTR [ebx+84]
	mov	DWORD PTR [esp], eax
	call	_g_type_check_instance_cast
LVL1176:
	mov	DWORD PTR [esp+12], OFFSET FLAT:LC33
	mov	DWORD PTR [esp+8], edi
	mov	DWORD PTR [esp+4], ebp
	mov	DWORD PTR [esp], eax
	call	_gtk_widget_render_icon
LVL1177:
	mov	DWORD PTR [ebx+204+esi*4], eax
	.loc 1 1209 0
	inc	esi
LVL1178:
	cmp	esi, 6
	je	L730
LVL1179:
L705:
	.loc 1 1210 0
	mov	eax, DWORD PTR [ebx+204+esi*4]
	test	eax, eax
	je	L702
	.loc 1 1211 0
	mov	DWORD PTR [esp+4], 80
	mov	DWORD PTR [esp], eax
	call	_g_type_check_instance_cast
LVL1180:
	mov	DWORD PTR [esp], eax
	call	_g_object_unref
LVL1181:
L702:
	.loc 1 1212 0
	mov	ebp, DWORD PTR _typing_stock_ids[0+esi*4]
	test	ebp, ebp
	jne	L731
	.loc 1 1216 0
	mov	DWORD PTR [ebx+204+esi*4], 0
	.loc 1 1209 0
	inc	esi
LVL1182:
	cmp	esi, 6
	jne	L705
L730:
	.loc 1 1218 0
	mov	DWORD PTR [ebx+200], 0
LBE168:
LBE167:
	.loc 1 1893 0
	mov	edx, 1
	mov	eax, ebx
	call	_pidgin_status_box_regenerate
LVL1183:
	.loc 1 1895 0
	call	_purple_savedstatuses_get_handle
LVL1184:
	mov	DWORD PTR [esp+16], ebx
	mov	DWORD PTR [esp+12], OFFSET FLAT:_current_savedstatus_changed_cb
	mov	DWORD PTR [esp+8], ebx
	mov	DWORD PTR [esp+4], OFFSET FLAT:LC70
	mov	DWORD PTR [esp], eax
	call	_purple_signal_connect
LVL1185:
	.loc 1 1899 0
	call	_purple_savedstatuses_get_handle
LVL1186:
	mov	DWORD PTR [esp+16], ebx
	mov	DWORD PTR [esp+12], OFFSET FLAT:_saved_status_updated_cb
	mov	DWORD PTR [esp+8], ebx
	mov	DWORD PTR [esp+4], OFFSET FLAT:LC71
	mov	DWORD PTR [esp], eax
	call	_purple_signal_connect
LVL1187:
	.loc 1 1902 0
	call	_purple_savedstatuses_get_handle
LVL1188:
	mov	DWORD PTR [esp+16], ebx
	mov	DWORD PTR [esp+12], OFFSET FLAT:_saved_status_updated_cb
	mov	DWORD PTR [esp+8], ebx
	mov	DWORD PTR [esp+4], OFFSET FLAT:LC72
	mov	DWORD PTR [esp], eax
	call	_purple_signal_connect
LVL1189:
	.loc 1 1905 0
	call	_purple_savedstatuses_get_handle
LVL1190:
	mov	DWORD PTR [esp+16], ebx
	mov	DWORD PTR [esp+12], OFFSET FLAT:_saved_status_updated_cb
	mov	DWORD PTR [esp+8], ebx
	mov	DWORD PTR [esp+4], OFFSET FLAT:LC73
	mov	DWORD PTR [esp], eax
	call	_purple_signal_connect
LVL1191:
	.loc 1 1908 0
	call	_purple_accounts_get_handle
LVL1192:
	mov	DWORD PTR [esp+16], ebx
	mov	DWORD PTR [esp+12], OFFSET FLAT:_account_enabled_cb
	mov	DWORD PTR [esp+8], ebx
	mov	DWORD PTR [esp+4], OFFSET FLAT:LC74
	mov	DWORD PTR [esp], eax
	call	_purple_signal_connect
LVL1193:
	.loc 1 1911 0
	call	_purple_accounts_get_handle
LVL1194:
	mov	DWORD PTR [esp+16], ebx
	mov	DWORD PTR [esp+12], OFFSET FLAT:_account_enabled_cb
	mov	DWORD PTR [esp+8], ebx
	mov	DWORD PTR [esp+4], OFFSET FLAT:LC75
	mov	DWORD PTR [esp], eax
	call	_purple_signal_connect
LVL1195:
	.loc 1 1914 0
	call	_purple_accounts_get_handle
LVL1196:
	mov	DWORD PTR [esp+16], ebx
	mov	DWORD PTR [esp+12], OFFSET FLAT:_account_status_changed_cb
	mov	DWORD PTR [esp+8], ebx
	mov	DWORD PTR [esp+4], OFFSET FLAT:LC76
	mov	DWORD PTR [esp], eax
	call	_purple_signal_connect
LVL1197:
	.loc 1 1918 0
	mov	DWORD PTR [esp+12], ebx
	mov	DWORD PTR [esp+8], OFFSET FLAT:_spellcheck_prefs_cb
	mov	DWORD PTR [esp+4], OFFSET FLAT:LC64
	mov	DWORD PTR [esp], ebx
	call	_purple_prefs_connect_callback
LVL1198:
	.loc 1 1920 0
	mov	DWORD PTR [esp+12], ebx
	mov	DWORD PTR [esp+8], OFFSET FLAT:_update_buddyicon_cb
	mov	DWORD PTR [esp+4], OFFSET FLAT:LC26
	mov	DWORD PTR [esp], ebx
	call	_purple_prefs_connect_callback
LVL1199:
	.loc 1 1922 0
	call	_purple_get_core
LVL1200:
	mov	DWORD PTR [esp+16], ebx
	mov	DWORD PTR [esp+12], OFFSET FLAT:_statusbox_uri_handler
	mov	DWORD PTR [esp+8], ebx
	mov	DWORD PTR [esp+4], OFFSET FLAT:LC77
	mov	DWORD PTR [esp], eax
	call	_purple_signal_connect
LVL1201:
	.loc 1 1925 0
	mov	eax, DWORD PTR [esp+92]
	xor	eax, DWORD PTR ___stack_chk_guard
	jne	L732
	add	esp, 108
LCFI391:
	.cfi_remember_state
	.cfi_def_cfa_offset 20
	pop	ebx
LCFI392:
	.cfi_restore 3
	.cfi_def_cfa_offset 16
LVL1202:
	pop	esi
LCFI393:
	.cfi_restore 6
	.cfi_def_cfa_offset 12
LVL1203:
	pop	edi
LCFI394:
	.cfi_restore 7
	.cfi_def_cfa_offset 8
LVL1204:
	pop	ebp
LCFI395:
	.cfi_restore 5
	.cfi_def_cfa_offset 4
	ret
LVL1205:
	.p2align 2,,3
L695:
LCFI396:
	.cfi_restore_state
	.loc 1 1788 0
	mov	DWORD PTR [esp+4], esi
	mov	DWORD PTR [esp], edx
	call	_g_type_check_instance_cast
LVL1206:
	mov	edx, eax
	.loc 1 1787 0
	mov	DWORD PTR [esp+4], esi
	mov	eax, DWORD PTR [ebx+276]
	mov	DWORD PTR [esp], eax
	mov	DWORD PTR [esp+56], edx
	call	_g_type_check_instance_cast
LVL1207:
	mov	edx, DWORD PTR [esp+56]
	mov	DWORD PTR [esp+4], edx
	mov	DWORD PTR [esp], eax
	call	_gtk_window_set_transient_for
LVL1208:
	jmp	L696
LVL1209:
L732:
	.loc 1 1925 0
	call	___stack_chk_fail
LVL1210:
	.cfi_endproc
LFE143:
	.p2align 2,,3
	.def	_account_enabled_cb;	.scl	3;	.type	32;	.endef
_account_enabled_cb:
LFB121:
	.loc 1 1222 0
	.cfi_startproc
LVL1211:
	push	esi
LCFI397:
	.cfi_def_cfa_offset 8
	.cfi_offset 6, -8
	push	ebx
LCFI398:
	.cfi_def_cfa_offset 12
	.cfi_offset 3, -12
	sub	esp, 20
LCFI399:
	.cfi_def_cfa_offset 32
	mov	ebx, DWORD PTR [esp+36]
	.loc 1 1222 0
	mov	eax, DWORD PTR ___stack_chk_guard
	mov	DWORD PTR [esp+12], eax
	xor	eax, eax
	.loc 1 1223 0
	mov	esi, DWORD PTR [ebx+80]
LVL1212:
	.loc 1 1225 0
	mov	eax, DWORD PTR [ebx+76]
	test	eax, eax
	je	L741
L733:
	.loc 1 1235 0
	mov	eax, DWORD PTR [esp+12]
	xor	eax, DWORD PTR ___stack_chk_guard
	jne	L740
	add	esp, 20
LCFI400:
	.cfi_remember_state
	.cfi_def_cfa_offset 12
	pop	ebx
LCFI401:
	.cfi_restore 3
	.cfi_def_cfa_offset 8
	pop	esi
LCFI402:
	.cfi_restore 6
	.cfi_def_cfa_offset 4
LVL1213:
	ret
LVL1214:
	.p2align 2,,3
L741:
LCFI403:
	.cfi_restore_state
	.loc 1 1228 0
	call	_check_active_accounts_for_identical_statuses
LVL1215:
	mov	DWORD PTR [ebx+80], eax
	.loc 1 1231 0
	cmp	esi, eax
	je	L733
	.loc 1 1232 0
	mov	eax, DWORD PTR [esp+12]
	xor	eax, DWORD PTR ___stack_chk_guard
	jne	L740
	mov	edx, 1
	mov	eax, ebx
	.loc 1 1235 0
	add	esp, 20
LCFI404:
	.cfi_remember_state
	.cfi_def_cfa_offset 12
	pop	ebx
LCFI405:
	.cfi_restore 3
	.cfi_def_cfa_offset 8
	pop	esi
LCFI406:
	.cfi_restore 6
	.cfi_def_cfa_offset 4
LVL1216:
	.loc 1 1232 0
	jmp	_pidgin_status_box_regenerate
LVL1217:
L740:
LCFI407:
	.cfi_restore_state
	.loc 1 1235 0
	call	___stack_chk_fail
LVL1218:
	.cfi_endproc
LFE121:
	.p2align 2,,3
	.def	_saved_status_updated_cb;	.scl	3;	.type	32;	.endef
_saved_status_updated_cb:
LFB123:
	.loc 1 1246 0
	.cfi_startproc
LVL1219:
	push	esi
LCFI408:
	.cfi_def_cfa_offset 8
	.cfi_offset 6, -8
	push	ebx
LCFI409:
	.cfi_def_cfa_offset 12
	.cfi_offset 3, -12
	sub	esp, 20
LCFI410:
	.cfi_def_cfa_offset 32
	mov	esi, DWORD PTR [esp+32]
	mov	ebx, DWORD PTR [esp+36]
	.loc 1 1246 0
	mov	eax, DWORD PTR ___stack_chk_guard
	mov	DWORD PTR [esp+12], eax
	xor	eax, eax
	.loc 1 1248 0
	call	_purple_savedstatus_get_current
LVL1220:
	.loc 1 1247 0
	mov	edx, DWORD PTR [esp+12]
	xor	edx, DWORD PTR ___stack_chk_guard
	jne	L746
	xor	edx, edx
	cmp	eax, esi
	sete	dl
	mov	eax, ebx
	.loc 1 1249 0
	add	esp, 20
LCFI411:
	.cfi_remember_state
	.cfi_def_cfa_offset 12
	pop	ebx
LCFI412:
	.cfi_restore 3
	.cfi_def_cfa_offset 8
	pop	esi
LCFI413:
	.cfi_restore 6
	.cfi_def_cfa_offset 4
	.loc 1 1247 0
	jmp	_pidgin_status_box_regenerate
LVL1221:
L746:
LCFI414:
	.cfi_restore_state
	call	___stack_chk_fail
LVL1222:
	.cfi_endproc
LFE123:
	.p2align 2,,3
	.def	_current_savedstatus_changed_cb;	.scl	3;	.type	32;	.endef
_current_savedstatus_changed_cb:
LFB122:
	.loc 1 1239 0
	.cfi_startproc
LVL1223:
	sub	esp, 28
LCFI415:
	.cfi_def_cfa_offset 32
	mov	eax, DWORD PTR [esp+40]
	.loc 1 1239 0
	mov	edx, DWORD PTR ___stack_chk_guard
	mov	DWORD PTR [esp+12], edx
	xor	edx, edx
	.loc 1 1241 0
	mov	edx, DWORD PTR [esp+12]
	xor	edx, DWORD PTR ___stack_chk_guard
	jne	L751
	mov	edx, 1
	.loc 1 1242 0
	add	esp, 28
LCFI416:
	.cfi_remember_state
	.cfi_def_cfa_offset 4
	.loc 1 1241 0
	jmp	_pidgin_status_box_regenerate
LVL1224:
L751:
LCFI417:
	.cfi_restore_state
	call	___stack_chk_fail
LVL1225:
	.cfi_endproc
LFE122:
	.p2align 2,,3
	.globl	_pidgin_status_box_set_network_available
	.def	_pidgin_status_box_set_network_available;	.scl	2;	.type	32;	.endef
_pidgin_status_box_set_network_available:
LFB153:
	.loc 1 2182 0
	.cfi_startproc
LVL1226:
	sub	esp, 28
LCFI418:
	.cfi_def_cfa_offset 32
	mov	eax, DWORD PTR [esp+32]
	mov	edx, DWORD PTR [esp+36]
	.loc 1 2182 0
	mov	ecx, DWORD PTR ___stack_chk_guard
	mov	DWORD PTR [esp+12], ecx
	xor	ecx, ecx
	.loc 1 2183 0
	test	eax, eax
	je	L752
	.loc 1 2185 0
	mov	DWORD PTR [eax+228], edx
	.loc 1 2186 0
	mov	edx, DWORD PTR [esp+12]
	xor	edx, DWORD PTR ___stack_chk_guard
	jne	L757
	.loc 1 2187 0
	add	esp, 28
LCFI419:
	.cfi_remember_state
	.cfi_def_cfa_offset 4
	.loc 1 2186 0
	jmp	_pidgin_status_box_refresh
LVL1227:
	.p2align 2,,3
L752:
LCFI420:
	.cfi_restore_state
	.loc 1 2187 0
	mov	ecx, DWORD PTR [esp+12]
	xor	ecx, DWORD PTR ___stack_chk_guard
	jne	L757
	add	esp, 28
LCFI421:
	.cfi_remember_state
	.cfi_def_cfa_offset 4
	ret
L757:
LCFI422:
	.cfi_restore_state
	call	___stack_chk_fail
LVL1228:
	.cfi_endproc
LFE153:
	.p2align 2,,3
	.globl	_pidgin_status_box_set_connecting
	.def	_pidgin_status_box_set_connecting;	.scl	2;	.type	32;	.endef
_pidgin_status_box_set_connecting:
LFB154:
	.loc 1 2191 0
	.cfi_startproc
LVL1229:
	sub	esp, 28
LCFI423:
	.cfi_def_cfa_offset 32
	mov	eax, DWORD PTR [esp+32]
	mov	edx, DWORD PTR [esp+36]
	.loc 1 2191 0
	mov	ecx, DWORD PTR ___stack_chk_guard
	mov	DWORD PTR [esp+12], ecx
	xor	ecx, ecx
	.loc 1 2192 0
	test	eax, eax
	je	L758
	.loc 1 2194 0
	mov	DWORD PTR [eax+232], edx
	.loc 1 2195 0
	mov	edx, DWORD PTR [esp+12]
	xor	edx, DWORD PTR ___stack_chk_guard
	jne	L763
	.loc 1 2196 0
	add	esp, 28
LCFI424:
	.cfi_remember_state
	.cfi_def_cfa_offset 4
	.loc 1 2195 0
	jmp	_pidgin_status_box_refresh
LVL1230:
	.p2align 2,,3
L758:
LCFI425:
	.cfi_restore_state
	.loc 1 2196 0
	mov	ecx, DWORD PTR [esp+12]
	xor	ecx, DWORD PTR ___stack_chk_guard
	jne	L763
	add	esp, 28
LCFI426:
	.cfi_remember_state
	.cfi_def_cfa_offset 4
	ret
L763:
LCFI427:
	.cfi_restore_state
	call	___stack_chk_fail
LVL1231:
	.cfi_endproc
LFE154:
	.p2align 2,,3
	.globl	_pidgin_status_box_set_buddy_icon
	.def	_pidgin_status_box_set_buddy_icon;	.scl	2;	.type	32;	.endef
_pidgin_status_box_set_buddy_icon:
LFB157:
	.loc 1 2290 0
	.cfi_startproc
LVL1232:
	push	esi
LCFI428:
	.cfi_def_cfa_offset 8
	.cfi_offset 6, -8
	push	ebx
LCFI429:
	.cfi_def_cfa_offset 12
	.cfi_offset 3, -12
	sub	esp, 36
LCFI430:
	.cfi_def_cfa_offset 48
	mov	ebx, DWORD PTR [esp+48]
	mov	esi, DWORD PTR [esp+52]
	.loc 1 2290 0
	mov	eax, DWORD PTR ___stack_chk_guard
	mov	DWORD PTR [esp+28], eax
	xor	eax, eax
	.loc 1 2291 0
	mov	eax, DWORD PTR [ebx+96]
	mov	DWORD PTR [esp], eax
	call	_purple_imgstore_unref
LVL1233:
	.loc 1 2292 0
	mov	DWORD PTR [ebx+96], esi
	.loc 1 2293 0
	test	esi, esi
	je	L765
	.loc 1 2294 0
	mov	DWORD PTR [esp], esi
	call	_purple_imgstore_ref
LVL1234:
L765:
	.loc 1 2296 0
	mov	eax, DWORD PTR [esp+28]
	xor	eax, DWORD PTR ___stack_chk_guard
	jne	L772
	mov	eax, ebx
	.loc 1 2297 0
	add	esp, 36
LCFI431:
	.cfi_remember_state
	.cfi_def_cfa_offset 12
	pop	ebx
LCFI432:
	.cfi_restore 3
	.cfi_def_cfa_offset 8
	pop	esi
LCFI433:
	.cfi_restore 6
	.cfi_def_cfa_offset 4
	.loc 1 2296 0
	jmp	_pidgin_status_box_redisplay_buddy_icon
LVL1235:
L772:
LCFI434:
	.cfi_restore_state
	call	___stack_chk_fail
LVL1236:
	.cfi_endproc
LFE157:
	.section .rdata,"dr"
LC78:
	.ascii "use-global-buddyicon\0"
	.text
	.p2align 2,,3
	.def	_buddy_icon_set_cb;	.scl	3;	.type	32;	.endef
_buddy_icon_set_cb:
LFB131:
	.loc 1 1456 0
	.cfi_startproc
LVL1237:
	push	ebp
LCFI435:
	.cfi_def_cfa_offset 8
	.cfi_offset 5, -8
	push	edi
LCFI436:
	.cfi_def_cfa_offset 12
	.cfi_offset 7, -12
	push	esi
LCFI437:
	.cfi_def_cfa_offset 16
	.cfi_offset 6, -16
	push	ebx
LCFI438:
	.cfi_def_cfa_offset 20
	.cfi_offset 3, -20
	sub	esp, 60
LCFI439:
	.cfi_def_cfa_offset 80
	mov	ebp, eax
	mov	edi, edx
	.loc 1 1456 0
	mov	eax, DWORD PTR ___stack_chk_guard
	mov	DWORD PTR [esp+44], eax
	xor	eax, eax
LVL1238:
	.loc 1 1459 0
	mov	eax, DWORD PTR [edx+76]
	test	eax, eax
	je	L774
LBB169:
	.loc 1 1460 0
	mov	DWORD PTR [esp], eax
	call	_purple_account_get_protocol_id
LVL1239:
	mov	DWORD PTR [esp], eax
	call	_purple_find_prpl
LVL1240:
	.loc 1 1461 0
	test	eax, eax
	je	L775
LBB170:
	.loc 1 1462 0
	mov	edx, DWORD PTR [eax+16]
	mov	edx, DWORD PTR [edx+76]
LVL1241:
	.loc 1 1463 0
	test	edx, edx
	je	L775
	.loc 1 1463 0 is_stmt 0 discriminator 1
	mov	edx, DWORD PTR [edx+12]
LVL1242:
	test	edx, edx
	je	L775
LVL1243:
LBB171:
	.loc 1 1465 0 is_stmt 1
	mov	DWORD PTR [esp+40], 0
LVL1244:
	.loc 1 1466 0
	test	ebp, ebp
	je	L789
	.loc 1 1467 0
	lea	edx, [esp+40]
	mov	DWORD PTR [esp+8], edx
	mov	DWORD PTR [esp+4], ebp
	mov	DWORD PTR [esp], eax
	call	_pidgin_convert_buddy_icon
LVL1245:
	mov	edx, DWORD PTR [esp+40]
LVL1246:
L776:
	.loc 1 1468 0
	mov	DWORD PTR [esp+8], edx
	mov	DWORD PTR [esp+4], eax
	mov	eax, DWORD PTR [edi+76]
LVL1247:
	mov	DWORD PTR [esp], eax
	call	_purple_buddy_icons_set_account_icon
LVL1248:
	mov	ebx, eax
LVL1249:
	.loc 1 1469 0
	test	eax, eax
	je	L777
	.loc 1 1474 0
	mov	DWORD PTR [esp], eax
	call	_purple_imgstore_ref
LVL1250:
L777:
	.loc 1 1476 0
	mov	DWORD PTR [esp+4], ebp
	mov	eax, DWORD PTR [edi+76]
	mov	DWORD PTR [esp], eax
	call	_purple_account_set_buddy_icon_path
LVL1251:
	.loc 1 1478 0
	xor	eax, eax
	test	ebp, ebp
	setne	al
	mov	DWORD PTR [esp+8], eax
	mov	DWORD PTR [esp+4], OFFSET FLAT:LC78
	mov	eax, DWORD PTR [edi+76]
	mov	DWORD PTR [esp], eax
	call	_purple_account_set_bool
LVL1252:
L778:
LBE171:
LBE170:
LBE169:
	.loc 1 1506 0
	mov	DWORD PTR [esp+4], ebx
	mov	DWORD PTR [esp], edi
	call	_pidgin_status_box_set_buddy_icon
LVL1253:
	.loc 1 1507 0
	test	ebx, ebx
	je	L773
	.loc 1 1508 0
	mov	DWORD PTR [esp], ebx
	call	_purple_imgstore_unref
LVL1254:
L773:
	.loc 1 1509 0
	mov	eax, DWORD PTR [esp+44]
	xor	eax, DWORD PTR ___stack_chk_guard
	jne	L813
	add	esp, 60
LCFI440:
	.cfi_remember_state
	.cfi_def_cfa_offset 20
	pop	ebx
LCFI441:
	.cfi_restore 3
	.cfi_def_cfa_offset 16
	pop	esi
LCFI442:
	.cfi_restore 6
	.cfi_def_cfa_offset 12
	pop	edi
LCFI443:
	.cfi_restore 7
	.cfi_def_cfa_offset 8
	pop	ebp
LCFI444:
	.cfi_restore 5
	.cfi_def_cfa_offset 4
	ret
LVL1255:
	.p2align 2,,3
L775:
LCFI445:
	.cfi_restore_state
	.loc 1 1506 0
	mov	DWORD PTR [esp+4], 0
	mov	DWORD PTR [esp], edi
	call	_pidgin_status_box_set_buddy_icon
LVL1256:
	jmp	L773
LVL1257:
	.p2align 2,,3
L789:
LBB174:
LBB173:
LBB172:
	.loc 1 1466 0
	xor	edx, edx
	.loc 1 1464 0
	xor	eax, eax
LVL1258:
	jmp	L776
LVL1259:
	.p2align 2,,3
L774:
LBE172:
LBE173:
LBE174:
LBB175:
	.loc 1 1483 0
	call	_purple_accounts_get_all
LVL1260:
	mov	ebx, eax
LVL1261:
	test	eax, eax
	je	L786
	mov	DWORD PTR [esp+24], ebp
	mov	DWORD PTR [esp+28], edi
LVL1262:
	.p2align 2,,3
L803:
LBB176:
	.loc 1 1484 0
	mov	esi, DWORD PTR [ebx]
LVL1263:
	.loc 1 1485 0
	mov	DWORD PTR [esp], esi
	call	_purple_account_get_protocol_id
LVL1264:
	mov	DWORD PTR [esp], eax
	call	_purple_find_prpl
LVL1265:
	mov	edi, eax
LVL1266:
	.loc 1 1486 0
	test	eax, eax
	je	L782
LBB177:
	.loc 1 1487 0
	mov	eax, DWORD PTR [eax+16]
LVL1267:
	mov	ebp, DWORD PTR [eax+76]
LVL1268:
	.loc 1 1488 0
	test	ebp, ebp
	je	L782
	.loc 1 1489 0 discriminator 1
	mov	DWORD PTR [esp+8], 1
	mov	DWORD PTR [esp+4], OFFSET FLAT:LC78
	mov	DWORD PTR [esp], esi
	call	_purple_account_get_bool
LVL1269:
	.loc 1 1488 0 discriminator 1
	test	eax, eax
	je	L782
	.loc 1 1489 0
	mov	eax, DWORD PTR [ebp+12]
	test	eax, eax
	je	L782
LVL1270:
LBB178:
	.loc 1 1492 0
	mov	DWORD PTR [esp+40], 0
	.loc 1 1493 0
	mov	eax, DWORD PTR [esp+24]
	test	eax, eax
	je	L790
	.loc 1 1494 0
	lea	eax, [esp+40]
	mov	DWORD PTR [esp+8], eax
	mov	eax, DWORD PTR [esp+24]
	mov	DWORD PTR [esp+4], eax
	mov	DWORD PTR [esp], edi
	call	_pidgin_convert_buddy_icon
LVL1271:
	mov	edx, DWORD PTR [esp+40]
LVL1272:
L784:
	.loc 1 1495 0
	mov	DWORD PTR [esp+8], edx
	mov	DWORD PTR [esp+4], eax
	mov	DWORD PTR [esp], esi
	call	_purple_buddy_icons_set_account_icon
LVL1273:
	.loc 1 1496 0
	mov	eax, DWORD PTR [esp+24]
	mov	DWORD PTR [esp+4], eax
	mov	DWORD PTR [esp], esi
	call	_purple_account_set_buddy_icon_path
LVL1274:
L782:
LBE178:
LBE177:
LBE176:
	.loc 1 1483 0
	mov	ebx, DWORD PTR [ebx+4]
LVL1275:
	test	ebx, ebx
	jne	L803
	mov	ebp, DWORD PTR [esp+24]
	mov	edi, DWORD PTR [esp+28]
LVL1276:
L786:
	.loc 1 1502 0
	test	ebp, ebp
	je	L775
	.loc 1 1503 0
	mov	DWORD PTR [esp], ebp
	call	_purple_imgstore_new_from_file
LVL1277:
	mov	ebx, eax
LVL1278:
	jmp	L778
LVL1279:
	.p2align 2,,3
L790:
LBB181:
LBB180:
LBB179:
	.loc 1 1493 0
	xor	edx, edx
	.loc 1 1491 0
	xor	eax, eax
	jmp	L784
LVL1280:
L813:
LBE179:
LBE180:
LBE181:
LBE175:
	.loc 1 1509 0
	call	___stack_chk_fail
LVL1281:
	.cfi_endproc
LFE131:
	.p2align 2,,3
	.def	_icon_choose_cb;	.scl	3;	.type	32;	.endef
_icon_choose_cb:
LFB134:
	.loc 1 1537 0
	.cfi_startproc
LVL1282:
	push	ebx
LCFI446:
	.cfi_def_cfa_offset 8
	.cfi_offset 3, -8
	sub	esp, 40
LCFI447:
	.cfi_def_cfa_offset 48
	mov	eax, DWORD PTR [esp+48]
	mov	ebx, DWORD PTR [esp+52]
	.loc 1 1537 0
	mov	edx, DWORD PTR ___stack_chk_guard
	mov	DWORD PTR [esp+28], edx
	xor	edx, edx
LVL1283:
	.loc 1 1539 0
	test	eax, eax
	je	L815
	.loc 1 1540 0
	mov	ecx, DWORD PTR [ebx+76]
	test	ecx, ecx
	je	L822
	.loc 1 1544 0
	mov	edx, ebx
	call	_buddy_icon_set_cb
LVL1284:
L815:
	.loc 1 1547 0
	mov	DWORD PTR [ebx+108], 0
	.loc 1 1548 0
	mov	eax, DWORD PTR [esp+28]
	xor	eax, DWORD PTR ___stack_chk_guard
	jne	L823
	add	esp, 40
LCFI448:
	.cfi_remember_state
	.cfi_def_cfa_offset 8
	pop	ebx
LCFI449:
	.cfi_restore 3
	.cfi_def_cfa_offset 4
LVL1285:
	ret
LVL1286:
	.p2align 2,,3
L822:
LCFI450:
	.cfi_restore_state
	.loc 1 1542 0
	mov	DWORD PTR [esp+4], eax
	mov	DWORD PTR [esp], OFFSET FLAT:LC26
	call	_purple_prefs_set_path
LVL1287:
	jmp	L815
L823:
	.loc 1 1548 0
	call	___stack_chk_fail
LVL1288:
	.cfi_endproc
LFE134:
	.section .rdata,"dr"
LC79:
	.ascii "Unable to write theme data.\12\0"
LC80:
	.ascii "theme_got_url\0"
	.text
	.p2align 2,,3
	.def	_statusbox_got_url;	.scl	3;	.type	32;	.endef
_statusbox_got_url:
LFB99:
	.loc 1 374 0
	.cfi_startproc
LVL1289:
	push	ebp
LCFI451:
	.cfi_def_cfa_offset 8
	.cfi_offset 5, -8
	push	edi
LCFI452:
	.cfi_def_cfa_offset 12
	.cfi_offset 7, -12
	push	esi
LCFI453:
	.cfi_def_cfa_offset 16
	.cfi_offset 6, -16
	push	ebx
LCFI454:
	.cfi_def_cfa_offset 20
	.cfi_offset 3, -20
	sub	esp, 44
LCFI455:
	.cfi_def_cfa_offset 64
	mov	edi, DWORD PTR [esp+68]
	mov	esi, DWORD PTR [esp+72]
	mov	ebx, DWORD PTR [esp+76]
	.loc 1 374 0
	mov	eax, DWORD PTR ___stack_chk_guard
	mov	DWORD PTR [esp+28], eax
	xor	eax, eax
	.loc 1 379 0
	mov	ebp, DWORD PTR [esp+80]
	test	ebp, ebp
	je	L834
LVL1290:
L824:
	.loc 1 397 0
	mov	eax, DWORD PTR [esp+28]
	xor	eax, DWORD PTR ___stack_chk_guard
	jne	L835
	add	esp, 44
LCFI456:
	.cfi_remember_state
	.cfi_def_cfa_offset 20
	pop	ebx
LCFI457:
	.cfi_restore 3
	.cfi_def_cfa_offset 16
	pop	esi
LCFI458:
	.cfi_restore 6
	.cfi_def_cfa_offset 12
	pop	edi
LCFI459:
	.cfi_restore 7
	.cfi_def_cfa_offset 8
	pop	ebp
LCFI460:
	.cfi_restore 5
	.cfi_def_cfa_offset 4
	ret
LVL1291:
	.p2align 2,,3
L834:
LCFI461:
	.cfi_restore_state
	.loc 1 379 0 discriminator 1
	test	ebx, ebx
	je	L824
	.loc 1 382 0
	mov	DWORD PTR [esp+4], 1
	lea	eax, [esp+24]
	mov	DWORD PTR [esp], eax
	call	_purple_mkstemp
LVL1292:
	mov	ebp, eax
LVL1293:
	.loc 1 383 0
	mov	DWORD PTR [esp+12], eax
	mov	DWORD PTR [esp+8], 1
	mov	DWORD PTR [esp+4], ebx
	mov	DWORD PTR [esp], esi
	call	_fwrite
LVL1294:
	.loc 1 384 0
	dec	eax
LVL1295:
	je	L826
	.loc 1 385 0
	mov	DWORD PTR [esp+4], OFFSET FLAT:LC79
	mov	DWORD PTR [esp], OFFSET FLAT:LC80
	call	_purple_debug_warning
LVL1296:
	.loc 1 386 0
	mov	DWORD PTR [esp], ebp
	call	_fclose
LVL1297:
L833:
	.loc 1 395 0
	mov	eax, DWORD PTR [esp+24]
	mov	DWORD PTR [esp], eax
	call	_g_unlink
LVL1298:
	.loc 1 396 0
	mov	eax, DWORD PTR [esp+24]
	mov	DWORD PTR [esp], eax
	call	_g_free
LVL1299:
	jmp	L824
LVL1300:
L826:
	.loc 1 391 0
	mov	DWORD PTR [esp], ebp
	call	_fclose
LVL1301:
	.loc 1 393 0
	mov	DWORD PTR [esp+4], edi
LVL1302:
	mov	eax, DWORD PTR [esp+24]
	mov	DWORD PTR [esp], eax
	call	_icon_choose_cb
LVL1303:
	jmp	L833
LVL1304:
L835:
	.loc 1 397 0
	call	___stack_chk_fail
LVL1305:
	.cfi_endproc
LFE99:
	.section .rdata,"dr"
LC81:
	.ascii "g_filename_from_uri error\0"
LC82:
	.ascii "file://\0"
LC83:
	.ascii "%s\12\0"
	.text
	.p2align 2,,3
	.def	_icon_box_dnd_cb;	.scl	3;	.type	32;	.endef
_icon_box_dnd_cb:
LFB98:
	.loc 1 345 0
	.cfi_startproc
LVL1306:
	push	ebp
LCFI462:
	.cfi_def_cfa_offset 8
	.cfi_offset 5, -8
	push	edi
LCFI463:
	.cfi_def_cfa_offset 12
	.cfi_offset 7, -12
	push	esi
LCFI464:
	.cfi_def_cfa_offset 16
	.cfi_offset 6, -16
	push	ebx
LCFI465:
	.cfi_def_cfa_offset 20
	.cfi_offset 3, -20
	sub	esp, 44
LCFI466:
	.cfi_def_cfa_offset 64
	mov	ebx, DWORD PTR [esp+68]
	mov	eax, DWORD PTR [esp+80]
	mov	esi, DWORD PTR [esp+88]
	mov	ebp, DWORD PTR [esp+92]
	.loc 1 345 0
	mov	edx, DWORD PTR ___stack_chk_guard
	mov	DWORD PTR [esp+28], edx
	xor	edx, edx
	.loc 1 346 0
	mov	edi, DWORD PTR [eax+16]
LVL1307:
	.loc 1 348 0
	mov	edx, DWORD PTR [eax+20]
	test	edx, edx
	js	L837
	.loc 1 348 0 is_stmt 0 discriminator 1
	cmp	DWORD PTR [eax+12], 8
	je	L850
LVL1308:
L837:
	.loc 1 368 0 is_stmt 1
	mov	DWORD PTR [esp+12], esi
	mov	DWORD PTR [esp+8], 0
	mov	DWORD PTR [esp+4], 0
	mov	DWORD PTR [esp], ebx
	call	_gtk_drag_finish
LVL1309:
L836:
	.loc 1 369 0
	mov	eax, DWORD PTR [esp+28]
	xor	eax, DWORD PTR ___stack_chk_guard
	jne	L851
	add	esp, 44
LCFI467:
	.cfi_remember_state
	.cfi_def_cfa_offset 20
	pop	ebx
LCFI468:
	.cfi_restore 3
	.cfi_def_cfa_offset 16
	pop	esi
LCFI469:
	.cfi_restore 6
	.cfi_def_cfa_offset 12
	pop	edi
LCFI470:
	.cfi_restore 7
	.cfi_def_cfa_offset 8
	pop	ebp
LCFI471:
	.cfi_restore 5
	.cfi_def_cfa_offset 4
	ret
LVL1310:
	.p2align 2,,3
L850:
LCFI472:
	.cfi_restore_state
	.loc 1 351 0
	mov	DWORD PTR [esp+8], 7
	mov	DWORD PTR [esp+4], OFFSET FLAT:LC82
	mov	DWORD PTR [esp], edi
	call	_g_ascii_strncasecmp
LVL1311:
	test	eax, eax
	jne	L838
LBB182:
	.loc 1 352 0
	mov	DWORD PTR [esp+24], 0
LVL1312:
	.loc 1 355 0
	lea	eax, [esp+24]
	mov	DWORD PTR [esp+8], eax
	mov	DWORD PTR [esp+4], 0
	mov	DWORD PTR [esp], edi
	call	_g_filename_from_uri_utf8
LVL1313:
	mov	edi, eax
LVL1314:
	test	eax, eax
	je	L852
	.loc 1 361 0
	mov	DWORD PTR [esp+4], 13
	mov	DWORD PTR [esp], eax
	call	_strchr
LVL1315:
	test	eax, eax
	je	L853
L842:
	.loc 1 362 0
	mov	BYTE PTR [eax], 0
L843:
	.loc 1 363 0
	mov	DWORD PTR [esp+4], ebp
	mov	DWORD PTR [esp], edi
	call	_icon_choose_cb
LVL1316:
	.loc 1 364 0
	mov	DWORD PTR [esp], edi
	call	_g_free
LVL1317:
L838:
LBE182:
	.loc 1 366 0
	mov	DWORD PTR [esp+12], esi
	mov	DWORD PTR [esp+8], 0
	mov	DWORD PTR [esp+4], 1
	mov	DWORD PTR [esp], ebx
	call	_gtk_drag_finish
LVL1318:
	jmp	L837
LVL1319:
L853:
LBB183:
	.loc 1 361 0 discriminator 1
	mov	DWORD PTR [esp+4], 10
	mov	DWORD PTR [esp], edi
	call	_strchr
LVL1320:
	test	eax, eax
	jne	L842
	jmp	L843
LVL1321:
L852:
	.loc 1 357 0
	mov	eax, DWORD PTR [esp+24]
LVL1322:
	.loc 1 356 0
	test	eax, eax
	je	L845
	mov	eax, DWORD PTR [eax+8]
L840:
	.loc 1 356 0 is_stmt 0 discriminator 2
	mov	DWORD PTR [esp+12], eax
	mov	DWORD PTR [esp+8], OFFSET FLAT:LC83
	mov	DWORD PTR [esp+4], OFFSET FLAT:LC20
	mov	DWORD PTR [esp], 4
	call	_purple_debug
LVL1323:
	jmp	L836
L845:
	.loc 1 356 0
	mov	eax, OFFSET FLAT:LC81
	jmp	L840
LVL1324:
L851:
LBE183:
	.loc 1 369 0 is_stmt 1
	call	___stack_chk_fail
LVL1325:
	.cfi_endproc
LFE98:
	.p2align 2,,3
	.def	_update_buddyicon_cb;	.scl	3;	.type	32;	.endef
_update_buddyicon_cb:
LFB135:
	.loc 1 1553 0
	.cfi_startproc
LVL1326:
	sub	esp, 28
LCFI473:
	.cfi_def_cfa_offset 32
	mov	eax, DWORD PTR [esp+40]
	mov	edx, DWORD PTR [esp+44]
	.loc 1 1553 0
	mov	ecx, DWORD PTR ___stack_chk_guard
	mov	DWORD PTR [esp+12], ecx
	xor	ecx, ecx
	.loc 1 1554 0
	mov	ecx, DWORD PTR [esp+12]
	xor	ecx, DWORD PTR ___stack_chk_guard
	jne	L858
	.loc 1 1555 0
	add	esp, 28
LCFI474:
	.cfi_remember_state
	.cfi_def_cfa_offset 4
	.loc 1 1554 0
	jmp	_buddy_icon_set_cb
LVL1327:
L858:
LCFI475:
	.cfi_restore_state
	call	___stack_chk_fail
LVL1328:
	.cfi_endproc
LFE135:
	.p2align 2,,3
	.def	_remove_buddy_icon_cb;	.scl	3;	.type	32;	.endef
_remove_buddy_icon_cb:
LFB132:
	.loc 1 1513 0
	.cfi_startproc
LVL1329:
	push	ebx
LCFI476:
	.cfi_def_cfa_offset 8
	.cfi_offset 3, -8
	sub	esp, 40
LCFI477:
	.cfi_def_cfa_offset 48
	mov	ebx, DWORD PTR [esp+52]
	.loc 1 1513 0
	mov	eax, DWORD PTR ___stack_chk_guard
	mov	DWORD PTR [esp+28], eax
	xor	eax, eax
	.loc 1 1514 0
	mov	ecx, DWORD PTR [ebx+76]
	test	ecx, ecx
	je	L864
	.loc 1 1518 0
	mov	edx, ebx
	xor	eax, eax
	call	_buddy_icon_set_cb
LVL1330:
L861:
	.loc 1 1520 0
	mov	eax, DWORD PTR [ebx+120]
	mov	DWORD PTR [esp], eax
	call	_gtk_widget_destroy
LVL1331:
	.loc 1 1521 0
	mov	DWORD PTR [ebx+120], 0
	.loc 1 1522 0
	mov	eax, DWORD PTR [esp+28]
	xor	eax, DWORD PTR ___stack_chk_guard
	jne	L865
	add	esp, 40
LCFI478:
	.cfi_remember_state
	.cfi_def_cfa_offset 8
	pop	ebx
LCFI479:
	.cfi_restore 3
	.cfi_def_cfa_offset 4
	ret
	.p2align 2,,3
L864:
LCFI480:
	.cfi_restore_state
	.loc 1 1516 0
	mov	DWORD PTR [esp+4], 0
	mov	DWORD PTR [esp], OFFSET FLAT:LC26
	call	_purple_prefs_set_path
LVL1332:
	jmp	L861
L865:
	.loc 1 1522 0
	call	___stack_chk_fail
LVL1333:
	.cfi_endproc
LFE132:
	.section .rdata,"dr"
	.align 4
LC84:
	.ascii "Click to change your buddyicon for this account.\0"
	.align 4
LC85:
	.ascii "Click to change your buddyicon for all accounts.\0"
LC86:
	.ascii "drag_data_received\0"
LC87:
	.ascii "enter-notify-event\0"
LC88:
	.ascii "leave-notify-event\0"
	.text
	.p2align 2,,3
	.def	_setup_icon_box.part.10;	.scl	3;	.type	32;	.endef
_setup_icon_box.part.10:
LFB178:
	.loc 1 443 0
	.cfi_startproc
LVL1334:
	push	esi
LCFI481:
	.cfi_def_cfa_offset 8
	.cfi_offset 6, -8
	push	ebx
LCFI482:
	.cfi_def_cfa_offset 12
	.cfi_offset 3, -12
	sub	esp, 52
LCFI483:
	.cfi_def_cfa_offset 64
	mov	ebx, eax
	.loc 1 443 0
	mov	eax, DWORD PTR ___stack_chk_guard
	mov	DWORD PTR [esp+44], eax
	xor	eax, eax
LVL1335:
	.loc 1 448 0
	call	_gtk_image_new
LVL1336:
	mov	DWORD PTR [ebx+112], eax
	.loc 1 449 0
	call	_gtk_event_box_new
LVL1337:
	mov	DWORD PTR [ebx+116], eax
	.loc 1 450 0
	call	_gtk_widget_get_type
LVL1338:
	mov	DWORD PTR [esp+4], eax
	mov	DWORD PTR [esp], ebx
	call	_g_type_check_instance_cast
LVL1339:
	mov	DWORD PTR [esp+4], eax
	mov	eax, DWORD PTR [ebx+116]
	mov	DWORD PTR [esp], eax
	call	_gtk_widget_set_parent
LVL1340:
	.loc 1 451 0
	mov	eax, DWORD PTR [ebx+116]
	mov	DWORD PTR [esp], eax
	call	_gtk_widget_show
LVL1341:
	.loc 1 454 0
	mov	esi, DWORD PTR [ebx+76]
	test	esi, esi
	je	L867
	mov	DWORD PTR [esp+4], OFFSET FLAT:LC84
	mov	DWORD PTR [esp], OFFSET FLAT:LC12
	call	_libintl_dgettext
LVL1342:
L868:
	mov	DWORD PTR [esp+4], eax
	mov	eax, DWORD PTR [ebx+116]
	mov	DWORD PTR [esp], eax
	call	_gtk_widget_set_tooltip_text
LVL1343:
	.loc 1 459 0
	mov	eax, DWORD PTR [ebx+76]
	test	eax, eax
	je	L869
	.loc 1 460 0
	mov	DWORD PTR [esp+8], 1
	mov	DWORD PTR [esp+4], OFFSET FLAT:LC78
	mov	DWORD PTR [esp], eax
	call	_purple_account_get_bool
LVL1344:
	.loc 1 459 0
	test	eax, eax
	je	L884
L869:
LBB184:
	.loc 1 468 0
	mov	DWORD PTR [esp], OFFSET FLAT:LC26
	call	_purple_prefs_get_path
LVL1345:
	.loc 1 471 0
	test	eax, eax
	je	L871
	cmp	BYTE PTR [eax], 0
	jne	L885
L871:
	.loc 1 474 0
	mov	DWORD PTR [esp+4], 0
	mov	DWORD PTR [esp], ebx
	call	_pidgin_status_box_set_buddy_icon
LVL1346:
L870:
LBE184:
	.loc 1 483 0
	mov	DWORD PTR [esp], 60
	call	_gdk_cursor_new
LVL1347:
	mov	DWORD PTR [ebx+124], eax
	.loc 1 484 0
	mov	DWORD PTR [esp], 68
	call	_gdk_cursor_new
LVL1348:
	mov	DWORD PTR [ebx+128], eax
	.loc 1 487 0
	mov	DWORD PTR [esp+16], 2
	mov	DWORD PTR [esp+12], 3
	mov	DWORD PTR [esp+8], OFFSET FLAT:_dnd_targets
	mov	DWORD PTR [esp+4], 5
	mov	eax, DWORD PTR [ebx+116]
	mov	DWORD PTR [esp], eax
	call	_gtk_drag_dest_set
LVL1349:
	.loc 1 494 0
	mov	DWORD PTR [esp+4], 80
	mov	eax, DWORD PTR [ebx+116]
	mov	DWORD PTR [esp], eax
	call	_g_type_check_instance_cast
LVL1350:
	mov	DWORD PTR [esp+20], 0
	mov	DWORD PTR [esp+16], 0
	mov	DWORD PTR [esp+12], ebx
	mov	DWORD PTR [esp+8], OFFSET FLAT:_icon_box_dnd_cb
	mov	DWORD PTR [esp+4], OFFSET FLAT:LC86
	mov	DWORD PTR [esp], eax
	call	_g_signal_connect_data
LVL1351:
	.loc 1 495 0
	mov	DWORD PTR [esp+4], 80
	mov	eax, DWORD PTR [ebx+116]
	mov	DWORD PTR [esp], eax
	call	_g_type_check_instance_cast
LVL1352:
	mov	DWORD PTR [esp+20], 0
	mov	DWORD PTR [esp+16], 0
	mov	DWORD PTR [esp+12], ebx
	mov	DWORD PTR [esp+8], OFFSET FLAT:_icon_box_enter_cb
	mov	DWORD PTR [esp+4], OFFSET FLAT:LC87
	mov	DWORD PTR [esp], eax
	call	_g_signal_connect_data
LVL1353:
	.loc 1 496 0
	mov	DWORD PTR [esp+4], 80
	mov	eax, DWORD PTR [ebx+116]
	mov	DWORD PTR [esp], eax
	call	_g_type_check_instance_cast
LVL1354:
	mov	DWORD PTR [esp+20], 0
	mov	DWORD PTR [esp+16], 0
	mov	DWORD PTR [esp+12], ebx
	mov	DWORD PTR [esp+8], OFFSET FLAT:_icon_box_leave_cb
	mov	DWORD PTR [esp+4], OFFSET FLAT:LC88
	mov	DWORD PTR [esp], eax
	call	_g_signal_connect_data
LVL1355:
	.loc 1 497 0
	mov	DWORD PTR [esp+4], 80
	mov	eax, DWORD PTR [ebx+116]
	mov	DWORD PTR [esp], eax
	call	_g_type_check_instance_cast
LVL1356:
	mov	DWORD PTR [esp+20], 0
	mov	DWORD PTR [esp+16], 0
	mov	DWORD PTR [esp+12], ebx
	mov	DWORD PTR [esp+8], OFFSET FLAT:_icon_box_press_cb
	mov	DWORD PTR [esp+4], OFFSET FLAT:LC58
	mov	DWORD PTR [esp], eax
	call	_g_signal_connect_data
LVL1357:
	.loc 1 499 0
	mov	esi, DWORD PTR [ebx+112]
	call	_gtk_container_get_type
LVL1358:
	mov	DWORD PTR [esp+4], eax
	mov	eax, DWORD PTR [ebx+116]
	mov	DWORD PTR [esp], eax
	call	_g_type_check_instance_cast
LVL1359:
	mov	DWORD PTR [esp+4], esi
	mov	DWORD PTR [esp], eax
	call	_gtk_container_add
LVL1360:
	.loc 1 500 0
	mov	eax, DWORD PTR [ebx+112]
	mov	DWORD PTR [esp], eax
	call	_gtk_widget_show
LVL1361:
	.loc 1 501 0
	mov	eax, DWORD PTR [esp+44]
	xor	eax, DWORD PTR ___stack_chk_guard
	jne	L886
	add	esp, 52
LCFI484:
	.cfi_remember_state
	.cfi_def_cfa_offset 12
	pop	ebx
LCFI485:
	.cfi_restore 3
	.cfi_def_cfa_offset 8
LVL1362:
	pop	esi
LCFI486:
	.cfi_restore 6
	.cfi_def_cfa_offset 4
	ret
LVL1363:
	.p2align 2,,3
L884:
LCFI487:
	.cfi_restore_state
LBB185:
	.loc 1 462 0
	mov	eax, DWORD PTR [ebx+76]
	mov	DWORD PTR [esp], eax
	call	_purple_buddy_icons_find_account_icon
LVL1364:
	mov	esi, eax
LVL1365:
	.loc 1 463 0
	mov	DWORD PTR [esp+4], eax
	mov	DWORD PTR [esp], ebx
	call	_pidgin_status_box_set_buddy_icon
LVL1366:
	.loc 1 464 0
	mov	DWORD PTR [esp], esi
	call	_purple_imgstore_unref
LVL1367:
	jmp	L870
LVL1368:
	.p2align 2,,3
L885:
LBE185:
LBB186:
	.loc 1 472 0
	mov	DWORD PTR [esp], eax
	call	_purple_imgstore_new_from_file
LVL1369:
	mov	esi, eax
LVL1370:
	.loc 1 474 0
	mov	DWORD PTR [esp+4], eax
	mov	DWORD PTR [esp], ebx
	call	_pidgin_status_box_set_buddy_icon
LVL1371:
	.loc 1 475 0
	test	esi, esi
	je	L870
	.loc 1 480 0
	mov	DWORD PTR [esp], esi
	call	_purple_imgstore_unref
LVL1372:
	jmp	L870
LVL1373:
	.p2align 2,,3
L867:
LBE186:
	.loc 1 454 0
	mov	DWORD PTR [esp+4], OFFSET FLAT:LC85
	mov	DWORD PTR [esp], OFFSET FLAT:LC12
	call	_libintl_dgettext
LVL1374:
	jmp	L868
L886:
	.loc 1 501 0
	call	___stack_chk_fail
LVL1375:
	.cfi_endproc
LFE178:
	.section .rdata,"dr"
LC89:
	.ascii "gtkstatusbox.c:568\0"
	.text
	.p2align 2,,3
	.def	_pidgin_status_box_set_property;	.scl	3;	.type	32;	.endef
_pidgin_status_box_set_property:
LFB105:
	.loc 1 537 0
	.cfi_startproc
LVL1376:
	push	ebp
LCFI488:
	.cfi_def_cfa_offset 8
	.cfi_offset 5, -8
	push	edi
LCFI489:
	.cfi_def_cfa_offset 12
	.cfi_offset 7, -12
	push	esi
LCFI490:
	.cfi_def_cfa_offset 16
	.cfi_offset 6, -16
	push	ebx
LCFI491:
	.cfi_def_cfa_offset 20
	.cfi_offset 3, -20
	sub	esp, 92
LCFI492:
	.cfi_def_cfa_offset 112
	mov	esi, DWORD PTR [esp+112]
	mov	ebx, DWORD PTR [esp+116]
	mov	eax, DWORD PTR [esp+120]
	mov	DWORD PTR [esp+60], eax
	mov	edi, DWORD PTR [esp+124]
	.loc 1 537 0
	mov	eax, DWORD PTR ___stack_chk_guard
	mov	DWORD PTR [esp+76], eax
	xor	eax, eax
	.loc 1 538 0
	call	_pidgin_status_box_get_type
LVL1377:
	mov	DWORD PTR [esp+4], eax
	mov	DWORD PTR [esp], esi
	call	_g_type_check_instance_cast
LVL1378:
	mov	ebp, eax
LVL1379:
	.loc 1 540 0
	cmp	ebx, 1
	je	L889
	cmp	ebx, 2
	je	L911
LVL1380:
LBB194:
	.loc 1 568 0
	mov	eax, DWORD PTR [esi]
LVL1381:
	mov	eax, DWORD PTR [eax]
	mov	DWORD PTR [esp], eax
	call	_g_type_name
LVL1382:
	mov	esi, eax
LVL1383:
	mov	eax, DWORD PTR [edi]
	mov	eax, DWORD PTR [eax]
	mov	DWORD PTR [esp], eax
	call	_g_type_name
LVL1384:
	mov	DWORD PTR [esp+32], esi
	mov	DWORD PTR [esp+28], eax
	mov	eax, DWORD PTR [edi+4]
	mov	DWORD PTR [esp+24], eax
	mov	DWORD PTR [esp+20], ebx
	mov	DWORD PTR [esp+16], OFFSET FLAT:LC38
	mov	DWORD PTR [esp+12], OFFSET FLAT:LC89
	mov	DWORD PTR [esp+8], OFFSET FLAT:LC40
	mov	DWORD PTR [esp+4], 16
	mov	DWORD PTR [esp], 0
	call	_g_log
LVL1385:
L887:
LBE194:
	.loc 1 571 0
	mov	eax, DWORD PTR [esp+76]
	xor	eax, DWORD PTR ___stack_chk_guard
	jne	L908
	add	esp, 92
LCFI493:
	.cfi_remember_state
	.cfi_def_cfa_offset 20
	pop	ebx
LCFI494:
	.cfi_restore 3
	.cfi_def_cfa_offset 16
	pop	esi
LCFI495:
	.cfi_restore 6
	.cfi_def_cfa_offset 12
	pop	edi
LCFI496:
	.cfi_restore 7
	.cfi_def_cfa_offset 8
	pop	ebp
LCFI497:
	.cfi_restore 5
	.cfi_def_cfa_offset 4
LVL1386:
	ret
LVL1387:
	.p2align 2,,3
L889:
LCFI498:
	.cfi_restore_state
	.loc 1 558 0
	mov	eax, DWORD PTR [esp+60]
LVL1388:
	mov	DWORD PTR [esp], eax
	call	_g_value_get_pointer
LVL1389:
	mov	DWORD PTR [ebp+76], eax
	.loc 1 559 0
	test	eax, eax
	je	L899
	.loc 1 560 0
	mov	DWORD PTR [ebp+80], 0
L900:
	.loc 1 564 0
	mov	eax, DWORD PTR [esp+76]
	xor	eax, DWORD PTR ___stack_chk_guard
	jne	L908
	mov	edx, 1
	mov	eax, ebp
	.loc 1 571 0
	add	esp, 92
LCFI499:
	.cfi_remember_state
	.cfi_def_cfa_offset 20
	pop	ebx
LCFI500:
	.cfi_restore 3
	.cfi_def_cfa_offset 16
	pop	esi
LCFI501:
	.cfi_restore 6
	.cfi_def_cfa_offset 12
	pop	edi
LCFI502:
	.cfi_restore 7
	.cfi_def_cfa_offset 8
	pop	ebp
LCFI503:
	.cfi_restore 5
	.cfi_def_cfa_offset 4
LVL1390:
	.loc 1 564 0
	jmp	_pidgin_status_box_regenerate
LVL1391:
	.p2align 2,,3
L911:
LCFI504:
	.cfi_restore_state
	.loc 1 542 0
	mov	eax, DWORD PTR [esp+60]
LVL1392:
	mov	DWORD PTR [esp], eax
	call	_g_value_get_boolean
LVL1393:
	test	eax, eax
	je	L891
	.loc 1 543 0
	mov	eax, DWORD PTR [ebp+76]
	test	eax, eax
	je	L892
LBB195:
	.loc 1 544 0
	mov	DWORD PTR [esp], eax
	call	_purple_account_get_protocol_id
LVL1394:
	mov	DWORD PTR [esp], eax
	call	_purple_plugins_find_with_id
LVL1395:
	.loc 1 545 0
	test	eax, eax
	je	L887
LBB196:
	.loc 1 546 0
	mov	eax, DWORD PTR [eax+16]
LVL1396:
	mov	eax, DWORD PTR [eax+76]
LVL1397:
	.loc 1 547 0
	test	eax, eax
	je	L887
	.loc 1 547 0 is_stmt 0 discriminator 1
	mov	eax, DWORD PTR [eax+12]
LVL1398:
	test	eax, eax
	je	L887
L892:
LVL1399:
LBE196:
LBE195:
LBB197:
LBB198:
	.loc 1 445 0 is_stmt 1
	mov	edi, DWORD PTR [ebp+116]
	test	edi, edi
	jne	L887
	mov	eax, DWORD PTR [esp+76]
	xor	eax, DWORD PTR ___stack_chk_guard
	jne	L908
	mov	eax, ebp
LBE198:
LBE197:
	.loc 1 571 0
	add	esp, 92
LCFI505:
	.cfi_remember_state
	.cfi_def_cfa_offset 20
	pop	ebx
LCFI506:
	.cfi_restore 3
	.cfi_def_cfa_offset 16
	pop	esi
LCFI507:
	.cfi_restore 6
	.cfi_def_cfa_offset 12
	pop	edi
LCFI508:
	.cfi_restore 7
	.cfi_def_cfa_offset 8
	pop	ebp
LCFI509:
	.cfi_restore 5
	.cfi_def_cfa_offset 4
LVL1400:
	jmp	_setup_icon_box.part.10
LVL1401:
	.p2align 2,,3
L891:
LCFI510:
	.cfi_restore_state
	.loc 1 554 0
	mov	eax, DWORD PTR [esp+76]
	xor	eax, DWORD PTR ___stack_chk_guard
	jne	L908
	mov	eax, ebp
	.loc 1 571 0
	add	esp, 92
LCFI511:
	.cfi_remember_state
	.cfi_def_cfa_offset 20
	pop	ebx
LCFI512:
	.cfi_restore 3
	.cfi_def_cfa_offset 16
	pop	esi
LCFI513:
	.cfi_restore 6
	.cfi_def_cfa_offset 12
	pop	edi
LCFI514:
	.cfi_restore 7
	.cfi_def_cfa_offset 8
	pop	ebp
LCFI515:
	.cfi_restore 5
	.cfi_def_cfa_offset 4
LVL1402:
	.loc 1 554 0
	jmp	_destroy_icon_box
LVL1403:
	.p2align 2,,3
L899:
LCFI516:
	.cfi_restore_state
	.loc 1 562 0
	call	_check_active_accounts_for_identical_statuses
LVL1404:
	mov	DWORD PTR [ebp+80], eax
	jmp	L900
L908:
	.loc 1 571 0
	call	___stack_chk_fail
LVL1405:
	.cfi_endproc
LFE105:
	.p2align 2,,3
	.globl	_pidgin_status_box_pulse_connecting
	.def	_pidgin_status_box_pulse_connecting;	.scl	2;	.type	32;	.endef
_pidgin_status_box_pulse_connecting:
LFB158:
	.loc 1 2301 0
	.cfi_startproc
LVL1406:
	sub	esp, 28
LCFI517:
	.cfi_def_cfa_offset 32
	mov	eax, DWORD PTR [esp+32]
	.loc 1 2301 0
	mov	edx, DWORD PTR ___stack_chk_guard
	mov	DWORD PTR [esp+12], edx
	xor	edx, edx
	.loc 1 2302 0
	test	eax, eax
	je	L912
	.loc 1 2304 0
	mov	edx, DWORD PTR [eax+160]
	inc	edx
	mov	DWORD PTR [eax+160], edx
	mov	edx, DWORD PTR _connecting_stock_ids[0+edx*4]
	test	edx, edx
	je	L919
L914:
	.loc 1 2306 0
	mov	edx, DWORD PTR [esp+12]
	xor	edx, DWORD PTR ___stack_chk_guard
	jne	L918
	.loc 1 2307 0
	add	esp, 28
LCFI518:
	.cfi_remember_state
	.cfi_def_cfa_offset 4
	.loc 1 2306 0
	jmp	_pidgin_status_box_refresh
LVL1407:
	.p2align 2,,3
L919:
LCFI519:
	.cfi_restore_state
	.loc 1 2305 0
	mov	DWORD PTR [eax+160], 0
	jmp	L914
	.p2align 2,,3
L912:
	.loc 1 2307 0
	mov	eax, DWORD PTR [esp+12]
	xor	eax, DWORD PTR ___stack_chk_guard
	jne	L918
	add	esp, 28
LCFI520:
	.cfi_remember_state
	.cfi_def_cfa_offset 4
	ret
L918:
LCFI521:
	.cfi_restore_state
	call	___stack_chk_fail
LVL1408:
	.cfi_endproc
LFE158:
	.p2align 2,,3
	.globl	_pidgin_status_box_get_message
	.def	_pidgin_status_box_get_message;	.scl	2;	.type	32;	.endef
_pidgin_status_box_get_message:
LFB167:
	.loc 1 2767 0
	.cfi_startproc
LVL1409:
	push	ebx
LCFI522:
	.cfi_def_cfa_offset 8
	.cfi_offset 3, -8
	sub	esp, 40
LCFI523:
	.cfi_def_cfa_offset 48
	mov	ebx, DWORD PTR [esp+48]
	.loc 1 2767 0
	mov	eax, DWORD PTR ___stack_chk_guard
	mov	DWORD PTR [esp+28], eax
	xor	eax, eax
	.loc 1 2768 0
	mov	ecx, DWORD PTR [ebx+140]
	test	ecx, ecx
	je	L921
	.loc 1 2769 0
	call	_gtk_imhtml_get_type
LVL1410:
	mov	DWORD PTR [esp+4], eax
	mov	eax, DWORD PTR [ebx+92]
	mov	DWORD PTR [esp], eax
	call	_g_type_check_instance_cast
LVL1411:
	mov	edx, DWORD PTR [esp+28]
	xor	edx, DWORD PTR ___stack_chk_guard
	jne	L925
	mov	DWORD PTR [esp+48], eax
	.loc 1 2772 0
	add	esp, 40
LCFI524:
	.cfi_remember_state
	.cfi_def_cfa_offset 8
	pop	ebx
LCFI525:
	.cfi_restore 3
	.cfi_def_cfa_offset 4
	.loc 1 2769 0
	jmp	_gtk_imhtml_get_markup
LVL1412:
	.p2align 2,,3
L921:
LCFI526:
	.cfi_restore_state
	.loc 1 2772 0
	xor	eax, eax
	mov	edx, DWORD PTR [esp+28]
	xor	edx, DWORD PTR ___stack_chk_guard
	jne	L925
	add	esp, 40
LCFI527:
	.cfi_remember_state
	.cfi_def_cfa_offset 8
	pop	ebx
LCFI528:
	.cfi_restore 3
	.cfi_def_cfa_offset 4
	ret
L925:
LCFI529:
	.cfi_restore_state
	call	___stack_chk_fail
LVL1413:
	.cfi_endproc
LFE167:
	.section .rdata,"dr"
LC90:
	.ascii "active\0"
	.text
	.p2align 2,,3
	.def	_activate_currently_selected_status;	.scl	3;	.type	32;	.endef
_activate_currently_selected_status:
LFB160:
	.loc 1 2319 0
	.cfi_startproc
LVL1414:
	push	ebp
LCFI530:
	.cfi_def_cfa_offset 8
	.cfi_offset 5, -8
	push	edi
LCFI531:
	.cfi_def_cfa_offset 12
	.cfi_offset 7, -12
	push	esi
LCFI532:
	.cfi_def_cfa_offset 16
	.cfi_offset 6, -16
	push	ebx
LCFI533:
	.cfi_def_cfa_offset 20
	.cfi_offset 3, -20
	sub	esp, 108
LCFI534:
	.cfi_def_cfa_offset 128
	mov	ebx, eax
	.loc 1 2319 0
	mov	eax, DWORD PTR ___stack_chk_guard
	mov	DWORD PTR [esp+92], eax
	xor	eax, eax
LVL1415:
	.loc 1 2329 0
	mov	eax, DWORD PTR [ebx+304]
	mov	DWORD PTR [esp], eax
	call	_gtk_tree_row_reference_get_path
LVL1416:
	mov	ebp, eax
LVL1417:
	.loc 1 2330 0
	call	_gtk_tree_model_get_type
LVL1418:
	mov	edi, eax
	mov	DWORD PTR [esp+4], eax
	mov	eax, DWORD PTR [ebx+72]
	mov	DWORD PTR [esp], eax
	call	_g_type_check_instance_cast
LVL1419:
	mov	DWORD PTR [esp+8], ebp
	lea	esi, [esp+76]
	mov	DWORD PTR [esp+4], esi
	mov	DWORD PTR [esp], eax
	call	_gtk_tree_model_get_iter
LVL1420:
	test	eax, eax
	jne	L1003
LVL1421:
L926:
	.loc 1 2511 0
	mov	eax, DWORD PTR [esp+92]
	xor	eax, DWORD PTR ___stack_chk_guard
	jne	L1004
	add	esp, 108
LCFI535:
	.cfi_remember_state
	.cfi_def_cfa_offset 20
	pop	ebx
LCFI536:
	.cfi_restore 3
	.cfi_def_cfa_offset 16
	pop	esi
LCFI537:
	.cfi_restore 6
	.cfi_def_cfa_offset 12
	pop	edi
LCFI538:
	.cfi_restore 7
	.cfi_def_cfa_offset 8
	pop	ebp
LCFI539:
	.cfi_restore 5
	.cfi_def_cfa_offset 4
	ret
LVL1422:
	.p2align 2,,3
L1003:
LCFI540:
	.cfi_restore_state
	.loc 1 2332 0
	mov	DWORD PTR [esp], ebp
	call	_gtk_tree_path_free
LVL1423:
	.loc 1 2334 0
	mov	DWORD PTR [esp+4], edi
	mov	eax, DWORD PTR [ebx+72]
	mov	DWORD PTR [esp], eax
	call	_g_type_check_instance_cast
LVL1424:
	mov	DWORD PTR [esp+24], -1
	lea	edx, [esp+68]
	mov	DWORD PTR [esp+20], edx
	mov	DWORD PTR [esp+16], 6
	lea	edx, [esp+64]
	mov	DWORD PTR [esp+12], edx
	mov	DWORD PTR [esp+8], 0
	mov	DWORD PTR [esp+4], esi
	mov	DWORD PTR [esp], eax
	call	_gtk_tree_model_get
LVL1425:
	.loc 1 2347 0
	cmp	DWORD PTR [esp+64], 1
	jne	L926
	.loc 1 2350 0
	mov	DWORD PTR [esp+4], edi
	mov	eax, DWORD PTR [ebx+72]
	mov	DWORD PTR [esp], eax
	call	_g_type_check_instance_cast
LVL1426:
	mov	DWORD PTR [esp+16], -1
	lea	edx, [esp+72]
	mov	DWORD PTR [esp+12], edx
	mov	DWORD PTR [esp+8], 4
	mov	DWORD PTR [esp+4], esi
	mov	DWORD PTR [esp], eax
	call	_gtk_tree_model_get
LVL1427:
	.loc 1 2353 0
	mov	DWORD PTR [esp], ebx
	call	_pidgin_status_box_get_message
LVL1428:
	mov	ebp, eax
LVL1429:
	.loc 1 2354 0
	test	eax, eax
	je	L928
	.loc 1 2354 0 is_stmt 0 discriminator 1
	cmp	BYTE PTR [eax], 0
	jne	L951
	.loc 1 2356 0 is_stmt 1
	mov	eax, DWORD PTR [ebx+84]
LVL1430:
	mov	DWORD PTR [esp], eax
	call	_gtk_widget_hide_all
LVL1431:
	.loc 1 2357 0
	mov	DWORD PTR [ebx+140], 0
	.loc 1 2360 0
	mov	DWORD PTR [esp], ebp
	call	_g_free
LVL1432:
	.loc 1 2361 0
	xor	ebp, ebp
LVL1433:
L951:
	.loc 1 2365 0
	mov	eax, DWORD PTR [ebx+76]
	test	eax, eax
	je	L1005
LVL1434:
LBB199:
	.loc 1 2479 0
	mov	DWORD PTR [esp], eax
	call	_purple_account_get_active_status
LVL1435:
	mov	edi, eax
LVL1436:
	.loc 1 2481 0
	mov	DWORD PTR [esp+4], 80
	mov	DWORD PTR [esp], ebx
	call	_g_type_check_instance_cast
LVL1437:
	mov	DWORD PTR [esp+4], OFFSET FLAT:LC90
	mov	DWORD PTR [esp], eax
	call	_g_object_get_data
LVL1438:
	mov	edx, eax
LVL1439:
	.loc 1 2483 0
	mov	eax, DWORD PTR [ebx+76]
LVL1440:
	call	_find_status_type_by_index
LVL1441:
	mov	DWORD PTR [esp+36], eax
LVL1442:
	.loc 1 2484 0
	mov	DWORD PTR [esp], eax
	call	_purple_status_type_get_id
LVL1443:
	mov	esi, eax
LVL1444:
	.loc 1 2486 0
	mov	DWORD PTR [esp], edi
	call	_purple_status_get_id
LVL1445:
	mov	DWORD PTR [esp+4], eax
	mov	DWORD PTR [esp], esi
	call	_g_str_equal
LVL1446:
	test	eax, eax
	jne	L1006
L947:
	.loc 1 2495 0
	test	ebp, ebp
	je	L1007
	.loc 1 2496 0
	mov	DWORD PTR [esp+20], 0
	mov	DWORD PTR [esp+16], ebp
	mov	DWORD PTR [esp+12], OFFSET FLAT:LC18
	mov	DWORD PTR [esp+8], 1
	mov	DWORD PTR [esp+4], esi
	mov	eax, DWORD PTR [ebx+76]
	mov	DWORD PTR [esp], eax
	call	_purple_account_set_status
LVL1447:
L948:
	.loc 1 2502 0
	call	_purple_savedstatus_get_current
LVL1448:
	mov	esi, eax
LVL1449:
	.loc 1 2503 0
	mov	DWORD PTR [esp], eax
	call	_purple_savedstatus_is_transient
LVL1450:
	test	eax, eax
	je	L946
	.loc 1 2504 0
	mov	DWORD PTR [esp+12], ebp
	mov	eax, DWORD PTR [esp+36]
	mov	DWORD PTR [esp+8], eax
	mov	eax, DWORD PTR [ebx+76]
	mov	DWORD PTR [esp+4], eax
	mov	DWORD PTR [esp], esi
	call	_purple_savedstatus_set_substatus
LVL1451:
L946:
LBE199:
	.loc 1 2509 0
	mov	eax, DWORD PTR [esp+72]
	mov	DWORD PTR [esp], eax
	call	_g_free
LVL1452:
	.loc 1 2510 0
	mov	DWORD PTR [esp], ebp
	call	_g_free
LVL1453:
	jmp	L926
LVL1454:
	.p2align 2,,3
L1005:
LBB200:
	.loc 1 2368 0
	mov	eax, DWORD PTR [esp+68]
	mov	DWORD PTR [esp+44], eax
LVL1455:
	.loc 1 2373 0
	mov	eax, DWORD PTR [ebx+80]
LVL1456:
	test	eax, eax
	je	L931
LBB201:
	.loc 1 2376 0
	mov	eax, DWORD PTR [ebx+304]
	mov	DWORD PTR [esp], eax
	call	_gtk_tree_row_reference_get_path
LVL1457:
	mov	esi, eax
LVL1458:
	.loc 1 2377 0
	mov	DWORD PTR [esp], eax
	call	_gtk_tree_path_get_indices
LVL1459:
	mov	edi, DWORD PTR [eax]
LVL1460:
	.loc 1 2379 0
	mov	DWORD PTR [esp], esi
	call	_gtk_tree_path_free
LVL1461:
	.loc 1 2381 0
	mov	eax, DWORD PTR [ebx+80]
	mov	DWORD PTR [esp], eax
	call	_purple_account_get_active_status
LVL1462:
	mov	esi, eax
LVL1463:
	.loc 1 2383 0
	mov	eax, DWORD PTR [ebx+80]
LVL1464:
	mov	edx, edi
	call	_find_status_type_by_index
LVL1465:
	mov	DWORD PTR [esp+40], eax
LVL1466:
	.loc 1 2384 0
	mov	DWORD PTR [esp], eax
	call	_purple_status_type_get_id
LVL1467:
	mov	DWORD PTR [esp+48], eax
LVL1468:
	.loc 1 2386 0
	mov	DWORD PTR [esp], esi
	call	_purple_status_get_id
LVL1469:
	mov	DWORD PTR [esp+4], eax
	mov	eax, DWORD PTR [esp+48]
	mov	DWORD PTR [esp], eax
	call	_g_str_equal
LVL1470:
	test	eax, eax
	jne	L1008
L958:
	.loc 1 2326 0
	mov	DWORD PTR [esp+36], 0
LVL1471:
L932:
LBE201:
	.loc 1 2412 0
	mov	esi, DWORD PTR [ebx+80]
	test	esi, esi
	je	L1009
LBB203:
	.loc 1 2413 0
	call	_purple_savedstatuses_get_all
LVL1472:
	mov	edi, eax
LVL1473:
	.loc 1 2414 0
	call	_purple_accounts_get_all_active
LVL1474:
	mov	DWORD PTR [esp+52], eax
LVL1475:
	.loc 1 2416 0
	test	edi, edi
	je	L934
	mov	DWORD PTR [esp+56], ebp
	mov	ebp, edi
LVL1476:
	mov	edi, DWORD PTR [esp+44]
LVL1477:
	mov	DWORD PTR [esp+60], ebx
	jmp	L984
LVL1478:
	.p2align 2,,3
L937:
	mov	ebp, DWORD PTR [ebp+4]
LVL1479:
	test	ebp, ebp
	je	L1010
LVL1480:
L984:
LBB204:
	.loc 1 2417 0
	mov	esi, DWORD PTR [ebp+0]
LVL1481:
	.loc 1 2418 0
	mov	DWORD PTR [esp], esi
	call	_purple_savedstatus_get_message
LVL1482:
	mov	ebx, eax
LVL1483:
	.loc 1 2421 0
	mov	DWORD PTR [esp], esi
	call	_purple_savedstatus_get_type
LVL1484:
	cmp	eax, edi
	jne	L937
	.loc 1 2421 0 is_stmt 0 discriminator 1
	mov	DWORD PTR [esp], esi
	call	_purple_savedstatus_is_transient
LVL1485:
	test	eax, eax
	je	L937
	.loc 1 2422 0 is_stmt 1 discriminator 1
	mov	DWORD PTR [esp], esi
	call	_purple_savedstatus_has_substatuses
LVL1486:
	.loc 1 2421 0 discriminator 1
	test	eax, eax
	je	L937
	.loc 1 2423 0
	mov	eax, DWORD PTR [esp+56]
	mov	DWORD PTR [esp+4], eax
	mov	DWORD PTR [esp], ebx
	call	_purple_strequal
LVL1487:
	.loc 1 2422 0
	test	eax, eax
	je	L937
LVL1488:
LBB205:
	.loc 1 2427 0 discriminator 1
	cmp	DWORD PTR [esp+52], 0
	je	L937
	.loc 1 2427 0 is_stmt 0
	mov	ebx, DWORD PTR [esp+52]
LVL1489:
	mov	DWORD PTR [esp+44], edi
	mov	edi, ebx
	mov	ebx, DWORD PTR [esp+48]
LVL1490:
L939:
LBB206:
	.loc 1 2429 0 is_stmt 1
	mov	eax, DWORD PTR [edi]
	mov	DWORD PTR [esp+4], eax
	mov	DWORD PTR [esp], esi
	call	_purple_savedstatus_get_substatus
LVL1491:
	.loc 1 2430 0
	test	eax, eax
	je	L940
LBB207:
	.loc 1 2431 0
	mov	DWORD PTR [esp], eax
	call	_purple_savedstatus_substatus_get_type
LVL1492:
	.loc 1 2432 0
	mov	DWORD PTR [esp], eax
	call	_purple_status_type_get_id
LVL1493:
	.loc 1 2433 0
	mov	DWORD PTR [esp+4], ebx
	mov	DWORD PTR [esp], eax
	call	_purple_strequal
LVL1494:
	test	eax, eax
	jne	L1011
L940:
LBE207:
LBE206:
	.loc 1 2427 0
	mov	edi, DWORD PTR [edi+4]
LVL1495:
	test	edi, edi
	jne	L939
	mov	edi, DWORD PTR [esp+44]
LVL1496:
	jmp	L937
LVL1497:
	.p2align 2,,3
L1006:
LBE205:
LBE204:
LBE203:
LBE200:
LBB215:
	.loc 1 2487 0 discriminator 1
	mov	DWORD PTR [esp+4], OFFSET FLAT:LC18
	mov	DWORD PTR [esp], edi
	call	_purple_status_get_attr_string
LVL1498:
	mov	DWORD PTR [esp+4], eax
	mov	DWORD PTR [esp], ebp
	call	_purple_strequal
LVL1499:
	.loc 1 2486 0 discriminator 1
	test	eax, eax
	je	L947
	jmp	L946
LVL1500:
L1011:
	mov	ebp, DWORD PTR [esp+56]
LVL1501:
	mov	ebx, DWORD PTR [esp+60]
LBE215:
LBB216:
LBB212:
LBB211:
LBB210:
LBB209:
LBB208:
	.loc 1 2417 0
	mov	DWORD PTR [esp+36], esi
LVL1502:
L934:
LBE208:
LBE209:
LBE210:
LBE211:
	.loc 1 2447 0
	mov	eax, DWORD PTR [esp+52]
	mov	DWORD PTR [esp], eax
	call	_g_list_free
LVL1503:
L941:
LBE212:
	.loc 1 2455 0
	mov	edi, DWORD PTR [esp+36]
	test	edi, edi
	je	L1012
L942:
	.loc 1 2470 0
	mov	eax, DWORD PTR [esp+36]
	mov	DWORD PTR [esp], eax
	call	_purple_savedstatus_activate
LVL1504:
	jmp	L946
LVL1505:
L1010:
	mov	ebp, DWORD PTR [esp+56]
LVL1506:
	mov	ebx, DWORD PTR [esp+60]
	jmp	L934
LVL1507:
L1008:
LBB213:
	.loc 1 2387 0 discriminator 1
	mov	DWORD PTR [esp+4], OFFSET FLAT:LC18
	mov	DWORD PTR [esp], esi
	call	_purple_status_get_attr_string
LVL1508:
	mov	DWORD PTR [esp+4], eax
	mov	DWORD PTR [esp], ebp
	call	_purple_strequal
LVL1509:
	.loc 1 2386 0 discriminator 1
	test	eax, eax
	je	L958
LBB202:
	.loc 1 2390 0
	call	_purple_savedstatus_get_current
LVL1510:
	mov	esi, eax
LVL1511:
	.loc 1 2394 0
	mov	DWORD PTR [esp], eax
	call	_purple_savedstatus_get_type
LVL1512:
	.loc 1 2326 0
	mov	DWORD PTR [esp+36], 0
	.loc 1 2394 0
	cmp	eax, DWORD PTR [esp+44]
	jne	L932
	.loc 1 2395 0
	mov	DWORD PTR [esp], esi
	call	_purple_savedstatus_is_transient
LVL1513:
	test	eax, eax
	je	L932
	.loc 1 2396 0
	mov	DWORD PTR [esp], esi
	call	_purple_savedstatus_has_substatuses
LVL1514:
	test	eax, eax
	jne	L946
	jmp	L932
LVL1515:
	.p2align 2,,3
L928:
LBE202:
LBE213:
LBE216:
	.loc 1 2356 0
	mov	eax, DWORD PTR [ebx+84]
LVL1516:
	mov	DWORD PTR [esp], eax
	call	_gtk_widget_hide_all
LVL1517:
	.loc 1 2357 0
	mov	DWORD PTR [ebx+140], 0
	jmp	L951
LVL1518:
L1007:
LBB217:
	.loc 1 2499 0
	mov	DWORD PTR [esp+12], 0
	mov	DWORD PTR [esp+8], 1
	mov	DWORD PTR [esp+4], esi
	mov	eax, DWORD PTR [ebx+76]
	mov	DWORD PTR [esp], eax
	call	_purple_account_set_status
LVL1519:
	jmp	L948
LVL1520:
L931:
LBE217:
LBB218:
	.loc 1 2400 0
	call	_purple_savedstatus_get_current
LVL1521:
	mov	DWORD PTR [esp+36], eax
LVL1522:
	.loc 1 2401 0
	mov	DWORD PTR [esp], eax
	call	_purple_savedstatus_get_type
LVL1523:
	cmp	eax, DWORD PTR [esp+44]
	je	L1013
L962:
	.loc 1 2367 0
	mov	DWORD PTR [esp+48], 0
	.loc 1 2366 0
	mov	DWORD PTR [esp+40], 0
	jmp	L932
LVL1524:
L1009:
	.loc 1 2451 0
	mov	DWORD PTR [esp+4], ebp
	mov	eax, DWORD PTR [esp+44]
	mov	DWORD PTR [esp], eax
	call	_purple_savedstatus_find_transient_by_type_and_message
LVL1525:
	mov	DWORD PTR [esp+36], eax
LVL1526:
	jmp	L941
LVL1527:
L1012:
	.loc 1 2457 0
	mov	eax, DWORD PTR [esp+44]
	mov	DWORD PTR [esp+4], eax
	mov	DWORD PTR [esp], 0
	call	_purple_savedstatus_new
LVL1528:
	mov	DWORD PTR [esp+36], eax
LVL1529:
	.loc 1 2458 0
	mov	DWORD PTR [esp+4], ebp
	mov	DWORD PTR [esp], eax
	call	_purple_savedstatus_set_message
LVL1530:
	.loc 1 2459 0
	cmp	DWORD PTR [ebx+80], 0
	je	L942
LBB214:
	.loc 1 2460 0
	call	_purple_accounts_get_all_active
LVL1531:
	mov	ebx, eax
LVL1532:
	.loc 1 2461 0
	mov	esi, eax
	mov	edi, DWORD PTR [esp+36]
	test	eax, eax
	je	L945
LVL1533:
L983:
	.loc 1 2462 0 discriminator 2
	mov	DWORD PTR [esp+12], ebp
	mov	eax, DWORD PTR [esp+40]
	mov	DWORD PTR [esp+8], eax
	mov	eax, DWORD PTR [esi]
	mov	DWORD PTR [esp+4], eax
	mov	DWORD PTR [esp], edi
	call	_purple_savedstatus_set_substatus
LVL1534:
	.loc 1 2461 0 discriminator 2
	mov	esi, DWORD PTR [esi+4]
LVL1535:
	test	esi, esi
	jne	L983
L945:
	.loc 1 2465 0
	mov	DWORD PTR [esp], ebx
	call	_g_list_free
LVL1536:
	jmp	L942
LVL1537:
L1004:
LBE214:
LBE218:
	.loc 1 2511 0
	call	___stack_chk_fail
LVL1538:
L1013:
LBB219:
	.loc 1 2402 0 discriminator 1
	mov	eax, DWORD PTR [esp+36]
	mov	DWORD PTR [esp], eax
	call	_purple_savedstatus_has_substatuses
LVL1539:
	.loc 1 2401 0 discriminator 1
	test	eax, eax
	jne	L962
	.loc 1 2403 0
	mov	eax, DWORD PTR [esp+36]
	mov	DWORD PTR [esp], eax
	call	_purple_savedstatus_get_message
LVL1540:
	mov	DWORD PTR [esp+4], ebp
	mov	DWORD PTR [esp], eax
	call	_purple_strequal
LVL1541:
	.loc 1 2402 0
	test	eax, eax
	jne	L946
	jmp	L962
LBE219:
	.cfi_endproc
LFE160:
	.section .rdata,"dr"
LC91:
	.ascii "insert\0"
LC92:
	.ascii "selection_bound\0"
	.text
	.p2align 2,,3
	.def	_treeview_activate_current_selection;	.scl	3;	.type	32;	.endef
_treeview_activate_current_selection:
LFB136:
	.loc 1 1559 0
	.cfi_startproc
LVL1542:
	push	ebp
LCFI541:
	.cfi_def_cfa_offset 8
	.cfi_offset 5, -8
	push	edi
LCFI542:
	.cfi_def_cfa_offset 12
	.cfi_offset 7, -12
	push	esi
LCFI543:
	.cfi_def_cfa_offset 16
	.cfi_offset 6, -16
	push	ebx
LCFI544:
	.cfi_def_cfa_offset 20
	.cfi_offset 3, -20
	sub	esp, 204
LCFI545:
	.cfi_def_cfa_offset 224
	mov	ebx, eax
	mov	edi, edx
	.loc 1 1559 0
	mov	eax, DWORD PTR ___stack_chk_guard
	mov	DWORD PTR [esp+188], eax
	xor	eax, eax
LVL1543:
	.loc 1 1560 0
	mov	eax, DWORD PTR [ebx+304]
	test	eax, eax
	je	L1015
	.loc 1 1561 0
	mov	DWORD PTR [esp], eax
	call	_gtk_tree_row_reference_free
LVL1544:
L1015:
	.loc 1 1563 0
	call	_gtk_tree_model_get_type
LVL1545:
	mov	esi, eax
	mov	DWORD PTR [esp+4], eax
	mov	eax, DWORD PTR [ebx+72]
	mov	DWORD PTR [esp], eax
	call	_g_type_check_instance_cast
LVL1546:
	mov	DWORD PTR [esp+4], edi
	mov	DWORD PTR [esp], eax
	call	_gtk_tree_row_reference_new
LVL1547:
	mov	DWORD PTR [ebx+304], eax
	.loc 1 1564 0
	mov	eax, ebx
	call	_pidgin_status_box_popdown
LVL1548:
LBB227:
LBB228:
	.loc 1 2605 0
	mov	eax, DWORD PTR [ebx+304]
	mov	DWORD PTR [esp], eax
	call	_gtk_tree_row_reference_get_path
LVL1549:
	mov	edi, eax
LVL1550:
	.loc 1 2614 0
	mov	DWORD PTR [esp+4], esi
	mov	eax, DWORD PTR [ebx+72]
LVL1551:
	mov	DWORD PTR [esp], eax
	call	_g_type_check_instance_cast
LVL1552:
	mov	DWORD PTR [esp+8], edi
	lea	ebp, [esp+60]
	mov	DWORD PTR [esp+4], ebp
	mov	DWORD PTR [esp], eax
	call	_gtk_tree_model_get_iter
LVL1553:
	test	eax, eax
	jne	L1073
LVL1554:
L1014:
LBE228:
LBE227:
	.loc 1 1566 0
	mov	edx, DWORD PTR [esp+188]
	xor	edx, DWORD PTR ___stack_chk_guard
	jne	L1074
	add	esp, 204
LCFI546:
	.cfi_remember_state
	.cfi_def_cfa_offset 20
	pop	ebx
LCFI547:
	.cfi_restore 3
	.cfi_def_cfa_offset 16
LVL1555:
	pop	esi
LCFI548:
	.cfi_restore 6
	.cfi_def_cfa_offset 12
	pop	edi
LCFI549:
	.cfi_restore 7
	.cfi_def_cfa_offset 8
	pop	ebp
LCFI550:
	.cfi_restore 5
	.cfi_def_cfa_offset 4
	ret
LVL1556:
	.p2align 2,,3
L1073:
LCFI551:
	.cfi_restore_state
LBB239:
LBB238:
	.loc 1 2616 0
	mov	DWORD PTR [esp], edi
	call	_gtk_tree_path_get_indices
LVL1557:
	mov	edx, DWORD PTR [eax]
LVL1558:
	.loc 1 2617 0
	mov	DWORD PTR [esp], edi
	mov	DWORD PTR [esp+40], edx
	call	_gtk_tree_path_free
LVL1559:
	.loc 1 2618 0
	mov	DWORD PTR [esp+4], 80
	mov	DWORD PTR [esp], ebx
	call	_g_type_check_instance_cast
LVL1560:
	mov	edx, DWORD PTR [esp+40]
	mov	DWORD PTR [esp+8], edx
	mov	DWORD PTR [esp+4], OFFSET FLAT:LC90
	mov	DWORD PTR [esp], eax
	call	_g_object_set_data
LVL1561:
	.loc 1 2620 0
	mov	DWORD PTR [esp+4], esi
	mov	eax, DWORD PTR [ebx+72]
	mov	DWORD PTR [esp], eax
	call	_g_type_check_instance_cast
LVL1562:
	mov	DWORD PTR [esp+24], -1
	lea	edx, [esp+56]
	mov	DWORD PTR [esp+20], edx
	mov	DWORD PTR [esp+16], 6
	lea	edx, [esp+52]
	mov	DWORD PTR [esp+12], edx
	mov	DWORD PTR [esp+8], 0
	mov	DWORD PTR [esp+4], ebp
	mov	DWORD PTR [esp], eax
	call	_gtk_tree_model_get
LVL1563:
	.loc 1 2624 0
	mov	eax, DWORD PTR [ebx+236]
	xor	edx, edx
	test	eax, eax
	setne	dl
	mov	esi, edx
	jne	L1075
L1017:
	.loc 1 2626 0
	mov	DWORD PTR [ebx+236], 0
	.loc 1 2628 0
	call	_gtk_object_get_type
LVL1564:
	mov	edi, eax
LVL1565:
	call	_gtk_widget_get_type
LVL1566:
	mov	ebp, eax
	mov	DWORD PTR [esp+4], eax
	mov	DWORD PTR [esp], ebx
	call	_g_type_check_instance_cast
LVL1567:
	mov	DWORD PTR [esp+4], edi
	mov	DWORD PTR [esp], eax
	call	_g_type_check_instance_cast
LVL1568:
	test	BYTE PTR [eax+13], 2
	jne	L1076
LVL1569:
L1018:
	.loc 1 2669 0
	mov	eax, DWORD PTR [ebx+76]
	test	eax, eax
	je	L1027
	.loc 1 2670 0
	mov	DWORD PTR [esp+4], eax
	mov	DWORD PTR [esp], 0
	call	_g_list_prepend
LVL1570:
	mov	DWORD PTR [esp+44], eax
LVL1571:
L1028:
	.loc 1 2673 0
	mov	DWORD PTR [ebx+140], 0
LVL1572:
	.loc 1 2674 0
	mov	esi, DWORD PTR [esp+44]
	test	esi, esi
	je	L1030
LVL1573:
	.p2align 2,,3
L1058:
LBB229:
	.loc 1 2680 0
	mov	eax, DWORD PTR [esp+56]
	mov	DWORD PTR [esp+4], eax
	mov	eax, DWORD PTR [esi]
	mov	DWORD PTR [esp], eax
	call	_purple_account_get_status_type_with_primitive
LVL1574:
	.loc 1 2681 0
	test	eax, eax
	je	L1031
	.loc 1 2682 0
	mov	DWORD PTR [esp+4], OFFSET FLAT:LC18
	mov	DWORD PTR [esp], eax
	call	_purple_status_type_get_attr
LVL1575:
	.loc 1 2681 0
	test	eax, eax
	jne	L1077
L1031:
LBE229:
	.loc 1 2674 0
	mov	esi, DWORD PTR [esi+4]
LVL1576:
	test	esi, esi
	jne	L1058
L1030:
	.loc 1 2688 0
	mov	eax, DWORD PTR [esp+44]
	mov	DWORD PTR [esp], eax
	call	_g_list_free
LVL1577:
	.loc 1 2690 0
	mov	DWORD PTR [esp+4], ebp
	mov	DWORD PTR [esp], ebx
	call	_g_type_check_instance_cast
LVL1578:
	mov	DWORD PTR [esp+4], edi
	mov	DWORD PTR [esp], eax
	call	_g_type_check_instance_cast
LVL1579:
	test	BYTE PTR [eax+13], 2
	jne	L1078
LVL1580:
L1035:
	.loc 1 2714 0
	mov	eax, ebx
	call	_pidgin_status_box_refresh
LVL1581:
	jmp	L1014
LVL1582:
	.p2align 2,,3
L1078:
	.loc 1 2690 0
	mov	DWORD PTR [esp+4], ebp
	mov	DWORD PTR [esp], ebx
	call	_g_type_check_instance_cast
LVL1583:
	mov	DWORD PTR [esp+4], edi
	mov	DWORD PTR [esp], eax
	call	_g_type_check_instance_cast
LVL1584:
	test	BYTE PTR [eax+13], 4
	je	L1035
	.loc 1 2692 0
	mov	eax, DWORD PTR [ebx+140]
	test	eax, eax
LBB230:
	.loc 1 2696 0
	mov	eax, DWORD PTR [ebx+84]
	mov	DWORD PTR [esp], eax
LBE230:
	.loc 1 2692 0
	je	L1037
LBB231:
	.loc 1 2696 0
	call	_gtk_widget_show_all
LVL1585:
	.loc 1 2697 0
	mov	DWORD PTR [esp+8], ebx
	mov	DWORD PTR [esp+4], OFFSET FLAT:_remove_typing_cb
	mov	DWORD PTR [esp], 4
	call	_purple_timeout_add_seconds
LVL1586:
	mov	DWORD PTR [ebx+236], eax
	.loc 1 2698 0
	mov	eax, DWORD PTR [ebx+92]
	mov	DWORD PTR [esp], eax
	call	_gtk_widget_grab_focus
LVL1587:
	.loc 1 2699 0
	call	_gtk_text_view_get_type
LVL1588:
	mov	DWORD PTR [esp+4], eax
	mov	eax, DWORD PTR [ebx+92]
	mov	DWORD PTR [esp], eax
	call	_g_type_check_instance_cast
LVL1589:
	mov	DWORD PTR [esp], eax
	call	_gtk_text_view_get_buffer
LVL1590:
	mov	esi, eax
LVL1591:
	.loc 1 2702 0
	call	_gtk_imhtml_get_type
LVL1592:
	mov	DWORD PTR [esp+4], eax
	mov	eax, DWORD PTR [ebx+92]
	mov	DWORD PTR [esp], eax
	call	_g_type_check_instance_cast
LVL1593:
	.loc 1 2701 0
	mov	DWORD PTR [esp+4], 0
	mov	DWORD PTR [esp], eax
	call	_gtk_imhtml_set_populate_primary_clipboard
LVL1594:
	.loc 1 2704 0
	lea	ebp, [esp+132]
	mov	DWORD PTR [esp+8], ebp
	lea	edi, [esp+76]
	mov	DWORD PTR [esp+4], edi
	mov	DWORD PTR [esp], esi
	call	_gtk_text_buffer_get_bounds
LVL1595:
	.loc 1 2705 0
	mov	DWORD PTR [esp+4], OFFSET FLAT:LC91
	mov	DWORD PTR [esp], esi
	call	_gtk_text_buffer_get_mark
LVL1596:
	mov	DWORD PTR [esp+8], ebp
	mov	DWORD PTR [esp+4], eax
	mov	DWORD PTR [esp], esi
	call	_gtk_text_buffer_move_mark
LVL1597:
	.loc 1 2706 0
	mov	DWORD PTR [esp+4], OFFSET FLAT:LC92
	mov	DWORD PTR [esp], esi
	call	_gtk_text_buffer_get_mark
LVL1598:
	mov	DWORD PTR [esp+8], edi
	mov	DWORD PTR [esp+4], eax
	mov	DWORD PTR [esp], esi
	call	_gtk_text_buffer_move_mark
LVL1599:
	jmp	L1035
LVL1600:
	.p2align 2,,3
L1077:
LBE231:
LBB232:
	.loc 1 2684 0
	mov	DWORD PTR [ebx+140], 1
	jmp	L1030
LVL1601:
	.p2align 2,,3
L1076:
LBE232:
	.loc 1 2628 0
	mov	DWORD PTR [esp+4], ebp
	mov	DWORD PTR [esp], ebx
	call	_g_type_check_instance_cast
LVL1602:
	mov	DWORD PTR [esp+4], edi
	mov	DWORD PTR [esp], eax
	call	_g_type_check_instance_cast
LVL1603:
	test	BYTE PTR [eax+13], 4
	je	L1018
LVL1604:
	.loc 1 2630 0
	mov	eax, DWORD PTR [esp+52]
	lea	edx, [eax-2]
	cmp	edx, 1
	jbe	L1079
	.loc 1 2639 0
	cmp	eax, 4
	je	L1080
	.loc 1 2654 0
	cmp	eax, 5
	jne	L1018
	.loc 1 2656 0
	call	_pidgin_status_window_show
LVL1605:
L1072:
LBB233:
	.loc 1 2648 0
	mov	edx, esi
	mov	eax, ebx
	call	_status_menu_refresh_iter
LVL1606:
	.loc 1 2649 0
	test	esi, esi
	je	L1014
	jmp	L1035
LVL1607:
	.p2align 2,,3
L1075:
LBE233:
	.loc 1 2625 0
	mov	DWORD PTR [esp], eax
	call	_purple_timeout_remove
LVL1608:
	jmp	L1017
LVL1609:
L1037:
	.loc 1 2710 0
	call	_gtk_widget_hide_all
LVL1610:
	.loc 1 2711 0
	mov	eax, ebx
	call	_activate_currently_selected_status
LVL1611:
	jmp	L1035
LVL1612:
	.p2align 2,,3
L1027:
	.loc 1 2672 0
	call	_purple_accounts_get_all_active
LVL1613:
	mov	DWORD PTR [esp+44], eax
LVL1614:
	jmp	L1028
LVL1615:
L1079:
LBB234:
	.loc 1 2633 0
	mov	eax, DWORD PTR [esp+56]
	mov	DWORD PTR [esp], eax
	call	_purple_savedstatus_find_by_creation_time
LVL1616:
LBB235:
	.loc 1 2634 0
	test	eax, eax
	je	L1081
LVL1617:
LBE235:
	.loc 1 2635 0
	mov	DWORD PTR [esp], eax
	call	_purple_savedstatus_activate
LVL1618:
	jmp	L1014
LVL1619:
L1080:
LBE234:
LBB236:
	.loc 1 2642 0
	call	_purple_savedstatus_get_current
LVL1620:
	mov	edi, eax
LVL1621:
	.loc 1 2643 0
	mov	DWORD PTR [esp], eax
	call	_purple_savedstatus_get_type
LVL1622:
	cmp	eax, 2
	je	L1082
L1023:
	.loc 1 2646 0
	mov	DWORD PTR [esp], edi
	call	_purple_savedstatus_is_transient
LVL1623:
	.loc 1 2645 0
	test	eax, eax
	jne	L1024
	xor	edi, edi
LVL1624:
L1024:
	mov	DWORD PTR [esp+4], edi
	mov	DWORD PTR [esp], 0
	call	_pidgin_status_editor_show
LVL1625:
	jmp	L1072
LVL1626:
L1082:
	.loc 1 2644 0
	mov	DWORD PTR [esp+4], 5
	mov	DWORD PTR [esp], 0
	call	_purple_savedstatus_new
LVL1627:
	mov	edi, eax
LVL1628:
	jmp	L1023
LVL1629:
L1081:
LBE236:
LBB237:
	.loc 1 2634 0
	mov	DWORD PTR [esp+8], OFFSET FLAT:LC21
	mov	DWORD PTR [esp+4], OFFSET FLAT:___PRETTY_FUNCTION__.78815
	mov	DWORD PTR [esp], 0
	call	_g_return_if_fail_warning
LVL1630:
	jmp	L1014
LVL1631:
L1074:
LBE237:
LBE238:
LBE239:
	.loc 1 1566 0
	call	___stack_chk_fail
LVL1632:
	.cfi_endproc
LFE136:
	.section .rdata,"dr"
	.align 4
LC93:
	.ascii "Are you sure you want to delete %s?\0"
LC94:
	.ascii "Cancel\0"
LC95:
	.ascii "Delete\0"
	.text
	.p2align 2,,3
	.def	_treeview_key_press_event;	.scl	3;	.type	32;	.endef
_treeview_key_press_event:
LFB140:
	.loc 1 1661 0
	.cfi_startproc
LVL1633:
	push	ebp
LCFI552:
	.cfi_def_cfa_offset 8
	.cfi_offset 5, -8
	push	edi
LCFI553:
	.cfi_def_cfa_offset 12
	.cfi_offset 7, -12
	push	esi
LCFI554:
	.cfi_def_cfa_offset 16
	.cfi_offset 6, -16
	push	ebx
LCFI555:
	.cfi_def_cfa_offset 20
	.cfi_offset 3, -20
	sub	esp, 140
LCFI556:
	.cfi_def_cfa_offset 160
	mov	esi, DWORD PTR [esp+164]
	mov	ebx, DWORD PTR [esp+168]
	.loc 1 1661 0
	mov	eax, DWORD PTR ___stack_chk_guard
	mov	DWORD PTR [esp+124], eax
	xor	eax, eax
	.loc 1 1662 0
	mov	eax, DWORD PTR [ebx+300]
	test	eax, eax
	je	L1099
	.loc 1 1663 0
	cmp	DWORD PTR [esi+20], 65307
	je	L1112
LVL1634:
LBB249:
LBB250:
LBB251:
	.loc 1 1667 0
	call	_gtk_tree_view_get_type
LVL1635:
	mov	DWORD PTR [esp+4], eax
	mov	eax, DWORD PTR [ebx+296]
	mov	DWORD PTR [esp], eax
	call	_g_type_check_instance_cast
LVL1636:
	mov	DWORD PTR [esp], eax
	call	_gtk_tree_view_get_selection
LVL1637:
	.loc 1 1671 0
	lea	edi, [esp+92]
	mov	DWORD PTR [esp+8], edi
	mov	DWORD PTR [esp+4], 0
	mov	DWORD PTR [esp], eax
	call	_gtk_tree_selection_get_selected
LVL1638:
	test	eax, eax
	jne	L1113
LVL1639:
L1099:
LBE251:
LBE250:
LBE249:
	.loc 1 1686 0
	xor	eax, eax
LVL1640:
L1084:
	.loc 1 1687 0
	mov	edx, DWORD PTR [esp+124]
	xor	edx, DWORD PTR ___stack_chk_guard
	jne	L1114
	add	esp, 140
LCFI557:
	.cfi_remember_state
	.cfi_def_cfa_offset 20
	pop	ebx
LCFI558:
	.cfi_restore 3
	.cfi_def_cfa_offset 16
	pop	esi
LCFI559:
	.cfi_restore 6
	.cfi_def_cfa_offset 12
	pop	edi
LCFI560:
	.cfi_restore 7
	.cfi_def_cfa_offset 8
	pop	ebp
LCFI561:
	.cfi_restore 5
	.cfi_def_cfa_offset 4
	ret
LVL1641:
	.p2align 2,,3
L1113:
LCFI562:
	.cfi_restore_state
LBB268:
LBB265:
LBB262:
LBB252:
	.loc 1 1673 0
	call	_gtk_tree_model_get_type
LVL1642:
	mov	ebp, eax
	mov	DWORD PTR [esp+4], eax
	mov	eax, DWORD PTR [ebx+72]
	mov	DWORD PTR [esp], eax
	call	_g_type_check_instance_cast
LVL1643:
	mov	DWORD PTR [esp+4], edi
	mov	DWORD PTR [esp], eax
	call	_gtk_tree_model_get_path
LVL1644:
	mov	edi, eax
LVL1645:
	.loc 1 1674 0
	mov	eax, DWORD PTR [esi+20]
LVL1646:
	cmp	eax, 65293
	je	L1115
	.loc 1 1676 0
	cmp	eax, 65535
	je	L1116
	.loc 1 1679 0
	xor	eax, eax
LVL1647:
L1088:
	.loc 1 1681 0
	mov	DWORD PTR [esp], edi
	mov	DWORD PTR [esp+76], eax
	call	_gtk_tree_path_free
LVL1648:
	mov	eax, DWORD PTR [esp+76]
	jmp	L1084
LVL1649:
	.p2align 2,,3
L1112:
LBE252:
LBE262:
LBE265:
LBE268:
	.loc 1 1664 0
	mov	eax, ebx
	call	_pidgin_status_box_popdown
LVL1650:
	.loc 1 1665 0
	mov	eax, 1
	jmp	L1084
LVL1651:
	.p2align 2,,3
L1116:
LBB269:
LBB266:
LBB263:
LBB260:
LBB253:
LBB254:
	.loc 1 1587 0
	mov	eax, DWORD PTR [ebx+304]
	test	eax, eax
	je	L1092
	.loc 1 1589 0
	mov	DWORD PTR [esp], eax
	call	_gtk_tree_row_reference_get_path
LVL1652:
	mov	DWORD PTR [esp+4], eax
	mov	DWORD PTR [esp], edi
	call	_gtk_tree_path_compare
LVL1653:
	test	eax, eax
	je	L1096
L1092:
	.loc 1 1593 0
	mov	DWORD PTR [esp+4], ebp
	mov	eax, DWORD PTR [ebx+72]
	mov	DWORD PTR [esp], eax
	call	_g_type_check_instance_cast
LVL1654:
	mov	DWORD PTR [esp+8], edi
	lea	esi, [esp+108]
LVL1655:
	mov	DWORD PTR [esp+4], esi
	mov	DWORD PTR [esp], eax
	call	_gtk_tree_model_get_iter
LVL1656:
	test	eax, eax
	jne	L1117
LVL1657:
L1096:
	.loc 1 1672 0
	mov	eax, 1
	jmp	L1088
LVL1658:
L1115:
LBE254:
LBE253:
	.loc 1 1675 0
	mov	edx, edi
	mov	eax, ebx
	call	_treeview_activate_current_selection
LVL1659:
	.loc 1 1672 0
	mov	eax, 1
	jmp	L1088
LVL1660:
L1117:
LBB258:
LBB256:
	.loc 1 1596 0
	mov	DWORD PTR [esp+4], ebp
	mov	eax, DWORD PTR [ebx+72]
	mov	DWORD PTR [esp], eax
	call	_g_type_check_instance_cast
LVL1661:
	mov	DWORD PTR [esp+16], -1
	lea	edx, [esp+88]
	mov	DWORD PTR [esp+12], edx
	mov	DWORD PTR [esp+8], 6
	mov	DWORD PTR [esp+4], esi
	mov	DWORD PTR [esp], eax
	call	_gtk_tree_model_get
LVL1662:
	.loc 1 1600 0
	mov	eax, DWORD PTR [esp+88]
	mov	DWORD PTR [esp], eax
	call	_purple_savedstatus_find_by_creation_time
LVL1663:
	mov	esi, eax
LVL1664:
LBB255:
	.loc 1 1601 0
	test	eax, eax
	je	L1118
LVL1665:
LBE255:
	.loc 1 1602 0
	call	_purple_savedstatus_get_current
LVL1666:
	cmp	esi, eax
	je	L1096
	.loc 1 1605 0
	mov	DWORD PTR [esp], esi
	call	_purple_savedstatus_get_title
LVL1667:
	mov	ebp, eax
	mov	DWORD PTR [esp+4], OFFSET FLAT:LC93
	mov	DWORD PTR [esp], OFFSET FLAT:LC12
	call	_libintl_dgettext
LVL1668:
	mov	DWORD PTR [esp+4], ebp
	mov	DWORD PTR [esp], eax
	call	_g_strdup_printf
LVL1669:
	mov	ebp, eax
LVL1670:
	.loc 1 1611 0
	mov	DWORD PTR [esp+4], OFFSET FLAT:LC94
	mov	DWORD PTR [esp], OFFSET FLAT:LC12
	call	_libintl_dgettext
LVL1671:
	.loc 1 1610 0
	mov	DWORD PTR [esp+4], OFFSET FLAT:LC95
	mov	DWORD PTR [esp], OFFSET FLAT:LC12
	mov	DWORD PTR [esp+76], eax
	call	_libintl_dgettext
LVL1672:
	.loc 1 1607 0
	mov	DWORD PTR [esp+52], 0
	mov	edx, DWORD PTR [esp+76]
	mov	DWORD PTR [esp+48], edx
	mov	DWORD PTR [esp+44], OFFSET FLAT:_tree_view_delete_current_selection_cb
	mov	DWORD PTR [esp+40], eax
	mov	DWORD PTR [esp+36], 2
	mov	eax, DWORD PTR [esp+88]
	mov	DWORD PTR [esp+32], eax
	mov	DWORD PTR [esp+28], 0
	mov	DWORD PTR [esp+24], 0
	mov	DWORD PTR [esp+20], 0
	mov	DWORD PTR [esp+16], 0
	mov	DWORD PTR [esp+12], 0
	mov	DWORD PTR [esp+8], ebp
	mov	DWORD PTR [esp+4], 0
	mov	DWORD PTR [esp], esi
	call	_purple_request_action
LVL1673:
	.loc 1 1613 0
	mov	DWORD PTR [esp], ebp
	call	_g_free
LVL1674:
	.loc 1 1615 0
	mov	eax, ebx
	call	_pidgin_status_box_popdown
LVL1675:
	.loc 1 1672 0
	mov	eax, 1
	jmp	L1088
LVL1676:
L1114:
LBE256:
LBE258:
LBE260:
LBE263:
LBE266:
LBE269:
	.loc 1 1687 0
	call	___stack_chk_fail
LVL1677:
L1118:
LBB270:
LBB267:
LBB264:
LBB261:
LBB259:
LBB257:
	.loc 1 1601 0
	mov	DWORD PTR [esp+8], OFFSET FLAT:LC21
	mov	DWORD PTR [esp+4], OFFSET FLAT:___PRETTY_FUNCTION__.78573
	mov	DWORD PTR [esp], 0
	call	_g_return_if_fail_warning
LVL1678:
	jmp	L1096
LBE257:
LBE259:
LBE261:
LBE264:
LBE267:
LBE270:
	.cfi_endproc
LFE140:
	.p2align 2,,3
	.def	_treeview_button_release_cb;	.scl	3;	.type	32;	.endef
_treeview_button_release_cb:
LFB139:
	.loc 1 1620 0
	.cfi_startproc
LVL1679:
	push	ebp
LCFI563:
	.cfi_def_cfa_offset 8
	.cfi_offset 5, -8
	push	edi
LCFI564:
	.cfi_def_cfa_offset 12
	.cfi_offset 7, -12
	push	esi
LCFI565:
	.cfi_def_cfa_offset 16
	.cfi_offset 6, -16
	push	ebx
LCFI566:
	.cfi_def_cfa_offset 20
	.cfi_offset 3, -20
	sub	esp, 76
LCFI567:
	.cfi_def_cfa_offset 96
	mov	esi, DWORD PTR [esp+100]
	mov	ebx, DWORD PTR [esp+104]
	.loc 1 1620 0
	mov	eax, DWORD PTR ___stack_chk_guard
	mov	DWORD PTR [esp+60], eax
	xor	eax, eax
	.loc 1 1621 0
	mov	DWORD PTR [esp+56], 0
LVL1680:
	.loc 1 1623 0
	mov	DWORD PTR [esp], esi
	call	_gtk_get_event_widget
LVL1681:
	.loc 1 1625 0
	mov	edi, DWORD PTR [ebx+296]
	cmp	edi, eax
	je	L1120
	.loc 1 1626 0
	mov	esi, DWORD PTR [ebx+264]
	cmp	esi, eax
	je	L1130
LVL1682:
L1126:
	.loc 1 1629 0
	mov	eax, ebx
	call	_pidgin_status_box_popdown
LVL1683:
	.loc 1 1630 0
	mov	eax, 1
L1123:
	.loc 1 1656 0
	mov	edx, DWORD PTR [esp+60]
	xor	edx, DWORD PTR ___stack_chk_guard
	jne	L1131
	add	esp, 76
LCFI568:
	.cfi_remember_state
	.cfi_def_cfa_offset 20
	pop	ebx
LCFI569:
	.cfi_restore 3
	.cfi_def_cfa_offset 16
	pop	esi
LCFI570:
	.cfi_restore 6
	.cfi_def_cfa_offset 12
	pop	edi
LCFI571:
	.cfi_restore 7
	.cfi_def_cfa_offset 8
	pop	ebp
LCFI572:
	.cfi_restore 5
	.cfi_def_cfa_offset 4
	ret
LVL1684:
	.p2align 2,,3
L1130:
LCFI573:
	.cfi_restore_state
	.loc 1 1626 0 discriminator 1
	mov	eax, DWORD PTR [ebx+300]
LVL1685:
	test	eax, eax
	jne	L1122
L1125:
	.loc 1 1632 0
	mov	DWORD PTR [ebx+300], 1
	.loc 1 1641 0
	xor	eax, eax
	jmp	L1123
LVL1686:
	.p2align 2,,3
L1120:
	.loc 1 1644 0
	fld	QWORD PTR [esi+24]
	fnstcw	WORD PTR [esp+46]
	mov	ax, WORD PTR [esp+46]
LVL1687:
	mov	ah, 12
	mov	WORD PTR [esp+44], ax
	fldcw	WORD PTR [esp+44]
	fistp	DWORD PTR [esp+40]
	fldcw	WORD PTR [esp+46]
	mov	ebp, DWORD PTR [esp+40]
	fld	QWORD PTR [esi+16]
	fldcw	WORD PTR [esp+44]
	fistp	DWORD PTR [esp+40]
	fldcw	WORD PTR [esp+46]
	mov	esi, DWORD PTR [esp+40]
	call	_gtk_tree_view_get_type
LVL1688:
	mov	DWORD PTR [esp+4], eax
	mov	DWORD PTR [esp], edi
	call	_g_type_check_instance_cast
LVL1689:
	mov	DWORD PTR [esp+24], 0
	mov	DWORD PTR [esp+20], 0
	mov	DWORD PTR [esp+16], 0
	lea	edx, [esp+56]
	mov	DWORD PTR [esp+12], edx
	mov	DWORD PTR [esp+8], ebp
	mov	DWORD PTR [esp+4], esi
	mov	DWORD PTR [esp], eax
	call	_gtk_tree_view_get_path_at_pos
LVL1690:
	.loc 1 1649 0
	test	eax, eax
	jne	L1132
	.loc 1 1650 0
	mov	eax, 1
LVL1691:
	jmp	L1123
LVL1692:
	.p2align 2,,3
L1132:
	.loc 1 1652 0
	mov	edx, DWORD PTR [esp+56]
	mov	eax, ebx
LVL1693:
	call	_treeview_activate_current_selection
LVL1694:
	.loc 1 1653 0
	mov	eax, DWORD PTR [esp+56]
	mov	DWORD PTR [esp], eax
	call	_gtk_tree_path_free
LVL1695:
	.loc 1 1655 0
	mov	eax, 1
	jmp	L1123
	.p2align 2,,3
L1122:
	.loc 1 1628 0
	call	_gtk_toggle_button_get_type
LVL1696:
	mov	DWORD PTR [esp+4], eax
	mov	DWORD PTR [esp], esi
	call	_g_type_check_instance_cast
LVL1697:
	mov	DWORD PTR [esp], eax
	call	_gtk_toggle_button_get_active
LVL1698:
	.loc 1 1627 0
	test	eax, eax
	jne	L1126
	.loc 1 1631 0
	cmp	esi, DWORD PTR [ebx+264]
	je	L1125
	jmp	L1126
L1131:
	.loc 1 1656 0
	call	___stack_chk_fail
LVL1699:
	.cfi_endproc
LFE139:
	.p2align 2,,3
	.def	_remove_typing_cb;	.scl	3;	.type	32;	.endef
_remove_typing_cb:
LFB162:
	.loc 1 2585 0
	.cfi_startproc
LVL1700:
	push	ebx
LCFI574:
	.cfi_def_cfa_offset 8
	.cfi_offset 3, -8
	sub	esp, 40
LCFI575:
	.cfi_def_cfa_offset 48
	mov	ebx, DWORD PTR [esp+48]
	.loc 1 2585 0
	mov	eax, DWORD PTR ___stack_chk_guard
	mov	DWORD PTR [esp+28], eax
	xor	eax, eax
	.loc 1 2586 0
	mov	eax, DWORD PTR [ebx+236]
	test	eax, eax
	je	L1140
LVL1701:
LBB273:
LBB274:
	.loc 1 2594 0
	call	_gtk_imhtml_get_type
LVL1702:
	mov	DWORD PTR [esp+4], eax
	mov	eax, DWORD PTR [ebx+92]
	mov	DWORD PTR [esp], eax
	call	_g_type_check_instance_cast
LVL1703:
	.loc 1 2593 0
	mov	DWORD PTR [esp+4], 1
	mov	DWORD PTR [esp], eax
	call	_gtk_imhtml_set_populate_primary_clipboard
LVL1704:
	.loc 1 2596 0
	mov	eax, DWORD PTR [ebx+236]
	mov	DWORD PTR [esp], eax
	call	_purple_timeout_remove
LVL1705:
	.loc 1 2597 0
	mov	DWORD PTR [ebx+236], 0
	.loc 1 2599 0
	mov	eax, ebx
	call	_activate_currently_selected_status
LVL1706:
	.loc 1 2600 0
	mov	eax, DWORD PTR [esp+28]
	xor	eax, DWORD PTR ___stack_chk_guard
	jne	L1139
	mov	eax, ebx
LBE274:
LBE273:
	.loc 1 2601 0
	add	esp, 40
LCFI576:
	.cfi_remember_state
	.cfi_def_cfa_offset 8
	pop	ebx
LCFI577:
	.cfi_restore 3
	.cfi_def_cfa_offset 4
LVL1707:
LBB277:
LBB275:
	.loc 1 2600 0
	jmp	_pidgin_status_box_refresh
LVL1708:
	.p2align 2,,3
L1140:
LCFI578:
	.cfi_restore_state
LBE275:
LBE277:
	.loc 1 2589 0
	mov	eax, DWORD PTR [esp+28]
	xor	eax, DWORD PTR ___stack_chk_guard
	jne	L1139
	xor	edx, edx
	mov	eax, ebx
	.loc 1 2601 0
	add	esp, 40
LCFI579:
	.cfi_remember_state
	.cfi_def_cfa_offset 8
	pop	ebx
LCFI580:
	.cfi_restore 3
	.cfi_def_cfa_offset 4
	.loc 1 2589 0
	jmp	_status_menu_refresh_iter
LVL1709:
L1139:
LCFI581:
	.cfi_restore_state
LBB278:
LBB276:
	.loc 1 2600 0
	call	___stack_chk_fail
LVL1710:
LBE276:
LBE278:
	.cfi_endproc
LFE162:
.lcomm _status_box_type.78192,4,4
	.section .rdata,"dr"
	.align 32
_status_box_info.78193:
	.word	436
	.space 2
	.long	0
	.long	0
	.long	_pidgin_status_box_class_init
	.long	0
	.long	0
	.word	308
	.word	0
	.long	_pidgin_status_box_init
	.long	0
LC97:
	.ascii "pidgin-anim-typing0\0"
LC98:
	.ascii "pidgin-anim-typing1\0"
LC99:
	.ascii "pidgin-anim-typing2\0"
LC100:
	.ascii "pidgin-anim-typing3\0"
LC101:
	.ascii "pidgin-anim-typing4\0"
	.align 4
_typing_stock_ids:
	.long	LC97
	.long	LC98
	.long	LC99
	.long	LC100
	.long	LC101
	.long	0
	.space 4
LC102:
	.ascii "pidgin-anim-connect0\0"
LC103:
	.ascii "pidgin-anim-connect1\0"
LC104:
	.ascii "pidgin-anim-connect2\0"
LC105:
	.ascii "pidgin-anim-connect3\0"
LC106:
	.ascii "pidgin-anim-connect4\0"
LC107:
	.ascii "pidgin-anim-connect5\0"
LC108:
	.ascii "pidgin-anim-connect6\0"
LC109:
	.ascii "pidgin-anim-connect7\0"
LC110:
	.ascii "pidgin-anim-connect8\0"
LC111:
	.ascii "pidgin-anim-connect9\0"
LC112:
	.ascii "pidgin-anim-connect10\0"
LC113:
	.ascii "pidgin-anim-connect11\0"
LC114:
	.ascii "pidgin-anim-connect12\0"
LC115:
	.ascii "pidgin-anim-connect13\0"
LC116:
	.ascii "pidgin-anim-connect14\0"
LC117:
	.ascii "pidgin-anim-connect15\0"
LC118:
	.ascii "pidgin-anim-connect16\0"
LC119:
	.ascii "pidgin-anim-connect17\0"
LC120:
	.ascii "pidgin-anim-connect18\0"
LC121:
	.ascii "pidgin-anim-connect19\0"
LC122:
	.ascii "pidgin-anim-connect20\0"
LC123:
	.ascii "pidgin-anim-connect21\0"
LC124:
	.ascii "pidgin-anim-connect22\0"
LC125:
	.ascii "pidgin-anim-connect23\0"
LC126:
	.ascii "pidgin-anim-connect24\0"
LC127:
	.ascii "pidgin-anim-connect25\0"
LC128:
	.ascii "pidgin-anim-connect26\0"
LC129:
	.ascii "pidgin-anim-connect27\0"
LC130:
	.ascii "pidgin-anim-connect28\0"
LC131:
	.ascii "pidgin-anim-connect29\0"
LC132:
	.ascii "pidgin-anim-connect30\0"
	.align 32
_connecting_stock_ids:
	.long	LC102
	.long	LC103
	.long	LC104
	.long	LC105
	.long	LC106
	.long	LC107
	.long	LC108
	.long	LC109
	.long	LC110
	.long	LC111
	.long	LC112
	.long	LC113
	.long	LC114
	.long	LC115
	.long	LC116
	.long	LC117
	.long	LC118
	.long	LC119
	.long	LC120
	.long	LC121
	.long	LC122
	.long	LC123
	.long	LC124
	.long	LC125
	.long	LC126
	.long	LC127
	.long	LC128
	.long	LC129
	.long	LC130
	.long	LC131
	.long	LC132
	.long	0
	.align 32
___PRETTY_FUNCTION__.78573:
	.ascii "tree_view_delete_current_selection\0"
	.align 32
___PRETTY_FUNCTION__.78562:
	.ascii "tree_view_delete_current_selection_cb\0"
___PRETTY_FUNCTION__.78815:
	.ascii "pidgin_status_box_changed\0"
.lcomm _parent_class,4,4
LC133:
	.ascii "text/plain\0"
LC134:
	.ascii "text/uri-list\0"
LC135:
	.ascii "STRING\0"
	.align 32
_dnd_targets:
	.long	LC133
	.long	0
	.long	0
	.long	LC134
	.long	0
	.long	1
	.long	LC135
	.long	0
	.long	2
	.text
Letext0:
	.file 2 "c:/workspace/pidgin-devel/win32-dev/mingw-4.7.2/bin/../lib/gcc/mingw32/4.7.2/../../../../include/stdio.h"
	.file 3 "c:/workspace/pidgin-devel/win32-dev/mingw-4.7.2/bin/../lib/gcc/mingw32/4.7.2/include/stddef.h"
	.file 4 "c:/workspace/pidgin-devel/win32-dev/mingw-4.7.2/bin/../lib/gcc/mingw32/4.7.2/../../../../include/sys/types.h"
	.file 5 "c:/workspace/pidgin-devel/win32-dev/mingw-4.7.2/bin/../lib/gcc/mingw32/4.7.2/../../../../include/time.h"
	.file 6 "../../win32-dev/gtk_2_0-2.14/lib/glib-2.0/include/glibconfig.h"
	.file 7 "../../win32-dev/gtk_2_0-2.14/include/glib-2.0/glib/gtypes.h"
	.file 8 "../../win32-dev/gtk_2_0-2.14/include/glib-2.0/glib/garray.h"
	.file 9 "../../win32-dev/gtk_2_0-2.14/include/glib-2.0/glib/gquark.h"
	.file 10 "../../win32-dev/gtk_2_0-2.14/include/glib-2.0/glib/gerror.h"
	.file 11 "../../win32-dev/gtk_2_0-2.14/include/glib-2.0/glib/glist.h"
	.file 12 "../../win32-dev/gtk_2_0-2.14/include/glib-2.0/glib/gdataset.h"
	.file 13 "../../win32-dev/gtk_2_0-2.14/include/glib-2.0/glib/ghash.h"
	.file 14 "../../win32-dev/gtk_2_0-2.14/include/glib-2.0/glib/gslist.h"
	.file 15 "../../win32-dev/gtk_2_0-2.14/include/glib-2.0/glib/gmain.h"
	.file 16 "../../win32-dev/gtk_2_0-2.14/include/glib-2.0/glib/gunicode.h"
	.file 17 "../../win32-dev/gtk_2_0-2.14/include/glib-2.0/glib/gstring.h"
	.file 18 "../../win32-dev/gtk_2_0-2.14/include/glib-2.0/glib/gmessages.h"
	.file 19 "../../win32-dev/gtk_2_0-2.14/include/glib-2.0/glib/gqueue.h"
	.file 20 "../../win32-dev/gtk_2_0-2.14/include/glib-2.0/glib/gscanner.h"
	.file 21 "../../win32-dev/gtk_2_0-2.14/include/glib-2.0/glib/gtimer.h"
	.file 22 "../../win32-dev/gtk_2_0-2.14/include/glib-2.0/gobject/gtype.h"
	.file 23 "../../win32-dev/gtk_2_0-2.14/include/glib-2.0/gobject/gvalue.h"
	.file 24 "../../win32-dev/gtk_2_0-2.14/include/glib-2.0/gobject/gparam.h"
	.file 25 "../../win32-dev/gtk_2_0-2.14/include/glib-2.0/gobject/gclosure.h"
	.file 26 "../../win32-dev/gtk_2_0-2.14/include/glib-2.0/gobject/gsignal.h"
	.file 27 "../../win32-dev/gtk_2_0-2.14/include/glib-2.0/gobject/gobject.h"
	.file 28 "../libpurple/account.h"
	.file 29 "../libpurple/connection.h"
	.file 30 "../libpurple/signals.h"
	.file 31 "../libpurple/plugin.h"
	.file 32 "../libpurple/pluginpref.h"
	.file 33 "c:/workspace/pidgin-devel/win32-dev/mingw-4.7.2/bin/../lib/gcc/mingw32/4.7.2/../../../../include/wtypes.h"
	.file 34 "../libpurple/prefs.h"
	.file 35 "../libpurple/status.h"
	.file 36 "../libpurple/blist.h"
	.file 37 "../libpurple/buddyicon.h"
	.file 38 "../libpurple/imgstore.h"
	.file 39 "../libpurple/prpl.h"
	.file 40 "../libpurple/conversation.h"
	.file 41 "../libpurple/log.h"
	.file 42 "../libpurple/ft.h"
	.file 43 "../libpurple/media/enum-types.h"
	.file 44 "../libpurple/media/../util.h"
	.file 45 "../libpurple/media/../notify.h"
	.file 46 "../libpurple/proxy.h"
	.file 47 "../libpurple/roomlist.h"
	.file 48 "../libpurple/whiteboard.h"
	.file 49 "../libpurple/privacy.h"
	.file 50 "../libpurple/savedstatuses.h"
	.file 51 "../libpurple/debug.h"
	.file 52 "../../win32-dev/gtk_2_0-2.14/include/glib-2.0/gio/giotypes.h"
	.file 53 "../../win32-dev/gtk_2_0-2.14/include/cairo/cairo.h"
	.file 54 "../../win32-dev/gtk_2_0-2.14/include/pango-1.0/pango/pango-language.h"
	.file 55 "../../win32-dev/gtk_2_0-2.14/include/pango-1.0/pango/pango-font.h"
	.file 56 "../../win32-dev/gtk_2_0-2.14/include/pango-1.0/pango/pango-tabs.h"
	.file 57 "../../win32-dev/gtk_2_0-2.14/include/pango-1.0/pango/pango-layout.h"
	.file 58 "../../win32-dev/gtk_2_0-2.14/include/gtk-2.0/gdk/gdktypes.h"
	.file 59 "../../win32-dev/gtk_2_0-2.14/include/gtk-2.0/gdk/gdkcolor.h"
	.file 60 "../../win32-dev/gtk_2_0-2.14/include/gtk-2.0/gdk/gdkcursor.h"
	.file 61 "../../win32-dev/gtk_2_0-2.14/include/gtk-2.0/gdk/gdkfont.h"
	.file 62 "../../win32-dev/gtk_2_0-2.14/include/gtk-2.0/gdk/gdkgc.h"
	.file 63 "../../win32-dev/gtk_2_0-2.14/include/gtk-2.0/gdk/gdkimage.h"
	.file 64 "../../win32-dev/gtk_2_0-2.14/include/gtk-2.0/gdk/gdkvisual.h"
	.file 65 "../../win32-dev/gtk_2_0-2.14/include/gtk-2.0/gdk/gdkdrawable.h"
	.file 66 "../../win32-dev/gtk_2_0-2.14/include/gtk-2.0/gdk/gdkdisplay.h"
	.file 67 "../../win32-dev/gtk_2_0-2.14/include/gtk-2.0/gdk/gdkscreen.h"
	.file 68 "../../win32-dev/gtk_2_0-2.14/include/gtk-2.0/gdk/gdkdnd.h"
	.file 69 "../../win32-dev/gtk_2_0-2.14/include/gtk-2.0/gdk/gdkinput.h"
	.file 70 "../../win32-dev/gtk_2_0-2.14/include/gtk-2.0/gdk/gdkevents.h"
	.file 71 "../../win32-dev/gtk_2_0-2.14/include/gtk-2.0/gdk-pixbuf/gdk-pixbuf-core.h"
	.file 72 "../../win32-dev/gtk_2_0-2.14/include/gtk-2.0/gdk-pixbuf/gdk-pixbuf-animation.h"
	.file 73 "../../win32-dev/gtk_2_0-2.14/include/gtk-2.0/gdk-pixbuf/gdk-pixbuf-loader.h"
	.file 74 "../../win32-dev/gtk_2_0-2.14/include/gtk-2.0/gdk/gdkwindow.h"
	.file 75 "../../win32-dev/gtk_2_0-2.14/include/gtk-2.0/gtk/gtkenums.h"
	.file 76 "../../win32-dev/gtk_2_0-2.14/include/gtk-2.0/gtk/gtkaccelgroup.h"
	.file 77 "../../win32-dev/gtk_2_0-2.14/include/gtk-2.0/gtk/gtktypeutils.h"
	.file 78 "../../win32-dev/gtk_2_0-2.14/include/gtk-2.0/gtk/gtkobject.h"
	.file 79 "../../win32-dev/gtk_2_0-2.14/include/gtk-2.0/gtk/gtkadjustment.h"
	.file 80 "../../win32-dev/gtk_2_0-2.14/include/gtk-2.0/gtk/gtkstyle.h"
	.file 81 "../../win32-dev/gtk_2_0-2.14/include/gtk-2.0/gtk/gtkrc.h"
	.file 82 "../../win32-dev/gtk_2_0-2.14/include/gtk-2.0/gtk/gtkwidget.h"
	.file 83 "../../win32-dev/gtk_2_0-2.14/include/atk-1.0/atk/atkobject.h"
	.file 84 "../../win32-dev/gtk_2_0-2.14/include/atk-1.0/atk/atkrelationset.h"
	.file 85 "../../win32-dev/gtk_2_0-2.14/include/gtk-2.0/gtk/gtkselection.h"
	.file 86 "../../win32-dev/gtk_2_0-2.14/include/gtk-2.0/gtk/gtkwindow.h"
	.file 87 "../../win32-dev/gtk_2_0-2.14/include/gtk-2.0/gtk/gtkcontainer.h"
	.file 88 "../../win32-dev/gtk_2_0-2.14/include/gtk-2.0/gtk/gtkbin.h"
	.file 89 "../../win32-dev/gtk_2_0-2.14/include/gtk-2.0/gtk/gtkmisc.h"
	.file 90 "../../win32-dev/gtk_2_0-2.14/include/gtk-2.0/gtk/gtkmenushell.h"
	.file 91 "../../win32-dev/gtk_2_0-2.14/include/gtk-2.0/gtk/gtkmenu.h"
	.file 92 "../../win32-dev/gtk_2_0-2.14/include/gtk-2.0/gtk/gtkframe.h"
	.file 93 "../../win32-dev/gtk_2_0-2.14/include/gtk-2.0/gtk/gtkbox.h"
	.file 94 "../../win32-dev/gtk_2_0-2.14/include/gtk-2.0/gtk/gtkimage.h"
	.file 95 "../../win32-dev/gtk_2_0-2.14/include/gtk-2.0/gtk/gtkbutton.h"
	.file 96 "../../win32-dev/gtk_2_0-2.14/include/gtk-2.0/gtk/gtkcelleditable.h"
	.file 97 "../../win32-dev/gtk_2_0-2.14/include/gtk-2.0/gtk/gtkcellrenderer.h"
	.file 98 "../../win32-dev/gtk_2_0-2.14/include/gtk-2.0/gtk/gtktreemodel.h"
	.file 99 "../../win32-dev/gtk_2_0-2.14/include/gtk-2.0/gtk/gtktreesortable.h"
	.file 100 "../../win32-dev/gtk_2_0-2.14/include/gtk-2.0/gtk/gtktreeviewcolumn.h"
	.file 101 "../../win32-dev/gtk_2_0-2.14/include/gtk-2.0/gtk/gtkcelllayout.h"
	.file 102 "../../win32-dev/gtk_2_0-2.14/include/gtk-2.0/gtk/gtkcellview.h"
	.file 103 "../../win32-dev/gtk_2_0-2.14/include/gtk-2.0/gtk/gtktogglebutton.h"
	.file 104 "../../win32-dev/gtk_2_0-2.14/include/gtk-2.0/gtk/gtktexttag.h"
	.file 105 "../../win32-dev/gtk_2_0-2.14/include/gtk-2.0/gtk/gtktextiter.h"
	.file 106 "../../win32-dev/gtk_2_0-2.14/include/gtk-2.0/gtk/gtktexttagtable.h"
	.file 107 "../../win32-dev/gtk_2_0-2.14/include/gtk-2.0/gtk/gtktextbuffer.h"
	.file 108 "../../win32-dev/gtk_2_0-2.14/include/gtk-2.0/gtk/gtkdnd.h"
	.file 109 "../../win32-dev/gtk_2_0-2.14/include/gtk-2.0/gtk/gtkimcontext.h"
	.file 110 "../../win32-dev/gtk_2_0-2.14/include/gtk-2.0/gtk/gtkliststore.h"
	.file 111 "../../win32-dev/gtk_2_0-2.14/include/gtk-2.0/gtk/gtktreeview.h"
	.file 112 "../../win32-dev/gtk_2_0-2.14/include/gtk-2.0/gtk/gtktreeselection.h"
	.file 113 "../../win32-dev/gtk_2_0-2.14/include/gtk-2.0/gtk/gtkcombobox.h"
	.file 114 "../../win32-dev/gtk_2_0-2.14/include/gtk-2.0/gtk/gtktextmark.h"
	.file 115 "../../win32-dev/gtk_2_0-2.14/include/gtk-2.0/gtk/gtktextview.h"
	.file 116 "gtksourceundomanager.h"
	.file 117 "gtkimhtml.h"
	.file 118 "gtkstatusbox.h"
	.file 119 "gtkutils.h"
	.file 120 "../../win32-dev/gtkspell-2.0.16/include/gtkspell-2.0/gtkspell/gtkspell.h"
	.file 121 "c:/workspace/pidgin-devel/win32-dev/mingw-4.7.2/bin/../lib/gcc/mingw32/4.7.2/../../../../include/ctype.h"
	.file 122 "../pidgin/win32/wspell.h"
	.file 123 "../../win32-dev/gtk_2_0-2.14/include/gtk-2.0/gtk/gtkiconfactory.h"
	.file 124 "c:/workspace/pidgin-devel/win32-dev/mingw-4.7.2/bin/../lib/gcc/mingw32/4.7.2/../../../../include/string.h"
	.file 125 "../../win32-dev/gtk_2_0-2.14/include/gtk-2.0/gtk/gtkmain.h"
	.file 126 "../../win32-dev/gtk_2_0-2.14/include/glib-2.0/gobject/gparamspecs.h"
	.file 127 "../../win32-dev/gtk_2_0-2.14/include/glib-2.0/glib/gstrfuncs.h"
	.file 128 "../../win32-dev/gtk_2_0-2.14/include/glib-2.0/glib/gmarkup.h"
	.file 129 "../../win32-dev/gtk_2_0-2.14/include/glib-2.0/glib/gmem.h"
	.file 130 "../../win32-dev/gtk_2_0-2.14/include/libintl.h"
	.file 131 "../libpurple/eventloop.h"
	.file 132 "../../win32-dev/gtk_2_0-2.14/include/gtk-2.0/gdk/gdk.h"
	.file 133 "../../win32-dev/gtk_2_0-2.14/include/glib-2.0/gobject/gvaluetypes.h"
	.file 134 "../libpurple/network.h"
	.file 135 "../../win32-dev/gtk_2_0-2.14/include/gtk-2.0/gtk/gtkhbox.h"
	.file 136 "../../win32-dev/gtk_2_0-2.14/include/gtk-2.0/gtk/gtkvseparator.h"
	.file 137 "../../win32-dev/gtk_2_0-2.14/include/gtk-2.0/gtk/gtkarrow.h"
	.file 138 "../../win32-dev/gtk_2_0-2.14/include/gtk-2.0/gtk/gtkcellrenderertext.h"
	.file 139 "../../win32-dev/gtk_2_0-2.14/include/gtk-2.0/gtk/gtkcellrendererpixbuf.h"
	.file 140 "../../win32-dev/gtk_2_0-2.14/include/gtk-2.0/gtk/gtkvbox.h"
	.file 141 "../libpurple/core.h"
	.file 142 "../../win32-dev/gtk_2_0-2.14/include/glib-2.0/glib/gstdio.h"
	.file 143 "../../win32-dev/gtk_2_0-2.14/include/glib-2.0/glib/gconvert.h"
	.file 144 "../../win32-dev/gtk_2_0-2.14/include/gtk-2.0/gtk/gtkeventbox.h"
	.file 145 "gtksavedstatuses.h"
	.file 146 "../libpurple/request.h"