	.file	"gtksavedstatuses.c"
	.intel_syntax noprefix
	.text
Ltext0:
	.section .rdata,"dr"
LC0:
	.ascii "gtk-save\0"
	.text
	.p2align 2,,3
	.def	_pidgin_status_menu_update_iter;	.scl	3;	.type	32;	.endef
_pidgin_status_menu_update_iter:
LFB138:
	.file 1 "gtksavedstatuses.c"
	.loc 1 1661 0
	.cfi_startproc
LVL0:
	push	ebp
LCFI0:
	.cfi_def_cfa_offset 8
	.cfi_offset 5, -8
	push	edi
LCFI1:
	.cfi_def_cfa_offset 12
	.cfi_offset 7, -12
	push	esi
LCFI2:
	.cfi_def_cfa_offset 16
	.cfi_offset 6, -16
	push	ebx
LCFI3:
	.cfi_def_cfa_offset 20
	.cfi_offset 3, -20
	sub	esp, 108
LCFI4:
	.cfi_def_cfa_offset 128
	mov	ebp, eax
	mov	esi, edx
	mov	edi, ecx
	mov	ebx, DWORD PTR [esp+128]
	.loc 1 1661 0
	mov	eax, DWORD PTR ___stack_chk_guard
	mov	DWORD PTR [esp+92], eax
	xor	eax, eax
LVL1:
	.loc 1 1664 0
	test	edx, edx
	je	L6
LVL2:
L2:
	.loc 1 1667 0
	mov	DWORD PTR [esp], ebx
	call	_purple_savedstatus_get_type
LVL3:
	.loc 1 1672 0
	mov	DWORD PTR [esp], ebx
	mov	DWORD PTR [esp+76], eax
	call	_purple_savedstatus_get_creation_time
LVL4:
	mov	ebp, eax
LVL5:
	.loc 1 1668 0
	mov	DWORD PTR [esp], ebx
	call	_purple_savedstatus_get_title
LVL6:
	mov	ebx, eax
	mov	edx, DWORD PTR [esp+76]
	mov	DWORD PTR [esp], edx
	call	_pidgin_stock_id_from_status_primitive
LVL7:
	mov	DWORD PTR [esp+56], -1
	mov	DWORD PTR [esp+52], 1
	mov	DWORD PTR [esp+48], 5
	mov	DWORD PTR [esp+44], OFFSET FLAT:LC0
	mov	DWORD PTR [esp+40], 4
	mov	DWORD PTR [esp+36], ebp
	mov	DWORD PTR [esp+32], 3
	mov	DWORD PTR [esp+28], ebx
	mov	DWORD PTR [esp+24], 2
	mov	DWORD PTR [esp+20], eax
	mov	DWORD PTR [esp+16], 1
	mov	DWORD PTR [esp+12], 1
	mov	DWORD PTR [esp+8], 0
	mov	DWORD PTR [esp+4], edi
	mov	DWORD PTR [esp], esi
	call	_gtk_list_store_set
LVL8:
	.loc 1 1676 0
	mov	eax, DWORD PTR [esp+92]
	xor	eax, DWORD PTR ___stack_chk_guard
	jne	L7
	add	esp, 108
LCFI5:
	.cfi_remember_state
	.cfi_def_cfa_offset 20
	pop	ebx
LCFI6:
	.cfi_restore 3
	.cfi_def_cfa_offset 16
	pop	esi
LCFI7:
	.cfi_restore 6
	.cfi_def_cfa_offset 12
LVL9:
	pop	edi
LCFI8:
	.cfi_restore 7
	.cfi_def_cfa_offset 8
LVL10:
	pop	ebp
LCFI9:
	.cfi_restore 5
	.cfi_def_cfa_offset 4
	ret
LVL11:
	.p2align 2,,3
L6:
LCFI10:
	.cfi_restore_state
	.loc 1 1665 0
	call	_gtk_list_store_get_type
LVL12:
	mov	esi, eax
LVL13:
	call	_gtk_combo_box_get_type
LVL14:
	mov	DWORD PTR [esp+4], eax
	mov	DWORD PTR [esp], ebp
	call	_g_type_check_instance_cast
LVL15:
	mov	DWORD PTR [esp], eax
	call	_gtk_combo_box_get_model
LVL16:
	mov	DWORD PTR [esp+4], esi
	mov	DWORD PTR [esp], eax
	call	_g_type_check_instance_cast
LVL17:
	mov	esi, eax
LVL18:
	jmp	L2
LVL19:
L7:
	.loc 1 1676 0
	call	___stack_chk_fail
LVL20:
	.cfi_endproc
LFE138:
	.p2align 2,,3
	.def	_pidgin_status_menu_find_iter;	.scl	3;	.type	32;	.endef
_pidgin_status_menu_find_iter:
LFB139:
	.loc 1 1680 0
	.cfi_startproc
LVL21:
	push	ebp
LCFI11:
	.cfi_def_cfa_offset 8
	.cfi_offset 5, -8
	push	edi
LCFI12:
	.cfi_def_cfa_offset 12
	.cfi_offset 7, -12
	push	esi
LCFI13:
	.cfi_def_cfa_offset 16
	.cfi_offset 6, -16
	push	ebx
LCFI14:
	.cfi_def_cfa_offset 20
	.cfi_offset 3, -20
	sub	esp, 76
LCFI15:
	.cfi_def_cfa_offset 96
	mov	ebx, eax
	mov	esi, edx
	.loc 1 1680 0
	mov	eax, DWORD PTR ___stack_chk_guard
	mov	DWORD PTR [esp+60], eax
	xor	eax, eax
LVL22:
	.loc 1 1683 0
	mov	DWORD PTR [esp], ecx
	call	_purple_savedstatus_get_creation_time
LVL23:
	mov	DWORD PTR [esp+44], eax
LVL24:
	.loc 1 1684 0
	call	_gtk_tree_model_get_type
LVL25:
	mov	DWORD PTR [esp+4], eax
	mov	DWORD PTR [esp], ebx
	call	_g_type_check_instance_cast
LVL26:
	mov	ebx, eax
LVL27:
	.loc 1 1686 0
	mov	DWORD PTR [esp+4], esi
	mov	DWORD PTR [esp], eax
	call	_gtk_tree_model_get_iter_first
LVL28:
	test	eax, eax
	je	L12
	lea	ebp, [esp+56]
	lea	edi, [esp+52]
LVL29:
	.p2align 2,,3
L9:
	.loc 1 1690 0
	mov	DWORD PTR [esp+24], -1
	mov	DWORD PTR [esp+20], ebp
	mov	DWORD PTR [esp+16], 3
	mov	DWORD PTR [esp+12], edi
	mov	DWORD PTR [esp+8], 0
	mov	DWORD PTR [esp+4], esi
	mov	DWORD PTR [esp], ebx
	call	_gtk_tree_model_get
LVL30:
	.loc 1 1694 0
	mov	eax, DWORD PTR [esp+52]
	test	eax, eax
	je	L11
	.loc 1 1696 0
	mov	eax, DWORD PTR [esp+44]
	cmp	DWORD PTR [esp+56], eax
	je	L14
L11:
	.loc 1 1698 0
	mov	DWORD PTR [esp+4], esi
	mov	DWORD PTR [esp], ebx
	call	_gtk_tree_model_iter_next
LVL31:
	test	eax, eax
	jne	L9
L12:
	.loc 1 1687 0
	xor	eax, eax
L10:
	.loc 1 1701 0
	mov	edx, DWORD PTR [esp+60]
	xor	edx, DWORD PTR ___stack_chk_guard
	jne	L18
	add	esp, 76
LCFI16:
	.cfi_remember_state
	.cfi_def_cfa_offset 20
	pop	ebx
LCFI17:
	.cfi_restore 3
	.cfi_def_cfa_offset 16
LVL32:
	pop	esi
LCFI18:
	.cfi_restore 6
	.cfi_def_cfa_offset 12
LVL33:
	pop	edi
LCFI19:
	.cfi_restore 7
	.cfi_def_cfa_offset 8
	pop	ebp
LCFI20:
	.cfi_restore 5
	.cfi_def_cfa_offset 4
	ret
LVL34:
	.p2align 2,,3
L14:
LCFI21:
	.cfi_restore_state
	.loc 1 1697 0
	mov	eax, 1
	jmp	L10
L18:
	.loc 1 1701 0
	call	___stack_chk_fail
LVL35:
	.cfi_endproc
LFE139:
	.p2align 2,,3
	.def	_status_menu_cb;	.scl	3;	.type	32;	.endef
_status_menu_cb:
LFB135:
	.loc 1 1599 0
	.cfi_startproc
LVL36:
	push	edi
LCFI22:
	.cfi_def_cfa_offset 8
	.cfi_offset 7, -8
	push	esi
LCFI23:
	.cfi_def_cfa_offset 12
	.cfi_offset 6, -12
	push	ebx
LCFI24:
	.cfi_def_cfa_offset 16
	.cfi_offset 3, -16
	sub	esp, 64
LCFI25:
	.cfi_def_cfa_offset 80
	mov	esi, DWORD PTR [esp+80]
	mov	edi, DWORD PTR [esp+84]
	.loc 1 1599 0
	mov	eax, DWORD PTR ___stack_chk_guard
	mov	DWORD PTR [esp+60], eax
	xor	eax, eax
LVL37:
	.loc 1 1605 0
	lea	ebx, [esp+44]
	mov	DWORD PTR [esp+4], ebx
	mov	DWORD PTR [esp], esi
	call	_gtk_combo_box_get_active_iter
LVL38:
	test	eax, eax
	jne	L30
LVL39:
L19:
	.loc 1 1624 0
	mov	eax, DWORD PTR [esp+60]
	xor	eax, DWORD PTR ___stack_chk_guard
	jne	L31
	add	esp, 64
LCFI26:
	.cfi_remember_state
	.cfi_def_cfa_offset 16
	pop	ebx
LCFI27:
	.cfi_restore 3
	.cfi_def_cfa_offset 12
	pop	esi
LCFI28:
	.cfi_restore 6
	.cfi_def_cfa_offset 8
	pop	edi
LCFI29:
	.cfi_restore 7
	.cfi_def_cfa_offset 4
	ret
LVL40:
	.p2align 2,,3
L30:
LCFI30:
	.cfi_restore_state
	.loc 1 1608 0
	mov	DWORD PTR [esp], esi
	call	_gtk_combo_box_get_model
LVL41:
	mov	DWORD PTR [esp+24], -1
	lea	edx, [esp+40]
	mov	DWORD PTR [esp+20], edx
	mov	DWORD PTR [esp+16], 3
	lea	edx, [esp+36]
	mov	DWORD PTR [esp+12], edx
	mov	DWORD PTR [esp+8], 0
	mov	DWORD PTR [esp+4], ebx
	mov	DWORD PTR [esp], eax
	call	_gtk_tree_model_get
LVL42:
	.loc 1 1613 0
	mov	eax, DWORD PTR [esp+36]
	test	eax, eax
	je	L32
	.loc 1 1620 0
	dec	eax
	je	L33
	.loc 1 1603 0
	xor	eax, eax
LVL43:
L22:
	.loc 1 1623 0
	mov	DWORD PTR [esp], eax
	call	edi
LVL44:
	jmp	L19
LVL45:
	.p2align 2,,3
L32:
LBB19:
	.loc 1 1615 0
	mov	ebx, DWORD PTR [esp+40]
LVL46:
	.loc 1 1616 0
	mov	DWORD PTR [esp+4], 0
	mov	DWORD PTR [esp], ebx
	call	_purple_savedstatus_find_transient_by_type_and_message
LVL47:
	.loc 1 1617 0
	test	eax, eax
	jne	L22
	.loc 1 1618 0
	mov	DWORD PTR [esp+4], ebx
	mov	DWORD PTR [esp], 0
	call	_purple_savedstatus_new
LVL48:
	jmp	L22
LVL49:
	.p2align 2,,3
L33:
LBE19:
	.loc 1 1621 0
	mov	eax, DWORD PTR [esp+40]
	mov	DWORD PTR [esp], eax
	call	_purple_savedstatus_find_by_creation_time
LVL50:
	jmp	L22
LVL51:
L31:
	.loc 1 1624 0
	call	___stack_chk_fail
LVL52:
	.cfi_endproc
LFE135:
	.p2align 2,,3
	.def	_saved_status_sort_alphabetically_func;	.scl	3;	.type	32;	.endef
_saved_status_sort_alphabetically_func:
LFB136:
	.loc 1 1628 0
	.cfi_startproc
LVL53:
	push	esi
LCFI31:
	.cfi_def_cfa_offset 8
	.cfi_offset 6, -8
	push	ebx
LCFI32:
	.cfi_def_cfa_offset 12
	.cfi_offset 3, -12
	sub	esp, 36
LCFI33:
	.cfi_def_cfa_offset 48
	mov	ebx, DWORD PTR [esp+48]
	.loc 1 1628 0
	mov	eax, DWORD PTR ___stack_chk_guard
	mov	DWORD PTR [esp+28], eax
	xor	eax, eax
LVL54:
	.loc 1 1632 0
	mov	eax, DWORD PTR [esp+52]
	mov	DWORD PTR [esp], eax
	call	_purple_savedstatus_get_title
LVL55:
	mov	esi, eax
	.loc 1 1631 0
	mov	DWORD PTR [esp], ebx
	call	_purple_savedstatus_get_title
LVL56:
	mov	edx, DWORD PTR [esp+28]
	xor	edx, DWORD PTR ___stack_chk_guard
	jne	L38
	mov	DWORD PTR [esp+52], esi
	mov	DWORD PTR [esp+48], eax
	.loc 1 1633 0
	add	esp, 36
LCFI34:
	.cfi_remember_state
	.cfi_def_cfa_offset 12
	pop	ebx
LCFI35:
	.cfi_restore 3
	.cfi_def_cfa_offset 8
LVL57:
	pop	esi
LCFI36:
	.cfi_restore 6
	.cfi_def_cfa_offset 4
	.loc 1 1631 0
	jmp	_g_utf8_collate
LVL58:
L38:
LCFI37:
	.cfi_restore_state
	call	___stack_chk_fail
LVL59:
	.cfi_endproc
LFE136:
	.section .rdata,"dr"
LC1:
	.ascii "status_editor != NULL\0"
LC2:
	.ascii "account != NULL\0"
	.text
	.p2align 2,,3
	.def	_status_editor_find_account_in_treemodel;	.scl	3;	.type	32;	.endef
_status_editor_find_account_in_treemodel:
LFB129:
	.loc 1 1276 0
	.cfi_startproc
LVL60:
	push	ebp
LCFI38:
	.cfi_def_cfa_offset 8
	.cfi_offset 5, -8
	push	edi
LCFI39:
	.cfi_def_cfa_offset 12
	.cfi_offset 7, -12
	push	esi
LCFI40:
	.cfi_def_cfa_offset 16
	.cfi_offset 6, -16
	push	ebx
LCFI41:
	.cfi_def_cfa_offset 20
	.cfi_offset 3, -20
	sub	esp, 60
LCFI42:
	.cfi_def_cfa_offset 80
	mov	ebx, eax
	mov	esi, edx
	.loc 1 1276 0
	mov	eax, DWORD PTR ___stack_chk_guard
	mov	DWORD PTR [esp+44], eax
	xor	eax, eax
LVL61:
LBB20:
	.loc 1 1280 0
	test	edx, edx
	je	L56
	mov	edi, ecx
LVL62:
LBE20:
LBB21:
	.loc 1 1281 0
	test	ecx, ecx
	je	L57
LVL63:
LBE21:
	.loc 1 1283 0
	call	_gtk_tree_model_get_type
LVL64:
	mov	DWORD PTR [esp+4], eax
	mov	eax, DWORD PTR [esi+4]
	mov	DWORD PTR [esp], eax
	call	_g_type_check_instance_cast
LVL65:
	mov	esi, eax
LVL66:
	.loc 1 1285 0
	mov	DWORD PTR [esp+4], ebx
	mov	DWORD PTR [esp], eax
	call	_gtk_tree_model_get_iter_first
LVL67:
	test	eax, eax
	je	L55
	lea	ebp, [esp+40]
LVL68:
	.p2align 2,,3
L43:
	.loc 1 1289 0
	mov	DWORD PTR [esp+16], -1
	mov	DWORD PTR [esp+12], ebp
	mov	DWORD PTR [esp+8], 0
	mov	DWORD PTR [esp+4], ebx
	mov	DWORD PTR [esp], esi
	call	_gtk_tree_model_get
LVL69:
	.loc 1 1290 0
	cmp	DWORD PTR [esp+40], edi
	je	L47
	.loc 1 1292 0
	mov	DWORD PTR [esp+4], ebx
	mov	DWORD PTR [esp], esi
	call	_gtk_tree_model_iter_next
LVL70:
	test	eax, eax
	jne	L43
LVL71:
L55:
	.loc 1 1280 0
	xor	eax, eax
L42:
	.loc 1 1295 0
	mov	edx, DWORD PTR [esp+44]
	xor	edx, DWORD PTR ___stack_chk_guard
	jne	L58
	add	esp, 60
LCFI43:
	.cfi_remember_state
	.cfi_def_cfa_offset 20
	pop	ebx
LCFI44:
	.cfi_restore 3
	.cfi_def_cfa_offset 16
LVL72:
	pop	esi
LCFI45:
	.cfi_restore 6
	.cfi_def_cfa_offset 12
	pop	edi
LCFI46:
	.cfi_restore 7
	.cfi_def_cfa_offset 8
	pop	ebp
LCFI47:
	.cfi_restore 5
	.cfi_def_cfa_offset 4
	ret
LVL73:
	.p2align 2,,3
L56:
LCFI48:
	.cfi_restore_state
	.loc 1 1280 0
	mov	DWORD PTR [esp+8], OFFSET FLAT:LC1
	mov	DWORD PTR [esp+4], OFFSET FLAT:___PRETTY_FUNCTION__.78483
	mov	DWORD PTR [esp], 0
	call	_g_return_if_fail_warning
LVL74:
	jmp	L55
LVL75:
	.p2align 2,,3
L57:
	.loc 1 1281 0
	mov	DWORD PTR [esp+8], OFFSET FLAT:LC2
	mov	DWORD PTR [esp+4], OFFSET FLAT:___PRETTY_FUNCTION__.78483
	mov	DWORD PTR [esp], 0
	call	_g_return_if_fail_warning
LVL76:
	xor	eax, eax
	jmp	L42
LVL77:
	.p2align 2,,3
L47:
	.loc 1 1291 0
	mov	eax, 1
	jmp	L42
LVL78:
L58:
	.loc 1 1295 0
	call	___stack_chk_fail
LVL79:
	.cfi_endproc
LFE129:
	.p2align 2,,3
	.def	_status_window_find_savedstatus;	.scl	3;	.type	32;	.endef
_status_window_find_savedstatus:
LFB93:
	.loc 1 145 0
	.cfi_startproc
LVL80:
	push	ebp
LCFI49:
	.cfi_def_cfa_offset 8
	.cfi_offset 5, -8
	push	edi
LCFI50:
	.cfi_def_cfa_offset 12
	.cfi_offset 7, -12
	push	esi
LCFI51:
	.cfi_def_cfa_offset 16
	.cfi_offset 6, -16
	push	ebx
LCFI52:
	.cfi_def_cfa_offset 20
	.cfi_offset 3, -20
	sub	esp, 60
LCFI53:
	.cfi_def_cfa_offset 80
	mov	ebx, eax
	.loc 1 145 0
	mov	eax, DWORD PTR ___stack_chk_guard
	mov	DWORD PTR [esp+44], eax
	xor	eax, eax
LVL81:
	.loc 1 149 0
	mov	esi, DWORD PTR _status_window
	test	esi, esi
	je	L62
	mov	edi, edx
	.loc 1 149 0 is_stmt 0 discriminator 1
	test	edx, edx
	je	L62
	.loc 1 152 0 is_stmt 1
	call	_gtk_tree_model_get_type
LVL82:
	mov	DWORD PTR [esp+4], eax
	mov	eax, DWORD PTR [esi+4]
	mov	DWORD PTR [esp], eax
	call	_g_type_check_instance_cast
LVL83:
	mov	esi, eax
LVL84:
	.loc 1 154 0
	mov	DWORD PTR [esp+4], ebx
	mov	DWORD PTR [esp], eax
	call	_gtk_tree_model_get_iter_first
LVL85:
	test	eax, eax
	je	L62
LVL86:
	.p2align 2,,3
L64:
	.loc 1 158 0
	mov	DWORD PTR [esp+16], -1
	lea	edx, [esp+40]
	mov	DWORD PTR [esp+12], edx
	mov	DWORD PTR [esp+8], 0
	mov	DWORD PTR [esp+4], ebx
	mov	DWORD PTR [esp], esi
	call	_gtk_tree_model_get
LVL87:
	.loc 1 159 0
	mov	ebp, DWORD PTR [esp+40]
	mov	DWORD PTR [esp+4], ebp
	mov	DWORD PTR [esp], edi
	call	_strcmp
LVL88:
	.loc 1 161 0
	mov	DWORD PTR [esp], ebp
	.loc 1 159 0
	test	eax, eax
	je	L74
	.loc 1 164 0
	call	_g_free
LVL89:
	.loc 1 165 0
	mov	DWORD PTR [esp+4], ebx
	mov	DWORD PTR [esp], esi
	call	_gtk_tree_model_iter_next
LVL90:
	test	eax, eax
	jne	L64
LVL91:
L62:
	.loc 1 150 0
	xor	eax, eax
L61:
	.loc 1 168 0
	mov	edx, DWORD PTR [esp+44]
	xor	edx, DWORD PTR ___stack_chk_guard
	jne	L75
	add	esp, 60
LCFI54:
	.cfi_remember_state
	.cfi_def_cfa_offset 20
	pop	ebx
LCFI55:
	.cfi_restore 3
	.cfi_def_cfa_offset 16
LVL92:
	pop	esi
LCFI56:
	.cfi_restore 6
	.cfi_def_cfa_offset 12
	pop	edi
LCFI57:
	.cfi_restore 7
	.cfi_def_cfa_offset 8
	pop	ebp
LCFI58:
	.cfi_restore 5
	.cfi_def_cfa_offset 4
	ret
LVL93:
	.p2align 2,,3
L74:
LCFI59:
	.cfi_restore_state
	.loc 1 161 0
	call	_g_free
LVL94:
	.loc 1 162 0
	mov	eax, 1
	jmp	L61
LVL95:
L75:
	.loc 1 168 0
	call	___stack_chk_fail
LVL96:
	.cfi_endproc
LFE93:
	.section .rdata,"dr"
LC3:
	.ascii "stock-id\0"
LC4:
	.ascii "text\0"
	.text
	.p2align 2,,3
	.def	_create_status_type_menu;	.scl	3;	.type	32;	.endef
_create_status_type_menu:
LFB120:
	.loc 1 829 0
	.cfi_startproc
LVL97:
	push	ebp
LCFI60:
	.cfi_def_cfa_offset 8
	.cfi_offset 5, -8
	push	edi
LCFI61:
	.cfi_def_cfa_offset 12
	.cfi_offset 7, -12
	push	esi
LCFI62:
	.cfi_def_cfa_offset 16
	.cfi_offset 6, -16
	push	ebx
LCFI63:
	.cfi_def_cfa_offset 20
	.cfi_offset 3, -20
	sub	esp, 108
LCFI64:
	.cfi_def_cfa_offset 128
	mov	DWORD PTR [esp+60], eax
	.loc 1 829 0
	mov	eax, DWORD PTR ___stack_chk_guard
	mov	DWORD PTR [esp+92], eax
	xor	eax, eax
LVL98:
	.loc 1 836 0
	mov	DWORD PTR [esp+12], 64
	mov	DWORD PTR [esp+8], 64
	mov	DWORD PTR [esp+4], 64
	mov	DWORD PTR [esp], 3
	call	_gtk_list_store_new
LVL99:
	mov	edi, eax
LVL100:
	mov	esi, 2
	mov	ebx, 1
	.loc 1 854 0
	lea	ebp, [esp+76]
LVL101:
	.p2align 2,,3
L77:
	.loc 1 845 0
	cmp	ebx, 7
	je	L78
	.loc 1 845 0 is_stmt 0 discriminator 1
	cmp	ebx, 9
	je	L80
	.loc 1 846 0 is_stmt 1
	cmp	ebx, 8
	je	L78
	.loc 1 854 0
	mov	DWORD PTR [esp+4], ebp
	mov	DWORD PTR [esp], edi
	call	_gtk_list_store_append
LVL102:
	.loc 1 855 0
	mov	DWORD PTR [esp], ebx
	call	_purple_primitive_get_name_from_type
LVL103:
	mov	DWORD PTR [esp], ebx
	mov	DWORD PTR [esp+52], eax
	call	_purple_primitive_get_id_from_type
LVL104:
LBB22:
LBB23:
	.loc 1 366 0
	mov	DWORD PTR [esp], ebx
	mov	DWORD PTR [esp+56], eax
	call	_pidgin_stock_id_from_status_primitive
LVL105:
LBE23:
LBE22:
	.loc 1 855 0
	mov	DWORD PTR [esp+32], -1
	mov	ecx, DWORD PTR [esp+52]
	mov	DWORD PTR [esp+28], ecx
	mov	DWORD PTR [esp+24], 2
	mov	edx, DWORD PTR [esp+56]
	mov	DWORD PTR [esp+20], edx
	mov	DWORD PTR [esp+16], 1
	mov	DWORD PTR [esp+12], eax
	mov	DWORD PTR [esp+8], 0
	mov	DWORD PTR [esp+4], ebp
	mov	DWORD PTR [esp], edi
	call	_gtk_list_store_set
LVL106:
	.loc 1 838 0
	cmp	esi, 10
	je	L80
LVL107:
L78:
	inc	ebx
	inc	esi
	jmp	L77
	.p2align 2,,3
L80:
	.loc 1 862 0
	call	_gtk_tree_model_get_type
LVL108:
	mov	DWORD PTR [esp+4], eax
	mov	DWORD PTR [esp], edi
	call	_g_type_check_instance_cast
LVL109:
	mov	DWORD PTR [esp], eax
	call	_gtk_combo_box_new_with_model
LVL110:
	mov	ebx, eax
LVL111:
	.loc 1 864 0
	call	_gtk_cell_renderer_pixbuf_new
LVL112:
	mov	edi, eax
LVL113:
	.loc 1 865 0
	call	_gtk_cell_layout_get_type
LVL114:
	mov	esi, eax
	mov	DWORD PTR [esp+4], eax
	mov	DWORD PTR [esp], ebx
	call	_g_type_check_instance_cast
LVL115:
	mov	DWORD PTR [esp+8], 0
	mov	DWORD PTR [esp+4], edi
	mov	DWORD PTR [esp], eax
	call	_gtk_cell_layout_pack_start
LVL116:
	.loc 1 866 0
	mov	DWORD PTR [esp+4], esi
	mov	DWORD PTR [esp], ebx
	call	_g_type_check_instance_cast
LVL117:
	mov	DWORD PTR [esp+16], 0
	mov	DWORD PTR [esp+12], 0
	mov	DWORD PTR [esp+8], OFFSET FLAT:LC3
	mov	DWORD PTR [esp+4], edi
	mov	DWORD PTR [esp], eax
	call	_gtk_cell_layout_set_attributes
LVL118:
	.loc 1 870 0
	call	_gtk_cell_renderer_text_new
LVL119:
	mov	edi, eax
LVL120:
	.loc 1 871 0
	mov	DWORD PTR [esp+4], esi
	mov	DWORD PTR [esp], ebx
	call	_g_type_check_instance_cast
LVL121:
	mov	DWORD PTR [esp+8], 1
	mov	DWORD PTR [esp+4], edi
	mov	DWORD PTR [esp], eax
	call	_gtk_cell_layout_pack_start
LVL122:
	.loc 1 872 0
	mov	DWORD PTR [esp+4], esi
	mov	DWORD PTR [esp], ebx
	call	_g_type_check_instance_cast
LVL123:
	mov	DWORD PTR [esp+16], 0
	mov	DWORD PTR [esp+12], 2
	mov	DWORD PTR [esp+8], OFFSET FLAT:LC4
	mov	DWORD PTR [esp+4], edi
	mov	DWORD PTR [esp], eax
	call	_gtk_cell_layout_set_attributes
LVL124:
	.loc 1 876 0
	call	_gtk_combo_box_get_type
LVL125:
	mov	DWORD PTR [esp+4], eax
	mov	DWORD PTR [esp], ebx
	call	_g_type_check_instance_cast
LVL126:
	.loc 1 877 0
	mov	edx, DWORD PTR [esp+60]
	dec	edx
	.loc 1 876 0
	mov	DWORD PTR [esp+4], edx
	mov	DWORD PTR [esp], eax
	call	_gtk_combo_box_set_active
LVL127:
	.loc 1 880 0
	mov	eax, ebx
	mov	edx, DWORD PTR [esp+92]
	xor	edx, DWORD PTR ___stack_chk_guard
	jne	L90
	add	esp, 108
LCFI65:
	.cfi_remember_state
	.cfi_def_cfa_offset 20
	pop	ebx
LCFI66:
	.cfi_restore 3
	.cfi_def_cfa_offset 16
LVL128:
	pop	esi
LCFI67:
	.cfi_restore 6
	.cfi_def_cfa_offset 12
	pop	edi
LCFI68:
	.cfi_restore 7
	.cfi_def_cfa_offset 8
LVL129:
	pop	ebp
LCFI69:
	.cfi_restore 5
	.cfi_def_cfa_offset 4
	ret
LVL130:
L90:
LCFI70:
	.cfi_restore_state
	call	___stack_chk_fail
LVL131:
	.cfi_endproc
LFE120:
	.section .rdata,"dr"
LC5:
	.ascii "Status for %s\0"
LC6:
	.ascii "pidgin\0"
LC7:
	.ascii "substatus\0"
LC8:
	.ascii "destroy\0"
LC9:
	.ascii "_Status:\0"
	.align 4
LC12:
	.ascii "pidgin-icon-size-tango-extra-small\0"
LC13:
	.ascii "stock-size\0"
LC14:
	.ascii "changed\0"
LC15:
	.ascii "_Message:\0"
LC16:
	.ascii "gtk-cancel\0"
LC17:
	.ascii "gtk-ok\0"
	.text
	.p2align 2,,3
	.def	_edit_substatus;	.scl	3;	.type	32;	.endef
_edit_substatus:
LFB134:
	.loc 1 1375 0
	.cfi_startproc
LVL132:
	push	ebp
LCFI71:
	.cfi_def_cfa_offset 8
	.cfi_offset 5, -8
	push	edi
LCFI72:
	.cfi_def_cfa_offset 12
	.cfi_offset 7, -12
	push	esi
LCFI73:
	.cfi_def_cfa_offset 16
	.cfi_offset 6, -16
	push	ebx
LCFI74:
	.cfi_def_cfa_offset 20
	.cfi_offset 3, -20
	sub	esp, 156
LCFI75:
	.cfi_def_cfa_offset 176
	mov	ebx, eax
	.loc 1 1375 0
	mov	eax, DWORD PTR ___stack_chk_guard
	mov	DWORD PTR [esp+140], eax
	xor	eax, eax
LVL133:
	.loc 1 1389 0
	mov	DWORD PTR [esp+112], 0
LVL134:
	.loc 1 1390 0
	mov	DWORD PTR [esp+116], 0
LVL135:
	.loc 1 1391 0
	mov	DWORD PTR [esp+120], 0
LVL136:
LBB24:
	.loc 1 1395 0
	test	ebx, ebx
	je	L135
	mov	esi, edx
LVL137:
LBE24:
LBB25:
	.loc 1 1396 0
	test	edx, edx
	je	L136
LVL138:
LBE25:
	.loc 1 1398 0
	mov	ecx, edx
	mov	edx, ebx
LVL139:
	lea	eax, [esp+124]
	call	_status_editor_find_account_in_treemodel
LVL140:
	.loc 1 1399 0
	call	_gtk_tree_model_get_type
LVL141:
	mov	DWORD PTR [esp+60], eax
	mov	DWORD PTR [esp+4], eax
	mov	eax, DWORD PTR [ebx+4]
	mov	DWORD PTR [esp], eax
	call	_g_type_check_instance_cast
LVL142:
	mov	DWORD PTR [esp+16], -1
	lea	edx, [esp+100]
	mov	DWORD PTR [esp+12], edx
	mov	DWORD PTR [esp+8], 1
	lea	edx, [esp+124]
	mov	DWORD PTR [esp+4], edx
	mov	DWORD PTR [esp], eax
	call	_gtk_tree_model_get
LVL143:
	.loc 1 1402 0
	mov	edi, DWORD PTR [esp+100]
	test	edi, edi
	je	L137
	.loc 1 1404 0
	call	_gtk_window_get_type
LVL144:
	mov	DWORD PTR [esp+4], eax
	mov	eax, DWORD PTR [edi+8]
	mov	DWORD PTR [esp], eax
	call	_g_type_check_instance_cast
LVL145:
	mov	DWORD PTR [esp], eax
	call	_gtk_window_present
LVL146:
L91:
	.loc 1 1552 0
	mov	edi, DWORD PTR [esp+140]
	xor	edi, DWORD PTR ___stack_chk_guard
	jne	L138
	add	esp, 156
LCFI76:
	.cfi_remember_state
	.cfi_def_cfa_offset 20
	pop	ebx
LCFI77:
	.cfi_restore 3
	.cfi_def_cfa_offset 16
	pop	esi
LCFI78:
	.cfi_restore 6
	.cfi_def_cfa_offset 12
	pop	edi
LCFI79:
	.cfi_restore 7
	.cfi_def_cfa_offset 8
	pop	ebp
LCFI80:
	.cfi_restore 5
	.cfi_def_cfa_offset 4
	ret
LVL147:
	.p2align 2,,3
L135:
LCFI81:
	.cfi_restore_state
	.loc 1 1395 0
	mov	DWORD PTR [esp+8], OFFSET FLAT:LC1
	mov	DWORD PTR [esp+4], OFFSET FLAT:___PRETTY_FUNCTION__.78538
	mov	DWORD PTR [esp], 0
	call	_g_return_if_fail_warning
LVL148:
	jmp	L91
LVL149:
	.p2align 2,,3
L136:
	.loc 1 1396 0
	mov	DWORD PTR [esp+8], OFFSET FLAT:LC2
	mov	DWORD PTR [esp+4], OFFSET FLAT:___PRETTY_FUNCTION__.78538
	mov	DWORD PTR [esp], 0
	call	_g_return_if_fail_warning
LVL150:
	jmp	L91
LVL151:
	.p2align 2,,3
L137:
	.loc 1 1408 0
	mov	DWORD PTR [esp], 28
	call	_g_malloc0
LVL152:
	mov	DWORD PTR [esp+100], eax
	.loc 1 1409 0
	mov	DWORD PTR [esp+16], -1
	mov	DWORD PTR [esp+12], eax
	mov	DWORD PTR [esp+8], 1
	lea	edx, [esp+124]
	mov	DWORD PTR [esp+4], edx
	mov	eax, DWORD PTR [ebx+4]
	mov	DWORD PTR [esp], eax
	call	_gtk_list_store_set
LVL153:
	.loc 1 1412 0
	mov	eax, DWORD PTR [esp+100]
	mov	DWORD PTR [eax], ebx
	.loc 1 1413 0
	mov	DWORD PTR [eax+4], esi
	.loc 1 1415 0
	mov	DWORD PTR [esp], esi
	call	_purple_account_get_username
LVL154:
	mov	edi, eax
	mov	DWORD PTR [esp+4], OFFSET FLAT:LC5
	mov	DWORD PTR [esp], OFFSET FLAT:LC6
	call	_libintl_dgettext
LVL155:
	mov	DWORD PTR [esp+4], edi
	mov	DWORD PTR [esp], eax
	call	_g_strdup_printf
LVL156:
	mov	edi, eax
LVL157:
	.loc 1 1416 0
	mov	ebp, DWORD PTR [esp+100]
	mov	DWORD PTR [esp+12], 1
	mov	DWORD PTR [esp+8], OFFSET FLAT:LC7
	mov	DWORD PTR [esp+4], 12
	mov	DWORD PTR [esp], eax
	call	_pidgin_create_dialog
LVL158:
	mov	DWORD PTR [esp+68], eax
LVL159:
	mov	DWORD PTR [ebp+8], eax
	.loc 1 1417 0
	mov	DWORD PTR [esp], edi
	call	_g_free
LVL160:
	.loc 1 1419 0
	mov	edi, DWORD PTR [esp+100]
LVL161:
	mov	DWORD PTR [esp+4], 80
	mov	eax, DWORD PTR [esp+68]
	mov	DWORD PTR [esp], eax
	call	_g_type_check_instance_cast
LVL162:
	mov	DWORD PTR [esp+20], 0
	mov	DWORD PTR [esp+16], 0
	mov	DWORD PTR [esp+12], edi
	mov	DWORD PTR [esp+8], OFFSET FLAT:_substatus_editor_destroy_cb
	mov	DWORD PTR [esp+4], OFFSET FLAT:LC8
	mov	DWORD PTR [esp], eax
	call	_g_signal_connect_data
LVL163:
	.loc 1 1423 0
	call	_gtk_dialog_get_type
LVL164:
	mov	ecx, eax
	mov	DWORD PTR [esp+4], eax
	mov	eax, DWORD PTR [esp+68]
	mov	DWORD PTR [esp], eax
	mov	DWORD PTR [esp+52], ecx
	call	_g_type_check_instance_cast
LVL165:
	mov	DWORD PTR [esp+8], 12
	mov	DWORD PTR [esp+4], 0
	mov	DWORD PTR [esp], eax
	call	_pidgin_dialog_get_vbox_with_properties
LVL166:
	mov	DWORD PTR [esp+84], eax
LVL167:
	.loc 1 1425 0
	mov	DWORD PTR [esp], 1
	call	_gtk_size_group_new
LVL168:
	mov	DWORD PTR [esp+76], eax
LVL169:
	.loc 1 1428 0
	mov	DWORD PTR [esp+4], 6
	mov	DWORD PTR [esp], 0
	call	_gtk_hbox_new
LVL170:
	mov	DWORD PTR [esp+80], eax
LVL171:
	.loc 1 1429 0
	call	_gtk_box_get_type
LVL172:
	mov	DWORD PTR [esp+72], eax
	mov	DWORD PTR [esp+4], eax
	mov	eax, DWORD PTR [esp+84]
	mov	DWORD PTR [esp], eax
	call	_g_type_check_instance_cast
LVL173:
	mov	DWORD PTR [esp+16], 0
	mov	DWORD PTR [esp+12], 0
	mov	DWORD PTR [esp+8], 0
	mov	edx, DWORD PTR [esp+80]
	mov	DWORD PTR [esp+4], edx
	mov	DWORD PTR [esp], eax
	call	_gtk_box_pack_start
LVL174:
	.loc 1 1431 0
	mov	DWORD PTR [esp+4], OFFSET FLAT:LC9
	mov	DWORD PTR [esp], OFFSET FLAT:LC6
	call	_libintl_dgettext
LVL175:
	mov	DWORD PTR [esp], eax
	call	_gtk_label_new_with_mnemonic
LVL176:
	mov	edi, eax
LVL177:
	.loc 1 1432 0
	call	_gtk_misc_get_type
LVL178:
	mov	DWORD PTR [esp+4], eax
	mov	DWORD PTR [esp], edi
	mov	DWORD PTR [esp+56], eax
	call	_g_type_check_instance_cast
LVL179:
	mov	DWORD PTR [esp+8], 0x3f000000
	mov	DWORD PTR [esp+4], 0x00000000
	mov	DWORD PTR [esp], eax
	call	_gtk_misc_set_alignment
LVL180:
	.loc 1 1433 0
	mov	eax, DWORD PTR [esp+72]
	mov	DWORD PTR [esp+4], eax
	mov	eax, DWORD PTR [esp+80]
	mov	DWORD PTR [esp], eax
	call	_g_type_check_instance_cast
LVL181:
	mov	DWORD PTR [esp+16], 0
	mov	DWORD PTR [esp+12], 0
	mov	DWORD PTR [esp+8], 0
	mov	DWORD PTR [esp+4], edi
	mov	DWORD PTR [esp], eax
	call	_gtk_box_pack_start
LVL182:
	.loc 1 1434 0
	mov	DWORD PTR [esp+4], edi
	mov	eax, DWORD PTR [esp+76]
	mov	DWORD PTR [esp], eax
	call	_gtk_size_group_add_widget
LVL183:
	.loc 1 1436 0
	mov	edi, DWORD PTR [esp+100]
LVL184:
	mov	DWORD PTR [esp+12], 64
	mov	DWORD PTR [esp+8], 64
	mov	DWORD PTR [esp+4], 64
	mov	DWORD PTR [esp], 3
	call	_gtk_list_store_new
LVL185:
	mov	DWORD PTR [edi+12], eax
	.loc 1 1440 0
	mov	eax, DWORD PTR [esp+60]
	mov	DWORD PTR [esp+4], eax
	mov	eax, DWORD PTR [esp+100]
	mov	eax, DWORD PTR [eax+12]
	mov	DWORD PTR [esp], eax
	call	_g_type_check_instance_cast
LVL186:
	mov	DWORD PTR [esp], eax
	call	_gtk_combo_box_new_with_model
LVL187:
	mov	DWORD PTR [esp+64], eax
LVL188:
	.loc 1 1441 0
	mov	edi, DWORD PTR [esp+100]
	call	_gtk_combo_box_get_type
LVL189:
	mov	DWORD PTR [esp+92], eax
	mov	DWORD PTR [esp+4], eax
	mov	eax, DWORD PTR [esp+64]
	mov	DWORD PTR [esp], eax
	call	_g_type_check_instance_cast
LVL190:
	mov	DWORD PTR [edi+16], eax
	.loc 1 1443 0
	call	_gtk_cell_renderer_get_type
LVL191:
	mov	DWORD PTR [esp+88], eax
	call	_gtk_cell_renderer_pixbuf_new
LVL192:
	mov	edi, DWORD PTR [esp+88]
	mov	DWORD PTR [esp+4], edi
	mov	DWORD PTR [esp], eax
	call	_g_type_check_instance_cast
LVL193:
	mov	ebp, eax
LVL194:
	.loc 1 1445 0
	mov	DWORD PTR [esp], OFFSET FLAT:LC12
	call	_gtk_icon_size_from_name
LVL195:
	mov	edi, eax
	.loc 1 1444 0
	mov	DWORD PTR [esp+4], 80
	mov	DWORD PTR [esp], ebp
	call	_g_type_check_instance_cast
LVL196:
	mov	DWORD PTR [esp+12], 0
	mov	DWORD PTR [esp+8], edi
	mov	DWORD PTR [esp+4], OFFSET FLAT:LC13
	mov	DWORD PTR [esp], eax
	call	_g_object_set
LVL197:
	.loc 1 1447 0
	call	_gtk_cell_layout_get_type
LVL198:
	mov	edi, eax
	mov	DWORD PTR [esp+4], eax
	mov	eax, DWORD PTR [esp+64]
	mov	DWORD PTR [esp], eax
	call	_g_type_check_instance_cast
LVL199:
	mov	DWORD PTR [esp+8], 0
	mov	DWORD PTR [esp+4], ebp
	mov	DWORD PTR [esp], eax
	call	_gtk_cell_layout_pack_start
LVL200:
	.loc 1 1448 0
	mov	DWORD PTR [esp+4], edi
	mov	eax, DWORD PTR [esp+64]
	mov	DWORD PTR [esp], eax
	call	_g_type_check_instance_cast
LVL201:
	mov	DWORD PTR [esp+16], 0
	mov	DWORD PTR [esp+12], 0
	mov	DWORD PTR [esp+8], OFFSET FLAT:LC3
	mov	DWORD PTR [esp+4], ebp
	mov	DWORD PTR [esp], eax
	call	_gtk_cell_layout_set_attributes
LVL202:
	.loc 1 1451 0
	call	_gtk_cell_renderer_text_new
LVL203:
	mov	ebp, DWORD PTR [esp+88]
LVL204:
	mov	DWORD PTR [esp+4], ebp
	mov	DWORD PTR [esp], eax
	call	_g_type_check_instance_cast
LVL205:
	mov	ebp, eax
LVL206:
	.loc 1 1452 0
	mov	DWORD PTR [esp+4], edi
	mov	eax, DWORD PTR [esp+64]
LVL207:
	mov	DWORD PTR [esp], eax
	call	_g_type_check_instance_cast
LVL208:
	mov	DWORD PTR [esp+8], 1
	mov	DWORD PTR [esp+4], ebp
	mov	DWORD PTR [esp], eax
	call	_gtk_cell_layout_pack_start
LVL209:
	.loc 1 1453 0
	mov	DWORD PTR [esp+4], edi
	mov	eax, DWORD PTR [esp+64]
	mov	DWORD PTR [esp], eax
	call	_g_type_check_instance_cast
LVL210:
	mov	DWORD PTR [esp+16], 0
	mov	DWORD PTR [esp+12], 2
	mov	DWORD PTR [esp+8], OFFSET FLAT:LC4
	mov	DWORD PTR [esp+4], ebp
	mov	DWORD PTR [esp], eax
	call	_gtk_cell_layout_set_attributes
LVL211:
	.loc 1 1456 0
	mov	edi, DWORD PTR [esp+100]
	mov	DWORD PTR [esp+4], 80
	mov	eax, DWORD PTR [esp+64]
	mov	DWORD PTR [esp], eax
	call	_g_type_check_instance_cast
LVL212:
	mov	DWORD PTR [esp+20], 0
	mov	DWORD PTR [esp+16], 0
	mov	DWORD PTR [esp+12], edi
	mov	DWORD PTR [esp+8], OFFSET FLAT:_substatus_selection_changed_cb
	mov	DWORD PTR [esp+4], OFFSET FLAT:LC14
	mov	DWORD PTR [esp], eax
	call	_g_signal_connect_data
LVL213:
	.loc 1 1459 0
	mov	eax, DWORD PTR [esp+72]
	mov	DWORD PTR [esp+4], eax
	mov	eax, DWORD PTR [esp+80]
	mov	DWORD PTR [esp], eax
	call	_g_type_check_instance_cast
LVL214:
	mov	DWORD PTR [esp+16], 0
	mov	DWORD PTR [esp+12], 0
	mov	DWORD PTR [esp+8], 0
	mov	edi, DWORD PTR [esp+64]
	mov	DWORD PTR [esp+4], edi
	mov	DWORD PTR [esp], eax
	call	_gtk_box_pack_start
LVL215:
	.loc 1 1462 0
	mov	DWORD PTR [esp+4], 6
	mov	DWORD PTR [esp], 0
	call	_gtk_hbox_new
LVL216:
	mov	edi, eax
LVL217:
	.loc 1 1463 0
	mov	eax, DWORD PTR [esp+72]
LVL218:
	mov	DWORD PTR [esp+4], eax
	mov	eax, DWORD PTR [esp+84]
	mov	DWORD PTR [esp], eax
	call	_g_type_check_instance_cast
LVL219:
	mov	DWORD PTR [esp+16], 0
	mov	DWORD PTR [esp+12], 1
	mov	DWORD PTR [esp+8], 1
	mov	DWORD PTR [esp+4], edi
	mov	DWORD PTR [esp], eax
	call	_gtk_box_pack_start
LVL220:
	.loc 1 1465 0
	mov	DWORD PTR [esp+4], OFFSET FLAT:LC15
	mov	DWORD PTR [esp], OFFSET FLAT:LC6
	call	_libintl_dgettext
LVL221:
	mov	DWORD PTR [esp], eax
	call	_gtk_label_new_with_mnemonic
LVL222:
	mov	ebp, eax
LVL223:
	.loc 1 1466 0
	mov	edx, DWORD PTR [esp+56]
	mov	DWORD PTR [esp+4], edx
	mov	DWORD PTR [esp], eax
	call	_g_type_check_instance_cast
LVL224:
	mov	DWORD PTR [esp+8], 0x3f000000
	mov	DWORD PTR [esp+4], 0x00000000
	mov	DWORD PTR [esp], eax
	call	_gtk_misc_set_alignment
LVL225:
	.loc 1 1467 0
	mov	eax, DWORD PTR [esp+72]
	mov	DWORD PTR [esp+4], eax
	mov	DWORD PTR [esp], edi
	call	_g_type_check_instance_cast
LVL226:
	mov	DWORD PTR [esp+16], 0
	mov	DWORD PTR [esp+12], 0
	mov	DWORD PTR [esp+8], 0
	mov	DWORD PTR [esp+4], ebp
	mov	DWORD PTR [esp], eax
	call	_gtk_box_pack_start
LVL227:
	.loc 1 1468 0
	mov	DWORD PTR [esp+4], ebp
	mov	eax, DWORD PTR [esp+76]
	mov	DWORD PTR [esp], eax
	call	_gtk_size_group_add_widget
LVL228:
	.loc 1 1470 0
	mov	DWORD PTR [esp+12], 0
	lea	eax, [esp+108]
	mov	DWORD PTR [esp+8], eax
	lea	eax, [esp+104]
	mov	DWORD PTR [esp+4], eax
	mov	DWORD PTR [esp], 1
	call	_pidgin_create_imhtml
LVL229:
	mov	ebp, eax
LVL230:
	.loc 1 1471 0
	mov	edx, DWORD PTR [esp+100]
	mov	DWORD PTR [esp+56], edx
	call	_gtk_imhtml_get_type
LVL231:
	mov	DWORD PTR [esp+4], eax
LVL232:
	mov	eax, DWORD PTR [esp+104]
	mov	DWORD PTR [esp], eax
	call	_g_type_check_instance_cast
LVL233:
	mov	edx, DWORD PTR [esp+56]
	mov	DWORD PTR [edx+20], eax
	.loc 1 1472 0
	mov	edx, DWORD PTR [esp+100]
	mov	DWORD PTR [esp+56], edx
	call	_gtk_imhtmltoolbar_get_type
LVL234:
	mov	DWORD PTR [esp+4], eax
LVL235:
	mov	eax, DWORD PTR [esp+108]
	mov	DWORD PTR [esp], eax
	call	_g_type_check_instance_cast
LVL236:
	mov	edx, DWORD PTR [esp+56]
	mov	DWORD PTR [edx+24], eax
	.loc 1 1473 0
	mov	eax, DWORD PTR [esp+72]
	mov	DWORD PTR [esp+4], eax
	mov	DWORD PTR [esp], edi
	call	_g_type_check_instance_cast
LVL237:
	mov	DWORD PTR [esp+16], 0
	mov	DWORD PTR [esp+12], 1
	mov	DWORD PTR [esp+8], 1
	mov	DWORD PTR [esp+4], ebp
	mov	DWORD PTR [esp], eax
	call	_gtk_box_pack_start
LVL238:
	.loc 1 1476 0
	mov	edi, DWORD PTR [esp+100]
LVL239:
	mov	ecx, DWORD PTR [esp+52]
	mov	DWORD PTR [esp+4], ecx
	mov	eax, DWORD PTR [esp+68]
	mov	DWORD PTR [esp], eax
	call	_g_type_check_instance_cast
LVL240:
	mov	DWORD PTR [esp+12], edi
	mov	DWORD PTR [esp+8], OFFSET FLAT:_substatus_editor_cancel_cb
	mov	DWORD PTR [esp+4], OFFSET FLAT:LC16
	mov	DWORD PTR [esp], eax
	call	_pidgin_dialog_add_button
LVL241:
	.loc 1 1480 0
	mov	edi, DWORD PTR [esp+100]
	mov	ecx, DWORD PTR [esp+52]
	mov	DWORD PTR [esp+4], ecx
	mov	eax, DWORD PTR [esp+68]
	mov	DWORD PTR [esp], eax
	call	_g_type_check_instance_cast
LVL242:
	mov	DWORD PTR [esp+12], edi
	mov	DWORD PTR [esp+8], OFFSET FLAT:_substatus_editor_ok_cb
	mov	DWORD PTR [esp+4], OFFSET FLAT:LC17
	mov	DWORD PTR [esp], eax
	call	_pidgin_dialog_add_button
LVL243:
	.loc 1 1486 0
	mov	eax, DWORD PTR [esp+60]
	mov	DWORD PTR [esp+4], eax
	mov	eax, DWORD PTR [ebx+4]
	mov	DWORD PTR [esp], eax
	call	_g_type_check_instance_cast
LVL244:
	mov	DWORD PTR [esp+16], -1
	lea	edx, [esp+120]
	mov	DWORD PTR [esp+12], edx
	mov	DWORD PTR [esp+8], 2
	lea	edx, [esp+124]
	mov	DWORD PTR [esp+4], edx
	mov	DWORD PTR [esp], eax
	call	_gtk_tree_model_get
LVL245:
	.loc 1 1488 0
	mov	ecx, DWORD PTR [esp+120]
	test	ecx, ecx
	jne	L139
	.loc 1 1492 0
	mov	eax, DWORD PTR [ebx+20]
	test	eax, eax
	je	L96
LVL246:
LBB26:
	.loc 1 1496 0
	mov	DWORD PTR [esp], eax
	call	_purple_savedstatus_find
LVL247:
	test	eax, eax
	je	L96
	.loc 1 1497 0
	mov	DWORD PTR [esp+4], esi
	mov	DWORD PTR [esp], eax
	call	_purple_savedstatus_get_substatus
LVL248:
	mov	ebx, eax
LVL249:
	test	eax, eax
	je	L96
	.loc 1 1498 0
	mov	DWORD PTR [esp], eax
	call	_purple_savedstatus_substatus_get_message
LVL250:
	mov	DWORD PTR [esp+116], eax
	.loc 1 1499 0
	mov	DWORD PTR [esp], ebx
	call	_purple_savedstatus_substatus_get_type
LVL251:
	mov	DWORD PTR [esp], eax
	call	_purple_status_type_get_id
LVL252:
	mov	DWORD PTR [esp+112], eax
LVL253:
L96:
LBE26:
	.loc 1 1505 0
	mov	eax, DWORD PTR [esp+116]
	test	eax, eax
	je	L99
	.loc 1 1506 0
	mov	DWORD PTR [esp+12], 0
	mov	DWORD PTR [esp+8], 0
	mov	DWORD PTR [esp+4], eax
	mov	eax, DWORD PTR [esp+100]
	mov	eax, DWORD PTR [eax+20]
	mov	DWORD PTR [esp], eax
	call	_gtk_imhtml_append_text_with_images
LVL254:
L99:
	.loc 1 1508 0
	mov	DWORD PTR [esp], esi
	call	_purple_account_get_status_types
LVL255:
	mov	ebp, eax
LVL256:
	xor	edi, edi
	test	eax, eax
	jne	L123
	jmp	L103
LVL257:
	.p2align 2,,3
L102:
	mov	ebp, DWORD PTR [ebp+4]
LVL258:
	test	ebp, ebp
	je	L140
LVL259:
L123:
LBB27:
	.loc 1 1514 0
	mov	ebx, DWORD PTR [ebp+0]
LVL260:
	.loc 1 1520 0
	mov	DWORD PTR [esp], ebx
	call	_purple_status_type_is_user_settable
LVL261:
	test	eax, eax
	je	L102
	.loc 1 1521 0 discriminator 1
	mov	DWORD PTR [esp], ebx
	call	_purple_status_type_is_independent
LVL262:
	.loc 1 1520 0 discriminator 1
	test	eax, eax
	jne	L102
	.loc 1 1524 0
	mov	DWORD PTR [esp], ebx
	call	_purple_status_type_get_id
LVL263:
	mov	esi, eax
LVL264:
	.loc 1 1525 0
	mov	DWORD PTR [esp], ebx
	call	_purple_status_type_get_primitive
LVL265:
	.loc 1 1526 0
	mov	DWORD PTR [esp], ebx
	mov	DWORD PTR [esp+56], eax
	call	_purple_status_type_get_name
LVL266:
	mov	ebx, eax
LVL267:
	.loc 1 1528 0
	lea	eax, [esp+124]
LVL268:
	mov	DWORD PTR [esp+4], eax
	mov	eax, DWORD PTR [esp+100]
	mov	eax, DWORD PTR [eax+12]
	mov	DWORD PTR [esp], eax
	call	_gtk_list_store_append
LVL269:
	.loc 1 1529 0
	mov	edx, DWORD PTR [esp+56]
	mov	DWORD PTR [esp], edx
	call	_pidgin_stock_id_from_status_primitive
LVL270:
	mov	DWORD PTR [esp+32], -1
	mov	DWORD PTR [esp+28], ebx
	mov	DWORD PTR [esp+24], 2
	mov	DWORD PTR [esp+20], esi
	mov	DWORD PTR [esp+16], 1
	mov	DWORD PTR [esp+12], eax
	mov	DWORD PTR [esp+8], 0
	lea	edx, [esp+124]
	mov	DWORD PTR [esp+4], edx
	mov	eax, DWORD PTR [esp+100]
	mov	eax, DWORD PTR [eax+12]
	mov	DWORD PTR [esp], eax
	call	_gtk_list_store_set
LVL271:
	.loc 1 1534 0
	mov	eax, DWORD PTR [esp+112]
	test	eax, eax
	je	L102
	.loc 1 1534 0 is_stmt 0 discriminator 1
	mov	DWORD PTR [esp+4], esi
	mov	DWORD PTR [esp], eax
	call	_strcmp
LVL272:
	test	eax, eax
	jne	L102
	.loc 1 1536 0 is_stmt 1
	mov	eax, DWORD PTR [esp+92]
	mov	DWORD PTR [esp+4], eax
	mov	eax, DWORD PTR [esp+64]
	mov	DWORD PTR [esp], eax
	call	_g_type_check_instance_cast
LVL273:
	lea	edx, [esp+124]
	mov	DWORD PTR [esp+4], edx
	mov	DWORD PTR [esp], eax
	call	_gtk_combo_box_set_active_iter
LVL274:
	.loc 1 1537 0
	mov	edi, 1
	jmp	L102
LVL275:
	.p2align 2,,3
L140:
LBE27:
	.loc 1 1541 0
	test	edi, edi
	je	L103
LVL276:
L101:
	.loc 1 1544 0
	mov	edx, DWORD PTR [esp+120]
	test	edx, edx
	je	L104
	.loc 1 1546 0
	mov	eax, DWORD PTR [esp+112]
LVL277:
	mov	DWORD PTR [esp], eax
	call	_g_free
LVL278:
	.loc 1 1547 0
	mov	eax, DWORD PTR [esp+116]
	mov	DWORD PTR [esp], eax
	call	_g_free
LVL279:
L104:
	.loc 1 1550 0
	mov	eax, DWORD PTR [esp+68]
	mov	DWORD PTR [esp], eax
	call	_gtk_widget_show_all
LVL280:
	.loc 1 1551 0
	mov	eax, DWORD PTR [esp+76]
	mov	DWORD PTR [esp], eax
	call	_g_object_unref
LVL281:
	jmp	L91
	.p2align 2,,3
L103:
	.loc 1 1542 0
	mov	eax, DWORD PTR [esp+92]
	mov	DWORD PTR [esp+4], eax
	mov	eax, DWORD PTR [esp+64]
	mov	DWORD PTR [esp], eax
	call	_g_type_check_instance_cast
LVL282:
	mov	DWORD PTR [esp+4], 0
	mov	DWORD PTR [esp], eax
	call	_gtk_combo_box_set_active
LVL283:
	jmp	L101
LVL284:
	.p2align 2,,3
L139:
	.loc 1 1489 0
	mov	eax, DWORD PTR [esp+60]
	mov	DWORD PTR [esp+4], eax
	mov	eax, DWORD PTR [ebx+4]
	mov	DWORD PTR [esp], eax
	call	_g_type_check_instance_cast
LVL285:
	mov	DWORD PTR [esp+24], -1
	lea	edx, [esp+116]
	mov	DWORD PTR [esp+20], edx
	mov	DWORD PTR [esp+16], 7
	lea	edx, [esp+112]
	mov	DWORD PTR [esp+12], edx
	mov	DWORD PTR [esp+8], 5
	lea	edx, [esp+124]
	mov	DWORD PTR [esp+4], edx
	mov	DWORD PTR [esp], eax
	call	_gtk_tree_model_get
LVL286:
	jmp	L96
LVL287:
L138:
	.loc 1 1552 0
	call	___stack_chk_fail
LVL288:
	.cfi_endproc
LFE134:
	.p2align 2,,3
	.def	_edit_substatus_cb;	.scl	3;	.type	32;	.endef
_edit_substatus_cb:
LFB121:
	.loc 1 886 0
	.cfi_startproc
LVL289:
	push	edi
LCFI82:
	.cfi_def_cfa_offset 8
	.cfi_offset 7, -8
	push	esi
LCFI83:
	.cfi_def_cfa_offset 12
	.cfi_offset 6, -12
	push	ebx
LCFI84:
	.cfi_def_cfa_offset 16
	.cfi_offset 3, -16
	sub	esp, 64
LCFI85:
	.cfi_def_cfa_offset 80
	mov	esi, DWORD PTR [esp+84]
	mov	ebx, DWORD PTR [esp+92]
	.loc 1 886 0
	mov	eax, DWORD PTR ___stack_chk_guard
	mov	DWORD PTR [esp+60], eax
	xor	eax, eax
LVL290:
	.loc 1 891 0
	call	_gtk_tree_model_get_type
LVL291:
	mov	edi, eax
	mov	DWORD PTR [esp+4], eax
	mov	eax, DWORD PTR [ebx+4]
	mov	DWORD PTR [esp], eax
	call	_g_type_check_instance_cast
LVL292:
	mov	DWORD PTR [esp+8], esi
	lea	esi, [esp+44]
	mov	DWORD PTR [esp+4], esi
	mov	DWORD PTR [esp], eax
	call	_gtk_tree_model_get_iter
LVL293:
	.loc 1 892 0
	mov	DWORD PTR [esp+4], edi
	mov	eax, DWORD PTR [ebx+4]
	mov	DWORD PTR [esp], eax
	call	_g_type_check_instance_cast
LVL294:
	mov	DWORD PTR [esp+16], -1
	lea	edx, [esp+40]
	mov	DWORD PTR [esp+12], edx
	mov	DWORD PTR [esp+8], 0
	mov	DWORD PTR [esp+4], esi
	mov	DWORD PTR [esp], eax
	call	_gtk_tree_model_get
LVL295:
	.loc 1 896 0
	mov	edx, DWORD PTR [esp+40]
	mov	eax, ebx
	call	_edit_substatus
LVL296:
	.loc 1 897 0
	mov	eax, DWORD PTR [esp+60]
	xor	eax, DWORD PTR ___stack_chk_guard
	jne	L144
	add	esp, 64
LCFI86:
	.cfi_remember_state
	.cfi_def_cfa_offset 16
	pop	ebx
LCFI87:
	.cfi_restore 3
	.cfi_def_cfa_offset 12
LVL297:
	pop	esi
LCFI88:
	.cfi_restore 6
	.cfi_def_cfa_offset 8
	pop	edi
LCFI89:
	.cfi_restore 7
	.cfi_def_cfa_offset 4
	ret
LVL298:
L144:
LCFI90:
	.cfi_restore_state
	call	___stack_chk_fail
LVL299:
	.cfi_endproc
LFE121:
	.p2align 2,,3
	.def	_substatus_editor_cancel_cb;	.scl	3;	.type	32;	.endef
_substatus_editor_cancel_cb:
LFB132:
	.loc 1 1322 0
	.cfi_startproc
LVL300:
	sub	esp, 28
LCFI91:
	.cfi_def_cfa_offset 32
	mov	eax, DWORD PTR [esp+36]
	.loc 1 1322 0
	mov	edx, DWORD PTR ___stack_chk_guard
	mov	DWORD PTR [esp+12], edx
	xor	edx, edx
LVL301:
	.loc 1 1324 0
	mov	edx, DWORD PTR [esp+12]
	xor	edx, DWORD PTR ___stack_chk_guard
	jne	L149
	mov	eax, DWORD PTR [eax+8]
LVL302:
	mov	DWORD PTR [esp+32], eax
	.loc 1 1325 0
	add	esp, 28
LCFI92:
	.cfi_remember_state
	.cfi_def_cfa_offset 4
	.loc 1 1324 0
	jmp	_gtk_widget_destroy
LVL303:
L149:
LCFI93:
	.cfi_restore_state
	call	___stack_chk_fail
LVL304:
	.cfi_endproc
LFE132:
	.p2align 2,,3
	.def	_status_editor_cancel_cb;	.scl	3;	.type	32;	.endef
_status_editor_cancel_cb:
LFB117:
	.loc 1 702 0
	.cfi_startproc
LVL305:
	sub	esp, 28
LCFI94:
	.cfi_def_cfa_offset 32
	mov	eax, DWORD PTR [esp+36]
	.loc 1 702 0
	mov	edx, DWORD PTR ___stack_chk_guard
	mov	DWORD PTR [esp+12], edx
	xor	edx, edx
LVL306:
	.loc 1 704 0
	mov	edx, DWORD PTR [esp+12]
	xor	edx, DWORD PTR ___stack_chk_guard
	jne	L154
	mov	eax, DWORD PTR [eax]
LVL307:
	mov	DWORD PTR [esp+32], eax
	.loc 1 705 0
	add	esp, 28
LCFI95:
	.cfi_remember_state
	.cfi_def_cfa_offset 4
	.loc 1 704 0
	jmp	_gtk_widget_destroy
LVL308:
L154:
LCFI96:
	.cfi_restore_state
	call	___stack_chk_fail
LVL309:
	.cfi_endproc
LFE117:
	.section .rdata,"dr"
LC18:
	.ascii "message\0"
	.text
	.p2align 2,,3
	.def	_substatus_editor_ok_cb;	.scl	3;	.type	32;	.endef
_substatus_editor_ok_cb:
LFB133:
	.loc 1 1330 0
	.cfi_startproc
LVL310:
	push	ebp
LCFI97:
	.cfi_def_cfa_offset 8
	.cfi_offset 5, -8
	push	edi
LCFI98:
	.cfi_def_cfa_offset 12
	.cfi_offset 7, -12
	push	esi
LCFI99:
	.cfi_def_cfa_offset 16
	.cfi_offset 6, -16
	push	ebx
LCFI100:
	.cfi_def_cfa_offset 20
	.cfi_offset 3, -20
	sub	esp, 124
LCFI101:
	.cfi_def_cfa_offset 144
	mov	ebx, DWORD PTR [esp+148]
	.loc 1 1330 0
	mov	eax, DWORD PTR ___stack_chk_guard
	mov	DWORD PTR [esp+108], eax
	xor	eax, eax
LVL311:
	.loc 1 1335 0
	mov	DWORD PTR [esp+88], 0
LVL312:
	.loc 1 1339 0
	lea	esi, [esp+92]
	mov	DWORD PTR [esp+4], esi
	mov	eax, DWORD PTR [ebx+16]
	mov	DWORD PTR [esp], eax
	call	_gtk_combo_box_get_active_iter
LVL313:
	test	eax, eax
	je	L166
	.loc 1 1345 0
	call	_gtk_tree_model_get_type
LVL314:
	mov	DWORD PTR [esp+4], eax
	mov	eax, DWORD PTR [ebx+12]
	mov	DWORD PTR [esp], eax
	call	_g_type_check_instance_cast
LVL315:
	mov	DWORD PTR [esp+16], -1
	lea	edx, [esp+88]
	mov	DWORD PTR [esp+12], edx
	mov	DWORD PTR [esp+8], 1
	mov	DWORD PTR [esp+4], esi
	mov	DWORD PTR [esp], eax
	call	_gtk_tree_model_get
LVL316:
	.loc 1 1348 0
	mov	eax, DWORD PTR [esp+88]
	mov	DWORD PTR [esp+4], eax
	mov	eax, DWORD PTR [ebx+4]
	mov	DWORD PTR [esp], eax
	call	_purple_account_get_status_type
LVL317:
	mov	ebp, eax
LVL318:
	.loc 1 1349 0
	mov	DWORD PTR [esp+4], OFFSET FLAT:LC18
	mov	DWORD PTR [esp], eax
	call	_purple_status_type_get_attr
LVL319:
	test	eax, eax
	je	L161
	.loc 1 1350 0
	call	_gtk_imhtml_get_type
LVL320:
	mov	DWORD PTR [esp+4], eax
	mov	eax, DWORD PTR [ebx+20]
	mov	DWORD PTR [esp], eax
	call	_g_type_check_instance_cast
LVL321:
	mov	DWORD PTR [esp], eax
	call	_gtk_imhtml_get_markup
LVL322:
	mov	edi, eax
LVL323:
L158:
	.loc 1 1351 0
	mov	DWORD PTR [esp], ebp
	call	_purple_status_type_get_name
LVL324:
	mov	DWORD PTR [esp+72], eax
LVL325:
	.loc 1 1352 0
	mov	DWORD PTR [esp], ebp
	call	_purple_status_type_get_primitive
LVL326:
LBB28:
LBB29:
	.loc 1 366 0
	mov	DWORD PTR [esp], eax
	call	_pidgin_stock_id_from_status_primitive
LVL327:
	mov	DWORD PTR [esp+76], eax
LVL328:
LBE29:
LBE28:
	.loc 1 1354 0
	mov	ebp, DWORD PTR [ebx]
LVL329:
	.loc 1 1356 0
	mov	ecx, DWORD PTR [ebx+4]
	mov	edx, ebp
	mov	eax, esi
	call	_status_editor_find_account_in_treemodel
LVL330:
	test	eax, eax
	jne	L167
L159:
	.loc 1 1368 0
	mov	eax, DWORD PTR [ebx+8]
	mov	DWORD PTR [esp], eax
	call	_gtk_widget_destroy
LVL331:
	.loc 1 1369 0
	mov	eax, DWORD PTR [esp+88]
	mov	DWORD PTR [esp], eax
	call	_g_free
LVL332:
	.loc 1 1370 0
	mov	DWORD PTR [esp], edi
	call	_g_free
LVL333:
L155:
	.loc 1 1371 0
	mov	eax, DWORD PTR [esp+108]
	xor	eax, DWORD PTR ___stack_chk_guard
	jne	L168
	add	esp, 124
LCFI102:
	.cfi_remember_state
	.cfi_def_cfa_offset 20
	pop	ebx
LCFI103:
	.cfi_restore 3
	.cfi_def_cfa_offset 16
LVL334:
	pop	esi
LCFI104:
	.cfi_restore 6
	.cfi_def_cfa_offset 12
	pop	edi
LCFI105:
	.cfi_restore 7
	.cfi_def_cfa_offset 8
	pop	ebp
LCFI106:
	.cfi_restore 5
	.cfi_def_cfa_offset 4
	ret
LVL335:
	.p2align 2,,3
L166:
LCFI107:
	.cfi_restore_state
	.loc 1 1341 0
	mov	eax, DWORD PTR [ebx+8]
	mov	DWORD PTR [esp], eax
	call	_gtk_widget_destroy
LVL336:
	jmp	L155
LVL337:
	.p2align 2,,3
L161:
	.loc 1 1336 0
	xor	edi, edi
	jmp	L158
LVL338:
	.p2align 2,,3
L167:
	.loc 1 1358 0
	mov	DWORD PTR [esp+56], -1
	mov	eax, DWORD PTR [esp+76]
	mov	DWORD PTR [esp+52], eax
	mov	DWORD PTR [esp+48], 8
	mov	DWORD PTR [esp+44], 0
	mov	DWORD PTR [esp+40], 1
	mov	DWORD PTR [esp+36], edi
	mov	DWORD PTR [esp+32], 7
	mov	eax, DWORD PTR [esp+72]
	mov	DWORD PTR [esp+28], eax
	mov	DWORD PTR [esp+24], 6
	mov	eax, DWORD PTR [esp+88]
	mov	DWORD PTR [esp+20], eax
	mov	DWORD PTR [esp+16], 5
	mov	DWORD PTR [esp+12], 1
	mov	DWORD PTR [esp+8], 2
	mov	DWORD PTR [esp+4], esi
	mov	eax, DWORD PTR [ebp+4]
	mov	DWORD PTR [esp], eax
	call	_gtk_list_store_set
LVL339:
	jmp	L159
LVL340:
L168:
	.loc 1 1371 0
	call	___stack_chk_fail
LVL341:
	.cfi_endproc
LFE133:
	.p2align 2,,3
	.def	_substatus_selection_changed_cb;	.scl	3;	.type	32;	.endef
_substatus_selection_changed_cb:
LFB128:
	.loc 1 1246 0
	.cfi_startproc
LVL342:
	push	esi
LCFI108:
	.cfi_def_cfa_offset 8
	.cfi_offset 6, -8
	push	ebx
LCFI109:
	.cfi_def_cfa_offset 12
	.cfi_offset 3, -12
	sub	esp, 68
LCFI110:
	.cfi_def_cfa_offset 80
	mov	esi, DWORD PTR [esp+84]
	.loc 1 1246 0
	mov	eax, DWORD PTR ___stack_chk_guard
	mov	DWORD PTR [esp+60], eax
	xor	eax, eax
LVL343:
	.loc 1 1252 0
	lea	ebx, [esp+44]
	mov	DWORD PTR [esp+4], ebx
	mov	eax, DWORD PTR [esp+80]
	mov	DWORD PTR [esp], eax
	call	_gtk_combo_box_get_active_iter
LVL344:
	test	eax, eax
	jne	L179
LVL345:
L169:
	.loc 1 1270 0
	mov	eax, DWORD PTR [esp+60]
	xor	eax, DWORD PTR ___stack_chk_guard
	jne	L180
	add	esp, 68
LCFI111:
	.cfi_remember_state
	.cfi_def_cfa_offset 12
	pop	ebx
LCFI112:
	.cfi_restore 3
	.cfi_def_cfa_offset 8
	pop	esi
LCFI113:
	.cfi_restore 6
	.cfi_def_cfa_offset 4
LVL346:
	ret
LVL347:
	.p2align 2,,3
L179:
LCFI114:
	.cfi_restore_state
	.loc 1 1254 0
	call	_gtk_tree_model_get_type
LVL348:
	mov	DWORD PTR [esp+4], eax
	mov	eax, DWORD PTR [esi+12]
	mov	DWORD PTR [esp], eax
	call	_g_type_check_instance_cast
LVL349:
	mov	DWORD PTR [esp+16], -1
	lea	edx, [esp+40]
	mov	DWORD PTR [esp+12], edx
	mov	DWORD PTR [esp+8], 1
	mov	DWORD PTR [esp+4], ebx
	mov	DWORD PTR [esp], eax
	call	_gtk_tree_model_get
LVL350:
	.loc 1 1257 0
	mov	eax, DWORD PTR [esp+40]
	mov	DWORD PTR [esp+4], eax
	mov	eax, DWORD PTR [esi+4]
	mov	DWORD PTR [esp], eax
	call	_purple_account_get_status_type
LVL351:
	mov	ebx, eax
LVL352:
	.loc 1 1258 0
	mov	eax, DWORD PTR [esp+40]
LVL353:
	mov	DWORD PTR [esp], eax
	call	_g_free
LVL354:
	.loc 1 1260 0
	mov	DWORD PTR [esp+4], OFFSET FLAT:LC18
	mov	DWORD PTR [esp], ebx
	call	_purple_status_type_get_attr
LVL355:
	test	eax, eax
	je	L181
	.loc 1 1267 0
	call	_gtk_widget_get_type
LVL356:
	mov	ebx, eax
LVL357:
	mov	DWORD PTR [esp+4], eax
	mov	eax, DWORD PTR [esi+20]
	mov	DWORD PTR [esp], eax
	call	_g_type_check_instance_cast
LVL358:
	mov	DWORD PTR [esp+4], 1
	mov	DWORD PTR [esp], eax
	call	_gtk_widget_set_sensitive
LVL359:
	.loc 1 1268 0
	mov	DWORD PTR [esp+4], ebx
	mov	eax, DWORD PTR [esi+24]
	mov	DWORD PTR [esp], eax
	call	_g_type_check_instance_cast
LVL360:
	mov	DWORD PTR [esp+4], 1
	mov	DWORD PTR [esp], eax
	call	_gtk_widget_set_sensitive
LVL361:
	jmp	L169
LVL362:
	.p2align 2,,3
L181:
	.loc 1 1262 0
	call	_gtk_widget_get_type
LVL363:
	mov	ebx, eax
LVL364:
	mov	DWORD PTR [esp+4], eax
	mov	eax, DWORD PTR [esi+20]
	mov	DWORD PTR [esp], eax
	call	_g_type_check_instance_cast
LVL365:
	mov	DWORD PTR [esp+4], 0
	mov	DWORD PTR [esp], eax
	call	_gtk_widget_set_sensitive
LVL366:
	.loc 1 1263 0
	mov	DWORD PTR [esp+4], ebx
	mov	eax, DWORD PTR [esi+24]
	mov	DWORD PTR [esp], eax
	call	_g_type_check_instance_cast
LVL367:
	mov	DWORD PTR [esp+4], 0
	mov	DWORD PTR [esp], eax
	call	_gtk_widget_set_sensitive
LVL368:
	jmp	L169
L180:
	.loc 1 1270 0
	call	___stack_chk_fail
LVL369:
	.cfi_endproc
LFE128:
	.p2align 2,,3
	.def	_status_editor_substatus_cb;	.scl	3;	.type	32;	.endef
_status_editor_substatus_cb:
LFB122:
	.loc 1 901 0
	.cfi_startproc
LVL370:
	push	edi
LCFI115:
	.cfi_def_cfa_offset 8
	.cfi_offset 7, -8
	push	esi
LCFI116:
	.cfi_def_cfa_offset 12
	.cfi_offset 6, -12
	push	ebx
LCFI117:
	.cfi_def_cfa_offset 16
	.cfi_offset 3, -16
	sub	esp, 96
LCFI118:
	.cfi_def_cfa_offset 112
	mov	esi, DWORD PTR [esp+116]
	mov	ebx, DWORD PTR [esp+120]
	.loc 1 901 0
	mov	eax, DWORD PTR ___stack_chk_guard
	mov	DWORD PTR [esp+92], eax
	xor	eax, eax
LVL371:
	.loc 1 907 0
	call	_gtk_tree_model_get_type
LVL372:
	mov	edi, eax
	mov	DWORD PTR [esp+4], eax
	mov	eax, DWORD PTR [ebx+4]
	mov	DWORD PTR [esp], eax
	call	_g_type_check_instance_cast
LVL373:
	mov	DWORD PTR [esp+8], esi
	lea	esi, [esp+76]
	mov	DWORD PTR [esp+4], esi
	mov	DWORD PTR [esp], eax
	call	_gtk_tree_model_get_iter_from_string
LVL374:
	.loc 1 908 0
	mov	DWORD PTR [esp+4], edi
	mov	eax, DWORD PTR [ebx+4]
	mov	DWORD PTR [esp], eax
	call	_g_type_check_instance_cast
LVL375:
	mov	DWORD PTR [esp+24], -1
	lea	edx, [esp+68]
	mov	DWORD PTR [esp+20], edx
	mov	DWORD PTR [esp+16], 2
	lea	edx, [esp+72]
	mov	DWORD PTR [esp+12], edx
	mov	DWORD PTR [esp+8], 0
	mov	DWORD PTR [esp+4], esi
	mov	DWORD PTR [esp], eax
	call	_gtk_tree_model_get
LVL376:
	.loc 1 913 0
	xor	eax, eax
LVL377:
	mov	edi, DWORD PTR [esp+68]
	test	edi, edi
	sete	al
	mov	DWORD PTR [esp+68], eax
	.loc 1 915 0
	test	eax, eax
	jne	L187
	.loc 1 922 0
	mov	DWORD PTR [esp+48], -1
	mov	DWORD PTR [esp+44], 0
	mov	DWORD PTR [esp+40], 8
	mov	DWORD PTR [esp+36], 0
	mov	DWORD PTR [esp+32], 7
	mov	DWORD PTR [esp+28], 0
	mov	DWORD PTR [esp+24], 6
	mov	DWORD PTR [esp+20], 0
	mov	DWORD PTR [esp+16], 5
	mov	DWORD PTR [esp+12], 0
	mov	DWORD PTR [esp+8], 2
	mov	DWORD PTR [esp+4], esi
	mov	eax, DWORD PTR [ebx+4]
	mov	DWORD PTR [esp], eax
	call	_gtk_list_store_set
LVL378:
L182:
	.loc 1 930 0
	mov	eax, DWORD PTR [esp+92]
	xor	eax, DWORD PTR ___stack_chk_guard
	jne	L188
	add	esp, 96
LCFI119:
	.cfi_remember_state
	.cfi_def_cfa_offset 16
	pop	ebx
LCFI120:
	.cfi_restore 3
	.cfi_def_cfa_offset 12
LVL379:
	pop	esi
LCFI121:
	.cfi_restore 6
	.cfi_def_cfa_offset 8
	pop	edi
LCFI122:
	.cfi_restore 7
	.cfi_def_cfa_offset 4
	ret
LVL380:
	.p2align 2,,3
L187:
LCFI123:
	.cfi_restore_state
	.loc 1 917 0
	mov	edx, DWORD PTR [esp+72]
	mov	eax, ebx
	call	_edit_substatus
LVL381:
	jmp	L182
L188:
	.loc 1 930 0
	call	___stack_chk_fail
LVL382:
	.cfi_endproc
LFE122:
	.p2align 2,,3
	.def	_editor_title_changed_cb;	.scl	3;	.type	32;	.endef
_editor_title_changed_cb:
LFB119:
	.loc 1 817 0
	.cfi_startproc
LVL383:
	push	ebp
LCFI124:
	.cfi_def_cfa_offset 8
	.cfi_offset 5, -8
	push	edi
LCFI125:
	.cfi_def_cfa_offset 12
	.cfi_offset 7, -12
	push	esi
LCFI126:
	.cfi_def_cfa_offset 16
	.cfi_offset 6, -16
	push	ebx
LCFI127:
	.cfi_def_cfa_offset 20
	.cfi_offset 3, -20
	sub	esp, 44
LCFI128:
	.cfi_def_cfa_offset 64
	mov	ebx, DWORD PTR [esp+68]
	.loc 1 817 0
	mov	eax, DWORD PTR ___stack_chk_guard
	mov	DWORD PTR [esp+28], eax
	xor	eax, eax
LVL384:
	.loc 1 821 0
	mov	eax, DWORD PTR [ebx+24]
	mov	DWORD PTR [esp], eax
	call	_gtk_entry_get_text
LVL385:
	mov	edi, eax
LVL386:
	.loc 1 823 0
	xor	edx, edx
	cmp	BYTE PTR [eax], 0
	setne	dl
	mov	ebp, edx
	call	_gtk_widget_get_type
LVL387:
	mov	esi, eax
	mov	DWORD PTR [esp+4], eax
	mov	eax, DWORD PTR [ebx+12]
	mov	DWORD PTR [esp], eax
	call	_g_type_check_instance_cast
LVL388:
	mov	DWORD PTR [esp+4], ebp
	mov	DWORD PTR [esp], eax
	call	_gtk_widget_set_sensitive
LVL389:
	.loc 1 824 0
	xor	eax, eax
	cmp	BYTE PTR [edi], 0
	setne	al
	mov	edi, eax
LVL390:
	mov	DWORD PTR [esp+4], esi
	mov	eax, DWORD PTR [ebx+16]
	mov	DWORD PTR [esp], eax
	call	_g_type_check_instance_cast
LVL391:
	mov	edx, DWORD PTR [esp+28]
	xor	edx, DWORD PTR ___stack_chk_guard
	jne	L193
	mov	DWORD PTR [esp+68], edi
	mov	DWORD PTR [esp+64], eax
	.loc 1 825 0
	add	esp, 44
LCFI129:
	.cfi_remember_state
	.cfi_def_cfa_offset 20
	pop	ebx
LCFI130:
	.cfi_restore 3
	.cfi_def_cfa_offset 16
LVL392:
	pop	esi
LCFI131:
	.cfi_restore 6
	.cfi_def_cfa_offset 12
	pop	edi
LCFI132:
	.cfi_restore 7
	.cfi_def_cfa_offset 8
	pop	ebp
LCFI133:
	.cfi_restore 5
	.cfi_def_cfa_offset 4
	.loc 1 824 0
	jmp	_gtk_widget_set_sensitive
LVL393:
L193:
LCFI134:
	.cfi_restore_state
	call	___stack_chk_fail
LVL394:
	.cfi_endproc
LFE119:
	.section .rdata,"dr"
	.align 4
LC19:
	.ascii "Title already in use.  You must choose a unique title.\0"
	.text
	.p2align 2,,3
	.def	_status_editor_ok_cb;	.scl	3;	.type	32;	.endef
_status_editor_ok_cb:
LFB118:
	.loc 1 709 0
	.cfi_startproc
LVL395:
	push	ebp
LCFI135:
	.cfi_def_cfa_offset 8
	.cfi_offset 5, -8
	push	edi
LCFI136:
	.cfi_def_cfa_offset 12
	.cfi_offset 7, -12
	push	esi
LCFI137:
	.cfi_def_cfa_offset 16
	.cfi_offset 6, -16
	push	ebx
LCFI138:
	.cfi_def_cfa_offset 20
	.cfi_offset 3, -20
	sub	esp, 124
LCFI139:
	.cfi_def_cfa_offset 144
	mov	eax, DWORD PTR [esp+144]
	mov	DWORD PTR [esp+48], eax
	mov	ebx, DWORD PTR [esp+148]
	.loc 1 709 0
	mov	eax, DWORD PTR ___stack_chk_guard
	mov	DWORD PTR [esp+108], eax
	xor	eax, eax
LVL396:
	.loc 1 718 0
	mov	eax, DWORD PTR [ebx+24]
	mov	DWORD PTR [esp], eax
	call	_gtk_entry_get_text
LVL397:
	mov	edi, eax
LVL398:
	.loc 1 724 0
	mov	eax, DWORD PTR [esp+48]
LVL399:
	cmp	DWORD PTR [ebx+12], eax
	je	L195
	.loc 1 724 0 is_stmt 0 discriminator 2
	cmp	DWORD PTR [ebx+16], eax
	je	L195
L196:
	.loc 1 733 0 is_stmt 1
	mov	eax, DWORD PTR [ebx+28]
	mov	DWORD PTR [esp], eax
	call	_gtk_combo_box_get_active
LVL400:
	inc	eax
	mov	DWORD PTR [esp+60], eax
LVL401:
	.loc 1 734 0
	mov	eax, DWORD PTR [ebx+32]
LVL402:
	mov	DWORD PTR [esp], eax
	call	_gtk_imhtml_get_markup
LVL403:
	mov	DWORD PTR [esp+52], eax
LVL404:
	.loc 1 735 0
	mov	DWORD PTR [esp], eax
	call	_purple_markup_strip_html
LVL405:
	mov	DWORD PTR [esp+56], eax
LVL406:
	.loc 1 742 0
	mov	eax, DWORD PTR [ebx+20]
LVL407:
	test	eax, eax
	je	L240
LBB30:
	.loc 1 746 0
	mov	DWORD PTR [esp], eax
	call	_purple_savedstatus_find
LVL408:
	mov	ebp, eax
LVL409:
	.loc 1 748 0
	mov	edx, DWORD PTR [ebx+20]
	lea	esi, [esp+92]
	mov	eax, esi
LVL410:
	call	_status_window_find_savedstatus
LVL411:
	test	eax, eax
	jne	L241
L202:
LBE30:
	.loc 1 752 0
	test	ebp, ebp
	je	L203
	.loc 1 764 0
	mov	eax, DWORD PTR [ebx+20]
	mov	DWORD PTR [esp+4], eax
	mov	DWORD PTR [esp], edi
	call	_strcmp
LVL412:
	test	eax, eax
	jne	L242
L207:
	.loc 1 766 0
	mov	eax, DWORD PTR [esp+60]
	mov	DWORD PTR [esp+4], eax
	mov	DWORD PTR [esp], ebp
	call	_purple_savedstatus_set_type
LVL413:
L206:
	.loc 1 769 0
	mov	eax, DWORD PTR [esp+56]
	cmp	BYTE PTR [eax], 0
	je	L243
	.loc 1 772 0
	mov	eax, DWORD PTR [esp+52]
	mov	DWORD PTR [esp+4], eax
	mov	DWORD PTR [esp], ebp
	call	_purple_savedstatus_set_message
LVL414:
L209:
	.loc 1 775 0
	call	_gtk_tree_model_get_type
LVL415:
	mov	DWORD PTR [esp+4], eax
	mov	eax, DWORD PTR [ebx+4]
	mov	DWORD PTR [esp], eax
	call	_g_type_check_instance_cast
LVL416:
	mov	edi, eax
LVL417:
	.loc 1 776 0
	mov	DWORD PTR [esp+4], esi
	mov	DWORD PTR [esp], eax
	call	_gtk_tree_model_get_iter_first
LVL418:
	test	eax, eax
	jne	L210
LVL419:
L215:
	.loc 1 805 0
	mov	eax, DWORD PTR [esp+52]
	mov	DWORD PTR [esp], eax
	call	_g_free
LVL420:
	.loc 1 806 0
	mov	eax, DWORD PTR [esp+56]
	mov	DWORD PTR [esp], eax
	call	_g_free
LVL421:
	.loc 1 809 0
	mov	eax, DWORD PTR [esp+48]
	cmp	DWORD PTR [ebx+16], eax
	je	L212
	.loc 1 810 0
	mov	DWORD PTR [esp], ebp
	call	_purple_savedstatus_activate
LVL422:
L212:
	.loc 1 812 0
	mov	eax, DWORD PTR [ebx]
	mov	DWORD PTR [esp], eax
	call	_gtk_widget_destroy
LVL423:
L194:
	.loc 1 813 0
	mov	eax, DWORD PTR [esp+108]
	xor	eax, DWORD PTR ___stack_chk_guard
	jne	L244
	add	esp, 124
LCFI140:
	.cfi_remember_state
	.cfi_def_cfa_offset 20
	pop	ebx
LCFI141:
	.cfi_restore 3
	.cfi_def_cfa_offset 16
LVL424:
	pop	esi
LCFI142:
	.cfi_restore 6
	.cfi_def_cfa_offset 12
	pop	edi
LCFI143:
	.cfi_restore 7
	.cfi_def_cfa_offset 8
	pop	ebp
LCFI144:
	.cfi_restore 5
	.cfi_def_cfa_offset 4
	ret
LVL425:
	.p2align 2,,3
L245:
LCFI145:
	.cfi_restore_state
LBB31:
	.loc 1 793 0
	mov	eax, DWORD PTR [esp+84]
	mov	DWORD PTR [esp+4], eax
	mov	eax, DWORD PTR [esp+76]
	mov	DWORD PTR [esp], eax
	call	_purple_account_get_status_type
LVL426:
	.loc 1 794 0
	mov	edx, DWORD PTR [esp+88]
	mov	DWORD PTR [esp+12], edx
	mov	DWORD PTR [esp+8], eax
	mov	eax, DWORD PTR [esp+76]
LVL427:
	mov	DWORD PTR [esp+4], eax
	mov	DWORD PTR [esp], ebp
	call	_purple_savedstatus_set_substatus
LVL428:
L214:
	.loc 1 800 0
	mov	eax, DWORD PTR [esp+84]
	mov	DWORD PTR [esp], eax
	call	_g_free
LVL429:
	.loc 1 801 0
	mov	eax, DWORD PTR [esp+88]
	mov	DWORD PTR [esp], eax
	call	_g_free
LVL430:
LBE31:
	.loc 1 802 0
	mov	DWORD PTR [esp+4], esi
	mov	DWORD PTR [esp], edi
	call	_gtk_tree_model_iter_next
LVL431:
	test	eax, eax
	je	L215
L210:
LBB32:
	.loc 1 785 0
	mov	DWORD PTR [esp+40], -1
	lea	eax, [esp+88]
	mov	DWORD PTR [esp+36], eax
	mov	DWORD PTR [esp+32], 7
	lea	eax, [esp+84]
	mov	DWORD PTR [esp+28], eax
	mov	DWORD PTR [esp+24], 5
	lea	eax, [esp+80]
	mov	DWORD PTR [esp+20], eax
	mov	DWORD PTR [esp+16], 2
	lea	eax, [esp+76]
	mov	DWORD PTR [esp+12], eax
	mov	DWORD PTR [esp+8], 0
	mov	DWORD PTR [esp+4], esi
	mov	DWORD PTR [esp], edi
	call	_gtk_tree_model_get
LVL432:
	.loc 1 791 0
	mov	eax, DWORD PTR [esp+80]
	test	eax, eax
	jne	L245
	.loc 1 798 0
	mov	eax, DWORD PTR [esp+76]
	mov	DWORD PTR [esp+4], eax
	mov	DWORD PTR [esp], ebp
	call	_purple_savedstatus_unset_substatus
LVL433:
	jmp	L214
LVL434:
	.p2align 2,,3
L243:
LBE32:
	.loc 1 770 0
	mov	DWORD PTR [esp+4], 0
	mov	DWORD PTR [esp], ebp
	call	_purple_savedstatus_set_message
LVL435:
	jmp	L209
LVL436:
	.p2align 2,,3
L240:
	lea	esi, [esp+92]
LVL437:
L203:
	.loc 1 755 0
	mov	eax, DWORD PTR [esp+48]
	cmp	DWORD PTR [ebx+12], eax
	je	L200
	.loc 1 756 0
	mov	eax, DWORD PTR [esp+48]
	cmp	DWORD PTR [ebx+16], eax
	je	L200
	.loc 1 759 0
	mov	eax, DWORD PTR [esp+60]
	mov	DWORD PTR [esp+4], eax
	mov	DWORD PTR [esp], 0
	call	_purple_savedstatus_new
LVL438:
	mov	ebp, eax
LVL439:
	jmp	L206
LVL440:
	.p2align 2,,3
L242:
	.loc 1 765 0
	mov	DWORD PTR [esp+4], edi
	mov	DWORD PTR [esp], ebp
	call	_purple_savedstatus_set_title
LVL441:
	jmp	L207
LVL442:
	.p2align 2,,3
L195:
	.loc 1 725 0 discriminator 1
	mov	DWORD PTR [esp], edi
	call	_purple_savedstatus_find
LVL443:
	.loc 1 724 0 discriminator 1
	test	eax, eax
	je	L196
	.loc 1 726 0
	mov	eax, DWORD PTR [ebx+20]
	.loc 1 725 0
	test	eax, eax
	je	L197
	.loc 1 726 0
	mov	DWORD PTR [esp+4], eax
	mov	DWORD PTR [esp], edi
	call	_strcmp
LVL444:
	test	eax, eax
	je	L196
L197:
	.loc 1 728 0
	mov	DWORD PTR [esp+4], OFFSET FLAT:LC19
	mov	DWORD PTR [esp], OFFSET FLAT:LC6
	call	_libintl_dgettext
LVL445:
	mov	DWORD PTR [esp+24], 0
	mov	DWORD PTR [esp+20], 0
	mov	DWORD PTR [esp+16], 0
	mov	DWORD PTR [esp+12], eax
	mov	DWORD PTR [esp+8], 0
	mov	DWORD PTR [esp+4], 0
	mov	eax, DWORD PTR _status_window
	mov	DWORD PTR [esp], eax
	call	_purple_notify_message
LVL446:
	jmp	L194
LVL447:
	.p2align 2,,3
L241:
LBB33:
	.loc 1 749 0
	mov	DWORD PTR [esp+4], esi
	mov	eax, DWORD PTR _status_window
	mov	eax, DWORD PTR [eax+4]
	mov	DWORD PTR [esp], eax
	call	_gtk_list_store_remove
LVL448:
	jmp	L202
LVL449:
	.p2align 2,,3
L200:
LBE33:
	.loc 1 757 0
	mov	eax, DWORD PTR [esp+60]
	mov	DWORD PTR [esp+4], eax
	mov	DWORD PTR [esp], edi
	call	_purple_savedstatus_new
LVL450:
	mov	ebp, eax
LVL451:
	jmp	L206
LVL452:
L244:
	.loc 1 813 0
	call	___stack_chk_fail
LVL453:
	.cfi_endproc
LFE118:
	.p2align 2,,3
	.def	_search_func;	.scl	3;	.type	32;	.endef
_search_func:
LFB107:
	.loc 1 412 0
	.cfi_startproc
LVL454:
	push	ebx
LCFI146:
	.cfi_def_cfa_offset 8
	.cfi_offset 3, -8
	sub	esp, 56
LCFI147:
	.cfi_def_cfa_offset 64
	mov	ebx, DWORD PTR [esp+72]
	.loc 1 412 0
	mov	eax, DWORD PTR ___stack_chk_guard
	mov	DWORD PTR [esp+44], eax
	xor	eax, eax
	.loc 1 416 0
	mov	DWORD PTR [esp+16], -1
	lea	eax, [esp+40]
	mov	DWORD PTR [esp+12], eax
	mov	eax, DWORD PTR [esp+68]
	mov	DWORD PTR [esp+8], eax
	mov	eax, DWORD PTR [esp+76]
	mov	DWORD PTR [esp+4], eax
	mov	eax, DWORD PTR [esp+64]
	mov	DWORD PTR [esp], eax
	call	_gtk_tree_model_get
LVL455:
	.loc 1 418 0
	mov	DWORD PTR [esp+4], ebx
LVL456:
	mov	eax, DWORD PTR [esp+40]
	mov	DWORD PTR [esp], eax
	call	_purple_strcasestr
LVL457:
	mov	ebx, eax
LVL458:
	.loc 1 420 0
	mov	eax, DWORD PTR [esp+40]
LVL459:
	mov	DWORD PTR [esp], eax
	call	_g_free
LVL460:
	.loc 1 418 0
	xor	eax, eax
	test	ebx, ebx
	sete	al
	.loc 1 423 0
	mov	edx, DWORD PTR [esp+44]
	xor	edx, DWORD PTR ___stack_chk_guard
	jne	L249
	add	esp, 56
LCFI148:
	.cfi_remember_state
	.cfi_def_cfa_offset 8
	pop	ebx
LCFI149:
	.cfi_restore 3
	.cfi_def_cfa_offset 4
LVL461:
	ret
LVL462:
L249:
LCFI150:
	.cfi_restore_state
	call	___stack_chk_fail
LVL463:
	.cfi_endproc
LFE107:
	.p2align 2,,3
	.def	_status_selected_cb;	.scl	3;	.type	32;	.endef
_status_selected_cb:
LFB103:
	.loc 1 330 0
	.cfi_startproc
LVL464:
	push	ebp
LCFI151:
	.cfi_def_cfa_offset 8
	.cfi_offset 5, -8
	push	edi
LCFI152:
	.cfi_def_cfa_offset 12
	.cfi_offset 7, -12
	push	esi
LCFI153:
	.cfi_def_cfa_offset 16
	.cfi_offset 6, -16
	push	ebx
LCFI154:
	.cfi_def_cfa_offset 20
	.cfi_offset 3, -20
	sub	esp, 108
LCFI155:
	.cfi_def_cfa_offset 128
	mov	ebx, DWORD PTR [esp+128]
	mov	edx, DWORD PTR [esp+132]
	mov	DWORD PTR [esp+48], edx
	.loc 1 330 0
	mov	eax, DWORD PTR ___stack_chk_guard
	mov	DWORD PTR [esp+92], eax
	xor	eax, eax
LVL465:
	.loc 1 335 0
	call	_gtk_tree_model_get_type
LVL466:
	mov	DWORD PTR [esp+4], eax
	mov	edx, DWORD PTR [esp+48]
	mov	eax, DWORD PTR [edx+4]
	mov	DWORD PTR [esp], eax
	call	_g_type_check_instance_cast
LVL467:
	mov	esi, eax
LVL468:
	.loc 1 337 0
	mov	DWORD PTR [esp+4], 0
	mov	DWORD PTR [esp], ebx
	call	_gtk_tree_selection_get_selected_rows
LVL469:
	mov	DWORD PTR [esp+52], eax
LVL470:
	.loc 1 339 0
	test	eax, eax
	je	L251
	mov	ebp, eax
	xor	ebx, ebx
	mov	DWORD PTR [esp+56], 1
	mov	DWORD PTR [esp+60], 1
	lea	edi, [esp+76]
	jmp	L254
LVL471:
	.p2align 2,,3
L252:
LBB34:
	.loc 1 353 0
	mov	eax, DWORD PTR [ebp+0]
	mov	DWORD PTR [esp], eax
	call	_gtk_tree_path_free
LVL472:
LBE34:
	.loc 1 339 0
	mov	ebp, DWORD PTR [ebp+4]
LVL473:
	inc	ebx
LVL474:
	test	ebp, ebp
	je	L274
LVL475:
L254:
LBB35:
	.loc 1 343 0
	mov	eax, DWORD PTR [ebp+0]
	mov	DWORD PTR [esp+8], eax
	mov	DWORD PTR [esp+4], edi
	mov	DWORD PTR [esp], esi
	call	_gtk_tree_model_get_iter
LVL476:
	test	eax, eax
	je	L252
	.loc 1 344 0
	mov	DWORD PTR [esp+16], -1
	lea	eax, [esp+72]
	mov	DWORD PTR [esp+12], eax
	mov	DWORD PTR [esp+8], 0
	mov	DWORD PTR [esp+4], edi
	mov	DWORD PTR [esp], esi
	call	_gtk_tree_model_get
LVL477:
	.loc 1 346 0
	mov	eax, DWORD PTR [esp+72]
	mov	DWORD PTR [esp], eax
	call	_purple_savedstatus_find
LVL478:
	mov	DWORD PTR [esp+44], eax
	call	_purple_savedstatus_get_current
LVL479:
	cmp	DWORD PTR [esp+44], eax
	je	L275
L253:
LVL480:
	.loc 1 350 0
	mov	eax, DWORD PTR [esp+72]
	mov	DWORD PTR [esp], eax
	call	_g_free
LVL481:
	jmp	L252
LVL482:
	.p2align 2,,3
L274:
LBE35:
	.loc 1 356 0
	cmp	ebx, 1
	je	L255
	test	ebx, ebx
	setg	bl
LVL483:
	mov	DWORD PTR [esp+4], 0
	mov	edx, DWORD PTR [esp+48]
	mov	eax, DWORD PTR [edx+12]
	mov	DWORD PTR [esp], eax
	call	_gtk_widget_set_sensitive
LVL484:
	.loc 1 357 0
	movzx	eax, bl
	mov	DWORD PTR [esp+4], eax
	mov	edx, DWORD PTR [esp+48]
	mov	eax, DWORD PTR [edx+16]
	mov	DWORD PTR [esp], eax
	call	_gtk_widget_set_sensitive
LVL485:
	.loc 1 358 0
	test	bl, bl
	je	L257
	.loc 1 358 0 is_stmt 0 discriminator 1
	mov	eax, DWORD PTR [esp+56]
	test	eax, eax
	jne	L276
LVL486:
L257:
	.loc 1 358 0
	xor	eax, eax
L260:
	.loc 1 358 0 discriminator 4
	mov	DWORD PTR [esp+4], eax
	mov	edx, DWORD PTR [esp+48]
	mov	eax, DWORD PTR [edx+20]
	mov	DWORD PTR [esp], eax
	call	_gtk_widget_set_sensitive
LVL487:
	.loc 1 360 0 is_stmt 1 discriminator 4
	mov	eax, DWORD PTR [esp+52]
	mov	DWORD PTR [esp], eax
	call	_g_list_free
LVL488:
	.loc 1 361 0 discriminator 4
	mov	edx, DWORD PTR [esp+92]
	xor	edx, DWORD PTR ___stack_chk_guard
	jne	L277
	.loc 1 361 0 is_stmt 0
	add	esp, 108
LCFI156:
	.cfi_remember_state
	.cfi_def_cfa_offset 20
	pop	ebx
LCFI157:
	.cfi_restore 3
	.cfi_def_cfa_offset 16
	pop	esi
LCFI158:
	.cfi_restore 6
	.cfi_def_cfa_offset 12
LVL489:
	pop	edi
LCFI159:
	.cfi_restore 7
	.cfi_def_cfa_offset 8
	pop	ebp
LCFI160:
	.cfi_restore 5
	.cfi_def_cfa_offset 4
	ret
LVL490:
	.p2align 2,,3
L276:
LCFI161:
	.cfi_restore_state
	.loc 1 358 0 is_stmt 1
	mov	eax, 1
	jmp	L260
LVL491:
	.p2align 2,,3
L275:
LBB36:
	.loc 1 347 0
	mov	DWORD PTR [esp+56], 0
	mov	DWORD PTR [esp+60], 0
	jmp	L253
LVL492:
	.p2align 2,,3
L255:
LBE36:
	.loc 1 356 0 discriminator 1
	mov	eax, DWORD PTR [esp+60]
	test	eax, eax
	jne	L258
	.loc 1 356 0 is_stmt 0
	mov	DWORD PTR [esp+4], 0
L273:
	mov	edx, DWORD PTR [esp+48]
	mov	eax, DWORD PTR [edx+12]
	mov	DWORD PTR [esp], eax
	call	_gtk_widget_set_sensitive
LVL493:
	.loc 1 357 0 is_stmt 1
	mov	DWORD PTR [esp+4], 1
	mov	edx, DWORD PTR [esp+48]
	mov	eax, DWORD PTR [edx+16]
	mov	DWORD PTR [esp], eax
	call	_gtk_widget_set_sensitive
LVL494:
	.loc 1 358 0
	mov	eax, DWORD PTR [esp+56]
	test	eax, eax
	je	L257
	jmp	L276
	.p2align 2,,3
L258:
	.loc 1 356 0
	mov	DWORD PTR [esp+4], 1
	jmp	L273
LVL495:
L251:
	mov	DWORD PTR [esp+4], 0
	mov	edx, DWORD PTR [esp+48]
	mov	eax, DWORD PTR [edx+12]
LVL496:
	mov	DWORD PTR [esp], eax
	call	_gtk_widget_set_sensitive
LVL497:
	.loc 1 357 0
	mov	DWORD PTR [esp+4], 0
	mov	edx, DWORD PTR [esp+48]
	mov	eax, DWORD PTR [edx+16]
	mov	DWORD PTR [esp], eax
	call	_gtk_widget_set_sensitive
LVL498:
	jmp	L257
LVL499:
L277:
	.loc 1 361 0
	call	___stack_chk_fail
LVL500:
	.cfi_endproc
LFE103:
	.p2align 2,,3
	.def	_current_status_changed;	.scl	3;	.type	32;	.endef
_current_status_changed:
LFB112:
	.loc 1 539 0
	.cfi_startproc
LVL501:
	push	ebx
LCFI162:
	.cfi_def_cfa_offset 8
	.cfi_offset 3, -8
	sub	esp, 40
LCFI163:
	.cfi_def_cfa_offset 48
	mov	ebx, DWORD PTR [esp+56]
	.loc 1 539 0
	mov	eax, DWORD PTR ___stack_chk_guard
	mov	DWORD PTR [esp+28], eax
	xor	eax, eax
	.loc 1 540 0
	call	_gtk_tree_view_get_type
LVL502:
	mov	DWORD PTR [esp+4], eax
	mov	eax, DWORD PTR [ebx+8]
	mov	DWORD PTR [esp], eax
	call	_g_type_check_instance_cast
LVL503:
	mov	DWORD PTR [esp], eax
	call	_gtk_tree_view_get_selection
LVL504:
	mov	edx, DWORD PTR [esp+28]
	xor	edx, DWORD PTR ___stack_chk_guard
	jne	L282
	mov	DWORD PTR [esp+52], ebx
	mov	DWORD PTR [esp+48], eax
	.loc 1 541 0
	add	esp, 40
LCFI164:
	.cfi_remember_state
	.cfi_def_cfa_offset 8
	pop	ebx
LCFI165:
	.cfi_restore 3
	.cfi_def_cfa_offset 4
	.loc 1 540 0
	jmp	_status_selected_cb
LVL505:
L282:
LCFI166:
	.cfi_restore_state
	call	___stack_chk_fail
LVL506:
	.cfi_endproc
LFE112:
	.section .rdata,"dr"
	.align 4
LC20:
	.ascii "Are you sure you want to delete %s?\0"
	.align 4
LC21:
	.ascii "Are you sure you want to delete the selected saved statuses?\0"
LC22:
	.ascii "Cancel\0"
LC23:
	.ascii "Delete\0"
LC24:
	.ascii "sel_titles != NULL\0"
	.text
	.p2align 2,,3
	.def	_status_window_delete_cb;	.scl	3;	.type	32;	.endef
_status_window_delete_cb:
LFB101:
	.loc 1 277 0
	.cfi_startproc
LVL507:
	push	ebp
LCFI167:
	.cfi_def_cfa_offset 8
	.cfi_offset 5, -8
	push	edi
LCFI168:
	.cfi_def_cfa_offset 12
	.cfi_offset 7, -12
	push	esi
LCFI169:
	.cfi_def_cfa_offset 16
	.cfi_offset 6, -16
	push	ebx
LCFI170:
	.cfi_def_cfa_offset 20
	.cfi_offset 3, -20
	sub	esp, 124
LCFI171:
	.cfi_def_cfa_offset 144
	mov	edx, DWORD PTR [esp+148]
	mov	DWORD PTR [esp+72], edx
	.loc 1 277 0
	mov	eax, DWORD PTR ___stack_chk_guard
	mov	DWORD PTR [esp+108], eax
	xor	eax, eax
LVL508:
	.loc 1 282 0
	call	_gtk_tree_model_get_type
LVL509:
	mov	DWORD PTR [esp+4], eax
	mov	edx, DWORD PTR [esp+72]
	mov	eax, DWORD PTR [edx+4]
	mov	DWORD PTR [esp], eax
	call	_g_type_check_instance_cast
LVL510:
	mov	ebx, eax
LVL511:
	.loc 1 286 0
	call	_gtk_tree_view_get_type
LVL512:
	mov	DWORD PTR [esp+4], eax
	mov	edx, DWORD PTR [esp+72]
	mov	eax, DWORD PTR [edx+8]
	mov	DWORD PTR [esp], eax
	call	_g_type_check_instance_cast
LVL513:
	mov	DWORD PTR [esp], eax
	call	_gtk_tree_view_get_selection
LVL514:
	.loc 1 287 0
	mov	DWORD PTR [esp+4], 0
	mov	DWORD PTR [esp], eax
	call	_gtk_tree_selection_get_selected_rows
LVL515:
	mov	DWORD PTR [esp+76], eax
LVL516:
	.loc 1 294 0
	test	eax, eax
	je	L284
	mov	ebp, eax
	xor	edi, edi
	lea	esi, [esp+92]
	jmp	L286
LVL517:
	.p2align 2,,3
L285:
	.loc 1 299 0
	mov	eax, DWORD PTR [ebp+0]
	mov	DWORD PTR [esp], eax
	call	_gtk_tree_path_free
LVL518:
	.loc 1 294 0
	mov	ebp, DWORD PTR [ebp+4]
LVL519:
	test	ebp, ebp
	je	L300
LVL520:
L286:
	.loc 1 295 0
	mov	eax, DWORD PTR [ebp+0]
	mov	DWORD PTR [esp+8], eax
	mov	DWORD PTR [esp+4], esi
	mov	DWORD PTR [esp], ebx
	call	_gtk_tree_model_get_iter
LVL521:
	test	eax, eax
	je	L285
	.loc 1 296 0
	mov	DWORD PTR [esp+16], -1
	lea	eax, [esp+88]
	mov	DWORD PTR [esp+12], eax
	mov	DWORD PTR [esp+8], 0
	mov	DWORD PTR [esp+4], esi
	mov	DWORD PTR [esp], ebx
	call	_gtk_tree_model_get
LVL522:
	.loc 1 297 0
	mov	eax, DWORD PTR [esp+88]
	mov	DWORD PTR [esp+4], eax
	mov	DWORD PTR [esp], edi
	call	_g_list_prepend
LVL523:
	mov	edi, eax
LVL524:
	jmp	L285
LVL525:
	.p2align 2,,3
L300:
	.loc 1 301 0
	mov	eax, DWORD PTR [esp+76]
	mov	DWORD PTR [esp], eax
	call	_g_list_free
LVL526:
LBB37:
	.loc 1 303 0
	test	edi, edi
	je	L288
LVL527:
LBE37:
	.loc 1 304 0
	mov	eax, DWORD PTR [edi+4]
	test	eax, eax
	je	L301
	.loc 1 309 0
	mov	DWORD PTR [esp+4], OFFSET FLAT:LC21
	mov	DWORD PTR [esp], OFFSET FLAT:LC6
	call	_libintl_dgettext
LVL528:
	mov	DWORD PTR [esp], eax
	call	_g_strdup
LVL529:
	mov	DWORD PTR [esp+88], eax
LVL530:
	mov	ebp, DWORD PTR [esp+72]
LVL531:
L289:
	.loc 1 317 0
	mov	DWORD PTR [esp+4], OFFSET FLAT:LC22
	mov	DWORD PTR [esp], OFFSET FLAT:LC6
	call	_libintl_dgettext
LVL532:
	mov	ebx, eax
	.loc 1 316 0
	mov	DWORD PTR [esp+4], OFFSET FLAT:LC23
	mov	DWORD PTR [esp], OFFSET FLAT:LC6
	call	_libintl_dgettext
LVL533:
	.loc 1 313 0
	mov	DWORD PTR [esp+52], OFFSET FLAT:_status_window_delete_cancel_cb
	mov	DWORD PTR [esp+48], ebx
	mov	DWORD PTR [esp+44], OFFSET FLAT:_status_window_delete_confirm_cb
	mov	DWORD PTR [esp+40], eax
	mov	DWORD PTR [esp+36], 2
	mov	DWORD PTR [esp+32], edi
	mov	DWORD PTR [esp+28], 0
	mov	DWORD PTR [esp+24], 0
	mov	DWORD PTR [esp+20], 0
	mov	DWORD PTR [esp+16], 0
	mov	DWORD PTR [esp+12], 0
	mov	edx, DWORD PTR [esp+88]
	mov	DWORD PTR [esp+8], edx
	mov	DWORD PTR [esp+4], 0
	mov	DWORD PTR [esp], ebp
	call	_purple_request_action
LVL534:
	.loc 1 319 0
	mov	eax, DWORD PTR [esp+88]
	mov	DWORD PTR [esp], eax
	call	_g_free
LVL535:
L283:
	.loc 1 320 0
	mov	edx, DWORD PTR [esp+108]
	xor	edx, DWORD PTR ___stack_chk_guard
	jne	L302
	add	esp, 124
LCFI172:
	.cfi_remember_state
	.cfi_def_cfa_offset 20
	pop	ebx
LCFI173:
	.cfi_restore 3
	.cfi_def_cfa_offset 16
	pop	esi
LCFI174:
	.cfi_restore 6
	.cfi_def_cfa_offset 12
	pop	edi
LCFI175:
	.cfi_restore 7
	.cfi_def_cfa_offset 8
	pop	ebp
LCFI176:
	.cfi_restore 5
	.cfi_def_cfa_offset 4
	ret
LVL536:
L284:
LCFI177:
	.cfi_restore_state
	.loc 1 301 0
	mov	DWORD PTR [esp], 0
	call	_g_list_free
LVL537:
L288:
	.loc 1 303 0
	mov	DWORD PTR [esp+8], OFFSET FLAT:LC24
	mov	DWORD PTR [esp+4], OFFSET FLAT:___PRETTY_FUNCTION__.78238
	mov	DWORD PTR [esp], 0
	call	_g_return_if_fail_warning
LVL538:
	jmp	L283
LVL539:
	.p2align 2,,3
L301:
	.loc 1 306 0
	mov	ebx, DWORD PTR [edi]
LVL540:
	.loc 1 305 0
	mov	DWORD PTR [esp+4], OFFSET FLAT:LC20
	mov	DWORD PTR [esp], OFFSET FLAT:LC6
	call	_libintl_dgettext
LVL541:
	mov	DWORD PTR [esp+4], ebx
	mov	DWORD PTR [esp], eax
	call	_g_strdup_printf
LVL542:
	mov	DWORD PTR [esp+88], eax
	.loc 1 307 0
	mov	eax, DWORD PTR [edi]
	mov	DWORD PTR [esp], eax
	call	_purple_savedstatus_find
LVL543:
	mov	ebp, eax
LVL544:
	jmp	L289
LVL545:
L302:
	.loc 1 320 0
	call	___stack_chk_fail
LVL546:
	.cfi_endproc
LFE101:
	.p2align 2,,3
	.def	_status_window_delete_cancel_cb;	.scl	3;	.type	32;	.endef
_status_window_delete_cancel_cb:
LFB99:
	.loc 1 250 0
	.cfi_startproc
LVL547:
	push	ebx
LCFI178:
	.cfi_def_cfa_offset 8
	.cfi_offset 3, -8
	sub	esp, 40
LCFI179:
	.cfi_def_cfa_offset 48
	mov	ebx, DWORD PTR [esp+48]
	.loc 1 250 0
	mov	eax, DWORD PTR ___stack_chk_guard
	mov	DWORD PTR [esp+28], eax
	xor	eax, eax
LVL548:
	.loc 1 252 0
	mov	DWORD PTR [esp+8], 0
	mov	DWORD PTR [esp+4], OFFSET FLAT:_g_free
	mov	DWORD PTR [esp], ebx
	call	_g_list_foreach
LVL549:
	.loc 1 253 0
	mov	eax, DWORD PTR [esp+28]
	xor	eax, DWORD PTR ___stack_chk_guard
	jne	L307
	mov	DWORD PTR [esp+48], ebx
	.loc 1 254 0
	add	esp, 40
LCFI180:
	.cfi_remember_state
	.cfi_def_cfa_offset 8
	pop	ebx
LCFI181:
	.cfi_restore 3
	.cfi_def_cfa_offset 4
LVL550:
	.loc 1 253 0
	jmp	_g_list_free
LVL551:
L307:
LCFI182:
	.cfi_restore_state
	call	___stack_chk_fail
LVL552:
	.cfi_endproc
LFE99:
	.p2align 2,,3
	.def	_status_window_delete_confirm_cb;	.scl	3;	.type	32;	.endef
_status_window_delete_confirm_cb:
LFB100:
	.loc 1 258 0
	.cfi_startproc
LVL553:
	push	ebp
LCFI183:
	.cfi_def_cfa_offset 8
	.cfi_offset 5, -8
	push	edi
LCFI184:
	.cfi_def_cfa_offset 12
	.cfi_offset 7, -12
	push	esi
LCFI185:
	.cfi_def_cfa_offset 16
	.cfi_offset 6, -16
	push	ebx
LCFI186:
	.cfi_def_cfa_offset 20
	.cfi_offset 3, -20
	sub	esp, 76
LCFI187:
	.cfi_def_cfa_offset 96
	mov	eax, DWORD PTR [esp+96]
	mov	DWORD PTR [esp+28], eax
	.loc 1 258 0
	mov	eax, DWORD PTR ___stack_chk_guard
	mov	DWORD PTR [esp+60], eax
	xor	eax, eax
LVL554:
	.loc 1 263 0
	mov	esi, DWORD PTR [esp+28]
	.loc 1 266 0
	lea	ebp, [esp+44]
	.loc 1 263 0
	test	esi, esi
	jne	L317
	jmp	L313
LVL555:
	.p2align 2,,3
L311:
	.loc 1 268 0
	mov	DWORD PTR [esp], ebx
	call	_purple_savedstatus_delete
LVL556:
L310:
	.loc 1 270 0
	mov	DWORD PTR [esp], ebx
	call	_g_free
LVL557:
	.loc 1 263 0
	mov	esi, DWORD PTR [esi+4]
LVL558:
	test	esi, esi
	je	L313
LVL559:
L317:
	.loc 1 264 0
	mov	ebx, DWORD PTR [esi]
LVL560:
	.loc 1 265 0
	mov	DWORD PTR [esp], ebx
	call	_purple_savedstatus_find
LVL561:
	mov	edi, eax
	call	_purple_savedstatus_get_current
LVL562:
	cmp	edi, eax
	je	L310
	.loc 1 266 0
	mov	edx, ebx
	mov	eax, ebp
	call	_status_window_find_savedstatus
LVL563:
	test	eax, eax
	je	L311
	.loc 1 267 0
	mov	DWORD PTR [esp+4], ebp
	mov	eax, DWORD PTR _status_window
	mov	eax, DWORD PTR [eax+4]
	mov	DWORD PTR [esp], eax
	call	_gtk_list_store_remove
LVL564:
	jmp	L311
LVL565:
	.p2align 2,,3
L313:
	.loc 1 272 0
	mov	eax, DWORD PTR [esp+28]
	mov	DWORD PTR [esp], eax
	call	_g_list_free
LVL566:
	.loc 1 273 0
	mov	eax, DWORD PTR [esp+60]
	xor	eax, DWORD PTR ___stack_chk_guard
	jne	L322
	add	esp, 76
LCFI188:
	.cfi_remember_state
	.cfi_def_cfa_offset 20
	pop	ebx
LCFI189:
	.cfi_restore 3
	.cfi_def_cfa_offset 16
	pop	esi
LCFI190:
	.cfi_restore 6
	.cfi_def_cfa_offset 12
LVL567:
	pop	edi
LCFI191:
	.cfi_restore 7
	.cfi_def_cfa_offset 8
	pop	ebp
LCFI192:
	.cfi_restore 5
	.cfi_def_cfa_offset 4
	ret
LVL568:
L322:
LCFI193:
	.cfi_restore_state
	call	___stack_chk_fail
LVL569:
	.cfi_endproc
LFE100:
	.p2align 2,,3
	.def	_status_window_modify_cb;	.scl	3;	.type	32;	.endef
_status_window_modify_cb:
LFB98:
	.loc 1 239 0
	.cfi_startproc
LVL570:
	push	ebx
LCFI194:
	.cfi_def_cfa_offset 8
	.cfi_offset 3, -8
	sub	esp, 40
LCFI195:
	.cfi_def_cfa_offset 48
	mov	ebx, DWORD PTR [esp+52]
	.loc 1 239 0
	mov	eax, DWORD PTR ___stack_chk_guard
	mov	DWORD PTR [esp+28], eax
	xor	eax, eax
LVL571:
	.loc 1 243 0
	call	_gtk_tree_view_get_type
LVL572:
	mov	DWORD PTR [esp+4], eax
	mov	eax, DWORD PTR [ebx+8]
	mov	DWORD PTR [esp], eax
	call	_g_type_check_instance_cast
LVL573:
	mov	DWORD PTR [esp], eax
	call	_gtk_tree_view_get_selection
LVL574:
	.loc 1 245 0
	mov	DWORD PTR [esp+8], ebx
	mov	DWORD PTR [esp+4], OFFSET FLAT:_status_window_modify_foreach
	mov	DWORD PTR [esp], eax
	call	_gtk_tree_selection_selected_foreach
LVL575:
	.loc 1 246 0
	mov	eax, DWORD PTR [esp+28]
	xor	eax, DWORD PTR ___stack_chk_guard
	jne	L326
	add	esp, 40
LCFI196:
	.cfi_remember_state
	.cfi_def_cfa_offset 8
	pop	ebx
LCFI197:
	.cfi_restore 3
	.cfi_def_cfa_offset 4
LVL576:
	ret
LVL577:
L326:
LCFI198:
	.cfi_restore_state
	call	___stack_chk_fail
LVL578:
	.cfi_endproc
LFE98:
	.p2align 2,,3
	.def	_status_window_use_cb;	.scl	3;	.type	32;	.endef
_status_window_use_cb:
LFB95:
	.loc 1 183 0
	.cfi_startproc
LVL579:
	push	ebp
LCFI199:
	.cfi_def_cfa_offset 8
	.cfi_offset 5, -8
	push	edi
LCFI200:
	.cfi_def_cfa_offset 12
	.cfi_offset 7, -12
	push	esi
LCFI201:
	.cfi_def_cfa_offset 16
	.cfi_offset 6, -16
	push	ebx
LCFI202:
	.cfi_def_cfa_offset 20
	.cfi_offset 3, -20
	sub	esp, 76
LCFI203:
	.cfi_def_cfa_offset 96
	mov	ebx, DWORD PTR [esp+100]
	.loc 1 183 0
	mov	eax, DWORD PTR ___stack_chk_guard
	mov	DWORD PTR [esp+60], eax
	xor	eax, eax
LVL580:
	.loc 1 189 0
	call	_gtk_tree_view_get_type
LVL581:
	mov	DWORD PTR [esp+4], eax
	mov	eax, DWORD PTR [ebx+8]
	mov	DWORD PTR [esp], eax
	call	_g_type_check_instance_cast
LVL582:
	mov	DWORD PTR [esp], eax
	call	_gtk_tree_view_get_selection
LVL583:
	mov	esi, eax
LVL584:
	.loc 1 191 0
	mov	DWORD PTR [esp], eax
	call	_gtk_tree_selection_count_selected_rows
LVL585:
	.loc 1 192 0
	dec	eax
LVL586:
	je	L336
LVL587:
L327:
	.loc 1 216 0
	mov	eax, DWORD PTR [esp+60]
	xor	eax, DWORD PTR ___stack_chk_guard
	jne	L337
	add	esp, 76
LCFI204:
	.cfi_remember_state
	.cfi_def_cfa_offset 20
	pop	ebx
LCFI205:
	.cfi_restore 3
	.cfi_def_cfa_offset 16
	pop	esi
LCFI206:
	.cfi_restore 6
	.cfi_def_cfa_offset 12
	pop	edi
LCFI207:
	.cfi_restore 7
	.cfi_def_cfa_offset 8
	pop	ebp
LCFI208:
	.cfi_restore 5
	.cfi_def_cfa_offset 4
	ret
LVL588:
	.p2align 2,,3
L336:
LCFI209:
	.cfi_restore_state
	.loc 1 199 0
	mov	DWORD PTR [esp+4], 0
	mov	DWORD PTR [esp], esi
	call	_gtk_tree_selection_get_selected_rows
LVL589:
	mov	esi, eax
LVL590:
	.loc 1 202 0
	mov	edi, DWORD PTR [eax]
	.loc 1 201 0
	call	_gtk_tree_model_get_type
LVL591:
	mov	ebp, eax
	mov	DWORD PTR [esp+4], eax
	mov	eax, DWORD PTR [ebx+4]
	mov	DWORD PTR [esp], eax
	call	_g_type_check_instance_cast
LVL592:
	mov	DWORD PTR [esp+8], edi
	lea	edi, [esp+44]
	mov	DWORD PTR [esp+4], edi
	mov	DWORD PTR [esp], eax
	call	_gtk_tree_model_get_iter
LVL593:
	test	eax, eax
	je	L329
LBB38:
	.loc 1 206 0
	mov	DWORD PTR [esp+4], ebp
	mov	eax, DWORD PTR [ebx+4]
	mov	DWORD PTR [esp], eax
	call	_g_type_check_instance_cast
LVL594:
	mov	DWORD PTR [esp+16], -1
	lea	edx, [esp+40]
	mov	DWORD PTR [esp+12], edx
	mov	DWORD PTR [esp+8], 0
	mov	DWORD PTR [esp+4], edi
	mov	DWORD PTR [esp], eax
	call	_gtk_tree_model_get
LVL595:
	.loc 1 209 0
	mov	eax, DWORD PTR [esp+40]
	mov	DWORD PTR [esp], eax
	call	_purple_savedstatus_find
LVL596:
	mov	ebx, eax
LVL597:
	.loc 1 210 0
	mov	eax, DWORD PTR [esp+40]
LVL598:
	mov	DWORD PTR [esp], eax
	call	_g_free
LVL599:
	.loc 1 211 0
	mov	DWORD PTR [esp], ebx
	call	_purple_savedstatus_activate
LVL600:
L329:
LBE38:
	.loc 1 214 0
	mov	DWORD PTR [esp+8], 0
	mov	DWORD PTR [esp+4], OFFSET FLAT:_gtk_tree_path_free
	mov	DWORD PTR [esp], esi
	call	_g_list_foreach
LVL601:
	.loc 1 215 0
	mov	DWORD PTR [esp], esi
	call	_g_list_free
LVL602:
	jmp	L327
LVL603:
L337:
	.loc 1 216 0
	call	___stack_chk_fail
LVL604:
	.cfi_endproc
LFE95:
	.p2align 2,,3
	.def	_pidgin_status_menu_add_primitive.isra.0;	.scl	3;	.type	32;	.endef
_pidgin_status_menu_add_primitive.isra.0:
LFB147:
	.loc 1 1635 0
	.cfi_startproc
LVL605:
	push	ebp
LCFI210:
	.cfi_def_cfa_offset 8
	.cfi_offset 5, -8
	push	edi
LCFI211:
	.cfi_def_cfa_offset 12
	.cfi_offset 7, -12
	push	esi
LCFI212:
	.cfi_def_cfa_offset 16
	.cfi_offset 6, -16
	push	ebx
LCFI213:
	.cfi_def_cfa_offset 20
	.cfi_offset 3, -20
	sub	esp, 124
LCFI214:
	.cfi_def_cfa_offset 144
	mov	esi, eax
	mov	ebx, edx
	mov	ebp, ecx
	.loc 1 1635 0
	mov	eax, DWORD PTR ___stack_chk_guard
	mov	DWORD PTR [esp+108], eax
	xor	eax, eax
LVL606:
	.loc 1 1641 0
	lea	edi, [esp+92]
	mov	DWORD PTR [esp+4], edi
	mov	DWORD PTR [esp], esi
	call	_gtk_list_store_append
LVL607:
	.loc 1 1642 0
	mov	DWORD PTR [esp], ebx
	call	_purple_primitive_get_name_from_type
LVL608:
	mov	DWORD PTR [esp], ebx
	mov	DWORD PTR [esp+76], eax
	call	_pidgin_stock_id_from_status_primitive
LVL609:
	mov	DWORD PTR [esp+48], -1
	mov	DWORD PTR [esp+44], 0
	mov	DWORD PTR [esp+40], 5
	mov	DWORD PTR [esp+36], ebx
	mov	DWORD PTR [esp+32], 3
	mov	edx, DWORD PTR [esp+76]
	mov	DWORD PTR [esp+28], edx
	mov	DWORD PTR [esp+24], 2
	mov	DWORD PTR [esp+20], eax
	mov	DWORD PTR [esp+16], 1
	mov	DWORD PTR [esp+12], 0
	mov	DWORD PTR [esp+8], 0
	mov	DWORD PTR [esp+4], edi
	mov	DWORD PTR [esp], esi
	call	_gtk_list_store_set
LVL610:
	.loc 1 1650 0
	mov	DWORD PTR [esp], ebp
	call	_purple_savedstatus_is_transient
LVL611:
	test	eax, eax
	jne	L339
L341:
	.loc 1 1639 0
	xor	eax, eax
L340:
LVL612:
	.loc 1 1656 0
	mov	edx, DWORD PTR [esp+108]
	xor	edx, DWORD PTR ___stack_chk_guard
	jne	L344
	add	esp, 124
LCFI215:
	.cfi_remember_state
	.cfi_def_cfa_offset 20
	pop	ebx
LCFI216:
	.cfi_restore 3
	.cfi_def_cfa_offset 16
LVL613:
	pop	esi
LCFI217:
	.cfi_restore 6
	.cfi_def_cfa_offset 12
LVL614:
	pop	edi
LCFI218:
	.cfi_restore 7
	.cfi_def_cfa_offset 8
	pop	ebp
LCFI219:
	.cfi_restore 5
	.cfi_def_cfa_offset 4
LVL615:
	ret
LVL616:
	.p2align 2,,3
L339:
LCFI220:
	.cfi_restore_state
	.loc 1 1651 0
	mov	DWORD PTR [esp], ebp
	call	_purple_savedstatus_has_substatuses
LVL617:
	test	eax, eax
	jne	L341
LVL618:
LBB41:
LBB42:
	.loc 1 1652 0
	mov	DWORD PTR [esp], ebp
	call	_purple_savedstatus_get_type
LVL619:
	cmp	ebx, eax
	.loc 1 1639 0
	sete	al
	movzx	eax, al
LVL620:
	jmp	L340
LVL621:
L344:
LBE42:
LBE41:
	.loc 1 1656 0
	call	___stack_chk_fail
LVL622:
	.cfi_endproc
LFE147:
	.p2align 2,,3
	.def	_savedstatus_added_cb;	.scl	3;	.type	32;	.endef
_savedstatus_added_cb:
LFB140:
	.loc 1 1705 0
	.cfi_startproc
LVL623:
	push	ebp
LCFI221:
	.cfi_def_cfa_offset 8
	.cfi_offset 5, -8
	push	edi
LCFI222:
	.cfi_def_cfa_offset 12
	.cfi_offset 7, -12
	push	esi
LCFI223:
	.cfi_def_cfa_offset 16
	.cfi_offset 6, -16
	push	ebx
LCFI224:
	.cfi_def_cfa_offset 20
	.cfi_offset 3, -20
	sub	esp, 60
LCFI225:
	.cfi_def_cfa_offset 80
	mov	ebx, DWORD PTR [esp+80]
	mov	esi, DWORD PTR [esp+84]
	.loc 1 1705 0
	mov	eax, DWORD PTR ___stack_chk_guard
	mov	DWORD PTR [esp+44], eax
	xor	eax, eax
	.loc 1 1709 0
	mov	DWORD PTR [esp], ebx
	call	_purple_savedstatus_is_transient
LVL624:
	test	eax, eax
	je	L349
L345:
	.loc 1 1715 0
	mov	eax, DWORD PTR [esp+44]
	xor	eax, DWORD PTR ___stack_chk_guard
	jne	L350
	add	esp, 60
LCFI226:
	.cfi_remember_state
	.cfi_def_cfa_offset 20
	pop	ebx
LCFI227:
	.cfi_restore 3
	.cfi_def_cfa_offset 16
	pop	esi
LCFI228:
	.cfi_restore 6
	.cfi_def_cfa_offset 12
	pop	edi
LCFI229:
	.cfi_restore 7
	.cfi_def_cfa_offset 8
	pop	ebp
LCFI230:
	.cfi_restore 5
	.cfi_def_cfa_offset 4
	ret
	.p2align 2,,3
L349:
LCFI231:
	.cfi_restore_state
LVL625:
LBB45:
LBB46:
	.loc 1 1712 0
	call	_gtk_list_store_get_type
LVL626:
	mov	edi, eax
	call	_gtk_combo_box_get_type
LVL627:
	mov	DWORD PTR [esp+4], eax
	mov	DWORD PTR [esp], esi
	call	_g_type_check_instance_cast
LVL628:
	mov	DWORD PTR [esp], eax
	call	_gtk_combo_box_get_model
LVL629:
	mov	DWORD PTR [esp+4], edi
	mov	DWORD PTR [esp], eax
	call	_g_type_check_instance_cast
LVL630:
	mov	edi, eax
LVL631:
	.loc 1 1713 0
	lea	ebp, [esp+28]
	mov	DWORD PTR [esp+4], ebp
	mov	DWORD PTR [esp], eax
	call	_gtk_list_store_append
LVL632:
	.loc 1 1714 0
	mov	DWORD PTR [esp], ebx
	mov	ecx, ebp
	mov	edx, edi
	mov	eax, esi
	call	_pidgin_status_menu_update_iter
LVL633:
	jmp	L345
LVL634:
L350:
LBE46:
LBE45:
	.loc 1 1715 0
	call	___stack_chk_fail
LVL635:
	.cfi_endproc
LFE140:
	.p2align 2,,3
	.def	_savedstatus_modified_cb;	.scl	3;	.type	32;	.endef
_savedstatus_modified_cb:
LFB142:
	.loc 1 1733 0
	.cfi_startproc
LVL636:
	push	edi
LCFI232:
	.cfi_def_cfa_offset 8
	.cfi_offset 7, -8
	push	esi
LCFI233:
	.cfi_def_cfa_offset 12
	.cfi_offset 6, -12
	push	ebx
LCFI234:
	.cfi_def_cfa_offset 16
	.cfi_offset 3, -16
	sub	esp, 48
LCFI235:
	.cfi_def_cfa_offset 64
	mov	ebx, DWORD PTR [esp+64]
	mov	esi, DWORD PTR [esp+68]
	.loc 1 1733 0
	mov	eax, DWORD PTR ___stack_chk_guard
	mov	DWORD PTR [esp+44], eax
	xor	eax, eax
	.loc 1 1737 0
	mov	DWORD PTR [esp], ebx
	call	_purple_savedstatus_is_transient
LVL637:
	test	eax, eax
	je	L359
L351:
	.loc 1 1743 0
	mov	eax, DWORD PTR [esp+44]
	xor	eax, DWORD PTR ___stack_chk_guard
	jne	L360
	add	esp, 48
LCFI236:
	.cfi_remember_state
	.cfi_def_cfa_offset 16
	pop	ebx
LCFI237:
	.cfi_restore 3
	.cfi_def_cfa_offset 12
	pop	esi
LCFI238:
	.cfi_restore 6
	.cfi_def_cfa_offset 8
	pop	edi
LCFI239:
	.cfi_restore 7
	.cfi_def_cfa_offset 4
	ret
	.p2align 2,,3
L359:
LCFI240:
	.cfi_restore_state
LVL638:
LBB49:
LBB50:
	.loc 1 1740 0
	call	_gtk_list_store_get_type
LVL639:
	mov	edi, eax
	call	_gtk_combo_box_get_type
LVL640:
	mov	DWORD PTR [esp+4], eax
	mov	DWORD PTR [esp], esi
	call	_g_type_check_instance_cast
LVL641:
	mov	DWORD PTR [esp], eax
	call	_gtk_combo_box_get_model
LVL642:
	mov	DWORD PTR [esp+4], edi
	mov	DWORD PTR [esp], eax
	call	_g_type_check_instance_cast
LVL643:
	mov	edi, eax
LVL644:
	.loc 1 1741 0
	mov	ecx, ebx
	lea	edx, [esp+28]
	call	_pidgin_status_menu_find_iter
LVL645:
	test	eax, eax
	je	L351
	.loc 1 1742 0
	mov	DWORD PTR [esp], ebx
	lea	ecx, [esp+28]
	mov	edx, edi
	mov	eax, esi
	call	_pidgin_status_menu_update_iter
LVL646:
	jmp	L351
LVL647:
L360:
LBE50:
LBE49:
	.loc 1 1743 0
	call	___stack_chk_fail
LVL648:
	.cfi_endproc
LFE142:
	.p2align 2,,3
	.def	_savedstatus_deleted_cb;	.scl	3;	.type	32;	.endef
_savedstatus_deleted_cb:
LFB141:
	.loc 1 1719 0
	.cfi_startproc
LVL649:
	push	edi
LCFI241:
	.cfi_def_cfa_offset 8
	.cfi_offset 7, -8
	push	esi
LCFI242:
	.cfi_def_cfa_offset 12
	.cfi_offset 6, -12
	push	ebx
LCFI243:
	.cfi_def_cfa_offset 16
	.cfi_offset 3, -16
	sub	esp, 48
LCFI244:
	.cfi_def_cfa_offset 64
	mov	ebx, DWORD PTR [esp+64]
	mov	esi, DWORD PTR [esp+68]
	.loc 1 1719 0
	mov	eax, DWORD PTR ___stack_chk_guard
	mov	DWORD PTR [esp+44], eax
	xor	eax, eax
	.loc 1 1723 0
	mov	DWORD PTR [esp], ebx
	call	_purple_savedstatus_is_transient
LVL650:
	test	eax, eax
	je	L369
L361:
	.loc 1 1729 0
	mov	eax, DWORD PTR [esp+44]
	xor	eax, DWORD PTR ___stack_chk_guard
	jne	L370
	add	esp, 48
LCFI245:
	.cfi_remember_state
	.cfi_def_cfa_offset 16
	pop	ebx
LCFI246:
	.cfi_restore 3
	.cfi_def_cfa_offset 12
	pop	esi
LCFI247:
	.cfi_restore 6
	.cfi_def_cfa_offset 8
	pop	edi
LCFI248:
	.cfi_restore 7
	.cfi_def_cfa_offset 4
	ret
	.p2align 2,,3
L369:
LCFI249:
	.cfi_restore_state
LVL651:
LBB53:
LBB54:
	.loc 1 1726 0
	call	_gtk_list_store_get_type
LVL652:
	mov	edi, eax
	call	_gtk_combo_box_get_type
LVL653:
	mov	DWORD PTR [esp+4], eax
	mov	DWORD PTR [esp], esi
	call	_g_type_check_instance_cast
LVL654:
	mov	DWORD PTR [esp], eax
	call	_gtk_combo_box_get_model
LVL655:
	mov	DWORD PTR [esp+4], edi
	mov	DWORD PTR [esp], eax
	call	_g_type_check_instance_cast
LVL656:
	mov	esi, eax
LVL657:
	.loc 1 1727 0
	mov	ecx, ebx
	lea	edx, [esp+28]
	call	_pidgin_status_menu_find_iter
LVL658:
	test	eax, eax
	je	L361
	.loc 1 1728 0
	lea	eax, [esp+28]
	mov	DWORD PTR [esp+4], eax
	mov	DWORD PTR [esp], esi
	call	_gtk_list_store_remove
LVL659:
	jmp	L361
LVL660:
L370:
LBE54:
LBE53:
	.loc 1 1729 0
	call	___stack_chk_fail
LVL661:
	.cfi_endproc
LFE141:
	.p2align 2,,3
	.def	_substatus_editor_destroy_cb;	.scl	3;	.type	32;	.endef
_substatus_editor_destroy_cb:
LFB131:
	.loc 1 1313 0
	.cfi_startproc
LVL662:
	push	ebx
LCFI250:
	.cfi_def_cfa_offset 8
	.cfi_offset 3, -8
	sub	esp, 72
LCFI251:
	.cfi_def_cfa_offset 80
	mov	ebx, DWORD PTR [esp+84]
	.loc 1 1313 0
	mov	eax, DWORD PTR ___stack_chk_guard
	mov	DWORD PTR [esp+60], eax
	xor	eax, eax
LVL663:
LBB57:
LBB58:
	.loc 1 1302 0
	mov	ecx, DWORD PTR [ebx+4]
	mov	edx, DWORD PTR [ebx]
	lea	eax, [esp+44]
	call	_status_editor_find_account_in_treemodel
LVL664:
	test	eax, eax
	je	L372
	.loc 1 1305 0
	mov	DWORD PTR [esp+16], -1
	mov	DWORD PTR [esp+12], 0
	mov	DWORD PTR [esp+8], 1
	lea	eax, [esp+44]
	mov	DWORD PTR [esp+4], eax
	mov	eax, DWORD PTR [ebx]
	mov	eax, DWORD PTR [eax+4]
	mov	DWORD PTR [esp], eax
	call	_gtk_list_store_set
LVL665:
L372:
LBE58:
LBE57:
	.loc 1 1317 0
	mov	DWORD PTR [esp], ebx
	call	_g_free
LVL666:
	.loc 1 1318 0
	mov	eax, DWORD PTR [esp+60]
	xor	eax, DWORD PTR ___stack_chk_guard
	jne	L378
	add	esp, 72
LCFI252:
	.cfi_remember_state
	.cfi_def_cfa_offset 8
	pop	ebx
LCFI253:
	.cfi_restore 3
	.cfi_def_cfa_offset 4
LVL667:
	ret
LVL668:
L378:
LCFI254:
	.cfi_restore_state
	call	___stack_chk_fail
LVL669:
	.cfi_endproc
LFE131:
	.p2align 2,,3
	.def	_status_editor_destroy_cb;	.scl	3;	.type	32;	.endef
_status_editor_destroy_cb:
LFB116:
	.loc 1 691 0
	.cfi_startproc
LVL670:
	push	ebp
LCFI255:
	.cfi_def_cfa_offset 8
	.cfi_offset 5, -8
	push	edi
LCFI256:
	.cfi_def_cfa_offset 12
	.cfi_offset 7, -12
	push	esi
LCFI257:
	.cfi_def_cfa_offset 16
	.cfi_offset 6, -16
	push	ebx
LCFI258:
	.cfi_def_cfa_offset 20
	.cfi_offset 3, -20
	sub	esp, 76
LCFI259:
	.cfi_def_cfa_offset 96
	mov	edi, DWORD PTR [esp+100]
	.loc 1 691 0
	mov	eax, DWORD PTR ___stack_chk_guard
	mov	DWORD PTR [esp+60], eax
	xor	eax, eax
LVL671:
LBB64:
LBB65:
	.loc 1 660 0
	mov	edx, DWORD PTR [edi+20]
	lea	ebx, [esp+44]
	mov	eax, ebx
	call	_status_window_find_savedstatus
LVL672:
	test	eax, eax
	jne	L392
L380:
	.loc 1 668 0
	call	_gtk_tree_model_get_type
LVL673:
	mov	DWORD PTR [esp+4], eax
	mov	eax, DWORD PTR [edi+4]
	mov	DWORD PTR [esp], eax
	call	_g_type_check_instance_cast
LVL674:
	mov	esi, eax
LVL675:
	.loc 1 669 0
	mov	DWORD PTR [esp+4], ebx
	mov	DWORD PTR [esp], eax
	call	_gtk_tree_model_get_iter_first
LVL676:
	test	eax, eax
	je	L383
	lea	ebp, [esp+40]
LVL677:
	.p2align 2,,3
L381:
LBB66:
	.loc 1 674 0
	mov	DWORD PTR [esp+16], -1
	mov	DWORD PTR [esp+12], ebp
	mov	DWORD PTR [esp+8], 1
	mov	DWORD PTR [esp+4], ebx
	mov	DWORD PTR [esp], esi
	call	_gtk_tree_model_get
LVL678:
	.loc 1 677 0
	mov	eax, DWORD PTR [esp+40]
	test	eax, eax
	je	L382
	.loc 1 679 0
	mov	DWORD PTR [esp+16], -1
	mov	DWORD PTR [esp+12], 0
	mov	DWORD PTR [esp+8], 1
	mov	DWORD PTR [esp+4], ebx
	mov	eax, DWORD PTR [edi+4]
	mov	DWORD PTR [esp], eax
	call	_gtk_list_store_set
LVL679:
LBB67:
LBB68:
	.loc 1 1324 0
	mov	eax, DWORD PTR [esp+40]
	mov	eax, DWORD PTR [eax+8]
	mov	DWORD PTR [esp], eax
	call	_gtk_widget_destroy
LVL680:
L382:
LBE68:
LBE67:
LBE66:
	.loc 1 684 0
	mov	DWORD PTR [esp+4], ebx
	mov	DWORD PTR [esp], esi
	call	_gtk_tree_model_iter_next
LVL681:
	test	eax, eax
	jne	L381
L383:
LBE65:
LBE64:
	.loc 1 695 0
	mov	eax, DWORD PTR [edi+20]
	mov	DWORD PTR [esp], eax
	call	_g_free
LVL682:
	.loc 1 696 0
	mov	DWORD PTR [esp+4], 80
	mov	eax, DWORD PTR [edi+4]
	mov	DWORD PTR [esp], eax
	call	_g_type_check_instance_cast
LVL683:
	mov	DWORD PTR [esp], eax
	call	_g_object_unref
LVL684:
	.loc 1 697 0
	mov	DWORD PTR [esp], edi
	call	_g_free
LVL685:
	.loc 1 698 0
	mov	eax, DWORD PTR [esp+60]
	xor	eax, DWORD PTR ___stack_chk_guard
	jne	L393
	add	esp, 76
LCFI260:
	.cfi_remember_state
	.cfi_def_cfa_offset 20
	pop	ebx
LCFI261:
	.cfi_restore 3
	.cfi_def_cfa_offset 16
	pop	esi
LCFI262:
	.cfi_restore 6
	.cfi_def_cfa_offset 12
LVL686:
	pop	edi
LCFI263:
	.cfi_restore 7
	.cfi_def_cfa_offset 8
LVL687:
	pop	ebp
LCFI264:
	.cfi_restore 5
	.cfi_def_cfa_offset 4
	ret
LVL688:
	.p2align 2,,3
L392:
LCFI265:
	.cfi_restore_state
LBB70:
LBB69:
	.loc 1 662 0
	mov	DWORD PTR [esp+16], -1
	mov	DWORD PTR [esp+12], 0
	mov	DWORD PTR [esp+8], 3
	mov	DWORD PTR [esp+4], ebx
	mov	eax, DWORD PTR _status_window
	mov	eax, DWORD PTR [eax+4]
	mov	DWORD PTR [esp], eax
	call	_gtk_list_store_set
LVL689:
	jmp	L380
LVL690:
L393:
LBE69:
LBE70:
	.loc 1 698 0
	call	___stack_chk_fail
LVL691:
	.cfi_endproc
LFE116:
	.p2align 2,,3
	.def	_populate_saved_status_list.isra.8;	.scl	3;	.type	32;	.endef
_populate_saved_status_list.isra.8:
LFB155:
	.loc 1 397 0
	.cfi_startproc
	push	ebp
LCFI266:
	.cfi_def_cfa_offset 8
	.cfi_offset 5, -8
	push	edi
LCFI267:
	.cfi_def_cfa_offset 12
	.cfi_offset 7, -12
	push	esi
LCFI268:
	.cfi_def_cfa_offset 16
	.cfi_offset 6, -16
	push	ebx
LCFI269:
	.cfi_def_cfa_offset 20
	.cfi_offset 3, -20
	sub	esp, 108
LCFI270:
	.cfi_def_cfa_offset 128
	mov	ebp, eax
	.loc 1 397 0
	mov	eax, DWORD PTR ___stack_chk_guard
	mov	DWORD PTR [esp+92], eax
	xor	eax, eax
LVL692:
	.loc 1 401 0
	mov	eax, DWORD PTR [ebp+0]
	mov	DWORD PTR [esp], eax
	call	_gtk_list_store_clear
LVL693:
	.loc 1 403 0
	call	_purple_savedstatuses_get_all
LVL694:
	mov	ebx, eax
LVL695:
	test	eax, eax
	jne	L401
	jmp	L394
LVL696:
	.p2align 2,,3
L397:
	.loc 1 404 0
	mov	ebx, DWORD PTR [ebx+4]
LVL697:
	.loc 1 403 0
	test	ebx, ebx
	je	L394
LVL698:
L401:
	.loc 1 406 0
	mov	esi, DWORD PTR [ebx]
	mov	edi, DWORD PTR [ebp+0]
LVL699:
LBB75:
LBB76:
	.loc 1 378 0
	mov	DWORD PTR [esp], esi
	call	_purple_savedstatus_is_transient
LVL700:
	test	eax, eax
	jne	L397
	.loc 1 381 0
	mov	DWORD PTR [esp], esi
	call	_purple_savedstatus_get_title
LVL701:
	.loc 1 382 0
	mov	DWORD PTR [esp], esi
	mov	DWORD PTR [esp+52], eax
	call	_purple_savedstatus_get_type
LVL702:
	mov	DWORD PTR [esp], eax
	call	_purple_primitive_get_name_from_type
LVL703:
	.loc 1 383 0
	mov	DWORD PTR [esp], esi
	mov	DWORD PTR [esp+56], eax
	call	_purple_savedstatus_get_message
LVL704:
	mov	DWORD PTR [esp], eax
	call	_purple_markup_strip_html
LVL705:
	mov	DWORD PTR [esp+60], eax
LVL706:
	.loc 1 384 0
	mov	DWORD PTR [esp], esi
	call	_purple_savedstatus_get_type
LVL707:
LBB77:
LBB78:
	.loc 1 366 0
	mov	DWORD PTR [esp], eax
	call	_pidgin_stock_id_from_status_primitive
LVL708:
	mov	esi, eax
LVL709:
LBE78:
LBE77:
	.loc 1 386 0
	lea	eax, [esp+76]
	mov	DWORD PTR [esp+4], eax
	mov	DWORD PTR [esp], edi
	call	_gtk_list_store_append
LVL710:
	.loc 1 387 0
	mov	DWORD PTR [esp+40], -1
	mov	eax, DWORD PTR [esp+60]
	mov	DWORD PTR [esp+36], eax
	mov	DWORD PTR [esp+32], 2
	mov	ecx, DWORD PTR [esp+56]
	mov	DWORD PTR [esp+28], ecx
	mov	DWORD PTR [esp+24], 1
	mov	edx, DWORD PTR [esp+52]
	mov	DWORD PTR [esp+20], edx
	mov	DWORD PTR [esp+16], 0
	mov	DWORD PTR [esp+12], esi
	mov	DWORD PTR [esp+8], 4
	lea	eax, [esp+76]
	mov	DWORD PTR [esp+4], eax
	mov	DWORD PTR [esp], edi
	call	_gtk_list_store_set
LVL711:
	.loc 1 393 0
	mov	eax, DWORD PTR [esp+60]
	mov	DWORD PTR [esp], eax
	call	_g_free
LVL712:
LBE76:
LBE75:
	.loc 1 404 0
	mov	ebx, DWORD PTR [ebx+4]
LVL713:
	.loc 1 403 0
	test	ebx, ebx
	jne	L401
LVL714:
	.p2align 2,,3
L394:
	.loc 1 408 0
	mov	eax, DWORD PTR [esp+92]
	xor	eax, DWORD PTR ___stack_chk_guard
	jne	L404
	add	esp, 108
LCFI271:
	.cfi_remember_state
	.cfi_def_cfa_offset 20
	pop	ebx
LCFI272:
	.cfi_restore 3
	.cfi_def_cfa_offset 16
LVL715:
	pop	esi
LCFI273:
	.cfi_restore 6
	.cfi_def_cfa_offset 12
	pop	edi
LCFI274:
	.cfi_restore 7
	.cfi_def_cfa_offset 8
	pop	ebp
LCFI275:
	.cfi_restore 5
	.cfi_def_cfa_offset 4
	ret
LVL716:
L404:
LCFI276:
	.cfi_restore_state
	call	___stack_chk_fail
LVL717:
	.cfi_endproc
LFE155:
	.p2align 2,,3
	.def	_saved_status_updated_cb;	.scl	3;	.type	32;	.endef
_saved_status_updated_cb:
LFB109:
	.loc 1 434 0
	.cfi_startproc
LVL718:
	sub	esp, 28
LCFI277:
	.cfi_def_cfa_offset 32
	mov	eax, DWORD PTR [esp+36]
	.loc 1 434 0
	mov	edx, DWORD PTR ___stack_chk_guard
	mov	DWORD PTR [esp+12], edx
	xor	edx, edx
	.loc 1 435 0
	mov	edx, DWORD PTR [esp+12]
	xor	edx, DWORD PTR ___stack_chk_guard
	jne	L409
	.loc 1 1856 0
	add	eax, 4
	.loc 1 436 0
	add	esp, 28
LCFI278:
	.cfi_remember_state
	.cfi_def_cfa_offset 4
	.loc 1 435 0
	jmp	_populate_saved_status_list.isra.8
LVL719:
L409:
LCFI279:
	.cfi_restore_state
	call	___stack_chk_fail
LVL720:
	.cfi_endproc
LFE109:
	.section .rdata,"dr"
LC25:
	.ascii "/pidgin/status/dialog/width\0"
LC26:
	.ascii "/pidgin/status/dialog/height\0"
	.text
	.p2align 2,,3
	.def	_configure_cb;	.scl	3;	.type	32;	.endef
_configure_cb:
LFB111:
	.loc 1 526 0
	.cfi_startproc
LVL721:
	push	esi
LCFI280:
	.cfi_def_cfa_offset 8
	.cfi_offset 6, -8
	push	ebx
LCFI281:
	.cfi_def_cfa_offset 12
	.cfi_offset 3, -12
	sub	esp, 36
LCFI282:
	.cfi_def_cfa_offset 48
	mov	ebx, DWORD PTR [esp+48]
	mov	esi, DWORD PTR [esp+52]
	.loc 1 526 0
	mov	eax, DWORD PTR ___stack_chk_guard
	mov	DWORD PTR [esp+28], eax
	xor	eax, eax
	.loc 1 527 0
	call	_gtk_object_get_type
LVL722:
	mov	DWORD PTR [esp+4], eax
	mov	DWORD PTR [esp], ebx
	call	_g_type_check_instance_cast
LVL723:
	test	BYTE PTR [eax+13], 1
	je	L411
LVL724:
LBB81:
LBB82:
	.loc 1 529 0
	mov	eax, DWORD PTR [esi+20]
	mov	DWORD PTR [esp+4], eax
	mov	DWORD PTR [esp], OFFSET FLAT:LC25
	call	_purple_prefs_set_int
LVL725:
	.loc 1 530 0
	mov	eax, DWORD PTR [esi+24]
	mov	DWORD PTR [esp+4], eax
	mov	DWORD PTR [esp], OFFSET FLAT:LC26
	call	_purple_prefs_set_int
LVL726:
L411:
LBE82:
LBE81:
	.loc 1 534 0
	xor	eax, eax
	mov	edx, DWORD PTR [esp+28]
	xor	edx, DWORD PTR ___stack_chk_guard
	jne	L417
	add	esp, 36
LCFI283:
	.cfi_remember_state
	.cfi_def_cfa_offset 12
	pop	ebx
LCFI284:
	.cfi_restore 3
	.cfi_def_cfa_offset 8
	pop	esi
LCFI285:
	.cfi_restore 6
	.cfi_def_cfa_offset 4
	ret
L417:
LCFI286:
	.cfi_restore_state
	call	___stack_chk_fail
LVL727:
	.cfi_endproc
LFE111:
	.section .rdata,"dr"
LC27:
	.ascii "Saved Statuses\0"
LC28:
	.ascii "statuses\0"
LC29:
	.ascii "delete_event\0"
LC30:
	.ascii "configure_event\0"
LC31:
	.ascii "row-activated\0"
LC32:
	.ascii "Title\0"
LC33:
	.ascii "ellipsize\0"
LC34:
	.ascii "Type\0"
LC35:
	.ascii "Message\0"
LC36:
	.ascii "_Use\0"
LC37:
	.ascii "gtk-execute\0"
LC38:
	.ascii "clicked\0"
LC39:
	.ascii "pidgin-add\0"
LC40:
	.ascii "pidgin-modify\0"
LC41:
	.ascii "gtk-delete\0"
LC42:
	.ascii "gtk-close\0"
LC43:
	.ascii "savedstatus-changed\0"
LC44:
	.ascii "savedstatus-added\0"
LC45:
	.ascii "savedstatus-deleted\0"
LC46:
	.ascii "savedstatus-modified\0"
	.text
	.p2align 2,,3
	.globl	_pidgin_status_window_show
	.def	_pidgin_status_window_show;	.scl	2;	.type	32;	.endef
_pidgin_status_window_show:
LFB113:
	.loc 1 545 0
	.cfi_startproc
	push	ebp
LCFI287:
	.cfi_def_cfa_offset 8
	.cfi_offset 5, -8
	push	edi
LCFI288:
	.cfi_def_cfa_offset 12
	.cfi_offset 7, -12
	push	esi
LCFI289:
	.cfi_def_cfa_offset 16
	.cfi_offset 6, -16
	push	ebx
LCFI290:
	.cfi_def_cfa_offset 20
	.cfi_offset 3, -20
	sub	esp, 76
LCFI291:
	.cfi_def_cfa_offset 96
	.loc 1 545 0
	mov	eax, DWORD PTR ___stack_chk_guard
	mov	DWORD PTR [esp+60], eax
	xor	eax, eax
	.loc 1 554 0
	mov	ebx, DWORD PTR _status_window
	test	ebx, ebx
	je	L419
	.loc 1 556 0
	call	_gtk_window_get_type
LVL728:
	mov	DWORD PTR [esp+4], eax
	mov	eax, DWORD PTR [ebx]
	mov	DWORD PTR [esp], eax
	call	_g_type_check_instance_cast
LVL729:
	mov	DWORD PTR [esp], eax
	call	_gtk_window_present
LVL730:
L418:
	.loc 1 627 0
	mov	eax, DWORD PTR [esp+60]
	xor	eax, DWORD PTR ___stack_chk_guard
	jne	L423
	add	esp, 76
LCFI292:
	.cfi_remember_state
	.cfi_def_cfa_offset 20
	pop	ebx
LCFI293:
	.cfi_restore 3
	.cfi_def_cfa_offset 16
	pop	esi
LCFI294:
	.cfi_restore 6
	.cfi_def_cfa_offset 12
	pop	edi
LCFI295:
	.cfi_restore 7
	.cfi_def_cfa_offset 8
	pop	ebp
LCFI296:
	.cfi_restore 5
	.cfi_def_cfa_offset 4
	ret
	.p2align 2,,3
L419:
LCFI297:
	.cfi_restore_state
	.loc 1 560 0
	mov	DWORD PTR [esp], 24
	call	_g_malloc0
LVL731:
	mov	ebx, eax
LVL732:
	mov	DWORD PTR _status_window, eax
	.loc 1 562 0
	mov	DWORD PTR [esp], OFFSET FLAT:LC25
	call	_purple_prefs_get_int
LVL733:
	mov	edi, eax
LVL734:
	.loc 1 563 0
	mov	DWORD PTR [esp], OFFSET FLAT:LC26
	call	_purple_prefs_get_int
LVL735:
	mov	ebp, eax
LVL736:
	.loc 1 565 0
	mov	DWORD PTR [esp+4], OFFSET FLAT:LC27
	mov	DWORD PTR [esp], OFFSET FLAT:LC6
	call	_libintl_dgettext
LVL737:
	mov	DWORD PTR [esp+12], 1
	mov	DWORD PTR [esp+8], OFFSET FLAT:LC28
	mov	DWORD PTR [esp+4], 12
	mov	DWORD PTR [esp], eax
	call	_pidgin_create_dialog
LVL738:
	mov	esi, eax
LVL739:
	mov	DWORD PTR [ebx], eax
	.loc 1 566 0
	call	_gtk_window_get_type
LVL740:
	mov	DWORD PTR [esp+4], eax
	mov	DWORD PTR [esp], esi
	call	_g_type_check_instance_cast
LVL741:
	mov	DWORD PTR [esp+8], ebp
	mov	DWORD PTR [esp+4], edi
	mov	DWORD PTR [esp], eax
	call	_gtk_window_set_default_size
LVL742:
	.loc 1 568 0
	mov	DWORD PTR [esp+4], 80
	mov	DWORD PTR [esp], esi
	call	_g_type_check_instance_cast
LVL743:
	mov	DWORD PTR [esp+20], 0
	mov	DWORD PTR [esp+16], 0
	mov	DWORD PTR [esp+12], ebx
	mov	DWORD PTR [esp+8], OFFSET FLAT:_status_window_destroy_cb
	mov	DWORD PTR [esp+4], OFFSET FLAT:LC29
	mov	DWORD PTR [esp], eax
	call	_g_signal_connect_data
LVL744:
	.loc 1 570 0
	mov	DWORD PTR [esp+4], 80
	mov	DWORD PTR [esp], esi
	call	_g_type_check_instance_cast
LVL745:
	mov	DWORD PTR [esp+20], 0
	mov	DWORD PTR [esp+16], 0
	mov	DWORD PTR [esp+12], ebx
	mov	DWORD PTR [esp+8], OFFSET FLAT:_configure_cb
	mov	DWORD PTR [esp+4], OFFSET FLAT:LC30
	mov	DWORD PTR [esp], eax
	call	_g_signal_connect_data
LVL746:
	.loc 1 574 0
	call	_gtk_dialog_get_type
LVL747:
	mov	DWORD PTR [esp+44], eax
	mov	DWORD PTR [esp+4], eax
	mov	DWORD PTR [esp], esi
	call	_g_type_check_instance_cast
LVL748:
	mov	DWORD PTR [esp+8], 12
	mov	DWORD PTR [esp+4], 0
	mov	DWORD PTR [esp], eax
	call	_pidgin_dialog_get_vbox_with_properties
LVL749:
LBB85:
LBB86:
	.loc 1 447 0
	mov	DWORD PTR [esp+20], 64
	mov	DWORD PTR [esp+16], 68
	mov	DWORD PTR [esp+12], 64
	mov	DWORD PTR [esp+8], 64
	mov	DWORD PTR [esp+4], 64
	mov	DWORD PTR [esp], 5
	mov	DWORD PTR [esp+32], eax
	call	_gtk_list_store_new
LVL750:
	mov	edi, eax
LVL751:
	mov	DWORD PTR [ebx+4], eax
	.loc 1 455 0
	call	_gtk_tree_model_get_type
LVL752:
	mov	DWORD PTR [esp+4], eax
	mov	DWORD PTR [esp], edi
	call	_g_type_check_instance_cast
LVL753:
	mov	DWORD PTR [esp], eax
	call	_gtk_tree_view_new_with_model
LVL754:
	mov	edi, eax
LVL755:
	.loc 1 456 0
	mov	DWORD PTR [ebx+8], eax
	.loc 1 457 0
	call	_gtk_tree_view_get_type
LVL756:
	mov	DWORD PTR [esp+40], eax
	mov	DWORD PTR [esp+4], eax
	mov	DWORD PTR [esp], edi
	call	_g_type_check_instance_cast
LVL757:
	mov	DWORD PTR [esp+4], 1
	mov	DWORD PTR [esp], eax
	call	_gtk_tree_view_set_rules_hint
LVL758:
	.loc 1 458 0
	mov	DWORD PTR [esp+4], 80
	mov	DWORD PTR [esp], edi
	call	_g_type_check_instance_cast
LVL759:
	mov	DWORD PTR [esp+20], 0
	mov	DWORD PTR [esp+16], 0
	mov	DWORD PTR [esp+12], ebx
	mov	DWORD PTR [esp+8], OFFSET FLAT:_savedstatus_activated_cb
	mov	DWORD PTR [esp+4], OFFSET FLAT:LC31
	mov	DWORD PTR [esp], eax
	call	_g_signal_connect_data
LVL760:
	.loc 1 461 0
	mov	eax, DWORD PTR [esp+40]
	mov	DWORD PTR [esp+4], eax
	mov	DWORD PTR [esp], edi
	call	_g_type_check_instance_cast
LVL761:
	mov	DWORD PTR [esp], eax
	call	_gtk_tree_view_get_selection
LVL762:
	mov	ebp, eax
LVL763:
	.loc 1 462 0
	mov	DWORD PTR [esp+4], 3
	mov	DWORD PTR [esp], eax
	call	_gtk_tree_selection_set_mode
LVL764:
	.loc 1 463 0
	mov	DWORD PTR [esp+4], 80
	mov	DWORD PTR [esp], ebp
	call	_g_type_check_instance_cast
LVL765:
	mov	DWORD PTR [esp+20], 0
	mov	DWORD PTR [esp+16], 0
	mov	DWORD PTR [esp+12], ebx
	mov	DWORD PTR [esp+8], OFFSET FLAT:_status_selected_cb
	mov	DWORD PTR [esp+4], OFFSET FLAT:LC14
	mov	DWORD PTR [esp], eax
	call	_g_signal_connect_data
LVL766:
	.loc 1 467 0
	call	_gtk_tree_view_column_new
LVL767:
	mov	ebp, eax
LVL768:
	.loc 1 468 0
	mov	DWORD PTR [esp+4], OFFSET FLAT:LC32
	mov	DWORD PTR [esp], OFFSET FLAT:LC6
	call	_libintl_dgettext
LVL769:
	mov	DWORD PTR [esp+4], eax
	mov	DWORD PTR [esp], ebp
	call	_gtk_tree_view_column_set_title
LVL770:
	.loc 1 469 0
	mov	DWORD PTR [esp+4], 1
	mov	DWORD PTR [esp], ebp
	call	_gtk_tree_view_column_set_resizable
LVL771:
	.loc 1 470 0
	mov	DWORD PTR [esp+4], 100
	mov	DWORD PTR [esp], ebp
	call	_gtk_tree_view_column_set_min_width
LVL772:
	.loc 1 471 0
	mov	DWORD PTR [esp+4], 0
	mov	DWORD PTR [esp], ebp
	call	_gtk_tree_view_column_set_sort_column_id
LVL773:
	.loc 1 473 0
	mov	eax, DWORD PTR [esp+40]
	mov	DWORD PTR [esp+4], eax
	mov	DWORD PTR [esp], edi
	call	_g_type_check_instance_cast
LVL774:
	mov	DWORD PTR [esp+4], ebp
	mov	DWORD PTR [esp], eax
	call	_gtk_tree_view_append_column
LVL775:
	.loc 1 474 0
	call	_gtk_cell_renderer_text_new
LVL776:
	.loc 1 475 0
	mov	DWORD PTR [esp+8], 1
	mov	DWORD PTR [esp+4], eax
	mov	DWORD PTR [esp], ebp
	mov	DWORD PTR [esp+36], eax
	call	_gtk_tree_view_column_pack_start
LVL777:
	.loc 1 476 0
	mov	DWORD PTR [esp+12], 0
	mov	DWORD PTR [esp+8], OFFSET FLAT:LC4
	mov	eax, DWORD PTR [esp+36]
	mov	DWORD PTR [esp+4], eax
	mov	DWORD PTR [esp], ebp
	call	_gtk_tree_view_column_add_attribute
LVL778:
	.loc 1 478 0
	mov	DWORD PTR [esp+12], 0
	mov	DWORD PTR [esp+8], 3
	mov	DWORD PTR [esp+4], OFFSET FLAT:LC33
	mov	eax, DWORD PTR [esp+36]
	mov	DWORD PTR [esp], eax
	call	_g_object_set
LVL779:
	.loc 1 480 0
	call	_gtk_tree_view_column_new
LVL780:
	mov	ebp, eax
LVL781:
	.loc 1 481 0
	mov	DWORD PTR [esp+4], OFFSET FLAT:LC34
	mov	DWORD PTR [esp], OFFSET FLAT:LC6
	call	_libintl_dgettext
LVL782:
	mov	DWORD PTR [esp+4], eax
	mov	DWORD PTR [esp], ebp
	call	_gtk_tree_view_column_set_title
LVL783:
	.loc 1 482 0
	mov	DWORD PTR [esp+4], 1
	mov	DWORD PTR [esp], ebp
	call	_gtk_tree_view_column_set_resizable
LVL784:
	.loc 1 483 0
	mov	DWORD PTR [esp+4], 1
	mov	DWORD PTR [esp], ebp
	call	_gtk_tree_view_column_set_sort_column_id
LVL785:
	.loc 1 485 0
	mov	eax, DWORD PTR [esp+40]
	mov	DWORD PTR [esp+4], eax
	mov	DWORD PTR [esp], edi
	call	_g_type_check_instance_cast
LVL786:
	mov	DWORD PTR [esp+4], ebp
	mov	DWORD PTR [esp], eax
	call	_gtk_tree_view_append_column
LVL787:
	.loc 1 486 0
	call	_gtk_cell_renderer_pixbuf_new
LVL788:
	.loc 1 487 0
	mov	DWORD PTR [esp+8], 1
	mov	DWORD PTR [esp+4], eax
	mov	DWORD PTR [esp], ebp
	mov	DWORD PTR [esp+36], eax
	call	_gtk_tree_view_column_pack_start
LVL789:
	.loc 1 488 0
	mov	DWORD PTR [esp+12], 4
	mov	DWORD PTR [esp+8], OFFSET FLAT:LC3
	mov	eax, DWORD PTR [esp+36]
	mov	DWORD PTR [esp+4], eax
	mov	DWORD PTR [esp], ebp
	call	_gtk_tree_view_column_add_attribute
LVL790:
	.loc 1 490 0
	call	_gtk_cell_renderer_text_new
LVL791:
	.loc 1 491 0
	mov	DWORD PTR [esp+8], 1
	mov	DWORD PTR [esp+4], eax
	mov	DWORD PTR [esp], ebp
	mov	DWORD PTR [esp+36], eax
	call	_gtk_tree_view_column_pack_start
LVL792:
	.loc 1 492 0
	mov	DWORD PTR [esp+12], 1
	mov	DWORD PTR [esp+8], OFFSET FLAT:LC4
	mov	eax, DWORD PTR [esp+36]
	mov	DWORD PTR [esp+4], eax
	mov	DWORD PTR [esp], ebp
	call	_gtk_tree_view_column_add_attribute
LVL793:
	.loc 1 495 0
	call	_gtk_tree_view_column_new
LVL794:
	mov	ebp, eax
LVL795:
	.loc 1 496 0
	mov	DWORD PTR [esp+4], OFFSET FLAT:LC35
	mov	DWORD PTR [esp], OFFSET FLAT:LC6
	call	_libintl_dgettext
LVL796:
	mov	DWORD PTR [esp+4], eax
	mov	DWORD PTR [esp], ebp
	call	_gtk_tree_view_column_set_title
LVL797:
	.loc 1 497 0
	mov	DWORD PTR [esp+4], 1
	mov	DWORD PTR [esp], ebp
	call	_gtk_tree_view_column_set_resizable
LVL798:
	.loc 1 498 0
	mov	DWORD PTR [esp+4], 2
	mov	DWORD PTR [esp], ebp
	call	_gtk_tree_view_column_set_sort_column_id
LVL799:
	.loc 1 500 0
	mov	eax, DWORD PTR [esp+40]
	mov	DWORD PTR [esp+4], eax
	mov	DWORD PTR [esp], edi
	call	_g_type_check_instance_cast
LVL800:
	mov	DWORD PTR [esp+4], ebp
	mov	DWORD PTR [esp], eax
	call	_gtk_tree_view_append_column
LVL801:
	.loc 1 501 0
	call	_gtk_cell_renderer_text_new
LVL802:
	.loc 1 502 0
	mov	DWORD PTR [esp+8], 1
	mov	DWORD PTR [esp+4], eax
	mov	DWORD PTR [esp], ebp
	mov	DWORD PTR [esp+36], eax
	call	_gtk_tree_view_column_pack_start
LVL803:
	.loc 1 503 0
	mov	DWORD PTR [esp+12], 2
	mov	DWORD PTR [esp+8], OFFSET FLAT:LC4
	mov	eax, DWORD PTR [esp+36]
	mov	DWORD PTR [esp+4], eax
	mov	DWORD PTR [esp], ebp
	call	_gtk_tree_view_column_add_attribute
LVL804:
	.loc 1 505 0
	mov	DWORD PTR [esp+12], 0
	mov	DWORD PTR [esp+8], 3
	mov	DWORD PTR [esp+4], OFFSET FLAT:LC33
	mov	eax, DWORD PTR [esp+36]
	mov	DWORD PTR [esp], eax
	call	_g_object_set
LVL805:
	.loc 1 508 0
	mov	eax, DWORD PTR [esp+40]
	mov	DWORD PTR [esp+4], eax
	mov	DWORD PTR [esp], edi
	call	_g_type_check_instance_cast
LVL806:
	mov	DWORD PTR [esp+4], 0
	mov	DWORD PTR [esp], eax
	call	_gtk_tree_view_set_search_column
LVL807:
	.loc 1 509 0
	mov	eax, DWORD PTR [esp+40]
	mov	DWORD PTR [esp+4], eax
	mov	DWORD PTR [esp], edi
	call	_g_type_check_instance_cast
LVL808:
	mov	DWORD PTR [esp+12], 0
	mov	DWORD PTR [esp+8], 0
	mov	DWORD PTR [esp+4], OFFSET FLAT:_search_func
	mov	DWORD PTR [esp], eax
	call	_gtk_tree_view_set_search_equal_func
LVL809:
	.loc 1 512 0
	call	_gtk_tree_sortable_get_type
LVL810:
	mov	DWORD PTR [esp+4], eax
	mov	eax, DWORD PTR [ebx+4]
	mov	DWORD PTR [esp], eax
	call	_g_type_check_instance_cast
LVL811:
	mov	DWORD PTR [esp+8], 0
	mov	DWORD PTR [esp+4], 0
	mov	DWORD PTR [esp], eax
	call	_gtk_tree_sortable_set_sort_column_id
LVL812:
LBE86:
	.loc 1 1856 0
	lea	eax, [ebx+4]
LBB87:
	.loc 1 517 0
	call	_populate_saved_status_list.isra.8
LVL813:
	.loc 1 519 0
	mov	DWORD PTR [esp], edi
	call	_gtk_widget_show_all
LVL814:
	.loc 1 521 0
	mov	DWORD PTR [esp+20], -1
	mov	DWORD PTR [esp+16], -1
	mov	DWORD PTR [esp+12], 1
	mov	DWORD PTR [esp+8], 0
	mov	DWORD PTR [esp+4], 1
	mov	DWORD PTR [esp], edi
	call	_pidgin_make_scrollable
LVL815:
	mov	edi, eax
LVL816:
LBE87:
LBE85:
	.loc 1 578 0
	call	_gtk_box_get_type
LVL817:
	mov	ebp, eax
LVL818:
	mov	DWORD PTR [esp+4], eax
	mov	ecx, DWORD PTR [esp+32]
	mov	DWORD PTR [esp], ecx
	call	_g_type_check_instance_cast
LVL819:
	mov	DWORD PTR [esp+16], 0
	mov	DWORD PTR [esp+12], 1
	mov	DWORD PTR [esp+8], 1
	mov	DWORD PTR [esp+4], edi
	mov	DWORD PTR [esp], eax
	call	_gtk_box_pack_start
LVL820:
	.loc 1 581 0
	mov	eax, DWORD PTR [esp+44]
	mov	DWORD PTR [esp+4], eax
	mov	DWORD PTR [esp], esi
	call	_g_type_check_instance_cast
LVL821:
	mov	DWORD PTR [esp], eax
	call	_pidgin_dialog_get_action_area
LVL822:
	.loc 1 584 0
	mov	DWORD PTR [esp+4], OFFSET FLAT:LC36
	mov	DWORD PTR [esp], OFFSET FLAT:LC6
	mov	DWORD PTR [esp+36], eax
	call	_libintl_dgettext
LVL823:
	mov	DWORD PTR [esp+8], 0
	mov	DWORD PTR [esp+4], OFFSET FLAT:LC37
	mov	DWORD PTR [esp], eax
	call	_pidgin_pixbuf_button_from_stock
LVL824:
	mov	edi, eax
LVL825:
	.loc 1 586 0
	mov	DWORD PTR [ebx+12], eax
	.loc 1 587 0
	mov	DWORD PTR [esp+4], ebp
	mov	edx, DWORD PTR [esp+36]
	mov	DWORD PTR [esp], edx
	call	_g_type_check_instance_cast
LVL826:
	mov	DWORD PTR [esp+16], 0
	mov	DWORD PTR [esp+12], 0
	mov	DWORD PTR [esp+8], 0
	mov	DWORD PTR [esp+4], edi
	mov	DWORD PTR [esp], eax
	call	_gtk_box_pack_start
LVL827:
	.loc 1 588 0
	mov	DWORD PTR [esp+4], 0
	mov	DWORD PTR [esp], edi
	call	_gtk_widget_set_sensitive
LVL828:
	.loc 1 590 0
	mov	DWORD PTR [esp+4], 80
	mov	DWORD PTR [esp], edi
	call	_g_type_check_instance_cast
LVL829:
	mov	DWORD PTR [esp+20], 0
	mov	DWORD PTR [esp+16], 0
	mov	DWORD PTR [esp+12], ebx
	mov	DWORD PTR [esp+8], OFFSET FLAT:_status_window_use_cb
	mov	DWORD PTR [esp+4], OFFSET FLAT:LC38
	mov	DWORD PTR [esp], eax
	call	_g_signal_connect_data
LVL830:
	.loc 1 594 0
	mov	eax, DWORD PTR [esp+44]
	mov	DWORD PTR [esp+4], eax
	mov	DWORD PTR [esp], esi
	call	_g_type_check_instance_cast
LVL831:
	mov	DWORD PTR [esp+12], ebx
	mov	DWORD PTR [esp+8], OFFSET FLAT:_status_window_add_cb
	mov	DWORD PTR [esp+4], OFFSET FLAT:LC39
	mov	DWORD PTR [esp], eax
	call	_pidgin_dialog_add_button
LVL832:
	.loc 1 598 0
	mov	eax, DWORD PTR [esp+44]
	mov	DWORD PTR [esp+4], eax
	mov	DWORD PTR [esp], esi
	call	_g_type_check_instance_cast
LVL833:
	mov	DWORD PTR [esp+12], ebx
	mov	DWORD PTR [esp+8], OFFSET FLAT:_status_window_modify_cb
	mov	DWORD PTR [esp+4], OFFSET FLAT:LC40
	mov	DWORD PTR [esp], eax
	call	_pidgin_dialog_add_button
LVL834:
	.loc 1 600 0
	mov	DWORD PTR [ebx+16], eax
	.loc 1 601 0
	mov	DWORD PTR [esp+4], 0
	mov	DWORD PTR [esp], eax
	call	_gtk_widget_set_sensitive
LVL835:
	.loc 1 604 0
	mov	eax, DWORD PTR [esp+44]
	mov	DWORD PTR [esp+4], eax
	mov	DWORD PTR [esp], esi
	call	_g_type_check_instance_cast
LVL836:
	mov	DWORD PTR [esp+12], ebx
	mov	DWORD PTR [esp+8], OFFSET FLAT:_status_window_delete_cb
	mov	DWORD PTR [esp+4], OFFSET FLAT:LC41
	mov	DWORD PTR [esp], eax
	call	_pidgin_dialog_add_button
LVL837:
	.loc 1 606 0
	mov	DWORD PTR [ebx+20], eax
	.loc 1 607 0
	mov	DWORD PTR [esp+4], 0
	mov	DWORD PTR [esp], eax
	call	_gtk_widget_set_sensitive
LVL838:
	.loc 1 610 0
	mov	eax, DWORD PTR [esp+44]
	mov	DWORD PTR [esp+4], eax
	mov	DWORD PTR [esp], esi
	call	_g_type_check_instance_cast
LVL839:
	mov	DWORD PTR [esp+12], ebx
	mov	DWORD PTR [esp+8], OFFSET FLAT:_status_window_close_cb
	mov	DWORD PTR [esp+4], OFFSET FLAT:LC42
	mov	DWORD PTR [esp], eax
	call	_pidgin_dialog_add_button
LVL840:
	.loc 1 613 0
	mov	edi, DWORD PTR _status_window
	call	_purple_savedstatuses_get_handle
LVL841:
	mov	DWORD PTR [esp+16], ebx
	mov	DWORD PTR [esp+12], OFFSET FLAT:_current_status_changed
	mov	DWORD PTR [esp+8], edi
	mov	DWORD PTR [esp+4], OFFSET FLAT:LC43
	mov	DWORD PTR [esp], eax
	call	_purple_signal_connect
LVL842:
	.loc 1 616 0
	mov	edi, DWORD PTR _status_window
	call	_purple_savedstatuses_get_handle
LVL843:
	mov	DWORD PTR [esp+16], ebx
	mov	DWORD PTR [esp+12], OFFSET FLAT:_saved_status_updated_cb
	mov	DWORD PTR [esp+8], edi
	mov	DWORD PTR [esp+4], OFFSET FLAT:LC44
	mov	DWORD PTR [esp], eax
	call	_purple_signal_connect
LVL844:
	.loc 1 619 0
	mov	edi, DWORD PTR _status_window
	call	_purple_savedstatuses_get_handle
LVL845:
	mov	DWORD PTR [esp+16], ebx
	mov	DWORD PTR [esp+12], OFFSET FLAT:_saved_status_updated_cb
	mov	DWORD PTR [esp+8], edi
	mov	DWORD PTR [esp+4], OFFSET FLAT:LC45
	mov	DWORD PTR [esp], eax
	call	_purple_signal_connect
LVL846:
	.loc 1 622 0
	mov	edi, DWORD PTR _status_window
	call	_purple_savedstatuses_get_handle
LVL847:
	mov	DWORD PTR [esp+16], ebx
	mov	DWORD PTR [esp+12], OFFSET FLAT:_saved_status_updated_cb
	mov	DWORD PTR [esp+8], edi
	mov	DWORD PTR [esp+4], OFFSET FLAT:LC46
	mov	DWORD PTR [esp], eax
	call	_purple_signal_connect
LVL848:
	.loc 1 626 0
	mov	DWORD PTR [esp], esi
	call	_gtk_widget_show_all
LVL849:
	jmp	L418
LVL850:
L423:
	.loc 1 627 0
	call	___stack_chk_fail
LVL851:
	.cfi_endproc
LFE113:
	.p2align 2,,3
	.globl	_pidgin_status_window_hide
	.def	_pidgin_status_window_hide;	.scl	2;	.type	32;	.endef
_pidgin_status_window_hide:
LFB114:
	.loc 1 631 0
	.cfi_startproc
	sub	esp, 44
LCFI298:
	.cfi_def_cfa_offset 48
	.loc 1 631 0
	mov	eax, DWORD PTR ___stack_chk_guard
	mov	DWORD PTR [esp+28], eax
	xor	eax, eax
	.loc 1 632 0
	mov	eax, DWORD PTR _status_window
	test	eax, eax
	je	L424
	.loc 1 635 0
	mov	edx, DWORD PTR [eax]
	test	edx, edx
	je	L426
	.loc 1 636 0
	mov	DWORD PTR [esp], edx
	call	_gtk_widget_destroy
LVL852:
	mov	eax, DWORD PTR _status_window
L426:
	.loc 1 638 0
	mov	DWORD PTR [esp], eax
	call	_purple_request_close_with_handle
LVL853:
	.loc 1 639 0
	mov	eax, DWORD PTR _status_window
	mov	DWORD PTR [esp], eax
	call	_purple_notify_close_with_handle
LVL854:
	.loc 1 640 0
	mov	eax, DWORD PTR _status_window
	mov	DWORD PTR [esp], eax
	call	_purple_signals_disconnect_by_handle
LVL855:
	.loc 1 641 0
	mov	DWORD PTR [esp+4], 80
	mov	eax, DWORD PTR _status_window
	mov	eax, DWORD PTR [eax+4]
	mov	DWORD PTR [esp], eax
	call	_g_type_check_instance_cast
LVL856:
	mov	DWORD PTR [esp], eax
	call	_g_object_unref
LVL857:
	.loc 1 642 0
	mov	eax, DWORD PTR _status_window
	mov	DWORD PTR [esp], eax
	call	_g_free
LVL858:
	.loc 1 643 0
	mov	DWORD PTR _status_window, 0
L424:
	.loc 1 644 0
	mov	eax, DWORD PTR [esp+28]
	xor	eax, DWORD PTR ___stack_chk_guard
	jne	L435
	add	esp, 44
LCFI299:
	.cfi_remember_state
	.cfi_def_cfa_offset 4
	ret
L435:
LCFI300:
	.cfi_restore_state
	call	___stack_chk_fail
LVL859:
	.cfi_endproc
LFE114:
	.p2align 2,,3
	.def	_status_window_close_cb;	.scl	3;	.type	32;	.endef
_status_window_close_cb:
LFB102:
	.loc 1 324 0
	.cfi_startproc
LVL860:
	sub	esp, 28
LCFI301:
	.cfi_def_cfa_offset 32
	.loc 1 324 0
	mov	eax, DWORD PTR ___stack_chk_guard
	mov	DWORD PTR [esp+12], eax
	xor	eax, eax
	.loc 1 325 0
	mov	eax, DWORD PTR [esp+12]
	xor	eax, DWORD PTR ___stack_chk_guard
	jne	L440
	.loc 1 326 0
	add	esp, 28
LCFI302:
	.cfi_remember_state
	.cfi_def_cfa_offset 4
	.loc 1 325 0
	jmp	_pidgin_status_window_hide
LVL861:
L440:
LCFI303:
	.cfi_restore_state
	call	___stack_chk_fail
LVL862:
	.cfi_endproc
LFE102:
	.p2align 2,,3
	.def	_savedstatus_activated_cb;	.scl	3;	.type	32;	.endef
_savedstatus_activated_cb:
LFB108:
	.loc 1 427 0
	.cfi_startproc
LVL863:
	sub	esp, 44
LCFI304:
	.cfi_def_cfa_offset 48
	.loc 1 427 0
	mov	eax, DWORD PTR ___stack_chk_guard
	mov	DWORD PTR [esp+28], eax
	xor	eax, eax
	.loc 1 428 0
	mov	eax, DWORD PTR [esp+60]
	mov	DWORD PTR [esp+4], eax
	mov	DWORD PTR [esp], 0
	call	_status_window_use_cb
LVL864:
LBB88:
LBB89:
	.loc 1 325 0
	mov	eax, DWORD PTR [esp+28]
	xor	eax, DWORD PTR ___stack_chk_guard
	jne	L445
LBE89:
LBE88:
	.loc 1 430 0
	add	esp, 44
LCFI305:
	.cfi_remember_state
	.cfi_def_cfa_offset 4
LBB91:
LBB90:
	.loc 1 325 0
	jmp	_pidgin_status_window_hide
LVL865:
L445:
LCFI306:
	.cfi_restore_state
	call	___stack_chk_fail
LVL866:
LBE90:
LBE91:
	.cfi_endproc
LFE108:
	.p2align 2,,3
	.def	_status_window_destroy_cb;	.scl	3;	.type	32;	.endef
_status_window_destroy_cb:
LFB94:
	.loc 1 172 0
	.cfi_startproc
LVL867:
	sub	esp, 28
LCFI307:
	.cfi_def_cfa_offset 32
	.loc 1 172 0
	mov	eax, DWORD PTR ___stack_chk_guard
	mov	DWORD PTR [esp+12], eax
	xor	eax, eax
LVL868:
	.loc 1 175 0
	mov	eax, DWORD PTR [esp+40]
	mov	DWORD PTR [eax], 0
	.loc 1 176 0
	call	_pidgin_status_window_hide
LVL869:
	.loc 1 179 0
	xor	eax, eax
	mov	edx, DWORD PTR [esp+12]
	xor	edx, DWORD PTR ___stack_chk_guard
	jne	L449
	add	esp, 28
LCFI308:
	.cfi_remember_state
	.cfi_def_cfa_offset 4
	ret
L449:
LCFI309:
	.cfi_restore_state
	call	___stack_chk_fail
LVL870:
	.cfi_endproc
LFE94:
	.section .rdata,"dr"
LC47:
	.ascii "Status\0"
LC48:
	.ascii "status\0"
LC49:
	.ascii "fill\0"
LC50:
	.ascii "expand\0"
	.align 4
LC51:
	.ascii "Use a _different status for some accounts\0"
LC52:
	.ascii "Different\0"
LC53:
	.ascii "active\0"
LC54:
	.ascii "toggled\0"
LC55:
	.ascii "Username\0"
LC56:
	.ascii "pixbuf\0"
LC57:
	.ascii "Sa_ve & Use\0"
LC58:
	.ascii "saved_status != NULL\0"
	.align 4
LC59:
	.ascii "!purple_savedstatus_is_transient(saved_status)\0"
LC60:
	.ascii "_Title:\0"
	.text
	.p2align 2,,3
	.globl	_pidgin_status_editor_show
	.def	_pidgin_status_editor_show;	.scl	2;	.type	32;	.endef
_pidgin_status_editor_show:
LFB127:
	.loc 1 1072 0
	.cfi_startproc
LVL871:
	push	ebp
LCFI310:
	.cfi_def_cfa_offset 8
	.cfi_offset 5, -8
	push	edi
LCFI311:
	.cfi_def_cfa_offset 12
	.cfi_offset 7, -12
	push	esi
LCFI312:
	.cfi_def_cfa_offset 16
	.cfi_offset 6, -16
	push	ebx
LCFI313:
	.cfi_def_cfa_offset 20
	.cfi_offset 3, -20
	sub	esp, 204
LCFI314:
	.cfi_def_cfa_offset 224
	mov	eax, DWORD PTR [esp+228]
	mov	DWORD PTR [esp+96], eax
	.loc 1 1072 0
	mov	edx, DWORD PTR ___stack_chk_guard
	mov	DWORD PTR [esp+188], edx
	xor	edx, edx
LVL872:
	.loc 1 1090 0
	mov	edx, DWORD PTR [esp+224]
	test	edx, edx
	je	L451
LBB106:
	.loc 1 1092 0
	test	eax, eax
	je	L505
LVL873:
LBE106:
LBB107:
	.loc 1 1093 0
	mov	edx, DWORD PTR [esp+96]
	mov	DWORD PTR [esp], edx
	call	_purple_savedstatus_is_transient
LVL874:
	test	eax, eax
	jne	L506
LVL875:
LBE107:
	.loc 1 1097 0
	mov	eax, DWORD PTR [esp+96]
	mov	DWORD PTR [esp], eax
	call	_purple_savedstatus_get_title
LVL876:
	mov	edx, eax
	lea	eax, [esp+156]
	call	_status_window_find_savedstatus
LVL877:
	test	eax, eax
	jne	L479
	.loc 1 1071 0
	call	_gtk_tree_model_get_type
LVL878:
	mov	DWORD PTR [esp+92], eax
LVL879:
L454:
	.loc 1 1109 0
	mov	DWORD PTR [esp], 36
	call	_g_malloc0
LVL880:
	mov	DWORD PTR [esp+144], eax
	.loc 1 1110 0
	mov	edx, DWORD PTR [esp+96]
	mov	DWORD PTR [esp], edx
	call	_purple_savedstatus_get_title
LVL881:
	mov	edx, eax
	lea	eax, [esp+156]
	call	_status_window_find_savedstatus
LVL882:
	test	eax, eax
	jne	L481
L456:
	.loc 1 1118 0
	mov	ebx, DWORD PTR [esp+144]
	mov	eax, DWORD PTR [esp+96]
	mov	DWORD PTR [esp], eax
	call	_purple_savedstatus_get_title
LVL883:
	mov	DWORD PTR [esp], eax
	call	_g_strdup
LVL884:
	mov	DWORD PTR [ebx+20], eax
	mov	ebx, DWORD PTR [esp+144]
	jmp	L480
LVL885:
	.p2align 2,,3
L451:
	.loc 1 1109 0
	mov	DWORD PTR [esp], 36
	call	_g_malloc0
LVL886:
	mov	ebx, eax
	mov	DWORD PTR [esp+144], eax
LVL887:
	.loc 1 1071 0
	call	_gtk_tree_model_get_type
LVL888:
	mov	DWORD PTR [esp+92], eax
L480:
	.loc 1 1120 0
	mov	DWORD PTR [esp+4], OFFSET FLAT:LC47
	mov	DWORD PTR [esp], OFFSET FLAT:LC6
	call	_libintl_dgettext
LVL889:
	mov	DWORD PTR [esp+12], 1
	mov	DWORD PTR [esp+8], OFFSET FLAT:LC48
	mov	DWORD PTR [esp+4], 12
	mov	DWORD PTR [esp], eax
	call	_pidgin_create_dialog
LVL890:
	mov	DWORD PTR [esp+128], eax
LVL891:
	mov	DWORD PTR [ebx], eax
	.loc 1 1122 0
	mov	ebx, DWORD PTR [esp+144]
	mov	DWORD PTR [esp+4], 80
	mov	DWORD PTR [esp], eax
	call	_g_type_check_instance_cast
LVL892:
	mov	DWORD PTR [esp+20], 0
	mov	DWORD PTR [esp+16], 0
	mov	DWORD PTR [esp+12], ebx
	mov	DWORD PTR [esp+8], OFFSET FLAT:_status_editor_destroy_cb
	mov	DWORD PTR [esp+4], OFFSET FLAT:LC8
	mov	DWORD PTR [esp], eax
	call	_g_signal_connect_data
LVL893:
	.loc 1 1126 0
	call	_gtk_dialog_get_type
LVL894:
	mov	DWORD PTR [esp+132], eax
	mov	DWORD PTR [esp+4], eax
	mov	eax, DWORD PTR [esp+128]
	mov	DWORD PTR [esp], eax
	call	_g_type_check_instance_cast
LVL895:
	mov	DWORD PTR [esp+8], 12
	mov	DWORD PTR [esp+4], 0
	mov	DWORD PTR [esp], eax
	call	_pidgin_dialog_get_vbox_with_properties
LVL896:
	mov	ebp, eax
LVL897:
	.loc 1 1128 0
	mov	DWORD PTR [esp], 1
	call	_gtk_size_group_new
LVL898:
	mov	DWORD PTR [esp+136], eax
LVL899:
	.loc 1 1131 0
	call	_gtk_entry_new
LVL900:
	mov	ebx, eax
LVL901:
	.loc 1 1132 0
	mov	edi, DWORD PTR [esp+144]
	call	_gtk_entry_get_type
LVL902:
	mov	esi, eax
	mov	DWORD PTR [esp+4], eax
	mov	DWORD PTR [esp], ebx
	call	_g_type_check_instance_cast
LVL903:
	mov	DWORD PTR [edi+24], eax
	.loc 1 1133 0
	mov	eax, DWORD PTR [esp+96]
	test	eax, eax
	je	L457
	.loc 1 1134 0
	mov	edx, DWORD PTR [esp+96]
	mov	DWORD PTR [esp], edx
	call	_purple_savedstatus_is_transient
LVL904:
	test	eax, eax
	je	L507
L459:
	.loc 1 1137 0
	mov	esi, DWORD PTR [esp+144]
	mov	DWORD PTR [esp+4], 80
	mov	DWORD PTR [esp], ebx
	call	_g_type_check_instance_cast
LVL905:
	mov	DWORD PTR [esp+20], 0
	mov	DWORD PTR [esp+16], 0
	mov	DWORD PTR [esp+12], esi
	mov	DWORD PTR [esp+8], OFFSET FLAT:_editor_title_changed_cb
	mov	DWORD PTR [esp+4], OFFSET FLAT:LC14
	mov	DWORD PTR [esp], eax
	call	_g_signal_connect_data
LVL906:
	.loc 1 1139 0
	mov	DWORD PTR [esp+4], OFFSET FLAT:LC60
	mov	DWORD PTR [esp], OFFSET FLAT:LC6
	call	_libintl_dgettext
LVL907:
	mov	esi, eax
	call	_gtk_box_get_type
LVL908:
	mov	DWORD PTR [esp+124], eax
	mov	DWORD PTR [esp+4], eax
	mov	DWORD PTR [esp], ebp
	call	_g_type_check_instance_cast
LVL909:
	mov	DWORD PTR [esp+20], 0
	mov	DWORD PTR [esp+16], 1
	mov	DWORD PTR [esp+12], ebx
	mov	edx, DWORD PTR [esp+136]
	mov	DWORD PTR [esp+8], edx
	mov	DWORD PTR [esp+4], esi
	mov	DWORD PTR [esp], eax
	call	_pidgin_add_widget_to_vbox
LVL910:
	.loc 1 1143 0
	mov	eax, DWORD PTR [esp+96]
	mov	DWORD PTR [esp], eax
	call	_purple_savedstatus_get_type
LVL911:
	call	_create_status_type_menu
LVL912:
	mov	ebx, eax
LVL913:
L482:
	.loc 1 1146 0
	mov	esi, DWORD PTR [esp+144]
	call	_gtk_combo_box_get_type
LVL914:
	mov	DWORD PTR [esp+4], eax
	mov	DWORD PTR [esp], ebx
	call	_g_type_check_instance_cast
LVL915:
	mov	DWORD PTR [esi+28], eax
	.loc 1 1147 0
	mov	DWORD PTR [esp+4], OFFSET FLAT:LC9
	mov	DWORD PTR [esp], OFFSET FLAT:LC6
	call	_libintl_dgettext
LVL916:
	mov	esi, eax
	mov	eax, DWORD PTR [esp+124]
	mov	DWORD PTR [esp+4], eax
	mov	DWORD PTR [esp], ebp
	call	_g_type_check_instance_cast
LVL917:
	mov	DWORD PTR [esp+20], 0
	mov	DWORD PTR [esp+16], 1
	mov	DWORD PTR [esp+12], ebx
	mov	edx, DWORD PTR [esp+136]
	mov	DWORD PTR [esp+8], edx
	mov	DWORD PTR [esp+4], esi
	mov	DWORD PTR [esp], eax
	call	_pidgin_add_widget_to_vbox
LVL918:
	.loc 1 1150 0
	mov	DWORD PTR [esp+12], 0
	lea	eax, [esp+152]
	mov	DWORD PTR [esp+8], eax
	lea	eax, [esp+148]
	mov	DWORD PTR [esp+4], eax
	mov	DWORD PTR [esp], 1
	call	_pidgin_create_imhtml
LVL919:
	mov	esi, eax
LVL920:
	.loc 1 1151 0
	mov	ebx, DWORD PTR [esp+144]
LVL921:
	call	_gtk_imhtml_get_type
LVL922:
	mov	DWORD PTR [esp+4], eax
LVL923:
	mov	eax, DWORD PTR [esp+148]
	mov	DWORD PTR [esp], eax
	call	_g_type_check_instance_cast
LVL924:
	mov	DWORD PTR [ebx+32], eax
	.loc 1 1152 0
	mov	DWORD PTR [esp+4], OFFSET FLAT:LC15
	mov	DWORD PTR [esp], OFFSET FLAT:LC6
	call	_libintl_dgettext
LVL925:
	mov	ebx, eax
	mov	eax, DWORD PTR [esp+124]
	mov	DWORD PTR [esp+4], eax
	mov	DWORD PTR [esp], ebp
	call	_g_type_check_instance_cast
LVL926:
	mov	DWORD PTR [esp+20], 0
	mov	DWORD PTR [esp+16], 1
	mov	DWORD PTR [esp+12], esi
	mov	edx, DWORD PTR [esp+136]
	mov	DWORD PTR [esp+8], edx
	mov	DWORD PTR [esp+4], ebx
	mov	DWORD PTR [esp], eax
	call	_pidgin_add_widget_to_vbox
LVL927:
	mov	edi, eax
LVL928:
	.loc 1 1153 0
	call	_gtk_container_get_type
LVL929:
	mov	ebx, eax
	mov	DWORD PTR [esp+4], eax
	mov	DWORD PTR [esp], ebp
	call	_g_type_check_instance_cast
LVL930:
	mov	DWORD PTR [esp+24], 0
	mov	DWORD PTR [esp+20], 1
	mov	DWORD PTR [esp+16], OFFSET FLAT:LC49
	mov	DWORD PTR [esp+12], 1
	mov	DWORD PTR [esp+8], OFFSET FLAT:LC50
	mov	DWORD PTR [esp+4], edi
	mov	DWORD PTR [esp], eax
	call	_gtk_container_child_set
LVL931:
	.loc 1 1154 0
	mov	eax, DWORD PTR [esp+144]
	mov	eax, DWORD PTR [eax+32]
	mov	DWORD PTR [esp+4], eax
	mov	DWORD PTR [esp], 0
	call	_g_list_prepend
LVL932:
	mov	esi, eax
LVL933:
	.loc 1 1155 0
	mov	DWORD PTR [esp+4], ebx
	mov	DWORD PTR [esp], edi
	call	_g_type_check_instance_cast
LVL934:
	mov	DWORD PTR [esp+4], esi
	mov	DWORD PTR [esp], eax
	call	_gtk_container_set_focus_chain
LVL935:
	.loc 1 1156 0
	mov	DWORD PTR [esp], esi
	call	_g_list_free
LVL936:
	.loc 1 1158 0
	mov	eax, DWORD PTR [esp+144]
	mov	eax, DWORD PTR [eax+32]
	mov	DWORD PTR [esp], eax
	call	_gtk_imhtml_set_return_inserts_newline
LVL937:
	.loc 1 1160 0
	mov	edi, DWORD PTR [esp+96]
LVL938:
	test	edi, edi
	je	L461
	.loc 1 1160 0 is_stmt 0 discriminator 1
	mov	eax, DWORD PTR [esp+96]
	mov	DWORD PTR [esp], eax
	call	_purple_savedstatus_get_message
LVL939:
	test	eax, eax
	je	L461
	.loc 1 1161 0 is_stmt 1
	mov	edx, DWORD PTR [esp+96]
	mov	DWORD PTR [esp], edx
	call	_purple_savedstatus_get_message
LVL940:
	mov	esi, eax
LVL941:
	call	_gtk_imhtml_get_type
LVL942:
	mov	DWORD PTR [esp+4], eax
	mov	eax, DWORD PTR [esp+148]
	mov	DWORD PTR [esp], eax
	call	_g_type_check_instance_cast
LVL943:
	mov	DWORD PTR [esp+12], 0
	mov	DWORD PTR [esp+8], 0
	mov	DWORD PTR [esp+4], esi
	mov	DWORD PTR [esp], eax
	call	_gtk_imhtml_append_text_with_images
LVL944:
L461:
	.loc 1 1165 0
	mov	DWORD PTR [esp+4], OFFSET FLAT:LC51
	mov	DWORD PTR [esp], OFFSET FLAT:LC6
	call	_libintl_dgettext
LVL945:
	mov	DWORD PTR [esp], eax
	call	_gtk_expander_new_with_mnemonic
LVL946:
	mov	DWORD PTR [esp+140], eax
LVL947:
	.loc 1 1166 0
	mov	eax, DWORD PTR [esp+124]
LVL948:
	mov	DWORD PTR [esp+4], eax
	mov	DWORD PTR [esp], ebp
	call	_g_type_check_instance_cast
LVL949:
	mov	DWORD PTR [esp+16], 0
	mov	DWORD PTR [esp+12], 0
	mov	DWORD PTR [esp+8], 0
	mov	edx, DWORD PTR [esp+140]
	mov	DWORD PTR [esp+4], edx
	mov	DWORD PTR [esp], eax
	call	_gtk_box_pack_start
LVL950:
	.loc 1 1169 0
	mov	DWORD PTR [esp+4], 18
	mov	DWORD PTR [esp], 0
	call	_gtk_vbox_new
LVL951:
	mov	esi, eax
LVL952:
	.loc 1 1170 0
	mov	DWORD PTR [esp+4], ebx
	mov	eax, DWORD PTR [esp+140]
LVL953:
	mov	DWORD PTR [esp], eax
	call	_g_type_check_instance_cast
LVL954:
	mov	DWORD PTR [esp+4], esi
	mov	DWORD PTR [esp], eax
	call	_gtk_container_add
LVL955:
	.loc 1 1173 0
	mov	ebx, DWORD PTR [esp+144]
	call	_gdk_pixbuf_get_type
LVL956:
	mov	DWORD PTR [esp+36], 64
	mov	DWORD PTR [esp+32], 64
	mov	DWORD PTR [esp+28], 64
	mov	DWORD PTR [esp+24], 64
	mov	DWORD PTR [esp+20], 64
	mov	DWORD PTR [esp+16], eax
	mov	DWORD PTR [esp+12], 20
	mov	DWORD PTR [esp+8], 68
	mov	DWORD PTR [esp+4], 68
	mov	DWORD PTR [esp], 9
	call	_gtk_list_store_new
LVL957:
	mov	DWORD PTR [ebx+4], eax
	.loc 1 1185 0
	mov	ebx, DWORD PTR [esp+144]
	mov	eax, DWORD PTR [esp+92]
	mov	DWORD PTR [esp+4], eax
	mov	eax, DWORD PTR [ebx+4]
	mov	DWORD PTR [esp], eax
	call	_g_type_check_instance_cast
LVL958:
	mov	DWORD PTR [esp], eax
	call	_gtk_tree_view_new_with_model
LVL959:
	mov	DWORD PTR [ebx+8], eax
	.loc 1 1186 0
	call	_gtk_tree_view_get_type
LVL960:
	mov	edi, eax
	mov	DWORD PTR [esp+4], eax
	mov	eax, DWORD PTR [esp+144]
	mov	eax, DWORD PTR [eax+8]
	mov	DWORD PTR [esp], eax
	call	_g_type_check_instance_cast
LVL961:
	mov	DWORD PTR [esp+4], 1
	mov	DWORD PTR [esp], eax
	call	_gtk_tree_view_set_rules_hint
LVL962:
	.loc 1 1187 0
	mov	DWORD PTR [esp+8], 150
	mov	DWORD PTR [esp+4], -1
	mov	eax, DWORD PTR [esp+144]
	mov	eax, DWORD PTR [eax+8]
	mov	DWORD PTR [esp], eax
	call	_gtk_widget_set_size_request
LVL963:
	.loc 1 1188 0
	mov	DWORD PTR [esp+20], -1
	mov	DWORD PTR [esp+16], -1
	mov	DWORD PTR [esp+12], 1
	mov	DWORD PTR [esp+8], 0
	mov	DWORD PTR [esp+4], 1
	.loc 1 1189 0
	mov	eax, DWORD PTR [esp+144]
	.loc 1 1188 0
	mov	eax, DWORD PTR [eax+8]
	mov	DWORD PTR [esp], eax
	call	_pidgin_make_scrollable
LVL964:
	mov	ebx, eax
	mov	eax, DWORD PTR [esp+124]
	mov	DWORD PTR [esp+4], eax
	mov	DWORD PTR [esp], esi
	call	_g_type_check_instance_cast
LVL965:
	mov	DWORD PTR [esp+16], 0
	mov	DWORD PTR [esp+12], 1
	mov	DWORD PTR [esp+8], 1
	mov	DWORD PTR [esp+4], ebx
	mov	DWORD PTR [esp], eax
	call	_gtk_box_pack_start
LVL966:
	.loc 1 1193 0
	mov	esi, DWORD PTR [esp+144]
LVL967:
LBB108:
LBB109:
	.loc 1 939 0
	call	_gtk_cell_renderer_toggle_new
LVL968:
	mov	ebx, eax
LVL969:
	.loc 1 941 0
	mov	DWORD PTR [esp+4], OFFSET FLAT:LC52
	mov	DWORD PTR [esp], OFFSET FLAT:LC6
	call	_libintl_dgettext
LVL970:
	mov	ebp, eax
LVL971:
	.loc 1 940 0
	mov	DWORD PTR [esp+4], edi
	mov	eax, DWORD PTR [esi+8]
	mov	DWORD PTR [esp], eax
	call	_g_type_check_instance_cast
LVL972:
	mov	DWORD PTR [esp+24], 0
	mov	DWORD PTR [esp+20], 2
	mov	DWORD PTR [esp+16], OFFSET FLAT:LC53
	mov	DWORD PTR [esp+12], ebx
	mov	DWORD PTR [esp+8], ebp
	mov	DWORD PTR [esp+4], -1
	mov	DWORD PTR [esp], eax
	call	_gtk_tree_view_insert_column_with_attributes
LVL973:
	.loc 1 945 0
	mov	DWORD PTR [esp+4], 80
	mov	DWORD PTR [esp], ebx
	call	_g_type_check_instance_cast
LVL974:
	mov	DWORD PTR [esp+20], 0
	mov	DWORD PTR [esp+16], 0
	mov	DWORD PTR [esp+12], esi
	mov	DWORD PTR [esp+8], OFFSET FLAT:_status_editor_substatus_cb
	mov	DWORD PTR [esp+4], OFFSET FLAT:LC54
	mov	DWORD PTR [esp], eax
	call	_g_signal_connect_data
LVL975:
	.loc 1 949 0
	call	_gtk_tree_view_column_new
LVL976:
	mov	ebx, eax
LVL977:
	.loc 1 950 0
	mov	DWORD PTR [esp+4], 1
	mov	DWORD PTR [esp], eax
	call	_gtk_tree_view_column_set_resizable
LVL978:
	.loc 1 951 0
	mov	DWORD PTR [esp+4], OFFSET FLAT:LC55
	mov	DWORD PTR [esp], OFFSET FLAT:LC6
	call	_libintl_dgettext
LVL979:
	mov	DWORD PTR [esp+4], eax
	mov	DWORD PTR [esp], ebx
	call	_gtk_tree_view_column_set_title
LVL980:
	.loc 1 952 0
	mov	DWORD PTR [esp+4], edi
	mov	eax, DWORD PTR [esi+8]
	mov	DWORD PTR [esp], eax
	call	_g_type_check_instance_cast
LVL981:
	mov	DWORD PTR [esp+8], -1
	mov	DWORD PTR [esp+4], ebx
	mov	DWORD PTR [esp], eax
	call	_gtk_tree_view_insert_column
LVL982:
	.loc 1 953 0
	mov	DWORD PTR [esp+4], 1
	mov	DWORD PTR [esp], ebx
	call	_gtk_tree_view_column_set_resizable
LVL983:
	.loc 1 956 0
	call	_gtk_cell_renderer_pixbuf_new
LVL984:
	mov	ebp, eax
LVL985:
	.loc 1 957 0
	mov	DWORD PTR [esp+8], 0
	mov	DWORD PTR [esp+4], eax
	mov	DWORD PTR [esp], ebx
	call	_gtk_tree_view_column_pack_start
LVL986:
	.loc 1 958 0
	mov	DWORD PTR [esp+12], 3
	mov	DWORD PTR [esp+8], OFFSET FLAT:LC56
	mov	DWORD PTR [esp+4], ebp
	mov	DWORD PTR [esp], ebx
	call	_gtk_tree_view_column_add_attribute
LVL987:
	.loc 1 962 0
	call	_gtk_cell_renderer_text_new
LVL988:
	mov	ebp, eax
LVL989:
	.loc 1 963 0
	mov	DWORD PTR [esp+8], 1
	mov	DWORD PTR [esp+4], eax
	mov	DWORD PTR [esp], ebx
	call	_gtk_tree_view_column_pack_start
LVL990:
	.loc 1 964 0
	mov	DWORD PTR [esp+12], 4
	mov	DWORD PTR [esp+8], OFFSET FLAT:LC4
	mov	DWORD PTR [esp+4], ebp
	mov	DWORD PTR [esp], ebx
	call	_gtk_tree_view_column_add_attribute
LVL991:
	.loc 1 968 0
	call	_gtk_tree_view_column_new
LVL992:
	mov	ebx, eax
LVL993:
	.loc 1 969 0
	mov	DWORD PTR [esp+4], 1
	mov	DWORD PTR [esp], eax
	call	_gtk_tree_view_column_set_resizable
LVL994:
	.loc 1 970 0
	mov	DWORD PTR [esp+4], OFFSET FLAT:LC47
	mov	DWORD PTR [esp], OFFSET FLAT:LC6
	call	_libintl_dgettext
LVL995:
	mov	DWORD PTR [esp+4], eax
	mov	DWORD PTR [esp], ebx
	call	_gtk_tree_view_column_set_title
LVL996:
	.loc 1 971 0
	mov	DWORD PTR [esp+4], edi
	mov	eax, DWORD PTR [esi+8]
	mov	DWORD PTR [esp], eax
	call	_g_type_check_instance_cast
LVL997:
	mov	DWORD PTR [esp+8], -1
	mov	DWORD PTR [esp+4], ebx
	mov	DWORD PTR [esp], eax
	call	_gtk_tree_view_insert_column
LVL998:
	.loc 1 972 0
	mov	DWORD PTR [esp+4], 1
	mov	DWORD PTR [esp], ebx
	call	_gtk_tree_view_column_set_resizable
LVL999:
	.loc 1 973 0
	call	_gtk_cell_renderer_pixbuf_new
LVL1000:
	mov	ebp, eax
LVL1001:
	.loc 1 974 0
	mov	DWORD PTR [esp+8], 0
	mov	DWORD PTR [esp+4], eax
	mov	DWORD PTR [esp], ebx
	call	_gtk_tree_view_column_pack_start
LVL1002:
	.loc 1 975 0
	mov	DWORD PTR [esp+12], 8
	mov	DWORD PTR [esp+8], OFFSET FLAT:LC3
	mov	DWORD PTR [esp+4], ebp
	mov	DWORD PTR [esp], ebx
	call	_gtk_tree_view_column_add_attribute
LVL1003:
	.loc 1 977 0
	call	_gtk_cell_renderer_text_new
LVL1004:
	mov	ebp, eax
LVL1005:
	.loc 1 978 0
	mov	DWORD PTR [esp+8], 1
	mov	DWORD PTR [esp+4], eax
	mov	DWORD PTR [esp], ebx
	call	_gtk_tree_view_column_pack_start
LVL1006:
	.loc 1 979 0
	mov	DWORD PTR [esp+12], 6
	mov	DWORD PTR [esp+8], OFFSET FLAT:LC4
	mov	DWORD PTR [esp+4], ebp
	mov	DWORD PTR [esp], ebx
	call	_gtk_tree_view_column_add_attribute
LVL1007:
	.loc 1 983 0
	call	_gtk_tree_view_column_new
LVL1008:
	mov	ebx, eax
LVL1009:
	.loc 1 984 0
	mov	DWORD PTR [esp+4], 1
	mov	DWORD PTR [esp], eax
	call	_gtk_tree_view_column_set_resizable
LVL1010:
	.loc 1 985 0
	mov	DWORD PTR [esp+4], OFFSET FLAT:LC35
	mov	DWORD PTR [esp], OFFSET FLAT:LC6
	call	_libintl_dgettext
LVL1011:
	mov	DWORD PTR [esp+4], eax
	mov	DWORD PTR [esp], ebx
	call	_gtk_tree_view_column_set_title
LVL1012:
	.loc 1 986 0
	mov	DWORD PTR [esp+4], edi
	mov	eax, DWORD PTR [esi+8]
	mov	DWORD PTR [esp], eax
	call	_g_type_check_instance_cast
LVL1013:
	mov	DWORD PTR [esp+8], -1
	mov	DWORD PTR [esp+4], ebx
	mov	DWORD PTR [esp], eax
	call	_gtk_tree_view_insert_column
LVL1014:
	.loc 1 987 0
	mov	DWORD PTR [esp+4], 1
	mov	DWORD PTR [esp], ebx
	call	_gtk_tree_view_column_set_resizable
LVL1015:
	.loc 1 988 0
	call	_gtk_cell_renderer_text_new
LVL1016:
	mov	edi, eax
LVL1017:
	.loc 1 989 0
	mov	DWORD PTR [esp+8], 1
	mov	DWORD PTR [esp+4], eax
	mov	DWORD PTR [esp], ebx
	call	_gtk_tree_view_column_pack_start
LVL1018:
	.loc 1 990 0
	mov	DWORD PTR [esp+12], 7
	mov	DWORD PTR [esp+8], OFFSET FLAT:LC4
	mov	DWORD PTR [esp+4], edi
	mov	DWORD PTR [esp], ebx
	call	_gtk_tree_view_column_add_attribute
LVL1019:
	.loc 1 993 0
	mov	DWORD PTR [esp+4], 80
	mov	eax, DWORD PTR [esi+8]
	mov	DWORD PTR [esp], eax
	call	_g_type_check_instance_cast
LVL1020:
	mov	DWORD PTR [esp+20], 0
	mov	DWORD PTR [esp+16], 0
	mov	DWORD PTR [esp+12], esi
	mov	DWORD PTR [esp+8], OFFSET FLAT:_edit_substatus_cb
	mov	DWORD PTR [esp+4], OFFSET FLAT:LC31
	mov	DWORD PTR [esp], eax
	call	_g_signal_connect_data
LVL1021:
LBE109:
LBE108:
	.loc 1 1196 0
	mov	edx, DWORD PTR [esp+144]
	mov	DWORD PTR [esp+100], edx
LVL1022:
LBB110:
LBB111:
	.loc 1 1055 0
	mov	eax, DWORD PTR [edx+4]
	mov	DWORD PTR [esp], eax
	call	_gtk_list_store_clear
LVL1023:
	.loc 1 1057 0
	call	_purple_accounts_get_all
LVL1024:
	mov	DWORD PTR [esp+92], eax
LVL1025:
	test	eax, eax
	jne	L496
	jmp	L473
LVL1026:
	.p2align 2,,3
L509:
LBB112:
	.loc 1 1062 0
	mov	DWORD PTR [esp+4], ebp
	mov	edx, DWORD PTR [esp+96]
	mov	DWORD PTR [esp], edx
	call	_purple_savedstatus_get_substatus
LVL1027:
	mov	esi, eax
LVL1028:
	xor	edx, edx
	test	eax, eax
	setne	dl
	mov	DWORD PTR [esp+108], edx
LVL1029:
L466:
LBB113:
LBB114:
	.loc 1 1044 0
	lea	eax, [esp+172]
	mov	DWORD PTR [esp+4], eax
	mov	edx, DWORD PTR [esp+100]
	mov	eax, DWORD PTR [edx+4]
	mov	DWORD PTR [esp], eax
	call	_gtk_list_store_append
LVL1030:
	.loc 1 1046 0
	mov	edx, DWORD PTR [esp+100]
	mov	edx, DWORD PTR [edx+4]
	mov	DWORD PTR [esp+104], edx
LVL1031:
LBB115:
LBB116:
	.loc 1 1005 0
	mov	DWORD PTR [esp+4], 1
	mov	DWORD PTR [esp], ebp
	call	_pidgin_create_prpl_icon
LVL1032:
	mov	ebx, eax
LVL1033:
	.loc 1 1006 0
	test	eax, eax
	je	L468
	mov	DWORD PTR [esp], ebp
	call	_purple_account_is_connected
LVL1034:
	test	eax, eax
	je	L508
L468:
	.loc 1 1011 0
	test	esi, esi
	je	L485
LBB117:
	.loc 1 1015 0
	mov	DWORD PTR [esp], esi
	call	_purple_savedstatus_substatus_get_type
LVL1035:
	mov	edi, eax
LVL1036:
	.loc 1 1016 0
	mov	DWORD PTR [esp], eax
	call	_purple_status_type_get_id
LVL1037:
	mov	DWORD PTR [esp+112], eax
LVL1038:
	.loc 1 1017 0
	mov	DWORD PTR [esp], edi
	call	_purple_status_type_get_name
LVL1039:
	mov	DWORD PTR [esp+116], eax
LVL1040:
	.loc 1 1018 0
	mov	DWORD PTR [esp], edi
	call	_purple_status_type_get_primitive
LVL1041:
	mov	DWORD PTR [esp+120], eax
LVL1042:
	.loc 1 1019 0
	mov	DWORD PTR [esp+4], OFFSET FLAT:LC18
	mov	DWORD PTR [esp], edi
	call	_purple_status_type_get_attr
LVL1043:
	test	eax, eax
	je	L486
	.loc 1 1020 0
	mov	DWORD PTR [esp], esi
	call	_purple_savedstatus_substatus_get_message
LVL1044:
	mov	esi, eax
LVL1045:
L470:
LBE117:
LBB118:
LBB119:
	.loc 1 366 0
	mov	eax, DWORD PTR [esp+120]
	mov	DWORD PTR [esp], eax
	call	_pidgin_stock_id_from_status_primitive
LVL1046:
	mov	edi, eax
LBE119:
LBE118:
	.loc 1 1023 0
	mov	DWORD PTR [esp], ebp
	call	_purple_account_get_username
LVL1047:
	mov	DWORD PTR [esp+72], -1
	mov	DWORD PTR [esp+68], edi
	mov	DWORD PTR [esp+64], 8
	mov	DWORD PTR [esp+60], esi
	mov	DWORD PTR [esp+56], 7
	mov	edx, DWORD PTR [esp+116]
	mov	DWORD PTR [esp+52], edx
	mov	DWORD PTR [esp+48], 6
	mov	edx, DWORD PTR [esp+112]
	mov	DWORD PTR [esp+44], edx
	mov	DWORD PTR [esp+40], 5
	mov	DWORD PTR [esp+36], eax
	mov	DWORD PTR [esp+32], 4
	mov	DWORD PTR [esp+28], ebx
	mov	DWORD PTR [esp+24], 3
	mov	edx, DWORD PTR [esp+108]
	mov	DWORD PTR [esp+20], edx
	mov	DWORD PTR [esp+16], 2
	mov	DWORD PTR [esp+12], ebp
	mov	DWORD PTR [esp+8], 0
	.loc 1 1046 0
	lea	eax, [esp+172]
LVL1048:
	mov	DWORD PTR [esp+4], eax
	.loc 1 1023 0
	mov	edx, DWORD PTR [esp+104]
	mov	DWORD PTR [esp], edx
	call	_gtk_list_store_set
LVL1049:
	.loc 1 1034 0
	test	ebx, ebx
	je	L471
	.loc 1 1035 0
	mov	DWORD PTR [esp+4], 80
	mov	DWORD PTR [esp], ebx
	call	_g_type_check_instance_cast
LVL1050:
	mov	DWORD PTR [esp], eax
	call	_g_object_unref
LVL1051:
L471:
LBE116:
LBE115:
LBE114:
LBE113:
LBE112:
	.loc 1 1057 0
	mov	eax, DWORD PTR [esp+92]
	mov	eax, DWORD PTR [eax+4]
	mov	DWORD PTR [esp+92], eax
LVL1052:
	test	eax, eax
	je	L473
LVL1053:
L496:
LBB125:
	.loc 1 1059 0
	mov	eax, DWORD PTR [esp+92]
LVL1054:
	mov	ebp, DWORD PTR [eax]
LVL1055:
	.loc 1 1061 0
	mov	ebx, DWORD PTR [esp+96]
	test	ebx, ebx
	jne	L509
	mov	DWORD PTR [esp+108], 0
	.loc 1 1064 0
	xor	esi, esi
	jmp	L466
LVL1056:
	.p2align 2,,3
L485:
LBB124:
LBB123:
LBB122:
LBB121:
	.loc 1 1003 0
	mov	DWORD PTR [esp+120], 0
	.loc 1 1002 0
	xor	esi, esi
LVL1057:
	mov	DWORD PTR [esp+116], 0
	mov	DWORD PTR [esp+112], 0
	jmp	L470
LVL1058:
	.p2align 2,,3
L486:
LBB120:
	xor	esi, esi
LVL1059:
	jmp	L470
LVL1060:
	.p2align 2,,3
L508:
LBE120:
	.loc 1 1008 0
	mov	DWORD PTR [esp+12], 0
	mov	DWORD PTR [esp+8], 0x00000000
	mov	DWORD PTR [esp+4], ebx
	mov	DWORD PTR [esp], ebx
	call	_gdk_pixbuf_saturate_and_pixelate
LVL1061:
	jmp	L468
LVL1062:
	.p2align 2,,3
L473:
LBE121:
LBE122:
LBE123:
LBE124:
LBE125:
LBE111:
LBE110:
	.loc 1 1199 0
	mov	esi, DWORD PTR [esp+96]
	test	esi, esi
	je	L510
	.loc 1 1200 0 discriminator 1
	mov	edx, DWORD PTR [esp+96]
	mov	DWORD PTR [esp], edx
	call	_purple_savedstatus_has_substatuses
LVL1063:
	.loc 1 1199 0 discriminator 1
	xor	ebx, ebx
	test	eax, eax
	setne	bl
L465:
	.loc 1 1199 0 is_stmt 0 discriminator 4
	call	_gtk_expander_get_type
LVL1064:
	mov	DWORD PTR [esp+4], eax
	mov	eax, DWORD PTR [esp+140]
	mov	DWORD PTR [esp], eax
	call	_g_type_check_instance_cast
LVL1065:
	mov	DWORD PTR [esp+4], ebx
	mov	DWORD PTR [esp], eax
	call	_gtk_expander_set_expanded
LVL1066:
	.loc 1 1203 0 is_stmt 1 discriminator 4
	mov	eax, DWORD PTR [esp+132]
	mov	DWORD PTR [esp+4], eax
	mov	eax, DWORD PTR [esp+128]
	mov	DWORD PTR [esp], eax
	call	_g_type_check_instance_cast
LVL1067:
	mov	DWORD PTR [esp], eax
	call	_pidgin_dialog_get_action_area
LVL1068:
	mov	ebx, eax
LVL1069:
	.loc 1 1204 0 discriminator 4
	mov	eax, DWORD PTR [esp+124]
LVL1070:
	mov	DWORD PTR [esp+4], eax
	mov	DWORD PTR [esp], ebx
	call	_g_type_check_instance_cast
LVL1071:
	mov	DWORD PTR [esp+4], 6
	mov	DWORD PTR [esp], eax
	call	_gtk_box_set_spacing
LVL1072:
	.loc 1 1205 0 discriminator 4
	call	_gtk_button_box_get_type
LVL1073:
	mov	DWORD PTR [esp+4], eax
	mov	DWORD PTR [esp], ebx
	call	_g_type_check_instance_cast
LVL1074:
	mov	DWORD PTR [esp+4], 4
	mov	DWORD PTR [esp], eax
	call	_gtk_button_box_set_layout
LVL1075:
	.loc 1 1208 0 discriminator 4
	mov	esi, DWORD PTR [esp+144]
	mov	eax, DWORD PTR [esp+132]
	mov	DWORD PTR [esp+4], eax
	mov	eax, DWORD PTR [esp+128]
	mov	DWORD PTR [esp], eax
	call	_g_type_check_instance_cast
LVL1076:
	mov	DWORD PTR [esp+12], esi
	mov	DWORD PTR [esp+8], OFFSET FLAT:_status_editor_cancel_cb
	mov	DWORD PTR [esp+4], OFFSET FLAT:LC16
	mov	DWORD PTR [esp], eax
	call	_pidgin_dialog_add_button
LVL1077:
	.loc 1 1212 0 discriminator 4
	mov	DWORD PTR [esp+4], OFFSET FLAT:LC36
	mov	DWORD PTR [esp], OFFSET FLAT:LC6
	call	_libintl_dgettext
LVL1078:
	mov	DWORD PTR [esp+8], 0
	mov	DWORD PTR [esp+4], OFFSET FLAT:LC37
	mov	DWORD PTR [esp], eax
	call	_pidgin_pixbuf_button_from_stock
LVL1079:
	mov	esi, eax
LVL1080:
	.loc 1 1214 0 discriminator 4
	mov	eax, DWORD PTR [esp+124]
LVL1081:
	mov	DWORD PTR [esp+4], eax
	mov	DWORD PTR [esp], ebx
	call	_g_type_check_instance_cast
LVL1082:
	mov	DWORD PTR [esp+16], 0
	mov	DWORD PTR [esp+12], 0
	mov	DWORD PTR [esp+8], 0
	mov	DWORD PTR [esp+4], esi
	mov	DWORD PTR [esp], eax
	call	_gtk_box_pack_start
LVL1083:
	.loc 1 1215 0 discriminator 4
	mov	edi, DWORD PTR [esp+144]
	mov	DWORD PTR [esp+4], 80
	mov	DWORD PTR [esp], esi
	call	_g_type_check_instance_cast
LVL1084:
	mov	DWORD PTR [esp+20], 0
	mov	DWORD PTR [esp+16], 0
	mov	DWORD PTR [esp+12], edi
	mov	DWORD PTR [esp+8], OFFSET FLAT:_status_editor_ok_cb
	mov	DWORD PTR [esp+4], OFFSET FLAT:LC38
	mov	DWORD PTR [esp], eax
	call	_g_signal_connect_data
LVL1085:
	.loc 1 1219 0 discriminator 4
	mov	DWORD PTR [esp+4], OFFSET FLAT:LC57
	mov	DWORD PTR [esp], OFFSET FLAT:LC6
	call	_libintl_dgettext
LVL1086:
	mov	DWORD PTR [esp+8], 0
	mov	DWORD PTR [esp+4], OFFSET FLAT:LC17
	mov	DWORD PTR [esp], eax
	call	_pidgin_pixbuf_button_from_stock
LVL1087:
	mov	esi, eax
LVL1088:
	.loc 1 1221 0 discriminator 4
	mov	ebp, DWORD PTR [esp+144]
	call	_gtk_button_get_type
LVL1089:
	mov	edi, eax
	mov	DWORD PTR [esp+4], eax
	mov	DWORD PTR [esp], esi
	call	_g_type_check_instance_cast
LVL1090:
	mov	DWORD PTR [ebp+12], eax
	.loc 1 1222 0 discriminator 4
	mov	eax, DWORD PTR [esp+124]
	mov	DWORD PTR [esp+4], eax
	mov	DWORD PTR [esp], ebx
	call	_g_type_check_instance_cast
LVL1091:
	mov	DWORD PTR [esp+16], 0
	mov	DWORD PTR [esp+12], 0
	mov	DWORD PTR [esp+8], 0
	mov	DWORD PTR [esp+4], esi
	mov	DWORD PTR [esp], eax
	call	_gtk_box_pack_start
LVL1092:
	.loc 1 1223 0 discriminator 4
	mov	ebx, DWORD PTR [esp+144]
LVL1093:
	mov	ecx, DWORD PTR [ebx+20]
	test	ecx, ecx
	je	L511
L474:
	.loc 1 1225 0
	mov	DWORD PTR [esp+4], 80
	mov	DWORD PTR [esp], esi
	call	_g_type_check_instance_cast
LVL1094:
	mov	DWORD PTR [esp+20], 0
	mov	DWORD PTR [esp+16], 0
	mov	DWORD PTR [esp+12], ebx
	mov	DWORD PTR [esp+8], OFFSET FLAT:_status_editor_ok_cb
	mov	DWORD PTR [esp+4], OFFSET FLAT:LC38
	mov	DWORD PTR [esp], eax
	call	_g_signal_connect_data
LVL1095:
	.loc 1 1229 0
	mov	ebx, DWORD PTR [esp+144]
	mov	eax, DWORD PTR [esp+132]
	mov	DWORD PTR [esp+4], eax
	mov	eax, DWORD PTR [esp+128]
	mov	DWORD PTR [esp], eax
	call	_g_type_check_instance_cast
LVL1096:
	mov	DWORD PTR [esp+12], ebx
	mov	DWORD PTR [esp+8], OFFSET FLAT:_status_editor_ok_cb
	mov	DWORD PTR [esp+4], OFFSET FLAT:LC0
	mov	DWORD PTR [esp], eax
	call	_pidgin_dialog_add_button
LVL1097:
	.loc 1 1231 0
	mov	ebx, DWORD PTR [esp+144]
	mov	edx, DWORD PTR [ebx+20]
	test	edx, edx
	je	L512
LVL1098:
L475:
	.loc 1 1233 0
	mov	DWORD PTR [esp+4], edi
	mov	DWORD PTR [esp], eax
	call	_g_type_check_instance_cast
LVL1099:
	mov	DWORD PTR [ebx+16], eax
	.loc 1 1235 0
	mov	eax, DWORD PTR [esp+128]
	mov	DWORD PTR [esp], eax
	call	_gtk_widget_show_all
LVL1100:
	.loc 1 1236 0
	mov	eax, DWORD PTR [esp+136]
	mov	DWORD PTR [esp], eax
	call	_g_object_unref
LVL1101:
L450:
	.loc 1 1237 0
	mov	eax, DWORD PTR [esp+188]
	xor	eax, DWORD PTR ___stack_chk_guard
	jne	L513
	add	esp, 204
LCFI315:
	.cfi_remember_state
	.cfi_def_cfa_offset 20
	pop	ebx
LCFI316:
	.cfi_restore 3
	.cfi_def_cfa_offset 16
	pop	esi
LCFI317:
	.cfi_restore 6
	.cfi_def_cfa_offset 12
	pop	edi
LCFI318:
	.cfi_restore 7
	.cfi_def_cfa_offset 8
	pop	ebp
LCFI319:
	.cfi_restore 5
	.cfi_def_cfa_offset 4
	ret
LVL1102:
	.p2align 2,,3
L457:
LCFI320:
	.cfi_restore_state
	.loc 1 1137 0
	mov	esi, DWORD PTR [esp+144]
	mov	DWORD PTR [esp+4], 80
	mov	DWORD PTR [esp], ebx
	call	_g_type_check_instance_cast
LVL1103:
	mov	DWORD PTR [esp+20], 0
	mov	DWORD PTR [esp+16], 0
	mov	DWORD PTR [esp+12], esi
	mov	DWORD PTR [esp+8], OFFSET FLAT:_editor_title_changed_cb
	mov	DWORD PTR [esp+4], OFFSET FLAT:LC14
	mov	DWORD PTR [esp], eax
	call	_g_signal_connect_data
LVL1104:
	.loc 1 1139 0
	mov	DWORD PTR [esp+4], OFFSET FLAT:LC60
	mov	DWORD PTR [esp], OFFSET FLAT:LC6
	call	_libintl_dgettext
LVL1105:
	mov	esi, eax
	call	_gtk_box_get_type
LVL1106:
	mov	DWORD PTR [esp+124], eax
	mov	DWORD PTR [esp+4], eax
	mov	DWORD PTR [esp], ebp
	call	_g_type_check_instance_cast
LVL1107:
	mov	DWORD PTR [esp+20], 0
	mov	DWORD PTR [esp+16], 1
	mov	DWORD PTR [esp+12], ebx
	mov	edx, DWORD PTR [esp+136]
	mov	DWORD PTR [esp+8], edx
	mov	DWORD PTR [esp+4], esi
	mov	DWORD PTR [esp], eax
	call	_pidgin_add_widget_to_vbox
LVL1108:
	.loc 1 1145 0
	mov	eax, 5
	call	_create_status_type_menu
LVL1109:
	mov	ebx, eax
LVL1110:
	jmp	L482
LVL1111:
	.p2align 2,,3
L510:
	.loc 1 1199 0
	xor	ebx, ebx
	jmp	L465
LVL1112:
	.p2align 2,,3
L506:
	.loc 1 1093 0
	mov	DWORD PTR [esp+8], OFFSET FLAT:LC59
	mov	DWORD PTR [esp+4], OFFSET FLAT:___PRETTY_FUNCTION__.78463
	mov	DWORD PTR [esp], 0
	call	_g_return_if_fail_warning
LVL1113:
	jmp	L450
LVL1114:
	.p2align 2,,3
L507:
	.loc 1 1135 0
	mov	eax, DWORD PTR [esp+96]
	mov	DWORD PTR [esp], eax
	call	_purple_savedstatus_get_title
LVL1115:
	test	eax, eax
	je	L459
	.loc 1 1136 0
	mov	edx, DWORD PTR [esp+96]
	mov	DWORD PTR [esp], edx
	call	_purple_savedstatus_get_title
LVL1116:
	mov	edi, eax
	mov	DWORD PTR [esp+4], esi
	mov	DWORD PTR [esp], ebx
	call	_g_type_check_instance_cast
LVL1117:
	mov	DWORD PTR [esp+4], edi
	mov	DWORD PTR [esp], eax
	call	_gtk_entry_set_text
LVL1118:
	jmp	L459
LVL1119:
L505:
	.loc 1 1092 0
	mov	DWORD PTR [esp+8], OFFSET FLAT:LC58
	mov	DWORD PTR [esp+4], OFFSET FLAT:___PRETTY_FUNCTION__.78463
	mov	DWORD PTR [esp], 0
	call	_g_return_if_fail_warning
LVL1120:
	jmp	L450
LVL1121:
L479:
	.loc 1 1099 0
	call	_gtk_tree_model_get_type
LVL1122:
	mov	DWORD PTR [esp+92], eax
	mov	DWORD PTR [esp+4], eax
	mov	eax, DWORD PTR _status_window
	mov	eax, DWORD PTR [eax+4]
	mov	DWORD PTR [esp], eax
	call	_g_type_check_instance_cast
LVL1123:
	mov	DWORD PTR [esp+16], -1
	lea	edx, [esp+144]
	mov	DWORD PTR [esp+12], edx
	mov	DWORD PTR [esp+8], 3
	lea	edx, [esp+156]
	mov	DWORD PTR [esp+4], edx
	mov	DWORD PTR [esp], eax
	call	_gtk_tree_model_get
LVL1124:
	.loc 1 1102 0
	mov	ebx, DWORD PTR [esp+144]
	test	ebx, ebx
	je	L454
	.loc 1 1104 0
	call	_gtk_window_get_type
LVL1125:
	mov	DWORD PTR [esp+4], eax
	mov	eax, DWORD PTR [ebx]
	mov	DWORD PTR [esp], eax
	call	_g_type_check_instance_cast
LVL1126:
	mov	DWORD PTR [esp], eax
	call	_gtk_window_present
LVL1127:
	jmp	L450
LVL1128:
L512:
	.loc 1 1232 0
	mov	DWORD PTR [esp+4], 0
	mov	DWORD PTR [esp], eax
	mov	DWORD PTR [esp+88], eax
	call	_gtk_widget_set_sensitive
LVL1129:
	mov	ebx, DWORD PTR [esp+144]
	mov	eax, DWORD PTR [esp+88]
	jmp	L475
LVL1130:
	.p2align 2,,3
L481:
	.loc 1 1112 0
	mov	DWORD PTR [esp+16], -1
	mov	eax, DWORD PTR [esp+144]
	mov	DWORD PTR [esp+12], eax
	mov	DWORD PTR [esp+8], 3
	lea	eax, [esp+156]
	mov	DWORD PTR [esp+4], eax
	mov	eax, DWORD PTR _status_window
	mov	eax, DWORD PTR [eax+4]
	mov	DWORD PTR [esp], eax
	call	_gtk_list_store_set
LVL1131:
	jmp	L456
LVL1132:
L511:
	.loc 1 1224 0
	mov	DWORD PTR [esp+4], 0
	mov	DWORD PTR [esp], esi
	call	_gtk_widget_set_sensitive
LVL1133:
	mov	ebx, DWORD PTR [esp+144]
	jmp	L474
LVL1134:
L513:
	.loc 1 1237 0
	call	___stack_chk_fail
LVL1135:
	.cfi_endproc
LFE127:
	.p2align 2,,3
	.def	_status_window_modify_foreach;	.scl	3;	.type	32;	.endef
_status_window_modify_foreach:
LFB97:
	.loc 1 227 0
	.cfi_startproc
LVL1136:
	push	ebx
LCFI321:
	.cfi_def_cfa_offset 8
	.cfi_offset 3, -8
	sub	esp, 56
LCFI322:
	.cfi_def_cfa_offset 64
	.loc 1 227 0
	mov	eax, DWORD PTR ___stack_chk_guard
	mov	DWORD PTR [esp+44], eax
	xor	eax, eax
	.loc 1 231 0
	mov	DWORD PTR [esp+16], -1
	lea	eax, [esp+40]
	mov	DWORD PTR [esp+12], eax
	mov	DWORD PTR [esp+8], 0
	mov	eax, DWORD PTR [esp+72]
	mov	DWORD PTR [esp+4], eax
	mov	eax, DWORD PTR [esp+64]
	mov	DWORD PTR [esp], eax
	call	_gtk_tree_model_get
LVL1137:
	.loc 1 232 0
	mov	eax, DWORD PTR [esp+40]
	mov	DWORD PTR [esp], eax
	call	_purple_savedstatus_find
LVL1138:
	mov	ebx, eax
LVL1139:
	.loc 1 233 0
	mov	eax, DWORD PTR [esp+40]
LVL1140:
	mov	DWORD PTR [esp], eax
	call	_g_free
LVL1141:
	.loc 1 234 0
	mov	DWORD PTR [esp+4], ebx
	mov	DWORD PTR [esp], 1
	call	_pidgin_status_editor_show
LVL1142:
	.loc 1 235 0
	mov	eax, DWORD PTR [esp+44]
	xor	eax, DWORD PTR ___stack_chk_guard
	jne	L517
	add	esp, 56
LCFI323:
	.cfi_remember_state
	.cfi_def_cfa_offset 8
	pop	ebx
LCFI324:
	.cfi_restore 3
	.cfi_def_cfa_offset 4
LVL1143:
	ret
LVL1144:
L517:
LCFI325:
	.cfi_restore_state
	call	___stack_chk_fail
LVL1145:
	.cfi_endproc
LFE97:
	.p2align 2,,3
	.def	_status_window_add_cb;	.scl	3;	.type	32;	.endef
_status_window_add_cb:
LFB96:
	.loc 1 220 0
	.cfi_startproc
LVL1146:
	sub	esp, 28
LCFI326:
	.cfi_def_cfa_offset 32
	.loc 1 220 0
	mov	eax, DWORD PTR ___stack_chk_guard
	mov	DWORD PTR [esp+12], eax
	xor	eax, eax
	.loc 1 221 0
	mov	eax, DWORD PTR [esp+12]
	xor	eax, DWORD PTR ___stack_chk_guard
	jne	L522
	mov	DWORD PTR [esp+36], 0
	mov	DWORD PTR [esp+32], 0
	.loc 1 222 0
	add	esp, 28
LCFI327:
	.cfi_remember_state
	.cfi_def_cfa_offset 4
	.loc 1 221 0
	jmp	_pidgin_status_editor_show
LVL1147:
L522:
LCFI328:
	.cfi_restore_state
	call	___stack_chk_fail
LVL1148:
	.cfi_endproc
LFE96:
	.section .rdata,"dr"
LC61:
	.ascii "markup\0"
LC62:
	.ascii "visible\0"
	.text
	.p2align 2,,3
	.globl	_pidgin_status_menu
	.def	_pidgin_status_menu;	.scl	2;	.type	32;	.endef
_pidgin_status_menu:
LFB143:
	.loc 1 1746 0
	.cfi_startproc
LVL1149:
	push	ebp
LCFI329:
	.cfi_def_cfa_offset 8
	.cfi_offset 5, -8
	push	edi
LCFI330:
	.cfi_def_cfa_offset 12
	.cfi_offset 7, -12
	push	esi
LCFI331:
	.cfi_def_cfa_offset 16
	.cfi_offset 6, -16
	push	ebx
LCFI332:
	.cfi_def_cfa_offset 20
	.cfi_offset 3, -20
	sub	esp, 108
LCFI333:
	.cfi_def_cfa_offset 128
	mov	eax, DWORD PTR [esp+128]
	mov	DWORD PTR [esp+44], eax
	mov	edx, DWORD PTR [esp+132]
	mov	DWORD PTR [esp+60], edx
	.loc 1 1746 0
	mov	ecx, DWORD PTR ___stack_chk_guard
	mov	DWORD PTR [esp+92], ecx
	xor	ecx, ecx
LVL1150:
	.loc 1 1757 0
	mov	DWORD PTR [esp+24], 20
	mov	DWORD PTR [esp+20], 64
	mov	DWORD PTR [esp+16], 68
	mov	DWORD PTR [esp+12], 64
	mov	DWORD PTR [esp+8], 64
	mov	DWORD PTR [esp+4], 24
	mov	DWORD PTR [esp], 6
	call	_gtk_list_store_new
LVL1151:
	mov	ebp, eax
LVL1152:
	.loc 1 1760 0
	call	_gtk_combo_box_new
LVL1153:
	mov	edi, eax
LVL1154:
	.loc 1 1762 0
	mov	ecx, DWORD PTR [esp+44]
	mov	edx, 2
	mov	eax, ebp
LVL1155:
	call	_pidgin_status_menu_add_primitive.isra.0
LVL1156:
	.loc 1 1751 0
	cmp	eax, 1
	sbb	eax, eax
	mov	DWORD PTR [esp+52], eax
LVL1157:
	.loc 1 1766 0
	mov	ecx, DWORD PTR [esp+44]
	mov	edx, 5
	mov	eax, ebp
LVL1158:
	call	_pidgin_status_menu_add_primitive.isra.0
LVL1159:
	test	eax, eax
	je	L525
	.loc 1 1767 0
	mov	DWORD PTR [esp+52], 1
L525:
LVL1160:
	.loc 1 1770 0
	mov	ecx, DWORD PTR [esp+44]
	mov	edx, 4
	mov	eax, ebp
	call	_pidgin_status_menu_add_primitive.isra.0
LVL1161:
	test	eax, eax
	je	L526
	.loc 1 1771 0
	mov	DWORD PTR [esp+52], 2
L526:
LVL1162:
	.loc 1 1774 0
	mov	ecx, DWORD PTR [esp+44]
	mov	edx, 1
	mov	eax, ebp
	call	_pidgin_status_menu_add_primitive.isra.0
LVL1163:
	test	eax, eax
	je	L527
	.loc 1 1775 0
	mov	DWORD PTR [esp+52], 3
L527:
LVL1164:
	.loc 1 1778 0
	call	_purple_savedstatuses_get_all
LVL1165:
	mov	DWORD PTR [esp], eax
	call	_g_list_copy
LVL1166:
	.loc 1 1779 0
	mov	DWORD PTR [esp+4], OFFSET FLAT:_saved_status_sort_alphabetically_func
	mov	DWORD PTR [esp], eax
	call	_g_list_sort
LVL1167:
	mov	DWORD PTR [esp+56], eax
LVL1168:
	.loc 1 1780 0
	test	eax, eax
	je	L528
	mov	ebx, eax
	mov	DWORD PTR [esp+48], 4
	jmp	L531
LVL1169:
	.p2align 2,,3
L529:
	mov	ebx, DWORD PTR [ebx+4]
LVL1170:
	test	ebx, ebx
	je	L528
LVL1171:
L531:
LBB126:
	.loc 1 1782 0
	mov	esi, DWORD PTR [ebx]
LVL1172:
	.loc 1 1783 0
	mov	DWORD PTR [esp], esi
	call	_purple_savedstatus_is_transient
LVL1173:
	test	eax, eax
	jne	L529
	.loc 1 1785 0
	lea	edx, [esp+76]
	mov	DWORD PTR [esp+4], edx
	mov	DWORD PTR [esp], ebp
	call	_gtk_list_store_append
LVL1174:
	.loc 1 1787 0
	mov	DWORD PTR [esp], esi
	lea	ecx, [esp+76]
	mov	edx, ebp
	mov	eax, edi
	call	_pidgin_status_menu_update_iter
LVL1175:
	.loc 1 1789 0
	cmp	esi, DWORD PTR [esp+44]
	je	L543
L530:
	.loc 1 1791 0
	inc	DWORD PTR [esp+48]
LVL1176:
LBE126:
	.loc 1 1780 0
	mov	ebx, DWORD PTR [ebx+4]
LVL1177:
	test	ebx, ebx
	jne	L531
LVL1178:
L528:
	.loc 1 1794 0
	mov	eax, DWORD PTR [esp+56]
	mov	DWORD PTR [esp], eax
	call	_g_list_free
LVL1179:
	.loc 1 1796 0
	call	_gtk_tree_model_get_type
LVL1180:
	mov	DWORD PTR [esp+4], eax
	mov	DWORD PTR [esp], ebp
	call	_g_type_check_instance_cast
LVL1181:
	mov	ebx, eax
	call	_gtk_combo_box_get_type
LVL1182:
	mov	DWORD PTR [esp+4], eax
	mov	DWORD PTR [esp], edi
	mov	DWORD PTR [esp+40], eax
	call	_g_type_check_instance_cast
LVL1183:
	mov	DWORD PTR [esp+4], ebx
	mov	DWORD PTR [esp], eax
	call	_gtk_combo_box_set_model
LVL1184:
	.loc 1 1798 0
	call	_gtk_cell_renderer_text_new
LVL1185:
	mov	esi, eax
LVL1186:
	.loc 1 1799 0
	call	_gtk_cell_renderer_pixbuf_new
LVL1187:
	mov	ebp, eax
LVL1188:
	.loc 1 1800 0
	call	_gtk_cell_renderer_pixbuf_new
LVL1189:
	mov	DWORD PTR [esp+44], eax
LVL1190:
	.loc 1 1801 0
	call	_gtk_cell_layout_get_type
LVL1191:
	mov	ebx, eax
	mov	DWORD PTR [esp+4], eax
	mov	DWORD PTR [esp], edi
	call	_g_type_check_instance_cast
LVL1192:
	mov	DWORD PTR [esp+8], 0
	mov	DWORD PTR [esp+4], ebp
	mov	DWORD PTR [esp], eax
	call	_gtk_cell_layout_pack_start
LVL1193:
	.loc 1 1802 0
	mov	DWORD PTR [esp+4], ebx
	mov	DWORD PTR [esp], edi
	call	_g_type_check_instance_cast
LVL1194:
	mov	DWORD PTR [esp+8], 1
	mov	DWORD PTR [esp+4], esi
	mov	DWORD PTR [esp], eax
	call	_gtk_cell_layout_pack_start
LVL1195:
	.loc 1 1803 0
	mov	DWORD PTR [esp+4], ebx
	mov	DWORD PTR [esp], edi
	call	_g_type_check_instance_cast
LVL1196:
	mov	DWORD PTR [esp+8], 0
	mov	ecx, DWORD PTR [esp+44]
	mov	DWORD PTR [esp+4], ecx
	mov	DWORD PTR [esp], eax
	call	_gtk_cell_layout_pack_start
LVL1197:
	.loc 1 1804 0
	mov	DWORD PTR [esp+4], ebx
	mov	DWORD PTR [esp], edi
	call	_g_type_check_instance_cast
LVL1198:
	mov	DWORD PTR [esp+16], 0
	mov	DWORD PTR [esp+12], 1
	mov	DWORD PTR [esp+8], OFFSET FLAT:LC3
	mov	DWORD PTR [esp+4], ebp
	mov	DWORD PTR [esp], eax
	call	_gtk_cell_layout_set_attributes
LVL1199:
	.loc 1 1805 0
	mov	DWORD PTR [esp+4], ebx
	mov	DWORD PTR [esp], edi
	call	_g_type_check_instance_cast
LVL1200:
	mov	DWORD PTR [esp+16], 0
	mov	DWORD PTR [esp+12], 2
	mov	DWORD PTR [esp+8], OFFSET FLAT:LC61
	mov	DWORD PTR [esp+4], esi
	mov	DWORD PTR [esp], eax
	call	_gtk_cell_layout_set_attributes
LVL1201:
	.loc 1 1806 0
	mov	DWORD PTR [esp+4], ebx
	mov	DWORD PTR [esp], edi
	call	_g_type_check_instance_cast
LVL1202:
	mov	DWORD PTR [esp+24], 0
	mov	DWORD PTR [esp+20], 5
	mov	DWORD PTR [esp+16], OFFSET FLAT:LC62
	mov	DWORD PTR [esp+12], 4
	mov	DWORD PTR [esp+8], OFFSET FLAT:LC3
	mov	ecx, DWORD PTR [esp+44]
	mov	DWORD PTR [esp+4], ecx
	mov	DWORD PTR [esp], eax
	call	_gtk_cell_layout_set_attributes
LVL1203:
	.loc 1 1809 0
	mov	DWORD PTR [esp], OFFSET FLAT:LC12
	call	_gtk_icon_size_from_name
LVL1204:
	mov	ebx, eax
	.loc 1 1808 0
	mov	DWORD PTR [esp+4], 80
	mov	DWORD PTR [esp], ebp
	call	_g_type_check_instance_cast
LVL1205:
	mov	DWORD PTR [esp+12], 0
	mov	DWORD PTR [esp+8], ebx
	mov	DWORD PTR [esp+4], OFFSET FLAT:LC13
	mov	DWORD PTR [esp], eax
	call	_g_object_set
LVL1206:
	.loc 1 1811 0
	mov	DWORD PTR [esp+12], 0
	mov	DWORD PTR [esp+8], 3
	mov	DWORD PTR [esp+4], OFFSET FLAT:LC33
	mov	DWORD PTR [esp], esi
	call	_g_object_set
LVL1207:
	.loc 1 1813 0
	mov	edx, DWORD PTR [esp+40]
	mov	DWORD PTR [esp+4], edx
	mov	DWORD PTR [esp], edi
	call	_g_type_check_instance_cast
LVL1208:
	mov	edx, DWORD PTR [esp+52]
	mov	DWORD PTR [esp+4], edx
	mov	DWORD PTR [esp], eax
	call	_gtk_combo_box_set_active
LVL1209:
	.loc 1 1814 0
	mov	DWORD PTR [esp+4], 80
	mov	DWORD PTR [esp], edi
	call	_g_type_check_instance_cast
LVL1210:
	mov	DWORD PTR [esp+20], 0
	mov	DWORD PTR [esp+16], 0
	mov	ecx, DWORD PTR [esp+60]
	mov	DWORD PTR [esp+12], ecx
	mov	DWORD PTR [esp+8], OFFSET FLAT:_status_menu_cb
	mov	DWORD PTR [esp+4], OFFSET FLAT:LC14
	mov	DWORD PTR [esp], eax
	call	_g_signal_connect_data
LVL1211:
	.loc 1 1818 0
	call	_purple_savedstatuses_get_handle
LVL1212:
	mov	DWORD PTR [esp+16], edi
	mov	DWORD PTR [esp+12], OFFSET FLAT:_savedstatus_added_cb
	mov	DWORD PTR [esp+8], edi
	mov	DWORD PTR [esp+4], OFFSET FLAT:LC44
	mov	DWORD PTR [esp], eax
	call	_purple_signal_connect
LVL1213:
	.loc 1 1820 0
	call	_purple_savedstatuses_get_handle
LVL1214:
	mov	DWORD PTR [esp+16], edi
	mov	DWORD PTR [esp+12], OFFSET FLAT:_savedstatus_deleted_cb
	mov	DWORD PTR [esp+8], edi
	mov	DWORD PTR [esp+4], OFFSET FLAT:LC45
	mov	DWORD PTR [esp], eax
	call	_purple_signal_connect
LVL1215:
	.loc 1 1822 0
	call	_purple_savedstatuses_get_handle
LVL1216:
	mov	DWORD PTR [esp+16], edi
	mov	DWORD PTR [esp+12], OFFSET FLAT:_savedstatus_modified_cb
	mov	DWORD PTR [esp+8], edi
	mov	DWORD PTR [esp+4], OFFSET FLAT:LC46
	mov	DWORD PTR [esp], eax
	call	_purple_signal_connect
LVL1217:
	.loc 1 1824 0
	mov	DWORD PTR [esp+4], 80
	mov	DWORD PTR [esp], edi
	call	_g_type_check_instance_cast
LVL1218:
	mov	DWORD PTR [esp+20], 0
	mov	DWORD PTR [esp+16], 0
	mov	DWORD PTR [esp+12], 0
	mov	DWORD PTR [esp+8], OFFSET FLAT:_purple_signals_disconnect_by_handle
	mov	DWORD PTR [esp+4], OFFSET FLAT:LC8
	mov	DWORD PTR [esp], eax
	call	_g_signal_connect_data
LVL1219:
	.loc 1 1828 0
	mov	eax, edi
	mov	edx, DWORD PTR [esp+92]
	xor	edx, DWORD PTR ___stack_chk_guard
	jne	L544
LVL1220:
	add	esp, 108
LCFI334:
	.cfi_remember_state
	.cfi_def_cfa_offset 20
	pop	ebx
LCFI335:
	.cfi_restore 3
	.cfi_def_cfa_offset 16
	pop	esi
LCFI336:
	.cfi_restore 6
	.cfi_def_cfa_offset 12
LVL1221:
	pop	edi
LCFI337:
	.cfi_restore 7
	.cfi_def_cfa_offset 8
	pop	ebp
LCFI338:
	.cfi_restore 5
	.cfi_def_cfa_offset 4
LVL1222:
	ret
LVL1223:
	.p2align 2,,3
L543:
LCFI339:
	.cfi_restore_state
LBB127:
	.loc 1 1789 0
	mov	ecx, DWORD PTR [esp+48]
	mov	DWORD PTR [esp+52], ecx
	jmp	L530
LVL1224:
L544:
LBE127:
	.loc 1 1828 0
	call	___stack_chk_fail
LVL1225:
	.cfi_endproc
LFE143:
	.p2align 2,,3
	.globl	_pidgin_status_get_handle
	.def	_pidgin_status_get_handle;	.scl	2;	.type	32;	.endef
_pidgin_status_get_handle:
LFB144:
	.loc 1 1837 0
	.cfi_startproc
	sub	esp, 28
LCFI340:
	.cfi_def_cfa_offset 32
	.loc 1 1837 0
	mov	eax, DWORD PTR ___stack_chk_guard
	mov	DWORD PTR [esp+12], eax
	xor	eax, eax
	.loc 1 1841 0
	mov	eax, OFFSET FLAT:_handle.78644
	mov	edx, DWORD PTR [esp+12]
	xor	edx, DWORD PTR ___stack_chk_guard
	jne	L548
	add	esp, 28
LCFI341:
	.cfi_remember_state
	.cfi_def_cfa_offset 4
	ret
L548:
LCFI342:
	.cfi_restore_state
	call	___stack_chk_fail
LVL1226:
	.cfi_endproc
LFE144:
	.section .rdata,"dr"
LC63:
	.ascii "/pidgin/status\0"
LC64:
	.ascii "/pidgin/status/dialog\0"
	.text
	.p2align 2,,3
	.globl	_pidgin_status_init
	.def	_pidgin_status_init;	.scl	2;	.type	32;	.endef
_pidgin_status_init:
LFB145:
	.loc 1 1845 0
	.cfi_startproc
	sub	esp, 44
LCFI343:
	.cfi_def_cfa_offset 48
	.loc 1 1845 0
	mov	eax, DWORD PTR ___stack_chk_guard
	mov	DWORD PTR [esp+28], eax
	xor	eax, eax
	.loc 1 1846 0
	mov	DWORD PTR [esp], OFFSET FLAT:LC63
	call	_purple_prefs_add_none
LVL1227:
	.loc 1 1847 0
	mov	DWORD PTR [esp], OFFSET FLAT:LC64
	call	_purple_prefs_add_none
LVL1228:
	.loc 1 1848 0
	mov	DWORD PTR [esp+4], 550
	mov	DWORD PTR [esp], OFFSET FLAT:LC25
	call	_purple_prefs_add_int
LVL1229:
	.loc 1 1849 0
	mov	DWORD PTR [esp+4], 250
	mov	DWORD PTR [esp], OFFSET FLAT:LC26
	call	_purple_prefs_add_int
LVL1230:
	.loc 1 1850 0
	mov	eax, DWORD PTR [esp+28]
	xor	eax, DWORD PTR ___stack_chk_guard
	jne	L552
	add	esp, 44
LCFI344:
	.cfi_remember_state
	.cfi_def_cfa_offset 4
	ret
L552:
LCFI345:
	.cfi_restore_state
	call	___stack_chk_fail
LVL1231:
	.cfi_endproc
LFE145:
	.p2align 2,,3
	.globl	_pidgin_status_uninit
	.def	_pidgin_status_uninit;	.scl	2;	.type	32;	.endef
_pidgin_status_uninit:
LFB146:
	.loc 1 1854 0
	.cfi_startproc
	sub	esp, 28
LCFI346:
	.cfi_def_cfa_offset 32
	.loc 1 1854 0
	mov	eax, DWORD PTR ___stack_chk_guard
	mov	DWORD PTR [esp+12], eax
	xor	eax, eax
	.loc 1 1855 0
	mov	eax, DWORD PTR [esp+12]
	xor	eax, DWORD PTR ___stack_chk_guard
	jne	L557
	.loc 1 1856 0
	add	esp, 28
LCFI347:
	.cfi_remember_state
	.cfi_def_cfa_offset 4
	.loc 1 1855 0
	jmp	_pidgin_status_window_hide
LVL1232:
L557:
LCFI348:
	.cfi_restore_state
	call	___stack_chk_fail
LVL1233:
	.cfi_endproc
LFE146:
.lcomm _status_window,4,4
	.section .rdata,"dr"
___PRETTY_FUNCTION__.78238:
	.ascii "status_window_delete_cb\0"
___PRETTY_FUNCTION__.78463:
	.ascii "pidgin_status_editor_show\0"
___PRETTY_FUNCTION__.78538:
	.ascii "edit_substatus\0"
	.align 32
___PRETTY_FUNCTION__.78483:
	.ascii "status_editor_find_account_in_treemodel\0"
.lcomm _handle.78644,4,4
	.text
Letext0:
	.file 2 "c:/workspace/pidgin-devel/win32-dev/mingw-4.7.2/bin/../lib/gcc/mingw32/4.7.2/../../../../include/stdio.h"
	.file 3 "c:/workspace/pidgin-devel/win32-dev/mingw-4.7.2/bin/../lib/gcc/mingw32/4.7.2/include/stddef.h"
	.file 4 "c:/workspace/pidgin-devel/win32-dev/mingw-4.7.2/bin/../lib/gcc/mingw32/4.7.2/../../../../include/sys/types.h"
	.file 5 "c:/workspace/pidgin-devel/win32-dev/mingw-4.7.2/bin/../lib/gcc/mingw32/4.7.2/../../../../include/time.h"
	.file 6 "../../win32-dev/gtk_2_0-2.14/lib/glib-2.0/include/glibconfig.h"
	.file 7 "../../win32-dev/gtk_2_0-2.14/include/glib-2.0/glib/gtypes.h"
	.file 8 "../../win32-dev/gtk_2_0-2.14/include/glib-2.0/glib/garray.h"
	.file 9 "../../win32-dev/gtk_2_0-2.14/include/glib-2.0/glib/glist.h"
	.file 10 "../../win32-dev/gtk_2_0-2.14/include/glib-2.0/glib/gdataset.h"
	.file 11 "../../win32-dev/gtk_2_0-2.14/include/glib-2.0/glib/ghash.h"
	.file 12 "../../win32-dev/gtk_2_0-2.14/include/glib-2.0/glib/gslist.h"
	.file 13 "../../win32-dev/gtk_2_0-2.14/include/glib-2.0/glib/gunicode.h"
	.file 14 "../../win32-dev/gtk_2_0-2.14/include/glib-2.0/glib/gstring.h"
	.file 15 "../../win32-dev/gtk_2_0-2.14/include/glib-2.0/glib/gqueue.h"
	.file 16 "../../win32-dev/gtk_2_0-2.14/include/glib-2.0/glib/gtimer.h"
	.file 17 "../../win32-dev/gtk_2_0-2.14/include/glib-2.0/gobject/gtype.h"
	.file 18 "../../win32-dev/gtk_2_0-2.14/include/glib-2.0/gobject/gvalue.h"
	.file 19 "../../win32-dev/gtk_2_0-2.14/include/glib-2.0/glib/gscanner.h"
	.file 20 "../../win32-dev/gtk_2_0-2.14/include/glib-2.0/gobject/gparam.h"
	.file 21 "../../win32-dev/gtk_2_0-2.14/include/glib-2.0/gobject/gclosure.h"
	.file 22 "../../win32-dev/gtk_2_0-2.14/include/glib-2.0/gobject/gsignal.h"
	.file 23 "../../win32-dev/gtk_2_0-2.14/include/glib-2.0/gobject/gobject.h"
	.file 24 "../libpurple/account.h"
	.file 25 "../libpurple/connection.h"
	.file 26 "../libpurple/signals.h"
	.file 27 "../libpurple/plugin.h"
	.file 28 "../libpurple/pluginpref.h"
	.file 29 "../libpurple/status.h"
	.file 30 "../libpurple/buddyicon.h"
	.file 31 "../libpurple/conversation.h"
	.file 32 "../libpurple/log.h"
	.file 33 "../libpurple/media/../notify.h"
	.file 34 "../libpurple/proxy.h"
	.file 35 "c:/workspace/pidgin-devel/win32-dev/mingw-4.7.2/bin/../lib/gcc/mingw32/4.7.2/../../../../include/wtypes.h"
	.file 36 "../libpurple/privacy.h"
	.file 37 "../libpurple/savedstatuses.h"
	.file 38 "../../win32-dev/gtk_2_0-2.14/include/cairo/cairo.h"
	.file 39 "../../win32-dev/gtk_2_0-2.14/include/pango-1.0/pango/pango-language.h"
	.file 40 "../../win32-dev/gtk_2_0-2.14/include/pango-1.0/pango/pango-font.h"
	.file 41 "../../win32-dev/gtk_2_0-2.14/include/pango-1.0/pango/pango-tabs.h"
	.file 42 "../../win32-dev/gtk_2_0-2.14/include/pango-1.0/pango/pango-layout.h"
	.file 43 "../../win32-dev/gtk_2_0-2.14/include/gtk-2.0/gdk/gdktypes.h"
	.file 44 "../../win32-dev/gtk_2_0-2.14/include/gtk-2.0/gdk/gdkcolor.h"
	.file 45 "../../win32-dev/gtk_2_0-2.14/include/gtk-2.0/gdk/gdkcursor.h"
	.file 46 "../../win32-dev/gtk_2_0-2.14/include/gtk-2.0/gdk/gdkfont.h"
	.file 47 "../../win32-dev/gtk_2_0-2.14/include/gtk-2.0/gdk/gdkgc.h"
	.file 48 "../../win32-dev/gtk_2_0-2.14/include/gtk-2.0/gdk/gdkvisual.h"
	.file 49 "../../win32-dev/gtk_2_0-2.14/include/gtk-2.0/gdk/gdkdrawable.h"
	.file 50 "../../win32-dev/gtk_2_0-2.14/include/gtk-2.0/gdk/gdkscreen.h"
	.file 51 "../../win32-dev/gtk_2_0-2.14/include/gtk-2.0/gdk/gdkdnd.h"
	.file 52 "../../win32-dev/gtk_2_0-2.14/include/gtk-2.0/gdk/gdkinput.h"
	.file 53 "../../win32-dev/gtk_2_0-2.14/include/gtk-2.0/gdk/gdkevents.h"
	.file 54 "../../win32-dev/gtk_2_0-2.14/include/gtk-2.0/gdk-pixbuf/gdk-pixbuf-core.h"
	.file 55 "../../win32-dev/gtk_2_0-2.14/include/gtk-2.0/gdk-pixbuf/gdk-pixbuf-animation.h"
	.file 56 "../../win32-dev/gtk_2_0-2.14/include/gtk-2.0/gdk-pixbuf/gdk-pixbuf-loader.h"
	.file 57 "../../win32-dev/gtk_2_0-2.14/include/gtk-2.0/gtk/gtkenums.h"
	.file 58 "../../win32-dev/gtk_2_0-2.14/include/gtk-2.0/gtk/gtktypeutils.h"
	.file 59 "../../win32-dev/gtk_2_0-2.14/include/gtk-2.0/gtk/gtkobject.h"
	.file 60 "../../win32-dev/gtk_2_0-2.14/include/gtk-2.0/gtk/gtkadjustment.h"
	.file 61 "../../win32-dev/gtk_2_0-2.14/include/gtk-2.0/gtk/gtkstyle.h"
	.file 62 "../../win32-dev/gtk_2_0-2.14/include/gtk-2.0/gtk/gtkrc.h"
	.file 63 "../../win32-dev/gtk_2_0-2.14/include/gtk-2.0/gtk/gtkwidget.h"
	.file 64 "../../win32-dev/gtk_2_0-2.14/include/gtk-2.0/gtk/gtkwindow.h"
	.file 65 "../../win32-dev/gtk_2_0-2.14/include/gtk-2.0/gtk/gtkcontainer.h"
	.file 66 "../../win32-dev/gtk_2_0-2.14/include/gtk-2.0/gtk/gtkbin.h"
	.file 67 "../../win32-dev/gtk_2_0-2.14/include/gtk-2.0/gtk/gtkdialog.h"
	.file 68 "../../win32-dev/gtk_2_0-2.14/include/gtk-2.0/gtk/gtkmisc.h"
	.file 69 "../../win32-dev/gtk_2_0-2.14/include/gtk-2.0/gtk/gtkbox.h"
	.file 70 "../../win32-dev/gtk_2_0-2.14/include/gtk-2.0/gtk/gtkbbox.h"
	.file 71 "../../win32-dev/gtk_2_0-2.14/include/gtk-2.0/gtk/gtkbutton.h"
	.file 72 "../../win32-dev/gtk_2_0-2.14/include/gtk-2.0/gtk/gtkcelleditable.h"
	.file 73 "../../win32-dev/gtk_2_0-2.14/include/gtk-2.0/gtk/gtkcellrenderer.h"
	.file 74 "../../win32-dev/gtk_2_0-2.14/include/gtk-2.0/gtk/gtktreemodel.h"
	.file 75 "../../win32-dev/gtk_2_0-2.14/include/gtk-2.0/gtk/gtktreesortable.h"
	.file 76 "../../win32-dev/gtk_2_0-2.14/include/gtk-2.0/gtk/gtktreeviewcolumn.h"
	.file 77 "../../win32-dev/gtk_2_0-2.14/include/gtk-2.0/gtk/gtkcelllayout.h"
	.file 78 "../../win32-dev/gtk_2_0-2.14/include/gtk-2.0/gtk/gtkcellrenderertoggle.h"
	.file 79 "../../win32-dev/gtk_2_0-2.14/include/gtk-2.0/gtk/gtktexttag.h"
	.file 80 "../../win32-dev/gtk_2_0-2.14/include/gtk-2.0/gtk/gtktexttagtable.h"
	.file 81 "../../win32-dev/gtk_2_0-2.14/include/gtk-2.0/gtk/gtktextiter.h"
	.file 82 "../../win32-dev/gtk_2_0-2.14/include/gtk-2.0/gtk/gtktextbuffer.h"
	.file 83 "../../win32-dev/gtk_2_0-2.14/include/gtk-2.0/gtk/gtkimcontext.h"
	.file 84 "../../win32-dev/gtk_2_0-2.14/include/gtk-2.0/gtk/gtkliststore.h"
	.file 85 "../../win32-dev/gtk_2_0-2.14/include/gtk-2.0/gtk/gtkentry.h"
	.file 86 "../../win32-dev/gtk_2_0-2.14/include/gtk-2.0/gtk/gtktreeview.h"
	.file 87 "../../win32-dev/gtk_2_0-2.14/include/gtk-2.0/gtk/gtktreeselection.h"
	.file 88 "../../win32-dev/gtk_2_0-2.14/include/gtk-2.0/gtk/gtkcombobox.h"
	.file 89 "../../win32-dev/gtk_2_0-2.14/include/gtk-2.0/gtk/gtkexpander.h"
	.file 90 "../../win32-dev/gtk_2_0-2.14/include/gtk-2.0/gtk/gtkhbox.h"
	.file 91 "../../win32-dev/gtk_2_0-2.14/include/gtk-2.0/gtk/gtktooltips.h"
	.file 92 "../../win32-dev/gtk_2_0-2.14/include/gtk-2.0/gtk/gtksizegroup.h"
	.file 93 "../../win32-dev/gtk_2_0-2.14/include/gtk-2.0/gtk/gtktextmark.h"
	.file 94 "../../win32-dev/gtk_2_0-2.14/include/gtk-2.0/gtk/gtktextview.h"
	.file 95 "gtksourceundomanager.h"
	.file 96 "gtkimhtml.h"
	.file 97 "gtkimhtmltoolbar.h"
	.file 98 "gtkutils.h"
	.file 99 "c:/workspace/pidgin-devel/win32-dev/mingw-4.7.2/bin/../lib/gcc/mingw32/4.7.2/../../../../include/ctype.h"
	.file 100 "../../win32-dev/gtk_2_0-2.14/include/glib-2.0/glib/gmessages.h"
	.file 101 "c:/workspace/pidgin-devel/win32-dev/mingw-4.7.2/bin/../lib/gcc/mingw32/4.7.2/../../../../include/string.h"
	.file 102 "../../win32-dev/gtk_2_0-2.14/include/glib-2.0/glib/gmem.h"
	.file 103 "../../win32-dev/gtk_2_0-2.14/include/gtk-2.0/gtk/gtkcellrendererpixbuf.h"
	.file 104 "../../win32-dev/gtk_2_0-2.14/include/gtk-2.0/gtk/gtkcellrenderertext.h"
	.file 105 "../../win32-dev/gtk_2_0-2.14/include/libintl.h"
	.file 106 "../../win32-dev/gtk_2_0-2.14/include/glib-2.0/glib/gstrfuncs.h"
	.file 107 "../../win32-dev/gtk_2_0-2.14/include/gtk-2.0/gtk/gtklabel.h"
	.file 108 "../../win32-dev/gtk_2_0-2.14/include/gtk-2.0/gtk/gtkiconfactory.h"
	.file 109 "../libpurple/media/../util.h"
	.file 110 "../libpurple/request.h"
	.file 111 "../libpurple/prefs.h"
	.file 112 "../../win32-dev/gtk_2_0-2.14/include/gtk-2.0/gtk/gtkvbox.h"