	.file	"hmac.c"
	.intel_syntax noprefix
	.text
Ltext0:
	.p2align 2,,3
	.def	_hmac_get_block_size;	.scl	3;	.type	32;	.endef
_hmac_get_block_size:
LFB37:
	.file 1 "ciphers/hmac.c"
	.loc 1 187 0
	.cfi_startproc
LVL0:
	sub	esp, 44
LCFI0:
	.cfi_def_cfa_offset 48
	.loc 1 187 0
	mov	eax, DWORD PTR ___stack_chk_guard
	mov	DWORD PTR [esp+28], eax
	xor	eax, eax
	.loc 1 188 0
	mov	eax, DWORD PTR [esp+48]
	mov	DWORD PTR [esp], eax
	call	_purple_cipher_context_get_data
LVL1:
	.loc 1 190 0
	mov	eax, DWORD PTR [eax+8]
LVL2:
	.loc 1 191 0
	mov	edx, DWORD PTR [esp+28]
	xor	edx, DWORD PTR ___stack_chk_guard
	jne	L5
	add	esp, 44
LCFI1:
	.cfi_remember_state
	.cfi_def_cfa_offset 4
	ret
L5:
LCFI2:
	.cfi_restore_state
	call	___stack_chk_fail
LVL3:
	.cfi_endproc
LFE37:
	.p2align 2,,3
	.def	_hmac_uninit;	.scl	3;	.type	32;	.endef
_hmac_uninit:
LFB34:
	.loc 1 128 0
	.cfi_startproc
LVL4:
	push	ebx
LCFI3:
	.cfi_def_cfa_offset 8
	.cfi_offset 3, -8
	sub	esp, 40
LCFI4:
	.cfi_def_cfa_offset 48
	mov	ebx, DWORD PTR [esp+48]
	.loc 1 128 0
	mov	eax, DWORD PTR ___stack_chk_guard
	mov	DWORD PTR [esp+28], eax
	xor	eax, eax
	.loc 1 131 0
	mov	DWORD PTR [esp+4], 0
	mov	DWORD PTR [esp], ebx
	call	_purple_cipher_context_reset
LVL5:
	.loc 1 133 0
	mov	DWORD PTR [esp], ebx
	call	_purple_cipher_context_get_data
LVL6:
	.loc 1 135 0
	mov	edx, DWORD PTR [esp+28]
	xor	edx, DWORD PTR ___stack_chk_guard
	jne	L10
	mov	DWORD PTR [esp+48], eax
	.loc 1 136 0
	add	esp, 40
LCFI5:
	.cfi_remember_state
	.cfi_def_cfa_offset 8
	pop	ebx
LCFI6:
	.cfi_restore 3
	.cfi_def_cfa_offset 4
	.loc 1 135 0
	jmp	_g_free
LVL7:
L10:
LCFI7:
	.cfi_restore_state
	call	___stack_chk_fail
LVL8:
	.cfi_endproc
LFE34:
	.section .rdata,"dr"
LC0:
	.ascii "hash != NULL\0"
	.text
	.p2align 2,,3
	.def	_hmac_digest;	.scl	3;	.type	32;	.endef
_hmac_digest:
LFB33:
	.loc 1 102 0
	.cfi_startproc
LVL9:
	push	ebp
LCFI8:
	.cfi_def_cfa_offset 8
	.cfi_offset 5, -8
	push	edi
LCFI9:
	.cfi_def_cfa_offset 12
	.cfi_offset 7, -12
	push	esi
LCFI10:
	.cfi_def_cfa_offset 16
	.cfi_offset 6, -16
	push	ebx
LCFI11:
	.cfi_def_cfa_offset 20
	.cfi_offset 3, -20
	sub	esp, 60
LCFI12:
	.cfi_def_cfa_offset 80
	mov	edx, DWORD PTR [esp+84]
	mov	DWORD PTR [esp+24], edx
	mov	edx, DWORD PTR [esp+88]
	mov	DWORD PTR [esp+28], edx
	mov	ebp, DWORD PTR [esp+92]
	.loc 1 102 0
	mov	eax, DWORD PTR ___stack_chk_guard
	mov	DWORD PTR [esp+44], eax
	xor	eax, eax
	.loc 1 103 0
	mov	eax, DWORD PTR [esp+80]
	mov	DWORD PTR [esp], eax
	call	_purple_cipher_context_get_data
LVL10:
	mov	edi, eax
LVL11:
	.loc 1 104 0
	mov	ebx, DWORD PTR [eax]
LVL12:
LBB3:
	.loc 1 109 0
	test	ebx, ebx
	je	L20
LVL13:
LBE3:
	.loc 1 111 0
	mov	DWORD PTR [esp], 100
	call	_g_malloc
LVL14:
	mov	esi, eax
LVL15:
	.loc 1 112 0
	lea	eax, [esp+40]
LVL16:
	mov	DWORD PTR [esp+12], eax
	mov	DWORD PTR [esp+8], esi
	mov	DWORD PTR [esp+4], 100
	mov	DWORD PTR [esp], ebx
	call	_purple_cipher_context_digest
LVL17:
	.loc 1 114 0
	mov	DWORD PTR [esp+4], 0
	mov	DWORD PTR [esp], ebx
	mov	DWORD PTR [esp+20], eax
	call	_purple_cipher_context_reset
LVL18:
	.loc 1 116 0
	mov	edx, DWORD PTR [edi+8]
	mov	DWORD PTR [esp+8], edx
	mov	edx, DWORD PTR [edi+12]
	mov	DWORD PTR [esp+4], edx
	mov	DWORD PTR [esp], ebx
	call	_purple_cipher_context_append
LVL19:
	.loc 1 117 0
	mov	edx, DWORD PTR [esp+40]
	mov	DWORD PTR [esp+8], edx
	mov	DWORD PTR [esp+4], esi
	mov	DWORD PTR [esp], ebx
	call	_purple_cipher_context_append
LVL20:
	.loc 1 119 0
	mov	DWORD PTR [esp], esi
	call	_g_free
LVL21:
	.loc 1 121 0
	mov	eax, DWORD PTR [esp+20]
	test	eax, eax
	jne	L21
LVL22:
L14:
	.loc 1 124 0
	mov	edx, DWORD PTR [esp+44]
	xor	edx, DWORD PTR ___stack_chk_guard
	jne	L22
	add	esp, 60
LCFI13:
	.cfi_remember_state
	.cfi_def_cfa_offset 20
	pop	ebx
LCFI14:
	.cfi_restore 3
	.cfi_def_cfa_offset 16
LVL23:
	pop	esi
LCFI15:
	.cfi_restore 6
	.cfi_def_cfa_offset 12
	pop	edi
LCFI16:
	.cfi_restore 7
	.cfi_def_cfa_offset 8
LVL24:
	pop	ebp
LCFI17:
	.cfi_restore 5
	.cfi_def_cfa_offset 4
	ret
LVL25:
	.p2align 2,,3
L21:
LCFI18:
	.cfi_restore_state
	.loc 1 121 0 discriminator 1
	mov	DWORD PTR [esp+12], ebp
	mov	edx, DWORD PTR [esp+28]
	mov	DWORD PTR [esp+8], edx
	mov	edx, DWORD PTR [esp+24]
	mov	DWORD PTR [esp+4], edx
	mov	DWORD PTR [esp], ebx
	call	_purple_cipher_context_digest
LVL26:
	test	eax, eax
	.loc 1 109 0 discriminator 1
	setne	al
	movzx	eax, al
	jmp	L14
LVL27:
	.p2align 2,,3
L20:
	.loc 1 109 0 is_stmt 0
	mov	DWORD PTR [esp+8], OFFSET FLAT:LC0
	mov	DWORD PTR [esp+4], OFFSET FLAT:___PRETTY_FUNCTION__.14864
	mov	DWORD PTR [esp], 0
	call	_g_return_if_fail_warning
LVL28:
	xor	eax, eax
	jmp	L14
LVL29:
L22:
	.loc 1 124 0 is_stmt 1
	call	___stack_chk_fail
LVL30:
	.cfi_endproc
LFE33:
	.section .rdata,"dr"
LC1:
	.ascii "hctx->hash != NULL\0"
	.text
	.p2align 2,,3
	.def	_hmac_set_key_with_len;	.scl	3;	.type	32;	.endef
_hmac_set_key_with_len:
LFB35:
	.loc 1 140 0
	.cfi_startproc
LVL31:
	push	ebp
LCFI19:
	.cfi_def_cfa_offset 8
	.cfi_offset 5, -8
	push	edi
LCFI20:
	.cfi_def_cfa_offset 12
	.cfi_offset 7, -12
	push	esi
LCFI21:
	.cfi_def_cfa_offset 16
	.cfi_offset 6, -16
	push	ebx
LCFI22:
	.cfi_def_cfa_offset 20
	.cfi_offset 3, -20
	sub	esp, 60
LCFI23:
	.cfi_def_cfa_offset 80
	mov	ebx, DWORD PTR [esp+84]
	mov	eax, DWORD PTR [esp+88]
	mov	DWORD PTR [esp+28], eax
	.loc 1 140 0
	mov	eax, DWORD PTR ___stack_chk_guard
	mov	DWORD PTR [esp+44], eax
	xor	eax, eax
	.loc 1 141 0
	mov	eax, DWORD PTR [esp+80]
	mov	DWORD PTR [esp], eax
	call	_purple_cipher_context_get_data
LVL32:
	mov	esi, eax
LVL33:
LBB4:
	.loc 1 146 0
	mov	ecx, DWORD PTR [eax]
	test	ecx, ecx
	je	L40
LVL34:
LBE4:
	.loc 1 148 0
	mov	eax, DWORD PTR [eax+12]
LVL35:
	mov	DWORD PTR [esp], eax
	call	_g_free
LVL36:
	.loc 1 150 0
	mov	eax, DWORD PTR [esi+8]
	mov	DWORD PTR [esp+24], eax
LVL37:
	.loc 1 151 0
	mov	DWORD PTR [esp], eax
	call	_g_malloc
LVL38:
	mov	ebp, eax
LVL39:
	.loc 1 152 0
	mov	eax, DWORD PTR [esp+24]
LVL40:
	mov	DWORD PTR [esp], eax
	call	_g_malloc
LVL41:
	mov	DWORD PTR [esi+12], eax
	.loc 1 154 0
	mov	eax, DWORD PTR [esp+28]
	cmp	DWORD PTR [esp+24], eax
	jb	L31
	.loc 1 160 0
	mov	DWORD PTR [esp+4], eax
	mov	DWORD PTR [esp], ebx
	call	_g_memdup
LVL42:
	mov	ebx, eax
LVL43:
	.loc 1 162 0
	mov	eax, DWORD PTR [esp+24]
LVL44:
	cmp	eax, DWORD PTR [esp+28]
	ja	L41
L27:
LVL45:
	.loc 1 167 0
	xor	eax, eax
	mov	edx, DWORD PTR [esp+24]
	test	edx, edx
	jle	L30
LVL46:
	.p2align 2,,3
L35:
	.loc 1 168 0 discriminator 2
	mov	dl, BYTE PTR [ebx+eax]
	xor	edx, 54
	mov	BYTE PTR [ebp+0+eax], dl
	.loc 1 169 0 discriminator 2
	mov	ecx, DWORD PTR [esi+12]
	mov	dl, BYTE PTR [ebx+eax]
	xor	edx, 92
	mov	BYTE PTR [ecx+eax], dl
	.loc 1 167 0 discriminator 2
	inc	eax
LVL47:
	cmp	eax, DWORD PTR [esp+24]
	jne	L35
LVL48:
L30:
	.loc 1 172 0
	mov	DWORD PTR [esp], ebx
	call	_g_free
LVL49:
	.loc 1 174 0
	mov	DWORD PTR [esp+4], 0
	mov	eax, DWORD PTR [esi]
	mov	DWORD PTR [esp], eax
	call	_purple_cipher_context_reset
LVL50:
	.loc 1 175 0
	mov	eax, DWORD PTR [esp+24]
	mov	DWORD PTR [esp+8], eax
	mov	DWORD PTR [esp+4], ebp
	mov	eax, DWORD PTR [esi]
	mov	DWORD PTR [esp], eax
	call	_purple_cipher_context_append
LVL51:
	.loc 1 176 0
	mov	DWORD PTR [esp], ebp
	call	_g_free
LVL52:
L23:
	.loc 1 177 0
	mov	eax, DWORD PTR [esp+44]
	xor	eax, DWORD PTR ___stack_chk_guard
	jne	L42
	add	esp, 60
LCFI24:
	.cfi_remember_state
	.cfi_def_cfa_offset 20
	pop	ebx
LCFI25:
	.cfi_restore 3
	.cfi_def_cfa_offset 16
	pop	esi
LCFI26:
	.cfi_restore 6
	.cfi_def_cfa_offset 12
LVL53:
	pop	edi
LCFI27:
	.cfi_restore 7
	.cfi_def_cfa_offset 8
	pop	ebp
LCFI28:
	.cfi_restore 5
	.cfi_def_cfa_offset 4
	ret
LVL54:
	.p2align 2,,3
L31:
LCFI29:
	.cfi_restore_state
	.loc 1 155 0
	mov	DWORD PTR [esp+4], 0
	mov	eax, DWORD PTR [esi]
	mov	DWORD PTR [esp], eax
	call	_purple_cipher_context_reset
LVL55:
	.loc 1 156 0
	mov	eax, DWORD PTR [esp+28]
LVL56:
	mov	DWORD PTR [esp+8], eax
	mov	DWORD PTR [esp+4], ebx
	mov	eax, DWORD PTR [esi]
	mov	DWORD PTR [esp], eax
	call	_purple_cipher_context_append
LVL57:
	.loc 1 157 0
	mov	DWORD PTR [esp], 100
	call	_g_malloc
LVL58:
	mov	ebx, eax
LVL59:
	.loc 1 158 0
	lea	eax, [esp+28]
LVL60:
	mov	DWORD PTR [esp+12], eax
	mov	DWORD PTR [esp+8], ebx
	mov	DWORD PTR [esp+4], 100
	mov	eax, DWORD PTR [esi]
	mov	DWORD PTR [esp], eax
	call	_purple_cipher_context_digest
LVL61:
	.loc 1 162 0
	mov	eax, DWORD PTR [esp+24]
	cmp	eax, DWORD PTR [esp+28]
	jbe	L27
L41:
	.loc 1 163 0
	mov	DWORD PTR [esp+4], eax
	mov	DWORD PTR [esp], ebx
	call	_g_realloc
LVL62:
	mov	ebx, eax
LVL63:
	.loc 1 164 0
	mov	edx, DWORD PTR [esp+28]
	mov	ecx, DWORD PTR [esp+24]
	sub	ecx, edx
	add	edx, eax
	xor	eax, eax
LVL64:
	mov	edi, edx
	rep stosb
	jmp	L27
LVL65:
	.p2align 2,,3
L40:
	.loc 1 146 0
	mov	DWORD PTR [esp+8], OFFSET FLAT:LC1
	mov	DWORD PTR [esp+4], OFFSET FLAT:___PRETTY_FUNCTION__.14881
	mov	DWORD PTR [esp], 0
	call	_g_return_if_fail_warning
LVL66:
	jmp	L23
LVL67:
L42:
	.loc 1 177 0
	call	___stack_chk_fail
LVL68:
	.cfi_endproc
LFE35:
	.p2align 2,,3
	.def	_hmac_set_key;	.scl	3;	.type	32;	.endef
_hmac_set_key:
LFB36:
	.loc 1 181 0
	.cfi_startproc
LVL69:
	push	edi
LCFI30:
	.cfi_def_cfa_offset 8
	.cfi_offset 7, -8
	sub	esp, 40
LCFI31:
	.cfi_def_cfa_offset 48
	mov	edx, DWORD PTR [esp+52]
	.loc 1 181 0
	mov	eax, DWORD PTR ___stack_chk_guard
	mov	DWORD PTR [esp+28], eax
	xor	eax, eax
	.loc 1 182 0
	mov	ecx, -1
	mov	edi, edx
	repne scasb
LVL70:
	not	ecx
	dec	ecx
	mov	DWORD PTR [esp+8], ecx
	mov	DWORD PTR [esp+4], edx
	mov	eax, DWORD PTR [esp+48]
	mov	DWORD PTR [esp], eax
	call	_hmac_set_key_with_len
LVL71:
	.loc 1 183 0
	mov	eax, DWORD PTR [esp+28]
	xor	eax, DWORD PTR ___stack_chk_guard
	jne	L46
	add	esp, 40
LCFI32:
	.cfi_remember_state
	.cfi_def_cfa_offset 8
	pop	edi
LCFI33:
	.cfi_restore 7
	.cfi_def_cfa_offset 4
	ret
L46:
LCFI34:
	.cfi_restore_state
	call	___stack_chk_fail
LVL72:
	.cfi_endproc
LFE36:
	.p2align 2,,3
	.def	_hmac_reset;	.scl	3;	.type	32;	.endef
_hmac_reset:
LFB29:
	.loc 1 44 0
	.cfi_startproc
LVL73:
	push	ebx
LCFI35:
	.cfi_def_cfa_offset 8
	.cfi_offset 3, -8
	sub	esp, 40
LCFI36:
	.cfi_def_cfa_offset 48
	.loc 1 44 0
	mov	eax, DWORD PTR ___stack_chk_guard
	mov	DWORD PTR [esp+28], eax
	xor	eax, eax
	.loc 1 47 0
	mov	eax, DWORD PTR [esp+48]
	mov	DWORD PTR [esp], eax
	call	_purple_cipher_context_get_data
LVL74:
	mov	ebx, eax
LVL75:
	.loc 1 49 0
	mov	eax, DWORD PTR [eax+4]
LVL76:
	mov	DWORD PTR [esp], eax
	call	_g_free
LVL77:
	.loc 1 50 0
	mov	DWORD PTR [ebx+4], 0
	.loc 1 51 0
	mov	eax, DWORD PTR [ebx]
	test	eax, eax
	je	L48
	.loc 1 52 0
	mov	DWORD PTR [esp], eax
	call	_purple_cipher_context_destroy
LVL78:
L48:
	.loc 1 53 0
	mov	DWORD PTR [ebx], 0
	.loc 1 54 0
	mov	DWORD PTR [ebx+8], 0
	.loc 1 55 0
	mov	eax, DWORD PTR [ebx+12]
	mov	DWORD PTR [esp], eax
	call	_g_free
LVL79:
	.loc 1 56 0
	mov	DWORD PTR [ebx+12], 0
	.loc 1 57 0
	mov	eax, DWORD PTR [esp+28]
	xor	eax, DWORD PTR ___stack_chk_guard
	jne	L54
	add	esp, 40
LCFI37:
	.cfi_remember_state
	.cfi_def_cfa_offset 8
	pop	ebx
LCFI38:
	.cfi_restore 3
	.cfi_def_cfa_offset 4
LVL80:
	ret
LVL81:
L54:
LCFI39:
	.cfi_restore_state
	call	___stack_chk_fail
LVL82:
	.cfi_endproc
LFE29:
	.p2align 2,,3
	.def	_hmac_init;	.scl	3;	.type	32;	.endef
_hmac_init:
LFB28:
	.loc 1 35 0
	.cfi_startproc
LVL83:
	push	esi
LCFI40:
	.cfi_def_cfa_offset 8
	.cfi_offset 6, -8
	push	ebx
LCFI41:
	.cfi_def_cfa_offset 12
	.cfi_offset 3, -12
	sub	esp, 36
LCFI42:
	.cfi_def_cfa_offset 48
	mov	ebx, DWORD PTR [esp+48]
	mov	esi, DWORD PTR [esp+52]
	.loc 1 35 0
	mov	eax, DWORD PTR ___stack_chk_guard
	mov	DWORD PTR [esp+28], eax
	xor	eax, eax
	.loc 1 37 0
	mov	DWORD PTR [esp], 16
	call	_g_malloc0
LVL84:
	.loc 1 38 0
	mov	DWORD PTR [esp+4], eax
	mov	DWORD PTR [esp], ebx
	call	_purple_cipher_context_set_data
LVL85:
	.loc 1 39 0
	mov	eax, DWORD PTR [esp+28]
	xor	eax, DWORD PTR ___stack_chk_guard
	jne	L59
	mov	DWORD PTR [esp+52], esi
	mov	DWORD PTR [esp+48], ebx
	.loc 1 40 0
	add	esp, 36
LCFI43:
	.cfi_remember_state
	.cfi_def_cfa_offset 12
	pop	ebx
LCFI44:
	.cfi_restore 3
	.cfi_def_cfa_offset 8
	pop	esi
LCFI45:
	.cfi_restore 6
	.cfi_def_cfa_offset 4
	.loc 1 39 0
	jmp	_purple_cipher_context_reset
LVL86:
L59:
LCFI46:
	.cfi_restore_state
	call	___stack_chk_fail
LVL87:
	.cfi_endproc
LFE28:
	.section .rdata,"dr"
LC2:
	.ascii "hash\0"
	.text
	.p2align 2,,3
	.def	_hmac_get_opt;	.scl	3;	.type	32;	.endef
_hmac_get_opt:
LFB31:
	.loc 1 78 0
	.cfi_startproc
LVL88:
	push	esi
LCFI47:
	.cfi_def_cfa_offset 8
	.cfi_offset 6, -8
	push	ebx
LCFI48:
	.cfi_def_cfa_offset 12
	.cfi_offset 3, -12
	sub	esp, 36
LCFI49:
	.cfi_def_cfa_offset 48
	mov	ebx, DWORD PTR [esp+52]
	.loc 1 78 0
	mov	eax, DWORD PTR ___stack_chk_guard
	mov	DWORD PTR [esp+28], eax
	xor	eax, eax
	.loc 1 81 0
	mov	eax, DWORD PTR [esp+48]
	mov	DWORD PTR [esp], eax
	call	_purple_cipher_context_get_data
LVL89:
	mov	esi, eax
LVL90:
	.loc 1 83 0
	mov	DWORD PTR [esp+4], OFFSET FLAT:LC2
	mov	DWORD PTR [esp], ebx
	call	_purple_strequal
LVL91:
	test	eax, eax
	je	L63
	.loc 1 84 0
	mov	eax, DWORD PTR [esi+4]
L61:
	.loc 1 88 0
	mov	edx, DWORD PTR [esp+28]
	xor	edx, DWORD PTR ___stack_chk_guard
	jne	L65
	add	esp, 36
LCFI50:
	.cfi_remember_state
	.cfi_def_cfa_offset 12
	pop	ebx
LCFI51:
	.cfi_restore 3
	.cfi_def_cfa_offset 8
	pop	esi
LCFI52:
	.cfi_restore 6
	.cfi_def_cfa_offset 4
LVL92:
	ret
LVL93:
	.p2align 2,,3
L63:
LCFI53:
	.cfi_restore_state
	.loc 1 87 0
	xor	eax, eax
	jmp	L61
L65:
	.loc 1 88 0
	call	___stack_chk_fail
LVL94:
	.cfi_endproc
LFE31:
	.p2align 2,,3
	.def	_hmac_set_opt;	.scl	3;	.type	32;	.endef
_hmac_set_opt:
LFB30:
	.loc 1 61 0
	.cfi_startproc
LVL95:
	push	edi
LCFI54:
	.cfi_def_cfa_offset 8
	.cfi_offset 7, -8
	push	esi
LCFI55:
	.cfi_def_cfa_offset 12
	.cfi_offset 6, -12
	push	ebx
LCFI56:
	.cfi_def_cfa_offset 16
	.cfi_offset 3, -16
	sub	esp, 32
LCFI57:
	.cfi_def_cfa_offset 48
	mov	esi, DWORD PTR [esp+52]
	mov	edi, DWORD PTR [esp+56]
	.loc 1 61 0
	mov	eax, DWORD PTR ___stack_chk_guard
	mov	DWORD PTR [esp+28], eax
	xor	eax, eax
	.loc 1 64 0
	mov	eax, DWORD PTR [esp+48]
	mov	DWORD PTR [esp], eax
	call	_purple_cipher_context_get_data
LVL96:
	mov	ebx, eax
LVL97:
	.loc 1 66 0
	mov	DWORD PTR [esp+4], OFFSET FLAT:LC2
	mov	DWORD PTR [esp], esi
	call	_purple_strequal
LVL98:
	test	eax, eax
	jne	L77
L66:
	.loc 1 74 0
	mov	eax, DWORD PTR [esp+28]
	xor	eax, DWORD PTR ___stack_chk_guard
	jne	L78
	add	esp, 32
LCFI58:
	.cfi_remember_state
	.cfi_def_cfa_offset 16
	pop	ebx
LCFI59:
	.cfi_restore 3
	.cfi_def_cfa_offset 12
LVL99:
	pop	esi
LCFI60:
	.cfi_restore 6
	.cfi_def_cfa_offset 8
	pop	edi
LCFI61:
	.cfi_restore 7
	.cfi_def_cfa_offset 4
	ret
LVL100:
	.p2align 2,,3
L77:
LCFI62:
	.cfi_restore_state
	.loc 1 67 0
	mov	eax, DWORD PTR [ebx+4]
	mov	DWORD PTR [esp], eax
	call	_g_free
LVL101:
	.loc 1 68 0
	mov	eax, DWORD PTR [ebx]
	test	eax, eax
	je	L68
	.loc 1 69 0
	mov	DWORD PTR [esp], eax
	call	_purple_cipher_context_destroy
LVL102:
L68:
	.loc 1 70 0
	mov	DWORD PTR [esp], edi
	call	_g_strdup
LVL103:
	mov	DWORD PTR [ebx+4], eax
	.loc 1 71 0
	mov	DWORD PTR [esp+4], 0
	mov	DWORD PTR [esp], edi
	call	_purple_cipher_context_new_by_name
LVL104:
	mov	DWORD PTR [ebx], eax
	.loc 1 72 0
	mov	DWORD PTR [esp], eax
	call	_purple_cipher_context_get_block_size
LVL105:
	mov	DWORD PTR [ebx+8], eax
	jmp	L66
L78:
	.loc 1 74 0
	call	___stack_chk_fail
LVL106:
	.cfi_endproc
LFE30:
	.p2align 2,,3
	.def	_hmac_append;	.scl	3;	.type	32;	.endef
_hmac_append:
LFB32:
	.loc 1 92 0
	.cfi_startproc
LVL107:
	push	esi
LCFI63:
	.cfi_def_cfa_offset 8
	.cfi_offset 6, -8
	push	ebx
LCFI64:
	.cfi_def_cfa_offset 12
	.cfi_offset 3, -12
	sub	esp, 36
LCFI65:
	.cfi_def_cfa_offset 48
	mov	ebx, DWORD PTR [esp+52]
	mov	esi, DWORD PTR [esp+56]
	.loc 1 92 0
	mov	eax, DWORD PTR ___stack_chk_guard
	mov	DWORD PTR [esp+28], eax
	xor	eax, eax
	.loc 1 93 0
	mov	eax, DWORD PTR [esp+48]
	mov	DWORD PTR [esp], eax
	call	_purple_cipher_context_get_data
LVL108:
LBB9:
	.loc 1 95 0
	mov	eax, DWORD PTR [eax]
LVL109:
	test	eax, eax
	je	L87
LVL110:
LBE9:
	.loc 1 97 0
	mov	edx, DWORD PTR [esp+28]
	xor	edx, DWORD PTR ___stack_chk_guard
	jne	L86
	mov	DWORD PTR [esp+56], esi
	mov	DWORD PTR [esp+52], ebx
	mov	DWORD PTR [esp+48], eax
	.loc 1 98 0
	add	esp, 36
LCFI66:
	.cfi_remember_state
	.cfi_def_cfa_offset 12
	pop	ebx
LCFI67:
	.cfi_restore 3
	.cfi_def_cfa_offset 8
	pop	esi
LCFI68:
	.cfi_restore 6
	.cfi_def_cfa_offset 4
	.loc 1 97 0
	jmp	_purple_cipher_context_append
LVL111:
	.p2align 2,,3
L87:
LCFI69:
	.cfi_restore_state
LBB10:
LBB11:
	.loc 1 95 0
	mov	edx, DWORD PTR [esp+28]
	xor	edx, DWORD PTR ___stack_chk_guard
	jne	L86
	mov	DWORD PTR [esp+56], OFFSET FLAT:LC1
	mov	DWORD PTR [esp+52], OFFSET FLAT:___PRETTY_FUNCTION__.14850
	mov	DWORD PTR [esp+48], 0
LBE11:
LBE10:
	.loc 1 98 0
	add	esp, 36
LCFI70:
	.cfi_remember_state
	.cfi_def_cfa_offset 12
	pop	ebx
LCFI71:
	.cfi_restore 3
	.cfi_def_cfa_offset 8
	pop	esi
LCFI72:
	.cfi_restore 6
	.cfi_def_cfa_offset 4
LBB13:
LBB12:
	.loc 1 95 0
	jmp	_g_return_if_fail_warning
LVL112:
L86:
LCFI73:
	.cfi_restore_state
LBE12:
LBE13:
	.loc 1 97 0
	call	___stack_chk_fail
LVL113:
	.cfi_endproc
LFE32:
	.p2align 2,,3
	.globl	_purple_hmac_cipher_get_ops
	.def	_purple_hmac_cipher_get_ops;	.scl	2;	.type	32;	.endef
_purple_hmac_cipher_get_ops:
LFB38:
	.loc 1 215 0
	.cfi_startproc
	sub	esp, 28
LCFI74:
	.cfi_def_cfa_offset 32
	.loc 1 215 0
	mov	eax, DWORD PTR ___stack_chk_guard
	mov	DWORD PTR [esp+12], eax
	xor	eax, eax
	.loc 1 217 0
	mov	eax, OFFSET FLAT:_HMACOps
	mov	edx, DWORD PTR [esp+12]
	xor	edx, DWORD PTR ___stack_chk_guard
	jne	L91
	add	esp, 28
LCFI75:
	.cfi_remember_state
	.cfi_def_cfa_offset 4
	ret
L91:
LCFI76:
	.cfi_restore_state
	call	___stack_chk_fail
LVL114:
	.cfi_endproc
LFE38:
	.data
	.align 32
_HMACOps:
	.long	_hmac_set_opt
	.long	_hmac_get_opt
	.long	_hmac_init
	.long	_hmac_reset
	.long	_hmac_uninit
	.long	0
	.long	_hmac_append
	.long	_hmac_digest
	.long	0
	.long	0
	.long	0
	.long	0
	.long	_hmac_set_key
	.long	0
	.long	0
	.long	0
	.long	_hmac_get_block_size
	.long	_hmac_set_key_with_len
	.section .rdata,"dr"
___PRETTY_FUNCTION__.14881:
	.ascii "hmac_set_key_with_len\0"
___PRETTY_FUNCTION__.14864:
	.ascii "hmac_digest\0"
___PRETTY_FUNCTION__.14850:
	.ascii "hmac_append\0"
	.text
Letext0:
	.file 2 "c:/workspace/pidgin-devel/win32-dev/mingw-4.7.2/bin/../lib/gcc/mingw32/4.7.2/include/stddef.h"
	.file 3 "../../win32-dev/gtk_2_0-2.14/lib/glib-2.0/include/glibconfig.h"
	.file 4 "../../win32-dev/gtk_2_0-2.14/include/glib-2.0/glib/gtypes.h"
	.file 5 "../libpurple/cipher.h"
	.file 6 "c:/workspace/pidgin-devel/win32-dev/mingw-4.7.2/bin/../lib/gcc/mingw32/4.7.2/../../../../include/stdio.h"
	.file 7 "../../win32-dev/gtk_2_0-2.14/include/glib-2.0/glib/gmem.h"
	.file 8 "../../win32-dev/gtk_2_0-2.14/include/glib-2.0/glib/gmessages.h"
	.file 9 "../../win32-dev/gtk_2_0-2.14/include/glib-2.0/glib/gstrfuncs.h"
	.file 10 "../libpurple/util.h"