	.file	"login.c"
	.intel_syntax noprefix
	.text
Ltext0:
	.p2align 2,,3
	.def	_free_logindata;	.scl	3;	.type	32;	.endef
_free_logindata:
LFB101:
	.file 1 "login.c"
	.loc 1 491 0
	.cfi_startproc
LVL0:
	push	ebx
LCFI0:
	.cfi_def_cfa_offset 8
	.cfi_offset 3, -8
	sub	esp, 40
LCFI1:
	.cfi_def_cfa_offset 48
	mov	ebx, eax
	.loc 1 491 0
	mov	eax, DWORD PTR ___stack_chk_guard
	mov	DWORD PTR [esp+28], eax
	xor	eax, eax
LVL1:
	.loc 1 492 0
	test	ebx, ebx
	je	L1
	.loc 1 496 0
	mov	eax, DWORD PTR [ebx]
	mov	DWORD PTR [esp], eax
	call	_g_free
LVL2:
	.loc 1 497 0
	mov	eax, DWORD PTR [ebx+4]
	mov	DWORD PTR [esp], eax
	call	_g_free
LVL3:
	.loc 1 498 0
	mov	eax, DWORD PTR [ebx+8]
	mov	DWORD PTR [esp], eax
	call	_g_free
LVL4:
	.loc 1 499 0
	mov	eax, DWORD PTR [ebx+16]
	mov	DWORD PTR [esp], eax
	call	_g_free
LVL5:
	.loc 1 500 0
	mov	eax, DWORD PTR [ebx+20]
	mov	DWORD PTR [esp], eax
	call	_g_free
LVL6:
	.loc 1 501 0
	mov	DWORD PTR [esp], ebx
	call	_g_free
LVL7:
L1:
	.loc 1 502 0
	mov	eax, DWORD PTR [esp+28]
	xor	eax, DWORD PTR ___stack_chk_guard
	jne	L9
	add	esp, 40
LCFI2:
	.cfi_remember_state
	.cfi_def_cfa_offset 8
	pop	ebx
LCFI3:
	.cfi_restore 3
	.cfi_def_cfa_offset 4
LVL8:
	ret
LVL9:
L9:
LCFI4:
	.cfi_restore_state
	call	___stack_chk_fail
LVL10:
	.cfi_endproc
LFE101:
	.section .rdata,"dr"
LC0:
	.ascii "stream.mxit.co.za\0"
LC1:
	.ascii "server\0"
	.align 4
LC2:
	.ascii "http://int.poll.mxit.com:80/mxit\0"
LC3:
	.ascii "httpserver\0"
LC4:
	.ascii "port\0"
LC5:
	.ascii "\0"
LC6:
	.ascii "distcode\0"
LC7:
	.ascii "clientkey\0"
LC8:
	.ascii "dialcode\0"
LC9:
	.ascii "use_http\0"
	.text
	.p2align 2,,3
	.def	_mxit_create_object;	.scl	3;	.type	32;	.endef
_mxit_create_object:
LFB93:
	.loc 1 53 0
	.cfi_startproc
LVL11:
	push	edi
LCFI5:
	.cfi_def_cfa_offset 8
	.cfi_offset 7, -8
	push	esi
LCFI6:
	.cfi_def_cfa_offset 12
	.cfi_offset 6, -12
	push	ebx
LCFI7:
	.cfi_def_cfa_offset 16
	.cfi_offset 3, -16
	sub	esp, 32
LCFI8:
	.cfi_def_cfa_offset 48
	mov	esi, eax
	.loc 1 53 0
	mov	eax, DWORD PTR ___stack_chk_guard
	mov	DWORD PTR [esp+28], eax
	xor	eax, eax
LVL12:
	.loc 1 54 0
	mov	DWORD PTR [esp], esi
	call	_purple_account_get_connection
LVL13:
	mov	edi, eax
LVL14:
LBB2:
	.loc 1 59 0
	mov	DWORD PTR [esp], esi
	call	_purple_account_get_username
LVL15:
	.loc 1 61 0
	cmp	BYTE PTR [eax], 43
	je	L14
LVL16:
L11:
LBE2:
	.loc 1 68 0
	mov	DWORD PTR [esp], 1001152
	call	_g_malloc0
LVL17:
	mov	ebx, eax
LVL18:
	.loc 1 69 0
	mov	DWORD PTR [eax+924], edi
	.loc 1 70 0
	mov	DWORD PTR [eax+920], esi
	.loc 1 73 0
	mov	DWORD PTR [esp+4], eax
	mov	DWORD PTR [esp], edi
	call	_purple_connection_set_protocol_data
LVL19:
	.loc 1 74 0
	or	DWORD PTR [edi+4], 579
	.loc 1 77 0
	mov	DWORD PTR [esp+8], OFFSET FLAT:LC0
	mov	DWORD PTR [esp+4], OFFSET FLAT:LC1
	mov	DWORD PTR [esp], esi
	call	_purple_account_get_string
LVL20:
	mov	DWORD PTR [esp+8], 255
	mov	DWORD PTR [esp+4], eax
	mov	DWORD PTR [esp], ebx
	call	_g_strlcpy
LVL21:
	.loc 1 78 0
	mov	DWORD PTR [esp+8], OFFSET FLAT:LC2
	mov	DWORD PTR [esp+4], OFFSET FLAT:LC3
	mov	DWORD PTR [esp], esi
	call	_purple_account_get_string
LVL22:
	mov	DWORD PTR [esp+8], 255
	mov	DWORD PTR [esp+4], eax
	lea	eax, [ebx+268]
	mov	DWORD PTR [esp], eax
	call	_g_strlcpy
LVL23:
	.loc 1 79 0
	mov	DWORD PTR [esp+8], 9119
	mov	DWORD PTR [esp+4], OFFSET FLAT:LC4
	mov	DWORD PTR [esp], esi
	call	_purple_account_get_int
LVL24:
	mov	DWORD PTR [ebx+256], eax
	.loc 1 80 0
	mov	DWORD PTR [esp+8], OFFSET FLAT:LC5
	mov	DWORD PTR [esp+4], OFFSET FLAT:LC6
	mov	DWORD PTR [esp], esi
	call	_purple_account_get_string
LVL25:
	mov	DWORD PTR [esp+8], 64
	mov	DWORD PTR [esp+4], eax
	lea	eax, [ebx+820]
	mov	DWORD PTR [esp], eax
	call	_g_strlcpy
LVL26:
	.loc 1 81 0
	mov	DWORD PTR [esp+8], OFFSET FLAT:LC5
	mov	DWORD PTR [esp+4], OFFSET FLAT:LC7
	mov	DWORD PTR [esp], esi
	call	_purple_account_get_string
LVL27:
	mov	DWORD PTR [esp+8], 16
	mov	DWORD PTR [esp+4], eax
	lea	eax, [ebx+884]
	mov	DWORD PTR [esp], eax
	call	_g_strlcpy
LVL28:
	.loc 1 82 0
	mov	DWORD PTR [esp+8], OFFSET FLAT:LC5
	mov	DWORD PTR [esp+4], OFFSET FLAT:LC8
	mov	DWORD PTR [esp], esi
	call	_purple_account_get_string
LVL29:
	mov	DWORD PTR [esp+8], 8
	mov	DWORD PTR [esp+4], eax
	lea	eax, [ebx+900]
	mov	DWORD PTR [esp], eax
	call	_g_strlcpy
LVL30:
	.loc 1 83 0
	mov	DWORD PTR [esp+8], 0
	mov	DWORD PTR [esp+4], OFFSET FLAT:LC9
	mov	DWORD PTR [esp], esi
	call	_purple_account_get_bool
LVL31:
	mov	DWORD PTR [ebx+264], eax
	.loc 1 84 0
	mov	DWORD PTR [esp+4], OFFSET FLAT:_g_str_equal
	mov	DWORD PTR [esp], OFFSET FLAT:_g_str_hash
	call	_g_hash_table_new
LVL32:
	mov	DWORD PTR [ebx+1001148], eax
	.loc 1 85 0
	mov	BYTE PTR [ebx+1001120], 1
	.loc 1 86 0
	mov	DWORD PTR [ebx+536], 7
	.loc 1 87 0
	call	_mxit_now_milli
LVL33:
	mov	DWORD PTR [ebx+544], eax
	mov	DWORD PTR [ebx+548], edx
	.loc 1 90 0
	mov	eax, ebx
	mov	edx, DWORD PTR [esp+28]
	xor	edx, DWORD PTR ___stack_chk_guard
	jne	L15
	add	esp, 32
LCFI9:
	.cfi_remember_state
	.cfi_def_cfa_offset 16
	pop	ebx
LCFI10:
	.cfi_restore 3
	.cfi_def_cfa_offset 12
LVL34:
	pop	esi
LCFI11:
	.cfi_restore 6
	.cfi_def_cfa_offset 8
LVL35:
	pop	edi
LCFI12:
	.cfi_restore 7
	.cfi_def_cfa_offset 4
LVL36:
	ret
LVL37:
	.p2align 2,,3
L14:
LCFI13:
	.cfi_restore_state
LBB4:
LBB3:
	.loc 1 62 0
	inc	eax
LVL38:
	mov	DWORD PTR [esp], eax
	call	_g_strdup
LVL39:
	mov	ebx, eax
LVL40:
	.loc 1 63 0
	mov	DWORD PTR [esp+4], eax
	mov	DWORD PTR [esp], esi
	call	_purple_account_set_username
LVL41:
	.loc 1 64 0
	mov	DWORD PTR [esp], ebx
	call	_g_free
LVL42:
	jmp	L11
LVL43:
L15:
LBE3:
LBE4:
	.loc 1 90 0
	call	___stack_chk_fail
LVL44:
	.cfi_endproc
LFE93:
	.section .rdata,"dr"
LC10:
	.ascii "get_clientinfo\12\0"
LC11:
	.ascii "prpl-loubserp-mxit\0"
	.align 4
LC12:
	.ascii "Retrieving User Information...\0"
LC13:
	.ascii "pidgin\0"
LC14:
	.ascii "http://www.mxit.com\0"
LC15:
	.ascii "wap_server\0"
	.align 4
LC16:
	.ascii "%s/res/?type=challenge&getcountries=true&getlanguage=true&getimage=true&h=%i&w=%i&ts=%li\0"
LC17:
	.ascii "libpurple-2.10.11\0"
LC18:
	.ascii "HTTP REQUEST: '%s'\12\0"
	.text
	.p2align 2,,3
	.def	_get_clientinfo;	.scl	3;	.type	32;	.endef
_get_clientinfo:
LFB105:
	.loc 1 725 0
	.cfi_startproc
LVL45:
	push	esi
LCFI14:
	.cfi_def_cfa_offset 8
	.cfi_offset 6, -8
	push	ebx
LCFI15:
	.cfi_def_cfa_offset 12
	.cfi_offset 3, -12
	sub	esp, 52
LCFI16:
	.cfi_def_cfa_offset 64
	mov	ebx, eax
	.loc 1 725 0
	mov	eax, DWORD PTR ___stack_chk_guard
	mov	DWORD PTR [esp+44], eax
	xor	eax, eax
LVL46:
	.loc 1 730 0
	mov	DWORD PTR [esp+4], OFFSET FLAT:LC10
	mov	DWORD PTR [esp], OFFSET FLAT:LC11
	call	_purple_debug_info
LVL47:
	.loc 1 732 0
	mov	DWORD PTR [esp+4], OFFSET FLAT:LC12
	mov	DWORD PTR [esp], OFFSET FLAT:LC13
	call	_libintl_dgettext
LVL48:
	mov	DWORD PTR [esp+12], 4
	mov	DWORD PTR [esp+8], 0
	mov	DWORD PTR [esp+4], eax
	mov	eax, DWORD PTR [ebx+924]
	mov	DWORD PTR [esp], eax
	call	_purple_connection_update_progress
LVL49:
	.loc 1 735 0
	mov	DWORD PTR [esp+8], OFFSET FLAT:LC14
	mov	DWORD PTR [esp+4], OFFSET FLAT:LC15
	mov	eax, DWORD PTR [ebx+920]
	mov	DWORD PTR [esp], eax
	call	_purple_account_get_string
LVL50:
	mov	esi, eax
LVL51:
	.loc 1 738 0
	mov	DWORD PTR [esp], 0
	call	_time
LVL52:
	mov	DWORD PTR [esp+16], eax
	mov	DWORD PTR [esp+12], 150
	mov	DWORD PTR [esp+8], 50
	mov	DWORD PTR [esp+4], esi
	mov	DWORD PTR [esp], OFFSET FLAT:LC16
	call	_g_strdup_printf
LVL53:
	mov	esi, eax
LVL54:
	.loc 1 739 0
	mov	DWORD PTR [esp+28], ebx
	mov	DWORD PTR [esp+24], OFFSET FLAT:_mxit_cb_clientinfo1
	mov	DWORD PTR [esp+20], 0
	mov	DWORD PTR [esp+16], 0
	mov	DWORD PTR [esp+12], 1
	mov	DWORD PTR [esp+8], OFFSET FLAT:LC17
	mov	DWORD PTR [esp+4], 1
	mov	DWORD PTR [esp], eax
	call	_purple_util_fetch_url_request
LVL55:
	.loc 1 740 0
	test	eax, eax
	je	L17
	.loc 1 741 0
	mov	DWORD PTR [esp+4], eax
	mov	eax, DWORD PTR [ebx+1092]
LVL56:
	mov	DWORD PTR [esp], eax
	call	_g_slist_prepend
LVL57:
	mov	DWORD PTR [ebx+1092], eax
L17:
	.loc 1 744 0
	mov	DWORD PTR [esp+8], esi
	mov	DWORD PTR [esp+4], OFFSET FLAT:LC18
	mov	DWORD PTR [esp], OFFSET FLAT:LC11
	call	_purple_debug_info
LVL58:
	.loc 1 746 0
	mov	DWORD PTR [esp], esi
	call	_g_free
LVL59:
	.loc 1 747 0
	mov	eax, DWORD PTR [esp+44]
	xor	eax, DWORD PTR ___stack_chk_guard
	jne	L23
	add	esp, 52
LCFI17:
	.cfi_remember_state
	.cfi_def_cfa_offset 12
	pop	ebx
LCFI18:
	.cfi_restore 3
	.cfi_def_cfa_offset 8
LVL60:
	pop	esi
LCFI19:
	.cfi_restore 6
	.cfi_def_cfa_offset 4
LVL61:
	ret
LVL62:
L23:
LCFI20:
	.cfi_restore_state
	call	___stack_chk_fail
LVL63:
	.cfi_endproc
LFE105:
	.section .rdata,"dr"
LC19:
	.ascii "mxit_clientinfo_cb1\12\0"
LC20:
	.ascii "RESPONSE: %s\12\0"
	.align 4
LC21:
	.ascii "Error contacting the MXit WAP site. Please try again later.\0"
LC22:
	.ascii ";\0"
	.align 4
LC23:
	.ascii "MXit is currently unable to process the request. Please try again later.\0"
LC24:
	.ascii "Security Code\0"
LC25:
	.ascii "captcha\0"
LC26:
	.ascii "Enter Security Code\0"
LC27:
	.ascii "code\0"
LC28:
	.ascii ",\0"
LC29:
	.ascii "Your Country\0"
LC30:
	.ascii "country\0"
LC31:
	.ascii "Your Language\0"
LC32:
	.ascii "locale\0"
LC33:
	.ascii "|\0"
LC34:
	.ascii "English\0"
LC35:
	.ascii "Cancel\0"
LC36:
	.ascii "Continue\0"
LC37:
	.ascii "MXit account validation\0"
LC38:
	.ascii "MXit Authorization\0"
LC39:
	.ascii "MXit\0"
	.text
	.p2align 2,,3
	.def	_mxit_cb_clientinfo1;	.scl	3;	.type	32;	.endef
_mxit_cb_clientinfo1:
LFB104:
	.loc 1 613 0
	.cfi_startproc
LVL64:
	push	ebp
LCFI21:
	.cfi_def_cfa_offset 8
	.cfi_offset 5, -8
	push	edi
LCFI22:
	.cfi_def_cfa_offset 12
	.cfi_offset 7, -12
	push	esi
LCFI23:
	.cfi_def_cfa_offset 16
	.cfi_offset 6, -16
	push	ebx
LCFI24:
	.cfi_def_cfa_offset 20
	.cfi_offset 3, -20
	sub	esp, 124
LCFI25:
	.cfi_def_cfa_offset 144
	mov	esi, DWORD PTR [esp+144]
	mov	edi, DWORD PTR [esp+148]
	mov	ebx, DWORD PTR [esp+152]
	.loc 1 613 0
	mov	eax, DWORD PTR ___stack_chk_guard
	mov	DWORD PTR [esp+108], eax
	xor	eax, eax
LVL65:
	.loc 1 624 0
	mov	DWORD PTR [esp+4], OFFSET FLAT:LC19
	mov	DWORD PTR [esp], OFFSET FLAT:LC11
	call	_purple_debug_info
LVL66:
	.loc 1 627 0
	mov	DWORD PTR [esp+8], ebx
	mov	DWORD PTR [esp+4], OFFSET FLAT:LC20
	mov	DWORD PTR [esp], OFFSET FLAT:LC11
	call	_purple_debug_info
LVL67:
	.loc 1 631 0
	mov	DWORD PTR [esp+4], esi
	mov	eax, DWORD PTR [edi+1092]
	mov	DWORD PTR [esp], eax
	call	_g_slist_remove
LVL68:
	mov	DWORD PTR [edi+1092], eax
	.loc 1 633 0
	test	ebx, ebx
	je	L58
	.loc 1 640 0
	mov	DWORD PTR [esp+8], 15
	mov	DWORD PTR [esp+4], OFFSET FLAT:LC22
	mov	DWORD PTR [esp], ebx
	call	_g_strsplit
LVL69:
	mov	esi, eax
LVL70:
	.loc 1 642 0
	test	eax, eax
	je	L27
	.loc 1 642 0 is_stmt 0 discriminator 1
	mov	eax, DWORD PTR [eax]
LVL71:
	cmp	BYTE PTR [eax], 48
	je	L28
L27:
	.loc 1 644 0 is_stmt 1
	mov	DWORD PTR [esp+4], OFFSET FLAT:LC23
	mov	DWORD PTR [esp], OFFSET FLAT:LC13
	call	_libintl_dgettext
LVL72:
	mov	edx, DWORD PTR [esp+108]
	xor	edx, DWORD PTR ___stack_chk_guard
	jne	L57
LVL73:
L29:
	mov	DWORD PTR [esp+148], eax
	mov	eax, DWORD PTR [edi+924]
	mov	DWORD PTR [esp+144], eax
	.loc 1 715 0
	add	esp, 124
LCFI26:
	.cfi_remember_state
	.cfi_def_cfa_offset 20
	pop	ebx
LCFI27:
	.cfi_restore 3
	.cfi_def_cfa_offset 16
	pop	esi
LCFI28:
	.cfi_restore 6
	.cfi_def_cfa_offset 12
	pop	edi
LCFI29:
	.cfi_restore 7
	.cfi_def_cfa_offset 8
LVL74:
	pop	ebp
LCFI30:
	.cfi_restore 5
	.cfi_def_cfa_offset 4
	.loc 1 644 0
	jmp	_purple_connection_error
LVL75:
	.p2align 2,,3
L28:
LCFI31:
	.cfi_restore_state
	.loc 1 649 0
	mov	DWORD PTR [esp], 24
	call	_g_malloc0
LVL76:
	mov	ebx, eax
LVL77:
	.loc 1 650 0
	mov	eax, DWORD PTR [esi+4]
LVL78:
	mov	DWORD PTR [esp], eax
	call	_g_strdup
LVL79:
	mov	DWORD PTR [ebx], eax
	.loc 1 651 0
	mov	eax, DWORD PTR [esi+8]
	mov	DWORD PTR [esp], eax
	call	_g_strdup
LVL80:
	mov	DWORD PTR [ebx+4], eax
	.loc 1 652 0
	mov	DWORD PTR [edi+812], ebx
	.loc 1 656 0
	call	_purple_request_fields_new
LVL81:
	mov	DWORD PTR [esp+92], eax
LVL82:
	.loc 1 657 0
	mov	DWORD PTR [esp], 0
	call	_purple_request_field_group_new
LVL83:
	mov	DWORD PTR [esp+84], eax
LVL84:
	.loc 1 658 0
	mov	DWORD PTR [esp+4], eax
	mov	eax, DWORD PTR [esp+92]
LVL85:
	mov	DWORD PTR [esp], eax
	call	_purple_request_fields_add_group
LVL86:
	.loc 1 661 0
	lea	eax, [ebx+12]
	mov	DWORD PTR [esp+4], eax
	mov	eax, DWORD PTR [esi+12]
	mov	DWORD PTR [esp], eax
	call	_purple_base64_decode
LVL87:
	mov	ebp, eax
	mov	DWORD PTR [ebx+8], eax
	.loc 1 662 0
	mov	ebx, DWORD PTR [ebx+12]
LVL88:
	mov	DWORD PTR [esp+4], OFFSET FLAT:LC24
	mov	DWORD PTR [esp], OFFSET FLAT:LC13
	call	_libintl_dgettext
LVL89:
	mov	DWORD PTR [esp+12], ebx
	mov	DWORD PTR [esp+8], ebp
	mov	DWORD PTR [esp+4], eax
	mov	DWORD PTR [esp], OFFSET FLAT:LC25
	call	_purple_request_field_image_new
LVL90:
	.loc 1 663 0
	mov	DWORD PTR [esp+4], eax
	mov	eax, DWORD PTR [esp+84]
LVL91:
	mov	DWORD PTR [esp], eax
	call	_purple_request_field_group_add_field
LVL92:
	.loc 1 666 0
	mov	DWORD PTR [esp+4], OFFSET FLAT:LC26
	mov	DWORD PTR [esp], OFFSET FLAT:LC13
	call	_libintl_dgettext
LVL93:
	mov	DWORD PTR [esp+12], 0
	mov	DWORD PTR [esp+8], 0
	mov	DWORD PTR [esp+4], eax
	mov	DWORD PTR [esp], OFFSET FLAT:LC27
	call	_purple_request_field_string_new
LVL94:
	mov	ebx, eax
LVL95:
	.loc 1 667 0
	mov	DWORD PTR [esp+4], 1
	mov	DWORD PTR [esp], eax
	call	_purple_request_field_set_required
LVL96:
	.loc 1 668 0
	mov	DWORD PTR [esp+4], ebx
	mov	eax, DWORD PTR [esp+84]
	mov	DWORD PTR [esp], eax
	call	_purple_request_field_group_add_field
LVL97:
	.loc 1 671 0
	mov	DWORD PTR [esp+8], 500
	mov	DWORD PTR [esp+4], OFFSET FLAT:LC28
	mov	eax, DWORD PTR [esi+16]
	mov	DWORD PTR [esp], eax
	call	_g_strsplit
LVL98:
	mov	ebx, eax
LVL99:
	.loc 1 672 0
	mov	DWORD PTR [esp+4], OFFSET FLAT:LC29
	mov	DWORD PTR [esp], OFFSET FLAT:LC13
	call	_libintl_dgettext
LVL100:
	mov	DWORD PTR [esp+4], eax
	mov	DWORD PTR [esp], OFFSET FLAT:LC30
	call	_purple_request_field_list_new
LVL101:
	mov	DWORD PTR [esp+80], eax
LVL102:
	.loc 1 673 0
	mov	DWORD PTR [esp+4], 0
	mov	DWORD PTR [esp], eax
	call	_purple_request_field_list_set_multi_select
LVL103:
	.loc 1 674 0
	mov	edx, DWORD PTR [ebx]
	.loc 1 612 0
	add	ebx, 4
LVL104:
	.loc 1 674 0
	test	edx, edx
	je	L33
	mov	DWORD PTR [esp+88], edi
	jmp	L46
LVL105:
	.p2align 2,,3
L34:
LBB5:
	.loc 1 687 0
	mov	DWORD PTR [esp], edi
	call	_g_strfreev
LVL106:
	add	ebx, 4
LBE5:
	.loc 1 674 0
	mov	edx, DWORD PTR [ebx-4]
	test	edx, edx
	je	L54
LVL107:
L46:
LBB6:
	.loc 1 677 0
	mov	DWORD PTR [esp+8], 2
	mov	DWORD PTR [esp+4], OFFSET FLAT:LC33
	mov	DWORD PTR [esp], edx
	call	_g_strsplit
LVL108:
	mov	edi, eax
LVL109:
	.loc 1 678 0
	test	eax, eax
	je	L54
	.loc 1 682 0
	mov	eax, DWORD PTR [eax]
LVL110:
	mov	DWORD PTR [esp], eax
	call	_g_strdup
LVL111:
	mov	DWORD PTR [esp+8], eax
	mov	eax, DWORD PTR [edi+4]
	mov	DWORD PTR [esp+4], eax
	mov	eax, DWORD PTR [esp+80]
	mov	DWORD PTR [esp], eax
	call	_purple_request_field_list_add
LVL112:
	.loc 1 683 0
	mov	ebp, DWORD PTR [edi+4]
	mov	eax, DWORD PTR [esi+24]
	mov	DWORD PTR [esp+4], eax
	mov	DWORD PTR [esp], ebp
	call	_strcmp
LVL113:
	test	eax, eax
	jne	L34
	.loc 1 685 0
	mov	DWORD PTR [esp+4], ebp
	mov	eax, DWORD PTR [esp+80]
	mov	DWORD PTR [esp], eax
	call	_purple_request_field_list_add_selected
LVL114:
	jmp	L34
	.p2align 2,,3
L54:
	mov	edi, DWORD PTR [esp+88]
LVL115:
L33:
LBE6:
	.loc 1 689 0
	mov	eax, DWORD PTR [esp+80]
	mov	DWORD PTR [esp+4], eax
	mov	eax, DWORD PTR [esp+84]
	mov	DWORD PTR [esp], eax
	call	_purple_request_field_group_add_field
LVL116:
	.loc 1 692 0
	mov	DWORD PTR [esp+8], 200
	mov	DWORD PTR [esp+4], OFFSET FLAT:LC28
	mov	eax, DWORD PTR [esi+20]
	mov	DWORD PTR [esp], eax
	call	_g_strsplit
LVL117:
	mov	ebx, eax
LVL118:
	.loc 1 693 0
	mov	DWORD PTR [esp+4], OFFSET FLAT:LC31
	mov	DWORD PTR [esp], OFFSET FLAT:LC13
	call	_libintl_dgettext
LVL119:
	mov	DWORD PTR [esp+4], eax
	mov	DWORD PTR [esp], OFFSET FLAT:LC32
	call	_purple_request_field_list_new
LVL120:
	mov	DWORD PTR [esp+80], eax
LVL121:
	.loc 1 694 0
	mov	DWORD PTR [esp+4], 0
	mov	DWORD PTR [esp], eax
	call	_purple_request_field_list_set_multi_select
LVL122:
	.loc 1 695 0
	mov	edx, DWORD PTR [ebx]
	.loc 1 612 0
	add	ebx, 4
LVL123:
	.loc 1 695 0
	test	edx, edx
	je	L32
	mov	DWORD PTR [esp+88], esi
	mov	ebp, DWORD PTR [esp+80]
	jmp	L45
LVL124:
	.p2align 2,,3
L59:
LBB7:
	.loc 1 703 0
	mov	eax, DWORD PTR [eax]
LVL125:
	mov	DWORD PTR [esp], eax
	call	_g_strdup
LVL126:
	mov	DWORD PTR [esp+8], eax
	mov	eax, DWORD PTR [esi+4]
	mov	DWORD PTR [esp+4], eax
	mov	DWORD PTR [esp], ebp
	call	_purple_request_field_list_add
LVL127:
	.loc 1 704 0
	mov	DWORD PTR [esp], esi
	call	_g_strfreev
LVL128:
	add	ebx, 4
LBE7:
	.loc 1 695 0
	mov	edx, DWORD PTR [ebx-4]
	test	edx, edx
	je	L55
LVL129:
L45:
LBB8:
	.loc 1 698 0
	mov	DWORD PTR [esp+8], 2
	mov	DWORD PTR [esp+4], OFFSET FLAT:LC33
	mov	DWORD PTR [esp], edx
	call	_g_strsplit
LVL130:
	mov	esi, eax
LVL131:
	.loc 1 699 0
	test	eax, eax
	jne	L59
LVL132:
L55:
	mov	esi, DWORD PTR [esp+88]
LVL133:
L32:
LBE8:
	.loc 1 706 0
	mov	DWORD PTR [esp+4], OFFSET FLAT:LC34
	mov	eax, DWORD PTR [esp+80]
	mov	DWORD PTR [esp], eax
	call	_purple_request_field_list_add_selected
LVL134:
	.loc 1 707 0
	mov	eax, DWORD PTR [esp+80]
	mov	DWORD PTR [esp+4], eax
	mov	eax, DWORD PTR [esp+84]
	mov	DWORD PTR [esp], eax
	call	_purple_request_field_group_add_field
LVL135:
	.loc 1 710 0
	mov	ecx, DWORD PTR [edi+920]
	.loc 1 711 0
	mov	DWORD PTR [esp+4], OFFSET FLAT:LC35
	mov	DWORD PTR [esp], OFFSET FLAT:LC13
	mov	DWORD PTR [esp+72], ecx
	call	_libintl_dgettext
LVL136:
	mov	DWORD PTR [esp+4], OFFSET FLAT:LC36
	mov	DWORD PTR [esp], OFFSET FLAT:LC13
	mov	DWORD PTR [esp+76], eax
	call	_libintl_dgettext
LVL137:
	mov	ebp, eax
	.loc 1 710 0
	mov	DWORD PTR [esp+4], OFFSET FLAT:LC37
	mov	DWORD PTR [esp], OFFSET FLAT:LC13
	call	_libintl_dgettext
LVL138:
	mov	ebx, eax
	mov	DWORD PTR [esp+4], OFFSET FLAT:LC38
	mov	DWORD PTR [esp], OFFSET FLAT:LC13
	call	_libintl_dgettext
LVL139:
	mov	edi, DWORD PTR [edi+924]
	mov	DWORD PTR [esp+48], edi
	mov	DWORD PTR [esp+44], 0
	mov	DWORD PTR [esp+40], 0
	mov	ecx, DWORD PTR [esp+72]
	mov	DWORD PTR [esp+36], ecx
	mov	DWORD PTR [esp+32], OFFSET FLAT:_mxit_cb_captcha_cancel
	mov	edx, DWORD PTR [esp+76]
	mov	DWORD PTR [esp+28], edx
	mov	DWORD PTR [esp+24], OFFSET FLAT:_mxit_cb_captcha_ok
	mov	DWORD PTR [esp+20], ebp
	mov	edx, DWORD PTR [esp+92]
	mov	DWORD PTR [esp+16], edx
	mov	DWORD PTR [esp+12], ebx
	mov	DWORD PTR [esp+8], eax
	mov	DWORD PTR [esp+4], OFFSET FLAT:LC39
	mov	DWORD PTR [esp], edi
	call	_purple_request_fields
LVL140:
	.loc 1 714 0
	mov	eax, DWORD PTR [esp+108]
	xor	eax, DWORD PTR ___stack_chk_guard
	jne	L57
	mov	DWORD PTR [esp+144], esi
	.loc 1 715 0
	add	esp, 124
LCFI32:
	.cfi_remember_state
	.cfi_def_cfa_offset 20
	pop	ebx
LCFI33:
	.cfi_restore 3
	.cfi_def_cfa_offset 16
	pop	esi
LCFI34:
	.cfi_restore 6
	.cfi_def_cfa_offset 12
	pop	edi
LCFI35:
	.cfi_restore 7
	.cfi_def_cfa_offset 8
	pop	ebp
LCFI36:
	.cfi_restore 5
	.cfi_def_cfa_offset 4
	.loc 1 714 0
	jmp	_g_strfreev
LVL141:
	.p2align 2,,3
L58:
LCFI37:
	.cfi_restore_state
	.loc 1 635 0
	mov	DWORD PTR [esp+4], OFFSET FLAT:LC21
	mov	DWORD PTR [esp], OFFSET FLAT:LC13
	call	_libintl_dgettext
LVL142:
	mov	edx, DWORD PTR [esp+108]
	xor	edx, DWORD PTR ___stack_chk_guard
	je	L29
LVL143:
L57:
	.loc 1 714 0
	call	___stack_chk_fail
LVL144:
	.cfi_endproc
LFE104:
	.p2align 2,,3
	.def	_mxit_cb_captcha_cancel;	.scl	3;	.type	32;	.endef
_mxit_cb_captcha_cancel:
LFB103:
	.loc 1 591 0
	.cfi_startproc
LVL145:
	push	ebx
LCFI38:
	.cfi_def_cfa_offset 8
	.cfi_offset 3, -8
	sub	esp, 40
LCFI39:
	.cfi_def_cfa_offset 48
	.loc 1 591 0
	mov	eax, DWORD PTR ___stack_chk_guard
	mov	DWORD PTR [esp+28], eax
	xor	eax, eax
	.loc 1 592 0
	mov	eax, DWORD PTR [esp+48]
	mov	DWORD PTR [esp], eax
	call	_purple_connection_get_protocol_data
LVL146:
	mov	ebx, eax
LVL147:
	.loc 1 595 0
	mov	eax, DWORD PTR [eax+812]
LVL148:
	call	_free_logindata
LVL149:
	.loc 1 598 0
	mov	eax, DWORD PTR [esp+28]
	xor	eax, DWORD PTR ___stack_chk_guard
	jne	L64
	mov	eax, DWORD PTR [ebx+920]
	mov	DWORD PTR [esp+48], eax
	.loc 1 599 0
	add	esp, 40
LCFI40:
	.cfi_remember_state
	.cfi_def_cfa_offset 8
	pop	ebx
LCFI41:
	.cfi_restore 3
	.cfi_def_cfa_offset 4
LVL150:
	.loc 1 598 0
	jmp	_purple_account_disconnect
LVL151:
L64:
LCFI42:
	.cfi_restore_state
	call	___stack_chk_fail
LVL152:
	.cfi_endproc
LFE103:
	.section .rdata,"dr"
	.align 4
LC40:
	.ascii "You did not enter the security code\0"
LC41:
	.ascii "Error\0"
LC42:
	.ascii "cc\0"
	.align 4
LC43:
	.ascii "cc='%s', locale='%s', captcha='%s'\12\0"
LC44:
	.ascii "state\0"
LC45:
	.ascii "windows\0"
LC46:
	.ascii "PURPLE\0"
LC47:
	.ascii "Y\0"
LC48:
	.ascii "LP\0"
	.align 4
LC49:
	.ascii "%s?type=getpid&sessionid=%s&login=%s&ver=%i.%i.%i&clientid=%s&cat=%s&chalresp=%s&cc=%s&loc=%s&path=%i&brand=%s&model=%s&h=%i&w=%i&ts=%li\0"
	.text
	.p2align 2,,3
	.def	_mxit_cb_captcha_ok;	.scl	3;	.type	32;	.endef
_mxit_cb_captcha_ok:
LFB102:
	.loc 1 512 0
	.cfi_startproc
LVL153:
	push	ebp
LCFI43:
	.cfi_def_cfa_offset 8
	.cfi_offset 5, -8
	push	edi
LCFI44:
	.cfi_def_cfa_offset 12
	.cfi_offset 7, -12
	push	esi
LCFI45:
	.cfi_def_cfa_offset 16
	.cfi_offset 6, -16
	push	ebx
LCFI46:
	.cfi_def_cfa_offset 20
	.cfi_offset 3, -20
	sub	esp, 124
LCFI47:
	.cfi_def_cfa_offset 144
	mov	edi, DWORD PTR [esp+148]
	.loc 1 512 0
	mov	eax, DWORD PTR ___stack_chk_guard
	mov	DWORD PTR [esp+108], eax
	xor	eax, eax
	.loc 1 513 0
	mov	eax, DWORD PTR [esp+144]
	mov	DWORD PTR [esp], eax
	call	_purple_connection_get_protocol_data
LVL154:
	mov	ebx, eax
LVL155:
	.loc 1 523 0
	mov	DWORD PTR [esp+4], OFFSET FLAT:LC27
	mov	DWORD PTR [esp], edi
	call	_purple_request_fields_get_string
LVL156:
	mov	esi, eax
LVL157:
	.loc 1 524 0
	test	eax, eax
	je	L66
	.loc 1 524 0 is_stmt 0 discriminator 1
	cmp	BYTE PTR [eax], 0
	jne	L67
L66:
	.loc 1 526 0 is_stmt 1
	mov	DWORD PTR [esp+4], OFFSET FLAT:LC40
	mov	DWORD PTR [esp], OFFSET FLAT:LC13
	call	_libintl_dgettext
LVL158:
	mov	esi, eax
LVL159:
	mov	DWORD PTR [esp+4], OFFSET FLAT:LC41
	mov	DWORD PTR [esp], OFFSET FLAT:LC13
	call	_libintl_dgettext
LVL160:
	mov	DWORD PTR [esp+8], esi
	mov	DWORD PTR [esp+4], eax
	mov	DWORD PTR [esp], 0
	call	_mxit_popup
LVL161:
	.loc 1 527 0
	mov	eax, DWORD PTR [ebx+812]
	call	_free_logindata
LVL162:
	.loc 1 528 0
	mov	eax, DWORD PTR [esp+108]
	xor	eax, DWORD PTR ___stack_chk_guard
	jne	L79
	mov	eax, DWORD PTR [ebx+920]
	mov	DWORD PTR [esp+144], eax
	.loc 1 581 0
	add	esp, 124
LCFI48:
	.cfi_remember_state
	.cfi_def_cfa_offset 20
	pop	ebx
LCFI49:
	.cfi_restore 3
	.cfi_def_cfa_offset 16
LVL163:
	pop	esi
LCFI50:
	.cfi_restore 6
	.cfi_def_cfa_offset 12
	pop	edi
LCFI51:
	.cfi_restore 7
	.cfi_def_cfa_offset 8
	pop	ebp
LCFI52:
	.cfi_restore 5
	.cfi_def_cfa_offset 4
	.loc 1 528 0
	jmp	_purple_account_disconnect
LVL164:
	.p2align 2,,3
L67:
LCFI53:
	.cfi_restore_state
	.loc 1 533 0
	mov	DWORD PTR [esp+4], OFFSET FLAT:LC30
	mov	DWORD PTR [esp], edi
	call	_purple_request_fields_get_field
LVL165:
	mov	ebp, eax
LVL166:
	.loc 1 534 0
	mov	DWORD PTR [esp], eax
	call	_purple_request_field_list_get_selected
LVL167:
	.loc 1 535 0
	mov	DWORD PTR [esp], eax
	call	_g_list_first
LVL168:
	.loc 1 536 0
	mov	edx, DWORD PTR [ebx+812]
	mov	eax, DWORD PTR [eax]
LVL169:
	mov	DWORD PTR [esp+4], eax
	mov	DWORD PTR [esp], ebp
	mov	DWORD PTR [esp+88], edx
	call	_purple_request_field_list_get_data
LVL170:
	mov	edx, DWORD PTR [esp+88]
	mov	DWORD PTR [edx+16], eax
	.loc 1 537 0
	mov	eax, DWORD PTR [ebx+812]
	mov	eax, DWORD PTR [eax+16]
	mov	DWORD PTR [esp+8], eax
	mov	DWORD PTR [esp+4], OFFSET FLAT:LC42
	mov	eax, DWORD PTR [ebx+920]
	mov	DWORD PTR [esp], eax
	call	_purple_account_set_string
LVL171:
	.loc 1 540 0
	mov	DWORD PTR [esp+4], OFFSET FLAT:LC32
	mov	DWORD PTR [esp], edi
	call	_purple_request_fields_get_field
LVL172:
	mov	edi, eax
LVL173:
	.loc 1 541 0
	mov	DWORD PTR [esp], eax
	call	_purple_request_field_list_get_selected
LVL174:
	.loc 1 542 0
	mov	DWORD PTR [esp], eax
	call	_g_list_first
LVL175:
	.loc 1 543 0
	mov	ebp, DWORD PTR [ebx+812]
	mov	eax, DWORD PTR [eax]
LVL176:
	mov	DWORD PTR [esp+4], eax
	mov	DWORD PTR [esp], edi
	call	_purple_request_field_list_get_data
LVL177:
	mov	DWORD PTR [ebp+20], eax
	.loc 1 544 0
	mov	eax, DWORD PTR [ebx+812]
	mov	eax, DWORD PTR [eax+20]
	mov	DWORD PTR [esp+8], eax
	mov	DWORD PTR [esp+4], OFFSET FLAT:LC32
	mov	eax, DWORD PTR [ebx+920]
	mov	DWORD PTR [esp], eax
	call	_purple_account_set_string
LVL178:
	.loc 1 547 0
	mov	eax, DWORD PTR [ebx+812]
	mov	DWORD PTR [esp+16], esi
	mov	edx, DWORD PTR [eax+20]
	mov	DWORD PTR [esp+12], edx
	mov	eax, DWORD PTR [eax+16]
	mov	DWORD PTR [esp+8], eax
	mov	DWORD PTR [esp+4], OFFSET FLAT:LC43
	mov	DWORD PTR [esp], OFFSET FLAT:LC11
	call	_purple_debug_info
LVL179:
	.loc 1 551 0
	mov	DWORD PTR [esp+8], 0
	mov	DWORD PTR [esp+4], OFFSET FLAT:LC44
	mov	eax, DWORD PTR [ebx+920]
	mov	DWORD PTR [esp], eax
	call	_purple_account_get_int
LVL180:
	mov	DWORD PTR [esp+92], eax
LVL181:
	.loc 1 553 0
	mov	DWORD PTR [esp], 0
	call	_time
LVL182:
	mov	ecx, eax
	.loc 1 562 0
	mov	eax, DWORD PTR [ebx+812]
	.loc 1 553 0
	mov	ebp, DWORD PTR [eax+20]
	mov	edi, DWORD PTR [eax+16]
LVL183:
	mov	eax, DWORD PTR [ebx+920]
	mov	DWORD PTR [esp], eax
	mov	DWORD PTR [esp+88], ecx
	call	_purple_account_get_username
LVL184:
	mov	DWORD PTR [esp], eax
	call	_purple_url_encode
LVL185:
	.loc 1 555 0
	mov	edx, DWORD PTR [ebx+812]
	.loc 1 553 0
	mov	ecx, DWORD PTR [esp+88]
	mov	DWORD PTR [esp+68], ecx
	mov	DWORD PTR [esp+64], 150
	mov	DWORD PTR [esp+60], 50
	mov	DWORD PTR [esp+56], OFFSET FLAT:LC45
	mov	DWORD PTR [esp+52], OFFSET FLAT:LC46
	xor	ecx, ecx
	cmp	DWORD PTR [esp+92], 1
	setne	cl
	mov	DWORD PTR [esp+48], ecx
	mov	DWORD PTR [esp+44], ebp
	mov	DWORD PTR [esp+40], edi
	mov	DWORD PTR [esp+36], esi
	mov	DWORD PTR [esp+32], OFFSET FLAT:LC47
	mov	DWORD PTR [esp+28], OFFSET FLAT:LC48
	mov	DWORD PTR [esp+24], 11
	mov	DWORD PTR [esp+20], 10
	mov	DWORD PTR [esp+16], 2
	mov	DWORD PTR [esp+12], eax
	mov	eax, DWORD PTR [edx+4]
	mov	DWORD PTR [esp+8], eax
	mov	eax, DWORD PTR [edx]
	mov	DWORD PTR [esp+4], eax
	mov	DWORD PTR [esp], OFFSET FLAT:LC49
	call	_g_strdup_printf
LVL186:
	mov	esi, eax
LVL187:
	.loc 1 570 0
	mov	DWORD PTR [esp+28], ebx
	mov	DWORD PTR [esp+24], OFFSET FLAT:_mxit_cb_clientinfo2
	mov	DWORD PTR [esp+20], 0
	mov	DWORD PTR [esp+16], 0
	mov	DWORD PTR [esp+12], 1
	mov	DWORD PTR [esp+8], OFFSET FLAT:LC17
	mov	DWORD PTR [esp+4], 1
	mov	DWORD PTR [esp], eax
	call	_purple_util_fetch_url_request
LVL188:
	.loc 1 571 0
	test	eax, eax
	je	L69
	.loc 1 572 0
	mov	DWORD PTR [esp+4], eax
	mov	eax, DWORD PTR [ebx+1092]
LVL189:
	mov	DWORD PTR [esp], eax
	call	_g_slist_prepend
LVL190:
	mov	DWORD PTR [ebx+1092], eax
L69:
	.loc 1 575 0
	mov	DWORD PTR [esp+8], esi
	mov	DWORD PTR [esp+4], OFFSET FLAT:LC18
	mov	DWORD PTR [esp], OFFSET FLAT:LC11
	call	_purple_debug_info
LVL191:
	.loc 1 577 0
	mov	DWORD PTR [esp], esi
	call	_g_free
LVL192:
	.loc 1 580 0
	mov	eax, DWORD PTR [esp+108]
	xor	eax, DWORD PTR ___stack_chk_guard
	jne	L79
	mov	eax, DWORD PTR [ebx+812]
	.loc 1 581 0
	add	esp, 124
LCFI54:
	.cfi_remember_state
	.cfi_def_cfa_offset 20
	pop	ebx
LCFI55:
	.cfi_restore 3
	.cfi_def_cfa_offset 16
LVL193:
	pop	esi
LCFI56:
	.cfi_restore 6
	.cfi_def_cfa_offset 12
LVL194:
	pop	edi
LCFI57:
	.cfi_restore 7
	.cfi_def_cfa_offset 8
	pop	ebp
LCFI58:
	.cfi_restore 5
	.cfi_def_cfa_offset 4
	.loc 1 580 0
	jmp	_free_logindata
LVL195:
L79:
LCFI59:
	.cfi_restore_state
	call	___stack_chk_fail
LVL196:
	.cfi_endproc
LFE102:
	.section .rdata,"dr"
LC50:
	.ascii "MXit ID\0"
LC51:
	.ascii "loginname\0"
LC52:
	.ascii "Display Name\0"
LC53:
	.ascii "nickname\0"
LC54:
	.ascii "Birthday\0"
LC55:
	.ascii "bday\0"
LC56:
	.ascii "YYYY-MM-DD\0"
LC57:
	.ascii "Gender\0"
LC58:
	.ascii "male\0"
LC59:
	.ascii "Female\0"
LC60:
	.ascii "Male\0"
LC61:
	.ascii "PIN\0"
LC62:
	.ascii "pin\0"
LC63:
	.ascii "Verify PIN\0"
LC64:
	.ascii "pin2\0"
LC65:
	.ascii "OK\0"
	.align 4
LC66:
	.ascii "Please fill in the following fields:\0"
LC67:
	.ascii "Register New MXit Account\0"
	.text
	.p2align 2,,3
	.def	_mxit_register_view;	.scl	3;	.type	32;	.endef
_mxit_register_view:
LFB99:
	.loc 1 316 0
	.cfi_startproc
LVL197:
	push	ebp
LCFI60:
	.cfi_def_cfa_offset 8
	.cfi_offset 5, -8
	push	edi
LCFI61:
	.cfi_def_cfa_offset 12
	.cfi_offset 7, -12
	push	esi
LCFI62:
	.cfi_def_cfa_offset 16
	.cfi_offset 6, -16
	push	ebx
LCFI63:
	.cfi_def_cfa_offset 20
	.cfi_offset 3, -20
	sub	esp, 108
LCFI64:
	.cfi_def_cfa_offset 128
	mov	ebp, eax
	.loc 1 316 0
	mov	eax, DWORD PTR ___stack_chk_guard
	mov	DWORD PTR [esp+92], eax
	xor	eax, eax
LVL198:
	.loc 1 322 0
	mov	esi, DWORD PTR [ebp+912]
	test	esi, esi
	je	L84
L81:
LVL199:
	.loc 1 328 0
	call	_purple_request_fields_new
LVL200:
	mov	DWORD PTR [esp+72], eax
LVL201:
	.loc 1 329 0
	mov	DWORD PTR [esp], 0
	call	_purple_request_field_group_new
LVL202:
	mov	ebx, eax
LVL203:
	.loc 1 330 0
	mov	DWORD PTR [esp+4], eax
	mov	eax, DWORD PTR [esp+72]
LVL204:
	mov	DWORD PTR [esp], eax
	call	_purple_request_fields_add_group
LVL205:
	.loc 1 333 0
	mov	eax, DWORD PTR [ebp+920]
	mov	DWORD PTR [esp], eax
	call	_purple_account_get_username
LVL206:
	mov	edi, eax
	mov	DWORD PTR [esp+4], OFFSET FLAT:LC50
	mov	DWORD PTR [esp], OFFSET FLAT:LC13
	call	_libintl_dgettext
LVL207:
	mov	DWORD PTR [esp+12], 0
	mov	DWORD PTR [esp+8], edi
	mov	DWORD PTR [esp+4], eax
	mov	DWORD PTR [esp], OFFSET FLAT:LC51
	call	_purple_request_field_string_new
LVL208:
	mov	edi, eax
LVL209:
	.loc 1 334 0
	mov	DWORD PTR [esp+4], 0
	mov	DWORD PTR [esp], eax
	call	_purple_request_field_string_set_editable
LVL210:
	.loc 1 335 0
	mov	DWORD PTR [esp+4], edi
	mov	DWORD PTR [esp], ebx
	call	_purple_request_field_group_add_field
LVL211:
	.loc 1 338 0
	mov	DWORD PTR [esp+4], OFFSET FLAT:LC52
	mov	DWORD PTR [esp], OFFSET FLAT:LC13
	call	_libintl_dgettext
LVL212:
	mov	DWORD PTR [esp+12], 0
	lea	ecx, [esi+115]
	mov	DWORD PTR [esp+8], ecx
	mov	DWORD PTR [esp+4], eax
	mov	DWORD PTR [esp], OFFSET FLAT:LC53
	call	_purple_request_field_string_new
LVL213:
	mov	edi, eax
LVL214:
	.loc 1 339 0
	mov	DWORD PTR [esp+4], 1
	mov	DWORD PTR [esp], eax
	call	_purple_request_field_set_required
LVL215:
	.loc 1 340 0
	mov	DWORD PTR [esp+4], edi
	mov	DWORD PTR [esp], ebx
	call	_purple_request_field_group_add_field
LVL216:
	.loc 1 343 0
	mov	DWORD PTR [esp+4], OFFSET FLAT:LC54
	mov	DWORD PTR [esp], OFFSET FLAT:LC13
	call	_libintl_dgettext
LVL217:
	mov	DWORD PTR [esp+12], 0
	lea	ecx, [esi+216]
	mov	DWORD PTR [esp+8], ecx
	mov	DWORD PTR [esp+4], eax
	mov	DWORD PTR [esp], OFFSET FLAT:LC55
	call	_purple_request_field_string_new
LVL218:
	mov	edi, eax
LVL219:
	.loc 1 344 0
	mov	DWORD PTR [esp+4], OFFSET FLAT:LC56
	mov	DWORD PTR [esp], eax
	call	_purple_request_field_string_set_default_value
LVL220:
	.loc 1 345 0
	mov	DWORD PTR [esp+4], 1
	mov	DWORD PTR [esp], edi
	call	_purple_request_field_set_required
LVL221:
	.loc 1 346 0
	mov	DWORD PTR [esp+4], edi
	mov	DWORD PTR [esp], ebx
	call	_purple_request_field_group_add_field
LVL222:
	.loc 1 349 0
	xor	ecx, ecx
	mov	eax, DWORD PTR [esi+232]
	test	eax, eax
	setne	cl
	mov	edi, ecx
LVL223:
	mov	DWORD PTR [esp+4], OFFSET FLAT:LC57
	mov	DWORD PTR [esp], OFFSET FLAT:LC13
	call	_libintl_dgettext
LVL224:
	mov	DWORD PTR [esp+8], edi
	mov	DWORD PTR [esp+4], eax
	mov	DWORD PTR [esp], OFFSET FLAT:LC58
	call	_purple_request_field_choice_new
LVL225:
	mov	edi, eax
LVL226:
	.loc 1 350 0
	mov	DWORD PTR [esp+4], OFFSET FLAT:LC59
	mov	DWORD PTR [esp], OFFSET FLAT:LC13
	call	_libintl_dgettext
LVL227:
	mov	DWORD PTR [esp+4], eax
	mov	DWORD PTR [esp], edi
	call	_purple_request_field_choice_add
LVL228:
	.loc 1 351 0
	mov	DWORD PTR [esp+4], OFFSET FLAT:LC60
	mov	DWORD PTR [esp], OFFSET FLAT:LC13
	call	_libintl_dgettext
LVL229:
	mov	DWORD PTR [esp+4], eax
	mov	DWORD PTR [esp], edi
	call	_purple_request_field_choice_add
LVL230:
	.loc 1 352 0
	mov	DWORD PTR [esp+4], edi
	mov	DWORD PTR [esp], ebx
	call	_purple_request_field_group_add_field
LVL231:
	.loc 1 355 0
	mov	DWORD PTR [esp+4], OFFSET FLAT:LC61
	mov	DWORD PTR [esp], OFFSET FLAT:LC13
	call	_libintl_dgettext
LVL232:
	mov	DWORD PTR [esp+12], 0
	add	esi, 236
LVL233:
	mov	DWORD PTR [esp+8], esi
	mov	DWORD PTR [esp+4], eax
	mov	DWORD PTR [esp], OFFSET FLAT:LC62
	call	_purple_request_field_string_new
LVL234:
	mov	esi, eax
LVL235:
	.loc 1 356 0
	mov	DWORD PTR [esp+4], 1
	mov	DWORD PTR [esp], eax
	call	_purple_request_field_string_set_masked
LVL236:
	.loc 1 357 0
	mov	DWORD PTR [esp+4], 1
	mov	DWORD PTR [esp], esi
	call	_purple_request_field_set_required
LVL237:
	.loc 1 358 0
	mov	DWORD PTR [esp+4], esi
	mov	DWORD PTR [esp], ebx
	call	_purple_request_field_group_add_field
LVL238:
	.loc 1 359 0
	mov	DWORD PTR [esp+4], OFFSET FLAT:LC63
	mov	DWORD PTR [esp], OFFSET FLAT:LC13
	call	_libintl_dgettext
LVL239:
	mov	DWORD PTR [esp+12], 0
	mov	DWORD PTR [esp+8], OFFSET FLAT:LC5
	mov	DWORD PTR [esp+4], eax
	mov	DWORD PTR [esp], OFFSET FLAT:LC64
	call	_purple_request_field_string_new
LVL240:
	mov	esi, eax
LVL241:
	.loc 1 360 0
	mov	DWORD PTR [esp+4], 1
	mov	DWORD PTR [esp], eax
	call	_purple_request_field_string_set_masked
LVL242:
	.loc 1 361 0
	mov	DWORD PTR [esp+4], 1
	mov	DWORD PTR [esp], esi
	call	_purple_request_field_set_required
LVL243:
	.loc 1 362 0
	mov	DWORD PTR [esp+4], esi
	mov	DWORD PTR [esp], ebx
	call	_purple_request_field_group_add_field
LVL244:
	.loc 1 365 0
	mov	ecx, DWORD PTR [ebp+920]
	mov	DWORD PTR [esp+4], OFFSET FLAT:LC35
	mov	DWORD PTR [esp], OFFSET FLAT:LC13
	mov	DWORD PTR [esp+68], ecx
	call	_libintl_dgettext
LVL245:
	mov	edi, eax
	mov	DWORD PTR [esp+4], OFFSET FLAT:LC65
	mov	DWORD PTR [esp], OFFSET FLAT:LC13
	call	_libintl_dgettext
LVL246:
	mov	esi, eax
LVL247:
	mov	DWORD PTR [esp+4], OFFSET FLAT:LC66
	mov	DWORD PTR [esp], OFFSET FLAT:LC13
	call	_libintl_dgettext
LVL248:
	mov	ebx, eax
LVL249:
	mov	DWORD PTR [esp+4], OFFSET FLAT:LC67
	mov	DWORD PTR [esp], OFFSET FLAT:LC13
	call	_libintl_dgettext
LVL250:
	mov	DWORD PTR [esp+76], eax
	mov	DWORD PTR [esp+4], OFFSET FLAT:LC67
	mov	DWORD PTR [esp], OFFSET FLAT:LC13
	call	_libintl_dgettext
LVL251:
	mov	edx, DWORD PTR [ebp+924]
	mov	DWORD PTR [esp+48], edx
	mov	DWORD PTR [esp+44], 0
	mov	DWORD PTR [esp+40], 0
	mov	ecx, DWORD PTR [esp+68]
	mov	DWORD PTR [esp+36], ecx
	mov	DWORD PTR [esp+32], OFFSET FLAT:_mxit_cb_register_cancel
	mov	DWORD PTR [esp+28], edi
	mov	DWORD PTR [esp+24], OFFSET FLAT:_mxit_cb_register_ok
	mov	DWORD PTR [esp+20], esi
	mov	ecx, DWORD PTR [esp+72]
	mov	DWORD PTR [esp+16], ecx
	mov	DWORD PTR [esp+12], ebx
	mov	ecx, DWORD PTR [esp+76]
	mov	DWORD PTR [esp+8], ecx
	mov	DWORD PTR [esp+4], eax
	mov	DWORD PTR [esp], edx
	call	_purple_request_fields
LVL252:
	.loc 1 366 0
	mov	eax, DWORD PTR [esp+92]
	xor	eax, DWORD PTR ___stack_chk_guard
	jne	L85
	add	esp, 108
LCFI65:
	.cfi_remember_state
	.cfi_def_cfa_offset 20
	pop	ebx
LCFI66:
	.cfi_restore 3
	.cfi_def_cfa_offset 16
	pop	esi
LCFI67:
	.cfi_restore 6
	.cfi_def_cfa_offset 12
	pop	edi
LCFI68:
	.cfi_restore 7
	.cfi_def_cfa_offset 8
	pop	ebp
LCFI69:
	.cfi_restore 5
	.cfi_def_cfa_offset 4
LVL253:
	ret
LVL254:
	.p2align 2,,3
L84:
LCFI70:
	.cfi_restore_state
	.loc 1 324 0
	mov	DWORD PTR [esp], 1184
	call	_g_malloc0
LVL255:
	mov	esi, eax
	mov	DWORD PTR [ebp+912], eax
	jmp	L81
LVL256:
L85:
	.loc 1 366 0
	call	___stack_chk_fail
LVL257:
	.cfi_endproc
LFE99:
	.section .rdata,"dr"
LC68:
	.ascii "mxit_connected\12\0"
LC69:
	.ascii "Logging In...\0"
	.text
	.p2align 2,,3
	.def	_mxit_connected;	.scl	3;	.type	32;	.endef
_mxit_connected:
LFB94:
	.loc 1 100 0
	.cfi_startproc
LVL258:
	push	ebx
LCFI71:
	.cfi_def_cfa_offset 8
	.cfi_offset 3, -8
	sub	esp, 40
LCFI72:
	.cfi_def_cfa_offset 48
	mov	ebx, eax
	.loc 1 100 0
	mov	eax, DWORD PTR ___stack_chk_guard
	mov	DWORD PTR [esp+28], eax
	xor	eax, eax
LVL259:
	.loc 1 103 0
	mov	DWORD PTR [esp+4], OFFSET FLAT:LC68
	mov	DWORD PTR [esp], OFFSET FLAT:LC11
	call	_purple_debug_info
LVL260:
	.loc 1 105 0
	or	WORD PTR [ebx+908], 1
	.loc 1 106 0
	mov	DWORD PTR [esp+4], OFFSET FLAT:LC69
	mov	DWORD PTR [esp], OFFSET FLAT:LC13
	call	_libintl_dgettext
LVL261:
	mov	DWORD PTR [esp+12], 4
	mov	DWORD PTR [esp+8], 2
	mov	DWORD PTR [esp+4], eax
	mov	eax, DWORD PTR [ebx+924]
	mov	DWORD PTR [esp], eax
	call	_purple_connection_update_progress
LVL262:
	.loc 1 109 0
	call	_mxit_now_milli
LVL263:
	mov	DWORD PTR [ebx+1072], eax
	mov	DWORD PTR [ebx+1076], edx
	.loc 1 112 0
	mov	DWORD PTR [esp], ebx
	call	_mxit_encrypt_password
LVL264:
	mov	DWORD PTR [ebx+816], eax
	.loc 1 114 0
	mov	DWORD PTR [esp+8], 0
	mov	DWORD PTR [esp+4], OFFSET FLAT:LC44
	mov	eax, DWORD PTR [ebx+920]
	mov	DWORD PTR [esp], eax
	call	_purple_account_get_int
LVL265:
	.loc 1 115 0
	test	eax, eax
	je	L94
	.loc 1 120 0
	mov	eax, DWORD PTR [ebx+912]
LVL266:
	test	eax, eax
	je	L95
	.loc 1 126 0
	mov	DWORD PTR [esp], ebx
	call	_mxit_send_register
LVL267:
L88:
	.loc 1 131 0
	mov	DWORD PTR [esp], ebx
	call	_mxit_enable_signals
LVL268:
	.loc 1 135 0
	call	_mxit_register_uri_handler
LVL269:
	.loc 1 139 0
	mov	ecx, DWORD PTR [ebx+264]
	test	ecx, ecx
	jne	L96
L90:
	.loc 1 144 0
	mov	edx, DWORD PTR [ebx+1084]
	test	edx, edx
	jne	L86
	.loc 1 146 0
	mov	DWORD PTR [esp+8], ebx
	mov	DWORD PTR [esp+4], OFFSET FLAT:_mxit_manage_queue_slow
	mov	DWORD PTR [esp], 2
	call	_purple_timeout_add_seconds
LVL270:
	mov	DWORD PTR [ebx+1084], eax
L86:
	.loc 1 148 0
	mov	eax, DWORD PTR [esp+28]
	xor	eax, DWORD PTR ___stack_chk_guard
	jne	L97
	add	esp, 40
LCFI73:
	.cfi_remember_state
	.cfi_def_cfa_offset 8
	pop	ebx
LCFI74:
	.cfi_restore 3
	.cfi_def_cfa_offset 4
LVL271:
	ret
LVL272:
	.p2align 2,,3
L96:
LCFI75:
	.cfi_restore_state
	.loc 1 140 0
	mov	DWORD PTR [esp+8], ebx
	mov	DWORD PTR [esp+4], OFFSET FLAT:_mxit_manage_polling
	mov	DWORD PTR [esp], 2
	call	_purple_timeout_add_seconds
LVL273:
	mov	DWORD PTR [ebx+532], eax
	jmp	L90
LVL274:
	.p2align 2,,3
L94:
	.loc 1 117 0
	mov	DWORD PTR [esp], ebx
	call	_mxit_send_login
LVL275:
	jmp	L88
	.p2align 2,,3
L95:
	.loc 1 122 0
	mov	eax, ebx
	call	_mxit_register_view
LVL276:
	jmp	L88
L97:
	.loc 1 148 0
	call	___stack_chk_fail
LVL277:
	.cfi_endproc
LFE94:
	.section .rdata,"dr"
LC70:
	.ascii "mxit_cb_register_cancel\12\0"
	.text
	.p2align 2,,3
	.def	_mxit_cb_register_cancel;	.scl	3;	.type	32;	.endef
_mxit_cb_register_cancel:
LFB98:
	.loc 1 302 0
	.cfi_startproc
LVL278:
	push	ebx
LCFI76:
	.cfi_def_cfa_offset 8
	.cfi_offset 3, -8
	sub	esp, 40
LCFI77:
	.cfi_def_cfa_offset 48
	mov	ebx, DWORD PTR [esp+48]
	.loc 1 302 0
	mov	eax, DWORD PTR ___stack_chk_guard
	mov	DWORD PTR [esp+28], eax
	xor	eax, eax
	.loc 1 303 0
	mov	DWORD PTR [esp+4], OFFSET FLAT:LC70
	mov	DWORD PTR [esp], OFFSET FLAT:LC11
	call	_purple_debug_info
LVL279:
	.loc 1 306 0
	mov	DWORD PTR [esp], ebx
	call	_purple_connection_get_account
LVL280:
	mov	edx, DWORD PTR [esp+28]
	xor	edx, DWORD PTR ___stack_chk_guard
	jne	L102
	mov	DWORD PTR [esp+48], eax
	.loc 1 307 0
	add	esp, 40
LCFI78:
	.cfi_remember_state
	.cfi_def_cfa_offset 8
	pop	ebx
LCFI79:
	.cfi_restore 3
	.cfi_def_cfa_offset 4
	.loc 1 306 0
	jmp	_purple_account_disconnect
LVL281:
L102:
LCFI80:
	.cfi_restore_state
	call	___stack_chk_fail
LVL282:
	.cfi_endproc
LFE98:
	.section .rdata,"dr"
LC71:
	.ascii "mxit_login_connect\12\0"
LC72:
	.ascii "Connecting...\0"
	.align 4
LC73:
	.ascii "Unable to connect to the MXit server. Please check your server settings.\0"
	.text
	.p2align 2,,3
	.def	_mxit_login_connect;	.scl	3;	.type	32;	.endef
_mxit_login_connect:
LFB96:
	.loc 1 188 0
	.cfi_startproc
LVL283:
	push	ebx
LCFI81:
	.cfi_def_cfa_offset 8
	.cfi_offset 3, -8
	sub	esp, 56
LCFI82:
	.cfi_def_cfa_offset 64
	mov	ebx, eax
	.loc 1 188 0
	mov	eax, DWORD PTR ___stack_chk_guard
	mov	DWORD PTR [esp+44], eax
	xor	eax, eax
LVL284:
	.loc 1 191 0
	mov	DWORD PTR [esp+4], OFFSET FLAT:LC71
	mov	DWORD PTR [esp], OFFSET FLAT:LC11
	call	_purple_debug_info
LVL285:
	.loc 1 193 0
	mov	DWORD PTR [esp+4], OFFSET FLAT:LC72
	mov	DWORD PTR [esp], OFFSET FLAT:LC13
	call	_libintl_dgettext
LVL286:
	mov	DWORD PTR [esp+12], 4
	mov	DWORD PTR [esp+8], 1
	mov	DWORD PTR [esp+4], eax
	mov	eax, DWORD PTR [ebx+924]
	mov	DWORD PTR [esp], eax
	call	_purple_connection_update_progress
LVL287:
	.loc 1 201 0
	mov	eax, DWORD PTR [ebx+264]
	test	eax, eax
	jne	L104
	.loc 1 203 0
	mov	DWORD PTR [esp+20], ebx
	mov	DWORD PTR [esp+16], OFFSET FLAT:_mxit_cb_connect
	mov	eax, DWORD PTR [ebx+256]
	mov	DWORD PTR [esp+12], eax
	mov	DWORD PTR [esp+8], ebx
	mov	eax, DWORD PTR [ebx+920]
	mov	DWORD PTR [esp+4], eax
	mov	eax, DWORD PTR [ebx+924]
	mov	DWORD PTR [esp], eax
	call	_purple_proxy_connect
LVL288:
	.loc 1 204 0
	test	eax, eax
	je	L110
LVL289:
L103:
	.loc 1 213 0
	mov	eax, DWORD PTR [esp+44]
	xor	eax, DWORD PTR ___stack_chk_guard
	jne	L109
	add	esp, 56
LCFI83:
	.cfi_remember_state
	.cfi_def_cfa_offset 8
	pop	ebx
LCFI84:
	.cfi_restore 3
	.cfi_def_cfa_offset 4
LVL290:
	ret
LVL291:
	.p2align 2,,3
L104:
LCFI85:
	.cfi_restore_state
	.loc 1 211 0
	mov	eax, DWORD PTR [esp+44]
	xor	eax, DWORD PTR ___stack_chk_guard
	jne	L109
	mov	eax, ebx
	.loc 1 213 0
	add	esp, 56
LCFI86:
	.cfi_remember_state
	.cfi_def_cfa_offset 8
	pop	ebx
LCFI87:
	.cfi_restore 3
	.cfi_def_cfa_offset 4
LVL292:
	.loc 1 211 0
	jmp	_mxit_connected
LVL293:
	.p2align 2,,3
L110:
LCFI88:
	.cfi_restore_state
LBB11:
LBB12:
	.loc 1 205 0
	mov	DWORD PTR [esp+4], OFFSET FLAT:LC73
	mov	DWORD PTR [esp], OFFSET FLAT:LC13
	call	_libintl_dgettext
LVL294:
	mov	DWORD PTR [esp+4], eax
	mov	eax, DWORD PTR [ebx+924]
	mov	DWORD PTR [esp], eax
	call	_purple_connection_error
LVL295:
	jmp	L103
LVL296:
L109:
LBE12:
LBE11:
	.loc 1 213 0
	call	___stack_chk_fail
LVL297:
	.cfi_endproc
LFE96:
	.section .rdata,"dr"
LC74:
	.ascii "mxit_clientinfo_cb2\12\0"
LC75:
	.ascii "HTTP RESPONSE: '%s'\12\0"
	.align 4
LC76:
	.ascii "Wrong security code entered. Please try again later.\0"
	.align 4
LC77:
	.ascii "Your session has expired. Please try again later.\0"
	.align 4
LC78:
	.ascii "Invalid country selected. Please try again.\0"
	.align 4
LC79:
	.ascii "The MXit ID you entered is not registered. Please register first.\0"
	.align 4
LC80:
	.ascii "The MXit ID you entered is already registered. Please choose another.\0"
	.align 4
LC81:
	.ascii "Internal error. Please try again later.\0"
LC82:
	.ascii ":\0"
	.align 4
LC83:
	.ascii "distcode='%s', clientkey='%s', dialcode='%s'\12\0"
	.align 4
LC84:
	.ascii "sock_server='%s', http_server='%s', port='%i', cc='%s'\12\0"
	.text
	.p2align 2,,3
	.def	_mxit_cb_clientinfo2;	.scl	3;	.type	32;	.endef
_mxit_cb_clientinfo2:
LFB100:
	.loc 1 380 0
	.cfi_startproc
LVL298:
	push	ebp
LCFI89:
	.cfi_def_cfa_offset 8
	.cfi_offset 5, -8
	push	edi
LCFI90:
	.cfi_def_cfa_offset 12
	.cfi_offset 7, -12
	push	esi
LCFI91:
	.cfi_def_cfa_offset 16
	.cfi_offset 6, -16
	push	ebx
LCFI92:
	.cfi_def_cfa_offset 20
	.cfi_offset 3, -20
	sub	esp, 76
LCFI93:
	.cfi_def_cfa_offset 96
	mov	edi, DWORD PTR [esp+96]
	mov	ebx, DWORD PTR [esp+100]
	mov	esi, DWORD PTR [esp+104]
	.loc 1 380 0
	mov	eax, DWORD PTR ___stack_chk_guard
	mov	DWORD PTR [esp+60], eax
	xor	eax, eax
LVL299:
	.loc 1 386 0
	mov	DWORD PTR [esp+4], OFFSET FLAT:LC74
	mov	DWORD PTR [esp], OFFSET FLAT:LC11
	call	_purple_debug_info
LVL300:
	.loc 1 389 0
	mov	DWORD PTR [esp+8], esi
	mov	DWORD PTR [esp+4], OFFSET FLAT:LC75
	mov	DWORD PTR [esp], OFFSET FLAT:LC11
	call	_purple_debug_info
LVL301:
	.loc 1 393 0
	mov	DWORD PTR [esp+4], edi
	mov	eax, DWORD PTR [ebx+1092]
	mov	DWORD PTR [esp], eax
	call	_g_slist_remove
LVL302:
	mov	DWORD PTR [ebx+1092], eax
	.loc 1 395 0
	test	esi, esi
	je	L137
	.loc 1 402 0
	mov	DWORD PTR [esp+8], 15
	mov	DWORD PTR [esp+4], OFFSET FLAT:LC22
	mov	DWORD PTR [esp], esi
	call	_g_strsplit
LVL303:
	mov	esi, eax
LVL304:
	.loc 1 404 0
	test	eax, eax
	je	L138
	.loc 1 411 0
	mov	eax, DWORD PTR [eax]
LVL305:
	mov	al, BYTE PTR [eax]
	sub	eax, 48
	cmp	al, 7
	jbe	L139
L116:
	.loc 1 435 0
	mov	DWORD PTR [esp+4], OFFSET FLAT:LC81
	mov	DWORD PTR [esp], OFFSET FLAT:LC13
	call	_libintl_dgettext
LVL306:
	mov	edx, DWORD PTR [esp+60]
	xor	edx, DWORD PTR ___stack_chk_guard
	jne	L136
LVL307:
	.p2align 2,,3
L129:
	mov	DWORD PTR [esp+100], eax
	mov	eax, DWORD PTR [ebx+924]
	mov	DWORD PTR [esp+96], eax
	.loc 1 482 0
	add	esp, 76
LCFI94:
	.cfi_remember_state
	.cfi_def_cfa_offset 20
	pop	ebx
LCFI95:
	.cfi_restore 3
	.cfi_def_cfa_offset 16
LVL308:
	pop	esi
LCFI96:
	.cfi_restore 6
	.cfi_def_cfa_offset 12
	pop	edi
LCFI97:
	.cfi_restore 7
	.cfi_def_cfa_offset 8
	pop	ebp
LCFI98:
	.cfi_restore 5
	.cfi_def_cfa_offset 4
	.loc 1 435 0
	jmp	_purple_connection_error
LVL309:
	.p2align 2,,3
L139:
LCFI99:
	.cfi_restore_state
	.loc 1 411 0
	movzx	eax, al
	jmp	[DWORD PTR L123[0+eax*4]]
	.section .rdata,"dr"
	.align 4
L123:
	.long	L117
	.long	L118
	.long	L119
	.long	L116
	.long	L116
	.long	L120
	.long	L121
	.long	L122
	.text
	.p2align 2,,3
L122:
	.loc 1 428 0
	mov	DWORD PTR [esp+4], OFFSET FLAT:LC80
	mov	DWORD PTR [esp], OFFSET FLAT:LC13
	call	_libintl_dgettext
LVL310:
	mov	DWORD PTR [esp+4], eax
	mov	eax, DWORD PTR [ebx+924]
	mov	DWORD PTR [esp], eax
	call	_purple_connection_error
LVL311:
	.loc 1 430 0
	mov	eax, DWORD PTR [esp+60]
	xor	eax, DWORD PTR ___stack_chk_guard
	jne	L136
	mov	DWORD PTR [esp+104], 0
	mov	DWORD PTR [esp+100], OFFSET FLAT:LC44
	mov	eax, DWORD PTR [ebx+920]
	mov	DWORD PTR [esp+96], eax
	.loc 1 482 0
	add	esp, 76
LCFI100:
	.cfi_remember_state
	.cfi_def_cfa_offset 20
	pop	ebx
LCFI101:
	.cfi_restore 3
	.cfi_def_cfa_offset 16
LVL312:
	pop	esi
LCFI102:
	.cfi_restore 6
	.cfi_def_cfa_offset 12
LVL313:
	pop	edi
LCFI103:
	.cfi_restore 7
	.cfi_def_cfa_offset 8
	pop	ebp
LCFI104:
	.cfi_restore 5
	.cfi_def_cfa_offset 4
	.loc 1 430 0
	jmp	_purple_account_set_int
LVL314:
	.p2align 2,,3
L121:
LCFI105:
	.cfi_restore_state
	.loc 1 425 0
	mov	DWORD PTR [esp+4], OFFSET FLAT:LC79
	mov	DWORD PTR [esp], OFFSET FLAT:LC13
	call	_libintl_dgettext
LVL315:
	mov	edx, DWORD PTR [esp+60]
	xor	edx, DWORD PTR ___stack_chk_guard
	je	L129
	jmp	L136
	.p2align 2,,3
L120:
	.loc 1 422 0
	mov	DWORD PTR [esp+4], OFFSET FLAT:LC78
	mov	DWORD PTR [esp], OFFSET FLAT:LC13
	call	_libintl_dgettext
LVL316:
	mov	edx, DWORD PTR [esp+60]
	xor	edx, DWORD PTR ___stack_chk_guard
	je	L129
	jmp	L136
	.p2align 2,,3
L119:
	.loc 1 419 0
	mov	DWORD PTR [esp+4], OFFSET FLAT:LC77
	mov	DWORD PTR [esp], OFFSET FLAT:LC13
	call	_libintl_dgettext
LVL317:
	mov	edx, DWORD PTR [esp+60]
	xor	edx, DWORD PTR ___stack_chk_guard
	je	L129
	jmp	L136
	.p2align 2,,3
L118:
	.loc 1 416 0
	mov	DWORD PTR [esp+4], OFFSET FLAT:LC76
	mov	DWORD PTR [esp], OFFSET FLAT:LC13
	call	_libintl_dgettext
LVL318:
	mov	edx, DWORD PTR [esp+60]
	xor	edx, DWORD PTR ___stack_chk_guard
	je	L129
	jmp	L136
	.p2align 2,,3
L117:
	.loc 1 440 0
	lea	edx, [ebx+820]
	mov	DWORD PTR [esp+8], 37
	mov	eax, DWORD PTR [esi+4]
	add	eax, 2
	mov	DWORD PTR [esp+4], eax
	mov	DWORD PTR [esp], edx
	mov	DWORD PTR [esp+40], edx
	call	_g_strlcpy
LVL319:
	.loc 1 441 0
	lea	ecx, [ebx+884]
	mov	DWORD PTR [esp+8], 9
	mov	eax, DWORD PTR [esi+4]
	add	eax, 38
	mov	DWORD PTR [esp+4], eax
	mov	DWORD PTR [esp], ecx
	mov	DWORD PTR [esp+36], ecx
	call	_g_strlcpy
LVL320:
	.loc 1 444 0
	lea	edi, [ebx+900]
	mov	DWORD PTR [esp+8], 8
	mov	eax, DWORD PTR [esi+16]
	mov	DWORD PTR [esp+4], eax
	mov	DWORD PTR [esp], edi
	call	_g_strlcpy
LVL321:
	.loc 1 447 0
	mov	DWORD PTR [esp+8], 4
	mov	DWORD PTR [esp+4], OFFSET FLAT:LC82
	mov	eax, DWORD PTR [esi+8]
	mov	DWORD PTR [esp], eax
	call	_g_strsplit
LVL322:
	mov	ebp, eax
LVL323:
	.loc 1 448 0
	mov	DWORD PTR [esp+8], 255
	mov	eax, DWORD PTR [eax+4]
LVL324:
	add	eax, 2
	mov	DWORD PTR [esp+4], eax
	mov	DWORD PTR [esp], ebx
	call	_g_strlcpy
LVL325:
	.loc 1 449 0
	mov	eax, DWORD PTR [ebp+8]
	mov	DWORD PTR [esp], eax
	call	_atoi
LVL326:
	mov	DWORD PTR [ebx+256], eax
	.loc 1 452 0
	lea	eax, [ebx+268]
	mov	DWORD PTR [esp+44], eax
	mov	DWORD PTR [esp+8], 255
	mov	eax, DWORD PTR [esi+12]
	mov	DWORD PTR [esp+4], eax
	mov	eax, DWORD PTR [esp+44]
	mov	DWORD PTR [esp], eax
	call	_g_strlcpy
LVL327:
	.loc 1 454 0
	mov	DWORD PTR [esp+16], edi
	mov	ecx, DWORD PTR [esp+36]
	mov	DWORD PTR [esp+12], ecx
	mov	edx, DWORD PTR [esp+40]
	mov	DWORD PTR [esp+8], edx
	mov	DWORD PTR [esp+4], OFFSET FLAT:LC83
	mov	DWORD PTR [esp], OFFSET FLAT:LC11
	call	_purple_debug_info
LVL328:
	.loc 1 455 0
	mov	eax, DWORD PTR [esi+44]
	mov	DWORD PTR [esp+20], eax
	mov	eax, DWORD PTR [ebx+256]
	mov	DWORD PTR [esp+16], eax
	mov	eax, DWORD PTR [esp+44]
	mov	DWORD PTR [esp+12], eax
	mov	DWORD PTR [esp+8], ebx
	mov	DWORD PTR [esp+4], OFFSET FLAT:LC84
	mov	DWORD PTR [esp], OFFSET FLAT:LC11
	call	_purple_debug_info
LVL329:
	.loc 1 458 0
	mov	edx, DWORD PTR [esp+40]
	mov	DWORD PTR [esp+8], edx
	mov	DWORD PTR [esp+4], OFFSET FLAT:LC6
	mov	eax, DWORD PTR [ebx+920]
	mov	DWORD PTR [esp], eax
	call	_purple_account_set_string
LVL330:
	.loc 1 459 0
	mov	ecx, DWORD PTR [esp+36]
	mov	DWORD PTR [esp+8], ecx
	mov	DWORD PTR [esp+4], OFFSET FLAT:LC7
	mov	eax, DWORD PTR [ebx+920]
	mov	DWORD PTR [esp], eax
	call	_purple_account_set_string
LVL331:
	.loc 1 460 0
	mov	DWORD PTR [esp+8], edi
	mov	DWORD PTR [esp+4], OFFSET FLAT:LC8
	mov	eax, DWORD PTR [ebx+920]
	mov	DWORD PTR [esp], eax
	call	_purple_account_set_string
LVL332:
	.loc 1 461 0
	mov	DWORD PTR [esp+8], ebx
	mov	DWORD PTR [esp+4], OFFSET FLAT:LC1
	mov	eax, DWORD PTR [ebx+920]
	mov	DWORD PTR [esp], eax
	call	_purple_account_set_string
LVL333:
	.loc 1 462 0
	mov	eax, DWORD PTR [ebx+256]
	mov	DWORD PTR [esp+8], eax
	mov	DWORD PTR [esp+4], OFFSET FLAT:LC4
	mov	eax, DWORD PTR [ebx+920]
	mov	DWORD PTR [esp], eax
	call	_purple_account_set_int
LVL334:
	.loc 1 463 0
	mov	edx, DWORD PTR [esp+44]
	mov	DWORD PTR [esp+8], edx
	mov	DWORD PTR [esp+4], OFFSET FLAT:LC3
	mov	eax, DWORD PTR [ebx+920]
	mov	DWORD PTR [esp], eax
	call	_purple_account_set_string
LVL335:
	.loc 1 466 0
	mov	DWORD PTR [esp+8], 0
	mov	DWORD PTR [esp+4], OFFSET FLAT:LC44
	mov	eax, DWORD PTR [ebx+920]
	mov	DWORD PTR [esp], eax
	call	_purple_account_get_int
LVL336:
	mov	edi, eax
LVL337:
	.loc 1 467 0
	cmp	eax, 1
	je	L140
	.loc 1 471 0
	mov	DWORD PTR [esp], ebp
	call	_g_strfreev
LVL338:
	.loc 1 472 0
	mov	DWORD PTR [esp], esi
	call	_g_strfreev
LVL339:
	.loc 1 474 0
	test	edi, edi
	je	L141
L131:
	.loc 1 480 0
	mov	edx, DWORD PTR [esp+60]
	xor	edx, DWORD PTR ___stack_chk_guard
	jne	L136
	mov	eax, ebx
	.loc 1 482 0
	add	esp, 76
LCFI106:
	.cfi_remember_state
	.cfi_def_cfa_offset 20
	pop	ebx
LCFI107:
	.cfi_restore 3
	.cfi_def_cfa_offset 16
LVL340:
	pop	esi
LCFI108:
	.cfi_restore 6
	.cfi_def_cfa_offset 12
LVL341:
	pop	edi
LCFI109:
	.cfi_restore 7
	.cfi_def_cfa_offset 8
LVL342:
	pop	ebp
LCFI110:
	.cfi_restore 5
	.cfi_def_cfa_offset 4
LVL343:
	.loc 1 480 0
	jmp	_mxit_register_view
LVL344:
	.p2align 2,,3
L137:
LCFI111:
	.cfi_restore_state
	.loc 1 397 0
	mov	DWORD PTR [esp+4], OFFSET FLAT:LC21
	mov	DWORD PTR [esp], OFFSET FLAT:LC13
	call	_libintl_dgettext
LVL345:
	mov	edx, DWORD PTR [esp+60]
	xor	edx, DWORD PTR ___stack_chk_guard
	je	L129
	jmp	L136
LVL346:
	.p2align 2,,3
L141:
	.loc 1 476 0
	mov	eax, DWORD PTR [esp+60]
	xor	eax, DWORD PTR ___stack_chk_guard
	jne	L136
	mov	eax, ebx
	.loc 1 482 0
	add	esp, 76
LCFI112:
	.cfi_remember_state
	.cfi_def_cfa_offset 20
	pop	ebx
LCFI113:
	.cfi_restore 3
	.cfi_def_cfa_offset 16
LVL347:
	pop	esi
LCFI114:
	.cfi_restore 6
	.cfi_def_cfa_offset 12
LVL348:
	pop	edi
LCFI115:
	.cfi_restore 7
	.cfi_def_cfa_offset 8
LVL349:
	pop	ebp
LCFI116:
	.cfi_restore 5
	.cfi_def_cfa_offset 4
LVL350:
	.loc 1 476 0
	jmp	_mxit_login_connect
LVL351:
	.p2align 2,,3
L138:
LCFI117:
	.cfi_restore_state
	.loc 1 406 0
	mov	DWORD PTR [esp+4], OFFSET FLAT:LC23
	mov	DWORD PTR [esp], OFFSET FLAT:LC13
	call	_libintl_dgettext
LVL352:
	mov	edx, DWORD PTR [esp+60]
	xor	edx, DWORD PTR ___stack_chk_guard
	je	L129
LVL353:
L136:
	.loc 1 480 0
	call	___stack_chk_fail
LVL354:
	.p2align 2,,3
L140:
	.loc 1 468 0
	mov	DWORD PTR [esp+8], 2
	mov	DWORD PTR [esp+4], OFFSET FLAT:LC44
	mov	eax, DWORD PTR [ebx+920]
LVL355:
	mov	DWORD PTR [esp], eax
	call	_purple_account_set_int
LVL356:
	.loc 1 471 0
	mov	DWORD PTR [esp], ebp
	call	_g_strfreev
LVL357:
	.loc 1 472 0
	mov	DWORD PTR [esp], esi
	call	_g_strfreev
LVL358:
	jmp	L131
	.cfi_endproc
LFE100:
	.section .rdata,"dr"
LC85:
	.ascii "mxit_cb_register_ok\12\0"
	.align 4
LC86:
	.ascii "Unable to register; account offline.\12\0"
	.align 4
LC87:
	.ascii "The Display Name you entered is too short.\0"
	.align 4
LC88:
	.ascii "The birthday you entered is invalid. The correct format is: 'YYYY-MM-DD'.\0"
	.align 4
LC89:
	.ascii "The PIN you entered is invalid.\0"
	.align 4
LC90:
	.ascii "The PIN you entered has an invalid length [7-10].\0"
	.align 4
LC91:
	.ascii "The PIN is invalid. It should only consist of digits [0-9].\0"
	.align 4
LC92:
	.ascii "The two PINs you entered do not match.\0"
LC93:
	.ascii "Registration Error\0"
	.text
	.p2align 2,,3
	.def	_mxit_cb_register_ok;	.scl	3;	.type	32;	.endef
_mxit_cb_register_ok:
LFB97:
	.loc 1 223 0
	.cfi_startproc
LVL359:
	push	ebp
LCFI118:
	.cfi_def_cfa_offset 8
	.cfi_offset 5, -8
	push	edi
LCFI119:
	.cfi_def_cfa_offset 12
	.cfi_offset 7, -12
	push	esi
LCFI120:
	.cfi_def_cfa_offset 16
	.cfi_offset 6, -16
	push	ebx
LCFI121:
	.cfi_def_cfa_offset 20
	.cfi_offset 3, -20
	sub	esp, 60
LCFI122:
	.cfi_def_cfa_offset 80
	mov	edi, DWORD PTR [esp+80]
	mov	esi, DWORD PTR [esp+84]
	.loc 1 223 0
	mov	eax, DWORD PTR ___stack_chk_guard
	mov	DWORD PTR [esp+44], eax
	xor	eax, eax
	.loc 1 224 0
	mov	DWORD PTR [esp], edi
	call	_purple_connection_get_protocol_data
LVL360:
	mov	ebx, eax
LVL361:
	.loc 1 225 0
	mov	ebp, DWORD PTR [eax+912]
LVL362:
	.loc 1 232 0
	mov	DWORD PTR [esp+4], OFFSET FLAT:LC85
	mov	DWORD PTR [esp], OFFSET FLAT:LC11
	call	_purple_debug_info
LVL363:
	.loc 1 234 0
	call	_purple_connections_get_all
LVL364:
	mov	DWORD PTR [esp+4], edi
	mov	DWORD PTR [esp], eax
	call	_g_list_find
LVL365:
	test	eax, eax
	je	L179
	.loc 1 240 0
	mov	DWORD PTR [esp+4], OFFSET FLAT:LC53
	mov	DWORD PTR [esp], esi
	call	_purple_request_fields_get_string
LVL366:
	mov	edx, eax
LVL367:
	.loc 1 241 0
	test	eax, eax
	je	L145
	.loc 1 241 0 is_stmt 0 discriminator 1
	mov	ecx, -1
	mov	edi, eax
	xor	eax, eax
LVL368:
	repne scasb
LVL369:
	not	ecx
	dec	ecx
	cmp	ecx, 2
	ja	L146
L145:
	.loc 1 242 0 is_stmt 1
	mov	DWORD PTR [esp+4], OFFSET FLAT:LC87
	mov	DWORD PTR [esp], OFFSET FLAT:LC13
	call	_libintl_dgettext
LVL370:
	mov	esi, eax
LVL371:
L147:
	.loc 1 283 0
	test	esi, esi
	je	L158
	.loc 1 289 0
	mov	DWORD PTR [esp+4], OFFSET FLAT:LC93
	mov	DWORD PTR [esp], OFFSET FLAT:LC13
	call	_libintl_dgettext
LVL372:
	mov	DWORD PTR [esp+8], esi
	mov	DWORD PTR [esp+4], eax
	mov	DWORD PTR [esp], 0
	call	_mxit_popup
LVL373:
	.loc 1 290 0
	mov	eax, DWORD PTR [esp+44]
	xor	eax, DWORD PTR ___stack_chk_guard
	jne	L178
	mov	eax, ebx
	.loc 1 292 0
	add	esp, 60
LCFI123:
	.cfi_remember_state
	.cfi_def_cfa_offset 20
	pop	ebx
LCFI124:
	.cfi_restore 3
	.cfi_def_cfa_offset 16
LVL374:
	pop	esi
LCFI125:
	.cfi_restore 6
	.cfi_def_cfa_offset 12
LVL375:
	pop	edi
LCFI126:
	.cfi_restore 7
	.cfi_def_cfa_offset 8
	pop	ebp
LCFI127:
	.cfi_restore 5
	.cfi_def_cfa_offset 4
	.loc 1 290 0
	jmp	_mxit_register_view
LVL376:
	.p2align 2,,3
L146:
LCFI128:
	.cfi_restore_state
	.loc 1 245 0
	mov	DWORD PTR [esp+8], 101
	mov	DWORD PTR [esp+4], edx
	lea	eax, [ebp+115]
	mov	DWORD PTR [esp], eax
	call	_g_strlcpy
LVL377:
	.loc 1 248 0
	mov	DWORD PTR [esp+4], OFFSET FLAT:LC55
	mov	DWORD PTR [esp], esi
	call	_purple_request_fields_get_string
LVL378:
	mov	edx, eax
LVL379:
	.loc 1 249 0
	test	eax, eax
	je	L149
	.loc 1 249 0 is_stmt 0 discriminator 1
	mov	ecx, -1
	mov	edi, eax
	xor	eax, eax
LVL380:
	repne scasb
LVL381:
	not	ecx
	dec	ecx
	cmp	ecx, 9
	ja	L180
L149:
	.loc 1 250 0 is_stmt 1
	mov	DWORD PTR [esp+4], OFFSET FLAT:LC88
	mov	DWORD PTR [esp], OFFSET FLAT:LC13
	call	_libintl_dgettext
LVL382:
	mov	esi, eax
LVL383:
	.loc 1 251 0
	jmp	L147
LVL384:
	.p2align 2,,3
L180:
	.loc 1 249 0 discriminator 1
	mov	DWORD PTR [esp], edx
	mov	DWORD PTR [esp+20], edx
	call	_validateDate
LVL385:
	test	eax, eax
	mov	edx, DWORD PTR [esp+20]
	je	L149
	.loc 1 253 0
	mov	DWORD PTR [esp+8], 16
	mov	DWORD PTR [esp+4], edx
	lea	eax, [ebp+216]
	mov	DWORD PTR [esp], eax
	call	_g_strlcpy
LVL386:
	.loc 1 256 0
	mov	DWORD PTR [esp+4], OFFSET FLAT:LC58
	mov	DWORD PTR [esp], esi
	call	_purple_request_fields_get_choice
LVL387:
	test	eax, eax
	setne	al
	movzx	eax, al
	mov	DWORD PTR [ebp+232], eax
	.loc 1 259 0
	mov	DWORD PTR [esp+4], OFFSET FLAT:LC62
	mov	DWORD PTR [esp], esi
	call	_purple_request_fields_get_string
LVL388:
	mov	edx, eax
LVL389:
	.loc 1 260 0
	test	eax, eax
	je	L181
	.loc 1 264 0
	mov	ecx, -1
	mov	edi, eax
	xor	eax, eax
LVL390:
	repne scasb
LVL391:
	not	ecx
	lea	eax, [ecx-1]
	mov	DWORD PTR [esp+24], eax
LVL392:
	.loc 1 265 0
	sub	ecx, 8
	cmp	ecx, 3
	ja	L151
LVL393:
	.loc 1 269 0 discriminator 1
	test	eax, eax
	jle	L152
	.loc 1 270 0
	mov	eax, DWORD PTR __imp__g_ascii_table
LVL394:
	mov	edi, DWORD PTR [eax]
	movzx	eax, BYTE PTR [edx]
	test	BYTE PTR [edi+eax*2], 8
	je	L153
	xor	eax, eax
	mov	DWORD PTR [esp+28], ebp
	mov	ebp, DWORD PTR [esp+24]
LVL395:
	jmp	L154
LVL396:
	.p2align 2,,3
L155:
	movzx	ecx, BYTE PTR [edx+eax]
	test	BYTE PTR [edi+ecx*2], 8
	je	L153
LVL397:
L154:
	.loc 1 269 0
	inc	eax
LVL398:
	cmp	ebp, eax
	jne	L155
	mov	ebp, DWORD PTR [esp+28]
LVL399:
L152:
	.loc 1 275 0
	mov	DWORD PTR [esp+4], OFFSET FLAT:LC64
	mov	DWORD PTR [esp], esi
	mov	DWORD PTR [esp+20], edx
	call	_purple_request_fields_get_string
LVL400:
	.loc 1 276 0
	test	eax, eax
	mov	edx, DWORD PTR [esp+20]
	je	L156
	.loc 1 276 0 is_stmt 0 discriminator 1
	mov	DWORD PTR [esp+4], eax
	mov	DWORD PTR [esp], edx
	call	_strcmp
LVL401:
	test	eax, eax
	mov	edx, DWORD PTR [esp+20]
	je	L157
L156:
	.loc 1 277 0 is_stmt 1
	mov	DWORD PTR [esp+4], OFFSET FLAT:LC92
	mov	DWORD PTR [esp], OFFSET FLAT:LC13
	call	_libintl_dgettext
LVL402:
	mov	esi, eax
LVL403:
	.loc 1 278 0
	jmp	L147
LVL404:
	.p2align 2,,3
L179:
	.loc 1 235 0
	mov	eax, DWORD PTR [esp+44]
	xor	eax, DWORD PTR ___stack_chk_guard
	jne	L178
	mov	DWORD PTR [esp+84], OFFSET FLAT:LC86
	mov	DWORD PTR [esp+80], OFFSET FLAT:LC11
	.loc 1 292 0
	add	esp, 60
LCFI129:
	.cfi_remember_state
	.cfi_def_cfa_offset 20
	pop	ebx
LCFI130:
	.cfi_restore 3
	.cfi_def_cfa_offset 16
LVL405:
	pop	esi
LCFI131:
	.cfi_restore 6
	.cfi_def_cfa_offset 12
	pop	edi
LCFI132:
	.cfi_restore 7
	.cfi_def_cfa_offset 8
	pop	ebp
LCFI133:
	.cfi_restore 5
	.cfi_def_cfa_offset 4
LVL406:
	.loc 1 235 0
	jmp	_purple_debug_error
LVL407:
L157:
LCFI134:
	.cfi_restore_state
	.loc 1 280 0
	mov	DWORD PTR [esp+8], 16
	mov	DWORD PTR [esp+4], edx
	lea	eax, [ebp+236]
	mov	DWORD PTR [esp], eax
	call	_g_strlcpy
LVL408:
	.p2align 2,,3
L158:
	.loc 1 284 0
	mov	eax, DWORD PTR [ebx+912]
	add	eax, 236
	mov	DWORD PTR [esp+4], eax
	mov	eax, DWORD PTR [ebx+920]
	mov	DWORD PTR [esp], eax
	call	_purple_account_set_password
LVL409:
	.loc 1 285 0
	mov	eax, DWORD PTR [esp+44]
	xor	eax, DWORD PTR ___stack_chk_guard
	jne	L178
	mov	eax, ebx
	.loc 1 292 0
	add	esp, 60
LCFI135:
	.cfi_remember_state
	.cfi_def_cfa_offset 20
	pop	ebx
LCFI136:
	.cfi_restore 3
	.cfi_def_cfa_offset 16
LVL410:
	pop	esi
LCFI137:
	.cfi_restore 6
	.cfi_def_cfa_offset 12
	pop	edi
LCFI138:
	.cfi_restore 7
	.cfi_def_cfa_offset 8
	pop	ebp
LCFI139:
	.cfi_restore 5
	.cfi_def_cfa_offset 4
	.loc 1 285 0
	jmp	_mxit_login_connect
LVL411:
L153:
LCFI140:
	.cfi_restore_state
	.loc 1 271 0
	mov	DWORD PTR [esp+4], OFFSET FLAT:LC91
	mov	DWORD PTR [esp], OFFSET FLAT:LC13
	call	_libintl_dgettext
LVL412:
	mov	esi, eax
LVL413:
	.loc 1 272 0
	jmp	L147
LVL414:
L151:
	.loc 1 266 0
	mov	DWORD PTR [esp+4], OFFSET FLAT:LC90
	mov	DWORD PTR [esp], OFFSET FLAT:LC13
	call	_libintl_dgettext
LVL415:
	mov	esi, eax
LVL416:
	.loc 1 267 0
	jmp	L147
LVL417:
L181:
	.loc 1 261 0
	mov	DWORD PTR [esp+4], OFFSET FLAT:LC89
	mov	DWORD PTR [esp], OFFSET FLAT:LC13
	call	_libintl_dgettext
LVL418:
	mov	esi, eax
LVL419:
	.loc 1 262 0
	jmp	L147
LVL420:
L178:
	.loc 1 290 0
	call	___stack_chk_fail
LVL421:
	.cfi_endproc
LFE97:
	.section .rdata,"dr"
LC94:
	.ascii "mxit_cb_connect\12\0"
LC95:
	.ascii "mxit_cb_connect failed: %s\12\0"
	.text
	.p2align 2,,3
	.def	_mxit_cb_connect;	.scl	3;	.type	32;	.endef
_mxit_cb_connect:
LFB95:
	.loc 1 160 0
	.cfi_startproc
LVL422:
	push	edi
LCFI141:
	.cfi_def_cfa_offset 8
	.cfi_offset 7, -8
	push	esi
LCFI142:
	.cfi_def_cfa_offset 12
	.cfi_offset 6, -12
	push	ebx
LCFI143:
	.cfi_def_cfa_offset 16
	.cfi_offset 3, -16
	sub	esp, 32
LCFI144:
	.cfi_def_cfa_offset 48
	mov	ebx, DWORD PTR [esp+48]
	mov	esi, DWORD PTR [esp+52]
	mov	edi, DWORD PTR [esp+56]
	.loc 1 160 0
	mov	eax, DWORD PTR ___stack_chk_guard
	mov	DWORD PTR [esp+28], eax
	xor	eax, eax
LVL423:
	.loc 1 163 0
	mov	DWORD PTR [esp+4], OFFSET FLAT:LC94
	mov	DWORD PTR [esp], OFFSET FLAT:LC11
	call	_purple_debug_info
LVL424:
	.loc 1 166 0
	test	esi, esi
	js	L189
	.loc 1 173 0
	mov	DWORD PTR [ebx+260], esi
	.loc 1 176 0
	mov	edi, DWORD PTR [ebx+924]
	mov	DWORD PTR [esp+12], ebx
	mov	DWORD PTR [esp+8], OFFSET FLAT:_mxit_cb_rx
	mov	DWORD PTR [esp+4], 1
	mov	DWORD PTR [esp], esi
	call	_purple_input_add
LVL425:
	mov	DWORD PTR [edi+20], eax
	.loc 1 178 0
	mov	eax, DWORD PTR [esp+28]
	xor	eax, DWORD PTR ___stack_chk_guard
	jne	L188
	mov	eax, ebx
	.loc 1 179 0
	add	esp, 32
LCFI145:
	.cfi_remember_state
	.cfi_def_cfa_offset 16
	pop	ebx
LCFI146:
	.cfi_restore 3
	.cfi_def_cfa_offset 12
LVL426:
	pop	esi
LCFI147:
	.cfi_restore 6
	.cfi_def_cfa_offset 8
	pop	edi
LCFI148:
	.cfi_restore 7
	.cfi_def_cfa_offset 4
	.loc 1 178 0
	jmp	_mxit_connected
LVL427:
	.p2align 2,,3
L189:
LCFI149:
	.cfi_restore_state
LBB15:
LBB16:
	.loc 1 167 0
	mov	DWORD PTR [esp+8], edi
	mov	DWORD PTR [esp+4], OFFSET FLAT:LC95
	mov	DWORD PTR [esp], OFFSET FLAT:LC11
	call	_purple_debug_info
LVL428:
	.loc 1 168 0
	mov	DWORD PTR [esp+4], OFFSET FLAT:LC73
	mov	DWORD PTR [esp], OFFSET FLAT:LC13
	call	_libintl_dgettext
LVL429:
	mov	edx, DWORD PTR [esp+28]
	xor	edx, DWORD PTR ___stack_chk_guard
	jne	L188
	mov	DWORD PTR [esp+52], eax
	mov	eax, DWORD PTR [ebx+924]
	mov	DWORD PTR [esp+48], eax
LBE16:
LBE15:
	.loc 1 179 0
	add	esp, 32
LCFI150:
	.cfi_remember_state
	.cfi_def_cfa_offset 16
	pop	ebx
LCFI151:
	.cfi_restore 3
	.cfi_def_cfa_offset 12
LVL430:
	pop	esi
LCFI152:
	.cfi_restore 6
	.cfi_def_cfa_offset 8
	pop	edi
LCFI153:
	.cfi_restore 7
	.cfi_def_cfa_offset 4
LVL431:
LBB18:
LBB17:
	.loc 1 168 0
	jmp	_purple_connection_error
LVL432:
L188:
LCFI154:
	.cfi_restore_state
LBE17:
LBE18:
	.loc 1 178 0
	call	___stack_chk_fail
LVL433:
	.cfi_endproc
LFE95:
	.section .rdata,"dr"
LC96:
	.ascii "mxit_login\12\0"
	.text
	.p2align 2,,3
	.globl	_mxit_login
	.def	_mxit_login;	.scl	2;	.type	32;	.endef
_mxit_login:
LFB106:
	.loc 1 756 0
	.cfi_startproc
LVL434:
	push	ebx
LCFI155:
	.cfi_def_cfa_offset 8
	.cfi_offset 3, -8
	sub	esp, 40
LCFI156:
	.cfi_def_cfa_offset 48
	mov	ebx, DWORD PTR [esp+48]
	.loc 1 756 0
	mov	eax, DWORD PTR ___stack_chk_guard
	mov	DWORD PTR [esp+28], eax
	xor	eax, eax
LVL435:
	.loc 1 759 0
	mov	DWORD PTR [esp+4], OFFSET FLAT:LC96
	mov	DWORD PTR [esp], OFFSET FLAT:LC11
	call	_purple_debug_info
LVL436:
	.loc 1 762 0
	mov	eax, ebx
	call	_mxit_create_object
LVL437:
	.loc 1 769 0
	cmp	BYTE PTR [eax+820], 0
	je	L197
	.loc 1 775 0
	mov	edx, DWORD PTR [esp+28]
	xor	edx, DWORD PTR ___stack_chk_guard
	jne	L196
	.loc 1 777 0
	add	esp, 40
LCFI157:
	.cfi_remember_state
	.cfi_def_cfa_offset 8
	pop	ebx
LCFI158:
	.cfi_restore 3
	.cfi_def_cfa_offset 4
	.loc 1 775 0
	jmp	_mxit_login_connect
LVL438:
	.p2align 2,,3
L197:
LCFI159:
	.cfi_restore_state
	.loc 1 771 0
	mov	edx, DWORD PTR [esp+28]
	xor	edx, DWORD PTR ___stack_chk_guard
	jne	L196
	.loc 1 777 0
	add	esp, 40
LCFI160:
	.cfi_remember_state
	.cfi_def_cfa_offset 8
	pop	ebx
LCFI161:
	.cfi_restore 3
	.cfi_def_cfa_offset 4
	.loc 1 771 0
	jmp	_get_clientinfo
LVL439:
L196:
LCFI162:
	.cfi_restore_state
	.loc 1 775 0
	call	___stack_chk_fail
LVL440:
	.cfi_endproc
LFE106:
	.section .rdata,"dr"
LC97:
	.ascii "mxit_reconnect\12\0"
	.text
	.p2align 2,,3
	.globl	_mxit_reconnect
	.def	_mxit_reconnect;	.scl	2;	.type	32;	.endef
_mxit_reconnect:
LFB107:
	.loc 1 786 0
	.cfi_startproc
LVL441:
	push	ebx
LCFI163:
	.cfi_def_cfa_offset 8
	.cfi_offset 3, -8
	sub	esp, 40
LCFI164:
	.cfi_def_cfa_offset 48
	mov	ebx, DWORD PTR [esp+48]
	.loc 1 786 0
	mov	eax, DWORD PTR ___stack_chk_guard
	mov	DWORD PTR [esp+28], eax
	xor	eax, eax
	.loc 1 787 0
	mov	DWORD PTR [esp+4], OFFSET FLAT:LC97
	mov	DWORD PTR [esp], OFFSET FLAT:LC11
	call	_purple_debug_info
LVL442:
	.loc 1 790 0
	mov	eax, DWORD PTR [ebx+924]
	mov	edx, DWORD PTR [eax+20]
	test	edx, edx
	je	L199
	.loc 1 791 0
	mov	DWORD PTR [esp], edx
	call	_purple_input_remove
LVL443:
	.loc 1 792 0
	mov	eax, DWORD PTR [ebx+924]
	mov	DWORD PTR [eax+20], 0
L199:
	.loc 1 796 0
	and	WORD PTR [ebx+908], -2
	.loc 1 797 0
	mov	DWORD PTR [esp], eax
	call	_purple_proxy_connect_cancel_with_handle
LVL444:
	.loc 1 800 0
	mov	eax, DWORD PTR [esp+28]
	xor	eax, DWORD PTR ___stack_chk_guard
	jne	L206
	mov	eax, ebx
	.loc 1 801 0
	add	esp, 40
LCFI165:
	.cfi_remember_state
	.cfi_def_cfa_offset 8
	pop	ebx
LCFI166:
	.cfi_restore 3
	.cfi_def_cfa_offset 4
	.loc 1 800 0
	jmp	_mxit_login_connect
LVL445:
L206:
LCFI167:
	.cfi_restore_state
	call	___stack_chk_fail
LVL446:
	.cfi_endproc
LFE107:
	.section .rdata,"dr"
LC98:
	.ascii "mxit_register\12\0"
	.text
	.p2align 2,,3
	.globl	_mxit_register
	.def	_mxit_register;	.scl	2;	.type	32;	.endef
_mxit_register:
LFB108:
	.loc 1 810 0
	.cfi_startproc
LVL447:
	push	ebx
LCFI168:
	.cfi_def_cfa_offset 8
	.cfi_offset 3, -8
	sub	esp, 56
LCFI169:
	.cfi_def_cfa_offset 64
	mov	ebx, DWORD PTR [esp+64]
	.loc 1 810 0
	mov	eax, DWORD PTR ___stack_chk_guard
	mov	DWORD PTR [esp+44], eax
	xor	eax, eax
LVL448:
	.loc 1 813 0
	mov	DWORD PTR [esp+4], OFFSET FLAT:LC98
	mov	DWORD PTR [esp], OFFSET FLAT:LC11
	call	_purple_debug_info
LVL449:
	.loc 1 816 0
	mov	eax, ebx
	call	_mxit_create_object
LVL450:
	.loc 1 817 0
	mov	DWORD PTR [esp+8], 1
	mov	DWORD PTR [esp+4], OFFSET FLAT:LC44
	mov	DWORD PTR [esp], ebx
	mov	DWORD PTR [esp+28], eax
	call	_purple_account_set_int
LVL451:
	.loc 1 819 0
	mov	edx, DWORD PTR [esp+44]
	xor	edx, DWORD PTR ___stack_chk_guard
	mov	eax, DWORD PTR [esp+28]
	jne	L211
	.loc 1 820 0
	add	esp, 56
LCFI170:
	.cfi_remember_state
	.cfi_def_cfa_offset 8
	pop	ebx
LCFI171:
	.cfi_restore 3
	.cfi_def_cfa_offset 4
	.loc 1 819 0
	jmp	_get_clientinfo
LVL452:
L211:
LCFI172:
	.cfi_restore_state
	call	___stack_chk_fail
LVL453:
	.cfi_endproc
LFE108:
Letext0:
	.file 2 "c:/workspace/pidgin-devel/win32-dev/mingw-4.7.2/bin/../lib/gcc/mingw32/4.7.2/../../../../include/stdio.h"
	.file 3 "c:/workspace/pidgin-devel/win32-dev/mingw-4.7.2/bin/../lib/gcc/mingw32/4.7.2/include/stddef.h"
	.file 4 "c:/workspace/pidgin-devel/win32-dev/mingw-4.7.2/bin/../lib/gcc/mingw32/4.7.2/../../../../include/sys/types.h"
	.file 5 "c:/workspace/pidgin-devel/win32-dev/mingw-4.7.2/bin/../lib/gcc/mingw32/4.7.2/../../../../include/time.h"
	.file 6 "../../../../win32-dev/gtk_2_0-2.14/lib/glib-2.0/include/glibconfig.h"
	.file 7 "../../../../win32-dev/gtk_2_0-2.14/include/glib-2.0/glib/gtypes.h"
	.file 8 "../../../../win32-dev/gtk_2_0-2.14/include/glib-2.0/glib/glist.h"
	.file 9 "../../../../win32-dev/gtk_2_0-2.14/include/glib-2.0/glib/ghash.h"
	.file 10 "../../../../win32-dev/gtk_2_0-2.14/include/glib-2.0/glib/gslist.h"
	.file 11 "../../../../win32-dev/gtk_2_0-2.14/include/glib-2.0/glib/gmain.h"
	.file 12 "../../../../win32-dev/gtk_2_0-2.14/include/glib-2.0/gobject/gclosure.h"
	.file 13 "../../../libpurple/account.h"
	.file 14 "../../../libpurple/connection.h"
	.file 15 "../../../../win32-dev/gtk_2_0-2.14/include/glib-2.0/glib/gstrfuncs.h"
	.file 16 "../../../libpurple/plugin.h"
	.file 17 "../../../libpurple/pluginpref.h"
	.file 18 "../../../libpurple/status.h"
	.file 19 "../../../libpurple/buddyicon.h"
	.file 20 "../../../libpurple/conversation.h"
	.file 21 "../../../libpurple/log.h"
	.file 22 "../../../libpurple/media/../util.h"
	.file 23 "../../../libpurple/media/../notify.h"
	.file 24 "../../../libpurple/eventloop.h"
	.file 25 "../../../libpurple/proxy.h"
	.file 26 "../../../libpurple/privacy.h"
	.file 27 "../../../libpurple/request.h"
	.file 28 "protocol.h"
	.file 29 "mxit.h"
	.file 30 "profile.h"
	.file 31 "login.h"
	.file 32 "c:/workspace/pidgin-devel/win32-dev/mingw-4.7.2/bin/../lib/gcc/mingw32/4.7.2/../../../../include/ctype.h"
	.file 33 "../../../../win32-dev/gtk_2_0-2.14/include/glib-2.0/glib/gmem.h"
	.file 34 "../../../libpurple/debug.h"
	.file 35 "../../../../win32-dev/gtk_2_0-2.14/include/libintl.h"
	.file 36 "c:/workspace/pidgin-devel/win32-dev/mingw-4.7.2/bin/../lib/gcc/mingw32/4.7.2/../../../../include/string.h"
	.file 37 "cipher.h"
	.file 38 "c:/workspace/pidgin-devel/win32-dev/mingw-4.7.2/bin/../lib/gcc/mingw32/4.7.2/../../../../include/stdlib.h"