	.file	"markup.c"
	.intel_syntax noprefix
	.text
Ltext0:
	.section .rdata,"dr"
LC0:
	.ascii "(NULL)\0"
	.align 4
LC1:
	.ascii "msim_convert_xmlnode: got root=%s\12\0"
LC2:
	.ascii "msim\0"
LC3:
	.ascii " ** node name=%s\12\0"
	.align 4
LC4:
	.ascii "msim_convert_xmlnode: unknown node type\12\0"
	.text
	.p2align 2,,3
	.def	_msim_convert_xmlnode;	.scl	3;	.type	32;	.endef
_msim_convert_xmlnode:
LFB107:
	.file 1 "markup.c"
	.loc 1 601 0
	.cfi_startproc
LVL0:
	push	ebp
LCFI0:
	.cfi_def_cfa_offset 8
	.cfi_offset 5, -8
	push	edi
LCFI1:
	.cfi_def_cfa_offset 12
	.cfi_offset 7, -12
	push	esi
LCFI2:
	.cfi_def_cfa_offset 16
	.cfi_offset 6, -16
	push	ebx
LCFI3:
	.cfi_def_cfa_offset 20
	.cfi_offset 3, -20
	sub	esp, 60
LCFI4:
	.cfi_def_cfa_offset 80
	mov	DWORD PTR [esp+24], eax
	mov	ebx, ecx
	mov	edi, DWORD PTR [esp+80]
	mov	ebp, DWORD PTR [esp+84]
	.loc 1 601 0
	mov	eax, DWORD PTR ___stack_chk_guard
	mov	DWORD PTR [esp+44], eax
	xor	eax, eax
LVL1:
	.loc 1 606 0
	test	ecx, ecx
	je	L1
	.loc 1 606 0 is_stmt 0 discriminator 1
	mov	eax, DWORD PTR [ecx]
	test	eax, eax
	je	L1
	mov	esi, edx
	.loc 1 609 0 is_stmt 1
	mov	DWORD PTR [esp+8], eax
	mov	DWORD PTR [esp+4], OFFSET FLAT:LC1
	mov	DWORD PTR [esp], OFFSET FLAT:LC2
	call	_purple_debug_info
LVL2:
	.loc 1 612 0
	mov	DWORD PTR [esp+40], 0
LVL3:
	mov	DWORD PTR [esp+36], 0
LVL4:
	.loc 1 614 0
	test	ebp, ebp
	je	L30
	mov	DWORD PTR [esp+28], ebp
	xor	eax, eax
LVL5:
L3:
	.loc 1 617 0
	mov	DWORD PTR [esp+4], eax
	mov	DWORD PTR [esp], esi
	call	_g_string_append
LVL6:
	.loc 1 618 0
	mov	eax, DWORD PTR [esp+36]
	mov	DWORD PTR [esp], eax
	call	_g_free
LVL7:
	.loc 1 621 0
	mov	ebx, DWORD PTR [ebx+24]
LVL8:
	test	ebx, ebx
	jne	L21
	jmp	L12
	.p2align 2,,3
L7:
	.loc 1 629 0
	mov	eax, DWORD PTR [esp+28]
	mov	DWORD PTR [esp+4], eax
	mov	DWORD PTR [esp], edi
	mov	ecx, ebx
	mov	edx, esi
	mov	eax, DWORD PTR [esp+24]
	call	_msim_convert_xmlnode
LVL9:
	.loc 1 632 0
	mov	eax, DWORD PTR [ebx]
	.loc 1 631 0
	test	eax, eax
	je	L31
L10:
	.loc 1 631 0 is_stmt 0 discriminator 3
	mov	DWORD PTR [esp+8], eax
	mov	DWORD PTR [esp+4], OFFSET FLAT:LC3
	mov	DWORD PTR [esp], OFFSET FLAT:LC2
	call	_purple_debug_info
LVL10:
L8:
	.loc 1 621 0 is_stmt 1
	mov	ebx, DWORD PTR [ebx+32]
LVL11:
	test	ebx, ebx
	je	L12
L21:
	.loc 1 622 0
	mov	eax, DWORD PTR [ebx+8]
	cmp	eax, 1
	je	L8
	jb	L7
	cmp	eax, 2
	je	L32
	.loc 1 647 0
	mov	DWORD PTR [esp+4], OFFSET FLAT:LC4
	mov	DWORD PTR [esp], OFFSET FLAT:LC2
	call	_purple_debug_warning
LVL12:
	.loc 1 621 0
	mov	ebx, DWORD PTR [ebx+32]
LVL13:
	test	ebx, ebx
	jne	L21
L12:
	.loc 1 656 0
	mov	eax, DWORD PTR [esp+40]
	mov	DWORD PTR [esp+4], eax
	mov	DWORD PTR [esp], esi
	call	_g_string_append
LVL14:
	.loc 1 657 0
	mov	eax, DWORD PTR [esp+40]
	mov	DWORD PTR [esp], eax
	call	_g_free
LVL15:
L1:
	.loc 1 658 0
	mov	eax, DWORD PTR [esp+44]
	xor	eax, DWORD PTR ___stack_chk_guard
	jne	L33
	add	esp, 60
LCFI5:
	.cfi_remember_state
	.cfi_def_cfa_offset 20
	pop	ebx
LCFI6:
	.cfi_restore 3
	.cfi_def_cfa_offset 16
	pop	esi
LCFI7:
	.cfi_restore 6
	.cfi_def_cfa_offset 12
	pop	edi
LCFI8:
	.cfi_restore 7
	.cfi_def_cfa_offset 8
	pop	ebp
LCFI9:
	.cfi_restore 5
	.cfi_def_cfa_offset 4
	ret
LVL16:
	.p2align 2,,3
L32:
LCFI10:
	.cfi_restore_state
	.loc 1 641 0
	mov	eax, DWORD PTR [ebx+16]
	mov	DWORD PTR [esp+4], eax
	mov	eax, DWORD PTR [ebx+12]
	mov	DWORD PTR [esp], eax
	call	_g_markup_escape_text
LVL17:
	mov	ebp, eax
LVL18:
	.loc 1 642 0
	mov	DWORD PTR [esp+4], eax
	mov	DWORD PTR [esp], esi
	call	_g_string_append
LVL19:
	.loc 1 643 0
	mov	DWORD PTR [esp], ebp
	call	_g_free
LVL20:
	.loc 1 644 0
	jmp	L8
LVL21:
	.p2align 2,,3
L31:
	.loc 1 631 0
	mov	eax, OFFSET FLAT:LC0
	jmp	L10
LVL22:
	.p2align 2,,3
L30:
	.loc 1 615 0
	lea	eax, [esp+40]
	mov	DWORD PTR [esp+12], eax
	lea	eax, [esp+36]
	mov	DWORD PTR [esp+8], eax
	mov	DWORD PTR [esp+4], ebx
	mov	eax, DWORD PTR [esp+24]
	mov	DWORD PTR [esp], eax
	call	edi
LVL23:
	mov	DWORD PTR [esp+28], eax
LVL24:
	mov	eax, DWORD PTR [esp+36]
LVL25:
	jmp	L3
LVL26:
L33:
	.loc 1 658 0
	call	___stack_chk_fail
LVL27:
	.cfi_endproc
LFE107:
	.section .rdata,"dr"
	.align 4
LC5:
	.ascii "msim_markup_to_html: couldn't parse %s as XML, returning raw: %s\12\0"
	.align 4
LC6:
	.ascii "msim_markup_to_html: returning %s\12\0"
LC7:
	.ascii "raw != NULL\0"
LC8:
	.ascii "</root>\0"
LC9:
	.ascii "<root>\0"
	.text
	.p2align 2,,3
	.def	_msim_convert_xml;	.scl	3;	.type	32;	.endef
_msim_convert_xml:
LFB108:
	.loc 1 665 0
	.cfi_startproc
LVL28:
	push	ebp
LCFI11:
	.cfi_def_cfa_offset 8
	.cfi_offset 5, -8
	push	edi
LCFI12:
	.cfi_def_cfa_offset 12
	.cfi_offset 7, -12
	push	esi
LCFI13:
	.cfi_def_cfa_offset 16
	.cfi_offset 6, -16
	push	ebx
LCFI14:
	.cfi_def_cfa_offset 20
	.cfi_offset 3, -20
	sub	esp, 60
LCFI15:
	.cfi_def_cfa_offset 80
	mov	DWORD PTR [esp+28], eax
	mov	ebx, edx
	.loc 1 665 0
	mov	eax, DWORD PTR ___stack_chk_guard
	mov	DWORD PTR [esp+44], eax
	xor	eax, eax
LVL29:
LBB7:
	.loc 1 670 0
	test	edx, edx
	je	L45
	mov	ebp, ecx
LVL30:
LBE7:
	.loc 1 673 0
	mov	DWORD PTR [esp+12], 0
	mov	DWORD PTR [esp+8], OFFSET FLAT:LC8
	mov	DWORD PTR [esp+4], edx
	mov	DWORD PTR [esp], OFFSET FLAT:LC9
	call	_g_strconcat
LVL31:
	mov	edi, eax
LVL32:
	.loc 1 675 0
	mov	DWORD PTR [esp+4], -1
	mov	DWORD PTR [esp], eax
	call	_xmlnode_from_str
LVL33:
	mov	esi, eax
LVL34:
	.loc 1 677 0
	test	eax, eax
	je	L46
	.loc 1 685 0
	mov	DWORD PTR [esp], edi
	call	_g_free
LVL35:
	.loc 1 687 0
	mov	DWORD PTR [esp], 0
	call	_g_string_new
LVL36:
	mov	ebx, eax
LVL37:
	.loc 1 688 0
	mov	DWORD PTR [esp+4], 0
	mov	DWORD PTR [esp], ebp
	mov	ecx, esi
	mov	edx, eax
	mov	eax, DWORD PTR [esp+28]
LVL38:
	call	_msim_convert_xmlnode
LVL39:
	.loc 1 689 0
	mov	DWORD PTR [esp], esi
	call	_xmlnode_free
LVL40:
	.loc 1 691 0
	mov	eax, DWORD PTR [ebx]
	mov	DWORD PTR [esp+8], eax
	mov	DWORD PTR [esp+4], OFFSET FLAT:LC6
	mov	DWORD PTR [esp], OFFSET FLAT:LC2
	call	_purple_debug_info
LVL41:
	.loc 1 693 0
	mov	DWORD PTR [esp+4], 0
	mov	DWORD PTR [esp], ebx
	call	_g_string_free
LVL42:
L37:
	.loc 1 694 0
	mov	edx, DWORD PTR [esp+44]
	xor	edx, DWORD PTR ___stack_chk_guard
	jne	L47
	add	esp, 60
LCFI16:
	.cfi_remember_state
	.cfi_def_cfa_offset 20
	pop	ebx
LCFI17:
	.cfi_restore 3
	.cfi_def_cfa_offset 16
	pop	esi
LCFI18:
	.cfi_restore 6
	.cfi_def_cfa_offset 12
	pop	edi
LCFI19:
	.cfi_restore 7
	.cfi_def_cfa_offset 8
	pop	ebp
LCFI20:
	.cfi_restore 5
	.cfi_def_cfa_offset 4
	ret
LVL43:
	.p2align 2,,3
L45:
LCFI21:
	.cfi_restore_state
	.loc 1 670 0
	mov	DWORD PTR [esp+8], OFFSET FLAT:LC7
	mov	DWORD PTR [esp+4], OFFSET FLAT:___PRETTY_FUNCTION__.44620
	mov	DWORD PTR [esp], 0
	call	_g_return_if_fail_warning
LVL44:
	xor	eax, eax
	jmp	L37
LVL45:
	.p2align 2,,3
L46:
	.loc 1 678 0
	mov	DWORD PTR [esp+12], ebx
	mov	DWORD PTR [esp+8], edi
	mov	DWORD PTR [esp+4], OFFSET FLAT:LC5
	mov	DWORD PTR [esp], OFFSET FLAT:LC2
	call	_purple_debug_warning
LVL46:
	.loc 1 681 0
	mov	DWORD PTR [esp], edi
	call	_g_free
LVL47:
	.loc 1 682 0
	mov	DWORD PTR [esp], ebx
	call	_g_strdup
LVL48:
	jmp	L37
LVL49:
L47:
	.loc 1 694 0
	call	___stack_chk_fail
LVL50:
	.cfi_endproc
LFE108:
	.p2align 2,,3
	.def	_msim_round;	.scl	3;	.type	32;	.endef
_msim_round:
LFB93:
	.loc 1 107 0
	.cfi_startproc
LVL51:
	sub	esp, 44
LCFI22:
	.cfi_def_cfa_offset 48
	fld	QWORD PTR [esp+48]
	.loc 1 107 0
	mov	eax, DWORD PTR ___stack_chk_guard
	mov	DWORD PTR [esp+28], eax
	xor	eax, eax
	.loc 1 108 0
	fldz
	fucomp	st(1)
	fnstsw	ax
	test	ah, 69
	je	L58
	.loc 1 111 0
	mov	eax, DWORD PTR [esp+28]
	xor	eax, DWORD PTR ___stack_chk_guard
	jne	L59
	fadd	DWORD PTR LC11
	fstp	QWORD PTR [esp+48]
	.loc 1 113 0
	add	esp, 44
LCFI23:
	.cfi_remember_state
	.cfi_def_cfa_offset 4
	.loc 1 111 0
	jmp	_floor
LVL52:
	.p2align 2,,3
L58:
LCFI24:
	.cfi_restore_state
LBB10:
LBB11:
	.loc 1 109 0
	fsubr	DWORD PTR LC11
LVL53:
	fstp	QWORD PTR [esp]
	call	_floor
LVL54:
	fchs
LBE11:
LBE10:
	.loc 1 113 0
	mov	eax, DWORD PTR [esp+28]
	xor	eax, DWORD PTR ___stack_chk_guard
	jne	L60
	add	esp, 44
LCFI25:
	.cfi_remember_state
	.cfi_def_cfa_offset 4
	ret
LVL55:
L59:
LCFI26:
	.cfi_restore_state
	fstp	st(0)
	jmp	L56
LVL56:
L60:
	fstp	st(0)
LVL57:
L56:
	call	___stack_chk_fail
LVL58:
	.cfi_endproc
LFE93:
	.section .rdata,"dr"
LC13:
	.ascii "root\0"
LC14:
	.ascii "\0"
LC15:
	.ascii "html\0"
LC16:
	.ascii "b\0"
LC17:
	.ascii "<f s='%d'>\0"
LC18:
	.ascii "</f>\0"
LC19:
	.ascii "i\0"
LC20:
	.ascii "u\0"
LC21:
	.ascii "a\0"
LC22:
	.ascii "href\0"
LC23:
	.ascii "HREF\0"
LC24:
	.ascii "<a h='%s' />\0"
LC25:
	.ascii "%s: <a h='%s' />\0"
LC26:
	.ascii "<a />\0"
LC27:
	.ascii "font\0"
LC28:
	.ascii "size\0"
LC29:
	.ascii "face\0"
LC30:
	.ascii "color\0"
LC31:
	.ascii "<f\0"
LC32:
	.ascii " f='%s'\0"
LC33:
	.ascii "base_font_size\0"
	.align 4
LC34:
	.ascii "msim_purple_size_to_point: size=%d -> %d pt\12\0"
LC35:
	.ascii "dpi\0"
LC37:
	.ascii " h='%d'\0"
LC38:
	.ascii ">\0"
LC39:
	.ascii "<c v='%s'>\0"
LC40:
	.ascii "</c>\0"
LC41:
	.ascii "body\0"
LC42:
	.ascii "bgcolor\0"
LC43:
	.ascii "<b v='%s'>\0"
LC44:
	.ascii "</b>\0"
	.align 4
LC45:
	.ascii "html_tag_to_msim_markup: unrecognized HTML tag %s was sent by the IM client; ignoring\0"
	.text
	.p2align 2,,3
	.def	_html_tag_to_msim_markup;	.scl	3;	.type	32;	.endef
_html_tag_to_msim_markup:
LFB106:
	.loc 1 444 0
	.cfi_startproc
LVL59:
	push	ebp
LCFI27:
	.cfi_def_cfa_offset 8
	.cfi_offset 5, -8
	push	edi
LCFI28:
	.cfi_def_cfa_offset 12
	.cfi_offset 7, -12
	push	esi
LCFI29:
	.cfi_def_cfa_offset 16
	.cfi_offset 6, -16
	push	ebx
LCFI30:
	.cfi_def_cfa_offset 20
	.cfi_offset 3, -20
	sub	esp, 92
LCFI31:
	.cfi_def_cfa_offset 112
	mov	edi, DWORD PTR [esp+112]
	mov	ebp, DWORD PTR [esp+116]
	mov	esi, DWORD PTR [esp+120]
	mov	ebx, DWORD PTR [esp+124]
	.loc 1 444 0
	mov	eax, DWORD PTR ___stack_chk_guard
	mov	DWORD PTR [esp+76], eax
	xor	eax, eax
LVL60:
	.loc 1 447 0
	mov	DWORD PTR [esp+4], OFFSET FLAT:LC13
	mov	eax, DWORD PTR [ebp+0]
	mov	DWORD PTR [esp], eax
	call	_purple_utf8_strcasecmp
LVL61:
	test	eax, eax
	je	L64
	.loc 1 448 0 discriminator 1
	mov	DWORD PTR [esp+4], OFFSET FLAT:LC15
	mov	eax, DWORD PTR [ebp+0]
	mov	DWORD PTR [esp], eax
	call	_purple_utf8_strcasecmp
LVL62:
	.loc 1 447 0 discriminator 1
	test	eax, eax
	jne	L112
L64:
	.loc 1 449 0
	mov	DWORD PTR [esp], OFFSET FLAT:LC14
	call	_g_strdup
LVL63:
	mov	DWORD PTR [esi], eax
	.loc 1 450 0
	mov	DWORD PTR [esp], OFFSET FLAT:LC14
	call	_g_strdup
LVL64:
	mov	DWORD PTR [ebx], eax
	.loc 1 445 0
	xor	eax, eax
L63:
LVL65:
	.loc 1 590 0
	mov	edx, DWORD PTR [esp+76]
	xor	edx, DWORD PTR ___stack_chk_guard
	jne	L113
	add	esp, 92
LCFI32:
	.cfi_remember_state
	.cfi_def_cfa_offset 20
	pop	ebx
LCFI33:
	.cfi_restore 3
	.cfi_def_cfa_offset 16
	pop	esi
LCFI34:
	.cfi_restore 6
	.cfi_def_cfa_offset 12
	pop	edi
LCFI35:
	.cfi_restore 7
	.cfi_def_cfa_offset 8
	pop	ebp
LCFI36:
	.cfi_restore 5
	.cfi_def_cfa_offset 4
	ret
LVL66:
	.p2align 2,,3
L112:
LCFI37:
	.cfi_restore_state
LBB22:
LBB23:
	.loc 1 455 0
	mov	DWORD PTR [esp+4], OFFSET FLAT:LC16
	mov	eax, DWORD PTR [ebp+0]
	mov	DWORD PTR [esp], eax
	call	_purple_utf8_strcasecmp
LVL67:
	test	eax, eax
	jne	L65
	.loc 1 456 0
	mov	eax, DWORD PTR [ebp+24]
	cmp	DWORD PTR [eax+8], 2
	je	L114
	.loc 1 460 0
	mov	DWORD PTR [esp+4], OFFSET FLAT:LC19
	mov	eax, DWORD PTR [eax]
	mov	DWORD PTR [esp], eax
	call	_purple_utf8_strcasecmp
LVL68:
	test	eax, eax
	jne	L68
LVL69:
	.loc 1 462 0
	mov	eax, DWORD PTR [ebp+24]
	mov	eax, DWORD PTR [eax+24]
	cmp	DWORD PTR [eax+8], 2
	je	L115
	.loc 1 466 0
	mov	DWORD PTR [esp+4], OFFSET FLAT:LC20
	mov	eax, DWORD PTR [eax]
	mov	DWORD PTR [esp], eax
	call	_purple_utf8_strcasecmp
LVL70:
	test	eax, eax
	je	L116
	.loc 1 461 0
	mov	eax, 1
	jmp	L63
LVL71:
	.p2align 2,,3
L65:
	.loc 1 478 0
	mov	DWORD PTR [esp+4], OFFSET FLAT:LC19
	mov	eax, DWORD PTR [ebp+0]
	mov	DWORD PTR [esp], eax
	call	_purple_utf8_strcasecmp
LVL72:
	test	eax, eax
	jne	L71
	.loc 1 479 0
	mov	eax, DWORD PTR [ebp+24]
	cmp	DWORD PTR [eax+8], 2
	je	L117
	.loc 1 483 0
	mov	DWORD PTR [esp+4], OFFSET FLAT:LC20
	mov	eax, DWORD PTR [eax]
	mov	DWORD PTR [esp], eax
	call	_purple_utf8_strcasecmp
LVL73:
	test	eax, eax
	je	L118
L111:
LBB24:
	.loc 1 445 0
	xor	eax, eax
	jmp	L63
LVL74:
	.p2align 2,,3
L116:
LBE24:
	.loc 1 468 0
	mov	DWORD PTR [esp+4], 7
	mov	DWORD PTR [esp], OFFSET FLAT:LC17
	call	_g_strdup_printf
LVL75:
	mov	DWORD PTR [esi], eax
	.loc 1 469 0
	mov	DWORD PTR [esp], OFFSET FLAT:LC18
	call	_g_strdup
LVL76:
	mov	DWORD PTR [ebx], eax
	.loc 1 467 0
	mov	eax, 2
	jmp	L63
LVL77:
	.p2align 2,,3
L71:
	.loc 1 489 0
	mov	DWORD PTR [esp+4], OFFSET FLAT:LC20
	mov	eax, DWORD PTR [ebp+0]
	mov	DWORD PTR [esp], eax
	call	_purple_utf8_strcasecmp
LVL78:
	test	eax, eax
	je	L119
	.loc 1 492 0
	mov	DWORD PTR [esp+4], OFFSET FLAT:LC21
	mov	eax, DWORD PTR [ebp+0]
	mov	DWORD PTR [esp], eax
	call	_purple_utf8_strcasecmp
LVL79:
	test	eax, eax
	jne	L75
LBB25:
	.loc 1 496 0
	mov	DWORD PTR [esp+4], OFFSET FLAT:LC22
	mov	DWORD PTR [esp], ebp
	call	_xmlnode_get_attrib
LVL80:
	mov	edi, eax
LVL81:
	.loc 1 498 0
	test	eax, eax
	je	L120
	.loc 1 502 0
	mov	DWORD PTR [esp], ebp
	call	_xmlnode_get_data
LVL82:
	mov	DWORD PTR [esp+32], eax
LVL83:
L87:
	.loc 1 505 0
	mov	DWORD PTR [esp+4], edi
	mov	eax, DWORD PTR [esp+32]
LVL84:
	mov	DWORD PTR [esp], eax
	call	_g_str_equal
LVL85:
	test	eax, eax
	je	L78
	.loc 1 510 0
	mov	DWORD PTR [esp+4], edi
	mov	DWORD PTR [esp], OFFSET FLAT:LC24
	call	_g_strdup_printf
LVL86:
	mov	DWORD PTR [esi], eax
L79:
	.loc 1 525 0
	mov	eax, DWORD PTR [ebp+24]
	mov	DWORD PTR [esp], eax
	call	_xmlnode_free
LVL87:
	.loc 1 526 0
	mov	eax, DWORD PTR [esp+32]
	mov	DWORD PTR [esp], eax
	call	_g_free
LVL88:
	.loc 1 527 0
	mov	DWORD PTR [ebp+24], 0
	.loc 1 529 0
	mov	DWORD PTR [esp], OFFSET FLAT:LC14
	call	_g_strdup
LVL89:
	mov	DWORD PTR [ebx], eax
	.loc 1 445 0
	xor	eax, eax
	jmp	L63
LVL90:
L118:
LBE25:
	.loc 1 485 0
	mov	DWORD PTR [esp+4], 6
L110:
	.loc 1 474 0
	mov	DWORD PTR [esp], OFFSET FLAT:LC17
	call	_g_strdup_printf
LVL91:
	mov	DWORD PTR [esi], eax
	.loc 1 475 0
	mov	DWORD PTR [esp], OFFSET FLAT:LC18
	call	_g_strdup
LVL92:
	mov	DWORD PTR [ebx], eax
	.loc 1 473 0
	mov	eax, 1
	jmp	L63
LVL93:
	.p2align 2,,3
L68:
	.loc 1 472 0
	mov	DWORD PTR [esp+4], OFFSET FLAT:LC20
	mov	eax, DWORD PTR [ebp+24]
	mov	eax, DWORD PTR [eax]
	mov	DWORD PTR [esp], eax
	call	_purple_utf8_strcasecmp
LVL94:
	test	eax, eax
	jne	L111
LVL95:
	.loc 1 474 0
	mov	DWORD PTR [esp+4], 5
	jmp	L110
LVL96:
	.p2align 2,,3
L114:
	.loc 1 457 0
	mov	DWORD PTR [esp+4], 1
L109:
	.loc 1 480 0
	mov	DWORD PTR [esp], OFFSET FLAT:LC17
	call	_g_strdup_printf
LVL97:
	mov	DWORD PTR [esi], eax
	.loc 1 481 0
	mov	DWORD PTR [esp], OFFSET FLAT:LC18
	call	_g_strdup
LVL98:
	mov	DWORD PTR [ebx], eax
	.loc 1 445 0
	xor	eax, eax
	jmp	L63
LVL99:
L115:
	.loc 1 463 0
	mov	DWORD PTR [esp+4], 3
	jmp	L110
LVL100:
L117:
	.loc 1 480 0
	mov	DWORD PTR [esp+4], 2
	jmp	L109
L119:
	.loc 1 490 0
	mov	DWORD PTR [esp+4], 4
	jmp	L109
L75:
	.loc 1 530 0
	mov	DWORD PTR [esp+4], OFFSET FLAT:LC27
	mov	eax, DWORD PTR [ebp+0]
	mov	DWORD PTR [esp], eax
	call	_purple_utf8_strcasecmp
LVL101:
	test	eax, eax
	jne	L80
LBB26:
	.loc 1 536 0
	mov	DWORD PTR [esp+4], OFFSET FLAT:LC28
	mov	DWORD PTR [esp], ebp
	call	_xmlnode_get_attrib
LVL102:
	mov	DWORD PTR [esp+32], eax
LVL103:
	.loc 1 537 0
	mov	DWORD PTR [esp+4], OFFSET FLAT:LC29
	mov	DWORD PTR [esp], ebp
	call	_xmlnode_get_attrib
LVL104:
	.loc 1 538 0
	mov	DWORD PTR [esp+4], OFFSET FLAT:LC30
	mov	DWORD PTR [esp], ebp
	mov	DWORD PTR [esp+28], eax
	call	_xmlnode_get_attrib
LVL105:
	mov	DWORD PTR [esp+44], eax
LVL106:
	.loc 1 540 0
	mov	DWORD PTR [esp], OFFSET FLAT:LC31
	call	_g_string_new
LVL107:
	mov	ebp, eax
LVL108:
	.loc 1 541 0
	mov	DWORD PTR [esp], OFFSET FLAT:LC18
	call	_g_string_new
LVL109:
	mov	DWORD PTR [esp+48], eax
LVL110:
	.loc 1 543 0
	mov	ecx, DWORD PTR [esp+28]
	test	ecx, ecx
	je	L81
	.loc 1 544 0
	mov	DWORD PTR [esp+8], ecx
	mov	DWORD PTR [esp+4], OFFSET FLAT:LC32
	mov	DWORD PTR [esp], ebp
	call	_g_string_append_printf
LVL111:
L81:
	.loc 1 546 0
	mov	edx, DWORD PTR [esp+32]
	test	edx, edx
	je	L82
	.loc 1 549 0
	mov	eax, DWORD PTR [esp+32]
	mov	DWORD PTR [esp], eax
	call	_atoi
LVL112:
	mov	ecx, eax
LBE26:
LBE23:
	.loc 1 763 0
	mov	edx, DWORD PTR [edi+4]
LVL113:
LBB40:
LBB33:
LBB27:
LBB28:
	.loc 1 150 0
	cmp	eax, 7
	ja	L90
	test	eax, eax
	je	L91
	lea	eax, [eax-1]
LVL114:
L83:
	fld	QWORD PTR __font_scale[0+eax*8]
	fstp	QWORD PTR [esp+32]
LVL115:
	.loc 1 152 0
	mov	DWORD PTR [esp+8], 8
	mov	DWORD PTR [esp+4], OFFSET FLAT:LC33
	mov	DWORD PTR [esp], edx
	mov	DWORD PTR [esp+28], ecx
	call	_purple_account_get_int
LVL116:
	.loc 1 154 0
	xor	edx, edx
	mov	DWORD PTR [esp+56], eax
	mov	DWORD PTR [esp+60], edx
	fild	QWORD PTR [esp+56]
	fmul	QWORD PTR [esp+32]
	fstp	QWORD PTR [esp]
	call	_msim_round
LVL117:
	fnstcw	WORD PTR [esp+54]
	mov	ax, WORD PTR [esp+54]
	mov	ah, 12
	mov	WORD PTR [esp+52], ax
	fldcw	WORD PTR [esp+52]
	fistp	QWORD PTR [esp+56]
	fldcw	WORD PTR [esp+54]
	mov	eax, DWORD PTR [esp+56]
	mov	DWORD PTR [esp+32], eax
LVL118:
	.loc 1 156 0
	mov	DWORD PTR [esp+12], eax
	mov	ecx, DWORD PTR [esp+28]
	mov	DWORD PTR [esp+8], ecx
	mov	DWORD PTR [esp+4], OFFSET FLAT:LC34
	mov	DWORD PTR [esp], OFFSET FLAT:LC2
	call	_purple_debug_info
LVL119:
LBE28:
LBE27:
LBB30:
LBB31:
	.loc 1 186 0
	mov	DWORD PTR [esp+8], 96
	mov	DWORD PTR [esp+4], OFFSET FLAT:LC35
	mov	eax, DWORD PTR [edi+4]
	mov	DWORD PTR [esp], eax
	call	_purple_account_get_int
LVL120:
	.loc 1 188 0
	xor	edx, edx
	mov	DWORD PTR [esp+56], eax
	mov	DWORD PTR [esp+60], edx
	fild	QWORD PTR [esp+56]
	fdiv	DWORD PTR LC36
	mov	eax, DWORD PTR [esp+32]
LVL121:
	xor	edx, edx
	mov	DWORD PTR [esp+56], eax
	mov	DWORD PTR [esp+60], edx
	fild	QWORD PTR [esp+56]
	fmulp	st(1), st
	fstp	QWORD PTR [esp]
	call	_msim_round
LVL122:
	fnstcw	WORD PTR [esp+54]
	mov	ax, WORD PTR [esp+54]
	mov	ah, 12
	mov	WORD PTR [esp+52], ax
	fldcw	WORD PTR [esp+52]
	fistp	QWORD PTR [esp+56]
	fldcw	WORD PTR [esp+54]
	mov	eax, DWORD PTR [esp+56]
LBE31:
LBE30:
	.loc 1 547 0
	mov	DWORD PTR [esp+8], eax
	mov	DWORD PTR [esp+4], OFFSET FLAT:LC37
	mov	DWORD PTR [esp], ebp
	call	_g_string_append_printf
LVL123:
L82:
	.loc 1 552 0
	mov	DWORD PTR [esp+4], OFFSET FLAT:LC38
	mov	DWORD PTR [esp], ebp
	call	_g_string_append
LVL124:
	.loc 1 554 0
	mov	eax, DWORD PTR [esp+44]
	test	eax, eax
	je	L84
	.loc 1 555 0
	mov	eax, DWORD PTR [esp+44]
	mov	DWORD PTR [esp+8], eax
	mov	DWORD PTR [esp+4], OFFSET FLAT:LC39
	mov	DWORD PTR [esp], ebp
	call	_g_string_append_printf
LVL125:
	.loc 1 556 0
	mov	DWORD PTR [esp+4], OFFSET FLAT:LC40
	mov	eax, DWORD PTR [esp+48]
	mov	DWORD PTR [esp], eax
	call	_g_string_prepend
LVL126:
L84:
	.loc 1 559 0
	mov	DWORD PTR [esp+4], 0
	mov	DWORD PTR [esp], ebp
	call	_g_string_free
LVL127:
	mov	DWORD PTR [esi], eax
	.loc 1 560 0
	mov	DWORD PTR [esp+4], 0
	mov	eax, DWORD PTR [esp+48]
	mov	DWORD PTR [esp], eax
	call	_g_string_free
LVL128:
	mov	DWORD PTR [ebx], eax
	.loc 1 445 0
	xor	eax, eax
	jmp	L63
LVL129:
L80:
LBE33:
	.loc 1 562 0
	mov	DWORD PTR [esp+4], OFFSET FLAT:LC41
	mov	eax, DWORD PTR [ebp+0]
	mov	DWORD PTR [esp], eax
	call	_purple_utf8_strcasecmp
LVL130:
	test	eax, eax
	jne	L85
LBB34:
	.loc 1 565 0
	mov	DWORD PTR [esp+4], OFFSET FLAT:LC42
	mov	DWORD PTR [esp], ebp
	call	_xmlnode_get_attrib
LVL131:
	.loc 1 567 0
	test	eax, eax
	je	L111
	.loc 1 568 0
	mov	DWORD PTR [esp+4], eax
	mov	DWORD PTR [esp], OFFSET FLAT:LC43
	call	_g_strdup_printf
LVL132:
	mov	DWORD PTR [esi], eax
	.loc 1 569 0
	mov	DWORD PTR [esp], OFFSET FLAT:LC44
	call	_g_strdup
LVL133:
	mov	DWORD PTR [ebx], eax
	.loc 1 445 0
	xor	eax, eax
	jmp	L63
LVL134:
L78:
LBE34:
LBB35:
	.loc 1 518 0
	mov	DWORD PTR [esp+8], edi
	mov	eax, DWORD PTR [esp+32]
	mov	DWORD PTR [esp+4], eax
	mov	DWORD PTR [esp], OFFSET FLAT:LC25
	call	_g_strdup_printf
LVL135:
	mov	DWORD PTR [esi], eax
	jmp	L79
LVL136:
L85:
LBE35:
LBB36:
	.loc 1 579 0
	mov	DWORD PTR [esp], OFFSET FLAT:LC14
	call	_g_strdup
LVL137:
	mov	DWORD PTR [esi], eax
	.loc 1 580 0
	mov	DWORD PTR [esp], OFFSET FLAT:LC14
	call	_g_strdup
LVL138:
	mov	DWORD PTR [ebx], eax
	.loc 1 585 0
	mov	eax, DWORD PTR [ebp+0]
	.loc 1 583 0
	test	eax, eax
	je	L121
L86:
	mov	DWORD PTR [esp+4], eax
	mov	DWORD PTR [esp], OFFSET FLAT:LC45
	call	_g_strdup_printf
LVL139:
	mov	ebx, eax
LVL140:
	.loc 1 586 0
	mov	DWORD PTR [esp+8], eax
	mov	DWORD PTR [esp+4], 0
	mov	DWORD PTR [esp], 0
	call	_msim_unrecognized
LVL141:
	.loc 1 587 0
	mov	DWORD PTR [esp], ebx
	call	_g_free
LVL142:
	.loc 1 445 0
	xor	eax, eax
	jmp	L63
LVL143:
L113:
LBE36:
LBE40:
LBE22:
	.loc 1 590 0
	call	___stack_chk_fail
LVL144:
L90:
LBB42:
LBB41:
LBB37:
LBB32:
LBB29:
	.loc 1 150 0
	mov	eax, 6
LVL145:
	jmp	L83
LVL146:
L91:
	xor	eax, eax
LVL147:
	jmp	L83
LVL148:
L120:
LBE29:
LBE32:
LBE37:
LBB38:
	.loc 1 499 0
	mov	DWORD PTR [esp+4], OFFSET FLAT:LC23
	mov	DWORD PTR [esp], ebp
	call	_xmlnode_get_attrib
LVL149:
	mov	edi, eax
LVL150:
	.loc 1 502 0
	mov	DWORD PTR [esp], ebp
	call	_xmlnode_get_data
LVL151:
	mov	DWORD PTR [esp+32], eax
LVL152:
	.loc 1 504 0
	test	edi, edi
	jne	L87
	.loc 1 521 0
	mov	DWORD PTR [esp], OFFSET FLAT:LC26
	call	_g_strdup
LVL153:
	mov	DWORD PTR [esi], eax
	jmp	L79
LVL154:
L121:
LBE38:
LBB39:
	.loc 1 583 0
	mov	eax, OFFSET FLAT:LC0
	jmp	L86
LBE39:
LBE41:
LBE42:
	.cfi_endproc
LFE106:
	.p2align 2,,3
	.def	_msim_height_to_point.isra.7;	.scl	3;	.type	32;	.endef
_msim_height_to_point.isra.7:
LFB119:
	.loc 1 166 0
	.cfi_startproc
LVL155:
	push	esi
LCFI38:
	.cfi_def_cfa_offset 8
	.cfi_offset 6, -8
	push	ebx
LCFI39:
	.cfi_def_cfa_offset 12
	.cfi_offset 3, -12
	sub	esp, 52
LCFI40:
	.cfi_def_cfa_offset 64
	mov	esi, edx
	.loc 1 166 0
	mov	edx, DWORD PTR ___stack_chk_guard
	mov	DWORD PTR [esp+44], edx
	xor	edx, edx
LVL156:
	.loc 1 170 0
	mov	DWORD PTR [esp+8], 96
	mov	DWORD PTR [esp+4], OFFSET FLAT:LC35
	mov	DWORD PTR [esp], eax
	call	_purple_account_get_int
LVL157:
	.loc 1 172 0
	xor	ebx, ebx
	mov	DWORD PTR [esp+24], eax
	mov	DWORD PTR [esp+28], ebx
	fild	QWORD PTR [esp+24]
	fdivr	DWORD PTR LC36
	xor	edx, edx
	mov	DWORD PTR [esp+24], esi
	mov	DWORD PTR [esp+28], edx
	fild	QWORD PTR [esp+24]
	fmulp	st(1), st
	fstp	QWORD PTR [esp]
	call	_msim_round
LVL158:
	fnstcw	WORD PTR [esp+22]
	mov	ax, WORD PTR [esp+22]
	mov	ah, 12
	mov	WORD PTR [esp+20], ax
	fldcw	WORD PTR [esp+20]
	fistp	QWORD PTR [esp+24]
	fldcw	WORD PTR [esp+22]
	mov	eax, DWORD PTR [esp+24]
	.loc 1 176 0
	mov	edx, DWORD PTR [esp+44]
	xor	edx, DWORD PTR ___stack_chk_guard
	jne	L125
	add	esp, 52
LCFI41:
	.cfi_remember_state
	.cfi_def_cfa_offset 12
	pop	ebx
LCFI42:
	.cfi_restore 3
	.cfi_def_cfa_offset 8
	pop	esi
LCFI43:
	.cfi_restore 6
	.cfi_def_cfa_offset 4
LVL159:
	ret
LVL160:
L125:
LCFI44:
	.cfi_restore_state
	call	___stack_chk_fail
LVL161:
	.cfi_endproc
LFE119:
	.section .rdata,"dr"
	.align 4
LC46:
	.ascii "msim_point_to_purple_size: %d pt -> size=%d\12\0"
	.text
	.p2align 2,,3
	.def	_msim_point_to_purple_size.isra.8;	.scl	3;	.type	32;	.endef
_msim_point_to_purple_size.isra.8:
LFB120:
	.loc 1 120 0
	.cfi_startproc
LVL162:
	push	esi
LCFI45:
	.cfi_def_cfa_offset 8
	.cfi_offset 6, -8
	push	ebx
LCFI46:
	.cfi_def_cfa_offset 12
	.cfi_offset 3, -12
	sub	esp, 68
LCFI47:
	.cfi_def_cfa_offset 80
	mov	ebx, edx
	.loc 1 120 0
	mov	edx, DWORD PTR ___stack_chk_guard
	mov	DWORD PTR [esp+60], edx
	xor	edx, edx
LVL163:
	.loc 1 124 0
	mov	DWORD PTR [esp+8], 8
	mov	DWORD PTR [esp+4], OFFSET FLAT:LC33
	mov	DWORD PTR [esp], eax
	call	_purple_account_get_int
LVL164:
	xor	edx, edx
	mov	DWORD PTR [esp+32], eax
	mov	DWORD PTR [esp+36], edx
	fild	QWORD PTR [esp+32]
	fstp	QWORD PTR [esp+24]
	.loc 1 126 0
	xor	esi, esi
LVL165:
	.p2align 2,,3
L129:
	.loc 1 127 0
	fld	QWORD PTR [esp+24]
	fmul	QWORD PTR __font_scale[0+esi*8]
	fstp	QWORD PTR [esp]
	call	_msim_round
LVL166:
	fnstcw	WORD PTR [esp+46]
	mov	ax, WORD PTR [esp+46]
	mov	ah, 12
	mov	WORD PTR [esp+44], ax
	fldcw	WORD PTR [esp+44]
	fistp	QWORD PTR [esp+32]
	fldcw	WORD PTR [esp+46]
	mov	eax, DWORD PTR [esp+32]
LVL167:
	.loc 1 129 0
	cmp	eax, ebx
	jae	L133
	.loc 1 126 0
	inc	esi
LVL168:
	cmp	esi, 7
	jne	L129
LVL169:
L128:
	.loc 1 138 0
	mov	edx, DWORD PTR [esp+60]
	xor	edx, DWORD PTR ___stack_chk_guard
	jne	L134
	add	esp, 68
LCFI48:
	.cfi_remember_state
	.cfi_def_cfa_offset 12
	pop	ebx
LCFI49:
	.cfi_restore 3
	.cfi_def_cfa_offset 8
LVL170:
	pop	esi
LCFI50:
	.cfi_restore 6
	.cfi_def_cfa_offset 4
	ret
LVL171:
	.p2align 2,,3
L133:
LCFI51:
	.cfi_restore_state
	.loc 1 130 0
	mov	DWORD PTR [esp+12], esi
	mov	DWORD PTR [esp+8], ebx
	mov	DWORD PTR [esp+4], OFFSET FLAT:LC46
	mov	DWORD PTR [esp], OFFSET FLAT:LC2
	call	_purple_debug_info
LVL172:
	mov	eax, esi
	jmp	L128
L134:
	.loc 1 138 0
	call	___stack_chk_fail
LVL173:
	.cfi_endproc
LFE120:
	.section .rdata,"dr"
LC47:
	.ascii "black\0"
LC48:
	.ascii "rgb(%d,%d,%d)\0"
LC49:
	.ascii "#%.2x%.2x%.2x\0"
	.text
	.p2align 2,,3
	.def	_msim_color_to_purple;	.scl	3;	.type	32;	.endef
_msim_color_to_purple:
LFB99:
	.loc 1 266 0
	.cfi_startproc
LVL174:
	push	ebx
LCFI52:
	.cfi_def_cfa_offset 8
	.cfi_offset 3, -8
	sub	esp, 56
LCFI53:
	.cfi_def_cfa_offset 64
	mov	ebx, eax
	.loc 1 266 0
	mov	eax, DWORD PTR ___stack_chk_guard
	mov	DWORD PTR [esp+44], eax
	xor	eax, eax
LVL175:
	.loc 1 269 0
	test	ebx, ebx
	je	L141
	.loc 1 273 0
	lea	eax, [esp+40]
	mov	DWORD PTR [esp+16], eax
	lea	eax, [esp+36]
	mov	DWORD PTR [esp+12], eax
	lea	eax, [esp+32]
	mov	DWORD PTR [esp+8], eax
	mov	DWORD PTR [esp+4], OFFSET FLAT:LC48
	mov	DWORD PTR [esp], ebx
	call	_sscanf
LVL176:
	cmp	eax, 3
	je	L138
	.loc 1 275 0
	mov	DWORD PTR [esp], ebx
	call	_g_strdup
LVL177:
L137:
	.loc 1 280 0
	mov	edx, DWORD PTR [esp+44]
	xor	edx, DWORD PTR ___stack_chk_guard
	jne	L142
	add	esp, 56
LCFI54:
	.cfi_remember_state
	.cfi_def_cfa_offset 8
	pop	ebx
LCFI55:
	.cfi_restore 3
	.cfi_def_cfa_offset 4
LVL178:
	ret
LVL179:
	.p2align 2,,3
L138:
LCFI56:
	.cfi_restore_state
	.loc 1 279 0
	mov	eax, DWORD PTR [esp+40]
	mov	DWORD PTR [esp+12], eax
LVL180:
	mov	eax, DWORD PTR [esp+36]
	mov	DWORD PTR [esp+8], eax
LVL181:
	mov	eax, DWORD PTR [esp+32]
	mov	DWORD PTR [esp+4], eax
	mov	DWORD PTR [esp], OFFSET FLAT:LC49
	call	_g_strdup_printf
LVL182:
	jmp	L137
LVL183:
	.p2align 2,,3
L141:
LBB45:
LBB46:
	.loc 1 270 0
	mov	DWORD PTR [esp], OFFSET FLAT:LC47
	call	_g_strdup
LVL184:
	jmp	L137
LVL185:
L142:
LBE46:
LBE45:
	.loc 1 280 0
	call	___stack_chk_fail
LVL186:
	.cfi_endproc
LFE99:
	.section .rdata,"dr"
LC50:
	.ascii "f\0"
LC51:
	.ascii "h\0"
LC52:
	.ascii "s\0"
	.align 4
LC53:
	.ascii "<font size='%d'><span style='font-size: %dpt'>\0"
	.align 4
LC54:
	.ascii "<font face='%s' size='%d'><span style='font-family: %s; font-size: %dpt'>\0"
LC55:
	.ascii "<font><span>\0"
LC56:
	.ascii "</span></font>\0"
LC57:
	.ascii "<b>\0"
LC58:
	.ascii "<i>\0"
LC59:
	.ascii "</i>\0"
LC60:
	.ascii "<u>\0"
LC61:
	.ascii "</u>\0"
LC62:
	.ascii "<a href=\"%s\">%s\0"
LC63:
	.ascii "</a>\0"
LC64:
	.ascii "p\0"
LC65:
	.ascii "<p>\0"
LC66:
	.ascii "</p>\0"
LC67:
	.ascii "c\0"
LC68:
	.ascii "v\0"
	.align 4
LC69:
	.ascii "msim_markup_c_to_html: <c> tag w/o v attr\12\0"
LC70:
	.ascii "<font color='%s'>\0"
LC71:
	.ascii "</font>\0"
	.align 4
LC72:
	.ascii "msim_markup_b_to_html: <b> w/o v attr\12\0"
LC73:
	.ascii "<body bgcolor='%s'>\0"
LC74:
	.ascii "</body>\0"
LC75:
	.ascii "n\0"
LC76:
	.ascii "**%s**\0"
	.align 4
LC77:
	.ascii "msim_markup_i_to_html: <i> w/o n\12\0"
	.align 4
LC78:
	.ascii "msim_markup_tag_to_html: unknown tag name=%s, ignoring\12\0"
LC79:
	.ascii "root != NULL\0"
	.text
	.p2align 2,,3
	.def	_msim_markup_tag_to_html;	.scl	3;	.type	32;	.endef
_msim_markup_tag_to_html:
LFB105:
	.loc 1 413 0
	.cfi_startproc
LVL187:
	push	ebp
LCFI57:
	.cfi_def_cfa_offset 8
	.cfi_offset 5, -8
	push	edi
LCFI58:
	.cfi_def_cfa_offset 12
	.cfi_offset 7, -12
	push	esi
LCFI59:
	.cfi_def_cfa_offset 16
	.cfi_offset 6, -16
	push	ebx
LCFI60:
	.cfi_def_cfa_offset 20
	.cfi_offset 3, -20
	sub	esp, 92
LCFI61:
	.cfi_def_cfa_offset 112
	mov	eax, DWORD PTR [esp+112]
	mov	DWORD PTR [esp+48], eax
	mov	edi, DWORD PTR [esp+116]
	mov	esi, DWORD PTR [esp+120]
	mov	edx, DWORD PTR [esp+124]
	mov	DWORD PTR [esp+44], edx
	.loc 1 413 0
	mov	eax, DWORD PTR ___stack_chk_guard
	mov	DWORD PTR [esp+76], eax
	xor	eax, eax
LBB65:
	.loc 1 414 0
	test	edi, edi
	je	L198
LVL188:
LBE65:
	.loc 1 416 0
	mov	DWORD PTR [esp+4], OFFSET FLAT:LC50
	mov	eax, DWORD PTR [edi]
	mov	DWORD PTR [esp], eax
	call	_g_str_equal
LVL189:
	test	eax, eax
	jne	L199
	.loc 1 418 0
	mov	DWORD PTR [esp+4], OFFSET FLAT:LC21
	mov	eax, DWORD PTR [edi]
	mov	DWORD PTR [esp], eax
	call	_g_str_equal
LVL190:
	test	eax, eax
	jne	L200
LVL191:
LBB66:
LBB67:
	.loc 1 420 0
	mov	DWORD PTR [esp+4], OFFSET FLAT:LC64
	mov	eax, DWORD PTR [edi]
	mov	DWORD PTR [esp], eax
	call	_g_str_equal
LVL192:
	test	eax, eax
	jne	L201
	.loc 1 422 0
	mov	DWORD PTR [esp+4], OFFSET FLAT:LC67
	mov	eax, DWORD PTR [edi]
	mov	DWORD PTR [esp], eax
	call	_g_str_equal
LVL193:
	test	eax, eax
	jne	L202
	.loc 1 424 0
	mov	DWORD PTR [esp+4], OFFSET FLAT:LC16
	mov	eax, DWORD PTR [edi]
	mov	DWORD PTR [esp], eax
	call	_g_str_equal
LVL194:
	test	eax, eax
	jne	L203
	.loc 1 426 0
	mov	DWORD PTR [esp+4], OFFSET FLAT:LC19
	mov	eax, DWORD PTR [edi]
	mov	DWORD PTR [esp], eax
	call	_g_str_equal
LVL195:
	test	eax, eax
	jne	L204
	.loc 1 431 0
	mov	eax, DWORD PTR [edi]
	.loc 1 429 0
	test	eax, eax
	je	L205
L168:
	mov	DWORD PTR [esp+8], eax
	mov	DWORD PTR [esp+4], OFFSET FLAT:LC78
	mov	DWORD PTR [esp], OFFSET FLAT:LC2
	call	_purple_debug_info
LVL196:
L195:
	.loc 1 432 0
	mov	DWORD PTR [esp], OFFSET FLAT:LC14
LVL197:
L194:
	call	_g_strdup
LVL198:
L196:
	mov	DWORD PTR [esi], eax
	.loc 1 433 0
	mov	DWORD PTR [esp], OFFSET FLAT:LC14
	call	_g_strdup
LVL199:
	mov	edx, DWORD PTR [esp+44]
	mov	DWORD PTR [edx], eax
	jmp	L155
LVL200:
	.p2align 2,,3
L200:
LBE67:
LBE66:
LBB89:
LBB90:
	.loc 1 290 0
	mov	DWORD PTR [esp+4], OFFSET FLAT:LC51
	mov	DWORD PTR [esp], edi
	call	_xmlnode_get_attrib
LVL201:
	.loc 1 291 0
	test	eax, eax
	je	L206
LVL202:
L157:
	.loc 1 295 0
	mov	DWORD PTR [esp+8], eax
	mov	DWORD PTR [esp+4], eax
	mov	DWORD PTR [esp], OFFSET FLAT:LC62
	call	_g_strdup_printf
LVL203:
	mov	DWORD PTR [esi], eax
	.loc 1 296 0
	mov	DWORD PTR [esp], OFFSET FLAT:LC63
	call	_g_strdup
LVL204:
	mov	edx, DWORD PTR [esp+44]
	mov	DWORD PTR [edx], eax
LVL205:
L155:
LBE90:
LBE89:
	.loc 1 436 0
	xor	eax, eax
	mov	edx, DWORD PTR [esp+76]
	xor	edx, DWORD PTR ___stack_chk_guard
	jne	L207
	add	esp, 92
LCFI62:
	.cfi_remember_state
	.cfi_def_cfa_offset 20
	pop	ebx
LCFI63:
	.cfi_restore 3
	.cfi_def_cfa_offset 16
	pop	esi
LCFI64:
	.cfi_restore 6
	.cfi_def_cfa_offset 12
	pop	edi
LCFI65:
	.cfi_restore 7
	.cfi_def_cfa_offset 8
	pop	ebp
LCFI66:
	.cfi_restore 5
	.cfi_def_cfa_offset 4
	ret
LVL206:
	.p2align 2,,3
L199:
LCFI67:
	.cfi_restore_state
LBB92:
LBB93:
	.loc 1 201 0
	mov	DWORD PTR [esp+4], OFFSET FLAT:LC50
	mov	DWORD PTR [esp], edi
	call	_xmlnode_get_attrib
LVL207:
	mov	ebx, eax
LVL208:
	.loc 1 202 0
	mov	DWORD PTR [esp+4], OFFSET FLAT:LC51
	mov	DWORD PTR [esp], edi
	call	_xmlnode_get_attrib
LVL209:
	mov	ebp, eax
LVL210:
	.loc 1 203 0
	mov	DWORD PTR [esp+4], OFFSET FLAT:LC52
	mov	DWORD PTR [esp], edi
	call	_xmlnode_get_attrib
LVL211:
	mov	edi, eax
LVL212:
	.loc 1 206 0
	test	ebx, ebx
	je	L146
	mov	DWORD PTR [esp+4], 39
	mov	DWORD PTR [esp], ebx
	call	_strchr
LVL213:
	test	eax, eax
	je	L146
	.loc 1 207 0
	xor	ebx, ebx
LVL214:
L146:
	.loc 1 209 0
	test	ebp, ebp
	je	L173
	mov	DWORD PTR [esp], ebp
	call	_atol
LVL215:
	mov	ebp, eax
LVL216:
L147:
	.loc 1 210 0
	test	edi, edi
	je	L174
	mov	DWORD PTR [esp], edi
	call	_atol
LVL217:
	mov	edx, eax
	and	edx, 1
	mov	DWORD PTR [esp+52], edx
	mov	edx, eax
	and	edx, 2
	mov	DWORD PTR [esp+60], edx
	and	eax, 4
	mov	DWORD PTR [esp+56], eax
L148:
	.loc 1 219 0
	mov	DWORD PTR [esp], OFFSET FLAT:LC14
	call	_g_string_new
LVL218:
	mov	edi, eax
LVL219:
	.loc 1 220 0
	test	ebp, ebp
	je	L149
LBB94:
	.loc 1 221 0
	mov	edx, DWORD PTR [esp+48]
	mov	eax, DWORD PTR [edx+4]
LVL220:
	mov	edx, ebp
LBE94:
	.loc 1 220 0
	test	ebx, ebx
	je	L208
LVL221:
LBB95:
	.loc 1 227 0
	call	_msim_height_to_point.isra.7
LVL222:
	mov	ebp, eax
LVL223:
	.loc 1 228 0
	mov	edx, DWORD PTR [esp+48]
	mov	eax, DWORD PTR [edx+4]
LVL224:
	mov	edx, ebp
	call	_msim_point_to_purple_size.isra.8
LVL225:
	mov	DWORD PTR [esp+20], ebp
	mov	DWORD PTR [esp+16], ebx
	mov	DWORD PTR [esp+12], eax
	mov	DWORD PTR [esp+8], ebx
	mov	DWORD PTR [esp+4], OFFSET FLAT:LC54
	mov	DWORD PTR [esp], edi
	call	_g_string_printf
LVL226:
L151:
LBE95:
	.loc 1 236 0
	mov	DWORD PTR [esp], OFFSET FLAT:LC56
	call	_g_string_new
LVL227:
	mov	ebx, eax
LVL228:
	.loc 1 238 0
	mov	eax, DWORD PTR [esp+52]
LVL229:
	test	eax, eax
	jne	L209
	.loc 1 243 0
	mov	ebp, DWORD PTR [esp+60]
	test	ebp, ebp
	jne	L210
L153:
	.loc 1 248 0
	mov	ecx, DWORD PTR [esp+56]
	test	ecx, ecx
	je	L154
	.loc 1 249 0
	mov	DWORD PTR [esp+4], OFFSET FLAT:LC60
	mov	DWORD PTR [esp], edi
	call	_g_string_append
LVL230:
	.loc 1 250 0
	mov	DWORD PTR [esp+4], OFFSET FLAT:LC61
	mov	DWORD PTR [esp], ebx
	call	_g_string_append
LVL231:
L154:
	.loc 1 253 0
	mov	DWORD PTR [esp+4], 0
	mov	DWORD PTR [esp], edi
	call	_g_string_free
LVL232:
	mov	DWORD PTR [esi], eax
	.loc 1 254 0
	mov	DWORD PTR [esp+4], 0
	mov	DWORD PTR [esp], ebx
	call	_g_string_free
LVL233:
	mov	edx, DWORD PTR [esp+44]
	mov	DWORD PTR [edx], eax
	jmp	L155
LVL234:
	.p2align 2,,3
L149:
	.loc 1 233 0
	mov	DWORD PTR [esp+4], OFFSET FLAT:LC55
	mov	DWORD PTR [esp], eax
	call	_g_string_printf
LVL235:
	jmp	L151
LVL236:
	.p2align 2,,3
L202:
LBE93:
LBE92:
LBB99:
LBB84:
LBB68:
LBB69:
	.loc 1 321 0
	mov	DWORD PTR [esp+4], OFFSET FLAT:LC68
	mov	DWORD PTR [esp], edi
	call	_xmlnode_get_attrib
LVL237:
	.loc 1 322 0
	test	eax, eax
	je	L211
	.loc 1 330 0
	call	_msim_color_to_purple
LVL238:
	mov	ebx, eax
LVL239:
	.loc 1 336 0
	mov	DWORD PTR [esp+4], eax
	mov	DWORD PTR [esp], OFFSET FLAT:LC70
	call	_g_strdup_printf
LVL240:
	mov	DWORD PTR [esi], eax
	.loc 1 337 0
	mov	DWORD PTR [esp], OFFSET FLAT:LC71
LVL241:
L197:
LBE69:
LBE68:
LBB71:
LBB72:
	.loc 1 368 0
	call	_g_strdup
LVL242:
	mov	edx, DWORD PTR [esp+44]
	mov	DWORD PTR [edx], eax
	.loc 1 371 0
	mov	DWORD PTR [esp], ebx
	call	_g_free
LVL243:
	jmp	L155
LVL244:
	.p2align 2,,3
L206:
LBE72:
LBE71:
LBE84:
LBE99:
LBB100:
LBB91:
	.loc 1 292 0
	mov	eax, OFFSET FLAT:LC14
LVL245:
	jmp	L157
LVL246:
	.p2align 2,,3
L198:
LBE91:
LBE100:
	.loc 1 414 0
	mov	DWORD PTR [esp+8], OFFSET FLAT:LC79
	mov	DWORD PTR [esp+4], OFFSET FLAT:___PRETTY_FUNCTION__.44573
	mov	DWORD PTR [esp], 0
	call	_g_return_if_fail_warning
LVL247:
	jmp	L155
LVL248:
	.p2align 2,,3
L201:
LBB101:
LBB85:
LBB74:
LBB75:
	.loc 1 308 0
	mov	DWORD PTR [esp], OFFSET FLAT:LC65
	call	_g_strdup
LVL249:
	mov	DWORD PTR [esi], eax
	.loc 1 309 0
	mov	DWORD PTR [esp], OFFSET FLAT:LC66
	call	_g_strdup
LVL250:
	mov	edx, DWORD PTR [esp+44]
	mov	DWORD PTR [edx], eax
	jmp	L155
LVL251:
	.p2align 2,,3
L174:
LBE75:
LBE74:
LBE85:
LBE101:
LBB102:
LBB97:
	.loc 1 210 0
	mov	DWORD PTR [esp+56], 0
	mov	DWORD PTR [esp+60], 0
	mov	DWORD PTR [esp+52], 0
	jmp	L148
LVL252:
	.p2align 2,,3
L173:
	.loc 1 209 0
	mov	ebp, 12
LVL253:
	jmp	L147
LVL254:
	.p2align 2,,3
L209:
	.loc 1 239 0
	mov	DWORD PTR [esp+4], OFFSET FLAT:LC57
	mov	DWORD PTR [esp], edi
	call	_g_string_append
LVL255:
	.loc 1 240 0
	mov	DWORD PTR [esp+4], OFFSET FLAT:LC44
	mov	DWORD PTR [esp], ebx
	call	_g_string_prepend
LVL256:
	.loc 1 243 0
	mov	ebp, DWORD PTR [esp+60]
	test	ebp, ebp
	je	L153
L210:
	.loc 1 244 0
	mov	DWORD PTR [esp+4], OFFSET FLAT:LC58
	mov	DWORD PTR [esp], edi
	call	_g_string_append
LVL257:
	.loc 1 245 0
	mov	DWORD PTR [esp+4], OFFSET FLAT:LC59
	mov	DWORD PTR [esp], ebx
	call	_g_string_append
LVL258:
	jmp	L153
LVL259:
	.p2align 2,,3
L203:
LBE97:
LBE102:
LBB103:
LBB86:
LBB76:
LBB73:
	.loc 1 352 0
	mov	DWORD PTR [esp+4], OFFSET FLAT:LC68
	mov	DWORD PTR [esp], edi
	call	_xmlnode_get_attrib
LVL260:
	.loc 1 353 0
	test	eax, eax
	je	L212
	.loc 1 361 0
	call	_msim_color_to_purple
LVL261:
	mov	ebx, eax
LVL262:
	.loc 1 367 0
	mov	DWORD PTR [esp+4], eax
	mov	DWORD PTR [esp], OFFSET FLAT:LC73
	call	_g_strdup_printf
LVL263:
	mov	DWORD PTR [esi], eax
	.loc 1 368 0
	mov	DWORD PTR [esp], OFFSET FLAT:LC74
	jmp	L197
LVL264:
L212:
	.loc 1 354 0
	mov	DWORD PTR [esp], OFFSET FLAT:LC14
	call	_g_strdup
LVL265:
	mov	DWORD PTR [esi], eax
	.loc 1 355 0
	mov	DWORD PTR [esp], OFFSET FLAT:LC14
	call	_g_strdup
LVL266:
	mov	edx, DWORD PTR [esp+44]
	mov	DWORD PTR [edx], eax
	.loc 1 356 0
	mov	DWORD PTR [esp+4], OFFSET FLAT:LC72
	mov	DWORD PTR [esp], OFFSET FLAT:LC2
	call	_purple_debug_info
LVL267:
	jmp	L155
LVL268:
L204:
LBE73:
LBE76:
LBB77:
LBB78:
	.loc 1 384 0
	mov	DWORD PTR [esp+4], OFFSET FLAT:LC75
	mov	DWORD PTR [esp], edi
	call	_xmlnode_get_attrib
LVL269:
	mov	ebp, eax
LVL270:
	.loc 1 385 0
	test	eax, eax
	je	L164
LVL271:
	.loc 1 394 0
	mov	eax, DWORD PTR _msim_emoticons
LVL272:
	test	eax, eax
	je	L167
	xor	ebx, ebx
	mov	edi, OFFSET FLAT:_msim_emoticons
LVL273:
	jmp	L165
LVL274:
	.p2align 2,,3
L166:
	inc	ebx
LVL275:
	lea	eax, [0+ebx*8]
	lea	edi, _msim_emoticons[eax]
LVL276:
	mov	eax, DWORD PTR _msim_emoticons[eax]
	test	eax, eax
	je	L167
LVL277:
L165:
	.loc 1 395 0
	mov	DWORD PTR [esp+4], eax
	mov	DWORD PTR [esp], ebp
	call	_g_str_equal
LVL278:
	test	eax, eax
	je	L166
	.loc 1 396 0
	mov	eax, DWORD PTR [edi+4]
	mov	DWORD PTR [esp], eax
	jmp	L194
LVL279:
L208:
LBE78:
LBE77:
LBE86:
LBE103:
LBB104:
LBB98:
LBB96:
	.loc 1 221 0
	call	_msim_height_to_point.isra.7
LVL280:
	mov	ebx, eax
LVL281:
	.loc 1 222 0
	mov	edx, DWORD PTR [esp+48]
	mov	eax, DWORD PTR [edx+4]
LVL282:
	mov	edx, ebx
	call	_msim_point_to_purple_size.isra.8
LVL283:
	mov	DWORD PTR [esp+12], ebx
	mov	DWORD PTR [esp+8], eax
	mov	DWORD PTR [esp+4], OFFSET FLAT:LC53
	mov	DWORD PTR [esp], edi
	call	_g_string_printf
LVL284:
	jmp	L151
LVL285:
L205:
LBE96:
LBE98:
LBE104:
LBB105:
LBB87:
	.loc 1 429 0
	mov	eax, OFFSET FLAT:LC0
	jmp	L168
LVL286:
L211:
LBB81:
LBB70:
	.loc 1 323 0
	mov	DWORD PTR [esp+4], OFFSET FLAT:LC69
	mov	DWORD PTR [esp], OFFSET FLAT:LC2
	call	_purple_debug_info
LVL287:
	jmp	L195
LVL288:
L167:
LBE70:
LBE81:
LBB82:
LBB79:
	.loc 1 403 0
	mov	DWORD PTR [esp+4], ebp
	mov	DWORD PTR [esp], OFFSET FLAT:LC76
	call	_g_strdup_printf
LVL289:
	jmp	L196
LVL290:
L207:
LBE79:
LBE82:
LBE87:
LBE105:
	.loc 1 436 0
	call	___stack_chk_fail
LVL291:
L164:
LBB106:
LBB88:
LBB83:
LBB80:
	.loc 1 386 0
	mov	DWORD PTR [esp+4], OFFSET FLAT:LC77
	mov	DWORD PTR [esp], OFFSET FLAT:LC2
	call	_purple_debug_info
LVL292:
	jmp	L195
LBE80:
LBE83:
LBE88:
LBE106:
	.cfi_endproc
LFE105:
	.p2align 2,,3
	.globl	_msim_markup_to_html
	.def	_msim_markup_to_html;	.scl	2;	.type	32;	.endef
_msim_markup_to_html:
LFB110:
	.loc 1 740 0
	.cfi_startproc
LVL293:
	sub	esp, 28
LCFI68:
	.cfi_def_cfa_offset 32
	mov	eax, DWORD PTR [esp+32]
	mov	edx, DWORD PTR [esp+36]
	.loc 1 740 0
	mov	ecx, DWORD PTR ___stack_chk_guard
	mov	DWORD PTR [esp+12], ecx
	xor	ecx, ecx
	.loc 1 741 0
	mov	ecx, DWORD PTR [esp+12]
	xor	ecx, DWORD PTR ___stack_chk_guard
	jne	L217
	mov	ecx, OFFSET FLAT:_msim_markup_tag_to_html
	.loc 1 742 0
	add	esp, 28
LCFI69:
	.cfi_remember_state
	.cfi_def_cfa_offset 4
	.loc 1 741 0
	jmp	_msim_convert_xml
LVL294:
L217:
LCFI70:
	.cfi_restore_state
	call	___stack_chk_fail
LVL295:
	.cfi_endproc
LFE110:
	.section .rdata,"dr"
LC80:
	.ascii "emoticons\0"
LC81:
	.ascii "<i n=\"%s\"/>\0"
	.align 4
LC82:
	.ascii "msim_convert_smileys_to_markup: %s->%s\12\0"
	.text
	.p2align 2,,3
	.globl	_html_to_msim_markup
	.def	_html_to_msim_markup;	.scl	2;	.type	32;	.endef
_html_to_msim_markup:
LFB111:
	.loc 1 752 0
	.cfi_startproc
LVL296:
	push	ebp
LCFI71:
	.cfi_def_cfa_offset 8
	.cfi_offset 5, -8
	push	edi
LCFI72:
	.cfi_def_cfa_offset 12
	.cfi_offset 7, -12
	push	esi
LCFI73:
	.cfi_def_cfa_offset 16
	.cfi_offset 6, -16
	push	ebx
LCFI74:
	.cfi_def_cfa_offset 20
	.cfi_offset 3, -20
	sub	esp, 44
LCFI75:
	.cfi_def_cfa_offset 64
	mov	ebx, DWORD PTR [esp+64]
	.loc 1 752 0
	mov	eax, DWORD PTR ___stack_chk_guard
	mov	DWORD PTR [esp+28], eax
	xor	eax, eax
	.loc 1 755 0
	mov	ecx, OFFSET FLAT:_html_tag_to_msim_markup
	mov	edx, DWORD PTR [esp+68]
	mov	eax, ebx
	call	_msim_convert_xml
LVL297:
	mov	edi, eax
LVL298:
	.loc 1 757 0
	mov	DWORD PTR [esp+8], 1
	mov	DWORD PTR [esp+4], OFFSET FLAT:LC80
	mov	eax, DWORD PTR [ebx+4]
LVL299:
	mov	DWORD PTR [esp], eax
	call	_purple_account_get_bool
LVL300:
	test	eax, eax
	jne	L233
LVL301:
L219:
	.loc 1 763 0
	mov	eax, edi
	mov	edx, DWORD PTR [esp+28]
	xor	edx, DWORD PTR ___stack_chk_guard
	jne	L234
	add	esp, 44
LCFI76:
	.cfi_remember_state
	.cfi_def_cfa_offset 20
	pop	ebx
LCFI77:
	.cfi_restore 3
	.cfi_def_cfa_offset 16
	pop	esi
LCFI78:
	.cfi_restore 6
	.cfi_def_cfa_offset 12
	pop	edi
LCFI79:
	.cfi_restore 7
	.cfi_def_cfa_offset 8
LVL302:
	pop	ebp
LCFI80:
	.cfi_restore 5
	.cfi_def_cfa_offset 4
	ret
LVL303:
	.p2align 2,,3
L233:
LCFI81:
	.cfi_restore_state
LBB110:
LBB111:
	.loc 1 712 0
	mov	edx, DWORD PTR _msim_emoticons
	test	edx, edx
	je	L225
	xor	ebp, ebp
	mov	ecx, OFFSET FLAT:_msim_emoticons
	jmp	L223
LVL304:
	.p2align 2,,3
L226:
LBB112:
	.loc 1 720 0
	mov	edx, eax
	test	esi, esi
	je	L235
L227:
	mov	eax, esi
LVL305:
L222:
	mov	DWORD PTR [esp+12], edx
	mov	DWORD PTR [esp+8], eax
	mov	DWORD PTR [esp+4], OFFSET FLAT:LC82
	mov	DWORD PTR [esp], OFFSET FLAT:LC2
	call	_purple_debug_info
LVL306:
	.loc 1 723 0
	mov	DWORD PTR [esp+8], ebx
	mov	DWORD PTR [esp+4], esi
	mov	DWORD PTR [esp], edi
	call	_purple_strreplace
LVL307:
	mov	esi, eax
LVL308:
	.loc 1 725 0
	mov	DWORD PTR [esp], ebx
	call	_g_free
LVL309:
	.loc 1 726 0
	mov	DWORD PTR [esp], edi
	call	_g_free
LVL310:
LBE112:
	.loc 1 712 0
	inc	ebp
LVL311:
	lea	eax, [0+ebp*8]
	lea	ecx, _msim_emoticons[eax]
LVL312:
	mov	edx, DWORD PTR _msim_emoticons[eax]
	test	edx, edx
	je	L220
	.loc 1 723 0
	mov	edi, esi
LVL313:
L223:
LBB113:
	.loc 1 716 0
	mov	esi, DWORD PTR [ecx+4]
LVL314:
	.loc 1 718 0
	mov	DWORD PTR [esp+4], edx
	mov	DWORD PTR [esp], OFFSET FLAT:LC81
	call	_g_strdup_printf
LVL315:
	mov	ebx, eax
LVL316:
	.loc 1 720 0
	test	eax, eax
	jne	L226
	mov	edx, OFFSET FLAT:LC0
	test	esi, esi
	jne	L227
	.p2align 2,,3
L235:
	mov	eax, OFFSET FLAT:LC0
LVL317:
	jmp	L222
LVL318:
L225:
LBE113:
	.loc 1 712 0
	xor	esi, esi
LVL319:
	.p2align 2,,3
L220:
	.loc 1 759 0
	mov	edi, esi
	jmp	L219
LVL320:
L234:
LBE111:
LBE110:
	.loc 1 763 0
	call	___stack_chk_fail
LVL321:
	.cfi_endproc
LFE111:
	.section .rdata,"dr"
___PRETTY_FUNCTION__.44573:
	.ascii "msim_markup_tag_to_html\0"
	.align 32
__font_scale:
	.long	858993459
	.long	1072378675
	.long	1717986918
	.long	1072588390
	.long	0
	.long	1072693248
	.long	858993459
	.long	1072902963
	.long	1889785610
	.long	1073154621
	.long	1408749273
	.long	1073456611
	.long	-1731730814
	.long	1073780411
LC83:
	.ascii "bigsmile\0"
LC84:
	.ascii ":D\0"
LC85:
	.ascii ":-D\0"
LC86:
	.ascii "devil\0"
LC87:
	.ascii "}:)\0"
LC88:
	.ascii "frazzled\0"
LC89:
	.ascii ":Z\0"
LC90:
	.ascii "geek\0"
LC91:
	.ascii "B)\0"
LC92:
	.ascii "googles\0"
LC93:
	.ascii "%)\0"
LC94:
	.ascii "growl\0"
LC95:
	.ascii ":E\0"
LC96:
	.ascii "laugh\0"
LC97:
	.ascii ":))\0"
LC98:
	.ascii "happy\0"
LC99:
	.ascii ":)\0"
LC100:
	.ascii ":-)\0"
LC101:
	.ascii "happi\0"
LC102:
	.ascii "heart\0"
LC103:
	.ascii ":X\0"
LC104:
	.ascii "mohawk\0"
LC105:
	.ascii "-:\0"
LC106:
	.ascii "mad\0"
LC107:
	.ascii "X(\0"
LC108:
	.ascii "messed\0"
LC109:
	.ascii "X)\0"
LC110:
	.ascii "nerd\0"
LC111:
	.ascii "Q)\0"
LC112:
	.ascii "oops\0"
LC113:
	.ascii ":G\0"
LC114:
	.ascii "pirate\0"
LC115:
	.ascii "P)\0"
LC116:
	.ascii "scared\0"
LC117:
	.ascii ":O\0"
LC118:
	.ascii "sidefrown\0"
LC119:
	.ascii ":{\0"
LC120:
	.ascii "sinister\0"
LC121:
	.ascii ":B\0"
LC122:
	.ascii "smirk\0"
LC123:
	.ascii ":,\0"
LC124:
	.ascii "straight\0"
LC125:
	.ascii ":|\0"
LC126:
	.ascii "tongue\0"
LC127:
	.ascii ":P\0"
LC128:
	.ascii ":p\0"
LC129:
	.ascii "tongy\0"
LC130:
	.ascii "upset\0"
LC131:
	.ascii "B|\0"
LC132:
	.ascii "wink\0"
LC133:
	.ascii ";-)\0"
LC134:
	.ascii ";)\0"
LC135:
	.ascii "winc\0"
LC136:
	.ascii "worried\0"
LC137:
	.ascii ":[\0"
LC138:
	.ascii "kiss\0"
LC139:
	.ascii ":x\0"
	.data
	.align 32
_msim_emoticons:
	.long	LC83
	.long	LC84
	.long	LC83
	.long	LC85
	.long	LC86
	.long	LC87
	.long	LC88
	.long	LC89
	.long	LC90
	.long	LC91
	.long	LC92
	.long	LC93
	.long	LC94
	.long	LC95
	.long	LC96
	.long	LC97
	.long	LC98
	.long	LC99
	.long	LC98
	.long	LC100
	.long	LC101
	.long	LC99
	.long	LC102
	.long	LC103
	.long	LC104
	.long	LC105
	.long	LC106
	.long	LC107
	.long	LC108
	.long	LC109
	.long	LC110
	.long	LC111
	.long	LC112
	.long	LC113
	.long	LC114
	.long	LC115
	.long	LC116
	.long	LC117
	.long	LC118
	.long	LC119
	.long	LC120
	.long	LC121
	.long	LC122
	.long	LC123
	.long	LC124
	.long	LC125
	.long	LC126
	.long	LC127
	.long	LC126
	.long	LC128
	.long	LC129
	.long	LC127
	.long	LC130
	.long	LC131
	.long	LC132
	.long	LC133
	.long	LC132
	.long	LC134
	.long	LC135
	.long	LC134
	.long	LC136
	.long	LC137
	.long	LC138
	.long	LC139
	.long	0
	.long	0
	.section .rdata,"dr"
___PRETTY_FUNCTION__.44620:
	.ascii "msim_convert_xml\0"
	.align 4
LC11:
	.long	1056964608
	.align 4
LC36:
	.long	1116733440
	.text
Letext0:
	.file 2 "c:/workspace/pidgin-devel/win32-dev/mingw-4.7.2/bin/../lib/gcc/mingw32/4.7.2/../../../../include/stdio.h"
	.file 3 "c:/workspace/pidgin-devel/win32-dev/mingw-4.7.2/bin/../lib/gcc/mingw32/4.7.2/include/stddef.h"
	.file 4 "c:/workspace/pidgin-devel/win32-dev/mingw-4.7.2/bin/../lib/gcc/mingw32/4.7.2/../../../../include/sys/types.h"
	.file 5 "c:/workspace/pidgin-devel/win32-dev/mingw-4.7.2/bin/../lib/gcc/mingw32/4.7.2/../../../../include/time.h"
	.file 6 "../../../../win32-dev/gtk_2_0-2.14/lib/glib-2.0/include/glibconfig.h"
	.file 7 "../../../../win32-dev/gtk_2_0-2.14/include/glib-2.0/glib/gtypes.h"
	.file 8 "../../../../win32-dev/gtk_2_0-2.14/include/glib-2.0/glib/glist.h"
	.file 9 "../../../../win32-dev/gtk_2_0-2.14/include/glib-2.0/glib/ghash.h"
	.file 10 "../../../../win32-dev/gtk_2_0-2.14/include/glib-2.0/glib/gslist.h"
	.file 11 "../../../../win32-dev/gtk_2_0-2.14/include/glib-2.0/glib/gstring.h"
	.file 12 "../../../libpurple/account.h"
	.file 13 "../../../libpurple/connection.h"
	.file 14 "../../../libpurple/plugin.h"
	.file 15 "../../../libpurple/pluginpref.h"
	.file 16 "../../../libpurple/status.h"
	.file 17 "../../../libpurple/buddyicon.h"
	.file 18 "../../../libpurple/conversation.h"
	.file 19 "../../../libpurple/log.h"
	.file 20 "../../../libpurple/media/../xmlnode.h"
	.file 21 "../../../libpurple/proxy.h"
	.file 22 "../../../libpurple/privacy.h"
	.file 23 "session.h"
	.file 24 "persist.h"
	.file 25 "c:/workspace/pidgin-devel/win32-dev/mingw-4.7.2/bin/../lib/gcc/mingw32/4.7.2/../../../../include/ctype.h"
	.file 26 "../../../libpurple/debug.h"
	.file 27 "../../../../win32-dev/gtk_2_0-2.14/include/glib-2.0/glib/gmem.h"
	.file 28 "../../../../win32-dev/gtk_2_0-2.14/include/glib-2.0/glib/gmarkup.h"
	.file 29 "../../../../win32-dev/gtk_2_0-2.14/include/glib-2.0/glib/gstrfuncs.h"
	.file 30 "../../../../win32-dev/gtk_2_0-2.14/include/glib-2.0/glib/gmessages.h"
	.file 31 "c:/workspace/pidgin-devel/win32-dev/mingw-4.7.2/bin/../lib/gcc/mingw32/4.7.2/../../../../include/math.h"
	.file 32 "c:/workspace/pidgin-devel/win32-dev/mingw-4.7.2/bin/../lib/gcc/mingw32/4.7.2/../../../../include/stdlib.h"
	.file 33 "myspace.h"
	.file 34 "../../../libpurple/media/../util.h"
	.file 35 "c:/workspace/pidgin-devel/win32-dev/mingw-4.7.2/bin/../lib/gcc/mingw32/4.7.2/../../../../include/string.h"