	.file	"mdns_common.c"
	.intel_syntax noprefix
	.text
Ltext0:
	.p2align 2,,3
	.def	_get_max_txt_record_value;	.scl	3;	.type	32;	.endef
_get_max_txt_record_value:
LFB95:
	.file 1 "mdns_common.c"
	.loc 1 54 0
	.cfi_startproc
LVL0:
	push	ebp
LCFI0:
	.cfi_def_cfa_offset 8
	.cfi_offset 5, -8
	push	edi
LCFI1:
	.cfi_def_cfa_offset 12
	.cfi_offset 7, -12
	push	esi
LCFI2:
	.cfi_def_cfa_offset 16
	.cfi_offset 6, -16
	push	ebx
LCFI3:
	.cfi_def_cfa_offset 20
	.cfi_offset 3, -20
	sub	esp, 44
LCFI4:
	.cfi_def_cfa_offset 64
	mov	esi, eax
	.loc 1 54 0
	mov	eax, DWORD PTR ___stack_chk_guard
	mov	DWORD PTR [esp+28], eax
	xor	eax, eax
LVL1:
	.loc 1 59 0
	mov	DWORD PTR [esp+24], 0
LVL2:
	.loc 1 60 0
	mov	ebx, -1
	mov	ecx, ebx
	mov	edi, edx
	repne scasb
LVL3:
	not	ecx
	lea	ebp, [ecx-1]
	mov	ecx, ebx
	mov	edi, esi
	repne scasb
LVL4:
	lea	eax, [ecx+255]
	cmp	ebp, eax
	jb	L3
	.loc 1 60 0 is_stmt 0 discriminator 2
	mov	ebp, eax
L3:
LVL5:
	.loc 1 62 0 is_stmt 1 discriminator 3
	mov	DWORD PTR [esp+8], ebp
	mov	DWORD PTR [esp+4], edx
	mov	DWORD PTR [esp], OFFSET FLAT:_buffer.47677
	call	_strncpy
LVL6:
	.loc 1 64 0 discriminator 3
	mov	BYTE PTR _buffer.47677[ebp], 0
	.loc 1 67 0 discriminator 3
	lea	eax, [esp+24]
	mov	DWORD PTR [esp+8], eax
	mov	DWORD PTR [esp+4], -1
	mov	DWORD PTR [esp], OFFSET FLAT:_buffer.47677
	call	_g_utf8_validate
LVL7:
	test	eax, eax
	jne	L4
	.loc 1 68 0
	mov	eax, DWORD PTR [esp+24]
	mov	BYTE PTR [eax], 0
L4:
	.loc 1 71 0
	mov	eax, OFFSET FLAT:_buffer.47677
	mov	edx, DWORD PTR [esp+28]
	xor	edx, DWORD PTR ___stack_chk_guard
	jne	L8
	add	esp, 44
LCFI5:
	.cfi_remember_state
	.cfi_def_cfa_offset 20
	pop	ebx
LCFI6:
	.cfi_restore 3
	.cfi_def_cfa_offset 16
	pop	esi
LCFI7:
	.cfi_restore 6
	.cfi_def_cfa_offset 12
	pop	edi
LCFI8:
	.cfi_restore 7
	.cfi_def_cfa_offset 8
	pop	ebp
LCFI9:
	.cfi_restore 5
	.cfi_def_cfa_offset 4
LVL8:
	ret
LVL9:
L8:
LCFI10:
	.cfi_restore_state
	call	___stack_chk_fail
LVL10:
	.cfi_endproc
LFE95:
	.section .rdata,"dr"
LC0:
	.ascii "%d\0"
LC1:
	.ascii "jid\0"
LC2:
	.ascii "AIM\0"
LC3:
	.ascii "email\0"
LC4:
	.ascii "txtvers\0"
LC5:
	.ascii "1\0"
LC6:
	.ascii "1st\0"
LC7:
	.ascii "last\0"
LC8:
	.ascii "port.p2pj\0"
LC9:
	.ascii "status\0"
LC10:
	.ascii "node\0"
LC11:
	.ascii "libpurple\0"
LC12:
	.ascii "ver\0"
LC13:
	.ascii "2.10.11\0"
LC14:
	.ascii "vc\0"
LC15:
	.ascii "msg\0"
LC16:
	.ascii "phsh\0"
	.text
	.p2align 2,,3
	.def	_publish_presence;	.scl	3;	.type	32;	.endef
_publish_presence:
LFB98:
	.loc 1 149 0
	.cfi_startproc
LVL11:
	push	ebp
LCFI11:
	.cfi_def_cfa_offset 8
	.cfi_offset 5, -8
	push	edi
LCFI12:
	.cfi_def_cfa_offset 12
	.cfi_offset 7, -12
	push	esi
LCFI13:
	.cfi_def_cfa_offset 16
	.cfi_offset 6, -16
	push	ebx
LCFI14:
	.cfi_def_cfa_offset 20
	.cfi_offset 3, -20
	sub	esp, 60
LCFI15:
	.cfi_def_cfa_offset 80
	mov	ebx, eax
	mov	DWORD PTR [esp+28], edx
	.loc 1 149 0
	mov	eax, DWORD PTR ___stack_chk_guard
	mov	DWORD PTR [esp+44], eax
	xor	eax, eax
LVL12:
LBB6:
LBB7:
	.loc 1 80 0
	mov	eax, DWORD PTR [ebx+16]
	mov	DWORD PTR [esp+12], eax
	mov	DWORD PTR [esp+8], OFFSET FLAT:LC0
	mov	DWORD PTR [esp+4], 6
	lea	ebp, [esp+38]
	mov	DWORD PTR [esp], ebp
	call	__snprintf
LVL13:
	.loc 1 82 0
	mov	DWORD PTR [esp+8], 0
	mov	DWORD PTR [esp+4], OFFSET FLAT:LC1
	mov	eax, DWORD PTR [ebx+4]
	mov	DWORD PTR [esp], eax
	call	_purple_account_get_string
LVL14:
	mov	DWORD PTR [esp+20], eax
LVL15:
	.loc 1 83 0
	mov	DWORD PTR [esp+8], 0
	mov	DWORD PTR [esp+4], OFFSET FLAT:LC2
	mov	eax, DWORD PTR [ebx+4]
LVL16:
	mov	DWORD PTR [esp], eax
	call	_purple_account_get_string
LVL17:
	mov	DWORD PTR [esp+24], eax
LVL18:
	.loc 1 84 0
	mov	DWORD PTR [esp+8], 0
	mov	DWORD PTR [esp+4], OFFSET FLAT:LC3
	mov	eax, DWORD PTR [ebx+4]
LVL19:
	mov	DWORD PTR [esp], eax
	call	_purple_account_get_string
LVL20:
	mov	edi, eax
LVL21:
	.loc 1 104 0
	mov	DWORD PTR [esp], 8
	call	_g_malloc0
LVL22:
	mov	esi, eax
LVL23:
	mov	DWORD PTR [esp], OFFSET FLAT:LC4
	call	_g_strdup
LVL24:
	mov	DWORD PTR [esi], eax
	mov	edx, OFFSET FLAT:LC5
	mov	eax, OFFSET FLAT:LC4
	call	_get_max_txt_record_value
LVL25:
	mov	DWORD PTR [esp], eax
	call	_g_strdup
LVL26:
	mov	DWORD PTR [esi+4], eax
	mov	DWORD PTR [esp+4], esi
	mov	DWORD PTR [esp], 0
	call	_g_slist_prepend
LVL27:
	.loc 1 106 0
	mov	DWORD PTR [esp], 8
	mov	DWORD PTR [esp+16], eax
	call	_g_malloc0
LVL28:
	mov	esi, eax
LVL29:
	mov	DWORD PTR [esp], OFFSET FLAT:LC6
	call	_g_strdup
LVL30:
	mov	DWORD PTR [esi], eax
	mov	edx, DWORD PTR [ebx+8]
	mov	eax, OFFSET FLAT:LC6
	call	_get_max_txt_record_value
LVL31:
	mov	DWORD PTR [esp], eax
	call	_g_strdup
LVL32:
	mov	DWORD PTR [esi+4], eax
	mov	DWORD PTR [esp+4], esi
	mov	ecx, DWORD PTR [esp+16]
	mov	DWORD PTR [esp], ecx
	call	_g_slist_prepend
LVL33:
	.loc 1 108 0
	mov	DWORD PTR [esp], 8
	mov	DWORD PTR [esp+16], eax
	call	_g_malloc0
LVL34:
	mov	esi, eax
LVL35:
	mov	DWORD PTR [esp], OFFSET FLAT:LC7
	call	_g_strdup
LVL36:
	mov	DWORD PTR [esi], eax
	mov	edx, DWORD PTR [ebx+12]
	mov	eax, OFFSET FLAT:LC7
	call	_get_max_txt_record_value
LVL37:
	mov	DWORD PTR [esp], eax
	call	_g_strdup
LVL38:
	mov	DWORD PTR [esi+4], eax
	mov	DWORD PTR [esp+4], esi
	mov	ecx, DWORD PTR [esp+16]
	mov	DWORD PTR [esp], ecx
	call	_g_slist_prepend
LVL39:
	.loc 1 110 0
	mov	DWORD PTR [esp], 8
	mov	DWORD PTR [esp+16], eax
	call	_g_malloc0
LVL40:
	mov	esi, eax
LVL41:
	mov	DWORD PTR [esp], OFFSET FLAT:LC8
	call	_g_strdup
LVL42:
	mov	DWORD PTR [esi], eax
	mov	edx, ebp
	mov	eax, OFFSET FLAT:LC8
	call	_get_max_txt_record_value
LVL43:
	mov	DWORD PTR [esp], eax
	call	_g_strdup
LVL44:
	mov	DWORD PTR [esi+4], eax
	mov	DWORD PTR [esp+4], esi
	mov	ecx, DWORD PTR [esp+16]
	mov	DWORD PTR [esp], ecx
	call	_g_slist_prepend
LVL45:
	mov	ebp, eax
LVL46:
	.loc 1 112 0
	mov	DWORD PTR [esp], 8
	call	_g_malloc0
LVL47:
	mov	esi, eax
LVL48:
	mov	DWORD PTR [esp], OFFSET FLAT:LC9
	call	_g_strdup
LVL49:
	mov	DWORD PTR [esi], eax
	mov	edx, DWORD PTR [ebx+24]
	mov	eax, OFFSET FLAT:LC9
	call	_get_max_txt_record_value
LVL50:
	mov	DWORD PTR [esp], eax
	call	_g_strdup
LVL51:
	mov	DWORD PTR [esi+4], eax
	mov	DWORD PTR [esp+4], esi
	mov	DWORD PTR [esp], ebp
	call	_g_slist_prepend
LVL52:
	mov	ebp, eax
LVL53:
	.loc 1 113 0
	mov	DWORD PTR [esp], 8
	call	_g_malloc0
LVL54:
	mov	esi, eax
LVL55:
	mov	DWORD PTR [esp], OFFSET FLAT:LC10
	call	_g_strdup
LVL56:
	mov	DWORD PTR [esi], eax
	mov	edx, OFFSET FLAT:LC11
	mov	eax, OFFSET FLAT:LC10
	call	_get_max_txt_record_value
LVL57:
	mov	DWORD PTR [esp], eax
	call	_g_strdup
LVL58:
	mov	DWORD PTR [esi+4], eax
	mov	DWORD PTR [esp+4], esi
	mov	DWORD PTR [esp], ebp
	call	_g_slist_prepend
LVL59:
	mov	ebp, eax
LVL60:
	.loc 1 114 0
	mov	DWORD PTR [esp], 8
	call	_g_malloc0
LVL61:
	mov	esi, eax
LVL62:
	mov	DWORD PTR [esp], OFFSET FLAT:LC12
	call	_g_strdup
LVL63:
	mov	DWORD PTR [esi], eax
	mov	edx, OFFSET FLAT:LC13
	mov	eax, OFFSET FLAT:LC12
	call	_get_max_txt_record_value
LVL64:
	mov	DWORD PTR [esp], eax
	call	_g_strdup
LVL65:
	mov	DWORD PTR [esi+4], eax
	mov	DWORD PTR [esp+4], esi
	mov	DWORD PTR [esp], ebp
	call	_g_slist_prepend
LVL66:
	mov	ebp, eax
LVL67:
	.loc 1 116 0
	mov	DWORD PTR [esp], 8
	call	_g_malloc0
LVL68:
	mov	esi, eax
LVL69:
	mov	DWORD PTR [esp], OFFSET FLAT:LC14
	call	_g_strdup
LVL70:
	mov	DWORD PTR [esi], eax
	mov	edx, DWORD PTR [ebx+28]
	mov	eax, OFFSET FLAT:LC14
	call	_get_max_txt_record_value
LVL71:
	mov	DWORD PTR [esp], eax
	call	_g_strdup
LVL72:
	mov	DWORD PTR [esi+4], eax
	mov	DWORD PTR [esp+4], esi
	mov	DWORD PTR [esp], ebp
	call	_g_slist_prepend
LVL73:
	mov	esi, eax
LVL74:
	.loc 1 117 0
	test	edi, edi
	je	L10
	cmp	BYTE PTR [edi], 0
	jne	L39
L10:
	.loc 1 120 0
	mov	edx, DWORD PTR [esp+20]
	test	edx, edx
	je	L11
	mov	eax, DWORD PTR [esp+20]
LVL75:
	cmp	BYTE PTR [eax], 0
	jne	L40
LVL76:
L11:
	.loc 1 124 0
	mov	eax, DWORD PTR [esp+24]
	test	eax, eax
	je	L12
	mov	eax, DWORD PTR [esp+24]
	cmp	BYTE PTR [eax], 0
	jne	L41
L12:
	.loc 1 127 0
	mov	eax, DWORD PTR [ebx+32]
	test	eax, eax
	je	L13
	cmp	BYTE PTR [eax], 0
	jne	L42
L13:
	.loc 1 130 0
	mov	eax, DWORD PTR [ebx+20]
	test	eax, eax
	je	L14
	cmp	BYTE PTR [eax], 0
	je	L14
	.loc 1 131 0
	mov	DWORD PTR [esp], 8
	call	_g_malloc0
LVL77:
	mov	edi, eax
LVL78:
	mov	DWORD PTR [esp], OFFSET FLAT:LC16
	call	_g_strdup
LVL79:
	mov	DWORD PTR [edi], eax
	mov	edx, DWORD PTR [ebx+20]
	mov	eax, OFFSET FLAT:LC16
	call	_get_max_txt_record_value
LVL80:
	mov	DWORD PTR [esp], eax
	call	_g_strdup
LVL81:
	mov	DWORD PTR [edi+4], eax
	mov	DWORD PTR [esp+4], edi
	mov	DWORD PTR [esp], esi
	call	_g_slist_prepend
LVL82:
	mov	esi, eax
LVL83:
L14:
LBE7:
LBE6:
	.loc 1 154 0
	mov	DWORD PTR [esp+8], esi
	mov	edx, DWORD PTR [esp+28]
	mov	DWORD PTR [esp+4], edx
	mov	DWORD PTR [esp], ebx
	call	__mdns_publish
LVL84:
	mov	edi, eax
LVL85:
LBB9:
LBB10:
	.loc 1 140 0
	test	esi, esi
	je	L17
LVL86:
	.p2align 2,,3
L29:
	.loc 1 141 0
	mov	ebx, DWORD PTR [esi]
LVL87:
	.loc 1 142 0
	mov	eax, DWORD PTR [ebx]
	mov	DWORD PTR [esp], eax
	call	_g_free
LVL88:
	.loc 1 143 0
	mov	eax, DWORD PTR [ebx+4]
	mov	DWORD PTR [esp], eax
	call	_g_free
LVL89:
	.loc 1 144 0
	mov	DWORD PTR [esp], ebx
	call	_g_free
LVL90:
	.loc 1 145 0
	mov	eax, DWORD PTR [esi]
	mov	DWORD PTR [esp+4], eax
	mov	DWORD PTR [esp], esi
	call	_g_slist_remove
LVL91:
	mov	esi, eax
LVL92:
	.loc 1 140 0
	test	eax, eax
	jne	L29
LVL93:
L17:
LBE10:
LBE9:
	.loc 1 158 0
	mov	eax, edi
	mov	edx, DWORD PTR [esp+44]
	xor	edx, DWORD PTR ___stack_chk_guard
	jne	L43
LVL94:
	add	esp, 60
LCFI16:
	.cfi_remember_state
	.cfi_def_cfa_offset 20
	pop	ebx
LCFI17:
	.cfi_restore 3
	.cfi_def_cfa_offset 16
	pop	esi
LCFI18:
	.cfi_restore 6
	.cfi_def_cfa_offset 12
LVL95:
	pop	edi
LCFI19:
	.cfi_restore 7
	.cfi_def_cfa_offset 8
	pop	ebp
LCFI20:
	.cfi_restore 5
	.cfi_def_cfa_offset 4
	ret
LVL96:
	.p2align 2,,3
L42:
LCFI21:
	.cfi_restore_state
LBB11:
LBB8:
	.loc 1 128 0
	mov	DWORD PTR [esp], 8
	call	_g_malloc0
LVL97:
	mov	edi, eax
LVL98:
	mov	DWORD PTR [esp], OFFSET FLAT:LC15
	call	_g_strdup
LVL99:
	mov	DWORD PTR [edi], eax
	mov	edx, DWORD PTR [ebx+32]
	mov	eax, OFFSET FLAT:LC15
	call	_get_max_txt_record_value
LVL100:
	mov	DWORD PTR [esp], eax
	call	_g_strdup
LVL101:
	mov	DWORD PTR [edi+4], eax
	mov	DWORD PTR [esp+4], edi
	mov	DWORD PTR [esp], esi
	call	_g_slist_prepend
LVL102:
	mov	esi, eax
LVL103:
	jmp	L13
LVL104:
	.p2align 2,,3
L40:
	.loc 1 121 0
	mov	DWORD PTR [esp], 8
	call	_g_malloc0
LVL105:
	mov	edi, eax
LVL106:
	mov	DWORD PTR [esp], OFFSET FLAT:LC1
	call	_g_strdup
LVL107:
	mov	DWORD PTR [edi], eax
	mov	edx, DWORD PTR [esp+20]
	mov	eax, OFFSET FLAT:LC1
	call	_get_max_txt_record_value
LVL108:
	mov	DWORD PTR [esp], eax
	call	_g_strdup
LVL109:
	mov	DWORD PTR [edi+4], eax
	mov	DWORD PTR [esp+4], edi
	mov	DWORD PTR [esp], esi
	call	_g_slist_prepend
LVL110:
	mov	esi, eax
LVL111:
	jmp	L11
LVL112:
	.p2align 2,,3
L39:
	.loc 1 118 0
	mov	DWORD PTR [esp], 8
	call	_g_malloc0
LVL113:
	mov	ebp, eax
LVL114:
	mov	DWORD PTR [esp], OFFSET FLAT:LC3
	call	_g_strdup
LVL115:
	mov	DWORD PTR [ebp+0], eax
	mov	edx, edi
	mov	eax, OFFSET FLAT:LC3
	call	_get_max_txt_record_value
LVL116:
	mov	DWORD PTR [esp], eax
	call	_g_strdup
LVL117:
	mov	DWORD PTR [ebp+4], eax
	mov	DWORD PTR [esp+4], ebp
	mov	DWORD PTR [esp], esi
	call	_g_slist_prepend
LVL118:
	mov	esi, eax
LVL119:
	jmp	L10
LVL120:
	.p2align 2,,3
L41:
	.loc 1 125 0
	mov	DWORD PTR [esp], 8
	call	_g_malloc0
LVL121:
	mov	edi, eax
LVL122:
	mov	DWORD PTR [esp], OFFSET FLAT:LC2
	call	_g_strdup
LVL123:
	mov	DWORD PTR [edi], eax
	mov	edx, DWORD PTR [esp+24]
	mov	eax, OFFSET FLAT:LC2
	call	_get_max_txt_record_value
LVL124:
	mov	DWORD PTR [esp], eax
	call	_g_strdup
LVL125:
	mov	DWORD PTR [edi+4], eax
	mov	DWORD PTR [esp+4], edi
	mov	DWORD PTR [esp], esi
	call	_g_slist_prepend
LVL126:
	mov	esi, eax
LVL127:
	jmp	L12
LVL128:
L43:
LBE8:
LBE11:
	.loc 1 158 0
	call	___stack_chk_fail
LVL129:
	.cfi_endproc
LFE98:
	.p2align 2,,3
	.globl	_bonjour_dns_sd_new
	.def	_bonjour_dns_sd_new;	.scl	2;	.type	32;	.endef
_bonjour_dns_sd_new:
LFB93:
	.loc 1 31 0
	.cfi_startproc
	sub	esp, 44
LCFI22:
	.cfi_def_cfa_offset 48
	.loc 1 31 0
	mov	eax, DWORD PTR ___stack_chk_guard
	mov	DWORD PTR [esp+28], eax
	xor	eax, eax
	.loc 1 32 0
	mov	DWORD PTR [esp], 36
	call	_g_malloc0
LVL130:
	.loc 1 34 0
	mov	edx, DWORD PTR [esp+28]
	xor	edx, DWORD PTR ___stack_chk_guard
	jne	L47
	add	esp, 44
LCFI23:
	.cfi_remember_state
	.cfi_def_cfa_offset 4
	ret
L47:
LCFI24:
	.cfi_restore_state
	call	___stack_chk_fail
LVL131:
	.cfi_endproc
LFE93:
	.p2align 2,,3
	.globl	_bonjour_dns_sd_free
	.def	_bonjour_dns_sd_free;	.scl	2;	.type	32;	.endef
_bonjour_dns_sd_free:
LFB94:
	.loc 1 39 0
	.cfi_startproc
LVL132:
	push	ebx
LCFI25:
	.cfi_def_cfa_offset 8
	.cfi_offset 3, -8
	sub	esp, 40
LCFI26:
	.cfi_def_cfa_offset 48
	mov	ebx, DWORD PTR [esp+48]
	.loc 1 39 0
	mov	eax, DWORD PTR ___stack_chk_guard
	mov	DWORD PTR [esp+28], eax
	xor	eax, eax
	.loc 1 40 0
	mov	eax, DWORD PTR [ebx+8]
	mov	DWORD PTR [esp], eax
	call	_g_free
LVL133:
	.loc 1 41 0
	mov	eax, DWORD PTR [ebx+12]
	mov	DWORD PTR [esp], eax
	call	_g_free
LVL134:
	.loc 1 42 0
	mov	eax, DWORD PTR [ebx+20]
	mov	DWORD PTR [esp], eax
	call	_g_free
LVL135:
	.loc 1 43 0
	mov	eax, DWORD PTR [ebx+24]
	mov	DWORD PTR [esp], eax
	call	_g_free
LVL136:
	.loc 1 44 0
	mov	eax, DWORD PTR [ebx+28]
	mov	DWORD PTR [esp], eax
	call	_g_free
LVL137:
	.loc 1 45 0
	mov	eax, DWORD PTR [ebx+32]
	mov	DWORD PTR [esp], eax
	call	_g_free
LVL138:
	.loc 1 46 0
	mov	eax, DWORD PTR [esp+28]
	xor	eax, DWORD PTR ___stack_chk_guard
	jne	L52
	mov	DWORD PTR [esp+48], ebx
	.loc 1 47 0
	add	esp, 40
LCFI27:
	.cfi_remember_state
	.cfi_def_cfa_offset 8
	pop	ebx
LCFI28:
	.cfi_restore 3
	.cfi_def_cfa_offset 4
	.loc 1 46 0
	jmp	_g_free
LVL139:
L52:
LCFI29:
	.cfi_restore_state
	call	___stack_chk_fail
LVL140:
	.cfi_endproc
LFE94:
	.p2align 2,,3
	.globl	_bonjour_dns_sd_send_status
	.def	_bonjour_dns_sd_send_status;	.scl	2;	.type	32;	.endef
_bonjour_dns_sd_send_status:
LFB99:
	.loc 1 163 0
	.cfi_startproc
LVL141:
	push	edi
LCFI30:
	.cfi_def_cfa_offset 8
	.cfi_offset 7, -8
	push	esi
LCFI31:
	.cfi_def_cfa_offset 12
	.cfi_offset 6, -12
	push	ebx
LCFI32:
	.cfi_def_cfa_offset 16
	.cfi_offset 3, -16
	sub	esp, 32
LCFI33:
	.cfi_def_cfa_offset 48
	mov	ebx, DWORD PTR [esp+48]
	mov	edi, DWORD PTR [esp+52]
	mov	esi, DWORD PTR [esp+56]
	.loc 1 163 0
	mov	eax, DWORD PTR ___stack_chk_guard
	mov	DWORD PTR [esp+28], eax
	xor	eax, eax
	.loc 1 164 0
	mov	eax, DWORD PTR [ebx+24]
	mov	DWORD PTR [esp], eax
	call	_g_free
LVL142:
	.loc 1 165 0
	mov	eax, DWORD PTR [ebx+32]
	mov	DWORD PTR [esp], eax
	call	_g_free
LVL143:
	.loc 1 167 0
	mov	DWORD PTR [esp], edi
	call	_g_strdup
LVL144:
	mov	DWORD PTR [ebx+24], eax
	.loc 1 168 0
	mov	DWORD PTR [esp], esi
	call	_g_strdup
LVL145:
	mov	DWORD PTR [ebx+32], eax
	.loc 1 171 0
	mov	eax, DWORD PTR [esp+28]
	xor	eax, DWORD PTR ___stack_chk_guard
	jne	L57
	mov	edx, 1
	mov	eax, ebx
	.loc 1 172 0
	add	esp, 32
LCFI34:
	.cfi_remember_state
	.cfi_def_cfa_offset 16
	pop	ebx
LCFI35:
	.cfi_restore 3
	.cfi_def_cfa_offset 12
	pop	esi
LCFI36:
	.cfi_restore 6
	.cfi_def_cfa_offset 8
	pop	edi
LCFI37:
	.cfi_restore 7
	.cfi_def_cfa_offset 4
	.loc 1 171 0
	jmp	_publish_presence
LVL146:
L57:
LCFI38:
	.cfi_restore_state
	call	___stack_chk_fail
LVL147:
	.cfi_endproc
LFE99:
	.p2align 2,,3
	.globl	_bonjour_dns_sd_retrieve_buddy_icon
	.def	_bonjour_dns_sd_retrieve_buddy_icon;	.scl	2;	.type	32;	.endef
_bonjour_dns_sd_retrieve_buddy_icon:
LFB100:
	.loc 1 177 0
	.cfi_startproc
LVL148:
	sub	esp, 28
LCFI39:
	.cfi_def_cfa_offset 32
	mov	eax, DWORD PTR [esp+32]
	.loc 1 177 0
	mov	edx, DWORD PTR ___stack_chk_guard
	mov	DWORD PTR [esp+12], edx
	xor	edx, edx
	.loc 1 178 0
	mov	edx, DWORD PTR [esp+12]
	xor	edx, DWORD PTR ___stack_chk_guard
	jne	L62
	mov	DWORD PTR [esp+32], eax
	.loc 1 179 0
	add	esp, 28
LCFI40:
	.cfi_remember_state
	.cfi_def_cfa_offset 4
	.loc 1 178 0
	jmp	__mdns_retrieve_buddy_icon
LVL149:
L62:
LCFI41:
	.cfi_restore_state
	call	___stack_chk_fail
LVL150:
	.cfi_endproc
LFE100:
	.section .rdata,"dr"
	.align 4
LC17:
	.ascii "account buddy icon returned unexpected filename (%s); unable to extract hash. Clearing buddy icon\12\0"
LC18:
	.ascii "bonjour\0"
	.text
	.p2align 2,,3
	.globl	_bonjour_dns_sd_update_buddy_icon
	.def	_bonjour_dns_sd_update_buddy_icon;	.scl	2;	.type	32;	.endef
_bonjour_dns_sd_update_buddy_icon:
LFB101:
	.loc 1 181 0
	.cfi_startproc
LVL151:
	push	edi
LCFI42:
	.cfi_def_cfa_offset 8
	.cfi_offset 7, -8
	push	esi
LCFI43:
	.cfi_def_cfa_offset 12
	.cfi_offset 6, -12
	push	ebx
LCFI44:
	.cfi_def_cfa_offset 16
	.cfi_offset 3, -16
	sub	esp, 32
LCFI45:
	.cfi_def_cfa_offset 48
	mov	esi, DWORD PTR [esp+48]
	.loc 1 181 0
	mov	eax, DWORD PTR ___stack_chk_guard
	mov	DWORD PTR [esp+28], eax
	xor	eax, eax
	.loc 1 184 0
	mov	eax, DWORD PTR [esi+4]
	mov	DWORD PTR [esp], eax
	call	_purple_buddy_icons_find_account_icon
LVL152:
	mov	ebx, eax
LVL153:
	test	eax, eax
	je	L64
LBB12:
	.loc 1 188 0
	mov	DWORD PTR [esp], eax
	call	_purple_imgstore_get_data
LVL154:
	mov	edi, eax
LVL155:
	.loc 1 189 0
	mov	DWORD PTR [esp], ebx
	call	_purple_imgstore_get_size
LVL156:
	.loc 1 191 0
	mov	DWORD PTR [esp+8], eax
	mov	DWORD PTR [esp+4], edi
	mov	DWORD PTR [esp], esi
	call	__mdns_set_buddy_icon_data
LVL157:
	test	eax, eax
	jne	L78
LVL158:
L65:
	.loc 1 210 0
	mov	eax, DWORD PTR [esp+28]
	xor	eax, DWORD PTR ___stack_chk_guard
	jne	L77
	mov	DWORD PTR [esp+48], ebx
LBE12:
	.loc 1 223 0
	add	esp, 32
LCFI46:
	.cfi_remember_state
	.cfi_def_cfa_offset 16
	pop	ebx
LCFI47:
	.cfi_restore 3
	.cfi_def_cfa_offset 12
LVL159:
	pop	esi
LCFI48:
	.cfi_restore 6
	.cfi_def_cfa_offset 8
	pop	edi
LCFI49:
	.cfi_restore 7
	.cfi_def_cfa_offset 4
LBB15:
	.loc 1 210 0
	jmp	_purple_imgstore_unref
LVL160:
	.p2align 2,,3
L78:
LCFI50:
	.cfi_restore_state
LBB13:
	.loc 1 193 0
	mov	DWORD PTR [esp], ebx
	call	_purple_imgstore_get_filename
LVL161:
	mov	edi, eax
LVL162:
	.loc 1 195 0
	mov	eax, DWORD PTR [esi+20]
LVL163:
	mov	DWORD PTR [esp], eax
	call	_g_free
LVL164:
	.loc 1 196 0
	mov	DWORD PTR [esi+20], 0
	.loc 1 199 0
	mov	DWORD PTR [esp+4], 46
	mov	DWORD PTR [esp], edi
	call	_strchr
LVL165:
	.loc 1 200 0
	test	eax, eax
	je	L66
	.loc 1 201 0
	sub	eax, edi
LVL166:
	mov	DWORD PTR [esp+4], eax
	mov	DWORD PTR [esp], edi
	call	_g_strndup
LVL167:
	mov	DWORD PTR [esi+20], eax
L67:
	.loc 1 207 0
	mov	edx, 1
	mov	eax, esi
	call	_publish_presence
LVL168:
	jmp	L65
LVL169:
	.p2align 2,,3
L64:
LBE13:
LBE15:
	.loc 1 214 0
	mov	DWORD PTR [esp+8], 0
	mov	DWORD PTR [esp+4], 0
	mov	DWORD PTR [esp], esi
	call	__mdns_set_buddy_icon_data
LVL170:
	.loc 1 215 0
	mov	eax, DWORD PTR [esi+20]
	test	eax, eax
	je	L63
	.loc 1 217 0
	mov	DWORD PTR [esp], eax
	call	_g_free
LVL171:
	.loc 1 218 0
	mov	DWORD PTR [esi+20], 0
	.loc 1 220 0
	mov	eax, DWORD PTR [esp+28]
	xor	eax, DWORD PTR ___stack_chk_guard
	jne	L77
	mov	edx, 1
	mov	eax, esi
	.loc 1 223 0
	add	esp, 32
LCFI51:
	.cfi_remember_state
	.cfi_def_cfa_offset 16
	pop	ebx
LCFI52:
	.cfi_restore 3
	.cfi_def_cfa_offset 12
LVL172:
	pop	esi
LCFI53:
	.cfi_restore 6
	.cfi_def_cfa_offset 8
	pop	edi
LCFI54:
	.cfi_restore 7
	.cfi_def_cfa_offset 4
	.loc 1 220 0
	jmp	_publish_presence
LVL173:
	.p2align 2,,3
L66:
LCFI55:
	.cfi_restore_state
LBB16:
LBB14:
	.loc 1 203 0
	mov	DWORD PTR [esp+8], edi
	mov	DWORD PTR [esp+4], OFFSET FLAT:LC17
	mov	DWORD PTR [esp], OFFSET FLAT:LC18
	call	_purple_debug_error
LVL174:
	jmp	L67
LVL175:
	.p2align 2,,3
L63:
LBE14:
LBE16:
	.loc 1 223 0
	mov	eax, DWORD PTR [esp+28]
	xor	eax, DWORD PTR ___stack_chk_guard
	jne	L77
	add	esp, 32
LCFI56:
	.cfi_remember_state
	.cfi_def_cfa_offset 16
	pop	ebx
LCFI57:
	.cfi_restore 3
	.cfi_def_cfa_offset 12
LVL176:
	pop	esi
LCFI58:
	.cfi_restore 6
	.cfi_def_cfa_offset 8
	pop	edi
LCFI59:
	.cfi_restore 7
	.cfi_def_cfa_offset 4
	ret
LVL177:
L77:
LCFI60:
	.cfi_restore_state
	call	___stack_chk_fail
LVL178:
	.cfi_endproc
LFE101:
	.section .rdata,"dr"
LC19:
	.ascii "Unable to get service.\12\0"
	.text
	.p2align 2,,3
	.globl	_bonjour_dns_sd_start
	.def	_bonjour_dns_sd_start;	.scl	2;	.type	32;	.endef
_bonjour_dns_sd_start:
LFB102:
	.loc 1 229 0
	.cfi_startproc
LVL179:
	push	ebx
LCFI61:
	.cfi_def_cfa_offset 8
	.cfi_offset 3, -8
	sub	esp, 40
LCFI62:
	.cfi_def_cfa_offset 48
	mov	ebx, DWORD PTR [esp+48]
	.loc 1 229 0
	mov	eax, DWORD PTR ___stack_chk_guard
	mov	DWORD PTR [esp+28], eax
	xor	eax, eax
	.loc 1 232 0
	mov	DWORD PTR [esp], ebx
	call	__mdns_init_session
LVL180:
	test	eax, eax
	jne	L80
L89:
	.loc 1 242 0
	xor	eax, eax
L81:
	.loc 1 246 0
	mov	edx, DWORD PTR [esp+28]
	xor	edx, DWORD PTR ___stack_chk_guard
	jne	L90
	add	esp, 40
LCFI63:
	.cfi_remember_state
	.cfi_def_cfa_offset 8
	pop	ebx
LCFI64:
	.cfi_restore 3
	.cfi_def_cfa_offset 4
	ret
	.p2align 2,,3
L80:
LCFI65:
	.cfi_restore_state
	.loc 1 236 0
	xor	edx, edx
	mov	eax, ebx
	call	_publish_presence
LVL181:
	test	eax, eax
	je	L89
	.loc 1 240 0
	mov	DWORD PTR [esp], ebx
	call	__mdns_browse
LVL182:
	test	eax, eax
	je	L91
	.loc 1 245 0
	mov	eax, 1
	jmp	L81
	.p2align 2,,3
L91:
	.loc 1 241 0
	mov	DWORD PTR [esp+4], OFFSET FLAT:LC19
	mov	DWORD PTR [esp], OFFSET FLAT:LC18
	call	_purple_debug_error
LVL183:
	jmp	L89
L90:
	.loc 1 246 0
	call	___stack_chk_fail
LVL184:
	.cfi_endproc
LFE102:
	.p2align 2,,3
	.globl	_bonjour_dns_sd_stop
	.def	_bonjour_dns_sd_stop;	.scl	2;	.type	32;	.endef
_bonjour_dns_sd_stop:
LFB103:
	.loc 1 252 0
	.cfi_startproc
LVL185:
	sub	esp, 28
LCFI66:
	.cfi_def_cfa_offset 32
	mov	eax, DWORD PTR [esp+32]
	.loc 1 252 0
	mov	edx, DWORD PTR ___stack_chk_guard
	mov	DWORD PTR [esp+12], edx
	xor	edx, edx
	.loc 1 253 0
	mov	edx, DWORD PTR [esp+12]
	xor	edx, DWORD PTR ___stack_chk_guard
	jne	L96
	mov	DWORD PTR [esp+32], eax
	.loc 1 254 0
	add	esp, 28
LCFI67:
	.cfi_remember_state
	.cfi_def_cfa_offset 4
	.loc 1 253 0
	jmp	__mdns_stop
LVL186:
L96:
LCFI68:
	.cfi_restore_state
	call	___stack_chk_fail
LVL187:
	.cfi_endproc
LFE103:
	.section .rdata,"dr"
LC20:
	.ascii "\0"
LC21:
	.ascii "\\40\0"
	.text
	.p2align 2,,3
	.globl	_bonjour_dns_sd_set_jid
	.def	_bonjour_dns_sd_set_jid;	.scl	2;	.type	32;	.endef
_bonjour_dns_sd_set_jid:
LFB104:
	.loc 1 258 0
	.cfi_startproc
LVL188:
	push	ebp
LCFI69:
	.cfi_def_cfa_offset 8
	.cfi_offset 5, -8
	push	edi
LCFI70:
	.cfi_def_cfa_offset 12
	.cfi_offset 7, -12
	push	esi
LCFI71:
	.cfi_def_cfa_offset 16
	.cfi_offset 6, -16
	push	ebx
LCFI72:
	.cfi_def_cfa_offset 20
	.cfi_offset 3, -20
	sub	esp, 60
LCFI73:
	.cfi_def_cfa_offset 80
	mov	esi, DWORD PTR [esp+80]
	mov	ebx, DWORD PTR [esp+84]
	.loc 1 258 0
	mov	eax, DWORD PTR ___stack_chk_guard
	mov	DWORD PTR [esp+44], eax
	xor	eax, eax
	.loc 1 259 0
	mov	DWORD PTR [esp], esi
	call	_purple_account_get_connection
LVL189:
	.loc 1 260 0
	mov	eax, DWORD PTR [eax+28]
LVL190:
	mov	DWORD PTR [esp+28], eax
LVL191:
	.loc 1 261 0
	mov	DWORD PTR [esp], esi
	call	_purple_account_get_username
LVL192:
	mov	esi, eax
LVL193:
	.loc 1 267 0
	mov	DWORD PTR [esp+4], 64
	mov	DWORD PTR [esp], eax
	call	_strchr
LVL194:
	test	eax, eax
	je	L98
	.loc 1 268 0
	mov	DWORD PTR [esp+4], ebx
	mov	DWORD PTR [esp], eax
	mov	DWORD PTR [esp+24], eax
	call	_strstr
LVL195:
	mov	edx, DWORD PTR [esp+24]
LVL196:
	lea	ecx, [edx+1]
	cmp	eax, ecx
	je	L109
LVL197:
L98:
LBB20:
	.loc 1 273 0
	mov	DWORD PTR [esp], OFFSET FLAT:LC20
	call	_g_string_new
LVL198:
	mov	edi, eax
LVL199:
	.loc 1 276 0
	jmp	L100
LVL200:
	.p2align 2,,3
L101:
	.loc 1 277 0
	mov	eax, ebp
LVL201:
	sub	eax, esi
	mov	DWORD PTR [esp+8], eax
	mov	DWORD PTR [esp+4], esi
	mov	DWORD PTR [esp], edi
	call	_g_string_append_len
LVL202:
	.loc 1 278 0
	mov	DWORD PTR [esp+4], OFFSET FLAT:LC21
	mov	DWORD PTR [esp], edi
	call	_g_string_append
LVL203:
	.loc 1 279 0
	lea	esi, [ebp+1]
LVL204:
L100:
	.loc 1 276 0 discriminator 1
	mov	DWORD PTR [esp+4], 64
	mov	DWORD PTR [esp], esi
	call	_strchr
LVL205:
	mov	ebp, eax
LVL206:
	test	eax, eax
	jne	L101
	.loc 1 281 0
	mov	DWORD PTR [esp+4], esi
	mov	DWORD PTR [esp], edi
	call	_g_string_append
LVL207:
LBB21:
LBB22:
	.file 2 "../../../../win32-dev/gtk_2_0-2.14/include/glib-2.0/glib/gstring.h"
	.loc 2 147 0
	mov	edx, DWORD PTR [edi+4]
	lea	eax, [edx+1]
	cmp	eax, DWORD PTR [edi+8]
	jae	L102
	.loc 2 149 0
	mov	ecx, DWORD PTR [edi]
	mov	BYTE PTR [ecx+edx], 64
	mov	DWORD PTR [edi+4], eax
	.loc 2 150 0
	mov	edx, DWORD PTR [edi]
	mov	BYTE PTR [edx+eax], 0
L103:
LBE22:
LBE21:
	.loc 1 283 0
	mov	DWORD PTR [esp+4], ebx
	mov	DWORD PTR [esp], edi
	call	_g_string_append
LVL208:
	.loc 1 285 0
	mov	DWORD PTR [esp+4], 0
	mov	DWORD PTR [esp], edi
	call	_g_string_free
LVL209:
	mov	edx, DWORD PTR [esp+28]
	mov	DWORD PTR [edx+12], eax
LVL210:
L97:
LBE20:
	.loc 1 287 0
	mov	eax, DWORD PTR [esp+44]
	xor	eax, DWORD PTR ___stack_chk_guard
	jne	L110
	add	esp, 60
LCFI74:
	.cfi_remember_state
	.cfi_def_cfa_offset 20
	pop	ebx
LCFI75:
	.cfi_restore 3
	.cfi_def_cfa_offset 16
	pop	esi
LCFI76:
	.cfi_restore 6
	.cfi_def_cfa_offset 12
	pop	edi
LCFI77:
	.cfi_restore 7
	.cfi_def_cfa_offset 8
	pop	ebp
LCFI78:
	.cfi_restore 5
	.cfi_def_cfa_offset 4
	ret
LVL211:
	.p2align 2,,3
L102:
LCFI79:
	.cfi_restore_state
LBB25:
LBB24:
LBB23:
	.loc 2 153 0
	mov	DWORD PTR [esp+8], 64
	mov	DWORD PTR [esp+4], -1
	mov	DWORD PTR [esp], edi
	call	_g_string_insert_c
LVL212:
	jmp	L103
LVL213:
	.p2align 2,,3
L109:
LBE23:
LBE24:
LBE25:
	.loc 1 269 0
	xor	eax, eax
	mov	ecx, -1
	mov	edi, ebx
	repne scasb
LVL214:
	not	ecx
	cmp	BYTE PTR [edx+ecx], 0
	jne	L98
	.loc 1 270 0
	mov	DWORD PTR [esp], esi
	call	_g_strdup
LVL215:
	mov	edx, DWORD PTR [esp+28]
	mov	DWORD PTR [edx+12], eax
	jmp	L97
LVL216:
L110:
	.loc 1 287 0
	call	___stack_chk_fail
LVL217:
	.cfi_endproc
LFE104:
.lcomm _buffer.47677,256,32
Letext0:
	.file 3 "c:/workspace/pidgin-devel/win32-dev/mingw-4.7.2/bin/../lib/gcc/mingw32/4.7.2/../../../../include/stdio.h"
	.file 4 "c:/workspace/pidgin-devel/win32-dev/mingw-4.7.2/bin/../lib/gcc/mingw32/4.7.2/include/stddef.h"
	.file 5 "c:/workspace/pidgin-devel/win32-dev/mingw-4.7.2/bin/../lib/gcc/mingw32/4.7.2/../../../../include/sys/types.h"
	.file 6 "c:/workspace/pidgin-devel/win32-dev/mingw-4.7.2/bin/../lib/gcc/mingw32/4.7.2/../../../../include/time.h"
	.file 7 "../../../../win32-dev/gtk_2_0-2.14/lib/glib-2.0/include/glibconfig.h"
	.file 8 "../../../../win32-dev/gtk_2_0-2.14/include/glib-2.0/glib/gtypes.h"
	.file 9 "../../../../win32-dev/gtk_2_0-2.14/include/glib-2.0/glib/glist.h"
	.file 10 "../../../../win32-dev/gtk_2_0-2.14/include/glib-2.0/glib/ghash.h"
	.file 11 "../../../../win32-dev/gtk_2_0-2.14/include/glib-2.0/glib/gslist.h"
	.file 12 "../../../libpurple/account.h"
	.file 13 "../../../libpurple/connection.h"
	.file 14 "../../../libpurple/plugin.h"
	.file 15 "../../../libpurple/pluginpref.h"
	.file 16 "../../../libpurple/status.h"
	.file 17 "../../../libpurple/blist.h"
	.file 18 "../../../libpurple/buddyicon.h"
	.file 19 "../../../libpurple/imgstore.h"
	.file 20 "../../../libpurple/conversation.h"
	.file 21 "../../../libpurple/log.h"
	.file 22 "../../../libpurple/media/enum-types.h"
	.file 23 "../../../libpurple/media/../util.h"
	.file 24 "../../../libpurple/media/../xmlnode.h"
	.file 25 "../../../libpurple/proxy.h"
	.file 26 "../../../libpurple/privacy.h"
	.file 27 "mdns_types.h"
	.file 28 "../../../../win32-dev/libxml2-2.9.0/include/libxml2/libxml/xmlstring.h"
	.file 29 "../../../../win32-dev/libxml2-2.9.0/include/libxml2/libxml/tree.h"
	.file 30 "../../../../win32-dev/libxml2-2.9.0/include/libxml2/libxml/xmlIO.h"
	.file 31 "../../../../win32-dev/libxml2-2.9.0/include/libxml2/libxml/parser.h"
	.file 32 "../../../../win32-dev/libxml2-2.9.0/include/libxml2/libxml/entities.h"
	.file 33 "../../../../win32-dev/libxml2-2.9.0/include/libxml2/libxml/dict.h"
	.file 34 "../../../../win32-dev/libxml2-2.9.0/include/libxml2/libxml/hash.h"
	.file 35 "../../../../win32-dev/libxml2-2.9.0/include/libxml2/libxml/xmlerror.h"
	.file 36 "../../../../win32-dev/libxml2-2.9.0/include/libxml2/libxml/xmlautomata.h"
	.file 37 "../../../../win32-dev/libxml2-2.9.0/include/libxml2/libxml/valid.h"
	.file 38 "../../../../win32-dev/libxml2-2.9.0/include/libxml2/libxml/encoding.h"
	.file 39 "../../../libpurple/circbuffer.h"
	.file 40 "jabber.h"
	.file 41 "buddy.h"
	.file 42 "bonjour.h"
	.file 43 "c:/workspace/pidgin-devel/win32-dev/mingw-4.7.2/bin/../lib/gcc/mingw32/4.7.2/../../../../include/ctype.h"
	.file 44 "c:/workspace/pidgin-devel/win32-dev/mingw-4.7.2/bin/../lib/gcc/mingw32/4.7.2/../../../../include/string.h"
	.file 45 "../../../../win32-dev/gtk_2_0-2.14/include/glib-2.0/glib/gunicode.h"
	.file 46 "../../../../win32-dev/gtk_2_0-2.14/include/glib-2.0/glib/gmem.h"
	.file 47 "../../../../win32-dev/gtk_2_0-2.14/include/glib-2.0/glib/gstrfuncs.h"
	.file 48 "mdns_interface.h"
	.file 49 "../../../libpurple/debug.h"