	.file	"nmmessage.c"
	.intel_syntax noprefix
	.text
Ltext0:
	.p2align 2,,3
	.globl	_nm_create_message
	.def	_nm_create_message;	.scl	2;	.type	32;	.endef
_nm_create_message:
LFB25:
	.file 1 "nmmessage.c"
	.loc 1 35 0
	.cfi_startproc
LVL0:
	push	esi
LCFI0:
	.cfi_def_cfa_offset 8
	.cfi_offset 6, -8
	push	ebx
LCFI1:
	.cfi_def_cfa_offset 12
	.cfi_offset 3, -12
	sub	esp, 36
LCFI2:
	.cfi_def_cfa_offset 48
	mov	esi, DWORD PTR [esp+48]
	.loc 1 35 0
	mov	eax, DWORD PTR ___stack_chk_guard
	mov	DWORD PTR [esp+28], eax
	xor	eax, eax
	.loc 1 36 0
	mov	DWORD PTR [esp], 12
	call	_g_malloc0
LVL1:
	mov	ebx, eax
LVL2:
	.loc 1 38 0
	test	esi, esi
	je	L2
	.loc 1 39 0
	mov	DWORD PTR [esp], esi
	call	_g_strdup
LVL3:
	mov	DWORD PTR [ebx+4], eax
L2:
	.loc 1 41 0
	mov	DWORD PTR [ebx+8], 1
	.loc 1 43 0
	mov	eax, ebx
	mov	edx, DWORD PTR [esp+28]
	xor	edx, DWORD PTR ___stack_chk_guard
	jne	L9
LVL4:
	add	esp, 36
LCFI3:
	.cfi_remember_state
	.cfi_def_cfa_offset 12
	pop	ebx
LCFI4:
	.cfi_restore 3
	.cfi_def_cfa_offset 8
	pop	esi
LCFI5:
	.cfi_restore 6
	.cfi_def_cfa_offset 4
	ret
L9:
LCFI6:
	.cfi_restore_state
	call	___stack_chk_fail
LVL5:
	.cfi_endproc
LFE25:
	.p2align 2,,3
	.globl	_nm_message_add_ref
	.def	_nm_message_add_ref;	.scl	2;	.type	32;	.endef
_nm_message_add_ref:
LFB26:
	.loc 1 47 0
	.cfi_startproc
LVL6:
	sub	esp, 28
LCFI7:
	.cfi_def_cfa_offset 32
	mov	eax, DWORD PTR [esp+32]
	.loc 1 47 0
	mov	edx, DWORD PTR ___stack_chk_guard
	mov	DWORD PTR [esp+12], edx
	xor	edx, edx
	.loc 1 48 0
	test	eax, eax
	je	L10
	.loc 1 49 0
	inc	DWORD PTR [eax+8]
L10:
	.loc 1 50 0
	mov	eax, DWORD PTR [esp+12]
	xor	eax, DWORD PTR ___stack_chk_guard
	jne	L17
	add	esp, 28
LCFI8:
	.cfi_remember_state
	.cfi_def_cfa_offset 4
	ret
L17:
LCFI9:
	.cfi_restore_state
	call	___stack_chk_fail
LVL7:
	.cfi_endproc
LFE26:
	.p2align 2,,3
	.globl	_nm_release_message
	.def	_nm_release_message;	.scl	2;	.type	32;	.endef
_nm_release_message:
LFB27:
	.loc 1 54 0
	.cfi_startproc
LVL8:
	push	ebx
LCFI10:
	.cfi_def_cfa_offset 8
	.cfi_offset 3, -8
	sub	esp, 40
LCFI11:
	.cfi_def_cfa_offset 48
	mov	ebx, DWORD PTR [esp+48]
	.loc 1 54 0
	mov	eax, DWORD PTR ___stack_chk_guard
	mov	DWORD PTR [esp+28], eax
	xor	eax, eax
	.loc 1 55 0
	test	ebx, ebx
	je	L18
	.loc 1 55 0 is_stmt 0 discriminator 1
	dec	DWORD PTR [ebx+8]
	jne	L18
	.loc 1 56 0 is_stmt 1
	mov	eax, DWORD PTR [ebx+4]
	test	eax, eax
	je	L22
	.loc 1 57 0
	mov	DWORD PTR [esp], eax
	call	_g_free
LVL9:
L22:
	.loc 1 59 0
	mov	eax, DWORD PTR [ebx]
	test	eax, eax
	je	L23
	.loc 1 60 0
	mov	DWORD PTR [esp], eax
	call	_nm_release_conference
LVL10:
L23:
	.loc 1 62 0
	mov	eax, DWORD PTR [esp+28]
	xor	eax, DWORD PTR ___stack_chk_guard
	jne	L33
	mov	DWORD PTR [esp+48], ebx
	.loc 1 64 0
	add	esp, 40
LCFI12:
	.cfi_remember_state
	.cfi_def_cfa_offset 8
	pop	ebx
LCFI13:
	.cfi_restore 3
	.cfi_def_cfa_offset 4
	.loc 1 62 0
	jmp	_g_free
LVL11:
	.p2align 2,,3
L18:
LCFI14:
	.cfi_restore_state
	.loc 1 64 0
	mov	eax, DWORD PTR [esp+28]
	xor	eax, DWORD PTR ___stack_chk_guard
	jne	L33
	add	esp, 40
LCFI15:
	.cfi_remember_state
	.cfi_def_cfa_offset 8
	pop	ebx
LCFI16:
	.cfi_restore 3
	.cfi_def_cfa_offset 4
	ret
L33:
LCFI17:
	.cfi_restore_state
	call	___stack_chk_fail
LVL12:
	.cfi_endproc
LFE27:
	.p2align 2,,3
	.globl	_nm_message_get_text
	.def	_nm_message_get_text;	.scl	2;	.type	32;	.endef
_nm_message_get_text:
LFB28:
	.loc 1 68 0
	.cfi_startproc
LVL13:
	sub	esp, 28
LCFI18:
	.cfi_def_cfa_offset 32
	mov	eax, DWORD PTR [esp+32]
	.loc 1 68 0
	mov	edx, DWORD PTR ___stack_chk_guard
	mov	DWORD PTR [esp+12], edx
	xor	edx, edx
	.loc 1 69 0
	test	eax, eax
	je	L37
	.loc 1 72 0
	mov	eax, DWORD PTR [eax+4]
L35:
	.loc 1 73 0
	mov	edx, DWORD PTR [esp+12]
	xor	edx, DWORD PTR ___stack_chk_guard
	jne	L39
	add	esp, 28
LCFI19:
	.cfi_remember_state
	.cfi_def_cfa_offset 4
	ret
L37:
LCFI20:
	.cfi_restore_state
	.loc 1 70 0
	xor	eax, eax
	jmp	L35
L39:
	.loc 1 73 0
	call	___stack_chk_fail
LVL14:
	.cfi_endproc
LFE28:
	.p2align 2,,3
	.globl	_nm_message_set_conference
	.def	_nm_message_set_conference;	.scl	2;	.type	32;	.endef
_nm_message_set_conference:
LFB29:
	.loc 1 77 0
	.cfi_startproc
LVL15:
	push	esi
LCFI21:
	.cfi_def_cfa_offset 8
	.cfi_offset 6, -8
	push	ebx
LCFI22:
	.cfi_def_cfa_offset 12
	.cfi_offset 3, -12
	sub	esp, 36
LCFI23:
	.cfi_def_cfa_offset 48
	mov	esi, DWORD PTR [esp+48]
	mov	ebx, DWORD PTR [esp+52]
	.loc 1 77 0
	mov	eax, DWORD PTR ___stack_chk_guard
	mov	DWORD PTR [esp+28], eax
	xor	eax, eax
	.loc 1 78 0
	test	esi, esi
	je	L40
	.loc 1 78 0 is_stmt 0 discriminator 1
	test	ebx, ebx
	je	L40
	.loc 1 84 0 is_stmt 1
	mov	DWORD PTR [esp], ebx
	call	_nm_conference_add_ref
LVL16:
	.loc 1 86 0
	mov	DWORD PTR [esi], ebx
L40:
	.loc 1 87 0
	mov	eax, DWORD PTR [esp+28]
	xor	eax, DWORD PTR ___stack_chk_guard
	jne	L50
	add	esp, 36
LCFI24:
	.cfi_remember_state
	.cfi_def_cfa_offset 12
	pop	ebx
LCFI25:
	.cfi_restore 3
	.cfi_def_cfa_offset 8
	pop	esi
LCFI26:
	.cfi_restore 6
	.cfi_def_cfa_offset 4
	ret
L50:
LCFI27:
	.cfi_restore_state
	call	___stack_chk_fail
LVL17:
	.cfi_endproc
LFE29:
	.p2align 2,,3
	.globl	_nm_message_get_conference
	.def	_nm_message_get_conference;	.scl	2;	.type	32;	.endef
_nm_message_get_conference:
LFB30:
	.loc 1 91 0
	.cfi_startproc
LVL18:
	sub	esp, 28
LCFI28:
	.cfi_def_cfa_offset 32
	mov	eax, DWORD PTR [esp+32]
	.loc 1 91 0
	mov	edx, DWORD PTR ___stack_chk_guard
	mov	DWORD PTR [esp+12], edx
	xor	edx, edx
	.loc 1 92 0
	test	eax, eax
	je	L54
	.loc 1 95 0
	mov	eax, DWORD PTR [eax]
L52:
	.loc 1 96 0
	mov	edx, DWORD PTR [esp+12]
	xor	edx, DWORD PTR ___stack_chk_guard
	jne	L56
	add	esp, 28
LCFI29:
	.cfi_remember_state
	.cfi_def_cfa_offset 4
	ret
L54:
LCFI30:
	.cfi_restore_state
	.loc 1 93 0
	xor	eax, eax
	jmp	L52
L56:
	.loc 1 96 0
	call	___stack_chk_fail
LVL19:
	.cfi_endproc
LFE30:
Letext0:
	.file 2 "nmmessage.h"
	.file 3 "nmconference.h"
	.file 4 "../../../../win32-dev/gtk_2_0-2.14/lib/glib-2.0/include/glibconfig.h"
	.file 5 "../../../../win32-dev/gtk_2_0-2.14/include/glib-2.0/glib/gtypes.h"
	.file 6 "c:/workspace/pidgin-devel/win32-dev/mingw-4.7.2/bin/../lib/gcc/mingw32/4.7.2/../../../../include/stdio.h"
	.file 7 "../../../../win32-dev/gtk_2_0-2.14/include/glib-2.0/glib/gmem.h"
	.file 8 "../../../../win32-dev/gtk_2_0-2.14/include/glib-2.0/glib/gstrfuncs.h"