	.file	"nullprpl.c"
	.intel_syntax noprefix
	.text
Ltext0:
	.section .rdata,"dr"
LC0:
	.ascii "null\0"
	.text
	.p2align 2,,3
	.def	_nullprpl_list_icon;	.scl	3;	.type	32;	.endef
_nullprpl_list_icon:
LFB102:
	.file 1 "nullprpl.c"
	.loc 1 222 0
	.cfi_startproc
LVL0:
	sub	esp, 28
LCFI0:
	.cfi_def_cfa_offset 32
	.loc 1 222 0
	mov	eax, DWORD PTR ___stack_chk_guard
	mov	DWORD PTR [esp+12], eax
	xor	eax, eax
	.loc 1 224 0
	mov	eax, OFFSET FLAT:LC0
	mov	edx, DWORD PTR [esp+12]
	xor	edx, DWORD PTR ___stack_chk_guard
	jne	L5
	add	esp, 28
LCFI1:
	.cfi_remember_state
	.cfi_def_cfa_offset 4
	ret
L5:
LCFI2:
	.cfi_restore_state
	call	___stack_chk_fail
LVL1:
	.cfi_endproc
LFE102:
	.p2align 2,,3
	.def	_nullprpl_set_permit_deny;	.scl	3;	.type	32;	.endef
_nullprpl_set_permit_deny:
LFB129:
	.loc 1 635 0
	.cfi_startproc
LVL2:
	sub	esp, 28
LCFI3:
	.cfi_def_cfa_offset 32
	.loc 1 635 0
	mov	eax, DWORD PTR ___stack_chk_guard
	mov	DWORD PTR [esp+12], eax
	xor	eax, eax
	.loc 1 639 0
	mov	eax, DWORD PTR [esp+12]
	xor	eax, DWORD PTR ___stack_chk_guard
	jne	L9
	add	esp, 28
LCFI4:
	.cfi_remember_state
	.cfi_def_cfa_offset 4
	ret
L9:
LCFI5:
	.cfi_restore_state
	call	___stack_chk_fail
LVL3:
	.cfi_endproc
LFE129:
	.p2align 2,,3
	.def	_nullprpl_normalize;	.scl	3;	.type	32;	.endef
_nullprpl_normalize:
LFB147:
	.loc 1 905 0
	.cfi_startproc
LVL4:
	sub	esp, 28
LCFI6:
	.cfi_def_cfa_offset 32
	.loc 1 905 0
	mov	eax, DWORD PTR ___stack_chk_guard
	mov	DWORD PTR [esp+12], eax
	xor	eax, eax
	.loc 1 907 0
	mov	edx, DWORD PTR [esp+12]
	xor	edx, DWORD PTR ___stack_chk_guard
	jne	L13
	add	esp, 28
LCFI7:
	.cfi_remember_state
	.cfi_def_cfa_offset 4
	ret
L13:
LCFI8:
	.cfi_restore_state
	call	___stack_chk_fail
LVL5:
	.cfi_endproc
LFE147:
	.p2align 2,,3
	.def	_nullprpl_can_receive_file;	.scl	3;	.type	32;	.endef
_nullprpl_can_receive_file:
LFB156:
	.loc 1 1028 0
	.cfi_startproc
LVL6:
	sub	esp, 28
LCFI9:
	.cfi_def_cfa_offset 32
	.loc 1 1028 0
	mov	eax, DWORD PTR ___stack_chk_guard
	mov	DWORD PTR [esp+12], eax
	xor	eax, eax
	.loc 1 1030 0
	mov	edx, DWORD PTR [esp+12]
	xor	edx, DWORD PTR ___stack_chk_guard
	jne	L17
	add	esp, 28
LCFI10:
	.cfi_remember_state
	.cfi_def_cfa_offset 4
	ret
L17:
LCFI11:
	.cfi_restore_state
	call	___stack_chk_fail
LVL7:
	.cfi_endproc
LFE156:
	.section .rdata,"dr"
	.align 4
LC1:
	.ascii "reporting that offline messages are supported for %s\12\0"
LC2:
	.ascii "nullprpl\0"
	.text
	.p2align 2,,3
	.def	_nullprpl_offline_message;	.scl	3;	.type	32;	.endef
_nullprpl_offline_message:
LFB157:
	.loc 1 1032 0
	.cfi_startproc
LVL8:
	sub	esp, 44
LCFI12:
	.cfi_def_cfa_offset 48
	.loc 1 1032 0
	mov	eax, DWORD PTR ___stack_chk_guard
	mov	DWORD PTR [esp+28], eax
	xor	eax, eax
	.loc 1 1033 0
	mov	eax, DWORD PTR [esp+48]
	mov	eax, DWORD PTR [eax+32]
	mov	DWORD PTR [esp+8], eax
	mov	DWORD PTR [esp+4], OFFSET FLAT:LC1
	mov	DWORD PTR [esp], OFFSET FLAT:LC2
	call	_purple_debug_info
LVL9:
	.loc 1 1037 0
	mov	eax, 1
	mov	edx, DWORD PTR [esp+28]
	xor	edx, DWORD PTR ___stack_chk_guard
	jne	L21
	add	esp, 44
LCFI13:
	.cfi_remember_state
	.cfi_def_cfa_offset 4
	ret
L21:
LCFI14:
	.cfi_restore_state
	call	___stack_chk_fail
LVL10:
	.cfi_endproc
LFE157:
	.section .rdata,"dr"
	.align 4
LC3:
	.ascii "%s asked to expand room list category %s\12\0"
	.text
	.p2align 2,,3
	.def	_nullprpl_roomlist_expand_category;	.scl	3;	.type	32;	.endef
_nullprpl_roomlist_expand_category:
LFB155:
	.loc 1 1021 0
	.cfi_startproc
LVL11:
	sub	esp, 44
LCFI15:
	.cfi_def_cfa_offset 48
	.loc 1 1021 0
	mov	eax, DWORD PTR ___stack_chk_guard
	mov	DWORD PTR [esp+28], eax
	xor	eax, eax
	.loc 1 1022 0
	mov	eax, DWORD PTR [esp+52]
	mov	eax, DWORD PTR [eax+4]
	mov	DWORD PTR [esp+12], eax
	.loc 1 1023 0
	mov	eax, DWORD PTR [esp+48]
	mov	eax, DWORD PTR [eax]
	.loc 1 1022 0
	mov	eax, DWORD PTR [eax]
	mov	DWORD PTR [esp+8], eax
	mov	DWORD PTR [esp+4], OFFSET FLAT:LC3
	mov	DWORD PTR [esp], OFFSET FLAT:LC2
	call	_purple_debug_info
LVL12:
	.loc 1 1024 0
	mov	eax, DWORD PTR [esp+28]
	xor	eax, DWORD PTR ___stack_chk_guard
	jne	L25
	add	esp, 44
LCFI16:
	.cfi_remember_state
	.cfi_def_cfa_offset 4
	ret
L25:
LCFI17:
	.cfi_restore_state
	call	___stack_chk_fail
LVL13:
	.cfi_endproc
LFE155:
	.section .rdata,"dr"
	.align 4
LC4:
	.ascii "%s asked to cancel room list request\12\0"
	.text
	.p2align 2,,3
	.def	_nullprpl_roomlist_cancel;	.scl	3;	.type	32;	.endef
_nullprpl_roomlist_cancel:
LFB154:
	.loc 1 1015 0
	.cfi_startproc
LVL14:
	sub	esp, 44
LCFI18:
	.cfi_def_cfa_offset 48
	.loc 1 1015 0
	mov	eax, DWORD PTR ___stack_chk_guard
	mov	DWORD PTR [esp+28], eax
	xor	eax, eax
	.loc 1 1017 0
	mov	eax, DWORD PTR [esp+48]
	mov	eax, DWORD PTR [eax]
	.loc 1 1016 0
	mov	eax, DWORD PTR [eax]
	mov	DWORD PTR [esp+8], eax
	mov	DWORD PTR [esp+4], OFFSET FLAT:LC4
	mov	DWORD PTR [esp], OFFSET FLAT:LC2
	call	_purple_debug_info
LVL15:
	.loc 1 1018 0
	mov	eax, DWORD PTR [esp+28]
	xor	eax, DWORD PTR ___stack_chk_guard
	jne	L29
	add	esp, 44
LCFI19:
	.cfi_remember_state
	.cfi_def_cfa_offset 4
	ret
L29:
LCFI20:
	.cfi_restore_state
	call	___stack_chk_fail
LVL16:
	.cfi_endproc
LFE154:
	.section .rdata,"dr"
LC5:
	.ascii "%s has removed group %s\12\0"
	.text
	.p2align 2,,3
	.def	_nullprpl_remove_group;	.scl	3;	.type	32;	.endef
_nullprpl_remove_group:
LFB149:
	.loc 1 916 0
	.cfi_startproc
LVL17:
	sub	esp, 44
LCFI21:
	.cfi_def_cfa_offset 48
	.loc 1 916 0
	mov	eax, DWORD PTR ___stack_chk_guard
	mov	DWORD PTR [esp+28], eax
	xor	eax, eax
	.loc 1 917 0
	mov	eax, DWORD PTR [esp+52]
	mov	eax, DWORD PTR [eax+32]
	mov	DWORD PTR [esp+12], eax
	.loc 1 918 0
	mov	eax, DWORD PTR [esp+48]
	mov	eax, DWORD PTR [eax+12]
	.loc 1 917 0
	mov	eax, DWORD PTR [eax]
	mov	DWORD PTR [esp+8], eax
	mov	DWORD PTR [esp+4], OFFSET FLAT:LC5
	mov	DWORD PTR [esp], OFFSET FLAT:LC2
	call	_purple_debug_info
LVL18:
	.loc 1 919 0
	mov	eax, DWORD PTR [esp+28]
	xor	eax, DWORD PTR ___stack_chk_guard
	jne	L33
	add	esp, 44
LCFI22:
	.cfi_remember_state
	.cfi_def_cfa_offset 4
	ret
L33:
LCFI23:
	.cfi_restore_state
	call	___stack_chk_fail
LVL19:
	.cfi_endproc
LFE149:
	.section .rdata,"dr"
	.align 4
LC6:
	.ascii "%s's conversation with %s was closed\12\0"
	.text
	.p2align 2,,3
	.def	_nullprpl_convo_closed;	.scl	3;	.type	32;	.endef
_nullprpl_convo_closed:
LFB146:
	.loc 1 896 0
	.cfi_startproc
LVL20:
	sub	esp, 44
LCFI24:
	.cfi_def_cfa_offset 48
	.loc 1 896 0
	mov	eax, DWORD PTR ___stack_chk_guard
	mov	DWORD PTR [esp+28], eax
	xor	eax, eax
	.loc 1 897 0
	mov	eax, DWORD PTR [esp+52]
	mov	DWORD PTR [esp+12], eax
	.loc 1 898 0
	mov	eax, DWORD PTR [esp+48]
	mov	eax, DWORD PTR [eax+12]
	.loc 1 897 0
	mov	eax, DWORD PTR [eax]
	mov	DWORD PTR [esp+8], eax
	mov	DWORD PTR [esp+4], OFFSET FLAT:LC6
	mov	DWORD PTR [esp], OFFSET FLAT:LC2
	call	_purple_debug_info
LVL21:
	.loc 1 899 0
	mov	eax, DWORD PTR [esp+28]
	xor	eax, DWORD PTR ___stack_chk_guard
	jne	L37
	add	esp, 44
LCFI25:
	.cfi_remember_state
	.cfi_def_cfa_offset 4
	ret
L37:
LCFI26:
	.cfi_restore_state
	call	___stack_chk_fail
LVL22:
	.cfi_endproc
LFE146:
	.section .rdata,"dr"
	.align 4
LC7:
	.ascii "%s has renamed group %s to %s\12\0"
	.text
	.p2align 2,,3
	.def	_nullprpl_rename_group;	.scl	3;	.type	32;	.endef
_nullprpl_rename_group:
LFB145:
	.loc 1 891 0
	.cfi_startproc
LVL23:
	sub	esp, 60
LCFI27:
	.cfi_def_cfa_offset 64
	.loc 1 891 0
	mov	eax, DWORD PTR ___stack_chk_guard
	mov	DWORD PTR [esp+44], eax
	xor	eax, eax
	.loc 1 892 0
	mov	eax, DWORD PTR [esp+72]
	mov	eax, DWORD PTR [eax+32]
	mov	DWORD PTR [esp+16], eax
	mov	eax, DWORD PTR [esp+68]
	mov	DWORD PTR [esp+12], eax
	.loc 1 893 0
	mov	eax, DWORD PTR [esp+64]
	mov	eax, DWORD PTR [eax+12]
	.loc 1 892 0
	mov	eax, DWORD PTR [eax]
	mov	DWORD PTR [esp+8], eax
	mov	DWORD PTR [esp+4], OFFSET FLAT:LC7
	mov	DWORD PTR [esp], OFFSET FLAT:LC2
	call	_purple_debug_info
LVL24:
	.loc 1 894 0
	mov	eax, DWORD PTR [esp+44]
	xor	eax, DWORD PTR ___stack_chk_guard
	jne	L41
	add	esp, 60
LCFI28:
	.cfi_remember_state
	.cfi_def_cfa_offset 4
	ret
L41:
LCFI29:
	.cfi_restore_state
	call	___stack_chk_fail
LVL25:
	.cfi_endproc
LFE145:
	.section .rdata,"dr"
	.align 4
LC8:
	.ascii "%s has moved %s from group %s to group %s\12\0"
	.text
	.p2align 2,,3
	.def	_nullprpl_group_buddy;	.scl	3;	.type	32;	.endef
_nullprpl_group_buddy:
LFB144:
	.loc 1 885 0
	.cfi_startproc
LVL26:
	sub	esp, 60
LCFI30:
	.cfi_def_cfa_offset 64
	.loc 1 885 0
	mov	eax, DWORD PTR ___stack_chk_guard
	mov	DWORD PTR [esp+44], eax
	xor	eax, eax
	.loc 1 886 0
	mov	eax, DWORD PTR [esp+76]
	mov	DWORD PTR [esp+20], eax
	mov	eax, DWORD PTR [esp+72]
	mov	DWORD PTR [esp+16], eax
	mov	eax, DWORD PTR [esp+68]
	mov	DWORD PTR [esp+12], eax
	.loc 1 887 0
	mov	eax, DWORD PTR [esp+64]
	mov	eax, DWORD PTR [eax+12]
	.loc 1 886 0
	mov	eax, DWORD PTR [eax]
	mov	DWORD PTR [esp+8], eax
	mov	DWORD PTR [esp+4], OFFSET FLAT:LC8
	mov	DWORD PTR [esp], OFFSET FLAT:LC2
	call	_purple_debug_info
LVL27:
	.loc 1 888 0
	mov	eax, DWORD PTR [esp+44]
	xor	eax, DWORD PTR ___stack_chk_guard
	jne	L45
	add	esp, 60
LCFI31:
	.cfi_remember_state
	.cfi_def_cfa_offset 4
	ret
L45:
LCFI32:
	.cfi_restore_state
	call	___stack_chk_fail
LVL28:
	.cfi_endproc
LFE144:
	.section .rdata,"dr"
LC9:
	.ascii "%s sets %s's alias to %s\12\0"
	.text
	.p2align 2,,3
	.def	_nullprpl_alias_buddy;	.scl	3;	.type	32;	.endef
_nullprpl_alias_buddy:
LFB143:
	.loc 1 878 0
	.cfi_startproc
LVL29:
	sub	esp, 60
LCFI33:
	.cfi_def_cfa_offset 64
	.loc 1 878 0
	mov	eax, DWORD PTR ___stack_chk_guard
	mov	DWORD PTR [esp+44], eax
	xor	eax, eax
	.loc 1 879 0
	mov	eax, DWORD PTR [esp+72]
	mov	DWORD PTR [esp+16], eax
	mov	eax, DWORD PTR [esp+68]
	mov	DWORD PTR [esp+12], eax
	.loc 1 880 0
	mov	eax, DWORD PTR [esp+64]
	mov	eax, DWORD PTR [eax+12]
	.loc 1 879 0
	mov	eax, DWORD PTR [eax]
	mov	DWORD PTR [esp+8], eax
	mov	DWORD PTR [esp+4], OFFSET FLAT:LC9
	mov	DWORD PTR [esp], OFFSET FLAT:LC2
	call	_purple_debug_info
LVL30:
	.loc 1 881 0
	mov	eax, DWORD PTR [esp+44]
	xor	eax, DWORD PTR ___stack_chk_guard
	jne	L49
	add	esp, 60
LCFI34:
	.cfi_remember_state
	.cfi_def_cfa_offset 4
	ret
L49:
LCFI35:
	.cfi_restore_state
	call	___stack_chk_fail
LVL31:
	.cfi_endproc
LFE143:
	.section .rdata,"dr"
LC10:
	.ascii "registering account for %s\12\0"
	.text
	.p2align 2,,3
	.def	_nullprpl_register_user;	.scl	3;	.type	32;	.endef
_nullprpl_register_user:
LFB141:
	.loc 1 863 0
	.cfi_startproc
LVL32:
	sub	esp, 44
LCFI36:
	.cfi_def_cfa_offset 48
	.loc 1 863 0
	mov	eax, DWORD PTR ___stack_chk_guard
	mov	DWORD PTR [esp+28], eax
	xor	eax, eax
	.loc 1 864 0
	mov	eax, DWORD PTR [esp+48]
	mov	eax, DWORD PTR [eax]
	mov	DWORD PTR [esp+8], eax
	mov	DWORD PTR [esp+4], OFFSET FLAT:LC10
	mov	DWORD PTR [esp], OFFSET FLAT:LC2
	call	_purple_debug_info
LVL33:
	.loc 1 866 0
	mov	eax, DWORD PTR [esp+28]
	xor	eax, DWORD PTR ___stack_chk_guard
	jne	L53
	add	esp, 44
LCFI37:
	.cfi_remember_state
	.cfi_def_cfa_offset 4
	ret
L53:
LCFI38:
	.cfi_restore_state
	call	___stack_chk_fail
LVL34:
	.cfi_endproc
LFE141:
	.section .rdata,"dr"
	.align 4
LC11:
	.ascii "%s removes %s from their blocked list\12\0"
	.text
	.p2align 2,,3
	.def	_nullprpl_rem_deny;	.scl	3;	.type	32;	.endef
_nullprpl_rem_deny:
LFB128:
	.loc 1 630 0
	.cfi_startproc
LVL35:
	sub	esp, 44
LCFI39:
	.cfi_def_cfa_offset 48
	.loc 1 630 0
	mov	eax, DWORD PTR ___stack_chk_guard
	mov	DWORD PTR [esp+28], eax
	xor	eax, eax
	.loc 1 631 0
	mov	eax, DWORD PTR [esp+52]
	mov	DWORD PTR [esp+12], eax
	.loc 1 632 0
	mov	eax, DWORD PTR [esp+48]
	mov	eax, DWORD PTR [eax+12]
	.loc 1 631 0
	mov	eax, DWORD PTR [eax]
	mov	DWORD PTR [esp+8], eax
	mov	DWORD PTR [esp+4], OFFSET FLAT:LC11
	mov	DWORD PTR [esp], OFFSET FLAT:LC2
	call	_purple_debug_info
LVL36:
	.loc 1 633 0
	mov	eax, DWORD PTR [esp+28]
	xor	eax, DWORD PTR ___stack_chk_guard
	jne	L57
	add	esp, 44
LCFI40:
	.cfi_remember_state
	.cfi_def_cfa_offset 4
	ret
L57:
LCFI41:
	.cfi_restore_state
	call	___stack_chk_fail
LVL37:
	.cfi_endproc
LFE128:
	.section .rdata,"dr"
	.align 4
LC12:
	.ascii "%s removes %s from their allowed list\12\0"
	.text
	.p2align 2,,3
	.def	_nullprpl_rem_permit;	.scl	3;	.type	32;	.endef
_nullprpl_rem_permit:
LFB127:
	.loc 1 625 0
	.cfi_startproc
LVL38:
	sub	esp, 44
LCFI42:
	.cfi_def_cfa_offset 48
	.loc 1 625 0
	mov	eax, DWORD PTR ___stack_chk_guard
	mov	DWORD PTR [esp+28], eax
	xor	eax, eax
	.loc 1 626 0
	mov	eax, DWORD PTR [esp+52]
	mov	DWORD PTR [esp+12], eax
	.loc 1 627 0
	mov	eax, DWORD PTR [esp+48]
	mov	eax, DWORD PTR [eax+12]
	.loc 1 626 0
	mov	eax, DWORD PTR [eax]
	mov	DWORD PTR [esp+8], eax
	mov	DWORD PTR [esp+4], OFFSET FLAT:LC12
	mov	DWORD PTR [esp], OFFSET FLAT:LC2
	call	_purple_debug_info
LVL39:
	.loc 1 628 0
	mov	eax, DWORD PTR [esp+28]
	xor	eax, DWORD PTR ___stack_chk_guard
	jne	L61
	add	esp, 44
LCFI43:
	.cfi_remember_state
	.cfi_def_cfa_offset 4
	ret
L61:
LCFI44:
	.cfi_restore_state
	call	___stack_chk_fail
LVL40:
	.cfi_endproc
LFE127:
	.section .rdata,"dr"
	.align 4
LC13:
	.ascii "%s adds %s to their blocked list\12\0"
	.text
	.p2align 2,,3
	.def	_nullprpl_add_deny;	.scl	3;	.type	32;	.endef
_nullprpl_add_deny:
LFB126:
	.loc 1 620 0
	.cfi_startproc
LVL41:
	sub	esp, 44
LCFI45:
	.cfi_def_cfa_offset 48
	.loc 1 620 0
	mov	eax, DWORD PTR ___stack_chk_guard
	mov	DWORD PTR [esp+28], eax
	xor	eax, eax
	.loc 1 621 0
	mov	eax, DWORD PTR [esp+52]
	mov	DWORD PTR [esp+12], eax
	.loc 1 622 0
	mov	eax, DWORD PTR [esp+48]
	mov	eax, DWORD PTR [eax+12]
	.loc 1 621 0
	mov	eax, DWORD PTR [eax]
	mov	DWORD PTR [esp+8], eax
	mov	DWORD PTR [esp+4], OFFSET FLAT:LC13
	mov	DWORD PTR [esp], OFFSET FLAT:LC2
	call	_purple_debug_info
LVL42:
	.loc 1 623 0
	mov	eax, DWORD PTR [esp+28]
	xor	eax, DWORD PTR ___stack_chk_guard
	jne	L65
	add	esp, 44
LCFI46:
	.cfi_remember_state
	.cfi_def_cfa_offset 4
	ret
L65:
LCFI47:
	.cfi_restore_state
	call	___stack_chk_fail
LVL43:
	.cfi_endproc
LFE126:
	.section .rdata,"dr"
	.align 4
LC14:
	.ascii "%s adds %s to their allowed list\12\0"
	.text
	.p2align 2,,3
	.def	_nullprpl_add_permit;	.scl	3;	.type	32;	.endef
_nullprpl_add_permit:
LFB125:
	.loc 1 615 0
	.cfi_startproc
LVL44:
	sub	esp, 44
LCFI48:
	.cfi_def_cfa_offset 48
	.loc 1 615 0
	mov	eax, DWORD PTR ___stack_chk_guard
	mov	DWORD PTR [esp+28], eax
	xor	eax, eax
	.loc 1 616 0
	mov	eax, DWORD PTR [esp+52]
	mov	DWORD PTR [esp+12], eax
	.loc 1 617 0
	mov	eax, DWORD PTR [esp+48]
	mov	eax, DWORD PTR [eax+12]
	.loc 1 616 0
	mov	eax, DWORD PTR [eax]
	mov	DWORD PTR [esp+8], eax
	mov	DWORD PTR [esp+4], OFFSET FLAT:LC14
	mov	DWORD PTR [esp], OFFSET FLAT:LC2
	call	_purple_debug_info
LVL45:
	.loc 1 618 0
	mov	eax, DWORD PTR [esp+28]
	xor	eax, DWORD PTR ___stack_chk_guard
	jne	L69
	add	esp, 44
LCFI49:
	.cfi_remember_state
	.cfi_def_cfa_offset 4
	ret
L69:
LCFI50:
	.cfi_restore_state
	call	___stack_chk_fail
LVL46:
	.cfi_endproc
LFE125:
	.section .rdata,"dr"
	.align 4
LC15:
	.ascii "removing %s from %s's buddy list\12\0"
	.text
	.p2align 2,,3
	.def	_nullprpl_remove_buddy;	.scl	3;	.type	32;	.endef
_nullprpl_remove_buddy:
LFB123:
	.loc 1 589 0
	.cfi_startproc
LVL47:
	sub	esp, 44
LCFI51:
	.cfi_def_cfa_offset 48
	.loc 1 589 0
	mov	eax, DWORD PTR ___stack_chk_guard
	mov	DWORD PTR [esp+28], eax
	xor	eax, eax
	.loc 1 591 0
	mov	eax, DWORD PTR [esp+48]
	mov	eax, DWORD PTR [eax+12]
	.loc 1 590 0
	mov	eax, DWORD PTR [eax]
	mov	DWORD PTR [esp+12], eax
	mov	eax, DWORD PTR [esp+52]
	mov	eax, DWORD PTR [eax+32]
	mov	DWORD PTR [esp+8], eax
	mov	DWORD PTR [esp+4], OFFSET FLAT:LC15
	mov	DWORD PTR [esp], OFFSET FLAT:LC2
	call	_purple_debug_info
LVL48:
	.loc 1 592 0
	mov	eax, DWORD PTR [esp+28]
	xor	eax, DWORD PTR ___stack_chk_guard
	jne	L73
	add	esp, 44
LCFI52:
	.cfi_remember_state
	.cfi_def_cfa_offset 4
	ret
L73:
LCFI53:
	.cfi_restore_state
	call	___stack_chk_fail
LVL49:
	.cfi_endproc
LFE123:
	.section .rdata,"dr"
LC16:
	.ascii "removing multiple buddies\12\0"
	.text
	.p2align 2,,3
	.def	_nullprpl_remove_buddies;	.scl	3;	.type	32;	.endef
_nullprpl_remove_buddies:
LFB124:
	.loc 1 595 0
	.cfi_startproc
LVL50:
	push	edi
LCFI54:
	.cfi_def_cfa_offset 8
	.cfi_offset 7, -8
	push	esi
LCFI55:
	.cfi_def_cfa_offset 12
	.cfi_offset 6, -12
	push	ebx
LCFI56:
	.cfi_def_cfa_offset 16
	.cfi_offset 3, -16
	sub	esp, 32
LCFI57:
	.cfi_def_cfa_offset 48
	mov	edi, DWORD PTR [esp+48]
	mov	ebx, DWORD PTR [esp+52]
	mov	esi, DWORD PTR [esp+56]
	.loc 1 595 0
	mov	eax, DWORD PTR ___stack_chk_guard
	mov	DWORD PTR [esp+28], eax
	xor	eax, eax
LVL51:
	.loc 1 599 0
	mov	DWORD PTR [esp+4], OFFSET FLAT:LC16
	mov	DWORD PTR [esp], OFFSET FLAT:LC2
	call	_purple_debug_info
LVL52:
	.loc 1 601 0
	test	ebx, ebx
	jne	L87
	jmp	L74
	.p2align 2,,3
L88:
	.loc 1 602 0
	mov	eax, DWORD PTR [esi]
	mov	DWORD PTR [esp+8], eax
	mov	eax, DWORD PTR [ebx]
	mov	DWORD PTR [esp+4], eax
	mov	DWORD PTR [esp], edi
	call	_nullprpl_remove_buddy
LVL53:
	.loc 1 604 0
	mov	ebx, DWORD PTR [ebx+4]
LVL54:
	.loc 1 605 0
	mov	esi, DWORD PTR [esi+4]
LVL55:
	.loc 1 601 0
	test	ebx, ebx
	je	L74
L87:
	test	esi, esi
	jne	L88
L74:
	.loc 1 607 0
	mov	eax, DWORD PTR [esp+28]
	xor	eax, DWORD PTR ___stack_chk_guard
	jne	L89
	add	esp, 32
LCFI58:
	.cfi_remember_state
	.cfi_def_cfa_offset 16
	pop	ebx
LCFI59:
	.cfi_restore 3
	.cfi_def_cfa_offset 12
LVL56:
	pop	esi
LCFI60:
	.cfi_restore 6
	.cfi_def_cfa_offset 8
LVL57:
	pop	edi
LCFI61:
	.cfi_restore 7
	.cfi_def_cfa_offset 4
	ret
LVL58:
L89:
LCFI62:
	.cfi_restore_state
	call	___stack_chk_fail
LVL59:
	.cfi_endproc
LFE124:
	.section .rdata,"dr"
	.align 4
LC17:
	.ascii "%s wants to change their password\12\0"
	.text
	.p2align 2,,3
	.def	_nullprpl_change_passwd;	.scl	3;	.type	32;	.endef
_nullprpl_change_passwd:
LFB120:
	.loc 1 539 0
	.cfi_startproc
LVL60:
	sub	esp, 28
LCFI63:
	.cfi_def_cfa_offset 32
	mov	eax, DWORD PTR [esp+32]
	.loc 1 539 0
	mov	edx, DWORD PTR ___stack_chk_guard
	mov	DWORD PTR [esp+12], edx
	xor	edx, edx
	.loc 1 540 0
	mov	edx, DWORD PTR [esp+12]
	xor	edx, DWORD PTR ___stack_chk_guard
	jne	L94
	.loc 1 541 0
	mov	eax, DWORD PTR [eax+12]
	.loc 1 540 0
	mov	eax, DWORD PTR [eax]
	mov	DWORD PTR [esp+40], eax
	mov	DWORD PTR [esp+36], OFFSET FLAT:LC17
	mov	DWORD PTR [esp+32], OFFSET FLAT:LC2
	.loc 1 542 0
	add	esp, 28
LCFI64:
	.cfi_remember_state
	.cfi_def_cfa_offset 4
	.loc 1 540 0
	jmp	_purple_debug_info
LVL61:
L94:
LCFI65:
	.cfi_restore_state
	call	___stack_chk_fail
LVL62:
	.cfi_endproc
LFE120:
	.section .rdata,"dr"
	.align 4
LC18:
	.ascii "purple reports that %s has been idle for %d seconds\12\0"
	.text
	.p2align 2,,3
	.def	_nullprpl_set_idle;	.scl	3;	.type	32;	.endef
_nullprpl_set_idle:
LFB119:
	.loc 1 532 0
	.cfi_startproc
LVL63:
	sub	esp, 44
LCFI66:
	.cfi_def_cfa_offset 48
	.loc 1 532 0
	mov	eax, DWORD PTR ___stack_chk_guard
	mov	DWORD PTR [esp+28], eax
	xor	eax, eax
	.loc 1 533 0
	mov	eax, DWORD PTR [esp+52]
	mov	DWORD PTR [esp+12], eax
	.loc 1 535 0
	mov	eax, DWORD PTR [esp+48]
	mov	eax, DWORD PTR [eax+12]
	.loc 1 533 0
	mov	eax, DWORD PTR [eax]
	mov	DWORD PTR [esp+8], eax
	mov	DWORD PTR [esp+4], OFFSET FLAT:LC18
	mov	DWORD PTR [esp], OFFSET FLAT:LC2
	call	_purple_debug_info
LVL64:
	.loc 1 536 0
	mov	eax, DWORD PTR [esp+28]
	xor	eax, DWORD PTR ___stack_chk_guard
	jne	L98
	add	esp, 44
LCFI67:
	.cfi_remember_state
	.cfi_def_cfa_offset 4
	ret
L98:
LCFI68:
	.cfi_restore_state
	call	___stack_chk_fail
LVL65:
	.cfi_endproc
LFE119:
	.section .rdata,"dr"
LC19:
	.ascii "setting %s's user info to %s\12\0"
	.text
	.p2align 2,,3
	.def	_nullprpl_set_info;	.scl	3;	.type	32;	.endef
_nullprpl_set_info:
LFB113:
	.loc 1 458 0
	.cfi_startproc
LVL66:
	sub	esp, 44
LCFI69:
	.cfi_def_cfa_offset 48
	.loc 1 458 0
	mov	eax, DWORD PTR ___stack_chk_guard
	mov	DWORD PTR [esp+28], eax
	xor	eax, eax
	.loc 1 459 0
	mov	eax, DWORD PTR [esp+52]
	mov	DWORD PTR [esp+12], eax
	.loc 1 460 0
	mov	eax, DWORD PTR [esp+48]
	mov	eax, DWORD PTR [eax+12]
	.loc 1 459 0
	mov	eax, DWORD PTR [eax]
	mov	DWORD PTR [esp+8], eax
	mov	DWORD PTR [esp+4], OFFSET FLAT:LC19
	mov	DWORD PTR [esp], OFFSET FLAT:LC2
	call	_purple_debug_info
LVL67:
	.loc 1 461 0
	mov	eax, DWORD PTR [esp+28]
	xor	eax, DWORD PTR ___stack_chk_guard
	jne	L102
	add	esp, 44
LCFI70:
	.cfi_remember_state
	.cfi_def_cfa_offset 4
	ret
L102:
LCFI71:
	.cfi_restore_state
	call	___stack_chk_fail
LVL68:
	.cfi_endproc
LFE113:
	.section .rdata,"dr"
LC20:
	.ascii "shutting down\12\0"
	.text
	.p2align 2,,3
	.def	_nullprpl_destroy;	.scl	3;	.type	32;	.endef
_nullprpl_destroy:
LFB159:
	.loc 1 1166 0
	.cfi_startproc
LVL69:
	sub	esp, 44
LCFI72:
	.cfi_def_cfa_offset 48
	.loc 1 1166 0
	mov	eax, DWORD PTR ___stack_chk_guard
	mov	DWORD PTR [esp+28], eax
	xor	eax, eax
	.loc 1 1167 0
	mov	DWORD PTR [esp+4], OFFSET FLAT:LC20
	mov	DWORD PTR [esp], OFFSET FLAT:LC2
	call	_purple_debug_info
LVL70:
	.loc 1 1168 0
	mov	eax, DWORD PTR [esp+28]
	xor	eax, DWORD PTR ___stack_chk_guard
	jne	L106
	add	esp, 44
LCFI73:
	.cfi_remember_state
	.cfi_def_cfa_offset 4
	ret
L106:
LCFI74:
	.cfi_restore_state
	call	___stack_chk_fail
LVL71:
	.cfi_endproc
LFE159:
	.section .rdata,"dr"
	.align 4
LC21:
	.ascii "%s asks for room list; returning:\12\0"
LC22:
	.ascii "room\0"
LC23:
	.ascii "Id\0"
LC24:
	.ascii "%s (%d), \0"
	.text
	.p2align 2,,3
	.def	_nullprpl_roomlist_get_list;	.scl	3;	.type	32;	.endef
_nullprpl_roomlist_get_list:
LFB153:
	.loc 1 966 0
	.cfi_startproc
LVL72:
	push	ebp
LCFI75:
	.cfi_def_cfa_offset 8
	.cfi_offset 5, -8
	push	edi
LCFI76:
	.cfi_def_cfa_offset 12
	.cfi_offset 7, -12
	push	esi
LCFI77:
	.cfi_def_cfa_offset 16
	.cfi_offset 6, -16
	push	ebx
LCFI78:
	.cfi_def_cfa_offset 20
	.cfi_offset 3, -20
	sub	esp, 60
LCFI79:
	.cfi_def_cfa_offset 80
	.loc 1 966 0
	mov	eax, DWORD PTR ___stack_chk_guard
	mov	DWORD PTR [esp+44], eax
	xor	eax, eax
	.loc 1 967 0
	mov	eax, DWORD PTR [esp+80]
	mov	eax, DWORD PTR [eax+12]
	mov	ebx, DWORD PTR [eax]
LVL73:
	.loc 1 968 0
	mov	DWORD PTR [esp], eax
	call	_purple_roomlist_new
LVL74:
	mov	ebp, eax
LVL75:
	.loc 1 974 0
	mov	DWORD PTR [esp+8], ebx
	mov	DWORD PTR [esp+4], OFFSET FLAT:LC21
	mov	DWORD PTR [esp], OFFSET FLAT:LC2
	call	_purple_debug_info
LVL76:
	.loc 1 977 0
	mov	DWORD PTR [esp+12], 1
	mov	DWORD PTR [esp+8], OFFSET FLAT:LC22
	mov	DWORD PTR [esp+4], OFFSET FLAT:LC22
	mov	DWORD PTR [esp], 2
	call	_purple_roomlist_field_new
LVL77:
	.loc 1 979 0
	mov	DWORD PTR [esp+4], eax
	mov	DWORD PTR [esp], 0
	call	_g_list_append
LVL78:
	mov	ebx, eax
LVL79:
	.loc 1 981 0
	mov	DWORD PTR [esp+12], 0
	mov	DWORD PTR [esp+8], OFFSET FLAT:LC23
	mov	DWORD PTR [esp+4], OFFSET FLAT:LC23
	mov	DWORD PTR [esp], 1
	call	_purple_roomlist_field_new
LVL80:
	.loc 1 982 0
	mov	DWORD PTR [esp+4], eax
	mov	DWORD PTR [esp], ebx
	call	_g_list_append
LVL81:
	.loc 1 984 0
	mov	DWORD PTR [esp+4], eax
	mov	DWORD PTR [esp], ebp
	call	_purple_roomlist_set_fields
LVL82:
	.loc 1 988 0
	call	_purple_get_chats
LVL83:
	mov	ebx, eax
LVL84:
	xor	edi, edi
	test	eax, eax
	je	L108
LVL85:
	.p2align 2,,3
L111:
LBB7:
	.loc 1 989 0
	mov	eax, DWORD PTR [ebx]
LVL86:
	.loc 1 991 0
	mov	esi, DWORD PTR [eax+8]
LVL87:
	.loc 1 992 0
	mov	DWORD PTR [esp], eax
	call	_purple_conversation_get_chat_data
LVL88:
	mov	eax, DWORD PTR [eax+20]
	mov	DWORD PTR [esp+40], eax
	.loc 1 995 0
	mov	DWORD PTR [esp+8], OFFSET FLAT:_strcmp
	mov	DWORD PTR [esp+4], esi
	mov	DWORD PTR [esp], edi
	call	_g_list_find_custom
LVL89:
	test	eax, eax
	je	L116
L110:
LVL90:
LBE7:
	.loc 1 988 0
	mov	ebx, DWORD PTR [ebx+4]
LVL91:
	test	ebx, ebx
	jne	L111
LVL92:
L108:
	.loc 1 1010 0
	mov	DWORD PTR [esp], edi
	call	_g_list_free
LVL93:
	.loc 1 1011 0
	mov	DWORD PTR [esp+8], ebp
	mov	DWORD PTR [esp+4], OFFSET FLAT:_nullprpl_finish_get_roomlist
	mov	DWORD PTR [esp], 1
	call	_purple_timeout_add
LVL94:
	.loc 1 1013 0
	mov	eax, ebp
	mov	edx, DWORD PTR [esp+44]
	xor	edx, DWORD PTR ___stack_chk_guard
	jne	L117
LVL95:
	add	esp, 60
LCFI80:
	.cfi_remember_state
	.cfi_def_cfa_offset 20
	pop	ebx
LCFI81:
	.cfi_restore 3
	.cfi_def_cfa_offset 16
LVL96:
	pop	esi
LCFI82:
	.cfi_restore 6
	.cfi_def_cfa_offset 12
	pop	edi
LCFI83:
	.cfi_restore 7
	.cfi_def_cfa_offset 8
	pop	ebp
LCFI84:
	.cfi_restore 5
	.cfi_def_cfa_offset 4
	ret
LVL97:
	.p2align 2,,3
L116:
LCFI85:
	.cfi_restore_state
LBB8:
	.loc 1 1001 0
	mov	DWORD PTR [esp+4], esi
	mov	DWORD PTR [esp], edi
	call	_g_list_prepend
LVL98:
	mov	edi, eax
LVL99:
	.loc 1 1002 0
	mov	eax, DWORD PTR [esp+40]
LVL100:
	mov	DWORD PTR [esp+12], eax
	mov	DWORD PTR [esp+8], esi
	mov	DWORD PTR [esp+4], OFFSET FLAT:LC24
	mov	DWORD PTR [esp], OFFSET FLAT:LC2
	call	_purple_debug_info
LVL101:
	.loc 1 1004 0
	mov	DWORD PTR [esp+8], 0
	mov	DWORD PTR [esp+4], esi
	mov	DWORD PTR [esp], 2
	call	_purple_roomlist_room_new
LVL102:
	.loc 1 1005 0
	mov	DWORD PTR [esp+8], esi
	mov	DWORD PTR [esp+4], eax
	mov	DWORD PTR [esp], ebp
	mov	DWORD PTR [esp+28], eax
	call	_purple_roomlist_room_add_field
LVL103:
	.loc 1 1006 0
	lea	edx, [esp+40]
	mov	DWORD PTR [esp+8], edx
	mov	eax, DWORD PTR [esp+28]
	mov	DWORD PTR [esp+4], eax
	mov	DWORD PTR [esp], ebp
	call	_purple_roomlist_room_add_field
LVL104:
	.loc 1 1007 0
	mov	eax, DWORD PTR [esp+28]
	mov	DWORD PTR [esp+4], eax
	mov	DWORD PTR [esp], ebp
	call	_purple_roomlist_room_add
LVL105:
	jmp	L110
LVL106:
L117:
LBE8:
	.loc 1 1013 0
	call	___stack_chk_fail
LVL107:
	.cfi_endproc
LFE153:
	.p2align 2,,3
	.def	_nullprpl_finish_get_roomlist;	.scl	3;	.type	32;	.endef
_nullprpl_finish_get_roomlist:
LFB152:
	.loc 1 961 0
	.cfi_startproc
LVL108:
	sub	esp, 44
LCFI86:
	.cfi_def_cfa_offset 48
	.loc 1 961 0
	mov	eax, DWORD PTR ___stack_chk_guard
	mov	DWORD PTR [esp+28], eax
	xor	eax, eax
	.loc 1 962 0
	mov	DWORD PTR [esp+4], 0
	mov	eax, DWORD PTR [esp+48]
	mov	DWORD PTR [esp], eax
	call	_purple_roomlist_set_in_progress
LVL109:
	.loc 1 964 0
	xor	eax, eax
	mov	edx, DWORD PTR [esp+28]
	xor	edx, DWORD PTR ___stack_chk_guard
	jne	L121
	add	esp, 44
LCFI87:
	.cfi_remember_state
	.cfi_def_cfa_offset 4
	ret
L121:
LCFI88:
	.cfi_restore_state
	call	___stack_chk_fail
LVL110:
	.cfi_endproc
LFE152:
	.p2align 2,,3
	.def	_call_chat_func;	.scl	3;	.type	32;	.endef
_call_chat_func:
LFB96:
	.loc 1 137 0
	.cfi_startproc
LVL111:
	push	edi
LCFI89:
	.cfi_def_cfa_offset 8
	.cfi_offset 7, -8
	push	esi
LCFI90:
	.cfi_def_cfa_offset 12
	.cfi_offset 6, -12
	push	ebx
LCFI91:
	.cfi_def_cfa_offset 16
	.cfi_offset 3, -16
	sub	esp, 48
LCFI92:
	.cfi_def_cfa_offset 64
	mov	ebx, DWORD PTR [esp+68]
	.loc 1 137 0
	mov	eax, DWORD PTR ___stack_chk_guard
	mov	DWORD PTR [esp+44], eax
	xor	eax, eax
LVL112:
	.loc 1 141 0
	mov	eax, DWORD PTR [ebx+4]
	mov	edi, DWORD PTR [eax+20]
LVL113:
	.loc 1 142 0
	mov	DWORD PTR [esp+4], edi
	mov	eax, DWORD PTR [esp+64]
	mov	DWORD PTR [esp], eax
	call	_purple_find_chat
LVL114:
	mov	esi, eax
LVL115:
	.loc 1 143 0
	test	eax, eax
	je	L122
LBB9:
	.loc 1 144 0
	mov	DWORD PTR [esp], eax
	call	_purple_conversation_get_chat_data
LVL116:
	.loc 1 145 0
	mov	edx, DWORD PTR [ebx+8]
	mov	DWORD PTR [esp+16], edx
	mov	edx, DWORD PTR [esi+8]
	mov	DWORD PTR [esp+12], edx
	mov	DWORD PTR [esp+8], edi
	mov	DWORD PTR [esp+4], eax
	mov	eax, DWORD PTR [ebx+4]
LVL117:
	mov	DWORD PTR [esp], eax
	call	[DWORD PTR [ebx]]
LVL118:
L122:
LBE9:
	.loc 1 147 0
	mov	eax, DWORD PTR [esp+44]
	xor	eax, DWORD PTR ___stack_chk_guard
	jne	L129
	add	esp, 48
LCFI93:
	.cfi_remember_state
	.cfi_def_cfa_offset 16
	pop	ebx
LCFI94:
	.cfi_restore 3
	.cfi_def_cfa_offset 12
LVL119:
	pop	esi
LCFI95:
	.cfi_restore 6
	.cfi_def_cfa_offset 8
LVL120:
	pop	edi
LCFI96:
	.cfi_restore 7
	.cfi_def_cfa_offset 4
LVL121:
	ret
LVL122:
L129:
LCFI97:
	.cfi_restore_state
	call	___stack_chk_fail
LVL123:
	.cfi_endproc
LFE96:
	.p2align 2,,3
	.def	_foreach_gc_in_chat;	.scl	3;	.type	32;	.endef
_foreach_gc_in_chat:
LFB97:
	.loc 1 150 0
	.cfi_startproc
LVL124:
	push	esi
LCFI98:
	.cfi_def_cfa_offset 8
	.cfi_offset 6, -8
	push	ebx
LCFI99:
	.cfi_def_cfa_offset 12
	.cfi_offset 3, -12
	sub	esp, 36
LCFI100:
	.cfi_def_cfa_offset 48
	mov	ebx, eax
	mov	esi, DWORD PTR [esp+48]
	.loc 1 150 0
	mov	eax, DWORD PTR ___stack_chk_guard
	mov	DWORD PTR [esp+28], eax
	xor	eax, eax
LVL125:
	.loc 1 151 0
	mov	DWORD PTR [esp+4], ecx
	mov	DWORD PTR [esp], edx
	call	_purple_find_chat
LVL126:
	.loc 1 152 0
	mov	DWORD PTR [esp+16], ebx
	.loc 1 153 0
	mov	DWORD PTR [esp], eax
	call	_purple_conversation_get_chat_data
LVL127:
	.loc 1 152 0
	mov	DWORD PTR [esp+20], eax
	mov	DWORD PTR [esp+24], esi
	.loc 1 156 0
	call	_purple_connections_get_all
LVL128:
	.loc 1 157 0
	lea	edx, [esp+16]
	mov	DWORD PTR [esp+8], edx
	.loc 1 156 0
	mov	DWORD PTR [esp+4], OFFSET FLAT:_call_chat_func
	mov	DWORD PTR [esp], eax
	call	_g_list_foreach
LVL129:
	.loc 1 158 0
	mov	eax, DWORD PTR [esp+28]
	xor	eax, DWORD PTR ___stack_chk_guard
	jne	L133
	add	esp, 36
LCFI101:
	.cfi_remember_state
	.cfi_def_cfa_offset 12
	pop	ebx
LCFI102:
	.cfi_restore 3
	.cfi_def_cfa_offset 8
LVL130:
	pop	esi
LCFI103:
	.cfi_restore 6
	.cfi_def_cfa_offset 4
	ret
LVL131:
L133:
LCFI104:
	.cfi_restore_state
	call	___stack_chk_fail
LVL132:
	.cfi_endproc
LFE97:
	.section .rdata,"dr"
	.align 4
LC25:
	.ascii "%s sets topic of chat room '%s' to '%s'\12\0"
	.text
	.p2align 2,,3
	.def	_nullprpl_set_chat_topic;	.scl	3;	.type	32;	.endef
_nullprpl_set_chat_topic:
LFB151:
	.loc 1 942 0
	.cfi_startproc
LVL133:
	push	ebp
LCFI105:
	.cfi_def_cfa_offset 8
	.cfi_offset 5, -8
	push	edi
LCFI106:
	.cfi_def_cfa_offset 12
	.cfi_offset 7, -12
	push	esi
LCFI107:
	.cfi_def_cfa_offset 16
	.cfi_offset 6, -16
	push	ebx
LCFI108:
	.cfi_def_cfa_offset 20
	.cfi_offset 3, -20
	sub	esp, 76
LCFI109:
	.cfi_def_cfa_offset 96
	mov	esi, DWORD PTR [esp+96]
	mov	ebp, DWORD PTR [esp+100]
	mov	ebx, DWORD PTR [esp+104]
	.loc 1 942 0
	mov	eax, DWORD PTR ___stack_chk_guard
	mov	DWORD PTR [esp+60], eax
	xor	eax, eax
	.loc 1 943 0
	mov	DWORD PTR [esp+4], ebp
	mov	DWORD PTR [esp], esi
	call	_purple_find_chat
LVL134:
	mov	edi, eax
LVL135:
	.loc 1 944 0
	mov	DWORD PTR [esp], eax
	call	_purple_conversation_get_chat_data
LVL136:
	.loc 1 947 0
	test	eax, eax
	je	L134
	.loc 1 950 0
	mov	DWORD PTR [esp+16], ebx
	mov	edx, DWORD PTR [edi+8]
	mov	DWORD PTR [esp+12], edx
	.loc 1 951 0
	mov	edx, DWORD PTR [esi+12]
	.loc 1 950 0
	mov	edx, DWORD PTR [edx]
	mov	DWORD PTR [esp+8], edx
	mov	DWORD PTR [esp+4], OFFSET FLAT:LC25
	mov	DWORD PTR [esp], OFFSET FLAT:LC2
	mov	DWORD PTR [esp+44], eax
	call	_purple_debug_info
LVL137:
	.loc 1 953 0
	mov	eax, DWORD PTR [esp+44]
	mov	DWORD PTR [esp], eax
	call	_purple_conv_chat_get_topic
LVL138:
	.loc 1 954 0
	test	ebx, ebx
	je	L152
	.loc 1 955 0
	test	eax, eax
	je	L139
	.loc 1 955 0 is_stmt 0 discriminator 1
	mov	DWORD PTR [esp+4], eax
	mov	DWORD PTR [esp], ebx
	call	_strcmp
LVL139:
L152:
	test	eax, eax
	je	L134
L139:
	.loc 1 958 0 is_stmt 1
	mov	eax, DWORD PTR [esp+60]
	xor	eax, DWORD PTR ___stack_chk_guard
	jne	L153
	mov	DWORD PTR [esp+96], ebx
	mov	ecx, ebp
	mov	edx, esi
	mov	eax, OFFSET FLAT:_set_chat_topic_fn
	.loc 1 959 0
	add	esp, 76
LCFI110:
	.cfi_remember_state
	.cfi_def_cfa_offset 20
	pop	ebx
LCFI111:
	.cfi_restore 3
	.cfi_def_cfa_offset 16
	pop	esi
LCFI112:
	.cfi_restore 6
	.cfi_def_cfa_offset 12
	pop	edi
LCFI113:
	.cfi_restore 7
	.cfi_def_cfa_offset 8
LVL140:
	pop	ebp
LCFI114:
	.cfi_restore 5
	.cfi_def_cfa_offset 4
	.loc 1 958 0
	jmp	_foreach_gc_in_chat
LVL141:
	.p2align 2,,3
L134:
LCFI115:
	.cfi_restore_state
	.loc 1 959 0
	mov	eax, DWORD PTR [esp+60]
	xor	eax, DWORD PTR ___stack_chk_guard
	jne	L153
	add	esp, 76
LCFI116:
	.cfi_remember_state
	.cfi_def_cfa_offset 20
	pop	ebx
LCFI117:
	.cfi_restore 3
	.cfi_def_cfa_offset 16
	pop	esi
LCFI118:
	.cfi_restore 6
	.cfi_def_cfa_offset 12
	pop	edi
LCFI119:
	.cfi_restore 7
	.cfi_def_cfa_offset 8
LVL142:
	pop	ebp
LCFI120:
	.cfi_restore 5
	.cfi_def_cfa_offset 4
	ret
LVL143:
L153:
LCFI121:
	.cfi_restore_state
	call	___stack_chk_fail
LVL144:
	.cfi_endproc
LFE151:
	.section .rdata,"dr"
	.align 4
LC26:
	.ascii "%s is sending message to chat room %s: %s\12\0"
	.align 4
LC27:
	.ascii "tried to send message from %s to chat room #%d: %s\12but couldn't find chat room\0"
	.text
	.p2align 2,,3
	.def	_nullprpl_chat_send;	.scl	3;	.type	32;	.endef
_nullprpl_chat_send:
LFB140:
	.loc 1 842 0
	.cfi_startproc
LVL145:
	push	ebp
LCFI122:
	.cfi_def_cfa_offset 8
	.cfi_offset 5, -8
	push	edi
LCFI123:
	.cfi_def_cfa_offset 12
	.cfi_offset 7, -12
	push	esi
LCFI124:
	.cfi_def_cfa_offset 16
	.cfi_offset 6, -16
	push	ebx
LCFI125:
	.cfi_def_cfa_offset 20
	.cfi_offset 3, -20
	sub	esp, 60
LCFI126:
	.cfi_def_cfa_offset 80
	mov	ebx, DWORD PTR [esp+80]
	mov	esi, DWORD PTR [esp+84]
	mov	edi, DWORD PTR [esp+88]
	.loc 1 842 0
	mov	eax, DWORD PTR ___stack_chk_guard
	mov	DWORD PTR [esp+44], eax
	xor	eax, eax
	.loc 1 843 0
	mov	eax, DWORD PTR [ebx+12]
	mov	ebp, DWORD PTR [eax]
LVL146:
	.loc 1 844 0
	mov	DWORD PTR [esp+4], esi
	mov	DWORD PTR [esp], ebx
	call	_purple_find_chat
LVL147:
	.loc 1 847 0
	mov	DWORD PTR [esp+16], edi
	.loc 1 846 0
	test	eax, eax
	je	L155
	.loc 1 847 0
	mov	eax, DWORD PTR [eax+8]
LVL148:
	mov	DWORD PTR [esp+12], eax
	mov	DWORD PTR [esp+8], ebp
	mov	DWORD PTR [esp+4], OFFSET FLAT:LC26
	mov	DWORD PTR [esp], OFFSET FLAT:LC2
	call	_purple_debug_info
LVL149:
	.loc 1 852 0
	mov	DWORD PTR [esp], edi
	mov	ecx, esi
	mov	edx, ebx
	mov	eax, OFFSET FLAT:_receive_chat_message
	call	_foreach_gc_in_chat
LVL150:
	.loc 1 853 0
	xor	eax, eax
L156:
	.loc 1 861 0
	mov	edx, DWORD PTR [esp+44]
	xor	edx, DWORD PTR ___stack_chk_guard
	jne	L159
	add	esp, 60
LCFI127:
	.cfi_remember_state
	.cfi_def_cfa_offset 20
	pop	ebx
LCFI128:
	.cfi_restore 3
	.cfi_def_cfa_offset 16
	pop	esi
LCFI129:
	.cfi_restore 6
	.cfi_def_cfa_offset 12
	pop	edi
LCFI130:
	.cfi_restore 7
	.cfi_def_cfa_offset 8
	pop	ebp
LCFI131:
	.cfi_restore 5
	.cfi_def_cfa_offset 4
LVL151:
	ret
LVL152:
L155:
LCFI132:
	.cfi_restore_state
	.loc 1 855 0
	mov	DWORD PTR [esp+12], esi
	mov	DWORD PTR [esp+8], ebp
	mov	DWORD PTR [esp+4], OFFSET FLAT:LC27
	mov	DWORD PTR [esp], OFFSET FLAT:LC2
	call	_purple_debug_info
LVL153:
	.loc 1 859 0
	mov	eax, -1
	jmp	L156
L159:
	.loc 1 861 0
	call	___stack_chk_fail
LVL154:
	.cfi_endproc
LFE140:
	.section .rdata,"dr"
LC28:
	.ascii "%s is leaving chat room %s\12\0"
	.text
	.p2align 2,,3
	.def	_nullprpl_chat_leave;	.scl	3;	.type	32;	.endef
_nullprpl_chat_leave:
LFB136:
	.loc 1 756 0
	.cfi_startproc
LVL155:
	push	esi
LCFI133:
	.cfi_def_cfa_offset 8
	.cfi_offset 6, -8
	push	ebx
LCFI134:
	.cfi_def_cfa_offset 12
	.cfi_offset 3, -12
	sub	esp, 36
LCFI135:
	.cfi_def_cfa_offset 48
	mov	ebx, DWORD PTR [esp+48]
	mov	esi, DWORD PTR [esp+52]
	.loc 1 756 0
	mov	eax, DWORD PTR ___stack_chk_guard
	mov	DWORD PTR [esp+28], eax
	xor	eax, eax
	.loc 1 757 0
	mov	DWORD PTR [esp+4], esi
	mov	DWORD PTR [esp], ebx
	call	_purple_find_chat
LVL156:
	.loc 1 758 0
	mov	eax, DWORD PTR [eax+8]
LVL157:
	mov	DWORD PTR [esp+12], eax
	.loc 1 759 0
	mov	eax, DWORD PTR [ebx+12]
	.loc 1 758 0
	mov	eax, DWORD PTR [eax]
	mov	DWORD PTR [esp+8], eax
	mov	DWORD PTR [esp+4], OFFSET FLAT:LC28
	mov	DWORD PTR [esp], OFFSET FLAT:LC2
	call	_purple_debug_info
LVL158:
	.loc 1 762 0
	mov	eax, DWORD PTR [esp+28]
	xor	eax, DWORD PTR ___stack_chk_guard
	jne	L164
	mov	DWORD PTR [esp+48], 0
	mov	ecx, esi
	mov	edx, ebx
	mov	eax, OFFSET FLAT:_left_chat_room
	.loc 1 763 0
	add	esp, 36
LCFI136:
	.cfi_remember_state
	.cfi_def_cfa_offset 12
	pop	ebx
LCFI137:
	.cfi_restore 3
	.cfi_def_cfa_offset 8
	pop	esi
LCFI138:
	.cfi_restore 6
	.cfi_def_cfa_offset 4
	.loc 1 762 0
	jmp	_foreach_gc_in_chat
LVL159:
L164:
LCFI139:
	.cfi_restore_state
	call	___stack_chk_fail
LVL160:
	.cfi_endproc
LFE136:
	.p2align 2,,3
	.def	_foreach_nullprpl_gc;	.scl	3;	.type	32;	.endef
_foreach_nullprpl_gc:
LFB95:
	.loc 1 121 0
	.cfi_startproc
LVL161:
	push	ebx
LCFI140:
	.cfi_def_cfa_offset 8
	.cfi_offset 3, -8
	sub	esp, 40
LCFI141:
	.cfi_def_cfa_offset 48
	.loc 1 121 0
	mov	ebx, DWORD PTR ___stack_chk_guard
	mov	DWORD PTR [esp+28], ebx
	xor	ebx, ebx
	.loc 1 122 0
	mov	DWORD PTR [esp+16], eax
	mov	DWORD PTR [esp+20], edx
	mov	DWORD PTR [esp+24], ecx
	.loc 1 123 0
	call	_purple_connections_get_all
LVL162:
	.loc 1 124 0
	lea	edx, [esp+16]
	mov	DWORD PTR [esp+8], edx
	.loc 1 123 0
	mov	DWORD PTR [esp+4], OFFSET FLAT:_call_if_nullprpl
	mov	DWORD PTR [esp], eax
	call	_g_list_foreach
LVL163:
	.loc 1 125 0
	mov	eax, DWORD PTR [esp+28]
	xor	eax, DWORD PTR ___stack_chk_guard
	jne	L168
	add	esp, 40
LCFI142:
	.cfi_remember_state
	.cfi_def_cfa_offset 8
	pop	ebx
LCFI143:
	.cfi_restore 3
	.cfi_def_cfa_offset 4
	ret
L168:
LCFI144:
	.cfi_restore_state
	call	___stack_chk_fail
LVL164:
	.cfi_endproc
LFE95:
	.section .rdata,"dr"
LC29:
	.ascii "unknown typing state\0"
LC30:
	.ascii "%s %s\12\0"
	.text
	.p2align 2,,3
	.def	_nullprpl_send_typing;	.scl	3;	.type	32;	.endef
_nullprpl_send_typing:
LFB116:
	.loc 1 487 0
	.cfi_startproc
LVL165:
	push	esi
LCFI145:
	.cfi_def_cfa_offset 8
	.cfi_offset 6, -8
	push	ebx
LCFI146:
	.cfi_def_cfa_offset 12
	.cfi_offset 3, -12
	sub	esp, 36
LCFI147:
	.cfi_def_cfa_offset 48
	mov	esi, DWORD PTR [esp+48]
	mov	ebx, DWORD PTR [esp+56]
	.loc 1 487 0
	mov	eax, DWORD PTR ___stack_chk_guard
	mov	DWORD PTR [esp+28], eax
	xor	eax, eax
LVL166:
	cmp	ebx, 2
	ja	L172
	mov	eax, DWORD PTR _CSWTCH.19[0+ebx*4]
L170:
	.loc 1 488 0
	mov	DWORD PTR [esp+12], eax
	mov	eax, DWORD PTR [esi+12]
	mov	eax, DWORD PTR [eax]
	mov	DWORD PTR [esp+8], eax
	mov	DWORD PTR [esp+4], OFFSET FLAT:LC30
	mov	DWORD PTR [esp], OFFSET FLAT:LC2
	call	_purple_debug_info
LVL167:
	.loc 1 490 0
	mov	ecx, ebx
	mov	edx, esi
	mov	eax, OFFSET FLAT:_notify_typing
	call	_foreach_nullprpl_gc
LVL168:
	.loc 1 492 0
	xor	eax, eax
	mov	edx, DWORD PTR [esp+28]
	xor	edx, DWORD PTR ___stack_chk_guard
	jne	L174
	add	esp, 36
LCFI148:
	.cfi_remember_state
	.cfi_def_cfa_offset 12
	pop	ebx
LCFI149:
	.cfi_restore 3
	.cfi_def_cfa_offset 8
LVL169:
	pop	esi
LCFI150:
	.cfi_restore 6
	.cfi_def_cfa_offset 4
	ret
LVL170:
	.p2align 2,,3
L172:
LCFI151:
	.cfi_restore_state
	mov	eax, OFFSET FLAT:LC29
	jmp	L170
L174:
	call	___stack_chk_fail
LVL171:
	.cfi_endproc
LFE116:
	.p2align 2,,3
	.def	_nullprpl_close;	.scl	3;	.type	32;	.endef
_nullprpl_close:
LFB111:
	.loc 1 404 0
	.cfi_startproc
LVL172:
	sub	esp, 28
LCFI152:
	.cfi_def_cfa_offset 32
	mov	edx, DWORD PTR [esp+32]
	.loc 1 404 0
	mov	eax, DWORD PTR ___stack_chk_guard
	mov	DWORD PTR [esp+12], eax
	xor	eax, eax
	.loc 1 406 0
	mov	eax, DWORD PTR [esp+12]
	xor	eax, DWORD PTR ___stack_chk_guard
	jne	L179
	xor	ecx, ecx
	mov	eax, OFFSET FLAT:_report_status_change
	.loc 1 407 0
	add	esp, 28
LCFI153:
	.cfi_remember_state
	.cfi_def_cfa_offset 4
	.loc 1 406 0
	jmp	_foreach_nullprpl_gc
LVL173:
L179:
LCFI154:
	.cfi_restore_state
	call	___stack_chk_fail
LVL174:
	.cfi_endproc
LFE111:
	.section .rdata,"dr"
LC31:
	.ascii "%s sets topic to: %s\0"
LC32:
	.ascii "pidgin\0"
LC33:
	.ascii "%s clears topic\0"
	.text
	.p2align 2,,3
	.def	_set_chat_topic_fn;	.scl	3;	.type	32;	.endef
_set_chat_topic_fn:
LFB150:
	.loc 1 923 0
	.cfi_startproc
LVL175:
	push	edi
LCFI155:
	.cfi_def_cfa_offset 8
	.cfi_offset 7, -8
	push	esi
LCFI156:
	.cfi_def_cfa_offset 12
	.cfi_offset 6, -12
	push	ebx
LCFI157:
	.cfi_def_cfa_offset 16
	.cfi_offset 3, -16
	sub	esp, 48
LCFI158:
	.cfi_def_cfa_offset 64
	mov	edi, DWORD PTR [esp+68]
	mov	ebx, DWORD PTR [esp+80]
	.loc 1 923 0
	mov	eax, DWORD PTR ___stack_chk_guard
	mov	DWORD PTR [esp+44], eax
	xor	eax, eax
LVL176:
	.loc 1 925 0
	mov	eax, DWORD PTR [esp+64]
	mov	eax, DWORD PTR [eax]
	mov	eax, DWORD PTR [eax+4]
	mov	esi, DWORD PTR [eax]
LVL177:
	.loc 1 928 0
	mov	DWORD PTR [esp+8], ebx
	mov	DWORD PTR [esp+4], esi
	mov	DWORD PTR [esp], edi
	call	_purple_conv_chat_set_topic
LVL178:
	.loc 1 930 0
	test	ebx, ebx
	je	L181
	.loc 1 930 0 is_stmt 0 discriminator 1
	cmp	BYTE PTR [ebx], 0
	jne	L189
L181:
	.loc 1 933 0 is_stmt 1
	mov	DWORD PTR [esp+4], OFFSET FLAT:LC33
	mov	DWORD PTR [esp], OFFSET FLAT:LC32
	call	_libintl_dgettext
LVL179:
	mov	DWORD PTR [esp+4], esi
	mov	DWORD PTR [esp], eax
	call	_g_strdup_printf
LVL180:
	mov	ebx, eax
LVL181:
L182:
	.loc 1 935 0
	mov	DWORD PTR [esp], 0
	call	_time
LVL182:
	mov	DWORD PTR [esp+16], eax
	mov	DWORD PTR [esp+12], 68
	mov	DWORD PTR [esp+8], ebx
	mov	DWORD PTR [esp+4], esi
	mov	DWORD PTR [esp], edi
	call	_purple_conv_chat_write
LVL183:
	.loc 1 938 0
	mov	eax, DWORD PTR [esp+44]
	xor	eax, DWORD PTR ___stack_chk_guard
	jne	L190
	mov	DWORD PTR [esp+64], ebx
	.loc 1 939 0
	add	esp, 48
LCFI159:
	.cfi_remember_state
	.cfi_def_cfa_offset 16
	pop	ebx
LCFI160:
	.cfi_restore 3
	.cfi_def_cfa_offset 12
LVL184:
	pop	esi
LCFI161:
	.cfi_restore 6
	.cfi_def_cfa_offset 8
LVL185:
	pop	edi
LCFI162:
	.cfi_restore 7
	.cfi_def_cfa_offset 4
	.loc 1 938 0
	jmp	_g_free
LVL186:
	.p2align 2,,3
L189:
LCFI163:
	.cfi_restore_state
	.loc 1 931 0
	mov	DWORD PTR [esp+4], OFFSET FLAT:LC31
	mov	DWORD PTR [esp], OFFSET FLAT:LC32
	call	_libintl_dgettext
LVL187:
	mov	DWORD PTR [esp+8], ebx
	mov	DWORD PTR [esp+4], esi
	mov	DWORD PTR [esp], eax
	call	_g_strdup_printf
LVL188:
	mov	ebx, eax
LVL189:
	jmp	L182
LVL190:
L190:
	.loc 1 938 0
	call	___stack_chk_fail
LVL191:
	.cfi_endproc
LFE150:
	.section .rdata,"dr"
LC34:
	.ascii "(null)\0"
	.align 4
LC35:
	.ascii "setting %s's buddy icon to %s\12\0"
	.text
	.p2align 2,,3
	.def	_nullprpl_set_buddy_icon;	.scl	3;	.type	32;	.endef
_nullprpl_set_buddy_icon:
LFB148:
	.loc 1 910 0
	.cfi_startproc
LVL192:
	push	ebx
LCFI164:
	.cfi_def_cfa_offset 8
	.cfi_offset 3, -8
	sub	esp, 40
LCFI165:
	.cfi_def_cfa_offset 48
	mov	ebx, DWORD PTR [esp+48]
	mov	eax, DWORD PTR [esp+52]
	.loc 1 910 0
	mov	edx, DWORD PTR ___stack_chk_guard
	mov	DWORD PTR [esp+28], edx
	xor	edx, edx
	.loc 1 911 0
	test	eax, eax
	je	L194
	.loc 1 911 0 is_stmt 0 discriminator 1
	mov	DWORD PTR [esp], eax
	call	_purple_imgstore_get_filename
LVL193:
L192:
	.loc 1 911 0
	mov	DWORD PTR [esp+12], eax
	.loc 1 912 0 is_stmt 1
	mov	eax, DWORD PTR [ebx+12]
	.loc 1 911 0
	mov	eax, DWORD PTR [eax]
	mov	DWORD PTR [esp+8], eax
	mov	DWORD PTR [esp+4], OFFSET FLAT:LC35
	mov	DWORD PTR [esp], OFFSET FLAT:LC2
	call	_purple_debug_info
LVL194:
	.loc 1 914 0
	mov	eax, DWORD PTR [esp+28]
	xor	eax, DWORD PTR ___stack_chk_guard
	jne	L196
	add	esp, 40
LCFI166:
	.cfi_remember_state
	.cfi_def_cfa_offset 8
	pop	ebx
LCFI167:
	.cfi_restore 3
	.cfi_def_cfa_offset 4
	ret
	.p2align 2,,3
L194:
LCFI168:
	.cfi_restore_state
	.loc 1 911 0
	mov	eax, OFFSET FLAT:LC34
	jmp	L192
L196:
	.loc 1 914 0
	call	___stack_chk_fail
LVL195:
	.cfi_endproc
LFE148:
	.section .rdata,"dr"
	.align 4
LC36:
	.ascii "%s receives whisper from %s in chat room %s: %s\12\0"
	.text
	.p2align 2,,3
	.def	_nullprpl_chat_whisper;	.scl	3;	.type	32;	.endef
_nullprpl_chat_whisper:
LFB138:
	.loc 1 817 0
	.cfi_startproc
LVL196:
	push	ebp
LCFI169:
	.cfi_def_cfa_offset 8
	.cfi_offset 5, -8
	push	edi
LCFI170:
	.cfi_def_cfa_offset 12
	.cfi_offset 7, -12
	push	esi
LCFI171:
	.cfi_def_cfa_offset 16
	.cfi_offset 6, -16
	push	ebx
LCFI172:
	.cfi_def_cfa_offset 20
	.cfi_offset 3, -20
	sub	esp, 76
LCFI173:
	.cfi_def_cfa_offset 96
	mov	ebx, DWORD PTR [esp+96]
	mov	ebp, DWORD PTR [esp+100]
	mov	esi, DWORD PTR [esp+104]
	mov	edi, DWORD PTR [esp+108]
	.loc 1 817 0
	mov	eax, DWORD PTR ___stack_chk_guard
	mov	DWORD PTR [esp+60], eax
	xor	eax, eax
	.loc 1 818 0
	mov	eax, DWORD PTR [ebx+12]
	mov	edx, DWORD PTR [eax]
LVL197:
	.loc 1 819 0
	mov	DWORD PTR [esp+4], ebp
	mov	DWORD PTR [esp], ebx
	mov	DWORD PTR [esp+44], edx
	call	_purple_find_chat
LVL198:
	.loc 1 820 0
	mov	DWORD PTR [esp+20], edi
	mov	eax, DWORD PTR [eax+8]
LVL199:
	mov	DWORD PTR [esp+16], eax
	mov	DWORD PTR [esp+12], esi
	mov	edx, DWORD PTR [esp+44]
	mov	DWORD PTR [esp+8], edx
	mov	DWORD PTR [esp+4], OFFSET FLAT:LC36
	mov	DWORD PTR [esp], OFFSET FLAT:LC2
	call	_purple_debug_info
LVL200:
	.loc 1 825 0
	mov	DWORD PTR [esp], 0
	call	_time
LVL201:
	mov	DWORD PTR [esp+20], eax
	mov	DWORD PTR [esp+16], edi
	mov	DWORD PTR [esp+12], 130
	mov	DWORD PTR [esp+8], esi
	mov	DWORD PTR [esp+4], ebp
	mov	DWORD PTR [esp], ebx
	call	_serv_got_chat_in
LVL202:
	.loc 1 827 0
	mov	eax, DWORD PTR [esp+60]
	xor	eax, DWORD PTR ___stack_chk_guard
	jne	L200
	add	esp, 76
LCFI174:
	.cfi_remember_state
	.cfi_def_cfa_offset 20
	pop	ebx
LCFI175:
	.cfi_restore 3
	.cfi_def_cfa_offset 16
	pop	esi
LCFI176:
	.cfi_restore 6
	.cfi_def_cfa_offset 12
	pop	edi
LCFI177:
	.cfi_restore 7
	.cfi_def_cfa_offset 8
	pop	ebp
LCFI178:
	.cfi_restore 5
	.cfi_def_cfa_offset 4
	ret
L200:
LCFI179:
	.cfi_restore_state
	call	___stack_chk_fail
LVL203:
	.cfi_endproc
LFE138:
	.section .rdata,"dr"
LC37:
	.ascii "prpl-null\0"
	.text
	.p2align 2,,3
	.def	_get_nullprpl_gc;	.scl	3;	.type	32;	.endef
_get_nullprpl_gc:
LFB93:
	.loc 1 104 0
	.cfi_startproc
LVL204:
	push	ebx
LCFI180:
	.cfi_def_cfa_offset 8
	.cfi_offset 3, -8
	sub	esp, 40
LCFI181:
	.cfi_def_cfa_offset 48
	.loc 1 104 0
	mov	edx, DWORD PTR ___stack_chk_guard
	mov	DWORD PTR [esp+28], edx
	xor	edx, edx
	.loc 1 105 0
	mov	DWORD PTR [esp+4], OFFSET FLAT:LC37
	mov	DWORD PTR [esp], eax
	call	_purple_accounts_find
LVL205:
	mov	ebx, eax
LVL206:
	.loc 1 106 0
	test	eax, eax
	je	L204
	.loc 1 106 0 is_stmt 0 discriminator 1
	mov	DWORD PTR [esp], eax
	call	_purple_account_is_connected
LVL207:
	test	eax, eax
	je	L204
	.loc 1 107 0 is_stmt 1
	mov	eax, DWORD PTR [ebx+28]
L203:
	.loc 1 110 0
	mov	edx, DWORD PTR [esp+28]
	xor	edx, DWORD PTR ___stack_chk_guard
	jne	L210
	add	esp, 40
LCFI182:
	.cfi_remember_state
	.cfi_def_cfa_offset 8
	pop	ebx
LCFI183:
	.cfi_restore 3
	.cfi_def_cfa_offset 4
LVL208:
	ret
LVL209:
	.p2align 2,,3
L204:
LCFI184:
	.cfi_restore_state
	.loc 1 109 0
	xor	eax, eax
	jmp	L203
L210:
	.loc 1 110 0
	call	___stack_chk_fail
LVL210:
	.cfi_endproc
LFE93:
	.section .rdata,"dr"
	.align 4
LC38:
	.ascii "%s receives message from %s in chat room %s: %s\12\0"
	.text
	.p2align 2,,3
	.def	_receive_chat_message;	.scl	3;	.type	32;	.endef
_receive_chat_message:
LFB139:
	.loc 1 830 0
	.cfi_startproc
LVL211:
	push	ebp
LCFI185:
	.cfi_def_cfa_offset 8
	.cfi_offset 5, -8
	push	edi
LCFI186:
	.cfi_def_cfa_offset 12
	.cfi_offset 7, -12
	push	esi
LCFI187:
	.cfi_def_cfa_offset 16
	.cfi_offset 6, -16
	push	ebx
LCFI188:
	.cfi_def_cfa_offset 20
	.cfi_offset 3, -20
	sub	esp, 76
LCFI189:
	.cfi_def_cfa_offset 96
	mov	esi, DWORD PTR [esp+96]
	mov	edi, DWORD PTR [esp+100]
	mov	edx, DWORD PTR [esp+104]
	mov	ecx, DWORD PTR [esp+108]
	mov	ebx, DWORD PTR [esp+112]
	.loc 1 830 0
	mov	eax, DWORD PTR ___stack_chk_guard
	mov	DWORD PTR [esp+60], eax
	xor	eax, eax
LVL212:
	.loc 1 832 0
	mov	eax, DWORD PTR [edi+24]
	mov	DWORD PTR [esp+40], edx
	mov	DWORD PTR [esp+44], ecx
	call	_get_nullprpl_gc
LVL213:
	mov	ebp, eax
LVL214:
	.loc 1 834 0
	mov	DWORD PTR [esp+20], ebx
	mov	ecx, DWORD PTR [esp+44]
	mov	DWORD PTR [esp+16], ecx
	mov	eax, DWORD PTR [esi+24]
LVL215:
	mov	DWORD PTR [esp+12], eax
	mov	eax, DWORD PTR [edi+24]
	mov	DWORD PTR [esp+8], eax
	mov	DWORD PTR [esp+4], OFFSET FLAT:LC38
	mov	DWORD PTR [esp], OFFSET FLAT:LC2
	call	_purple_debug_info
LVL216:
	.loc 1 837 0
	mov	DWORD PTR [esp], 0
	call	_time
LVL217:
	mov	DWORD PTR [esp+20], eax
	mov	DWORD PTR [esp+16], ebx
	mov	DWORD PTR [esp+12], 2
	mov	eax, DWORD PTR [esi+24]
	mov	DWORD PTR [esp+8], eax
	mov	edx, DWORD PTR [esp+40]
	mov	DWORD PTR [esp+4], edx
	mov	DWORD PTR [esp], ebp
	call	_serv_got_chat_in
LVL218:
	.loc 1 839 0
	mov	eax, DWORD PTR [esp+60]
	xor	eax, DWORD PTR ___stack_chk_guard
	jne	L214
	add	esp, 76
LCFI190:
	.cfi_remember_state
	.cfi_def_cfa_offset 20
	pop	ebx
LCFI191:
	.cfi_restore 3
	.cfi_def_cfa_offset 16
LVL219:
	pop	esi
LCFI192:
	.cfi_restore 6
	.cfi_def_cfa_offset 12
	pop	edi
LCFI193:
	.cfi_restore 7
	.cfi_def_cfa_offset 8
	pop	ebp
LCFI194:
	.cfi_restore 5
	.cfi_def_cfa_offset 4
LVL220:
	ret
LVL221:
L214:
LCFI195:
	.cfi_restore_state
	call	___stack_chk_fail
LVL222:
	.cfi_endproc
LFE139:
	.section .rdata,"dr"
	.align 4
LC39:
	.ascii "%s sees that %s left chat room %s\12\0"
	.text
	.p2align 2,,3
	.def	_left_chat_room;	.scl	3;	.type	32;	.endef
_left_chat_room:
LFB135:
	.loc 1 745 0
	.cfi_startproc
LVL223:
	push	esi
LCFI196:
	.cfi_def_cfa_offset 8
	.cfi_offset 6, -8
	push	ebx
LCFI197:
	.cfi_def_cfa_offset 12
	.cfi_offset 3, -12
	sub	esp, 52
LCFI198:
	.cfi_def_cfa_offset 64
	mov	esi, DWORD PTR [esp+64]
	mov	ebx, DWORD PTR [esp+68]
	mov	eax, DWORD PTR [esp+76]
	.loc 1 745 0
	mov	edx, DWORD PTR ___stack_chk_guard
	mov	DWORD PTR [esp+44], edx
	xor	edx, edx
	.loc 1 746 0
	cmp	esi, ebx
	je	L215
	.loc 1 748 0
	mov	DWORD PTR [esp+16], eax
	mov	eax, DWORD PTR [esi+24]
	mov	DWORD PTR [esp+12], eax
	mov	eax, DWORD PTR [ebx+24]
	mov	DWORD PTR [esp+8], eax
	mov	DWORD PTR [esp+4], OFFSET FLAT:LC39
	mov	DWORD PTR [esp], OFFSET FLAT:LC2
	call	_purple_debug_info
LVL224:
	.loc 1 750 0
	mov	eax, DWORD PTR [esp+44]
	xor	eax, DWORD PTR ___stack_chk_guard
	jne	L220
	mov	DWORD PTR [esp+72], 0
	mov	eax, DWORD PTR [esi+24]
	mov	DWORD PTR [esp+68], eax
	mov	DWORD PTR [esp+64], ebx
	.loc 1 754 0
	add	esp, 52
LCFI199:
	.cfi_remember_state
	.cfi_def_cfa_offset 12
	pop	ebx
LCFI200:
	.cfi_restore 3
	.cfi_def_cfa_offset 8
	pop	esi
LCFI201:
	.cfi_restore 6
	.cfi_def_cfa_offset 4
	.loc 1 750 0
	jmp	_purple_conv_chat_remove_user
LVL225:
	.p2align 2,,3
L215:
LCFI202:
	.cfi_restore_state
	.loc 1 754 0
	mov	edx, DWORD PTR [esp+44]
	xor	edx, DWORD PTR ___stack_chk_guard
	jne	L220
	add	esp, 52
LCFI203:
	.cfi_remember_state
	.cfi_def_cfa_offset 12
	pop	ebx
LCFI204:
	.cfi_restore 3
	.cfi_def_cfa_offset 8
	pop	esi
LCFI205:
	.cfi_restore 6
	.cfi_def_cfa_offset 4
	ret
L220:
LCFI206:
	.cfi_restore_state
	call	___stack_chk_fail
LVL226:
	.cfi_endproc
LFE135:
	.section .rdata,"dr"
	.align 4
LC40:
	.ascii "example menu item clicked on user %s\12\0"
	.align 4
LC41:
	.ascii "This is the callback for the nullprpl menu item.\0"
LC42:
	.ascii "Secondary title\0"
LC43:
	.ascii "Primary title\0"
	.text
	.p2align 2,,3
	.def	_blist_example_menu_item;	.scl	3;	.type	32;	.endef
_blist_example_menu_item:
LFB106:
	.loc 1 310 0
	.cfi_startproc
LVL227:
	push	esi
LCFI207:
	.cfi_def_cfa_offset 8
	.cfi_offset 6, -8
	push	ebx
LCFI208:
	.cfi_def_cfa_offset 12
	.cfi_offset 3, -12
	sub	esp, 52
LCFI209:
	.cfi_def_cfa_offset 64
	.loc 1 310 0
	mov	eax, DWORD PTR ___stack_chk_guard
	mov	DWORD PTR [esp+44], eax
	xor	eax, eax
	.loc 1 311 0
	mov	eax, DWORD PTR [esp+64]
	mov	eax, DWORD PTR [eax+32]
	mov	DWORD PTR [esp+8], eax
	mov	DWORD PTR [esp+4], OFFSET FLAT:LC40
	mov	DWORD PTR [esp], OFFSET FLAT:LC2
	call	_purple_debug_info
LVL228:
	.loc 1 314 0
	mov	DWORD PTR [esp+4], OFFSET FLAT:LC41
	mov	DWORD PTR [esp], OFFSET FLAT:LC32
	call	_libintl_dgettext
LVL229:
	mov	esi, eax
	mov	DWORD PTR [esp+4], OFFSET FLAT:LC42
	mov	DWORD PTR [esp], OFFSET FLAT:LC32
	call	_libintl_dgettext
LVL230:
	mov	ebx, eax
	mov	DWORD PTR [esp+4], OFFSET FLAT:LC43
	mov	DWORD PTR [esp], OFFSET FLAT:LC32
	call	_libintl_dgettext
LVL231:
	mov	DWORD PTR [esp+24], 0
	mov	DWORD PTR [esp+20], 0
	mov	DWORD PTR [esp+16], esi
	mov	DWORD PTR [esp+12], ebx
	mov	DWORD PTR [esp+8], eax
	mov	DWORD PTR [esp+4], 2
	mov	DWORD PTR [esp], 0
	call	_purple_notify_message
LVL232:
	.loc 1 318 0
	mov	eax, DWORD PTR [esp+44]
	xor	eax, DWORD PTR ___stack_chk_guard
	jne	L224
	add	esp, 52
LCFI210:
	.cfi_remember_state
	.cfi_def_cfa_offset 12
	pop	ebx
LCFI211:
	.cfi_restore 3
	.cfi_def_cfa_offset 8
	pop	esi
LCFI212:
	.cfi_restore 6
	.cfi_def_cfa_offset 4
	ret
L224:
LCFI213:
	.cfi_restore_state
	call	___stack_chk_fail
LVL233:
	.cfi_endproc
LFE106:
	.section .rdata,"dr"
	.align 4
LC44:
	.ascii "%s is inviting %s to join chat room %s\12\0"
	.align 4
LC45:
	.ascii "%s is already in chat room %s.\0"
	.align 4
LC46:
	.ascii "%s is already in chat room %s; ignoring invitation from %s\12\0"
LC47:
	.ascii "Chat invitation\0"
LC48:
	.ascii "invited_by\0"
	.text
	.p2align 2,,3
	.def	_nullprpl_chat_invite;	.scl	3;	.type	32;	.endef
_nullprpl_chat_invite:
LFB134:
	.loc 1 715 0
	.cfi_startproc
LVL234:
	push	ebp
LCFI214:
	.cfi_def_cfa_offset 8
	.cfi_offset 5, -8
	push	edi
LCFI215:
	.cfi_def_cfa_offset 12
	.cfi_offset 7, -12
	push	esi
LCFI216:
	.cfi_def_cfa_offset 16
	.cfi_offset 6, -16
	push	ebx
LCFI217:
	.cfi_def_cfa_offset 20
	.cfi_offset 3, -20
	sub	esp, 76
LCFI218:
	.cfi_def_cfa_offset 96
	mov	esi, DWORD PTR [esp+96]
	mov	ecx, DWORD PTR [esp+100]
	mov	eax, DWORD PTR [esp+104]
	mov	DWORD PTR [esp+44], eax
	mov	ebx, DWORD PTR [esp+108]
	.loc 1 715 0
	mov	eax, DWORD PTR ___stack_chk_guard
	mov	DWORD PTR [esp+60], eax
	xor	eax, eax
	.loc 1 716 0
	mov	eax, DWORD PTR [esi+12]
	mov	eax, DWORD PTR [eax]
	mov	DWORD PTR [esp+40], eax
LVL235:
	.loc 1 717 0
	mov	DWORD PTR [esp+4], ecx
	mov	DWORD PTR [esp], esi
	mov	DWORD PTR [esp+36], ecx
	call	_purple_find_chat
LVL236:
	.loc 1 718 0
	mov	edi, DWORD PTR [eax+8]
LVL237:
	.loc 1 719 0
	mov	DWORD PTR [esp+4], OFFSET FLAT:LC37
	mov	DWORD PTR [esp], ebx
	call	_purple_accounts_find
LVL238:
	mov	ebp, eax
LVL239:
	.loc 1 721 0
	mov	DWORD PTR [esp+16], edi
	mov	DWORD PTR [esp+12], ebx
	mov	eax, DWORD PTR [esp+40]
LVL240:
	mov	DWORD PTR [esp+8], eax
	mov	DWORD PTR [esp+4], OFFSET FLAT:LC44
	mov	DWORD PTR [esp], OFFSET FLAT:LC2
	call	_purple_debug_info
LVL241:
	.loc 1 724 0
	test	ebp, ebp
	mov	ecx, DWORD PTR [esp+36]
	je	L225
LBB10:
	.loc 1 725 0
	mov	DWORD PTR [esp+4], ecx
	mov	eax, DWORD PTR [ebp+28]
	mov	DWORD PTR [esp], eax
	call	_purple_find_chat
LVL242:
	.loc 1 726 0
	test	eax, eax
	je	L227
LBB11:
	.loc 1 727 0
	mov	DWORD PTR [esp+8], edi
	mov	DWORD PTR [esp+4], ebx
	mov	DWORD PTR [esp], OFFSET FLAT:LC45
	call	_g_strdup_printf
LVL243:
	mov	ebp, eax
LVL244:
	.loc 1 728 0
	mov	eax, DWORD PTR [esp+40]
LVL245:
	mov	DWORD PTR [esp+16], eax
	mov	DWORD PTR [esp+12], edi
	mov	DWORD PTR [esp+8], ebx
	mov	DWORD PTR [esp+4], OFFSET FLAT:LC46
	mov	DWORD PTR [esp], OFFSET FLAT:LC2
	call	_purple_debug_info
LVL246:
	.loc 1 732 0
	mov	DWORD PTR [esp+4], OFFSET FLAT:LC47
	mov	DWORD PTR [esp], OFFSET FLAT:LC32
	call	_libintl_dgettext
LVL247:
	mov	ebx, eax
	mov	DWORD PTR [esp+4], OFFSET FLAT:LC47
	mov	DWORD PTR [esp], OFFSET FLAT:LC32
	call	_libintl_dgettext
LVL248:
	mov	DWORD PTR [esp+24], 0
	mov	DWORD PTR [esp+20], 0
	mov	DWORD PTR [esp+16], ebp
	mov	DWORD PTR [esp+12], ebx
	mov	DWORD PTR [esp+8], eax
	mov	DWORD PTR [esp+4], 2
	mov	DWORD PTR [esp], esi
	call	_purple_notify_message
LVL249:
	.loc 1 733 0
	mov	eax, DWORD PTR [esp+60]
	xor	eax, DWORD PTR ___stack_chk_guard
	jne	L234
	mov	DWORD PTR [esp+96], ebp
LBE11:
LBE10:
	.loc 1 742 0
	add	esp, 76
LCFI219:
	.cfi_remember_state
	.cfi_def_cfa_offset 20
	pop	ebx
LCFI220:
	.cfi_restore 3
	.cfi_def_cfa_offset 16
	pop	esi
LCFI221:
	.cfi_restore 6
	.cfi_def_cfa_offset 12
	pop	edi
LCFI222:
	.cfi_restore 7
	.cfi_def_cfa_offset 8
LVL250:
	pop	ebp
LCFI223:
	.cfi_restore 5
	.cfi_def_cfa_offset 4
LVL251:
LBB14:
LBB12:
	.loc 1 733 0
	jmp	_g_free
LVL252:
	.p2align 2,,3
L227:
LCFI224:
	.cfi_restore_state
LBE12:
LBB13:
	.loc 1 736 0
	mov	DWORD PTR [esp+12], OFFSET FLAT:_g_free
	mov	DWORD PTR [esp+8], 0
	mov	DWORD PTR [esp+4], OFFSET FLAT:_g_str_equal
	mov	DWORD PTR [esp], OFFSET FLAT:_g_str_hash
	call	_g_hash_table_new_full
LVL253:
	mov	ebx, eax
LVL254:
	.loc 1 737 0
	mov	DWORD PTR [esp], edi
	call	_g_strdup
LVL255:
	mov	DWORD PTR [esp+8], eax
	mov	DWORD PTR [esp+4], OFFSET FLAT:LC22
	mov	DWORD PTR [esp], ebx
	call	_g_hash_table_replace
LVL256:
	.loc 1 738 0
	mov	eax, DWORD PTR [esp+40]
	mov	DWORD PTR [esp], eax
	call	_g_strdup
LVL257:
	mov	DWORD PTR [esp+8], eax
	mov	DWORD PTR [esp+4], OFFSET FLAT:LC48
	mov	DWORD PTR [esp], ebx
	call	_g_hash_table_replace
LVL258:
	.loc 1 739 0
	mov	DWORD PTR [esp+16], ebx
	mov	eax, DWORD PTR [esp+44]
	mov	DWORD PTR [esp+12], eax
	mov	eax, DWORD PTR [esp+40]
	mov	DWORD PTR [esp+8], eax
	mov	DWORD PTR [esp+4], edi
	mov	eax, DWORD PTR [ebp+28]
	mov	DWORD PTR [esp], eax
	call	_serv_got_chat_invite
LVL259:
L225:
LBE13:
LBE14:
	.loc 1 742 0
	mov	eax, DWORD PTR [esp+60]
	xor	eax, DWORD PTR ___stack_chk_guard
	jne	L234
	add	esp, 76
LCFI225:
	.cfi_remember_state
	.cfi_def_cfa_offset 20
	pop	ebx
LCFI226:
	.cfi_restore 3
	.cfi_def_cfa_offset 16
	pop	esi
LCFI227:
	.cfi_restore 6
	.cfi_def_cfa_offset 12
	pop	edi
LCFI228:
	.cfi_restore 7
	.cfi_def_cfa_offset 8
LVL260:
	pop	ebp
LCFI229:
	.cfi_restore 5
	.cfi_def_cfa_offset 4
LVL261:
	ret
LVL262:
L234:
LCFI230:
	.cfi_restore_state
	call	___stack_chk_fail
LVL263:
	.cfi_endproc
LFE134:
	.section .rdata,"dr"
	.align 4
LC49:
	.ascii "reporting chat room name '%s'\12\0"
	.text
	.p2align 2,,3
	.def	_nullprpl_get_chat_name;	.scl	3;	.type	32;	.endef
_nullprpl_get_chat_name:
LFB133:
	.loc 1 708 0
	.cfi_startproc
LVL264:
	push	ebx
LCFI231:
	.cfi_def_cfa_offset 8
	.cfi_offset 3, -8
	sub	esp, 40
LCFI232:
	.cfi_def_cfa_offset 48
	.loc 1 708 0
	mov	eax, DWORD PTR ___stack_chk_guard
	mov	DWORD PTR [esp+28], eax
	xor	eax, eax
	.loc 1 709 0
	mov	DWORD PTR [esp+4], OFFSET FLAT:LC22
	mov	eax, DWORD PTR [esp+48]
	mov	DWORD PTR [esp], eax
	call	_g_hash_table_lookup
LVL265:
	mov	ebx, eax
LVL266:
	.loc 1 710 0
	mov	DWORD PTR [esp+8], eax
	mov	DWORD PTR [esp+4], OFFSET FLAT:LC49
	mov	DWORD PTR [esp], OFFSET FLAT:LC2
	call	_purple_debug_info
LVL267:
	.loc 1 711 0
	mov	eax, DWORD PTR [esp+28]
	xor	eax, DWORD PTR ___stack_chk_guard
	jne	L239
	mov	DWORD PTR [esp+48], ebx
	.loc 1 712 0
	add	esp, 40
LCFI233:
	.cfi_remember_state
	.cfi_def_cfa_offset 8
	pop	ebx
LCFI234:
	.cfi_restore 3
	.cfi_def_cfa_offset 4
LVL268:
	.loc 1 711 0
	jmp	_g_strdup
LVL269:
L239:
LCFI235:
	.cfi_restore_state
	call	___stack_chk_fail
LVL270:
	.cfi_endproc
LFE133:
	.section .rdata,"dr"
	.align 4
LC50:
	.ascii "has rejected your invitation to join the chat room\0"
LC51:
	.ascii "%s %s %s.\0"
	.align 4
LC52:
	.ascii "%s has rejected %s's invitation to join chat room %s\12\0"
LC53:
	.ascii "Chat invitation rejected\0"
	.text
	.p2align 2,,3
	.def	_nullprpl_reject_chat;	.scl	3;	.type	32;	.endef
_nullprpl_reject_chat:
LFB132:
	.loc 1 686 0
	.cfi_startproc
LVL271:
	push	ebp
LCFI236:
	.cfi_def_cfa_offset 8
	.cfi_offset 5, -8
	push	edi
LCFI237:
	.cfi_def_cfa_offset 12
	.cfi_offset 7, -12
	push	esi
LCFI238:
	.cfi_def_cfa_offset 16
	.cfi_offset 6, -16
	push	ebx
LCFI239:
	.cfi_def_cfa_offset 20
	.cfi_offset 3, -20
	sub	esp, 76
LCFI240:
	.cfi_def_cfa_offset 96
	mov	ebp, DWORD PTR [esp+96]
	mov	ebx, DWORD PTR [esp+100]
	.loc 1 686 0
	mov	eax, DWORD PTR ___stack_chk_guard
	mov	DWORD PTR [esp+60], eax
	xor	eax, eax
	.loc 1 687 0
	mov	DWORD PTR [esp+4], OFFSET FLAT:LC48
	mov	DWORD PTR [esp], ebx
	call	_g_hash_table_lookup
LVL272:
	mov	esi, eax
LVL273:
	.loc 1 688 0
	mov	DWORD PTR [esp+4], OFFSET FLAT:LC22
	mov	DWORD PTR [esp], ebx
	call	_g_hash_table_lookup
LVL274:
	mov	edi, eax
LVL275:
	.loc 1 689 0
	mov	eax, DWORD PTR [ebp+12]
LVL276:
	mov	ebx, DWORD PTR [eax]
LVL277:
	.loc 1 690 0
	mov	eax, esi
	call	_get_nullprpl_gc
LVL278:
	.loc 1 694 0
	mov	DWORD PTR [esp+4], OFFSET FLAT:LC50
	mov	DWORD PTR [esp], OFFSET FLAT:LC32
	mov	DWORD PTR [esp+44], eax
	call	_libintl_dgettext
LVL279:
	.loc 1 691 0
	mov	DWORD PTR [esp+12], edi
	mov	DWORD PTR [esp+8], eax
	mov	DWORD PTR [esp+4], ebx
	mov	DWORD PTR [esp], OFFSET FLAT:LC51
	call	_g_strdup_printf
LVL280:
	mov	ebp, eax
LVL281:
	.loc 1 697 0
	mov	DWORD PTR [esp+16], edi
	mov	DWORD PTR [esp+12], esi
	mov	DWORD PTR [esp+8], ebx
	mov	DWORD PTR [esp+4], OFFSET FLAT:LC52
	mov	DWORD PTR [esp], OFFSET FLAT:LC2
	call	_purple_debug_info
LVL282:
	.loc 1 701 0
	mov	DWORD PTR [esp+4], OFFSET FLAT:LC53
	mov	DWORD PTR [esp], OFFSET FLAT:LC32
	call	_libintl_dgettext
LVL283:
	mov	ebx, eax
LVL284:
	mov	DWORD PTR [esp+4], OFFSET FLAT:LC53
	mov	DWORD PTR [esp], OFFSET FLAT:LC32
	call	_libintl_dgettext
LVL285:
	mov	DWORD PTR [esp+24], 0
	mov	DWORD PTR [esp+20], 0
	mov	DWORD PTR [esp+16], ebp
	mov	DWORD PTR [esp+12], ebx
	mov	DWORD PTR [esp+8], eax
	mov	DWORD PTR [esp+4], 2
	mov	edx, DWORD PTR [esp+44]
	mov	DWORD PTR [esp], edx
	call	_purple_notify_message
LVL286:
	.loc 1 705 0
	mov	eax, DWORD PTR [esp+60]
	xor	eax, DWORD PTR ___stack_chk_guard
	jne	L244
	mov	DWORD PTR [esp+96], ebp
	.loc 1 706 0
	add	esp, 76
LCFI241:
	.cfi_remember_state
	.cfi_def_cfa_offset 20
	pop	ebx
LCFI242:
	.cfi_restore 3
	.cfi_def_cfa_offset 16
	pop	esi
LCFI243:
	.cfi_restore 6
	.cfi_def_cfa_offset 12
LVL287:
	pop	edi
LCFI244:
	.cfi_restore 7
	.cfi_def_cfa_offset 8
LVL288:
	pop	ebp
LCFI245:
	.cfi_restore 5
	.cfi_def_cfa_offset 4
LVL289:
	.loc 1 705 0
	jmp	_g_free
LVL290:
L244:
LCFI246:
	.cfi_restore_state
	call	___stack_chk_fail
LVL291:
	.cfi_endproc
LFE132:
	.section .rdata,"dr"
LC54:
	.ascii "%s is joining chat room %s\12\0"
	.align 4
LC55:
	.ascii "%s is already in chat room %s\12\0"
LC56:
	.ascii "Join chat\0"
	.text
	.p2align 2,,3
	.def	_nullprpl_join_chat;	.scl	3;	.type	32;	.endef
_nullprpl_join_chat:
LFB131:
	.loc 1 664 0
	.cfi_startproc
LVL292:
	push	ebp
LCFI247:
	.cfi_def_cfa_offset 8
	.cfi_offset 5, -8
	push	edi
LCFI248:
	.cfi_def_cfa_offset 12
	.cfi_offset 7, -12
	push	esi
LCFI249:
	.cfi_def_cfa_offset 16
	.cfi_offset 6, -16
	push	ebx
LCFI250:
	.cfi_def_cfa_offset 20
	.cfi_offset 3, -20
	sub	esp, 60
LCFI251:
	.cfi_def_cfa_offset 80
	mov	esi, DWORD PTR [esp+80]
	.loc 1 664 0
	mov	eax, DWORD PTR ___stack_chk_guard
	mov	DWORD PTR [esp+44], eax
	xor	eax, eax
	.loc 1 665 0
	mov	eax, DWORD PTR [esi+12]
	mov	edi, DWORD PTR [eax]
LVL293:
	.loc 1 666 0
	mov	DWORD PTR [esp+4], OFFSET FLAT:LC22
	mov	eax, DWORD PTR [esp+84]
	mov	DWORD PTR [esp], eax
	call	_g_hash_table_lookup
LVL294:
	mov	ebx, eax
LVL295:
	.loc 1 667 0
	mov	DWORD PTR [esp], eax
	call	_g_str_hash
LVL296:
	mov	ebp, eax
LVL297:
	.loc 1 668 0
	mov	DWORD PTR [esp+12], ebx
	mov	DWORD PTR [esp+8], edi
	mov	DWORD PTR [esp+4], OFFSET FLAT:LC54
	mov	DWORD PTR [esp], OFFSET FLAT:LC2
	call	_purple_debug_info
LVL298:
	.loc 1 670 0
	mov	DWORD PTR [esp+4], ebp
	mov	DWORD PTR [esp], esi
	call	_purple_find_chat
LVL299:
	test	eax, eax
	je	L252
LBB15:
	.loc 1 676 0
	mov	DWORD PTR [esp+4], OFFSET FLAT:LC45
	mov	DWORD PTR [esp], OFFSET FLAT:LC32
	call	_libintl_dgettext
LVL300:
	mov	DWORD PTR [esp+8], ebx
	mov	DWORD PTR [esp+4], edi
	mov	DWORD PTR [esp], eax
	call	_g_strdup_printf
LVL301:
	mov	ebp, eax
LVL302:
	.loc 1 679 0
	mov	DWORD PTR [esp+12], ebx
	mov	DWORD PTR [esp+8], edi
	mov	DWORD PTR [esp+4], OFFSET FLAT:LC55
	mov	DWORD PTR [esp], OFFSET FLAT:LC2
	call	_purple_debug_info
LVL303:
	.loc 1 681 0
	mov	DWORD PTR [esp+4], OFFSET FLAT:LC56
	mov	DWORD PTR [esp], OFFSET FLAT:LC32
	call	_libintl_dgettext
LVL304:
	mov	ebx, eax
LVL305:
	mov	DWORD PTR [esp+4], OFFSET FLAT:LC56
	mov	DWORD PTR [esp], OFFSET FLAT:LC32
	call	_libintl_dgettext
LVL306:
	mov	DWORD PTR [esp+24], 0
	mov	DWORD PTR [esp+20], 0
	mov	DWORD PTR [esp+16], ebp
	mov	DWORD PTR [esp+12], ebx
	mov	DWORD PTR [esp+8], eax
	mov	DWORD PTR [esp+4], 2
	mov	DWORD PTR [esp], esi
	call	_purple_notify_message
LVL307:
	.loc 1 682 0
	mov	eax, DWORD PTR [esp+44]
	xor	eax, DWORD PTR ___stack_chk_guard
	jne	L251
	mov	DWORD PTR [esp+80], ebp
LBE15:
	.loc 1 684 0
	add	esp, 60
LCFI252:
	.cfi_remember_state
	.cfi_def_cfa_offset 20
	pop	ebx
LCFI253:
	.cfi_restore 3
	.cfi_def_cfa_offset 16
	pop	esi
LCFI254:
	.cfi_restore 6
	.cfi_def_cfa_offset 12
	pop	edi
LCFI255:
	.cfi_restore 7
	.cfi_def_cfa_offset 8
LVL308:
	pop	ebp
LCFI256:
	.cfi_restore 5
	.cfi_def_cfa_offset 4
LVL309:
LBB16:
	.loc 1 682 0
	jmp	_g_free
LVL310:
	.p2align 2,,3
L252:
LCFI257:
	.cfi_restore_state
LBE16:
	.loc 1 671 0
	mov	DWORD PTR [esp+8], ebx
	mov	DWORD PTR [esp+4], ebp
	mov	DWORD PTR [esp], esi
	call	_serv_got_joined_chat
LVL311:
	.loc 1 674 0
	mov	eax, DWORD PTR [esp+44]
	xor	eax, DWORD PTR ___stack_chk_guard
	jne	L251
	mov	DWORD PTR [esp+80], 0
	mov	ecx, ebp
	mov	edx, esi
	mov	eax, OFFSET FLAT:_joined_chat
	.loc 1 684 0
	add	esp, 60
LCFI258:
	.cfi_remember_state
	.cfi_def_cfa_offset 20
	pop	ebx
LCFI259:
	.cfi_restore 3
	.cfi_def_cfa_offset 16
LVL312:
	pop	esi
LCFI260:
	.cfi_restore 6
	.cfi_def_cfa_offset 12
	pop	edi
LCFI261:
	.cfi_restore 7
	.cfi_def_cfa_offset 8
LVL313:
	pop	ebp
LCFI262:
	.cfi_restore 5
	.cfi_def_cfa_offset 4
LVL314:
	.loc 1 674 0
	jmp	_foreach_gc_in_chat
LVL315:
L251:
LCFI263:
	.cfi_restore_state
LBB17:
	.loc 1 682 0
	call	___stack_chk_fail
LVL316:
LBE17:
	.cfi_endproc
LFE131:
	.section .rdata,"dr"
	.align 4
LC57:
	.ascii "%s sees that %s joined chat room %s\12\0"
	.align 4
LC58:
	.ascii "%s sees that %s is in chat room %s\12\0"
	.text
	.p2align 2,,3
	.def	_joined_chat;	.scl	3;	.type	32;	.endef
_joined_chat:
LFB130:
	.loc 1 642 0
	.cfi_startproc
LVL317:
	push	edi
LCFI264:
	.cfi_def_cfa_offset 8
	.cfi_offset 7, -8
	push	esi
LCFI265:
	.cfi_def_cfa_offset 12
	.cfi_offset 6, -12
	push	ebx
LCFI266:
	.cfi_def_cfa_offset 16
	.cfi_offset 3, -16
	sub	esp, 48
LCFI267:
	.cfi_def_cfa_offset 64
	mov	ebx, DWORD PTR [esp+64]
	mov	esi, DWORD PTR [esp+68]
	mov	edi, DWORD PTR [esp+76]
	.loc 1 642 0
	mov	eax, DWORD PTR ___stack_chk_guard
	mov	DWORD PTR [esp+44], eax
	xor	eax, eax
	.loc 1 644 0
	mov	DWORD PTR [esp+16], edi
	mov	eax, DWORD PTR [ebx+24]
	mov	DWORD PTR [esp+12], eax
	mov	eax, DWORD PTR [esi+24]
	mov	DWORD PTR [esp+8], eax
	mov	DWORD PTR [esp+4], OFFSET FLAT:LC57
	mov	DWORD PTR [esp], OFFSET FLAT:LC2
	call	_purple_debug_info
LVL318:
	.loc 1 646 0
	mov	DWORD PTR [esp+16], 1
	mov	DWORD PTR [esp+12], 0
	mov	DWORD PTR [esp+8], 0
	mov	eax, DWORD PTR [ebx+24]
	mov	DWORD PTR [esp+4], eax
	mov	DWORD PTR [esp], esi
	call	_purple_conv_chat_add_user
LVL319:
	.loc 1 652 0
	cmp	ebx, esi
	je	L253
	.loc 1 654 0
	mov	DWORD PTR [esp+16], edi
	mov	eax, DWORD PTR [esi+24]
	mov	DWORD PTR [esp+12], eax
	mov	eax, DWORD PTR [ebx+24]
	mov	DWORD PTR [esp+8], eax
	mov	DWORD PTR [esp+4], OFFSET FLAT:LC58
	mov	DWORD PTR [esp], OFFSET FLAT:LC2
	call	_purple_debug_info
LVL320:
	.loc 1 656 0
	mov	eax, DWORD PTR [esp+44]
	xor	eax, DWORD PTR ___stack_chk_guard
	jne	L258
	mov	DWORD PTR [esp+80], 0
	mov	DWORD PTR [esp+76], 0
	mov	DWORD PTR [esp+72], 0
	mov	eax, DWORD PTR [esi+24]
	mov	DWORD PTR [esp+68], eax
	mov	DWORD PTR [esp+64], ebx
	.loc 1 662 0
	add	esp, 48
LCFI268:
	.cfi_remember_state
	.cfi_def_cfa_offset 16
	pop	ebx
LCFI269:
	.cfi_restore 3
	.cfi_def_cfa_offset 12
	pop	esi
LCFI270:
	.cfi_restore 6
	.cfi_def_cfa_offset 8
	pop	edi
LCFI271:
	.cfi_restore 7
	.cfi_def_cfa_offset 4
	.loc 1 656 0
	jmp	_purple_conv_chat_add_user
LVL321:
	.p2align 2,,3
L253:
LCFI272:
	.cfi_restore_state
	.loc 1 662 0
	mov	eax, DWORD PTR [esp+44]
	xor	eax, DWORD PTR ___stack_chk_guard
	jne	L258
	add	esp, 48
LCFI273:
	.cfi_remember_state
	.cfi_def_cfa_offset 16
	pop	ebx
LCFI274:
	.cfi_restore 3
	.cfi_def_cfa_offset 12
	pop	esi
LCFI275:
	.cfi_restore 6
	.cfi_def_cfa_offset 8
	pop	edi
LCFI276:
	.cfi_restore 7
	.cfi_def_cfa_offset 4
	ret
L258:
LCFI277:
	.cfi_restore_state
	call	___stack_chk_fail
LVL322:
	.cfi_endproc
LFE130:
	.section .rdata,"dr"
LC59:
	.ascii "message\0"
LC60:
	.ascii "online\0"
LC61:
	.ascii "away\0"
LC62:
	.ascii "offline\0"
LC63:
	.ascii "%s sees that %s is %s: %s\12\0"
	.align 4
LC64:
	.ascii "%s's buddy %s has an unknown status: %s, %s\0"
	.text
	.p2align 2,,3
	.def	_discover_status;	.scl	3;	.type	32;	.endef
_discover_status:
LFB98:
	.loc 1 162 0
	.cfi_startproc
LVL323:
	push	ebp
LCFI278:
	.cfi_def_cfa_offset 8
	.cfi_offset 5, -8
	push	edi
LCFI279:
	.cfi_def_cfa_offset 12
	.cfi_offset 7, -12
	push	esi
LCFI280:
	.cfi_def_cfa_offset 16
	.cfi_offset 6, -16
	push	ebx
LCFI281:
	.cfi_def_cfa_offset 20
	.cfi_offset 3, -20
	sub	esp, 76
LCFI282:
	.cfi_def_cfa_offset 96
	mov	ebp, DWORD PTR [esp+96]
	mov	esi, DWORD PTR [esp+100]
	.loc 1 162 0
	mov	eax, DWORD PTR ___stack_chk_guard
	mov	DWORD PTR [esp+60], eax
	xor	eax, eax
	.loc 1 163 0
	mov	eax, DWORD PTR [ebp+12]
	mov	edx, DWORD PTR [eax]
	mov	DWORD PTR [esp+44], edx
LVL324:
	.loc 1 164 0
	mov	edx, DWORD PTR [esi+12]
LVL325:
	mov	ebx, DWORD PTR [edx]
LVL326:
	.loc 1 166 0
	mov	DWORD PTR [esp+4], ebx
	mov	DWORD PTR [esp], eax
	call	_purple_find_buddy
LVL327:
	test	eax, eax
	je	L259
LBB18:
	.loc 1 167 0
	mov	eax, DWORD PTR [esi+12]
	mov	DWORD PTR [esp], eax
	call	_purple_account_get_active_status
LVL328:
	mov	esi, eax
LVL329:
	.loc 1 168 0
	mov	DWORD PTR [esp], eax
	call	_purple_status_get_id
LVL330:
	mov	DWORD PTR [esp+40], eax
LVL331:
	.loc 1 169 0
	mov	DWORD PTR [esp+4], OFFSET FLAT:LC59
	mov	DWORD PTR [esp], esi
	call	_purple_status_get_attr_string
LVL332:
	.loc 1 171 0
	mov	edi, OFFSET FLAT:LC60
	mov	ecx, 7
	mov	esi, DWORD PTR [esp+40]
LVL333:
	repe cmpsb
LVL334:
	je	L261
	.loc 1 172 0 discriminator 1
	mov	edi, OFFSET FLAT:LC61
	mov	ecx, 5
	mov	esi, DWORD PTR [esp+40]
	.loc 1 171 0 discriminator 1
	repe cmpsb
	jne	L276
L261:
	.loc 1 174 0
	mov	DWORD PTR [esp+20], eax
	mov	edx, DWORD PTR [esp+40]
	mov	DWORD PTR [esp+16], edx
	mov	DWORD PTR [esp+12], ebx
	mov	edx, DWORD PTR [esp+44]
	mov	DWORD PTR [esp+8], edx
	mov	DWORD PTR [esp+4], OFFSET FLAT:LC63
	mov	DWORD PTR [esp], OFFSET FLAT:LC2
	mov	DWORD PTR [esp+36], eax
	call	_purple_debug_info
LVL335:
	.loc 1 176 0
	mov	eax, DWORD PTR [esp+36]
	test	eax, eax
	je	L265
	mov	edx, OFFSET FLAT:LC59
L263:
	.loc 1 176 0 is_stmt 0 discriminator 3
	mov	DWORD PTR [esp+20], 0
	mov	DWORD PTR [esp+16], eax
	mov	DWORD PTR [esp+12], edx
	mov	eax, DWORD PTR [esp+40]
	mov	DWORD PTR [esp+8], eax
	mov	DWORD PTR [esp+4], ebx
	mov	eax, DWORD PTR [ebp+12]
	mov	DWORD PTR [esp], eax
	call	_purple_prpl_got_user_status
LVL336:
L259:
LBE18:
	.loc 1 184 0 is_stmt 1
	mov	eax, DWORD PTR [esp+60]
	xor	eax, DWORD PTR ___stack_chk_guard
	jne	L277
	add	esp, 76
LCFI283:
	.cfi_remember_state
	.cfi_def_cfa_offset 20
	pop	ebx
LCFI284:
	.cfi_restore 3
	.cfi_def_cfa_offset 16
LVL337:
	pop	esi
LCFI285:
	.cfi_restore 6
	.cfi_def_cfa_offset 12
	pop	edi
LCFI286:
	.cfi_restore 7
	.cfi_def_cfa_offset 8
	pop	ebp
LCFI287:
	.cfi_restore 5
	.cfi_def_cfa_offset 4
	ret
LVL338:
	.p2align 2,,3
L276:
LCFI288:
	.cfi_restore_state
LBB19:
	.loc 1 173 0
	mov	edi, OFFSET FLAT:LC62
	mov	ecx, 8
	mov	esi, DWORD PTR [esp+40]
	.loc 1 172 0
	repe cmpsb
	je	L261
	.loc 1 179 0
	mov	DWORD PTR [esp+20], eax
	mov	edx, DWORD PTR [esp+40]
	mov	DWORD PTR [esp+16], edx
	mov	DWORD PTR [esp+12], ebx
	mov	edx, DWORD PTR [esp+44]
	mov	DWORD PTR [esp+8], edx
	mov	DWORD PTR [esp+4], OFFSET FLAT:LC64
	mov	DWORD PTR [esp], OFFSET FLAT:LC2
	call	_purple_debug_error
LVL339:
	jmp	L259
	.p2align 2,,3
L265:
	.loc 1 176 0
	xor	edx, edx
	jmp	L263
L277:
LBE19:
	.loc 1 184 0
	call	___stack_chk_fail
LVL340:
	.cfi_endproc
LFE98:
	.section .rdata,"dr"
LC65:
	.ascii "adding %s to %s's buddy list\12\0"
	.align 4
LC66:
	.ascii "%s is already on %s's buddy list\12\0"
	.align 4
LC67:
	.ascii "asking %s if they want to add %s\12\0"
	.text
	.p2align 2,,3
	.def	_nullprpl_add_buddy;	.scl	3;	.type	32;	.endef
_nullprpl_add_buddy:
LFB121:
	.loc 1 546 0
	.cfi_startproc
LVL341:
	push	ebp
LCFI289:
	.cfi_def_cfa_offset 8
	.cfi_offset 5, -8
	push	edi
LCFI290:
	.cfi_def_cfa_offset 12
	.cfi_offset 7, -12
	push	esi
LCFI291:
	.cfi_def_cfa_offset 16
	.cfi_offset 6, -16
	push	ebx
LCFI292:
	.cfi_def_cfa_offset 20
	.cfi_offset 3, -20
	sub	esp, 76
LCFI293:
	.cfi_def_cfa_offset 96
	mov	ebp, DWORD PTR [esp+96]
	mov	ebx, DWORD PTR [esp+100]
	.loc 1 546 0
	mov	eax, DWORD PTR ___stack_chk_guard
	mov	DWORD PTR [esp+60], eax
	xor	eax, eax
	.loc 1 547 0
	mov	eax, DWORD PTR [ebp+12]
	mov	esi, DWORD PTR [eax]
LVL342:
	.loc 1 548 0
	mov	eax, DWORD PTR [ebx+32]
	call	_get_nullprpl_gc
LVL343:
	mov	edi, eax
LVL344:
	.loc 1 550 0
	mov	DWORD PTR [esp+12], esi
	mov	eax, DWORD PTR [ebx+32]
LVL345:
	mov	DWORD PTR [esp+8], eax
	mov	DWORD PTR [esp+4], OFFSET FLAT:LC65
	mov	DWORD PTR [esp], OFFSET FLAT:LC2
	call	_purple_debug_info
LVL346:
	.loc 1 553 0
	test	edi, edi
	je	L278
LBB20:
	.loc 1 554 0
	mov	eax, DWORD PTR [edi+12]
	mov	DWORD PTR [esp+44], eax
LVL347:
	.loc 1 556 0
	mov	DWORD PTR [esp+8], 0
	mov	DWORD PTR [esp+4], edi
	mov	DWORD PTR [esp], ebp
	call	_discover_status
LVL348:
	.loc 1 558 0
	mov	DWORD PTR [esp+4], esi
	mov	eax, DWORD PTR [esp+44]
	mov	DWORD PTR [esp], eax
	call	_purple_find_buddy
LVL349:
	test	eax, eax
	je	L280
	.loc 1 559 0
	mov	eax, DWORD PTR [ebx+32]
	mov	DWORD PTR [esp+12], eax
	mov	DWORD PTR [esp+8], esi
	mov	DWORD PTR [esp+4], OFFSET FLAT:LC66
	mov	DWORD PTR [esp], OFFSET FLAT:LC2
	call	_purple_debug_info
LVL350:
L278:
LBE20:
	.loc 1 571 0
	mov	eax, DWORD PTR [esp+60]
	xor	eax, DWORD PTR ___stack_chk_guard
	jne	L286
	add	esp, 76
LCFI294:
	.cfi_remember_state
	.cfi_def_cfa_offset 20
	pop	ebx
LCFI295:
	.cfi_restore 3
	.cfi_def_cfa_offset 16
	pop	esi
LCFI296:
	.cfi_restore 6
	.cfi_def_cfa_offset 12
LVL351:
	pop	edi
LCFI297:
	.cfi_restore 7
	.cfi_def_cfa_offset 8
LVL352:
	pop	ebp
LCFI298:
	.cfi_restore 5
	.cfi_def_cfa_offset 4
	ret
LVL353:
	.p2align 2,,3
L280:
LCFI299:
	.cfi_restore_state
LBB21:
	.loc 1 562 0
	mov	DWORD PTR [esp+12], esi
	mov	eax, DWORD PTR [ebx+32]
	mov	DWORD PTR [esp+8], eax
	mov	DWORD PTR [esp+4], OFFSET FLAT:LC67
	mov	DWORD PTR [esp], OFFSET FLAT:LC2
	call	_purple_debug_info
LVL354:
	.loc 1 564 0
	mov	DWORD PTR [esp+16], 0
	mov	DWORD PTR [esp+12], 0
	mov	DWORD PTR [esp+8], 0
	mov	DWORD PTR [esp+4], esi
	mov	eax, DWORD PTR [esp+44]
	mov	DWORD PTR [esp], eax
	call	_purple_account_request_add
LVL355:
	jmp	L278
LVL356:
L286:
LBE21:
	.loc 1 571 0
	call	___stack_chk_fail
LVL357:
	.cfi_endproc
LFE121:
	.section .rdata,"dr"
LC68:
	.ascii "adding multiple buddies\12\0"
	.text
	.p2align 2,,3
	.def	_nullprpl_add_buddies;	.scl	3;	.type	32;	.endef
_nullprpl_add_buddies:
LFB122:
	.loc 1 574 0
	.cfi_startproc
LVL358:
	push	edi
LCFI300:
	.cfi_def_cfa_offset 8
	.cfi_offset 7, -8
	push	esi
LCFI301:
	.cfi_def_cfa_offset 12
	.cfi_offset 6, -12
	push	ebx
LCFI302:
	.cfi_def_cfa_offset 16
	.cfi_offset 3, -16
	sub	esp, 32
LCFI303:
	.cfi_def_cfa_offset 48
	mov	edi, DWORD PTR [esp+48]
	mov	ebx, DWORD PTR [esp+52]
	mov	esi, DWORD PTR [esp+56]
	.loc 1 574 0
	mov	eax, DWORD PTR ___stack_chk_guard
	mov	DWORD PTR [esp+28], eax
	xor	eax, eax
LVL359:
	.loc 1 578 0
	mov	DWORD PTR [esp+4], OFFSET FLAT:LC68
	mov	DWORD PTR [esp], OFFSET FLAT:LC2
	call	_purple_debug_info
LVL360:
	.loc 1 580 0
	test	ebx, ebx
	jne	L300
	jmp	L287
	.p2align 2,,3
L301:
	.loc 1 581 0
	mov	eax, DWORD PTR [esi]
	mov	DWORD PTR [esp+8], eax
	mov	eax, DWORD PTR [ebx]
	mov	DWORD PTR [esp+4], eax
	mov	DWORD PTR [esp], edi
	call	_nullprpl_add_buddy
LVL361:
	.loc 1 582 0
	mov	ebx, DWORD PTR [ebx+4]
LVL362:
	.loc 1 583 0
	mov	esi, DWORD PTR [esi+4]
LVL363:
	.loc 1 580 0
	test	ebx, ebx
	je	L287
L300:
	test	esi, esi
	jne	L301
L287:
	.loc 1 585 0
	mov	eax, DWORD PTR [esp+28]
	xor	eax, DWORD PTR ___stack_chk_guard
	jne	L302
	add	esp, 32
LCFI304:
	.cfi_remember_state
	.cfi_def_cfa_offset 16
	pop	ebx
LCFI305:
	.cfi_restore 3
	.cfi_def_cfa_offset 12
LVL364:
	pop	esi
LCFI306:
	.cfi_restore 6
	.cfi_def_cfa_offset 8
LVL365:
	pop	edi
LCFI307:
	.cfi_restore 7
	.cfi_def_cfa_offset 4
	ret
LVL366:
L302:
LCFI308:
	.cfi_restore_state
	call	___stack_chk_fail
LVL367:
	.cfi_endproc
LFE122:
	.section .rdata,"dr"
	.align 4
LC69:
	.ascii "notifying %s that %s changed status\12\0"
	.text
	.p2align 2,,3
	.def	_report_status_change;	.scl	3;	.type	32;	.endef
_report_status_change:
LFB99:
	.loc 1 187 0
	.cfi_startproc
LVL368:
	push	esi
LCFI309:
	.cfi_def_cfa_offset 8
	.cfi_offset 6, -8
	push	ebx
LCFI310:
	.cfi_def_cfa_offset 12
	.cfi_offset 3, -12
	sub	esp, 36
LCFI311:
	.cfi_def_cfa_offset 48
	mov	esi, DWORD PTR [esp+48]
	mov	ebx, DWORD PTR [esp+52]
	.loc 1 187 0
	mov	eax, DWORD PTR ___stack_chk_guard
	mov	DWORD PTR [esp+28], eax
	xor	eax, eax
	.loc 1 189 0
	mov	eax, DWORD PTR [esi+12]
	.loc 1 188 0
	mov	eax, DWORD PTR [eax]
	mov	DWORD PTR [esp+12], eax
	.loc 1 189 0
	mov	eax, DWORD PTR [ebx+12]
	.loc 1 188 0
	mov	eax, DWORD PTR [eax]
	mov	DWORD PTR [esp+8], eax
	mov	DWORD PTR [esp+4], OFFSET FLAT:LC69
	mov	DWORD PTR [esp], OFFSET FLAT:LC2
	call	_purple_debug_info
LVL369:
	.loc 1 190 0
	mov	eax, DWORD PTR [esp+28]
	xor	eax, DWORD PTR ___stack_chk_guard
	jne	L307
	mov	DWORD PTR [esp+56], 0
	mov	DWORD PTR [esp+52], esi
	mov	DWORD PTR [esp+48], ebx
	.loc 1 191 0
	add	esp, 36
LCFI312:
	.cfi_remember_state
	.cfi_def_cfa_offset 12
	pop	ebx
LCFI313:
	.cfi_restore 3
	.cfi_def_cfa_offset 8
	pop	esi
LCFI314:
	.cfi_restore 6
	.cfi_def_cfa_offset 4
	.loc 1 190 0
	jmp	_discover_status
LVL370:
L307:
LCFI315:
	.cfi_restore_state
	call	___stack_chk_fail
LVL371:
	.cfi_endproc
LFE99:
	.section .rdata,"dr"
	.align 4
LC70:
	.ascii "setting %s's status to %s: %s\12\0"
	.text
	.p2align 2,,3
	.def	_nullprpl_set_status;	.scl	3;	.type	32;	.endef
_nullprpl_set_status:
LFB118:
	.loc 1 523 0
	.cfi_startproc
LVL372:
	push	edi
LCFI316:
	.cfi_def_cfa_offset 8
	.cfi_offset 7, -8
	push	esi
LCFI317:
	.cfi_def_cfa_offset 12
	.cfi_offset 6, -12
	push	ebx
LCFI318:
	.cfi_def_cfa_offset 16
	.cfi_offset 3, -16
	sub	esp, 48
LCFI319:
	.cfi_def_cfa_offset 64
	mov	ebx, DWORD PTR [esp+64]
	mov	esi, DWORD PTR [esp+68]
	.loc 1 523 0
	mov	eax, DWORD PTR ___stack_chk_guard
	mov	DWORD PTR [esp+44], eax
	xor	eax, eax
	.loc 1 524 0
	mov	DWORD PTR [esp+4], OFFSET FLAT:LC59
	mov	DWORD PTR [esp], esi
	call	_purple_status_get_attr_string
LVL373:
	mov	edi, eax
LVL374:
	.loc 1 525 0
	mov	DWORD PTR [esp], esi
	call	_purple_status_get_name
LVL375:
	mov	DWORD PTR [esp+16], edi
	mov	DWORD PTR [esp+12], eax
	mov	eax, DWORD PTR [ebx]
	mov	DWORD PTR [esp+8], eax
	mov	DWORD PTR [esp+4], OFFSET FLAT:LC70
	mov	DWORD PTR [esp], OFFSET FLAT:LC2
	call	_purple_debug_info
LVL376:
	.loc 1 528 0
	mov	eax, DWORD PTR [ebx]
	call	_get_nullprpl_gc
LVL377:
	mov	edx, DWORD PTR [esp+44]
	xor	edx, DWORD PTR ___stack_chk_guard
	jne	L312
	xor	ecx, ecx
	mov	edx, eax
	mov	eax, OFFSET FLAT:_report_status_change
	.loc 1 530 0
	add	esp, 48
LCFI320:
	.cfi_remember_state
	.cfi_def_cfa_offset 16
	pop	ebx
LCFI321:
	.cfi_restore 3
	.cfi_def_cfa_offset 12
	pop	esi
LCFI322:
	.cfi_restore 6
	.cfi_def_cfa_offset 8
	pop	edi
LCFI323:
	.cfi_restore 7
	.cfi_def_cfa_offset 4
LVL378:
	.loc 1 528 0
	jmp	_foreach_nullprpl_gc
LVL379:
L312:
LCFI324:
	.cfi_restore_state
	call	___stack_chk_fail
LVL380:
	.cfi_endproc
LFE118:
	.section .rdata,"dr"
	.align 4
LC71:
	.ascii "Fetching %s's user info for %s\12\0"
LC72:
	.ascii "%s is not logged in.\0"
LC73:
	.ascii "User info not available. \0"
LC74:
	.ascii "User Info\0"
LC75:
	.ascii "No user info.\0"
LC76:
	.ascii "Info\0"
	.text
	.p2align 2,,3
	.def	_nullprpl_get_info;	.scl	3;	.type	32;	.endef
_nullprpl_get_info:
LFB117:
	.loc 1 494 0
	.cfi_startproc
LVL381:
	push	ebp
LCFI325:
	.cfi_def_cfa_offset 8
	.cfi_offset 5, -8
	push	edi
LCFI326:
	.cfi_def_cfa_offset 12
	.cfi_offset 7, -12
	push	esi
LCFI327:
	.cfi_def_cfa_offset 16
	.cfi_offset 6, -16
	push	ebx
LCFI328:
	.cfi_def_cfa_offset 20
	.cfi_offset 3, -20
	sub	esp, 76
LCFI329:
	.cfi_def_cfa_offset 96
	mov	esi, DWORD PTR [esp+96]
	mov	ebx, DWORD PTR [esp+100]
	.loc 1 494 0
	mov	eax, DWORD PTR ___stack_chk_guard
	mov	DWORD PTR [esp+60], eax
	xor	eax, eax
	.loc 1 496 0
	call	_purple_notify_user_info_new
LVL382:
	mov	edi, eax
LVL383:
	.loc 1 500 0
	mov	eax, DWORD PTR [esi+12]
LVL384:
	.loc 1 499 0
	mov	eax, DWORD PTR [eax]
	mov	DWORD PTR [esp+12], eax
	mov	DWORD PTR [esp+8], ebx
	mov	DWORD PTR [esp+4], OFFSET FLAT:LC71
	mov	DWORD PTR [esp], OFFSET FLAT:LC2
	call	_purple_debug_info
LVL385:
	.loc 1 502 0
	mov	eax, ebx
	call	_get_nullprpl_gc
LVL386:
	test	eax, eax
	je	L319
L314:
	.loc 1 508 0
	mov	DWORD PTR [esp+4], OFFSET FLAT:LC37
	mov	DWORD PTR [esp], ebx
	call	_purple_accounts_find
LVL387:
	.loc 1 509 0
	test	eax, eax
	je	L315
	.loc 1 510 0
	mov	DWORD PTR [esp], eax
	call	_purple_account_get_user_info
LVL388:
L316:
	.loc 1 513 0
	mov	DWORD PTR [esp+8], eax
	mov	DWORD PTR [esp+4], OFFSET FLAT:LC76
	mov	DWORD PTR [esp], edi
	call	_purple_notify_user_info_add_pair
LVL389:
	.loc 1 516 0
	mov	DWORD PTR [esp+16], 0
	mov	DWORD PTR [esp+12], 0
	mov	DWORD PTR [esp+8], edi
	mov	DWORD PTR [esp+4], ebx
	mov	DWORD PTR [esp], esi
	call	_purple_notify_userinfo
LVL390:
	.loc 1 521 0
	mov	eax, DWORD PTR [esp+60]
	xor	eax, DWORD PTR ___stack_chk_guard
	jne	L320
	add	esp, 76
LCFI330:
	.cfi_remember_state
	.cfi_def_cfa_offset 20
	pop	ebx
LCFI331:
	.cfi_restore 3
	.cfi_def_cfa_offset 16
	pop	esi
LCFI332:
	.cfi_restore 6
	.cfi_def_cfa_offset 12
	pop	edi
LCFI333:
	.cfi_restore 7
	.cfi_def_cfa_offset 8
LVL391:
	pop	ebp
LCFI334:
	.cfi_restore 5
	.cfi_def_cfa_offset 4
	ret
LVL392:
	.p2align 2,,3
L315:
LCFI335:
	.cfi_restore_state
	.loc 1 512 0
	mov	DWORD PTR [esp+4], OFFSET FLAT:LC75
	mov	DWORD PTR [esp], OFFSET FLAT:LC32
	call	_libintl_dgettext
LVL393:
	jmp	L316
LVL394:
	.p2align 2,,3
L319:
LBB22:
	.loc 1 503 0
	mov	DWORD PTR [esp+4], OFFSET FLAT:LC72
	mov	DWORD PTR [esp], OFFSET FLAT:LC32
	call	_libintl_dgettext
LVL395:
	mov	DWORD PTR [esp+4], ebx
	mov	DWORD PTR [esp], eax
	call	_g_strdup_printf
LVL396:
	mov	ebp, eax
LVL397:
	.loc 1 504 0
	mov	DWORD PTR [esp+4], OFFSET FLAT:LC73
	mov	DWORD PTR [esp], OFFSET FLAT:LC32
	call	_libintl_dgettext
LVL398:
	mov	DWORD PTR [esp+4], OFFSET FLAT:LC74
	mov	DWORD PTR [esp], OFFSET FLAT:LC32
	mov	DWORD PTR [esp+44], eax
	call	_libintl_dgettext
LVL399:
	mov	DWORD PTR [esp+24], 0
	mov	DWORD PTR [esp+20], 0
	mov	DWORD PTR [esp+16], ebp
	mov	edx, DWORD PTR [esp+44]
	mov	DWORD PTR [esp+12], edx
	mov	DWORD PTR [esp+8], eax
	mov	DWORD PTR [esp+4], 0
	mov	DWORD PTR [esp], esi
	call	_purple_notify_message
LVL400:
	.loc 1 505 0
	mov	DWORD PTR [esp], ebp
	call	_g_free
LVL401:
	jmp	L314
LVL402:
L320:
LBE22:
	.loc 1 521 0
	call	___stack_chk_fail
LVL403:
	.cfi_endproc
LFE117:
	.section .rdata,"dr"
	.align 4
LC77:
	.ascii "retrieving %s's info for %s in chat room %s\12\0"
	.text
	.p2align 2,,3
	.def	_nullprpl_get_cb_info;	.scl	3;	.type	32;	.endef
_nullprpl_get_cb_info:
LFB142:
	.loc 1 868 0
	.cfi_startproc
LVL404:
	push	esi
LCFI336:
	.cfi_def_cfa_offset 8
	.cfi_offset 6, -8
	push	ebx
LCFI337:
	.cfi_def_cfa_offset 12
	.cfi_offset 3, -12
	sub	esp, 52
LCFI338:
	.cfi_def_cfa_offset 64
	mov	ebx, DWORD PTR [esp+64]
	mov	esi, DWORD PTR [esp+72]
	.loc 1 868 0
	mov	eax, DWORD PTR ___stack_chk_guard
	mov	DWORD PTR [esp+44], eax
	xor	eax, eax
	.loc 1 869 0
	mov	eax, DWORD PTR [esp+68]
	mov	DWORD PTR [esp+4], eax
	mov	DWORD PTR [esp], ebx
	call	_purple_find_chat
LVL405:
	.loc 1 870 0
	mov	eax, DWORD PTR [eax+8]
LVL406:
	mov	DWORD PTR [esp+16], eax
	.loc 1 872 0
	mov	eax, DWORD PTR [ebx+12]
	.loc 1 870 0
	mov	eax, DWORD PTR [eax]
	mov	DWORD PTR [esp+12], eax
	mov	DWORD PTR [esp+8], esi
	mov	DWORD PTR [esp+4], OFFSET FLAT:LC77
	mov	DWORD PTR [esp], OFFSET FLAT:LC2
	call	_purple_debug_info
LVL407:
	.loc 1 874 0
	mov	eax, DWORD PTR [esp+44]
	xor	eax, DWORD PTR ___stack_chk_guard
	jne	L325
	mov	DWORD PTR [esp+68], esi
	mov	DWORD PTR [esp+64], ebx
	.loc 1 875 0
	add	esp, 52
LCFI339:
	.cfi_remember_state
	.cfi_def_cfa_offset 12
	pop	ebx
LCFI340:
	.cfi_restore 3
	.cfi_def_cfa_offset 8
	pop	esi
LCFI341:
	.cfi_restore 6
	.cfi_def_cfa_offset 4
	.loc 1 874 0
	jmp	_nullprpl_get_info
LVL408:
L325:
LCFI342:
	.cfi_restore_state
	call	___stack_chk_fail
LVL409:
	.cfi_endproc
LFE142:
	.section .rdata,"dr"
LC78:
	.ascii "notifying %s that %s %s\12\0"
	.text
	.p2align 2,,3
	.def	_notify_typing;	.scl	3;	.type	32;	.endef
_notify_typing:
LFB115:
	.loc 1 473 0
	.cfi_startproc
LVL410:
	push	edi
LCFI343:
	.cfi_def_cfa_offset 8
	.cfi_offset 7, -8
	push	esi
LCFI344:
	.cfi_def_cfa_offset 12
	.cfi_offset 6, -12
	push	ebx
LCFI345:
	.cfi_def_cfa_offset 16
	.cfi_offset 3, -16
	sub	esp, 48
LCFI346:
	.cfi_def_cfa_offset 64
	mov	esi, DWORD PTR [esp+68]
	mov	ebx, DWORD PTR [esp+72]
	.loc 1 473 0
	mov	eax, DWORD PTR ___stack_chk_guard
	mov	DWORD PTR [esp+44], eax
	xor	eax, eax
	.loc 1 474 0
	mov	eax, DWORD PTR [esp+64]
	mov	eax, DWORD PTR [eax+12]
	mov	edi, DWORD PTR [eax]
LVL411:
	cmp	ebx, 2
	ja	L329
	mov	eax, DWORD PTR _CSWTCH.19[0+ebx*4]
L327:
	.loc 1 476 0
	mov	DWORD PTR [esp+16], eax
	mov	DWORD PTR [esp+12], edi
	.loc 1 477 0
	mov	eax, DWORD PTR [esi+12]
	.loc 1 476 0
	mov	eax, DWORD PTR [eax]
	mov	DWORD PTR [esp+8], eax
	mov	DWORD PTR [esp+4], OFFSET FLAT:LC78
	mov	DWORD PTR [esp], OFFSET FLAT:LC2
	call	_purple_debug_info
LVL412:
	.loc 1 479 0
	mov	DWORD PTR [esp+12], ebx
	mov	DWORD PTR [esp+8], 0
	mov	DWORD PTR [esp+4], edi
	mov	DWORD PTR [esp], esi
	call	_serv_got_typing
LVL413:
	.loc 1 484 0
	mov	eax, DWORD PTR [esp+44]
	xor	eax, DWORD PTR ___stack_chk_guard
	jne	L331
	add	esp, 48
LCFI347:
	.cfi_remember_state
	.cfi_def_cfa_offset 16
	pop	ebx
LCFI348:
	.cfi_restore 3
	.cfi_def_cfa_offset 12
LVL414:
	pop	esi
LCFI349:
	.cfi_restore 6
	.cfi_def_cfa_offset 8
	pop	edi
LCFI350:
	.cfi_restore 7
	.cfi_def_cfa_offset 4
LVL415:
	ret
LVL416:
	.p2align 2,,3
L329:
LCFI351:
	.cfi_restore_state
	mov	eax, OFFSET FLAT:LC29
	jmp	L327
L331:
	call	___stack_chk_fail
LVL417:
	.cfi_endproc
LFE115:
	.section .rdata,"dr"
	.align 4
LC79:
	.ascii "returning chat setting 'room'\12\0"
LC80:
	.ascii "Chat _room\0"
	.text
	.p2align 2,,3
	.def	_nullprpl_chat_info;	.scl	3;	.type	32;	.endef
_nullprpl_chat_info:
LFB108:
	.loc 1 335 0
	.cfi_startproc
LVL418:
	push	ebx
LCFI352:
	.cfi_def_cfa_offset 8
	.cfi_offset 3, -8
	sub	esp, 40
LCFI353:
	.cfi_def_cfa_offset 48
	.loc 1 335 0
	mov	eax, DWORD PTR ___stack_chk_guard
	mov	DWORD PTR [esp+28], eax
	xor	eax, eax
	.loc 1 338 0
	mov	DWORD PTR [esp+4], OFFSET FLAT:LC79
	mov	DWORD PTR [esp], OFFSET FLAT:LC2
	call	_purple_debug_info
LVL419:
	.loc 1 340 0
	mov	DWORD PTR [esp], 28
	call	_g_malloc0
LVL420:
	mov	ebx, eax
LVL421:
	.loc 1 341 0
	mov	DWORD PTR [esp+4], OFFSET FLAT:LC80
	mov	DWORD PTR [esp], OFFSET FLAT:LC32
	call	_libintl_dgettext
LVL422:
	mov	DWORD PTR [ebx], eax
	.loc 1 342 0
	mov	DWORD PTR [ebx+4], OFFSET FLAT:LC22
	.loc 1 343 0
	mov	DWORD PTR [ebx+8], 1
	.loc 1 345 0
	mov	DWORD PTR [esp+4], ebx
	mov	DWORD PTR [esp], 0
	call	_g_list_append
LVL423:
	.loc 1 346 0
	mov	edx, DWORD PTR [esp+28]
	xor	edx, DWORD PTR ___stack_chk_guard
	jne	L335
	add	esp, 40
LCFI354:
	.cfi_remember_state
	.cfi_def_cfa_offset 8
	pop	ebx
LCFI355:
	.cfi_restore 3
	.cfi_def_cfa_offset 4
LVL424:
	ret
LVL425:
L335:
LCFI356:
	.cfi_restore_state
	call	___stack_chk_fail
LVL426:
	.cfi_endproc
LFE108:
	.section .rdata,"dr"
	.align 4
LC81:
	.ascii "sending message from %s to %s: %s\12\0"
	.align 4
LC82:
	.ascii "Your message was blocked by %s's privacy settings.\0"
	.align 4
LC83:
	.ascii "discarding; %s is blocked by %s's privacy settings\12\0"
	.align 4
LC84:
	.ascii "%s is offline, sending as offline message\12\0"
	.text
	.p2align 2,,3
	.def	_nullprpl_send_im;	.scl	3;	.type	32;	.endef
_nullprpl_send_im:
LFB112:
	.loc 1 411 0
	.cfi_startproc
LVL427:
	push	ebp
LCFI357:
	.cfi_def_cfa_offset 8
	.cfi_offset 5, -8
	push	edi
LCFI358:
	.cfi_def_cfa_offset 12
	.cfi_offset 7, -12
	push	esi
LCFI359:
	.cfi_def_cfa_offset 16
	.cfi_offset 6, -16
	push	ebx
LCFI360:
	.cfi_def_cfa_offset 20
	.cfi_offset 3, -20
	sub	esp, 76
LCFI361:
	.cfi_def_cfa_offset 96
	mov	ebp, DWORD PTR [esp+96]
	mov	esi, DWORD PTR [esp+100]
	mov	edx, DWORD PTR [esp+104]
	mov	DWORD PTR [esp+40], edx
	mov	ebx, DWORD PTR [esp+108]
	.loc 1 411 0
	mov	eax, DWORD PTR ___stack_chk_guard
	mov	DWORD PTR [esp+60], eax
	xor	eax, eax
	.loc 1 412 0
	mov	eax, DWORD PTR [ebp+12]
	mov	edi, DWORD PTR [eax]
LVL428:
	.loc 1 414 0
	and	ebx, -4
	.loc 1 413 0
	or	ebx, 2
LVL429:
	.loc 1 415 0
	mov	DWORD PTR [esp+4], OFFSET FLAT:LC37
	mov	DWORD PTR [esp], esi
	call	_purple_accounts_find
LVL430:
	.loc 1 418 0
	mov	edx, DWORD PTR [esp+40]
	mov	DWORD PTR [esp+16], edx
	mov	DWORD PTR [esp+12], esi
	mov	DWORD PTR [esp+8], edi
	mov	DWORD PTR [esp+4], OFFSET FLAT:LC81
	mov	DWORD PTR [esp], OFFSET FLAT:LC2
	mov	DWORD PTR [esp+36], eax
	call	_purple_debug_info
LVL431:
	.loc 1 422 0
	mov	eax, DWORD PTR [esp+36]
	test	eax, eax
	je	L337
	.loc 1 422 0 is_stmt 0 discriminator 1
	mov	ecx, DWORD PTR [ebp+12]
	mov	ecx, DWORD PTR [ecx]
	mov	DWORD PTR [esp+4], ecx
	mov	DWORD PTR [esp], eax
	call	_purple_privacy_check
LVL432:
	test	eax, eax
	je	L345
L337:
	.loc 1 434 0 is_stmt 1
	mov	eax, esi
	call	_get_nullprpl_gc
LVL433:
	.loc 1 435 0
	test	eax, eax
	je	L339
	.loc 1 436 0
	mov	DWORD PTR [esp], 0
	mov	DWORD PTR [esp+36], eax
	call	_time
LVL434:
	mov	DWORD PTR [esp+16], eax
	mov	DWORD PTR [esp+12], ebx
	mov	eax, DWORD PTR [esp+40]
	mov	DWORD PTR [esp+8], eax
	mov	DWORD PTR [esp+4], edi
	mov	edx, DWORD PTR [esp+36]
	mov	DWORD PTR [esp], edx
	call	_serv_got_im
LVL435:
	.loc 1 455 0
	mov	eax, 1
LVL436:
L338:
	.loc 1 456 0
	mov	edx, DWORD PTR [esp+60]
	xor	edx, DWORD PTR ___stack_chk_guard
	jne	L346
	add	esp, 76
LCFI362:
	.cfi_remember_state
	.cfi_def_cfa_offset 20
	pop	ebx
LCFI363:
	.cfi_restore 3
	.cfi_def_cfa_offset 16
	pop	esi
LCFI364:
	.cfi_restore 6
	.cfi_def_cfa_offset 12
	pop	edi
LCFI365:
	.cfi_restore 7
	.cfi_def_cfa_offset 8
LVL437:
	pop	ebp
LCFI366:
	.cfi_restore 5
	.cfi_def_cfa_offset 4
	ret
LVL438:
	.p2align 2,,3
L339:
LCFI367:
	.cfi_restore_state
LBB23:
	.loc 1 442 0
	mov	DWORD PTR [esp+8], esi
	mov	DWORD PTR [esp+4], OFFSET FLAT:LC84
	mov	DWORD PTR [esp], OFFSET FLAT:LC2
	call	_purple_debug_info
LVL439:
	.loc 1 444 0
	mov	DWORD PTR [esp], 16
	call	_g_malloc0
LVL440:
	mov	DWORD PTR [esp+44], eax
LVL441:
	.loc 1 445 0
	mov	DWORD PTR [esp], edi
	call	_g_strdup
LVL442:
	mov	edx, DWORD PTR [esp+44]
	mov	DWORD PTR [edx], eax
	.loc 1 446 0
	mov	edx, DWORD PTR [esp+40]
	mov	DWORD PTR [esp], edx
	call	_g_strdup
LVL443:
	mov	edx, DWORD PTR [esp+44]
	mov	DWORD PTR [edx+4], eax
	.loc 1 447 0
	mov	DWORD PTR [esp], 0
	call	_time
LVL444:
	mov	edx, DWORD PTR [esp+44]
	mov	DWORD PTR [edx+8], eax
	.loc 1 448 0
	mov	DWORD PTR [edx+12], ebx
	.loc 1 450 0
	mov	DWORD PTR [esp+4], esi
	mov	eax, DWORD PTR _goffline_messages
	mov	DWORD PTR [esp], eax
	call	_g_hash_table_lookup
LVL445:
	.loc 1 451 0
	mov	edx, DWORD PTR [esp+44]
	mov	DWORD PTR [esp+4], edx
	mov	DWORD PTR [esp], eax
	call	_g_list_append
LVL446:
	mov	ebx, eax
LVL447:
	.loc 1 452 0
	mov	DWORD PTR [esp], esi
	call	_g_strdup
LVL448:
	mov	DWORD PTR [esp+8], ebx
	mov	DWORD PTR [esp+4], eax
	mov	eax, DWORD PTR _goffline_messages
	mov	DWORD PTR [esp], eax
	call	_g_hash_table_insert
LVL449:
	.loc 1 455 0
	mov	eax, 1
	jmp	L338
LVL450:
	.p2align 2,,3
L345:
LBE23:
LBB24:
	.loc 1 424 0
	mov	DWORD PTR [esp+4], OFFSET FLAT:LC82
	mov	DWORD PTR [esp], OFFSET FLAT:LC32
	call	_libintl_dgettext
LVL451:
	.loc 1 423 0
	mov	DWORD PTR [esp+4], esi
	mov	DWORD PTR [esp], eax
	call	_g_strdup_printf
LVL452:
	mov	ebx, eax
LVL453:
	.loc 1 425 0
	mov	DWORD PTR [esp+12], esi
	mov	DWORD PTR [esp+8], edi
	mov	DWORD PTR [esp+4], OFFSET FLAT:LC83
	mov	DWORD PTR [esp], OFFSET FLAT:LC2
	call	_purple_debug_info
LVL454:
	.loc 1 428 0
	mov	DWORD PTR [esp+8], ebx
	mov	eax, DWORD PTR [ebp+12]
	mov	DWORD PTR [esp+4], eax
	mov	DWORD PTR [esp], esi
	call	_purple_conv_present_error
LVL455:
	.loc 1 429 0
	mov	DWORD PTR [esp], ebx
	call	_g_free
LVL456:
	.loc 1 430 0
	xor	eax, eax
	jmp	L338
LVL457:
L346:
LBE24:
	.loc 1 456 0
	call	___stack_chk_fail
LVL458:
	.cfi_endproc
LFE112:
	.section .rdata,"dr"
	.align 4
LC85:
	.ascii "returning chat default setting 'room' = 'default'\12\0"
LC86:
	.ascii "default\0"
	.text
	.p2align 2,,3
	.def	_nullprpl_chat_info_defaults;	.scl	3;	.type	32;	.endef
_nullprpl_chat_info_defaults:
LFB109:
	.loc 1 349 0
	.cfi_startproc
LVL459:
	push	ebx
LCFI368:
	.cfi_def_cfa_offset 8
	.cfi_offset 3, -8
	sub	esp, 40
LCFI369:
	.cfi_def_cfa_offset 48
	.loc 1 349 0
	mov	eax, DWORD PTR ___stack_chk_guard
	mov	DWORD PTR [esp+28], eax
	xor	eax, eax
	.loc 1 352 0
	mov	DWORD PTR [esp+4], OFFSET FLAT:LC85
	mov	DWORD PTR [esp], OFFSET FLAT:LC2
	call	_purple_debug_info
LVL460:
	.loc 1 355 0
	mov	DWORD PTR [esp+12], OFFSET FLAT:_g_free
	mov	DWORD PTR [esp+8], 0
	mov	DWORD PTR [esp+4], OFFSET FLAT:_g_str_equal
	mov	DWORD PTR [esp], OFFSET FLAT:_g_str_hash
	call	_g_hash_table_new_full
LVL461:
	mov	ebx, eax
LVL462:
	.loc 1 356 0
	mov	DWORD PTR [esp], OFFSET FLAT:LC86
	call	_g_strdup
LVL463:
	mov	DWORD PTR [esp+8], eax
	mov	DWORD PTR [esp+4], OFFSET FLAT:LC22
	mov	DWORD PTR [esp], ebx
	call	_g_hash_table_insert
LVL464:
	.loc 1 358 0
	mov	edx, DWORD PTR [esp+28]
	xor	edx, DWORD PTR ___stack_chk_guard
	jne	L350
	mov	eax, ebx
	add	esp, 40
LCFI370:
	.cfi_remember_state
	.cfi_def_cfa_offset 8
	pop	ebx
LCFI371:
	.cfi_restore 3
	.cfi_def_cfa_offset 4
LVL465:
	ret
LVL466:
L350:
LCFI372:
	.cfi_restore_state
	call	___stack_chk_fail
LVL467:
	.cfi_endproc
LFE109:
	.section .rdata,"dr"
LC87:
	.ascii "logging in %s\12\0"
LC88:
	.ascii "Connecting\0"
LC89:
	.ascii "Connected\0"
	.align 4
LC90:
	.ascii "checking for offline messages for %s\12\0"
	.align 4
LC91:
	.ascii "delivering offline message to %s: %s\12\0"
	.text
	.p2align 2,,3
	.def	_nullprpl_login;	.scl	3;	.type	32;	.endef
_nullprpl_login:
LFB110:
	.loc 1 361 0
	.cfi_startproc
LVL468:
	push	ebp
LCFI373:
	.cfi_def_cfa_offset 8
	.cfi_offset 5, -8
	push	edi
LCFI374:
	.cfi_def_cfa_offset 12
	.cfi_offset 7, -12
	push	esi
LCFI375:
	.cfi_def_cfa_offset 16
	.cfi_offset 6, -16
	push	ebx
LCFI376:
	.cfi_def_cfa_offset 20
	.cfi_offset 3, -20
	sub	esp, 60
LCFI377:
	.cfi_def_cfa_offset 80
	mov	edi, DWORD PTR [esp+80]
	.loc 1 361 0
	mov	eax, DWORD PTR ___stack_chk_guard
	mov	DWORD PTR [esp+44], eax
	xor	eax, eax
	.loc 1 362 0
	mov	DWORD PTR [esp], edi
	call	_purple_account_get_connection
LVL469:
	mov	ebp, eax
LVL470:
	.loc 1 365 0
	mov	eax, DWORD PTR [edi]
LVL471:
	mov	DWORD PTR [esp+8], eax
	mov	DWORD PTR [esp+4], OFFSET FLAT:LC87
	mov	DWORD PTR [esp], OFFSET FLAT:LC2
	call	_purple_debug_info
LVL472:
	.loc 1 367 0
	mov	DWORD PTR [esp+4], OFFSET FLAT:LC88
	mov	DWORD PTR [esp], OFFSET FLAT:LC32
	call	_libintl_dgettext
LVL473:
	mov	DWORD PTR [esp+12], 2
	mov	DWORD PTR [esp+8], 0
	mov	DWORD PTR [esp+4], eax
	mov	DWORD PTR [esp], ebp
	call	_purple_connection_update_progress
LVL474:
	.loc 1 371 0
	mov	DWORD PTR [esp+4], OFFSET FLAT:LC89
	mov	DWORD PTR [esp], OFFSET FLAT:LC32
	call	_libintl_dgettext
LVL475:
	mov	DWORD PTR [esp+12], 2
	mov	DWORD PTR [esp+8], 1
	mov	DWORD PTR [esp+4], eax
	mov	DWORD PTR [esp], ebp
	call	_purple_connection_update_progress
LVL476:
	.loc 1 374 0
	mov	DWORD PTR [esp+4], 1
	mov	DWORD PTR [esp], ebp
	call	_purple_connection_set_state
LVL477:
	.loc 1 377 0
	xor	ecx, ecx
	mov	edx, ebp
	mov	eax, OFFSET FLAT:_discover_status
	call	_foreach_nullprpl_gc
LVL478:
	.loc 1 380 0
	xor	ecx, ecx
	mov	edx, ebp
	mov	eax, OFFSET FLAT:_report_status_change
	call	_foreach_nullprpl_gc
LVL479:
	.loc 1 383 0
	mov	eax, DWORD PTR [edi]
	mov	DWORD PTR [esp+8], eax
	mov	DWORD PTR [esp+4], OFFSET FLAT:LC90
	mov	DWORD PTR [esp], OFFSET FLAT:LC2
	call	_purple_debug_info
LVL480:
	.loc 1 385 0
	mov	eax, DWORD PTR [edi]
	mov	DWORD PTR [esp+4], eax
	mov	eax, DWORD PTR _goffline_messages
	mov	DWORD PTR [esp], eax
	call	_g_hash_table_lookup
LVL481:
	mov	esi, eax
LVL482:
	.loc 1 386 0
	test	eax, eax
	je	L354
LVL483:
	.p2align 2,,3
L356:
LBB25:
	.loc 1 387 0
	mov	ebx, DWORD PTR [esi]
LVL484:
	.loc 1 388 0
	mov	eax, DWORD PTR [ebx+4]
	mov	DWORD PTR [esp+12], eax
	mov	eax, DWORD PTR [edi]
	mov	DWORD PTR [esp+8], eax
	mov	DWORD PTR [esp+4], OFFSET FLAT:LC91
	mov	DWORD PTR [esp], OFFSET FLAT:LC2
	call	_purple_debug_info
LVL485:
	.loc 1 390 0
	mov	eax, DWORD PTR [ebx+8]
	mov	DWORD PTR [esp+16], eax
	mov	eax, DWORD PTR [ebx+12]
	mov	DWORD PTR [esp+12], eax
	mov	eax, DWORD PTR [ebx+4]
	mov	DWORD PTR [esp+8], eax
	mov	eax, DWORD PTR [ebx]
	mov	DWORD PTR [esp+4], eax
	mov	DWORD PTR [esp], ebp
	call	_serv_got_im
LVL486:
	.loc 1 392 0
	mov	esi, DWORD PTR [esi+4]
LVL487:
	.loc 1 394 0
	mov	eax, DWORD PTR [ebx]
	mov	DWORD PTR [esp], eax
	call	_g_free
LVL488:
	.loc 1 395 0
	mov	eax, DWORD PTR [ebx+4]
	mov	DWORD PTR [esp], eax
	call	_g_free
LVL489:
	.loc 1 396 0
	mov	DWORD PTR [esp], ebx
	call	_g_free
LVL490:
LBE25:
	.loc 1 386 0
	test	esi, esi
	jne	L356
LVL491:
L354:
	.loc 1 399 0
	mov	DWORD PTR [esp], 0
	call	_g_list_free
LVL492:
	.loc 1 400 0
	mov	DWORD PTR [esp+4], edi
	mov	eax, DWORD PTR _goffline_messages
	mov	DWORD PTR [esp], eax
	call	_g_hash_table_remove
LVL493:
	.loc 1 401 0
	mov	eax, DWORD PTR [esp+44]
	xor	eax, DWORD PTR ___stack_chk_guard
	jne	L360
	add	esp, 60
LCFI378:
	.cfi_remember_state
	.cfi_def_cfa_offset 20
	pop	ebx
LCFI379:
	.cfi_restore 3
	.cfi_def_cfa_offset 16
	pop	esi
LCFI380:
	.cfi_restore 6
	.cfi_def_cfa_offset 12
LVL494:
	pop	edi
LCFI381:
	.cfi_restore 7
	.cfi_def_cfa_offset 8
	pop	ebp
LCFI382:
	.cfi_restore 5
	.cfi_def_cfa_offset 4
LVL495:
	ret
LVL496:
L360:
LCFI383:
	.cfi_restore_state
	call	___stack_chk_fail
LVL497:
	.cfi_endproc
LFE110:
	.section .rdata,"dr"
	.align 4
LC92:
	.ascii "returning status types for %s: %s, %s, %s\12\0"
LC93:
	.ascii "Message\0"
	.text
	.p2align 2,,3
	.def	_nullprpl_status_types;	.scl	3;	.type	32;	.endef
_nullprpl_status_types:
LFB105:
	.loc 1 281 0
	.cfi_startproc
LVL498:
	push	esi
LCFI384:
	.cfi_def_cfa_offset 8
	.cfi_offset 6, -8
	push	ebx
LCFI385:
	.cfi_def_cfa_offset 12
	.cfi_offset 3, -12
	sub	esp, 68
LCFI386:
	.cfi_def_cfa_offset 80
	.loc 1 281 0
	mov	eax, DWORD PTR ___stack_chk_guard
	mov	DWORD PTR [esp+60], eax
	xor	eax, eax
LVL499:
	.loc 1 285 0
	mov	DWORD PTR [esp+20], OFFSET FLAT:LC62
	mov	DWORD PTR [esp+16], OFFSET FLAT:LC61
	mov	DWORD PTR [esp+12], OFFSET FLAT:LC60
	mov	eax, DWORD PTR [esp+80]
	mov	eax, DWORD PTR [eax]
	mov	DWORD PTR [esp+8], eax
	mov	DWORD PTR [esp+4], OFFSET FLAT:LC92
	mov	DWORD PTR [esp], OFFSET FLAT:LC2
	call	_purple_debug_info
LVL500:
	.loc 1 289 0
	mov	DWORD PTR [esp], 13
	call	_purple_value_new
LVL501:
	mov	ebx, eax
	.loc 1 291 0
	mov	DWORD PTR [esp+4], OFFSET FLAT:LC93
	mov	DWORD PTR [esp], OFFSET FLAT:LC32
	call	_libintl_dgettext
LVL502:
	.loc 1 289 0
	mov	DWORD PTR [esp+36], 0
	mov	DWORD PTR [esp+32], ebx
	mov	DWORD PTR [esp+28], eax
	mov	DWORD PTR [esp+24], OFFSET FLAT:LC59
	mov	DWORD PTR [esp+20], 0
	mov	DWORD PTR [esp+16], 1
	mov	DWORD PTR [esp+12], 1
	mov	DWORD PTR [esp+8], 0
	mov	DWORD PTR [esp+4], OFFSET FLAT:LC60
	mov	DWORD PTR [esp], 2
	call	_purple_status_type_new_with_attrs
LVL503:
	.loc 1 293 0
	mov	DWORD PTR [esp+4], eax
	mov	DWORD PTR [esp], 0
	call	_g_list_prepend
LVL504:
	mov	ebx, eax
LVL505:
	.loc 1 295 0
	mov	DWORD PTR [esp], 13
	call	_purple_value_new
LVL506:
	mov	esi, eax
	.loc 1 297 0
	mov	DWORD PTR [esp+4], OFFSET FLAT:LC93
	mov	DWORD PTR [esp], OFFSET FLAT:LC32
	call	_libintl_dgettext
LVL507:
	.loc 1 295 0
	mov	DWORD PTR [esp+36], 0
	mov	DWORD PTR [esp+32], esi
	mov	DWORD PTR [esp+28], eax
	mov	DWORD PTR [esp+24], OFFSET FLAT:LC59
	mov	DWORD PTR [esp+20], 0
	mov	DWORD PTR [esp+16], 1
	mov	DWORD PTR [esp+12], 1
	mov	DWORD PTR [esp+8], 0
	mov	DWORD PTR [esp+4], OFFSET FLAT:LC61
	mov	DWORD PTR [esp], 5
	call	_purple_status_type_new_with_attrs
LVL508:
	.loc 1 299 0
	mov	DWORD PTR [esp+4], eax
	mov	DWORD PTR [esp], ebx
	call	_g_list_prepend
LVL509:
	mov	ebx, eax
LVL510:
	.loc 1 301 0
	mov	DWORD PTR [esp], 13
	call	_purple_value_new
LVL511:
	mov	esi, eax
	.loc 1 303 0
	mov	DWORD PTR [esp+4], OFFSET FLAT:LC93
	mov	DWORD PTR [esp], OFFSET FLAT:LC32
	call	_libintl_dgettext
LVL512:
	.loc 1 301 0
	mov	DWORD PTR [esp+36], 0
	mov	DWORD PTR [esp+32], esi
	mov	DWORD PTR [esp+28], eax
	mov	DWORD PTR [esp+24], OFFSET FLAT:LC59
	mov	DWORD PTR [esp+20], 0
	mov	DWORD PTR [esp+16], 1
	mov	DWORD PTR [esp+12], 1
	mov	DWORD PTR [esp+8], 0
	mov	DWORD PTR [esp+4], OFFSET FLAT:LC62
	mov	DWORD PTR [esp], 1
	call	_purple_status_type_new_with_attrs
LVL513:
	.loc 1 305 0
	mov	DWORD PTR [esp+4], eax
	mov	DWORD PTR [esp], ebx
	call	_g_list_prepend
LVL514:
	.loc 1 307 0
	mov	edx, DWORD PTR [esp+60]
	xor	edx, DWORD PTR ___stack_chk_guard
	jne	L365
	mov	DWORD PTR [esp+80], eax
	.loc 1 308 0
	add	esp, 68
LCFI387:
	.cfi_remember_state
	.cfi_def_cfa_offset 12
	pop	ebx
LCFI388:
	.cfi_restore 3
	.cfi_def_cfa_offset 8
	pop	esi
LCFI389:
	.cfi_restore 6
	.cfi_def_cfa_offset 4
	.loc 1 307 0
	jmp	_g_list_reverse
LVL515:
L365:
LCFI390:
	.cfi_restore_state
	call	___stack_chk_fail
LVL516:
	.cfi_endproc
LFE105:
	.section .rdata,"dr"
	.align 4
LC94:
	.ascii "getting %s's status text for %s\12\0"
LC95:
	.ascii "%s: %s\0"
LC96:
	.ascii "%s's status text is %s\12\0"
LC97:
	.ascii "...but %s is not logged in\12\0"
LC98:
	.ascii "Not logged in\0"
	.text
	.p2align 2,,3
	.def	_nullprpl_status_text;	.scl	3;	.type	32;	.endef
_nullprpl_status_text:
LFB103:
	.loc 1 226 0
	.cfi_startproc
LVL517:
	push	edi
LCFI391:
	.cfi_def_cfa_offset 8
	.cfi_offset 7, -8
	push	esi
LCFI392:
	.cfi_def_cfa_offset 12
	.cfi_offset 6, -12
	push	ebx
LCFI393:
	.cfi_def_cfa_offset 16
	.cfi_offset 3, -16
	sub	esp, 48
LCFI394:
	.cfi_def_cfa_offset 64
	mov	ebx, DWORD PTR [esp+64]
	.loc 1 226 0
	mov	eax, DWORD PTR ___stack_chk_guard
	mov	DWORD PTR [esp+44], eax
	xor	eax, eax
	.loc 1 228 0
	mov	eax, DWORD PTR [ebx+52]
	.loc 1 227 0
	mov	eax, DWORD PTR [eax]
	mov	DWORD PTR [esp+12], eax
	mov	eax, DWORD PTR [ebx+32]
	mov	DWORD PTR [esp+8], eax
	mov	DWORD PTR [esp+4], OFFSET FLAT:LC94
	mov	DWORD PTR [esp], OFFSET FLAT:LC2
	call	_purple_debug_info
LVL518:
	.loc 1 230 0
	mov	eax, DWORD PTR [ebx+32]
	mov	DWORD PTR [esp+4], eax
	mov	eax, DWORD PTR [ebx+52]
	mov	DWORD PTR [esp], eax
	call	_purple_find_buddy
LVL519:
	test	eax, eax
	je	L367
LBB26:
	.loc 1 231 0
	mov	DWORD PTR [esp], ebx
	call	_purple_buddy_get_presence
LVL520:
	.loc 1 232 0
	mov	DWORD PTR [esp], eax
	call	_purple_presence_get_active_status
LVL521:
	mov	esi, eax
LVL522:
	.loc 1 233 0
	mov	DWORD PTR [esp], eax
	call	_purple_status_get_name
LVL523:
	mov	edi, eax
LVL524:
	.loc 1 234 0
	mov	DWORD PTR [esp+4], OFFSET FLAT:LC59
	mov	DWORD PTR [esp], esi
	call	_purple_status_get_attr_string
LVL525:
	.loc 1 237 0
	test	eax, eax
	je	L368
	.loc 1 237 0 is_stmt 0 discriminator 1
	cmp	BYTE PTR [eax], 0
	jne	L378
L368:
	.loc 1 240 0 is_stmt 1
	mov	DWORD PTR [esp], edi
	call	_g_strdup
LVL526:
L369:
	.loc 1 242 0
	mov	DWORD PTR [esp+12], eax
	mov	edx, DWORD PTR [ebx+32]
	mov	DWORD PTR [esp+8], edx
	mov	DWORD PTR [esp+4], OFFSET FLAT:LC96
	mov	DWORD PTR [esp], OFFSET FLAT:LC2
	mov	DWORD PTR [esp+28], eax
	call	_purple_debug_info
LVL527:
LBE26:
	.loc 1 249 0
	mov	eax, DWORD PTR [esp+28]
	mov	edx, DWORD PTR [esp+44]
	xor	edx, DWORD PTR ___stack_chk_guard
	jne	L376
	add	esp, 48
LCFI395:
	.cfi_remember_state
	.cfi_def_cfa_offset 16
	pop	ebx
LCFI396:
	.cfi_restore 3
	.cfi_def_cfa_offset 12
	pop	esi
LCFI397:
	.cfi_restore 6
	.cfi_def_cfa_offset 8
LVL528:
	pop	edi
LCFI398:
	.cfi_restore 7
	.cfi_def_cfa_offset 4
LVL529:
	ret
LVL530:
	.p2align 2,,3
L378:
LCFI399:
	.cfi_restore_state
LBB27:
	.loc 1 238 0
	mov	DWORD PTR [esp+8], eax
	mov	DWORD PTR [esp+4], edi
	mov	DWORD PTR [esp], OFFSET FLAT:LC95
	call	_g_strdup_printf
LVL531:
	jmp	L369
LVL532:
	.p2align 2,,3
L367:
LBE27:
	.loc 1 246 0
	mov	eax, DWORD PTR [ebx+32]
	mov	DWORD PTR [esp+8], eax
	mov	DWORD PTR [esp+4], OFFSET FLAT:LC97
	mov	DWORD PTR [esp], OFFSET FLAT:LC2
	call	_purple_debug_info
LVL533:
	.loc 1 247 0
	mov	eax, DWORD PTR [esp+44]
	xor	eax, DWORD PTR ___stack_chk_guard
	jne	L376
	mov	DWORD PTR [esp+64], OFFSET FLAT:LC98
	.loc 1 249 0
	add	esp, 48
LCFI400:
	.cfi_remember_state
	.cfi_def_cfa_offset 16
	pop	ebx
LCFI401:
	.cfi_restore 3
	.cfi_def_cfa_offset 12
	pop	esi
LCFI402:
	.cfi_restore 6
	.cfi_def_cfa_offset 8
	pop	edi
LCFI403:
	.cfi_restore 7
	.cfi_def_cfa_offset 4
	.loc 1 247 0
	jmp	_g_strdup
LVL534:
L376:
LCFI404:
	.cfi_restore_state
	.loc 1 249 0
	call	___stack_chk_fail
LVL535:
	.cfi_endproc
LFE103:
	.section .rdata,"dr"
LC99:
	.ascii "full\0"
LC100:
	.ascii "short\0"
LC101:
	.ascii "User info\0"
LC102:
	.ascii "not logged in\0"
LC103:
	.ascii "showing %s tooltip for %s\12\0"
	.text
	.p2align 2,,3
	.def	_nullprpl_tooltip_text;	.scl	3;	.type	32;	.endef
_nullprpl_tooltip_text:
LFB104:
	.loc 1 253 0
	.cfi_startproc
LVL536:
	push	ebp
LCFI405:
	.cfi_def_cfa_offset 8
	.cfi_offset 5, -8
	push	edi
LCFI406:
	.cfi_def_cfa_offset 12
	.cfi_offset 7, -12
	push	esi
LCFI407:
	.cfi_def_cfa_offset 16
	.cfi_offset 6, -16
	push	ebx
LCFI408:
	.cfi_def_cfa_offset 20
	.cfi_offset 3, -20
	sub	esp, 60
LCFI409:
	.cfi_def_cfa_offset 80
	mov	ebx, DWORD PTR [esp+80]
	mov	edi, DWORD PTR [esp+84]
	mov	ebp, DWORD PTR [esp+88]
	.loc 1 253 0
	mov	eax, DWORD PTR ___stack_chk_guard
	mov	DWORD PTR [esp+44], eax
	xor	eax, eax
	.loc 1 254 0
	mov	eax, DWORD PTR [ebx+32]
	call	_get_nullprpl_gc
LVL537:
	.loc 1 256 0
	test	eax, eax
	je	L380
LBB28:
	.loc 1 258 0
	mov	DWORD PTR [esp], ebx
	mov	DWORD PTR [esp+24], eax
	call	_purple_buddy_get_presence
LVL538:
	.loc 1 259 0
	mov	DWORD PTR [esp], eax
	call	_purple_presence_get_active_status
LVL539:
	.loc 1 260 0
	mov	DWORD PTR [esp], ebx
	mov	DWORD PTR [esp+28], eax
	call	_nullprpl_status_text
LVL540:
	mov	esi, eax
LVL541:
	.loc 1 261 0
	mov	ecx, DWORD PTR [esp+28]
	mov	DWORD PTR [esp], ecx
	call	_purple_status_get_name
LVL542:
	mov	DWORD PTR [esp+8], esi
	mov	DWORD PTR [esp+4], eax
	mov	DWORD PTR [esp], edi
	call	_purple_notify_user_info_add_pair
LVL543:
	.loc 1 263 0
	mov	DWORD PTR [esp], esi
	call	_g_free
LVL544:
	.loc 1 265 0
	test	ebp, ebp
	mov	edx, DWORD PTR [esp+24]
	jne	L392
LBE28:
	.loc 1 276 0
	mov	edx, DWORD PTR [ebx+32]
LVL545:
L384:
	.loc 1 276 0 is_stmt 0 discriminator 2
	mov	eax, OFFSET FLAT:LC100
L383:
	.loc 1 276 0 discriminator 3
	mov	DWORD PTR [esp+12], edx
	mov	DWORD PTR [esp+8], eax
	mov	DWORD PTR [esp+4], OFFSET FLAT:LC103
	mov	DWORD PTR [esp], OFFSET FLAT:LC2
	call	_purple_debug_info
LVL546:
	.loc 1 278 0 is_stmt 1 discriminator 3
	mov	eax, DWORD PTR [esp+44]
	xor	eax, DWORD PTR ___stack_chk_guard
	jne	L393
	.loc 1 278 0 is_stmt 0
	add	esp, 60
LCFI410:
	.cfi_remember_state
	.cfi_def_cfa_offset 20
	pop	ebx
LCFI411:
	.cfi_restore 3
	.cfi_def_cfa_offset 16
	pop	esi
LCFI412:
	.cfi_restore 6
	.cfi_def_cfa_offset 12
	pop	edi
LCFI413:
	.cfi_restore 7
	.cfi_def_cfa_offset 8
	pop	ebp
LCFI414:
	.cfi_restore 5
	.cfi_def_cfa_offset 4
	ret
LVL547:
	.p2align 2,,3
L392:
LCFI415:
	.cfi_restore_state
LBB30:
LBB29:
	.loc 1 266 0 is_stmt 1
	mov	eax, DWORD PTR [edx+12]
	mov	DWORD PTR [esp], eax
	call	_purple_account_get_user_info
LVL548:
	mov	esi, eax
LVL549:
	.loc 1 267 0
	test	eax, eax
	je	L382
	.loc 1 268 0
	mov	DWORD PTR [esp+4], OFFSET FLAT:LC101
	mov	DWORD PTR [esp], OFFSET FLAT:LC32
	call	_libintl_dgettext
LVL550:
	mov	DWORD PTR [esp+8], esi
	mov	DWORD PTR [esp+4], eax
	mov	DWORD PTR [esp], edi
	call	_purple_notify_user_info_add_pair
LVL551:
L382:
LBE29:
LBE30:
	.loc 1 276 0
	mov	edx, DWORD PTR [ebx+32]
	mov	eax, OFFSET FLAT:LC99
	jmp	L383
LVL552:
	.p2align 2,,3
L380:
	.loc 1 273 0
	mov	DWORD PTR [esp+4], OFFSET FLAT:LC102
	mov	DWORD PTR [esp], OFFSET FLAT:LC32
	call	_libintl_dgettext
LVL553:
	mov	esi, eax
	mov	DWORD PTR [esp+4], OFFSET FLAT:LC101
	mov	DWORD PTR [esp], OFFSET FLAT:LC32
	call	_libintl_dgettext
LVL554:
	mov	DWORD PTR [esp+8], esi
	mov	DWORD PTR [esp+4], eax
	mov	DWORD PTR [esp], edi
	call	_purple_notify_user_info_add_pair
LVL555:
	.loc 1 276 0
	mov	edx, DWORD PTR [ebx+32]
	mov	eax, OFFSET FLAT:LC99
	test	ebp, ebp
	jne	L383
	jmp	L384
L393:
	.loc 1 278 0
	call	___stack_chk_fail
LVL556:
	.cfi_endproc
LFE104:
	.section .rdata,"dr"
LC104:
	.ascii "Set User Info...\0"
	.text
	.p2align 2,,3
	.def	_nullprpl_actions;	.scl	3;	.type	32;	.endef
_nullprpl_actions:
LFB101:
	.loc 1 211 0
	.cfi_startproc
LVL557:
	sub	esp, 44
LCFI416:
	.cfi_def_cfa_offset 48
	.loc 1 211 0
	mov	eax, DWORD PTR ___stack_chk_guard
	mov	DWORD PTR [esp+28], eax
	xor	eax, eax
	.loc 1 213 0
	mov	DWORD PTR [esp+4], OFFSET FLAT:LC104
	mov	DWORD PTR [esp], OFFSET FLAT:LC32
	call	_libintl_dgettext
LVL558:
	.loc 1 212 0
	mov	DWORD PTR [esp+4], OFFSET FLAT:_nullprpl_input_user_info
	mov	DWORD PTR [esp], eax
	call	_purple_plugin_action_new
LVL559:
	.loc 1 214 0
	mov	edx, DWORD PTR [esp+28]
	xor	edx, DWORD PTR ___stack_chk_guard
	jne	L398
	mov	DWORD PTR [esp+52], eax
	mov	DWORD PTR [esp+48], 0
	.loc 1 215 0
	add	esp, 44
LCFI417:
	.cfi_remember_state
	.cfi_def_cfa_offset 4
	.loc 1 214 0
	jmp	_g_list_append
LVL560:
L398:
LCFI418:
	.cfi_restore_state
	call	___stack_chk_fail
LVL561:
	.cfi_endproc
LFE101:
	.section .rdata,"dr"
	.align 4
LC105:
	.ascii "showing 'Set User Info' dialog for %s\12\0"
	.text
	.p2align 2,,3
	.def	_nullprpl_input_user_info;	.scl	3;	.type	32;	.endef
_nullprpl_input_user_info:
LFB100:
	.loc 1 198 0
	.cfi_startproc
LVL562:
	push	ebx
LCFI419:
	.cfi_def_cfa_offset 8
	.cfi_offset 3, -8
	sub	esp, 40
LCFI420:
	.cfi_def_cfa_offset 48
	.loc 1 198 0
	mov	eax, DWORD PTR ___stack_chk_guard
	mov	DWORD PTR [esp+28], eax
	xor	eax, eax
LVL563:
	.loc 1 200 0
	mov	eax, DWORD PTR [esp+48]
	mov	eax, DWORD PTR [eax+12]
	mov	DWORD PTR [esp], eax
	call	_purple_connection_get_account
LVL564:
	mov	ebx, eax
LVL565:
	.loc 1 201 0
	mov	eax, DWORD PTR [eax]
LVL566:
	mov	DWORD PTR [esp+8], eax
	mov	DWORD PTR [esp+4], OFFSET FLAT:LC105
	mov	DWORD PTR [esp], OFFSET FLAT:LC2
	call	_purple_debug_info
LVL567:
	.loc 1 204 0
	mov	eax, DWORD PTR [esp+28]
	xor	eax, DWORD PTR ___stack_chk_guard
	jne	L403
	mov	DWORD PTR [esp+48], ebx
	.loc 1 205 0
	add	esp, 40
LCFI421:
	.cfi_remember_state
	.cfi_def_cfa_offset 8
	pop	ebx
LCFI422:
	.cfi_restore 3
	.cfi_def_cfa_offset 4
LVL568:
	.loc 1 204 0
	jmp	_purple_account_request_change_user_info
LVL569:
L403:
LCFI423:
	.cfi_restore_state
	call	___stack_chk_fail
LVL570:
	.cfi_endproc
LFE100:
	.section .rdata,"dr"
LC106:
	.ascii "Whisper is missing recipient.\0"
LC107:
	.ascii "Whisper is missing message.\0"
	.align 4
LC108:
	.ascii "%s whispers to %s in chat room %s: %s\12\0"
LC109:
	.ascii "%s is not in this chat room.\0"
LC110:
	.ascii "%s (to %s)\0"
	.text
	.p2align 2,,3
	.def	_send_whisper;	.scl	3;	.type	32;	.endef
_send_whisper:
LFB137:
	.loc 1 766 0
	.cfi_startproc
LVL571:
	push	ebp
LCFI424:
	.cfi_def_cfa_offset 8
	.cfi_offset 5, -8
	push	edi
LCFI425:
	.cfi_def_cfa_offset 12
	.cfi_offset 7, -12
	push	esi
LCFI426:
	.cfi_def_cfa_offset 16
	.cfi_offset 6, -16
	push	ebx
LCFI427:
	.cfi_def_cfa_offset 20
	.cfi_offset 3, -20
	sub	esp, 76
LCFI428:
	.cfi_def_cfa_offset 96
	mov	edi, DWORD PTR [esp+96]
	mov	eax, DWORD PTR [esp+104]
	mov	esi, DWORD PTR [esp+108]
	.loc 1 766 0
	mov	edx, DWORD PTR ___stack_chk_guard
	mov	DWORD PTR [esp+60], edx
	xor	edx, edx
	.loc 1 775 0
	mov	ebp, DWORD PTR [eax]
LVL572:
	.loc 1 776 0
	mov	ebx, DWORD PTR [eax+4]
LVL573:
	.loc 1 778 0
	test	ebp, ebp
	je	L405
	.loc 1 778 0 is_stmt 0 discriminator 1
	cmp	BYTE PTR [ebp+0], 0
	je	L405
	.loc 1 781 0 is_stmt 1
	test	ebx, ebx
	je	L408
	.loc 1 781 0 is_stmt 0 discriminator 1
	cmp	BYTE PTR [ebx], 0
	jne	L409
L408:
	.loc 1 782 0 is_stmt 1
	mov	DWORD PTR [esp+4], OFFSET FLAT:LC107
L420:
	mov	DWORD PTR [esp], OFFSET FLAT:LC32
	call	_libintl_dgettext
LVL574:
	mov	DWORD PTR [esp], eax
	call	_g_strdup
LVL575:
	mov	DWORD PTR [esi], eax
	.loc 1 783 0
	mov	eax, 1
L407:
	.loc 1 814 0
	mov	edx, DWORD PTR [esp+60]
	xor	edx, DWORD PTR ___stack_chk_guard
	jne	L422
	add	esp, 76
LCFI429:
	.cfi_remember_state
	.cfi_def_cfa_offset 20
	pop	ebx
LCFI430:
	.cfi_restore 3
	.cfi_def_cfa_offset 16
LVL576:
	pop	esi
LCFI431:
	.cfi_restore 6
	.cfi_def_cfa_offset 12
	pop	edi
LCFI432:
	.cfi_restore 7
	.cfi_def_cfa_offset 8
	pop	ebp
LCFI433:
	.cfi_restore 5
	.cfi_def_cfa_offset 4
LVL577:
	ret
LVL578:
	.p2align 2,,3
L409:
LCFI434:
	.cfi_restore_state
	.loc 1 786 0
	mov	eax, DWORD PTR [edi+4]
	mov	eax, DWORD PTR [eax]
	mov	DWORD PTR [esp+40], eax
LVL579:
	.loc 1 787 0
	mov	DWORD PTR [esp+20], ebx
	mov	eax, DWORD PTR [edi+8]
LVL580:
	mov	DWORD PTR [esp+16], eax
	mov	DWORD PTR [esp+12], ebp
	mov	edx, DWORD PTR [esp+40]
	mov	DWORD PTR [esp+8], edx
	mov	DWORD PTR [esp+4], OFFSET FLAT:LC108
	mov	DWORD PTR [esp], OFFSET FLAT:LC2
	call	_purple_debug_info
LVL581:
	.loc 1 790 0
	mov	DWORD PTR [esp], edi
	call	_purple_conversation_get_chat_data
LVL582:
	mov	edi, eax
LVL583:
	.loc 1 791 0
	mov	DWORD PTR [esp+4], ebp
	mov	DWORD PTR [esp], eax
	call	_purple_conv_chat_cb_find
LVL584:
	mov	DWORD PTR [esp+44], eax
LVL585:
	.loc 1 792 0
	mov	eax, ebp
LVL586:
	call	_get_nullprpl_gc
LVL587:
	mov	edx, eax
LVL588:
	.loc 1 794 0
	mov	eax, DWORD PTR [esp+44]
LVL589:
	test	eax, eax
	je	L423
	.loc 1 798 0
	test	edx, edx
	je	L424
LBB31:
	.loc 1 803 0
	mov	DWORD PTR [esp+8], ebp
	mov	DWORD PTR [esp+4], ebx
	mov	DWORD PTR [esp], OFFSET FLAT:LC110
	mov	DWORD PTR [esp+36], edx
	call	_g_strdup_printf
LVL590:
	mov	esi, eax
LVL591:
	.loc 1 804 0
	mov	DWORD PTR [esp], 0
	call	_time
LVL592:
	mov	DWORD PTR [esp+16], eax
	mov	DWORD PTR [esp+12], 129
	mov	DWORD PTR [esp+8], esi
	mov	eax, DWORD PTR [esp+40]
	mov	DWORD PTR [esp+4], eax
	mov	DWORD PTR [esp], edi
	call	_purple_conv_chat_write
LVL593:
	.loc 1 807 0
	mov	DWORD PTR [esp], esi
	call	_g_free
LVL594:
	.loc 1 810 0
	mov	DWORD PTR [esp+12], ebx
	mov	eax, DWORD PTR [esp+40]
	mov	DWORD PTR [esp+8], eax
	mov	eax, DWORD PTR [edi+20]
	mov	DWORD PTR [esp+4], eax
	mov	edx, DWORD PTR [esp+36]
	mov	DWORD PTR [esp], edx
	call	_serv_chat_whisper
LVL595:
	.loc 1 812 0
	xor	eax, eax
	jmp	L407
LVL596:
	.p2align 2,,3
L405:
LBE31:
	.loc 1 779 0
	mov	DWORD PTR [esp+4], OFFSET FLAT:LC106
	jmp	L420
LVL597:
	.p2align 2,,3
L424:
	.loc 1 799 0
	mov	DWORD PTR [esp+4], OFFSET FLAT:LC109
L421:
	mov	DWORD PTR [esp], OFFSET FLAT:LC32
	call	_libintl_dgettext
LVL598:
	mov	DWORD PTR [esp+4], ebp
	mov	DWORD PTR [esp], eax
	call	_g_strdup_printf
LVL599:
	mov	DWORD PTR [esi], eax
	.loc 1 800 0
	mov	eax, 1
	jmp	L407
LVL600:
L423:
	.loc 1 796 0
	mov	DWORD PTR [esp+4], OFFSET FLAT:LC72
	jmp	L421
LVL601:
L422:
	.loc 1 814 0
	call	___stack_chk_fail
LVL602:
	.cfi_endproc
LFE137:
	.p2align 2,,3
	.def	_call_if_nullprpl;	.scl	3;	.type	32;	.endef
_call_if_nullprpl:
LFB94:
	.loc 1 112 0
	.cfi_startproc
LVL603:
	push	edi
LCFI435:
	.cfi_def_cfa_offset 8
	.cfi_offset 7, -8
	push	esi
LCFI436:
	.cfi_def_cfa_offset 12
	.cfi_offset 6, -12
	push	ebx
LCFI437:
	.cfi_def_cfa_offset 16
	.cfi_offset 3, -16
	sub	esp, 32
LCFI438:
	.cfi_def_cfa_offset 48
	mov	eax, DWORD PTR [esp+48]
	mov	edx, DWORD PTR [esp+52]
	.loc 1 112 0
	mov	ecx, DWORD PTR ___stack_chk_guard
	mov	DWORD PTR [esp+28], ecx
	xor	ecx, ecx
LVL604:
	.loc 1 116 0
	mov	ecx, DWORD PTR [eax+12]
	mov	esi, DWORD PTR [ecx+24]
	mov	edi, OFFSET FLAT:LC37
	mov	ecx, 10
	repe cmpsb
	jne	L425
LVL605:
LBB34:
LBB35:
	.loc 1 117 0
	mov	ecx, DWORD PTR [edx+8]
	mov	DWORD PTR [esp+8], ecx
	mov	DWORD PTR [esp+4], eax
	mov	eax, DWORD PTR [edx+4]
LVL606:
	mov	DWORD PTR [esp], eax
	call	[DWORD PTR [edx]]
LVL607:
L425:
LBE35:
LBE34:
	.loc 1 118 0
	mov	eax, DWORD PTR [esp+28]
	xor	eax, DWORD PTR ___stack_chk_guard
	jne	L429
	add	esp, 32
LCFI439:
	.cfi_remember_state
	.cfi_def_cfa_offset 16
	pop	ebx
LCFI440:
	.cfi_restore 3
	.cfi_def_cfa_offset 12
	pop	esi
LCFI441:
	.cfi_restore 6
	.cfi_def_cfa_offset 8
	pop	edi
LCFI442:
	.cfi_restore 7
	.cfi_def_cfa_offset 4
	ret
L429:
LCFI443:
	.cfi_restore_state
	call	___stack_chk_fail
LVL608:
	.cfi_endproc
LFE94:
	.section .rdata,"dr"
	.align 4
LC111:
	.ascii "providing buddy list context menu item\12\0"
LC112:
	.ascii "Nullprpl example menu item\0"
	.text
	.p2align 2,,3
	.def	_nullprpl_blist_node_menu;	.scl	3;	.type	32;	.endef
_nullprpl_blist_node_menu:
LFB107:
	.loc 1 320 0
	.cfi_startproc
LVL609:
	push	ebx
LCFI444:
	.cfi_def_cfa_offset 8
	.cfi_offset 3, -8
	sub	esp, 40
LCFI445:
	.cfi_def_cfa_offset 48
	mov	ebx, DWORD PTR [esp+48]
	.loc 1 320 0
	mov	eax, DWORD PTR ___stack_chk_guard
	mov	DWORD PTR [esp+28], eax
	xor	eax, eax
	.loc 1 321 0
	mov	DWORD PTR [esp+4], OFFSET FLAT:LC111
	mov	DWORD PTR [esp], OFFSET FLAT:LC2
	call	_purple_debug_info
LVL610:
	.loc 1 323 0
	mov	DWORD PTR [esp], ebx
	call	_purple_blist_node_get_type
LVL611:
	cmp	eax, 2
	jne	L433
LBB40:
LBB41:
LBB42:
	.loc 1 325 0
	mov	DWORD PTR [esp+4], OFFSET FLAT:LC112
	mov	DWORD PTR [esp], OFFSET FLAT:LC32
	call	_libintl_dgettext
LVL612:
	.loc 1 324 0
	mov	DWORD PTR [esp+12], 0
	mov	DWORD PTR [esp+8], 0
	mov	DWORD PTR [esp+4], OFFSET FLAT:_blist_example_menu_item
	mov	DWORD PTR [esp], eax
	call	_purple_menu_action_new
LVL613:
	.loc 1 329 0
	mov	DWORD PTR [esp+4], eax
	mov	DWORD PTR [esp], 0
	call	_g_list_append
LVL614:
L431:
LBE42:
LBE41:
LBE40:
	.loc 1 333 0
	mov	edx, DWORD PTR [esp+28]
	xor	edx, DWORD PTR ___stack_chk_guard
	jne	L435
	add	esp, 40
LCFI446:
	.cfi_remember_state
	.cfi_def_cfa_offset 8
	pop	ebx
LCFI447:
	.cfi_restore 3
	.cfi_def_cfa_offset 4
	ret
	.p2align 2,,3
L433:
LCFI448:
	.cfi_restore_state
	.loc 1 331 0
	xor	eax, eax
	jmp	L431
L435:
	.loc 1 333 0
	call	___stack_chk_fail
LVL615:
	.cfi_endproc
LFE107:
	.section .rdata,"dr"
LC113:
	.ascii "Example user split\0"
LC114:
	.ascii "Example option\0"
LC115:
	.ascii "example\0"
LC116:
	.ascii "starting up\12\0"
	.align 4
LC117:
	.ascii "msg &lt;username&gt; &lt;message&gt;: send a private message, aka a whisper\0"
LC118:
	.ascii "ws\0"
LC119:
	.ascii "msg\0"
	.text
	.p2align 2,,3
	.globl	_purple_init_plugin
	.def	_purple_init_plugin;	.scl	2;	.type	32;	.endef
_purple_init_plugin:
LFB160:
	.loc 1 1201 0
	.cfi_startproc
LVL616:
	push	edi
LCFI449:
	.cfi_def_cfa_offset 8
	.cfi_offset 7, -8
	push	esi
LCFI450:
	.cfi_def_cfa_offset 12
	.cfi_offset 6, -12
	push	ebx
LCFI451:
	.cfi_def_cfa_offset 16
	.cfi_offset 3, -16
	sub	esp, 48
LCFI452:
	.cfi_def_cfa_offset 64
	mov	ebx, DWORD PTR [esp+64]
	.loc 1 1201 0
	mov	eax, DWORD PTR ___stack_chk_guard
	mov	DWORD PTR [esp+44], eax
	xor	eax, eax
	mov	DWORD PTR [ebx+16], OFFSET FLAT:_info
LVL617:
LBB45:
LBB46:
	.loc 1 1134 0
	mov	DWORD PTR [esp+4], OFFSET FLAT:LC113
	mov	DWORD PTR [esp], OFFSET FLAT:LC32
	call	_libintl_dgettext
LVL618:
	.loc 1 1133 0
	mov	DWORD PTR [esp+8], 64
	mov	DWORD PTR [esp+4], OFFSET FLAT:LC86
	mov	DWORD PTR [esp], eax
	call	_purple_account_user_split_new
LVL619:
	mov	edi, eax
LVL620:
	.loc 1 1138 0
	mov	DWORD PTR [esp+4], OFFSET FLAT:LC114
	mov	DWORD PTR [esp], OFFSET FLAT:LC32
	call	_libintl_dgettext
LVL621:
	.loc 1 1137 0
	mov	DWORD PTR [esp+8], OFFSET FLAT:LC86
	mov	DWORD PTR [esp+4], OFFSET FLAT:LC115
	mov	DWORD PTR [esp], eax
	call	_purple_account_option_string_new
LVL622:
	mov	esi, eax
LVL623:
	.loc 1 1142 0
	mov	DWORD PTR [esp+4], OFFSET FLAT:LC116
	mov	DWORD PTR [esp], OFFSET FLAT:LC2
	call	_purple_debug_info
LVL624:
	.loc 1 1144 0
	mov	DWORD PTR [esp+4], edi
	mov	DWORD PTR [esp], 0
	call	_g_list_append
LVL625:
	mov	DWORD PTR _prpl_info+4, eax
	.loc 1 1145 0
	mov	DWORD PTR [esp+4], esi
	mov	DWORD PTR [esp], 0
	call	_g_list_append
LVL626:
	mov	DWORD PTR _prpl_info+8, eax
	.loc 1 1148 0
	mov	DWORD PTR [esp+28], 0
	mov	DWORD PTR [esp+24], OFFSET FLAT:LC117
	mov	DWORD PTR [esp+20], OFFSET FLAT:_send_whisper
	mov	DWORD PTR [esp+16], OFFSET FLAT:LC37
	mov	DWORD PTR [esp+12], 2
	mov	DWORD PTR [esp+8], 1000
	mov	DWORD PTR [esp+4], OFFSET FLAT:LC118
	mov	DWORD PTR [esp], OFFSET FLAT:LC119
	call	_purple_cmd_register
LVL627:
	.loc 1 1158 0
	mov	DWORD PTR [esp+12], 0
	mov	DWORD PTR [esp+8], OFFSET FLAT:_g_free
	mov	DWORD PTR [esp+4], OFFSET FLAT:_g_str_equal
	mov	DWORD PTR [esp], OFFSET FLAT:_g_str_hash
	call	_g_hash_table_new_full
LVL628:
	mov	DWORD PTR _goffline_messages, eax
	.loc 1 1163 0
	mov	DWORD PTR __null_protocol, ebx
LBE46:
LBE45:
	.loc 1 1201 0
	mov	eax, DWORD PTR [esp+44]
	xor	eax, DWORD PTR ___stack_chk_guard
	jne	L440
	mov	DWORD PTR [esp+64], ebx
	add	esp, 48
LCFI453:
	.cfi_remember_state
	.cfi_def_cfa_offset 16
	pop	ebx
LCFI454:
	.cfi_restore 3
	.cfi_def_cfa_offset 12
LVL629:
	pop	esi
LCFI455:
	.cfi_restore 6
	.cfi_def_cfa_offset 8
LVL630:
	pop	edi
LCFI456:
	.cfi_restore 7
	.cfi_def_cfa_offset 4
LVL631:
	jmp	_purple_plugin_register
LVL632:
L440:
LCFI457:
	.cfi_restore_state
	call	___stack_chk_fail
LVL633:
	.cfi_endproc
LFE160:
	.globl	_goffline_messages
	.bss
	.align 4
_goffline_messages:
	.space 4
	.section .rdata,"dr"
LC120:
	.ascii "Null - Testing Plugin\0"
LC121:
	.ascii "2.10.11\0"
LC122:
	.ascii "Null Protocol Plugin\0"
LC123:
	.ascii "http://pidgin.im/\0"
	.data
	.align 32
_info:
	.long	5
	.long	2
	.long	10
	.long	2
	.long	0
	.long	0
	.long	0
	.long	0
	.long	LC37
	.long	LC120
	.long	LC121
	.long	LC122
	.long	LC122
	.long	0
	.long	LC123
	.long	0
	.long	0
	.long	_nullprpl_destroy
	.long	0
	.long	_prpl_info
	.long	0
	.long	_nullprpl_actions
	.long	0
	.long	0
	.long	0
	.long	0
	.section .rdata,"dr"
LC124:
	.ascii "png,jpg,gif\0"
	.data
	.align 32
_prpl_info:
	.long	24
	.long	0
	.long	0
	.long	LC124
	.long	0
	.long	0
	.long	128
	.long	128
	.long	10000
	.long	1
	.long	_nullprpl_list_icon
	.long	0
	.long	_nullprpl_status_text
	.long	_nullprpl_tooltip_text
	.long	_nullprpl_status_types
	.long	_nullprpl_blist_node_menu
	.long	_nullprpl_chat_info
	.long	_nullprpl_chat_info_defaults
	.long	_nullprpl_login
	.long	_nullprpl_close
	.long	_nullprpl_send_im
	.long	_nullprpl_set_info
	.long	_nullprpl_send_typing
	.long	_nullprpl_get_info
	.long	_nullprpl_set_status
	.long	_nullprpl_set_idle
	.long	_nullprpl_change_passwd
	.long	_nullprpl_add_buddy
	.long	_nullprpl_add_buddies
	.long	_nullprpl_remove_buddy
	.long	_nullprpl_remove_buddies
	.long	_nullprpl_add_permit
	.long	_nullprpl_add_deny
	.long	_nullprpl_rem_permit
	.long	_nullprpl_rem_deny
	.long	_nullprpl_set_permit_deny
	.long	_nullprpl_join_chat
	.long	_nullprpl_reject_chat
	.long	_nullprpl_get_chat_name
	.long	_nullprpl_chat_invite
	.long	_nullprpl_chat_leave
	.long	_nullprpl_chat_whisper
	.long	_nullprpl_chat_send
	.long	0
	.long	_nullprpl_register_user
	.long	_nullprpl_get_cb_info
	.long	0
	.long	_nullprpl_alias_buddy
	.long	_nullprpl_group_buddy
	.long	_nullprpl_rename_group
	.long	0
	.long	_nullprpl_convo_closed
	.long	_nullprpl_normalize
	.long	_nullprpl_set_buddy_icon
	.long	_nullprpl_remove_group
	.long	0
	.long	_nullprpl_set_chat_topic
	.long	0
	.long	_nullprpl_roomlist_get_list
	.long	_nullprpl_roomlist_cancel
	.long	_nullprpl_roomlist_expand_category
	.long	_nullprpl_can_receive_file
	.long	0
	.long	0
	.long	_nullprpl_offline_message
	.long	0
	.long	0
	.long	0
	.long	0
	.long	0
	.long	0
	.long	320
	.long	0
	.long	0
	.long	0
	.long	0
	.long	0
	.long	0
	.long	0
	.long	0
	.section .rdata,"dr"
LC125:
	.ascii "is not typing\0"
LC126:
	.ascii "is typing\0"
LC127:
	.ascii "stopped typing momentarily\0"
	.align 4
_CSWTCH.19:
	.long	LC125
	.long	LC126
	.long	LC127
.lcomm __null_protocol,4,4
	.text
Letext0:
	.file 2 "c:/workspace/pidgin-devel/win32-dev/mingw-4.7.2/bin/../lib/gcc/mingw32/4.7.2/include/stddef.h"
	.file 3 "c:/workspace/pidgin-devel/win32-dev/mingw-4.7.2/bin/../lib/gcc/mingw32/4.7.2/../../../../include/time.h"
	.file 4 "../../../../win32-dev/gtk_2_0-2.14/lib/glib-2.0/include/glibconfig.h"
	.file 5 "../../../../win32-dev/gtk_2_0-2.14/include/glib-2.0/glib/gtypes.h"
	.file 6 "../../../../win32-dev/gtk_2_0-2.14/include/glib-2.0/glib/glist.h"
	.file 7 "../../../../win32-dev/gtk_2_0-2.14/include/glib-2.0/glib/ghash.h"
	.file 8 "../../../../win32-dev/gtk_2_0-2.14/include/glib-2.0/glib/gslist.h"
	.file 9 "../../../../win32-dev/gtk_2_0-2.14/include/glib-2.0/glib/gmain.h"
	.file 10 "c:/workspace/pidgin-devel/win32-dev/mingw-4.7.2/bin/../lib/gcc/mingw32/4.7.2/../../../../include/stdio.h"
	.file 11 "../../../libpurple/account.h"
	.file 12 "../../../libpurple/connection.h"
	.file 13 "../../../libpurple/value.h"
	.file 14 "../../../libpurple/signals.h"
	.file 15 "../../../libpurple/plugin.h"
	.file 16 "../../../libpurple/pluginpref.h"
	.file 17 "c:/workspace/pidgin-devel/win32-dev/mingw-4.7.2/bin/../lib/gcc/mingw32/4.7.2/../../../../include/wtypes.h"
	.file 18 "../../../libpurple/prefs.h"
	.file 19 "../../../libpurple/status.h"
	.file 20 "../../../libpurple/blist.h"
	.file 21 "../../../libpurple/buddyicon.h"
	.file 22 "../../../libpurple/imgstore.h"
	.file 23 "../../../libpurple/prpl.h"
	.file 24 "../../../libpurple/conversation.h"
	.file 25 "../../../libpurple/log.h"
	.file 26 "../../../libpurple/ft.h"
	.file 27 "../../../libpurple/media/enum-types.h"
	.file 28 "../../../libpurple/media/../util.h"
	.file 29 "../../../libpurple/media/../notify.h"
	.file 30 "../../../libpurple/proxy.h"
	.file 31 "../../../libpurple/roomlist.h"
	.file 32 "../../../libpurple/whiteboard.h"
	.file 33 "../../../libpurple/privacy.h"
	.file 34 "../../../libpurple/accountopt.h"
	.file 35 "../../../libpurple/cmds.h"
	.file 36 "c:/workspace/pidgin-devel/win32-dev/mingw-4.7.2/bin/../lib/gcc/mingw32/4.7.2/../../../../include/ctype.h"
	.file 37 "../../../libpurple/debug.h"
	.file 38 "../../../libpurple/eventloop.h"
	.file 39 "c:/workspace/pidgin-devel/win32-dev/mingw-4.7.2/bin/../lib/gcc/mingw32/4.7.2/../../../../include/string.h"
	.file 40 "../../../../win32-dev/gtk_2_0-2.14/include/libintl.h"
	.file 41 "../../../../win32-dev/gtk_2_0-2.14/include/glib-2.0/glib/gstrfuncs.h"
	.file 42 "../../../../win32-dev/gtk_2_0-2.14/include/glib-2.0/glib/gmem.h"
	.file 43 "../../../libpurple/server.h"
	.section .drectve
	.ascii " -export:\"purple_init_plugin\""
