	.file	"ops.c"
	.intel_syntax noprefix
	.text
Ltext0:
	.p2align 2,,3
	.def	_silc_ftp;	.scl	3;	.type	32;	.endef
_silc_ftp:
LFB181:
	.file 1 "ops.c"
	.loc 1 1866 0
	.cfi_startproc
LVL0:
	push	ebp
LCFI0:
	.cfi_def_cfa_offset 8
	.cfi_offset 5, -8
	push	edi
LCFI1:
	.cfi_def_cfa_offset 12
	.cfi_offset 7, -12
	push	esi
LCFI2:
	.cfi_def_cfa_offset 16
	.cfi_offset 6, -16
	push	ebx
LCFI3:
	.cfi_def_cfa_offset 20
	.cfi_offset 3, -20
	sub	esp, 28
LCFI4:
	.cfi_def_cfa_offset 48
	mov	eax, DWORD PTR [esp+48]
	mov	edx, DWORD PTR [esp+52]
	mov	ecx, DWORD PTR [esp+56]
	mov	ebx, DWORD PTR [esp+60]
	mov	esi, DWORD PTR [esp+64]
	movzx	edi, WORD PTR [esp+68]
	.loc 1 1866 0
	mov	ebp, DWORD PTR ___stack_chk_guard
	mov	DWORD PTR [esp+12], ebp
	xor	ebp, ebp
	.loc 1 1867 0
	mov	ebp, DWORD PTR [esp+12]
	xor	ebp, DWORD PTR ___stack_chk_guard
	jne	L6
	mov	DWORD PTR [esp+68], edi
	mov	DWORD PTR [esp+64], esi
	mov	DWORD PTR [esp+60], ebx
	mov	DWORD PTR [esp+56], ecx
	mov	DWORD PTR [esp+52], edx
	mov	DWORD PTR [esp+48], eax
	.loc 1 1869 0
	add	esp, 28
LCFI5:
	.cfi_remember_state
	.cfi_def_cfa_offset 20
	pop	ebx
LCFI6:
	.cfi_restore 3
	.cfi_def_cfa_offset 16
	pop	esi
LCFI7:
	.cfi_restore 6
	.cfi_def_cfa_offset 12
	pop	edi
LCFI8:
	.cfi_restore 7
	.cfi_def_cfa_offset 8
	pop	ebp
LCFI9:
	.cfi_restore 5
	.cfi_def_cfa_offset 4
	.loc 1 1867 0
	jmp	_silcpurple_ftp_request
LVL1:
L6:
LCFI10:
	.cfi_restore_state
	call	___stack_chk_fail
LVL2:
	.cfi_endproc
LFE181:
	.p2align 2,,3
	.def	_silc_key_agreement;	.scl	3;	.type	32;	.endef
_silc_key_agreement:
LFB180:
	.loc 1 1849 0
	.cfi_startproc
LVL3:
	push	ebp
LCFI11:
	.cfi_def_cfa_offset 8
	.cfi_offset 5, -8
	push	edi
LCFI12:
	.cfi_def_cfa_offset 12
	.cfi_offset 7, -12
	push	esi
LCFI13:
	.cfi_def_cfa_offset 16
	.cfi_offset 6, -16
	push	ebx
LCFI14:
	.cfi_def_cfa_offset 20
	.cfi_offset 3, -20
	sub	esp, 28
LCFI15:
	.cfi_def_cfa_offset 48
	mov	eax, DWORD PTR [esp+48]
	mov	edx, DWORD PTR [esp+52]
	mov	ecx, DWORD PTR [esp+56]
	mov	ebx, DWORD PTR [esp+60]
	movzx	edi, WORD PTR [esp+64]
	movzx	esi, WORD PTR [esp+68]
	.loc 1 1849 0
	mov	ebp, DWORD PTR ___stack_chk_guard
	mov	DWORD PTR [esp+12], ebp
	xor	ebp, ebp
	.loc 1 1850 0
	mov	ebp, DWORD PTR [esp+12]
	xor	ebp, DWORD PTR ___stack_chk_guard
	jne	L11
	mov	DWORD PTR [esp+68], edi
	mov	DWORD PTR [esp+64], esi
	mov	DWORD PTR [esp+60], ebx
	mov	DWORD PTR [esp+56], ecx
	mov	DWORD PTR [esp+52], edx
	mov	DWORD PTR [esp+48], eax
	.loc 1 1852 0
	add	esp, 28
LCFI16:
	.cfi_remember_state
	.cfi_def_cfa_offset 20
	pop	ebx
LCFI17:
	.cfi_restore 3
	.cfi_def_cfa_offset 16
	pop	esi
LCFI18:
	.cfi_restore 6
	.cfi_def_cfa_offset 12
	pop	edi
LCFI19:
	.cfi_restore 7
	.cfi_def_cfa_offset 8
	pop	ebp
LCFI20:
	.cfi_restore 5
	.cfi_def_cfa_offset 4
	.loc 1 1850 0
	jmp	_silcpurple_buddy_keyagr_request
LVL4:
L11:
LCFI21:
	.cfi_restore_state
	call	___stack_chk_fail
LVL5:
	.cfi_endproc
LFE180:
	.section .rdata,"dr"
LC0:
	.ascii "Cancel\0"
LC1:
	.ascii "pidgin\0"
LC2:
	.ascii "OK\0"
LC3:
	.ascii "Passphrase required\0"
LC4:
	.ascii "Passphrase\0"
	.text
	.p2align 2,,3
	.def	_silc_ask_passphrase;	.scl	3;	.type	32;	.endef
_silc_ask_passphrase:
LFB179:
	.loc 1 1820 0
	.cfi_startproc
LVL6:
	push	ebp
LCFI22:
	.cfi_def_cfa_offset 8
	.cfi_offset 5, -8
	push	edi
LCFI23:
	.cfi_def_cfa_offset 12
	.cfi_offset 7, -12
	push	esi
LCFI24:
	.cfi_def_cfa_offset 16
	.cfi_offset 6, -16
	push	ebx
LCFI25:
	.cfi_def_cfa_offset 20
	.cfi_offset 3, -20
	sub	esp, 108
LCFI26:
	.cfi_def_cfa_offset 128
	mov	ebp, DWORD PTR [esp+136]
	mov	edi, DWORD PTR [esp+140]
	.loc 1 1820 0
	mov	eax, DWORD PTR ___stack_chk_guard
	mov	DWORD PTR [esp+92], eax
	xor	eax, eax
	.loc 1 1821 0
	mov	eax, DWORD PTR [esp+128]
	mov	esi, DWORD PTR [eax+20]
LVL7:
	.loc 1 1822 0
	mov	DWORD PTR [esp+4], 8
	mov	DWORD PTR [esp], 1
	call	_silc_calloc
LVL8:
	mov	ebx, eax
LVL9:
	.loc 1 1824 0
	test	eax, eax
	je	L12
	.loc 1 1826 0
	mov	DWORD PTR [eax], ebp
	.loc 1 1827 0
	mov	DWORD PTR [eax+4], edi
	.loc 1 1828 0
	mov	DWORD PTR [esp], esi
	call	_purple_connection_get_account
LVL10:
	.loc 1 1831 0
	mov	DWORD PTR [esp+4], OFFSET FLAT:LC0
	mov	DWORD PTR [esp], OFFSET FLAT:LC1
	mov	DWORD PTR [esp+72], eax
	call	_libintl_dgettext
LVL11:
	.loc 1 1830 0
	mov	DWORD PTR [esp+4], OFFSET FLAT:LC2
	mov	DWORD PTR [esp], OFFSET FLAT:LC1
	mov	DWORD PTR [esp+76], eax
	call	_libintl_dgettext
LVL12:
	mov	ebp, eax
	.loc 1 1829 0
	mov	DWORD PTR [esp+4], OFFSET FLAT:LC3
	mov	DWORD PTR [esp], OFFSET FLAT:LC1
	call	_libintl_dgettext
LVL13:
	mov	edi, eax
	.loc 1 1828 0
	mov	DWORD PTR [esp+4], OFFSET FLAT:LC4
	mov	DWORD PTR [esp], OFFSET FLAT:LC1
	call	_libintl_dgettext
LVL14:
	mov	DWORD PTR [esp+60], ebx
	mov	DWORD PTR [esp+56], 0
	mov	DWORD PTR [esp+52], 0
	mov	ecx, DWORD PTR [esp+72]
	mov	DWORD PTR [esp+48], ecx
	mov	DWORD PTR [esp+44], OFFSET FLAT:_silc_ask_passphrase_cb
	mov	edx, DWORD PTR [esp+76]
	mov	DWORD PTR [esp+40], edx
	mov	DWORD PTR [esp+36], OFFSET FLAT:_silc_ask_passphrase_cb
	mov	DWORD PTR [esp+32], ebp
	mov	DWORD PTR [esp+28], 0
	mov	DWORD PTR [esp+24], 1
	mov	DWORD PTR [esp+20], 0
	mov	DWORD PTR [esp+16], 0
	mov	DWORD PTR [esp+12], edi
	mov	DWORD PTR [esp+8], 0
	mov	DWORD PTR [esp+4], eax
	mov	DWORD PTR [esp], esi
	call	_purple_request_input
LVL15:
L12:
	.loc 1 1833 0
	mov	eax, DWORD PTR [esp+92]
	xor	eax, DWORD PTR ___stack_chk_guard
	jne	L19
	add	esp, 108
LCFI27:
	.cfi_remember_state
	.cfi_def_cfa_offset 20
	pop	ebx
LCFI28:
	.cfi_restore 3
	.cfi_def_cfa_offset 16
LVL16:
	pop	esi
LCFI29:
	.cfi_restore 6
	.cfi_def_cfa_offset 12
LVL17:
	pop	edi
LCFI30:
	.cfi_restore 7
	.cfi_def_cfa_offset 8
	pop	ebp
LCFI31:
	.cfi_restore 5
	.cfi_def_cfa_offset 4
	ret
LVL18:
L19:
LCFI32:
	.cfi_restore_state
	call	___stack_chk_fail
LVL19:
	.cfi_endproc
LFE179:
	.p2align 2,,3
	.def	_silc_ask_passphrase_cb;	.scl	3;	.type	32;	.endef
_silc_ask_passphrase_cb:
LFB178:
	.loc 1 1803 0
	.cfi_startproc
LVL20:
	push	edi
LCFI33:
	.cfi_def_cfa_offset 8
	.cfi_offset 7, -8
	push	ebx
LCFI34:
	.cfi_def_cfa_offset 12
	.cfi_offset 3, -12
	sub	esp, 36
LCFI35:
	.cfi_def_cfa_offset 48
	mov	ebx, DWORD PTR [esp+48]
	mov	edx, DWORD PTR [esp+52]
	.loc 1 1803 0
	mov	eax, DWORD PTR ___stack_chk_guard
	mov	DWORD PTR [esp+28], eax
	xor	eax, eax
	.loc 1 1804 0
	test	edx, edx
	je	L21
	.loc 1 1804 0 is_stmt 0 discriminator 1
	cmp	BYTE PTR [edx], 0
	jne	L22
L21:
	.loc 1 1805 0 is_stmt 1
	mov	eax, DWORD PTR [ebx+4]
	mov	DWORD PTR [esp+8], eax
	mov	DWORD PTR [esp+4], 0
	mov	DWORD PTR [esp], 0
	call	[DWORD PTR [ebx]]
LVL21:
L23:
	.loc 1 1809 0
	mov	eax, DWORD PTR [esp+28]
	xor	eax, DWORD PTR ___stack_chk_guard
	jne	L30
	mov	DWORD PTR [esp+48], ebx
	.loc 1 1810 0
	add	esp, 36
LCFI36:
	.cfi_remember_state
	.cfi_def_cfa_offset 12
	pop	ebx
LCFI37:
	.cfi_restore 3
	.cfi_def_cfa_offset 8
	pop	edi
LCFI38:
	.cfi_restore 7
	.cfi_def_cfa_offset 4
	.loc 1 1809 0
	jmp	_silc_free
LVL22:
	.p2align 2,,3
L22:
LCFI39:
	.cfi_restore_state
	.loc 1 1807 0
	xor	eax, eax
	mov	ecx, -1
	mov	edi, edx
	repne scasb
LVL23:
	not	ecx
	dec	ecx
	mov	eax, DWORD PTR [ebx+4]
	mov	DWORD PTR [esp+8], eax
	mov	DWORD PTR [esp+4], ecx
	mov	DWORD PTR [esp], edx
	call	[DWORD PTR [ebx]]
LVL24:
	jmp	L23
L30:
	.loc 1 1809 0
	call	___stack_chk_fail
LVL25:
	.cfi_endproc
LFE178:
	.p2align 2,,3
	.def	_silc_ask_auth_password_cb;	.scl	3;	.type	32;	.endef
_silc_ask_auth_password_cb:
LFB175:
	.loc 1 1702 0
	.cfi_startproc
LVL26:
	push	ebx
LCFI40:
	.cfi_def_cfa_offset 8
	.cfi_offset 3, -8
	sub	esp, 40
LCFI41:
	.cfi_def_cfa_offset 48
	mov	eax, DWORD PTR [esp+48]
	mov	edx, DWORD PTR [esp+52]
	mov	ebx, DWORD PTR [esp+56]
	.loc 1 1702 0
	mov	ecx, DWORD PTR ___stack_chk_guard
	mov	DWORD PTR [esp+28], ecx
	xor	ecx, ecx
LVL27:
	.loc 1 1705 0
	test	eax, eax
	je	L32
	.loc 1 1705 0 is_stmt 0 discriminator 1
	cmp	BYTE PTR [eax], 0
	jne	L33
L32:
	.loc 1 1706 0 is_stmt 1
	mov	eax, DWORD PTR [ebx+4]
	mov	DWORD PTR [esp+12], eax
	mov	DWORD PTR [esp+8], 0
	mov	DWORD PTR [esp+4], 0
	mov	DWORD PTR [esp], 0
	call	[DWORD PTR [ebx]]
LVL28:
L34:
	.loc 1 1711 0
	mov	eax, DWORD PTR [esp+28]
	xor	eax, DWORD PTR ___stack_chk_guard
	jne	L41
	mov	DWORD PTR [esp+48], ebx
	.loc 1 1712 0
	add	esp, 40
LCFI42:
	.cfi_remember_state
	.cfi_def_cfa_offset 8
	pop	ebx
LCFI43:
	.cfi_restore 3
	.cfi_def_cfa_offset 4
LVL29:
	.loc 1 1711 0
	jmp	_silc_free
LVL30:
	.p2align 2,,3
L33:
LCFI44:
	.cfi_restore_state
	.loc 1 1708 0
	mov	ecx, DWORD PTR [ebx+4]
	mov	DWORD PTR [esp+12], ecx
	mov	DWORD PTR [esp+8], edx
	mov	DWORD PTR [esp+4], eax
	mov	DWORD PTR [esp], 1
	call	[DWORD PTR [ebx]]
LVL31:
	jmp	L34
L41:
	.loc 1 1711 0
	call	___stack_chk_fail
LVL32:
	.cfi_endproc
LFE175:
	.section .rdata,"dr"
LC5:
	.ascii "Resuming session\0"
LC6:
	.ascii "Verifying server public key\0"
	.text
	.p2align 2,,3
	.def	_silc_verify_public_key;	.scl	3;	.type	32;	.endef
_silc_verify_public_key:
LFB177:
	.loc 1 1782 0
	.cfi_startproc
LVL33:
	push	ebp
LCFI45:
	.cfi_def_cfa_offset 8
	.cfi_offset 5, -8
	push	edi
LCFI46:
	.cfi_def_cfa_offset 12
	.cfi_offset 7, -12
	push	esi
LCFI47:
	.cfi_def_cfa_offset 16
	.cfi_offset 6, -16
	push	ebx
LCFI48:
	.cfi_def_cfa_offset 20
	.cfi_offset 3, -20
	sub	esp, 92
LCFI49:
	.cfi_def_cfa_offset 112
	mov	ebx, DWORD PTR [esp+112]
	mov	ecx, DWORD PTR [esp+116]
	mov	esi, DWORD PTR [esp+120]
	mov	edx, DWORD PTR [esp+124]
	mov	DWORD PTR [esp+56], edx
	mov	ebp, DWORD PTR [esp+128]
	mov	edx, DWORD PTR [esp+132]
	mov	DWORD PTR [esp+44], edx
	.loc 1 1782 0
	mov	eax, DWORD PTR ___stack_chk_guard
	mov	DWORD PTR [esp+76], eax
	xor	eax, eax
	.loc 1 1783 0
	mov	edi, DWORD PTR [ebx+20]
LVL34:
	.loc 1 1784 0
	mov	eax, DWORD PTR [edi+28]
LVL35:
	.loc 1 1786 0
	mov	edx, DWORD PTR [eax+4]
	test	edx, edx
	je	L48
LVL36:
L43:
	.loc 1 1797 0
	mov	edx, DWORD PTR [esp+44]
	mov	DWORD PTR [esp+24], edx
	mov	DWORD PTR [esp+20], ebp
	mov	edx, DWORD PTR [esp+56]
	mov	DWORD PTR [esp+16], edx
	mov	DWORD PTR [esp+12], esi
	mov	DWORD PTR [esp+8], 0
	mov	DWORD PTR [esp+4], ecx
	mov	DWORD PTR [esp], ebx
	call	_silcpurple_verify_public_key
LVL37:
	.loc 1 1799 0
	mov	eax, DWORD PTR [esp+76]
	xor	eax, DWORD PTR ___stack_chk_guard
	jne	L49
	add	esp, 92
LCFI50:
	.cfi_remember_state
	.cfi_def_cfa_offset 20
	pop	ebx
LCFI51:
	.cfi_restore 3
	.cfi_def_cfa_offset 16
	pop	esi
LCFI52:
	.cfi_restore 6
	.cfi_def_cfa_offset 12
	pop	edi
LCFI53:
	.cfi_restore 7
	.cfi_def_cfa_offset 8
LVL38:
	pop	ebp
LCFI54:
	.cfi_restore 5
	.cfi_def_cfa_offset 4
	ret
LVL39:
	.p2align 2,,3
L48:
LCFI55:
	.cfi_restore_state
	.loc 1 1786 0 discriminator 1
	lea	edx, [esi-2]
	cmp	edx, 1
	ja	L43
	.loc 1 1789 0
	test	BYTE PTR [eax+56], 2
	jne	L50
	.loc 1 1792 0
	mov	DWORD PTR [esp+4], OFFSET FLAT:LC6
L47:
	mov	DWORD PTR [esp], OFFSET FLAT:LC1
	mov	DWORD PTR [esp+52], ecx
	call	_libintl_dgettext
LVL40:
	mov	DWORD PTR [esp+12], 5
	mov	DWORD PTR [esp+8], 3
	mov	DWORD PTR [esp+4], eax
	mov	DWORD PTR [esp], edi
	call	_purple_connection_update_progress
LVL41:
	mov	ecx, DWORD PTR [esp+52]
	jmp	L43
LVL42:
	.p2align 2,,3
L50:
	.loc 1 1790 0
	mov	DWORD PTR [esp+4], OFFSET FLAT:LC5
	jmp	L47
LVL43:
L49:
	.loc 1 1799 0
	call	___stack_chk_fail
LVL44:
	.cfi_endproc
LFE177:
	.section .rdata,"dr"
LC7:
	.ascii "Authenticating connection\0"
LC8:
	.ascii "pubkey-auth\0"
	.text
	.p2align 2,,3
	.def	_silc_get_auth_method;	.scl	3;	.type	32;	.endef
_silc_get_auth_method:
LFB176:
	.loc 1 1731 0
	.cfi_startproc
LVL45:
	push	ebp
LCFI56:
	.cfi_def_cfa_offset 8
	.cfi_offset 5, -8
	push	edi
LCFI57:
	.cfi_def_cfa_offset 12
	.cfi_offset 7, -12
	push	esi
LCFI58:
	.cfi_def_cfa_offset 16
	.cfi_offset 6, -16
	push	ebx
LCFI59:
	.cfi_def_cfa_offset 20
	.cfi_offset 3, -20
	sub	esp, 60
LCFI60:
	.cfi_def_cfa_offset 80
	mov	esi, DWORD PTR [esp+80]
	mov	edx, DWORD PTR [esp+84]
	mov	DWORD PTR [esp+28], edx
	mov	edx, DWORD PTR [esp+100]
	mov	DWORD PTR [esp+20], edx
	mov	edx, DWORD PTR [esp+104]
	mov	DWORD PTR [esp+24], edx
	mov	edi, DWORD PTR [esp+96]
	.loc 1 1731 0
	mov	eax, DWORD PTR ___stack_chk_guard
	mov	DWORD PTR [esp+44], eax
	xor	eax, eax
	.loc 1 1732 0
	mov	ebx, DWORD PTR [esi+20]
LVL46:
	.loc 1 1733 0
	mov	ebp, DWORD PTR [ebx+28]
LVL47:
	.loc 1 1738 0
	test	BYTE PTR [ebp+56], 2
	je	L52
	.loc 1 1739 0
	mov	DWORD PTR [esp+4], OFFSET FLAT:LC5
L70:
	.loc 1 1741 0
	mov	DWORD PTR [esp], OFFSET FLAT:LC1
	call	_libintl_dgettext
LVL48:
	mov	DWORD PTR [esp+12], 5
	mov	DWORD PTR [esp+8], 4
	mov	DWORD PTR [esp+4], eax
	mov	DWORD PTR [esp], ebx
	call	_purple_connection_update_progress
LVL49:
	.loc 1 1744 0
	cmp	di, 2
	je	L73
	.loc 1 1749 0
	dec	di
LVL50:
	je	L74
L55:
	.loc 1 1767 0
	mov	eax, DWORD PTR [esp+44]
	xor	eax, DWORD PTR ___stack_chk_guard
	jne	L72
	mov	edx, DWORD PTR [esp+24]
	mov	DWORD PTR [esp+92], edx
	mov	DWORD PTR [esp+88], 0
	mov	DWORD PTR [esp+84], 0
	mov	DWORD PTR [esp+80], 0
L71:
	mov	edx, DWORD PTR [esp+20]
	.loc 1 1768 0
	add	esp, 60
LCFI61:
	.cfi_remember_state
	.cfi_def_cfa_offset 20
	pop	ebx
LCFI62:
	.cfi_restore 3
	.cfi_def_cfa_offset 16
LVL51:
	pop	esi
LCFI63:
	.cfi_restore 6
	.cfi_def_cfa_offset 12
	pop	edi
LCFI64:
	.cfi_restore 7
	.cfi_def_cfa_offset 8
	pop	ebp
LCFI65:
	.cfi_restore 5
	.cfi_def_cfa_offset 4
LVL52:
	.loc 1 1767 0
	jmp	edx
LVL53:
	.p2align 2,,3
L52:
LCFI66:
	.cfi_restore_state
	.loc 1 1741 0
	mov	DWORD PTR [esp+4], OFFSET FLAT:LC7
	jmp	L70
LVL54:
	.p2align 2,,3
L74:
	.loc 1 1750 0
	mov	DWORD PTR [esp], ebx
	call	_purple_connection_get_password
LVL55:
	mov	edx, eax
LVL56:
	.loc 1 1751 0
	test	eax, eax
	je	L57
	.loc 1 1751 0 is_stmt 0 discriminator 1
	cmp	BYTE PTR [eax], 0
	jne	L75
L57:
	.loc 1 1757 0 is_stmt 1
	mov	DWORD PTR [esp+4], 8
	mov	DWORD PTR [esp], 1
	call	_silc_calloc
LVL57:
	.loc 1 1758 0
	test	eax, eax
	je	L51
	.loc 1 1760 0
	mov	edx, DWORD PTR [esp+20]
	mov	DWORD PTR [eax], edx
	.loc 1 1761 0
	mov	edx, DWORD PTR [esp+24]
	mov	DWORD PTR [eax+4], edx
	.loc 1 1762 0
	mov	edx, DWORD PTR [esp+44]
	xor	edx, DWORD PTR ___stack_chk_guard
	jne	L72
	mov	DWORD PTR [esp+92], eax
	mov	DWORD PTR [esp+88], OFFSET FLAT:_silc_ask_auth_password_cb
	mov	edx, DWORD PTR [esp+28]
	mov	DWORD PTR [esp+84], edx
	mov	DWORD PTR [esp+80], esi
	.loc 1 1768 0
	add	esp, 60
LCFI67:
	.cfi_remember_state
	.cfi_def_cfa_offset 20
	pop	ebx
LCFI68:
	.cfi_restore 3
	.cfi_def_cfa_offset 16
LVL58:
	pop	esi
LCFI69:
	.cfi_restore 6
	.cfi_def_cfa_offset 12
	pop	edi
LCFI70:
	.cfi_restore 7
	.cfi_def_cfa_offset 8
	pop	ebp
LCFI71:
	.cfi_restore 5
	.cfi_def_cfa_offset 4
LVL59:
	.loc 1 1762 0
	jmp	_silc_ask_passphrase
LVL60:
	.p2align 2,,3
L51:
LCFI72:
	.cfi_restore_state
	.loc 1 1768 0
	mov	eax, DWORD PTR [esp+44]
	xor	eax, DWORD PTR ___stack_chk_guard
LVL61:
	jne	L72
	add	esp, 60
LCFI73:
	.cfi_remember_state
	.cfi_def_cfa_offset 20
	pop	ebx
LCFI74:
	.cfi_restore 3
	.cfi_def_cfa_offset 16
LVL62:
	pop	esi
LCFI75:
	.cfi_restore 6
	.cfi_def_cfa_offset 12
	pop	edi
LCFI76:
	.cfi_restore 7
	.cfi_def_cfa_offset 8
	pop	ebp
LCFI77:
	.cfi_restore 5
	.cfi_def_cfa_offset 4
LVL63:
	ret
LVL64:
	.p2align 2,,3
L73:
LCFI78:
	.cfi_restore_state
	.loc 1 1745 0 discriminator 1
	mov	DWORD PTR [esp+8], 0
	mov	DWORD PTR [esp+4], OFFSET FLAT:LC8
	mov	eax, DWORD PTR [ebp+32]
	mov	DWORD PTR [esp], eax
	call	_purple_account_get_bool
LVL65:
	.loc 1 1744 0 discriminator 1
	test	eax, eax
	je	L55
	.loc 1 1746 0
	mov	edx, DWORD PTR [esp+44]
	xor	edx, DWORD PTR ___stack_chk_guard
	jne	L72
	mov	edx, DWORD PTR [esp+24]
	mov	DWORD PTR [esp+92], edx
	mov	DWORD PTR [esp+88], 0
	mov	DWORD PTR [esp+84], 0
	mov	DWORD PTR [esp+80], 2
	jmp	L71
LVL66:
	.p2align 2,,3
L75:
	.loc 1 1752 0
	xor	eax, eax
LVL67:
	mov	ecx, -1
	mov	edi, edx
	repne scasb
LVL68:
	not	ecx
	dec	ecx
	mov	eax, DWORD PTR [esp+44]
	xor	eax, DWORD PTR ___stack_chk_guard
	jne	L72
	mov	eax, DWORD PTR [esp+24]
	mov	DWORD PTR [esp+92], eax
	mov	DWORD PTR [esp+88], ecx
	mov	DWORD PTR [esp+84], edx
	mov	DWORD PTR [esp+80], 1
	jmp	L71
L72:
	.loc 1 1768 0
	call	___stack_chk_fail
LVL69:
	.cfi_endproc
LFE176:
	.section .rdata,"dr"
LC9:
	.ascii "+C\0"
	.text
	.p2align 2,,3
	.def	_silc_command;	.scl	3;	.type	32;	.endef
_silc_command:
LFB172:
	.loc 1 951 0
	.cfi_startproc
LVL70:
	push	edi
LCFI79:
	.cfi_def_cfa_offset 8
	.cfi_offset 7, -8
	push	esi
LCFI80:
	.cfi_def_cfa_offset 12
	.cfi_offset 6, -12
	sub	esp, 20
LCFI81:
	.cfi_def_cfa_offset 32
	mov	edx, DWORD PTR [esp+52]
	mov	ecx, DWORD PTR [esp+56]
	.loc 1 951 0
	mov	eax, DWORD PTR ___stack_chk_guard
	mov	DWORD PTR [esp+12], eax
	xor	eax, eax
LVL71:
	.loc 1 953 0
	mov	eax, DWORD PTR [esp+32]
	mov	eax, DWORD PTR [eax+20]
	mov	eax, DWORD PTR [eax+28]
LVL72:
	.loc 1 955 0
	cmp	BYTE PTR [esp+44], 17
	je	L82
L76:
	.loc 1 967 0
	mov	eax, DWORD PTR [esp+12]
	xor	eax, DWORD PTR ___stack_chk_guard
LVL73:
	jne	L83
	add	esp, 20
LCFI82:
	.cfi_remember_state
	.cfi_def_cfa_offset 12
	pop	esi
LCFI83:
	.cfi_restore 6
	.cfi_def_cfa_offset 8
	pop	edi
LCFI84:
	.cfi_restore 7
	.cfi_def_cfa_offset 4
	ret
LVL74:
	.p2align 2,,3
L82:
LCFI85:
	.cfi_restore_state
	.loc 1 958 0
	cmp	edx, 3
	je	L84
L79:
	.loc 1 961 0
	and	BYTE PTR [eax+56], -9
	jmp	L76
	.p2align 2,,3
L84:
	.loc 1 958 0 discriminator 1
	mov	esi, DWORD PTR [ecx+8]
	mov	edi, OFFSET FLAT:LC9
	mov	ecx, 3
	repe cmpsb
	jne	L79
	.loc 1 959 0
	or	BYTE PTR [eax+56], 8
	jmp	L76
LVL75:
L83:
	.loc 1 967 0
	call	___stack_chk_fail
LVL76:
	.cfi_endproc
LFE172:
	.section .rdata,"dr"
LC10:
	.ascii "silc_say (%d) %s\12\0"
LC11:
	.ascii "silc\0"
LC12:
	.ascii "silc_say error: %s\12\0"
LC13:
	.ascii "Authentication failed\0"
LC14:
	.ascii "Error occurred\0"
LC15:
	.ascii "Error\0"
	.text
	.p2align 2,,3
	.globl	_silc_say
	.def	_silc_say;	.scl	2;	.type	32;	.endef
_silc_say:
LFB167:
	.loc 1 51 0
	.cfi_startproc
LVL77:
	push	ebp
LCFI86:
	.cfi_def_cfa_offset 8
	.cfi_offset 5, -8
	push	edi
LCFI87:
	.cfi_def_cfa_offset 12
	.cfi_offset 7, -12
	push	esi
LCFI88:
	.cfi_def_cfa_offset 16
	.cfi_offset 6, -16
	push	ebx
LCFI89:
	.cfi_def_cfa_offset 20
	.cfi_offset 3, -20
	sub	esp, 316
LCFI90:
	.cfi_def_cfa_offset 336
	mov	ebp, DWORD PTR [esp+336]
	mov	esi, DWORD PTR [esp+344]
	.loc 1 51 0
	mov	eax, DWORD PTR ___stack_chk_guard
	mov	DWORD PTR [esp+300], eax
	xor	eax, eax
LVL78:
	.loc 1 57 0
	lea	eax, [esp+352]
LVL79:
	.loc 1 58 0
	mov	DWORD PTR [esp+12], eax
	mov	eax, DWORD PTR [esp+348]
LVL80:
	mov	DWORD PTR [esp+8], eax
	mov	DWORD PTR [esp+4], 256
	lea	ebx, [esp+44]
	mov	DWORD PTR [esp], ebx
	call	_silc_vsnprintf
LVL81:
	.loc 1 61 0
	cmp	esi, 2
	je	L86
	.loc 1 62 0
	mov	DWORD PTR [esp+12], ebx
	mov	DWORD PTR [esp+8], esi
	mov	DWORD PTR [esp+4], OFFSET FLAT:LC10
	mov	DWORD PTR [esp], OFFSET FLAT:LC11
	call	_purple_debug_misc
LVL82:
L85:
	.loc 1 78 0
	mov	eax, DWORD PTR [esp+300]
	xor	eax, DWORD PTR ___stack_chk_guard
	jne	L100
	add	esp, 316
LCFI91:
	.cfi_remember_state
	.cfi_def_cfa_offset 20
	pop	ebx
LCFI92:
	.cfi_restore 3
	.cfi_def_cfa_offset 16
	pop	esi
LCFI93:
	.cfi_restore 6
	.cfi_def_cfa_offset 12
	pop	edi
LCFI94:
	.cfi_restore 7
	.cfi_def_cfa_offset 8
	pop	ebp
LCFI95:
	.cfi_restore 5
	.cfi_def_cfa_offset 4
	ret
LVL83:
	.p2align 2,,3
L86:
LCFI96:
	.cfi_restore_state
	.loc 1 66 0
	mov	DWORD PTR [esp+8], ebx
	mov	DWORD PTR [esp+4], OFFSET FLAT:LC12
	mov	DWORD PTR [esp], OFFSET FLAT:LC11
	call	_purple_debug_error
LVL84:
	.loc 1 68 0
	mov	edi, OFFSET FLAT:LC13
	mov	ecx, 22
	mov	esi, ebx
	repe cmpsb
	seta	al
	setb	dl
	sub	eax, edx
	movsx	eax, al
	.loc 1 55 0
	cmp	eax, 1
	sbb	eax, eax
	and	eax, 2
LVL85:
	.loc 1 71 0
	test	ebp, ebp
	je	L89
	.loc 1 72 0
	mov	edx, DWORD PTR [ebp+20]
LVL86:
	.loc 1 74 0
	test	edx, edx
	je	L89
	.loc 1 75 0
	mov	DWORD PTR [esp+8], ebx
	mov	DWORD PTR [esp+4], eax
	mov	DWORD PTR [esp], edx
	call	_purple_connection_error_reason
LVL87:
	jmp	L85
LVL88:
	.p2align 2,,3
L89:
	.loc 1 77 0
	mov	DWORD PTR [esp+4], OFFSET FLAT:LC14
	mov	DWORD PTR [esp], OFFSET FLAT:LC1
	call	_libintl_dgettext
LVL89:
	mov	esi, eax
	mov	DWORD PTR [esp+4], OFFSET FLAT:LC15
	mov	DWORD PTR [esp], OFFSET FLAT:LC1
	call	_libintl_dgettext
LVL90:
	mov	DWORD PTR [esp+24], 0
	mov	DWORD PTR [esp+20], 0
	mov	DWORD PTR [esp+16], ebx
	mov	DWORD PTR [esp+12], esi
	mov	DWORD PTR [esp+8], eax
	mov	DWORD PTR [esp+4], 0
	mov	DWORD PTR [esp], 0
	call	_purple_notify_message
LVL91:
	jmp	L85
L100:
	.loc 1 78 0
	call	___stack_chk_fail
LVL92:
	.cfi_endproc
LFE167:
	.section .rdata,"dr"
LC16:
	.ascii "\0"
LC17:
	.ascii "channel\0"
LC18:
	.ascii "%s@%s\0"
	.align 4
LC19:
	.ascii "%s has changed the topic of <I>%s</I> to: %s\0"
	.align 4
LC20:
	.ascii "<I>%s</I> set channel <I>%s</I> modes to: %s\0"
	.align 4
LC21:
	.ascii "<I>%s</I> removed all channel <I>%s</I> modes\0"
	.align 4
LC22:
	.ascii "<I>%s</I> set <I>%s's</I> modes to: %s\0"
	.align 4
LC23:
	.ascii "<I>%s</I> removed all <I>%s's</I> modes\0"
	.align 4
LC24:
	.ascii "You have been kicked off <I>%s</I> by <I>%s</I> (%s)\0"
LC25:
	.ascii "Kicked by %s (%s)\0"
	.align 4
LC26:
	.ascii "You have been killed by %s (%s)\0"
LC27:
	.ascii "Killed by %s (%s)\0"
LC28:
	.ascii "Server signoff\0"
LC29:
	.ascii "Error Notify\0"
	.align 4
LC30:
	.ascii "%s\\clientkeys\\clientkey_%s.pub\0"
LC31:
	.ascii "public-key\0"
LC32:
	.ascii "WATCH for %s, unknown buddy\12\0"
LC33:
	.ascii "available\0"
LC34:
	.ascii "offline\0"
LC35:
	.ascii "Unhandled notification: %d\12\0"
	.text
	.p2align 2,,3
	.def	_silc_notify;	.scl	3;	.type	32;	.endef
_silc_notify:
LFB171:
	.loc 1 440 0
	.cfi_startproc
LVL93:
	push	ebp
LCFI97:
	.cfi_def_cfa_offset 8
	.cfi_offset 5, -8
	push	edi
LCFI98:
	.cfi_def_cfa_offset 12
	.cfi_offset 7, -12
	push	esi
LCFI99:
	.cfi_def_cfa_offset 16
	.cfi_offset 6, -16
	push	ebx
LCFI100:
	.cfi_def_cfa_offset 20
	.cfi_offset 3, -20
	sub	esp, 1132
LCFI101:
	.cfi_def_cfa_offset 1152
	mov	ebx, DWORD PTR [esp+1156]
	movzx	esi, WORD PTR [esp+1160]
	.loc 1 440 0
	mov	eax, DWORD PTR ___stack_chk_guard
	mov	DWORD PTR [esp+1116], eax
	xor	eax, eax
	.loc 1 442 0
	mov	eax, DWORD PTR [esp+1152]
	mov	edx, DWORD PTR [eax+20]
LVL94:
	.loc 1 443 0
	mov	ebp, DWORD PTR [edx+28]
LVL95:
	.loc 1 444 0
	mov	DWORD PTR [esp], edx
	mov	DWORD PTR [esp+40], edx
	call	_purple_connection_get_account
LVL96:
	mov	DWORD PTR [esp+48], eax
LVL97:
	.loc 1 460 0
	lea	ecx, [esp+92]
	mov	DWORD PTR [esp+44], ecx
	mov	ecx, 512
	xor	eax, eax
LVL98:
	mov	edi, DWORD PTR [esp+44]
	rep stosb
	.loc 1 462 0
	cmp	si, 17
	mov	edx, DWORD PTR [esp+40]
	jbe	L294
L102:
	.loc 1 929 0
	mov	DWORD PTR [esp+8], esi
	mov	DWORD PTR [esp+4], OFFSET FLAT:LC35
	mov	DWORD PTR [esp], OFFSET FLAT:LC11
	call	_purple_debug_info
LVL99:
	.p2align 2,,3
L101:
	.loc 1 934 0
	mov	ecx, DWORD PTR [esp+1116]
	xor	ecx, DWORD PTR ___stack_chk_guard
	jne	L295
	add	esp, 1132
LCFI102:
	.cfi_remember_state
	.cfi_def_cfa_offset 20
	pop	ebx
LCFI103:
	.cfi_restore 3
	.cfi_def_cfa_offset 16
	pop	esi
LCFI104:
	.cfi_restore 6
	.cfi_def_cfa_offset 12
	pop	edi
LCFI105:
	.cfi_restore 7
	.cfi_def_cfa_offset 8
	pop	ebp
LCFI106:
	.cfi_restore 5
	.cfi_def_cfa_offset 4
	ret
LVL100:
	.p2align 2,,3
L294:
LCFI107:
	.cfi_restore_state
	.loc 1 462 0
	jmp	[DWORD PTR L118[0+esi*4]]
	.section .rdata,"dr"
	.align 4
L118:
	.long	L101
	.long	L104
	.long	L105
	.long	L106
	.long	L107
	.long	L108
	.long	L109
	.long	L110
	.long	L111
	.long	L112
	.long	L101
	.long	L113
	.long	L114
	.long	L115
	.long	L102
	.long	L102
	.long	L116
	.long	L117
	.text
L116:
LVL101:
LBB55:
	.loc 1 830 0
	mov	eax, DWORD PTR [esp+1164]
	and	eax, 255
	mov	DWORD PTR [esp], eax
	mov	DWORD PTR [esp+40], edx
	call	_silc_get_status_message
LVL102:
	mov	DWORD PTR [esp+24], 0
	mov	DWORD PTR [esp+20], 0
	mov	DWORD PTR [esp+16], 0
	mov	DWORD PTR [esp+12], eax
	mov	DWORD PTR [esp+8], OFFSET FLAT:LC29
	mov	DWORD PTR [esp+4], 0
	mov	edx, DWORD PTR [esp+40]
	mov	DWORD PTR [esp], edx
	call	_purple_notify_message
LVL103:
LBE55:
	.loc 1 834 0
	jmp	L101
L104:
LBB56:
	.loc 1 471 0
	mov	ebx, DWORD PTR [esp+1168]
LVL104:
	.loc 1 472 0
	mov	edi, DWORD PTR [esp+1172]
LVL105:
	.loc 1 474 0
	mov	DWORD PTR [esp+12], OFFSET FLAT:_g_free
	mov	DWORD PTR [esp+8], OFFSET FLAT:_g_free
	mov	DWORD PTR [esp+4], OFFSET FLAT:_g_str_equal
	mov	DWORD PTR [esp], OFFSET FLAT:_g_str_hash
	mov	DWORD PTR [esp+40], edx
	call	_g_hash_table_new_full
LVL106:
	mov	esi, eax
LVL107:
	.loc 1 475 0
	mov	DWORD PTR [esp], ebx
	call	_g_strdup
LVL108:
	mov	ebp, eax
LVL109:
	mov	DWORD PTR [esp], OFFSET FLAT:LC17
	call	_g_strdup
LVL110:
	mov	DWORD PTR [esp+8], ebp
	mov	DWORD PTR [esp+4], eax
	mov	DWORD PTR [esp], esi
	call	_g_hash_table_insert
LVL111:
	.loc 1 476 0
	mov	DWORD PTR [esp+16], esi
	mov	DWORD PTR [esp+12], 0
	mov	DWORD PTR [esp+8], edi
	mov	DWORD PTR [esp+4], ebx
	mov	edx, DWORD PTR [esp+40]
	mov	DWORD PTR [esp], edx
	call	_serv_got_chat_invite
LVL112:
LBE56:
	.loc 1 478 0
	jmp	L101
LVL113:
L105:
	.loc 1 481 0
	mov	esi, DWORD PTR [esp+1164]
LVL114:
	.loc 1 482 0
	mov	eax, DWORD PTR [esp+1168]
LVL115:
	.loc 1 485 0
	cmp	DWORD PTR [ebx], esi
	je	L101
	.loc 1 488 0
	mov	edx, DWORD PTR [ebp+32]
	mov	DWORD PTR [esp+8], edx
	mov	eax, DWORD PTR [eax]
LVL116:
	mov	DWORD PTR [esp+4], eax
	mov	DWORD PTR [esp], 2
	call	_purple_find_conversation_with_account
LVL117:
	mov	ebx, eax
LVL118:
	.loc 1 490 0
	test	eax, eax
	je	L101
	.loc 1 495 0
	lea	eax, [esi+386]
LVL119:
	mov	DWORD PTR [esp+16], eax
	lea	eax, [esi+257]
	mov	DWORD PTR [esp+12], eax
	.loc 1 494 0
	mov	DWORD PTR [esp+8], OFFSET FLAT:LC18
	mov	DWORD PTR [esp+4], 512
	lea	eax, [esp+92]
	mov	DWORD PTR [esp], eax
	call	_g_snprintf
LVL120:
	.loc 1 496 0
	mov	DWORD PTR [esp], ebx
	call	_purple_conversation_get_chat_data
LVL121:
	mov	DWORD PTR [esp+16], 1
	mov	DWORD PTR [esp+12], 0
	.loc 1 497 0
	lea	edx, [esp+92]
	mov	DWORD PTR [esp+8], edx
	.loc 1 496 0
	mov	DWORD PTR [esp+4], esi
	mov	DWORD PTR [esp], eax
	call	_purple_conv_chat_add_user
LVL122:
	.loc 1 499 0
	jmp	L101
LVL123:
L106:
	.loc 1 502 0
	mov	ebx, DWORD PTR [esp+1164]
LVL124:
	.loc 1 505 0
	mov	eax, DWORD PTR [ebp+32]
	mov	DWORD PTR [esp+8], eax
	.loc 1 506 0
	mov	eax, DWORD PTR [esp+1168]
	.loc 1 505 0
	mov	eax, DWORD PTR [eax]
	mov	DWORD PTR [esp+4], eax
	mov	DWORD PTR [esp], 2
	call	_purple_find_conversation_with_account
LVL125:
	.loc 1 507 0
	test	eax, eax
	je	L101
	.loc 1 511 0
	mov	DWORD PTR [esp], eax
	call	_purple_conversation_get_chat_data
LVL126:
	mov	DWORD PTR [esp+8], 0
	mov	DWORD PTR [esp+4], ebx
	mov	DWORD PTR [esp], eax
	call	_purple_conv_chat_remove_user
LVL127:
	.loc 1 514 0
	jmp	L101
LVL128:
L107:
	.loc 1 517 0
	mov	esi, DWORD PTR [esp+1164]
LVL129:
	.loc 1 518 0
	mov	ecx, DWORD PTR [esp+1168]
	mov	DWORD PTR [esp+48], ecx
LVL130:
	.loc 1 521 0
	lea	ebx, [esp+80]
	mov	DWORD PTR [esp+4], ebx
	mov	eax, DWORD PTR [esi+948]
	mov	DWORD PTR [esp], eax
	call	_silc_hash_table_list
LVL131:
	lea	edi, [esp+72]
LVL132:
	.p2align 2,,3
L281:
	.loc 1 522 0 discriminator 1
	mov	DWORD PTR [esp+8], edi
	mov	DWORD PTR [esp+4], 0
	mov	DWORD PTR [esp], ebx
	call	_silc_hash_table_get
LVL133:
	test	al, al
	je	L132
	.loc 1 523 0
	mov	eax, DWORD PTR [ebp+32]
	mov	DWORD PTR [esp+8], eax
	.loc 1 524 0
	mov	eax, DWORD PTR [esp+72]
	mov	eax, DWORD PTR [eax+8]
	.loc 1 523 0
	mov	eax, DWORD PTR [eax]
	mov	DWORD PTR [esp+4], eax
	mov	DWORD PTR [esp], 2
	call	_purple_find_conversation_with_account
LVL134:
	.loc 1 525 0
	test	eax, eax
	je	L281
	.loc 1 527 0
	mov	DWORD PTR [esp], eax
	call	_purple_conversation_get_chat_data
LVL135:
	mov	edx, DWORD PTR [esp+48]
	mov	DWORD PTR [esp+8], edx
	mov	DWORD PTR [esp+4], esi
	mov	DWORD PTR [esp], eax
	call	_purple_conv_chat_remove_user
LVL136:
	jmp	L281
LVL137:
L108:
LBB57:
	.loc 1 538 0
	mov	edx, DWORD PTR [esp+1164]
LVL138:
	.loc 1 539 0
	mov	ecx, DWORD PTR [esp+1168]
	mov	DWORD PTR [esp+48], ecx
LVL139:
	.loc 1 540 0
	mov	ebx, DWORD PTR [esp+1172]
LVL140:
	.loc 1 541 0
	mov	esi, DWORD PTR [esp+1176]
LVL141:
	.loc 1 543 0
	mov	eax, DWORD PTR [ebp+32]
	mov	DWORD PTR [esp+8], eax
	mov	eax, DWORD PTR [esi]
	mov	DWORD PTR [esp+4], eax
	mov	DWORD PTR [esp], 2
	mov	DWORD PTR [esp+40], edx
	call	_purple_find_conversation_with_account
LVL142:
	mov	edi, eax
LVL143:
	.loc 1 545 0
	test	eax, eax
	mov	edx, DWORD PTR [esp+40]
	je	L101
	.loc 1 548 0
	test	ebx, ebx
	je	L101
	.loc 1 538 0
	mov	ebp, edx
LVL144:
	.loc 1 551 0
	mov	DWORD PTR [esp+4], -1
	mov	DWORD PTR [esp], ebx
	call	_g_markup_escape_text
LVL145:
	.loc 1 552 0
	mov	DWORD PTR [esp], eax
	mov	DWORD PTR [esp+40], eax
	call	_purple_markup_linkify
LVL146:
	mov	DWORD PTR [esp+52], eax
LVL147:
	.loc 1 553 0
	mov	edx, DWORD PTR [esp+40]
	mov	DWORD PTR [esp], edx
	call	_g_free
LVL148:
	.loc 1 555 0
	cmp	bp, 2
	je	L296
	.loc 1 564 0
	cmp	bp, 1
	je	L297
	.loc 1 573 0
	cmp	bp, 3
	je	L298
	.loc 1 583 0
	mov	DWORD PTR [esp], edi
	call	_purple_conversation_get_chat_data
LVL149:
	mov	DWORD PTR [esp+8], ebx
	mov	DWORD PTR [esp+4], 0
	mov	DWORD PTR [esp], eax
	call	_purple_conv_chat_set_topic
LVL150:
L125:
	.loc 1 586 0
	mov	eax, DWORD PTR [esp+52]
	mov	DWORD PTR [esp], eax
	call	_g_free
LVL151:
	.loc 1 588 0
	jmp	L101
LVL152:
L109:
LBE57:
	.loc 1 592 0
	mov	edx, DWORD PTR [esp+1164]
	mov	DWORD PTR [esp+48], edx
LVL153:
	.loc 1 593 0
	mov	ecx, DWORD PTR [esp+1168]
	mov	DWORD PTR [esp+52], ecx
LVL154:
	.loc 1 594 0
	mov	edx, DWORD PTR [esp+1172]
LVL155:
	mov	DWORD PTR [esp+56], edx
LVL156:
	.loc 1 596 0
	mov	DWORD PTR [esp+4], edx
	mov	DWORD PTR [esp], ecx
	call	_strcmp
LVL157:
	test	eax, eax
	je	L101
	.loc 1 600 0
	lea	ebx, [esp+80]
	mov	DWORD PTR [esp+4], ebx
	mov	ecx, DWORD PTR [esp+48]
	mov	eax, DWORD PTR [ecx+948]
	mov	DWORD PTR [esp], eax
	call	_silc_hash_table_list
LVL158:
	lea	edi, [esp+72]
LVL159:
	.p2align 2,,3
L282:
	.loc 1 601 0 discriminator 1
	mov	DWORD PTR [esp+8], edi
	mov	DWORD PTR [esp+4], 0
	mov	DWORD PTR [esp], ebx
	call	_silc_hash_table_get
LVL160:
	test	al, al
	je	L132
	.loc 1 602 0
	mov	eax, DWORD PTR [ebp+32]
	mov	DWORD PTR [esp+8], eax
	.loc 1 603 0
	mov	eax, DWORD PTR [esp+72]
	mov	eax, DWORD PTR [eax+8]
	.loc 1 602 0
	mov	eax, DWORD PTR [eax]
	mov	DWORD PTR [esp+4], eax
	mov	DWORD PTR [esp], 2
	call	_purple_find_conversation_with_account
LVL161:
	mov	esi, eax
LVL162:
	.loc 1 604 0
	test	eax, eax
	je	L282
	.loc 1 606 0
	mov	DWORD PTR [esp], eax
	call	_purple_conversation_get_chat_data
LVL163:
	mov	edx, DWORD PTR [esp+48]
	mov	DWORD PTR [esp+4], edx
	mov	DWORD PTR [esp], eax
	call	_purple_conv_chat_find_user
LVL164:
	test	eax, eax
	je	L282
	.loc 1 607 0
	mov	DWORD PTR [esp], esi
	call	_purple_conversation_get_chat_data
LVL165:
	mov	ecx, DWORD PTR [esp+56]
	mov	DWORD PTR [esp+8], ecx
	mov	edx, DWORD PTR [esp+52]
	mov	DWORD PTR [esp+4], edx
	mov	DWORD PTR [esp], eax
	call	_purple_conv_chat_rename_user
LVL166:
	jmp	L282
LVL167:
L110:
	.loc 1 615 0
	mov	esi, DWORD PTR [esp+1164]
LVL168:
	.loc 1 616 0
	mov	edi, DWORD PTR [esp+1168]
LVL169:
	.loc 1 617 0
	mov	edx, DWORD PTR [esp+1172]
LVL170:
	.loc 1 623 0
	mov	ebx, DWORD PTR [esp+1196]
LVL171:
	.loc 1 625 0
	mov	eax, DWORD PTR [ebp+32]
	mov	DWORD PTR [esp+8], eax
	mov	eax, DWORD PTR [ebx]
	mov	DWORD PTR [esp+4], eax
	mov	DWORD PTR [esp], 2
	mov	DWORD PTR [esp+40], edx
	call	_purple_find_conversation_with_account
LVL172:
	mov	ebp, eax
LVL173:
	.loc 1 627 0
	test	eax, eax
	mov	edx, DWORD PTR [esp+40]
	je	L101
	.loc 1 630 0
	cmp	si, 2
	je	L134
	.loc 1 635 0
	mov	edi, DWORD PTR [edi]
LVL174:
L134:
	.loc 1 636 0
	test	edi, edi
	je	L101
	.loc 1 639 0
	test	edx, edx
	jne	L299
	.loc 1 645 0
	mov	esi, DWORD PTR [ebx]
LVL175:
	.loc 1 646 0
	mov	DWORD PTR [esp+4], OFFSET FLAT:LC21
	mov	DWORD PTR [esp], OFFSET FLAT:LC1
	call	_libintl_dgettext
LVL176:
	.loc 1 645 0
	mov	DWORD PTR [esp+16], esi
	mov	DWORD PTR [esp+12], edi
	mov	DWORD PTR [esp+8], eax
	mov	DWORD PTR [esp+4], 512
	lea	eax, [esp+92]
	mov	DWORD PTR [esp], eax
	call	_g_snprintf
LVL177:
L137:
	.loc 1 649 0
	mov	DWORD PTR [esp], 0
	call	_time
LVL178:
	mov	esi, eax
	mov	ebx, DWORD PTR [ebx]
LVL179:
	mov	DWORD PTR [esp], ebp
	call	_purple_conversation_get_chat_data
LVL180:
	mov	DWORD PTR [esp+16], esi
	mov	DWORD PTR [esp+12], 4
	.loc 1 650 0
	lea	edx, [esp+92]
	mov	DWORD PTR [esp+8], edx
	.loc 1 649 0
	mov	DWORD PTR [esp+4], ebx
	mov	DWORD PTR [esp], eax
	call	_purple_conv_chat_write
LVL181:
	.loc 1 651 0
	jmp	L101
LVL182:
L111:
LBB58:
	.loc 1 656 0
	mov	esi, DWORD PTR [esp+1164]
LVL183:
	.loc 1 657 0
	mov	edi, DWORD PTR [esp+1168]
LVL184:
	.loc 1 658 0
	mov	ecx, DWORD PTR [esp+1172]
	mov	DWORD PTR [esp+48], ecx
LVL185:
	.loc 1 659 0
	mov	edx, DWORD PTR [esp+1176]
	mov	DWORD PTR [esp+52], edx
LVL186:
	.loc 1 660 0
	mov	ebx, DWORD PTR [esp+1180]
LVL187:
	.loc 1 662 0
	mov	eax, DWORD PTR [ebp+32]
	mov	DWORD PTR [esp+8], eax
	mov	eax, DWORD PTR [ebx]
	mov	DWORD PTR [esp+4], eax
	mov	DWORD PTR [esp], 2
	call	_purple_find_conversation_with_account
LVL188:
	mov	ebp, eax
LVL189:
	.loc 1 664 0
	test	eax, eax
	je	L101
	.loc 1 667 0
	cmp	si, 2
	je	L139
	.loc 1 672 0
	mov	edi, DWORD PTR [edi]
LVL190:
L139:
	.loc 1 673 0
	test	edi, edi
	je	L101
	.loc 1 676 0
	mov	eax, DWORD PTR [esp+48]
LVL191:
	test	eax, eax
	je	L141
	.loc 1 677 0
	mov	DWORD PTR [esp+8], 512
	lea	esi, [esp+604]
LVL192:
	mov	DWORD PTR [esp+4], esi
	mov	ecx, DWORD PTR [esp+48]
	mov	DWORD PTR [esp], ecx
	call	_silcpurple_get_chumode_string
LVL193:
	.loc 1 679 0
	mov	DWORD PTR [esp+4], OFFSET FLAT:LC22
	mov	DWORD PTR [esp], OFFSET FLAT:LC1
	call	_libintl_dgettext
LVL194:
	.loc 1 680 0
	mov	DWORD PTR [esp+20], esi
	.loc 1 678 0
	mov	edx, DWORD PTR [esp+52]
	mov	DWORD PTR [esp+16], edx
	mov	DWORD PTR [esp+12], edi
	mov	DWORD PTR [esp+8], eax
	mov	DWORD PTR [esp+4], 512
	lea	ecx, [esp+92]
	mov	DWORD PTR [esp], ecx
	call	_g_snprintf
LVL195:
	.loc 1 681 0
	mov	esi, DWORD PTR [esp+48]
	and	esi, 1
	.loc 1 682 0
	neg	esi
	and	esi, 8
LVL196:
	.loc 1 683 0
	test	BYTE PTR [esp+48], 2
	je	L143
	.loc 1 684 0
	or	esi, 4
LVL197:
	jmp	L143
LVL198:
L117:
LBE58:
LBB59:
	.loc 1 843 0
	mov	edx, DWORD PTR [esp+1164]
	mov	DWORD PTR [esp+52], edx
LVL199:
	.loc 1 845 0
	mov	edx, DWORD PTR [esp+1172]
LVL200:
	mov	DWORD PTR [esp+60], edx
LVL201:
	.loc 1 846 0
	mov	esi, DWORD PTR [esp+1176]
LVL202:
	.loc 1 847 0
	mov	eax, DWORD PTR [esp+1180]
LVL203:
	.loc 1 850 0
	test	eax, eax
	je	L189
LBB60:
	.loc 1 855 0
	lea	edx, [esp+76]
LVL204:
	mov	DWORD PTR [esp+4], edx
	mov	DWORD PTR [esp], eax
	call	_silc_pkcs_public_key_encode
LVL205:
	mov	DWORD PTR [esp+56], eax
LVL206:
	.loc 1 856 0
	test	eax, eax
	je	L101
LVL207:
	.loc 1 858 0
	mov	eax, DWORD PTR [esp+76]
LVL208:
	mov	DWORD PTR [esp+8], eax
	mov	eax, DWORD PTR [esp+56]
	mov	DWORD PTR [esp+4], eax
	mov	DWORD PTR [esp], 0
	call	_silc_hash_fingerprint
LVL209:
	mov	ebx, eax
LVL210:
	.loc 1 438 0
	xor	eax, eax
LVL211:
	mov	ecx, -1
	mov	edi, ebx
	repne scasb
LVL212:
	not	ecx
	dec	ecx
	.loc 1 859 0
	xor	edx, edx
LVL213:
	.p2align 2,,3
L177:
	.loc 1 859 0 is_stmt 0 discriminator 1
	cmp	edx, ecx
	jae	L300
	.loc 1 860 0 is_stmt 1
	cmp	BYTE PTR [ebx+edx], 32
	je	L301
	.loc 1 859 0
	inc	edx
LVL214:
	jmp	L177
LVL215:
L112:
LBE60:
LBE59:
	.loc 1 697 0
	mov	ebx, DWORD PTR [esp+1164]
LVL216:
	.loc 1 698 0
	mov	eax, DWORD PTR [ebp+44]
	mov	DWORD PTR [esp], eax
	call	_silc_free
LVL217:
	.loc 1 699 0
	xor	eax, eax
	mov	ecx, -1
	mov	edi, ebx
	repne scasb
LVL218:
	not	ecx
	dec	ecx
	mov	DWORD PTR [esp+4], ecx
	mov	DWORD PTR [esp], ebx
	call	_silc_memdup
LVL219:
	mov	DWORD PTR [ebp+44], eax
	.loc 1 700 0
	jmp	L101
L114:
	.loc 1 703 0
	mov	ecx, DWORD PTR [esp+1164]
	mov	DWORD PTR [esp+48], ecx
LVL220:
	.loc 1 704 0
	mov	esi, DWORD PTR [esp+1168]
LVL221:
	.loc 1 705 0
	mov	ecx, DWORD PTR [esp+1172]
LVL222:
	mov	DWORD PTR [esp+52], ecx
LVL223:
	.loc 1 706 0
	mov	edi, DWORD PTR [esp+1176]
LVL224:
	.loc 1 708 0
	mov	eax, DWORD PTR [ebp+32]
	mov	DWORD PTR [esp+8], eax
	mov	eax, DWORD PTR [edi]
	mov	DWORD PTR [esp+4], eax
	mov	DWORD PTR [esp], 2
	mov	DWORD PTR [esp+40], edx
	call	_purple_find_conversation_with_account
LVL225:
	mov	ebp, eax
LVL226:
	.loc 1 710 0
	test	eax, eax
	mov	edx, DWORD PTR [esp+40]
	je	L101
	.loc 1 713 0
	mov	ebx, DWORD PTR [ebx]
	cmp	ebx, DWORD PTR [esp+48]
	je	L302
	.loc 1 724 0
	test	esi, esi
	je	L303
LVL227:
L146:
	mov	DWORD PTR [esp+4], OFFSET FLAT:LC25
	mov	DWORD PTR [esp], OFFSET FLAT:LC1
	call	_libintl_dgettext
LVL228:
	mov	DWORD PTR [esp+16], esi
	mov	edx, DWORD PTR [esp+52]
	mov	DWORD PTR [esp+12], edx
	mov	DWORD PTR [esp+8], eax
	mov	DWORD PTR [esp+4], 512
	lea	ecx, [esp+92]
	mov	DWORD PTR [esp], ecx
	call	_g_snprintf
LVL229:
	.loc 1 726 0
	mov	DWORD PTR [esp], ebp
	call	_purple_conversation_get_chat_data
LVL230:
	.loc 1 728 0
	lea	edx, [esp+92]
	mov	DWORD PTR [esp+8], edx
	.loc 1 726 0
	mov	ecx, DWORD PTR [esp+48]
	mov	DWORD PTR [esp+4], ecx
	mov	DWORD PTR [esp], eax
	call	_purple_conv_chat_remove_user
LVL231:
	jmp	L101
LVL232:
L115:
	.loc 1 734 0
	mov	esi, DWORD PTR [esp+1164]
LVL233:
	.loc 1 735 0
	mov	ecx, DWORD PTR [esp+1168]
	mov	DWORD PTR [esp+48], ecx
LVL234:
	.loc 1 736 0
	mov	eax, DWORD PTR [esp+1172]
LVL235:
	.loc 1 737 0
	mov	edi, DWORD PTR [esp+1176]
LVL236:
	.loc 1 739 0
	mov	ebx, DWORD PTR [ebx]
	mov	DWORD PTR [esp+52], ebx
	cmp	ebx, esi
	je	L304
	.loc 1 771 0
	cmp	ax, 2
	je	L305
	.loc 1 776 0
	cmp	ax, 1
	je	L306
	.loc 1 781 0
	cmp	ax, 3
	je	L307
LVL237:
L159:
	.loc 1 789 0
	lea	ebx, [esp+80]
	mov	DWORD PTR [esp+4], ebx
	mov	eax, DWORD PTR [esi+948]
	mov	DWORD PTR [esp], eax
	call	_silc_hash_table_list
LVL238:
	lea	edi, [esp+72]
LVL239:
	.p2align 2,,3
L284:
	.loc 1 790 0 discriminator 1
	mov	DWORD PTR [esp+8], edi
	mov	DWORD PTR [esp+4], 0
	mov	DWORD PTR [esp], ebx
	call	_silc_hash_table_get
LVL240:
	test	al, al
	je	L132
	.loc 1 791 0
	mov	eax, DWORD PTR [ebp+32]
	mov	DWORD PTR [esp+8], eax
	.loc 1 792 0
	mov	eax, DWORD PTR [esp+72]
	mov	eax, DWORD PTR [eax+8]
	.loc 1 791 0
	mov	eax, DWORD PTR [eax]
	mov	DWORD PTR [esp+4], eax
	mov	DWORD PTR [esp], 2
	call	_purple_find_conversation_with_account
LVL241:
	.loc 1 793 0
	test	eax, eax
	je	L284
	.loc 1 795 0
	mov	DWORD PTR [esp], eax
	call	_purple_conversation_get_chat_data
LVL242:
	mov	ecx, DWORD PTR [esp+48]
	mov	DWORD PTR [esp+8], ecx
	mov	DWORD PTR [esp+4], esi
	mov	DWORD PTR [esp], eax
	call	_purple_conv_chat_remove_user
LVL243:
	jmp	L284
LVL244:
L113:
	.loc 1 808 0
	mov	edx, DWORD PTR [esp+1168]
	mov	DWORD PTR [esp+52], edx
LVL245:
LBB63:
LBB64:
	.file 2 "../../../../win32-dev/silc-toolkit-1.1.10/include/silcdlist.h"
	.loc 2 159 0
	mov	eax, DWORD PTR [edx]
	mov	DWORD PTR [edx+8], eax
	mov	ecx, edx
	mov	dl, BYTE PTR [edx+16]
LVL246:
	and	edx, -3
	mov	BYTE PTR [ecx+16], dl
	.loc 2 160 0
	mov	DWORD PTR [ecx+20], 0
LVL247:
LBE64:
LBE63:
LBB65:
LBB66:
	.loc 2 299 0
	mov	DWORD PTR [ecx+24], 0
LVL248:
LBB67:
LBB68:
	.file 3 "../../../../win32-dev/silc-toolkit-1.1.10/include/silclist.h"
	.loc 3 339 0
	test	eax, eax
	je	L167
LBE68:
LBE67:
LBE66:
LBE65:
	.loc 1 813 0
	lea	ebx, [esp+80]
LBB76:
LBB73:
LBB71:
LBB69:
	.loc 3 340 0
	mov	ecx, DWORD PTR [esp+52]
LVL249:
	and	edx, 2
	je	L172
LVL250:
	.p2align 2,,3
L309:
	movzx	edx, WORD PTR [ecx+14]
	mov	edx, DWORD PTR [eax+edx]
L173:
	mov	ecx, DWORD PTR [esp+52]
LVL251:
	mov	DWORD PTR [ecx+8], edx
LBE69:
LBE71:
	.loc 2 300 0
	mov	DWORD PTR [ecx+20], eax
	.loc 2 302 0
	mov	eax, DWORD PTR [eax]
LVL252:
	mov	DWORD PTR [esp+48], eax
LBE73:
LBE76:
	.loc 1 811 0
	test	eax, eax
	je	L101
	.loc 1 813 0
	mov	DWORD PTR [esp+4], ebx
	mov	edx, DWORD PTR [esp+48]
	mov	eax, DWORD PTR [edx+948]
	mov	DWORD PTR [esp], eax
	call	_silc_hash_table_list
LVL253:
	.p2align 2,,3
L285:
	.loc 1 814 0 discriminator 1
	lea	eax, [esp+72]
	mov	DWORD PTR [esp+8], eax
	mov	DWORD PTR [esp+4], 0
	mov	DWORD PTR [esp], ebx
	call	_silc_hash_table_get
LVL254:
	test	al, al
	je	L308
	.loc 1 815 0
	mov	eax, DWORD PTR [ebp+32]
	mov	DWORD PTR [esp+8], eax
	.loc 1 816 0
	mov	eax, DWORD PTR [esp+72]
	mov	eax, DWORD PTR [eax+8]
	.loc 1 815 0
	mov	eax, DWORD PTR [eax]
	mov	DWORD PTR [esp+4], eax
	mov	DWORD PTR [esp], 2
	call	_purple_find_conversation_with_account
LVL255:
	mov	esi, eax
LVL256:
	.loc 1 817 0
	test	eax, eax
	je	L285
	.loc 1 821 0
	mov	DWORD PTR [esp+4], OFFSET FLAT:LC28
	mov	DWORD PTR [esp], OFFSET FLAT:LC1
	call	_libintl_dgettext
LVL257:
	mov	edi, eax
	.loc 1 819 0
	mov	DWORD PTR [esp], esi
	call	_purple_conversation_get_chat_data
LVL258:
	mov	DWORD PTR [esp+8], edi
	mov	ecx, DWORD PTR [esp+48]
	mov	DWORD PTR [esp+4], ecx
	mov	DWORD PTR [esp], eax
	call	_purple_conv_chat_remove_user
LVL259:
	jmp	L285
LVL260:
	.p2align 2,,3
L308:
	.loc 1 823 0
	mov	DWORD PTR [esp], ebx
	call	_silc_hash_table_list_reset
LVL261:
LBB77:
LBB74:
	.loc 2 299 0
	mov	edx, DWORD PTR [esp+52]
	mov	eax, DWORD PTR [edx+20]
	mov	DWORD PTR [edx+24], eax
LBB72:
LBB70:
	.loc 3 338 0
	mov	eax, DWORD PTR [edx+8]
LVL262:
	.loc 3 339 0
	test	eax, eax
	je	L167
	mov	dl, BYTE PTR [edx+16]
	.loc 3 340 0
	mov	ecx, DWORD PTR [esp+52]
	and	edx, 2
	jne	L309
LVL263:
L172:
	.loc 3 341 0
	movzx	edx, WORD PTR [ecx+12]
	.loc 3 340 0
	mov	edx, DWORD PTR [eax+edx]
	jmp	L173
LVL264:
	.p2align 2,,3
L132:
LBE70:
LBE72:
LBE74:
LBE77:
	.loc 1 531 0
	mov	DWORD PTR [esp], ebx
	call	_silc_hash_table_list_reset
LVL265:
	.loc 1 533 0
	jmp	L101
LVL266:
	.p2align 2,,3
L167:
LBB78:
LBB75:
	.loc 2 300 0
	mov	edx, DWORD PTR [esp+52]
	mov	DWORD PTR [edx+20], 0
	jmp	L101
LVL267:
	.p2align 2,,3
L301:
LBE75:
LBE78:
LBB79:
LBB61:
	.loc 1 861 0
	mov	BYTE PTR [ebx+edx], 95
	.loc 1 438 0
	mov	ecx, -1
	mov	edi, ebx
	repne scasb
	not	ecx
	dec	ecx
	.loc 1 859 0
	inc	edx
LVL268:
	jmp	L177
LVL269:
L141:
LBE61:
LBE79:
LBB80:
	.loc 1 687 0
	mov	DWORD PTR [esp+4], OFFSET FLAT:LC23
	mov	DWORD PTR [esp], OFFSET FLAT:LC1
	call	_libintl_dgettext
LVL270:
	.loc 1 686 0
	mov	edx, DWORD PTR [esp+52]
	mov	DWORD PTR [esp+16], edx
	mov	DWORD PTR [esp+12], edi
	mov	DWORD PTR [esp+8], eax
	mov	DWORD PTR [esp+4], 512
	lea	ecx, [esp+92]
	mov	DWORD PTR [esp], ecx
	call	_g_snprintf
LVL271:
	.loc 1 655 0
	xor	esi, esi
LVL272:
L143:
	.loc 1 690 0
	mov	DWORD PTR [esp], 0
	call	_time
LVL273:
	mov	edi, eax
LVL274:
	mov	ebx, DWORD PTR [ebx]
LVL275:
	mov	DWORD PTR [esp], ebp
	call	_purple_conversation_get_chat_data
LVL276:
	mov	DWORD PTR [esp+16], edi
	mov	DWORD PTR [esp+12], 4
	.loc 1 691 0
	lea	edx, [esp+92]
	mov	DWORD PTR [esp+8], edx
	.loc 1 690 0
	mov	DWORD PTR [esp+4], ebx
	mov	DWORD PTR [esp], eax
	call	_purple_conv_chat_write
LVL277:
	.loc 1 692 0
	mov	DWORD PTR [esp], ebp
	call	_purple_conversation_get_chat_data
LVL278:
	mov	DWORD PTR [esp+8], esi
	mov	ecx, DWORD PTR [esp+52]
	mov	DWORD PTR [esp+4], ecx
	mov	DWORD PTR [esp], eax
	call	_purple_conv_chat_user_set_flags
LVL279:
	.loc 1 693 0
	jmp	L101
LVL280:
L299:
LBE80:
	.loc 1 640 0
	mov	DWORD PTR [esp+8], 512
	lea	esi, [esp+604]
LVL281:
	mov	DWORD PTR [esp+4], esi
	mov	DWORD PTR [esp], edx
	call	_silcpurple_get_chmode_string
LVL282:
	.loc 1 641 0
	mov	edx, DWORD PTR [ebx]
	.loc 1 642 0
	mov	DWORD PTR [esp+4], OFFSET FLAT:LC20
	mov	DWORD PTR [esp], OFFSET FLAT:LC1
	mov	DWORD PTR [esp+40], edx
	call	_libintl_dgettext
LVL283:
	.loc 1 643 0
	mov	DWORD PTR [esp+20], esi
	.loc 1 641 0
	mov	edx, DWORD PTR [esp+40]
	mov	DWORD PTR [esp+16], edx
	mov	DWORD PTR [esp+12], edi
	mov	DWORD PTR [esp+8], eax
	mov	DWORD PTR [esp+4], 512
	lea	ecx, [esp+92]
	mov	DWORD PTR [esp], ecx
	call	_g_snprintf
LVL284:
	jmp	L137
LVL285:
L300:
LBB81:
LBB62:
	.loc 1 862 0
	call	_silcpurple_silcdir
LVL286:
	mov	DWORD PTR [esp+16], ebx
	mov	DWORD PTR [esp+12], eax
	mov	DWORD PTR [esp+8], OFFSET FLAT:LC30
	mov	DWORD PTR [esp+4], 511
	lea	edx, [esp+92]
	mov	DWORD PTR [esp], edx
	call	_g_snprintf
LVL287:
	.loc 1 866 0
	mov	DWORD PTR [esp], ebx
	call	_silc_free
LVL288:
	.loc 1 867 0
	mov	eax, DWORD PTR [esp+56]
	mov	DWORD PTR [esp], eax
	call	_silc_free
LVL289:
	.loc 1 870 0
	mov	DWORD PTR [esp+4], 0
	mov	eax, DWORD PTR [esp+48]
	mov	DWORD PTR [esp], eax
	call	_purple_find_buddies
LVL290:
	mov	edi, eax
LVL291:
	test	eax, eax
	jne	L250
	jmp	L189
LVL292:
	.p2align 2,,3
L310:
	.loc 1 871 0
	mov	DWORD PTR [esp+4], edi
	mov	DWORD PTR [esp], edi
	call	_g_slist_delete_link
LVL293:
	mov	edi, eax
LVL294:
	.loc 1 870 0
	test	eax, eax
	je	L189
L250:
	.loc 1 872 0
	mov	ebx, DWORD PTR [edi]
LVL295:
	.loc 1 873 0
	mov	DWORD PTR [esp+4], OFFSET FLAT:LC31
	mov	DWORD PTR [esp], ebx
	call	_purple_blist_node_get_string
LVL296:
	.loc 1 874 0
	lea	edx, [esp+92]
	mov	DWORD PTR [esp+4], edx
	mov	DWORD PTR [esp], eax
	call	_purple_strequal
LVL297:
	test	eax, eax
	je	L310
L180:
LBE62:
	.loc 1 880 0
	test	ebx, ebx
	jne	L182
LVL298:
L189:
	.loc 1 882 0
	mov	edx, DWORD PTR [esp+52]
	mov	DWORD PTR [esp+4], edx
	mov	eax, DWORD PTR [ebp+32]
	mov	DWORD PTR [esp], eax
	call	_purple_find_buddy
LVL299:
	mov	ebx, eax
LVL300:
	.loc 1 883 0
	test	eax, eax
	je	L311
LVL301:
L182:
	.loc 1 890 0
	mov	DWORD PTR [esp], ebx
	call	_purple_buddy_get_protocol_data
LVL302:
	mov	DWORD PTR [esp], eax
	call	_silc_free
LVL303:
	.loc 1 891 0
	mov	DWORD PTR [esp+4], 29
	mov	eax, DWORD PTR [esp+52]
	add	eax, 908
	mov	DWORD PTR [esp], eax
	call	_silc_memdup
LVL304:
	mov	DWORD PTR [esp+4], eax
	mov	DWORD PTR [esp], ebx
	call	_purple_buddy_set_protocol_data
LVL305:
	.loc 1 893 0
	cmp	si, 6
	je	L101
	.loc 1 895 0
	cmp	si, 14
	je	L312
	.loc 1 916 0
	cmp	si, 4
	je	L187
	.loc 1 916 0 is_stmt 0 discriminator 1
	cmp	si, 11
	je	L187
	.loc 1 917 0 is_stmt 1
	cmp	si, 13
	je	L187
	.loc 1 921 0
	test	si, si
	jne	L101
	.loc 1 922 0
	mov	ecx, DWORD PTR [esp+60]
	mov	edx, DWORD PTR [esp+52]
L291:
	mov	DWORD PTR [edx+940], ecx
	.loc 1 923 0
	mov	DWORD PTR [esp], ebx
	call	_purple_buddy_get_name
LVL306:
	mov	esi, eax
LVL307:
	mov	DWORD PTR [esp], ebx
	call	_purple_buddy_get_account
LVL308:
	mov	DWORD PTR [esp+12], 0
	mov	DWORD PTR [esp+8], OFFSET FLAT:LC33
	mov	DWORD PTR [esp+4], esi
	mov	DWORD PTR [esp], eax
	call	_purple_prpl_got_user_status
LVL309:
LBE81:
	.loc 1 926 0
	jmp	L101
LVL310:
L305:
	.loc 1 773 0
	mov	eax, DWORD PTR [esp+48]
LVL311:
	test	eax, eax
	je	L313
	mov	ebx, DWORD PTR [esp+48]
L158:
	.loc 1 774 0
	mov	DWORD PTR [esp+4], OFFSET FLAT:LC27
	mov	DWORD PTR [esp], OFFSET FLAT:LC1
	call	_libintl_dgettext
LVL312:
	.loc 1 773 0
	mov	DWORD PTR [esp+16], ebx
	mov	DWORD PTR [esp+12], edi
	mov	DWORD PTR [esp+8], eax
	mov	DWORD PTR [esp+4], 512
	lea	ecx, [esp+92]
	mov	DWORD PTR [esp], ecx
	call	_g_snprintf
LVL313:
	jmp	L159
LVL314:
L302:
	.loc 1 715 0
	test	esi, esi
	je	L314
LVL315:
L145:
	mov	edi, DWORD PTR [edi]
LVL316:
	.loc 1 716 0
	mov	DWORD PTR [esp+4], OFFSET FLAT:LC24
	mov	DWORD PTR [esp], OFFSET FLAT:LC1
	mov	DWORD PTR [esp+40], edx
	call	_libintl_dgettext
LVL317:
	.loc 1 715 0
	mov	DWORD PTR [esp+20], esi
	mov	ecx, DWORD PTR [esp+52]
	mov	DWORD PTR [esp+16], ecx
	mov	DWORD PTR [esp+12], edi
	mov	DWORD PTR [esp+8], eax
	mov	DWORD PTR [esp+4], 512
	lea	eax, [esp+92]
	mov	DWORD PTR [esp], eax
	call	_g_snprintf
LVL318:
	.loc 1 719 0
	mov	DWORD PTR [esp], 0
	call	_time
LVL319:
	mov	esi, eax
	mov	DWORD PTR [esp], ebp
	call	_purple_conversation_get_chat_data
LVL320:
	mov	DWORD PTR [esp+16], esi
	mov	DWORD PTR [esp+12], 4
	.loc 1 720 0
	lea	ecx, [esp+92]
	mov	DWORD PTR [esp+8], ecx
	.loc 1 719 0
	mov	DWORD PTR [esp+4], ebx
	mov	DWORD PTR [esp], eax
	call	_purple_conv_chat_write
LVL321:
	.loc 1 721 0
	mov	DWORD PTR [esp], ebp
	call	_purple_conversation_get_chat_data
LVL322:
	mov	DWORD PTR [esp], eax
	call	_purple_conv_chat_get_id
LVL323:
	mov	DWORD PTR [esp+4], eax
	mov	edx, DWORD PTR [esp+40]
	mov	DWORD PTR [esp], edx
	call	_serv_got_chat_left
LVL324:
	jmp	L101
LVL325:
L187:
LBB82:
	.loc 1 919 0
	mov	ecx, DWORD PTR [esp+60]
	mov	edx, DWORD PTR [esp+52]
	mov	DWORD PTR [edx+940], ecx
	.loc 1 920 0
	mov	DWORD PTR [esp], ebx
	call	_purple_buddy_get_name
LVL326:
	mov	esi, eax
LVL327:
	mov	DWORD PTR [esp], ebx
	call	_purple_buddy_get_account
LVL328:
	mov	DWORD PTR [esp+12], 0
	mov	DWORD PTR [esp+8], OFFSET FLAT:LC34
	mov	DWORD PTR [esp+4], esi
	mov	DWORD PTR [esp], eax
	call	_purple_prpl_got_user_status
LVL329:
	jmp	L101
LVL330:
L312:
	.loc 1 897 0
	test	DWORD PTR [esp+60], 1084
	jne	L187
	.loc 1 899 0
	mov	edx, DWORD PTR [esp+52]
	test	DWORD PTR [edx+940], 1084
	je	L101
	.loc 1 905 0
	mov	ecx, DWORD PTR [esp+60]
	jmp	L291
LVL331:
L306:
LBE82:
	.loc 1 778 0
	mov	ebx, DWORD PTR [esp+48]
	test	ebx, ebx
	je	L315
	mov	ebx, DWORD PTR [esp+48]
L161:
	.loc 1 778 0 is_stmt 0 discriminator 3
	mov	edi, DWORD PTR [edi]
LVL332:
	.loc 1 779 0 is_stmt 1 discriminator 3
	mov	DWORD PTR [esp+4], OFFSET FLAT:LC27
	mov	DWORD PTR [esp], OFFSET FLAT:LC1
	call	_libintl_dgettext
LVL333:
	.loc 1 778 0 discriminator 3
	mov	DWORD PTR [esp+16], ebx
	mov	DWORD PTR [esp+12], edi
	mov	DWORD PTR [esp+8], eax
	mov	DWORD PTR [esp+4], 512
	lea	eax, [esp+92]
	mov	DWORD PTR [esp], eax
	call	_g_snprintf
LVL334:
	jmp	L159
LVL335:
L298:
LBB83:
	.loc 1 575 0
	mov	ecx, DWORD PTR [esp+48]
	mov	esi, DWORD PTR [ecx]
	.loc 1 576 0
	mov	DWORD PTR [esp+4], OFFSET FLAT:LC19
	mov	DWORD PTR [esp], OFFSET FLAT:LC1
	call	_libintl_dgettext
LVL336:
	.loc 1 575 0
	mov	edx, DWORD PTR [esp+52]
	mov	DWORD PTR [esp+20], edx
	mov	DWORD PTR [esp+16], esi
	mov	DWORD PTR [esp+12], esi
LVL337:
L289:
	mov	DWORD PTR [esp+8], eax
	mov	DWORD PTR [esp+4], 512
	lea	ecx, [esp+92]
	mov	DWORD PTR [esp], ecx
	call	_g_snprintf
LVL338:
	.loc 1 578 0
	mov	DWORD PTR [esp], 0
	call	_time
LVL339:
	mov	esi, eax
	mov	edx, DWORD PTR [esp+48]
	mov	ebp, DWORD PTR [edx]
	mov	DWORD PTR [esp], edi
	call	_purple_conversation_get_chat_data
LVL340:
	mov	DWORD PTR [esp+16], esi
	mov	DWORD PTR [esp+12], 4
	.loc 1 579 0
	lea	ecx, [esp+92]
	mov	DWORD PTR [esp+8], ecx
	.loc 1 578 0
	mov	DWORD PTR [esp+4], ebp
	mov	DWORD PTR [esp], eax
	call	_purple_conv_chat_write
LVL341:
	.loc 1 581 0
	mov	edx, DWORD PTR [esp+48]
	mov	esi, DWORD PTR [edx]
	.loc 1 580 0
	mov	DWORD PTR [esp], edi
	call	_purple_conversation_get_chat_data
LVL342:
	mov	DWORD PTR [esp+8], ebx
	mov	DWORD PTR [esp+4], esi
	mov	DWORD PTR [esp], eax
	call	_purple_conv_chat_set_topic
LVL343:
	jmp	L125
LVL344:
L304:
LBE83:
	.loc 1 740 0
	cmp	ax, 2
	je	L316
	.loc 1 745 0
	cmp	ax, 1
	je	L293
	.loc 1 750 0
	cmp	ax, 3
	je	L293
LVL345:
L150:
	.loc 1 758 0
	lea	ebx, [esp+80]
	mov	DWORD PTR [esp+4], ebx
	mov	ecx, DWORD PTR [esp+52]
	mov	eax, DWORD PTR [ecx+948]
	mov	DWORD PTR [esp], eax
	mov	DWORD PTR [esp+40], edx
	call	_silc_hash_table_list
LVL346:
	lea	edi, [esp+72]
LVL347:
	mov	edx, DWORD PTR [esp+40]
	mov	DWORD PTR [esp+48], edx
LVL348:
	.p2align 2,,3
L283:
	.loc 1 759 0 discriminator 1
	mov	DWORD PTR [esp+8], edi
	mov	DWORD PTR [esp+4], 0
	mov	DWORD PTR [esp], ebx
	call	_silc_hash_table_get
LVL349:
	test	al, al
	je	L132
	.loc 1 760 0
	mov	eax, DWORD PTR [ebp+32]
	mov	DWORD PTR [esp+8], eax
	.loc 1 761 0
	mov	eax, DWORD PTR [esp+72]
	mov	eax, DWORD PTR [eax+8]
	.loc 1 760 0
	mov	eax, DWORD PTR [eax]
	mov	DWORD PTR [esp+4], eax
	mov	DWORD PTR [esp], 2
	call	_purple_find_conversation_with_account
LVL350:
	mov	esi, eax
LVL351:
	.loc 1 762 0
	test	eax, eax
	je	L283
	.loc 1 764 0
	mov	DWORD PTR [esp], 0
	call	_time
LVL352:
	mov	DWORD PTR [esp], esi
	mov	DWORD PTR [esp+40], eax
	call	_purple_conversation_get_chat_data
LVL353:
	mov	ecx, DWORD PTR [esp+40]
	mov	DWORD PTR [esp+16], ecx
	mov	DWORD PTR [esp+12], 4
	.loc 1 765 0
	lea	edx, [esp+92]
	mov	DWORD PTR [esp+8], edx
	.loc 1 764 0
	mov	ecx, DWORD PTR [esp+52]
	mov	DWORD PTR [esp+4], ecx
	mov	DWORD PTR [esp], eax
	call	_purple_conv_chat_write
LVL354:
	.loc 1 766 0
	mov	DWORD PTR [esp], esi
	call	_purple_conversation_get_chat_data
LVL355:
	mov	DWORD PTR [esp], eax
	call	_purple_conv_chat_get_id
LVL356:
	mov	DWORD PTR [esp+4], eax
	mov	edx, DWORD PTR [esp+48]
	mov	DWORD PTR [esp], edx
	call	_serv_got_chat_left
LVL357:
	jmp	L283
LVL358:
L307:
	.loc 1 783 0
	mov	ecx, DWORD PTR [esp+48]
LVL359:
	test	ecx, ecx
	je	L317
	mov	ebx, DWORD PTR [esp+48]
L162:
	.loc 1 783 0 is_stmt 0 discriminator 3
	mov	edi, DWORD PTR [edi]
LVL360:
	.loc 1 784 0 is_stmt 1 discriminator 3
	mov	DWORD PTR [esp+4], OFFSET FLAT:LC27
	mov	DWORD PTR [esp], OFFSET FLAT:LC1
	call	_libintl_dgettext
LVL361:
	.loc 1 783 0 discriminator 3
	mov	DWORD PTR [esp+16], ebx
	mov	DWORD PTR [esp+12], edi
	mov	DWORD PTR [esp+8], eax
	mov	DWORD PTR [esp+4], 512
	lea	edx, [esp+92]
	mov	DWORD PTR [esp], edx
	call	_g_snprintf
LVL362:
	jmp	L159
LVL363:
L296:
LBB84:
	.loc 1 557 0
	mov	esi, DWORD PTR [esi]
LVL364:
	.loc 1 558 0
	mov	DWORD PTR [esp+4], OFFSET FLAT:LC19
	mov	DWORD PTR [esp], OFFSET FLAT:LC1
	call	_libintl_dgettext
LVL365:
	.loc 1 557 0
	mov	edx, DWORD PTR [esp+52]
	mov	DWORD PTR [esp+20], edx
	mov	DWORD PTR [esp+16], esi
	mov	ecx, DWORD PTR [esp+48]
	mov	DWORD PTR [esp+12], ecx
	mov	DWORD PTR [esp+8], eax
	mov	DWORD PTR [esp+4], 512
	lea	eax, [esp+92]
	mov	DWORD PTR [esp], eax
	call	_g_snprintf
LVL366:
	.loc 1 560 0
	mov	DWORD PTR [esp], 0
	call	_time
LVL367:
	mov	esi, eax
	mov	DWORD PTR [esp], edi
	call	_purple_conversation_get_chat_data
LVL368:
	mov	DWORD PTR [esp+16], esi
	mov	DWORD PTR [esp+12], 4
	.loc 1 561 0
	lea	edx, [esp+92]
	mov	DWORD PTR [esp+8], edx
	.loc 1 560 0
	mov	ecx, DWORD PTR [esp+48]
	mov	DWORD PTR [esp+4], ecx
	mov	DWORD PTR [esp], eax
	call	_purple_conv_chat_write
LVL369:
	.loc 1 562 0
	mov	DWORD PTR [esp], edi
	call	_purple_conversation_get_chat_data
LVL370:
	mov	DWORD PTR [esp+8], ebx
	mov	edx, DWORD PTR [esp+48]
	mov	DWORD PTR [esp+4], edx
	mov	DWORD PTR [esp], eax
	call	_purple_conv_chat_set_topic
LVL371:
	jmp	L125
LVL372:
L303:
LBE84:
	.loc 1 724 0
	mov	esi, OFFSET FLAT:LC16
LVL373:
	jmp	L146
LVL374:
L297:
LBB85:
	.loc 1 566 0
	mov	esi, DWORD PTR [esi]
LVL375:
	mov	ecx, DWORD PTR [esp+48]
	mov	ebp, DWORD PTR [ecx]
	.loc 1 567 0
	mov	DWORD PTR [esp+4], OFFSET FLAT:LC19
	mov	DWORD PTR [esp], OFFSET FLAT:LC1
	call	_libintl_dgettext
LVL376:
	.loc 1 566 0
	mov	edx, DWORD PTR [esp+52]
	mov	DWORD PTR [esp+20], edx
	mov	DWORD PTR [esp+16], esi
	mov	DWORD PTR [esp+12], ebp
	jmp	L289
LVL377:
L293:
LBE85:
	.loc 1 752 0
	mov	eax, DWORD PTR [esp+48]
LVL378:
	test	eax, eax
	je	L318
L153:
	.loc 1 752 0 is_stmt 0 discriminator 3
	mov	ebx, DWORD PTR [edi]
	.loc 1 753 0 is_stmt 1 discriminator 3
	mov	DWORD PTR [esp+4], OFFSET FLAT:LC26
	mov	DWORD PTR [esp], OFFSET FLAT:LC1
	mov	DWORD PTR [esp+40], edx
	call	_libintl_dgettext
LVL379:
	.loc 1 752 0 discriminator 3
	mov	ecx, DWORD PTR [esp+48]
	mov	DWORD PTR [esp+16], ecx
	mov	DWORD PTR [esp+12], ebx
LVL380:
L290:
	mov	DWORD PTR [esp+8], eax
	mov	DWORD PTR [esp+4], 512
	lea	eax, [esp+92]
	mov	DWORD PTR [esp], eax
	call	_g_snprintf
LVL381:
	mov	edx, DWORD PTR [esp+40]
	jmp	L150
LVL382:
L316:
	.loc 1 742 0
	test	ecx, ecx
	je	L319
L149:
	.loc 1 743 0
	mov	DWORD PTR [esp+4], OFFSET FLAT:LC26
	mov	DWORD PTR [esp], OFFSET FLAT:LC1
	mov	DWORD PTR [esp+40], edx
	call	_libintl_dgettext
LVL383:
	.loc 1 742 0
	mov	ecx, DWORD PTR [esp+48]
	mov	DWORD PTR [esp+16], ecx
	mov	DWORD PTR [esp+12], edi
	jmp	L290
LVL384:
L313:
	.loc 1 773 0
	mov	ebx, OFFSET FLAT:LC16
	jmp	L158
LVL385:
L315:
	.loc 1 778 0
	mov	ebx, OFFSET FLAT:LC16
	jmp	L161
LVL386:
L317:
	.loc 1 783 0
	mov	ebx, OFFSET FLAT:LC16
	jmp	L162
LVL387:
L314:
	.loc 1 715 0
	mov	esi, OFFSET FLAT:LC16
LVL388:
	jmp	L145
LVL389:
L319:
	.loc 1 742 0
	mov	DWORD PTR [esp+48], OFFSET FLAT:LC16
	jmp	L149
LVL390:
L295:
	.loc 1 934 0
	call	___stack_chk_fail
LVL391:
L311:
LBB86:
	.loc 1 884 0
	mov	edx, DWORD PTR [esp+52]
	mov	DWORD PTR [esp+8], edx
	mov	DWORD PTR [esp+4], OFFSET FLAT:LC32
	mov	DWORD PTR [esp], OFFSET FLAT:LC11
	call	_purple_debug_warning
LVL392:
	jmp	L101
LVL393:
L318:
LBE86:
	.loc 1 752 0
	mov	DWORD PTR [esp+48], OFFSET FLAT:LC16
	jmp	L153
	.cfi_endproc
LFE171:
	.section .rdata,"dr"
LC36:
	.ascii "mixed\0"
LC37:
	.ascii "alternative\0"
LC38:
	.ascii "Content-Type\0"
LC39:
	.ascii "text/plain\0"
LC40:
	.ascii "utf-8\0"
LC41:
	.ascii "image/png\0"
LC42:
	.ascii "image/jpeg\0"
LC43:
	.ascii "image/gif\0"
LC44:
	.ascii "image/tiff\0"
LC45:
	.ascii "<IMG ID=\"%d\">\0"
LC46:
	.ascii "application/x-wb\0"
LC47:
	.ascii "block-wb\0"
	.text
	.p2align 2,,3
	.def	_silcpurple_mime_message;	.scl	3;	.type	32;	.endef
_silcpurple_mime_message:
LFB168:
	.loc 1 89 0
	.cfi_startproc
LVL394:
	push	ebp
LCFI108:
	.cfi_def_cfa_offset 8
	.cfi_offset 5, -8
	push	edi
LCFI109:
	.cfi_def_cfa_offset 12
	.cfi_offset 7, -12
	push	esi
LCFI110:
	.cfi_def_cfa_offset 16
	.cfi_offset 6, -16
	push	ebx
LCFI111:
	.cfi_def_cfa_offset 20
	.cfi_offset 3, -20
	sub	esp, 156
LCFI112:
	.cfi_def_cfa_offset 176
	mov	DWORD PTR [esp+56], eax
	mov	DWORD PTR [esp+68], edx
	mov	DWORD PTR [esp+64], ecx
	mov	eax, DWORD PTR [esp+176]
LVL395:
	mov	DWORD PTR [esp+72], eax
	mov	edx, DWORD PTR [esp+180]
LVL396:
	mov	DWORD PTR [esp+76], edx
	mov	ecx, DWORD PTR [esp+184]
LVL397:
	mov	DWORD PTR [esp+84], ecx
	mov	ebp, DWORD PTR [esp+192]
	mov	eax, DWORD PTR [esp+196]
	mov	DWORD PTR [esp+88], eax
	mov	edx, DWORD PTR [esp+188]
	mov	WORD PTR [esp+80], dx
	.loc 1 89 0
	mov	ecx, DWORD PTR ___stack_chk_guard
	mov	DWORD PTR [esp+140], ecx
	xor	ecx, ecx
	.loc 1 90 0
	mov	eax, DWORD PTR [esp+56]
	mov	ebx, DWORD PTR [eax+20]
LVL398:
	.loc 1 91 0
	mov	esi, DWORD PTR [ebx+28]
LVL399:
	.loc 1 99 0
	test	ebp, ebp
	je	L325
	.loc 1 103 0
	mov	DWORD PTR [esp], ebp
	call	_silc_mime_is_partial
LVL400:
	test	al, al
	je	L323
	.loc 1 104 0
	mov	eax, DWORD PTR [esi+52]
	test	eax, eax
	je	L392
L324:
	.loc 1 108 0
	mov	DWORD PTR [esp+4], ebp
	mov	DWORD PTR [esp], eax
	call	_silc_mime_assemble
LVL401:
	.loc 1 109 0
	test	eax, eax
	je	L325
	.loc 1 114 0
	mov	DWORD PTR [esp+20], 0
	mov	DWORD PTR [esp+16], eax
	movzx	eax, WORD PTR [esp+80]
LVL402:
	mov	DWORD PTR [esp+12], eax
	mov	edx, DWORD PTR [esp+84]
	mov	DWORD PTR [esp+8], edx
	mov	ecx, DWORD PTR [esp+76]
	mov	DWORD PTR [esp+4], ecx
	mov	eax, DWORD PTR [esp+72]
	mov	DWORD PTR [esp], eax
	mov	ecx, DWORD PTR [esp+64]
	mov	edx, DWORD PTR [esp+68]
	mov	eax, DWORD PTR [esp+56]
	call	_silcpurple_mime_message
LVL403:
	mov	BYTE PTR [esp+60], al
LVL404:
L322:
	.loc 1 246 0
	mov	al, BYTE PTR [esp+60]
	mov	edx, DWORD PTR [esp+140]
	xor	edx, DWORD PTR ___stack_chk_guard
	jne	L393
	add	esp, 156
LCFI113:
	.cfi_remember_state
	.cfi_def_cfa_offset 20
	pop	ebx
LCFI114:
	.cfi_restore 3
	.cfi_def_cfa_offset 16
	pop	esi
LCFI115:
	.cfi_restore 6
	.cfi_def_cfa_offset 12
	pop	edi
LCFI116:
	.cfi_restore 7
	.cfi_def_cfa_offset 8
	pop	ebp
LCFI117:
	.cfi_restore 5
	.cfi_def_cfa_offset 4
	ret
LVL405:
	.p2align 2,,3
L325:
LCFI118:
	.cfi_restore_state
	.loc 1 100 0
	mov	BYTE PTR [esp+60], 0
	jmp	L322
LVL406:
	.p2align 2,,3
L323:
	.loc 1 120 0
	mov	DWORD PTR [esp], ebp
	call	_silc_mime_is_multipart
LVL407:
	test	al, al
	jne	L394
	.loc 1 154 0
	mov	DWORD PTR [esp+4], OFFSET FLAT:LC38
	mov	DWORD PTR [esp], ebp
	call	_silc_mime_get_field
LVL408:
	mov	edi, eax
LVL409:
	.loc 1 155 0
	test	eax, eax
	je	L354
	.loc 1 157 0
	lea	eax, [esp+100]
LVL410:
	mov	DWORD PTR [esp+4], eax
	mov	DWORD PTR [esp], ebp
	call	_silc_mime_get_data
LVL411:
	mov	DWORD PTR [esp+60], eax
LVL412:
	.loc 1 158 0
	test	eax, eax
	je	L354
	.loc 1 164 0
	mov	DWORD PTR [esp+4], OFFSET FLAT:LC39
	mov	DWORD PTR [esp], edi
	call	_strstr
LVL413:
	test	eax, eax
	je	L342
	.loc 1 166 0
	mov	DWORD PTR [esp+4], OFFSET FLAT:LC40
	mov	DWORD PTR [esp], edi
	call	_strstr
LVL414:
	test	eax, eax
	je	L354
LVL415:
	.loc 1 170 0
	mov	eax, DWORD PTR [esp+100]
	.loc 1 169 0
	mov	ebx, DWORD PTR [esp+72]
LVL416:
	test	ebx, ebx
	je	L343
	.loc 1 170 0
	mov	DWORD PTR [esp+32], eax
LVL417:
	mov	eax, DWORD PTR [esp+60]
LVL418:
	mov	DWORD PTR [esp+28], eax
	mov	DWORD PTR [esp+24], 256
	mov	edx, DWORD PTR [esp+84]
	mov	DWORD PTR [esp+20], edx
	mov	ecx, DWORD PTR [esp+76]
	mov	DWORD PTR [esp+16], ecx
	mov	eax, DWORD PTR [esp+72]
	mov	DWORD PTR [esp+12], eax
	mov	ecx, DWORD PTR [esp+64]
	mov	DWORD PTR [esp+8], ecx
	mov	edx, DWORD PTR [esp+68]
	mov	DWORD PTR [esp+4], edx
	mov	eax, DWORD PTR [esp+56]
	mov	DWORD PTR [esp], eax
	call	_silc_channel_message
LVL419:
	.loc 1 178 0
	mov	BYTE PTR [esp+60], 1
	jmp	L339
LVL420:
	.p2align 2,,3
L394:
LBB102:
	.loc 1 123 0
	lea	eax, [esp+104]
	mov	DWORD PTR [esp+4], eax
	mov	DWORD PTR [esp], ebp
	call	_silc_mime_get_multiparts
LVL421:
	mov	ebx, eax
LVL422:
	.loc 1 125 0
	mov	eax, DWORD PTR [esp+104]
LVL423:
	mov	edi, OFFSET FLAT:LC36
	mov	ecx, 6
	mov	esi, eax
LVL424:
	repe cmpsb
	jne	L359
LVL425:
LBB103:
LBB104:
	.loc 2 159 0
	mov	edx, DWORD PTR [ebx]
	mov	DWORD PTR [ebx+8], edx
	mov	cl, BYTE PTR [ebx+16]
	and	ecx, -3
	mov	BYTE PTR [ebx+16], cl
	.loc 2 160 0
	mov	DWORD PTR [ebx+20], 0
LVL426:
LBE104:
LBE103:
LBB105:
LBB106:
	.loc 2 299 0
	mov	DWORD PTR [ebx+24], 0
LVL427:
LBB107:
LBB108:
	.loc 3 339 0
	mov	BYTE PTR [esp+60], 0
	test	edx, edx
	je	L329
LBE108:
LBE107:
LBE106:
LBE105:
	.loc 1 130 0
	movzx	esi, WORD PTR [esp+80]
	xor	eax, eax
	mov	edi, DWORD PTR [esp+76]
	mov	DWORD PTR [esp+92], ebp
	mov	ebp, DWORD PTR [esp+84]
	jmp	L328
LVL428:
	.p2align 2,,3
L396:
LBB115:
LBB113:
LBB111:
LBB109:
	.loc 3 340 0
	movzx	ecx, WORD PTR [ebx+14]
	mov	ecx, DWORD PTR [edx+ecx]
L331:
	mov	DWORD PTR [ebx+8], ecx
LBE109:
LBE111:
	.loc 2 300 0
	mov	DWORD PTR [ebx+20], edx
	.loc 2 302 0
	mov	edx, DWORD PTR [edx]
LVL429:
LBE113:
LBE115:
	.loc 1 128 0
	test	edx, edx
	je	L395
	.loc 1 130 0
	mov	DWORD PTR [esp+20], 1
	mov	DWORD PTR [esp+16], edx
	mov	DWORD PTR [esp+12], esi
	mov	DWORD PTR [esp+8], ebp
	mov	DWORD PTR [esp+4], edi
	mov	edx, DWORD PTR [esp+72]
	mov	DWORD PTR [esp], edx
	mov	ecx, DWORD PTR [esp+64]
	mov	edx, DWORD PTR [esp+68]
	mov	eax, DWORD PTR [esp+56]
	call	_silcpurple_mime_message
LVL430:
LBB116:
LBB114:
	.loc 2 299 0
	mov	edx, DWORD PTR [ebx+20]
	mov	DWORD PTR [ebx+24], edx
LBB112:
LBB110:
	.loc 3 338 0
	mov	edx, DWORD PTR [ebx+8]
LVL431:
	.loc 3 339 0
	test	edx, edx
	je	L388
	mov	cl, BYTE PTR [ebx+16]
LVL432:
L328:
	.loc 3 340 0
	and	ecx, 2
	jne	L396
	.loc 3 341 0
	movzx	ecx, WORD PTR [ebx+12]
	.loc 3 340 0
	mov	ecx, DWORD PTR [edx+ecx]
	jmp	L331
LVL433:
	.p2align 2,,3
L388:
	mov	BYTE PTR [esp+60], al
	mov	ebp, DWORD PTR [esp+92]
	mov	eax, DWORD PTR [esp+104]
LVL434:
L329:
LBE110:
LBE112:
	.loc 2 300 0
	mov	DWORD PTR [ebx+20], 0
LVL435:
L327:
LBE114:
LBE116:
	.loc 1 135 0
	mov	edi, OFFSET FLAT:LC37
	mov	ecx, 12
	mov	esi, eax
	repe cmpsb
	jne	L339
LVL436:
LBB117:
LBB118:
	.loc 2 180 0
	mov	eax, DWORD PTR [ebx+4]
	mov	DWORD PTR [ebx+8], eax
	or	BYTE PTR [ebx+16], 2
	.loc 2 181 0
	mov	DWORD PTR [ebx+20], 0
	xor	edx, edx
LBE118:
LBE117:
	.loc 1 142 0
	movzx	esi, WORD PTR [esp+80]
	mov	edi, DWORD PTR [esp+84]
	mov	DWORD PTR [esp+80], ebp
	mov	ebp, DWORD PTR [esp+72]
	jmp	L334
LVL437:
	.p2align 2,,3
L398:
LBB119:
LBB120:
LBB121:
LBB122:
	.loc 3 340 0
	movzx	edx, WORD PTR [ebx+14]
	mov	edx, DWORD PTR [eax+edx]
L337:
	mov	DWORD PTR [ebx+8], edx
LBE122:
LBE121:
	.loc 2 300 0
	mov	DWORD PTR [ebx+20], eax
	.loc 2 302 0
	mov	eax, DWORD PTR [eax]
LVL438:
LBE120:
LBE119:
	.loc 1 139 0
	test	eax, eax
	je	L397
	.loc 1 142 0
	mov	DWORD PTR [esp+20], 1
	mov	DWORD PTR [esp+16], eax
	mov	DWORD PTR [esp+12], esi
	mov	DWORD PTR [esp+8], edi
	mov	ecx, DWORD PTR [esp+76]
	mov	DWORD PTR [esp+4], ecx
	mov	DWORD PTR [esp], ebp
	mov	ecx, DWORD PTR [esp+64]
	mov	edx, DWORD PTR [esp+68]
	mov	eax, DWORD PTR [esp+56]
	call	_silcpurple_mime_message
LVL439:
	test	al, al
	jne	L361
	mov	edx, DWORD PTR [ebx+20]
	mov	eax, DWORD PTR [ebx+8]
LVL440:
L334:
LBB127:
LBB125:
	.loc 2 299 0 discriminator 1
	mov	DWORD PTR [ebx+24], edx
LVL441:
LBB124:
LBB123:
	.loc 3 339 0 discriminator 1
	test	eax, eax
	je	L335
	.loc 3 340 0
	test	BYTE PTR [ebx+16], 2
	jne	L398
	.loc 3 341 0
	movzx	edx, WORD PTR [ebx+12]
	.loc 3 340 0
	mov	edx, DWORD PTR [eax+edx]
	jmp	L337
LVL442:
	.p2align 2,,3
L354:
LBE123:
LBE124:
LBE125:
LBE127:
LBE102:
LBB129:
	.loc 1 97 0
	mov	BYTE PTR [esp+60], 0
LVL443:
L339:
LBE129:
	.loc 1 243 0
	mov	eax, DWORD PTR [esp+88]
	test	eax, eax
	jne	L322
	.loc 1 244 0
	mov	DWORD PTR [esp], ebp
	call	_silc_mime_free
LVL444:
	jmp	L322
LVL445:
	.p2align 2,,3
L359:
LBB132:
	.loc 1 97 0
	mov	BYTE PTR [esp+60], 0
	jmp	L327
LVL446:
	.p2align 2,,3
L335:
	mov	ebp, DWORD PTR [esp+80]
LBB128:
LBB126:
	.loc 2 300 0
	mov	DWORD PTR [ebx+20], 0
	jmp	L339
LVL447:
	.p2align 2,,3
L361:
	mov	ebp, DWORD PTR [esp+80]
LBE126:
LBE128:
	.loc 1 144 0
	mov	BYTE PTR [esp+60], 1
	jmp	L339
LVL448:
	.p2align 2,,3
L392:
LBE132:
	.loc 1 105 0
	call	_silc_mime_assembler_alloc
LVL449:
	mov	DWORD PTR [esi+52], eax
	jmp	L324
LVL450:
L342:
	.loc 1 183 0
	mov	DWORD PTR [esp+4], OFFSET FLAT:LC41
	mov	DWORD PTR [esp], edi
	call	_strstr
LVL451:
	test	eax, eax
	je	L399
L344:
LBB133:
	.loc 1 191 0
	mov	ecx, DWORD PTR [esp+84]
	test	ecx, ecx
	je	L346
	.loc 1 191 0 is_stmt 0 discriminator 1
	mov	edx, DWORD PTR [esp+72]
	test	edx, edx
	je	L363
LBB130:
	.loc 1 195 0 is_stmt 1
	mov	eax, DWORD PTR [esi+40]
LVL452:
	test	eax, eax
	je	L348
	.loc 1 196 0
	mov	edx, DWORD PTR [eax]
	mov	ecx, DWORD PTR [esp+84]
	cmp	DWORD PTR [edx+16], ecx
	je	L349
	mov	ecx, DWORD PTR [esp+84]
	jmp	L379
	.p2align 2,,3
L352:
	mov	edx, DWORD PTR [eax]
	cmp	DWORD PTR [edx+16], ecx
	je	L349
L379:
	.loc 1 195 0
	mov	eax, DWORD PTR [eax+4]
LVL453:
	test	eax, eax
	jne	L352
LVL454:
L348:
LBE130:
	.loc 1 204 0
	mov	eax, DWORD PTR [esi+32]
	mov	DWORD PTR [esp+8], eax
	mov	edx, DWORD PTR [esp+72]
	mov	eax, DWORD PTR [edx]
	mov	DWORD PTR [esp+4], eax
	mov	DWORD PTR [esp], 2
	call	_purple_find_conversation_with_account
LVL455:
	mov	DWORD PTR [esp+56], eax
LVL456:
	.loc 1 206 0
	test	eax, eax
	je	L354
LVL457:
L347:
	.loc 1 209 0
	mov	esi, DWORD PTR [esp+100]
LVL458:
	mov	DWORD PTR [esp+4], esi
	mov	eax, DWORD PTR [esp+60]
	mov	DWORD PTR [esp], eax
	call	_g_memdup
LVL459:
	mov	DWORD PTR [esp+8], OFFSET FLAT:LC16
	mov	DWORD PTR [esp+4], esi
	mov	DWORD PTR [esp], eax
	call	_purple_imgstore_add_with_id
LVL460:
	mov	edi, eax
LVL461:
	.loc 1 210 0
	test	eax, eax
	je	L354
LVL462:
	.loc 1 212 0
	mov	DWORD PTR [esp+12], eax
	mov	DWORD PTR [esp+8], OFFSET FLAT:LC45
	mov	DWORD PTR [esp+4], 32
	lea	esi, [esp+108]
	mov	DWORD PTR [esp], esi
	call	_g_snprintf
LVL463:
	.loc 1 214 0
	mov	eax, DWORD PTR [esp+72]
	test	eax, eax
	.loc 1 215 0
	mov	DWORD PTR [esp], 0
	.loc 1 214 0
	je	L355
	.loc 1 215 0
	call	_time
LVL464:
	mov	edx, eax
	mov	eax, DWORD PTR [esp+56]
	mov	DWORD PTR [esp], eax
	mov	DWORD PTR [esp+52], edx
	call	_purple_conversation_get_chat_data
LVL465:
	mov	DWORD PTR [esp], eax
	call	_purple_conv_chat_get_id
LVL466:
	mov	edx, DWORD PTR [esp+52]
	mov	DWORD PTR [esp+20], edx
	.loc 1 217 0
	mov	DWORD PTR [esp+16], esi
	.loc 1 215 0
	mov	DWORD PTR [esp+12], 4098
	mov	ecx, DWORD PTR [esp+64]
	mov	DWORD PTR [esp+8], ecx
	mov	DWORD PTR [esp+4], eax
	mov	DWORD PTR [esp], ebx
	call	_serv_got_chat_in
LVL467:
L356:
	.loc 1 222 0
	mov	DWORD PTR [esp], edi
	call	_purple_imgstore_unref_by_id
LVL468:
	.loc 1 224 0
	mov	BYTE PTR [esp+60], 1
	jmp	L339
LVL469:
L343:
LBE133:
	.loc 1 175 0
	mov	DWORD PTR [esp+24], eax
	mov	eax, DWORD PTR [esp+60]
LVL470:
	mov	DWORD PTR [esp+20], eax
	mov	DWORD PTR [esp+16], 256
	mov	edx, DWORD PTR [esp+76]
	mov	DWORD PTR [esp+12], edx
	mov	ecx, DWORD PTR [esp+64]
	mov	DWORD PTR [esp+8], ecx
	mov	edx, DWORD PTR [esp+68]
	mov	DWORD PTR [esp+4], edx
	mov	eax, DWORD PTR [esp+56]
	mov	DWORD PTR [esp], eax
	call	_silc_private_message
LVL471:
	.loc 1 178 0
	mov	BYTE PTR [esp+60], 1
	jmp	L339
LVL472:
L349:
LBB134:
LBB131:
	.loc 1 198 0
	mov	eax, DWORD PTR [esi+32]
LVL473:
	mov	DWORD PTR [esp+8], eax
	mov	eax, DWORD PTR [edx+4]
	mov	DWORD PTR [esp+4], eax
	mov	DWORD PTR [esp], 2
	call	_purple_find_conversation_with_account
LVL474:
	mov	DWORD PTR [esp+56], eax
LVL475:
LBE131:
	.loc 1 203 0
	test	eax, eax
	jne	L347
	jmp	L348
LVL476:
	.p2align 2,,3
L399:
LBE134:
	.loc 1 184 0 discriminator 1
	mov	DWORD PTR [esp+4], OFFSET FLAT:LC42
	mov	DWORD PTR [esp], edi
	call	_strstr
LVL477:
	.loc 1 183 0 discriminator 1
	test	eax, eax
	jne	L344
	.loc 1 185 0
	mov	DWORD PTR [esp+4], OFFSET FLAT:LC43
	mov	DWORD PTR [esp], edi
	call	_strstr
LVL478:
	.loc 1 184 0
	test	eax, eax
	jne	L344
	.loc 1 186 0
	mov	DWORD PTR [esp+4], OFFSET FLAT:LC44
	mov	DWORD PTR [esp], edi
	call	_strstr
LVL479:
	.loc 1 185 0
	test	eax, eax
	jne	L344
	.loc 1 230 0
	mov	DWORD PTR [esp+4], OFFSET FLAT:LC46
	mov	DWORD PTR [esp], edi
	call	_strstr
LVL480:
	test	eax, eax
	je	L354
	.loc 1 231 0 discriminator 1
	mov	DWORD PTR [esp+8], 0
	mov	DWORD PTR [esp+4], OFFSET FLAT:LC47
	mov	eax, DWORD PTR [esi+32]
	mov	DWORD PTR [esp], eax
	call	_purple_account_get_bool
LVL481:
	.loc 1 230 0 discriminator 1
	test	eax, eax
	jne	L354
LVL482:
	.loc 1 233 0
	mov	eax, DWORD PTR [esp+100]
	.loc 1 232 0
	cmp	DWORD PTR [esp+72], 0
	je	L357
	.loc 1 233 0
	mov	DWORD PTR [esp+28], eax
LVL483:
	mov	eax, DWORD PTR [esp+60]
LVL484:
	mov	DWORD PTR [esp+24], eax
	movzx	eax, WORD PTR [esp+80]
	mov	DWORD PTR [esp+20], eax
	mov	edx, DWORD PTR [esp+76]
	mov	DWORD PTR [esp+16], edx
	mov	ecx, DWORD PTR [esp+72]
	mov	DWORD PTR [esp+12], ecx
	mov	ecx, DWORD PTR [esp+64]
	mov	DWORD PTR [esp+8], ecx
	mov	edx, DWORD PTR [esp+68]
	mov	DWORD PTR [esp+4], edx
	mov	eax, DWORD PTR [esp+56]
	mov	DWORD PTR [esp], eax
	call	_silcpurple_wb_receive_ch
LVL485:
	.loc 1 238 0
	mov	BYTE PTR [esp+60], 1
	jmp	L339
LVL486:
	.p2align 2,,3
L346:
LBB135:
	.loc 1 203 0
	mov	eax, DWORD PTR [esp+72]
	test	eax, eax
	jne	L348
L363:
	mov	DWORD PTR [esp+56], 0
	jmp	L347
LVL487:
L393:
LBE135:
	.loc 1 246 0
	call	___stack_chk_fail
LVL488:
L355:
LBB136:
	.loc 1 219 0
	call	_time
LVL489:
	mov	DWORD PTR [esp+16], eax
	mov	DWORD PTR [esp+12], 4098
	.loc 1 220 0
	mov	DWORD PTR [esp+8], esi
	.loc 1 219 0
	mov	ecx, DWORD PTR [esp+64]
	mov	DWORD PTR [esp+4], ecx
	mov	DWORD PTR [esp], ebx
	call	_serv_got_im
LVL490:
	jmp	L356
LVL491:
L397:
	mov	ebp, DWORD PTR [esp+80]
	jmp	L339
LVL492:
L357:
LBE136:
	.loc 1 236 0
	mov	DWORD PTR [esp+24], eax
	mov	eax, DWORD PTR [esp+60]
	mov	DWORD PTR [esp+20], eax
	movzx	eax, WORD PTR [esp+80]
	mov	DWORD PTR [esp+16], eax
	mov	edx, DWORD PTR [esp+76]
	mov	DWORD PTR [esp+12], edx
	mov	ecx, DWORD PTR [esp+64]
	mov	DWORD PTR [esp+8], ecx
	mov	edx, DWORD PTR [esp+68]
	mov	DWORD PTR [esp+4], edx
	mov	eax, DWORD PTR [esp+56]
	mov	DWORD PTR [esp], eax
	call	_silcpurple_wb_receive
LVL493:
	.loc 1 238 0
	mov	BYTE PTR [esp+60], 1
	jmp	L339
LVL494:
L395:
	mov	BYTE PTR [esp+60], al
	mov	ebp, DWORD PTR [esp+92]
	mov	eax, DWORD PTR [esp+104]
	jmp	L327
	.cfi_endproc
LFE168:
	.section .rdata,"dr"
LC48:
	.ascii "sign-verify\0"
LC49:
	.ascii "/me %s\0"
LC50:
	.ascii "(notice) <I>%s</I> %s\0"
	.text
	.p2align 2,,3
	.def	_silc_private_message;	.scl	3;	.type	32;	.endef
_silc_private_message:
LFB170:
	.loc 1 358 0
	.cfi_startproc
LVL495:
	push	ebp
LCFI119:
	.cfi_def_cfa_offset 8
	.cfi_offset 5, -8
	push	edi
LCFI120:
	.cfi_def_cfa_offset 12
	.cfi_offset 7, -12
	push	esi
LCFI121:
	.cfi_def_cfa_offset 16
	.cfi_offset 6, -16
	push	ebx
LCFI122:
	.cfi_def_cfa_offset 20
	.cfi_offset 3, -20
	sub	esp, 92
LCFI123:
	.cfi_def_cfa_offset 112
	mov	eax, DWORD PTR [esp+112]
	mov	DWORD PTR [esp+48], eax
	mov	edx, DWORD PTR [esp+116]
	mov	DWORD PTR [esp+52], edx
	mov	edi, DWORD PTR [esp+120]
	mov	edx, DWORD PTR [esp+124]
	mov	DWORD PTR [esp+56], edx
	mov	esi, DWORD PTR [esp+132]
	mov	edx, DWORD PTR [esp+136]
	mov	DWORD PTR [esp+60], edx
	movzx	ebx, WORD PTR [esp+128]
	.loc 1 358 0
	mov	eax, DWORD PTR ___stack_chk_guard
	mov	DWORD PTR [esp+76], eax
	xor	eax, eax
	.loc 1 359 0
	mov	eax, DWORD PTR [esp+48]
	mov	ebp, DWORD PTR [eax+20]
LVL496:
	.loc 1 360 0
	mov	edx, DWORD PTR [ebp+28]
LVL497:
	.loc 1 364 0
	test	esi, esi
	je	L400
	.loc 1 368 0
	mov	eax, DWORD PTR [edx+32]
	mov	DWORD PTR [esp+8], eax
	mov	DWORD PTR [esp+4], edi
	mov	DWORD PTR [esp], 4
	mov	DWORD PTR [esp+44], edx
	call	_purple_find_conversation_with_account
LVL498:
	mov	ecx, eax
LVL499:
	.loc 1 371 0
	test	bl, 32
	mov	edx, DWORD PTR [esp+44]
	jne	L439
	.loc 1 376 0
	test	bl, -128
	jne	L440
LVL500:
L404:
	.loc 1 385 0
	test	bl, 4
	je	L406
	.loc 1 385 0 is_stmt 0 discriminator 1
	test	ecx, ecx
	je	L407
	.loc 1 386 0 is_stmt 1
	mov	DWORD PTR [esp+4], esi
	mov	DWORD PTR [esp], OFFSET FLAT:LC49
	call	_g_strdup_printf
LVL501:
	mov	ebx, eax
LVL502:
	.loc 1 388 0
	test	eax, eax
	je	L400
	.loc 1 392 0
	mov	DWORD PTR [esp+4], -1
	mov	DWORD PTR [esp], eax
	call	_g_markup_escape_text
LVL503:
	mov	esi, eax
LVL504:
	.loc 1 393 0
	mov	DWORD PTR [esp], 0
	call	_time
LVL505:
	mov	DWORD PTR [esp+16], eax
	mov	DWORD PTR [esp+12], 0
	mov	DWORD PTR [esp+8], esi
	mov	DWORD PTR [esp+4], edi
	mov	DWORD PTR [esp], ebp
	call	_serv_got_im
LVL506:
	.loc 1 394 0
	mov	DWORD PTR [esp], ebx
	call	_g_free
LVL507:
	.loc 1 395 0
	mov	eax, DWORD PTR [esp+76]
	xor	eax, DWORD PTR ___stack_chk_guard
	jne	L438
	mov	DWORD PTR [esp+112], esi
	.loc 1 425 0
	add	esp, 92
LCFI124:
	.cfi_remember_state
	.cfi_def_cfa_offset 20
	pop	ebx
LCFI125:
	.cfi_restore 3
	.cfi_def_cfa_offset 16
LVL508:
	pop	esi
LCFI126:
	.cfi_restore 6
	.cfi_def_cfa_offset 12
LVL509:
	pop	edi
LCFI127:
	.cfi_restore 7
	.cfi_def_cfa_offset 8
	pop	ebp
LCFI128:
	.cfi_restore 5
	.cfi_def_cfa_offset 4
LVL510:
LBB137:
	.loc 1 423 0
	jmp	_g_free
LVL511:
	.p2align 2,,3
L406:
LCFI129:
	.cfi_restore_state
LBE137:
	.loc 1 399 0
	test	bl, 8
	je	L407
	.loc 1 399 0 is_stmt 0 discriminator 1
	test	ecx, ecx
	je	L407
	.loc 1 400 0 is_stmt 1
	mov	DWORD PTR [esp+8], esi
	mov	DWORD PTR [esp+4], edi
	mov	DWORD PTR [esp], OFFSET FLAT:LC50
	mov	DWORD PTR [esp+44], ecx
	call	_g_strdup_printf
LVL512:
	mov	ebx, eax
LVL513:
	.loc 1 402 0
	test	eax, eax
	je	L400
	.loc 1 406 0
	mov	DWORD PTR [esp], 0
	call	_time
LVL514:
	mov	DWORD PTR [esp+16], eax
	mov	DWORD PTR [esp+12], 4
	mov	DWORD PTR [esp+8], ebx
	mov	DWORD PTR [esp+4], 0
	mov	ecx, DWORD PTR [esp+44]
	mov	DWORD PTR [esp], ecx
	call	_purple_conversation_write
LVL515:
	.loc 1 408 0
	mov	edx, DWORD PTR [esp+76]
	xor	edx, DWORD PTR ___stack_chk_guard
	jne	L438
LVL516:
L412:
LBB138:
	.loc 1 423 0
	mov	DWORD PTR [esp+112], ebx
LBE138:
	.loc 1 425 0
	add	esp, 92
LCFI130:
	.cfi_remember_state
	.cfi_def_cfa_offset 20
	pop	ebx
LCFI131:
	.cfi_restore 3
	.cfi_def_cfa_offset 16
	pop	esi
LCFI132:
	.cfi_restore 6
	.cfi_def_cfa_offset 12
	pop	edi
LCFI133:
	.cfi_restore 7
	.cfi_def_cfa_offset 8
	pop	ebp
LCFI134:
	.cfi_restore 5
	.cfi_def_cfa_offset 4
LVL517:
LBB139:
	.loc 1 423 0
	jmp	_g_free
LVL518:
	.p2align 2,,3
L407:
LCFI135:
	.cfi_restore_state
LBE139:
	.loc 1 412 0
	and	bh, 1
LVL519:
	jne	L441
L400:
	.loc 1 425 0
	mov	edx, DWORD PTR [esp+76]
	xor	edx, DWORD PTR ___stack_chk_guard
	jne	L438
	add	esp, 92
LCFI136:
	.cfi_remember_state
	.cfi_def_cfa_offset 20
	pop	ebx
LCFI137:
	.cfi_restore 3
	.cfi_def_cfa_offset 16
	pop	esi
LCFI138:
	.cfi_restore 6
	.cfi_def_cfa_offset 12
	pop	edi
LCFI139:
	.cfi_restore 7
	.cfi_def_cfa_offset 8
	pop	ebp
LCFI140:
	.cfi_restore 5
	.cfi_def_cfa_offset 4
LVL520:
	ret
LVL521:
	.p2align 2,,3
L439:
LCFI141:
	.cfi_restore_state
	.loc 1 372 0 discriminator 1
	mov	DWORD PTR [esp+8], 0
	mov	DWORD PTR [esp+4], OFFSET FLAT:LC48
	mov	eax, DWORD PTR [edx+32]
LVL522:
	mov	DWORD PTR [esp], eax
	mov	DWORD PTR [esp+44], ecx
	call	_purple_account_get_bool
LVL523:
	mov	ecx, DWORD PTR [esp+44]
	.loc 1 376 0 discriminator 1
	test	bl, -128
	je	L404
L440:
LBB140:
	.loc 1 379 0
	mov	edx, DWORD PTR [esp+60]
	mov	DWORD PTR [esp+8], edx
	mov	DWORD PTR [esp+4], esi
	mov	DWORD PTR [esp], 0
	call	_silc_mime_decode
LVL524:
	.loc 1 380 0
	mov	edx, DWORD PTR [esp+76]
	xor	edx, DWORD PTR ___stack_chk_guard
	jne	L438
	mov	DWORD PTR [esp+132], 0
	mov	DWORD PTR [esp+128], eax
	mov	DWORD PTR [esp+124], ebx
	mov	DWORD PTR [esp+120], 0
	mov	edx, DWORD PTR [esp+56]
	mov	DWORD PTR [esp+116], edx
	mov	DWORD PTR [esp+112], 0
	mov	ecx, edi
	mov	edx, DWORD PTR [esp+52]
	mov	eax, DWORD PTR [esp+48]
LVL525:
LBE140:
	.loc 1 425 0
	add	esp, 92
LCFI142:
	.cfi_remember_state
	.cfi_def_cfa_offset 20
	pop	ebx
LCFI143:
	.cfi_restore 3
	.cfi_def_cfa_offset 16
	pop	esi
LCFI144:
	.cfi_restore 6
	.cfi_def_cfa_offset 12
	pop	edi
LCFI145:
	.cfi_restore 7
	.cfi_def_cfa_offset 8
	pop	ebp
LCFI146:
	.cfi_restore 5
	.cfi_def_cfa_offset 4
LVL526:
LBB141:
	.loc 1 380 0
	jmp	_silcpurple_mime_message
LVL527:
	.p2align 2,,3
L441:
LCFI147:
	.cfi_restore_state
LBE141:
LBB142:
	.loc 1 415 0
	mov	DWORD PTR [esp+8], 0
	mov	DWORD PTR [esp+4], -1
	mov	DWORD PTR [esp], esi
	call	_g_utf8_validate
LVL528:
	test	eax, eax
	je	L442
	mov	eax, esi
	.loc 1 414 0
	xor	esi, esi
LVL529:
L411:
	.loc 1 419 0
	mov	DWORD PTR [esp+4], -1
	mov	DWORD PTR [esp], eax
	call	_g_markup_escape_text
LVL530:
	mov	ebx, eax
LVL531:
	.loc 1 421 0
	mov	DWORD PTR [esp], 0
	call	_time
LVL532:
	mov	DWORD PTR [esp+16], eax
	mov	DWORD PTR [esp+12], 0
	mov	DWORD PTR [esp+8], ebx
	mov	DWORD PTR [esp+4], edi
	mov	DWORD PTR [esp], ebp
	call	_serv_got_im
LVL533:
	.loc 1 422 0
	mov	DWORD PTR [esp], esi
	call	_g_free
LVL534:
	.loc 1 423 0
	mov	eax, DWORD PTR [esp+76]
	xor	eax, DWORD PTR ___stack_chk_guard
	je	L412
LVL535:
L438:
LBE142:
	.loc 1 425 0
	call	___stack_chk_fail
LVL536:
	.p2align 2,,3
L442:
LBB143:
	.loc 1 416 0
	mov	DWORD PTR [esp], esi
	call	_purple_utf8_salvage
LVL537:
	mov	esi, eax
LVL538:
	jmp	L411
LBE143:
	.cfi_endproc
LFE170:
	.p2align 2,,3
	.def	_silc_channel_message;	.scl	3;	.type	32;	.endef
_silc_channel_message:
LFB169:
	.loc 1 261 0
	.cfi_startproc
LVL539:
	push	ebp
LCFI148:
	.cfi_def_cfa_offset 8
	.cfi_offset 5, -8
	push	edi
LCFI149:
	.cfi_def_cfa_offset 12
	.cfi_offset 7, -12
	push	esi
LCFI150:
	.cfi_def_cfa_offset 16
	.cfi_offset 6, -16
	push	ebx
LCFI151:
	.cfi_def_cfa_offset 20
	.cfi_offset 3, -20
	sub	esp, 92
LCFI152:
	.cfi_def_cfa_offset 112
	mov	eax, DWORD PTR [esp+112]
	mov	DWORD PTR [esp+40], eax
	mov	edx, DWORD PTR [esp+116]
	mov	DWORD PTR [esp+52], edx
	mov	eax, DWORD PTR [esp+120]
	mov	DWORD PTR [esp+48], eax
	mov	edx, DWORD PTR [esp+124]
	mov	DWORD PTR [esp+44], edx
	mov	edx, DWORD PTR [esp+128]
	mov	DWORD PTR [esp+56], edx
	mov	ebx, DWORD PTR [esp+132]
	mov	edi, DWORD PTR [esp+140]
	mov	edx, DWORD PTR [esp+144]
	mov	DWORD PTR [esp+60], edx
	movzx	esi, WORD PTR [esp+136]
	.loc 1 261 0
	mov	eax, DWORD PTR ___stack_chk_guard
	mov	DWORD PTR [esp+76], eax
	xor	eax, eax
	.loc 1 262 0
	mov	eax, DWORD PTR [esp+40]
	mov	eax, DWORD PTR [eax+20]
	mov	DWORD PTR [esp+36], eax
LVL540:
	.loc 1 263 0
	mov	ebp, DWORD PTR [eax+28]
LVL541:
	.loc 1 267 0
	test	edi, edi
	je	L443
	.loc 1 270 0
	test	ebx, ebx
	je	L449
LBB144:
	.loc 1 274 0
	mov	eax, DWORD PTR [ebp+40]
LVL542:
	test	eax, eax
	jne	L453
	jmp	L449
	.p2align 2,,3
L479:
	mov	eax, DWORD PTR [eax+4]
LVL543:
	test	eax, eax
	je	L449
L453:
	.loc 1 275 0
	mov	ecx, DWORD PTR [eax]
	cmp	DWORD PTR [ecx+16], ebx
	jne	L479
LVL544:
	.loc 1 277 0
	mov	eax, DWORD PTR [ebp+32]
LVL545:
	mov	DWORD PTR [esp+8], eax
	mov	eax, DWORD PTR [ecx+4]
	mov	DWORD PTR [esp+4], eax
	mov	DWORD PTR [esp], 2
	call	_purple_find_conversation_with_account
LVL546:
	mov	ecx, eax
LVL547:
LBE144:
	.loc 1 282 0
	test	eax, eax
	je	L449
L448:
	.loc 1 288 0
	test	esi, 32
	jne	L493
	.loc 1 293 0
	test	esi, 128
	jne	L494
LVL548:
L455:
	.loc 1 302 0
	test	esi, 4
	jne	L495
	.loc 1 317 0
	test	esi, 8
	jne	L496
	.loc 1 330 0
	and	esi, 256
	je	L443
LVL549:
LBB145:
	.loc 1 333 0
	mov	DWORD PTR [esp+8], 0
	mov	DWORD PTR [esp+4], -1
	mov	DWORD PTR [esp], edi
	mov	DWORD PTR [esp+32], ecx
	call	_g_utf8_validate
LVL550:
	test	eax, eax
	mov	ecx, DWORD PTR [esp+32]
	je	L497
	mov	edx, edi
	.loc 1 332 0
	xor	esi, esi
LVL551:
L461:
	.loc 1 337 0
	mov	DWORD PTR [esp+4], -1
	mov	DWORD PTR [esp], edx
	mov	DWORD PTR [esp+32], ecx
	call	_g_markup_escape_text
LVL552:
	mov	ebx, eax
LVL553:
	.loc 1 339 0
	mov	DWORD PTR [esp], 0
	call	_time
LVL554:
	mov	ebp, eax
LVL555:
	mov	ecx, DWORD PTR [esp+32]
	mov	DWORD PTR [esp], ecx
	call	_purple_conversation_get_chat_data
LVL556:
	mov	DWORD PTR [esp], eax
	call	_purple_conv_chat_get_id
LVL557:
	mov	DWORD PTR [esp+20], ebp
	mov	DWORD PTR [esp+16], ebx
	mov	DWORD PTR [esp+12], 0
	mov	edx, DWORD PTR [esp+48]
	mov	DWORD PTR [esp+8], edx
	mov	DWORD PTR [esp+4], eax
	mov	edx, DWORD PTR [esp+36]
	mov	DWORD PTR [esp], edx
	call	_serv_got_chat_in
LVL558:
	.loc 1 341 0
	mov	DWORD PTR [esp], esi
	call	_g_free
LVL559:
	.loc 1 342 0
	mov	eax, DWORD PTR [esp+76]
	xor	eax, DWORD PTR ___stack_chk_guard
	jne	L492
LVL560:
L462:
	mov	DWORD PTR [esp+112], ebx
LBE145:
	.loc 1 344 0
	add	esp, 92
LCFI153:
	.cfi_remember_state
	.cfi_def_cfa_offset 20
	pop	ebx
LCFI154:
	.cfi_restore 3
	.cfi_def_cfa_offset 16
	pop	esi
LCFI155:
	.cfi_restore 6
	.cfi_def_cfa_offset 12
	pop	edi
LCFI156:
	.cfi_restore 7
	.cfi_def_cfa_offset 8
	pop	ebp
LCFI157:
	.cfi_restore 5
	.cfi_def_cfa_offset 4
LBB146:
	.loc 1 342 0
	jmp	_g_free
LVL561:
	.p2align 2,,3
L449:
LCFI158:
	.cfi_restore_state
LBE146:
	.loc 1 283 0
	mov	eax, DWORD PTR [ebp+32]
	mov	DWORD PTR [esp+8], eax
	mov	edx, DWORD PTR [esp+44]
	mov	eax, DWORD PTR [edx]
	mov	DWORD PTR [esp+4], eax
	mov	DWORD PTR [esp], 2
	call	_purple_find_conversation_with_account
LVL562:
	mov	ecx, eax
LVL563:
	.loc 1 285 0
	test	eax, eax
	jne	L448
LVL564:
L443:
	.loc 1 344 0
	mov	edx, DWORD PTR [esp+76]
	xor	edx, DWORD PTR ___stack_chk_guard
	jne	L492
	add	esp, 92
LCFI159:
	.cfi_remember_state
	.cfi_def_cfa_offset 20
	pop	ebx
LCFI160:
	.cfi_restore 3
	.cfi_def_cfa_offset 16
	pop	esi
LCFI161:
	.cfi_restore 6
	.cfi_def_cfa_offset 12
	pop	edi
LCFI162:
	.cfi_restore 7
	.cfi_def_cfa_offset 8
	pop	ebp
LCFI163:
	.cfi_restore 5
	.cfi_def_cfa_offset 4
LVL565:
	ret
LVL566:
	.p2align 2,,3
L493:
LCFI164:
	.cfi_restore_state
	.loc 1 289 0 discriminator 1
	mov	DWORD PTR [esp+8], 0
	mov	DWORD PTR [esp+4], OFFSET FLAT:LC48
	mov	eax, DWORD PTR [ebp+32]
LVL567:
	mov	DWORD PTR [esp], eax
	mov	DWORD PTR [esp+32], ecx
	call	_purple_account_get_bool
LVL568:
	mov	ecx, DWORD PTR [esp+32]
	.loc 1 293 0 discriminator 1
	test	esi, 128
	je	L455
L494:
LBB147:
	.loc 1 296 0
	mov	edx, DWORD PTR [esp+60]
	mov	DWORD PTR [esp+8], edx
	mov	DWORD PTR [esp+4], edi
	mov	DWORD PTR [esp], 0
	call	_silc_mime_decode
LVL569:
	.loc 1 297 0
	mov	edx, DWORD PTR [esp+76]
	xor	edx, DWORD PTR ___stack_chk_guard
	jne	L492
	mov	DWORD PTR [esp+132], 0
	mov	DWORD PTR [esp+128], eax
	mov	DWORD PTR [esp+124], esi
	mov	DWORD PTR [esp+120], ebx
	mov	edx, DWORD PTR [esp+56]
	mov	DWORD PTR [esp+116], edx
	mov	edx, DWORD PTR [esp+44]
	mov	DWORD PTR [esp+112], edx
	mov	ecx, DWORD PTR [esp+48]
	mov	edx, DWORD PTR [esp+52]
	mov	eax, DWORD PTR [esp+40]
LVL570:
LBE147:
	.loc 1 344 0
	add	esp, 92
LCFI165:
	.cfi_remember_state
	.cfi_def_cfa_offset 20
	pop	ebx
LCFI166:
	.cfi_restore 3
	.cfi_def_cfa_offset 16
	pop	esi
LCFI167:
	.cfi_restore 6
	.cfi_def_cfa_offset 12
	pop	edi
LCFI168:
	.cfi_restore 7
	.cfi_def_cfa_offset 8
	pop	ebp
LCFI169:
	.cfi_restore 5
	.cfi_def_cfa_offset 4
LVL571:
LBB148:
	.loc 1 297 0
	jmp	_silcpurple_mime_message
LVL572:
	.p2align 2,,3
L495:
LCFI170:
	.cfi_restore_state
LBE148:
	.loc 1 303 0
	mov	DWORD PTR [esp+4], edi
	mov	DWORD PTR [esp], OFFSET FLAT:LC49
	mov	DWORD PTR [esp+32], ecx
	call	_g_strdup_printf
LVL573:
	mov	esi, eax
LVL574:
	.loc 1 305 0
	test	eax, eax
	je	L443
	.loc 1 308 0
	mov	DWORD PTR [esp+4], -1
	mov	DWORD PTR [esp], eax
	call	_g_markup_escape_text
LVL575:
	mov	ebx, eax
LVL576:
	.loc 1 310 0
	mov	DWORD PTR [esp], 0
	call	_time
LVL577:
	mov	ebp, eax
LVL578:
	mov	ecx, DWORD PTR [esp+32]
	mov	DWORD PTR [esp], ecx
	call	_purple_conversation_get_chat_data
LVL579:
	mov	DWORD PTR [esp], eax
	call	_purple_conv_chat_get_id
LVL580:
	mov	DWORD PTR [esp+20], ebp
	mov	DWORD PTR [esp+16], ebx
	mov	DWORD PTR [esp+12], 0
	mov	edx, DWORD PTR [esp+48]
	mov	DWORD PTR [esp+8], edx
	mov	DWORD PTR [esp+4], eax
	mov	edx, DWORD PTR [esp+36]
	mov	DWORD PTR [esp], edx
	call	_serv_got_chat_in
LVL581:
	.loc 1 312 0
	mov	DWORD PTR [esp], ebx
	call	_g_free
LVL582:
	.loc 1 313 0
	mov	eax, DWORD PTR [esp+76]
	xor	eax, DWORD PTR ___stack_chk_guard
	jne	L492
	mov	DWORD PTR [esp+112], esi
	.loc 1 344 0
	add	esp, 92
LCFI171:
	.cfi_remember_state
	.cfi_def_cfa_offset 20
	pop	ebx
LCFI172:
	.cfi_restore 3
	.cfi_def_cfa_offset 16
LVL583:
	pop	esi
LCFI173:
	.cfi_restore 6
	.cfi_def_cfa_offset 12
LVL584:
	pop	edi
LCFI174:
	.cfi_restore 7
	.cfi_def_cfa_offset 8
	pop	ebp
LCFI175:
	.cfi_restore 5
	.cfi_def_cfa_offset 4
LBB149:
	.loc 1 342 0
	jmp	_g_free
LVL585:
	.p2align 2,,3
L496:
LCFI176:
	.cfi_restore_state
LBE149:
	.loc 1 318 0
	mov	DWORD PTR [esp+8], edi
	mov	edx, DWORD PTR [esp+48]
	mov	DWORD PTR [esp+4], edx
	mov	DWORD PTR [esp], OFFSET FLAT:LC50
	mov	DWORD PTR [esp+32], ecx
	call	_g_strdup_printf
LVL586:
	mov	ebx, eax
LVL587:
	.loc 1 320 0
	test	eax, eax
	je	L443
	.loc 1 324 0
	mov	DWORD PTR [esp], 0
	call	_time
LVL588:
	mov	DWORD PTR [esp+16], eax
	mov	DWORD PTR [esp+12], 4
	mov	DWORD PTR [esp+8], ebx
	mov	DWORD PTR [esp+4], 0
	mov	ecx, DWORD PTR [esp+32]
	mov	DWORD PTR [esp], ecx
	call	_purple_conversation_write
LVL589:
	.loc 1 326 0
	mov	eax, DWORD PTR [esp+76]
	xor	eax, DWORD PTR ___stack_chk_guard
	je	L462
LVL590:
L492:
	.loc 1 344 0
	call	___stack_chk_fail
LVL591:
	.p2align 2,,3
L497:
LBB150:
	.loc 1 334 0
	mov	DWORD PTR [esp], edi
	call	_purple_utf8_salvage
LVL592:
	mov	esi, eax
LVL593:
	.loc 1 335 0
	mov	edx, eax
	mov	ecx, DWORD PTR [esp+32]
	jmp	L461
LBE150:
	.cfi_endproc
LFE169:
	.section .rdata,"dr"
LC51:
	.ascii "Cannot join channel\0"
LC52:
	.ascii "Join Chat\0"
	.align 4
LC53:
	.ascii "You are channel founder on <I>%s</I>\0"
	.align 4
LC54:
	.ascii "Channel founder on <I>%s</I> is <I>%s</I>\0"
LC55:
	.ascii "Cannot get user information\0"
LC56:
	.ascii "User Information\0"
LC57:
	.ascii "Nickname\0"
LC58:
	.ascii "Real Name\0"
LC59:
	.ascii "Username\0"
LC60:
	.ascii "User Modes\0"
LC61:
	.ascii "Mood\0"
LC62:
	.ascii "Status Text\0"
LC63:
	.ascii "Preferred Contact\0"
LC64:
	.ascii "Preferred Language\0"
LC65:
	.ascii "Device\0"
LC66:
	.ascii "Timezone\0"
LC67:
	.ascii "Geolocation\0"
LC68:
	.ascii "Server\0"
LC69:
	.ascii "  \0"
LC70:
	.ascii "Currently on\0"
LC71:
	.ascii "Public Key Fingerprint\0"
LC72:
	.ascii "Public Key Babbleprint\0"
LC73:
	.ascii "Cannot detach\0"
LC74:
	.ascii "Detach From Server\0"
LC75:
	.ascii "Cannot set topic\0"
LC76:
	.ascii "Topic\0"
	.align 4
LC77:
	.ascii "Got a topic for %s, which doesn't exist\12\0"
LC78:
	.ascii "Failed to change nickname\0"
LC79:
	.ascii "Nick\0"
LC80:
	.ascii "Error retrieving room list\0"
LC81:
	.ascii "Network is empty\0"
LC82:
	.ascii "Cannot get room list\0"
LC83:
	.ascii "Roomlist\0"
LC84:
	.ascii "Cannot fetch the public key\0"
LC85:
	.ascii "Get Public Key\0"
LC86:
	.ascii "No public key was received\0"
LC87:
	.ascii "Cannot get server information\0"
LC88:
	.ascii "Server Information\0"
LC89:
	.ascii "Server: %s\12%s\0"
LC90:
	.ascii "Cannot get server statistics\0"
LC91:
	.ascii "Server Statistics\0"
	.align 4
LC92:
	.ascii "Local server start time: %s\12Local server uptime: %s\12Local server clients: %d\12Local server channels: %d\12Local server operators: %d\12Local router operators: %d\12Local cell clients: %d\12Local cell channels: %d\12Local cell servers: %d\12Total clients: %d\12Total channels: %d\12Total servers: %d\12Total routers: %d\12Total server operators: %d\12Total router operators: %d\12\0"
LC93:
	.ascii "Network Statistics\0"
LC94:
	.ascii "Ping failed\0"
LC95:
	.ascii "Ping\0"
	.align 4
LC96:
	.ascii "Ping reply received from server\0"
LC97:
	.ascii "Could not kill user\0"
LC98:
	.ascii "Kill User\0"
LC99:
	.ascii "Cannot watch user\0"
LC100:
	.ascii "WATCH\0"
	.align 4
LC101:
	.ascii "Unhandled command: %d (succeeded)\12\0"
	.align 4
LC102:
	.ascii "Unhandled command: %d (failed: %s)\12\0"
	.text
	.p2align 2,,3
	.def	_silc_command_reply;	.scl	3;	.type	32;	.endef
_silc_command_reply:
LFB173:
	.loc 1 1088 0
	.cfi_startproc
LVL594:
	push	ebp
LCFI177:
	.cfi_def_cfa_offset 8
	.cfi_offset 5, -8
	push	edi
LCFI178:
	.cfi_def_cfa_offset 12
	.cfi_offset 7, -12
	push	esi
LCFI179:
	.cfi_def_cfa_offset 16
	.cfi_offset 6, -16
	push	ebx
LCFI180:
	.cfi_def_cfa_offset 20
	.cfi_offset 3, -20
	sub	esp, 1196
LCFI181:
	.cfi_def_cfa_offset 1216
	mov	ebp, DWORD PTR [esp+1220]
	mov	eax, DWORD PTR [esp+1236]
	movzx	edx, BYTE PTR [esp+1224]
	mov	cl, BYTE PTR [esp+1228]
	movzx	esi, BYTE PTR [esp+1232]
	.loc 1 1088 0
	mov	ebx, DWORD PTR ___stack_chk_guard
	mov	DWORD PTR [esp+1180], ebx
	xor	ebx, ebx
	.loc 1 1089 0
	mov	ebx, DWORD PTR [esp+1216]
	mov	ebx, DWORD PTR [ebx+20]
	mov	DWORD PTR [esp+72], ebx
LVL595:
	.loc 1 1090 0
	mov	ebx, DWORD PTR [ebx+28]
LVL596:
	.loc 1 1093 0
	cmp	dl, 26
	jbe	L724
L499:
	.loc 1 1670 0
	test	cl, cl
	je	L725
	.loc 1 1673 0
	and	esi, 255
	mov	DWORD PTR [esp], esi
	mov	BYTE PTR [esp+64], dl
	call	_silc_get_status_message
LVL597:
	mov	DWORD PTR [esp+12], eax
	movzx	edx, BYTE PTR [esp+64]
	mov	DWORD PTR [esp+8], edx
	mov	DWORD PTR [esp+4], OFFSET FLAT:LC102
	mov	DWORD PTR [esp], OFFSET FLAT:LC11
	call	_purple_debug_info
LVL598:
	.p2align 2,,3
L498:
	.loc 1 1677 0
	mov	edi, DWORD PTR [esp+1180]
	xor	edi, DWORD PTR ___stack_chk_guard
	jne	L726
	add	esp, 1196
LCFI182:
	.cfi_remember_state
	.cfi_def_cfa_offset 20
	pop	ebx
LCFI183:
	.cfi_restore 3
	.cfi_def_cfa_offset 16
	pop	esi
LCFI184:
	.cfi_restore 6
	.cfi_def_cfa_offset 12
	pop	edi
LCFI185:
	.cfi_restore 7
	.cfi_def_cfa_offset 8
	pop	ebp
LCFI186:
	.cfi_restore 5
	.cfi_def_cfa_offset 4
	ret
LVL599:
	.p2align 2,,3
L724:
LCFI187:
	.cfi_restore_state
	.loc 1 1093 0
	movzx	edi, dl
	jmp	[DWORD PTR L515[0+edi*4]]
	.section .rdata,"dr"
	.align 4
L515:
	.long	L499
	.long	L500
	.long	L501
	.long	L499
	.long	L502
	.long	L503
	.long	L504
	.long	L499
	.long	L499
	.long	L505
	.long	L506
	.long	L507
	.long	L508
	.long	L499
	.long	L509
	.long	L499
	.long	L499
	.long	L510
	.long	L499
	.long	L499
	.long	L499
	.long	L511
	.long	L512
	.long	L499
	.long	L498
	.long	L498
	.long	L514
	.text
	.p2align 2,,3
L500:
LBB187:
	.loc 1 1178 0
	test	cl, cl
	jne	L720
LVL600:
	.loc 1 1185 0
	mov	ebx, DWORD PTR [eax]
LVL601:
	mov	DWORD PTR [esp+80], ebx
LVL602:
	.loc 1 1189 0
	mov	ebx, DWORD PTR [eax+16]
LVL603:
	.loc 1 1193 0
	mov	ebp, DWORD PTR [eax+32]
LVL604:
	.loc 1 1195 0
	call	_purple_notify_user_info_new
LVL605:
	mov	DWORD PTR [esp+76], eax
LVL606:
	.loc 1 1196 0
	mov	DWORD PTR [esp+4], -1
	mov	edx, DWORD PTR [esp+80]
	mov	DWORD PTR [esp], edx
	call	_g_markup_escape_text
LVL607:
	mov	esi, eax
LVL608:
	.loc 1 1197 0
	mov	DWORD PTR [esp+4], OFFSET FLAT:LC57
	mov	DWORD PTR [esp], OFFSET FLAT:LC1
	call	_libintl_dgettext
LVL609:
	mov	DWORD PTR [esp+8], esi
	mov	DWORD PTR [esp+4], eax
	mov	eax, DWORD PTR [esp+76]
	mov	DWORD PTR [esp], eax
	call	_purple_notify_user_info_add_pair
LVL610:
	.loc 1 1198 0
	mov	DWORD PTR [esp], esi
	call	_g_free
LVL611:
	.loc 1 1199 0
	mov	edx, DWORD PTR [esp+80]
	mov	eax, DWORD PTR [edx+900]
	test	eax, eax
	je	L527
	.loc 1 1200 0
	mov	DWORD PTR [esp+4], -1
	mov	DWORD PTR [esp], eax
	call	_g_markup_escape_text
LVL612:
	mov	esi, eax
LVL613:
	.loc 1 1201 0
	mov	DWORD PTR [esp+4], OFFSET FLAT:LC58
	mov	DWORD PTR [esp], OFFSET FLAT:LC1
	call	_libintl_dgettext
LVL614:
	mov	DWORD PTR [esp+8], esi
	mov	DWORD PTR [esp+4], eax
	mov	eax, DWORD PTR [esp+76]
	mov	DWORD PTR [esp], eax
	call	_purple_notify_user_info_add_pair
LVL615:
	.loc 1 1202 0
	mov	DWORD PTR [esp], esi
	call	_g_free
LVL616:
L527:
	.loc 1 1204 0
	mov	DWORD PTR [esp+4], -1
	mov	eax, DWORD PTR [esp+80]
	add	eax, 257
	mov	DWORD PTR [esp], eax
	call	_g_markup_escape_text
LVL617:
	mov	edi, eax
LVL618:
	.loc 1 1205 0
	mov	edx, DWORD PTR [esp+80]
	cmp	BYTE PTR [edx+386], 0
	je	L528
LBB188:
	.loc 1 1207 0
	mov	eax, edx
LVL619:
	add	eax, 386
	mov	DWORD PTR [esp+8], eax
	mov	DWORD PTR [esp+4], edi
	mov	DWORD PTR [esp], OFFSET FLAT:LC18
	call	_g_strdup_printf
LVL620:
	mov	esi, eax
LVL621:
	.loc 1 1208 0
	mov	DWORD PTR [esp+4], OFFSET FLAT:LC59
	mov	DWORD PTR [esp], OFFSET FLAT:LC1
	call	_libintl_dgettext
LVL622:
	mov	DWORD PTR [esp+8], esi
	mov	DWORD PTR [esp+4], eax
	mov	eax, DWORD PTR [esp+76]
	mov	DWORD PTR [esp], eax
	call	_purple_notify_user_info_add_pair
LVL623:
	.loc 1 1209 0
	mov	DWORD PTR [esp], esi
	call	_g_free
LVL624:
L529:
LBE188:
	.loc 1 1212 0
	mov	DWORD PTR [esp], edi
	call	_g_free
LVL625:
	.loc 1 1214 0
	mov	edx, DWORD PTR [esp+80]
	mov	eax, DWORD PTR [edx+940]
	test	eax, eax
	jne	L727
LVL626:
L530:
	.loc 1 1221 0
	lea	eax, [esp+140]
	mov	DWORD PTR [esp+28], eax
	lea	eax, [esp+132]
	mov	DWORD PTR [esp+24], eax
	lea	eax, [esp+128]
	mov	DWORD PTR [esp+20], eax
	lea	eax, [esp+124]
	mov	DWORD PTR [esp+16], eax
	lea	eax, [esp+120]
	mov	DWORD PTR [esp+12], eax
	lea	eax, [esp+116]
	mov	DWORD PTR [esp+8], eax
	lea	eax, [esp+112]
	mov	DWORD PTR [esp+4], eax
	mov	edx, DWORD PTR [esp+80]
	mov	eax, DWORD PTR [edx+952]
	mov	DWORD PTR [esp], eax
	call	_silcpurple_parse_attrs
LVL627:
	.loc 1 1222 0
	mov	esi, DWORD PTR [esp+112]
	test	esi, esi
	je	L531
	.loc 1 1223 0
	mov	DWORD PTR [esp+4], OFFSET FLAT:LC61
	mov	DWORD PTR [esp], OFFSET FLAT:LC1
	call	_libintl_dgettext
LVL628:
	mov	DWORD PTR [esp+8], esi
	mov	DWORD PTR [esp+4], eax
	mov	eax, DWORD PTR [esp+76]
	mov	DWORD PTR [esp], eax
	call	_purple_notify_user_info_add_pair
LVL629:
	.loc 1 1224 0
	mov	eax, DWORD PTR [esp+112]
	mov	DWORD PTR [esp], eax
	call	_g_free
LVL630:
L531:
	.loc 1 1227 0
	mov	eax, DWORD PTR [esp+116]
	test	eax, eax
	je	L532
	.loc 1 1228 0
	mov	DWORD PTR [esp+4], -1
	mov	DWORD PTR [esp], eax
	call	_g_markup_escape_text
LVL631:
	mov	esi, eax
LVL632:
	.loc 1 1229 0
	mov	DWORD PTR [esp+4], OFFSET FLAT:LC62
	mov	DWORD PTR [esp], OFFSET FLAT:LC1
	call	_libintl_dgettext
LVL633:
	mov	DWORD PTR [esp+8], esi
	mov	DWORD PTR [esp+4], eax
	mov	eax, DWORD PTR [esp+76]
	mov	DWORD PTR [esp], eax
	call	_purple_notify_user_info_add_pair
LVL634:
	.loc 1 1230 0
	mov	eax, DWORD PTR [esp+116]
	mov	DWORD PTR [esp], eax
	call	_g_free
LVL635:
	.loc 1 1231 0
	mov	DWORD PTR [esp], esi
	call	_g_free
LVL636:
L532:
	.loc 1 1234 0
	mov	esi, DWORD PTR [esp+120]
	test	esi, esi
	je	L533
	.loc 1 1235 0
	mov	DWORD PTR [esp+4], OFFSET FLAT:LC63
	mov	DWORD PTR [esp], OFFSET FLAT:LC1
	call	_libintl_dgettext
LVL637:
	mov	DWORD PTR [esp+8], esi
	mov	DWORD PTR [esp+4], eax
	mov	eax, DWORD PTR [esp+76]
	mov	DWORD PTR [esp], eax
	call	_purple_notify_user_info_add_pair
LVL638:
	.loc 1 1236 0
	mov	eax, DWORD PTR [esp+120]
	mov	DWORD PTR [esp], eax
	call	_g_free
LVL639:
L533:
	.loc 1 1239 0
	mov	esi, DWORD PTR [esp+124]
	test	esi, esi
	je	L534
	.loc 1 1240 0
	mov	DWORD PTR [esp+4], OFFSET FLAT:LC64
	mov	DWORD PTR [esp], OFFSET FLAT:LC1
	call	_libintl_dgettext
LVL640:
	mov	DWORD PTR [esp+8], esi
	mov	DWORD PTR [esp+4], eax
	mov	eax, DWORD PTR [esp+76]
	mov	DWORD PTR [esp], eax
	call	_purple_notify_user_info_add_pair
LVL641:
	.loc 1 1241 0
	mov	eax, DWORD PTR [esp+124]
	mov	DWORD PTR [esp], eax
	call	_g_free
LVL642:
L534:
	.loc 1 1244 0
	mov	esi, DWORD PTR [esp+128]
	test	esi, esi
	je	L535
	.loc 1 1245 0
	mov	DWORD PTR [esp+4], OFFSET FLAT:LC65
	mov	DWORD PTR [esp], OFFSET FLAT:LC1
	call	_libintl_dgettext
LVL643:
	mov	DWORD PTR [esp+8], esi
	mov	DWORD PTR [esp+4], eax
	mov	eax, DWORD PTR [esp+76]
	mov	DWORD PTR [esp], eax
	call	_purple_notify_user_info_add_pair
LVL644:
	.loc 1 1246 0
	mov	eax, DWORD PTR [esp+128]
	mov	DWORD PTR [esp], eax
	call	_g_free
LVL645:
L535:
	.loc 1 1249 0
	mov	esi, DWORD PTR [esp+132]
	test	esi, esi
	je	L536
	.loc 1 1250 0
	mov	DWORD PTR [esp+4], OFFSET FLAT:LC66
	mov	DWORD PTR [esp], OFFSET FLAT:LC1
	call	_libintl_dgettext
LVL646:
	mov	DWORD PTR [esp+8], esi
	mov	DWORD PTR [esp+4], eax
	mov	eax, DWORD PTR [esp+76]
	mov	DWORD PTR [esp], eax
	call	_purple_notify_user_info_add_pair
LVL647:
	.loc 1 1251 0
	mov	eax, DWORD PTR [esp+132]
	mov	DWORD PTR [esp], eax
	call	_g_free
LVL648:
L536:
	.loc 1 1254 0
	mov	esi, DWORD PTR [esp+140]
	test	esi, esi
	je	L537
	.loc 1 1255 0
	mov	DWORD PTR [esp+4], OFFSET FLAT:LC67
	mov	DWORD PTR [esp], OFFSET FLAT:LC1
	call	_libintl_dgettext
LVL649:
	mov	DWORD PTR [esp+8], esi
	mov	DWORD PTR [esp+4], eax
	mov	eax, DWORD PTR [esp+76]
	mov	DWORD PTR [esp], eax
	call	_purple_notify_user_info_add_pair
LVL650:
	.loc 1 1256 0
	mov	eax, DWORD PTR [esp+140]
	mov	DWORD PTR [esp], eax
	call	_g_free
LVL651:
L537:
	.loc 1 1259 0
	mov	edx, DWORD PTR [esp+80]
	cmp	BYTE PTR [edx+643], 0
	jne	L728
L538:
	.loc 1 1262 0
	test	ebx, ebx
	je	L539
	.loc 1 1262 0 is_stmt 0 discriminator 1
	test	ebp, ebp
	je	L539
LVL652:
LBB189:
	.loc 1 1266 0 is_stmt 1
	lea	edi, [esp+156]
	mov	DWORD PTR [esp+84], edi
	mov	ecx, 1024
	xor	eax, eax
	rep stosb
LVL653:
LBB190:
LBB191:
	.loc 2 159 0
	mov	eax, DWORD PTR [ebx]
	mov	DWORD PTR [ebx+8], eax
	mov	dl, BYTE PTR [ebx+16]
	and	edx, -3
	mov	BYTE PTR [ebx+16], dl
	.loc 2 160 0
	mov	DWORD PTR [ebx+20], 0
LVL654:
LBE191:
LBE190:
LBB192:
LBB193:
	.loc 2 299 0
	mov	DWORD PTR [ebx+24], 0
LVL655:
LBB194:
LBB195:
	.loc 3 339 0
	test	eax, eax
	jne	L541
	jmp	L540
LVL656:
	.p2align 2,,3
L729:
	.loc 3 340 0
	movzx	edx, WORD PTR [ebx+14]
	mov	edx, DWORD PTR [eax+edx]
L544:
	mov	DWORD PTR [ebx+8], edx
LBE195:
LBE194:
	.loc 2 300 0
	mov	DWORD PTR [ebx+20], eax
	.loc 2 302 0
	mov	edi, DWORD PTR [eax]
LBE193:
LBE192:
	.loc 1 1268 0
	test	edi, edi
	je	L592
LBB200:
	.loc 1 1270 0
	mov	eax, DWORD PTR [ebp+0]
LVL657:
	mov	DWORD PTR [esp], eax
	call	_silc_client_chumode_char
LVL658:
	mov	esi, eax
LVL659:
	.loc 1 1271 0
	lea	eax, [esp+136]
LVL660:
	mov	DWORD PTR [esp+4], eax
	mov	DWORD PTR [esp], edi
	call	_silc_channel_get_name
LVL661:
	mov	edx, eax
LVL662:
	.loc 1 1272 0
	test	esi, esi
	je	L542
	.loc 1 1273 0
	xor	eax, eax
LVL663:
	mov	ecx, -1
	mov	edi, esi
	repne scasb
LVL664:
	not	ecx
	dec	ecx
	mov	DWORD PTR [esp+12], ecx
	mov	DWORD PTR [esp+8], esi
	mov	DWORD PTR [esp+4], 1023
	lea	ecx, [esp+156]
	mov	DWORD PTR [esp], ecx
	mov	DWORD PTR [esp+64], edx
	call	_silc_strncat
LVL665:
	mov	edx, DWORD PTR [esp+64]
L542:
	.loc 1 1274 0
	mov	eax, DWORD PTR [esp+136]
	mov	DWORD PTR [esp+12], eax
	mov	DWORD PTR [esp+8], edx
	mov	DWORD PTR [esp+4], 1023
	lea	edi, [esp+156]
	mov	DWORD PTR [esp], edi
	call	_silc_strncat
LVL666:
	.loc 1 1275 0
	mov	DWORD PTR [esp+12], 1
	mov	DWORD PTR [esp+8], OFFSET FLAT:LC69
	mov	DWORD PTR [esp+4], 1023
	lea	eax, [esp+156]
	mov	DWORD PTR [esp], eax
	call	_silc_strncat
LVL667:
	.loc 1 1276 0
	mov	DWORD PTR [esp], esi
	call	_silc_free
LVL668:
LBE200:
LBB201:
LBB198:
	.loc 2 299 0
	mov	eax, DWORD PTR [ebx+20]
	mov	DWORD PTR [ebx+24], eax
LBB197:
LBB196:
	.loc 3 338 0
	mov	eax, DWORD PTR [ebx+8]
LVL669:
	add	ebp, 4
	.loc 3 339 0
	test	eax, eax
	je	L540
	mov	dl, BYTE PTR [ebx+16]
L541:
	.loc 3 340 0
	and	edx, 2
	jne	L729
	.loc 3 341 0
	movzx	edx, WORD PTR [ebx+12]
	.loc 3 340 0
	mov	edx, DWORD PTR [eax+edx]
	jmp	L544
LVL670:
	.p2align 2,,3
L501:
LBE196:
LBE197:
LBE198:
LBE201:
LBE189:
LBE187:
LBB205:
	.loc 1 1319 0
	test	cl, cl
	jne	L720
LVL671:
	.loc 1 1326 0
	mov	esi, DWORD PTR [eax]
LVL672:
	.loc 1 1327 0
	mov	edi, DWORD PTR [eax+4]
LVL673:
	.loc 1 1328 0
	mov	ecx, DWORD PTR [eax+8]
	mov	DWORD PTR [esp+76], ecx
LVL674:
	.loc 1 1329 0
	mov	edx, DWORD PTR [eax+12]
LVL675:
	.loc 1 1330 0
	test	edi, edi
	je	L498
	.loc 1 1333 0
	mov	DWORD PTR [esp+64], edx
	call	_purple_notify_user_info_new
LVL676:
	mov	ebx, eax
LVL677:
	.loc 1 1334 0
	mov	DWORD PTR [esp+4], -1
	mov	DWORD PTR [esp], edi
	call	_g_markup_escape_text
LVL678:
	mov	ebp, eax
LVL679:
	.loc 1 1335 0
	mov	DWORD PTR [esp+4], OFFSET FLAT:LC57
	mov	DWORD PTR [esp], OFFSET FLAT:LC1
	call	_libintl_dgettext
LVL680:
	mov	DWORD PTR [esp+8], ebp
	mov	DWORD PTR [esp+4], eax
	mov	DWORD PTR [esp], ebx
	call	_purple_notify_user_info_add_pair
LVL681:
	.loc 1 1336 0
	mov	DWORD PTR [esp], ebp
	call	_g_free
LVL682:
	.loc 1 1337 0
	mov	edx, DWORD PTR [esp+64]
	test	edx, edx
	je	L550
	.loc 1 1338 0
	mov	DWORD PTR [esp+4], -1
	mov	DWORD PTR [esp], edx
	call	_g_markup_escape_text
LVL683:
	mov	ebp, eax
LVL684:
	.loc 1 1339 0
	mov	DWORD PTR [esp+4], OFFSET FLAT:LC58
	mov	DWORD PTR [esp], OFFSET FLAT:LC1
	call	_libintl_dgettext
LVL685:
	mov	DWORD PTR [esp+8], ebp
	mov	DWORD PTR [esp+4], eax
	mov	DWORD PTR [esp], ebx
	call	_purple_notify_user_info_add_pair
LVL686:
	.loc 1 1340 0
	mov	DWORD PTR [esp], ebp
	call	_g_free
LVL687:
L550:
	.loc 1 1342 0
	mov	eax, DWORD PTR [esp+76]
	test	eax, eax
	je	L551
	.loc 1 1343 0
	mov	DWORD PTR [esp+4], -1
	mov	edx, DWORD PTR [esp+76]
	mov	DWORD PTR [esp], edx
	call	_g_markup_escape_text
LVL688:
	mov	ebp, eax
LVL689:
	.loc 1 1344 0
	test	esi, esi
	je	L552
	.loc 1 1344 0 is_stmt 0 discriminator 1
	cmp	BYTE PTR [esi+386], 0
	jne	L730
L552:
	.loc 1 1350 0 is_stmt 1
	mov	DWORD PTR [esp+4], OFFSET FLAT:LC59
	mov	DWORD PTR [esp], OFFSET FLAT:LC1
	call	_libintl_dgettext
LVL690:
	mov	DWORD PTR [esp+8], ebp
	mov	DWORD PTR [esp+4], eax
	mov	DWORD PTR [esp], ebx
	call	_purple_notify_user_info_add_pair
LVL691:
L553:
	.loc 1 1351 0
	mov	DWORD PTR [esp], ebp
	call	_g_free
LVL692:
L551:
	.loc 1 1353 0
	test	esi, esi
	je	L555
	.loc 1 1353 0 is_stmt 0 discriminator 1
	cmp	BYTE PTR [esi+643], 0
	jne	L731
L556:
	.loc 1 1357 0 is_stmt 1
	mov	eax, DWORD PTR [esi+944]
	test	eax, eax
	je	L555
LBB206:
	.loc 1 1361 0
	lea	edx, [esp+136]
	mov	DWORD PTR [esp+4], edx
	mov	DWORD PTR [esp], eax
	call	_silc_pkcs_public_key_encode
LVL693:
	mov	esi, eax
LVL694:
	.loc 1 1362 0
	test	eax, eax
	je	L555
LVL695:
	.loc 1 1363 0
	mov	eax, DWORD PTR [esp+136]
LVL696:
	mov	DWORD PTR [esp+8], eax
	mov	DWORD PTR [esp+4], esi
	mov	DWORD PTR [esp], 0
	call	_silc_hash_fingerprint
LVL697:
	mov	ebp, eax
LVL698:
	.loc 1 1364 0
	mov	eax, DWORD PTR [esp+136]
LVL699:
	mov	DWORD PTR [esp+8], eax
	mov	DWORD PTR [esp+4], esi
	mov	DWORD PTR [esp], 0
	call	_silc_hash_babbleprint
LVL700:
	mov	DWORD PTR [esp+76], eax
LVL701:
	.loc 1 1365 0
	mov	DWORD PTR [esp+4], OFFSET FLAT:LC71
	mov	DWORD PTR [esp], OFFSET FLAT:LC1
	call	_libintl_dgettext
LVL702:
	mov	DWORD PTR [esp+8], ebp
	mov	DWORD PTR [esp+4], eax
	mov	DWORD PTR [esp], ebx
	call	_purple_notify_user_info_add_pair
LVL703:
	.loc 1 1366 0
	mov	DWORD PTR [esp+4], OFFSET FLAT:LC72
	mov	DWORD PTR [esp], OFFSET FLAT:LC1
	call	_libintl_dgettext
LVL704:
	mov	edx, DWORD PTR [esp+76]
	mov	DWORD PTR [esp+8], edx
	mov	DWORD PTR [esp+4], eax
	mov	DWORD PTR [esp], ebx
	call	_purple_notify_user_info_add_pair
LVL705:
	.loc 1 1367 0
	mov	DWORD PTR [esp], ebp
	call	_silc_free
LVL706:
	.loc 1 1368 0
	mov	eax, DWORD PTR [esp+76]
	mov	DWORD PTR [esp], eax
	call	_silc_free
LVL707:
	.loc 1 1369 0
	mov	DWORD PTR [esp], esi
	call	_silc_free
LVL708:
L555:
LBE206:
	.loc 1 1373 0
	mov	DWORD PTR [esp+16], 0
	mov	DWORD PTR [esp+12], 0
	mov	DWORD PTR [esp+8], ebx
	mov	DWORD PTR [esp+4], edi
	mov	edx, DWORD PTR [esp+72]
	mov	DWORD PTR [esp], edx
	call	_purple_notify_userinfo
LVL709:
	.loc 1 1374 0
	mov	DWORD PTR [esp], ebx
	call	_purple_notify_user_info_destroy
LVL710:
LBE205:
	.loc 1 1376 0
	jmp	L498
LVL711:
	.p2align 2,,3
L502:
LBB208:
	.loc 1 1432 0
	test	cl, cl
	jne	L732
LVL712:
	.loc 1 1439 0
	mov	edi, DWORD PTR [eax+4]
	mov	DWORD PTR [esp+80], edi
LVL713:
	.loc 1 1442 0
	lea	edi, [esp+144]
LVL714:
	mov	DWORD PTR [esp+4], edi
	mov	eax, DWORD PTR [eax]
LVL715:
	mov	eax, DWORD PTR [eax+948]
	mov	DWORD PTR [esp], eax
	call	_silc_hash_table_list
LVL716:
	lea	edx, [esp+140]
	mov	DWORD PTR [esp+76], edx
LVL717:
	.p2align 2,,3
L715:
	.loc 1 1443 0 discriminator 1
	mov	edx, DWORD PTR [esp+76]
	mov	DWORD PTR [esp+8], edx
	mov	DWORD PTR [esp+4], 0
	mov	DWORD PTR [esp], edi
	call	_silc_hash_table_get
LVL718:
	test	al, al
	je	L733
	.loc 1 1444 0
	mov	eax, DWORD PTR [ebx+32]
	mov	DWORD PTR [esp+8], eax
	.loc 1 1445 0
	mov	eax, DWORD PTR [esp+140]
	mov	eax, DWORD PTR [eax+8]
	.loc 1 1444 0
	mov	eax, DWORD PTR [eax]
	mov	DWORD PTR [esp+4], eax
	mov	DWORD PTR [esp], 2
	call	_purple_find_conversation_with_account
LVL719:
	mov	esi, eax
LVL720:
	.loc 1 1446 0
	test	eax, eax
	je	L715
	.loc 1 1448 0
	mov	DWORD PTR [esp], eax
	call	_purple_conversation_get_chat_data
LVL721:
	mov	DWORD PTR [esp], eax
	call	_purple_conv_chat_get_nick
LVL722:
	mov	ebp, eax
LVL723:
	.loc 1 1449 0
	mov	DWORD PTR [esp], esi
	call	_purple_conversation_get_account
LVL724:
	mov	ecx, DWORD PTR [esp+80]
	mov	DWORD PTR [esp+4], ecx
	mov	DWORD PTR [esp], eax
	call	_purple_normalize
LVL725:
	mov	DWORD PTR [esp+4], eax
	mov	DWORD PTR [esp], ebp
	call	_strcmp
LVL726:
	test	eax, eax
	je	L715
	.loc 1 1450 0
	mov	DWORD PTR [esp], esi
	call	_purple_conversation_get_chat_data
LVL727:
	mov	edx, DWORD PTR [esp+80]
	mov	DWORD PTR [esp+8], edx
	mov	DWORD PTR [esp+4], ebp
	mov	DWORD PTR [esp], eax
	call	_purple_conv_chat_rename_user
LVL728:
	.loc 1 1452 0
	mov	DWORD PTR [esp], esi
	call	_purple_conversation_get_chat_data
LVL729:
	mov	ecx, DWORD PTR [esp+80]
	mov	DWORD PTR [esp+4], ecx
	mov	DWORD PTR [esp], eax
	call	_purple_conv_chat_set_nick
LVL730:
	jmp	L715
LVL731:
	.p2align 2,,3
L503:
LBE208:
LBB209:
	.loc 1 1467 0
	test	BYTE PTR [ebx+56], 4
	jne	L498
	.loc 1 1470 0
	mov	edx, esi
	test	dl, dl
	jne	L734
LVL732:
	.loc 1 1480 0
	mov	edi, DWORD PTR [eax+4]
LVL733:
	.loc 1 1481 0
	test	edi, edi
	je	L735
LVL734:
	.loc 1 1489 0
	mov	ebp, DWORD PTR [eax+8]
LVL735:
	.loc 1 1490 0
	mov	edx, DWORD PTR [eax+12]
LVL736:
	.loc 1 1492 0
	mov	DWORD PTR [esp+8], 0
	mov	DWORD PTR [esp+4], edi
	mov	DWORD PTR [esp], 2
	mov	DWORD PTR [esp+64], edx
	mov	BYTE PTR [esp+68], cl
	call	_purple_roomlist_room_new
LVL737:
	mov	esi, eax
LVL738:
	.loc 1 1493 0
	mov	DWORD PTR [esp+8], edi
	mov	DWORD PTR [esp+4], eax
	mov	eax, DWORD PTR [ebx+48]
LVL739:
	mov	DWORD PTR [esp], eax
	call	_purple_roomlist_room_add_field
LVL740:
	.loc 1 1494 0
	mov	edx, DWORD PTR [esp+64]
	mov	DWORD PTR [esp+8], edx
	mov	DWORD PTR [esp+4], esi
	mov	eax, DWORD PTR [ebx+48]
	mov	DWORD PTR [esp], eax
	call	_purple_roomlist_room_add_field
LVL741:
	.loc 1 1496 0
	test	ebp, ebp
	mov	cl, BYTE PTR [esp+68]
	je	L736
LVL742:
L569:
	.loc 1 1496 0 is_stmt 0 discriminator 3
	mov	DWORD PTR [esp+8], ebp
	mov	DWORD PTR [esp+4], esi
	mov	eax, DWORD PTR [ebx+48]
	mov	DWORD PTR [esp], eax
	mov	BYTE PTR [esp+68], cl
	call	_purple_roomlist_room_add_field
LVL743:
	.loc 1 1498 0 is_stmt 1 discriminator 3
	mov	DWORD PTR [esp+4], esi
	mov	eax, DWORD PTR [ebx+48]
	mov	DWORD PTR [esp], eax
	call	_purple_roomlist_room_add
LVL744:
	.loc 1 1500 0 discriminator 3
	mov	cl, BYTE PTR [esp+68]
	cmp	cl, 3
	je	L723
	.loc 1 1500 0 is_stmt 0 discriminator 1
	test	cl, cl
	jne	L498
LVL745:
L723:
	.loc 1 1484 0 is_stmt 1
	mov	DWORD PTR [esp+4], 0
	mov	eax, DWORD PTR [ebx+48]
	mov	DWORD PTR [esp], eax
	call	_purple_roomlist_set_in_progress
LVL746:
	.loc 1 1485 0
	mov	eax, DWORD PTR [ebx+48]
	mov	DWORD PTR [esp], eax
	call	_purple_roomlist_unref
LVL747:
	.loc 1 1486 0
	mov	DWORD PTR [ebx+48], 0
	.loc 1 1487 0
	jmp	L498
LVL748:
	.p2align 2,,3
L504:
LBE209:
LBB210:
	.loc 1 1403 0
	test	cl, cl
	jne	L737
LVL749:
	.loc 1 1409 0
	mov	esi, DWORD PTR [eax]
LVL750:
	.loc 1 1411 0
	mov	eax, DWORD PTR [ebx+32]
LVL751:
	mov	DWORD PTR [esp+8], eax
	mov	eax, DWORD PTR [esi]
	mov	DWORD PTR [esp+4], eax
	mov	DWORD PTR [esp], 2
	call	_purple_find_conversation_with_account
LVL752:
	.loc 1 1413 0
	test	eax, eax
	je	L738
	.loc 1 1420 0
	mov	ebx, DWORD PTR [esi+264]
LVL753:
	test	ebx, ebx
	je	L498
	.loc 1 1421 0
	mov	DWORD PTR [esp], eax
	call	_purple_conversation_get_chat_data
LVL754:
	mov	DWORD PTR [esp+8], ebx
	mov	DWORD PTR [esp+4], 0
	mov	DWORD PTR [esp], eax
	call	_purple_conv_chat_set_topic
LVL755:
	jmp	L498
LVL756:
	.p2align 2,,3
L505:
LBE210:
	.loc 1 1622 0
	test	cl, cl
	je	L498
	.loc 1 1623 0
	and	esi, 255
	mov	DWORD PTR [esp], esi
	call	_silc_get_status_message
LVL757:
	mov	esi, eax
	mov	DWORD PTR [esp+4], OFFSET FLAT:LC97
	mov	DWORD PTR [esp], OFFSET FLAT:LC1
	call	_libintl_dgettext
LVL758:
	mov	ebx, eax
LVL759:
	mov	DWORD PTR [esp+4], OFFSET FLAT:LC98
	jmp	L721
LVL760:
	.p2align 2,,3
L506:
LBB211:
	.loc 1 1538 0
	test	cl, cl
	jne	L739
LVL761:
	.loc 1 1546 0
	mov	edx, DWORD PTR [eax+4]
LVL762:
	.loc 1 1547 0
	mov	eax, DWORD PTR [eax+8]
LVL763:
	.loc 1 1549 0
	test	edx, edx
	je	L498
	.loc 1 1549 0 is_stmt 0 discriminator 1
	test	eax, eax
	je	L498
	.loc 1 1550 0 is_stmt 1
	mov	DWORD PTR [esp+16], eax
	mov	DWORD PTR [esp+12], edx
	mov	DWORD PTR [esp+8], OFFSET FLAT:LC89
	mov	DWORD PTR [esp+4], 256
	lea	ebx, [esp+156]
LVL764:
	mov	DWORD PTR [esp], ebx
	call	_g_snprintf
LVL765:
	.loc 1 1552 0
	mov	DWORD PTR [esp+4], OFFSET FLAT:LC88
	mov	DWORD PTR [esp], OFFSET FLAT:LC1
	call	_libintl_dgettext
LVL766:
	mov	DWORD PTR [esp+24], 0
	mov	DWORD PTR [esp+20], 0
	mov	DWORD PTR [esp+16], ebx
	mov	DWORD PTR [esp+12], eax
	mov	DWORD PTR [esp+8], 0
	mov	DWORD PTR [esp+4], 2
	mov	edx, DWORD PTR [esp+72]
	mov	DWORD PTR [esp], edx
	call	_purple_notify_message
LVL767:
LBE211:
	.loc 1 1555 0
	jmp	L498
LVL768:
	.p2align 2,,3
L507:
LBB212:
	.loc 1 1562 0
	test	cl, cl
	je	L574
	.loc 1 1563 0
	and	esi, 255
	mov	DWORD PTR [esp], esi
	call	_silc_get_status_message
LVL769:
	mov	esi, eax
	mov	DWORD PTR [esp+4], OFFSET FLAT:LC90
	mov	DWORD PTR [esp], OFFSET FLAT:LC1
	call	_libintl_dgettext
LVL770:
	mov	ebx, eax
LVL771:
	mov	DWORD PTR [esp+4], OFFSET FLAT:LC91
	jmp	L721
LVL772:
	.p2align 2,,3
L508:
LBE212:
	.loc 1 1610 0
	test	cl, cl
	je	L575
	.loc 1 1611 0
	and	esi, 255
	mov	DWORD PTR [esp], esi
	call	_silc_get_status_message
LVL773:
	mov	esi, eax
	mov	DWORD PTR [esp+4], OFFSET FLAT:LC94
	mov	DWORD PTR [esp], OFFSET FLAT:LC1
	call	_libintl_dgettext
LVL774:
	mov	ebx, eax
LVL775:
	mov	DWORD PTR [esp+4], OFFSET FLAT:LC95
	jmp	L721
LVL776:
	.p2align 2,,3
L509:
LBB213:
	.loc 1 1103 0
	test	cl, cl
	jne	L740
LVL777:
	.loc 1 1110 0
	mov	ecx, DWORD PTR [eax+4]
	mov	DWORD PTR [esp+84], ecx
LVL778:
	.loc 1 1112 0
	mov	edi, DWORD PTR [eax+12]
	mov	DWORD PTR [esp+80], edi
LVL779:
	.loc 1 1113 0
	mov	eax, DWORD PTR [eax+16]
LVL780:
	mov	DWORD PTR [esp+92], eax
LVL781:
	.loc 1 1116 0
	mov	eax, DWORD PTR [ebx+36]
LVL782:
	inc	eax
	mov	DWORD PTR [ebx+36], eax
	mov	DWORD PTR [ecx+320], eax
	.loc 1 1117 0
	mov	edx, DWORD PTR [ecx]
	mov	DWORD PTR [esp+8], edx
	mov	DWORD PTR [esp+4], eax
	mov	edx, DWORD PTR [esp+72]
	mov	DWORD PTR [esp], edx
	call	_serv_got_joined_chat
LVL783:
	.loc 1 1118 0
	mov	eax, DWORD PTR [ebx+32]
	mov	DWORD PTR [esp+8], eax
	mov	ecx, DWORD PTR [esp+84]
	mov	eax, DWORD PTR [ecx]
	mov	DWORD PTR [esp+4], eax
	mov	DWORD PTR [esp], 2
	call	_purple_find_conversation_with_account
LVL784:
	mov	DWORD PTR [esp+72], eax
LVL785:
	.loc 1 1120 0
	test	eax, eax
	je	L498
	xor	edi, edi
LVL786:
	xor	esi, esi
	lea	edx, [esp+140]
	mov	DWORD PTR [esp+76], edx
	mov	DWORD PTR [esp+88], ebp
LVL787:
	.p2align 2,,3
L714:
	.loc 1 1124 0 discriminator 1
	mov	edx, DWORD PTR [esp+76]
	mov	DWORD PTR [esp+8], edx
	mov	DWORD PTR [esp+4], 0
	mov	ecx, DWORD PTR [esp+80]
	mov	DWORD PTR [esp], ecx
	call	_silc_hash_table_get
LVL788:
	test	al, al
	je	L741
LVL789:
LBB214:
	.loc 1 1126 0
	mov	eax, DWORD PTR [esp+140]
	mov	edx, DWORD PTR [ebx+36]
	mov	DWORD PTR [eax+12], edx
	.loc 1 1128 0
	mov	ecx, DWORD PTR [eax+4]
	mov	ebp, ecx
	and	ebp, 1
	.loc 1 1129 0
	neg	ebp
	and	ebp, 8
LVL790:
	.loc 1 1130 0
	and	ecx, 2
	je	L520
	.loc 1 1131 0
	or	ebp, 4
LVL791:
L520:
	.loc 1 1132 0
	mov	eax, DWORD PTR [eax]
	mov	DWORD PTR [esp+4], eax
	mov	DWORD PTR [esp], esi
	call	_g_list_append
LVL792:
	mov	esi, eax
LVL793:
	.loc 1 1133 0
	mov	DWORD PTR [esp+4], ebp
	mov	DWORD PTR [esp], edi
	call	_g_list_append
LVL794:
	mov	edi, eax
LVL795:
	.loc 1 1135 0
	mov	eax, DWORD PTR [esp+140]
LVL796:
	test	BYTE PTR [eax+4], 1
	je	L714
	.loc 1 1136 0
	mov	edx, DWORD PTR [eax]
	mov	ecx, DWORD PTR [esp+88]
	cmp	edx, DWORD PTR [ecx]
	je	L742
	.loc 1 1141 0
	mov	eax, DWORD PTR [esp+84]
	mov	ecx, DWORD PTR [eax]
	.loc 1 1142 0
	mov	DWORD PTR [esp+4], OFFSET FLAT:LC54
	mov	DWORD PTR [esp], OFFSET FLAT:LC1
	mov	DWORD PTR [esp+64], edx
	mov	DWORD PTR [esp+68], ecx
	call	_libintl_dgettext
LVL797:
	.loc 1 1141 0
	mov	edx, DWORD PTR [esp+64]
	mov	DWORD PTR [esp+16], edx
	mov	ecx, DWORD PTR [esp+68]
	mov	DWORD PTR [esp+12], ecx
	mov	DWORD PTR [esp+8], eax
	mov	DWORD PTR [esp+4], 256
	lea	edx, [esp+156]
	mov	DWORD PTR [esp], edx
	call	_g_snprintf
LVL798:
L523:
	.loc 1 1145 0
	mov	DWORD PTR [esp], 0
	call	_time
LVL799:
	mov	DWORD PTR [esp+16], eax
	mov	DWORD PTR [esp+12], 4
	lea	ecx, [esp+156]
	mov	DWORD PTR [esp+8], ecx
	mov	DWORD PTR [esp+4], 0
	mov	eax, DWORD PTR [esp+72]
	mov	DWORD PTR [esp], eax
	call	_purple_conversation_write
LVL800:
	jmp	L714
LVL801:
	.p2align 2,,3
L510:
LBE214:
LBE213:
LBB216:
	.loc 1 1636 0
	test	cl, cl
	jne	L498
LVL802:
	.loc 1 1639 0
	mov	edi, DWORD PTR [eax]
	mov	DWORD PTR [esp+72], edi
LVL803:
	.loc 1 1642 0
	mov	esi, DWORD PTR [eax+12]
LVL804:
	.loc 1 1644 0
	test	BYTE PTR [ebx+56], 8
	je	L498
LBB217:
LBB218:
	.loc 2 86 0
	mov	DWORD PTR [esp], 28
	call	_silc_malloc
LVL805:
	mov	ebp, eax
LVL806:
	.loc 2 87 0
	test	eax, eax
	je	L576
	.loc 2 89 0
	mov	DWORD PTR [eax+24], 0
	mov	DWORD PTR [eax+20], 0
	.loc 2 90 0
	mov	eax, DWORD PTR [eax+16]
LVL807:
	and	eax, 3
	mov	DWORD PTR [ebp+16], eax
	mov	WORD PTR [ebp+12], 4
	mov	WORD PTR [ebp+14], 8
	mov	BYTE PTR [ebp+16], 1
	mov	DWORD PTR [ebp+8], 0
	mov	DWORD PTR [ebp+4], 0
	mov	DWORD PTR [ebp+0], 0
L576:
LBE218:
LBE217:
	.loc 1 1649 0
	test	esi, esi
	je	L578
LVL808:
LBB219:
LBB220:
	.loc 2 159 0
	mov	eax, DWORD PTR [esi]
	mov	DWORD PTR [esi+8], eax
	and	BYTE PTR [esi+16], -3
	.loc 2 160 0
	mov	DWORD PTR [esi+20], 0
LVL809:
	.p2align 2,,3
L716:
LBE220:
LBE219:
LBB221:
LBB222:
	.loc 2 299 0 discriminator 1
	mov	eax, DWORD PTR [esi+20]
	mov	DWORD PTR [esi+24], eax
LVL810:
LBB223:
LBB224:
	.loc 3 338 0 discriminator 1
	mov	eax, DWORD PTR [esi+8]
LVL811:
	.loc 3 339 0 discriminator 1
	test	eax, eax
	je	L586
	.loc 3 340 0
	test	BYTE PTR [esi+16], 2
	je	L587
	movzx	edx, WORD PTR [esi+14]
	mov	edx, DWORD PTR [eax+edx]
L588:
	mov	DWORD PTR [esi+8], edx
LBE224:
LBE223:
	.loc 2 300 0
	mov	DWORD PTR [esi+20], eax
	.loc 2 302 0
	mov	eax, DWORD PTR [eax]
LVL812:
LBE222:
LBE221:
	.loc 1 1651 0
	test	eax, eax
	je	L578
	.loc 1 1652 0
	mov	edx, DWORD PTR [eax+4]
	test	edx, edx
	je	L580
	.loc 1 1652 0 is_stmt 0 discriminator 1
	cmp	edx, 3
	jne	L716
L580:
	.loc 1 1654 0 is_stmt 1
	mov	eax, DWORD PTR [eax]
	mov	DWORD PTR [esp], eax
	call	_silc_pkcs_public_key_copy
LVL813:
	mov	edi, eax
LVL814:
LBB229:
LBB230:
	.loc 2 201 0
	mov	DWORD PTR [esp], 12
	call	_silc_malloc
LVL815:
	mov	edx, eax
LVL816:
	.loc 2 202 0
	test	eax, eax
	je	L716
	.loc 2 204 0
	mov	DWORD PTR [eax], edi
	.loc 2 205 0
	mov	edi, DWORD PTR [ebp+0]
LVL817:
	test	edi, edi
	je	L743
	movzx	eax, WORD PTR [ebp+12]
LVL818:
	mov	ecx, DWORD PTR [ebp+4]
	mov	DWORD PTR [ecx+eax], edx
L584:
	test	BYTE PTR [ebp+16], 1
	je	L585
	mov	edi, DWORD PTR [ebp+4]
	movzx	ecx, WORD PTR [ebp+14]
	mov	DWORD PTR [edx+ecx], edi
L585:
	mov	DWORD PTR [ebp+4], edx
	mov	DWORD PTR [edx+eax], 0
	add	DWORD PTR [ebp+16], 4
	jmp	L716
LVL819:
	.p2align 2,,3
L511:
LBE230:
LBE229:
LBE216:
LBB235:
	.loc 1 1383 0
	test	cl, cl
	je	L558
	.loc 1 1384 0
	and	esi, 255
	mov	DWORD PTR [esp], esi
	call	_silc_get_status_message
LVL820:
	mov	esi, eax
	mov	DWORD PTR [esp+4], OFFSET FLAT:LC73
	mov	DWORD PTR [esp], OFFSET FLAT:LC1
	call	_libintl_dgettext
LVL821:
	mov	ebx, eax
LVL822:
	mov	DWORD PTR [esp+4], OFFSET FLAT:LC74
	.p2align 2,,3
L721:
LBE235:
	.loc 1 1663 0
	mov	DWORD PTR [esp], OFFSET FLAT:LC1
	call	_libintl_dgettext
LVL823:
	mov	DWORD PTR [esp+24], 0
	mov	DWORD PTR [esp+20], 0
	mov	DWORD PTR [esp+16], esi
	mov	DWORD PTR [esp+12], ebx
	mov	DWORD PTR [esp+8], eax
	mov	DWORD PTR [esp+4], 0
	mov	ebx, DWORD PTR [esp+72]
	mov	DWORD PTR [esp], ebx
	call	_purple_notify_message
LVL824:
	.loc 1 1665 0
	jmp	L498
LVL825:
	.p2align 2,,3
L512:
	.loc 1 1662 0
	test	cl, cl
	je	L498
	.loc 1 1663 0
	and	esi, 255
	mov	DWORD PTR [esp], esi
	call	_silc_get_status_message
LVL826:
	mov	esi, eax
	mov	DWORD PTR [esp+4], OFFSET FLAT:LC99
	mov	DWORD PTR [esp], OFFSET FLAT:LC1
	call	_libintl_dgettext
LVL827:
	mov	ebx, eax
LVL828:
	mov	DWORD PTR [esp+4], OFFSET FLAT:LC100
	jmp	L721
LVL829:
	.p2align 2,,3
L514:
LBB238:
	.loc 1 1513 0
	test	cl, cl
	jne	L744
LVL830:
	.loc 1 1524 0
	mov	ebp, DWORD PTR [eax+8]
	test	ebp, ebp
	jne	L498
	.loc 1 1525 0
	mov	DWORD PTR [esp+4], OFFSET FLAT:LC86
	mov	DWORD PTR [esp], OFFSET FLAT:LC1
	call	_libintl_dgettext
LVL831:
	mov	esi, eax
	mov	DWORD PTR [esp+4], OFFSET FLAT:LC84
	mov	DWORD PTR [esp], OFFSET FLAT:LC1
	call	_libintl_dgettext
LVL832:
	mov	ebx, eax
LVL833:
	mov	DWORD PTR [esp+4], OFFSET FLAT:LC85
LVL834:
	.p2align 2,,3
L719:
LBE238:
LBB239:
	.loc 1 1179 0
	mov	DWORD PTR [esp], OFFSET FLAT:LC1
	call	_libintl_dgettext
LVL835:
	mov	DWORD PTR [esp+24], 0
	mov	DWORD PTR [esp+20], 0
	mov	DWORD PTR [esp+16], esi
	mov	DWORD PTR [esp+12], ebx
	mov	DWORD PTR [esp+8], eax
	mov	DWORD PTR [esp+4], 0
	mov	edx, DWORD PTR [esp+72]
	mov	DWORD PTR [esp], edx
	call	_purple_notify_message
LVL836:
	jmp	L498
LVL837:
	.p2align 2,,3
L558:
LBE239:
LBB240:
	.loc 1 1389 0
	mov	esi, DWORD PTR [eax]
LVL838:
	.loc 1 1392 0
	mov	eax, DWORD PTR [ebx+32]
LVL839:
	mov	DWORD PTR [esp], eax
	call	_purple_account_get_username
LVL840:
	mov	DWORD PTR [esp], eax
	call	_silcpurple_session_file
LVL841:
	mov	ebx, eax
LVL842:
	.loc 1 1393 0
	mov	DWORD PTR [esp], eax
	call	_g_unlink
LVL843:
	.loc 1 1883 0
	mov	eax, DWORD PTR [esi+4]
LBB236:
LBB237:
	.file 4 "../../../../win32-dev/silc-toolkit-1.1.10/include/silcbuffer.h"
	.loc 4 195 0
	mov	edx, DWORD PTR [esi+8]
	sub	edx, eax
LBE237:
LBE236:
	.loc 1 1394 0
	mov	DWORD PTR [esp+8], edx
	mov	DWORD PTR [esp+4], eax
	mov	DWORD PTR [esp], ebx
	call	_silc_file_writefile
LVL844:
LBE240:
	.loc 1 1397 0
	jmp	L498
LVL845:
	.p2align 2,,3
L740:
LBB241:
	.loc 1 1104 0
	and	esi, 255
	mov	DWORD PTR [esp], esi
	call	_silc_get_status_message
LVL846:
	mov	esi, eax
	mov	DWORD PTR [esp+4], OFFSET FLAT:LC51
	mov	DWORD PTR [esp], OFFSET FLAT:LC1
	call	_libintl_dgettext
LVL847:
	mov	ebx, eax
LVL848:
	mov	DWORD PTR [esp+4], OFFSET FLAT:LC52
	jmp	L719
LVL849:
	.p2align 2,,3
L574:
LBE241:
LBB242:
	.loc 1 1569 0
	mov	ebx, DWORD PTR [eax]
LVL850:
	.loc 1 1571 0
	mov	edx, DWORD PTR [ebx+56]
	mov	ebp, DWORD PTR [ebx+52]
	mov	edi, DWORD PTR [ebx+48]
	mov	ecx, DWORD PTR [ebx+44]
	mov	eax, DWORD PTR [ebx+40]
LVL851:
	mov	DWORD PTR [esp+76], eax
	mov	eax, DWORD PTR [ebx+36]
	mov	DWORD PTR [esp+80], eax
	mov	eax, DWORD PTR [ebx+32]
	mov	DWORD PTR [esp+84], eax
	mov	eax, DWORD PTR [ebx+28]
	mov	DWORD PTR [esp+88], eax
	mov	eax, DWORD PTR [ebx+24]
	mov	DWORD PTR [esp+92], eax
	mov	eax, DWORD PTR [ebx+20]
	mov	DWORD PTR [esp+96], eax
	mov	eax, DWORD PTR [ebx+16]
	mov	DWORD PTR [esp+100], eax
	mov	eax, DWORD PTR [ebx+12]
	mov	DWORD PTR [esp+104], eax
	mov	eax, DWORD PTR [ebx+8]
	mov	DWORD PTR [esp+108], eax
	mov	eax, DWORD PTR [ebx+4]
	mov	DWORD PTR [esp], eax
	mov	DWORD PTR [esp+64], edx
	mov	DWORD PTR [esp+68], ecx
	call	_purple_str_seconds_to_string
LVL852:
	mov	esi, eax
	mov	eax, DWORD PTR [ebx]
	mov	DWORD PTR [esp], eax
	mov	DWORD PTR [esp+4], 0
	call	_silc_time_string
LVL853:
	mov	ebx, eax
LVL854:
	mov	DWORD PTR [esp+4], OFFSET FLAT:LC92
	mov	DWORD PTR [esp], OFFSET FLAT:LC1
	call	_libintl_dgettext
LVL855:
	mov	edx, DWORD PTR [esp+64]
	mov	DWORD PTR [esp+60], edx
	mov	DWORD PTR [esp+56], ebp
	mov	DWORD PTR [esp+52], edi
	mov	ecx, DWORD PTR [esp+68]
	mov	DWORD PTR [esp+48], ecx
	mov	edx, DWORD PTR [esp+76]
	mov	DWORD PTR [esp+44], edx
	mov	ecx, DWORD PTR [esp+80]
	mov	DWORD PTR [esp+40], ecx
	mov	edi, DWORD PTR [esp+84]
	mov	DWORD PTR [esp+36], edi
	mov	edx, DWORD PTR [esp+88]
	mov	DWORD PTR [esp+32], edx
	mov	ecx, DWORD PTR [esp+92]
	mov	DWORD PTR [esp+28], ecx
	mov	edi, DWORD PTR [esp+96]
	mov	DWORD PTR [esp+24], edi
	mov	edx, DWORD PTR [esp+100]
	mov	DWORD PTR [esp+20], edx
	mov	ecx, DWORD PTR [esp+104]
	mov	DWORD PTR [esp+16], ecx
	mov	edi, DWORD PTR [esp+108]
	mov	DWORD PTR [esp+12], edi
	mov	DWORD PTR [esp+8], esi
	mov	DWORD PTR [esp+4], ebx
	mov	DWORD PTR [esp], eax
	call	_g_strdup_printf
LVL856:
	mov	ebx, eax
LVL857:
	.loc 1 1602 0
	mov	DWORD PTR [esp+4], OFFSET FLAT:LC93
	mov	DWORD PTR [esp], OFFSET FLAT:LC1
	call	_libintl_dgettext
LVL858:
	mov	DWORD PTR [esp+24], 0
	mov	DWORD PTR [esp+20], 0
	mov	DWORD PTR [esp+16], ebx
	mov	DWORD PTR [esp+12], eax
	mov	DWORD PTR [esp+8], 0
	mov	DWORD PTR [esp+4], 2
	mov	edx, DWORD PTR [esp+72]
	mov	DWORD PTR [esp], edx
	call	_purple_notify_message
LVL859:
	.loc 1 1604 0
	mov	DWORD PTR [esp], ebx
	call	_g_free
LVL860:
LBE242:
	.loc 1 1606 0
	jmp	L498
LVL861:
	.p2align 2,,3
L575:
	.loc 1 1616 0
	mov	DWORD PTR [esp+4], OFFSET FLAT:LC96
	mov	DWORD PTR [esp], OFFSET FLAT:LC1
	call	_libintl_dgettext
LVL862:
	mov	ebx, eax
LVL863:
	mov	DWORD PTR [esp+4], OFFSET FLAT:LC95
	mov	DWORD PTR [esp], OFFSET FLAT:LC1
	call	_libintl_dgettext
LVL864:
	mov	DWORD PTR [esp+24], 0
	mov	DWORD PTR [esp+20], 0
	mov	DWORD PTR [esp+16], 0
	mov	DWORD PTR [esp+12], ebx
	mov	DWORD PTR [esp+8], eax
	mov	DWORD PTR [esp+4], 2
	mov	edx, DWORD PTR [esp+72]
	mov	DWORD PTR [esp], edx
	call	_purple_notify_message
LVL865:
	.loc 1 1619 0
	jmp	L498
LVL866:
	.p2align 2,,3
L720:
LBB243:
	.loc 1 1179 0
	and	esi, 255
	mov	DWORD PTR [esp], esi
	call	_silc_get_status_message
LVL867:
	mov	esi, eax
	mov	DWORD PTR [esp+4], OFFSET FLAT:LC55
	mov	DWORD PTR [esp], OFFSET FLAT:LC1
	call	_libintl_dgettext
LVL868:
	mov	ebx, eax
LVL869:
	mov	DWORD PTR [esp+4], OFFSET FLAT:LC56
	jmp	L719
LVL870:
	.p2align 2,,3
L725:
LBE243:
	.loc 1 1671 0
	mov	DWORD PTR [esp+8], edx
	mov	DWORD PTR [esp+4], OFFSET FLAT:LC101
	mov	DWORD PTR [esp], OFFSET FLAT:LC11
	call	_purple_debug_info
LVL871:
	jmp	L498
LVL872:
	.p2align 2,,3
L732:
LBB244:
	.loc 1 1433 0
	and	esi, 255
	mov	DWORD PTR [esp], esi
	call	_silc_get_status_message
LVL873:
	mov	esi, eax
	mov	DWORD PTR [esp+4], OFFSET FLAT:LC78
	mov	DWORD PTR [esp], OFFSET FLAT:LC1
	call	_libintl_dgettext
LVL874:
	mov	ebx, eax
LVL875:
	mov	DWORD PTR [esp+4], OFFSET FLAT:LC79
	jmp	L721
LVL876:
	.p2align 2,,3
L737:
LBE244:
LBB245:
	.loc 1 1404 0
	and	esi, 255
	mov	DWORD PTR [esp], esi
	call	_silc_get_status_message
LVL877:
	mov	esi, eax
	mov	DWORD PTR [esp+4], OFFSET FLAT:LC75
	mov	DWORD PTR [esp], OFFSET FLAT:LC1
	call	_libintl_dgettext
LVL878:
	mov	ebx, eax
LVL879:
	mov	DWORD PTR [esp+4], OFFSET FLAT:LC76
	jmp	L719
LVL880:
	.p2align 2,,3
L744:
LBE245:
LBB246:
	.loc 1 1514 0
	and	esi, 255
	mov	DWORD PTR [esp], esi
	call	_silc_get_status_message
LVL881:
	mov	esi, eax
	mov	DWORD PTR [esp+4], OFFSET FLAT:LC84
	mov	DWORD PTR [esp], OFFSET FLAT:LC1
	call	_libintl_dgettext
LVL882:
	mov	ebx, eax
LVL883:
	mov	DWORD PTR [esp+4], OFFSET FLAT:LC85
	jmp	L721
LVL884:
	.p2align 2,,3
L739:
LBE246:
LBB247:
	.loc 1 1539 0
	and	esi, 255
	mov	DWORD PTR [esp], esi
	call	_silc_get_status_message
LVL885:
	mov	esi, eax
	mov	DWORD PTR [esp+4], OFFSET FLAT:LC87
	mov	DWORD PTR [esp], OFFSET FLAT:LC1
	call	_libintl_dgettext
LVL886:
	mov	ebx, eax
LVL887:
	mov	DWORD PTR [esp+4], OFFSET FLAT:LC88
	jmp	L721
LVL888:
	.p2align 2,,3
L587:
LBE247:
LBB248:
LBB232:
LBB227:
LBB226:
LBB225:
	.loc 3 341 0
	movzx	edx, WORD PTR [esi+12]
	.loc 3 340 0
	mov	edx, DWORD PTR [eax+edx]
	jmp	L588
LVL889:
	.p2align 2,,3
L733:
LBE225:
LBE226:
LBE227:
LBE232:
LBE248:
LBB249:
	.loc 1 1455 0
	mov	DWORD PTR [esp], edi
	call	_silc_hash_table_list_reset
LVL890:
	.loc 1 1457 0
	mov	ecx, DWORD PTR [esp+80]
	mov	DWORD PTR [esp+4], ecx
	mov	ebx, DWORD PTR [esp+72]
LVL891:
	mov	DWORD PTR [esp], ebx
	call	_purple_connection_set_display_name
LVL892:
LBE249:
	.loc 1 1459 0
	jmp	L498
LVL893:
	.p2align 2,,3
L540:
LBB250:
LBB203:
LBB202:
LBB199:
	.loc 2 300 0
	mov	DWORD PTR [ebx+20], 0
L592:
LBE199:
LBE202:
	.loc 1 1278 0
	mov	DWORD PTR [esp+4], -1
	lea	edx, [esp+156]
	mov	DWORD PTR [esp], edx
	call	_g_markup_escape_text
LVL894:
	mov	ebx, eax
LVL895:
	.loc 1 1279 0
	mov	DWORD PTR [esp+4], OFFSET FLAT:LC70
	mov	DWORD PTR [esp], OFFSET FLAT:LC1
	call	_libintl_dgettext
LVL896:
	mov	DWORD PTR [esp+8], ebx
	mov	DWORD PTR [esp+4], eax
	mov	eax, DWORD PTR [esp+76]
	mov	DWORD PTR [esp], eax
	call	_purple_notify_user_info_add_pair
LVL897:
	.loc 1 1280 0
	mov	DWORD PTR [esp], ebx
	call	_g_free
LVL898:
L539:
LBE203:
	.loc 1 1283 0
	mov	edx, DWORD PTR [esp+80]
	mov	eax, DWORD PTR [edx+944]
	test	eax, eax
	je	L546
LBB204:
	.loc 1 1287 0
	lea	edx, [esp+136]
	mov	DWORD PTR [esp+4], edx
	mov	DWORD PTR [esp], eax
	call	_silc_pkcs_public_key_encode
LVL899:
	mov	edi, eax
LVL900:
	.loc 1 1288 0
	test	eax, eax
	je	L546
LVL901:
	.loc 1 1289 0
	mov	eax, DWORD PTR [esp+136]
LVL902:
	mov	DWORD PTR [esp+8], eax
	mov	DWORD PTR [esp+4], edi
	mov	DWORD PTR [esp], 0
	call	_silc_hash_fingerprint
LVL903:
	mov	esi, eax
LVL904:
	.loc 1 1290 0
	mov	eax, DWORD PTR [esp+136]
LVL905:
	mov	DWORD PTR [esp+8], eax
	mov	DWORD PTR [esp+4], edi
	mov	DWORD PTR [esp], 0
	call	_silc_hash_babbleprint
LVL906:
	mov	ebx, eax
LVL907:
	.loc 1 1291 0
	mov	DWORD PTR [esp+4], OFFSET FLAT:LC71
	mov	DWORD PTR [esp], OFFSET FLAT:LC1
	call	_libintl_dgettext
LVL908:
	mov	DWORD PTR [esp+8], esi
	mov	DWORD PTR [esp+4], eax
	mov	eax, DWORD PTR [esp+76]
	mov	DWORD PTR [esp], eax
	call	_purple_notify_user_info_add_pair
LVL909:
	.loc 1 1292 0
	mov	DWORD PTR [esp+4], OFFSET FLAT:LC72
	mov	DWORD PTR [esp], OFFSET FLAT:LC1
	call	_libintl_dgettext
LVL910:
	mov	DWORD PTR [esp+8], ebx
	mov	DWORD PTR [esp+4], eax
	mov	eax, DWORD PTR [esp+76]
	mov	DWORD PTR [esp], eax
	call	_purple_notify_user_info_add_pair
LVL911:
	.loc 1 1293 0
	mov	DWORD PTR [esp], esi
	call	_silc_free
LVL912:
	.loc 1 1294 0
	mov	DWORD PTR [esp], ebx
	call	_silc_free
LVL913:
	.loc 1 1295 0
	mov	DWORD PTR [esp], edi
	call	_silc_free
LVL914:
L546:
LBE204:
	.loc 1 1308 0
	mov	DWORD PTR [esp+16], 0
	mov	DWORD PTR [esp+12], 0
	mov	eax, DWORD PTR [esp+76]
	mov	DWORD PTR [esp+8], eax
	mov	edx, DWORD PTR [esp+80]
	mov	DWORD PTR [esp+4], edx
	mov	ebx, DWORD PTR [esp+72]
	mov	DWORD PTR [esp], ebx
	call	_purple_notify_userinfo
LVL915:
	.loc 1 1309 0
	mov	eax, DWORD PTR [esp+76]
	mov	DWORD PTR [esp], eax
	call	_purple_notify_user_info_destroy
LVL916:
LBE250:
	.loc 1 1311 0
	jmp	L498
LVL917:
	.p2align 2,,3
L741:
	mov	ebp, DWORD PTR [esp+88]
LBB251:
	.loc 1 1150 0
	mov	eax, DWORD PTR [esp+72]
	mov	DWORD PTR [esp], eax
	call	_purple_conversation_get_chat_data
LVL918:
	mov	DWORD PTR [esp+16], 0
	mov	DWORD PTR [esp+12], edi
	mov	DWORD PTR [esp+8], 0
	mov	DWORD PTR [esp+4], esi
	mov	DWORD PTR [esp], eax
	call	_purple_conv_chat_add_users
LVL919:
	.loc 1 1151 0
	mov	DWORD PTR [esp], esi
	call	_g_list_free
LVL920:
	.loc 1 1152 0
	mov	DWORD PTR [esp], edi
	call	_g_list_free
LVL921:
	.loc 1 1155 0
	mov	eax, DWORD PTR [esp+92]
	test	eax, eax
	je	L525
	.loc 1 1156 0
	mov	eax, DWORD PTR [esp+72]
	mov	DWORD PTR [esp], eax
	call	_purple_conversation_get_chat_data
LVL922:
	mov	edx, DWORD PTR [esp+92]
	mov	DWORD PTR [esp+8], edx
	mov	DWORD PTR [esp+4], 0
	mov	DWORD PTR [esp], eax
	call	_purple_conv_chat_set_topic
LVL923:
L525:
	.loc 1 1159 0
	mov	ebx, DWORD PTR [ebp+0]
LVL924:
	mov	eax, DWORD PTR [esp+72]
	mov	DWORD PTR [esp], eax
	call	_purple_conversation_get_chat_data
LVL925:
	mov	DWORD PTR [esp+4], ebx
	mov	DWORD PTR [esp], eax
	call	_purple_conv_chat_set_nick
LVL926:
LBE251:
	.loc 1 1161 0
	jmp	L498
LVL927:
	.p2align 2,,3
L586:
LBB252:
LBB233:
LBB228:
	.loc 2 300 0
	mov	DWORD PTR [esi+20], 0
LVL928:
L578:
LBE228:
LBE233:
	.loc 1 1657 0
	mov	DWORD PTR [esp+8], ebp
	mov	edx, DWORD PTR [esp+72]
	mov	DWORD PTR [esp+4], edx
	mov	DWORD PTR [esp], ebx
	call	_silcpurple_chat_chauth_show
LVL929:
LBE252:
	.loc 1 1659 0
	jmp	L498
LVL930:
	.p2align 2,,3
L742:
LBB253:
LBB215:
	.loc 1 1137 0
	mov	ecx, DWORD PTR [esp+84]
	mov	edx, DWORD PTR [ecx]
	.loc 1 1138 0
	mov	DWORD PTR [esp+4], OFFSET FLAT:LC53
	mov	DWORD PTR [esp], OFFSET FLAT:LC1
	mov	DWORD PTR [esp+64], edx
	call	_libintl_dgettext
LVL931:
	.loc 1 1137 0
	mov	edx, DWORD PTR [esp+64]
	mov	DWORD PTR [esp+12], edx
	mov	DWORD PTR [esp+8], eax
	mov	DWORD PTR [esp+4], 256
	lea	eax, [esp+156]
	mov	DWORD PTR [esp], eax
	call	_g_snprintf
LVL932:
	jmp	L523
LVL933:
	.p2align 2,,3
L528:
LBE215:
LBE253:
LBB254:
	.loc 1 1211 0
	mov	DWORD PTR [esp+4], OFFSET FLAT:LC59
	mov	DWORD PTR [esp], OFFSET FLAT:LC1
	call	_libintl_dgettext
LVL934:
	mov	DWORD PTR [esp+8], edi
	mov	DWORD PTR [esp+4], eax
	mov	eax, DWORD PTR [esp+76]
	mov	DWORD PTR [esp], eax
	call	_purple_notify_user_info_add_pair
LVL935:
	jmp	L529
LVL936:
	.p2align 2,,3
L728:
	.loc 1 1260 0
	mov	DWORD PTR [esp+4], OFFSET FLAT:LC68
	mov	DWORD PTR [esp], OFFSET FLAT:LC1
	call	_libintl_dgettext
LVL937:
	mov	edx, DWORD PTR [esp+80]
	add	edx, 643
	mov	DWORD PTR [esp+8], edx
	mov	DWORD PTR [esp+4], eax
	mov	eax, DWORD PTR [esp+76]
	mov	DWORD PTR [esp], eax
	call	_purple_notify_user_info_add_pair
LVL938:
	jmp	L538
LVL939:
	.p2align 2,,3
L727:
	.loc 1 1215 0
	lea	esi, [esp+156]
	xor	eax, eax
	mov	ecx, 1024
	mov	edi, esi
LVL940:
	rep stosb
	.loc 1 1217 0
	mov	ecx, -1
	mov	edi, esi
	repne scasb
	.loc 1 1216 0
	lea	eax, [ecx+1026]
	mov	DWORD PTR [esp+8], eax
	.loc 1 1217 0
	mov	DWORD PTR [esp+4], esi
	.loc 1 1216 0
	mov	eax, DWORD PTR [edx+940]
	mov	DWORD PTR [esp], eax
	call	_silcpurple_get_umode_string
LVL941:
	.loc 1 1218 0
	mov	DWORD PTR [esp+4], OFFSET FLAT:LC60
	mov	DWORD PTR [esp], OFFSET FLAT:LC1
	call	_libintl_dgettext
LVL942:
	mov	DWORD PTR [esp+8], esi
	mov	DWORD PTR [esp+4], eax
	mov	eax, DWORD PTR [esp+76]
	mov	DWORD PTR [esp], eax
	call	_purple_notify_user_info_add_pair
LVL943:
	jmp	L530
LVL944:
L743:
LBE254:
LBB255:
LBB234:
LBB231:
	.loc 2 205 0
	mov	DWORD PTR [ebp+0], eax
	movzx	eax, WORD PTR [ebp+12]
LVL945:
	jmp	L584
LVL946:
L731:
LBE231:
LBE234:
LBE255:
LBB256:
	.loc 1 1354 0
	mov	DWORD PTR [esp+4], OFFSET FLAT:LC68
	mov	DWORD PTR [esp], OFFSET FLAT:LC1
	call	_libintl_dgettext
LVL947:
	lea	edx, [esi+643]
	mov	DWORD PTR [esp+8], edx
	mov	DWORD PTR [esp+4], eax
	mov	DWORD PTR [esp], ebx
	call	_purple_notify_user_info_add_pair
LVL948:
	jmp	L556
LVL949:
L734:
LBE256:
LBB257:
	.loc 1 1471 0
	and	esi, 255
	mov	DWORD PTR [esp], esi
	call	_silc_get_status_message
LVL950:
	mov	edi, eax
	mov	DWORD PTR [esp+4], OFFSET FLAT:LC80
	mov	DWORD PTR [esp], OFFSET FLAT:LC1
	call	_libintl_dgettext
LVL951:
	mov	esi, eax
	mov	DWORD PTR [esp+4], OFFSET FLAT:LC15
LVL952:
L722:
	.loc 1 1482 0
	mov	DWORD PTR [esp], OFFSET FLAT:LC1
	call	_libintl_dgettext
LVL953:
	mov	DWORD PTR [esp+24], 0
	mov	DWORD PTR [esp+20], 0
	mov	DWORD PTR [esp+16], edi
	mov	DWORD PTR [esp+12], esi
	mov	DWORD PTR [esp+8], eax
	mov	DWORD PTR [esp+4], 0
	mov	edx, DWORD PTR [esp+72]
	mov	DWORD PTR [esp], edx
	call	_purple_notify_message
LVL954:
	jmp	L723
LVL955:
L730:
LBE257:
LBB258:
LBB207:
	.loc 1 1346 0 discriminator 1
	lea	eax, [esi+386]
LVL956:
	mov	DWORD PTR [esp+8], eax
	mov	DWORD PTR [esp+4], ebp
	mov	DWORD PTR [esp], OFFSET FLAT:LC18
	call	_g_strdup_printf
LVL957:
	mov	DWORD PTR [esp+76], eax
LVL958:
	.loc 1 1347 0 discriminator 1
	mov	DWORD PTR [esp+4], OFFSET FLAT:LC59
	mov	DWORD PTR [esp], OFFSET FLAT:LC1
	call	_libintl_dgettext
LVL959:
	mov	ecx, DWORD PTR [esp+76]
	mov	DWORD PTR [esp+8], ecx
	mov	DWORD PTR [esp+4], eax
	mov	DWORD PTR [esp], ebx
	call	_purple_notify_user_info_add_pair
LVL960:
	.loc 1 1348 0 discriminator 1
	mov	eax, DWORD PTR [esp+76]
	mov	DWORD PTR [esp], eax
	call	_g_free
LVL961:
LBE207:
	.loc 1 1344 0 discriminator 1
	jmp	L553
LVL962:
L736:
LBE258:
LBB259:
	.loc 1 1496 0
	mov	ebp, OFFSET FLAT:LC16
LVL963:
	jmp	L569
LVL964:
L735:
	.loc 1 1482 0
	mov	DWORD PTR [esp+4], OFFSET FLAT:LC81
	mov	DWORD PTR [esp], OFFSET FLAT:LC1
	call	_libintl_dgettext
LVL965:
	mov	edi, eax
LVL966:
	mov	DWORD PTR [esp+4], OFFSET FLAT:LC82
	mov	DWORD PTR [esp], OFFSET FLAT:LC1
	call	_libintl_dgettext
LVL967:
	mov	esi, eax
	mov	DWORD PTR [esp+4], OFFSET FLAT:LC83
	jmp	L722
LVL968:
L738:
LBE259:
LBB260:
	.loc 1 1414 0
	mov	eax, DWORD PTR [esi]
LVL969:
	mov	DWORD PTR [esp+8], eax
	mov	DWORD PTR [esp+4], OFFSET FLAT:LC77
	mov	DWORD PTR [esp], OFFSET FLAT:LC11
	call	_purple_debug_error
LVL970:
	.loc 1 1416 0
	jmp	L498
LVL971:
L726:
LBE260:
	.loc 1 1677 0
	call	___stack_chk_fail
LVL972:
	.cfi_endproc
LFE173:
	.p2align 2,,3
	.globl	_silcpurple_command_reply
	.def	_silcpurple_command_reply;	.scl	2;	.type	32;	.endef
_silcpurple_command_reply:
LFB174:
	.loc 1 1685 0
	.cfi_startproc
LVL973:
	sub	esp, 60
LCFI188:
	.cfi_def_cfa_offset 64
	.loc 1 1685 0
	mov	eax, DWORD PTR ___stack_chk_guard
	mov	DWORD PTR [esp+44], eax
	xor	eax, eax
	.loc 1 1686 0
	mov	eax, DWORD PTR [esp+88]
	mov	DWORD PTR [esp+20], eax
	movzx	eax, BYTE PTR [esp+80]
	mov	DWORD PTR [esp+16], eax
	movzx	eax, BYTE PTR [esp+76]
	mov	DWORD PTR [esp+12], eax
	movzx	eax, BYTE PTR [esp+72]
	mov	DWORD PTR [esp+8], eax
	mov	eax, DWORD PTR [esp+68]
	mov	DWORD PTR [esp+4], eax
	mov	eax, DWORD PTR [esp+64]
	mov	DWORD PTR [esp], eax
	call	_silc_command_reply
LVL974:
	.loc 1 1688 0
	mov	al, 1
	mov	edx, DWORD PTR [esp+44]
	xor	edx, DWORD PTR ___stack_chk_guard
	jne	L748
	add	esp, 60
LCFI189:
	.cfi_remember_state
	.cfi_def_cfa_offset 4
	ret
L748:
LCFI190:
	.cfi_restore_state
	call	___stack_chk_fail
LVL975:
	.cfi_endproc
LFE174:
	.globl	_ops
	.data
	.align 32
_ops:
	.long	_silc_say
	.long	_silc_channel_message
	.long	_silc_private_message
	.long	_silc_notify
	.long	_silc_command
	.long	_silc_command_reply
	.long	_silc_get_auth_method
	.long	_silc_verify_public_key
	.long	_silc_ask_passphrase
	.long	_silc_key_agreement
	.long	_silc_ftp
	.text
Letext0:
	.file 5 "c:/workspace/pidgin-devel/win32-dev/mingw-4.7.2/bin/../lib/gcc/mingw32/4.7.2/include/stddef.h"
	.file 6 "c:/workspace/pidgin-devel/win32-dev/mingw-4.7.2/bin/../lib/gcc/mingw32/4.7.2/include/stdarg.h"
	.file 7 "c:/workspace/pidgin-devel/win32-dev/mingw-4.7.2/bin/../lib/gcc/mingw32/4.7.2/../../../../include/stdio.h"
	.file 8 "c:/workspace/pidgin-devel/win32-dev/mingw-4.7.2/bin/../lib/gcc/mingw32/4.7.2/../../../../include/sys/types.h"
	.file 9 "c:/workspace/pidgin-devel/win32-dev/mingw-4.7.2/bin/../lib/gcc/mingw32/4.7.2/../../../../include/time.h"
	.file 10 "../../../../win32-dev/gtk_2_0-2.14/lib/glib-2.0/include/glibconfig.h"
	.file 11 "../../../../win32-dev/gtk_2_0-2.14/include/glib-2.0/glib/gtypes.h"
	.file 12 "../../../../win32-dev/gtk_2_0-2.14/include/glib-2.0/glib/glist.h"
	.file 13 "../../../../win32-dev/gtk_2_0-2.14/include/glib-2.0/glib/ghash.h"
	.file 14 "../../../../win32-dev/gtk_2_0-2.14/include/glib-2.0/glib/gslist.h"
	.file 15 "c:/workspace/pidgin-devel/win32-dev/mingw-4.7.2/bin/../lib/gcc/mingw32/4.7.2/../../../../include/winsock2.h"
	.file 16 "../../../../win32-dev/gtk_2_0-2.14/include/glib-2.0/gobject/gclosure.h"
	.file 17 "../../../libpurple/account.h"
	.file 18 "../../../libpurple/connection.h"
	.file 19 "../../../libpurple/plugin.h"
	.file 20 "../../../libpurple/pluginpref.h"
	.file 21 "../../../libpurple/status.h"
	.file 22 "../../../libpurple/blist.h"
	.file 23 "../../../libpurple/buddyicon.h"
	.file 24 "../../../libpurple/conversation.h"
	.file 25 "../../../libpurple/log.h"
	.file 26 "../../../libpurple/media/enum-types.h"
	.file 27 "../../../libpurple/media/../notify.h"
	.file 28 "../../../libpurple/proxy.h"
	.file 29 "../../../libpurple/roomlist.h"
	.file 30 "c:/workspace/pidgin-devel/win32-dev/mingw-4.7.2/bin/../lib/gcc/mingw32/4.7.2/../../../../include/wtypes.h"
	.file 31 "../../../libpurple/privacy.h"
	.file 32 "../../../../win32-dev/silc-toolkit-1.1.10/include/silctypes.h"
	.file 33 "../../../../win32-dev/silc-toolkit-1.1.10/include/silcmutex.h"
	.file 34 "../../../../win32-dev/silc-toolkit-1.1.10/include/silcatomic.h"
	.file 35 "../../../../win32-dev/silc-toolkit-1.1.10/include/silcrng.h"
	.file 36 "../../../../win32-dev/silc-toolkit-1.1.10/include/silcschedule.h"
	.file 37 "../../../../win32-dev/silc-toolkit-1.1.10/include/silcschedule_i.h"
	.file 38 "../../../../win32-dev/silc-toolkit-1.1.10/include/silchashtable.h"
	.file 39 "../../../../win32-dev/silc-toolkit-1.1.10/include/silccipher.h"
	.file 40 "../../../../win32-dev/silc-toolkit-1.1.10/include/silchash.h"
	.file 41 "../../../../win32-dev/silc-toolkit-1.1.10/include/silchmac.h"
	.file 42 "../../../../win32-dev/silc-toolkit-1.1.10/include/silcpkcs.h"
	.file 43 "../../../../win32-dev/silc-toolkit-1.1.10/include/silcmime.h"
	.file 44 "../../../../win32-dev/silc-toolkit-1.1.10/include/silcmime_i.h"
	.file 45 "../../../../win32-dev/silc-toolkit-1.1.10/include/silcargument.h"
	.file 46 "../../../../win32-dev/silc-toolkit-1.1.10/include/silcstatus.h"
	.file 47 "../../../../win32-dev/silc-toolkit-1.1.10/include/silcid.h"
	.file 48 "../../../../win32-dev/silc-toolkit-1.1.10/include/silccommand.h"
	.file 49 "../../../../win32-dev/silc-toolkit-1.1.10/include/silcauth.h"
	.file 50 "../../../../win32-dev/silc-toolkit-1.1.10/include/silcmessage.h"
	.file 51 "../../../../win32-dev/silc-toolkit-1.1.10/include/silcmessage_i.h"
	.file 52 "../../../../win32-dev/silc-toolkit-1.1.10/include/silcchannel.h"
	.file 53 "../../../../win32-dev/silc-toolkit-1.1.10/include/silcpacket.h"
	.file 54 "../../../../win32-dev/silc-toolkit-1.1.10/include/silcnotify.h"
	.file 55 "../../../../win32-dev/silc-toolkit-1.1.10/include/silcconnauth.h"
	.file 56 "../../../../win32-dev/silc-toolkit-1.1.10/include/client.h"
	.file 57 "../../../../win32-dev/silc-toolkit-1.1.10/include/silcclient.h"
	.file 58 "../../../../win32-dev/silc-toolkit-1.1.10/include/silcclient_entry.h"
	.file 59 "silcpurple.h"
	.file 60 "c:/workspace/pidgin-devel/win32-dev/mingw-4.7.2/bin/../lib/gcc/mingw32/4.7.2/../../../../include/ctype.h"
	.file 61 "../../../../win32-dev/silc-toolkit-1.1.10/include/silcmemory.h"
	.file 62 "../../../../win32-dev/gtk_2_0-2.14/include/libintl.h"
	.file 63 "../../../libpurple/request.h"
	.file 64 "../../../../win32-dev/silc-toolkit-1.1.10/include/silcsnprintf.h"
	.file 65 "../../../libpurple/debug.h"
	.file 66 "../../../../win32-dev/silc-toolkit-1.1.10/include/silcapputil.h"
	.file 67 "../../../../win32-dev/gtk_2_0-2.14/include/glib-2.0/glib/gstrfuncs.h"
	.file 68 "../../../libpurple/server.h"
	.file 69 "../../../../win32-dev/gtk_2_0-2.14/include/glib-2.0/glib/gmarkup.h"
	.file 70 "../../../libpurple/media/../util.h"
	.file 71 "../../../../win32-dev/gtk_2_0-2.14/include/glib-2.0/glib/gmem.h"
	.file 72 "../../../../win32-dev/gtk_2_0-2.14/include/glib-2.0/glib/gutils.h"
	.file 73 "../../../libpurple/prpl.h"
	.file 74 "c:/workspace/pidgin-devel/win32-dev/mingw-4.7.2/bin/../lib/gcc/mingw32/4.7.2/../../../../include/string.h"
	.file 75 "../../../libpurple/imgstore.h"
	.file 76 "wb.h"
	.file 77 "../../../../win32-dev/gtk_2_0-2.14/include/glib-2.0/glib/gunicode.h"
	.file 78 "../../../../win32-dev/silc-toolkit-1.1.10/include/silcstrutil.h"
	.file 79 "../../../../win32-dev/silc-toolkit-1.1.10/include/silctime.h"
	.file 80 "../../../../win32-dev/gtk_2_0-2.14/include/glib-2.0/glib/gstdio.h"
	.file 81 "../../../../win32-dev/silc-toolkit-1.1.10/include/silcfileutil.h"