	.file	"parser.c"
	.intel_syntax noprefix
	.text
Ltext0:
	.section .rdata,"dr"
LC0:
	.ascii "(null)\12\0"
	.align 4
LC1:
	.ascii "XML parser error for BonjourJabberConversation %p: Domain %i, code %i, level %i: %s\0"
LC2:
	.ascii "jabber\0"
	.text
	.p2align 2,,3
	.def	_bonjour_parser_structured_error_handler;	.scl	3;	.type	32;	.endef
_bonjour_parser_structured_error_handler:
LFB97:
	.file 1 "parser.c"
	.loc 1 158 0
	.cfi_startproc
LVL0:
	sub	esp, 60
LCFI0:
	.cfi_def_cfa_offset 64
	mov	ecx, DWORD PTR [esp+64]
	mov	eax, DWORD PTR [esp+68]
	.loc 1 158 0
	mov	edx, DWORD PTR ___stack_chk_guard
	mov	DWORD PTR [esp+44], edx
	xor	edx, edx
LVL1:
	.loc 1 165 0
	mov	edx, DWORD PTR [eax+8]
	.loc 1 161 0
	test	edx, edx
	je	L6
L2:
	mov	DWORD PTR [esp+24], edx
	mov	edx, DWORD PTR [eax+12]
	mov	DWORD PTR [esp+20], edx
	mov	edx, DWORD PTR [eax+4]
	mov	DWORD PTR [esp+16], edx
	mov	eax, DWORD PTR [eax]
	mov	DWORD PTR [esp+12], eax
	mov	DWORD PTR [esp+8], ecx
	mov	DWORD PTR [esp+4], OFFSET FLAT:LC1
	mov	DWORD PTR [esp], OFFSET FLAT:LC2
	call	_purple_debug_error
LVL2:
	.loc 1 166 0
	mov	eax, DWORD PTR [esp+44]
	xor	eax, DWORD PTR ___stack_chk_guard
	jne	L7
	add	esp, 60
LCFI1:
	.cfi_remember_state
	.cfi_def_cfa_offset 4
	ret
LVL3:
	.p2align 2,,3
L6:
LCFI2:
	.cfi_restore_state
	.loc 1 161 0
	mov	edx, OFFSET FLAT:LC0
	jmp	L2
LVL4:
L7:
	.loc 1 166 0
	call	___stack_chk_fail
LVL5:
	.cfi_endproc
LFE97:
	.section .rdata,"dr"
LC3:
	.ascii "from\0"
	.text
	.p2align 2,,3
	.def	_parse_from_attrib_and_find_buddy;	.scl	3;	.type	32;	.endef
_parse_from_attrib_and_find_buddy:
LFB93:
	.loc 1 35 0
	.cfi_startproc
LVL6:
	push	ebp
LCFI3:
	.cfi_def_cfa_offset 8
	.cfi_offset 5, -8
	push	edi
LCFI4:
	.cfi_def_cfa_offset 12
	.cfi_offset 7, -12
	push	esi
LCFI5:
	.cfi_def_cfa_offset 16
	.cfi_offset 6, -16
	push	ebx
LCFI6:
	.cfi_def_cfa_offset 20
	.cfi_offset 3, -20
	sub	esp, 44
LCFI7:
	.cfi_def_cfa_offset 64
	mov	edi, eax
	mov	ebp, ecx
	.loc 1 35 0
	mov	eax, DWORD PTR ___stack_chk_guard
	mov	DWORD PTR [esp+28], eax
	xor	eax, eax
LVL7:
	.loc 1 39 0
	lea	esi, [edx+edx*4]
	xor	ebx, ebx
	test	esi, esi
	jg	L15
	jmp	L12
LVL8:
	.p2align 2,,3
L11:
	add	ebx, 5
LVL9:
	cmp	ebx, esi
	jge	L12
LVL10:
L15:
	.loc 1 40 0
	mov	DWORD PTR [esp+4], OFFSET FLAT:LC3
	mov	eax, DWORD PTR [ebp+0+ebx*4]
	mov	DWORD PTR [esp], eax
	call	_xmlStrcmp
LVL11:
	test	eax, eax
	jne	L11
LBB5:
	.loc 1 41 0
	mov	edx, DWORD PTR [ebp+12+ebx*4]
LVL12:
	mov	eax, DWORD PTR [ebp+16+ebx*4]
	sub	eax, edx
	.loc 1 42 0
	mov	DWORD PTR [esp+4], eax
	mov	DWORD PTR [esp], edx
	call	_g_strndup
LVL13:
	mov	DWORD PTR [edi+52], eax
	.loc 1 43 0
	mov	DWORD PTR [esp], edi
	call	_bonjour_jabber_conv_match_by_name
LVL14:
	.loc 1 45 0
	xor	eax, eax
	mov	edx, DWORD PTR [edi+44]
	test	edx, edx
	setne	al
	jmp	L10
	.p2align 2,,3
L12:
LBE5:
	.loc 1 49 0
	xor	eax, eax
L10:
	.loc 1 50 0
	mov	edx, DWORD PTR [esp+28]
	xor	edx, DWORD PTR ___stack_chk_guard
	jne	L18
	add	esp, 44
LCFI8:
	.cfi_remember_state
	.cfi_def_cfa_offset 20
	pop	ebx
LCFI9:
	.cfi_restore 3
	.cfi_def_cfa_offset 16
	pop	esi
LCFI10:
	.cfi_restore 6
	.cfi_def_cfa_offset 12
	pop	edi
LCFI11:
	.cfi_restore 7
	.cfi_def_cfa_offset 8
LVL15:
	pop	ebp
LCFI12:
	.cfi_restore 5
	.cfi_def_cfa_offset 4
LVL16:
	ret
LVL17:
L18:
LCFI13:
	.cfi_restore_state
	call	___stack_chk_fail
LVL18:
	.cfi_endproc
LFE93:
	.p2align 2,,3
	.def	_bonjour_parser_element_text_libxml;	.scl	3;	.type	32;	.endef
_bonjour_parser_element_text_libxml:
LFB96:
	.loc 1 144 0
	.cfi_startproc
LVL19:
	push	ebx
LCFI14:
	.cfi_def_cfa_offset 8
	.cfi_offset 3, -8
	sub	esp, 24
LCFI15:
	.cfi_def_cfa_offset 32
	mov	edx, DWORD PTR [esp+36]
	mov	ecx, DWORD PTR [esp+40]
	.loc 1 144 0
	mov	eax, DWORD PTR ___stack_chk_guard
	mov	DWORD PTR [esp+12], eax
	xor	eax, eax
LVL20:
	.loc 1 147 0
	mov	eax, DWORD PTR [esp+32]
	mov	eax, DWORD PTR [eax+40]
	test	eax, eax
	je	L19
	.loc 1 150 0
	test	edx, edx
	je	L19
	.loc 1 150 0 is_stmt 0 discriminator 1
	test	ecx, ecx
	jne	L34
L19:
	.loc 1 154 0 is_stmt 1
	mov	eax, DWORD PTR [esp+12]
	xor	eax, DWORD PTR ___stack_chk_guard
	jne	L33
	add	esp, 24
LCFI16:
	.cfi_remember_state
	.cfi_def_cfa_offset 8
	pop	ebx
LCFI17:
	.cfi_restore 3
	.cfi_def_cfa_offset 4
	ret
	.p2align 2,,3
L34:
LCFI18:
	.cfi_restore_state
	.loc 1 153 0
	mov	ebx, DWORD PTR [esp+12]
	xor	ebx, DWORD PTR ___stack_chk_guard
	jne	L33
	mov	DWORD PTR [esp+40], ecx
	mov	DWORD PTR [esp+36], edx
	mov	DWORD PTR [esp+32], eax
	.loc 1 154 0
	add	esp, 24
LCFI19:
	.cfi_remember_state
	.cfi_def_cfa_offset 8
	pop	ebx
LCFI20:
	.cfi_restore 3
	.cfi_def_cfa_offset 4
	.loc 1 153 0
	jmp	_xmlnode_insert_data
LVL21:
L33:
LCFI21:
	.cfi_restore_state
	.loc 1 154 0
	call	___stack_chk_fail
LVL22:
	.cfi_endproc
LFE96:
	.section .rdata,"dr"
LC4:
	.ascii "stream\0"
	.text
	.p2align 2,,3
	.def	_bonjour_parser_element_end_libxml;	.scl	3;	.type	32;	.endef
_bonjour_parser_element_end_libxml:
LFB95:
	.loc 1 118 0
	.cfi_startproc
LVL23:
	push	esi
LCFI22:
	.cfi_def_cfa_offset 8
	.cfi_offset 6, -8
	push	ebx
LCFI23:
	.cfi_def_cfa_offset 12
	.cfi_offset 3, -12
	sub	esp, 36
LCFI24:
	.cfi_def_cfa_offset 48
	mov	esi, DWORD PTR [esp+48]
	mov	eax, DWORD PTR [esp+52]
	.loc 1 118 0
	mov	edx, DWORD PTR ___stack_chk_guard
	mov	DWORD PTR [esp+28], edx
	xor	edx, edx
LVL24:
	.loc 1 121 0
	mov	ebx, DWORD PTR [esi+40]
	test	ebx, ebx
	je	L47
	.loc 1 131 0
	mov	ecx, DWORD PTR [ebx+20]
	test	ecx, ecx
	je	L40
	.loc 1 132 0
	mov	DWORD PTR [esp+4], eax
	mov	eax, DWORD PTR [ebx]
	mov	DWORD PTR [esp], eax
	call	_xmlStrcmp
LVL25:
	test	eax, eax
	je	L48
L35:
	.loc 1 140 0
	mov	eax, DWORD PTR [esp+28]
	xor	eax, DWORD PTR ___stack_chk_guard
	jne	L46
	add	esp, 36
LCFI25:
	.cfi_remember_state
	.cfi_def_cfa_offset 12
	pop	ebx
LCFI26:
	.cfi_restore 3
	.cfi_def_cfa_offset 8
	pop	esi
LCFI27:
	.cfi_restore 6
	.cfi_def_cfa_offset 4
LVL26:
	ret
LVL27:
	.p2align 2,,3
L48:
LCFI28:
	.cfi_restore_state
	.loc 1 133 0
	mov	eax, DWORD PTR [esi+40]
	mov	eax, DWORD PTR [eax+20]
	mov	DWORD PTR [esi+40], eax
	jmp	L35
	.p2align 2,,3
L40:
LVL28:
LBB10:
	.loc 1 136 0
	mov	DWORD PTR [esi+40], 0
	.loc 1 137 0
	mov	DWORD PTR [esp+4], ebx
	mov	eax, DWORD PTR [esi+44]
	mov	DWORD PTR [esp], eax
	call	_bonjour_jabber_process_packet
LVL29:
	.loc 1 138 0
	mov	edx, DWORD PTR [esp+28]
	xor	edx, DWORD PTR ___stack_chk_guard
	jne	L46
	mov	DWORD PTR [esp+48], ebx
LBE10:
	.loc 1 140 0
	add	esp, 36
LCFI29:
	.cfi_remember_state
	.cfi_def_cfa_offset 12
	pop	ebx
LCFI30:
	.cfi_restore 3
	.cfi_def_cfa_offset 8
LVL30:
	pop	esi
LCFI31:
	.cfi_restore 6
	.cfi_def_cfa_offset 4
LVL31:
LBB11:
	.loc 1 138 0
	jmp	_xmlnode_free
LVL32:
	.p2align 2,,3
L47:
LCFI32:
	.cfi_restore_state
LBE11:
LBB12:
LBB13:
	.loc 1 124 0
	mov	DWORD PTR [esp+4], OFFSET FLAT:LC4
	mov	DWORD PTR [esp], eax
	call	_xmlStrcmp
LVL33:
	test	eax, eax
	jne	L35
	.loc 1 127 0
	mov	eax, DWORD PTR [esp+28]
	xor	eax, DWORD PTR ___stack_chk_guard
	jne	L46
	mov	DWORD PTR [esp+48], esi
LBE13:
LBE12:
	.loc 1 140 0
	add	esp, 36
LCFI33:
	.cfi_remember_state
	.cfi_def_cfa_offset 12
	pop	ebx
LCFI34:
	.cfi_restore 3
	.cfi_def_cfa_offset 8
	pop	esi
LCFI35:
	.cfi_restore 6
	.cfi_def_cfa_offset 4
LVL34:
LBB15:
LBB14:
	.loc 1 127 0
	jmp	_async_bonjour_jabber_close_conversation
LVL35:
L46:
LCFI36:
	.cfi_restore_state
LBE14:
LBE15:
	.loc 1 140 0
	call	___stack_chk_fail
LVL36:
	.cfi_endproc
LFE95:
	.section .rdata,"dr"
LC5:
	.ascii "features\0"
LC6:
	.ascii "element_name != NULL\0"
	.text
	.p2align 2,,3
	.def	_bonjour_parser_element_start_libxml;	.scl	3;	.type	32;	.endef
_bonjour_parser_element_start_libxml:
LFB94:
	.loc 1 57 0
	.cfi_startproc
LVL37:
	push	ebp
LCFI37:
	.cfi_def_cfa_offset 8
	.cfi_offset 5, -8
	push	edi
LCFI38:
	.cfi_def_cfa_offset 12
	.cfi_offset 7, -12
	push	esi
LCFI39:
	.cfi_def_cfa_offset 16
	.cfi_offset 6, -16
	push	ebx
LCFI40:
	.cfi_def_cfa_offset 20
	.cfi_offset 3, -20
	sub	esp, 92
LCFI41:
	.cfi_def_cfa_offset 112
	mov	eax, DWORD PTR [esp+112]
	mov	DWORD PTR [esp+60], eax
	mov	ebx, DWORD PTR [esp+116]
	mov	edx, DWORD PTR [esp+120]
	mov	DWORD PTR [esp+36], edx
	mov	edi, DWORD PTR [esp+124]
	mov	esi, DWORD PTR [esp+136]
	mov	ebp, DWORD PTR [esp+144]
	.loc 1 57 0
	mov	eax, DWORD PTR ___stack_chk_guard
	mov	DWORD PTR [esp+76], eax
	xor	eax, eax
LVL38:
LBB21:
	.loc 1 63 0
	test	ebx, ebx
	je	L76
LVL39:
LBE21:
	.loc 1 65 0
	mov	DWORD PTR [esp+4], OFFSET FLAT:LC4
	mov	DWORD PTR [esp], ebx
	call	_xmlStrcmp
LVL40:
	test	eax, eax
	jne	L77
	.loc 1 66 0
	mov	edx, DWORD PTR [esp+60]
	mov	eax, DWORD PTR [edx+24]
	test	eax, eax
	jne	L49
	.loc 1 67 0
	mov	DWORD PTR [edx+24], 1
	.loc 1 69 0
	mov	eax, DWORD PTR [edx+44]
	test	eax, eax
	je	L78
L53:
	.loc 1 72 0
	mov	eax, DWORD PTR [esp+76]
	xor	eax, DWORD PTR ___stack_chk_guard
	jne	L75
	mov	edx, DWORD PTR [esp+60]
	mov	DWORD PTR [esp+112], edx
	.loc 1 113 0
	add	esp, 92
LCFI42:
	.cfi_remember_state
	.cfi_def_cfa_offset 20
	pop	ebx
LCFI43:
	.cfi_restore 3
	.cfi_def_cfa_offset 16
	pop	esi
LCFI44:
	.cfi_restore 6
	.cfi_def_cfa_offset 12
	pop	edi
LCFI45:
	.cfi_restore 7
	.cfi_def_cfa_offset 8
	pop	ebp
LCFI46:
	.cfi_restore 5
	.cfi_def_cfa_offset 4
	.loc 1 72 0
	jmp	_bonjour_jabber_stream_started
LVL41:
	.p2align 2,,3
L77:
LCFI47:
	.cfi_restore_state
LBB22:
LBB23:
	.loc 1 78 0
	mov	eax, DWORD PTR [esp+60]
	mov	eax, DWORD PTR [eax+44]
	test	eax, eax
	je	L79
L56:
	.loc 1 87 0
	mov	edx, DWORD PTR [esp+60]
	mov	eax, DWORD PTR [edx+40]
	test	eax, eax
	je	L61
	.loc 1 88 0
	mov	DWORD PTR [esp+4], ebx
	mov	DWORD PTR [esp], eax
	call	_xmlnode_new_child
LVL42:
	mov	DWORD PTR [esp+52], eax
LVL43:
L62:
	.loc 1 91 0
	mov	DWORD PTR [esp+4], edi
	mov	eax, DWORD PTR [esp+52]
	mov	DWORD PTR [esp], eax
	call	_xmlnode_set_namespace
LVL44:
	.loc 1 93 0
	lea	esi, [esi+esi*4]
LVL45:
	mov	DWORD PTR [esp+56], esi
	test	esi, esi
	jle	L65
	.loc 1 53 0
	lea	edx, [ebp+12]
LBE23:
LBE22:
	.loc 1 93 0
	mov	DWORD PTR [esp+36], 0
	mov	ebx, edx
LVL46:
	.p2align 2,,3
L64:
LBB28:
LBB25:
LBB24:
	.loc 1 94 0
	mov	edx, DWORD PTR [ebx-12]
	mov	DWORD PTR [esp+40], edx
LVL47:
	.loc 1 95 0
	mov	edx, DWORD PTR [ebx-8]
LVL48:
	mov	DWORD PTR [esp+44], edx
LVL49:
	.loc 1 96 0
	mov	edx, DWORD PTR [ebx-4]
LVL50:
	mov	DWORD PTR [esp+48], edx
LVL51:
	.loc 1 98 0
	mov	edx, DWORD PTR [ebx+4]
LVL52:
	sub	edx, DWORD PTR [ebx]
LVL53:
	.loc 1 99 0
	lea	eax, [edx+1]
	mov	DWORD PTR [esp], eax
	mov	DWORD PTR [esp+32], edx
	call	_g_malloc
LVL54:
	mov	ebp, eax
LVL55:
	.loc 1 101 0
	mov	esi, DWORD PTR [ebx]
	mov	edx, DWORD PTR [esp+32]
	mov	edi, eax
	mov	ecx, edx
	rep movsb
	.loc 1 102 0
	mov	BYTE PTR [eax+edx], 0
LVL56:
	.loc 1 105 0
	mov	DWORD PTR [esp], eax
	call	_purple_unescape_text
LVL57:
	mov	esi, eax
LVL58:
	.loc 1 106 0
	mov	DWORD PTR [esp], ebp
	call	_g_free
LVL59:
	.loc 1 107 0
	mov	DWORD PTR [esp+16], esi
	mov	edx, DWORD PTR [esp+44]
	mov	DWORD PTR [esp+12], edx
	mov	edx, DWORD PTR [esp+48]
	mov	DWORD PTR [esp+8], edx
	mov	edx, DWORD PTR [esp+40]
	mov	DWORD PTR [esp+4], edx
	mov	eax, DWORD PTR [esp+52]
	mov	DWORD PTR [esp], eax
	call	_xmlnode_set_attrib_full
LVL60:
	.loc 1 108 0
	mov	DWORD PTR [esp], esi
	call	_g_free
LVL61:
LBE24:
	.loc 1 93 0
	add	DWORD PTR [esp+36], 5
LVL62:
	add	ebx, 20
	mov	edx, DWORD PTR [esp+36]
	cmp	DWORD PTR [esp+56], edx
	jg	L64
LVL63:
L65:
	.loc 1 111 0
	mov	eax, DWORD PTR [esp+52]
	mov	edx, DWORD PTR [esp+60]
	mov	DWORD PTR [edx+40], eax
LVL64:
L49:
LBE25:
LBE28:
	.loc 1 113 0
	mov	edx, DWORD PTR [esp+76]
	xor	edx, DWORD PTR ___stack_chk_guard
	jne	L75
	add	esp, 92
LCFI48:
	.cfi_remember_state
	.cfi_def_cfa_offset 20
	pop	ebx
LCFI49:
	.cfi_restore 3
	.cfi_def_cfa_offset 16
	pop	esi
LCFI50:
	.cfi_restore 6
	.cfi_def_cfa_offset 12
	pop	edi
LCFI51:
	.cfi_restore 7
	.cfi_def_cfa_offset 8
	pop	ebp
LCFI52:
	.cfi_restore 5
	.cfi_def_cfa_offset 4
	ret
LVL65:
	.p2align 2,,3
L79:
LCFI53:
	.cfi_restore_state
LBB29:
LBB26:
	.loc 1 79 0
	mov	eax, DWORD PTR [esp+36]
	test	eax, eax
	je	L60
	mov	DWORD PTR [esp+4], OFFSET FLAT:LC4
	mov	edx, DWORD PTR [esp+36]
	mov	DWORD PTR [esp], edx
	call	_xmlStrcmp
LVL66:
	test	eax, eax
	je	L80
L60:
	.loc 1 81 0
	mov	ecx, ebp
	mov	edx, esi
	mov	eax, DWORD PTR [esp+60]
	call	_parse_from_attrib_and_find_buddy
LVL67:
	test	eax, eax
	jne	L56
	.loc 1 85 0
	mov	eax, DWORD PTR [esp+60]
	mov	DWORD PTR [esp], eax
	call	_bonjour_jabber_conv_match_by_ip
LVL68:
	jmp	L56
	.p2align 2,,3
L61:
	.loc 1 90 0
	mov	DWORD PTR [esp], ebx
	call	_xmlnode_new
LVL69:
	mov	DWORD PTR [esp+52], eax
LVL70:
	jmp	L62
LVL71:
	.p2align 2,,3
L76:
LBE26:
LBE29:
	.loc 1 63 0
	mov	eax, DWORD PTR [esp+76]
	xor	eax, DWORD PTR ___stack_chk_guard
	jne	L75
	mov	DWORD PTR [esp+120], OFFSET FLAT:LC6
	mov	DWORD PTR [esp+116], OFFSET FLAT:___PRETTY_FUNCTION__.47637
	mov	DWORD PTR [esp+112], 0
	.loc 1 113 0
	add	esp, 92
LCFI54:
	.cfi_remember_state
	.cfi_def_cfa_offset 20
	pop	ebx
LCFI55:
	.cfi_restore 3
	.cfi_def_cfa_offset 16
	pop	esi
LCFI56:
	.cfi_restore 6
	.cfi_def_cfa_offset 12
	pop	edi
LCFI57:
	.cfi_restore 7
	.cfi_def_cfa_offset 8
	pop	ebp
LCFI58:
	.cfi_restore 5
	.cfi_def_cfa_offset 4
	.loc 1 63 0
	jmp	_g_return_if_fail_warning
LVL72:
L80:
LCFI59:
	.cfi_restore_state
LBB30:
LBB27:
	.loc 1 80 0
	mov	DWORD PTR [esp+4], OFFSET FLAT:LC5
	mov	DWORD PTR [esp], ebx
	call	_xmlStrcmp
LVL73:
	.loc 1 79 0
	test	eax, eax
	jne	L60
	jmp	L56
LVL74:
L78:
LBE27:
LBE30:
	.loc 1 70 0
	mov	ecx, ebp
	mov	edx, esi
	mov	eax, DWORD PTR [esp+60]
	call	_parse_from_attrib_and_find_buddy
LVL75:
	jmp	L53
LVL76:
L75:
	.loc 1 113 0
	call	___stack_chk_fail
LVL77:
	.cfi_endproc
LFE94:
	.p2align 2,,3
	.globl	_bonjour_parser_setup
	.def	_bonjour_parser_setup;	.scl	2;	.type	32;	.endef
_bonjour_parser_setup:
LFB98:
	.loc 1 205 0
	.cfi_startproc
LVL78:
	push	ebx
LCFI60:
	.cfi_def_cfa_offset 8
	.cfi_offset 3, -8
	sub	esp, 40
LCFI61:
	.cfi_def_cfa_offset 48
	mov	ebx, DWORD PTR [esp+48]
	.loc 1 205 0
	mov	eax, DWORD PTR ___stack_chk_guard
	mov	DWORD PTR [esp+28], eax
	xor	eax, eax
	.loc 1 211 0
	mov	eax, DWORD PTR [ebx+36]
	test	eax, eax
	je	L81
	.loc 1 212 0
	mov	DWORD PTR [esp+12], 1
	mov	DWORD PTR [esp+8], 0
	mov	DWORD PTR [esp+4], 0
	mov	DWORD PTR [esp], eax
	call	_xmlParseChunk
LVL79:
	.loc 1 213 0
	mov	eax, DWORD PTR [ebx+36]
	mov	DWORD PTR [esp], eax
	call	_xmlFreeParserCtxt
LVL80:
	.loc 1 214 0
	mov	DWORD PTR [ebx+36], 0
L81:
	.loc 1 216 0
	mov	eax, DWORD PTR [esp+28]
	xor	eax, DWORD PTR ___stack_chk_guard
	jne	L88
	add	esp, 40
LCFI62:
	.cfi_remember_state
	.cfi_def_cfa_offset 8
	pop	ebx
LCFI63:
	.cfi_restore 3
	.cfi_def_cfa_offset 4
	ret
L88:
LCFI64:
	.cfi_restore_state
	call	___stack_chk_fail
LVL81:
	.cfi_endproc
LFE98:
	.section .rdata,"dr"
LC7:
	.ascii "\0"
LC8:
	.ascii "Error parsing xml.\12\0"
LC9:
	.ascii "bonjour\0"
	.text
	.p2align 2,,3
	.globl	_bonjour_parser_process
	.def	_bonjour_parser_process;	.scl	2;	.type	32;	.endef
_bonjour_parser_process:
LFB99:
	.loc 1 220 0
	.cfi_startproc
LVL82:
	push	ebx
LCFI65:
	.cfi_def_cfa_offset 8
	.cfi_offset 3, -8
	sub	esp, 56
LCFI66:
	.cfi_def_cfa_offset 64
	mov	ebx, DWORD PTR [esp+64]
	mov	edx, DWORD PTR [esp+68]
	mov	ecx, DWORD PTR [esp+72]
	.loc 1 220 0
	mov	eax, DWORD PTR ___stack_chk_guard
	mov	DWORD PTR [esp+44], eax
	xor	eax, eax
	.loc 1 222 0
	mov	eax, DWORD PTR [ebx+36]
	test	eax, eax
	je	L96
	.loc 1 227 0
	mov	DWORD PTR [esp+12], 0
	mov	DWORD PTR [esp+8], ecx
	mov	DWORD PTR [esp+4], edx
	mov	DWORD PTR [esp], eax
	call	_xmlParseChunk
LVL83:
	test	eax, eax
	js	L97
L89:
	.loc 1 231 0
	mov	eax, DWORD PTR [esp+44]
	xor	eax, DWORD PTR ___stack_chk_guard
	jne	L95
	add	esp, 56
LCFI67:
	.cfi_remember_state
	.cfi_def_cfa_offset 8
	pop	ebx
LCFI68:
	.cfi_restore 3
	.cfi_def_cfa_offset 4
	ret
	.p2align 2,,3
L97:
LCFI69:
	.cfi_restore_state
	.loc 1 229 0
	mov	eax, DWORD PTR [esp+44]
	xor	eax, DWORD PTR ___stack_chk_guard
	jne	L95
	mov	DWORD PTR [esp+68], OFFSET FLAT:LC8
	mov	DWORD PTR [esp+64], OFFSET FLAT:LC9
	.loc 1 231 0
	add	esp, 56
LCFI70:
	.cfi_remember_state
	.cfi_def_cfa_offset 8
	pop	ebx
LCFI71:
	.cfi_restore 3
	.cfi_def_cfa_offset 4
	.loc 1 229 0
	jmp	_purple_debug_error
LVL84:
	.p2align 2,,3
L96:
LCFI72:
	.cfi_restore_state
	.loc 1 225 0
	mov	DWORD PTR [esp+16], 0
	mov	DWORD PTR [esp+12], ecx
	mov	DWORD PTR [esp+8], edx
	mov	DWORD PTR [esp+4], ebx
	mov	DWORD PTR [esp], OFFSET FLAT:_bonjour_parser_libxml
	call	_xmlCreatePushParserCtxt
LVL85:
	mov	DWORD PTR [ebx+36], eax
	.loc 1 226 0
	mov	DWORD PTR [esp+12], 0
	mov	DWORD PTR [esp+8], 0
	mov	DWORD PTR [esp+4], OFFSET FLAT:LC7
	mov	DWORD PTR [esp], eax
	call	_xmlParseChunk
LVL86:
	jmp	L89
L95:
	.loc 1 231 0
	call	___stack_chk_fail
LVL87:
	.cfi_endproc
LFE99:
	.data
	.align 32
_bonjour_parser_libxml:
	.long	0
	.long	0
	.long	0
	.long	0
	.long	0
	.long	0
	.long	0
	.long	0
	.long	0
	.long	0
	.long	0
	.long	0
	.long	0
	.long	0
	.long	0
	.long	0
	.long	0
	.long	_bonjour_parser_element_text_libxml
	.long	0
	.long	0
	.long	0
	.long	0
	.long	0
	.long	0
	.long	0
	.long	0
	.long	0
	.long	-554844497
	.long	0
	.long	_bonjour_parser_element_start_libxml
	.long	_bonjour_parser_element_end_libxml
	.long	_bonjour_parser_structured_error_handler
	.section .rdata,"dr"
	.align 32
___PRETTY_FUNCTION__.47637:
	.ascii "bonjour_parser_element_start_libxml\0"
	.text
Letext0:
	.file 2 "c:/workspace/pidgin-devel/win32-dev/mingw-4.7.2/bin/../lib/gcc/mingw32/4.7.2/../../../../include/stdio.h"
	.file 3 "c:/workspace/pidgin-devel/win32-dev/mingw-4.7.2/bin/../lib/gcc/mingw32/4.7.2/include/stddef.h"
	.file 4 "c:/workspace/pidgin-devel/win32-dev/mingw-4.7.2/bin/../lib/gcc/mingw32/4.7.2/../../../../include/sys/types.h"
	.file 5 "c:/workspace/pidgin-devel/win32-dev/mingw-4.7.2/bin/../lib/gcc/mingw32/4.7.2/../../../../include/time.h"
	.file 6 "../../../../win32-dev/gtk_2_0-2.14/lib/glib-2.0/include/glibconfig.h"
	.file 7 "../../../../win32-dev/gtk_2_0-2.14/include/glib-2.0/glib/gtypes.h"
	.file 8 "../../../../win32-dev/gtk_2_0-2.14/include/glib-2.0/glib/glist.h"
	.file 9 "../../../../win32-dev/gtk_2_0-2.14/include/glib-2.0/glib/ghash.h"
	.file 10 "../../../../win32-dev/gtk_2_0-2.14/include/glib-2.0/glib/gslist.h"
	.file 11 "../../../libpurple/account.h"
	.file 12 "../../../libpurple/connection.h"
	.file 13 "../../../libpurple/plugin.h"
	.file 14 "../../../libpurple/pluginpref.h"
	.file 15 "../../../libpurple/status.h"
	.file 16 "../../../libpurple/blist.h"
	.file 17 "../../../libpurple/buddyicon.h"
	.file 18 "../../../libpurple/conversation.h"
	.file 19 "../../../libpurple/log.h"
	.file 20 "../../../libpurple/media/enum-types.h"
	.file 21 "../../../libpurple/media/../xmlnode.h"
	.file 22 "../../../libpurple/proxy.h"
	.file 23 "../../../libpurple/privacy.h"
	.file 24 "../../../../win32-dev/libxml2-2.9.0/include/libxml2/libxml/xmlstring.h"
	.file 25 "../../../../win32-dev/libxml2-2.9.0/include/libxml2/libxml/tree.h"
	.file 26 "../../../../win32-dev/libxml2-2.9.0/include/libxml2/libxml/xmlIO.h"
	.file 27 "../../../../win32-dev/libxml2-2.9.0/include/libxml2/libxml/parser.h"
	.file 28 "../../../../win32-dev/libxml2-2.9.0/include/libxml2/libxml/entities.h"
	.file 29 "../../../../win32-dev/libxml2-2.9.0/include/libxml2/libxml/dict.h"
	.file 30 "../../../../win32-dev/libxml2-2.9.0/include/libxml2/libxml/hash.h"
	.file 31 "../../../../win32-dev/libxml2-2.9.0/include/libxml2/libxml/xmlerror.h"
	.file 32 "../../../../win32-dev/libxml2-2.9.0/include/libxml2/libxml/xmlautomata.h"
	.file 33 "../../../../win32-dev/libxml2-2.9.0/include/libxml2/libxml/valid.h"
	.file 34 "../../../../win32-dev/libxml2-2.9.0/include/libxml2/libxml/encoding.h"
	.file 35 "../../../libpurple/circbuffer.h"
	.file 36 "jabber.h"
	.file 37 "buddy.h"
	.file 38 "c:/workspace/pidgin-devel/win32-dev/mingw-4.7.2/bin/../lib/gcc/mingw32/4.7.2/../../../../include/ctype.h"
	.file 39 "../../../libpurple/debug.h"
	.file 40 "../../../../win32-dev/gtk_2_0-2.14/include/glib-2.0/glib/gstrfuncs.h"
	.file 41 "../../../../win32-dev/gtk_2_0-2.14/include/glib-2.0/glib/gmem.h"
	.file 42 "../../../libpurple/media/../util.h"
	.file 43 "../../../../win32-dev/gtk_2_0-2.14/include/glib-2.0/glib/gmessages.h"