	.file	"servconn.c"
	.intel_syntax noprefix
	.text
Ltext0:
	.p2align 2,,3
	.def	_servconn_timeout_renew;	.scl	3;	.type	32;	.endef
_servconn_timeout_renew:
LFB103:
	.file 1 "servconn.c"
	.loc 1 311 0
	.cfi_startproc
LVL0:
	push	ebx
LCFI0:
	.cfi_def_cfa_offset 8
	.cfi_offset 3, -8
	sub	esp, 40
LCFI1:
	.cfi_def_cfa_offset 48
	mov	ebx, eax
	.loc 1 311 0
	mov	eax, DWORD PTR ___stack_chk_guard
	mov	DWORD PTR [esp+28], eax
	xor	eax, eax
LVL1:
	.loc 1 312 0
	mov	eax, DWORD PTR [ebx+72]
	test	eax, eax
	jne	L13
L2:
	.loc 1 317 0
	mov	eax, DWORD PTR [ebx+16]
	test	eax, eax
	je	L1
LVL2:
LBB5:
LBB6:
	mov	eax, DWORD PTR [ebx+68]
	test	eax, eax
	jne	L14
LVL3:
L1:
LBE6:
LBE5:
	.loc 1 321 0
	mov	eax, DWORD PTR [esp+28]
	xor	eax, DWORD PTR ___stack_chk_guard
	jne	L15
	add	esp, 40
LCFI2:
	.cfi_remember_state
	.cfi_def_cfa_offset 8
	pop	ebx
LCFI3:
	.cfi_restore 3
	.cfi_def_cfa_offset 4
LVL4:
	ret
LVL5:
	.p2align 2,,3
L14:
LCFI4:
	.cfi_restore_state
LBB8:
LBB7:
	.loc 1 318 0
	mov	DWORD PTR [esp+8], ebx
	mov	DWORD PTR [esp+4], OFFSET FLAT:_servconn_idle_timeout_cb
	mov	DWORD PTR [esp], eax
	call	_purple_timeout_add_seconds
LVL6:
	mov	DWORD PTR [ebx+72], eax
	jmp	L1
LVL7:
	.p2align 2,,3
L13:
LBE7:
LBE8:
	.loc 1 313 0
	mov	DWORD PTR [esp], eax
	call	_purple_timeout_remove
LVL8:
	.loc 1 314 0
	mov	DWORD PTR [ebx+72], 0
	jmp	L2
L15:
	.loc 1 321 0
	call	___stack_chk_fail
LVL9:
	.cfi_endproc
LFE103:
	.section .rdata,"dr"
LC0:
	.ascii "session != NULL\0"
	.text
	.p2align 2,,3
	.globl	_msn_servconn_new
	.def	_msn_servconn_new;	.scl	2;	.type	32;	.endef
_msn_servconn_new:
LFB93:
	.loc 1 39 0
	.cfi_startproc
LVL10:
	push	edi
LCFI5:
	.cfi_def_cfa_offset 8
	.cfi_offset 7, -8
	push	esi
LCFI6:
	.cfi_def_cfa_offset 12
	.cfi_offset 6, -12
	push	ebx
LCFI7:
	.cfi_def_cfa_offset 16
	.cfi_offset 3, -16
	sub	esp, 32
LCFI8:
	.cfi_def_cfa_offset 48
	mov	esi, DWORD PTR [esp+48]
	mov	edi, DWORD PTR [esp+52]
	.loc 1 39 0
	mov	eax, DWORD PTR ___stack_chk_guard
	mov	DWORD PTR [esp+28], eax
	xor	eax, eax
LBB9:
	.loc 1 42 0
	test	esi, esi
	je	L24
LVL11:
LBE9:
	.loc 1 44 0
	mov	DWORD PTR [esp], 88
	call	_g_malloc0
LVL12:
	mov	ebx, eax
LVL13:
	.loc 1 46 0
	mov	DWORD PTR [eax], edi
	.loc 1 48 0
	mov	DWORD PTR [eax+4], esi
	.loc 1 49 0
	mov	DWORD PTR [esp], esi
	call	_msn_cmdproc_new
LVL14:
	mov	DWORD PTR [ebx+8], eax
	.loc 1 50 0
	mov	DWORD PTR [eax+4], ebx
	.loc 1 52 0
	mov	DWORD PTR [esp], ebx
	call	_msn_httpconn_new
LVL15:
	mov	DWORD PTR [ebx+36], eax
	.loc 1 54 0
	mov	eax, DWORD PTR [esi+48]
	mov	DWORD PTR [ebx+32], eax
	inc	eax
	mov	DWORD PTR [esi+48], eax
	.loc 1 56 0
	mov	DWORD PTR [esp], 8192
	call	_purple_circ_buffer_new
LVL16:
	mov	DWORD PTR [ebx+60], eax
	.loc 1 57 0
	mov	DWORD PTR [ebx+64], 0
	.loc 1 58 0
	mov	DWORD PTR [ebx+68], 0
	.loc 1 59 0
	mov	DWORD PTR [ebx+72], 0
	.loc 1 61 0
	mov	DWORD PTR [ebx+40], -1
LVL17:
L19:
	.loc 1 64 0
	mov	eax, ebx
	mov	edx, DWORD PTR [esp+28]
	xor	edx, DWORD PTR ___stack_chk_guard
	jne	L25
	add	esp, 32
LCFI9:
	.cfi_remember_state
	.cfi_def_cfa_offset 16
	pop	ebx
LCFI10:
	.cfi_restore 3
	.cfi_def_cfa_offset 12
	pop	esi
LCFI11:
	.cfi_restore 6
	.cfi_def_cfa_offset 8
	pop	edi
LCFI12:
	.cfi_restore 7
	.cfi_def_cfa_offset 4
	ret
	.p2align 2,,3
L24:
LCFI13:
	.cfi_restore_state
LVL18:
	.loc 1 42 0
	mov	DWORD PTR [esp+8], OFFSET FLAT:LC0
	mov	DWORD PTR [esp+4], OFFSET FLAT:___PRETTY_FUNCTION__.45152
	mov	DWORD PTR [esp], 0
	call	_g_return_if_fail_warning
LVL19:
	xor	ebx, ebx
	jmp	L19
LVL20:
L25:
	.loc 1 64 0
	call	___stack_chk_fail
LVL21:
	.cfi_endproc
LFE93:
	.section .rdata,"dr"
LC1:
	.ascii "servconn != NULL\0"
	.text
	.p2align 2,,3
	.globl	_msn_servconn_set_connect_cb
	.def	_msn_servconn_set_connect_cb;	.scl	2;	.type	32;	.endef
_msn_servconn_set_connect_cb:
LFB95:
	.loc 1 100 0
	.cfi_startproc
LVL22:
	sub	esp, 44
LCFI14:
	.cfi_def_cfa_offset 48
	mov	eax, DWORD PTR [esp+48]
	mov	edx, DWORD PTR [esp+52]
	.loc 1 100 0
	mov	ecx, DWORD PTR ___stack_chk_guard
	mov	DWORD PTR [esp+28], ecx
	xor	ecx, ecx
LBB10:
	.loc 1 101 0
	test	eax, eax
	je	L34
LVL23:
LBE10:
	.loc 1 102 0
	mov	DWORD PTR [eax+76], edx
LVL24:
L29:
	.loc 1 103 0 discriminator 1
	mov	eax, DWORD PTR [esp+28]
	xor	eax, DWORD PTR ___stack_chk_guard
	jne	L35
	.loc 1 103 0 is_stmt 0
	add	esp, 44
LCFI15:
	.cfi_remember_state
	.cfi_def_cfa_offset 4
	ret
	.p2align 2,,3
L34:
LCFI16:
	.cfi_restore_state
LVL25:
	.loc 1 101 0 is_stmt 1
	mov	DWORD PTR [esp+8], OFFSET FLAT:LC1
	mov	DWORD PTR [esp+4], OFFSET FLAT:___PRETTY_FUNCTION__.45166
	mov	DWORD PTR [esp], 0
	call	_g_return_if_fail_warning
LVL26:
	jmp	L29
LVL27:
L35:
	.loc 1 103 0
	call	___stack_chk_fail
LVL28:
	.cfi_endproc
LFE95:
	.p2align 2,,3
	.globl	_msn_servconn_set_disconnect_cb
	.def	_msn_servconn_set_disconnect_cb;	.scl	2;	.type	32;	.endef
_msn_servconn_set_disconnect_cb:
LFB96:
	.loc 1 108 0
	.cfi_startproc
LVL29:
	sub	esp, 44
LCFI17:
	.cfi_def_cfa_offset 48
	mov	eax, DWORD PTR [esp+48]
	mov	edx, DWORD PTR [esp+52]
	.loc 1 108 0
	mov	ecx, DWORD PTR ___stack_chk_guard
	mov	DWORD PTR [esp+28], ecx
	xor	ecx, ecx
LBB11:
	.loc 1 109 0
	test	eax, eax
	je	L44
LVL30:
LBE11:
	.loc 1 111 0
	mov	DWORD PTR [eax+80], edx
LVL31:
L39:
	.loc 1 112 0 discriminator 1
	mov	eax, DWORD PTR [esp+28]
	xor	eax, DWORD PTR ___stack_chk_guard
	jne	L45
	.loc 1 112 0 is_stmt 0
	add	esp, 44
LCFI18:
	.cfi_remember_state
	.cfi_def_cfa_offset 4
	ret
	.p2align 2,,3
L44:
LCFI19:
	.cfi_restore_state
LVL32:
	.loc 1 109 0 is_stmt 1
	mov	DWORD PTR [esp+8], OFFSET FLAT:LC1
	mov	DWORD PTR [esp+4], OFFSET FLAT:___PRETTY_FUNCTION__.45174
	mov	DWORD PTR [esp], 0
	call	_g_return_if_fail_warning
LVL33:
	jmp	L39
LVL34:
L45:
	.loc 1 112 0
	call	___stack_chk_fail
LVL35:
	.cfi_endproc
LFE96:
	.p2align 2,,3
	.globl	_msn_servconn_set_destroy_cb
	.def	_msn_servconn_set_destroy_cb;	.scl	2;	.type	32;	.endef
_msn_servconn_set_destroy_cb:
LFB97:
	.loc 1 117 0
	.cfi_startproc
LVL36:
	sub	esp, 44
LCFI20:
	.cfi_def_cfa_offset 48
	mov	eax, DWORD PTR [esp+48]
	mov	edx, DWORD PTR [esp+52]
	.loc 1 117 0
	mov	ecx, DWORD PTR ___stack_chk_guard
	mov	DWORD PTR [esp+28], ecx
	xor	ecx, ecx
LBB12:
	.loc 1 118 0
	test	eax, eax
	je	L54
LVL37:
LBE12:
	.loc 1 120 0
	mov	DWORD PTR [eax+84], edx
LVL38:
L49:
	.loc 1 121 0 discriminator 1
	mov	eax, DWORD PTR [esp+28]
	xor	eax, DWORD PTR ___stack_chk_guard
	jne	L55
	.loc 1 121 0 is_stmt 0
	add	esp, 44
LCFI21:
	.cfi_remember_state
	.cfi_def_cfa_offset 4
	ret
	.p2align 2,,3
L54:
LCFI22:
	.cfi_restore_state
LVL39:
	.loc 1 118 0 is_stmt 1
	mov	DWORD PTR [esp+8], OFFSET FLAT:LC1
	mov	DWORD PTR [esp+4], OFFSET FLAT:___PRETTY_FUNCTION__.45182
	mov	DWORD PTR [esp], 0
	call	_g_return_if_fail_warning
LVL40:
	jmp	L49
LVL41:
L55:
	.loc 1 121 0
	call	___stack_chk_fail
LVL42:
	.cfi_endproc
LFE97:
	.p2align 2,,3
	.globl	_msn_servconn_disconnect
	.def	_msn_servconn_disconnect;	.scl	2;	.type	32;	.endef
_msn_servconn_disconnect:
LFB101:
	.loc 1 250 0
	.cfi_startproc
LVL43:
	push	ebx
LCFI23:
	.cfi_def_cfa_offset 8
	.cfi_offset 3, -8
	sub	esp, 40
LCFI24:
	.cfi_def_cfa_offset 48
	mov	ebx, DWORD PTR [esp+48]
	.loc 1 250 0
	mov	eax, DWORD PTR ___stack_chk_guard
	mov	DWORD PTR [esp+28], eax
	xor	eax, eax
LBB17:
	.loc 1 251 0
	test	ebx, ebx
	je	L88
LVL44:
LBE17:
	.loc 1 253 0
	mov	eax, DWORD PTR [ebx+12]
	test	eax, eax
	je	L70
	.loc 1 255 0
	mov	DWORD PTR [esp], eax
	call	_purple_proxy_connect_cancel
LVL45:
	.loc 1 256 0
	mov	DWORD PTR [ebx+12], 0
L70:
	.loc 1 259 0
	mov	edx, DWORD PTR [ebx+16]
	test	edx, edx
	jne	L59
L86:
LBB18:
LBB19:
	.loc 1 297 0
	mov	eax, DWORD PTR [ebx+80]
	test	eax, eax
	je	L56
L90:
	.loc 1 298 0
	mov	edx, DWORD PTR [esp+28]
	xor	edx, DWORD PTR ___stack_chk_guard
	jne	L83
	mov	DWORD PTR [esp+48], ebx
LBE19:
LBE18:
	.loc 1 299 0
	add	esp, 40
LCFI25:
	.cfi_remember_state
	.cfi_def_cfa_offset 8
	pop	ebx
LCFI26:
	.cfi_restore 3
	.cfi_def_cfa_offset 4
LBB22:
LBB20:
	.loc 1 298 0
	jmp	eax
LVL46:
	.p2align 2,,3
L59:
LCFI27:
	.cfi_restore_state
	.loc 1 268 0
	mov	eax, DWORD PTR [ebx+4]
	test	BYTE PTR [eax+16], 8
	jne	L86
	.loc 1 277 0
	mov	eax, DWORD PTR [ebx+44]
	test	eax, eax
	jle	L66
	.loc 1 279 0
	mov	DWORD PTR [esp], eax
	call	_purple_input_remove
LVL47:
	.loc 1 280 0
	mov	DWORD PTR [ebx+44], 0
L66:
	.loc 1 283 0
	mov	eax, DWORD PTR [ebx+72]
	test	eax, eax
	jne	L89
L67:
	.loc 1 289 0
	mov	eax, DWORD PTR [ebx+40]
	mov	DWORD PTR [esp], eax
	call	_wpurple_close
LVL48:
	.loc 1 291 0
	mov	DWORD PTR [ebx+48], 0
	.loc 1 292 0
	mov	DWORD PTR [ebx+52], 0
	.loc 1 293 0
	mov	DWORD PTR [ebx+56], 0
	.loc 1 295 0
	mov	DWORD PTR [ebx+16], 0
	.loc 1 297 0
	mov	eax, DWORD PTR [ebx+80]
	test	eax, eax
	jne	L90
LVL49:
	.p2align 2,,3
L56:
LBE20:
LBE22:
	.loc 1 299 0
	mov	eax, DWORD PTR [esp+28]
	xor	eax, DWORD PTR ___stack_chk_guard
	jne	L83
	add	esp, 40
LCFI28:
	.cfi_remember_state
	.cfi_def_cfa_offset 8
	pop	ebx
LCFI29:
	.cfi_restore 3
	.cfi_def_cfa_offset 4
	ret
LVL50:
	.p2align 2,,3
L89:
LCFI30:
	.cfi_restore_state
LBB23:
LBB21:
	.loc 1 285 0
	mov	DWORD PTR [esp], eax
	call	_purple_timeout_remove
LVL51:
	.loc 1 286 0
	mov	DWORD PTR [ebx+72], 0
	jmp	L67
LVL52:
	.p2align 2,,3
L88:
LBE21:
LBE23:
	.loc 1 251 0
	mov	DWORD PTR [esp+8], OFFSET FLAT:LC1
	mov	DWORD PTR [esp+4], OFFSET FLAT:___PRETTY_FUNCTION__.45224
	mov	DWORD PTR [esp], 0
	call	_g_return_if_fail_warning
LVL53:
	jmp	L56
LVL54:
L83:
	.loc 1 299 0
	call	___stack_chk_fail
LVL55:
	.cfi_endproc
LFE101:
	.p2align 2,,3
	.def	_servconn_idle_timeout_cb;	.scl	3;	.type	32;	.endef
_servconn_idle_timeout_cb:
LFB102:
	.loc 1 303 0
	.cfi_startproc
LVL56:
	sub	esp, 44
LCFI31:
	.cfi_def_cfa_offset 48
	mov	eax, DWORD PTR [esp+48]
	.loc 1 303 0
	mov	edx, DWORD PTR ___stack_chk_guard
	mov	DWORD PTR [esp+28], edx
	xor	edx, edx
	.loc 1 304 0
	mov	DWORD PTR [eax+72], 0
	.loc 1 305 0
	mov	DWORD PTR [esp], eax
	call	_msn_servconn_disconnect
LVL57:
	.loc 1 307 0
	xor	eax, eax
	mov	edx, DWORD PTR [esp+28]
	xor	edx, DWORD PTR ___stack_chk_guard
	jne	L94
	add	esp, 44
LCFI32:
	.cfi_remember_state
	.cfi_def_cfa_offset 4
	ret
L94:
LCFI33:
	.cfi_restore_state
	call	___stack_chk_fail
LVL58:
	.cfi_endproc
LFE102:
	.section .rdata,"dr"
LC2:
	.ascii "host != NULL\0"
LC3:
	.ascii "port > 0\0"
	.text
	.p2align 2,,3
	.globl	_msn_servconn_connect
	.def	_msn_servconn_connect;	.scl	2;	.type	32;	.endef
_msn_servconn_connect:
LFB100:
	.loc 1 209 0
	.cfi_startproc
LVL59:
	push	ebp
LCFI34:
	.cfi_def_cfa_offset 8
	.cfi_offset 5, -8
	push	edi
LCFI35:
	.cfi_def_cfa_offset 12
	.cfi_offset 7, -12
	push	esi
LCFI36:
	.cfi_def_cfa_offset 16
	.cfi_offset 6, -16
	push	ebx
LCFI37:
	.cfi_def_cfa_offset 20
	.cfi_offset 3, -20
	sub	esp, 76
LCFI38:
	.cfi_def_cfa_offset 96
	mov	ebx, DWORD PTR [esp+96]
	mov	esi, DWORD PTR [esp+100]
	mov	ebp, DWORD PTR [esp+104]
	mov	edx, DWORD PTR [esp+108]
	mov	DWORD PTR [esp+44], edx
	.loc 1 209 0
	mov	eax, DWORD PTR ___stack_chk_guard
	mov	DWORD PTR [esp+60], eax
	xor	eax, eax
LBB24:
	.loc 1 212 0
	test	ebx, ebx
	je	L111
LVL60:
LBE24:
LBB25:
	.loc 1 213 0
	test	esi, esi
	je	L112
LVL61:
LBE25:
LBB26:
	.loc 1 214 0
	test	ebp, ebp
	jle	L103
LVL62:
LBE26:
	.loc 1 216 0
	mov	edi, DWORD PTR [ebx+4]
LVL63:
	.loc 1 218 0
	mov	ecx, DWORD PTR [ebx+16]
	test	ecx, ecx
	je	L105
	.loc 1 219 0
	mov	DWORD PTR [esp], ebx
	call	_msn_servconn_disconnect
LVL64:
L105:
	.loc 1 221 0
	mov	eax, DWORD PTR [ebx+28]
	mov	DWORD PTR [esp], eax
	call	_g_free
LVL65:
	.loc 1 222 0
	mov	DWORD PTR [esp], esi
	call	_g_strdup
LVL66:
	mov	DWORD PTR [ebx+28], eax
	.loc 1 224 0
	test	BYTE PTR [edi+16], 8
	je	L98
	.loc 1 228 0
	mov	eax, DWORD PTR [ebx+36]
	mov	edx, DWORD PTR [eax+28]
	test	edx, edx
	je	L99
	.loc 1 228 0 is_stmt 0 discriminator 1
	mov	edi, DWORD PTR [esp+44]
LVL67:
	test	edi, edi
	je	L101
L99:
	.loc 1 229 0 is_stmt 1
	mov	DWORD PTR [esp+8], ebp
	mov	DWORD PTR [esp+4], esi
	mov	DWORD PTR [esp], eax
	call	_msn_httpconn_connect
LVL68:
	test	eax, eax
	je	L107
	mov	eax, DWORD PTR [ebx+36]
L101:
	.loc 1 232 0
	mov	DWORD PTR [ebx+16], 1
	.loc 1 233 0
	mov	DWORD PTR [eax+32], 1
	.loc 1 234 0
	mov	eax, ebx
	call	_servconn_timeout_renew
LVL69:
	.loc 1 237 0
	mov	DWORD PTR [esp], ebx
	call	[DWORD PTR [ebx+76]]
LVL70:
	.loc 1 239 0
	mov	eax, 1
LVL71:
L100:
	.loc 1 246 0
	mov	edx, DWORD PTR [esp+60]
	xor	edx, DWORD PTR ___stack_chk_guard
	jne	L113
	add	esp, 76
LCFI39:
	.cfi_remember_state
	.cfi_def_cfa_offset 20
	pop	ebx
LCFI40:
	.cfi_restore 3
	.cfi_def_cfa_offset 16
	pop	esi
LCFI41:
	.cfi_restore 6
	.cfi_def_cfa_offset 12
	pop	edi
LCFI42:
	.cfi_restore 7
	.cfi_def_cfa_offset 8
	pop	ebp
LCFI43:
	.cfi_restore 5
	.cfi_def_cfa_offset 4
	ret
LVL72:
	.p2align 2,,3
L107:
LCFI44:
	.cfi_restore_state
	.loc 1 230 0
	xor	eax, eax
	jmp	L100
LVL73:
	.p2align 2,,3
L98:
	.loc 1 242 0
	mov	DWORD PTR [esp+20], ebx
	mov	DWORD PTR [esp+16], OFFSET FLAT:_connect_cb
	mov	DWORD PTR [esp+12], ebp
	mov	DWORD PTR [esp+8], esi
	mov	eax, DWORD PTR [edi]
	mov	DWORD PTR [esp+4], eax
	mov	DWORD PTR [esp], 0
	call	_purple_proxy_connect
LVL74:
	mov	DWORD PTR [ebx+12], eax
	.loc 1 245 0
	test	eax, eax
	setne	al
	movzx	eax, al
	jmp	L100
LVL75:
	.p2align 2,,3
L103:
	.loc 1 214 0
	mov	DWORD PTR [esp+8], OFFSET FLAT:LC3
	mov	DWORD PTR [esp+4], OFFSET FLAT:___PRETTY_FUNCTION__.45214
	mov	DWORD PTR [esp], 0
	call	_g_return_if_fail_warning
LVL76:
	xor	eax, eax
	jmp	L100
LVL77:
	.p2align 2,,3
L111:
	.loc 1 212 0
	mov	DWORD PTR [esp+8], OFFSET FLAT:LC1
	mov	DWORD PTR [esp+4], OFFSET FLAT:___PRETTY_FUNCTION__.45214
	mov	DWORD PTR [esp], 0
	call	_g_return_if_fail_warning
LVL78:
	xor	eax, eax
	jmp	L100
LVL79:
	.p2align 2,,3
L112:
	.loc 1 213 0
	mov	DWORD PTR [esp+8], OFFSET FLAT:LC2
	mov	DWORD PTR [esp+4], OFFSET FLAT:___PRETTY_FUNCTION__.45214
	mov	DWORD PTR [esp], 0
	call	_g_return_if_fail_warning
LVL80:
	xor	eax, eax
	jmp	L100
LVL81:
L113:
	.loc 1 246 0
	call	___stack_chk_fail
LVL82:
	.cfi_endproc
LFE100:
	.section .rdata,"dr"
LC4:
	.ascii "Notification\0"
LC5:
	.ascii "Switchboard\0"
LC6:
	.ascii "Unable to connect\0"
LC7:
	.ascii "pidgin\0"
LC8:
	.ascii "Writing error\0"
LC9:
	.ascii "Reading error\0"
LC10:
	.ascii "Unknown error\0"
	.align 4
LC11:
	.ascii "Connection error from %s server (%s): %s\12\0"
LC12:
	.ascii "msn\0"
	.align 4
LC13:
	.ascii "Connection error from %s server:\12%s\0"
	.text
	.p2align 2,,3
	.globl	_msn_servconn_got_error
	.def	_msn_servconn_got_error;	.scl	2;	.type	32;	.endef
_msn_servconn_got_error:
LFB98:
	.loc 1 130 0
	.cfi_startproc
LVL83:
	push	ebp
LCFI45:
	.cfi_def_cfa_offset 8
	.cfi_offset 5, -8
	push	edi
LCFI46:
	.cfi_def_cfa_offset 12
	.cfi_offset 7, -12
	push	esi
LCFI47:
	.cfi_def_cfa_offset 16
	.cfi_offset 6, -16
	push	ebx
LCFI48:
	.cfi_def_cfa_offset 20
	.cfi_offset 3, -20
	sub	esp, 76
LCFI49:
	.cfi_def_cfa_offset 96
	mov	ebp, DWORD PTR [esp+96]
	mov	eax, DWORD PTR [esp+100]
	mov	esi, DWORD PTR [esp+104]
	.loc 1 130 0
	mov	edx, DWORD PTR ___stack_chk_guard
	mov	DWORD PTR [esp+60], edx
	xor	edx, edx
	.loc 1 131 0
	mov	edx, DWORD PTR [ebp+4]
	mov	DWORD PTR [esp+44], edx
LVL84:
	.loc 1 132 0
	mov	ebx, DWORD PTR [ebp+0]
LVL85:
	.loc 1 134 0
	mov	DWORD PTR [esp+52], OFFSET FLAT:LC4
	mov	DWORD PTR [esp+56], OFFSET FLAT:LC5
	.loc 1 137 0
	mov	edi, DWORD PTR [esp+52+ebx*4]
LVL86:
	.loc 1 139 0
	test	esi, esi
	je	L133
LVL87:
L115:
	.loc 1 153 0
	mov	DWORD PTR [esp+16], esi
	mov	eax, DWORD PTR [ebp+28]
	mov	DWORD PTR [esp+12], eax
	mov	DWORD PTR [esp+8], edi
	mov	DWORD PTR [esp+4], OFFSET FLAT:LC11
	mov	DWORD PTR [esp], OFFSET FLAT:LC12
	call	_purple_debug_error
LVL88:
	.loc 1 156 0
	cmp	ebx, 1
	je	L134
	.loc 1 165 0
	mov	DWORD PTR [esp], ebp
	call	_msn_servconn_disconnect
LVL89:
	.loc 1 167 0
	test	ebx, ebx
	jne	L114
LBB27:
	.loc 1 169 0
	mov	DWORD PTR [esp+4], OFFSET FLAT:LC13
	mov	DWORD PTR [esp], OFFSET FLAT:LC7
	call	_libintl_dgettext
LVL90:
	mov	DWORD PTR [esp+8], esi
	mov	DWORD PTR [esp+4], edi
	mov	DWORD PTR [esp], eax
	call	_g_strdup_printf
LVL91:
	mov	ebx, eax
LVL92:
	.loc 1 171 0
	mov	DWORD PTR [esp+8], eax
	mov	DWORD PTR [esp+4], 0
	mov	edx, DWORD PTR [esp+44]
	mov	DWORD PTR [esp], edx
	call	_msn_session_set_error
LVL93:
	.loc 1 172 0
	mov	eax, DWORD PTR [esp+60]
	xor	eax, DWORD PTR ___stack_chk_guard
	jne	L132
	mov	DWORD PTR [esp+96], ebx
LBE27:
	.loc 1 174 0
	add	esp, 76
LCFI50:
	.cfi_remember_state
	.cfi_def_cfa_offset 20
	pop	ebx
LCFI51:
	.cfi_restore 3
	.cfi_def_cfa_offset 16
LVL94:
	pop	esi
LCFI52:
	.cfi_restore 6
	.cfi_def_cfa_offset 12
LVL95:
	pop	edi
LCFI53:
	.cfi_restore 7
	.cfi_def_cfa_offset 8
LVL96:
	pop	ebp
LCFI54:
	.cfi_restore 5
	.cfi_def_cfa_offset 4
LBB28:
	.loc 1 172 0
	jmp	_g_free
LVL97:
	.p2align 2,,3
L114:
LCFI55:
	.cfi_restore_state
LBE28:
	.loc 1 174 0
	mov	eax, DWORD PTR [esp+60]
	xor	eax, DWORD PTR ___stack_chk_guard
	jne	L132
	add	esp, 76
LCFI56:
	.cfi_remember_state
	.cfi_def_cfa_offset 20
	pop	ebx
LCFI57:
	.cfi_restore 3
	.cfi_def_cfa_offset 16
LVL98:
	pop	esi
LCFI58:
	.cfi_restore 6
	.cfi_def_cfa_offset 12
LVL99:
	pop	edi
LCFI59:
	.cfi_restore 7
	.cfi_def_cfa_offset 8
LVL100:
	pop	ebp
LCFI60:
	.cfi_restore 5
	.cfi_def_cfa_offset 4
	ret
LVL101:
	.p2align 2,,3
L134:
LCFI61:
	.cfi_restore_state
LBB29:
	.loc 1 159 0
	mov	eax, DWORD PTR [ebp+8]
	mov	eax, DWORD PTR [eax+28]
LVL102:
	.loc 1 160 0
	test	eax, eax
	je	L121
	.loc 1 161 0
	mov	DWORD PTR [eax+76], 4
L121:
LBE29:
	.loc 1 165 0
	mov	edx, DWORD PTR [esp+60]
	xor	edx, DWORD PTR ___stack_chk_guard
	jne	L132
	mov	DWORD PTR [esp+96], ebp
	.loc 1 174 0
	add	esp, 76
LCFI62:
	.cfi_remember_state
	.cfi_def_cfa_offset 20
	pop	ebx
LCFI63:
	.cfi_restore 3
	.cfi_def_cfa_offset 16
LVL103:
	pop	esi
LCFI64:
	.cfi_restore 6
	.cfi_def_cfa_offset 12
LVL104:
	pop	edi
LCFI65:
	.cfi_restore 7
	.cfi_def_cfa_offset 8
LVL105:
	pop	ebp
LCFI66:
	.cfi_restore 5
	.cfi_def_cfa_offset 4
	.loc 1 165 0
	jmp	_msn_servconn_disconnect
LVL106:
	.p2align 2,,3
L133:
LCFI67:
	.cfi_restore_state
	.loc 1 140 0
	cmp	eax, 2
	je	L118
	cmp	eax, 3
	je	L119
	dec	eax
LVL107:
	je	L135
	.loc 1 149 0
	mov	DWORD PTR [esp+4], OFFSET FLAT:LC10
	mov	DWORD PTR [esp], OFFSET FLAT:LC7
	call	_libintl_dgettext
LVL108:
	mov	esi, eax
LVL109:
	jmp	L115
LVL110:
	.p2align 2,,3
L118:
	.loc 1 145 0
	mov	DWORD PTR [esp+4], OFFSET FLAT:LC8
	mov	DWORD PTR [esp], OFFSET FLAT:LC7
	call	_libintl_dgettext
LVL111:
	mov	esi, eax
LVL112:
	jmp	L115
LVL113:
	.p2align 2,,3
L135:
	.loc 1 143 0
	mov	DWORD PTR [esp+4], OFFSET FLAT:LC6
	mov	DWORD PTR [esp], OFFSET FLAT:LC7
	call	_libintl_dgettext
LVL114:
	mov	esi, eax
LVL115:
	jmp	L115
LVL116:
	.p2align 2,,3
L119:
	.loc 1 147 0
	mov	DWORD PTR [esp+4], OFFSET FLAT:LC9
	mov	DWORD PTR [esp], OFFSET FLAT:LC7
	call	_libintl_dgettext
LVL117:
	mov	esi, eax
LVL118:
	jmp	L115
LVL119:
L132:
	.loc 1 174 0
	call	___stack_chk_fail
LVL120:
	.cfi_endproc
LFE98:
	.p2align 2,,3
	.def	_servconn_write_cb;	.scl	3;	.type	32;	.endef
_servconn_write_cb:
LFB105:
	.loc 1 333 0
	.cfi_startproc
LVL121:
	push	ebx
LCFI68:
	.cfi_def_cfa_offset 8
	.cfi_offset 3, -8
	sub	esp, 40
LCFI69:
	.cfi_def_cfa_offset 48
	mov	ebx, DWORD PTR [esp+48]
	.loc 1 333 0
	mov	eax, DWORD PTR ___stack_chk_guard
	mov	DWORD PTR [esp+28], eax
	xor	eax, eax
LVL122:
	.loc 1 338 0
	mov	eax, DWORD PTR [ebx+60]
	mov	DWORD PTR [esp], eax
	call	_purple_circ_buffer_get_max_read
LVL123:
	.loc 1 340 0
	test	eax, eax
	je	L150
	.loc 1 346 0
	mov	DWORD PTR [esp+8], eax
	mov	eax, DWORD PTR [ebx+60]
LVL124:
	mov	eax, DWORD PTR [eax+20]
	mov	DWORD PTR [esp+4], eax
	mov	eax, DWORD PTR [ebx+40]
	mov	DWORD PTR [esp], eax
	call	_wpurple_write
LVL125:
	.loc 1 348 0
	cmp	eax, 0
	jl	L151
	.loc 1 350 0
	je	L141
	.loc 1 355 0
	mov	DWORD PTR [esp+4], eax
	mov	eax, DWORD PTR [ebx+60]
LVL126:
	mov	DWORD PTR [esp], eax
	call	_purple_circ_buffer_mark_read
LVL127:
	.loc 1 356 0
	mov	eax, DWORD PTR [esp+28]
	xor	eax, DWORD PTR ___stack_chk_guard
	jne	L149
	mov	eax, ebx
	.loc 1 357 0
	add	esp, 40
LCFI70:
	.cfi_remember_state
	.cfi_def_cfa_offset 8
	pop	ebx
LCFI71:
	.cfi_restore 3
	.cfi_def_cfa_offset 4
LVL128:
	.loc 1 356 0
	jmp	_servconn_timeout_renew
LVL129:
	.p2align 2,,3
L150:
LCFI72:
	.cfi_restore_state
	.loc 1 341 0
	mov	eax, DWORD PTR [ebx+64]
LVL130:
	mov	DWORD PTR [esp], eax
	call	_purple_input_remove
LVL131:
	.loc 1 342 0
	mov	DWORD PTR [ebx+64], 0
L136:
	.loc 1 357 0
	mov	eax, DWORD PTR [esp+28]
	xor	eax, DWORD PTR ___stack_chk_guard
	jne	L149
	add	esp, 40
LCFI73:
	.cfi_remember_state
	.cfi_def_cfa_offset 8
	pop	ebx
LCFI74:
	.cfi_restore 3
	.cfi_def_cfa_offset 4
LVL132:
	ret
LVL133:
	.p2align 2,,3
L151:
LCFI75:
	.cfi_restore_state
	.loc 1 348 0 discriminator 1
	call	__errno
LVL134:
	cmp	DWORD PTR [eax], 11
	je	L136
L141:
LVL135:
LBB32:
LBB33:
	.loc 1 351 0
	mov	eax, DWORD PTR [esp+28]
	xor	eax, DWORD PTR ___stack_chk_guard
	jne	L149
	mov	DWORD PTR [esp+56], 0
	mov	DWORD PTR [esp+52], 2
	mov	DWORD PTR [esp+48], ebx
LBE33:
LBE32:
	.loc 1 357 0
	add	esp, 40
LCFI76:
	.cfi_remember_state
	.cfi_def_cfa_offset 8
	pop	ebx
LCFI77:
	.cfi_restore 3
	.cfi_def_cfa_offset 4
LVL136:
LBB35:
LBB34:
	.loc 1 351 0
	jmp	_msn_servconn_got_error
LVL137:
L149:
LCFI78:
	.cfi_restore_state
LBE34:
LBE35:
	.loc 1 357 0
	call	___stack_chk_fail
LVL138:
	.cfi_endproc
LFE105:
	.section .rdata,"dr"
LC14:
	.ascii "Connection error: %s\12\0"
	.text
	.p2align 2,,3
	.def	_connect_cb;	.scl	3;	.type	32;	.endef
_connect_cb:
LFB99:
	.loc 1 182 0
	.cfi_startproc
LVL139:
	push	esi
LCFI79:
	.cfi_def_cfa_offset 8
	.cfi_offset 6, -8
	push	ebx
LCFI80:
	.cfi_def_cfa_offset 12
	.cfi_offset 3, -12
	sub	esp, 36
LCFI81:
	.cfi_def_cfa_offset 48
	mov	ebx, DWORD PTR [esp+48]
	mov	eax, DWORD PTR [esp+52]
	mov	esi, DWORD PTR [esp+56]
	.loc 1 182 0
	mov	edx, DWORD PTR ___stack_chk_guard
	mov	DWORD PTR [esp+28], edx
	xor	edx, edx
LVL140:
	.loc 1 186 0
	mov	DWORD PTR [ebx+12], 0
	.loc 1 188 0
	mov	DWORD PTR [ebx+40], eax
	.loc 1 190 0
	test	eax, eax
	js	L153
	.loc 1 192 0
	mov	DWORD PTR [ebx+16], 1
	.loc 1 195 0
	mov	DWORD PTR [esp], ebx
	call	[DWORD PTR [ebx+76]]
LVL141:
	.loc 1 196 0
	mov	DWORD PTR [esp+12], ebx
	mov	DWORD PTR [esp+8], OFFSET FLAT:_read_cb
	mov	DWORD PTR [esp+4], 1
	mov	eax, DWORD PTR [ebx+40]
	mov	DWORD PTR [esp], eax
	call	_purple_input_add
LVL142:
	mov	DWORD PTR [ebx+44], eax
	.loc 1 198 0
	mov	eax, DWORD PTR [esp+28]
	xor	eax, DWORD PTR ___stack_chk_guard
	jne	L158
	mov	eax, ebx
	.loc 1 205 0
	add	esp, 36
LCFI82:
	.cfi_remember_state
	.cfi_def_cfa_offset 12
	pop	ebx
LCFI83:
	.cfi_restore 3
	.cfi_def_cfa_offset 8
LVL143:
	pop	esi
LCFI84:
	.cfi_restore 6
	.cfi_def_cfa_offset 4
	.loc 1 198 0
	jmp	_servconn_timeout_renew
LVL144:
	.p2align 2,,3
L153:
LCFI85:
	.cfi_restore_state
LBB38:
LBB39:
	.loc 1 202 0
	mov	DWORD PTR [esp+8], esi
	mov	DWORD PTR [esp+4], OFFSET FLAT:LC14
	mov	DWORD PTR [esp], OFFSET FLAT:LC12
	call	_purple_debug_error
LVL145:
	.loc 1 203 0
	mov	edx, DWORD PTR [esp+28]
	xor	edx, DWORD PTR ___stack_chk_guard
	jne	L158
	mov	DWORD PTR [esp+56], esi
	mov	DWORD PTR [esp+52], 1
	mov	DWORD PTR [esp+48], ebx
LBE39:
LBE38:
	.loc 1 205 0
	add	esp, 36
LCFI86:
	.cfi_remember_state
	.cfi_def_cfa_offset 12
	pop	ebx
LCFI87:
	.cfi_restore 3
	.cfi_def_cfa_offset 8
LVL146:
	pop	esi
LCFI88:
	.cfi_restore 6
	.cfi_def_cfa_offset 4
LVL147:
LBB41:
LBB40:
	.loc 1 203 0
	jmp	_msn_servconn_got_error
LVL148:
L158:
LCFI89:
	.cfi_restore_state
	call	___stack_chk_fail
LVL149:
LBE40:
LBE41:
	.cfi_endproc
LFE99:
	.p2align 2,,3
	.globl	_msn_servconn_destroy
	.def	_msn_servconn_destroy;	.scl	2;	.type	32;	.endef
_msn_servconn_destroy:
LFB94:
	.loc 1 68 0
	.cfi_startproc
LVL150:
	push	ebx
LCFI90:
	.cfi_def_cfa_offset 8
	.cfi_offset 3, -8
	sub	esp, 40
LCFI91:
	.cfi_def_cfa_offset 48
	mov	ebx, DWORD PTR [esp+48]
	.loc 1 68 0
	mov	eax, DWORD PTR ___stack_chk_guard
	mov	DWORD PTR [esp+28], eax
	xor	eax, eax
LBB42:
	.loc 1 69 0
	test	ebx, ebx
	je	L187
LVL151:
LBE42:
	.loc 1 71 0
	mov	ecx, DWORD PTR [ebx+20]
	test	ecx, ecx
	je	L188
	.loc 1 73 0
	mov	DWORD PTR [ebx+24], 1
LVL152:
L159:
	.loc 1 95 0
	mov	eax, DWORD PTR [esp+28]
	xor	eax, DWORD PTR ___stack_chk_guard
	jne	L186
	add	esp, 40
LCFI92:
	.cfi_remember_state
	.cfi_def_cfa_offset 8
	pop	ebx
LCFI93:
	.cfi_restore 3
	.cfi_def_cfa_offset 4
	ret
LVL153:
	.p2align 2,,3
L188:
LCFI94:
	.cfi_restore_state
	.loc 1 77 0
	mov	DWORD PTR [esp], ebx
	call	_msn_servconn_disconnect
LVL154:
	.loc 1 79 0
	mov	eax, DWORD PTR [ebx+84]
	test	eax, eax
	je	L163
	.loc 1 80 0
	mov	DWORD PTR [esp], ebx
	call	eax
LVL155:
L163:
	.loc 1 82 0
	mov	eax, DWORD PTR [ebx+36]
	test	eax, eax
	je	L164
	.loc 1 83 0
	mov	DWORD PTR [esp], eax
	call	_msn_httpconn_destroy
LVL156:
L164:
	.loc 1 85 0
	mov	eax, DWORD PTR [ebx+28]
	mov	DWORD PTR [esp], eax
	call	_g_free
LVL157:
	.loc 1 87 0
	mov	eax, DWORD PTR [ebx+60]
	mov	DWORD PTR [esp], eax
	call	_purple_circ_buffer_destroy
LVL158:
	.loc 1 88 0
	mov	eax, DWORD PTR [ebx+64]
	test	eax, eax
	jne	L189
L165:
	.loc 1 90 0
	mov	eax, DWORD PTR [ebx+72]
	test	eax, eax
	jne	L190
L166:
	.loc 1 93 0
	mov	eax, DWORD PTR [ebx+8]
	mov	DWORD PTR [esp], eax
	call	_msn_cmdproc_destroy
LVL159:
	.loc 1 94 0
	mov	eax, DWORD PTR [esp+28]
	xor	eax, DWORD PTR ___stack_chk_guard
	jne	L186
	mov	DWORD PTR [esp+48], ebx
	.loc 1 95 0
	add	esp, 40
LCFI95:
	.cfi_remember_state
	.cfi_def_cfa_offset 8
	pop	ebx
LCFI96:
	.cfi_restore 3
	.cfi_def_cfa_offset 4
	.loc 1 94 0
	jmp	_g_free
LVL160:
	.p2align 2,,3
L187:
LCFI97:
	.cfi_restore_state
	.loc 1 69 0
	mov	DWORD PTR [esp+8], OFFSET FLAT:LC1
	mov	DWORD PTR [esp+4], OFFSET FLAT:___PRETTY_FUNCTION__.45158
	mov	DWORD PTR [esp], 0
	call	_g_return_if_fail_warning
LVL161:
	jmp	L159
LVL162:
	.p2align 2,,3
L190:
	.loc 1 91 0
	mov	DWORD PTR [esp], eax
	call	_purple_timeout_remove
LVL163:
	jmp	L166
	.p2align 2,,3
L189:
	.loc 1 89 0
	mov	DWORD PTR [esp], eax
	call	_purple_input_remove
LVL164:
	jmp	L165
LVL165:
L186:
	.loc 1 95 0
	call	___stack_chk_fail
LVL166:
	.cfi_endproc
LFE94:
	.p2align 2,,3
	.globl	_msn_servconn_set_idle_timeout
	.def	_msn_servconn_set_idle_timeout;	.scl	2;	.type	32;	.endef
_msn_servconn_set_idle_timeout:
LFB104:
	.loc 1 325 0
	.cfi_startproc
LVL167:
	sub	esp, 28
LCFI98:
	.cfi_def_cfa_offset 32
	mov	eax, DWORD PTR [esp+32]
	.loc 1 325 0
	mov	edx, DWORD PTR ___stack_chk_guard
	mov	DWORD PTR [esp+12], edx
	xor	edx, edx
	.loc 1 326 0
	mov	edx, DWORD PTR [esp+36]
	mov	DWORD PTR [eax+68], edx
	.loc 1 327 0
	mov	edx, DWORD PTR [eax+16]
	test	edx, edx
	jne	L197
	.loc 1 329 0
	mov	eax, DWORD PTR [esp+12]
	xor	eax, DWORD PTR ___stack_chk_guard
	jne	L196
	add	esp, 28
LCFI99:
	.cfi_remember_state
	.cfi_def_cfa_offset 4
	ret
	.p2align 2,,3
L197:
LCFI100:
	.cfi_restore_state
	.loc 1 328 0
	mov	edx, DWORD PTR [esp+12]
	xor	edx, DWORD PTR ___stack_chk_guard
	jne	L196
	.loc 1 329 0
	add	esp, 28
LCFI101:
	.cfi_remember_state
	.cfi_def_cfa_offset 4
	.loc 1 328 0
	jmp	_servconn_timeout_renew
LVL168:
L196:
LCFI102:
	.cfi_restore_state
	.loc 1 329 0
	call	___stack_chk_fail
LVL169:
	.cfi_endproc
LFE104:
	.p2align 2,,3
	.globl	_msn_servconn_write
	.def	_msn_servconn_write;	.scl	2;	.type	32;	.endef
_msn_servconn_write:
LFB106:
	.loc 1 361 0
	.cfi_startproc
LVL170:
	push	ebp
LCFI103:
	.cfi_def_cfa_offset 8
	.cfi_offset 5, -8
	push	edi
LCFI104:
	.cfi_def_cfa_offset 12
	.cfi_offset 7, -12
	push	esi
LCFI105:
	.cfi_def_cfa_offset 16
	.cfi_offset 6, -16
	push	ebx
LCFI106:
	.cfi_def_cfa_offset 20
	.cfi_offset 3, -20
	sub	esp, 60
LCFI107:
	.cfi_def_cfa_offset 80
	mov	ebx, DWORD PTR [esp+80]
	mov	ebp, DWORD PTR [esp+84]
	mov	edi, DWORD PTR [esp+88]
	.loc 1 361 0
	mov	eax, DWORD PTR ___stack_chk_guard
	mov	DWORD PTR [esp+44], eax
	xor	eax, eax
LVL171:
LBB43:
	.loc 1 364 0
	test	ebx, ebx
	je	L222
LVL172:
LBE43:
	.loc 1 366 0
	mov	eax, DWORD PTR [ebx+4]
	test	BYTE PTR [eax+16], 8
	jne	L223
	.loc 1 368 0
	mov	esi, DWORD PTR [ebx+64]
	test	esi, esi
	jne	L201
	.loc 1 382 0
	mov	DWORD PTR [esp+8], edi
	mov	DWORD PTR [esp+4], ebp
	mov	eax, DWORD PTR [ebx+40]
	mov	DWORD PTR [esp], eax
	call	_wpurple_write
LVL173:
	mov	esi, eax
LVL174:
	.loc 1 390 0
	test	eax, eax
	js	L205
	mov	edx, eax
LVL175:
L207:
	.loc 1 392 0
	cmp	edx, edi
	jb	L215
L211:
	.loc 1 411 0
	mov	eax, ebx
	call	_servconn_timeout_renew
LVL176:
L212:
	.loc 1 413 0
	mov	eax, esi
	mov	edx, DWORD PTR [esp+44]
	xor	edx, DWORD PTR ___stack_chk_guard
	jne	L224
	add	esp, 60
LCFI108:
	.cfi_remember_state
	.cfi_def_cfa_offset 20
	pop	ebx
LCFI109:
	.cfi_restore 3
	.cfi_def_cfa_offset 16
	pop	esi
LCFI110:
	.cfi_restore 6
	.cfi_def_cfa_offset 12
	pop	edi
LCFI111:
	.cfi_restore 7
	.cfi_def_cfa_offset 8
	pop	ebp
LCFI112:
	.cfi_restore 5
	.cfi_def_cfa_offset 4
	ret
LVL177:
	.p2align 2,,3
L215:
LCFI113:
	.cfi_restore_state
	.loc 1 393 0
	mov	ecx, DWORD PTR [ebx+64]
	test	ecx, ecx
	je	L225
L209:
	.loc 1 397 0
	sub	edi, edx
	mov	DWORD PTR [esp+8], edi
	add	ebp, edx
	mov	DWORD PTR [esp+4], ebp
	mov	eax, DWORD PTR [ebx+60]
	mov	DWORD PTR [esp], eax
	call	_purple_circ_buffer_append
LVL178:
	jmp	L211
LVL179:
	.p2align 2,,3
L223:
	.loc 1 403 0
	mov	DWORD PTR [esp+8], edi
	mov	DWORD PTR [esp+4], ebp
	mov	eax, DWORD PTR [ebx+36]
	mov	DWORD PTR [esp], eax
	call	_msn_httpconn_write
LVL180:
	mov	esi, eax
LVL181:
L208:
	.loc 1 406 0
	cmp	esi, -1
	jne	L211
	.loc 1 408 0
	mov	DWORD PTR [esp+8], 0
	mov	DWORD PTR [esp+4], 2
	mov	DWORD PTR [esp], ebx
	call	_msn_servconn_got_error
LVL182:
	jmp	L211
LVL183:
	.p2align 2,,3
L201:
	.loc 1 387 0
	call	__errno
LVL184:
	mov	DWORD PTR [eax], 11
	.loc 1 386 0
	mov	esi, -1
LVL185:
L205:
	.loc 1 390 0 discriminator 1
	call	__errno
LVL186:
	cmp	DWORD PTR [eax], 11
	jne	L208
	.loc 1 390 0 is_stmt 0
	xor	edx, edx
	.loc 1 391 0 is_stmt 1
	xor	esi, esi
	jmp	L207
LVL187:
	.p2align 2,,3
L225:
	.loc 1 394 0
	mov	DWORD PTR [esp+12], ebx
	mov	DWORD PTR [esp+8], OFFSET FLAT:_servconn_write_cb
	mov	DWORD PTR [esp+4], 2
	mov	eax, DWORD PTR [ebx+40]
	mov	DWORD PTR [esp], eax
	mov	DWORD PTR [esp+28], edx
	call	_purple_input_add
LVL188:
	mov	DWORD PTR [ebx+64], eax
	mov	edx, DWORD PTR [esp+28]
	jmp	L209
LVL189:
	.p2align 2,,3
L222:
	.loc 1 364 0
	mov	DWORD PTR [esp+8], OFFSET FLAT:LC1
	mov	DWORD PTR [esp+4], OFFSET FLAT:___PRETTY_FUNCTION__.45251
	mov	DWORD PTR [esp], 0
	call	_g_return_if_fail_warning
LVL190:
	xor	esi, esi
	jmp	L212
LVL191:
L224:
	.loc 1 413 0
	call	___stack_chk_fail
LVL192:
	.cfi_endproc
LFE106:
	.section .rdata,"dr"
LC15:
	.ascii "\15\12\0"
	.text
	.p2align 2,,3
	.globl	_msn_servconn_process_data
	.def	_msn_servconn_process_data;	.scl	2;	.type	32;	.endef
_msn_servconn_process_data:
LFB108:
	.loc 1 451 0
	.cfi_startproc
LVL193:
	push	ebp
LCFI114:
	.cfi_def_cfa_offset 8
	.cfi_offset 5, -8
	push	edi
LCFI115:
	.cfi_def_cfa_offset 12
	.cfi_offset 7, -12
	push	esi
LCFI116:
	.cfi_def_cfa_offset 16
	.cfi_offset 6, -16
	push	ebx
LCFI117:
	.cfi_def_cfa_offset 20
	.cfi_offset 3, -20
	sub	esp, 44
LCFI118:
	.cfi_def_cfa_offset 64
	mov	ebx, DWORD PTR [esp+64]
	.loc 1 451 0
	mov	eax, DWORD PTR ___stack_chk_guard
	mov	DWORD PTR [esp+28], eax
	xor	eax, eax
	.loc 1 455 0
	mov	edi, DWORD PTR [ebx+48]
LVL194:
	.loc 1 457 0
	mov	DWORD PTR [ebx+20], 1
	.loc 1 455 0
	mov	esi, edi
	jmp	L235
LVL195:
	.p2align 2,,3
L252:
	.loc 1 465 0
	mov	edx, DWORD PTR [ebx+52]
	test	edx, edx
	js	L228
	.loc 1 466 0
	cmp	eax, edx
	ja	L228
LVL196:
	.loc 1 471 0
	lea	ebp, [esi+eax]
LVL197:
	.loc 1 486 0
	sub	edx, eax
	mov	DWORD PTR [ebx+52], edx
L229:
	.loc 1 490 0
	mov	DWORD PTR [esp+8], eax
	mov	DWORD PTR [esp+4], esi
	mov	eax, DWORD PTR [ebx+8]
LVL198:
	mov	DWORD PTR [esp], eax
	call	_msn_cmdproc_process_payload
LVL199:
	.loc 1 491 0
	mov	DWORD PTR [ebx+56], 0
	mov	esi, ebp
LVL200:
L231:
	.loc 1 498 0
	mov	eax, DWORD PTR [ebx+16]
	test	eax, eax
	je	L251
	.loc 1 498 0 is_stmt 0 discriminator 1
	mov	eax, DWORD PTR [ebx+24]
	test	eax, eax
	jne	L234
	mov	eax, DWORD PTR [ebx+52]
	test	eax, eax
	jle	L236
L235:
LVL201:
	.loc 1 463 0 is_stmt 1
	mov	eax, DWORD PTR [ebx+56]
	test	eax, eax
	jne	L252
	.loc 1 475 0
	mov	DWORD PTR [esp+4], OFFSET FLAT:LC15
	mov	DWORD PTR [esp], esi
	call	_strstr
LVL202:
	.loc 1 477 0
	test	eax, eax
	je	L228
	.loc 1 481 0
	mov	BYTE PTR [eax], 0
	.loc 1 482 0
	lea	ebp, [eax+2]
LVL203:
	.loc 1 483 0
	mov	eax, ebp
	sub	eax, esi
LVL204:
	mov	edx, DWORD PTR [ebx+56]
	.loc 1 486 0
	sub	DWORD PTR [ebx+52], eax
	.loc 1 488 0
	test	edx, edx
	jne	L229
	.loc 1 495 0
	mov	DWORD PTR [esp+4], esi
	mov	eax, DWORD PTR [ebx+8]
LVL205:
	mov	DWORD PTR [esp], eax
	call	_msn_cmdproc_process_cmd_text
LVL206:
	.loc 1 496 0
	mov	eax, DWORD PTR [ebx+8]
	mov	eax, DWORD PTR [eax+12]
	mov	eax, DWORD PTR [eax+28]
	mov	DWORD PTR [ebx+56], eax
	.loc 1 482 0
	mov	esi, ebp
LVL207:
	jmp	L231
LVL208:
	.p2align 2,,3
L228:
	.loc 1 500 0
	mov	ebp, DWORD PTR [ebx+16]
	test	ebp, ebp
	je	L251
	cmp	DWORD PTR [ebx+24], 0
	jne	L234
	.loc 1 502 0
	mov	eax, DWORD PTR [ebx+52]
	test	eax, eax
	jle	L236
	.loc 1 503 0
	mov	DWORD PTR [esp+4], eax
	mov	DWORD PTR [esp], esi
	call	_g_memdup
LVL209:
	mov	DWORD PTR [ebx+48], eax
LVL210:
L251:
	mov	eax, DWORD PTR [ebx+24]
	.loc 1 508 0
	mov	DWORD PTR [ebx+20], 0
	.loc 1 510 0
	test	eax, eax
	jne	L239
LVL211:
L238:
	.loc 1 515 0
	mov	DWORD PTR [esp], edi
	call	_g_free
LVL212:
	.loc 1 517 0
	mov	eax, ebx
	mov	edx, DWORD PTR [esp+28]
	xor	edx, DWORD PTR ___stack_chk_guard
	jne	L253
	add	esp, 44
LCFI119:
	.cfi_remember_state
	.cfi_def_cfa_offset 20
	pop	ebx
LCFI120:
	.cfi_restore 3
	.cfi_def_cfa_offset 16
LVL213:
	pop	esi
LCFI121:
	.cfi_restore 6
	.cfi_def_cfa_offset 12
	pop	edi
LCFI122:
	.cfi_restore 7
	.cfi_def_cfa_offset 8
LVL214:
	pop	ebp
LCFI123:
	.cfi_restore 5
	.cfi_def_cfa_offset 4
	ret
LVL215:
	.p2align 2,,3
L234:
LCFI124:
	.cfi_restore_state
	.loc 1 508 0
	mov	DWORD PTR [ebx+20], 0
L239:
	.loc 1 511 0
	mov	DWORD PTR [esp], ebx
	call	_msn_servconn_destroy
LVL216:
	.loc 1 512 0
	xor	ebx, ebx
	jmp	L238
LVL217:
	.p2align 2,,3
L236:
	.loc 1 505 0
	mov	DWORD PTR [ebx+48], 0
	.loc 1 508 0
	mov	DWORD PTR [ebx+20], 0
	jmp	L238
LVL218:
L253:
	.loc 1 517 0
	call	___stack_chk_fail
LVL219:
	.cfi_endproc
LFE108:
	.section .rdata,"dr"
	.align 4
LC16:
	.ascii "servconn %03d read error, len: %i, errno: %d, error: %s\12\0"
	.text
	.p2align 2,,3
	.def	_read_cb;	.scl	3;	.type	32;	.endef
_read_cb:
LFB107:
	.loc 1 417 0
	.cfi_startproc
LVL220:
	push	ebp
LCFI125:
	.cfi_def_cfa_offset 8
	.cfi_offset 5, -8
	push	edi
LCFI126:
	.cfi_def_cfa_offset 12
	.cfi_offset 7, -12
	push	esi
LCFI127:
	.cfi_def_cfa_offset 16
	.cfi_offset 6, -16
	push	ebx
LCFI128:
	.cfi_def_cfa_offset 20
	.cfi_offset 3, -20
	mov	eax, 8252
	call	___chkstk_ms
	sub	esp, eax
LCFI129:
	.cfi_def_cfa_offset 8272
	mov	ebx, DWORD PTR [esp+8272]
	.loc 1 417 0
	mov	eax, DWORD PTR ___stack_chk_guard
	mov	DWORD PTR [esp+8236], eax
	xor	eax, eax
LVL221:
	.loc 1 424 0
	mov	eax, DWORD PTR [ebx]
	test	eax, eax
	je	L269
L255:
	.loc 1 427 0
	mov	DWORD PTR [esp+8], 8191
	lea	esi, [esp+44]
	mov	DWORD PTR [esp+4], esi
	mov	eax, DWORD PTR [ebx+40]
	mov	DWORD PTR [esp], eax
	call	_wpurple_read
LVL222:
	mov	ebp, eax
LVL223:
	.loc 1 428 0
	cmp	eax, 0
	jl	L270
	.loc 1 430 0
	je	L258
	.loc 1 439 0
	mov	BYTE PTR [esp+44+eax], 0
	.loc 1 441 0
	mov	eax, DWORD PTR [ebx+52]
LVL224:
	lea	eax, [ebp+1+eax]
	mov	DWORD PTR [esp+4], eax
	mov	eax, DWORD PTR [ebx+48]
	mov	DWORD PTR [esp], eax
	call	_g_realloc
LVL225:
	mov	DWORD PTR [ebx+48], eax
	.loc 1 442 0
	add	eax, DWORD PTR [ebx+52]
	lea	ecx, [ebp+1]
	mov	edi, eax
	rep movsb
	.loc 1 443 0
	add	DWORD PTR [ebx+52], ebp
	.loc 1 445 0
	mov	DWORD PTR [esp], ebx
	call	_msn_servconn_process_data
LVL226:
	.loc 1 446 0
	test	eax, eax
	je	L254
	.loc 1 447 0
	call	_servconn_timeout_renew
LVL227:
L254:
	.loc 1 448 0
	mov	eax, DWORD PTR [esp+8236]
	xor	eax, DWORD PTR ___stack_chk_guard
	jne	L271
	add	esp, 8252
LCFI130:
	.cfi_remember_state
	.cfi_def_cfa_offset 20
	pop	ebx
LCFI131:
	.cfi_restore 3
	.cfi_def_cfa_offset 16
	pop	esi
LCFI132:
	.cfi_restore 6
	.cfi_def_cfa_offset 12
	pop	edi
LCFI133:
	.cfi_restore 7
	.cfi_def_cfa_offset 8
	pop	ebp
LCFI134:
	.cfi_restore 5
	.cfi_def_cfa_offset 4
LVL228:
	ret
LVL229:
	.p2align 2,,3
L269:
LCFI135:
	.cfi_restore_state
	.loc 1 425 0
	mov	eax, DWORD PTR [ebx+4]
	mov	eax, DWORD PTR [eax]
	mov	esi, DWORD PTR [eax+28]
	mov	DWORD PTR [esp], 0
	call	_time
LVL230:
	mov	DWORD PTR [esi+48], eax
	jmp	L255
LVL231:
	.p2align 2,,3
L270:
	.loc 1 428 0 discriminator 1
	call	__errno
LVL232:
	cmp	DWORD PTR [eax], 11
	je	L254
L258:
	.loc 1 433 0
	call	__errno
LVL233:
	.loc 1 431 0
	mov	eax, DWORD PTR [eax]
	mov	DWORD PTR [esp], eax
	call	_wpurple_strerror
LVL234:
	mov	esi, eax
	.loc 1 433 0
	call	__errno
LVL235:
	.loc 1 431 0
	mov	DWORD PTR [esp+20], esi
	mov	eax, DWORD PTR [eax]
	mov	DWORD PTR [esp+16], eax
	mov	DWORD PTR [esp+12], ebp
	mov	eax, DWORD PTR [ebx+32]
	mov	DWORD PTR [esp+8], eax
	mov	DWORD PTR [esp+4], OFFSET FLAT:LC16
	mov	DWORD PTR [esp], OFFSET FLAT:LC12
	call	_purple_debug_error
LVL236:
	.loc 1 434 0
	mov	DWORD PTR [esp+8], 0
	mov	DWORD PTR [esp+4], 3
	mov	DWORD PTR [esp], ebx
	call	_msn_servconn_got_error
LVL237:
	jmp	L254
LVL238:
L271:
	.loc 1 448 0
	call	___stack_chk_fail
LVL239:
	.cfi_endproc
LFE107:
	.section .rdata,"dr"
___PRETTY_FUNCTION__.45152:
	.ascii "msn_servconn_new\0"
___PRETTY_FUNCTION__.45158:
	.ascii "msn_servconn_destroy\0"
___PRETTY_FUNCTION__.45166:
	.ascii "msn_servconn_set_connect_cb\0"
	.align 4
___PRETTY_FUNCTION__.45174:
	.ascii "msn_servconn_set_disconnect_cb\0"
___PRETTY_FUNCTION__.45182:
	.ascii "msn_servconn_set_destroy_cb\0"
___PRETTY_FUNCTION__.45214:
	.ascii "msn_servconn_connect\0"
___PRETTY_FUNCTION__.45224:
	.ascii "msn_servconn_disconnect\0"
___PRETTY_FUNCTION__.45251:
	.ascii "msn_servconn_write\0"
	.text
Letext0:
	.file 2 "c:/workspace/pidgin-devel/win32-dev/mingw-4.7.2/bin/../lib/gcc/mingw32/4.7.2/../../../../include/stdio.h"
	.file 3 "c:/workspace/pidgin-devel/win32-dev/mingw-4.7.2/bin/../lib/gcc/mingw32/4.7.2/include/stddef.h"
	.file 4 "c:/workspace/pidgin-devel/win32-dev/mingw-4.7.2/bin/../lib/gcc/mingw32/4.7.2/../../../../include/sys/types.h"
	.file 5 "c:/workspace/pidgin-devel/win32-dev/mingw-4.7.2/bin/../lib/gcc/mingw32/4.7.2/../../../../include/time.h"
	.file 6 "../../../../win32-dev/gtk_2_0-2.14/lib/glib-2.0/include/glibconfig.h"
	.file 7 "../../../../win32-dev/gtk_2_0-2.14/include/glib-2.0/glib/gtypes.h"
	.file 8 "../../../../win32-dev/gtk_2_0-2.14/include/glib-2.0/glib/glist.h"
	.file 9 "../../../../win32-dev/gtk_2_0-2.14/include/glib-2.0/glib/ghash.h"
	.file 10 "../../../../win32-dev/gtk_2_0-2.14/include/glib-2.0/glib/gslist.h"
	.file 11 "../../../../win32-dev/gtk_2_0-2.14/include/glib-2.0/glib/gmain.h"
	.file 12 "../../../../win32-dev/gtk_2_0-2.14/include/glib-2.0/glib/gqueue.h"
	.file 13 "../../../libpurple/account.h"
	.file 14 "../../../libpurple/connection.h"
	.file 15 "../../../libpurple/plugin.h"
	.file 16 "../../../libpurple/pluginpref.h"
	.file 17 "../../../libpurple/status.h"
	.file 18 "../../../libpurple/buddyicon.h"
	.file 19 "../../../libpurple/imgstore.h"
	.file 20 "../../../libpurple/conversation.h"
	.file 21 "../../../libpurple/log.h"
	.file 22 "../../../libpurple/eventloop.h"
	.file 23 "../../../libpurple/proxy.h"
	.file 24 "../../../libpurple/privacy.h"
	.file 25 "servconn.h"
	.file 26 "cmdproc.h"
	.file 27 "command.h"
	.file 28 "transaction.h"
	.file 29 "history.h"
	.file 30 "session.h"
	.file 31 "nexus.h"
	.file 32 "notification.h"
	.file 33 "user.h"
	.file 34 "object.h"
	.file 35 "userlist.h"
	.file 36 "../../../libpurple/circbuffer.h"
	.file 37 "switchboard.h"
	.file 38 "oim.h"
	.file 39 "table.h"
	.file 40 "httpconn.h"
	.file 41 "c:/workspace/pidgin-devel/win32-dev/mingw-4.7.2/bin/../lib/gcc/mingw32/4.7.2/../../../../include/ctype.h"
	.file 42 "../../../../win32-dev/gtk_2_0-2.14/include/glib-2.0/glib/gmem.h"
	.file 43 "../../../libpurple/win32/libc_internal.h"
	.file 44 "../../../../win32-dev/gtk_2_0-2.14/include/glib-2.0/glib/gmessages.h"
	.file 45 "../../../../win32-dev/gtk_2_0-2.14/include/glib-2.0/glib/gstrfuncs.h"
	.file 46 "../../../../win32-dev/gtk_2_0-2.14/include/libintl.h"
	.file 47 "../../../libpurple/debug.h"
	.file 48 "c:/workspace/pidgin-devel/win32-dev/mingw-4.7.2/bin/../lib/gcc/mingw32/4.7.2/../../../../include/string.h"
	.file 49 "c:/workspace/pidgin-devel/win32-dev/mingw-4.7.2/bin/../lib/gcc/mingw32/4.7.2/../../../../include/stdlib.h"