	.file	"sound-theme-loader.c"
	.intel_syntax noprefix
	.text
Ltext0:
	.p2align 2,,3
	.def	_purple_sound_theme_loader_class_init;	.scl	3;	.type	32;	.endef
_purple_sound_theme_loader_class_init:
LFB94:
	.file 1 "sound-theme-loader.c"
	.loc 1 91 0
	.cfi_startproc
LVL0:
	push	ebx
LCFI0:
	.cfi_def_cfa_offset 8
	.cfi_offset 3, -8
	sub	esp, 40
LCFI1:
	.cfi_def_cfa_offset 48
	mov	ebx, DWORD PTR [esp+48]
	.loc 1 91 0
	mov	eax, DWORD PTR ___stack_chk_guard
	mov	DWORD PTR [esp+28], eax
	xor	eax, eax
	.loc 1 92 0
	call	_purple_theme_loader_get_type
LVL1:
	mov	DWORD PTR [esp+4], eax
	mov	DWORD PTR [esp], ebx
	call	_g_type_check_class_cast
LVL2:
	.loc 1 94 0
	mov	DWORD PTR [eax+68], OFFSET FLAT:_purple_sound_loader_build
	.loc 1 95 0
	mov	eax, DWORD PTR [esp+28]
	xor	eax, DWORD PTR ___stack_chk_guard
LVL3:
	jne	L5
	add	esp, 40
LCFI2:
	.cfi_remember_state
	.cfi_def_cfa_offset 8
	pop	ebx
LCFI3:
	.cfi_restore 3
	.cfi_def_cfa_offset 4
	ret
L5:
LCFI4:
	.cfi_restore_state
	call	___stack_chk_fail
LVL4:
	.cfi_endproc
LFE94:
	.section .rdata,"dr"
LC0:
	.ascii "sound-theme-loader\0"
LC1:
	.ascii "sound themes\0"
LC2:
	.ascii "theme.xml\0"
LC3:
	.ascii "name\0"
LC4:
	.ascii "type\0"
LC5:
	.ascii "sound\0"
LC6:
	.ascii "description\0"
LC7:
	.ascii "image\0"
LC8:
	.ascii "author\0"
LC9:
	.ascii "directory\0"
LC10:
	.ascii "event\0"
LC11:
	.ascii "file\0"
	.align 4
LC12:
	.ascii "Missing attribute or problem with the root element\12\0"
LC13:
	.ascii "dir != NULL\0"
	.text
	.p2align 2,,3
	.def	_purple_sound_loader_build;	.scl	3;	.type	32;	.endef
_purple_sound_loader_build:
LFB93:
	.loc 1 36 0
	.cfi_startproc
LVL5:
	push	ebp
LCFI5:
	.cfi_def_cfa_offset 8
	.cfi_offset 5, -8
	push	edi
LCFI6:
	.cfi_def_cfa_offset 12
	.cfi_offset 7, -12
	push	esi
LCFI7:
	.cfi_def_cfa_offset 16
	.cfi_offset 6, -16
	push	ebx
LCFI8:
	.cfi_def_cfa_offset 20
	.cfi_offset 3, -20
	sub	esp, 108
LCFI9:
	.cfi_def_cfa_offset 128
	mov	ebx, DWORD PTR [esp+128]
	.loc 1 36 0
	mov	eax, DWORD PTR ___stack_chk_guard
	mov	DWORD PTR [esp+92], eax
	xor	eax, eax
LVL6:
LBB2:
	.loc 1 43 0
	test	ebx, ebx
	je	L31
LVL7:
LBE2:
	.loc 1 44 0
	mov	DWORD PTR [esp+8], 0
	mov	DWORD PTR [esp+4], OFFSET FLAT:LC2
	mov	DWORD PTR [esp], ebx
	call	_g_build_filename
LVL8:
	mov	edi, eax
LVL9:
	.loc 1 46 0
	mov	DWORD PTR [esp+4], 1
	mov	DWORD PTR [esp], eax
	call	_g_file_test_utf8
LVL10:
	test	eax, eax
	jne	L13
	.loc 1 49 0
	mov	DWORD PTR [esp], edi
	call	_g_free
LVL11:
	.loc 1 51 0
	xor	eax, eax
LVL12:
L9:
	.loc 1 83 0
	mov	edx, DWORD PTR [esp+92]
	xor	edx, DWORD PTR ___stack_chk_guard
	jne	L32
	add	esp, 108
LCFI10:
	.cfi_remember_state
	.cfi_def_cfa_offset 20
	pop	ebx
LCFI11:
	.cfi_restore 3
	.cfi_def_cfa_offset 16
	pop	esi
LCFI12:
	.cfi_restore 6
	.cfi_def_cfa_offset 12
	pop	edi
LCFI13:
	.cfi_restore 7
	.cfi_def_cfa_offset 8
	pop	ebp
LCFI14:
	.cfi_restore 5
	.cfi_def_cfa_offset 4
	ret
LVL13:
	.p2align 2,,3
L13:
LCFI15:
	.cfi_restore_state
	.loc 1 47 0
	mov	DWORD PTR [esp+12], OFFSET FLAT:LC0
	mov	DWORD PTR [esp+8], OFFSET FLAT:LC1
	mov	DWORD PTR [esp+4], OFFSET FLAT:LC2
	mov	DWORD PTR [esp], ebx
	call	_xmlnode_from_file
LVL14:
	mov	esi, eax
LVL15:
	.loc 1 49 0
	mov	DWORD PTR [esp], edi
	call	_g_free
LVL16:
	.loc 1 50 0
	test	esi, esi
	je	L15
	.loc 1 53 0
	mov	DWORD PTR [esp+4], OFFSET FLAT:LC3
	mov	DWORD PTR [esp], esi
	call	_xmlnode_get_attrib
LVL17:
	mov	edi, eax
LVL18:
	.loc 1 55 0
	test	eax, eax
	je	L10
	.loc 1 55 0 is_stmt 0 discriminator 1
	mov	DWORD PTR [esp+4], OFFSET FLAT:LC4
	mov	DWORD PTR [esp], esi
	call	_xmlnode_get_attrib
LVL19:
	mov	DWORD PTR [esp+4], OFFSET FLAT:LC5
	mov	DWORD PTR [esp], eax
	call	_purple_strequal
LVL20:
	test	eax, eax
	jne	L33
L10:
	.loc 1 78 0 is_stmt 1
	mov	DWORD PTR [esp+4], OFFSET FLAT:LC12
	mov	DWORD PTR [esp], OFFSET FLAT:LC0
	call	_purple_debug_warning
LVL21:
	.loc 1 39 0
	xor	edi, edi
LVL22:
	.loc 1 38 0
	mov	DWORD PTR [esp+76], 0
LVL23:
L11:
	.loc 1 80 0
	mov	DWORD PTR [esp], esi
	call	_xmlnode_free
LVL24:
	.loc 1 81 0
	mov	eax, DWORD PTR [esp+76]
	mov	DWORD PTR [esp], eax
	call	_g_free
LVL25:
	.loc 1 82 0
	call	_purple_theme_get_type
LVL26:
	mov	DWORD PTR [esp+4], eax
	mov	DWORD PTR [esp], edi
	call	_g_type_check_instance_cast
LVL27:
	jmp	L9
LVL28:
	.p2align 2,,3
L33:
	.loc 1 57 0
	mov	DWORD PTR [esp+4], OFFSET FLAT:LC6
	mov	DWORD PTR [esp], esi
	call	_xmlnode_get_child
LVL29:
	.loc 1 58 0
	mov	DWORD PTR [esp], eax
	call	_xmlnode_get_data
LVL30:
	mov	DWORD PTR [esp+76], eax
LVL31:
	.loc 1 60 0
	mov	DWORD PTR [esp+4], OFFSET FLAT:LC3
	mov	DWORD PTR [esp], esi
	call	_xmlnode_get_attrib
LVL32:
	test	eax, eax
	je	L16
	.loc 1 61 0
	mov	DWORD PTR [esp+4], OFFSET FLAT:LC7
	mov	DWORD PTR [esp], esi
	call	_xmlnode_get_attrib
LVL33:
	mov	DWORD PTR [esp+4], OFFSET FLAT:LC8
	mov	DWORD PTR [esp], esi
	mov	DWORD PTR [esp+68], eax
	call	_xmlnode_get_attrib
LVL34:
	mov	DWORD PTR [esp+72], eax
	call	_purple_sound_theme_get_type
LVL35:
	mov	DWORD PTR [esp+52], 0
	mov	ebp, DWORD PTR [esp+76]
	mov	DWORD PTR [esp+48], ebp
	mov	DWORD PTR [esp+44], OFFSET FLAT:LC6
	mov	DWORD PTR [esp+40], ebx
	mov	DWORD PTR [esp+36], OFFSET FLAT:LC9
	mov	ecx, DWORD PTR [esp+68]
	mov	DWORD PTR [esp+32], ecx
	mov	DWORD PTR [esp+28], OFFSET FLAT:LC7
	mov	edx, DWORD PTR [esp+72]
	mov	DWORD PTR [esp+24], edx
	mov	DWORD PTR [esp+20], OFFSET FLAT:LC8
	mov	DWORD PTR [esp+16], edi
	mov	DWORD PTR [esp+12], OFFSET FLAT:LC3
	mov	DWORD PTR [esp+8], OFFSET FLAT:LC5
	mov	DWORD PTR [esp+4], OFFSET FLAT:LC4
	mov	DWORD PTR [esp], eax
	call	_g_object_new
LVL36:
	mov	edi, eax
LVL37:
	.loc 1 69 0
	mov	DWORD PTR [esp+4], OFFSET FLAT:LC10
	mov	DWORD PTR [esp], esi
	call	_xmlnode_get_child
LVL38:
	mov	ebx, eax
LVL39:
	.loc 1 71 0
	test	eax, eax
	je	L11
	.p2align 2,,3
L23:
	.loc 1 74 0
	mov	DWORD PTR [esp+4], OFFSET FLAT:LC11
	mov	DWORD PTR [esp], ebx
	call	_xmlnode_get_attrib
LVL40:
	mov	ebp, eax
	.loc 1 73 0
	mov	DWORD PTR [esp+4], OFFSET FLAT:LC3
	mov	DWORD PTR [esp], ebx
	call	_xmlnode_get_attrib
LVL41:
	.loc 1 72 0
	mov	DWORD PTR [esp+8], ebp
	mov	DWORD PTR [esp+4], eax
	mov	DWORD PTR [esp], edi
	call	_purple_sound_theme_set_file
LVL42:
	.loc 1 75 0
	mov	DWORD PTR [esp], ebx
	call	_xmlnode_get_next_twin
LVL43:
	mov	ebx, eax
LVL44:
	.loc 1 71 0
	test	eax, eax
	jne	L23
	jmp	L11
LVL45:
	.p2align 2,,3
L16:
	.loc 1 39 0
	xor	edi, edi
LVL46:
	jmp	L11
LVL47:
	.p2align 2,,3
L31:
	.loc 1 43 0
	mov	DWORD PTR [esp+8], OFFSET FLAT:LC13
	mov	DWORD PTR [esp+4], OFFSET FLAT:___PRETTY_FUNCTION__.43458
	mov	DWORD PTR [esp], 0
	call	_g_return_if_fail_warning
LVL48:
	xor	eax, eax
	jmp	L9
LVL49:
L32:
	.loc 1 83 0
	call	___stack_chk_fail
LVL50:
L15:
	.loc 1 51 0
	xor	eax, eax
	jmp	L9
	.cfi_endproc
LFE93:
	.section .rdata,"dr"
LC14:
	.ascii "PurpleSoundThemeLoader\0"
	.text
	.p2align 2,,3
	.globl	_purple_sound_theme_loader_get_type
	.def	_purple_sound_theme_loader_get_type;	.scl	2;	.type	32;	.endef
_purple_sound_theme_loader_get_type:
LFB95:
	.loc 1 99 0
	.cfi_startproc
	sub	esp, 44
LCFI16:
	.cfi_def_cfa_offset 48
	.loc 1 99 0
	mov	eax, DWORD PTR ___stack_chk_guard
	mov	DWORD PTR [esp+28], eax
	xor	eax, eax
	.loc 1 101 0
	mov	eax, DWORD PTR _type.43469
	test	eax, eax
	jne	L35
LBB3:
	.loc 1 114 0
	call	_purple_theme_loader_get_type
LVL51:
	mov	DWORD PTR [esp+12], 0
	mov	DWORD PTR [esp+8], OFFSET FLAT:_info.43470
	mov	DWORD PTR [esp+4], OFFSET FLAT:LC14
	mov	DWORD PTR [esp], eax
	call	_g_type_register_static
LVL52:
	mov	DWORD PTR _type.43469, eax
L35:
LBE3:
	.loc 1 118 0
	mov	edx, DWORD PTR [esp+28]
	xor	edx, DWORD PTR ___stack_chk_guard
	jne	L38
	add	esp, 44
LCFI17:
	.cfi_remember_state
	.cfi_def_cfa_offset 4
	ret
L38:
LCFI18:
	.cfi_restore_state
	call	___stack_chk_fail
LVL53:
	.cfi_endproc
LFE95:
.lcomm _type.43469,4,4
	.section .rdata,"dr"
	.align 32
_info.43470:
	.word	72
	.space 2
	.long	0
	.long	0
	.long	_purple_sound_theme_loader_class_init
	.long	0
	.long	0
	.word	16
	.word	0
	.long	0
	.long	0
___PRETTY_FUNCTION__.43458:
	.ascii "purple_sound_loader_build\0"
	.text
Letext0:
	.file 2 "c:/workspace/pidgin-devel/win32-dev/mingw-4.7.2/bin/../lib/gcc/mingw32/4.7.2/../../../../include/stdio.h"
	.file 3 "c:/workspace/pidgin-devel/win32-dev/mingw-4.7.2/bin/../lib/gcc/mingw32/4.7.2/include/stddef.h"
	.file 4 "../../win32-dev/gtk_2_0-2.14/lib/glib-2.0/include/glibconfig.h"
	.file 5 "../../win32-dev/gtk_2_0-2.14/include/glib-2.0/glib/gtypes.h"
	.file 6 "../../win32-dev/gtk_2_0-2.14/include/glib-2.0/glib/gdataset.h"
	.file 7 "../../win32-dev/gtk_2_0-2.14/include/glib-2.0/glib/gfileutils.h"
	.file 8 "../../win32-dev/gtk_2_0-2.14/include/glib-2.0/glib/ghash.h"
	.file 9 "../../win32-dev/gtk_2_0-2.14/include/glib-2.0/glib/gslist.h"
	.file 10 "../../win32-dev/gtk_2_0-2.14/include/glib-2.0/gobject/gtype.h"
	.file 11 "../../win32-dev/gtk_2_0-2.14/include/glib-2.0/gobject/gvalue.h"
	.file 12 "../../win32-dev/gtk_2_0-2.14/include/glib-2.0/gobject/gparam.h"
	.file 13 "../../win32-dev/gtk_2_0-2.14/include/glib-2.0/gobject/gobject.h"
	.file 14 "media/../xmlnode.h"
	.file 15 "theme.h"
	.file 16 "theme-loader.h"
	.file 17 "sound-theme-loader.h"
	.file 18 "sound-theme.h"
	.file 19 "c:/workspace/pidgin-devel/win32-dev/mingw-4.7.2/bin/../lib/gcc/mingw32/4.7.2/../../../../include/ctype.h"
	.file 20 "media/../util.h"
	.file 21 "../../win32-dev/gtk_2_0-2.14/include/glib-2.0/glib/gmem.h"
	.file 22 "debug.h"
	.file 23 "../../win32-dev/gtk_2_0-2.14/include/glib-2.0/glib/gmessages.h"