	.file	"ssl-nss.c"
	.intel_syntax noprefix
	.text
Ltext0:
	.p2align 2,,3
	.def	_ssl_auth_cert;	.scl	3;	.type	32;	.endef
_ssl_auth_cert:
LFB97:
	.file 1 "ssl-nss.c"
	.loc 1 276 0
	.cfi_startproc
LVL0:
	sub	esp, 28
LCFI0:
	.cfi_def_cfa_offset 32
	.loc 1 276 0
	mov	eax, DWORD PTR ___stack_chk_guard
	mov	DWORD PTR [esp+12], eax
	xor	eax, eax
	.loc 1 292 0
	mov	edx, DWORD PTR [esp+12]
	xor	edx, DWORD PTR ___stack_chk_guard
	jne	L5
	add	esp, 28
LCFI1:
	.cfi_remember_state
	.cfi_def_cfa_offset 4
	ret
L5:
LCFI2:
	.cfi_restore_state
	call	___stack_chk_fail
LVL1:
	.cfi_endproc
LFE97:
	.p2align 2,,3
	.def	_ssl_nss_init;	.scl	3;	.type	32;	.endef
_ssl_nss_init:
LFB98:
	.loc 1 296 0
	.cfi_startproc
	sub	esp, 28
LCFI3:
	.cfi_def_cfa_offset 32
	.loc 1 296 0
	mov	eax, DWORD PTR ___stack_chk_guard
	mov	DWORD PTR [esp+12], eax
	xor	eax, eax
	.loc 1 298 0
	mov	al, 1
	mov	edx, DWORD PTR [esp+12]
	xor	edx, DWORD PTR ___stack_chk_guard
	jne	L9
	add	esp, 28
LCFI4:
	.cfi_remember_state
	.cfi_def_cfa_offset 4
	ret
L9:
LCFI5:
	.cfi_restore_state
	call	___stack_chk_fail
LVL2:
	.cfi_endproc
LFE98:
	.p2align 2,,3
	.def	_ssl_nss_peer_certs;	.scl	3;	.type	32;	.endef
_ssl_nss_peer_certs:
LFB110:
	.loc 1 623 0
	.cfi_startproc
LVL3:
	sub	esp, 28
LCFI6:
	.cfi_def_cfa_offset 32
	.loc 1 623 0
	mov	eax, DWORD PTR ___stack_chk_guard
	mov	DWORD PTR [esp+12], eax
	xor	eax, eax
	.loc 1 643 0
	mov	edx, DWORD PTR [esp+12]
	xor	edx, DWORD PTR ___stack_chk_guard
	jne	L13
	add	esp, 28
LCFI7:
	.cfi_remember_state
	.cfi_def_cfa_offset 4
	ret
L13:
LCFI8:
	.cfi_restore_state
	call	___stack_chk_fail
LVL4:
	.cfi_endproc
LFE110:
	.p2align 2,,3
	.def	_plugin_unload;	.scl	3;	.type	32;	.endef
_plugin_unload:
LFB126:
	.loc 1 1252 0
	.cfi_startproc
LVL5:
	sub	esp, 44
LCFI9:
	.cfi_def_cfa_offset 48
	.loc 1 1252 0
	mov	eax, DWORD PTR ___stack_chk_guard
	mov	DWORD PTR [esp+28], eax
	xor	eax, eax
	.loc 1 1253 0
	call	_purple_ssl_get_ops
LVL6:
	cmp	eax, OFFSET FLAT:_ssl_ops
	je	L18
L15:
	.loc 1 1258 0
	mov	DWORD PTR [esp], OFFSET FLAT:_x509_nss
	call	_purple_certificate_unregister_scheme
LVL7:
	.loc 1 1261 0
	mov	eax, 1
	mov	edx, DWORD PTR [esp+28]
	xor	edx, DWORD PTR ___stack_chk_guard
	jne	L19
	add	esp, 44
LCFI10:
	.cfi_remember_state
	.cfi_def_cfa_offset 4
	ret
	.p2align 2,,3
L18:
LCFI11:
	.cfi_restore_state
	.loc 1 1254 0
	mov	DWORD PTR [esp], 0
	call	_purple_ssl_set_ops
LVL8:
	jmp	L15
L19:
	.loc 1 1261 0
	call	___stack_chk_fail
LVL9:
	.cfi_endproc
LFE126:
	.section .rdata,"dr"
LC0:
	.ascii "[Certificate Authority]\0"
LC1:
	.ascii "\0"
LC2:
	.ascii "CERT %d. %s %s:\12\0"
LC3:
	.ascii "nss\0"
LC4:
	.ascii "  ERROR %ld: %s\12\0"
LC5:
	.ascii "subject name not verified\12\0"
	.text
	.p2align 2,,3
	.def	_x509_verify_cert;	.scl	3;	.type	32;	.endef
_x509_verify_cert:
LFB124:
	.loc 1 1119 0
	.cfi_startproc
LVL10:
	push	ebp
LCFI12:
	.cfi_def_cfa_offset 8
	.cfi_offset 5, -8
	push	edi
LCFI13:
	.cfi_def_cfa_offset 12
	.cfi_offset 7, -12
	push	esi
LCFI14:
	.cfi_def_cfa_offset 16
	.cfi_offset 6, -16
	push	ebx
LCFI15:
	.cfi_def_cfa_offset 20
	.cfi_offset 3, -20
	sub	esp, 92
LCFI16:
	.cfi_def_cfa_offset 112
	mov	eax, DWORD PTR [esp+112]
	mov	DWORD PTR [esp+44], eax
	mov	ebx, DWORD PTR [esp+116]
	.loc 1 1119 0
	mov	edx, DWORD PTR ___stack_chk_guard
	mov	DWORD PTR [esp+76], edx
	xor	edx, edx
	.loc 1 1120 0
	call	_CERT_GetDefaultCertDB
LVL11:
	mov	ebp, eax
LVL12:
	.loc 1 1122 0
	call	[DWORD PTR __imp__PR_Now]
LVL13:
	mov	esi, eax
	mov	edi, edx
LVL14:
	.loc 1 1124 0
	mov	edx, DWORD PTR [esp+44]
	mov	eax, DWORD PTR [edx+12]
	.loc 1 1128 0
	mov	eax, DWORD PTR [eax]
	mov	eax, DWORD PTR [eax+4]
	mov	DWORD PTR [esp+40], eax
LVL15:
	.loc 1 1130 0
	mov	DWORD PTR [esp], 512
	call	_PORT_NewArena
LVL16:
	mov	DWORD PTR [esp+60], eax
	.loc 1 1131 0
	mov	DWORD PTR [esp+72], 0
	mov	DWORD PTR [esp+68], 0
	.loc 1 1132 0
	mov	DWORD PTR [esp+64], 0
	.loc 1 1133 0
	lea	eax, [esp+60]
	mov	DWORD PTR [esp+28], eax
	mov	DWORD PTR [esp+24], 0
	mov	DWORD PTR [esp+16], esi
	mov	DWORD PTR [esp+20], edi
	mov	DWORD PTR [esp+12], 1
	mov	DWORD PTR [esp+8], 1
	mov	edx, DWORD PTR [esp+40]
	mov	DWORD PTR [esp+4], edx
	mov	DWORD PTR [esp], ebp
	call	_CERT_VerifyCert
LVL17:
	.loc 1 1135 0
	test	eax, eax
	jne	L21
	.loc 1 1135 0 is_stmt 0 discriminator 1
	mov	esi, DWORD PTR [esp+64]
LVL18:
	test	esi, esi
	jne	L21
LVL19:
L25:
	.loc 1 1188 0 is_stmt 1
	mov	edx, DWORD PTR [esp+44]
	mov	eax, DWORD PTR [edx+8]
	mov	DWORD PTR [esp+4], eax
	mov	edx, DWORD PTR [esp+40]
	mov	DWORD PTR [esp], edx
	call	_CERT_VerifyCertName
LVL20:
	.loc 1 1189 0
	test	eax, eax
	je	L23
	.loc 1 1190 0
	mov	DWORD PTR [esp+4], OFFSET FLAT:LC5
	mov	DWORD PTR [esp], OFFSET FLAT:LC3
	call	_purple_debug_error
LVL21:
	.loc 1 1191 0
	or	DWORD PTR [ebx], 16
	or	DWORD PTR [ebx+4], 0
L23:
	.loc 1 1194 0
	mov	DWORD PTR [esp+4], 0
	mov	eax, DWORD PTR [esp+60]
	mov	DWORD PTR [esp], eax
	call	_PORT_FreeArena
LVL22:
	.loc 1 1195 0
	mov	eax, DWORD PTR [esp+76]
	xor	eax, DWORD PTR ___stack_chk_guard
	jne	L49
	add	esp, 92
LCFI17:
	.cfi_remember_state
	.cfi_def_cfa_offset 20
	pop	ebx
LCFI18:
	.cfi_restore 3
	.cfi_def_cfa_offset 16
	pop	esi
LCFI19:
	.cfi_restore 6
	.cfi_def_cfa_offset 12
	pop	edi
LCFI20:
	.cfi_restore 7
	.cfi_def_cfa_offset 8
	pop	ebp
LCFI21:
	.cfi_restore 5
	.cfi_def_cfa_offset 4
	ret
LVL23:
	.p2align 2,,3
L21:
LCFI22:
	.cfi_restore_state
LBB22:
	.loc 1 1139 0
	mov	edx, DWORD PTR [esp+40]
	mov	ecx, DWORD PTR [edx+368]
	test	ecx, ecx
	jne	L50
	.loc 1 1126 0
	mov	DWORD PTR [esp+36], 0
LVL24:
L24:
	.loc 1 1147 0
	mov	ebp, DWORD PTR [esp+68]
LVL25:
	test	ebp, ebp
	je	L25
	mov	esi, -1
	jmp	L36
LVL26:
	.p2align 2,,3
L28:
	.loc 1 1181 0
	or	DWORD PTR [ebx], 65536
	or	DWORD PTR [ebx+4], 0
L34:
	.loc 1 1183 0
	mov	eax, DWORD PTR [ebp+0]
	test	eax, eax
	je	L35
	.loc 1 1184 0
	mov	DWORD PTR [esp], eax
	call	_CERT_DestroyCertificate
LVL27:
L35:
	.loc 1 1147 0
	mov	ebp, DWORD PTR [ebp+16]
LVL28:
	test	ebp, ebp
	je	L25
LVL29:
L36:
	.loc 1 1148 0
	mov	edi, DWORD PTR [ebp+8]
	cmp	edi, esi
	je	L26
LVL30:
	.loc 1 1150 0
	test	edi, edi
	je	L40
	mov	edx, OFFSET FLAT:LC0
L27:
	.loc 1 1150 0 is_stmt 0 discriminator 3
	mov	DWORD PTR [esp+16], edx
	.loc 1 1151 0 is_stmt 1 discriminator 3
	mov	edx, DWORD PTR [ebp+0]
	.loc 1 1150 0 discriminator 3
	mov	edx, DWORD PTR [edx+4]
	mov	DWORD PTR [esp+12], edx
	mov	DWORD PTR [esp+8], edi
	mov	DWORD PTR [esp+4], OFFSET FLAT:LC2
	mov	DWORD PTR [esp], OFFSET FLAT:LC3
	call	_purple_debug_error
LVL31:
	mov	esi, edi
LVL32:
L26:
	.loc 1 1154 0
	mov	eax, DWORD PTR [ebp+4]
	mov	DWORD PTR [esp], eax
	mov	edx, DWORD PTR __imp__PR_ErrorToName
	call	edx
LVL33:
	mov	DWORD PTR [esp+12], eax
	mov	eax, DWORD PTR [ebp+4]
	mov	DWORD PTR [esp+8], eax
	mov	DWORD PTR [esp+4], OFFSET FLAT:LC4
	mov	DWORD PTR [esp], OFFSET FLAT:LC3
	call	_purple_debug_error
LVL34:
	.loc 1 1156 0
	mov	eax, DWORD PTR [ebp+4]
	add	eax, 8181
	cmp	eax, 25
	ja	L28
	jmp	[DWORD PTR L33[0+eax*4]]
	.section .rdata,"dr"
	.align 4
L33:
	.long	L29
	.long	L30
	.long	L31
	.long	L28
	.long	L28
	.long	L28
	.long	L28
	.long	L28
	.long	L28
	.long	L31
	.long	L32
	.long	L28
	.long	L28
	.long	L28
	.long	L28
	.long	L28
	.long	L28
	.long	L28
	.long	L28
	.long	L32
	.long	L28
	.long	L28
	.long	L28
	.long	L28
	.long	L28
	.long	L32
	.text
	.p2align 2,,3
L32:
	.loc 1 1175 0
	mov	eax, DWORD PTR [esp+36]
	test	eax, eax
	jne	L34
	jmp	L28
	.p2align 2,,3
L31:
	.loc 1 1165 0
	mov	edx, DWORD PTR [esp+36]
	test	edx, edx
	jne	L34
	.loc 1 1166 0
	or	DWORD PTR [ebx], 2
	or	DWORD PTR [ebx+4], 0
	jmp	L34
	.p2align 2,,3
L30:
	.loc 1 1161 0
	or	DWORD PTR [ebx], 131072
	or	DWORD PTR [ebx+4], 0
	.loc 1 1162 0
	jmp	L34
	.p2align 2,,3
L29:
	.loc 1 1158 0
	or	DWORD PTR [ebx], 8
	or	DWORD PTR [ebx+4], 0
	.loc 1 1159 0
	jmp	L34
LVL35:
	.p2align 2,,3
L50:
	.loc 1 1141 0
	or	DWORD PTR [ebx], 1
	or	DWORD PTR [ebx+4], 0
	.loc 1 1140 0
	mov	DWORD PTR [esp+36], 1
	jmp	L24
LVL36:
	.p2align 2,,3
L40:
	.loc 1 1150 0
	mov	edx, OFFSET FLAT:LC1
	jmp	L27
LVL37:
L49:
LBE22:
	.loc 1 1195 0
	call	___stack_chk_fail
LVL38:
	.cfi_endproc
LFE124:
	.section .rdata,"dr"
	.align 4
LC6:
	.ascii "Refusing to set non-CA cert as trusted CA\12\0"
	.align 4
LC7:
	.ascii "Skipping setting trust for cert in permanent DB\12\0"
LC8:
	.ascii "crt\0"
LC9:
	.ascii "crt->scheme == &x509_nss\0"
LC10:
	.ascii "Trusting %s\12\0"
LC11:
	.ascii "crt_dat\0"
	.text
	.p2align 2,,3
	.def	_x509_register_trusted_tls_cert;	.scl	3;	.type	32;	.endef
_x509_register_trusted_tls_cert:
LFB123:
	.loc 1 1080 0
	.cfi_startproc
LVL39:
	push	edi
LCFI23:
	.cfi_def_cfa_offset 8
	.cfi_offset 7, -8
	push	esi
LCFI24:
	.cfi_def_cfa_offset 12
	.cfi_offset 6, -12
	push	ebx
LCFI25:
	.cfi_def_cfa_offset 16
	.cfi_offset 3, -16
	sub	esp, 32
LCFI26:
	.cfi_def_cfa_offset 48
	mov	ebx, DWORD PTR [esp+48]
	mov	esi, DWORD PTR [esp+52]
	.loc 1 1080 0
	mov	eax, DWORD PTR ___stack_chk_guard
	mov	DWORD PTR [esp+28], eax
	xor	eax, eax
	.loc 1 1081 0
	call	_CERT_GetDefaultCertDB
LVL40:
LBB23:
	.loc 1 1085 0
	test	ebx, ebx
	je	L71
LVL41:
LBE23:
LBB24:
	.loc 1 1086 0
	cmp	DWORD PTR [ebx], OFFSET FLAT:_x509_nss
	je	L57
LVL42:
LBE24:
	mov	DWORD PTR [esp+8], OFFSET FLAT:LC9
	mov	DWORD PTR [esp+4], OFFSET FLAT:___PRETTY_FUNCTION__.51199
	mov	DWORD PTR [esp], 0
	call	_g_return_if_fail_warning
LVL43:
	xor	eax, eax
LVL44:
L55:
	.loc 1 1116 0
	mov	edx, DWORD PTR [esp+28]
	xor	edx, DWORD PTR ___stack_chk_guard
	jne	L72
	add	esp, 32
LCFI27:
	.cfi_remember_state
	.cfi_def_cfa_offset 16
	pop	ebx
LCFI28:
	.cfi_restore 3
	.cfi_def_cfa_offset 12
	pop	esi
LCFI29:
	.cfi_restore 6
	.cfi_def_cfa_offset 8
	pop	edi
LCFI30:
	.cfi_restore 7
	.cfi_def_cfa_offset 4
	ret
LVL45:
	.p2align 2,,3
L71:
LCFI31:
	.cfi_restore_state
	.loc 1 1085 0
	mov	DWORD PTR [esp+8], OFFSET FLAT:LC8
	mov	DWORD PTR [esp+4], OFFSET FLAT:___PRETTY_FUNCTION__.51199
	mov	DWORD PTR [esp], 0
	call	_g_return_if_fail_warning
LVL46:
	xor	eax, eax
	jmp	L55
LVL47:
	.p2align 2,,3
L57:
	.loc 1 1088 0
	mov	ebx, DWORD PTR [ebx+4]
LVL48:
LBB25:
	.loc 1 1089 0
	test	ebx, ebx
	je	L58
	mov	edi, eax
LVL49:
LBE25:
	.loc 1 1091 0
	mov	eax, DWORD PTR [ebx+4]
	mov	DWORD PTR [esp+8], eax
	mov	DWORD PTR [esp+4], OFFSET FLAT:LC10
	mov	DWORD PTR [esp], OFFSET FLAT:LC3
	call	_purple_debug_info
LVL50:
	.loc 1 1093 0
	test	esi, esi
	jne	L73
	.loc 1 1099 0
	cmp	DWORD PTR [ebx+332], 0
	jne	L61
	.loc 1 1108 0
	mov	DWORD PTR [esp+16], 2
L56:
	.loc 1 1110 0
	mov	DWORD PTR [esp+20], 0
	.loc 1 1111 0
	mov	DWORD PTR [esp+24], 0
	.loc 1 1113 0
	lea	eax, [esp+16]
	mov	DWORD PTR [esp+8], eax
	mov	DWORD PTR [esp+4], ebx
	mov	DWORD PTR [esp], edi
	call	_CERT_ChangeCertTrust
LVL51:
	.loc 1 1115 0
	mov	eax, 1
	jmp	L55
	.p2align 2,,3
L73:
	.loc 1 1093 0 discriminator 1
	mov	DWORD PTR [esp+4], 0
	mov	DWORD PTR [esp], ebx
	call	_CERT_IsCACert
LVL52:
	test	eax, eax
	je	L74
	.loc 1 1099 0
	cmp	DWORD PTR [ebx+332], 0
	jne	L61
	.loc 1 1106 0
	mov	DWORD PTR [esp+16], 144
	jmp	L56
LVL53:
	.p2align 2,,3
L58:
	.loc 1 1089 0
	mov	DWORD PTR [esp+8], OFFSET FLAT:LC11
	mov	DWORD PTR [esp+4], OFFSET FLAT:___PRETTY_FUNCTION__.51199
	mov	DWORD PTR [esp], 0
	call	_g_return_if_fail_warning
LVL54:
	xor	eax, eax
	jmp	L55
LVL55:
	.p2align 2,,3
L74:
	.loc 1 1094 0
	mov	DWORD PTR [esp+4], OFFSET FLAT:LC6
	mov	DWORD PTR [esp], OFFSET FLAT:LC3
	call	_purple_debug_error
LVL56:
	.loc 1 1096 0
	xor	eax, eax
	jmp	L55
LVL57:
L72:
	.loc 1 1116 0
	call	___stack_chk_fail
LVL58:
L61:
	.loc 1 1100 0
	mov	DWORD PTR [esp+4], OFFSET FLAT:LC7
	mov	DWORD PTR [esp], OFFSET FLAT:LC3
	call	_purple_debug_info
LVL59:
	.loc 1 1102 0
	mov	eax, 1
	jmp	L55
	.cfi_endproc
LFE123:
	.section .rdata,"dr"
	.align 4
LC12:
	.ascii "Unable to read certificate file.\12\0"
LC13:
	.ascii "nss/x509\0"
	.align 4
LC14:
	.ascii "Certificate file has no contents!\12\0"
LC15:
	.ascii "filename != NULL\0"
LC16:
	.ascii "Loading certificate from %s\12\0"
LC17:
	.ascii "crt_dat != NULL\0"
	.text
	.p2align 2,,3
	.def	_x509_import_from_file;	.scl	3;	.type	32;	.endef
_x509_import_from_file:
LFB111:
	.loc 1 660 0
	.cfi_startproc
LVL60:
	push	ebx
LCFI32:
	.cfi_def_cfa_offset 8
	.cfi_offset 3, -8
	sub	esp, 40
LCFI33:
	.cfi_def_cfa_offset 48
	mov	ebx, DWORD PTR [esp+48]
	.loc 1 660 0
	mov	eax, DWORD PTR ___stack_chk_guard
	mov	DWORD PTR [esp+28], eax
	xor	eax, eax
	.loc 1 662 0
	mov	DWORD PTR [esp+24], 0
LVL61:
LBB26:
	.loc 1 666 0
	test	ebx, ebx
	je	L91
LVL62:
LBE26:
	.loc 1 668 0
	mov	DWORD PTR [esp+8], ebx
	mov	DWORD PTR [esp+4], OFFSET FLAT:LC16
	mov	DWORD PTR [esp], OFFSET FLAT:LC13
	call	_purple_debug_info
LVL63:
	.loc 1 673 0
	mov	DWORD PTR [esp+12], 0
	lea	eax, [esp+24]
	mov	DWORD PTR [esp+8], eax
	lea	eax, [esp+20]
	mov	DWORD PTR [esp+4], eax
	mov	DWORD PTR [esp], ebx
	call	_g_file_get_contents_utf8
LVL64:
	test	eax, eax
	je	L92
	.loc 1 680 0
	mov	eax, DWORD PTR [esp+24]
	test	eax, eax
	je	L93
	.loc 1 689 0
	mov	DWORD PTR [esp+4], eax
LVL65:
	mov	eax, DWORD PTR [esp+20]
	mov	DWORD PTR [esp], eax
	call	_CERT_DecodeCertFromPackage
LVL66:
	mov	ebx, eax
LVL67:
	.loc 1 690 0
	mov	eax, DWORD PTR [esp+20]
LVL68:
	mov	DWORD PTR [esp], eax
	call	_g_free
LVL69:
LBB27:
	.loc 1 692 0
	test	ebx, ebx
	je	L94
LVL70:
LBE27:
	.loc 1 694 0
	mov	DWORD PTR [esp], 8
	call	_g_malloc0
LVL71:
	.loc 1 695 0
	mov	DWORD PTR [eax], OFFSET FLAT:_x509_nss
	.loc 1 696 0
	mov	DWORD PTR [eax+4], ebx
LVL72:
L78:
	.loc 1 699 0
	mov	edx, DWORD PTR [esp+28]
	xor	edx, DWORD PTR ___stack_chk_guard
	jne	L95
	add	esp, 40
LCFI34:
	.cfi_remember_state
	.cfi_def_cfa_offset 8
	pop	ebx
LCFI35:
	.cfi_restore 3
	.cfi_def_cfa_offset 4
	ret
LVL73:
	.p2align 2,,3
L93:
LCFI36:
	.cfi_restore_state
	.loc 1 681 0
	mov	DWORD PTR [esp+4], OFFSET FLAT:LC14
	mov	DWORD PTR [esp], OFFSET FLAT:LC13
	call	_purple_debug_error
LVL74:
	.loc 1 683 0
	mov	eax, DWORD PTR [esp+20]
	test	eax, eax
	je	L85
	.loc 1 684 0
	mov	DWORD PTR [esp], eax
	call	_g_free
LVL75:
	.loc 1 685 0
	xor	eax, eax
	jmp	L78
LVL76:
	.p2align 2,,3
L91:
	.loc 1 666 0
	mov	DWORD PTR [esp+8], OFFSET FLAT:LC15
	mov	DWORD PTR [esp+4], OFFSET FLAT:___PRETTY_FUNCTION__.51032
	mov	DWORD PTR [esp], 0
	call	_g_return_if_fail_warning
LVL77:
	xor	eax, eax
	jmp	L78
LVL78:
	.p2align 2,,3
L85:
	.loc 1 685 0
	xor	eax, eax
	jmp	L78
LVL79:
	.p2align 2,,3
L94:
	.loc 1 692 0
	mov	DWORD PTR [esp+8], OFFSET FLAT:LC17
	mov	DWORD PTR [esp+4], OFFSET FLAT:___PRETTY_FUNCTION__.51032
	mov	DWORD PTR [esp], 0
	call	_g_return_if_fail_warning
LVL80:
	xor	eax, eax
	jmp	L78
LVL81:
	.p2align 2,,3
L92:
	.loc 1 676 0
	mov	DWORD PTR [esp+4], OFFSET FLAT:LC12
	mov	DWORD PTR [esp], OFFSET FLAT:LC13
	call	_purple_debug_error
LVL82:
	.loc 1 677 0
	xor	eax, eax
	jmp	L78
LVL83:
L95:
	.loc 1 699 0
	call	___stack_chk_fail
LVL84:
	.cfi_endproc
LFE111:
	.section .rdata,"dr"
LC18:
	.ascii "-----END CERTIFICATE-----\0"
	.text
	.p2align 2,,3
	.def	_x509_importcerts_from_file;	.scl	3;	.type	32;	.endef
_x509_importcerts_from_file:
LFB112:
	.loc 1 708 0
	.cfi_startproc
LVL85:
	push	edi
LCFI37:
	.cfi_def_cfa_offset 8
	.cfi_offset 7, -8
	push	esi
LCFI38:
	.cfi_def_cfa_offset 12
	.cfi_offset 6, -12
	push	ebx
LCFI39:
	.cfi_def_cfa_offset 16
	.cfi_offset 3, -16
	sub	esp, 32
LCFI40:
	.cfi_def_cfa_offset 48
	mov	ebx, DWORD PTR [esp+48]
	.loc 1 708 0
	mov	eax, DWORD PTR ___stack_chk_guard
	mov	DWORD PTR [esp+28], eax
	xor	eax, eax
	.loc 1 710 0
	mov	DWORD PTR [esp+24], 0
LVL86:
LBB28:
	.loc 1 715 0
	test	ebx, ebx
	je	L114
LVL87:
LBE28:
	.loc 1 717 0
	mov	DWORD PTR [esp+8], ebx
	mov	DWORD PTR [esp+4], OFFSET FLAT:LC16
	mov	DWORD PTR [esp], OFFSET FLAT:LC13
	call	_purple_debug_info
LVL88:
	.loc 1 722 0
	mov	DWORD PTR [esp+12], 0
	lea	eax, [esp+24]
	mov	DWORD PTR [esp+8], eax
	lea	eax, [esp+20]
	mov	DWORD PTR [esp+4], eax
	mov	DWORD PTR [esp], ebx
	call	_g_file_get_contents_utf8
LVL89:
	test	eax, eax
	je	L115
	.loc 1 729 0
	mov	edi, DWORD PTR [esp+24]
	test	edi, edi
	je	L116
LVL90:
	.loc 1 737 0
	mov	ebx, DWORD PTR [esp+20]
LVL91:
	.loc 1 711 0
	xor	esi, esi
	.loc 1 738 0
	jmp	L101
LVL92:
	.p2align 2,,3
L102:
	.loc 1 745 0
	mov	DWORD PTR [esp], 8
	call	_g_malloc0
LVL93:
	.loc 1 746 0
	mov	DWORD PTR [eax], OFFSET FLAT:_x509_nss
	.loc 1 747 0
	mov	DWORD PTR [eax+4], ebx
	.loc 1 748 0
	mov	DWORD PTR [esp+4], eax
	mov	DWORD PTR [esp], esi
	call	_g_slist_prepend
LVL94:
	mov	esi, eax
LVL95:
	.loc 1 749 0
	mov	ebx, edi
LVL96:
L101:
	.loc 1 738 0 discriminator 1
	mov	DWORD PTR [esp+4], OFFSET FLAT:LC18
	mov	DWORD PTR [esp], ebx
	call	_strstr
LVL97:
	test	eax, eax
	je	L117
	.loc 1 739 0
	lea	edi, [eax+25]
LVL98:
	.loc 1 741 0
	mov	eax, edi
	sub	eax, ebx
	mov	DWORD PTR [esp+4], eax
	mov	DWORD PTR [esp], ebx
	call	_CERT_DecodeCertFromPackage
LVL99:
	mov	ebx, eax
LVL100:
LBB29:
	.loc 1 743 0
	test	eax, eax
	jne	L102
LVL101:
LBE29:
	mov	DWORD PTR [esp+8], OFFSET FLAT:LC17
	mov	DWORD PTR [esp+4], OFFSET FLAT:___PRETTY_FUNCTION__.51047
	mov	DWORD PTR [esp], 0
	call	_g_return_if_fail_warning
LVL102:
	xor	esi, esi
LVL103:
L99:
	.loc 1 754 0
	mov	eax, esi
	mov	edx, DWORD PTR [esp+28]
	xor	edx, DWORD PTR ___stack_chk_guard
	jne	L118
	add	esp, 32
LCFI41:
	.cfi_remember_state
	.cfi_def_cfa_offset 16
	pop	ebx
LCFI42:
	.cfi_restore 3
	.cfi_def_cfa_offset 12
	pop	esi
LCFI43:
	.cfi_restore 6
	.cfi_def_cfa_offset 8
	pop	edi
LCFI44:
	.cfi_restore 7
	.cfi_def_cfa_offset 4
	ret
LVL104:
	.p2align 2,,3
L117:
LCFI45:
	.cfi_restore_state
	.loc 1 751 0
	mov	eax, DWORD PTR [esp+20]
LVL105:
	mov	DWORD PTR [esp], eax
	call	_g_free
LVL106:
	jmp	L99
LVL107:
	.p2align 2,,3
L116:
	.loc 1 730 0
	mov	DWORD PTR [esp+4], OFFSET FLAT:LC14
	mov	DWORD PTR [esp], OFFSET FLAT:LC13
	call	_purple_debug_error
LVL108:
	.loc 1 732 0
	mov	eax, DWORD PTR [esp+20]
	test	eax, eax
	je	L108
	.loc 1 733 0
	mov	DWORD PTR [esp], eax
	call	_g_free
LVL109:
	.loc 1 734 0
	xor	esi, esi
	jmp	L99
L108:
	xor	esi, esi
	jmp	L99
LVL110:
L114:
	.loc 1 715 0
	mov	DWORD PTR [esp+8], OFFSET FLAT:LC15
	mov	DWORD PTR [esp+4], OFFSET FLAT:___PRETTY_FUNCTION__.51047
	mov	DWORD PTR [esp], 0
	call	_g_return_if_fail_warning
LVL111:
	xor	esi, esi
	jmp	L99
LVL112:
L115:
	.loc 1 725 0
	mov	DWORD PTR [esp+4], OFFSET FLAT:LC12
	mov	DWORD PTR [esp], OFFSET FLAT:LC13
	call	_purple_debug_error
LVL113:
	.loc 1 726 0
	xor	esi, esi
	jmp	L99
LVL114:
L118:
	.loc 1 754 0
	call	___stack_chk_fail
LVL115:
	.cfi_endproc
LFE112:
	.section .rdata,"dr"
	.align 4
LC19:
	.ascii "Setting Activation Date to epoch to handle pre-epoch value\12\0"
	.align 4
LC20:
	.ascii "Activation date past 32-bit barrier, forcing invalidity\12\0"
	.align 4
LC21:
	.ascii "Setting Expiration Date to 32-bit signed max\12\0"
	.align 4
LC22:
	.ascii "Setting Expiration Date to 32-bit unsigned max\12\0"
	.align 4
LC23:
	.ascii "Expiration date prior to unix epoch, forcing invalidity\12\0"
	.align 4
LC24:
	.ascii "SECSuccess == CERT_GetCertTimes(crt_dat, &nss_activ, &nss_expir)\0"
	.def	___divdi3;	.scl	2;	.type	32;	.endef
	.text
	.p2align 2,,3
	.def	_x509_times;	.scl	3;	.type	32;	.endef
_x509_times:
LFB122:
	.loc 1 1010 0
	.cfi_startproc
LVL116:
	push	ebp
LCFI46:
	.cfi_def_cfa_offset 8
	.cfi_offset 5, -8
	push	edi
LCFI47:
	.cfi_def_cfa_offset 12
	.cfi_offset 7, -12
	push	esi
LCFI48:
	.cfi_def_cfa_offset 16
	.cfi_offset 6, -16
	push	ebx
LCFI49:
	.cfi_def_cfa_offset 20
	.cfi_offset 3, -20
	sub	esp, 76
LCFI50:
	.cfi_def_cfa_offset 96
	mov	eax, DWORD PTR [esp+96]
	mov	ebx, DWORD PTR [esp+100]
	mov	esi, DWORD PTR [esp+104]
	.loc 1 1010 0
	mov	edx, DWORD PTR ___stack_chk_guard
	mov	DWORD PTR [esp+60], edx
	xor	edx, edx
LBB30:
	.loc 1 1014 0
	test	eax, eax
	je	L149
LVL117:
LBE30:
LBB31:
	.loc 1 1015 0
	cmp	DWORD PTR [eax], OFFSET FLAT:_x509_nss
	je	L131
LVL118:
LBE31:
	mov	DWORD PTR [esp+8], OFFSET FLAT:LC9
	mov	DWORD PTR [esp+4], OFFSET FLAT:___PRETTY_FUNCTION__.51183
	mov	DWORD PTR [esp], 0
	call	_g_return_if_fail_warning
LVL119:
	xor	eax, eax
LVL120:
L125:
	.loc 1 1076 0
	mov	edx, DWORD PTR [esp+60]
	xor	edx, DWORD PTR ___stack_chk_guard
	jne	L150
	add	esp, 76
LCFI51:
	.cfi_remember_state
	.cfi_def_cfa_offset 20
	pop	ebx
LCFI52:
	.cfi_restore 3
	.cfi_def_cfa_offset 16
	pop	esi
LCFI53:
	.cfi_restore 6
	.cfi_def_cfa_offset 12
	pop	edi
LCFI54:
	.cfi_restore 7
	.cfi_def_cfa_offset 8
	pop	ebp
LCFI55:
	.cfi_restore 5
	.cfi_def_cfa_offset 4
	ret
LVL121:
	.p2align 2,,3
L149:
LCFI56:
	.cfi_restore_state
	.loc 1 1014 0
	mov	DWORD PTR [esp+8], OFFSET FLAT:LC8
	mov	DWORD PTR [esp+4], OFFSET FLAT:___PRETTY_FUNCTION__.51183
	mov	DWORD PTR [esp], 0
	call	_g_return_if_fail_warning
LVL122:
	xor	eax, eax
	jmp	L125
LVL123:
	.p2align 2,,3
L131:
	.loc 1 1017 0
	mov	edx, DWORD PTR [eax+4]
LVL124:
LBB32:
	.loc 1 1018 0
	test	edx, edx
	je	L132
LVL125:
LBE32:
LBB33:
	.loc 1 1022 0
	lea	eax, [esp+48]
	mov	DWORD PTR [esp+8], eax
	lea	eax, [esp+40]
	mov	DWORD PTR [esp+4], eax
	mov	DWORD PTR [esp], edx
	call	_CERT_GetCertTimes
LVL126:
	test	eax, eax
	jne	L151
LVL127:
LBE33:
	.loc 1 1030 0
	mov	DWORD PTR [esp+8], 1000000
	mov	DWORD PTR [esp+12], 0
	mov	eax, DWORD PTR [esp+40]
LVL128:
	mov	edx, DWORD PTR [esp+44]
	mov	DWORD PTR [esp], eax
	mov	DWORD PTR [esp+4], edx
	call	___divdi3
LVL129:
	mov	ebp, eax
	mov	edi, edx
LVL130:
	mov	DWORD PTR [esp+40], eax
	mov	DWORD PTR [esp+44], edx
LVL131:
	.loc 1 1031 0
	mov	DWORD PTR [esp+8], 1000000
	mov	DWORD PTR [esp+12], 0
	mov	eax, DWORD PTR [esp+48]
LVL132:
	mov	edx, DWORD PTR [esp+52]
LVL133:
	mov	DWORD PTR [esp], eax
	mov	DWORD PTR [esp+4], edx
	mov	DWORD PTR [esp+28], ebp
	call	___divdi3
LVL134:
	mov	DWORD PTR [esp+48], eax
	mov	DWORD PTR [esp+52], edx
	.loc 1 1033 0
	test	ebx, ebx
	mov	ecx, DWORD PTR [esp+28]
	je	L124
	.loc 1 1034 0
	mov	DWORD PTR [ebx], ebp
	.loc 1 1039 0
	mov	eax, ecx
LVL135:
	cdq
	cmp	edi, edx
	je	L124
	.loc 1 1040 0
	test	edi, edi
	js	L152
	.loc 1 1045 0
	mov	DWORD PTR [esp+4], OFFSET FLAT:LC20
	mov	DWORD PTR [esp], OFFSET FLAT:LC3
	call	_purple_debug_error
LVL136:
	.loc 1 1047 0
	xor	eax, eax
	jmp	L125
LVL137:
	.p2align 2,,3
L152:
	.loc 1 1041 0
	mov	DWORD PTR [esp+4], OFFSET FLAT:LC19
	mov	DWORD PTR [esp], OFFSET FLAT:LC3
	call	_purple_debug_warning
LVL138:
	.loc 1 1043 0
	mov	DWORD PTR [ebx], 0
LVL139:
L124:
	.loc 1 1052 0
	test	esi, esi
	je	L148
	.loc 1 1053 0
	mov	ecx, DWORD PTR [esp+48]
	mov	ebx, DWORD PTR [esp+52]
	mov	DWORD PTR [esi], ecx
	.loc 1 1055 0
	mov	eax, ecx
	cdq
	cmp	ebx, edx
	je	L148
	.loc 1 1056 0
	cmp	ebx, edx
	jge	L153
L128:
	.loc 1 1067 0
	mov	DWORD PTR [esp+4], OFFSET FLAT:LC23
	mov	DWORD PTR [esp], OFFSET FLAT:LC3
	call	_purple_debug_error
LVL140:
	.loc 1 1069 0
	xor	eax, eax
	jmp	L125
LVL141:
	.p2align 2,,3
L151:
	.loc 1 1022 0
	mov	DWORD PTR [esp+8], OFFSET FLAT:LC24
	mov	DWORD PTR [esp+4], OFFSET FLAT:___PRETTY_FUNCTION__.51183
	mov	DWORD PTR [esp], 0
	call	_g_return_if_fail_warning
LVL142:
	xor	eax, eax
	jmp	L125
LVL143:
	.p2align 2,,3
L153:
	.loc 1 1056 0
	jle	L128
	.loc 1 1057 0
	test	ecx, ecx
	js	L154
	.loc 1 1062 0
	mov	DWORD PTR [esp+4], OFFSET FLAT:LC22
	mov	DWORD PTR [esp], OFFSET FLAT:LC3
	call	_purple_debug_warning
LVL144:
	.loc 1 1064 0
	mov	DWORD PTR [esi], -1
L148:
	.loc 1 1075 0
	mov	eax, 1
	jmp	L125
LVL145:
	.p2align 2,,3
L132:
	.loc 1 1018 0
	mov	DWORD PTR [esp+8], OFFSET FLAT:LC11
	mov	DWORD PTR [esp+4], OFFSET FLAT:___PRETTY_FUNCTION__.51183
	mov	DWORD PTR [esp], 0
	call	_g_return_if_fail_warning
LVL146:
	xor	eax, eax
	jmp	L125
LVL147:
	.p2align 2,,3
L154:
	.loc 1 1058 0
	mov	DWORD PTR [esp+4], OFFSET FLAT:LC21
	mov	DWORD PTR [esp], OFFSET FLAT:LC3
	call	_purple_debug_warning
LVL148:
	.loc 1 1060 0
	mov	DWORD PTR [esi], 2147483647
	.loc 1 1075 0
	mov	eax, 1
	jmp	L125
LVL149:
L150:
	.loc 1 1076 0
	call	___stack_chk_fail
LVL150:
	.cfi_endproc
LFE122:
	.section .rdata,"dr"
LC25:
	.ascii "Error: hashing failed!\12\0"
	.text
	.p2align 2,,3
	.def	_x509_sha1sum;	.scl	3;	.type	32;	.endef
_x509_sha1sum:
LFB117:
	.loc 1 885 0
	.cfi_startproc
LVL151:
	push	esi
LCFI57:
	.cfi_def_cfa_offset 8
	.cfi_offset 6, -8
	push	ebx
LCFI58:
	.cfi_def_cfa_offset 12
	.cfi_offset 3, -12
	sub	esp, 36
LCFI59:
	.cfi_def_cfa_offset 48
	mov	eax, DWORD PTR [esp+48]
	.loc 1 885 0
	mov	edx, DWORD PTR ___stack_chk_guard
	mov	DWORD PTR [esp+28], edx
	xor	edx, edx
LVL152:
LBB34:
	.loc 1 892 0
	test	eax, eax
	je	L166
LVL153:
LBE34:
LBB35:
	.loc 1 893 0
	cmp	DWORD PTR [eax], OFFSET FLAT:_x509_nss
	je	L159
LVL154:
LBE35:
	mov	DWORD PTR [esp+8], OFFSET FLAT:LC9
	mov	DWORD PTR [esp+4], OFFSET FLAT:___PRETTY_FUNCTION__.51120
	mov	DWORD PTR [esp], 0
	call	_g_return_if_fail_warning
LVL155:
	xor	ebx, ebx
LVL156:
L158:
	.loc 1 918 0
	mov	eax, ebx
	mov	edx, DWORD PTR [esp+28]
	xor	edx, DWORD PTR ___stack_chk_guard
	jne	L167
	add	esp, 36
LCFI60:
	.cfi_remember_state
	.cfi_def_cfa_offset 12
	pop	ebx
LCFI61:
	.cfi_restore 3
	.cfi_def_cfa_offset 8
	pop	esi
LCFI62:
	.cfi_restore 6
	.cfi_def_cfa_offset 4
	ret
	.p2align 2,,3
L166:
LCFI63:
	.cfi_restore_state
LVL157:
	.loc 1 892 0
	mov	DWORD PTR [esp+8], OFFSET FLAT:LC8
	mov	DWORD PTR [esp+4], OFFSET FLAT:___PRETTY_FUNCTION__.51120
	mov	DWORD PTR [esp], 0
	call	_g_return_if_fail_warning
LVL158:
	xor	ebx, ebx
	jmp	L158
LVL159:
	.p2align 2,,3
L159:
	.loc 1 895 0
	mov	esi, DWORD PTR [eax+4]
LVL160:
LBB36:
	.loc 1 896 0
	test	esi, esi
	je	L160
LVL161:
LBE36:
	.loc 1 902 0
	mov	DWORD PTR [esp], 20
	call	_g_byte_array_sized_new
LVL162:
	mov	ebx, eax
LVL163:
	.loc 1 904 0
	mov	DWORD PTR [eax+4], 20
	.loc 1 906 0
	mov	eax, DWORD PTR [esi+68]
LVL164:
	mov	DWORD PTR [esp+12], eax
	mov	eax, DWORD PTR [esi+64]
	mov	DWORD PTR [esp+8], eax
	mov	eax, DWORD PTR [ebx]
	mov	DWORD PTR [esp+4], eax
	mov	DWORD PTR [esp], 4
	call	_PK11_HashBuf
LVL165:
	.loc 1 910 0
	test	eax, eax
	je	L158
	.loc 1 911 0
	mov	DWORD PTR [esp+4], 1
	mov	DWORD PTR [esp], ebx
	call	_g_byte_array_free
LVL166:
	.loc 1 912 0
	mov	DWORD PTR [esp+4], OFFSET FLAT:LC25
	mov	DWORD PTR [esp], OFFSET FLAT:LC13
	call	_purple_debug_error
LVL167:
	.loc 1 914 0
	xor	ebx, ebx
LVL168:
	jmp	L158
LVL169:
	.p2align 2,,3
L160:
	.loc 1 896 0
	mov	DWORD PTR [esp+8], OFFSET FLAT:LC11
	mov	DWORD PTR [esp+4], OFFSET FLAT:___PRETTY_FUNCTION__.51120
	mov	DWORD PTR [esp], 0
	call	_g_return_if_fail_warning
LVL170:
	xor	ebx, ebx
	jmp	L158
LVL171:
L167:
	.loc 1 918 0
	call	___stack_chk_fail
LVL172:
	.cfi_endproc
LFE117:
	.section .rdata,"dr"
LC26:
	.ascii "issuerCert\0"
LC27:
	.ascii "subjectCert\0"
	.text
	.p2align 2,,3
	.def	_x509_signed_by;	.scl	3;	.type	32;	.endef
_x509_signed_by:
LFB116:
	.loc 1 865 0
	.cfi_startproc
LVL173:
	push	esi
LCFI64:
	.cfi_def_cfa_offset 8
	.cfi_offset 6, -8
	push	ebx
LCFI65:
	.cfi_def_cfa_offset 12
	.cfi_offset 3, -12
	sub	esp, 52
LCFI66:
	.cfi_def_cfa_offset 64
	mov	edx, DWORD PTR [esp+64]
	.loc 1 865 0
	mov	eax, DWORD PTR ___stack_chk_guard
	mov	DWORD PTR [esp+44], eax
	xor	eax, eax
	.loc 1 870 0
	mov	eax, DWORD PTR [esp+68]
	mov	ebx, DWORD PTR [eax+4]
LVL174:
LBB37:
	.loc 1 871 0
	test	ebx, ebx
	je	L182
LVL175:
LBE37:
	.loc 1 873 0
	mov	esi, DWORD PTR [edx+4]
LVL176:
LBB38:
	.loc 1 874 0
	test	esi, esi
	je	L183
LVL177:
LBE38:
	.loc 1 876 0
	mov	edx, DWORD PTR [esi+8]
	test	edx, edx
	je	L177
	.loc 1 876 0 is_stmt 0 discriminator 1
	mov	eax, DWORD PTR [ebx+4]
	test	eax, eax
	je	L177
	.loc 1 877 0 is_stmt 1
	mov	DWORD PTR [esp+4], eax
	mov	DWORD PTR [esp], edx
	call	_strcmp
LVL178:
	test	eax, eax
	je	L184
L177:
	.loc 1 878 0
	xor	eax, eax
LVL179:
L171:
	.loc 1 881 0
	mov	edx, DWORD PTR [esp+44]
	xor	edx, DWORD PTR ___stack_chk_guard
	jne	L185
	add	esp, 52
LCFI67:
	.cfi_remember_state
	.cfi_def_cfa_offset 12
	pop	ebx
LCFI68:
	.cfi_restore 3
	.cfi_def_cfa_offset 8
LVL180:
	pop	esi
LCFI69:
	.cfi_restore 6
	.cfi_def_cfa_offset 4
	ret
LVL181:
	.p2align 2,,3
L184:
LCFI70:
	.cfi_restore_state
	.loc 1 879 0
	call	[DWORD PTR __imp__PR_Now]
LVL182:
	mov	DWORD PTR [esp+16], 0
	mov	DWORD PTR [esp+8], eax
	mov	DWORD PTR [esp+12], edx
	mov	DWORD PTR [esp+4], ebx
	add	esi, 12
LVL183:
	mov	DWORD PTR [esp], esi
	call	_CERT_VerifySignedData
LVL184:
	.loc 1 880 0
	test	eax, eax
	sete	al
LVL185:
	movzx	eax, al
	jmp	L171
LVL186:
	.p2align 2,,3
L182:
	.loc 1 871 0
	mov	DWORD PTR [esp+8], OFFSET FLAT:LC26
	mov	DWORD PTR [esp+4], OFFSET FLAT:___PRETTY_FUNCTION__.51107
	mov	DWORD PTR [esp], 0
	call	_g_return_if_fail_warning
LVL187:
	xor	eax, eax
	jmp	L171
LVL188:
	.p2align 2,,3
L183:
	.loc 1 874 0
	mov	DWORD PTR [esp+8], OFFSET FLAT:LC27
	mov	DWORD PTR [esp+4], OFFSET FLAT:___PRETTY_FUNCTION__.51107
	mov	DWORD PTR [esp], 0
	call	_g_return_if_fail_warning
LVL189:
	xor	eax, eax
	jmp	L171
LVL190:
L185:
	.loc 1 881 0
	call	___stack_chk_fail
LVL191:
	.cfi_endproc
LFE116:
	.section .rdata,"dr"
LC28:
	.ascii "filename\0"
LC29:
	.ascii "Exporting certificate to %s\12\0"
LC30:
	.ascii "dercrt != NULL\0"
LC31:
	.ascii "b64crt\0"
	.align 4
LC32:
	.ascii "-----BEGIN CERTIFICATE-----\12%s\12-----END CERTIFICATE-----\12\0"
	.text
	.p2align 2,,3
	.def	_x509_export_certificate;	.scl	3;	.type	32;	.endef
_x509_export_certificate:
LFB113:
	.loc 1 766 0
	.cfi_startproc
LVL192:
	push	edi
LCFI71:
	.cfi_def_cfa_offset 8
	.cfi_offset 7, -8
	push	esi
LCFI72:
	.cfi_def_cfa_offset 12
	.cfi_offset 6, -12
	push	ebx
LCFI73:
	.cfi_def_cfa_offset 16
	.cfi_offset 3, -16
	sub	esp, 48
LCFI74:
	.cfi_def_cfa_offset 64
	mov	ebx, DWORD PTR [esp+64]
	mov	eax, DWORD PTR [esp+68]
	.loc 1 766 0
	mov	edx, DWORD PTR ___stack_chk_guard
	mov	DWORD PTR [esp+44], edx
	xor	edx, edx
LVL193:
LBB39:
	.loc 1 773 0
	test	ebx, ebx
	je	L201
LVL194:
LBE39:
LBB40:
	.loc 1 774 0
	test	eax, eax
	je	L202
LVL195:
LBE40:
LBB41:
	.loc 1 775 0
	cmp	DWORD PTR [eax], OFFSET FLAT:_x509_nss
	je	L203
LVL196:
LBE41:
	mov	DWORD PTR [esp+8], OFFSET FLAT:LC9
	mov	DWORD PTR [esp+4], OFFSET FLAT:___PRETTY_FUNCTION__.51064
	mov	DWORD PTR [esp], 0
	call	_g_return_if_fail_warning
LVL197:
	xor	eax, eax
LVL198:
L189:
	.loc 1 804 0
	mov	edx, DWORD PTR [esp+44]
	xor	edx, DWORD PTR ___stack_chk_guard
	jne	L204
	add	esp, 48
LCFI75:
	.cfi_remember_state
	.cfi_def_cfa_offset 16
	pop	ebx
LCFI76:
	.cfi_restore 3
	.cfi_def_cfa_offset 12
	pop	esi
LCFI77:
	.cfi_restore 6
	.cfi_def_cfa_offset 8
	pop	edi
LCFI78:
	.cfi_restore 7
	.cfi_def_cfa_offset 4
	ret
LVL199:
	.p2align 2,,3
L201:
LCFI79:
	.cfi_restore_state
	.loc 1 773 0
	mov	DWORD PTR [esp+8], OFFSET FLAT:LC28
	mov	DWORD PTR [esp+4], OFFSET FLAT:___PRETTY_FUNCTION__.51064
	mov	DWORD PTR [esp], 0
	call	_g_return_if_fail_warning
LVL200:
	xor	eax, eax
	jmp	L189
LVL201:
	.p2align 2,,3
L202:
	.loc 1 774 0
	mov	DWORD PTR [esp+8], OFFSET FLAT:LC8
	mov	DWORD PTR [esp+4], OFFSET FLAT:___PRETTY_FUNCTION__.51064
	mov	DWORD PTR [esp], 0
	call	_g_return_if_fail_warning
LVL202:
	xor	eax, eax
	jmp	L189
LVL203:
	.p2align 2,,3
L203:
	.loc 1 777 0
	mov	esi, DWORD PTR [eax+4]
LVL204:
LBB42:
	.loc 1 778 0
	test	esi, esi
	je	L205
LVL205:
LBE42:
	.loc 1 780 0
	mov	DWORD PTR [esp+8], ebx
	mov	DWORD PTR [esp+4], OFFSET FLAT:LC29
	mov	DWORD PTR [esp], OFFSET FLAT:LC13
	call	_purple_debug_info
LVL206:
	.loc 1 784 0
	mov	DWORD PTR [esp+4], 0
	mov	DWORD PTR [esp], 0
	call	_NSS_Get_SEC_SignedCertificateTemplate
LVL207:
	mov	DWORD PTR [esp+12], eax
	mov	DWORD PTR [esp+8], esi
	mov	DWORD PTR [esp+4], 0
	mov	DWORD PTR [esp], 0
	call	_SEC_ASN1EncodeItem
LVL208:
	mov	esi, eax
LVL209:
LBB43:
	.loc 1 786 0
	test	eax, eax
	je	L206
LVL210:
LBE43:
	.loc 1 789 0
	mov	DWORD PTR [esp+12], eax
	mov	DWORD PTR [esp+8], 0
	mov	DWORD PTR [esp+4], 0
	mov	DWORD PTR [esp], 0
	call	_NSSBase64_EncodeItem
LVL211:
	mov	edi, eax
LVL212:
	.loc 1 790 0
	mov	DWORD PTR [esp+4], 1
	mov	DWORD PTR [esp], esi
	call	_SECITEM_FreeItem
LVL213:
LBB44:
	.loc 1 791 0
	test	edi, edi
	je	L207
LVL214:
LBE44:
	.loc 1 794 0
	mov	DWORD PTR [esp+4], edi
	mov	DWORD PTR [esp], OFFSET FLAT:LC32
	call	_g_strdup_printf
LVL215:
	mov	esi, eax
LVL216:
	.loc 1 795 0
	mov	DWORD PTR [esp], edi
	call	_PORT_Free
LVL217:
	.loc 1 799 0
	mov	DWORD PTR [esp+8], -1
	mov	DWORD PTR [esp+4], esi
	mov	DWORD PTR [esp], ebx
	call	_purple_util_write_data_to_file_absolute
LVL218:
	.loc 1 801 0
	mov	DWORD PTR [esp], esi
	mov	DWORD PTR [esp+28], eax
	call	_g_free
LVL219:
	.loc 1 803 0
	mov	eax, DWORD PTR [esp+28]
	jmp	L189
LVL220:
	.p2align 2,,3
L205:
	.loc 1 778 0
	mov	DWORD PTR [esp+8], OFFSET FLAT:LC11
	mov	DWORD PTR [esp+4], OFFSET FLAT:___PRETTY_FUNCTION__.51064
	mov	DWORD PTR [esp], 0
	call	_g_return_if_fail_warning
LVL221:
	xor	eax, eax
	jmp	L189
LVL222:
	.p2align 2,,3
L206:
	.loc 1 786 0
	mov	DWORD PTR [esp+8], OFFSET FLAT:LC30
	mov	DWORD PTR [esp+4], OFFSET FLAT:___PRETTY_FUNCTION__.51064
	mov	DWORD PTR [esp], 0
	call	_g_return_if_fail_warning
LVL223:
	xor	eax, eax
	jmp	L189
LVL224:
	.p2align 2,,3
L207:
	.loc 1 791 0
	mov	DWORD PTR [esp+8], OFFSET FLAT:LC31
	mov	DWORD PTR [esp+4], OFFSET FLAT:___PRETTY_FUNCTION__.51064
	mov	DWORD PTR [esp], 0
	call	_g_return_if_fail_warning
LVL225:
	xor	eax, eax
	jmp	L189
LVL226:
L204:
	.loc 1 804 0
	call	___stack_chk_fail
LVL227:
	.cfi_endproc
LFE113:
	.p2align 2,,3
	.def	_set_errno;	.scl	3;	.type	32;	.endef
_set_errno:
LFB93:
	.loc 1 83 0
	.cfi_startproc
LVL228:
	sub	esp, 28
LCFI80:
	.cfi_def_cfa_offset 32
	.loc 1 83 0
	mov	edx, DWORD PTR ___stack_chk_guard
	mov	DWORD PTR [esp+12], edx
	xor	edx, edx
	.loc 1 85 0
	add	eax, 5998
LVL229:
	cmp	eax, 65
	jbe	L225
L209:
	.loc 1 123 0
	call	__errno
LVL230:
	mov	DWORD PTR [eax], 5
	.p2align 2,,3
L208:
	.loc 1 126 0
	mov	eax, DWORD PTR [esp+12]
	xor	eax, DWORD PTR ___stack_chk_guard
	jne	L226
	add	esp, 28
LCFI81:
	.cfi_remember_state
	.cfi_def_cfa_offset 4
	ret
	.p2align 2,,3
L225:
LCFI82:
	.cfi_restore_state
	.loc 1 85 0
	jmp	[DWORD PTR L221[0+eax*4]]
	.section .rdata,"dr"
	.align 4
L221:
	.long	L210
	.long	L209
	.long	L209
	.long	L209
	.long	L209
	.long	L211
	.long	L209
	.long	L209
	.long	L212
	.long	L210
	.long	L209
	.long	L214
	.long	L209
	.long	L209
	.long	L209
	.long	L209
	.long	L209
	.long	L215
	.long	L216
	.long	L212
	.long	L217
	.long	L209
	.long	L209
	.long	L209
	.long	L209
	.long	L209
	.long	L209
	.long	L209
	.long	L209
	.long	L209
	.long	L209
	.long	L209
	.long	L209
	.long	L209
	.long	L209
	.long	L209
	.long	L209
	.long	L218
	.long	L209
	.long	L209
	.long	L209
	.long	L209
	.long	L209
	.long	L209
	.long	L209
	.long	L209
	.long	L209
	.long	L209
	.long	L209
	.long	L209
	.long	L209
	.long	L209
	.long	L209
	.long	L209
	.long	L209
	.long	L209
	.long	L209
	.long	L209
	.long	L209
	.long	L209
	.long	L209
	.long	L209
	.long	L209
	.long	L209
	.long	L219
	.long	L220
	.text
	.p2align 2,,3
L210:
	.loc 1 96 0
	call	__errno
LVL231:
	mov	DWORD PTR [eax], 11
	.loc 1 98 0
	jmp	L208
	.p2align 2,,3
L211:
	.loc 1 90 0
	call	__errno
LVL232:
	mov	DWORD PTR [eax], 4
	.loc 1 91 0
	jmp	L208
	.p2align 2,,3
L212:
	.loc 1 113 0
	call	__errno
LVL233:
	mov	DWORD PTR [eax], 10060
	.loc 1 114 0
	jmp	L208
	.p2align 2,,3
L220:
	.loc 1 103 0
	call	__errno
LVL234:
	mov	DWORD PTR [eax], 10037
	.loc 1 104 0
	jmp	L208
	.p2align 2,,3
L214:
	.loc 1 87 0
	call	__errno
LVL235:
	mov	DWORD PTR [eax], 22
	.loc 1 88 0
	jmp	L208
	.p2align 2,,3
L215:
	.loc 1 109 0
	call	__errno
LVL236:
	mov	DWORD PTR [eax], 10061
	.loc 1 110 0
	jmp	L208
	.p2align 2,,3
L216:
	.loc 1 106 0
	call	__errno
LVL237:
	mov	DWORD PTR [eax], 10065
	.loc 1 107 0
	jmp	L208
	.p2align 2,,3
L217:
	.loc 1 116 0
	call	__errno
LVL238:
	mov	DWORD PTR [eax], 10057
	.loc 1 117 0
	jmp	L208
	.p2align 2,,3
L218:
	.loc 1 119 0
	call	__errno
LVL239:
	mov	DWORD PTR [eax], 10054
	.loc 1 120 0
	jmp	L208
	.p2align 2,,3
L219:
	.loc 1 100 0
	call	__errno
LVL240:
	mov	DWORD PTR [eax], 10036
	.loc 1 101 0
	jmp	L208
L226:
	.loc 1 126 0
	call	___stack_chk_fail
LVL241:
	.cfi_endproc
LFE93:
	.p2align 2,,3
	.def	_ssl_nss_write;	.scl	3;	.type	32;	.endef
_ssl_nss_write:
LFB109:
	.loc 1 606 0
	.cfi_startproc
LVL242:
	push	ebx
LCFI83:
	.cfi_def_cfa_offset 8
	.cfi_offset 3, -8
	sub	esp, 40
LCFI84:
	.cfi_def_cfa_offset 48
	mov	edx, DWORD PTR [esp+52]
	mov	ecx, DWORD PTR [esp+56]
	.loc 1 606 0
	mov	eax, DWORD PTR ___stack_chk_guard
	mov	DWORD PTR [esp+28], eax
	xor	eax, eax
	.loc 1 608 0
	mov	eax, DWORD PTR [esp+48]
	mov	eax, DWORD PTR [eax+40]
LVL243:
	.loc 1 610 0
	test	eax, eax
	je	L231
	.loc 1 613 0
	mov	DWORD PTR [esp+8], ecx
	mov	DWORD PTR [esp+4], edx
	mov	eax, DWORD PTR [eax+4]
LVL244:
	mov	DWORD PTR [esp], eax
	call	[DWORD PTR __imp__PR_Write]
LVL245:
	mov	ebx, eax
LVL246:
	.loc 1 615 0
	cmp	eax, -1
	je	L233
LVL247:
L229:
	.loc 1 618 0
	mov	eax, ebx
LVL248:
L228:
	.loc 1 619 0
	mov	edx, DWORD PTR [esp+28]
	xor	edx, DWORD PTR ___stack_chk_guard
	jne	L234
	add	esp, 40
LCFI85:
	.cfi_remember_state
	.cfi_def_cfa_offset 8
	pop	ebx
LCFI86:
	.cfi_restore 3
	.cfi_def_cfa_offset 4
	ret
LVL249:
	.p2align 2,,3
L231:
LCFI87:
	.cfi_restore_state
	.loc 1 611 0
	xor	eax, eax
LVL250:
	jmp	L228
LVL251:
	.p2align 2,,3
L233:
	.loc 1 616 0
	call	[DWORD PTR __imp__PR_GetError]
LVL252:
	call	_set_errno
LVL253:
	jmp	L229
LVL254:
L234:
	.loc 1 619 0
	call	___stack_chk_fail
LVL255:
	.cfi_endproc
LFE109:
	.p2align 2,,3
	.def	_ssl_nss_read;	.scl	3;	.type	32;	.endef
_ssl_nss_read:
LFB108:
	.loc 1 592 0
	.cfi_startproc
LVL256:
	push	ebx
LCFI88:
	.cfi_def_cfa_offset 8
	.cfi_offset 3, -8
	sub	esp, 40
LCFI89:
	.cfi_def_cfa_offset 48
	.loc 1 592 0
	mov	eax, DWORD PTR ___stack_chk_guard
	mov	DWORD PTR [esp+28], eax
	xor	eax, eax
LVL257:
	.loc 1 596 0
	mov	eax, DWORD PTR [esp+56]
	mov	DWORD PTR [esp+8], eax
	mov	eax, DWORD PTR [esp+52]
	mov	DWORD PTR [esp+4], eax
	mov	eax, DWORD PTR [esp+48]
	mov	eax, DWORD PTR [eax+40]
	mov	eax, DWORD PTR [eax+4]
	mov	DWORD PTR [esp], eax
	call	[DWORD PTR __imp__PR_Read]
LVL258:
	mov	ebx, eax
LVL259:
	.loc 1 598 0
	cmp	eax, -1
	je	L239
LVL260:
L236:
	.loc 1 602 0
	mov	eax, ebx
	mov	edx, DWORD PTR [esp+28]
	xor	edx, DWORD PTR ___stack_chk_guard
	jne	L240
LVL261:
	add	esp, 40
LCFI90:
	.cfi_remember_state
	.cfi_def_cfa_offset 8
	pop	ebx
LCFI91:
	.cfi_restore 3
	.cfi_def_cfa_offset 4
	ret
	.p2align 2,,3
L239:
LCFI92:
	.cfi_restore_state
	.loc 1 599 0
	call	[DWORD PTR __imp__PR_GetError]
LVL262:
	call	_set_errno
LVL263:
	jmp	L236
LVL264:
L240:
	.loc 1 602 0
	call	___stack_chk_fail
LVL265:
	.cfi_endproc
LFE108:
	.p2align 2,,3
	.def	_ssl_nss_close;	.scl	3;	.type	32;	.endef
_ssl_nss_close:
LFB107:
	.loc 1 566 0
	.cfi_startproc
LVL266:
	push	esi
LCFI93:
	.cfi_def_cfa_offset 8
	.cfi_offset 6, -8
	push	ebx
LCFI94:
	.cfi_def_cfa_offset 12
	.cfi_offset 3, -12
	sub	esp, 36
LCFI95:
	.cfi_def_cfa_offset 48
	mov	esi, DWORD PTR [esp+48]
	.loc 1 566 0
	mov	eax, DWORD PTR ___stack_chk_guard
	mov	DWORD PTR [esp+28], eax
	xor	eax, eax
	.loc 1 567 0
	mov	ebx, DWORD PTR [esi+40]
LVL267:
	.loc 1 569 0
	test	ebx, ebx
	je	L241
	.loc 1 572 0
	mov	eax, DWORD PTR [ebx+4]
	test	eax, eax
	je	L243
L261:
	.loc 1 576 0
	mov	DWORD PTR [esp], eax
	call	[DWORD PTR __imp__PR_Close]
LVL268:
	.loc 1 577 0
	mov	DWORD PTR [esi+28], -1
L244:
	.loc 1 580 0
	mov	eax, DWORD PTR [ebx+8]
	test	eax, eax
	jne	L262
L245:
	.loc 1 583 0
	mov	eax, DWORD PTR [ebx+12]
	test	eax, eax
	jne	L263
L246:
	.loc 1 586 0
	mov	DWORD PTR [esp], ebx
	call	_g_free
LVL269:
	.loc 1 587 0
	mov	DWORD PTR [esi+40], 0
L241:
	.loc 1 588 0
	mov	eax, DWORD PTR [esp+28]
	xor	eax, DWORD PTR ___stack_chk_guard
	jne	L264
	add	esp, 36
LCFI96:
	.cfi_remember_state
	.cfi_def_cfa_offset 12
	pop	ebx
LCFI97:
	.cfi_restore 3
	.cfi_def_cfa_offset 8
LVL270:
	pop	esi
LCFI98:
	.cfi_restore 6
	.cfi_def_cfa_offset 4
	ret
LVL271:
	.p2align 2,,3
L243:
LCFI99:
	.cfi_restore_state
	.loc 1 575 0
	mov	eax, DWORD PTR [ebx]
	test	eax, eax
	jne	L261
	jmp	L244
	.p2align 2,,3
L263:
	.loc 1 584 0
	mov	DWORD PTR [esp], eax
	call	_purple_timeout_remove
LVL272:
	jmp	L246
	.p2align 2,,3
L262:
	.loc 1 581 0
	mov	DWORD PTR [esp], eax
	call	_purple_input_remove
LVL273:
	jmp	L245
L264:
	.loc 1 588 0
	call	___stack_chk_fail
LVL274:
	.cfi_endproc
LFE107:
	.p2align 2,,3
	.def	_get_error_text;	.scl	3;	.type	32;	.endef
_get_error_text:
LFB94:
	.loc 1 129 0
	.cfi_startproc
	push	ebx
LCFI100:
	.cfi_def_cfa_offset 8
	.cfi_offset 3, -8
	sub	esp, 40
LCFI101:
	.cfi_def_cfa_offset 48
	.loc 1 129 0
	mov	eax, DWORD PTR ___stack_chk_guard
	mov	DWORD PTR [esp+28], eax
	xor	eax, eax
	.loc 1 130 0
	call	[DWORD PTR __imp__PR_GetErrorTextLength]
LVL275:
	.loc 1 133 0
	test	eax, eax
	jle	L268
	.loc 1 134 0
	inc	eax
LVL276:
	mov	DWORD PTR [esp], eax
	call	_g_malloc
LVL277:
	mov	ebx, eax
LVL278:
	.loc 1 135 0
	mov	DWORD PTR [esp], eax
	call	[DWORD PTR __imp__PR_GetErrorText]
LVL279:
	.loc 1 136 0
	mov	BYTE PTR [ebx+eax], 0
LVL280:
L266:
	.loc 1 140 0
	mov	eax, ebx
LVL281:
	mov	edx, DWORD PTR [esp+28]
	xor	edx, DWORD PTR ___stack_chk_guard
	jne	L270
	add	esp, 40
LCFI102:
	.cfi_remember_state
	.cfi_def_cfa_offset 8
	pop	ebx
LCFI103:
	.cfi_restore 3
	.cfi_def_cfa_offset 4
LVL282:
	ret
LVL283:
	.p2align 2,,3
L268:
LCFI104:
	.cfi_restore_state
	.loc 1 131 0
	xor	ebx, ebx
	jmp	L266
LVL284:
L270:
	.loc 1 140 0
	call	___stack_chk_fail
LVL285:
	.cfi_endproc
LFE94:
	.section .rdata,"dr"
LC33:
	.ascii "nss_data->fd == NULL!\12\0"
	.align 4
LC34:
	.ascii "unable to set socket into non-blocking mode: %s (%d)\12\0"
LC35:
	.ascii "nss_data->in == NUL!\12\0"
	.text
	.p2align 2,,3
	.def	_ssl_nss_connect;	.scl	3;	.type	32;	.endef
_ssl_nss_connect:
LFB106:
	.loc 1 496 0
	.cfi_startproc
LVL286:
	push	edi
LCFI105:
	.cfi_def_cfa_offset 8
	.cfi_offset 7, -8
	push	esi
LCFI106:
	.cfi_def_cfa_offset 12
	.cfi_offset 6, -12
	push	ebx
LCFI107:
	.cfi_def_cfa_offset 16
	.cfi_offset 3, -16
	sub	esp, 96
LCFI108:
	.cfi_def_cfa_offset 112
	mov	esi, DWORD PTR [esp+112]
	.loc 1 496 0
	mov	eax, DWORD PTR ___stack_chk_guard
	mov	DWORD PTR [esp+92], eax
	xor	eax, eax
	.loc 1 497 0
	mov	DWORD PTR [esp], 16
	call	_g_malloc0
LVL287:
	mov	ebx, eax
LVL288:
	.loc 1 500 0
	mov	DWORD PTR [esi+40], eax
	.loc 1 502 0
	mov	eax, DWORD PTR [esi+28]
LVL289:
	mov	DWORD PTR [esp], eax
	call	[DWORD PTR __imp__PR_ImportTCPSocket]
LVL290:
	mov	DWORD PTR [ebx], eax
	.loc 1 504 0
	test	eax, eax
	je	L297
	.loc 1 516 0
	mov	DWORD PTR [esp+16], 0
	.loc 1 517 0
	mov	DWORD PTR [esp+24], 1
	.loc 1 519 0
	lea	edx, [esp+16]
	mov	DWORD PTR [esp+4], edx
	mov	DWORD PTR [esp], eax
	call	[DWORD PTR __imp__PR_SetSocketOption]
LVL291:
	test	eax, eax
	jne	L298
L276:
	.loc 1 525 0
	mov	eax, DWORD PTR [ebx]
	mov	DWORD PTR [esp+4], eax
	mov	DWORD PTR [esp], 0
	call	[DWORD PTR __imp__SSL_ImportFD]
LVL292:
	mov	DWORD PTR [ebx+4], eax
	.loc 1 527 0
	test	eax, eax
	je	L299
	.loc 1 539 0
	mov	DWORD PTR [esp+8], 1
	mov	DWORD PTR [esp+4], 1
	mov	DWORD PTR [esp], eax
	mov	edi, DWORD PTR __imp__SSL_OptionSet
	call	edi
LVL293:
	.loc 1 540 0
	mov	DWORD PTR [esp+8], 1
	mov	DWORD PTR [esp+4], 5
	mov	eax, DWORD PTR [ebx+4]
	mov	DWORD PTR [esp], eax
	call	edi
LVL294:
	.loc 1 544 0
	mov	eax, DWORD PTR [esi+44]
	test	eax, eax
	je	L280
	.loc 1 545 0
	mov	DWORD PTR [esp+8], 0
	mov	DWORD PTR [esp+4], OFFSET FLAT:_ssl_auth_cert
	mov	eax, DWORD PTR [ebx+4]
	mov	DWORD PTR [esp], eax
	call	[DWORD PTR __imp__SSL_AuthCertificateHook]
LVL295:
L280:
	.loc 1 547 0
	mov	eax, DWORD PTR [esi]
	test	eax, eax
	je	L281
	.loc 1 548 0
	mov	DWORD PTR [esp+4], eax
	mov	eax, DWORD PTR [ebx+4]
	mov	DWORD PTR [esp], eax
	call	[DWORD PTR __imp__SSL_SetURL]
LVL296:
L281:
	.loc 1 556 0
	mov	DWORD PTR [esp+4], 0
	mov	eax, DWORD PTR [ebx+4]
	mov	DWORD PTR [esp], eax
	call	[DWORD PTR __imp__SSL_ResetHandshake]
LVL297:
	.loc 1 558 0
	mov	DWORD PTR [esp+12], esi
	mov	DWORD PTR [esp+8], OFFSET FLAT:_ssl_nss_handshake_cb
	mov	DWORD PTR [esp+4], 1
	mov	eax, DWORD PTR [esi+28]
	mov	DWORD PTR [esp], eax
	call	_purple_input_add
LVL298:
	mov	DWORD PTR [ebx+8], eax
	.loc 1 561 0
	mov	DWORD PTR [esp+8], esi
	mov	DWORD PTR [esp+4], OFFSET FLAT:_start_handshake_cb
	mov	DWORD PTR [esp], 0
	call	_purple_timeout_add
LVL299:
	mov	DWORD PTR [ebx+12], eax
L271:
	.loc 1 562 0
	mov	eax, DWORD PTR [esp+92]
	xor	eax, DWORD PTR ___stack_chk_guard
	jne	L300
	add	esp, 96
LCFI109:
	.cfi_remember_state
	.cfi_def_cfa_offset 16
	pop	ebx
LCFI110:
	.cfi_restore 3
	.cfi_def_cfa_offset 12
LVL300:
	pop	esi
LCFI111:
	.cfi_restore 6
	.cfi_def_cfa_offset 8
	pop	edi
LCFI112:
	.cfi_restore 7
	.cfi_def_cfa_offset 4
	ret
LVL301:
	.p2align 2,,3
L298:
LCFI113:
	.cfi_restore_state
LBB45:
	.loc 1 520 0
	call	_get_error_text
LVL302:
	mov	edi, eax
LVL303:
	.loc 1 521 0
	call	[DWORD PTR __imp__PR_GetError]
LVL304:
	test	edi, edi
	je	L301
	mov	edx, edi
L277:
	.loc 1 521 0 is_stmt 0 discriminator 3
	mov	DWORD PTR [esp+12], eax
	mov	DWORD PTR [esp+8], edx
	mov	DWORD PTR [esp+4], OFFSET FLAT:LC34
	mov	DWORD PTR [esp], OFFSET FLAT:LC3
	call	_purple_debug_warning
LVL305:
	.loc 1 522 0 is_stmt 1 discriminator 3
	mov	DWORD PTR [esp], edi
	call	_g_free
LVL306:
	jmp	L276
LVL307:
	.p2align 2,,3
L297:
LBE45:
	.loc 1 506 0
	mov	DWORD PTR [esp+4], OFFSET FLAT:LC33
L296:
	mov	DWORD PTR [esp], OFFSET FLAT:LC3
	call	_purple_debug_error
LVL308:
	.loc 1 508 0
	mov	eax, DWORD PTR [esi+16]
	test	eax, eax
	je	L274
	.loc 1 509 0
	mov	edx, DWORD PTR [esi+8]
	mov	DWORD PTR [esp+8], edx
	mov	DWORD PTR [esp+4], 2
	mov	DWORD PTR [esp], esi
	call	eax
LVL309:
L274:
	.loc 1 511 0
	mov	DWORD PTR [esp], esi
	call	_purple_ssl_close
LVL310:
	jmp	L271
	.p2align 2,,3
L299:
	.loc 1 529 0
	mov	DWORD PTR [esp+4], OFFSET FLAT:LC35
	jmp	L296
LVL311:
	.p2align 2,,3
L301:
LBB46:
	.loc 1 521 0
	mov	edx, OFFSET FLAT:LC1
	jmp	L277
LVL312:
L300:
LBE46:
	.loc 1 562 0
	call	___stack_chk_fail
LVL313:
	.cfi_endproc
LFE106:
	.p2align 2,,3
	.def	_ssl_nss_uninit;	.scl	3;	.type	32;	.endef
_ssl_nss_uninit:
LFB99:
	.loc 1 302 0
	.cfi_startproc
	sub	esp, 28
LCFI114:
	.cfi_def_cfa_offset 32
	.loc 1 302 0
	mov	eax, DWORD PTR ___stack_chk_guard
	mov	DWORD PTR [esp+12], eax
	xor	eax, eax
	.loc 1 303 0
	call	_NSS_Shutdown
LVL314:
	.loc 1 304 0
	call	[DWORD PTR __imp__PR_Cleanup]
LVL315:
	.loc 1 306 0
	mov	DWORD PTR __nss_methods, 0
	.loc 1 307 0
	mov	eax, DWORD PTR [esp+12]
	xor	eax, DWORD PTR ___stack_chk_guard
	jne	L305
	add	esp, 28
LCFI115:
	.cfi_remember_state
	.cfi_def_cfa_offset 4
	ret
L305:
LCFI116:
	.cfi_restore_state
	call	___stack_chk_fail
LVL316:
	.cfi_endproc
LFE99:
	.section .rdata,"dr"
LC36:
	.ascii "Enabled\0"
LC37:
	.ascii "Disabled\0"
LC38:
	.ascii ".\0"
	.align 4
LC39:
	.ascii "SSL_CipherPrefGetDefault didn't like value 0x%04x: %s\12\0"
	.align 4
LC40:
	.ascii "SSL_GetCipherSuiteInfo didn't like value 0x%04x: %s\12\0"
LC41:
	.ascii "Cipher - %s: %s\12\0"
	.align 4
LC42:
	.ascii "TLS supported versions: 0x%04hx through 0x%04hx\12\0"
	.align 4
LC43:
	.ascii "TLS versions allowed by default: 0x%04hx through 0x%04hx\12\0"
	.align 4
LC44:
	.ascii "Changed allowed TLS versions to 0x%04hx through 0x%04hx\12\0"
	.align 4
LC45:
	.ascii "Error setting allowed TLS versions to 0x%04hx through 0x%04hx\12\0"
LC46:
	.ascii "Purple\0"
	.text
	.p2align 2,,3
	.def	_plugin_load;	.scl	3;	.type	32;	.endef
_plugin_load:
LFB125:
	.loc 1 1236 0
	.cfi_startproc
LVL317:
	push	ebp
LCFI117:
	.cfi_def_cfa_offset 8
	.cfi_offset 5, -8
	push	edi
LCFI118:
	.cfi_def_cfa_offset 12
	.cfi_offset 7, -12
	push	esi
LCFI119:
	.cfi_def_cfa_offset 16
	.cfi_offset 6, -16
	push	ebx
LCFI120:
	.cfi_def_cfa_offset 20
	.cfi_offset 3, -20
	sub	esp, 124
LCFI121:
	.cfi_def_cfa_offset 144
	.loc 1 1236 0
	mov	eax, DWORD PTR ___stack_chk_guard
	mov	DWORD PTR [esp+108], eax
	xor	eax, eax
	.loc 1 1237 0
	call	_purple_ssl_get_ops
LVL318:
	test	eax, eax
	je	L334
L307:
LBB54:
LBB55:
	.loc 1 233 0
	mov	DWORD PTR [esp+8], 1
	mov	DWORD PTR [esp+4], 1
	mov	DWORD PTR [esp], 1
	call	[DWORD PTR __imp__PR_Init]
LVL319:
	.loc 1 234 0
	mov	DWORD PTR [esp], OFFSET FLAT:LC38
	call	_NSS_NoDB_Init
LVL320:
LBB56:
LBB57:
	.loc 1 186 0
	mov	edi, DWORD PTR __imp__SSL_GetImplementedCiphers
	call	edi
LVL321:
	mov	ebx, eax
LVL322:
	movzx	eax, WORD PTR [eax]
LVL323:
	mov	esi, DWORD PTR __imp__SSL_CipherPrefSetDefault
	test	ax, ax
	je	L311
	.p2align 2,,3
L328:
	.loc 1 187 0
	mov	DWORD PTR [esp+4], 0
	mov	DWORD PTR [esp], eax
	call	esi
LVL324:
	.loc 1 186 0
	add	ebx, 2
LVL325:
	movzx	eax, WORD PTR [ebx]
	test	ax, ax
	jne	L328
L311:
LBE57:
LBE56:
LBE55:
LBE54:
	.loc 1 1236 0
	mov	ebx, OFFSET FLAT:_default_ciphers
LVL326:
	mov	eax, 49191
	.p2align 2,,3
L309:
LBB71:
LBB68:
LBB66:
LBB64:
	.loc 1 192 0
	mov	DWORD PTR [esp+4], 1
	mov	DWORD PTR [esp], eax
	call	esi
LVL327:
	.loc 1 191 0
	add	ebx, 2
LVL328:
	movzx	eax, WORD PTR [ebx]
	test	ax, ax
	jne	L309
	.loc 1 196 0
	call	edi
LVL329:
	mov	ebx, eax
LVL330:
	movzx	esi, WORD PTR [eax]
	test	si, si
	je	L321
	lea	ebp, [esp+40]
	mov	edi, DWORD PTR __imp__SSL_CipherPrefGetDefault
	jmp	L320
LVL331:
	.p2align 2,,3
L335:
LBB58:
LBB59:
	.loc 1 204 0
	call	_get_error_text
LVL332:
	.loc 1 205 0
	mov	DWORD PTR [esp+12], eax
	mov	DWORD PTR [esp+8], esi
	mov	DWORD PTR [esp+4], OFFSET FLAT:LC39
LVL333:
L333:
LBE59:
LBB60:
	.loc 1 214 0
	mov	DWORD PTR [esp], OFFSET FLAT:LC3
	mov	DWORD PTR [esp+28], eax
	call	_purple_debug_warning
LVL334:
	.loc 1 217 0
	mov	eax, DWORD PTR [esp+28]
	mov	DWORD PTR [esp], eax
	call	_g_free
LVL335:
LBE60:
LBE58:
	.loc 1 196 0
	add	ebx, 2
LVL336:
	movzx	esi, WORD PTR [ebx]
LVL337:
	test	si, si
	je	L321
L320:
LVL338:
LBB62:
	.loc 1 202 0
	mov	DWORD PTR [esp+4], ebp
	mov	DWORD PTR [esp], esi
	call	edi
LVL339:
	.loc 1 203 0
	test	eax, eax
	jne	L335
	.loc 1 211 0
	mov	DWORD PTR [esp+8], 56
	lea	edx, [esp+52]
	mov	DWORD PTR [esp+4], edx
	mov	DWORD PTR [esp], esi
	mov	edx, DWORD PTR __imp__SSL_GetCipherSuiteInfo
	call	edx
LVL340:
	.loc 1 212 0
	test	eax, eax
	jne	L336
	.loc 1 220 0
	mov	eax, DWORD PTR [esp+40]
LVL341:
	test	eax, eax
	je	L325
	mov	eax, OFFSET FLAT:LC36
L318:
	mov	DWORD PTR [esp+12], eax
	mov	eax, DWORD PTR [esp+56]
	mov	DWORD PTR [esp+8], eax
	mov	DWORD PTR [esp+4], OFFSET FLAT:LC41
	mov	DWORD PTR [esp], OFFSET FLAT:LC3
	call	_purple_debug_info
LVL342:
LBE62:
	.loc 1 196 0
	add	ebx, 2
LVL343:
	movzx	esi, WORD PTR [ebx]
LVL344:
	test	si, si
	jne	L320
L321:
LBE64:
LBE66:
	.loc 1 243 0
	lea	eax, [esp+44]
	mov	DWORD PTR [esp+4], eax
	mov	DWORD PTR [esp], 0
	call	[DWORD PTR __imp__SSL_VersionRangeGetSupported]
LVL345:
	test	eax, eax
	je	L337
LVL346:
L322:
	.loc 1 267 0
	mov	DWORD PTR [esp], 0
	call	_CERT_EnableOCSPChecking
LVL347:
	.loc 1 269 0
	mov	DWORD PTR [esp], OFFSET FLAT:LC46
	call	[DWORD PTR __imp__PR_GetUniqueIdentity]
LVL348:
	mov	DWORD PTR __identity, eax
	.loc 1 270 0
	call	[DWORD PTR __imp__PR_GetDefaultIOMethods]
LVL349:
	mov	DWORD PTR __nss_methods, eax
LBE68:
LBE71:
	.loc 1 1245 0
	mov	DWORD PTR [esp], OFFSET FLAT:_x509_nss
	call	_purple_certificate_register_scheme
LVL350:
	.loc 1 1248 0
	mov	eax, 1
	mov	edx, DWORD PTR [esp+108]
	xor	edx, DWORD PTR ___stack_chk_guard
	jne	L338
	add	esp, 124
LCFI122:
	.cfi_remember_state
	.cfi_def_cfa_offset 20
	pop	ebx
LCFI123:
	.cfi_restore 3
	.cfi_def_cfa_offset 16
	pop	esi
LCFI124:
	.cfi_restore 6
	.cfi_def_cfa_offset 12
	pop	edi
LCFI125:
	.cfi_restore 7
	.cfi_def_cfa_offset 8
	pop	ebp
LCFI126:
	.cfi_restore 5
	.cfi_def_cfa_offset 4
	ret
LVL351:
	.p2align 2,,3
L325:
LCFI127:
	.cfi_restore_state
LBB72:
LBB69:
LBB67:
LBB65:
LBB63:
	.loc 1 220 0
	mov	eax, OFFSET FLAT:LC37
	jmp	L318
LVL352:
	.p2align 2,,3
L336:
LBB61:
	.loc 1 213 0
	call	_get_error_text
LVL353:
	.loc 1 214 0
	mov	DWORD PTR [esp+12], eax
	mov	DWORD PTR [esp+8], esi
	mov	DWORD PTR [esp+4], OFFSET FLAT:LC40
	jmp	L333
LVL354:
	.p2align 2,,3
L337:
LBE61:
LBE63:
LBE65:
LBE67:
	.loc 1 244 0
	lea	ebx, [esp+48]
LVL355:
	mov	DWORD PTR [esp+4], ebx
	mov	DWORD PTR [esp], 0
	call	[DWORD PTR __imp__SSL_VersionRangeGetDefault]
LVL356:
	.loc 1 243 0
	test	eax, eax
	jne	L322
	.loc 1 245 0
	movzx	eax, WORD PTR [esp+46]
	mov	DWORD PTR [esp+12], eax
	movzx	eax, WORD PTR [esp+44]
	mov	DWORD PTR [esp+8], eax
	mov	DWORD PTR [esp+4], OFFSET FLAT:LC42
	mov	DWORD PTR [esp], OFFSET FLAT:LC3
	call	_purple_debug_info
LVL357:
	.loc 1 247 0
	movzx	eax, WORD PTR [esp+50]
	mov	DWORD PTR [esp+12], eax
	movzx	eax, WORD PTR [esp+48]
	mov	DWORD PTR [esp+8], eax
	mov	DWORD PTR [esp+4], OFFSET FLAT:LC43
	mov	DWORD PTR [esp], OFFSET FLAT:LC3
	call	_purple_debug_info
LVL358:
	.loc 1 253 0
	mov	ax, WORD PTR [esp+46]
	cmp	ax, WORD PTR [esp+50]
	jbe	L322
	.loc 1 254 0
	mov	WORD PTR [esp+50], ax
	.loc 1 255 0
	mov	DWORD PTR [esp+4], ebx
	mov	DWORD PTR [esp], 0
	call	[DWORD PTR __imp__SSL_VersionRangeSetDefault]
LVL359:
	test	eax, eax
	.loc 1 256 0
	movzx	eax, WORD PTR [esp+50]
	mov	DWORD PTR [esp+12], eax
	movzx	eax, WORD PTR [esp+48]
	mov	DWORD PTR [esp+8], eax
	.loc 1 255 0
	je	L339
	.loc 1 259 0
	mov	DWORD PTR [esp+4], OFFSET FLAT:LC45
	mov	DWORD PTR [esp], OFFSET FLAT:LC3
	call	_purple_debug_error
LVL360:
	jmp	L322
LVL361:
L334:
LBE69:
LBE72:
	.loc 1 1238 0
	mov	DWORD PTR [esp], OFFSET FLAT:_ssl_ops
	call	_purple_ssl_set_ops
LVL362:
	jmp	L307
LVL363:
L339:
LBB73:
LBB70:
	.loc 1 256 0
	mov	DWORD PTR [esp+4], OFFSET FLAT:LC44
	mov	DWORD PTR [esp], OFFSET FLAT:LC3
	call	_purple_debug_info
LVL364:
	jmp	L322
L338:
LBE70:
LBE73:
	.loc 1 1248 0
	call	___stack_chk_fail
LVL365:
	.cfi_endproc
LFE125:
	.section .rdata,"dr"
	.align 4
LC47:
	.ascii "x509_check_name fell through where it shouldn't have.\12\0"
	.text
	.p2align 2,,3
	.def	_x509_check_name;	.scl	3;	.type	32;	.endef
_x509_check_name:
LFB121:
	.loc 1 982 0
	.cfi_startproc
LVL366:
	sub	esp, 44
LCFI128:
	.cfi_def_cfa_offset 48
	mov	eax, DWORD PTR [esp+48]
	mov	edx, DWORD PTR [esp+52]
	.loc 1 982 0
	mov	ecx, DWORD PTR ___stack_chk_guard
	mov	DWORD PTR [esp+28], ecx
	xor	ecx, ecx
LBB82:
	.loc 1 986 0
	test	eax, eax
	je	L355
LVL367:
LBE82:
LBB83:
	.loc 1 987 0
	cmp	DWORD PTR [eax], OFFSET FLAT:_x509_nss
	je	L344
LVL368:
LBE83:
	mov	DWORD PTR [esp+8], OFFSET FLAT:LC9
	mov	DWORD PTR [esp+4], OFFSET FLAT:___PRETTY_FUNCTION__.51168
	mov	DWORD PTR [esp], 0
	call	_g_return_if_fail_warning
LVL369:
	xor	eax, eax
LVL370:
L343:
	.loc 1 1006 0
	mov	edx, DWORD PTR [esp+28]
	xor	edx, DWORD PTR ___stack_chk_guard
	jne	L356
	add	esp, 44
LCFI129:
	.cfi_remember_state
	.cfi_def_cfa_offset 4
	ret
	.p2align 2,,3
L355:
LCFI130:
	.cfi_restore_state
LVL371:
	.loc 1 986 0
	mov	DWORD PTR [esp+8], OFFSET FLAT:LC8
	mov	DWORD PTR [esp+4], OFFSET FLAT:___PRETTY_FUNCTION__.51168
	mov	DWORD PTR [esp], 0
	call	_g_return_if_fail_warning
LVL372:
L354:
	xor	eax, eax
	jmp	L343
LVL373:
	.p2align 2,,3
L344:
	.loc 1 989 0
	mov	eax, DWORD PTR [eax+4]
LVL374:
LBB84:
	.loc 1 990 0
	test	eax, eax
	je	L345
LVL375:
LBE84:
	.loc 1 992 0
	mov	DWORD PTR [esp+4], edx
	mov	DWORD PTR [esp], eax
	call	_CERT_VerifyCertName
LVL376:
	.loc 1 994 0
	test	eax, eax
	je	L357
	.loc 1 997 0
	inc	eax
LVL377:
	je	L354
	.loc 1 1002 0
	mov	DWORD PTR [esp+4], OFFSET FLAT:LC47
	mov	DWORD PTR [esp], OFFSET FLAT:LC13
	call	_purple_debug_error
LVL378:
	.loc 1 1005 0
	xor	eax, eax
	jmp	L343
LVL379:
	.p2align 2,,3
L357:
	.loc 1 995 0
	mov	eax, 1
LVL380:
	jmp	L343
LVL381:
	.p2align 2,,3
L345:
LBB85:
LBB86:
	.loc 1 990 0
	mov	DWORD PTR [esp+8], OFFSET FLAT:LC11
	mov	DWORD PTR [esp+4], OFFSET FLAT:___PRETTY_FUNCTION__.51168
	mov	DWORD PTR [esp], 0
	call	_g_return_if_fail_warning
LVL382:
	xor	eax, eax
	jmp	L343
LVL383:
L356:
LBE86:
LBE85:
	.loc 1 1006 0
	call	___stack_chk_fail
LVL384:
	.cfi_endproc
LFE121:
	.p2align 2,,3
	.def	_x509_destroy_certificate;	.scl	3;	.type	32;	.endef
_x509_destroy_certificate:
LFB115:
	.loc 1 837 0
	.cfi_startproc
LVL385:
	push	ebx
LCFI131:
	.cfi_def_cfa_offset 8
	.cfi_offset 3, -8
	sub	esp, 40
LCFI132:
	.cfi_def_cfa_offset 48
	mov	ebx, DWORD PTR [esp+48]
	.loc 1 837 0
	mov	eax, DWORD PTR ___stack_chk_guard
	mov	DWORD PTR [esp+28], eax
	xor	eax, eax
LBB95:
	.loc 1 840 0
	test	ebx, ebx
	je	L369
LVL386:
LBE95:
LBB96:
	.loc 1 841 0
	cmp	DWORD PTR [ebx], OFFSET FLAT:_x509_nss
	je	L362
LVL387:
LBE96:
	mov	DWORD PTR [esp+8], OFFSET FLAT:LC9
	mov	DWORD PTR [esp+4], OFFSET FLAT:___PRETTY_FUNCTION__.51093
	mov	DWORD PTR [esp], 0
	call	_g_return_if_fail_warning
LVL388:
L361:
	.loc 1 852 0
	mov	eax, DWORD PTR [esp+28]
	xor	eax, DWORD PTR ___stack_chk_guard
	jne	L367
	add	esp, 40
LCFI133:
	.cfi_remember_state
	.cfi_def_cfa_offset 8
	pop	ebx
LCFI134:
	.cfi_restore 3
	.cfi_def_cfa_offset 4
	ret
	.p2align 2,,3
L369:
LCFI135:
	.cfi_restore_state
LVL389:
	.loc 1 840 0
	mov	DWORD PTR [esp+8], OFFSET FLAT:LC8
	mov	DWORD PTR [esp+4], OFFSET FLAT:___PRETTY_FUNCTION__.51093
	mov	DWORD PTR [esp], 0
	call	_g_return_if_fail_warning
LVL390:
	jmp	L361
LVL391:
	.p2align 2,,3
L362:
	.loc 1 843 0
	mov	eax, DWORD PTR [ebx+4]
LVL392:
LBB97:
	.loc 1 844 0
	test	eax, eax
	je	L363
LVL393:
LBE97:
	.loc 1 848 0
	mov	DWORD PTR [esp], eax
	call	_CERT_DestroyCertificate
LVL394:
	.loc 1 851 0
	mov	eax, DWORD PTR [esp+28]
	xor	eax, DWORD PTR ___stack_chk_guard
	jne	L367
	mov	DWORD PTR [esp+48], ebx
	.loc 1 852 0
	add	esp, 40
LCFI136:
	.cfi_remember_state
	.cfi_def_cfa_offset 8
	pop	ebx
LCFI137:
	.cfi_restore 3
	.cfi_def_cfa_offset 4
	.loc 1 851 0
	jmp	_g_free
LVL395:
	.p2align 2,,3
L363:
LCFI138:
	.cfi_restore_state
LBB98:
LBB99:
	.loc 1 844 0
	mov	DWORD PTR [esp+8], OFFSET FLAT:LC11
	mov	DWORD PTR [esp+4], OFFSET FLAT:___PRETTY_FUNCTION__.51093
	mov	DWORD PTR [esp], 0
	call	_g_return_if_fail_warning
LVL396:
	jmp	L361
LVL397:
L367:
LBE99:
LBE98:
	.loc 1 852 0
	call	___stack_chk_fail
LVL398:
	.cfi_endproc
LFE115:
	.p2align 2,,3
	.def	_x509_issuer_dn;	.scl	3;	.type	32;	.endef
_x509_issuer_dn:
LFB119:
	.loc 1 936 0
	.cfi_startproc
LVL399:
	sub	esp, 44
LCFI139:
	.cfi_def_cfa_offset 48
	mov	eax, DWORD PTR [esp+48]
	.loc 1 936 0
	mov	edx, DWORD PTR ___stack_chk_guard
	mov	DWORD PTR [esp+28], edx
	xor	edx, edx
LBB108:
	.loc 1 939 0
	test	eax, eax
	je	L381
LVL400:
LBE108:
LBB109:
	.loc 1 940 0
	cmp	DWORD PTR [eax], OFFSET FLAT:_x509_nss
	je	L374
LVL401:
LBE109:
	mov	DWORD PTR [esp+8], OFFSET FLAT:LC9
	mov	DWORD PTR [esp+4], OFFSET FLAT:___PRETTY_FUNCTION__.51142
	mov	DWORD PTR [esp], 0
	call	_g_return_if_fail_warning
LVL402:
L373:
	.loc 1 946 0
	xor	eax, eax
	mov	edx, DWORD PTR [esp+28]
	xor	edx, DWORD PTR ___stack_chk_guard
	jne	L379
	add	esp, 44
LCFI140:
	.cfi_remember_state
	.cfi_def_cfa_offset 4
	ret
	.p2align 2,,3
L381:
LCFI141:
	.cfi_restore_state
LVL403:
	.loc 1 939 0
	mov	DWORD PTR [esp+8], OFFSET FLAT:LC8
	mov	DWORD PTR [esp+4], OFFSET FLAT:___PRETTY_FUNCTION__.51142
	mov	DWORD PTR [esp], 0
	call	_g_return_if_fail_warning
LVL404:
	jmp	L373
LVL405:
	.p2align 2,,3
L374:
	.loc 1 942 0
	mov	eax, DWORD PTR [eax+4]
LVL406:
LBB110:
	.loc 1 943 0
	test	eax, eax
	je	L375
LVL407:
LBE110:
	.loc 1 945 0
	mov	edx, DWORD PTR [esp+28]
	xor	edx, DWORD PTR ___stack_chk_guard
	jne	L379
	mov	eax, DWORD PTR [eax+8]
LVL408:
	mov	DWORD PTR [esp+48], eax
	.loc 1 946 0
	add	esp, 44
LCFI142:
	.cfi_remember_state
	.cfi_def_cfa_offset 4
	.loc 1 945 0
	jmp	_g_strdup
LVL409:
	.p2align 2,,3
L375:
LCFI143:
	.cfi_restore_state
LBB111:
LBB112:
	.loc 1 943 0
	mov	DWORD PTR [esp+8], OFFSET FLAT:LC11
	mov	DWORD PTR [esp+4], OFFSET FLAT:___PRETTY_FUNCTION__.51142
	mov	DWORD PTR [esp], 0
	call	_g_return_if_fail_warning
LVL410:
	jmp	L373
LVL411:
L379:
LBE112:
LBE111:
	.loc 1 946 0
	call	___stack_chk_fail
LVL412:
	.cfi_endproc
LFE119:
	.p2align 2,,3
	.def	_x509_dn;	.scl	3;	.type	32;	.endef
_x509_dn:
LFB118:
	.loc 1 922 0
	.cfi_startproc
LVL413:
	sub	esp, 44
LCFI144:
	.cfi_def_cfa_offset 48
	mov	eax, DWORD PTR [esp+48]
	.loc 1 922 0
	mov	edx, DWORD PTR ___stack_chk_guard
	mov	DWORD PTR [esp+28], edx
	xor	edx, edx
LBB121:
	.loc 1 925 0
	test	eax, eax
	je	L393
LVL414:
LBE121:
LBB122:
	.loc 1 926 0
	cmp	DWORD PTR [eax], OFFSET FLAT:_x509_nss
	je	L386
LVL415:
LBE122:
	mov	DWORD PTR [esp+8], OFFSET FLAT:LC9
	mov	DWORD PTR [esp+4], OFFSET FLAT:___PRETTY_FUNCTION__.51131
	mov	DWORD PTR [esp], 0
	call	_g_return_if_fail_warning
LVL416:
L385:
	.loc 1 932 0
	xor	eax, eax
	mov	edx, DWORD PTR [esp+28]
	xor	edx, DWORD PTR ___stack_chk_guard
	jne	L391
	add	esp, 44
LCFI145:
	.cfi_remember_state
	.cfi_def_cfa_offset 4
	ret
	.p2align 2,,3
L393:
LCFI146:
	.cfi_restore_state
LVL417:
	.loc 1 925 0
	mov	DWORD PTR [esp+8], OFFSET FLAT:LC8
	mov	DWORD PTR [esp+4], OFFSET FLAT:___PRETTY_FUNCTION__.51131
	mov	DWORD PTR [esp], 0
	call	_g_return_if_fail_warning
LVL418:
	jmp	L385
LVL419:
	.p2align 2,,3
L386:
	.loc 1 928 0
	mov	eax, DWORD PTR [eax+4]
LVL420:
LBB123:
	.loc 1 929 0
	test	eax, eax
	je	L387
LVL421:
LBE123:
	.loc 1 931 0
	mov	edx, DWORD PTR [esp+28]
	xor	edx, DWORD PTR ___stack_chk_guard
	jne	L391
	mov	eax, DWORD PTR [eax+4]
LVL422:
	mov	DWORD PTR [esp+48], eax
	.loc 1 932 0
	add	esp, 44
LCFI147:
	.cfi_remember_state
	.cfi_def_cfa_offset 4
	.loc 1 931 0
	jmp	_g_strdup
LVL423:
	.p2align 2,,3
L387:
LCFI148:
	.cfi_restore_state
LBB124:
LBB125:
	.loc 1 929 0
	mov	DWORD PTR [esp+8], OFFSET FLAT:LC11
	mov	DWORD PTR [esp+4], OFFSET FLAT:___PRETTY_FUNCTION__.51131
	mov	DWORD PTR [esp], 0
	call	_g_return_if_fail_warning
LVL424:
	jmp	L385
LVL425:
L391:
LBE125:
LBE124:
	.loc 1 932 0
	call	___stack_chk_fail
LVL426:
	.cfi_endproc
LFE118:
	.p2align 2,,3
	.def	_x509_common_name;	.scl	3;	.type	32;	.endef
_x509_common_name:
LFB120:
	.loc 1 950 0
	.cfi_startproc
LVL427:
	push	esi
LCFI149:
	.cfi_def_cfa_offset 8
	.cfi_offset 6, -8
	sub	esp, 56
LCFI150:
	.cfi_def_cfa_offset 64
	mov	eax, DWORD PTR [esp+64]
	.loc 1 950 0
	mov	edx, DWORD PTR ___stack_chk_guard
	mov	DWORD PTR [esp+44], edx
	xor	edx, edx
LBB134:
	.loc 1 955 0
	test	eax, eax
	je	L404
LVL428:
LBE134:
LBB135:
	.loc 1 956 0
	cmp	DWORD PTR [eax], OFFSET FLAT:_x509_nss
	je	L398
LVL429:
LBE135:
	mov	DWORD PTR [esp+8], OFFSET FLAT:LC9
	mov	DWORD PTR [esp+4], OFFSET FLAT:___PRETTY_FUNCTION__.51155
	mov	DWORD PTR [esp], 0
	call	_g_return_if_fail_warning
LVL430:
	xor	eax, eax
LVL431:
L397:
	.loc 1 978 0
	mov	edx, DWORD PTR [esp+44]
	xor	edx, DWORD PTR ___stack_chk_guard
	jne	L405
	add	esp, 56
LCFI151:
	.cfi_remember_state
	.cfi_def_cfa_offset 8
	pop	esi
LCFI152:
	.cfi_restore 6
	.cfi_def_cfa_offset 4
	ret
	.p2align 2,,3
L404:
LCFI153:
	.cfi_restore_state
LVL432:
	.loc 1 955 0
	mov	DWORD PTR [esp+8], OFFSET FLAT:LC8
	mov	DWORD PTR [esp+4], OFFSET FLAT:___PRETTY_FUNCTION__.51155
	mov	DWORD PTR [esp], 0
	call	_g_return_if_fail_warning
LVL433:
	xor	eax, eax
	jmp	L397
LVL434:
	.p2align 2,,3
L398:
	.loc 1 958 0
	mov	eax, DWORD PTR [eax+4]
LVL435:
LBB136:
	.loc 1 959 0
	test	eax, eax
	je	L399
LVL436:
LBE136:
	.loc 1 973 0
	add	eax, 204
LVL437:
	mov	DWORD PTR [esp], eax
	call	_CERT_GetCommonName
LVL438:
	mov	esi, eax
LVL439:
	.loc 1 974 0
	mov	DWORD PTR [esp], eax
	call	_g_strdup
LVL440:
	.loc 1 975 0
	mov	DWORD PTR [esp], esi
	mov	DWORD PTR [esp+28], eax
	call	_PORT_Free
LVL441:
	.loc 1 977 0
	mov	eax, DWORD PTR [esp+28]
	jmp	L397
LVL442:
	.p2align 2,,3
L399:
LBB137:
LBB138:
	.loc 1 959 0
	mov	DWORD PTR [esp+8], OFFSET FLAT:LC11
	mov	DWORD PTR [esp+4], OFFSET FLAT:___PRETTY_FUNCTION__.51155
	mov	DWORD PTR [esp], 0
	call	_g_return_if_fail_warning
LVL443:
	xor	eax, eax
	jmp	L397
LVL444:
L405:
LBE138:
LBE137:
	.loc 1 978 0
	call	___stack_chk_fail
LVL445:
	.cfi_endproc
LFE120:
	.p2align 2,,3
	.def	_x509_copy_certificate;	.scl	3;	.type	32;	.endef
_x509_copy_certificate:
LFB114:
	.loc 1 808 0
	.cfi_startproc
LVL446:
	push	esi
LCFI154:
	.cfi_def_cfa_offset 8
	.cfi_offset 6, -8
	push	ebx
LCFI155:
	.cfi_def_cfa_offset 12
	.cfi_offset 3, -12
	sub	esp, 36
LCFI156:
	.cfi_def_cfa_offset 48
	mov	eax, DWORD PTR [esp+48]
	.loc 1 808 0
	mov	edx, DWORD PTR ___stack_chk_guard
	mov	DWORD PTR [esp+28], edx
	xor	edx, edx
LBB147:
	.loc 1 812 0
	test	eax, eax
	je	L416
LVL447:
LBE147:
LBB148:
	.loc 1 813 0
	cmp	DWORD PTR [eax], OFFSET FLAT:_x509_nss
	je	L410
LVL448:
LBE148:
	mov	DWORD PTR [esp+8], OFFSET FLAT:LC9
	mov	DWORD PTR [esp+4], OFFSET FLAT:___PRETTY_FUNCTION__.51082
	mov	DWORD PTR [esp], 0
	call	_g_return_if_fail_warning
LVL449:
	xor	ebx, ebx
LVL450:
L409:
	.loc 1 825 0
	mov	eax, ebx
	mov	edx, DWORD PTR [esp+28]
	xor	edx, DWORD PTR ___stack_chk_guard
	jne	L417
	add	esp, 36
LCFI157:
	.cfi_remember_state
	.cfi_def_cfa_offset 12
	pop	ebx
LCFI158:
	.cfi_restore 3
	.cfi_def_cfa_offset 8
	pop	esi
LCFI159:
	.cfi_restore 6
	.cfi_def_cfa_offset 4
	ret
	.p2align 2,,3
L416:
LCFI160:
	.cfi_restore_state
LVL451:
	.loc 1 812 0
	mov	DWORD PTR [esp+8], OFFSET FLAT:LC8
	mov	DWORD PTR [esp+4], OFFSET FLAT:___PRETTY_FUNCTION__.51082
	mov	DWORD PTR [esp], 0
	call	_g_return_if_fail_warning
LVL452:
	xor	ebx, ebx
	jmp	L409
LVL453:
	.p2align 2,,3
L410:
	.loc 1 815 0
	mov	esi, DWORD PTR [eax+4]
LVL454:
LBB149:
	.loc 1 816 0
	test	esi, esi
	je	L411
LVL455:
LBE149:
	.loc 1 819 0
	mov	DWORD PTR [esp], 8
	call	_g_malloc0
LVL456:
	mov	ebx, eax
LVL457:
	.loc 1 820 0
	mov	DWORD PTR [eax], OFFSET FLAT:_x509_nss
	.loc 1 822 0
	mov	DWORD PTR [esp], esi
	call	_CERT_DupCertificate
LVL458:
	mov	DWORD PTR [ebx+4], eax
	.loc 1 824 0
	jmp	L409
LVL459:
	.p2align 2,,3
L411:
LBB150:
LBB151:
	.loc 1 816 0
	mov	DWORD PTR [esp+8], OFFSET FLAT:LC11
	mov	DWORD PTR [esp+4], OFFSET FLAT:___PRETTY_FUNCTION__.51082
	mov	DWORD PTR [esp], 0
	call	_g_return_if_fail_warning
LVL460:
	xor	ebx, ebx
	jmp	L409
LVL461:
L417:
LBE151:
LBE150:
	.loc 1 825 0
	call	___stack_chk_fail
LVL462:
	.cfi_endproc
LFE114:
	.p2align 2,,3
	.def	_ssl_nss_verified_cb;	.scl	3;	.type	32;	.endef
_ssl_nss_verified_cb:
LFB100:
	.loc 1 312 0
	.cfi_startproc
LVL463:
	push	ebx
LCFI161:
	.cfi_def_cfa_offset 8
	.cfi_offset 3, -8
	sub	esp, 40
LCFI162:
	.cfi_def_cfa_offset 48
	mov	ebx, DWORD PTR [esp+52]
	.loc 1 312 0
	mov	eax, DWORD PTR ___stack_chk_guard
	mov	DWORD PTR [esp+28], eax
	xor	eax, eax
LVL464:
	.loc 1 315 0
	cmp	DWORD PTR [esp+48], 1
	je	L429
	.loc 1 320 0
	mov	eax, DWORD PTR [ebx+16]
	test	eax, eax
	je	L421
	.loc 1 321 0
	mov	edx, DWORD PTR [ebx+8]
	mov	DWORD PTR [esp+8], edx
	mov	DWORD PTR [esp+4], 3
	mov	DWORD PTR [esp], ebx
	call	eax
LVL465:
L421:
	.loc 1 323 0
	mov	eax, DWORD PTR [esp+28]
	xor	eax, DWORD PTR ___stack_chk_guard
	jne	L427
	mov	DWORD PTR [esp+48], ebx
	.loc 1 325 0
	add	esp, 40
LCFI163:
	.cfi_remember_state
	.cfi_def_cfa_offset 8
	pop	ebx
LCFI164:
	.cfi_restore 3
	.cfi_def_cfa_offset 4
LVL466:
	.loc 1 323 0
	jmp	_purple_ssl_close
LVL467:
	.p2align 2,,3
L429:
LCFI165:
	.cfi_restore_state
LBB154:
LBB155:
	.loc 1 317 0
	mov	DWORD PTR [esp+8], 1
	mov	DWORD PTR [esp+4], ebx
	mov	eax, DWORD PTR [ebx+8]
	mov	DWORD PTR [esp], eax
	call	[DWORD PTR [ebx+12]]
LVL468:
LBE155:
LBE154:
	.loc 1 325 0
	mov	eax, DWORD PTR [esp+28]
	xor	eax, DWORD PTR ___stack_chk_guard
	jne	L427
	add	esp, 40
LCFI166:
	.cfi_remember_state
	.cfi_def_cfa_offset 8
	pop	ebx
LCFI167:
	.cfi_restore 3
	.cfi_def_cfa_offset 4
LVL469:
	ret
LVL470:
L427:
LCFI168:
	.cfi_restore_state
	call	___stack_chk_fail
LVL471:
	.cfi_endproc
LFE100:
	.section .rdata,"dr"
LC48:
	.ascii "(null)\0"
LC49:
	.ascii "Handshake failed %s (%d)\12\0"
	.align 4
LC50:
	.ascii "SSL version %d.%d using %d-bit %s with %d-bit %s MAC\12Server Auth: %d-bit %s, Key Exchange: %d-bit %s, Compression: %s\12Cipher Suite Name: %s\12\0"
LC51:
	.ascii "could not DupCertificate\12\0"
LC52:
	.ascii "subject=%s issuer=%s\12\0"
LC53:
	.ascii "partial certificate chain\12\0"
	.text
	.p2align 2,,3
	.def	_ssl_nss_handshake_cb;	.scl	3;	.type	32;	.endef
_ssl_nss_handshake_cb:
LFB104:
	.loc 1 428 0
	.cfi_startproc
LVL472:
	push	ebp
LCFI169:
	.cfi_def_cfa_offset 8
	.cfi_offset 5, -8
	push	edi
LCFI170:
	.cfi_def_cfa_offset 12
	.cfi_offset 7, -12
	push	esi
LCFI171:
	.cfi_def_cfa_offset 16
	.cfi_offset 6, -16
	push	ebx
LCFI172:
	.cfi_def_cfa_offset 20
	.cfi_offset 3, -20
	sub	esp, 252
LCFI173:
	.cfi_def_cfa_offset 272
	mov	edi, DWORD PTR [esp+272]
	mov	esi, DWORD PTR [esp+280]
	.loc 1 428 0
	mov	eax, DWORD PTR ___stack_chk_guard
	mov	DWORD PTR [esp+236], eax
	xor	eax, eax
LVL473:
	.loc 1 430 0
	mov	ebx, DWORD PTR [edi+40]
LVL474:
	.loc 1 435 0
	mov	eax, DWORD PTR [ebx+4]
	mov	DWORD PTR [esp], eax
	call	[DWORD PTR __imp__SSL_ForceHandshake]
LVL475:
	test	eax, eax
	je	L431
LBB164:
	.loc 1 437 0
	mov	ebx, DWORD PTR __imp__PR_GetError
LVL476:
	call	ebx
LVL477:
	call	_set_errno
LVL478:
	.loc 1 438 0
	call	__errno
LVL479:
	cmp	DWORD PTR [eax], 11
	je	L430
	.loc 1 438 0 is_stmt 0 discriminator 1
	call	__errno
LVL480:
	cmp	DWORD PTR [eax], 10035
	je	L430
	.loc 1 441 0 is_stmt 1
	call	_get_error_text
LVL481:
	mov	esi, eax
LVL482:
	.loc 1 442 0
	call	ebx
LVL483:
	test	esi, esi
	je	L458
	mov	edx, esi
L435:
	.loc 1 442 0 is_stmt 0 discriminator 3
	mov	DWORD PTR [esp+12], eax
	mov	DWORD PTR [esp+8], edx
	mov	DWORD PTR [esp+4], OFFSET FLAT:LC49
	mov	DWORD PTR [esp], OFFSET FLAT:LC3
	call	_purple_debug_error
LVL484:
	.loc 1 443 0 is_stmt 1 discriminator 3
	mov	DWORD PTR [esp], esi
	call	_g_free
LVL485:
	.loc 1 445 0 discriminator 3
	mov	eax, DWORD PTR [edi+16]
	test	eax, eax
	je	L436
	.loc 1 446 0
	mov	edx, DWORD PTR [edi+8]
	mov	DWORD PTR [esp+8], edx
	mov	DWORD PTR [esp+4], 1
	mov	DWORD PTR [esp], edi
	call	eax
LVL486:
L436:
	.loc 1 448 0
	mov	DWORD PTR [esp], edi
	call	_purple_ssl_close
LVL487:
	.p2align 2,,3
L430:
LBE164:
	.loc 1 480 0
	mov	edx, DWORD PTR [esp+236]
	xor	edx, DWORD PTR ___stack_chk_guard
	jne	L459
	add	esp, 252
LCFI174:
	.cfi_remember_state
	.cfi_def_cfa_offset 20
	pop	ebx
LCFI175:
	.cfi_restore 3
	.cfi_def_cfa_offset 16
	pop	esi
LCFI176:
	.cfi_restore 6
	.cfi_def_cfa_offset 12
	pop	edi
LCFI177:
	.cfi_restore 7
	.cfi_def_cfa_offset 8
	pop	ebp
LCFI178:
	.cfi_restore 5
	.cfi_def_cfa_offset 4
	ret
LVL488:
	.p2align 2,,3
L431:
LCFI179:
	.cfi_restore_state
LBB165:
LBB166:
	.loc 1 397 0
	mov	DWORD PTR [esp+8], 72
	lea	eax, [esp+164]
	mov	DWORD PTR [esp+4], eax
	mov	eax, DWORD PTR [ebx+4]
	mov	DWORD PTR [esp], eax
	call	[DWORD PTR __imp__SSL_GetChannelInfo]
LVL489:
	.loc 1 398 0
	test	eax, eax
	jne	L438
	cmp	DWORD PTR [esp+164], 72
	je	L460
LVL490:
L438:
LBE166:
LBE165:
	.loc 1 455 0
	mov	eax, DWORD PTR [ebx+8]
	mov	DWORD PTR [esp], eax
	call	_purple_input_remove
LVL491:
	.loc 1 456 0
	mov	DWORD PTR [ebx+8], 0
	.loc 1 459 0
	mov	eax, DWORD PTR [edi+44]
	test	eax, eax
	je	L440
LBB168:
	.loc 1 462 0
	mov	ebx, DWORD PTR [ebx+4]
LVL492:
LBB169:
LBB170:
	.loc 1 356 0
	call	[DWORD PTR __imp__PR_Now]
LVL493:
	mov	DWORD PTR [esp+80], eax
	mov	DWORD PTR [esp+84], edx
LVL494:
	.loc 1 358 0
	mov	DWORD PTR [esp], ebx
	call	[DWORD PTR __imp__SSL_PeerCertificate]
LVL495:
	.loc 1 359 0
	test	eax, eax
	je	L461
	mov	edx, 20
	xor	esi, esi
	mov	ebx, eax
LVL496:
	mov	ebp, esi
	mov	DWORD PTR [esp+92], edi
	mov	edi, edx
LVL497:
	jmp	L441
LVL498:
	.p2align 2,,3
L443:
	.loc 1 365 0
	mov	DWORD PTR [esp+12], eax
	mov	eax, DWORD PTR [ebx+4]
	mov	DWORD PTR [esp+8], eax
	mov	DWORD PTR [esp+4], OFFSET FLAT:LC52
	mov	DWORD PTR [esp], OFFSET FLAT:LC3
	call	_purple_debug_info
LVL499:
LBB171:
LBB172:
	.loc 1 339 0
	mov	DWORD PTR [esp], 8
	call	_g_malloc0
LVL500:
	mov	esi, eax
LVL501:
	.loc 1 340 0
	mov	DWORD PTR [eax], OFFSET FLAT:_x509_nss
	.loc 1 341 0
	mov	DWORD PTR [esp], ebx
	call	_CERT_DupCertificate
LVL502:
	mov	DWORD PTR [esi+4], eax
LBE172:
LBE171:
	.loc 1 368 0
	mov	DWORD PTR [esp+4], esi
	mov	DWORD PTR [esp], ebp
	call	_g_list_append
LVL503:
	mov	ebp, eax
LVL504:
	.loc 1 370 0
	mov	eax, DWORD PTR [ebx+368]
LVL505:
	test	eax, eax
	jne	L449
	.loc 1 373 0
	mov	DWORD PTR [esp+12], 1
	mov	eax, DWORD PTR [esp+80]
	mov	edx, DWORD PTR [esp+84]
	mov	DWORD PTR [esp+4], eax
	mov	DWORD PTR [esp+8], edx
	mov	DWORD PTR [esp], ebx
	call	_CERT_FindCertIssuer
LVL506:
	.loc 1 374 0
	test	eax, eax
	je	L462
	.loc 1 378 0
	mov	DWORD PTR [esp], ebx
	mov	DWORD PTR [esp+76], eax
	call	_CERT_DestroyCertificate
LVL507:
	.loc 1 364 0
	dec	edi
	mov	eax, DWORD PTR [esp+76]
	je	L463
	mov	ebx, eax
LVL508:
L441:
	.loc 1 366 0
	mov	eax, DWORD PTR [ebx+8]
LVL509:
	.loc 1 365 0
	test	eax, eax
	jne	L443
	mov	eax, OFFSET FLAT:LC48
	jmp	L443
LVL510:
	.p2align 2,,3
L460:
LBE170:
LBE169:
LBE168:
LBB179:
LBB167:
	.loc 1 399 0
	movzx	eax, WORD PTR [esp+170]
LVL511:
	test	ax, ax
	je	L438
	.loc 1 400 0
	mov	DWORD PTR [esp+8], 56
	lea	edx, [esp+108]
	mov	DWORD PTR [esp+4], edx
	mov	DWORD PTR [esp], eax
	call	[DWORD PTR __imp__SSL_GetCipherSuiteInfo]
LVL512:
	.loc 1 403 0
	test	eax, eax
	jne	L438
	.loc 1 404 0
	mov	eax, DWORD PTR [esp+112]
LVL513:
	mov	DWORD PTR [esp+52], eax
	mov	eax, DWORD PTR [esp+228]
	mov	DWORD PTR [esp+48], eax
	mov	eax, DWORD PTR [esp+124]
	mov	DWORD PTR [esp+44], eax
	mov	eax, DWORD PTR [esp+176]
	mov	DWORD PTR [esp+40], eax
	mov	eax, DWORD PTR [esp+116]
	mov	DWORD PTR [esp+36], eax
	mov	eax, DWORD PTR [esp+172]
	mov	DWORD PTR [esp+32], eax
	mov	eax, DWORD PTR [esp+148]
	mov	DWORD PTR [esp+28], eax
	movzx	eax, WORD PTR [esp+156]
	mov	DWORD PTR [esp+24], eax
	mov	eax, DWORD PTR [esp+132]
	mov	DWORD PTR [esp+20], eax
	movzx	eax, WORD PTR [esp+144]
	mov	DWORD PTR [esp+16], eax
	movzx	eax, BYTE PTR [esp+168]
	mov	DWORD PTR [esp+12], eax
	mov	edx, DWORD PTR [esp+168]
	movzx	eax, dh
	mov	DWORD PTR [esp+8], eax
	mov	DWORD PTR [esp+4], OFFSET FLAT:LC50
	mov	DWORD PTR [esp], OFFSET FLAT:LC3
	call	_purple_debug_info
LVL514:
	jmp	L438
	.p2align 2,,3
L440:
LBE167:
LBE179:
	.loc 1 478 0
	mov	DWORD PTR [esp+8], esi
	mov	DWORD PTR [esp+4], edi
	mov	eax, DWORD PTR [edi+8]
	mov	DWORD PTR [esp], eax
	call	[DWORD PTR [edi+12]]
LVL515:
	jmp	L430
LVL516:
	.p2align 2,,3
L463:
	mov	esi, ebp
LVL517:
	mov	edi, DWORD PTR [esp+92]
LVL518:
L444:
LBB180:
LBB176:
LBB173:
	.loc 1 381 0
	mov	DWORD PTR [esp], eax
	call	_CERT_DestroyCertificate
LVL519:
L442:
LBE173:
LBE176:
	.loc 1 465 0
	mov	DWORD PTR [esp+16], edi
	mov	DWORD PTR [esp+12], OFFSET FLAT:_ssl_nss_verified_cb
	mov	DWORD PTR [esp+8], esi
	mov	eax, DWORD PTR [edi]
	mov	DWORD PTR [esp+4], eax
	mov	eax, DWORD PTR [edi+44]
	mov	DWORD PTR [esp], eax
	call	_purple_certificate_verify
LVL520:
	.loc 1 471 0
	mov	DWORD PTR [esp], esi
	call	_purple_certificate_destroy_list
LVL521:
	jmp	L430
LVL522:
	.p2align 2,,3
L449:
	mov	esi, ebp
LVL523:
	mov	edi, DWORD PTR [esp+92]
LBB177:
LBB174:
	.loc 1 370 0
	mov	eax, ebx
	jmp	L444
LVL524:
	.p2align 2,,3
L462:
	mov	esi, ebp
LVL525:
	mov	edi, DWORD PTR [esp+92]
	.loc 1 375 0
	mov	DWORD PTR [esp+4], OFFSET FLAT:LC53
	mov	DWORD PTR [esp], OFFSET FLAT:LC3
	call	_purple_debug_error
LVL526:
	mov	eax, ebx
	jmp	L444
LVL527:
L458:
LBE174:
LBE177:
LBE180:
LBB181:
	.loc 1 442 0
	mov	edx, OFFSET FLAT:LC1
	jmp	L435
LVL528:
L461:
LBE181:
LBB182:
LBB178:
LBB175:
	.loc 1 360 0
	mov	DWORD PTR [esp+4], OFFSET FLAT:LC51
	mov	DWORD PTR [esp], OFFSET FLAT:LC3
	call	_purple_debug_error
LVL529:
	.loc 1 361 0
	xor	esi, esi
	jmp	L442
LVL530:
L459:
LBE175:
LBE178:
LBE182:
	.loc 1 480 0
	call	___stack_chk_fail
LVL531:
	.cfi_endproc
LFE104:
	.p2align 2,,3
	.def	_start_handshake_cb;	.scl	3;	.type	32;	.endef
_start_handshake_cb:
LFB105:
	.loc 1 484 0
	.cfi_startproc
LVL532:
	sub	esp, 44
LCFI180:
	.cfi_def_cfa_offset 48
	mov	eax, DWORD PTR [esp+48]
	.loc 1 484 0
	mov	edx, DWORD PTR ___stack_chk_guard
	mov	DWORD PTR [esp+28], edx
	xor	edx, edx
LVL533:
	.loc 1 488 0
	mov	edx, DWORD PTR [eax+40]
	mov	DWORD PTR [edx+12], 0
	.loc 1 490 0
	mov	DWORD PTR [esp+8], 1
	mov	edx, DWORD PTR [eax+28]
	mov	DWORD PTR [esp+4], edx
	mov	DWORD PTR [esp], eax
	call	_ssl_nss_handshake_cb
LVL534:
	.loc 1 492 0
	xor	eax, eax
	mov	edx, DWORD PTR [esp+28]
	xor	edx, DWORD PTR ___stack_chk_guard
	jne	L467
	add	esp, 44
LCFI181:
	.cfi_remember_state
	.cfi_def_cfa_offset 4
	ret
L467:
LCFI182:
	.cfi_restore_state
	call	___stack_chk_fail
LVL535:
	.cfi_endproc
LFE105:
	.p2align 2,,3
	.globl	_purple_init_plugin
	.def	_purple_init_plugin;	.scl	2;	.type	32;	.endef
_purple_init_plugin:
LFB128:
	.loc 1 1305 0
	.cfi_startproc
LVL536:
	sub	esp, 28
LCFI183:
	.cfi_def_cfa_offset 32
	mov	eax, DWORD PTR [esp+32]
	.loc 1 1305 0
	mov	edx, DWORD PTR ___stack_chk_guard
	mov	DWORD PTR [esp+12], edx
	xor	edx, edx
	mov	DWORD PTR [eax+16], OFFSET FLAT:_info
	mov	edx, DWORD PTR [esp+12]
	xor	edx, DWORD PTR ___stack_chk_guard
	jne	L472
	mov	DWORD PTR [esp+32], eax
	add	esp, 28
LCFI184:
	.cfi_remember_state
	.cfi_def_cfa_offset 4
	jmp	_purple_plugin_register
LVL537:
L472:
LCFI185:
	.cfi_restore_state
	call	___stack_chk_fail
LVL538:
	.cfi_endproc
LFE128:
	.section .rdata,"dr"
LC54:
	.ascii "ssl-nss\0"
LC55:
	.ascii "NSS\0"
LC56:
	.ascii "2.10.11\0"
	.align 4
LC57:
	.ascii "Provides SSL support through Mozilla NSS.\0"
	.align 4
LC58:
	.ascii "Christian Hammond <chipx86@gnupdate.org>\0"
LC59:
	.ascii "http://pidgin.im/\0"
	.data
	.align 32
_info:
	.long	5
	.long	2
	.long	10
	.long	0
	.long	0
	.long	1
	.long	0
	.long	0
	.long	LC54
	.long	LC55
	.long	LC56
	.long	LC57
	.long	LC57
	.long	LC58
	.long	LC59
	.long	_plugin_load
	.long	_plugin_unload
	.long	0
	.long	0
	.long	0
	.long	0
	.long	0
	.long	0
	.long	0
	.long	0
	.long	0
	.align 32
_ssl_ops:
	.long	_ssl_nss_init
	.long	_ssl_nss_uninit
	.long	_ssl_nss_connect
	.long	_ssl_nss_close
	.long	_ssl_nss_read
	.long	_ssl_nss_write
	.long	_ssl_nss_peer_certs
	.long	0
	.long	0
	.long	0
	.section .rdata,"dr"
LC60:
	.ascii "x509\0"
LC61:
	.ascii "X.509 Certificates\0"
	.data
	.align 32
_x509_nss:
	.long	LC60
	.long	LC61
	.long	_x509_import_from_file
	.long	_x509_export_certificate
	.long	_x509_copy_certificate
	.long	_x509_destroy_certificate
	.long	_x509_signed_by
	.long	_x509_sha1sum
	.long	_x509_dn
	.long	_x509_issuer_dn
	.long	_x509_common_name
	.long	_x509_check_name
	.long	_x509_times
	.long	_x509_importcerts_from_file
	.long	_x509_register_trusted_tls_cert
	.long	_x509_verify_cert
	.long	0
.lcomm __nss_methods,4,4
	.section .rdata,"dr"
	.align 4
___PRETTY_FUNCTION__.51199:
	.ascii "x509_register_trusted_tls_cert\0"
___PRETTY_FUNCTION__.51047:
	.ascii "x509_importcerts_from_file\0"
___PRETTY_FUNCTION__.51183:
	.ascii "x509_times\0"
___PRETTY_FUNCTION__.51168:
	.ascii "x509_check_name\0"
___PRETTY_FUNCTION__.51155:
	.ascii "x509_common_name\0"
___PRETTY_FUNCTION__.51142:
	.ascii "x509_issuer_dn\0"
___PRETTY_FUNCTION__.51131:
	.ascii "x509_dn\0"
___PRETTY_FUNCTION__.51120:
	.ascii "x509_sha1sum\0"
___PRETTY_FUNCTION__.51107:
	.ascii "x509_signed_by\0"
___PRETTY_FUNCTION__.51093:
	.ascii "x509_destroy_certificate\0"
___PRETTY_FUNCTION__.51082:
	.ascii "x509_copy_certificate\0"
___PRETTY_FUNCTION__.51064:
	.ascii "x509_export_certificate\0"
___PRETTY_FUNCTION__.51032:
	.ascii "x509_import_from_file\0"
.lcomm __identity,4,4
	.align 32
_default_ciphers:
	.word	-16345
	.word	103
	.word	107
	.word	-16337
	.word	158
	.word	-16341
	.word	-16365
	.word	-16375
	.word	-16364
	.word	-16374
	.word	51
	.word	57
	.word	50
	.word	-16367
	.word	-16377
	.word	47
	.word	53
	.word	0
	.text
Letext0:
	.file 2 "c:/workspace/pidgin-devel/win32-dev/mingw-4.7.2/bin/../lib/gcc/mingw32/4.7.2/../../../../include/stdio.h"
	.file 3 "c:/workspace/pidgin-devel/win32-dev/mingw-4.7.2/bin/../lib/gcc/mingw32/4.7.2/include/stddef.h"
	.file 4 "c:/workspace/pidgin-devel/win32-dev/mingw-4.7.2/bin/../lib/gcc/mingw32/4.7.2/../../../../include/sys/types.h"
	.file 5 "../../../../win32-dev/gtk_2_0-2.14/lib/glib-2.0/include/glibconfig.h"
	.file 6 "../../../../win32-dev/gtk_2_0-2.14/include/glib-2.0/glib/gtypes.h"
	.file 7 "../../../../win32-dev/gtk_2_0-2.14/include/glib-2.0/glib/garray.h"
	.file 8 "../../../../win32-dev/gtk_2_0-2.14/include/glib-2.0/glib/gquark.h"
	.file 9 "../../../../win32-dev/gtk_2_0-2.14/include/glib-2.0/glib/gerror.h"
	.file 10 "../../../../win32-dev/gtk_2_0-2.14/include/glib-2.0/glib/glist.h"
	.file 11 "../../../../win32-dev/gtk_2_0-2.14/include/glib-2.0/glib/gslist.h"
	.file 12 "../../../../win32-dev/gtk_2_0-2.14/include/glib-2.0/glib/gmain.h"
	.file 13 "../../../libpurple/plugin.h"
	.file 14 "../../../libpurple/pluginpref.h"
	.file 15 "../../../libpurple/eventloop.h"
	.file 16 "../../../libpurple/proxy.h"
	.file 17 "../../../libpurple/sslconn.h"
	.file 18 "../../../libpurple/certificate.h"
	.file 19 "../../../../win32-dev/nss-3.17.1-nspr-4.10.7/include/prtypes.h"
	.file 20 "../../../../win32-dev/nss-3.17.1-nspr-4.10.7/include/obsolete/protypes.h"
	.file 21 "../../../../win32-dev/nss-3.17.1-nspr-4.10.7/include/prclist.h"
	.file 22 "../../../../win32-dev/nss-3.17.1-nspr-4.10.7/include/prinrval.h"
	.file 23 "c:/workspace/pidgin-devel/win32-dev/mingw-4.7.2/bin/../lib/gcc/mingw32/4.7.2/../../../../include/wtypes.h"
	.file 24 "../../../../win32-dev/nss-3.17.1-nspr-4.10.7/include/prthread.h"
	.file 25 "../../../../win32-dev/nss-3.17.1-nspr-4.10.7/include/prtime.h"
	.file 26 "../../../../win32-dev/nss-3.17.1-nspr-4.10.7/include/prio.h"
	.file 27 "../../../../win32-dev/nss-3.17.1-nspr-4.10.7/include/plarenas.h"
	.file 28 "../../../../win32-dev/nss-3.17.1-nspr-4.10.7/include/plarena.h"
	.file 29 "../../../../win32-dev/nss-3.17.1-nspr-4.10.7/include/seccomon.h"
	.file 30 "../../../../win32-dev/nss-3.17.1-nspr-4.10.7/include/secoidt.h"
	.file 31 "../../../../win32-dev/nss-3.17.1-nspr-4.10.7/include/pkcs11t.h"
	.file 32 "../../../../win32-dev/nss-3.17.1-nspr-4.10.7/include/secasn1t.h"
	.file 33 "../../../../win32-dev/nss-3.17.1-nspr-4.10.7/include/secmodt.h"
	.file 34 "../../../../win32-dev/nss-3.17.1-nspr-4.10.7/include/certt.h"
	.file 35 "../../../../win32-dev/nss-3.17.1-nspr-4.10.7/include/secerr.h"
	.file 36 "../../../../win32-dev/nss-3.17.1-nspr-4.10.7/include/sslt.h"
	.file 37 "c:/workspace/pidgin-devel/win32-dev/mingw-4.7.2/bin/../lib/gcc/mingw32/4.7.2/../../../../include/ctype.h"
	.file 38 "../../../../win32-dev/nss-3.17.1-nspr-4.10.7/include/cert.h"
	.file 39 "../../../libpurple/debug.h"
	.file 40 "../../../../win32-dev/nss-3.17.1-nspr-4.10.7/include/secport.h"
	.file 41 "../../../../win32-dev/gtk_2_0-2.14/include/glib-2.0/glib/gmessages.h"
	.file 42 "../../../../win32-dev/gtk_2_0-2.14/include/glib-2.0/glib/gfileutils.h"
	.file 43 "../../../../win32-dev/gtk_2_0-2.14/include/glib-2.0/glib/gmem.h"
	.file 44 "c:/workspace/pidgin-devel/win32-dev/mingw-4.7.2/bin/../lib/gcc/mingw32/4.7.2/../../../../include/string.h"
	.file 45 "../../../../win32-dev/nss-3.17.1-nspr-4.10.7/include/pk11pub.h"
	.file 46 "../../../../win32-dev/nss-3.17.1-nspr-4.10.7/include/secasn1.h"
	.file 47 "../../../../win32-dev/nss-3.17.1-nspr-4.10.7/include/nssb64.h"
	.file 48 "../../../../win32-dev/nss-3.17.1-nspr-4.10.7/include/secitem.h"
	.file 49 "../../../../win32-dev/gtk_2_0-2.14/include/glib-2.0/glib/gstrfuncs.h"
	.file 50 "../../../libpurple/media/../util.h"
	.file 51 "c:/workspace/pidgin-devel/win32-dev/mingw-4.7.2/bin/../lib/gcc/mingw32/4.7.2/../../../../include/stdlib.h"
	.file 52 "../../../../win32-dev/nss-3.17.1-nspr-4.10.7/include/nss.h"
	.file 53 "../../../../win32-dev/nss-3.17.1-nspr-4.10.7/include/ocsp.h"
	.section .drectve
	.ascii " -export:\"purple_init_plugin\""
