	.file	"sslconn.c"
	.intel_syntax noprefix
	.text
Ltext0:
	.p2align 2,,3
	.def	_recv_cb;	.scl	3;	.type	32;	.endef
_recv_cb:
LFB98:
	.file 1 "sslconn.c"
	.loc 1 152 0
	.cfi_startproc
LVL0:
	sub	esp, 28
LCFI0:
	.cfi_def_cfa_offset 32
	mov	eax, DWORD PTR [esp+32]
	mov	edx, DWORD PTR [esp+40]
	.loc 1 152 0
	mov	ecx, DWORD PTR ___stack_chk_guard
	mov	DWORD PTR [esp+12], ecx
	xor	ecx, ecx
LVL1:
	.loc 1 155 0
	mov	ecx, DWORD PTR [esp+12]
	xor	ecx, DWORD PTR ___stack_chk_guard
	jne	L6
	mov	DWORD PTR [esp+40], edx
	mov	DWORD PTR [esp+36], eax
	mov	edx, DWORD PTR [eax+20]
	mov	DWORD PTR [esp+32], edx
	mov	eax, DWORD PTR [eax+24]
LVL2:
	.loc 1 156 0
	add	esp, 28
LCFI1:
	.cfi_remember_state
	.cfi_def_cfa_offset 4
	.loc 1 155 0
	jmp	eax
LVL3:
L6:
LCFI2:
	.cfi_restore_state
	call	___stack_chk_fail
LVL4:
	.cfi_endproc
LFE98:
	.section .rdata,"dr"
LC0:
	.ascii "core-ssl\0"
	.text
	.p2align 2,,3
	.def	_ssl_init;	.scl	3;	.type	32;	.endef
_ssl_init:
LFB93:
	.loc 1 40 0
	.cfi_startproc
	push	ebx
LCFI3:
	.cfi_def_cfa_offset 8
	.cfi_offset 3, -8
	sub	esp, 40
LCFI4:
	.cfi_def_cfa_offset 48
	.loc 1 40 0
	mov	eax, DWORD PTR ___stack_chk_guard
	mov	DWORD PTR [esp+28], eax
	xor	eax, eax
	.loc 1 44 0
	mov	eax, DWORD PTR __ssl_initialized
	test	eax, eax
	je	L23
L14:
	.loc 1 45 0
	xor	eax, eax
L8:
	.loc 1 61 0
	mov	edx, DWORD PTR [esp+28]
	xor	edx, DWORD PTR ___stack_chk_guard
	jne	L24
	add	esp, 40
LCFI5:
	.cfi_remember_state
	.cfi_def_cfa_offset 8
	pop	ebx
LCFI6:
	.cfi_restore 3
	.cfi_def_cfa_offset 4
	ret
	.p2align 2,,3
L23:
LCFI7:
	.cfi_restore_state
LBB39:
LBB40:
	.loc 1 47 0
	mov	DWORD PTR [esp], OFFSET FLAT:LC0
	call	_purple_plugins_find_with_id
LVL5:
	mov	ebx, eax
LVL6:
	.loc 1 49 0
	test	eax, eax
	je	L10
	mov	DWORD PTR [esp], eax
	call	_purple_plugin_is_loaded
LVL7:
	test	eax, eax
	je	L25
L10:
LBB41:
LBB42:
	.loc 1 307 0
	mov	eax, DWORD PTR __ssl_ops
LBE42:
LBE41:
	.loc 1 53 0
	test	eax, eax
	je	L14
	mov	edx, DWORD PTR [eax]
	test	edx, edx
	je	L14
	mov	ebx, DWORD PTR [eax+4]
LVL8:
	test	ebx, ebx
	je	L14
	mov	ecx, DWORD PTR [eax+8]
	test	ecx, ecx
	je	L14
	.loc 1 54 0
	mov	ebx, DWORD PTR [eax+12]
	test	ebx, ebx
	je	L14
	mov	ecx, DWORD PTR [eax+16]
	test	ecx, ecx
	je	L14
	.loc 1 55 0
	mov	eax, DWORD PTR [eax+20]
	test	eax, eax
	je	L14
	.loc 1 60 0
	call	edx
LVL9:
	mov	DWORD PTR __ssl_initialized, eax
	jmp	L8
LVL10:
	.p2align 2,,3
L25:
	.loc 1 50 0
	mov	DWORD PTR [esp], ebx
	call	_purple_plugin_load
LVL11:
	jmp	L10
LVL12:
L24:
LBE40:
LBE39:
	.loc 1 61 0
	call	___stack_chk_fail
LVL13:
	.cfi_endproc
LFE93:
	.p2align 2,,3
	.globl	_purple_ssl_is_supported
	.def	_purple_ssl_is_supported;	.scl	2;	.type	32;	.endef
_purple_ssl_is_supported:
LFB94:
	.loc 1 65 0
	.cfi_startproc
	sub	esp, 28
LCFI8:
	.cfi_def_cfa_offset 32
	.loc 1 65 0
	mov	eax, DWORD PTR ___stack_chk_guard
	mov	DWORD PTR [esp+12], eax
	xor	eax, eax
	.loc 1 67 0
	call	_ssl_init
LVL14:
	.loc 1 68 0
	xor	eax, eax
	mov	edx, DWORD PTR __ssl_ops
	test	edx, edx
	setne	al
	.loc 1 72 0
	mov	edx, DWORD PTR [esp+12]
	xor	edx, DWORD PTR ___stack_chk_guard
	jne	L29
	add	esp, 28
LCFI9:
	.cfi_remember_state
	.cfi_def_cfa_offset 4
	ret
L29:
LCFI10:
	.cfi_restore_state
	call	___stack_chk_fail
LVL15:
	.cfi_endproc
LFE94:
	.section .rdata,"dr"
LC1:
	.ascii "tls_cached\0"
LC2:
	.ascii "x509\0"
LC3:
	.ascii "host != NULL\0"
LC4:
	.ascii "port != 0 && port != -1\0"
LC5:
	.ascii "func != NULL\0"
LC6:
	.ascii "purple_ssl_is_supported()\0"
	.text
	.p2align 2,,3
	.globl	_purple_ssl_connect_with_ssl_cn
	.def	_purple_ssl_connect_with_ssl_cn;	.scl	2;	.type	32;	.endef
_purple_ssl_connect_with_ssl_cn:
LFB97:
	.loc 1 111 0
	.cfi_startproc
LVL16:
	push	ebp
LCFI11:
	.cfi_def_cfa_offset 8
	.cfi_offset 5, -8
	push	edi
LCFI12:
	.cfi_def_cfa_offset 12
	.cfi_offset 7, -12
	push	esi
LCFI13:
	.cfi_def_cfa_offset 16
	.cfi_offset 6, -16
	push	ebx
LCFI14:
	.cfi_def_cfa_offset 20
	.cfi_offset 3, -20
	sub	esp, 76
LCFI15:
	.cfi_def_cfa_offset 96
	mov	edx, DWORD PTR [esp+96]
	mov	DWORD PTR [esp+36], edx
	mov	esi, DWORD PTR [esp+100]
	mov	ebx, DWORD PTR [esp+104]
	mov	edi, DWORD PTR [esp+108]
	mov	edx, DWORD PTR [esp+112]
	mov	DWORD PTR [esp+40], edx
	mov	edx, DWORD PTR [esp+116]
	mov	DWORD PTR [esp+32], edx
	mov	edx, DWORD PTR [esp+120]
	mov	DWORD PTR [esp+44], edx
	.loc 1 111 0
	mov	eax, DWORD PTR ___stack_chk_guard
	mov	DWORD PTR [esp+60], eax
	xor	eax, eax
LBB43:
	.loc 1 114 0
	test	esi, esi
	je	L48
LVL17:
LBE43:
LBB44:
	.loc 1 115 0
	lea	eax, [ebx+1]
	cmp	eax, 1
	jbe	L49
LVL18:
LBE44:
LBB45:
	.loc 1 116 0
	test	edi, edi
	je	L37
LVL19:
LBE45:
LBB46:
	.loc 1 117 0
	call	_purple_ssl_is_supported
LVL20:
	test	eax, eax
	je	L50
LVL21:
LBE46:
	.loc 1 119 0
	mov	ecx, DWORD PTR __ssl_initialized
	test	ecx, ecx
	jne	L41
	.loc 1 121 0
	call	_ssl_init
LVL22:
	test	eax, eax
	je	L43
L41:
	.loc 1 125 0
	mov	DWORD PTR [esp], 48
	call	_g_malloc0
LVL23:
	mov	ebp, eax
LVL24:
	.loc 1 127 0
	mov	DWORD PTR [eax+28], -1
	.loc 1 128 0
	mov	eax, DWORD PTR [esp+32]
LVL25:
	test	eax, eax
	je	L34
	.loc 1 128 0 is_stmt 0 discriminator 1
	mov	edx, DWORD PTR [esp+32]
	mov	DWORD PTR [esp], edx
	call	_g_strdup
LVL26:
L35:
	.loc 1 128 0 discriminator 3
	mov	DWORD PTR [ebp+0], eax
	.loc 1 129 0 is_stmt 1 discriminator 3
	mov	DWORD PTR [ebp+4], ebx
	.loc 1 130 0 discriminator 3
	mov	edx, DWORD PTR [esp+44]
	mov	DWORD PTR [ebp+8], edx
	.loc 1 131 0 discriminator 3
	mov	DWORD PTR [ebp+12], edi
	.loc 1 132 0 discriminator 3
	mov	edx, DWORD PTR [esp+40]
	mov	DWORD PTR [ebp+16], edx
	.loc 1 135 0 discriminator 3
	mov	DWORD PTR [esp+4], OFFSET FLAT:LC1
	mov	DWORD PTR [esp], OFFSET FLAT:LC2
	call	_purple_certificate_find_verifier
LVL27:
	mov	DWORD PTR [ebp+44], eax
	.loc 1 137 0 discriminator 3
	mov	DWORD PTR [esp+20], ebp
	mov	DWORD PTR [esp+16], OFFSET FLAT:_purple_ssl_connect_cb
	mov	DWORD PTR [esp+12], ebx
	mov	DWORD PTR [esp+8], esi
	mov	edx, DWORD PTR [esp+36]
	mov	DWORD PTR [esp+4], edx
	mov	DWORD PTR [esp], 0
	call	_purple_proxy_connect
LVL28:
	mov	DWORD PTR [ebp+36], eax
	.loc 1 139 0 discriminator 3
	test	eax, eax
	jne	L33
	.loc 1 141 0
	mov	eax, DWORD PTR [ebp+0]
	mov	DWORD PTR [esp], eax
	call	_g_free
LVL29:
	.loc 1 142 0
	mov	DWORD PTR [esp], ebp
	call	_g_free
LVL30:
	.loc 1 144 0
	xor	ebp, ebp
LVL31:
	jmp	L33
LVL32:
	.p2align 2,,3
L50:
	.loc 1 117 0
	mov	DWORD PTR [esp+8], OFFSET FLAT:LC6
	mov	DWORD PTR [esp+4], OFFSET FLAT:___PRETTY_FUNCTION__.43928
	mov	DWORD PTR [esp], 0
	call	_g_return_if_fail_warning
LVL33:
	xor	ebp, ebp
LVL34:
L33:
	.loc 1 148 0
	mov	eax, ebp
	mov	edx, DWORD PTR [esp+60]
	xor	edx, DWORD PTR ___stack_chk_guard
	jne	L51
	add	esp, 76
LCFI16:
	.cfi_remember_state
	.cfi_def_cfa_offset 20
	pop	ebx
LCFI17:
	.cfi_restore 3
	.cfi_def_cfa_offset 16
	pop	esi
LCFI18:
	.cfi_restore 6
	.cfi_def_cfa_offset 12
	pop	edi
LCFI19:
	.cfi_restore 7
	.cfi_def_cfa_offset 8
	pop	ebp
LCFI20:
	.cfi_restore 5
	.cfi_def_cfa_offset 4
	ret
LVL35:
	.p2align 2,,3
L49:
LCFI21:
	.cfi_restore_state
	.loc 1 115 0
	mov	DWORD PTR [esp+8], OFFSET FLAT:LC4
	mov	DWORD PTR [esp+4], OFFSET FLAT:___PRETTY_FUNCTION__.43928
	mov	DWORD PTR [esp], 0
	call	_g_return_if_fail_warning
LVL36:
	xor	ebp, ebp
	jmp	L33
LVL37:
	.p2align 2,,3
L48:
	.loc 1 114 0
	mov	DWORD PTR [esp+8], OFFSET FLAT:LC3
	mov	DWORD PTR [esp+4], OFFSET FLAT:___PRETTY_FUNCTION__.43928
	mov	DWORD PTR [esp], 0
	call	_g_return_if_fail_warning
LVL38:
	xor	ebp, ebp
	jmp	L33
LVL39:
	.p2align 2,,3
L37:
	.loc 1 116 0
	mov	DWORD PTR [esp+8], OFFSET FLAT:LC5
	mov	DWORD PTR [esp+4], OFFSET FLAT:___PRETTY_FUNCTION__.43928
	mov	DWORD PTR [esp], 0
	call	_g_return_if_fail_warning
LVL40:
	xor	ebp, ebp
	jmp	L33
LVL41:
	.p2align 2,,3
L34:
	.loc 1 128 0 discriminator 2
	mov	DWORD PTR [esp], esi
	call	_g_strdup
LVL42:
	jmp	L35
LVL43:
	.p2align 2,,3
L43:
	.loc 1 122 0
	xor	ebp, ebp
	jmp	L33
LVL44:
L51:
	.loc 1 148 0
	call	___stack_chk_fail
LVL45:
	.cfi_endproc
LFE97:
	.p2align 2,,3
	.globl	_purple_ssl_connect
	.def	_purple_ssl_connect;	.scl	2;	.type	32;	.endef
_purple_ssl_connect:
LFB96:
	.loc 1 102 0
	.cfi_startproc
LVL46:
	sub	esp, 60
LCFI22:
	.cfi_def_cfa_offset 64
	.loc 1 102 0
	mov	eax, DWORD PTR ___stack_chk_guard
	mov	DWORD PTR [esp+44], eax
	xor	eax, eax
	.loc 1 103 0
	mov	eax, DWORD PTR [esp+84]
	mov	DWORD PTR [esp+24], eax
	mov	DWORD PTR [esp+20], 0
	mov	eax, DWORD PTR [esp+80]
	mov	DWORD PTR [esp+16], eax
	mov	eax, DWORD PTR [esp+76]
	mov	DWORD PTR [esp+12], eax
	mov	eax, DWORD PTR [esp+72]
	mov	DWORD PTR [esp+8], eax
	mov	eax, DWORD PTR [esp+68]
	mov	DWORD PTR [esp+4], eax
	mov	eax, DWORD PTR [esp+64]
	mov	DWORD PTR [esp], eax
	call	_purple_ssl_connect_with_ssl_cn
LVL47:
	.loc 1 105 0
	mov	edx, DWORD PTR [esp+44]
	xor	edx, DWORD PTR ___stack_chk_guard
	jne	L55
	add	esp, 60
LCFI23:
	.cfi_remember_state
	.cfi_def_cfa_offset 4
	ret
L55:
LCFI24:
	.cfi_restore_state
	call	___stack_chk_fail
LVL48:
	.cfi_endproc
LFE96:
	.p2align 2,,3
	.globl	_purple_ssl_input_add
	.def	_purple_ssl_input_add;	.scl	2;	.type	32;	.endef
_purple_ssl_input_add:
LFB99:
	.loc 1 161 0
	.cfi_startproc
LVL49:
	push	edi
LCFI25:
	.cfi_def_cfa_offset 8
	.cfi_offset 7, -8
	push	esi
LCFI26:
	.cfi_def_cfa_offset 12
	.cfi_offset 6, -12
	push	ebx
LCFI27:
	.cfi_def_cfa_offset 16
	.cfi_offset 3, -16
	sub	esp, 32
LCFI28:
	.cfi_def_cfa_offset 48
	mov	ebx, DWORD PTR [esp+48]
	mov	esi, DWORD PTR [esp+52]
	mov	edi, DWORD PTR [esp+56]
	.loc 1 161 0
	mov	eax, DWORD PTR ___stack_chk_guard
	mov	DWORD PTR [esp+28], eax
	xor	eax, eax
LBB47:
	.loc 1 162 0
	test	esi, esi
	je	L67
LVL50:
LBE47:
LBB48:
	.loc 1 163 0
	call	_purple_ssl_is_supported
LVL51:
	test	eax, eax
	jne	L60
LVL52:
LBE48:
	mov	eax, DWORD PTR [esp+28]
	xor	eax, DWORD PTR ___stack_chk_guard
	jne	L66
	mov	DWORD PTR [esp+56], OFFSET FLAT:LC6
LVL53:
L65:
	mov	DWORD PTR [esp+52], OFFSET FLAT:___PRETTY_FUNCTION__.43948
	mov	DWORD PTR [esp+48], 0
	.loc 1 169 0
	add	esp, 32
LCFI29:
	.cfi_remember_state
	.cfi_def_cfa_offset 16
	pop	ebx
LCFI30:
	.cfi_restore 3
	.cfi_def_cfa_offset 12
	pop	esi
LCFI31:
	.cfi_restore 6
	.cfi_def_cfa_offset 8
	pop	edi
LCFI32:
	.cfi_restore 7
	.cfi_def_cfa_offset 4
	.loc 1 163 0
	jmp	_g_return_if_fail_warning
LVL54:
	.p2align 2,,3
L60:
LCFI33:
	.cfi_restore_state
	.loc 1 165 0
	mov	DWORD PTR [ebx+20], edi
	.loc 1 166 0
	mov	DWORD PTR [ebx+24], esi
	.loc 1 168 0
	mov	DWORD PTR [esp+12], ebx
	mov	DWORD PTR [esp+8], OFFSET FLAT:_recv_cb
	mov	DWORD PTR [esp+4], 1
	mov	eax, DWORD PTR [ebx+28]
	mov	DWORD PTR [esp], eax
	call	_purple_input_add
LVL55:
	mov	DWORD PTR [ebx+32], eax
	.loc 1 169 0
	mov	eax, DWORD PTR [esp+28]
	xor	eax, DWORD PTR ___stack_chk_guard
	jne	L66
	add	esp, 32
LCFI34:
	.cfi_remember_state
	.cfi_def_cfa_offset 16
	pop	ebx
LCFI35:
	.cfi_restore 3
	.cfi_def_cfa_offset 12
	pop	esi
LCFI36:
	.cfi_restore 6
	.cfi_def_cfa_offset 8
	pop	edi
LCFI37:
	.cfi_restore 7
	.cfi_def_cfa_offset 4
	ret
LVL56:
	.p2align 2,,3
L67:
LCFI38:
	.cfi_restore_state
	.loc 1 162 0
	mov	eax, DWORD PTR [esp+28]
	xor	eax, DWORD PTR ___stack_chk_guard
	jne	L66
	mov	DWORD PTR [esp+56], OFFSET FLAT:LC5
	jmp	L65
LVL57:
L66:
	.loc 1 169 0
	call	___stack_chk_fail
LVL58:
	.cfi_endproc
LFE99:
	.section .rdata,"dr"
LC7:
	.ascii "SSL Connection Failed\0"
LC8:
	.ascii "pidgin\0"
LC9:
	.ascii "SSL Handshake Failed\0"
	.align 4
LC10:
	.ascii "SSL peer presented an invalid certificate\0"
LC11:
	.ascii "Unknown SSL error code %d\12\0"
LC12:
	.ascii "sslconn\0"
LC13:
	.ascii "Unknown SSL error\0"
	.text
	.p2align 2,,3
	.globl	_purple_ssl_strerror
	.def	_purple_ssl_strerror;	.scl	2;	.type	32;	.endef
_purple_ssl_strerror:
LFB100:
	.loc 1 173 0
	.cfi_startproc
LVL59:
	sub	esp, 44
LCFI39:
	.cfi_def_cfa_offset 48
	mov	eax, DWORD PTR [esp+48]
	.loc 1 173 0
	mov	edx, DWORD PTR ___stack_chk_guard
	mov	DWORD PTR [esp+28], edx
	xor	edx, edx
	.loc 1 174 0
	cmp	eax, 2
	je	L71
	cmp	eax, 3
	je	L72
	cmp	eax, 1
	je	L77
	.loc 1 182 0
	mov	DWORD PTR [esp+8], eax
	mov	DWORD PTR [esp+4], OFFSET FLAT:LC11
	mov	DWORD PTR [esp], OFFSET FLAT:LC12
	call	_purple_debug_warning
LVL60:
	.loc 1 183 0
	mov	DWORD PTR [esp+4], OFFSET FLAT:LC13
	mov	DWORD PTR [esp], OFFSET FLAT:LC8
	call	_libintl_dgettext
LVL61:
L73:
	.loc 1 185 0
	mov	edx, DWORD PTR [esp+28]
	xor	edx, DWORD PTR ___stack_chk_guard
	jne	L78
	add	esp, 44
LCFI40:
	.cfi_remember_state
	.cfi_def_cfa_offset 4
	ret
	.p2align 2,,3
L77:
LCFI41:
	.cfi_restore_state
	.loc 1 178 0
	mov	DWORD PTR [esp+4], OFFSET FLAT:LC9
	mov	DWORD PTR [esp], OFFSET FLAT:LC8
	call	_libintl_dgettext
LVL62:
	jmp	L73
	.p2align 2,,3
L72:
	.loc 1 180 0
	mov	DWORD PTR [esp+4], OFFSET FLAT:LC10
	mov	DWORD PTR [esp], OFFSET FLAT:LC8
	call	_libintl_dgettext
LVL63:
	jmp	L73
	.p2align 2,,3
L71:
	.loc 1 176 0
	mov	DWORD PTR [esp+4], OFFSET FLAT:LC7
	mov	DWORD PTR [esp], OFFSET FLAT:LC8
	call	_libintl_dgettext
LVL64:
	jmp	L73
L78:
	.loc 1 185 0
	call	___stack_chk_fail
LVL65:
	.cfi_endproc
LFE100:
	.section .rdata,"dr"
LC14:
	.ascii "fd != -1\0"
	.text
	.p2align 2,,3
	.globl	_purple_ssl_connect_with_host_fd
	.def	_purple_ssl_connect_with_host_fd;	.scl	2;	.type	32;	.endef
_purple_ssl_connect_with_host_fd:
LFB102:
	.loc 1 202 0
	.cfi_startproc
LVL66:
	push	ebp
LCFI42:
	.cfi_def_cfa_offset 8
	.cfi_offset 5, -8
	push	edi
LCFI43:
	.cfi_def_cfa_offset 12
	.cfi_offset 7, -12
	push	esi
LCFI44:
	.cfi_def_cfa_offset 16
	.cfi_offset 6, -16
	push	ebx
LCFI45:
	.cfi_def_cfa_offset 20
	.cfi_offset 3, -20
	sub	esp, 60
LCFI46:
	.cfi_def_cfa_offset 80
	mov	ebx, DWORD PTR [esp+84]
	mov	esi, DWORD PTR [esp+88]
	mov	edx, DWORD PTR [esp+92]
	mov	DWORD PTR [esp+24], edx
	mov	edi, DWORD PTR [esp+96]
	mov	edx, DWORD PTR [esp+100]
	mov	DWORD PTR [esp+28], edx
	.loc 1 202 0
	mov	eax, DWORD PTR ___stack_chk_guard
	mov	DWORD PTR [esp+44], eax
	xor	eax, eax
LBB49:
	.loc 1 206 0
	cmp	ebx, -1
	je	L96
LVL67:
LBE49:
LBB50:
	.loc 1 207 0
	test	esi, esi
	je	L97
LVL68:
LBE50:
LBB51:
	.loc 1 208 0
	call	_purple_ssl_is_supported
LVL69:
	test	eax, eax
	je	L85
LVL70:
LBE51:
	.loc 1 210 0
	mov	eax, DWORD PTR __ssl_initialized
	test	eax, eax
	jne	L87
	.loc 1 212 0
	call	_ssl_init
LVL71:
	test	eax, eax
	je	L89
L87:
	.loc 1 216 0
	mov	DWORD PTR [esp], 48
	call	_g_malloc0
LVL72:
	mov	ebp, eax
LVL73:
	.loc 1 218 0
	mov	edx, DWORD PTR [esp+28]
	mov	DWORD PTR [eax+8], edx
	.loc 1 219 0
	mov	DWORD PTR [eax+12], esi
	.loc 1 220 0
	mov	edx, DWORD PTR [esp+24]
	mov	DWORD PTR [eax+16], edx
	.loc 1 221 0
	mov	DWORD PTR [eax+28], ebx
	.loc 1 222 0
	test	edi, edi
	je	L83
	.loc 1 223 0
	mov	DWORD PTR [esp], edi
	call	_g_strdup
LVL74:
	mov	DWORD PTR [ebp+0], eax
L83:
	.loc 1 226 0
	mov	DWORD PTR [esp+4], OFFSET FLAT:LC1
	mov	DWORD PTR [esp], OFFSET FLAT:LC2
	call	_purple_certificate_find_verifier
LVL75:
	mov	DWORD PTR [ebp+44], eax
	.loc 1 230 0
	mov	DWORD PTR [esp], ebp
	mov	eax, DWORD PTR __ssl_ops
	call	[DWORD PTR [eax+8]]
LVL76:
	.loc 1 232 0
	jmp	L82
LVL77:
	.p2align 2,,3
L85:
	.loc 1 208 0
	mov	DWORD PTR [esp+8], OFFSET FLAT:LC6
	mov	DWORD PTR [esp+4], OFFSET FLAT:___PRETTY_FUNCTION__.43977
	mov	DWORD PTR [esp], 0
	call	_g_return_if_fail_warning
LVL78:
	xor	ebp, ebp
LVL79:
L82:
	.loc 1 233 0
	mov	eax, ebp
	mov	edx, DWORD PTR [esp+44]
	xor	edx, DWORD PTR ___stack_chk_guard
	jne	L98
	add	esp, 60
LCFI47:
	.cfi_remember_state
	.cfi_def_cfa_offset 20
	pop	ebx
LCFI48:
	.cfi_restore 3
	.cfi_def_cfa_offset 16
	pop	esi
LCFI49:
	.cfi_restore 6
	.cfi_def_cfa_offset 12
	pop	edi
LCFI50:
	.cfi_restore 7
	.cfi_def_cfa_offset 8
	pop	ebp
LCFI51:
	.cfi_restore 5
	.cfi_def_cfa_offset 4
	ret
	.p2align 2,,3
L96:
LCFI52:
	.cfi_restore_state
LVL80:
	.loc 1 206 0
	mov	DWORD PTR [esp+8], OFFSET FLAT:LC14
	mov	DWORD PTR [esp+4], OFFSET FLAT:___PRETTY_FUNCTION__.43977
	mov	DWORD PTR [esp], 0
	call	_g_return_if_fail_warning
LVL81:
	xor	ebp, ebp
	jmp	L82
LVL82:
	.p2align 2,,3
L97:
	.loc 1 207 0
	mov	DWORD PTR [esp+8], OFFSET FLAT:LC5
	mov	DWORD PTR [esp+4], OFFSET FLAT:___PRETTY_FUNCTION__.43977
	mov	DWORD PTR [esp], 0
	call	_g_return_if_fail_warning
LVL83:
	xor	ebp, ebp
	jmp	L82
LVL84:
	.p2align 2,,3
L89:
	.loc 1 213 0
	xor	ebp, ebp
	jmp	L82
LVL85:
L98:
	.loc 1 233 0
	call	___stack_chk_fail
LVL86:
	.cfi_endproc
LFE102:
	.p2align 2,,3
	.globl	_purple_ssl_connect_fd
	.def	_purple_ssl_connect_fd;	.scl	2;	.type	32;	.endef
_purple_ssl_connect_fd:
LFB101:
	.loc 1 192 0
	.cfi_startproc
LVL87:
	sub	esp, 60
LCFI53:
	.cfi_def_cfa_offset 64
	.loc 1 192 0
	mov	eax, DWORD PTR ___stack_chk_guard
	mov	DWORD PTR [esp+44], eax
	xor	eax, eax
	.loc 1 193 0
	mov	eax, DWORD PTR [esp+80]
	mov	DWORD PTR [esp+20], eax
	mov	DWORD PTR [esp+16], 0
	mov	eax, DWORD PTR [esp+76]
	mov	DWORD PTR [esp+12], eax
	mov	eax, DWORD PTR [esp+72]
	mov	DWORD PTR [esp+8], eax
	mov	eax, DWORD PTR [esp+68]
	mov	DWORD PTR [esp+4], eax
	mov	eax, DWORD PTR [esp+64]
	mov	DWORD PTR [esp], eax
	call	_purple_ssl_connect_with_host_fd
LVL88:
	.loc 1 194 0
	mov	edx, DWORD PTR [esp+44]
	xor	edx, DWORD PTR ___stack_chk_guard
	jne	L102
	add	esp, 60
LCFI54:
	.cfi_remember_state
	.cfi_def_cfa_offset 4
	ret
L102:
LCFI55:
	.cfi_restore_state
	call	___stack_chk_fail
LVL89:
	.cfi_endproc
LFE101:
	.section .rdata,"dr"
LC15:
	.ascii "gsc != NULL\0"
	.text
	.p2align 2,,3
	.globl	_purple_ssl_close
	.def	_purple_ssl_close;	.scl	2;	.type	32;	.endef
_purple_ssl_close:
LFB103:
	.loc 1 237 0
	.cfi_startproc
LVL90:
	push	ebx
LCFI56:
	.cfi_def_cfa_offset 8
	.cfi_offset 3, -8
	sub	esp, 40
LCFI57:
	.cfi_def_cfa_offset 48
	mov	ebx, DWORD PTR [esp+48]
	.loc 1 237 0
	mov	eax, DWORD PTR ___stack_chk_guard
	mov	DWORD PTR [esp+28], eax
	xor	eax, eax
LBB52:
	.loc 1 240 0
	test	ebx, ebx
	je	L119
LVL91:
LBE52:
	.loc 1 242 0
	mov	DWORD PTR [esp], ebx
	call	_purple_request_close_with_handle
LVL92:
	.loc 1 243 0
	mov	DWORD PTR [esp], ebx
	call	_purple_notify_close_with_handle
LVL93:
	.loc 1 246 0
	mov	DWORD PTR [esp], ebx
	mov	eax, DWORD PTR __ssl_ops
	call	[DWORD PTR [eax+12]]
LVL94:
	.loc 1 248 0
	mov	eax, DWORD PTR [ebx+36]
	test	eax, eax
	je	L111
	.loc 1 249 0
	mov	DWORD PTR [esp], eax
	call	_purple_proxy_connect_cancel
LVL95:
L111:
	.loc 1 251 0
	mov	eax, DWORD PTR [ebx+32]
	test	eax, eax
	jne	L120
L106:
	.loc 1 254 0
	mov	eax, DWORD PTR [ebx+28]
	test	eax, eax
	js	L107
	.loc 1 255 0
	mov	DWORD PTR [esp], eax
	call	_wpurple_close
LVL96:
L107:
	.loc 1 257 0
	mov	eax, DWORD PTR [ebx]
	mov	DWORD PTR [esp], eax
	call	_g_free
LVL97:
	.loc 1 258 0
	mov	eax, DWORD PTR [esp+28]
	xor	eax, DWORD PTR ___stack_chk_guard
	jne	L117
	mov	DWORD PTR [esp+48], ebx
	.loc 1 259 0
	add	esp, 40
LCFI58:
	.cfi_remember_state
	.cfi_def_cfa_offset 8
	pop	ebx
LCFI59:
	.cfi_restore 3
	.cfi_def_cfa_offset 4
	.loc 1 258 0
	jmp	_g_free
LVL98:
	.p2align 2,,3
L120:
LCFI60:
	.cfi_restore_state
	.loc 1 252 0
	mov	DWORD PTR [esp], eax
	call	_purple_input_remove
LVL99:
	jmp	L106
LVL100:
	.p2align 2,,3
L119:
	.loc 1 240 0
	mov	DWORD PTR [esp+8], OFFSET FLAT:LC15
	mov	DWORD PTR [esp+4], OFFSET FLAT:___PRETTY_FUNCTION__.43988
	mov	DWORD PTR [esp], 0
	call	_g_return_if_fail_warning
LVL101:
	.loc 1 259 0
	mov	eax, DWORD PTR [esp+28]
	xor	eax, DWORD PTR ___stack_chk_guard
	jne	L117
	add	esp, 40
LCFI61:
	.cfi_remember_state
	.cfi_def_cfa_offset 8
	pop	ebx
LCFI62:
	.cfi_restore 3
	.cfi_def_cfa_offset 4
	ret
LVL102:
L117:
LCFI63:
	.cfi_restore_state
	call	___stack_chk_fail
LVL103:
	.cfi_endproc
LFE103:
	.p2align 2,,3
	.def	_purple_ssl_connect_cb;	.scl	3;	.type	32;	.endef
_purple_ssl_connect_cb:
LFB95:
	.loc 1 76 0
	.cfi_startproc
LVL104:
	push	ebx
LCFI64:
	.cfi_def_cfa_offset 8
	.cfi_offset 3, -8
	sub	esp, 40
LCFI65:
	.cfi_def_cfa_offset 48
	mov	ebx, DWORD PTR [esp+48]
	mov	eax, DWORD PTR [esp+52]
	.loc 1 76 0
	mov	edx, DWORD PTR ___stack_chk_guard
	mov	DWORD PTR [esp+28], edx
	xor	edx, edx
LVL105:
	.loc 1 81 0
	mov	DWORD PTR [ebx+36], 0
	.loc 1 83 0
	test	eax, eax
	js	L132
	.loc 1 92 0
	mov	DWORD PTR [ebx+28], eax
	.loc 1 95 0
	mov	edx, DWORD PTR [esp+28]
	xor	edx, DWORD PTR ___stack_chk_guard
	jne	L131
	mov	DWORD PTR [esp+48], ebx
	mov	eax, DWORD PTR __ssl_ops
	mov	eax, DWORD PTR [eax+8]
	.loc 1 96 0
	add	esp, 40
LCFI66:
	.cfi_remember_state
	.cfi_def_cfa_offset 8
	pop	ebx
LCFI67:
	.cfi_restore 3
	.cfi_def_cfa_offset 4
LVL106:
	.loc 1 95 0
	jmp	eax
LVL107:
	.p2align 2,,3
L132:
LCFI68:
	.cfi_restore_state
LBB59:
LBB60:
	.loc 1 85 0
	mov	eax, DWORD PTR [ebx+16]
	test	eax, eax
	je	L123
	.loc 1 86 0
	mov	edx, DWORD PTR [ebx+8]
	mov	DWORD PTR [esp+8], edx
	mov	DWORD PTR [esp+4], 2
	mov	DWORD PTR [esp], ebx
	call	eax
LVL108:
L123:
	.loc 1 88 0
	mov	eax, DWORD PTR [esp+28]
	xor	eax, DWORD PTR ___stack_chk_guard
	jne	L131
	mov	DWORD PTR [esp+48], ebx
LBE60:
LBE59:
	.loc 1 96 0
	add	esp, 40
LCFI69:
	.cfi_remember_state
	.cfi_def_cfa_offset 8
	pop	ebx
LCFI70:
	.cfi_restore 3
	.cfi_def_cfa_offset 4
LVL109:
LBB62:
LBB61:
	.loc 1 88 0
	jmp	_purple_ssl_close
LVL110:
L131:
LCFI71:
	.cfi_restore_state
LBE61:
LBE62:
	.loc 1 95 0
	call	___stack_chk_fail
LVL111:
	.cfi_endproc
LFE95:
	.section .rdata,"dr"
LC16:
	.ascii "data != NULL\0"
LC17:
	.ascii "len > 0\0"
	.text
	.p2align 2,,3
	.globl	_purple_ssl_read
	.def	_purple_ssl_read;	.scl	2;	.type	32;	.endef
_purple_ssl_read:
LFB104:
	.loc 1 263 0
	.cfi_startproc
LVL112:
	push	ebx
LCFI72:
	.cfi_def_cfa_offset 8
	.cfi_offset 3, -8
	sub	esp, 40
LCFI73:
	.cfi_def_cfa_offset 48
	mov	eax, DWORD PTR [esp+48]
	mov	edx, DWORD PTR [esp+52]
	mov	ecx, DWORD PTR [esp+56]
	.loc 1 263 0
	mov	ebx, DWORD PTR ___stack_chk_guard
	mov	DWORD PTR [esp+28], ebx
	xor	ebx, ebx
LBB63:
	.loc 1 266 0
	test	eax, eax
	je	L144
LVL113:
LBE63:
LBB64:
	.loc 1 267 0
	test	edx, edx
	je	L145
LVL114:
LBE64:
LBB65:
	.loc 1 268 0
	test	ecx, ecx
	jne	L146
LVL115:
LBE65:
	mov	DWORD PTR [esp+8], OFFSET FLAT:LC17
	mov	DWORD PTR [esp+4], OFFSET FLAT:___PRETTY_FUNCTION__.43997
	mov	DWORD PTR [esp], 0
	call	_g_return_if_fail_warning
LVL116:
L136:
	.loc 1 272 0
	xor	eax, eax
	mov	edx, DWORD PTR [esp+28]
	xor	edx, DWORD PTR ___stack_chk_guard
	jne	L142
	add	esp, 40
LCFI74:
	.cfi_remember_state
	.cfi_def_cfa_offset 8
	pop	ebx
LCFI75:
	.cfi_restore 3
	.cfi_def_cfa_offset 4
	ret
LVL117:
	.p2align 2,,3
L146:
LCFI76:
	.cfi_restore_state
	.loc 1 271 0
	mov	ebx, DWORD PTR [esp+28]
	xor	ebx, DWORD PTR ___stack_chk_guard
	jne	L142
	mov	DWORD PTR [esp+56], ecx
	mov	DWORD PTR [esp+52], edx
	mov	DWORD PTR [esp+48], eax
	mov	eax, DWORD PTR __ssl_ops
	mov	eax, DWORD PTR [eax+16]
	.loc 1 272 0
	add	esp, 40
LCFI77:
	.cfi_remember_state
	.cfi_def_cfa_offset 8
	pop	ebx
LCFI78:
	.cfi_restore 3
	.cfi_def_cfa_offset 4
	.loc 1 271 0
	jmp	eax
LVL118:
	.p2align 2,,3
L144:
LCFI79:
	.cfi_restore_state
	.loc 1 266 0
	mov	DWORD PTR [esp+8], OFFSET FLAT:LC15
	mov	DWORD PTR [esp+4], OFFSET FLAT:___PRETTY_FUNCTION__.43997
	mov	DWORD PTR [esp], 0
	call	_g_return_if_fail_warning
LVL119:
	jmp	L136
LVL120:
	.p2align 2,,3
L145:
	.loc 1 267 0
	mov	DWORD PTR [esp+8], OFFSET FLAT:LC16
	mov	DWORD PTR [esp+4], OFFSET FLAT:___PRETTY_FUNCTION__.43997
	mov	DWORD PTR [esp], 0
	call	_g_return_if_fail_warning
LVL121:
	jmp	L136
LVL122:
L142:
	.loc 1 272 0
	call	___stack_chk_fail
LVL123:
	.cfi_endproc
LFE104:
	.p2align 2,,3
	.globl	_purple_ssl_write
	.def	_purple_ssl_write;	.scl	2;	.type	32;	.endef
_purple_ssl_write:
LFB105:
	.loc 1 276 0
	.cfi_startproc
LVL124:
	push	ebx
LCFI80:
	.cfi_def_cfa_offset 8
	.cfi_offset 3, -8
	sub	esp, 40
LCFI81:
	.cfi_def_cfa_offset 48
	mov	eax, DWORD PTR [esp+48]
	mov	edx, DWORD PTR [esp+52]
	mov	ecx, DWORD PTR [esp+56]
	.loc 1 276 0
	mov	ebx, DWORD PTR ___stack_chk_guard
	mov	DWORD PTR [esp+28], ebx
	xor	ebx, ebx
LBB66:
	.loc 1 279 0
	test	eax, eax
	je	L158
LVL125:
LBE66:
LBB67:
	.loc 1 280 0
	test	edx, edx
	je	L159
LVL126:
LBE67:
LBB68:
	.loc 1 281 0
	test	ecx, ecx
	jne	L160
LVL127:
LBE68:
	mov	DWORD PTR [esp+8], OFFSET FLAT:LC17
	mov	DWORD PTR [esp+4], OFFSET FLAT:___PRETTY_FUNCTION__.44010
	mov	DWORD PTR [esp], 0
	call	_g_return_if_fail_warning
LVL128:
L150:
	.loc 1 285 0
	xor	eax, eax
	mov	edx, DWORD PTR [esp+28]
	xor	edx, DWORD PTR ___stack_chk_guard
	jne	L156
	add	esp, 40
LCFI82:
	.cfi_remember_state
	.cfi_def_cfa_offset 8
	pop	ebx
LCFI83:
	.cfi_restore 3
	.cfi_def_cfa_offset 4
	ret
LVL129:
	.p2align 2,,3
L160:
LCFI84:
	.cfi_restore_state
	.loc 1 284 0
	mov	ebx, DWORD PTR [esp+28]
	xor	ebx, DWORD PTR ___stack_chk_guard
	jne	L156
	mov	DWORD PTR [esp+56], ecx
	mov	DWORD PTR [esp+52], edx
	mov	DWORD PTR [esp+48], eax
	mov	eax, DWORD PTR __ssl_ops
	mov	eax, DWORD PTR [eax+20]
	.loc 1 285 0
	add	esp, 40
LCFI85:
	.cfi_remember_state
	.cfi_def_cfa_offset 8
	pop	ebx
LCFI86:
	.cfi_restore 3
	.cfi_def_cfa_offset 4
	.loc 1 284 0
	jmp	eax
LVL130:
	.p2align 2,,3
L158:
LCFI87:
	.cfi_restore_state
	.loc 1 279 0
	mov	DWORD PTR [esp+8], OFFSET FLAT:LC15
	mov	DWORD PTR [esp+4], OFFSET FLAT:___PRETTY_FUNCTION__.44010
	mov	DWORD PTR [esp], 0
	call	_g_return_if_fail_warning
LVL131:
	jmp	L150
LVL132:
	.p2align 2,,3
L159:
	.loc 1 280 0
	mov	DWORD PTR [esp+8], OFFSET FLAT:LC16
	mov	DWORD PTR [esp+4], OFFSET FLAT:___PRETTY_FUNCTION__.44010
	mov	DWORD PTR [esp], 0
	call	_g_return_if_fail_warning
LVL133:
	jmp	L150
LVL134:
L156:
	.loc 1 285 0
	call	___stack_chk_fail
LVL135:
	.cfi_endproc
LFE105:
	.p2align 2,,3
	.globl	_purple_ssl_get_peer_certificates
	.def	_purple_ssl_get_peer_certificates;	.scl	2;	.type	32;	.endef
_purple_ssl_get_peer_certificates:
LFB106:
	.loc 1 289 0
	.cfi_startproc
LVL136:
	sub	esp, 44
LCFI88:
	.cfi_def_cfa_offset 48
	mov	eax, DWORD PTR [esp+48]
	.loc 1 289 0
	mov	edx, DWORD PTR ___stack_chk_guard
	mov	DWORD PTR [esp+28], edx
	xor	edx, edx
LBB69:
	.loc 1 292 0
	test	eax, eax
	je	L169
LVL137:
LBE69:
	.loc 1 295 0
	mov	edx, DWORD PTR [esp+28]
	xor	edx, DWORD PTR ___stack_chk_guard
	jne	L167
	mov	DWORD PTR [esp+48], eax
	mov	eax, DWORD PTR __ssl_ops
	mov	eax, DWORD PTR [eax+24]
	.loc 1 296 0
	add	esp, 44
LCFI89:
	.cfi_remember_state
	.cfi_def_cfa_offset 4
	.loc 1 295 0
	jmp	eax
LVL138:
	.p2align 2,,3
L169:
LCFI90:
	.cfi_restore_state
	.loc 1 292 0
	mov	DWORD PTR [esp+8], OFFSET FLAT:LC15
	mov	DWORD PTR [esp+4], OFFSET FLAT:___PRETTY_FUNCTION__.44021
	mov	DWORD PTR [esp], 0
	call	_g_return_if_fail_warning
LVL139:
	.loc 1 296 0
	xor	eax, eax
	mov	edx, DWORD PTR [esp+28]
	xor	edx, DWORD PTR ___stack_chk_guard
	jne	L167
	add	esp, 44
LCFI91:
	.cfi_remember_state
	.cfi_def_cfa_offset 4
	ret
LVL140:
L167:
LCFI92:
	.cfi_restore_state
	call	___stack_chk_fail
LVL141:
	.cfi_endproc
LFE106:
	.p2align 2,,3
	.globl	_purple_ssl_set_ops
	.def	_purple_ssl_set_ops;	.scl	2;	.type	32;	.endef
_purple_ssl_set_ops:
LFB107:
	.loc 1 300 0
	.cfi_startproc
LVL142:
	sub	esp, 28
LCFI93:
	.cfi_def_cfa_offset 32
	.loc 1 300 0
	mov	eax, DWORD PTR ___stack_chk_guard
	mov	DWORD PTR [esp+12], eax
	xor	eax, eax
	.loc 1 301 0
	mov	eax, DWORD PTR [esp+32]
	mov	DWORD PTR __ssl_ops, eax
	.loc 1 302 0
	mov	eax, DWORD PTR [esp+12]
	xor	eax, DWORD PTR ___stack_chk_guard
	jne	L173
	add	esp, 28
LCFI94:
	.cfi_remember_state
	.cfi_def_cfa_offset 4
	ret
L173:
LCFI95:
	.cfi_restore_state
	call	___stack_chk_fail
LVL143:
	.cfi_endproc
LFE107:
	.p2align 2,,3
	.globl	_purple_ssl_get_ops
	.def	_purple_ssl_get_ops;	.scl	2;	.type	32;	.endef
_purple_ssl_get_ops:
LFB108:
	.loc 1 306 0
	.cfi_startproc
	sub	esp, 28
LCFI96:
	.cfi_def_cfa_offset 32
	.loc 1 306 0
	mov	eax, DWORD PTR ___stack_chk_guard
	mov	DWORD PTR [esp+12], eax
	xor	eax, eax
	.loc 1 308 0
	mov	eax, DWORD PTR __ssl_ops
	mov	edx, DWORD PTR [esp+12]
	xor	edx, DWORD PTR ___stack_chk_guard
	jne	L177
	add	esp, 28
LCFI97:
	.cfi_remember_state
	.cfi_def_cfa_offset 4
	ret
L177:
LCFI98:
	.cfi_restore_state
	call	___stack_chk_fail
LVL144:
	.cfi_endproc
LFE108:
	.section .rdata,"dr"
LC18:
	.ascii "Unable to initialize SSL.\12\0"
	.text
	.p2align 2,,3
	.globl	_purple_ssl_init
	.def	_purple_ssl_init;	.scl	2;	.type	32;	.endef
_purple_ssl_init:
LFB109:
	.loc 1 312 0
	.cfi_startproc
	sub	esp, 44
LCFI99:
	.cfi_def_cfa_offset 48
	.loc 1 312 0
	mov	eax, DWORD PTR ___stack_chk_guard
	mov	DWORD PTR [esp+28], eax
	xor	eax, eax
	.loc 1 316 0
	call	_ssl_init
LVL145:
	test	eax, eax
	jne	L178
	.loc 1 317 0
	mov	DWORD PTR [esp+4], OFFSET FLAT:LC18
	mov	DWORD PTR [esp], OFFSET FLAT:LC12
	call	_purple_debug_error
LVL146:
L178:
	.loc 1 319 0
	mov	eax, DWORD PTR [esp+28]
	xor	eax, DWORD PTR ___stack_chk_guard
	jne	L182
	add	esp, 44
LCFI100:
	.cfi_remember_state
	.cfi_def_cfa_offset 4
	ret
L182:
LCFI101:
	.cfi_restore_state
	call	___stack_chk_fail
LVL147:
	.cfi_endproc
LFE109:
	.p2align 2,,3
	.globl	_purple_ssl_uninit
	.def	_purple_ssl_uninit;	.scl	2;	.type	32;	.endef
_purple_ssl_uninit:
LFB110:
	.loc 1 323 0
	.cfi_startproc
	sub	esp, 28
LCFI102:
	.cfi_def_cfa_offset 32
	.loc 1 323 0
	mov	eax, DWORD PTR ___stack_chk_guard
	mov	DWORD PTR [esp+12], eax
	xor	eax, eax
	.loc 1 326 0
	mov	eax, DWORD PTR __ssl_initialized
	test	eax, eax
	je	L183
	.loc 1 330 0
	mov	eax, DWORD PTR __ssl_ops
	call	[DWORD PTR [eax+4]]
LVL148:
	.loc 1 332 0
	mov	DWORD PTR __ssl_initialized, 0
L183:
	.loc 1 333 0
	mov	eax, DWORD PTR [esp+12]
	xor	eax, DWORD PTR ___stack_chk_guard
	jne	L187
	add	esp, 28
LCFI103:
	.cfi_remember_state
	.cfi_def_cfa_offset 4
	ret
L187:
LCFI104:
	.cfi_restore_state
	call	___stack_chk_fail
LVL149:
	.cfi_endproc
LFE110:
.lcomm __ssl_ops,4,4
.lcomm __ssl_initialized,4,4
	.section .rdata,"dr"
	.align 4
___PRETTY_FUNCTION__.43928:
	.ascii "purple_ssl_connect_with_ssl_cn\0"
___PRETTY_FUNCTION__.43948:
	.ascii "purple_ssl_input_add\0"
	.align 32
___PRETTY_FUNCTION__.43977:
	.ascii "purple_ssl_connect_with_host_fd\0"
___PRETTY_FUNCTION__.43988:
	.ascii "purple_ssl_close\0"
___PRETTY_FUNCTION__.43997:
	.ascii "purple_ssl_read\0"
___PRETTY_FUNCTION__.44010:
	.ascii "purple_ssl_write\0"
	.align 32
___PRETTY_FUNCTION__.44021:
	.ascii "purple_ssl_get_peer_certificates\0"
	.text
Letext0:
	.file 2 "c:/workspace/pidgin-devel/win32-dev/mingw-4.7.2/bin/../lib/gcc/mingw32/4.7.2/../../../../include/stdio.h"
	.file 3 "c:/workspace/pidgin-devel/win32-dev/mingw-4.7.2/bin/../lib/gcc/mingw32/4.7.2/include/stddef.h"
	.file 4 "c:/workspace/pidgin-devel/win32-dev/mingw-4.7.2/bin/../lib/gcc/mingw32/4.7.2/../../../../include/sys/types.h"
	.file 5 "c:/workspace/pidgin-devel/win32-dev/mingw-4.7.2/bin/../lib/gcc/mingw32/4.7.2/../../../../include/time.h"
	.file 6 "../../win32-dev/gtk_2_0-2.14/lib/glib-2.0/include/glibconfig.h"
	.file 7 "../../win32-dev/gtk_2_0-2.14/include/glib-2.0/glib/gtypes.h"
	.file 8 "../../win32-dev/gtk_2_0-2.14/include/glib-2.0/glib/garray.h"
	.file 9 "../../win32-dev/gtk_2_0-2.14/include/glib-2.0/glib/glist.h"
	.file 10 "../../win32-dev/gtk_2_0-2.14/include/glib-2.0/glib/ghash.h"
	.file 11 "../../win32-dev/gtk_2_0-2.14/include/glib-2.0/glib/gslist.h"
	.file 12 "account.h"
	.file 13 "connection.h"
	.file 14 "plugin.h"
	.file 15 "pluginpref.h"
	.file 16 "status.h"
	.file 17 "buddyicon.h"
	.file 18 "conversation.h"
	.file 19 "log.h"
	.file 20 "eventloop.h"
	.file 21 "proxy.h"
	.file 22 "sslconn.h"
	.file 23 "certificate.h"
	.file 24 "c:/workspace/pidgin-devel/win32-dev/mingw-4.7.2/bin/../lib/gcc/mingw32/4.7.2/../../../../include/wtypes.h"
	.file 25 "privacy.h"
	.file 26 "c:/workspace/pidgin-devel/win32-dev/mingw-4.7.2/bin/../lib/gcc/mingw32/4.7.2/../../../../include/ctype.h"
	.file 27 "../../win32-dev/gtk_2_0-2.14/include/glib-2.0/glib/gmem.h"
	.file 28 "../../win32-dev/gtk_2_0-2.14/include/glib-2.0/glib/gstrfuncs.h"
	.file 29 "../../win32-dev/gtk_2_0-2.14/include/glib-2.0/glib/gmessages.h"
	.file 30 "debug.h"
	.file 31 "../../win32-dev/gtk_2_0-2.14/include/libintl.h"
	.file 32 "request.h"
	.file 33 "media/../notify.h"
	.file 34 "../libpurple/win32/libc_internal.h"