	.file	"stringref.c"
	.intel_syntax noprefix
	.text
Ltext0:
	.p2align 2,,3
	.def	_gs_idle_cb;	.scl	3;	.type	32;	.endef
_gs_idle_cb:
LFB102:
	.file 1 "stringref.c"
	.loc 1 165 0
	.cfi_startproc
LVL0:
	sub	esp, 44
LCFI0:
	.cfi_def_cfa_offset 48
	.loc 1 165 0
	mov	eax, DWORD PTR ___stack_chk_guard
	mov	DWORD PTR [esp+28], eax
	xor	eax, eax
	.loc 1 169 0
	mov	eax, DWORD PTR _gclist
	test	eax, eax
	jne	L7
	jmp	L5
LVL1:
	.p2align 2,,3
L3:
	.loc 1 175 0
	mov	edx, DWORD PTR [eax+4]
	mov	DWORD PTR _gclist, edx
	.loc 1 176 0
	mov	DWORD PTR [esp], eax
	call	_g_list_free_1
LVL2:
	.loc 1 169 0
	mov	eax, DWORD PTR _gclist
	test	eax, eax
	je	L5
L7:
	.loc 1 170 0
	mov	edx, DWORD PTR [eax]
LVL3:
	.loc 1 171 0
	test	DWORD PTR [edx], 2147483647
	jne	L3
LVL4:
LBB12:
LBB13:
	.loc 1 161 0
	mov	DWORD PTR [esp], edx
	call	_g_free
LVL5:
	mov	eax, DWORD PTR _gclist
	jmp	L3
	.p2align 2,,3
L5:
LBE13:
LBE12:
	.loc 1 180 0
	xor	eax, eax
	mov	edx, DWORD PTR [esp+28]
	xor	edx, DWORD PTR ___stack_chk_guard
	jne	L12
	add	esp, 44
LCFI1:
	.cfi_remember_state
	.cfi_def_cfa_offset 4
	ret
L12:
LCFI2:
	.cfi_restore_state
	call	___stack_chk_fail
LVL6:
	.cfi_endproc
LFE102:
	.p2align 2,,3
	.globl	_purple_stringref_new
	.def	_purple_stringref_new;	.scl	2;	.type	32;	.endef
_purple_stringref_new:
LFB93:
	.loc 1 66 0
	.cfi_startproc
LVL7:
	push	edi
LCFI3:
	.cfi_def_cfa_offset 8
	.cfi_offset 7, -8
	push	esi
LCFI4:
	.cfi_def_cfa_offset 12
	.cfi_offset 6, -12
	push	ebx
LCFI5:
	.cfi_def_cfa_offset 16
	.cfi_offset 3, -16
	sub	esp, 32
LCFI6:
	.cfi_def_cfa_offset 48
	mov	esi, DWORD PTR [esp+48]
	.loc 1 66 0
	mov	eax, DWORD PTR ___stack_chk_guard
	mov	DWORD PTR [esp+28], eax
	xor	eax, eax
	.loc 1 70 0
	test	esi, esi
	je	L16
	.loc 1 73 0
	mov	ecx, -1
	mov	edi, esi
	repne scasb
LVL8:
	mov	ebx, ecx
	not	ebx
	.loc 1 75 0
	lea	eax, [ebx+7]
	mov	DWORD PTR [esp], eax
	call	_g_malloc
LVL9:
	mov	edi, eax
LVL10:
	.loc 1 78 0
	mov	DWORD PTR [esp+8], ebx
	mov	DWORD PTR [esp+4], esi
	lea	eax, [eax+4]
LVL11:
	mov	DWORD PTR [esp], eax
	call	_g_strlcpy
LVL12:
	.loc 1 79 0
	mov	DWORD PTR [edi], 1
LVL13:
L14:
	.loc 1 82 0
	mov	eax, edi
	mov	edx, DWORD PTR [esp+28]
	xor	edx, DWORD PTR ___stack_chk_guard
	jne	L18
	add	esp, 32
LCFI7:
	.cfi_remember_state
	.cfi_def_cfa_offset 16
	pop	ebx
LCFI8:
	.cfi_restore 3
	.cfi_def_cfa_offset 12
	pop	esi
LCFI9:
	.cfi_restore 6
	.cfi_def_cfa_offset 8
	pop	edi
LCFI10:
	.cfi_restore 7
	.cfi_def_cfa_offset 4
	ret
LVL14:
	.p2align 2,,3
L16:
LCFI11:
	.cfi_restore_state
	.loc 1 71 0
	xor	edi, edi
	jmp	L14
LVL15:
L18:
	.loc 1 82 0
	call	___stack_chk_fail
LVL16:
	.cfi_endproc
LFE93:
	.p2align 2,,3
	.globl	_purple_stringref_new_noref
	.def	_purple_stringref_new_noref;	.scl	2;	.type	32;	.endef
_purple_stringref_new_noref:
LFB94:
	.loc 1 85 0
	.cfi_startproc
LVL17:
	push	edi
LCFI12:
	.cfi_def_cfa_offset 8
	.cfi_offset 7, -8
	push	esi
LCFI13:
	.cfi_def_cfa_offset 12
	.cfi_offset 6, -12
	push	ebx
LCFI14:
	.cfi_def_cfa_offset 16
	.cfi_offset 3, -16
	sub	esp, 32
LCFI15:
	.cfi_def_cfa_offset 48
	mov	esi, DWORD PTR [esp+48]
	.loc 1 85 0
	mov	eax, DWORD PTR ___stack_chk_guard
	mov	DWORD PTR [esp+28], eax
	xor	eax, eax
	.loc 1 88 0
	test	esi, esi
	je	L23
	.loc 1 91 0
	mov	ecx, -1
	mov	edi, esi
	repne scasb
LVL18:
	not	ecx
	add	ecx, 7
	mov	DWORD PTR [esp], ecx
	call	_g_malloc
LVL19:
	mov	ebx, eax
LVL20:
	.loc 1 92 0
	mov	DWORD PTR [esp+4], esi
	lea	eax, [eax+4]
LVL21:
	mov	DWORD PTR [esp], eax
	call	_strcpy
LVL22:
	.loc 1 93 0
	mov	DWORD PTR [ebx], -2147483648
	.loc 1 95 0
	mov	eax, DWORD PTR _gclist
	test	eax, eax
	je	L25
L21:
	.loc 1 97 0
	mov	DWORD PTR [esp+4], ebx
	mov	DWORD PTR [esp], eax
	call	_g_list_prepend
LVL23:
	mov	DWORD PTR _gclist, eax
LVL24:
L20:
	.loc 1 100 0
	mov	eax, ebx
	mov	edx, DWORD PTR [esp+28]
	xor	edx, DWORD PTR ___stack_chk_guard
	jne	L26
	add	esp, 32
LCFI16:
	.cfi_remember_state
	.cfi_def_cfa_offset 16
	pop	ebx
LCFI17:
	.cfi_restore 3
	.cfi_def_cfa_offset 12
	pop	esi
LCFI18:
	.cfi_restore 6
	.cfi_def_cfa_offset 8
	pop	edi
LCFI19:
	.cfi_restore 7
	.cfi_def_cfa_offset 4
	ret
LVL25:
	.p2align 2,,3
L25:
LCFI20:
	.cfi_restore_state
	.loc 1 96 0
	mov	DWORD PTR [esp+8], 0
	mov	DWORD PTR [esp+4], OFFSET FLAT:_gs_idle_cb
	mov	DWORD PTR [esp], 0
	call	_purple_timeout_add
LVL26:
	mov	eax, DWORD PTR _gclist
	jmp	L21
LVL27:
	.p2align 2,,3
L23:
	.loc 1 89 0
	xor	ebx, ebx
	jmp	L20
LVL28:
L26:
	.loc 1 100 0
	call	___stack_chk_fail
LVL29:
	.cfi_endproc
LFE94:
	.p2align 2,,3
	.globl	_purple_stringref_printf
	.def	_purple_stringref_printf;	.scl	2;	.type	32;	.endef
_purple_stringref_printf:
LFB95:
	.loc 1 103 0
	.cfi_startproc
LVL30:
	push	edi
LCFI21:
	.cfi_def_cfa_offset 8
	.cfi_offset 7, -8
	push	esi
LCFI22:
	.cfi_def_cfa_offset 12
	.cfi_offset 6, -12
	push	ebx
LCFI23:
	.cfi_def_cfa_offset 16
	.cfi_offset 3, -16
	sub	esp, 32
LCFI24:
	.cfi_def_cfa_offset 48
	mov	ebx, DWORD PTR [esp+48]
	.loc 1 103 0
	mov	eax, DWORD PTR ___stack_chk_guard
	mov	DWORD PTR [esp+28], eax
	xor	eax, eax
	.loc 1 107 0
	test	ebx, ebx
	je	L30
	.loc 1 110 0
	lea	edi, [esp+52]
LVL31:
	.loc 1 111 0
	mov	DWORD PTR [esp+4], edi
	mov	DWORD PTR [esp], ebx
	call	_g_printf_string_upper_bound
LVL32:
	add	eax, 8
	mov	DWORD PTR [esp], eax
	call	_g_malloc
LVL33:
	mov	esi, eax
LVL34:
	.loc 1 112 0
	mov	DWORD PTR [esp+8], edi
	mov	DWORD PTR [esp+4], ebx
	lea	eax, [eax+4]
LVL35:
	mov	DWORD PTR [esp], eax
	call	_libintl_vsprintf
LVL36:
	.loc 1 114 0
	mov	DWORD PTR [esi], 1
LVL37:
L28:
	.loc 1 117 0
	mov	eax, esi
	mov	edx, DWORD PTR [esp+28]
	xor	edx, DWORD PTR ___stack_chk_guard
	jne	L32
	add	esp, 32
LCFI25:
	.cfi_remember_state
	.cfi_def_cfa_offset 16
	pop	ebx
LCFI26:
	.cfi_restore 3
	.cfi_def_cfa_offset 12
	pop	esi
LCFI27:
	.cfi_restore 6
	.cfi_def_cfa_offset 8
	pop	edi
LCFI28:
	.cfi_restore 7
	.cfi_def_cfa_offset 4
	ret
	.p2align 2,,3
L30:
LCFI29:
	.cfi_restore_state
	.loc 1 108 0
	xor	esi, esi
	jmp	L28
L32:
	.loc 1 117 0
	call	___stack_chk_fail
LVL38:
	.cfi_endproc
LFE95:
	.p2align 2,,3
	.globl	_purple_stringref_ref
	.def	_purple_stringref_ref;	.scl	2;	.type	32;	.endef
_purple_stringref_ref:
LFB96:
	.loc 1 120 0
	.cfi_startproc
LVL39:
	sub	esp, 28
LCFI30:
	.cfi_def_cfa_offset 32
	mov	eax, DWORD PTR [esp+32]
	.loc 1 120 0
	mov	edx, DWORD PTR ___stack_chk_guard
	mov	DWORD PTR [esp+12], edx
	xor	edx, edx
	.loc 1 121 0
	test	eax, eax
	je	L34
	.loc 1 123 0
	inc	DWORD PTR [eax]
L34:
	.loc 1 125 0
	mov	edx, DWORD PTR [esp+12]
	xor	edx, DWORD PTR ___stack_chk_guard
	jne	L40
	add	esp, 28
LCFI31:
	.cfi_remember_state
	.cfi_def_cfa_offset 4
	ret
L40:
LCFI32:
	.cfi_restore_state
	call	___stack_chk_fail
LVL40:
	.cfi_endproc
LFE96:
	.p2align 2,,3
	.globl	_purple_stringref_unref
	.def	_purple_stringref_unref;	.scl	2;	.type	32;	.endef
_purple_stringref_unref:
LFB97:
	.loc 1 128 0
	.cfi_startproc
LVL41:
	push	ebx
LCFI33:
	.cfi_def_cfa_offset 8
	.cfi_offset 3, -8
	sub	esp, 40
LCFI34:
	.cfi_def_cfa_offset 48
	mov	ebx, DWORD PTR [esp+48]
	.loc 1 128 0
	mov	eax, DWORD PTR ___stack_chk_guard
	mov	DWORD PTR [esp+28], eax
	xor	eax, eax
	.loc 1 129 0
	test	ebx, ebx
	je	L41
	.loc 1 131 0
	mov	eax, DWORD PTR [ebx]
	dec	eax
	mov	DWORD PTR [ebx], eax
	test	eax, 2147483647
	jne	L41
	.loc 1 132 0
	test	eax, eax
	js	L50
L45:
LVL42:
LBB14:
LBB15:
	.loc 1 161 0
	mov	eax, DWORD PTR [esp+28]
	xor	eax, DWORD PTR ___stack_chk_guard
	jne	L49
	mov	DWORD PTR [esp+48], ebx
LBE15:
LBE14:
	.loc 1 136 0
	add	esp, 40
LCFI35:
	.cfi_remember_state
	.cfi_def_cfa_offset 8
	pop	ebx
LCFI36:
	.cfi_restore 3
	.cfi_def_cfa_offset 4
LVL43:
LBB17:
LBB16:
	.loc 1 161 0
	jmp	_g_free
LVL44:
	.p2align 2,,3
L41:
LCFI37:
	.cfi_restore_state
LBE16:
LBE17:
	.loc 1 136 0
	mov	eax, DWORD PTR [esp+28]
	xor	eax, DWORD PTR ___stack_chk_guard
	jne	L49
	add	esp, 40
LCFI38:
	.cfi_remember_state
	.cfi_def_cfa_offset 8
	pop	ebx
LCFI39:
	.cfi_restore 3
	.cfi_def_cfa_offset 4
	ret
	.p2align 2,,3
L50:
LCFI40:
	.cfi_restore_state
	.loc 1 133 0
	mov	DWORD PTR [esp+4], ebx
	mov	eax, DWORD PTR _gclist
	mov	DWORD PTR [esp], eax
	call	_g_list_remove
LVL45:
	mov	DWORD PTR _gclist, eax
	jmp	L45
L49:
	.loc 1 136 0
	call	___stack_chk_fail
LVL46:
	.cfi_endproc
LFE97:
	.p2align 2,,3
	.globl	_purple_stringref_value
	.def	_purple_stringref_value;	.scl	2;	.type	32;	.endef
_purple_stringref_value:
LFB98:
	.loc 1 139 0
	.cfi_startproc
LVL47:
	sub	esp, 28
LCFI41:
	.cfi_def_cfa_offset 32
	mov	eax, DWORD PTR [esp+32]
	.loc 1 139 0
	mov	edx, DWORD PTR ___stack_chk_guard
	mov	DWORD PTR [esp+12], edx
	xor	edx, edx
	.loc 1 140 0
	test	eax, eax
	je	L54
	.loc 1 140 0 is_stmt 0 discriminator 1
	add	eax, 4
L52:
	.loc 1 141 0 is_stmt 1 discriminator 3
	mov	edx, DWORD PTR [esp+12]
	xor	edx, DWORD PTR ___stack_chk_guard
	jne	L56
	.loc 1 141 0 is_stmt 0
	add	esp, 28
LCFI42:
	.cfi_remember_state
	.cfi_def_cfa_offset 4
	ret
L54:
LCFI43:
	.cfi_restore_state
	.loc 1 140 0 is_stmt 1
	xor	eax, eax
	jmp	L52
L56:
	.loc 1 141 0
	call	___stack_chk_fail
LVL48:
	.cfi_endproc
LFE98:
	.p2align 2,,3
	.globl	_purple_stringref_cmp
	.def	_purple_stringref_cmp;	.scl	2;	.type	32;	.endef
_purple_stringref_cmp:
LFB99:
	.loc 1 144 0
	.cfi_startproc
LVL49:
	sub	esp, 28
LCFI44:
	.cfi_def_cfa_offset 32
	mov	eax, DWORD PTR [esp+32]
	mov	edx, DWORD PTR [esp+36]
	.loc 1 144 0
	mov	ecx, DWORD PTR ___stack_chk_guard
	mov	DWORD PTR [esp+12], ecx
	xor	ecx, ecx
	.loc 1 145 0
	cmp	eax, edx
	je	L58
LVL50:
LBB18:
LBB19:
	.loc 1 140 0
	test	edx, edx
	je	L63
	add	edx, 4
LVL51:
LBE19:
LBE18:
LBB21:
LBB22:
	test	eax, eax
	je	L64
L67:
	add	eax, 4
LVL52:
L60:
LBE22:
LBE21:
	.loc 1 145 0
	mov	ecx, DWORD PTR [esp+12]
	xor	ecx, DWORD PTR ___stack_chk_guard
	jne	L66
	mov	DWORD PTR [esp+36], edx
	mov	DWORD PTR [esp+32], eax
	.loc 1 146 0
	add	esp, 28
LCFI45:
	.cfi_remember_state
	.cfi_def_cfa_offset 4
	.loc 1 145 0
	jmp	_strcmp
LVL53:
	.p2align 2,,3
L63:
LCFI46:
	.cfi_restore_state
LBB24:
LBB20:
	.loc 1 140 0
	xor	edx, edx
LVL54:
LBE20:
LBE24:
LBB25:
LBB23:
	test	eax, eax
	jne	L67
	.p2align 2,,3
L64:
	xor	eax, eax
LVL55:
	jmp	L60
LVL56:
	.p2align 2,,3
L58:
LBE23:
LBE25:
	.loc 1 146 0 discriminator 3
	xor	eax, eax
	mov	edx, DWORD PTR [esp+12]
	xor	edx, DWORD PTR ___stack_chk_guard
	jne	L66
	.loc 1 146 0 is_stmt 0
	add	esp, 28
LCFI47:
	.cfi_remember_state
	.cfi_def_cfa_offset 4
	ret
L66:
LCFI48:
	.cfi_restore_state
	call	___stack_chk_fail
LVL57:
	.cfi_endproc
LFE99:
	.p2align 2,,3
	.globl	_purple_stringref_len
	.def	_purple_stringref_len;	.scl	2;	.type	32;	.endef
_purple_stringref_len:
LFB100:
	.loc 1 149 0 is_stmt 1
	.cfi_startproc
LVL58:
	push	edi
LCFI49:
	.cfi_def_cfa_offset 8
	.cfi_offset 7, -8
	sub	esp, 24
LCFI50:
	.cfi_def_cfa_offset 32
	mov	edi, DWORD PTR [esp+32]
	.loc 1 149 0
	mov	eax, DWORD PTR ___stack_chk_guard
	mov	DWORD PTR [esp+12], eax
	xor	eax, eax
LVL59:
LBB26:
LBB27:
	.loc 1 140 0
	test	edi, edi
	je	L71
	add	edi, 4
LVL60:
L69:
LBE27:
LBE26:
	.loc 1 150 0
	xor	eax, eax
	mov	ecx, -1
	repne scasb
	not	ecx
	lea	eax, [ecx-1]
	.loc 1 151 0
	mov	edx, DWORD PTR [esp+12]
	xor	edx, DWORD PTR ___stack_chk_guard
	jne	L73
	add	esp, 24
LCFI51:
	.cfi_remember_state
	.cfi_def_cfa_offset 8
	pop	edi
LCFI52:
	.cfi_restore 7
	.cfi_def_cfa_offset 4
	ret
LVL61:
	.p2align 2,,3
L71:
LCFI53:
	.cfi_restore_state
LBB29:
LBB28:
	.loc 1 140 0
	xor	edi, edi
LVL62:
	jmp	L69
L73:
LBE28:
LBE29:
	.loc 1 151 0
	call	___stack_chk_fail
LVL63:
	.cfi_endproc
LFE100:
.lcomm _gclist,4,4
Letext0:
	.file 2 "c:/workspace/pidgin-devel/win32-dev/mingw-4.7.2/bin/../lib/gcc/mingw32/4.7.2/include/stddef.h"
	.file 3 "c:/workspace/pidgin-devel/win32-dev/mingw-4.7.2/bin/../lib/gcc/mingw32/4.7.2/include/stdarg.h"
	.file 4 "c:/workspace/pidgin-devel/win32-dev/mingw-4.7.2/bin/../lib/gcc/mingw32/4.7.2/../../../../include/stdio.h"
	.file 5 "../../win32-dev/gtk_2_0-2.14/lib/glib-2.0/include/glibconfig.h"
	.file 6 "../../win32-dev/gtk_2_0-2.14/include/glib-2.0/glib/gtypes.h"
	.file 7 "../../win32-dev/gtk_2_0-2.14/include/glib-2.0/glib/glist.h"
	.file 8 "../../win32-dev/gtk_2_0-2.14/include/glib-2.0/glib/gmain.h"
	.file 9 "stringref.h"
	.file 10 "c:/workspace/pidgin-devel/win32-dev/mingw-4.7.2/bin/../lib/gcc/mingw32/4.7.2/../../../../include/ctype.h"
	.file 11 "../../win32-dev/gtk_2_0-2.14/include/glib-2.0/glib/gmem.h"
	.file 12 "../../win32-dev/gtk_2_0-2.14/include/glib-2.0/glib/gstrfuncs.h"
	.file 13 "c:/workspace/pidgin-devel/win32-dev/mingw-4.7.2/bin/../lib/gcc/mingw32/4.7.2/../../../../include/string.h"
	.file 14 "eventloop.h"
	.file 15 "../../win32-dev/gtk_2_0-2.14/include/glib-2.0/glib/gmessages.h"
	.file 16 "../../win32-dev/gtk_2_0-2.14/include/libintl.h"
	.file 17 "c:/workspace/pidgin-devel/win32-dev/mingw-4.7.2/bin/../lib/gcc/mingw32/4.7.2/../../../../include/wtypes.h"