	.file	"tcl.c"
	.intel_syntax noprefix
	.text
Ltext0:
	.p2align 2,,3
	.def	_tcl_destroy_plugin;	.scl	3;	.type	32;	.endef
_tcl_destroy_plugin:
LFB100:
	.file 1 "tcl.c"
	.loc 1 315 0
	.cfi_startproc
LVL0:
	push	ebx
LCFI0:
	.cfi_def_cfa_offset 8
	.cfi_offset 3, -8
	sub	esp, 40
LCFI1:
	.cfi_def_cfa_offset 48
	mov	ebx, DWORD PTR [esp+48]
	.loc 1 315 0
	mov	eax, DWORD PTR ___stack_chk_guard
	mov	DWORD PTR [esp+28], eax
	xor	eax, eax
	.loc 1 316 0
	mov	eax, DWORD PTR [ebx+16]
	test	eax, eax
	je	L1
	.loc 1 317 0
	mov	eax, DWORD PTR [eax+32]
	mov	DWORD PTR [esp], eax
	call	_g_free
LVL1:
	.loc 1 318 0
	mov	eax, DWORD PTR [ebx+16]
	mov	eax, DWORD PTR [eax+36]
	mov	DWORD PTR [esp], eax
	call	_g_free
LVL2:
	.loc 1 319 0
	mov	eax, DWORD PTR [ebx+16]
	mov	eax, DWORD PTR [eax+40]
	mov	DWORD PTR [esp], eax
	call	_g_free
LVL3:
	.loc 1 320 0
	mov	eax, DWORD PTR [ebx+16]
	mov	eax, DWORD PTR [eax+48]
	mov	DWORD PTR [esp], eax
	call	_g_free
LVL4:
	.loc 1 321 0
	mov	eax, DWORD PTR [ebx+16]
	mov	eax, DWORD PTR [eax+52]
	mov	DWORD PTR [esp], eax
	call	_g_free
LVL5:
	.loc 1 322 0
	mov	eax, DWORD PTR [esp+28]
	xor	eax, DWORD PTR ___stack_chk_guard
	jne	L6
	mov	eax, DWORD PTR [ebx+16]
	mov	eax, DWORD PTR [eax+56]
	mov	DWORD PTR [esp+48], eax
	.loc 1 326 0
	add	esp, 40
LCFI2:
	.cfi_remember_state
	.cfi_def_cfa_offset 8
	pop	ebx
LCFI3:
	.cfi_restore 3
	.cfi_def_cfa_offset 4
	.loc 1 322 0
	jmp	_g_free
LVL6:
	.p2align 2,,3
L1:
LCFI4:
	.cfi_restore_state
	.loc 1 326 0
	mov	eax, DWORD PTR [esp+28]
	xor	eax, DWORD PTR ___stack_chk_guard
	jne	L6
	add	esp, 40
LCFI5:
	.cfi_remember_state
	.cfi_def_cfa_offset 8
	pop	ebx
LCFI6:
	.cfi_restore 3
	.cfi_def_cfa_offset 4
	ret
L6:
LCFI7:
	.cfi_restore_state
	call	___stack_chk_fail
LVL7:
	.cfi_endproc
LFE100:
	.p2align 2,,3
	.def	_tcl_unload_plugin;	.scl	3;	.type	32;	.endef
_tcl_unload_plugin:
LFB99:
	.loc 1 293 0
	.cfi_startproc
LVL8:
	push	ebx
LCFI8:
	.cfi_def_cfa_offset 8
	.cfi_offset 3, -8
	sub	esp, 40
LCFI9:
	.cfi_def_cfa_offset 48
	mov	eax, DWORD PTR [esp+48]
	.loc 1 293 0
	mov	edx, DWORD PTR ___stack_chk_guard
	mov	DWORD PTR [esp+28], edx
	xor	edx, edx
	.loc 1 296 0
	test	eax, eax
	je	L9
	.loc 1 299 0
	mov	ebx, DWORD PTR [eax+28]
LVL9:
	.loc 1 301 0
	test	ebx, ebx
	je	L9
	.loc 1 302 0
	mov	eax, DWORD PTR [ebx+4]
	mov	DWORD PTR [esp+4], eax
	mov	eax, DWORD PTR _tcl_plugins
	mov	DWORD PTR [esp], eax
	call	_g_hash_table_remove
LVL10:
	.loc 1 303 0
	mov	eax, DWORD PTR [ebx+4]
	mov	DWORD PTR [esp], eax
	call	_purple_signals_disconnect_by_handle
LVL11:
	.loc 1 304 0
	mov	eax, DWORD PTR [ebx+4]
	mov	DWORD PTR [esp], eax
	call	_tcl_cmd_cleanup
LVL12:
	.loc 1 305 0
	mov	eax, DWORD PTR [ebx+4]
	mov	DWORD PTR [esp], eax
	call	_tcl_signal_cleanup
LVL13:
	.loc 1 306 0
	mov	eax, DWORD PTR [ebx+4]
	mov	DWORD PTR [esp], eax
	mov	eax, DWORD PTR _tclStubsPtr
	call	[DWORD PTR [eax+872]]
LVL14:
	.loc 1 307 0
	mov	eax, DWORD PTR [ebx+4]
	mov	DWORD PTR [esp], eax
	mov	eax, DWORD PTR _tclStubsPtr
	call	[DWORD PTR [eax+448]]
LVL15:
	.loc 1 308 0
	mov	DWORD PTR [esp], ebx
	call	_g_free
LVL16:
L9:
	.loc 1 312 0
	mov	eax, 1
	mov	edx, DWORD PTR [esp+28]
	xor	edx, DWORD PTR ___stack_chk_guard
	jne	L18
	add	esp, 40
LCFI10:
	.cfi_remember_state
	.cfi_def_cfa_offset 8
	pop	ebx
LCFI11:
	.cfi_restore 3
	.cfi_def_cfa_offset 4
	ret
L18:
LCFI12:
	.cfi_restore_state
	call	___stack_chk_fail
LVL17:
	.cfi_endproc
LFE99:
	.p2align 2,,3
	.def	_tcl_unload;	.scl	3;	.type	32;	.endef
_tcl_unload:
LFB102:
	.loc 1 359 0
	.cfi_startproc
LVL18:
	sub	esp, 44
LCFI13:
	.cfi_def_cfa_offset 48
	.loc 1 359 0
	mov	eax, DWORD PTR ___stack_chk_guard
	mov	DWORD PTR [esp+28], eax
	xor	eax, eax
	.loc 1 360 0
	mov	eax, DWORD PTR _tcl_plugins
	mov	DWORD PTR [esp], eax
	call	_g_hash_table_destroy
LVL19:
	.loc 1 361 0
	mov	DWORD PTR _tcl_plugins, 0
	.loc 1 363 0
	mov	eax, DWORD PTR _PurpleTclRefAccount
	mov	DWORD PTR [esp], eax
	call	_purple_stringref_unref
LVL20:
	.loc 1 364 0
	mov	eax, DWORD PTR _PurpleTclRefConnection
	mov	DWORD PTR [esp], eax
	call	_purple_stringref_unref
LVL21:
	.loc 1 365 0
	mov	eax, DWORD PTR _PurpleTclRefConversation
	mov	DWORD PTR [esp], eax
	call	_purple_stringref_unref
LVL22:
	.loc 1 366 0
	mov	eax, DWORD PTR _PurpleTclRefPointer
	mov	DWORD PTR [esp], eax
	call	_purple_stringref_unref
LVL23:
	.loc 1 367 0
	mov	eax, DWORD PTR _PurpleTclRefPlugin
	mov	DWORD PTR [esp], eax
	call	_purple_stringref_unref
LVL24:
	.loc 1 368 0
	mov	eax, DWORD PTR _PurpleTclRefPresence
	mov	DWORD PTR [esp], eax
	call	_purple_stringref_unref
LVL25:
	.loc 1 369 0
	mov	eax, DWORD PTR _PurpleTclRefStatus
	mov	DWORD PTR [esp], eax
	call	_purple_stringref_unref
LVL26:
	.loc 1 370 0
	mov	eax, DWORD PTR _PurpleTclRefStatusAttr
	mov	DWORD PTR [esp], eax
	call	_purple_stringref_unref
LVL27:
	.loc 1 371 0
	mov	eax, DWORD PTR _PurpleTclRefStatusType
	mov	DWORD PTR [esp], eax
	call	_purple_stringref_unref
LVL28:
	.loc 1 372 0
	mov	eax, DWORD PTR _PurpleTclRefXfer
	mov	DWORD PTR [esp], eax
	call	_purple_stringref_unref
LVL29:
	.loc 1 375 0
	mov	eax, 1
	mov	edx, DWORD PTR [esp+28]
	xor	edx, DWORD PTR ___stack_chk_guard
	jne	L22
	add	esp, 44
LCFI14:
	.cfi_remember_state
	.cfi_def_cfa_offset 4
	ret
L22:
LCFI15:
	.cfi_restore_state
	call	___stack_chk_fail
LVL30:
	.cfi_endproc
LFE102:
	.section .rdata,"dr"
LC1:
	.ascii "0\0"
LC2:
	.ascii "argc\0"
LC3:
	.ascii "purple\0"
LC4:
	.ascii "argv0\0"
LC5:
	.ascii "tcl_interactive\0"
LC6:
	.ascii "%s\\tclrc\0"
LC7:
	.ascii "tcl_rcFileName\0"
LC8:
	.ascii "2.10.11\0"
LC9:
	.ascii "::purple::version\0"
LC10:
	.ascii "::purple::user_dir\0"
LC11:
	.ascii "1\0"
LC12:
	.ascii "::purple::tk_available\0"
LC13:
	.ascii "::purple::account\0"
LC14:
	.ascii "::purple::buddy\0"
LC15:
	.ascii "::purple::cmd\0"
LC16:
	.ascii "::purple::connection\0"
LC17:
	.ascii "::purple::conversation\0"
LC18:
	.ascii "::purple::core\0"
LC19:
	.ascii "::purple::debug\0"
LC20:
	.ascii "::purple::notify\0"
LC21:
	.ascii "::purple::plugins\0"
LC22:
	.ascii "::purple::prefs\0"
LC23:
	.ascii "::purple::presence\0"
LC24:
	.ascii "::purple::send_im\0"
LC25:
	.ascii "::purple::savedstatus\0"
LC26:
	.ascii "::purple::signal\0"
LC27:
	.ascii "::purple::status\0"
LC28:
	.ascii "::purple::status_attr\0"
LC29:
	.ascii "::purple::status_type\0"
LC30:
	.ascii "::purple::unload\0"
	.align 4
LC0:
	.ascii "namespace eval ::purple {\12\11namespace export account buddy connection conversation\12\11namespace export core debug notify prefs send_im\12\11namespace export signal unload\12\11namespace eval _callback { }\12\12\11proc conv_send { account who text } {\12\11\11set gc [purple::account connection $account]\12\11\11set convo [purple::conversation new $account $who]\12\11\11set myalias [purple::account alias $account]\12\12\11\11if {![string length $myalias]} {\12\11\11\11set myalias [purple::account username $account]\12\11\11}\12\12\11\11purple::send_im $gc $who $text\12\11\11purple::conversation write $convo\11send $myalias $text\12\11}\12}\12\12proc bgerror { message } {\12\11global errorInfo\12\11purple::notify -error \"Tcl Error\" \"Tcl Error: $message\" \"$errorInfo\"\12}\12\0"
	.text
	.p2align 2,,3
	.def	_tcl_init_interp;	.scl	3;	.type	32;	.endef
_tcl_init_interp:
LFB95:
	.loc 1 83 0
	.cfi_startproc
LVL31:
	push	edi
LCFI16:
	.cfi_def_cfa_offset 8
	.cfi_offset 7, -8
	push	esi
LCFI17:
	.cfi_def_cfa_offset 12
	.cfi_offset 6, -12
	push	ebx
LCFI18:
	.cfi_def_cfa_offset 16
	.cfi_offset 3, -16
	sub	esp, 736
LCFI19:
	.cfi_def_cfa_offset 752
	mov	ebx, DWORD PTR [esp+752]
	.loc 1 83 0
	mov	eax, DWORD PTR ___stack_chk_guard
	mov	DWORD PTR [esp+732], eax
	xor	eax, eax
	.loc 1 85 0
	lea	edi, [esp+46]
	mov	esi, OFFSET FLAT:LC0
	mov	ecx, 686
	rep movsb
	.loc 1 111 0
	mov	DWORD PTR [esp+12], 131072
	mov	DWORD PTR [esp+8], -1
	lea	eax, [esp+46]
	mov	DWORD PTR [esp+4], eax
	mov	DWORD PTR [esp], ebx
	mov	eax, DWORD PTR _tclStubsPtr
	call	[DWORD PTR [eax+1172]]
LVL32:
	test	eax, eax
	je	L28
	.loc 1 112 0
	mov	eax, 1
L24:
	.loc 1 150 0
	mov	edx, DWORD PTR [esp+732]
	xor	edx, DWORD PTR ___stack_chk_guard
	jne	L29
	add	esp, 736
LCFI20:
	.cfi_remember_state
	.cfi_def_cfa_offset 16
	pop	ebx
LCFI21:
	.cfi_restore 3
	.cfi_def_cfa_offset 12
	pop	esi
LCFI22:
	.cfi_restore 6
	.cfi_def_cfa_offset 8
	pop	edi
LCFI23:
	.cfi_restore 7
	.cfi_def_cfa_offset 4
	ret
	.p2align 2,,3
L28:
LCFI24:
	.cfi_restore_state
LVL33:
LBB4:
LBB5:
	.loc 1 115 0
	mov	DWORD PTR [esp+12], 1
	mov	DWORD PTR [esp+8], OFFSET FLAT:LC1
	mov	DWORD PTR [esp+4], OFFSET FLAT:LC2
	mov	DWORD PTR [esp], ebx
	mov	eax, DWORD PTR _tclStubsPtr
	call	[DWORD PTR [eax+956]]
LVL34:
	.loc 1 116 0
	mov	DWORD PTR [esp+12], 1
	mov	DWORD PTR [esp+8], OFFSET FLAT:LC3
	mov	DWORD PTR [esp+4], OFFSET FLAT:LC4
	mov	DWORD PTR [esp], ebx
	mov	eax, DWORD PTR _tclStubsPtr
	call	[DWORD PTR [eax+956]]
LVL35:
	.loc 1 117 0
	mov	DWORD PTR [esp+12], 1
	mov	DWORD PTR [esp+8], OFFSET FLAT:LC1
	mov	DWORD PTR [esp+4], OFFSET FLAT:LC5
	mov	DWORD PTR [esp], ebx
	mov	eax, DWORD PTR _tclStubsPtr
	call	[DWORD PTR [eax+956]]
LVL36:
	.loc 1 118 0
	call	_purple_user_dir
LVL37:
	mov	DWORD PTR [esp+4], eax
	mov	DWORD PTR [esp], OFFSET FLAT:LC6
	call	_g_strdup_printf
LVL38:
	mov	esi, eax
LVL39:
	.loc 1 119 0
	mov	DWORD PTR [esp+12], 1
	mov	DWORD PTR [esp+8], eax
	mov	DWORD PTR [esp+4], OFFSET FLAT:LC7
	mov	DWORD PTR [esp], ebx
	mov	eax, DWORD PTR _tclStubsPtr
LVL40:
	call	[DWORD PTR [eax+956]]
LVL41:
	.loc 1 120 0
	mov	DWORD PTR [esp], esi
	call	_g_free
LVL42:
	.loc 1 122 0
	mov	DWORD PTR [esp+12], 1
	mov	DWORD PTR [esp+8], OFFSET FLAT:LC8
	mov	DWORD PTR [esp+4], OFFSET FLAT:LC9
	mov	DWORD PTR [esp], ebx
	mov	eax, DWORD PTR _tclStubsPtr
	call	[DWORD PTR [eax+956]]
LVL43:
	.loc 1 123 0
	mov	eax, DWORD PTR _tclStubsPtr
	mov	esi, DWORD PTR [eax+956]
LVL44:
	call	_purple_user_dir
LVL45:
	mov	DWORD PTR [esp+12], 1
	mov	DWORD PTR [esp+8], eax
	mov	DWORD PTR [esp+4], OFFSET FLAT:LC10
	mov	DWORD PTR [esp], ebx
	call	esi
LVL46:
	.loc 1 125 0
	mov	DWORD PTR [esp+12], 1
	mov	DWORD PTR [esp+8], OFFSET FLAT:LC11
	mov	DWORD PTR [esp+4], OFFSET FLAT:LC12
	mov	DWORD PTR [esp], ebx
	mov	eax, DWORD PTR _tclStubsPtr
	call	[DWORD PTR [eax+956]]
LVL47:
	.loc 1 130 0
	mov	DWORD PTR [esp+16], 0
	mov	DWORD PTR [esp+12], 0
	mov	DWORD PTR [esp+8], OFFSET FLAT:_tcl_cmd_account
	mov	DWORD PTR [esp+4], OFFSET FLAT:LC13
	mov	DWORD PTR [esp], ebx
	mov	eax, DWORD PTR _tclStubsPtr
	call	[DWORD PTR [eax+392]]
LVL48:
	.loc 1 131 0
	mov	DWORD PTR [esp+16], 0
	mov	DWORD PTR [esp+12], 0
	mov	DWORD PTR [esp+8], OFFSET FLAT:_tcl_cmd_buddy
	mov	DWORD PTR [esp+4], OFFSET FLAT:LC14
	mov	DWORD PTR [esp], ebx
	mov	eax, DWORD PTR _tclStubsPtr
	call	[DWORD PTR [eax+392]]
LVL49:
	.loc 1 132 0
	mov	DWORD PTR [esp+16], 0
	mov	DWORD PTR [esp+12], 0
	mov	DWORD PTR [esp+8], OFFSET FLAT:_tcl_cmd_cmd
	mov	DWORD PTR [esp+4], OFFSET FLAT:LC15
	mov	DWORD PTR [esp], ebx
	mov	eax, DWORD PTR _tclStubsPtr
	call	[DWORD PTR [eax+392]]
LVL50:
	.loc 1 133 0
	mov	DWORD PTR [esp+16], 0
	mov	DWORD PTR [esp+12], 0
	mov	DWORD PTR [esp+8], OFFSET FLAT:_tcl_cmd_connection
	mov	DWORD PTR [esp+4], OFFSET FLAT:LC16
	mov	DWORD PTR [esp], ebx
	mov	eax, DWORD PTR _tclStubsPtr
	call	[DWORD PTR [eax+392]]
LVL51:
	.loc 1 134 0
	mov	DWORD PTR [esp+16], 0
	mov	DWORD PTR [esp+12], 0
	mov	DWORD PTR [esp+8], OFFSET FLAT:_tcl_cmd_conversation
	mov	DWORD PTR [esp+4], OFFSET FLAT:LC17
	mov	DWORD PTR [esp], ebx
	mov	eax, DWORD PTR _tclStubsPtr
	call	[DWORD PTR [eax+392]]
LVL52:
	.loc 1 135 0
	mov	DWORD PTR [esp+16], 0
	mov	DWORD PTR [esp+12], 0
	mov	DWORD PTR [esp+8], OFFSET FLAT:_tcl_cmd_core
	mov	DWORD PTR [esp+4], OFFSET FLAT:LC18
	mov	DWORD PTR [esp], ebx
	mov	eax, DWORD PTR _tclStubsPtr
	call	[DWORD PTR [eax+392]]
LVL53:
	.loc 1 136 0
	mov	DWORD PTR [esp+16], 0
	mov	DWORD PTR [esp+12], 0
	mov	DWORD PTR [esp+8], OFFSET FLAT:_tcl_cmd_debug
	mov	DWORD PTR [esp+4], OFFSET FLAT:LC19
	mov	DWORD PTR [esp], ebx
	mov	eax, DWORD PTR _tclStubsPtr
	call	[DWORD PTR [eax+392]]
LVL54:
	.loc 1 137 0
	mov	DWORD PTR [esp+16], 0
	mov	DWORD PTR [esp+12], 0
	mov	DWORD PTR [esp+8], OFFSET FLAT:_tcl_cmd_notify
	mov	DWORD PTR [esp+4], OFFSET FLAT:LC20
	mov	DWORD PTR [esp], ebx
	mov	eax, DWORD PTR _tclStubsPtr
	call	[DWORD PTR [eax+392]]
LVL55:
	.loc 1 138 0
	mov	DWORD PTR [esp+16], 0
	mov	DWORD PTR [esp+12], 0
	mov	DWORD PTR [esp+8], OFFSET FLAT:_tcl_cmd_plugins
	mov	DWORD PTR [esp+4], OFFSET FLAT:LC21
	mov	DWORD PTR [esp], ebx
	mov	eax, DWORD PTR _tclStubsPtr
	call	[DWORD PTR [eax+392]]
LVL56:
	.loc 1 139 0
	mov	DWORD PTR [esp+16], 0
	mov	DWORD PTR [esp+12], 0
	mov	DWORD PTR [esp+8], OFFSET FLAT:_tcl_cmd_prefs
	mov	DWORD PTR [esp+4], OFFSET FLAT:LC22
	mov	DWORD PTR [esp], ebx
	mov	eax, DWORD PTR _tclStubsPtr
	call	[DWORD PTR [eax+392]]
LVL57:
	.loc 1 140 0
	mov	DWORD PTR [esp+16], 0
	mov	DWORD PTR [esp+12], 0
	mov	DWORD PTR [esp+8], OFFSET FLAT:_tcl_cmd_presence
	mov	DWORD PTR [esp+4], OFFSET FLAT:LC23
	mov	DWORD PTR [esp], ebx
	mov	eax, DWORD PTR _tclStubsPtr
	call	[DWORD PTR [eax+392]]
LVL58:
	.loc 1 141 0
	mov	DWORD PTR [esp+16], 0
	mov	DWORD PTR [esp+12], 0
	mov	DWORD PTR [esp+8], OFFSET FLAT:_tcl_cmd_send_im
	mov	DWORD PTR [esp+4], OFFSET FLAT:LC24
	mov	DWORD PTR [esp], ebx
	mov	eax, DWORD PTR _tclStubsPtr
	call	[DWORD PTR [eax+392]]
LVL59:
	.loc 1 142 0
	mov	DWORD PTR [esp+16], 0
	mov	DWORD PTR [esp+12], 0
	mov	DWORD PTR [esp+8], OFFSET FLAT:_tcl_cmd_savedstatus
	mov	DWORD PTR [esp+4], OFFSET FLAT:LC25
	mov	DWORD PTR [esp], ebx
	mov	eax, DWORD PTR _tclStubsPtr
	call	[DWORD PTR [eax+392]]
LVL60:
	.loc 1 143 0
	mov	DWORD PTR [esp+16], 0
	mov	DWORD PTR [esp+12], 0
	mov	DWORD PTR [esp+8], OFFSET FLAT:_tcl_cmd_signal
	mov	DWORD PTR [esp+4], OFFSET FLAT:LC26
	mov	DWORD PTR [esp], ebx
	mov	eax, DWORD PTR _tclStubsPtr
	call	[DWORD PTR [eax+392]]
LVL61:
	.loc 1 144 0
	mov	DWORD PTR [esp+16], 0
	mov	DWORD PTR [esp+12], 0
	mov	DWORD PTR [esp+8], OFFSET FLAT:_tcl_cmd_status
	mov	DWORD PTR [esp+4], OFFSET FLAT:LC27
	mov	DWORD PTR [esp], ebx
	mov	eax, DWORD PTR _tclStubsPtr
	call	[DWORD PTR [eax+392]]
LVL62:
	.loc 1 145 0
	mov	DWORD PTR [esp+16], 0
	mov	DWORD PTR [esp+12], 0
	mov	DWORD PTR [esp+8], OFFSET FLAT:_tcl_cmd_status_attr
	mov	DWORD PTR [esp+4], OFFSET FLAT:LC28
	mov	DWORD PTR [esp], ebx
	mov	eax, DWORD PTR _tclStubsPtr
	call	[DWORD PTR [eax+392]]
LVL63:
	.loc 1 146 0
	mov	DWORD PTR [esp+16], 0
	mov	DWORD PTR [esp+12], 0
	mov	DWORD PTR [esp+8], OFFSET FLAT:_tcl_cmd_status_type
	mov	DWORD PTR [esp+4], OFFSET FLAT:LC29
	mov	DWORD PTR [esp], ebx
	mov	eax, DWORD PTR _tclStubsPtr
	call	[DWORD PTR [eax+392]]
LVL64:
	.loc 1 147 0
	mov	DWORD PTR [esp+16], 0
	mov	DWORD PTR [esp+12], 0
	mov	DWORD PTR [esp+8], OFFSET FLAT:_tcl_cmd_unload
	mov	DWORD PTR [esp+4], OFFSET FLAT:LC30
	mov	DWORD PTR [esp], ebx
	mov	eax, DWORD PTR _tclStubsPtr
	call	[DWORD PTR [eax+392]]
LVL65:
	xor	eax, eax
	jmp	L24
LVL66:
L29:
LBE5:
LBE4:
	.loc 1 150 0
	call	___stack_chk_fail
LVL67:
	.cfi_endproc
LFE95:
	.p2align 2,,3
	.def	_tcl_create_interp;	.scl	3;	.type	32;	.endef
_tcl_create_interp:
LFB96:
	.loc 1 153 0
	.cfi_startproc
	push	ebx
LCFI25:
	.cfi_def_cfa_offset 8
	.cfi_offset 3, -8
	sub	esp, 40
LCFI26:
	.cfi_def_cfa_offset 48
	.loc 1 153 0
	mov	eax, DWORD PTR ___stack_chk_guard
	mov	DWORD PTR [esp+28], eax
	xor	eax, eax
	.loc 1 156 0
	mov	eax, DWORD PTR _tclStubsPtr
	call	[DWORD PTR [eax+384]]
LVL68:
	mov	ebx, eax
LVL69:
	.loc 1 157 0
	mov	DWORD PTR [esp], eax
	mov	eax, DWORD PTR _tclStubsPtr
LVL70:
	call	[DWORD PTR [eax+728]]
LVL71:
	.loc 1 158 0
	mov	DWORD PTR [esp], ebx
	.loc 1 157 0
	dec	eax
	je	L36
	.loc 1 162 0
	call	_tcl_init_interp
LVL72:
	test	eax, eax
	jne	L37
	.loc 1 166 0
	mov	DWORD PTR [esp+12], 0
	mov	DWORD PTR [esp+8], OFFSET FLAT:_tcl_init_interp
	mov	DWORD PTR [esp+4], OFFSET FLAT:LC3
	mov	DWORD PTR [esp], ebx
	mov	eax, DWORD PTR _tclStubsPtr
	call	[DWORD PTR [eax+984]]
LVL73:
L32:
	.loc 1 169 0
	mov	eax, ebx
	mov	edx, DWORD PTR [esp+28]
	xor	edx, DWORD PTR ___stack_chk_guard
	jne	L38
	add	esp, 40
LCFI27:
	.cfi_remember_state
	.cfi_def_cfa_offset 8
	pop	ebx
LCFI28:
	.cfi_restore 3
	.cfi_def_cfa_offset 4
	ret
LVL74:
	.p2align 2,,3
L37:
LCFI29:
	.cfi_restore_state
	.loc 1 163 0
	mov	DWORD PTR [esp], ebx
L36:
	mov	eax, DWORD PTR _tclStubsPtr
	call	[DWORD PTR [eax+448]]
LVL75:
	.loc 1 164 0
	xor	ebx, ebx
LVL76:
	jmp	L32
L38:
	.loc 1 169 0
	call	___stack_chk_fail
LVL77:
	.cfi_endproc
LFE96:
	.section .rdata,"dr"
	.align 4
LC31:
	.ascii "Could not initialize Tcl interpreter\12\0"
LC32:
	.ascii "tcl\0"
LC33:
	.ascii "Error evaluating %s: %s\12\0"
	.text
	.p2align 2,,3
	.def	_tcl_load_plugin;	.scl	3;	.type	32;	.endef
_tcl_load_plugin:
LFB98:
	.loc 1 257 0
	.cfi_startproc
LVL78:
	push	esi
LCFI30:
	.cfi_def_cfa_offset 8
	.cfi_offset 6, -8
	push	ebx
LCFI31:
	.cfi_def_cfa_offset 12
	.cfi_offset 3, -12
	sub	esp, 52
LCFI32:
	.cfi_def_cfa_offset 64
	mov	esi, DWORD PTR [esp+64]
	.loc 1 257 0
	mov	eax, DWORD PTR ___stack_chk_guard
	mov	DWORD PTR [esp+44], eax
	xor	eax, eax
	.loc 1 262 0
	mov	DWORD PTR [esi+28], 0
	.loc 1 264 0
	call	_tcl_create_interp
LVL79:
	mov	ebx, eax
LVL80:
	test	eax, eax
	je	L45
	.loc 1 269 0
	mov	DWORD PTR [esp], eax
	mov	eax, DWORD PTR _tclStubsPtr
LVL81:
	call	[DWORD PTR [eax+972]]
LVL82:
	.loc 1 271 0
	mov	eax, DWORD PTR [esi+12]
	mov	DWORD PTR [esp+4], eax
	mov	DWORD PTR [esp], ebx
	mov	eax, DWORD PTR _tclStubsPtr
	call	[DWORD PTR [eax+528]]
LVL83:
	.loc 1 272 0
	mov	DWORD PTR [esp], ebx
	.loc 1 271 0
	test	eax, eax
	.loc 1 272 0
	mov	eax, DWORD PTR _tclStubsPtr
	.loc 1 271 0
	jne	L46
	.loc 1 280 0
	call	[DWORD PTR [eax+812]]
LVL84:
	.loc 1 282 0
	mov	DWORD PTR [esp], 8
	call	_g_malloc0
LVL85:
	.loc 1 283 0
	mov	DWORD PTR [eax], esi
	.loc 1 284 0
	mov	DWORD PTR [eax+4], ebx
	.loc 1 285 0
	mov	DWORD PTR [esi+28], eax
	.loc 1 287 0
	mov	DWORD PTR [esp+8], eax
	mov	DWORD PTR [esp+4], ebx
	mov	eax, DWORD PTR _tcl_plugins
LVL86:
	mov	DWORD PTR [esp], eax
	call	_g_hash_table_insert
LVL87:
	.loc 1 289 0
	mov	eax, 1
L41:
	.loc 1 290 0
	mov	edx, DWORD PTR [esp+44]
	xor	edx, DWORD PTR ___stack_chk_guard
	jne	L47
	add	esp, 52
LCFI33:
	.cfi_remember_state
	.cfi_def_cfa_offset 12
	pop	ebx
LCFI34:
	.cfi_restore 3
	.cfi_def_cfa_offset 8
LVL88:
	pop	esi
LCFI35:
	.cfi_restore 6
	.cfi_def_cfa_offset 4
	ret
LVL89:
	.p2align 2,,3
L46:
LCFI36:
	.cfi_restore_state
	.loc 1 272 0
	call	[DWORD PTR [eax+672]]
LVL90:
	.loc 1 273 0
	mov	DWORD PTR [esp], eax
	mov	eax, DWORD PTR _tclStubsPtr
LVL91:
	call	[DWORD PTR [eax+1368]]
LVL92:
	mov	DWORD PTR [esp+16], eax
	mov	eax, DWORD PTR [esi+12]
	mov	DWORD PTR [esp+12], eax
	mov	DWORD PTR [esp+8], OFFSET FLAT:LC33
	mov	DWORD PTR [esp+4], OFFSET FLAT:LC32
	mov	DWORD PTR [esp], 4
	call	_purple_debug
LVL93:
	.loc 1 276 0
	mov	DWORD PTR [esp], ebx
	mov	eax, DWORD PTR _tclStubsPtr
	call	[DWORD PTR [eax+448]]
LVL94:
	.loc 1 277 0
	xor	eax, eax
	jmp	L41
LVL95:
	.p2align 2,,3
L45:
	.loc 1 265 0
	mov	DWORD PTR [esp+8], OFFSET FLAT:LC31
	mov	DWORD PTR [esp+4], OFFSET FLAT:LC32
	mov	DWORD PTR [esp], 4
	call	_purple_debug
LVL96:
	.loc 1 266 0
	xor	eax, eax
	jmp	L41
L47:
	.loc 1 290 0
	call	___stack_chk_fail
LVL97:
	.cfi_endproc
LFE98:
	.section .rdata,"dr"
LC34:
	.ascii "Error opening plugin %s\12\0"
LC35:
	.ascii "parse error in %s: %s\12\0"
LC36:
	.ascii "proc\0"
LC37:
	.ascii "plugin_init\0"
LC38:
	.ascii "core-tcl\0"
LC39:
	.ascii "tcl-%s\0"
	.text
	.p2align 2,,3
	.def	_tcl_probe_plugin;	.scl	3;	.type	32;	.endef
_tcl_probe_plugin:
LFB97:
	.loc 1 172 0
	.cfi_startproc
LVL98:
	push	ebp
LCFI37:
	.cfi_def_cfa_offset 8
	.cfi_offset 5, -8
	push	edi
LCFI38:
	.cfi_def_cfa_offset 12
	.cfi_offset 7, -12
	push	esi
LCFI39:
	.cfi_def_cfa_offset 16
	.cfi_offset 6, -16
	push	ebx
LCFI40:
	.cfi_def_cfa_offset 20
	.cfi_offset 3, -20
	sub	esp, 460
LCFI41:
	.cfi_def_cfa_offset 480
	mov	edx, DWORD PTR [esp+480]
	mov	DWORD PTR [esp+40], edx
	.loc 1 172 0
	mov	eax, DWORD PTR ___stack_chk_guard
	mov	DWORD PTR [esp+444], eax
	xor	eax, eax
LVL99:
	.loc 1 183 0
	mov	DWORD PTR [esp+12], 0
	lea	eax, [esp+64]
	mov	DWORD PTR [esp+8], eax
	lea	eax, [esp+56]
	mov	DWORD PTR [esp+4], eax
	mov	eax, DWORD PTR [edx+12]
	mov	DWORD PTR [esp], eax
	call	_g_file_get_contents_utf8
LVL100:
	test	eax, eax
	je	L70
	.loc 1 189 0
	call	_tcl_create_interp
LVL101:
	mov	DWORD PTR [esp+36], eax
LVL102:
	test	eax, eax
	je	L64
LVL103:
	.loc 1 193 0
	mov	ebx, DWORD PTR [esp+56]
LVL104:
	mov	eax, DWORD PTR [esp+64]
LVL105:
	.loc 1 179 0
	mov	DWORD PTR [esp+44], 0
	lea	ebp, [esp+68]
LVL106:
	.p2align 2,,3
L57:
	.loc 1 195 0
	mov	DWORD PTR [esp+16], ebp
	mov	DWORD PTR [esp+12], 0
	mov	DWORD PTR [esp+8], eax
	mov	DWORD PTR [esp+4], ebx
	mov	eax, DWORD PTR [esp+36]
	mov	DWORD PTR [esp], eax
	mov	eax, DWORD PTR _tclStubsPtr
	call	[DWORD PTR [eax+1452]]
LVL107:
	dec	eax
	je	L71
	.loc 1 201 0
	mov	eax, DWORD PTR [esp+88]
	cmp	DWORD PTR [eax], 2
	jne	L53
	.loc 1 202 0
	mov	esi, DWORD PTR [eax+4]
	mov	ecx, DWORD PTR [eax+8]
	cmp	ecx, 5
	jle	L54
	mov	ecx, 5
L54:
	mov	edi, OFFSET FLAT:LC36
	cmp	ecx, ecx
	repe cmpsb
	jne	L53
	.loc 1 203 0
	mov	esi, DWORD PTR [eax+36]
	mov	ecx, DWORD PTR [eax+40]
	cmp	ecx, 12
	jg	L72
	mov	edi, OFFSET FLAT:LC37
	cmp	ecx, ecx
	repe cmpsb
	je	L73
	.p2align 2,,3
L53:
	.loc 1 212 0
	mov	eax, ebx
	mov	ebx, DWORD PTR [esp+76]
LVL108:
	add	ebx, DWORD PTR [esp+80]
	sub	eax, ebx
LVL109:
	add	DWORD PTR [esp+64], eax
LVL110:
	.loc 1 214 0
	mov	DWORD PTR [esp], ebp
	mov	eax, DWORD PTR _tclStubsPtr
	call	[DWORD PTR [eax+1440]]
LVL111:
	.loc 1 215 0
	mov	eax, DWORD PTR [esp+64]
	test	eax, eax
	jne	L57
L56:
	.loc 1 217 0
	cmp	DWORD PTR [esp+44], 0
	je	L59
	.loc 1 218 0
	mov	DWORD PTR [esp+12], 131072
	mov	DWORD PTR [esp+8], -1
	mov	DWORD PTR [esp+4], OFFSET FLAT:LC37
	mov	eax, DWORD PTR [esp+36]
	mov	DWORD PTR [esp], eax
	mov	eax, DWORD PTR _tclStubsPtr
	call	[DWORD PTR [eax+1172]]
LVL112:
	test	eax, eax
	je	L58
LVL113:
L59:
	.loc 1 181 0
	xor	eax, eax
	jmp	L52
LVL114:
	.p2align 2,,3
L72:
	.loc 1 203 0
	mov	ecx, 12
	mov	edi, OFFSET FLAT:LC37
	cmp	ecx, ecx
	repe cmpsb
	jne	L53
L73:
	.loc 1 204 0
	mov	DWORD PTR [esp+12], 131072
	mov	eax, DWORD PTR [esp+80]
	mov	DWORD PTR [esp+8], eax
	mov	eax, DWORD PTR [esp+76]
	mov	DWORD PTR [esp+4], eax
	mov	eax, DWORD PTR [esp+36]
	mov	DWORD PTR [esp], eax
	mov	eax, DWORD PTR _tclStubsPtr
	call	[DWORD PTR [eax+1172]]
LVL115:
	test	eax, eax
	jne	L74
	.loc 1 208 0
	mov	DWORD PTR [esp+44], 1
	jmp	L53
LVL116:
	.p2align 2,,3
L70:
	.loc 1 184 0
	mov	edx, DWORD PTR [esp+40]
	mov	eax, DWORD PTR [edx+12]
	mov	DWORD PTR [esp+12], eax
	mov	DWORD PTR [esp+8], OFFSET FLAT:LC34
	mov	DWORD PTR [esp+4], OFFSET FLAT:LC32
	mov	DWORD PTR [esp], 2
	call	_purple_debug
LVL117:
	.loc 1 186 0
	xor	eax, eax
LVL118:
L50:
	.loc 1 254 0
	mov	edx, DWORD PTR [esp+444]
	xor	edx, DWORD PTR ___stack_chk_guard
	jne	L75
	add	esp, 460
LCFI42:
	.cfi_remember_state
	.cfi_def_cfa_offset 20
	pop	ebx
LCFI43:
	.cfi_restore 3
	.cfi_def_cfa_offset 16
	pop	esi
LCFI44:
	.cfi_restore 6
	.cfi_def_cfa_offset 12
	pop	edi
LCFI45:
	.cfi_restore 7
	.cfi_def_cfa_offset 8
	pop	ebp
LCFI46:
	.cfi_restore 5
	.cfi_def_cfa_offset 4
	ret
LVL119:
	.p2align 2,,3
L71:
LCFI47:
	.cfi_restore_state
	.loc 1 197 0
	mov	eax, DWORD PTR _tclStubsPtr
	mov	ebx, DWORD PTR [eax+1368]
LVL120:
	.loc 1 196 0
	mov	edx, DWORD PTR [esp+36]
	mov	DWORD PTR [esp], edx
	call	[DWORD PTR [eax+672]]
LVL121:
	mov	DWORD PTR [esp], eax
	call	ebx
LVL122:
	mov	DWORD PTR [esp+16], eax
	mov	edx, DWORD PTR [esp+40]
	mov	eax, DWORD PTR [edx+12]
	mov	DWORD PTR [esp+12], eax
	mov	DWORD PTR [esp+8], OFFSET FLAT:LC35
	mov	DWORD PTR [esp+4], OFFSET FLAT:LC32
	mov	DWORD PTR [esp], 4
	call	_purple_debug
LVL123:
	.loc 1 181 0
	xor	eax, eax
LVL124:
L52:
	.loc 1 251 0
	mov	edx, DWORD PTR [esp+36]
	mov	DWORD PTR [esp], edx
	mov	edx, DWORD PTR _tclStubsPtr
	mov	DWORD PTR [esp+32], eax
	call	[DWORD PTR [edx+448]]
LVL125:
	.loc 1 252 0
	mov	edx, DWORD PTR [esp+56]
	mov	DWORD PTR [esp], edx
	call	_g_free
LVL126:
	mov	eax, DWORD PTR [esp+32]
	jmp	L50
LVL127:
	.p2align 2,,3
L64:
	.loc 1 190 0
	xor	eax, eax
LVL128:
	jmp	L50
LVL129:
L58:
	.loc 1 219 0
	mov	eax, DWORD PTR [esp+36]
	mov	DWORD PTR [esp], eax
	mov	eax, DWORD PTR _tclStubsPtr
	call	[DWORD PTR [eax+672]]
LVL130:
	.loc 1 220 0
	lea	edx, [esp+52]
	mov	DWORD PTR [esp+12], edx
	lea	edx, [esp+60]
	mov	DWORD PTR [esp+8], edx
	mov	DWORD PTR [esp+4], eax
	mov	eax, DWORD PTR [esp+36]
LVL131:
	mov	DWORD PTR [esp], eax
	mov	eax, DWORD PTR _tclStubsPtr
	call	[DWORD PTR [eax+188]]
LVL132:
	test	eax, eax
	jne	L59
LVL133:
	.loc 1 221 0
	mov	eax, DWORD PTR [esp+60]
	sub	eax, 6
	cmp	eax, 1
	ja	L59
	.loc 1 222 0
	mov	DWORD PTR [esp], 104
	call	_g_malloc0
LVL134:
	mov	ebx, eax
LVL135:
	.loc 1 224 0
	mov	DWORD PTR [eax], 5
	.loc 1 225 0
	mov	DWORD PTR [eax+4], 2
	.loc 1 226 0
	mov	DWORD PTR [eax+8], 10
	.loc 1 227 0
	mov	DWORD PTR [eax+12], 0
	.loc 1 228 0
	mov	DWORD PTR [esp+4], OFFSET FLAT:LC38
	mov	eax, DWORD PTR [eax+24]
LVL136:
	mov	DWORD PTR [esp], eax
	call	_g_list_append
LVL137:
	mov	DWORD PTR [ebx+24], eax
LVL138:
	.loc 1 230 0
	mov	eax, DWORD PTR [esp+52]
	mov	eax, DWORD PTR [eax]
	mov	DWORD PTR [esp], eax
	mov	eax, DWORD PTR _tclStubsPtr
	call	[DWORD PTR [eax+1368]]
LVL139:
	mov	DWORD PTR [esp], eax
	call	_g_strdup
LVL140:
	mov	DWORD PTR [ebx+36], eax
	.loc 1 231 0
	mov	eax, DWORD PTR [esp+52]
	mov	eax, DWORD PTR [eax+4]
	mov	DWORD PTR [esp], eax
	mov	eax, DWORD PTR _tclStubsPtr
	call	[DWORD PTR [eax+1368]]
LVL141:
	mov	DWORD PTR [esp], eax
	call	_g_strdup
LVL142:
	mov	DWORD PTR [ebx+40], eax
	.loc 1 232 0
	mov	eax, DWORD PTR [esp+52]
	mov	eax, DWORD PTR [eax+8]
	mov	DWORD PTR [esp], eax
	mov	eax, DWORD PTR _tclStubsPtr
	call	[DWORD PTR [eax+1368]]
LVL143:
	mov	DWORD PTR [esp], eax
	call	_g_strdup
LVL144:
	mov	DWORD PTR [ebx+44], eax
	.loc 1 233 0
	mov	eax, DWORD PTR [esp+52]
	mov	eax, DWORD PTR [eax+12]
	mov	DWORD PTR [esp], eax
	mov	eax, DWORD PTR _tclStubsPtr
	call	[DWORD PTR [eax+1368]]
LVL145:
	mov	DWORD PTR [esp], eax
	call	_g_strdup
LVL146:
	mov	DWORD PTR [ebx+48], eax
	.loc 1 234 0
	mov	eax, DWORD PTR [esp+52]
	mov	eax, DWORD PTR [eax+16]
	mov	DWORD PTR [esp], eax
	mov	eax, DWORD PTR _tclStubsPtr
	call	[DWORD PTR [eax+1368]]
LVL147:
	mov	DWORD PTR [esp], eax
	call	_g_strdup
LVL148:
	mov	DWORD PTR [ebx+52], eax
	.loc 1 235 0
	mov	eax, DWORD PTR [esp+52]
	mov	eax, DWORD PTR [eax+20]
	mov	DWORD PTR [esp], eax
	mov	eax, DWORD PTR _tclStubsPtr
	call	[DWORD PTR [eax+1368]]
LVL149:
	mov	DWORD PTR [esp], eax
	call	_g_strdup
LVL150:
	mov	DWORD PTR [ebx+56], eax
	.loc 1 237 0
	mov	eax, DWORD PTR [esp+60]
	cmp	eax, 6
	je	L76
	.loc 1 239 0
	cmp	eax, 7
	je	L77
L61:
	.loc 1 242 0
	mov	edx, DWORD PTR [esp+40]
	mov	DWORD PTR [edx+16], ebx
	.loc 1 244 0
	mov	DWORD PTR [esp], edx
	call	_purple_plugin_register
LVL151:
	test	eax, eax
	.loc 1 181 0
	setne	al
	movzx	eax, al
	jmp	L52
LVL152:
L74:
	.loc 1 205 0
	mov	DWORD PTR [esp], ebp
	mov	eax, DWORD PTR _tclStubsPtr
	call	[DWORD PTR [eax+1440]]
LVL153:
	.loc 1 206 0
	jmp	L56
LVL154:
L75:
	.loc 1 254 0
	call	___stack_chk_fail
LVL155:
L77:
	.loc 1 240 0
	mov	eax, DWORD PTR [esp+52]
	mov	eax, DWORD PTR [eax+24]
L69:
	mov	DWORD PTR [esp], eax
	mov	eax, DWORD PTR _tclStubsPtr
	call	[DWORD PTR [eax+1368]]
LVL156:
	mov	DWORD PTR [esp+4], eax
	mov	DWORD PTR [esp], OFFSET FLAT:LC39
	call	_g_strdup_printf
LVL157:
	mov	DWORD PTR [ebx+32], eax
	jmp	L61
L76:
	.loc 1 238 0
	mov	eax, DWORD PTR [esp+52]
	mov	eax, DWORD PTR [eax]
	jmp	L69
	.cfi_endproc
LFE97:
	.section .rdata,"dr"
LC40:
	.ascii "Account\0"
LC41:
	.ascii "Connection\0"
LC42:
	.ascii "Conversation\0"
LC43:
	.ascii "Pointer\0"
LC44:
	.ascii "Plugin\0"
LC45:
	.ascii "Presence\0"
LC46:
	.ascii "Status\0"
LC47:
	.ascii "StatusAttr\0"
LC48:
	.ascii "StatusType\0"
LC49:
	.ascii "Xfer\0"
LC50:
	.ascii "Handle\0"
LC51:
	.ascii "Tk\0"
	.text
	.p2align 2,,3
	.def	_tcl_load;	.scl	3;	.type	32;	.endef
_tcl_load:
LFB101:
	.loc 1 329 0
	.cfi_startproc
LVL158:
	sub	esp, 44
LCFI48:
	.cfi_def_cfa_offset 48
	.loc 1 329 0
	mov	eax, DWORD PTR ___stack_chk_guard
	mov	DWORD PTR [esp+28], eax
	xor	eax, eax
	.loc 1 330 0
	mov	eax, DWORD PTR _tcl_loaded
	test	eax, eax
	jne	L83
	.loc 1 331 0
	xor	eax, eax
L79:
	.loc 1 356 0
	mov	edx, DWORD PTR [esp+28]
	xor	edx, DWORD PTR ___stack_chk_guard
	jne	L84
	add	esp, 44
LCFI49:
	.cfi_remember_state
	.cfi_def_cfa_offset 4
	ret
	.p2align 2,,3
L83:
LCFI50:
	.cfi_restore_state
LBB8:
LBB9:
	.loc 1 332 0
	call	_tcl_glib_init
LVL159:
	.loc 1 333 0
	call	_tcl_cmd_init
LVL160:
	.loc 1 334 0
	call	_tcl_signal_init
LVL161:
	.loc 1 335 0
	call	_purple_tcl_ref_init
LVL162:
	.loc 1 337 0
	mov	DWORD PTR [esp], OFFSET FLAT:LC40
	call	_purple_stringref_new
LVL163:
	mov	DWORD PTR _PurpleTclRefAccount, eax
	.loc 1 338 0
	mov	DWORD PTR [esp], OFFSET FLAT:LC41
	call	_purple_stringref_new
LVL164:
	mov	DWORD PTR _PurpleTclRefConnection, eax
	.loc 1 339 0
	mov	DWORD PTR [esp], OFFSET FLAT:LC42
	call	_purple_stringref_new
LVL165:
	mov	DWORD PTR _PurpleTclRefConversation, eax
	.loc 1 340 0
	mov	DWORD PTR [esp], OFFSET FLAT:LC43
	call	_purple_stringref_new
LVL166:
	mov	DWORD PTR _PurpleTclRefPointer, eax
	.loc 1 341 0
	mov	DWORD PTR [esp], OFFSET FLAT:LC44
	call	_purple_stringref_new
LVL167:
	mov	DWORD PTR _PurpleTclRefPlugin, eax
	.loc 1 342 0
	mov	DWORD PTR [esp], OFFSET FLAT:LC45
	call	_purple_stringref_new
LVL168:
	mov	DWORD PTR _PurpleTclRefPresence, eax
	.loc 1 343 0
	mov	DWORD PTR [esp], OFFSET FLAT:LC46
	call	_purple_stringref_new
LVL169:
	mov	DWORD PTR _PurpleTclRefStatus, eax
	.loc 1 344 0
	mov	DWORD PTR [esp], OFFSET FLAT:LC47
	call	_purple_stringref_new
LVL170:
	mov	DWORD PTR _PurpleTclRefStatusAttr, eax
	.loc 1 345 0
	mov	DWORD PTR [esp], OFFSET FLAT:LC48
	call	_purple_stringref_new
LVL171:
	mov	DWORD PTR _PurpleTclRefStatusType, eax
	.loc 1 346 0
	mov	DWORD PTR [esp], OFFSET FLAT:LC49
	call	_purple_stringref_new
LVL172:
	mov	DWORD PTR _PurpleTclRefXfer, eax
	.loc 1 347 0
	mov	DWORD PTR [esp], OFFSET FLAT:LC50
	call	_purple_stringref_new
LVL173:
	mov	DWORD PTR _PurpleTclRefHandle, eax
	.loc 1 349 0
	mov	DWORD PTR [esp+4], OFFSET FLAT:_g_direct_equal
	mov	DWORD PTR [esp], OFFSET FLAT:_g_direct_hash
	call	_g_hash_table_new
LVL174:
	mov	DWORD PTR _tcl_plugins, eax
	.loc 1 352 0
	mov	eax, DWORD PTR _tkStubsPtr
	mov	edx, DWORD PTR [eax+644]
	mov	DWORD PTR [esp+12], edx
	mov	eax, DWORD PTR [eax+480]
	mov	DWORD PTR [esp+8], eax
	mov	DWORD PTR [esp+4], OFFSET FLAT:LC51
	mov	DWORD PTR [esp], 0
	mov	eax, DWORD PTR _tclStubsPtr
	call	[DWORD PTR [eax+984]]
LVL175:
	mov	eax, 1
	jmp	L79
L84:
LBE9:
LBE8:
	.loc 1 356 0
	call	___stack_chk_fail
LVL176:
	.cfi_endproc
LFE101:
	.p2align 2,,3
	.globl	_tcl_interp_get_plugin
	.def	_tcl_interp_get_plugin;	.scl	2;	.type	32;	.endef
_tcl_interp_get_plugin:
LFB94:
	.loc 1 72 0
	.cfi_startproc
LVL177:
	sub	esp, 44
LCFI51:
	.cfi_def_cfa_offset 48
	mov	edx, DWORD PTR [esp+48]
	.loc 1 72 0
	mov	eax, DWORD PTR ___stack_chk_guard
	mov	DWORD PTR [esp+28], eax
	xor	eax, eax
	.loc 1 75 0
	mov	eax, DWORD PTR _tcl_plugins
	test	eax, eax
	je	L88
	.loc 1 78 0
	mov	DWORD PTR [esp+4], edx
	mov	DWORD PTR [esp], eax
	call	_g_hash_table_lookup
LVL178:
	.loc 1 79 0
	test	eax, eax
	je	L88
	.loc 1 79 0 is_stmt 0 discriminator 1
	mov	eax, DWORD PTR [eax]
LVL179:
L87:
	.loc 1 80 0 is_stmt 1
	mov	edx, DWORD PTR [esp+28]
	xor	edx, DWORD PTR ___stack_chk_guard
	jne	L94
	add	esp, 44
LCFI52:
	.cfi_remember_state
	.cfi_def_cfa_offset 4
	ret
	.p2align 2,,3
L88:
LCFI53:
	.cfi_restore_state
	.loc 1 76 0
	xor	eax, eax
	jmp	L87
L94:
	.loc 1 80 0
	call	___stack_chk_fail
LVL180:
	.cfi_endproc
LFE94:
	.section .rdata,"dr"
LC53:
	.ascii "CurrentVersion\0"
LC54:
	.ascii ".\0"
LC55:
	.ascii "%s%s\\\0"
	.align 4
LC56:
	.ascii "Unsupported ActiveTCL version %s found.\12\0"
	.align 4
LC57:
	.ascii "Loading ActiveTCL version %s from \"%s\"\12\0"
LC58:
	.ascii "tcl84.dll\0"
LC59:
	.ascii "bin\0"
LC60:
	.ascii "tk84.dll\0"
LC61:
	.ascii "Tcl_CreateInterp\0"
	.align 4
LC62:
	.ascii "tcl_win32_init error loading Tcl_CreateInterp\12\0"
LC63:
	.ascii "Tk_Init\0"
	.align 4
LC64:
	.ascii "tcl_win32_init error loading Tk_Init\12\0"
	.align 4
LC65:
	.ascii "Unable to detect ActiveTCL installation. If you wish to use TCL plugins, install ActiveTCL from http://www.activestate.com\12\0"
LC66:
	.ascii "pidgin\0"
LC67:
	.ascii "8.4\0"
LC68:
	.ascii "Tcl_InitStubs: %s\12\0"
LC69:
	.ascii "Error Tk_InitStubs: %s\12\0"
	.align 4
LC52:
	.ascii "SOFTWARE\\ActiveState\\ActiveTcl\\\0"
	.text
	.p2align 2,,3
	.globl	_purple_init_plugin
	.def	_purple_init_plugin;	.scl	2;	.type	32;	.endef
_purple_init_plugin:
LFB105:
	.loc 1 535 0
	.cfi_startproc
LVL181:
	push	ebp
LCFI54:
	.cfi_def_cfa_offset 8
	.cfi_offset 5, -8
	push	edi
LCFI55:
	.cfi_def_cfa_offset 12
	.cfi_offset 7, -12
	push	esi
LCFI56:
	.cfi_def_cfa_offset 16
	.cfi_offset 6, -16
	push	ebx
LCFI57:
	.cfi_def_cfa_offset 20
	.cfi_offset 3, -20
	sub	esp, 108
LCFI58:
	.cfi_def_cfa_offset 128
	mov	ebp, DWORD PTR [esp+128]
	.loc 1 535 0
	mov	eax, DWORD PTR ___stack_chk_guard
	mov	DWORD PTR [esp+92], eax
	xor	eax, eax
	mov	DWORD PTR [ebp+16], OFFSET FLAT:_tcl_info
LVL182:
LBB17:
LBB18:
	.loc 1 501 0
	mov	DWORD PTR __tcl_plugin, ebp
LBB19:
LBB20:
	.loc 1 436 0
	lea	edi, [esp+60]
	mov	esi, OFFSET FLAT:LC52
	mov	ecx, 8
	rep movsd
LVL183:
	.loc 1 440 0
	mov	DWORD PTR [esp+8], OFFSET FLAT:LC53
	lea	esi, [esp+60]
	mov	DWORD PTR [esp+4], esi
	mov	DWORD PTR [esp], -2147483646
	call	_wpurple_read_reg_string
LVL184:
	mov	ebx, eax
LVL185:
	test	eax, eax
	je	L128
L96:
LVL186:
LBB21:
	.loc 1 447 0
	mov	DWORD PTR [esp+8], 0
	mov	DWORD PTR [esp+4], OFFSET FLAT:LC54
	mov	DWORD PTR [esp], ebx
	call	_g_strsplit
LVL187:
	mov	edi, eax
LVL188:
	.loc 1 448 0
	mov	eax, DWORD PTR [eax]
LVL189:
	test	eax, eax
	je	L98
	mov	ecx, DWORD PTR [edi+4]
	test	ecx, ecx
	je	L98
	mov	edx, DWORD PTR [edi+8]
	test	edx, edx
	je	L98
	.loc 1 449 0
	mov	DWORD PTR [esp], eax
	call	_atoi
LVL190:
	mov	DWORD PTR [esp+36], eax
LVL191:
	.loc 1 450 0
	mov	eax, DWORD PTR [edi+4]
LVL192:
	mov	DWORD PTR [esp], eax
	call	_atoi
LVL193:
	mov	DWORD PTR [esp+40], eax
LVL194:
	.loc 1 451 0
	mov	eax, DWORD PTR [edi+8]
LVL195:
	mov	DWORD PTR [esp], eax
	call	_atoi
LVL196:
	mov	DWORD PTR [esp+44], eax
LVL197:
	.loc 1 453 0
	mov	DWORD PTR [esp], edi
	call	_g_strfreev
LVL198:
	.loc 1 455 0
	mov	DWORD PTR [esp+8], ebx
	mov	DWORD PTR [esp+4], esi
	mov	DWORD PTR [esp], OFFSET FLAT:LC55
	call	_g_strdup_printf
LVL199:
	mov	esi, eax
LVL200:
	.loc 1 456 0
	cmp	DWORD PTR [esp+36], 8
	jne	L99
	cmp	DWORD PTR [esp+40], 4
	je	L129
LVL201:
L99:
	.loc 1 457 0
	mov	DWORD PTR [esp+12], ebx
	mov	DWORD PTR [esp+8], OFFSET FLAT:LC56
	mov	DWORD PTR [esp+4], OFFSET FLAT:LC32
	mov	DWORD PTR [esp], 2
	call	_purple_debug
LVL202:
L101:
	.loc 1 482 0
	mov	DWORD PTR [esp], 0
LVL203:
L127:
	call	_g_free
LVL204:
	.loc 1 483 0
	mov	DWORD PTR [esp], esi
	call	_g_free
LVL205:
LBE21:
	.loc 1 486 0
	mov	DWORD PTR [esp], ebx
	call	_g_free
LVL206:
L109:
	.loc 1 489 0
	mov	DWORD PTR [esp+4], OFFSET FLAT:LC65
	mov	DWORD PTR [esp], OFFSET FLAT:LC66
	call	_libintl_dgettext
LVL207:
	mov	DWORD PTR [esp+8], eax
	mov	DWORD PTR [esp+4], OFFSET FLAT:LC32
	mov	DWORD PTR [esp], 2
	call	_purple_debug
LVL208:
L106:
LBE20:
LBE19:
LBE18:
LBE17:
	.loc 1 535 0
	mov	DWORD PTR [esp], ebp
	call	_purple_plugin_register
LVL209:
	mov	edx, DWORD PTR [esp+92]
	xor	edx, DWORD PTR ___stack_chk_guard
	jne	L130
	add	esp, 108
LCFI59:
	.cfi_remember_state
	.cfi_def_cfa_offset 20
	pop	ebx
LCFI60:
	.cfi_restore 3
	.cfi_def_cfa_offset 16
	pop	esi
LCFI61:
	.cfi_restore 6
	.cfi_def_cfa_offset 12
	pop	edi
LCFI62:
	.cfi_restore 7
	.cfi_def_cfa_offset 8
	pop	ebp
LCFI63:
	.cfi_restore 5
	.cfi_def_cfa_offset 4
LVL210:
	ret
LVL211:
	.p2align 2,,3
L98:
LCFI64:
	.cfi_restore_state
LBB34:
LBB33:
LBB31:
LBB29:
LBB26:
	.loc 1 453 0
	mov	DWORD PTR [esp], edi
	call	_g_strfreev
LVL212:
	.loc 1 455 0
	mov	DWORD PTR [esp+8], ebx
	mov	DWORD PTR [esp+4], esi
	mov	DWORD PTR [esp], OFFSET FLAT:LC55
	call	_g_strdup_printf
LVL213:
	mov	esi, eax
LVL214:
	jmp	L99
LVL215:
	.p2align 2,,3
L128:
LBE26:
	.loc 1 441 0
	mov	DWORD PTR [esp+8], OFFSET FLAT:LC53
	mov	DWORD PTR [esp+4], esi
	mov	DWORD PTR [esp], -2147483647
	call	_wpurple_read_reg_string
LVL216:
	mov	ebx, eax
LVL217:
	test	eax, eax
	jne	L96
LVL218:
	.loc 1 486 0
	mov	DWORD PTR [esp], 0
	call	_g_free
LVL219:
	jmp	L109
LVL220:
	.p2align 2,,3
L129:
LBB27:
	.loc 1 456 0
	cmp	DWORD PTR [esp+44], 4
	jle	L99
	.loc 1 458 0
	mov	DWORD PTR [esp+8], 0
	mov	DWORD PTR [esp+4], eax
	mov	DWORD PTR [esp], -2147483646
	call	_wpurple_read_reg_string
LVL221:
	mov	edi, eax
LVL222:
	test	eax, eax
	je	L131
L102:
LBB22:
	.loc 1 462 0
	mov	DWORD PTR [esp+16], edi
	mov	DWORD PTR [esp+12], ebx
	mov	DWORD PTR [esp+8], OFFSET FLAT:LC57
	mov	DWORD PTR [esp+4], OFFSET FLAT:LC32
	mov	DWORD PTR [esp], 2
	call	_purple_debug
LVL223:
	.loc 1 464 0
	mov	DWORD PTR [esp+12], 0
	mov	DWORD PTR [esp+8], OFFSET FLAT:LC58
	mov	DWORD PTR [esp+4], OFFSET FLAT:LC59
	mov	DWORD PTR [esp], edi
	call	_g_build_filename
LVL224:
	mov	DWORD PTR [esp+36], eax
LVL225:
	.loc 1 465 0
	mov	DWORD PTR [esp+12], 0
	mov	DWORD PTR [esp+8], OFFSET FLAT:LC60
	mov	DWORD PTR [esp+4], OFFSET FLAT:LC59
	mov	DWORD PTR [esp], edi
	call	_g_build_filename
LVL226:
	mov	DWORD PTR [esp+40], eax
LVL227:
	.loc 1 467 0
	mov	DWORD PTR [esp+4], OFFSET FLAT:LC61
	mov	eax, DWORD PTR [esp+36]
LVL228:
	mov	DWORD PTR [esp], eax
	call	_wpurple_find_and_loadproc
LVL229:
	mov	DWORD PTR _wtcl_CreateInterp, eax
	test	eax, eax
	je	L132
	.loc 1 470 0
	mov	DWORD PTR [esp+4], OFFSET FLAT:LC63
	mov	eax, DWORD PTR [esp+40]
	mov	DWORD PTR [esp], eax
	call	_wpurple_find_and_loadproc
LVL230:
	mov	DWORD PTR _wtk_Init, eax
	test	eax, eax
	je	L133
LVL231:
	.loc 1 479 0
	mov	eax, DWORD PTR [esp+36]
	mov	DWORD PTR [esp], eax
	call	_g_free
LVL232:
	.loc 1 480 0
	mov	eax, DWORD PTR [esp+40]
	mov	DWORD PTR [esp], eax
	call	_g_free
LVL233:
LBE22:
	.loc 1 482 0
	mov	DWORD PTR [esp], edi
	call	_g_free
LVL234:
	.loc 1 483 0
	mov	DWORD PTR [esp], esi
	call	_g_free
LVL235:
LBE27:
	.loc 1 486 0
	mov	DWORD PTR [esp], ebx
	call	_g_free
LVL236:
LBE29:
LBE31:
	.loc 1 508 0
	call	[DWORD PTR _wtcl_CreateInterp]
LVL237:
	mov	ebx, eax
LVL238:
	test	eax, eax
	je	L106
	.loc 1 511 0
	mov	DWORD PTR [esp+8], 0
	mov	DWORD PTR [esp+4], OFFSET FLAT:LC67
	mov	DWORD PTR [esp], ebx
	call	_Tcl_InitStubs
LVL239:
	test	eax, eax
	je	L134
	.loc 1 517 0
	mov	DWORD PTR [esp], OFFSET FLAT:LC3
	mov	eax, DWORD PTR _tclStubsPtr
	call	[DWORD PTR [eax+584]]
LVL240:
	.loc 1 520 0
	mov	DWORD PTR [esp], ebx
	call	[DWORD PTR _wtk_Init]
LVL241:
	.loc 1 522 0
	mov	DWORD PTR [esp+8], 0
	mov	DWORD PTR [esp+4], OFFSET FLAT:LC67
	mov	DWORD PTR [esp], ebx
	call	_Tk_InitStubs
LVL242:
	test	eax, eax
	je	L135
	.loc 1 528 0
	mov	DWORD PTR _tcl_loaded, 1
	.loc 1 530 0
	mov	DWORD PTR [esp], ebx
	mov	eax, DWORD PTR _tclStubsPtr
	call	[DWORD PTR [eax+448]]
LVL243:
	.loc 1 532 0
	mov	DWORD PTR [esp+4], OFFSET FLAT:LC32
	mov	eax, DWORD PTR _tcl_loader_info
	mov	DWORD PTR [esp], eax
	call	_g_list_append
LVL244:
	mov	DWORD PTR _tcl_loader_info, eax
	jmp	L106
	.p2align 2,,3
L134:
	.loc 1 512 0
	mov	eax, DWORD PTR [ebx]
	mov	DWORD PTR [esp+12], eax
	mov	DWORD PTR [esp+8], OFFSET FLAT:LC68
	mov	DWORD PTR [esp+4], OFFSET FLAT:LC32
	mov	DWORD PTR [esp], 4
	call	_purple_debug
LVL245:
	jmp	L106
	.p2align 2,,3
L135:
	.loc 1 523 0
	mov	eax, DWORD PTR [ebx]
	mov	DWORD PTR [esp+12], eax
	mov	DWORD PTR [esp+8], OFFSET FLAT:LC69
	mov	DWORD PTR [esp+4], OFFSET FLAT:LC32
	mov	DWORD PTR [esp], 4
	call	_purple_debug
LVL246:
	.loc 1 524 0
	mov	DWORD PTR [esp], ebx
	mov	eax, DWORD PTR _tclStubsPtr
	call	[DWORD PTR [eax+448]]
LVL247:
	jmp	L106
LVL248:
L131:
LBB32:
LBB30:
LBB28:
	.loc 1 458 0
	mov	DWORD PTR [esp+8], 0
	mov	DWORD PTR [esp+4], esi
	mov	DWORD PTR [esp], -2147483647
	call	_wpurple_read_reg_string
LVL249:
	mov	edi, eax
LVL250:
	test	eax, eax
	jne	L102
	jmp	L101
LVL251:
L132:
LBB24:
	.loc 1 468 0
	mov	DWORD PTR [esp+8], OFFSET FLAT:LC62
	mov	DWORD PTR [esp+4], OFFSET FLAT:LC32
	mov	DWORD PTR [esp], 2
	call	_purple_debug
LVL252:
L104:
	.loc 1 479 0
	mov	eax, DWORD PTR [esp+36]
	mov	DWORD PTR [esp], eax
	call	_g_free
LVL253:
	.loc 1 480 0
	mov	eax, DWORD PTR [esp+40]
	mov	DWORD PTR [esp], eax
	call	_g_free
LVL254:
LBE24:
	.loc 1 482 0
	mov	DWORD PTR [esp], edi
	jmp	L127
L133:
LBB25:
LBB23:
	.loc 1 472 0
	mov	DWORD PTR [esp+8], OFFSET FLAT:LC64
	mov	DWORD PTR [esp+4], OFFSET FLAT:LC32
	mov	DWORD PTR [esp], 2
	call	_purple_debug
LVL255:
	.loc 1 473 0
	mov	DWORD PTR [esp], OFFSET FLAT:LC58
	call	_GetModuleHandleA@4
LCFI65:
	.cfi_def_cfa_offset 124
LVL256:
	push	ecx
LCFI66:
	.cfi_def_cfa_offset 128
LVL257:
	test	eax, eax
	je	L104
	.loc 1 474 0
	mov	DWORD PTR [esp], eax
	call	_FreeLibrary@4
LCFI67:
	.cfi_def_cfa_offset 124
LVL258:
	push	edx
LCFI68:
	.cfi_def_cfa_offset 128
	jmp	L104
LVL259:
L130:
LBE23:
LBE25:
LBE28:
LBE30:
LBE32:
LBE33:
LBE34:
	.loc 1 535 0
	call	___stack_chk_fail
LVL260:
	.cfi_endproc
LFE105:
	.globl	_wtk_Init
	.bss
	.align 4
_wtk_Init:
	.space 4
	.globl	_wtcl_CreateInterp
	.align 4
_wtcl_CreateInterp:
	.space 4
	.comm	__tcl_plugin, 4, 2
	.comm	_PurpleTclRefHandle, 4, 2
	.comm	_PurpleTclRefXfer, 4, 2
	.comm	_PurpleTclRefStatusType, 4, 2
	.comm	_PurpleTclRefStatusAttr, 4, 2
	.comm	_PurpleTclRefStatus, 4, 2
	.comm	_PurpleTclRefPresence, 4, 2
	.comm	_PurpleTclRefPlugin, 4, 2
	.comm	_PurpleTclRefPointer, 4, 2
	.comm	_PurpleTclRefConversation, 4, 2
	.comm	_PurpleTclRefConnection, 4, 2
	.comm	_PurpleTclRefAccount, 4, 2
.lcomm _tcl_plugins,4,4
	.section .rdata,"dr"
LC70:
	.ascii "Tcl Plugin Loader\0"
	.align 4
LC71:
	.ascii "Provides support for loading Tcl plugins\0"
	.align 4
LC72:
	.ascii "Ethan Blanton <eblanton@cs.purdue.edu>\0"
LC73:
	.ascii "http://pidgin.im/\0"
	.data
	.align 32
_tcl_info:
	.long	5
	.long	2
	.long	10
	.long	1
	.long	0
	.long	0
	.long	0
	.long	0
	.long	LC38
	.long	LC70
	.long	LC8
	.long	LC71
	.long	LC71
	.long	LC72
	.long	LC73
	.long	_tcl_load
	.long	_tcl_unload
	.long	0
	.long	0
	.long	_tcl_loader_info
	.long	0
	.long	0
	.long	0
	.long	0
	.long	0
	.long	0
	.align 32
_tcl_loader_info:
	.long	0
	.long	_tcl_probe_plugin
	.long	_tcl_load_plugin
	.long	_tcl_unload_plugin
	.long	_tcl_destroy_plugin
	.long	0
	.long	0
	.long	0
	.long	0
.lcomm _tcl_loaded,4,4
	.text
Letext0:
	.file 2 "c:/workspace/pidgin-devel/win32-dev/mingw-4.7.2/bin/../lib/gcc/mingw32/4.7.2/../../../../include/stdio.h"
	.file 3 "c:/workspace/pidgin-devel/win32-dev/mingw-4.7.2/bin/../lib/gcc/mingw32/4.7.2/include/stdarg.h"
	.file 4 "c:/workspace/pidgin-devel/win32-dev/mingw-4.7.2/bin/../lib/gcc/mingw32/4.7.2/../../../../include/sys/types.h"
	.file 5 "../../../../win32-dev/tcl-8.4.5/include/tcl.h"
	.file 6 "c:/workspace/pidgin-devel/win32-dev/mingw-4.7.2/bin/../lib/gcc/mingw32/4.7.2/../../../../include/sys/stat.h"
	.file 7 "../../../../win32-dev/tcl-8.4.5/include/tclDecls.h"
	.file 8 "../../../../win32-dev/tcl-8.4.5/include/tclPlatDecls.h"
	.file 9 "c:/workspace/pidgin-devel/win32-dev/mingw-4.7.2/bin/../lib/gcc/mingw32/4.7.2/../../../../include/tchar.h"
	.file 10 "../../../../win32-dev/tcl-8.4.5/include/X11/X.h"
	.file 11 "../../../../win32-dev/tcl-8.4.5/include/X11/Xlib.h"
	.file 12 "../../../../win32-dev/tcl-8.4.5/include/X11/Xutil.h"
	.file 13 "../../../../win32-dev/tcl-8.4.5/include/tkIntXlibDecls.h"
	.file 14 "../../../../win32-dev/tcl-8.4.5/include/tk.h"
	.file 15 "../../../../win32-dev/tcl-8.4.5/include/tkDecls.h"
	.file 16 "../../../../win32-dev/gtk_2_0-2.14/lib/glib-2.0/include/glibconfig.h"
	.file 17 "../../../../win32-dev/gtk_2_0-2.14/include/glib-2.0/glib/gtypes.h"
	.file 18 "../../../../win32-dev/gtk_2_0-2.14/include/glib-2.0/glib/gquark.h"
	.file 19 "../../../../win32-dev/gtk_2_0-2.14/include/glib-2.0/glib/gerror.h"
	.file 20 "../../../../win32-dev/gtk_2_0-2.14/include/glib-2.0/glib/glist.h"
	.file 21 "../../../../win32-dev/gtk_2_0-2.14/include/glib-2.0/glib/ghash.h"
	.file 22 "c:/workspace/pidgin-devel/win32-dev/mingw-4.7.2/bin/../lib/gcc/mingw32/4.7.2/../../../../include/windef.h"
	.file 23 "c:/workspace/pidgin-devel/win32-dev/mingw-4.7.2/bin/../lib/gcc/mingw32/4.7.2/../../../../include/winnt.h"
	.file 24 "../../../libpurple/plugin.h"
	.file 25 "../../../libpurple/pluginpref.h"
	.file 26 "../../../libpurple/stringref.h"
	.file 27 "../../../libpurple/debug.h"
	.file 28 "c:/workspace/pidgin-devel/win32-dev/mingw-4.7.2/bin/../lib/gcc/mingw32/4.7.2/../../../../include/ctype.h"
	.file 29 "../../../../win32-dev/gtk_2_0-2.14/include/glib-2.0/glib/gmem.h"
	.file 30 "../../../libpurple/signals.h"
	.file 31 "tcl_purple.h"
	.file 32 "../../../../win32-dev/gtk_2_0-2.14/include/glib-2.0/glib/gstrfuncs.h"
	.file 33 "../../../../win32-dev/gtk_2_0-2.14/include/glib-2.0/glib/gfileutils.h"
	.file 34 "tcl_glib.h"
	.file 35 "c:/workspace/pidgin-devel/win32-dev/mingw-4.7.2/bin/../lib/gcc/mingw32/4.7.2/../../../../include/winbase.h"
	.file 36 "../../../libpurple/win32/win32dep.h"
	.file 37 "c:/workspace/pidgin-devel/win32-dev/mingw-4.7.2/bin/../lib/gcc/mingw32/4.7.2/../../../../include/stdlib.h"
	.file 38 "../../../../win32-dev/gtk_2_0-2.14/include/libintl.h"
	.file 39 "c:/workspace/pidgin-devel/win32-dev/mingw-4.7.2/bin/../lib/gcc/mingw32/4.7.2/../../../../include/wtypes.h"
	.file 40 "../../../libpurple/media/../util.h"
	.section .drectve
	.ascii " -export:\"purple_init_plugin\""
