	.file	"tcl_signals.c"
	.intel_syntax noprefix
	.text
Ltext0:
	.section .rdata,"dr"
LC0:
	.ascii "::cb\0"
LC1:
	.ascii "%s::arg%d\0"
LC2:
	.ascii "unknown PurpleValue type %d\12\0"
LC3:
	.ascii "tcl\0"
	.align 4
LC4:
	.ascii "pointer types do not currently support outgoing arguments\12\0"
LC5:
	.ascii "subtype unknown\12\0"
	.align 4
LC6:
	.ascii "pointer subtypes do not currently support outgoing arguments\12\0"
LC7:
	.ascii "group\0"
LC8:
	.ascii "contact\0"
LC9:
	.ascii "buddy\0"
LC10:
	.ascii "chat\0"
LC11:
	.ascii "other\0"
	.align 4
LC12:
	.ascii "error evaluating callback: %s\12\0"
	.align 4
LC13:
	.ascii "Error retrieving procedure result: %s\12\0"
	.text
	.p2align 2,,3
	.def	_tcl_signal_callback;	.scl	3;	.type	32;	.endef
_tcl_signal_callback:
LFB99:
	.file 1 "tcl_signals.c"
	.loc 1 160 0
	.cfi_startproc
LVL0:
	push	ebp
LCFI0:
	.cfi_def_cfa_offset 8
	.cfi_offset 5, -8
	push	edi
LCFI1:
	.cfi_def_cfa_offset 12
	.cfi_offset 7, -12
	push	esi
LCFI2:
	.cfi_def_cfa_offset 16
	.cfi_offset 6, -16
	push	ebx
LCFI3:
	.cfi_def_cfa_offset 20
	.cfi_offset 3, -20
	sub	esp, 92
LCFI4:
	.cfi_def_cfa_offset 112
	mov	esi, DWORD PTR [esp+112]
	mov	ebx, DWORD PTR [esp+116]
	.loc 1 160 0
	mov	eax, DWORD PTR ___stack_chk_guard
	mov	DWORD PTR [esp+76], eax
	xor	eax, eax
	.loc 1 164 0
	mov	DWORD PTR [esp+72], 0
LVL1:
	.loc 1 169 0
	mov	eax, DWORD PTR [ebx+28]
	sal	eax, 2
	mov	DWORD PTR [esp], eax
	call	_g_malloc0
LVL2:
	mov	DWORD PTR [esp+48], eax
LVL3:
	.loc 1 170 0
	mov	eax, DWORD PTR [ebx+28]
LVL4:
	sal	eax, 2
	mov	DWORD PTR [esp], eax
	call	_g_malloc0
LVL5:
	mov	DWORD PTR [esp+52], eax
LVL6:
	.loc 1 171 0
	mov	DWORD PTR [esp], 32
	call	_g_string_sized_new
LVL7:
	mov	DWORD PTR [esp+44], eax
LVL8:
	.loc 1 172 0
	mov	DWORD PTR [esp], 32
	call	_g_string_sized_new
LVL9:
	mov	DWORD PTR [esp+60], eax
LVL10:
	.loc 1 174 0
	mov	DWORD PTR [esp+4], 0
	mov	DWORD PTR [esp], 0
	mov	eax, DWORD PTR _tclStubsPtr
LVL11:
	call	[DWORD PTR [eax+220]]
LVL12:
	mov	DWORD PTR [esp+40], eax
LVL13:
	.loc 1 175 0
	inc	DWORD PTR [eax]
	.loc 1 177 0
	mov	eax, DWORD PTR [ebx+12]
LVL14:
	mov	DWORD PTR [esp], eax
	mov	eax, DWORD PTR _tclStubsPtr
	call	[DWORD PTR [eax+124]]
LVL15:
	mov	DWORD PTR [esp+36], eax
LVL16:
	.loc 1 178 0
	mov	DWORD PTR [esp+8], 0
	mov	DWORD PTR [esp+4], OFFSET FLAT:LC0
	mov	DWORD PTR [esp], eax
	mov	eax, DWORD PTR _tclStubsPtr
LVL17:
	call	[DWORD PTR [eax+68]]
LVL18:
	.loc 1 179 0
	mov	eax, DWORD PTR [esp+36]
	mov	DWORD PTR [esp+8], eax
	mov	eax, DWORD PTR [esp+40]
	mov	DWORD PTR [esp+4], eax
	mov	eax, DWORD PTR [ebx+4]
	mov	DWORD PTR [esp], eax
	mov	eax, DWORD PTR _tclStubsPtr
	call	[DWORD PTR [eax+184]]
LVL19:
	.loc 1 181 0
	mov	edi, DWORD PTR [ebx+28]
	test	edi, edi
	jle	L45
	mov	eax, DWORD PTR [esp+48]
	mov	DWORD PTR [esp+32], eax
	xor	ebp, ebp
LVL20:
	.p2align 2,,3
L44:
	.loc 1 159 0
	lea	edi, [0+ebp*4]
	.loc 1 182 0
	mov	eax, DWORD PTR [ebx+32]
	mov	eax, DWORD PTR [eax+edi]
	mov	DWORD PTR [esp], eax
	call	_purple_value_is_outgoing
LVL21:
	test	eax, eax
	jne	L98
L5:
	.loc 1 186 0
	mov	eax, DWORD PTR [ebx+32]
	mov	eax, DWORD PTR [eax+edi]
	mov	DWORD PTR [esp], eax
	call	_purple_value_get_type
LVL22:
	cmp	eax, 17
	ja	L6
	jmp	[DWORD PTR L14[0+eax*4]]
	.section .rdata,"dr"
	.align 4
L14:
	.long	L7
	.long	L8
	.long	L9
	.long	L9
	.long	L10
	.long	L9
	.long	L9
	.long	L9
	.long	L9
	.long	L9
	.long	L9
	.long	L11
	.long	L11
	.long	L12
	.long	L13
	.long	L13
	.long	L9
	.long	L13
	.text
	.p2align 2,,3
L7:
	.loc 1 190 0
	mov	eax, DWORD PTR [ebx+32]
	mov	eax, DWORD PTR [eax+edi]
	mov	DWORD PTR [esp], eax
	call	_purple_value_get_type
LVL23:
	.loc 1 189 0
	mov	DWORD PTR [esp+12], eax
	mov	DWORD PTR [esp+8], OFFSET FLAT:LC2
	mov	DWORD PTR [esp+4], OFFSET FLAT:LC3
	mov	DWORD PTR [esp], 4
	call	_purple_debug
LVL24:
L13:
	.loc 1 196 0
	mov	eax, DWORD PTR [ebx+32]
	mov	eax, DWORD PTR [eax+edi]
	mov	DWORD PTR [esp], eax
	call	_purple_value_is_outgoing
LVL25:
	test	eax, eax
	jne	L99
L15:
	.loc 1 198 0
	lea	edi, [esi+4]
LVL26:
	mov	eax, DWORD PTR [esi]
	mov	DWORD PTR [esp+4], eax
	mov	eax, DWORD PTR _PurpleTclRefPointer
	mov	DWORD PTR [esp], eax
	call	_purple_tcl_ref_new
LVL27:
	mov	DWORD PTR [esp+36], eax
LVL28:
	mov	esi, edi
LVL29:
	.p2align 2,,3
L6:
	.loc 1 337 0
	mov	eax, DWORD PTR [esp+36]
	mov	DWORD PTR [esp+8], eax
	mov	eax, DWORD PTR [esp+40]
	mov	DWORD PTR [esp+4], eax
	mov	eax, DWORD PTR [ebx+4]
	mov	DWORD PTR [esp], eax
	mov	eax, DWORD PTR _tclStubsPtr
	call	[DWORD PTR [eax+184]]
LVL30:
	.loc 1 181 0
	inc	ebp
LVL31:
	add	DWORD PTR [esp+32], 4
	cmp	DWORD PTR [ebx+28], ebp
	jg	L44
LVL32:
L45:
	.loc 1 341 0
	mov	DWORD PTR [esp+8], 131072
	mov	eax, DWORD PTR [esp+40]
	mov	DWORD PTR [esp+4], eax
	mov	eax, DWORD PTR [ebx+4]
	mov	DWORD PTR [esp], eax
	mov	eax, DWORD PTR _tclStubsPtr
	call	[DWORD PTR [eax+1180]]
LVL33:
	test	eax, eax
	je	L100
	.loc 1 343 0
	mov	eax, DWORD PTR _tclStubsPtr
	mov	esi, DWORD PTR [eax+1368]
LVL34:
	.loc 1 342 0
	mov	edx, DWORD PTR [ebx+4]
	mov	DWORD PTR [esp], edx
	call	[DWORD PTR [eax+672]]
LVL35:
	mov	DWORD PTR [esp], eax
	call	esi
LVL36:
	mov	DWORD PTR [esp+12], eax
	mov	DWORD PTR [esp+8], OFFSET FLAT:LC12
	mov	DWORD PTR [esp+4], OFFSET FLAT:LC3
	mov	DWORD PTR [esp], 4
	call	_purple_debug
LVL37:
L48:
	.loc 1 361 0 discriminator 1
	xor	esi, esi
	mov	ecx, DWORD PTR [ebx+28]
	test	ecx, ecx
	jle	L57
	mov	edi, DWORD PTR [esp+44]
	jmp	L77
LVL38:
	.p2align 2,,3
L52:
	.loc 1 370 0
	mov	eax, DWORD PTR [ebx+32]
	mov	eax, DWORD PTR [eax+ebp]
	mov	DWORD PTR [esp], eax
	call	_purple_value_get_type
LVL39:
	cmp	eax, 13
	je	L101
L54:
	.loc 1 361 0
	inc	esi
LVL40:
	cmp	DWORD PTR [ebx+28], esi
	jle	L57
LVL41:
L77:
	.loc 1 362 0
	mov	eax, DWORD PTR [ebx+12]
	mov	DWORD PTR [esp], eax
	mov	eax, DWORD PTR _tclStubsPtr
	call	[DWORD PTR [eax+1368]]
LVL42:
	mov	DWORD PTR [esp+12], esi
	mov	DWORD PTR [esp+8], eax
	mov	DWORD PTR [esp+4], OFFSET FLAT:LC1
	mov	DWORD PTR [esp], edi
	call	_g_string_printf
LVL43:
	.loc 1 159 0
	lea	ebp, [0+esi*4]
	.loc 1 364 0
	mov	eax, DWORD PTR [ebx+32]
	mov	eax, DWORD PTR [eax+ebp]
	mov	DWORD PTR [esp], eax
	call	_purple_value_is_outgoing
LVL44:
	test	eax, eax
	je	L52
	.loc 1 365 0
	mov	eax, DWORD PTR [ebx+32]
	mov	eax, DWORD PTR [eax+ebp]
	mov	DWORD PTR [esp], eax
	call	_purple_value_get_type
LVL45:
	dec	eax
	je	L52
	.loc 1 366 0
	mov	eax, DWORD PTR [edi]
	mov	DWORD PTR [esp+4], eax
	mov	eax, DWORD PTR [ebx+4]
	mov	DWORD PTR [esp], eax
	mov	eax, DWORD PTR _tclStubsPtr
	call	[DWORD PTR [eax+1012]]
LVL46:
	jmp	L52
LVL47:
	.p2align 2,,3
L12:
	.loc 1 257 0
	mov	eax, DWORD PTR [ebx+32]
	mov	eax, DWORD PTR [eax+edi]
	mov	DWORD PTR [esp], eax
	call	_purple_value_is_outgoing
LVL48:
	test	eax, eax
	je	L19
	.loc 1 258 0
	lea	edx, [esi+4]
	mov	DWORD PTR [esp+56], edx
LVL49:
	mov	eax, DWORD PTR [esi]
	mov	ecx, DWORD PTR [esp+52]
	mov	DWORD PTR [ecx+ebp*4], eax
	.loc 1 259 0
	test	eax, eax
	je	L20
	.loc 1 259 0 is_stmt 0 discriminator 1
	mov	edi, DWORD PTR [eax]
	test	edi, edi
	je	L20
LBB5:
	.loc 1 263 0 is_stmt 1
	mov	ecx, -1
	xor	eax, eax
	repne scasb
	mov	esi, ecx
	not	esi
LVL50:
	.loc 1 264 0
	mov	DWORD PTR [esp], esi
	mov	eax, DWORD PTR _tclStubsPtr
	call	[DWORD PTR [eax+20]]
LVL51:
	mov	edx, DWORD PTR [esp+32]
	mov	DWORD PTR [edx], eax
	.loc 1 265 0
	mov	DWORD PTR [esp+8], esi
	mov	ecx, DWORD PTR [esp+52]
	mov	edx, DWORD PTR [ecx+ebp*4]
	mov	edx, DWORD PTR [edx]
	mov	DWORD PTR [esp+4], edx
	mov	DWORD PTR [esp], eax
	call	_g_strlcpy
LVL52:
L22:
LBE5:
	.loc 1 267 0
	mov	DWORD PTR [esp+12], 4
	mov	edx, DWORD PTR [esp+32]
	mov	DWORD PTR [esp+8], edx
	mov	ecx, DWORD PTR [esp+44]
	mov	eax, DWORD PTR [ecx]
	mov	DWORD PTR [esp+4], eax
	mov	eax, DWORD PTR [ebx+4]
	mov	DWORD PTR [esp], eax
	mov	eax, DWORD PTR _tclStubsPtr
	call	[DWORD PTR [eax+756]]
LVL53:
	.loc 1 269 0
	mov	DWORD PTR [esp+4], -1
	mov	edx, DWORD PTR [esp+44]
	mov	eax, DWORD PTR [edx]
	mov	DWORD PTR [esp], eax
	mov	eax, DWORD PTR _tclStubsPtr
	call	[DWORD PTR [eax+232]]
LVL54:
	mov	DWORD PTR [esp+36], eax
LVL55:
	.loc 1 258 0
	mov	esi, DWORD PTR [esp+56]
	jmp	L6
LVL56:
	.p2align 2,,3
L11:
	.loc 1 235 0
	mov	eax, DWORD PTR [ebx+32]
	mov	eax, DWORD PTR [eax+edi]
	mov	DWORD PTR [esp], eax
	call	_purple_value_is_outgoing
LVL57:
	test	eax, eax
	je	L18
	.loc 1 236 0
	lea	edi, [esi+4]
LVL58:
	mov	eax, DWORD PTR [esi]
	mov	edx, DWORD PTR [esp+32]
	mov	DWORD PTR [edx], eax
	.loc 1 238 0
	mov	DWORD PTR [esp+12], 5
L95:
	.loc 1 224 0
	mov	DWORD PTR [esp+8], eax
L94:
	mov	ecx, DWORD PTR [esp+44]
	mov	eax, DWORD PTR [ecx]
	mov	DWORD PTR [esp+4], eax
	mov	eax, DWORD PTR [ebx+4]
	mov	DWORD PTR [esp], eax
	mov	eax, DWORD PTR _tclStubsPtr
	call	[DWORD PTR [eax+756]]
LVL59:
	.loc 1 226 0
	mov	DWORD PTR [esp+4], -1
	mov	edx, DWORD PTR [esp+44]
	mov	eax, DWORD PTR [edx]
L96:
	mov	DWORD PTR [esp], eax
	mov	eax, DWORD PTR _tclStubsPtr
	call	[DWORD PTR [eax+232]]
LVL60:
	mov	DWORD PTR [esp+36], eax
LVL61:
	.loc 1 223 0
	mov	esi, edi
	jmp	L6
LVL62:
	.p2align 2,,3
L10:
	.loc 1 201 0
	mov	eax, DWORD PTR [ebx+32]
	mov	eax, DWORD PTR [eax+edi]
	mov	DWORD PTR [esp], eax
	call	_purple_value_is_outgoing
LVL63:
	.loc 1 202 0
	lea	edi, [esi+4]
	.loc 1 201 0
	test	eax, eax
	.loc 1 202 0
	mov	eax, DWORD PTR [esi]
	.loc 1 201 0
	je	L16
LVL64:
	.loc 1 202 0
	mov	edx, DWORD PTR [esp+32]
	mov	DWORD PTR [edx], eax
	.loc 1 203 0
	mov	DWORD PTR [esp+12], 3
	mov	DWORD PTR [esp+8], edx
	jmp	L94
LVL65:
	.p2align 2,,3
L8:
	.loc 1 275 0
	mov	eax, DWORD PTR [ebx+32]
	mov	eax, DWORD PTR [eax+edi]
	mov	DWORD PTR [esp], eax
	call	_purple_value_get_subtype
LVL66:
	cmp	eax, 14
	ja	L6
	jmp	[DWORD PTR L26[0+eax*4]]
	.section .rdata,"dr"
	.align 4
L26:
	.long	L23
	.long	L24
	.long	L25
	.long	L25
	.long	L25
	.long	L25
	.long	L6
	.long	L24
	.long	L24
	.long	L24
	.long	L6
	.long	L6
	.long	L24
	.long	L6
	.long	L24
	.text
	.p2align 2,,3
L9:
	.loc 1 222 0
	mov	eax, DWORD PTR [ebx+32]
	mov	eax, DWORD PTR [eax+edi]
	mov	DWORD PTR [esp], eax
	call	_purple_value_is_outgoing
LVL67:
	.loc 1 223 0
	lea	edi, [esi+4]
	.loc 1 222 0
	test	eax, eax
	.loc 1 223 0
	mov	eax, DWORD PTR [esi]
	.loc 1 222 0
	je	L17
LVL68:
	.loc 1 223 0
	mov	edx, DWORD PTR [esp+32]
	mov	DWORD PTR [edx], eax
	.loc 1 224 0
	mov	DWORD PTR [esp+12], 1
	jmp	L95
LVL69:
	.p2align 2,,3
L23:
	.loc 1 277 0
	mov	DWORD PTR [esp+8], OFFSET FLAT:LC5
	mov	DWORD PTR [esp+4], OFFSET FLAT:LC3
	mov	DWORD PTR [esp], 4
	call	_purple_debug
LVL70:
L24:
	.loc 1 285 0
	mov	eax, DWORD PTR [ebx+32]
	mov	eax, DWORD PTR [eax+edi]
	mov	DWORD PTR [esp], eax
	call	_purple_value_is_outgoing
LVL71:
	test	eax, eax
	jne	L102
L27:
	.loc 1 287 0
	lea	ecx, [esi+4]
	mov	DWORD PTR [esp+56], ecx
LVL72:
	mov	esi, DWORD PTR [esi]
	mov	eax, DWORD PTR [ebx+32]
	mov	eax, DWORD PTR [eax+edi]
	mov	DWORD PTR [esp], eax
	call	_purple_value_get_subtype
LVL73:
LBB6:
LBB7:
	.loc 1 141 0
	cmp	eax, 14
	jbe	L103
L59:
	.loc 1 155 0
	xor	eax, eax
LVL74:
	.p2align 2,,3
L28:
LBE7:
LBE6:
	.loc 1 287 0
	mov	DWORD PTR [esp+4], esi
	mov	DWORD PTR [esp], eax
	call	_purple_tcl_ref_new
LVL75:
	mov	DWORD PTR [esp+36], eax
LVL76:
	mov	esi, DWORD PTR [esp+56]
	.loc 1 288 0
	jmp	L6
LVL77:
	.p2align 2,,3
L98:
	.loc 1 183 0
	mov	eax, DWORD PTR [ebx+12]
	mov	DWORD PTR [esp], eax
	mov	eax, DWORD PTR _tclStubsPtr
	call	[DWORD PTR [eax+1368]]
LVL78:
	mov	DWORD PTR [esp+12], ebp
	mov	DWORD PTR [esp+8], eax
	mov	DWORD PTR [esp+4], OFFSET FLAT:LC1
	mov	eax, DWORD PTR [esp+44]
	mov	DWORD PTR [esp], eax
	call	_g_string_printf
LVL79:
	jmp	L5
LVL80:
	.p2align 2,,3
L101:
	.loc 1 372 0
	mov	eax, DWORD PTR [ebx+32]
	mov	eax, DWORD PTR [eax+ebp]
	mov	DWORD PTR [esp], eax
	call	_purple_value_is_outgoing
LVL81:
	test	eax, eax
	je	L54
	.loc 1 373 0
	mov	ecx, DWORD PTR [esp+48]
	mov	eax, DWORD PTR [ecx+esi*4]
	test	eax, eax
	je	L56
	.loc 1 373 0 is_stmt 0 discriminator 1
	mov	edx, DWORD PTR [eax]
	test	edx, edx
	je	L56
	.loc 1 374 0 is_stmt 1
	mov	edx, DWORD PTR [esp+52]
	mov	eax, DWORD PTR [edx+esi*4]
	mov	eax, DWORD PTR [eax]
	mov	DWORD PTR [esp], eax
	call	_g_free
LVL82:
	.loc 1 375 0
	mov	eax, DWORD PTR [esp+52]
	mov	edx, DWORD PTR [eax+esi*4]
	mov	ecx, DWORD PTR [esp+48]
	mov	eax, DWORD PTR [ecx+esi*4]
	mov	DWORD PTR [esp], eax
	mov	DWORD PTR [esp+24], edx
	call	_g_strdup
LVL83:
	mov	edx, DWORD PTR [esp+24]
	mov	DWORD PTR [edx], eax
	mov	edx, DWORD PTR [esp+48]
	mov	eax, DWORD PTR [edx+esi*4]
L56:
	.loc 1 377 0
	mov	DWORD PTR [esp], eax
	mov	eax, DWORD PTR _tclStubsPtr
	call	[DWORD PTR [eax+24]]
LVL84:
	.loc 1 361 0
	inc	esi
LVL85:
	cmp	DWORD PTR [ebx+28], esi
	jg	L77
LVL86:
	.p2align 2,,3
L57:
	.loc 1 386 0
	mov	DWORD PTR [esp+4], 1
	mov	eax, DWORD PTR [esp+44]
	mov	DWORD PTR [esp], eax
	call	_g_string_free
LVL87:
	.loc 1 387 0
	mov	DWORD PTR [esp+4], 1
	mov	eax, DWORD PTR [esp+60]
	mov	DWORD PTR [esp], eax
	call	_g_string_free
LVL88:
	.loc 1 388 0
	mov	eax, DWORD PTR [esp+48]
	mov	DWORD PTR [esp], eax
	call	_g_free
LVL89:
	.loc 1 389 0
	mov	eax, DWORD PTR [esp+52]
	mov	DWORD PTR [esp], eax
	call	_g_free
LVL90:
	.loc 1 392 0
	mov	eax, DWORD PTR [esp+72]
	mov	edx, DWORD PTR [esp+76]
	xor	edx, DWORD PTR ___stack_chk_guard
	jne	L104
	add	esp, 92
LCFI5:
	.cfi_remember_state
	.cfi_def_cfa_offset 20
	pop	ebx
LCFI6:
	.cfi_restore 3
	.cfi_def_cfa_offset 16
	pop	esi
LCFI7:
	.cfi_restore 6
	.cfi_def_cfa_offset 12
	pop	edi
LCFI8:
	.cfi_restore 7
	.cfi_def_cfa_offset 8
	pop	ebp
LCFI9:
	.cfi_restore 5
	.cfi_def_cfa_offset 4
	ret
LVL91:
	.p2align 2,,3
L99:
LCFI10:
	.cfi_restore_state
	.loc 1 197 0
	mov	DWORD PTR [esp+4], OFFSET FLAT:LC4
	mov	DWORD PTR [esp], OFFSET FLAT:LC3
	call	_purple_debug_error
LVL92:
	jmp	L15
	.p2align 2,,3
L18:
	.loc 1 250 0
	lea	edi, [esi+8]
LVL93:
	mov	eax, DWORD PTR [esi]
	mov	edx, DWORD PTR [esi+4]
	mov	DWORD PTR [esp], eax
	mov	DWORD PTR [esp+4], edx
	mov	eax, DWORD PTR _tclStubsPtr
	call	[DWORD PTR [eax+1960]]
LVL94:
	mov	DWORD PTR [esp+36], eax
LVL95:
	mov	esi, edi
	jmp	L6
LVL96:
	.p2align 2,,3
L16:
	.loc 1 207 0
	mov	DWORD PTR [esp], eax
	mov	eax, DWORD PTR _tclStubsPtr
	call	[DWORD PTR [eax+204]]
LVL97:
	mov	DWORD PTR [esp+36], eax
LVL98:
	mov	esi, edi
	jmp	L6
LVL99:
	.p2align 2,,3
L17:
	.loc 1 228 0
	mov	DWORD PTR [esp], eax
	mov	eax, DWORD PTR _tclStubsPtr
	call	[DWORD PTR [eax+216]]
LVL100:
	mov	DWORD PTR [esp+36], eax
LVL101:
	mov	esi, edi
	jmp	L6
LVL102:
	.p2align 2,,3
L100:
	.loc 1 345 0
	mov	eax, DWORD PTR [ebx+4]
	mov	DWORD PTR [esp], eax
	mov	eax, DWORD PTR _tclStubsPtr
	call	[DWORD PTR [eax+672]]
LVL103:
	mov	esi, eax
LVL104:
	.loc 1 347 0
	mov	edx, DWORD PTR [ebx+24]
	test	edx, edx
	je	L48
	.loc 1 348 0
	mov	DWORD PTR [esp], edx
	call	_purple_value_get_type
LVL105:
	cmp	eax, 13
	je	L105
	.loc 1 351 0
	lea	eax, [esp+72]
	mov	DWORD PTR [esp+8], eax
	mov	DWORD PTR [esp+4], esi
	mov	eax, DWORD PTR [ebx+4]
	mov	DWORD PTR [esp], eax
	mov	eax, DWORD PTR _tclStubsPtr
	call	[DWORD PTR [eax+160]]
LVL106:
	test	eax, eax
	je	L48
	.loc 1 353 0
	mov	eax, DWORD PTR _tclStubsPtr
	mov	esi, DWORD PTR [eax+1368]
LVL107:
	.loc 1 352 0
	mov	edx, DWORD PTR [ebx+4]
	mov	DWORD PTR [esp], edx
	call	[DWORD PTR [eax+672]]
LVL108:
	mov	DWORD PTR [esp], eax
	call	esi
LVL109:
	mov	DWORD PTR [esp+12], eax
	mov	DWORD PTR [esp+8], OFFSET FLAT:LC13
	mov	DWORD PTR [esp+4], OFFSET FLAT:LC3
	mov	DWORD PTR [esp], 4
	call	_purple_debug
LVL110:
	.loc 1 354 0
	mov	DWORD PTR [esp+72], 0
	jmp	L48
LVL111:
	.p2align 2,,3
L103:
LBB10:
LBB8:
	.loc 1 141 0
	jmp	[DWORD PTR L35[0+eax*4]]
	.section .rdata,"dr"
	.align 4
L35:
	.long	L59
	.long	L29
	.long	L59
	.long	L59
	.long	L59
	.long	L59
	.long	L59
	.long	L30
	.long	L31
	.long	L32
	.long	L59
	.long	L59
	.long	L33
	.long	L59
	.long	L34
	.text
LVL112:
	.p2align 2,,3
L25:
LBE8:
LBE10:
	.loc 1 294 0
	mov	eax, DWORD PTR [ebx+32]
	mov	eax, DWORD PTR [eax+edi]
	mov	DWORD PTR [esp], eax
	call	_purple_value_is_outgoing
LVL113:
	test	eax, eax
	je	L36
LVL114:
	.loc 1 295 0
	mov	eax, DWORD PTR [esi]
	mov	edi, DWORD PTR [eax]
LVL115:
	add	esi, 4
LVL116:
L37:
	.loc 1 298 0
	mov	DWORD PTR [esp], edi
	call	_purple_blist_node_get_type
LVL117:
	cmp	eax, 4
	ja	L6
	jmp	[DWORD PTR L43[0+eax*4]]
	.section .rdata,"dr"
	.align 4
L43:
	.long	L38
	.long	L39
	.long	L40
	.long	L41
	.long	L42
	.text
LVL118:
	.p2align 2,,3
L19:
	.loc 1 271 0
	lea	edi, [esi+4]
LVL119:
	mov	DWORD PTR [esp+4], -1
	mov	eax, DWORD PTR [esi]
	jmp	L96
LVL120:
	.p2align 2,,3
L20:
	.loc 1 260 0
	mov	DWORD PTR [esp], 1
	mov	eax, DWORD PTR _tclStubsPtr
	call	[DWORD PTR [eax+20]]
LVL121:
	mov	edx, DWORD PTR [esp+32]
	mov	DWORD PTR [edx], eax
	.loc 1 261 0
	mov	BYTE PTR [eax], 0
	jmp	L22
LVL122:
	.p2align 2,,3
L102:
	.loc 1 286 0
	mov	DWORD PTR [esp+4], OFFSET FLAT:LC6
	mov	DWORD PTR [esp], OFFSET FLAT:LC3
	call	_purple_debug_error
LVL123:
	jmp	L27
	.p2align 2,,3
L36:
LVL124:
	.loc 1 297 0
	mov	edi, DWORD PTR [esi]
LVL125:
	add	esi, 4
LVL126:
	jmp	L37
LVL127:
L30:
LBB11:
LBB9:
	.loc 1 145 0
	mov	eax, DWORD PTR _PurpleTclRefConnection
LVL128:
	jmp	L28
LVL129:
L29:
	.loc 1 143 0
	mov	eax, DWORD PTR _PurpleTclRefAccount
LVL130:
	jmp	L28
LVL131:
L34:
	.loc 1 153 0
	mov	eax, DWORD PTR _PurpleTclRefXfer
LVL132:
	jmp	L28
LVL133:
L33:
	.loc 1 151 0
	mov	eax, DWORD PTR _PurpleTclRefStatus
LVL134:
	jmp	L28
LVL135:
L32:
	.loc 1 149 0
	mov	eax, DWORD PTR _PurpleTclRefPlugin
LVL136:
	jmp	L28
LVL137:
L31:
	.loc 1 147 0
	mov	eax, DWORD PTR _PurpleTclRefConversation
LVL138:
	jmp	L28
LVL139:
L41:
LBE9:
LBE11:
	.loc 1 321 0
	mov	DWORD PTR [esp+4], 0
	mov	DWORD PTR [esp], 0
	mov	eax, DWORD PTR _tclStubsPtr
	call	[DWORD PTR [eax+220]]
LVL140:
	mov	DWORD PTR [esp+36], eax
LVL141:
	.loc 1 322 0
	mov	eax, DWORD PTR _tclStubsPtr
LVL142:
	mov	edx, DWORD PTR [eax+184]
	mov	DWORD PTR [esp+4], -1
	mov	DWORD PTR [esp], OFFSET FLAT:LC10
	mov	DWORD PTR [esp+24], edx
	call	[DWORD PTR [eax+232]]
LVL143:
	mov	DWORD PTR [esp+8], eax
	mov	eax, DWORD PTR [esp+36]
	mov	DWORD PTR [esp+4], eax
	mov	eax, DWORD PTR [ebx+4]
	mov	DWORD PTR [esp], eax
	mov	edx, DWORD PTR [esp+24]
	call	edx
LVL144:
	.loc 1 324 0
	mov	eax, DWORD PTR _tclStubsPtr
	mov	edx, DWORD PTR [eax+184]
	.loc 1 325 0
	mov	ecx, DWORD PTR [eax+232]
	.loc 1 324 0
	mov	DWORD PTR [esp], edi
	mov	DWORD PTR [esp+24], edx
	mov	DWORD PTR [esp+28], ecx
	call	_purple_chat_get_name
LVL145:
	mov	DWORD PTR [esp+4], -1
	mov	DWORD PTR [esp], eax
	mov	ecx, DWORD PTR [esp+28]
	call	ecx
LVL146:
	mov	DWORD PTR [esp+8], eax
	mov	eax, DWORD PTR [esp+36]
	mov	DWORD PTR [esp+4], eax
	mov	eax, DWORD PTR [ebx+4]
	mov	DWORD PTR [esp], eax
	mov	edx, DWORD PTR [esp+24]
	call	edx
LVL147:
	.loc 1 326 0
	mov	eax, DWORD PTR _tclStubsPtr
	mov	edx, DWORD PTR [eax+184]
	.loc 1 328 0
	mov	DWORD PTR [esp], edi
	mov	DWORD PTR [esp+24], edx
	call	_purple_chat_get_account
LVL148:
L93:
	.loc 1 316 0
	mov	DWORD PTR [esp+4], eax
	mov	eax, DWORD PTR _PurpleTclRefAccount
	mov	DWORD PTR [esp], eax
	call	_purple_tcl_ref_new
LVL149:
L92:
	mov	DWORD PTR [esp+8], eax
	mov	eax, DWORD PTR [esp+36]
	mov	DWORD PTR [esp+4], eax
	mov	eax, DWORD PTR [ebx+4]
	mov	DWORD PTR [esp], eax
	mov	edx, DWORD PTR [esp+24]
	call	edx
LVL150:
	.loc 1 319 0
	jmp	L6
L40:
	.loc 1 311 0
	mov	DWORD PTR [esp+4], 0
	mov	DWORD PTR [esp], 0
	mov	eax, DWORD PTR _tclStubsPtr
	call	[DWORD PTR [eax+220]]
LVL151:
	mov	DWORD PTR [esp+36], eax
LVL152:
	.loc 1 312 0
	mov	eax, DWORD PTR _tclStubsPtr
LVL153:
	mov	edx, DWORD PTR [eax+184]
	mov	DWORD PTR [esp+4], -1
	mov	DWORD PTR [esp], OFFSET FLAT:LC9
	mov	DWORD PTR [esp+24], edx
	call	[DWORD PTR [eax+232]]
LVL154:
	mov	DWORD PTR [esp+8], eax
	mov	eax, DWORD PTR [esp+36]
	mov	DWORD PTR [esp+4], eax
	mov	eax, DWORD PTR [ebx+4]
	mov	DWORD PTR [esp], eax
	mov	edx, DWORD PTR [esp+24]
	call	edx
LVL155:
	.loc 1 314 0
	mov	eax, DWORD PTR _tclStubsPtr
	mov	edx, DWORD PTR [eax+184]
	.loc 1 315 0
	mov	ecx, DWORD PTR [eax+232]
	.loc 1 314 0
	mov	DWORD PTR [esp], edi
	mov	DWORD PTR [esp+24], edx
	mov	DWORD PTR [esp+28], ecx
	call	_purple_buddy_get_name
LVL156:
	mov	DWORD PTR [esp+4], -1
	mov	DWORD PTR [esp], eax
	mov	ecx, DWORD PTR [esp+28]
	call	ecx
LVL157:
	mov	DWORD PTR [esp+8], eax
	mov	eax, DWORD PTR [esp+36]
	mov	DWORD PTR [esp+4], eax
	mov	eax, DWORD PTR [ebx+4]
	mov	DWORD PTR [esp], eax
	mov	edx, DWORD PTR [esp+24]
	call	edx
LVL158:
	.loc 1 316 0
	mov	eax, DWORD PTR _tclStubsPtr
	mov	edx, DWORD PTR [eax+184]
	.loc 1 318 0
	mov	DWORD PTR [esp], edi
	mov	DWORD PTR [esp+24], edx
	call	_purple_buddy_get_account
LVL159:
	jmp	L93
L39:
	.loc 1 308 0
	mov	DWORD PTR [esp+4], -1
	mov	DWORD PTR [esp], OFFSET FLAT:LC8
	mov	eax, DWORD PTR _tclStubsPtr
	call	[DWORD PTR [eax+232]]
LVL160:
	mov	DWORD PTR [esp+36], eax
LVL161:
	.loc 1 309 0
	jmp	L6
LVL162:
L38:
	.loc 1 300 0
	mov	DWORD PTR [esp+4], 0
	mov	DWORD PTR [esp], 0
	mov	eax, DWORD PTR _tclStubsPtr
	call	[DWORD PTR [eax+220]]
LVL163:
	mov	DWORD PTR [esp+36], eax
LVL164:
	.loc 1 301 0
	mov	eax, DWORD PTR _tclStubsPtr
LVL165:
	mov	edx, DWORD PTR [eax+184]
	mov	DWORD PTR [esp+4], -1
	mov	DWORD PTR [esp], OFFSET FLAT:LC7
	mov	DWORD PTR [esp+24], edx
	call	[DWORD PTR [eax+232]]
LVL166:
	mov	DWORD PTR [esp+8], eax
	mov	eax, DWORD PTR [esp+36]
	mov	DWORD PTR [esp+4], eax
	mov	eax, DWORD PTR [ebx+4]
	mov	DWORD PTR [esp], eax
	mov	edx, DWORD PTR [esp+24]
	call	edx
LVL167:
	.loc 1 303 0
	mov	eax, DWORD PTR _tclStubsPtr
	mov	edx, DWORD PTR [eax+184]
	.loc 1 304 0
	mov	ecx, DWORD PTR [eax+232]
	.loc 1 303 0
	mov	DWORD PTR [esp], edi
	mov	DWORD PTR [esp+24], edx
	mov	DWORD PTR [esp+28], ecx
	call	_purple_group_get_name
LVL168:
	mov	DWORD PTR [esp+4], -1
	mov	DWORD PTR [esp], eax
	mov	ecx, DWORD PTR [esp+28]
	call	ecx
LVL169:
	jmp	L92
L42:
	.loc 1 331 0
	mov	DWORD PTR [esp+4], -1
	mov	DWORD PTR [esp], OFFSET FLAT:LC11
	mov	eax, DWORD PTR _tclStubsPtr
	call	[DWORD PTR [eax+232]]
LVL170:
	mov	DWORD PTR [esp+36], eax
LVL171:
	.loc 1 332 0
	jmp	L6
LVL172:
L105:
	.loc 1 349 0
	mov	DWORD PTR [esp], esi
	mov	eax, DWORD PTR _tclStubsPtr
	call	[DWORD PTR [eax+1368]]
LVL173:
	mov	DWORD PTR [esp], eax
	call	_g_strdup
LVL174:
	mov	DWORD PTR [esp+72], eax
	jmp	L48
LVL175:
L104:
	.loc 1 392 0
	call	___stack_chk_fail
LVL176:
	.cfi_endproc
LFE99:
	.p2align 2,,3
	.globl	_tcl_signal_init
	.def	_tcl_signal_init;	.scl	2;	.type	32;	.endef
_tcl_signal_init:
LFB93:
	.loc 1 41 0
	.cfi_startproc
	sub	esp, 28
LCFI11:
	.cfi_def_cfa_offset 32
	.loc 1 41 0
	mov	eax, DWORD PTR ___stack_chk_guard
	mov	DWORD PTR [esp+12], eax
	xor	eax, eax
	.loc 1 42 0
	mov	DWORD PTR _tcl_callbacks, 0
	.loc 1 43 0
	mov	eax, DWORD PTR [esp+12]
	xor	eax, DWORD PTR ___stack_chk_guard
	jne	L109
	add	esp, 28
LCFI12:
	.cfi_remember_state
	.cfi_def_cfa_offset 4
	ret
L109:
LCFI13:
	.cfi_restore_state
	call	___stack_chk_fail
LVL177:
	.cfi_endproc
LFE93:
	.p2align 2,,3
	.globl	_tcl_signal_handler_free
	.def	_tcl_signal_handler_free;	.scl	2;	.type	32;	.endef
_tcl_signal_handler_free:
LFB94:
	.loc 1 46 0
	.cfi_startproc
LVL178:
	push	ebx
LCFI14:
	.cfi_def_cfa_offset 8
	.cfi_offset 3, -8
	sub	esp, 40
LCFI15:
	.cfi_def_cfa_offset 48
	mov	ebx, DWORD PTR [esp+48]
	.loc 1 46 0
	mov	eax, DWORD PTR ___stack_chk_guard
	mov	DWORD PTR [esp+28], eax
	xor	eax, eax
	.loc 1 47 0
	test	ebx, ebx
	je	L110
	.loc 1 50 0
	mov	eax, DWORD PTR [ebx]
	mov	edx, DWORD PTR [eax]
	dec	edx
	mov	DWORD PTR [eax], edx
	test	edx, edx
	jle	L120
L112:
	.loc 1 51 0
	mov	eax, DWORD PTR [ebx+12]
	test	eax, eax
	je	L114
	.loc 1 53 0
	mov	edx, DWORD PTR [eax]
	dec	edx
	mov	DWORD PTR [eax], edx
	test	edx, edx
	jle	L121
L114:
	.loc 1 55 0
	mov	edx, DWORD PTR [esp+28]
	xor	edx, DWORD PTR ___stack_chk_guard
	jne	L119
	mov	DWORD PTR [esp+48], ebx
	.loc 1 56 0
	add	esp, 40
LCFI16:
	.cfi_remember_state
	.cfi_def_cfa_offset 8
	pop	ebx
LCFI17:
	.cfi_restore 3
	.cfi_def_cfa_offset 4
	.loc 1 55 0
	jmp	_g_free
LVL179:
	.p2align 2,,3
L120:
LCFI18:
	.cfi_restore_state
	.loc 1 50 0 discriminator 1
	mov	DWORD PTR [esp], eax
	mov	eax, DWORD PTR _tclStubsPtr
	call	[DWORD PTR [eax+128]]
LVL180:
	jmp	L112
	.p2align 2,,3
L110:
	.loc 1 56 0
	mov	eax, DWORD PTR [esp+28]
	xor	eax, DWORD PTR ___stack_chk_guard
	jne	L119
	add	esp, 40
LCFI19:
	.cfi_remember_state
	.cfi_def_cfa_offset 8
	pop	ebx
LCFI20:
	.cfi_restore 3
	.cfi_def_cfa_offset 4
	ret
	.p2align 2,,3
L121:
LCFI21:
	.cfi_restore_state
	.loc 1 53 0 discriminator 1
	mov	DWORD PTR [esp], eax
	mov	eax, DWORD PTR _tclStubsPtr
	call	[DWORD PTR [eax+128]]
LVL181:
	jmp	L114
L119:
	.loc 1 56 0
	call	___stack_chk_fail
LVL182:
	.cfi_endproc
LFE94:
	.p2align 2,,3
	.globl	_tcl_signal_cleanup
	.def	_tcl_signal_cleanup;	.scl	2;	.type	32;	.endef
_tcl_signal_cleanup:
LFB95:
	.loc 1 59 0
	.cfi_startproc
LVL183:
	push	esi
LCFI22:
	.cfi_def_cfa_offset 8
	.cfi_offset 6, -8
	push	ebx
LCFI23:
	.cfi_def_cfa_offset 12
	.cfi_offset 3, -12
	sub	esp, 36
LCFI24:
	.cfi_def_cfa_offset 48
	mov	esi, DWORD PTR [esp+48]
	.loc 1 59 0
	mov	eax, DWORD PTR ___stack_chk_guard
	mov	DWORD PTR [esp+28], eax
	xor	eax, eax
	.loc 1 63 0
	mov	ebx, DWORD PTR _tcl_callbacks
LVL184:
	test	ebx, ebx
	je	L127
	.p2align 2,,3
L128:
	.loc 1 64 0
	mov	eax, DWORD PTR [ebx]
LVL185:
	.loc 1 65 0
	cmp	DWORD PTR [eax+4], esi
	je	L131
LVL186:
L124:
	.loc 1 63 0
	mov	ebx, DWORD PTR [ebx+4]
LVL187:
	test	ebx, ebx
	jne	L128
	mov	eax, DWORD PTR _tcl_callbacks
L123:
	.loc 1 70 0
	mov	DWORD PTR [esp+4], 0
	mov	DWORD PTR [esp], eax
	call	_g_list_remove_all
LVL188:
	mov	DWORD PTR _tcl_callbacks, eax
	.loc 1 71 0
	mov	eax, DWORD PTR [esp+28]
	xor	eax, DWORD PTR ___stack_chk_guard
	jne	L132
	add	esp, 36
LCFI25:
	.cfi_remember_state
	.cfi_def_cfa_offset 12
	pop	ebx
LCFI26:
	.cfi_restore 3
	.cfi_def_cfa_offset 8
LVL189:
	pop	esi
LCFI27:
	.cfi_restore 6
	.cfi_def_cfa_offset 4
	ret
LVL190:
	.p2align 2,,3
L131:
LCFI28:
	.cfi_restore_state
	.loc 1 66 0
	mov	DWORD PTR [esp], eax
	call	_tcl_signal_handler_free
LVL191:
	.loc 1 67 0
	mov	DWORD PTR [ebx], 0
	jmp	L124
L127:
	.loc 1 63 0
	xor	eax, eax
	jmp	L123
L132:
	.loc 1 71 0
	call	___stack_chk_fail
LVL192:
	.cfi_endproc
LFE95:
	.section .rdata,"dr"
LC14:
	.ascii "namespace delete %s\0"
	.text
	.p2align 2,,3
	.globl	_tcl_signal_disconnect
	.def	_tcl_signal_disconnect;	.scl	2;	.type	32;	.endef
_tcl_signal_disconnect:
LFB97:
	.loc 1 112 0
	.cfi_startproc
LVL193:
	push	ebp
LCFI29:
	.cfi_def_cfa_offset 8
	.cfi_offset 5, -8
	push	edi
LCFI30:
	.cfi_def_cfa_offset 12
	.cfi_offset 7, -12
	push	esi
LCFI31:
	.cfi_def_cfa_offset 16
	.cfi_offset 6, -16
	push	ebx
LCFI32:
	.cfi_def_cfa_offset 20
	.cfi_offset 3, -20
	sub	esp, 60
LCFI33:
	.cfi_def_cfa_offset 80
	mov	ebp, DWORD PTR [esp+80]
	mov	edx, DWORD PTR [esp+84]
	mov	edi, DWORD PTR [esp+88]
	.loc 1 112 0
	mov	eax, DWORD PTR ___stack_chk_guard
	mov	DWORD PTR [esp+44], eax
	xor	eax, eax
LVL194:
	.loc 1 118 0
	mov	ebx, DWORD PTR _tcl_callbacks
LVL195:
	test	ebx, ebx
	jne	L140
	jmp	L133
LVL196:
	.p2align 2,,3
L136:
	mov	ebx, DWORD PTR [ebx+4]
LVL197:
	test	ebx, ebx
	je	L133
LVL198:
L140:
	.loc 1 119 0
	mov	esi, DWORD PTR [ebx]
LVL199:
	.loc 1 120 0
	cmp	DWORD PTR [esi+4], edi
	jne	L136
	.loc 1 120 0 is_stmt 0 discriminator 1
	cmp	DWORD PTR [esi+8], ebp
	jne	L136
	.loc 1 121 0 is_stmt 1
	mov	eax, DWORD PTR [esi]
	mov	DWORD PTR [esp], eax
	mov	eax, DWORD PTR _tclStubsPtr
	mov	DWORD PTR [esp+28], edx
	call	[DWORD PTR [eax+1368]]
LVL200:
	mov	DWORD PTR [esp+4], eax
	mov	edx, DWORD PTR [esp+28]
	mov	DWORD PTR [esp], edx
	call	_strcmp
LVL201:
	test	eax, eax
	mov	edx, DWORD PTR [esp+28]
	jne	L136
	.loc 1 122 0
	mov	DWORD PTR [esp+12], OFFSET FLAT:_tcl_signal_callback
	mov	eax, DWORD PTR [esi+4]
	mov	DWORD PTR [esp+8], eax
	mov	DWORD PTR [esp+4], edx
	mov	DWORD PTR [esp], ebp
	call	_purple_signal_disconnect
LVL202:
	.loc 1 124 0
	mov	DWORD PTR [esp], 64
	call	_g_string_sized_new
LVL203:
	mov	ebp, eax
LVL204:
	.loc 1 125 0
	mov	eax, DWORD PTR [esi+12]
LVL205:
	mov	DWORD PTR [esp], eax
	mov	eax, DWORD PTR _tclStubsPtr
	call	[DWORD PTR [eax+1368]]
LVL206:
	mov	DWORD PTR [esp+8], eax
	mov	DWORD PTR [esp+4], OFFSET FLAT:LC14
	mov	DWORD PTR [esp], ebp
	call	_g_string_printf
LVL207:
	.loc 1 127 0
	mov	DWORD PTR [esp+12], 131072
	mov	DWORD PTR [esp+8], -1
	mov	eax, DWORD PTR [ebp+0]
	mov	DWORD PTR [esp+4], eax
	mov	DWORD PTR [esp], edi
	mov	eax, DWORD PTR _tclStubsPtr
	call	[DWORD PTR [eax+1172]]
LVL208:
	.loc 1 128 0
	mov	DWORD PTR [esp], esi
	call	_tcl_signal_handler_free
LVL209:
	.loc 1 129 0
	mov	DWORD PTR [esp+4], 1
	mov	DWORD PTR [esp], ebp
	call	_g_string_free
LVL210:
	.loc 1 130 0
	mov	DWORD PTR [ebx], 0
LVL211:
	.loc 1 136 0
	mov	DWORD PTR [esp+4], 0
	mov	eax, DWORD PTR _tcl_callbacks
	mov	DWORD PTR [esp], eax
	call	_g_list_remove_all
LVL212:
	mov	DWORD PTR _tcl_callbacks, eax
LVL213:
	.p2align 2,,3
L133:
	.loc 1 137 0
	mov	eax, DWORD PTR [esp+44]
	xor	eax, DWORD PTR ___stack_chk_guard
	jne	L143
	add	esp, 60
LCFI34:
	.cfi_remember_state
	.cfi_def_cfa_offset 20
	pop	ebx
LCFI35:
	.cfi_restore 3
	.cfi_def_cfa_offset 16
LVL214:
	pop	esi
LCFI36:
	.cfi_restore 6
	.cfi_def_cfa_offset 12
	pop	edi
LCFI37:
	.cfi_restore 7
	.cfi_def_cfa_offset 8
	pop	ebp
LCFI38:
	.cfi_restore 5
	.cfi_def_cfa_offset 4
	ret
LVL215:
L143:
LCFI39:
	.cfi_restore_state
	call	___stack_chk_fail
LVL216:
	.cfi_endproc
LFE97:
	.section .rdata,"dr"
LC15:
	.ascii "::purple::_callback::cb_%d\0"
LC16:
	.ascii "\0"
	.align 4
LC17:
	.ascii "namespace eval %s { proc cb { %s } { %s } }\0"
	.text
	.p2align 2,,3
	.globl	_tcl_signal_connect
	.def	_tcl_signal_connect;	.scl	2;	.type	32;	.endef
_tcl_signal_connect:
LFB96:
	.loc 1 74 0
	.cfi_startproc
LVL217:
	push	ebp
LCFI40:
	.cfi_def_cfa_offset 8
	.cfi_offset 5, -8
	push	edi
LCFI41:
	.cfi_def_cfa_offset 12
	.cfi_offset 7, -12
	push	esi
LCFI42:
	.cfi_def_cfa_offset 16
	.cfi_offset 6, -16
	push	ebx
LCFI43:
	.cfi_def_cfa_offset 20
	.cfi_offset 3, -20
	sub	esp, 92
LCFI44:
	.cfi_def_cfa_offset 112
	mov	ebx, DWORD PTR [esp+112]
	.loc 1 74 0
	mov	eax, DWORD PTR ___stack_chk_guard
	mov	DWORD PTR [esp+76], eax
	xor	eax, eax
	.loc 1 78 0
	mov	eax, DWORD PTR [ebx]
	mov	DWORD PTR [esp], eax
	mov	eax, DWORD PTR _tclStubsPtr
	call	[DWORD PTR [eax+1368]]
LVL218:
	.loc 1 77 0
	lea	edx, [ebx+32]
	mov	DWORD PTR [esp+16], edx
	lea	edx, [ebx+28]
	mov	DWORD PTR [esp+12], edx
	lea	edx, [ebx+24]
	mov	DWORD PTR [esp+8], edx
	mov	DWORD PTR [esp+4], eax
	mov	eax, DWORD PTR [ebx+8]
	mov	DWORD PTR [esp], eax
	call	_purple_signal_get_values
LVL219:
	.loc 1 82 0
	mov	eax, DWORD PTR [ebx]
	mov	DWORD PTR [esp], eax
	mov	eax, DWORD PTR _tclStubsPtr
	call	[DWORD PTR [eax+1368]]
LVL220:
	mov	edx, DWORD PTR [ebx+4]
	mov	DWORD PTR [esp+8], edx
	mov	DWORD PTR [esp+4], eax
	mov	DWORD PTR [esp], edx
	call	_tcl_signal_disconnect
LVL221:
	.loc 1 87 0
	mov	esi, DWORD PTR [ebx+4]
	.loc 1 86 0
	mov	eax, DWORD PTR [ebx]
	mov	DWORD PTR [esp], eax
	mov	eax, DWORD PTR _tclStubsPtr
	call	[DWORD PTR [eax+1368]]
LVL222:
	.loc 1 85 0
	mov	DWORD PTR [esp+16], ebx
	mov	DWORD PTR [esp+12], OFFSET FLAT:_tcl_signal_callback
	mov	DWORD PTR [esp+8], esi
	mov	DWORD PTR [esp+4], eax
	mov	eax, DWORD PTR [ebx+8]
	mov	DWORD PTR [esp], eax
	call	_purple_signal_connect_vargs
LVL223:
	test	eax, eax
	jne	L151
	.loc 1 90 0
	xor	eax, eax
L145:
	.loc 1 109 0
	mov	edx, DWORD PTR [esp+76]
	xor	edx, DWORD PTR ___stack_chk_guard
	jne	L152
	add	esp, 92
LCFI45:
	.cfi_remember_state
	.cfi_def_cfa_offset 20
	pop	ebx
LCFI46:
	.cfi_restore 3
	.cfi_def_cfa_offset 16
	pop	esi
LCFI47:
	.cfi_restore 6
	.cfi_def_cfa_offset 12
	pop	edi
LCFI48:
	.cfi_restore 7
	.cfi_def_cfa_offset 8
	pop	ebp
LCFI49:
	.cfi_restore 5
	.cfi_def_cfa_offset 4
	ret
	.p2align 2,,3
L151:
LCFI50:
	.cfi_restore_state
LBB14:
LBB15:
	.loc 1 399 0
	mov	eax, DWORD PTR _cbnum.47550
	lea	edx, [eax+1]
	mov	DWORD PTR _cbnum.47550, edx
	mov	DWORD PTR [esp+12], eax
	mov	DWORD PTR [esp+8], OFFSET FLAT:LC15
	mov	DWORD PTR [esp+4], 32
	lea	esi, [esp+44]
	mov	DWORD PTR [esp], esi
	call	_g_snprintf
LVL224:
	.loc 1 400 0
	mov	DWORD PTR [esp+4], -1
	mov	DWORD PTR [esp], esi
	mov	eax, DWORD PTR _tclStubsPtr
	call	[DWORD PTR [eax+232]]
LVL225:
LBE15:
LBE14:
	.loc 1 92 0
	mov	DWORD PTR [ebx+12], eax
	.loc 1 93 0
	inc	DWORD PTR [eax]
	.loc 1 94 0
	mov	DWORD PTR [esp], OFFSET FLAT:LC16
	call	_g_string_new
LVL226:
	mov	esi, eax
LVL227:
	.loc 1 95 0
	mov	eax, DWORD PTR [ebx+20]
LVL228:
	mov	DWORD PTR [esp], eax
	mov	eax, DWORD PTR _tclStubsPtr
	call	[DWORD PTR [eax+1368]]
LVL229:
	mov	ebp, eax
	mov	eax, DWORD PTR [ebx+16]
	mov	DWORD PTR [esp], eax
	mov	eax, DWORD PTR _tclStubsPtr
	call	[DWORD PTR [eax+1368]]
LVL230:
	mov	edi, eax
	mov	eax, DWORD PTR [ebx+12]
	mov	DWORD PTR [esp], eax
	mov	eax, DWORD PTR _tclStubsPtr
	call	[DWORD PTR [eax+1368]]
LVL231:
	mov	DWORD PTR [esp+16], ebp
	mov	DWORD PTR [esp+12], edi
	mov	DWORD PTR [esp+8], eax
	mov	DWORD PTR [esp+4], OFFSET FLAT:LC17
	mov	DWORD PTR [esp], esi
	call	_g_string_append_printf
LVL232:
	.loc 1 99 0
	mov	eax, DWORD PTR [esi]
	mov	DWORD PTR [esp+4], eax
	mov	eax, DWORD PTR [ebx+4]
	mov	DWORD PTR [esp], eax
	mov	eax, DWORD PTR _tclStubsPtr
	call	[DWORD PTR [eax+524]]
LVL233:
	test	eax, eax
	je	L146
	.loc 1 100 0
	mov	eax, DWORD PTR [ebx+12]
	mov	edx, DWORD PTR [eax]
	dec	edx
	mov	DWORD PTR [eax], edx
	test	edx, edx
	jle	L153
L147:
	.loc 1 101 0
	mov	DWORD PTR [esp+4], 1
	mov	DWORD PTR [esp], esi
	call	_g_string_free
LVL234:
	.loc 1 102 0
	xor	eax, eax
	jmp	L145
	.p2align 2,,3
L146:
	.loc 1 104 0
	mov	DWORD PTR [esp+4], 1
	mov	DWORD PTR [esp], esi
	call	_g_string_free
LVL235:
	.loc 1 106 0
	mov	DWORD PTR [esp+4], ebx
	mov	eax, DWORD PTR _tcl_callbacks
	mov	DWORD PTR [esp], eax
	call	_g_list_append
LVL236:
	mov	DWORD PTR _tcl_callbacks, eax
	.loc 1 108 0
	mov	eax, 1
	jmp	L145
	.p2align 2,,3
L153:
	.loc 1 100 0 discriminator 1
	mov	DWORD PTR [esp], eax
	mov	eax, DWORD PTR _tclStubsPtr
	call	[DWORD PTR [eax+128]]
LVL237:
	jmp	L147
LVL238:
L152:
	.loc 1 109 0
	call	___stack_chk_fail
LVL239:
	.cfi_endproc
LFE96:
.lcomm _tcl_callbacks,4,4
.lcomm _cbnum.47550,4,4
Letext0:
	.file 2 "c:/workspace/pidgin-devel/win32-dev/mingw-4.7.2/bin/../lib/gcc/mingw32/4.7.2/include/stddef.h"
	.file 3 "c:/workspace/pidgin-devel/win32-dev/mingw-4.7.2/bin/../lib/gcc/mingw32/4.7.2/include/stdarg.h"
	.file 4 "c:/workspace/pidgin-devel/win32-dev/mingw-4.7.2/bin/../lib/gcc/mingw32/4.7.2/../../../../include/stdio.h"
	.file 5 "c:/workspace/pidgin-devel/win32-dev/mingw-4.7.2/bin/../lib/gcc/mingw32/4.7.2/../../../../include/sys/types.h"
	.file 6 "../../../../win32-dev/tcl-8.4.5/include/tcl.h"
	.file 7 "c:/workspace/pidgin-devel/win32-dev/mingw-4.7.2/bin/../lib/gcc/mingw32/4.7.2/../../../../include/sys/stat.h"
	.file 8 "../../../../win32-dev/tcl-8.4.5/include/tclDecls.h"
	.file 9 "../../../../win32-dev/tcl-8.4.5/include/tclPlatDecls.h"
	.file 10 "c:/workspace/pidgin-devel/win32-dev/mingw-4.7.2/bin/../lib/gcc/mingw32/4.7.2/../../../../include/tchar.h"
	.file 11 "c:/workspace/pidgin-devel/win32-dev/mingw-4.7.2/bin/../lib/gcc/mingw32/4.7.2/../../../../include/time.h"
	.file 12 "../../../../win32-dev/gtk_2_0-2.14/lib/glib-2.0/include/glibconfig.h"
	.file 13 "../../../../win32-dev/gtk_2_0-2.14/include/glib-2.0/glib/gtypes.h"
	.file 14 "../../../../win32-dev/gtk_2_0-2.14/include/glib-2.0/glib/glist.h"
	.file 15 "../../../../win32-dev/gtk_2_0-2.14/include/glib-2.0/glib/ghash.h"
	.file 16 "../../../../win32-dev/gtk_2_0-2.14/include/glib-2.0/glib/gslist.h"
	.file 17 "../../../../win32-dev/gtk_2_0-2.14/include/glib-2.0/glib/gstring.h"
	.file 18 "../../../libpurple/account.h"
	.file 19 "../../../libpurple/connection.h"
	.file 20 "../../../libpurple/value.h"
	.file 21 "../../../libpurple/signals.h"
	.file 22 "../../../libpurple/plugin.h"
	.file 23 "../../../libpurple/pluginpref.h"
	.file 24 "../../../libpurple/status.h"
	.file 25 "../../../libpurple/blist.h"
	.file 26 "../../../libpurple/buddyicon.h"
	.file 27 "../../../libpurple/conversation.h"
	.file 28 "../../../libpurple/log.h"
	.file 29 "../../../libpurple/media/enum-types.h"
	.file 30 "../../../libpurple/proxy.h"
	.file 31 "c:/workspace/pidgin-devel/win32-dev/mingw-4.7.2/bin/../lib/gcc/mingw32/4.7.2/../../../../include/wtypes.h"
	.file 32 "../../../libpurple/privacy.h"
	.file 33 "../../../libpurple/stringref.h"
	.file 34 "tcl_purple.h"
	.file 35 "../../../libpurple/debug.h"
	.file 36 "c:/workspace/pidgin-devel/win32-dev/mingw-4.7.2/bin/../lib/gcc/mingw32/4.7.2/../../../../include/ctype.h"
	.file 37 "../../../../win32-dev/gtk_2_0-2.14/include/glib-2.0/glib/gstrfuncs.h"
	.file 38 "../../../../win32-dev/gtk_2_0-2.14/include/glib-2.0/glib/gmem.h"
	.file 39 "c:/workspace/pidgin-devel/win32-dev/mingw-4.7.2/bin/../lib/gcc/mingw32/4.7.2/../../../../include/string.h"
	.file 40 "../../../../win32-dev/gtk_2_0-2.14/include/glib-2.0/glib/gutils.h"