	.file	"tcl_cmds.c"
	.intel_syntax noprefix
	.text
Ltext0:
	.p2align 2,,3
	.def	_unload_self;	.scl	3;	.type	32;	.endef
_unload_self:
LFB114:
	.file 1 "tcl_cmds.c"
	.loc 1 1794 0
	.cfi_startproc
LVL0:
	sub	esp, 44
LCFI0:
	.cfi_def_cfa_offset 48
	.loc 1 1794 0
	mov	eax, DWORD PTR ___stack_chk_guard
	mov	DWORD PTR [esp+28], eax
	xor	eax, eax
LVL1:
	.loc 1 1796 0
	mov	eax, DWORD PTR [esp+48]
	mov	DWORD PTR [esp], eax
	call	_purple_plugin_unload
LVL2:
	.loc 1 1798 0
	xor	eax, eax
	mov	edx, DWORD PTR [esp+28]
	xor	edx, DWORD PTR ___stack_chk_guard
	jne	L5
	add	esp, 44
LCFI1:
	.cfi_remember_state
	.cfi_def_cfa_offset 4
	ret
L5:
LCFI2:
	.cfi_restore_state
	call	___stack_chk_fail
LVL3:
	.cfi_endproc
LFE114:
	.p2align 2,,3
	.def	_tcl_validate_gc;	.scl	3;	.type	32;	.endef
_tcl_validate_gc:
LFB95:
	.loc 1 83 0
	.cfi_startproc
LVL4:
	push	ebx
LCFI3:
	.cfi_def_cfa_offset 8
	.cfi_offset 3, -8
	sub	esp, 40
LCFI4:
	.cfi_def_cfa_offset 48
	.loc 1 83 0
	mov	ecx, DWORD PTR ___stack_chk_guard
	mov	DWORD PTR [esp+28], ecx
	xor	ecx, ecx
	.loc 1 87 0
	mov	ecx, DWORD PTR _PurpleTclRefConnection
	mov	DWORD PTR [esp+8], ecx
	mov	DWORD PTR [esp+4], eax
	mov	DWORD PTR [esp], edx
	call	_purple_tcl_ref_get
LVL5:
	mov	ebx, eax
LVL6:
	.loc 1 89 0
	test	eax, eax
	je	L9
	.loc 1 92 0
	call	_purple_connections_get_all
LVL7:
	test	eax, eax
	je	L9
	.p2align 2,,3
L12:
	.loc 1 93 0
	cmp	DWORD PTR [eax], ebx
	je	L8
	.loc 1 92 0 discriminator 1
	mov	eax, DWORD PTR [eax+4]
LVL8:
	test	eax, eax
	jne	L12
LVL9:
L9:
	.loc 1 90 0
	xor	ebx, ebx
LVL10:
L8:
	.loc 1 97 0
	mov	eax, ebx
	mov	edx, DWORD PTR [esp+28]
	xor	edx, DWORD PTR ___stack_chk_guard
	jne	L19
	add	esp, 40
LCFI5:
	.cfi_remember_state
	.cfi_def_cfa_offset 8
	pop	ebx
LCFI6:
	.cfi_restore 3
	.cfi_def_cfa_offset 4
	ret
L19:
LCFI7:
	.cfi_restore_state
	call	___stack_chk_fail
LVL11:
	.cfi_endproc
LFE95:
	.section .rdata,"dr"
LC78:
	.ascii "invalid conversation\0"
	.text
	.p2align 2,,3
	.def	_tcl_validate_conversation;	.scl	3;	.type	32;	.endef
_tcl_validate_conversation:
LFB94:
	.loc 1 64 0
	.cfi_startproc
LVL12:
	push	esi
LCFI8:
	.cfi_def_cfa_offset 8
	.cfi_offset 6, -8
	push	ebx
LCFI9:
	.cfi_def_cfa_offset 12
	.cfi_offset 3, -12
	sub	esp, 36
LCFI10:
	.cfi_def_cfa_offset 48
	mov	esi, edx
	.loc 1 64 0
	mov	edx, DWORD PTR ___stack_chk_guard
	mov	DWORD PTR [esp+28], edx
	xor	edx, edx
LVL13:
	.loc 1 68 0
	mov	edx, DWORD PTR _PurpleTclRefConversation
	mov	DWORD PTR [esp+8], edx
	mov	DWORD PTR [esp+4], eax
	mov	DWORD PTR [esp], esi
	call	_purple_tcl_ref_get
LVL14:
	mov	ebx, eax
LVL15:
	.loc 1 70 0
	test	eax, eax
	je	L37
	.loc 1 73 0
	call	_purple_get_conversations
LVL16:
	test	eax, eax
	je	L23
	.p2align 2,,3
L26:
	.loc 1 74 0
	cmp	DWORD PTR [eax], ebx
	je	L22
	.loc 1 73 0 discriminator 1
	mov	eax, DWORD PTR [eax+4]
LVL17:
	test	eax, eax
	jne	L26
L23:
	.loc 1 77 0
	test	esi, esi
	je	L37
LVL18:
LBB4:
LBB5:
	.loc 1 78 0
	mov	eax, DWORD PTR _tclStubsPtr
LVL19:
	mov	ebx, DWORD PTR [eax+948]
LVL20:
	mov	DWORD PTR [esp+4], -1
	mov	DWORD PTR [esp], OFFSET FLAT:LC78
	call	[DWORD PTR [eax+232]]
LVL21:
	mov	DWORD PTR [esp+4], eax
	mov	DWORD PTR [esp], esi
	call	ebx
LVL22:
L37:
	xor	ebx, ebx
L22:
LBE5:
LBE4:
	.loc 1 80 0
	mov	eax, ebx
	mov	edx, DWORD PTR [esp+28]
	xor	edx, DWORD PTR ___stack_chk_guard
	jne	L38
	add	esp, 36
LCFI11:
	.cfi_remember_state
	.cfi_def_cfa_offset 12
	pop	ebx
LCFI12:
	.cfi_restore 3
	.cfi_def_cfa_offset 8
	pop	esi
LCFI13:
	.cfi_restore 6
	.cfi_def_cfa_offset 4
LVL23:
	ret
LVL24:
L38:
LCFI14:
	.cfi_restore_state
	call	___stack_chk_fail
LVL25:
	.cfi_endproc
LFE94:
	.section .rdata,"dr"
LC79:
	.ascii "invalid account\0"
	.text
	.p2align 2,,3
	.def	_tcl_validate_account;	.scl	3;	.type	32;	.endef
_tcl_validate_account:
LFB93:
	.loc 1 45 0
	.cfi_startproc
LVL26:
	push	esi
LCFI15:
	.cfi_def_cfa_offset 8
	.cfi_offset 6, -8
	push	ebx
LCFI16:
	.cfi_def_cfa_offset 12
	.cfi_offset 3, -12
	sub	esp, 36
LCFI17:
	.cfi_def_cfa_offset 48
	mov	esi, edx
	.loc 1 45 0
	mov	edx, DWORD PTR ___stack_chk_guard
	mov	DWORD PTR [esp+28], edx
	xor	edx, edx
LVL27:
	.loc 1 49 0
	mov	edx, DWORD PTR _PurpleTclRefAccount
	mov	DWORD PTR [esp+8], edx
	mov	DWORD PTR [esp+4], eax
	mov	DWORD PTR [esp], esi
	call	_purple_tcl_ref_get
LVL28:
	mov	ebx, eax
LVL29:
	.loc 1 51 0
	test	eax, eax
	je	L56
	.loc 1 54 0
	call	_purple_accounts_get_all
LVL30:
	test	eax, eax
	je	L42
	.p2align 2,,3
L45:
	.loc 1 55 0
	cmp	DWORD PTR [eax], ebx
	je	L41
	.loc 1 54 0 discriminator 1
	mov	eax, DWORD PTR [eax+4]
LVL31:
	test	eax, eax
	jne	L45
L42:
	.loc 1 58 0
	test	esi, esi
	je	L56
LVL32:
LBB8:
LBB9:
	.loc 1 59 0
	mov	eax, DWORD PTR _tclStubsPtr
LVL33:
	mov	ebx, DWORD PTR [eax+948]
LVL34:
	mov	DWORD PTR [esp+4], -1
	mov	DWORD PTR [esp], OFFSET FLAT:LC79
	call	[DWORD PTR [eax+232]]
LVL35:
	mov	DWORD PTR [esp+4], eax
	mov	DWORD PTR [esp], esi
	call	ebx
LVL36:
L56:
	xor	ebx, ebx
L41:
LBE9:
LBE8:
	.loc 1 61 0
	mov	eax, ebx
	mov	edx, DWORD PTR [esp+28]
	xor	edx, DWORD PTR ___stack_chk_guard
	jne	L57
	add	esp, 36
LCFI18:
	.cfi_remember_state
	.cfi_def_cfa_offset 12
	pop	ebx
LCFI19:
	.cfi_restore 3
	.cfi_def_cfa_offset 8
	pop	esi
LCFI20:
	.cfi_restore 6
	.cfi_def_cfa_offset 4
LVL37:
	ret
LVL38:
L57:
LCFI21:
	.cfi_restore_state
	call	___stack_chk_fail
LVL39:
	.cfi_endproc
LFE93:
	.section .rdata,"dr"
LC80:
	.ascii "\0"
LC83:
	.ascii "subcommand ?args?\0"
LC84:
	.ascii "subcommand\0"
LC21:
	.ascii "account\0"
LC85:
	.ascii "account ?enabled?\0"
LC86:
	.ascii "username protocol\0"
LC87:
	.ascii "?option?\0"
LC88:
	.ascii "option\0"
	.align 4
LC89:
	.ascii "account ?status_id name value ...?\0"
	.align 4
LC90:
	.ascii "name without value setting status\0"
LC91:
	.ascii "invalid status for account\0"
LC92:
	.ascii "invalid attribute for account\0"
LC93:
	.ascii "unknown PurpleValue type\0"
	.align 4
LC94:
	.ascii "account ?statustype? ?-primitive primitive?\0"
LC95:
	.ascii "-primitive\0"
LC96:
	.ascii "bad option \"\0"
LC97:
	.ascii "\": should be -primitive\0"
LC98:
	.ascii "status type not found\0"
LC63:
	.ascii "alias\0"
LC15:
	.ascii "connect\0"
LC66:
	.ascii "connection\0"
LC16:
	.ascii "disconnect\0"
LC67:
	.ascii "enabled\0"
LC45:
	.ascii "find\0"
LC19:
	.ascii "handle\0"
LC68:
	.ascii "isconnected\0"
LC46:
	.ascii "list\0"
LC69:
	.ascii "presence\0"
LC70:
	.ascii "protocol\0"
LC29:
	.ascii "status\0"
LC71:
	.ascii "status_type\0"
LC72:
	.ascii "status_types\0"
LC73:
	.ascii "username\0"
	.data
	.align 32
LC81:
	.long	LC63
	.long	LC15
	.long	LC66
	.long	LC16
	.long	LC67
	.long	LC45
	.long	LC19
	.long	LC68
	.long	LC46
	.long	LC69
	.long	LC70
	.long	LC29
	.long	LC71
	.long	LC72
	.long	LC73
	.long	0
	.section .rdata,"dr"
LC75:
	.ascii "-all\0"
LC76:
	.ascii "-online\0"
	.data
	.align 4
LC82:
	.long	LC75
	.long	LC76
	.long	0
	.text
	.p2align 2,,3
	.globl	_tcl_cmd_account
	.def	_tcl_cmd_account;	.scl	2;	.type	32;	.endef
_tcl_cmd_account:
LFB96:
	.loc 1 100 0
	.cfi_startproc
LVL40:
	push	ebp
LCFI22:
	.cfi_def_cfa_offset 8
	.cfi_offset 5, -8
	push	edi
LCFI23:
	.cfi_def_cfa_offset 12
	.cfi_offset 7, -12
	push	esi
LCFI24:
	.cfi_def_cfa_offset 16
	.cfi_offset 6, -16
	push	ebx
LCFI25:
	.cfi_def_cfa_offset 20
	.cfi_offset 3, -20
	sub	esp, 172
LCFI26:
	.cfi_def_cfa_offset 192
	mov	edx, DWORD PTR [esp+196]
	mov	DWORD PTR [esp+48], edx
	mov	ebx, DWORD PTR [esp+200]
	mov	ebp, DWORD PTR [esp+204]
	.loc 1 100 0
	mov	eax, DWORD PTR ___stack_chk_guard
	mov	DWORD PTR [esp+156], eax
	xor	eax, eax
	.loc 1 102 0
	lea	eax, [esp+92]
	mov	esi, OFFSET FLAT:LC81
	mov	ecx, 16
	mov	edi, eax
	rep movsd
	.loc 1 114 0
	lea	edx, [esp+80]
	mov	DWORD PTR [esp+52], edx
	mov	esi, OFFSET FLAT:LC82
	mov	cl, 3
	mov	edi, edx
	rep movsd
	.loc 1 126 0
	cmp	ebx, 1
	jle	L187
	.loc 1 131 0
	lea	edx, [esp+68]
	mov	DWORD PTR [esp+20], edx
	mov	DWORD PTR [esp+16], 0
	mov	DWORD PTR [esp+12], OFFSET FLAT:LC84
	mov	DWORD PTR [esp+8], eax
	mov	eax, DWORD PTR [ebp+4]
	mov	DWORD PTR [esp+4], eax
	mov	edx, DWORD PTR [esp+48]
	mov	DWORD PTR [esp], edx
	mov	eax, DWORD PTR _tclStubsPtr
	call	[DWORD PTR [eax+152]]
LVL41:
	mov	DWORD PTR [esp+44], eax
LVL42:
	test	eax, eax
	jne	L60
LVL43:
	.loc 1 134 0
	cmp	DWORD PTR [esp+68], 14
	ja	L60
	mov	eax, DWORD PTR [esp+68]
LVL44:
	jmp	[DWORD PTR L76[0+eax*4]]
	.section .rdata,"dr"
	.align 4
L76:
	.long	L61
	.long	L62
	.long	L63
	.long	L64
	.long	L65
	.long	L66
	.long	L67
	.long	L68
	.long	L69
	.long	L70
	.long	L71
	.long	L72
	.long	L73
	.long	L74
	.long	L75
	.text
LVL45:
L195:
LBB10:
	.loc 1 297 0
	lea	eax, [esp+76]
	mov	DWORD PTR [esp+8], eax
	mov	eax, DWORD PTR [ebp+4+edi*4]
	mov	DWORD PTR [esp+4], eax
	mov	edx, DWORD PTR [esp+48]
	mov	DWORD PTR [esp], edx
	mov	eax, DWORD PTR _tclStubsPtr
	call	[DWORD PTR [eax+136]]
LVL46:
	.loc 1 298 0
	test	eax, eax
	jne	L127
L170:
	.loc 1 307 0
	mov	DWORD PTR [esp+4], esi
	mov	DWORD PTR [esp], ebx
	call	_g_list_append
LVL47:
	.loc 1 308 0
	mov	edx, DWORD PTR [esp+76]
	mov	DWORD PTR [esp+4], edx
	mov	DWORD PTR [esp], eax
	call	_g_list_append
LVL48:
	mov	ebx, eax
LVL49:
L112:
	.loc 1 288 0
	add	edi, 2
LVL50:
	cmp	DWORD PTR [esp+60], edi
	jg	L105
	mov	esi, ebx
LVL51:
L106:
	.loc 1 319 0
	mov	eax, DWORD PTR [ebp+12]
	mov	DWORD PTR [esp], eax
	mov	eax, DWORD PTR _tclStubsPtr
	call	[DWORD PTR [eax+1368]]
LVL52:
	mov	DWORD PTR [esp+12], esi
	mov	DWORD PTR [esp+8], 1
	mov	DWORD PTR [esp+4], eax
	mov	eax, DWORD PTR [esp+56]
	mov	DWORD PTR [esp], eax
	call	_purple_account_set_status_list
LVL53:
	.loc 1 320 0
	mov	DWORD PTR [esp], esi
	call	_g_list_free
LVL54:
	.p2align 2,,3
L60:
LBE10:
	.loc 1 383 0
	mov	eax, DWORD PTR [esp+44]
	mov	edx, DWORD PTR [esp+156]
	xor	edx, DWORD PTR ___stack_chk_guard
	jne	L188
	add	esp, 172
LCFI27:
	.cfi_remember_state
	.cfi_def_cfa_offset 20
	pop	ebx
LCFI28:
	.cfi_restore 3
	.cfi_def_cfa_offset 16
	pop	esi
LCFI29:
	.cfi_restore 6
	.cfi_def_cfa_offset 12
	pop	edi
LCFI30:
	.cfi_restore 7
	.cfi_def_cfa_offset 8
	pop	ebp
LCFI31:
	.cfi_restore 5
	.cfi_def_cfa_offset 4
	ret
LVL55:
	.p2align 2,,3
L187:
LCFI32:
	.cfi_restore_state
	.loc 1 127 0
	mov	DWORD PTR [esp+12], OFFSET FLAT:LC83
	mov	DWORD PTR [esp+8], ebp
	mov	DWORD PTR [esp+4], 1
LVL56:
L186:
	.loc 1 372 0
	mov	edx, DWORD PTR [esp+48]
	mov	DWORD PTR [esp], edx
	mov	eax, DWORD PTR _tclStubsPtr
LVL57:
	call	[DWORD PTR [eax+1064]]
LVL58:
L184:
LBB11:
	.loc 1 293 0
	mov	DWORD PTR [esp+44], 1
	jmp	L60
LVL59:
L74:
LBE11:
	.loc 1 355 0
	cmp	ebx, 3
	je	L118
	.p2align 2,,3
L180:
	.loc 1 372 0
	mov	DWORD PTR [esp+12], OFFSET FLAT:LC21
L178:
	mov	DWORD PTR [esp+8], ebp
	mov	DWORD PTR [esp+4], 2
	jmp	L186
L75:
	.loc 1 371 0
	cmp	ebx, 3
	jne	L180
	.loc 1 375 0
	mov	eax, DWORD PTR [ebp+8]
LVL60:
	mov	edx, DWORD PTR [esp+48]
	call	_tcl_validate_account
LVL61:
	test	eax, eax
	je	L184
	.loc 1 377 0
	mov	edx, DWORD PTR _tclStubsPtr
	mov	ebx, DWORD PTR [edx+948]
	.loc 1 378 0
	mov	esi, DWORD PTR [edx+232]
	.loc 1 377 0
	mov	DWORD PTR [esp], eax
	call	_purple_account_get_username
LVL62:
L183:
	mov	DWORD PTR [esp+4], -1
	mov	DWORD PTR [esp], eax
	call	esi
LVL63:
	mov	DWORD PTR [esp+4], eax
	mov	edx, DWORD PTR [esp+48]
	mov	DWORD PTR [esp], edx
	call	ebx
LVL64:
	.loc 1 379 0
	jmp	L60
LVL65:
L61:
	.loc 1 136 0
	cmp	ebx, 3
	jne	L180
	.loc 1 140 0
	mov	eax, DWORD PTR [ebp+8]
LVL66:
	mov	edx, DWORD PTR [esp+48]
	call	_tcl_validate_account
LVL67:
	test	eax, eax
	je	L184
	.loc 1 142 0
	mov	DWORD PTR [esp], eax
	call	_purple_account_get_alias
LVL68:
	.loc 1 143 0
	mov	edx, DWORD PTR _tclStubsPtr
	mov	ebx, DWORD PTR [edx+948]
	mov	edx, DWORD PTR [edx+232]
	test	eax, eax
	je	L189
LVL69:
L79:
	.loc 1 143 0 is_stmt 0 discriminator 3
	mov	DWORD PTR [esp+4], -1
	mov	DWORD PTR [esp], eax
	call	edx
LVL70:
	mov	DWORD PTR [esp+4], eax
	mov	edx, DWORD PTR [esp+48]
	mov	DWORD PTR [esp], edx
	call	ebx
LVL71:
	.loc 1 144 0 is_stmt 1 discriminator 3
	jmp	L60
LVL72:
L62:
	.loc 1 146 0
	cmp	ebx, 3
	jne	L180
	.loc 1 150 0
	mov	eax, DWORD PTR [ebp+8]
LVL73:
	mov	edx, DWORD PTR [esp+48]
	call	_tcl_validate_account
LVL74:
	mov	ebx, eax
LVL75:
	test	eax, eax
	je	L184
	.loc 1 152 0
	mov	DWORD PTR [esp], eax
	call	_purple_account_is_connected
LVL76:
	test	eax, eax
	jne	L82
	.loc 1 153 0
	mov	DWORD PTR [esp], ebx
	call	_purple_account_connect
LVL77:
L82:
	.loc 1 154 0
	mov	eax, DWORD PTR _tclStubsPtr
	mov	esi, DWORD PTR [eax+948]
	.loc 1 156 0
	mov	DWORD PTR [esp], ebx
	call	_purple_account_get_connection
LVL78:
	.loc 1 154 0
	mov	DWORD PTR [esp+4], eax
	mov	eax, DWORD PTR _PurpleTclRefConnection
	mov	DWORD PTR [esp], eax
	call	_purple_tcl_ref_new
LVL79:
	mov	DWORD PTR [esp+4], eax
	mov	edx, DWORD PTR [esp+48]
	mov	DWORD PTR [esp], edx
	call	esi
LVL80:
	.loc 1 157 0
	jmp	L60
LVL81:
L64:
	.loc 1 171 0
	cmp	ebx, 3
	je	L84
L185:
	.loc 1 249 0
	mov	DWORD PTR [esp+12], OFFSET FLAT:LC21
LVL82:
L181:
	.loc 1 199 0
	mov	DWORD PTR [esp+8], ebp
	mov	DWORD PTR [esp+4], 2
	mov	edx, DWORD PTR [esp+48]
	mov	DWORD PTR [esp], edx
	mov	eax, DWORD PTR _tclStubsPtr
LVL83:
	call	[DWORD PTR [eax+1064]]
LVL84:
	.loc 1 200 0
	mov	DWORD PTR [esp+44], 1
	jmp	L60
LVL85:
L65:
	.loc 1 180 0
	lea	eax, [ebx-3]
LVL86:
	cmp	eax, 1
	jbe	L85
	.loc 1 181 0
	mov	DWORD PTR [esp+12], OFFSET FLAT:LC85
	jmp	L178
LVL87:
L63:
	.loc 1 159 0
	cmp	ebx, 3
	jne	L180
	.loc 1 164 0
	mov	eax, DWORD PTR [ebp+8]
LVL88:
	mov	edx, DWORD PTR [esp+48]
	call	_tcl_validate_account
LVL89:
	test	eax, eax
	je	L184
	.loc 1 166 0
	mov	edx, DWORD PTR _tclStubsPtr
	mov	ebx, DWORD PTR [edx+948]
	.loc 1 168 0
	mov	DWORD PTR [esp], eax
	call	_purple_account_get_connection
LVL90:
	.loc 1 166 0
	mov	DWORD PTR [esp+4], eax
	mov	eax, DWORD PTR _PurpleTclRefConnection
	.p2align 2,,3
L177:
	.loc 1 350 0
	mov	DWORD PTR [esp], eax
	call	_purple_tcl_ref_new
LVL91:
	mov	DWORD PTR [esp+4], eax
	mov	edx, DWORD PTR [esp+48]
	mov	DWORD PTR [esp], edx
	call	ebx
LVL92:
	.loc 1 353 0
	jmp	L60
LVL93:
L66:
	.loc 1 198 0
	cmp	ebx, 4
	je	L87
	.loc 1 199 0
	mov	DWORD PTR [esp+12], OFFSET FLAT:LC86
	jmp	L181
L67:
	.loc 1 208 0
	cmp	ebx, 2
	je	L88
	.loc 1 209 0
	mov	DWORD PTR [esp+12], OFFSET FLAT:LC80
	jmp	L181
L70:
	.loc 1 248 0
	cmp	ebx, 3
	jne	L185
	.loc 1 252 0
	mov	eax, DWORD PTR [ebp+8]
LVL94:
	mov	edx, DWORD PTR [esp+48]
	call	_tcl_validate_account
LVL95:
	test	eax, eax
	je	L184
	.loc 1 254 0
	mov	edx, DWORD PTR _tclStubsPtr
	mov	ebx, DWORD PTR [edx+948]
	.loc 1 255 0
	mov	DWORD PTR [esp], eax
	call	_purple_account_get_presence
LVL96:
	.loc 1 254 0
	mov	DWORD PTR [esp+4], eax
	mov	eax, DWORD PTR _PurpleTclRefPresence
	jmp	L177
LVL97:
L68:
	.loc 1 217 0
	cmp	ebx, 3
	jne	L185
	.loc 1 221 0
	mov	eax, DWORD PTR [ebp+8]
LVL98:
	mov	edx, DWORD PTR [esp+48]
	call	_tcl_validate_account
LVL99:
	test	eax, eax
	je	L184
	.loc 1 223 0
	mov	edx, DWORD PTR _tclStubsPtr
	mov	ebx, DWORD PTR [edx+948]
	.loc 1 224 0
	mov	esi, DWORD PTR [edx+204]
	.loc 1 223 0
	mov	DWORD PTR [esp], eax
	call	_purple_account_is_connected
LVL100:
	mov	DWORD PTR [esp], eax
	call	esi
LVL101:
	mov	DWORD PTR [esp+4], eax
	mov	edx, DWORD PTR [esp+48]
	mov	DWORD PTR [esp], edx
	call	ebx
LVL102:
	.loc 1 226 0
	jmp	L60
LVL103:
L69:
	.loc 1 228 0
	mov	DWORD PTR [esp+72], 0
LVL104:
	.loc 1 229 0
	cmp	ebx, 3
	jg	L190
	.loc 1 233 0
	je	L91
LVL105:
L94:
	.loc 1 237 0
	mov	DWORD PTR [esp+4], 0
	mov	DWORD PTR [esp], 0
	mov	eax, DWORD PTR _tclStubsPtr
	call	[DWORD PTR [eax+220]]
LVL106:
	mov	esi, eax
LVL107:
	.loc 1 238 0
	call	_purple_accounts_get_all
LVL108:
	mov	ebx, eax
LVL109:
	test	eax, eax
	je	L121
	mov	ebp, DWORD PTR [esp+48]
	jmp	L150
LVL110:
	.p2align 2,,3
L97:
	.loc 1 242 0
	mov	DWORD PTR [esp+4], edi
	mov	eax, DWORD PTR _PurpleTclRefAccount
	mov	DWORD PTR [esp], eax
	call	_purple_tcl_ref_new
LVL111:
	.loc 1 243 0
	mov	DWORD PTR [esp+8], eax
	mov	DWORD PTR [esp+4], esi
	mov	DWORD PTR [esp], ebp
	mov	eax, DWORD PTR _tclStubsPtr
LVL112:
	call	[DWORD PTR [eax+184]]
LVL113:
L96:
	.loc 1 238 0
	mov	ebx, DWORD PTR [ebx+4]
LVL114:
	test	ebx, ebx
	je	L121
LVL115:
L150:
	.loc 1 239 0
	mov	edi, DWORD PTR [ebx]
LVL116:
	.loc 1 240 0
	cmp	DWORD PTR [esp+72], 1
	jne	L97
	.loc 1 240 0 is_stmt 0 discriminator 1
	mov	DWORD PTR [esp], edi
	call	_purple_account_is_connected
LVL117:
	test	eax, eax
	jne	L97
	jmp	L96
LVL118:
L72:
	.loc 1 267 0 is_stmt 1
	cmp	ebx, 2
	je	L191
	.loc 1 271 0
	mov	eax, DWORD PTR [ebp+8]
LVL119:
	mov	edx, DWORD PTR [esp+48]
	call	_tcl_validate_account
LVL120:
	mov	DWORD PTR [esp+56], eax
LVL121:
	test	eax, eax
	je	L184
	.loc 1 273 0
	cmp	ebx, 3
	je	L192
LVL122:
LBB12:
	.loc 1 279 0
	test	bl, 1
	jne	L193
	.loc 1 283 0
	mov	eax, DWORD PTR [ebp+12]
LVL123:
	mov	DWORD PTR [esp], eax
	mov	eax, DWORD PTR _tclStubsPtr
	call	[DWORD PTR [eax+1368]]
LVL124:
	mov	DWORD PTR [esp+4], eax
	mov	eax, DWORD PTR [esp+56]
	mov	DWORD PTR [esp], eax
	call	_purple_account_get_status
LVL125:
	mov	DWORD PTR [esp+52], eax
LVL126:
	.loc 1 284 0
	test	eax, eax
	je	L104
LVL127:
	.loc 1 288 0 discriminator 1
	xor	esi, esi
	cmp	ebx, 4
	je	L106
	.loc 1 288 0 is_stmt 0
	mov	edi, 4
	.loc 1 304 0 is_stmt 1
	mov	DWORD PTR [esp+60], ebx
	mov	ebx, esi
LVL128:
L105:
	.loc 1 289 0
	mov	eax, DWORD PTR [ebp+0+edi*4]
	mov	DWORD PTR [esp], eax
	mov	eax, DWORD PTR _tclStubsPtr
	call	[DWORD PTR [eax+1368]]
LVL129:
	mov	esi, eax
LVL130:
	.loc 1 290 0
	mov	DWORD PTR [esp+4], eax
	mov	eax, DWORD PTR [esp+52]
LVL131:
	mov	DWORD PTR [esp], eax
	call	_purple_status_get_attr_value
LVL132:
	.loc 1 291 0
	test	eax, eax
	je	L194
	.loc 1 295 0
	mov	DWORD PTR [esp], eax
	call	_purple_value_get_type
LVL133:
	cmp	eax, 7
	je	L110
	cmp	eax, 13
	je	L111
	cmp	eax, 4
	je	L195
	.loc 1 315 0
	mov	eax, DWORD PTR _tclStubsPtr
	mov	ebx, DWORD PTR [eax+948]
	mov	DWORD PTR [esp+4], -1
	mov	DWORD PTR [esp], OFFSET FLAT:LC93
LVL134:
L182:
	.loc 1 292 0
	call	[DWORD PTR [eax+232]]
LVL135:
	mov	DWORD PTR [esp+4], eax
	mov	edx, DWORD PTR [esp+48]
	mov	DWORD PTR [esp], edx
	call	ebx
LVL136:
	jmp	L184
LVL137:
L73:
LBE12:
	.loc 1 324 0
	lea	eax, [ebx-4]
LVL138:
	cmp	eax, 1
	jbe	L113
	.loc 1 325 0
	mov	DWORD PTR [esp+12], OFFSET FLAT:LC94
	jmp	L178
LVL139:
L71:
	.loc 1 258 0
	cmp	ebx, 3
	jne	L180
	.loc 1 262 0
	mov	eax, DWORD PTR [ebp+8]
LVL140:
	mov	edx, DWORD PTR [esp+48]
	call	_tcl_validate_account
LVL141:
	test	eax, eax
	je	L184
	.loc 1 264 0
	mov	edx, DWORD PTR _tclStubsPtr
	mov	ebx, DWORD PTR [edx+948]
	mov	esi, DWORD PTR [edx+232]
	mov	DWORD PTR [esp], eax
	call	_purple_account_get_protocol_id
LVL142:
	jmp	L183
LVL143:
L118:
	.loc 1 359 0
	mov	eax, DWORD PTR [ebp+8]
LVL144:
	mov	edx, DWORD PTR [esp+48]
	call	_tcl_validate_account
LVL145:
	mov	ebx, eax
LVL146:
	test	eax, eax
	je	L184
	.loc 1 361 0
	mov	DWORD PTR [esp+4], 0
	mov	DWORD PTR [esp], 0
	mov	eax, DWORD PTR _tclStubsPtr
LVL147:
	call	[DWORD PTR [eax+220]]
LVL148:
	mov	esi, eax
LVL149:
	.loc 1 362 0
	mov	DWORD PTR [esp], ebx
	call	_purple_account_get_status_types
LVL150:
	mov	ebx, eax
LVL151:
	test	eax, eax
	je	L121
	mov	ebp, DWORD PTR [esp+48]
LVL152:
	.p2align 2,,3
L151:
	.loc 1 364 0
	mov	eax, DWORD PTR _tclStubsPtr
	mov	edi, DWORD PTR [eax+184]
	mov	eax, DWORD PTR [ebx]
	mov	DWORD PTR [esp+4], eax
	mov	eax, DWORD PTR _PurpleTclRefStatusType
	mov	DWORD PTR [esp], eax
	call	_purple_tcl_ref_new
LVL153:
	mov	DWORD PTR [esp+8], eax
	mov	DWORD PTR [esp+4], esi
	mov	DWORD PTR [esp], ebp
	call	edi
LVL154:
	.loc 1 363 0
	mov	ebx, DWORD PTR [ebx+4]
LVL155:
	.loc 1 362 0
	test	ebx, ebx
	jne	L151
LVL156:
L121:
	.loc 1 368 0
	mov	DWORD PTR [esp+4], esi
	mov	edx, DWORD PTR [esp+48]
	mov	DWORD PTR [esp], edx
	mov	eax, DWORD PTR _tclStubsPtr
	call	[DWORD PTR [eax+948]]
LVL157:
	.loc 1 369 0
	jmp	L60
LVL158:
L191:
	.loc 1 268 0
	mov	DWORD PTR [esp+12], OFFSET FLAT:LC89
	jmp	L178
L84:
	.loc 1 175 0
	mov	eax, DWORD PTR [ebp+8]
LVL159:
	mov	edx, DWORD PTR [esp+48]
	call	_tcl_validate_account
LVL160:
	test	eax, eax
	je	L184
	.loc 1 177 0
	mov	DWORD PTR [esp], eax
	call	_purple_account_disconnect
LVL161:
	.loc 1 178 0
	jmp	L60
L85:
	.loc 1 184 0
	mov	eax, DWORD PTR [ebp+8]
	mov	edx, DWORD PTR [esp+48]
	call	_tcl_validate_account
LVL162:
	mov	edi, eax
LVL163:
	test	eax, eax
	je	L184
	.loc 1 186 0
	cmp	ebx, 3
	je	L196
	.loc 1 192 0
	lea	eax, [esp+76]
LVL164:
	mov	DWORD PTR [esp+8], eax
	mov	eax, DWORD PTR [ebp+12]
	mov	DWORD PTR [esp+4], eax
	mov	edx, DWORD PTR [esp+48]
	mov	DWORD PTR [esp], edx
	mov	eax, DWORD PTR _tclStubsPtr
	call	[DWORD PTR [eax+136]]
LVL165:
	mov	DWORD PTR [esp+44], eax
LVL166:
	test	eax, eax
	jne	L184
LVL167:
	.loc 1 194 0
	mov	esi, DWORD PTR [esp+76]
	call	_purple_core_get_ui
LVL168:
	mov	DWORD PTR [esp+8], esi
	mov	DWORD PTR [esp+4], eax
	mov	DWORD PTR [esp], edi
	call	_purple_account_set_enabled
LVL169:
	jmp	L60
LVL170:
L113:
	.loc 1 328 0
	mov	eax, DWORD PTR [ebp+8]
	mov	edx, DWORD PTR [esp+48]
	call	_tcl_validate_account
LVL171:
	mov	DWORD PTR [esp+52], eax
LVL172:
	test	eax, eax
	je	L184
	.loc 1 332 0
	mov	eax, DWORD PTR [ebp+12]
LVL173:
	mov	DWORD PTR [esp], eax
	mov	eax, DWORD PTR _tclStubsPtr
	.loc 1 330 0
	cmp	ebx, 4
	je	L197
LBB13:
	.loc 1 335 0
	call	[DWORD PTR [eax+1368]]
LVL174:
	mov	edi, OFFSET FLAT:LC95
	mov	ecx, 11
	mov	esi, eax
	repe cmpsb
	jne	L198
	.loc 1 342 0
	mov	eax, DWORD PTR [ebp+16]
	mov	DWORD PTR [esp], eax
	mov	eax, DWORD PTR _tclStubsPtr
	call	[DWORD PTR [eax+1368]]
LVL175:
	mov	DWORD PTR [esp], eax
	call	_purple_primitive_get_type_from_id
LVL176:
	.loc 1 343 0
	mov	DWORD PTR [esp+4], eax
	mov	eax, DWORD PTR [esp+52]
LVL177:
	mov	DWORD PTR [esp], eax
	call	_purple_account_get_status_type_with_primitive
LVL178:
L115:
LBE13:
	.loc 1 346 0
	test	eax, eax
	je	L199
	.loc 1 350 0
	mov	edx, DWORD PTR _tclStubsPtr
	mov	ebx, DWORD PTR [edx+948]
	mov	DWORD PTR [esp+4], eax
	mov	eax, DWORD PTR _PurpleTclRefStatusType
LVL179:
	jmp	L177
LVL180:
L87:
	.loc 1 203 0
	mov	eax, DWORD PTR [ebp+12]
LVL181:
	mov	DWORD PTR [esp], eax
	mov	eax, DWORD PTR _tclStubsPtr
	call	[DWORD PTR [eax+1368]]
LVL182:
	mov	ebx, eax
	.loc 1 202 0
	mov	eax, DWORD PTR [ebp+8]
	mov	DWORD PTR [esp], eax
	mov	eax, DWORD PTR _tclStubsPtr
	call	[DWORD PTR [eax+1368]]
LVL183:
	mov	DWORD PTR [esp+4], ebx
	mov	DWORD PTR [esp], eax
	call	_purple_accounts_find
LVL184:
	.loc 1 204 0
	mov	edx, DWORD PTR _tclStubsPtr
	mov	ebx, DWORD PTR [edx+948]
	mov	DWORD PTR [esp+4], eax
	mov	eax, DWORD PTR _PurpleTclRefAccount
LVL185:
	jmp	L177
LVL186:
L88:
	.loc 1 212 0
	mov	eax, DWORD PTR _tclStubsPtr
LVL187:
	mov	ebx, DWORD PTR [eax+948]
	call	_purple_accounts_get_handle
LVL188:
	mov	DWORD PTR [esp+4], eax
	mov	eax, DWORD PTR _PurpleTclRefHandle
	jmp	L177
LVL189:
L111:
LBB14:
	.loc 1 311 0
	mov	DWORD PTR [esp+4], esi
	mov	DWORD PTR [esp], ebx
	call	_g_list_append
LVL190:
	mov	esi, eax
LVL191:
	.loc 1 312 0
	mov	eax, DWORD PTR [ebp+4+edi*4]
LVL192:
	mov	DWORD PTR [esp], eax
	mov	eax, DWORD PTR _tclStubsPtr
	call	[DWORD PTR [eax+1368]]
LVL193:
	mov	DWORD PTR [esp+4], eax
	mov	DWORD PTR [esp], esi
	call	_g_list_append
LVL194:
	mov	ebx, eax
LVL195:
	.loc 1 313 0
	jmp	L112
LVL196:
L110:
	.loc 1 304 0
	lea	eax, [esp+76]
	mov	DWORD PTR [esp+8], eax
	mov	eax, DWORD PTR [ebp+4+edi*4]
	mov	DWORD PTR [esp+4], eax
	mov	edx, DWORD PTR [esp+48]
	mov	DWORD PTR [esp], edx
	mov	eax, DWORD PTR _tclStubsPtr
	call	[DWORD PTR [eax+160]]
LVL197:
	.loc 1 305 0
	test	eax, eax
	je	L170
LVL198:
L127:
	.loc 1 304 0
	mov	DWORD PTR [esp+44], eax
	jmp	L60
LVL199:
L91:
LBE14:
	.loc 1 234 0
	lea	eax, [esp+72]
LVL200:
	mov	DWORD PTR [esp+20], eax
	mov	DWORD PTR [esp+16], 0
	mov	DWORD PTR [esp+12], OFFSET FLAT:LC88
	lea	eax, [esp+80]
	mov	DWORD PTR [esp+8], eax
	mov	eax, DWORD PTR [ebp+8]
	mov	DWORD PTR [esp+4], eax
	mov	edx, DWORD PTR [esp+48]
	mov	DWORD PTR [esp], edx
	mov	eax, DWORD PTR _tclStubsPtr
	call	[DWORD PTR [eax+152]]
LVL201:
	test	eax, eax
	je	L94
	jmp	L127
LVL202:
L190:
	.loc 1 230 0
	mov	DWORD PTR [esp+12], OFFSET FLAT:LC87
	jmp	L181
LVL203:
L193:
LBB15:
	.loc 1 280 0
	mov	eax, DWORD PTR _tclStubsPtr
LVL204:
	mov	ebx, DWORD PTR [eax+948]
	mov	DWORD PTR [esp+4], -1
	mov	DWORD PTR [esp], OFFSET FLAT:LC90
	jmp	L182
LVL205:
L198:
LBE15:
LBB16:
	.loc 1 336 0
	mov	DWORD PTR [esp+4], -1
	mov	DWORD PTR [esp], OFFSET FLAT:LC96
	mov	eax, DWORD PTR _tclStubsPtr
	call	[DWORD PTR [eax+232]]
LVL206:
	mov	ebx, eax
LVL207:
	.loc 1 337 0
	mov	eax, DWORD PTR [ebp+12]
LVL208:
	mov	DWORD PTR [esp+4], eax
	mov	DWORD PTR [esp], ebx
	mov	eax, DWORD PTR _tclStubsPtr
	call	[DWORD PTR [eax+1152]]
LVL209:
	.loc 1 338 0
	mov	DWORD PTR [esp+8], -1
	mov	DWORD PTR [esp+4], OFFSET FLAT:LC97
	mov	DWORD PTR [esp], ebx
	mov	eax, DWORD PTR _tclStubsPtr
	call	[DWORD PTR [eax+72]]
LVL210:
	.loc 1 339 0
	mov	DWORD PTR [esp+4], ebx
	mov	edx, DWORD PTR [esp+48]
	mov	DWORD PTR [esp], edx
	mov	eax, DWORD PTR _tclStubsPtr
	call	[DWORD PTR [eax+948]]
LVL211:
	.loc 1 340 0
	mov	DWORD PTR [esp+44], 1
	jmp	L60
LVL212:
L197:
LBE16:
	.loc 1 332 0
	call	[DWORD PTR [eax+1368]]
LVL213:
	.loc 1 331 0
	mov	DWORD PTR [esp+4], eax
	mov	eax, DWORD PTR [esp+52]
	mov	DWORD PTR [esp], eax
	call	_purple_account_get_status_type
LVL214:
	jmp	L115
LVL215:
L196:
	.loc 1 187 0
	mov	eax, DWORD PTR _tclStubsPtr
LVL216:
	mov	esi, DWORD PTR [eax+948]
	.loc 1 188 0
	mov	ebx, DWORD PTR [eax+204]
	.loc 1 187 0
	call	_purple_core_get_ui
LVL217:
	mov	DWORD PTR [esp+4], eax
	mov	DWORD PTR [esp], edi
	call	_purple_account_get_enabled
LVL218:
	mov	DWORD PTR [esp], eax
	call	ebx
LVL219:
	mov	DWORD PTR [esp+4], eax
	mov	edx, DWORD PTR [esp+48]
	mov	DWORD PTR [esp], edx
	call	esi
LVL220:
	jmp	L60
LVL221:
L192:
	.loc 1 274 0
	mov	eax, DWORD PTR _tclStubsPtr
LVL222:
	mov	ebx, DWORD PTR [eax+948]
	.loc 1 276 0
	mov	eax, DWORD PTR [esp+56]
	mov	DWORD PTR [esp], eax
	call	_purple_account_get_active_status
LVL223:
	.loc 1 274 0
	mov	DWORD PTR [esp+4], eax
	mov	eax, DWORD PTR _PurpleTclRefStatus
	jmp	L177
LVL224:
L199:
	.loc 1 347 0
	mov	eax, DWORD PTR _tclStubsPtr
LVL225:
	mov	ebx, DWORD PTR [eax+948]
	mov	DWORD PTR [esp+4], -1
	mov	DWORD PTR [esp], OFFSET FLAT:LC98
	jmp	L182
LVL226:
L189:
	.loc 1 143 0
	mov	eax, OFFSET FLAT:LC80
LVL227:
	jmp	L79
LVL228:
L188:
	.loc 1 383 0
	call	___stack_chk_fail
LVL229:
L194:
LBB17:
	.loc 1 292 0
	mov	eax, DWORD PTR _tclStubsPtr
LVL230:
	mov	ebx, DWORD PTR [eax+948]
	mov	DWORD PTR [esp+4], -1
	mov	DWORD PTR [esp], OFFSET FLAT:LC92
	jmp	L182
LVL231:
L104:
	.loc 1 285 0
	mov	eax, DWORD PTR _tclStubsPtr
LVL232:
	mov	ebx, DWORD PTR [eax+948]
	mov	DWORD PTR [esp+4], -1
	mov	DWORD PTR [esp], OFFSET FLAT:LC91
	jmp	L182
LBE17:
	.cfi_endproc
LFE96:
	.section .rdata,"dr"
LC100:
	.ascii "buddy\0"
LC101:
	.ascii "list too short\0"
LC102:
	.ascii "group\0"
LC103:
	.ascii "( buddy | account username )\0"
LC104:
	.ascii "buddy too short\0"
LC105:
	.ascii "invalid buddy\0"
LC106:
	.ascii "unknown option: \0"
LC107:
	.ascii "contact\0"
LC108:
	.ascii "chat\0"
LC109:
	.ascii "Unexpected buddy type %d\0"
LC110:
	.ascii "tcl\0"
LC64:
	.ascii "info\0"
	.data
	.align 4
LC99:
	.long	LC63
	.long	LC19
	.long	LC64
	.long	LC46
	.long	0
	.text
	.p2align 2,,3
	.globl	_tcl_cmd_buddy
	.def	_tcl_cmd_buddy;	.scl	2;	.type	32;	.endef
_tcl_cmd_buddy:
LFB98:
	.loc 1 413 0
	.cfi_startproc
LVL233:
	push	ebp
LCFI33:
	.cfi_def_cfa_offset 8
	.cfi_offset 5, -8
	push	edi
LCFI34:
	.cfi_def_cfa_offset 12
	.cfi_offset 7, -12
	push	esi
LCFI35:
	.cfi_def_cfa_offset 16
	.cfi_offset 6, -16
	push	ebx
LCFI36:
	.cfi_def_cfa_offset 20
	.cfi_offset 3, -20
	sub	esp, 140
LCFI37:
	.cfi_def_cfa_offset 160
	mov	ebp, DWORD PTR [esp+164]
	mov	edx, DWORD PTR [esp+168]
	mov	DWORD PTR [esp+44], edx
	mov	ebx, DWORD PTR [esp+172]
	.loc 1 413 0
	mov	eax, DWORD PTR ___stack_chk_guard
	mov	DWORD PTR [esp+124], eax
	xor	eax, eax
	.loc 1 415 0
	lea	eax, [esp+104]
	mov	esi, OFFSET FLAT:LC99
	mov	ecx, 5
	mov	edi, eax
	rep movsd
LVL234:
	.loc 1 424 0
	dec	edx
	jle	L281
	.loc 1 428 0
	lea	edx, [esp+96]
	mov	DWORD PTR [esp+20], edx
	mov	DWORD PTR [esp+16], 0
	mov	DWORD PTR [esp+12], OFFSET FLAT:LC84
	mov	DWORD PTR [esp+8], eax
	mov	eax, DWORD PTR [ebx+4]
	mov	DWORD PTR [esp+4], eax
	mov	DWORD PTR [esp], ebp
	mov	eax, DWORD PTR _tclStubsPtr
	call	[DWORD PTR [eax+152]]
LVL235:
	mov	DWORD PTR [esp+72], eax
LVL236:
	test	eax, eax
	jne	L202
LVL237:
	.loc 1 431 0
	mov	eax, DWORD PTR [esp+96]
LVL238:
	cmp	eax, 1
	je	L204
	jae	L282
	.loc 1 433 0
	cmp	DWORD PTR [esp+44], 3
	je	L207
	.loc 1 434 0
	mov	DWORD PTR [esp+12], OFFSET FLAT:LC100
L277:
	.loc 1 461 0
	mov	DWORD PTR [esp+8], ebx
	mov	DWORD PTR [esp+4], 2
	mov	DWORD PTR [esp], ebp
	mov	eax, DWORD PTR _tclStubsPtr
	call	[DWORD PTR [eax+1064]]
LVL239:
L279:
	.loc 1 475 0
	mov	DWORD PTR [esp+72], 1
LVL240:
	.p2align 2,,3
L202:
	.loc 1 561 0
	mov	eax, DWORD PTR [esp+72]
	mov	edx, DWORD PTR [esp+124]
	xor	edx, DWORD PTR ___stack_chk_guard
	jne	L283
	add	esp, 140
LCFI38:
	.cfi_remember_state
	.cfi_def_cfa_offset 20
	pop	ebx
LCFI39:
	.cfi_restore 3
	.cfi_def_cfa_offset 16
	pop	esi
LCFI40:
	.cfi_restore 6
	.cfi_def_cfa_offset 12
	pop	edi
LCFI41:
	.cfi_restore 7
	.cfi_def_cfa_offset 8
	pop	ebp
LCFI42:
	.cfi_restore 5
	.cfi_def_cfa_offset 4
	ret
LVL241:
L282:
LCFI43:
	.cfi_restore_state
	.loc 1 431 0
	cmp	eax, 2
	je	L205
	cmp	eax, 3
	jne	L202
	.loc 1 487 0
	cmp	DWORD PTR [esp+44], 3
	je	L284
	.loc 1 422 0
	mov	DWORD PTR [esp+52], 0
L220:
LVL242:
	.loc 1 497 0
	mov	DWORD PTR [esp+4], 0
	mov	DWORD PTR [esp], 0
	mov	eax, DWORD PTR _tclStubsPtr
	call	[DWORD PTR [eax+220]]
LVL243:
	mov	DWORD PTR [esp+76], eax
LVL244:
	.loc 1 498 0
	call	_purple_blist_get_root
LVL245:
	mov	DWORD PTR [esp+64], eax
LVL246:
	test	eax, eax
	je	L224
LVL247:
	.p2align 2,,3
L259:
	.loc 1 499 0
	mov	DWORD PTR [esp+4], 0
	mov	DWORD PTR [esp], 0
	mov	eax, DWORD PTR _tclStubsPtr
LVL248:
	call	[DWORD PTR [eax+220]]
LVL249:
	mov	DWORD PTR [esp+68], eax
LVL250:
	.loc 1 500 0
	mov	eax, DWORD PTR _tclStubsPtr
LVL251:
	mov	ebx, DWORD PTR [eax+184]
	mov	DWORD PTR [esp+4], -1
	mov	DWORD PTR [esp], OFFSET FLAT:LC102
	call	[DWORD PTR [eax+232]]
LVL252:
	mov	DWORD PTR [esp+8], eax
	mov	eax, DWORD PTR [esp+68]
	mov	DWORD PTR [esp+4], eax
	mov	DWORD PTR [esp], ebp
	call	ebx
LVL253:
	.loc 1 501 0
	mov	eax, DWORD PTR _tclStubsPtr
	mov	ebx, DWORD PTR [eax+184]
	.loc 1 502 0
	mov	esi, DWORD PTR [eax+232]
	.loc 1 501 0
	mov	eax, DWORD PTR [esp+64]
	mov	DWORD PTR [esp], eax
	call	_purple_group_get_name
LVL254:
	mov	DWORD PTR [esp+4], -1
	mov	DWORD PTR [esp], eax
	call	esi
LVL255:
	mov	DWORD PTR [esp+8], eax
	mov	eax, DWORD PTR [esp+68]
	mov	DWORD PTR [esp+4], eax
	mov	DWORD PTR [esp], ebp
	call	ebx
LVL256:
	.loc 1 503 0
	mov	DWORD PTR [esp+4], 0
	mov	DWORD PTR [esp], 0
	mov	eax, DWORD PTR _tclStubsPtr
	call	[DWORD PTR [eax+220]]
LVL257:
	mov	DWORD PTR [esp+60], eax
LVL258:
	.loc 1 504 0
	mov	eax, DWORD PTR [esp+64]
LVL259:
	mov	DWORD PTR [esp], eax
	call	_purple_blist_node_get_first_child
LVL260:
	mov	edi, eax
LVL261:
	mov	esi, ebp
	test	eax, eax
	jne	L260
	jmp	L245
LVL262:
	.p2align 2,,3
L287:
LBB21:
	.loc 1 508 0
	cmp	eax, 3
	je	L285
	.loc 1 549 0
	mov	DWORD PTR [esp+12], eax
	mov	DWORD PTR [esp+8], OFFSET FLAT:LC109
	mov	DWORD PTR [esp+4], OFFSET FLAT:LC110
	mov	DWORD PTR [esp], 3
	call	_purple_debug
LVL263:
L240:
LBE21:
	.loc 1 504 0
	mov	DWORD PTR [esp], edi
	call	_purple_blist_node_get_sibling_next
LVL264:
	mov	edi, eax
LVL265:
	test	eax, eax
	je	L286
L260:
LBB22:
	.loc 1 507 0
	mov	DWORD PTR [esp], edi
	call	_purple_blist_node_get_type
LVL266:
	.loc 1 508 0
	cmp	eax, 1
	jne	L287
	.loc 1 510 0
	mov	DWORD PTR [esp+4], 0
	mov	DWORD PTR [esp], 0
	mov	eax, DWORD PTR _tclStubsPtr
LVL267:
	call	[DWORD PTR [eax+220]]
LVL268:
	mov	ebp, eax
LVL269:
	.loc 1 511 0
	inc	DWORD PTR [eax]
	.loc 1 512 0
	mov	eax, DWORD PTR _tclStubsPtr
LVL270:
	mov	ebx, DWORD PTR [eax+184]
	mov	DWORD PTR [esp+4], -1
	mov	DWORD PTR [esp], OFFSET FLAT:LC107
	call	[DWORD PTR [eax+232]]
LVL271:
	mov	DWORD PTR [esp+8], eax
	mov	DWORD PTR [esp+4], ebp
	mov	DWORD PTR [esp], esi
	call	ebx
LVL272:
	.loc 1 513 0
	mov	DWORD PTR [esp+4], 0
	mov	DWORD PTR [esp], 0
	mov	eax, DWORD PTR _tclStubsPtr
	call	[DWORD PTR [eax+220]]
LVL273:
	mov	DWORD PTR [esp+44], eax
LVL274:
	.loc 1 514 0
	inc	DWORD PTR [eax]
	.loc 1 515 0
	mov	DWORD PTR [esp+100], 0
	.loc 1 516 0
	mov	DWORD PTR [esp], edi
	call	_purple_blist_node_get_first_child
LVL275:
	mov	ebx, eax
LVL276:
	test	eax, eax
	je	L237
	mov	DWORD PTR [esp+48], edi
	mov	DWORD PTR [esp+56], ebp
	jmp	L261
LVL277:
	.p2align 2,,3
L232:
	mov	DWORD PTR [esp], ebx
	call	_purple_blist_node_get_sibling_next
LVL278:
	mov	ebx, eax
LVL279:
	test	eax, eax
	je	L288
L261:
	.loc 1 517 0
	mov	DWORD PTR [esp], ebx
	call	_purple_blist_node_get_type
LVL280:
	cmp	eax, 2
	jne	L232
LVL281:
	.loc 1 520 0
	mov	DWORD PTR [esp], ebx
	call	_purple_buddy_get_account
LVL282:
	mov	ebp, eax
LVL283:
	.loc 1 521 0
	mov	edx, DWORD PTR [esp+52]
	test	edx, edx
	jne	L235
	.loc 1 521 0 is_stmt 0 discriminator 1
	mov	DWORD PTR [esp], eax
	call	_purple_account_is_connected
LVL284:
	test	eax, eax
	je	L232
L235:
	.loc 1 523 0 is_stmt 1
	inc	DWORD PTR [esp+100]
	.loc 1 524 0
	mov	DWORD PTR [esp+4], 0
	mov	DWORD PTR [esp], 0
	mov	eax, DWORD PTR _tclStubsPtr
	call	[DWORD PTR [eax+220]]
LVL285:
	mov	edi, eax
LVL286:
	.loc 1 525 0
	mov	eax, DWORD PTR _tclStubsPtr
LVL287:
	mov	edx, DWORD PTR [eax+184]
	mov	DWORD PTR [esp+4], -1
	mov	DWORD PTR [esp], OFFSET FLAT:LC100
	mov	DWORD PTR [esp+32], edx
	call	[DWORD PTR [eax+232]]
LVL288:
	mov	DWORD PTR [esp+8], eax
	mov	DWORD PTR [esp+4], edi
	mov	DWORD PTR [esp], esi
	mov	edx, DWORD PTR [esp+32]
	call	edx
LVL289:
	.loc 1 526 0
	mov	eax, DWORD PTR _tclStubsPtr
	mov	edx, DWORD PTR [eax+184]
	mov	ecx, DWORD PTR [eax+232]
	mov	DWORD PTR [esp], ebx
	mov	DWORD PTR [esp+32], edx
	mov	DWORD PTR [esp+36], ecx
	call	_purple_buddy_get_name
LVL290:
	mov	DWORD PTR [esp+4], -1
	mov	DWORD PTR [esp], eax
	mov	ecx, DWORD PTR [esp+36]
	call	ecx
LVL291:
	mov	DWORD PTR [esp+8], eax
	mov	DWORD PTR [esp+4], edi
	mov	DWORD PTR [esp], esi
	mov	edx, DWORD PTR [esp+32]
	call	edx
LVL292:
	.loc 1 527 0
	mov	eax, DWORD PTR _tclStubsPtr
	mov	edx, DWORD PTR [eax+184]
	mov	DWORD PTR [esp+4], ebp
	mov	eax, DWORD PTR _PurpleTclRefAccount
	mov	DWORD PTR [esp], eax
	mov	DWORD PTR [esp+32], edx
	call	_purple_tcl_ref_new
LVL293:
	mov	DWORD PTR [esp+8], eax
	mov	DWORD PTR [esp+4], edi
	mov	DWORD PTR [esp], esi
	mov	edx, DWORD PTR [esp+32]
	call	edx
LVL294:
	.loc 1 528 0
	mov	DWORD PTR [esp+8], edi
	mov	eax, DWORD PTR [esp+44]
	mov	DWORD PTR [esp+4], eax
	mov	DWORD PTR [esp], esi
	mov	eax, DWORD PTR _tclStubsPtr
	call	[DWORD PTR [eax+184]]
LVL295:
	.loc 1 516 0
	mov	DWORD PTR [esp], ebx
	call	_purple_blist_node_get_sibling_next
LVL296:
	mov	ebx, eax
LVL297:
	test	eax, eax
	jne	L261
LVL298:
	.p2align 2,,3
L288:
	mov	edi, DWORD PTR [esp+48]
	mov	ebp, DWORD PTR [esp+56]
LVL299:
L237:
	.loc 1 530 0
	mov	ecx, DWORD PTR [esp+100]
	test	ecx, ecx
	jne	L289
	.loc 1 534 0
	mov	eax, DWORD PTR [ebp+0]
LVL300:
	dec	eax
	mov	DWORD PTR [ebp+0], eax
	test	eax, eax
	jle	L290
L238:
	.loc 1 535 0
	mov	eax, DWORD PTR [esp+44]
	mov	eax, DWORD PTR [eax]
	mov	DWORD PTR [esp+40], eax
	dec	eax
	mov	edx, DWORD PTR [esp+44]
	mov	DWORD PTR [edx], eax
	test	eax, eax
	jg	L240
	.loc 1 535 0 is_stmt 0 discriminator 1
	mov	DWORD PTR [esp], edx
	mov	eax, DWORD PTR _tclStubsPtr
	call	[DWORD PTR [eax+128]]
LVL301:
LBE22:
	.loc 1 504 0 is_stmt 1 discriminator 1
	mov	DWORD PTR [esp], edi
	call	_purple_blist_node_get_sibling_next
LVL302:
	mov	edi, eax
LVL303:
	test	eax, eax
	jne	L260
LVL304:
	.p2align 2,,3
L286:
	mov	ebp, esi
L245:
	.loc 1 553 0
	mov	eax, DWORD PTR [esp+60]
LVL305:
	mov	DWORD PTR [esp+8], eax
	mov	eax, DWORD PTR [esp+68]
	mov	DWORD PTR [esp+4], eax
	mov	DWORD PTR [esp], ebp
	mov	eax, DWORD PTR _tclStubsPtr
	call	[DWORD PTR [eax+184]]
LVL306:
	.loc 1 554 0
	mov	eax, DWORD PTR [esp+68]
	mov	DWORD PTR [esp+8], eax
	mov	eax, DWORD PTR [esp+76]
	mov	DWORD PTR [esp+4], eax
	mov	DWORD PTR [esp], ebp
	mov	eax, DWORD PTR _tclStubsPtr
	call	[DWORD PTR [eax+184]]
LVL307:
	.loc 1 498 0
	mov	eax, DWORD PTR [esp+64]
	mov	DWORD PTR [esp], eax
	call	_purple_blist_node_get_sibling_next
LVL308:
	mov	DWORD PTR [esp+64], eax
LVL309:
	test	eax, eax
	jne	L259
LVL310:
L224:
	.loc 1 556 0
	mov	eax, DWORD PTR [esp+76]
LVL311:
	mov	DWORD PTR [esp+4], eax
	mov	DWORD PTR [esp], ebp
	mov	eax, DWORD PTR _tclStubsPtr
	call	[DWORD PTR [eax+948]]
LVL312:
	.loc 1 557 0
	jmp	L202
LVL313:
	.p2align 2,,3
L285:
LBB23:
	.loc 1 539 0
	mov	DWORD PTR [esp], edi
	call	_purple_chat_get_account
LVL314:
	mov	DWORD PTR [esp+44], eax
LVL315:
	.loc 1 540 0
	mov	eax, DWORD PTR [esp+52]
LVL316:
	test	eax, eax
	jne	L243
	.loc 1 540 0 is_stmt 0 discriminator 1
	mov	eax, DWORD PTR [esp+44]
	mov	DWORD PTR [esp], eax
	call	_purple_account_is_connected
LVL317:
	test	eax, eax
	je	L240
L243:
	.loc 1 542 0 is_stmt 1
	mov	DWORD PTR [esp+4], 0
	mov	DWORD PTR [esp], 0
	mov	eax, DWORD PTR _tclStubsPtr
	call	[DWORD PTR [eax+220]]
LVL318:
	mov	ebx, eax
LVL319:
	.loc 1 543 0
	mov	eax, DWORD PTR _tclStubsPtr
LVL320:
	mov	ebp, DWORD PTR [eax+184]
	mov	DWORD PTR [esp+4], -1
	mov	DWORD PTR [esp], OFFSET FLAT:LC108
	call	[DWORD PTR [eax+232]]
LVL321:
	mov	DWORD PTR [esp+8], eax
	mov	DWORD PTR [esp+4], ebx
	mov	DWORD PTR [esp], esi
	call	ebp
LVL322:
	.loc 1 544 0
	mov	eax, DWORD PTR _tclStubsPtr
	mov	ebp, DWORD PTR [eax+184]
	mov	edx, DWORD PTR [eax+232]
	mov	DWORD PTR [esp], edi
	mov	DWORD PTR [esp+32], edx
	call	_purple_chat_get_name
LVL323:
	mov	DWORD PTR [esp+4], -1
	mov	DWORD PTR [esp], eax
	mov	edx, DWORD PTR [esp+32]
	call	edx
LVL324:
	mov	DWORD PTR [esp+8], eax
	mov	DWORD PTR [esp+4], ebx
	mov	DWORD PTR [esp], esi
	call	ebp
LVL325:
	.loc 1 545 0
	mov	eax, DWORD PTR _tclStubsPtr
	mov	ebp, DWORD PTR [eax+184]
	mov	eax, DWORD PTR [esp+44]
	mov	DWORD PTR [esp+4], eax
	mov	eax, DWORD PTR _PurpleTclRefAccount
	mov	DWORD PTR [esp], eax
	call	_purple_tcl_ref_new
LVL326:
	mov	DWORD PTR [esp+8], eax
	mov	DWORD PTR [esp+4], ebx
	mov	DWORD PTR [esp], esi
	call	ebp
LVL327:
	.loc 1 546 0
	mov	DWORD PTR [esp+8], ebx
	mov	eax, DWORD PTR [esp+60]
	mov	DWORD PTR [esp+4], eax
	mov	DWORD PTR [esp], esi
	mov	eax, DWORD PTR _tclStubsPtr
	call	[DWORD PTR [eax+184]]
LVL328:
	.loc 1 547 0
	jmp	L240
LVL329:
	.p2align 2,,3
L289:
	.loc 1 531 0
	mov	eax, DWORD PTR [esp+44]
LVL330:
	mov	DWORD PTR [esp+8], eax
	mov	DWORD PTR [esp+4], ebp
	mov	DWORD PTR [esp], esi
	mov	eax, DWORD PTR _tclStubsPtr
	call	[DWORD PTR [eax+184]]
LVL331:
	.loc 1 532 0
	mov	DWORD PTR [esp+8], ebp
	mov	eax, DWORD PTR [esp+60]
	mov	DWORD PTR [esp+4], eax
	mov	DWORD PTR [esp], esi
	mov	eax, DWORD PTR _tclStubsPtr
	call	[DWORD PTR [eax+184]]
LVL332:
	.loc 1 534 0
	mov	eax, DWORD PTR [ebp+0]
	dec	eax
	mov	DWORD PTR [ebp+0], eax
	test	eax, eax
	jg	L238
L290:
	.loc 1 534 0 is_stmt 0 discriminator 1
	mov	DWORD PTR [esp], ebp
	mov	eax, DWORD PTR _tclStubsPtr
	call	[DWORD PTR [eax+128]]
LVL333:
	jmp	L238
LVL334:
L281:
LBE23:
	.loc 1 425 0 is_stmt 1
	mov	DWORD PTR [esp+12], OFFSET FLAT:LC83
	mov	DWORD PTR [esp+8], ebx
	mov	DWORD PTR [esp+4], 1
	mov	DWORD PTR [esp], ebp
	mov	eax, DWORD PTR _tclStubsPtr
	call	[DWORD PTR [eax+1064]]
LVL335:
	.loc 1 426 0
	mov	DWORD PTR [esp+72], 1
	jmp	L202
LVL336:
L204:
	.loc 1 451 0
	cmp	DWORD PTR [esp+44], 2
	je	L214
	.loc 1 452 0
	mov	DWORD PTR [esp+12], OFFSET FLAT:LC80
	mov	DWORD PTR [esp+8], ebx
	mov	DWORD PTR [esp+4], 2
	mov	DWORD PTR [esp], ebp
	mov	eax, DWORD PTR _tclStubsPtr
LVL337:
	call	[DWORD PTR [eax+1064]]
LVL338:
	.loc 1 453 0
	mov	DWORD PTR [esp+72], 1
	jmp	L202
LVL339:
L205:
	.loc 1 460 0
	mov	eax, DWORD PTR [esp+44]
LVL340:
	sub	eax, 3
	cmp	eax, 1
	ja	L291
	.loc 1 464 0
	cmp	DWORD PTR [esp+44], 3
	je	L292
	.loc 1 481 0
	mov	eax, DWORD PTR [ebx+8]
	mov	edx, ebp
	call	_tcl_validate_account
LVL341:
	mov	esi, eax
LVL342:
	test	eax, eax
	je	L279
	.loc 1 483 0
	mov	eax, DWORD PTR [ebx+12]
LVL343:
	mov	DWORD PTR [esp], eax
	mov	eax, DWORD PTR _tclStubsPtr
	call	[DWORD PTR [eax+1368]]
LVL344:
	mov	ebx, eax
	mov	DWORD PTR [esp], esi
	call	_purple_account_get_connection
LVL345:
	mov	DWORD PTR [esp+4], ebx
	mov	DWORD PTR [esp], eax
	call	_serv_get_info
LVL346:
	jmp	L202
LVL347:
L292:
	.loc 1 465 0
	lea	eax, [esp+92]
	mov	DWORD PTR [esp+12], eax
	lea	eax, [esp+100]
	mov	DWORD PTR [esp+8], eax
	mov	eax, DWORD PTR [ebx+8]
	mov	DWORD PTR [esp+4], eax
	mov	DWORD PTR [esp], ebp
	mov	eax, DWORD PTR _tclStubsPtr
	call	[DWORD PTR [eax+188]]
LVL348:
	mov	DWORD PTR [esp+72], eax
LVL349:
	test	eax, eax
	jne	L202
LVL350:
	.loc 1 467 0
	cmp	DWORD PTR [esp+100], 2
	jle	L293
LVL351:
	.loc 1 472 0
	mov	eax, DWORD PTR [esp+92]
LVL352:
	mov	eax, DWORD PTR [eax]
	mov	DWORD PTR [esp], eax
	mov	eax, DWORD PTR _tclStubsPtr
	call	[DWORD PTR [eax+1368]]
LVL353:
	mov	esi, OFFSET FLAT:LC100
	mov	ecx, 6
	mov	edi, eax
	repe cmpsb
	jne	L294
	.loc 1 477 0
	mov	eax, DWORD PTR [esp+92]
	mov	eax, DWORD PTR [eax+8]
	mov	edx, ebp
	call	_tcl_validate_account
LVL354:
	mov	ebx, eax
LVL355:
	test	eax, eax
	je	L279
	.loc 1 479 0
	mov	eax, DWORD PTR [esp+92]
LVL356:
	mov	eax, DWORD PTR [eax+4]
	mov	DWORD PTR [esp], eax
	mov	eax, DWORD PTR _tclStubsPtr
	call	[DWORD PTR [eax+1368]]
LVL357:
	mov	esi, eax
	mov	DWORD PTR [esp], ebx
	call	_purple_account_get_connection
LVL358:
	mov	DWORD PTR [esp+4], esi
	mov	DWORD PTR [esp], eax
	call	_serv_get_info
LVL359:
	jmp	L202
LVL360:
	.p2align 2,,3
L291:
	.loc 1 461 0
	mov	DWORD PTR [esp+12], OFFSET FLAT:LC103
	jmp	L277
LVL361:
L207:
	.loc 1 437 0
	lea	eax, [esp+92]
LVL362:
	mov	DWORD PTR [esp+12], eax
	lea	eax, [esp+100]
	mov	DWORD PTR [esp+8], eax
	mov	eax, DWORD PTR [ebx+8]
	mov	DWORD PTR [esp+4], eax
	mov	DWORD PTR [esp], ebp
	mov	eax, DWORD PTR _tclStubsPtr
	call	[DWORD PTR [eax+188]]
LVL363:
	mov	DWORD PTR [esp+72], eax
LVL364:
	test	eax, eax
	jne	L202
LVL365:
	.loc 1 439 0
	mov	esi, DWORD PTR [esp+92]
LVL366:
LBB24:
LBB25:
	.loc 1 392 0
	cmp	DWORD PTR [esp+100], 2
	jle	L295
	.loc 1 398 0
	mov	eax, DWORD PTR [esi]
LVL367:
	mov	DWORD PTR [esp], eax
	mov	eax, DWORD PTR _tclStubsPtr
	call	[DWORD PTR [eax+1368]]
LVL368:
	mov	DWORD PTR [esp+44], eax
LVL369:
	.loc 1 399 0
	mov	eax, DWORD PTR [esi+4]
LVL370:
	mov	DWORD PTR [esp], eax
	mov	eax, DWORD PTR _tclStubsPtr
	call	[DWORD PTR [eax+1368]]
LVL371:
	mov	ebx, eax
LVL372:
	.loc 1 400 0
	mov	eax, DWORD PTR [esi+8]
LVL373:
	mov	edx, ebp
	call	_tcl_validate_account
LVL374:
	test	eax, eax
	je	L279
	.loc 1 403 0
	mov	edi, OFFSET FLAT:LC100
	mov	ecx, 6
	mov	esi, DWORD PTR [esp+44]
LVL375:
	repe cmpsb
LVL376:
	je	L296
	.loc 1 405 0
	mov	edi, OFFSET FLAT:LC102
	mov	ecx, 6
	mov	esi, DWORD PTR [esp+44]
	repe cmpsb
	jne	L279
	.loc 1 406 0
	mov	DWORD PTR [esp+4], ebx
	mov	DWORD PTR [esp], eax
	call	_purple_blist_find_chat
LVL377:
	mov	ebx, eax
LVL378:
L211:
LBE25:
LBE24:
	.loc 1 439 0
	test	ebx, ebx
	je	L279
	.loc 1 441 0
	mov	DWORD PTR [esp], ebx
	call	_purple_blist_node_get_type
LVL379:
	.loc 1 442 0
	cmp	eax, 3
	je	L297
	.loc 1 445 0
	cmp	eax, 2
	jne	L202
	.loc 1 446 0
	mov	eax, DWORD PTR _tclStubsPtr
LVL380:
	mov	esi, DWORD PTR [eax+948]
	.loc 1 447 0
	mov	edi, DWORD PTR [eax+232]
	.loc 1 446 0
	mov	DWORD PTR [esp], ebx
	call	_purple_buddy_get_alias
LVL381:
L280:
	mov	DWORD PTR [esp+4], -1
	mov	DWORD PTR [esp], eax
	call	edi
LVL382:
	mov	DWORD PTR [esp+4], eax
	mov	DWORD PTR [esp], ebp
	call	esi
LVL383:
	jmp	L202
LVL384:
	.p2align 2,,3
L214:
	.loc 1 455 0
	mov	eax, DWORD PTR _tclStubsPtr
LVL385:
	mov	ebx, DWORD PTR [eax+948]
	call	_purple_blist_get_handle
LVL386:
	mov	DWORD PTR [esp+4], eax
	mov	eax, DWORD PTR _PurpleTclRefHandle
	mov	DWORD PTR [esp], eax
	call	_purple_tcl_ref_new
LVL387:
	mov	DWORD PTR [esp+4], eax
	mov	DWORD PTR [esp], ebp
	call	ebx
LVL388:
	.loc 1 458 0
	jmp	L202
LVL389:
L284:
	.loc 1 488 0
	mov	eax, DWORD PTR [ebx+8]
LVL390:
	mov	DWORD PTR [esp], eax
	mov	eax, DWORD PTR _tclStubsPtr
	call	[DWORD PTR [eax+1368]]
LVL391:
	mov	esi, OFFSET FLAT:LC75
	mov	ecx, 5
	mov	edi, eax
	repe cmpsb
	jne	L298
	.loc 1 489 0
	mov	DWORD PTR [esp+52], 1
	jmp	L220
L298:
	.loc 1 491 0
	mov	DWORD PTR [esp+4], -1
	mov	DWORD PTR [esp], OFFSET FLAT:LC80
	mov	eax, DWORD PTR _tclStubsPtr
	call	[DWORD PTR [eax+232]]
LVL392:
	mov	esi, eax
LVL393:
	.loc 1 492 0
	mov	eax, DWORD PTR _tclStubsPtr
LVL394:
	mov	edi, DWORD PTR [eax+68]
	mov	edx, DWORD PTR [ebx+8]
	mov	DWORD PTR [esp], edx
	call	[DWORD PTR [eax+1368]]
LVL395:
	mov	DWORD PTR [esp+12], 0
	mov	DWORD PTR [esp+8], eax
	mov	DWORD PTR [esp+4], OFFSET FLAT:LC106
	mov	DWORD PTR [esp], esi
	call	edi
LVL396:
	.loc 1 493 0
	mov	DWORD PTR [esp+4], esi
	mov	DWORD PTR [esp], ebp
	mov	eax, DWORD PTR _tclStubsPtr
	call	[DWORD PTR [eax+948]]
LVL397:
	.loc 1 494 0
	mov	DWORD PTR [esp+72], 1
	jmp	L202
LVL398:
L294:
	.loc 1 473 0
	mov	eax, DWORD PTR _tclStubsPtr
	mov	ebx, DWORD PTR [eax+948]
	mov	DWORD PTR [esp+4], -1
	mov	DWORD PTR [esp], OFFSET FLAT:LC105
L278:
	call	[DWORD PTR [eax+232]]
LVL399:
	mov	DWORD PTR [esp+4], eax
	mov	DWORD PTR [esp], ebp
	call	ebx
LVL400:
	jmp	L279
LVL401:
L293:
	.loc 1 468 0
	mov	eax, DWORD PTR _tclStubsPtr
LVL402:
	mov	ebx, DWORD PTR [eax+948]
	mov	DWORD PTR [esp+4], -1
	mov	DWORD PTR [esp], OFFSET FLAT:LC104
	jmp	L278
LVL403:
L296:
LBB27:
LBB26:
	.loc 1 404 0
	mov	DWORD PTR [esp+4], ebx
	mov	DWORD PTR [esp], eax
	call	_purple_find_buddy
LVL404:
	mov	ebx, eax
LVL405:
	jmp	L211
LVL406:
L295:
	.loc 1 393 0
	mov	eax, DWORD PTR _tclStubsPtr
LVL407:
	mov	ebx, DWORD PTR [eax+948]
	mov	DWORD PTR [esp+4], -1
	mov	DWORD PTR [esp], OFFSET FLAT:LC101
	call	[DWORD PTR [eax+232]]
LVL408:
	mov	DWORD PTR [esp+4], eax
	mov	DWORD PTR [esp], ebp
	call	ebx
LVL409:
	jmp	L279
LVL410:
L283:
LBE26:
LBE27:
	.loc 1 561 0
	call	___stack_chk_fail
LVL411:
L297:
	.loc 1 443 0
	mov	eax, DWORD PTR _tclStubsPtr
LVL412:
	mov	esi, DWORD PTR [eax+948]
	.loc 1 444 0
	mov	edi, DWORD PTR [eax+232]
	.loc 1 443 0
	mov	DWORD PTR [esp], ebx
	call	_purple_chat_get_name
LVL413:
	jmp	L280
	.cfi_endproc
LFE98:
	.section .rdata,"dr"
LC112:
	.ascii "conversation command\0"
LC113:
	.ascii "conversation name\0"
LC25:
	.ascii "conversation\0"
	.align 4
LC114:
	.ascii "cmd arglist priority flags prpl_id proc helpstr\0"
LC4:
	.ascii "id\0"
LC58:
	.ascii "do\0"
LC59:
	.ascii "help\0"
LC60:
	.ascii "register\0"
LC61:
	.ascii "unregister\0"
	.data
	.align 4
LC111:
	.long	LC58
	.long	LC59
	.long	LC46
	.long	LC60
	.long	LC61
	.long	0
	.text
	.p2align 2,,3
	.globl	_tcl_cmd_cmd
	.def	_tcl_cmd_cmd;	.scl	2;	.type	32;	.endef
_tcl_cmd_cmd:
LFB99:
	.loc 1 564 0
	.cfi_startproc
LVL414:
	push	ebp
LCFI44:
	.cfi_def_cfa_offset 8
	.cfi_offset 5, -8
	push	edi
LCFI45:
	.cfi_def_cfa_offset 12
	.cfi_offset 7, -12
	push	esi
LCFI46:
	.cfi_def_cfa_offset 16
	.cfi_offset 6, -16
	push	ebx
LCFI47:
	.cfi_def_cfa_offset 20
	.cfi_offset 3, -20
	sub	esp, 108
LCFI48:
	.cfi_def_cfa_offset 128
	mov	ebx, DWORD PTR [esp+132]
	mov	edx, DWORD PTR [esp+136]
	mov	ebp, DWORD PTR [esp+140]
	.loc 1 564 0
	mov	eax, DWORD PTR ___stack_chk_guard
	mov	DWORD PTR [esp+92], eax
	xor	eax, eax
	.loc 1 565 0
	lea	eax, [esp+68]
	mov	esi, OFFSET FLAT:LC111
	mov	ecx, 6
	mov	edi, eax
	rep movsd
	.loc 1 574 0
	mov	DWORD PTR [esp+64], 0
LVL415:
	.loc 1 576 0
	cmp	edx, 1
	jle	L340
	.loc 1 581 0
	lea	ecx, [esp+56]
	mov	DWORD PTR [esp+20], ecx
	mov	DWORD PTR [esp+16], 0
	mov	DWORD PTR [esp+12], OFFSET FLAT:LC84
	mov	DWORD PTR [esp+8], eax
	mov	eax, DWORD PTR [ebp+4]
	mov	DWORD PTR [esp+4], eax
	mov	DWORD PTR [esp], ebx
	mov	eax, DWORD PTR _tclStubsPtr
	mov	DWORD PTR [esp+40], edx
	call	[DWORD PTR [eax+152]]
LVL416:
	mov	edi, eax
LVL417:
	test	eax, eax
	mov	edx, DWORD PTR [esp+40]
	jne	L301
LVL418:
	.loc 1 584 0
	cmp	DWORD PTR [esp+56], 4
	ja	L301
	mov	eax, DWORD PTR [esp+56]
LVL419:
	jmp	[DWORD PTR L307[0+eax*4]]
	.section .rdata,"dr"
	.align 4
L307:
	.long	L302
	.long	L303
	.long	L304
	.long	L305
	.long	L306
	.text
	.p2align 2,,3
L305:
	.loc 1 638 0
	cmp	edx, 9
	je	L320
	.loc 1 639 0
	mov	DWORD PTR [esp+12], OFFSET FLAT:LC114
L337:
	.loc 1 622 0
	mov	DWORD PTR [esp+8], ebp
	mov	DWORD PTR [esp+4], 2
	mov	DWORD PTR [esp], ebx
	mov	eax, DWORD PTR _tclStubsPtr
	call	[DWORD PTR [eax+1064]]
LVL420:
L338:
	.loc 1 623 0
	mov	edi, 1
LVL421:
L301:
	.loc 1 681 0
	mov	eax, edi
	mov	edx, DWORD PTR [esp+92]
	xor	edx, DWORD PTR ___stack_chk_guard
	jne	L341
	add	esp, 108
LCFI49:
	.cfi_remember_state
	.cfi_def_cfa_offset 20
	pop	ebx
LCFI50:
	.cfi_restore 3
	.cfi_def_cfa_offset 16
	pop	esi
LCFI51:
	.cfi_restore 6
	.cfi_def_cfa_offset 12
	pop	edi
LCFI52:
	.cfi_restore 7
	.cfi_def_cfa_offset 8
	pop	ebp
LCFI53:
	.cfi_restore 5
	.cfi_def_cfa_offset 4
	ret
LVL422:
	.p2align 2,,3
L304:
LCFI54:
	.cfi_restore_state
	.loc 1 621 0
	cmp	edx, 3
	je	L316
	.loc 1 622 0
	mov	DWORD PTR [esp+12], OFFSET FLAT:LC25
	jmp	L337
	.p2align 2,,3
L303:
	.loc 1 604 0
	cmp	edx, 4
	je	L311
	.loc 1 605 0
	mov	DWORD PTR [esp+12], OFFSET FLAT:LC113
	jmp	L337
	.p2align 2,,3
L302:
	.loc 1 586 0
	cmp	edx, 4
	je	L308
	.loc 1 587 0
	mov	DWORD PTR [esp+12], OFFSET FLAT:LC112
	jmp	L337
	.p2align 2,,3
L306:
	.loc 1 669 0
	cmp	edx, 3
	je	L324
	.loc 1 670 0
	mov	DWORD PTR [esp+12], OFFSET FLAT:LC4
	jmp	L337
LVL423:
	.p2align 2,,3
L340:
	.loc 1 577 0
	mov	DWORD PTR [esp+12], OFFSET FLAT:LC83
	mov	DWORD PTR [esp+8], ebp
	mov	DWORD PTR [esp+4], 1
	mov	DWORD PTR [esp], ebx
	mov	eax, DWORD PTR _tclStubsPtr
	call	[DWORD PTR [eax+1064]]
LVL424:
	.loc 1 578 0
	mov	edi, 1
	jmp	L301
LVL425:
	.p2align 2,,3
L320:
	.loc 1 642 0
	mov	DWORD PTR [esp], 44
	call	_g_malloc0
LVL426:
	mov	esi, eax
LVL427:
	.loc 1 643 0
	mov	eax, DWORD PTR [ebp+8]
LVL428:
	mov	DWORD PTR [esi+4], eax
	.loc 1 644 0
	mov	eax, DWORD PTR [ebp+12]
	mov	DWORD PTR [esp], eax
	mov	eax, DWORD PTR _tclStubsPtr
	call	[DWORD PTR [eax+1368]]
LVL429:
	mov	edi, eax
LVL430:
	mov	DWORD PTR [esi+16], eax
	.loc 1 645 0
	xor	eax, eax
	mov	ecx, -1
	repne scasb
	not	ecx
	dec	ecx
	mov	DWORD PTR [esi+40], ecx
	.loc 1 646 0
	lea	eax, [esi+20]
	mov	DWORD PTR [esp+8], eax
	mov	eax, DWORD PTR [ebp+16]
	mov	DWORD PTR [esp+4], eax
	mov	DWORD PTR [esp], ebx
	mov	eax, DWORD PTR _tclStubsPtr
	call	[DWORD PTR [eax+160]]
LVL431:
	mov	edi, eax
LVL432:
	test	eax, eax
	jne	L339
	.loc 1 651 0
	lea	eax, [esi+24]
LVL433:
	mov	DWORD PTR [esp+8], eax
	mov	eax, DWORD PTR [ebp+20]
	mov	DWORD PTR [esp+4], eax
	mov	DWORD PTR [esp], ebx
	mov	eax, DWORD PTR _tclStubsPtr
	call	[DWORD PTR [eax+160]]
LVL434:
	mov	edi, eax
LVL435:
	test	eax, eax
	jne	L339
	.loc 1 656 0
	mov	eax, DWORD PTR [ebp+24]
LVL436:
	mov	DWORD PTR [esp], eax
	mov	eax, DWORD PTR _tclStubsPtr
	call	[DWORD PTR [eax+1368]]
LVL437:
	mov	DWORD PTR [esi+28], eax
	.loc 1 657 0
	mov	eax, DWORD PTR [ebp+28]
	mov	DWORD PTR [esi+32], eax
	.loc 1 658 0
	mov	eax, DWORD PTR [ebp+32]
	mov	DWORD PTR [esp], eax
	mov	eax, DWORD PTR _tclStubsPtr
	call	[DWORD PTR [eax+1368]]
LVL438:
	mov	DWORD PTR [esi+36], eax
	.loc 1 659 0
	mov	DWORD PTR [esi+8], ebx
	.loc 1 660 0
	mov	DWORD PTR [esp], esi
	call	_tcl_cmd_register
LVL439:
	mov	DWORD PTR [esp+60], eax
	test	eax, eax
	jne	L323
	.loc 1 661 0
	mov	DWORD PTR [esp], esi
	call	_tcl_cmd_handler_free
LVL440:
	.loc 1 662 0
	mov	eax, DWORD PTR _tclStubsPtr
	mov	esi, DWORD PTR [eax+948]
LVL441:
	mov	DWORD PTR [esp], 0
	call	[DWORD PTR [eax+216]]
LVL442:
	mov	DWORD PTR [esp+4], eax
	mov	DWORD PTR [esp], ebx
	call	esi
LVL443:
	jmp	L301
LVL444:
	.p2align 2,,3
L324:
	.loc 1 674 0
	lea	eax, [esp+60]
LVL445:
	mov	DWORD PTR [esp+8], eax
	.loc 1 673 0
	mov	eax, DWORD PTR [ebp+8]
	mov	DWORD PTR [esp+4], eax
	mov	DWORD PTR [esp], ebx
	mov	eax, DWORD PTR _tclStubsPtr
	call	[DWORD PTR [eax+160]]
LVL446:
	mov	edi, eax
LVL447:
	test	eax, eax
	jne	L301
	.loc 1 676 0
	mov	DWORD PTR [esp+4], ebx
LVL448:
	mov	eax, DWORD PTR [esp+60]
LVL449:
	mov	DWORD PTR [esp], eax
	call	_tcl_cmd_unregister
LVL450:
	.loc 1 677 0
	jmp	L301
LVL451:
	.p2align 2,,3
L308:
	.loc 1 590 0
	mov	eax, DWORD PTR [ebp+8]
LVL452:
	mov	edx, ebx
	call	_tcl_validate_conversation
LVL453:
	mov	esi, eax
LVL454:
	test	eax, eax
	je	L338
	.loc 1 592 0
	mov	eax, DWORD PTR [ebp+12]
LVL455:
	mov	DWORD PTR [esp], eax
	mov	eax, DWORD PTR _tclStubsPtr
	call	[DWORD PTR [eax+1368]]
LVL456:
	mov	DWORD PTR [esp+4], -1
	mov	DWORD PTR [esp], eax
	call	_g_markup_escape_text
LVL457:
	mov	edi, eax
LVL458:
	.loc 1 593 0
	mov	eax, DWORD PTR [ebp+12]
LVL459:
	mov	DWORD PTR [esp], eax
	mov	eax, DWORD PTR _tclStubsPtr
	call	[DWORD PTR [eax+1368]]
LVL460:
	lea	edx, [esp+64]
	mov	DWORD PTR [esp+12], edx
	mov	DWORD PTR [esp+8], edi
	mov	DWORD PTR [esp+4], eax
	mov	DWORD PTR [esp], esi
	call	_purple_cmd_do_command
LVL461:
	mov	esi, eax
LVL462:
	.loc 1 595 0
	mov	DWORD PTR [esp], edi
	call	_g_free
LVL463:
	.loc 1 596 0
	mov	eax, DWORD PTR _tclStubsPtr
	mov	edi, DWORD PTR [eax+948]
LVL464:
	.loc 1 597 0
	mov	eax, DWORD PTR [eax+232]
	mov	edx, DWORD PTR [esp+64]
	.loc 1 596 0
	test	edx, edx
	je	L342
L310:
	.loc 1 596 0 is_stmt 0 discriminator 3
	mov	DWORD PTR [esp+4], -1
	mov	DWORD PTR [esp], edx
	call	eax
LVL465:
	mov	DWORD PTR [esp+4], eax
	mov	DWORD PTR [esp], ebx
	call	edi
LVL466:
	.loc 1 598 0 is_stmt 1 discriminator 3
	mov	eax, DWORD PTR [esp+64]
	mov	DWORD PTR [esp], eax
	call	_g_free
LVL467:
	.loc 1 578 0 discriminator 3
	xor	edx, edx
	test	esi, esi
	setne	dl
	mov	edi, edx
	jmp	L301
LVL468:
	.p2align 2,,3
L311:
	.loc 1 608 0
	mov	eax, DWORD PTR [ebp+8]
LVL469:
	mov	edx, ebx
	call	_tcl_validate_conversation
LVL470:
	mov	esi, eax
LVL471:
	test	eax, eax
	je	L338
	.loc 1 610 0
	mov	eax, DWORD PTR [ebp+12]
LVL472:
	mov	DWORD PTR [esp], eax
	mov	eax, DWORD PTR _tclStubsPtr
	call	[DWORD PTR [eax+1368]]
LVL473:
	mov	DWORD PTR [esp+4], eax
	mov	DWORD PTR [esp], esi
	call	_purple_cmd_help
LVL474:
	mov	DWORD PTR [esp+44], eax
LVL475:
	.loc 1 611 0
	mov	DWORD PTR [esp+4], 0
	mov	DWORD PTR [esp], 0
	mov	eax, DWORD PTR _tclStubsPtr
LVL476:
	call	[DWORD PTR [eax+220]]
LVL477:
	mov	esi, eax
LVL478:
	.loc 1 612 0
	mov	ebp, DWORD PTR [esp+44]
	test	ebp, ebp
	je	L319
LVL479:
	.p2align 2,,3
L330:
	.loc 1 613 0
	mov	DWORD PTR [esp+4], -1
	mov	eax, DWORD PTR [ebp+0]
	mov	DWORD PTR [esp], eax
	mov	eax, DWORD PTR _tclStubsPtr
	call	[DWORD PTR [eax+232]]
LVL480:
	.loc 1 614 0
	mov	DWORD PTR [esp+8], eax
	mov	DWORD PTR [esp+4], esi
	mov	DWORD PTR [esp], ebx
	mov	eax, DWORD PTR _tclStubsPtr
LVL481:
	call	[DWORD PTR [eax+184]]
LVL482:
	.loc 1 615 0
	mov	ebp, DWORD PTR [ebp+4]
LVL483:
	.loc 1 612 0
	test	ebp, ebp
	jne	L330
L319:
	.loc 1 634 0
	mov	eax, DWORD PTR [esp+44]
	mov	DWORD PTR [esp], eax
	call	_g_list_free
LVL484:
	.loc 1 635 0
	mov	DWORD PTR [esp+4], esi
	mov	DWORD PTR [esp], ebx
	mov	eax, DWORD PTR _tclStubsPtr
	call	[DWORD PTR [eax+948]]
LVL485:
	.loc 1 636 0
	jmp	L301
LVL486:
	.p2align 2,,3
L316:
	.loc 1 625 0
	mov	eax, DWORD PTR [ebp+8]
LVL487:
	mov	edx, ebx
	call	_tcl_validate_conversation
LVL488:
	test	eax, eax
	je	L338
	.loc 1 627 0
	mov	DWORD PTR [esp], eax
	call	_purple_cmd_list
LVL489:
	mov	DWORD PTR [esp+44], eax
LVL490:
	.loc 1 628 0
	mov	DWORD PTR [esp+4], 0
	mov	DWORD PTR [esp], 0
	mov	eax, DWORD PTR _tclStubsPtr
LVL491:
	call	[DWORD PTR [eax+220]]
LVL492:
	mov	esi, eax
LVL493:
	.loc 1 629 0
	mov	ebp, DWORD PTR [esp+44]
	test	ebp, ebp
	je	L319
LVL494:
	.p2align 2,,3
L331:
	.loc 1 630 0
	mov	DWORD PTR [esp+4], -1
	mov	eax, DWORD PTR [ebp+0]
	mov	DWORD PTR [esp], eax
	mov	eax, DWORD PTR _tclStubsPtr
	call	[DWORD PTR [eax+232]]
LVL495:
	.loc 1 631 0
	mov	DWORD PTR [esp+8], eax
	mov	DWORD PTR [esp+4], esi
	mov	DWORD PTR [esp], ebx
	mov	eax, DWORD PTR _tclStubsPtr
LVL496:
	call	[DWORD PTR [eax+184]]
LVL497:
	.loc 1 632 0
	mov	ebp, DWORD PTR [ebp+4]
LVL498:
	.loc 1 629 0
	test	ebp, ebp
	jne	L331
	jmp	L319
LVL499:
L339:
	.loc 1 653 0
	mov	DWORD PTR [esp], esi
	call	_g_free
LVL500:
	jmp	L301
LVL501:
L323:
	.loc 1 664 0
	mov	DWORD PTR [esi], eax
	.loc 1 665 0
	mov	edx, DWORD PTR _tclStubsPtr
	mov	esi, DWORD PTR [edx+948]
LVL502:
	mov	DWORD PTR [esp], eax
	call	[DWORD PTR [edx+216]]
LVL503:
	mov	DWORD PTR [esp+4], eax
	mov	DWORD PTR [esp], ebx
	call	esi
LVL504:
	jmp	L301
LVL505:
L342:
	.loc 1 596 0
	mov	edx, OFFSET FLAT:LC80
	jmp	L310
LVL506:
L341:
	.loc 1 681 0
	call	___stack_chk_fail
LVL507:
	.cfi_endproc
LFE99:
	.section .rdata,"dr"
LC116:
	.ascii "gc\0"
LC117:
	.ascii "disconnected\0"
LC118:
	.ascii "connected\0"
LC119:
	.ascii "connecting\0"
LC55:
	.ascii "displayname\0"
LC56:
	.ascii "state\0"
	.data
	.align 4
LC115:
	.long	LC21
	.long	LC55
	.long	LC19
	.long	LC46
	.long	LC56
	.long	0
	.text
	.p2align 2,,3
	.globl	_tcl_cmd_connection
	.def	_tcl_cmd_connection;	.scl	2;	.type	32;	.endef
_tcl_cmd_connection:
LFB100:
	.loc 1 684 0
	.cfi_startproc
LVL508:
	push	ebp
LCFI55:
	.cfi_def_cfa_offset 8
	.cfi_offset 5, -8
	push	edi
LCFI56:
	.cfi_def_cfa_offset 12
	.cfi_offset 7, -12
	push	esi
LCFI57:
	.cfi_def_cfa_offset 16
	.cfi_offset 6, -16
	push	ebx
LCFI58:
	.cfi_def_cfa_offset 20
	.cfi_offset 3, -20
	sub	esp, 92
LCFI59:
	.cfi_def_cfa_offset 112
	mov	ebp, DWORD PTR [esp+116]
	mov	edx, DWORD PTR [esp+120]
	mov	ebx, DWORD PTR [esp+124]
	.loc 1 684 0
	mov	eax, DWORD PTR ___stack_chk_guard
	mov	DWORD PTR [esp+76], eax
	xor	eax, eax
	.loc 1 686 0
	lea	eax, [esp+52]
	mov	esi, OFFSET FLAT:LC115
	mov	ecx, 6
	mov	edi, eax
	rep movsd
	.loc 1 693 0
	cmp	edx, 1
	jle	L381
	.loc 1 698 0
	lea	ecx, [esp+48]
	mov	DWORD PTR [esp+20], ecx
	mov	DWORD PTR [esp+16], 0
	mov	DWORD PTR [esp+12], OFFSET FLAT:LC84
	mov	DWORD PTR [esp+8], eax
	mov	eax, DWORD PTR [ebx+4]
	mov	DWORD PTR [esp+4], eax
	mov	DWORD PTR [esp], ebp
	mov	eax, DWORD PTR _tclStubsPtr
	mov	DWORD PTR [esp+44], edx
	call	[DWORD PTR [eax+152]]
LVL509:
	mov	esi, eax
LVL510:
	test	eax, eax
	mov	edx, DWORD PTR [esp+44]
	jne	L345
LVL511:
	.loc 1 701 0
	cmp	DWORD PTR [esp+48], 4
	ja	L345
	mov	eax, DWORD PTR [esp+48]
LVL512:
	jmp	[DWORD PTR L351[0+eax*4]]
	.section .rdata,"dr"
	.align 4
L351:
	.long	L346
	.long	L347
	.long	L348
	.long	L349
	.long	L350
	.text
	.p2align 2,,3
L349:
	.loc 1 732 0
	cmp	edx, 2
	je	L357
L380:
	.loc 1 733 0
	mov	DWORD PTR [esp+12], OFFSET FLAT:LC80
L378:
	.loc 1 745 0
	mov	DWORD PTR [esp+8], ebx
	mov	DWORD PTR [esp+4], 2
	mov	DWORD PTR [esp], ebp
	mov	eax, DWORD PTR _tclStubsPtr
	call	[DWORD PTR [eax+1064]]
LVL513:
L379:
	.loc 1 746 0
	mov	esi, 1
LVL514:
L345:
	.loc 1 765 0
	mov	eax, esi
	mov	edx, DWORD PTR [esp+76]
	xor	edx, DWORD PTR ___stack_chk_guard
	jne	L382
	add	esp, 92
LCFI60:
	.cfi_remember_state
	.cfi_def_cfa_offset 20
	pop	ebx
LCFI61:
	.cfi_restore 3
	.cfi_def_cfa_offset 16
	pop	esi
LCFI62:
	.cfi_restore 6
	.cfi_def_cfa_offset 12
	pop	edi
LCFI63:
	.cfi_restore 7
	.cfi_def_cfa_offset 8
	pop	ebp
LCFI64:
	.cfi_restore 5
	.cfi_def_cfa_offset 4
	ret
LVL515:
	.p2align 2,,3
L348:
LCFI65:
	.cfi_restore_state
	.loc 1 724 0
	cmp	edx, 2
	jne	L380
	.loc 1 728 0
	mov	eax, DWORD PTR _tclStubsPtr
LVL516:
	mov	ebx, DWORD PTR [eax+948]
	call	_purple_connections_get_handle
LVL517:
	mov	DWORD PTR [esp+4], eax
	mov	eax, DWORD PTR _PurpleTclRefHandle
	jmp	L376
LVL518:
	.p2align 2,,3
L347:
	.loc 1 714 0
	cmp	edx, 3
	je	L354
L377:
	.loc 1 745 0
	mov	DWORD PTR [esp+12], OFFSET FLAT:LC116
	jmp	L378
	.p2align 2,,3
L346:
	.loc 1 703 0
	cmp	edx, 3
	jne	L377
	.loc 1 707 0
	mov	eax, DWORD PTR [ebx+8]
LVL519:
	mov	edx, ebp
	call	_tcl_validate_gc
LVL520:
	test	eax, eax
	je	L379
	.loc 1 709 0
	mov	edx, DWORD PTR _tclStubsPtr
	mov	ebx, DWORD PTR [edx+948]
	.loc 1 711 0
	mov	DWORD PTR [esp], eax
	call	_purple_connection_get_account
LVL521:
	.loc 1 709 0
	mov	DWORD PTR [esp+4], eax
	mov	eax, DWORD PTR _PurpleTclRefAccount
L376:
	.loc 1 728 0
	mov	DWORD PTR [esp], eax
	call	_purple_tcl_ref_new
LVL522:
	mov	DWORD PTR [esp+4], eax
	mov	DWORD PTR [esp], ebp
	call	ebx
LVL523:
	.loc 1 730 0
	jmp	L345
LVL524:
	.p2align 2,,3
L350:
	.loc 1 744 0
	cmp	edx, 3
	jne	L377
	.loc 1 748 0
	mov	eax, DWORD PTR [ebx+8]
LVL525:
	mov	edx, ebp
	call	_tcl_validate_gc
LVL526:
	test	eax, eax
	je	L379
	.loc 1 750 0
	mov	DWORD PTR [esp], eax
	call	_purple_connection_get_state
LVL527:
	cmp	eax, 1
	je	L363
	jae	L383
	.loc 1 752 0
	mov	eax, DWORD PTR _tclStubsPtr
	mov	ebx, DWORD PTR [eax+948]
	mov	DWORD PTR [esp+4], -1
	mov	DWORD PTR [esp], OFFSET FLAT:LC117
	call	[DWORD PTR [eax+232]]
LVL528:
	mov	DWORD PTR [esp+4], eax
	mov	DWORD PTR [esp], ebp
	call	ebx
LVL529:
	.loc 1 753 0
	jmp	L345
LVL530:
	.p2align 2,,3
L381:
	.loc 1 694 0
	mov	DWORD PTR [esp+12], OFFSET FLAT:LC83
	mov	DWORD PTR [esp+8], ebx
	mov	DWORD PTR [esp+4], 1
	mov	DWORD PTR [esp], ebp
	mov	eax, DWORD PTR _tclStubsPtr
	call	[DWORD PTR [eax+1064]]
LVL531:
	.loc 1 695 0
	mov	esi, 1
	jmp	L345
LVL532:
	.p2align 2,,3
L354:
	.loc 1 718 0
	mov	eax, DWORD PTR [ebx+8]
LVL533:
	mov	edx, ebp
	call	_tcl_validate_gc
LVL534:
	test	eax, eax
	je	L379
	.loc 1 720 0
	mov	edx, DWORD PTR _tclStubsPtr
	mov	ebx, DWORD PTR [edx+948]
	.loc 1 721 0
	mov	edi, DWORD PTR [edx+232]
	.loc 1 720 0
	mov	DWORD PTR [esp], eax
	call	_purple_connection_get_display_name
LVL535:
	mov	DWORD PTR [esp+4], -1
	mov	DWORD PTR [esp], eax
	call	edi
LVL536:
	mov	DWORD PTR [esp+4], eax
	mov	DWORD PTR [esp], ebp
	call	ebx
LVL537:
	.loc 1 722 0
	jmp	L345
LVL538:
	.p2align 2,,3
L357:
	.loc 1 736 0
	mov	DWORD PTR [esp+4], 0
	mov	DWORD PTR [esp], 0
	mov	eax, DWORD PTR _tclStubsPtr
LVL539:
	call	[DWORD PTR [eax+220]]
LVL540:
	mov	edi, eax
LVL541:
	.loc 1 737 0
	call	_purple_connections_get_all
LVL542:
	mov	ebx, eax
LVL543:
	test	eax, eax
	je	L360
LVL544:
	.p2align 2,,3
L370:
	.loc 1 738 0 discriminator 2
	mov	eax, DWORD PTR [ebx]
	mov	DWORD PTR [esp+4], eax
	mov	eax, DWORD PTR _PurpleTclRefConnection
	mov	DWORD PTR [esp], eax
	call	_purple_tcl_ref_new
LVL545:
	.loc 1 739 0 discriminator 2
	mov	DWORD PTR [esp+8], eax
	mov	DWORD PTR [esp+4], edi
	mov	DWORD PTR [esp], ebp
	mov	eax, DWORD PTR _tclStubsPtr
LVL546:
	call	[DWORD PTR [eax+184]]
LVL547:
	.loc 1 737 0 discriminator 2
	mov	ebx, DWORD PTR [ebx+4]
LVL548:
	test	ebx, ebx
	jne	L370
L360:
	.loc 1 741 0
	mov	DWORD PTR [esp+4], edi
	mov	DWORD PTR [esp], ebp
	mov	eax, DWORD PTR _tclStubsPtr
	call	[DWORD PTR [eax+948]]
LVL549:
	.loc 1 742 0
	jmp	L345
LVL550:
L383:
	.loc 1 750 0
	cmp	eax, 2
	jne	L345
	.loc 1 758 0
	mov	eax, DWORD PTR _tclStubsPtr
	mov	ebx, DWORD PTR [eax+948]
	mov	DWORD PTR [esp+4], -1
	mov	DWORD PTR [esp], OFFSET FLAT:LC119
	call	[DWORD PTR [eax+232]]
LVL551:
	mov	DWORD PTR [esp+4], eax
	mov	DWORD PTR [esp], ebp
	call	ebx
LVL552:
	.loc 1 759 0
	jmp	L345
L363:
	.loc 1 755 0
	mov	eax, DWORD PTR _tclStubsPtr
	mov	ebx, DWORD PTR [eax+948]
	mov	DWORD PTR [esp+4], -1
	mov	DWORD PTR [esp], OFFSET FLAT:LC118
	call	[DWORD PTR [eax+232]]
LVL553:
	mov	DWORD PTR [esp+4], eax
	mov	DWORD PTR [esp], ebp
	call	ebx
LVL554:
	.loc 1 756 0
	jmp	L345
LVL555:
L382:
	.loc 1 765 0
	call	___stack_chk_fail
LVL556:
	.cfi_endproc
LFE100:
	.section .rdata,"dr"
LC122:
	.ascii "-chat\0"
LC123:
	.ascii "-im\0"
LC124:
	.ascii "account name\0"
LC125:
	.ascii "?options? account name\0"
LC126:
	.ascii "conversation style from what\0"
LC127:
	.ascii "style\0"
LC128:
	.ascii "conversation message\0"
LC47:
	.ascii "new\0"
LC48:
	.ascii "write\0"
LC6:
	.ascii "name\0"
LC49:
	.ascii "title\0"
LC50:
	.ascii "send\0"
	.data
	.align 32
LC120:
	.long	LC45
	.long	LC19
	.long	LC46
	.long	LC47
	.long	LC48
	.long	LC6
	.long	LC49
	.long	LC50
	.long	0
	.section .rdata,"dr"
LC52:
	.ascii "recv\0"
LC53:
	.ascii "system\0"
	.data
	.align 4
LC121:
	.long	LC50
	.long	LC52
	.long	LC53
	.long	0
	.text
	.p2align 2,,3
	.globl	_tcl_cmd_conversation
	.def	_tcl_cmd_conversation;	.scl	2;	.type	32;	.endef
_tcl_cmd_conversation:
LFB101:
	.loc 1 768 0
	.cfi_startproc
LVL557:
	push	ebp
LCFI66:
	.cfi_def_cfa_offset 8
	.cfi_offset 5, -8
	push	edi
LCFI67:
	.cfi_def_cfa_offset 12
	.cfi_offset 7, -12
	push	esi
LCFI68:
	.cfi_def_cfa_offset 16
	.cfi_offset 6, -16
	push	ebx
LCFI69:
	.cfi_def_cfa_offset 20
	.cfi_offset 3, -20
	sub	esp, 140
LCFI70:
	.cfi_def_cfa_offset 160
	mov	edx, DWORD PTR [esp+164]
	mov	DWORD PTR [esp+36], edx
	mov	ebx, DWORD PTR [esp+168]
	mov	ebp, DWORD PTR [esp+172]
	.loc 1 768 0
	mov	eax, DWORD PTR ___stack_chk_guard
	mov	DWORD PTR [esp+124], eax
	xor	eax, eax
	.loc 1 770 0
	lea	eax, [esp+88]
	mov	esi, OFFSET FLAT:LC120
	mov	ecx, 9
	mov	edi, eax
	rep movsd
	.loc 1 772 0
	lea	edx, [esp+72]
	mov	DWORD PTR [esp+40], edx
	mov	esi, OFFSET FLAT:LC121
	mov	cl, 4
	mov	edi, edx
	rep movsd
	.loc 1 774 0
	mov	DWORD PTR [esp+64], OFFSET FLAT:LC122
	mov	DWORD PTR [esp+68], OFFSET FLAT:LC123
LVL558:
	.loc 1 783 0
	cmp	ebx, 1
	jle	L449
	.loc 1 788 0
	lea	edx, [esp+52]
	mov	DWORD PTR [esp+20], edx
	mov	DWORD PTR [esp+16], 0
	mov	DWORD PTR [esp+12], OFFSET FLAT:LC84
	mov	DWORD PTR [esp+8], eax
	mov	eax, DWORD PTR [ebp+4]
	mov	DWORD PTR [esp+4], eax
	mov	edx, DWORD PTR [esp+36]
	mov	DWORD PTR [esp], edx
	mov	eax, DWORD PTR _tclStubsPtr
	call	[DWORD PTR [eax+152]]
LVL559:
	mov	esi, eax
LVL560:
	test	eax, eax
	jne	L386
LVL561:
	.loc 1 791 0
	cmp	DWORD PTR [esp+52], 7
	ja	L386
	mov	eax, DWORD PTR [esp+52]
LVL562:
	jmp	[DWORD PTR L395[0+eax*4]]
	.section .rdata,"dr"
	.align 4
L395:
	.long	L387
	.long	L388
	.long	L389
	.long	L390
	.long	L391
	.long	L392
	.long	L393
	.long	L394
	.text
	.p2align 2,,3
L391:
	.loc 1 858 0
	cmp	ebx, 6
	jne	L450
	.loc 1 862 0
	mov	eax, DWORD PTR [ebp+8]
	mov	edx, DWORD PTR [esp+36]
	call	_tcl_validate_conversation
LVL563:
	mov	edi, eax
LVL564:
	test	eax, eax
	je	L445
	.loc 1 864 0
	lea	eax, [esp+56]
LVL565:
	mov	DWORD PTR [esp+20], eax
	mov	DWORD PTR [esp+16], 0
	mov	DWORD PTR [esp+12], OFFSET FLAT:LC127
	lea	eax, [esp+72]
	mov	DWORD PTR [esp+8], eax
	mov	eax, DWORD PTR [ebp+12]
	mov	DWORD PTR [esp+4], eax
	mov	edx, DWORD PTR [esp+36]
	mov	DWORD PTR [esp], edx
	mov	eax, DWORD PTR _tclStubsPtr
	call	[DWORD PTR [eax+152]]
LVL566:
	mov	esi, eax
LVL567:
	test	eax, eax
	jne	L386
	.loc 1 866 0
	mov	eax, DWORD PTR [ebp+16]
LVL568:
	mov	DWORD PTR [esp], eax
	mov	eax, DWORD PTR _tclStubsPtr
	call	[DWORD PTR [eax+1368]]
LVL569:
	mov	DWORD PTR [esp+36], eax
LVL570:
	.loc 1 867 0
	mov	eax, DWORD PTR [ebp+20]
LVL571:
	mov	DWORD PTR [esp], eax
	mov	eax, DWORD PTR _tclStubsPtr
	call	[DWORD PTR [eax+1368]]
LVL572:
	mov	ebx, eax
LVL573:
	.loc 1 869 0
	mov	eax, DWORD PTR [esp+56]
LVL574:
	cmp	eax, 2
	ja	L421
	mov	ebp, DWORD PTR _CSWTCH.118[0+eax*4]
L411:
LVL575:
	.loc 1 880 0
	mov	DWORD PTR [esp], edi
	call	_purple_conversation_get_type
LVL576:
	.loc 1 881 0
	mov	DWORD PTR [esp], 0
	.loc 1 880 0
	cmp	eax, 2
	je	L451
	.loc 1 883 0
	call	_time
LVL577:
	mov	DWORD PTR [esp], edi
	mov	DWORD PTR [esp+32], eax
	call	_purple_conversation_get_im_data
LVL578:
	mov	edx, DWORD PTR [esp+32]
	mov	DWORD PTR [esp+16], edx
	mov	DWORD PTR [esp+12], ebp
	mov	DWORD PTR [esp+8], ebx
	mov	edx, DWORD PTR [esp+36]
	mov	DWORD PTR [esp+4], edx
	mov	DWORD PTR [esp], eax
	call	_purple_conv_im_write
LVL579:
	.p2align 2,,3
L386:
	.loc 1 923 0
	mov	eax, esi
	mov	edx, DWORD PTR [esp+124]
	xor	edx, DWORD PTR ___stack_chk_guard
	jne	L452
	add	esp, 140
LCFI71:
	.cfi_remember_state
	.cfi_def_cfa_offset 20
	pop	ebx
LCFI72:
	.cfi_restore 3
	.cfi_def_cfa_offset 16
	pop	esi
LCFI73:
	.cfi_restore 6
	.cfi_def_cfa_offset 12
	pop	edi
LCFI74:
	.cfi_restore 7
	.cfi_def_cfa_offset 8
	pop	ebp
LCFI75:
	.cfi_restore 5
	.cfi_def_cfa_offset 4
	ret
LVL580:
	.p2align 2,,3
L393:
LCFI76:
	.cfi_restore_state
	.loc 1 897 0
	cmp	ebx, 3
	je	L414
L448:
	.loc 1 898 0
	mov	DWORD PTR [esp+12], OFFSET FLAT:LC25
LVL581:
L444:
	.loc 1 794 0
	mov	DWORD PTR [esp+8], ebp
	mov	DWORD PTR [esp+4], 2
L442:
	mov	edx, DWORD PTR [esp+36]
	mov	DWORD PTR [esp], edx
	mov	eax, DWORD PTR _tclStubsPtr
LVL582:
	call	[DWORD PTR [eax+1064]]
LVL583:
L445:
	.loc 1 795 0
	mov	esi, 1
	jmp	L386
LVL584:
	.p2align 2,,3
L392:
	.loc 1 886 0
	cmp	ebx, 3
	jne	L448
	.loc 1 891 0
	mov	eax, DWORD PTR [ebp+8]
LVL585:
	mov	edx, DWORD PTR [esp+36]
	call	_tcl_validate_conversation
LVL586:
	test	eax, eax
	je	L445
	.loc 1 893 0
	mov	edx, DWORD PTR _tclStubsPtr
	mov	ebx, DWORD PTR [edx+948]
	.loc 1 894 0
	mov	edi, DWORD PTR [edx+232]
	.loc 1 893 0
	mov	DWORD PTR [esp], eax
	call	_purple_conversation_get_name
LVL587:
	jmp	L447
LVL588:
	.p2align 2,,3
L390:
	.loc 1 823 0
	cmp	ebx, 3
	jle	L407
	mov	edi, 2
	mov	DWORD PTR [esp+40], 1
	.loc 1 832 0
	mov	DWORD PTR [esp+44], esi
	mov	esi, ebx
LVL589:
	mov	ebx, DWORD PTR [esp+36]
	mov	eax, ebp
LVL590:
	mov	ebp, edi
	mov	edi, eax
	jmp	L402
LVL591:
	.p2align 2,,3
L420:
	.loc 1 838 0
	mov	DWORD PTR [esp+40], 2
L405:
LVL592:
	.loc 1 829 0 discriminator 1
	cmp	ebp, esi
	je	L453
LVL593:
L402:
	.loc 1 830 0
	mov	eax, DWORD PTR [edi+ebp*4]
LVL594:
	mov	DWORD PTR [esp], eax
	mov	eax, DWORD PTR _tclStubsPtr
	call	[DWORD PTR [eax+1368]]
LVL595:
	.loc 1 831 0
	cmp	BYTE PTR [eax], 45
	jne	L403
	.loc 1 833 0
	lea	eax, [esp+60]
LVL596:
	mov	DWORD PTR [esp+20], eax
	.loc 1 832 0
	mov	DWORD PTR [esp+16], 0
	mov	DWORD PTR [esp+12], OFFSET FLAT:LC88
	lea	edx, [esp+64]
	mov	DWORD PTR [esp+8], edx
	mov	eax, DWORD PTR [edi+ebp*4]
	mov	DWORD PTR [esp+4], eax
	mov	DWORD PTR [esp], ebx
	mov	eax, DWORD PTR _tclStubsPtr
	call	[DWORD PTR [eax+152]]
LVL597:
	test	eax, eax
	jne	L419
	.loc 1 835 0
	inc	ebp
LVL598:
	.loc 1 836 0
	mov	eax, DWORD PTR [esp+60]
LVL599:
	test	eax, eax
	je	L420
	dec	eax
LVL600:
	jne	L405
LVL601:
	.loc 1 841 0
	mov	DWORD PTR [esp+40], 1
	.loc 1 842 0
	jmp	L405
LVL602:
	.p2align 2,,3
L389:
	.loc 1 815 0
	mov	DWORD PTR [esp+4], 0
	mov	DWORD PTR [esp], 0
	mov	eax, DWORD PTR _tclStubsPtr
LVL603:
	call	[DWORD PTR [eax+220]]
LVL604:
	mov	edi, eax
LVL605:
	.loc 1 816 0
	call	_purple_get_conversations
LVL606:
	mov	ebx, eax
LVL607:
	test	eax, eax
	je	L401
	mov	ebp, DWORD PTR [esp+36]
LVL608:
	.p2align 2,,3
L432:
	.loc 1 817 0 discriminator 2
	mov	eax, DWORD PTR [ebx]
	mov	DWORD PTR [esp+4], eax
	mov	eax, DWORD PTR _PurpleTclRefConversation
	mov	DWORD PTR [esp], eax
	call	_purple_tcl_ref_new
LVL609:
	.loc 1 818 0 discriminator 2
	mov	DWORD PTR [esp+8], eax
	mov	DWORD PTR [esp+4], edi
	mov	DWORD PTR [esp], ebp
	mov	eax, DWORD PTR _tclStubsPtr
LVL610:
	call	[DWORD PTR [eax+184]]
LVL611:
	.loc 1 816 0 discriminator 2
	mov	ebx, DWORD PTR [ebx+4]
LVL612:
	test	ebx, ebx
	jne	L432
L401:
	.loc 1 820 0
	mov	DWORD PTR [esp+4], edi
	mov	edx, DWORD PTR [esp+36]
	mov	DWORD PTR [esp], edx
	mov	eax, DWORD PTR _tclStubsPtr
	call	[DWORD PTR [eax+948]]
LVL613:
	.loc 1 821 0
	jmp	L386
LVL614:
	.p2align 2,,3
L388:
	.loc 1 806 0
	cmp	ebx, 2
	je	L398
	.loc 1 807 0
	mov	DWORD PTR [esp+12], OFFSET FLAT:LC80
	jmp	L444
	.p2align 2,,3
L387:
	.loc 1 793 0
	cmp	ebx, 4
	je	L396
	.loc 1 794 0
	mov	DWORD PTR [esp+12], OFFSET FLAT:LC124
	jmp	L444
	.p2align 2,,3
L394:
	.loc 1 908 0
	cmp	ebx, 4
	je	L415
	.loc 1 909 0
	mov	DWORD PTR [esp+12], OFFSET FLAT:LC128
	jmp	L444
LVL615:
	.p2align 2,,3
L449:
	.loc 1 784 0
	mov	DWORD PTR [esp+12], OFFSET FLAT:LC83
	mov	DWORD PTR [esp+8], ebp
	mov	DWORD PTR [esp+4], 1
	jmp	L442
LVL616:
	.p2align 2,,3
L450:
	.loc 1 859 0
	mov	DWORD PTR [esp+12], OFFSET FLAT:LC126
	jmp	L444
	.p2align 2,,3
L415:
	.loc 1 912 0
	mov	eax, DWORD PTR [ebp+8]
LVL617:
	mov	edx, DWORD PTR [esp+36]
	call	_tcl_validate_conversation
LVL618:
	mov	ebx, eax
LVL619:
	test	eax, eax
	je	L445
	.loc 1 914 0
	mov	eax, DWORD PTR [ebp+12]
LVL620:
	mov	DWORD PTR [esp], eax
	mov	eax, DWORD PTR _tclStubsPtr
	call	[DWORD PTR [eax+1368]]
LVL621:
	mov	edi, eax
LVL622:
	.loc 1 915 0
	mov	DWORD PTR [esp], ebx
	call	_purple_conversation_get_type
LVL623:
	.loc 1 916 0
	mov	DWORD PTR [esp], ebx
	.loc 1 915 0
	cmp	eax, 2
	je	L454
	.loc 1 918 0
	call	_purple_conversation_get_im_data
LVL624:
	mov	DWORD PTR [esp+4], edi
	mov	DWORD PTR [esp], eax
	call	_purple_conv_im_send
LVL625:
	jmp	L386
LVL626:
	.p2align 2,,3
L414:
	.loc 1 902 0
	mov	eax, DWORD PTR [ebp+8]
LVL627:
	mov	edx, DWORD PTR [esp+36]
	call	_tcl_validate_conversation
LVL628:
	test	eax, eax
	je	L445
	.loc 1 904 0
	mov	edx, DWORD PTR _tclStubsPtr
	mov	ebx, DWORD PTR [edx+948]
	.loc 1 905 0
	mov	edi, DWORD PTR [edx+232]
	.loc 1 904 0
	mov	DWORD PTR [esp], eax
	call	_purple_conversation_get_title
LVL629:
L447:
	mov	DWORD PTR [esp+4], -1
	mov	DWORD PTR [esp], eax
	call	edi
LVL630:
	mov	DWORD PTR [esp+4], eax
	mov	edx, DWORD PTR [esp+36]
	mov	DWORD PTR [esp], edx
	call	ebx
LVL631:
	.loc 1 906 0
	jmp	L386
LVL632:
	.p2align 2,,3
L396:
	.loc 1 798 0
	mov	eax, DWORD PTR [ebp+8]
LVL633:
	mov	edx, DWORD PTR [esp+36]
	call	_tcl_validate_account
LVL634:
	mov	ebx, eax
LVL635:
	test	eax, eax
	je	L445
	.loc 1 801 0
	mov	eax, DWORD PTR [ebp+12]
LVL636:
	mov	DWORD PTR [esp], eax
	mov	eax, DWORD PTR _tclStubsPtr
	call	[DWORD PTR [eax+1368]]
LVL637:
	.loc 1 800 0
	mov	DWORD PTR [esp+8], ebx
	mov	DWORD PTR [esp+4], eax
	mov	DWORD PTR [esp], 4
	call	_purple_find_conversation_with_account
LVL638:
L443:
	.loc 1 855 0
	mov	edx, DWORD PTR _tclStubsPtr
	mov	ebx, DWORD PTR [edx+948]
LVL639:
	mov	DWORD PTR [esp+4], eax
	mov	eax, DWORD PTR _PurpleTclRefConversation
LVL640:
L446:
	mov	DWORD PTR [esp], eax
	call	_purple_tcl_ref_new
LVL641:
	mov	DWORD PTR [esp+4], eax
	mov	edx, DWORD PTR [esp+36]
	mov	DWORD PTR [esp], edx
	call	ebx
LVL642:
	.loc 1 856 0
	jmp	L386
LVL643:
L398:
	.loc 1 810 0
	mov	eax, DWORD PTR _tclStubsPtr
LVL644:
	mov	ebx, DWORD PTR [eax+948]
	call	_purple_conversations_get_handle
LVL645:
	mov	DWORD PTR [esp+4], eax
	mov	eax, DWORD PTR _PurpleTclRefHandle
	jmp	L446
LVL646:
L453:
	mov	ebp, edi
LVL647:
L407:
	.loc 1 849 0
	mov	DWORD PTR [esp+12], OFFSET FLAT:LC125
	jmp	L444
LVL648:
L403:
	mov	ebx, esi
	mov	esi, DWORD PTR [esp+44]
	mov	eax, edi
LVL649:
	mov	edi, ebp
	mov	ebp, eax
	.loc 1 848 0
	mov	eax, ebx
	sub	eax, edi
	cmp	eax, 2
	jne	L407
LVL650:
	.loc 1 852 0
	mov	eax, DWORD PTR [ebp+0+edi*4]
	mov	edx, DWORD PTR [esp+36]
	call	_tcl_validate_account
LVL651:
	mov	ebx, eax
LVL652:
	test	eax, eax
	je	L445
	.loc 1 854 0
	mov	eax, DWORD PTR [ebp+4+edi*4]
LVL653:
	mov	DWORD PTR [esp], eax
	mov	eax, DWORD PTR _tclStubsPtr
	call	[DWORD PTR [eax+1368]]
LVL654:
	mov	DWORD PTR [esp+8], eax
	mov	DWORD PTR [esp+4], ebx
	mov	eax, DWORD PTR [esp+40]
	mov	DWORD PTR [esp], eax
	call	_purple_conversation_new
LVL655:
	jmp	L443
LVL656:
L419:
	.loc 1 832 0
	mov	esi, eax
	jmp	L386
LVL657:
L421:
	.loc 1 869 0
	xor	ebp, ebp
	jmp	L411
LVL658:
L454:
	.loc 1 916 0
	call	_purple_conversation_get_chat_data
LVL659:
	mov	DWORD PTR [esp+4], edi
	mov	DWORD PTR [esp], eax
	call	_purple_conv_chat_send
LVL660:
	jmp	L386
LVL661:
L451:
	.loc 1 881 0
	call	_time
LVL662:
	mov	DWORD PTR [esp], edi
	mov	DWORD PTR [esp+32], eax
	call	_purple_conversation_get_chat_data
LVL663:
	mov	edx, DWORD PTR [esp+32]
	mov	DWORD PTR [esp+16], edx
	mov	DWORD PTR [esp+12], ebp
	mov	DWORD PTR [esp+8], ebx
	mov	edx, DWORD PTR [esp+36]
	mov	DWORD PTR [esp+4], edx
	mov	DWORD PTR [esp], eax
	call	_purple_conv_chat_write
LVL664:
	jmp	L386
LVL665:
L452:
	.loc 1 923 0
	call	___stack_chk_fail
LVL666:
	.cfi_endproc
LFE101:
	.section .rdata,"dr"
LC43:
	.ascii "quit\0"
	.data
	.align 4
LC129:
	.long	LC19
	.long	LC43
	.long	0
	.text
	.p2align 2,,3
	.globl	_tcl_cmd_core
	.def	_tcl_cmd_core;	.scl	2;	.type	32;	.endef
_tcl_cmd_core:
LFB102:
	.loc 1 926 0
	.cfi_startproc
LVL667:
	push	ebp
LCFI77:
	.cfi_def_cfa_offset 8
	.cfi_offset 5, -8
	push	edi
LCFI78:
	.cfi_def_cfa_offset 12
	.cfi_offset 7, -12
	push	esi
LCFI79:
	.cfi_def_cfa_offset 16
	.cfi_offset 6, -16
	push	ebx
LCFI80:
	.cfi_def_cfa_offset 20
	.cfi_offset 3, -20
	sub	esp, 92
LCFI81:
	.cfi_def_cfa_offset 112
	mov	ebp, DWORD PTR [esp+116]
	mov	edx, DWORD PTR [esp+120]
	mov	ebx, DWORD PTR [esp+124]
	.loc 1 926 0
	mov	eax, DWORD PTR ___stack_chk_guard
	mov	DWORD PTR [esp+76], eax
	xor	eax, eax
	.loc 1 927 0
	lea	eax, [esp+64]
	mov	esi, OFFSET FLAT:LC129
	mov	ecx, 3
	mov	edi, eax
	rep movsd
	.loc 1 931 0
	cmp	edx, 1
	jle	L465
	.loc 1 936 0
	lea	ecx, [esp+60]
	mov	DWORD PTR [esp+20], ecx
	mov	DWORD PTR [esp+16], 0
	mov	DWORD PTR [esp+12], OFFSET FLAT:LC84
	mov	DWORD PTR [esp+8], eax
	mov	eax, DWORD PTR [ebx+4]
	mov	DWORD PTR [esp+4], eax
	mov	DWORD PTR [esp], ebp
	mov	eax, DWORD PTR _tclStubsPtr
	mov	DWORD PTR [esp+44], edx
	call	[DWORD PTR [eax+152]]
LVL668:
	mov	esi, eax
LVL669:
	test	eax, eax
	mov	edx, DWORD PTR [esp+44]
	jne	L457
LVL670:
	.loc 1 939 0
	mov	eax, DWORD PTR [esp+60]
LVL671:
	test	eax, eax
	jne	L466
	.loc 1 941 0
	cmp	edx, 2
	je	L460
L464:
	.loc 1 951 0
	mov	DWORD PTR [esp+12], OFFSET FLAT:LC80
	mov	DWORD PTR [esp+8], ebx
	mov	DWORD PTR [esp+4], 2
	mov	DWORD PTR [esp], ebp
	mov	eax, DWORD PTR _tclStubsPtr
	call	[DWORD PTR [eax+1064]]
LVL672:
	.loc 1 952 0
	mov	esi, 1
LVL673:
L457:
	.loc 1 959 0
	mov	eax, esi
	mov	edx, DWORD PTR [esp+76]
	xor	edx, DWORD PTR ___stack_chk_guard
	jne	L467
	add	esp, 92
LCFI82:
	.cfi_remember_state
	.cfi_def_cfa_offset 20
	pop	ebx
LCFI83:
	.cfi_restore 3
	.cfi_def_cfa_offset 16
	pop	esi
LCFI84:
	.cfi_restore 6
	.cfi_def_cfa_offset 12
	pop	edi
LCFI85:
	.cfi_restore 7
	.cfi_def_cfa_offset 8
	pop	ebp
LCFI86:
	.cfi_restore 5
	.cfi_def_cfa_offset 4
	ret
LVL674:
	.p2align 2,,3
L466:
LCFI87:
	.cfi_restore_state
	.loc 1 939 0
	dec	eax
LVL675:
	jne	L457
	.loc 1 950 0
	cmp	edx, 2
	jne	L464
	.loc 1 954 0
	call	_purple_core_quit
LVL676:
	.loc 1 955 0
	jmp	L457
LVL677:
	.p2align 2,,3
L465:
	.loc 1 932 0
	mov	DWORD PTR [esp+12], OFFSET FLAT:LC83
	mov	DWORD PTR [esp+8], ebx
	mov	DWORD PTR [esp+4], 1
	mov	DWORD PTR [esp], ebp
	mov	eax, DWORD PTR _tclStubsPtr
	call	[DWORD PTR [eax+1064]]
LVL678:
	.loc 1 933 0
	mov	esi, 1
	jmp	L457
LVL679:
	.p2align 2,,3
L460:
	.loc 1 945 0
	mov	eax, DWORD PTR _tclStubsPtr
LVL680:
	mov	ebx, DWORD PTR [eax+948]
	.loc 1 947 0
	call	_purple_get_core
LVL681:
	.loc 1 945 0
	mov	DWORD PTR [esp+4], eax
	mov	eax, DWORD PTR _PurpleTclRefHandle
	mov	DWORD PTR [esp], eax
	call	_purple_tcl_ref_new
LVL682:
	mov	DWORD PTR [esp+4], eax
	mov	DWORD PTR [esp], ebp
	call	ebx
LVL683:
	.loc 1 948 0
	jmp	L457
LVL684:
L467:
	.loc 1 959 0
	call	___stack_chk_fail
LVL685:
	.cfi_endproc
LFE102:
	.section .rdata,"dr"
LC131:
	.ascii "level category message\0"
LC132:
	.ascii "debug level\0"
LC133:
	.ascii "%s\12\0"
LC40:
	.ascii "-misc\0"
LC37:
	.ascii "-info\0"
LC36:
	.ascii "-warning\0"
LC35:
	.ascii "-error\0"
	.data
	.align 4
LC130:
	.long	LC40
	.long	LC37
	.long	LC36
	.long	LC35
	.long	0
	.align 4
LC42:
	.long	1
	.long	2
	.long	3
	.long	4
	.text
	.p2align 2,,3
	.globl	_tcl_cmd_debug
	.def	_tcl_cmd_debug;	.scl	2;	.type	32;	.endef
_tcl_cmd_debug:
LFB103:
	.loc 1 962 0
	.cfi_startproc
LVL686:
	push	edi
LCFI88:
	.cfi_def_cfa_offset 8
	.cfi_offset 7, -8
	push	esi
LCFI89:
	.cfi_def_cfa_offset 12
	.cfi_offset 6, -12
	push	ebx
LCFI90:
	.cfi_def_cfa_offset 16
	.cfi_offset 3, -16
	sub	esp, 80
LCFI91:
	.cfi_def_cfa_offset 96
	mov	edx, DWORD PTR [esp+100]
	mov	ebx, DWORD PTR [esp+108]
	.loc 1 962 0
	mov	eax, DWORD PTR ___stack_chk_guard
	mov	DWORD PTR [esp+76], eax
	xor	eax, eax
	.loc 1 965 0
	lea	eax, [esp+56]
	mov	esi, OFFSET FLAT:LC130
	mov	ecx, 5
	mov	edi, eax
	rep movsd
	.loc 1 966 0
	lea	edi, [esp+40]
	mov	esi, OFFSET FLAT:LC42
	mov	cl, 4
	rep movsd
	.loc 1 969 0
	cmp	DWORD PTR [esp+104], 4
	je	L469
	.loc 1 970 0
	mov	DWORD PTR [esp+12], OFFSET FLAT:LC131
	mov	DWORD PTR [esp+8], ebx
	mov	DWORD PTR [esp+4], 1
	mov	DWORD PTR [esp], edx
	mov	eax, DWORD PTR _tclStubsPtr
	call	[DWORD PTR [eax+1064]]
LVL687:
	.loc 1 971 0
	mov	esi, 1
LVL688:
L470:
	.loc 1 984 0
	mov	eax, esi
	mov	edx, DWORD PTR [esp+76]
	xor	edx, DWORD PTR ___stack_chk_guard
	jne	L473
	add	esp, 80
LCFI92:
	.cfi_remember_state
	.cfi_def_cfa_offset 16
	pop	ebx
LCFI93:
	.cfi_restore 3
	.cfi_def_cfa_offset 12
	pop	esi
LCFI94:
	.cfi_restore 6
	.cfi_def_cfa_offset 8
	pop	edi
LCFI95:
	.cfi_restore 7
	.cfi_def_cfa_offset 4
	ret
LVL689:
	.p2align 2,,3
L469:
LCFI96:
	.cfi_restore_state
	.loc 1 974 0
	lea	ecx, [esp+36]
	mov	DWORD PTR [esp+20], ecx
	mov	DWORD PTR [esp+16], 0
	mov	DWORD PTR [esp+12], OFFSET FLAT:LC132
	mov	DWORD PTR [esp+8], eax
	mov	eax, DWORD PTR [ebx+4]
	mov	DWORD PTR [esp+4], eax
	mov	DWORD PTR [esp], edx
	mov	eax, DWORD PTR _tclStubsPtr
	call	[DWORD PTR [eax+152]]
LVL690:
	mov	esi, eax
LVL691:
	.loc 1 975 0
	test	eax, eax
	jne	L470
	.loc 1 978 0
	mov	eax, DWORD PTR [ebx+8]
LVL692:
	mov	DWORD PTR [esp], eax
	mov	eax, DWORD PTR _tclStubsPtr
	call	[DWORD PTR [eax+1368]]
LVL693:
	mov	edi, eax
LVL694:
	.loc 1 979 0
	mov	eax, DWORD PTR [ebx+12]
LVL695:
	mov	DWORD PTR [esp], eax
	mov	eax, DWORD PTR _tclStubsPtr
	call	[DWORD PTR [eax+1368]]
LVL696:
	.loc 1 981 0
	mov	DWORD PTR [esp+12], eax
	mov	DWORD PTR [esp+8], OFFSET FLAT:LC133
	mov	DWORD PTR [esp+4], edi
LVL697:
	mov	eax, DWORD PTR [esp+36]
LVL698:
	mov	eax, DWORD PTR [esp+40+eax*4]
	mov	DWORD PTR [esp], eax
	call	_purple_debug
LVL699:
	jmp	L470
LVL700:
L473:
	.loc 1 984 0
	call	___stack_chk_fail
LVL701:
	.cfi_endproc
LFE103:
	.section .rdata,"dr"
	.align 4
LC135:
	.ascii "?type? title primary secondary\0"
LC136:
	.ascii "message type\0"
	.data
	.align 4
LC134:
	.long	LC35
	.long	LC36
	.long	LC37
	.long	0
	.align 4
LC39:
	.long	0
	.long	1
	.long	2
	.text
	.p2align 2,,3
	.globl	_tcl_cmd_notify
	.def	_tcl_cmd_notify;	.scl	2;	.type	32;	.endef
_tcl_cmd_notify:
LFB104:
	.loc 1 987 0
	.cfi_startproc
LVL702:
	push	ebp
LCFI97:
	.cfi_def_cfa_offset 8
	.cfi_offset 5, -8
	push	edi
LCFI98:
	.cfi_def_cfa_offset 12
	.cfi_offset 7, -12
	push	esi
LCFI99:
	.cfi_def_cfa_offset 16
	.cfi_offset 6, -16
	push	ebx
LCFI100:
	.cfi_def_cfa_offset 20
	.cfi_offset 3, -20
	sub	esp, 92
LCFI101:
	.cfi_def_cfa_offset 112
	mov	ebp, DWORD PTR [esp+116]
	mov	edx, DWORD PTR [esp+120]
	mov	ebx, DWORD PTR [esp+124]
	.loc 1 987 0
	mov	eax, DWORD PTR ___stack_chk_guard
	mov	DWORD PTR [esp+76], eax
	xor	eax, eax
	.loc 1 989 0
	lea	eax, [esp+60]
	mov	esi, OFFSET FLAT:LC134
	mov	ecx, 4
	mov	edi, eax
	rep movsd
	.loc 1 990 0
	lea	edi, [esp+48]
	mov	esi, OFFSET FLAT:LC39
	mov	cl, 3
	rep movsd
	.loc 1 993 0
	lea	ecx, [edx-4]
	cmp	ecx, 1
	ja	L481
	.loc 1 998 0
	cmp	edx, 4
	je	L482
	.loc 1 1004 0
	lea	edx, [esp+44]
	mov	DWORD PTR [esp+20], edx
	mov	DWORD PTR [esp+16], 0
	mov	DWORD PTR [esp+12], OFFSET FLAT:LC136
	mov	DWORD PTR [esp+8], eax
	mov	eax, DWORD PTR [ebx+4]
	mov	DWORD PTR [esp+4], eax
	mov	DWORD PTR [esp], ebp
	mov	eax, DWORD PTR _tclStubsPtr
	call	[DWORD PTR [eax+152]]
LVL703:
	.loc 1 1005 0
	test	eax, eax
	je	L483
LVL704:
L476:
	.loc 1 1015 0
	mov	edx, DWORD PTR [esp+76]
	xor	edx, DWORD PTR ___stack_chk_guard
	jne	L484
	add	esp, 92
LCFI102:
	.cfi_remember_state
	.cfi_def_cfa_offset 20
	pop	ebx
LCFI103:
	.cfi_restore 3
	.cfi_def_cfa_offset 16
	pop	esi
LCFI104:
	.cfi_restore 6
	.cfi_def_cfa_offset 12
	pop	edi
LCFI105:
	.cfi_restore 7
	.cfi_def_cfa_offset 8
	pop	ebp
LCFI106:
	.cfi_restore 5
	.cfi_def_cfa_offset 4
	ret
LVL705:
	.p2align 2,,3
L481:
LCFI107:
	.cfi_restore_state
	.loc 1 994 0
	mov	DWORD PTR [esp+12], OFFSET FLAT:LC135
	mov	DWORD PTR [esp+8], ebx
	mov	DWORD PTR [esp+4], 1
	mov	DWORD PTR [esp], ebp
	mov	eax, DWORD PTR _tclStubsPtr
	call	[DWORD PTR [eax+1064]]
LVL706:
	.loc 1 995 0
	mov	eax, 1
	jmp	L476
	.p2align 2,,3
L482:
	.loc 1 999 0
	mov	DWORD PTR [esp+44], 1
LVL707:
	.loc 1 1000 0
	mov	eax, DWORD PTR [ebx+4]
	mov	DWORD PTR [esp], eax
	mov	eax, DWORD PTR _tclStubsPtr
	call	[DWORD PTR [eax+1368]]
LVL708:
	mov	esi, eax
LVL709:
	.loc 1 1001 0
	mov	eax, DWORD PTR [ebx+8]
LVL710:
	mov	DWORD PTR [esp], eax
	mov	eax, DWORD PTR _tclStubsPtr
	call	[DWORD PTR [eax+1368]]
LVL711:
	mov	edi, eax
LVL712:
	.loc 1 1002 0
	mov	eax, DWORD PTR [ebx+12]
LVL713:
	mov	DWORD PTR [esp], eax
	mov	eax, DWORD PTR _tclStubsPtr
	call	[DWORD PTR [eax+1368]]
LVL714:
L478:
	.loc 1 1012 0
	mov	DWORD PTR [esp+24], 0
	mov	DWORD PTR [esp+20], 0
	mov	DWORD PTR [esp+16], eax
	mov	DWORD PTR [esp+12], edi
	mov	DWORD PTR [esp+8], esi
	mov	eax, DWORD PTR [esp+44]
LVL715:
	mov	eax, DWORD PTR [esp+48+eax*4]
	mov	DWORD PTR [esp+4], eax
	mov	eax, DWORD PTR __tcl_plugin
	mov	DWORD PTR [esp], eax
	call	_purple_notify_message
LVL716:
	.loc 1 1014 0
	xor	eax, eax
	jmp	L476
LVL717:
	.p2align 2,,3
L483:
	.loc 1 1007 0
	mov	eax, DWORD PTR [ebx+8]
LVL718:
	mov	DWORD PTR [esp], eax
	mov	eax, DWORD PTR _tclStubsPtr
	call	[DWORD PTR [eax+1368]]
LVL719:
	mov	esi, eax
LVL720:
	.loc 1 1008 0
	mov	eax, DWORD PTR [ebx+12]
LVL721:
	mov	DWORD PTR [esp], eax
	mov	eax, DWORD PTR _tclStubsPtr
	call	[DWORD PTR [eax+1368]]
LVL722:
	mov	edi, eax
LVL723:
	.loc 1 1009 0
	mov	eax, DWORD PTR [ebx+16]
LVL724:
	mov	DWORD PTR [esp], eax
	mov	eax, DWORD PTR _tclStubsPtr
	call	[DWORD PTR [eax+1368]]
LVL725:
	jmp	L478
LVL726:
L484:
	.loc 1 1015 0
	call	___stack_chk_fail
LVL727:
	.cfi_endproc
LFE104:
	.p2align 2,,3
	.globl	_tcl_cmd_plugins
	.def	_tcl_cmd_plugins;	.scl	2;	.type	32;	.endef
_tcl_cmd_plugins:
LFB105:
	.loc 1 1018 0
	.cfi_startproc
LVL728:
	push	ebp
LCFI108:
	.cfi_def_cfa_offset 8
	.cfi_offset 5, -8
	push	edi
LCFI109:
	.cfi_def_cfa_offset 12
	.cfi_offset 7, -12
	push	esi
LCFI110:
	.cfi_def_cfa_offset 16
	.cfi_offset 6, -16
	push	ebx
LCFI111:
	.cfi_def_cfa_offset 20
	.cfi_offset 3, -20
	sub	esp, 60
LCFI112:
	.cfi_def_cfa_offset 80
	mov	edi, DWORD PTR [esp+84]
	mov	esi, DWORD PTR [esp+88]
	mov	ebp, DWORD PTR [esp+92]
	.loc 1 1018 0
	mov	eax, DWORD PTR ___stack_chk_guard
	mov	DWORD PTR [esp+44], eax
	xor	eax, eax
	.loc 1 1019 0
	mov	DWORD PTR [esp+36], OFFSET FLAT:LC19
	mov	DWORD PTR [esp+40], 0
	.loc 1 1023 0
	cmp	esi, 1
	jle	L492
	.loc 1 1028 0
	lea	eax, [esp+32]
	mov	DWORD PTR [esp+20], eax
	mov	DWORD PTR [esp+16], 0
	mov	DWORD PTR [esp+12], OFFSET FLAT:LC84
	lea	eax, [esp+36]
	mov	DWORD PTR [esp+8], eax
	mov	eax, DWORD PTR [ebp+4]
	mov	DWORD PTR [esp+4], eax
	mov	DWORD PTR [esp], edi
	mov	eax, DWORD PTR _tclStubsPtr
	call	[DWORD PTR [eax+152]]
LVL729:
	mov	ebx, eax
LVL730:
	test	eax, eax
	jne	L487
LVL731:
	.loc 1 1031 0
	mov	eax, DWORD PTR [esp+32]
LVL732:
	test	eax, eax
	jne	L487
	.loc 1 1033 0
	cmp	esi, 2
	je	L489
	.loc 1 1034 0
	mov	DWORD PTR [esp+12], OFFSET FLAT:LC80
	mov	DWORD PTR [esp+8], ebp
	mov	DWORD PTR [esp+4], 2
	mov	DWORD PTR [esp], edi
	mov	eax, DWORD PTR _tclStubsPtr
	call	[DWORD PTR [eax+1064]]
LVL733:
	.loc 1 1035 0
	mov	bl, 1
LVL734:
	.p2align 2,,3
L487:
	.loc 1 1044 0
	mov	eax, ebx
	mov	edx, DWORD PTR [esp+44]
	xor	edx, DWORD PTR ___stack_chk_guard
	jne	L493
	add	esp, 60
LCFI113:
	.cfi_remember_state
	.cfi_def_cfa_offset 20
	pop	ebx
LCFI114:
	.cfi_restore 3
	.cfi_def_cfa_offset 16
	pop	esi
LCFI115:
	.cfi_restore 6
	.cfi_def_cfa_offset 12
	pop	edi
LCFI116:
	.cfi_restore 7
	.cfi_def_cfa_offset 8
	pop	ebp
LCFI117:
	.cfi_restore 5
	.cfi_def_cfa_offset 4
	ret
LVL735:
	.p2align 2,,3
L489:
LCFI118:
	.cfi_restore_state
	.loc 1 1037 0
	mov	eax, DWORD PTR _tclStubsPtr
	mov	esi, DWORD PTR [eax+948]
	call	_purple_plugins_get_handle
LVL736:
	mov	DWORD PTR [esp+4], eax
	mov	eax, DWORD PTR _PurpleTclRefHandle
	mov	DWORD PTR [esp], eax
	call	_purple_tcl_ref_new
LVL737:
	mov	DWORD PTR [esp+4], eax
	mov	DWORD PTR [esp], edi
	call	esi
LVL738:
	.loc 1 1040 0
	jmp	L487
LVL739:
	.p2align 2,,3
L492:
	.loc 1 1024 0
	mov	DWORD PTR [esp+12], OFFSET FLAT:LC83
	mov	DWORD PTR [esp+8], ebp
	mov	DWORD PTR [esp+4], 1
	mov	DWORD PTR [esp], edi
	mov	eax, DWORD PTR _tclStubsPtr
	call	[DWORD PTR [eax+1064]]
LVL740:
	.loc 1 1025 0
	mov	ebx, 1
	jmp	L487
LVL741:
L493:
	.loc 1 1044 0
	call	___stack_chk_fail
LVL742:
	.cfi_endproc
LFE105:
	.section .rdata,"dr"
LC138:
	.ascii "path\0"
LC139:
	.ascii "pref type none\0"
	.align 4
LC140:
	.ascii "tcl does not know about pref type %d\12\0"
LC141:
	.ascii "unknown pref type\0"
LC142:
	.ascii "path value\0"
LC143:
	.ascii "bad path or pref type none\0"
LC144:
	.ascii "none\0"
LC145:
	.ascii "boolean\0"
LC146:
	.ascii "int\0"
LC147:
	.ascii "string\0"
LC148:
	.ascii "stringlist\0"
LC149:
	.ascii "unknown\0"
LC32:
	.ascii "get\0"
LC33:
	.ascii "set\0"
LC13:
	.ascii "type\0"
	.data
	.align 4
LC137:
	.long	LC32
	.long	LC33
	.long	LC13
	.long	0
	.text
	.p2align 2,,3
	.globl	_tcl_cmd_prefs
	.def	_tcl_cmd_prefs;	.scl	2;	.type	32;	.endef
_tcl_cmd_prefs:
LFB106:
	.loc 1 1047 0
	.cfi_startproc
LVL743:
	push	ebp
LCFI119:
	.cfi_def_cfa_offset 8
	.cfi_offset 5, -8
	push	edi
LCFI120:
	.cfi_def_cfa_offset 12
	.cfi_offset 7, -12
	push	esi
LCFI121:
	.cfi_def_cfa_offset 16
	.cfi_offset 6, -16
	push	ebx
LCFI122:
	.cfi_def_cfa_offset 20
	.cfi_offset 3, -20
	sub	esp, 92
LCFI123:
	.cfi_def_cfa_offset 112
	mov	ebp, DWORD PTR [esp+116]
	mov	edx, DWORD PTR [esp+120]
	mov	ebx, DWORD PTR [esp+124]
	.loc 1 1047 0
	mov	eax, DWORD PTR ___stack_chk_guard
	mov	DWORD PTR [esp+76], eax
	xor	eax, eax
	.loc 1 1049 0
	lea	eax, [esp+60]
	mov	esi, OFFSET FLAT:LC137
	mov	ecx, 4
	mov	edi, eax
	rep movsd
	.loc 1 1057 0
	cmp	edx, 1
	jle	L539
	.loc 1 1062 0
	lea	ecx, [esp+52]
	mov	DWORD PTR [esp+20], ecx
	mov	DWORD PTR [esp+16], 0
	mov	DWORD PTR [esp+12], OFFSET FLAT:LC84
	mov	DWORD PTR [esp+8], eax
	mov	eax, DWORD PTR [ebx+4]
	mov	DWORD PTR [esp+4], eax
	mov	DWORD PTR [esp], ebp
	mov	eax, DWORD PTR _tclStubsPtr
	mov	DWORD PTR [esp+44], edx
	call	[DWORD PTR [eax+152]]
LVL744:
	mov	esi, eax
LVL745:
	test	eax, eax
	mov	edx, DWORD PTR [esp+44]
	jne	L496
LVL746:
	.loc 1 1065 0
	mov	eax, DWORD PTR [esp+52]
LVL747:
	cmp	eax, 1
	je	L498
	jb	L497
	cmp	eax, 2
	jne	L496
	.loc 1 1148 0
	cmp	edx, 3
	je	L521
L538:
	.loc 1 1068 0
	mov	DWORD PTR [esp+12], OFFSET FLAT:LC138
LVL748:
L535:
	mov	DWORD PTR [esp+8], ebx
	mov	DWORD PTR [esp+4], 1
	mov	DWORD PTR [esp], ebp
	mov	eax, DWORD PTR _tclStubsPtr
	call	[DWORD PTR [eax+1064]]
LVL749:
	.loc 1 1069 0
	mov	esi, 1
LVL750:
L496:
	.loc 1 1177 0
	mov	eax, esi
	mov	edx, DWORD PTR [esp+76]
	xor	edx, DWORD PTR ___stack_chk_guard
	jne	L540
	add	esp, 92
LCFI124:
	.cfi_remember_state
	.cfi_def_cfa_offset 20
	pop	ebx
LCFI125:
	.cfi_restore 3
	.cfi_def_cfa_offset 16
	pop	esi
LCFI126:
	.cfi_restore 6
	.cfi_def_cfa_offset 12
	pop	edi
LCFI127:
	.cfi_restore 7
	.cfi_def_cfa_offset 8
	pop	ebp
LCFI128:
	.cfi_restore 5
	.cfi_def_cfa_offset 4
	ret
LVL751:
	.p2align 2,,3
L497:
LCFI129:
	.cfi_restore_state
	.loc 1 1067 0
	cmp	edx, 3
	jne	L538
	.loc 1 1071 0
	mov	eax, DWORD PTR [ebx+8]
LVL752:
	mov	DWORD PTR [esp], eax
	mov	eax, DWORD PTR _tclStubsPtr
	call	[DWORD PTR [eax+1368]]
LVL753:
	mov	DWORD PTR [esp], eax
	call	_purple_prefs_get_type
LVL754:
	.loc 1 1072 0
	cmp	eax, 4
	jbe	L541
	.loc 1 1101 0
	mov	DWORD PTR [esp+12], eax
	mov	DWORD PTR [esp+8], OFFSET FLAT:LC140
	mov	DWORD PTR [esp+4], OFFSET FLAT:LC110
	mov	DWORD PTR [esp], 4
	call	_purple_debug
LVL755:
	.loc 1 1102 0
	mov	eax, DWORD PTR _tclStubsPtr
	mov	ebx, DWORD PTR [eax+948]
	mov	DWORD PTR [esp+4], -1
	mov	DWORD PTR [esp], OFFSET FLAT:LC141
L536:
	.loc 1 1115 0
	call	[DWORD PTR [eax+232]]
LVL756:
	mov	DWORD PTR [esp+4], eax
	mov	DWORD PTR [esp], ebp
	call	ebx
LVL757:
	.loc 1 1117 0
	mov	esi, 1
LVL758:
	jmp	L496
LVL759:
	.p2align 2,,3
L539:
	.loc 1 1058 0
	mov	DWORD PTR [esp+12], OFFSET FLAT:LC83
	jmp	L535
LVL760:
	.p2align 2,,3
L498:
	.loc 1 1108 0
	cmp	edx, 4
	je	L511
	.loc 1 1109 0
	mov	DWORD PTR [esp+12], OFFSET FLAT:LC142
	jmp	L535
	.p2align 2,,3
L521:
	.loc 1 1152 0
	mov	eax, DWORD PTR [ebx+8]
LVL761:
	mov	DWORD PTR [esp], eax
	mov	eax, DWORD PTR _tclStubsPtr
	call	[DWORD PTR [eax+1368]]
LVL762:
	mov	DWORD PTR [esp], eax
	call	_purple_prefs_get_type
LVL763:
	.loc 1 1153 0
	cmp	eax, 4
	jbe	L542
	.loc 1 1170 0
	mov	DWORD PTR [esp+12], eax
	mov	DWORD PTR [esp+8], OFFSET FLAT:LC140
	mov	DWORD PTR [esp+4], OFFSET FLAT:LC110
	mov	DWORD PTR [esp], 4
	call	_purple_debug
LVL764:
	.loc 1 1171 0
	mov	eax, DWORD PTR _tclStubsPtr
	mov	ebx, DWORD PTR [eax+948]
	mov	DWORD PTR [esp+4], -1
	mov	DWORD PTR [esp], OFFSET FLAT:LC149
	call	[DWORD PTR [eax+232]]
LVL765:
	mov	DWORD PTR [esp+4], eax
	mov	DWORD PTR [esp], ebp
	call	ebx
LVL766:
	jmp	L496
LVL767:
	.p2align 2,,3
L511:
	.loc 1 1112 0
	mov	eax, DWORD PTR [ebx+8]
LVL768:
	mov	DWORD PTR [esp], eax
	mov	eax, DWORD PTR _tclStubsPtr
	call	[DWORD PTR [eax+1368]]
LVL769:
	mov	DWORD PTR [esp], eax
	call	_purple_prefs_get_type
LVL770:
	.loc 1 1113 0
	cmp	eax, 4
	jbe	L543
	.loc 1 1143 0
	mov	DWORD PTR [esp+12], eax
	mov	DWORD PTR [esp+8], OFFSET FLAT:LC140
	mov	DWORD PTR [esp+4], OFFSET FLAT:LC110
	mov	DWORD PTR [esp], 4
	call	_purple_debug
LVL771:
	.loc 1 1144 0
	mov	esi, 1
LVL772:
	jmp	L496
LVL773:
	.p2align 2,,3
L541:
	.loc 1 1072 0
	jmp	[DWORD PTR L507[0+eax*4]]
	.section .rdata,"dr"
	.align 4
L507:
	.long	L502
	.long	L503
	.long	L504
	.long	L505
	.long	L506
	.text
L505:
	.loc 1 1087 0
	mov	eax, DWORD PTR _tclStubsPtr
LVL774:
	mov	edi, DWORD PTR [eax+948]
	.loc 1 1088 0
	mov	edx, DWORD PTR [eax+232]
	mov	ecx, DWORD PTR [ebx+8]
	mov	DWORD PTR [esp], ecx
	mov	DWORD PTR [esp+44], edx
	call	[DWORD PTR [eax+1368]]
LVL775:
	.loc 1 1087 0
	mov	DWORD PTR [esp], eax
	call	_purple_prefs_get_string
LVL776:
	mov	DWORD PTR [esp+4], -1
	mov	DWORD PTR [esp], eax
	mov	edx, DWORD PTR [esp+44]
	call	edx
LVL777:
	mov	DWORD PTR [esp+4], eax
	mov	DWORD PTR [esp], ebp
	call	edi
LVL778:
	.loc 1 1089 0
	jmp	L496
LVL779:
L504:
	.loc 1 1084 0
	mov	eax, DWORD PTR _tclStubsPtr
LVL780:
	mov	edi, DWORD PTR [eax+948]
	mov	edx, DWORD PTR [eax+216]
	mov	ecx, DWORD PTR [ebx+8]
	mov	DWORD PTR [esp], ecx
	mov	DWORD PTR [esp+44], edx
	call	[DWORD PTR [eax+1368]]
LVL781:
	mov	DWORD PTR [esp], eax
	call	_purple_prefs_get_int
LVL782:
L537:
	mov	DWORD PTR [esp], eax
	mov	edx, DWORD PTR [esp+44]
	call	edx
LVL783:
	mov	DWORD PTR [esp+4], eax
	mov	DWORD PTR [esp], ebp
	call	edi
LVL784:
	.loc 1 1085 0
	jmp	L496
LVL785:
L503:
	.loc 1 1079 0
	mov	eax, DWORD PTR _tclStubsPtr
LVL786:
	mov	edi, DWORD PTR [eax+948]
	.loc 1 1080 0
	mov	edx, DWORD PTR [eax+204]
	.loc 1 1081 0
	mov	ecx, DWORD PTR [ebx+8]
	mov	DWORD PTR [esp], ecx
	mov	DWORD PTR [esp+44], edx
	call	[DWORD PTR [eax+1368]]
LVL787:
	.loc 1 1079 0
	mov	DWORD PTR [esp], eax
	call	_purple_prefs_get_bool
LVL788:
	jmp	L537
LVL789:
L502:
	.loc 1 1074 0
	mov	eax, DWORD PTR _tclStubsPtr
LVL790:
	mov	ebx, DWORD PTR [eax+948]
	mov	DWORD PTR [esp+4], -1
	mov	DWORD PTR [esp], OFFSET FLAT:LC139
	jmp	L536
LVL791:
L506:
	.loc 1 1091 0
	mov	eax, DWORD PTR [ebx+8]
LVL792:
	mov	DWORD PTR [esp], eax
	mov	eax, DWORD PTR _tclStubsPtr
	call	[DWORD PTR [eax+1368]]
LVL793:
	mov	DWORD PTR [esp], eax
	call	_purple_prefs_get_string_list
LVL794:
	mov	ebx, eax
LVL795:
	.loc 1 1092 0
	mov	DWORD PTR [esp+4], 0
	mov	DWORD PTR [esp], 0
	mov	eax, DWORD PTR _tclStubsPtr
LVL796:
	call	[DWORD PTR [eax+220]]
LVL797:
	mov	edi, eax
LVL798:
	.loc 1 1093 0
	test	ebx, ebx
	je	L510
LVL799:
	.p2align 2,,3
L531:
	.loc 1 1094 0
	mov	DWORD PTR [esp+4], -1
	mov	eax, DWORD PTR [ebx]
	mov	DWORD PTR [esp], eax
	mov	eax, DWORD PTR _tclStubsPtr
	call	[DWORD PTR [eax+232]]
LVL800:
	.loc 1 1095 0
	mov	DWORD PTR [esp+8], eax
	mov	DWORD PTR [esp+4], edi
	mov	DWORD PTR [esp], ebp
	mov	eax, DWORD PTR _tclStubsPtr
LVL801:
	call	[DWORD PTR [eax+184]]
LVL802:
	.loc 1 1096 0
	mov	ebx, DWORD PTR [ebx+4]
LVL803:
	.loc 1 1093 0
	test	ebx, ebx
	jne	L531
L510:
	.loc 1 1098 0
	mov	DWORD PTR [esp+4], edi
	mov	DWORD PTR [esp], ebp
	mov	eax, DWORD PTR _tclStubsPtr
	call	[DWORD PTR [eax+948]]
LVL804:
	.loc 1 1099 0
	jmp	L496
LVL805:
	.p2align 2,,3
L543:
	.loc 1 1113 0
	jmp	[DWORD PTR L518[0+eax*4]]
	.section .rdata,"dr"
	.align 4
L518:
	.long	L513
	.long	L514
	.long	L515
	.long	L516
	.long	L517
	.text
L516:
	.loc 1 1130 0
	mov	eax, DWORD PTR [ebx+12]
LVL806:
	mov	DWORD PTR [esp], eax
	mov	eax, DWORD PTR _tclStubsPtr
	call	[DWORD PTR [eax+1368]]
LVL807:
	mov	edi, eax
	mov	eax, DWORD PTR [ebx+8]
	mov	DWORD PTR [esp], eax
	mov	eax, DWORD PTR _tclStubsPtr
	call	[DWORD PTR [eax+1368]]
LVL808:
	mov	DWORD PTR [esp+4], edi
	mov	DWORD PTR [esp], eax
	call	_purple_prefs_set_string
LVL809:
	.loc 1 1131 0
	jmp	L496
LVL810:
L515:
	.loc 1 1125 0
	lea	eax, [esp+56]
LVL811:
	mov	DWORD PTR [esp+8], eax
	mov	eax, DWORD PTR [ebx+12]
	mov	DWORD PTR [esp+4], eax
	mov	DWORD PTR [esp], ebp
	mov	eax, DWORD PTR _tclStubsPtr
	call	[DWORD PTR [eax+160]]
LVL812:
	mov	esi, eax
LVL813:
	test	eax, eax
	jne	L496
LVL814:
	.loc 1 1127 0
	mov	edi, DWORD PTR [esp+56]
	mov	eax, DWORD PTR [ebx+8]
LVL815:
	mov	DWORD PTR [esp], eax
	mov	eax, DWORD PTR _tclStubsPtr
	call	[DWORD PTR [eax+1368]]
LVL816:
	mov	DWORD PTR [esp+4], edi
	mov	DWORD PTR [esp], eax
	call	_purple_prefs_set_int
LVL817:
	.loc 1 1128 0
	jmp	L496
LVL818:
L514:
	.loc 1 1120 0
	lea	eax, [esp+56]
LVL819:
	mov	DWORD PTR [esp+8], eax
	mov	eax, DWORD PTR [ebx+12]
	mov	DWORD PTR [esp+4], eax
	mov	DWORD PTR [esp], ebp
	mov	eax, DWORD PTR _tclStubsPtr
	call	[DWORD PTR [eax+136]]
LVL820:
	mov	esi, eax
LVL821:
	test	eax, eax
	jne	L496
LVL822:
	.loc 1 1122 0
	mov	edi, DWORD PTR [esp+56]
	mov	eax, DWORD PTR [ebx+8]
LVL823:
	mov	DWORD PTR [esp], eax
	mov	eax, DWORD PTR _tclStubsPtr
	call	[DWORD PTR [eax+1368]]
LVL824:
	mov	DWORD PTR [esp+4], edi
	mov	DWORD PTR [esp], eax
	call	_purple_prefs_set_bool
LVL825:
	.loc 1 1123 0
	jmp	L496
LVL826:
L513:
	.loc 1 1115 0
	mov	eax, DWORD PTR _tclStubsPtr
LVL827:
	mov	ebx, DWORD PTR [eax+948]
	mov	DWORD PTR [esp+4], -1
	mov	DWORD PTR [esp], OFFSET FLAT:LC143
	jmp	L536
LVL828:
L517:
	.loc 1 1133 0
	lea	eax, [esp+48]
LVL829:
	mov	DWORD PTR [esp+12], eax
	lea	eax, [esp+56]
	mov	DWORD PTR [esp+8], eax
	mov	eax, DWORD PTR [ebx+12]
	mov	DWORD PTR [esp+4], eax
	mov	DWORD PTR [esp], ebp
	mov	eax, DWORD PTR _tclStubsPtr
	call	[DWORD PTR [eax+188]]
LVL830:
	mov	esi, eax
LVL831:
	test	eax, eax
	jne	L496
LVL832:
	.loc 1 1136 0 discriminator 1
	mov	eax, DWORD PTR [esp+56]
LVL833:
	test	eax, eax
	jle	L530
	.loc 1 1136 0 is_stmt 0
	xor	edi, edi
	xor	ebp, ebp
LVL834:
	.p2align 2,,3
L520:
	.loc 1 1137 0 is_stmt 1 discriminator 2
	mov	eax, DWORD PTR [esp+48]
	mov	eax, DWORD PTR [eax+edi*4]
	mov	DWORD PTR [esp], eax
	mov	eax, DWORD PTR _tclStubsPtr
	call	[DWORD PTR [eax+1368]]
LVL835:
	mov	DWORD PTR [esp+4], eax
	mov	DWORD PTR [esp], ebp
	call	_g_list_append
LVL836:
	mov	ebp, eax
LVL837:
	.loc 1 1136 0 discriminator 2
	inc	edi
LVL838:
	cmp	DWORD PTR [esp+56], edi
	jg	L520
LVL839:
L519:
	.loc 1 1139 0
	mov	eax, DWORD PTR [ebx+8]
	mov	DWORD PTR [esp], eax
	mov	eax, DWORD PTR _tclStubsPtr
	call	[DWORD PTR [eax+1368]]
LVL840:
	mov	DWORD PTR [esp+4], ebp
	mov	DWORD PTR [esp], eax
	call	_purple_prefs_set_string_list
LVL841:
	.loc 1 1140 0
	mov	DWORD PTR [esp], ebp
	call	_g_list_free
LVL842:
	.loc 1 1141 0
	jmp	L496
LVL843:
	.p2align 2,,3
L542:
	.loc 1 1153 0
	jmp	[DWORD PTR L528[0+eax*4]]
	.section .rdata,"dr"
	.align 4
L528:
	.long	L523
	.long	L524
	.long	L525
	.long	L526
	.long	L527
	.text
L526:
	.loc 1 1164 0
	mov	eax, DWORD PTR _tclStubsPtr
LVL844:
	mov	ebx, DWORD PTR [eax+948]
	mov	DWORD PTR [esp+4], -1
	mov	DWORD PTR [esp], OFFSET FLAT:LC147
	call	[DWORD PTR [eax+232]]
LVL845:
	mov	DWORD PTR [esp+4], eax
	mov	DWORD PTR [esp], ebp
	call	ebx
LVL846:
	.loc 1 1165 0
	jmp	L496
LVL847:
L525:
	.loc 1 1161 0
	mov	eax, DWORD PTR _tclStubsPtr
LVL848:
	mov	ebx, DWORD PTR [eax+948]
	mov	DWORD PTR [esp+4], -1
	mov	DWORD PTR [esp], OFFSET FLAT:LC146
	call	[DWORD PTR [eax+232]]
LVL849:
	mov	DWORD PTR [esp+4], eax
	mov	DWORD PTR [esp], ebp
	call	ebx
LVL850:
	.loc 1 1162 0
	jmp	L496
LVL851:
L524:
	.loc 1 1158 0
	mov	eax, DWORD PTR _tclStubsPtr
LVL852:
	mov	ebx, DWORD PTR [eax+948]
	mov	DWORD PTR [esp+4], -1
	mov	DWORD PTR [esp], OFFSET FLAT:LC145
	call	[DWORD PTR [eax+232]]
LVL853:
	mov	DWORD PTR [esp+4], eax
	mov	DWORD PTR [esp], ebp
	call	ebx
LVL854:
	.loc 1 1159 0
	jmp	L496
LVL855:
L523:
	.loc 1 1155 0
	mov	eax, DWORD PTR _tclStubsPtr
LVL856:
	mov	ebx, DWORD PTR [eax+948]
	mov	DWORD PTR [esp+4], -1
	mov	DWORD PTR [esp], OFFSET FLAT:LC144
	call	[DWORD PTR [eax+232]]
LVL857:
	mov	DWORD PTR [esp+4], eax
	mov	DWORD PTR [esp], ebp
	call	ebx
LVL858:
	.loc 1 1156 0
	jmp	L496
LVL859:
L527:
	.loc 1 1167 0
	mov	eax, DWORD PTR _tclStubsPtr
LVL860:
	mov	ebx, DWORD PTR [eax+948]
	mov	DWORD PTR [esp+4], -1
	mov	DWORD PTR [esp], OFFSET FLAT:LC148
	call	[DWORD PTR [eax+232]]
LVL861:
	mov	DWORD PTR [esp+4], eax
	mov	DWORD PTR [esp], ebp
	call	ebx
LVL862:
	.loc 1 1168 0
	jmp	L496
LVL863:
L540:
	.loc 1 1177 0
	call	___stack_chk_fail
LVL864:
L530:
	.loc 1 1136 0
	xor	ebp, ebp
	jmp	L519
	.cfi_endproc
LFE106:
	.section .rdata,"dr"
	.align 4
LC151:
	.ascii "presence [?status_id? | ?-primitive primitive?]\0"
LC152:
	.ascii "invalid primitive \0"
LC153:
	.ascii "unset\0"
LC154:
	.ascii "presence ?idle? ?time?\0"
LC155:
	.ascii "presence ?time?\0"
LC156:
	.ascii "presence status_id\0"
LC22:
	.ascii "active_status\0"
LC2:
	.ascii "available\0"
LC23:
	.ascii "chat_user\0"
LC24:
	.ascii "context\0"
LC26:
	.ascii "idle\0"
LC27:
	.ascii "login\0"
LC28:
	.ascii "online\0"
LC30:
	.ascii "statuses\0"
	.data
	.align 32
LC150:
	.long	LC21
	.long	LC22
	.long	LC2
	.long	LC23
	.long	LC24
	.long	LC25
	.long	LC26
	.long	LC27
	.long	LC28
	.long	LC29
	.long	LC30
	.long	0
	.text
	.p2align 2,,3
	.globl	_tcl_cmd_presence
	.def	_tcl_cmd_presence;	.scl	2;	.type	32;	.endef
_tcl_cmd_presence:
LFB107:
	.loc 1 1180 0
	.cfi_startproc
LVL865:
	push	ebp
LCFI130:
	.cfi_def_cfa_offset 8
	.cfi_offset 5, -8
	push	edi
LCFI131:
	.cfi_def_cfa_offset 12
	.cfi_offset 7, -12
	push	esi
LCFI132:
	.cfi_def_cfa_offset 16
	.cfi_offset 6, -16
	push	ebx
LCFI133:
	.cfi_def_cfa_offset 20
	.cfi_offset 3, -20
	sub	esp, 124
LCFI134:
	.cfi_def_cfa_offset 144
	mov	ebp, DWORD PTR [esp+148]
	mov	edx, DWORD PTR [esp+152]
	mov	DWORD PTR [esp+40], edx
	mov	ebx, DWORD PTR [esp+156]
	.loc 1 1180 0
	mov	eax, DWORD PTR ___stack_chk_guard
	mov	DWORD PTR [esp+108], eax
	xor	eax, eax
	.loc 1 1181 0
	lea	eax, [esp+60]
	mov	esi, OFFSET FLAT:LC150
	mov	ecx, 12
	mov	edi, eax
	rep movsd
	.loc 1 1195 0
	dec	edx
	jle	L637
	.loc 1 1200 0
	lea	edx, [esp+48]
	mov	DWORD PTR [esp+20], edx
	mov	DWORD PTR [esp+16], 0
	mov	DWORD PTR [esp+12], OFFSET FLAT:LC84
	mov	DWORD PTR [esp+8], eax
	mov	eax, DWORD PTR [ebx+4]
	mov	DWORD PTR [esp+4], eax
	mov	DWORD PTR [esp], ebp
	mov	eax, DWORD PTR _tclStubsPtr
	call	[DWORD PTR [eax+152]]
LVL866:
	mov	edx, eax
LVL867:
	test	eax, eax
	jne	L546
LVL868:
	.loc 1 1203 0
	cmp	DWORD PTR [esp+48], 10
	ja	L546
	mov	eax, DWORD PTR [esp+48]
LVL869:
	jmp	[DWORD PTR L558[0+eax*4]]
	.section .rdata,"dr"
	.align 4
L558:
	.long	L547
	.long	L548
	.long	L549
	.long	L550
	.long	L551
	.long	L552
	.long	L553
	.long	L554
	.long	L555
	.long	L556
	.long	L557
	.text
	.p2align 2,,3
L553:
	.loc 1 1306 0
	mov	eax, DWORD PTR [esp+40]
	sub	eax, 3
	cmp	eax, 2
	ja	L638
	.loc 1 1310 0
	mov	eax, DWORD PTR _PurpleTclRefPresence
	mov	DWORD PTR [esp+8], eax
	mov	eax, DWORD PTR [ebx+8]
	mov	DWORD PTR [esp+4], eax
	mov	DWORD PTR [esp], ebp
	mov	DWORD PTR [esp+36], edx
	call	_purple_tcl_ref_get
LVL870:
	mov	esi, eax
LVL871:
	test	eax, eax
	je	L634
	.loc 1 1312 0
	cmp	DWORD PTR [esp+40], 3
	je	L639
	.loc 1 1322 0
	lea	eax, [esp+52]
LVL872:
	mov	DWORD PTR [esp+8], eax
	mov	eax, DWORD PTR [ebx+12]
	mov	DWORD PTR [esp+4], eax
	mov	DWORD PTR [esp], ebp
	mov	eax, DWORD PTR _tclStubsPtr
	call	[DWORD PTR [eax+136]]
LVL873:
	mov	edx, eax
LVL874:
	test	eax, eax
	jne	L634
	.loc 1 1324 0
	cmp	DWORD PTR [esp+40], 4
	je	L640
	.loc 1 1326 0
	cmp	DWORD PTR [esp+40], 5
	jne	L546
	.loc 1 1327 0
	lea	eax, [esp+56]
LVL875:
	mov	DWORD PTR [esp+8], eax
	mov	eax, DWORD PTR [ebx+16]
	mov	DWORD PTR [esp+4], eax
	mov	DWORD PTR [esp], ebp
	mov	eax, DWORD PTR _tclStubsPtr
	call	[DWORD PTR [eax+160]]
LVL876:
	mov	edx, eax
LVL877:
	test	eax, eax
	jne	L634
LVL878:
	.loc 1 1331 0
	mov	eax, DWORD PTR [esp+56]
LVL879:
	mov	DWORD PTR [esp+8], eax
LVL880:
	mov	eax, DWORD PTR [esp+52]
	mov	DWORD PTR [esp+4], eax
	mov	DWORD PTR [esp], esi
	mov	DWORD PTR [esp+36], edx
	call	_purple_presence_set_idle
LVL881:
	mov	edx, DWORD PTR [esp+36]
LVL882:
	.p2align 2,,3
L546:
	.loc 1 1392 0
	mov	eax, edx
	mov	edx, DWORD PTR [esp+108]
	xor	edx, DWORD PTR ___stack_chk_guard
	jne	L641
	add	esp, 124
LCFI135:
	.cfi_remember_state
	.cfi_def_cfa_offset 20
	pop	ebx
LCFI136:
	.cfi_restore 3
	.cfi_def_cfa_offset 16
	pop	esi
LCFI137:
	.cfi_restore 6
	.cfi_def_cfa_offset 12
	pop	edi
LCFI138:
	.cfi_restore 7
	.cfi_def_cfa_offset 8
	pop	ebp
LCFI139:
	.cfi_restore 5
	.cfi_def_cfa_offset 4
	ret
LVL883:
	.p2align 2,,3
L637:
LCFI140:
	.cfi_restore_state
	.loc 1 1196 0
	mov	DWORD PTR [esp+12], OFFSET FLAT:LC83
	mov	DWORD PTR [esp+8], ebx
	mov	DWORD PTR [esp+4], 1
	mov	DWORD PTR [esp], ebp
	mov	eax, DWORD PTR _tclStubsPtr
	call	[DWORD PTR [eax+1064]]
LVL884:
	.loc 1 1197 0
	mov	edx, 1
	jmp	L546
LVL885:
	.p2align 2,,3
L556:
	.loc 1 1363 0
	cmp	DWORD PTR [esp+40], 4
	je	L583
	.loc 1 1364 0
	mov	DWORD PTR [esp+12], OFFSET FLAT:LC156
	.p2align 2,,3
L629:
	.loc 1 1216 0
	mov	DWORD PTR [esp+8], ebx
	mov	DWORD PTR [esp+4], 2
	mov	DWORD PTR [esp], ebp
	mov	eax, DWORD PTR _tclStubsPtr
	call	[DWORD PTR [eax+1064]]
LVL886:
L634:
	.loc 1 1217 0
	mov	edx, 1
	jmp	L546
LVL887:
	.p2align 2,,3
L557:
	.loc 1 1375 0
	cmp	DWORD PTR [esp+40], 3
	je	L584
	.p2align 2,,3
L636:
	.loc 1 1376 0
	mov	DWORD PTR [esp+12], OFFSET FLAT:LC69
	jmp	L629
	.p2align 2,,3
L547:
	.loc 1 1205 0
	cmp	DWORD PTR [esp+40], 3
	jne	L636
	.loc 1 1209 0
	mov	eax, DWORD PTR _PurpleTclRefPresence
LVL888:
	mov	DWORD PTR [esp+8], eax
	mov	eax, DWORD PTR [ebx+8]
	mov	DWORD PTR [esp+4], eax
	mov	DWORD PTR [esp], ebp
	mov	DWORD PTR [esp+36], edx
	call	_purple_tcl_ref_get
LVL889:
	test	eax, eax
	mov	edx, DWORD PTR [esp+36]
	je	L634
	.loc 1 1211 0
	mov	ecx, DWORD PTR _tclStubsPtr
	mov	ebx, DWORD PTR [ecx+948]
	.loc 1 1212 0
	mov	DWORD PTR [esp], eax
	mov	DWORD PTR [esp+36], edx
	call	_purple_presence_get_account
LVL890:
	.loc 1 1211 0
	mov	DWORD PTR [esp+4], eax
	mov	eax, DWORD PTR _PurpleTclRefAccount
L630:
	.loc 1 1222 0
	mov	DWORD PTR [esp], eax
	call	_purple_tcl_ref_new
LVL891:
	mov	DWORD PTR [esp+4], eax
	mov	DWORD PTR [esp], ebp
	call	ebx
LVL892:
	mov	edx, DWORD PTR [esp+36]
	jmp	L546
LVL893:
	.p2align 2,,3
L548:
	.loc 1 1215 0
	mov	eax, DWORD PTR [esp+40]
LVL894:
	sub	eax, 3
	cmp	eax, 1
	jbe	L561
	.loc 1 1215 0 is_stmt 0 discriminator 1
	cmp	DWORD PTR [esp+40], 5
	jne	L642
	.loc 1 1219 0 is_stmt 1
	mov	eax, DWORD PTR _PurpleTclRefPresence
	mov	DWORD PTR [esp+8], eax
	mov	eax, DWORD PTR [ebx+8]
	mov	DWORD PTR [esp+4], eax
	mov	DWORD PTR [esp], ebp
	mov	DWORD PTR [esp+36], edx
	call	_purple_tcl_ref_get
LVL895:
	mov	DWORD PTR [esp+44], eax
LVL896:
	test	eax, eax
	mov	edx, DWORD PTR [esp+36]
	je	L634
L565:
LBB28:
	.loc 1 1232 0
	mov	eax, DWORD PTR [ebx+12]
LVL897:
	mov	DWORD PTR [esp], eax
	mov	eax, DWORD PTR _tclStubsPtr
	mov	DWORD PTR [esp+36], edx
	call	[DWORD PTR [eax+1368]]
LVL898:
	mov	edi, OFFSET FLAT:LC95
	mov	ecx, 11
	mov	esi, eax
	repe cmpsb
	mov	edx, DWORD PTR [esp+36]
	jne	L643
	.loc 1 1240 0
	mov	eax, DWORD PTR [ebx+16]
	mov	DWORD PTR [esp], eax
	mov	eax, DWORD PTR _tclStubsPtr
	mov	DWORD PTR [esp+36], edx
	call	[DWORD PTR [eax+1368]]
LVL899:
	mov	DWORD PTR [esp], eax
	call	_purple_primitive_get_type_from_id
LVL900:
	.loc 1 1241 0
	test	eax, eax
	mov	edx, DWORD PTR [esp+36]
	jne	L567
	.loc 1 1242 0
	mov	DWORD PTR [esp+4], -1
	mov	DWORD PTR [esp], OFFSET FLAT:LC152
	mov	eax, DWORD PTR _tclStubsPtr
LVL901:
	call	[DWORD PTR [eax+232]]
LVL902:
	mov	esi, eax
LVL903:
	.loc 1 1243 0
	mov	eax, DWORD PTR [ebx+16]
LVL904:
	mov	DWORD PTR [esp+4], eax
	mov	DWORD PTR [esp], esi
	mov	eax, DWORD PTR _tclStubsPtr
	call	[DWORD PTR [eax+1152]]
LVL905:
L632:
	.loc 1 1244 0
	mov	DWORD PTR [esp+4], esi
	mov	DWORD PTR [esp], ebp
	mov	eax, DWORD PTR _tclStubsPtr
	call	[DWORD PTR [eax+948]]
LVL906:
	.loc 1 1245 0
	mov	edx, 1
	jmp	L546
LVL907:
	.p2align 2,,3
L549:
LBE28:
	.loc 1 1254 0
	cmp	DWORD PTR [esp+40], 3
	jne	L636
	.loc 1 1258 0
	mov	eax, DWORD PTR _PurpleTclRefPresence
LVL908:
	mov	DWORD PTR [esp+8], eax
	mov	eax, DWORD PTR [ebx+8]
	mov	DWORD PTR [esp+4], eax
	mov	DWORD PTR [esp], ebp
	mov	DWORD PTR [esp+36], edx
	call	_purple_tcl_ref_get
LVL909:
	test	eax, eax
	je	L634
	.loc 1 1260 0
	mov	ecx, DWORD PTR _tclStubsPtr
	mov	ebx, DWORD PTR [ecx+948]
	.loc 1 1261 0
	mov	esi, DWORD PTR [ecx+204]
	.loc 1 1260 0
	mov	DWORD PTR [esp], eax
	call	_purple_presence_is_available
LVL910:
L633:
	mov	DWORD PTR [esp], eax
	call	esi
LVL911:
	mov	DWORD PTR [esp+4], eax
	mov	DWORD PTR [esp], ebp
	call	ebx
LVL912:
	.loc 1 1262 0
	mov	edx, DWORD PTR [esp+36]
	jmp	L546
LVL913:
	.p2align 2,,3
L550:
	.loc 1 1264 0
	cmp	DWORD PTR [esp+40], 3
	jne	L636
	.loc 1 1268 0
	mov	eax, DWORD PTR _PurpleTclRefPresence
LVL914:
	mov	DWORD PTR [esp+8], eax
	mov	eax, DWORD PTR [ebx+8]
	mov	DWORD PTR [esp+4], eax
	mov	DWORD PTR [esp], ebp
	mov	DWORD PTR [esp+36], edx
	call	_purple_tcl_ref_get
LVL915:
	test	eax, eax
	je	L634
	.loc 1 1270 0
	mov	ecx, DWORD PTR _tclStubsPtr
	mov	ebx, DWORD PTR [ecx+948]
	.loc 1 1271 0
	mov	esi, DWORD PTR [ecx+232]
	.loc 1 1270 0
	mov	DWORD PTR [esp], eax
	call	_purple_presence_get_chat_user
LVL916:
	mov	DWORD PTR [esp+4], -1
	mov	DWORD PTR [esp], eax
	call	esi
LVL917:
	mov	DWORD PTR [esp+4], eax
	mov	DWORD PTR [esp], ebp
	call	ebx
LVL918:
	.loc 1 1272 0
	mov	edx, DWORD PTR [esp+36]
	jmp	L546
LVL919:
	.p2align 2,,3
L551:
	.loc 1 1274 0
	cmp	DWORD PTR [esp+40], 3
	jne	L636
	.loc 1 1278 0
	mov	eax, DWORD PTR _PurpleTclRefPresence
LVL920:
	mov	DWORD PTR [esp+8], eax
	mov	eax, DWORD PTR [ebx+8]
	mov	DWORD PTR [esp+4], eax
	mov	DWORD PTR [esp], ebp
	mov	DWORD PTR [esp+36], edx
	call	_purple_tcl_ref_get
LVL921:
	test	eax, eax
	je	L634
	.loc 1 1280 0
	mov	DWORD PTR [esp], eax
	call	_purple_presence_get_context
LVL922:
	cmp	eax, 1
	mov	edx, DWORD PTR [esp+36]
	je	L572
	jae	L644
	.loc 1 1282 0
	mov	eax, DWORD PTR _tclStubsPtr
	mov	ebx, DWORD PTR [eax+948]
	mov	DWORD PTR [esp+4], -1
	mov	DWORD PTR [esp], OFFSET FLAT:LC153
L631:
	.loc 1 1291 0
	mov	DWORD PTR [esp+36], edx
	call	[DWORD PTR [eax+232]]
LVL923:
	mov	DWORD PTR [esp+4], eax
	mov	DWORD PTR [esp], ebp
	call	ebx
LVL924:
	.loc 1 1292 0
	mov	edx, DWORD PTR [esp+36]
	jmp	L546
LVL925:
	.p2align 2,,3
L552:
	.loc 1 1296 0
	cmp	DWORD PTR [esp+40], 3
	jne	L636
	.loc 1 1300 0
	mov	eax, DWORD PTR _PurpleTclRefPresence
LVL926:
	mov	DWORD PTR [esp+8], eax
	mov	eax, DWORD PTR [ebx+8]
	mov	DWORD PTR [esp+4], eax
	mov	DWORD PTR [esp], ebp
	mov	DWORD PTR [esp+36], edx
	call	_purple_tcl_ref_get
LVL927:
	test	eax, eax
	je	L634
	.loc 1 1302 0
	mov	ecx, DWORD PTR _tclStubsPtr
	mov	ebx, DWORD PTR [ecx+948]
	.loc 1 1303 0
	mov	DWORD PTR [esp], eax
	call	_purple_presence_get_conversation
LVL928:
	.loc 1 1302 0
	mov	DWORD PTR [esp+4], eax
	mov	eax, DWORD PTR _PurpleTclRefConversation
	jmp	L630
LVL929:
	.p2align 2,,3
L554:
	.loc 1 1335 0
	mov	eax, DWORD PTR [esp+40]
LVL930:
	sub	eax, 3
	cmp	eax, 1
	jbe	L580
	.loc 1 1336 0
	mov	DWORD PTR [esp+12], OFFSET FLAT:LC155
	jmp	L629
LVL931:
	.p2align 2,,3
L555:
	.loc 1 1352 0
	cmp	DWORD PTR [esp+40], 3
	jne	L636
	.loc 1 1356 0
	mov	eax, DWORD PTR _PurpleTclRefPresence
LVL932:
	mov	DWORD PTR [esp+8], eax
	mov	eax, DWORD PTR [ebx+8]
	mov	DWORD PTR [esp+4], eax
	mov	DWORD PTR [esp], ebp
	mov	DWORD PTR [esp+36], edx
	call	_purple_tcl_ref_get
LVL933:
	test	eax, eax
	je	L634
	.loc 1 1358 0
	mov	ecx, DWORD PTR _tclStubsPtr
	mov	ebx, DWORD PTR [ecx+948]
	.loc 1 1359 0
	mov	esi, DWORD PTR [ecx+204]
	.loc 1 1358 0
	mov	DWORD PTR [esp], eax
	call	_purple_presence_is_online
LVL934:
	jmp	L633
LVL935:
L561:
	.loc 1 1219 0
	mov	eax, DWORD PTR _PurpleTclRefPresence
	mov	DWORD PTR [esp+8], eax
	mov	eax, DWORD PTR [ebx+8]
	mov	DWORD PTR [esp+4], eax
	mov	DWORD PTR [esp], ebp
	mov	DWORD PTR [esp+36], edx
	call	_purple_tcl_ref_get
LVL936:
	mov	DWORD PTR [esp+44], eax
LVL937:
	test	eax, eax
	mov	edx, DWORD PTR [esp+36]
	je	L634
	.loc 1 1221 0
	cmp	DWORD PTR [esp+40], 3
	je	L645
	.loc 1 1225 0
	cmp	DWORD PTR [esp+40], 4
	jne	L565
	.loc 1 1226 0
	mov	eax, DWORD PTR _tclStubsPtr
LVL938:
	mov	esi, DWORD PTR [eax+948]
	.loc 1 1227 0
	mov	edi, DWORD PTR [eax+204]
	.loc 1 1229 0
	mov	ecx, DWORD PTR [ebx+12]
	mov	DWORD PTR [esp], ecx
	mov	DWORD PTR [esp+36], edx
	call	[DWORD PTR [eax+1368]]
LVL939:
	.loc 1 1226 0
	mov	DWORD PTR [esp+4], eax
	mov	eax, DWORD PTR [esp+44]
	mov	DWORD PTR [esp], eax
	call	_purple_presence_is_status_active
LVL940:
	mov	DWORD PTR [esp], eax
	call	edi
LVL941:
	mov	DWORD PTR [esp+4], eax
	mov	DWORD PTR [esp], ebp
	call	esi
LVL942:
	mov	edx, DWORD PTR [esp+36]
	jmp	L546
LVL943:
L638:
	.loc 1 1307 0
	mov	DWORD PTR [esp+12], OFFSET FLAT:LC154
	jmp	L629
LVL944:
L583:
	.loc 1 1367 0
	mov	eax, DWORD PTR _PurpleTclRefPresence
LVL945:
	mov	DWORD PTR [esp+8], eax
	mov	eax, DWORD PTR [ebx+8]
	mov	DWORD PTR [esp+4], eax
	mov	DWORD PTR [esp], ebp
	mov	DWORD PTR [esp+36], edx
	call	_purple_tcl_ref_get
LVL946:
	mov	esi, eax
LVL947:
	test	eax, eax
	je	L634
	.loc 1 1369 0
	mov	eax, DWORD PTR _tclStubsPtr
LVL948:
	mov	edi, DWORD PTR [eax+948]
	.loc 1 1372 0
	mov	ecx, DWORD PTR [ebx+12]
	mov	DWORD PTR [esp], ecx
	call	[DWORD PTR [eax+1368]]
LVL949:
	.loc 1 1371 0
	mov	DWORD PTR [esp+4], eax
	mov	DWORD PTR [esp], esi
	call	_purple_presence_get_status
LVL950:
	.loc 1 1369 0
	mov	DWORD PTR [esp+4], eax
	mov	eax, DWORD PTR _PurpleTclRefStatus
	mov	DWORD PTR [esp], eax
	call	_purple_tcl_ref_new
LVL951:
	mov	DWORD PTR [esp+4], eax
	mov	DWORD PTR [esp], ebp
	call	edi
LVL952:
	.loc 1 1373 0
	mov	edx, DWORD PTR [esp+36]
	jmp	L546
LVL953:
L584:
	.loc 1 1379 0
	mov	eax, DWORD PTR _PurpleTclRefPresence
LVL954:
	mov	DWORD PTR [esp+8], eax
	mov	eax, DWORD PTR [ebx+8]
	mov	DWORD PTR [esp+4], eax
	mov	DWORD PTR [esp], ebp
	mov	DWORD PTR [esp+36], edx
	call	_purple_tcl_ref_get
LVL955:
	mov	ebx, eax
LVL956:
	test	eax, eax
	je	L634
	.loc 1 1381 0
	mov	DWORD PTR [esp+4], 0
	mov	DWORD PTR [esp], 0
	mov	eax, DWORD PTR _tclStubsPtr
LVL957:
	call	[DWORD PTR [eax+220]]
LVL958:
	mov	esi, eax
LVL959:
	.loc 1 1382 0
	mov	DWORD PTR [esp], ebx
	call	_purple_presence_get_statuses
LVL960:
	mov	ebx, eax
LVL961:
	test	eax, eax
	mov	edx, DWORD PTR [esp+36]
	je	L587
LVL962:
	.p2align 2,,3
L613:
	.loc 1 1384 0
	mov	eax, DWORD PTR [ebx]
	mov	DWORD PTR [esp+4], eax
	mov	eax, DWORD PTR _PurpleTclRefStatus
	mov	DWORD PTR [esp], eax
	mov	DWORD PTR [esp+36], edx
	call	_purple_tcl_ref_new
LVL963:
	.loc 1 1385 0
	mov	DWORD PTR [esp+8], eax
	mov	DWORD PTR [esp+4], esi
	mov	DWORD PTR [esp], ebp
	mov	eax, DWORD PTR _tclStubsPtr
LVL964:
	call	[DWORD PTR [eax+184]]
LVL965:
	.loc 1 1383 0
	mov	ebx, DWORD PTR [ebx+4]
LVL966:
	.loc 1 1382 0
	test	ebx, ebx
	mov	edx, DWORD PTR [esp+36]
	jne	L613
L587:
	.loc 1 1387 0
	mov	DWORD PTR [esp+4], esi
	mov	DWORD PTR [esp], ebp
	mov	eax, DWORD PTR _tclStubsPtr
	mov	DWORD PTR [esp+36], edx
	call	[DWORD PTR [eax+948]]
LVL967:
	.loc 1 1388 0
	mov	edx, DWORD PTR [esp+36]
	jmp	L546
LVL968:
L580:
	.loc 1 1339 0
	mov	eax, DWORD PTR _PurpleTclRefPresence
	mov	DWORD PTR [esp+8], eax
	mov	eax, DWORD PTR [ebx+8]
	mov	DWORD PTR [esp+4], eax
	mov	DWORD PTR [esp], ebp
	mov	DWORD PTR [esp+36], edx
	call	_purple_tcl_ref_get
LVL969:
	mov	esi, eax
LVL970:
	test	eax, eax
	mov	edx, DWORD PTR [esp+36]
	je	L634
	.loc 1 1341 0
	cmp	DWORD PTR [esp+40], 3
	je	L646
	.loc 1 1344 0
	lea	eax, [esp+56]
LVL971:
	mov	DWORD PTR [esp+8], eax
	mov	eax, DWORD PTR [ebx+12]
	mov	DWORD PTR [esp+4], eax
	mov	DWORD PTR [esp], ebp
	mov	eax, DWORD PTR _tclStubsPtr
	mov	DWORD PTR [esp+36], edx
	call	[DWORD PTR [eax+160]]
LVL972:
	test	eax, eax
	je	L634
LVL973:
	.loc 1 1348 0
	mov	eax, DWORD PTR [esp+56]
	mov	DWORD PTR [esp+4], eax
	mov	DWORD PTR [esp], esi
	call	_purple_presence_set_login_time
LVL974:
	mov	edx, DWORD PTR [esp+36]
	jmp	L546
LVL975:
L642:
	.loc 1 1216 0
	mov	DWORD PTR [esp+12], OFFSET FLAT:LC151
	jmp	L629
LVL976:
L643:
LBB29:
	.loc 1 1233 0
	mov	DWORD PTR [esp+4], -1
	mov	DWORD PTR [esp], OFFSET FLAT:LC96
	mov	eax, DWORD PTR _tclStubsPtr
	call	[DWORD PTR [eax+232]]
LVL977:
	mov	esi, eax
LVL978:
	.loc 1 1234 0
	mov	eax, DWORD PTR [ebx+12]
LVL979:
	mov	DWORD PTR [esp+4], eax
	mov	DWORD PTR [esp], esi
	mov	eax, DWORD PTR _tclStubsPtr
	call	[DWORD PTR [eax+1152]]
LVL980:
	.loc 1 1235 0
	mov	DWORD PTR [esp+8], -1
	mov	DWORD PTR [esp+4], OFFSET FLAT:LC97
	mov	DWORD PTR [esp], esi
	mov	eax, DWORD PTR _tclStubsPtr
	call	[DWORD PTR [eax+72]]
LVL981:
	jmp	L632
LVL982:
L639:
LBE29:
	.loc 1 1313 0
	mov	DWORD PTR [esp], eax
	call	_purple_presence_is_idle
LVL983:
	test	eax, eax
	mov	edx, DWORD PTR [esp+36]
	je	L578
	.loc 1 1314 0
	mov	DWORD PTR [esp], esi
	call	_purple_presence_get_idle_time
LVL984:
	mov	DWORD PTR [esp+56], eax
	.loc 1 1315 0
	mov	ecx, DWORD PTR _tclStubsPtr
	mov	ebx, DWORD PTR [ecx+948]
	mov	DWORD PTR [esp], eax
	call	[DWORD PTR [ecx+216]]
LVL985:
	mov	DWORD PTR [esp+4], eax
	mov	DWORD PTR [esp], ebp
	call	ebx
LVL986:
	mov	edx, DWORD PTR [esp+36]
	jmp	L546
LVL987:
L567:
LBB30:
	.loc 1 1247 0
	mov	ecx, DWORD PTR _tclStubsPtr
	mov	ebx, DWORD PTR [ecx+948]
	.loc 1 1248 0
	mov	esi, DWORD PTR [ecx+204]
	.loc 1 1247 0
	mov	DWORD PTR [esp+4], eax
	mov	eax, DWORD PTR [esp+44]
LVL988:
	mov	DWORD PTR [esp], eax
	mov	DWORD PTR [esp+36], edx
	call	_purple_presence_is_status_primitive_active
LVL989:
	jmp	L633
LVL990:
L644:
LBE30:
	.loc 1 1280 0
	cmp	eax, 2
	je	L573
	cmp	eax, 3
	jne	L546
	.loc 1 1291 0
	mov	eax, DWORD PTR _tclStubsPtr
	mov	ebx, DWORD PTR [eax+948]
	mov	DWORD PTR [esp+4], -1
	mov	DWORD PTR [esp], OFFSET FLAT:LC100
	jmp	L631
LVL991:
L578:
	.loc 1 1317 0
	mov	DWORD PTR [esp+4], 0
	mov	DWORD PTR [esp], 0
	mov	eax, DWORD PTR _tclStubsPtr
	mov	DWORD PTR [esp+36], edx
	call	[DWORD PTR [eax+220]]
LVL992:
	.loc 1 1318 0
	mov	DWORD PTR [esp+4], eax
	mov	DWORD PTR [esp], ebp
	mov	eax, DWORD PTR _tclStubsPtr
LVL993:
	call	[DWORD PTR [eax+948]]
LVL994:
	mov	edx, DWORD PTR [esp+36]
	jmp	L546
LVL995:
L646:
	.loc 1 1342 0
	mov	eax, DWORD PTR _tclStubsPtr
LVL996:
	mov	ebx, DWORD PTR [eax+948]
	mov	edi, DWORD PTR [eax+216]
	mov	DWORD PTR [esp], esi
	call	_purple_presence_get_login_time
LVL997:
	mov	DWORD PTR [esp], eax
	call	edi
LVL998:
	mov	DWORD PTR [esp+4], eax
	mov	DWORD PTR [esp], ebp
	call	ebx
LVL999:
	mov	edx, DWORD PTR [esp+36]
	jmp	L546
LVL1000:
L572:
	.loc 1 1285 0
	mov	eax, DWORD PTR _tclStubsPtr
	mov	ebx, DWORD PTR [eax+948]
	mov	DWORD PTR [esp+4], -1
	mov	DWORD PTR [esp], OFFSET FLAT:LC21
	jmp	L631
L573:
	.loc 1 1288 0
	mov	eax, DWORD PTR _tclStubsPtr
	mov	ebx, DWORD PTR [eax+948]
	mov	DWORD PTR [esp+4], -1
	mov	DWORD PTR [esp], OFFSET FLAT:LC25
	jmp	L631
LVL1001:
L645:
	.loc 1 1222 0
	mov	eax, DWORD PTR _tclStubsPtr
LVL1002:
	mov	ebx, DWORD PTR [eax+948]
	.loc 1 1224 0
	mov	eax, DWORD PTR [esp+44]
	mov	DWORD PTR [esp], eax
	call	_purple_presence_get_active_status
LVL1003:
	.loc 1 1222 0
	mov	DWORD PTR [esp+4], eax
	mov	eax, DWORD PTR _PurpleTclRefStatus
	jmp	L630
LVL1004:
L640:
	.loc 1 1325 0
	mov	DWORD PTR [esp], 0
	mov	DWORD PTR [esp+36], eax
	call	_time
LVL1005:
	mov	DWORD PTR [esp+8], eax
LVL1006:
	mov	eax, DWORD PTR [esp+52]
	mov	DWORD PTR [esp+4], eax
	mov	DWORD PTR [esp], esi
	call	_purple_presence_set_idle
LVL1007:
	mov	edx, DWORD PTR [esp+36]
	jmp	L546
LVL1008:
L641:
	.loc 1 1392 0
	call	___stack_chk_fail
LVL1009:
	.cfi_endproc
LFE107:
	.section .rdata,"dr"
LC18:
	.ascii "current\0"
	.data
	.align 4
LC157:
	.long	LC18
	.long	LC19
	.long	0
	.text
	.p2align 2,,3
	.globl	_tcl_cmd_savedstatus
	.def	_tcl_cmd_savedstatus;	.scl	2;	.type	32;	.endef
_tcl_cmd_savedstatus:
LFB108:
	.loc 1 1395 0
	.cfi_startproc
LVL1010:
	push	ebp
LCFI141:
	.cfi_def_cfa_offset 8
	.cfi_offset 5, -8
	push	edi
LCFI142:
	.cfi_def_cfa_offset 12
	.cfi_offset 7, -12
	push	esi
LCFI143:
	.cfi_def_cfa_offset 16
	.cfi_offset 6, -16
	push	ebx
LCFI144:
	.cfi_def_cfa_offset 20
	.cfi_offset 3, -20
	sub	esp, 92
LCFI145:
	.cfi_def_cfa_offset 112
	mov	ebp, DWORD PTR [esp+116]
	mov	edx, DWORD PTR [esp+120]
	mov	ebx, DWORD PTR [esp+124]
	.loc 1 1395 0
	mov	eax, DWORD PTR ___stack_chk_guard
	mov	DWORD PTR [esp+76], eax
	xor	eax, eax
	.loc 1 1397 0
	lea	eax, [esp+64]
	mov	esi, OFFSET FLAT:LC157
	mov	ecx, 3
	mov	edi, eax
	rep movsd
	.loc 1 1402 0
	cmp	edx, 1
	jle	L658
	.loc 1 1407 0
	lea	ecx, [esp+60]
	mov	DWORD PTR [esp+20], ecx
	mov	DWORD PTR [esp+16], 0
	mov	DWORD PTR [esp+12], OFFSET FLAT:LC84
	mov	DWORD PTR [esp+8], eax
	mov	eax, DWORD PTR [ebx+4]
	mov	DWORD PTR [esp+4], eax
	mov	DWORD PTR [esp], ebp
	mov	eax, DWORD PTR _tclStubsPtr
	mov	DWORD PTR [esp+40], edx
	call	[DWORD PTR [eax+152]]
LVL1011:
	mov	esi, eax
LVL1012:
	test	eax, eax
	mov	edx, DWORD PTR [esp+40]
	jne	L649
LVL1013:
	.loc 1 1410 0
	mov	eax, DWORD PTR [esp+60]
LVL1014:
	test	eax, eax
	jne	L659
	.loc 1 1412 0
	cmp	edx, 2
	je	L652
L657:
	.loc 1 1426 0
	mov	DWORD PTR [esp+12], OFFSET FLAT:LC80
	mov	DWORD PTR [esp+8], ebx
	mov	DWORD PTR [esp+4], 2
	mov	DWORD PTR [esp], ebp
	mov	eax, DWORD PTR _tclStubsPtr
	call	[DWORD PTR [eax+1064]]
LVL1015:
	.loc 1 1427 0
	mov	esi, 1
LVL1016:
L649:
	.loc 1 1436 0
	mov	eax, esi
	mov	edx, DWORD PTR [esp+76]
	xor	edx, DWORD PTR ___stack_chk_guard
	jne	L660
	add	esp, 92
LCFI146:
	.cfi_remember_state
	.cfi_def_cfa_offset 20
	pop	ebx
LCFI147:
	.cfi_restore 3
	.cfi_def_cfa_offset 16
	pop	esi
LCFI148:
	.cfi_restore 6
	.cfi_def_cfa_offset 12
	pop	edi
LCFI149:
	.cfi_restore 7
	.cfi_def_cfa_offset 8
	pop	ebp
LCFI150:
	.cfi_restore 5
	.cfi_def_cfa_offset 4
	ret
LVL1017:
	.p2align 2,,3
L659:
LCFI151:
	.cfi_restore_state
	.loc 1 1410 0
	dec	eax
LVL1018:
	jne	L649
	.loc 1 1425 0
	cmp	edx, 2
	jne	L657
	.loc 1 1429 0
	mov	eax, DWORD PTR _tclStubsPtr
	mov	ebx, DWORD PTR [eax+948]
	call	_purple_savedstatuses_get_handle
LVL1019:
	mov	DWORD PTR [esp+4], eax
	mov	eax, DWORD PTR _PurpleTclRefHandle
	mov	DWORD PTR [esp], eax
	call	_purple_tcl_ref_new
LVL1020:
	mov	DWORD PTR [esp+4], eax
	mov	DWORD PTR [esp], ebp
	call	ebx
LVL1021:
	.loc 1 1432 0
	jmp	L649
LVL1022:
	.p2align 2,,3
L652:
	.loc 1 1416 0
	call	_purple_savedstatus_get_current
LVL1023:
	mov	ebx, eax
LVL1024:
	test	eax, eax
	je	L655
	.loc 1 1418 0
	mov	DWORD PTR [esp+4], 0
	mov	DWORD PTR [esp], 0
	mov	eax, DWORD PTR _tclStubsPtr
LVL1025:
	call	[DWORD PTR [eax+220]]
LVL1026:
	mov	edi, eax
LVL1027:
	.loc 1 1419 0
	mov	eax, DWORD PTR _tclStubsPtr
LVL1028:
	mov	edx, DWORD PTR [eax+184]
	mov	ecx, DWORD PTR [eax+232]
	mov	DWORD PTR [esp], ebx
	mov	DWORD PTR [esp+40], edx
	mov	DWORD PTR [esp+44], ecx
	call	_purple_savedstatus_get_title
LVL1029:
	mov	DWORD PTR [esp+4], -1
	mov	DWORD PTR [esp], eax
	mov	ecx, DWORD PTR [esp+44]
	call	ecx
LVL1030:
	mov	DWORD PTR [esp+8], eax
	mov	DWORD PTR [esp+4], edi
	mov	DWORD PTR [esp], ebp
	mov	edx, DWORD PTR [esp+40]
	call	edx
LVL1031:
	.loc 1 1420 0
	mov	eax, DWORD PTR _tclStubsPtr
	mov	edx, DWORD PTR [eax+184]
	mov	ecx, DWORD PTR [eax+216]
	mov	DWORD PTR [esp], ebx
	mov	DWORD PTR [esp+40], edx
	mov	DWORD PTR [esp+44], ecx
	call	_purple_savedstatus_get_type
LVL1032:
	mov	DWORD PTR [esp], eax
	mov	ecx, DWORD PTR [esp+44]
	call	ecx
LVL1033:
	mov	DWORD PTR [esp+8], eax
	mov	DWORD PTR [esp+4], edi
	mov	DWORD PTR [esp], ebp
	mov	edx, DWORD PTR [esp+40]
	call	edx
LVL1034:
	.loc 1 1421 0
	mov	eax, DWORD PTR _tclStubsPtr
	mov	edx, DWORD PTR [eax+184]
	mov	ecx, DWORD PTR [eax+232]
	mov	DWORD PTR [esp], ebx
	mov	DWORD PTR [esp+40], edx
	mov	DWORD PTR [esp+44], ecx
	call	_purple_savedstatus_get_message
LVL1035:
	mov	DWORD PTR [esp+4], -1
	mov	DWORD PTR [esp], eax
	mov	ecx, DWORD PTR [esp+44]
	call	ecx
LVL1036:
	mov	DWORD PTR [esp+8], eax
	mov	DWORD PTR [esp+4], edi
	mov	DWORD PTR [esp], ebp
	mov	edx, DWORD PTR [esp+40]
	call	edx
LVL1037:
	.loc 1 1422 0
	mov	DWORD PTR [esp+4], edi
	mov	DWORD PTR [esp], ebp
	mov	eax, DWORD PTR _tclStubsPtr
	call	[DWORD PTR [eax+948]]
LVL1038:
	.loc 1 1423 0
	jmp	L649
LVL1039:
	.p2align 2,,3
L658:
	.loc 1 1403 0
	mov	DWORD PTR [esp+12], OFFSET FLAT:LC83
	mov	DWORD PTR [esp+8], ebx
	mov	DWORD PTR [esp+4], 1
	mov	DWORD PTR [esp], ebp
	mov	eax, DWORD PTR _tclStubsPtr
	call	[DWORD PTR [eax+1064]]
LVL1040:
	.loc 1 1404 0
	mov	esi, 1
	jmp	L649
LVL1041:
L655:
	.loc 1 1417 0
	mov	esi, 1
LVL1042:
	jmp	L649
LVL1043:
L660:
	.loc 1 1436 0
	call	___stack_chk_fail
LVL1044:
	.cfi_endproc
LFE108:
	.section .rdata,"dr"
LC158:
	.ascii "gc who text\0"
	.text
	.p2align 2,,3
	.globl	_tcl_cmd_send_im
	.def	_tcl_cmd_send_im;	.scl	2;	.type	32;	.endef
_tcl_cmd_send_im:
LFB109:
	.loc 1 1439 0
	.cfi_startproc
LVL1045:
	push	edi
LCFI152:
	.cfi_def_cfa_offset 8
	.cfi_offset 7, -8
	push	esi
LCFI153:
	.cfi_def_cfa_offset 12
	.cfi_offset 6, -12
	push	ebx
LCFI154:
	.cfi_def_cfa_offset 16
	.cfi_offset 3, -16
	sub	esp, 32
LCFI155:
	.cfi_def_cfa_offset 48
	mov	edx, DWORD PTR [esp+52]
	mov	ebx, DWORD PTR [esp+60]
	.loc 1 1439 0
	mov	eax, DWORD PTR ___stack_chk_guard
	mov	DWORD PTR [esp+28], eax
	xor	eax, eax
	.loc 1 1443 0
	cmp	DWORD PTR [esp+56], 4
	je	L662
	.loc 1 1444 0
	mov	DWORD PTR [esp+12], OFFSET FLAT:LC158
	mov	DWORD PTR [esp+8], ebx
	mov	DWORD PTR [esp+4], 1
	mov	DWORD PTR [esp], edx
	mov	eax, DWORD PTR _tclStubsPtr
	call	[DWORD PTR [eax+1064]]
LVL1046:
	.loc 1 1445 0
	mov	eax, 1
L663:
	.loc 1 1457 0
	mov	edx, DWORD PTR [esp+28]
	xor	edx, DWORD PTR ___stack_chk_guard
	jne	L667
	add	esp, 32
LCFI156:
	.cfi_remember_state
	.cfi_def_cfa_offset 16
	pop	ebx
LCFI157:
	.cfi_restore 3
	.cfi_def_cfa_offset 12
	pop	esi
LCFI158:
	.cfi_restore 6
	.cfi_def_cfa_offset 8
	pop	edi
LCFI159:
	.cfi_restore 7
	.cfi_def_cfa_offset 4
	ret
	.p2align 2,,3
L662:
LCFI160:
	.cfi_restore_state
	.loc 1 1448 0
	mov	eax, DWORD PTR [ebx+4]
	call	_tcl_validate_gc
LVL1047:
	mov	esi, eax
LVL1048:
	test	eax, eax
	je	L665
	.loc 1 1451 0
	mov	eax, DWORD PTR [ebx+8]
LVL1049:
	mov	DWORD PTR [esp], eax
	mov	eax, DWORD PTR _tclStubsPtr
	call	[DWORD PTR [eax+1368]]
LVL1050:
	mov	edi, eax
LVL1051:
	.loc 1 1452 0
	mov	eax, DWORD PTR [ebx+12]
LVL1052:
	mov	DWORD PTR [esp], eax
	mov	eax, DWORD PTR _tclStubsPtr
	call	[DWORD PTR [eax+1368]]
LVL1053:
	.loc 1 1454 0
	mov	DWORD PTR [esp+12], 0
	mov	DWORD PTR [esp+8], eax
	mov	DWORD PTR [esp+4], edi
	mov	DWORD PTR [esp], esi
	call	_serv_send_im
LVL1054:
	.loc 1 1456 0
	xor	eax, eax
	jmp	L663
LVL1055:
	.p2align 2,,3
L665:
	.loc 1 1449 0
	mov	eax, 1
LVL1056:
	jmp	L663
LVL1057:
L667:
	.loc 1 1457 0
	call	___stack_chk_fail
LVL1058:
	.cfi_endproc
LFE109:
	.section .rdata,"dr"
LC160:
	.ascii "instance signal args proc\0"
LC161:
	.ascii "instance signal\0"
	.data
	.align 4
LC159:
	.long	LC15
	.long	LC16
	.long	0
	.text
	.p2align 2,,3
	.globl	_tcl_cmd_signal
	.def	_tcl_cmd_signal;	.scl	2;	.type	32;	.endef
_tcl_cmd_signal:
LFB110:
	.loc 1 1460 0
	.cfi_startproc
LVL1059:
	push	ebp
LCFI161:
	.cfi_def_cfa_offset 8
	.cfi_offset 5, -8
	push	edi
LCFI162:
	.cfi_def_cfa_offset 12
	.cfi_offset 7, -12
	push	esi
LCFI163:
	.cfi_def_cfa_offset 16
	.cfi_offset 6, -16
	push	ebx
LCFI164:
	.cfi_def_cfa_offset 20
	.cfi_offset 3, -20
	sub	esp, 92
LCFI165:
	.cfi_def_cfa_offset 112
	mov	ebp, DWORD PTR [esp+116]
	mov	edx, DWORD PTR [esp+120]
	mov	ebx, DWORD PTR [esp+124]
	.loc 1 1460 0
	mov	eax, DWORD PTR ___stack_chk_guard
	mov	DWORD PTR [esp+76], eax
	xor	eax, eax
	.loc 1 1461 0
	lea	eax, [esp+64]
	mov	esi, OFFSET FLAT:LC159
	mov	ecx, 3
	mov	edi, eax
	rep movsd
	.loc 1 1467 0
	cmp	edx, 1
	jle	L683
	.loc 1 1472 0
	lea	ecx, [esp+60]
	mov	DWORD PTR [esp+20], ecx
	mov	DWORD PTR [esp+16], 0
	mov	DWORD PTR [esp+12], OFFSET FLAT:LC84
	mov	DWORD PTR [esp+8], eax
	mov	eax, DWORD PTR [ebx+4]
	mov	DWORD PTR [esp+4], eax
	mov	DWORD PTR [esp], ebp
	mov	eax, DWORD PTR _tclStubsPtr
	mov	DWORD PTR [esp+44], edx
	call	[DWORD PTR [eax+152]]
LVL1060:
	mov	esi, eax
LVL1061:
	test	eax, eax
	mov	edx, DWORD PTR [esp+44]
	jne	L670
LVL1062:
	.loc 1 1475 0
	mov	eax, DWORD PTR [esp+60]
LVL1063:
	test	eax, eax
	jne	L684
	.loc 1 1477 0
	cmp	edx, 6
	je	L673
	.loc 1 1478 0
	mov	DWORD PTR [esp+12], OFFSET FLAT:LC160
L682:
	.loc 1 1500 0
	mov	DWORD PTR [esp+8], ebx
	mov	DWORD PTR [esp+4], 2
	mov	DWORD PTR [esp], ebp
	mov	eax, DWORD PTR _tclStubsPtr
	call	[DWORD PTR [eax+1064]]
LVL1064:
	.loc 1 1501 0
	mov	esi, 1
LVL1065:
L670:
	.loc 1 1510 0
	mov	eax, esi
	mov	edx, DWORD PTR [esp+76]
	xor	edx, DWORD PTR ___stack_chk_guard
	jne	L685
	add	esp, 92
LCFI166:
	.cfi_remember_state
	.cfi_def_cfa_offset 20
	pop	ebx
LCFI167:
	.cfi_restore 3
	.cfi_def_cfa_offset 16
	pop	esi
LCFI168:
	.cfi_restore 6
	.cfi_def_cfa_offset 12
	pop	edi
LCFI169:
	.cfi_restore 7
	.cfi_def_cfa_offset 8
	pop	ebp
LCFI170:
	.cfi_restore 5
	.cfi_def_cfa_offset 4
	ret
LVL1066:
	.p2align 2,,3
L684:
LCFI171:
	.cfi_restore_state
	.loc 1 1475 0
	dec	eax
LVL1067:
	jne	L670
	.loc 1 1499 0
	cmp	edx, 4
	je	L676
	.loc 1 1500 0
	mov	DWORD PTR [esp+12], OFFSET FLAT:LC161
	jmp	L682
LVL1068:
	.p2align 2,,3
L673:
	.loc 1 1481 0
	mov	DWORD PTR [esp], 36
	call	_g_malloc0
LVL1069:
	mov	edi, eax
LVL1070:
	.loc 1 1482 0
	mov	eax, DWORD PTR _PurpleTclRefHandle
LVL1071:
	mov	DWORD PTR [esp+8], eax
	mov	eax, DWORD PTR [ebx+8]
	mov	DWORD PTR [esp+4], eax
	mov	DWORD PTR [esp], ebp
	call	_purple_tcl_ref_get
LVL1072:
	mov	DWORD PTR [edi+8], eax
	test	eax, eax
	je	L686
	.loc 1 1486 0
	mov	eax, DWORD PTR [ebx+12]
	mov	DWORD PTR [edi], eax
	.loc 1 1487 0
	inc	DWORD PTR [eax]
	.loc 1 1488 0
	mov	eax, DWORD PTR [ebx+16]
	mov	DWORD PTR [edi+16], eax
	.loc 1 1489 0
	mov	eax, DWORD PTR [ebx+20]
	mov	DWORD PTR [edi+20], eax
	.loc 1 1490 0
	mov	DWORD PTR [edi+4], ebp
	.loc 1 1491 0
	mov	DWORD PTR [esp], edi
	call	_tcl_signal_connect
LVL1073:
	test	eax, eax
	jne	L675
	.loc 1 1492 0
	mov	DWORD PTR [esp], edi
	call	_tcl_signal_handler_free
LVL1074:
	.loc 1 1493 0
	mov	eax, DWORD PTR _tclStubsPtr
	mov	ebx, DWORD PTR [eax+948]
	mov	DWORD PTR [esp], 1
	call	[DWORD PTR [eax+216]]
LVL1075:
	mov	DWORD PTR [esp+4], eax
	mov	DWORD PTR [esp], ebp
	call	ebx
LVL1076:
	jmp	L670
LVL1077:
	.p2align 2,,3
L683:
	.loc 1 1468 0
	mov	DWORD PTR [esp+12], OFFSET FLAT:LC83
	mov	DWORD PTR [esp+8], ebx
	mov	DWORD PTR [esp+4], 1
	mov	DWORD PTR [esp], ebp
	mov	eax, DWORD PTR _tclStubsPtr
	call	[DWORD PTR [eax+1064]]
LVL1078:
	.loc 1 1469 0
	mov	esi, 1
	jmp	L670
LVL1079:
	.p2align 2,,3
L676:
	.loc 1 1503 0
	mov	eax, DWORD PTR _PurpleTclRefHandle
	mov	DWORD PTR [esp+8], eax
	mov	eax, DWORD PTR [ebx+8]
	mov	DWORD PTR [esp+4], eax
	mov	DWORD PTR [esp], ebp
	call	_purple_tcl_ref_get
LVL1080:
	mov	edi, eax
LVL1081:
	test	eax, eax
	je	L670
	.loc 1 1505 0
	mov	eax, DWORD PTR [ebx+12]
LVL1082:
	mov	DWORD PTR [esp], eax
	mov	eax, DWORD PTR _tclStubsPtr
	call	[DWORD PTR [eax+1368]]
LVL1083:
	mov	DWORD PTR [esp+8], ebp
	mov	DWORD PTR [esp+4], eax
	mov	DWORD PTR [esp], edi
	call	_tcl_signal_disconnect
LVL1084:
	.loc 1 1506 0
	jmp	L670
LVL1085:
	.p2align 2,,3
L675:
	.loc 1 1495 0
	mov	eax, DWORD PTR _tclStubsPtr
	mov	ebx, DWORD PTR [eax+948]
	mov	DWORD PTR [esp], 0
	call	[DWORD PTR [eax+216]]
LVL1086:
	mov	DWORD PTR [esp+4], eax
	mov	DWORD PTR [esp], ebp
	call	ebx
LVL1087:
	jmp	L670
L686:
	.loc 1 1483 0
	mov	DWORD PTR [esp], edi
	call	_g_free
LVL1088:
	jmp	L670
LVL1089:
L685:
	.loc 1 1510 0
	call	___stack_chk_fail
LVL1090:
	.cfi_endproc
LFE110:
	.section .rdata,"dr"
LC163:
	.ascii "status attr_id ?value?\0"
LC164:
	.ascii "no such attribute\0"
LC165:
	.ascii "attribute has unknown type\0"
LC0:
	.ascii "attr\0"
	.data
	.align 4
LC162:
	.long	LC0
	.long	LC13
	.long	0
	.text
	.p2align 2,,3
	.globl	_tcl_cmd_status
	.def	_tcl_cmd_status;	.scl	2;	.type	32;	.endef
_tcl_cmd_status:
LFB111:
	.loc 1 1513 0
	.cfi_startproc
LVL1091:
	push	ebp
LCFI172:
	.cfi_def_cfa_offset 8
	.cfi_offset 5, -8
	push	edi
LCFI173:
	.cfi_def_cfa_offset 12
	.cfi_offset 7, -12
	push	esi
LCFI174:
	.cfi_def_cfa_offset 16
	.cfi_offset 6, -16
	push	ebx
LCFI175:
	.cfi_def_cfa_offset 20
	.cfi_offset 3, -20
	sub	esp, 92
LCFI176:
	.cfi_def_cfa_offset 112
	mov	ebp, DWORD PTR [esp+116]
	mov	edx, DWORD PTR [esp+120]
	mov	DWORD PTR [esp+40], edx
	mov	ebx, DWORD PTR [esp+124]
	.loc 1 1513 0
	mov	eax, DWORD PTR ___stack_chk_guard
	mov	DWORD PTR [esp+76], eax
	xor	eax, eax
	.loc 1 1514 0
	lea	eax, [esp+64]
	mov	esi, OFFSET FLAT:LC162
	mov	ecx, 3
	mov	edi, eax
	rep movsd
	.loc 1 1525 0
	dec	edx
	jle	L715
	.loc 1 1530 0
	lea	edx, [esp+56]
	mov	DWORD PTR [esp+20], edx
	mov	DWORD PTR [esp+16], 0
	mov	DWORD PTR [esp+12], OFFSET FLAT:LC84
	mov	DWORD PTR [esp+8], eax
	mov	eax, DWORD PTR [ebx+4]
	mov	DWORD PTR [esp+4], eax
	mov	DWORD PTR [esp], ebp
	mov	eax, DWORD PTR _tclStubsPtr
	call	[DWORD PTR [eax+152]]
LVL1092:
	mov	esi, eax
LVL1093:
	test	eax, eax
	jne	L689
LVL1094:
	.loc 1 1533 0
	mov	eax, DWORD PTR [esp+56]
LVL1095:
	test	eax, eax
	jne	L716
	.loc 1 1536 0
	mov	eax, DWORD PTR [esp+40]
	sub	eax, 4
	cmp	eax, 1
	jbe	L692
	.loc 1 1537 0
	mov	DWORD PTR [esp+12], OFFSET FLAT:LC163
L711:
	.loc 1 1585 0
	mov	DWORD PTR [esp+8], ebx
	mov	DWORD PTR [esp+4], 2
	mov	DWORD PTR [esp], ebp
	mov	eax, DWORD PTR _tclStubsPtr
	call	[DWORD PTR [eax+1064]]
LVL1096:
L714:
	.loc 1 1579 0
	mov	esi, 1
LVL1097:
L689:
	.loc 1 1597 0
	mov	eax, esi
	mov	edx, DWORD PTR [esp+76]
	xor	edx, DWORD PTR ___stack_chk_guard
	jne	L717
	add	esp, 92
LCFI177:
	.cfi_remember_state
	.cfi_def_cfa_offset 20
	pop	ebx
LCFI178:
	.cfi_restore 3
	.cfi_def_cfa_offset 16
	pop	esi
LCFI179:
	.cfi_restore 6
	.cfi_def_cfa_offset 12
	pop	edi
LCFI180:
	.cfi_restore 7
	.cfi_def_cfa_offset 8
	pop	ebp
LCFI181:
	.cfi_restore 5
	.cfi_def_cfa_offset 4
	ret
LVL1098:
	.p2align 2,,3
L716:
LCFI182:
	.cfi_restore_state
	.loc 1 1533 0
	dec	eax
LVL1099:
	jne	L689
	.loc 1 1584 0
	cmp	DWORD PTR [esp+40], 3
	je	L702
	.loc 1 1585 0
	mov	DWORD PTR [esp+12], OFFSET FLAT:LC29
	jmp	L711
LVL1100:
	.p2align 2,,3
L692:
	.loc 1 1540 0
	mov	eax, DWORD PTR _PurpleTclRefStatus
	mov	DWORD PTR [esp+8], eax
	mov	eax, DWORD PTR [ebx+8]
	mov	DWORD PTR [esp+4], eax
	mov	DWORD PTR [esp], ebp
	call	_purple_tcl_ref_get
LVL1101:
	mov	edi, eax
LVL1102:
	test	eax, eax
	je	L714
	.loc 1 1542 0
	mov	eax, DWORD PTR [ebx+12]
LVL1103:
	mov	DWORD PTR [esp], eax
	mov	eax, DWORD PTR _tclStubsPtr
	call	[DWORD PTR [eax+1368]]
LVL1104:
	mov	DWORD PTR [esp+44], eax
LVL1105:
	.loc 1 1543 0
	mov	DWORD PTR [esp+4], eax
	mov	DWORD PTR [esp], edi
	call	_purple_status_get_attr_value
LVL1106:
	.loc 1 1544 0
	test	eax, eax
	je	L718
	.loc 1 1549 0
	mov	DWORD PTR [esp], eax
	mov	DWORD PTR [esp+36], eax
	call	_purple_value_get_type
LVL1107:
	cmp	eax, 7
	mov	edx, DWORD PTR [esp+36]
	je	L697
	cmp	eax, 13
	je	L698
	cmp	eax, 4
	je	L719
	.loc 1 1577 0
	mov	eax, DWORD PTR _tclStubsPtr
	mov	ebx, DWORD PTR [eax+948]
	mov	DWORD PTR [esp+4], -1
	mov	DWORD PTR [esp], OFFSET FLAT:LC165
L713:
	call	[DWORD PTR [eax+232]]
LVL1108:
	mov	DWORD PTR [esp+4], eax
	mov	DWORD PTR [esp], ebp
	call	ebx
LVL1109:
	jmp	L714
LVL1110:
	.p2align 2,,3
L715:
	.loc 1 1526 0
	mov	DWORD PTR [esp+12], OFFSET FLAT:LC83
	mov	DWORD PTR [esp+8], ebx
	mov	DWORD PTR [esp+4], 1
	mov	DWORD PTR [esp], ebp
	mov	eax, DWORD PTR _tclStubsPtr
	call	[DWORD PTR [eax+1064]]
LVL1111:
	.loc 1 1527 0
	mov	esi, 1
	jmp	L689
LVL1112:
	.p2align 2,,3
L702:
	.loc 1 1588 0
	mov	eax, DWORD PTR _PurpleTclRefStatus
	mov	DWORD PTR [esp+8], eax
	mov	eax, DWORD PTR [ebx+8]
	mov	DWORD PTR [esp+4], eax
	mov	DWORD PTR [esp], ebp
	call	_purple_tcl_ref_get
LVL1113:
	test	eax, eax
	je	L714
	.loc 1 1590 0
	mov	DWORD PTR [esp], eax
	call	_purple_status_get_type
LVL1114:
	.loc 1 1591 0
	mov	edx, DWORD PTR _tclStubsPtr
	mov	ebx, DWORD PTR [edx+948]
	mov	DWORD PTR [esp+4], eax
	mov	eax, DWORD PTR _PurpleTclRefStatusType
LVL1115:
	mov	DWORD PTR [esp], eax
	call	_purple_tcl_ref_new
LVL1116:
	mov	DWORD PTR [esp+4], eax
	mov	DWORD PTR [esp], ebp
	call	ebx
LVL1117:
	.loc 1 1593 0
	jmp	L689
LVL1118:
L697:
	.loc 1 1561 0
	cmp	DWORD PTR [esp+40], 4
	je	L720
	.loc 1 1564 0
	lea	eax, [esp+60]
	mov	DWORD PTR [esp+8], eax
	mov	eax, DWORD PTR [ebx+16]
	mov	DWORD PTR [esp+4], eax
	mov	DWORD PTR [esp], ebp
	mov	eax, DWORD PTR _tclStubsPtr
	call	[DWORD PTR [eax+160]]
LVL1119:
	mov	esi, eax
LVL1120:
	test	eax, eax
	jne	L689
LVL1121:
	.loc 1 1566 0
	mov	eax, DWORD PTR [esp+60]
LVL1122:
	mov	DWORD PTR [esp+8], eax
	mov	eax, DWORD PTR [esp+44]
	mov	DWORD PTR [esp+4], eax
	mov	DWORD PTR [esp], edi
	call	_purple_status_set_attr_int
LVL1123:
	jmp	L689
LVL1124:
L719:
	.loc 1 1551 0
	cmp	DWORD PTR [esp+40], 4
	je	L721
	.loc 1 1555 0
	lea	eax, [esp+60]
	mov	DWORD PTR [esp+8], eax
	mov	eax, DWORD PTR [ebx+16]
	mov	DWORD PTR [esp+4], eax
	mov	DWORD PTR [esp], ebp
	mov	eax, DWORD PTR _tclStubsPtr
	call	[DWORD PTR [eax+136]]
LVL1125:
	mov	esi, eax
LVL1126:
	test	eax, eax
	jne	L689
LVL1127:
	.loc 1 1557 0
	mov	eax, DWORD PTR [esp+60]
LVL1128:
	mov	DWORD PTR [esp+8], eax
	mov	eax, DWORD PTR [esp+44]
	mov	DWORD PTR [esp+4], eax
	mov	DWORD PTR [esp], edi
	call	_purple_status_set_attr_boolean
LVL1129:
	jmp	L689
LVL1130:
L698:
	.loc 1 1570 0
	cmp	DWORD PTR [esp+40], 4
	je	L722
	.loc 1 1574 0
	mov	eax, DWORD PTR [ebx+16]
	mov	DWORD PTR [esp], eax
	mov	eax, DWORD PTR _tclStubsPtr
	call	[DWORD PTR [eax+1368]]
LVL1131:
	mov	DWORD PTR [esp+8], eax
	mov	eax, DWORD PTR [esp+44]
	mov	DWORD PTR [esp+4], eax
	mov	DWORD PTR [esp], edi
	call	_purple_status_set_attr_string
LVL1132:
	jmp	L689
LVL1133:
L718:
	.loc 1 1545 0
	mov	eax, DWORD PTR _tclStubsPtr
LVL1134:
	mov	ebx, DWORD PTR [eax+948]
	mov	DWORD PTR [esp+4], -1
	mov	DWORD PTR [esp], OFFSET FLAT:LC164
	jmp	L713
L722:
	.loc 1 1571 0
	mov	eax, DWORD PTR _tclStubsPtr
	mov	ebx, DWORD PTR [eax+948]
	.loc 1 1572 0
	mov	edi, DWORD PTR [eax+232]
LVL1135:
	.loc 1 1571 0
	mov	DWORD PTR [esp], edx
	call	_purple_value_get_string
LVL1136:
	mov	DWORD PTR [esp+4], -1
	mov	DWORD PTR [esp], eax
	call	edi
LVL1137:
	mov	DWORD PTR [esp+4], eax
	mov	DWORD PTR [esp], ebp
	call	ebx
LVL1138:
	jmp	L689
LVL1139:
L720:
	.loc 1 1562 0
	mov	eax, DWORD PTR _tclStubsPtr
	mov	ebx, DWORD PTR [eax+948]
	mov	edi, DWORD PTR [eax+216]
LVL1140:
	mov	DWORD PTR [esp], edx
	call	_purple_value_get_int
LVL1141:
L710:
	mov	DWORD PTR [esp], eax
	call	edi
LVL1142:
	mov	DWORD PTR [esp+4], eax
	mov	DWORD PTR [esp], ebp
	call	ebx
LVL1143:
	jmp	L689
LVL1144:
L721:
	.loc 1 1552 0
	mov	eax, DWORD PTR _tclStubsPtr
	mov	ebx, DWORD PTR [eax+948]
	.loc 1 1553 0
	mov	edi, DWORD PTR [eax+204]
LVL1145:
	.loc 1 1552 0
	mov	DWORD PTR [esp], edx
	call	_purple_value_get_boolean
LVL1146:
	jmp	L710
LVL1147:
L717:
	.loc 1 1597 0
	call	___stack_chk_fail
LVL1148:
	.cfi_endproc
LFE111:
	.data
	.align 4
LC166:
	.long	LC4
	.long	LC6
	.long	0
	.text
	.p2align 2,,3
	.globl	_tcl_cmd_status_attr
	.def	_tcl_cmd_status_attr;	.scl	2;	.type	32;	.endef
_tcl_cmd_status_attr:
LFB112:
	.loc 1 1600 0
	.cfi_startproc
LVL1149:
	push	ebp
LCFI183:
	.cfi_def_cfa_offset 8
	.cfi_offset 5, -8
	push	edi
LCFI184:
	.cfi_def_cfa_offset 12
	.cfi_offset 7, -12
	push	esi
LCFI185:
	.cfi_def_cfa_offset 16
	.cfi_offset 6, -16
	push	ebx
LCFI186:
	.cfi_def_cfa_offset 20
	.cfi_offset 3, -20
	sub	esp, 92
LCFI187:
	.cfi_def_cfa_offset 112
	mov	ebp, DWORD PTR [esp+116]
	mov	edx, DWORD PTR [esp+120]
	mov	ebx, DWORD PTR [esp+124]
	.loc 1 1600 0
	mov	eax, DWORD PTR ___stack_chk_guard
	mov	DWORD PTR [esp+76], eax
	xor	eax, eax
	.loc 1 1601 0
	lea	eax, [esp+64]
	mov	esi, OFFSET FLAT:LC166
	mov	ecx, 3
	mov	edi, eax
	rep movsd
	.loc 1 1606 0
	cmp	edx, 1
	jle	L740
	.loc 1 1611 0
	lea	ecx, [esp+60]
	mov	DWORD PTR [esp+20], ecx
	mov	DWORD PTR [esp+16], 0
	mov	DWORD PTR [esp+12], OFFSET FLAT:LC84
	mov	DWORD PTR [esp+8], eax
	mov	eax, DWORD PTR [ebx+4]
	mov	DWORD PTR [esp+4], eax
	mov	DWORD PTR [esp], ebp
	mov	eax, DWORD PTR _tclStubsPtr
	mov	DWORD PTR [esp+44], edx
	call	[DWORD PTR [eax+152]]
LVL1150:
	mov	esi, eax
LVL1151:
	test	eax, eax
	mov	edx, DWORD PTR [esp+44]
	jne	L725
LVL1152:
	.loc 1 1614 0
	mov	eax, DWORD PTR [esp+60]
LVL1153:
	test	eax, eax
	jne	L741
	.loc 1 1616 0
	cmp	edx, 3
	je	L728
L737:
	.loc 1 1627 0
	mov	DWORD PTR [esp+12], OFFSET FLAT:LC0
	mov	DWORD PTR [esp+8], ebx
	mov	DWORD PTR [esp+4], 2
	mov	DWORD PTR [esp], ebp
	mov	eax, DWORD PTR _tclStubsPtr
	call	[DWORD PTR [eax+1064]]
LVL1154:
L739:
	.loc 1 1628 0
	mov	esi, 1
LVL1155:
L725:
	.loc 1 1638 0
	mov	eax, esi
	mov	edx, DWORD PTR [esp+76]
	xor	edx, DWORD PTR ___stack_chk_guard
	jne	L742
	add	esp, 92
LCFI188:
	.cfi_remember_state
	.cfi_def_cfa_offset 20
	pop	ebx
LCFI189:
	.cfi_restore 3
	.cfi_def_cfa_offset 16
	pop	esi
LCFI190:
	.cfi_restore 6
	.cfi_def_cfa_offset 12
	pop	edi
LCFI191:
	.cfi_restore 7
	.cfi_def_cfa_offset 8
	pop	ebp
LCFI192:
	.cfi_restore 5
	.cfi_def_cfa_offset 4
	ret
LVL1156:
	.p2align 2,,3
L741:
LCFI193:
	.cfi_restore_state
	.loc 1 1614 0
	dec	eax
LVL1157:
	jne	L725
	.loc 1 1626 0
	cmp	edx, 3
	jne	L737
	.loc 1 1630 0
	mov	eax, DWORD PTR _PurpleTclRefStatusAttr
	mov	DWORD PTR [esp+8], eax
	mov	eax, DWORD PTR [ebx+8]
	mov	DWORD PTR [esp+4], eax
	mov	DWORD PTR [esp], ebp
	call	_purple_tcl_ref_get
LVL1158:
	test	eax, eax
	je	L739
	.loc 1 1632 0
	mov	edx, DWORD PTR _tclStubsPtr
	mov	ebx, DWORD PTR [edx+948]
	.loc 1 1633 0
	mov	edi, DWORD PTR [edx+232]
	.loc 1 1632 0
	mov	DWORD PTR [esp], eax
	call	_purple_status_attr_get_name
LVL1159:
L738:
	mov	DWORD PTR [esp+4], -1
	mov	DWORD PTR [esp], eax
	call	edi
LVL1160:
	mov	DWORD PTR [esp+4], eax
	mov	DWORD PTR [esp], ebp
	call	ebx
LVL1161:
	.loc 1 1634 0
	jmp	L725
LVL1162:
	.p2align 2,,3
L728:
	.loc 1 1620 0
	mov	eax, DWORD PTR _PurpleTclRefStatusAttr
LVL1163:
	mov	DWORD PTR [esp+8], eax
	mov	eax, DWORD PTR [ebx+8]
	mov	DWORD PTR [esp+4], eax
	mov	DWORD PTR [esp], ebp
	call	_purple_tcl_ref_get
LVL1164:
	test	eax, eax
	je	L739
	.loc 1 1622 0
	mov	edx, DWORD PTR _tclStubsPtr
	mov	ebx, DWORD PTR [edx+948]
	.loc 1 1623 0
	mov	edi, DWORD PTR [edx+232]
	.loc 1 1622 0
	mov	DWORD PTR [esp], eax
	call	_purple_status_attr_get_id
LVL1165:
	jmp	L738
LVL1166:
	.p2align 2,,3
L740:
	.loc 1 1607 0
	mov	DWORD PTR [esp+12], OFFSET FLAT:LC83
	mov	DWORD PTR [esp+8], ebx
	mov	DWORD PTR [esp+4], 1
	mov	DWORD PTR [esp], ebp
	mov	eax, DWORD PTR _tclStubsPtr
	call	[DWORD PTR [eax+1064]]
LVL1167:
	.loc 1 1608 0
	mov	esi, 1
	jmp	L725
LVL1168:
L742:
	.loc 1 1638 0
	call	___stack_chk_fail
LVL1169:
	.cfi_endproc
LFE112:
	.section .rdata,"dr"
LC168:
	.ascii "statustype\0"
LC169:
	.ascii "statustype attr\0"
LC1:
	.ascii "attrs\0"
LC3:
	.ascii "exclusive\0"
LC5:
	.ascii "independent\0"
LC7:
	.ascii "primary_attr\0"
LC8:
	.ascii "primitive\0"
LC9:
	.ascii "saveable\0"
LC10:
	.ascii "user_settable\0"
	.data
	.align 32
LC167:
	.long	LC0
	.long	LC1
	.long	LC2
	.long	LC3
	.long	LC4
	.long	LC5
	.long	LC6
	.long	LC7
	.long	LC8
	.long	LC9
	.long	LC10
	.long	0
	.text
	.p2align 2,,3
	.globl	_tcl_cmd_status_type
	.def	_tcl_cmd_status_type;	.scl	2;	.type	32;	.endef
_tcl_cmd_status_type:
LFB113:
	.loc 1 1641 0
	.cfi_startproc
LVL1170:
	push	ebp
LCFI194:
	.cfi_def_cfa_offset 8
	.cfi_offset 5, -8
	push	edi
LCFI195:
	.cfi_def_cfa_offset 12
	.cfi_offset 7, -12
	push	esi
LCFI196:
	.cfi_def_cfa_offset 16
	.cfi_offset 6, -16
	push	ebx
LCFI197:
	.cfi_def_cfa_offset 20
	.cfi_offset 3, -20
	sub	esp, 124
LCFI198:
	.cfi_def_cfa_offset 144
	mov	ebp, DWORD PTR [esp+148]
	mov	edx, DWORD PTR [esp+152]
	mov	ebx, DWORD PTR [esp+156]
	.loc 1 1641 0
	mov	eax, DWORD PTR ___stack_chk_guard
	mov	DWORD PTR [esp+108], eax
	xor	eax, eax
	.loc 1 1642 0
	lea	eax, [esp+60]
	mov	esi, OFFSET FLAT:LC167
	mov	ecx, 12
	mov	edi, eax
	rep movsd
	.loc 1 1657 0
	cmp	edx, 1
	jle	L813
	.loc 1 1662 0
	lea	ecx, [esp+56]
	mov	DWORD PTR [esp+20], ecx
	mov	DWORD PTR [esp+16], 0
	mov	DWORD PTR [esp+12], OFFSET FLAT:LC84
	mov	DWORD PTR [esp+8], eax
	mov	eax, DWORD PTR [ebx+4]
	mov	DWORD PTR [esp+4], eax
	mov	DWORD PTR [esp], ebp
	mov	eax, DWORD PTR _tclStubsPtr
	mov	DWORD PTR [esp+44], edx
	call	[DWORD PTR [eax+152]]
LVL1171:
	mov	esi, eax
LVL1172:
	test	eax, eax
	mov	edx, DWORD PTR [esp+44]
	jne	L745
LVL1173:
	.loc 1 1665 0
	cmp	DWORD PTR [esp+56], 10
	ja	L745
	mov	eax, DWORD PTR [esp+56]
LVL1174:
	jmp	[DWORD PTR L757[0+eax*4]]
	.section .rdata,"dr"
	.align 4
L757:
	.long	L746
	.long	L747
	.long	L748
	.long	L749
	.long	L750
	.long	L751
	.long	L752
	.long	L753
	.long	L754
	.long	L755
	.long	L756
	.text
	.p2align 2,,3
L756:
	.loc 1 1778 0
	cmp	edx, 3
	jne	L812
	.loc 1 1782 0
	mov	eax, DWORD PTR _PurpleTclRefStatusType
	mov	DWORD PTR [esp+8], eax
	mov	eax, DWORD PTR [ebx+8]
	mov	DWORD PTR [esp+4], eax
	mov	DWORD PTR [esp], ebp
	call	_purple_tcl_ref_get
LVL1175:
	test	eax, eax
	je	L809
	.loc 1 1784 0
	mov	edx, DWORD PTR _tclStubsPtr
	mov	ebx, DWORD PTR [edx+948]
	.loc 1 1785 0
	mov	edi, DWORD PTR [edx+204]
	.loc 1 1784 0
	mov	DWORD PTR [esp], eax
	call	_purple_status_type_is_user_settable
LVL1176:
L810:
	mov	DWORD PTR [esp], eax
	call	edi
LVL1177:
	mov	DWORD PTR [esp+4], eax
	mov	DWORD PTR [esp], ebp
	call	ebx
LVL1178:
	.p2align 2,,3
L745:
	.loc 1 1791 0
	mov	eax, esi
	mov	edx, DWORD PTR [esp+108]
	xor	edx, DWORD PTR ___stack_chk_guard
	jne	L814
	add	esp, 124
LCFI199:
	.cfi_remember_state
	.cfi_def_cfa_offset 20
	pop	ebx
LCFI200:
	.cfi_restore 3
	.cfi_def_cfa_offset 16
	pop	esi
LCFI201:
	.cfi_restore 6
	.cfi_def_cfa_offset 12
	pop	edi
LCFI202:
	.cfi_restore 7
	.cfi_def_cfa_offset 8
	pop	ebp
LCFI203:
	.cfi_restore 5
	.cfi_def_cfa_offset 4
	ret
LVL1179:
	.p2align 2,,3
L813:
LCFI204:
	.cfi_restore_state
	.loc 1 1658 0
	mov	DWORD PTR [esp+12], OFFSET FLAT:LC83
	mov	DWORD PTR [esp+8], ebx
	mov	DWORD PTR [esp+4], 1
	mov	DWORD PTR [esp], ebp
	mov	eax, DWORD PTR _tclStubsPtr
	call	[DWORD PTR [eax+1064]]
LVL1180:
	.loc 1 1659 0
	mov	esi, 1
	jmp	L745
LVL1181:
	.p2align 2,,3
L755:
	.loc 1 1767 0
	cmp	edx, 3
	je	L772
	.p2align 2,,3
L812:
	.loc 1 1779 0
	mov	DWORD PTR [esp+12], OFFSET FLAT:LC168
L808:
	.loc 1 1678 0
	mov	DWORD PTR [esp+8], ebx
	mov	DWORD PTR [esp+4], 2
	mov	DWORD PTR [esp], ebp
	mov	eax, DWORD PTR _tclStubsPtr
LVL1182:
	call	[DWORD PTR [eax+1064]]
LVL1183:
L809:
	.loc 1 1679 0
	mov	esi, 1
LVL1184:
	jmp	L745
LVL1185:
	.p2align 2,,3
L746:
	.loc 1 1677 0
	cmp	edx, 4
	je	L760
	.loc 1 1678 0
	mov	DWORD PTR [esp+12], OFFSET FLAT:LC169
	jmp	L808
	.p2align 2,,3
L747:
	.loc 1 1689 0
	cmp	edx, 3
	jne	L812
	.loc 1 1693 0
	mov	eax, DWORD PTR _PurpleTclRefStatusType
LVL1186:
	mov	DWORD PTR [esp+8], eax
	mov	eax, DWORD PTR [ebx+8]
	mov	DWORD PTR [esp+4], eax
	mov	DWORD PTR [esp], ebp
	call	_purple_tcl_ref_get
LVL1187:
	mov	ebx, eax
LVL1188:
	test	eax, eax
	je	L809
	.loc 1 1695 0
	mov	DWORD PTR [esp+4], 0
	mov	DWORD PTR [esp], 0
	mov	eax, DWORD PTR _tclStubsPtr
LVL1189:
	call	[DWORD PTR [eax+220]]
LVL1190:
	mov	edi, eax
LVL1191:
	.loc 1 1696 0
	mov	DWORD PTR [esp], ebx
	call	_purple_status_type_get_attrs
LVL1192:
	mov	ebx, eax
LVL1193:
	test	eax, eax
	je	L765
LVL1194:
	.p2align 2,,3
L795:
	.loc 1 1698 0
	mov	eax, DWORD PTR [ebx]
	mov	DWORD PTR [esp+4], eax
	mov	eax, DWORD PTR _PurpleTclRefStatusAttr
	mov	DWORD PTR [esp], eax
	call	_purple_tcl_ref_new
LVL1195:
	.loc 1 1699 0
	mov	DWORD PTR [esp+8], eax
	mov	DWORD PTR [esp+4], edi
	mov	DWORD PTR [esp], ebp
	mov	eax, DWORD PTR _tclStubsPtr
LVL1196:
	call	[DWORD PTR [eax+184]]
LVL1197:
	.loc 1 1697 0
	mov	ebx, DWORD PTR [ebx+4]
LVL1198:
	.loc 1 1696 0
	test	ebx, ebx
	jne	L795
L765:
	.loc 1 1701 0
	mov	DWORD PTR [esp+4], edi
	mov	DWORD PTR [esp], ebp
	mov	eax, DWORD PTR _tclStubsPtr
	call	[DWORD PTR [eax+948]]
LVL1199:
	.loc 1 1702 0
	jmp	L745
LVL1200:
	.p2align 2,,3
L751:
	.loc 1 1724 0
	cmp	edx, 3
	jne	L812
	.loc 1 1728 0
	mov	eax, DWORD PTR _PurpleTclRefStatusType
LVL1201:
	mov	DWORD PTR [esp+8], eax
	mov	eax, DWORD PTR [ebx+8]
	mov	DWORD PTR [esp+4], eax
	mov	DWORD PTR [esp], ebp
	call	_purple_tcl_ref_get
LVL1202:
	test	eax, eax
	je	L809
	.loc 1 1730 0
	mov	edx, DWORD PTR _tclStubsPtr
	mov	ebx, DWORD PTR [edx+948]
	.loc 1 1731 0
	mov	edi, DWORD PTR [edx+204]
	.loc 1 1730 0
	mov	DWORD PTR [esp], eax
	call	_purple_status_type_is_independent
LVL1203:
	jmp	L810
LVL1204:
	.p2align 2,,3
L749:
	.loc 1 1704 0
	cmp	edx, 3
	jne	L812
	.loc 1 1708 0
	mov	eax, DWORD PTR _PurpleTclRefStatusType
LVL1205:
	mov	DWORD PTR [esp+8], eax
	mov	eax, DWORD PTR [ebx+8]
	mov	DWORD PTR [esp+4], eax
	mov	DWORD PTR [esp], ebp
	call	_purple_tcl_ref_get
LVL1206:
	test	eax, eax
	je	L809
	.loc 1 1710 0
	mov	edx, DWORD PTR _tclStubsPtr
	mov	ebx, DWORD PTR [edx+948]
	.loc 1 1711 0
	mov	edi, DWORD PTR [edx+204]
	.loc 1 1710 0
	mov	DWORD PTR [esp], eax
	call	_purple_status_type_is_exclusive
LVL1207:
	jmp	L810
LVL1208:
	.p2align 2,,3
L750:
	.loc 1 1714 0
	cmp	edx, 3
	jne	L812
	.loc 1 1718 0
	mov	eax, DWORD PTR _PurpleTclRefStatusType
LVL1209:
	mov	DWORD PTR [esp+8], eax
	mov	eax, DWORD PTR [ebx+8]
	mov	DWORD PTR [esp+4], eax
	mov	DWORD PTR [esp], ebp
	call	_purple_tcl_ref_get
LVL1210:
	test	eax, eax
	je	L809
	.loc 1 1720 0
	mov	edx, DWORD PTR _tclStubsPtr
	mov	ebx, DWORD PTR [edx+948]
	.loc 1 1721 0
	mov	edi, DWORD PTR [edx+232]
	.loc 1 1720 0
	mov	DWORD PTR [esp], eax
	call	_purple_status_type_get_id
LVL1211:
L811:
	.loc 1 1762 0
	mov	DWORD PTR [esp+4], -1
	mov	DWORD PTR [esp], eax
	call	edi
LVL1212:
	mov	DWORD PTR [esp+4], eax
	mov	DWORD PTR [esp], ebp
	call	ebx
LVL1213:
	.loc 1 1765 0
	jmp	L745
LVL1214:
	.p2align 2,,3
L748:
	.loc 1 1667 0
	cmp	edx, 3
	jne	L812
	.loc 1 1671 0
	mov	eax, DWORD PTR _PurpleTclRefStatusType
LVL1215:
	mov	DWORD PTR [esp+8], eax
	mov	eax, DWORD PTR [ebx+8]
	mov	DWORD PTR [esp+4], eax
	mov	DWORD PTR [esp], ebp
	call	_purple_tcl_ref_get
LVL1216:
	test	eax, eax
	je	L809
	.loc 1 1673 0
	mov	edx, DWORD PTR _tclStubsPtr
	mov	ebx, DWORD PTR [edx+948]
	.loc 1 1674 0
	mov	edi, DWORD PTR [edx+204]
	.loc 1 1673 0
	mov	DWORD PTR [esp], eax
	call	_purple_status_type_is_available
LVL1217:
	jmp	L810
LVL1218:
	.p2align 2,,3
L753:
	.loc 1 1756 0
	cmp	edx, 3
	jne	L812
	.loc 1 1760 0
	mov	eax, DWORD PTR _PurpleTclRefStatusType
LVL1219:
	mov	DWORD PTR [esp+8], eax
	mov	eax, DWORD PTR [ebx+8]
	mov	DWORD PTR [esp+4], eax
	mov	DWORD PTR [esp], ebp
	call	_purple_tcl_ref_get
LVL1220:
	test	eax, eax
	je	L809
	.loc 1 1762 0
	mov	edx, DWORD PTR _tclStubsPtr
	mov	ebx, DWORD PTR [edx+948]
	.loc 1 1763 0
	mov	edi, DWORD PTR [edx+232]
	.loc 1 1762 0
	mov	DWORD PTR [esp], eax
	call	_purple_status_type_get_primary_attr
LVL1221:
	jmp	L811
LVL1222:
	.p2align 2,,3
L754:
	.loc 1 1744 0
	cmp	edx, 3
	jne	L812
	.loc 1 1748 0
	mov	eax, DWORD PTR _PurpleTclRefStatusType
LVL1223:
	mov	DWORD PTR [esp+8], eax
	mov	eax, DWORD PTR [ebx+8]
	mov	DWORD PTR [esp+4], eax
	mov	DWORD PTR [esp], ebp
	call	_purple_tcl_ref_get
LVL1224:
	test	eax, eax
	je	L809
	.loc 1 1750 0
	mov	edx, DWORD PTR _tclStubsPtr
	mov	ebx, DWORD PTR [edx+948]
	.loc 1 1751 0
	mov	edi, DWORD PTR [edx+232]
	.loc 1 1750 0
	mov	DWORD PTR [esp], eax
	call	_purple_status_type_get_primitive
LVL1225:
	mov	DWORD PTR [esp], eax
	call	_purple_primitive_get_id_from_type
LVL1226:
	jmp	L811
LVL1227:
	.p2align 2,,3
L752:
	.loc 1 1734 0
	cmp	edx, 3
	jne	L812
	.loc 1 1738 0
	mov	eax, DWORD PTR _PurpleTclRefStatusType
LVL1228:
	mov	DWORD PTR [esp+8], eax
	mov	eax, DWORD PTR [ebx+8]
	mov	DWORD PTR [esp+4], eax
	mov	DWORD PTR [esp], ebp
	call	_purple_tcl_ref_get
LVL1229:
	test	eax, eax
	je	L809
	.loc 1 1740 0
	mov	edx, DWORD PTR _tclStubsPtr
	mov	ebx, DWORD PTR [edx+948]
	.loc 1 1741 0
	mov	edi, DWORD PTR [edx+232]
	.loc 1 1740 0
	mov	DWORD PTR [esp], eax
	call	_purple_status_type_get_name
LVL1230:
	jmp	L811
LVL1231:
L760:
	.loc 1 1681 0
	mov	eax, DWORD PTR _PurpleTclRefStatusType
LVL1232:
	mov	DWORD PTR [esp+8], eax
	mov	eax, DWORD PTR [ebx+8]
	mov	DWORD PTR [esp+4], eax
	mov	DWORD PTR [esp], ebp
	call	_purple_tcl_ref_get
LVL1233:
	mov	edi, eax
LVL1234:
	test	eax, eax
	je	L809
	.loc 1 1683 0
	mov	eax, DWORD PTR _tclStubsPtr
LVL1235:
	mov	edx, DWORD PTR [eax+948]
	.loc 1 1686 0
	mov	DWORD PTR [esp+4], 0
	mov	ecx, DWORD PTR [ebx+12]
	mov	DWORD PTR [esp], ecx
	mov	DWORD PTR [esp+44], edx
	call	[DWORD PTR [eax+172]]
LVL1236:
	.loc 1 1685 0
	mov	DWORD PTR [esp+4], eax
	mov	DWORD PTR [esp], edi
	call	_purple_status_type_get_attr
LVL1237:
	.loc 1 1683 0
	mov	DWORD PTR [esp+4], eax
	mov	eax, DWORD PTR _PurpleTclRefStatusAttr
	mov	DWORD PTR [esp], eax
	call	_purple_tcl_ref_new
LVL1238:
	mov	DWORD PTR [esp+4], eax
	mov	DWORD PTR [esp], ebp
	mov	edx, DWORD PTR [esp+44]
	call	edx
LVL1239:
	.loc 1 1687 0
	jmp	L745
LVL1240:
L772:
	.loc 1 1771 0
	mov	eax, DWORD PTR _PurpleTclRefStatusType
LVL1241:
	mov	DWORD PTR [esp+8], eax
	mov	eax, DWORD PTR [ebx+8]
	mov	DWORD PTR [esp+4], eax
	mov	DWORD PTR [esp], ebp
	call	_purple_tcl_ref_get
LVL1242:
	test	eax, eax
	je	L809
	.loc 1 1773 0
	mov	edx, DWORD PTR _tclStubsPtr
	mov	ebx, DWORD PTR [edx+948]
	.loc 1 1774 0
	mov	edi, DWORD PTR [edx+204]
	.loc 1 1773 0
	mov	DWORD PTR [esp], eax
	call	_purple_status_type_is_saveable
LVL1243:
	jmp	L810
LVL1244:
L814:
	.loc 1 1791 0
	call	___stack_chk_fail
LVL1245:
	.cfi_endproc
LFE113:
	.p2align 2,,3
	.globl	_tcl_cmd_unload
	.def	_tcl_cmd_unload;	.scl	2;	.type	32;	.endef
_tcl_cmd_unload:
LFB115:
	.loc 1 1801 0
	.cfi_startproc
LVL1246:
	sub	esp, 44
LCFI205:
	.cfi_def_cfa_offset 48
	mov	eax, DWORD PTR [esp+52]
	mov	edx, DWORD PTR [esp+60]
	.loc 1 1801 0
	mov	ecx, DWORD PTR ___stack_chk_guard
	mov	DWORD PTR [esp+28], ecx
	xor	ecx, ecx
	.loc 1 1803 0
	cmp	DWORD PTR [esp+56], 1
	je	L816
	.loc 1 1804 0
	mov	DWORD PTR [esp+12], OFFSET FLAT:LC80
	mov	DWORD PTR [esp+8], edx
	mov	DWORD PTR [esp+4], 1
	mov	DWORD PTR [esp], eax
	mov	eax, DWORD PTR _tclStubsPtr
	call	[DWORD PTR [eax+1064]]
LVL1247:
	.loc 1 1805 0
	mov	eax, 1
L817:
	.loc 1 1817 0
	mov	edx, DWORD PTR [esp+28]
	xor	edx, DWORD PTR ___stack_chk_guard
	jne	L821
	add	esp, 44
LCFI206:
	.cfi_remember_state
	.cfi_def_cfa_offset 4
	ret
	.p2align 2,,3
L816:
LCFI207:
	.cfi_restore_state
	.loc 1 1808 0
	mov	DWORD PTR [esp], eax
	call	_tcl_interp_get_plugin
LVL1248:
	test	eax, eax
	je	L819
	.loc 1 1814 0
	mov	DWORD PTR [esp+8], eax
	mov	DWORD PTR [esp+4], OFFSET FLAT:_unload_self
	mov	DWORD PTR [esp], 0
	call	_purple_timeout_add
LVL1249:
	.loc 1 1816 0
	xor	eax, eax
	jmp	L817
LVL1250:
	.p2align 2,,3
L819:
	.loc 1 1810 0
	xor	eax, eax
LVL1251:
	jmp	L817
L821:
	.loc 1 1817 0
	call	___stack_chk_fail
LVL1252:
	.cfi_endproc
LFE115:
	.section .rdata,"dr"
	.align 4
_CSWTCH.118:
	.long	1
	.long	2
	.long	4
	.text
Letext0:
	.file 2 "c:/workspace/pidgin-devel/win32-dev/mingw-4.7.2/bin/../lib/gcc/mingw32/4.7.2/../../../../include/stdio.h"
	.file 3 "c:/workspace/pidgin-devel/win32-dev/mingw-4.7.2/bin/../lib/gcc/mingw32/4.7.2/include/stdarg.h"
	.file 4 "c:/workspace/pidgin-devel/win32-dev/mingw-4.7.2/bin/../lib/gcc/mingw32/4.7.2/../../../../include/sys/types.h"
	.file 5 "../../../../win32-dev/tcl-8.4.5/include/tcl.h"
	.file 6 "c:/workspace/pidgin-devel/win32-dev/mingw-4.7.2/bin/../lib/gcc/mingw32/4.7.2/../../../../include/sys/stat.h"
	.file 7 "../../../../win32-dev/tcl-8.4.5/include/tclDecls.h"
	.file 8 "../../../../win32-dev/tcl-8.4.5/include/tclPlatDecls.h"
	.file 9 "c:/workspace/pidgin-devel/win32-dev/mingw-4.7.2/bin/../lib/gcc/mingw32/4.7.2/../../../../include/tchar.h"
	.file 10 "c:/workspace/pidgin-devel/win32-dev/mingw-4.7.2/bin/../lib/gcc/mingw32/4.7.2/../../../../include/time.h"
	.file 11 "../../../../win32-dev/gtk_2_0-2.14/lib/glib-2.0/include/glibconfig.h"
	.file 12 "../../../../win32-dev/gtk_2_0-2.14/include/glib-2.0/glib/gtypes.h"
	.file 13 "../../../../win32-dev/gtk_2_0-2.14/include/glib-2.0/glib/glist.h"
	.file 14 "../../../../win32-dev/gtk_2_0-2.14/include/glib-2.0/glib/ghash.h"
	.file 15 "../../../../win32-dev/gtk_2_0-2.14/include/glib-2.0/glib/gslist.h"
	.file 16 "../../../../win32-dev/gtk_2_0-2.14/include/glib-2.0/glib/gmain.h"
	.file 17 "../../../libpurple/account.h"
	.file 18 "../../../libpurple/connection.h"
	.file 19 "../../../libpurple/value.h"
	.file 20 "../../../libpurple/plugin.h"
	.file 21 "../../../libpurple/pluginpref.h"
	.file 22 "../../../libpurple/prefs.h"
	.file 23 "../../../libpurple/status.h"
	.file 24 "../../../libpurple/blist.h"
	.file 25 "../../../libpurple/buddyicon.h"
	.file 26 "../../../libpurple/conversation.h"
	.file 27 "../../../libpurple/log.h"
	.file 28 "../../../libpurple/media/enum-types.h"
	.file 29 "../../../libpurple/media/../notify.h"
	.file 30 "../../../libpurple/proxy.h"
	.file 31 "../../../libpurple/privacy.h"
	.file 32 "../../../libpurple/savedstatuses.h"
	.file 33 "../../../libpurple/debug.h"
	.file 34 "../../../libpurple/core.h"
	.file 35 "../../../libpurple/cmds.h"
	.file 36 "../../../libpurple/stringref.h"
	.file 37 "tcl_purple.h"
	.file 38 "c:/workspace/pidgin-devel/win32-dev/mingw-4.7.2/bin/../lib/gcc/mingw32/4.7.2/../../../../include/ctype.h"
	.file 39 "../../../libpurple/server.h"
	.file 40 "../../../../win32-dev/gtk_2_0-2.14/include/glib-2.0/glib/gmem.h"
	.file 41 "../../../../win32-dev/gtk_2_0-2.14/include/glib-2.0/glib/gmarkup.h"
	.file 42 "../../../libpurple/eventloop.h"