	.file	"themeedit.c"
	.intel_syntax noprefix
	.text
Ltext0:
	.p2align 2,,3
	.def	_plugin_load;	.scl	3;	.type	32;	.endef
_plugin_load:
LFB102:
	.file 1 "themeedit.c"
	.loc 1 322 0
	.cfi_startproc
LVL0:
	sub	esp, 28
LCFI0:
	.cfi_def_cfa_offset 32
	.loc 1 322 0
	mov	eax, DWORD PTR ___stack_chk_guard
	mov	DWORD PTR [esp+12], eax
	xor	eax, eax
	.loc 1 324 0
	mov	al, 1
	mov	edx, DWORD PTR [esp+12]
	xor	edx, DWORD PTR ___stack_chk_guard
	jne	L5
	add	esp, 28
LCFI1:
	.cfi_remember_state
	.cfi_def_cfa_offset 4
	ret
L5:
LCFI2:
	.cfi_restore_state
	call	___stack_chk_fail
LVL1:
	.cfi_endproc
LFE102:
	.section .rdata,"dr"
LC0:
	.ascii "Edit Buddylist Theme\0"
LC1:
	.ascii "pidgin\0"
LC2:
	.ascii "Edit Icon Theme\0"
	.text
	.p2align 2,,3
	.def	_actions;	.scl	3;	.type	32;	.endef
_actions:
LFB103:
	.loc 1 328 0
	.cfi_startproc
LVL2:
	push	ebx
LCFI3:
	.cfi_def_cfa_offset 8
	.cfi_offset 3, -8
	sub	esp, 40
LCFI4:
	.cfi_def_cfa_offset 48
	.loc 1 328 0
	mov	eax, DWORD PTR ___stack_chk_guard
	mov	DWORD PTR [esp+28], eax
	xor	eax, eax
LVL3:
	.loc 1 332 0
	mov	DWORD PTR [esp+4], OFFSET FLAT:LC0
	mov	DWORD PTR [esp], OFFSET FLAT:LC1
	call	_libintl_dgettext
LVL4:
	mov	DWORD PTR [esp+4], OFFSET FLAT:_pidgin_blist_theme_edit
	mov	DWORD PTR [esp], eax
	call	_purple_plugin_action_new
LVL5:
	.loc 1 333 0
	mov	DWORD PTR [esp+4], eax
	mov	DWORD PTR [esp], 0
	call	_g_list_append
LVL6:
	mov	ebx, eax
LVL7:
	.loc 1 334 0
	mov	DWORD PTR [esp+4], OFFSET FLAT:LC2
	mov	DWORD PTR [esp], OFFSET FLAT:LC1
	call	_libintl_dgettext
LVL8:
	mov	DWORD PTR [esp+4], OFFSET FLAT:_pidgin_icon_theme_edit
	mov	DWORD PTR [esp], eax
	call	_purple_plugin_action_new
LVL9:
	.loc 1 335 0
	mov	edx, DWORD PTR [esp+28]
	xor	edx, DWORD PTR ___stack_chk_guard
	jne	L10
	mov	DWORD PTR [esp+52], eax
	mov	DWORD PTR [esp+48], ebx
	.loc 1 338 0
	add	esp, 40
LCFI5:
	.cfi_remember_state
	.cfi_def_cfa_offset 8
	pop	ebx
LCFI6:
	.cfi_restore 3
	.cfi_def_cfa_offset 4
LVL10:
	.loc 1 335 0
	jmp	_g_list_append
LVL11:
L10:
LCFI7:
	.cfi_restore_state
	call	___stack_chk_fail
LVL12:
	.cfi_endproc
LFE103:
	.p2align 2,,3
	.def	_prop_type_is_color;	.scl	3;	.type	32;	.endef
_prop_type_is_color:
LFB93:
	.loc 1 38 0
	.cfi_startproc
LVL13:
	push	ebx
LCFI8:
	.cfi_def_cfa_offset 8
	.cfi_offset 3, -8
	sub	esp, 40
LCFI9:
	.cfi_def_cfa_offset 48
	mov	ebx, edx
	.loc 1 38 0
	mov	edx, DWORD PTR ___stack_chk_guard
	mov	DWORD PTR [esp+28], edx
	xor	edx, edx
LVL14:
	.loc 1 40 0
	mov	DWORD PTR [esp+4], 80
	mov	eax, DWORD PTR [eax]
LVL15:
	mov	DWORD PTR [esp], eax
	call	_g_type_check_class_cast
LVL16:
	mov	DWORD PTR [esp+4], ebx
	mov	DWORD PTR [esp], eax
	call	_g_object_class_find_property
LVL17:
LBB4:
	.loc 1 42 0
	mov	edx, DWORD PTR __imp__g_param_spec_types
	mov	edx, DWORD PTR [edx]
	mov	edx, DWORD PTR [edx+64]
LVL18:
	test	eax, eax
	je	L12
	.loc 1 42 0 is_stmt 0 discriminator 1
	mov	ecx, DWORD PTR [eax]
	test	ecx, ecx
	je	L12
	cmp	DWORD PTR [ecx], edx
	je	L15
L12:
	.loc 1 42 0 discriminator 2
	mov	DWORD PTR [esp+4], edx
	mov	DWORD PTR [esp], eax
	call	_g_type_check_instance_is_a
LVL19:
L13:
LBE4:
	.loc 1 43 0 is_stmt 1 discriminator 1
	mov	edx, DWORD PTR [esp+28]
	xor	edx, DWORD PTR ___stack_chk_guard
	jne	L23
	.loc 1 43 0 is_stmt 0
	add	esp, 40
LCFI10:
	.cfi_remember_state
	.cfi_def_cfa_offset 8
	pop	ebx
LCFI11:
	.cfi_restore 3
	.cfi_def_cfa_offset 4
LVL20:
	ret
LVL21:
	.p2align 2,,3
L15:
LCFI12:
	.cfi_restore_state
LBB5:
	.loc 1 42 0 is_stmt 1
	mov	eax, 1
LVL22:
	jmp	L13
LVL23:
L23:
LBE5:
	.loc 1 43 0
	call	___stack_chk_fail
LVL24:
	.cfi_endproc
LFE93:
	.section .rdata,"dr"
LC3:
	.ascii "Contact\0"
LC4:
	.ascii "Pidgin Buddylist Theme Editor\0"
LC5:
	.ascii "theme-editor-blist\0"
LC6:
	.ascii "user\0"
LC7:
	.ascii "author\0"
LC8:
	.ascii "blist\0"
LC9:
	.ascii "type\0"
LC12:
	.ascii "gtk-select-color\0"
LC13:
	.ascii "\0"
LC14:
	.ascii "clicked\0"
LC15:
	.ascii "gtk-select-font\0"
LC16:
	.ascii "gtk-close\0"
	.text
	.p2align 2,,3
	.def	_pidgin_blist_theme_edit;	.scl	3;	.type	32;	.endef
_pidgin_blist_theme_edit:
LFB101:
	.loc 1 231 0
	.cfi_startproc
LVL25:
	push	ebp
LCFI13:
	.cfi_def_cfa_offset 8
	.cfi_offset 5, -8
	push	edi
LCFI14:
	.cfi_def_cfa_offset 12
	.cfi_offset 7, -12
	push	esi
LCFI15:
	.cfi_def_cfa_offset 16
	.cfi_offset 6, -16
	push	ebx
LCFI16:
	.cfi_def_cfa_offset 20
	.cfi_offset 3, -20
	sub	esp, 108
LCFI17:
	.cfi_def_cfa_offset 128
	.loc 1 231 0
	mov	eax, DWORD PTR ___stack_chk_guard
	mov	DWORD PTR [esp+92], eax
	xor	eax, eax
	.loc 1 266 0
	mov	DWORD PTR [esp+4], OFFSET FLAT:LC4
	mov	DWORD PTR [esp], OFFSET FLAT:LC1
	call	_libintl_dgettext
LVL26:
	mov	DWORD PTR [esp+12], 0
	mov	DWORD PTR [esp+8], OFFSET FLAT:LC5
	mov	DWORD PTR [esp+4], 0
	mov	DWORD PTR [esp], eax
	call	_pidgin_create_dialog
LVL27:
	mov	DWORD PTR [esp+68], eax
LVL28:
	.loc 1 267 0
	call	_gtk_dialog_get_type
LVL29:
	mov	DWORD PTR [esp+72], eax
	mov	DWORD PTR [esp+4], eax
	mov	eax, DWORD PTR [esp+68]
	mov	DWORD PTR [esp], eax
	call	_g_type_check_instance_cast
LVL30:
	mov	DWORD PTR [esp+8], 6
	mov	DWORD PTR [esp+4], 0
	mov	DWORD PTR [esp], eax
	call	_pidgin_dialog_get_vbox_with_properties
LVL31:
	mov	DWORD PTR [esp+76], eax
LVL32:
	.loc 1 269 0
	call	_pidgin_blist_get_theme
LVL33:
	.loc 1 270 0
	test	eax, eax
	je	L47
LVL34:
L25:
	.loc 1 282 0
	mov	DWORD PTR [esp+4], 80
	mov	eax, DWORD PTR [eax]
LVL35:
	mov	DWORD PTR [esp], eax
	call	_g_type_check_class_cast
LVL36:
	mov	DWORD PTR [esp+56], eax
LVL37:
	.loc 1 284 0
	mov	DWORD PTR [esp], 1
	call	_gtk_size_group_new
LVL38:
	mov	DWORD PTR [esp+52], eax
LVL39:
	mov	DWORD PTR [esp+64], OFFSET FLAT:_sections.73174+4
	.loc 1 285 0
	mov	eax, OFFSET FLAT:LC3
LVL40:
	mov	DWORD PTR [esp+60], 0
LVL41:
L27:
LBB14:
	.loc 1 290 0
	mov	DWORD PTR [esp+4], eax
	mov	DWORD PTR [esp], OFFSET FLAT:LC1
	call	_libintl_dgettext
LVL42:
	mov	DWORD PTR [esp+4], eax
	mov	eax, DWORD PTR [esp+76]
	mov	DWORD PTR [esp], eax
	call	_pidgin_make_frame
LVL43:
	mov	DWORD PTR [esp+48], eax
LVL44:
	.loc 1 291 0
	mov	edx, DWORD PTR [esp+64]
	mov	ebx, DWORD PTR [edx]
	test	ebx, ebx
	je	L34
LBE14:
	.loc 1 230 0
	mov	edx, DWORD PTR [esp+60]
	lea	eax, [edx+edx*2]
LVL45:
	lea	eax, [edx+eax*4]
	lea	ebp, _sections.73174[8+eax*4]
	jmp	L33
LVL46:
	.p2align 2,,3
L31:
LBB22:
LBB15:
	.loc 1 302 0
	mov	edx, DWORD PTR [ebp-4]
	mov	DWORD PTR [esp+44], edx
LVL47:
LBB16:
LBB17:
	.loc 1 204 0
	mov	DWORD PTR [esp+4], 18
	mov	DWORD PTR [esp], 0
	call	_gtk_hbox_new
LVL48:
	mov	ebx, eax
LVL49:
	.loc 1 206 0
	mov	DWORD PTR [esp+4], esi
	mov	DWORD PTR [esp], OFFSET FLAT:LC1
	call	_libintl_dgettext
LVL50:
	mov	DWORD PTR [esp], eax
	call	_gtk_label_new
LVL51:
	mov	edi, eax
LVL52:
	.loc 1 207 0
	call	_gtk_misc_get_type
LVL53:
	mov	DWORD PTR [esp+4], eax
	mov	DWORD PTR [esp], edi
	call	_g_type_check_instance_cast
LVL54:
	mov	DWORD PTR [esp+8], 0x3f000000
	mov	DWORD PTR [esp+4], 0x00000000
	mov	DWORD PTR [esp], eax
	call	_gtk_misc_set_alignment
LVL55:
	.loc 1 208 0
	mov	DWORD PTR [esp+4], edi
	mov	eax, DWORD PTR [esp+52]
	mov	DWORD PTR [esp], eax
	call	_gtk_size_group_add_widget
LVL56:
	.loc 1 209 0
	call	_gtk_box_get_type
LVL57:
	mov	esi, eax
LVL58:
	mov	DWORD PTR [esp+4], eax
	mov	DWORD PTR [esp], ebx
	call	_g_type_check_instance_cast
LVL59:
	mov	DWORD PTR [esp+16], 0
	mov	DWORD PTR [esp+12], 0
	mov	DWORD PTR [esp+8], 0
	mov	DWORD PTR [esp+4], edi
	mov	DWORD PTR [esp], eax
	call	_gtk_box_pack_start
LVL60:
	.loc 1 211 0
	mov	eax, DWORD PTR [esp+40]
	mov	DWORD PTR [esp+4], eax
	mov	DWORD PTR [esp], edi
	call	_gtk_widget_set_tooltip_text
LVL61:
	.loc 1 214 0
	mov	DWORD PTR [esp+8], 0
	mov	DWORD PTR [esp+4], OFFSET FLAT:LC15
	mov	DWORD PTR [esp], OFFSET FLAT:LC13
	call	_pidgin_pixbuf_button_from_stock
LVL62:
	mov	edi, eax
LVL63:
	.loc 1 216 0
	mov	DWORD PTR [esp+4], 80
	mov	DWORD PTR [esp], eax
	call	_g_type_check_instance_cast
LVL64:
	mov	DWORD PTR [esp+20], 0
	mov	DWORD PTR [esp+16], 0
	mov	edx, DWORD PTR [esp+44]
	mov	DWORD PTR [esp+12], edx
	mov	DWORD PTR [esp+8], OFFSET FLAT:_theme_font_select_face
	mov	DWORD PTR [esp+4], OFFSET FLAT:LC14
	mov	DWORD PTR [esp], eax
	call	_g_signal_connect_data
LVL65:
	.loc 1 218 0
	mov	DWORD PTR [esp+4], esi
	mov	DWORD PTR [esp], ebx
	call	_g_type_check_instance_cast
LVL66:
	mov	DWORD PTR [esp+16], 0
	mov	DWORD PTR [esp+12], 0
	mov	DWORD PTR [esp+8], 0
	mov	DWORD PTR [esp+4], edi
	mov	DWORD PTR [esp], eax
	call	_gtk_box_pack_start
LVL67:
	.loc 1 220 0
	mov	DWORD PTR [esp+8], 0
	mov	DWORD PTR [esp+4], OFFSET FLAT:LC12
	mov	DWORD PTR [esp], OFFSET FLAT:LC13
	call	_pidgin_pixbuf_button_from_stock
LVL68:
	mov	edi, eax
LVL69:
	.loc 1 222 0
	mov	DWORD PTR [esp+4], 80
	mov	DWORD PTR [esp], eax
	call	_g_type_check_instance_cast
LVL70:
	mov	DWORD PTR [esp+20], 0
	mov	DWORD PTR [esp+16], 0
	mov	edx, DWORD PTR [esp+44]
	mov	DWORD PTR [esp+12], edx
	mov	DWORD PTR [esp+8], OFFSET FLAT:_theme_color_select
	mov	DWORD PTR [esp+4], OFFSET FLAT:LC14
	mov	DWORD PTR [esp], eax
	call	_g_signal_connect_data
LVL71:
	.loc 1 224 0
	mov	DWORD PTR [esp+4], esi
	mov	DWORD PTR [esp], ebx
	call	_g_type_check_instance_cast
LVL72:
	mov	DWORD PTR [esp+16], 0
	mov	DWORD PTR [esp+12], 0
	mov	DWORD PTR [esp+8], 0
	mov	DWORD PTR [esp+4], edi
	mov	DWORD PTR [esp], eax
	call	_gtk_box_pack_start
LVL73:
LBE17:
LBE16:
	.loc 1 304 0
	mov	DWORD PTR [esp+4], esi
	mov	eax, DWORD PTR [esp+48]
	mov	DWORD PTR [esp], eax
	call	_g_type_check_instance_cast
LVL74:
	mov	DWORD PTR [esp+16], 0
	mov	DWORD PTR [esp+12], 0
	mov	DWORD PTR [esp+8], 0
	mov	DWORD PTR [esp+4], ebx
	mov	DWORD PTR [esp], eax
	call	_gtk_box_pack_start
LVL75:
	add	ebp, 4
LBE15:
	.loc 1 291 0
	mov	ebx, DWORD PTR [ebp-4]
LVL76:
	test	ebx, ebx
	je	L34
LVL77:
L33:
LBB21:
	.loc 1 294 0
	mov	DWORD PTR [esp+4], ebx
	mov	eax, DWORD PTR [esp+56]
	mov	DWORD PTR [esp], eax
	call	_g_object_class_find_property
LVL78:
	mov	edi, eax
LVL79:
	.loc 1 295 0
	mov	DWORD PTR [esp], eax
	call	_g_param_spec_get_nick
LVL80:
	mov	esi, eax
LVL81:
	.loc 1 296 0
	mov	DWORD PTR [esp], edi
	call	_g_param_spec_get_blurb
LVL82:
	mov	DWORD PTR [esp+40], eax
LVL83:
LBB18:
	.loc 1 297 0
	mov	edx, DWORD PTR __imp__g_param_spec_types
	mov	eax, DWORD PTR [edx]
LVL84:
	mov	eax, DWORD PTR [eax+64]
LVL85:
	test	edi, edi
	je	L29
	.loc 1 297 0 is_stmt 0 discriminator 1
	mov	edx, DWORD PTR [edi]
	test	edx, edx
	je	L29
	cmp	DWORD PTR [edx], eax
	je	L30
L29:
	.loc 1 297 0 discriminator 2
	mov	DWORD PTR [esp+4], eax
	mov	DWORD PTR [esp], edi
	call	_g_type_check_instance_is_a
LVL86:
LBE18:
	test	eax, eax
	je	L31
LVL87:
L30:
LBB19:
LBB20:
	.loc 1 178 0 is_stmt 1
	mov	DWORD PTR [esp+4], 18
	mov	DWORD PTR [esp], 0
	call	_gtk_hbox_new
LVL88:
	mov	edi, eax
LVL89:
	.loc 1 180 0
	mov	DWORD PTR [esp+4], esi
	mov	DWORD PTR [esp], OFFSET FLAT:LC1
	call	_libintl_dgettext
LVL90:
	mov	DWORD PTR [esp], eax
	call	_gtk_label_new
LVL91:
	mov	esi, eax
LVL92:
	.loc 1 181 0
	call	_gtk_misc_get_type
LVL93:
	mov	DWORD PTR [esp+4], eax
	mov	DWORD PTR [esp], esi
	call	_g_type_check_instance_cast
LVL94:
	mov	DWORD PTR [esp+8], 0x3f000000
	mov	DWORD PTR [esp+4], 0x00000000
	mov	DWORD PTR [esp], eax
	call	_gtk_misc_set_alignment
LVL95:
	.loc 1 182 0
	mov	DWORD PTR [esp+4], esi
	mov	eax, DWORD PTR [esp+52]
	mov	DWORD PTR [esp], eax
	call	_gtk_size_group_add_widget
LVL96:
	.loc 1 183 0
	call	_gtk_box_get_type
LVL97:
	mov	DWORD PTR [esp+4], eax
	mov	DWORD PTR [esp], edi
	mov	DWORD PTR [esp+36], eax
	call	_g_type_check_instance_cast
LVL98:
	mov	DWORD PTR [esp+16], 0
	mov	DWORD PTR [esp+12], 0
	mov	DWORD PTR [esp+8], 0
	mov	DWORD PTR [esp+4], esi
	mov	DWORD PTR [esp], eax
	call	_gtk_box_pack_start
LVL99:
	.loc 1 185 0
	mov	eax, DWORD PTR [esp+40]
	mov	DWORD PTR [esp+4], eax
	mov	DWORD PTR [esp], esi
	call	_gtk_widget_set_tooltip_text
LVL100:
	.loc 1 188 0
	mov	DWORD PTR [esp+8], 0
	mov	DWORD PTR [esp+4], OFFSET FLAT:LC12
	mov	DWORD PTR [esp], OFFSET FLAT:LC13
	call	_pidgin_pixbuf_button_from_stock
LVL101:
	mov	esi, eax
LVL102:
	.loc 1 190 0
	mov	DWORD PTR [esp+4], 80
	mov	DWORD PTR [esp], eax
	call	_g_type_check_instance_cast
LVL103:
	mov	DWORD PTR [esp+20], 0
	mov	DWORD PTR [esp+16], 0
	mov	DWORD PTR [esp+12], ebx
	mov	DWORD PTR [esp+8], OFFSET FLAT:_theme_color_select
	mov	DWORD PTR [esp+4], OFFSET FLAT:LC14
	mov	DWORD PTR [esp], eax
	call	_g_signal_connect_data
LVL104:
	.loc 1 192 0
	mov	edx, DWORD PTR [esp+36]
	mov	DWORD PTR [esp+4], edx
	mov	DWORD PTR [esp], edi
	call	_g_type_check_instance_cast
LVL105:
	mov	DWORD PTR [esp+16], 0
	mov	DWORD PTR [esp+12], 0
	mov	DWORD PTR [esp+8], 0
	mov	DWORD PTR [esp+4], esi
	mov	DWORD PTR [esp], eax
	call	_gtk_box_pack_start
LVL106:
LBE20:
LBE19:
	.loc 1 300 0
	mov	edx, DWORD PTR [esp+36]
	mov	DWORD PTR [esp+4], edx
	mov	eax, DWORD PTR [esp+48]
	mov	DWORD PTR [esp], eax
	call	_g_type_check_instance_cast
LVL107:
	mov	DWORD PTR [esp+16], 0
	mov	DWORD PTR [esp+12], 0
	mov	DWORD PTR [esp+8], 0
	mov	DWORD PTR [esp+4], edi
	mov	DWORD PTR [esp], eax
	call	_gtk_box_pack_start
LVL108:
	add	ebp, 4
LBE21:
	.loc 1 291 0
	mov	ebx, DWORD PTR [ebp-4]
LVL109:
	test	ebx, ebx
	jne	L33
LVL110:
L34:
LBE22:
	.loc 1 285 0
	inc	DWORD PTR [esp+60]
LVL111:
	add	DWORD PTR [esp+64], 52
	mov	edx, DWORD PTR [esp+64]
	mov	eax, DWORD PTR [edx-4]
	test	eax, eax
	jne	L27
	.loc 1 309 0
	mov	eax, DWORD PTR [esp+72]
	mov	DWORD PTR [esp+4], eax
	mov	eax, DWORD PTR [esp+68]
	mov	DWORD PTR [esp], eax
	call	_g_type_check_instance_cast
LVL112:
	mov	DWORD PTR [esp+4], 1
	mov	DWORD PTR [esp], eax
	call	_gtk_dialog_set_has_separator
LVL113:
	.loc 1 313 0
	mov	eax, DWORD PTR [esp+72]
	mov	DWORD PTR [esp+4], eax
	mov	eax, DWORD PTR [esp+68]
	mov	DWORD PTR [esp], eax
	call	_g_type_check_instance_cast
LVL114:
	mov	edx, DWORD PTR [esp+68]
	mov	DWORD PTR [esp+12], edx
	mov	DWORD PTR [esp+8], OFFSET FLAT:_close_blist_theme
	mov	DWORD PTR [esp+4], OFFSET FLAT:LC16
	mov	DWORD PTR [esp], eax
	call	_pidgin_dialog_add_button
LVL115:
	.loc 1 315 0
	mov	eax, DWORD PTR [esp+68]
	mov	DWORD PTR [esp], eax
	call	_gtk_widget_show_all
LVL116:
	.loc 1 317 0
	mov	edx, DWORD PTR [esp+92]
	xor	edx, DWORD PTR ___stack_chk_guard
	jne	L48
	mov	eax, DWORD PTR [esp+52]
	mov	DWORD PTR [esp+128], eax
	.loc 1 318 0
	add	esp, 108
LCFI18:
	.cfi_remember_state
	.cfi_def_cfa_offset 20
	pop	ebx
LCFI19:
	.cfi_restore 3
	.cfi_def_cfa_offset 16
	pop	esi
LCFI20:
	.cfi_restore 6
	.cfi_def_cfa_offset 12
	pop	edi
LCFI21:
	.cfi_restore 7
	.cfi_def_cfa_offset 8
	pop	ebp
LCFI22:
	.cfi_restore 5
	.cfi_def_cfa_offset 4
	.loc 1 317 0
	jmp	_g_object_unref
LVL117:
L47:
LCFI23:
	.cfi_restore_state
LBB23:
	.loc 1 277 0
	call	_pidgin_blist_theme_get_type
LVL118:
	mov	DWORD PTR [esp+20], 0
	mov	DWORD PTR [esp+16], OFFSET FLAT:LC6
	mov	DWORD PTR [esp+12], OFFSET FLAT:LC7
	mov	DWORD PTR [esp+8], OFFSET FLAT:LC8
	mov	DWORD PTR [esp+4], OFFSET FLAT:LC9
	mov	DWORD PTR [esp], eax
	call	_g_object_new
LVL119:
	.loc 1 280 0
	mov	DWORD PTR [esp], eax
	mov	DWORD PTR [esp+36], eax
	call	_pidgin_blist_set_theme
LVL120:
	mov	eax, DWORD PTR [esp+36]
	jmp	L25
LVL121:
L48:
LBE23:
	.loc 1 317 0
	call	___stack_chk_fail
LVL122:
	.cfi_endproc
LFE101:
	.section .rdata,"dr"
LC17:
	.ascii "Select Color\0"
LC18:
	.ascii "response\0"
	.text
	.p2align 2,,3
	.def	_theme_color_select;	.scl	3;	.type	32;	.endef
_theme_color_select:
LFB98:
	.loc 1 138 0
	.cfi_startproc
LVL123:
	push	ebp
LCFI24:
	.cfi_def_cfa_offset 8
	.cfi_offset 5, -8
	push	edi
LCFI25:
	.cfi_def_cfa_offset 12
	.cfi_offset 7, -12
	push	esi
LCFI26:
	.cfi_def_cfa_offset 16
	.cfi_offset 6, -16
	push	ebx
LCFI27:
	.cfi_def_cfa_offset 20
	.cfi_offset 3, -20
	sub	esp, 60
LCFI28:
	.cfi_def_cfa_offset 80
	mov	ebx, DWORD PTR [esp+84]
	.loc 1 138 0
	mov	eax, DWORD PTR ___stack_chk_guard
	mov	DWORD PTR [esp+44], eax
	xor	eax, eax
	.loc 1 141 0
	mov	DWORD PTR [esp+36], 0
LVL124:
	.loc 1 143 0
	call	_pidgin_blist_get_theme
LVL125:
	mov	esi, eax
LVL126:
	.loc 1 145 0
	mov	edx, ebx
	call	_prop_type_is_color
LVL127:
	test	eax, eax
	je	L50
	.loc 1 146 0
	mov	DWORD PTR [esp+4], 80
	mov	DWORD PTR [esp], esi
	call	_g_type_check_instance_cast
LVL128:
	mov	DWORD PTR [esp+12], 0
	lea	edx, [esp+36]
	mov	DWORD PTR [esp+8], edx
	mov	DWORD PTR [esp+4], ebx
	mov	DWORD PTR [esp], eax
	call	_g_object_get
LVL129:
L51:
	.loc 1 154 0
	mov	DWORD PTR [esp+4], OFFSET FLAT:LC17
	mov	DWORD PTR [esp], OFFSET FLAT:LC1
	call	_libintl_dgettext
LVL130:
	mov	DWORD PTR [esp], eax
	call	_gtk_color_selection_dialog_new
LVL131:
	mov	esi, eax
LVL132:
	.loc 1 156 0
	mov	edi, DWORD PTR [esp+36]
	test	edi, edi
	je	L53
	.loc 1 157 0
	call	_gtk_color_selection_get_type
LVL133:
	mov	ebp, eax
	call	_gtk_color_selection_dialog_get_type
LVL134:
	mov	DWORD PTR [esp+4], eax
	mov	DWORD PTR [esp], esi
	call	_g_type_check_instance_cast
LVL135:
	mov	DWORD PTR [esp], eax
	call	_gtk_color_selection_dialog_get_color_selection
LVL136:
	mov	DWORD PTR [esp+4], ebp
	mov	DWORD PTR [esp], eax
	call	_g_type_check_instance_cast
LVL137:
	mov	DWORD PTR [esp+4], edi
	mov	DWORD PTR [esp], eax
	call	_gtk_color_selection_set_current_color
LVL138:
L53:
	.loc 1 165 0
	mov	DWORD PTR [esp+4], 80
	mov	DWORD PTR [esp], esi
	call	_g_type_check_instance_cast
LVL139:
	mov	DWORD PTR [esp+20], 0
	mov	DWORD PTR [esp+16], 0
	mov	DWORD PTR [esp+12], ebx
	mov	DWORD PTR [esp+8], OFFSET FLAT:_theme_color_selected
	mov	DWORD PTR [esp+4], OFFSET FLAT:LC18
	mov	DWORD PTR [esp], eax
	call	_g_signal_connect_data
LVL140:
	.loc 1 168 0
	mov	DWORD PTR [esp], esi
	call	_gtk_widget_show_all
LVL141:
	.loc 1 169 0
	mov	eax, DWORD PTR [esp+44]
	xor	eax, DWORD PTR ___stack_chk_guard
	jne	L62
	add	esp, 60
LCFI29:
	.cfi_remember_state
	.cfi_def_cfa_offset 20
	pop	ebx
LCFI30:
	.cfi_restore 3
	.cfi_def_cfa_offset 16
	pop	esi
LCFI31:
	.cfi_restore 6
	.cfi_def_cfa_offset 12
LVL142:
	pop	edi
LCFI32:
	.cfi_restore 7
	.cfi_def_cfa_offset 8
	pop	ebp
LCFI33:
	.cfi_restore 5
	.cfi_def_cfa_offset 4
	ret
LVL143:
	.p2align 2,,3
L50:
LCFI34:
	.cfi_restore_state
LBB24:
	.loc 1 148 0
	mov	DWORD PTR [esp+40], 0
LVL144:
	.loc 1 149 0
	mov	DWORD PTR [esp+4], 80
	mov	DWORD PTR [esp], esi
	call	_g_type_check_instance_cast
LVL145:
	mov	DWORD PTR [esp+12], 0
	lea	edx, [esp+40]
	mov	DWORD PTR [esp+8], edx
	mov	DWORD PTR [esp+4], ebx
	mov	DWORD PTR [esp], eax
	call	_g_object_get
LVL146:
	.loc 1 150 0
	mov	eax, DWORD PTR [esp+40]
	test	eax, eax
	je	L51
	.loc 1 151 0
	mov	DWORD PTR [esp], eax
	call	_pidgin_theme_font_get_color
LVL147:
	mov	DWORD PTR [esp+36], eax
	jmp	L51
LVL148:
L62:
LBE24:
	.loc 1 169 0
	call	___stack_chk_fail
LVL149:
	.cfi_endproc
LFE98:
	.p2align 2,,3
	.def	_theme_color_selected;	.scl	3;	.type	32;	.endef
_theme_color_selected:
LFB95:
	.loc 1 62 0
	.cfi_startproc
LVL150:
	push	ebp
LCFI35:
	.cfi_def_cfa_offset 8
	.cfi_offset 5, -8
	push	edi
LCFI36:
	.cfi_def_cfa_offset 12
	.cfi_offset 7, -12
	push	esi
LCFI37:
	.cfi_def_cfa_offset 16
	.cfi_offset 6, -16
	push	ebx
LCFI38:
	.cfi_def_cfa_offset 20
	.cfi_offset 3, -20
	sub	esp, 60
LCFI39:
	.cfi_def_cfa_offset 80
	mov	ebx, DWORD PTR [esp+80]
	mov	esi, DWORD PTR [esp+88]
	.loc 1 62 0
	mov	eax, DWORD PTR ___stack_chk_guard
	mov	DWORD PTR [esp+44], eax
	xor	eax, eax
	.loc 1 63 0
	cmp	DWORD PTR [esp+84], -5
	je	L71
LVL151:
L64:
	.loc 1 94 0
	call	_gtk_widget_get_type
LVL152:
	mov	DWORD PTR [esp+4], eax
	mov	DWORD PTR [esp], ebx
	call	_g_type_check_instance_cast
LVL153:
	mov	DWORD PTR [esp], eax
	call	_gtk_widget_destroy
LVL154:
	.loc 1 95 0
	mov	eax, DWORD PTR [esp+44]
	xor	eax, DWORD PTR ___stack_chk_guard
	jne	L72
	add	esp, 60
LCFI40:
	.cfi_remember_state
	.cfi_def_cfa_offset 20
	pop	ebx
LCFI41:
	.cfi_restore 3
	.cfi_def_cfa_offset 16
	pop	esi
LCFI42:
	.cfi_restore 6
	.cfi_def_cfa_offset 12
	pop	edi
LCFI43:
	.cfi_restore 7
	.cfi_def_cfa_offset 8
	pop	ebp
LCFI44:
	.cfi_restore 5
	.cfi_def_cfa_offset 4
	ret
LVL155:
	.p2align 2,,3
L71:
LCFI45:
	.cfi_restore_state
LBB25:
	.loc 1 70 0
	call	_gtk_color_selection_dialog_get_type
LVL156:
	mov	DWORD PTR [esp+4], eax
	mov	DWORD PTR [esp], ebx
	call	_g_type_check_instance_cast
LVL157:
	.loc 1 69 0
	mov	DWORD PTR [esp], eax
	call	_gtk_color_selection_dialog_get_color_selection
LVL158:
	mov	edi, eax
LVL159:
	.loc 1 74 0
	call	_gtk_color_selection_get_type
LVL160:
	mov	DWORD PTR [esp+4], eax
	mov	DWORD PTR [esp], edi
	call	_g_type_check_instance_cast
LVL161:
	lea	ebp, [esp+32]
	mov	DWORD PTR [esp+4], ebp
	mov	DWORD PTR [esp], eax
	call	_gtk_color_selection_get_current_color
LVL162:
	.loc 1 76 0
	call	_pidgin_blist_get_theme
LVL163:
	mov	edi, eax
LVL164:
	.loc 1 78 0
	mov	edx, esi
	call	_prop_type_is_color
LVL165:
	test	eax, eax
	je	L65
	.loc 1 79 0
	mov	DWORD PTR [esp+4], 80
	mov	DWORD PTR [esp], edi
	call	_g_type_check_instance_cast
LVL166:
	mov	DWORD PTR [esp+12], 0
	mov	DWORD PTR [esp+8], ebp
	mov	DWORD PTR [esp+4], esi
	mov	DWORD PTR [esp], eax
	call	_g_object_set
LVL167:
L66:
	.loc 1 91 0
	mov	DWORD PTR [esp], edi
	call	_pidgin_blist_set_theme
LVL168:
	jmp	L64
LVL169:
	.p2align 2,,3
L65:
LBB26:
	.loc 1 81 0
	mov	DWORD PTR [esp+28], 0
LVL170:
	.loc 1 82 0
	mov	DWORD PTR [esp+4], 80
	mov	DWORD PTR [esp], edi
	call	_g_type_check_instance_cast
LVL171:
	mov	DWORD PTR [esp+12], 0
	lea	edx, [esp+28]
	mov	DWORD PTR [esp+8], edx
	mov	DWORD PTR [esp+4], esi
	mov	DWORD PTR [esp], eax
	call	_g_object_get
LVL172:
	.loc 1 83 0
	mov	eax, DWORD PTR [esp+28]
	.loc 1 84 0
	mov	DWORD PTR [esp+4], ebp
	.loc 1 83 0
	test	eax, eax
	je	L73
	.loc 1 88 0
	mov	DWORD PTR [esp], eax
	call	_pidgin_theme_font_set_color
LVL173:
	jmp	L66
	.p2align 2,,3
L73:
	.loc 1 84 0
	mov	DWORD PTR [esp], 0
	call	_pidgin_theme_font_new
LVL174:
	mov	ebp, eax
LVL175:
	mov	DWORD PTR [esp+28], eax
LVL176:
	.loc 1 85 0
	mov	DWORD PTR [esp+4], 80
	mov	DWORD PTR [esp], edi
	call	_g_type_check_instance_cast
LVL177:
	mov	DWORD PTR [esp+12], 0
	mov	DWORD PTR [esp+8], ebp
	mov	DWORD PTR [esp+4], esi
	mov	DWORD PTR [esp], eax
	call	_g_object_set
LVL178:
	.loc 1 86 0
	mov	eax, DWORD PTR [esp+28]
	mov	DWORD PTR [esp], eax
	call	_pidgin_theme_font_free
LVL179:
	jmp	L66
LVL180:
L72:
LBE26:
LBE25:
	.loc 1 95 0
	call	___stack_chk_fail
LVL181:
	.cfi_endproc
LFE95:
	.p2align 2,,3
	.def	_close_blist_theme;	.scl	3;	.type	32;	.endef
_close_blist_theme:
LFB94:
	.loc 1 56 0
	.cfi_startproc
LVL182:
	sub	esp, 28
LCFI46:
	.cfi_def_cfa_offset 32
	mov	eax, DWORD PTR [esp+36]
	.loc 1 56 0
	mov	edx, DWORD PTR ___stack_chk_guard
	mov	DWORD PTR [esp+12], edx
	xor	edx, edx
	.loc 1 57 0
	mov	edx, DWORD PTR [esp+12]
	xor	edx, DWORD PTR ___stack_chk_guard
	jne	L78
	mov	DWORD PTR [esp+32], eax
	.loc 1 58 0
	add	esp, 28
LCFI47:
	.cfi_remember_state
	.cfi_def_cfa_offset 4
	.loc 1 57 0
	jmp	_gtk_widget_destroy
LVL183:
L78:
LCFI48:
	.cfi_restore_state
	call	___stack_chk_fail
LVL184:
	.cfi_endproc
LFE94:
	.section .rdata,"dr"
LC19:
	.ascii "Select Font\0"
	.text
	.p2align 2,,3
	.def	_theme_font_select_face;	.scl	3;	.type	32;	.endef
_theme_font_select_face:
LFB97:
	.loc 1 110 0
	.cfi_startproc
LVL185:
	push	ebp
LCFI49:
	.cfi_def_cfa_offset 8
	.cfi_offset 5, -8
	push	edi
LCFI50:
	.cfi_def_cfa_offset 12
	.cfi_offset 7, -12
	push	esi
LCFI51:
	.cfi_def_cfa_offset 16
	.cfi_offset 6, -16
	push	ebx
LCFI52:
	.cfi_def_cfa_offset 20
	.cfi_offset 3, -20
	sub	esp, 60
LCFI53:
	.cfi_def_cfa_offset 80
	mov	ebx, DWORD PTR [esp+84]
	.loc 1 110 0
	mov	eax, DWORD PTR ___stack_chk_guard
	mov	DWORD PTR [esp+44], eax
	xor	eax, eax
	.loc 1 113 0
	mov	DWORD PTR [esp+40], 0
LVL186:
	.loc 1 116 0
	call	_pidgin_blist_get_theme
LVL187:
	mov	esi, eax
LVL188:
	.loc 1 117 0
	mov	DWORD PTR [esp+4], 80
	mov	DWORD PTR [esp], eax
	call	_g_type_check_instance_cast
LVL189:
	mov	DWORD PTR [esp+12], 0
	lea	edi, [esp+40]
	mov	DWORD PTR [esp+8], edi
	mov	DWORD PTR [esp+4], ebx
	mov	DWORD PTR [esp], eax
	call	_g_object_get
LVL190:
	.loc 1 119 0
	mov	edx, DWORD PTR [esp+40]
	test	edx, edx
	je	L87
L80:
	.loc 1 126 0
	mov	DWORD PTR [esp], edx
	call	_pidgin_theme_font_get_font_face
LVL191:
	mov	esi, eax
LVL192:
	.loc 1 127 0
	mov	DWORD PTR [esp+4], OFFSET FLAT:LC19
	mov	DWORD PTR [esp], OFFSET FLAT:LC1
	call	_libintl_dgettext
LVL193:
	mov	DWORD PTR [esp], eax
	call	_gtk_font_selection_dialog_new
LVL194:
	mov	ebx, eax
LVL195:
	.loc 1 128 0
	test	esi, esi
	je	L81
	.loc 1 128 0 is_stmt 0 discriminator 1
	cmp	BYTE PTR [esi], 0
	je	L81
	.loc 1 129 0 is_stmt 1
	call	_gtk_font_selection_dialog_get_type
LVL196:
	mov	DWORD PTR [esp+4], eax
	mov	DWORD PTR [esp], ebx
	call	_g_type_check_instance_cast
LVL197:
	mov	DWORD PTR [esp+4], esi
	mov	DWORD PTR [esp], eax
	call	_gtk_font_selection_dialog_set_font_name
LVL198:
L81:
	.loc 1 131 0
	mov	esi, DWORD PTR [esp+40]
LVL199:
	mov	DWORD PTR [esp+4], 80
	mov	DWORD PTR [esp], ebx
	call	_g_type_check_instance_cast
LVL200:
	mov	DWORD PTR [esp+20], 0
	mov	DWORD PTR [esp+16], 0
	mov	DWORD PTR [esp+12], esi
	mov	DWORD PTR [esp+8], OFFSET FLAT:_theme_font_face_selected
	mov	DWORD PTR [esp+4], OFFSET FLAT:LC18
	mov	DWORD PTR [esp], eax
	call	_g_signal_connect_data
LVL201:
	.loc 1 133 0
	mov	DWORD PTR [esp], ebx
	call	_gtk_widget_show_all
LVL202:
	.loc 1 134 0
	mov	eax, DWORD PTR [esp+44]
	xor	eax, DWORD PTR ___stack_chk_guard
	jne	L88
	add	esp, 60
LCFI54:
	.cfi_remember_state
	.cfi_def_cfa_offset 20
	pop	ebx
LCFI55:
	.cfi_restore 3
	.cfi_def_cfa_offset 16
LVL203:
	pop	esi
LCFI56:
	.cfi_restore 6
	.cfi_def_cfa_offset 12
	pop	edi
LCFI57:
	.cfi_restore 7
	.cfi_def_cfa_offset 8
	pop	ebp
LCFI58:
	.cfi_restore 5
	.cfi_def_cfa_offset 4
	ret
LVL204:
	.p2align 2,,3
L87:
LCFI59:
	.cfi_restore_state
	.loc 1 120 0
	mov	DWORD PTR [esp+4], 0
	mov	DWORD PTR [esp], 0
	call	_pidgin_theme_font_new
LVL205:
	mov	ebp, eax
LVL206:
	mov	DWORD PTR [esp+40], eax
LVL207:
	.loc 1 121 0
	mov	DWORD PTR [esp+4], 80
	mov	DWORD PTR [esp], esi
	call	_g_type_check_instance_cast
LVL208:
	mov	DWORD PTR [esp+12], 0
	mov	DWORD PTR [esp+8], ebp
	mov	DWORD PTR [esp+4], ebx
	mov	DWORD PTR [esp], eax
	call	_g_object_set
LVL209:
	.loc 1 122 0
	mov	eax, DWORD PTR [esp+40]
	mov	DWORD PTR [esp], eax
	call	_pidgin_theme_font_free
LVL210:
	.loc 1 123 0
	mov	DWORD PTR [esp+4], 80
	mov	DWORD PTR [esp], esi
	call	_g_type_check_instance_cast
LVL211:
	mov	DWORD PTR [esp+12], 0
	mov	DWORD PTR [esp+8], edi
	mov	DWORD PTR [esp+4], ebx
	mov	DWORD PTR [esp], eax
	call	_g_object_get
LVL212:
	mov	edx, DWORD PTR [esp+40]
	jmp	L80
LVL213:
L88:
	.loc 1 134 0
	call	___stack_chk_fail
LVL214:
	.cfi_endproc
LFE97:
	.p2align 2,,3
	.def	_theme_font_face_selected;	.scl	3;	.type	32;	.endef
_theme_font_face_selected:
LFB96:
	.loc 1 99 0
	.cfi_startproc
LVL215:
	push	esi
LCFI60:
	.cfi_def_cfa_offset 8
	.cfi_offset 6, -8
	push	ebx
LCFI61:
	.cfi_def_cfa_offset 12
	.cfi_offset 3, -12
	sub	esp, 36
LCFI62:
	.cfi_def_cfa_offset 48
	mov	ebx, DWORD PTR [esp+48]
	mov	eax, DWORD PTR [esp+52]
	mov	esi, DWORD PTR [esp+56]
	.loc 1 99 0
	mov	edx, DWORD PTR ___stack_chk_guard
	mov	DWORD PTR [esp+28], edx
	xor	edx, edx
	.loc 1 100 0
	cmp	eax, -5
	je	L90
	.loc 1 100 0 is_stmt 0 discriminator 1
	cmp	eax, -10
	je	L90
L91:
	.loc 1 105 0 is_stmt 1
	mov	eax, DWORD PTR [esp+28]
	xor	eax, DWORD PTR ___stack_chk_guard
	jne	L98
	mov	DWORD PTR [esp+48], ebx
	.loc 1 106 0
	add	esp, 36
LCFI63:
	.cfi_remember_state
	.cfi_def_cfa_offset 12
	pop	ebx
LCFI64:
	.cfi_restore 3
	.cfi_def_cfa_offset 8
	pop	esi
LCFI65:
	.cfi_restore 6
	.cfi_def_cfa_offset 4
	.loc 1 105 0
	jmp	_gtk_widget_destroy
LVL216:
	.p2align 2,,3
L90:
LCFI66:
	.cfi_restore_state
LBB27:
	.loc 1 101 0
	call	_gtk_font_selection_dialog_get_type
LVL217:
	mov	DWORD PTR [esp+4], eax
	mov	DWORD PTR [esp], ebx
	call	_g_type_check_instance_cast
LVL218:
	mov	DWORD PTR [esp], eax
	call	_gtk_font_selection_dialog_get_font_name
LVL219:
	.loc 1 102 0
	mov	DWORD PTR [esp+4], eax
	mov	DWORD PTR [esp], esi
	call	_pidgin_theme_font_set_font_face
LVL220:
	.loc 1 103 0
	call	_purple_get_blist
LVL221:
	mov	DWORD PTR [esp], eax
	call	_pidgin_blist_refresh
LVL222:
	jmp	L91
L98:
LBE27:
	.loc 1 105 0
	call	___stack_chk_fail
LVL223:
	.cfi_endproc
LFE96:
	.p2align 2,,3
	.globl	_purple_init_plugin
	.def	_purple_init_plugin;	.scl	2;	.type	32;	.endef
_purple_init_plugin:
LFB105:
	.loc 1 382 0
	.cfi_startproc
LVL224:
	sub	esp, 28
LCFI67:
	.cfi_def_cfa_offset 32
	mov	eax, DWORD PTR [esp+32]
	.loc 1 382 0
	mov	edx, DWORD PTR ___stack_chk_guard
	mov	DWORD PTR [esp+12], edx
	xor	edx, edx
	mov	DWORD PTR [eax+16], OFFSET FLAT:_info
	mov	edx, DWORD PTR [esp+12]
	xor	edx, DWORD PTR ___stack_chk_guard
	jne	L103
	mov	DWORD PTR [esp+32], eax
	add	esp, 28
LCFI68:
	.cfi_remember_state
	.cfi_def_cfa_offset 4
	jmp	_purple_plugin_register
LVL225:
L103:
LCFI69:
	.cfi_restore_state
	call	___stack_chk_fail
LVL226:
	.cfi_endproc
LFE105:
	.section .rdata,"dr"
LC20:
	.ascii "gtk-gaim\0"
LC21:
	.ascii "gtk-theme-editor\0"
LC22:
	.ascii "Pidgin Theme Editor\0"
LC23:
	.ascii "2.10.11\0"
LC24:
	.ascii "Pidgin Theme Editor.\0"
	.align 4
LC25:
	.ascii "Sadrul Habib Chowdhury <imadil@gmail.com>\0"
LC26:
	.ascii "http://pidgin.im/\0"
	.data
	.align 32
_info:
	.long	5
	.long	2
	.long	10
	.long	0
	.long	LC20
	.long	0
	.long	0
	.long	0
	.long	LC21
	.long	LC22
	.long	LC23
	.long	LC24
	.long	LC22
	.long	LC25
	.long	LC26
	.long	_plugin_load
	.long	0
	.long	0
	.long	0
	.long	0
	.long	0
	.long	_actions
	.long	0
	.long	0
	.long	0
	.long	0
	.section .rdata,"dr"
LC27:
	.ascii "contact-color\0"
LC28:
	.ascii "contact\0"
LC29:
	.ascii "online\0"
LC30:
	.ascii "away\0"
LC31:
	.ascii "offline\0"
LC32:
	.ascii "idle\0"
LC33:
	.ascii "message\0"
LC34:
	.ascii "message_nick_said\0"
LC35:
	.ascii "status\0"
LC36:
	.ascii "Group\0"
LC37:
	.ascii "expanded-color\0"
LC38:
	.ascii "expanded-text\0"
LC39:
	.ascii "collapsed-color\0"
LC40:
	.ascii "collapsed-text\0"
	.align 32
_sections.73174:
	.long	LC3
	.long	LC27
	.long	LC28
	.long	LC29
	.long	LC30
	.long	LC31
	.long	LC32
	.long	LC33
	.long	LC34
	.long	LC35
	.long	0
	.space 8
	.long	LC36
	.long	LC37
	.long	LC38
	.long	LC39
	.long	LC40
	.long	0
	.space 28
	.long	0
	.space 48
	.text
Letext0:
	.file 2 "c:/workspace/pidgin-devel/win32-dev/mingw-4.7.2/bin/../lib/gcc/mingw32/4.7.2/../../../../include/stdio.h"
	.file 3 "../../../win32-dev/gtk_2_0-2.14/lib/glib-2.0/include/glibconfig.h"
	.file 4 "../../../win32-dev/gtk_2_0-2.14/include/glib-2.0/glib/gtypes.h"
	.file 5 "../../../win32-dev/gtk_2_0-2.14/include/glib-2.0/glib/garray.h"
	.file 6 "../../../win32-dev/gtk_2_0-2.14/include/glib-2.0/glib/glist.h"
	.file 7 "../../../win32-dev/gtk_2_0-2.14/include/glib-2.0/glib/gdataset.h"
	.file 8 "../../../win32-dev/gtk_2_0-2.14/include/glib-2.0/glib/ghash.h"
	.file 9 "../../../win32-dev/gtk_2_0-2.14/include/glib-2.0/glib/gslist.h"
	.file 10 "../../../win32-dev/gtk_2_0-2.14/include/glib-2.0/gobject/gtype.h"
	.file 11 "../../../win32-dev/gtk_2_0-2.14/include/glib-2.0/gobject/gvalue.h"
	.file 12 "../../../win32-dev/gtk_2_0-2.14/include/glib-2.0/glib/gscanner.h"
	.file 13 "../../../win32-dev/gtk_2_0-2.14/include/glib-2.0/gobject/gparam.h"
	.file 14 "../../../win32-dev/gtk_2_0-2.14/include/glib-2.0/gobject/gclosure.h"
	.file 15 "../../../win32-dev/gtk_2_0-2.14/include/glib-2.0/gobject/gsignal.h"
	.file 16 "../../../win32-dev/gtk_2_0-2.14/include/glib-2.0/gobject/gobject.h"
	.file 17 "../../libpurple/plugin.h"
	.file 18 "../../libpurple/pluginpref.h"
	.file 19 "../../libpurple/blist.h"
	.file 20 "../../../win32-dev/gtk_2_0-2.14/include/cairo/cairo.h"
	.file 21 "../../../win32-dev/gtk_2_0-2.14/include/pango-1.0/pango/pango-font.h"
	.file 22 "../../../win32-dev/gtk_2_0-2.14/include/gtk-2.0/gdk/gdktypes.h"
	.file 23 "../../../win32-dev/gtk_2_0-2.14/include/gtk-2.0/gdk/gdkcolor.h"
	.file 24 "../../../win32-dev/gtk_2_0-2.14/include/gtk-2.0/gdk/gdkfont.h"
	.file 25 "../../../win32-dev/gtk_2_0-2.14/include/gtk-2.0/gdk/gdkgc.h"
	.file 26 "../../../win32-dev/gtk_2_0-2.14/include/gtk-2.0/gdk/gdkvisual.h"
	.file 27 "../../../win32-dev/gtk_2_0-2.14/include/gtk-2.0/gdk/gdkdrawable.h"
	.file 28 "../../../win32-dev/gtk_2_0-2.14/include/gtk-2.0/gdk/gdkscreen.h"
	.file 29 "../../../win32-dev/gtk_2_0-2.14/include/gtk-2.0/gdk/gdkinput.h"
	.file 30 "../../../win32-dev/gtk_2_0-2.14/include/gtk-2.0/gtk/gtktypeutils.h"
	.file 31 "../../../win32-dev/gtk_2_0-2.14/include/gtk-2.0/gtk/gtkobject.h"
	.file 32 "../../../win32-dev/gtk_2_0-2.14/include/gtk-2.0/gtk/gtkstyle.h"
	.file 33 "../../../win32-dev/gtk_2_0-2.14/include/gtk-2.0/gtk/gtkrc.h"
	.file 34 "../../../win32-dev/gtk_2_0-2.14/include/gtk-2.0/gtk/gtkwidget.h"
	.file 35 "../../../win32-dev/gtk_2_0-2.14/include/gtk-2.0/gtk/gtkwindow.h"
	.file 36 "../../../win32-dev/gtk_2_0-2.14/include/gtk-2.0/gtk/gtkcontainer.h"
	.file 37 "../../../win32-dev/gtk_2_0-2.14/include/gtk-2.0/gtk/gtkbin.h"
	.file 38 "../../../win32-dev/gtk_2_0-2.14/include/gtk-2.0/gtk/gtkdialog.h"
	.file 39 "../../../win32-dev/gtk_2_0-2.14/include/gtk-2.0/gtk/gtkmisc.h"
	.file 40 "../../../win32-dev/gtk_2_0-2.14/include/gtk-2.0/gtk/gtkbox.h"
	.file 41 "../../../win32-dev/gtk_2_0-2.14/include/gtk-2.0/gtk/gtkvbox.h"
	.file 42 "../../../win32-dev/gtk_2_0-2.14/include/gtk-2.0/gtk/gtkcolorsel.h"
	.file 43 "../../../win32-dev/gtk_2_0-2.14/include/gtk-2.0/gtk/gtkcolorseldialog.h"
	.file 44 "../../../win32-dev/gtk_2_0-2.14/include/gtk-2.0/gtk/gtkfontsel.h"
	.file 45 "../../../win32-dev/gtk_2_0-2.14/include/gtk-2.0/gtk/gtksizegroup.h"
	.file 46 "../../libpurple/theme.h"
	.file 47 "../../pidgin/gtkblist-theme.h"
	.file 48 "../../pidgin/gtkutils.h"
	.file 49 "c:/workspace/pidgin-devel/win32-dev/mingw-4.7.2/bin/../lib/gcc/mingw32/4.7.2/../../../../include/ctype.h"
	.file 50 "../../../win32-dev/gtk_2_0-2.14/include/glib-2.0/gobject/gparamspecs.h"
	.file 51 "../../../win32-dev/gtk_2_0-2.14/include/libintl.h"
	.file 52 "../../../win32-dev/gtk_2_0-2.14/include/gtk-2.0/gtk/gtkhbox.h"
	.file 53 "../../../win32-dev/gtk_2_0-2.14/include/gtk-2.0/gtk/gtklabel.h"
	.file 54 "../../pidgin/gtkblist.h"
	.file 55 "c:/workspace/pidgin-devel/win32-dev/mingw-4.7.2/bin/../lib/gcc/mingw32/4.7.2/../../../../include/wtypes.h"
	.section .drectve
	.ascii " -export:\"purple_init_plugin\""
