	.file	"themeedit-icon.c"
	.intel_syntax noprefix
	.text
Ltext0:
	.p2align 2,,3
	.def	_close_icon_theme;	.scl	3;	.type	32;	.endef
_close_icon_theme:
LFB95:
	.file 1 "themeedit-icon.c"
	.loc 1 198 0
	.cfi_startproc
LVL0:
	sub	esp, 28
LCFI0:
	.cfi_def_cfa_offset 32
	mov	eax, DWORD PTR [esp+36]
	.loc 1 198 0
	mov	edx, DWORD PTR ___stack_chk_guard
	mov	DWORD PTR [esp+12], edx
	xor	edx, edx
	.loc 1 199 0
	mov	edx, DWORD PTR [esp+12]
	xor	edx, DWORD PTR ___stack_chk_guard
	jne	L6
	mov	DWORD PTR [esp+32], eax
	.loc 1 200 0
	add	esp, 28
LCFI1:
	.cfi_remember_state
	.cfi_def_cfa_offset 4
	.loc 1 199 0
	jmp	_gtk_widget_destroy
LVL1:
L6:
LCFI2:
	.cfi_restore_state
	call	___stack_chk_fail
LVL2:
	.cfi_endproc
LFE95:
	.section .rdata,"dr"
LC0:
	.ascii "Status Icons\0"
	.align 4
LC1:
	.ascii "pidgin-icon-size-tango-microscopic\0"
LC2:
	.ascii "directory\0"
LC3:
	.ascii "user\0"
LC4:
	.ascii "author\0"
LC5:
	.ascii "status-icon\0"
LC6:
	.ascii "type\0"
LC7:
	.ascii "pixbuf\0"
LC8:
	.ascii "%d\0"
LC9:
	.ascii "9\0"
LC10:
	.ascii "compression\0"
LC11:
	.ascii "png\0"
	.text
	.p2align 2,,3
	.def	_use_icon_theme;	.scl	3;	.type	32;	.endef
_use_icon_theme:
LFB94:
	.loc 1 167 0
	.cfi_startproc
LVL3:
	push	ebp
LCFI3:
	.cfi_def_cfa_offset 8
	.cfi_offset 5, -8
	push	edi
LCFI4:
	.cfi_def_cfa_offset 12
	.cfi_offset 7, -12
	push	esi
LCFI5:
	.cfi_def_cfa_offset 16
	.cfi_offset 6, -16
	push	ebx
LCFI6:
	.cfi_def_cfa_offset 20
	.cfi_offset 3, -20
	sub	esp, 108
LCFI7:
	.cfi_def_cfa_offset 128
	mov	edx, DWORD PTR [esp+132]
	mov	DWORD PTR [esp+60], edx
	.loc 1 167 0
	mov	ecx, DWORD PTR ___stack_chk_guard
	mov	DWORD PTR [esp+92], ecx
	xor	ecx, ecx
LVL4:
LBB7:
LBB8:
	.loc 1 109 0
	call	_g_get_tmp_dir_utf8
LVL5:
	mov	DWORD PTR [esp+48], eax
LVL6:
	.loc 1 117 0
	call	_pidgin_status_icon_theme_get_type
LVL7:
	mov	DWORD PTR [esp+28], 0
	mov	edx, DWORD PTR [esp+48]
	mov	DWORD PTR [esp+24], edx
	mov	DWORD PTR [esp+20], OFFSET FLAT:LC2
	mov	DWORD PTR [esp+16], OFFSET FLAT:LC3
	mov	DWORD PTR [esp+12], OFFSET FLAT:LC4
	mov	DWORD PTR [esp+8], OFFSET FLAT:LC5
	mov	DWORD PTR [esp+4], OFFSET FLAT:LC6
	mov	DWORD PTR [esp], eax
	call	_g_object_new
LVL8:
	mov	DWORD PTR [esp+56], eax
LVL9:
	mov	edi, OFFSET FLAT:_sections+4
	.loc 1 122 0
	mov	ebx, OFFSET FLAT:LC0
LVL10:
L9:
LBB9:
	.loc 1 123 0
	mov	DWORD PTR [esp+4], 80
	mov	edx, DWORD PTR [esp+60]
	mov	DWORD PTR [esp], edx
	call	_g_type_check_instance_cast
LVL11:
	mov	DWORD PTR [esp+4], ebx
	mov	DWORD PTR [esp], eax
	call	_g_object_get_data
LVL12:
	mov	DWORD PTR [esp+52], eax
LVL13:
	.loc 1 124 0
	mov	edx, DWORD PTR [edi]
	mov	DWORD PTR [esp+44], edx
	mov	ebx, DWORD PTR [edx]
	test	ebx, ebx
	je	L17
	xor	esi, esi
	xor	ebp, ebp
LVL14:
	.p2align 2,,3
L8:
LBB10:
	.loc 1 125 0
	mov	DWORD PTR [esp+4], 80
	mov	eax, DWORD PTR [esp+52]
	mov	DWORD PTR [esp], eax
	call	_g_type_check_instance_cast
LVL15:
	mov	DWORD PTR [esp+4], ebx
	mov	DWORD PTR [esp], eax
	call	_g_object_get_data
LVL16:
	.loc 1 126 0
	mov	DWORD PTR [esp+4], 80
	mov	DWORD PTR [esp], eax
	call	_g_type_check_instance_cast
LVL17:
	mov	DWORD PTR [esp+4], OFFSET FLAT:LC7
	mov	DWORD PTR [esp], eax
	call	_g_object_get_data
LVL18:
	mov	DWORD PTR [esp+36], eax
LVL19:
	.loc 1 127 0
	test	eax, eax
	je	L11
	.loc 1 129 0
	add	ebp, DWORD PTR [esp+44]
	mov	ebx, DWORD PTR [ebp+0]
	call	_pidgin_icon_theme_get_type
LVL20:
	mov	DWORD PTR [esp+4], eax
	mov	eax, DWORD PTR [esp+56]
	mov	DWORD PTR [esp], eax
	call	_g_type_check_instance_cast
LVL21:
	mov	DWORD PTR [esp+8], ebx
	mov	DWORD PTR [esp+4], ebx
	mov	DWORD PTR [esp], eax
	call	_pidgin_icon_theme_set_icon
LVL22:
	.loc 1 131 0
	mov	edx, OFFSET FLAT:LC1
	xor	ecx, ecx
	mov	DWORD PTR [esp+40], esi
	mov	esi, ecx
	jmp	L16
LVL23:
	.p2align 2,,3
L13:
	inc	esi
LVL24:
	mov	edx, DWORD PTR _stocksizes[0+esi*4]
	test	edx, edx
	je	L31
LVL25:
L16:
LBB11:
	.loc 1 137 0
	mov	DWORD PTR [esp+80], 0
	.loc 1 139 0
	mov	eax, 1
	mov	ecx, esi
	sal	eax, cl
	test	DWORD PTR [edi+4], eax
	je	L13
	.loc 1 142 0
	mov	DWORD PTR [esp], edx
	call	_gtk_icon_size_from_name
LVL26:
	.loc 1 143 0
	lea	edx, [esp+76]
	mov	DWORD PTR [esp+8], edx
	lea	ecx, [esp+72]
	mov	DWORD PTR [esp+4], ecx
	mov	DWORD PTR [esp], eax
	call	_gtk_icon_size_lookup
LVL27:
	.loc 1 144 0
	mov	eax, DWORD PTR [esp+72]
	mov	DWORD PTR [esp+12], eax
	mov	DWORD PTR [esp+8], OFFSET FLAT:LC8
	mov	DWORD PTR [esp+4], 8
	lea	ebx, [esp+84]
	mov	DWORD PTR [esp], ebx
	call	_g_snprintf
LVL28:
	.loc 1 146 0
	mov	eax, DWORD PTR [esp+40]
	test	eax, eax
	je	L32
L14:
	.loc 1 152 0
	mov	DWORD PTR [esp+12], 0
	mov	eax, DWORD PTR [ebp+0]
	mov	DWORD PTR [esp+8], eax
	mov	DWORD PTR [esp+4], ebx
	mov	eax, DWORD PTR [esp+48]
	mov	DWORD PTR [esp], eax
	call	_g_build_filename
LVL29:
	mov	ebx, eax
LVL30:
	.loc 1 153 0
	mov	DWORD PTR [esp+12], 2
	mov	eax, DWORD PTR [esp+76]
LVL31:
	mov	DWORD PTR [esp+8], eax
	mov	eax, DWORD PTR [esp+72]
	mov	DWORD PTR [esp+4], eax
	mov	eax, DWORD PTR [esp+36]
	mov	DWORD PTR [esp], eax
	call	_gdk_pixbuf_scale_simple
LVL32:
	mov	edx, eax
LVL33:
	.loc 1 154 0
	mov	DWORD PTR [esp+24], 0
	mov	DWORD PTR [esp+20], OFFSET FLAT:LC9
	mov	DWORD PTR [esp+16], OFFSET FLAT:LC10
	lea	eax, [esp+80]
LVL34:
	mov	DWORD PTR [esp+12], eax
	mov	DWORD PTR [esp+8], OFFSET FLAT:LC11
	mov	DWORD PTR [esp+4], ebx
	mov	DWORD PTR [esp], edx
	mov	DWORD PTR [esp+32], edx
	call	_gdk_pixbuf_save_utf8
LVL35:
	.loc 1 155 0
	mov	DWORD PTR [esp], ebx
	call	_g_free
LVL36:
	.loc 1 156 0
	mov	DWORD PTR [esp+4], 80
	mov	edx, DWORD PTR [esp+32]
	mov	DWORD PTR [esp], edx
	call	_g_type_check_instance_cast
LVL37:
	mov	DWORD PTR [esp], eax
	call	_g_object_unref
LVL38:
	.loc 1 157 0
	mov	eax, DWORD PTR [esp+80]
	test	eax, eax
	je	L13
	.loc 1 158 0
	mov	DWORD PTR [esp], eax
	call	_g_error_free
LVL39:
LBE11:
	.loc 1 131 0
	inc	esi
LVL40:
	mov	edx, DWORD PTR _stocksizes[0+esi*4]
	test	edx, edx
	jne	L16
LVL41:
L31:
	mov	esi, DWORD PTR [esp+40]
LVL42:
L11:
LBE10:
	.loc 1 124 0
	inc	esi
LVL43:
	.loc 1 166 0
	lea	ebp, [0+esi*8]
	.loc 1 124 0
	mov	edx, DWORD PTR [esp+44]
	mov	ebx, DWORD PTR [edx+esi*8]
	test	ebx, ebx
	jne	L8
LVL44:
L17:
	add	edi, 12
LBE9:
	.loc 1 122 0
	mov	ebx, DWORD PTR [edi-4]
	test	ebx, ebx
	jne	L9
LBE8:
LBE7:
	.loc 1 181 0
	call	_pidgin_status_icon_theme_get_type
LVL45:
	mov	DWORD PTR [esp+4], eax
	mov	eax, DWORD PTR [esp+56]
	mov	DWORD PTR [esp], eax
	call	_g_type_check_instance_cast
LVL46:
	mov	DWORD PTR [esp], eax
	call	_pidgin_stock_load_status_icon_theme
LVL47:
	.loc 1 182 0
	mov	eax, DWORD PTR [esp+56]
	mov	DWORD PTR [esp], eax
	call	_pidgin_stock_load_stock_icon_theme
LVL48:
	.loc 1 183 0
	call	_purple_get_blist
LVL49:
	mov	DWORD PTR [esp], eax
	call	_pidgin_blist_refresh
LVL50:
	.loc 1 184 0
	mov	eax, DWORD PTR [esp+56]
	mov	DWORD PTR [esp], eax
	call	_g_object_unref
LVL51:
	.loc 1 185 0
	mov	edx, DWORD PTR [esp+92]
	xor	edx, DWORD PTR ___stack_chk_guard
	jne	L33
	add	esp, 108
LCFI8:
	.cfi_remember_state
	.cfi_def_cfa_offset 20
	pop	ebx
LCFI9:
	.cfi_restore 3
	.cfi_def_cfa_offset 16
	pop	esi
LCFI10:
	.cfi_restore 6
	.cfi_def_cfa_offset 12
	pop	edi
LCFI11:
	.cfi_restore 7
	.cfi_def_cfa_offset 8
	pop	ebp
LCFI12:
	.cfi_restore 5
	.cfi_def_cfa_offset 4
	ret
LVL52:
	.p2align 2,,3
L32:
LCFI13:
	.cfi_restore_state
LBB16:
LBB15:
LBB14:
LBB13:
LBB12:
	.loc 1 147 0
	mov	DWORD PTR [esp+8], 0
	mov	DWORD PTR [esp+4], ebx
	mov	eax, DWORD PTR [esp+48]
	mov	DWORD PTR [esp], eax
	call	_g_build_filename
LVL53:
	.loc 1 148 0
	mov	DWORD PTR [esp+4], 448
	mov	DWORD PTR [esp], eax
	mov	DWORD PTR [esp+32], eax
	call	_purple_build_dir
LVL54:
	.loc 1 149 0
	mov	edx, DWORD PTR [esp+32]
	mov	DWORD PTR [esp], edx
	call	_g_free
LVL55:
	jmp	L14
LVL56:
L33:
LBE12:
LBE13:
LBE14:
LBE15:
LBE16:
	.loc 1 185 0
	call	___stack_chk_fail
LVL57:
	.cfi_endproc
LFE94:
	.section .rdata,"dr"
LC12:
	.ascii "localized-name\0"
	.text
	.p2align 2,,3
	.def	_change_stock_image;	.scl	3;	.type	32;	.endef
_change_stock_image:
LFB97:
	.loc 1 247 0
	.cfi_startproc
LVL58:
	push	edi
LCFI14:
	.cfi_def_cfa_offset 8
	.cfi_offset 7, -8
	push	esi
LCFI15:
	.cfi_def_cfa_offset 12
	.cfi_offset 6, -12
	push	ebx
LCFI16:
	.cfi_def_cfa_offset 16
	.cfi_offset 3, -16
	sub	esp, 32
LCFI17:
	.cfi_def_cfa_offset 48
	mov	ebx, DWORD PTR [esp+48]
	mov	edi, DWORD PTR [esp+56]
	.loc 1 247 0
	mov	eax, DWORD PTR ___stack_chk_guard
	mov	DWORD PTR [esp+28], eax
	xor	eax, eax
	.loc 1 248 0
	call	_gtk_window_get_type
LVL59:
	mov	esi, eax
	mov	DWORD PTR [esp], ebx
	call	_gtk_widget_get_toplevel
LVL60:
	mov	DWORD PTR [esp+4], esi
	mov	DWORD PTR [esp], eax
	call	_g_type_check_instance_cast
LVL61:
	mov	DWORD PTR [esp+8], edi
	mov	DWORD PTR [esp+4], OFFSET FLAT:_stock_icon_selected
	mov	DWORD PTR [esp], eax
	call	_pidgin_buddy_icon_chooser_new
LVL62:
	mov	ebx, eax
LVL63:
	.loc 1 251 0
	mov	DWORD PTR [esp+4], 80
	mov	DWORD PTR [esp], edi
	call	_g_type_check_instance_cast
LVL64:
	mov	DWORD PTR [esp+4], OFFSET FLAT:LC12
	mov	DWORD PTR [esp], eax
	call	_g_object_get_data
LVL65:
	mov	edi, eax
	.loc 1 250 0
	mov	DWORD PTR [esp+4], esi
	mov	DWORD PTR [esp], ebx
	call	_g_type_check_instance_cast
LVL66:
	mov	DWORD PTR [esp+4], edi
	mov	DWORD PTR [esp], eax
	call	_gtk_window_set_title
LVL67:
	.loc 1 252 0
	mov	DWORD PTR [esp], ebx
	call	_gtk_widget_show_all
LVL68:
	.loc 1 255 0
	mov	eax, 1
	mov	edx, DWORD PTR [esp+28]
	xor	edx, DWORD PTR ___stack_chk_guard
	jne	L37
	add	esp, 32
LCFI18:
	.cfi_remember_state
	.cfi_def_cfa_offset 16
	pop	ebx
LCFI19:
	.cfi_restore 3
	.cfi_def_cfa_offset 12
LVL69:
	pop	esi
LCFI20:
	.cfi_restore 6
	.cfi_def_cfa_offset 8
	pop	edi
LCFI21:
	.cfi_restore 7
	.cfi_def_cfa_offset 4
	ret
LVL70:
L37:
LCFI22:
	.cfi_restore_state
	call	___stack_chk_fail
LVL71:
	.cfi_endproc
LFE97:
	.section .rdata,"dr"
LC13:
	.ascii "Reason unknown\0"
	.align 4
LC14:
	.ascii "Unable to load icon file '%s' (%s)\12\0"
LC15:
	.ascii "theme-editor-icon\0"
	.text
	.p2align 2,,3
	.def	_stock_icon_selected;	.scl	3;	.type	32;	.endef
_stock_icon_selected:
LFB96:
	.loc 1 204 0
	.cfi_startproc
LVL72:
	push	ebp
LCFI23:
	.cfi_def_cfa_offset 8
	.cfi_offset 5, -8
	push	edi
LCFI24:
	.cfi_def_cfa_offset 12
	.cfi_offset 7, -12
	push	esi
LCFI25:
	.cfi_def_cfa_offset 16
	.cfi_offset 6, -16
	push	ebx
LCFI26:
	.cfi_def_cfa_offset 20
	.cfi_offset 3, -20
	sub	esp, 60
LCFI27:
	.cfi_def_cfa_offset 80
	mov	edi, DWORD PTR [esp+80]
	mov	ebx, DWORD PTR [esp+84]
	.loc 1 204 0
	mov	eax, DWORD PTR ___stack_chk_guard
	mov	DWORD PTR [esp+44], eax
	xor	eax, eax
	.loc 1 205 0
	mov	DWORD PTR [esp+32], 0
LVL73:
	.loc 1 210 0
	test	edi, edi
	je	L38
	.loc 1 213 0
	lea	eax, [esp+32]
	mov	DWORD PTR [esp+4], eax
	mov	DWORD PTR [esp], edi
	call	_gdk_pixbuf_new_from_file_utf8
LVL74:
	mov	esi, eax
LVL75:
	.loc 1 214 0
	mov	eax, DWORD PTR [esp+32]
LVL76:
	test	eax, eax
	je	L59
	.loc 1 215 0
	mov	eax, DWORD PTR [eax+8]
L41:
	.loc 1 215 0 is_stmt 0 discriminator 2
	mov	DWORD PTR [esp+12], eax
	mov	DWORD PTR [esp+8], edi
	mov	DWORD PTR [esp+4], OFFSET FLAT:LC14
	mov	DWORD PTR [esp], OFFSET FLAT:LC15
	call	_purple_debug_error
LVL77:
	.loc 1 217 0 is_stmt 1 discriminator 2
	mov	eax, DWORD PTR [esp+32]
	test	eax, eax
	je	L38
	.loc 1 218 0
	mov	DWORD PTR [esp], eax
	call	_g_error_free
LVL78:
L38:
	.loc 1 243 0
	mov	edx, DWORD PTR [esp+44]
	xor	edx, DWORD PTR ___stack_chk_guard
	jne	L60
	add	esp, 60
LCFI28:
	.cfi_remember_state
	.cfi_def_cfa_offset 20
	pop	ebx
LCFI29:
	.cfi_restore 3
	.cfi_def_cfa_offset 16
	pop	esi
LCFI30:
	.cfi_restore 6
	.cfi_def_cfa_offset 12
	pop	edi
LCFI31:
	.cfi_restore 7
	.cfi_def_cfa_offset 8
	pop	ebp
LCFI32:
	.cfi_restore 5
	.cfi_def_cfa_offset 4
	ret
LVL79:
	.p2align 2,,3
L59:
LCFI33:
	.cfi_restore_state
	.loc 1 214 0 discriminator 1
	test	esi, esi
	je	L61
	.loc 1 222 0
	mov	DWORD PTR [esp+12], 2
	mov	DWORD PTR [esp+8], 16
	mov	DWORD PTR [esp+4], 16
	mov	DWORD PTR [esp], esi
	call	_gdk_pixbuf_scale_simple
LVL80:
	mov	edi, eax
LVL81:
	.loc 1 223 0
	call	_gtk_image_get_type
LVL82:
	mov	DWORD PTR [esp+24], eax
	mov	DWORD PTR [esp+4], eax
	mov	DWORD PTR [esp], ebx
	call	_g_type_check_instance_cast
LVL83:
	mov	DWORD PTR [esp+4], edi
	mov	DWORD PTR [esp], eax
	call	_gtk_image_set_from_pixbuf
LVL84:
	.loc 1 224 0
	mov	DWORD PTR [esp+4], 80
	mov	DWORD PTR [esp], edi
	call	_g_type_check_instance_cast
LVL85:
	mov	DWORD PTR [esp], eax
	call	_g_object_unref
LVL86:
	.loc 1 227 0
	mov	edi, OFFSET FLAT:LC1
LVL87:
	xor	ebp, ebp
LBB17:
	.loc 1 234 0
	mov	DWORD PTR [esp+28], esi
LVL88:
	.p2align 2,,3
L46:
	.loc 1 230 0
	mov	DWORD PTR [esp+4], 80
	mov	DWORD PTR [esp], ebx
	call	_g_type_check_instance_cast
LVL89:
	mov	DWORD PTR [esp+4], edi
	mov	DWORD PTR [esp], eax
	call	_g_object_get_data
LVL90:
	mov	esi, eax
LVL91:
	.loc 1 231 0
	test	eax, eax
	je	L45
	.loc 1 233 0
	mov	eax, DWORD PTR _stocksizes[0+ebp*4]
LVL92:
	mov	DWORD PTR [esp], eax
	call	_gtk_icon_size_from_name
LVL93:
	.loc 1 234 0
	lea	edx, [esp+40]
	mov	DWORD PTR [esp+8], edx
	lea	edx, [esp+36]
	mov	DWORD PTR [esp+4], edx
	mov	DWORD PTR [esp], eax
	call	_gtk_icon_size_lookup
LVL94:
	.loc 1 235 0
	mov	DWORD PTR [esp+12], 2
	mov	eax, DWORD PTR [esp+40]
	mov	DWORD PTR [esp+8], eax
	mov	eax, DWORD PTR [esp+36]
	mov	DWORD PTR [esp+4], eax
	mov	eax, DWORD PTR [esp+28]
	mov	DWORD PTR [esp], eax
	call	_gdk_pixbuf_scale_simple
LVL95:
	mov	edi, eax
LVL96:
	.loc 1 236 0
	mov	eax, DWORD PTR [esp+24]
LVL97:
	mov	DWORD PTR [esp+4], eax
	mov	DWORD PTR [esp], esi
	call	_g_type_check_instance_cast
LVL98:
	mov	DWORD PTR [esp+4], edi
	mov	DWORD PTR [esp], eax
	call	_gtk_image_set_from_pixbuf
LVL99:
	.loc 1 237 0
	mov	DWORD PTR [esp+4], 80
	mov	DWORD PTR [esp], edi
	call	_g_type_check_instance_cast
LVL100:
	mov	DWORD PTR [esp], eax
	call	_g_object_unref
LVL101:
L45:
LBE17:
	.loc 1 227 0
	inc	ebp
LVL102:
	mov	edi, DWORD PTR _stocksizes[0+ebp*4]
	test	edi, edi
	jne	L46
	mov	esi, DWORD PTR [esp+28]
LVL103:
	.loc 1 241 0
	mov	DWORD PTR [esp+4], 80
	mov	DWORD PTR [esp], ebx
	call	_g_type_check_instance_cast
LVL104:
	mov	DWORD PTR [esp+12], OFFSET FLAT:_g_object_unref
	mov	DWORD PTR [esp+8], esi
	mov	DWORD PTR [esp+4], OFFSET FLAT:LC7
	mov	DWORD PTR [esp], eax
	call	_g_object_set_data_full
LVL105:
	jmp	L38
LVL106:
	.p2align 2,,3
L61:
	.loc 1 215 0
	mov	eax, OFFSET FLAT:LC13
	jmp	L41
LVL107:
L60:
	.loc 1 243 0
	call	___stack_chk_fail
LVL108:
	.cfi_endproc
LFE96:
	.section .rdata,"dr"
LC16:
	.ascii "Pidgin Icon Theme Editor\0"
LC17:
	.ascii "pidgin\0"
	.align 4
LC18:
	.ascii "pidgin-icon-size-tango-extra-small\0"
LC21:
	.ascii "button-press-event\0"
LC22:
	.ascii "property-name\0"
LC23:
	.ascii "gtk-apply\0"
LC24:
	.ascii "gtk-close\0"
	.text
	.p2align 2,,3
	.globl	_pidgin_icon_theme_edit
	.def	_pidgin_icon_theme_edit;	.scl	2;	.type	32;	.endef
_pidgin_icon_theme_edit:
LFB98:
	.loc 1 258 0
	.cfi_startproc
LVL109:
	push	ebp
LCFI34:
	.cfi_def_cfa_offset 8
	.cfi_offset 5, -8
	push	edi
LCFI35:
	.cfi_def_cfa_offset 12
	.cfi_offset 7, -12
	push	esi
LCFI36:
	.cfi_def_cfa_offset 16
	.cfi_offset 6, -16
	push	ebx
LCFI37:
	.cfi_def_cfa_offset 20
	.cfi_offset 3, -20
	sub	esp, 124
LCFI38:
	.cfi_def_cfa_offset 144
	.loc 1 258 0
	mov	eax, DWORD PTR ___stack_chk_guard
	mov	DWORD PTR [esp+108], eax
	xor	eax, eax
	.loc 1 264 0
	mov	DWORD PTR [esp+4], OFFSET FLAT:LC16
	mov	DWORD PTR [esp], OFFSET FLAT:LC17
	call	_libintl_dgettext
LVL110:
	mov	DWORD PTR [esp+12], 0
	mov	DWORD PTR [esp+8], OFFSET FLAT:LC15
	mov	DWORD PTR [esp+4], 0
	mov	DWORD PTR [esp], eax
	call	_pidgin_create_dialog
LVL111:
	mov	DWORD PTR [esp+80], eax
LVL112:
	.loc 1 265 0
	call	_gtk_dialog_get_type
LVL113:
	mov	DWORD PTR [esp+92], eax
	mov	DWORD PTR [esp+4], eax
	mov	eax, DWORD PTR [esp+80]
	mov	DWORD PTR [esp], eax
	call	_g_type_check_instance_cast
LVL114:
	mov	DWORD PTR [esp+8], 6
	mov	DWORD PTR [esp+4], 0
	mov	DWORD PTR [esp], eax
	call	_pidgin_dialog_get_vbox_with_properties
LVL115:
	mov	ebx, eax
LVL116:
	.loc 1 267 0
	call	_gtk_notebook_new
LVL117:
	mov	DWORD PTR [esp+84], eax
LVL118:
	.loc 1 268 0
	call	_gtk_box_get_type
LVL119:
	mov	DWORD PTR [esp+48], eax
	mov	DWORD PTR [esp+4], eax
	mov	DWORD PTR [esp], ebx
	call	_g_type_check_instance_cast
LVL120:
	mov	DWORD PTR [esp+16], 6
	mov	DWORD PTR [esp+12], 1
	mov	DWORD PTR [esp+8], 1
	mov	edx, DWORD PTR [esp+84]
	mov	DWORD PTR [esp+4], edx
	mov	DWORD PTR [esp], eax
	call	_gtk_box_pack_start
LVL121:
	.loc 1 269 0
	mov	DWORD PTR [esp], 1
	call	_gtk_size_group_new
LVL122:
	mov	DWORD PTR [esp+72], eax
LVL123:
	.loc 1 257 0
	call	_gtk_notebook_get_type
LVL124:
	mov	DWORD PTR [esp+88], eax
	mov	DWORD PTR [esp+76], OFFSET FLAT:_sections+4
	.loc 1 271 0
	mov	ebx, OFFSET FLAT:LC0
LVL125:
L67:
LBB18:
	.loc 1 274 0
	mov	DWORD PTR [esp+4], 0
	mov	DWORD PTR [esp], 0
	call	_gtk_vbox_new
LVL126:
	mov	esi, eax
LVL127:
	.loc 1 275 0
	mov	DWORD PTR [esp], ebx
	call	_gtk_label_new
LVL128:
	mov	edi, eax
	mov	eax, DWORD PTR [esp+88]
	mov	DWORD PTR [esp+4], eax
	mov	eax, DWORD PTR [esp+84]
	mov	DWORD PTR [esp], eax
	call	_g_type_check_instance_cast
LVL129:
	mov	DWORD PTR [esp+8], edi
	mov	DWORD PTR [esp+4], esi
	mov	DWORD PTR [esp], eax
	call	_gtk_notebook_append_page
LVL130:
	.loc 1 277 0
	mov	DWORD PTR [esp+4], ebx
	mov	DWORD PTR [esp], esi
	call	_pidgin_make_frame
LVL131:
	mov	DWORD PTR [esp+60], eax
LVL132:
	.loc 1 278 0
	mov	DWORD PTR [esp+4], 80
	mov	eax, DWORD PTR [esp+80]
LVL133:
	mov	DWORD PTR [esp], eax
	call	_g_type_check_instance_cast
LVL134:
	mov	edx, DWORD PTR [esp+60]
	mov	DWORD PTR [esp+8], edx
	mov	DWORD PTR [esp+4], ebx
	mov	DWORD PTR [esp], eax
	call	_g_object_set_data
LVL135:
	.loc 1 280 0
	mov	edx, DWORD PTR [esp+76]
	mov	ebx, DWORD PTR [edx]
LVL136:
	mov	esi, DWORD PTR [ebx]
LVL137:
	test	esi, esi
	je	L63
	.loc 1 257 0
	call	_gtk_container_get_type
LVL138:
	mov	DWORD PTR [esp+68], eax
	call	_gtk_misc_get_type
LVL139:
	mov	DWORD PTR [esp+64], eax
	mov	edx, DWORD PTR [esp+76]
	mov	edx, DWORD PTR [edx+4]
	mov	DWORD PTR [esp+40], edx
	lea	edx, [ebx+8]
	mov	DWORD PTR [esp+52], edx
LVL140:
	.p2align 2,,3
L66:
LBB19:
	.loc 1 282 0
	mov	eax, DWORD PTR [ebx+4]
	mov	DWORD PTR [esp+4], eax
	mov	DWORD PTR [esp], OFFSET FLAT:LC17
	call	_libintl_dgettext
LVL141:
	mov	DWORD PTR [esp+56], eax
LVL142:
	.loc 1 284 0
	mov	DWORD PTR [esp+4], 18
	mov	DWORD PTR [esp], 0
	call	_gtk_hbox_new
LVL143:
	mov	DWORD PTR [esp+44], eax
LVL144:
	.loc 1 285 0
	mov	eax, DWORD PTR [esp+56]
LVL145:
	mov	DWORD PTR [esp], eax
	call	_gtk_label_new
LVL146:
	mov	edi, eax
LVL147:
	.loc 1 286 0
	mov	DWORD PTR [esp], OFFSET FLAT:LC18
	call	_gtk_icon_size_from_name
LVL148:
	mov	DWORD PTR [esp+4], eax
	mov	DWORD PTR [esp], esi
	call	_gtk_image_new_from_stock
LVL149:
	mov	ebx, eax
LVL150:
	.loc 1 288 0
	call	_gtk_event_box_new
LVL151:
	mov	ebp, eax
LVL152:
	.loc 1 289 0
	mov	eax, DWORD PTR [esp+68]
LVL153:
	mov	DWORD PTR [esp+4], eax
	mov	DWORD PTR [esp], ebp
	call	_g_type_check_instance_cast
LVL154:
	mov	DWORD PTR [esp+4], ebx
	mov	DWORD PTR [esp], eax
	call	_gtk_container_add
LVL155:
	.loc 1 290 0
	mov	eax, DWORD PTR [esp+64]
	mov	DWORD PTR [esp+4], eax
	mov	DWORD PTR [esp], edi
	call	_g_type_check_instance_cast
LVL156:
	mov	DWORD PTR [esp+8], 0x3f000000
	mov	DWORD PTR [esp+4], 0x00000000
	mov	DWORD PTR [esp], eax
	call	_gtk_misc_set_alignment
LVL157:
	.loc 1 292 0
	mov	DWORD PTR [esp+4], 80
	mov	DWORD PTR [esp], ebp
	call	_g_type_check_instance_cast
LVL158:
	mov	DWORD PTR [esp+20], 0
	mov	DWORD PTR [esp+16], 0
	mov	DWORD PTR [esp+12], ebx
	mov	DWORD PTR [esp+8], OFFSET FLAT:_change_stock_image
	mov	DWORD PTR [esp+4], OFFSET FLAT:LC21
	mov	DWORD PTR [esp], eax
	call	_g_signal_connect_data
LVL159:
	.loc 1 293 0
	mov	DWORD PTR [esp+4], 80
	mov	DWORD PTR [esp], ebx
	call	_g_type_check_instance_cast
LVL160:
	mov	DWORD PTR [esp+8], esi
	mov	DWORD PTR [esp+4], OFFSET FLAT:LC22
	mov	DWORD PTR [esp], eax
	call	_g_object_set_data
LVL161:
	.loc 1 294 0
	mov	DWORD PTR [esp+4], 80
	mov	DWORD PTR [esp], ebx
	call	_g_type_check_instance_cast
LVL162:
	mov	edx, DWORD PTR [esp+56]
	mov	DWORD PTR [esp+8], edx
	mov	DWORD PTR [esp+4], OFFSET FLAT:LC12
	mov	DWORD PTR [esp], eax
	call	_g_object_set_data
LVL163:
	.loc 1 296 0
	mov	DWORD PTR [esp+4], edi
	mov	eax, DWORD PTR [esp+72]
	mov	DWORD PTR [esp], eax
	call	_gtk_size_group_add_widget
LVL164:
	.loc 1 297 0
	mov	eax, DWORD PTR [esp+48]
	mov	DWORD PTR [esp+4], eax
	mov	eax, DWORD PTR [esp+44]
	mov	DWORD PTR [esp], eax
	call	_g_type_check_instance_cast
LVL165:
	mov	DWORD PTR [esp+16], 0
	mov	DWORD PTR [esp+12], 0
	mov	DWORD PTR [esp+8], 0
	mov	DWORD PTR [esp+4], edi
	mov	DWORD PTR [esp], eax
	call	_gtk_box_pack_start
LVL166:
	.loc 1 298 0
	mov	eax, DWORD PTR [esp+48]
	mov	DWORD PTR [esp+4], eax
	mov	eax, DWORD PTR [esp+44]
	mov	DWORD PTR [esp], eax
	call	_g_type_check_instance_cast
LVL167:
	mov	DWORD PTR [esp+16], 0
	mov	DWORD PTR [esp+12], 0
	mov	DWORD PTR [esp+8], 0
	mov	DWORD PTR [esp+4], ebp
	mov	DWORD PTR [esp], eax
	call	_gtk_box_pack_start
LVL168:
	.loc 1 300 0
	mov	ebp, OFFSET FLAT:LC1
LVL169:
	xor	ecx, ecx
	mov	edi, ebp
LVL170:
	jmp	L65
LVL171:
	.p2align 2,,3
L64:
	inc	ecx
LVL172:
	mov	edi, DWORD PTR _stocksizes[0+ecx*4]
	test	edi, edi
	je	L80
LVL173:
L65:
LBB20:
	.loc 1 303 0
	mov	eax, 1
	sal	eax, cl
	test	DWORD PTR [esp+40], eax
	je	L64
	.loc 1 306 0
	mov	DWORD PTR [esp], edi
	mov	DWORD PTR [esp+36], ecx
	call	_gtk_icon_size_from_name
LVL174:
	mov	DWORD PTR [esp+4], eax
	mov	DWORD PTR [esp], esi
	call	_gtk_image_new_from_stock
LVL175:
	mov	ebp, eax
LVL176:
	.loc 1 307 0
	mov	eax, DWORD PTR [esp+48]
LVL177:
	mov	DWORD PTR [esp+4], eax
	mov	eax, DWORD PTR [esp+44]
	mov	DWORD PTR [esp], eax
	call	_g_type_check_instance_cast
LVL178:
	mov	DWORD PTR [esp+16], 0
	mov	DWORD PTR [esp+12], 0
	mov	DWORD PTR [esp+8], 0
	mov	DWORD PTR [esp+4], ebp
	mov	DWORD PTR [esp], eax
	call	_gtk_box_pack_start
LVL179:
	.loc 1 308 0
	mov	DWORD PTR [esp+4], 80
	mov	DWORD PTR [esp], ebx
	call	_g_type_check_instance_cast
LVL180:
	mov	DWORD PTR [esp+8], ebp
	mov	DWORD PTR [esp+4], edi
	mov	DWORD PTR [esp], eax
	call	_g_object_set_data
LVL181:
	mov	ecx, DWORD PTR [esp+36]
LBE20:
	.loc 1 300 0
	inc	ecx
LVL182:
	mov	edi, DWORD PTR _stocksizes[0+ecx*4]
	test	edi, edi
	jne	L65
LVL183:
L80:
	.loc 1 311 0
	mov	eax, DWORD PTR [esp+48]
	mov	DWORD PTR [esp+4], eax
	mov	eax, DWORD PTR [esp+60]
	mov	DWORD PTR [esp], eax
	call	_g_type_check_instance_cast
LVL184:
	mov	DWORD PTR [esp+16], 0
	mov	DWORD PTR [esp+12], 0
	mov	DWORD PTR [esp+8], 0
	mov	edx, DWORD PTR [esp+44]
	mov	DWORD PTR [esp+4], edx
	mov	DWORD PTR [esp], eax
	call	_gtk_box_pack_start
LVL185:
	.loc 1 313 0
	mov	DWORD PTR [esp+4], 80
	mov	eax, DWORD PTR [esp+60]
	mov	DWORD PTR [esp], eax
	call	_g_type_check_instance_cast
LVL186:
	mov	DWORD PTR [esp+8], ebx
	mov	DWORD PTR [esp+4], esi
	mov	DWORD PTR [esp], eax
	call	_g_object_set_data
LVL187:
LBE19:
	.loc 1 280 0
	mov	ebx, DWORD PTR [esp+52]
LVL188:
	add	DWORD PTR [esp+52], 8
	mov	edx, DWORD PTR [esp+52]
	mov	esi, DWORD PTR [edx-8]
LVL189:
	test	esi, esi
	jne	L66
LVL190:
L63:
	add	DWORD PTR [esp+76], 12
LBE18:
	.loc 1 271 0
	mov	edx, DWORD PTR [esp+76]
	mov	ebx, DWORD PTR [edx-4]
	test	ebx, ebx
	jne	L67
	.loc 1 320 0
	mov	eax, DWORD PTR [esp+92]
	mov	DWORD PTR [esp+4], eax
	mov	eax, DWORD PTR [esp+80]
	mov	DWORD PTR [esp], eax
	call	_g_type_check_instance_cast
LVL191:
	mov	edx, DWORD PTR [esp+80]
	mov	DWORD PTR [esp+12], edx
	mov	DWORD PTR [esp+8], OFFSET FLAT:_use_icon_theme
	mov	DWORD PTR [esp+4], OFFSET FLAT:LC23
	mov	DWORD PTR [esp], eax
	call	_pidgin_dialog_add_button
LVL192:
	.loc 1 321 0
	mov	eax, DWORD PTR [esp+92]
	mov	DWORD PTR [esp+4], eax
	mov	eax, DWORD PTR [esp+80]
	mov	DWORD PTR [esp], eax
	call	_g_type_check_instance_cast
LVL193:
	mov	edx, DWORD PTR [esp+80]
	mov	DWORD PTR [esp+12], edx
	mov	DWORD PTR [esp+8], OFFSET FLAT:_close_icon_theme
	mov	DWORD PTR [esp+4], OFFSET FLAT:LC24
	mov	DWORD PTR [esp], eax
	call	_pidgin_dialog_add_button
LVL194:
	.loc 1 322 0
	mov	eax, DWORD PTR [esp+80]
	mov	DWORD PTR [esp], eax
	call	_gtk_widget_show_all
LVL195:
	.loc 1 323 0
	mov	edx, DWORD PTR [esp+108]
	xor	edx, DWORD PTR ___stack_chk_guard
	jne	L81
	mov	eax, DWORD PTR [esp+72]
	mov	DWORD PTR [esp+144], eax
	.loc 1 324 0
	add	esp, 124
LCFI39:
	.cfi_remember_state
	.cfi_def_cfa_offset 20
	pop	ebx
LCFI40:
	.cfi_restore 3
	.cfi_def_cfa_offset 16
	pop	esi
LCFI41:
	.cfi_restore 6
	.cfi_def_cfa_offset 12
	pop	edi
LCFI42:
	.cfi_restore 7
	.cfi_def_cfa_offset 8
	pop	ebp
LCFI43:
	.cfi_restore 5
	.cfi_def_cfa_offset 4
	.loc 1 323 0
	jmp	_g_object_unref
LVL196:
L81:
LCFI44:
	.cfi_restore_state
	call	___stack_chk_fail
LVL197:
	.cfi_endproc
LFE98:
	.section .rdata,"dr"
LC25:
	.ascii "Chatroom Emblems\0"
LC26:
	.ascii "Dialog Icons\0"
	.align 32
_sections:
	.long	LC0
	.long	_statuses
	.long	31
	.long	LC25
	.long	_chatemblems
	.long	2
	.long	LC26
	.long	_dialogicons
	.long	34
	.long	0
	.long	0
	.long	0
LC27:
	.ascii "pidgin-icon-size-tango-small\0"
LC28:
	.ascii "pidgin-icon-size-tango-medium\0"
LC29:
	.ascii "pidgin-icon-size-tango-large\0"
LC30:
	.ascii "pidgin-icon-size-tango-huge\0"
	.align 4
_stocksizes:
	.long	LC1
	.long	LC18
	.long	LC27
	.long	LC28
	.long	LC29
	.long	LC30
	.long	0
LC31:
	.ascii "pidgin-status-available\0"
LC32:
	.ascii "Available\0"
LC33:
	.ascii "pidgin-status-away\0"
LC34:
	.ascii "Away\0"
LC35:
	.ascii "pidgin-status-xa\0"
LC36:
	.ascii "Extended Away\0"
LC37:
	.ascii "pidgin-status-busy\0"
LC38:
	.ascii "Busy\0"
LC39:
	.ascii "pidgin-status-offline\0"
LC40:
	.ascii "Offline\0"
LC41:
	.ascii "pidgin-status-login\0"
LC42:
	.ascii "Just logged in\0"
LC43:
	.ascii "pidgin-status-logout\0"
LC44:
	.ascii "Just logged out\0"
LC45:
	.ascii "pidgin-status-person\0"
	.align 4
LC46:
	.ascii "Icon for Contact/\12Icon for Unknown person\0"
LC47:
	.ascii "pidgin-status-chat\0"
LC48:
	.ascii "Icon for Chat\0"
	.align 32
_statuses:
	.long	LC31
	.long	LC32
	.long	LC33
	.long	LC34
	.long	LC35
	.long	LC36
	.long	LC37
	.long	LC38
	.long	LC39
	.long	LC40
	.long	LC41
	.long	LC42
	.long	LC43
	.long	LC44
	.long	LC45
	.long	LC46
	.long	LC47
	.long	LC48
	.long	0
	.long	0
LC49:
	.ascii "pidgin-status-ignored\0"
LC50:
	.ascii "Ignored\0"
LC51:
	.ascii "pidgin-status-founder\0"
LC52:
	.ascii "Founder\0"
LC53:
	.ascii "pidgin-status-operator\0"
LC54:
	.ascii "Operator\0"
LC55:
	.ascii "pidgin-status-halfop\0"
LC56:
	.ascii "Half Operator\0"
LC57:
	.ascii "pidgin-status-voice\0"
LC58:
	.ascii "Voice\0"
	.align 32
_chatemblems:
	.long	LC49
	.long	LC50
	.long	LC51
	.long	LC52
	.long	LC53
	.long	LC54
	.long	LC55
	.long	LC56
	.long	LC57
	.long	LC58
	.long	0
	.long	0
LC59:
	.ascii "pidgin-dialog-auth\0"
LC60:
	.ascii "Authorization dialog\0"
LC61:
	.ascii "pidgin-dialog-error\0"
LC62:
	.ascii "Error dialog\0"
LC63:
	.ascii "pidgin-dialog-info\0"
LC64:
	.ascii "Information dialog\0"
LC65:
	.ascii "pidgin-dialog-mail\0"
LC66:
	.ascii "Mail dialog\0"
LC67:
	.ascii "pidgin-dialog-question\0"
LC68:
	.ascii "Question dialog\0"
LC69:
	.ascii "pidgin-dialog-warning\0"
LC70:
	.ascii "Warning dialog\0"
LC71:
	.ascii "pidgin-dialog-cool\0"
LC72:
	.ascii "What kind of dialog is this?\0"
	.align 32
_dialogicons:
	.long	LC59
	.long	LC60
	.long	LC61
	.long	LC62
	.long	LC63
	.long	LC64
	.long	LC65
	.long	LC66
	.long	LC67
	.long	LC68
	.long	LC69
	.long	LC70
	.long	0
	.long	0
	.long	LC71
	.long	LC72
	.text
Letext0:
	.file 2 "c:/workspace/pidgin-devel/win32-dev/mingw-4.7.2/bin/../lib/gcc/mingw32/4.7.2/../../../../include/stdio.h"
	.file 3 "../../../win32-dev/gtk_2_0-2.14/lib/glib-2.0/include/glibconfig.h"
	.file 4 "../../../win32-dev/gtk_2_0-2.14/include/glib-2.0/glib/gtypes.h"
	.file 5 "../../../win32-dev/gtk_2_0-2.14/include/glib-2.0/glib/garray.h"
	.file 6 "../../../win32-dev/gtk_2_0-2.14/include/glib-2.0/glib/gquark.h"
	.file 7 "../../../win32-dev/gtk_2_0-2.14/include/glib-2.0/glib/gerror.h"
	.file 8 "../../../win32-dev/gtk_2_0-2.14/include/glib-2.0/glib/glist.h"
	.file 9 "../../../win32-dev/gtk_2_0-2.14/include/glib-2.0/glib/gdataset.h"
	.file 10 "../../../win32-dev/gtk_2_0-2.14/include/glib-2.0/glib/ghash.h"
	.file 11 "../../../win32-dev/gtk_2_0-2.14/include/glib-2.0/glib/gslist.h"
	.file 12 "../../../win32-dev/gtk_2_0-2.14/include/glib-2.0/gobject/gtype.h"
	.file 13 "../../../win32-dev/gtk_2_0-2.14/include/glib-2.0/gobject/gvalue.h"
	.file 14 "../../../win32-dev/gtk_2_0-2.14/include/glib-2.0/glib/gscanner.h"
	.file 15 "../../../win32-dev/gtk_2_0-2.14/include/glib-2.0/gobject/gparam.h"
	.file 16 "../../../win32-dev/gtk_2_0-2.14/include/glib-2.0/gobject/gclosure.h"
	.file 17 "../../../win32-dev/gtk_2_0-2.14/include/glib-2.0/gobject/gsignal.h"
	.file 18 "../../../win32-dev/gtk_2_0-2.14/include/glib-2.0/gobject/gobject.h"
	.file 19 "../../libpurple/plugin.h"
	.file 20 "../../libpurple/pluginpref.h"
	.file 21 "../../libpurple/blist.h"
	.file 22 "../../../win32-dev/gtk_2_0-2.14/include/glib-2.0/gio/giotypes.h"
	.file 23 "../../../win32-dev/gtk_2_0-2.14/include/cairo/cairo.h"
	.file 24 "../../../win32-dev/gtk_2_0-2.14/include/pango-1.0/pango/pango-font.h"
	.file 25 "../../../win32-dev/gtk_2_0-2.14/include/gtk-2.0/gdk/gdktypes.h"
	.file 26 "../../../win32-dev/gtk_2_0-2.14/include/gtk-2.0/gdk/gdkcolor.h"
	.file 27 "../../../win32-dev/gtk_2_0-2.14/include/gtk-2.0/gdk/gdkfont.h"
	.file 28 "../../../win32-dev/gtk_2_0-2.14/include/gtk-2.0/gdk/gdkgc.h"
	.file 29 "../../../win32-dev/gtk_2_0-2.14/include/gtk-2.0/gdk/gdkimage.h"
	.file 30 "../../../win32-dev/gtk_2_0-2.14/include/gtk-2.0/gdk/gdkvisual.h"
	.file 31 "../../../win32-dev/gtk_2_0-2.14/include/gtk-2.0/gdk/gdkdrawable.h"
	.file 32 "../../../win32-dev/gtk_2_0-2.14/include/gtk-2.0/gdk/gdkscreen.h"
	.file 33 "../../../win32-dev/gtk_2_0-2.14/include/gtk-2.0/gdk/gdkinput.h"
	.file 34 "../../../win32-dev/gtk_2_0-2.14/include/gtk-2.0/gdk/gdkevents.h"
	.file 35 "../../../win32-dev/gtk_2_0-2.14/include/gtk-2.0/gdk-pixbuf/gdk-pixbuf-core.h"
	.file 36 "../../../win32-dev/gtk_2_0-2.14/include/gtk-2.0/gdk-pixbuf/gdk-pixbuf-transform.h"
	.file 37 "../../../win32-dev/gtk_2_0-2.14/include/gtk-2.0/gdk-pixbuf/gdk-pixbuf-animation.h"
	.file 38 "../../../win32-dev/gtk_2_0-2.14/include/gtk-2.0/gtk/gtkenums.h"
	.file 39 "../../../win32-dev/gtk_2_0-2.14/include/gtk-2.0/gtk/gtktypeutils.h"
	.file 40 "../../../win32-dev/gtk_2_0-2.14/include/gtk-2.0/gtk/gtkobject.h"
	.file 41 "../../../win32-dev/gtk_2_0-2.14/include/gtk-2.0/gtk/gtkstyle.h"
	.file 42 "../../../win32-dev/gtk_2_0-2.14/include/gtk-2.0/gtk/gtkrc.h"
	.file 43 "../../../win32-dev/gtk_2_0-2.14/include/gtk-2.0/gtk/gtkwidget.h"
	.file 44 "../../../win32-dev/gtk_2_0-2.14/include/gtk-2.0/gtk/gtkwindow.h"
	.file 45 "../../../win32-dev/gtk_2_0-2.14/include/gtk-2.0/gtk/gtkcontainer.h"
	.file 46 "../../../win32-dev/gtk_2_0-2.14/include/gtk-2.0/gtk/gtkbin.h"
	.file 47 "../../../win32-dev/gtk_2_0-2.14/include/gtk-2.0/gtk/gtkdialog.h"
	.file 48 "../../../win32-dev/gtk_2_0-2.14/include/gtk-2.0/gtk/gtkmisc.h"
	.file 49 "../../../win32-dev/gtk_2_0-2.14/include/gtk-2.0/gtk/gtkbox.h"
	.file 50 "../../../win32-dev/gtk_2_0-2.14/include/gtk-2.0/gtk/gtkimage.h"
	.file 51 "../../../win32-dev/gtk_2_0-2.14/include/gtk-2.0/gtk/gtknotebook.h"
	.file 52 "../../../win32-dev/gtk_2_0-2.14/include/gtk-2.0/gtk/gtksizegroup.h"
	.file 53 "../../libpurple/theme.h"
	.file 54 "../../pidgin/gtkicon-theme.h"
	.file 55 "../../pidgin/gtkstatus-icon-theme.h"
	.file 56 "../../pidgin/pidginstock.h"
	.file 57 "c:/workspace/pidgin-devel/win32-dev/mingw-4.7.2/bin/../lib/gcc/mingw32/4.7.2/../../../../include/ctype.h"
	.file 58 "../../../win32-dev/gtk_2_0-2.14/include/gtk-2.0/gtk/gtkiconfactory.h"
	.file 59 "../../../win32-dev/gtk_2_0-2.14/include/glib-2.0/glib/gutils.h"
	.file 60 "../../../win32-dev/gtk_2_0-2.14/include/glib-2.0/glib/gfileutils.h"
	.file 61 "../../../win32-dev/gtk_2_0-2.14/include/glib-2.0/glib/gmem.h"
	.file 62 "../../libpurple/media/../util.h"
	.file 63 "../../pidgin/gtkblist.h"
	.file 64 "../../pidgin/gtkutils.h"
	.file 65 "../../libpurple/debug.h"
	.file 66 "../../../win32-dev/gtk_2_0-2.14/include/libintl.h"
	.file 67 "../../../win32-dev/gtk_2_0-2.14/include/gtk-2.0/gtk/gtkhbox.h"
	.file 68 "../../../win32-dev/gtk_2_0-2.14/include/gtk-2.0/gtk/gtklabel.h"
	.file 69 "../../../win32-dev/gtk_2_0-2.14/include/gtk-2.0/gtk/gtkeventbox.h"
	.file 70 "../../../win32-dev/gtk_2_0-2.14/include/gtk-2.0/gtk/gtkvbox.h"
	.file 71 "c:/workspace/pidgin-devel/win32-dev/mingw-4.7.2/bin/../lib/gcc/mingw32/4.7.2/../../../../include/wtypes.h"