	.file	"transport.c"
	.intel_syntax noprefix
	.text
Ltext0:
	.section .rdata,"dr"
LC0:
	.ascii "transport\0"
	.text
	.p2align 2,,3
	.globl	_jingle_transport_to_xml_internal
	.def	_jingle_transport_to_xml_internal;	.scl	2;	.type	32;	.endef
_jingle_transport_to_xml_internal:
LFB102:
	.file 1 "jingle/transport.c"
	.loc 1 155 0
	.cfi_startproc
LVL0:
	push	ebx
LCFI0:
	.cfi_def_cfa_offset 8
	.cfi_offset 3, -8
	sub	esp, 56
LCFI1:
	.cfi_def_cfa_offset 64
	mov	ebx, DWORD PTR [esp+64]
	.loc 1 155 0
	mov	eax, DWORD PTR ___stack_chk_guard
	mov	DWORD PTR [esp+44], eax
	xor	eax, eax
	.loc 1 156 0
	mov	DWORD PTR [esp+4], OFFSET FLAT:LC0
	mov	eax, DWORD PTR [esp+68]
	mov	DWORD PTR [esp], eax
	call	_xmlnode_new_child
LVL1:
LBB4:
LBB5:
	.loc 1 143 0
	mov	edx, DWORD PTR [ebx]
LBE5:
LBE4:
	.loc 1 157 0
	mov	edx, DWORD PTR [edx+68]
	mov	DWORD PTR [esp+4], edx
	mov	DWORD PTR [esp], eax
	mov	DWORD PTR [esp+28], eax
	call	_xmlnode_set_namespace
LVL2:
	.loc 1 159 0
	mov	eax, DWORD PTR [esp+28]
	mov	edx, DWORD PTR [esp+44]
	xor	edx, DWORD PTR ___stack_chk_guard
	jne	L5
	add	esp, 56
LCFI2:
	.cfi_remember_state
	.cfi_def_cfa_offset 8
	pop	ebx
LCFI3:
	.cfi_restore 3
	.cfi_def_cfa_offset 4
LVL3:
	ret
LVL4:
L5:
LCFI4:
	.cfi_restore_state
	call	___stack_chk_fail
LVL5:
	.cfi_endproc
LFE102:
	.p2align 2,,3
	.def	_jingle_transport_class_init;	.scl	3;	.type	32;	.endef
_jingle_transport_class_init:
LFB94:
	.loc 1 79 0
	.cfi_startproc
LVL6:
	push	ebx
LCFI5:
	.cfi_def_cfa_offset 8
	.cfi_offset 3, -8
	sub	esp, 40
LCFI6:
	.cfi_def_cfa_offset 48
	mov	ebx, DWORD PTR [esp+48]
	.loc 1 79 0
	mov	eax, DWORD PTR ___stack_chk_guard
	mov	DWORD PTR [esp+28], eax
	xor	eax, eax
LVL7:
	.loc 1 81 0
	mov	DWORD PTR [esp], ebx
	call	_g_type_class_peek_parent
LVL8:
	mov	DWORD PTR _parent_class, eax
	.loc 1 83 0
	mov	DWORD PTR [ebx+24], OFFSET FLAT:_jingle_transport_finalize
	.loc 1 84 0
	mov	DWORD PTR [ebx+12], OFFSET FLAT:_jingle_transport_set_property
	.loc 1 85 0
	mov	DWORD PTR [ebx+16], OFFSET FLAT:_jingle_transport_get_property
	.loc 1 86 0
	mov	DWORD PTR [ebx+72], OFFSET FLAT:_jingle_transport_to_xml_internal
	.loc 1 87 0
	mov	DWORD PTR [ebx+76], OFFSET FLAT:_jingle_transport_parse_internal
	.loc 1 89 0
	mov	DWORD PTR [esp+4], 4
	mov	DWORD PTR [esp], ebx
	call	_g_type_class_add_private
LVL9:
	.loc 1 90 0
	mov	eax, DWORD PTR [esp+28]
	xor	eax, DWORD PTR ___stack_chk_guard
	jne	L9
	add	esp, 40
LCFI7:
	.cfi_remember_state
	.cfi_def_cfa_offset 8
	pop	ebx
LCFI8:
	.cfi_restore 3
	.cfi_def_cfa_offset 4
LVL10:
	ret
LVL11:
L9:
LCFI9:
	.cfi_restore_state
	call	___stack_chk_fail
LVL12:
	.cfi_endproc
LFE94:
	.section .rdata,"dr"
LC1:
	.ascii "jingle_transport_finalize\12\0"
LC2:
	.ascii "jingle\0"
	.text
	.p2align 2,,3
	.def	_jingle_transport_finalize;	.scl	3;	.type	32;	.endef
_jingle_transport_finalize:
LFB96:
	.loc 1 101 0
	.cfi_startproc
LVL13:
	push	ebx
LCFI10:
	.cfi_def_cfa_offset 8
	.cfi_offset 3, -8
	sub	esp, 40
LCFI11:
	.cfi_def_cfa_offset 48
	mov	ebx, DWORD PTR [esp+48]
	.loc 1 101 0
	mov	eax, DWORD PTR ___stack_chk_guard
	mov	DWORD PTR [esp+28], eax
	xor	eax, eax
	.loc 1 103 0
	mov	DWORD PTR [esp+4], OFFSET FLAT:LC1
	mov	DWORD PTR [esp], OFFSET FLAT:LC2
	call	_purple_debug_info
LVL14:
	.loc 1 105 0
	mov	eax, DWORD PTR [esp+28]
	xor	eax, DWORD PTR ___stack_chk_guard
	jne	L14
	mov	DWORD PTR [esp+48], ebx
	mov	eax, DWORD PTR _parent_class
	mov	eax, DWORD PTR [eax+24]
	.loc 1 106 0
	add	esp, 40
LCFI12:
	.cfi_remember_state
	.cfi_def_cfa_offset 8
	pop	ebx
LCFI13:
	.cfi_restore 3
	.cfi_def_cfa_offset 4
	.loc 1 105 0
	jmp	eax
LVL15:
L14:
LCFI14:
	.cfi_restore_state
	call	___stack_chk_fail
LVL16:
	.cfi_endproc
LFE96:
	.section .rdata,"dr"
LC3:
	.ascii "JingleTransport\0"
	.text
	.p2align 2,,3
	.globl	_jingle_transport_get_type
	.def	_jingle_transport_get_type;	.scl	2;	.type	32;	.endef
_jingle_transport_get_type:
LFB93:
	.loc 1 56 0
	.cfi_startproc
	sub	esp, 44
LCFI15:
	.cfi_def_cfa_offset 48
	.loc 1 56 0
	mov	eax, DWORD PTR ___stack_chk_guard
	mov	DWORD PTR [esp+28], eax
	xor	eax, eax
	.loc 1 59 0
	mov	eax, DWORD PTR _type.48761
	test	eax, eax
	jne	L16
LBB6:
	.loc 1 72 0
	mov	DWORD PTR [esp+12], 0
	mov	DWORD PTR [esp+8], OFFSET FLAT:_info.48762
	mov	DWORD PTR [esp+4], OFFSET FLAT:LC3
	mov	DWORD PTR [esp], 80
	call	_g_type_register_static
LVL17:
	mov	DWORD PTR _type.48761, eax
L16:
LBE6:
	.loc 1 75 0
	mov	edx, DWORD PTR [esp+28]
	xor	edx, DWORD PTR ___stack_chk_guard
	jne	L19
	add	esp, 44
LCFI16:
	.cfi_remember_state
	.cfi_def_cfa_offset 4
	ret
L19:
LCFI17:
	.cfi_restore_state
	call	___stack_chk_fail
LVL18:
	.cfi_endproc
LFE93:
	.p2align 2,,3
	.def	_jingle_transport_init;	.scl	3;	.type	32;	.endef
_jingle_transport_init:
LFB95:
	.loc 1 94 0
	.cfi_startproc
LVL19:
	push	ebx
LCFI18:
	.cfi_def_cfa_offset 8
	.cfi_offset 3, -8
	sub	esp, 40
LCFI19:
	.cfi_def_cfa_offset 48
	mov	ebx, DWORD PTR [esp+48]
	.loc 1 94 0
	mov	eax, DWORD PTR ___stack_chk_guard
	mov	DWORD PTR [esp+28], eax
	xor	eax, eax
	.loc 1 95 0
	call	_jingle_transport_get_type
LVL20:
	mov	DWORD PTR [esp+4], eax
	mov	DWORD PTR [esp], ebx
	call	_g_type_instance_get_private
LVL21:
	mov	DWORD PTR [ebx+12], eax
	.loc 1 96 0
	mov	DWORD PTR [eax], 0
	.loc 1 97 0
	mov	eax, DWORD PTR [esp+28]
	xor	eax, DWORD PTR ___stack_chk_guard
	jne	L23
	add	esp, 40
LCFI20:
	.cfi_remember_state
	.cfi_def_cfa_offset 8
	pop	ebx
LCFI21:
	.cfi_restore 3
	.cfi_def_cfa_offset 4
	ret
L23:
LCFI22:
	.cfi_restore_state
	call	___stack_chk_fail
LVL22:
	.cfi_endproc
LFE95:
	.section .rdata,"dr"
LC4:
	.ascii "object != NULL\0"
LC5:
	.ascii "property\0"
LC6:
	.ascii "jingle/transport.c:129\0"
	.align 4
LC7:
	.ascii "%s: invalid %s id %u for \"%s\" of type `%s' in `%s'\0"
LC8:
	.ascii "JINGLE_IS_TRANSPORT(object)\0"
	.text
	.p2align 2,,3
	.def	_jingle_transport_get_property;	.scl	3;	.type	32;	.endef
_jingle_transport_get_property:
LFB98:
	.loc 1 123 0
	.cfi_startproc
LVL23:
	push	ebp
LCFI23:
	.cfi_def_cfa_offset 8
	.cfi_offset 5, -8
	push	edi
LCFI24:
	.cfi_def_cfa_offset 12
	.cfi_offset 7, -12
	push	esi
LCFI25:
	.cfi_def_cfa_offset 16
	.cfi_offset 6, -16
	push	ebx
LCFI26:
	.cfi_def_cfa_offset 20
	.cfi_offset 3, -20
	sub	esp, 76
LCFI27:
	.cfi_def_cfa_offset 96
	mov	ebx, DWORD PTR [esp+96]
	mov	ebp, DWORD PTR [esp+100]
	mov	edi, DWORD PTR [esp+108]
	.loc 1 123 0
	mov	eax, DWORD PTR ___stack_chk_guard
	mov	DWORD PTR [esp+60], eax
	xor	eax, eax
LBB7:
	.loc 1 124 0
	test	ebx, ebx
	je	L39
LVL24:
LBE7:
LBB8:
LBB9:
	.loc 1 125 0
	call	_jingle_transport_get_type
LVL25:
	mov	esi, DWORD PTR [ebx]
	test	esi, esi
	je	L31
	.loc 1 125 0 is_stmt 0 discriminator 1
	mov	edx, DWORD PTR [esi]
	cmp	edx, eax
	je	L27
L31:
	.loc 1 125 0 discriminator 2
	mov	DWORD PTR [esp+4], eax
	mov	DWORD PTR [esp], ebx
	call	_g_type_check_instance_is_a
LVL26:
LBE9:
	test	eax, eax
	jne	L40
LVL27:
LBE8:
	.loc 1 125 0
	mov	eax, DWORD PTR [esp+60]
	xor	eax, DWORD PTR ___stack_chk_guard
LVL28:
	jne	L36
	mov	DWORD PTR [esp+104], OFFSET FLAT:LC8
LVL29:
L38:
	mov	DWORD PTR [esp+100], OFFSET FLAT:___PRETTY_FUNCTION__.48801
	mov	DWORD PTR [esp+96], 0
	.loc 1 132 0 is_stmt 1
	add	esp, 76
LCFI28:
	.cfi_remember_state
	.cfi_def_cfa_offset 20
	pop	ebx
LCFI29:
	.cfi_restore 3
	.cfi_def_cfa_offset 16
	pop	esi
LCFI30:
	.cfi_restore 6
	.cfi_def_cfa_offset 12
	pop	edi
LCFI31:
	.cfi_restore 7
	.cfi_def_cfa_offset 8
	pop	ebp
LCFI32:
	.cfi_restore 5
	.cfi_def_cfa_offset 4
	.loc 1 125 0
	jmp	_g_return_if_fail_warning
LVL30:
	.p2align 2,,3
L40:
LCFI33:
	.cfi_restore_state
	mov	edx, DWORD PTR [esi]
LVL31:
L27:
LBB10:
	.loc 1 129 0
	mov	DWORD PTR [esp], edx
	call	_g_type_name
LVL32:
	mov	ebx, eax
LVL33:
	mov	eax, DWORD PTR [edi]
	mov	eax, DWORD PTR [eax]
	mov	DWORD PTR [esp], eax
	call	_g_type_name
LVL34:
	mov	DWORD PTR [esp+32], ebx
	mov	DWORD PTR [esp+28], eax
	mov	eax, DWORD PTR [edi+4]
	mov	DWORD PTR [esp+24], eax
	mov	DWORD PTR [esp+20], ebp
	mov	DWORD PTR [esp+16], OFFSET FLAT:LC5
	mov	DWORD PTR [esp+12], OFFSET FLAT:LC6
	mov	DWORD PTR [esp+8], OFFSET FLAT:LC7
	mov	DWORD PTR [esp+4], 16
	mov	DWORD PTR [esp], 0
	call	_g_log
LVL35:
LBE10:
	.loc 1 132 0
	mov	eax, DWORD PTR [esp+60]
	xor	eax, DWORD PTR ___stack_chk_guard
	jne	L36
	add	esp, 76
LCFI34:
	.cfi_remember_state
	.cfi_def_cfa_offset 20
	pop	ebx
LCFI35:
	.cfi_restore 3
	.cfi_def_cfa_offset 16
	pop	esi
LCFI36:
	.cfi_restore 6
	.cfi_def_cfa_offset 12
	pop	edi
LCFI37:
	.cfi_restore 7
	.cfi_def_cfa_offset 8
LVL36:
	pop	ebp
LCFI38:
	.cfi_restore 5
	.cfi_def_cfa_offset 4
LVL37:
	ret
LVL38:
	.p2align 2,,3
L39:
LCFI39:
	.cfi_restore_state
	.loc 1 124 0
	mov	eax, DWORD PTR [esp+60]
	xor	eax, DWORD PTR ___stack_chk_guard
	jne	L36
	mov	DWORD PTR [esp+104], OFFSET FLAT:LC4
	jmp	L38
LVL39:
L36:
	.loc 1 132 0
	call	___stack_chk_fail
LVL40:
	.cfi_endproc
LFE98:
	.section .rdata,"dr"
LC9:
	.ascii "jingle/transport.c:116\0"
	.text
	.p2align 2,,3
	.def	_jingle_transport_set_property;	.scl	3;	.type	32;	.endef
_jingle_transport_set_property:
LFB97:
	.loc 1 110 0
	.cfi_startproc
LVL41:
	push	ebp
LCFI40:
	.cfi_def_cfa_offset 8
	.cfi_offset 5, -8
	push	edi
LCFI41:
	.cfi_def_cfa_offset 12
	.cfi_offset 7, -12
	push	esi
LCFI42:
	.cfi_def_cfa_offset 16
	.cfi_offset 6, -16
	push	ebx
LCFI43:
	.cfi_def_cfa_offset 20
	.cfi_offset 3, -20
	sub	esp, 76
LCFI44:
	.cfi_def_cfa_offset 96
	mov	ebx, DWORD PTR [esp+96]
	mov	ebp, DWORD PTR [esp+100]
	mov	edi, DWORD PTR [esp+108]
	.loc 1 110 0
	mov	eax, DWORD PTR ___stack_chk_guard
	mov	DWORD PTR [esp+60], eax
	xor	eax, eax
LBB11:
	.loc 1 111 0
	test	ebx, ebx
	je	L56
LVL42:
LBE11:
LBB12:
LBB13:
	.loc 1 112 0
	call	_jingle_transport_get_type
LVL43:
	mov	esi, DWORD PTR [ebx]
	test	esi, esi
	je	L48
	.loc 1 112 0 is_stmt 0 discriminator 1
	mov	edx, DWORD PTR [esi]
	cmp	edx, eax
	je	L44
L48:
	.loc 1 112 0 discriminator 2
	mov	DWORD PTR [esp+4], eax
	mov	DWORD PTR [esp], ebx
	call	_g_type_check_instance_is_a
LVL44:
LBE13:
	test	eax, eax
	jne	L57
LVL45:
LBE12:
	.loc 1 112 0
	mov	eax, DWORD PTR [esp+60]
	xor	eax, DWORD PTR ___stack_chk_guard
LVL46:
	jne	L53
	mov	DWORD PTR [esp+104], OFFSET FLAT:LC8
LVL47:
L55:
	mov	DWORD PTR [esp+100], OFFSET FLAT:___PRETTY_FUNCTION__.48781
	mov	DWORD PTR [esp+96], 0
	.loc 1 119 0 is_stmt 1
	add	esp, 76
LCFI45:
	.cfi_remember_state
	.cfi_def_cfa_offset 20
	pop	ebx
LCFI46:
	.cfi_restore 3
	.cfi_def_cfa_offset 16
	pop	esi
LCFI47:
	.cfi_restore 6
	.cfi_def_cfa_offset 12
	pop	edi
LCFI48:
	.cfi_restore 7
	.cfi_def_cfa_offset 8
	pop	ebp
LCFI49:
	.cfi_restore 5
	.cfi_def_cfa_offset 4
	.loc 1 112 0
	jmp	_g_return_if_fail_warning
LVL48:
	.p2align 2,,3
L57:
LCFI50:
	.cfi_restore_state
	mov	edx, DWORD PTR [esi]
LVL49:
L44:
LBB14:
	.loc 1 116 0
	mov	DWORD PTR [esp], edx
	call	_g_type_name
LVL50:
	mov	ebx, eax
LVL51:
	mov	eax, DWORD PTR [edi]
	mov	eax, DWORD PTR [eax]
	mov	DWORD PTR [esp], eax
	call	_g_type_name
LVL52:
	mov	DWORD PTR [esp+32], ebx
	mov	DWORD PTR [esp+28], eax
	mov	eax, DWORD PTR [edi+4]
	mov	DWORD PTR [esp+24], eax
	mov	DWORD PTR [esp+20], ebp
	mov	DWORD PTR [esp+16], OFFSET FLAT:LC5
	mov	DWORD PTR [esp+12], OFFSET FLAT:LC9
	mov	DWORD PTR [esp+8], OFFSET FLAT:LC7
	mov	DWORD PTR [esp+4], 16
	mov	DWORD PTR [esp], 0
	call	_g_log
LVL53:
LBE14:
	.loc 1 119 0
	mov	eax, DWORD PTR [esp+60]
	xor	eax, DWORD PTR ___stack_chk_guard
	jne	L53
	add	esp, 76
LCFI51:
	.cfi_remember_state
	.cfi_def_cfa_offset 20
	pop	ebx
LCFI52:
	.cfi_restore 3
	.cfi_def_cfa_offset 16
	pop	esi
LCFI53:
	.cfi_restore 6
	.cfi_def_cfa_offset 12
	pop	edi
LCFI54:
	.cfi_restore 7
	.cfi_def_cfa_offset 8
LVL54:
	pop	ebp
LCFI55:
	.cfi_restore 5
	.cfi_def_cfa_offset 4
LVL55:
	ret
LVL56:
	.p2align 2,,3
L56:
LCFI56:
	.cfi_restore_state
	.loc 1 111 0
	mov	eax, DWORD PTR [esp+60]
	xor	eax, DWORD PTR ___stack_chk_guard
	jne	L53
	mov	DWORD PTR [esp+104], OFFSET FLAT:LC4
	jmp	L55
LVL57:
L53:
	.loc 1 119 0
	call	___stack_chk_fail
LVL58:
	.cfi_endproc
LFE97:
	.p2align 2,,3
	.globl	_jingle_transport_create
	.def	_jingle_transport_create;	.scl	2;	.type	32;	.endef
_jingle_transport_create:
LFB99:
	.loc 1 136 0
	.cfi_startproc
LVL59:
	sub	esp, 44
LCFI57:
	.cfi_def_cfa_offset 48
	.loc 1 136 0
	mov	eax, DWORD PTR ___stack_chk_guard
	mov	DWORD PTR [esp+28], eax
	xor	eax, eax
	.loc 1 137 0
	mov	eax, DWORD PTR [esp+48]
	mov	DWORD PTR [esp], eax
	call	_jingle_get_type
LVL60:
	mov	DWORD PTR [esp+4], 0
	mov	DWORD PTR [esp], eax
	call	_g_object_new
LVL61:
	.loc 1 138 0
	mov	edx, DWORD PTR [esp+28]
	xor	edx, DWORD PTR ___stack_chk_guard
	jne	L61
	add	esp, 44
LCFI58:
	.cfi_remember_state
	.cfi_def_cfa_offset 4
	ret
L61:
LCFI59:
	.cfi_restore_state
	call	___stack_chk_fail
LVL62:
	.cfi_endproc
LFE99:
	.p2align 2,,3
	.globl	_jingle_transport_parse_internal
	.def	_jingle_transport_parse_internal;	.scl	2;	.type	32;	.endef
_jingle_transport_parse_internal:
LFB101:
	.loc 1 148 0
	.cfi_startproc
LVL63:
	sub	esp, 44
LCFI60:
	.cfi_def_cfa_offset 48
	.loc 1 148 0
	mov	eax, DWORD PTR ___stack_chk_guard
	mov	DWORD PTR [esp+28], eax
	xor	eax, eax
	.loc 1 149 0
	mov	eax, DWORD PTR [esp+48]
	mov	DWORD PTR [esp], eax
	call	_xmlnode_get_namespace
LVL64:
	.loc 1 150 0
	mov	edx, DWORD PTR [esp+28]
	xor	edx, DWORD PTR ___stack_chk_guard
	jne	L66
	mov	DWORD PTR [esp+48], eax
	.loc 1 151 0
	add	esp, 44
LCFI61:
	.cfi_remember_state
	.cfi_def_cfa_offset 4
	.loc 1 150 0
	jmp	_jingle_transport_create
LVL65:
L66:
LCFI62:
	.cfi_restore_state
	call	___stack_chk_fail
LVL66:
	.cfi_endproc
LFE101:
	.p2align 2,,3
	.globl	_jingle_transport_get_transport_type
	.def	_jingle_transport_get_transport_type;	.scl	2;	.type	32;	.endef
_jingle_transport_get_transport_type:
LFB100:
	.loc 1 142 0
	.cfi_startproc
LVL67:
	sub	esp, 28
LCFI63:
	.cfi_def_cfa_offset 32
	.loc 1 142 0
	mov	eax, DWORD PTR ___stack_chk_guard
	mov	DWORD PTR [esp+12], eax
	xor	eax, eax
	.loc 1 143 0
	mov	eax, DWORD PTR [esp+32]
	mov	eax, DWORD PTR [eax]
	mov	eax, DWORD PTR [eax+68]
	.loc 1 144 0
	mov	edx, DWORD PTR [esp+12]
	xor	edx, DWORD PTR ___stack_chk_guard
	jne	L70
	add	esp, 28
LCFI64:
	.cfi_remember_state
	.cfi_def_cfa_offset 4
	ret
L70:
LCFI65:
	.cfi_restore_state
	call	___stack_chk_fail
LVL68:
	.cfi_endproc
LFE100:
	.p2align 2,,3
	.globl	_jingle_transport_parse
	.def	_jingle_transport_parse;	.scl	2;	.type	32;	.endef
_jingle_transport_parse:
LFB103:
	.loc 1 163 0
	.cfi_startproc
LVL69:
	push	edi
LCFI66:
	.cfi_def_cfa_offset 8
	.cfi_offset 7, -8
	push	esi
LCFI67:
	.cfi_def_cfa_offset 12
	.cfi_offset 6, -12
	push	ebx
LCFI68:
	.cfi_def_cfa_offset 16
	.cfi_offset 3, -16
	sub	esp, 32
LCFI69:
	.cfi_def_cfa_offset 48
	mov	esi, DWORD PTR [esp+48]
	.loc 1 163 0
	mov	eax, DWORD PTR ___stack_chk_guard
	mov	DWORD PTR [esp+28], eax
	xor	eax, eax
	.loc 1 164 0
	mov	DWORD PTR [esp], esi
	call	_xmlnode_get_namespace
LVL70:
	.loc 1 165 0
	mov	DWORD PTR [esp], eax
	call	_jingle_get_type
LVL71:
	mov	ebx, eax
LVL72:
	.loc 1 166 0
	cmp	eax, 4
	je	L72
	.loc 1 169 0
	call	_jingle_transport_get_type
LVL73:
	mov	edi, eax
	mov	DWORD PTR [esp], ebx
	call	_g_type_class_ref
LVL74:
	mov	DWORD PTR [esp+4], edi
	mov	DWORD PTR [esp], eax
	call	_g_type_check_class_cast
LVL75:
	mov	edx, DWORD PTR [esp+28]
	xor	edx, DWORD PTR ___stack_chk_guard
	jne	L76
	mov	DWORD PTR [esp+48], esi
	mov	eax, DWORD PTR [eax+76]
	.loc 1 170 0
	add	esp, 32
LCFI70:
	.cfi_remember_state
	.cfi_def_cfa_offset 16
	pop	ebx
LCFI71:
	.cfi_restore 3
	.cfi_def_cfa_offset 12
LVL76:
	pop	esi
LCFI72:
	.cfi_restore 6
	.cfi_def_cfa_offset 8
	pop	edi
LCFI73:
	.cfi_restore 7
	.cfi_def_cfa_offset 4
	.loc 1 169 0
	jmp	eax
LVL77:
	.p2align 2,,3
L72:
LCFI74:
	.cfi_restore_state
	.loc 1 170 0
	xor	eax, eax
LVL78:
	mov	edx, DWORD PTR [esp+28]
	xor	edx, DWORD PTR ___stack_chk_guard
	jne	L76
	add	esp, 32
LCFI75:
	.cfi_remember_state
	.cfi_def_cfa_offset 16
	pop	ebx
LCFI76:
	.cfi_restore 3
	.cfi_def_cfa_offset 12
LVL79:
	pop	esi
LCFI77:
	.cfi_restore 6
	.cfi_def_cfa_offset 8
	pop	edi
LCFI78:
	.cfi_restore 7
	.cfi_def_cfa_offset 4
	ret
LVL80:
L76:
LCFI79:
	.cfi_restore_state
	call	___stack_chk_fail
LVL81:
	.cfi_endproc
LFE103:
	.section .rdata,"dr"
LC10:
	.ascii "transport != NULL\0"
	.align 4
LC11:
	.ascii "JINGLE_IS_TRANSPORT(transport)\0"
	.text
	.p2align 2,,3
	.globl	_jingle_transport_to_xml
	.def	_jingle_transport_to_xml;	.scl	2;	.type	32;	.endef
_jingle_transport_to_xml:
LFB104:
	.loc 1 174 0
	.cfi_startproc
LVL82:
	push	ebp
LCFI80:
	.cfi_def_cfa_offset 8
	.cfi_offset 5, -8
	push	edi
LCFI81:
	.cfi_def_cfa_offset 12
	.cfi_offset 7, -12
	push	esi
LCFI82:
	.cfi_def_cfa_offset 16
	.cfi_offset 6, -16
	push	ebx
LCFI83:
	.cfi_def_cfa_offset 20
	.cfi_offset 3, -20
	sub	esp, 44
LCFI84:
	.cfi_def_cfa_offset 64
	mov	ebx, DWORD PTR [esp+64]
	mov	edi, DWORD PTR [esp+68]
	mov	ebp, DWORD PTR [esp+72]
	.loc 1 174 0
	mov	eax, DWORD PTR ___stack_chk_guard
	mov	DWORD PTR [esp+28], eax
	xor	eax, eax
LBB15:
	.loc 1 175 0
	test	ebx, ebx
	je	L91
LVL83:
LBE15:
LBB16:
LBB17:
	.loc 1 176 0
	call	_jingle_transport_get_type
LVL84:
	mov	esi, DWORD PTR [ebx]
	test	esi, esi
	je	L84
	.loc 1 176 0 is_stmt 0 discriminator 1
	cmp	DWORD PTR [esi], eax
	je	L80
L84:
	.loc 1 176 0 discriminator 2
	mov	DWORD PTR [esp+4], eax
	mov	DWORD PTR [esp], ebx
	call	_g_type_check_instance_is_a
LVL85:
LBE17:
	test	eax, eax
	jne	L80
LVL86:
LBE16:
	.loc 1 176 0
	mov	DWORD PTR [esp+8], OFFSET FLAT:LC11
	mov	DWORD PTR [esp+4], OFFSET FLAT:___PRETTY_FUNCTION__.48841
	mov	DWORD PTR [esp], 0
	call	_g_return_if_fail_warning
LVL87:
L82:
	.loc 1 178 0 is_stmt 1
	xor	eax, eax
	mov	edx, DWORD PTR [esp+28]
	xor	edx, DWORD PTR ___stack_chk_guard
	jne	L89
	add	esp, 44
LCFI85:
	.cfi_remember_state
	.cfi_def_cfa_offset 20
	pop	ebx
LCFI86:
	.cfi_restore 3
	.cfi_def_cfa_offset 16
	pop	esi
LCFI87:
	.cfi_restore 6
	.cfi_def_cfa_offset 12
	pop	edi
LCFI88:
	.cfi_restore 7
	.cfi_def_cfa_offset 8
	pop	ebp
LCFI89:
	.cfi_restore 5
	.cfi_def_cfa_offset 4
	ret
LVL88:
	.p2align 2,,3
L80:
LCFI90:
	.cfi_restore_state
	.loc 1 177 0
	mov	eax, DWORD PTR [esp+28]
	xor	eax, DWORD PTR ___stack_chk_guard
	jne	L89
	mov	DWORD PTR [esp+72], ebp
	mov	DWORD PTR [esp+68], edi
	mov	DWORD PTR [esp+64], ebx
	mov	eax, DWORD PTR [esi+72]
	.loc 1 178 0
	add	esp, 44
LCFI91:
	.cfi_remember_state
	.cfi_def_cfa_offset 20
	pop	ebx
LCFI92:
	.cfi_restore 3
	.cfi_def_cfa_offset 16
LVL89:
	pop	esi
LCFI93:
	.cfi_restore 6
	.cfi_def_cfa_offset 12
	pop	edi
LCFI94:
	.cfi_restore 7
	.cfi_def_cfa_offset 8
	pop	ebp
LCFI95:
	.cfi_restore 5
	.cfi_def_cfa_offset 4
	.loc 1 177 0
	jmp	eax
LVL90:
	.p2align 2,,3
L91:
LCFI96:
	.cfi_restore_state
	.loc 1 175 0
	mov	DWORD PTR [esp+8], OFFSET FLAT:LC10
	mov	DWORD PTR [esp+4], OFFSET FLAT:___PRETTY_FUNCTION__.48841
	mov	DWORD PTR [esp], 0
	call	_g_return_if_fail_warning
LVL91:
	jmp	L82
LVL92:
L89:
	.loc 1 178 0
	call	___stack_chk_fail
LVL93:
	.cfi_endproc
LFE104:
.lcomm _type.48761,4,4
	.section .rdata,"dr"
	.align 32
_info.48762:
	.word	80
	.space 2
	.long	0
	.long	0
	.long	_jingle_transport_class_init
	.long	0
	.long	0
	.word	16
	.word	0
	.long	_jingle_transport_init
	.long	0
.lcomm _parent_class,4,4
___PRETTY_FUNCTION__.48801:
	.ascii "jingle_transport_get_property\0"
___PRETTY_FUNCTION__.48781:
	.ascii "jingle_transport_set_property\0"
___PRETTY_FUNCTION__.48841:
	.ascii "jingle_transport_to_xml\0"
	.text
Letext0:
	.file 2 "c:/workspace/pidgin-devel/win32-dev/mingw-4.7.2/bin/../lib/gcc/mingw32/4.7.2/../../../../include/stdio.h"
	.file 3 "c:/workspace/pidgin-devel/win32-dev/mingw-4.7.2/bin/../lib/gcc/mingw32/4.7.2/include/stddef.h"
	.file 4 "../../../../win32-dev/gtk_2_0-2.14/lib/glib-2.0/include/glibconfig.h"
	.file 5 "../../../../win32-dev/gtk_2_0-2.14/include/glib-2.0/glib/gtypes.h"
	.file 6 "../../../../win32-dev/gtk_2_0-2.14/include/glib-2.0/glib/gdataset.h"
	.file 7 "../../../../win32-dev/gtk_2_0-2.14/include/glib-2.0/glib/ghash.h"
	.file 8 "../../../../win32-dev/gtk_2_0-2.14/include/glib-2.0/glib/gslist.h"
	.file 9 "../../../../win32-dev/gtk_2_0-2.14/include/glib-2.0/glib/gmessages.h"
	.file 10 "../../../../win32-dev/gtk_2_0-2.14/include/glib-2.0/gobject/gtype.h"
	.file 11 "../../../../win32-dev/gtk_2_0-2.14/include/glib-2.0/gobject/gvalue.h"
	.file 12 "../../../../win32-dev/gtk_2_0-2.14/include/glib-2.0/gobject/gparam.h"
	.file 13 "../../../../win32-dev/gtk_2_0-2.14/include/glib-2.0/gobject/gobject.h"
	.file 14 "c:/workspace/pidgin-devel/win32-dev/mingw-4.7.2/bin/../lib/gcc/mingw32/4.7.2/../../../../include/wtypes.h"
	.file 15 "../../../libpurple/media/../xmlnode.h"
	.file 16 "jingle/jingle.h"
	.file 17 "jingle/transport.h"
	.file 18 "c:/workspace/pidgin-devel/win32-dev/mingw-4.7.2/bin/../lib/gcc/mingw32/4.7.2/../../../../include/ctype.h"
	.file 19 "../../../libpurple/debug.h"