	.file	"userlist.c"
	.intel_syntax noprefix
	.text
Ltext0:
	.p2align 2,,3
	.globl	_msn_got_lst_user
	.def	_msn_got_lst_user;	.scl	2;	.type	32;	.endef
_msn_got_lst_user:
LFB96:
	.file 1 "userlist.c"
	.loc 1 122 0
	.cfi_startproc
LVL0:
	push	ebp
LCFI0:
	.cfi_def_cfa_offset 8
	.cfi_offset 5, -8
	push	edi
LCFI1:
	.cfi_def_cfa_offset 12
	.cfi_offset 7, -12
	push	esi
LCFI2:
	.cfi_def_cfa_offset 16
	.cfi_offset 6, -16
	push	ebx
LCFI3:
	.cfi_def_cfa_offset 20
	.cfi_offset 3, -20
	sub	esp, 92
LCFI4:
	.cfi_def_cfa_offset 112
	mov	ebx, DWORD PTR [esp+116]
	mov	esi, DWORD PTR [esp+120]
	mov	ebp, DWORD PTR [esp+124]
	.loc 1 122 0
	mov	eax, DWORD PTR ___stack_chk_guard
	mov	DWORD PTR [esp+76], eax
	xor	eax, eax
	.loc 1 129 0
	mov	eax, DWORD PTR [esp+112]
	mov	eax, DWORD PTR [eax]
	mov	DWORD PTR [esp+48], eax
LVL1:
	.loc 1 130 0
	mov	DWORD PTR [esp], eax
	call	_purple_account_get_connection
LVL2:
	mov	DWORD PTR [esp+52], eax
LVL3:
	.loc 1 132 0
	mov	DWORD PTR [esp], ebx
	call	_msn_user_get_passport
LVL4:
	mov	edi, eax
LVL5:
	.loc 1 133 0
	mov	DWORD PTR [esp], ebx
	call	_msn_user_get_friendly_name
LVL6:
	mov	DWORD PTR [esp+56], eax
LVL7:
	.loc 1 134 0
	mov	DWORD PTR [esp], ebx
	call	_msn_user_get_invite_message
LVL8:
	mov	DWORD PTR [esp+60], eax
LVL9:
	.loc 1 136 0
	mov	DWORD PTR [esp+4], esi
	mov	DWORD PTR [esp], ebx
	call	_msn_user_set_op
LVL10:
	.loc 1 138 0
	test	esi, 1
	jne	L26
	.loc 1 152 0
	test	esi, 2
	jne	L28
L6:
	.loc 1 159 0
	test	esi, 4
	jne	L29
L7:
	.loc 1 182 0
	and	esi, 16
	je	L1
	.loc 1 184 0
	mov	DWORD PTR [ebx+40], 1
LVL11:
LBB14:
LBB15:
	.loc 1 103 0
	mov	DWORD PTR [esp], 12
	call	_g_malloc0
LVL12:
	mov	ebx, eax
LVL13:
	.loc 1 104 0
	mov	DWORD PTR [esp], edi
	call	_g_strdup
LVL14:
	mov	DWORD PTR [ebx+4], eax
	.loc 1 105 0
	mov	eax, DWORD PTR [esp+56]
	mov	DWORD PTR [esp], eax
	call	_g_strdup
LVL15:
	mov	DWORD PTR [ebx+8], eax
	.loc 1 106 0
	mov	eax, DWORD PTR [esp+52]
	mov	DWORD PTR [ebx], eax
	.loc 1 108 0
	mov	DWORD PTR [esp], eax
	call	_purple_connection_get_account
LVL16:
	mov	esi, eax
LVL17:
	.loc 1 110 0
	mov	DWORD PTR [esp+4], edi
	mov	DWORD PTR [esp], eax
	call	_purple_find_buddy
LVL18:
	.loc 1 109 0
	mov	DWORD PTR [esp+32], ebx
	mov	DWORD PTR [esp+28], OFFSET FLAT:_msn_cancel_add_cb
	mov	DWORD PTR [esp+24], OFFSET FLAT:_msn_accept_add_cb
	test	eax, eax
	setne	al
	movzx	eax, al
	mov	DWORD PTR [esp+20], eax
	mov	eax, DWORD PTR [esp+60]
	mov	DWORD PTR [esp+16], eax
	mov	eax, DWORD PTR [esp+56]
	mov	DWORD PTR [esp+12], eax
	mov	DWORD PTR [esp+8], 0
	mov	DWORD PTR [esp+4], edi
	mov	DWORD PTR [esp], esi
	call	_purple_account_request_authorization
LVL19:
L1:
LBE15:
LBE14:
	.loc 1 187 0
	mov	eax, DWORD PTR [esp+76]
	xor	eax, DWORD PTR ___stack_chk_guard
	jne	L30
	add	esp, 92
LCFI5:
	.cfi_remember_state
	.cfi_def_cfa_offset 20
	pop	ebx
LCFI6:
	.cfi_restore 3
	.cfi_def_cfa_offset 16
	pop	esi
LCFI7:
	.cfi_restore 6
	.cfi_def_cfa_offset 12
	pop	edi
LCFI8:
	.cfi_restore 7
	.cfi_def_cfa_offset 8
LVL20:
	pop	ebp
LCFI9:
	.cfi_restore 5
	.cfi_def_cfa_offset 4
	ret
LVL21:
	.p2align 2,,3
L18:
LCFI10:
	.cfi_restore_state
LBB16:
LBB17:
	.loc 1 144 0 discriminator 2
	mov	eax, DWORD PTR [ebp+0]
	mov	DWORD PTR [esp+4], eax
	mov	DWORD PTR [esp], ebx
	call	_msn_user_add_group_id
LVL22:
LBE17:
	.loc 1 141 0 discriminator 2
	mov	ebp, DWORD PTR [ebp+4]
LVL23:
L26:
	test	ebp, ebp
	jne	L18
	.loc 1 149 0
	mov	eax, DWORD PTR [esp+56]
	mov	DWORD PTR [esp+8], eax
	mov	DWORD PTR [esp+4], edi
	mov	eax, DWORD PTR [esp+52]
	mov	DWORD PTR [esp], eax
	call	_serv_got_alias
LVL24:
LBE16:
	.loc 1 152 0
	test	esi, 2
	je	L6
LVL25:
L28:
	.loc 1 155 0
	mov	DWORD PTR [esp+8], 1
	mov	DWORD PTR [esp+4], edi
	mov	eax, DWORD PTR [esp+48]
	mov	DWORD PTR [esp], eax
	call	_purple_privacy_deny_remove
LVL26:
	.loc 1 156 0
	mov	DWORD PTR [esp+8], 1
	mov	DWORD PTR [esp+4], edi
	mov	eax, DWORD PTR [esp+48]
	mov	DWORD PTR [esp], eax
	call	_purple_privacy_permit_add
LVL27:
	.loc 1 159 0
	test	esi, 4
	je	L7
L29:
	.loc 1 162 0
	mov	DWORD PTR [esp+8], 1
	mov	DWORD PTR [esp+4], edi
	mov	eax, DWORD PTR [esp+48]
	mov	DWORD PTR [esp], eax
	call	_purple_privacy_permit_remove
LVL28:
	.loc 1 163 0
	mov	DWORD PTR [esp+8], 1
	mov	DWORD PTR [esp+4], edi
	mov	eax, DWORD PTR [esp+48]
	mov	DWORD PTR [esp], eax
	call	_purple_privacy_deny_add
LVL29:
	jmp	L7
L30:
	.loc 1 187 0
	call	___stack_chk_fail
LVL30:
	.cfi_endproc
LFE96:
	.p2align 2,,3
	.globl	_msn_userlist_new
	.def	_msn_userlist_new;	.scl	2;	.type	32;	.endef
_msn_userlist_new:
LFB97:
	.loc 1 195 0
	.cfi_startproc
LVL31:
	push	esi
LCFI11:
	.cfi_def_cfa_offset 8
	.cfi_offset 6, -8
	push	ebx
LCFI12:
	.cfi_def_cfa_offset 12
	.cfi_offset 3, -12
	sub	esp, 36
LCFI13:
	.cfi_def_cfa_offset 48
	mov	esi, DWORD PTR [esp+48]
	.loc 1 195 0
	mov	eax, DWORD PTR ___stack_chk_guard
	mov	DWORD PTR [esp+28], eax
	xor	eax, eax
	.loc 1 198 0
	mov	DWORD PTR [esp], 24
	call	_g_malloc0
LVL32:
	mov	ebx, eax
LVL33:
	.loc 1 200 0
	mov	DWORD PTR [eax], esi
	.loc 1 201 0
	call	_g_queue_new
LVL34:
	mov	DWORD PTR [ebx+12], eax
	.loc 1 206 0
	mov	DWORD PTR [ebx+16], 1
	.loc 1 209 0
	mov	edx, DWORD PTR [esp+28]
	xor	edx, DWORD PTR ___stack_chk_guard
	jne	L34
	mov	eax, ebx
	add	esp, 36
LCFI14:
	.cfi_remember_state
	.cfi_def_cfa_offset 12
	pop	ebx
LCFI15:
	.cfi_restore 3
	.cfi_def_cfa_offset 8
LVL35:
	pop	esi
LCFI16:
	.cfi_restore 6
	.cfi_def_cfa_offset 4
	ret
LVL36:
L34:
LCFI17:
	.cfi_restore_state
	call	___stack_chk_fail
LVL37:
	.cfi_endproc
LFE97:
	.p2align 2,,3
	.globl	_msn_userlist_destroy
	.def	_msn_userlist_destroy;	.scl	2;	.type	32;	.endef
_msn_userlist_destroy:
LFB98:
	.loc 1 213 0
	.cfi_startproc
LVL38:
	push	esi
LCFI18:
	.cfi_def_cfa_offset 8
	.cfi_offset 6, -8
	push	ebx
LCFI19:
	.cfi_def_cfa_offset 12
	.cfi_offset 3, -12
	sub	esp, 36
LCFI20:
	.cfi_def_cfa_offset 48
	mov	esi, DWORD PTR [esp+48]
	.loc 1 213 0
	mov	eax, DWORD PTR ___stack_chk_guard
	mov	DWORD PTR [esp+28], eax
	xor	eax, eax
	.loc 1 217 0
	mov	ebx, DWORD PTR [esi+4]
LVL39:
	test	ebx, ebx
	je	L43
	.p2align 2,,3
L48:
	.loc 1 219 0 discriminator 2
	mov	eax, DWORD PTR [ebx]
	mov	DWORD PTR [esp], eax
	call	_msn_user_unref
LVL40:
	.loc 1 217 0 discriminator 2
	mov	ebx, DWORD PTR [ebx+4]
LVL41:
	test	ebx, ebx
	jne	L48
	mov	eax, DWORD PTR [esi+4]
L36:
	.loc 1 221 0
	mov	DWORD PTR [esp], eax
	call	_g_list_free
LVL42:
	.loc 1 224 0
	mov	ebx, DWORD PTR [esi+8]
LVL43:
	test	ebx, ebx
	je	L44
	.p2align 2,,3
L47:
	.loc 1 226 0 discriminator 2
	mov	eax, DWORD PTR [ebx]
	mov	DWORD PTR [esp], eax
	call	_msn_group_destroy
LVL44:
	.loc 1 224 0 discriminator 2
	mov	ebx, DWORD PTR [ebx+4]
LVL45:
	test	ebx, ebx
	jne	L47
	mov	eax, DWORD PTR [esi+8]
L38:
	.loc 1 228 0
	mov	DWORD PTR [esp], eax
	call	_g_list_free
LVL46:
	.loc 1 230 0
	mov	eax, DWORD PTR [esi+12]
	mov	DWORD PTR [esp], eax
	call	_g_queue_free
LVL47:
	.loc 1 232 0
	mov	eax, DWORD PTR [esi+20]
	test	eax, eax
	je	L40
	.loc 1 233 0
	mov	DWORD PTR [esp], eax
	call	_purple_timeout_remove
LVL48:
L40:
	.loc 1 235 0
	mov	eax, DWORD PTR [esp+28]
	xor	eax, DWORD PTR ___stack_chk_guard
	jne	L53
	mov	DWORD PTR [esp+48], esi
	.loc 1 236 0
	add	esp, 36
LCFI21:
	.cfi_remember_state
	.cfi_def_cfa_offset 12
	pop	ebx
LCFI22:
	.cfi_restore 3
	.cfi_def_cfa_offset 8
LVL49:
	pop	esi
LCFI23:
	.cfi_restore 6
	.cfi_def_cfa_offset 4
	.loc 1 235 0
	jmp	_g_free
LVL50:
L44:
LCFI24:
	.cfi_restore_state
	.loc 1 224 0
	xor	eax, eax
	jmp	L38
L43:
	.loc 1 217 0
	xor	eax, eax
	jmp	L36
L53:
	.loc 1 235 0
	call	___stack_chk_fail
LVL51:
	.cfi_endproc
LFE98:
	.p2align 2,,3
	.globl	_msn_userlist_add_user
	.def	_msn_userlist_add_user;	.scl	2;	.type	32;	.endef
_msn_userlist_add_user:
LFB100:
	.loc 1 257 0
	.cfi_startproc
LVL52:
	push	esi
LCFI25:
	.cfi_def_cfa_offset 8
	.cfi_offset 6, -8
	push	ebx
LCFI26:
	.cfi_def_cfa_offset 12
	.cfi_offset 3, -12
	sub	esp, 36
LCFI27:
	.cfi_def_cfa_offset 48
	mov	ebx, DWORD PTR [esp+48]
	mov	esi, DWORD PTR [esp+52]
	.loc 1 257 0
	mov	eax, DWORD PTR ___stack_chk_guard
	mov	DWORD PTR [esp+28], eax
	xor	eax, eax
	.loc 1 258 0
	mov	DWORD PTR [esp], esi
	call	_msn_user_ref
LVL53:
	.loc 1 259 0
	mov	DWORD PTR [esp+4], esi
	mov	eax, DWORD PTR [ebx+4]
	mov	DWORD PTR [esp], eax
	call	_g_list_prepend
LVL54:
	mov	DWORD PTR [ebx+4], eax
	.loc 1 260 0
	mov	eax, DWORD PTR [esp+28]
	xor	eax, DWORD PTR ___stack_chk_guard
	jne	L57
	add	esp, 36
LCFI28:
	.cfi_remember_state
	.cfi_def_cfa_offset 12
	pop	ebx
LCFI29:
	.cfi_restore 3
	.cfi_def_cfa_offset 8
	pop	esi
LCFI30:
	.cfi_restore 6
	.cfi_def_cfa_offset 4
	ret
L57:
LCFI31:
	.cfi_restore_state
	call	___stack_chk_fail
LVL55:
	.cfi_endproc
LFE100:
	.p2align 2,,3
	.globl	_msn_userlist_remove_user
	.def	_msn_userlist_remove_user;	.scl	2;	.type	32;	.endef
_msn_userlist_remove_user:
LFB101:
	.loc 1 264 0
	.cfi_startproc
LVL56:
	push	esi
LCFI32:
	.cfi_def_cfa_offset 8
	.cfi_offset 6, -8
	push	ebx
LCFI33:
	.cfi_def_cfa_offset 12
	.cfi_offset 3, -12
	sub	esp, 36
LCFI34:
	.cfi_def_cfa_offset 48
	mov	ebx, DWORD PTR [esp+48]
	mov	esi, DWORD PTR [esp+52]
	.loc 1 264 0
	mov	eax, DWORD PTR ___stack_chk_guard
	mov	DWORD PTR [esp+28], eax
	xor	eax, eax
	.loc 1 265 0
	mov	DWORD PTR [esp+4], esi
	mov	eax, DWORD PTR [ebx+4]
	mov	DWORD PTR [esp], eax
	call	_g_list_remove
LVL57:
	mov	DWORD PTR [ebx+4], eax
	.loc 1 266 0
	mov	DWORD PTR [esp+4], esi
	mov	eax, DWORD PTR [ebx+12]
	mov	DWORD PTR [esp], eax
	call	_g_queue_remove
LVL58:
	.loc 1 267 0
	mov	eax, DWORD PTR [esp+28]
	xor	eax, DWORD PTR ___stack_chk_guard
	jne	L62
	mov	DWORD PTR [esp+48], esi
	.loc 1 268 0
	add	esp, 36
LCFI35:
	.cfi_remember_state
	.cfi_def_cfa_offset 12
	pop	ebx
LCFI36:
	.cfi_restore 3
	.cfi_def_cfa_offset 8
	pop	esi
LCFI37:
	.cfi_restore 6
	.cfi_def_cfa_offset 4
	.loc 1 267 0
	jmp	_msn_user_unref
LVL59:
L62:
LCFI38:
	.cfi_restore_state
	call	___stack_chk_fail
LVL60:
	.cfi_endproc
LFE101:
	.section .rdata,"dr"
LC0:
	.ascii "user->passport != NULL\0"
LC1:
	.ascii "passport != NULL\0"
	.text
	.p2align 2,,3
	.globl	_msn_userlist_find_user
	.def	_msn_userlist_find_user;	.scl	2;	.type	32;	.endef
_msn_userlist_find_user:
LFB102:
	.loc 1 272 0
	.cfi_startproc
LVL61:
	push	edi
LCFI39:
	.cfi_def_cfa_offset 8
	.cfi_offset 7, -8
	push	esi
LCFI40:
	.cfi_def_cfa_offset 12
	.cfi_offset 6, -12
	push	ebx
LCFI41:
	.cfi_def_cfa_offset 16
	.cfi_offset 3, -16
	sub	esp, 32
LCFI42:
	.cfi_def_cfa_offset 48
	mov	eax, DWORD PTR [esp+48]
	mov	edi, DWORD PTR [esp+52]
	.loc 1 272 0
	mov	edx, DWORD PTR ___stack_chk_guard
	mov	DWORD PTR [esp+28], edx
	xor	edx, edx
LBB26:
	.loc 1 275 0
	test	edi, edi
	je	L88
LVL62:
LBE26:
	.loc 1 277 0
	mov	ebx, DWORD PTR [eax+4]
LVL63:
	test	ebx, ebx
	jne	L68
	jmp	L69
LVL64:
	.p2align 2,,3
L79:
LBB27:
	.loc 1 283 0
	mov	DWORD PTR [esp+4], edx
	mov	DWORD PTR [esp], edi
	call	_g_ascii_strcasecmp
LVL65:
	test	eax, eax
	je	L67
LBE27:
	.loc 1 277 0
	mov	ebx, DWORD PTR [ebx+4]
LVL66:
	test	ebx, ebx
	je	L69
LVL67:
L68:
LBB29:
	.loc 1 279 0
	mov	esi, DWORD PTR [ebx]
LVL68:
LBB28:
	.loc 1 281 0
	mov	edx, DWORD PTR [esi+8]
	test	edx, edx
	jne	L79
LVL69:
LBE28:
	mov	DWORD PTR [esp+8], OFFSET FLAT:LC0
	mov	DWORD PTR [esp+4], OFFSET FLAT:___PRETTY_FUNCTION__.45987
	mov	DWORD PTR [esp], 0
	call	_g_return_if_fail_warning
LVL70:
	xor	esi, esi
LVL71:
L67:
LBE29:
	.loc 1 289 0
	mov	eax, esi
	mov	edx, DWORD PTR [esp+28]
	xor	edx, DWORD PTR ___stack_chk_guard
	jne	L89
	add	esp, 32
LCFI43:
	.cfi_remember_state
	.cfi_def_cfa_offset 16
	pop	ebx
LCFI44:
	.cfi_restore 3
	.cfi_def_cfa_offset 12
	pop	esi
LCFI45:
	.cfi_restore 6
	.cfi_def_cfa_offset 8
	pop	edi
LCFI46:
	.cfi_restore 7
	.cfi_def_cfa_offset 4
	ret
LVL72:
	.p2align 2,,3
L69:
LCFI47:
	.cfi_restore_state
LBB30:
	.loc 1 288 0
	xor	esi, esi
	jmp	L67
LVL73:
L88:
LBE30:
LBB31:
LBB32:
	.loc 1 275 0
	mov	DWORD PTR [esp+8], OFFSET FLAT:LC1
	mov	DWORD PTR [esp+4], OFFSET FLAT:___PRETTY_FUNCTION__.45987
	mov	DWORD PTR [esp], 0
	call	_g_return_if_fail_warning
LVL74:
	xor	esi, esi
	jmp	L67
LVL75:
L89:
LBE32:
LBE31:
	.loc 1 289 0
	call	___stack_chk_fail
LVL76:
	.cfi_endproc
LFE102:
	.p2align 2,,3
	.globl	_msn_userlist_find_add_user
	.def	_msn_userlist_find_add_user;	.scl	2;	.type	32;	.endef
_msn_userlist_find_add_user:
LFB99:
	.loc 1 240 0
	.cfi_startproc
LVL77:
	push	ebp
LCFI48:
	.cfi_def_cfa_offset 8
	.cfi_offset 5, -8
	push	edi
LCFI49:
	.cfi_def_cfa_offset 12
	.cfi_offset 7, -12
	push	esi
LCFI50:
	.cfi_def_cfa_offset 16
	.cfi_offset 6, -16
	push	ebx
LCFI51:
	.cfi_def_cfa_offset 20
	.cfi_offset 3, -20
	sub	esp, 44
LCFI52:
	.cfi_def_cfa_offset 64
	mov	esi, DWORD PTR [esp+64]
	mov	edi, DWORD PTR [esp+68]
	mov	ebp, DWORD PTR [esp+72]
	.loc 1 240 0
	mov	eax, DWORD PTR ___stack_chk_guard
	mov	DWORD PTR [esp+28], eax
	xor	eax, eax
	.loc 1 243 0
	mov	DWORD PTR [esp+4], edi
	mov	DWORD PTR [esp], esi
	call	_msn_userlist_find_user
LVL78:
	mov	ebx, eax
LVL79:
	.loc 1 244 0
	test	eax, eax
	je	L95
	.loc 1 250 0
	mov	DWORD PTR [esp+4], ebp
	mov	DWORD PTR [esp], eax
	call	_msn_user_set_friendly_name
LVL80:
L92:
	.loc 1 253 0
	mov	eax, ebx
	mov	edx, DWORD PTR [esp+28]
	xor	edx, DWORD PTR ___stack_chk_guard
	jne	L96
	add	esp, 44
LCFI53:
	.cfi_remember_state
	.cfi_def_cfa_offset 20
	pop	ebx
LCFI54:
	.cfi_restore 3
	.cfi_def_cfa_offset 16
LVL81:
	pop	esi
LCFI55:
	.cfi_restore 6
	.cfi_def_cfa_offset 12
	pop	edi
LCFI56:
	.cfi_restore 7
	.cfi_def_cfa_offset 8
	pop	ebp
LCFI57:
	.cfi_restore 5
	.cfi_def_cfa_offset 4
	ret
	.p2align 2,,3
L95:
LCFI58:
	.cfi_restore_state
LVL82:
LBB35:
LBB36:
	.loc 1 246 0
	mov	DWORD PTR [esp+8], ebp
	mov	DWORD PTR [esp+4], edi
	mov	DWORD PTR [esp], esi
	call	_msn_user_new
LVL83:
	mov	ebx, eax
LVL84:
	.loc 1 247 0
	mov	DWORD PTR [esp+4], eax
	mov	DWORD PTR [esp], esi
	call	_msn_userlist_add_user
LVL85:
	.loc 1 248 0
	mov	DWORD PTR [esp], ebx
	call	_msn_user_unref
LVL86:
	jmp	L92
LVL87:
L96:
LBE36:
LBE35:
	.loc 1 253 0
	call	___stack_chk_fail
LVL88:
	.cfi_endproc
LFE99:
	.section .rdata,"dr"
LC2:
	.ascii "uid != NULL\0"
	.text
	.p2align 2,,3
	.globl	_msn_userlist_find_user_with_id
	.def	_msn_userlist_find_user_with_id;	.scl	2;	.type	32;	.endef
_msn_userlist_find_user_with_id:
LFB103:
	.loc 1 293 0
	.cfi_startproc
LVL89:
	push	edi
LCFI59:
	.cfi_def_cfa_offset 8
	.cfi_offset 7, -8
	push	esi
LCFI60:
	.cfi_def_cfa_offset 12
	.cfi_offset 6, -12
	push	ebx
LCFI61:
	.cfi_def_cfa_offset 16
	.cfi_offset 3, -16
	sub	esp, 32
LCFI62:
	.cfi_def_cfa_offset 48
	mov	eax, DWORD PTR [esp+48]
	mov	edi, DWORD PTR [esp+52]
	.loc 1 293 0
	mov	edx, DWORD PTR ___stack_chk_guard
	mov	DWORD PTR [esp+28], edx
	xor	edx, edx
LBB37:
	.loc 1 296 0
	test	edi, edi
	je	L115
LVL90:
LBE37:
	.loc 1 298 0
	mov	ebx, DWORD PTR [eax+4]
LVL91:
	test	ebx, ebx
	je	L102
	.p2align 2,,3
L109:
LBB38:
	.loc 1 299 0
	mov	esi, DWORD PTR [ebx]
LVL92:
	.loc 1 301 0
	mov	edx, DWORD PTR [esi+16]
	test	edx, edx
	je	L104
	.loc 1 305 0
	mov	DWORD PTR [esp+4], edx
	mov	DWORD PTR [esp], edi
	call	_g_ascii_strcasecmp
LVL93:
	test	eax, eax
	je	L103
L104:
LBE38:
	.loc 1 298 0
	mov	ebx, DWORD PTR [ebx+4]
LVL94:
	test	ebx, ebx
	jne	L109
LVL95:
L102:
	.loc 1 310 0
	xor	esi, esi
LVL96:
L103:
	.loc 1 311 0
	mov	eax, esi
	mov	edx, DWORD PTR [esp+28]
	xor	edx, DWORD PTR ___stack_chk_guard
	jne	L116
	add	esp, 32
LCFI63:
	.cfi_remember_state
	.cfi_def_cfa_offset 16
	pop	ebx
LCFI64:
	.cfi_restore 3
	.cfi_def_cfa_offset 12
	pop	esi
LCFI65:
	.cfi_restore 6
	.cfi_def_cfa_offset 8
	pop	edi
LCFI66:
	.cfi_restore 7
	.cfi_def_cfa_offset 4
	ret
	.p2align 2,,3
L115:
LCFI67:
	.cfi_restore_state
LVL97:
	.loc 1 296 0
	mov	DWORD PTR [esp+8], OFFSET FLAT:LC2
	mov	DWORD PTR [esp+4], OFFSET FLAT:___PRETTY_FUNCTION__.46001
	mov	DWORD PTR [esp], 0
	call	_g_return_if_fail_warning
LVL98:
	xor	esi, esi
	jmp	L103
LVL99:
L116:
	.loc 1 311 0
	call	___stack_chk_fail
LVL100:
	.cfi_endproc
LFE103:
	.section .rdata,"dr"
LC3:
	.ascii "number != NULL\0"
	.text
	.p2align 2,,3
	.globl	_msn_userlist_find_user_with_mobile_phone
	.def	_msn_userlist_find_user_with_mobile_phone;	.scl	2;	.type	32;	.endef
_msn_userlist_find_user_with_mobile_phone:
LFB104:
	.loc 1 315 0
	.cfi_startproc
LVL101:
	push	edi
LCFI68:
	.cfi_def_cfa_offset 8
	.cfi_offset 7, -8
	push	esi
LCFI69:
	.cfi_def_cfa_offset 12
	.cfi_offset 6, -12
	push	ebx
LCFI70:
	.cfi_def_cfa_offset 16
	.cfi_offset 3, -16
	sub	esp, 32
LCFI71:
	.cfi_def_cfa_offset 48
	mov	eax, DWORD PTR [esp+48]
	mov	edi, DWORD PTR [esp+52]
	.loc 1 315 0
	mov	edx, DWORD PTR ___stack_chk_guard
	mov	DWORD PTR [esp+28], edx
	xor	edx, edx
LBB39:
	.loc 1 318 0
	test	edi, edi
	je	L135
LVL102:
LBE39:
	.loc 1 320 0
	mov	ebx, DWORD PTR [eax+4]
LVL103:
	test	ebx, ebx
	je	L122
	.p2align 2,,3
L129:
LBB40:
	.loc 1 321 0
	mov	esi, DWORD PTR [ebx]
LVL104:
	.loc 1 322 0
	mov	DWORD PTR [esp], esi
	call	_msn_user_get_mobile_phone
LVL105:
	.loc 1 324 0
	test	eax, eax
	je	L124
	.loc 1 324 0 is_stmt 0 discriminator 1
	mov	DWORD PTR [esp+4], eax
	mov	DWORD PTR [esp], edi
	call	_g_ascii_strcasecmp
LVL106:
	test	eax, eax
	je	L123
L124:
LBE40:
	.loc 1 320 0 is_stmt 1
	mov	ebx, DWORD PTR [ebx+4]
LVL107:
	test	ebx, ebx
	jne	L129
LVL108:
L122:
	.loc 1 328 0
	xor	esi, esi
LVL109:
L123:
	.loc 1 329 0
	mov	eax, esi
	mov	edx, DWORD PTR [esp+28]
	xor	edx, DWORD PTR ___stack_chk_guard
	jne	L136
	add	esp, 32
LCFI72:
	.cfi_remember_state
	.cfi_def_cfa_offset 16
	pop	ebx
LCFI73:
	.cfi_restore 3
	.cfi_def_cfa_offset 12
	pop	esi
LCFI74:
	.cfi_restore 6
	.cfi_def_cfa_offset 8
	pop	edi
LCFI75:
	.cfi_restore 7
	.cfi_def_cfa_offset 4
	ret
	.p2align 2,,3
L135:
LCFI76:
	.cfi_restore_state
LVL110:
	.loc 1 318 0
	mov	DWORD PTR [esp+8], OFFSET FLAT:LC3
	mov	DWORD PTR [esp+4], OFFSET FLAT:___PRETTY_FUNCTION__.46014
	mov	DWORD PTR [esp], 0
	call	_g_return_if_fail_warning
LVL111:
	xor	esi, esi
	jmp	L123
LVL112:
L136:
	.loc 1 329 0
	call	___stack_chk_fail
LVL113:
	.cfi_endproc
LFE104:
	.p2align 2,,3
	.globl	_msn_userlist_add_group
	.def	_msn_userlist_add_group;	.scl	2;	.type	32;	.endef
_msn_userlist_add_group:
LFB105:
	.loc 1 333 0
	.cfi_startproc
LVL114:
	push	ebx
LCFI77:
	.cfi_def_cfa_offset 8
	.cfi_offset 3, -8
	sub	esp, 40
LCFI78:
	.cfi_def_cfa_offset 48
	mov	ebx, DWORD PTR [esp+48]
	.loc 1 333 0
	mov	eax, DWORD PTR ___stack_chk_guard
	mov	DWORD PTR [esp+28], eax
	xor	eax, eax
	.loc 1 334 0
	mov	eax, DWORD PTR [esp+52]
	mov	DWORD PTR [esp+4], eax
	mov	eax, DWORD PTR [ebx+8]
	mov	DWORD PTR [esp], eax
	call	_g_list_append
LVL115:
	mov	DWORD PTR [ebx+8], eax
	.loc 1 335 0
	mov	eax, DWORD PTR [esp+28]
	xor	eax, DWORD PTR ___stack_chk_guard
	jne	L140
	add	esp, 40
LCFI79:
	.cfi_remember_state
	.cfi_def_cfa_offset 8
	pop	ebx
LCFI80:
	.cfi_restore 3
	.cfi_def_cfa_offset 4
	ret
L140:
LCFI81:
	.cfi_restore_state
	call	___stack_chk_fail
LVL116:
	.cfi_endproc
LFE105:
	.p2align 2,,3
	.globl	_msn_userlist_remove_group
	.def	_msn_userlist_remove_group;	.scl	2;	.type	32;	.endef
_msn_userlist_remove_group:
LFB106:
	.loc 1 339 0
	.cfi_startproc
LVL117:
	push	ebx
LCFI82:
	.cfi_def_cfa_offset 8
	.cfi_offset 3, -8
	sub	esp, 40
LCFI83:
	.cfi_def_cfa_offset 48
	mov	ebx, DWORD PTR [esp+48]
	.loc 1 339 0
	mov	eax, DWORD PTR ___stack_chk_guard
	mov	DWORD PTR [esp+28], eax
	xor	eax, eax
	.loc 1 340 0
	mov	eax, DWORD PTR [esp+52]
	mov	DWORD PTR [esp+4], eax
	mov	eax, DWORD PTR [ebx+8]
	mov	DWORD PTR [esp], eax
	call	_g_list_remove
LVL118:
	mov	DWORD PTR [ebx+8], eax
	.loc 1 341 0
	mov	eax, DWORD PTR [esp+28]
	xor	eax, DWORD PTR ___stack_chk_guard
	jne	L144
	add	esp, 40
LCFI84:
	.cfi_remember_state
	.cfi_def_cfa_offset 8
	pop	ebx
LCFI85:
	.cfi_restore 3
	.cfi_def_cfa_offset 4
	ret
L144:
LCFI86:
	.cfi_restore_state
	call	___stack_chk_fail
LVL119:
	.cfi_endproc
LFE106:
	.section .rdata,"dr"
LC4:
	.ascii "userlist != NULL\0"
LC5:
	.ascii "id != NULL\0"
	.text
	.p2align 2,,3
	.globl	_msn_userlist_find_group_with_id
	.def	_msn_userlist_find_group_with_id;	.scl	2;	.type	32;	.endef
_msn_userlist_find_group_with_id:
LFB107:
	.loc 1 345 0
	.cfi_startproc
LVL120:
	push	edi
LCFI87:
	.cfi_def_cfa_offset 8
	.cfi_offset 7, -8
	push	esi
LCFI88:
	.cfi_def_cfa_offset 12
	.cfi_offset 6, -12
	push	ebx
LCFI89:
	.cfi_def_cfa_offset 16
	.cfi_offset 3, -16
	sub	esp, 32
LCFI90:
	.cfi_def_cfa_offset 48
	mov	eax, DWORD PTR [esp+48]
	mov	edi, DWORD PTR [esp+52]
	.loc 1 345 0
	mov	edx, DWORD PTR ___stack_chk_guard
	mov	DWORD PTR [esp+28], edx
	xor	edx, edx
LBB49:
	.loc 1 348 0
	test	eax, eax
	je	L162
LVL121:
LBE49:
LBB50:
	.loc 1 349 0
	test	edi, edi
	je	L163
LVL122:
LBE50:
	.loc 1 351 0
	mov	ebx, DWORD PTR [eax+8]
LVL123:
	test	ebx, ebx
	jne	L156
	jmp	L152
LVL124:
	.p2align 2,,3
L164:
	mov	ebx, DWORD PTR [ebx+4]
LVL125:
	test	ebx, ebx
	je	L152
LVL126:
L156:
LBB51:
	.loc 1 353 0
	mov	esi, DWORD PTR [ebx]
LVL127:
	.loc 1 355 0
	mov	DWORD PTR [esp+4], edi
	mov	eax, DWORD PTR [esi+4]
	mov	DWORD PTR [esp], eax
	call	_g_ascii_strcasecmp
LVL128:
	test	eax, eax
	jne	L164
LVL129:
L148:
LBE51:
	.loc 1 360 0
	mov	eax, esi
	mov	edx, DWORD PTR [esp+28]
	xor	edx, DWORD PTR ___stack_chk_guard
	jne	L165
	add	esp, 32
LCFI91:
	.cfi_remember_state
	.cfi_def_cfa_offset 16
	pop	ebx
LCFI92:
	.cfi_restore 3
	.cfi_def_cfa_offset 12
	pop	esi
LCFI93:
	.cfi_restore 6
	.cfi_def_cfa_offset 8
	pop	edi
LCFI94:
	.cfi_restore 7
	.cfi_def_cfa_offset 4
	ret
LVL130:
	.p2align 2,,3
L152:
LCFI95:
	.cfi_restore_state
LBB52:
LBB53:
	.loc 1 359 0
	xor	esi, esi
	jmp	L148
LVL131:
	.p2align 2,,3
L162:
LBE53:
LBE52:
	.loc 1 348 0
	mov	DWORD PTR [esp+8], OFFSET FLAT:LC4
	mov	DWORD PTR [esp+4], OFFSET FLAT:___PRETTY_FUNCTION__.46035
	mov	DWORD PTR [esp], 0
	call	_g_return_if_fail_warning
LVL132:
	xor	esi, esi
	jmp	L148
LVL133:
	.p2align 2,,3
L163:
LBB55:
LBB54:
	.loc 1 349 0
	mov	DWORD PTR [esp+8], OFFSET FLAT:LC5
	mov	DWORD PTR [esp+4], OFFSET FLAT:___PRETTY_FUNCTION__.46035
	mov	DWORD PTR [esp], 0
	call	_g_return_if_fail_warning
LVL134:
	xor	esi, esi
	jmp	L148
LVL135:
L165:
LBE54:
LBE55:
	.loc 1 360 0
	call	___stack_chk_fail
LVL136:
	.cfi_endproc
LFE107:
	.section .rdata,"dr"
LC6:
	.ascii "name != NULL\0"
	.text
	.p2align 2,,3
	.globl	_msn_userlist_find_group_with_name
	.def	_msn_userlist_find_group_with_name;	.scl	2;	.type	32;	.endef
_msn_userlist_find_group_with_name:
LFB108:
	.loc 1 364 0
	.cfi_startproc
LVL137:
	push	edi
LCFI96:
	.cfi_def_cfa_offset 8
	.cfi_offset 7, -8
	push	esi
LCFI97:
	.cfi_def_cfa_offset 12
	.cfi_offset 6, -12
	push	ebx
LCFI98:
	.cfi_def_cfa_offset 16
	.cfi_offset 3, -16
	sub	esp, 32
LCFI99:
	.cfi_def_cfa_offset 48
	mov	eax, DWORD PTR [esp+48]
	mov	edi, DWORD PTR [esp+52]
	.loc 1 364 0
	mov	edx, DWORD PTR ___stack_chk_guard
	mov	DWORD PTR [esp+28], edx
	xor	edx, edx
LBB56:
	.loc 1 367 0
	test	eax, eax
	je	L185
LVL138:
LBE56:
LBB57:
	.loc 1 368 0
	test	edi, edi
	je	L186
LVL139:
LBE57:
	.loc 1 370 0
	mov	ebx, DWORD PTR [eax+8]
LVL140:
	test	ebx, ebx
	je	L171
	.p2align 2,,3
L179:
LBB58:
	.loc 1 372 0
	mov	esi, DWORD PTR [ebx]
LVL141:
	.loc 1 374 0
	mov	edx, DWORD PTR [esi+8]
	test	edx, edx
	je	L173
	.loc 1 374 0 is_stmt 0 discriminator 1
	mov	DWORD PTR [esp+4], edx
	mov	DWORD PTR [esp], edi
	call	_g_ascii_strcasecmp
LVL142:
	test	eax, eax
	je	L172
L173:
LBE58:
	.loc 1 370 0 is_stmt 1
	mov	ebx, DWORD PTR [ebx+4]
LVL143:
	test	ebx, ebx
	jne	L179
LVL144:
L171:
	.loc 1 378 0
	xor	esi, esi
LVL145:
L172:
	.loc 1 379 0
	mov	eax, esi
	mov	edx, DWORD PTR [esp+28]
	xor	edx, DWORD PTR ___stack_chk_guard
	jne	L187
	add	esp, 32
LCFI100:
	.cfi_remember_state
	.cfi_def_cfa_offset 16
	pop	ebx
LCFI101:
	.cfi_restore 3
	.cfi_def_cfa_offset 12
	pop	esi
LCFI102:
	.cfi_restore 6
	.cfi_def_cfa_offset 8
	pop	edi
LCFI103:
	.cfi_restore 7
	.cfi_def_cfa_offset 4
	ret
	.p2align 2,,3
L185:
LCFI104:
	.cfi_restore_state
LVL146:
	.loc 1 367 0
	mov	DWORD PTR [esp+8], OFFSET FLAT:LC4
	mov	DWORD PTR [esp+4], OFFSET FLAT:___PRETTY_FUNCTION__.46049
	mov	DWORD PTR [esp], 0
	call	_g_return_if_fail_warning
LVL147:
	xor	esi, esi
	jmp	L172
LVL148:
	.p2align 2,,3
L186:
	.loc 1 368 0
	mov	DWORD PTR [esp+8], OFFSET FLAT:LC6
	mov	DWORD PTR [esp+4], OFFSET FLAT:___PRETTY_FUNCTION__.46049
	mov	DWORD PTR [esp], 0
	call	_g_return_if_fail_warning
LVL149:
	xor	esi, esi
	jmp	L172
LVL150:
L187:
	.loc 1 379 0
	call	___stack_chk_fail
LVL151:
	.cfi_endproc
LFE108:
	.p2align 2,,3
	.globl	_msn_userlist_find_group_id
	.def	_msn_userlist_find_group_id;	.scl	2;	.type	32;	.endef
_msn_userlist_find_group_id:
LFB109:
	.loc 1 383 0
	.cfi_startproc
LVL152:
	sub	esp, 44
LCFI105:
	.cfi_def_cfa_offset 48
	.loc 1 383 0
	mov	eax, DWORD PTR ___stack_chk_guard
	mov	DWORD PTR [esp+28], eax
	xor	eax, eax
	.loc 1 386 0
	mov	eax, DWORD PTR [esp+52]
	mov	DWORD PTR [esp+4], eax
	mov	eax, DWORD PTR [esp+48]
	mov	DWORD PTR [esp], eax
	call	_msn_userlist_find_group_with_name
LVL153:
	.loc 1 388 0
	test	eax, eax
	je	L189
	.loc 1 389 0
	mov	edx, DWORD PTR [esp+28]
	xor	edx, DWORD PTR ___stack_chk_guard
	jne	L193
	mov	DWORD PTR [esp+48], eax
	.loc 1 392 0
	add	esp, 44
LCFI106:
	.cfi_remember_state
	.cfi_def_cfa_offset 4
	.loc 1 389 0
	jmp	_msn_group_get_id
LVL154:
	.p2align 2,,3
L189:
LCFI107:
	.cfi_restore_state
	.loc 1 392 0
	xor	eax, eax
LVL155:
	mov	edx, DWORD PTR [esp+28]
	xor	edx, DWORD PTR ___stack_chk_guard
	jne	L193
	add	esp, 44
LCFI108:
	.cfi_remember_state
	.cfi_def_cfa_offset 4
	ret
L193:
LCFI109:
	.cfi_restore_state
	call	___stack_chk_fail
LVL156:
	.cfi_endproc
LFE109:
	.p2align 2,,3
	.globl	_msn_userlist_find_group_name
	.def	_msn_userlist_find_group_name;	.scl	2;	.type	32;	.endef
_msn_userlist_find_group_name:
LFB110:
	.loc 1 396 0
	.cfi_startproc
LVL157:
	sub	esp, 44
LCFI110:
	.cfi_def_cfa_offset 48
	.loc 1 396 0
	mov	eax, DWORD PTR ___stack_chk_guard
	mov	DWORD PTR [esp+28], eax
	xor	eax, eax
	.loc 1 399 0
	mov	eax, DWORD PTR [esp+52]
	mov	DWORD PTR [esp+4], eax
	mov	eax, DWORD PTR [esp+48]
	mov	DWORD PTR [esp], eax
	call	_msn_userlist_find_group_with_id
LVL158:
	.loc 1 401 0
	test	eax, eax
	je	L195
	.loc 1 402 0
	mov	edx, DWORD PTR [esp+28]
	xor	edx, DWORD PTR ___stack_chk_guard
	jne	L199
	mov	DWORD PTR [esp+48], eax
	.loc 1 405 0
	add	esp, 44
LCFI111:
	.cfi_remember_state
	.cfi_def_cfa_offset 4
	.loc 1 402 0
	jmp	_msn_group_get_name
LVL159:
	.p2align 2,,3
L195:
LCFI112:
	.cfi_restore_state
	.loc 1 405 0
	xor	eax, eax
LVL160:
	mov	edx, DWORD PTR [esp+28]
	xor	edx, DWORD PTR ___stack_chk_guard
	jne	L199
	add	esp, 44
LCFI113:
	.cfi_remember_state
	.cfi_def_cfa_offset 4
	ret
L199:
LCFI114:
	.cfi_restore_state
	call	___stack_chk_fail
LVL161:
	.cfi_endproc
LFE110:
	.p2align 2,,3
	.globl	_msn_userlist_rename_group_id
	.def	_msn_userlist_rename_group_id;	.scl	2;	.type	32;	.endef
_msn_userlist_rename_group_id:
LFB111:
	.loc 1 410 0
	.cfi_startproc
LVL162:
	push	ebx
LCFI115:
	.cfi_def_cfa_offset 8
	.cfi_offset 3, -8
	sub	esp, 40
LCFI116:
	.cfi_def_cfa_offset 48
	mov	ebx, DWORD PTR [esp+56]
	.loc 1 410 0
	mov	eax, DWORD PTR ___stack_chk_guard
	mov	DWORD PTR [esp+28], eax
	xor	eax, eax
	.loc 1 413 0
	mov	eax, DWORD PTR [esp+52]
	mov	DWORD PTR [esp+4], eax
	mov	eax, DWORD PTR [esp+48]
	mov	DWORD PTR [esp], eax
	call	_msn_userlist_find_group_with_id
LVL163:
	.loc 1 415 0
	test	eax, eax
	je	L200
	.loc 1 416 0
	mov	edx, DWORD PTR [esp+28]
	xor	edx, DWORD PTR ___stack_chk_guard
	jne	L205
	mov	DWORD PTR [esp+52], ebx
	mov	DWORD PTR [esp+48], eax
	.loc 1 417 0
	add	esp, 40
LCFI117:
	.cfi_remember_state
	.cfi_def_cfa_offset 8
	pop	ebx
LCFI118:
	.cfi_restore 3
	.cfi_def_cfa_offset 4
	.loc 1 416 0
	jmp	_msn_group_set_name
LVL164:
	.p2align 2,,3
L200:
LCFI119:
	.cfi_restore_state
	.loc 1 417 0
	mov	eax, DWORD PTR [esp+28]
	xor	eax, DWORD PTR ___stack_chk_guard
LVL165:
	jne	L205
	add	esp, 40
LCFI120:
	.cfi_remember_state
	.cfi_def_cfa_offset 8
	pop	ebx
LCFI121:
	.cfi_restore 3
	.cfi_def_cfa_offset 4
	ret
L205:
LCFI122:
	.cfi_restore_state
	call	___stack_chk_fail
LVL166:
	.cfi_endproc
LFE111:
	.p2align 2,,3
	.globl	_msn_userlist_remove_group_id
	.def	_msn_userlist_remove_group_id;	.scl	2;	.type	32;	.endef
_msn_userlist_remove_group_id:
LFB112:
	.loc 1 421 0
	.cfi_startproc
LVL167:
	push	esi
LCFI123:
	.cfi_def_cfa_offset 8
	.cfi_offset 6, -8
	push	ebx
LCFI124:
	.cfi_def_cfa_offset 12
	.cfi_offset 3, -12
	sub	esp, 36
LCFI125:
	.cfi_def_cfa_offset 48
	mov	esi, DWORD PTR [esp+48]
	.loc 1 421 0
	mov	eax, DWORD PTR ___stack_chk_guard
	mov	DWORD PTR [esp+28], eax
	xor	eax, eax
	.loc 1 424 0
	mov	eax, DWORD PTR [esp+52]
	mov	DWORD PTR [esp+4], eax
	mov	DWORD PTR [esp], esi
	call	_msn_userlist_find_group_with_id
LVL168:
	mov	ebx, eax
LVL169:
	.loc 1 426 0
	test	eax, eax
	je	L206
	.loc 1 428 0
	mov	DWORD PTR [esp+4], eax
	mov	DWORD PTR [esp], esi
	call	_msn_userlist_remove_group
LVL170:
	.loc 1 429 0
	mov	eax, DWORD PTR [esp+28]
	xor	eax, DWORD PTR ___stack_chk_guard
	jne	L211
	mov	DWORD PTR [esp+48], ebx
	.loc 1 431 0
	add	esp, 36
LCFI126:
	.cfi_remember_state
	.cfi_def_cfa_offset 12
	pop	ebx
LCFI127:
	.cfi_restore 3
	.cfi_def_cfa_offset 8
LVL171:
	pop	esi
LCFI128:
	.cfi_restore 6
	.cfi_def_cfa_offset 4
	.loc 1 429 0
	jmp	_msn_group_destroy
LVL172:
	.p2align 2,,3
L206:
LCFI129:
	.cfi_restore_state
	.loc 1 431 0
	mov	eax, DWORD PTR [esp+28]
	xor	eax, DWORD PTR ___stack_chk_guard
LVL173:
	jne	L211
	add	esp, 36
LCFI130:
	.cfi_remember_state
	.cfi_def_cfa_offset 12
	pop	ebx
LCFI131:
	.cfi_restore 3
	.cfi_def_cfa_offset 8
LVL174:
	pop	esi
LCFI132:
	.cfi_restore 6
	.cfi_def_cfa_offset 4
	ret
LVL175:
L211:
LCFI133:
	.cfi_restore_state
	call	___stack_chk_fail
LVL176:
	.cfi_endproc
LFE112:
	.section .rdata,"dr"
	.align 4
LC7:
	.ascii "User %s is not in list %s, not removing.\12\0"
LC8:
	.ascii "msn\0"
LC9:
	.ascii "user != NULL\0"
	.text
	.p2align 2,,3
	.globl	_msn_userlist_rem_buddy_from_list
	.def	_msn_userlist_rem_buddy_from_list;	.scl	2;	.type	32;	.endef
_msn_userlist_rem_buddy_from_list:
LFB115:
	.loc 1 482 0
	.cfi_startproc
LVL177:
	push	ebp
LCFI134:
	.cfi_def_cfa_offset 8
	.cfi_offset 5, -8
	push	edi
LCFI135:
	.cfi_def_cfa_offset 12
	.cfi_offset 7, -12
	push	esi
LCFI136:
	.cfi_def_cfa_offset 16
	.cfi_offset 6, -16
	push	ebx
LCFI137:
	.cfi_def_cfa_offset 20
	.cfi_offset 3, -20
	sub	esp, 44
LCFI138:
	.cfi_def_cfa_offset 64
	mov	edi, DWORD PTR [esp+64]
	mov	ebp, DWORD PTR [esp+68]
	mov	esi, DWORD PTR [esp+72]
	.loc 1 482 0
	mov	eax, DWORD PTR ___stack_chk_guard
	mov	DWORD PTR [esp+28], eax
	xor	eax, eax
LVL178:
	.loc 1 487 0
	mov	DWORD PTR [esp+4], ebp
	mov	DWORD PTR [esp], edi
	call	_msn_userlist_find_user
LVL179:
	mov	ebx, eax
LVL180:
LBB63:
	.loc 1 489 0
	test	eax, eax
	je	L226
LVL181:
LBE63:
	.loc 1 491 0
	mov	DWORD PTR [esp+4], esi
	mov	DWORD PTR [esp], eax
	call	_msn_user_is_in_list
LVL182:
	test	eax, eax
	je	L227
	.loc 1 485 0
	mov	eax, 1
	mov	ecx, esi
	sal	eax, cl
	.loc 1 497 0
	mov	DWORD PTR [esp+4], eax
	mov	DWORD PTR [esp], ebx
	call	_msn_user_unset_op
LVL183:
	.loc 1 499 0
	mov	eax, DWORD PTR [esp+28]
	xor	eax, DWORD PTR ___stack_chk_guard
	jne	L222
	mov	DWORD PTR [esp+72], ebx
	mov	DWORD PTR [esp+68], esi
	mov	eax, DWORD PTR [edi]
	mov	eax, DWORD PTR [eax+28]
	mov	DWORD PTR [esp+64], eax
	.loc 1 500 0
	add	esp, 44
LCFI139:
	.cfi_remember_state
	.cfi_def_cfa_offset 20
	pop	ebx
LCFI140:
	.cfi_restore 3
	.cfi_def_cfa_offset 16
LVL184:
	pop	esi
LCFI141:
	.cfi_restore 6
	.cfi_def_cfa_offset 12
LVL185:
	pop	edi
LCFI142:
	.cfi_restore 7
	.cfi_def_cfa_offset 8
	pop	ebp
LCFI143:
	.cfi_restore 5
	.cfi_def_cfa_offset 4
	.loc 1 499 0
	jmp	_msn_notification_rem_buddy_from_list
LVL186:
	.p2align 2,,3
L227:
LCFI144:
	.cfi_restore_state
	.loc 1 493 0
	mov	eax, DWORD PTR _lists[0+esi*4]
	mov	DWORD PTR [esp+12], eax
	mov	DWORD PTR [esp+8], ebp
	mov	DWORD PTR [esp+4], OFFSET FLAT:LC7
	mov	DWORD PTR [esp], OFFSET FLAT:LC8
	call	_purple_debug_info
LVL187:
	.loc 1 500 0
	mov	ecx, DWORD PTR [esp+28]
	xor	ecx, DWORD PTR ___stack_chk_guard
	jne	L222
	add	esp, 44
LCFI145:
	.cfi_remember_state
	.cfi_def_cfa_offset 20
	pop	ebx
LCFI146:
	.cfi_restore 3
	.cfi_def_cfa_offset 16
LVL188:
	pop	esi
LCFI147:
	.cfi_restore 6
	.cfi_def_cfa_offset 12
LVL189:
	pop	edi
LCFI148:
	.cfi_restore 7
	.cfi_def_cfa_offset 8
	pop	ebp
LCFI149:
	.cfi_restore 5
	.cfi_def_cfa_offset 4
	ret
LVL190:
	.p2align 2,,3
L226:
LCFI150:
	.cfi_restore_state
LBB64:
LBB65:
	.loc 1 489 0
	mov	ecx, DWORD PTR [esp+28]
	xor	ecx, DWORD PTR ___stack_chk_guard
	jne	L222
	mov	DWORD PTR [esp+72], OFFSET FLAT:LC9
	mov	DWORD PTR [esp+68], OFFSET FLAT:___PRETTY_FUNCTION__.46109
	mov	DWORD PTR [esp+64], 0
LBE65:
LBE64:
	.loc 1 500 0
	add	esp, 44
LCFI151:
	.cfi_remember_state
	.cfi_def_cfa_offset 20
	pop	ebx
LCFI152:
	.cfi_restore 3
	.cfi_def_cfa_offset 16
	pop	esi
LCFI153:
	.cfi_restore 6
	.cfi_def_cfa_offset 12
LVL191:
	pop	edi
LCFI154:
	.cfi_restore 7
	.cfi_def_cfa_offset 8
	pop	ebp
LCFI155:
	.cfi_restore 5
	.cfi_def_cfa_offset 4
LBB67:
LBB66:
	.loc 1 489 0
	jmp	_g_return_if_fail_warning
LVL192:
L222:
LCFI156:
	.cfi_restore_state
LBE66:
LBE67:
	.loc 1 500 0
	call	___stack_chk_fail
LVL193:
	.cfi_endproc
LFE115:
	.section .rdata,"dr"
LC10:
	.ascii "userlist->session != NULL\0"
LC11:
	.ascii "who != NULL\0"
	.text
	.p2align 2,,3
	.globl	_msn_userlist_rem_buddy
	.def	_msn_userlist_rem_buddy;	.scl	2;	.type	32;	.endef
_msn_userlist_rem_buddy:
LFB114:
	.loc 1 451 0
	.cfi_startproc
LVL194:
	push	edi
LCFI157:
	.cfi_def_cfa_offset 8
	.cfi_offset 7, -8
	push	esi
LCFI158:
	.cfi_def_cfa_offset 12
	.cfi_offset 6, -12
	push	ebx
LCFI159:
	.cfi_def_cfa_offset 16
	.cfi_offset 3, -16
	sub	esp, 32
LCFI160:
	.cfi_def_cfa_offset 48
	mov	ebx, DWORD PTR [esp+48]
	mov	esi, DWORD PTR [esp+52]
	.loc 1 451 0
	mov	eax, DWORD PTR ___stack_chk_guard
	mov	DWORD PTR [esp+28], eax
	xor	eax, eax
LVL195:
LBB68:
	.loc 1 454 0
	test	ebx, ebx
	je	L240
LVL196:
LBE68:
LBB69:
	.loc 1 455 0
	mov	eax, DWORD PTR [ebx]
	test	eax, eax
	je	L241
LVL197:
LBE69:
LBB70:
	.loc 1 456 0
	test	esi, esi
	je	L234
LVL198:
LBE70:
	.loc 1 458 0
	mov	DWORD PTR [esp+4], esi
	mov	DWORD PTR [esp], ebx
	call	_msn_userlist_find_user
LVL199:
	mov	edi, eax
LVL200:
	.loc 1 460 0
	mov	DWORD PTR [esp+8], 0
	mov	DWORD PTR [esp+4], esi
	mov	DWORD PTR [esp], ebx
	call	_msn_userlist_rem_buddy_from_list
LVL201:
	.loc 1 463 0
	test	edi, edi
	je	L232
	.loc 1 475 0
	mov	eax, DWORD PTR [esp+28]
	xor	eax, DWORD PTR ___stack_chk_guard
	jne	L238
	mov	DWORD PTR [esp+52], edi
	mov	eax, DWORD PTR [ebx]
	mov	DWORD PTR [esp+48], eax
	.loc 1 477 0
	add	esp, 32
LCFI161:
	.cfi_remember_state
	.cfi_def_cfa_offset 16
	pop	ebx
LCFI162:
	.cfi_restore 3
	.cfi_def_cfa_offset 12
	pop	esi
LCFI163:
	.cfi_restore 6
	.cfi_def_cfa_offset 8
	pop	edi
LCFI164:
	.cfi_restore 7
	.cfi_def_cfa_offset 4
LVL202:
	.loc 1 475 0
	jmp	_msn_delete_contact
LVL203:
	.p2align 2,,3
L241:
LCFI165:
	.cfi_restore_state
	.loc 1 455 0
	mov	DWORD PTR [esp+8], OFFSET FLAT:LC10
	mov	DWORD PTR [esp+4], OFFSET FLAT:___PRETTY_FUNCTION__.46093
	mov	DWORD PTR [esp], 0
	call	_g_return_if_fail_warning
LVL204:
L232:
	.loc 1 477 0
	mov	eax, DWORD PTR [esp+28]
	xor	eax, DWORD PTR ___stack_chk_guard
	jne	L238
	add	esp, 32
LCFI166:
	.cfi_remember_state
	.cfi_def_cfa_offset 16
	pop	ebx
LCFI167:
	.cfi_restore 3
	.cfi_def_cfa_offset 12
	pop	esi
LCFI168:
	.cfi_restore 6
	.cfi_def_cfa_offset 8
	pop	edi
LCFI169:
	.cfi_restore 7
	.cfi_def_cfa_offset 4
	ret
LVL205:
	.p2align 2,,3
L240:
LCFI170:
	.cfi_restore_state
	.loc 1 454 0
	mov	DWORD PTR [esp+8], OFFSET FLAT:LC4
	mov	DWORD PTR [esp+4], OFFSET FLAT:___PRETTY_FUNCTION__.46093
	mov	DWORD PTR [esp], 0
	call	_g_return_if_fail_warning
LVL206:
	jmp	L232
LVL207:
	.p2align 2,,3
L234:
	.loc 1 456 0
	mov	DWORD PTR [esp+8], OFFSET FLAT:LC11
	mov	DWORD PTR [esp+4], OFFSET FLAT:___PRETTY_FUNCTION__.46093
	mov	DWORD PTR [esp], 0
	call	_g_return_if_fail_warning
LVL208:
	jmp	L232
LVL209:
L238:
	.loc 1 477 0
	call	___stack_chk_fail
LVL210:
	.cfi_endproc
LFE114:
	.section .rdata,"dr"
LC12:
	.ascii "Other Contacts\0"
LC13:
	.ascii "pidgin\0"
LC14:
	.ascii "Unable to add \"%s\".\0"
	.align 4
LC15:
	.ascii "The username specified is invalid.\0"
	.align 4
LC16:
	.ascii "Adding user %s to a new group, creating group %s first\12\0"
LC17:
	.ascii "User %s already exists\12\0"
	.align 4
LC18:
	.ascii "User %s is already in group %s, returning\12\0"
	.align 4
LC19:
	.ascii "Adding user: %s to group id: %s\12\0"
LC20:
	.ascii "Add user: %s to group: %s\12\0"
	.text
	.p2align 2,,3
	.globl	_msn_userlist_add_buddy
	.def	_msn_userlist_add_buddy;	.scl	2;	.type	32;	.endef
_msn_userlist_add_buddy:
LFB116:
	.loc 1 505 0
	.cfi_startproc
LVL211:
	push	ebp
LCFI171:
	.cfi_def_cfa_offset 8
	.cfi_offset 5, -8
	push	edi
LCFI172:
	.cfi_def_cfa_offset 12
	.cfi_offset 7, -12
	push	esi
LCFI173:
	.cfi_def_cfa_offset 16
	.cfi_offset 6, -16
	push	ebx
LCFI174:
	.cfi_def_cfa_offset 20
	.cfi_offset 3, -20
	sub	esp, 76
LCFI175:
	.cfi_def_cfa_offset 96
	mov	esi, DWORD PTR [esp+96]
	mov	ebx, DWORD PTR [esp+100]
	.loc 1 505 0
	mov	eax, DWORD PTR ___stack_chk_guard
	mov	DWORD PTR [esp+60], eax
	xor	eax, eax
LVL212:
	.loc 1 510 0
	mov	edi, DWORD PTR [esp+104]
	test	edi, edi
	je	L269
L243:
LVL213:
LBB71:
	.loc 1 512 0 discriminator 3
	test	esi, esi
	je	L270
LVL214:
LBE71:
LBB72:
	.loc 1 513 0
	mov	edx, DWORD PTR [esi]
	test	edx, edx
	je	L271
LVL215:
LBE72:
	.loc 1 515 0
	mov	DWORD PTR [esp+12], edi
	mov	DWORD PTR [esp+8], ebx
	mov	DWORD PTR [esp+4], OFFSET FLAT:LC20
	mov	DWORD PTR [esp], OFFSET FLAT:LC8
	call	_purple_debug_info
LVL216:
	.loc 1 517 0
	mov	DWORD PTR [esp], ebx
	call	_msn_email_is_valid
LVL217:
	test	eax, eax
	je	L272
	.loc 1 532 0
	mov	eax, DWORD PTR [esi]
	mov	DWORD PTR [esp], eax
	call	_msn_callback_state_new
LVL218:
	mov	ebp, eax
LVL219:
	.loc 1 533 0
	mov	DWORD PTR [esp+4], ebx
	mov	DWORD PTR [esp], eax
	call	_msn_callback_state_set_who
LVL220:
	.loc 1 534 0
	mov	DWORD PTR [esp+4], edi
	mov	DWORD PTR [esp], ebp
	call	_msn_callback_state_set_new_group_name
LVL221:
	.loc 1 536 0
	mov	DWORD PTR [esp+4], edi
	mov	DWORD PTR [esp], esi
	call	_msn_userlist_find_group_id
LVL222:
	mov	DWORD PTR [esp+40], eax
LVL223:
	.loc 1 538 0
	test	eax, eax
	je	L273
	.loc 1 548 0
	mov	eax, DWORD PTR [esp+40]
	mov	DWORD PTR [esp+4], eax
	mov	DWORD PTR [esp], ebp
	call	_msn_callback_state_set_guid
LVL224:
	.loc 1 555 0
	mov	DWORD PTR [esp+8], ebx
	mov	DWORD PTR [esp+4], ebx
	mov	DWORD PTR [esp], esi
	call	_msn_userlist_find_add_user
LVL225:
	mov	DWORD PTR [esp+44], eax
LVL226:
	.loc 1 557 0
	mov	DWORD PTR [esp+4], 0
	mov	DWORD PTR [esp], eax
	call	_msn_user_is_in_list
LVL227:
	test	eax, eax
	jne	L274
L249:
	.loc 1 570 0
	mov	eax, DWORD PTR [esp+40]
	mov	DWORD PTR [esp+12], eax
	mov	DWORD PTR [esp+8], ebx
	mov	DWORD PTR [esp+4], OFFSET FLAT:LC19
	mov	DWORD PTR [esp], OFFSET FLAT:LC8
	call	_purple_debug_info
LVL228:
	.loc 1 572 0
	mov	DWORD PTR [esp+4], 1
	mov	DWORD PTR [esp], ebp
	call	_msn_callback_state_set_action
LVL229:
	.loc 1 576 0
	mov	eax, DWORD PTR [esp+40]
	mov	DWORD PTR [esp+12], eax
	mov	DWORD PTR [esp+8], ebx
	mov	DWORD PTR [esp+4], ebp
	mov	eax, DWORD PTR [esi]
	mov	DWORD PTR [esp], eax
	call	_msn_add_contact_to_group
LVL230:
	.loc 1 577 0
	mov	eax, DWORD PTR [esp+60]
	xor	eax, DWORD PTR ___stack_chk_guard
	jne	L265
	add	esp, 76
LCFI176:
	.cfi_remember_state
	.cfi_def_cfa_offset 20
	pop	ebx
LCFI177:
	.cfi_restore 3
	.cfi_def_cfa_offset 16
	pop	esi
LCFI178:
	.cfi_restore 6
	.cfi_def_cfa_offset 12
	pop	edi
LCFI179:
	.cfi_restore 7
	.cfi_def_cfa_offset 8
LVL231:
	pop	ebp
LCFI180:
	.cfi_restore 5
	.cfi_def_cfa_offset 4
LVL232:
	ret
LVL233:
	.p2align 2,,3
L274:
LCFI181:
	.cfi_restore_state
	.loc 1 559 0
	mov	DWORD PTR [esp+8], ebx
	mov	DWORD PTR [esp+4], OFFSET FLAT:LC17
	mov	DWORD PTR [esp], OFFSET FLAT:LC8
	call	_purple_debug_info
LVL234:
	.loc 1 561 0
	mov	DWORD PTR [esp+8], 2
	mov	DWORD PTR [esp+4], ebx
	mov	DWORD PTR [esp], esi
	call	_msn_userlist_rem_buddy_from_list
LVL235:
	.loc 1 563 0
	mov	eax, DWORD PTR [esp+40]
	mov	DWORD PTR [esp+4], eax
	mov	eax, DWORD PTR [esp+44]
	mov	DWORD PTR [esp], eax
	call	_msn_user_is_in_group
LVL236:
	test	eax, eax
	je	L249
	.loc 1 564 0
	mov	DWORD PTR [esp+12], edi
	mov	DWORD PTR [esp+8], ebx
	mov	DWORD PTR [esp+4], OFFSET FLAT:LC18
	mov	DWORD PTR [esp], OFFSET FLAT:LC8
	call	_purple_debug_info
LVL237:
	.loc 1 565 0
	mov	eax, DWORD PTR [esp+60]
	xor	eax, DWORD PTR ___stack_chk_guard
	jne	L265
	mov	DWORD PTR [esp+96], ebp
	.loc 1 577 0
	add	esp, 76
LCFI182:
	.cfi_remember_state
	.cfi_def_cfa_offset 20
	pop	ebx
LCFI183:
	.cfi_restore 3
	.cfi_def_cfa_offset 16
	pop	esi
LCFI184:
	.cfi_restore 6
	.cfi_def_cfa_offset 12
	pop	edi
LCFI185:
	.cfi_restore 7
	.cfi_def_cfa_offset 8
LVL238:
	pop	ebp
LCFI186:
	.cfi_restore 5
	.cfi_def_cfa_offset 4
LVL239:
	.loc 1 565 0
	jmp	_msn_callback_state_free
LVL240:
	.p2align 2,,3
L272:
LCFI187:
	.cfi_restore_state
LBB73:
	.loc 1 523 0
	mov	DWORD PTR [esp+4], OFFSET FLAT:LC14
	mov	DWORD PTR [esp], OFFSET FLAT:LC13
	call	_libintl_dgettext
LVL241:
	mov	DWORD PTR [esp+4], ebx
	mov	DWORD PTR [esp], eax
	call	_g_strdup_printf
LVL242:
	mov	ebx, eax
LVL243:
	.loc 1 525 0
	mov	DWORD PTR [esp+4], OFFSET FLAT:LC15
	mov	DWORD PTR [esp], OFFSET FLAT:LC13
	call	_libintl_dgettext
LVL244:
	mov	DWORD PTR [esp+24], 0
	mov	DWORD PTR [esp+20], 0
	mov	DWORD PTR [esp+16], eax
	mov	DWORD PTR [esp+12], ebx
	mov	DWORD PTR [esp+8], 0
	mov	DWORD PTR [esp+4], 0
	mov	DWORD PTR [esp], 0
	call	_purple_notify_message
LVL245:
	.loc 1 527 0
	mov	eax, DWORD PTR [esp+60]
	xor	eax, DWORD PTR ___stack_chk_guard
	jne	L265
	mov	DWORD PTR [esp+96], ebx
LBE73:
	.loc 1 577 0
	add	esp, 76
LCFI188:
	.cfi_remember_state
	.cfi_def_cfa_offset 20
	pop	ebx
LCFI189:
	.cfi_restore 3
	.cfi_def_cfa_offset 16
LVL246:
	pop	esi
LCFI190:
	.cfi_restore 6
	.cfi_def_cfa_offset 12
	pop	edi
LCFI191:
	.cfi_restore 7
	.cfi_def_cfa_offset 8
LVL247:
	pop	ebp
LCFI192:
	.cfi_restore 5
	.cfi_def_cfa_offset 4
LBB74:
	.loc 1 527 0
	jmp	_g_free
LVL248:
	.p2align 2,,3
L270:
LCFI193:
	.cfi_restore_state
LBE74:
	.loc 1 512 0
	mov	eax, DWORD PTR [esp+60]
	xor	eax, DWORD PTR ___stack_chk_guard
	jne	L265
	mov	DWORD PTR [esp+104], OFFSET FLAT:LC4
LVL249:
L268:
	.loc 1 513 0
	mov	DWORD PTR [esp+100], OFFSET FLAT:___PRETTY_FUNCTION__.46121
	mov	DWORD PTR [esp+96], 0
	.loc 1 577 0
	add	esp, 76
LCFI194:
	.cfi_remember_state
	.cfi_def_cfa_offset 20
	pop	ebx
LCFI195:
	.cfi_restore 3
	.cfi_def_cfa_offset 16
	pop	esi
LCFI196:
	.cfi_restore 6
	.cfi_def_cfa_offset 12
	pop	edi
LCFI197:
	.cfi_restore 7
	.cfi_def_cfa_offset 8
LVL250:
	pop	ebp
LCFI198:
	.cfi_restore 5
	.cfi_def_cfa_offset 4
	.loc 1 513 0
	jmp	_g_return_if_fail_warning
LVL251:
	.p2align 2,,3
L271:
LCFI199:
	.cfi_restore_state
	mov	eax, DWORD PTR [esp+60]
	xor	eax, DWORD PTR ___stack_chk_guard
	jne	L265
	mov	DWORD PTR [esp+104], OFFSET FLAT:LC10
	jmp	L268
LVL252:
	.p2align 2,,3
L269:
	.loc 1 510 0 discriminator 1
	mov	DWORD PTR [esp+4], OFFSET FLAT:LC12
	mov	DWORD PTR [esp], OFFSET FLAT:LC13
	call	_libintl_dgettext
LVL253:
	mov	edi, eax
	jmp	L243
LVL254:
	.p2align 2,,3
L273:
	.loc 1 541 0
	mov	DWORD PTR [esp+12], edi
	mov	DWORD PTR [esp+8], ebx
	mov	DWORD PTR [esp+4], OFFSET FLAT:LC16
	mov	DWORD PTR [esp], OFFSET FLAT:LC8
	call	_purple_debug_info
LVL255:
	.loc 1 543 0
	mov	DWORD PTR [esp+4], 1
	mov	DWORD PTR [esp], ebp
	call	_msn_callback_state_set_action
LVL256:
	.loc 1 545 0
	mov	eax, DWORD PTR [esp+60]
	xor	eax, DWORD PTR ___stack_chk_guard
	jne	L265
	mov	DWORD PTR [esp+104], edi
	mov	DWORD PTR [esp+100], ebp
	mov	eax, DWORD PTR [esi]
	mov	DWORD PTR [esp+96], eax
	.loc 1 577 0
	add	esp, 76
LCFI200:
	.cfi_remember_state
	.cfi_def_cfa_offset 20
	pop	ebx
LCFI201:
	.cfi_restore 3
	.cfi_def_cfa_offset 16
	pop	esi
LCFI202:
	.cfi_restore 6
	.cfi_def_cfa_offset 12
	pop	edi
LCFI203:
	.cfi_restore 7
	.cfi_def_cfa_offset 8
LVL257:
	pop	ebp
LCFI204:
	.cfi_restore 5
	.cfi_def_cfa_offset 4
LVL258:
	.loc 1 545 0
	jmp	_msn_add_group
LVL259:
L265:
LCFI205:
	.cfi_restore_state
	.loc 1 577 0
	call	___stack_chk_fail
LVL260:
	.cfi_endproc
LFE116:
	.section .rdata,"dr"
	.align 4
LC21:
	.ascii "User '%s' is already in list: %s\12\0"
	.text
	.p2align 2,,3
	.globl	_msn_userlist_add_buddy_to_list
	.def	_msn_userlist_add_buddy_to_list;	.scl	2;	.type	32;	.endef
_msn_userlist_add_buddy_to_list:
LFB117:
	.loc 1 582 0
	.cfi_startproc
LVL261:
	push	ebp
LCFI206:
	.cfi_def_cfa_offset 8
	.cfi_offset 5, -8
	push	edi
LCFI207:
	.cfi_def_cfa_offset 12
	.cfi_offset 7, -12
	push	esi
LCFI208:
	.cfi_def_cfa_offset 16
	.cfi_offset 6, -16
	push	ebx
LCFI209:
	.cfi_def_cfa_offset 20
	.cfi_offset 3, -20
	sub	esp, 44
LCFI210:
	.cfi_def_cfa_offset 64
	mov	ebx, DWORD PTR [esp+64]
	mov	edi, DWORD PTR [esp+68]
	mov	esi, DWORD PTR [esp+72]
	.loc 1 582 0
	mov	eax, DWORD PTR ___stack_chk_guard
	mov	DWORD PTR [esp+28], eax
	xor	eax, eax
LVL262:
LBB79:
	.loc 1 587 0
	test	ebx, ebx
	je	L289
LVL263:
LBE79:
	.loc 1 589 0
	mov	DWORD PTR [esp+8], edi
	mov	DWORD PTR [esp+4], edi
	mov	DWORD PTR [esp], ebx
	call	_msn_userlist_find_add_user
LVL264:
	mov	ebp, eax
LVL265:
	.loc 1 592 0
	mov	DWORD PTR [esp+4], esi
	mov	DWORD PTR [esp], eax
	call	_msn_user_is_in_list
LVL266:
	test	eax, eax
	jne	L290
	.loc 1 585 0
	mov	eax, 1
	mov	ecx, esi
	sal	eax, cl
	.loc 1 602 0
	mov	DWORD PTR [esp+4], eax
	mov	DWORD PTR [esp], ebp
	call	_msn_user_set_op
LVL267:
	.loc 1 604 0
	mov	eax, DWORD PTR [esp+28]
	xor	eax, DWORD PTR ___stack_chk_guard
	jne	L285
	mov	DWORD PTR [esp+72], ebp
	mov	DWORD PTR [esp+68], esi
	mov	eax, DWORD PTR [ebx]
	mov	eax, DWORD PTR [eax+28]
	mov	DWORD PTR [esp+64], eax
	.loc 1 605 0
	add	esp, 44
LCFI211:
	.cfi_remember_state
	.cfi_def_cfa_offset 20
	pop	ebx
LCFI212:
	.cfi_restore 3
	.cfi_def_cfa_offset 16
	pop	esi
LCFI213:
	.cfi_restore 6
	.cfi_def_cfa_offset 12
LVL268:
	pop	edi
LCFI214:
	.cfi_restore 7
	.cfi_def_cfa_offset 8
	pop	ebp
LCFI215:
	.cfi_restore 5
	.cfi_def_cfa_offset 4
LVL269:
	.loc 1 604 0
	jmp	_msn_notification_add_buddy_to_list
LVL270:
	.p2align 2,,3
L290:
LCFI216:
	.cfi_restore_state
	.loc 1 595 0
	mov	eax, DWORD PTR _lists[0+esi*4]
	mov	DWORD PTR [esp+12], eax
	mov	DWORD PTR [esp+8], edi
	mov	DWORD PTR [esp+4], OFFSET FLAT:LC21
	mov	DWORD PTR [esp], OFFSET FLAT:LC8
	call	_purple_debug_info
LVL271:
	.loc 1 605 0
	mov	ecx, DWORD PTR [esp+28]
	xor	ecx, DWORD PTR ___stack_chk_guard
	jne	L285
	add	esp, 44
LCFI217:
	.cfi_remember_state
	.cfi_def_cfa_offset 20
	pop	ebx
LCFI218:
	.cfi_restore 3
	.cfi_def_cfa_offset 16
	pop	esi
LCFI219:
	.cfi_restore 6
	.cfi_def_cfa_offset 12
LVL272:
	pop	edi
LCFI220:
	.cfi_restore 7
	.cfi_def_cfa_offset 8
	pop	ebp
LCFI221:
	.cfi_restore 5
	.cfi_def_cfa_offset 4
LVL273:
	ret
LVL274:
	.p2align 2,,3
L289:
LCFI222:
	.cfi_restore_state
LBB80:
LBB81:
	.loc 1 587 0
	mov	ecx, DWORD PTR [esp+28]
	xor	ecx, DWORD PTR ___stack_chk_guard
	jne	L285
	mov	DWORD PTR [esp+72], OFFSET FLAT:LC4
	mov	DWORD PTR [esp+68], OFFSET FLAT:___PRETTY_FUNCTION__.46135
	mov	DWORD PTR [esp+64], 0
LBE81:
LBE80:
	.loc 1 605 0
	add	esp, 44
LCFI223:
	.cfi_remember_state
	.cfi_def_cfa_offset 20
	pop	ebx
LCFI224:
	.cfi_restore 3
	.cfi_def_cfa_offset 16
	pop	esi
LCFI225:
	.cfi_restore 6
	.cfi_def_cfa_offset 12
LVL275:
	pop	edi
LCFI226:
	.cfi_restore 7
	.cfi_def_cfa_offset 8
	pop	ebp
LCFI227:
	.cfi_restore 5
	.cfi_def_cfa_offset 4
LBB83:
LBB82:
	.loc 1 587 0
	jmp	_g_return_if_fail_warning
LVL276:
L285:
LCFI228:
	.cfi_restore_state
LBE82:
LBE83:
	.loc 1 605 0
	call	___stack_chk_fail
LVL277:
	.cfi_endproc
LFE117:
	.section .rdata,"dr"
LC22:
	.ascii "Denied the new buddy: %s\12\0"
	.text
	.p2align 2,,3
	.def	_msn_cancel_add_cb;	.scl	3;	.type	32;	.endef
_msn_cancel_add_cb:
LFB94:
	.loc 1 75 0
	.cfi_startproc
LVL278:
	push	ebp
LCFI229:
	.cfi_def_cfa_offset 8
	.cfi_offset 5, -8
	push	edi
LCFI230:
	.cfi_def_cfa_offset 12
	.cfi_offset 7, -12
	push	esi
LCFI231:
	.cfi_def_cfa_offset 16
	.cfi_offset 6, -16
	push	ebx
LCFI232:
	.cfi_def_cfa_offset 20
	.cfi_offset 3, -20
	sub	esp, 44
LCFI233:
	.cfi_def_cfa_offset 64
	mov	ebx, DWORD PTR [esp+64]
	.loc 1 75 0
	mov	eax, DWORD PTR ___stack_chk_guard
	mov	DWORD PTR [esp+28], eax
	xor	eax, eax
LVL279:
	.loc 1 78 0
	mov	eax, DWORD PTR [ebx+4]
	mov	DWORD PTR [esp+8], eax
	mov	DWORD PTR [esp+4], OFFSET FLAT:LC22
	mov	DWORD PTR [esp], OFFSET FLAT:LC8
	call	_purple_debug_misc
LVL280:
	.loc 1 80 0
	mov	esi, DWORD PTR [ebx]
	call	_purple_connections_get_all
LVL281:
	mov	DWORD PTR [esp+4], esi
	mov	DWORD PTR [esp], eax
	call	_g_list_find
LVL282:
	test	eax, eax
	je	L292
LBB84:
	.loc 1 82 0
	mov	eax, DWORD PTR [ebx]
	mov	esi, DWORD PTR [eax+28]
LVL283:
	.loc 1 83 0
	mov	ebp, DWORD PTR [esi+40]
LVL284:
	.loc 1 84 0
	mov	DWORD PTR [esp], esi
	call	_msn_callback_state_new
LVL285:
	mov	edi, eax
LVL286:
	.loc 1 86 0
	mov	DWORD PTR [esp+4], 8
	mov	DWORD PTR [esp], eax
	call	_msn_callback_state_set_action
LVL287:
	.loc 1 88 0
	mov	DWORD PTR [esp+8], 2
	mov	eax, DWORD PTR [ebx+4]
	mov	DWORD PTR [esp+4], eax
	mov	DWORD PTR [esp], ebp
	call	_msn_userlist_add_buddy_to_list
LVL288:
	.loc 1 89 0
	mov	DWORD PTR [esp+12], 4
	mov	eax, DWORD PTR [ebx+4]
	mov	DWORD PTR [esp+8], eax
	mov	DWORD PTR [esp+4], edi
	mov	DWORD PTR [esp], esi
	call	_msn_del_contact_from_list
LVL289:
L292:
LBE84:
	.loc 1 92 0
	mov	eax, DWORD PTR [ebx+4]
	mov	DWORD PTR [esp], eax
	call	_g_free
LVL290:
	.loc 1 93 0
	mov	eax, DWORD PTR [ebx+8]
	mov	DWORD PTR [esp], eax
	call	_g_free
LVL291:
	.loc 1 94 0
	mov	eax, DWORD PTR [esp+28]
	xor	eax, DWORD PTR ___stack_chk_guard
	jne	L299
	mov	DWORD PTR [esp+64], ebx
	.loc 1 95 0
	add	esp, 44
LCFI234:
	.cfi_remember_state
	.cfi_def_cfa_offset 20
	pop	ebx
LCFI235:
	.cfi_restore 3
	.cfi_def_cfa_offset 16
LVL292:
	pop	esi
LCFI236:
	.cfi_restore 6
	.cfi_def_cfa_offset 12
	pop	edi
LCFI237:
	.cfi_restore 7
	.cfi_def_cfa_offset 8
	pop	ebp
LCFI238:
	.cfi_restore 5
	.cfi_def_cfa_offset 4
	.loc 1 94 0
	jmp	_g_free
LVL293:
L299:
LCFI239:
	.cfi_restore_state
	call	___stack_chk_fail
LVL294:
	.cfi_endproc
LFE94:
	.section .rdata,"dr"
LC23:
	.ascii "Accepted the new buddy: %s\12\0"
	.text
	.p2align 2,,3
	.def	_msn_accept_add_cb;	.scl	3;	.type	32;	.endef
_msn_accept_add_cb:
LFB93:
	.loc 1 50 0
	.cfi_startproc
LVL295:
	push	ebp
LCFI240:
	.cfi_def_cfa_offset 8
	.cfi_offset 5, -8
	push	edi
LCFI241:
	.cfi_def_cfa_offset 12
	.cfi_offset 7, -12
	push	esi
LCFI242:
	.cfi_def_cfa_offset 16
	.cfi_offset 6, -16
	push	ebx
LCFI243:
	.cfi_def_cfa_offset 20
	.cfi_offset 3, -20
	sub	esp, 44
LCFI244:
	.cfi_def_cfa_offset 64
	mov	ebx, DWORD PTR [esp+64]
	.loc 1 50 0
	mov	eax, DWORD PTR ___stack_chk_guard
	mov	DWORD PTR [esp+28], eax
	xor	eax, eax
LVL296:
	.loc 1 53 0
	mov	eax, DWORD PTR [ebx+4]
	mov	DWORD PTR [esp+8], eax
	mov	DWORD PTR [esp+4], OFFSET FLAT:LC23
	mov	DWORD PTR [esp], OFFSET FLAT:LC8
	call	_purple_debug_misc
LVL297:
	.loc 1 55 0
	mov	esi, DWORD PTR [ebx]
	call	_purple_connections_get_all
LVL298:
	mov	DWORD PTR [esp+4], esi
	mov	DWORD PTR [esp], eax
	call	_g_list_find
LVL299:
	test	eax, eax
	je	L301
LBB85:
	.loc 1 57 0
	mov	eax, DWORD PTR [ebx]
	mov	edi, DWORD PTR [eax+28]
LVL300:
	.loc 1 58 0
	mov	ebp, DWORD PTR [edi+40]
LVL301:
	.loc 1 59 0
	mov	DWORD PTR [esp], eax
	call	_purple_connection_get_account
LVL302:
	mov	esi, eax
LVL303:
	.loc 1 61 0
	mov	DWORD PTR [esp+8], 1
	mov	eax, DWORD PTR [ebx+4]
LVL304:
	mov	DWORD PTR [esp+4], eax
	mov	DWORD PTR [esp], ebp
	call	_msn_userlist_add_buddy_to_list
LVL305:
	.loc 1 62 0
	mov	DWORD PTR [esp+8], 1
	mov	eax, DWORD PTR [ebx+4]
	mov	DWORD PTR [esp+4], eax
	mov	DWORD PTR [esp], esi
	call	_purple_privacy_deny_remove
LVL306:
	.loc 1 63 0
	mov	DWORD PTR [esp+8], 1
	mov	eax, DWORD PTR [ebx+4]
	mov	DWORD PTR [esp+4], eax
	mov	DWORD PTR [esp], esi
	call	_purple_privacy_permit_add
LVL307:
	.loc 1 65 0
	mov	DWORD PTR [esp+12], 4
	mov	eax, DWORD PTR [ebx+4]
	mov	DWORD PTR [esp+8], eax
	mov	DWORD PTR [esp+4], 0
	mov	DWORD PTR [esp], edi
	call	_msn_del_contact_from_list
LVL308:
L301:
LBE85:
	.loc 1 68 0
	mov	eax, DWORD PTR [ebx+4]
	mov	DWORD PTR [esp], eax
	call	_g_free
LVL309:
	.loc 1 69 0
	mov	eax, DWORD PTR [ebx+8]
	mov	DWORD PTR [esp], eax
	call	_g_free
LVL310:
	.loc 1 70 0
	mov	eax, DWORD PTR [esp+28]
	xor	eax, DWORD PTR ___stack_chk_guard
	jne	L308
	mov	DWORD PTR [esp+64], ebx
	.loc 1 71 0
	add	esp, 44
LCFI245:
	.cfi_remember_state
	.cfi_def_cfa_offset 20
	pop	ebx
LCFI246:
	.cfi_restore 3
	.cfi_def_cfa_offset 16
LVL311:
	pop	esi
LCFI247:
	.cfi_restore 6
	.cfi_def_cfa_offset 12
	pop	edi
LCFI248:
	.cfi_restore 7
	.cfi_def_cfa_offset 8
	pop	ebp
LCFI249:
	.cfi_restore 5
	.cfi_def_cfa_offset 4
	.loc 1 70 0
	jmp	_g_free
LVL312:
L308:
LCFI250:
	.cfi_restore_state
	call	___stack_chk_fail
LVL313:
	.cfi_endproc
LFE93:
	.section .rdata,"dr"
LC24:
	.ascii "Group %s has no guid!\12\0"
LC25:
	.ascii "User %s not found!\12\0"
LC26:
	.ascii "group_name != NULL\0"
	.align 4
LC27:
	.ascii "Adding buddy with passport %s to group %s\12\0"
	.text
	.p2align 2,,3
	.globl	_msn_userlist_add_buddy_to_group
	.def	_msn_userlist_add_buddy_to_group;	.scl	2;	.type	32;	.endef
_msn_userlist_add_buddy_to_group:
LFB118:
	.loc 1 610 0
	.cfi_startproc
LVL314:
	push	ebp
LCFI251:
	.cfi_def_cfa_offset 8
	.cfi_offset 5, -8
	push	edi
LCFI252:
	.cfi_def_cfa_offset 12
	.cfi_offset 7, -12
	push	esi
LCFI253:
	.cfi_def_cfa_offset 16
	.cfi_offset 6, -16
	push	ebx
LCFI254:
	.cfi_def_cfa_offset 20
	.cfi_offset 3, -20
	sub	esp, 44
LCFI255:
	.cfi_def_cfa_offset 64
	mov	ebx, DWORD PTR [esp+64]
	mov	esi, DWORD PTR [esp+68]
	mov	edi, DWORD PTR [esp+72]
	.loc 1 610 0
	mov	eax, DWORD PTR ___stack_chk_guard
	mov	DWORD PTR [esp+28], eax
	xor	eax, eax
LBB86:
	.loc 1 614 0
	test	ebx, ebx
	je	L323
LVL315:
LBE86:
LBB87:
	.loc 1 615 0
	test	edi, edi
	je	L324
LVL316:
LBE87:
LBB88:
	.loc 1 616 0
	test	esi, esi
	je	L315
LVL317:
LBE88:
	.loc 1 618 0
	mov	DWORD PTR [esp+12], edi
	mov	DWORD PTR [esp+8], esi
	mov	DWORD PTR [esp+4], OFFSET FLAT:LC27
	mov	DWORD PTR [esp], OFFSET FLAT:LC8
	call	_purple_debug_info
LVL318:
	.loc 1 620 0
	mov	DWORD PTR [esp+4], edi
	mov	DWORD PTR [esp], ebx
	call	_msn_userlist_find_group_id
LVL319:
	mov	ebp, eax
LVL320:
	test	eax, eax
	je	L325
	.loc 1 625 0
	mov	DWORD PTR [esp+4], esi
	mov	DWORD PTR [esp], ebx
	call	_msn_userlist_find_user
LVL321:
	test	eax, eax
	je	L326
	.loc 1 630 0
	mov	DWORD PTR [esp+4], ebp
	mov	DWORD PTR [esp], eax
	call	_msn_user_add_group_id
LVL322:
	.loc 1 632 0
	mov	eax, 1
LVL323:
L312:
	.loc 1 633 0
	mov	edx, DWORD PTR [esp+28]
	xor	edx, DWORD PTR ___stack_chk_guard
	jne	L327
	add	esp, 44
LCFI256:
	.cfi_remember_state
	.cfi_def_cfa_offset 20
	pop	ebx
LCFI257:
	.cfi_restore 3
	.cfi_def_cfa_offset 16
	pop	esi
LCFI258:
	.cfi_restore 6
	.cfi_def_cfa_offset 12
	pop	edi
LCFI259:
	.cfi_restore 7
	.cfi_def_cfa_offset 8
	pop	ebp
LCFI260:
	.cfi_restore 5
	.cfi_def_cfa_offset 4
	ret
	.p2align 2,,3
L323:
LCFI261:
	.cfi_restore_state
LVL324:
	.loc 1 614 0
	mov	DWORD PTR [esp+8], OFFSET FLAT:LC4
	mov	DWORD PTR [esp+4], OFFSET FLAT:___PRETTY_FUNCTION__.46145
	mov	DWORD PTR [esp], 0
	call	_g_return_if_fail_warning
LVL325:
	xor	eax, eax
	jmp	L312
LVL326:
	.p2align 2,,3
L324:
	.loc 1 615 0
	mov	DWORD PTR [esp+8], OFFSET FLAT:LC26
	mov	DWORD PTR [esp+4], OFFSET FLAT:___PRETTY_FUNCTION__.46145
	mov	DWORD PTR [esp], 0
	call	_g_return_if_fail_warning
LVL327:
	xor	eax, eax
	jmp	L312
LVL328:
	.p2align 2,,3
L315:
	.loc 1 616 0
	mov	DWORD PTR [esp+8], OFFSET FLAT:LC11
	mov	DWORD PTR [esp+4], OFFSET FLAT:___PRETTY_FUNCTION__.46145
	mov	DWORD PTR [esp], 0
	call	_g_return_if_fail_warning
LVL329:
	xor	eax, eax
	jmp	L312
LVL330:
	.p2align 2,,3
L325:
	.loc 1 621 0
	mov	DWORD PTR [esp+8], edi
	mov	DWORD PTR [esp+4], OFFSET FLAT:LC24
	mov	DWORD PTR [esp], OFFSET FLAT:LC8
	call	_purple_debug_error
LVL331:
	.loc 1 622 0
	xor	eax, eax
	jmp	L312
LVL332:
	.p2align 2,,3
L326:
	.loc 1 626 0
	mov	DWORD PTR [esp+8], esi
	mov	DWORD PTR [esp+4], OFFSET FLAT:LC25
	mov	DWORD PTR [esp], OFFSET FLAT:LC8
	call	_purple_debug_error
LVL333:
	.loc 1 627 0
	xor	eax, eax
	jmp	L312
LVL334:
L327:
	.loc 1 633 0
	call	___stack_chk_fail
LVL335:
	.cfi_endproc
LFE118:
	.section .rdata,"dr"
	.align 4
LC28:
	.ascii "Removing buddy with passport %s from group %s\12\0"
	.text
	.p2align 2,,3
	.globl	_msn_userlist_rem_buddy_from_group
	.def	_msn_userlist_rem_buddy_from_group;	.scl	2;	.type	32;	.endef
_msn_userlist_rem_buddy_from_group:
LFB119:
	.loc 1 639 0
	.cfi_startproc
LVL336:
	push	ebp
LCFI262:
	.cfi_def_cfa_offset 8
	.cfi_offset 5, -8
	push	edi
LCFI263:
	.cfi_def_cfa_offset 12
	.cfi_offset 7, -12
	push	esi
LCFI264:
	.cfi_def_cfa_offset 16
	.cfi_offset 6, -16
	push	ebx
LCFI265:
	.cfi_def_cfa_offset 20
	.cfi_offset 3, -20
	sub	esp, 44
LCFI266:
	.cfi_def_cfa_offset 64
	mov	ebx, DWORD PTR [esp+64]
	mov	esi, DWORD PTR [esp+68]
	mov	edi, DWORD PTR [esp+72]
	.loc 1 639 0
	mov	eax, DWORD PTR ___stack_chk_guard
	mov	DWORD PTR [esp+28], eax
	xor	eax, eax
LBB89:
	.loc 1 643 0
	test	ebx, ebx
	je	L342
LVL337:
LBE89:
LBB90:
	.loc 1 644 0
	test	edi, edi
	je	L343
LVL338:
LBE90:
LBB91:
	.loc 1 645 0
	test	esi, esi
	je	L334
LVL339:
LBE91:
	.loc 1 647 0
	mov	DWORD PTR [esp+12], edi
	mov	DWORD PTR [esp+8], esi
	mov	DWORD PTR [esp+4], OFFSET FLAT:LC28
	mov	DWORD PTR [esp], OFFSET FLAT:LC8
	call	_purple_debug_info
LVL340:
	.loc 1 649 0
	mov	DWORD PTR [esp+4], edi
	mov	DWORD PTR [esp], ebx
	call	_msn_userlist_find_group_id
LVL341:
	mov	ebp, eax
LVL342:
	test	eax, eax
	je	L344
	.loc 1 654 0
	mov	DWORD PTR [esp+4], esi
	mov	DWORD PTR [esp], ebx
	call	_msn_userlist_find_user
LVL343:
	test	eax, eax
	je	L345
	.loc 1 659 0
	mov	DWORD PTR [esp+4], ebp
	mov	DWORD PTR [esp], eax
	call	_msn_user_remove_group_id
LVL344:
	.loc 1 661 0
	mov	eax, 1
LVL345:
L331:
	.loc 1 662 0
	mov	edx, DWORD PTR [esp+28]
	xor	edx, DWORD PTR ___stack_chk_guard
	jne	L346
	add	esp, 44
LCFI267:
	.cfi_remember_state
	.cfi_def_cfa_offset 20
	pop	ebx
LCFI268:
	.cfi_restore 3
	.cfi_def_cfa_offset 16
	pop	esi
LCFI269:
	.cfi_restore 6
	.cfi_def_cfa_offset 12
	pop	edi
LCFI270:
	.cfi_restore 7
	.cfi_def_cfa_offset 8
	pop	ebp
LCFI271:
	.cfi_restore 5
	.cfi_def_cfa_offset 4
	ret
	.p2align 2,,3
L342:
LCFI272:
	.cfi_restore_state
LVL346:
	.loc 1 643 0
	mov	DWORD PTR [esp+8], OFFSET FLAT:LC4
	mov	DWORD PTR [esp+4], OFFSET FLAT:___PRETTY_FUNCTION__.46159
	mov	DWORD PTR [esp], 0
	call	_g_return_if_fail_warning
LVL347:
	xor	eax, eax
	jmp	L331
LVL348:
	.p2align 2,,3
L343:
	.loc 1 644 0
	mov	DWORD PTR [esp+8], OFFSET FLAT:LC26
	mov	DWORD PTR [esp+4], OFFSET FLAT:___PRETTY_FUNCTION__.46159
	mov	DWORD PTR [esp], 0
	call	_g_return_if_fail_warning
LVL349:
	xor	eax, eax
	jmp	L331
LVL350:
	.p2align 2,,3
L334:
	.loc 1 645 0
	mov	DWORD PTR [esp+8], OFFSET FLAT:LC11
	mov	DWORD PTR [esp+4], OFFSET FLAT:___PRETTY_FUNCTION__.46159
	mov	DWORD PTR [esp], 0
	call	_g_return_if_fail_warning
LVL351:
	xor	eax, eax
	jmp	L331
LVL352:
	.p2align 2,,3
L344:
	.loc 1 650 0
	mov	DWORD PTR [esp+8], edi
	mov	DWORD PTR [esp+4], OFFSET FLAT:LC24
	mov	DWORD PTR [esp], OFFSET FLAT:LC8
	call	_purple_debug_error
LVL353:
	.loc 1 651 0
	xor	eax, eax
	jmp	L331
LVL354:
	.p2align 2,,3
L345:
	.loc 1 655 0
	mov	DWORD PTR [esp+8], esi
	mov	DWORD PTR [esp+4], OFFSET FLAT:LC25
	mov	DWORD PTR [esp], OFFSET FLAT:LC8
	call	_purple_debug_error
LVL355:
	.loc 1 656 0
	xor	eax, eax
	jmp	L331
LVL356:
L346:
	.loc 1 662 0
	call	___stack_chk_fail
LVL357:
	.cfi_endproc
LFE119:
	.p2align 2,,3
	.globl	_msn_userlist_move_buddy
	.def	_msn_userlist_move_buddy;	.scl	2;	.type	32;	.endef
_msn_userlist_move_buddy:
LFB120:
	.loc 1 667 0
	.cfi_startproc
LVL358:
	push	ebp
LCFI273:
	.cfi_def_cfa_offset 8
	.cfi_offset 5, -8
	push	edi
LCFI274:
	.cfi_def_cfa_offset 12
	.cfi_offset 7, -12
	push	esi
LCFI275:
	.cfi_def_cfa_offset 16
	.cfi_offset 6, -16
	push	ebx
LCFI276:
	.cfi_def_cfa_offset 20
	.cfi_offset 3, -20
	sub	esp, 60
LCFI277:
	.cfi_def_cfa_offset 80
	mov	esi, DWORD PTR [esp+80]
	mov	ebp, DWORD PTR [esp+84]
	mov	edx, DWORD PTR [esp+88]
	mov	edi, DWORD PTR [esp+92]
	.loc 1 667 0
	mov	eax, DWORD PTR ___stack_chk_guard
	mov	DWORD PTR [esp+44], eax
	xor	eax, eax
LBB92:
	.loc 1 671 0
	test	esi, esi
	je	L363
LVL359:
LBE92:
LBB93:
	.loc 1 672 0
	mov	eax, DWORD PTR [esi]
	test	eax, eax
	je	L364
LVL360:
LBE93:
	.loc 1 674 0
	mov	DWORD PTR [esp], eax
	mov	DWORD PTR [esp+28], edx
	call	_msn_callback_state_new
LVL361:
	mov	ebx, eax
LVL362:
	.loc 1 675 0
	mov	DWORD PTR [esp+4], ebp
	mov	DWORD PTR [esp], eax
	call	_msn_callback_state_set_who
LVL363:
	.loc 1 676 0
	mov	DWORD PTR [esp+4], 2
	mov	DWORD PTR [esp], ebx
	call	_msn_callback_state_set_action
LVL364:
	.loc 1 677 0
	mov	edx, DWORD PTR [esp+28]
	mov	DWORD PTR [esp+4], edx
	mov	DWORD PTR [esp], ebx
	call	_msn_callback_state_set_old_group_name
LVL365:
	.loc 1 678 0
	mov	DWORD PTR [esp+4], edi
	mov	DWORD PTR [esp], ebx
	call	_msn_callback_state_set_new_group_name
LVL366:
	.loc 1 680 0
	mov	DWORD PTR [esp+4], edi
	mov	DWORD PTR [esp], esi
	call	_msn_userlist_find_group_id
LVL367:
	.loc 1 682 0
	test	eax, eax
	je	L365
	.loc 1 691 0
	mov	edx, DWORD PTR [esp+44]
	xor	edx, DWORD PTR ___stack_chk_guard
	jne	L362
	mov	DWORD PTR [esp+92], eax
	mov	DWORD PTR [esp+88], ebp
	mov	DWORD PTR [esp+84], ebx
	mov	eax, DWORD PTR [esi]
LVL368:
	mov	DWORD PTR [esp+80], eax
	.loc 1 692 0
	add	esp, 60
LCFI278:
	.cfi_remember_state
	.cfi_def_cfa_offset 20
	pop	ebx
LCFI279:
	.cfi_restore 3
	.cfi_def_cfa_offset 16
LVL369:
	pop	esi
LCFI280:
	.cfi_restore 6
	.cfi_def_cfa_offset 12
	pop	edi
LCFI281:
	.cfi_restore 7
	.cfi_def_cfa_offset 8
	pop	ebp
LCFI282:
	.cfi_restore 5
	.cfi_def_cfa_offset 4
	.loc 1 691 0
	jmp	_msn_add_contact_to_group
LVL370:
	.p2align 2,,3
L363:
LCFI283:
	.cfi_restore_state
	.loc 1 671 0
	mov	eax, DWORD PTR [esp+44]
	xor	eax, DWORD PTR ___stack_chk_guard
	jne	L362
	mov	DWORD PTR [esp+88], OFFSET FLAT:LC4
LVL371:
L361:
	.loc 1 672 0
	mov	DWORD PTR [esp+84], OFFSET FLAT:___PRETTY_FUNCTION__.46174
	mov	DWORD PTR [esp+80], 0
	.loc 1 692 0
	add	esp, 60
LCFI284:
	.cfi_remember_state
	.cfi_def_cfa_offset 20
	pop	ebx
LCFI285:
	.cfi_restore 3
	.cfi_def_cfa_offset 16
	pop	esi
LCFI286:
	.cfi_restore 6
	.cfi_def_cfa_offset 12
	pop	edi
LCFI287:
	.cfi_restore 7
	.cfi_def_cfa_offset 8
	pop	ebp
LCFI288:
	.cfi_restore 5
	.cfi_def_cfa_offset 4
	.loc 1 672 0
	jmp	_g_return_if_fail_warning
LVL372:
	.p2align 2,,3
L364:
LCFI289:
	.cfi_restore_state
	mov	edx, DWORD PTR [esp+44]
	xor	edx, DWORD PTR ___stack_chk_guard
	jne	L362
	mov	DWORD PTR [esp+88], OFFSET FLAT:LC10
	jmp	L361
LVL373:
	.p2align 2,,3
L365:
	.loc 1 684 0
	mov	edx, DWORD PTR [esp+44]
	xor	edx, DWORD PTR ___stack_chk_guard
	jne	L362
	mov	DWORD PTR [esp+88], edi
	mov	DWORD PTR [esp+84], ebx
	mov	eax, DWORD PTR [esi]
LVL374:
	mov	DWORD PTR [esp+80], eax
	.loc 1 692 0
	add	esp, 60
LCFI290:
	.cfi_remember_state
	.cfi_def_cfa_offset 20
	pop	ebx
LCFI291:
	.cfi_restore 3
	.cfi_def_cfa_offset 16
LVL375:
	pop	esi
LCFI292:
	.cfi_restore 6
	.cfi_def_cfa_offset 12
	pop	edi
LCFI293:
	.cfi_restore 7
	.cfi_def_cfa_offset 8
	pop	ebp
LCFI294:
	.cfi_restore 5
	.cfi_def_cfa_offset 4
	.loc 1 684 0
	jmp	_msn_add_group
LVL376:
L362:
LCFI295:
	.cfi_restore_state
	.loc 1 672 0
	call	___stack_chk_fail
LVL377:
	.cfi_endproc
LFE120:
	.section .rdata,"dr"
LC29:
	.ascii "Releasing buddy icon request\12\0"
	.align 4
LC30:
	.ascii "msn_release_buddy_icon_request(): buddy_icon_window-- yields =%d\12\0"
	.text
	.p2align 2,,3
	.globl	_msn_release_buddy_icon_request
	.def	_msn_release_buddy_icon_request;	.scl	2;	.type	32;	.endef
_msn_release_buddy_icon_request:
LFB121:
	.loc 1 696 0
	.cfi_startproc
LVL378:
	push	esi
LCFI296:
	.cfi_def_cfa_offset 8
	.cfi_offset 6, -8
	push	ebx
LCFI297:
	.cfi_def_cfa_offset 12
	.cfi_offset 3, -12
	sub	esp, 36
LCFI298:
	.cfi_def_cfa_offset 48
	mov	ebx, DWORD PTR [esp+48]
	.loc 1 696 0
	mov	eax, DWORD PTR ___stack_chk_guard
	mov	DWORD PTR [esp+28], eax
	xor	eax, eax
LBB94:
	.loc 1 699 0
	test	ebx, ebx
	je	L380
LVL379:
LBE94:
	.loc 1 701 0
	call	_purple_debug_is_verbose
LVL380:
	test	eax, eax
	jne	L381
L373:
	.loc 1 704 0
	mov	ecx, DWORD PTR [ebx+16]
	test	ecx, ecx
	jle	L366
LBB95:
	.loc 1 707 0
	mov	esi, DWORD PTR [ebx+12]
LVL381:
	.loc 1 709 0
	mov	DWORD PTR [esp], esi
	call	_g_queue_is_empty
LVL382:
	test	eax, eax
	je	L382
LVL383:
L366:
LBE95:
	.loc 1 723 0
	mov	eax, DWORD PTR [esp+28]
	xor	eax, DWORD PTR ___stack_chk_guard
	jne	L383
	add	esp, 36
LCFI299:
	.cfi_remember_state
	.cfi_def_cfa_offset 12
	pop	ebx
LCFI300:
	.cfi_restore 3
	.cfi_def_cfa_offset 8
	pop	esi
LCFI301:
	.cfi_restore 6
	.cfi_def_cfa_offset 4
	ret
LVL384:
	.p2align 2,,3
L382:
LCFI302:
	.cfi_restore_state
LBB96:
	.loc 1 712 0
	mov	DWORD PTR [esp], esi
	call	_g_queue_pop_head
LVL385:
	.loc 1 714 0
	dec	DWORD PTR [ebx+16]
	.loc 1 716 0
	mov	DWORD PTR [esp], eax
	call	_msn_request_user_display
LVL386:
	.loc 1 718 0
	call	_purple_debug_is_verbose
LVL387:
	test	eax, eax
	je	L366
	.loc 1 719 0
	mov	eax, DWORD PTR [ebx+16]
	mov	DWORD PTR [esp+8], eax
	mov	DWORD PTR [esp+4], OFFSET FLAT:LC30
	mov	DWORD PTR [esp], OFFSET FLAT:LC8
	call	_purple_debug_info
LVL388:
	jmp	L366
LVL389:
	.p2align 2,,3
L381:
LBE96:
	.loc 1 702 0
	mov	DWORD PTR [esp+4], OFFSET FLAT:LC29
	mov	DWORD PTR [esp], OFFSET FLAT:LC8
	call	_purple_debug_info
LVL390:
	jmp	L373
LVL391:
	.p2align 2,,3
L380:
	.loc 1 699 0
	mov	DWORD PTR [esp+8], OFFSET FLAT:LC4
	mov	DWORD PTR [esp+4], OFFSET FLAT:___PRETTY_FUNCTION__.46183
	mov	DWORD PTR [esp], 0
	call	_g_return_if_fail_warning
LVL392:
	jmp	L366
LVL393:
L383:
	.loc 1 723 0
	call	___stack_chk_fail
LVL394:
	.cfi_endproc
LFE121:
	.section .rdata,"dr"
LC31:
	.ascii "gc != NULL\0"
	.text
	.p2align 2,,3
	.globl	_msn_userlist_load
	.def	_msn_userlist_load;	.scl	2;	.type	32;	.endef
_msn_userlist_load:
LFB122:
	.loc 1 728 0
	.cfi_startproc
LVL395:
	push	ebp
LCFI303:
	.cfi_def_cfa_offset 8
	.cfi_offset 5, -8
	push	edi
LCFI304:
	.cfi_def_cfa_offset 12
	.cfi_offset 7, -12
	push	esi
LCFI305:
	.cfi_def_cfa_offset 16
	.cfi_offset 6, -16
	push	ebx
LCFI306:
	.cfi_def_cfa_offset 20
	.cfi_offset 3, -20
	sub	esp, 44
LCFI307:
	.cfi_def_cfa_offset 64
	mov	esi, DWORD PTR [esp+64]
	.loc 1 728 0
	mov	eax, DWORD PTR ___stack_chk_guard
	mov	DWORD PTR [esp+28], eax
	xor	eax, eax
	.loc 1 729 0
	mov	ebx, DWORD PTR [esi]
LVL396:
	.loc 1 730 0
	mov	DWORD PTR [esp], ebx
	call	_purple_account_get_connection
LVL397:
LBB97:
	.loc 1 734 0
	test	eax, eax
	je	L408
LVL398:
LBE97:
	.loc 1 736 0
	mov	DWORD PTR [esp+4], 0
	mov	DWORD PTR [esp], ebx
	call	_purple_find_buddies
LVL399:
	mov	ebx, eax
LVL400:
	test	eax, eax
	je	L395
	.p2align 2,,3
L401:
LBB98:
	.loc 1 738 0
	mov	edi, DWORD PTR [ebx]
LVL401:
	.loc 1 740 0
	mov	DWORD PTR [esp], edi
	call	_purple_buddy_get_name
LVL402:
	mov	DWORD PTR [esp+8], 0
	mov	DWORD PTR [esp+4], eax
	mov	eax, DWORD PTR [esi+40]
	mov	DWORD PTR [esp], eax
	call	_msn_userlist_find_add_user
LVL403:
	mov	ebp, eax
LVL404:
	.loc 1 742 0
	mov	DWORD PTR [esp+4], eax
	mov	DWORD PTR [esp], edi
	call	_purple_buddy_set_protocol_data
LVL405:
	.loc 1 743 0
	mov	DWORD PTR [esp+4], 1
	mov	DWORD PTR [esp], ebp
	call	_msn_user_set_op
LVL406:
LBE98:
	.loc 1 737 0
	mov	DWORD PTR [esp+4], ebx
	mov	DWORD PTR [esp], ebx
	call	_g_slist_delete_link
LVL407:
	mov	ebx, eax
LVL408:
	.loc 1 736 0
	test	eax, eax
	jne	L401
LVL409:
L395:
	.loc 1 745 0
	mov	eax, DWORD PTR [esi]
LVL410:
	mov	ebx, DWORD PTR [eax+48]
LVL411:
	test	ebx, ebx
	je	L388
	.p2align 2,,3
L400:
	.loc 1 747 0 discriminator 2
	mov	DWORD PTR [esp+8], 0
	mov	eax, DWORD PTR [ebx]
	mov	DWORD PTR [esp+4], eax
	mov	eax, DWORD PTR [esi+40]
	mov	DWORD PTR [esp], eax
	call	_msn_userlist_find_add_user
LVL412:
	.loc 1 749 0 discriminator 2
	mov	DWORD PTR [esp+4], 2
	mov	DWORD PTR [esp], eax
	call	_msn_user_set_op
LVL413:
	.loc 1 745 0 discriminator 2
	mov	ebx, DWORD PTR [ebx+4]
LVL414:
	test	ebx, ebx
	jne	L400
	mov	eax, DWORD PTR [esi]
L388:
	.loc 1 751 0
	mov	ebx, DWORD PTR [eax+52]
LVL415:
	test	ebx, ebx
	je	L384
	.p2align 2,,3
L399:
	.loc 1 753 0 discriminator 2
	mov	DWORD PTR [esp+8], 0
	mov	eax, DWORD PTR [ebx]
	mov	DWORD PTR [esp+4], eax
	mov	eax, DWORD PTR [esi+40]
	mov	DWORD PTR [esp], eax
	call	_msn_userlist_find_add_user
LVL416:
	.loc 1 755 0 discriminator 2
	mov	DWORD PTR [esp+4], 4
	mov	DWORD PTR [esp], eax
	call	_msn_user_set_op
LVL417:
	.loc 1 751 0 discriminator 2
	mov	ebx, DWORD PTR [ebx+4]
LVL418:
	test	ebx, ebx
	jne	L399
LVL419:
L384:
	.loc 1 758 0
	mov	eax, DWORD PTR [esp+28]
	xor	eax, DWORD PTR ___stack_chk_guard
	jne	L409
	add	esp, 44
LCFI308:
	.cfi_remember_state
	.cfi_def_cfa_offset 20
	pop	ebx
LCFI309:
	.cfi_restore 3
	.cfi_def_cfa_offset 16
	pop	esi
LCFI310:
	.cfi_restore 6
	.cfi_def_cfa_offset 12
	pop	edi
LCFI311:
	.cfi_restore 7
	.cfi_def_cfa_offset 8
	pop	ebp
LCFI312:
	.cfi_restore 5
	.cfi_def_cfa_offset 4
	ret
LVL420:
	.p2align 2,,3
L408:
LCFI313:
	.cfi_restore_state
	.loc 1 734 0
	mov	DWORD PTR [esp+8], OFFSET FLAT:LC31
	mov	DWORD PTR [esp+4], OFFSET FLAT:___PRETTY_FUNCTION__.46194
	mov	DWORD PTR [esp], 0
	call	_g_return_if_fail_warning
LVL421:
	jmp	L384
LVL422:
L409:
	.loc 1 758 0
	call	___stack_chk_fail
LVL423:
	.cfi_endproc
LFE122:
	.globl	_lists
	.section .rdata,"dr"
LC32:
	.ascii "FL\0"
LC33:
	.ascii "AL\0"
LC34:
	.ascii "BL\0"
LC35:
	.ascii "RL\0"
	.data
	.align 4
_lists:
	.long	LC32
	.long	LC33
	.long	LC34
	.long	LC35
	.section .rdata,"dr"
___PRETTY_FUNCTION__.45987:
	.ascii "msn_userlist_find_user\0"
	.align 4
___PRETTY_FUNCTION__.46001:
	.ascii "msn_userlist_find_user_with_id\0"
	.align 32
___PRETTY_FUNCTION__.46014:
	.ascii "msn_userlist_find_user_with_mobile_phone\0"
	.align 32
___PRETTY_FUNCTION__.46035:
	.ascii "msn_userlist_find_group_with_id\0"
	.align 32
___PRETTY_FUNCTION__.46049:
	.ascii "msn_userlist_find_group_with_name\0"
___PRETTY_FUNCTION__.46093:
	.ascii "msn_userlist_rem_buddy\0"
	.align 32
___PRETTY_FUNCTION__.46109:
	.ascii "msn_userlist_rem_buddy_from_list\0"
___PRETTY_FUNCTION__.46121:
	.ascii "msn_userlist_add_buddy\0"
	.align 4
___PRETTY_FUNCTION__.46135:
	.ascii "msn_userlist_add_buddy_to_list\0"
	.align 32
___PRETTY_FUNCTION__.46145:
	.ascii "msn_userlist_add_buddy_to_group\0"
	.align 32
___PRETTY_FUNCTION__.46159:
	.ascii "msn_userlist_rem_buddy_from_group\0"
___PRETTY_FUNCTION__.46174:
	.ascii "msn_userlist_move_buddy\0"
	.align 4
___PRETTY_FUNCTION__.46183:
	.ascii "msn_release_buddy_icon_request\0"
___PRETTY_FUNCTION__.46194:
	.ascii "msn_userlist_load\0"
	.text
Letext0:
	.file 2 "c:/workspace/pidgin-devel/win32-dev/mingw-4.7.2/bin/../lib/gcc/mingw32/4.7.2/../../../../include/stdio.h"
	.file 3 "c:/workspace/pidgin-devel/win32-dev/mingw-4.7.2/bin/../lib/gcc/mingw32/4.7.2/include/stddef.h"
	.file 4 "c:/workspace/pidgin-devel/win32-dev/mingw-4.7.2/bin/../lib/gcc/mingw32/4.7.2/../../../../include/sys/types.h"
	.file 5 "c:/workspace/pidgin-devel/win32-dev/mingw-4.7.2/bin/../lib/gcc/mingw32/4.7.2/../../../../include/time.h"
	.file 6 "../../../../win32-dev/gtk_2_0-2.14/lib/glib-2.0/include/glibconfig.h"
	.file 7 "../../../../win32-dev/gtk_2_0-2.14/include/glib-2.0/glib/gtypes.h"
	.file 8 "../../../../win32-dev/gtk_2_0-2.14/include/glib-2.0/glib/glist.h"
	.file 9 "../../../../win32-dev/gtk_2_0-2.14/include/glib-2.0/glib/ghash.h"
	.file 10 "../../../../win32-dev/gtk_2_0-2.14/include/glib-2.0/glib/gslist.h"
	.file 11 "../../../../win32-dev/gtk_2_0-2.14/include/glib-2.0/glib/gqueue.h"
	.file 12 "../../../../win32-dev/gtk_2_0-2.14/include/glib-2.0/gobject/gclosure.h"
	.file 13 "../../../libpurple/account.h"
	.file 14 "../../../libpurple/connection.h"
	.file 15 "../../../libpurple/plugin.h"
	.file 16 "../../../libpurple/pluginpref.h"
	.file 17 "../../../libpurple/status.h"
	.file 18 "../../../libpurple/blist.h"
	.file 19 "../../../libpurple/buddyicon.h"
	.file 20 "../../../libpurple/imgstore.h"
	.file 21 "../../../libpurple/conversation.h"
	.file 22 "../../../libpurple/log.h"
	.file 23 "../../../libpurple/media/enum-types.h"
	.file 24 "c:/workspace/pidgin-devel/win32-dev/mingw-4.7.2/bin/../lib/gcc/mingw32/4.7.2/../../../../include/wtypes.h"
	.file 25 "../../../libpurple/media/../xmlnode.h"
	.file 26 "../../../libpurple/media/../notify.h"
	.file 27 "../../../libpurple/proxy.h"
	.file 28 "../../../libpurple/privacy.h"
	.file 29 "session.h"
	.file 30 "nexus.h"
	.file 31 "notification.h"
	.file 32 "cmdproc.h"
	.file 33 "command.h"
	.file 34 "transaction.h"
	.file 35 "history.h"
	.file 36 "servconn.h"
	.file 37 "httpconn.h"
	.file 38 "../../../libpurple/circbuffer.h"
	.file 39 "table.h"
	.file 40 "user.h"
	.file 41 "object.h"
	.file 42 "userlist.h"
	.file 43 "group.h"
	.file 44 "oim.h"
	.file 45 "contact.h"
	.file 46 "soap.h"
	.file 47 "c:/workspace/pidgin-devel/win32-dev/mingw-4.7.2/bin/../lib/gcc/mingw32/4.7.2/../../../../include/ctype.h"
	.file 48 "../../../../win32-dev/gtk_2_0-2.14/include/glib-2.0/glib/gmem.h"
	.file 49 "../../../../win32-dev/gtk_2_0-2.14/include/glib-2.0/glib/gstrfuncs.h"
	.file 50 "../../../libpurple/server.h"
	.file 51 "../../../libpurple/eventloop.h"
	.file 52 "../../../../win32-dev/gtk_2_0-2.14/include/glib-2.0/glib/gmessages.h"
	.file 53 "../../../libpurple/debug.h"
	.file 54 "../../../../win32-dev/gtk_2_0-2.14/include/libintl.h"
	.file 55 "msnutils.h"
	.file 56 "slp.h"