	.file	"value.c"
	.intel_syntax noprefix
	.text
Ltext0:
	.section .rdata,"dr"
LC0:
	.ascii "type != PURPLE_TYPE_UNKNOWN\0"
	.text
	.p2align 2,,3
	.globl	_purple_value_new
	.def	_purple_value_new;	.scl	2;	.type	32;	.endef
_purple_value_new:
LFB93:
	.file 1 "value.c"
	.loc 1 34 0
	.cfi_startproc
LVL0:
	push	esi
LCFI0:
	.cfi_def_cfa_offset 8
	.cfi_offset 6, -8
	push	ebx
LCFI1:
	.cfi_def_cfa_offset 12
	.cfi_offset 3, -12
	sub	esp, 36
LCFI2:
	.cfi_def_cfa_offset 48
	mov	ebx, DWORD PTR [esp+48]
	.loc 1 34 0
	mov	eax, DWORD PTR ___stack_chk_guard
	mov	DWORD PTR [esp+28], eax
	xor	eax, eax
LBB3:
	.loc 1 38 0
	test	ebx, ebx
	je	L14
LVL1:
LBE3:
	.loc 1 40 0
	mov	DWORD PTR [esp], 24
	call	_g_malloc0
LVL2:
	mov	esi, eax
LVL3:
	.loc 1 42 0
	mov	DWORD PTR [eax], ebx
LVL4:
	.loc 1 46 0
	cmp	ebx, 1
	je	L15
	.loc 1 48 0
	cmp	ebx, 17
	je	L16
LVL5:
L5:
	.loc 1 54 0
	mov	eax, esi
	mov	edx, DWORD PTR [esp+28]
	xor	edx, DWORD PTR ___stack_chk_guard
	jne	L17
	add	esp, 36
LCFI3:
	.cfi_remember_state
	.cfi_def_cfa_offset 12
	pop	ebx
LCFI4:
	.cfi_restore 3
	.cfi_def_cfa_offset 8
	pop	esi
LCFI5:
	.cfi_restore 6
	.cfi_def_cfa_offset 4
	ret
	.p2align 2,,3
L14:
LCFI6:
	.cfi_restore_state
LVL6:
	.loc 1 38 0
	mov	DWORD PTR [esp+8], OFFSET FLAT:LC0
	mov	DWORD PTR [esp+4], OFFSET FLAT:___PRETTY_FUNCTION__.43262
	mov	DWORD PTR [esp], 0
	call	_g_return_if_fail_warning
LVL7:
	xor	esi, esi
	jmp	L5
LVL8:
	.p2align 2,,3
L15:
	.loc 1 47 0
	mov	eax, DWORD PTR [esp+52]
LVL9:
	mov	DWORD PTR [esi+16], eax
	jmp	L5
LVL10:
	.p2align 2,,3
L16:
	.loc 1 49 0
	mov	eax, DWORD PTR [esp+52]
LVL11:
	mov	DWORD PTR [esp], eax
	call	_g_strdup
LVL12:
	mov	DWORD PTR [esi+16], eax
	jmp	L5
LVL13:
L17:
	.loc 1 54 0
	call	___stack_chk_fail
LVL14:
	.cfi_endproc
LFE93:
	.p2align 2,,3
	.globl	_purple_value_new_outgoing
	.def	_purple_value_new_outgoing;	.scl	2;	.type	32;	.endef
_purple_value_new_outgoing:
LFB94:
	.loc 1 58 0
	.cfi_startproc
LVL15:
	push	esi
LCFI7:
	.cfi_def_cfa_offset 8
	.cfi_offset 6, -8
	push	ebx
LCFI8:
	.cfi_def_cfa_offset 12
	.cfi_offset 3, -12
	sub	esp, 36
LCFI9:
	.cfi_def_cfa_offset 48
	mov	esi, DWORD PTR [esp+48]
	.loc 1 58 0
	mov	eax, DWORD PTR ___stack_chk_guard
	mov	DWORD PTR [esp+28], eax
	xor	eax, eax
LBB4:
	.loc 1 62 0
	test	esi, esi
	je	L30
LVL16:
LBE4:
	.loc 1 64 0
	mov	DWORD PTR [esp], 24
	call	_g_malloc0
LVL17:
	mov	ebx, eax
LVL18:
	.loc 1 66 0
	mov	DWORD PTR [eax], esi
LVL19:
	.loc 1 70 0
	cmp	esi, 1
	je	L31
	.loc 1 72 0
	cmp	esi, 17
	je	L32
LVL20:
L21:
	.loc 1 77 0
	or	WORD PTR [ebx+4], 1
LVL21:
L22:
	.loc 1 80 0
	mov	eax, ebx
	mov	edx, DWORD PTR [esp+28]
	xor	edx, DWORD PTR ___stack_chk_guard
	jne	L33
	add	esp, 36
LCFI10:
	.cfi_remember_state
	.cfi_def_cfa_offset 12
	pop	ebx
LCFI11:
	.cfi_restore 3
	.cfi_def_cfa_offset 8
	pop	esi
LCFI12:
	.cfi_restore 6
	.cfi_def_cfa_offset 4
	ret
	.p2align 2,,3
L30:
LCFI13:
	.cfi_restore_state
LVL22:
	.loc 1 62 0
	mov	DWORD PTR [esp+8], OFFSET FLAT:LC0
	mov	DWORD PTR [esp+4], OFFSET FLAT:___PRETTY_FUNCTION__.43270
	mov	DWORD PTR [esp], 0
	call	_g_return_if_fail_warning
LVL23:
	xor	ebx, ebx
	jmp	L22
LVL24:
	.p2align 2,,3
L31:
	.loc 1 71 0
	mov	eax, DWORD PTR [esp+52]
LVL25:
	mov	DWORD PTR [ebx+16], eax
	jmp	L21
LVL26:
	.p2align 2,,3
L32:
	.loc 1 73 0
	mov	eax, DWORD PTR [esp+52]
LVL27:
	mov	DWORD PTR [esp], eax
	call	_g_strdup
LVL28:
	mov	DWORD PTR [ebx+16], eax
	jmp	L21
LVL29:
L33:
	.loc 1 80 0
	call	___stack_chk_fail
LVL30:
	.cfi_endproc
LFE94:
	.section .rdata,"dr"
LC1:
	.ascii "value != NULL\0"
	.text
	.p2align 2,,3
	.globl	_purple_value_get_type
	.def	_purple_value_get_type;	.scl	2;	.type	32;	.endef
_purple_value_get_type:
LFB97:
	.loc 1 199 0
	.cfi_startproc
LVL31:
	sub	esp, 44
LCFI14:
	.cfi_def_cfa_offset 48
	mov	eax, DWORD PTR [esp+48]
	.loc 1 199 0
	mov	edx, DWORD PTR ___stack_chk_guard
	mov	DWORD PTR [esp+28], edx
	xor	edx, edx
LBB9:
	.loc 1 200 0
	test	eax, eax
	je	L42
LVL32:
LBE9:
	.loc 1 202 0
	mov	eax, DWORD PTR [eax]
LVL33:
L37:
	.loc 1 203 0
	mov	edx, DWORD PTR [esp+28]
	xor	edx, DWORD PTR ___stack_chk_guard
	jne	L43
	add	esp, 44
LCFI15:
	.cfi_remember_state
	.cfi_def_cfa_offset 4
	ret
	.p2align 2,,3
L42:
LCFI16:
	.cfi_restore_state
LVL34:
LBB10:
LBB11:
	.loc 1 200 0
	mov	DWORD PTR [esp+8], OFFSET FLAT:LC1
	mov	DWORD PTR [esp+4], OFFSET FLAT:___PRETTY_FUNCTION__.43308
	mov	DWORD PTR [esp], 0
	call	_g_return_if_fail_warning
LVL35:
	xor	eax, eax
	jmp	L37
LVL36:
L43:
LBE11:
LBE10:
	.loc 1 203 0
	call	___stack_chk_fail
LVL37:
	.cfi_endproc
LFE97:
	.p2align 2,,3
	.globl	_purple_value_destroy
	.def	_purple_value_destroy;	.scl	2;	.type	32;	.endef
_purple_value_destroy:
LFB95:
	.loc 1 84 0
	.cfi_startproc
LVL38:
	push	ebx
LCFI17:
	.cfi_def_cfa_offset 8
	.cfi_offset 3, -8
	sub	esp, 40
LCFI18:
	.cfi_def_cfa_offset 48
	mov	ebx, DWORD PTR [esp+48]
	.loc 1 84 0
	mov	eax, DWORD PTR ___stack_chk_guard
	mov	DWORD PTR [esp+28], eax
	xor	eax, eax
LBB12:
	.loc 1 85 0
	test	ebx, ebx
	je	L57
LVL39:
LBE12:
	.loc 1 87 0
	mov	DWORD PTR [esp], ebx
	call	_purple_value_get_type
LVL40:
	cmp	eax, 17
	je	L58
	.loc 1 91 0
	mov	DWORD PTR [esp], ebx
	call	_purple_value_get_type
LVL41:
	cmp	eax, 13
	je	L59
L47:
	.loc 1 96 0
	mov	eax, DWORD PTR [esp+28]
	xor	eax, DWORD PTR ___stack_chk_guard
	jne	L54
	mov	DWORD PTR [esp+48], ebx
	.loc 1 97 0
	add	esp, 40
LCFI19:
	.cfi_remember_state
	.cfi_def_cfa_offset 8
	pop	ebx
LCFI20:
	.cfi_restore 3
	.cfi_def_cfa_offset 4
	.loc 1 96 0
	jmp	_g_free
LVL42:
	.p2align 2,,3
L58:
LCFI21:
	.cfi_restore_state
	.loc 1 89 0
	mov	eax, DWORD PTR [ebx+16]
	mov	DWORD PTR [esp], eax
	call	_g_free
LVL43:
	jmp	L47
LVL44:
	.p2align 2,,3
L57:
	.loc 1 85 0
	mov	DWORD PTR [esp+8], OFFSET FLAT:LC1
	mov	DWORD PTR [esp+4], OFFSET FLAT:___PRETTY_FUNCTION__.43276
	mov	DWORD PTR [esp], 0
	call	_g_return_if_fail_warning
LVL45:
	.loc 1 97 0
	mov	eax, DWORD PTR [esp+28]
	xor	eax, DWORD PTR ___stack_chk_guard
	jne	L54
	add	esp, 40
LCFI22:
	.cfi_remember_state
	.cfi_def_cfa_offset 8
	pop	ebx
LCFI23:
	.cfi_restore 3
	.cfi_def_cfa_offset 4
	ret
LVL46:
	.p2align 2,,3
L59:
LCFI24:
	.cfi_restore_state
	.loc 1 93 0
	mov	eax, DWORD PTR [ebx+8]
	mov	DWORD PTR [esp], eax
	call	_g_free
LVL47:
	jmp	L47
LVL48:
L54:
	.loc 1 97 0
	call	___stack_chk_fail
LVL49:
	.cfi_endproc
LFE95:
	.section .rdata,"dr"
	.align 4
LC2:
	.ascii "purple_value_get_type(value) == PURPLE_TYPE_SUBTYPE\0"
	.text
	.p2align 2,,3
	.globl	_purple_value_get_subtype
	.def	_purple_value_get_subtype;	.scl	2;	.type	32;	.endef
_purple_value_get_subtype:
LFB98:
	.loc 1 207 0
	.cfi_startproc
LVL50:
	push	ebx
LCFI25:
	.cfi_def_cfa_offset 8
	.cfi_offset 3, -8
	sub	esp, 40
LCFI26:
	.cfi_def_cfa_offset 48
	mov	ebx, DWORD PTR [esp+48]
	.loc 1 207 0
	mov	eax, DWORD PTR ___stack_chk_guard
	mov	DWORD PTR [esp+28], eax
	xor	eax, eax
LBB13:
	.loc 1 208 0
	test	ebx, ebx
	je	L69
LVL51:
LBE13:
LBB14:
	.loc 1 209 0
	mov	DWORD PTR [esp], ebx
	call	_purple_value_get_type
LVL52:
	dec	eax
	je	L64
LVL53:
LBE14:
	mov	DWORD PTR [esp+8], OFFSET FLAT:LC2
	mov	DWORD PTR [esp+4], OFFSET FLAT:___PRETTY_FUNCTION__.43314
	mov	DWORD PTR [esp], 0
	call	_g_return_if_fail_warning
LVL54:
	xor	eax, eax
LVL55:
L63:
	.loc 1 212 0
	mov	edx, DWORD PTR [esp+28]
	xor	edx, DWORD PTR ___stack_chk_guard
	jne	L70
	add	esp, 40
LCFI27:
	.cfi_remember_state
	.cfi_def_cfa_offset 8
	pop	ebx
LCFI28:
	.cfi_restore 3
	.cfi_def_cfa_offset 4
	ret
LVL56:
	.p2align 2,,3
L64:
LCFI29:
	.cfi_restore_state
	.loc 1 211 0
	mov	eax, DWORD PTR [ebx+16]
	jmp	L63
LVL57:
	.p2align 2,,3
L69:
	.loc 1 208 0
	mov	DWORD PTR [esp+8], OFFSET FLAT:LC1
	mov	DWORD PTR [esp+4], OFFSET FLAT:___PRETTY_FUNCTION__.43314
	mov	DWORD PTR [esp], 0
	call	_g_return_if_fail_warning
LVL58:
	xor	eax, eax
	jmp	L63
LVL59:
L70:
	.loc 1 212 0
	call	___stack_chk_fail
LVL60:
	.cfi_endproc
LFE98:
	.section .rdata,"dr"
	.align 4
LC3:
	.ascii "purple_value_get_type(value) == PURPLE_TYPE_BOXED\0"
	.text
	.p2align 2,,3
	.globl	_purple_value_get_specific_type
	.def	_purple_value_get_specific_type;	.scl	2;	.type	32;	.endef
_purple_value_get_specific_type:
LFB99:
	.loc 1 216 0
	.cfi_startproc
LVL61:
	push	ebx
LCFI30:
	.cfi_def_cfa_offset 8
	.cfi_offset 3, -8
	sub	esp, 40
LCFI31:
	.cfi_def_cfa_offset 48
	mov	ebx, DWORD PTR [esp+48]
	.loc 1 216 0
	mov	eax, DWORD PTR ___stack_chk_guard
	mov	DWORD PTR [esp+28], eax
	xor	eax, eax
LBB15:
	.loc 1 217 0
	test	ebx, ebx
	je	L80
LVL62:
LBE15:
LBB16:
	.loc 1 218 0
	mov	DWORD PTR [esp], ebx
	call	_purple_value_get_type
LVL63:
	cmp	eax, 17
	je	L75
LVL64:
LBE16:
	mov	DWORD PTR [esp+8], OFFSET FLAT:LC3
	mov	DWORD PTR [esp+4], OFFSET FLAT:___PRETTY_FUNCTION__.43322
	mov	DWORD PTR [esp], 0
	call	_g_return_if_fail_warning
LVL65:
	xor	eax, eax
LVL66:
L74:
	.loc 1 221 0
	mov	edx, DWORD PTR [esp+28]
	xor	edx, DWORD PTR ___stack_chk_guard
	jne	L81
	add	esp, 40
LCFI32:
	.cfi_remember_state
	.cfi_def_cfa_offset 8
	pop	ebx
LCFI33:
	.cfi_restore 3
	.cfi_def_cfa_offset 4
	ret
LVL67:
	.p2align 2,,3
L75:
LCFI34:
	.cfi_restore_state
	.loc 1 220 0
	mov	eax, DWORD PTR [ebx+16]
	jmp	L74
LVL68:
	.p2align 2,,3
L80:
	.loc 1 217 0
	mov	DWORD PTR [esp+8], OFFSET FLAT:LC1
	mov	DWORD PTR [esp+4], OFFSET FLAT:___PRETTY_FUNCTION__.43322
	mov	DWORD PTR [esp], 0
	call	_g_return_if_fail_warning
LVL69:
	xor	eax, eax
	jmp	L74
LVL70:
L81:
	.loc 1 221 0
	call	___stack_chk_fail
LVL71:
	.cfi_endproc
LFE99:
	.p2align 2,,3
	.globl	_purple_value_is_outgoing
	.def	_purple_value_is_outgoing;	.scl	2;	.type	32;	.endef
_purple_value_is_outgoing:
LFB100:
	.loc 1 225 0
	.cfi_startproc
LVL72:
	sub	esp, 44
LCFI35:
	.cfi_def_cfa_offset 48
	mov	eax, DWORD PTR [esp+48]
	.loc 1 225 0
	mov	edx, DWORD PTR ___stack_chk_guard
	mov	DWORD PTR [esp+28], edx
	xor	edx, edx
LBB17:
	.loc 1 226 0
	test	eax, eax
	je	L90
LVL73:
LBE17:
	.loc 1 228 0
	mov	eax, DWORD PTR [eax+4]
	and	eax, 1
LVL74:
L85:
	.loc 1 229 0
	mov	edx, DWORD PTR [esp+28]
	xor	edx, DWORD PTR ___stack_chk_guard
	jne	L91
	add	esp, 44
LCFI36:
	.cfi_remember_state
	.cfi_def_cfa_offset 4
	ret
	.p2align 2,,3
L90:
LCFI37:
	.cfi_restore_state
LVL75:
	.loc 1 226 0
	mov	DWORD PTR [esp+8], OFFSET FLAT:LC1
	mov	DWORD PTR [esp+4], OFFSET FLAT:___PRETTY_FUNCTION__.43330
	mov	DWORD PTR [esp], 0
	call	_g_return_if_fail_warning
LVL76:
	xor	eax, eax
	jmp	L85
LVL77:
L91:
	.loc 1 229 0
	call	___stack_chk_fail
LVL78:
	.cfi_endproc
LFE100:
	.p2align 2,,3
	.globl	_purple_value_set_char
	.def	_purple_value_set_char;	.scl	2;	.type	32;	.endef
_purple_value_set_char:
LFB101:
	.loc 1 233 0
	.cfi_startproc
LVL79:
	sub	esp, 44
LCFI38:
	.cfi_def_cfa_offset 48
	mov	eax, DWORD PTR [esp+48]
	mov	edx, DWORD PTR [esp+52]
	.loc 1 233 0
	mov	ecx, DWORD PTR ___stack_chk_guard
	mov	DWORD PTR [esp+28], ecx
	xor	ecx, ecx
LBB18:
	.loc 1 234 0
	test	eax, eax
	je	L100
LVL80:
LBE18:
	.loc 1 236 0
	mov	BYTE PTR [eax+8], dl
LVL81:
L95:
	.loc 1 237 0 discriminator 1
	mov	eax, DWORD PTR [esp+28]
	xor	eax, DWORD PTR ___stack_chk_guard
	jne	L101
	.loc 1 237 0 is_stmt 0
	add	esp, 44
LCFI39:
	.cfi_remember_state
	.cfi_def_cfa_offset 4
	ret
	.p2align 2,,3
L100:
LCFI40:
	.cfi_restore_state
LVL82:
	.loc 1 234 0 is_stmt 1
	mov	DWORD PTR [esp+8], OFFSET FLAT:LC1
	mov	DWORD PTR [esp+4], OFFSET FLAT:___PRETTY_FUNCTION__.43337
	mov	DWORD PTR [esp], 0
	call	_g_return_if_fail_warning
LVL83:
	jmp	L95
LVL84:
L101:
	.loc 1 237 0
	call	___stack_chk_fail
LVL85:
	.cfi_endproc
LFE101:
	.p2align 2,,3
	.globl	_purple_value_set_uchar
	.def	_purple_value_set_uchar;	.scl	2;	.type	32;	.endef
_purple_value_set_uchar:
LFB102:
	.loc 1 241 0
	.cfi_startproc
LVL86:
	sub	esp, 44
LCFI41:
	.cfi_def_cfa_offset 48
	mov	eax, DWORD PTR [esp+48]
	mov	edx, DWORD PTR [esp+52]
	.loc 1 241 0
	mov	ecx, DWORD PTR ___stack_chk_guard
	mov	DWORD PTR [esp+28], ecx
	xor	ecx, ecx
LBB19:
	.loc 1 242 0
	test	eax, eax
	je	L110
LVL87:
LBE19:
	.loc 1 244 0
	mov	BYTE PTR [eax+8], dl
LVL88:
L105:
	.loc 1 245 0 discriminator 1
	mov	eax, DWORD PTR [esp+28]
	xor	eax, DWORD PTR ___stack_chk_guard
	jne	L111
	.loc 1 245 0 is_stmt 0
	add	esp, 44
LCFI42:
	.cfi_remember_state
	.cfi_def_cfa_offset 4
	ret
	.p2align 2,,3
L110:
LCFI43:
	.cfi_restore_state
LVL89:
	.loc 1 242 0 is_stmt 1
	mov	DWORD PTR [esp+8], OFFSET FLAT:LC1
	mov	DWORD PTR [esp+4], OFFSET FLAT:___PRETTY_FUNCTION__.43344
	mov	DWORD PTR [esp], 0
	call	_g_return_if_fail_warning
LVL90:
	jmp	L105
LVL91:
L111:
	.loc 1 245 0
	call	___stack_chk_fail
LVL92:
	.cfi_endproc
LFE102:
	.p2align 2,,3
	.globl	_purple_value_set_boolean
	.def	_purple_value_set_boolean;	.scl	2;	.type	32;	.endef
_purple_value_set_boolean:
LFB103:
	.loc 1 249 0
	.cfi_startproc
LVL93:
	sub	esp, 44
LCFI44:
	.cfi_def_cfa_offset 48
	mov	eax, DWORD PTR [esp+48]
	mov	edx, DWORD PTR [esp+52]
	.loc 1 249 0
	mov	ecx, DWORD PTR ___stack_chk_guard
	mov	DWORD PTR [esp+28], ecx
	xor	ecx, ecx
LBB20:
	.loc 1 250 0
	test	eax, eax
	je	L120
LVL94:
LBE20:
	.loc 1 252 0
	mov	DWORD PTR [eax+8], edx
LVL95:
L115:
	.loc 1 253 0 discriminator 1
	mov	eax, DWORD PTR [esp+28]
	xor	eax, DWORD PTR ___stack_chk_guard
	jne	L121
	.loc 1 253 0 is_stmt 0
	add	esp, 44
LCFI45:
	.cfi_remember_state
	.cfi_def_cfa_offset 4
	ret
	.p2align 2,,3
L120:
LCFI46:
	.cfi_restore_state
LVL96:
	.loc 1 250 0 is_stmt 1
	mov	DWORD PTR [esp+8], OFFSET FLAT:LC1
	mov	DWORD PTR [esp+4], OFFSET FLAT:___PRETTY_FUNCTION__.43351
	mov	DWORD PTR [esp], 0
	call	_g_return_if_fail_warning
LVL97:
	jmp	L115
LVL98:
L121:
	.loc 1 253 0
	call	___stack_chk_fail
LVL99:
	.cfi_endproc
LFE103:
	.p2align 2,,3
	.globl	_purple_value_set_short
	.def	_purple_value_set_short;	.scl	2;	.type	32;	.endef
_purple_value_set_short:
LFB104:
	.loc 1 257 0
	.cfi_startproc
LVL100:
	sub	esp, 44
LCFI47:
	.cfi_def_cfa_offset 48
	mov	eax, DWORD PTR [esp+48]
	mov	edx, DWORD PTR [esp+52]
	.loc 1 257 0
	mov	ecx, DWORD PTR ___stack_chk_guard
	mov	DWORD PTR [esp+28], ecx
	xor	ecx, ecx
LBB21:
	.loc 1 258 0
	test	eax, eax
	je	L130
LVL101:
LBE21:
	.loc 1 260 0
	mov	WORD PTR [eax+8], dx
LVL102:
L125:
	.loc 1 261 0 discriminator 1
	mov	eax, DWORD PTR [esp+28]
	xor	eax, DWORD PTR ___stack_chk_guard
	jne	L131
	.loc 1 261 0 is_stmt 0
	add	esp, 44
LCFI48:
	.cfi_remember_state
	.cfi_def_cfa_offset 4
	ret
	.p2align 2,,3
L130:
LCFI49:
	.cfi_restore_state
LVL103:
	.loc 1 258 0 is_stmt 1
	mov	DWORD PTR [esp+8], OFFSET FLAT:LC1
	mov	DWORD PTR [esp+4], OFFSET FLAT:___PRETTY_FUNCTION__.43358
	mov	DWORD PTR [esp], 0
	call	_g_return_if_fail_warning
LVL104:
	jmp	L125
LVL105:
L131:
	.loc 1 261 0
	call	___stack_chk_fail
LVL106:
	.cfi_endproc
LFE104:
	.p2align 2,,3
	.globl	_purple_value_set_ushort
	.def	_purple_value_set_ushort;	.scl	2;	.type	32;	.endef
_purple_value_set_ushort:
LFB105:
	.loc 1 265 0
	.cfi_startproc
LVL107:
	sub	esp, 44
LCFI50:
	.cfi_def_cfa_offset 48
	mov	eax, DWORD PTR [esp+48]
	mov	edx, DWORD PTR [esp+52]
	.loc 1 265 0
	mov	ecx, DWORD PTR ___stack_chk_guard
	mov	DWORD PTR [esp+28], ecx
	xor	ecx, ecx
LBB22:
	.loc 1 266 0
	test	eax, eax
	je	L140
LVL108:
LBE22:
	.loc 1 268 0
	mov	WORD PTR [eax+8], dx
LVL109:
L135:
	.loc 1 269 0 discriminator 1
	mov	eax, DWORD PTR [esp+28]
	xor	eax, DWORD PTR ___stack_chk_guard
	jne	L141
	.loc 1 269 0 is_stmt 0
	add	esp, 44
LCFI51:
	.cfi_remember_state
	.cfi_def_cfa_offset 4
	ret
	.p2align 2,,3
L140:
LCFI52:
	.cfi_restore_state
LVL110:
	.loc 1 266 0 is_stmt 1
	mov	DWORD PTR [esp+8], OFFSET FLAT:LC1
	mov	DWORD PTR [esp+4], OFFSET FLAT:___PRETTY_FUNCTION__.43365
	mov	DWORD PTR [esp], 0
	call	_g_return_if_fail_warning
LVL111:
	jmp	L135
LVL112:
L141:
	.loc 1 269 0
	call	___stack_chk_fail
LVL113:
	.cfi_endproc
LFE105:
	.p2align 2,,3
	.globl	_purple_value_set_int
	.def	_purple_value_set_int;	.scl	2;	.type	32;	.endef
_purple_value_set_int:
LFB106:
	.loc 1 273 0
	.cfi_startproc
LVL114:
	sub	esp, 44
LCFI53:
	.cfi_def_cfa_offset 48
	mov	eax, DWORD PTR [esp+48]
	mov	edx, DWORD PTR [esp+52]
	.loc 1 273 0
	mov	ecx, DWORD PTR ___stack_chk_guard
	mov	DWORD PTR [esp+28], ecx
	xor	ecx, ecx
LBB23:
	.loc 1 274 0
	test	eax, eax
	je	L150
LVL115:
LBE23:
	.loc 1 276 0
	mov	DWORD PTR [eax+8], edx
LVL116:
L145:
	.loc 1 277 0 discriminator 1
	mov	eax, DWORD PTR [esp+28]
	xor	eax, DWORD PTR ___stack_chk_guard
	jne	L151
	.loc 1 277 0 is_stmt 0
	add	esp, 44
LCFI54:
	.cfi_remember_state
	.cfi_def_cfa_offset 4
	ret
	.p2align 2,,3
L150:
LCFI55:
	.cfi_restore_state
LVL117:
	.loc 1 274 0 is_stmt 1
	mov	DWORD PTR [esp+8], OFFSET FLAT:LC1
	mov	DWORD PTR [esp+4], OFFSET FLAT:___PRETTY_FUNCTION__.43372
	mov	DWORD PTR [esp], 0
	call	_g_return_if_fail_warning
LVL118:
	jmp	L145
LVL119:
L151:
	.loc 1 277 0
	call	___stack_chk_fail
LVL120:
	.cfi_endproc
LFE106:
	.p2align 2,,3
	.globl	_purple_value_set_uint
	.def	_purple_value_set_uint;	.scl	2;	.type	32;	.endef
_purple_value_set_uint:
LFB107:
	.loc 1 281 0
	.cfi_startproc
LVL121:
	sub	esp, 44
LCFI56:
	.cfi_def_cfa_offset 48
	mov	eax, DWORD PTR [esp+48]
	mov	edx, DWORD PTR [esp+52]
	.loc 1 281 0
	mov	ecx, DWORD PTR ___stack_chk_guard
	mov	DWORD PTR [esp+28], ecx
	xor	ecx, ecx
LBB24:
	.loc 1 282 0
	test	eax, eax
	je	L160
LVL122:
LBE24:
	.loc 1 284 0
	mov	DWORD PTR [eax+8], edx
LVL123:
L155:
	.loc 1 285 0 discriminator 1
	mov	eax, DWORD PTR [esp+28]
	xor	eax, DWORD PTR ___stack_chk_guard
	jne	L161
	.loc 1 285 0 is_stmt 0
	add	esp, 44
LCFI57:
	.cfi_remember_state
	.cfi_def_cfa_offset 4
	ret
	.p2align 2,,3
L160:
LCFI58:
	.cfi_restore_state
LVL124:
	.loc 1 282 0 is_stmt 1
	mov	DWORD PTR [esp+8], OFFSET FLAT:LC1
	mov	DWORD PTR [esp+4], OFFSET FLAT:___PRETTY_FUNCTION__.43379
	mov	DWORD PTR [esp], 0
	call	_g_return_if_fail_warning
LVL125:
	jmp	L155
LVL126:
L161:
	.loc 1 285 0
	call	___stack_chk_fail
LVL127:
	.cfi_endproc
LFE107:
	.p2align 2,,3
	.globl	_purple_value_set_long
	.def	_purple_value_set_long;	.scl	2;	.type	32;	.endef
_purple_value_set_long:
LFB108:
	.loc 1 289 0
	.cfi_startproc
LVL128:
	sub	esp, 44
LCFI59:
	.cfi_def_cfa_offset 48
	mov	eax, DWORD PTR [esp+48]
	mov	edx, DWORD PTR [esp+52]
	.loc 1 289 0
	mov	ecx, DWORD PTR ___stack_chk_guard
	mov	DWORD PTR [esp+28], ecx
	xor	ecx, ecx
LBB25:
	.loc 1 290 0
	test	eax, eax
	je	L170
LVL129:
LBE25:
	.loc 1 292 0
	mov	DWORD PTR [eax+8], edx
LVL130:
L165:
	.loc 1 293 0 discriminator 1
	mov	eax, DWORD PTR [esp+28]
	xor	eax, DWORD PTR ___stack_chk_guard
	jne	L171
	.loc 1 293 0 is_stmt 0
	add	esp, 44
LCFI60:
	.cfi_remember_state
	.cfi_def_cfa_offset 4
	ret
	.p2align 2,,3
L170:
LCFI61:
	.cfi_restore_state
LVL131:
	.loc 1 290 0 is_stmt 1
	mov	DWORD PTR [esp+8], OFFSET FLAT:LC1
	mov	DWORD PTR [esp+4], OFFSET FLAT:___PRETTY_FUNCTION__.43386
	mov	DWORD PTR [esp], 0
	call	_g_return_if_fail_warning
LVL132:
	jmp	L165
LVL133:
L171:
	.loc 1 293 0
	call	___stack_chk_fail
LVL134:
	.cfi_endproc
LFE108:
	.p2align 2,,3
	.globl	_purple_value_set_ulong
	.def	_purple_value_set_ulong;	.scl	2;	.type	32;	.endef
_purple_value_set_ulong:
LFB109:
	.loc 1 297 0
	.cfi_startproc
LVL135:
	sub	esp, 44
LCFI62:
	.cfi_def_cfa_offset 48
	mov	eax, DWORD PTR [esp+48]
	mov	edx, DWORD PTR [esp+52]
	.loc 1 297 0
	mov	ecx, DWORD PTR ___stack_chk_guard
	mov	DWORD PTR [esp+28], ecx
	xor	ecx, ecx
LBB26:
	.loc 1 298 0
	test	eax, eax
	je	L180
LVL136:
LBE26:
	.loc 1 300 0
	mov	DWORD PTR [eax+8], edx
LVL137:
L175:
	.loc 1 301 0 discriminator 1
	mov	eax, DWORD PTR [esp+28]
	xor	eax, DWORD PTR ___stack_chk_guard
	jne	L181
	.loc 1 301 0 is_stmt 0
	add	esp, 44
LCFI63:
	.cfi_remember_state
	.cfi_def_cfa_offset 4
	ret
	.p2align 2,,3
L180:
LCFI64:
	.cfi_restore_state
LVL138:
	.loc 1 298 0 is_stmt 1
	mov	DWORD PTR [esp+8], OFFSET FLAT:LC1
	mov	DWORD PTR [esp+4], OFFSET FLAT:___PRETTY_FUNCTION__.43393
	mov	DWORD PTR [esp], 0
	call	_g_return_if_fail_warning
LVL139:
	jmp	L175
LVL140:
L181:
	.loc 1 301 0
	call	___stack_chk_fail
LVL141:
	.cfi_endproc
LFE109:
	.p2align 2,,3
	.globl	_purple_value_set_int64
	.def	_purple_value_set_int64;	.scl	2;	.type	32;	.endef
_purple_value_set_int64:
LFB110:
	.loc 1 305 0
	.cfi_startproc
LVL142:
	push	ebx
LCFI65:
	.cfi_def_cfa_offset 8
	.cfi_offset 3, -8
	sub	esp, 24
LCFI66:
	.cfi_def_cfa_offset 32
	mov	ecx, DWORD PTR [esp+32]
	mov	eax, DWORD PTR [esp+36]
	mov	edx, DWORD PTR [esp+40]
	.loc 1 305 0
	mov	ebx, DWORD PTR ___stack_chk_guard
	mov	DWORD PTR [esp+12], ebx
	xor	ebx, ebx
LBB27:
	.loc 1 306 0
	test	ecx, ecx
	je	L190
LVL143:
LBE27:
	.loc 1 308 0
	mov	DWORD PTR [ecx+8], eax
	mov	DWORD PTR [ecx+12], edx
	.loc 1 309 0
	mov	ebx, DWORD PTR [esp+12]
	xor	ebx, DWORD PTR ___stack_chk_guard
	jne	L189
	add	esp, 24
LCFI67:
	.cfi_remember_state
	.cfi_def_cfa_offset 8
	pop	ebx
LCFI68:
	.cfi_restore 3
	.cfi_def_cfa_offset 4
	ret
LVL144:
	.p2align 2,,3
L190:
LCFI69:
	.cfi_restore_state
	.loc 1 306 0
	mov	eax, DWORD PTR [esp+12]
	xor	eax, DWORD PTR ___stack_chk_guard
	jne	L189
	mov	DWORD PTR [esp+40], OFFSET FLAT:LC1
	mov	DWORD PTR [esp+36], OFFSET FLAT:___PRETTY_FUNCTION__.43400
	mov	DWORD PTR [esp+32], 0
	.loc 1 309 0
	add	esp, 24
LCFI70:
	.cfi_remember_state
	.cfi_def_cfa_offset 8
	pop	ebx
LCFI71:
	.cfi_restore 3
	.cfi_def_cfa_offset 4
	.loc 1 306 0
	jmp	_g_return_if_fail_warning
LVL145:
L189:
LCFI72:
	.cfi_restore_state
	.loc 1 309 0
	call	___stack_chk_fail
LVL146:
	.cfi_endproc
LFE110:
	.p2align 2,,3
	.globl	_purple_value_set_uint64
	.def	_purple_value_set_uint64;	.scl	2;	.type	32;	.endef
_purple_value_set_uint64:
LFB111:
	.loc 1 313 0
	.cfi_startproc
LVL147:
	push	ebx
LCFI73:
	.cfi_def_cfa_offset 8
	.cfi_offset 3, -8
	sub	esp, 24
LCFI74:
	.cfi_def_cfa_offset 32
	mov	ecx, DWORD PTR [esp+32]
	mov	eax, DWORD PTR [esp+36]
	mov	edx, DWORD PTR [esp+40]
	.loc 1 313 0
	mov	ebx, DWORD PTR ___stack_chk_guard
	mov	DWORD PTR [esp+12], ebx
	xor	ebx, ebx
LBB28:
	.loc 1 314 0
	test	ecx, ecx
	je	L199
LVL148:
LBE28:
	.loc 1 316 0
	mov	DWORD PTR [ecx+8], eax
	mov	DWORD PTR [ecx+12], edx
	.loc 1 317 0
	mov	ebx, DWORD PTR [esp+12]
	xor	ebx, DWORD PTR ___stack_chk_guard
	jne	L198
	add	esp, 24
LCFI75:
	.cfi_remember_state
	.cfi_def_cfa_offset 8
	pop	ebx
LCFI76:
	.cfi_restore 3
	.cfi_def_cfa_offset 4
	ret
LVL149:
	.p2align 2,,3
L199:
LCFI77:
	.cfi_restore_state
	.loc 1 314 0
	mov	eax, DWORD PTR [esp+12]
	xor	eax, DWORD PTR ___stack_chk_guard
	jne	L198
	mov	DWORD PTR [esp+40], OFFSET FLAT:LC1
	mov	DWORD PTR [esp+36], OFFSET FLAT:___PRETTY_FUNCTION__.43407
	mov	DWORD PTR [esp+32], 0
	.loc 1 317 0
	add	esp, 24
LCFI78:
	.cfi_remember_state
	.cfi_def_cfa_offset 8
	pop	ebx
LCFI79:
	.cfi_restore 3
	.cfi_def_cfa_offset 4
	.loc 1 314 0
	jmp	_g_return_if_fail_warning
LVL150:
L198:
LCFI80:
	.cfi_restore_state
	.loc 1 317 0
	call	___stack_chk_fail
LVL151:
	.cfi_endproc
LFE111:
	.section .rdata,"dr"
	.align 4
LC4:
	.ascii "data == NULL || g_utf8_validate(data, -1, NULL)\0"
	.text
	.p2align 2,,3
	.globl	_purple_value_set_string
	.def	_purple_value_set_string;	.scl	2;	.type	32;	.endef
_purple_value_set_string:
LFB112:
	.loc 1 321 0
	.cfi_startproc
LVL152:
	push	esi
LCFI81:
	.cfi_def_cfa_offset 8
	.cfi_offset 6, -8
	push	ebx
LCFI82:
	.cfi_def_cfa_offset 12
	.cfi_offset 3, -12
	sub	esp, 36
LCFI83:
	.cfi_def_cfa_offset 48
	mov	ebx, DWORD PTR [esp+48]
	mov	esi, DWORD PTR [esp+52]
	.loc 1 321 0
	mov	eax, DWORD PTR ___stack_chk_guard
	mov	DWORD PTR [esp+28], eax
	xor	eax, eax
LBB29:
	.loc 1 322 0
	test	ebx, ebx
	je	L216
LVL153:
LBE29:
LBB30:
	.loc 1 323 0
	test	esi, esi
	je	L203
	.loc 1 323 0 is_stmt 0 discriminator 2
	mov	DWORD PTR [esp+8], 0
	mov	DWORD PTR [esp+4], -1
	mov	DWORD PTR [esp], esi
	call	_g_utf8_validate
LVL154:
	test	eax, eax
	je	L217
L203:
LVL155:
LBE30:
	.loc 1 325 0 is_stmt 1
	mov	eax, DWORD PTR [ebx+8]
	mov	DWORD PTR [esp], eax
	call	_g_free
LVL156:
	.loc 1 326 0
	mov	DWORD PTR [esp], esi
	call	_g_strdup
LVL157:
	mov	DWORD PTR [ebx+8], eax
LVL158:
L205:
	.loc 1 327 0
	mov	eax, DWORD PTR [esp+28]
	xor	eax, DWORD PTR ___stack_chk_guard
	jne	L218
	add	esp, 36
LCFI84:
	.cfi_remember_state
	.cfi_def_cfa_offset 12
	pop	ebx
LCFI85:
	.cfi_restore 3
	.cfi_def_cfa_offset 8
	pop	esi
LCFI86:
	.cfi_restore 6
	.cfi_def_cfa_offset 4
	ret
LVL159:
	.p2align 2,,3
L217:
LCFI87:
	.cfi_restore_state
	.loc 1 323 0
	mov	DWORD PTR [esp+8], OFFSET FLAT:LC4
	mov	DWORD PTR [esp+4], OFFSET FLAT:___PRETTY_FUNCTION__.43414
	mov	DWORD PTR [esp], 0
	call	_g_return_if_fail_warning
LVL160:
	jmp	L205
LVL161:
	.p2align 2,,3
L216:
	.loc 1 322 0
	mov	DWORD PTR [esp+8], OFFSET FLAT:LC1
	mov	DWORD PTR [esp+4], OFFSET FLAT:___PRETTY_FUNCTION__.43414
	mov	DWORD PTR [esp], 0
	call	_g_return_if_fail_warning
LVL162:
	jmp	L205
LVL163:
L218:
	.loc 1 327 0
	call	___stack_chk_fail
LVL164:
	.cfi_endproc
LFE112:
	.p2align 2,,3
	.globl	_purple_value_set_object
	.def	_purple_value_set_object;	.scl	2;	.type	32;	.endef
_purple_value_set_object:
LFB113:
	.loc 1 331 0
	.cfi_startproc
LVL165:
	sub	esp, 44
LCFI88:
	.cfi_def_cfa_offset 48
	mov	eax, DWORD PTR [esp+48]
	mov	edx, DWORD PTR [esp+52]
	.loc 1 331 0
	mov	ecx, DWORD PTR ___stack_chk_guard
	mov	DWORD PTR [esp+28], ecx
	xor	ecx, ecx
LBB31:
	.loc 1 332 0
	test	eax, eax
	je	L227
LVL166:
LBE31:
	.loc 1 334 0
	mov	DWORD PTR [eax+8], edx
LVL167:
L222:
	.loc 1 335 0 discriminator 1
	mov	eax, DWORD PTR [esp+28]
	xor	eax, DWORD PTR ___stack_chk_guard
	jne	L228
	.loc 1 335 0 is_stmt 0
	add	esp, 44
LCFI89:
	.cfi_remember_state
	.cfi_def_cfa_offset 4
	ret
	.p2align 2,,3
L227:
LCFI90:
	.cfi_restore_state
LVL168:
	.loc 1 332 0 is_stmt 1
	mov	DWORD PTR [esp+8], OFFSET FLAT:LC1
	mov	DWORD PTR [esp+4], OFFSET FLAT:___PRETTY_FUNCTION__.43423
	mov	DWORD PTR [esp], 0
	call	_g_return_if_fail_warning
LVL169:
	jmp	L222
LVL170:
L228:
	.loc 1 335 0
	call	___stack_chk_fail
LVL171:
	.cfi_endproc
LFE113:
	.p2align 2,,3
	.globl	_purple_value_set_pointer
	.def	_purple_value_set_pointer;	.scl	2;	.type	32;	.endef
_purple_value_set_pointer:
LFB114:
	.loc 1 339 0
	.cfi_startproc
LVL172:
	sub	esp, 44
LCFI91:
	.cfi_def_cfa_offset 48
	mov	eax, DWORD PTR [esp+48]
	mov	edx, DWORD PTR [esp+52]
	.loc 1 339 0
	mov	ecx, DWORD PTR ___stack_chk_guard
	mov	DWORD PTR [esp+28], ecx
	xor	ecx, ecx
LBB32:
	.loc 1 340 0
	test	eax, eax
	je	L237
LVL173:
LBE32:
	.loc 1 342 0
	mov	DWORD PTR [eax+8], edx
LVL174:
L232:
	.loc 1 343 0 discriminator 1
	mov	eax, DWORD PTR [esp+28]
	xor	eax, DWORD PTR ___stack_chk_guard
	jne	L238
	.loc 1 343 0 is_stmt 0
	add	esp, 44
LCFI92:
	.cfi_remember_state
	.cfi_def_cfa_offset 4
	ret
	.p2align 2,,3
L237:
LCFI93:
	.cfi_restore_state
LVL175:
	.loc 1 340 0 is_stmt 1
	mov	DWORD PTR [esp+8], OFFSET FLAT:LC1
	mov	DWORD PTR [esp+4], OFFSET FLAT:___PRETTY_FUNCTION__.43430
	mov	DWORD PTR [esp], 0
	call	_g_return_if_fail_warning
LVL176:
	jmp	L232
LVL177:
L238:
	.loc 1 343 0
	call	___stack_chk_fail
LVL178:
	.cfi_endproc
LFE114:
	.p2align 2,,3
	.globl	_purple_value_set_enum
	.def	_purple_value_set_enum;	.scl	2;	.type	32;	.endef
_purple_value_set_enum:
LFB115:
	.loc 1 347 0
	.cfi_startproc
LVL179:
	sub	esp, 44
LCFI94:
	.cfi_def_cfa_offset 48
	mov	eax, DWORD PTR [esp+48]
	mov	edx, DWORD PTR [esp+52]
	.loc 1 347 0
	mov	ecx, DWORD PTR ___stack_chk_guard
	mov	DWORD PTR [esp+28], ecx
	xor	ecx, ecx
LBB33:
	.loc 1 348 0
	test	eax, eax
	je	L247
LVL180:
LBE33:
	.loc 1 350 0
	mov	DWORD PTR [eax+8], edx
LVL181:
L242:
	.loc 1 351 0 discriminator 1
	mov	eax, DWORD PTR [esp+28]
	xor	eax, DWORD PTR ___stack_chk_guard
	jne	L248
	.loc 1 351 0 is_stmt 0
	add	esp, 44
LCFI95:
	.cfi_remember_state
	.cfi_def_cfa_offset 4
	ret
	.p2align 2,,3
L247:
LCFI96:
	.cfi_restore_state
LVL182:
	.loc 1 348 0 is_stmt 1
	mov	DWORD PTR [esp+8], OFFSET FLAT:LC1
	mov	DWORD PTR [esp+4], OFFSET FLAT:___PRETTY_FUNCTION__.43437
	mov	DWORD PTR [esp], 0
	call	_g_return_if_fail_warning
LVL183:
	jmp	L242
LVL184:
L248:
	.loc 1 351 0
	call	___stack_chk_fail
LVL185:
	.cfi_endproc
LFE115:
	.p2align 2,,3
	.globl	_purple_value_set_boxed
	.def	_purple_value_set_boxed;	.scl	2;	.type	32;	.endef
_purple_value_set_boxed:
LFB116:
	.loc 1 355 0
	.cfi_startproc
LVL186:
	sub	esp, 44
LCFI97:
	.cfi_def_cfa_offset 48
	mov	eax, DWORD PTR [esp+48]
	mov	edx, DWORD PTR [esp+52]
	.loc 1 355 0
	mov	ecx, DWORD PTR ___stack_chk_guard
	mov	DWORD PTR [esp+28], ecx
	xor	ecx, ecx
LBB34:
	.loc 1 356 0
	test	eax, eax
	je	L257
LVL187:
LBE34:
	.loc 1 358 0
	mov	DWORD PTR [eax+8], edx
LVL188:
L252:
	.loc 1 359 0 discriminator 1
	mov	eax, DWORD PTR [esp+28]
	xor	eax, DWORD PTR ___stack_chk_guard
	jne	L258
	.loc 1 359 0 is_stmt 0
	add	esp, 44
LCFI98:
	.cfi_remember_state
	.cfi_def_cfa_offset 4
	ret
	.p2align 2,,3
L257:
LCFI99:
	.cfi_restore_state
LVL189:
	.loc 1 356 0 is_stmt 1
	mov	DWORD PTR [esp+8], OFFSET FLAT:LC1
	mov	DWORD PTR [esp+4], OFFSET FLAT:___PRETTY_FUNCTION__.43444
	mov	DWORD PTR [esp], 0
	call	_g_return_if_fail_warning
LVL190:
	jmp	L252
LVL191:
L258:
	.loc 1 359 0
	call	___stack_chk_fail
LVL192:
	.cfi_endproc
LFE116:
	.p2align 2,,3
	.globl	_purple_value_get_char
	.def	_purple_value_get_char;	.scl	2;	.type	32;	.endef
_purple_value_get_char:
LFB117:
	.loc 1 363 0
	.cfi_startproc
LVL193:
	sub	esp, 44
LCFI100:
	.cfi_def_cfa_offset 48
	mov	eax, DWORD PTR [esp+48]
	.loc 1 363 0
	mov	edx, DWORD PTR ___stack_chk_guard
	mov	DWORD PTR [esp+28], edx
	xor	edx, edx
LBB35:
	.loc 1 364 0
	test	eax, eax
	je	L267
LVL194:
LBE35:
	.loc 1 366 0
	mov	al, BYTE PTR [eax+8]
LVL195:
L262:
	.loc 1 367 0
	mov	edx, DWORD PTR [esp+28]
	xor	edx, DWORD PTR ___stack_chk_guard
	jne	L268
	add	esp, 44
LCFI101:
	.cfi_remember_state
	.cfi_def_cfa_offset 4
	ret
	.p2align 2,,3
L267:
LCFI102:
	.cfi_restore_state
LVL196:
	.loc 1 364 0
	mov	DWORD PTR [esp+8], OFFSET FLAT:LC1
	mov	DWORD PTR [esp+4], OFFSET FLAT:___PRETTY_FUNCTION__.43450
	mov	DWORD PTR [esp], 0
	call	_g_return_if_fail_warning
LVL197:
	xor	eax, eax
	jmp	L262
LVL198:
L268:
	.loc 1 367 0
	call	___stack_chk_fail
LVL199:
	.cfi_endproc
LFE117:
	.p2align 2,,3
	.globl	_purple_value_get_uchar
	.def	_purple_value_get_uchar;	.scl	2;	.type	32;	.endef
_purple_value_get_uchar:
LFB118:
	.loc 1 371 0
	.cfi_startproc
LVL200:
	sub	esp, 44
LCFI103:
	.cfi_def_cfa_offset 48
	mov	eax, DWORD PTR [esp+48]
	.loc 1 371 0
	mov	edx, DWORD PTR ___stack_chk_guard
	mov	DWORD PTR [esp+28], edx
	xor	edx, edx
LBB36:
	.loc 1 372 0
	test	eax, eax
	je	L277
LVL201:
LBE36:
	.loc 1 374 0
	mov	al, BYTE PTR [eax+8]
LVL202:
L272:
	.loc 1 375 0
	mov	edx, DWORD PTR [esp+28]
	xor	edx, DWORD PTR ___stack_chk_guard
	jne	L278
	add	esp, 44
LCFI104:
	.cfi_remember_state
	.cfi_def_cfa_offset 4
	ret
	.p2align 2,,3
L277:
LCFI105:
	.cfi_restore_state
LVL203:
	.loc 1 372 0
	mov	DWORD PTR [esp+8], OFFSET FLAT:LC1
	mov	DWORD PTR [esp+4], OFFSET FLAT:___PRETTY_FUNCTION__.43456
	mov	DWORD PTR [esp], 0
	call	_g_return_if_fail_warning
LVL204:
	xor	eax, eax
	jmp	L272
LVL205:
L278:
	.loc 1 375 0
	call	___stack_chk_fail
LVL206:
	.cfi_endproc
LFE118:
	.p2align 2,,3
	.globl	_purple_value_get_boolean
	.def	_purple_value_get_boolean;	.scl	2;	.type	32;	.endef
_purple_value_get_boolean:
LFB119:
	.loc 1 379 0
	.cfi_startproc
LVL207:
	sub	esp, 44
LCFI106:
	.cfi_def_cfa_offset 48
	mov	eax, DWORD PTR [esp+48]
	.loc 1 379 0
	mov	edx, DWORD PTR ___stack_chk_guard
	mov	DWORD PTR [esp+28], edx
	xor	edx, edx
LBB37:
	.loc 1 380 0
	test	eax, eax
	je	L287
LVL208:
LBE37:
	.loc 1 382 0
	mov	eax, DWORD PTR [eax+8]
LVL209:
L282:
	.loc 1 383 0
	mov	edx, DWORD PTR [esp+28]
	xor	edx, DWORD PTR ___stack_chk_guard
	jne	L288
	add	esp, 44
LCFI107:
	.cfi_remember_state
	.cfi_def_cfa_offset 4
	ret
	.p2align 2,,3
L287:
LCFI108:
	.cfi_restore_state
LVL210:
	.loc 1 380 0
	mov	DWORD PTR [esp+8], OFFSET FLAT:LC1
	mov	DWORD PTR [esp+4], OFFSET FLAT:___PRETTY_FUNCTION__.43462
	mov	DWORD PTR [esp], 0
	call	_g_return_if_fail_warning
LVL211:
	xor	eax, eax
	jmp	L282
LVL212:
L288:
	.loc 1 383 0
	call	___stack_chk_fail
LVL213:
	.cfi_endproc
LFE119:
	.p2align 2,,3
	.globl	_purple_value_get_short
	.def	_purple_value_get_short;	.scl	2;	.type	32;	.endef
_purple_value_get_short:
LFB120:
	.loc 1 387 0
	.cfi_startproc
LVL214:
	sub	esp, 44
LCFI109:
	.cfi_def_cfa_offset 48
	mov	eax, DWORD PTR [esp+48]
	.loc 1 387 0
	mov	edx, DWORD PTR ___stack_chk_guard
	mov	DWORD PTR [esp+28], edx
	xor	edx, edx
LBB38:
	.loc 1 388 0
	test	eax, eax
	je	L297
LVL215:
LBE38:
	.loc 1 390 0
	mov	eax, DWORD PTR [eax+8]
LVL216:
L292:
	.loc 1 391 0
	mov	edx, DWORD PTR [esp+28]
	xor	edx, DWORD PTR ___stack_chk_guard
	jne	L298
	add	esp, 44
LCFI110:
	.cfi_remember_state
	.cfi_def_cfa_offset 4
	ret
	.p2align 2,,3
L297:
LCFI111:
	.cfi_restore_state
LVL217:
	.loc 1 388 0
	mov	DWORD PTR [esp+8], OFFSET FLAT:LC1
	mov	DWORD PTR [esp+4], OFFSET FLAT:___PRETTY_FUNCTION__.43468
	mov	DWORD PTR [esp], 0
	call	_g_return_if_fail_warning
LVL218:
	xor	eax, eax
	jmp	L292
LVL219:
L298:
	.loc 1 391 0
	call	___stack_chk_fail
LVL220:
	.cfi_endproc
LFE120:
	.p2align 2,,3
	.globl	_purple_value_get_ushort
	.def	_purple_value_get_ushort;	.scl	2;	.type	32;	.endef
_purple_value_get_ushort:
LFB121:
	.loc 1 395 0
	.cfi_startproc
LVL221:
	sub	esp, 44
LCFI112:
	.cfi_def_cfa_offset 48
	mov	eax, DWORD PTR [esp+48]
	.loc 1 395 0
	mov	edx, DWORD PTR ___stack_chk_guard
	mov	DWORD PTR [esp+28], edx
	xor	edx, edx
LBB39:
	.loc 1 396 0
	test	eax, eax
	je	L307
LVL222:
LBE39:
	.loc 1 398 0
	mov	eax, DWORD PTR [eax+8]
LVL223:
L302:
	.loc 1 399 0
	mov	edx, DWORD PTR [esp+28]
	xor	edx, DWORD PTR ___stack_chk_guard
	jne	L308
	add	esp, 44
LCFI113:
	.cfi_remember_state
	.cfi_def_cfa_offset 4
	ret
	.p2align 2,,3
L307:
LCFI114:
	.cfi_restore_state
LVL224:
	.loc 1 396 0
	mov	DWORD PTR [esp+8], OFFSET FLAT:LC1
	mov	DWORD PTR [esp+4], OFFSET FLAT:___PRETTY_FUNCTION__.43474
	mov	DWORD PTR [esp], 0
	call	_g_return_if_fail_warning
LVL225:
	xor	eax, eax
	jmp	L302
LVL226:
L308:
	.loc 1 399 0
	call	___stack_chk_fail
LVL227:
	.cfi_endproc
LFE121:
	.p2align 2,,3
	.globl	_purple_value_get_int
	.def	_purple_value_get_int;	.scl	2;	.type	32;	.endef
_purple_value_get_int:
LFB122:
	.loc 1 403 0
	.cfi_startproc
LVL228:
	sub	esp, 44
LCFI115:
	.cfi_def_cfa_offset 48
	mov	eax, DWORD PTR [esp+48]
	.loc 1 403 0
	mov	edx, DWORD PTR ___stack_chk_guard
	mov	DWORD PTR [esp+28], edx
	xor	edx, edx
LBB40:
	.loc 1 404 0
	test	eax, eax
	je	L317
LVL229:
LBE40:
	.loc 1 406 0
	mov	eax, DWORD PTR [eax+8]
LVL230:
L312:
	.loc 1 407 0
	mov	edx, DWORD PTR [esp+28]
	xor	edx, DWORD PTR ___stack_chk_guard
	jne	L318
	add	esp, 44
LCFI116:
	.cfi_remember_state
	.cfi_def_cfa_offset 4
	ret
	.p2align 2,,3
L317:
LCFI117:
	.cfi_restore_state
LVL231:
	.loc 1 404 0
	mov	DWORD PTR [esp+8], OFFSET FLAT:LC1
	mov	DWORD PTR [esp+4], OFFSET FLAT:___PRETTY_FUNCTION__.43480
	mov	DWORD PTR [esp], 0
	call	_g_return_if_fail_warning
LVL232:
	xor	eax, eax
	jmp	L312
LVL233:
L318:
	.loc 1 407 0
	call	___stack_chk_fail
LVL234:
	.cfi_endproc
LFE122:
	.p2align 2,,3
	.globl	_purple_value_get_uint
	.def	_purple_value_get_uint;	.scl	2;	.type	32;	.endef
_purple_value_get_uint:
LFB123:
	.loc 1 411 0
	.cfi_startproc
LVL235:
	sub	esp, 44
LCFI118:
	.cfi_def_cfa_offset 48
	mov	eax, DWORD PTR [esp+48]
	.loc 1 411 0
	mov	edx, DWORD PTR ___stack_chk_guard
	mov	DWORD PTR [esp+28], edx
	xor	edx, edx
LBB41:
	.loc 1 412 0
	test	eax, eax
	je	L327
LVL236:
LBE41:
	.loc 1 414 0
	mov	eax, DWORD PTR [eax+8]
LVL237:
L322:
	.loc 1 415 0
	mov	edx, DWORD PTR [esp+28]
	xor	edx, DWORD PTR ___stack_chk_guard
	jne	L328
	add	esp, 44
LCFI119:
	.cfi_remember_state
	.cfi_def_cfa_offset 4
	ret
	.p2align 2,,3
L327:
LCFI120:
	.cfi_restore_state
LVL238:
	.loc 1 412 0
	mov	DWORD PTR [esp+8], OFFSET FLAT:LC1
	mov	DWORD PTR [esp+4], OFFSET FLAT:___PRETTY_FUNCTION__.43486
	mov	DWORD PTR [esp], 0
	call	_g_return_if_fail_warning
LVL239:
	xor	eax, eax
	jmp	L322
LVL240:
L328:
	.loc 1 415 0
	call	___stack_chk_fail
LVL241:
	.cfi_endproc
LFE123:
	.p2align 2,,3
	.globl	_purple_value_get_long
	.def	_purple_value_get_long;	.scl	2;	.type	32;	.endef
_purple_value_get_long:
LFB124:
	.loc 1 419 0
	.cfi_startproc
LVL242:
	sub	esp, 44
LCFI121:
	.cfi_def_cfa_offset 48
	mov	eax, DWORD PTR [esp+48]
	.loc 1 419 0
	mov	edx, DWORD PTR ___stack_chk_guard
	mov	DWORD PTR [esp+28], edx
	xor	edx, edx
LBB42:
	.loc 1 420 0
	test	eax, eax
	je	L337
LVL243:
LBE42:
	.loc 1 422 0
	mov	eax, DWORD PTR [eax+8]
LVL244:
L332:
	.loc 1 423 0
	mov	edx, DWORD PTR [esp+28]
	xor	edx, DWORD PTR ___stack_chk_guard
	jne	L338
	add	esp, 44
LCFI122:
	.cfi_remember_state
	.cfi_def_cfa_offset 4
	ret
	.p2align 2,,3
L337:
LCFI123:
	.cfi_restore_state
LVL245:
	.loc 1 420 0
	mov	DWORD PTR [esp+8], OFFSET FLAT:LC1
	mov	DWORD PTR [esp+4], OFFSET FLAT:___PRETTY_FUNCTION__.43492
	mov	DWORD PTR [esp], 0
	call	_g_return_if_fail_warning
LVL246:
	xor	eax, eax
	jmp	L332
LVL247:
L338:
	.loc 1 423 0
	call	___stack_chk_fail
LVL248:
	.cfi_endproc
LFE124:
	.p2align 2,,3
	.globl	_purple_value_get_ulong
	.def	_purple_value_get_ulong;	.scl	2;	.type	32;	.endef
_purple_value_get_ulong:
LFB125:
	.loc 1 427 0
	.cfi_startproc
LVL249:
	sub	esp, 44
LCFI124:
	.cfi_def_cfa_offset 48
	mov	eax, DWORD PTR [esp+48]
	.loc 1 427 0
	mov	edx, DWORD PTR ___stack_chk_guard
	mov	DWORD PTR [esp+28], edx
	xor	edx, edx
LBB43:
	.loc 1 428 0
	test	eax, eax
	je	L347
LVL250:
LBE43:
	.loc 1 430 0
	mov	eax, DWORD PTR [eax+8]
LVL251:
L342:
	.loc 1 431 0
	mov	edx, DWORD PTR [esp+28]
	xor	edx, DWORD PTR ___stack_chk_guard
	jne	L348
	add	esp, 44
LCFI125:
	.cfi_remember_state
	.cfi_def_cfa_offset 4
	ret
	.p2align 2,,3
L347:
LCFI126:
	.cfi_restore_state
LVL252:
	.loc 1 428 0
	mov	DWORD PTR [esp+8], OFFSET FLAT:LC1
	mov	DWORD PTR [esp+4], OFFSET FLAT:___PRETTY_FUNCTION__.43498
	mov	DWORD PTR [esp], 0
	call	_g_return_if_fail_warning
LVL253:
	xor	eax, eax
	jmp	L342
LVL254:
L348:
	.loc 1 431 0
	call	___stack_chk_fail
LVL255:
	.cfi_endproc
LFE125:
	.p2align 2,,3
	.globl	_purple_value_get_int64
	.def	_purple_value_get_int64;	.scl	2;	.type	32;	.endef
_purple_value_get_int64:
LFB126:
	.loc 1 435 0
	.cfi_startproc
LVL256:
	sub	esp, 44
LCFI127:
	.cfi_def_cfa_offset 48
	mov	eax, DWORD PTR [esp+48]
	.loc 1 435 0
	mov	edx, DWORD PTR ___stack_chk_guard
	mov	DWORD PTR [esp+28], edx
	xor	edx, edx
LBB44:
	.loc 1 436 0
	test	eax, eax
	je	L357
LVL257:
LBE44:
	.loc 1 438 0
	mov	edx, DWORD PTR [eax+12]
	mov	eax, DWORD PTR [eax+8]
LVL258:
L352:
	.loc 1 439 0
	mov	ecx, DWORD PTR [esp+28]
	xor	ecx, DWORD PTR ___stack_chk_guard
	jne	L358
	add	esp, 44
LCFI128:
	.cfi_remember_state
	.cfi_def_cfa_offset 4
	ret
	.p2align 2,,3
L357:
LCFI129:
	.cfi_restore_state
LVL259:
	.loc 1 436 0
	mov	DWORD PTR [esp+8], OFFSET FLAT:LC1
	mov	DWORD PTR [esp+4], OFFSET FLAT:___PRETTY_FUNCTION__.43504
	mov	DWORD PTR [esp], 0
	call	_g_return_if_fail_warning
LVL260:
	xor	eax, eax
	xor	edx, edx
	jmp	L352
LVL261:
L358:
	.loc 1 439 0
	call	___stack_chk_fail
LVL262:
	.cfi_endproc
LFE126:
	.p2align 2,,3
	.globl	_purple_value_get_uint64
	.def	_purple_value_get_uint64;	.scl	2;	.type	32;	.endef
_purple_value_get_uint64:
LFB127:
	.loc 1 443 0
	.cfi_startproc
LVL263:
	sub	esp, 44
LCFI130:
	.cfi_def_cfa_offset 48
	mov	eax, DWORD PTR [esp+48]
	.loc 1 443 0
	mov	edx, DWORD PTR ___stack_chk_guard
	mov	DWORD PTR [esp+28], edx
	xor	edx, edx
LBB45:
	.loc 1 444 0
	test	eax, eax
	je	L367
LVL264:
LBE45:
	.loc 1 446 0
	mov	edx, DWORD PTR [eax+12]
	mov	eax, DWORD PTR [eax+8]
LVL265:
L362:
	.loc 1 447 0
	mov	ecx, DWORD PTR [esp+28]
	xor	ecx, DWORD PTR ___stack_chk_guard
	jne	L368
	add	esp, 44
LCFI131:
	.cfi_remember_state
	.cfi_def_cfa_offset 4
	ret
	.p2align 2,,3
L367:
LCFI132:
	.cfi_restore_state
LVL266:
	.loc 1 444 0
	mov	DWORD PTR [esp+8], OFFSET FLAT:LC1
	mov	DWORD PTR [esp+4], OFFSET FLAT:___PRETTY_FUNCTION__.43510
	mov	DWORD PTR [esp], 0
	call	_g_return_if_fail_warning
LVL267:
	xor	eax, eax
	xor	edx, edx
	jmp	L362
LVL268:
L368:
	.loc 1 447 0
	call	___stack_chk_fail
LVL269:
	.cfi_endproc
LFE127:
	.p2align 2,,3
	.globl	_purple_value_get_string
	.def	_purple_value_get_string;	.scl	2;	.type	32;	.endef
_purple_value_get_string:
LFB128:
	.loc 1 451 0
	.cfi_startproc
LVL270:
	sub	esp, 44
LCFI133:
	.cfi_def_cfa_offset 48
	mov	eax, DWORD PTR [esp+48]
	.loc 1 451 0
	mov	edx, DWORD PTR ___stack_chk_guard
	mov	DWORD PTR [esp+28], edx
	xor	edx, edx
LBB46:
	.loc 1 452 0
	test	eax, eax
	je	L377
LVL271:
LBE46:
	.loc 1 454 0
	mov	eax, DWORD PTR [eax+8]
LVL272:
L372:
	.loc 1 455 0
	mov	edx, DWORD PTR [esp+28]
	xor	edx, DWORD PTR ___stack_chk_guard
	jne	L378
	add	esp, 44
LCFI134:
	.cfi_remember_state
	.cfi_def_cfa_offset 4
	ret
	.p2align 2,,3
L377:
LCFI135:
	.cfi_restore_state
LVL273:
	.loc 1 452 0
	mov	DWORD PTR [esp+8], OFFSET FLAT:LC1
	mov	DWORD PTR [esp+4], OFFSET FLAT:___PRETTY_FUNCTION__.43516
	mov	DWORD PTR [esp], 0
	call	_g_return_if_fail_warning
LVL274:
	xor	eax, eax
	jmp	L372
LVL275:
L378:
	.loc 1 455 0
	call	___stack_chk_fail
LVL276:
	.cfi_endproc
LFE128:
	.p2align 2,,3
	.globl	_purple_value_get_object
	.def	_purple_value_get_object;	.scl	2;	.type	32;	.endef
_purple_value_get_object:
LFB129:
	.loc 1 459 0
	.cfi_startproc
LVL277:
	sub	esp, 44
LCFI136:
	.cfi_def_cfa_offset 48
	mov	eax, DWORD PTR [esp+48]
	.loc 1 459 0
	mov	edx, DWORD PTR ___stack_chk_guard
	mov	DWORD PTR [esp+28], edx
	xor	edx, edx
LBB47:
	.loc 1 460 0
	test	eax, eax
	je	L387
LVL278:
LBE47:
	.loc 1 462 0
	mov	eax, DWORD PTR [eax+8]
LVL279:
L382:
	.loc 1 463 0
	mov	edx, DWORD PTR [esp+28]
	xor	edx, DWORD PTR ___stack_chk_guard
	jne	L388
	add	esp, 44
LCFI137:
	.cfi_remember_state
	.cfi_def_cfa_offset 4
	ret
	.p2align 2,,3
L387:
LCFI138:
	.cfi_restore_state
LVL280:
	.loc 1 460 0
	mov	DWORD PTR [esp+8], OFFSET FLAT:LC1
	mov	DWORD PTR [esp+4], OFFSET FLAT:___PRETTY_FUNCTION__.43522
	mov	DWORD PTR [esp], 0
	call	_g_return_if_fail_warning
LVL281:
	xor	eax, eax
	jmp	L382
LVL282:
L388:
	.loc 1 463 0
	call	___stack_chk_fail
LVL283:
	.cfi_endproc
LFE129:
	.p2align 2,,3
	.globl	_purple_value_get_pointer
	.def	_purple_value_get_pointer;	.scl	2;	.type	32;	.endef
_purple_value_get_pointer:
LFB130:
	.loc 1 467 0
	.cfi_startproc
LVL284:
	sub	esp, 44
LCFI139:
	.cfi_def_cfa_offset 48
	mov	eax, DWORD PTR [esp+48]
	.loc 1 467 0
	mov	edx, DWORD PTR ___stack_chk_guard
	mov	DWORD PTR [esp+28], edx
	xor	edx, edx
LBB48:
	.loc 1 468 0
	test	eax, eax
	je	L397
LVL285:
LBE48:
	.loc 1 470 0
	mov	eax, DWORD PTR [eax+8]
LVL286:
L392:
	.loc 1 471 0
	mov	edx, DWORD PTR [esp+28]
	xor	edx, DWORD PTR ___stack_chk_guard
	jne	L398
	add	esp, 44
LCFI140:
	.cfi_remember_state
	.cfi_def_cfa_offset 4
	ret
	.p2align 2,,3
L397:
LCFI141:
	.cfi_restore_state
LVL287:
	.loc 1 468 0
	mov	DWORD PTR [esp+8], OFFSET FLAT:LC1
	mov	DWORD PTR [esp+4], OFFSET FLAT:___PRETTY_FUNCTION__.43528
	mov	DWORD PTR [esp], 0
	call	_g_return_if_fail_warning
LVL288:
	xor	eax, eax
	jmp	L392
LVL289:
L398:
	.loc 1 471 0
	call	___stack_chk_fail
LVL290:
	.cfi_endproc
LFE130:
	.p2align 2,,3
	.globl	_purple_value_get_enum
	.def	_purple_value_get_enum;	.scl	2;	.type	32;	.endef
_purple_value_get_enum:
LFB131:
	.loc 1 475 0
	.cfi_startproc
LVL291:
	sub	esp, 44
LCFI142:
	.cfi_def_cfa_offset 48
	mov	eax, DWORD PTR [esp+48]
	.loc 1 475 0
	mov	edx, DWORD PTR ___stack_chk_guard
	mov	DWORD PTR [esp+28], edx
	xor	edx, edx
LBB49:
	.loc 1 476 0
	test	eax, eax
	je	L407
LVL292:
LBE49:
	.loc 1 478 0
	mov	eax, DWORD PTR [eax+8]
LVL293:
L402:
	.loc 1 479 0
	mov	edx, DWORD PTR [esp+28]
	xor	edx, DWORD PTR ___stack_chk_guard
	jne	L408
	add	esp, 44
LCFI143:
	.cfi_remember_state
	.cfi_def_cfa_offset 4
	ret
	.p2align 2,,3
L407:
LCFI144:
	.cfi_restore_state
LVL294:
	.loc 1 476 0
	mov	DWORD PTR [esp+8], OFFSET FLAT:LC1
	mov	DWORD PTR [esp+4], OFFSET FLAT:___PRETTY_FUNCTION__.43534
	mov	DWORD PTR [esp], 0
	call	_g_return_if_fail_warning
LVL295:
	mov	eax, -1
	jmp	L402
LVL296:
L408:
	.loc 1 479 0
	call	___stack_chk_fail
LVL297:
	.cfi_endproc
LFE131:
	.p2align 2,,3
	.globl	_purple_value_get_boxed
	.def	_purple_value_get_boxed;	.scl	2;	.type	32;	.endef
_purple_value_get_boxed:
LFB132:
	.loc 1 483 0
	.cfi_startproc
LVL298:
	sub	esp, 44
LCFI145:
	.cfi_def_cfa_offset 48
	mov	eax, DWORD PTR [esp+48]
	.loc 1 483 0
	mov	edx, DWORD PTR ___stack_chk_guard
	mov	DWORD PTR [esp+28], edx
	xor	edx, edx
LBB50:
	.loc 1 484 0
	test	eax, eax
	je	L417
LVL299:
LBE50:
	.loc 1 486 0
	mov	eax, DWORD PTR [eax+8]
LVL300:
L412:
	.loc 1 487 0
	mov	edx, DWORD PTR [esp+28]
	xor	edx, DWORD PTR ___stack_chk_guard
	jne	L418
	add	esp, 44
LCFI146:
	.cfi_remember_state
	.cfi_def_cfa_offset 4
	ret
	.p2align 2,,3
L417:
LCFI147:
	.cfi_restore_state
LVL301:
	.loc 1 484 0
	mov	DWORD PTR [esp+8], OFFSET FLAT:LC1
	mov	DWORD PTR [esp+4], OFFSET FLAT:___PRETTY_FUNCTION__.43540
	mov	DWORD PTR [esp], 0
	call	_g_return_if_fail_warning
LVL302:
	xor	eax, eax
	jmp	L412
LVL303:
L418:
	.loc 1 487 0
	call	___stack_chk_fail
LVL304:
	.cfi_endproc
LFE132:
	.p2align 2,,3
	.globl	_purple_value_dup
	.def	_purple_value_dup;	.scl	2;	.type	32;	.endef
_purple_value_dup:
LFB96:
	.loc 1 101 0
	.cfi_startproc
LVL305:
	push	edi
LCFI148:
	.cfi_def_cfa_offset 8
	.cfi_offset 7, -8
	push	esi
LCFI149:
	.cfi_def_cfa_offset 12
	.cfi_offset 6, -12
	push	ebx
LCFI150:
	.cfi_def_cfa_offset 16
	.cfi_offset 3, -16
	sub	esp, 32
LCFI151:
	.cfi_def_cfa_offset 48
	mov	esi, DWORD PTR [esp+48]
	.loc 1 101 0
	mov	eax, DWORD PTR ___stack_chk_guard
	mov	DWORD PTR [esp+28], eax
	xor	eax, eax
LBB51:
	.loc 1 105 0
	test	esi, esi
	je	L448
LVL306:
LBE51:
	.loc 1 107 0
	mov	DWORD PTR [esp], esi
	call	_purple_value_get_type
LVL307:
	mov	edi, eax
LVL308:
	.loc 1 109 0
	cmp	eax, 1
	je	L449
	.loc 1 114 0
	cmp	edi, 17
	je	L450
	.loc 1 120 0
	mov	DWORD PTR [esp], edi
	call	_purple_value_new
LVL309:
	mov	ebx, eax
LVL310:
	.loc 1 122 0
	mov	eax, DWORD PTR [esi+4]
LVL311:
	mov	WORD PTR [ebx+4], ax
	.loc 1 124 0
	cmp	edi, 17
	jbe	L451
LVL312:
	.p2align 2,,3
L422:
	.loc 1 195 0
	mov	eax, ebx
	mov	edx, DWORD PTR [esp+28]
	xor	edx, DWORD PTR ___stack_chk_guard
	jne	L452
	add	esp, 32
LCFI152:
	.cfi_remember_state
	.cfi_def_cfa_offset 16
	pop	ebx
LCFI153:
	.cfi_restore 3
	.cfi_def_cfa_offset 12
	pop	esi
LCFI154:
	.cfi_restore 6
	.cfi_def_cfa_offset 8
	pop	edi
LCFI155:
	.cfi_restore 7
	.cfi_def_cfa_offset 4
	ret
LVL313:
	.p2align 2,,3
L451:
LCFI156:
	.cfi_restore_state
	.loc 1 124 0
	jmp	[DWORD PTR L440[0+edi*4]]
	.section .rdata,"dr"
	.align 4
L440:
	.long	L422
	.long	L422
	.long	L425
	.long	L426
	.long	L427
	.long	L428
	.long	L429
	.long	L430
	.long	L431
	.long	L432
	.long	L433
	.long	L434
	.long	L435
	.long	L436
	.long	L437
	.long	L438
	.long	L439
	.long	L424
	.text
LVL314:
	.p2align 2,,3
L450:
	.loc 1 116 0
	mov	DWORD PTR [esp], esi
	call	_purple_value_get_specific_type
LVL315:
	mov	DWORD PTR [esp+4], eax
	mov	DWORD PTR [esp], 17
	call	_purple_value_new
LVL316:
	mov	ebx, eax
LVL317:
	.loc 1 122 0
	mov	eax, DWORD PTR [esi+4]
LVL318:
	mov	WORD PTR [ebx+4], ax
L424:
	.loc 1 187 0
	mov	DWORD PTR [esp], esi
	call	_purple_value_get_boxed
LVL319:
	mov	DWORD PTR [esp+4], eax
	mov	DWORD PTR [esp], ebx
	call	_purple_value_set_boxed
LVL320:
	.loc 1 188 0
	jmp	L422
L439:
	.loc 1 183 0
	mov	DWORD PTR [esp], esi
	call	_purple_value_get_enum
LVL321:
	mov	DWORD PTR [esp+4], eax
	mov	DWORD PTR [esp], ebx
	call	_purple_value_set_enum
LVL322:
	.loc 1 184 0
	jmp	L422
L438:
	.loc 1 179 0
	mov	DWORD PTR [esp], esi
	call	_purple_value_get_pointer
LVL323:
	mov	DWORD PTR [esp+4], eax
	mov	DWORD PTR [esp], ebx
	call	_purple_value_set_pointer
LVL324:
	.loc 1 180 0
	jmp	L422
L437:
	.loc 1 175 0
	mov	DWORD PTR [esp], esi
	call	_purple_value_get_object
LVL325:
	mov	DWORD PTR [esp+4], eax
	mov	DWORD PTR [esp], ebx
	call	_purple_value_set_object
LVL326:
	.loc 1 176 0
	jmp	L422
L436:
	.loc 1 171 0
	mov	DWORD PTR [esp], esi
	call	_purple_value_get_string
LVL327:
	mov	DWORD PTR [esp+4], eax
	mov	DWORD PTR [esp], ebx
	call	_purple_value_set_string
LVL328:
	.loc 1 172 0
	jmp	L422
L435:
	.loc 1 167 0
	mov	DWORD PTR [esp], esi
	call	_purple_value_get_uint64
LVL329:
	mov	DWORD PTR [esp+4], eax
	mov	DWORD PTR [esp+8], edx
	mov	DWORD PTR [esp], ebx
	call	_purple_value_set_uint64
LVL330:
	.loc 1 168 0
	jmp	L422
L434:
	.loc 1 163 0
	mov	DWORD PTR [esp], esi
	call	_purple_value_get_int64
LVL331:
	mov	DWORD PTR [esp+4], eax
	mov	DWORD PTR [esp+8], edx
	mov	DWORD PTR [esp], ebx
	call	_purple_value_set_int64
LVL332:
	.loc 1 164 0
	jmp	L422
L433:
	.loc 1 159 0
	mov	DWORD PTR [esp], esi
	call	_purple_value_get_ulong
LVL333:
	mov	DWORD PTR [esp+4], eax
	mov	DWORD PTR [esp], ebx
	call	_purple_value_set_ulong
LVL334:
	.loc 1 160 0
	jmp	L422
L432:
	.loc 1 155 0
	mov	DWORD PTR [esp], esi
	call	_purple_value_get_long
LVL335:
	mov	DWORD PTR [esp+4], eax
	mov	DWORD PTR [esp], ebx
	call	_purple_value_set_long
LVL336:
	.loc 1 156 0
	jmp	L422
L431:
	.loc 1 151 0
	mov	DWORD PTR [esp], esi
	call	_purple_value_get_uint
LVL337:
	mov	DWORD PTR [esp+4], eax
	mov	DWORD PTR [esp], ebx
	call	_purple_value_set_uint
LVL338:
	.loc 1 152 0
	jmp	L422
L430:
	.loc 1 147 0
	mov	DWORD PTR [esp], esi
	call	_purple_value_get_int
LVL339:
	mov	DWORD PTR [esp+4], eax
	mov	DWORD PTR [esp], ebx
	call	_purple_value_set_int
LVL340:
	.loc 1 148 0
	jmp	L422
L429:
	.loc 1 143 0
	mov	DWORD PTR [esp], esi
	call	_purple_value_get_ushort
LVL341:
	movzx	eax, ax
	mov	DWORD PTR [esp+4], eax
	mov	DWORD PTR [esp], ebx
	call	_purple_value_set_ushort
LVL342:
	.loc 1 144 0
	jmp	L422
L428:
	.loc 1 139 0
	mov	DWORD PTR [esp], esi
	call	_purple_value_get_short
LVL343:
	cwde
	mov	DWORD PTR [esp+4], eax
	mov	DWORD PTR [esp], ebx
	call	_purple_value_set_short
LVL344:
	.loc 1 140 0
	jmp	L422
L427:
	.loc 1 135 0
	mov	DWORD PTR [esp], esi
	call	_purple_value_get_boolean
LVL345:
	mov	DWORD PTR [esp+4], eax
	mov	DWORD PTR [esp], ebx
	call	_purple_value_set_boolean
LVL346:
	.loc 1 136 0
	jmp	L422
L426:
	.loc 1 131 0
	mov	DWORD PTR [esp], esi
	call	_purple_value_get_uchar
LVL347:
	movzx	eax, al
	mov	DWORD PTR [esp+4], eax
	mov	DWORD PTR [esp], ebx
	call	_purple_value_set_uchar
LVL348:
	.loc 1 132 0
	jmp	L422
L425:
	.loc 1 127 0
	mov	DWORD PTR [esp], esi
	call	_purple_value_get_char
LVL349:
	movsx	eax, al
	mov	DWORD PTR [esp+4], eax
	mov	DWORD PTR [esp], ebx
	call	_purple_value_set_char
LVL350:
	.loc 1 128 0
	jmp	L422
LVL351:
	.p2align 2,,3
L448:
	.loc 1 105 0
	mov	DWORD PTR [esp+8], OFFSET FLAT:LC1
	mov	DWORD PTR [esp+4], OFFSET FLAT:___PRETTY_FUNCTION__.43284
	mov	DWORD PTR [esp], 0
	call	_g_return_if_fail_warning
LVL352:
	xor	ebx, ebx
	jmp	L422
LVL353:
	.p2align 2,,3
L449:
	.loc 1 111 0
	mov	DWORD PTR [esp], esi
	call	_purple_value_get_subtype
LVL354:
	mov	DWORD PTR [esp+4], eax
	mov	DWORD PTR [esp], 1
	call	_purple_value_new
LVL355:
	mov	ebx, eax
LVL356:
	.loc 1 122 0
	mov	eax, DWORD PTR [esi+4]
LVL357:
	mov	WORD PTR [ebx+4], ax
	jmp	L422
LVL358:
L452:
	.loc 1 195 0
	call	___stack_chk_fail
LVL359:
	.cfi_endproc
LFE96:
	.section .rdata,"dr"
___PRETTY_FUNCTION__.43262:
	.ascii "purple_value_new\0"
___PRETTY_FUNCTION__.43270:
	.ascii "purple_value_new_outgoing\0"
___PRETTY_FUNCTION__.43276:
	.ascii "purple_value_destroy\0"
___PRETTY_FUNCTION__.43284:
	.ascii "purple_value_dup\0"
___PRETTY_FUNCTION__.43308:
	.ascii "purple_value_get_type\0"
___PRETTY_FUNCTION__.43314:
	.ascii "purple_value_get_subtype\0"
	.align 4
___PRETTY_FUNCTION__.43322:
	.ascii "purple_value_get_specific_type\0"
___PRETTY_FUNCTION__.43330:
	.ascii "purple_value_is_outgoing\0"
___PRETTY_FUNCTION__.43337:
	.ascii "purple_value_set_char\0"
___PRETTY_FUNCTION__.43344:
	.ascii "purple_value_set_uchar\0"
___PRETTY_FUNCTION__.43351:
	.ascii "purple_value_set_boolean\0"
___PRETTY_FUNCTION__.43358:
	.ascii "purple_value_set_short\0"
___PRETTY_FUNCTION__.43365:
	.ascii "purple_value_set_ushort\0"
___PRETTY_FUNCTION__.43372:
	.ascii "purple_value_set_int\0"
___PRETTY_FUNCTION__.43379:
	.ascii "purple_value_set_uint\0"
___PRETTY_FUNCTION__.43386:
	.ascii "purple_value_set_long\0"
___PRETTY_FUNCTION__.43393:
	.ascii "purple_value_set_ulong\0"
___PRETTY_FUNCTION__.43400:
	.ascii "purple_value_set_int64\0"
___PRETTY_FUNCTION__.43407:
	.ascii "purple_value_set_uint64\0"
___PRETTY_FUNCTION__.43414:
	.ascii "purple_value_set_string\0"
___PRETTY_FUNCTION__.43423:
	.ascii "purple_value_set_object\0"
___PRETTY_FUNCTION__.43430:
	.ascii "purple_value_set_pointer\0"
___PRETTY_FUNCTION__.43437:
	.ascii "purple_value_set_enum\0"
___PRETTY_FUNCTION__.43444:
	.ascii "purple_value_set_boxed\0"
___PRETTY_FUNCTION__.43450:
	.ascii "purple_value_get_char\0"
___PRETTY_FUNCTION__.43456:
	.ascii "purple_value_get_uchar\0"
___PRETTY_FUNCTION__.43462:
	.ascii "purple_value_get_boolean\0"
___PRETTY_FUNCTION__.43468:
	.ascii "purple_value_get_short\0"
___PRETTY_FUNCTION__.43474:
	.ascii "purple_value_get_ushort\0"
___PRETTY_FUNCTION__.43480:
	.ascii "purple_value_get_int\0"
___PRETTY_FUNCTION__.43486:
	.ascii "purple_value_get_uint\0"
___PRETTY_FUNCTION__.43492:
	.ascii "purple_value_get_long\0"
___PRETTY_FUNCTION__.43498:
	.ascii "purple_value_get_ulong\0"
___PRETTY_FUNCTION__.43504:
	.ascii "purple_value_get_int64\0"
___PRETTY_FUNCTION__.43510:
	.ascii "purple_value_get_uint64\0"
___PRETTY_FUNCTION__.43516:
	.ascii "purple_value_get_string\0"
___PRETTY_FUNCTION__.43522:
	.ascii "purple_value_get_object\0"
___PRETTY_FUNCTION__.43528:
	.ascii "purple_value_get_pointer\0"
___PRETTY_FUNCTION__.43534:
	.ascii "purple_value_get_enum\0"
___PRETTY_FUNCTION__.43540:
	.ascii "purple_value_get_boxed\0"
	.text
Letext0:
	.file 2 "c:/workspace/pidgin-devel/win32-dev/mingw-4.7.2/bin/../lib/gcc/mingw32/4.7.2/../../../../include/stdio.h"
	.file 3 "c:/workspace/pidgin-devel/win32-dev/mingw-4.7.2/bin/../lib/gcc/mingw32/4.7.2/include/stdarg.h"
	.file 4 "../../win32-dev/gtk_2_0-2.14/lib/glib-2.0/include/glibconfig.h"
	.file 5 "../../win32-dev/gtk_2_0-2.14/include/glib-2.0/glib/gtypes.h"
	.file 6 "value.h"
	.file 7 "c:/workspace/pidgin-devel/win32-dev/mingw-4.7.2/bin/../lib/gcc/mingw32/4.7.2/../../../../include/ctype.h"
	.file 8 "../../win32-dev/gtk_2_0-2.14/include/glib-2.0/glib/gmem.h"
	.file 9 "../../win32-dev/gtk_2_0-2.14/include/glib-2.0/glib/gstrfuncs.h"
	.file 10 "../../win32-dev/gtk_2_0-2.14/include/glib-2.0/glib/gmessages.h"
	.file 11 "../../win32-dev/gtk_2_0-2.14/include/glib-2.0/glib/gunicode.h"