	.file	"xmlnode.c"
	.intel_syntax noprefix
	.text
Ltext0:
	.p2align 2,,3
	.def	_new_node;	.scl	3;	.type	32;	.endef
_new_node:
LFB93:
	.file 1 "xmlnode.c"
	.loc 1 51 0
	.cfi_startproc
LVL0:
	push	edi
LCFI0:
	.cfi_def_cfa_offset 8
	.cfi_offset 7, -8
	push	esi
LCFI1:
	.cfi_def_cfa_offset 12
	.cfi_offset 6, -12
	push	ebx
LCFI2:
	.cfi_def_cfa_offset 16
	.cfi_offset 3, -16
	sub	esp, 32
LCFI3:
	.cfi_def_cfa_offset 48
	mov	esi, eax
	mov	edi, edx
	.loc 1 51 0
	mov	eax, DWORD PTR ___stack_chk_guard
	mov	DWORD PTR [esp+28], eax
	xor	eax, eax
LVL1:
	.loc 1 52 0
	mov	DWORD PTR [esp], 44
	call	_g_malloc0
LVL2:
	mov	ebx, eax
LVL3:
	.loc 1 54 0
	mov	DWORD PTR [esp], esi
	call	_g_strdup
LVL4:
	mov	DWORD PTR [ebx], eax
	.loc 1 55 0
	mov	DWORD PTR [ebx+8], edi
	.loc 1 60 0
	mov	edx, DWORD PTR [esp+28]
	xor	edx, DWORD PTR ___stack_chk_guard
	jne	L5
	mov	eax, ebx
	add	esp, 32
LCFI4:
	.cfi_remember_state
	.cfi_def_cfa_offset 16
	pop	ebx
LCFI5:
	.cfi_restore 3
	.cfi_def_cfa_offset 12
LVL5:
	pop	esi
LCFI6:
	.cfi_restore 6
	.cfi_def_cfa_offset 8
LVL6:
	pop	edi
LCFI7:
	.cfi_restore 7
	.cfi_def_cfa_offset 4
LVL7:
	ret
LVL8:
L5:
LCFI8:
	.cfi_restore_state
	call	___stack_chk_fail
LVL9:
	.cfi_endproc
LFE93:
	.p2align 2,,3
	.def	_xmlnode_copy_foreach_ns;	.scl	3;	.type	32;	.endef
_xmlnode_copy_foreach_ns:
LFB127:
	.loc 1 809 0
	.cfi_startproc
LVL10:
	push	edi
LCFI9:
	.cfi_def_cfa_offset 8
	.cfi_offset 7, -8
	push	esi
LCFI10:
	.cfi_def_cfa_offset 12
	.cfi_offset 6, -12
	push	ebx
LCFI11:
	.cfi_def_cfa_offset 16
	.cfi_offset 3, -16
	sub	esp, 32
LCFI12:
	.cfi_def_cfa_offset 48
	mov	ebx, DWORD PTR [esp+48]
	mov	esi, DWORD PTR [esp+56]
	.loc 1 809 0
	mov	eax, DWORD PTR ___stack_chk_guard
	mov	DWORD PTR [esp+28], eax
	xor	eax, eax
LVL11:
	.loc 1 811 0
	mov	eax, DWORD PTR [esp+52]
	mov	DWORD PTR [esp], eax
	call	_g_strdup
LVL12:
	mov	edi, eax
	mov	DWORD PTR [esp], ebx
	call	_g_strdup
LVL13:
	mov	edx, DWORD PTR [esp+28]
	xor	edx, DWORD PTR ___stack_chk_guard
	jne	L10
	mov	DWORD PTR [esp+56], edi
	mov	DWORD PTR [esp+52], eax
	mov	DWORD PTR [esp+48], esi
	.loc 1 812 0
	add	esp, 32
LCFI13:
	.cfi_remember_state
	.cfi_def_cfa_offset 16
	pop	ebx
LCFI14:
	.cfi_restore 3
	.cfi_def_cfa_offset 12
	pop	esi
LCFI15:
	.cfi_restore 6
	.cfi_def_cfa_offset 8
LVL14:
	pop	edi
LCFI16:
	.cfi_restore 7
	.cfi_def_cfa_offset 4
	.loc 1 811 0
	jmp	_g_hash_table_insert
LVL15:
L10:
LCFI17:
	.cfi_restore_state
	call	___stack_chk_fail
LVL16:
	.cfi_endproc
LFE127:
	.section .rdata,"dr"
LC0:
	.ascii "(null)\12\0"
	.align 4
LC1:
	.ascii "XML parser error for xmlnode %p: Domain %i, code %i, level %i: %s\0"
LC2:
	.ascii "xmlnode\0"
	.align 4
LC3:
	.ascii "XML parser error for xmlnode %p\12\0"
	.text
	.p2align 2,,3
	.def	_xmlnode_parser_structural_error_libxml;	.scl	3;	.type	32;	.endef
_xmlnode_parser_structural_error_libxml:
LFB124:
	.loc 1 650 0
	.cfi_startproc
LVL17:
	push	ebx
LCFI18:
	.cfi_def_cfa_offset 8
	.cfi_offset 3, -8
	sub	esp, 56
LCFI19:
	.cfi_def_cfa_offset 64
	mov	ecx, DWORD PTR [esp+64]
	mov	eax, DWORD PTR [esp+68]
	.loc 1 650 0
	mov	edx, DWORD PTR ___stack_chk_guard
	mov	DWORD PTR [esp+44], edx
	xor	edx, edx
LVL18:
	.loc 1 653 0
	test	eax, eax
	je	L12
	.loc 1 653 0 is_stmt 0 discriminator 1
	mov	edx, DWORD PTR [eax+12]
	lea	ebx, [edx-2]
	cmp	ebx, 1
	jbe	L19
	.loc 1 664 0 is_stmt 1
	mov	ebx, DWORD PTR [eax+8]
	.loc 1 661 0
	test	ebx, ebx
	je	L20
L16:
	mov	DWORD PTR [esp+24], ebx
	mov	DWORD PTR [esp+20], edx
	mov	edx, DWORD PTR [eax+4]
	mov	DWORD PTR [esp+16], edx
	mov	eax, DWORD PTR [eax]
	mov	DWORD PTR [esp+12], eax
	mov	DWORD PTR [esp+8], ecx
	mov	DWORD PTR [esp+4], OFFSET FLAT:LC1
	mov	DWORD PTR [esp], OFFSET FLAT:LC2
	call	_purple_debug_warning
LVL19:
L11:
	.loc 1 668 0
	mov	eax, DWORD PTR [esp+44]
	xor	eax, DWORD PTR ___stack_chk_guard
	jne	L21
	add	esp, 56
LCFI20:
	.cfi_remember_state
	.cfi_def_cfa_offset 8
	pop	ebx
LCFI21:
	.cfi_restore 3
	.cfi_def_cfa_offset 4
	ret
LVL20:
	.p2align 2,,3
L19:
LCFI22:
	.cfi_restore_state
	.loc 1 655 0
	mov	DWORD PTR [ecx+4], 1
	.loc 1 659 0
	mov	ebx, DWORD PTR [eax+8]
	.loc 1 656 0
	test	ebx, ebx
	je	L22
L14:
	.loc 1 656 0 is_stmt 0 discriminator 3
	mov	DWORD PTR [esp+24], ebx
	mov	DWORD PTR [esp+20], edx
	mov	edx, DWORD PTR [eax+4]
	mov	DWORD PTR [esp+16], edx
	mov	eax, DWORD PTR [eax]
	mov	DWORD PTR [esp+12], eax
	mov	DWORD PTR [esp+8], ecx
	mov	DWORD PTR [esp+4], OFFSET FLAT:LC1
	mov	DWORD PTR [esp], OFFSET FLAT:LC2
	call	_purple_debug_error
LVL21:
	jmp	L11
LVL22:
	.p2align 2,,3
L20:
	.loc 1 661 0 is_stmt 1
	mov	ebx, OFFSET FLAT:LC0
	jmp	L16
	.p2align 2,,3
L12:
	.loc 1 666 0
	mov	DWORD PTR [esp+8], ecx
	mov	DWORD PTR [esp+4], OFFSET FLAT:LC3
	mov	DWORD PTR [esp], OFFSET FLAT:LC2
	call	_purple_debug_warning
LVL23:
	jmp	L11
LVL24:
	.p2align 2,,3
L22:
	.loc 1 656 0
	mov	ebx, OFFSET FLAT:LC0
	jmp	L14
LVL25:
L21:
	.loc 1 668 0
	call	___stack_chk_fail
LVL26:
	.cfi_endproc
LFE124:
	.p2align 2,,3
	.def	_xmlnode_parser_element_end_libxml;	.scl	3;	.type	32;	.endef
_xmlnode_parser_element_end_libxml:
LFB121:
	.loc 1 606 0
	.cfi_startproc
LVL27:
	push	ebx
LCFI23:
	.cfi_def_cfa_offset 8
	.cfi_offset 3, -8
	sub	esp, 40
LCFI24:
	.cfi_def_cfa_offset 48
	mov	ebx, DWORD PTR [esp+48]
	mov	edx, DWORD PTR [esp+52]
	.loc 1 606 0
	mov	eax, DWORD PTR ___stack_chk_guard
	mov	DWORD PTR [esp+28], eax
	xor	eax, eax
LVL28:
	.loc 1 609 0
	test	edx, edx
	je	L23
	.loc 1 609 0 is_stmt 0 discriminator 1
	mov	eax, DWORD PTR [ebx]
	test	eax, eax
	je	L23
	mov	ecx, DWORD PTR [ebx+4]
	test	ecx, ecx
	jne	L23
	.loc 1 612 0 is_stmt 1
	mov	ecx, DWORD PTR [eax+20]
	test	ecx, ecx
	je	L23
	.loc 1 613 0
	mov	DWORD PTR [esp+4], edx
	mov	eax, DWORD PTR [eax]
	mov	DWORD PTR [esp], eax
	call	_xmlStrcmp
LVL29:
	test	eax, eax
	jne	L23
	.loc 1 614 0
	mov	eax, DWORD PTR [ebx]
	mov	eax, DWORD PTR [eax+20]
	mov	DWORD PTR [ebx], eax
L23:
	.loc 1 616 0
	mov	eax, DWORD PTR [esp+28]
	xor	eax, DWORD PTR ___stack_chk_guard
	jne	L32
	add	esp, 40
LCFI25:
	.cfi_remember_state
	.cfi_def_cfa_offset 8
	pop	ebx
LCFI26:
	.cfi_restore 3
	.cfi_def_cfa_offset 4
LVL30:
	ret
LVL31:
L32:
LCFI27:
	.cfi_restore_state
	call	___stack_chk_fail
LVL32:
	.cfi_endproc
LFE121:
	.section .rdata,"dr"
LC4:
	.ascii "Error parsing xml file: %s\0"
	.text
	.p2align 2,,3
	.def	_xmlnode_parser_error_libxml;	.scl	3;	.type	32;	.endef
_xmlnode_parser_error_libxml:
LFB123:
	.loc 1 634 0
	.cfi_startproc
LVL33:
	push	ebx
LCFI28:
	.cfi_def_cfa_offset 8
	.cfi_offset 3, -8
	sub	esp, 2088
LCFI29:
	.cfi_def_cfa_offset 2096
	.loc 1 634 0
	mov	eax, DWORD PTR ___stack_chk_guard
	mov	DWORD PTR [esp+2076], eax
	xor	eax, eax
LVL34:
	.loc 1 639 0
	mov	eax, DWORD PTR [esp+2096]
	mov	DWORD PTR [eax+4], 1
	.loc 1 641 0
	lea	eax, [esp+2104]
LVL35:
	.loc 1 642 0
	mov	DWORD PTR [esp+12], eax
	mov	eax, DWORD PTR [esp+2100]
LVL36:
	mov	DWORD PTR [esp+8], eax
	mov	DWORD PTR [esp+4], 2048
	lea	ebx, [esp+28]
	mov	DWORD PTR [esp], ebx
	call	__vsnprintf
LVL37:
	.loc 1 645 0
	mov	DWORD PTR [esp+8], ebx
	mov	DWORD PTR [esp+4], OFFSET FLAT:LC4
	mov	DWORD PTR [esp], OFFSET FLAT:LC2
	call	_purple_debug_error
LVL38:
	.loc 1 646 0
	mov	eax, DWORD PTR [esp+2076]
	xor	eax, DWORD PTR ___stack_chk_guard
	jne	L36
	add	esp, 2088
LCFI30:
	.cfi_remember_state
	.cfi_def_cfa_offset 8
	pop	ebx
LCFI31:
	.cfi_restore 3
	.cfi_def_cfa_offset 4
	ret
L36:
LCFI32:
	.cfi_restore_state
	call	___stack_chk_fail
LVL39:
	.cfi_endproc
LFE123:
	.section .rdata,"dr"
LC5:
	.ascii " xmlns:%s='%s'\0"
LC6:
	.ascii " xmlns='%s'\0"
	.text
	.p2align 2,,3
	.def	_xmlnode_to_str_foreach_append_ns;	.scl	3;	.type	32;	.endef
_xmlnode_to_str_foreach_append_ns:
LFB116:
	.loc 1 422 0
	.cfi_startproc
LVL40:
	push	ebx
LCFI33:
	.cfi_def_cfa_offset 8
	.cfi_offset 3, -8
	sub	esp, 40
LCFI34:
	.cfi_def_cfa_offset 48
	mov	eax, DWORD PTR [esp+48]
	mov	ecx, DWORD PTR [esp+52]
	mov	edx, DWORD PTR [esp+56]
	.loc 1 422 0
	mov	ebx, DWORD PTR ___stack_chk_guard
	mov	DWORD PTR [esp+28], ebx
	xor	ebx, ebx
	.loc 1 423 0
	cmp	BYTE PTR [eax], 0
	jne	L44
	.loc 1 426 0
	mov	ebx, DWORD PTR [esp+28]
	xor	ebx, DWORD PTR ___stack_chk_guard
	jne	L42
	mov	DWORD PTR [esp+56], ecx
	mov	DWORD PTR [esp+52], OFFSET FLAT:LC6
	mov	DWORD PTR [esp+48], edx
	.loc 1 428 0
	add	esp, 40
LCFI35:
	.cfi_remember_state
	.cfi_def_cfa_offset 8
	pop	ebx
LCFI36:
	.cfi_restore 3
	.cfi_def_cfa_offset 4
	.loc 1 426 0
	jmp	_g_string_append_printf
LVL41:
	.p2align 2,,3
L44:
LCFI37:
	.cfi_restore_state
	.loc 1 424 0
	mov	DWORD PTR [esp+12], ecx
	mov	DWORD PTR [esp+8], eax
	mov	DWORD PTR [esp+4], OFFSET FLAT:LC5
	mov	DWORD PTR [esp], edx
	call	_g_string_append_printf
LVL42:
	.loc 1 428 0
	mov	eax, DWORD PTR [esp+28]
	xor	eax, DWORD PTR ___stack_chk_guard
	jne	L42
	add	esp, 40
LCFI38:
	.cfi_remember_state
	.cfi_def_cfa_offset 8
	pop	ebx
LCFI39:
	.cfi_restore 3
	.cfi_def_cfa_offset 4
	ret
L42:
LCFI40:
	.cfi_restore_state
	call	___stack_chk_fail
LVL43:
	.cfi_endproc
LFE116:
	.section .rdata,"dr"
LC7:
	.ascii "name != NULL && *name != '\\0'\0"
	.text
	.p2align 2,,3
	.globl	_xmlnode_new
	.def	_xmlnode_new;	.scl	2;	.type	32;	.endef
_xmlnode_new:
LFB94:
	.loc 1 64 0
	.cfi_startproc
LVL44:
	sub	esp, 44
LCFI41:
	.cfi_def_cfa_offset 48
	mov	eax, DWORD PTR [esp+48]
	.loc 1 64 0
	mov	edx, DWORD PTR ___stack_chk_guard
	mov	DWORD PTR [esp+28], edx
	xor	edx, edx
LBB8:
	.loc 1 65 0
	test	eax, eax
	je	L46
	.loc 1 65 0 is_stmt 0 discriminator 1
	cmp	BYTE PTR [eax], 0
	je	L46
LVL45:
LBE8:
	.loc 1 67 0 is_stmt 1
	mov	edx, DWORD PTR [esp+28]
	xor	edx, DWORD PTR ___stack_chk_guard
	jne	L55
	xor	edx, edx
	.loc 1 68 0
	add	esp, 44
LCFI42:
	.cfi_remember_state
	.cfi_def_cfa_offset 4
	.loc 1 67 0
	jmp	_new_node
LVL46:
	.p2align 2,,3
L46:
LCFI43:
	.cfi_restore_state
	.loc 1 65 0
	mov	DWORD PTR [esp+8], OFFSET FLAT:LC7
	mov	DWORD PTR [esp+4], OFFSET FLAT:___PRETTY_FUNCTION__.47474
	mov	DWORD PTR [esp], 0
	call	_g_return_if_fail_warning
LVL47:
	.loc 1 68 0
	xor	eax, eax
	mov	edx, DWORD PTR [esp+28]
	xor	edx, DWORD PTR ___stack_chk_guard
	jne	L55
	add	esp, 44
LCFI44:
	.cfi_remember_state
	.cfi_def_cfa_offset 4
	ret
LVL48:
L55:
LCFI45:
	.cfi_restore_state
	call	___stack_chk_fail
LVL49:
	.cfi_endproc
LFE94:
	.section .rdata,"dr"
LC8:
	.ascii "parent != NULL\0"
LC9:
	.ascii "child != NULL\0"
	.text
	.p2align 2,,3
	.globl	_xmlnode_insert_child
	.def	_xmlnode_insert_child;	.scl	2;	.type	32;	.endef
_xmlnode_insert_child:
LFB96:
	.loc 1 87 0
	.cfi_startproc
LVL50:
	sub	esp, 44
LCFI46:
	.cfi_def_cfa_offset 48
	mov	eax, DWORD PTR [esp+48]
	mov	edx, DWORD PTR [esp+52]
	.loc 1 87 0
	mov	ecx, DWORD PTR ___stack_chk_guard
	mov	DWORD PTR [esp+28], ecx
	xor	ecx, ecx
LBB15:
	.loc 1 88 0
	test	eax, eax
	je	L68
LVL51:
LBE15:
LBB16:
	.loc 1 89 0
	test	edx, edx
	je	L69
LVL52:
LBE16:
	.loc 1 91 0
	mov	DWORD PTR [edx+20], eax
	.loc 1 93 0
	mov	ecx, DWORD PTR [eax+28]
	test	ecx, ecx
	je	L70
	.loc 1 94 0
	mov	DWORD PTR [ecx+32], edx
L59:
	.loc 1 99 0
	mov	DWORD PTR [eax+28], edx
LVL53:
L56:
	.loc 1 100 0
	mov	eax, DWORD PTR [esp+28]
	xor	eax, DWORD PTR ___stack_chk_guard
	jne	L71
	add	esp, 44
LCFI47:
	.cfi_remember_state
	.cfi_def_cfa_offset 4
	ret
	.p2align 2,,3
L68:
LCFI48:
	.cfi_restore_state
LVL54:
	.loc 1 88 0
	mov	DWORD PTR [esp+8], OFFSET FLAT:LC8
	mov	DWORD PTR [esp+4], OFFSET FLAT:___PRETTY_FUNCTION__.47491
	mov	DWORD PTR [esp], 0
	call	_g_return_if_fail_warning
LVL55:
	jmp	L56
LVL56:
	.p2align 2,,3
L69:
LBB17:
LBB18:
	.loc 1 89 0
	mov	DWORD PTR [esp+8], OFFSET FLAT:LC9
	mov	DWORD PTR [esp+4], OFFSET FLAT:___PRETTY_FUNCTION__.47491
	mov	DWORD PTR [esp], 0
	call	_g_return_if_fail_warning
LVL57:
	jmp	L56
LVL58:
	.p2align 2,,3
L70:
LBE18:
LBE17:
	.loc 1 96 0
	mov	DWORD PTR [eax+24], edx
	jmp	L59
LVL59:
L71:
	.loc 1 100 0
	call	___stack_chk_fail
LVL60:
	.cfi_endproc
LFE96:
	.p2align 2,,3
	.globl	_xmlnode_new_child
	.def	_xmlnode_new_child;	.scl	2;	.type	32;	.endef
_xmlnode_new_child:
LFB95:
	.loc 1 72 0
	.cfi_startproc
LVL61:
	push	ebx
LCFI49:
	.cfi_def_cfa_offset 8
	.cfi_offset 3, -8
	sub	esp, 56
LCFI50:
	.cfi_def_cfa_offset 64
	mov	ebx, DWORD PTR [esp+64]
	mov	eax, DWORD PTR [esp+68]
	.loc 1 72 0
	mov	edx, DWORD PTR ___stack_chk_guard
	mov	DWORD PTR [esp+44], edx
	xor	edx, edx
LBB19:
	.loc 1 75 0
	test	ebx, ebx
	je	L83
LVL62:
LBE19:
LBB20:
	.loc 1 76 0
	test	eax, eax
	je	L76
	.loc 1 76 0 is_stmt 0 discriminator 1
	cmp	BYTE PTR [eax], 0
	jne	L75
L76:
LVL63:
LBE20:
	.loc 1 76 0
	mov	DWORD PTR [esp+8], OFFSET FLAT:LC7
	mov	DWORD PTR [esp+4], OFFSET FLAT:___PRETTY_FUNCTION__.47482
	mov	DWORD PTR [esp], 0
	call	_g_return_if_fail_warning
LVL64:
	xor	eax, eax
LVL65:
L77:
	.loc 1 83 0 is_stmt 1
	mov	edx, DWORD PTR [esp+44]
	xor	edx, DWORD PTR ___stack_chk_guard
	jne	L84
	add	esp, 56
LCFI51:
	.cfi_remember_state
	.cfi_def_cfa_offset 8
	pop	ebx
LCFI52:
	.cfi_restore 3
	.cfi_def_cfa_offset 4
	ret
LVL66:
	.p2align 2,,3
L75:
LCFI53:
	.cfi_restore_state
	.loc 1 78 0
	xor	edx, edx
	call	_new_node
LVL67:
	.loc 1 80 0
	mov	DWORD PTR [esp+4], eax
	mov	DWORD PTR [esp], ebx
	mov	DWORD PTR [esp+28], eax
	call	_xmlnode_insert_child
LVL68:
	.loc 1 82 0
	mov	eax, DWORD PTR [esp+28]
	jmp	L77
LVL69:
	.p2align 2,,3
L83:
	.loc 1 75 0
	mov	DWORD PTR [esp+8], OFFSET FLAT:LC8
	mov	DWORD PTR [esp+4], OFFSET FLAT:___PRETTY_FUNCTION__.47482
	mov	DWORD PTR [esp], 0
	call	_g_return_if_fail_warning
LVL70:
	xor	eax, eax
	jmp	L77
LVL71:
L84:
	.loc 1 83 0
	call	___stack_chk_fail
LVL72:
	.cfi_endproc
LFE95:
	.section .rdata,"dr"
LC10:
	.ascii "node != NULL\0"
LC11:
	.ascii "data != NULL\0"
LC12:
	.ascii "size != 0\0"
	.text
	.p2align 2,,3
	.globl	_xmlnode_insert_data
	.def	_xmlnode_insert_data;	.scl	2;	.type	32;	.endef
_xmlnode_insert_data:
LFB97:
	.loc 1 104 0
	.cfi_startproc
LVL73:
	push	ebp
LCFI54:
	.cfi_def_cfa_offset 8
	.cfi_offset 5, -8
	push	edi
LCFI55:
	.cfi_def_cfa_offset 12
	.cfi_offset 7, -12
	push	esi
LCFI56:
	.cfi_def_cfa_offset 16
	.cfi_offset 6, -16
	push	ebx
LCFI57:
	.cfi_def_cfa_offset 20
	.cfi_offset 3, -20
	sub	esp, 44
LCFI58:
	.cfi_def_cfa_offset 64
	mov	ebp, DWORD PTR [esp+64]
	mov	esi, DWORD PTR [esp+68]
	mov	ecx, DWORD PTR [esp+72]
	.loc 1 104 0
	mov	eax, DWORD PTR ___stack_chk_guard
	mov	DWORD PTR [esp+28], eax
	xor	eax, eax
LBB21:
	.loc 1 108 0
	test	ebp, ebp
	je	L103
LVL74:
LBE21:
LBB22:
	.loc 1 109 0
	test	esi, esi
	je	L104
LVL75:
LBE22:
LBB23:
	.loc 1 110 0
	test	ecx, ecx
	je	L93
LVL76:
LBE23:
	.loc 1 112 0
	cmp	ecx, -1
	je	L105
	.loc 1 112 0 is_stmt 0 discriminator 2
	mov	edi, ecx
LVL77:
L88:
	.loc 1 114 0 is_stmt 1 discriminator 3
	mov	edx, 2
	xor	eax, eax
	call	_new_node
LVL78:
	mov	ebx, eax
LVL79:
	.loc 1 116 0 discriminator 3
	mov	DWORD PTR [esp+4], edi
	mov	DWORD PTR [esp], esi
	call	_g_memdup
LVL80:
	mov	DWORD PTR [ebx+12], eax
	.loc 1 117 0 discriminator 3
	mov	DWORD PTR [ebx+16], edi
	.loc 1 119 0 discriminator 3
	mov	eax, DWORD PTR [esp+28]
	xor	eax, DWORD PTR ___stack_chk_guard
	jne	L102
	mov	DWORD PTR [esp+68], ebx
	mov	DWORD PTR [esp+64], ebp
	.loc 1 120 0 discriminator 3
	add	esp, 44
LCFI59:
	.cfi_remember_state
	.cfi_def_cfa_offset 20
	pop	ebx
LCFI60:
	.cfi_restore 3
	.cfi_def_cfa_offset 16
LVL81:
	pop	esi
LCFI61:
	.cfi_restore 6
	.cfi_def_cfa_offset 12
	pop	edi
LCFI62:
	.cfi_restore 7
	.cfi_def_cfa_offset 8
LVL82:
	pop	ebp
LCFI63:
	.cfi_restore 5
	.cfi_def_cfa_offset 4
	.loc 1 119 0 discriminator 3
	jmp	_xmlnode_insert_child
LVL83:
	.p2align 2,,3
L93:
LCFI64:
	.cfi_restore_state
	.loc 1 110 0
	mov	eax, DWORD PTR [esp+28]
	xor	eax, DWORD PTR ___stack_chk_guard
	jne	L102
	mov	DWORD PTR [esp+72], OFFSET FLAT:LC12
LVL84:
L101:
	mov	DWORD PTR [esp+68], OFFSET FLAT:___PRETTY_FUNCTION__.47503
	mov	DWORD PTR [esp+64], 0
	.loc 1 120 0
	add	esp, 44
LCFI65:
	.cfi_remember_state
	.cfi_def_cfa_offset 20
	pop	ebx
LCFI66:
	.cfi_restore 3
	.cfi_def_cfa_offset 16
	pop	esi
LCFI67:
	.cfi_restore 6
	.cfi_def_cfa_offset 12
	pop	edi
LCFI68:
	.cfi_restore 7
	.cfi_def_cfa_offset 8
	pop	ebp
LCFI69:
	.cfi_restore 5
	.cfi_def_cfa_offset 4
	.loc 1 110 0
	jmp	_g_return_if_fail_warning
LVL85:
	.p2align 2,,3
L105:
LCFI70:
	.cfi_restore_state
	.loc 1 112 0 discriminator 1
	xor	eax, eax
	mov	edi, esi
	repne scasb
LVL86:
	not	ecx
	lea	edi, [ecx-1]
	jmp	L88
LVL87:
	.p2align 2,,3
L103:
	.loc 1 108 0
	mov	eax, DWORD PTR [esp+28]
	xor	eax, DWORD PTR ___stack_chk_guard
	jne	L102
	mov	DWORD PTR [esp+72], OFFSET FLAT:LC10
	jmp	L101
LVL88:
	.p2align 2,,3
L104:
	.loc 1 109 0
	mov	eax, DWORD PTR [esp+28]
	xor	eax, DWORD PTR ___stack_chk_guard
	jne	L102
	mov	DWORD PTR [esp+72], OFFSET FLAT:LC11
	jmp	L101
LVL89:
L102:
	.loc 1 110 0
	call	___stack_chk_fail
LVL90:
	.cfi_endproc
LFE97:
	.p2align 2,,3
	.def	_xmlnode_parser_element_text_libxml;	.scl	3;	.type	32;	.endef
_xmlnode_parser_element_text_libxml:
LFB122:
	.loc 1 620 0
	.cfi_startproc
LVL91:
	push	ebx
LCFI71:
	.cfi_def_cfa_offset 8
	.cfi_offset 3, -8
	sub	esp, 24
LCFI72:
	.cfi_def_cfa_offset 32
	mov	eax, DWORD PTR [esp+32]
	mov	ecx, DWORD PTR [esp+36]
	mov	ebx, DWORD PTR [esp+40]
	.loc 1 620 0
	mov	edx, DWORD PTR ___stack_chk_guard
	mov	DWORD PTR [esp+12], edx
	xor	edx, edx
LVL92:
	.loc 1 623 0
	mov	edx, DWORD PTR [eax]
	test	edx, edx
	je	L106
	.loc 1 623 0 is_stmt 0 discriminator 1
	mov	eax, DWORD PTR [eax+4]
LVL93:
	test	eax, eax
	jne	L106
	.loc 1 626 0 is_stmt 1
	test	ecx, ecx
	je	L106
	.loc 1 626 0 is_stmt 0 discriminator 1
	test	ebx, ebx
	jne	L121
L106:
	.loc 1 630 0 is_stmt 1
	mov	edx, DWORD PTR [esp+12]
	xor	edx, DWORD PTR ___stack_chk_guard
	jne	L120
	add	esp, 24
LCFI73:
	.cfi_remember_state
	.cfi_def_cfa_offset 8
	pop	ebx
LCFI74:
	.cfi_restore 3
	.cfi_def_cfa_offset 4
	ret
	.p2align 2,,3
L121:
LCFI75:
	.cfi_restore_state
	.loc 1 629 0
	mov	eax, DWORD PTR [esp+12]
	xor	eax, DWORD PTR ___stack_chk_guard
	jne	L120
	mov	DWORD PTR [esp+40], ebx
	mov	DWORD PTR [esp+36], ecx
	mov	DWORD PTR [esp+32], edx
	.loc 1 630 0
	add	esp, 24
LCFI76:
	.cfi_remember_state
	.cfi_def_cfa_offset 8
	pop	ebx
LCFI77:
	.cfi_restore 3
	.cfi_def_cfa_offset 4
	.loc 1 629 0
	jmp	_xmlnode_insert_data
LVL94:
L120:
LCFI78:
	.cfi_restore_state
	.loc 1 630 0
	call	___stack_chk_fail
LVL95:
	.cfi_endproc
LFE122:
	.section .rdata,"dr"
LC13:
	.ascii "attr != NULL\0"
	.text
	.p2align 2,,3
	.globl	_xmlnode_get_attrib
	.def	_xmlnode_get_attrib;	.scl	2;	.type	32;	.endef
_xmlnode_get_attrib:
LFB104:
	.loc 1 227 0
	.cfi_startproc
LVL96:
	push	esi
LCFI79:
	.cfi_def_cfa_offset 8
	.cfi_offset 6, -8
	push	ebx
LCFI80:
	.cfi_def_cfa_offset 12
	.cfi_offset 3, -12
	sub	esp, 36
LCFI81:
	.cfi_def_cfa_offset 48
	mov	eax, DWORD PTR [esp+48]
	mov	esi, DWORD PTR [esp+52]
	.loc 1 227 0
	mov	edx, DWORD PTR ___stack_chk_guard
	mov	DWORD PTR [esp+28], edx
	xor	edx, edx
LBB24:
	.loc 1 230 0
	test	eax, eax
	je	L140
LVL97:
LBE24:
LBB25:
	.loc 1 231 0
	test	esi, esi
	je	L141
LVL98:
LBE25:
	.loc 1 233 0
	mov	ebx, DWORD PTR [eax+24]
LVL99:
	test	ebx, ebx
	jne	L134
	jmp	L130
	.p2align 2,,3
L125:
	mov	ebx, DWORD PTR [ebx+32]
LVL100:
	test	ebx, ebx
	je	L130
L134:
	.loc 1 234 0
	cmp	DWORD PTR [ebx+8], 1
	jne	L125
	.loc 1 234 0 is_stmt 0 discriminator 1
	mov	eax, DWORD PTR [ebx]
	mov	DWORD PTR [esp+4], eax
	mov	DWORD PTR [esp], esi
	call	_purple_strequal
LVL101:
	test	eax, eax
	je	L125
	.loc 1 235 0 is_stmt 1
	mov	eax, DWORD PTR [ebx+12]
	jmp	L126
	.p2align 2,,3
L130:
	.loc 1 239 0
	xor	eax, eax
LVL102:
L126:
	.loc 1 240 0
	mov	edx, DWORD PTR [esp+28]
	xor	edx, DWORD PTR ___stack_chk_guard
	jne	L142
	add	esp, 36
LCFI82:
	.cfi_remember_state
	.cfi_def_cfa_offset 12
	pop	ebx
LCFI83:
	.cfi_restore 3
	.cfi_def_cfa_offset 8
	pop	esi
LCFI84:
	.cfi_restore 6
	.cfi_def_cfa_offset 4
	ret
L140:
LCFI85:
	.cfi_restore_state
LVL103:
	.loc 1 230 0
	mov	DWORD PTR [esp+8], OFFSET FLAT:LC10
	mov	DWORD PTR [esp+4], OFFSET FLAT:___PRETTY_FUNCTION__.47576
	mov	DWORD PTR [esp], 0
	call	_g_return_if_fail_warning
LVL104:
	xor	eax, eax
	jmp	L126
LVL105:
L141:
	.loc 1 231 0
	mov	DWORD PTR [esp+8], OFFSET FLAT:LC13
	mov	DWORD PTR [esp+4], OFFSET FLAT:___PRETTY_FUNCTION__.47576
	mov	DWORD PTR [esp], 0
	call	_g_return_if_fail_warning
LVL106:
	xor	eax, eax
	jmp	L126
LVL107:
L142:
	.loc 1 240 0
	call	___stack_chk_fail
LVL108:
	.cfi_endproc
LFE104:
	.p2align 2,,3
	.globl	_xmlnode_get_attrib_with_namespace
	.def	_xmlnode_get_attrib_with_namespace;	.scl	2;	.type	32;	.endef
_xmlnode_get_attrib_with_namespace:
LFB105:
	.loc 1 244 0
	.cfi_startproc
LVL109:
	push	edi
LCFI86:
	.cfi_def_cfa_offset 8
	.cfi_offset 7, -8
	push	esi
LCFI87:
	.cfi_def_cfa_offset 12
	.cfi_offset 6, -12
	push	ebx
LCFI88:
	.cfi_def_cfa_offset 16
	.cfi_offset 3, -16
	sub	esp, 32
LCFI89:
	.cfi_def_cfa_offset 48
	mov	eax, DWORD PTR [esp+48]
	mov	esi, DWORD PTR [esp+52]
	mov	edi, DWORD PTR [esp+56]
	.loc 1 244 0
	mov	edx, DWORD PTR ___stack_chk_guard
	mov	DWORD PTR [esp+28], edx
	xor	edx, edx
LBB26:
	.loc 1 247 0
	test	eax, eax
	je	L164
LVL110:
LBE26:
LBB27:
	.loc 1 248 0
	test	esi, esi
	je	L165
LVL111:
LBE27:
	.loc 1 250 0
	mov	ebx, DWORD PTR [eax+24]
LVL112:
	test	ebx, ebx
	jne	L157
	jmp	L151
	.p2align 2,,3
L146:
	mov	ebx, DWORD PTR [ebx+32]
LVL113:
	test	ebx, ebx
	je	L151
L157:
	.loc 1 251 0
	cmp	DWORD PTR [ebx+8], 1
	jne	L146
	.loc 1 252 0 discriminator 1
	mov	eax, DWORD PTR [ebx]
	mov	DWORD PTR [esp+4], eax
	mov	DWORD PTR [esp], esi
	call	_purple_strequal
LVL114:
	.loc 1 251 0 discriminator 1
	test	eax, eax
	je	L146
	.loc 1 253 0
	mov	eax, DWORD PTR [ebx+4]
	mov	DWORD PTR [esp+4], eax
	mov	DWORD PTR [esp], edi
	call	_purple_strequal
LVL115:
	.loc 1 252 0
	test	eax, eax
	je	L146
	.loc 1 254 0
	mov	eax, DWORD PTR [ebx+12]
	jmp	L147
	.p2align 2,,3
L151:
	.loc 1 258 0
	xor	eax, eax
LVL116:
L147:
	.loc 1 259 0
	mov	edx, DWORD PTR [esp+28]
	xor	edx, DWORD PTR ___stack_chk_guard
	jne	L166
	add	esp, 32
LCFI90:
	.cfi_remember_state
	.cfi_def_cfa_offset 16
	pop	ebx
LCFI91:
	.cfi_restore 3
	.cfi_def_cfa_offset 12
	pop	esi
LCFI92:
	.cfi_restore 6
	.cfi_def_cfa_offset 8
	pop	edi
LCFI93:
	.cfi_restore 7
	.cfi_def_cfa_offset 4
	ret
L164:
LCFI94:
	.cfi_restore_state
LVL117:
	.loc 1 247 0
	mov	DWORD PTR [esp+8], OFFSET FLAT:LC10
	mov	DWORD PTR [esp+4], OFFSET FLAT:___PRETTY_FUNCTION__.47590
	mov	DWORD PTR [esp], 0
	call	_g_return_if_fail_warning
LVL118:
	xor	eax, eax
	jmp	L147
LVL119:
L165:
	.loc 1 248 0
	mov	DWORD PTR [esp+8], OFFSET FLAT:LC13
	mov	DWORD PTR [esp+4], OFFSET FLAT:___PRETTY_FUNCTION__.47590
	mov	DWORD PTR [esp], 0
	call	_g_return_if_fail_warning
LVL120:
	xor	eax, eax
	jmp	L147
LVL121:
L166:
	.loc 1 259 0
	call	___stack_chk_fail
LVL122:
	.cfi_endproc
LFE105:
	.p2align 2,,3
	.globl	_xmlnode_set_namespace
	.def	_xmlnode_set_namespace;	.scl	2;	.type	32;	.endef
_xmlnode_set_namespace:
LFB106:
	.loc 1 263 0
	.cfi_startproc
LVL123:
	push	esi
LCFI95:
	.cfi_def_cfa_offset 8
	.cfi_offset 6, -8
	push	ebx
LCFI96:
	.cfi_def_cfa_offset 12
	.cfi_offset 3, -12
	sub	esp, 36
LCFI97:
	.cfi_def_cfa_offset 48
	mov	ebx, DWORD PTR [esp+48]
	mov	esi, DWORD PTR [esp+52]
	.loc 1 263 0
	mov	eax, DWORD PTR ___stack_chk_guard
	mov	DWORD PTR [esp+28], eax
	xor	eax, eax
LBB28:
	.loc 1 264 0
	test	ebx, ebx
	je	L175
LVL124:
LBE28:
	.loc 1 266 0
	mov	eax, DWORD PTR [ebx+4]
	mov	DWORD PTR [esp], eax
	call	_g_free
LVL125:
	.loc 1 267 0
	mov	DWORD PTR [esp], esi
	call	_g_strdup
LVL126:
	mov	DWORD PTR [ebx+4], eax
LVL127:
L170:
	.loc 1 268 0 discriminator 1
	mov	eax, DWORD PTR [esp+28]
	xor	eax, DWORD PTR ___stack_chk_guard
	jne	L176
	.loc 1 268 0 is_stmt 0
	add	esp, 36
LCFI98:
	.cfi_remember_state
	.cfi_def_cfa_offset 12
	pop	ebx
LCFI99:
	.cfi_restore 3
	.cfi_def_cfa_offset 8
	pop	esi
LCFI100:
	.cfi_restore 6
	.cfi_def_cfa_offset 4
	ret
	.p2align 2,,3
L175:
LCFI101:
	.cfi_restore_state
LVL128:
	.loc 1 264 0 is_stmt 1
	mov	DWORD PTR [esp+8], OFFSET FLAT:LC10
	mov	DWORD PTR [esp+4], OFFSET FLAT:___PRETTY_FUNCTION__.47602
	mov	DWORD PTR [esp], 0
	call	_g_return_if_fail_warning
LVL129:
	jmp	L170
LVL130:
L176:
	.loc 1 268 0
	call	___stack_chk_fail
LVL131:
	.cfi_endproc
LFE106:
	.p2align 2,,3
	.globl	_xmlnode_get_namespace
	.def	_xmlnode_get_namespace;	.scl	2;	.type	32;	.endef
_xmlnode_get_namespace:
LFB107:
	.loc 1 271 0
	.cfi_startproc
LVL132:
	sub	esp, 44
LCFI102:
	.cfi_def_cfa_offset 48
	mov	eax, DWORD PTR [esp+48]
	.loc 1 271 0
	mov	edx, DWORD PTR ___stack_chk_guard
	mov	DWORD PTR [esp+28], edx
	xor	edx, edx
LBB33:
	.loc 1 272 0
	test	eax, eax
	je	L185
LVL133:
LBE33:
	.loc 1 274 0
	mov	eax, DWORD PTR [eax+4]
LVL134:
L180:
	.loc 1 275 0
	mov	edx, DWORD PTR [esp+28]
	xor	edx, DWORD PTR ___stack_chk_guard
	jne	L186
	add	esp, 44
LCFI103:
	.cfi_remember_state
	.cfi_def_cfa_offset 4
	ret
	.p2align 2,,3
L185:
LCFI104:
	.cfi_restore_state
LVL135:
LBB34:
LBB35:
	.loc 1 272 0
	mov	DWORD PTR [esp+8], OFFSET FLAT:LC10
	mov	DWORD PTR [esp+4], OFFSET FLAT:___PRETTY_FUNCTION__.47608
	mov	DWORD PTR [esp], 0
	call	_g_return_if_fail_warning
LVL136:
	xor	eax, eax
	jmp	L180
LVL137:
L186:
LBE35:
LBE34:
	.loc 1 275 0
	call	___stack_chk_fail
LVL138:
	.cfi_endproc
LFE107:
	.p2align 2,,3
	.globl	_xmlnode_set_prefix
	.def	_xmlnode_set_prefix;	.scl	2;	.type	32;	.endef
_xmlnode_set_prefix:
LFB108:
	.loc 1 278 0
	.cfi_startproc
LVL139:
	push	esi
LCFI105:
	.cfi_def_cfa_offset 8
	.cfi_offset 6, -8
	push	ebx
LCFI106:
	.cfi_def_cfa_offset 12
	.cfi_offset 3, -12
	sub	esp, 36
LCFI107:
	.cfi_def_cfa_offset 48
	mov	ebx, DWORD PTR [esp+48]
	mov	esi, DWORD PTR [esp+52]
	.loc 1 278 0
	mov	eax, DWORD PTR ___stack_chk_guard
	mov	DWORD PTR [esp+28], eax
	xor	eax, eax
LBB36:
	.loc 1 279 0
	test	ebx, ebx
	je	L195
LVL140:
LBE36:
	.loc 1 281 0
	mov	eax, DWORD PTR [ebx+36]
	mov	DWORD PTR [esp], eax
	call	_g_free
LVL141:
	.loc 1 282 0
	mov	DWORD PTR [esp], esi
	call	_g_strdup
LVL142:
	mov	DWORD PTR [ebx+36], eax
LVL143:
L190:
	.loc 1 283 0 discriminator 1
	mov	eax, DWORD PTR [esp+28]
	xor	eax, DWORD PTR ___stack_chk_guard
	jne	L196
	.loc 1 283 0 is_stmt 0
	add	esp, 36
LCFI108:
	.cfi_remember_state
	.cfi_def_cfa_offset 12
	pop	ebx
LCFI109:
	.cfi_restore 3
	.cfi_def_cfa_offset 8
	pop	esi
LCFI110:
	.cfi_restore 6
	.cfi_def_cfa_offset 4
	ret
	.p2align 2,,3
L195:
LCFI111:
	.cfi_restore_state
LVL144:
	.loc 1 279 0 is_stmt 1
	mov	DWORD PTR [esp+8], OFFSET FLAT:LC10
	mov	DWORD PTR [esp+4], OFFSET FLAT:___PRETTY_FUNCTION__.47615
	mov	DWORD PTR [esp], 0
	call	_g_return_if_fail_warning
LVL145:
	jmp	L190
LVL146:
L196:
	.loc 1 283 0
	call	___stack_chk_fail
LVL147:
	.cfi_endproc
LFE108:
	.p2align 2,,3
	.globl	_xmlnode_get_prefix
	.def	_xmlnode_get_prefix;	.scl	2;	.type	32;	.endef
_xmlnode_get_prefix:
LFB109:
	.loc 1 286 0
	.cfi_startproc
LVL148:
	sub	esp, 44
LCFI112:
	.cfi_def_cfa_offset 48
	mov	eax, DWORD PTR [esp+48]
	.loc 1 286 0
	mov	edx, DWORD PTR ___stack_chk_guard
	mov	DWORD PTR [esp+28], edx
	xor	edx, edx
LBB41:
	.loc 1 287 0
	test	eax, eax
	je	L205
LVL149:
LBE41:
	.loc 1 288 0
	mov	eax, DWORD PTR [eax+36]
LVL150:
L200:
	.loc 1 289 0
	mov	edx, DWORD PTR [esp+28]
	xor	edx, DWORD PTR ___stack_chk_guard
	jne	L206
	add	esp, 44
LCFI113:
	.cfi_remember_state
	.cfi_def_cfa_offset 4
	ret
	.p2align 2,,3
L205:
LCFI114:
	.cfi_restore_state
LVL151:
LBB42:
LBB43:
	.loc 1 287 0
	mov	DWORD PTR [esp+8], OFFSET FLAT:LC10
	mov	DWORD PTR [esp+4], OFFSET FLAT:___PRETTY_FUNCTION__.47621
	mov	DWORD PTR [esp], 0
	call	_g_return_if_fail_warning
LVL152:
	xor	eax, eax
	jmp	L200
LVL153:
L206:
LBE43:
LBE42:
	.loc 1 289 0
	call	___stack_chk_fail
LVL154:
	.cfi_endproc
LFE109:
	.section .rdata,"dr"
LC14:
	.ascii "\15\12\0"
LC15:
	.ascii "\0"
LC16:
	.ascii "<%s:%s\0"
LC17:
	.ascii "<%s\0"
LC18:
	.ascii " %s:%s='%s'\0"
LC19:
	.ascii " %s='%s'\0"
LC20:
	.ascii ">%s\0"
LC21:
	.ascii "</%s:%s>%s\0"
LC22:
	.ascii "</%s>%s\0"
LC23:
	.ascii "/>%s\0"
	.text
	.p2align 2,,3
	.def	_xmlnode_to_str_helper;	.scl	3;	.type	32;	.endef
_xmlnode_to_str_helper:
LFB117:
	.loc 1 432 0
	.cfi_startproc
LVL155:
	push	ebp
LCFI115:
	.cfi_def_cfa_offset 8
	.cfi_offset 5, -8
	push	edi
LCFI116:
	.cfi_def_cfa_offset 12
	.cfi_offset 7, -12
	push	esi
LCFI117:
	.cfi_def_cfa_offset 16
	.cfi_offset 6, -16
	push	ebx
LCFI118:
	.cfi_def_cfa_offset 20
	.cfi_offset 3, -20
	sub	esp, 108
LCFI119:
	.cfi_def_cfa_offset 128
	mov	edi, eax
	mov	DWORD PTR [esp+64], edx
	mov	DWORD PTR [esp+52], ecx
	mov	edx, DWORD PTR [esp+128]
LVL156:
	mov	DWORD PTR [esp+72], edx
	.loc 1 432 0
	mov	eax, DWORD PTR ___stack_chk_guard
	mov	DWORD PTR [esp+92], eax
	xor	eax, eax
LVL157:
	.loc 1 433 0
	mov	DWORD PTR [esp], OFFSET FLAT:LC15
	call	_g_string_new
LVL158:
LBB44:
	.loc 1 439 0
	test	edi, edi
	je	L277
	mov	ebx, eax
LVL159:
LBE44:
	.loc 1 441 0
	mov	eax, DWORD PTR [esp+52]
	test	eax, eax
	jne	L237
L239:
	.loc 1 436 0
	mov	DWORD PTR [esp+68], 0
LVL160:
L210:
	.loc 1 446 0
	mov	DWORD PTR [esp+4], -1
	mov	eax, DWORD PTR [edi]
	mov	DWORD PTR [esp], eax
	call	_g_markup_escape_text
LVL161:
	mov	DWORD PTR [esp+56], eax
LVL162:
	.loc 1 447 0
	mov	DWORD PTR [esp], edi
	call	_xmlnode_get_prefix
LVL163:
	mov	DWORD PTR [esp+48], eax
LVL164:
	.loc 1 449 0
	test	eax, eax
	.loc 1 450 0
	mov	eax, DWORD PTR [esp+56]
LVL165:
	.loc 1 449 0
	je	L211
	.loc 1 450 0
	mov	DWORD PTR [esp+12], eax
	mov	eax, DWORD PTR [esp+48]
	mov	DWORD PTR [esp+8], eax
	mov	DWORD PTR [esp+4], OFFSET FLAT:LC16
	mov	DWORD PTR [esp], ebx
	call	_g_string_append_printf
LVL166:
L212:
	.loc 1 455 0
	mov	eax, DWORD PTR [edi+40]
	test	eax, eax
	je	L213
	.loc 1 456 0
	mov	DWORD PTR [esp+8], ebx
	mov	DWORD PTR [esp+4], OFFSET FLAT:_xmlnode_to_str_foreach_append_ns
	mov	DWORD PTR [esp], eax
	call	_g_hash_table_foreach
LVL167:
L214:
	.loc 1 466 0
	mov	ebp, DWORD PTR [edi+24]
LVL168:
	test	ebp, ebp
	je	L218
	mov	edx, DWORD PTR [esp+52]
	mov	DWORD PTR [esp+44], edx
	xor	esi, esi
	mov	DWORD PTR [esp+60], ebx
	mov	DWORD PTR [esp+76], edi
	mov	edi, ebp
LVL169:
	jmp	L223
LVL170:
	.p2align 2,,3
L281:
	.loc 1 479 0 discriminator 1
	cmp	eax, 2
	je	L278
L222:
LVL171:
	.loc 1 466 0
	mov	edi, DWORD PTR [edi+32]
LVL172:
	test	edi, edi
	je	L279
LVL173:
L223:
	.loc 1 468 0
	mov	eax, DWORD PTR [edi+8]
	cmp	eax, 1
	je	L280
	.loc 1 479 0
	test	eax, eax
	jne	L281
	.loc 1 482 0
	mov	esi, 1
L285:
LVL174:
	.loc 1 466 0
	mov	edi, DWORD PTR [edi+32]
LVL175:
	test	edi, edi
	jne	L223
L279:
	mov	ebx, DWORD PTR [esp+60]
	mov	edi, DWORD PTR [esp+76]
LVL176:
	.loc 1 486 0
	test	esi, esi
	je	L218
	.loc 1 487 0
	mov	ebp, DWORD PTR [esp+44]
	test	ebp, ebp
	jne	L282
	mov	eax, OFFSET FLAT:LC15
L224:
	.loc 1 487 0 is_stmt 0 discriminator 3
	mov	DWORD PTR [esp+8], eax
	mov	DWORD PTR [esp+4], OFFSET FLAT:LC20
	mov	DWORD PTR [esp], ebx
	call	_g_string_append_printf
LVL177:
	.loc 1 489 0 is_stmt 1 discriminator 3
	mov	esi, DWORD PTR [edi+24]
LVL178:
	test	esi, esi
	je	L225
LBB45:
	.loc 1 493 0
	mov	edi, DWORD PTR [esp+72]
	inc	edi
	jmp	L262
LVL179:
	.p2align 2,,3
L226:
LBE45:
	.loc 1 496 0
	cmp	edx, 2
	je	L283
L227:
	.loc 1 489 0
	mov	esi, DWORD PTR [esi+32]
LVL180:
	test	esi, esi
	je	L225
L262:
	.loc 1 491 0
	mov	edx, DWORD PTR [esi+8]
	test	edx, edx
	jne	L226
LBB46:
	.loc 1 493 0
	mov	DWORD PTR [esp], edi
	mov	ecx, DWORD PTR [esp+44]
	lea	edx, [esp+88]
	mov	eax, esi
	call	_xmlnode_to_str_helper
LVL181:
	mov	ebp, eax
LVL182:
	.loc 1 494 0
	mov	eax, DWORD PTR [esp+88]
LVL183:
	mov	DWORD PTR [esp+8], eax
	mov	DWORD PTR [esp+4], ebp
	mov	DWORD PTR [esp], ebx
	call	_g_string_append_len
LVL184:
	mov	ebx, eax
LVL185:
	.loc 1 495 0
	mov	DWORD PTR [esp], ebp
	call	_g_free
LVL186:
LBE46:
	.loc 1 489 0
	mov	esi, DWORD PTR [esi+32]
LVL187:
	test	esi, esi
	jne	L262
LVL188:
L225:
	.loc 1 503 0
	mov	esi, DWORD PTR [esp+68]
LVL189:
	test	esi, esi
	je	L229
	.loc 1 503 0 is_stmt 0 discriminator 1
	mov	ecx, DWORD PTR [esp+44]
	test	ecx, ecx
	jne	L284
L229:
	.loc 1 505 0 is_stmt 1
	mov	edx, DWORD PTR [esp+48]
	test	edx, edx
	je	L230
	.loc 1 506 0
	mov	eax, DWORD PTR [esp+52]
	test	eax, eax
	je	L243
	mov	eax, OFFSET FLAT:LC14
L231:
	.loc 1 506 0 is_stmt 0 discriminator 3
	mov	DWORD PTR [esp+16], eax
	mov	eax, DWORD PTR [esp+56]
	mov	DWORD PTR [esp+12], eax
	mov	eax, DWORD PTR [esp+48]
	mov	DWORD PTR [esp+8], eax
	mov	DWORD PTR [esp+4], OFFSET FLAT:LC21
	mov	DWORD PTR [esp], ebx
	call	_g_string_append_printf
LVL190:
	jmp	L232
LVL191:
	.p2align 2,,3
L237:
	.loc 1 441 0 is_stmt 1 discriminator 1
	mov	eax, DWORD PTR [esp+72]
LVL192:
	test	eax, eax
	je	L239
	.loc 1 442 0
	mov	DWORD PTR [esp+4], 9
	mov	edx, DWORD PTR [esp+72]
	mov	DWORD PTR [esp], edx
	call	_g_strnfill
LVL193:
	mov	DWORD PTR [esp+68], eax
LVL194:
	.loc 1 443 0
	mov	DWORD PTR [esp+4], eax
	mov	DWORD PTR [esp], ebx
	call	_g_string_append
LVL195:
	mov	ebx, eax
LVL196:
	jmp	L210
LVL197:
	.p2align 2,,3
L280:
LBB47:
	.loc 1 469 0
	mov	DWORD PTR [esp], edi
	call	_xmlnode_get_prefix
LVL198:
	mov	ecx, eax
LVL199:
	.loc 1 470 0
	mov	DWORD PTR [esp+4], -1
	mov	eax, DWORD PTR [edi]
LVL200:
	mov	DWORD PTR [esp], eax
	mov	DWORD PTR [esp+40], ecx
	call	_g_markup_escape_text
LVL201:
	mov	ebp, eax
LVL202:
	.loc 1 471 0
	mov	DWORD PTR [esp+4], -1
	mov	eax, DWORD PTR [edi+12]
LVL203:
	mov	DWORD PTR [esp], eax
	call	_g_markup_escape_text
LVL204:
	mov	ebx, eax
LVL205:
	.loc 1 472 0
	mov	ecx, DWORD PTR [esp+40]
	test	ecx, ecx
	je	L220
	.loc 1 473 0
	mov	DWORD PTR [esp+16], eax
	mov	DWORD PTR [esp+12], ebp
	mov	DWORD PTR [esp+8], ecx
	mov	DWORD PTR [esp+4], OFFSET FLAT:LC18
	mov	eax, DWORD PTR [esp+60]
LVL206:
	mov	DWORD PTR [esp], eax
	call	_g_string_append_printf
LVL207:
L221:
	.loc 1 477 0
	mov	DWORD PTR [esp], ebp
	call	_g_free
LVL208:
	.loc 1 478 0
	mov	DWORD PTR [esp], ebx
	call	_g_free
LVL209:
	jmp	L222
LVL210:
	.p2align 2,,3
L278:
LBE47:
	.loc 1 481 0
	mov	DWORD PTR [esp+44], 0
	.loc 1 482 0
	mov	esi, 1
	jmp	L285
LVL211:
	.p2align 2,,3
L218:
	.loc 1 511 0
	mov	eax, DWORD PTR [esp+52]
	test	eax, eax
	jne	L286
	mov	eax, OFFSET FLAT:LC15
L234:
	.loc 1 511 0 is_stmt 0 discriminator 3
	mov	DWORD PTR [esp+8], eax
	mov	DWORD PTR [esp+4], OFFSET FLAT:LC23
	mov	DWORD PTR [esp], ebx
	call	_g_string_append_printf
LVL212:
L232:
	.loc 1 514 0 is_stmt 1
	mov	eax, DWORD PTR [esp+56]
	mov	DWORD PTR [esp], eax
	call	_g_free
LVL213:
	.loc 1 516 0
	mov	eax, DWORD PTR [esp+68]
	mov	DWORD PTR [esp], eax
	call	_g_free
LVL214:
	.loc 1 518 0
	mov	eax, DWORD PTR [esp+64]
	test	eax, eax
	je	L235
	.loc 1 519 0
	mov	eax, DWORD PTR [ebx+4]
	mov	edx, DWORD PTR [esp+64]
	mov	DWORD PTR [edx], eax
L235:
	.loc 1 521 0
	mov	DWORD PTR [esp+4], 0
	mov	DWORD PTR [esp], ebx
	call	_g_string_free
LVL215:
L236:
	.loc 1 522 0
	mov	edx, DWORD PTR [esp+92]
	xor	edx, DWORD PTR ___stack_chk_guard
	jne	L287
	add	esp, 108
LCFI120:
	.cfi_remember_state
	.cfi_def_cfa_offset 20
	pop	ebx
LCFI121:
	.cfi_restore 3
	.cfi_def_cfa_offset 16
	pop	esi
LCFI122:
	.cfi_restore 6
	.cfi_def_cfa_offset 12
	pop	edi
LCFI123:
	.cfi_restore 7
	.cfi_def_cfa_offset 8
	pop	ebp
LCFI124:
	.cfi_restore 5
	.cfi_def_cfa_offset 4
	ret
LVL216:
	.p2align 2,,3
L286:
LCFI125:
	.cfi_restore_state
	.loc 1 511 0
	mov	eax, OFFSET FLAT:LC14
	jmp	L234
LVL217:
	.p2align 2,,3
L282:
	.loc 1 487 0
	mov	eax, OFFSET FLAT:LC14
	jmp	L224
LVL218:
	.p2align 2,,3
L283:
	.loc 1 496 0 discriminator 1
	mov	eax, DWORD PTR [esi+16]
	test	eax, eax
	je	L227
	.loc 1 497 0
	mov	DWORD PTR [esp+4], eax
	mov	eax, DWORD PTR [esi+12]
	mov	DWORD PTR [esp], eax
	call	_g_markup_escape_text
LVL219:
	mov	ebp, eax
LVL220:
	.loc 1 498 0
	mov	DWORD PTR [esp+4], eax
	mov	DWORD PTR [esp], ebx
	call	_g_string_append
LVL221:
	mov	ebx, eax
LVL222:
	.loc 1 499 0
	mov	DWORD PTR [esp], ebp
	call	_g_free
LVL223:
	jmp	L227
LVL224:
	.p2align 2,,3
L213:
	.loc 1 458 0
	mov	eax, DWORD PTR [edi+4]
	test	eax, eax
	je	L214
	.loc 1 459 0
	mov	edx, DWORD PTR [edi+20]
	test	edx, edx
	je	L216
	.loc 1 459 0 is_stmt 0 discriminator 1
	mov	edx, DWORD PTR [edx+4]
	mov	DWORD PTR [esp+4], edx
	mov	DWORD PTR [esp], eax
	call	_purple_strequal
LVL225:
	test	eax, eax
	jne	L214
	mov	eax, DWORD PTR [edi+4]
L216:
LBB48:
	.loc 1 461 0 is_stmt 1
	mov	DWORD PTR [esp+4], -1
	mov	DWORD PTR [esp], eax
	call	_g_markup_escape_text
LVL226:
	mov	esi, eax
LVL227:
	.loc 1 462 0
	mov	DWORD PTR [esp+8], eax
	mov	DWORD PTR [esp+4], OFFSET FLAT:LC6
	mov	DWORD PTR [esp], ebx
	call	_g_string_append_printf
LVL228:
	.loc 1 463 0
	mov	DWORD PTR [esp], esi
	call	_g_free
LVL229:
	jmp	L214
LVL230:
	.p2align 2,,3
L243:
LBE48:
	.loc 1 506 0
	mov	eax, OFFSET FLAT:LC15
	jmp	L231
LVL231:
	.p2align 2,,3
L220:
LBB49:
	.loc 1 475 0
	mov	DWORD PTR [esp+12], eax
	mov	DWORD PTR [esp+8], ebp
	mov	DWORD PTR [esp+4], OFFSET FLAT:LC19
	mov	eax, DWORD PTR [esp+60]
LVL232:
	mov	DWORD PTR [esp], eax
	call	_g_string_append_printf
LVL233:
	jmp	L221
LVL234:
	.p2align 2,,3
L277:
LBE49:
	.loc 1 439 0
	mov	DWORD PTR [esp+8], OFFSET FLAT:LC10
	mov	DWORD PTR [esp+4], OFFSET FLAT:___PRETTY_FUNCTION__.47704
	mov	DWORD PTR [esp], 0
	call	_g_return_if_fail_warning
LVL235:
	xor	eax, eax
	jmp	L236
LVL236:
	.p2align 2,,3
L211:
	.loc 1 452 0
	mov	DWORD PTR [esp+8], eax
	mov	DWORD PTR [esp+4], OFFSET FLAT:LC17
	mov	DWORD PTR [esp], ebx
	call	_g_string_append_printf
LVL237:
	jmp	L212
LVL238:
	.p2align 2,,3
L284:
	.loc 1 504 0
	mov	eax, DWORD PTR [esp+68]
	mov	DWORD PTR [esp+4], eax
	mov	DWORD PTR [esp], ebx
	call	_g_string_append
LVL239:
	mov	ebx, eax
LVL240:
	jmp	L229
LVL241:
L230:
	.loc 1 508 0
	mov	eax, DWORD PTR [esp+52]
	test	eax, eax
	jne	L288
	mov	eax, OFFSET FLAT:LC15
L233:
	.loc 1 508 0 is_stmt 0 discriminator 3
	mov	DWORD PTR [esp+12], eax
	mov	eax, DWORD PTR [esp+56]
	mov	DWORD PTR [esp+8], eax
	mov	DWORD PTR [esp+4], OFFSET FLAT:LC22
	mov	DWORD PTR [esp], ebx
	call	_g_string_append_printf
LVL242:
	jmp	L232
L288:
	.loc 1 508 0
	mov	eax, OFFSET FLAT:LC14
	jmp	L233
LVL243:
L287:
	.loc 1 522 0 is_stmt 1
	call	___stack_chk_fail
LVL244:
	.cfi_endproc
LFE117:
	.p2align 2,,3
	.globl	_xmlnode_get_parent
	.def	_xmlnode_get_parent;	.scl	2;	.type	32;	.endef
_xmlnode_get_parent:
LFB110:
	.loc 1 292 0
	.cfi_startproc
LVL245:
	sub	esp, 44
LCFI126:
	.cfi_def_cfa_offset 48
	mov	eax, DWORD PTR [esp+48]
	.loc 1 292 0
	mov	edx, DWORD PTR ___stack_chk_guard
	mov	DWORD PTR [esp+28], edx
	xor	edx, edx
LBB50:
	.loc 1 293 0
	test	eax, eax
	je	L297
LVL246:
LBE50:
	.loc 1 294 0
	mov	eax, DWORD PTR [eax+20]
LVL247:
L292:
	.loc 1 295 0
	mov	edx, DWORD PTR [esp+28]
	xor	edx, DWORD PTR ___stack_chk_guard
	jne	L298
	add	esp, 44
LCFI127:
	.cfi_remember_state
	.cfi_def_cfa_offset 4
	ret
	.p2align 2,,3
L297:
LCFI128:
	.cfi_restore_state
LVL248:
	.loc 1 293 0
	mov	DWORD PTR [esp+8], OFFSET FLAT:LC9
	mov	DWORD PTR [esp+4], OFFSET FLAT:___PRETTY_FUNCTION__.47627
	mov	DWORD PTR [esp], 0
	call	_g_return_if_fail_warning
LVL249:
	xor	eax, eax
	jmp	L292
LVL250:
L298:
	.loc 1 295 0
	call	___stack_chk_fail
LVL251:
	.cfi_endproc
LFE110:
	.p2align 2,,3
	.globl	_xmlnode_free
	.def	_xmlnode_free;	.scl	2;	.type	32;	.endef
_xmlnode_free:
LFB111:
	.loc 1 299 0
	.cfi_startproc
LVL252:
	push	esi
LCFI129:
	.cfi_def_cfa_offset 8
	.cfi_offset 6, -8
	push	ebx
LCFI130:
	.cfi_def_cfa_offset 12
	.cfi_offset 3, -12
	sub	esp, 36
LCFI131:
	.cfi_def_cfa_offset 48
	mov	esi, DWORD PTR [esp+48]
	.loc 1 299 0
	mov	eax, DWORD PTR ___stack_chk_guard
	mov	DWORD PTR [esp+28], eax
	xor	eax, eax
LBB51:
	.loc 1 302 0
	test	esi, esi
	je	L330
LVL253:
LBE51:
	.loc 1 305 0
	mov	ecx, DWORD PTR [esi+20]
	test	ecx, ecx
	je	L304
	.loc 1 306 0
	mov	edx, DWORD PTR [ecx+24]
	cmp	edx, esi
	je	L331
LVL254:
LBB52:
	.loc 1 312 0 discriminator 1
	test	edx, edx
	je	L304
	.loc 1 312 0 is_stmt 0
	mov	eax, DWORD PTR [edx+32]
	cmp	eax, esi
	jne	L325
	jmp	L334
LVL255:
	.p2align 2,,3
L333:
	mov	eax, edx
LVL256:
L325:
	test	eax, eax
	je	L304
	.loc 1 312 0 discriminator 2
	mov	edx, DWORD PTR [eax+32]
	cmp	edx, esi
	jne	L333
L307:
	.loc 1 316 0 is_stmt 1
	mov	edx, DWORD PTR [esi+32]
	mov	DWORD PTR [eax+32], edx
	.loc 1 317 0
	cmp	DWORD PTR [ecx+28], esi
	je	L318
LVL257:
L304:
LBE52:
	.loc 1 324 0
	mov	eax, DWORD PTR [esi+24]
LVL258:
	.loc 1 325 0
	test	eax, eax
	je	L314
	.p2align 2,,3
L323:
	.loc 1 326 0
	mov	ebx, DWORD PTR [eax+32]
LVL259:
	.loc 1 327 0
	mov	DWORD PTR [esp], eax
	call	_xmlnode_free
LVL260:
	.loc 1 328 0
	mov	eax, ebx
	.loc 1 325 0
	test	ebx, ebx
	jne	L323
LVL261:
L314:
	.loc 1 332 0
	mov	eax, DWORD PTR [esi]
LVL262:
	mov	DWORD PTR [esp], eax
	call	_g_free
LVL263:
	.loc 1 333 0
	mov	eax, DWORD PTR [esi+12]
	mov	DWORD PTR [esp], eax
	call	_g_free
LVL264:
	.loc 1 334 0
	mov	eax, DWORD PTR [esi+4]
	mov	DWORD PTR [esp], eax
	call	_g_free
LVL265:
	.loc 1 335 0
	mov	eax, DWORD PTR [esi+36]
	mov	DWORD PTR [esp], eax
	call	_g_free
LVL266:
	.loc 1 337 0
	mov	eax, DWORD PTR [esi+40]
	test	eax, eax
	je	L312
	.loc 1 338 0
	mov	DWORD PTR [esp], eax
	call	_g_hash_table_destroy
LVL267:
L312:
	.loc 1 341 0
	mov	eax, DWORD PTR [esp+28]
	xor	eax, DWORD PTR ___stack_chk_guard
	jne	L328
	mov	DWORD PTR [esp+48], esi
	.loc 1 342 0
	add	esp, 36
LCFI132:
	.cfi_remember_state
	.cfi_def_cfa_offset 12
	pop	ebx
LCFI133:
	.cfi_restore 3
	.cfi_def_cfa_offset 8
	pop	esi
LCFI134:
	.cfi_restore 6
	.cfi_def_cfa_offset 4
	.loc 1 341 0
	jmp	_g_free
LVL268:
	.p2align 2,,3
L331:
LCFI135:
	.cfi_restore_state
	.loc 1 307 0
	mov	eax, DWORD PTR [esi+32]
	mov	DWORD PTR [ecx+24], eax
	.loc 1 308 0
	cmp	esi, DWORD PTR [ecx+28]
	jne	L304
L318:
LBB53:
	.loc 1 318 0
	mov	DWORD PTR [ecx+28], eax
	jmp	L304
LVL269:
	.p2align 2,,3
L330:
LBE53:
	.loc 1 302 0
	mov	DWORD PTR [esp+8], OFFSET FLAT:LC10
	mov	DWORD PTR [esp+4], OFFSET FLAT:___PRETTY_FUNCTION__.47635
	mov	DWORD PTR [esp], 0
	call	_g_return_if_fail_warning
LVL270:
	.loc 1 342 0
	mov	eax, DWORD PTR [esp+28]
	xor	eax, DWORD PTR ___stack_chk_guard
	jne	L328
	add	esp, 36
LCFI136:
	.cfi_remember_state
	.cfi_def_cfa_offset 12
	pop	ebx
LCFI137:
	.cfi_restore 3
	.cfi_def_cfa_offset 8
	pop	esi
LCFI138:
	.cfi_restore 6
	.cfi_def_cfa_offset 4
	ret
LVL271:
L334:
LCFI139:
	.cfi_restore_state
LBB54:
	.loc 1 312 0
	mov	eax, edx
	jmp	L307
LVL272:
L328:
LBE54:
	.loc 1 342 0
	call	___stack_chk_fail
LVL273:
	.cfi_endproc
LFE111:
	.p2align 2,,3
	.globl	_xmlnode_remove_attrib_with_namespace
	.def	_xmlnode_remove_attrib_with_namespace;	.scl	2;	.type	32;	.endef
_xmlnode_remove_attrib_with_namespace:
LFB99:
	.loc 1 159 0
	.cfi_startproc
LVL274:
	push	ebp
LCFI140:
	.cfi_def_cfa_offset 8
	.cfi_offset 5, -8
	push	edi
LCFI141:
	.cfi_def_cfa_offset 12
	.cfi_offset 7, -12
	push	esi
LCFI142:
	.cfi_def_cfa_offset 16
	.cfi_offset 6, -16
	push	ebx
LCFI143:
	.cfi_def_cfa_offset 20
	.cfi_offset 3, -20
	sub	esp, 60
LCFI144:
	.cfi_def_cfa_offset 80
	mov	edi, DWORD PTR [esp+80]
	mov	esi, DWORD PTR [esp+84]
	mov	eax, DWORD PTR [esp+88]
	mov	DWORD PTR [esp+28], eax
	.loc 1 159 0
	mov	eax, DWORD PTR ___stack_chk_guard
	mov	DWORD PTR [esp+44], eax
	xor	eax, eax
LVL275:
LBB55:
	.loc 1 162 0
	test	edi, edi
	je	L362
LVL276:
LBE55:
LBB56:
	.loc 1 163 0
	test	esi, esi
	je	L363
LVL277:
LBE56:
	.loc 1 165 0
	mov	ebx, DWORD PTR [edi+24]
LVL278:
	xor	ebp, ebp
	test	ebx, ebx
	jne	L355
	jmp	L335
LVL279:
	.p2align 2,,3
L338:
	mov	eax, DWORD PTR [ebx+32]
LVL280:
	mov	ebp, ebx
	test	eax, eax
	je	L335
	mov	ebx, eax
LVL281:
L355:
	.loc 1 167 0
	cmp	DWORD PTR [ebx+8], 1
	jne	L338
	.loc 1 168 0 discriminator 1
	mov	eax, DWORD PTR [ebx]
	mov	DWORD PTR [esp+4], eax
	mov	DWORD PTR [esp], esi
	call	_purple_strequal
LVL282:
	.loc 1 167 0 discriminator 1
	test	eax, eax
	je	L338
	.loc 1 169 0
	mov	eax, DWORD PTR [ebx+4]
	mov	DWORD PTR [esp+4], eax
	mov	eax, DWORD PTR [esp+28]
	mov	DWORD PTR [esp], eax
	call	_purple_strequal
LVL283:
	.loc 1 168 0
	test	eax, eax
	je	L338
	.loc 1 172 0
	mov	eax, DWORD PTR [ebx+32]
	.loc 1 171 0
	test	ebp, ebp
	je	L364
	.loc 1 174 0
	mov	DWORD PTR [ebp+32], eax
L340:
	.loc 1 176 0
	cmp	DWORD PTR [edi+28], ebx
	je	L365
L341:
	.loc 1 179 0
	mov	eax, DWORD PTR [esp+44]
	xor	eax, DWORD PTR ___stack_chk_guard
	jne	L361
	mov	DWORD PTR [esp+80], ebx
	.loc 1 184 0
	add	esp, 60
LCFI145:
	.cfi_remember_state
	.cfi_def_cfa_offset 20
	pop	ebx
LCFI146:
	.cfi_restore 3
	.cfi_def_cfa_offset 16
LVL284:
	pop	esi
LCFI147:
	.cfi_restore 6
	.cfi_def_cfa_offset 12
	pop	edi
LCFI148:
	.cfi_restore 7
	.cfi_def_cfa_offset 8
	pop	ebp
LCFI149:
	.cfi_restore 5
	.cfi_def_cfa_offset 4
	.loc 1 179 0
	jmp	_xmlnode_free
LVL285:
	.p2align 2,,3
L335:
LCFI150:
	.cfi_restore_state
	.loc 1 184 0
	mov	eax, DWORD PTR [esp+44]
	xor	eax, DWORD PTR ___stack_chk_guard
	jne	L361
	add	esp, 60
LCFI151:
	.cfi_remember_state
	.cfi_def_cfa_offset 20
	pop	ebx
LCFI152:
	.cfi_restore 3
	.cfi_def_cfa_offset 16
	pop	esi
LCFI153:
	.cfi_restore 6
	.cfi_def_cfa_offset 12
	pop	edi
LCFI154:
	.cfi_restore 7
	.cfi_def_cfa_offset 8
	pop	ebp
LCFI155:
	.cfi_restore 5
	.cfi_def_cfa_offset 4
	ret
LVL286:
L362:
LCFI156:
	.cfi_restore_state
	.loc 1 162 0
	mov	eax, DWORD PTR [esp+44]
	xor	eax, DWORD PTR ___stack_chk_guard
	jne	L361
	mov	DWORD PTR [esp+88], OFFSET FLAT:LC10
LVL287:
L360:
	.loc 1 163 0
	mov	DWORD PTR [esp+84], OFFSET FLAT:___PRETTY_FUNCTION__.47531
	mov	DWORD PTR [esp+80], 0
	.loc 1 184 0
	add	esp, 60
LCFI157:
	.cfi_remember_state
	.cfi_def_cfa_offset 20
	pop	ebx
LCFI158:
	.cfi_restore 3
	.cfi_def_cfa_offset 16
	pop	esi
LCFI159:
	.cfi_restore 6
	.cfi_def_cfa_offset 12
	pop	edi
LCFI160:
	.cfi_restore 7
	.cfi_def_cfa_offset 8
	pop	ebp
LCFI161:
	.cfi_restore 5
	.cfi_def_cfa_offset 4
	.loc 1 163 0
	jmp	_g_return_if_fail_warning
LVL288:
L363:
LCFI162:
	.cfi_restore_state
	mov	eax, DWORD PTR [esp+44]
	xor	eax, DWORD PTR ___stack_chk_guard
	jne	L361
	mov	DWORD PTR [esp+88], OFFSET FLAT:LC13
	jmp	L360
LVL289:
L365:
	.loc 1 177 0
	mov	DWORD PTR [edi+28], ebp
	jmp	L341
L364:
	.loc 1 172 0
	mov	DWORD PTR [edi+24], eax
	jmp	L340
LVL290:
L361:
	.loc 1 184 0
	call	___stack_chk_fail
LVL291:
	.cfi_endproc
LFE99:
	.section .rdata,"dr"
LC24:
	.ascii "value != NULL\0"
	.text
	.p2align 2,,3
	.globl	_xmlnode_set_attrib_full
	.def	_xmlnode_set_attrib_full;	.scl	2;	.type	32;	.endef
_xmlnode_set_attrib_full:
LFB103:
	.loc 1 207 0
	.cfi_startproc
LVL292:
	push	ebp
LCFI163:
	.cfi_def_cfa_offset 8
	.cfi_offset 5, -8
	push	edi
LCFI164:
	.cfi_def_cfa_offset 12
	.cfi_offset 7, -12
	push	esi
LCFI165:
	.cfi_def_cfa_offset 16
	.cfi_offset 6, -16
	push	ebx
LCFI166:
	.cfi_def_cfa_offset 20
	.cfi_offset 3, -20
	sub	esp, 60
LCFI167:
	.cfi_def_cfa_offset 80
	mov	esi, DWORD PTR [esp+80]
	mov	ebx, DWORD PTR [esp+84]
	mov	edi, DWORD PTR [esp+88]
	mov	ecx, DWORD PTR [esp+92]
	mov	ebp, DWORD PTR [esp+96]
	.loc 1 207 0
	mov	eax, DWORD PTR ___stack_chk_guard
	mov	DWORD PTR [esp+44], eax
	xor	eax, eax
LBB57:
	.loc 1 210 0
	test	esi, esi
	je	L379
LVL293:
LBE57:
LBB58:
	.loc 1 211 0
	test	ebx, ebx
	je	L380
LVL294:
LBE58:
LBB59:
	.loc 1 212 0
	test	ebp, ebp
	je	L372
LVL295:
LBE59:
	.loc 1 214 0
	mov	DWORD PTR [esp+8], edi
	mov	DWORD PTR [esp+4], ebx
	mov	DWORD PTR [esp], esi
	mov	DWORD PTR [esp+28], ecx
	call	_xmlnode_remove_attrib_with_namespace
LVL296:
	.loc 1 215 0
	mov	edx, 1
	mov	eax, ebx
	call	_new_node
LVL297:
	mov	ebx, eax
LVL298:
	.loc 1 217 0
	mov	DWORD PTR [esp], ebp
	call	_g_strdup
LVL299:
	mov	DWORD PTR [ebx+12], eax
	.loc 1 218 0
	mov	DWORD PTR [esp], edi
	call	_g_strdup
LVL300:
	mov	DWORD PTR [ebx+4], eax
	.loc 1 219 0
	mov	ecx, DWORD PTR [esp+28]
	mov	DWORD PTR [esp], ecx
	call	_g_strdup
LVL301:
	mov	DWORD PTR [ebx+36], eax
	.loc 1 221 0
	mov	eax, DWORD PTR [esp+44]
	xor	eax, DWORD PTR ___stack_chk_guard
	jne	L378
	mov	DWORD PTR [esp+84], ebx
	mov	DWORD PTR [esp+80], esi
	.loc 1 222 0
	add	esp, 60
LCFI168:
	.cfi_remember_state
	.cfi_def_cfa_offset 20
	pop	ebx
LCFI169:
	.cfi_restore 3
	.cfi_def_cfa_offset 16
LVL302:
	pop	esi
LCFI170:
	.cfi_restore 6
	.cfi_def_cfa_offset 12
	pop	edi
LCFI171:
	.cfi_restore 7
	.cfi_def_cfa_offset 8
	pop	ebp
LCFI172:
	.cfi_restore 5
	.cfi_def_cfa_offset 4
	.loc 1 221 0
	jmp	_xmlnode_insert_child
LVL303:
	.p2align 2,,3
L379:
LCFI173:
	.cfi_restore_state
	.loc 1 210 0
	mov	eax, DWORD PTR [esp+44]
	xor	eax, DWORD PTR ___stack_chk_guard
	jne	L378
	mov	DWORD PTR [esp+88], OFFSET FLAT:LC10
LVL304:
L377:
	.loc 1 212 0
	mov	DWORD PTR [esp+84], OFFSET FLAT:___PRETTY_FUNCTION__.47564
	mov	DWORD PTR [esp+80], 0
	.loc 1 222 0
	add	esp, 60
LCFI174:
	.cfi_remember_state
	.cfi_def_cfa_offset 20
	pop	ebx
LCFI175:
	.cfi_restore 3
	.cfi_def_cfa_offset 16
	pop	esi
LCFI176:
	.cfi_restore 6
	.cfi_def_cfa_offset 12
	pop	edi
LCFI177:
	.cfi_restore 7
	.cfi_def_cfa_offset 8
	pop	ebp
LCFI178:
	.cfi_restore 5
	.cfi_def_cfa_offset 4
	.loc 1 212 0
	jmp	_g_return_if_fail_warning
LVL305:
	.p2align 2,,3
L380:
LCFI179:
	.cfi_restore_state
	.loc 1 211 0
	mov	eax, DWORD PTR [esp+44]
	xor	eax, DWORD PTR ___stack_chk_guard
	jne	L378
	mov	DWORD PTR [esp+88], OFFSET FLAT:LC13
	jmp	L377
LVL306:
	.p2align 2,,3
L372:
	.loc 1 212 0
	mov	eax, DWORD PTR [esp+44]
	xor	eax, DWORD PTR ___stack_chk_guard
	jne	L378
	mov	DWORD PTR [esp+88], OFFSET FLAT:LC24
	jmp	L377
LVL307:
L378:
	call	___stack_chk_fail
LVL308:
	.cfi_endproc
LFE103:
	.p2align 2,,3
	.def	_xmlnode_parser_element_start_libxml;	.scl	3;	.type	32;	.endef
_xmlnode_parser_element_start_libxml:
LFB120:
	.loc 1 558 0
	.cfi_startproc
LVL309:
	push	ebp
LCFI180:
	.cfi_def_cfa_offset 8
	.cfi_offset 5, -8
	push	edi
LCFI181:
	.cfi_def_cfa_offset 12
	.cfi_offset 7, -12
	push	esi
LCFI182:
	.cfi_def_cfa_offset 16
	.cfi_offset 6, -16
	push	ebx
LCFI183:
	.cfi_def_cfa_offset 20
	.cfi_offset 3, -20
	sub	esp, 92
LCFI184:
	.cfi_def_cfa_offset 112
	mov	ecx, DWORD PTR [esp+112]
	mov	DWORD PTR [esp+56], ecx
	mov	eax, DWORD PTR [esp+116]
	mov	ebx, DWORD PTR [esp+120]
	mov	edx, DWORD PTR [esp+124]
	mov	edi, DWORD PTR [esp+128]
	mov	DWORD PTR [esp+48], edi
	mov	ebp, DWORD PTR [esp+132]
	mov	ecx, DWORD PTR [esp+136]
	mov	DWORD PTR [esp+52], ecx
	mov	esi, DWORD PTR [esp+144]
	.loc 1 558 0
	mov	edi, DWORD PTR ___stack_chk_guard
	mov	DWORD PTR [esp+76], edi
	xor	edi, edi
LVL310:
	.loc 1 563 0
	test	eax, eax
	je	L381
	.loc 1 563 0 is_stmt 0 discriminator 1
	mov	ecx, DWORD PTR [esp+56]
	mov	edi, DWORD PTR [ecx+4]
	test	edi, edi
	jne	L381
LVL311:
LBB64:
LBB65:
	.loc 1 566 0 is_stmt 1
	mov	ecx, DWORD PTR [ecx]
	test	ecx, ecx
	je	L383
	.loc 1 567 0
	mov	DWORD PTR [esp+4], eax
	mov	DWORD PTR [esp], ecx
	mov	DWORD PTR [esp+40], edx
	call	_xmlnode_new_child
LVL312:
	mov	edi, eax
LVL313:
	mov	edx, DWORD PTR [esp+40]
L384:
	.loc 1 571 0
	mov	DWORD PTR [esp+4], edx
	mov	DWORD PTR [esp], edi
	call	_xmlnode_set_namespace
LVL314:
	.loc 1 572 0
	mov	DWORD PTR [esp+4], ebx
	mov	DWORD PTR [esp], edi
	call	_xmlnode_set_prefix
LVL315:
	.loc 1 574 0
	mov	eax, DWORD PTR [esp+48]
	test	eax, eax
	jne	L385
LVL316:
L388:
	.loc 1 586 0
	mov	ecx, DWORD PTR [esp+52]
	lea	ecx, [ecx+ecx*4]
	mov	DWORD PTR [esp+48], ecx
	xor	ebx, ebx
	test	ecx, ecx
	jle	L387
	mov	DWORD PTR [esp+52], edi
LVL317:
	.p2align 2,,3
L396:
LBB66:
	.loc 1 587 0
	mov	ebp, DWORD PTR [esi+ebx*4]
LVL318:
	.loc 1 588 0
	mov	edx, DWORD PTR [esi+4+ebx*4]
LVL319:
	.loc 1 590 0
	mov	ecx, DWORD PTR [esi+12+ebx*4]
LVL320:
	mov	eax, DWORD PTR [esi+16+ebx*4]
	sub	eax, ecx
	.loc 1 591 0
	mov	DWORD PTR [esp+4], eax
	mov	DWORD PTR [esp], ecx
	mov	DWORD PTR [esp+40], edx
	call	_g_strndup
LVL321:
	.loc 1 593 0
	mov	DWORD PTR [esp], eax
	mov	DWORD PTR [esp+44], eax
	call	_purple_unescape_text
LVL322:
	mov	edi, eax
LVL323:
	.loc 1 594 0
	mov	ecx, DWORD PTR [esp+44]
	mov	DWORD PTR [esp], ecx
	call	_g_free
LVL324:
	.loc 1 595 0
	mov	DWORD PTR [esp+16], edi
	mov	edx, DWORD PTR [esp+40]
	mov	DWORD PTR [esp+12], edx
	mov	DWORD PTR [esp+8], 0
	mov	DWORD PTR [esp+4], ebp
	mov	eax, DWORD PTR [esp+52]
	mov	DWORD PTR [esp], eax
	call	_xmlnode_set_attrib_full
LVL325:
	.loc 1 596 0
	mov	DWORD PTR [esp], edi
	call	_g_free
LVL326:
LBE66:
	.loc 1 586 0
	add	ebx, 5
LVL327:
	cmp	ebx, DWORD PTR [esp+48]
	jl	L396
	mov	edi, DWORD PTR [esp+52]
LVL328:
L387:
	.loc 1 599 0
	mov	ecx, DWORD PTR [esp+56]
	mov	DWORD PTR [ecx], edi
LVL329:
L381:
LBE65:
LBE64:
	.loc 1 601 0
	mov	ecx, DWORD PTR [esp+76]
	xor	ecx, DWORD PTR ___stack_chk_guard
	jne	L402
	add	esp, 92
LCFI185:
	.cfi_remember_state
	.cfi_def_cfa_offset 20
	pop	ebx
LCFI186:
	.cfi_restore 3
	.cfi_def_cfa_offset 16
	pop	esi
LCFI187:
	.cfi_restore 6
	.cfi_def_cfa_offset 12
	pop	edi
LCFI188:
	.cfi_restore 7
	.cfi_def_cfa_offset 8
	pop	ebp
LCFI189:
	.cfi_restore 5
	.cfi_def_cfa_offset 4
	ret
LVL330:
	.p2align 2,,3
L383:
LCFI190:
	.cfi_restore_state
LBB70:
LBB69:
	.loc 1 569 0
	mov	DWORD PTR [esp], eax
	mov	DWORD PTR [esp+40], edx
	call	_xmlnode_new
LVL331:
	mov	edi, eax
LVL332:
	mov	edx, DWORD PTR [esp+40]
	jmp	L384
LVL333:
	.p2align 2,,3
L385:
	.loc 1 575 0
	mov	DWORD PTR [esp+12], OFFSET FLAT:_g_free
	mov	DWORD PTR [esp+8], OFFSET FLAT:_g_free
	mov	DWORD PTR [esp+4], OFFSET FLAT:_g_str_equal
	mov	DWORD PTR [esp], OFFSET FLAT:_g_str_hash
	call	_g_hash_table_new_full
LVL334:
	mov	DWORD PTR [edi+40], eax
LVL335:
	.loc 1 578 0
	mov	eax, DWORD PTR [esp+48]
	test	eax, eax
	jle	L388
	xor	ebx, ebx
LVL336:
	mov	DWORD PTR [esp+60], esi
	jmp	L391
LVL337:
	.p2align 2,,3
L389:
LBB67:
	.loc 1 582 0
	mov	DWORD PTR [esp], eax
	mov	DWORD PTR [esp+40], edx
	call	_g_strdup
LVL338:
	mov	esi, eax
	mov	edx, DWORD PTR [esp+40]
	test	edx, edx
	je	L403
L390:
	mov	DWORD PTR [esp], edx
	call	_g_strdup
LVL339:
	.loc 1 581 0
	mov	DWORD PTR [esp+8], esi
	mov	DWORD PTR [esp+4], eax
	mov	eax, DWORD PTR [edi+40]
	mov	DWORD PTR [esp], eax
	call	_g_hash_table_insert
LVL340:
LBE67:
	.loc 1 578 0
	inc	ebx
LVL341:
	cmp	ebx, DWORD PTR [esp+48]
	je	L404
LVL342:
L391:
LBB68:
	.loc 1 579 0
	mov	edx, DWORD PTR [ebp+0+ebx*8]
LVL343:
	.loc 1 580 0
	mov	eax, DWORD PTR [ebp+4+ebx*8]
LVL344:
	.loc 1 582 0
	test	eax, eax
	jne	L389
	mov	eax, OFFSET FLAT:LC15
LVL345:
	jmp	L389
LVL346:
	.p2align 2,,3
L403:
	mov	edx, OFFSET FLAT:LC15
	jmp	L390
LVL347:
	.p2align 2,,3
L404:
	mov	esi, DWORD PTR [esp+60]
	jmp	L388
LVL348:
L402:
LBE68:
LBE69:
LBE70:
	.loc 1 601 0
	call	___stack_chk_fail
LVL349:
	.cfi_endproc
LFE120:
	.p2align 2,,3
	.globl	_xmlnode_set_attrib_with_prefix
	.def	_xmlnode_set_attrib_with_prefix;	.scl	2;	.type	32;	.endef
_xmlnode_set_attrib_with_prefix:
LFB102:
	.loc 1 201 0
	.cfi_startproc
LVL350:
	sub	esp, 60
LCFI191:
	.cfi_def_cfa_offset 64
	.loc 1 201 0
	mov	eax, DWORD PTR ___stack_chk_guard
	mov	DWORD PTR [esp+44], eax
	xor	eax, eax
	.loc 1 202 0
	mov	eax, DWORD PTR [esp+76]
	mov	DWORD PTR [esp+16], eax
	mov	eax, DWORD PTR [esp+72]
	mov	DWORD PTR [esp+12], eax
	mov	DWORD PTR [esp+8], 0
	mov	eax, DWORD PTR [esp+68]
	mov	DWORD PTR [esp+4], eax
	mov	eax, DWORD PTR [esp+64]
	mov	DWORD PTR [esp], eax
	call	_xmlnode_set_attrib_full
LVL351:
	.loc 1 203 0
	mov	eax, DWORD PTR [esp+44]
	xor	eax, DWORD PTR ___stack_chk_guard
	jne	L408
	add	esp, 60
LCFI192:
	.cfi_remember_state
	.cfi_def_cfa_offset 4
	ret
L408:
LCFI193:
	.cfi_restore_state
	call	___stack_chk_fail
LVL352:
	.cfi_endproc
LFE102:
	.p2align 2,,3
	.globl	_xmlnode_set_attrib_with_namespace
	.def	_xmlnode_set_attrib_with_namespace;	.scl	2;	.type	32;	.endef
_xmlnode_set_attrib_with_namespace:
LFB101:
	.loc 1 195 0
	.cfi_startproc
LVL353:
	sub	esp, 60
LCFI194:
	.cfi_def_cfa_offset 64
	.loc 1 195 0
	mov	eax, DWORD PTR ___stack_chk_guard
	mov	DWORD PTR [esp+44], eax
	xor	eax, eax
	.loc 1 196 0
	mov	eax, DWORD PTR [esp+76]
	mov	DWORD PTR [esp+16], eax
	mov	DWORD PTR [esp+12], 0
	mov	eax, DWORD PTR [esp+72]
	mov	DWORD PTR [esp+8], eax
	mov	eax, DWORD PTR [esp+68]
	mov	DWORD PTR [esp+4], eax
	mov	eax, DWORD PTR [esp+64]
	mov	DWORD PTR [esp], eax
	call	_xmlnode_set_attrib_full
LVL354:
	.loc 1 197 0
	mov	eax, DWORD PTR [esp+44]
	xor	eax, DWORD PTR ___stack_chk_guard
	jne	L412
	add	esp, 60
LCFI195:
	.cfi_remember_state
	.cfi_def_cfa_offset 4
	ret
L412:
LCFI196:
	.cfi_restore_state
	call	___stack_chk_fail
LVL355:
	.cfi_endproc
LFE101:
	.p2align 2,,3
	.globl	_xmlnode_remove_attrib
	.def	_xmlnode_remove_attrib;	.scl	2;	.type	32;	.endef
_xmlnode_remove_attrib:
LFB98:
	.loc 1 124 0
	.cfi_startproc
LVL356:
	push	ebp
LCFI197:
	.cfi_def_cfa_offset 8
	.cfi_offset 5, -8
	push	edi
LCFI198:
	.cfi_def_cfa_offset 12
	.cfi_offset 7, -12
	push	esi
LCFI199:
	.cfi_def_cfa_offset 16
	.cfi_offset 6, -16
	push	ebx
LCFI200:
	.cfi_def_cfa_offset 20
	.cfi_offset 3, -20
	sub	esp, 44
LCFI201:
	.cfi_def_cfa_offset 64
	mov	edi, DWORD PTR [esp+64]
	mov	ebp, DWORD PTR [esp+68]
	.loc 1 124 0
	mov	eax, DWORD PTR ___stack_chk_guard
	mov	DWORD PTR [esp+28], eax
	xor	eax, eax
LVL357:
LBB71:
	.loc 1 127 0
	test	edi, edi
	je	L433
LVL358:
LBE71:
LBB72:
	.loc 1 128 0
	test	ebp, ebp
	je	L434
LVL359:
LBE72:
	.loc 1 130 0
	mov	ebx, DWORD PTR [edi+24]
LVL360:
	.loc 1 131 0
	xor	esi, esi
	test	ebx, ebx
	jne	L428
	jmp	L413
LVL361:
	.p2align 2,,3
L416:
	.loc 1 151 0
	mov	ebx, DWORD PTR [ebx+32]
LVL362:
L419:
	mov	esi, ebx
	.loc 1 131 0 discriminator 1
	test	ebx, ebx
	je	L413
LVL363:
L428:
	.loc 1 132 0
	cmp	DWORD PTR [ebx+8], 1
	jne	L416
	.loc 1 133 0 discriminator 1
	mov	DWORD PTR [esp+4], ebp
	mov	eax, DWORD PTR [ebx]
	mov	DWORD PTR [esp], eax
	call	_purple_strequal
LVL364:
	.loc 1 132 0 discriminator 1
	test	eax, eax
	je	L416
	.loc 1 135 0
	cmp	DWORD PTR [edi+28], ebx
	je	L435
	.loc 1 139 0
	mov	eax, DWORD PTR [ebx+32]
	.loc 1 138 0
	test	esi, esi
	je	L436
L418:
	.loc 1 143 0
	mov	DWORD PTR [esi+32], eax
	.loc 1 144 0
	mov	esi, DWORD PTR [ebx+32]
LVL365:
	.loc 1 145 0
	mov	DWORD PTR [esp], ebx
	call	_xmlnode_free
LVL366:
	.loc 1 146 0
	mov	ebx, esi
	mov	esi, ebx
LVL367:
	.loc 1 131 0
	test	ebx, ebx
	jne	L428
LVL368:
	.p2align 2,,3
L413:
	.loc 1 155 0
	mov	eax, DWORD PTR [esp+28]
	xor	eax, DWORD PTR ___stack_chk_guard
	jne	L437
	add	esp, 44
LCFI202:
	.cfi_remember_state
	.cfi_def_cfa_offset 20
	pop	ebx
LCFI203:
	.cfi_restore 3
	.cfi_def_cfa_offset 16
	pop	esi
LCFI204:
	.cfi_restore 6
	.cfi_def_cfa_offset 12
	pop	edi
LCFI205:
	.cfi_restore 7
	.cfi_def_cfa_offset 8
	pop	ebp
LCFI206:
	.cfi_restore 5
	.cfi_def_cfa_offset 4
	ret
LVL369:
	.p2align 2,,3
L433:
LCFI207:
	.cfi_restore_state
	.loc 1 127 0
	mov	DWORD PTR [esp+8], OFFSET FLAT:LC10
	mov	DWORD PTR [esp+4], OFFSET FLAT:___PRETTY_FUNCTION__.47516
	mov	DWORD PTR [esp], 0
	call	_g_return_if_fail_warning
LVL370:
	jmp	L413
LVL371:
	.p2align 2,,3
L434:
	.loc 1 128 0
	mov	DWORD PTR [esp+8], OFFSET FLAT:LC13
	mov	DWORD PTR [esp+4], OFFSET FLAT:___PRETTY_FUNCTION__.47516
	mov	DWORD PTR [esp], 0
	call	_g_return_if_fail_warning
LVL372:
	jmp	L413
LVL373:
	.p2align 2,,3
L435:
	.loc 1 136 0
	mov	DWORD PTR [edi+28], esi
	.loc 1 139 0
	mov	eax, DWORD PTR [ebx+32]
	.loc 1 138 0
	test	esi, esi
	jne	L418
	.p2align 2,,3
L436:
	.loc 1 139 0
	mov	DWORD PTR [edi+24], eax
	.loc 1 140 0
	mov	DWORD PTR [esp], ebx
	call	_xmlnode_free
LVL374:
	.loc 1 141 0
	mov	ebx, DWORD PTR [edi+24]
LVL375:
	jmp	L419
LVL376:
L437:
	.loc 1 155 0
	call	___stack_chk_fail
LVL377:
	.cfi_endproc
LFE98:
	.p2align 2,,3
	.globl	_xmlnode_set_attrib
	.def	_xmlnode_set_attrib;	.scl	2;	.type	32;	.endef
_xmlnode_set_attrib:
LFB100:
	.loc 1 188 0
	.cfi_startproc
LVL378:
	push	edi
LCFI208:
	.cfi_def_cfa_offset 8
	.cfi_offset 7, -8
	push	esi
LCFI209:
	.cfi_def_cfa_offset 12
	.cfi_offset 6, -12
	push	ebx
LCFI210:
	.cfi_def_cfa_offset 16
	.cfi_offset 3, -16
	sub	esp, 48
LCFI211:
	.cfi_def_cfa_offset 64
	mov	ebx, DWORD PTR [esp+64]
	mov	esi, DWORD PTR [esp+68]
	mov	edi, DWORD PTR [esp+72]
	.loc 1 188 0
	mov	eax, DWORD PTR ___stack_chk_guard
	mov	DWORD PTR [esp+44], eax
	xor	eax, eax
	.loc 1 189 0
	mov	DWORD PTR [esp+4], esi
	mov	DWORD PTR [esp], ebx
	call	_xmlnode_remove_attrib
LVL379:
	.loc 1 190 0
	mov	DWORD PTR [esp+16], edi
	mov	DWORD PTR [esp+12], 0
	mov	DWORD PTR [esp+8], 0
	mov	DWORD PTR [esp+4], esi
	mov	DWORD PTR [esp], ebx
	call	_xmlnode_set_attrib_full
LVL380:
	.loc 1 191 0
	mov	eax, DWORD PTR [esp+44]
	xor	eax, DWORD PTR ___stack_chk_guard
	jne	L441
	add	esp, 48
LCFI212:
	.cfi_remember_state
	.cfi_def_cfa_offset 16
	pop	ebx
LCFI213:
	.cfi_restore 3
	.cfi_def_cfa_offset 12
	pop	esi
LCFI214:
	.cfi_restore 6
	.cfi_def_cfa_offset 8
	pop	edi
LCFI215:
	.cfi_restore 7
	.cfi_def_cfa_offset 4
	ret
L441:
LCFI216:
	.cfi_restore_state
	call	___stack_chk_fail
LVL381:
	.cfi_endproc
LFE100:
	.section .rdata,"dr"
LC25:
	.ascii "name != NULL\0"
LC26:
	.ascii "/\0"
	.text
	.p2align 2,,3
	.globl	_xmlnode_get_child_with_namespace
	.def	_xmlnode_get_child_with_namespace;	.scl	2;	.type	32;	.endef
_xmlnode_get_child_with_namespace:
LFB113:
	.loc 1 352 0
	.cfi_startproc
LVL382:
	push	ebp
LCFI217:
	.cfi_def_cfa_offset 8
	.cfi_offset 5, -8
	push	edi
LCFI218:
	.cfi_def_cfa_offset 12
	.cfi_offset 7, -12
	push	esi
LCFI219:
	.cfi_def_cfa_offset 16
	.cfi_offset 6, -16
	push	ebx
LCFI220:
	.cfi_def_cfa_offset 20
	.cfi_offset 3, -20
	sub	esp, 60
LCFI221:
	.cfi_def_cfa_offset 80
	mov	ebp, DWORD PTR [esp+80]
	mov	eax, DWORD PTR [esp+84]
	mov	ebx, DWORD PTR [esp+88]
	.loc 1 352 0
	mov	edx, DWORD PTR ___stack_chk_guard
	mov	DWORD PTR [esp+44], edx
	xor	edx, edx
LVL383:
LBB73:
	.loc 1 357 0
	test	ebp, ebp
	je	L472
LVL384:
LBE73:
LBB74:
	.loc 1 358 0
	test	eax, eax
	je	L473
LVL385:
LBE74:
	.loc 1 360 0
	mov	DWORD PTR [esp+8], 2
	mov	DWORD PTR [esp+4], OFFSET FLAT:LC26
	mov	DWORD PTR [esp], eax
	call	_g_strsplit
LVL386:
	mov	DWORD PTR [esp+24], eax
LVL387:
	.loc 1 361 0
	mov	esi, DWORD PTR [eax]
LVL388:
	.loc 1 362 0
	mov	edx, DWORD PTR [eax+4]
	mov	DWORD PTR [esp+28], edx
LVL389:
	.loc 1 364 0
	mov	ebp, DWORD PTR [ebp+24]
LVL390:
	test	ebp, ebp
	jne	L464
	jmp	L448
LVL391:
	.p2align 2,,3
L474:
LBB75:
	.loc 1 368 0
	mov	DWORD PTR [esp], ebp
	call	_xmlnode_get_namespace
LVL392:
	mov	edi, eax
LVL393:
	.loc 1 370 0
	mov	eax, DWORD PTR [ebp+8]
LVL394:
	test	eax, eax
	je	L446
L449:
LBE75:
	.loc 1 364 0
	mov	ebp, DWORD PTR [ebp+32]
LVL395:
	test	ebp, ebp
	je	L448
LVL396:
L464:
LBB76:
	.loc 1 367 0
	test	ebx, ebx
	jne	L474
	.loc 1 366 0
	xor	edi, edi
LVL397:
	.loc 1 370 0
	mov	eax, DWORD PTR [ebp+8]
	test	eax, eax
	jne	L449
L446:
	.loc 1 370 0 is_stmt 0 discriminator 1
	mov	eax, DWORD PTR [ebp+0]
	mov	DWORD PTR [esp+4], eax
	mov	DWORD PTR [esp], esi
	call	_purple_strequal
LVL398:
	test	eax, eax
	je	L449
	.loc 1 371 0 is_stmt 1
	mov	DWORD PTR [esp+4], edi
	mov	DWORD PTR [esp], ebx
	call	_purple_strequal
LVL399:
	test	eax, eax
	je	L449
	mov	eax, ebp
	jmp	L450
LVL400:
	.p2align 2,,3
L448:
	.loc 1 353 0
	xor	eax, eax
L450:
LVL401:
LBE76:
	.loc 1 377 0
	mov	ebp, DWORD PTR [esp+28]
LVL402:
	test	ebp, ebp
	je	L451
	.loc 1 377 0 is_stmt 0 discriminator 1
	test	eax, eax
	je	L451
	.loc 1 378 0 is_stmt 1
	mov	edx, DWORD PTR [esp+28]
	mov	DWORD PTR [esp+4], edx
	mov	DWORD PTR [esp], eax
	call	_xmlnode_get_child
LVL403:
L451:
	.loc 1 380 0
	mov	edx, DWORD PTR [esp+24]
	mov	DWORD PTR [esp], edx
	mov	DWORD PTR [esp+20], eax
	call	_g_strfreev
LVL404:
	mov	eax, DWORD PTR [esp+20]
LVL405:
L452:
	.loc 1 382 0
	mov	edx, DWORD PTR [esp+44]
	xor	edx, DWORD PTR ___stack_chk_guard
	jne	L475
	add	esp, 60
LCFI222:
	.cfi_remember_state
	.cfi_def_cfa_offset 20
	pop	ebx
LCFI223:
	.cfi_restore 3
	.cfi_def_cfa_offset 16
	pop	esi
LCFI224:
	.cfi_restore 6
	.cfi_def_cfa_offset 12
	pop	edi
LCFI225:
	.cfi_restore 7
	.cfi_def_cfa_offset 8
	pop	ebp
LCFI226:
	.cfi_restore 5
	.cfi_def_cfa_offset 4
	ret
LVL406:
L472:
LCFI227:
	.cfi_restore_state
	.loc 1 357 0
	mov	DWORD PTR [esp+8], OFFSET FLAT:LC8
	mov	DWORD PTR [esp+4], OFFSET FLAT:___PRETTY_FUNCTION__.47659
	mov	DWORD PTR [esp], 0
	call	_g_return_if_fail_warning
LVL407:
	xor	eax, eax
	jmp	L452
LVL408:
L473:
	.loc 1 358 0
	mov	DWORD PTR [esp+8], OFFSET FLAT:LC25
	mov	DWORD PTR [esp+4], OFFSET FLAT:___PRETTY_FUNCTION__.47659
	mov	DWORD PTR [esp], 0
	call	_g_return_if_fail_warning
LVL409:
	xor	eax, eax
	jmp	L452
LVL410:
L475:
	.loc 1 382 0
	call	___stack_chk_fail
LVL411:
	.cfi_endproc
LFE113:
	.p2align 2,,3
	.globl	_xmlnode_get_child
	.def	_xmlnode_get_child;	.scl	2;	.type	32;	.endef
_xmlnode_get_child:
LFB112:
	.loc 1 346 0
	.cfi_startproc
LVL412:
	sub	esp, 44
LCFI228:
	.cfi_def_cfa_offset 48
	.loc 1 346 0
	mov	eax, DWORD PTR ___stack_chk_guard
	mov	DWORD PTR [esp+28], eax
	xor	eax, eax
	.loc 1 347 0
	mov	DWORD PTR [esp+8], 0
	mov	eax, DWORD PTR [esp+52]
	mov	DWORD PTR [esp+4], eax
	mov	eax, DWORD PTR [esp+48]
	mov	DWORD PTR [esp], eax
	call	_xmlnode_get_child_with_namespace
LVL413:
	.loc 1 348 0
	mov	edx, DWORD PTR [esp+28]
	xor	edx, DWORD PTR ___stack_chk_guard
	jne	L479
	add	esp, 44
LCFI229:
	.cfi_remember_state
	.cfi_def_cfa_offset 4
	ret
L479:
LCFI230:
	.cfi_restore_state
	call	___stack_chk_fail
LVL414:
	.cfi_endproc
LFE112:
	.p2align 2,,3
	.globl	_xmlnode_get_data
	.def	_xmlnode_get_data;	.scl	2;	.type	32;	.endef
_xmlnode_get_data:
LFB114:
	.loc 1 386 0
	.cfi_startproc
LVL415:
	push	ebx
LCFI231:
	.cfi_def_cfa_offset 8
	.cfi_offset 3, -8
	sub	esp, 40
LCFI232:
	.cfi_def_cfa_offset 48
	mov	eax, DWORD PTR [esp+48]
	.loc 1 386 0
	mov	edx, DWORD PTR ___stack_chk_guard
	mov	DWORD PTR [esp+28], edx
	xor	edx, edx
LVL416:
LBB77:
	.loc 1 390 0
	test	eax, eax
	je	L497
LVL417:
LBE77:
	.loc 1 392 0
	mov	ebx, DWORD PTR [eax+24]
LVL418:
	xor	eax, eax
	test	ebx, ebx
	jne	L491
	jmp	L496
LVL419:
	.p2align 2,,3
L483:
	mov	ebx, DWORD PTR [ebx+32]
LVL420:
	test	ebx, ebx
	je	L498
LVL421:
L491:
	.loc 1 393 0
	cmp	DWORD PTR [ebx+8], 2
	jne	L483
	.loc 1 394 0
	test	eax, eax
	je	L499
	.loc 1 397 0
	mov	edx, DWORD PTR [ebx+16]
	mov	DWORD PTR [esp+8], edx
	mov	edx, DWORD PTR [ebx+12]
	mov	DWORD PTR [esp+4], edx
	mov	DWORD PTR [esp], eax
	call	_g_string_append_len
LVL422:
	.loc 1 392 0
	mov	ebx, DWORD PTR [ebx+32]
LVL423:
	test	ebx, ebx
	jne	L491
L498:
	.loc 1 401 0
	test	eax, eax
	je	L496
	.loc 1 404 0
	mov	DWORD PTR [esp+4], 0
	mov	DWORD PTR [esp], eax
	call	_g_string_free
LVL424:
L487:
	.loc 1 405 0
	mov	edx, DWORD PTR [esp+28]
	xor	edx, DWORD PTR ___stack_chk_guard
	jne	L500
	add	esp, 40
LCFI233:
	.cfi_remember_state
	.cfi_def_cfa_offset 8
	pop	ebx
LCFI234:
	.cfi_restore 3
	.cfi_def_cfa_offset 4
	ret
LVL425:
	.p2align 2,,3
L499:
LCFI235:
	.cfi_restore_state
	.loc 1 395 0
	mov	eax, DWORD PTR [ebx+16]
	mov	DWORD PTR [esp+4], eax
	mov	eax, DWORD PTR [ebx+12]
	mov	DWORD PTR [esp], eax
	call	_g_string_new_len
LVL426:
	jmp	L483
LVL427:
	.p2align 2,,3
L497:
	.loc 1 390 0
	mov	DWORD PTR [esp+8], OFFSET FLAT:LC10
	mov	DWORD PTR [esp+4], OFFSET FLAT:___PRETTY_FUNCTION__.47673
	mov	DWORD PTR [esp], 0
	call	_g_return_if_fail_warning
LVL428:
L496:
	xor	eax, eax
	jmp	L487
L500:
	.loc 1 405 0
	call	___stack_chk_fail
LVL429:
	.cfi_endproc
LFE114:
	.p2align 2,,3
	.globl	_xmlnode_get_data_unescaped
	.def	_xmlnode_get_data_unescaped;	.scl	2;	.type	32;	.endef
_xmlnode_get_data_unescaped:
LFB115:
	.loc 1 409 0
	.cfi_startproc
LVL430:
	push	ebx
LCFI236:
	.cfi_def_cfa_offset 8
	.cfi_offset 3, -8
	sub	esp, 56
LCFI237:
	.cfi_def_cfa_offset 64
	.loc 1 409 0
	mov	eax, DWORD PTR ___stack_chk_guard
	mov	DWORD PTR [esp+44], eax
	xor	eax, eax
	.loc 1 410 0
	mov	eax, DWORD PTR [esp+64]
	mov	DWORD PTR [esp], eax
	call	_xmlnode_get_data
LVL431:
	mov	ebx, eax
LVL432:
	.loc 1 412 0
	test	eax, eax
	je	L504
	.loc 1 412 0 is_stmt 0 discriminator 1
	mov	DWORD PTR [esp], eax
	call	_purple_unescape_html
LVL433:
L502:
	.loc 1 414 0 is_stmt 1 discriminator 3
	mov	DWORD PTR [esp], ebx
	mov	DWORD PTR [esp+28], eax
	call	_g_free
LVL434:
	.loc 1 417 0 discriminator 3
	mov	eax, DWORD PTR [esp+28]
	mov	edx, DWORD PTR [esp+44]
	xor	edx, DWORD PTR ___stack_chk_guard
	jne	L506
	.loc 1 417 0 is_stmt 0
	add	esp, 56
LCFI238:
	.cfi_remember_state
	.cfi_def_cfa_offset 8
	pop	ebx
LCFI239:
	.cfi_restore 3
	.cfi_def_cfa_offset 4
LVL435:
	ret
LVL436:
	.p2align 2,,3
L504:
LCFI240:
	.cfi_restore_state
	.loc 1 412 0 is_stmt 1
	xor	eax, eax
LVL437:
	jmp	L502
L506:
	.loc 1 417 0
	call	___stack_chk_fail
LVL438:
	.cfi_endproc
LFE115:
	.p2align 2,,3
	.globl	_xmlnode_to_str
	.def	_xmlnode_to_str;	.scl	2;	.type	32;	.endef
_xmlnode_to_str:
LFB118:
	.loc 1 526 0
	.cfi_startproc
LVL439:
	sub	esp, 28
LCFI241:
	.cfi_def_cfa_offset 32
	mov	eax, DWORD PTR [esp+32]
	mov	edx, DWORD PTR [esp+36]
	.loc 1 526 0
	mov	ecx, DWORD PTR ___stack_chk_guard
	mov	DWORD PTR [esp+12], ecx
	xor	ecx, ecx
	.loc 1 527 0
	mov	ecx, DWORD PTR [esp+12]
	xor	ecx, DWORD PTR ___stack_chk_guard
	jne	L511
	mov	DWORD PTR [esp+32], 0
	xor	ecx, ecx
	.loc 1 528 0
	add	esp, 28
LCFI242:
	.cfi_remember_state
	.cfi_def_cfa_offset 4
	.loc 1 527 0
	jmp	_xmlnode_to_str_helper
LVL440:
L511:
LCFI243:
	.cfi_restore_state
	call	___stack_chk_fail
LVL441:
	.cfi_endproc
LFE118:
	.section .rdata,"dr"
	.align 4
LC27:
	.ascii "<?xml version='1.0' encoding='UTF-8' ?>\15\12\15\12%s\0"
	.text
	.p2align 2,,3
	.globl	_xmlnode_to_formatted_str
	.def	_xmlnode_to_formatted_str;	.scl	2;	.type	32;	.endef
_xmlnode_to_formatted_str:
LFB119:
	.loc 1 532 0
	.cfi_startproc
LVL442:
	push	esi
LCFI244:
	.cfi_def_cfa_offset 8
	.cfi_offset 6, -8
	push	ebx
LCFI245:
	.cfi_def_cfa_offset 12
	.cfi_offset 3, -12
	sub	esp, 52
LCFI246:
	.cfi_def_cfa_offset 64
	mov	eax, DWORD PTR [esp+64]
	mov	ebx, DWORD PTR [esp+68]
	.loc 1 532 0
	mov	edx, DWORD PTR ___stack_chk_guard
	mov	DWORD PTR [esp+44], edx
	xor	edx, edx
LBB78:
	.loc 1 535 0
	test	eax, eax
	je	L521
LVL443:
LBE78:
	.loc 1 537 0
	mov	DWORD PTR [esp], 0
	mov	ecx, 1
	mov	edx, ebx
	call	_xmlnode_to_str_helper
LVL444:
	mov	esi, eax
LVL445:
	.loc 1 538 0
	mov	DWORD PTR [esp+4], eax
	mov	DWORD PTR [esp], OFFSET FLAT:LC27
	call	_g_strdup_printf
LVL446:
	.loc 1 540 0
	mov	DWORD PTR [esp], esi
	mov	DWORD PTR [esp+28], eax
	call	_g_free
LVL447:
	.loc 1 542 0
	test	ebx, ebx
	mov	eax, DWORD PTR [esp+28]
	je	L515
	.loc 1 543 0
	add	DWORD PTR [ebx], 43
LVL448:
L515:
	.loc 1 546 0
	mov	edx, DWORD PTR [esp+44]
	xor	edx, DWORD PTR ___stack_chk_guard
	jne	L522
	add	esp, 52
LCFI247:
	.cfi_remember_state
	.cfi_def_cfa_offset 12
	pop	ebx
LCFI248:
	.cfi_restore 3
	.cfi_def_cfa_offset 8
	pop	esi
LCFI249:
	.cfi_restore 6
	.cfi_def_cfa_offset 4
	ret
	.p2align 2,,3
L521:
LCFI250:
	.cfi_restore_state
LVL449:
	.loc 1 535 0
	mov	DWORD PTR [esp+8], OFFSET FLAT:LC10
	mov	DWORD PTR [esp+4], OFFSET FLAT:___PRETTY_FUNCTION__.47726
	mov	DWORD PTR [esp], 0
	call	_g_return_if_fail_warning
LVL450:
	xor	eax, eax
	jmp	L515
LVL451:
L522:
	.loc 1 546 0
	call	___stack_chk_fail
LVL452:
	.cfi_endproc
LFE119:
	.section .rdata,"dr"
LC28:
	.ascii "str != NULL\0"
	.text
	.p2align 2,,3
	.globl	_xmlnode_from_str
	.def	_xmlnode_from_str;	.scl	2;	.type	32;	.endef
_xmlnode_from_str:
LFB125:
	.loc 1 707 0
	.cfi_startproc
LVL453:
	push	edi
LCFI251:
	.cfi_def_cfa_offset 8
	.cfi_offset 7, -8
	push	esi
LCFI252:
	.cfi_def_cfa_offset 12
	.cfi_offset 6, -12
	push	ebx
LCFI253:
	.cfi_def_cfa_offset 16
	.cfi_offset 3, -16
	sub	esp, 32
LCFI254:
	.cfi_def_cfa_offset 48
	mov	esi, DWORD PTR [esp+48]
	mov	eax, DWORD PTR [esp+52]
	.loc 1 707 0
	mov	edx, DWORD PTR ___stack_chk_guard
	mov	DWORD PTR [esp+28], edx
	xor	edx, edx
LBB79:
	.loc 1 712 0
	test	esi, esi
	je	L549
LVL454:
LBE79:
	.loc 1 714 0
	test	eax, eax
	js	L550
	.loc 1 714 0 is_stmt 0 discriminator 2
	mov	edi, eax
LVL455:
L526:
	.loc 1 715 0 is_stmt 1 discriminator 3
	mov	DWORD PTR [esp], 8
	call	_g_malloc0
LVL456:
	mov	ebx, eax
LVL457:
	.loc 1 717 0 discriminator 3
	mov	DWORD PTR [esp+12], edi
	mov	DWORD PTR [esp+8], esi
	mov	DWORD PTR [esp+4], eax
	mov	DWORD PTR [esp], OFFSET FLAT:_xmlnode_parser_libxml
	call	_xmlSAXUserParseMemory
LVL458:
	test	eax, eax
	js	L527
	mov	esi, DWORD PTR [ebx]
LVL459:
	.loc 1 725 0
	mov	eax, DWORD PTR [ebx+4]
	test	eax, eax
	jne	L528
LVL460:
L529:
	.loc 1 731 0
	mov	DWORD PTR [esp], ebx
	call	_g_free
LVL461:
L536:
	.loc 1 733 0
	mov	eax, esi
	mov	edx, DWORD PTR [esp+28]
	xor	edx, DWORD PTR ___stack_chk_guard
	jne	L551
	add	esp, 32
LCFI255:
	.cfi_remember_state
	.cfi_def_cfa_offset 16
	pop	ebx
LCFI256:
	.cfi_restore 3
	.cfi_def_cfa_offset 12
	pop	esi
LCFI257:
	.cfi_restore 6
	.cfi_def_cfa_offset 8
	pop	edi
LCFI258:
	.cfi_restore 7
	.cfi_def_cfa_offset 4
	ret
LVL462:
	.p2align 2,,3
L528:
LCFI259:
	.cfi_restore_state
	.loc 1 727 0
	test	esi, esi
	je	L548
	.loc 1 728 0
	mov	DWORD PTR [esp], esi
	call	_xmlnode_free
LVL463:
L548:
	.loc 1 726 0
	xor	esi, esi
	jmp	L529
LVL464:
	.p2align 2,,3
L527:
	.loc 1 718 0 discriminator 1
	mov	edx, DWORD PTR [ebx]
	test	edx, edx
	je	L530
	.loc 1 718 0 is_stmt 0
	mov	eax, DWORD PTR [edx+20]
	test	eax, eax
	je	L552
	.loc 1 719 0 is_stmt 1
	mov	DWORD PTR [ebx], eax
	jmp	L539
	.p2align 2,,3
L533:
	mov	DWORD PTR [ebx], edx
	mov	eax, edx
L539:
	.loc 1 718 0 discriminator 2
	mov	edx, DWORD PTR [eax+20]
	test	edx, edx
	jne	L533
L532:
	.loc 1 721 0
	mov	DWORD PTR [esp], eax
	call	_xmlnode_free
LVL465:
L530:
	.loc 1 722 0
	mov	DWORD PTR [ebx], 0
LVL466:
	.loc 1 726 0
	xor	esi, esi
	jmp	L529
LVL467:
	.p2align 2,,3
L550:
	.loc 1 714 0 discriminator 1
	xor	eax, eax
	mov	ecx, -1
	mov	edi, esi
	repne scasb
LVL468:
	not	ecx
	lea	edi, [ecx-1]
	jmp	L526
LVL469:
	.p2align 2,,3
L549:
	.loc 1 712 0
	mov	DWORD PTR [esp+8], OFFSET FLAT:LC28
	mov	DWORD PTR [esp+4], OFFSET FLAT:___PRETTY_FUNCTION__.47793
	mov	DWORD PTR [esp], 0
	call	_g_return_if_fail_warning
LVL470:
	xor	esi, esi
	jmp	L536
LVL471:
L552:
	.loc 1 718 0
	mov	eax, edx
	jmp	L532
LVL472:
L551:
	.loc 1 733 0
	call	___stack_chk_fail
LVL473:
	.cfi_endproc
LFE125:
	.section .rdata,"dr"
	.align 4
LC29:
	.ascii "File %s does not exist (this is not necessarily an error)\12\0"
LC30:
	.ascii "Error reading file %s: %s\12\0"
LC31:
	.ascii "%s~\0"
	.align 4
LC32:
	.ascii "Error parsing file %s.  Renaming old file to %s\12\0"
LC33:
	.ascii "util\0"
LC34:
	.ascii "Error Reading %s\0"
LC35:
	.ascii "pidgin\0"
	.align 4
LC36:
	.ascii "An error was encountered reading your %s.  The file has not been loaded, and the old file has been renamed to %s~.\0"
LC37:
	.ascii "dir != NULL\0"
	.align 4
LC38:
	.ascii "Reading file %s from directory %s\12\0"
	.text
	.p2align 2,,3
	.globl	_xmlnode_from_file
	.def	_xmlnode_from_file;	.scl	2;	.type	32;	.endef
_xmlnode_from_file:
LFB126:
	.loc 1 737 0
	.cfi_startproc
LVL474:
	push	ebp
LCFI260:
	.cfi_def_cfa_offset 8
	.cfi_offset 5, -8
	push	edi
LCFI261:
	.cfi_def_cfa_offset 12
	.cfi_offset 7, -12
	push	esi
LCFI262:
	.cfi_def_cfa_offset 16
	.cfi_offset 6, -16
	push	ebx
LCFI263:
	.cfi_def_cfa_offset 20
	.cfi_offset 3, -20
	sub	esp, 76
LCFI264:
	.cfi_def_cfa_offset 96
	mov	esi, DWORD PTR [esp+96]
	mov	edi, DWORD PTR [esp+100]
	mov	edx, DWORD PTR [esp+104]
	mov	DWORD PTR [esp+44], edx
	mov	ebp, DWORD PTR [esp+108]
	.loc 1 737 0
	mov	eax, DWORD PTR ___stack_chk_guard
	mov	DWORD PTR [esp+60], eax
	xor	eax, eax
	.loc 1 739 0
	mov	DWORD PTR [esp+48], 0
LVL475:
	.loc 1 740 0
	mov	DWORD PTR [esp+52], 0
LVL476:
LBB80:
	.loc 1 744 0
	test	esi, esi
	je	L574
LVL477:
LBE80:
	.loc 1 746 0
	mov	DWORD PTR [esp+12], esi
	mov	DWORD PTR [esp+8], edi
	mov	DWORD PTR [esp+4], OFFSET FLAT:LC38
	mov	DWORD PTR [esp], ebp
	call	_purple_debug_info
LVL478:
	.loc 1 749 0
	mov	DWORD PTR [esp+8], 0
	mov	DWORD PTR [esp+4], edi
	mov	DWORD PTR [esp], esi
	call	_g_build_filename
LVL479:
	mov	ebx, eax
LVL480:
	.loc 1 751 0
	mov	DWORD PTR [esp+4], 16
	mov	DWORD PTR [esp], eax
	call	_g_file_test_utf8
LVL481:
	test	eax, eax
	je	L575
	.loc 1 759 0
	lea	eax, [esp+48]
	mov	DWORD PTR [esp+12], eax
	lea	eax, [esp+56]
	mov	DWORD PTR [esp+8], eax
	lea	eax, [esp+52]
	mov	DWORD PTR [esp+4], eax
	mov	DWORD PTR [esp], ebx
	call	_g_file_get_contents_utf8
LVL482:
	test	eax, eax
	je	L576
L557:
	.loc 1 766 0
	mov	eax, DWORD PTR [esp+52]
	test	eax, eax
	je	L558
LVL483:
	.loc 1 766 0 is_stmt 0 discriminator 1
	mov	edx, DWORD PTR [esp+56]
	test	edx, edx
	jne	L577
L558:
LBB81:
	.loc 1 793 0 is_stmt 1
	mov	DWORD PTR [esp+4], OFFSET FLAT:LC34
	mov	DWORD PTR [esp], OFFSET FLAT:LC35
	call	_libintl_dgettext
LVL484:
	mov	DWORD PTR [esp+4], edi
	mov	DWORD PTR [esp], eax
	call	_g_strdup_printf
LVL485:
	mov	esi, eax
LVL486:
	.loc 1 794 0
	mov	DWORD PTR [esp+4], OFFSET FLAT:LC36
	mov	DWORD PTR [esp], OFFSET FLAT:LC35
	call	_libintl_dgettext
LVL487:
	mov	DWORD PTR [esp+8], ebx
	mov	edx, DWORD PTR [esp+44]
	mov	DWORD PTR [esp+4], edx
	mov	DWORD PTR [esp], eax
	call	_g_strdup_printf
LVL488:
	mov	edi, eax
LVL489:
	.loc 1 797 0
	mov	DWORD PTR [esp+24], 0
	mov	DWORD PTR [esp+20], 0
	mov	DWORD PTR [esp+16], eax
	mov	DWORD PTR [esp+12], esi
	mov	DWORD PTR [esp+8], 0
	mov	DWORD PTR [esp+4], 0
	mov	DWORD PTR [esp], 0
	call	_purple_notify_message
LVL490:
	.loc 1 798 0
	mov	DWORD PTR [esp], esi
	call	_g_free
LVL491:
	.loc 1 799 0
	mov	DWORD PTR [esp], edi
	call	_g_free
LVL492:
	xor	ebp, ebp
LVL493:
L562:
LBE81:
	.loc 1 802 0
	mov	DWORD PTR [esp], ebx
	call	_g_free
LVL494:
L556:
	.loc 1 805 0
	mov	eax, ebp
	mov	edx, DWORD PTR [esp+60]
	xor	edx, DWORD PTR ___stack_chk_guard
	jne	L578
	add	esp, 76
LCFI265:
	.cfi_remember_state
	.cfi_def_cfa_offset 20
	pop	ebx
LCFI266:
	.cfi_restore 3
	.cfi_def_cfa_offset 16
	pop	esi
LCFI267:
	.cfi_restore 6
	.cfi_def_cfa_offset 12
	pop	edi
LCFI268:
	.cfi_restore 7
	.cfi_def_cfa_offset 8
	pop	ebp
LCFI269:
	.cfi_restore 5
	.cfi_def_cfa_offset 4
	ret
LVL495:
	.p2align 2,,3
L576:
LCFI270:
	.cfi_restore_state
	.loc 1 762 0
	mov	eax, DWORD PTR [esp+48]
	.loc 1 761 0
	mov	eax, DWORD PTR [eax+8]
	mov	DWORD PTR [esp+12], eax
	mov	DWORD PTR [esp+8], ebx
	mov	DWORD PTR [esp+4], OFFSET FLAT:LC30
	mov	DWORD PTR [esp], ebp
	call	_purple_debug_error
LVL496:
	.loc 1 763 0
	mov	eax, DWORD PTR [esp+48]
	mov	DWORD PTR [esp], eax
	call	_g_error_free
LVL497:
	jmp	L557
LVL498:
	.p2align 2,,3
L577:
	.loc 1 768 0
	mov	DWORD PTR [esp+4], edx
	mov	DWORD PTR [esp], eax
	call	_xmlnode_from_str
LVL499:
	mov	ebp, eax
LVL500:
	.loc 1 771 0
	test	eax, eax
	je	L579
	.loc 1 786 0
	mov	eax, DWORD PTR [esp+52]
LVL501:
	mov	DWORD PTR [esp], eax
	call	_g_free
LVL502:
	jmp	L562
LVL503:
	.p2align 2,,3
L574:
	.loc 1 744 0
	mov	DWORD PTR [esp+8], OFFSET FLAT:LC37
	mov	DWORD PTR [esp+4], OFFSET FLAT:___PRETTY_FUNCTION__.47810
	mov	DWORD PTR [esp], 0
	call	_g_return_if_fail_warning
LVL504:
	xor	ebp, ebp
	jmp	L556
LVL505:
	.p2align 2,,3
L575:
	.loc 1 753 0
	mov	DWORD PTR [esp+8], ebx
	mov	DWORD PTR [esp+4], OFFSET FLAT:LC29
	mov	DWORD PTR [esp], ebp
	call	_purple_debug_info
LVL506:
	.loc 1 755 0
	mov	DWORD PTR [esp], ebx
	call	_g_free
LVL507:
	.loc 1 756 0
	xor	ebp, ebp
	jmp	L556
LVL508:
L579:
LBB82:
	.loc 1 775 0
	mov	DWORD PTR [esp+4], edi
	mov	DWORD PTR [esp], OFFSET FLAT:LC31
	call	_g_strdup_printf
LVL509:
	mov	ebp, eax
LVL510:
	.loc 1 776 0
	mov	DWORD PTR [esp+8], 0
	mov	DWORD PTR [esp+4], eax
	mov	DWORD PTR [esp], esi
	call	_g_build_filename
LVL511:
	mov	esi, eax
LVL512:
	.loc 1 778 0
	mov	DWORD PTR [esp+12], ebp
	mov	DWORD PTR [esp+8], ebx
	mov	DWORD PTR [esp+4], OFFSET FLAT:LC32
	mov	DWORD PTR [esp], OFFSET FLAT:LC33
	call	_purple_debug_error
LVL513:
	.loc 1 780 0
	mov	eax, DWORD PTR [esp+56]
	mov	DWORD PTR [esp+8], eax
	mov	eax, DWORD PTR [esp+52]
	mov	DWORD PTR [esp+4], eax
	mov	DWORD PTR [esp], esi
	call	_purple_util_write_data_to_file_absolute
LVL514:
	.loc 1 782 0
	mov	DWORD PTR [esp], esi
	call	_g_free
LVL515:
	.loc 1 783 0
	mov	DWORD PTR [esp], ebp
	call	_g_free
LVL516:
LBE82:
	.loc 1 786 0
	mov	eax, DWORD PTR [esp+52]
	mov	DWORD PTR [esp], eax
	call	_g_free
LVL517:
	jmp	L558
LVL518:
L578:
	.loc 1 805 0
	call	___stack_chk_fail
LVL519:
	.cfi_endproc
LFE126:
	.section .rdata,"dr"
LC39:
	.ascii "src != NULL\0"
	.text
	.p2align 2,,3
	.globl	_xmlnode_copy
	.def	_xmlnode_copy;	.scl	2;	.type	32;	.endef
_xmlnode_copy:
LFB128:
	.loc 1 816 0
	.cfi_startproc
LVL520:
	push	edi
LCFI271:
	.cfi_def_cfa_offset 8
	.cfi_offset 7, -8
	push	esi
LCFI272:
	.cfi_def_cfa_offset 12
	.cfi_offset 6, -12
	push	ebx
LCFI273:
	.cfi_def_cfa_offset 16
	.cfi_offset 3, -16
	sub	esp, 32
LCFI274:
	.cfi_def_cfa_offset 48
	mov	ebx, DWORD PTR [esp+48]
	.loc 1 816 0
	mov	eax, DWORD PTR ___stack_chk_guard
	mov	DWORD PTR [esp+28], eax
	xor	eax, eax
LVL521:
LBB83:
	.loc 1 821 0
	test	ebx, ebx
	je	L598
LVL522:
LBE83:
	.loc 1 823 0
	mov	edx, DWORD PTR [ebx+8]
	mov	eax, DWORD PTR [ebx]
	call	_new_node
LVL523:
	mov	edi, eax
LVL524:
	.loc 1 824 0
	mov	eax, DWORD PTR [ebx+4]
LVL525:
	mov	DWORD PTR [esp], eax
	call	_g_strdup
LVL526:
	mov	DWORD PTR [edi+4], eax
	.loc 1 825 0
	mov	eax, DWORD PTR [ebx+12]
	test	eax, eax
	je	L584
	.loc 1 826 0
	mov	edx, DWORD PTR [ebx+16]
	test	edx, edx
	je	L583
	.loc 1 827 0
	mov	DWORD PTR [esp+4], edx
	mov	DWORD PTR [esp], eax
	call	_g_memdup
LVL527:
	mov	DWORD PTR [edi+12], eax
	.loc 1 828 0
	mov	eax, DWORD PTR [ebx+16]
	mov	DWORD PTR [edi+16], eax
L584:
	.loc 1 833 0
	mov	eax, DWORD PTR [ebx+36]
	mov	DWORD PTR [esp], eax
	call	_g_strdup
LVL528:
	mov	DWORD PTR [edi+36], eax
	.loc 1 834 0
	mov	eax, DWORD PTR [ebx+40]
	test	eax, eax
	je	L585
	.loc 1 835 0
	mov	DWORD PTR [esp+12], OFFSET FLAT:_g_free
	mov	DWORD PTR [esp+8], OFFSET FLAT:_g_free
	mov	DWORD PTR [esp+4], OFFSET FLAT:_g_str_equal
	mov	DWORD PTR [esp], OFFSET FLAT:_g_str_hash
	call	_g_hash_table_new_full
LVL529:
	mov	DWORD PTR [edi+40], eax
	.loc 1 837 0
	mov	DWORD PTR [esp+8], eax
	mov	DWORD PTR [esp+4], OFFSET FLAT:_xmlnode_copy_foreach_ns
	mov	eax, DWORD PTR [ebx+40]
	mov	DWORD PTR [esp], eax
	call	_g_hash_table_foreach
LVL530:
L585:
	.loc 1 840 0
	mov	ebx, DWORD PTR [ebx+24]
LVL531:
	xor	esi, esi
	test	ebx, ebx
	jne	L589
	jmp	L586
LVL532:
	.p2align 2,,3
L599:
	.loc 1 842 0
	call	_xmlnode_copy
LVL533:
	mov	DWORD PTR [esi+32], eax
LVL534:
	.loc 1 843 0
	mov	esi, eax
	.loc 1 847 0
	mov	DWORD PTR [esi+20], edi
	.loc 1 840 0
	mov	ebx, DWORD PTR [ebx+32]
LVL535:
	test	ebx, ebx
	je	L586
LVL536:
L589:
	.loc 1 842 0
	mov	DWORD PTR [esp], ebx
	.loc 1 841 0
	test	esi, esi
	jne	L599
	.loc 1 845 0
	call	_xmlnode_copy
LVL537:
	mov	esi, eax
LVL538:
	mov	DWORD PTR [edi+24], eax
	.loc 1 847 0
	mov	DWORD PTR [esi+20], edi
	.loc 1 840 0
	mov	ebx, DWORD PTR [ebx+32]
LVL539:
	test	ebx, ebx
	jne	L589
LVL540:
	.p2align 2,,3
L586:
	.loc 1 850 0
	mov	DWORD PTR [edi+28], esi
LVL541:
L590:
	.loc 1 853 0
	mov	eax, edi
	mov	edx, DWORD PTR [esp+28]
	xor	edx, DWORD PTR ___stack_chk_guard
	jne	L600
	add	esp, 32
LCFI275:
	.cfi_remember_state
	.cfi_def_cfa_offset 16
	pop	ebx
LCFI276:
	.cfi_restore 3
	.cfi_def_cfa_offset 12
	pop	esi
LCFI277:
	.cfi_restore 6
	.cfi_def_cfa_offset 8
	pop	edi
LCFI278:
	.cfi_restore 7
	.cfi_def_cfa_offset 4
	ret
LVL542:
	.p2align 2,,3
L583:
LCFI279:
	.cfi_restore_state
	.loc 1 830 0
	mov	DWORD PTR [esp], eax
	call	_g_strdup
LVL543:
	mov	DWORD PTR [edi+12], eax
	jmp	L584
LVL544:
	.p2align 2,,3
L598:
	.loc 1 821 0
	mov	DWORD PTR [esp+8], OFFSET FLAT:LC39
	mov	DWORD PTR [esp+4], OFFSET FLAT:___PRETTY_FUNCTION__.47829
	mov	DWORD PTR [esp], 0
	call	_g_return_if_fail_warning
LVL545:
	xor	edi, edi
	jmp	L590
LVL546:
L600:
	.loc 1 853 0
	call	___stack_chk_fail
LVL547:
	.cfi_endproc
LFE128:
	.section .rdata,"dr"
	.align 4
LC40:
	.ascii "node->type == XMLNODE_TYPE_TAG\0"
	.text
	.p2align 2,,3
	.globl	_xmlnode_get_next_twin
	.def	_xmlnode_get_next_twin;	.scl	2;	.type	32;	.endef
_xmlnode_get_next_twin:
LFB129:
	.loc 1 857 0
	.cfi_startproc
LVL548:
	push	ebp
LCFI280:
	.cfi_def_cfa_offset 8
	.cfi_offset 5, -8
	push	edi
LCFI281:
	.cfi_def_cfa_offset 12
	.cfi_offset 7, -12
	push	esi
LCFI282:
	.cfi_def_cfa_offset 16
	.cfi_offset 6, -16
	push	ebx
LCFI283:
	.cfi_def_cfa_offset 20
	.cfi_offset 3, -20
	sub	esp, 44
LCFI284:
	.cfi_def_cfa_offset 64
	mov	ebp, DWORD PTR [esp+64]
	.loc 1 857 0
	mov	eax, DWORD PTR ___stack_chk_guard
	mov	DWORD PTR [esp+28], eax
	xor	eax, eax
	.loc 1 859 0
	mov	DWORD PTR [esp], ebp
	call	_xmlnode_get_namespace
LVL549:
LBB84:
	.loc 1 861 0
	test	ebp, ebp
	je	L622
LVL550:
LBE84:
LBB85:
	.loc 1 862 0
	mov	edx, DWORD PTR [ebp+8]
	test	edx, edx
	je	L610
LVL551:
LBE85:
	mov	DWORD PTR [esp+8], OFFSET FLAT:LC40
	mov	DWORD PTR [esp+4], OFFSET FLAT:___PRETTY_FUNCTION__.47840
	mov	DWORD PTR [esp], 0
	call	_g_return_if_fail_warning
LVL552:
	xor	ebx, ebx
LVL553:
L609:
	.loc 1 876 0
	mov	eax, ebx
	mov	edx, DWORD PTR [esp+28]
	xor	edx, DWORD PTR ___stack_chk_guard
	jne	L623
	add	esp, 44
LCFI285:
	.cfi_remember_state
	.cfi_def_cfa_offset 20
	pop	ebx
LCFI286:
	.cfi_restore 3
	.cfi_def_cfa_offset 16
	pop	esi
LCFI287:
	.cfi_restore 6
	.cfi_def_cfa_offset 12
	pop	edi
LCFI288:
	.cfi_restore 7
	.cfi_def_cfa_offset 8
	pop	ebp
LCFI289:
	.cfi_restore 5
	.cfi_def_cfa_offset 4
	ret
LVL554:
	.p2align 2,,3
L610:
LCFI290:
	.cfi_restore_state
	mov	esi, eax
LVL555:
	.loc 1 864 0
	mov	ebx, DWORD PTR [ebp+32]
LVL556:
	test	ebx, ebx
	jne	L616
	.p2align 2,,3
L607:
	.loc 1 875 0
	xor	ebx, ebx
LVL557:
	jmp	L609
LVL558:
	.p2align 2,,3
L624:
LBB86:
	.loc 1 868 0
	mov	DWORD PTR [esp], ebx
	call	_xmlnode_get_namespace
LVL559:
	mov	edi, eax
LVL560:
	.loc 1 870 0
	mov	ecx, DWORD PTR [ebx+8]
	test	ecx, ecx
	je	L605
LVL561:
L608:
LBE86:
	.loc 1 864 0
	mov	ebx, DWORD PTR [ebx+32]
LVL562:
	test	ebx, ebx
	je	L607
LVL563:
L616:
LBB87:
	.loc 1 867 0
	test	esi, esi
	jne	L624
	.loc 1 866 0
	xor	edi, edi
LVL564:
	.loc 1 870 0
	mov	ecx, DWORD PTR [ebx+8]
	test	ecx, ecx
	jne	L608
L605:
	.loc 1 870 0 is_stmt 0 discriminator 1
	mov	eax, DWORD PTR [ebx]
	mov	DWORD PTR [esp+4], eax
	mov	eax, DWORD PTR [ebp+0]
	mov	DWORD PTR [esp], eax
	call	_purple_strequal
LVL565:
	test	eax, eax
	je	L608
	.loc 1 871 0 is_stmt 1 discriminator 1
	mov	DWORD PTR [esp+4], edi
	mov	DWORD PTR [esp], esi
	call	_purple_strequal
LVL566:
	.loc 1 870 0 discriminator 1
	test	eax, eax
	je	L608
	jmp	L609
LVL567:
L622:
LBE87:
	.loc 1 861 0
	mov	DWORD PTR [esp+8], OFFSET FLAT:LC10
	mov	DWORD PTR [esp+4], OFFSET FLAT:___PRETTY_FUNCTION__.47840
	mov	DWORD PTR [esp], 0
	call	_g_return_if_fail_warning
LVL568:
	xor	ebx, ebx
	jmp	L609
LVL569:
L623:
	.loc 1 876 0
	call	___stack_chk_fail
LVL570:
	.cfi_endproc
LFE129:
	.section .rdata,"dr"
___PRETTY_FUNCTION__.47474:
	.ascii "xmlnode_new\0"
___PRETTY_FUNCTION__.47482:
	.ascii "xmlnode_new_child\0"
___PRETTY_FUNCTION__.47491:
	.ascii "xmlnode_insert_child\0"
___PRETTY_FUNCTION__.47503:
	.ascii "xmlnode_insert_data\0"
___PRETTY_FUNCTION__.47516:
	.ascii "xmlnode_remove_attrib\0"
	.align 32
___PRETTY_FUNCTION__.47531:
	.ascii "xmlnode_remove_attrib_with_namespace\0"
___PRETTY_FUNCTION__.47564:
	.ascii "xmlnode_set_attrib_full\0"
___PRETTY_FUNCTION__.47576:
	.ascii "xmlnode_get_attrib\0"
	.align 32
___PRETTY_FUNCTION__.47590:
	.ascii "xmlnode_get_attrib_with_namespace\0"
___PRETTY_FUNCTION__.47602:
	.ascii "xmlnode_set_namespace\0"
___PRETTY_FUNCTION__.47608:
	.ascii "xmlnode_get_namespace\0"
___PRETTY_FUNCTION__.47615:
	.ascii "xmlnode_set_prefix\0"
___PRETTY_FUNCTION__.47621:
	.ascii "xmlnode_get_prefix\0"
___PRETTY_FUNCTION__.47627:
	.ascii "xmlnode_get_parent\0"
___PRETTY_FUNCTION__.47635:
	.ascii "xmlnode_free\0"
	.align 32
___PRETTY_FUNCTION__.47659:
	.ascii "xmlnode_get_child_with_namespace\0"
___PRETTY_FUNCTION__.47673:
	.ascii "xmlnode_get_data\0"
___PRETTY_FUNCTION__.47704:
	.ascii "xmlnode_to_str_helper\0"
___PRETTY_FUNCTION__.47726:
	.ascii "xmlnode_to_formatted_str\0"
___PRETTY_FUNCTION__.47793:
	.ascii "xmlnode_from_str\0"
	.data
	.align 32
_xmlnode_parser_libxml:
	.long	0
	.long	0
	.long	0
	.long	0
	.long	0
	.long	0
	.long	0
	.long	0
	.long	0
	.long	0
	.long	0
	.long	0
	.long	0
	.long	0
	.long	0
	.long	0
	.long	0
	.long	_xmlnode_parser_element_text_libxml
	.long	0
	.long	0
	.long	0
	.long	0
	.long	_xmlnode_parser_error_libxml
	.long	0
	.long	0
	.long	0
	.long	0
	.long	-554844497
	.long	0
	.long	_xmlnode_parser_element_start_libxml
	.long	_xmlnode_parser_element_end_libxml
	.long	_xmlnode_parser_structural_error_libxml
	.section .rdata,"dr"
___PRETTY_FUNCTION__.47810:
	.ascii "xmlnode_from_file\0"
___PRETTY_FUNCTION__.47829:
	.ascii "xmlnode_copy\0"
___PRETTY_FUNCTION__.47840:
	.ascii "xmlnode_get_next_twin\0"
	.text
Letext0:
	.file 2 "c:/workspace/pidgin-devel/win32-dev/mingw-4.7.2/bin/../lib/gcc/mingw32/4.7.2/include/stddef.h"
	.file 3 "c:/workspace/pidgin-devel/win32-dev/mingw-4.7.2/bin/../lib/gcc/mingw32/4.7.2/include/stdarg.h"
	.file 4 "c:/workspace/pidgin-devel/win32-dev/mingw-4.7.2/bin/../lib/gcc/mingw32/4.7.2/../../../../include/stdio.h"
	.file 5 "../../win32-dev/gtk_2_0-2.14/lib/glib-2.0/include/glibconfig.h"
	.file 6 "../../win32-dev/gtk_2_0-2.14/include/glib-2.0/glib/gtypes.h"
	.file 7 "../../win32-dev/gtk_2_0-2.14/include/glib-2.0/glib/gquark.h"
	.file 8 "../../win32-dev/gtk_2_0-2.14/include/glib-2.0/glib/gerror.h"
	.file 9 "../../win32-dev/gtk_2_0-2.14/include/glib-2.0/glib/gfileutils.h"
	.file 10 "../../win32-dev/gtk_2_0-2.14/include/glib-2.0/glib/ghash.h"
	.file 11 "../../win32-dev/gtk_2_0-2.14/include/glib-2.0/glib/gstring.h"
	.file 12 "c:/workspace/pidgin-devel/win32-dev/mingw-4.7.2/bin/../lib/gcc/mingw32/4.7.2/../../../../include/wtypes.h"
	.file 13 "media/../xmlnode.h"
	.file 14 "media/../notify.h"
	.file 15 "../../win32-dev/libxml2-2.9.0/include/libxml2/libxml/xmlstring.h"
	.file 16 "../../win32-dev/libxml2-2.9.0/include/libxml2/libxml/tree.h"
	.file 17 "../../win32-dev/libxml2-2.9.0/include/libxml2/libxml/xmlIO.h"
	.file 18 "../../win32-dev/libxml2-2.9.0/include/libxml2/libxml/parser.h"
	.file 19 "../../win32-dev/libxml2-2.9.0/include/libxml2/libxml/entities.h"
	.file 20 "../../win32-dev/libxml2-2.9.0/include/libxml2/libxml/xmlerror.h"
	.file 21 "../../win32-dev/libxml2-2.9.0/include/libxml2/libxml/encoding.h"
	.file 22 "c:/workspace/pidgin-devel/win32-dev/mingw-4.7.2/bin/../lib/gcc/mingw32/4.7.2/../../../../include/ctype.h"
	.file 23 "../../win32-dev/gtk_2_0-2.14/include/glib-2.0/glib/gmem.h"
	.file 24 "../../win32-dev/gtk_2_0-2.14/include/glib-2.0/glib/gstrfuncs.h"
	.file 25 "debug.h"
	.file 26 "../../win32-dev/gtk_2_0-2.14/include/glib-2.0/glib/gmessages.h"
	.file 27 "media/../util.h"
	.file 28 "../../win32-dev/gtk_2_0-2.14/include/glib-2.0/glib/gmarkup.h"
	.file 29 "../../win32-dev/gtk_2_0-2.14/include/libintl.h"