	.file	"yahoo_doodle.c"
	.intel_syntax noprefix
	.text
Ltext0:
	.section .rdata,"dr"
LC0:
	.ascii "doodle;106\0"
LC1:
	.ascii "doodle: Sent %s (%s)\12\0"
LC2:
	.ascii "yahoo\0"
LC3:
	.ascii "IMVIRONMENT\0"
LC4:
	.ascii "1\0"
	.text
	.p2align 2,,3
	.def	_yahoo_doodle_command_send_generic.isra.1;	.scl	3;	.type	32;	.endef
_yahoo_doodle_command_send_generic.isra.1:
LFB121:
	.file 1 "yahoo_doodle.c"
	.loc 1 377 0
	.cfi_startproc
LVL0:
	push	ebp
LCFI0:
	.cfi_def_cfa_offset 8
	.cfi_offset 5, -8
	push	edi
LCFI1:
	.cfi_def_cfa_offset 12
	.cfi_offset 7, -12
	push	esi
LCFI2:
	.cfi_def_cfa_offset 16
	.cfi_offset 6, -16
	push	ebx
LCFI3:
	.cfi_def_cfa_offset 20
	.cfi_offset 3, -20
	sub	esp, 60
LCFI4:
	.cfi_def_cfa_offset 80
	mov	ebx, ecx
	mov	edi, DWORD PTR [esp+80]
	mov	ecx, DWORD PTR [esp+84]
	mov	DWORD PTR [esp+20], ecx
	mov	ecx, DWORD PTR [esp+88]
	mov	DWORD PTR [esp+24], ecx
	mov	esi, DWORD PTR [esp+92]
	mov	ecx, DWORD PTR [esp+96]
	mov	DWORD PTR [esp+28], ecx
	.loc 1 377 0
	mov	ecx, DWORD PTR ___stack_chk_guard
	mov	DWORD PTR [esp+44], ecx
	xor	ecx, ecx
LVL1:
	.loc 1 388 0
	mov	DWORD PTR [esp+12], edi
	mov	DWORD PTR [esp+8], eax
	mov	DWORD PTR [esp+4], OFFSET FLAT:LC1
	mov	DWORD PTR [esp], OFFSET FLAT:LC2
	mov	DWORD PTR [esp+16], edx
	call	_purple_debug_info
LVL2:
	.loc 1 390 0
	mov	ebp, DWORD PTR [ebx]
LVL3:
	.loc 1 393 0
	mov	eax, DWORD PTR [ebp+144]
	mov	DWORD PTR [esp+8], eax
	mov	DWORD PTR [esp+4], 0
	mov	DWORD PTR [esp], 77
	call	_yahoo_packet_new
LVL4:
	mov	ebx, eax
LVL5:
	.loc 1 394 0
	mov	DWORD PTR [esp+8], OFFSET FLAT:LC3
	mov	DWORD PTR [esp+4], 49
	mov	DWORD PTR [esp], eax
	call	_yahoo_packet_hash_str
LVL6:
	.loc 1 395 0
	mov	edx, DWORD PTR [esp+16]
	mov	eax, DWORD PTR [edx]
	mov	DWORD PTR [esp], eax
	call	_purple_account_get_username
LVL7:
	mov	DWORD PTR [esp+8], eax
	mov	DWORD PTR [esp+4], 1
	mov	DWORD PTR [esp], ebx
	call	_yahoo_packet_hash_str
LVL8:
	.loc 1 396 0
	mov	ecx, DWORD PTR [esp+20]
	mov	DWORD PTR [esp+8], ecx
	mov	DWORD PTR [esp+4], 14
	mov	DWORD PTR [esp], ebx
	call	_yahoo_packet_hash_str
LVL9:
	.loc 1 397 0
	mov	ecx, DWORD PTR [esp+24]
	mov	DWORD PTR [esp+8], ecx
	mov	DWORD PTR [esp+4], 13
	mov	DWORD PTR [esp], ebx
	call	_yahoo_packet_hash_int
LVL10:
	.loc 1 398 0
	mov	DWORD PTR [esp+8], edi
	mov	DWORD PTR [esp+4], 5
	mov	DWORD PTR [esp], ebx
	call	_yahoo_packet_hash_str
LVL11:
	.loc 1 399 0
	test	esi, esi
	je	L7
L2:
	mov	DWORD PTR [esp+8], esi
	mov	DWORD PTR [esp+4], 63
	mov	DWORD PTR [esp], ebx
	call	_yahoo_packet_hash_str
LVL12:
	.loc 1 400 0
	mov	ecx, DWORD PTR [esp+28]
	mov	DWORD PTR [esp+8], ecx
	mov	DWORD PTR [esp+4], 64
	mov	DWORD PTR [esp], ebx
	call	_yahoo_packet_hash_str
LVL13:
	.loc 1 401 0
	mov	DWORD PTR [esp+8], OFFSET FLAT:LC4
	mov	DWORD PTR [esp+4], 1002
	mov	DWORD PTR [esp], ebx
	call	_yahoo_packet_hash_str
LVL14:
	.loc 1 403 0
	mov	eax, DWORD PTR [esp+44]
	xor	eax, DWORD PTR ___stack_chk_guard
	jne	L8
	mov	DWORD PTR [esp+84], ebp
	mov	DWORD PTR [esp+80], ebx
	.loc 1 404 0
	add	esp, 60
LCFI5:
	.cfi_remember_state
	.cfi_def_cfa_offset 20
	pop	ebx
LCFI6:
	.cfi_restore 3
	.cfi_def_cfa_offset 16
LVL15:
	pop	esi
LCFI7:
	.cfi_restore 6
	.cfi_def_cfa_offset 12
	pop	edi
LCFI8:
	.cfi_restore 7
	.cfi_def_cfa_offset 8
	pop	ebp
LCFI9:
	.cfi_restore 5
	.cfi_def_cfa_offset 4
LVL16:
	.loc 1 403 0
	jmp	_yahoo_packet_send_and_free
LVL17:
	.p2align 2,,3
L7:
LCFI10:
	.cfi_restore_state
	.loc 1 399 0
	mov	esi, OFFSET FLAT:LC0
	jmp	L2
L8:
	.loc 1 403 0
	call	___stack_chk_fail
LVL18:
	.cfi_endproc
LFE121:
	.section .rdata,"dr"
LC5:
	.ascii "from != NULL\0"
LC6:
	.ascii "doodle: Got Shutdown (%s)\12\0"
	.text
	.p2align 2,,3
	.globl	_yahoo_doodle_command_got_shutdown
	.def	_yahoo_doodle_command_got_shutdown;	.scl	2;	.type	32;	.endef
_yahoo_doodle_command_got_shutdown:
LFB101:
	.loc 1 353 0
	.cfi_startproc
LVL19:
	push	esi
LCFI11:
	.cfi_def_cfa_offset 8
	.cfi_offset 6, -8
	push	ebx
LCFI12:
	.cfi_def_cfa_offset 12
	.cfi_offset 3, -12
	sub	esp, 36
LCFI13:
	.cfi_def_cfa_offset 48
	mov	esi, DWORD PTR [esp+48]
	mov	ebx, DWORD PTR [esp+52]
	.loc 1 353 0
	mov	eax, DWORD PTR ___stack_chk_guard
	mov	DWORD PTR [esp+28], eax
	xor	eax, eax
LBB3:
	.loc 1 357 0
	test	ebx, ebx
	je	L23
LVL20:
LBE3:
	.loc 1 359 0
	mov	DWORD PTR [esp+8], ebx
	mov	DWORD PTR [esp+4], OFFSET FLAT:LC6
	mov	DWORD PTR [esp], OFFSET FLAT:LC2
	call	_purple_debug_info
LVL21:
	.loc 1 361 0
	mov	DWORD PTR [esp], esi
	call	_purple_connection_get_account
LVL22:
	.loc 1 366 0
	mov	DWORD PTR [esp+4], ebx
	mov	DWORD PTR [esp], eax
	call	_purple_whiteboard_get_session
LVL23:
	.loc 1 368 0
	test	eax, eax
	je	L13
	.loc 1 373 0
	mov	DWORD PTR [eax], 3
	.loc 1 374 0
	mov	edx, DWORD PTR [esp+28]
	xor	edx, DWORD PTR ___stack_chk_guard
	jne	L20
	mov	DWORD PTR [esp+48], eax
	.loc 1 375 0
	add	esp, 36
LCFI14:
	.cfi_remember_state
	.cfi_def_cfa_offset 12
	pop	ebx
LCFI15:
	.cfi_restore 3
	.cfi_def_cfa_offset 8
	pop	esi
LCFI16:
	.cfi_restore 6
	.cfi_def_cfa_offset 4
	.loc 1 374 0
	jmp	_purple_whiteboard_destroy
LVL24:
	.p2align 2,,3
L23:
LCFI17:
	.cfi_restore_state
	.loc 1 357 0
	mov	DWORD PTR [esp+8], OFFSET FLAT:LC5
	mov	DWORD PTR [esp+4], OFFSET FLAT:___PRETTY_FUNCTION__.45153
	mov	DWORD PTR [esp], 0
	call	_g_return_if_fail_warning
LVL25:
L13:
	.loc 1 375 0
	mov	eax, DWORD PTR [esp+28]
	xor	eax, DWORD PTR ___stack_chk_guard
	jne	L20
	add	esp, 36
LCFI18:
	.cfi_remember_state
	.cfi_def_cfa_offset 12
	pop	ebx
LCFI19:
	.cfi_restore 3
	.cfi_def_cfa_offset 8
	pop	esi
LCFI20:
	.cfi_restore 6
	.cfi_def_cfa_offset 4
	ret
L20:
LCFI21:
	.cfi_restore_state
	call	___stack_chk_fail
LVL26:
	.cfi_endproc
LFE101:
	.section .rdata,"dr"
LC7:
	.ascii "Ready\0"
	.text
	.p2align 2,,3
	.globl	_yahoo_doodle_command_send_ready
	.def	_yahoo_doodle_command_send_ready;	.scl	2;	.type	32;	.endef
_yahoo_doodle_command_send_ready:
LFB103:
	.loc 1 407 0
	.cfi_startproc
LVL27:
	sub	esp, 60
LCFI22:
	.cfi_def_cfa_offset 64
	mov	edx, DWORD PTR [esp+64]
	.loc 1 407 0
	mov	eax, DWORD PTR ___stack_chk_guard
	mov	DWORD PTR [esp+44], eax
	xor	eax, eax
	.loc 1 609 0
	lea	ecx, [edx+28]
	add	edx, 12
	.loc 1 408 0
	mov	DWORD PTR [esp+16], OFFSET FLAT:LC4
	mov	eax, DWORD PTR [esp+72]
	mov	DWORD PTR [esp+12], eax
	mov	DWORD PTR [esp+8], 4
	mov	DWORD PTR [esp+4], OFFSET FLAT:LC4
	mov	eax, DWORD PTR [esp+68]
	mov	DWORD PTR [esp], eax
	mov	eax, OFFSET FLAT:LC7
	call	_yahoo_doodle_command_send_generic.isra.1
LVL28:
	.loc 1 409 0
	mov	eax, DWORD PTR [esp+44]
	xor	eax, DWORD PTR ___stack_chk_guard
	jne	L27
	add	esp, 60
LCFI23:
	.cfi_remember_state
	.cfi_def_cfa_offset 4
	ret
L27:
LCFI24:
	.cfi_restore_state
	call	___stack_chk_fail
LVL29:
	.cfi_endproc
LFE103:
	.section .rdata,"dr"
LC8:
	.ascii "Request\0"
LC9:
	.ascii "0\0"
LC10:
	.ascii "\0"
	.text
	.p2align 2,,3
	.globl	_yahoo_doodle_command_send_request
	.def	_yahoo_doodle_command_send_request;	.scl	2;	.type	32;	.endef
_yahoo_doodle_command_send_request:
LFB104:
	.loc 1 412 0
	.cfi_startproc
LVL30:
	sub	esp, 60
LCFI25:
	.cfi_def_cfa_offset 64
	mov	edx, DWORD PTR [esp+64]
	.loc 1 412 0
	mov	eax, DWORD PTR ___stack_chk_guard
	mov	DWORD PTR [esp+44], eax
	xor	eax, eax
	.loc 1 609 0
	lea	ecx, [edx+28]
	add	edx, 12
	.loc 1 413 0
	mov	DWORD PTR [esp+16], OFFSET FLAT:LC9
	mov	eax, DWORD PTR [esp+72]
	mov	DWORD PTR [esp+12], eax
	mov	DWORD PTR [esp+8], 0
	mov	DWORD PTR [esp+4], OFFSET FLAT:LC10
	mov	eax, DWORD PTR [esp+68]
	mov	DWORD PTR [esp], eax
	mov	eax, OFFSET FLAT:LC8
	call	_yahoo_doodle_command_send_generic.isra.1
LVL31:
	.loc 1 414 0
	mov	eax, DWORD PTR [esp+44]
	xor	eax, DWORD PTR ___stack_chk_guard
	jne	L31
	add	esp, 60
LCFI26:
	.cfi_remember_state
	.cfi_def_cfa_offset 4
	ret
L31:
LCFI27:
	.cfi_restore_state
	call	___stack_chk_fail
LVL32:
	.cfi_endproc
LFE104:
	.section .rdata,"dr"
LC11:
	.ascii "gc\0"
LC12:
	.ascii "name\0"
	.text
	.p2align 2,,3
	.globl	_yahoo_doodle_initiate
	.def	_yahoo_doodle_initiate;	.scl	2;	.type	32;	.endef
_yahoo_doodle_initiate:
LFB94:
	.loc 1 104 0
	.cfi_startproc
LVL33:
	push	edi
LCFI28:
	.cfi_def_cfa_offset 8
	.cfi_offset 7, -8
	push	esi
LCFI29:
	.cfi_def_cfa_offset 12
	.cfi_offset 6, -12
	push	ebx
LCFI30:
	.cfi_def_cfa_offset 16
	.cfi_offset 3, -16
	sub	esp, 32
LCFI31:
	.cfi_def_cfa_offset 48
	mov	ebx, DWORD PTR [esp+48]
	mov	esi, DWORD PTR [esp+52]
	.loc 1 104 0
	mov	eax, DWORD PTR ___stack_chk_guard
	mov	DWORD PTR [esp+28], eax
	xor	eax, eax
LVL34:
LBB4:
	.loc 1 108 0
	test	ebx, ebx
	je	L42
LVL35:
LBE4:
LBB5:
	.loc 1 109 0
	test	esi, esi
	je	L43
LVL36:
LBE5:
	.loc 1 111 0
	mov	DWORD PTR [esp], ebx
	call	_purple_connection_get_account
LVL37:
	mov	edi, eax
LVL38:
	.loc 1 113 0
	mov	DWORD PTR [esp+4], esi
	mov	DWORD PTR [esp], eax
	call	_purple_whiteboard_get_session
LVL39:
	test	eax, eax
	je	L44
L38:
	.loc 1 125 0
	mov	DWORD PTR [esp+8], OFFSET FLAT:LC0
	mov	DWORD PTR [esp+4], esi
	mov	DWORD PTR [esp], ebx
	call	_yahoo_doodle_command_send_ready
LVL40:
	.loc 1 126 0
	mov	DWORD PTR [esp+8], OFFSET FLAT:LC0
	mov	DWORD PTR [esp+4], esi
	mov	DWORD PTR [esp], ebx
	call	_yahoo_doodle_command_send_request
LVL41:
L32:
	.loc 1 128 0
	mov	eax, DWORD PTR [esp+28]
	xor	eax, DWORD PTR ___stack_chk_guard
	jne	L45
	add	esp, 32
LCFI32:
	.cfi_remember_state
	.cfi_def_cfa_offset 16
	pop	ebx
LCFI33:
	.cfi_restore 3
	.cfi_def_cfa_offset 12
	pop	esi
LCFI34:
	.cfi_restore 6
	.cfi_def_cfa_offset 8
LVL42:
	pop	edi
LCFI35:
	.cfi_restore 7
	.cfi_def_cfa_offset 4
	ret
LVL43:
	.p2align 2,,3
L42:
LCFI36:
	.cfi_restore_state
	.loc 1 108 0
	mov	DWORD PTR [esp+8], OFFSET FLAT:LC11
	mov	DWORD PTR [esp+4], OFFSET FLAT:___PRETTY_FUNCTION__.45091
	mov	DWORD PTR [esp], 0
	call	_g_return_if_fail_warning
LVL44:
	jmp	L32
LVL45:
	.p2align 2,,3
L43:
	.loc 1 109 0
	mov	DWORD PTR [esp+8], OFFSET FLAT:LC12
	mov	DWORD PTR [esp+4], OFFSET FLAT:___PRETTY_FUNCTION__.45091
	mov	DWORD PTR [esp], 0
	call	_g_return_if_fail_warning
LVL46:
	jmp	L32
LVL47:
	.p2align 2,,3
L44:
	.loc 1 118 0
	mov	DWORD PTR [esp+8], 0
	mov	DWORD PTR [esp+4], esi
	mov	DWORD PTR [esp], edi
	call	_purple_whiteboard_create
LVL48:
	jmp	L38
LVL49:
L45:
	.loc 1 128 0
	call	___stack_chk_fail
LVL50:
	.cfi_endproc
LFE94:
	.section .rdata,"dr"
LC13:
	.ascii "Sent Doodle request.\0"
LC14:
	.ascii "pidgin\0"
	.text
	.p2align 2,,3
	.globl	_yahoo_doodle_purple_cmd_start
	.def	_yahoo_doodle_purple_cmd_start;	.scl	2;	.type	32;	.endef
_yahoo_doodle_purple_cmd_start:
LFB93:
	.loc 1 81 0
	.cfi_startproc
LVL51:
	push	edi
LCFI37:
	.cfi_def_cfa_offset 8
	.cfi_offset 7, -8
	push	esi
LCFI38:
	.cfi_def_cfa_offset 12
	.cfi_offset 6, -12
	push	ebx
LCFI39:
	.cfi_def_cfa_offset 16
	.cfi_offset 3, -16
	sub	esp, 48
LCFI40:
	.cfi_def_cfa_offset 64
	mov	ebx, DWORD PTR [esp+64]
	.loc 1 81 0
	mov	eax, DWORD PTR ___stack_chk_guard
	mov	DWORD PTR [esp+44], eax
	xor	eax, eax
	.loc 1 87 0
	mov	al, 1
	.loc 1 86 0
	mov	edx, DWORD PTR [esp+72]
	mov	edx, DWORD PTR [edx]
	test	edx, edx
	je	L51
L47:
	.loc 1 101 0
	mov	edx, DWORD PTR [esp+44]
	xor	edx, DWORD PTR ___stack_chk_guard
	jne	L52
	add	esp, 48
LCFI41:
	.cfi_remember_state
	.cfi_def_cfa_offset 16
	pop	ebx
LCFI42:
	.cfi_restore 3
	.cfi_def_cfa_offset 12
	pop	esi
LCFI43:
	.cfi_restore 6
	.cfi_def_cfa_offset 8
	pop	edi
LCFI44:
	.cfi_restore 7
	.cfi_def_cfa_offset 4
	ret
	.p2align 2,,3
L51:
LCFI45:
	.cfi_restore_state
	.loc 1 89 0
	mov	DWORD PTR [esp], ebx
	call	_purple_conversation_get_account
LVL52:
	.loc 1 90 0
	mov	DWORD PTR [esp], eax
	call	_purple_account_get_connection
LVL53:
	mov	esi, eax
LVL54:
	.loc 1 91 0
	mov	DWORD PTR [esp], ebx
	call	_purple_conversation_get_name
LVL55:
	.loc 1 92 0
	mov	DWORD PTR [esp+4], eax
	mov	DWORD PTR [esp], esi
	call	_yahoo_doodle_initiate
LVL56:
	.loc 1 97 0
	mov	DWORD PTR [esp], 0
	call	_time
LVL57:
	mov	edi, eax
	mov	DWORD PTR [esp+4], OFFSET FLAT:LC13
	mov	DWORD PTR [esp], OFFSET FLAT:LC14
	call	_libintl_dgettext
LVL58:
	mov	esi, eax
LVL59:
	mov	DWORD PTR [esp], ebx
	call	_purple_conversation_get_im_data
LVL60:
	mov	DWORD PTR [esp+16], edi
	mov	DWORD PTR [esp+12], 34
	mov	DWORD PTR [esp+8], esi
	mov	DWORD PTR [esp+4], OFFSET FLAT:LC10
	mov	DWORD PTR [esp], eax
	call	_purple_conv_im_write
LVL61:
	.loc 1 100 0
	xor	eax, eax
	jmp	L47
L52:
	.loc 1 101 0
	call	___stack_chk_fail
LVL62:
	.cfi_endproc
LFE93:
	.section .rdata,"dr"
LC15:
	.ascii "Draw\0"
	.text
	.p2align 2,,3
	.globl	_yahoo_doodle_command_send_draw
	.def	_yahoo_doodle_command_send_draw;	.scl	2;	.type	32;	.endef
_yahoo_doodle_command_send_draw:
LFB105:
	.loc 1 417 0
	.cfi_startproc
LVL63:
	sub	esp, 60
LCFI46:
	.cfi_def_cfa_offset 64
	mov	edx, DWORD PTR [esp+64]
	.loc 1 417 0
	mov	eax, DWORD PTR ___stack_chk_guard
	mov	DWORD PTR [esp+44], eax
	xor	eax, eax
	.loc 1 609 0
	lea	ecx, [edx+28]
	add	edx, 12
	.loc 1 418 0
	mov	DWORD PTR [esp+16], OFFSET FLAT:LC4
	mov	eax, DWORD PTR [esp+76]
	mov	DWORD PTR [esp+12], eax
	mov	DWORD PTR [esp+8], 2
	mov	eax, DWORD PTR [esp+72]
	mov	DWORD PTR [esp+4], eax
	mov	eax, DWORD PTR [esp+68]
	mov	DWORD PTR [esp], eax
	mov	eax, OFFSET FLAT:LC15
	call	_yahoo_doodle_command_send_generic.isra.1
LVL64:
	.loc 1 419 0
	mov	eax, DWORD PTR [esp+44]
	xor	eax, DWORD PTR ___stack_chk_guard
	jne	L56
	add	esp, 60
LCFI47:
	.cfi_remember_state
	.cfi_def_cfa_offset 4
	ret
L56:
LCFI48:
	.cfi_restore_state
	call	___stack_chk_fail
LVL65:
	.cfi_endproc
LFE105:
	.section .rdata,"dr"
LC16:
	.ascii "Clear\0"
LC17:
	.ascii " \0"
	.text
	.p2align 2,,3
	.globl	_yahoo_doodle_command_send_clear
	.def	_yahoo_doodle_command_send_clear;	.scl	2;	.type	32;	.endef
_yahoo_doodle_command_send_clear:
LFB106:
	.loc 1 422 0
	.cfi_startproc
LVL66:
	sub	esp, 60
LCFI49:
	.cfi_def_cfa_offset 64
	mov	edx, DWORD PTR [esp+64]
	.loc 1 422 0
	mov	eax, DWORD PTR ___stack_chk_guard
	mov	DWORD PTR [esp+44], eax
	xor	eax, eax
	.loc 1 609 0
	lea	ecx, [edx+28]
	add	edx, 12
	.loc 1 423 0
	mov	DWORD PTR [esp+16], OFFSET FLAT:LC4
	mov	eax, DWORD PTR [esp+72]
	mov	DWORD PTR [esp+12], eax
	mov	DWORD PTR [esp+8], 1
	mov	DWORD PTR [esp+4], OFFSET FLAT:LC17
	mov	eax, DWORD PTR [esp+68]
	mov	DWORD PTR [esp], eax
	mov	eax, OFFSET FLAT:LC16
	call	_yahoo_doodle_command_send_generic.isra.1
LVL67:
	.loc 1 424 0
	mov	eax, DWORD PTR [esp+44]
	xor	eax, DWORD PTR ___stack_chk_guard
	jne	L60
	add	esp, 60
LCFI50:
	.cfi_remember_state
	.cfi_def_cfa_offset 4
	ret
L60:
LCFI51:
	.cfi_restore_state
	call	___stack_chk_fail
LVL68:
	.cfi_endproc
LFE106:
	.section .rdata,"dr"
LC18:
	.ascii "Extra\0"
	.text
	.p2align 2,,3
	.globl	_yahoo_doodle_command_send_extra
	.def	_yahoo_doodle_command_send_extra;	.scl	2;	.type	32;	.endef
_yahoo_doodle_command_send_extra:
LFB107:
	.loc 1 427 0
	.cfi_startproc
LVL69:
	sub	esp, 60
LCFI52:
	.cfi_def_cfa_offset 64
	mov	edx, DWORD PTR [esp+64]
	.loc 1 427 0
	mov	eax, DWORD PTR ___stack_chk_guard
	mov	DWORD PTR [esp+44], eax
	xor	eax, eax
	.loc 1 609 0
	lea	ecx, [edx+28]
	add	edx, 12
	.loc 1 428 0
	mov	DWORD PTR [esp+16], OFFSET FLAT:LC4
	mov	eax, DWORD PTR [esp+76]
	mov	DWORD PTR [esp+12], eax
	mov	DWORD PTR [esp+8], 3
	mov	eax, DWORD PTR [esp+72]
	mov	DWORD PTR [esp+4], eax
	mov	eax, DWORD PTR [esp+68]
	mov	DWORD PTR [esp], eax
	mov	eax, OFFSET FLAT:LC18
	call	_yahoo_doodle_command_send_generic.isra.1
LVL70:
	.loc 1 429 0
	mov	eax, DWORD PTR [esp+44]
	xor	eax, DWORD PTR ___stack_chk_guard
	jne	L64
	add	esp, 60
LCFI53:
	.cfi_remember_state
	.cfi_def_cfa_offset 4
	ret
L64:
LCFI54:
	.cfi_restore_state
	call	___stack_chk_fail
LVL71:
	.cfi_endproc
LFE107:
	.section .rdata,"dr"
LC19:
	.ascii "Confirm\0"
	.text
	.p2align 2,,3
	.globl	_yahoo_doodle_command_send_confirm
	.def	_yahoo_doodle_command_send_confirm;	.scl	2;	.type	32;	.endef
_yahoo_doodle_command_send_confirm:
LFB108:
	.loc 1 432 0
	.cfi_startproc
LVL72:
	sub	esp, 60
LCFI55:
	.cfi_def_cfa_offset 64
	mov	edx, DWORD PTR [esp+64]
	.loc 1 432 0
	mov	eax, DWORD PTR ___stack_chk_guard
	mov	DWORD PTR [esp+44], eax
	xor	eax, eax
	.loc 1 609 0
	lea	ecx, [edx+28]
	add	edx, 12
	.loc 1 433 0
	mov	DWORD PTR [esp+16], OFFSET FLAT:LC4
	mov	eax, DWORD PTR [esp+72]
	mov	DWORD PTR [esp+12], eax
	mov	DWORD PTR [esp+8], 5
	mov	DWORD PTR [esp+4], OFFSET FLAT:LC4
	mov	eax, DWORD PTR [esp+68]
	mov	DWORD PTR [esp], eax
	mov	eax, OFFSET FLAT:LC19
	call	_yahoo_doodle_command_send_generic.isra.1
LVL73:
	.loc 1 434 0
	mov	eax, DWORD PTR [esp+44]
	xor	eax, DWORD PTR ___stack_chk_guard
	jne	L68
	add	esp, 60
LCFI56:
	.cfi_remember_state
	.cfi_def_cfa_offset 4
	ret
L68:
LCFI57:
	.cfi_restore_state
	call	___stack_chk_fail
LVL74:
	.cfi_endproc
LFE108:
	.section .rdata,"dr"
LC20:
	.ascii "Shutdown\0"
LC21:
	.ascii ";0\0"
	.text
	.p2align 2,,3
	.globl	_yahoo_doodle_command_send_shutdown
	.def	_yahoo_doodle_command_send_shutdown;	.scl	2;	.type	32;	.endef
_yahoo_doodle_command_send_shutdown:
LFB109:
	.loc 1 437 0
	.cfi_startproc
LVL75:
	sub	esp, 60
LCFI58:
	.cfi_def_cfa_offset 64
	mov	edx, DWORD PTR [esp+64]
	.loc 1 437 0
	mov	eax, DWORD PTR ___stack_chk_guard
	mov	DWORD PTR [esp+44], eax
	xor	eax, eax
	.loc 1 609 0
	lea	ecx, [edx+28]
	add	edx, 12
	.loc 1 438 0
	mov	DWORD PTR [esp+16], OFFSET FLAT:LC9
	mov	DWORD PTR [esp+12], OFFSET FLAT:LC21
	mov	DWORD PTR [esp+8], 0
	mov	DWORD PTR [esp+4], OFFSET FLAT:LC10
	mov	eax, DWORD PTR [esp+68]
	mov	DWORD PTR [esp], eax
	mov	eax, OFFSET FLAT:LC20
	call	_yahoo_doodle_command_send_generic.isra.1
LVL76:
	.loc 1 439 0
	mov	eax, DWORD PTR [esp+44]
	xor	eax, DWORD PTR ___stack_chk_guard
	jne	L72
	add	esp, 60
LCFI59:
	.cfi_remember_state
	.cfi_def_cfa_offset 4
	ret
L72:
LCFI60:
	.cfi_restore_state
	call	___stack_chk_fail
LVL77:
	.cfi_endproc
LFE109:
	.p2align 2,,3
	.globl	_yahoo_doodle_start
	.def	_yahoo_doodle_start;	.scl	2;	.type	32;	.endef
_yahoo_doodle_start:
LFB110:
	.loc 1 442 0
	.cfi_startproc
LVL78:
	push	ebx
LCFI61:
	.cfi_def_cfa_offset 8
	.cfi_offset 3, -8
	sub	esp, 40
LCFI62:
	.cfi_def_cfa_offset 48
	mov	ebx, DWORD PTR [esp+48]
	.loc 1 442 0
	mov	eax, DWORD PTR ___stack_chk_guard
	mov	DWORD PTR [esp+28], eax
	xor	eax, eax
	.loc 1 443 0
	mov	DWORD PTR [esp], 12
	call	_g_malloc0
LVL79:
	.loc 1 448 0
	mov	DWORD PTR [eax], 2
	.loc 1 449 0
	mov	DWORD PTR [eax+4], 13369344
	.loc 1 451 0
	mov	DWORD PTR [ebx+16], eax
	.loc 1 452 0
	mov	eax, DWORD PTR [esp+28]
	xor	eax, DWORD PTR ___stack_chk_guard
LVL80:
	jne	L76
	add	esp, 40
LCFI63:
	.cfi_remember_state
	.cfi_def_cfa_offset 8
	pop	ebx
LCFI64:
	.cfi_restore 3
	.cfi_def_cfa_offset 4
LVL81:
	ret
LVL82:
L76:
LCFI65:
	.cfi_restore_state
	call	___stack_chk_fail
LVL83:
	.cfi_endproc
LFE110:
	.p2align 2,,3
	.globl	_yahoo_doodle_end
	.def	_yahoo_doodle_end;	.scl	2;	.type	32;	.endef
_yahoo_doodle_end:
LFB111:
	.loc 1 455 0
	.cfi_startproc
LVL84:
	push	esi
LCFI66:
	.cfi_def_cfa_offset 8
	.cfi_offset 6, -8
	push	ebx
LCFI67:
	.cfi_def_cfa_offset 12
	.cfi_offset 3, -12
	sub	esp, 36
LCFI68:
	.cfi_def_cfa_offset 48
	mov	ebx, DWORD PTR [esp+48]
	.loc 1 455 0
	mov	eax, DWORD PTR ___stack_chk_guard
	mov	DWORD PTR [esp+28], eax
	xor	eax, eax
	.loc 1 456 0
	mov	eax, DWORD PTR [ebx+4]
	mov	DWORD PTR [esp], eax
	call	_purple_account_get_connection
LVL85:
	.loc 1 457 0
	mov	esi, DWORD PTR [ebx+16]
LVL86:
	.loc 1 461 0
	test	eax, eax
	je	L78
	.loc 1 461 0 is_stmt 0 discriminator 1
	cmp	DWORD PTR [ebx], 3
	je	L78
	.loc 1 462 0 is_stmt 1
	mov	edx, DWORD PTR [ebx+8]
	mov	DWORD PTR [esp+4], edx
	mov	DWORD PTR [esp], eax
	call	_yahoo_doodle_command_send_shutdown
LVL87:
L78:
	.loc 1 464 0
	mov	eax, DWORD PTR [esi+8]
	mov	DWORD PTR [esp], eax
	call	_g_free
LVL88:
	.loc 1 465 0
	mov	eax, DWORD PTR [esp+28]
	xor	eax, DWORD PTR ___stack_chk_guard
	jne	L85
	mov	eax, DWORD PTR [ebx+16]
	mov	DWORD PTR [esp+48], eax
	.loc 1 466 0
	add	esp, 36
LCFI69:
	.cfi_remember_state
	.cfi_def_cfa_offset 12
	pop	ebx
LCFI70:
	.cfi_restore 3
	.cfi_def_cfa_offset 8
	pop	esi
LCFI71:
	.cfi_restore 6
	.cfi_def_cfa_offset 4
LVL89:
	.loc 1 465 0
	jmp	_g_free
LVL90:
L85:
LCFI72:
	.cfi_restore_state
	call	___stack_chk_fail
LVL91:
	.cfi_endproc
LFE111:
	.p2align 2,,3
	.globl	_yahoo_doodle_get_dimensions
	.def	_yahoo_doodle_get_dimensions;	.scl	2;	.type	32;	.endef
_yahoo_doodle_get_dimensions:
LFB112:
	.loc 1 469 0
	.cfi_startproc
LVL92:
	sub	esp, 28
LCFI73:
	.cfi_def_cfa_offset 32
	.loc 1 469 0
	mov	eax, DWORD PTR ___stack_chk_guard
	mov	DWORD PTR [esp+12], eax
	xor	eax, eax
	.loc 1 471 0
	mov	eax, DWORD PTR [esp+36]
	mov	DWORD PTR [eax], 368
	.loc 1 472 0
	mov	eax, DWORD PTR [esp+40]
	mov	DWORD PTR [eax], 256
	.loc 1 473 0
	mov	eax, DWORD PTR [esp+12]
	xor	eax, DWORD PTR ___stack_chk_guard
	jne	L89
	add	esp, 28
LCFI74:
	.cfi_remember_state
	.cfi_def_cfa_offset 4
	ret
L89:
LCFI75:
	.cfi_restore_state
	call	___stack_chk_fail
LVL93:
	.cfi_endproc
LFE112:
	.section .rdata,"dr"
LC22:
	.ascii ",%d\0"
LC23:
	.ascii "draw_list != NULL\0"
LC24:
	.ascii "\"%d,%d\0"
	.text
	.p2align 2,,3
	.globl	_yahoo_doodle_send_draw_list
	.def	_yahoo_doodle_send_draw_list;	.scl	2;	.type	32;	.endef
_yahoo_doodle_send_draw_list:
LFB114:
	.loc 1 494 0
	.cfi_startproc
LVL94:
	push	ebp
LCFI76:
	.cfi_def_cfa_offset 8
	.cfi_offset 5, -8
	push	edi
LCFI77:
	.cfi_def_cfa_offset 12
	.cfi_offset 7, -12
	push	esi
LCFI78:
	.cfi_def_cfa_offset 16
	.cfi_offset 6, -16
	push	ebx
LCFI79:
	.cfi_def_cfa_offset 20
	.cfi_offset 3, -20
	sub	esp, 44
LCFI80:
	.cfi_def_cfa_offset 64
	mov	edi, DWORD PTR [esp+64]
	mov	ebx, DWORD PTR [esp+68]
	.loc 1 494 0
	mov	eax, DWORD PTR ___stack_chk_guard
	mov	DWORD PTR [esp+28], eax
	xor	eax, eax
	.loc 1 495 0
	mov	ebp, DWORD PTR [edi+16]
LVL95:
LBB12:
	.loc 1 498 0
	test	ebx, ebx
	je	L103
LVL96:
LBE12:
LBB13:
LBB14:
	.loc 1 481 0
	mov	DWORD PTR [esp], OFFSET FLAT:LC10
	call	_g_string_new
LVL97:
	mov	esi, eax
LVL98:
	.loc 1 482 0
	mov	eax, DWORD PTR [ebp+0]
LVL99:
	mov	DWORD PTR [esp+12], eax
	mov	eax, DWORD PTR [ebp+4]
	mov	DWORD PTR [esp+8], eax
	mov	DWORD PTR [esp+4], OFFSET FLAT:LC24
	mov	DWORD PTR [esp], esi
	call	_g_string_printf
LVL100:
	.p2align 2,,3
L93:
	.loc 1 486 0
	mov	eax, DWORD PTR [ebx]
	mov	DWORD PTR [esp+8], eax
	mov	DWORD PTR [esp+4], OFFSET FLAT:LC22
	mov	DWORD PTR [esp], esi
	call	_g_string_append_printf
LVL101:
	.loc 1 484 0
	mov	ebx, DWORD PTR [ebx+4]
LVL102:
	test	ebx, ebx
	jne	L93
LVL103:
LBB15:
LBB16:
	.file 2 "../../../../win32-dev/gtk_2_0-2.14/include/glib-2.0/glib/gstring.h"
	.loc 2 147 0
	mov	edx, DWORD PTR [esi+4]
	lea	eax, [edx+1]
	cmp	eax, DWORD PTR [esi+8]
	jae	L94
	.loc 2 149 0
	mov	ecx, DWORD PTR [esi]
	mov	BYTE PTR [ecx+edx], 34
	mov	DWORD PTR [esi+4], eax
	.loc 2 150 0
	mov	edx, DWORD PTR [esi]
	mov	BYTE PTR [edx+eax], 0
L95:
LBE16:
LBE15:
	.loc 1 490 0
	mov	DWORD PTR [esp+4], 0
	mov	DWORD PTR [esp], esi
	call	_g_string_free
LVL104:
	mov	ebx, eax
LVL105:
LBE14:
LBE13:
	.loc 1 501 0
	mov	eax, DWORD PTR [ebp+8]
	mov	DWORD PTR [esp+12], eax
	mov	DWORD PTR [esp+8], ebx
	mov	eax, DWORD PTR [edi+8]
	mov	DWORD PTR [esp+4], eax
	mov	eax, DWORD PTR [edi+4]
	mov	eax, DWORD PTR [eax+28]
	mov	DWORD PTR [esp], eax
	call	_yahoo_doodle_command_send_draw
LVL106:
	.loc 1 502 0
	mov	eax, DWORD PTR [esp+28]
	xor	eax, DWORD PTR ___stack_chk_guard
	jne	L101
	mov	DWORD PTR [esp+64], ebx
	.loc 1 503 0
	add	esp, 44
LCFI81:
	.cfi_remember_state
	.cfi_def_cfa_offset 20
	pop	ebx
LCFI82:
	.cfi_restore 3
	.cfi_def_cfa_offset 16
	pop	esi
LCFI83:
	.cfi_restore 6
	.cfi_def_cfa_offset 12
LVL107:
	pop	edi
LCFI84:
	.cfi_restore 7
	.cfi_def_cfa_offset 8
	pop	ebp
LCFI85:
	.cfi_restore 5
	.cfi_def_cfa_offset 4
LVL108:
	.loc 1 502 0
	jmp	_g_free
LVL109:
	.p2align 2,,3
L94:
LCFI86:
	.cfi_restore_state
LBB20:
LBB19:
LBB18:
LBB17:
	.loc 2 153 0
	mov	DWORD PTR [esp+8], 34
	mov	DWORD PTR [esp+4], -1
	mov	DWORD PTR [esp], esi
	call	_g_string_insert_c
LVL110:
	jmp	L95
LVL111:
	.p2align 2,,3
L103:
LBE17:
LBE18:
LBE19:
LBE20:
	.loc 1 498 0
	mov	DWORD PTR [esp+8], OFFSET FLAT:LC23
	mov	DWORD PTR [esp+4], OFFSET FLAT:___PRETTY_FUNCTION__.45234
	mov	DWORD PTR [esp], 0
	call	_g_return_if_fail_warning
LVL112:
	.loc 1 503 0
	mov	eax, DWORD PTR [esp+28]
	xor	eax, DWORD PTR ___stack_chk_guard
	jne	L101
	add	esp, 44
LCFI87:
	.cfi_remember_state
	.cfi_def_cfa_offset 20
	pop	ebx
LCFI88:
	.cfi_restore 3
	.cfi_def_cfa_offset 16
	pop	esi
LCFI89:
	.cfi_restore 6
	.cfi_def_cfa_offset 12
	pop	edi
LCFI90:
	.cfi_restore 7
	.cfi_def_cfa_offset 8
	pop	ebp
LCFI91:
	.cfi_restore 5
	.cfi_def_cfa_offset 4
LVL113:
	ret
LVL114:
L101:
LCFI92:
	.cfi_restore_state
	call	___stack_chk_fail
LVL115:
	.cfi_endproc
LFE114:
	.p2align 2,,3
	.globl	_yahoo_doodle_clear
	.def	_yahoo_doodle_clear;	.scl	2;	.type	32;	.endef
_yahoo_doodle_clear:
LFB115:
	.loc 1 506 0
	.cfi_startproc
LVL116:
	sub	esp, 44
LCFI93:
	.cfi_def_cfa_offset 48
	mov	eax, DWORD PTR [esp+48]
	.loc 1 506 0
	mov	edx, DWORD PTR ___stack_chk_guard
	mov	DWORD PTR [esp+28], edx
	xor	edx, edx
LVL117:
	.loc 1 508 0
	mov	edx, DWORD PTR [eax+16]
	mov	edx, DWORD PTR [edx+8]
	mov	DWORD PTR [esp+8], edx
	mov	edx, DWORD PTR [eax+8]
	mov	DWORD PTR [esp+4], edx
	mov	eax, DWORD PTR [eax+4]
LVL118:
	mov	eax, DWORD PTR [eax+28]
	mov	DWORD PTR [esp], eax
	call	_yahoo_doodle_command_send_clear
LVL119:
	.loc 1 509 0
	mov	eax, DWORD PTR [esp+28]
	xor	eax, DWORD PTR ___stack_chk_guard
	jne	L107
	add	esp, 44
LCFI94:
	.cfi_remember_state
	.cfi_def_cfa_offset 4
	ret
L107:
LCFI95:
	.cfi_restore_state
	call	___stack_chk_fail
LVL120:
	.cfi_endproc
LFE115:
	.p2align 2,,3
	.globl	_yahoo_doodle_draw_stroke
	.def	_yahoo_doodle_draw_stroke;	.scl	2;	.type	32;	.endef
_yahoo_doodle_draw_stroke:
LFB116:
	.loc 1 514 0
	.cfi_startproc
LVL121:
	push	ebp
LCFI96:
	.cfi_def_cfa_offset 8
	.cfi_offset 5, -8
	push	edi
LCFI97:
	.cfi_def_cfa_offset 12
	.cfi_offset 7, -12
	push	esi
LCFI98:
	.cfi_def_cfa_offset 16
	.cfi_offset 6, -16
	push	ebx
LCFI99:
	.cfi_def_cfa_offset 20
	.cfi_offset 3, -20
	sub	esp, 76
LCFI100:
	.cfi_def_cfa_offset 96
	mov	ebp, DWORD PTR [esp+96]
	mov	eax, DWORD PTR [esp+100]
	.loc 1 514 0
	mov	edx, DWORD PTR ___stack_chk_guard
	mov	DWORD PTR [esp+60], edx
	xor	edx, edx
LBB21:
	.loc 1 520 0
	test	eax, eax
	je	L119
LVL122:
LBE21:
	.loc 1 522 0
	mov	edx, DWORD PTR [eax]
	mov	DWORD PTR [esp+40], edx
LVL123:
	.loc 1 523 0
	mov	eax, DWORD PTR [eax+4]
LVL124:
LBB22:
	.loc 1 524 0
	test	eax, eax
	je	L119
LVL125:
LBE22:
	.loc 1 526 0
	mov	edx, DWORD PTR [eax]
LVL126:
	mov	DWORD PTR [esp+44], edx
LVL127:
	.loc 1 527 0
	mov	eax, DWORD PTR [eax+4]
LVL128:
LBB23:
	.loc 1 528 0
	test	eax, eax
	je	L119
LVL129:
LBE23:
	.loc 1 530 0
	mov	ecx, DWORD PTR [eax]
LVL130:
	.loc 1 531 0
	mov	eax, DWORD PTR [eax+4]
LVL131:
LBB24:
	.loc 1 532 0
	test	eax, eax
	je	L119
LVL132:
LBE24:
	.loc 1 534 0
	mov	edx, DWORD PTR [eax]
LVL133:
	.loc 1 535 0
	mov	ebx, DWORD PTR [eax+4]
LVL134:
LBB25:
	.loc 1 536 0
	test	ebx, ebx
	je	L119
LBE25:
	.loc 1 542 0 discriminator 1
	mov	eax, DWORD PTR [ebx+4]
	test	eax, eax
	jne	L122
	jmp	L108
LVL135:
	.p2align 2,,3
L128:
	.loc 1 542 0 is_stmt 0 discriminator 2
	mov	eax, DWORD PTR [ebx+4]
	.loc 1 552 0 is_stmt 1 discriminator 2
	mov	ecx, edi
	.loc 1 553 0 discriminator 2
	mov	edx, esi
	.loc 1 542 0 discriminator 2
	test	eax, eax
	je	L108
LVL136:
L122:
LBB26:
	.loc 1 547 0
	mov	esi, DWORD PTR [eax]
	add	esi, edx
	mov	edi, DWORD PTR [ebx]
	add	edi, ecx
	mov	eax, DWORD PTR [esp+44]
LVL137:
	mov	DWORD PTR [esp+24], eax
	mov	eax, DWORD PTR [esp+40]
	mov	DWORD PTR [esp+20], eax
	mov	DWORD PTR [esp+16], esi
	mov	DWORD PTR [esp+12], edi
	mov	DWORD PTR [esp+8], edx
	mov	DWORD PTR [esp+4], ecx
	mov	DWORD PTR [esp], ebp
	call	_purple_whiteboard_draw_line
LVL138:
	.loc 1 555 0
	mov	eax, DWORD PTR [ebx+4]
	mov	ebx, DWORD PTR [eax+4]
LVL139:
LBE26:
	.loc 1 542 0
	test	ebx, ebx
	jne	L128
LVL140:
L108:
	.loc 1 557 0
	mov	eax, DWORD PTR [esp+60]
	xor	eax, DWORD PTR ___stack_chk_guard
	jne	L129
	add	esp, 76
LCFI101:
	.cfi_remember_state
	.cfi_def_cfa_offset 20
	pop	ebx
LCFI102:
	.cfi_restore 3
	.cfi_def_cfa_offset 16
	pop	esi
LCFI103:
	.cfi_restore 6
	.cfi_def_cfa_offset 12
	pop	edi
LCFI104:
	.cfi_restore 7
	.cfi_def_cfa_offset 8
	pop	ebp
LCFI105:
	.cfi_restore 5
	.cfi_def_cfa_offset 4
	ret
	.p2align 2,,3
L119:
LCFI106:
	.cfi_restore_state
LVL141:
	.loc 1 536 0
	mov	DWORD PTR [esp+8], OFFSET FLAT:LC23
	mov	DWORD PTR [esp+4], OFFSET FLAT:___PRETTY_FUNCTION__.45249
	mov	DWORD PTR [esp], 0
	call	_g_return_if_fail_warning
LVL142:
	jmp	L108
LVL143:
L129:
	.loc 1 557 0
	call	___stack_chk_fail
LVL144:
	.cfi_endproc
LFE116:
	.p2align 2,,3
	.globl	_yahoo_doodle_get_brush
	.def	_yahoo_doodle_get_brush;	.scl	2;	.type	32;	.endef
_yahoo_doodle_get_brush:
LFB117:
	.loc 1 560 0
	.cfi_startproc
LVL145:
	sub	esp, 28
LCFI107:
	.cfi_def_cfa_offset 32
	.loc 1 560 0
	mov	eax, DWORD PTR ___stack_chk_guard
	mov	DWORD PTR [esp+12], eax
	xor	eax, eax
	.loc 1 561 0
	mov	eax, DWORD PTR [esp+32]
	mov	eax, DWORD PTR [eax+16]
LVL146:
	.loc 1 562 0
	mov	ecx, DWORD PTR [eax]
	mov	edx, DWORD PTR [esp+36]
	mov	DWORD PTR [edx], ecx
	.loc 1 563 0
	mov	edx, DWORD PTR [eax+4]
	mov	eax, DWORD PTR [esp+40]
LVL147:
	mov	DWORD PTR [eax], edx
	.loc 1 564 0
	mov	eax, DWORD PTR [esp+12]
	xor	eax, DWORD PTR ___stack_chk_guard
	jne	L133
	add	esp, 28
LCFI108:
	.cfi_remember_state
	.cfi_def_cfa_offset 4
	ret
L133:
LCFI109:
	.cfi_restore_state
	call	___stack_chk_fail
LVL148:
	.cfi_endproc
LFE117:
	.p2align 2,,3
	.globl	_yahoo_doodle_set_brush
	.def	_yahoo_doodle_set_brush;	.scl	2;	.type	32;	.endef
_yahoo_doodle_set_brush:
LFB118:
	.loc 1 567 0
	.cfi_startproc
LVL149:
	push	ebx
LCFI110:
	.cfi_def_cfa_offset 8
	.cfi_offset 3, -8
	sub	esp, 24
LCFI111:
	.cfi_def_cfa_offset 32
	mov	edx, DWORD PTR [esp+32]
	mov	ecx, DWORD PTR [esp+36]
	mov	ebx, DWORD PTR [esp+40]
	.loc 1 567 0
	mov	eax, DWORD PTR ___stack_chk_guard
	mov	DWORD PTR [esp+12], eax
	xor	eax, eax
	.loc 1 568 0
	mov	eax, DWORD PTR [edx+16]
LVL150:
	.loc 1 569 0
	mov	DWORD PTR [eax], ecx
	.loc 1 570 0
	mov	DWORD PTR [eax+4], ebx
	.loc 1 573 0
	mov	eax, DWORD PTR [esp+12]
	xor	eax, DWORD PTR ___stack_chk_guard
LVL151:
	jne	L138
	mov	DWORD PTR [esp+40], ebx
	mov	DWORD PTR [esp+36], ecx
	mov	DWORD PTR [esp+32], edx
	.loc 1 574 0
	add	esp, 24
LCFI112:
	.cfi_remember_state
	.cfi_def_cfa_offset 8
	pop	ebx
LCFI113:
	.cfi_restore 3
	.cfi_def_cfa_offset 4
	.loc 1 573 0
	jmp	_purple_whiteboard_set_brush
LVL152:
L138:
LCFI114:
	.cfi_restore_state
	call	___stack_chk_fail
LVL153:
	.cfi_endproc
LFE118:
	.section .rdata,"dr"
LC25:
	.ascii "doodle: Got Request (%s)\12\0"
LC26:
	.ascii "doodle: Got Ready(%s)\12\0"
LC27:
	.ascii "doodle: Got Clear (%s)\12\0"
LC28:
	.ascii ",\0"
LC29:
	.ascii "doodle: Got Extra (%s)\12\0"
LC30:
	.ascii "\"1\"\0"
LC31:
	.ascii "doodle: Got Confirm (%s)\12\0"
LC32:
	.ascii "message != NULL\0"
LC33:
	.ascii "doodle: Got Draw (%s)\12\0"
LC34:
	.ascii "doodle: Draw message: %s\12\0"
	.text
	.p2align 2,,3
	.globl	_yahoo_doodle_process
	.def	_yahoo_doodle_process;	.scl	2;	.type	32;	.endef
_yahoo_doodle_process:
LFB119:
	.loc 1 578 0
	.cfi_startproc
LVL154:
	push	ebp
LCFI115:
	.cfi_def_cfa_offset 8
	.cfi_offset 5, -8
	push	edi
LCFI116:
	.cfi_def_cfa_offset 12
	.cfi_offset 7, -12
	push	esi
LCFI117:
	.cfi_def_cfa_offset 16
	.cfi_offset 6, -16
	push	ebx
LCFI118:
	.cfi_def_cfa_offset 20
	.cfi_offset 3, -20
	sub	esp, 60
LCFI119:
	.cfi_def_cfa_offset 80
	mov	esi, DWORD PTR [esp+80]
	mov	ebx, DWORD PTR [esp+88]
	mov	eax, DWORD PTR [esp+92]
	mov	ebp, DWORD PTR [esp+96]
	mov	edi, DWORD PTR [esp+100]
	.loc 1 578 0
	mov	edx, DWORD PTR ___stack_chk_guard
	mov	DWORD PTR [esp+44], edx
	xor	edx, edx
	.loc 1 579 0
	test	eax, eax
	je	L139
	.loc 1 583 0
	mov	DWORD PTR [esp], eax
	call	_atoi
LVL155:
	cmp	eax, 5
	jbe	L186
LVL156:
L139:
	.loc 1 609 0
	mov	edx, DWORD PTR [esp+44]
	xor	edx, DWORD PTR ___stack_chk_guard
	jne	L184
	add	esp, 60
LCFI120:
	.cfi_remember_state
	.cfi_def_cfa_offset 20
	pop	ebx
LCFI121:
	.cfi_restore 3
	.cfi_def_cfa_offset 16
	pop	esi
LCFI122:
	.cfi_restore 6
	.cfi_def_cfa_offset 12
	pop	edi
LCFI123:
	.cfi_restore 7
	.cfi_def_cfa_offset 8
	pop	ebp
LCFI124:
	.cfi_restore 5
	.cfi_def_cfa_offset 4
	ret
LVL157:
	.p2align 2,,3
L186:
LCFI125:
	.cfi_restore_state
	.loc 1 583 0
	jmp	[DWORD PTR L148[0+eax*4]]
	.section .rdata,"dr"
	.align 4
L148:
	.long	L142
	.long	L143
	.long	L144
	.long	L145
	.long	L146
	.long	L147
	.text
	.p2align 2,,3
L146:
LVL158:
LBB43:
LBB44:
	.loc 1 178 0
	mov	DWORD PTR [esp+8], ebx
	mov	DWORD PTR [esp+4], OFFSET FLAT:LC26
	mov	DWORD PTR [esp], OFFSET FLAT:LC2
	call	_purple_debug_info
LVL159:
	.loc 1 180 0
	mov	DWORD PTR [esp], esi
	call	_purple_connection_get_account
LVL160:
	.loc 1 185 0
	mov	DWORD PTR [esp+4], ebx
	mov	DWORD PTR [esp], eax
	call	_purple_whiteboard_get_session
LVL161:
	.loc 1 187 0
	test	eax, eax
	je	L139
	.loc 1 190 0
	mov	edx, DWORD PTR [eax]
	test	edx, edx
	je	L187
	.loc 1 202 0
	cmp	edx, 2
	je	L185
	.loc 1 212 0
	dec	edx
	jne	L139
	.loc 1 215 0
	mov	eax, DWORD PTR [esp+44]
	xor	eax, DWORD PTR ___stack_chk_guard
LVL162:
	jne	L184
LVL163:
L154:
	mov	DWORD PTR [esp+88], edi
	mov	DWORD PTR [esp+84], ebx
	mov	DWORD PTR [esp+80], esi
LBE44:
LBE43:
	.loc 1 609 0
	add	esp, 60
LCFI126:
	.cfi_remember_state
	.cfi_def_cfa_offset 20
	pop	ebx
LCFI127:
	.cfi_restore 3
	.cfi_def_cfa_offset 16
	pop	esi
LCFI128:
	.cfi_restore 6
	.cfi_def_cfa_offset 12
	pop	edi
LCFI129:
	.cfi_restore 7
	.cfi_def_cfa_offset 8
	pop	ebp
LCFI130:
	.cfi_restore 5
	.cfi_def_cfa_offset 4
LBB48:
LBB46:
	.loc 1 215 0
	jmp	_yahoo_doodle_command_send_ready
LVL164:
	.p2align 2,,3
L145:
LCFI131:
	.cfi_restore_state
LBE46:
LBE48:
LBB49:
LBB50:
	.loc 1 305 0
	mov	DWORD PTR [esp+8], ebx
	mov	DWORD PTR [esp+4], OFFSET FLAT:LC29
	mov	DWORD PTR [esp], OFFSET FLAT:LC2
	call	_purple_debug_info
LVL165:
	.loc 1 310 0
	mov	eax, DWORD PTR [esp+44]
	xor	eax, DWORD PTR ___stack_chk_guard
	jne	L184
	mov	DWORD PTR [esp+92], edi
	mov	DWORD PTR [esp+88], OFFSET FLAT:LC30
	mov	DWORD PTR [esp+84], ebx
	mov	DWORD PTR [esp+80], esi
LBE50:
LBE49:
	.loc 1 609 0
	add	esp, 60
LCFI132:
	.cfi_remember_state
	.cfi_def_cfa_offset 20
	pop	ebx
LCFI133:
	.cfi_restore 3
	.cfi_def_cfa_offset 16
LVL166:
	pop	esi
LCFI134:
	.cfi_restore 6
	.cfi_def_cfa_offset 12
LVL167:
	pop	edi
LCFI135:
	.cfi_restore 7
	.cfi_def_cfa_offset 8
LVL168:
	pop	ebp
LCFI136:
	.cfi_restore 5
	.cfi_def_cfa_offset 4
LBB52:
LBB51:
	.loc 1 310 0
	jmp	_yahoo_doodle_command_send_extra
LVL169:
	.p2align 2,,3
L144:
LCFI137:
	.cfi_restore_state
LBE51:
LBE52:
LBB53:
LBB54:
LBB55:
	.loc 1 227 0
	test	ebp, ebp
	je	L188
LVL170:
LBE55:
	.loc 1 229 0
	mov	DWORD PTR [esp+8], ebx
	mov	DWORD PTR [esp+4], OFFSET FLAT:LC33
	mov	DWORD PTR [esp], OFFSET FLAT:LC2
	call	_purple_debug_info
LVL171:
	.loc 1 230 0
	mov	DWORD PTR [esp+8], ebp
	mov	DWORD PTR [esp+4], OFFSET FLAT:LC34
	mov	DWORD PTR [esp], OFFSET FLAT:LC2
	call	_purple_debug_info
LVL172:
	.loc 1 232 0
	mov	DWORD PTR [esp], esi
	call	_purple_connection_get_account
LVL173:
	.loc 1 237 0
	mov	DWORD PTR [esp+4], ebx
	mov	DWORD PTR [esp], eax
	call	_purple_whiteboard_get_session
LVL174:
	mov	esi, eax
LVL175:
	.loc 1 239 0
	test	eax, eax
	je	L139
	.loc 1 247 0
	cmp	BYTE PTR [ebp+0], 34
	jne	L139
	xor	eax, eax
LVL176:
	mov	ecx, -1
	mov	edi, ebp
	repne scasb
LVL177:
	not	ecx
	cmp	BYTE PTR [ebp-2+ecx], 34
	jne	L139
LVL178:
	.loc 1 253 0
	mov	DWORD PTR [esp+8], 0
	mov	DWORD PTR [esp+4], OFFSET FLAT:LC28
	.loc 1 251 0
	inc	ebp
LVL179:
	.loc 1 253 0
	mov	DWORD PTR [esp], ebp
	call	_g_strsplit
LVL180:
	mov	DWORD PTR [esp+24], eax
LVL181:
	.loc 1 256 0
	mov	edx, DWORD PTR [eax]
	test	edx, edx
	je	L167
	.loc 1 576 0
	mov	ebx, eax
LVL182:
	add	ebx, 4
LBE54:
LBE53:
	mov	ebp, eax
LVL183:
	.loc 1 225 0
	xor	edi, edi
LBB62:
LBB58:
LBB56:
	.loc 1 258 0
	mov	DWORD PTR [esp+28], esi
	mov	esi, edi
LVL184:
	jmp	L160
LVL185:
	.p2align 2,,3
L159:
	.loc 1 262 0
	mov	eax, DWORD PTR [ebp+0]
	mov	DWORD PTR [esp], eax
	call	_atoi
LVL186:
	mov	DWORD PTR [esp+4], eax
	mov	DWORD PTR [esp], esi
	call	_g_list_prepend
LVL187:
	mov	esi, eax
LVL188:
LBE56:
	.loc 1 256 0
	mov	ebp, ebx
	add	ebx, 4
	mov	edx, DWORD PTR [ebx-4]
	test	edx, edx
	je	L189
LVL189:
L160:
LBB57:
	.loc 1 258 0
	mov	ecx, -1
	mov	edi, edx
	xor	eax, eax
	repne scasb
	not	ecx
	.loc 1 259 0
	lea	eax, [edx-2+ecx]
	cmp	BYTE PTR [eax], 34
	jne	L159
	.loc 1 260 0
	mov	BYTE PTR [eax], 0
	jmp	L159
LVL190:
	.p2align 2,,3
L143:
LBE57:
LBE58:
LBE62:
LBB63:
LBB64:
	.loc 1 281 0
	mov	DWORD PTR [esp+8], ebx
	mov	DWORD PTR [esp+4], OFFSET FLAT:LC27
	mov	DWORD PTR [esp], OFFSET FLAT:LC2
	call	_purple_debug_info
LVL191:
	.loc 1 283 0
	mov	DWORD PTR [esp], esi
	call	_purple_connection_get_account
LVL192:
	.loc 1 288 0
	mov	DWORD PTR [esp+4], ebx
	mov	DWORD PTR [esp], eax
	call	_purple_whiteboard_get_session
LVL193:
	.loc 1 290 0
	test	eax, eax
	je	L139
	.loc 1 293 0
	cmp	DWORD PTR [eax], 2
	jne	L139
LVL194:
L185:
	.loc 1 297 0
	mov	edx, DWORD PTR [esp+44]
	xor	edx, DWORD PTR ___stack_chk_guard
	jne	L184
	mov	DWORD PTR [esp+80], eax
LBE64:
LBE63:
	.loc 1 609 0
	add	esp, 60
LCFI138:
	.cfi_remember_state
	.cfi_def_cfa_offset 20
	pop	ebx
LCFI139:
	.cfi_restore 3
	.cfi_def_cfa_offset 16
	pop	esi
LCFI140:
	.cfi_restore 6
	.cfi_def_cfa_offset 12
	pop	edi
LCFI141:
	.cfi_restore 7
	.cfi_def_cfa_offset 8
	pop	ebp
LCFI142:
	.cfi_restore 5
	.cfi_def_cfa_offset 4
LBB66:
LBB65:
	.loc 1 297 0
	jmp	_purple_whiteboard_clear
LVL195:
	.p2align 2,,3
L142:
LCFI143:
	.cfi_restore_state
LBE65:
LBE66:
LBB67:
LBB68:
	.loc 1 135 0
	mov	DWORD PTR [esp+8], ebx
	mov	DWORD PTR [esp+4], OFFSET FLAT:LC25
	mov	DWORD PTR [esp], OFFSET FLAT:LC2
	call	_purple_debug_info
LVL196:
	.loc 1 137 0
	mov	DWORD PTR [esp], esi
	call	_purple_connection_get_account
LVL197:
	mov	ebp, eax
LVL198:
	.loc 1 142 0
	mov	DWORD PTR [esp+4], ebx
	mov	DWORD PTR [esp], eax
	call	_purple_whiteboard_get_session
LVL199:
	.loc 1 145 0
	test	eax, eax
	jne	L139
LBB69:
	.loc 1 161 0
	mov	DWORD PTR [esp+8], 1
	mov	DWORD PTR [esp+4], ebx
	mov	DWORD PTR [esp], ebp
	call	_purple_whiteboard_create
LVL200:
	.loc 1 162 0
	mov	ebp, DWORD PTR [eax+16]
LVL201:
	.loc 1 163 0
	mov	DWORD PTR [esp], edi
	call	_g_strdup
LVL202:
	mov	DWORD PTR [ebp+8], eax
	.loc 1 165 0
	mov	eax, DWORD PTR [esp+44]
	xor	eax, DWORD PTR ___stack_chk_guard
	je	L154
LVL203:
L184:
LBE69:
LBE68:
LBE67:
	.loc 1 609 0
	call	___stack_chk_fail
LVL204:
	.p2align 2,,3
L147:
LBB70:
LBB71:
	.loc 1 318 0
	mov	DWORD PTR [esp+8], ebx
	mov	DWORD PTR [esp+4], OFFSET FLAT:LC31
	mov	DWORD PTR [esp], OFFSET FLAT:LC2
	call	_purple_debug_info
LVL205:
	.loc 1 321 0
	mov	DWORD PTR [esp], esi
	call	_purple_connection_get_account
LVL206:
	.loc 1 326 0
	mov	DWORD PTR [esp+4], ebx
	mov	DWORD PTR [esp], eax
	call	_purple_whiteboard_get_session
LVL207:
	.loc 1 328 0
	test	eax, eax
	je	L139
	.loc 1 344 0
	cmp	DWORD PTR [eax], 1
	jne	L139
	.loc 1 346 0
	mov	DWORD PTR [eax], 2
	.loc 1 348 0
	mov	edx, DWORD PTR [esp+44]
	xor	edx, DWORD PTR ___stack_chk_guard
	jne	L184
	mov	DWORD PTR [esp+80], eax
LBE71:
LBE70:
	.loc 1 609 0
	add	esp, 60
LCFI144:
	.cfi_remember_state
	.cfi_def_cfa_offset 20
	pop	ebx
LCFI145:
	.cfi_restore 3
	.cfi_def_cfa_offset 16
LVL208:
	pop	esi
LCFI146:
	.cfi_restore 6
	.cfi_def_cfa_offset 12
LVL209:
	pop	edi
LCFI147:
	.cfi_restore 7
	.cfi_def_cfa_offset 8
	pop	ebp
LCFI148:
	.cfi_restore 5
	.cfi_def_cfa_offset 4
LBB73:
LBB72:
	.loc 1 348 0
	jmp	_purple_whiteboard_start
LVL210:
	.p2align 2,,3
L187:
LCFI149:
	.cfi_restore_state
LBE72:
LBE73:
LBB74:
LBB47:
LBB45:
	.loc 1 192 0
	mov	ebp, DWORD PTR [eax+16]
LVL211:
	.loc 1 193 0
	mov	DWORD PTR [esp], eax
	mov	DWORD PTR [esp+20], eax
	call	_purple_whiteboard_start
LVL212:
	.loc 1 195 0
	mov	eax, DWORD PTR [esp+20]
	mov	DWORD PTR [eax], 2
	.loc 1 197 0
	mov	DWORD PTR [esp+8], edi
	mov	DWORD PTR [esp+4], ebx
	mov	DWORD PTR [esp], esi
	call	_yahoo_doodle_command_send_confirm
LVL213:
	.loc 1 199 0
	mov	eax, DWORD PTR [ebp+8]
	mov	DWORD PTR [esp], eax
	call	_g_free
LVL214:
	.loc 1 200 0
	mov	DWORD PTR [esp], edi
	call	_g_strdup
LVL215:
	mov	DWORD PTR [ebp+8], eax
	jmp	L139
LVL216:
	.p2align 2,,3
L188:
LBE45:
LBE47:
LBE74:
LBB75:
LBB59:
	.loc 1 227 0
	mov	eax, DWORD PTR [esp+44]
	xor	eax, DWORD PTR ___stack_chk_guard
	jne	L184
	mov	DWORD PTR [esp+88], OFFSET FLAT:LC32
	mov	DWORD PTR [esp+84], OFFSET FLAT:___PRETTY_FUNCTION__.45122
	mov	DWORD PTR [esp+80], 0
LBE59:
LBE75:
	.loc 1 609 0
	add	esp, 60
LCFI150:
	.cfi_remember_state
	.cfi_def_cfa_offset 20
	pop	ebx
LCFI151:
	.cfi_restore 3
	.cfi_def_cfa_offset 16
LVL217:
	pop	esi
LCFI152:
	.cfi_restore 6
	.cfi_def_cfa_offset 12
LVL218:
	pop	edi
LCFI153:
	.cfi_restore 7
	.cfi_def_cfa_offset 8
	pop	ebp
LCFI154:
	.cfi_restore 5
	.cfi_def_cfa_offset 4
LVL219:
LBB76:
LBB60:
	.loc 1 227 0
	jmp	_g_return_if_fail_warning
LVL220:
L189:
LCFI155:
	.cfi_restore_state
	mov	edi, eax
	mov	esi, DWORD PTR [esp+28]
LVL221:
L158:
	.loc 1 264 0
	mov	DWORD PTR [esp], edi
	call	_g_list_reverse
LVL222:
	mov	ebx, eax
LVL223:
	.loc 1 266 0
	mov	eax, DWORD PTR [esp+24]
LVL224:
	mov	DWORD PTR [esp], eax
	call	_g_strfreev
LVL225:
	.loc 1 268 0
	mov	DWORD PTR [esp+4], ebx
	mov	DWORD PTR [esp], esi
	call	_yahoo_doodle_draw_stroke
LVL226:
	.loc 1 272 0
	mov	edx, DWORD PTR [esp+44]
	xor	edx, DWORD PTR ___stack_chk_guard
	jne	L184
	mov	DWORD PTR [esp+80], ebx
LBE60:
LBE76:
	.loc 1 609 0
	add	esp, 60
LCFI156:
	.cfi_remember_state
	.cfi_def_cfa_offset 20
	pop	ebx
LCFI157:
	.cfi_restore 3
	.cfi_def_cfa_offset 16
LVL227:
	pop	esi
LCFI158:
	.cfi_restore 6
	.cfi_def_cfa_offset 12
	pop	edi
LCFI159:
	.cfi_restore 7
	.cfi_def_cfa_offset 8
	pop	ebp
LCFI160:
	.cfi_restore 5
	.cfi_def_cfa_offset 4
LBB77:
LBB61:
	.loc 1 272 0
	jmp	_g_list_free
LVL228:
L167:
LCFI161:
	.cfi_restore_state
	.loc 1 225 0
	xor	edi, edi
	jmp	L158
LBE61:
LBE77:
	.cfi_endproc
LFE119:
	.section .rdata,"dr"
___PRETTY_FUNCTION__.45091:
	.ascii "yahoo_doodle_initiate\0"
	.align 32
___PRETTY_FUNCTION__.45153:
	.ascii "yahoo_doodle_command_got_shutdown\0"
___PRETTY_FUNCTION__.45234:
	.ascii "yahoo_doodle_send_draw_list\0"
___PRETTY_FUNCTION__.45249:
	.ascii "yahoo_doodle_draw_stroke\0"
___PRETTY_FUNCTION__.45122:
	.ascii "yahoo_doodle_command_got_draw\0"
	.text
Letext0:
	.file 3 "c:/workspace/pidgin-devel/win32-dev/mingw-4.7.2/bin/../lib/gcc/mingw32/4.7.2/../../../../include/stdio.h"
	.file 4 "c:/workspace/pidgin-devel/win32-dev/mingw-4.7.2/bin/../lib/gcc/mingw32/4.7.2/../../../../include/sys/types.h"
	.file 5 "c:/workspace/pidgin-devel/win32-dev/mingw-4.7.2/bin/../lib/gcc/mingw32/4.7.2/../../../../include/time.h"
	.file 6 "../../../../win32-dev/gtk_2_0-2.14/lib/glib-2.0/include/glibconfig.h"
	.file 7 "../../../../win32-dev/gtk_2_0-2.14/include/glib-2.0/glib/gtypes.h"
	.file 8 "../../../../win32-dev/gtk_2_0-2.14/include/glib-2.0/glib/glist.h"
	.file 9 "../../../../win32-dev/gtk_2_0-2.14/include/glib-2.0/glib/ghash.h"
	.file 10 "../../../../win32-dev/gtk_2_0-2.14/include/glib-2.0/glib/gslist.h"
	.file 11 "../../../libpurple/account.h"
	.file 12 "../../../libpurple/connection.h"
	.file 13 "../../../libpurple/plugin.h"
	.file 14 "../../../libpurple/pluginpref.h"
	.file 15 "../../../libpurple/status.h"
	.file 16 "../../../libpurple/buddyicon.h"
	.file 17 "../../../libpurple/conversation.h"
	.file 18 "../../../libpurple/log.h"
	.file 19 "../../../libpurple/proxy.h"
	.file 20 "../../../libpurple/whiteboard.h"
	.file 21 "../../../libpurple/privacy.h"
	.file 22 "../../../libpurple/cmds.h"
	.file 23 "../../../libpurple/circbuffer.h"
	.file 24 "../../../libpurple/network.h"
	.file 25 "libymsg.h"
	.file 26 "ycht.h"
	.file 27 "yahoo_packet.h"
	.file 28 "yahoo_doodle.h"
	.file 29 "c:/workspace/pidgin-devel/win32-dev/mingw-4.7.2/bin/../lib/gcc/mingw32/4.7.2/../../../../include/ctype.h"
	.file 30 "../../../libpurple/debug.h"
	.file 31 "../../../../win32-dev/gtk_2_0-2.14/include/glib-2.0/glib/gmessages.h"
	.file 32 "../../../../win32-dev/gtk_2_0-2.14/include/libintl.h"
	.file 33 "../../../../win32-dev/gtk_2_0-2.14/include/glib-2.0/glib/gmem.h"
	.file 34 "../../../../win32-dev/gtk_2_0-2.14/include/glib-2.0/glib/gstrfuncs.h"
	.file 35 "c:/workspace/pidgin-devel/win32-dev/mingw-4.7.2/bin/../lib/gcc/mingw32/4.7.2/../../../../include/stdlib.h"