	.file	"zap.c"
	.intel_syntax noprefix
	.text
Ltext0:
	.section .rdata,"dr"
	.align 4
LC0:
	.ascii "PURPLE_BLIST_NODE_IS_BUDDY(node)\0"
	.text
	.p2align 2,,3
	.def	_msim_send_zap_from_menu;	.scl	3;	.type	32;	.endef
_msim_send_zap_from_menu:
LFB96:
	.file 1 "zap.c"
	.loc 1 159 0
	.cfi_startproc
LVL0:
	push	edi
LCFI0:
	.cfi_def_cfa_offset 8
	.cfi_offset 7, -8
	push	esi
LCFI1:
	.cfi_def_cfa_offset 12
	.cfi_offset 6, -12
	push	ebx
LCFI2:
	.cfi_def_cfa_offset 16
	.cfi_offset 3, -16
	sub	esp, 32
LCFI3:
	.cfi_def_cfa_offset 48
	mov	ebx, DWORD PTR [esp+48]
	mov	esi, DWORD PTR [esp+52]
	.loc 1 159 0
	mov	eax, DWORD PTR ___stack_chk_guard
	mov	DWORD PTR [esp+28], eax
	xor	eax, eax
	.loc 1 166 0
	mov	DWORD PTR [esp], ebx
	call	_purple_blist_node_get_type
LVL1:
	cmp	eax, 2
	je	L9
L1:
	.loc 1 183 0
	mov	eax, DWORD PTR [esp+28]
	xor	eax, DWORD PTR ___stack_chk_guard
	jne	L10
	add	esp, 32
LCFI4:
	.cfi_remember_state
	.cfi_def_cfa_offset 16
	pop	ebx
LCFI5:
	.cfi_restore 3
	.cfi_def_cfa_offset 12
	pop	esi
LCFI6:
	.cfi_restore 6
	.cfi_def_cfa_offset 8
	pop	edi
LCFI7:
	.cfi_restore 7
	.cfi_def_cfa_offset 4
	ret
	.p2align 2,,3
L9:
LCFI8:
	.cfi_restore_state
LBB7:
	.loc 1 171 0
	mov	DWORD PTR [esp], ebx
	call	_purple_blist_node_get_type
LVL2:
	cmp	eax, 2
	je	L11
LVL3:
LBE7:
LBB8:
LBB9:
	mov	DWORD PTR [esp+8], OFFSET FLAT:LC0
	mov	DWORD PTR [esp+4], OFFSET FLAT:___PRETTY_FUNCTION__.44500
	mov	DWORD PTR [esp], 0
	call	_g_return_if_fail_warning
LVL4:
	jmp	L1
LVL5:
	.p2align 2,,3
L11:
LBE9:
LBE8:
	.loc 1 176 0
	mov	DWORD PTR [esp], ebx
	call	_purple_buddy_get_account
LVL6:
	.loc 1 177 0
	mov	DWORD PTR [esp], eax
	call	_purple_account_get_connection
LVL7:
	.loc 1 178 0
	mov	edi, DWORD PTR [eax+28]
LVL8:
	.loc 1 182 0
	mov	DWORD PTR [esp], ebx
	call	_purple_buddy_get_name
LVL9:
	mov	DWORD PTR [esp+8], esi
	mov	DWORD PTR [esp+4], eax
	mov	eax, DWORD PTR [edi+8]
	mov	DWORD PTR [esp], eax
	call	_purple_prpl_send_attention
LVL10:
	jmp	L1
LVL11:
L10:
	.loc 1 183 0
	call	___stack_chk_fail
LVL12:
	.cfi_endproc
LFE96:
	.section .rdata,"dr"
LC1:
	.ascii "Zapping %s...\0"
LC2:
	.ascii "pidgin\0"
LC3:
	.ascii "%s has zapped you!\0"
LC4:
	.ascii "Zap\0"
LC5:
	.ascii "Whacking %s...\0"
LC6:
	.ascii "%s has whacked you!\0"
LC7:
	.ascii "Whack\0"
LC8:
	.ascii "Torching %s...\0"
LC9:
	.ascii "%s has torched you!\0"
LC10:
	.ascii "Torch\0"
LC11:
	.ascii "Smooching %s...\0"
LC12:
	.ascii "%s has smooched you!\0"
LC13:
	.ascii "Smooch\0"
LC14:
	.ascii "Hugging %s...\0"
LC15:
	.ascii "%s has hugged you!\0"
LC16:
	.ascii "Hug\0"
LC17:
	.ascii "Slapping %s...\0"
LC18:
	.ascii "%s has slapped you!\0"
LC19:
	.ascii "Slap\0"
LC20:
	.ascii "Goosing %s...\0"
LC21:
	.ascii "%s has goosed you!\0"
LC22:
	.ascii "Goose\0"
LC23:
	.ascii "High-fiving %s...\0"
LC24:
	.ascii "%s has high-fived you!\0"
LC25:
	.ascii "High-five\0"
LC26:
	.ascii "Punking %s...\0"
LC27:
	.ascii "%s has punk'd you!\0"
LC28:
	.ascii "Punk\0"
LC29:
	.ascii "Raspberrying %s...\0"
LC30:
	.ascii "%s has raspberried you!\0"
LC31:
	.ascii "Raspberry\0"
	.text
	.p2align 2,,3
	.globl	_msim_attention_types
	.def	_msim_attention_types;	.scl	2;	.type	32;	.endef
_msim_attention_types:
LFB93:
	.loc 1 26 0
	.cfi_startproc
LVL13:
	push	esi
LCFI9:
	.cfi_def_cfa_offset 8
	.cfi_offset 6, -8
	push	ebx
LCFI10:
	.cfi_def_cfa_offset 12
	.cfi_offset 3, -12
	sub	esp, 36
LCFI11:
	.cfi_def_cfa_offset 48
	.loc 1 26 0
	mov	eax, DWORD PTR ___stack_chk_guard
	mov	DWORD PTR [esp+28], eax
	xor	eax, eax
	.loc 1 30 0
	mov	eax, DWORD PTR _types.44466
	test	eax, eax
	je	L16
L13:
	.loc 1 97 0
	mov	edx, DWORD PTR [esp+28]
	xor	edx, DWORD PTR ___stack_chk_guard
	jne	L17
	add	esp, 36
LCFI12:
	.cfi_remember_state
	.cfi_def_cfa_offset 12
	pop	ebx
LCFI13:
	.cfi_restore 3
	.cfi_def_cfa_offset 8
	pop	esi
LCFI14:
	.cfi_restore 6
	.cfi_def_cfa_offset 4
	ret
	.p2align 2,,3
L16:
LCFI15:
	.cfi_restore_state
	.loc 1 44 0
	mov	DWORD PTR [esp+4], OFFSET FLAT:LC1
	mov	DWORD PTR [esp], OFFSET FLAT:LC2
	call	_libintl_dgettext
LVL14:
	mov	esi, eax
	mov	DWORD PTR [esp+4], OFFSET FLAT:LC3
	mov	DWORD PTR [esp], OFFSET FLAT:LC2
	call	_libintl_dgettext
LVL15:
	mov	ebx, eax
	mov	DWORD PTR [esp+4], OFFSET FLAT:LC4
	mov	DWORD PTR [esp], OFFSET FLAT:LC2
	call	_libintl_dgettext
LVL16:
	mov	DWORD PTR [esp+12], esi
	mov	DWORD PTR [esp+8], ebx
	mov	DWORD PTR [esp+4], eax
	mov	DWORD PTR [esp], OFFSET FLAT:LC4
	call	_purple_attention_type_new
LVL17:
	mov	ebx, eax
LVL18:
	mov	DWORD PTR [esp+4], 0
	mov	DWORD PTR [esp], eax
	call	_purple_attention_type_set_icon_name
LVL19:
	mov	DWORD PTR [esp+4], ebx
	mov	eax, DWORD PTR _types.44466
	mov	DWORD PTR [esp], eax
	call	_g_list_append
LVL20:
	mov	DWORD PTR _types.44466, eax
	.loc 1 48 0
	mov	DWORD PTR [esp+4], OFFSET FLAT:LC5
	mov	DWORD PTR [esp], OFFSET FLAT:LC2
	call	_libintl_dgettext
LVL21:
	mov	esi, eax
	mov	DWORD PTR [esp+4], OFFSET FLAT:LC6
	mov	DWORD PTR [esp], OFFSET FLAT:LC2
	call	_libintl_dgettext
LVL22:
	mov	ebx, eax
LVL23:
	mov	DWORD PTR [esp+4], OFFSET FLAT:LC7
	mov	DWORD PTR [esp], OFFSET FLAT:LC2
	call	_libintl_dgettext
LVL24:
	mov	DWORD PTR [esp+12], esi
	mov	DWORD PTR [esp+8], ebx
	mov	DWORD PTR [esp+4], eax
	mov	DWORD PTR [esp], OFFSET FLAT:LC7
	call	_purple_attention_type_new
LVL25:
	mov	ebx, eax
LVL26:
	mov	DWORD PTR [esp+4], 0
	mov	DWORD PTR [esp], eax
	call	_purple_attention_type_set_icon_name
LVL27:
	mov	DWORD PTR [esp+4], ebx
	mov	eax, DWORD PTR _types.44466
	mov	DWORD PTR [esp], eax
	call	_g_list_append
LVL28:
	mov	DWORD PTR _types.44466, eax
	.loc 1 54 0
	mov	DWORD PTR [esp+4], OFFSET FLAT:LC8
	mov	DWORD PTR [esp], OFFSET FLAT:LC2
	call	_libintl_dgettext
LVL29:
	mov	esi, eax
	mov	DWORD PTR [esp+4], OFFSET FLAT:LC9
	mov	DWORD PTR [esp], OFFSET FLAT:LC2
	call	_libintl_dgettext
LVL30:
	mov	ebx, eax
LVL31:
	mov	DWORD PTR [esp+4], OFFSET FLAT:LC10
	mov	DWORD PTR [esp], OFFSET FLAT:LC2
	call	_libintl_dgettext
LVL32:
	mov	DWORD PTR [esp+12], esi
	mov	DWORD PTR [esp+8], ebx
	mov	DWORD PTR [esp+4], eax
	mov	DWORD PTR [esp], OFFSET FLAT:LC10
	call	_purple_attention_type_new
LVL33:
	mov	ebx, eax
LVL34:
	mov	DWORD PTR [esp+4], 0
	mov	DWORD PTR [esp], eax
	call	_purple_attention_type_set_icon_name
LVL35:
	mov	DWORD PTR [esp+4], ebx
	mov	eax, DWORD PTR _types.44466
	mov	DWORD PTR [esp], eax
	call	_g_list_append
LVL36:
	mov	DWORD PTR _types.44466, eax
	.loc 1 58 0
	mov	DWORD PTR [esp+4], OFFSET FLAT:LC11
	mov	DWORD PTR [esp], OFFSET FLAT:LC2
	call	_libintl_dgettext
LVL37:
	mov	esi, eax
	mov	DWORD PTR [esp+4], OFFSET FLAT:LC12
	mov	DWORD PTR [esp], OFFSET FLAT:LC2
	call	_libintl_dgettext
LVL38:
	mov	ebx, eax
LVL39:
	mov	DWORD PTR [esp+4], OFFSET FLAT:LC13
	mov	DWORD PTR [esp], OFFSET FLAT:LC2
	call	_libintl_dgettext
LVL40:
	mov	DWORD PTR [esp+12], esi
	mov	DWORD PTR [esp+8], ebx
	mov	DWORD PTR [esp+4], eax
	mov	DWORD PTR [esp], OFFSET FLAT:LC13
	call	_purple_attention_type_new
LVL41:
	mov	ebx, eax
LVL42:
	mov	DWORD PTR [esp+4], 0
	mov	DWORD PTR [esp], eax
	call	_purple_attention_type_set_icon_name
LVL43:
	mov	DWORD PTR [esp+4], ebx
	mov	eax, DWORD PTR _types.44466
	mov	DWORD PTR [esp], eax
	call	_g_list_append
LVL44:
	mov	DWORD PTR _types.44466, eax
	.loc 1 62 0
	mov	DWORD PTR [esp+4], OFFSET FLAT:LC14
	mov	DWORD PTR [esp], OFFSET FLAT:LC2
	call	_libintl_dgettext
LVL45:
	mov	esi, eax
	mov	DWORD PTR [esp+4], OFFSET FLAT:LC15
	mov	DWORD PTR [esp], OFFSET FLAT:LC2
	call	_libintl_dgettext
LVL46:
	mov	ebx, eax
LVL47:
	mov	DWORD PTR [esp+4], OFFSET FLAT:LC16
	mov	DWORD PTR [esp], OFFSET FLAT:LC2
	call	_libintl_dgettext
LVL48:
	mov	DWORD PTR [esp+12], esi
	mov	DWORD PTR [esp+8], ebx
	mov	DWORD PTR [esp+4], eax
	mov	DWORD PTR [esp], OFFSET FLAT:LC16
	call	_purple_attention_type_new
LVL49:
	mov	ebx, eax
LVL50:
	mov	DWORD PTR [esp+4], 0
	mov	DWORD PTR [esp], eax
	call	_purple_attention_type_set_icon_name
LVL51:
	mov	DWORD PTR [esp+4], ebx
	mov	eax, DWORD PTR _types.44466
	mov	DWORD PTR [esp], eax
	call	_g_list_append
LVL52:
	mov	DWORD PTR _types.44466, eax
	.loc 1 66 0
	mov	DWORD PTR [esp+4], OFFSET FLAT:LC17
	mov	DWORD PTR [esp], OFFSET FLAT:LC2
	call	_libintl_dgettext
LVL53:
	mov	esi, eax
	mov	DWORD PTR [esp+4], OFFSET FLAT:LC18
	mov	DWORD PTR [esp], OFFSET FLAT:LC2
	call	_libintl_dgettext
LVL54:
	mov	ebx, eax
LVL55:
	mov	DWORD PTR [esp+4], OFFSET FLAT:LC19
	mov	DWORD PTR [esp], OFFSET FLAT:LC2
	call	_libintl_dgettext
LVL56:
	mov	DWORD PTR [esp+12], esi
	mov	DWORD PTR [esp+8], ebx
	mov	DWORD PTR [esp+4], eax
	mov	DWORD PTR [esp], OFFSET FLAT:LC19
	call	_purple_attention_type_new
LVL57:
	mov	ebx, eax
LVL58:
	mov	DWORD PTR [esp+4], 0
	mov	DWORD PTR [esp], eax
	call	_purple_attention_type_set_icon_name
LVL59:
	mov	DWORD PTR [esp+4], ebx
	mov	eax, DWORD PTR _types.44466
	mov	DWORD PTR [esp], eax
	call	_g_list_append
LVL60:
	mov	DWORD PTR _types.44466, eax
	.loc 1 70 0
	mov	DWORD PTR [esp+4], OFFSET FLAT:LC20
	mov	DWORD PTR [esp], OFFSET FLAT:LC2
	call	_libintl_dgettext
LVL61:
	mov	esi, eax
	mov	DWORD PTR [esp+4], OFFSET FLAT:LC21
	mov	DWORD PTR [esp], OFFSET FLAT:LC2
	call	_libintl_dgettext
LVL62:
	mov	ebx, eax
LVL63:
	mov	DWORD PTR [esp+4], OFFSET FLAT:LC22
	mov	DWORD PTR [esp], OFFSET FLAT:LC2
	call	_libintl_dgettext
LVL64:
	mov	DWORD PTR [esp+12], esi
	mov	DWORD PTR [esp+8], ebx
	mov	DWORD PTR [esp+4], eax
	mov	DWORD PTR [esp], OFFSET FLAT:LC22
	call	_purple_attention_type_new
LVL65:
	mov	ebx, eax
LVL66:
	mov	DWORD PTR [esp+4], 0
	mov	DWORD PTR [esp], eax
	call	_purple_attention_type_set_icon_name
LVL67:
	mov	DWORD PTR [esp+4], ebx
	mov	eax, DWORD PTR _types.44466
	mov	DWORD PTR [esp], eax
	call	_g_list_append
LVL68:
	mov	DWORD PTR _types.44466, eax
	.loc 1 76 0
	mov	DWORD PTR [esp+4], OFFSET FLAT:LC23
	mov	DWORD PTR [esp], OFFSET FLAT:LC2
	call	_libintl_dgettext
LVL69:
	mov	esi, eax
	mov	DWORD PTR [esp+4], OFFSET FLAT:LC24
	mov	DWORD PTR [esp], OFFSET FLAT:LC2
	call	_libintl_dgettext
LVL70:
	mov	ebx, eax
LVL71:
	mov	DWORD PTR [esp+4], OFFSET FLAT:LC25
	mov	DWORD PTR [esp], OFFSET FLAT:LC2
	call	_libintl_dgettext
LVL72:
	mov	DWORD PTR [esp+12], esi
	mov	DWORD PTR [esp+8], ebx
	mov	DWORD PTR [esp+4], eax
	mov	DWORD PTR [esp], OFFSET FLAT:LC25
	call	_purple_attention_type_new
LVL73:
	mov	ebx, eax
LVL74:
	mov	DWORD PTR [esp+4], 0
	mov	DWORD PTR [esp], eax
	call	_purple_attention_type_set_icon_name
LVL75:
	mov	DWORD PTR [esp+4], ebx
	mov	eax, DWORD PTR _types.44466
	mov	DWORD PTR [esp], eax
	call	_g_list_append
LVL76:
	mov	DWORD PTR _types.44466, eax
	.loc 1 82 0
	mov	DWORD PTR [esp+4], OFFSET FLAT:LC26
	mov	DWORD PTR [esp], OFFSET FLAT:LC2
	call	_libintl_dgettext
LVL77:
	mov	esi, eax
	mov	DWORD PTR [esp+4], OFFSET FLAT:LC27
	mov	DWORD PTR [esp], OFFSET FLAT:LC2
	call	_libintl_dgettext
LVL78:
	mov	ebx, eax
LVL79:
	mov	DWORD PTR [esp+4], OFFSET FLAT:LC28
	mov	DWORD PTR [esp], OFFSET FLAT:LC2
	call	_libintl_dgettext
LVL80:
	mov	DWORD PTR [esp+12], esi
	mov	DWORD PTR [esp+8], ebx
	mov	DWORD PTR [esp+4], eax
	mov	DWORD PTR [esp], OFFSET FLAT:LC28
	call	_purple_attention_type_new
LVL81:
	mov	ebx, eax
LVL82:
	mov	DWORD PTR [esp+4], 0
	mov	DWORD PTR [esp], eax
	call	_purple_attention_type_set_icon_name
LVL83:
	mov	DWORD PTR [esp+4], ebx
	mov	eax, DWORD PTR _types.44466
	mov	DWORD PTR [esp], eax
	call	_g_list_append
LVL84:
	mov	DWORD PTR _types.44466, eax
	.loc 1 92 0
	mov	DWORD PTR [esp+4], OFFSET FLAT:LC29
	mov	DWORD PTR [esp], OFFSET FLAT:LC2
	call	_libintl_dgettext
LVL85:
	mov	esi, eax
	mov	DWORD PTR [esp+4], OFFSET FLAT:LC30
	mov	DWORD PTR [esp], OFFSET FLAT:LC2
	call	_libintl_dgettext
LVL86:
	mov	ebx, eax
LVL87:
	mov	DWORD PTR [esp+4], OFFSET FLAT:LC31
	mov	DWORD PTR [esp], OFFSET FLAT:LC2
	call	_libintl_dgettext
LVL88:
	mov	DWORD PTR [esp+12], esi
	mov	DWORD PTR [esp+8], ebx
	mov	DWORD PTR [esp+4], eax
	mov	DWORD PTR [esp], OFFSET FLAT:LC31
	call	_purple_attention_type_new
LVL89:
	mov	ebx, eax
LVL90:
	mov	DWORD PTR [esp+4], 0
	mov	DWORD PTR [esp], eax
	call	_purple_attention_type_set_icon_name
LVL91:
	mov	DWORD PTR [esp+4], ebx
	mov	eax, DWORD PTR _types.44466
	mov	DWORD PTR [esp], eax
	call	_g_list_append
LVL92:
	mov	DWORD PTR _types.44466, eax
	jmp	L13
LVL93:
L17:
	.loc 1 97 0
	call	___stack_chk_fail
LVL94:
	.cfi_endproc
LFE93:
	.section .rdata,"dr"
LC32:
	.ascii "got invalid zap code %d\12\0"
LC33:
	.ascii "msim_send_attention\0"
	.align 4
LC34:
	.ascii "msim_send_bm failed: zapping %s with %s\12\0"
LC35:
	.ascii "msim_send_zap\0"
LC36:
	.ascii "username != NULL\0"
	.align 4
LC37:
	.ascii "!!!ZAP_SEND!!!=RTE_BTN_ZAPS_%d\0"
	.text
	.p2align 2,,3
	.globl	_msim_send_attention
	.def	_msim_send_attention;	.scl	2;	.type	32;	.endef
_msim_send_attention:
LFB95:
	.loc 1 129 0
	.cfi_startproc
LVL95:
	push	edi
LCFI16:
	.cfi_def_cfa_offset 8
	.cfi_offset 7, -8
	push	esi
LCFI17:
	.cfi_def_cfa_offset 12
	.cfi_offset 6, -12
	push	ebx
LCFI18:
	.cfi_def_cfa_offset 16
	.cfi_offset 3, -16
	sub	esp, 32
LCFI19:
	.cfi_def_cfa_offset 48
	mov	eax, DWORD PTR [esp+48]
	mov	ebx, DWORD PTR [esp+52]
	mov	esi, DWORD PTR [esp+56]
	.loc 1 129 0
	mov	edx, DWORD PTR ___stack_chk_guard
	mov	DWORD PTR [esp+28], edx
	xor	edx, edx
	.loc 1 135 0
	mov	edi, DWORD PTR [eax+28]
LVL96:
	.loc 1 138 0
	mov	eax, DWORD PTR [eax+12]
	mov	DWORD PTR [esp], eax
	call	_msim_attention_types
LVL97:
	.loc 1 139 0
	mov	DWORD PTR [esp+4], esi
	mov	DWORD PTR [esp], eax
	call	_g_list_nth_data
LVL98:
	.loc 1 141 0
	test	eax, eax
	je	L30
	.loc 1 146 0
	mov	DWORD PTR [esp+4], ebx
	mov	eax, DWORD PTR [edi+4]
LVL99:
	mov	DWORD PTR [esp], eax
	call	_purple_find_buddy
LVL100:
	.loc 1 147 0
	test	eax, eax
	je	L26
LVL101:
LBB14:
LBB15:
LBB16:
	.loc 1 107 0
	test	ebx, ebx
	je	L31
LVL102:
LBE16:
	.loc 1 110 0
	mov	DWORD PTR [esp+4], esi
	mov	DWORD PTR [esp], OFFSET FLAT:LC37
	call	_g_strdup_printf
LVL103:
	mov	esi, eax
LVL104:
	.loc 1 112 0
	mov	DWORD PTR [esp+12], 121
	mov	DWORD PTR [esp+8], eax
	mov	DWORD PTR [esp+4], ebx
	mov	DWORD PTR [esp], edi
	call	_msim_send_bm
LVL105:
	test	eax, eax
	je	L32
L24:
	.loc 1 121 0
	mov	DWORD PTR [esp], esi
	call	_g_free
LVL106:
	.loc 1 153 0
	mov	eax, 1
LVL107:
L20:
LBE15:
LBE14:
	.loc 1 154 0
	mov	edx, DWORD PTR [esp+28]
	xor	edx, DWORD PTR ___stack_chk_guard
	jne	L33
	add	esp, 32
LCFI20:
	.cfi_remember_state
	.cfi_def_cfa_offset 16
	pop	ebx
LCFI21:
	.cfi_restore 3
	.cfi_def_cfa_offset 12
	pop	esi
LCFI22:
	.cfi_restore 6
	.cfi_def_cfa_offset 8
	pop	edi
LCFI23:
	.cfi_restore 7
	.cfi_def_cfa_offset 4
LVL108:
	ret
LVL109:
	.p2align 2,,3
L32:
LCFI24:
	.cfi_restore_state
LBB19:
LBB17:
	.loc 1 113 0
	mov	DWORD PTR [esp+12], esi
	mov	DWORD PTR [esp+8], ebx
	mov	DWORD PTR [esp+4], OFFSET FLAT:LC34
	mov	DWORD PTR [esp], OFFSET FLAT:LC35
	call	_purple_debug_info
LVL110:
	jmp	L24
LVL111:
	.p2align 2,,3
L26:
LBE17:
LBE19:
	.loc 1 148 0
	xor	eax, eax
LVL112:
	jmp	L20
LVL113:
	.p2align 2,,3
L31:
LBB20:
LBB18:
	.loc 1 107 0
	mov	DWORD PTR [esp+8], OFFSET FLAT:LC36
	mov	DWORD PTR [esp+4], OFFSET FLAT:___PRETTY_FUNCTION__.44477
	mov	DWORD PTR [esp], 0
	call	_g_return_if_fail_warning
LVL114:
	.loc 1 153 0
	mov	eax, 1
	jmp	L20
LVL115:
	.p2align 2,,3
L30:
LBE18:
LBE20:
	.loc 1 142 0
	mov	DWORD PTR [esp+8], esi
	mov	DWORD PTR [esp+4], OFFSET FLAT:LC32
	mov	DWORD PTR [esp], OFFSET FLAT:LC33
	call	_purple_debug_info
LVL116:
	.loc 1 143 0
	xor	eax, eax
	jmp	L20
L33:
	.loc 1 154 0
	call	___stack_chk_fail
LVL117:
	.cfi_endproc
LFE95:
	.p2align 2,,3
	.globl	_msim_blist_node_menu
	.def	_msim_blist_node_menu;	.scl	2;	.type	32;	.endef
_msim_blist_node_menu:
LFB97:
	.loc 1 188 0
	.cfi_startproc
LVL118:
	push	edi
LCFI25:
	.cfi_def_cfa_offset 8
	.cfi_offset 7, -8
	push	esi
LCFI26:
	.cfi_def_cfa_offset 12
	.cfi_offset 6, -12
	push	ebx
LCFI27:
	.cfi_def_cfa_offset 16
	.cfi_offset 3, -16
	sub	esp, 32
LCFI28:
	.cfi_def_cfa_offset 48
	.loc 1 188 0
	mov	eax, DWORD PTR ___stack_chk_guard
	mov	DWORD PTR [esp+28], eax
	xor	eax, eax
	.loc 1 194 0
	mov	eax, DWORD PTR [esp+48]
	mov	DWORD PTR [esp], eax
	call	_purple_blist_node_get_type
LVL119:
	cmp	eax, 2
	jne	L39
LVL120:
	.loc 1 202 0
	mov	DWORD PTR [esp], 0
	call	_msim_attention_types
LVL121:
	mov	ebx, eax
LVL122:
	.loc 1 204 0
	test	eax, eax
	je	L40
	xor	esi, esi
	xor	edi, edi
LVL123:
	.p2align 2,,3
L37:
LBB21:
	.loc 1 209 0 discriminator 2
	mov	eax, DWORD PTR [ebx]
	mov	DWORD PTR [esp], eax
	call	_purple_attention_type_get_name
LVL124:
	mov	DWORD PTR [esp+12], 0
	mov	DWORD PTR [esp+8], esi
	mov	DWORD PTR [esp+4], OFFSET FLAT:_msim_send_zap_from_menu
	mov	DWORD PTR [esp], eax
	call	_purple_menu_action_new
LVL125:
	.loc 1 211 0 discriminator 2
	mov	DWORD PTR [esp+4], eax
	mov	DWORD PTR [esp], edi
	call	_g_list_append
LVL126:
	mov	edi, eax
LVL127:
	.loc 1 213 0 discriminator 2
	inc	esi
LVL128:
LBE21:
	.loc 1 204 0 discriminator 2
	mov	ebx, DWORD PTR [ebx+4]
LVL129:
	test	ebx, ebx
	jne	L37
LVL130:
L36:
	.loc 1 216 0
	mov	DWORD PTR [esp+4], OFFSET FLAT:LC4
	mov	DWORD PTR [esp], OFFSET FLAT:LC2
	call	_libintl_dgettext
LVL131:
	mov	DWORD PTR [esp+12], edi
	mov	DWORD PTR [esp+8], 0
	mov	DWORD PTR [esp+4], 0
	mov	DWORD PTR [esp], eax
	call	_purple_menu_action_new
LVL132:
	.loc 1 217 0
	mov	DWORD PTR [esp+4], eax
	mov	DWORD PTR [esp], 0
	call	_g_list_append
LVL133:
L35:
	.loc 1 220 0
	mov	edx, DWORD PTR [esp+28]
	xor	edx, DWORD PTR ___stack_chk_guard
	jne	L43
	add	esp, 32
LCFI29:
	.cfi_remember_state
	.cfi_def_cfa_offset 16
	pop	ebx
LCFI30:
	.cfi_restore 3
	.cfi_def_cfa_offset 12
	pop	esi
LCFI31:
	.cfi_restore 6
	.cfi_def_cfa_offset 8
	pop	edi
LCFI32:
	.cfi_restore 7
	.cfi_def_cfa_offset 4
	ret
	.p2align 2,,3
L39:
LCFI33:
	.cfi_restore_state
	.loc 1 196 0
	xor	eax, eax
	jmp	L35
LVL134:
L40:
	.loc 1 199 0
	xor	edi, edi
	jmp	L36
LVL135:
L43:
	.loc 1 220 0
	call	___stack_chk_fail
LVL136:
	.cfi_endproc
LFE97:
	.section .rdata,"dr"
LC38:
	.ascii "msg\0"
LC39:
	.ascii "_username\0"
LC40:
	.ascii "msg_text != NULL\0"
	.align 4
LC41:
	.ascii "sscanf(msg_text, \"!!!ZAP_SEND!!!=RTE_BTN_ZAPS_%d\", &zap) == 1\0"
	.text
	.p2align 2,,3
	.globl	_msim_incoming_zap
	.def	_msim_incoming_zap;	.scl	2;	.type	32;	.endef
_msim_incoming_zap:
LFB98:
	.loc 1 225 0
	.cfi_startproc
LVL137:
	push	edi
LCFI34:
	.cfi_def_cfa_offset 8
	.cfi_offset 7, -8
	push	esi
LCFI35:
	.cfi_def_cfa_offset 12
	.cfi_offset 6, -12
	push	ebx
LCFI36:
	.cfi_def_cfa_offset 16
	.cfi_offset 3, -16
	sub	esp, 32
LCFI37:
	.cfi_def_cfa_offset 48
	mov	edi, DWORD PTR [esp+48]
	mov	esi, DWORD PTR [esp+52]
	.loc 1 225 0
	mov	eax, DWORD PTR ___stack_chk_guard
	mov	DWORD PTR [esp+28], eax
	xor	eax, eax
	.loc 1 229 0
	mov	DWORD PTR [esp+4], OFFSET FLAT:LC38
	mov	DWORD PTR [esp], esi
	call	_msim_msg_get_string
LVL138:
	mov	ebx, eax
LVL139:
	.loc 1 230 0
	mov	DWORD PTR [esp+4], OFFSET FLAT:LC39
	mov	DWORD PTR [esp], esi
	call	_msim_msg_get_string
LVL140:
LBB22:
	.loc 1 232 0
	test	ebx, ebx
	je	L56
	mov	esi, eax
LVL141:
LBE22:
LBB23:
	.loc 1 233 0
	test	eax, eax
	je	L57
LVL142:
LBE23:
LBB24:
	.loc 1 235 0
	lea	eax, [esp+24]
	mov	DWORD PTR [esp+8], eax
	mov	DWORD PTR [esp+4], OFFSET FLAT:LC37
	mov	DWORD PTR [esp], ebx
	call	_sscanf
LVL143:
	dec	eax
	je	L58
LVL144:
LBE24:
	mov	DWORD PTR [esp+8], OFFSET FLAT:LC41
	mov	DWORD PTR [esp+4], OFFSET FLAT:___PRETTY_FUNCTION__.44522
	mov	DWORD PTR [esp], 0
	call	_g_return_if_fail_warning
LVL145:
	xor	eax, eax
LVL146:
L47:
	.loc 1 245 0
	mov	edx, DWORD PTR [esp+28]
	xor	edx, DWORD PTR ___stack_chk_guard
	jne	L59
	add	esp, 32
LCFI38:
	.cfi_remember_state
	.cfi_def_cfa_offset 16
	pop	ebx
LCFI39:
	.cfi_restore 3
	.cfi_def_cfa_offset 12
LVL147:
	pop	esi
LCFI40:
	.cfi_restore 6
	.cfi_def_cfa_offset 8
	pop	edi
LCFI41:
	.cfi_restore 7
	.cfi_def_cfa_offset 4
	ret
LVL148:
	.p2align 2,,3
L58:
LCFI42:
	.cfi_restore_state
	.loc 1 237 0
	mov	eax, DWORD PTR [esp+24]
	test	eax, eax
	js	L60
L50:
	cmp	eax, 9
	jg	L61
L51:
	mov	DWORD PTR [esp+24], eax
	.loc 1 239 0
	mov	DWORD PTR [esp+8], eax
	mov	DWORD PTR [esp+4], esi
	mov	eax, DWORD PTR [edi+8]
	mov	DWORD PTR [esp], eax
	call	_purple_prpl_got_attention
LVL149:
	.loc 1 241 0
	mov	DWORD PTR [esp], ebx
	call	_g_free
LVL150:
	.loc 1 242 0
	mov	DWORD PTR [esp], esi
	call	_g_free
LVL151:
	.loc 1 244 0
	mov	eax, 1
	jmp	L47
	.p2align 2,,3
L61:
	mov	eax, 9
	jmp	L51
LVL152:
	.p2align 2,,3
L56:
	.loc 1 232 0
	mov	DWORD PTR [esp+8], OFFSET FLAT:LC40
	mov	DWORD PTR [esp+4], OFFSET FLAT:___PRETTY_FUNCTION__.44522
	mov	DWORD PTR [esp], 0
	call	_g_return_if_fail_warning
LVL153:
	xor	eax, eax
	jmp	L47
LVL154:
	.p2align 2,,3
L57:
	.loc 1 233 0
	mov	DWORD PTR [esp+8], OFFSET FLAT:LC36
	mov	DWORD PTR [esp+4], OFFSET FLAT:___PRETTY_FUNCTION__.44522
	mov	DWORD PTR [esp], 0
	call	_g_return_if_fail_warning
LVL155:
	xor	eax, eax
	jmp	L47
LVL156:
	.p2align 2,,3
L60:
	.loc 1 237 0
	xor	eax, eax
	jmp	L50
LVL157:
L59:
	.loc 1 245 0
	call	___stack_chk_fail
LVL158:
	.cfi_endproc
LFE98:
.lcomm _types.44466,4,4
	.section .rdata,"dr"
___PRETTY_FUNCTION__.44477:
	.ascii "msim_send_zap\0"
___PRETTY_FUNCTION__.44500:
	.ascii "msim_send_zap_from_menu\0"
___PRETTY_FUNCTION__.44522:
	.ascii "msim_incoming_zap\0"
	.text
Letext0:
	.file 2 "c:/workspace/pidgin-devel/win32-dev/mingw-4.7.2/bin/../lib/gcc/mingw32/4.7.2/../../../../include/stdio.h"
	.file 3 "c:/workspace/pidgin-devel/win32-dev/mingw-4.7.2/bin/../lib/gcc/mingw32/4.7.2/../../../../include/sys/types.h"
	.file 4 "c:/workspace/pidgin-devel/win32-dev/mingw-4.7.2/bin/../lib/gcc/mingw32/4.7.2/../../../../include/time.h"
	.file 5 "../../../../win32-dev/gtk_2_0-2.14/lib/glib-2.0/include/glibconfig.h"
	.file 6 "../../../../win32-dev/gtk_2_0-2.14/include/glib-2.0/glib/gtypes.h"
	.file 7 "../../../../win32-dev/gtk_2_0-2.14/include/glib-2.0/glib/glist.h"
	.file 8 "../../../../win32-dev/gtk_2_0-2.14/include/glib-2.0/glib/ghash.h"
	.file 9 "../../../../win32-dev/gtk_2_0-2.14/include/glib-2.0/glib/gslist.h"
	.file 10 "../../../libpurple/account.h"
	.file 11 "../../../libpurple/connection.h"
	.file 12 "../../../libpurple/signals.h"
	.file 13 "../../../libpurple/plugin.h"
	.file 14 "../../../libpurple/pluginpref.h"
	.file 15 "../../../libpurple/status.h"
	.file 16 "../../../libpurple/blist.h"
	.file 17 "../../../libpurple/buddyicon.h"
	.file 18 "../../../libpurple/prpl.h"
	.file 19 "../../../libpurple/conversation.h"
	.file 20 "../../../libpurple/log.h"
	.file 21 "../../../libpurple/media/enum-types.h"
	.file 22 "../../../libpurple/media/../util.h"
	.file 23 "../../../libpurple/proxy.h"
	.file 24 "../../../libpurple/privacy.h"
	.file 25 "session.h"
	.file 26 "persist.h"
	.file 27 "c:/workspace/pidgin-devel/win32-dev/mingw-4.7.2/bin/../lib/gcc/mingw32/4.7.2/../../../../include/ctype.h"
	.file 28 "../../../../win32-dev/gtk_2_0-2.14/include/glib-2.0/glib/gmessages.h"
	.file 29 "../../../../win32-dev/gtk_2_0-2.14/include/libintl.h"
	.file 30 "../../../../win32-dev/gtk_2_0-2.14/include/glib-2.0/glib/gstrfuncs.h"
	.file 31 "myspace.h"
	.file 32 "../../../../win32-dev/gtk_2_0-2.14/include/glib-2.0/glib/gmem.h"
	.file 33 "../../../libpurple/debug.h"
	.file 34 "message.h"