; Listing generated by Microsoft (R) Optimizing Compiler Version 19.00.23918.0 

	TITLE	C:\workpace\openssl\openssl-1.0.2h\crypto\asn1\a_enum.c
	.686P
	.XMM
	include listing.inc
	.model	flat

INCLUDELIB MSVCRT
INCLUDELIB OLDNAMES

PUBLIC	_ASN1_ENUMERATED_set
PUBLIC	_ASN1_ENUMERATED_get
PUBLIC	_BN_to_ASN1_ENUMERATED
PUBLIC	_ASN1_ENUMERATED_to_BN
PUBLIC	??_C@_0BH@MIGHECOA@?4?2crypto?2asn1?2a_enum?4c?$AA@ ; `string'
EXTRN	_CRYPTO_malloc:PROC
EXTRN	_CRYPTO_free:PROC
EXTRN	_CRYPTO_realloc:PROC
EXTRN	_ERR_put_error:PROC
EXTRN	_BN_num_bits:PROC
EXTRN	_BN_bin2bn:PROC
EXTRN	_BN_bn2bin:PROC
EXTRN	_BN_set_negative:PROC
EXTRN	_ASN1_STRING_free:PROC
EXTRN	_ASN1_STRING_type_new:PROC
EXTRN	@__security_check_cookie@4:PROC
EXTRN	__chkstk:PROC
EXTRN	___security_cookie:DWORD
;	COMDAT ??_C@_0BH@MIGHECOA@?4?2crypto?2asn1?2a_enum?4c?$AA@
CONST	SEGMENT
??_C@_0BH@MIGHECOA@?4?2crypto?2asn1?2a_enum?4c?$AA@ DB '.\crypto\asn1\a_e'
	DB	'num.c', 00H					; `string'
CONST	ENDS
; Function compile flags: /Ogtpy
;	COMDAT _ASN1_ENUMERATED_to_BN
_TEXT	SEGMENT
_ai$ = 8						; size = 4
_bn$ = 12						; size = 4
_ASN1_ENUMERATED_to_BN PROC				; COMDAT
; File c:\workpace\openssl\openssl-1.0.2h\crypto\asn1\a_enum.c
; Line 173
	push	esi
	push	edi
; Line 176
	mov	edi, DWORD PTR _ai$[esp+4]
	push	DWORD PTR _bn$[esp+4]
	push	DWORD PTR [edi]
	push	DWORD PTR [edi+8]
	call	_BN_bin2bn
	mov	esi, eax
	add	esp, 12					; 0000000cH
	test	esi, esi
	jne	SHORT $LN2@ASN1_ENUME
; Line 177
	push	177					; 000000b1H
	push	OFFSET ??_C@_0BH@MIGHECOA@?4?2crypto?2asn1?2a_enum?4c?$AA@
	push	105					; 00000069H
	push	113					; 00000071H
	push	13					; 0000000dH
	call	_ERR_put_error
	add	esp, 20					; 00000014H
; Line 180
	mov	eax, esi
	pop	edi
	pop	esi
; Line 181
	ret	0
$LN2@ASN1_ENUME:
; Line 178
	cmp	DWORD PTR [edi+4], 266			; 0000010aH
	jne	SHORT $LN4@ASN1_ENUME
; Line 179
	push	1
	push	esi
	call	_BN_set_negative
	add	esp, 8
; Line 180
	mov	eax, esi
$LN4@ASN1_ENUME:
; Line 181
	pop	edi
	pop	esi
	ret	0
_ASN1_ENUMERATED_to_BN ENDP
_TEXT	ENDS
; Function compile flags: /Ogtpy
;	COMDAT _BN_to_ASN1_ENUMERATED
_TEXT	SEGMENT
_bn$ = 8						; size = 4
_ai$ = 12						; size = 4
_BN_to_ASN1_ENUMERATED PROC				; COMDAT
; File c:\workpace\openssl\openssl-1.0.2h\crypto\asn1\a_enum.c
; Line 137
	push	ebx
	push	esi
	push	edi
; Line 141
	mov	edi, DWORD PTR _ai$[esp+8]
	test	edi, edi
	jne	SHORT $LN2@BN_to_ASN1
; Line 142
	push	10					; 0000000aH
	call	_ASN1_STRING_type_new
	add	esp, 4
	mov	esi, eax
	jmp	SHORT $LN3@BN_to_ASN1
$LN2@BN_to_ASN1:
; Line 144
	mov	esi, edi
$LN3@BN_to_ASN1:
; Line 145
	test	esi, esi
	jne	SHORT $LN4@BN_to_ASN1
; Line 146
	push	146					; 00000092H
	push	OFFSET ??_C@_0BH@MIGHECOA@?4?2crypto?2asn1?2a_enum?4c?$AA@
	push	58					; 0000003aH
; Line 147
	jmp	SHORT $LN13@BN_to_ASN1
$LN4@BN_to_ASN1:
; Line 149
	mov	ebx, DWORD PTR _bn$[esp+8]
	mov	ecx, 266				; 0000010aH
	mov	eax, 10					; 0000000aH
; Line 153
	push	ebx
	cmp	DWORD PTR [ebx+12], 0
	cmovne	eax, ecx
	mov	DWORD PTR [esi+4], eax
	call	_BN_num_bits
	add	esp, 4
; Line 154
	test	eax, eax
	je	SHORT $LN12@BN_to_ASN1
$LN11@BN_to_ASN1:
	cdq
	and	edx, 7
	add	eax, edx
	sar	eax, 3
	inc	eax
$LN12@BN_to_ASN1:
; Line 155
	add	eax, 4
	cmp	DWORD PTR [esi], eax
	jge	SHORT $LN7@BN_to_ASN1
; Line 156
	push	156					; 0000009cH
	push	OFFSET ??_C@_0BH@MIGHECOA@?4?2crypto?2asn1?2a_enum?4c?$AA@
	push	eax
	push	DWORD PTR [esi+8]
	call	_CRYPTO_realloc
	add	esp, 16					; 00000010H
; Line 157
	test	eax, eax
	jne	SHORT $LN8@BN_to_ASN1
; Line 158
	push	158					; 0000009eH
	push	OFFSET ??_C@_0BH@MIGHECOA@?4?2crypto?2asn1?2a_enum?4c?$AA@
	push	65					; 00000041H
$LN13@BN_to_ASN1:
	push	138					; 0000008aH
	push	13					; 0000000dH
	call	_ERR_put_error
	add	esp, 20					; 00000014H
$err$15:
; Line 167
	cmp	esi, edi
	je	SHORT $LN9@BN_to_ASN1
; Line 168
	push	esi
	call	_ASN1_STRING_free
	add	esp, 4
$LN9@BN_to_ASN1:
; Line 169
	pop	edi
	pop	esi
	xor	eax, eax
	pop	ebx
; Line 170
	ret	0
$LN8@BN_to_ASN1:
; Line 161
	mov	DWORD PTR [esi+8], eax
$LN7@BN_to_ASN1:
; Line 164
	push	DWORD PTR [esi+8]
	push	ebx
	call	_BN_bn2bin
	add	esp, 8
	mov	DWORD PTR [esi], eax
; Line 165
	mov	eax, esi
	pop	edi
	pop	esi
	pop	ebx
; Line 170
	ret	0
_BN_to_ASN1_ENUMERATED ENDP
_TEXT	ENDS
; Function compile flags: /Ogtpy
;	COMDAT _ASN1_ENUMERATED_get
_TEXT	SEGMENT
_a$ = 8							; size = 4
_ASN1_ENUMERATED_get PROC				; COMDAT
; File c:\workpace\openssl\openssl-1.0.2h\crypto\asn1\a_enum.c
; Line 112
	mov	eax, DWORD PTR _a$[esp-4]
	xor	ecx, ecx
	push	ebx
	xor	ebx, ebx
	test	eax, eax
	jne	SHORT $LN5@ASN1_ENUME
	pop	ebx
; Line 134
	ret	0
$LN5@ASN1_ENUME:
; Line 114
	mov	edx, DWORD PTR [eax+4]
; Line 115
	cmp	edx, 266				; 0000010aH
	jne	SHORT $LN6@ASN1_ENUME
; Line 116
	mov	ebx, 1
$LN8@ASN1_ENUME:
	push	esi
; Line 120
	mov	esi, DWORD PTR [eax]
	cmp	esi, 4
	jle	SHORT $LN9@ASN1_ENUME
; Line 122
	pop	esi
	or	eax, -1
	pop	ebx
; Line 134
	ret	0
$LN6@ASN1_ENUME:
; Line 117
	cmp	edx, 10					; 0000000aH
	je	SHORT $LN8@ASN1_ENUME
; Line 118
	or	eax, -1
	pop	ebx
; Line 134
	ret	0
$LN9@ASN1_ENUME:
	push	edi
; Line 124
	mov	edi, DWORD PTR [eax+8]
	test	edi, edi
	jne	SHORT $LN10@ASN1_ENUME
; Line 125
	pop	edi
	pop	esi
	xor	eax, eax
	pop	ebx
; Line 134
	ret	0
$LN10@ASN1_ENUME:
; Line 127
	xor	edx, edx
	test	esi, esi
	jle	SHORT $LN3@ASN1_ENUME
	npad	5
$LL4@ASN1_ENUME:
; Line 129
	movzx	eax, BYTE PTR [edi+edx]
	inc	edx
	shl	ecx, 8
	or	ecx, eax
	cmp	edx, esi
	jl	SHORT $LL4@ASN1_ENUME
$LN3@ASN1_ENUME:
; Line 131
	test	ebx, ebx
	je	SHORT $LN11@ASN1_ENUME
; Line 132
	neg	ecx
$LN11@ASN1_ENUME:
	pop	edi
	pop	esi
; Line 133
	mov	eax, ecx
	pop	ebx
; Line 134
	ret	0
_ASN1_ENUMERATED_get ENDP
_TEXT	ENDS
; Function compile flags: /Ogtpy
;	COMDAT _ASN1_ENUMERATED_set
_TEXT	SEGMENT
_buf$ = -12						; size = 5
__$ArrayPad$ = -4					; size = 4
_a$ = 8							; size = 4
_v$ = 12						; size = 4
_ASN1_ENUMERATED_set PROC				; COMDAT
; File c:\workpace\openssl\openssl-1.0.2h\crypto\asn1\a_enum.c
; Line 70
	mov	eax, 12					; 0000000cH
	call	__chkstk
	mov	eax, DWORD PTR ___security_cookie
	xor	eax, esp
	mov	DWORD PTR __$ArrayPad$[esp+12], eax
	push	esi
	mov	esi, DWORD PTR _a$[esp+12]
; Line 77
	cmp	DWORD PTR [esi], 5
	mov	DWORD PTR [esi+4], 10			; 0000000aH
	jge	SHORT $LN10@ASN1_ENUME
; Line 78
	mov	eax, DWORD PTR [esi+8]
	test	eax, eax
	je	SHORT $LN9@ASN1_ENUME
; Line 79
	push	eax
	call	_CRYPTO_free
	add	esp, 4
$LN9@ASN1_ENUME:
; Line 81
	push	81					; 00000051H
	push	OFFSET ??_C@_0BH@MIGHECOA@?4?2crypto?2asn1?2a_enum?4c?$AA@
	push	5
	call	_CRYPTO_malloc
	add	esp, 12					; 0000000cH
	mov	DWORD PTR [esi+8], eax
	test	eax, eax
	je	SHORT $LN10@ASN1_ENUME
; Line 82
	mov	DWORD PTR [eax], 0
	mov	BYTE PTR [eax+4], 0
$LN10@ASN1_ENUME:
; Line 84
	cmp	DWORD PTR [esi+8], 0
	jne	SHORT $LN11@ASN1_ENUME
; Line 85
	push	85					; 00000055H
	push	OFFSET ??_C@_0BH@MIGHECOA@?4?2crypto?2asn1?2a_enum?4c?$AA@
	push	65					; 00000041H
	push	112					; 00000070H
	push	13					; 0000000dH
	call	_ERR_put_error
	add	esp, 20					; 00000014H
; Line 86
	xor	eax, eax
	pop	esi
; Line 105
	mov	ecx, DWORD PTR __$ArrayPad$[esp+12]
	xor	ecx, esp
	call	@__security_check_cookie@4
	add	esp, 12					; 0000000cH
	ret	0
$LN11@ASN1_ENUME:
; Line 88
	mov	eax, DWORD PTR _v$[esp+12]
; Line 89
	test	eax, eax
	jns	SHORT $LN12@ASN1_ENUME
; Line 90
	neg	eax
; Line 91
	mov	DWORD PTR [esi+4], 266			; 0000010aH
$LN12@ASN1_ENUME:
; Line 94
	xor	ecx, ecx
$LL4@ASN1_ENUME:
; Line 95
	test	eax, eax
	je	SHORT $LN17@ASN1_ENUME
; Line 97
	mov	BYTE PTR _buf$[esp+ecx+16], al
	inc	ecx
; Line 98
	sar	eax, 8
	cmp	ecx, 4
	jb	SHORT $LL4@ASN1_ENUME
$LN17@ASN1_ENUME:
	push	edi
; Line 101
	lea	edi, DWORD PTR [ecx-1]
	xor	edx, edx
	test	edi, edi
	js	SHORT $LN6@ASN1_ENUME
$LL7@ASN1_ENUME:
; Line 102
	mov	ecx, DWORD PTR [esi+8]
	mov	al, BYTE PTR _buf$[esp+edi+20]
	mov	BYTE PTR [edx+ecx], al
	inc	edx
	sub	edi, 1
	jns	SHORT $LL7@ASN1_ENUME
$LN6@ASN1_ENUME:
; Line 105
	mov	ecx, DWORD PTR __$ArrayPad$[esp+20]
	mov	eax, 1
	pop	edi
	mov	DWORD PTR [esi], edx
	pop	esi
	xor	ecx, esp
	call	@__security_check_cookie@4
	add	esp, 12					; 0000000cH
	ret	0
_ASN1_ENUMERATED_set ENDP
_TEXT	ENDS
END
