; Listing generated by Microsoft (R) Optimizing Compiler Version 19.00.23918.0 

	TITLE	C:\workpace\openssl\openssl-1.0.2h\apps\ciphers.c
	.686P
	.XMM
	include listing.inc
	.model	flat

INCLUDELIB MSVCRT
INCLUDELIB OLDNAMES

PUBLIC	??_C@_0BF@DCLNOKMJ@usage?3?5ciphers?5args?6?$AA@ ; `string'
PUBLIC	??_C@_0FC@EDMBFFLI@?5?9v?5?5?5?5?5?5?5?5?5?5?9?5verbose?5mode?0?5a?5t@ ; `string'
PUBLIC	??_C@_0CC@CKMNLLBF@?5?9V?5?5?5?5?5?5?5?5?5?5?9?5even?5more?5verbose@ ; `string'
PUBLIC	??_C@_0BK@NAJKLLNN@?5?9ssl2?5?5?5?5?5?5?5?9?5SSL2?5mode?6?$AA@ ; `string'
PUBLIC	??_C@_0BK@IDOKDINN@?5?9ssl3?5?5?5?5?5?5?5?9?5SSL3?5mode?6?$AA@ ; `string'
PUBLIC	??_C@_0BK@JKOLEECJ@?5?9tls1?5?5?5?5?5?5?5?9?5TLS1?5mode?6?$AA@ ; `string'
;	COMDAT ??_C@_0BK@JKOLEECJ@?5?9tls1?5?5?5?5?5?5?5?9?5TLS1?5mode?6?$AA@
CONST	SEGMENT
??_C@_0BK@JKOLEECJ@?5?9tls1?5?5?5?5?5?5?5?9?5TLS1?5mode?6?$AA@ DB ' -tls1'
	DB	'       - TLS1 mode', 0aH, 00H		; `string'
CONST	ENDS
;	COMDAT ??_C@_0BK@IDOKDINN@?5?9ssl3?5?5?5?5?5?5?5?9?5SSL3?5mode?6?$AA@
CONST	SEGMENT
??_C@_0BK@IDOKDINN@?5?9ssl3?5?5?5?5?5?5?5?9?5SSL3?5mode?6?$AA@ DB ' -ssl3'
	DB	'       - SSL3 mode', 0aH, 00H		; `string'
CONST	ENDS
;	COMDAT ??_C@_0BK@NAJKLLNN@?5?9ssl2?5?5?5?5?5?5?5?9?5SSL2?5mode?6?$AA@
CONST	SEGMENT
??_C@_0BK@NAJKLLNN@?5?9ssl2?5?5?5?5?5?5?5?9?5SSL2?5mode?6?$AA@ DB ' -ssl2'
	DB	'       - SSL2 mode', 0aH, 00H		; `string'
CONST	ENDS
;	COMDAT ??_C@_0CC@CKMNLLBF@?5?9V?5?5?5?5?5?5?5?5?5?5?9?5even?5more?5verbose@
CONST	SEGMENT
??_C@_0CC@CKMNLLBF@?5?9V?5?5?5?5?5?5?5?5?5?5?9?5even?5more?5verbose@ DB ' '
	DB	'-V          - even more verbose', 0aH, 00H	; `string'
CONST	ENDS
;	COMDAT ??_C@_0FC@EDMBFFLI@?5?9v?5?5?5?5?5?5?5?5?5?5?9?5verbose?5mode?0?5a?5t@
CONST	SEGMENT
??_C@_0FC@EDMBFFLI@?5?9v?5?5?5?5?5?5?5?5?5?5?9?5verbose?5mode?0?5a?5t@ DB ' '
	DB	'-v          - verbose mode, a textual listing of the SSL/TLS '
	DB	'ciphers in OpenSSL', 0aH, 00H		; `string'
CONST	ENDS
;	COMDAT ??_C@_0BF@DCLNOKMJ@usage?3?5ciphers?5args?6?$AA@
CONST	SEGMENT
??_C@_0BF@DCLNOKMJ@usage?3?5ciphers?5args?6?$AA@ DB 'usage: ciphers args', 0aH
	DB	00H						; `string'
CONST	ENDS
_DATA	SEGMENT
_ciphers_usage DD FLAT:??_C@_0BF@DCLNOKMJ@usage?3?5ciphers?5args?6?$AA@
	DD	FLAT:??_C@_0FC@EDMBFFLI@?5?9v?5?5?5?5?5?5?5?5?5?5?9?5verbose?5mode?0?5a?5t@
	DD	FLAT:??_C@_0CC@CKMNLLBF@?5?9V?5?5?5?5?5?5?5?5?5?5?9?5even?5more?5verbose@
	DD	FLAT:??_C@_0BK@NAJKLLNN@?5?9ssl2?5?5?5?5?5?5?5?9?5SSL2?5mode?6?$AA@
	DD	FLAT:??_C@_0BK@IDOKDINN@?5?9ssl3?5?5?5?5?5?5?5?9?5SSL3?5mode?6?$AA@
	DD	FLAT:??_C@_0BK@JKOLEECJ@?5?9tls1?5?5?5?5?5?5?5?9?5TLS1?5mode?6?$AA@
	DD	00H
_DATA	ENDS
PUBLIC	_ciphers_main
PUBLIC	??_C@_02EJEOCNCO@?9v?$AA@			; `string'
PUBLIC	??_C@_02NMMKAJIM@?9V?$AA@			; `string'
PUBLIC	??_C@_05IHFBIKKN@?9ssl3?$AA@			; `string'
PUBLIC	??_C@_05BIEHJHLL@?9tls1?$AA@			; `string'
PUBLIC	??_C@_02JNAPBCPB@?9h?$AA@			; `string'
PUBLIC	??_C@_02GIPFNJGC@?9?$DP?$AA@			; `string'
PUBLIC	??_C@_02DKCKIIND@?$CFs?$AA@			; `string'
PUBLIC	??_C@_0BG@GFGOMLEN@Error?5in?5cipher?5list?6?$AA@ ; `string'
PUBLIC	??_C@_01JLIPDDHJ@?3?$AA@			; `string'
PUBLIC	??_C@_01EEMJAFIK@?6?$AA@			; `string'
PUBLIC	??_C@_0BN@DGNNEJI@?5?5?5?5?50x?$CF02X?00x?$CF02X?00x?$CF02X?5?9?5?$AA@ ; `string'
PUBLIC	??_C@_0BL@MOIFKCLN@?5?5?5?5?5?5?5?5?5?50x?$CF02X?00x?$CF02X?5?9?5?$AA@ ; `string'
PUBLIC	??_C@_0BP@PGNJAPNJ@0x?$CF02X?00x?$CF02X?00x?$CF02X?00x?$CF02X?5?9?5?$AA@ ; `string'
EXTRN	__imp____acrt_iob_func:PROC
EXTRN	__imp__strncmp:PROC
EXTRN	_sk_num:PROC
EXTRN	_sk_value:PROC
EXTRN	_BIO_new_fp:PROC
EXTRN	_BIO_puts:PROC
EXTRN	_BIO_free_all:PROC
EXTRN	_BIO_printf:PROC
EXTRN	_ERR_print_errors:PROC
EXTRN	_load_config:PROC
EXTRN	_SSL_CTX_set_cipher_list:PROC
EXTRN	_SSL_CTX_new:PROC
EXTRN	_SSL_CTX_free:PROC
EXTRN	_SSL_CIPHER_get_id:PROC
EXTRN	_SSL_get_cipher_list:PROC
EXTRN	_SSL_load_error_strings:PROC
EXTRN	_SSL_new:PROC
EXTRN	_SSL_free:PROC
EXTRN	_SSLv3_client_method:PROC
EXTRN	_SSLv23_server_method:PROC
EXTRN	_TLSv1_client_method:PROC
EXTRN	_SSL_get_ciphers:PROC
EXTRN	_SSL_library_init:PROC
EXTRN	_SSL_CIPHER_description:PROC
EXTRN	@__security_check_cookie@4:PROC
EXTRN	__chkstk:PROC
EXTRN	_bio_err:DWORD
EXTRN	___security_cookie:DWORD
;	COMDAT ??_C@_0BP@PGNJAPNJ@0x?$CF02X?00x?$CF02X?00x?$CF02X?00x?$CF02X?5?9?5?$AA@
CONST	SEGMENT
??_C@_0BP@PGNJAPNJ@0x?$CF02X?00x?$CF02X?00x?$CF02X?00x?$CF02X?5?9?5?$AA@ DB '0'
	DB	'x%02X,0x%02X,0x%02X,0x%02X - ', 00H		; `string'
CONST	ENDS
;	COMDAT ??_C@_0BL@MOIFKCLN@?5?5?5?5?5?5?5?5?5?50x?$CF02X?00x?$CF02X?5?9?5?$AA@
CONST	SEGMENT
??_C@_0BL@MOIFKCLN@?5?5?5?5?5?5?5?5?5?50x?$CF02X?00x?$CF02X?5?9?5?$AA@ DB ' '
	DB	'         0x%02X,0x%02X - ', 00H		; `string'
CONST	ENDS
;	COMDAT ??_C@_0BN@DGNNEJI@?5?5?5?5?50x?$CF02X?00x?$CF02X?00x?$CF02X?5?9?5?$AA@
CONST	SEGMENT
??_C@_0BN@DGNNEJI@?5?5?5?5?50x?$CF02X?00x?$CF02X?00x?$CF02X?5?9?5?$AA@ DB ' '
	DB	'    0x%02X,0x%02X,0x%02X - ', 00H		; `string'
CONST	ENDS
;	COMDAT ??_C@_01EEMJAFIK@?6?$AA@
CONST	SEGMENT
??_C@_01EEMJAFIK@?6?$AA@ DB 0aH, 00H			; `string'
CONST	ENDS
;	COMDAT ??_C@_01JLIPDDHJ@?3?$AA@
CONST	SEGMENT
??_C@_01JLIPDDHJ@?3?$AA@ DB ':', 00H			; `string'
CONST	ENDS
;	COMDAT ??_C@_0BG@GFGOMLEN@Error?5in?5cipher?5list?6?$AA@
CONST	SEGMENT
??_C@_0BG@GFGOMLEN@Error?5in?5cipher?5list?6?$AA@ DB 'Error in cipher lis'
	DB	't', 0aH, 00H				; `string'
CONST	ENDS
;	COMDAT ??_C@_02DKCKIIND@?$CFs?$AA@
CONST	SEGMENT
??_C@_02DKCKIIND@?$CFs?$AA@ DB '%s', 00H		; `string'
CONST	ENDS
;	COMDAT ??_C@_02GIPFNJGC@?9?$DP?$AA@
CONST	SEGMENT
??_C@_02GIPFNJGC@?9?$DP?$AA@ DB '-?', 00H		; `string'
CONST	ENDS
;	COMDAT ??_C@_02JNAPBCPB@?9h?$AA@
CONST	SEGMENT
??_C@_02JNAPBCPB@?9h?$AA@ DB '-h', 00H			; `string'
CONST	ENDS
;	COMDAT ??_C@_05BIEHJHLL@?9tls1?$AA@
CONST	SEGMENT
??_C@_05BIEHJHLL@?9tls1?$AA@ DB '-tls1', 00H		; `string'
CONST	ENDS
;	COMDAT ??_C@_05IHFBIKKN@?9ssl3?$AA@
CONST	SEGMENT
??_C@_05IHFBIKKN@?9ssl3?$AA@ DB '-ssl3', 00H		; `string'
CONST	ENDS
;	COMDAT ??_C@_02NMMKAJIM@?9V?$AA@
CONST	SEGMENT
??_C@_02NMMKAJIM@?9V?$AA@ DB '-V', 00H			; `string'
CONST	ENDS
;	COMDAT ??_C@_02EJEOCNCO@?9v?$AA@
CONST	SEGMENT
??_C@_02EJEOCNCO@?9v?$AA@ DB '-v', 00H			; `string'
CONST	ENDS
; Function compile flags: /Ogtpy
;	COMDAT _ciphers_main
_TEXT	SEGMENT
_meth$1$ = -544						; size = 4
_ssl$1$ = -544						; size = 4
_id1$1$ = -540						; size = 4
_ciphers$1$ = -540					; size = 4
_STDout$1$ = -536					; size = 4
_verbose$1$ = -532					; size = 4
_ctx$1$ = -528						; size = 4
_ret$1$ = -524						; size = 4
_Verbose$1$ = -520					; size = 4
_buf$ = -516						; size = 512
__$ArrayPad$ = -4					; size = 4
_argc$ = 8						; size = 4
_argv$ = 12						; size = 4
_ciphers_main PROC					; COMDAT
; File c:\workpace\openssl\openssl-1.0.2h\apps\ciphers.c
; Line 85
	mov	eax, 544				; 00000220H
	call	__chkstk
	mov	eax, DWORD PTR ___security_cookie
	xor	eax, esp
	mov	DWORD PTR __$ArrayPad$[esp+544], eax
	push	ebx
	push	ebp
	push	esi
	push	edi
	mov	edi, DWORD PTR _argv$[esp+556]
; Line 86
	mov	ebx, 1
	mov	DWORD PTR _ret$1$[esp+560], ebx
; Line 87
	mov	DWORD PTR _verbose$1$[esp+560], 0
	mov	DWORD PTR _Verbose$1$[esp+560], 0
; Line 96
	mov	DWORD PTR _ciphers$1$[esp+560], 0
; Line 102
	call	_SSLv23_server_method
; Line 106
	cmp	DWORD PTR _bio_err, 0
	mov	esi, DWORD PTR __imp____acrt_iob_func
	mov	DWORD PTR _meth$1$[esp+560], eax
	jne	SHORT $LN13@ciphers_ma
; Line 107
	push	0
	push	2
	call	esi
	add	esp, 4
	push	eax
	call	_BIO_new_fp
	add	esp, 8
	mov	DWORD PTR _bio_err, eax
$LN13@ciphers_ma:
; Line 108
	push	0
	push	1
	call	esi
	add	esp, 4
	push	eax
	call	_BIO_new_fp
; Line 115
	push	0
	push	DWORD PTR _bio_err
	mov	ebp, eax
	mov	DWORD PTR _STDout$1$[esp+576], ebp
	call	_load_config
	add	esp, 16					; 00000010H
	test	eax, eax
	je	$LN42@ciphers_ma
; Line 118
	mov	ebx, DWORD PTR _argc$[esp+556]
; Line 119
	add	edi, 4
	dec	ebx
; Line 120
	cmp	ebx, 1
	jl	$LN26@ciphers_ma
$LL2@ciphers_ma:
; Line 121
	mov	esi, DWORD PTR [edi]
	mov	ecx, OFFSET ??_C@_02EJEOCNCO@?9v?$AA@
	mov	eax, esi
	npad	3
$LL64@ciphers_ma:
	mov	dl, BYTE PTR [eax]
	cmp	dl, BYTE PTR [ecx]
	jne	SHORT $LN65@ciphers_ma
	test	dl, dl
	je	SHORT $LN66@ciphers_ma
	mov	dl, BYTE PTR [eax+1]
	cmp	dl, BYTE PTR [ecx+1]
	jne	SHORT $LN65@ciphers_ma
	add	eax, 2
	add	ecx, 2
	test	dl, dl
	jne	SHORT $LL64@ciphers_ma
$LN66@ciphers_ma:
	xor	eax, eax
	jmp	SHORT $LN67@ciphers_ma
$LN65@ciphers_ma:
	sbb	eax, eax
	or	eax, 1
$LN67@ciphers_ma:
	test	eax, eax
	jne	SHORT $LN15@ciphers_ma
; Line 122
	mov	DWORD PTR _verbose$1$[esp+560], 1
	jmp	$LN24@ciphers_ma
$LN15@ciphers_ma:
; Line 123
	mov	ecx, OFFSET ??_C@_02NMMKAJIM@?9V?$AA@
	mov	eax, esi
	npad	3
$LL68@ciphers_ma:
	mov	dl, BYTE PTR [eax]
	cmp	dl, BYTE PTR [ecx]
	jne	SHORT $LN69@ciphers_ma
	test	dl, dl
	je	SHORT $LN70@ciphers_ma
	mov	dl, BYTE PTR [eax+1]
	cmp	dl, BYTE PTR [ecx+1]
	jne	SHORT $LN69@ciphers_ma
	add	eax, 2
	add	ecx, 2
	test	dl, dl
	jne	SHORT $LL68@ciphers_ma
$LN70@ciphers_ma:
	xor	eax, eax
	jmp	SHORT $LN71@ciphers_ma
$LN69@ciphers_ma:
	sbb	eax, eax
	or	eax, 1
$LN71@ciphers_ma:
	test	eax, eax
	jne	SHORT $LN17@ciphers_ma
; Line 124
	mov	DWORD PTR _Verbose$1$[esp+560], 1
	mov	DWORD PTR _verbose$1$[esp+560], 1
	jmp	$LN24@ciphers_ma
$LN17@ciphers_ma:
; Line 134
	mov	ecx, OFFSET ??_C@_05IHFBIKKN@?9ssl3?$AA@
	mov	eax, esi
$LL72@ciphers_ma:
	mov	dl, BYTE PTR [eax]
	cmp	dl, BYTE PTR [ecx]
	jne	SHORT $LN73@ciphers_ma
	test	dl, dl
	je	SHORT $LN74@ciphers_ma
	mov	dl, BYTE PTR [eax+1]
	cmp	dl, BYTE PTR [ecx+1]
	jne	SHORT $LN73@ciphers_ma
	add	eax, 2
	add	ecx, 2
	test	dl, dl
	jne	SHORT $LL72@ciphers_ma
$LN74@ciphers_ma:
	xor	eax, eax
	jmp	SHORT $LN75@ciphers_ma
$LN73@ciphers_ma:
	sbb	eax, eax
	or	eax, 1
$LN75@ciphers_ma:
	test	eax, eax
	jne	SHORT $LN19@ciphers_ma
; Line 135
	call	_SSLv3_client_method
	mov	DWORD PTR _meth$1$[esp+560], eax
	jmp	$LN24@ciphers_ma
$LN19@ciphers_ma:
; Line 138
	mov	ecx, OFFSET ??_C@_05BIEHJHLL@?9tls1?$AA@
	mov	eax, esi
$LL76@ciphers_ma:
	mov	dl, BYTE PTR [eax]
	cmp	dl, BYTE PTR [ecx]
	jne	SHORT $LN77@ciphers_ma
	test	dl, dl
	je	SHORT $LN78@ciphers_ma
	mov	dl, BYTE PTR [eax+1]
	cmp	dl, BYTE PTR [ecx+1]
	jne	SHORT $LN77@ciphers_ma
	add	eax, 2
	add	ecx, 2
	test	dl, dl
	jne	SHORT $LL76@ciphers_ma
$LN78@ciphers_ma:
	xor	eax, eax
	jmp	SHORT $LN79@ciphers_ma
$LN77@ciphers_ma:
	sbb	eax, eax
	or	eax, 1
$LN79@ciphers_ma:
	test	eax, eax
	jne	SHORT $LN21@ciphers_ma
; Line 139
	call	_TLSv1_client_method
	mov	DWORD PTR _meth$1$[esp+560], eax
	jmp	SHORT $LN24@ciphers_ma
$LN21@ciphers_ma:
; Line 141
	push	2
	push	OFFSET ??_C@_02JNAPBCPB@?9h?$AA@
	push	esi
	call	DWORD PTR __imp__strncmp
	add	esp, 12					; 0000000cH
	test	eax, eax
	je	$LN49@ciphers_ma
	mov	eax, DWORD PTR [edi]
	mov	ecx, OFFSET ??_C@_02GIPFNJGC@?9?$DP?$AA@
	mov	DWORD PTR _ciphers$1$[esp+560], eax
	npad	5
$LL80@ciphers_ma:
	mov	dl, BYTE PTR [eax]
	cmp	dl, BYTE PTR [ecx]
	jne	SHORT $LN81@ciphers_ma
	test	dl, dl
	je	SHORT $LN82@ciphers_ma
	mov	dl, BYTE PTR [eax+1]
	cmp	dl, BYTE PTR [ecx+1]
	jne	SHORT $LN81@ciphers_ma
	add	eax, 2
	add	ecx, 2
	test	dl, dl
	jne	SHORT $LL80@ciphers_ma
$LN82@ciphers_ma:
	xor	eax, eax
	jmp	SHORT $LN83@ciphers_ma
$LN81@ciphers_ma:
	sbb	eax, eax
	or	eax, 1
$LN83@ciphers_ma:
	test	eax, eax
	je	$LN49@ciphers_ma
$LN24@ciphers_ma:
; Line 147
	dec	ebx
; Line 148
	add	edi, 4
	cmp	ebx, 1
	jge	$LL2@ciphers_ma
$LN26@ciphers_ma:
; Line 157
	call	_SSL_library_init
; Line 159
	push	DWORD PTR _meth$1$[esp+560]
	call	_SSL_CTX_new
	mov	ebx, eax
	add	esp, 4
	mov	DWORD PTR _ctx$1$[esp+560], ebx
; Line 160
	test	ebx, ebx
	je	SHORT $LN86@ciphers_ma
; Line 162
	mov	eax, DWORD PTR _ciphers$1$[esp+560]
	test	eax, eax
	je	$LN29@ciphers_ma
; Line 163
	push	eax
	push	ebx
	call	_SSL_CTX_set_cipher_list
	add	esp, 8
	test	eax, eax
	jne	$LN29@ciphers_ma
; Line 164
	push	OFFSET ??_C@_0BG@GFGOMLEN@Error?5in?5cipher?5list?6?$AA@
	push	DWORD PTR _bio_err
	call	_BIO_printf
	add	esp, 8
$LN86@ciphers_ma:
	xor	edi, edi
$err$90:
; Line 227
	call	_SSL_load_error_strings
; Line 228
	push	DWORD PTR _bio_err
	call	_ERR_print_errors
	add	esp, 4
$end$91:
; Line 231
	test	ebx, ebx
	je	SHORT $LN41@ciphers_ma
; Line 232
	push	ebx
	call	_SSL_CTX_free
	add	esp, 4
$LN41@ciphers_ma:
; Line 233
	test	edi, edi
	je	SHORT $LN88@ciphers_ma
; Line 234
	push	edi
	call	_SSL_free
	add	esp, 4
$LN88@ciphers_ma:
	mov	ebx, DWORD PTR _ret$1$[esp+560]
$LN42@ciphers_ma:
; Line 235
	test	ebp, ebp
	je	SHORT $LN84@ciphers_ma
; Line 236
	push	ebp
	call	_BIO_free_all
	add	esp, 4
$LN84@ciphers_ma:
; Line 239
	mov	ecx, DWORD PTR __$ArrayPad$[esp+560]
	mov	eax, ebx
	pop	edi
	pop	esi
	pop	ebp
	pop	ebx
	xor	ecx, esp
	call	@__security_check_cookie@4
	add	esp, 544				; 00000220H
	ret	0
$LN49@ciphers_ma:
; Line 152
	mov	eax, DWORD PTR _ciphers_usage
	mov	esi, OFFSET _ciphers_usage
	test	eax, eax
	je	SHORT $LN87@ciphers_ma
	npad	1
$LL6@ciphers_ma:
; Line 153
	push	eax
	push	OFFSET ??_C@_02DKCKIIND@?$CFs?$AA@
	push	DWORD PTR _bio_err
	call	_BIO_printf
	mov	eax, DWORD PTR [esi+4]
	lea	esi, DWORD PTR [esi+4]
	add	esp, 12					; 0000000cH
	test	eax, eax
	jne	SHORT $LL6@ciphers_ma
$LN87@ciphers_ma:
; Line 154
	mov	ebx, 1
	jmp	SHORT $LN42@ciphers_ma
$LN29@ciphers_ma:
; Line 168
	push	ebx
	call	_SSL_new
	mov	edi, eax
	add	esp, 4
	mov	DWORD PTR _ssl$1$[esp+560], edi
; Line 169
	test	edi, edi
	je	$err$90
; Line 172
	cmp	DWORD PTR _verbose$1$[esp+560], 0
	jne	SHORT $LN31@ciphers_ma
; Line 173
	xor	esi, esi
; Line 174
	push	esi
	push	edi
	call	_SSL_get_cipher_list
	mov	edi, eax
	add	esp, 8
; Line 175
	test	edi, edi
	je	SHORT $LN50@ciphers_ma
	mov	ebx, DWORD PTR _ssl$1$[esp+560]
	npad	7
$LL9@ciphers_ma:
; Line 177
	test	esi, esi
	je	SHORT $LN34@ciphers_ma
; Line 178
	push	OFFSET ??_C@_01JLIPDDHJ@?3?$AA@
	push	ebp
	call	_BIO_printf
	add	esp, 8
$LN34@ciphers_ma:
; Line 179
	push	edi
	push	OFFSET ??_C@_02DKCKIIND@?$CFs?$AA@
	push	ebp
	call	_BIO_printf
	inc	esi
	push	esi
	push	ebx
	call	_SSL_get_cipher_list
	mov	edi, eax
	add	esp, 20					; 00000014H
	test	edi, edi
	jne	SHORT $LL9@ciphers_ma
	mov	ebx, DWORD PTR _ctx$1$[esp+560]
$LN50@ciphers_ma:
; Line 181
	push	OFFSET ??_C@_01EEMJAFIK@?6?$AA@
	push	ebp
	call	_BIO_printf
; Line 182
	mov	edi, DWORD PTR _ssl$1$[esp+568]
	add	esp, 8
; Line 224
	mov	DWORD PTR _ret$1$[esp+560], 0
	jmp	$end$91
$LN31@ciphers_ma:
; Line 184
	push	edi
	call	_SSL_get_ciphers
	mov	ebx, eax
; Line 186
	xor	esi, esi
	push	ebx
	call	_sk_num
	add	esp, 8
	test	eax, eax
	jle	$LN85@ciphers_ma
	npad	3
$LL12@ciphers_ma:
; Line 189
	push	esi
	push	ebx
	call	_sk_value
	add	esp, 8
	mov	ebp, eax
; Line 191
	cmp	DWORD PTR _Verbose$1$[esp+560], 0
	je	SHORT $LN39@ciphers_ma
; Line 192
	push	ebp
	call	_SSL_CIPHER_get_id
	mov	ecx, eax
	add	esp, 4
; Line 194
	shr	eax, 16					; 00000010H
; Line 198
	mov	edi, ecx
	movzx	eax, al
	and	edi, -16777216				; ff000000H
	mov	DWORD PTR _id1$1$[esp+560], eax
	mov	eax, ecx
	shr	eax, 8
	movzx	edx, cl
	movzx	eax, al
; Line 200
	push	edx
	push	eax
	cmp	edi, 33554432				; 02000000H
	jne	SHORT $LN36@ciphers_ma
	push	DWORD PTR _id1$1$[esp+568]
	push	OFFSET ??_C@_0BN@DGNNEJI@?5?5?5?5?50x?$CF02X?00x?$CF02X?00x?$CF02X?5?9?5?$AA@
	push	DWORD PTR _STDout$1$[esp+576]
	call	_BIO_printf
	add	esp, 20					; 00000014H
	jmp	SHORT $LN39@ciphers_ma
$LN36@ciphers_ma:
; Line 202
	cmp	edi, 50331648				; 03000000H
	jne	SHORT $LN38@ciphers_ma
; Line 204
	push	OFFSET ??_C@_0BL@MOIFKCLN@?5?5?5?5?5?5?5?5?5?50x?$CF02X?00x?$CF02X?5?9?5?$AA@
	push	DWORD PTR _STDout$1$[esp+572]
	call	_BIO_printf
	add	esp, 16					; 00000010H
; Line 206
	jmp	SHORT $LN39@ciphers_ma
$LN38@ciphers_ma:
; Line 208
	push	DWORD PTR _id1$1$[esp+568]
	shr	ecx, 24					; 00000018H
	push	ecx
	push	OFFSET ??_C@_0BP@PGNJAPNJ@0x?$CF02X?00x?$CF02X?00x?$CF02X?00x?$CF02X?5?9?5?$AA@
	push	DWORD PTR _STDout$1$[esp+580]
	call	_BIO_printf
	add	esp, 24					; 00000018H
$LN39@ciphers_ma:
; Line 220
	push	512					; 00000200H
	lea	eax, DWORD PTR _buf$[esp+564]
	push	eax
	push	ebp
	call	_SSL_CIPHER_description
	mov	ebp, DWORD PTR _STDout$1$[esp+572]
	push	eax
	push	ebp
	call	_BIO_puts
	push	ebx
	inc	esi
	call	_sk_num
	add	esp, 24					; 00000018H
	cmp	esi, eax
	jl	$LL12@ciphers_ma
	mov	edi, DWORD PTR _ssl$1$[esp+560]
$LN85@ciphers_ma:
	mov	ebx, DWORD PTR _ctx$1$[esp+560]
; Line 224
	mov	DWORD PTR _ret$1$[esp+560], 0
	jmp	$end$91
_ciphers_main ENDP
_TEXT	ENDS
END
