; Listing generated by Microsoft (R) Optimizing Compiler Version 19.00.23918.0 

	TITLE	C:\workpace\openssl\openssl-1.0.2h\crypto\cms\cms_asn1.c
	.686P
	.XMM
	include listing.inc
	.model	flat

INCLUDELIB MSVCRT
INCLUDELIB OLDNAMES

PUBLIC	??_C@_0BK@KBPCOALF@CMS_PasswordRecipientInfo?$AA@ ; `string'
PUBLIC	??_C@_07FAMFHMLO@oriType?$AA@			; `string'
PUBLIC	??_C@_08CPLCPCAK@oriValue?$AA@			; `string'
PUBLIC	_CMS_OtherRecipientInfo_it
PUBLIC	??_C@_0BH@ELFPNLNE@CMS_OtherRecipientInfo?$AA@	; `string'
PUBLIC	??_C@_06MJDJDBHG@d?4ktri?$AA@			; `string'
PUBLIC	??_C@_06KOPOJGNL@d?4kari?$AA@			; `string'
PUBLIC	??_C@_07GNHCNHGA@d?4kekri?$AA@			; `string'
PUBLIC	??_C@_06MMLMDIAL@d?4pwri?$AA@			; `string'
PUBLIC	??_C@_05CDKGAJPA@d?4ori?$AA@			; `string'
PUBLIC	??_C@_0BC@OIOGGOHC@CMS_RecipientInfo?$AA@	; `string'
PUBLIC	??_C@_0P@HMLDCEHI@originatorInfo?$AA@		; `string'
PUBLIC	??_C@_0P@MHKJPFAE@recipientInfos?$AA@		; `string'
PUBLIC	??_C@_0BF@OHLPJHAO@encryptedContentInfo?$AA@	; `string'
PUBLIC	??_C@_0BB@JCNJKAMK@unprotectedAttrs?$AA@	; `string'
PUBLIC	_CMS_EnvelopedData_it
PUBLIC	??_C@_0BC@MICBLAOD@CMS_EnvelopedData?$AA@	; `string'
PUBLIC	??_C@_06IJPNAHC@digest?$AA@			; `string'
PUBLIC	_CMS_DigestedData_it
PUBLIC	??_C@_0BB@NNEFCOGL@CMS_DigestedData?$AA@	; `string'
PUBLIC	_CMS_EncryptedData_it
PUBLIC	??_C@_0BC@ONODDCLB@CMS_EncryptedData?$AA@	; `string'
PUBLIC	??_C@_0N@PGIFJMM@macAlgorithm?$AA@		; `string'
PUBLIC	??_C@_09HHELNNLD@authAttrs?$AA@			; `string'
PUBLIC	??_C@_03BADCJGEO@mac?$AA@			; `string'
PUBLIC	??_C@_0M@FBFPDIHA@unauthAttrs?$AA@		; `string'
PUBLIC	_CMS_AuthenticatedData_it
PUBLIC	??_C@_0BG@DOMHNMEC@CMS_AuthenticatedData?$AA@	; `string'
PUBLIC	??_C@_0BF@PNIPCJJ@compressionAlgorithm?$AA@	; `string'
PUBLIC	_CMS_CompressedData_it
PUBLIC	??_C@_0BD@IAIGGNCI@CMS_CompressedData?$AA@	; `string'
PUBLIC	??_C@_06OAPKPHLA@d?4data?$AA@			; `string'
PUBLIC	??_C@_0N@DDIMJOHE@d?4signedData?$AA@		; `string'
PUBLIC	??_C@_0BA@CCFAJLBF@d?4envelopedData?$AA@	; `string'
PUBLIC	??_C@_0P@HJCJOBOP@d?4digestedData?$AA@		; `string'
PUBLIC	??_C@_0BA@HJCBJEH@d?4encryptedData?$AA@		; `string'
PUBLIC	??_C@_0BE@NPCJHPOJ@d?4authenticatedData?$AA@	; `string'
PUBLIC	??_C@_0BB@NELCELCK@d?4compressedData?$AA@	; `string'
PUBLIC	??_C@_0BA@ECDDPOHH@CMS_ContentInfo?$AA@		; `string'
PUBLIC	??_C@_0P@KAJKPCJH@CMS_ATTRIBUTES?$AA@		; `string'
PUBLIC	??_C@_0BE@PAHMALPK@CMS_Attributes_Sign?$AA@	; `string'
PUBLIC	??_C@_0BG@NLALJKHJ@CMS_Attributes_Verify?$AA@	; `string'
PUBLIC	??_C@_0BB@DENHEDOF@d?4allOrFirstTier?$AA@	; `string'
PUBLIC	??_C@_0O@ECMNNMJA@d?4receiptList?$AA@		; `string'
PUBLIC	_CMS_ReceiptsFrom_it
PUBLIC	??_C@_0BB@JKAAKCKP@CMS_ReceiptsFrom?$AA@	; `string'
PUBLIC	??_C@_0BI@BHIBPADG@signedContentIdentifier?$AA@	; `string'
PUBLIC	??_C@_0N@CIHGCFJG@receiptsFrom?$AA@		; `string'
PUBLIC	??_C@_0L@BBBJMFCF@receiptsTo?$AA@		; `string'
PUBLIC	??_C@_0BD@KOFKAGLC@CMS_ReceiptRequest?$AA@	; `string'
PUBLIC	??_C@_0BJ@OPFDHHHB@originatorSignatureValue?$AA@ ; `string'
PUBLIC	??_C@_0M@GJHAMFIP@CMS_Receipt?$AA@		; `string'
PUBLIC	??_C@_07MCNKNJMC@keyInfo?$AA@			; `string'
PUBLIC	??_C@_0M@BEJHGEIP@entityUInfo?$AA@		; `string'
PUBLIC	??_C@_0M@NAAOAKIB@suppPubInfo?$AA@		; `string'
PUBLIC	??_C@_0P@BDIJFMCD@CMS_SharedInfo?$AA@		; `string'
PUBLIC	_CMS_SignerInfo_it
PUBLIC	_CMS_IssuerAndSerialNumber_it
PUBLIC	_CMS_RecipientInfo_it
PUBLIC	_CMS_PasswordRecipientInfo_it
PUBLIC	??_C@_06EAINIONG@issuer?$AA@			; `string'
PUBLIC	??_C@_0N@OMOHFKCJ@serialNumber?$AA@		; `string'
PUBLIC	??_C@_0BK@GLMHLHML@CMS_IssuerAndSerialNumber?$AA@ ; `string'
PUBLIC	??_C@_0BA@FEKMLOFK@otherCertFormat?$AA@		; `string'
PUBLIC	??_C@_09CDBALEP@otherCert?$AA@			; `string'
PUBLIC	_CMS_OtherCertificateFormat_it
PUBLIC	??_C@_0BL@CACJFKMB@CMS_OtherCertificateFormat?$AA@ ; `string'
PUBLIC	??_C@_0O@MNFCNMPJ@d?4certificate?$AA@		; `string'
PUBLIC	??_C@_0BG@NLAONGA@d?4extendedCertificate?$AA@	; `string'
PUBLIC	??_C@_0N@OONEIFFN@d?4v1AttrCert?$AA@		; `string'
PUBLIC	??_C@_0N@FODDOFO@d?4v2AttrCert?$AA@		; `string'
PUBLIC	??_C@_07JIJPKMF@d?4other?$AA@			; `string'
PUBLIC	_CMS_CertificateChoices_it
PUBLIC	??_C@_0BH@CFNIJMB@CMS_CertificateChoices?$AA@	; `string'
PUBLIC	??_C@_0BI@DNGDMGHK@d?4issuerAndSerialNumber?$AA@ ; `string'
PUBLIC	??_C@_0BH@LJLJDHKP@d?4subjectKeyIdentifier?$AA@	; `string'
PUBLIC	_CMS_SignerIdentifier_it
PUBLIC	??_C@_0BF@HIKDPBH@CMS_SignerIdentifier?$AA@	; `string'
PUBLIC	??_C@_0N@EBAJNGML@eContentType?$AA@		; `string'
PUBLIC	??_C@_08OOKAKDHE@eContent?$AA@			; `string'
PUBLIC	_CMS_EncapsulatedContentInfo_it
PUBLIC	??_C@_0BM@FGCJFMKP@CMS_EncapsulatedContentInfo?$AA@ ; `string'
PUBLIC	??_C@_07CPCPJPKL@version?$AA@			; `string'
PUBLIC	??_C@_03OBKGHBJN@sid?$AA@			; `string'
PUBLIC	??_C@_0BA@OBGGJDDI@digestAlgorithm?$AA@		; `string'
PUBLIC	??_C@_0M@MDGDHPDJ@signedAttrs?$AA@		; `string'
PUBLIC	??_C@_0BD@CBMBFDMH@signatureAlgorithm?$AA@	; `string'
PUBLIC	??_C@_09CMIIOJHF@signature?$AA@			; `string'
PUBLIC	??_C@_0O@PDNEMLFH@unsignedAttrs?$AA@		; `string'
PUBLIC	??_C@_0P@HBMKILHF@CMS_SignerInfo?$AA@		; `string'
PUBLIC	??_C@_0BD@HLCFDNLB@otherRevInfoFormat?$AA@	; `string'
PUBLIC	??_C@_0N@MOBLFMFA@otherRevInfo?$AA@		; `string'
PUBLIC	_CMS_OtherRevocationInfoFormat_it
PUBLIC	??_C@_0BO@ONAFHMMC@CMS_OtherRevocationInfoFormat?$AA@ ; `string'
PUBLIC	??_C@_05BEAHECAN@d?4crl?$AA@			; `string'
PUBLIC	_CMS_RevocationInfoChoice_it
PUBLIC	??_C@_0BJ@MJACOINL@CMS_RevocationInfoChoice?$AA@ ; `string'
PUBLIC	??_C@_0BB@CMPBPEDI@digestAlgorithms?$AA@	; `string'
PUBLIC	??_C@_0BB@EFFJPOAL@encapContentInfo?$AA@	; `string'
PUBLIC	??_C@_0N@NGKEHKOM@certificates?$AA@		; `string'
PUBLIC	??_C@_04GDKGHFBJ@crls?$AA@			; `string'
PUBLIC	??_C@_0M@OPIAHELE@signerInfos?$AA@		; `string'
PUBLIC	_CMS_SignedData_it
PUBLIC	??_C@_0P@IFJHOEIE@CMS_SignedData?$AA@		; `string'
PUBLIC	_CMS_OriginatorInfo_it
PUBLIC	??_C@_0BD@BOLANDH@CMS_OriginatorInfo?$AA@	; `string'
PUBLIC	??_C@_0M@DOEFOEJD@contentType?$AA@		; `string'
PUBLIC	??_C@_0BL@JFGGCGJK@contentEncryptionAlgorithm?$AA@ ; `string'
PUBLIC	??_C@_0BB@HAOJNDCF@encryptedContent?$AA@	; `string'
PUBLIC	_CMS_EncryptedContentInfo_it
PUBLIC	??_C@_0BJ@IHPALOIM@CMS_EncryptedContentInfo?$AA@ ; `string'
PUBLIC	??_C@_03FJBKBGPI@rid?$AA@			; `string'
PUBLIC	??_C@_0BH@NBKKPKMP@keyEncryptionAlgorithm?$AA@	; `string'
PUBLIC	??_C@_0N@DJLGIBLA@encryptedKey?$AA@		; `string'
PUBLIC	_CMS_KeyTransRecipientInfo_it
PUBLIC	??_C@_0BK@JKNAJMBM@CMS_KeyTransRecipientInfo?$AA@ ; `string'
PUBLIC	??_C@_09FBOICBLA@keyAttrId?$AA@			; `string'
PUBLIC	??_C@_07CNMADOPK@keyAttr?$AA@			; `string'
PUBLIC	_CMS_OtherKeyAttribute_it
PUBLIC	??_C@_0BG@MPKMCLOF@CMS_OtherKeyAttribute?$AA@	; `string'
PUBLIC	??_C@_0BF@MOEDIMBI@subjectKeyIdentifier?$AA@	; `string'
PUBLIC	??_C@_04JNIHBGGH@date?$AA@			; `string'
PUBLIC	??_C@_05BGEKGIIP@other?$AA@			; `string'
PUBLIC	_CMS_RecipientKeyIdentifier_it
PUBLIC	??_C@_0BL@KIFNEPBG@CMS_RecipientKeyIdentifier?$AA@ ; `string'
PUBLIC	??_C@_08NDNCHPPH@d?4rKeyId?$AA@			; `string'
PUBLIC	_CMS_KeyAgreeRecipientIdentifier_it
PUBLIC	??_C@_0CA@LLLOPIGI@CMS_KeyAgreeRecipientIdentifier?$AA@ ; `string'
PUBLIC	_CMS_RecipientEncryptedKey_it
PUBLIC	??_C@_0BK@PEPAIBDP@CMS_RecipientEncryptedKey?$AA@ ; `string'
PUBLIC	??_C@_09JPNFBOJG@algorithm?$AA@			; `string'
PUBLIC	??_C@_09IDENFCJL@publicKey?$AA@			; `string'
PUBLIC	_CMS_OriginatorPublicKey_it
PUBLIC	??_C@_0BI@BANGJHOF@CMS_OriginatorPublicKey?$AA@	; `string'
PUBLIC	??_C@_0BA@GMAGEPIK@d?4originatorKey?$AA@	; `string'
PUBLIC	_CMS_OriginatorIdentifierOrKey_it
PUBLIC	??_C@_0BO@EGGGKLC@CMS_OriginatorIdentifierOrKey?$AA@ ; `string'
PUBLIC	??_C@_0L@LNFLHOFG@originator?$AA@		; `string'
PUBLIC	??_C@_03BGILEBGG@ukm?$AA@			; `string'
PUBLIC	??_C@_0BH@PJIHPFGD@recipientEncryptedKeys?$AA@	; `string'
PUBLIC	_CMS_KeyAgreeRecipientInfo_it
PUBLIC	??_C@_0BK@FMJLFKK@CMS_KeyAgreeRecipientInfo?$AA@ ; `string'
PUBLIC	??_C@_0O@NFJHJHKH@keyIdentifier?$AA@		; `string'
PUBLIC	_CMS_KEKIdentifier_it
PUBLIC	??_C@_0BC@MBEMIKEG@CMS_KEKIdentifier?$AA@	; `string'
PUBLIC	??_C@_05NHGMHHPG@kekid?$AA@			; `string'
PUBLIC	_CMS_KEKRecipientInfo_it
PUBLIC	??_C@_0BF@NBHFGDNK@CMS_KEKRecipientInfo?$AA@	; `string'
PUBLIC	??_C@_0BH@OGDBOKG@keyDerivationAlgorithm?$AA@	; `string'
EXTRN	_ASN1_ANY_it:PROC
EXTRN	_ASN1_OBJECT_it:PROC
EXTRN	_ASN1_BIT_STRING_it:PROC
EXTRN	_X509_CRL_it:PROC
EXTRN	_ASN1_INTEGER_it:PROC
EXTRN	_ASN1_OCTET_STRING_it:PROC
EXTRN	_GENERAL_NAMES_it:PROC
EXTRN	_ASN1_SEQUENCE_it:PROC
EXTRN	_LONG_it:PROC
EXTRN	_ASN1_GENERALIZEDTIME_it:PROC
EXTRN	_ASN1_OCTET_STRING_NDEF_it:PROC
EXTRN	_X509_ALGOR_it:PROC
EXTRN	_X509_ATTRIBUTE_it:PROC
EXTRN	_X509_NAME_it:PROC
EXTRN	_X509_it:PROC
;	COMDAT ??_C@_0BH@OGDBOKG@keyDerivationAlgorithm?$AA@
CONST	SEGMENT
??_C@_0BH@OGDBOKG@keyDerivationAlgorithm?$AA@ DB 'keyDerivationAlgorithm', 00H ; `string'
CONST	ENDS
;	COMDAT ??_C@_0BF@NBHFGDNK@CMS_KEKRecipientInfo?$AA@
CONST	SEGMENT
??_C@_0BF@NBHFGDNK@CMS_KEKRecipientInfo?$AA@ DB 'CMS_KEKRecipientInfo', 00H ; `string'
CONST	ENDS
;	COMDAT ??_C@_05NHGMHHPG@kekid?$AA@
CONST	SEGMENT
??_C@_05NHGMHHPG@kekid?$AA@ DB 'kekid', 00H		; `string'
CONST	ENDS
;	COMDAT ??_C@_0BC@MBEMIKEG@CMS_KEKIdentifier?$AA@
CONST	SEGMENT
??_C@_0BC@MBEMIKEG@CMS_KEKIdentifier?$AA@ DB 'CMS_KEKIdentifier', 00H ; `string'
CONST	ENDS
;	COMDAT ??_C@_0O@NFJHJHKH@keyIdentifier?$AA@
CONST	SEGMENT
??_C@_0O@NFJHJHKH@keyIdentifier?$AA@ DB 'keyIdentifier', 00H ; `string'
CONST	ENDS
;	COMDAT ??_C@_0BK@FMJLFKK@CMS_KeyAgreeRecipientInfo?$AA@
CONST	SEGMENT
??_C@_0BK@FMJLFKK@CMS_KeyAgreeRecipientInfo?$AA@ DB 'CMS_KeyAgreeRecipien'
	DB	'tInfo', 00H					; `string'
CONST	ENDS
;	COMDAT ??_C@_0BH@PJIHPFGD@recipientEncryptedKeys?$AA@
CONST	SEGMENT
??_C@_0BH@PJIHPFGD@recipientEncryptedKeys?$AA@ DB 'recipientEncryptedKeys'
	DB	00H						; `string'
CONST	ENDS
;	COMDAT ??_C@_03BGILEBGG@ukm?$AA@
CONST	SEGMENT
??_C@_03BGILEBGG@ukm?$AA@ DB 'ukm', 00H			; `string'
CONST	ENDS
;	COMDAT ??_C@_0L@LNFLHOFG@originator?$AA@
CONST	SEGMENT
??_C@_0L@LNFLHOFG@originator?$AA@ DB 'originator', 00H	; `string'
CONST	ENDS
;	COMDAT ??_C@_0BO@EGGGKLC@CMS_OriginatorIdentifierOrKey?$AA@
CONST	SEGMENT
??_C@_0BO@EGGGKLC@CMS_OriginatorIdentifierOrKey?$AA@ DB 'CMS_OriginatorId'
	DB	'entifierOrKey', 00H				; `string'
CONST	ENDS
;	COMDAT ??_C@_0BA@GMAGEPIK@d?4originatorKey?$AA@
CONST	SEGMENT
??_C@_0BA@GMAGEPIK@d?4originatorKey?$AA@ DB 'd.originatorKey', 00H ; `string'
CONST	ENDS
;	COMDAT ??_C@_0BI@BANGJHOF@CMS_OriginatorPublicKey?$AA@
CONST	SEGMENT
??_C@_0BI@BANGJHOF@CMS_OriginatorPublicKey?$AA@ DB 'CMS_OriginatorPublicK'
	DB	'ey', 00H					; `string'
CONST	ENDS
;	COMDAT ??_C@_09IDENFCJL@publicKey?$AA@
CONST	SEGMENT
??_C@_09IDENFCJL@publicKey?$AA@ DB 'publicKey', 00H	; `string'
CONST	ENDS
;	COMDAT ??_C@_09JPNFBOJG@algorithm?$AA@
CONST	SEGMENT
??_C@_09JPNFBOJG@algorithm?$AA@ DB 'algorithm', 00H	; `string'
CONST	ENDS
;	COMDAT ??_C@_0BK@PEPAIBDP@CMS_RecipientEncryptedKey?$AA@
CONST	SEGMENT
??_C@_0BK@PEPAIBDP@CMS_RecipientEncryptedKey?$AA@ DB 'CMS_RecipientEncryp'
	DB	'tedKey', 00H				; `string'
CONST	ENDS
;	COMDAT ??_C@_0CA@LLLOPIGI@CMS_KeyAgreeRecipientIdentifier?$AA@
CONST	SEGMENT
??_C@_0CA@LLLOPIGI@CMS_KeyAgreeRecipientIdentifier?$AA@ DB 'CMS_KeyAgreeR'
	DB	'ecipientIdentifier', 00H			; `string'
CONST	ENDS
;	COMDAT ??_C@_08NDNCHPPH@d?4rKeyId?$AA@
CONST	SEGMENT
??_C@_08NDNCHPPH@d?4rKeyId?$AA@ DB 'd.rKeyId', 00H	; `string'
CONST	ENDS
;	COMDAT ??_C@_0BL@KIFNEPBG@CMS_RecipientKeyIdentifier?$AA@
CONST	SEGMENT
??_C@_0BL@KIFNEPBG@CMS_RecipientKeyIdentifier?$AA@ DB 'CMS_RecipientKeyId'
	DB	'entifier', 00H				; `string'
CONST	ENDS
;	COMDAT ??_C@_05BGEKGIIP@other?$AA@
CONST	SEGMENT
??_C@_05BGEKGIIP@other?$AA@ DB 'other', 00H		; `string'
CONST	ENDS
;	COMDAT ??_C@_04JNIHBGGH@date?$AA@
CONST	SEGMENT
??_C@_04JNIHBGGH@date?$AA@ DB 'date', 00H		; `string'
CONST	ENDS
;	COMDAT ??_C@_0BF@MOEDIMBI@subjectKeyIdentifier?$AA@
CONST	SEGMENT
??_C@_0BF@MOEDIMBI@subjectKeyIdentifier?$AA@ DB 'subjectKeyIdentifier', 00H ; `string'
CONST	ENDS
;	COMDAT ??_C@_0BG@MPKMCLOF@CMS_OtherKeyAttribute?$AA@
CONST	SEGMENT
??_C@_0BG@MPKMCLOF@CMS_OtherKeyAttribute?$AA@ DB 'CMS_OtherKeyAttribute', 00H ; `string'
CONST	ENDS
;	COMDAT ??_C@_07CNMADOPK@keyAttr?$AA@
CONST	SEGMENT
??_C@_07CNMADOPK@keyAttr?$AA@ DB 'keyAttr', 00H		; `string'
CONST	ENDS
;	COMDAT ??_C@_09FBOICBLA@keyAttrId?$AA@
CONST	SEGMENT
??_C@_09FBOICBLA@keyAttrId?$AA@ DB 'keyAttrId', 00H	; `string'
CONST	ENDS
;	COMDAT ??_C@_0BK@JKNAJMBM@CMS_KeyTransRecipientInfo?$AA@
CONST	SEGMENT
??_C@_0BK@JKNAJMBM@CMS_KeyTransRecipientInfo?$AA@ DB 'CMS_KeyTransRecipie'
	DB	'ntInfo', 00H				; `string'
CONST	ENDS
;	COMDAT ??_C@_0N@DJLGIBLA@encryptedKey?$AA@
CONST	SEGMENT
??_C@_0N@DJLGIBLA@encryptedKey?$AA@ DB 'encryptedKey', 00H ; `string'
CONST	ENDS
;	COMDAT ??_C@_0BH@NBKKPKMP@keyEncryptionAlgorithm?$AA@
CONST	SEGMENT
??_C@_0BH@NBKKPKMP@keyEncryptionAlgorithm?$AA@ DB 'keyEncryptionAlgorithm'
	DB	00H						; `string'
CONST	ENDS
;	COMDAT ??_C@_03FJBKBGPI@rid?$AA@
CONST	SEGMENT
??_C@_03FJBKBGPI@rid?$AA@ DB 'rid', 00H			; `string'
CONST	ENDS
;	COMDAT ??_C@_0BJ@IHPALOIM@CMS_EncryptedContentInfo?$AA@
CONST	SEGMENT
??_C@_0BJ@IHPALOIM@CMS_EncryptedContentInfo?$AA@ DB 'CMS_EncryptedContent'
	DB	'Info', 00H					; `string'
CONST	ENDS
;	COMDAT ??_C@_0BB@HAOJNDCF@encryptedContent?$AA@
CONST	SEGMENT
??_C@_0BB@HAOJNDCF@encryptedContent?$AA@ DB 'encryptedContent', 00H ; `string'
CONST	ENDS
;	COMDAT ??_C@_0BL@JFGGCGJK@contentEncryptionAlgorithm?$AA@
CONST	SEGMENT
??_C@_0BL@JFGGCGJK@contentEncryptionAlgorithm?$AA@ DB 'contentEncryptionA'
	DB	'lgorithm', 00H				; `string'
CONST	ENDS
;	COMDAT ??_C@_0M@DOEFOEJD@contentType?$AA@
CONST	SEGMENT
??_C@_0M@DOEFOEJD@contentType?$AA@ DB 'contentType', 00H ; `string'
CONST	ENDS
;	COMDAT ??_C@_0BD@BOLANDH@CMS_OriginatorInfo?$AA@
CONST	SEGMENT
??_C@_0BD@BOLANDH@CMS_OriginatorInfo?$AA@ DB 'CMS_OriginatorInfo', 00H ; `string'
CONST	ENDS
;	COMDAT ??_C@_0P@IFJHOEIE@CMS_SignedData?$AA@
CONST	SEGMENT
??_C@_0P@IFJHOEIE@CMS_SignedData?$AA@ DB 'CMS_SignedData', 00H ; `string'
CONST	ENDS
;	COMDAT ??_C@_0M@OPIAHELE@signerInfos?$AA@
CONST	SEGMENT
??_C@_0M@OPIAHELE@signerInfos?$AA@ DB 'signerInfos', 00H ; `string'
CONST	ENDS
;	COMDAT ??_C@_04GDKGHFBJ@crls?$AA@
CONST	SEGMENT
??_C@_04GDKGHFBJ@crls?$AA@ DB 'crls', 00H		; `string'
CONST	ENDS
;	COMDAT ??_C@_0N@NGKEHKOM@certificates?$AA@
CONST	SEGMENT
??_C@_0N@NGKEHKOM@certificates?$AA@ DB 'certificates', 00H ; `string'
CONST	ENDS
;	COMDAT ??_C@_0BB@EFFJPOAL@encapContentInfo?$AA@
CONST	SEGMENT
??_C@_0BB@EFFJPOAL@encapContentInfo?$AA@ DB 'encapContentInfo', 00H ; `string'
CONST	ENDS
;	COMDAT ??_C@_0BB@CMPBPEDI@digestAlgorithms?$AA@
CONST	SEGMENT
??_C@_0BB@CMPBPEDI@digestAlgorithms?$AA@ DB 'digestAlgorithms', 00H ; `string'
CONST	ENDS
;	COMDAT ??_C@_0BJ@MJACOINL@CMS_RevocationInfoChoice?$AA@
CONST	SEGMENT
??_C@_0BJ@MJACOINL@CMS_RevocationInfoChoice?$AA@ DB 'CMS_RevocationInfoCh'
	DB	'oice', 00H					; `string'
CONST	ENDS
;	COMDAT ??_C@_05BEAHECAN@d?4crl?$AA@
CONST	SEGMENT
??_C@_05BEAHECAN@d?4crl?$AA@ DB 'd.crl', 00H		; `string'
CONST	ENDS
;	COMDAT ??_C@_0BO@ONAFHMMC@CMS_OtherRevocationInfoFormat?$AA@
CONST	SEGMENT
??_C@_0BO@ONAFHMMC@CMS_OtherRevocationInfoFormat?$AA@ DB 'CMS_OtherRevoca'
	DB	'tionInfoFormat', 00H			; `string'
CONST	ENDS
;	COMDAT ??_C@_0N@MOBLFMFA@otherRevInfo?$AA@
CONST	SEGMENT
??_C@_0N@MOBLFMFA@otherRevInfo?$AA@ DB 'otherRevInfo', 00H ; `string'
CONST	ENDS
;	COMDAT ??_C@_0BD@HLCFDNLB@otherRevInfoFormat?$AA@
CONST	SEGMENT
??_C@_0BD@HLCFDNLB@otherRevInfoFormat?$AA@ DB 'otherRevInfoFormat', 00H ; `string'
CONST	ENDS
;	COMDAT ??_C@_0P@HBMKILHF@CMS_SignerInfo?$AA@
CONST	SEGMENT
??_C@_0P@HBMKILHF@CMS_SignerInfo?$AA@ DB 'CMS_SignerInfo', 00H ; `string'
CONST	ENDS
;	COMDAT ??_C@_0O@PDNEMLFH@unsignedAttrs?$AA@
CONST	SEGMENT
??_C@_0O@PDNEMLFH@unsignedAttrs?$AA@ DB 'unsignedAttrs', 00H ; `string'
CONST	ENDS
;	COMDAT ??_C@_09CMIIOJHF@signature?$AA@
CONST	SEGMENT
??_C@_09CMIIOJHF@signature?$AA@ DB 'signature', 00H	; `string'
CONST	ENDS
;	COMDAT ??_C@_0BD@CBMBFDMH@signatureAlgorithm?$AA@
CONST	SEGMENT
??_C@_0BD@CBMBFDMH@signatureAlgorithm?$AA@ DB 'signatureAlgorithm', 00H ; `string'
CONST	ENDS
;	COMDAT ??_C@_0M@MDGDHPDJ@signedAttrs?$AA@
CONST	SEGMENT
??_C@_0M@MDGDHPDJ@signedAttrs?$AA@ DB 'signedAttrs', 00H ; `string'
CONST	ENDS
;	COMDAT ??_C@_0BA@OBGGJDDI@digestAlgorithm?$AA@
CONST	SEGMENT
??_C@_0BA@OBGGJDDI@digestAlgorithm?$AA@ DB 'digestAlgorithm', 00H ; `string'
CONST	ENDS
;	COMDAT ??_C@_03OBKGHBJN@sid?$AA@
CONST	SEGMENT
??_C@_03OBKGHBJN@sid?$AA@ DB 'sid', 00H			; `string'
CONST	ENDS
;	COMDAT ??_C@_07CPCPJPKL@version?$AA@
CONST	SEGMENT
??_C@_07CPCPJPKL@version?$AA@ DB 'version', 00H		; `string'
CONST	ENDS
;	COMDAT ??_C@_0BM@FGCJFMKP@CMS_EncapsulatedContentInfo?$AA@
CONST	SEGMENT
??_C@_0BM@FGCJFMKP@CMS_EncapsulatedContentInfo?$AA@ DB 'CMS_EncapsulatedC'
	DB	'ontentInfo', 00H				; `string'
CONST	ENDS
;	COMDAT ??_C@_08OOKAKDHE@eContent?$AA@
CONST	SEGMENT
??_C@_08OOKAKDHE@eContent?$AA@ DB 'eContent', 00H	; `string'
CONST	ENDS
;	COMDAT ??_C@_0N@EBAJNGML@eContentType?$AA@
CONST	SEGMENT
??_C@_0N@EBAJNGML@eContentType?$AA@ DB 'eContentType', 00H ; `string'
CONST	ENDS
;	COMDAT ??_C@_0BF@HIKDPBH@CMS_SignerIdentifier?$AA@
CONST	SEGMENT
??_C@_0BF@HIKDPBH@CMS_SignerIdentifier?$AA@ DB 'CMS_SignerIdentifier', 00H ; `string'
CONST	ENDS
;	COMDAT ??_C@_0BH@LJLJDHKP@d?4subjectKeyIdentifier?$AA@
CONST	SEGMENT
??_C@_0BH@LJLJDHKP@d?4subjectKeyIdentifier?$AA@ DB 'd.subjectKeyIdentifie'
	DB	'r', 00H					; `string'
CONST	ENDS
;	COMDAT ??_C@_0BI@DNGDMGHK@d?4issuerAndSerialNumber?$AA@
CONST	SEGMENT
??_C@_0BI@DNGDMGHK@d?4issuerAndSerialNumber?$AA@ DB 'd.issuerAndSerialNum'
	DB	'ber', 00H					; `string'
CONST	ENDS
;	COMDAT ??_C@_0BH@CFNIJMB@CMS_CertificateChoices?$AA@
CONST	SEGMENT
??_C@_0BH@CFNIJMB@CMS_CertificateChoices?$AA@ DB 'CMS_CertificateChoices', 00H ; `string'
CONST	ENDS
;	COMDAT ??_C@_07JIJPKMF@d?4other?$AA@
CONST	SEGMENT
??_C@_07JIJPKMF@d?4other?$AA@ DB 'd.other', 00H		; `string'
CONST	ENDS
;	COMDAT ??_C@_0N@FODDOFO@d?4v2AttrCert?$AA@
CONST	SEGMENT
??_C@_0N@FODDOFO@d?4v2AttrCert?$AA@ DB 'd.v2AttrCert', 00H ; `string'
CONST	ENDS
;	COMDAT ??_C@_0N@OONEIFFN@d?4v1AttrCert?$AA@
CONST	SEGMENT
??_C@_0N@OONEIFFN@d?4v1AttrCert?$AA@ DB 'd.v1AttrCert', 00H ; `string'
CONST	ENDS
;	COMDAT ??_C@_0BG@NLAONGA@d?4extendedCertificate?$AA@
CONST	SEGMENT
??_C@_0BG@NLAONGA@d?4extendedCertificate?$AA@ DB 'd.extendedCertificate', 00H ; `string'
CONST	ENDS
;	COMDAT ??_C@_0O@MNFCNMPJ@d?4certificate?$AA@
CONST	SEGMENT
??_C@_0O@MNFCNMPJ@d?4certificate?$AA@ DB 'd.certificate', 00H ; `string'
CONST	ENDS
;	COMDAT ??_C@_0BL@CACJFKMB@CMS_OtherCertificateFormat?$AA@
CONST	SEGMENT
??_C@_0BL@CACJFKMB@CMS_OtherCertificateFormat?$AA@ DB 'CMS_OtherCertifica'
	DB	'teFormat', 00H				; `string'
CONST	ENDS
;	COMDAT ??_C@_09CDBALEP@otherCert?$AA@
CONST	SEGMENT
??_C@_09CDBALEP@otherCert?$AA@ DB 'otherCert', 00H	; `string'
CONST	ENDS
;	COMDAT ??_C@_0BA@FEKMLOFK@otherCertFormat?$AA@
CONST	SEGMENT
??_C@_0BA@FEKMLOFK@otherCertFormat?$AA@ DB 'otherCertFormat', 00H ; `string'
CONST	ENDS
;	COMDAT ??_C@_0BK@GLMHLHML@CMS_IssuerAndSerialNumber?$AA@
CONST	SEGMENT
??_C@_0BK@GLMHLHML@CMS_IssuerAndSerialNumber?$AA@ DB 'CMS_IssuerAndSerial'
	DB	'Number', 00H				; `string'
CONST	ENDS
;	COMDAT ??_C@_0N@OMOHFKCJ@serialNumber?$AA@
CONST	SEGMENT
??_C@_0N@OMOHFKCJ@serialNumber?$AA@ DB 'serialNumber', 00H ; `string'
CONST	ENDS
;	COMDAT ??_C@_06EAINIONG@issuer?$AA@
CONST	SEGMENT
??_C@_06EAINIONG@issuer?$AA@ DB 'issuer', 00H		; `string'
CONST	ENDS
;	COMDAT ??_C@_0P@BDIJFMCD@CMS_SharedInfo?$AA@
CONST	SEGMENT
??_C@_0P@BDIJFMCD@CMS_SharedInfo?$AA@ DB 'CMS_SharedInfo', 00H ; `string'
CONST	ENDS
;	COMDAT ??_C@_0M@NAAOAKIB@suppPubInfo?$AA@
CONST	SEGMENT
??_C@_0M@NAAOAKIB@suppPubInfo?$AA@ DB 'suppPubInfo', 00H ; `string'
CONST	ENDS
;	COMDAT ??_C@_0M@BEJHGEIP@entityUInfo?$AA@
CONST	SEGMENT
??_C@_0M@BEJHGEIP@entityUInfo?$AA@ DB 'entityUInfo', 00H ; `string'
CONST	ENDS
;	COMDAT ??_C@_07MCNKNJMC@keyInfo?$AA@
CONST	SEGMENT
??_C@_07MCNKNJMC@keyInfo?$AA@ DB 'keyInfo', 00H		; `string'
CONST	ENDS
;	COMDAT ??_C@_0M@GJHAMFIP@CMS_Receipt?$AA@
CONST	SEGMENT
??_C@_0M@GJHAMFIP@CMS_Receipt?$AA@ DB 'CMS_Receipt', 00H ; `string'
CONST	ENDS
;	COMDAT ??_C@_0BJ@OPFDHHHB@originatorSignatureValue?$AA@
CONST	SEGMENT
??_C@_0BJ@OPFDHHHB@originatorSignatureValue?$AA@ DB 'originatorSignatureV'
	DB	'alue', 00H					; `string'
CONST	ENDS
;	COMDAT ??_C@_0BD@KOFKAGLC@CMS_ReceiptRequest?$AA@
CONST	SEGMENT
??_C@_0BD@KOFKAGLC@CMS_ReceiptRequest?$AA@ DB 'CMS_ReceiptRequest', 00H ; `string'
CONST	ENDS
;	COMDAT ??_C@_0L@BBBJMFCF@receiptsTo?$AA@
CONST	SEGMENT
??_C@_0L@BBBJMFCF@receiptsTo?$AA@ DB 'receiptsTo', 00H	; `string'
CONST	ENDS
;	COMDAT ??_C@_0N@CIHGCFJG@receiptsFrom?$AA@
CONST	SEGMENT
??_C@_0N@CIHGCFJG@receiptsFrom?$AA@ DB 'receiptsFrom', 00H ; `string'
CONST	ENDS
;	COMDAT ??_C@_0BI@BHIBPADG@signedContentIdentifier?$AA@
CONST	SEGMENT
??_C@_0BI@BHIBPADG@signedContentIdentifier?$AA@ DB 'signedContentIdentifi'
	DB	'er', 00H					; `string'
CONST	ENDS
;	COMDAT ??_C@_0BB@JKAAKCKP@CMS_ReceiptsFrom?$AA@
CONST	SEGMENT
??_C@_0BB@JKAAKCKP@CMS_ReceiptsFrom?$AA@ DB 'CMS_ReceiptsFrom', 00H ; `string'
CONST	ENDS
;	COMDAT ??_C@_0O@ECMNNMJA@d?4receiptList?$AA@
CONST	SEGMENT
??_C@_0O@ECMNNMJA@d?4receiptList?$AA@ DB 'd.receiptList', 00H ; `string'
CONST	ENDS
;	COMDAT ??_C@_0BB@DENHEDOF@d?4allOrFirstTier?$AA@
CONST	SEGMENT
??_C@_0BB@DENHEDOF@d?4allOrFirstTier?$AA@ DB 'd.allOrFirstTier', 00H ; `string'
CONST	ENDS
;	COMDAT ??_C@_0BG@NLALJKHJ@CMS_Attributes_Verify?$AA@
CONST	SEGMENT
??_C@_0BG@NLALJKHJ@CMS_Attributes_Verify?$AA@ DB 'CMS_Attributes_Verify', 00H ; `string'
CONST	ENDS
;	COMDAT ??_C@_0BE@PAHMALPK@CMS_Attributes_Sign?$AA@
CONST	SEGMENT
??_C@_0BE@PAHMALPK@CMS_Attributes_Sign?$AA@ DB 'CMS_Attributes_Sign', 00H ; `string'
CONST	ENDS
;	COMDAT ??_C@_0P@KAJKPCJH@CMS_ATTRIBUTES?$AA@
CONST	SEGMENT
??_C@_0P@KAJKPCJH@CMS_ATTRIBUTES?$AA@ DB 'CMS_ATTRIBUTES', 00H ; `string'
CONST	ENDS
;	COMDAT ??_C@_0BA@ECDDPOHH@CMS_ContentInfo?$AA@
CONST	SEGMENT
??_C@_0BA@ECDDPOHH@CMS_ContentInfo?$AA@ DB 'CMS_ContentInfo', 00H ; `string'
CONST	ENDS
;	COMDAT ??_C@_0BB@NELCELCK@d?4compressedData?$AA@
CONST	SEGMENT
??_C@_0BB@NELCELCK@d?4compressedData?$AA@ DB 'd.compressedData', 00H ; `string'
CONST	ENDS
;	COMDAT ??_C@_0BE@NPCJHPOJ@d?4authenticatedData?$AA@
CONST	SEGMENT
??_C@_0BE@NPCJHPOJ@d?4authenticatedData?$AA@ DB 'd.authenticatedData', 00H ; `string'
CONST	ENDS
;	COMDAT ??_C@_0BA@HJCBJEH@d?4encryptedData?$AA@
CONST	SEGMENT
??_C@_0BA@HJCBJEH@d?4encryptedData?$AA@ DB 'd.encryptedData', 00H ; `string'
CONST	ENDS
;	COMDAT ??_C@_0P@HJCJOBOP@d?4digestedData?$AA@
CONST	SEGMENT
??_C@_0P@HJCJOBOP@d?4digestedData?$AA@ DB 'd.digestedData', 00H ; `string'
CONST	ENDS
;	COMDAT ??_C@_0BA@CCFAJLBF@d?4envelopedData?$AA@
CONST	SEGMENT
??_C@_0BA@CCFAJLBF@d?4envelopedData?$AA@ DB 'd.envelopedData', 00H ; `string'
CONST	ENDS
;	COMDAT ??_C@_0N@DDIMJOHE@d?4signedData?$AA@
CONST	SEGMENT
??_C@_0N@DDIMJOHE@d?4signedData?$AA@ DB 'd.signedData', 00H ; `string'
CONST	ENDS
;	COMDAT ??_C@_06OAPKPHLA@d?4data?$AA@
CONST	SEGMENT
??_C@_06OAPKPHLA@d?4data?$AA@ DB 'd.data', 00H		; `string'
CONST	ENDS
;	COMDAT ??_C@_0BD@IAIGGNCI@CMS_CompressedData?$AA@
CONST	SEGMENT
??_C@_0BD@IAIGGNCI@CMS_CompressedData?$AA@ DB 'CMS_CompressedData', 00H ; `string'
CONST	ENDS
;	COMDAT ??_C@_0BF@PNIPCJJ@compressionAlgorithm?$AA@
CONST	SEGMENT
??_C@_0BF@PNIPCJJ@compressionAlgorithm?$AA@ DB 'compressionAlgorithm', 00H ; `string'
CONST	ENDS
;	COMDAT ??_C@_0BG@DOMHNMEC@CMS_AuthenticatedData?$AA@
CONST	SEGMENT
??_C@_0BG@DOMHNMEC@CMS_AuthenticatedData?$AA@ DB 'CMS_AuthenticatedData', 00H ; `string'
CONST	ENDS
;	COMDAT ??_C@_0M@FBFPDIHA@unauthAttrs?$AA@
CONST	SEGMENT
??_C@_0M@FBFPDIHA@unauthAttrs?$AA@ DB 'unauthAttrs', 00H ; `string'
CONST	ENDS
;	COMDAT ??_C@_03BADCJGEO@mac?$AA@
CONST	SEGMENT
??_C@_03BADCJGEO@mac?$AA@ DB 'mac', 00H			; `string'
CONST	ENDS
;	COMDAT ??_C@_09HHELNNLD@authAttrs?$AA@
CONST	SEGMENT
??_C@_09HHELNNLD@authAttrs?$AA@ DB 'authAttrs', 00H	; `string'
CONST	ENDS
;	COMDAT ??_C@_0N@PGIFJMM@macAlgorithm?$AA@
CONST	SEGMENT
??_C@_0N@PGIFJMM@macAlgorithm?$AA@ DB 'macAlgorithm', 00H ; `string'
CONST	ENDS
;	COMDAT ??_C@_0BC@ONODDCLB@CMS_EncryptedData?$AA@
CONST	SEGMENT
??_C@_0BC@ONODDCLB@CMS_EncryptedData?$AA@ DB 'CMS_EncryptedData', 00H ; `string'
CONST	ENDS
;	COMDAT ??_C@_0BB@NNEFCOGL@CMS_DigestedData?$AA@
CONST	SEGMENT
??_C@_0BB@NNEFCOGL@CMS_DigestedData?$AA@ DB 'CMS_DigestedData', 00H ; `string'
CONST	ENDS
;	COMDAT ??_C@_06IJPNAHC@digest?$AA@
CONST	SEGMENT
??_C@_06IJPNAHC@digest?$AA@ DB 'digest', 00H		; `string'
CONST	ENDS
;	COMDAT ??_C@_0BC@MICBLAOD@CMS_EnvelopedData?$AA@
CONST	SEGMENT
??_C@_0BC@MICBLAOD@CMS_EnvelopedData?$AA@ DB 'CMS_EnvelopedData', 00H ; `string'
CONST	ENDS
;	COMDAT ??_C@_0BB@JCNJKAMK@unprotectedAttrs?$AA@
CONST	SEGMENT
??_C@_0BB@JCNJKAMK@unprotectedAttrs?$AA@ DB 'unprotectedAttrs', 00H ; `string'
CONST	ENDS
;	COMDAT ??_C@_0BF@OHLPJHAO@encryptedContentInfo?$AA@
CONST	SEGMENT
??_C@_0BF@OHLPJHAO@encryptedContentInfo?$AA@ DB 'encryptedContentInfo', 00H ; `string'
CONST	ENDS
;	COMDAT ??_C@_0P@MHKJPFAE@recipientInfos?$AA@
CONST	SEGMENT
??_C@_0P@MHKJPFAE@recipientInfos?$AA@ DB 'recipientInfos', 00H ; `string'
CONST	ENDS
;	COMDAT ??_C@_0P@HMLDCEHI@originatorInfo?$AA@
CONST	SEGMENT
??_C@_0P@HMLDCEHI@originatorInfo?$AA@ DB 'originatorInfo', 00H ; `string'
CONST	ENDS
;	COMDAT ??_C@_0BC@OIOGGOHC@CMS_RecipientInfo?$AA@
CONST	SEGMENT
??_C@_0BC@OIOGGOHC@CMS_RecipientInfo?$AA@ DB 'CMS_RecipientInfo', 00H ; `string'
CONST	ENDS
;	COMDAT ??_C@_05CDKGAJPA@d?4ori?$AA@
CONST	SEGMENT
??_C@_05CDKGAJPA@d?4ori?$AA@ DB 'd.ori', 00H		; `string'
CONST	ENDS
;	COMDAT ??_C@_06MMLMDIAL@d?4pwri?$AA@
CONST	SEGMENT
??_C@_06MMLMDIAL@d?4pwri?$AA@ DB 'd.pwri', 00H		; `string'
CONST	ENDS
;	COMDAT ??_C@_07GNHCNHGA@d?4kekri?$AA@
CONST	SEGMENT
??_C@_07GNHCNHGA@d?4kekri?$AA@ DB 'd.kekri', 00H	; `string'
CONST	ENDS
;	COMDAT ??_C@_06KOPOJGNL@d?4kari?$AA@
CONST	SEGMENT
??_C@_06KOPOJGNL@d?4kari?$AA@ DB 'd.kari', 00H		; `string'
CONST	ENDS
;	COMDAT ??_C@_06MJDJDBHG@d?4ktri?$AA@
CONST	SEGMENT
??_C@_06MJDJDBHG@d?4ktri?$AA@ DB 'd.ktri', 00H		; `string'
CONST	ENDS
;	COMDAT ??_C@_0BH@ELFPNLNE@CMS_OtherRecipientInfo?$AA@
CONST	SEGMENT
??_C@_0BH@ELFPNLNE@CMS_OtherRecipientInfo?$AA@ DB 'CMS_OtherRecipientInfo'
	DB	00H						; `string'
CONST	ENDS
;	COMDAT ??_C@_08CPLCPCAK@oriValue?$AA@
CONST	SEGMENT
??_C@_08CPLCPCAK@oriValue?$AA@ DB 'oriValue', 00H	; `string'
CONST	ENDS
;	COMDAT ??_C@_07FAMFHMLO@oriType?$AA@
CONST	SEGMENT
??_C@_07FAMFHMLO@oriType?$AA@ DB 'oriType', 00H		; `string'
CONST	ENDS
;	COMDAT ??_C@_0BK@KBPCOALF@CMS_PasswordRecipientInfo?$AA@
CONST	SEGMENT
??_C@_0BK@KBPCOALF@CMS_PasswordRecipientInfo?$AA@ DB 'CMS_PasswordRecipie'
	DB	'ntInfo', 00H				; `string'
CONST	ENDS
CONST	SEGMENT
?local_it@?1??CMS_PasswordRecipientInfo_it@@9@9 DB 01H	; `CMS_PasswordRecipientInfo_it'::`2'::local_it
	ORG $+3
	DD	010H
	DD	FLAT:_CMS_PasswordRecipientInfo_seq_tt
	DD	04H
	DD	00H
	DD	018H
	DD	FLAT:??_C@_0BK@KBPCOALF@CMS_PasswordRecipientInfo?$AA@
_CMS_OtherRecipientInfo_seq_tt DD 00H
	DD	00H
	DD	00H
	DD	FLAT:??_C@_07FAMFHMLO@oriType?$AA@
	DD	FLAT:_ASN1_OBJECT_it
	DD	01H
	DD	00H
	DD	04H
	DD	FLAT:??_C@_08CPLCPCAK@oriValue?$AA@
	DD	FLAT:_ASN1_ANY_it
?local_it@?1??CMS_OtherRecipientInfo_it@@9@9 DB 01H	; `CMS_OtherRecipientInfo_it'::`2'::local_it
	ORG $+3
	DD	010H
	DD	FLAT:_CMS_OtherRecipientInfo_seq_tt
	DD	02H
	DD	00H
	DD	08H
	DD	FLAT:??_C@_0BH@ELFPNLNE@CMS_OtherRecipientInfo?$AA@
_CMS_RecipientInfo_aux DD 00H
	DD	00H
	DD	00H
	DD	00H
	DD	FLAT:_cms_ri_cb
	DD	00H
_CMS_RecipientInfo_ch_tt DD 00H
	DD	00H
	DD	04H
	DD	FLAT:??_C@_06MJDJDBHG@d?4ktri?$AA@
	DD	FLAT:_CMS_KeyTransRecipientInfo_it
	DD	088H
	DD	01H
	DD	04H
	DD	FLAT:??_C@_06KOPOJGNL@d?4kari?$AA@
	DD	FLAT:_CMS_KeyAgreeRecipientInfo_it
	DD	088H
	DD	02H
	DD	04H
	DD	FLAT:??_C@_07GNHCNHGA@d?4kekri?$AA@
	DD	FLAT:_CMS_KEKRecipientInfo_it
	DD	088H
	DD	03H
	DD	04H
	DD	FLAT:??_C@_06MMLMDIAL@d?4pwri?$AA@
	DD	FLAT:_CMS_PasswordRecipientInfo_it
	DD	088H
	DD	04H
	DD	04H
	DD	FLAT:??_C@_05CDKGAJPA@d?4ori?$AA@
	DD	FLAT:_CMS_OtherRecipientInfo_it
?local_it@?1??CMS_RecipientInfo_it@@9@9 DB 02H		; `CMS_RecipientInfo_it'::`2'::local_it
	ORG $+3
	DD	00H
	DD	FLAT:_CMS_RecipientInfo_ch_tt
	DD	05H
	DD	FLAT:_CMS_RecipientInfo_aux
	DD	08H
	DD	FLAT:??_C@_0BC@OIOGGOHC@CMS_RecipientInfo?$AA@
_CMS_EnvelopedData_seq_tt DD 00H
	DD	00H
	DD	00H
	DD	FLAT:??_C@_07CPCPJPKL@version?$AA@
	DD	FLAT:_LONG_it
	DD	089H
	DD	00H
	DD	04H
	DD	FLAT:??_C@_0P@HMLDCEHI@originatorInfo?$AA@
	DD	FLAT:_CMS_OriginatorInfo_it
	DD	02H
	DD	00H
	DD	08H
	DD	FLAT:??_C@_0P@MHKJPFAE@recipientInfos?$AA@
	DD	FLAT:_CMS_RecipientInfo_it
	DD	00H
	DD	00H
	DD	0cH
	DD	FLAT:??_C@_0BF@OHLPJHAO@encryptedContentInfo?$AA@
	DD	FLAT:_CMS_EncryptedContentInfo_it
	DD	08bH
	DD	01H
	DD	010H
	DD	FLAT:??_C@_0BB@JCNJKAMK@unprotectedAttrs?$AA@
	DD	FLAT:_X509_ATTRIBUTE_it
?local_it@?1??CMS_EnvelopedData_it@@9@9 DB 06H		; `CMS_EnvelopedData_it'::`2'::local_it
	ORG $+3
	DD	010H
	DD	FLAT:_CMS_EnvelopedData_seq_tt
	DD	05H
	DD	00H
	DD	014H
	DD	FLAT:??_C@_0BC@MICBLAOD@CMS_EnvelopedData?$AA@
_CMS_DigestedData_seq_tt DD 00H
	DD	00H
	DD	00H
	DD	FLAT:??_C@_07CPCPJPKL@version?$AA@
	DD	FLAT:_LONG_it
	DD	00H
	DD	00H
	DD	04H
	DD	FLAT:??_C@_0BA@OBGGJDDI@digestAlgorithm?$AA@
	DD	FLAT:_X509_ALGOR_it
	DD	00H
	DD	00H
	DD	08H
	DD	FLAT:??_C@_0BB@EFFJPOAL@encapContentInfo?$AA@
	DD	FLAT:_CMS_EncapsulatedContentInfo_it
	DD	00H
	DD	00H
	DD	0cH
	DD	FLAT:??_C@_06IJPNAHC@digest?$AA@
	DD	FLAT:_ASN1_OCTET_STRING_it
?local_it@?1??CMS_DigestedData_it@@9@9 DB 06H		; `CMS_DigestedData_it'::`2'::local_it
	ORG $+3
	DD	010H
	DD	FLAT:_CMS_DigestedData_seq_tt
	DD	04H
	DD	00H
	DD	010H
	DD	FLAT:??_C@_0BB@NNEFCOGL@CMS_DigestedData?$AA@
_CMS_EncryptedData_seq_tt DD 00H
	DD	00H
	DD	00H
	DD	FLAT:??_C@_07CPCPJPKL@version?$AA@
	DD	FLAT:_LONG_it
	DD	00H
	DD	00H
	DD	04H
	DD	FLAT:??_C@_0BF@OHLPJHAO@encryptedContentInfo?$AA@
	DD	FLAT:_CMS_EncryptedContentInfo_it
	DD	08bH
	DD	01H
	DD	08H
	DD	FLAT:??_C@_0BB@JCNJKAMK@unprotectedAttrs?$AA@
	DD	FLAT:_X509_ATTRIBUTE_it
?local_it@?1??CMS_EncryptedData_it@@9@9 DB 06H		; `CMS_EncryptedData_it'::`2'::local_it
	ORG $+3
	DD	010H
	DD	FLAT:_CMS_EncryptedData_seq_tt
	DD	03H
	DD	00H
	DD	0cH
	DD	FLAT:??_C@_0BC@ONODDCLB@CMS_EncryptedData?$AA@
?local_it@?1??CMS_AuthenticatedData_it@@9@9 DB 06H	; `CMS_AuthenticatedData_it'::`2'::local_it
	ORG $+3
	DD	010H
	DD	FLAT:_CMS_AuthenticatedData_seq_tt
	DD	09H
	DD	00H
	DD	024H
	DD	FLAT:??_C@_0BG@DOMHNMEC@CMS_AuthenticatedData?$AA@
_CMS_AuthenticatedData_seq_tt DD 00H
	DD	00H
	DD	00H
	DD	FLAT:??_C@_07CPCPJPKL@version?$AA@
	DD	FLAT:_LONG_it
	DD	089H
	DD	00H
	DD	04H
	DD	FLAT:??_C@_0P@HMLDCEHI@originatorInfo?$AA@
	DD	FLAT:_CMS_OriginatorInfo_it
	DD	02H
	DD	00H
	DD	08H
	DD	FLAT:??_C@_0P@MHKJPFAE@recipientInfos?$AA@
	DD	FLAT:_CMS_RecipientInfo_it
	DD	00H
	DD	00H
	DD	0cH
	DD	FLAT:??_C@_0N@PGIFJMM@macAlgorithm?$AA@
	DD	FLAT:_X509_ALGOR_it
	DD	088H
	DD	01H
	DD	010H
	DD	FLAT:??_C@_0BA@OBGGJDDI@digestAlgorithm?$AA@
	DD	FLAT:_X509_ALGOR_it
	DD	00H
	DD	00H
	DD	014H
	DD	FLAT:??_C@_0BB@EFFJPOAL@encapContentInfo?$AA@
	DD	FLAT:_CMS_EncapsulatedContentInfo_it
	DD	08bH
	DD	02H
	DD	018H
	DD	FLAT:??_C@_09HHELNNLD@authAttrs?$AA@
	DD	FLAT:_X509_ALGOR_it
	DD	00H
	DD	00H
	DD	01cH
	DD	FLAT:??_C@_03BADCJGEO@mac?$AA@
	DD	FLAT:_ASN1_OCTET_STRING_it
	DD	08bH
	DD	03H
	DD	020H
	DD	FLAT:??_C@_0M@FBFPDIHA@unauthAttrs?$AA@
	DD	FLAT:_X509_ALGOR_it
_CMS_CompressedData_seq_tt DD 00H
	DD	00H
	DD	00H
	DD	FLAT:??_C@_07CPCPJPKL@version?$AA@
	DD	FLAT:_LONG_it
	DD	00H
	DD	00H
	DD	04H
	DD	FLAT:??_C@_0BF@PNIPCJJ@compressionAlgorithm?$AA@
	DD	FLAT:_X509_ALGOR_it
	DD	00H
	DD	00H
	DD	0cH
	DD	FLAT:??_C@_0BB@EFFJPOAL@encapContentInfo?$AA@
	DD	FLAT:_CMS_EncapsulatedContentInfo_it
?local_it@?1??CMS_CompressedData_it@@9@9 DB 06H		; `CMS_CompressedData_it'::`2'::local_it
	ORG $+3
	DD	010H
	DD	FLAT:_CMS_CompressedData_seq_tt
	DD	03H
	DD	00H
	DD	010H
	DD	FLAT:??_C@_0BD@IAIGGNCI@CMS_CompressedData?$AA@
_cms_default_tt DD 090H
	DD	00H
	DD	04H
	DD	FLAT:??_C@_07JIJPKMF@d?4other?$AA@
	DD	FLAT:_ASN1_ANY_it
_CMS_ContentInfo_adbtbl DD 015H
	DD	0890H
	DD	00H
	DD	04H
	DD	FLAT:??_C@_06OAPKPHLA@d?4data?$AA@
	DD	FLAT:_ASN1_OCTET_STRING_NDEF_it
	DD	016H
	DD	0890H
	DD	00H
	DD	04H
	DD	FLAT:??_C@_0N@DDIMJOHE@d?4signedData?$AA@
	DD	FLAT:_CMS_SignedData_it
	DD	017H
	DD	0890H
	DD	00H
	DD	04H
	DD	FLAT:??_C@_0BA@CCFAJLBF@d?4envelopedData?$AA@
	DD	FLAT:_CMS_EnvelopedData_it
	DD	019H
	DD	0890H
	DD	00H
	DD	04H
	DD	FLAT:??_C@_0P@HJCJOBOP@d?4digestedData?$AA@
	DD	FLAT:_CMS_DigestedData_it
	DD	01aH
	DD	0890H
	DD	00H
	DD	04H
	DD	FLAT:??_C@_0BA@HJCBJEH@d?4encryptedData?$AA@
	DD	FLAT:_CMS_EncryptedData_it
	DD	0cdH
	DD	0890H
	DD	00H
	DD	04H
	DD	FLAT:??_C@_0BE@NPCJHPOJ@d?4authenticatedData?$AA@
	DD	FLAT:_CMS_AuthenticatedData_it
	DD	0312H
	DD	0890H
	DD	00H
	DD	04H
	DD	FLAT:??_C@_0BB@NELCELCK@d?4compressedData?$AA@
	DD	FLAT:_CMS_CompressedData_it
?internal_adb@?1??CMS_ContentInfo_adb@@9@9 DD 00H	; `CMS_ContentInfo_adb'::`2'::internal_adb
	DD	00H
	DD	00H
	DD	FLAT:_CMS_ContentInfo_adbtbl
	DD	07H
	DD	FLAT:_cms_default_tt
	DD	00H
_CMS_ContentInfo_aux DD 00H
	DD	00H
	DD	00H
	DD	00H
	DD	FLAT:_cms_cb
	DD	00H
_CMS_ContentInfo_seq_tt DD 00H
	DD	00H
	DD	00H
	DD	FLAT:??_C@_0M@DOEFOEJD@contentType?$AA@
	DD	FLAT:_ASN1_OBJECT_it
	DD	0100H
	DD	0ffffffffH
	DD	00H
	DD	FLAT:??_C@_0BA@ECDDPOHH@CMS_ContentInfo?$AA@
	DD	FLAT:_CMS_ContentInfo_adb
?local_it@?1??CMS_ContentInfo_it@@9@9 DB 06H		; `CMS_ContentInfo_it'::`2'::local_it
	ORG $+3
	DD	010H
	DD	FLAT:_CMS_ContentInfo_seq_tt
	DD	02H
	DD	FLAT:_CMS_ContentInfo_aux
	DD	08H
	DD	FLAT:??_C@_0BA@ECDDPOHH@CMS_ContentInfo?$AA@
_CMS_Attributes_Sign_item_tt DD 06H
	DD	00H
	DD	00H
	DD	FLAT:??_C@_0P@KAJKPCJH@CMS_ATTRIBUTES?$AA@
	DD	FLAT:_X509_ATTRIBUTE_it
?local_it@?1??CMS_Attributes_Sign_it@@9@9 DB 00H	; `CMS_Attributes_Sign_it'::`2'::local_it
	ORG $+3
	DD	0ffffffffH
	DD	FLAT:_CMS_Attributes_Sign_item_tt
	DD	00H
	DD	00H
	DD	00H
	DD	FLAT:??_C@_0BE@PAHMALPK@CMS_Attributes_Sign?$AA@
_CMS_Attributes_Verify_item_tt DD 0cH
	DD	011H
	DD	00H
	DD	FLAT:??_C@_0P@KAJKPCJH@CMS_ATTRIBUTES?$AA@
	DD	FLAT:_X509_ATTRIBUTE_it
?local_it@?1??CMS_Attributes_Verify_it@@9@9 DB 00H	; `CMS_Attributes_Verify_it'::`2'::local_it
	ORG $+3
	DD	0ffffffffH
	DD	FLAT:_CMS_Attributes_Verify_item_tt
	DD	00H
	DD	00H
	DD	00H
	DD	FLAT:??_C@_0BG@NLALJKHJ@CMS_Attributes_Verify?$AA@
_CMS_ReceiptsFrom_ch_tt DD 088H
	DD	00H
	DD	04H
	DD	FLAT:??_C@_0BB@DENHEDOF@d?4allOrFirstTier?$AA@
	DD	FLAT:_LONG_it
	DD	08cH
	DD	01H
	DD	04H
	DD	FLAT:??_C@_0O@ECMNNMJA@d?4receiptList?$AA@
	DD	FLAT:_GENERAL_NAMES_it
?local_it@?1??CMS_ReceiptsFrom_it@@9@9 DB 02H		; `CMS_ReceiptsFrom_it'::`2'::local_it
	ORG $+3
	DD	00H
	DD	FLAT:_CMS_ReceiptsFrom_ch_tt
	DD	02H
	DD	00H
	DD	08H
	DD	FLAT:??_C@_0BB@JKAAKCKP@CMS_ReceiptsFrom?$AA@
_CMS_ReceiptRequest_seq_tt DD 00H
	DD	00H
	DD	00H
	DD	FLAT:??_C@_0BI@BHIBPADG@signedContentIdentifier?$AA@
	DD	FLAT:_ASN1_OCTET_STRING_it
	DD	00H
	DD	00H
	DD	04H
	DD	FLAT:??_C@_0N@CIHGCFJG@receiptsFrom?$AA@
	DD	FLAT:_CMS_ReceiptsFrom_it
	DD	04H
	DD	00H
	DD	08H
	DD	FLAT:??_C@_0L@BBBJMFCF@receiptsTo?$AA@
	DD	FLAT:_GENERAL_NAMES_it
?local_it@?1??CMS_ReceiptRequest_it@@9@9 DB 01H		; `CMS_ReceiptRequest_it'::`2'::local_it
	ORG $+3
	DD	010H
	DD	FLAT:_CMS_ReceiptRequest_seq_tt
	DD	03H
	DD	00H
	DD	0cH
	DD	FLAT:??_C@_0BD@KOFKAGLC@CMS_ReceiptRequest?$AA@
?local_it@?1??CMS_Receipt_it@@9@9 DB 01H		; `CMS_Receipt_it'::`2'::local_it
	ORG $+3
	DD	010H
	DD	FLAT:_CMS_Receipt_seq_tt
	DD	04H
	DD	00H
	DD	010H
	DD	FLAT:??_C@_0M@GJHAMFIP@CMS_Receipt?$AA@
_CMS_Receipt_seq_tt DD 00H
	DD	00H
	DD	00H
	DD	FLAT:??_C@_07CPCPJPKL@version?$AA@
	DD	FLAT:_LONG_it
	DD	00H
	DD	00H
	DD	04H
	DD	FLAT:??_C@_0M@DOEFOEJD@contentType?$AA@
	DD	FLAT:_ASN1_OBJECT_it
	DD	00H
	DD	00H
	DD	08H
	DD	FLAT:??_C@_0BI@BHIBPADG@signedContentIdentifier?$AA@
	DD	FLAT:_ASN1_OCTET_STRING_it
	DD	00H
	DD	00H
	DD	0cH
	DD	FLAT:??_C@_0BJ@OPFDHHHB@originatorSignatureValue?$AA@
	DD	FLAT:_ASN1_OCTET_STRING_it
_CMS_SharedInfo_seq_tt DD 00H
	DD	00H
	DD	00H
	DD	FLAT:??_C@_07MCNKNJMC@keyInfo?$AA@
	DD	FLAT:_X509_ALGOR_it
	DD	091H
	DD	00H
	DD	04H
	DD	FLAT:??_C@_0M@BEJHGEIP@entityUInfo?$AA@
	DD	FLAT:_ASN1_OCTET_STRING_it
	DD	091H
	DD	02H
	DD	08H
	DD	FLAT:??_C@_0M@NAAOAKIB@suppPubInfo?$AA@
	DD	FLAT:_ASN1_OCTET_STRING_it
?local_it@?1??CMS_SharedInfo_it@@9@9 DB 01H		; `CMS_SharedInfo_it'::`2'::local_it
	ORG $+3
	DD	010H
	DD	FLAT:_CMS_SharedInfo_seq_tt
	DD	03H
	DD	00H
	DD	0cH
	DD	FLAT:??_C@_0P@BDIJFMCD@CMS_SharedInfo?$AA@
_CMS_IssuerAndSerialNumber_seq_tt DD 00H
	DD	00H
	DD	00H
	DD	FLAT:??_C@_06EAINIONG@issuer?$AA@
	DD	FLAT:_X509_NAME_it
	DD	00H
	DD	00H
	DD	04H
	DD	FLAT:??_C@_0N@OMOHFKCJ@serialNumber?$AA@
	DD	FLAT:_ASN1_INTEGER_it
?local_it@?1??CMS_IssuerAndSerialNumber_it@@9@9 DB 01H	; `CMS_IssuerAndSerialNumber_it'::`2'::local_it
	ORG $+3
	DD	010H
	DD	FLAT:_CMS_IssuerAndSerialNumber_seq_tt
	DD	02H
	DD	00H
	DD	08H
	DD	FLAT:??_C@_0BK@GLMHLHML@CMS_IssuerAndSerialNumber?$AA@
_CMS_OtherCertificateFormat_seq_tt DD 00H
	DD	00H
	DD	00H
	DD	FLAT:??_C@_0BA@FEKMLOFK@otherCertFormat?$AA@
	DD	FLAT:_ASN1_OBJECT_it
	DD	01H
	DD	00H
	DD	04H
	DD	FLAT:??_C@_09CDBALEP@otherCert?$AA@
	DD	FLAT:_ASN1_ANY_it
?local_it@?1??CMS_OtherCertificateFormat_it@@9@9 DB 01H	; `CMS_OtherCertificateFormat_it'::`2'::local_it
	ORG $+3
	DD	010H
	DD	FLAT:_CMS_OtherCertificateFormat_seq_tt
	DD	02H
	DD	00H
	DD	08H
	DD	FLAT:??_C@_0BL@CACJFKMB@CMS_OtherCertificateFormat?$AA@
_CMS_CertificateChoices_ch_tt DD 00H
	DD	00H
	DD	04H
	DD	FLAT:??_C@_0O@MNFCNMPJ@d?4certificate?$AA@
	DD	FLAT:_X509_it
	DD	088H
	DD	00H
	DD	04H
	DD	FLAT:??_C@_0BG@NLAONGA@d?4extendedCertificate?$AA@
	DD	FLAT:_ASN1_SEQUENCE_it
	DD	088H
	DD	01H
	DD	04H
	DD	FLAT:??_C@_0N@OONEIFFN@d?4v1AttrCert?$AA@
	DD	FLAT:_ASN1_SEQUENCE_it
	DD	088H
	DD	02H
	DD	04H
	DD	FLAT:??_C@_0N@FODDOFO@d?4v2AttrCert?$AA@
	DD	FLAT:_ASN1_SEQUENCE_it
	DD	088H
	DD	03H
	DD	04H
	DD	FLAT:??_C@_07JIJPKMF@d?4other?$AA@
	DD	FLAT:_CMS_OtherCertificateFormat_it
?local_it@?1??CMS_CertificateChoices_it@@9@9 DB 02H	; `CMS_CertificateChoices_it'::`2'::local_it
	ORG $+3
	DD	00H
	DD	FLAT:_CMS_CertificateChoices_ch_tt
	DD	05H
	DD	00H
	DD	08H
	DD	FLAT:??_C@_0BH@CFNIJMB@CMS_CertificateChoices?$AA@
_CMS_SignerIdentifier_ch_tt DD 00H
	DD	00H
	DD	04H
	DD	FLAT:??_C@_0BI@DNGDMGHK@d?4issuerAndSerialNumber?$AA@
	DD	FLAT:_CMS_IssuerAndSerialNumber_it
	DD	088H
	DD	00H
	DD	04H
	DD	FLAT:??_C@_0BH@LJLJDHKP@d?4subjectKeyIdentifier?$AA@
	DD	FLAT:_ASN1_OCTET_STRING_it
?local_it@?1??CMS_SignerIdentifier_it@@9@9 DB 02H	; `CMS_SignerIdentifier_it'::`2'::local_it
	ORG $+3
	DD	00H
	DD	FLAT:_CMS_SignerIdentifier_ch_tt
	DD	02H
	DD	00H
	DD	08H
	DD	FLAT:??_C@_0BF@HIKDPBH@CMS_SignerIdentifier?$AA@
_CMS_EncapsulatedContentInfo_seq_tt DD 00H
	DD	00H
	DD	00H
	DD	FLAT:??_C@_0N@EBAJNGML@eContentType?$AA@
	DD	FLAT:_ASN1_OBJECT_it
	DD	0891H
	DD	00H
	DD	04H
	DD	FLAT:??_C@_08OOKAKDHE@eContent?$AA@
	DD	FLAT:_ASN1_OCTET_STRING_NDEF_it
?local_it@?1??CMS_EncapsulatedContentInfo_it@@9@9 DB 06H ; `CMS_EncapsulatedContentInfo_it'::`2'::local_it
	ORG $+3
	DD	010H
	DD	FLAT:_CMS_EncapsulatedContentInfo_seq_tt
	DD	02H
	DD	00H
	DD	0cH
	DD	FLAT:??_C@_0BM@FGCJFMKP@CMS_EncapsulatedContentInfo?$AA@
_CMS_SignerInfo_aux DD 00H
	DD	00H
	DD	00H
	DD	00H
	DD	FLAT:_cms_si_cb
	DD	00H
_CMS_SignerInfo_seq_tt DD 00H
	DD	00H
	DD	00H
	DD	FLAT:??_C@_07CPCPJPKL@version?$AA@
	DD	FLAT:_LONG_it
	DD	00H
	DD	00H
	DD	04H
	DD	FLAT:??_C@_03OBKGHBJN@sid?$AA@
	DD	FLAT:_CMS_SignerIdentifier_it
	DD	00H
	DD	00H
	DD	08H
	DD	FLAT:??_C@_0BA@OBGGJDDI@digestAlgorithm?$AA@
	DD	FLAT:_X509_ALGOR_it
	DD	08bH
	DD	00H
	DD	0cH
	DD	FLAT:??_C@_0M@MDGDHPDJ@signedAttrs?$AA@
	DD	FLAT:_X509_ATTRIBUTE_it
	DD	00H
	DD	00H
	DD	010H
	DD	FLAT:??_C@_0BD@CBMBFDMH@signatureAlgorithm?$AA@
	DD	FLAT:_X509_ALGOR_it
	DD	00H
	DD	00H
	DD	014H
	DD	FLAT:??_C@_09CMIIOJHF@signature?$AA@
	DD	FLAT:_ASN1_OCTET_STRING_it
	DD	08bH
	DD	01H
	DD	018H
	DD	FLAT:??_C@_0O@PDNEMLFH@unsignedAttrs?$AA@
	DD	FLAT:_X509_ATTRIBUTE_it
?local_it@?1??CMS_SignerInfo_it@@9@9 DB 01H		; `CMS_SignerInfo_it'::`2'::local_it
	ORG $+3
	DD	010H
	DD	FLAT:_CMS_SignerInfo_seq_tt
	DD	07H
	DD	FLAT:_CMS_SignerInfo_aux
	DD	040H
	DD	FLAT:??_C@_0P@HBMKILHF@CMS_SignerInfo?$AA@
_CMS_OtherRevocationInfoFormat_seq_tt DD 00H
	DD	00H
	DD	00H
	DD	FLAT:??_C@_0BD@HLCFDNLB@otherRevInfoFormat?$AA@
	DD	FLAT:_ASN1_OBJECT_it
	DD	01H
	DD	00H
	DD	04H
	DD	FLAT:??_C@_0N@MOBLFMFA@otherRevInfo?$AA@
	DD	FLAT:_ASN1_ANY_it
?local_it@?1??CMS_OtherRevocationInfoFormat_it@@9@9 DB 01H ; `CMS_OtherRevocationInfoFormat_it'::`2'::local_it
	ORG $+3
	DD	010H
	DD	FLAT:_CMS_OtherRevocationInfoFormat_seq_tt
	DD	02H
	DD	00H
	DD	08H
	DD	FLAT:??_C@_0BO@ONAFHMMC@CMS_OtherRevocationInfoFormat?$AA@
_CMS_RevocationInfoChoice_ch_tt DD 00H
	DD	00H
	DD	04H
	DD	FLAT:??_C@_05BEAHECAN@d?4crl?$AA@
	DD	FLAT:_X509_CRL_it
	DD	088H
	DD	01H
	DD	04H
	DD	FLAT:??_C@_07JIJPKMF@d?4other?$AA@
	DD	FLAT:_CMS_OtherRevocationInfoFormat_it
?local_it@?1??CMS_RevocationInfoChoice_it@@9@9 DB 02H	; `CMS_RevocationInfoChoice_it'::`2'::local_it
	ORG $+3
	DD	00H
	DD	FLAT:_CMS_RevocationInfoChoice_ch_tt
	DD	02H
	DD	00H
	DD	08H
	DD	FLAT:??_C@_0BJ@MJACOINL@CMS_RevocationInfoChoice?$AA@
_CMS_SignedData_seq_tt DD 00H
	DD	00H
	DD	00H
	DD	FLAT:??_C@_07CPCPJPKL@version?$AA@
	DD	FLAT:_LONG_it
	DD	02H
	DD	00H
	DD	04H
	DD	FLAT:??_C@_0BB@CMPBPEDI@digestAlgorithms?$AA@
	DD	FLAT:_X509_ALGOR_it
	DD	00H
	DD	00H
	DD	08H
	DD	FLAT:??_C@_0BB@EFFJPOAL@encapContentInfo?$AA@
	DD	FLAT:_CMS_EncapsulatedContentInfo_it
	DD	08bH
	DD	00H
	DD	0cH
	DD	FLAT:??_C@_0N@NGKEHKOM@certificates?$AA@
	DD	FLAT:_CMS_CertificateChoices_it
	DD	08bH
	DD	01H
	DD	010H
	DD	FLAT:??_C@_04GDKGHFBJ@crls?$AA@
	DD	FLAT:_CMS_RevocationInfoChoice_it
	DD	02H
	DD	00H
	DD	014H
	DD	FLAT:??_C@_0M@OPIAHELE@signerInfos?$AA@
	DD	FLAT:_CMS_SignerInfo_it
?local_it@?1??CMS_SignedData_it@@9@9 DB 06H		; `CMS_SignedData_it'::`2'::local_it
	ORG $+3
	DD	010H
	DD	FLAT:_CMS_SignedData_seq_tt
	DD	06H
	DD	00H
	DD	018H
	DD	FLAT:??_C@_0P@IFJHOEIE@CMS_SignedData?$AA@
_CMS_OriginatorInfo_seq_tt DD 08bH
	DD	00H
	DD	00H
	DD	FLAT:??_C@_0N@NGKEHKOM@certificates?$AA@
	DD	FLAT:_CMS_CertificateChoices_it
	DD	08bH
	DD	01H
	DD	04H
	DD	FLAT:??_C@_04GDKGHFBJ@crls?$AA@
	DD	FLAT:_CMS_RevocationInfoChoice_it
?local_it@?1??CMS_OriginatorInfo_it@@9@9 DB 01H		; `CMS_OriginatorInfo_it'::`2'::local_it
	ORG $+3
	DD	010H
	DD	FLAT:_CMS_OriginatorInfo_seq_tt
	DD	02H
	DD	00H
	DD	08H
	DD	FLAT:??_C@_0BD@BOLANDH@CMS_OriginatorInfo?$AA@
_CMS_EncryptedContentInfo_seq_tt DD 00H
	DD	00H
	DD	00H
	DD	FLAT:??_C@_0M@DOEFOEJD@contentType?$AA@
	DD	FLAT:_ASN1_OBJECT_it
	DD	00H
	DD	00H
	DD	04H
	DD	FLAT:??_C@_0BL@JFGGCGJK@contentEncryptionAlgorithm?$AA@
	DD	FLAT:_X509_ALGOR_it
	DD	089H
	DD	00H
	DD	08H
	DD	FLAT:??_C@_0BB@HAOJNDCF@encryptedContent?$AA@
	DD	FLAT:_ASN1_OCTET_STRING_NDEF_it
?local_it@?1??CMS_EncryptedContentInfo_it@@9@9 DB 06H	; `CMS_EncryptedContentInfo_it'::`2'::local_it
	ORG $+3
	DD	010H
	DD	FLAT:_CMS_EncryptedContentInfo_seq_tt
	DD	03H
	DD	00H
	DD	01cH
	DD	FLAT:??_C@_0BJ@IHPALOIM@CMS_EncryptedContentInfo?$AA@
_CMS_KeyTransRecipientInfo_seq_tt DD 00H
	DD	00H
	DD	00H
	DD	FLAT:??_C@_07CPCPJPKL@version?$AA@
	DD	FLAT:_LONG_it
	DD	00H
	DD	00H
	DD	04H
	DD	FLAT:??_C@_03FJBKBGPI@rid?$AA@
	DD	FLAT:_CMS_SignerIdentifier_it
	DD	00H
	DD	00H
	DD	08H
	DD	FLAT:??_C@_0BH@NBKKPKMP@keyEncryptionAlgorithm?$AA@
	DD	FLAT:_X509_ALGOR_it
	DD	00H
	DD	00H
	DD	0cH
	DD	FLAT:??_C@_0N@DJLGIBLA@encryptedKey?$AA@
	DD	FLAT:_ASN1_OCTET_STRING_it
?local_it@?1??CMS_KeyTransRecipientInfo_it@@9@9 DB 01H	; `CMS_KeyTransRecipientInfo_it'::`2'::local_it
	ORG $+3
	DD	010H
	DD	FLAT:_CMS_KeyTransRecipientInfo_seq_tt
	DD	04H
	DD	00H
	DD	01cH
	DD	FLAT:??_C@_0BK@JKNAJMBM@CMS_KeyTransRecipientInfo?$AA@
_CMS_OtherKeyAttribute_seq_tt DD 00H
	DD	00H
	DD	00H
	DD	FLAT:??_C@_09FBOICBLA@keyAttrId?$AA@
	DD	FLAT:_ASN1_OBJECT_it
	DD	01H
	DD	00H
	DD	04H
	DD	FLAT:??_C@_07CNMADOPK@keyAttr?$AA@
	DD	FLAT:_ASN1_ANY_it
?local_it@?1??CMS_OtherKeyAttribute_it@@9@9 DB 01H	; `CMS_OtherKeyAttribute_it'::`2'::local_it
	ORG $+3
	DD	010H
	DD	FLAT:_CMS_OtherKeyAttribute_seq_tt
	DD	02H
	DD	00H
	DD	08H
	DD	FLAT:??_C@_0BG@MPKMCLOF@CMS_OtherKeyAttribute?$AA@
_CMS_RecipientKeyIdentifier_seq_tt DD 00H
	DD	00H
	DD	00H
	DD	FLAT:??_C@_0BF@MOEDIMBI@subjectKeyIdentifier?$AA@
	DD	FLAT:_ASN1_OCTET_STRING_it
	DD	01H
	DD	00H
	DD	04H
	DD	FLAT:??_C@_04JNIHBGGH@date?$AA@
	DD	FLAT:_ASN1_GENERALIZEDTIME_it
	DD	01H
	DD	00H
	DD	08H
	DD	FLAT:??_C@_05BGEKGIIP@other?$AA@
	DD	FLAT:_CMS_OtherKeyAttribute_it
?local_it@?1??CMS_RecipientKeyIdentifier_it@@9@9 DB 01H	; `CMS_RecipientKeyIdentifier_it'::`2'::local_it
	ORG $+3
	DD	010H
	DD	FLAT:_CMS_RecipientKeyIdentifier_seq_tt
	DD	03H
	DD	00H
	DD	0cH
	DD	FLAT:??_C@_0BL@KIFNEPBG@CMS_RecipientKeyIdentifier?$AA@
_CMS_KeyAgreeRecipientIdentifier_ch_tt DD 00H
	DD	00H
	DD	04H
	DD	FLAT:??_C@_0BI@DNGDMGHK@d?4issuerAndSerialNumber?$AA@
	DD	FLAT:_CMS_IssuerAndSerialNumber_it
	DD	088H
	DD	00H
	DD	04H
	DD	FLAT:??_C@_08NDNCHPPH@d?4rKeyId?$AA@
	DD	FLAT:_CMS_RecipientKeyIdentifier_it
?local_it@?1??CMS_KeyAgreeRecipientIdentifier_it@@9@9 DB 02H ; `CMS_KeyAgreeRecipientIdentifier_it'::`2'::local_it
	ORG $+3
	DD	00H
	DD	FLAT:_CMS_KeyAgreeRecipientIdentifier_ch_tt
	DD	02H
	DD	00H
	DD	08H
	DD	FLAT:??_C@_0CA@LLLOPIGI@CMS_KeyAgreeRecipientIdentifier?$AA@
_CMS_RecipientEncryptedKey_aux DD 00H
	DD	00H
	DD	00H
	DD	00H
	DD	FLAT:_cms_rek_cb
	DD	00H
_CMS_RecipientEncryptedKey_seq_tt DD 00H
	DD	00H
	DD	00H
	DD	FLAT:??_C@_03FJBKBGPI@rid?$AA@
	DD	FLAT:_CMS_KeyAgreeRecipientIdentifier_it
	DD	00H
	DD	00H
	DD	04H
	DD	FLAT:??_C@_0N@DJLGIBLA@encryptedKey?$AA@
	DD	FLAT:_ASN1_OCTET_STRING_it
?local_it@?1??CMS_RecipientEncryptedKey_it@@9@9 DB 01H	; `CMS_RecipientEncryptedKey_it'::`2'::local_it
	ORG $+3
	DD	010H
	DD	FLAT:_CMS_RecipientEncryptedKey_seq_tt
	DD	02H
	DD	FLAT:_CMS_RecipientEncryptedKey_aux
	DD	0cH
	DD	FLAT:??_C@_0BK@PEPAIBDP@CMS_RecipientEncryptedKey?$AA@
_CMS_OriginatorPublicKey_seq_tt DD 00H
	DD	00H
	DD	00H
	DD	FLAT:??_C@_09JPNFBOJG@algorithm?$AA@
	DD	FLAT:_X509_ALGOR_it
	DD	00H
	DD	00H
	DD	04H
	DD	FLAT:??_C@_09IDENFCJL@publicKey?$AA@
	DD	FLAT:_ASN1_BIT_STRING_it
?local_it@?1??CMS_OriginatorPublicKey_it@@9@9 DB 01H	; `CMS_OriginatorPublicKey_it'::`2'::local_it
	ORG $+3
	DD	010H
	DD	FLAT:_CMS_OriginatorPublicKey_seq_tt
	DD	02H
	DD	00H
	DD	08H
	DD	FLAT:??_C@_0BI@BANGJHOF@CMS_OriginatorPublicKey?$AA@
_CMS_OriginatorIdentifierOrKey_ch_tt DD 00H
	DD	00H
	DD	04H
	DD	FLAT:??_C@_0BI@DNGDMGHK@d?4issuerAndSerialNumber?$AA@
	DD	FLAT:_CMS_IssuerAndSerialNumber_it
	DD	088H
	DD	00H
	DD	04H
	DD	FLAT:??_C@_0BH@LJLJDHKP@d?4subjectKeyIdentifier?$AA@
	DD	FLAT:_ASN1_OCTET_STRING_it
	DD	088H
	DD	01H
	DD	04H
	DD	FLAT:??_C@_0BA@GMAGEPIK@d?4originatorKey?$AA@
	DD	FLAT:_CMS_OriginatorPublicKey_it
?local_it@?1??CMS_OriginatorIdentifierOrKey_it@@9@9 DB 02H ; `CMS_OriginatorIdentifierOrKey_it'::`2'::local_it
	ORG $+3
	DD	00H
	DD	FLAT:_CMS_OriginatorIdentifierOrKey_ch_tt
	DD	03H
	DD	00H
	DD	08H
	DD	FLAT:??_C@_0BO@EGGGKLC@CMS_OriginatorIdentifierOrKey?$AA@
_CMS_KeyAgreeRecipientInfo_aux DD 00H
	DD	00H
	DD	00H
	DD	00H
	DD	FLAT:_cms_kari_cb
	DD	00H
?local_it@?1??CMS_KeyAgreeRecipientInfo_it@@9@9 DB 01H	; `CMS_KeyAgreeRecipientInfo_it'::`2'::local_it
	ORG $+3
	DD	010H
	DD	FLAT:_CMS_KeyAgreeRecipientInfo_seq_tt
	DD	05H
	DD	FLAT:_CMS_KeyAgreeRecipientInfo_aux
	DD	0a4H
	DD	FLAT:??_C@_0BK@FMJLFKK@CMS_KeyAgreeRecipientInfo?$AA@
_CMS_KeyAgreeRecipientInfo_seq_tt DD 00H
	DD	00H
	DD	00H
	DD	FLAT:??_C@_07CPCPJPKL@version?$AA@
	DD	FLAT:_LONG_it
	DD	090H
	DD	00H
	DD	04H
	DD	FLAT:??_C@_0L@LNFLHOFG@originator?$AA@
	DD	FLAT:_CMS_OriginatorIdentifierOrKey_it
	DD	091H
	DD	01H
	DD	08H
	DD	FLAT:??_C@_03BGILEBGG@ukm?$AA@
	DD	FLAT:_ASN1_OCTET_STRING_it
	DD	00H
	DD	00H
	DD	0cH
	DD	FLAT:??_C@_0BH@NBKKPKMP@keyEncryptionAlgorithm?$AA@
	DD	FLAT:_X509_ALGOR_it
	DD	04H
	DD	00H
	DD	010H
	DD	FLAT:??_C@_0BH@PJIHPFGD@recipientEncryptedKeys?$AA@
	DD	FLAT:_CMS_RecipientEncryptedKey_it
_CMS_KEKIdentifier_seq_tt DD 00H
	DD	00H
	DD	00H
	DD	FLAT:??_C@_0O@NFJHJHKH@keyIdentifier?$AA@
	DD	FLAT:_ASN1_OCTET_STRING_it
	DD	01H
	DD	00H
	DD	04H
	DD	FLAT:??_C@_04JNIHBGGH@date?$AA@
	DD	FLAT:_ASN1_GENERALIZEDTIME_it
	DD	01H
	DD	00H
	DD	08H
	DD	FLAT:??_C@_05BGEKGIIP@other?$AA@
	DD	FLAT:_CMS_OtherKeyAttribute_it
?local_it@?1??CMS_KEKIdentifier_it@@9@9 DB 01H		; `CMS_KEKIdentifier_it'::`2'::local_it
	ORG $+3
	DD	010H
	DD	FLAT:_CMS_KEKIdentifier_seq_tt
	DD	03H
	DD	00H
	DD	0cH
	DD	FLAT:??_C@_0BC@MBEMIKEG@CMS_KEKIdentifier?$AA@
?local_it@?1??CMS_KEKRecipientInfo_it@@9@9 DB 01H	; `CMS_KEKRecipientInfo_it'::`2'::local_it
	ORG $+3
	DD	010H
	DD	FLAT:_CMS_KEKRecipientInfo_seq_tt
	DD	04H
	DD	00H
	DD	018H
	DD	FLAT:??_C@_0BF@NBHFGDNK@CMS_KEKRecipientInfo?$AA@
_CMS_KEKRecipientInfo_seq_tt DD 00H
	DD	00H
	DD	00H
	DD	FLAT:??_C@_07CPCPJPKL@version?$AA@
	DD	FLAT:_LONG_it
	DD	00H
	DD	00H
	DD	04H
	DD	FLAT:??_C@_05NHGMHHPG@kekid?$AA@
	DD	FLAT:_CMS_KEKIdentifier_it
	DD	00H
	DD	00H
	DD	08H
	DD	FLAT:??_C@_0BH@NBKKPKMP@keyEncryptionAlgorithm?$AA@
	DD	FLAT:_X509_ALGOR_it
	DD	00H
	DD	00H
	DD	0cH
	DD	FLAT:??_C@_0N@DJLGIBLA@encryptedKey?$AA@
	DD	FLAT:_ASN1_OCTET_STRING_it
_CMS_PasswordRecipientInfo_seq_tt DD 00H
	DD	00H
	DD	00H
	DD	FLAT:??_C@_07CPCPJPKL@version?$AA@
	DD	FLAT:_LONG_it
	DD	089H
	DD	00H
	DD	04H
	DD	FLAT:??_C@_0BH@OGDBOKG@keyDerivationAlgorithm?$AA@
	DD	FLAT:_X509_ALGOR_it
	DD	00H
	DD	00H
	DD	08H
	DD	FLAT:??_C@_0BH@NBKKPKMP@keyEncryptionAlgorithm?$AA@
	DD	FLAT:_X509_ALGOR_it
	DD	00H
	DD	00H
	DD	0cH
	DD	FLAT:??_C@_0N@DJLGIBLA@encryptedKey?$AA@
	DD	FLAT:_ASN1_OCTET_STRING_it
CONST	ENDS
PUBLIC	_CMS_ContentInfo_it
PUBLIC	_CMS_ReceiptRequest_it
PUBLIC	_CMS_SharedInfo_encode
PUBLIC	_CMS_Attributes_Sign_it
PUBLIC	_CMS_Attributes_Verify_it
PUBLIC	_CMS_Receipt_it
PUBLIC	_CMS_SharedInfo_it
EXTRN	_CRYPTO_free:PROC
EXTRN	_OPENSSL_cleanse:PROC
EXTRN	_ASN1_item_i2d:PROC
EXTRN	_EVP_MD_CTX_cleanup:PROC
EXTRN	_EVP_CIPHER_CTX_set_flags:PROC
EXTRN	_EVP_CIPHER_CTX_init:PROC
EXTRN	_EVP_CIPHER_CTX_cleanup:PROC
EXTRN	_EVP_PKEY_free:PROC
EXTRN	_EVP_PKEY_CTX_free:PROC
EXTRN	_X509_free:PROC
EXTRN	_CMS_dataInit:PROC
EXTRN	_CMS_dataFinal:PROC
EXTRN	_CMS_stream:PROC
EXTRN	__chkstk:PROC
; Function compile flags: /Ogtpy
;	COMDAT _CMS_SharedInfo_it
_TEXT	SEGMENT
_CMS_SharedInfo_it PROC					; COMDAT
; File c:\workpace\openssl\openssl-1.0.2h\crypto\cms\cms_asn1.c
; Line 429
	mov	eax, OFFSET ?local_it@?1??CMS_SharedInfo_it@@9@9
	ret	0
_CMS_SharedInfo_it ENDP
_TEXT	ENDS
; Function compile flags: /Ogtpy
;	COMDAT _CMS_Receipt_it
_TEXT	SEGMENT
_CMS_Receipt_it PROC					; COMDAT
; File c:\workpace\openssl\openssl-1.0.2h\crypto\cms\cms_asn1.c
; Line 412
	mov	eax, OFFSET ?local_it@?1??CMS_Receipt_it@@9@9
	ret	0
_CMS_Receipt_it ENDP
_TEXT	ENDS
; Function compile flags: /Ogtpy
;	COMDAT _CMS_ReceiptsFrom_it
_TEXT	SEGMENT
_CMS_ReceiptsFrom_it PROC				; COMDAT
; File c:\workpace\openssl\openssl-1.0.2h\crypto\cms\cms_asn1.c
; Line 399
	mov	eax, OFFSET ?local_it@?1??CMS_ReceiptsFrom_it@@9@9
	ret	0
_CMS_ReceiptsFrom_it ENDP
_TEXT	ENDS
; Function compile flags: /Ogtpy
;	COMDAT _cms_cb
_TEXT	SEGMENT
_operation$ = 8						; size = 4
_pval$ = 12						; size = 4
_it$ = 16						; size = 4
_exarg$ = 20						; size = 4
_cms_cb	PROC						; COMDAT
; File c:\workpace\openssl\openssl-1.0.2h\crypto\cms\cms_asn1.c
; Line 343
	mov	eax, DWORD PTR _pval$[esp-4]
	test	eax, eax
	je	SHORT $LN4@cms_cb
; Line 344
	push	esi
	push	edi
	mov	edi, DWORD PTR [eax]
; Line 347
	mov	eax, DWORD PTR _operation$[esp+4]
	add	eax, -10				; fffffff6H
	cmp	eax, 3
	ja	SHORT $LN11@cms_cb
	mov	esi, DWORD PTR _exarg$[esp+4]
	jmp	DWORD PTR $LN17@cms_cb[eax*4]
$LN6@cms_cb:
; Line 350
	lea	eax, DWORD PTR [esi+8]
	push	edi
	push	eax
	call	_CMS_stream
	add	esp, 8
	test	eax, eax
	jle	SHORT $LN15@cms_cb
$LN7@cms_cb:
; Line 353
	push	DWORD PTR [esi]
	push	edi
	call	_CMS_dataInit
	add	esp, 8
	mov	DWORD PTR [esi+4], eax
; Line 354
	test	eax, eax
	jne	SHORT $LN11@cms_cb
$LN15@cms_cb:
	pop	edi
; Line 355
	xor	eax, eax
	pop	esi
; Line 366
	ret	0
$LN10@cms_cb:
; Line 360
	mov	eax, esi
	push	DWORD PTR [eax+4]
	push	edi
	call	_CMS_dataFinal
	add	esp, 8
	test	eax, eax
	jle	SHORT $LN15@cms_cb
$LN11@cms_cb:
	pop	edi
; Line 365
	mov	eax, 1
	pop	esi
; Line 366
	ret	0
$LN4@cms_cb:
; Line 346
	mov	eax, 1
; Line 366
	ret	0
	npad	1
$LN17@cms_cb:
	DD	$LN6@cms_cb
	DD	$LN10@cms_cb
	DD	$LN7@cms_cb
	DD	$LN10@cms_cb
_cms_cb	ENDP
_TEXT	ENDS
; Function compile flags: /Ogtpy
;	COMDAT _CMS_ContentInfo_adb
_TEXT	SEGMENT
_CMS_ContentInfo_adb PROC				; COMDAT
; File c:\workpace\openssl\openssl-1.0.2h\crypto\cms\cms_asn1.c
; Line 335
	mov	eax, OFFSET ?internal_adb@?1??CMS_ContentInfo_adb@@9@9
	ret	0
_CMS_ContentInfo_adb ENDP
_TEXT	ENDS
; Function compile flags: /Ogtpy
;	COMDAT _CMS_CompressedData_it
_TEXT	SEGMENT
_CMS_CompressedData_it PROC				; COMDAT
; File c:\workpace\openssl\openssl-1.0.2h\crypto\cms\cms_asn1.c
; Line 321
	mov	eax, OFFSET ?local_it@?1??CMS_CompressedData_it@@9@9
	ret	0
_CMS_CompressedData_it ENDP
_TEXT	ENDS
; Function compile flags: /Ogtpy
;	COMDAT _CMS_AuthenticatedData_it
_TEXT	SEGMENT
_CMS_AuthenticatedData_it PROC				; COMDAT
; File c:\workpace\openssl\openssl-1.0.2h\crypto\cms\cms_asn1.c
; Line 315
	mov	eax, OFFSET ?local_it@?1??CMS_AuthenticatedData_it@@9@9
	ret	0
_CMS_AuthenticatedData_it ENDP
_TEXT	ENDS
; Function compile flags: /Ogtpy
;	COMDAT _CMS_EncryptedData_it
_TEXT	SEGMENT
_CMS_EncryptedData_it PROC				; COMDAT
; File c:\workpace\openssl\openssl-1.0.2h\crypto\cms\cms_asn1.c
; Line 303
	mov	eax, OFFSET ?local_it@?1??CMS_EncryptedData_it@@9@9
	ret	0
_CMS_EncryptedData_it ENDP
_TEXT	ENDS
; Function compile flags: /Ogtpy
;	COMDAT _CMS_DigestedData_it
_TEXT	SEGMENT
_CMS_DigestedData_it PROC				; COMDAT
; File c:\workpace\openssl\openssl-1.0.2h\crypto\cms\cms_asn1.c
; Line 297
	mov	eax, OFFSET ?local_it@?1??CMS_DigestedData_it@@9@9
	ret	0
_CMS_DigestedData_it ENDP
_TEXT	ENDS
; Function compile flags: /Ogtpy
;	COMDAT _CMS_EnvelopedData_it
_TEXT	SEGMENT
_CMS_EnvelopedData_it PROC				; COMDAT
; File c:\workpace\openssl\openssl-1.0.2h\crypto\cms\cms_asn1.c
; Line 290
	mov	eax, OFFSET ?local_it@?1??CMS_EnvelopedData_it@@9@9
	ret	0
_CMS_EnvelopedData_it ENDP
_TEXT	ENDS
; Function compile flags: /Ogtpy
;	COMDAT _cms_ri_cb
_TEXT	SEGMENT
_operation$ = 8						; size = 4
_pval$ = 12						; size = 4
_it$ = 16						; size = 4
_exarg$ = 20						; size = 4
_cms_ri_cb PROC						; COMDAT
; File c:\workpace\openssl\openssl-1.0.2h\crypto\cms\cms_asn1.c
; Line 249
	cmp	DWORD PTR _operation$[esp-4], 2
	jne	SHORT $LN16@cms_ri_cb
; Line 250
	mov	eax, DWORD PTR _pval$[esp-4]
	push	esi
	mov	eax, DWORD PTR [eax]
; Line 251
	mov	ecx, DWORD PTR [eax]
	test	ecx, ecx
	jne	SHORT $LN3@cms_ri_cb
; Line 252
	mov	esi, DWORD PTR [eax+4]
; Line 253
	mov	eax, DWORD PTR [esi+20]
	test	eax, eax
	je	SHORT $LN5@cms_ri_cb
; Line 254
	push	eax
	call	_EVP_PKEY_free
	add	esp, 4
$LN5@cms_ri_cb:
; Line 255
	mov	eax, DWORD PTR [esi+16]
	test	eax, eax
	je	SHORT $LN6@cms_ri_cb
; Line 256
	push	eax
	call	_X509_free
	add	esp, 4
$LN6@cms_ri_cb:
; Line 257
	mov	eax, DWORD PTR [esi+24]
	test	eax, eax
	je	SHORT $LN14@cms_ri_cb
; Line 258
	push	eax
	call	_EVP_PKEY_CTX_free
	add	esp, 4
; Line 273
	mov	eax, 1
	pop	esi
; Line 274
	ret	0
$LN3@cms_ri_cb:
; Line 259
	cmp	ecx, 2
	je	SHORT $LN20@cms_ri_cb
; Line 265
	cmp	ecx, 3
	jne	SHORT $LN14@cms_ri_cb
$LN20@cms_ri_cb:
; Line 266
	mov	esi, DWORD PTR [eax+4]
; Line 267
	mov	eax, DWORD PTR [esi+16]
	test	eax, eax
	je	SHORT $LN14@cms_ri_cb
; Line 268
	push	DWORD PTR [esi+20]
	push	eax
	call	_OPENSSL_cleanse
; Line 269
	push	DWORD PTR [esi+16]
	call	_CRYPTO_free
	add	esp, 12					; 0000000cH
$LN14@cms_ri_cb:
	pop	esi
$LN16@cms_ri_cb:
; Line 273
	mov	eax, 1
; Line 274
	ret	0
_cms_ri_cb ENDP
_TEXT	ENDS
; Function compile flags: /Ogtpy
;	COMDAT _CMS_OtherRecipientInfo_it
_TEXT	SEGMENT
_CMS_OtherRecipientInfo_it PROC				; COMDAT
; File c:\workpace\openssl\openssl-1.0.2h\crypto\cms\cms_asn1.c
; Line 243
	mov	eax, OFFSET ?local_it@?1??CMS_OtherRecipientInfo_it@@9@9
	ret	0
_CMS_OtherRecipientInfo_it ENDP
_TEXT	ENDS
; Function compile flags: /Ogtpy
;	COMDAT _CMS_KEKRecipientInfo_it
_TEXT	SEGMENT
_CMS_KEKRecipientInfo_it PROC				; COMDAT
; File c:\workpace\openssl\openssl-1.0.2h\crypto\cms\cms_asn1.c
; Line 231
	mov	eax, OFFSET ?local_it@?1??CMS_KEKRecipientInfo_it@@9@9
	ret	0
_CMS_KEKRecipientInfo_it ENDP
_TEXT	ENDS
; Function compile flags: /Ogtpy
;	COMDAT _CMS_KEKIdentifier_it
_TEXT	SEGMENT
_CMS_KEKIdentifier_it PROC				; COMDAT
; File c:\workpace\openssl\openssl-1.0.2h\crypto\cms\cms_asn1.c
; Line 224
	mov	eax, OFFSET ?local_it@?1??CMS_KEKIdentifier_it@@9@9
	ret	0
_CMS_KEKIdentifier_it ENDP
_TEXT	ENDS
; Function compile flags: /Ogtpy
;	COMDAT _CMS_KeyAgreeRecipientInfo_it
_TEXT	SEGMENT
_CMS_KeyAgreeRecipientInfo_it PROC			; COMDAT
; File c:\workpace\openssl\openssl-1.0.2h\crypto\cms\cms_asn1.c
; Line 218
	mov	eax, OFFSET ?local_it@?1??CMS_KeyAgreeRecipientInfo_it@@9@9
	ret	0
_CMS_KeyAgreeRecipientInfo_it ENDP
_TEXT	ENDS
; Function compile flags: /Ogtpy
;	COMDAT _cms_kari_cb
_TEXT	SEGMENT
_operation$ = 8						; size = 4
_pval$ = 12						; size = 4
_it$ = 16						; size = 4
_exarg$ = 20						; size = 4
_cms_kari_cb PROC					; COMDAT
; File c:\workpace\openssl\openssl-1.0.2h\crypto\cms\cms_asn1.c
; Line 199
	mov	eax, DWORD PTR _pval$[esp-4]
	push	edi
	mov	edi, DWORD PTR [eax]
; Line 200
	mov	eax, DWORD PTR _operation$[esp]
	cmp	eax, 1
	jne	SHORT $LN2@cms_kari_c
; Line 201
	push	esi
	lea	esi, DWORD PTR [edi+24]
	push	esi
	call	_EVP_CIPHER_CTX_init
; Line 202
	push	1
	push	esi
	call	_EVP_CIPHER_CTX_set_flags
	add	esp, 12					; 0000000cH
; Line 203
	mov	DWORD PTR [edi+20], 0
; Line 209
	mov	eax, 1
	pop	esi
	pop	edi
; Line 210
	ret	0
$LN2@cms_kari_c:
; Line 204
	cmp	eax, 3
	jne	SHORT $LN7@cms_kari_c
; Line 205
	mov	eax, DWORD PTR [edi+20]
	test	eax, eax
	je	SHORT $LN5@cms_kari_c
; Line 206
	push	eax
	call	_EVP_PKEY_CTX_free
	add	esp, 4
$LN5@cms_kari_c:
; Line 207
	lea	eax, DWORD PTR [edi+24]
	push	eax
	call	_EVP_CIPHER_CTX_cleanup
	add	esp, 4
$LN7@cms_kari_c:
; Line 209
	mov	eax, 1
	pop	edi
; Line 210
	ret	0
_cms_kari_cb ENDP
_TEXT	ENDS
; Function compile flags: /Ogtpy
;	COMDAT _CMS_OriginatorIdentifierOrKey_it
_TEXT	SEGMENT
_CMS_OriginatorIdentifierOrKey_it PROC			; COMDAT
; File c:\workpace\openssl\openssl-1.0.2h\crypto\cms\cms_asn1.c
; Line 194
	mov	eax, OFFSET ?local_it@?1??CMS_OriginatorIdentifierOrKey_it@@9@9
	ret	0
_CMS_OriginatorIdentifierOrKey_it ENDP
_TEXT	ENDS
; Function compile flags: /Ogtpy
;	COMDAT _CMS_OriginatorPublicKey_it
_TEXT	SEGMENT
_CMS_OriginatorPublicKey_it PROC			; COMDAT
; File c:\workpace\openssl\openssl-1.0.2h\crypto\cms\cms_asn1.c
; Line 188
	mov	eax, OFFSET ?local_it@?1??CMS_OriginatorPublicKey_it@@9@9
	ret	0
_CMS_OriginatorPublicKey_it ENDP
_TEXT	ENDS
; Function compile flags: /Ogtpy
;	COMDAT _CMS_RecipientEncryptedKey_it
_TEXT	SEGMENT
_CMS_RecipientEncryptedKey_it PROC			; COMDAT
; File c:\workpace\openssl\openssl-1.0.2h\crypto\cms\cms_asn1.c
; Line 183
	mov	eax, OFFSET ?local_it@?1??CMS_RecipientEncryptedKey_it@@9@9
	ret	0
_CMS_RecipientEncryptedKey_it ENDP
_TEXT	ENDS
; Function compile flags: /Ogtpy
;	COMDAT _cms_rek_cb
_TEXT	SEGMENT
_operation$ = 8						; size = 4
_pval$ = 12						; size = 4
_it$ = 16						; size = 4
_exarg$ = 20						; size = 4
_cms_rek_cb PROC					; COMDAT
; File c:\workpace\openssl\openssl-1.0.2h\crypto\cms\cms_asn1.c
; Line 173
	cmp	DWORD PTR _operation$[esp-4], 3
	mov	eax, DWORD PTR _pval$[esp-4]
	mov	eax, DWORD PTR [eax]
	jne	SHORT $LN6@cms_rek_cb
; Line 174
	mov	eax, DWORD PTR [eax+8]
	test	eax, eax
	je	SHORT $LN6@cms_rek_cb
; Line 175
	push	eax
	call	_EVP_PKEY_free
	add	esp, 4
$LN6@cms_rek_cb:
; Line 177
	mov	eax, 1
; Line 178
	ret	0
_cms_rek_cb ENDP
_TEXT	ENDS
; Function compile flags: /Ogtpy
;	COMDAT _CMS_KeyAgreeRecipientIdentifier_it
_TEXT	SEGMENT
_CMS_KeyAgreeRecipientIdentifier_it PROC		; COMDAT
; File c:\workpace\openssl\openssl-1.0.2h\crypto\cms\cms_asn1.c
; Line 167
	mov	eax, OFFSET ?local_it@?1??CMS_KeyAgreeRecipientIdentifier_it@@9@9
	ret	0
_CMS_KeyAgreeRecipientIdentifier_it ENDP
_TEXT	ENDS
; Function compile flags: /Ogtpy
;	COMDAT _CMS_RecipientKeyIdentifier_it
_TEXT	SEGMENT
_CMS_RecipientKeyIdentifier_it PROC			; COMDAT
; File c:\workpace\openssl\openssl-1.0.2h\crypto\cms\cms_asn1.c
; Line 162
	mov	eax, OFFSET ?local_it@?1??CMS_RecipientKeyIdentifier_it@@9@9
	ret	0
_CMS_RecipientKeyIdentifier_it ENDP
_TEXT	ENDS
; Function compile flags: /Ogtpy
;	COMDAT _CMS_OtherKeyAttribute_it
_TEXT	SEGMENT
_CMS_OtherKeyAttribute_it PROC				; COMDAT
; File c:\workpace\openssl\openssl-1.0.2h\crypto\cms\cms_asn1.c
; Line 156
	mov	eax, OFFSET ?local_it@?1??CMS_OtherKeyAttribute_it@@9@9
	ret	0
_CMS_OtherKeyAttribute_it ENDP
_TEXT	ENDS
; Function compile flags: /Ogtpy
;	COMDAT _CMS_KeyTransRecipientInfo_it
_TEXT	SEGMENT
_CMS_KeyTransRecipientInfo_it PROC			; COMDAT
; File c:\workpace\openssl\openssl-1.0.2h\crypto\cms\cms_asn1.c
; Line 151
	mov	eax, OFFSET ?local_it@?1??CMS_KeyTransRecipientInfo_it@@9@9
	ret	0
_CMS_KeyTransRecipientInfo_it ENDP
_TEXT	ENDS
; Function compile flags: /Ogtpy
;	COMDAT _CMS_EncryptedContentInfo_it
_TEXT	SEGMENT
_CMS_EncryptedContentInfo_it PROC			; COMDAT
; File c:\workpace\openssl\openssl-1.0.2h\crypto\cms\cms_asn1.c
; Line 144
	mov	eax, OFFSET ?local_it@?1??CMS_EncryptedContentInfo_it@@9@9
	ret	0
_CMS_EncryptedContentInfo_it ENDP
_TEXT	ENDS
; Function compile flags: /Ogtpy
;	COMDAT _CMS_OriginatorInfo_it
_TEXT	SEGMENT
_CMS_OriginatorInfo_it PROC				; COMDAT
; File c:\workpace\openssl\openssl-1.0.2h\crypto\cms\cms_asn1.c
; Line 138
	mov	eax, OFFSET ?local_it@?1??CMS_OriginatorInfo_it@@9@9
	ret	0
_CMS_OriginatorInfo_it ENDP
_TEXT	ENDS
; Function compile flags: /Ogtpy
;	COMDAT _CMS_SignedData_it
_TEXT	SEGMENT
_CMS_SignedData_it PROC					; COMDAT
; File c:\workpace\openssl\openssl-1.0.2h\crypto\cms\cms_asn1.c
; Line 133
	mov	eax, OFFSET ?local_it@?1??CMS_SignedData_it@@9@9
	ret	0
_CMS_SignedData_it ENDP
_TEXT	ENDS
; Function compile flags: /Ogtpy
;	COMDAT _CMS_RevocationInfoChoice_it
_TEXT	SEGMENT
_CMS_RevocationInfoChoice_it PROC			; COMDAT
; File c:\workpace\openssl\openssl-1.0.2h\crypto\cms\cms_asn1.c
; Line 124
	mov	eax, OFFSET ?local_it@?1??CMS_RevocationInfoChoice_it@@9@9
	ret	0
_CMS_RevocationInfoChoice_it ENDP
_TEXT	ENDS
; Function compile flags: /Ogtpy
;	COMDAT _CMS_OtherRevocationInfoFormat_it
_TEXT	SEGMENT
_CMS_OtherRevocationInfoFormat_it PROC			; COMDAT
; File c:\workpace\openssl\openssl-1.0.2h\crypto\cms\cms_asn1.c
; Line 119
	mov	eax, OFFSET ?local_it@?1??CMS_OtherRevocationInfoFormat_it@@9@9
	ret	0
_CMS_OtherRevocationInfoFormat_it ENDP
_TEXT	ENDS
; Function compile flags: /Ogtpy
;	COMDAT _cms_si_cb
_TEXT	SEGMENT
_operation$ = 8						; size = 4
_pval$ = 12						; size = 4
_it$ = 16						; size = 4
_exarg$ = 20						; size = 4
_cms_si_cb PROC						; COMDAT
; File c:\workpace\openssl\openssl-1.0.2h\crypto\cms\cms_asn1.c
; Line 94
	cmp	DWORD PTR _operation$[esp-4], 3
	jne	SHORT $LN8@cms_si_cb
; Line 95
	mov	eax, DWORD PTR _pval$[esp-4]
	push	esi
	mov	esi, DWORD PTR [eax]
; Line 96
	mov	eax, DWORD PTR [esi+32]
	test	eax, eax
	je	SHORT $LN3@cms_si_cb
; Line 97
	push	eax
	call	_EVP_PKEY_free
	add	esp, 4
$LN3@cms_si_cb:
; Line 98
	mov	eax, DWORD PTR [esi+28]
	test	eax, eax
	je	SHORT $LN4@cms_si_cb
; Line 99
	push	eax
	call	_X509_free
	add	esp, 4
$LN4@cms_si_cb:
; Line 100
	cmp	DWORD PTR [esi+60], 0
	je	SHORT $LN7@cms_si_cb
; Line 101
	lea	eax, DWORD PTR [esi+36]
	push	eax
	call	_EVP_MD_CTX_cleanup
	add	esp, 4
$LN7@cms_si_cb:
; Line 103
	mov	eax, 1
	pop	esi
; Line 104
	ret	0
$LN8@cms_si_cb:
; Line 103
	mov	eax, 1
; Line 104
	ret	0
_cms_si_cb ENDP
_TEXT	ENDS
; Function compile flags: /Ogtpy
;	COMDAT _CMS_EncapsulatedContentInfo_it
_TEXT	SEGMENT
_CMS_EncapsulatedContentInfo_it PROC			; COMDAT
; File c:\workpace\openssl\openssl-1.0.2h\crypto\cms\cms_asn1.c
; Line 88
	mov	eax, OFFSET ?local_it@?1??CMS_EncapsulatedContentInfo_it@@9@9
	ret	0
_CMS_EncapsulatedContentInfo_it ENDP
_TEXT	ENDS
; Function compile flags: /Ogtpy
;	COMDAT _CMS_SignerIdentifier_it
_TEXT	SEGMENT
_CMS_SignerIdentifier_it PROC				; COMDAT
; File c:\workpace\openssl\openssl-1.0.2h\crypto\cms\cms_asn1.c
; Line 83
	mov	eax, OFFSET ?local_it@?1??CMS_SignerIdentifier_it@@9@9
	ret	0
_CMS_SignerIdentifier_it ENDP
_TEXT	ENDS
; Function compile flags: /Ogtpy
;	COMDAT _CMS_CertificateChoices_it
_TEXT	SEGMENT
_CMS_CertificateChoices_it PROC				; COMDAT
; File c:\workpace\openssl\openssl-1.0.2h\crypto\cms\cms_asn1.c
; Line 78
	mov	eax, OFFSET ?local_it@?1??CMS_CertificateChoices_it@@9@9
	ret	0
_CMS_CertificateChoices_it ENDP
_TEXT	ENDS
; Function compile flags: /Ogtpy
;	COMDAT _CMS_OtherCertificateFormat_it
_TEXT	SEGMENT
_CMS_OtherCertificateFormat_it PROC			; COMDAT
; File c:\workpace\openssl\openssl-1.0.2h\crypto\cms\cms_asn1.c
; Line 70
	mov	eax, OFFSET ?local_it@?1??CMS_OtherCertificateFormat_it@@9@9
	ret	0
_CMS_OtherCertificateFormat_it ENDP
_TEXT	ENDS
; Function compile flags: /Ogtpy
;	COMDAT _CMS_PasswordRecipientInfo_it
_TEXT	SEGMENT
_CMS_PasswordRecipientInfo_it PROC			; COMDAT
; File c:\workpace\openssl\openssl-1.0.2h\crypto\cms\cms_asn1.c
; Line 238
	mov	eax, OFFSET ?local_it@?1??CMS_PasswordRecipientInfo_it@@9@9
	ret	0
_CMS_PasswordRecipientInfo_it ENDP
_TEXT	ENDS
; Function compile flags: /Ogtpy
;	COMDAT _CMS_RecipientInfo_it
_TEXT	SEGMENT
_CMS_RecipientInfo_it PROC				; COMDAT
; File c:\workpace\openssl\openssl-1.0.2h\crypto\cms\cms_asn1.c
; Line 282
	mov	eax, OFFSET ?local_it@?1??CMS_RecipientInfo_it@@9@9
	ret	0
_CMS_RecipientInfo_it ENDP
_TEXT	ENDS
; Function compile flags: /Ogtpy
;	COMDAT _CMS_Attributes_Verify_it
_TEXT	SEGMENT
_CMS_Attributes_Verify_it PROC				; COMDAT
; File c:\workpace\openssl\openssl-1.0.2h\crypto\cms\cms_asn1.c
; Line 392
	mov	eax, OFFSET ?local_it@?1??CMS_Attributes_Verify_it@@9@9
	ret	0
_CMS_Attributes_Verify_it ENDP
_TEXT	ENDS
; Function compile flags: /Ogtpy
;	COMDAT _CMS_Attributes_Sign_it
_TEXT	SEGMENT
_CMS_Attributes_Sign_it PROC				; COMDAT
; File c:\workpace\openssl\openssl-1.0.2h\crypto\cms\cms_asn1.c
; Line 382
	mov	eax, OFFSET ?local_it@?1??CMS_Attributes_Sign_it@@9@9
	ret	0
_CMS_Attributes_Sign_it ENDP
_TEXT	ENDS
; Function compile flags: /Ogtpy
;	COMDAT _CMS_IssuerAndSerialNumber_it
_TEXT	SEGMENT
_CMS_IssuerAndSerialNumber_it PROC			; COMDAT
; File c:\workpace\openssl\openssl-1.0.2h\crypto\cms\cms_asn1.c
; Line 65
	mov	eax, OFFSET ?local_it@?1??CMS_IssuerAndSerialNumber_it@@9@9
	ret	0
_CMS_IssuerAndSerialNumber_it ENDP
_TEXT	ENDS
; Function compile flags: /Ogtpy
;	COMDAT _CMS_SignerInfo_it
_TEXT	SEGMENT
_CMS_SignerInfo_it PROC					; COMDAT
; File c:\workpace\openssl\openssl-1.0.2h\crypto\cms\cms_asn1.c
; Line 114
	mov	eax, OFFSET ?local_it@?1??CMS_SignerInfo_it@@9@9
	ret	0
_CMS_SignerInfo_it ENDP
_TEXT	ENDS
; Function compile flags: /Ogtpy
;	COMDAT _CMS_SharedInfo_encode
_TEXT	SEGMENT
_ecsi$ = -28						; size = 12
_oklen$ = -16						; size = 16
_pder$ = 8						; size = 4
_kekalg$ = 12						; size = 4
_ukm$ = 16						; size = 4
_kl$ = 20						; size = 4
_keylen$ = 20						; size = 4
_CMS_SharedInfo_encode PROC				; COMDAT
; File c:\workpace\openssl\openssl-1.0.2h\crypto\cms\cms_asn1.c
; Line 433
	mov	eax, 28					; 0000001cH
	call	__chkstk
; Line 445
	mov	ecx, DWORD PTR _keylen$[esp+24]
	shl	ecx, 3
; Line 446
	mov	eax, ecx
; Line 449
	mov	BYTE PTR _kl$[esp+27], cl
	sar	eax, 24					; 00000018H
	mov	BYTE PTR _kl$[esp+24], al
	mov	eax, ecx
	sar	eax, 16					; 00000010H
	mov	BYTE PTR _kl$[esp+25], al
	mov	eax, ecx
	sar	eax, 8
	mov	BYTE PTR _kl$[esp+26], al
; Line 451
	lea	eax, DWORD PTR _kl$[esp+24]
	mov	DWORD PTR _oklen$[esp+36], eax
; Line 454
	mov	eax, DWORD PTR _kekalg$[esp+24]
	mov	DWORD PTR _ecsi$[esp+28], eax
; Line 455
	mov	eax, DWORD PTR _ukm$[esp+24]
	mov	DWORD PTR _ecsi$[esp+32], eax
; Line 456
	lea	eax, DWORD PTR _oklen$[esp+28]
; Line 458
	push	OFFSET ?local_it@?1??CMS_SharedInfo_it@@9@9
	push	DWORD PTR _pder$[esp+28]
	mov	DWORD PTR _ecsi$[esp+44], eax
	lea	eax, DWORD PTR _ecsi$[esp+36]
	push	eax
	mov	DWORD PTR _oklen$[esp+40], 4
	mov	DWORD PTR _oklen$[esp+44], 4
	mov	DWORD PTR _oklen$[esp+52], 0
	call	_ASN1_item_i2d
; Line 459
	add	esp, 40					; 00000028H
	ret	0
_CMS_SharedInfo_encode ENDP
_TEXT	ENDS
; Function compile flags: /Ogtpy
;	COMDAT _CMS_ReceiptRequest_it
_TEXT	SEGMENT
_CMS_ReceiptRequest_it PROC				; COMDAT
; File c:\workpace\openssl\openssl-1.0.2h\crypto\cms\cms_asn1.c
; Line 405
	mov	eax, OFFSET ?local_it@?1??CMS_ReceiptRequest_it@@9@9
	ret	0
_CMS_ReceiptRequest_it ENDP
_TEXT	ENDS
; Function compile flags: /Ogtpy
;	COMDAT _CMS_ContentInfo_it
_TEXT	SEGMENT
_CMS_ContentInfo_it PROC				; COMDAT
; File c:\workpace\openssl\openssl-1.0.2h\crypto\cms\cms_asn1.c
; Line 371
	mov	eax, OFFSET ?local_it@?1??CMS_ContentInfo_it@@9@9
	ret	0
_CMS_ContentInfo_it ENDP
_TEXT	ENDS
END
