; Listing generated by Microsoft (R) Optimizing Compiler Version 19.00.23918.0 

	TITLE	C:\workpace\openssl\openssl-1.0.2h\ssl\d1_srtp.c
	.686P
	.XMM
	include listing.inc
	.model	flat

INCLUDELIB MSVCRT
INCLUDELIB OLDNAMES

PUBLIC	??_C@_0BH@PNHGJJEH@SRTP_AES128_CM_SHA1_80?$AA@	; `string'
PUBLIC	??_C@_0BH@MDBFBECE@SRTP_AES128_CM_SHA1_32?$AA@	; `string'
;	COMDAT ??_C@_0BH@MDBFBECE@SRTP_AES128_CM_SHA1_32?$AA@
CONST	SEGMENT
??_C@_0BH@MDBFBECE@SRTP_AES128_CM_SHA1_32?$AA@ DB 'SRTP_AES128_CM_SHA1_32'
	DB	00H						; `string'
CONST	ENDS
;	COMDAT ??_C@_0BH@PNHGJJEH@SRTP_AES128_CM_SHA1_80?$AA@
CONST	SEGMENT
??_C@_0BH@PNHGJJEH@SRTP_AES128_CM_SHA1_80?$AA@ DB 'SRTP_AES128_CM_SHA1_80'
	DB	00H						; `string'
CONST	ENDS
_DATA	SEGMENT
_srtp_known_profiles DD FLAT:??_C@_0BH@PNHGJJEH@SRTP_AES128_CM_SHA1_80?$AA@
	DD	01H
	DD	FLAT:??_C@_0BH@MDBFBECE@SRTP_AES128_CM_SHA1_32?$AA@
	DD	02H
	DD	00H
	ORG $+4
_DATA	ENDS
PUBLIC	_SSL_CTX_set_tlsext_use_srtp
PUBLIC	_SSL_set_tlsext_use_srtp
PUBLIC	_SSL_get_srtp_profiles
PUBLIC	_SSL_get_selected_srtp_profile
PUBLIC	_ssl_add_clienthello_use_srtp_ext
PUBLIC	_ssl_parse_clienthello_use_srtp_ext
PUBLIC	_ssl_add_serverhello_use_srtp_ext
PUBLIC	_ssl_parse_serverhello_use_srtp_ext
PUBLIC	??_C@_0BA@MMBNNOIE@?4?2ssl?2d1_srtp?4c?$AA@	; `string'
EXTRN	_sk_num:PROC
EXTRN	_sk_value:PROC
EXTRN	_sk_new_null:PROC
EXTRN	_sk_free:PROC
EXTRN	_sk_find:PROC
EXTRN	_sk_push:PROC
EXTRN	__imp__strchr:PROC
EXTRN	__imp__strncmp:PROC
EXTRN	_ERR_put_error:PROC
EXTRN	__chkstk:PROC
;	COMDAT ??_C@_0BA@MMBNNOIE@?4?2ssl?2d1_srtp?4c?$AA@
CONST	SEGMENT
??_C@_0BA@MMBNNOIE@?4?2ssl?2d1_srtp?4c?$AA@ DB '.\ssl\d1_srtp.c', 00H ; `string'
CONST	ENDS
; Function compile flags: /Ogtpy
;	COMDAT _ssl_ctx_make_profiles
_TEXT	SEGMENT
_col$1$ = -4						; size = 4
_profiles$1$ = 8					; size = 4
_profiles_string$ = 8					; size = 4
_out$ = 12						; size = 4
_ssl_ctx_make_profiles PROC				; COMDAT
; File c:\workpace\openssl\openssl-1.0.2h\ssl\d1_srtp.c
; Line 166
	mov	eax, 4
	call	__chkstk
	push	ebx
; Line 170
	mov	ebx, DWORD PTR _profiles_string$[esp+4]
	push	ebp
; Line 174
	call	_sk_new_null
	mov	ebp, eax
	mov	DWORD PTR _profiles$1$[esp+8], ebp
	test	ebp, ebp
	jne	SHORT $LN54@ssl_ctx_ma
; Line 175
	push	176					; 000000b0H
	push	OFFSET ??_C@_0BA@MMBNNOIE@?4?2ssl?2d1_srtp?4c?$AA@
	push	362					; 0000016aH
	push	309					; 00000135H
	push	20					; 00000014H
	call	_ERR_put_error
	add	esp, 20					; 00000014H
; Line 177
	lea	eax, DWORD PTR [ebp+1]
	pop	ebp
	pop	ebx
; Line 207
	pop	ecx
	ret	0
$LN54@ssl_ctx_ma:
	push	esi
	push	edi
$LL4@ssl_ctx_ma:
; Line 181
	push	58					; 0000003aH
	push	ebx
	call	DWORD PTR __imp__strchr
	add	esp, 8
	mov	DWORD PTR _col$1$[esp+20], eax
; Line 183
	test	eax, eax
	je	SHORT $LN11@ssl_ctx_ma
	mov	esi, eax
	sub	esi, ebx
	jmp	SHORT $LN12@ssl_ctx_ma
$LN11@ssl_ctx_ma:
	mov	esi, ebx
	lea	ecx, DWORD PTR [esi+1]
$LL41@ssl_ctx_ma:
	mov	al, BYTE PTR [esi]
	inc	esi
	test	al, al
	jne	SHORT $LL41@ssl_ctx_ma
	sub	esi, ecx
$LN12@ssl_ctx_ma:
; Line 152
	cmp	DWORD PTR _srtp_known_profiles, 0
	mov	edi, OFFSET _srtp_known_profiles
	je	SHORT $LN6@ssl_ctx_ma
	npad	4
$LL14@ssl_ctx_ma:
; Line 153
	mov	edx, DWORD PTR [edi]
	mov	eax, edx
	lea	ebp, DWORD PTR [eax+1]
$LL42@ssl_ctx_ma:
	mov	cl, BYTE PTR [eax]
	inc	eax
	test	cl, cl
	jne	SHORT $LL42@ssl_ctx_ma
	sub	eax, ebp
	cmp	esi, eax
	jne	SHORT $LN16@ssl_ctx_ma
	push	esi
	push	ebx
	push	edx
	call	DWORD PTR __imp__strncmp
	add	esp, 12					; 0000000cH
	test	eax, eax
	je	SHORT $LN20@ssl_ctx_ma
$LN16@ssl_ctx_ma:
; Line 158
	add	edi, 8
	cmp	DWORD PTR [edi], 0
	jne	SHORT $LL14@ssl_ctx_ma
	mov	ebp, DWORD PTR _profiles$1$[esp+16]
$LN6@ssl_ctx_ma:
; Line 194
	push	195					; 000000c3H
	push	OFFSET ??_C@_0BA@MMBNNOIE@?4?2ssl?2d1_srtp?4c?$AA@
	push	364					; 0000016cH
$LN60@ssl_ctx_ma:
	push	309					; 00000135H
	push	20					; 00000014H
	call	_ERR_put_error
; Line 196
	push	ebp
	call	_sk_free
	add	esp, 24					; 00000018H
; Line 197
	mov	eax, 1
	pop	edi
	pop	esi
	pop	ebp
	pop	ebx
; Line 207
	pop	ecx
	ret	0
$LN20@ssl_ctx_ma:
; Line 185
	mov	ebp, DWORD PTR _profiles$1$[esp+16]
	push	edi
	push	ebp
	call	_sk_find
	add	esp, 8
	test	eax, eax
	jns	SHORT $LN21@ssl_ctx_ma
; Line 192
	push	edi
	push	ebp
	call	_sk_push
; Line 200
	mov	ebx, DWORD PTR _col$1$[esp+28]
	add	esp, 8
	test	ebx, ebx
	je	SHORT $LN22@ssl_ctx_ma
; Line 201
	inc	ebx
; Line 153
	jmp	$LL4@ssl_ctx_ma
$LN22@ssl_ctx_ma:
; Line 204
	mov	eax, DWORD PTR _out$[esp+16]
	pop	edi
	pop	esi
	mov	DWORD PTR [eax], ebp
; Line 206
	xor	eax, eax
	pop	ebp
	pop	ebx
; Line 207
	pop	ecx
	ret	0
$LN21@ssl_ctx_ma:
; Line 186
	push	187					; 000000bbH
	push	OFFSET ??_C@_0BA@MMBNNOIE@?4?2ssl?2d1_srtp?4c?$AA@
	push	353					; 00000161H
; Line 189
	jmp	SHORT $LN60@ssl_ctx_ma
_ssl_ctx_make_profiles ENDP
_TEXT	ENDS
; Function compile flags: /Ogtpy
;	COMDAT _find_profile_by_name
_TEXT	SEGMENT
_profile_name$ = 8					; size = 4
_pptr$ = 12						; size = 4
_len$ = 16						; size = 4
_find_profile_by_name PROC				; COMDAT
; File c:\workpace\openssl\openssl-1.0.2h\ssl\d1_srtp.c
; Line 152
	cmp	DWORD PTR _srtp_known_profiles, 0
	push	ebx
	push	ebp
	push	esi
	push	edi
	mov	esi, OFFSET _srtp_known_profiles
	je	SHORT $LN11@find_profi
	mov	edi, DWORD PTR _len$[esp+12]
	mov	ebp, DWORD PTR _profile_name$[esp+12]
	npad	6
$LL2@find_profi:
; Line 153
	mov	edx, DWORD PTR [esi]
	mov	eax, edx
	lea	ebx, DWORD PTR [eax+1]
$LL12@find_profi:
	mov	cl, BYTE PTR [eax]
	inc	eax
	test	cl, cl
	jne	SHORT $LL12@find_profi
	sub	eax, ebx
	cmp	edi, eax
	jne	SHORT $LN4@find_profi
	push	edi
	push	ebp
	push	edx
	call	DWORD PTR __imp__strncmp
	add	esp, 12					; 0000000cH
	test	eax, eax
	je	SHORT $LN7@find_profi
$LN4@find_profi:
; Line 158
	add	esi, 8
	cmp	DWORD PTR [esi], 0
	jne	SHORT $LL2@find_profi
$LN11@find_profi:
	pop	edi
	pop	esi
	pop	ebp
; Line 161
	mov	eax, 1
	pop	ebx
; Line 162
	ret	0
$LN7@find_profi:
; Line 154
	mov	eax, DWORD PTR _pptr$[esp+12]
	pop	edi
	mov	DWORD PTR [eax], esi
; Line 155
	xor	eax, eax
	pop	esi
	pop	ebp
	pop	ebx
; Line 162
	ret	0
_find_profile_by_name ENDP
_TEXT	ENDS
; Function compile flags: /Ogtpy
;	COMDAT _ssl_parse_serverhello_use_srtp_ext
_TEXT	SEGMENT
_s$ = 8							; size = 4
_d$ = 12						; size = 4
_len$ = 16						; size = 4
_al$ = 20						; size = 4
_ssl_parse_serverhello_use_srtp_ext PROC		; COMDAT
; File c:\workpace\openssl\openssl-1.0.2h\ssl\d1_srtp.c
; Line 395
	cmp	DWORD PTR _len$[esp-4], 5
	je	SHORT $LN5@ssl_parse_
; Line 396
	push	397					; 0000018dH
$LN29@ssl_parse_:
	push	OFFSET ??_C@_0BA@MMBNNOIE@?4?2ssl?2d1_srtp?4c?$AA@
	push	353					; 00000161H
	push	311					; 00000137H
	push	20					; 00000014H
	call	_ERR_put_error
; Line 398
	mov	eax, DWORD PTR _al$[esp+16]
	add	esp, 20					; 00000014H
	mov	DWORD PTR [eax], 50			; 00000032H
; Line 399
	mov	eax, 1
; Line 446
	ret	0
$LN5@ssl_parse_:
; Line 402
	mov	edx, DWORD PTR _d$[esp-4]
	movzx	ecx, BYTE PTR [edx]
	movzx	eax, BYTE PTR [edx+1]
	shl	ecx, 8
	or	ecx, eax
; Line 403
	cmp	ecx, 2
	je	SHORT $LN6@ssl_parse_
; Line 404
	push	405					; 00000195H
; Line 407
	jmp	SHORT $LN29@ssl_parse_
$LN6@ssl_parse_:
; Line 410
	movzx	eax, BYTE PTR [edx+3]
	push	ebx
	movzx	ebx, BYTE PTR [edx+2]
	shl	ebx, 8
	or	ebx, eax
; Line 411
	cmp	BYTE PTR [edx+4], 0
	je	SHORT $LN7@ssl_parse_
; Line 412
	push	413					; 0000019dH
	push	OFFSET ??_C@_0BA@MMBNNOIE@?4?2ssl?2d1_srtp?4c?$AA@
	push	352					; 00000160H
	push	311					; 00000137H
	push	20					; 00000014H
	call	_ERR_put_error
; Line 414
	mov	eax, DWORD PTR _al$[esp+20]
	add	esp, 20					; 00000014H
	mov	DWORD PTR [eax], 47			; 0000002fH
; Line 415
	mov	eax, 1
	pop	ebx
; Line 446
	ret	0
$LN7@ssl_parse_:
	push	ebp
; Line 221
	mov	ebp, DWORD PTR _s$[esp+4]
	push	edi
	test	ebp, ebp
	je	$LN22@ssl_parse_
; Line 222
	mov	edi, DWORD PTR [ebp+380]
	test	edi, edi
	jne	SHORT $LN28@ssl_parse_
; Line 224
	mov	edi, DWORD PTR [ebp+228]
	test	edi, edi
	je	$LN22@ssl_parse_
	mov	edi, DWORD PTR [edi+436]
	test	edi, edi
	je	SHORT $LN22@ssl_parse_
$LN28@ssl_parse_:
	push	esi
; Line 432
	push	edi
	xor	esi, esi
	call	_sk_num
	add	esp, 4
	test	eax, eax
	jle	SHORT $LN3@ssl_parse_
$LL4@ssl_parse_:
; Line 433
	push	esi
	push	edi
	call	_sk_value
	add	esp, 8
; Line 435
	cmp	DWORD PTR [eax+4], ebx
	je	SHORT $LN18@ssl_parse_
; Line 432
	push	edi
	inc	esi
	call	_sk_num
	add	esp, 4
	cmp	esi, eax
	jl	SHORT $LL4@ssl_parse_
$LN3@ssl_parse_:
; Line 442
	push	443					; 000001bbH
	push	OFFSET ??_C@_0BA@MMBNNOIE@?4?2ssl?2d1_srtp?4c?$AA@
	push	353					; 00000161H
	push	311					; 00000137H
	push	20					; 00000014H
	call	_ERR_put_error
; Line 444
	mov	eax, DWORD PTR _al$[esp+32]
	add	esp, 20					; 00000014H
	pop	esi
	pop	edi
	pop	ebp
	mov	DWORD PTR [eax], 50			; 00000032H
; Line 445
	mov	eax, 1
	pop	ebx
; Line 446
	ret	0
$LN18@ssl_parse_:
; Line 436
	mov	DWORD PTR [ebp+384], eax
; Line 437
	mov	eax, DWORD PTR _al$[esp+12]
	pop	esi
	pop	edi
	pop	ebp
	mov	DWORD PTR [eax], 0
; Line 438
	xor	eax, eax
	pop	ebx
; Line 446
	ret	0
$LN22@ssl_parse_:
; Line 422
	push	423					; 000001a7H
	push	OFFSET ??_C@_0BA@MMBNNOIE@?4?2ssl?2d1_srtp?4c?$AA@
	push	359					; 00000167H
	push	311					; 00000137H
	push	20					; 00000014H
	call	_ERR_put_error
; Line 424
	mov	eax, DWORD PTR _al$[esp+28]
	add	esp, 20					; 00000014H
	pop	edi
	pop	ebp
	mov	DWORD PTR [eax], 50			; 00000032H
; Line 425
	mov	eax, 1
	pop	ebx
; Line 446
	ret	0
_ssl_parse_serverhello_use_srtp_ext ENDP
_TEXT	ENDS
; Function compile flags: /Ogtpy
;	COMDAT _ssl_add_serverhello_use_srtp_ext
_TEXT	SEGMENT
_s$ = 8							; size = 4
_p$ = 12						; size = 4
_len$ = 16						; size = 4
_maxlen$ = 20						; size = 4
_ssl_add_serverhello_use_srtp_ext PROC			; COMDAT
; File c:\workpace\openssl\openssl-1.0.2h\ssl\d1_srtp.c
; Line 364
	mov	ecx, DWORD PTR _p$[esp-4]
	test	ecx, ecx
	je	SHORT $LN2@ssl_add_se
; Line 365
	cmp	DWORD PTR _maxlen$[esp-4], 5
	jge	SHORT $LN3@ssl_add_se
; Line 366
	push	367					; 0000016fH
	push	OFFSET ??_C@_0BA@MMBNNOIE@?4?2ssl?2d1_srtp?4c?$AA@
	push	363					; 0000016bH
	push	308					; 00000134H
	push	20					; 00000014H
	call	_ERR_put_error
	add	esp, 20					; 00000014H
; Line 368
	mov	eax, 1
; Line 383
	ret	0
$LN3@ssl_add_se:
; Line 371
	mov	edx, DWORD PTR _s$[esp-4]
	cmp	DWORD PTR [edx+384], 0
	jne	SHORT $LN4@ssl_add_se
; Line 372
	push	373					; 00000175H
	push	OFFSET ??_C@_0BA@MMBNNOIE@?4?2ssl?2d1_srtp?4c?$AA@
	push	369					; 00000171H
	push	308					; 00000134H
	push	20					; 00000014H
	call	_ERR_put_error
	add	esp, 20					; 00000014H
; Line 374
	mov	eax, 1
; Line 383
	ret	0
$LN4@ssl_add_se:
; Line 376
	mov	WORD PTR [ecx], 512			; 00000200H
; Line 377
	mov	eax, DWORD PTR [edx+384]
	movzx	eax, BYTE PTR [eax+5]
	mov	BYTE PTR [ecx+2], al
	mov	eax, DWORD PTR [edx+384]
	movzx	eax, BYTE PTR [eax+4]
	mov	BYTE PTR [ecx+3], al
; Line 378
	mov	BYTE PTR [ecx+4], 0
$LN2@ssl_add_se:
; Line 380
	mov	eax, DWORD PTR _len$[esp-4]
	mov	DWORD PTR [eax], 5
; Line 382
	xor	eax, eax
; Line 383
	ret	0
_ssl_add_serverhello_use_srtp_ext ENDP
_TEXT	ENDS
; Function compile flags: /Ogtpy
;	COMDAT _ssl_parse_clienthello_use_srtp_ext
_TEXT	SEGMENT
_ct$1$ = -4						; size = 4
_s$ = 8							; size = 4
_d$ = 12						; size = 4
_len$ = 16						; size = 4
_al$ = 20						; size = 4
_ssl_parse_clienthello_use_srtp_ext PROC		; COMDAT
; File c:\workpace\openssl\openssl-1.0.2h\ssl\d1_srtp.c
; Line 282
	mov	eax, 4
	call	__chkstk
; Line 291
	mov	ecx, DWORD PTR _len$[esp]
	cmp	ecx, 3
	jge	SHORT $LN7@ssl_parse_
; Line 292
	push	293					; 00000125H
	push	OFFSET ??_C@_0BA@MMBNNOIE@?4?2ssl?2d1_srtp?4c?$AA@
	push	353					; 00000161H
	push	310					; 00000136H
	push	20					; 00000014H
	call	_ERR_put_error
; Line 294
	mov	eax, DWORD PTR _al$[esp+20]
	add	esp, 20					; 00000014H
	mov	DWORD PTR [eax], 50			; 00000032H
; Line 295
	mov	eax, 1
; Line 359
	pop	ecx
	ret	0
$LN7@ssl_parse_:
	push	esi
	push	edi
; Line 299
	mov	edi, DWORD PTR _d$[esp+8]
; Line 300
	sub	ecx, 2
	mov	DWORD PTR _len$[esp+8], ecx
	movzx	esi, BYTE PTR [edi]
	movzx	eax, BYTE PTR [edi+1]
	add	edi, 2
	shl	esi, 8
	or	esi, eax
; Line 303
	mov	eax, esi
	and	eax, -2147483647			; 80000001H
	jns	SHORT $LN29@ssl_parse_
	dec	eax
	or	eax, -2					; fffffffeH
	inc	eax
$LN29@ssl_parse_:
	je	SHORT $LN8@ssl_parse_
; Line 304
	push	305					; 00000131H
	push	OFFSET ??_C@_0BA@MMBNNOIE@?4?2ssl?2d1_srtp?4c?$AA@
	push	353					; 00000161H
; Line 307
	jmp	$LN31@ssl_parse_
$LN8@ssl_parse_:
; Line 311
	lea	eax, DWORD PTR [esi+1]
	cmp	ecx, eax
	jge	SHORT $LN9@ssl_parse_
; Line 312
	push	313					; 00000139H
	push	OFFSET ??_C@_0BA@MMBNNOIE@?4?2ssl?2d1_srtp?4c?$AA@
	push	353					; 00000161H
; Line 315
	jmp	$LN31@ssl_parse_
$LN9@ssl_parse_:
; Line 221
	mov	eax, DWORD PTR _s$[esp+8]
	push	ebx
	push	ebp
	test	eax, eax
	je	SHORT $LN17@ssl_parse_
; Line 222
	mov	ebp, DWORD PTR [eax+380]
	test	ebp, ebp
	jne	SHORT $LN13@ssl_parse_
; Line 224
	mov	ebp, DWORD PTR [eax+228]
	test	ebp, ebp
	je	SHORT $LN17@ssl_parse_
	mov	ebp, DWORD PTR [ebp+436]
	test	ebp, ebp
	jne	SHORT $LN13@ssl_parse_
$LN17@ssl_parse_:
; Line 229
	xor	ebp, ebp
$LN13@ssl_parse_:
; Line 321
	push	ebp
	mov	DWORD PTR [eax+384], 0
	call	_sk_num
	add	esp, 4
	mov	ebx, eax
; Line 323
	test	esi, esi
	je	SHORT $LN3@ssl_parse_
	mov	eax, edi
$LL2@ssl_parse_:
; Line 324
	movzx	edi, BYTE PTR [eax]
; Line 325
	sub	esi, 2
	movzx	ecx, BYTE PTR [eax+1]
	add	eax, 2
; Line 326
	sub	DWORD PTR _len$[esp+16], 2
	shl	edi, 8
	mov	DWORD PTR _ct$1$[esp+20], esi
	or	edi, ecx
; Line 334
	xor	esi, esi
	mov	DWORD PTR _d$[esp+16], eax
	test	ebx, ebx
	jle	SHORT $LN5@ssl_parse_
$LL6@ssl_parse_:
; Line 335
	push	esi
	push	ebp
	call	_sk_value
	add	esp, 8
; Line 336
	cmp	DWORD PTR [eax+4], edi
	je	SHORT $LN21@ssl_parse_
; Line 334
	inc	esi
	cmp	esi, ebx
	jl	SHORT $LL6@ssl_parse_
; Line 336
	jmp	SHORT $LN30@ssl_parse_
$LN21@ssl_parse_:
; Line 337
	mov	ecx, DWORD PTR _s$[esp+16]
; Line 338
	mov	ebx, esi
	mov	DWORD PTR [ecx+384], eax
$LN30@ssl_parse_:
	mov	eax, DWORD PTR _d$[esp+16]
$LN5@ssl_parse_:
; Line 323
	mov	esi, DWORD PTR _ct$1$[esp+20]
	test	esi, esi
	jne	SHORT $LL2@ssl_parse_
	mov	edi, DWORD PTR _d$[esp+16]
$LN3@ssl_parse_:
; Line 349
	mov	ecx, DWORD PTR _len$[esp+16]
	movzx	eax, BYTE PTR [edi]
	dec	ecx
	pop	ebp
	pop	ebx
; Line 351
	cmp	eax, ecx
	je	SHORT $LN11@ssl_parse_
; Line 352
	push	353					; 00000161H
	push	OFFSET ??_C@_0BA@MMBNNOIE@?4?2ssl?2d1_srtp?4c?$AA@
	push	352					; 00000160H
$LN31@ssl_parse_:
	push	310					; 00000136H
	push	20					; 00000014H
	call	_ERR_put_error
; Line 354
	mov	eax, DWORD PTR _al$[esp+28]
	add	esp, 20					; 00000014H
	pop	edi
	mov	DWORD PTR [eax], 50			; 00000032H
; Line 355
	mov	eax, 1
	pop	esi
; Line 359
	pop	ecx
	ret	0
$LN11@ssl_parse_:
	pop	edi
; Line 358
	xor	eax, eax
	pop	esi
; Line 359
	pop	ecx
	ret	0
_ssl_parse_clienthello_use_srtp_ext ENDP
_TEXT	ENDS
; Function compile flags: /Ogtpy
;	COMDAT _ssl_add_clienthello_use_srtp_ext
_TEXT	SEGMENT
_ct$1$ = 8						; size = 4
_s$ = 8							; size = 4
_p$ = 12						; size = 4
_len$ = 16						; size = 4
_maxlen$ = 20						; size = 4
_ssl_add_clienthello_use_srtp_ext PROC			; COMDAT
; File c:\workpace\openssl\openssl-1.0.2h\ssl\d1_srtp.c
; Line 221
	mov	eax, DWORD PTR _s$[esp-4]
	push	esi
	push	edi
	test	eax, eax
	je	SHORT $LN13@ssl_add_cl
; Line 222
	mov	edi, DWORD PTR [eax+380]
	test	edi, edi
	jne	SHORT $LN9@ssl_add_cl
; Line 224
	mov	edi, DWORD PTR [eax+228]
	test	edi, edi
	je	SHORT $LN13@ssl_add_cl
	mov	edi, DWORD PTR [edi+436]
	test	edi, edi
	jne	SHORT $LN9@ssl_add_cl
$LN13@ssl_add_cl:
; Line 229
	xor	edi, edi
$LN9@ssl_add_cl:
; Line 249
	push	edi
	call	_sk_num
; Line 251
	mov	esi, DWORD PTR _p$[esp+8]
	add	esp, 4
	mov	ecx, eax
	mov	DWORD PTR _ct$1$[esp+4], ecx
	test	esi, esi
	je	$LN5@ssl_add_cl
; Line 252
	test	ecx, ecx
	jne	SHORT $LN6@ssl_add_cl
; Line 253
	push	254					; 000000feH
	push	OFFSET ??_C@_0BA@MMBNNOIE@?4?2ssl?2d1_srtp?4c?$AA@
	push	354					; 00000162H
	push	307					; 00000133H
	push	20					; 00000014H
	call	_ERR_put_error
	add	esp, 20					; 00000014H
; Line 255
	mov	eax, 1
	pop	edi
	pop	esi
; Line 278
	ret	0
$LN6@ssl_add_cl:
; Line 258
	lea	edx, DWORD PTR [ecx+ecx]
	lea	eax, DWORD PTR [edx+3]
	cmp	eax, DWORD PTR _maxlen$[esp+4]
	jle	SHORT $LN7@ssl_add_cl
; Line 259
	push	260					; 00000104H
	push	OFFSET ??_C@_0BA@MMBNNOIE@?4?2ssl?2d1_srtp?4c?$AA@
	push	363					; 0000016bH
	push	307					; 00000133H
	push	20					; 00000014H
	call	_ERR_put_error
	add	esp, 20					; 00000014H
; Line 261
	mov	eax, 1
	pop	edi
	pop	esi
; Line 278
	ret	0
$LN7@ssl_add_cl:
; Line 265
	mov	al, cl
	sar	edx, 8
	add	al, al
	mov	BYTE PTR [esi], dl
	push	ebx
	mov	BYTE PTR [esi+1], al
; Line 266
	xor	ebx, ebx
	add	esi, 2
	test	ecx, ecx
	jle	SHORT $LN3@ssl_add_cl
$LL4@ssl_add_cl:
; Line 267
	push	ebx
	push	edi
	call	_sk_value
	inc	ebx
	add	esp, 8
; Line 268
	mov	cl, BYTE PTR [eax+5]
	mov	BYTE PTR [esi], cl
	mov	al, BYTE PTR [eax+4]
	mov	ecx, DWORD PTR _ct$1$[esp+8]
	mov	BYTE PTR [esi+1], al
	add	esi, 2
	cmp	ebx, ecx
	jl	SHORT $LL4@ssl_add_cl
$LN3@ssl_add_cl:
; Line 272
	mov	BYTE PTR [esi], 0
	pop	ebx
$LN5@ssl_add_cl:
; Line 275
	mov	eax, DWORD PTR _len$[esp+4]
	lea	ecx, DWORD PTR [ecx*2+3]
	pop	edi
	pop	esi
	mov	DWORD PTR [eax], ecx
; Line 277
	xor	eax, eax
; Line 278
	ret	0
_ssl_add_clienthello_use_srtp_ext ENDP
_TEXT	ENDS
; Function compile flags: /Ogtpy
;	COMDAT _SSL_get_selected_srtp_profile
_TEXT	SEGMENT
_s$ = 8							; size = 4
_SSL_get_selected_srtp_profile PROC			; COMDAT
; File c:\workpace\openssl\openssl-1.0.2h\ssl\d1_srtp.c
; Line 234
	mov	eax, DWORD PTR _s$[esp-4]
	mov	eax, DWORD PTR [eax+384]
; Line 235
	ret	0
_SSL_get_selected_srtp_profile ENDP
_TEXT	ENDS
; Function compile flags: /Ogtpy
;	COMDAT _SSL_get_srtp_profiles
_TEXT	SEGMENT
_s$ = 8							; size = 4
_SSL_get_srtp_profiles PROC				; COMDAT
; File c:\workpace\openssl\openssl-1.0.2h\ssl\d1_srtp.c
; Line 221
	mov	ecx, DWORD PTR _s$[esp-4]
	test	ecx, ecx
	je	SHORT $LN5@SSL_get_sr
; Line 222
	mov	eax, DWORD PTR [ecx+380]
	test	eax, eax
	jne	SHORT $LN1@SSL_get_sr
; Line 224
	mov	eax, DWORD PTR [ecx+228]
	test	eax, eax
	je	SHORT $LN5@SSL_get_sr
	mov	eax, DWORD PTR [eax+436]
	test	eax, eax
	jne	SHORT $LN1@SSL_get_sr
$LN5@SSL_get_sr:
; Line 229
	xor	eax, eax
$LN1@SSL_get_sr:
; Line 230
	ret	0
_SSL_get_srtp_profiles ENDP
_TEXT	ENDS
; Function compile flags: /Ogtpy
;	COMDAT _SSL_set_tlsext_use_srtp
_TEXT	SEGMENT
_s$ = 8							; size = 4
_profiles$ = 12						; size = 4
_SSL_set_tlsext_use_srtp PROC				; COMDAT
; File c:\workpace\openssl\openssl-1.0.2h\ssl\d1_srtp.c
; Line 216
	mov	eax, DWORD PTR _s$[esp-4]
	add	eax, 380				; 0000017cH
	push	eax
	push	DWORD PTR _profiles$[esp]
	call	_ssl_ctx_make_profiles
	add	esp, 8
; Line 217
	ret	0
_SSL_set_tlsext_use_srtp ENDP
_TEXT	ENDS
; Function compile flags: /Ogtpy
;	COMDAT _SSL_CTX_set_tlsext_use_srtp
_TEXT	SEGMENT
_ctx$ = 8						; size = 4
_profiles$ = 12						; size = 4
_SSL_CTX_set_tlsext_use_srtp PROC			; COMDAT
; File c:\workpace\openssl\openssl-1.0.2h\ssl\d1_srtp.c
; Line 211
	mov	eax, DWORD PTR _ctx$[esp-4]
	add	eax, 436				; 000001b4H
	push	eax
	push	DWORD PTR _profiles$[esp]
	call	_ssl_ctx_make_profiles
	add	esp, 8
; Line 212
	ret	0
_SSL_CTX_set_tlsext_use_srtp ENDP
_TEXT	ENDS
END
