; Listing generated by Microsoft (R) Optimizing Compiler Version 19.00.23918.0 

	TITLE	C:\workpace\openssl\openssl-1.0.2h\apps\dhparam.c
	.686P
	.XMM
	include listing.inc
	.model	flat

INCLUDELIB MSVCRT
INCLUDELIB OLDNAMES

PUBLIC	___local_stdio_printf_options
PUBLIC	___local_stdio_scanf_options
PUBLIC	__vfprintf_l
PUBLIC	_printf
PUBLIC	__vsscanf_l
PUBLIC	_sscanf
PUBLIC	_dhparam_main
PUBLIC	??_C@_07CGGPPMGB@?9inform?$AA@			; `string'
PUBLIC	??_C@_08LPHBEAIF@?9outform?$AA@			; `string'
PUBLIC	??_C@_03DAJLOBIG@?9in?$AA@			; `string'
PUBLIC	??_C@_04HKKABCEL@?9out?$AA@			; `string'
PUBLIC	??_C@_07CECBDAGF@?9engine?$AA@			; `string'
PUBLIC	??_C@_06CLLLPJIB@?9check?$AA@			; `string'
PUBLIC	??_C@_05OEBEIMJA@?9text?$AA@			; `string'
PUBLIC	??_C@_09FPEHJBLF@?9dsaparam?$AA@		; `string'
PUBLIC	??_C@_02OLHPOPJI@?9C?$AA@			; `string'
PUBLIC	??_C@_06JPEJAHHH@?9noout?$AA@			; `string'
PUBLIC	??_C@_02NNFLKHCP@?92?$AA@			; `string'
PUBLIC	??_C@_02JCBKDBOI@?95?$AA@			; `string'
PUBLIC	??_C@_05LGFPCDPE@?9rand?$AA@			; `string'
PUBLIC	??_C@_02DPKJAMEF@?$CFd?$AA@			; `string'
PUBLIC	??_C@_0BI@MNFGICID@?$CFs?5?$FLoptions?$FN?5?$FLnumbits?$FN?6?$AA@ ; `string'
PUBLIC	??_C@_0BD@KHANLAHK@where?5options?5are?6?$AA@	; `string'
PUBLIC	??_C@_0CO@HFLABMMF@?5?9inform?5arg?5?5?5input?5format?5?9?5on@ ; `string'
PUBLIC	??_C@_0CP@JJNBIGFP@?5?9outform?5arg?5?5output?5format?5?9?5o@ ; `string'
PUBLIC	??_C@_0BL@EHLIKLH@?5?9in?5arg?5?5?5?5?5?5?5input?5file?6?$AA@ ; `string'
PUBLIC	??_C@_0BM@JAFLIPIN@?5?9out?5arg?5?5?5?5?5?5output?5file?6?$AA@ ; `string'
PUBLIC	??_C@_0DP@OPICDCND@?5?9dsaparam?5?5?5?5?5read?5or?5generate?5@ ; `string'
PUBLIC	??_C@_0CI@BBHHCPJC@?5?9check?5?5?5?5?5?5?5?5check?5the?5DH?5para@ ; `string'
PUBLIC	??_C@_0DH@EGLMLFJL@?5?9text?5?5?5?5?5?5?5?5?5print?5a?5text?5form@ ; `string'
PUBLIC	??_C@_0BO@KEIHOKJC@?5?9C?5?5?5?5?5?5?5?5?5?5?5?5Output?5C?5code?6?$AA@ ; `string'
PUBLIC	??_C@_0EE@BMLLMFHN@?5?92?5?5?5?5?5?5?5?5?5?5?5?5generate?5paramete@ ; `string'
PUBLIC	??_C@_0EE@OCJFPLEH@?5?95?5?5?5?5?5?5?5?5?5?5?5?5generate?5paramete@ ; `string'
PUBLIC	??_C@_0DN@CGMMDKJL@?5numbits?5?5?5?5?5?5?5number?5of?5bits?5in@ ; `string'
PUBLIC	??_C@_0DK@OCLGLONK@?5?9engine?5e?5?5?5?5?5use?5engine?5e?0?5pos@ ; `string'
PUBLIC	??_C@_0BI@HHIJKENB@?5?9rand?5file?$CFcfile?$CFc?4?4?4?6?$AA@ ; `string'
PUBLIC	??_C@_0EF@IFMCBMJK@?5?5?5?5?5?5?5?5?5?5?5?5?5?5?5?9?5load?5the?5file?5?$CI@ ; `string'
PUBLIC	??_C@_0CM@HMDFFJAF@?5?5?5?5?5?5?5?5?5?5?5?5?5?5?5the?5random?5number@ ; `string'
PUBLIC	??_C@_0BK@ELEJBNIF@?5?9noout?5?5?5?5?5?5?5?5no?5output?6?$AA@ ; `string'
PUBLIC	??_C@_0DA@BIFNEJD@generator?5may?5not?5be?5chosen?5for?5@ ; `string'
PUBLIC	??_C@_0EG@NMHBLOCJ@warning?0?5not?5much?5extra?5random?5d@ ; `string'
PUBLIC	??_C@_0BO@JENMPIEN@?$CFld?5semi?9random?5bytes?5loaded?6?$AA@ ; `string'
PUBLIC	??_C@_0CO@MBCDDJGG@Generating?5DSA?5parameters?0?5?$CFd?5bi@ ; `string'
PUBLIC	??_C@_0EA@BEOHJPIA@Generating?5DH?5parameters?0?5?$CFd?5bit@ ; `string'
PUBLIC	??_C@_0CD@OEGFFOKJ@This?5is?5going?5to?5take?5a?5long?5tim@ ; `string'
PUBLIC	??_C@_0BM@PDLDHKCN@bad?5input?5format?5specified?6?$AA@ ; `string'
PUBLIC	??_C@_0BP@GLONFKAC@unable?5to?5load?5DSA?5parameters?6?$AA@ ; `string'
PUBLIC	??_C@_0BO@FFFNONMG@unable?5to?5load?5DH?5parameters?6?$AA@ ; `string'
PUBLIC	??_C@_0BG@HEKOLPHE@p?5value?5is?5not?5prime?6?$AA@ ; `string'
PUBLIC	??_C@_0BN@HECLLLLM@p?5value?5is?5not?5a?5safe?5prime?6?$AA@ ; `string'
PUBLIC	??_C@_0CF@HHDJLALM@unable?5to?5check?5the?5generator?5va@ ; `string'
PUBLIC	??_C@_0CA@MNMNOHDI@the?5g?5value?5is?5not?5a?5generator?6?$AA@ ; `string'
PUBLIC	??_C@_0CA@HEFPAMBO@DH?5parameters?5appear?5to?5be?5ok?4?6?$AA@ ; `string'
PUBLIC	??_C@_0BB@FFBDENLP@?4?2apps?2dhparam?4c?$AA@	; `string'
PUBLIC	??_C@_0P@OGNLMJHA@OPENSSL_malloc?$AA@		; `string'
PUBLIC	??_C@_0DE@GKMDPIAB@?$CDifndef?5HEADER_DH_H?6?$CDinclude?5?$DMop@ ; `string'
PUBLIC	??_C@_0BD@PDHPFBMJ@DH?5?$CKget_dh?$CFd?$CI?$CJ?6?7?$HL?6?$AA@ ; `string'
PUBLIC	??_C@_0CB@GACNPENH@?7static?5unsigned?5char?5dh?$CFd_p?$FL?$FN?$DN?$HL@ ; `string'
PUBLIC	??_C@_03GPBFEAEB@?6?7?7?$AA@			; `string'
PUBLIC	??_C@_07DHGLOFCI@0x?$CF02X?0?$AA@		; `string'
PUBLIC	??_C@_06KHHINGMM@?6?7?7?$HN?$DL?6?$AA@		; `string'
PUBLIC	??_C@_0CB@HOPOMGPE@?7static?5unsigned?5char?5dh?$CFd_g?$FL?$FN?$DN?$HL@ ; `string'
PUBLIC	??_C@_0L@GFOABBOL@?7DH?5?$CKdh?$DL?6?6?$AA@	; `string'
PUBLIC	??_C@_0CL@FJKPNLKA@?7if?5?$CI?$CIdh?$DNDH_new?$CI?$CJ?$CJ?5?$DN?$DN?5NULL?$CJ?5retu@ ; `string'
PUBLIC	??_C@_0CP@FNEBIMJB@?7dh?9?$DOp?$DNBN_bin2bn?$CIdh?$CFd_p?0sizeof?$CId@ ; `string'
PUBLIC	??_C@_0CP@IOLDHNHJ@?7dh?9?$DOg?$DNBN_bin2bn?$CIdh?$CFd_g?0sizeof?$CId@ ; `string'
PUBLIC	??_C@_0CK@IPHOBDHF@?7if?5?$CI?$CIdh?9?$DOp?5?$DN?$DN?5NULL?$CJ?5?$HM?$HM?5?$CIdh?9?$DOg?5?$DN@ ; `string'
PUBLIC	??_C@_0CC@MEGBNOEK@?7?7?$HL?5DH_free?$CIdh?$CJ?$DL?5return?$CINULL?$CJ?$DL?5?$HN@ ; `string'
PUBLIC	??_C@_0BE@ICHMBAIO@?7dh?9?$DOlength?5?$DN?5?$CFld?$DL?6?$AA@ ; `string'
PUBLIC	??_C@_0BB@BLPPFBBA@?7return?$CIdh?$CJ?$DL?6?7?$HN?6?$AA@ ; `string'
PUBLIC	??_C@_0CJ@JNEPIEPI@bad?5output?5format?5specified?5for?5@ ; `string'
PUBLIC	??_C@_0BP@DKNNAIAD@unable?5to?5write?5DH?5parameters?6?$AA@ ; `string'
EXTRN	__imp____acrt_iob_func:PROC
EXTRN	__imp__perror:PROC
EXTRN	__imp____stdio_common_vfprintf:PROC
EXTRN	__imp____stdio_common_vsscanf:PROC
EXTRN	_CRYPTO_malloc:PROC
EXTRN	_CRYPTO_free:PROC
EXTRN	_BIO_s_file:PROC
EXTRN	_BIO_new:PROC
EXTRN	_BIO_free:PROC
EXTRN	_BIO_write:PROC
EXTRN	_BIO_ctrl:PROC
EXTRN	_BIO_free_all:PROC
EXTRN	_BIO_printf:PROC
EXTRN	_BN_num_bits:PROC
EXTRN	_BN_bn2bin:PROC
EXTRN	_ASN1_d2i_bio:PROC
EXTRN	_ASN1_i2d_bio:PROC
EXTRN	_DH_new:PROC
EXTRN	_DH_free:PROC
EXTRN	_DH_generate_parameters_ex:PROC
EXTRN	_DH_check:PROC
EXTRN	_d2i_DHparams:PROC
EXTRN	_i2d_DHparams:PROC
EXTRN	_DHparams_print:PROC
EXTRN	_DSA_new:PROC
EXTRN	_DSA_free:PROC
EXTRN	_d2i_DSAparams:PROC
EXTRN	_DSA_generate_parameters_ex:PROC
EXTRN	_DSA_dup_DH:PROC
EXTRN	_ERR_print_errors:PROC
EXTRN	_ERR_load_crypto_strings:PROC
EXTRN	_app_RAND_load_file:PROC
EXTRN	_app_RAND_write_file:PROC
EXTRN	_app_RAND_load_files:PROC
EXTRN	_str2fmt:PROC
EXTRN	_setup_engine:PROC
EXTRN	_load_config:PROC
EXTRN	_PEM_read_bio_DSAparams:PROC
EXTRN	_PEM_read_bio_DHparams:PROC
EXTRN	_PEM_write_bio_DHparams:PROC
EXTRN	_PEM_write_bio_DHxparams:PROC
EXTRN	__chkstk:PROC
EXTRN	_bio_err:DWORD
_DATA	SEGMENT
COMM	?_OptionsStorage@?1??__local_stdio_printf_options@@9@9:QWORD							; `__local_stdio_printf_options'::`2'::_OptionsStorage
COMM	?_OptionsStorage@?1??__local_stdio_scanf_options@@9@9:QWORD							; `__local_stdio_scanf_options'::`2'::_OptionsStorage
_DATA	ENDS
;	COMDAT ??_C@_0BP@DKNNAIAD@unable?5to?5write?5DH?5parameters?6?$AA@
CONST	SEGMENT
??_C@_0BP@DKNNAIAD@unable?5to?5write?5DH?5parameters?6?$AA@ DB 'unable to'
	DB	' write DH parameters', 0aH, 00H		; `string'
CONST	ENDS
;	COMDAT ??_C@_0CJ@JNEPIEPI@bad?5output?5format?5specified?5for?5@
CONST	SEGMENT
??_C@_0CJ@JNEPIEPI@bad?5output?5format?5specified?5for?5@ DB 'bad output '
	DB	'format specified for outfile', 0aH, 00H	; `string'
CONST	ENDS
;	COMDAT ??_C@_0BB@BLPPFBBA@?7return?$CIdh?$CJ?$DL?6?7?$HN?6?$AA@
CONST	SEGMENT
??_C@_0BB@BLPPFBBA@?7return?$CIdh?$CJ?$DL?6?7?$HN?6?$AA@ DB 09H, 'return('
	DB	'dh);', 0aH, 09H, '}', 0aH, 00H		; `string'
CONST	ENDS
;	COMDAT ??_C@_0BE@ICHMBAIO@?7dh?9?$DOlength?5?$DN?5?$CFld?$DL?6?$AA@
CONST	SEGMENT
??_C@_0BE@ICHMBAIO@?7dh?9?$DOlength?5?$DN?5?$CFld?$DL?6?$AA@ DB 09H, 'dh-'
	DB	'>length = %ld;', 0aH, 00H			; `string'
CONST	ENDS
;	COMDAT ??_C@_0CC@MEGBNOEK@?7?7?$HL?5DH_free?$CIdh?$CJ?$DL?5return?$CINULL?$CJ?$DL?5?$HN@
CONST	SEGMENT
??_C@_0CC@MEGBNOEK@?7?7?$HL?5DH_free?$CIdh?$CJ?$DL?5return?$CINULL?$CJ?$DL?5?$HN@ DB 09H
	DB	09H, '{ DH_free(dh); return(NULL); }', 0aH, 00H ; `string'
CONST	ENDS
;	COMDAT ??_C@_0CK@IPHOBDHF@?7if?5?$CI?$CIdh?9?$DOp?5?$DN?$DN?5NULL?$CJ?5?$HM?$HM?5?$CIdh?9?$DOg?5?$DN@
CONST	SEGMENT
??_C@_0CK@IPHOBDHF@?7if?5?$CI?$CIdh?9?$DOp?5?$DN?$DN?5NULL?$CJ?5?$HM?$HM?5?$CIdh?9?$DOg?5?$DN@ DB 09H
	DB	'if ((dh->p == NULL) || (dh->g == NULL))', 0aH, 00H ; `string'
CONST	ENDS
;	COMDAT ??_C@_0CP@IOLDHNHJ@?7dh?9?$DOg?$DNBN_bin2bn?$CIdh?$CFd_g?0sizeof?$CId@
CONST	SEGMENT
??_C@_0CP@IOLDHNHJ@?7dh?9?$DOg?$DNBN_bin2bn?$CIdh?$CFd_g?0sizeof?$CId@ DB 09H
	DB	'dh->g=BN_bin2bn(dh%d_g,sizeof(dh%d_g),NULL);', 0aH, 00H ; `string'
CONST	ENDS
;	COMDAT ??_C@_0CP@FNEBIMJB@?7dh?9?$DOp?$DNBN_bin2bn?$CIdh?$CFd_p?0sizeof?$CId@
CONST	SEGMENT
??_C@_0CP@FNEBIMJB@?7dh?9?$DOp?$DNBN_bin2bn?$CIdh?$CFd_p?0sizeof?$CId@ DB 09H
	DB	'dh->p=BN_bin2bn(dh%d_p,sizeof(dh%d_p),NULL);', 0aH, 00H ; `string'
CONST	ENDS
;	COMDAT ??_C@_0CL@FJKPNLKA@?7if?5?$CI?$CIdh?$DNDH_new?$CI?$CJ?$CJ?5?$DN?$DN?5NULL?$CJ?5retu@
CONST	SEGMENT
??_C@_0CL@FJKPNLKA@?7if?5?$CI?$CIdh?$DNDH_new?$CI?$CJ?$CJ?5?$DN?$DN?5NULL?$CJ?5retu@ DB 09H
	DB	'if ((dh=DH_new()) == NULL) return(NULL);', 0aH, 00H ; `string'
CONST	ENDS
;	COMDAT ??_C@_0L@GFOABBOL@?7DH?5?$CKdh?$DL?6?6?$AA@
CONST	SEGMENT
??_C@_0L@GFOABBOL@?7DH?5?$CKdh?$DL?6?6?$AA@ DB 09H, 'DH *dh;', 0aH, 0aH, 00H ; `string'
CONST	ENDS
;	COMDAT ??_C@_0CB@HOPOMGPE@?7static?5unsigned?5char?5dh?$CFd_g?$FL?$FN?$DN?$HL@
CONST	SEGMENT
??_C@_0CB@HOPOMGPE@?7static?5unsigned?5char?5dh?$CFd_g?$FL?$FN?$DN?$HL@ DB 09H
	DB	'static unsigned char dh%d_g[]={', 00H	; `string'
CONST	ENDS
;	COMDAT ??_C@_06KHHINGMM@?6?7?7?$HN?$DL?6?$AA@
CONST	SEGMENT
??_C@_06KHHINGMM@?6?7?7?$HN?$DL?6?$AA@ DB 0aH, 09H, 09H, '};', 0aH, 00H ; `string'
CONST	ENDS
;	COMDAT ??_C@_07DHGLOFCI@0x?$CF02X?0?$AA@
CONST	SEGMENT
??_C@_07DHGLOFCI@0x?$CF02X?0?$AA@ DB '0x%02X,', 00H	; `string'
CONST	ENDS
;	COMDAT ??_C@_03GPBFEAEB@?6?7?7?$AA@
CONST	SEGMENT
??_C@_03GPBFEAEB@?6?7?7?$AA@ DB 0aH, 09H, 09H, 00H	; `string'
CONST	ENDS
;	COMDAT ??_C@_0CB@GACNPENH@?7static?5unsigned?5char?5dh?$CFd_p?$FL?$FN?$DN?$HL@
CONST	SEGMENT
??_C@_0CB@GACNPENH@?7static?5unsigned?5char?5dh?$CFd_p?$FL?$FN?$DN?$HL@ DB 09H
	DB	'static unsigned char dh%d_p[]={', 00H	; `string'
CONST	ENDS
;	COMDAT ??_C@_0BD@PDHPFBMJ@DH?5?$CKget_dh?$CFd?$CI?$CJ?6?7?$HL?6?$AA@
CONST	SEGMENT
??_C@_0BD@PDHPFBMJ@DH?5?$CKget_dh?$CFd?$CI?$CJ?6?7?$HL?6?$AA@ DB 'DH *get'
	DB	'_dh%d()', 0aH, 09H, '{', 0aH, 00H		; `string'
CONST	ENDS
;	COMDAT ??_C@_0DE@GKMDPIAB@?$CDifndef?5HEADER_DH_H?6?$CDinclude?5?$DMop@
CONST	SEGMENT
??_C@_0DE@GKMDPIAB@?$CDifndef?5HEADER_DH_H?6?$CDinclude?5?$DMop@ DB '#ifn'
	DB	'def HEADER_DH_H', 0aH, '#include <openssl/dh.h>', 0aH, '#endi'
	DB	'f', 0aH, 00H				; `string'
CONST	ENDS
;	COMDAT ??_C@_0P@OGNLMJHA@OPENSSL_malloc?$AA@
CONST	SEGMENT
??_C@_0P@OGNLMJHA@OPENSSL_malloc?$AA@ DB 'OPENSSL_malloc', 00H ; `string'
CONST	ENDS
;	COMDAT ??_C@_0BB@FFBDENLP@?4?2apps?2dhparam?4c?$AA@
CONST	SEGMENT
??_C@_0BB@FFBDENLP@?4?2apps?2dhparam?4c?$AA@ DB '.\apps\dhparam.c', 00H ; `string'
CONST	ENDS
;	COMDAT ??_C@_0CA@HEFPAMBO@DH?5parameters?5appear?5to?5be?5ok?4?6?$AA@
CONST	SEGMENT
??_C@_0CA@HEFPAMBO@DH?5parameters?5appear?5to?5be?5ok?4?6?$AA@ DB 'DH par'
	DB	'ameters appear to be ok.', 0aH, 00H		; `string'
CONST	ENDS
;	COMDAT ??_C@_0CA@MNMNOHDI@the?5g?5value?5is?5not?5a?5generator?6?$AA@
CONST	SEGMENT
??_C@_0CA@MNMNOHDI@the?5g?5value?5is?5not?5a?5generator?6?$AA@ DB 'the g '
	DB	'value is not a generator', 0aH, 00H		; `string'
CONST	ENDS
;	COMDAT ??_C@_0CF@HHDJLALM@unable?5to?5check?5the?5generator?5va@
CONST	SEGMENT
??_C@_0CF@HHDJLALM@unable?5to?5check?5the?5generator?5va@ DB 'unable to c'
	DB	'heck the generator value', 0aH, 00H		; `string'
CONST	ENDS
;	COMDAT ??_C@_0BN@HECLLLLM@p?5value?5is?5not?5a?5safe?5prime?6?$AA@
CONST	SEGMENT
??_C@_0BN@HECLLLLM@p?5value?5is?5not?5a?5safe?5prime?6?$AA@ DB 'p value i'
	DB	's not a safe prime', 0aH, 00H		; `string'
CONST	ENDS
;	COMDAT ??_C@_0BG@HEKOLPHE@p?5value?5is?5not?5prime?6?$AA@
CONST	SEGMENT
??_C@_0BG@HEKOLPHE@p?5value?5is?5not?5prime?6?$AA@ DB 'p value is not pri'
	DB	'me', 0aH, 00H				; `string'
CONST	ENDS
;	COMDAT ??_C@_0BO@FFFNONMG@unable?5to?5load?5DH?5parameters?6?$AA@
CONST	SEGMENT
??_C@_0BO@FFFNONMG@unable?5to?5load?5DH?5parameters?6?$AA@ DB 'unable to '
	DB	'load DH parameters', 0aH, 00H		; `string'
CONST	ENDS
;	COMDAT ??_C@_0BP@GLONFKAC@unable?5to?5load?5DSA?5parameters?6?$AA@
CONST	SEGMENT
??_C@_0BP@GLONFKAC@unable?5to?5load?5DSA?5parameters?6?$AA@ DB 'unable to'
	DB	' load DSA parameters', 0aH, 00H		; `string'
CONST	ENDS
;	COMDAT ??_C@_0BM@PDLDHKCN@bad?5input?5format?5specified?6?$AA@
CONST	SEGMENT
??_C@_0BM@PDLDHKCN@bad?5input?5format?5specified?6?$AA@ DB 'bad input for'
	DB	'mat specified', 0aH, 00H			; `string'
CONST	ENDS
;	COMDAT ??_C@_0CD@OEGFFOKJ@This?5is?5going?5to?5take?5a?5long?5tim@
CONST	SEGMENT
??_C@_0CD@OEGFFOKJ@This?5is?5going?5to?5take?5a?5long?5tim@ DB 'This is g'
	DB	'oing to take a long time', 0aH, 00H		; `string'
CONST	ENDS
;	COMDAT ??_C@_0EA@BEOHJPIA@Generating?5DH?5parameters?0?5?$CFd?5bit@
CONST	SEGMENT
??_C@_0EA@BEOHJPIA@Generating?5DH?5parameters?0?5?$CFd?5bit@ DB 'Generati'
	DB	'ng DH parameters, %d bit long safe prime, generator %d', 0aH, 00H ; `string'
CONST	ENDS
;	COMDAT ??_C@_0CO@MBCDDJGG@Generating?5DSA?5parameters?0?5?$CFd?5bi@
CONST	SEGMENT
??_C@_0CO@MBCDDJGG@Generating?5DSA?5parameters?0?5?$CFd?5bi@ DB 'Generati'
	DB	'ng DSA parameters, %d bit long prime', 0aH, 00H ; `string'
CONST	ENDS
;	COMDAT ??_C@_0BO@JENMPIEN@?$CFld?5semi?9random?5bytes?5loaded?6?$AA@
CONST	SEGMENT
??_C@_0BO@JENMPIEN@?$CFld?5semi?9random?5bytes?5loaded?6?$AA@ DB '%ld sem'
	DB	'i-random bytes loaded', 0aH, 00H		; `string'
CONST	ENDS
;	COMDAT ??_C@_0EG@NMHBLOCJ@warning?0?5not?5much?5extra?5random?5d@
CONST	SEGMENT
??_C@_0EG@NMHBLOCJ@warning?0?5not?5much?5extra?5random?5d@ DB 'warning, n'
	DB	'ot much extra random data, consider using the -rand option', 0aH
	DB	00H						; `string'
CONST	ENDS
;	COMDAT ??_C@_0DA@BIFNEJD@generator?5may?5not?5be?5chosen?5for?5@
CONST	SEGMENT
??_C@_0DA@BIFNEJD@generator?5may?5not?5be?5chosen?5for?5@ DB 'generator m'
	DB	'ay not be chosen for DSA parameters', 0aH, 00H ; `string'
CONST	ENDS
;	COMDAT ??_C@_0BK@ELEJBNIF@?5?9noout?5?5?5?5?5?5?5?5no?5output?6?$AA@
CONST	SEGMENT
??_C@_0BK@ELEJBNIF@?5?9noout?5?5?5?5?5?5?5?5no?5output?6?$AA@ DB ' -noout'
	DB	'        no output', 0aH, 00H		; `string'
CONST	ENDS
;	COMDAT ??_C@_0CM@HMDFFJAF@?5?5?5?5?5?5?5?5?5?5?5?5?5?5?5the?5random?5number@
CONST	SEGMENT
??_C@_0CM@HMDFFJAF@?5?5?5?5?5?5?5?5?5?5?5?5?5?5?5the?5random?5number@ DB ' '
	DB	'              the random number generator', 0aH, 00H ; `string'
CONST	ENDS
;	COMDAT ??_C@_0EF@IFMCBMJK@?5?5?5?5?5?5?5?5?5?5?5?5?5?5?5?9?5load?5the?5file?5?$CI@
CONST	SEGMENT
??_C@_0EF@IFMCBMJK@?5?5?5?5?5?5?5?5?5?5?5?5?5?5?5?9?5load?5the?5file?5?$CI@ DB ' '
	DB	'              - load the file (or the files in the directory)'
	DB	' into', 0aH, 00H				; `string'
CONST	ENDS
;	COMDAT ??_C@_0BI@HHIJKENB@?5?9rand?5file?$CFcfile?$CFc?4?4?4?6?$AA@
CONST	SEGMENT
??_C@_0BI@HHIJKENB@?5?9rand?5file?$CFcfile?$CFc?4?4?4?6?$AA@ DB ' -rand f'
	DB	'ile%cfile%c...', 0aH, 00H			; `string'
CONST	ENDS
;	COMDAT ??_C@_0DK@OCLGLONK@?5?9engine?5e?5?5?5?5?5use?5engine?5e?0?5pos@
CONST	SEGMENT
??_C@_0DK@OCLGLONK@?5?9engine?5e?5?5?5?5?5use?5engine?5e?0?5pos@ DB ' -en'
	DB	'gine e     use engine e, possibly a hardware device.', 0aH, 00H ; `string'
CONST	ENDS
;	COMDAT ??_C@_0DN@CGMMDKJL@?5numbits?5?5?5?5?5?5?5number?5of?5bits?5in@
CONST	SEGMENT
??_C@_0DN@CGMMDKJL@?5numbits?5?5?5?5?5?5?5number?5of?5bits?5in@ DB ' numb'
	DB	'its       number of bits in to generate (default 2048)', 0aH, 00H ; `string'
CONST	ENDS
;	COMDAT ??_C@_0EE@OCJFPLEH@?5?95?5?5?5?5?5?5?5?5?5?5?5?5generate?5paramete@
CONST	SEGMENT
??_C@_0EE@OCJFPLEH@?5?95?5?5?5?5?5?5?5?5?5?5?5?5generate?5paramete@ DB ' '
	DB	'-5            generate parameters using  5 as the generator v'
	DB	'alue', 0aH, 00H				; `string'
CONST	ENDS
;	COMDAT ??_C@_0EE@BMLLMFHN@?5?92?5?5?5?5?5?5?5?5?5?5?5?5generate?5paramete@
CONST	SEGMENT
??_C@_0EE@BMLLMFHN@?5?92?5?5?5?5?5?5?5?5?5?5?5?5generate?5paramete@ DB ' '
	DB	'-2            generate parameters using  2 as the generator v'
	DB	'alue', 0aH, 00H				; `string'
CONST	ENDS
;	COMDAT ??_C@_0BO@KEIHOKJC@?5?9C?5?5?5?5?5?5?5?5?5?5?5?5Output?5C?5code?6?$AA@
CONST	SEGMENT
??_C@_0BO@KEIHOKJC@?5?9C?5?5?5?5?5?5?5?5?5?5?5?5Output?5C?5code?6?$AA@ DB ' '
	DB	'-C            Output C code', 0aH, 00H	; `string'
CONST	ENDS
;	COMDAT ??_C@_0DH@EGLMLFJL@?5?9text?5?5?5?5?5?5?5?5?5print?5a?5text?5form@
CONST	SEGMENT
??_C@_0DH@EGLMLFJL@?5?9text?5?5?5?5?5?5?5?5?5print?5a?5text?5form@ DB ' -'
	DB	'text         print a text form of the DH parameters', 0aH, 00H ; `string'
CONST	ENDS
;	COMDAT ??_C@_0CI@BBHHCPJC@?5?9check?5?5?5?5?5?5?5?5check?5the?5DH?5para@
CONST	SEGMENT
??_C@_0CI@BBHHCPJC@?5?9check?5?5?5?5?5?5?5?5check?5the?5DH?5para@ DB ' -c'
	DB	'heck        check the DH parameters', 0aH, 00H ; `string'
CONST	ENDS
;	COMDAT ??_C@_0DP@OPICDCND@?5?9dsaparam?5?5?5?5?5read?5or?5generate?5@
CONST	SEGMENT
??_C@_0DP@OPICDCND@?5?9dsaparam?5?5?5?5?5read?5or?5generate?5@ DB ' -dsap'
	DB	'aram     read or generate DSA parameters, convert to DH', 0aH
	DB	00H						; `string'
CONST	ENDS
;	COMDAT ??_C@_0BM@JAFLIPIN@?5?9out?5arg?5?5?5?5?5?5output?5file?6?$AA@
CONST	SEGMENT
??_C@_0BM@JAFLIPIN@?5?9out?5arg?5?5?5?5?5?5output?5file?6?$AA@ DB ' -out '
	DB	'arg      output file', 0aH, 00H		; `string'
CONST	ENDS
;	COMDAT ??_C@_0BL@EHLIKLH@?5?9in?5arg?5?5?5?5?5?5?5input?5file?6?$AA@
CONST	SEGMENT
??_C@_0BL@EHLIKLH@?5?9in?5arg?5?5?5?5?5?5?5input?5file?6?$AA@ DB ' -in ar'
	DB	'g       input file', 0aH, 00H		; `string'
CONST	ENDS
;	COMDAT ??_C@_0CP@JJNBIGFP@?5?9outform?5arg?5?5output?5format?5?9?5o@
CONST	SEGMENT
??_C@_0CP@JJNBIGFP@?5?9outform?5arg?5?5output?5format?5?9?5o@ DB ' -outfo'
	DB	'rm arg  output format - one of DER PEM', 0aH, 00H ; `string'
CONST	ENDS
;	COMDAT ??_C@_0CO@HFLABMMF@?5?9inform?5arg?5?5?5input?5format?5?9?5on@
CONST	SEGMENT
??_C@_0CO@HFLABMMF@?5?9inform?5arg?5?5?5input?5format?5?9?5on@ DB ' -info'
	DB	'rm arg   input format - one of DER PEM', 0aH, 00H ; `string'
CONST	ENDS
;	COMDAT ??_C@_0BD@KHANLAHK@where?5options?5are?6?$AA@
CONST	SEGMENT
??_C@_0BD@KHANLAHK@where?5options?5are?6?$AA@ DB 'where options are', 0aH
	DB	00H						; `string'
CONST	ENDS
;	COMDAT ??_C@_0BI@MNFGICID@?$CFs?5?$FLoptions?$FN?5?$FLnumbits?$FN?6?$AA@
CONST	SEGMENT
??_C@_0BI@MNFGICID@?$CFs?5?$FLoptions?$FN?5?$FLnumbits?$FN?6?$AA@ DB '%s '
	DB	'[options] [numbits]', 0aH, 00H		; `string'
CONST	ENDS
;	COMDAT ??_C@_02DPKJAMEF@?$CFd?$AA@
CONST	SEGMENT
??_C@_02DPKJAMEF@?$CFd?$AA@ DB '%d', 00H		; `string'
CONST	ENDS
;	COMDAT ??_C@_05LGFPCDPE@?9rand?$AA@
CONST	SEGMENT
??_C@_05LGFPCDPE@?9rand?$AA@ DB '-rand', 00H		; `string'
CONST	ENDS
;	COMDAT ??_C@_02JCBKDBOI@?95?$AA@
CONST	SEGMENT
??_C@_02JCBKDBOI@?95?$AA@ DB '-5', 00H			; `string'
CONST	ENDS
;	COMDAT ??_C@_02NNFLKHCP@?92?$AA@
CONST	SEGMENT
??_C@_02NNFLKHCP@?92?$AA@ DB '-2', 00H			; `string'
CONST	ENDS
;	COMDAT ??_C@_06JPEJAHHH@?9noout?$AA@
CONST	SEGMENT
??_C@_06JPEJAHHH@?9noout?$AA@ DB '-noout', 00H		; `string'
CONST	ENDS
;	COMDAT ??_C@_02OLHPOPJI@?9C?$AA@
CONST	SEGMENT
??_C@_02OLHPOPJI@?9C?$AA@ DB '-C', 00H			; `string'
CONST	ENDS
;	COMDAT ??_C@_09FPEHJBLF@?9dsaparam?$AA@
CONST	SEGMENT
??_C@_09FPEHJBLF@?9dsaparam?$AA@ DB '-dsaparam', 00H	; `string'
CONST	ENDS
;	COMDAT ??_C@_05OEBEIMJA@?9text?$AA@
CONST	SEGMENT
??_C@_05OEBEIMJA@?9text?$AA@ DB '-text', 00H		; `string'
CONST	ENDS
;	COMDAT ??_C@_06CLLLPJIB@?9check?$AA@
CONST	SEGMENT
??_C@_06CLLLPJIB@?9check?$AA@ DB '-check', 00H		; `string'
CONST	ENDS
;	COMDAT ??_C@_07CECBDAGF@?9engine?$AA@
CONST	SEGMENT
??_C@_07CECBDAGF@?9engine?$AA@ DB '-engine', 00H	; `string'
CONST	ENDS
;	COMDAT ??_C@_04HKKABCEL@?9out?$AA@
CONST	SEGMENT
??_C@_04HKKABCEL@?9out?$AA@ DB '-out', 00H		; `string'
CONST	ENDS
;	COMDAT ??_C@_03DAJLOBIG@?9in?$AA@
CONST	SEGMENT
??_C@_03DAJLOBIG@?9in?$AA@ DB '-in', 00H		; `string'
CONST	ENDS
;	COMDAT ??_C@_08LPHBEAIF@?9outform?$AA@
CONST	SEGMENT
??_C@_08LPHBEAIF@?9outform?$AA@ DB '-outform', 00H	; `string'
CONST	ENDS
;	COMDAT ??_C@_07CGGPPMGB@?9inform?$AA@
CONST	SEGMENT
??_C@_07CGGPPMGB@?9inform?$AA@ DB '-inform', 00H	; `string'
CONST	ENDS
; Function compile flags: /Ogtpy
;	COMDAT _dhparam_main
_TEXT	SEGMENT
_i$ = -80						; size = 4
_g$1$ = -76						; size = 4
_dh$1$ = -76						; size = 4
_num$ = -72						; size = 4
_inrand$1$ = -68					; size = 4
_out$1$ = -64						; size = 4
_engine$1$ = -60					; size = 4
_dsaparam$1$ = -56					; size = 4
_infile$1$ = -52					; size = 4
_informat$1$ = -48					; size = 4
_outfile$1$ = -44					; size = 4
_text$1$ = -40						; size = 4
_check$1$ = -36						; size = 4
_C$1$ = -32						; size = 4
_noout$1$ = -28						; size = 4
_outformat$1$ = -24					; size = 4
_in$1$ = -20						; size = 4
_prog$1$ = -16						; size = 4
_cb$1 = -12						; size = 12
_argc$ = 8						; size = 4
_argv$ = 12						; size = 4
_dhparam_main PROC					; COMDAT
; File c:\workpace\openssl\openssl-1.0.2h\apps\dhparam.c
; Line 152
	mov	eax, 80					; 00000050H
	call	__chkstk
; Line 169
	mov	eax, DWORD PTR _bio_err
	push	ebx
	push	ebp
	xor	ebp, ebp
	xor	ebx, ebx
	mov	DWORD PTR _text$1$[esp+88], ebp
	mov	DWORD PTR _dsaparam$1$[esp+88], ebp
	mov	DWORD PTR _in$1$[esp+88], ebp
	mov	DWORD PTR _out$1$[esp+88], ebp
	mov	DWORD PTR _check$1$[esp+88], ebp
	mov	DWORD PTR _noout$1$[esp+88], ebp
	mov	DWORD PTR _C$1$[esp+88], ebp
	mov	DWORD PTR _inrand$1$[esp+88], ebp
	mov	DWORD PTR _engine$1$[esp+88], ebp
	mov	DWORD PTR _num$[esp+88], ebp
	mov	DWORD PTR _g$1$[esp+88], ebx
	test	eax, eax
	jne	SHORT $LN11@dhparam_ma
; Line 170
	call	_BIO_s_file
	push	eax
	call	_BIO_new
	add	esp, 4
	mov	DWORD PTR _bio_err, eax
	test	eax, eax
	je	SHORT $LN11@dhparam_ma
; Line 171
	push	2
	call	DWORD PTR __imp____acrt_iob_func
	push	eax
	push	16					; 00000010H
	push	106					; 0000006aH
	push	DWORD PTR _bio_err
	call	_BIO_ctrl
	mov	eax, DWORD PTR _bio_err
	add	esp, 20					; 00000014H
$LN11@dhparam_ma:
; Line 173
	push	0
	push	eax
	call	_load_config
	add	esp, 8
	test	eax, eax
	je	$LN181@dhparam_ma
; Line 182
	push	esi
	mov	esi, DWORD PTR _argc$[esp+88]
	push	edi
	mov	edi, DWORD PTR _argv$[esp+92]
	dec	esi
	mov	DWORD PTR _infile$1$[esp+96], ebx
	mov	DWORD PTR _outfile$1$[esp+96], ebx
	mov	DWORD PTR _informat$1$[esp+96], 3
	mov	eax, DWORD PTR [edi]
; Line 183
	add	edi, 4
	mov	DWORD PTR _outformat$1$[esp+96], 3
	mov	DWORD PTR _prog$1$[esp+96], eax
; Line 184
	cmp	esi, 1
	jl	$LN47@dhparam_ma
$LL2@dhparam_ma:
; Line 185
	mov	ebx, DWORD PTR [edi]
	mov	ecx, OFFSET ??_C@_07CGGPPMGB@?9inform?$AA@
	mov	eax, ebx
	npad	3
$LL128@dhparam_ma:
	mov	dl, BYTE PTR [eax]
	cmp	dl, BYTE PTR [ecx]
	jne	SHORT $LN129@dhparam_ma
	test	dl, dl
	je	SHORT $LN130@dhparam_ma
	mov	dl, BYTE PTR [eax+1]
	cmp	dl, BYTE PTR [ecx+1]
	jne	SHORT $LN129@dhparam_ma
	add	eax, 2
	add	ecx, 2
	test	dl, dl
	jne	SHORT $LL128@dhparam_ma
$LN130@dhparam_ma:
	xor	eax, eax
	jmp	SHORT $LN131@dhparam_ma
$LN129@dhparam_ma:
	sbb	eax, eax
	or	eax, 1
$LN131@dhparam_ma:
	test	eax, eax
	jne	SHORT $LN13@dhparam_ma
; Line 186
	dec	esi
	cmp	esi, 1
	jl	$bad$197
; Line 188
	push	DWORD PTR [edi+4]
	add	edi, 4
	call	_str2fmt
	add	esp, 4
	mov	DWORD PTR _informat$1$[esp+96], eax
	jmp	$LN185@dhparam_ma
$LN13@dhparam_ma:
; Line 189
	mov	ecx, OFFSET ??_C@_08LPHBEAIF@?9outform?$AA@
	mov	eax, ebx
$LL132@dhparam_ma:
	mov	dl, BYTE PTR [eax]
	cmp	dl, BYTE PTR [ecx]
	jne	SHORT $LN133@dhparam_ma
	test	dl, dl
	je	SHORT $LN134@dhparam_ma
	mov	dl, BYTE PTR [eax+1]
	cmp	dl, BYTE PTR [ecx+1]
	jne	SHORT $LN133@dhparam_ma
	add	eax, 2
	add	ecx, 2
	test	dl, dl
	jne	SHORT $LL132@dhparam_ma
$LN134@dhparam_ma:
	xor	eax, eax
	jmp	SHORT $LN135@dhparam_ma
$LN133@dhparam_ma:
	sbb	eax, eax
	or	eax, 1
$LN135@dhparam_ma:
	test	eax, eax
	jne	SHORT $LN16@dhparam_ma
; Line 190
	dec	esi
	cmp	esi, 1
	jl	$bad$197
; Line 192
	push	DWORD PTR [edi+4]
	add	edi, 4
	call	_str2fmt
	add	esp, 4
	mov	DWORD PTR _outformat$1$[esp+96], eax
	jmp	$LN185@dhparam_ma
$LN16@dhparam_ma:
; Line 193
	mov	ecx, OFFSET ??_C@_03DAJLOBIG@?9in?$AA@
	mov	eax, ebx
$LL136@dhparam_ma:
	mov	dl, BYTE PTR [eax]
	cmp	dl, BYTE PTR [ecx]
	jne	SHORT $LN137@dhparam_ma
	test	dl, dl
	je	SHORT $LN138@dhparam_ma
	mov	dl, BYTE PTR [eax+1]
	cmp	dl, BYTE PTR [ecx+1]
	jne	SHORT $LN137@dhparam_ma
	add	eax, 2
	add	ecx, 2
	test	dl, dl
	jne	SHORT $LL136@dhparam_ma
$LN138@dhparam_ma:
	xor	eax, eax
	jmp	SHORT $LN139@dhparam_ma
$LN137@dhparam_ma:
	sbb	eax, eax
	or	eax, 1
$LN139@dhparam_ma:
	test	eax, eax
	jne	SHORT $LN19@dhparam_ma
; Line 194
	dec	esi
	cmp	esi, 1
	jl	$bad$197
; Line 196
	mov	edx, DWORD PTR [edi+4]
	add	edi, 4
	mov	DWORD PTR _infile$1$[esp+96], edx
	jmp	$LN185@dhparam_ma
$LN19@dhparam_ma:
; Line 197
	mov	ecx, OFFSET ??_C@_04HKKABCEL@?9out?$AA@
	mov	eax, ebx
	npad	5
$LL140@dhparam_ma:
	mov	dl, BYTE PTR [eax]
	cmp	dl, BYTE PTR [ecx]
	jne	SHORT $LN141@dhparam_ma
	test	dl, dl
	je	SHORT $LN142@dhparam_ma
	mov	dl, BYTE PTR [eax+1]
	cmp	dl, BYTE PTR [ecx+1]
	jne	SHORT $LN141@dhparam_ma
	add	eax, 2
	add	ecx, 2
	test	dl, dl
	jne	SHORT $LL140@dhparam_ma
$LN142@dhparam_ma:
	xor	eax, eax
	jmp	SHORT $LN143@dhparam_ma
$LN141@dhparam_ma:
	sbb	eax, eax
	or	eax, 1
$LN143@dhparam_ma:
	test	eax, eax
	jne	SHORT $LN22@dhparam_ma
; Line 198
	dec	esi
	cmp	esi, 1
	jl	$bad$197
; Line 200
	mov	edx, DWORD PTR [edi+4]
	add	edi, 4
	mov	DWORD PTR _outfile$1$[esp+96], edx
; Line 201
	jmp	$LN185@dhparam_ma
$LN22@dhparam_ma:
; Line 203
	mov	ecx, OFFSET ??_C@_07CECBDAGF@?9engine?$AA@
	mov	eax, ebx
	npad	7
$LL144@dhparam_ma:
	mov	dl, BYTE PTR [eax]
	cmp	dl, BYTE PTR [ecx]
	jne	SHORT $LN145@dhparam_ma
	test	dl, dl
	je	SHORT $LN146@dhparam_ma
	mov	dl, BYTE PTR [eax+1]
	cmp	dl, BYTE PTR [ecx+1]
	jne	SHORT $LN145@dhparam_ma
	add	eax, 2
	add	ecx, 2
	test	dl, dl
	jne	SHORT $LL144@dhparam_ma
$LN146@dhparam_ma:
	xor	eax, eax
	jmp	SHORT $LN147@dhparam_ma
$LN145@dhparam_ma:
	sbb	eax, eax
	or	eax, 1
$LN147@dhparam_ma:
	test	eax, eax
	jne	SHORT $LN25@dhparam_ma
; Line 204
	dec	esi
	cmp	esi, 1
	jl	$bad$197
; Line 206
	mov	eax, DWORD PTR [edi+4]
	add	edi, 4
	mov	DWORD PTR _engine$1$[esp+96], eax
; Line 207
	jmp	$LN185@dhparam_ma
$LN25@dhparam_ma:
; Line 209
	mov	ecx, OFFSET ??_C@_06CLLLPJIB@?9check?$AA@
	mov	eax, ebx
	npad	7
$LL148@dhparam_ma:
	mov	dl, BYTE PTR [eax]
	cmp	dl, BYTE PTR [ecx]
	jne	SHORT $LN149@dhparam_ma
	test	dl, dl
	je	SHORT $LN150@dhparam_ma
	mov	dl, BYTE PTR [eax+1]
	cmp	dl, BYTE PTR [ecx+1]
	jne	SHORT $LN149@dhparam_ma
	add	eax, 2
	add	ecx, 2
	test	dl, dl
	jne	SHORT $LL148@dhparam_ma
$LN150@dhparam_ma:
	xor	eax, eax
	jmp	SHORT $LN151@dhparam_ma
$LN149@dhparam_ma:
	sbb	eax, eax
	or	eax, 1
$LN151@dhparam_ma:
	test	eax, eax
	jne	SHORT $LN28@dhparam_ma
; Line 210
	mov	DWORD PTR _check$1$[esp+96], 1
	jmp	$LN185@dhparam_ma
$LN28@dhparam_ma:
; Line 211
	mov	ecx, OFFSET ??_C@_05OEBEIMJA@?9text?$AA@
	mov	eax, ebx
	npad	3
$LL152@dhparam_ma:
	mov	dl, BYTE PTR [eax]
	cmp	dl, BYTE PTR [ecx]
	jne	SHORT $LN153@dhparam_ma
	test	dl, dl
	je	SHORT $LN154@dhparam_ma
	mov	dl, BYTE PTR [eax+1]
	cmp	dl, BYTE PTR [ecx+1]
	jne	SHORT $LN153@dhparam_ma
	add	eax, 2
	add	ecx, 2
	test	dl, dl
	jne	SHORT $LL152@dhparam_ma
$LN154@dhparam_ma:
	xor	eax, eax
	jmp	SHORT $LN155@dhparam_ma
$LN153@dhparam_ma:
	sbb	eax, eax
	or	eax, 1
$LN155@dhparam_ma:
	test	eax, eax
	jne	SHORT $LN30@dhparam_ma
; Line 212
	mov	DWORD PTR _text$1$[esp+96], 1
	jmp	$LN185@dhparam_ma
$LN30@dhparam_ma:
; Line 214
	mov	ecx, OFFSET ??_C@_09FPEHJBLF@?9dsaparam?$AA@
	mov	eax, ebx
	npad	3
$LL156@dhparam_ma:
	mov	dl, BYTE PTR [eax]
	cmp	dl, BYTE PTR [ecx]
	jne	SHORT $LN157@dhparam_ma
	test	dl, dl
	je	SHORT $LN158@dhparam_ma
	mov	dl, BYTE PTR [eax+1]
	cmp	dl, BYTE PTR [ecx+1]
	jne	SHORT $LN157@dhparam_ma
	add	eax, 2
	add	ecx, 2
	test	dl, dl
	jne	SHORT $LL156@dhparam_ma
$LN158@dhparam_ma:
	xor	eax, eax
	jmp	SHORT $LN159@dhparam_ma
$LN157@dhparam_ma:
	sbb	eax, eax
	or	eax, 1
$LN159@dhparam_ma:
	test	eax, eax
	jne	SHORT $LN32@dhparam_ma
; Line 215
	mov	DWORD PTR _dsaparam$1$[esp+96], 1
	jmp	$LN185@dhparam_ma
$LN32@dhparam_ma:
; Line 217
	mov	ecx, OFFSET ??_C@_02OLHPOPJI@?9C?$AA@
	mov	eax, ebx
	npad	3
$LL160@dhparam_ma:
	mov	dl, BYTE PTR [eax]
	cmp	dl, BYTE PTR [ecx]
	jne	SHORT $LN161@dhparam_ma
	test	dl, dl
	je	SHORT $LN162@dhparam_ma
	mov	dl, BYTE PTR [eax+1]
	cmp	dl, BYTE PTR [ecx+1]
	jne	SHORT $LN161@dhparam_ma
	add	eax, 2
	add	ecx, 2
	test	dl, dl
	jne	SHORT $LL160@dhparam_ma
$LN162@dhparam_ma:
	xor	eax, eax
	jmp	SHORT $LN163@dhparam_ma
$LN161@dhparam_ma:
	sbb	eax, eax
	or	eax, 1
$LN163@dhparam_ma:
	test	eax, eax
	jne	SHORT $LN34@dhparam_ma
; Line 218
	mov	DWORD PTR _C$1$[esp+96], 1
	jmp	$LN185@dhparam_ma
$LN34@dhparam_ma:
; Line 219
	mov	ecx, OFFSET ??_C@_06JPEJAHHH@?9noout?$AA@
	mov	eax, ebx
	npad	3
$LL164@dhparam_ma:
	mov	dl, BYTE PTR [eax]
	cmp	dl, BYTE PTR [ecx]
	jne	SHORT $LN165@dhparam_ma
	test	dl, dl
	je	SHORT $LN166@dhparam_ma
	mov	dl, BYTE PTR [eax+1]
	cmp	dl, BYTE PTR [ecx+1]
	jne	SHORT $LN165@dhparam_ma
	add	eax, 2
	add	ecx, 2
	test	dl, dl
	jne	SHORT $LL164@dhparam_ma
$LN166@dhparam_ma:
	xor	eax, eax
	jmp	SHORT $LN167@dhparam_ma
$LN165@dhparam_ma:
	sbb	eax, eax
	or	eax, 1
$LN167@dhparam_ma:
	test	eax, eax
	jne	SHORT $LN36@dhparam_ma
; Line 220
	mov	DWORD PTR _noout$1$[esp+96], 1
	jmp	$LN185@dhparam_ma
$LN36@dhparam_ma:
; Line 221
	mov	ecx, OFFSET ??_C@_02NNFLKHCP@?92?$AA@
	mov	eax, ebx
	npad	3
$LL168@dhparam_ma:
	mov	dl, BYTE PTR [eax]
	cmp	dl, BYTE PTR [ecx]
	jne	SHORT $LN169@dhparam_ma
	test	dl, dl
	je	SHORT $LN170@dhparam_ma
	mov	dl, BYTE PTR [eax+1]
	cmp	dl, BYTE PTR [ecx+1]
	jne	SHORT $LN169@dhparam_ma
	add	eax, 2
	add	ecx, 2
	test	dl, dl
	jne	SHORT $LL168@dhparam_ma
$LN170@dhparam_ma:
	xor	eax, eax
	jmp	SHORT $LN171@dhparam_ma
$LN169@dhparam_ma:
	sbb	eax, eax
	or	eax, 1
$LN171@dhparam_ma:
	test	eax, eax
	jne	SHORT $LN38@dhparam_ma
; Line 222
	mov	ebx, 2
	mov	DWORD PTR _g$1$[esp+96], ebx
	jmp	$LN45@dhparam_ma
$LN38@dhparam_ma:
; Line 223
	mov	ecx, OFFSET ??_C@_02JCBKDBOI@?95?$AA@
	mov	eax, ebx
	npad	2
$LL172@dhparam_ma:
	mov	dl, BYTE PTR [eax]
	cmp	dl, BYTE PTR [ecx]
	jne	SHORT $LN173@dhparam_ma
	test	dl, dl
	je	SHORT $LN174@dhparam_ma
	mov	dl, BYTE PTR [eax+1]
	cmp	dl, BYTE PTR [ecx+1]
	jne	SHORT $LN173@dhparam_ma
	add	eax, 2
	add	ecx, 2
	test	dl, dl
	jne	SHORT $LL172@dhparam_ma
$LN174@dhparam_ma:
	xor	eax, eax
	jmp	SHORT $LN175@dhparam_ma
$LN173@dhparam_ma:
	sbb	eax, eax
	or	eax, 1
$LN175@dhparam_ma:
	test	eax, eax
	jne	SHORT $LN40@dhparam_ma
; Line 224
	mov	ebx, 5
	mov	DWORD PTR _g$1$[esp+96], ebx
	jmp	SHORT $LN45@dhparam_ma
$LN40@dhparam_ma:
; Line 225
	mov	ecx, OFFSET ??_C@_05LGFPCDPE@?9rand?$AA@
	mov	eax, ebx
	npad	5
$LL176@dhparam_ma:
	mov	dl, BYTE PTR [eax]
	cmp	dl, BYTE PTR [ecx]
	jne	SHORT $LN177@dhparam_ma
	test	dl, dl
	je	SHORT $LN178@dhparam_ma
	mov	dl, BYTE PTR [eax+1]
	cmp	dl, BYTE PTR [ecx+1]
	jne	SHORT $LN177@dhparam_ma
	add	eax, 2
	add	ecx, 2
	test	dl, dl
	jne	SHORT $LL176@dhparam_ma
$LN178@dhparam_ma:
	xor	eax, eax
	jmp	SHORT $LN179@dhparam_ma
$LN177@dhparam_ma:
	sbb	eax, eax
	or	eax, 1
$LN179@dhparam_ma:
	test	eax, eax
	jne	SHORT $LN42@dhparam_ma
; Line 226
	dec	esi
	cmp	esi, 1
	jl	$bad$197
; Line 228
	mov	eax, DWORD PTR [edi+4]
	add	edi, 4
	mov	DWORD PTR _inrand$1$[esp+96], eax
	jmp	SHORT $LN185@dhparam_ma
$LN42@dhparam_ma:
; Line 229
	lea	eax, DWORD PTR _num$[esp+96]
	push	eax
	push	OFFSET ??_C@_02DPKJAMEF@?$CFd?$AA@
	push	ebx
	call	_sscanf
	add	esp, 12					; 0000000cH
	test	eax, eax
	je	SHORT $bad$197
	cmp	DWORD PTR _num$[esp+96], ebp
	jle	SHORT $bad$197
$LN185@dhparam_ma:
	mov	ebx, DWORD PTR _g$1$[esp+96]
$LN45@dhparam_ma:
; Line 232
	dec	esi
	add	edi, 4
	cmp	esi, 1
	jge	$LL2@dhparam_ma
$LN47@dhparam_ma:
; Line 271
	call	_ERR_load_crypto_strings
; Line 274
	push	0
	push	DWORD PTR _engine$1$[esp+100]
	push	DWORD PTR _bio_err
	call	_setup_engine
; Line 277
	mov	eax, DWORD PTR _num$[esp+108]
	add	esp, 12					; 0000000cH
	test	ebx, ebx
	je	SHORT $LN48@dhparam_ma
	test	eax, eax
	mov	ecx, 2048				; 00000800H
	cmove	eax, ecx
	mov	DWORD PTR _num$[esp+96], eax
$LN48@dhparam_ma:
; Line 281
	mov	esi, DWORD PTR _dsaparam$1$[esp+96]
	test	esi, esi
	je	$LN49@dhparam_ma
; Line 282
	test	ebx, ebx
	je	$LN52@dhparam_ma
; Line 283
	push	OFFSET ??_C@_0DA@BIFNEJD@generator?5may?5not?5be?5chosen?5for?5@
	push	DWORD PTR _bio_err
	call	_BIO_printf
	add	esp, 8
; Line 516
	mov	eax, 1
	pop	edi
	pop	esi
	pop	ebp
	pop	ebx
; Line 517
	add	esp, 80					; 00000050H
	ret	0
$bad$197:
; Line 237
	push	DWORD PTR _prog$1$[esp+96]
	push	OFFSET ??_C@_0BI@MNFGICID@?$CFs?5?$FLoptions?$FN?5?$FLnumbits?$FN?6?$AA@
	push	DWORD PTR _bio_err
	call	_BIO_printf
; Line 238
	push	OFFSET ??_C@_0BD@KHANLAHK@where?5options?5are?6?$AA@
	push	DWORD PTR _bio_err
	call	_BIO_printf
; Line 239
	push	OFFSET ??_C@_0CO@HFLABMMF@?5?9inform?5arg?5?5?5input?5format?5?9?5on@
	push	DWORD PTR _bio_err
	call	_BIO_printf
; Line 240
	push	OFFSET ??_C@_0CP@JJNBIGFP@?5?9outform?5arg?5?5output?5format?5?9?5o@
	push	DWORD PTR _bio_err
	call	_BIO_printf
; Line 242
	push	OFFSET ??_C@_0BL@EHLIKLH@?5?9in?5arg?5?5?5?5?5?5?5input?5file?6?$AA@
	push	DWORD PTR _bio_err
	call	_BIO_printf
; Line 243
	push	OFFSET ??_C@_0BM@JAFLIPIN@?5?9out?5arg?5?5?5?5?5?5output?5file?6?$AA@
	push	DWORD PTR _bio_err
	call	_BIO_printf
; Line 245
	push	OFFSET ??_C@_0DP@OPICDCND@?5?9dsaparam?5?5?5?5?5read?5or?5generate?5@
	push	DWORD PTR _bio_err
	call	_BIO_printf
; Line 248
	push	OFFSET ??_C@_0CI@BBHHCPJC@?5?9check?5?5?5?5?5?5?5?5check?5the?5DH?5para@
	push	DWORD PTR _bio_err
	call	_BIO_printf
	add	esp, 68					; 00000044H
; Line 249
	push	OFFSET ??_C@_0DH@EGLMLFJL@?5?9text?5?5?5?5?5?5?5?5?5print?5a?5text?5form@
	push	DWORD PTR _bio_err
	call	_BIO_printf
; Line 251
	push	OFFSET ??_C@_0BO@KEIHOKJC@?5?9C?5?5?5?5?5?5?5?5?5?5?5?5Output?5C?5code?6?$AA@
	push	DWORD PTR _bio_err
	call	_BIO_printf
; Line 252
	push	OFFSET ??_C@_0EE@BMLLMFHN@?5?92?5?5?5?5?5?5?5?5?5?5?5?5generate?5paramete@
	push	DWORD PTR _bio_err
	call	_BIO_printf
; Line 254
	push	OFFSET ??_C@_0EE@OCJFPLEH@?5?95?5?5?5?5?5?5?5?5?5?5?5?5generate?5paramete@
	push	DWORD PTR _bio_err
	call	_BIO_printf
; Line 256
	push	OFFSET ??_C@_0DN@CGMMDKJL@?5numbits?5?5?5?5?5?5?5number?5of?5bits?5in@
	push	DWORD PTR _bio_err
	call	_BIO_printf
; Line 259
	push	OFFSET ??_C@_0DK@OCLGLONK@?5?9engine?5e?5?5?5?5?5use?5engine?5e?0?5pos@
	push	DWORD PTR _bio_err
	call	_BIO_printf
; Line 262
	push	59					; 0000003bH
	push	59					; 0000003bH
	push	OFFSET ??_C@_0BI@HHIJKENB@?5?9rand?5file?$CFcfile?$CFc?4?4?4?6?$AA@
	push	DWORD PTR _bio_err
	call	_BIO_printf
	add	esp, 64					; 00000040H
; Line 264
	push	OFFSET ??_C@_0EF@IFMCBMJK@?5?5?5?5?5?5?5?5?5?5?5?5?5?5?5?9?5load?5the?5file?5?$CI@
	push	DWORD PTR _bio_err
	call	_BIO_printf
; Line 266
	push	OFFSET ??_C@_0CM@HMDFFJAF@?5?5?5?5?5?5?5?5?5?5?5?5?5?5?5the?5random?5number@
	push	DWORD PTR _bio_err
	call	_BIO_printf
; Line 267
	push	OFFSET ??_C@_0BK@ELEJBNIF@?5?9noout?5?5?5?5?5?5?5?5no?5output?6?$AA@
	push	DWORD PTR _bio_err
	call	_BIO_printf
	add	esp, 24					; 00000018H
; Line 516
	mov	eax, 1
	pop	edi
	pop	esi
	pop	ebp
	pop	ebx
; Line 517
	add	esp, 80					; 00000050H
	ret	0
$LN49@dhparam_ma:
; Line 291
	test	eax, eax
	je	$LN53@dhparam_ma
	test	ebx, ebx
	mov	ecx, 2
	cmove	ebx, ecx
$LN52@dhparam_ma:
; Line 295
	test	eax, eax
	je	$LN53@dhparam_ma
; Line 298
	mov	eax, DWORD PTR _bio_err
; Line 299
	push	1
	push	eax
	push	0
	mov	DWORD PTR _cb$1[esp+108], 2
	mov	DWORD PTR _cb$1[esp+112], eax
	mov	DWORD PTR _cb$1[esp+116], OFFSET _dh_cb
	call	_app_RAND_load_file
	add	esp, 12					; 0000000cH
	test	eax, eax
	mov	eax, DWORD PTR _inrand$1$[esp+96]
	jne	SHORT $LN55@dhparam_ma
	test	eax, eax
	jne	SHORT $LN127@dhparam_ma
; Line 300
	push	OFFSET ??_C@_0EG@NMHBLOCJ@warning?0?5not?5much?5extra?5random?5d@
	push	DWORD PTR _bio_err
	call	_BIO_printf
	add	esp, 8
; Line 303
	jmp	SHORT $LN56@dhparam_ma
$LN55@dhparam_ma:
	test	eax, eax
	je	SHORT $LN56@dhparam_ma
$LN127@dhparam_ma:
; Line 304
	push	eax
	call	_app_RAND_load_files
	push	eax
	push	OFFSET ??_C@_0BO@JENMPIEN@?$CFld?5semi?9random?5bytes?5loaded?6?$AA@
	push	DWORD PTR _bio_err
	call	_BIO_printf
	add	esp, 16					; 00000010H
$LN56@dhparam_ma:
; Line 308
	test	esi, esi
	je	$LN57@dhparam_ma
; Line 309
	call	_DSA_new
; Line 311
	push	DWORD PTR _num$[esp+96]
	mov	esi, eax
	push	OFFSET ??_C@_0CO@MBCDDJGG@Generating?5DSA?5parameters?0?5?$CFd?5bi@
	push	DWORD PTR _bio_err
	call	_BIO_printf
	add	esp, 12					; 0000000cH
; Line 314
	test	esi, esi
	je	SHORT $LN61@dhparam_ma
	lea	eax, DWORD PTR _cb$1[esp+96]
	push	eax
	push	0
	push	0
	push	0
	push	0
	push	DWORD PTR _num$[esp+116]
	push	esi
	call	_DSA_generate_parameters_ex
	add	esp, 28					; 0000001cH
; Line 322
	push	esi
	test	eax, eax
	je	SHORT $LN60@dhparam_ma
	call	_DSA_dup_DH
	mov	ebp, eax
; Line 323
	push	esi
	mov	DWORD PTR _dh$1$[esp+104], ebp
	call	_DSA_free
	add	esp, 8
; Line 324
	test	ebp, ebp
	jne	$LN63@dhparam_ma
; Line 326
	jmp	SHORT $LN61@dhparam_ma
$LN60@dhparam_ma:
; Line 317
	call	_DSA_free
	add	esp, 4
$LN61@dhparam_ma:
; Line 318
	push	DWORD PTR _bio_err
	call	_ERR_print_errors
	add	esp, 4
; Line 516
	mov	eax, 1
	pop	edi
	pop	esi
	pop	ebp
	pop	ebx
; Line 517
	add	esp, 80					; 00000050H
	ret	0
$LN57@dhparam_ma:
; Line 331
	call	_DH_new
; Line 332
	push	ebx
	push	DWORD PTR _num$[esp+100]
	mov	ebp, eax
	mov	DWORD PTR _dh$1$[esp+104], eax
	push	OFFSET ??_C@_0EA@BEOHJPIA@Generating?5DH?5parameters?0?5?$CFd?5bit@
	push	DWORD PTR _bio_err
	call	_BIO_printf
; Line 335
	push	OFFSET ??_C@_0CD@OEGFFOKJ@This?5is?5going?5to?5take?5a?5long?5tim@
	push	DWORD PTR _bio_err
	call	_BIO_printf
	add	esp, 24					; 00000018H
; Line 336
	test	ebp, ebp
	je	SHORT $LN64@dhparam_ma
	lea	eax, DWORD PTR _cb$1[esp+96]
	push	eax
	push	ebx
	push	DWORD PTR _num$[esp+104]
	push	ebp
	call	_DH_generate_parameters_ex
	add	esp, 16					; 00000010H
	test	eax, eax
	je	SHORT $LN64@dhparam_ma
$LN63@dhparam_ma:
; Line 342
	push	DWORD PTR _bio_err
	push	0
	call	_app_RAND_write_file
	add	esp, 8
$LN78@dhparam_ma:
; Line 402
	call	_BIO_s_file
	push	eax
	call	_BIO_new
	mov	ebx, eax
	add	esp, 4
	mov	DWORD PTR _out$1$[esp+96], ebx
; Line 403
	test	ebx, ebx
	jne	$LN79@dhparam_ma
; Line 404
	push	DWORD PTR _bio_err
	call	_ERR_print_errors
	add	esp, 4
	lea	esi, DWORD PTR [ebx+1]
	jmp	$end$198
$LN64@dhparam_ma:
; Line 337
	push	DWORD PTR _bio_err
	call	_ERR_print_errors
; Line 338
	mov	esi, 1
	jmp	$LN186@dhparam_ma
$LN53@dhparam_ma:
; Line 345
	call	_BIO_s_file
	push	eax
	call	_BIO_new
	mov	edi, eax
	add	esp, 4
	mov	DWORD PTR _in$1$[esp+96], edi
; Line 346
	test	edi, edi
	je	$LN61@dhparam_ma
; Line 350
	mov	ebx, DWORD PTR _infile$1$[esp+96]
	test	ebx, ebx
	jne	SHORT $LN66@dhparam_ma
; Line 351
	push	ebx
	call	DWORD PTR __imp____acrt_iob_func
	push	eax
	push	ebx
	push	106					; 0000006aH
	push	edi
	call	_BIO_ctrl
	add	esp, 20					; 00000014H
$LN68@dhparam_ma:
; Line 359
	mov	eax, DWORD PTR _informat$1$[esp+96]
	cmp	eax, 1
	je	SHORT $LN69@dhparam_ma
	cmp	eax, 3
	je	SHORT $LN69@dhparam_ma
; Line 360
	push	OFFSET ??_C@_0BM@PDLDHKCN@bad?5input?5format?5specified?6?$AA@
$LN191@dhparam_ma:
	push	DWORD PTR _bio_err
	call	_BIO_printf
	add	esp, 8
; Line 361
	mov	esi, 1
	jmp	$end$198
$LN66@dhparam_ma:
; Line 353
	push	ebx
	push	3
	push	108					; 0000006cH
	push	edi
	call	_BIO_ctrl
	add	esp, 16					; 00000010H
	test	eax, eax
	jg	SHORT $LN68@dhparam_ma
; Line 354
	push	ebx
	call	DWORD PTR __imp__perror
	add	esp, 4
; Line 355
	mov	esi, 1
	jmp	$end$198
$LN69@dhparam_ma:
; Line 368
	push	0
	test	esi, esi
	je	$LN70@dhparam_ma
; Line 367
	cmp	eax, 1
	jne	SHORT $LN72@dhparam_ma
; Line 368
	push	edi
	push	OFFSET _d2i_DSAparams
	push	OFFSET _DSA_new
	call	_ASN1_d2i_bio
	jmp	SHORT $LN187@dhparam_ma
$LN72@dhparam_ma:
; Line 370
	push	0
	push	0
	push	edi
	call	_PEM_read_bio_DSAparams
$LN187@dhparam_ma:
	mov	esi, eax
	add	esp, 16					; 00000010H
; Line 372
	test	esi, esi
	jne	SHORT $LN74@dhparam_ma
; Line 373
	push	OFFSET ??_C@_0BP@GLONFKAC@unable?5to?5load?5DSA?5parameters?6?$AA@
$LN193@dhparam_ma:
	push	DWORD PTR _bio_err
	call	_BIO_printf
; Line 374
	push	DWORD PTR _bio_err
	call	_ERR_print_errors
	add	esp, 12					; 0000000cH
; Line 375
	mov	esi, 1
	jmp	$end$198
$LN74@dhparam_ma:
; Line 378
	push	esi
	call	_DSA_dup_DH
	mov	ebp, eax
; Line 379
	push	esi
	mov	DWORD PTR _dh$1$[esp+104], ebp
	call	_DSA_free
	add	esp, 8
; Line 380
	test	ebp, ebp
	jne	$LN78@dhparam_ma
; Line 381
	push	DWORD PTR _bio_err
	call	_ERR_print_errors
	add	esp, 4
; Line 382
	lea	esi, DWORD PTR [ebp+1]
	jmp	$end$198
$LN70@dhparam_ma:
; Line 387
	cmp	eax, 1
	jne	SHORT $LN76@dhparam_ma
; Line 388
	push	edi
	push	OFFSET _d2i_DHparams
	push	OFFSET _DH_new
	call	_ASN1_d2i_bio
	mov	ebp, eax
	mov	DWORD PTR _dh$1$[esp+112], ebp
	jmp	SHORT $LN188@dhparam_ma
$LN76@dhparam_ma:
; Line 390
	push	0
	push	0
	push	edi
	call	_PEM_read_bio_DHparams
	mov	ebp, eax
	mov	DWORD PTR _dh$1$[esp+112], eax
$LN188@dhparam_ma:
	add	esp, 16					; 00000010H
; Line 392
	test	ebp, ebp
	jne	$LN78@dhparam_ma
; Line 393
	push	OFFSET ??_C@_0BO@FFFNONMG@unable?5to?5load?5DH?5parameters?6?$AA@
; Line 395
	jmp	$LN193@dhparam_ma
$LN79@dhparam_ma:
; Line 407
	mov	esi, DWORD PTR _outfile$1$[esp+96]
	test	esi, esi
	jne	SHORT $LN80@dhparam_ma
; Line 408
	push	1
	call	DWORD PTR __imp____acrt_iob_func
	push	eax
	push	esi
	push	106					; 0000006aH
	push	ebx
	call	_BIO_ctrl
	add	esp, 20					; 00000014H
$LN82@dhparam_ma:
; Line 422
	cmp	DWORD PTR _text$1$[esp+96], 0
	je	SHORT $LN83@dhparam_ma
; Line 423
	push	ebp
	push	ebx
	call	_DHparams_print
	add	esp, 8
$LN83@dhparam_ma:
; Line 426
	cmp	DWORD PTR _check$1$[esp+96], 0
	je	$LN90@dhparam_ma
; Line 427
	lea	eax, DWORD PTR _i$[esp+96]
	push	eax
	push	ebp
	call	_DH_check
	add	esp, 8
	test	eax, eax
	jne	SHORT $LN85@dhparam_ma
; Line 428
	push	DWORD PTR _bio_err
	call	_ERR_print_errors
	add	esp, 4
	mov	esi, 1
	jmp	$end$198
$LN80@dhparam_ma:
; Line 416
	push	esi
	push	5
	push	108					; 0000006cH
	push	ebx
	call	_BIO_ctrl
	add	esp, 16					; 00000010H
	test	eax, eax
	jg	SHORT $LN82@dhparam_ma
; Line 417
	push	esi
	call	DWORD PTR __imp__perror
	add	esp, 4
	mov	esi, 1
	jmp	$end$198
$LN85@dhparam_ma:
; Line 431
	mov	eax, DWORD PTR _i$[esp+96]
	test	al, 1
	je	SHORT $LN86@dhparam_ma
; Line 432
	push	OFFSET ??_C@_0BG@HEKOLPHE@p?5value?5is?5not?5prime?6?$AA@
	call	_printf
	mov	eax, DWORD PTR _i$[esp+100]
	add	esp, 4
$LN86@dhparam_ma:
; Line 433
	test	al, 2
	je	SHORT $LN87@dhparam_ma
; Line 434
	push	OFFSET ??_C@_0BN@HECLLLLM@p?5value?5is?5not?5a?5safe?5prime?6?$AA@
	call	_printf
	mov	eax, DWORD PTR _i$[esp+100]
	add	esp, 4
$LN87@dhparam_ma:
; Line 435
	test	al, 4
	je	SHORT $LN88@dhparam_ma
; Line 436
	push	OFFSET ??_C@_0CF@HHDJLALM@unable?5to?5check?5the?5generator?5va@
	call	_printf
	mov	eax, DWORD PTR _i$[esp+100]
	add	esp, 4
$LN88@dhparam_ma:
; Line 437
	test	al, 8
	je	SHORT $LN89@dhparam_ma
; Line 438
	push	OFFSET ??_C@_0CA@MNMNOHDI@the?5g?5value?5is?5not?5a?5generator?6?$AA@
	call	_printf
	mov	eax, DWORD PTR _i$[esp+100]
	add	esp, 4
$LN89@dhparam_ma:
; Line 439
	test	eax, eax
	jne	SHORT $LN90@dhparam_ma
; Line 440
	push	OFFSET ??_C@_0CA@HEFPAMBO@DH?5parameters?5appear?5to?5be?5ok?4?6?$AA@
	call	_printf
	add	esp, 4
$LN90@dhparam_ma:
; Line 442
	cmp	DWORD PTR _C$1$[esp+96], 0
	je	$LN91@dhparam_ma
; Line 446
	push	DWORD PTR [ebp+8]
	call	_BN_num_bits
; Line 447
	push	DWORD PTR [ebp+8]
	add	eax, 7
	cdq
	and	edx, 7
	lea	esi, DWORD PTR [edx+eax]
	sar	esi, 3
	call	_BN_num_bits
; Line 448
	push	448					; 000001c0H
	push	OFFSET ??_C@_0BB@FFBDENLP@?4?2apps?2dhparam?4c?$AA@
	push	esi
	mov	ebx, eax
	call	_CRYPTO_malloc
	mov	edi, eax
	add	esp, 20					; 00000014H
; Line 449
	test	edi, edi
	jne	SHORT $LN92@dhparam_ma
; Line 450
	push	OFFSET ??_C@_0P@OGNLMJHA@OPENSSL_malloc?$AA@
	call	DWORD PTR __imp__perror
	add	esp, 4
	lea	esi, DWORD PTR [edi+1]
	jmp	$end$198
$LN92@dhparam_ma:
; Line 453
	push	OFFSET ??_C@_0DE@GKMDPIAB@?$CDifndef?5HEADER_DH_H?6?$CDinclude?5?$DMop@
	call	_printf
; Line 455
	push	ebx
	push	OFFSET ??_C@_0BD@PDHPFBMJ@DH?5?$CKget_dh?$CFd?$CI?$CJ?6?7?$HL?6?$AA@
	call	_printf
; Line 457
	push	edi
	push	DWORD PTR [ebp+8]
	call	_BN_bn2bin
; Line 458
	push	ebx
	push	OFFSET ??_C@_0CB@GACNPENH@?7static?5unsigned?5char?5dh?$CFd_p?$FL?$FN?$DN?$HL@
	mov	ebp, eax
	call	_printf
; Line 459
	xor	esi, esi
	add	esp, 28					; 0000001cH
	mov	DWORD PTR _i$[esp+96], esi
	test	ebp, ebp
	jle	SHORT $LN5@dhparam_ma
	npad	7
$LL6@dhparam_ma:
; Line 460
	mov	eax, 715827883				; 2aaaaaabH
	imul	esi
	sar	edx, 1
	mov	eax, edx
	shr	eax, 31					; 0000001fH
	add	eax, edx
	lea	ecx, DWORD PTR [eax+eax*2]
	mov	eax, esi
	shl	ecx, 2
	sub	eax, ecx
	jne	SHORT $LN93@dhparam_ma
; Line 461
	push	OFFSET ??_C@_03GPBFEAEB@?6?7?7?$AA@
	call	_printf
	mov	esi, DWORD PTR _i$[esp+100]
	add	esp, 4
$LN93@dhparam_ma:
; Line 462
	movzx	eax, BYTE PTR [edi+esi]
	push	eax
	push	OFFSET ??_C@_07DHGLOFCI@0x?$CF02X?0?$AA@
	call	_printf
	mov	esi, DWORD PTR _i$[esp+104]
	add	esp, 8
	inc	esi
	mov	DWORD PTR _i$[esp+96], esi
	cmp	esi, ebp
	jl	SHORT $LL6@dhparam_ma
$LN5@dhparam_ma:
; Line 464
	push	OFFSET ??_C@_06KHHINGMM@?6?7?7?$HN?$DL?6?$AA@
	call	_printf
; Line 466
	mov	eax, DWORD PTR _dh$1$[esp+100]
	push	edi
	push	DWORD PTR [eax+12]
	call	_BN_bn2bin
; Line 467
	push	ebx
	push	OFFSET ??_C@_0CB@HOPOMGPE@?7static?5unsigned?5char?5dh?$CFd_g?$FL?$FN?$DN?$HL@
	mov	ebp, eax
	call	_printf
; Line 468
	xor	esi, esi
	add	esp, 20					; 00000014H
	mov	DWORD PTR _i$[esp+96], esi
	test	ebp, ebp
	jle	SHORT $LN8@dhparam_ma
	npad	3
$LL9@dhparam_ma:
; Line 469
	mov	eax, 715827883				; 2aaaaaabH
	imul	esi
	sar	edx, 1
	mov	eax, edx
	shr	eax, 31					; 0000001fH
	add	eax, edx
	lea	ecx, DWORD PTR [eax+eax*2]
	mov	eax, esi
	shl	ecx, 2
	sub	eax, ecx
	jne	SHORT $LN94@dhparam_ma
; Line 470
	push	OFFSET ??_C@_03GPBFEAEB@?6?7?7?$AA@
	call	_printf
	mov	esi, DWORD PTR _i$[esp+100]
	add	esp, 4
$LN94@dhparam_ma:
; Line 471
	movzx	eax, BYTE PTR [edi+esi]
	push	eax
	push	OFFSET ??_C@_07DHGLOFCI@0x?$CF02X?0?$AA@
	call	_printf
	mov	esi, DWORD PTR _i$[esp+104]
	add	esp, 8
	inc	esi
	mov	DWORD PTR _i$[esp+96], esi
	cmp	esi, ebp
	jl	SHORT $LL9@dhparam_ma
$LN8@dhparam_ma:
; Line 473
	push	OFFSET ??_C@_06KHHINGMM@?6?7?7?$HN?$DL?6?$AA@
	call	_printf
; Line 475
	push	OFFSET ??_C@_0L@GFOABBOL@?7DH?5?$CKdh?$DL?6?6?$AA@
	call	_printf
; Line 476
	push	OFFSET ??_C@_0CL@FJKPNLKA@?7if?5?$CI?$CIdh?$DNDH_new?$CI?$CJ?$CJ?5?$DN?$DN?5NULL?$CJ?5retu@
	call	_printf
; Line 477
	push	ebx
	push	ebx
	push	OFFSET ??_C@_0CP@FNEBIMJB@?7dh?9?$DOp?$DNBN_bin2bn?$CIdh?$CFd_p?0sizeof?$CId@
	call	_printf
; Line 479
	push	ebx
	push	ebx
	push	OFFSET ??_C@_0CP@IOLDHNHJ@?7dh?9?$DOg?$DNBN_bin2bn?$CIdh?$CFd_g?0sizeof?$CId@
	call	_printf
; Line 481
	push	OFFSET ??_C@_0CK@IPHOBDHF@?7if?5?$CI?$CIdh?9?$DOp?5?$DN?$DN?5NULL?$CJ?5?$HM?$HM?5?$CIdh?9?$DOg?5?$DN@
	call	_printf
; Line 482
	push	OFFSET ??_C@_0CC@MEGBNOEK@?7?7?$HL?5DH_free?$CIdh?$CJ?$DL?5return?$CINULL?$CJ?$DL?5?$HN@
	call	_printf
; Line 483
	mov	ebp, DWORD PTR _dh$1$[esp+140]
	add	esp, 44					; 0000002cH
	mov	eax, DWORD PTR [ebp+16]
	test	eax, eax
	je	SHORT $LN95@dhparam_ma
; Line 484
	push	eax
	push	OFFSET ??_C@_0BE@ICHMBAIO@?7dh?9?$DOlength?5?$DN?5?$CFld?$DL?6?$AA@
	call	_printf
	add	esp, 8
$LN95@dhparam_ma:
; Line 485
	push	OFFSET ??_C@_0BB@BLPPFBBA@?7return?$CIdh?$CJ?$DL?6?7?$HN?6?$AA@
	call	_printf
; Line 486
	push	edi
	call	_CRYPTO_free
	mov	ebx, DWORD PTR _out$1$[esp+104]
	add	esp, 8
$LN91@dhparam_ma:
; Line 489
	cmp	DWORD PTR _noout$1$[esp+96], 0
	jne	SHORT $LN103@dhparam_ma
; Line 490
	mov	eax, DWORD PTR _outformat$1$[esp+96]
	cmp	eax, 1
	jne	SHORT $LN97@dhparam_ma
; Line 491
	push	ebp
	push	ebx
	push	OFFSET _i2d_DHparams
	call	_ASN1_i2d_bio
	add	esp, 12					; 0000000cH
	jmp	SHORT $LN189@dhparam_ma
$LN97@dhparam_ma:
; Line 492
	cmp	eax, 3
	jne	SHORT $LN99@dhparam_ma
; Line 493
	cmp	DWORD PTR [ebp+36], 0
; Line 494
	push	ebp
	push	ebx
	je	SHORT $LN101@dhparam_ma
	call	_PEM_write_bio_DHxparams
	jmp	SHORT $LN190@dhparam_ma
$LN101@dhparam_ma:
; Line 496
	call	_PEM_write_bio_DHparams
$LN190@dhparam_ma:
	add	esp, 8
$LN189@dhparam_ma:
	mov	DWORD PTR _i$[esp+96], eax
; Line 501
	test	eax, eax
	jne	SHORT $LN103@dhparam_ma
; Line 502
	push	OFFSET ??_C@_0BP@DKNNAIAD@unable?5to?5write?5DH?5parameters?6?$AA@
	push	DWORD PTR _bio_err
	call	_BIO_printf
; Line 503
	push	DWORD PTR _bio_err
	call	_ERR_print_errors
	add	esp, 12					; 0000000cH
	mov	esi, 1
	jmp	SHORT $end$198
$LN99@dhparam_ma:
; Line 498
	push	OFFSET ??_C@_0CJ@JNEPIEPI@bad?5output?5format?5specified?5for?5@
; Line 499
	jmp	$LN191@dhparam_ma
$LN103@dhparam_ma:
; Line 507
	xor	esi, esi
$end$198:
; Line 509
	mov	eax, DWORD PTR _in$1$[esp+96]
	test	eax, eax
	je	SHORT $LN104@dhparam_ma
; Line 510
	push	eax
	call	_BIO_free
	add	esp, 4
$LN104@dhparam_ma:
; Line 511
	mov	eax, DWORD PTR _out$1$[esp+96]
	test	eax, eax
	je	SHORT $LN105@dhparam_ma
; Line 512
	push	eax
	call	_BIO_free_all
$LN186@dhparam_ma:
	add	esp, 4
$LN105@dhparam_ma:
; Line 513
	test	ebp, ebp
	je	SHORT $LN180@dhparam_ma
; Line 514
	push	ebp
	call	_DH_free
	add	esp, 4
$LN180@dhparam_ma:
; Line 516
	pop	edi
	mov	eax, esi
	pop	esi
	pop	ebp
	pop	ebx
; Line 517
	add	esp, 80					; 00000050H
	ret	0
$LN181@dhparam_ma:
	pop	ebp
; Line 516
	mov	eax, 1
	pop	ebx
; Line 517
	add	esp, 80					; 00000050H
	ret	0
_dhparam_main ENDP
_TEXT	ENDS
; Function compile flags: /Ogtpy
;	COMDAT _dh_cb
_TEXT	SEGMENT
_c$ = 8							; size = 1
_p$ = 8							; size = 4
_n$ = 12						; size = 4
_cb$ = 16						; size = 4
_dh_cb	PROC						; COMDAT
; File c:\workpace\openssl\openssl-1.0.2h\apps\dhparam.c
; Line 524
	mov	ecx, DWORD PTR _p$[esp-4]
	mov	al, 42					; 0000002aH
	test	ecx, ecx
	jne	SHORT $LN2@dh_cb
; Line 525
	mov	BYTE PTR _c$[esp-4], 46			; 0000002eH
; Line 526
	jmp	SHORT $LN5@dh_cb
$LN2@dh_cb:
	cmp	ecx, 1
	jne	SHORT $LN3@dh_cb
; Line 527
	mov	BYTE PTR _c$[esp-4], 43			; 0000002bH
; Line 528
	jmp	SHORT $LN5@dh_cb
$LN3@dh_cb:
	cmp	ecx, 2
	jne	SHORT $LN4@dh_cb
; Line 529
	mov	BYTE PTR _c$[esp-4], 42			; 0000002aH
; Line 530
	jmp	SHORT $LN5@dh_cb
$LN4@dh_cb:
	cmp	ecx, 3
	movzx	eax, al
	mov	edx, 10					; 0000000aH
	cmove	eax, edx
	mov	BYTE PTR _c$[esp-4], al
$LN5@dh_cb:
; Line 532
	push	esi
	mov	esi, DWORD PTR _cb$[esp]
	lea	eax, DWORD PTR _c$[esp]
	push	1
	push	eax
	push	DWORD PTR [esi+4]
	call	_BIO_write
; Line 533
	push	0
	push	0
	push	11					; 0000000bH
	push	DWORD PTR [esi+4]
	call	_BIO_ctrl
	add	esp, 28					; 0000001cH
; Line 537
	mov	eax, 1
	pop	esi
; Line 538
	ret	0
_dh_cb	ENDP
_TEXT	ENDS
; Function compile flags: /Ogtpy
;	COMDAT _sscanf
_TEXT	SEGMENT
__Buffer$ = 8						; size = 4
__Format$ = 12						; size = 4
_sscanf	PROC						; COMDAT
; File c:\program files\windows kits\10\include\10.0.10586.0\ucrt\stdio.h
; Line 2167
	lea	eax, DWORD PTR __Format$[esp]
	push	eax
	push	0
	push	DWORD PTR __Format$[esp+4]
	push	-1
	push	DWORD PTR __Buffer$[esp+12]
	call	___local_stdio_scanf_options
	push	DWORD PTR [eax+4]
	push	DWORD PTR [eax]
	call	DWORD PTR __imp____stdio_common_vsscanf
	add	esp, 28					; 0000001cH
; Line 2268
	ret	0
_sscanf	ENDP
_TEXT	ENDS
; Function compile flags: /Ogtpy
;	COMDAT __vsscanf_l
_TEXT	SEGMENT
__Buffer$ = 8						; size = 4
__Format$ = 12						; size = 4
__Locale$ = 16						; size = 4
__ArgList$ = 20						; size = 4
__vsscanf_l PROC					; COMDAT
; File c:\program files\windows kits\10\include\10.0.10586.0\ucrt\stdio.h
; Line 2167
	push	DWORD PTR __ArgList$[esp-4]
	push	DWORD PTR __Locale$[esp]
	push	DWORD PTR __Format$[esp+4]
	push	-1
	push	DWORD PTR __Buffer$[esp+12]
	call	___local_stdio_scanf_options
	push	DWORD PTR [eax+4]
	push	DWORD PTR [eax]
	call	DWORD PTR __imp____stdio_common_vsscanf
	add	esp, 28					; 0000001cH
; Line 2170
	ret	0
__vsscanf_l ENDP
_TEXT	ENDS
; Function compile flags: /Ogtpy
;	COMDAT _printf
_TEXT	SEGMENT
__Format$ = 8						; size = 4
_printf	PROC						; COMDAT
; File c:\program files\windows kits\10\include\10.0.10586.0\ucrt\stdio.h
; Line 950
	push	esi
; Line 954
	mov	esi, DWORD PTR __Format$[esp]
	push	1
	call	DWORD PTR __imp____acrt_iob_func
	add	esp, 4
; Line 639
	lea	ecx, DWORD PTR __Format$[esp+4]
	push	ecx
	push	0
	push	esi
	push	eax
	call	___local_stdio_printf_options
	push	DWORD PTR [eax+4]
	push	DWORD PTR [eax]
	call	DWORD PTR __imp____stdio_common_vfprintf
	add	esp, 24					; 00000018H
	pop	esi
; Line 957
	ret	0
_printf	ENDP
_TEXT	ENDS
; Function compile flags: /Ogtpy
;	COMDAT __vfprintf_l
_TEXT	SEGMENT
__Stream$ = 8						; size = 4
__Format$ = 12						; size = 4
__Locale$ = 16						; size = 4
__ArgList$ = 20						; size = 4
__vfprintf_l PROC					; COMDAT
; File c:\program files\windows kits\10\include\10.0.10586.0\ucrt\stdio.h
; Line 639
	push	DWORD PTR __ArgList$[esp-4]
	push	DWORD PTR __Locale$[esp]
	push	DWORD PTR __Format$[esp+4]
	push	DWORD PTR __Stream$[esp+8]
	call	___local_stdio_printf_options
	push	DWORD PTR [eax+4]
	push	DWORD PTR [eax]
	call	DWORD PTR __imp____stdio_common_vfprintf
	add	esp, 24					; 00000018H
; Line 640
	ret	0
__vfprintf_l ENDP
_TEXT	ENDS
; Function compile flags: /Ogtpy
;	COMDAT ___local_stdio_scanf_options
_TEXT	SEGMENT
___local_stdio_scanf_options PROC			; COMDAT
; File c:\program files\windows kits\10\include\10.0.10586.0\ucrt\corecrt_stdio_config.h
; Line 91
	mov	eax, OFFSET ?_OptionsStorage@?1??__local_stdio_scanf_options@@9@9 ; `__local_stdio_scanf_options'::`2'::_OptionsStorage
; Line 92
	ret	0
___local_stdio_scanf_options ENDP
_TEXT	ENDS
; Function compile flags: /Ogtpy
;	COMDAT ___local_stdio_printf_options
_TEXT	SEGMENT
___local_stdio_printf_options PROC			; COMDAT
; File c:\program files\windows kits\10\include\10.0.10586.0\ucrt\corecrt_stdio_config.h
; Line 82
	mov	eax, OFFSET ?_OptionsStorage@?1??__local_stdio_printf_options@@9@9 ; `__local_stdio_printf_options'::`2'::_OptionsStorage
; Line 83
	ret	0
___local_stdio_printf_options ENDP
_TEXT	ENDS
END
