; Listing generated by Microsoft (R) Optimizing Compiler Version 19.00.23918.0 

	TITLE	C:\workpace\openssl\openssl-1.0.2h\crypto\dsa\dsa_asn1.c
	.686P
	.XMM
	include listing.inc
	.model	flat

INCLUDELIB MSVCRT
INCLUDELIB OLDNAMES

PUBLIC	??_C@_01KDCPPGHE@r?$AA@				; `string'
PUBLIC	??_C@_01LKDEMHDF@s?$AA@				; `string'
PUBLIC	??_C@_07ECLLFBLJ@DSA_SIG?$AA@			; `string'
PUBLIC	??_C@_07CPCPJPKL@version?$AA@			; `string'
PUBLIC	??_C@_01JBBJJEPG@p?$AA@				; `string'
PUBLIC	??_C@_01IIACKFLH@q?$AA@				; `string'
PUBLIC	??_C@_01JEJKBAGA@g?$AA@				; `string'
PUBLIC	??_C@_07CLGEADLH@pub_key?$AA@			; `string'
PUBLIC	??_C@_08CCPALKOP@priv_key?$AA@			; `string'
PUBLIC	??_C@_03ENFFABCE@DSA?$AA@			; `string'
PUBLIC	_dsa_pub_internal_it
EXTRN	_CBIGNUM_it:PROC
EXTRN	_BIGNUM_it:PROC
EXTRN	_LONG_it:PROC
;	COMDAT ??_C@_03ENFFABCE@DSA?$AA@
CONST	SEGMENT
??_C@_03ENFFABCE@DSA?$AA@ DB 'DSA', 00H			; `string'
CONST	ENDS
;	COMDAT ??_C@_08CCPALKOP@priv_key?$AA@
CONST	SEGMENT
??_C@_08CCPALKOP@priv_key?$AA@ DB 'priv_key', 00H	; `string'
CONST	ENDS
;	COMDAT ??_C@_07CLGEADLH@pub_key?$AA@
CONST	SEGMENT
??_C@_07CLGEADLH@pub_key?$AA@ DB 'pub_key', 00H		; `string'
CONST	ENDS
;	COMDAT ??_C@_01JEJKBAGA@g?$AA@
CONST	SEGMENT
??_C@_01JEJKBAGA@g?$AA@ DB 'g', 00H			; `string'
CONST	ENDS
;	COMDAT ??_C@_01IIACKFLH@q?$AA@
CONST	SEGMENT
??_C@_01IIACKFLH@q?$AA@ DB 'q', 00H			; `string'
CONST	ENDS
;	COMDAT ??_C@_01JBBJJEPG@p?$AA@
CONST	SEGMENT
??_C@_01JBBJJEPG@p?$AA@ DB 'p', 00H			; `string'
CONST	ENDS
;	COMDAT ??_C@_07CPCPJPKL@version?$AA@
CONST	SEGMENT
??_C@_07CPCPJPKL@version?$AA@ DB 'version', 00H		; `string'
CONST	ENDS
;	COMDAT ??_C@_07ECLLFBLJ@DSA_SIG?$AA@
CONST	SEGMENT
??_C@_07ECLLFBLJ@DSA_SIG?$AA@ DB 'DSA_SIG', 00H		; `string'
CONST	ENDS
;	COMDAT ??_C@_01LKDEMHDF@s?$AA@
CONST	SEGMENT
??_C@_01LKDEMHDF@s?$AA@ DB 's', 00H			; `string'
CONST	ENDS
;	COMDAT ??_C@_01KDCPPGHE@r?$AA@
CONST	SEGMENT
??_C@_01KDCPPGHE@r?$AA@ DB 'r', 00H			; `string'
CONST	ENDS
CONST	SEGMENT
_DSA_SIG_aux DD	00H
	DD	00H
	DD	00H
	DD	00H
	DD	FLAT:_sig_cb
	DD	00H
_DSA_SIG_seq_tt DD 00H
	DD	00H
	DD	00H
	DD	FLAT:??_C@_01KDCPPGHE@r?$AA@
	DD	FLAT:_CBIGNUM_it
	DD	00H
	DD	00H
	DD	04H
	DD	FLAT:??_C@_01LKDEMHDF@s?$AA@
	DD	FLAT:_CBIGNUM_it
?local_it@?1??DSA_SIG_it@@9@9 DB 01H			; `DSA_SIG_it'::`2'::local_it
	ORG $+3
	DD	010H
	DD	FLAT:_DSA_SIG_seq_tt
	DD	02H
	DD	FLAT:_DSA_SIG_aux
	DD	08H
	DD	FLAT:??_C@_07ECLLFBLJ@DSA_SIG?$AA@
_DSAPrivateKey_aux DD 00H
	DD	00H
	DD	00H
	DD	00H
	DD	FLAT:_dsa_cb
	DD	00H
?local_it@?1??DSAPrivateKey_it@@9@9 DB 01H		; `DSAPrivateKey_it'::`2'::local_it
	ORG $+3
	DD	010H
	DD	FLAT:_DSAPrivateKey_seq_tt
	DD	06H
	DD	FLAT:_DSAPrivateKey_aux
	DD	044H
	DD	FLAT:??_C@_03ENFFABCE@DSA?$AA@
_DSAPrivateKey_seq_tt DD 00H
	DD	00H
	DD	04H
	DD	FLAT:??_C@_07CPCPJPKL@version?$AA@
	DD	FLAT:_LONG_it
	DD	00H
	DD	00H
	DD	0cH
	DD	FLAT:??_C@_01JBBJJEPG@p?$AA@
	DD	FLAT:_BIGNUM_it
	DD	00H
	DD	00H
	DD	010H
	DD	FLAT:??_C@_01IIACKFLH@q?$AA@
	DD	FLAT:_BIGNUM_it
	DD	00H
	DD	00H
	DD	014H
	DD	FLAT:??_C@_01JEJKBAGA@g?$AA@
	DD	FLAT:_BIGNUM_it
	DD	00H
	DD	00H
	DD	018H
	DD	FLAT:??_C@_07CLGEADLH@pub_key?$AA@
	DD	FLAT:_BIGNUM_it
	DD	00H
	DD	00H
	DD	01cH
	DD	FLAT:??_C@_08CCPALKOP@priv_key?$AA@
	DD	FLAT:_BIGNUM_it
_DSAparams_aux DD 00H
	DD	00H
	DD	00H
	DD	00H
	DD	FLAT:_dsa_cb
	DD	00H
_DSAparams_seq_tt DD 00H
	DD	00H
	DD	0cH
	DD	FLAT:??_C@_01JBBJJEPG@p?$AA@
	DD	FLAT:_BIGNUM_it
	DD	00H
	DD	00H
	DD	010H
	DD	FLAT:??_C@_01IIACKFLH@q?$AA@
	DD	FLAT:_BIGNUM_it
	DD	00H
	DD	00H
	DD	014H
	DD	FLAT:??_C@_01JEJKBAGA@g?$AA@
	DD	FLAT:_BIGNUM_it
?local_it@?1??DSAparams_it@@9@9 DB 01H			; `DSAparams_it'::`2'::local_it
	ORG $+3
	DD	010H
	DD	FLAT:_DSAparams_seq_tt
	DD	03H
	DD	FLAT:_DSAparams_aux
	DD	044H
	DD	FLAT:??_C@_03ENFFABCE@DSA?$AA@
_dsa_pub_internal_seq_tt DD 00H
	DD	00H
	DD	018H
	DD	FLAT:??_C@_07CLGEADLH@pub_key?$AA@
	DD	FLAT:_BIGNUM_it
	DD	00H
	DD	00H
	DD	0cH
	DD	FLAT:??_C@_01JBBJJEPG@p?$AA@
	DD	FLAT:_BIGNUM_it
	DD	00H
	DD	00H
	DD	010H
	DD	FLAT:??_C@_01IIACKFLH@q?$AA@
	DD	FLAT:_BIGNUM_it
	DD	00H
	DD	00H
	DD	014H
	DD	FLAT:??_C@_01JEJKBAGA@g?$AA@
	DD	FLAT:_BIGNUM_it
?local_it@?1??dsa_pub_internal_it@@9@9 DB 01H		; `dsa_pub_internal_it'::`2'::local_it
	ORG $+3
	DD	010H
	DD	FLAT:_dsa_pub_internal_seq_tt
	DD	04H
	DD	00H
	DD	044H
	DD	FLAT:??_C@_03ENFFABCE@DSA?$AA@
_DSAPublicKey_aux DD 00H
	DD	00H
	DD	00H
	DD	00H
	DD	FLAT:_dsa_cb
	DD	00H
_DSAPublicKey_ch_tt DD 00H
	DD	00H
	DD	018H
	DD	FLAT:??_C@_07CLGEADLH@pub_key?$AA@
	DD	FLAT:_BIGNUM_it
	DD	0400H
	DD	00H
	DD	00H
	DD	00H
	DD	FLAT:_dsa_pub_internal_it
?local_it@?1??DSAPublicKey_it@@9@9 DB 02H		; `DSAPublicKey_it'::`2'::local_it
	ORG $+3
	DD	08H
	DD	FLAT:_DSAPublicKey_ch_tt
	DD	02H
	DD	FLAT:_DSAPublicKey_aux
	DD	044H
	DD	FLAT:??_C@_03ENFFABCE@DSA?$AA@
CONST	ENDS
PUBLIC	_DSAparams_dup
PUBLIC	_i2d_DSA_SIG
PUBLIC	_d2i_DSA_SIG
PUBLIC	_DSA_sign
PUBLIC	_DSA_verify
PUBLIC	_d2i_DSAPublicKey
PUBLIC	_d2i_DSAPrivateKey
PUBLIC	_d2i_DSAparams
PUBLIC	_i2d_DSAPublicKey
PUBLIC	_i2d_DSAPrivateKey
PUBLIC	_i2d_DSAparams
PUBLIC	_DSA_SIG_it
PUBLIC	_DSAPrivateKey_it
PUBLIC	_DSAparams_it
PUBLIC	_DSAPublicKey_it
PUBLIC	??_C@_0BI@BIJNKEAB@?4?2crypto?2dsa?2dsa_asn1?4c?$AA@ ; `string'
EXTRN	_CRYPTO_malloc:PROC
EXTRN	_CRYPTO_free:PROC
EXTRN	_OPENSSL_cleanse:PROC
EXTRN	_ERR_put_error:PROC
EXTRN	_DSA_SIG_new:PROC
EXTRN	_DSA_SIG_free:PROC
EXTRN	_DSA_do_sign:PROC
EXTRN	_DSA_do_verify:PROC
EXTRN	_DSA_new:PROC
EXTRN	_DSA_free:PROC
EXTRN	_ASN1_item_dup:PROC
EXTRN	_ASN1_item_d2i:PROC
EXTRN	_ASN1_item_i2d:PROC
EXTRN	_RAND_seed:PROC
EXTRN	__chkstk:PROC
;	COMDAT ??_C@_0BI@BIJNKEAB@?4?2crypto?2dsa?2dsa_asn1?4c?$AA@
CONST	SEGMENT
??_C@_0BI@BIJNKEAB@?4?2crypto?2dsa?2dsa_asn1?4c?$AA@ DB '.\crypto\dsa\dsa'
	DB	'_asn1.c', 00H				; `string'
CONST	ENDS
; Function compile flags: /Ogtpy
;	COMDAT _DSAPublicKey_it
_TEXT	SEGMENT
_DSAPublicKey_it PROC					; COMDAT
; File c:\workpace\openssl\openssl-1.0.2h\crypto\dsa\dsa_asn1.c
; Line 145
	mov	eax, OFFSET ?local_it@?1??DSAPublicKey_it@@9@9
	ret	0
_DSAPublicKey_it ENDP
_TEXT	ENDS
; Function compile flags: /Ogtpy
;	COMDAT _dsa_pub_internal_it
_TEXT	SEGMENT
_dsa_pub_internal_it PROC				; COMDAT
; File c:\workpace\openssl\openssl-1.0.2h\crypto\dsa\dsa_asn1.c
; Line 140
	mov	eax, OFFSET ?local_it@?1??dsa_pub_internal_it@@9@9
	ret	0
_dsa_pub_internal_it ENDP
_TEXT	ENDS
; Function compile flags: /Ogtpy
;	COMDAT _DSAparams_it
_TEXT	SEGMENT
_DSAparams_it PROC					; COMDAT
; File c:\workpace\openssl\openssl-1.0.2h\crypto\dsa\dsa_asn1.c
; Line 125
	mov	eax, OFFSET ?local_it@?1??DSAparams_it@@9@9
	ret	0
_DSAparams_it ENDP
_TEXT	ENDS
; Function compile flags: /Ogtpy
;	COMDAT _DSAPrivateKey_it
_TEXT	SEGMENT
_DSAPrivateKey_it PROC					; COMDAT
; File c:\workpace\openssl\openssl-1.0.2h\crypto\dsa\dsa_asn1.c
; Line 117
	mov	eax, OFFSET ?local_it@?1??DSAPrivateKey_it@@9@9
	ret	0
_DSAPrivateKey_it ENDP
_TEXT	ENDS
; Function compile flags: /Ogtpy
;	COMDAT _dsa_cb
_TEXT	SEGMENT
_operation$ = 8						; size = 4
_pval$ = 12						; size = 4
_it$ = 16						; size = 4
_exarg$ = 20						; size = 4
_dsa_cb	PROC						; COMDAT
; File c:\workpace\openssl\openssl-1.0.2h\crypto\dsa\dsa_asn1.c
; Line 97
	mov	eax, DWORD PTR _operation$[esp-4]
	test	eax, eax
	jne	SHORT $LN2@dsa_cb
; Line 98
	call	_DSA_new
	mov	ecx, DWORD PTR _pval$[esp-4]
	mov	DWORD PTR [ecx], eax
; Line 99
	neg	eax
	sbb	eax, eax
	and	eax, 2
; Line 108
	ret	0
$LN2@dsa_cb:
; Line 102
	cmp	eax, 2
	jne	SHORT $LN5@dsa_cb
; Line 103
	push	esi
	mov	esi, DWORD PTR _pval$[esp]
	push	DWORD PTR [esi]
	call	_DSA_free
	add	esp, 4
; Line 104
	mov	DWORD PTR [esi], 0
; Line 105
	mov	eax, 2
	pop	esi
; Line 108
	ret	0
$LN5@dsa_cb:
; Line 107
	mov	eax, 1
; Line 108
	ret	0
_dsa_cb	ENDP
_TEXT	ENDS
; Function compile flags: /Ogtpy
;	COMDAT _DSA_SIG_it
_TEXT	SEGMENT
_DSA_SIG_it PROC					; COMDAT
; File c:\workpace\openssl\openssl-1.0.2h\crypto\dsa\dsa_asn1.c
; Line 89
	mov	eax, OFFSET ?local_it@?1??DSA_SIG_it@@9@9
	ret	0
_DSA_SIG_it ENDP
_TEXT	ENDS
; Function compile flags: /Ogtpy
;	COMDAT _sig_cb
_TEXT	SEGMENT
_operation$ = 8						; size = 4
_pval$ = 12						; size = 4
_it$ = 16						; size = 4
_exarg$ = 20						; size = 4
_sig_cb	PROC						; COMDAT
; File c:\workpace\openssl\openssl-1.0.2h\crypto\dsa\dsa_asn1.c
; Line 71
	cmp	DWORD PTR _operation$[esp-4], 0
	jne	SHORT $LN2@sig_cb
; Line 73
	push	73					; 00000049H
	push	OFFSET ??_C@_0BI@BIJNKEAB@?4?2crypto?2dsa?2dsa_asn1?4c?$AA@
	push	8
	call	_CRYPTO_malloc
	mov	ecx, eax
	add	esp, 12					; 0000000cH
; Line 74
	test	ecx, ecx
	jne	SHORT $LN3@sig_cb
; Line 75
	push	75					; 0000004bH
	push	OFFSET ??_C@_0BI@BIJNKEAB@?4?2crypto?2dsa?2dsa_asn1?4c?$AA@
	push	65					; 00000041H
	push	114					; 00000072H
	push	10					; 0000000aH
	call	_ERR_put_error
	add	esp, 20					; 00000014H
; Line 76
	xor	eax, eax
; Line 84
	ret	0
$LN3@sig_cb:
; Line 80
	mov	eax, DWORD PTR _pval$[esp-4]
	mov	DWORD PTR [ecx], 0
	mov	DWORD PTR [ecx+4], 0
	mov	DWORD PTR [eax], ecx
; Line 81
	mov	eax, 2
; Line 84
	ret	0
$LN2@sig_cb:
; Line 83
	mov	eax, 1
; Line 84
	ret	0
_sig_cb	ENDP
_TEXT	ENDS
; Function compile flags: /Ogtpy
;	COMDAT _i2d_DSAparams
_TEXT	SEGMENT
_a$ = 8							; size = 4
_out$ = 12						; size = 4
_i2d_DSAparams PROC					; COMDAT
; File c:\workpace\openssl\openssl-1.0.2h\crypto\dsa\dsa_asn1.c
; Line 127
	push	OFFSET ?local_it@?1??DSAparams_it@@9@9
	push	DWORD PTR _out$[esp]
	push	DWORD PTR _a$[esp+4]
	call	_ASN1_item_i2d
	add	esp, 12					; 0000000cH
	ret	0
_i2d_DSAparams ENDP
_TEXT	ENDS
; Function compile flags: /Ogtpy
;	COMDAT _i2d_DSAPrivateKey
_TEXT	SEGMENT
_a$ = 8							; size = 4
_out$ = 12						; size = 4
_i2d_DSAPrivateKey PROC					; COMDAT
; File c:\workpace\openssl\openssl-1.0.2h\crypto\dsa\dsa_asn1.c
; Line 119
	push	OFFSET ?local_it@?1??DSAPrivateKey_it@@9@9
	push	DWORD PTR _out$[esp]
	push	DWORD PTR _a$[esp+4]
	call	_ASN1_item_i2d
	add	esp, 12					; 0000000cH
	ret	0
_i2d_DSAPrivateKey ENDP
_TEXT	ENDS
; Function compile flags: /Ogtpy
;	COMDAT _i2d_DSAPublicKey
_TEXT	SEGMENT
_a$ = 8							; size = 4
_out$ = 12						; size = 4
_i2d_DSAPublicKey PROC					; COMDAT
; File c:\workpace\openssl\openssl-1.0.2h\crypto\dsa\dsa_asn1.c
; Line 147
	push	OFFSET ?local_it@?1??DSAPublicKey_it@@9@9
	push	DWORD PTR _out$[esp]
	push	DWORD PTR _a$[esp+4]
	call	_ASN1_item_i2d
	add	esp, 12					; 0000000cH
	ret	0
_i2d_DSAPublicKey ENDP
_TEXT	ENDS
; Function compile flags: /Ogtpy
;	COMDAT _d2i_DSAparams
_TEXT	SEGMENT
_a$ = 8							; size = 4
_in$ = 12						; size = 4
_len$ = 16						; size = 4
_d2i_DSAparams PROC					; COMDAT
; File c:\workpace\openssl\openssl-1.0.2h\crypto\dsa\dsa_asn1.c
; Line 127
	push	OFFSET ?local_it@?1??DSAparams_it@@9@9
	push	DWORD PTR _len$[esp]
	push	DWORD PTR _in$[esp+4]
	push	DWORD PTR _a$[esp+8]
	call	_ASN1_item_d2i
	add	esp, 16					; 00000010H
	ret	0
_d2i_DSAparams ENDP
_TEXT	ENDS
; Function compile flags: /Ogtpy
;	COMDAT _d2i_DSAPrivateKey
_TEXT	SEGMENT
_a$ = 8							; size = 4
_in$ = 12						; size = 4
_len$ = 16						; size = 4
_d2i_DSAPrivateKey PROC					; COMDAT
; File c:\workpace\openssl\openssl-1.0.2h\crypto\dsa\dsa_asn1.c
; Line 119
	push	OFFSET ?local_it@?1??DSAPrivateKey_it@@9@9
	push	DWORD PTR _len$[esp]
	push	DWORD PTR _in$[esp+4]
	push	DWORD PTR _a$[esp+8]
	call	_ASN1_item_d2i
	add	esp, 16					; 00000010H
	ret	0
_d2i_DSAPrivateKey ENDP
_TEXT	ENDS
; Function compile flags: /Ogtpy
;	COMDAT _d2i_DSAPublicKey
_TEXT	SEGMENT
_a$ = 8							; size = 4
_in$ = 12						; size = 4
_len$ = 16						; size = 4
_d2i_DSAPublicKey PROC					; COMDAT
; File c:\workpace\openssl\openssl-1.0.2h\crypto\dsa\dsa_asn1.c
; Line 147
	push	OFFSET ?local_it@?1??DSAPublicKey_it@@9@9
	push	DWORD PTR _len$[esp]
	push	DWORD PTR _in$[esp+4]
	push	DWORD PTR _a$[esp+8]
	call	_ASN1_item_d2i
	add	esp, 16					; 00000010H
	ret	0
_d2i_DSAPublicKey ENDP
_TEXT	ENDS
; Function compile flags: /Ogtpy
;	COMDAT _DSA_verify
_TEXT	SEGMENT
_s$ = -8						; size = 4
_p$ = -4						; size = 4
_type$ = 8						; size = 4
_dgst$ = 12						; size = 4
_dgst_len$ = 16						; size = 4
_der$ = 20						; size = 4
_sigbuf$ = 20						; size = 4
_siglen$ = 24						; size = 4
_dsa$ = 28						; size = 4
_DSA_verify PROC					; COMDAT
; File c:\workpace\openssl\openssl-1.0.2h\crypto\dsa\dsa_asn1.c
; Line 178
	mov	eax, 8
	call	__chkstk
	push	ebp
	push	esi
; Line 180
	mov	esi, DWORD PTR _sigbuf$[esp+12]
; Line 183
	or	ebp, -1
	mov	DWORD PTR _p$[esp+16], esi
	mov	DWORD PTR _der$[esp+12], 0
; Line 185
	call	_DSA_SIG_new
	mov	DWORD PTR _s$[esp+16], eax
; Line 186
	test	eax, eax
	jne	SHORT $LN2@DSA_verify
; Line 187
	pop	esi
	or	eax, ebp
	pop	ebp
; Line 202
	add	esp, 8
	ret	0
$LN2@DSA_verify:
; Line 91
	push	OFFSET ?local_it@?1??DSA_SIG_it@@9@9
	push	DWORD PTR _siglen$[esp+16]
	lea	eax, DWORD PTR _p$[esp+24]
	push	eax
	lea	eax, DWORD PTR _s$[esp+28]
	push	eax
	call	_ASN1_item_d2i
	add	esp, 16					; 00000010H
; Line 188
	test	eax, eax
	je	$LN6@DSA_verify
	push	edi
; Line 91
	push	OFFSET ?local_it@?1??DSA_SIG_it@@9@9
	lea	eax, DWORD PTR _der$[esp+20]
	push	eax
	push	DWORD PTR _s$[esp+28]
	call	_ASN1_item_i2d
; Line 191
	mov	edi, eax
; Line 91
	add	esp, 12					; 0000000cH
; Line 192
	cmp	edi, DWORD PTR _siglen$[esp+16]
	jne	SHORT $err$23
	mov	edx, DWORD PTR _der$[esp+16]
	mov	ecx, edi
	sub	ecx, 4
	jb	SHORT $LN18@DSA_verify
$LL19@DSA_verify:
	mov	eax, DWORD PTR [esi]
	cmp	eax, DWORD PTR [edx]
	jne	SHORT $LN17@DSA_verify
	add	esi, 4
	add	edx, 4
	sub	ecx, 4
	jae	SHORT $LL19@DSA_verify
$LN18@DSA_verify:
	cmp	ecx, -4					; fffffffcH
	je	SHORT $LN16@DSA_verify
$LN17@DSA_verify:
	mov	al, BYTE PTR [esi]
	cmp	al, BYTE PTR [edx]
	jne	SHORT $err$23
	cmp	ecx, -3					; fffffffdH
	je	SHORT $LN16@DSA_verify
	mov	al, BYTE PTR [esi+1]
	cmp	al, BYTE PTR [edx+1]
	jne	SHORT $err$23
	cmp	ecx, -2					; fffffffeH
	je	SHORT $LN16@DSA_verify
	mov	al, BYTE PTR [esi+2]
	cmp	al, BYTE PTR [edx+2]
	jne	SHORT $err$23
	cmp	ecx, -1
	je	SHORT $LN16@DSA_verify
	mov	al, BYTE PTR [esi+3]
	cmp	al, BYTE PTR [edx+3]
	jne	SHORT $err$23
$LN16@DSA_verify:
; Line 194
	push	DWORD PTR _dsa$[esp+16]
	push	DWORD PTR _s$[esp+24]
	push	DWORD PTR _dgst_len$[esp+24]
	push	DWORD PTR _dgst$[esp+28]
	call	_DSA_do_verify
	add	esp, 16					; 00000010H
	mov	ebp, eax
$err$23:
; Line 196
	test	edi, edi
	jle	SHORT $LN21@DSA_verify
; Line 197
	push	edi
	push	DWORD PTR _der$[esp+20]
	call	_OPENSSL_cleanse
; Line 198
	push	DWORD PTR _der$[esp+24]
	call	_CRYPTO_free
	add	esp, 12					; 0000000cH
$LN21@DSA_verify:
	pop	edi
$LN6@DSA_verify:
; Line 200
	push	DWORD PTR _s$[esp+16]
	call	_DSA_SIG_free
	add	esp, 4
; Line 201
	mov	eax, ebp
	pop	esi
	pop	ebp
; Line 202
	add	esp, 8
	ret	0
_DSA_verify ENDP
_TEXT	ENDS
; Function compile flags: /Ogtpy
;	COMDAT _DSA_sign
_TEXT	SEGMENT
_type$ = 8						; size = 4
_dgst$ = 12						; size = 4
_dlen$ = 16						; size = 4
_sig$ = 20						; size = 4
_siglen$ = 24						; size = 4
_dsa$ = 28						; size = 4
_DSA_sign PROC						; COMDAT
; File c:\workpace\openssl\openssl-1.0.2h\crypto\dsa\dsa_asn1.c
; Line 156
	push	esi
; Line 158
	push	DWORD PTR _dlen$[esp]
	mov	esi, DWORD PTR _dgst$[esp+4]
	push	esi
	call	_RAND_seed
; Line 159
	push	DWORD PTR _dsa$[esp+8]
	push	DWORD PTR _dlen$[esp+12]
	push	esi
	call	_DSA_do_sign
	mov	esi, eax
	add	esp, 20					; 00000014H
; Line 160
	test	esi, esi
	jne	SHORT $LN2@DSA_sign
; Line 161
	mov	eax, DWORD PTR _siglen$[esp]
	mov	DWORD PTR [eax], esi
; Line 162
	xor	eax, eax
	pop	esi
; Line 167
	ret	0
$LN2@DSA_sign:
; Line 91
	push	OFFSET ?local_it@?1??DSA_SIG_it@@9@9
	lea	eax, DWORD PTR _sig$[esp+4]
	push	eax
	push	esi
	call	_ASN1_item_i2d
; Line 164
	mov	ecx, DWORD PTR _siglen$[esp+12]
; Line 165
	push	esi
	mov	DWORD PTR [ecx], eax
	call	_DSA_SIG_free
	add	esp, 16					; 00000010H
; Line 166
	mov	eax, 1
	pop	esi
; Line 167
	ret	0
_DSA_sign ENDP
_TEXT	ENDS
; Function compile flags: /Ogtpy
;	COMDAT _d2i_DSA_SIG
_TEXT	SEGMENT
_a$ = 8							; size = 4
_in$ = 12						; size = 4
_len$ = 16						; size = 4
_d2i_DSA_SIG PROC					; COMDAT
; File c:\workpace\openssl\openssl-1.0.2h\crypto\dsa\dsa_asn1.c
; Line 91
	push	OFFSET ?local_it@?1??DSA_SIG_it@@9@9
	push	DWORD PTR _len$[esp]
	push	DWORD PTR _in$[esp+4]
	push	DWORD PTR _a$[esp+8]
	call	_ASN1_item_d2i
	add	esp, 16					; 00000010H
	ret	0
_d2i_DSA_SIG ENDP
_TEXT	ENDS
; Function compile flags: /Ogtpy
;	COMDAT _i2d_DSA_SIG
_TEXT	SEGMENT
_a$ = 8							; size = 4
_out$ = 12						; size = 4
_i2d_DSA_SIG PROC					; COMDAT
; File c:\workpace\openssl\openssl-1.0.2h\crypto\dsa\dsa_asn1.c
; Line 91
	push	OFFSET ?local_it@?1??DSA_SIG_it@@9@9
	push	DWORD PTR _out$[esp]
	push	DWORD PTR _a$[esp+4]
	call	_ASN1_item_i2d
	add	esp, 12					; 0000000cH
	ret	0
_i2d_DSA_SIG ENDP
_TEXT	ENDS
; Function compile flags: /Ogtpy
;	COMDAT _DSAparams_dup
_TEXT	SEGMENT
_dsa$ = 8						; size = 4
_DSAparams_dup PROC					; COMDAT
; File c:\workpace\openssl\openssl-1.0.2h\crypto\dsa\dsa_asn1.c
; Line 151
	push	DWORD PTR _dsa$[esp-4]
	push	OFFSET ?local_it@?1??DSAparams_it@@9@9
	call	_ASN1_item_dup
	add	esp, 8
; Line 152
	ret	0
_DSAparams_dup ENDP
_TEXT	ENDS
END
