; Listing generated by Microsoft (R) Optimizing Compiler Version 19.00.23918.0 

	TITLE	C:\workpace\openssl\openssl-1.0.2h\engines\e_chil.c
	.686P
	.XMM
	include listing.inc
	.model	flat

INCLUDELIB MSVCRT
INCLUDELIB OLDNAMES

PUBLIC	??_C@_0M@ODINOHCI@HWCRHK_CTRL?$AA@		; `string'
PUBLIC	??_C@_0O@EKNHNLEL@HWCRHK_FINISH?$AA@		; `string'
PUBLIC	??_C@_0BA@JBLNFPGL@HWCRHK_GET_PASS?$AA@		; `string'
PUBLIC	??_C@_0M@EPBJMLK@HWCRHK_INIT?$AA@		; `string'
PUBLIC	??_C@_0BD@GFDHIBFM@HWCRHK_INSERT_CARD?$AA@	; `string'
PUBLIC	??_C@_0BE@NNEJLHLA@HWCRHK_LOAD_PRIVKEY?$AA@	; `string'
PUBLIC	??_C@_0BD@HCDDGOID@HWCRHK_LOAD_PUBKEY?$AA@	; `string'
PUBLIC	??_C@_0P@ECCKNBIM@HWCRHK_MOD_EXP?$AA@		; `string'
PUBLIC	??_C@_0BC@PDNECBDG@HWCRHK_RAND_BYTES?$AA@	; `string'
PUBLIC	??_C@_0BD@MHHCHOOE@HWCRHK_RSA_MOD_EXP?$AA@	; `string'
PUBLIC	??_C@_0P@BJJHFGDF@already?5loaded?$AA@		; `string'
PUBLIC	??_C@_0O@LKOODKPM@bio?5was?5freed?$AA@		; `string'
PUBLIC	??_C@_0L@GDNIJDAB@chil?5error?$AA@		; `string'
PUBLIC	??_C@_0BN@NJGGMLOG@ctrl?5command?5not?5implemented?$AA@ ; `string'
PUBLIC	??_C@_0M@DBMBNOIK@dso?5failure?$AA@		; `string'
PUBLIC	??_C@_0BH@KAGGBJK@missing?5key?5components?$AA@	; `string'
PUBLIC	??_C@_0BA@FEBOOGFB@not?5initialised?$AA@	; `string'
PUBLIC	??_C@_0L@ICAFOIA@not?5loaded?$AA@		; `string'
PUBLIC	??_C@_0M@CPEHGAAC@no?5callback?$AA@		; `string'
PUBLIC	??_C@_06NNLPDOME@no?5key?$AA@			; `string'
PUBLIC	??_C@_0CA@HOGGPCBJ@private?5key?5algorithms?5disabled?$AA@ ; `string'
PUBLIC	??_C@_0P@LMFGIOCF@request?5failed?$AA@		; `string'
PUBLIC	??_C@_0BB@PJKNAGAG@request?5fallback?$AA@	; `string'
PUBLIC	??_C@_0N@JLJLJPMB@unit?5failure?$AA@		; `string'
PUBLIC	??_C@_0M@NAKMHNGB@CHIL?5engine?$AA@		; `string'
PUBLIC	??_C@_07EGEBNIPD@SO_PATH?$AA@			; `string'
PUBLIC	??_C@_0DC@HFMCEPJN@Specifies?5the?5path?5to?5the?5?8hwcrh@ ; `string'
PUBLIC	??_C@_0L@BECOIJJF@FORK_CHECK?$AA@		; `string'
PUBLIC	??_C@_0DC@FMAPNBJE@Turns?5fork?$CI?$CJ?5checking?5on?5?$CInon?9ze@ ; `string'
PUBLIC	??_C@_0P@PLPNJEBB@THREAD_LOCKING?$AA@		; `string'
PUBLIC	??_C@_0DG@BPKOLNNM@Turns?5thread?9safe?5locking?5on?5?$CIze@ ; `string'
PUBLIC	??_C@_0BD@HNMPJJDL@SET_USER_INTERFACE?$AA@	; `string'
PUBLIC	??_C@_0CJ@PMPFMPLL@Set?5the?5global?5user?5interface?5?$CIi@ ; `string'
PUBLIC	??_C@_0BC@HOEJKHEO@SET_CALLBACK_DATA?$AA@	; `string'
PUBLIC	??_C@_0DE@BOALENFP@Set?5the?5global?5user?5interface?5ex@ ; `string'
PUBLIC	??_C@_0BA@IBIFJOGM@CHIL?5RSA?5method?$AA@	; `string'
PUBLIC	??_C@_0P@BEIIGDM@CHIL?5DH?5method?$AA@		; `string'
PUBLIC	??_C@_04JHJDAOJH@chil?$AA@			; `string'
PUBLIC	??_C@_0BN@PIPOENLH@CHIL?5hardware?5engine?5support?$AA@ ; `string'
PUBLIC	??_C@_07JOEMLHGJ@ncipher?$AA@			; `string'
PUBLIC	??_C@_0BC@BNCGEAID@HWCryptoHook_Init?$AA@	; `string'
PUBLIC	??_C@_0BE@GGPPLDJL@HWCryptoHook_Finish?$AA@	; `string'
PUBLIC	??_C@_0BE@JMLLHLOD@HWCryptoHook_ModExp?$AA@	; `string'
PUBLIC	??_C@_0BB@DAMOFKMC@HWCryptoHook_RSA?$AA@	; `string'
PUBLIC	??_C@_0BJ@BJBOJAH@HWCryptoHook_RandomBytes?$AA@	; `string'
PUBLIC	??_C@_0BI@LLPJLM@HWCryptoHook_RSALoadKey?$AA@	; `string'
PUBLIC	??_C@_0BN@IAFIFGLH@HWCryptoHook_RSAGetPublicKey?$AA@ ; `string'
PUBLIC	??_C@_0BK@KIEHKAED@HWCryptoHook_RSAUnloadKey?$AA@ ; `string'
PUBLIC	??_C@_0BH@DJCDBAB@HWCryptoHook_ModExpCRT?$AA@	; `string'
_BSS	SEGMENT
_HWCRHK_lib_error_code DD 01H DUP (?)
_logstream DD	01H DUP (?)
_disable_mutex_callbacks DD 01H DUP (?)
_password_context DB 0cH DUP (?)
_hwcrhk_dso DD	01H DUP (?)
_hwcrhk_context DD 01H DUP (?)
_p_hwcrhk_Init DD 01H DUP (?)
_p_hwcrhk_Finish DD 01H DUP (?)
_p_hwcrhk_ModExp DD 01H DUP (?)
_p_hwcrhk_RSA DD 01H DUP (?)
_p_hwcrhk_RandomBytes DD 01H DUP (?)
_p_hwcrhk_RSALoadKey DD 01H DUP (?)
_p_hwcrhk_RSAGetPublicKey DD 01H DUP (?)
_p_hwcrhk_RSAUnloadKey DD 01H DUP (?)
_p_hwcrhk_ModExpCRT DD 01H DUP (?)
_HWCRHK_LIBNAME DD 01H DUP (?)
_BSS	ENDS
;	COMDAT ??_C@_0BH@DJCDBAB@HWCryptoHook_ModExpCRT?$AA@
CONST	SEGMENT
??_C@_0BH@DJCDBAB@HWCryptoHook_ModExpCRT?$AA@ DB 'HWCryptoHook_ModExpCRT', 00H ; `string'
CONST	ENDS
;	COMDAT ??_C@_0BK@KIEHKAED@HWCryptoHook_RSAUnloadKey?$AA@
CONST	SEGMENT
??_C@_0BK@KIEHKAED@HWCryptoHook_RSAUnloadKey?$AA@ DB 'HWCryptoHook_RSAUnl'
	DB	'oadKey', 00H				; `string'
CONST	ENDS
;	COMDAT ??_C@_0BN@IAFIFGLH@HWCryptoHook_RSAGetPublicKey?$AA@
CONST	SEGMENT
??_C@_0BN@IAFIFGLH@HWCryptoHook_RSAGetPublicKey?$AA@ DB 'HWCryptoHook_RSA'
	DB	'GetPublicKey', 00H				; `string'
CONST	ENDS
;	COMDAT ??_C@_0BI@LLPJLM@HWCryptoHook_RSALoadKey?$AA@
CONST	SEGMENT
??_C@_0BI@LLPJLM@HWCryptoHook_RSALoadKey?$AA@ DB 'HWCryptoHook_RSALoadKey'
	DB	00H						; `string'
CONST	ENDS
;	COMDAT ??_C@_0BJ@BJBOJAH@HWCryptoHook_RandomBytes?$AA@
CONST	SEGMENT
??_C@_0BJ@BJBOJAH@HWCryptoHook_RandomBytes?$AA@ DB 'HWCryptoHook_RandomBy'
	DB	'tes', 00H					; `string'
CONST	ENDS
;	COMDAT ??_C@_0BB@DAMOFKMC@HWCryptoHook_RSA?$AA@
CONST	SEGMENT
??_C@_0BB@DAMOFKMC@HWCryptoHook_RSA?$AA@ DB 'HWCryptoHook_RSA', 00H ; `string'
CONST	ENDS
;	COMDAT ??_C@_0BE@JMLLHLOD@HWCryptoHook_ModExp?$AA@
CONST	SEGMENT
??_C@_0BE@JMLLHLOD@HWCryptoHook_ModExp?$AA@ DB 'HWCryptoHook_ModExp', 00H ; `string'
CONST	ENDS
;	COMDAT ??_C@_0BE@GGPPLDJL@HWCryptoHook_Finish?$AA@
CONST	SEGMENT
??_C@_0BE@GGPPLDJL@HWCryptoHook_Finish?$AA@ DB 'HWCryptoHook_Finish', 00H ; `string'
CONST	ENDS
;	COMDAT ??_C@_0BC@BNCGEAID@HWCryptoHook_Init?$AA@
CONST	SEGMENT
??_C@_0BC@BNCGEAID@HWCryptoHook_Init?$AA@ DB 'HWCryptoHook_Init', 00H ; `string'
CONST	ENDS
;	COMDAT ??_C@_07JOEMLHGJ@ncipher?$AA@
CONST	SEGMENT
??_C@_07JOEMLHGJ@ncipher?$AA@ DB 'ncipher', 00H		; `string'
CONST	ENDS
;	COMDAT ??_C@_0BN@PIPOENLH@CHIL?5hardware?5engine?5support?$AA@
CONST	SEGMENT
??_C@_0BN@PIPOENLH@CHIL?5hardware?5engine?5support?$AA@ DB 'CHIL hardware'
	DB	' engine support', 00H			; `string'
CONST	ENDS
;	COMDAT ??_C@_04JHJDAOJH@chil?$AA@
CONST	SEGMENT
??_C@_04JHJDAOJH@chil?$AA@ DB 'chil', 00H		; `string'
CONST	ENDS
;	COMDAT ??_C@_0P@BEIIGDM@CHIL?5DH?5method?$AA@
CONST	SEGMENT
??_C@_0P@BEIIGDM@CHIL?5DH?5method?$AA@ DB 'CHIL DH method', 00H ; `string'
CONST	ENDS
;	COMDAT ??_C@_0BA@IBIFJOGM@CHIL?5RSA?5method?$AA@
CONST	SEGMENT
??_C@_0BA@IBIFJOGM@CHIL?5RSA?5method?$AA@ DB 'CHIL RSA method', 00H ; `string'
CONST	ENDS
;	COMDAT ??_C@_0DE@BOALENFP@Set?5the?5global?5user?5interface?5ex@
CONST	SEGMENT
??_C@_0DE@BOALENFP@Set?5the?5global?5user?5interface?5ex@ DB 'Set the glo'
	DB	'bal user interface extra data (internal)', 00H ; `string'
CONST	ENDS
;	COMDAT ??_C@_0BC@HOEJKHEO@SET_CALLBACK_DATA?$AA@
CONST	SEGMENT
??_C@_0BC@HOEJKHEO@SET_CALLBACK_DATA?$AA@ DB 'SET_CALLBACK_DATA', 00H ; `string'
CONST	ENDS
;	COMDAT ??_C@_0CJ@PMPFMPLL@Set?5the?5global?5user?5interface?5?$CIi@
CONST	SEGMENT
??_C@_0CJ@PMPFMPLL@Set?5the?5global?5user?5interface?5?$CIi@ DB 'Set the '
	DB	'global user interface (internal)', 00H	; `string'
CONST	ENDS
;	COMDAT ??_C@_0BD@HNMPJJDL@SET_USER_INTERFACE?$AA@
CONST	SEGMENT
??_C@_0BD@HNMPJJDL@SET_USER_INTERFACE?$AA@ DB 'SET_USER_INTERFACE', 00H ; `string'
CONST	ENDS
;	COMDAT ??_C@_0DG@BPKOLNNM@Turns?5thread?9safe?5locking?5on?5?$CIze@
CONST	SEGMENT
??_C@_0DG@BPKOLNNM@Turns?5thread?9safe?5locking?5on?5?$CIze@ DB 'Turns th'
	DB	'read-safe locking on (zero) or off (non-zero)', 00H ; `string'
CONST	ENDS
;	COMDAT ??_C@_0P@PLPNJEBB@THREAD_LOCKING?$AA@
CONST	SEGMENT
??_C@_0P@PLPNJEBB@THREAD_LOCKING?$AA@ DB 'THREAD_LOCKING', 00H ; `string'
CONST	ENDS
;	COMDAT ??_C@_0DC@FMAPNBJE@Turns?5fork?$CI?$CJ?5checking?5on?5?$CInon?9ze@
CONST	SEGMENT
??_C@_0DC@FMAPNBJE@Turns?5fork?$CI?$CJ?5checking?5on?5?$CInon?9ze@ DB 'Tu'
	DB	'rns fork() checking on (non-zero) or off (zero)', 00H ; `string'
CONST	ENDS
;	COMDAT ??_C@_0L@BECOIJJF@FORK_CHECK?$AA@
CONST	SEGMENT
??_C@_0L@BECOIJJF@FORK_CHECK?$AA@ DB 'FORK_CHECK', 00H	; `string'
CONST	ENDS
;	COMDAT ??_C@_0DC@HFMCEPJN@Specifies?5the?5path?5to?5the?5?8hwcrh@
CONST	SEGMENT
??_C@_0DC@HFMCEPJN@Specifies?5the?5path?5to?5the?5?8hwcrh@ DB 'Specifies '
	DB	'the path to the ''hwcrhk'' shared library', 00H ; `string'
CONST	ENDS
;	COMDAT ??_C@_07EGEBNIPD@SO_PATH?$AA@
CONST	SEGMENT
??_C@_07EGEBNIPD@SO_PATH?$AA@ DB 'SO_PATH', 00H		; `string'
CONST	ENDS
CONST	SEGMENT
_hwcrhk_cmd_defns DD 0c8H
	DD	FLAT:??_C@_07EGEBNIPD@SO_PATH?$AA@
	DD	FLAT:??_C@_0DC@HFMCEPJN@Specifies?5the?5path?5to?5the?5?8hwcrh@
	DD	02H
	DD	0c9H
	DD	FLAT:??_C@_0L@BECOIJJF@FORK_CHECK?$AA@
	DD	FLAT:??_C@_0DC@FMAPNBJE@Turns?5fork?$CI?$CJ?5checking?5on?5?$CInon?9ze@
	DD	01H
	DD	0caH
	DD	FLAT:??_C@_0P@PLPNJEBB@THREAD_LOCKING?$AA@
	DD	FLAT:??_C@_0DG@BPKOLNNM@Turns?5thread?9safe?5locking?5on?5?$CIze@
	DD	01H
	DD	0cbH
	DD	FLAT:??_C@_0BD@HNMPJJDL@SET_USER_INTERFACE?$AA@
	DD	FLAT:??_C@_0CJ@PMPFMPLL@Set?5the?5global?5user?5interface?5?$CIi@
	DD	08H
	DD	0ccH
	DD	FLAT:??_C@_0BC@HOEJKHEO@SET_CALLBACK_DATA?$AA@
	DD	FLAT:??_C@_0DE@BOALENFP@Set?5the?5global?5user?5interface?5ex@
	DD	08H
	DD	00H
	DD	00H
	DD	00H
	DD	00H
CONST	ENDS
;	COMDAT ??_C@_0M@NAKMHNGB@CHIL?5engine?$AA@
CONST	SEGMENT
??_C@_0M@NAKMHNGB@CHIL?5engine?$AA@ DB 'CHIL engine', 00H ; `string'
CONST	ENDS
;	COMDAT ??_C@_0N@JLJLJPMB@unit?5failure?$AA@
CONST	SEGMENT
??_C@_0N@JLJLJPMB@unit?5failure?$AA@ DB 'unit failure', 00H ; `string'
CONST	ENDS
;	COMDAT ??_C@_0BB@PJKNAGAG@request?5fallback?$AA@
CONST	SEGMENT
??_C@_0BB@PJKNAGAG@request?5fallback?$AA@ DB 'request fallback', 00H ; `string'
CONST	ENDS
;	COMDAT ??_C@_0P@LMFGIOCF@request?5failed?$AA@
CONST	SEGMENT
??_C@_0P@LMFGIOCF@request?5failed?$AA@ DB 'request failed', 00H ; `string'
CONST	ENDS
;	COMDAT ??_C@_0CA@HOGGPCBJ@private?5key?5algorithms?5disabled?$AA@
CONST	SEGMENT
??_C@_0CA@HOGGPCBJ@private?5key?5algorithms?5disabled?$AA@ DB 'private ke'
	DB	'y algorithms disabled', 00H			; `string'
CONST	ENDS
;	COMDAT ??_C@_06NNLPDOME@no?5key?$AA@
CONST	SEGMENT
??_C@_06NNLPDOME@no?5key?$AA@ DB 'no key', 00H		; `string'
CONST	ENDS
;	COMDAT ??_C@_0M@CPEHGAAC@no?5callback?$AA@
CONST	SEGMENT
??_C@_0M@CPEHGAAC@no?5callback?$AA@ DB 'no callback', 00H ; `string'
CONST	ENDS
;	COMDAT ??_C@_0L@ICAFOIA@not?5loaded?$AA@
CONST	SEGMENT
??_C@_0L@ICAFOIA@not?5loaded?$AA@ DB 'not loaded', 00H	; `string'
CONST	ENDS
;	COMDAT ??_C@_0BA@FEBOOGFB@not?5initialised?$AA@
CONST	SEGMENT
??_C@_0BA@FEBOOGFB@not?5initialised?$AA@ DB 'not initialised', 00H ; `string'
CONST	ENDS
;	COMDAT ??_C@_0BH@KAGGBJK@missing?5key?5components?$AA@
CONST	SEGMENT
??_C@_0BH@KAGGBJK@missing?5key?5components?$AA@ DB 'missing key component'
	DB	's', 00H					; `string'
CONST	ENDS
;	COMDAT ??_C@_0M@DBMBNOIK@dso?5failure?$AA@
CONST	SEGMENT
??_C@_0M@DBMBNOIK@dso?5failure?$AA@ DB 'dso failure', 00H ; `string'
CONST	ENDS
;	COMDAT ??_C@_0BN@NJGGMLOG@ctrl?5command?5not?5implemented?$AA@
CONST	SEGMENT
??_C@_0BN@NJGGMLOG@ctrl?5command?5not?5implemented?$AA@ DB 'ctrl command '
	DB	'not implemented', 00H			; `string'
CONST	ENDS
;	COMDAT ??_C@_0L@GDNIJDAB@chil?5error?$AA@
CONST	SEGMENT
??_C@_0L@GDNIJDAB@chil?5error?$AA@ DB 'chil error', 00H	; `string'
CONST	ENDS
;	COMDAT ??_C@_0O@LKOODKPM@bio?5was?5freed?$AA@
CONST	SEGMENT
??_C@_0O@LKOODKPM@bio?5was?5freed?$AA@ DB 'bio was freed', 00H ; `string'
CONST	ENDS
;	COMDAT ??_C@_0P@BJJHFGDF@already?5loaded?$AA@
CONST	SEGMENT
??_C@_0P@BJJHFGDF@already?5loaded?$AA@ DB 'already loaded', 00H ; `string'
CONST	ENDS
;	COMDAT ??_C@_0BD@MHHCHOOE@HWCRHK_RSA_MOD_EXP?$AA@
CONST	SEGMENT
??_C@_0BD@MHHCHOOE@HWCRHK_RSA_MOD_EXP?$AA@ DB 'HWCRHK_RSA_MOD_EXP', 00H ; `string'
CONST	ENDS
;	COMDAT ??_C@_0BC@PDNECBDG@HWCRHK_RAND_BYTES?$AA@
CONST	SEGMENT
??_C@_0BC@PDNECBDG@HWCRHK_RAND_BYTES?$AA@ DB 'HWCRHK_RAND_BYTES', 00H ; `string'
CONST	ENDS
;	COMDAT ??_C@_0P@ECCKNBIM@HWCRHK_MOD_EXP?$AA@
CONST	SEGMENT
??_C@_0P@ECCKNBIM@HWCRHK_MOD_EXP?$AA@ DB 'HWCRHK_MOD_EXP', 00H ; `string'
CONST	ENDS
;	COMDAT ??_C@_0BD@HCDDGOID@HWCRHK_LOAD_PUBKEY?$AA@
CONST	SEGMENT
??_C@_0BD@HCDDGOID@HWCRHK_LOAD_PUBKEY?$AA@ DB 'HWCRHK_LOAD_PUBKEY', 00H ; `string'
CONST	ENDS
;	COMDAT ??_C@_0BE@NNEJLHLA@HWCRHK_LOAD_PRIVKEY?$AA@
CONST	SEGMENT
??_C@_0BE@NNEJLHLA@HWCRHK_LOAD_PRIVKEY?$AA@ DB 'HWCRHK_LOAD_PRIVKEY', 00H ; `string'
CONST	ENDS
;	COMDAT ??_C@_0BD@GFDHIBFM@HWCRHK_INSERT_CARD?$AA@
CONST	SEGMENT
??_C@_0BD@GFDHIBFM@HWCRHK_INSERT_CARD?$AA@ DB 'HWCRHK_INSERT_CARD', 00H ; `string'
CONST	ENDS
;	COMDAT ??_C@_0M@EPBJMLK@HWCRHK_INIT?$AA@
CONST	SEGMENT
??_C@_0M@EPBJMLK@HWCRHK_INIT?$AA@ DB 'HWCRHK_INIT', 00H	; `string'
CONST	ENDS
;	COMDAT ??_C@_0BA@JBLNFPGL@HWCRHK_GET_PASS?$AA@
CONST	SEGMENT
??_C@_0BA@JBLNFPGL@HWCRHK_GET_PASS?$AA@ DB 'HWCRHK_GET_PASS', 00H ; `string'
CONST	ENDS
;	COMDAT ??_C@_0O@EKNHNLEL@HWCRHK_FINISH?$AA@
CONST	SEGMENT
??_C@_0O@EKNHNLEL@HWCRHK_FINISH?$AA@ DB 'HWCRHK_FINISH', 00H ; `string'
CONST	ENDS
;	COMDAT ??_C@_0M@ODINOHCI@HWCRHK_CTRL?$AA@
CONST	SEGMENT
??_C@_0M@ODINOHCI@HWCRHK_CTRL?$AA@ DB 'HWCRHK_CTRL', 00H ; `string'
CONST	ENDS
_DATA	SEGMENT
_HWCRHK_str_functs DD 064000H
	DD	FLAT:??_C@_0M@ODINOHCI@HWCRHK_CTRL?$AA@
	DD	065000H
	DD	FLAT:??_C@_0O@EKNHNLEL@HWCRHK_FINISH?$AA@
	DD	066000H
	DD	FLAT:??_C@_0BA@JBLNFPGL@HWCRHK_GET_PASS?$AA@
	DD	067000H
	DD	FLAT:??_C@_0M@EPBJMLK@HWCRHK_INIT?$AA@
	DD	068000H
	DD	FLAT:??_C@_0BD@GFDHIBFM@HWCRHK_INSERT_CARD?$AA@
	DD	069000H
	DD	FLAT:??_C@_0BE@NNEJLHLA@HWCRHK_LOAD_PRIVKEY?$AA@
	DD	06a000H
	DD	FLAT:??_C@_0BD@HCDDGOID@HWCRHK_LOAD_PUBKEY?$AA@
	DD	06b000H
	DD	FLAT:??_C@_0P@ECCKNBIM@HWCRHK_MOD_EXP?$AA@
	DD	06c000H
	DD	FLAT:??_C@_0BC@PDNECBDG@HWCRHK_RAND_BYTES?$AA@
	DD	06d000H
	DD	FLAT:??_C@_0BD@MHHCHOOE@HWCRHK_RSA_MOD_EXP?$AA@
	DD	00H
	DD	00H
_HWCRHK_str_reasons DD 064H
	DD	FLAT:??_C@_0P@BJJHFGDF@already?5loaded?$AA@
	DD	065H
	DD	FLAT:??_C@_0O@LKOODKPM@bio?5was?5freed?$AA@
	DD	066H
	DD	FLAT:??_C@_0L@GDNIJDAB@chil?5error?$AA@
	DD	067H
	DD	FLAT:??_C@_0BN@NJGGMLOG@ctrl?5command?5not?5implemented?$AA@
	DD	068H
	DD	FLAT:??_C@_0M@DBMBNOIK@dso?5failure?$AA@
	DD	069H
	DD	FLAT:??_C@_0BH@KAGGBJK@missing?5key?5components?$AA@
	DD	06aH
	DD	FLAT:??_C@_0BA@FEBOOGFB@not?5initialised?$AA@
	DD	06bH
	DD	FLAT:??_C@_0L@ICAFOIA@not?5loaded?$AA@
	DD	06cH
	DD	FLAT:??_C@_0M@CPEHGAAC@no?5callback?$AA@
	DD	06dH
	DD	FLAT:??_C@_06NNLPDOME@no?5key?$AA@
	DD	06eH
	DD	FLAT:??_C@_0CA@HOGGPCBJ@private?5key?5algorithms?5disabled?$AA@
	DD	06fH
	DD	FLAT:??_C@_0P@LMFGIOCF@request?5failed?$AA@
	DD	070H
	DD	FLAT:??_C@_0BB@PJKNAGAG@request?5fallback?$AA@
	DD	071H
	DD	FLAT:??_C@_0N@JLJLJPMB@unit?5failure?$AA@
	DD	00H
	DD	00H
_HWCRHK_lib_name DD 00H
	DD	FLAT:??_C@_0M@NAKMHNGB@CHIL?5engine?$AA@
	DD	00H
	DD	00H
_HWCRHK_error_init DD 01H
_hwcrhk_rsa DD	FLAT:??_C@_0BA@IBIFJOGM@CHIL?5RSA?5method?$AA@
	DD	00H
	DD	00H
	DD	00H
	DD	00H
	DD	FLAT:_hwcrhk_rsa_mod_exp
	DD	FLAT:_hwcrhk_mod_exp_mont
	DD	00H
	DD	FLAT:_hwcrhk_rsa_finish
	DD	00H
	DD	00H
	DD	00H
	DD	00H
	DD	00H
_hwcrhk_dh DD	FLAT:??_C@_0P@BEIIGDM@CHIL?5DH?5method?$AA@
	DD	00H
	DD	00H
	DD	FLAT:_hwcrhk_mod_exp_dh
	DD	00H
	DD	00H
	DD	00H
	DD	00H
	DD	00H
_hwcrhk_rand DD	00H
	DD	FLAT:_hwcrhk_rand_bytes
	DD	00H
	DD	00H
	DD	FLAT:_hwcrhk_rand_bytes
	DD	FLAT:_hwcrhk_rand_status
_engine_hwcrhk_id DD FLAT:??_C@_04JHJDAOJH@chil?$AA@
_engine_hwcrhk_name DD FLAT:??_C@_0BN@PIPOENLH@CHIL?5hardware?5engine?5support?$AA@
_engine_hwcrhk_id_alt DD FLAT:??_C@_07JOEMLHGJ@ncipher?$AA@
_hndidx_rsa DD	0ffffffffH
_hwcrhk_globals DD 010H
	DD	FLAT:_logstream
	DD	04H
	DD	00H
	DD	0ffffffffH
	DD	00H
	DD	00H
	DD	04H
	DD	00H
	DD	00H
	DD	00H
	DD	00H
	DD	00H
	DD	00H
	DD	00H
	DD	00H
	DD	00H
	DD	00H
	DD	FLAT:_hwcrhk_get_pass
	DD	FLAT:_hwcrhk_insert_card
	DD	FLAT:_hwcrhk_log_message
_n_hwcrhk_Init DD FLAT:??_C@_0BC@BNCGEAID@HWCryptoHook_Init?$AA@
_n_hwcrhk_Finish DD FLAT:??_C@_0BE@GGPPLDJL@HWCryptoHook_Finish?$AA@
_n_hwcrhk_ModExp DD FLAT:??_C@_0BE@JMLLHLOD@HWCryptoHook_ModExp?$AA@
_n_hwcrhk_RSA DD FLAT:??_C@_0BB@DAMOFKMC@HWCryptoHook_RSA?$AA@
_n_hwcrhk_RandomBytes DD FLAT:??_C@_0BJ@BJBOJAH@HWCryptoHook_RandomBytes?$AA@
_n_hwcrhk_RSALoadKey DD FLAT:??_C@_0BI@LLPJLM@HWCryptoHook_RSALoadKey?$AA@
_n_hwcrhk_RSAGetPublicKey DD FLAT:??_C@_0BN@IAFIFGLH@HWCryptoHook_RSAGetPublicKey?$AA@
_n_hwcrhk_RSAUnloadKey DD FLAT:??_C@_0BK@KIEHKAED@HWCryptoHook_RSAUnloadKey?$AA@
_n_hwcrhk_ModExpCRT DD FLAT:??_C@_0BH@DJCDBAB@HWCryptoHook_ModExpCRT?$AA@
_DATA	ENDS
PUBLIC	_v_check
PUBLIC	_bind_engine
PUBLIC	??_C@_08OKMEGKNO@nfhwcrhk?$AA@			; `string'
PUBLIC	??_C@_0BD@KHDDJGFL@?4?2engines?2e_chil?4c?$AA@	; `string'
PUBLIC	??_C@_0CC@FIICGL@nFast?5HWCryptoHook?5RSA?5key?5handl@ ; `string'
PUBLIC	??_C@_0M@FKGGGFHP@pass?5phrase?$AA@		; `string'
PUBLIC	??_C@_0BE@OBBPALOK@Current?5card?3?5?$CC?$CFs?$CC?6?$AA@ ; `string'
PUBLIC	??_C@_0BB@ENAEFLLN@Insert?5card?5?$CC?$CFs?$CC?$AA@ ; `string'
PUBLIC	??_C@_02DMLCCNBA@Cc?$AA@			; `string'
PUBLIC	??_C@_02PCIJFNDE@?$AN?6?$AA@			; `string'
PUBLIC	??_C@_0CK@BPFHOIG@?6?5then?5hit?5?$DMenter?$DO?5or?5C?$DMenter?$DO?5t@ ; `string'
PUBLIC	??_C@_03OFAPEBGM@?$CFs?6?$AA@			; `string'
EXTRN	_CRYPTO_set_ex_data_implementation:PROC
EXTRN	_CRYPTO_lock:PROC
EXTRN	_CRYPTO_set_locking_callback:PROC
EXTRN	_CRYPTO_set_add_lock_callback:PROC
EXTRN	_CRYPTO_add_lock:PROC
EXTRN	_CRYPTO_get_new_dynlockid:PROC
EXTRN	_CRYPTO_destroy_dynlockid:PROC
EXTRN	_CRYPTO_set_dynlock_create_callback:PROC
EXTRN	_CRYPTO_set_dynlock_lock_callback:PROC
EXTRN	_CRYPTO_set_dynlock_destroy_callback:PROC
EXTRN	_CRYPTO_get_dynlock_create_callback:PROC
EXTRN	_CRYPTO_get_dynlock_lock_callback:PROC
EXTRN	_CRYPTO_get_dynlock_destroy_callback:PROC
EXTRN	_CRYPTO_set_mem_functions:PROC
EXTRN	_CRYPTO_malloc:PROC
EXTRN	_CRYPTO_free:PROC
EXTRN	_BIO_free:PROC
EXTRN	_BIO_printf:PROC
EXTRN	_BIO_snprintf:PROC
EXTRN	_BN_new:PROC
EXTRN	_bn_expand2:PROC
EXTRN	_EVP_PKEY_assign:PROC
EXTRN	_EVP_PKEY_new:PROC
EXTRN	_EVP_PKEY_free:PROC
EXTRN	_BUF_strdup:PROC
EXTRN	_RSA_new:PROC
EXTRN	_RSA_new_method:PROC
EXTRN	_RSA_free:PROC
EXTRN	_RSA_PKCS1_SSLeay:PROC
EXTRN	_RSA_get_ex_new_index:PROC
EXTRN	_RSA_set_ex_data:PROC
EXTRN	_RSA_get_ex_data:PROC
EXTRN	_DH_OpenSSL:PROC
EXTRN	_DSO_free:PROC
EXTRN	_DSO_load:PROC
EXTRN	_DSO_bind_func:PROC
EXTRN	_UI_new_method:PROC
EXTRN	_UI_free:PROC
EXTRN	_UI_add_input_string:PROC
EXTRN	_UI_dup_input_boolean:PROC
EXTRN	_UI_dup_info_string:PROC
EXTRN	_UI_construct_prompt:PROC
EXTRN	_UI_add_user_data:PROC
EXTRN	_UI_process:PROC
EXTRN	_UI_ctrl:PROC
EXTRN	_ERR_put_error:PROC
EXTRN	_ERR_add_error_data:PROC
EXTRN	_ERR_load_strings:PROC
EXTRN	_ERR_unload_strings:PROC
EXTRN	_ERR_get_next_error_library:PROC
EXTRN	_ERR_set_implementation:PROC
EXTRN	_ENGINE_set_id:PROC
EXTRN	_ENGINE_set_name:PROC
EXTRN	_ENGINE_set_RSA:PROC
EXTRN	_ENGINE_set_DH:PROC
EXTRN	_ENGINE_set_RAND:PROC
EXTRN	_ENGINE_set_destroy_function:PROC
EXTRN	_ENGINE_set_init_function:PROC
EXTRN	_ENGINE_set_finish_function:PROC
EXTRN	_ENGINE_set_ctrl_function:PROC
EXTRN	_ENGINE_set_load_privkey_function:PROC
EXTRN	_ENGINE_set_load_pubkey_function:PROC
EXTRN	_ENGINE_set_cmd_defns:PROC
EXTRN	_ENGINE_get_static_state:PROC
EXTRN	@__security_check_cookie@4:PROC
EXTRN	__chkstk:PROC
EXTRN	___security_cookie:DWORD
;	COMDAT ??_C@_03OFAPEBGM@?$CFs?6?$AA@
CONST	SEGMENT
??_C@_03OFAPEBGM@?$CFs?6?$AA@ DB '%s', 0aH, 00H		; `string'
CONST	ENDS
;	COMDAT ??_C@_0CK@BPFHOIG@?6?5then?5hit?5?$DMenter?$DO?5or?5C?$DMenter?$DO?5t@
CONST	SEGMENT
??_C@_0CK@BPFHOIG@?6?5then?5hit?5?$DMenter?$DO?5or?5C?$DMenter?$DO?5t@ DB 0aH
	DB	' then hit <enter> or C<enter> to cancel', 0aH, 00H ; `string'
CONST	ENDS
;	COMDAT ??_C@_02PCIJFNDE@?$AN?6?$AA@
CONST	SEGMENT
??_C@_02PCIJFNDE@?$AN?6?$AA@ DB 0dH, 0aH, 00H		; `string'
CONST	ENDS
;	COMDAT ??_C@_02DMLCCNBA@Cc?$AA@
CONST	SEGMENT
??_C@_02DMLCCNBA@Cc?$AA@ DB 'Cc', 00H			; `string'
CONST	ENDS
;	COMDAT ??_C@_0BB@ENAEFLLN@Insert?5card?5?$CC?$CFs?$CC?$AA@
CONST	SEGMENT
??_C@_0BB@ENAEFLLN@Insert?5card?5?$CC?$CFs?$CC?$AA@ DB 'Insert card "%s"', 00H ; `string'
CONST	ENDS
;	COMDAT ??_C@_0BE@OBBPALOK@Current?5card?3?5?$CC?$CFs?$CC?6?$AA@
CONST	SEGMENT
??_C@_0BE@OBBPALOK@Current?5card?3?5?$CC?$CFs?$CC?6?$AA@ DB 'Current card'
	DB	': "%s"', 0aH, 00H				; `string'
CONST	ENDS
;	COMDAT ??_C@_0M@FKGGGFHP@pass?5phrase?$AA@
CONST	SEGMENT
??_C@_0M@FKGGGFHP@pass?5phrase?$AA@ DB 'pass phrase', 00H ; `string'
CONST	ENDS
;	COMDAT ??_C@_0CC@FIICGL@nFast?5HWCryptoHook?5RSA?5key?5handl@
CONST	SEGMENT
??_C@_0CC@FIICGL@nFast?5HWCryptoHook?5RSA?5key?5handl@ DB 'nFast HWCrypto'
	DB	'Hook RSA key handle', 00H			; `string'
CONST	ENDS
;	COMDAT ??_C@_0BD@KHDDJGFL@?4?2engines?2e_chil?4c?$AA@
CONST	SEGMENT
??_C@_0BD@KHDDJGFL@?4?2engines?2e_chil?4c?$AA@ DB '.\engines\e_chil.c', 00H ; `string'
CONST	ENDS
;	COMDAT ??_C@_08OKMEGKNO@nfhwcrhk?$AA@
CONST	SEGMENT
??_C@_08OKMEGKNO@nfhwcrhk?$AA@ DB 'nfhwcrhk', 00H	; `string'
CONST	ENDS
; Function compile flags: /Ogtpy
;	COMDAT _bind_engine
_TEXT	SEGMENT
_e$ = 8							; size = 4
_id$ = 12						; size = 4
_fns$ = 16						; size = 4
_bind_engine PROC					; COMDAT
; File c:\workpace\openssl\openssl-1.0.2h\engines\e_chil.c
; Line 1340
	push	esi
	call	_ENGINE_get_static_state
	mov	esi, DWORD PTR _fns$[esp]
	cmp	eax, DWORD PTR [esi]
	je	SHORT $skip_cbs$10
	push	DWORD PTR [esi+20]
	push	DWORD PTR [esi+16]
	push	DWORD PTR [esi+12]
	call	_CRYPTO_set_mem_functions
	add	esp, 12					; 0000000cH
	test	eax, eax
	jne	SHORT $LN3@bind_engin
$LN8@bind_engin:
	xor	eax, eax
	pop	esi
	ret	0
$LN3@bind_engin:
	push	DWORD PTR [esi+24]
	call	_CRYPTO_set_locking_callback
	push	DWORD PTR [esi+28]
	call	_CRYPTO_set_add_lock_callback
	push	DWORD PTR [esi+32]
	call	_CRYPTO_set_dynlock_create_callback
	push	DWORD PTR [esi+36]
	call	_CRYPTO_set_dynlock_lock_callback
	push	DWORD PTR [esi+40]
	call	_CRYPTO_set_dynlock_destroy_callback
	push	DWORD PTR [esi+8]
	call	_CRYPTO_set_ex_data_implementation
	add	esp, 24					; 00000018H
	test	eax, eax
	je	SHORT $LN8@bind_engin
	push	DWORD PTR [esi+4]
	call	_ERR_set_implementation
	add	esp, 4
	test	eax, eax
	je	SHORT $LN8@bind_engin
$skip_cbs$10:
	push	DWORD PTR _id$[esp]
	push	DWORD PTR _e$[esp+4]
	call	_bind_fn
	add	esp, 8
	neg	eax
	sbb	eax, eax
	neg	eax
	pop	esi
	ret	0
_bind_engine ENDP
_TEXT	ENDS
; Function compile flags: /Ogtpy
;	COMDAT _v_check
_TEXT	SEGMENT
_v$ = 8							; size = 4
_v_check PROC						; COMDAT
; File c:\workpace\openssl\openssl-1.0.2h\engines\e_chil.c
; Line 1339
	cmp	DWORD PTR _v$[esp-4], 131072		; 00020000H
	sbb	eax, eax
	and	eax, -131072				; fffe0000H
	add	eax, 131072				; 00020000H
	ret	0
_v_check ENDP
_TEXT	ENDS
; Function compile flags: /Ogtpy
;	COMDAT _bind_fn
_TEXT	SEGMENT
_e$ = 8							; size = 4
_id$ = 12						; size = 4
_bind_fn PROC						; COMDAT
; File c:\workpace\openssl\openssl-1.0.2h\engines\e_chil.c
; Line 1331
	mov	eax, DWORD PTR _id$[esp-4]
	test	eax, eax
	je	SHORT $LN2@bind_fn
	mov	edx, DWORD PTR _engine_hwcrhk_id
	mov	ecx, eax
	push	ebx
$LL5@bind_fn:
	mov	bl, BYTE PTR [ecx]
	cmp	bl, BYTE PTR [edx]
	jne	SHORT $LN6@bind_fn
	test	bl, bl
	je	SHORT $LN7@bind_fn
	mov	bl, BYTE PTR [ecx+1]
	cmp	bl, BYTE PTR [edx+1]
	jne	SHORT $LN6@bind_fn
	add	ecx, 2
	add	edx, 2
	test	bl, bl
	jne	SHORT $LL5@bind_fn
$LN7@bind_fn:
	xor	ecx, ecx
	jmp	SHORT $LN8@bind_fn
$LN6@bind_fn:
	sbb	ecx, ecx
	or	ecx, 1
$LN8@bind_fn:
	pop	ebx
	test	ecx, ecx
	je	SHORT $LN2@bind_fn
	mov	ecx, DWORD PTR _engine_hwcrhk_id_alt
$LL9@bind_fn:
	mov	dl, BYTE PTR [eax]
	cmp	dl, BYTE PTR [ecx]
	jne	SHORT $LN10@bind_fn
	test	dl, dl
	je	SHORT $LN11@bind_fn
	mov	dl, BYTE PTR [eax+1]
	cmp	dl, BYTE PTR [ecx+1]
	jne	SHORT $LN10@bind_fn
	add	eax, 2
	add	ecx, 2
	test	dl, dl
	jne	SHORT $LL9@bind_fn
$LN11@bind_fn:
	xor	eax, eax
	jmp	SHORT $LN12@bind_fn
$LN10@bind_fn:
	sbb	eax, eax
	or	eax, 1
$LN12@bind_fn:
	test	eax, eax
	je	SHORT $LN2@bind_fn
; Line 1333
	xor	eax, eax
; Line 1337
	ret	0
$LN2@bind_fn:
; Line 1334
	push	DWORD PTR _e$[esp-4]
	call	_bind_helper
	add	esp, 4
	neg	eax
	sbb	eax, eax
	neg	eax
; Line 1337
	ret	0
_bind_fn ENDP
_TEXT	ENDS
; Function compile flags: /Ogtpy
;	COMDAT _release_context
_TEXT	SEGMENT
_hac$ = 8						; size = 4
_release_context PROC					; COMDAT
; File c:\workpace\openssl\openssl-1.0.2h\engines\e_chil.c
; Line 523
	jmp	DWORD PTR _p_hwcrhk_Finish
_release_context ENDP
_TEXT	ENDS
; Function compile flags: /Ogtpy
;	COMDAT _get_context
_TEXT	SEGMENT
_rmsg$ = -1036						; size = 8
_tempbuf$ = -1028					; size = 1024
__$ArrayPad$ = -4					; size = 4
_hac$ = 8						; size = 4
_cac$ = 12						; size = 4
_get_context PROC					; COMDAT
; File c:\workpace\openssl\openssl-1.0.2h\engines\e_chil.c
; Line 507
	mov	eax, 1036				; 0000040cH
	call	__chkstk
	mov	eax, DWORD PTR ___security_cookie
	xor	eax, esp
	mov	DWORD PTR __$ArrayPad$[esp+1036], eax
	mov	eax, DWORD PTR _cac$[esp+1032]
; Line 511
	lea	ecx, DWORD PTR _tempbuf$[esp+1036]
	push	esi
	mov	esi, DWORD PTR _hac$[esp+1036]
; Line 514
	push	eax
	lea	eax, DWORD PTR _rmsg$[esp+1044]
	mov	DWORD PTR _rmsg$[esp+1044], ecx
	push	eax
	push	84					; 00000054H
	push	OFFSET _hwcrhk_globals
	mov	DWORD PTR _rmsg$[esp+1060], 1024	; 00000400H
	call	DWORD PTR _p_hwcrhk_Init
; Line 515
	xor	ecx, ecx
	mov	DWORD PTR [esi], eax
	add	esp, 16					; 00000010H
	test	eax, eax
	setne	cl
	mov	eax, ecx
; Line 518
	mov	ecx, DWORD PTR __$ArrayPad$[esp+1040]
	pop	esi
	xor	ecx, esp
	call	@__security_check_cookie@4
	add	esp, 1036				; 0000040cH
	ret	0
_get_context ENDP
_TEXT	ENDS
; Function compile flags: /Ogtpy
;	COMDAT _set_HWCRHK_LIBNAME
_TEXT	SEGMENT
_name$ = 8						; size = 4
_set_HWCRHK_LIBNAME PROC				; COMDAT
; File c:\workpace\openssl\openssl-1.0.2h\engines\e_chil.c
; Line 465
	mov	eax, DWORD PTR _HWCRHK_LIBNAME
	test	eax, eax
	je	SHORT $LN4@set_HWCRHK
; Line 466
	push	eax
	call	_CRYPTO_free
	add	esp, 4
$LN4@set_HWCRHK:
; Line 480
	push	DWORD PTR _name$[esp-4]
; Line 467
	mov	DWORD PTR _HWCRHK_LIBNAME, 0
; Line 480
	call	_BUF_strdup
	xor	ecx, ecx
	mov	DWORD PTR _HWCRHK_LIBNAME, eax
	add	esp, 4
	test	eax, eax
	setne	cl
	mov	eax, ecx
; Line 481
	ret	0
_set_HWCRHK_LIBNAME ENDP
_TEXT	ENDS
; Function compile flags: /Ogtpy
;	COMDAT _get_HWCRHK_LIBNAME
_TEXT	SEGMENT
_get_HWCRHK_LIBNAME PROC				; COMDAT
; File c:\workpace\openssl\openssl-1.0.2h\engines\e_chil.c
; Line 472
	mov	ecx, DWORD PTR _HWCRHK_LIBNAME
	mov	eax, OFFSET ??_C@_08OKMEGKNO@nfhwcrhk?$AA@
	test	ecx, ecx
	cmovne	eax, ecx
; Line 475
	ret	0
_get_HWCRHK_LIBNAME ENDP
_TEXT	ENDS
; Function compile flags: /Ogtpy
;	COMDAT _free_HWCRHK_LIBNAME
_TEXT	SEGMENT
_free_HWCRHK_LIBNAME PROC				; COMDAT
; File c:\workpace\openssl\openssl-1.0.2h\engines\e_chil.c
; Line 465
	mov	eax, DWORD PTR _HWCRHK_LIBNAME
	test	eax, eax
	je	SHORT $LN4@free_HWCRH
; Line 466
	push	eax
	call	_CRYPTO_free
	add	esp, 4
$LN4@free_HWCRH:
; Line 467
	mov	DWORD PTR _HWCRHK_LIBNAME, 0
; Line 468
	ret	0
_free_HWCRHK_LIBNAME ENDP
_TEXT	ENDS
; Function compile flags: /Ogtpy
;	COMDAT _bind_helper
_TEXT	SEGMENT
_e$ = 8							; size = 4
_bind_helper PROC					; COMDAT
; File c:\workpace\openssl\openssl-1.0.2h\engines\e_chil.c
; Line 352
	push	esi
; Line 373
	push	DWORD PTR _engine_hwcrhk_id
	mov	esi, DWORD PTR _e$[esp+4]
	push	esi
	call	_ENGINE_set_id
	add	esp, 8
	test	eax, eax
	je	$LN3@bind_helpe
	push	DWORD PTR _engine_hwcrhk_name
	push	esi
	call	_ENGINE_set_name
	add	esp, 8
	test	eax, eax
	je	$LN3@bind_helpe
	push	OFFSET _hwcrhk_rsa
	push	esi
	call	_ENGINE_set_RSA
	add	esp, 8
	test	eax, eax
	je	$LN3@bind_helpe
	push	OFFSET _hwcrhk_dh
	push	esi
	call	_ENGINE_set_DH
	add	esp, 8
	test	eax, eax
	je	$LN3@bind_helpe
	push	OFFSET _hwcrhk_rand
	push	esi
	call	_ENGINE_set_RAND
	add	esp, 8
	test	eax, eax
	je	$LN3@bind_helpe
	push	OFFSET _hwcrhk_destroy
	push	esi
	call	_ENGINE_set_destroy_function
	add	esp, 8
	test	eax, eax
	je	$LN3@bind_helpe
	push	OFFSET _hwcrhk_init
	push	esi
	call	_ENGINE_set_init_function
	add	esp, 8
	test	eax, eax
	je	$LN3@bind_helpe
	push	OFFSET _hwcrhk_finish
	push	esi
	call	_ENGINE_set_finish_function
	add	esp, 8
	test	eax, eax
	je	$LN3@bind_helpe
	push	OFFSET _hwcrhk_ctrl
	push	esi
	call	_ENGINE_set_ctrl_function
	add	esp, 8
	test	eax, eax
	je	$LN3@bind_helpe
	push	OFFSET _hwcrhk_load_privkey
	push	esi
	call	_ENGINE_set_load_privkey_function
	add	esp, 8
	test	eax, eax
	je	SHORT $LN3@bind_helpe
	push	OFFSET _hwcrhk_load_pubkey
	push	esi
	call	_ENGINE_set_load_pubkey_function
	add	esp, 8
	test	eax, eax
	je	SHORT $LN3@bind_helpe
	push	OFFSET _hwcrhk_cmd_defns
	push	esi
	call	_ENGINE_set_cmd_defns
	add	esp, 8
	test	eax, eax
	je	SHORT $LN3@bind_helpe
; Line 386
	call	_RSA_PKCS1_SSLeay
; Line 387
	mov	ecx, DWORD PTR [eax+4]
	mov	DWORD PTR _hwcrhk_rsa+4, ecx
; Line 388
	mov	ecx, DWORD PTR [eax+8]
	mov	DWORD PTR _hwcrhk_rsa+8, ecx
; Line 389
	mov	ecx, DWORD PTR [eax+12]
	mov	DWORD PTR _hwcrhk_rsa+12, ecx
; Line 390
	mov	eax, DWORD PTR [eax+16]
	mov	DWORD PTR _hwcrhk_rsa+16, eax
; Line 395
	call	_DH_OpenSSL
; Line 396
	mov	ecx, DWORD PTR [eax+4]
	mov	DWORD PTR _hwcrhk_dh+4, ecx
; Line 397
	mov	eax, DWORD PTR [eax+8]
	mov	DWORD PTR _hwcrhk_dh+8, eax
; Line 401
	call	_ERR_load_HWCRHK_strings
; Line 402
	mov	eax, 1
	pop	esi
; Line 403
	ret	0
$LN3@bind_helpe:
; Line 375
	xor	eax, eax
	pop	esi
; Line 403
	ret	0
_bind_helper ENDP
_TEXT	ENDS
; Function compile flags: /Ogtpy
;	COMDAT _hwcrhk_log_message
_TEXT	SEGMENT
_logstr$ = 8						; size = 4
_message$ = 12						; size = 4
_hwcrhk_log_message PROC				; COMDAT
; File c:\workpace\openssl\openssl-1.0.2h\engines\e_chil.c
; Line 1315
	push	1315					; 00000523H
	push	OFFSET ??_C@_0BD@KHDDJGFL@?4?2engines?2e_chil?4c?$AA@
	push	21					; 00000015H
	push	9
	call	_CRYPTO_lock
; Line 1316
	mov	eax, DWORD PTR _logstr$[esp+12]
	add	esp, 16					; 00000010H
	test	eax, eax
	je	SHORT $LN3@hwcrhk_log
; Line 1317
	mov	eax, DWORD PTR [eax]
; Line 1318
	test	eax, eax
	je	SHORT $LN3@hwcrhk_log
; Line 1319
	push	DWORD PTR _message$[esp-4]
	push	OFFSET ??_C@_03OFAPEBGM@?$CFs?6?$AA@
	push	eax
	call	_BIO_printf
	add	esp, 12					; 0000000cH
$LN3@hwcrhk_log:
; Line 1321
	push	1321					; 00000529H
	push	OFFSET ??_C@_0BD@KHDDJGFL@?4?2engines?2e_chil?4c?$AA@
	push	21					; 00000015H
	push	10					; 0000000aH
	call	_CRYPTO_lock
	add	esp, 16					; 00000010H
; Line 1322
	ret	0
_hwcrhk_log_message ENDP
_TEXT	ENDS
; Function compile flags: /Ogtpy
;	COMDAT _hwcrhk_get_pass
_TEXT	SEGMENT
_prompt$1$ = 8						; size = 4
_prompt_info$ = 8					; size = 4
_len_io$ = 12						; size = 4
_buf$ = 16						; size = 4
_ppctx$ = 20						; size = 4
_cactx$ = 24						; size = 4
_hwcrhk_get_pass PROC					; COMDAT
; File c:\workpace\openssl\openssl-1.0.2h\engines\e_chil.c
; Line 1180
	push	ebx
	push	ebp
	push	esi
; Line 1188
	mov	esi, DWORD PTR _prompt_info$[esp+8]
	xor	edx, edx
	xor	ebp, ebp
	xor	ecx, ecx
	push	edi
	test	esi, esi
	je	SHORT $LN5@hwcrhk_get
	xor	eax, eax
	cmp	BYTE PTR [esi], al
	cmove	esi, eax
$LN5@hwcrhk_get:
; Line 1191
	mov	edi, DWORD PTR _cactx$[esp+12]
	test	edi, edi
	je	SHORT $LN9@hwcrhk_get
; Line 1192
	mov	eax, DWORD PTR [edi+4]
	test	eax, eax
	cmovne	ecx, eax
; Line 1194
	mov	eax, DWORD PTR [edi]
	test	eax, eax
	cmovne	edx, eax
; Line 1196
	mov	eax, DWORD PTR [edi+8]
	test	eax, eax
	cmovne	ebp, eax
$LN9@hwcrhk_get:
; Line 1199
	mov	eax, DWORD PTR _ppctx$[esp+12]
	test	eax, eax
	je	SHORT $LN12@hwcrhk_get
; Line 1200
	mov	edi, DWORD PTR [eax]
	test	edi, edi
	je	SHORT $LN11@hwcrhk_get
; Line 1201
	mov	ecx, edi
; Line 1202
	xor	edx, edx
$LN11@hwcrhk_get:
; Line 1204
	mov	eax, DWORD PTR [eax+4]
	test	eax, eax
	cmovne	ebp, eax
$LN12@hwcrhk_get:
; Line 1207
	test	edx, edx
	jne	SHORT $LN13@hwcrhk_get
	test	ecx, ecx
	jne	SHORT $LN29@hwcrhk_get
; File c:\workpace\openssl\openssl-1.0.2h\engines\e_chil_err.c
; Line 154
	mov	eax, DWORD PTR _HWCRHK_lib_error_code
	test	eax, eax
	jne	SHORT $LN23@hwcrhk_get
; Line 155
	call	_ERR_get_next_error_library
	mov	DWORD PTR _HWCRHK_lib_error_code, eax
$LN23@hwcrhk_get:
; Line 156
	push	1208					; 000004b8H
	push	OFFSET ??_C@_0BD@KHDDJGFL@?4?2engines?2e_chil?4c?$AA@
	push	108					; 0000006cH
	push	102					; 00000066H
	push	eax
	call	_ERR_put_error
	add	esp, 20					; 00000014H
; File c:\workpace\openssl\openssl-1.0.2h\engines\e_chil.c
; Line 1209
	or	eax, -1
	pop	edi
	pop	esi
	pop	ebp
	pop	ebx
; Line 1243
	ret	0
$LN13@hwcrhk_get:
; Line 1212
	test	ecx, ecx
	je	$LN14@hwcrhk_get
$LN29@hwcrhk_get:
; Line 1213
	push	ecx
	call	_UI_new_method
	mov	ebx, eax
	add	esp, 4
; Line 1214
	test	ebx, ebx
	je	$LN15@hwcrhk_get
; Line 1216
	push	esi
	push	OFFSET ??_C@_0M@FKGGGFHP@pass?5phrase?$AA@
	push	ebx
	call	_UI_construct_prompt
; Line 1219
	mov	ecx, DWORD PTR _len_io$[esp+24]
	mov	edi, DWORD PTR _buf$[esp+24]
	mov	DWORD PTR _prompt$1$[esp+24], eax
	mov	ecx, DWORD PTR [ecx]
	dec	ecx
	push	ecx
	push	0
	push	edi
	push	2
	push	eax
	push	ebx
	call	_UI_add_input_string
; Line 1222
	push	ebp
	push	ebx
	mov	esi, eax
	call	_UI_add_user_data
; Line 1223
	push	0
	push	0
	push	1
	push	1
	push	ebx
	call	_UI_ctrl
	add	esp, 64					; 00000040H
; Line 1225
	test	esi, esi
	js	SHORT $LN19@hwcrhk_get
	npad	3
$LL4@hwcrhk_get:
; Line 1227
	push	ebx
	call	_UI_process
	add	esp, 4
; Line 1229
	test	eax, eax
	jns	SHORT $LN28@hwcrhk_get
	push	0
	push	0
	push	0
	push	2
	push	ebx
	call	_UI_ctrl
	add	esp, 20					; 00000014H
	test	eax, eax
	jne	SHORT $LL4@hwcrhk_get
; Line 1231
	jmp	SHORT $LN19@hwcrhk_get
$LN28@hwcrhk_get:
; Line 1232
	lea	ecx, DWORD PTR [edi+1]
$LL30@hwcrhk_get:
	mov	al, BYTE PTR [edi]
	inc	edi
	test	al, al
	jne	SHORT $LL30@hwcrhk_get
	mov	eax, DWORD PTR _len_io$[esp+12]
	sub	edi, ecx
	mov	DWORD PTR [eax], edi
$LN19@hwcrhk_get:
; Line 1234
	push	ebx
	call	_UI_free
; Line 1235
	push	DWORD PTR _prompt$1$[esp+16]
	call	_CRYPTO_free
; Line 1240
	mov	eax, DWORD PTR _len_io$[esp+20]
	add	esp, 8
	mov	eax, DWORD PTR [eax]
	neg	eax
	pop	edi
	sbb	eax, eax
	pop	esi
	neg	eax
	pop	ebp
	dec	eax
	pop	ebx
; Line 1243
	ret	0
$LN14@hwcrhk_get:
; Line 1238
	mov	ebx, DWORD PTR _len_io$[esp+12]
	push	ebp
	push	0
	push	DWORD PTR [ebx]
	push	DWORD PTR _buf$[esp+24]
	call	edx
	add	esp, 16					; 00000010H
	mov	DWORD PTR [ebx], eax
$LN15@hwcrhk_get:
; Line 1240
	mov	eax, DWORD PTR _len_io$[esp+12]
	pop	edi
	pop	esi
	pop	ebp
	mov	eax, DWORD PTR [eax]
	neg	eax
	pop	ebx
	sbb	eax, eax
	neg	eax
	dec	eax
; Line 1243
	ret	0
_hwcrhk_get_pass ENDP
_TEXT	ENDS
; Function compile flags: /Ogtpy
;	COMDAT _hwcrhk_insert_card
_TEXT	SEGMENT
_answer$1 = -521					; size = 1
_prompt_info$GSCopy$1$ = -520				; size = 4
_buf$2 = -516						; size = 512
__$ArrayPad$ = -4					; size = 4
_prompt_info$ = 8					; size = 4
_wrong_info$ = 12					; size = 4
_ppctx$ = 16						; size = 4
_cactx$ = 20						; size = 4
_hwcrhk_insert_card PROC				; COMDAT
; File c:\workpace\openssl\openssl-1.0.2h\engines\e_chil.c
; Line 1249
	mov	eax, 524				; 0000020cH
	call	__chkstk
	mov	eax, DWORD PTR ___security_cookie
	xor	eax, esp
	mov	DWORD PTR __$ArrayPad$[esp+524], eax
	mov	eax, DWORD PTR _prompt_info$[esp+520]
; Line 1253
	xor	ecx, ecx
	mov	edx, DWORD PTR _ppctx$[esp+520]
	push	ebx
	push	ebp
	mov	ebp, DWORD PTR _wrong_info$[esp+528]
	xor	ebx, ebx
	push	esi
	push	edi
	mov	edi, DWORD PTR _cactx$[esp+536]
	or	esi, -1
	mov	DWORD PTR _prompt_info$GSCopy$1$[esp+540], eax
; Line 1255
	test	edi, edi
	je	SHORT $LN4@hwcrhk_ins
; Line 1256
	mov	eax, DWORD PTR [edi+4]
	test	eax, eax
	cmovne	ecx, eax
; Line 1258
	mov	eax, DWORD PTR [edi+8]
	test	eax, eax
	cmovne	ebx, eax
$LN4@hwcrhk_ins:
; Line 1261
	test	edx, edx
	je	SHORT $LN7@hwcrhk_ins
; Line 1262
	mov	eax, DWORD PTR [edx]
	test	eax, eax
	cmovne	ecx, eax
; Line 1264
	mov	eax, DWORD PTR [edx+4]
	test	eax, eax
	cmovne	ebx, eax
$LN7@hwcrhk_ins:
; Line 1267
	test	ecx, ecx
	jne	SHORT $LN8@hwcrhk_ins
; File c:\workpace\openssl\openssl-1.0.2h\engines\e_chil_err.c
; Line 154
	mov	eax, DWORD PTR _HWCRHK_lib_error_code
	test	eax, eax
	jne	SHORT $LN23@hwcrhk_ins
; Line 155
	call	_ERR_get_next_error_library
	mov	DWORD PTR _HWCRHK_lib_error_code, eax
$LN23@hwcrhk_ins:
; Line 156
	push	1268					; 000004f4H
	push	OFFSET ??_C@_0BD@KHDDJGFL@?4?2engines?2e_chil?4c?$AA@
	push	108					; 0000006cH
	push	104					; 00000068H
	push	eax
	call	_ERR_put_error
	add	esp, 20					; 00000014H
; File c:\workpace\openssl\openssl-1.0.2h\engines\e_chil.c
; Line 1269
	or	eax, -1
	jmp	$LN1@hwcrhk_ins
$LN8@hwcrhk_ins:
; Line 1272
	push	ecx
	call	_UI_new_method
	mov	edi, eax
	add	esp, 4
; Line 1274
	test	edi, edi
	je	$LN18@hwcrhk_ins
; Line 1281
	test	ebp, ebp
	je	SHORT $LN10@hwcrhk_ins
	cmp	BYTE PTR [ebp], 0
	je	SHORT $LN10@hwcrhk_ins
; Line 1282
	push	ebp
	push	OFFSET ??_C@_0BE@OBBPALOK@Current?5card?3?5?$CC?$CFs?$CC?6?$AA@
	lea	eax, DWORD PTR _buf$2[esp+548]
	push	511					; 000001ffH
	push	eax
	call	_BIO_snprintf
	add	esp, 16					; 00000010H
	jmp	SHORT $LN11@hwcrhk_ins
$LN10@hwcrhk_ins:
; Line 1285
	mov	BYTE PTR _buf$2[esp+540], 0
$LN11@hwcrhk_ins:
; Line 1286
	lea	eax, DWORD PTR _buf$2[esp+540]
	push	eax
	push	edi
	call	_UI_dup_info_string
	mov	esi, eax
	add	esp, 8
; Line 1287
	test	esi, esi
	js	SHORT $LN12@hwcrhk_ins
	mov	eax, DWORD PTR _prompt_info$GSCopy$1$[esp+540]
	test	eax, eax
	je	SHORT $LN12@hwcrhk_ins
; Line 1288
	push	eax
	push	OFFSET ??_C@_0BB@ENAEFLLN@Insert?5card?5?$CC?$CFs?$CC?$AA@
	lea	eax, DWORD PTR _buf$2[esp+548]
	push	511					; 000001ffH
	push	eax
	call	_BIO_snprintf
; Line 1290
	lea	eax, DWORD PTR _answer$1[esp+556]
	push	eax
	push	1
	push	OFFSET ??_C@_02DMLCCNBA@Cc?$AA@
	push	OFFSET ??_C@_02PCIJFNDE@?$AN?6?$AA@
	push	OFFSET ??_C@_0CK@BPFHOIG@?6?5then?5hit?5?$DMenter?$DO?5or?5C?$DMenter?$DO?5t@
	lea	eax, DWORD PTR _buf$2[esp+576]
	push	eax
	push	edi
	call	_UI_dup_input_boolean
	add	esp, 44					; 0000002cH
	mov	esi, eax
$LN12@hwcrhk_ins:
; Line 1295
	push	ebx
	push	edi
	call	_UI_add_user_data
	add	esp, 8
; Line 1297
	test	esi, esi
	js	SHORT $LN13@hwcrhk_ins
; Line 1298
	push	edi
	call	_UI_process
	add	esp, 4
	mov	esi, eax
$LN13@hwcrhk_ins:
; Line 1299
	push	edi
	call	_UI_free
	add	esp, 4
; Line 1301
	cmp	esi, -2					; fffffffeH
	je	SHORT $LN16@hwcrhk_ins
	test	esi, esi
	js	SHORT $LN25@hwcrhk_ins
	cmp	BYTE PTR _answer$1[esp+540], 67		; 00000043H
	je	SHORT $LN16@hwcrhk_ins
; Line 1306
	xor	esi, esi
	jmp	SHORT $LN18@hwcrhk_ins
$LN25@hwcrhk_ins:
; Line 1304
	or	esi, -1
	jmp	SHORT $LN18@hwcrhk_ins
$LN16@hwcrhk_ins:
; Line 1302
	mov	esi, 1
$LN18@hwcrhk_ins:
; Line 1308
	mov	eax, esi
$LN1@hwcrhk_ins:
; Line 1309
	mov	ecx, DWORD PTR __$ArrayPad$[esp+540]
	pop	edi
	pop	esi
	pop	ebp
	pop	ebx
	xor	ecx, esp
	call	@__security_check_cookie@4
	add	esp, 524				; 0000020cH
	ret	0
_hwcrhk_insert_card ENDP
_TEXT	ENDS
; Function compile flags: /Ogtpy
;	COMDAT _hwcrhk_load_pubkey
_TEXT	SEGMENT
_eng$ = 8						; size = 4
_key_id$ = 12						; size = 4
_ui_method$ = 16					; size = 4
_callback_data$ = 20					; size = 4
_hwcrhk_load_pubkey PROC				; COMDAT
; File c:\workpace\openssl\openssl-1.0.2h\engines\e_chil.c
; Line 864
	push	edi
; Line 868
	push	DWORD PTR _callback_data$[esp]
	push	DWORD PTR _ui_method$[esp+4]
	push	DWORD PTR _key_id$[esp+8]
	push	DWORD PTR _eng$[esp+12]
	call	_hwcrhk_load_privkey
	mov	edi, eax
	add	esp, 16					; 00000010H
; Line 871
	test	edi, edi
	je	$LN2@hwcrhk_loa
; Line 872
	cmp	DWORD PTR [edi], 6
	je	SHORT $LN5@hwcrhk_loa
; File c:\workpace\openssl\openssl-1.0.2h\engines\e_chil_err.c
; Line 154
	mov	eax, DWORD PTR _HWCRHK_lib_error_code
	test	eax, eax
	jne	SHORT $LN10@hwcrhk_loa
; Line 155
	call	_ERR_get_next_error_library
	mov	DWORD PTR _HWCRHK_lib_error_code, eax
$LN10@hwcrhk_loa:
; Line 156
	push	892					; 0000037cH
	push	OFFSET ??_C@_0BD@KHDDJGFL@?4?2engines?2e_chil?4c?$AA@
	push	103					; 00000067H
	push	106					; 0000006aH
	push	eax
	call	_ERR_put_error
$err$13:
; File c:\workpace\openssl\openssl-1.0.2h\engines\e_chil.c
; Line 899
	push	edi
	call	_EVP_PKEY_free
	add	esp, 24					; 00000018H
; Line 900
	xor	eax, eax
	pop	edi
; Line 901
	ret	0
$LN5@hwcrhk_loa:
	push	esi
; Line 878
	push	878					; 0000036eH
	push	OFFSET ??_C@_0BD@KHDDJGFL@?4?2engines?2e_chil?4c?$AA@
	push	10					; 0000000aH
	push	9
	call	_CRYPTO_lock
; Line 879
	mov	esi, DWORD PTR [edi+20]
; Line 880
	call	_RSA_new
	mov	DWORD PTR [edi+20], eax
; Line 881
	mov	ecx, DWORD PTR [esi+16]
; Line 885
	push	885					; 00000375H
	mov	DWORD PTR [eax+16], ecx
	mov	ecx, DWORD PTR [edi+20]
	mov	eax, DWORD PTR [esi+20]
	push	OFFSET ??_C@_0BD@KHDDJGFL@?4?2engines?2e_chil?4c?$AA@
	push	10					; 0000000aH
	mov	DWORD PTR [ecx+20], eax
	push	10					; 0000000aH
	mov	DWORD PTR [esi+16], 0
	mov	DWORD PTR [esi+20], 0
	call	_CRYPTO_lock
; Line 886
	push	esi
	call	_RSA_free
	add	esp, 36					; 00000024H
	pop	esi
$LN2@hwcrhk_loa:
; Line 896
	mov	eax, edi
	pop	edi
; Line 901
	ret	0
_hwcrhk_load_pubkey ENDP
_TEXT	ENDS
; Function compile flags: /Ogtpy
;	COMDAT _hwcrhk_load_privkey
_TEXT	SEGMENT
_rmsg$ = -1064						; size = 8
_e$ = -1056						; size = 8
_n$ = -1048						; size = 8
_eng$GSCopy$1$ = -1040					; size = 4
_ppctx$ = -1036						; size = 8
_tempbuf$ = -1028					; size = 1024
__$ArrayPad$ = -4					; size = 4
_eng$ = 8						; size = 4
_key_id$ = 12						; size = 4
_ui_method$ = 16					; size = 4
_callback_data$ = 20					; size = 4
_hwcrhk_load_privkey PROC				; COMDAT
; File c:\workpace\openssl\openssl-1.0.2h\engines\e_chil.c
; Line 769
	mov	eax, 1064				; 00000428H
	call	__chkstk
	mov	eax, DWORD PTR ___security_cookie
	xor	eax, esp
	mov	DWORD PTR __$ArrayPad$[esp+1064], eax
; Line 789
	cmp	DWORD PTR _hwcrhk_context, 0
	mov	eax, DWORD PTR _eng$[esp+1060]
	push	ebx
	mov	ebx, DWORD PTR _ui_method$[esp+1064]
	push	ebp
	mov	ebp, DWORD PTR _callback_data$[esp+1068]
	push	esi
	mov	esi, DWORD PTR _key_id$[esp+1072]
	mov	DWORD PTR _eng$GSCopy$1$[esp+1076], eax
	lea	eax, DWORD PTR _tempbuf$[esp+1076]
	push	edi
	mov	DWORD PTR _rmsg$[esp+1080], eax
	mov	DWORD PTR _rmsg$[esp+1084], 1024	; 00000400H
	jne	SHORT $LN8@hwcrhk_loa
; File c:\workpace\openssl\openssl-1.0.2h\engines\e_chil_err.c
; Line 154
	mov	eax, DWORD PTR _HWCRHK_lib_error_code
	test	eax, eax
	jne	SHORT $LN23@hwcrhk_loa
; Line 155
	call	_ERR_get_next_error_library
	mov	DWORD PTR _HWCRHK_lib_error_code, eax
$LN23@hwcrhk_loa:
; Line 156
	push	790					; 00000316H
	push	OFFSET ??_C@_0BD@KHDDJGFL@?4?2engines?2e_chil?4c?$AA@
	push	106					; 0000006aH
	push	105					; 00000069H
	push	eax
	call	_ERR_put_error
	add	esp, 20					; 00000014H
; File c:\workpace\openssl\openssl-1.0.2h\engines\e_chil.c
; Line 859
	xor	eax, eax
	jmp	$LN1@hwcrhk_loa
$LN8@hwcrhk_loa:
; Line 794
	push	794					; 0000031aH
	push	OFFSET ??_C@_0BD@KHDDJGFL@?4?2engines?2e_chil?4c?$AA@
	push	4
	call	_CRYPTO_malloc
	mov	edi, eax
	add	esp, 12					; 0000000cH
; Line 795
	test	edi, edi
	jne	SHORT $LN9@hwcrhk_loa
; File c:\workpace\openssl\openssl-1.0.2h\engines\e_chil_err.c
; Line 154
	mov	eax, DWORD PTR _HWCRHK_lib_error_code
	test	eax, eax
	jne	SHORT $LN26@hwcrhk_loa
; Line 155
	call	_ERR_get_next_error_library
	mov	DWORD PTR _HWCRHK_lib_error_code, eax
$LN26@hwcrhk_loa:
; Line 156
	push	796					; 0000031cH
	push	OFFSET ??_C@_0BD@KHDDJGFL@?4?2engines?2e_chil?4c?$AA@
	push	65					; 00000041H
	push	105					; 00000069H
	push	eax
	call	_ERR_put_error
	add	esp, 20					; 00000014H
; File c:\workpace\openssl\openssl-1.0.2h\engines\e_chil.c
; Line 859
	xor	eax, eax
	jmp	$LN1@hwcrhk_loa
$LN9@hwcrhk_loa:
; Line 801
	lea	eax, DWORD PTR _ppctx$[esp+1080]
	mov	DWORD PTR _ppctx$[esp+1080], ebx
	push	eax
	lea	eax, DWORD PTR _rmsg$[esp+1084]
	mov	DWORD PTR _ppctx$[esp+1088], ebp
	push	eax
	push	edi
	push	esi
	push	DWORD PTR _hwcrhk_context
	call	DWORD PTR _p_hwcrhk_RSALoadKey
	add	esp, 20					; 00000014H
	test	eax, eax
	je	SHORT $LN10@hwcrhk_loa
; File c:\workpace\openssl\openssl-1.0.2h\engines\e_chil_err.c
; Line 154
	mov	eax, DWORD PTR _HWCRHK_lib_error_code
	test	eax, eax
	jne	SHORT $LN29@hwcrhk_loa
; Line 155
	call	_ERR_get_next_error_library
	mov	DWORD PTR _HWCRHK_lib_error_code, eax
$LN29@hwcrhk_loa:
; Line 156
	push	802					; 00000322H
	push	OFFSET ??_C@_0BD@KHDDJGFL@?4?2engines?2e_chil?4c?$AA@
	push	102					; 00000066H
	push	105					; 00000069H
	push	eax
	call	_ERR_put_error
; File c:\workpace\openssl\openssl-1.0.2h\engines\e_chil.c
; Line 803
	push	DWORD PTR _rmsg$[esp+1100]
	push	1
	call	_ERR_add_error_data
	add	esp, 28					; 0000001cH
; Line 859
	xor	eax, eax
	jmp	$LN1@hwcrhk_loa
$LN10@hwcrhk_loa:
; Line 806
	cmp	DWORD PTR [edi], 0
	jne	SHORT $LN11@hwcrhk_loa
; File c:\workpace\openssl\openssl-1.0.2h\engines\e_chil_err.c
; Line 154
	mov	eax, DWORD PTR _HWCRHK_lib_error_code
	test	eax, eax
	jne	SHORT $LN32@hwcrhk_loa
; Line 155
	call	_ERR_get_next_error_library
	mov	DWORD PTR _HWCRHK_lib_error_code, eax
$LN32@hwcrhk_loa:
; Line 156
	push	807					; 00000327H
	push	OFFSET ??_C@_0BD@KHDDJGFL@?4?2engines?2e_chil?4c?$AA@
	push	109					; 0000006dH
	push	105					; 00000069H
	push	eax
	call	_ERR_put_error
	add	esp, 20					; 00000014H
; File c:\workpace\openssl\openssl-1.0.2h\engines\e_chil.c
; Line 859
	xor	eax, eax
	jmp	$LN1@hwcrhk_loa
$LN11@hwcrhk_loa:
; Line 812
	push	DWORD PTR _eng$GSCopy$1$[esp+1080]
	call	_RSA_new_method
; Line 813
	push	edi
	push	DWORD PTR _hndidx_rsa
	mov	esi, eax
	push	esi
	call	_RSA_set_ex_data
; Line 814
	call	_BN_new
	mov	DWORD PTR [esi+20], eax
; Line 815
	call	_BN_new
; Line 816
	or	DWORD PTR [esi+60], 32			; 00000020H
	mov	DWORD PTR [esi+16], eax
; Line 817
	mov	eax, DWORD PTR [esi+20]
	mov	eax, DWORD PTR [eax+8]
	shl	eax, 2
	mov	DWORD PTR _e$[esp+1100], eax
	mov	eax, DWORD PTR [esi+20]
	mov	eax, DWORD PTR [eax]
	mov	DWORD PTR _e$[esp+1096], eax
; Line 818
	mov	eax, DWORD PTR [esi+16]
	mov	eax, DWORD PTR [eax+8]
	shl	eax, 2
	mov	DWORD PTR _n$[esp+1100], eax
	mov	eax, DWORD PTR [esi+16]
	mov	eax, DWORD PTR [eax]
	mov	DWORD PTR _n$[esp+1096], eax
; Line 820
	lea	eax, DWORD PTR _rmsg$[esp+1096]
	push	eax
	lea	eax, DWORD PTR _e$[esp+1100]
	push	eax
	lea	eax, DWORD PTR _n$[esp+1104]
	push	eax
	push	DWORD PTR [edi]
	call	DWORD PTR _p_hwcrhk_RSAGetPublicKey
	add	esp, 32					; 00000020H
	cmp	eax, -3					; fffffffdH
	je	SHORT $LN12@hwcrhk_loa
; Line 821
	push	821					; 00000335H
$LN50@hwcrhk_loa:
	push	OFFSET ??_C@_0BD@KHDDJGFL@?4?2engines?2e_chil?4c?$AA@
	push	102					; 00000066H
	push	105					; 00000069H
	call	_ERR_HWCRHK_error
; Line 822
	push	DWORD PTR _rmsg$[esp+1096]
	push	1
	call	_ERR_add_error_data
	add	esp, 24					; 00000018H
; Line 857
	push	esi
	call	_RSA_free
	add	esp, 4
; Line 859
	xor	eax, eax
	jmp	$LN1@hwcrhk_loa
$LN12@hwcrhk_loa:
; Line 826
	mov	eax, DWORD PTR _e$[esp+1084]
	shr	eax, 2
	push	eax
	push	DWORD PTR [esi+20]
	call	_bn_expand2
; Line 827
	mov	eax, DWORD PTR _n$[esp+1092]
	shr	eax, 2
	push	eax
	push	DWORD PTR [esi+16]
	call	_bn_expand2
; Line 828
	mov	eax, DWORD PTR [esi+20]
	mov	eax, DWORD PTR [eax+8]
	shl	eax, 2
	mov	DWORD PTR _e$[esp+1100], eax
	mov	eax, DWORD PTR [esi+20]
	mov	eax, DWORD PTR [eax]
	mov	DWORD PTR _e$[esp+1096], eax
; Line 829
	mov	eax, DWORD PTR [esi+16]
	mov	eax, DWORD PTR [eax+8]
	shl	eax, 2
	mov	DWORD PTR _n$[esp+1100], eax
	mov	eax, DWORD PTR [esi+16]
	mov	eax, DWORD PTR [eax]
	mov	DWORD PTR _n$[esp+1096], eax
; Line 831
	lea	eax, DWORD PTR _rmsg$[esp+1096]
	push	eax
	lea	eax, DWORD PTR _e$[esp+1100]
	push	eax
	lea	eax, DWORD PTR _n$[esp+1104]
	push	eax
	push	DWORD PTR [edi]
	call	DWORD PTR _p_hwcrhk_RSAGetPublicKey
	add	esp, 32					; 00000020H
	test	eax, eax
	je	SHORT $LN13@hwcrhk_loa
; Line 832
	push	832					; 00000340H
; Line 834
	jmp	$LN50@hwcrhk_loa
$LN13@hwcrhk_loa:
; Line 836
	mov	ecx, DWORD PTR _e$[esp+1084]
	mov	eax, DWORD PTR [esi+20]
	shr	ecx, 2
	mov	DWORD PTR [eax+4], ecx
; Line 837
	mov	edi, DWORD PTR [esi+20]
	mov	ecx, DWORD PTR [edi+4]
	test	ecx, ecx
	jle	SHORT $LN14@hwcrhk_loa
	mov	eax, DWORD PTR [edi]
	lea	edx, DWORD PTR [ecx-1]
	lea	edx, DWORD PTR [eax+edx*4]
$LL4@hwcrhk_loa:
	mov	eax, DWORD PTR [edx]
	lea	edx, DWORD PTR [edx-4]
	test	eax, eax
	jne	SHORT $LN42@hwcrhk_loa
	dec	ecx
	test	ecx, ecx
	jg	SHORT $LL4@hwcrhk_loa
$LN42@hwcrhk_loa:
	mov	DWORD PTR [edi+4], ecx
$LN14@hwcrhk_loa:
; Line 838
	mov	ecx, DWORD PTR _n$[esp+1084]
	mov	eax, DWORD PTR [esi+16]
	shr	ecx, 2
	mov	DWORD PTR [eax+4], ecx
; Line 839
	mov	edi, DWORD PTR [esi+16]
	mov	ecx, DWORD PTR [edi+4]
	test	ecx, ecx
	jle	SHORT $LN16@hwcrhk_loa
	mov	eax, DWORD PTR [edi]
	lea	edx, DWORD PTR [ecx-1]
	lea	edx, DWORD PTR [eax+edx*4]
$LL7@hwcrhk_loa:
	mov	eax, DWORD PTR [edx]
	lea	edx, DWORD PTR [edx-4]
	test	eax, eax
	jne	SHORT $LN43@hwcrhk_loa
	dec	ecx
	test	ecx, ecx
	jg	SHORT $LL7@hwcrhk_loa
$LN43@hwcrhk_loa:
	mov	DWORD PTR [edi+4], ecx
$LN16@hwcrhk_loa:
; Line 841
	call	_EVP_PKEY_new
	mov	edi, eax
; Line 842
	test	edi, edi
	jne	SHORT $LN18@hwcrhk_loa
; File c:\workpace\openssl\openssl-1.0.2h\engines\e_chil_err.c
; Line 154
	mov	eax, DWORD PTR _HWCRHK_lib_error_code
	test	eax, eax
	jne	SHORT $LN35@hwcrhk_loa
; Line 155
	call	_ERR_get_next_error_library
	mov	DWORD PTR _HWCRHK_lib_error_code, eax
$LN35@hwcrhk_loa:
; Line 156
	push	843					; 0000034bH
	push	OFFSET ??_C@_0BD@KHDDJGFL@?4?2engines?2e_chil?4c?$AA@
	push	102					; 00000066H
	push	105					; 00000069H
	push	eax
	call	_ERR_put_error
	add	esp, 20					; 00000014H
$err$52:
; File c:\workpace\openssl\openssl-1.0.2h\engines\e_chil.c
; Line 857
	push	esi
	call	_RSA_free
	add	esp, 4
; Line 859
	xor	eax, eax
	jmp	SHORT $LN1@hwcrhk_loa
$LN18@hwcrhk_loa:
; Line 846
	push	esi
	push	6
	push	edi
	call	_EVP_PKEY_assign
	add	esp, 12					; 0000000cH
; Line 853
	mov	eax, edi
$LN1@hwcrhk_loa:
; Line 860
	mov	ecx, DWORD PTR __$ArrayPad$[esp+1080]
	pop	edi
	pop	esi
	pop	ebp
	pop	ebx
	xor	ecx, esp
	call	@__security_check_cookie@4
	add	esp, 1064				; 00000428H
	ret	0
_hwcrhk_load_privkey ENDP
_TEXT	ENDS
; Function compile flags: /Ogtpy
;	COMDAT _hwcrhk_rand_status
_TEXT	SEGMENT
_hwcrhk_rand_status PROC				; COMDAT
; File c:\workpace\openssl\openssl-1.0.2h\engines\e_chil.c
; Line 1143
	mov	eax, 1
; Line 1144
	ret	0
_hwcrhk_rand_status ENDP
_TEXT	ENDS
; Function compile flags: /Ogtpy
;	COMDAT _hwcrhk_rand_bytes
_TEXT	SEGMENT
_rmsg$ = -1036						; size = 8
_tempbuf$ = -1028					; size = 1024
__$ArrayPad$ = -4					; size = 4
_buf$ = 8						; size = 4
_num$ = 12						; size = 4
_hwcrhk_rand_bytes PROC					; COMDAT
; File c:\workpace\openssl\openssl-1.0.2h\engines\e_chil.c
; Line 1108
	mov	eax, 1036				; 0000040cH
	call	__chkstk
	mov	eax, DWORD PTR ___security_cookie
	xor	eax, esp
	mov	DWORD PTR __$ArrayPad$[esp+1036], eax
	mov	ecx, DWORD PTR _buf$[esp+1032]
; Line 1114
	lea	eax, DWORD PTR _tempbuf$[esp+1036]
	mov	DWORD PTR _rmsg$[esp+1036], eax
; Line 1117
	mov	eax, DWORD PTR _hwcrhk_context
	mov	DWORD PTR _rmsg$[esp+1040], 1024	; 00000400H
	test	eax, eax
	jne	SHORT $LN2@hwcrhk_ran
; File c:\workpace\openssl\openssl-1.0.2h\engines\e_chil_err.c
; Line 154
	mov	eax, DWORD PTR _HWCRHK_lib_error_code
	test	eax, eax
	jne	SHORT $LN8@hwcrhk_ran
; Line 155
	call	_ERR_get_next_error_library
	mov	DWORD PTR _HWCRHK_lib_error_code, eax
$LN8@hwcrhk_ran:
; Line 156
	push	1118					; 0000045eH
	push	OFFSET ??_C@_0BD@KHDDJGFL@?4?2engines?2e_chil?4c?$AA@
	push	106					; 0000006aH
	push	108					; 0000006cH
	push	eax
	call	_ERR_put_error
	add	esp, 20					; 00000014H
; File c:\workpace\openssl\openssl-1.0.2h\engines\e_chil.c
; Line 1138
	xor	eax, eax
; Line 1139
	mov	ecx, DWORD PTR __$ArrayPad$[esp+1036]
	xor	ecx, esp
	call	@__security_check_cookie@4
	add	esp, 1036				; 0000040cH
	ret	0
$LN2@hwcrhk_ran:
; Line 1122
	lea	edx, DWORD PTR _rmsg$[esp+1036]
	push	edx
	push	DWORD PTR _num$[esp+1036]
	push	ecx
	push	eax
	call	DWORD PTR _p_hwcrhk_RandomBytes
	add	esp, 16					; 00000010H
; Line 1123
	test	eax, eax
	jns	SHORT $LN3@hwcrhk_ran
; Line 1128
	cmp	eax, -2					; fffffffeH
; File c:\workpace\openssl\openssl-1.0.2h\engines\e_chil_err.c
; Line 154
	mov	eax, DWORD PTR _HWCRHK_lib_error_code
; File c:\workpace\openssl\openssl-1.0.2h\engines\e_chil.c
; Line 1128
	jne	SHORT $LN4@hwcrhk_ran
; File c:\workpace\openssl\openssl-1.0.2h\engines\e_chil_err.c
; Line 154
	test	eax, eax
	jne	SHORT $LN11@hwcrhk_ran
; Line 155
	call	_ERR_get_next_error_library
	mov	DWORD PTR _HWCRHK_lib_error_code, eax
$LN11@hwcrhk_ran:
; Line 156
	push	1129					; 00000469H
	push	OFFSET ??_C@_0BD@KHDDJGFL@?4?2engines?2e_chil?4c?$AA@
	push	112					; 00000070H
; File c:\workpace\openssl\openssl-1.0.2h\engines\e_chil.c
; Line 1130
	jmp	SHORT $LN16@hwcrhk_ran
$LN4@hwcrhk_ran:
; File c:\workpace\openssl\openssl-1.0.2h\engines\e_chil_err.c
; Line 154
	test	eax, eax
	jne	SHORT $LN14@hwcrhk_ran
; Line 155
	call	_ERR_get_next_error_library
	mov	DWORD PTR _HWCRHK_lib_error_code, eax
$LN14@hwcrhk_ran:
; Line 156
	push	1131					; 0000046bH
	push	OFFSET ??_C@_0BD@KHDDJGFL@?4?2engines?2e_chil?4c?$AA@
	push	111					; 0000006fH
$LN16@hwcrhk_ran:
	push	108					; 0000006cH
	push	eax
	call	_ERR_put_error
	add	esp, 20					; 00000014H
; File c:\workpace\openssl\openssl-1.0.2h\engines\e_chil.c
; Line 1133
	push	DWORD PTR _rmsg$[esp+1036]
	push	1
	call	_ERR_add_error_data
	add	esp, 8
; Line 1138
	xor	eax, eax
; Line 1139
	mov	ecx, DWORD PTR __$ArrayPad$[esp+1036]
	xor	ecx, esp
	call	@__security_check_cookie@4
	add	esp, 1036				; 0000040cH
	ret	0
$LN3@hwcrhk_ran:
; Line 1138
	mov	eax, 1
$err$18:
; Line 1139
	mov	ecx, DWORD PTR __$ArrayPad$[esp+1036]
	xor	ecx, esp
	call	@__security_check_cookie@4
	add	esp, 1036				; 0000040cH
	ret	0
_hwcrhk_rand_bytes ENDP
_TEXT	ENDS
; Function compile flags: /Ogtpy
;	COMDAT _hwcrhk_mod_exp_dh
_TEXT	SEGMENT
_dh$ = 8						; size = 4
_r$ = 12						; size = 4
_a$ = 16						; size = 4
_p$ = 20						; size = 4
_m$ = 24						; size = 4
_ctx$ = 28						; size = 4
_m_ctx$ = 32						; size = 4
_hwcrhk_mod_exp_dh PROC					; COMDAT
; File c:\workpace\openssl\openssl-1.0.2h\engines\e_chil.c
; Line 1102
	push	DWORD PTR _ctx$[esp-4]
	push	DWORD PTR _m$[esp]
	push	DWORD PTR _p$[esp+4]
	push	DWORD PTR _a$[esp+8]
	push	DWORD PTR _r$[esp+12]
	call	_hwcrhk_mod_exp
	add	esp, 20					; 00000014H
; Line 1103
	ret	0
_hwcrhk_mod_exp_dh ENDP
_TEXT	ENDS
; Function compile flags: /Ogtpy
;	COMDAT _hwcrhk_rsa_finish
_TEXT	SEGMENT
_rsa$ = 8						; size = 4
_hwcrhk_rsa_finish PROC					; COMDAT
; File c:\workpace\openssl\openssl-1.0.2h\engines\e_chil.c
; Line 1082
	push	esi
; Line 1085
	push	DWORD PTR _hndidx_rsa
	push	DWORD PTR _rsa$[esp+4]
	call	_RSA_get_ex_data
	mov	esi, eax
	add	esp, 8
; Line 1086
	test	esi, esi
	je	SHORT $LN4@hwcrhk_rsa
; Line 1087
	push	0
	push	DWORD PTR [esi]
	call	DWORD PTR _p_hwcrhk_RSAUnloadKey
; Line 1088
	push	esi
	call	_CRYPTO_free
; Line 1089
	push	0
	push	DWORD PTR _hndidx_rsa
	push	DWORD PTR _rsa$[esp+20]
	call	_RSA_set_ex_data
	add	esp, 24					; 00000018H
$LN4@hwcrhk_rsa:
; Line 1091
	mov	eax, 1
	pop	esi
; Line 1092
	ret	0
_hwcrhk_rsa_finish ENDP
_TEXT	ENDS
; Function compile flags: /Ogtpy
;	COMDAT _hwcrhk_mod_exp_mont
_TEXT	SEGMENT
_r$ = 8							; size = 4
_a$ = 12						; size = 4
_p$ = 16						; size = 4
_m$ = 20						; size = 4
_ctx$ = 24						; size = 4
_m_ctx$ = 28						; size = 4
_hwcrhk_mod_exp_mont PROC				; COMDAT
; File c:\workpace\openssl\openssl-1.0.2h\engines\e_chil.c
; Line 1078
	push	DWORD PTR _ctx$[esp-4]
	push	DWORD PTR _m$[esp]
	push	DWORD PTR _p$[esp+4]
	push	DWORD PTR _a$[esp+8]
	push	DWORD PTR _r$[esp+12]
	call	_hwcrhk_mod_exp
	add	esp, 20					; 00000014H
; Line 1079
	ret	0
_hwcrhk_mod_exp_mont ENDP
_TEXT	ENDS
; Function compile flags: /Ogtpy
;	COMDAT _hwcrhk_rsa_mod_exp
_TEXT	SEGMENT
_r$GSCopy$1$ = -1080					; size = 4
_I$GSCopy$1$ = -1076					; size = 4
_m_r$1 = -1076						; size = 8
_rmsg$ = -1068						; size = 8
_rsa$GSCopy$1$ = -1060					; size = 4
_m_q$1$ = -1056						; size = 4
_m_q$2$ = -1052						; size = 4
_m_p$1$ = -1048						; size = 4
_m_p$2$ = -1044						; size = 4
_m_a$1$ = -1040						; size = 4
_m_r$2 = -1036						; size = 8
_tempbuf$ = -1028					; size = 1024
__$ArrayPad$ = -4					; size = 4
_r$ = 8							; size = 4
_I$ = 12						; size = 4
_rsa$ = 16						; size = 4
_ctx$ = 20						; size = 4
_hwcrhk_rsa_mod_exp PROC				; COMDAT
; File c:\workpace\openssl\openssl-1.0.2h\engines\e_chil.c
; Line 961
	mov	eax, 1080				; 00000438H
	call	__chkstk
	mov	eax, DWORD PTR ___security_cookie
	xor	eax, esp
	mov	DWORD PTR __$ArrayPad$[esp+1080], eax
; Line 970
	cmp	DWORD PTR _hwcrhk_context, 0
	lea	eax, DWORD PTR _tempbuf$[esp+1080]
	push	ebx
	mov	ebx, DWORD PTR _r$[esp+1080]
	push	ebp
	mov	ebp, DWORD PTR _I$[esp+1084]
	push	esi
	mov	esi, DWORD PTR _rsa$[esp+1088]
	mov	DWORD PTR _r$GSCopy$1$[esp+1092], ebx
	mov	DWORD PTR _I$GSCopy$1$[esp+1092], ebp
	mov	DWORD PTR _rsa$GSCopy$1$[esp+1092], esi
	mov	DWORD PTR _rmsg$[esp+1092], eax
	mov	DWORD PTR _rmsg$[esp+1096], 1024	; 00000400H
	jne	SHORT $LN8@hwcrhk_rsa
; File c:\workpace\openssl\openssl-1.0.2h\engines\e_chil_err.c
; Line 154
	mov	eax, DWORD PTR _HWCRHK_lib_error_code
	test	eax, eax
	jne	SHORT $LN26@hwcrhk_rsa
; Line 155
	call	_ERR_get_next_error_library
	mov	DWORD PTR _HWCRHK_lib_error_code, eax
$LN26@hwcrhk_rsa:
; Line 156
	push	971					; 000003cbH
	push	OFFSET ??_C@_0BD@KHDDJGFL@?4?2engines?2e_chil?4c?$AA@
	push	106					; 0000006aH
	push	109					; 0000006dH
	push	eax
	call	_ERR_put_error
	add	esp, 20					; 00000014H
; File c:\workpace\openssl\openssl-1.0.2h\engines\e_chil.c
; Line 1068
	xor	eax, eax
	pop	esi
	pop	ebp
	pop	ebx
; Line 1069
	mov	ecx, DWORD PTR __$ArrayPad$[esp+1080]
	xor	ecx, esp
	call	@__security_check_cookie@4
	add	esp, 1080				; 00000438H
	ret	0
$LN8@hwcrhk_rsa:
	push	edi
; Line 982
	push	DWORD PTR _hndidx_rsa
	push	esi
	call	_RSA_get_ex_data
	mov	edi, eax
	add	esp, 8
	test	edi, edi
	je	$LN9@hwcrhk_rsa
; Line 985
	mov	ecx, DWORD PTR [esi+16]
	test	ecx, ecx
	jne	SHORT $LN11@hwcrhk_rsa
; File c:\workpace\openssl\openssl-1.0.2h\engines\e_chil_err.c
; Line 154
	mov	eax, DWORD PTR _HWCRHK_lib_error_code
	test	eax, eax
	jne	SHORT $LN29@hwcrhk_rsa
; Line 155
	call	_ERR_get_next_error_library
	mov	DWORD PTR _HWCRHK_lib_error_code, eax
$LN29@hwcrhk_rsa:
; Line 156
	push	987					; 000003dbH
; File c:\workpace\openssl\openssl-1.0.2h\engines\e_chil.c
; Line 988
	jmp	$LN51@hwcrhk_rsa
$LN11@hwcrhk_rsa:
; Line 992
	push	DWORD PTR [ecx+4]
	push	ebx
	call	_bn_expand2
; Line 994
	mov	eax, DWORD PTR [ebx+8]
	mov	ecx, DWORD PTR [ebp+4]
	shl	eax, 2
	mov	DWORD PTR _m_r$1[esp+1108], eax
	mov	eax, DWORD PTR [ebx]
	mov	DWORD PTR _m_r$1[esp+1104], eax
; Line 997
	lea	eax, DWORD PTR _rmsg$[esp+1104]
	push	eax
	lea	eax, DWORD PTR _m_r$1[esp+1108]
	shl	ecx, 2
	push	eax
	push	DWORD PTR [edi]
	push	ecx
	push	DWORD PTR [ebp]
	call	DWORD PTR _p_hwcrhk_RSA
; Line 1000
	mov	ecx, DWORD PTR _m_r$1[esp+1128]
	add	esp, 28					; 0000001cH
	shr	ecx, 2
	mov	esi, eax
	mov	DWORD PTR [ebx+4], ecx
; Line 1001
	test	ecx, ecx
	jle	SHORT $LN12@hwcrhk_rsa
	mov	eax, DWORD PTR [ebx]
	lea	edx, DWORD PTR [ecx-1]
	lea	edx, DWORD PTR [eax+edx*4]
$LL4@hwcrhk_rsa:
	mov	eax, DWORD PTR [edx]
	lea	edx, DWORD PTR [edx-4]
	test	eax, eax
	jne	SHORT $LN42@hwcrhk_rsa
	dec	ecx
	test	ecx, ecx
	jg	SHORT $LL4@hwcrhk_rsa
$LN42@hwcrhk_rsa:
	mov	DWORD PTR [ebx+4], ecx
$LN12@hwcrhk_rsa:
; Line 1003
	test	esi, esi
	jns	$LN21@hwcrhk_rsa
; File c:\workpace\openssl\openssl-1.0.2h\engines\e_chil_err.c
; Line 154
	mov	eax, DWORD PTR _HWCRHK_lib_error_code
; File c:\workpace\openssl\openssl-1.0.2h\engines\e_chil.c
; Line 1009
	cmp	esi, -2					; fffffffeH
	jne	SHORT $LN15@hwcrhk_rsa
; File c:\workpace\openssl\openssl-1.0.2h\engines\e_chil_err.c
; Line 154
	test	eax, eax
	jne	SHORT $LN32@hwcrhk_rsa
; Line 155
	call	_ERR_get_next_error_library
	mov	DWORD PTR _HWCRHK_lib_error_code, eax
$LN32@hwcrhk_rsa:
; Line 156
	push	1011					; 000003f3H
	push	OFFSET ??_C@_0BD@KHDDJGFL@?4?2engines?2e_chil?4c?$AA@
	push	112					; 00000070H
; File c:\workpace\openssl\openssl-1.0.2h\engines\e_chil.c
; Line 1012
	jmp	SHORT $LN52@hwcrhk_rsa
$LN15@hwcrhk_rsa:
; File c:\workpace\openssl\openssl-1.0.2h\engines\e_chil_err.c
; Line 154
	test	eax, eax
	jne	SHORT $LN35@hwcrhk_rsa
; Line 155
	call	_ERR_get_next_error_library
	mov	DWORD PTR _HWCRHK_lib_error_code, eax
$LN35@hwcrhk_rsa:
; Line 156
	push	1014					; 000003f6H
	push	OFFSET ??_C@_0BD@KHDDJGFL@?4?2engines?2e_chil?4c?$AA@
	push	111					; 0000006fH
$LN52@hwcrhk_rsa:
	push	109					; 0000006dH
	push	eax
	call	_ERR_put_error
	add	esp, 20					; 00000014H
; File c:\workpace\openssl\openssl-1.0.2h\engines\e_chil.c
; Line 1016
	push	DWORD PTR _rmsg$[esp+1096]
	push	1
	call	_ERR_add_error_data
	add	esp, 8
; Line 1017
	jmp	$LN53@hwcrhk_rsa
$LN9@hwcrhk_rsa:
; Line 1022
	cmp	DWORD PTR [esi+28], 0
	je	$LN18@hwcrhk_rsa
	cmp	DWORD PTR [esi+32], 0
	je	$LN18@hwcrhk_rsa
	cmp	DWORD PTR [esi+36], 0
	je	$LN18@hwcrhk_rsa
	cmp	DWORD PTR [esi+40], 0
	je	$LN18@hwcrhk_rsa
	cmp	DWORD PTR [esi+44], 0
	je	$LN18@hwcrhk_rsa
; Line 1029
	mov	eax, DWORD PTR [esi+16]
	push	DWORD PTR [eax+4]
	push	ebx
	call	_bn_expand2
; Line 1030
	mov	eax, DWORD PTR [ebp+4]
	shl	eax, 2
	mov	DWORD PTR _m_a$1$[esp+1104], eax
; Line 1031
	mov	eax, DWORD PTR [esi+28]
	mov	ecx, DWORD PTR [eax+4]
	mov	eax, DWORD PTR [eax]
	mov	DWORD PTR _m_p$2$[esp+1104], eax
; Line 1032
	mov	eax, DWORD PTR [esi+32]
	shl	ecx, 2
	mov	DWORD PTR _m_p$1$[esp+1104], ecx
	mov	ecx, DWORD PTR [eax+4]
	mov	eax, DWORD PTR [eax]
	mov	DWORD PTR _m_q$2$[esp+1104], eax
; Line 1033
	mov	eax, DWORD PTR [esi+36]
	shl	ecx, 2
	mov	DWORD PTR _m_q$1$[esp+1104], ecx
	mov	ebp, DWORD PTR [eax+4]
	mov	ebx, DWORD PTR [eax]
; Line 1034
	mov	eax, DWORD PTR [esi+40]
	shl	ebp, 2
	mov	edi, DWORD PTR [eax+4]
	mov	esi, DWORD PTR [eax]
; Line 1035
	mov	eax, DWORD PTR _rsa$GSCopy$1$[esp+1104]
	shl	edi, 2
	mov	eax, DWORD PTR [eax+44]
	mov	edx, DWORD PTR [eax+4]
	mov	ecx, DWORD PTR [eax]
; Line 1036
	mov	eax, DWORD PTR _r$GSCopy$1$[esp+1104]
	shl	edx, 2
	mov	eax, DWORD PTR [eax+8]
	shl	eax, 2
	mov	DWORD PTR _m_r$2[esp+1108], eax
	mov	eax, DWORD PTR _r$GSCopy$1$[esp+1104]
	mov	eax, DWORD PTR [eax]
	mov	DWORD PTR _m_r$2[esp+1104], eax
; Line 1039
	lea	eax, DWORD PTR _rmsg$[esp+1104]
	push	eax
	lea	eax, DWORD PTR _m_r$2[esp+1108]
	push	eax
	push	edx
	mov	eax, DWORD PTR _I$GSCopy$1$[esp+1116]
	push	ecx
	push	edi
	push	esi
	push	ebp
	push	ebx
	push	DWORD PTR _m_q$1$[esp+1136]
	push	DWORD PTR _m_q$2$[esp+1140]
	push	DWORD PTR _m_p$1$[esp+1144]
	push	DWORD PTR _m_p$2$[esp+1148]
	push	DWORD PTR _m_a$1$[esp+1152]
	push	DWORD PTR [eax]
	push	DWORD PTR _hwcrhk_context
	call	DWORD PTR _p_hwcrhk_ModExpCRT
; Line 1043
	mov	ecx, DWORD PTR _m_r$2[esp+1168]
	add	esp, 68					; 00000044H
	mov	ebx, DWORD PTR _r$GSCopy$1$[esp+1096]
	mov	esi, eax
	shr	ecx, 2
	mov	DWORD PTR [ebx+4], ecx
; Line 1044
	test	ecx, ecx
	jle	SHORT $LN19@hwcrhk_rsa
	mov	eax, DWORD PTR [ebx]
	lea	edx, DWORD PTR [ecx-1]
	lea	edx, DWORD PTR [eax+edx*4]
$LL7@hwcrhk_rsa:
	mov	eax, DWORD PTR [edx]
	lea	edx, DWORD PTR [edx-4]
	test	eax, eax
	jne	SHORT $LN43@hwcrhk_rsa
	dec	ecx
	test	ecx, ecx
	jg	SHORT $LL7@hwcrhk_rsa
$LN43@hwcrhk_rsa:
	mov	DWORD PTR [ebx+4], ecx
$LN19@hwcrhk_rsa:
; Line 1046
	test	esi, esi
	jns	SHORT $LN21@hwcrhk_rsa
; Line 1052
	cmp	esi, -2					; fffffffeH
	jne	SHORT $LN22@hwcrhk_rsa
; Line 1053
	push	1054					; 0000041eH
	push	OFFSET ??_C@_0BD@KHDDJGFL@?4?2engines?2e_chil?4c?$AA@
	push	112					; 00000070H
; Line 1055
	jmp	SHORT $LN54@hwcrhk_rsa
$LN22@hwcrhk_rsa:
; Line 1056
	push	1057					; 00000421H
	push	OFFSET ??_C@_0BD@KHDDJGFL@?4?2engines?2e_chil?4c?$AA@
	push	111					; 0000006fH
$LN54@hwcrhk_rsa:
	push	109					; 0000006dH
	call	_ERR_HWCRHK_error
	add	esp, 16					; 00000010H
; Line 1059
	push	DWORD PTR _rmsg$[esp+1096]
	push	1
	call	_ERR_add_error_data
	add	esp, 8
; Line 1060
	jmp	SHORT $LN53@hwcrhk_rsa
$LN21@hwcrhk_rsa:
; Line 1068
	mov	eax, 1
; Line 1066
	jmp	SHORT $LN50@hwcrhk_rsa
$LN18@hwcrhk_rsa:
; File c:\workpace\openssl\openssl-1.0.2h\engines\e_chil_err.c
; Line 154
	mov	eax, DWORD PTR _HWCRHK_lib_error_code
	test	eax, eax
	jne	SHORT $LN38@hwcrhk_rsa
; Line 155
	call	_ERR_get_next_error_library
	mov	DWORD PTR _HWCRHK_lib_error_code, eax
$LN38@hwcrhk_rsa:
; Line 156
	push	1024					; 00000400H
$LN51@hwcrhk_rsa:
	push	OFFSET ??_C@_0BD@KHDDJGFL@?4?2engines?2e_chil?4c?$AA@
	push	105					; 00000069H
	push	109					; 0000006dH
	push	eax
	call	_ERR_put_error
	add	esp, 20					; 00000014H
$LN53@hwcrhk_rsa:
; File c:\workpace\openssl\openssl-1.0.2h\engines\e_chil.c
; Line 1068
	xor	eax, eax
$LN50@hwcrhk_rsa:
	pop	edi
$err$56:
; Line 1069
	mov	ecx, DWORD PTR __$ArrayPad$[esp+1092]
	pop	esi
	pop	ebp
	pop	ebx
	xor	ecx, esp
	call	@__security_check_cookie@4
	add	esp, 1080				; 00000438H
	ret	0
_hwcrhk_rsa_mod_exp ENDP
_TEXT	ENDS
; Function compile flags: /Ogtpy
;	COMDAT _hwcrhk_mod_exp
_TEXT	SEGMENT
_p$GSCopy$1$ = -1048					; size = 4
_m_r$ = -1044						; size = 8
_rmsg$ = -1036						; size = 8
_tempbuf$ = -1028					; size = 1024
__$ArrayPad$ = -4					; size = 4
_r$ = 8							; size = 4
_a$ = 12						; size = 4
_p$ = 16						; size = 4
_m$ = 20						; size = 4
_ctx$ = 24						; size = 4
_hwcrhk_mod_exp PROC					; COMDAT
; File c:\workpace\openssl\openssl-1.0.2h\engines\e_chil.c
; Line 906
	mov	eax, 1048				; 00000418H
	call	__chkstk
	mov	eax, DWORD PTR ___security_cookie
	xor	eax, esp
	mov	DWORD PTR __$ArrayPad$[esp+1048], eax
; Line 921
	cmp	DWORD PTR _hwcrhk_context, 0
	mov	eax, DWORD PTR _p$[esp+1044]
	push	ebx
	mov	ebx, DWORD PTR _m$[esp+1048]
	push	ebp
	mov	ebp, DWORD PTR _a$[esp+1052]
	mov	DWORD PTR _p$GSCopy$1$[esp+1056], eax
	lea	eax, DWORD PTR _tempbuf$[esp+1056]
	push	edi
	mov	edi, DWORD PTR _r$[esp+1056]
	mov	DWORD PTR _rmsg$[esp+1060], eax
	mov	DWORD PTR _rmsg$[esp+1064], 1024	; 00000400H
	jne	SHORT $LN5@hwcrhk_mod
; File c:\workpace\openssl\openssl-1.0.2h\engines\e_chil_err.c
; Line 154
	mov	eax, DWORD PTR _HWCRHK_lib_error_code
	test	eax, eax
	jne	SHORT $LN13@hwcrhk_mod
; Line 155
	call	_ERR_get_next_error_library
	mov	DWORD PTR _HWCRHK_lib_error_code, eax
$LN13@hwcrhk_mod:
; Line 156
	push	922					; 0000039aH
	push	OFFSET ??_C@_0BD@KHDDJGFL@?4?2engines?2e_chil?4c?$AA@
	push	106					; 0000006aH
	push	107					; 0000006bH
	push	eax
	call	_ERR_put_error
	add	esp, 20					; 00000014H
; File c:\workpace\openssl\openssl-1.0.2h\engines\e_chil.c
; Line 955
	xor	eax, eax
	pop	edi
	pop	ebp
	pop	ebx
; Line 956
	mov	ecx, DWORD PTR __$ArrayPad$[esp+1048]
	xor	ecx, esp
	call	@__security_check_cookie@4
	add	esp, 1048				; 00000418H
	ret	0
$LN5@hwcrhk_mod:
	push	esi
; Line 926
	push	DWORD PTR [ebx+4]
	push	edi
	call	_bn_expand2
; Line 930
	mov	eax, DWORD PTR [edi+8]
	mov	ecx, DWORD PTR [ebx+4]
	mov	edx, DWORD PTR _p$GSCopy$1$[esp+1072]
	mov	esi, DWORD PTR [ebp+4]
	shl	eax, 2
	mov	DWORD PTR _m_r$[esp+1076], eax
	mov	eax, DWORD PTR [edi]
	mov	edx, DWORD PTR [edx+4]
	mov	DWORD PTR _m_r$[esp+1072], eax
; Line 933
	lea	eax, DWORD PTR _rmsg$[esp+1072]
	push	eax
	lea	eax, DWORD PTR _m_r$[esp+1076]
	shl	ecx, 2
	push	eax
	mov	eax, DWORD PTR _p$GSCopy$1$[esp+1080]
	push	ecx
	push	DWORD PTR [ebx]
	shl	edx, 2
	push	edx
	push	DWORD PTR [eax]
	shl	esi, 2
	push	esi
	push	DWORD PTR [ebp]
	push	DWORD PTR _hwcrhk_context
	call	DWORD PTR _p_hwcrhk_ModExp
; Line 936
	mov	ecx, DWORD PTR _m_r$[esp+1112]
	add	esp, 44					; 0000002cH
	shr	ecx, 2
	mov	esi, eax
	mov	DWORD PTR [edi+4], ecx
; Line 937
	test	ecx, ecx
	jle	SHORT $LN6@hwcrhk_mod
	mov	edx, DWORD PTR [edi]
	lea	edx, DWORD PTR [edx+ecx*4]
	add	edx, -4					; fffffffcH
$LL4@hwcrhk_mod:
	mov	eax, DWORD PTR [edx]
	lea	edx, DWORD PTR [edx-4]
	test	eax, eax
	jne	SHORT $LN22@hwcrhk_mod
	dec	ecx
	test	ecx, ecx
	jg	SHORT $LL4@hwcrhk_mod
$LN22@hwcrhk_mod:
	mov	DWORD PTR [edi+4], ecx
$LN6@hwcrhk_mod:
; Line 939
	test	esi, esi
	jns	SHORT $LN8@hwcrhk_mod
; File c:\workpace\openssl\openssl-1.0.2h\engines\e_chil_err.c
; Line 154
	mov	eax, DWORD PTR _HWCRHK_lib_error_code
; File c:\workpace\openssl\openssl-1.0.2h\engines\e_chil.c
; Line 944
	cmp	esi, -2					; fffffffeH
	jne	SHORT $LN9@hwcrhk_mod
; File c:\workpace\openssl\openssl-1.0.2h\engines\e_chil_err.c
; Line 154
	test	eax, eax
	jne	SHORT $LN16@hwcrhk_mod
; Line 155
	call	_ERR_get_next_error_library
	mov	DWORD PTR _HWCRHK_lib_error_code, eax
$LN16@hwcrhk_mod:
; Line 156
	push	945					; 000003b1H
	push	OFFSET ??_C@_0BD@KHDDJGFL@?4?2engines?2e_chil?4c?$AA@
	push	112					; 00000070H
; File c:\workpace\openssl\openssl-1.0.2h\engines\e_chil.c
; Line 946
	jmp	SHORT $LN27@hwcrhk_mod
$LN9@hwcrhk_mod:
; File c:\workpace\openssl\openssl-1.0.2h\engines\e_chil_err.c
; Line 154
	test	eax, eax
	jne	SHORT $LN19@hwcrhk_mod
; Line 155
	call	_ERR_get_next_error_library
	mov	DWORD PTR _HWCRHK_lib_error_code, eax
$LN19@hwcrhk_mod:
; Line 156
	push	947					; 000003b3H
	push	OFFSET ??_C@_0BD@KHDDJGFL@?4?2engines?2e_chil?4c?$AA@
	push	111					; 0000006fH
$LN27@hwcrhk_mod:
	push	107					; 0000006bH
	push	eax
	call	_ERR_put_error
	add	esp, 20					; 00000014H
; File c:\workpace\openssl\openssl-1.0.2h\engines\e_chil.c
; Line 949
	push	DWORD PTR _rmsg$[esp+1064]
	push	1
	call	_ERR_add_error_data
	add	esp, 8
; Line 955
	xor	eax, eax
	jmp	SHORT $LN26@hwcrhk_mod
$LN8@hwcrhk_mod:
	mov	eax, 1
$LN26@hwcrhk_mod:
	pop	esi
$err$29:
; Line 956
	mov	ecx, DWORD PTR __$ArrayPad$[esp+1060]
	pop	edi
	pop	ebp
	pop	ebx
	xor	ecx, esp
	call	@__security_check_cookie@4
	add	esp, 1048				; 00000418H
	ret	0
_hwcrhk_mod_exp ENDP
_TEXT	ENDS
; Function compile flags: /Ogtpy
;	COMDAT _hwcrhk_mutex_destroy
_TEXT	SEGMENT
_mt$ = 8						; size = 4
_hwcrhk_mutex_destroy PROC				; COMDAT
; File c:\workpace\openssl\openssl-1.0.2h\engines\e_chil.c
; Line 1173
	mov	eax, DWORD PTR _mt$[esp-4]
	push	DWORD PTR [eax]
	call	_CRYPTO_destroy_dynlockid
	pop	ecx
; Line 1174
	ret	0
_hwcrhk_mutex_destroy ENDP
_TEXT	ENDS
; Function compile flags: /Ogtpy
;	COMDAT _hwcrhk_mutex_unlock
_TEXT	SEGMENT
_mt$ = 8						; size = 4
_hwcrhk_mutex_unlock PROC				; COMDAT
; File c:\workpace\openssl\openssl-1.0.2h\engines\e_chil.c
; Line 1168
	mov	eax, DWORD PTR _mt$[esp-4]
	push	1168					; 00000490H
	push	OFFSET ??_C@_0BD@KHDDJGFL@?4?2engines?2e_chil?4c?$AA@
	push	DWORD PTR [eax]
	push	10					; 0000000aH
	call	_CRYPTO_lock
	add	esp, 16					; 00000010H
; Line 1169
	ret	0
_hwcrhk_mutex_unlock ENDP
_TEXT	ENDS
; Function compile flags: /Ogtpy
;	COMDAT _hwcrhk_mutex_lock
_TEXT	SEGMENT
_mt$ = 8						; size = 4
_hwcrhk_mutex_lock PROC					; COMDAT
; File c:\workpace\openssl\openssl-1.0.2h\engines\e_chil.c
; Line 1162
	mov	eax, DWORD PTR _mt$[esp-4]
	push	1162					; 0000048aH
	push	OFFSET ??_C@_0BD@KHDDJGFL@?4?2engines?2e_chil?4c?$AA@
	push	DWORD PTR [eax]
	push	9
	call	_CRYPTO_lock
	add	esp, 16					; 00000010H
; Line 1163
	xor	eax, eax
; Line 1164
	ret	0
_hwcrhk_mutex_lock ENDP
_TEXT	ENDS
; Function compile flags: /Ogtpy
;	COMDAT _hwcrhk_mutex_init
_TEXT	SEGMENT
_mt$ = 8						; size = 4
_cactx$ = 12						; size = 4
_hwcrhk_mutex_init PROC					; COMDAT
; File c:\workpace\openssl\openssl-1.0.2h\engines\e_chil.c
; Line 1154
	call	_CRYPTO_get_new_dynlockid
	mov	ecx, DWORD PTR _mt$[esp-4]
	mov	edx, eax
; Line 1155
	xor	eax, eax
	test	edx, edx
	sete	al
	mov	DWORD PTR [ecx], edx
; Line 1158
	ret	0
_hwcrhk_mutex_init ENDP
_TEXT	ENDS
; Function compile flags: /Ogtpy
;	COMDAT _hwcrhk_ctrl
_TEXT	SEGMENT
_e$ = 8							; size = 4
_cmd$ = 12						; size = 4
_i$ = 16						; size = 4
_p$ = 20						; size = 4
_f$ = 24						; size = 4
_hwcrhk_ctrl PROC					; COMDAT
; File c:\workpace\openssl\openssl-1.0.2h\engines\e_chil.c
; Line 680
	mov	eax, DWORD PTR _cmd$[esp-4]
	dec	eax
	push	edi
	mov	edi, 1
	cmp	eax, 203				; 000000cbH
	ja	$LN19@hwcrhk_ctr
	movzx	eax, BYTE PTR $LN24@hwcrhk_ctr[eax]
	jmp	DWORD PTR $LN27@hwcrhk_ctr[eax*4]
$LN4@hwcrhk_ctr:
; Line 682
	cmp	DWORD PTR _hwcrhk_dso, 0
	je	SHORT $LN5@hwcrhk_ctr
; Line 683
	push	683					; 000002abH
	push	OFFSET ??_C@_0BD@KHDDJGFL@?4?2engines?2e_chil?4c?$AA@
	push	100					; 00000064H
	push	100					; 00000064H
	call	_ERR_HWCRHK_error
	add	esp, 16					; 00000010H
; Line 684
	xor	eax, eax
	pop	edi
; Line 764
	ret	0
$LN5@hwcrhk_ctr:
; Line 686
	mov	eax, DWORD PTR _p$[esp]
	test	eax, eax
	jne	SHORT $LN6@hwcrhk_ctr
; Line 687
	push	687					; 000002afH
	push	OFFSET ??_C@_0BD@KHDDJGFL@?4?2engines?2e_chil?4c?$AA@
	push	67					; 00000043H
	push	100					; 00000064H
	call	_ERR_HWCRHK_error
	add	esp, 16					; 00000010H
; Line 688
	xor	eax, eax
	pop	edi
; Line 764
	ret	0
$LN6@hwcrhk_ctr:
; Line 690
	push	eax
	call	_set_HWCRHK_LIBNAME
	add	esp, 4
	pop	edi
; Line 764
	ret	0
$LN7@hwcrhk_ctr:
; Line 695
	push	695					; 000002b7H
	push	OFFSET ??_C@_0BD@KHDDJGFL@?4?2engines?2e_chil?4c?$AA@
	push	30					; 0000001eH
	push	9
	call	_CRYPTO_lock
; Line 696
	mov	eax, DWORD PTR _logstream
	add	esp, 16					; 00000010H
	test	eax, eax
	je	SHORT $LN8@hwcrhk_ctr
; Line 697
	push	eax
	call	_BIO_free
	add	esp, 4
; Line 698
	mov	DWORD PTR _logstream, 0
$LN8@hwcrhk_ctr:
; Line 700
	push	esi
	mov	esi, DWORD PTR _p$[esp+4]
	push	700					; 000002bcH
	push	OFFSET ??_C@_0BD@KHDDJGFL@?4?2engines?2e_chil?4c?$AA@
	push	21					; 00000015H
	lea	eax, DWORD PTR [esi+44]
	push	1
	push	eax
	call	_CRYPTO_add_lock
	add	esp, 20					; 00000014H
	cmp	eax, 1
	jle	SHORT $LN9@hwcrhk_ctr
; Line 701
	mov	DWORD PTR _logstream, esi
	jmp	SHORT $LN10@hwcrhk_ctr
$LN9@hwcrhk_ctr:
; Line 703
	push	703					; 000002bfH
	push	OFFSET ??_C@_0BD@KHDDJGFL@?4?2engines?2e_chil?4c?$AA@
	push	101					; 00000065H
	push	100					; 00000064H
	call	_ERR_HWCRHK_error
	add	esp, 16					; 00000010H
$LN10@hwcrhk_ctr:
; Line 705
	push	705					; 000002c1H
	push	OFFSET ??_C@_0BD@KHDDJGFL@?4?2engines?2e_chil?4c?$AA@
	push	30					; 0000001eH
	push	10					; 0000000aH
	call	_CRYPTO_lock
	add	esp, 16					; 00000010H
; Line 763
	mov	eax, edi
	pop	esi
	pop	edi
; Line 764
	ret	0
$LN11@hwcrhk_ctr:
; Line 708
	push	708					; 000002c4H
	push	OFFSET ??_C@_0BD@KHDDJGFL@?4?2engines?2e_chil?4c?$AA@
	push	30					; 0000001eH
	push	9
	call	_CRYPTO_lock
; Line 709
	mov	eax, DWORD PTR _f$[esp+16]
	mov	DWORD PTR _password_context, eax
; Line 710
	push	710					; 000002c6H
$LN25@hwcrhk_ctr:
	push	OFFSET ??_C@_0BD@KHDDJGFL@?4?2engines?2e_chil?4c?$AA@
	push	30					; 0000001eH
	push	10					; 0000000aH
	call	_CRYPTO_lock
	add	esp, 32					; 00000020H
; Line 763
	mov	eax, edi
	pop	edi
; Line 764
	ret	0
$LN12@hwcrhk_ctr:
; Line 714
	push	714					; 000002caH
	push	OFFSET ??_C@_0BD@KHDDJGFL@?4?2engines?2e_chil?4c?$AA@
	push	30					; 0000001eH
	push	9
	call	_CRYPTO_lock
; Line 715
	mov	eax, DWORD PTR _p$[esp+16]
	mov	DWORD PTR _password_context+4, eax
; Line 716
	push	716					; 000002ccH
; Line 717
	jmp	SHORT $LN25@hwcrhk_ctr
$LN13@hwcrhk_ctr:
; Line 720
	push	720					; 000002d0H
	push	OFFSET ??_C@_0BD@KHDDJGFL@?4?2engines?2e_chil?4c?$AA@
	push	30					; 0000001eH
	push	9
	call	_CRYPTO_lock
; Line 721
	mov	eax, DWORD PTR _p$[esp+16]
	mov	DWORD PTR _password_context+8, eax
; Line 722
	push	722					; 000002d2H
; Line 723
	jmp	SHORT $LN25@hwcrhk_ctr
$LN14@hwcrhk_ctr:
; Line 730
	push	730					; 000002daH
	push	OFFSET ??_C@_0BD@KHDDJGFL@?4?2engines?2e_chil?4c?$AA@
	push	30					; 0000001eH
	push	9
	call	_CRYPTO_lock
	mov	ecx, DWORD PTR _hwcrhk_globals
	mov	eax, ecx
; Line 732
	or	eax, 16					; 00000010H
; Line 734
	and	ecx, -17				; ffffffefH
	cmp	DWORD PTR _i$[esp+16], 0
; Line 735
	push	735					; 000002dfH
	cmovne	ecx, eax
	mov	DWORD PTR _hwcrhk_globals, ecx
; Line 736
	jmp	$LN25@hwcrhk_ctr
$LN17@hwcrhk_ctr:
; Line 745
	push	745					; 000002e9H
	push	OFFSET ??_C@_0BD@KHDDJGFL@?4?2engines?2e_chil?4c?$AA@
	push	30					; 0000001eH
	push	9
	call	_CRYPTO_lock
; Line 746
	mov	DWORD PTR _disable_mutex_callbacks, edi
; Line 747
	push	747					; 000002ebH
; Line 748
	jmp	$LN25@hwcrhk_ctr
$LN18@hwcrhk_ctr:
; Line 750
	push	750					; 000002eeH
	push	OFFSET ??_C@_0BD@KHDDJGFL@?4?2engines?2e_chil?4c?$AA@
	push	30					; 0000001eH
	push	9
	call	_CRYPTO_lock
; Line 751
	xor	eax, eax
	cmp	DWORD PTR _i$[esp+16], eax
; Line 752
	push	752					; 000002f0H
	setne	al
	mov	DWORD PTR _disable_mutex_callbacks, eax
; Line 753
	jmp	$LN25@hwcrhk_ctr
$LN19@hwcrhk_ctr:
; File c:\workpace\openssl\openssl-1.0.2h\engines\e_chil_err.c
; Line 154
	mov	eax, DWORD PTR _HWCRHK_lib_error_code
	test	eax, eax
	jne	SHORT $LN22@hwcrhk_ctr
; Line 155
	call	_ERR_get_next_error_library
	mov	DWORD PTR _HWCRHK_lib_error_code, eax
$LN22@hwcrhk_ctr:
; Line 156
	push	758					; 000002f6H
	push	OFFSET ??_C@_0BD@KHDDJGFL@?4?2engines?2e_chil?4c?$AA@
	push	103					; 00000067H
	push	100					; 00000064H
	push	eax
	call	_ERR_put_error
	add	esp, 20					; 00000014H
; File c:\workpace\openssl\openssl-1.0.2h\engines\e_chil.c
; Line 759
	xor	edi, edi
; Line 763
	mov	eax, edi
	pop	edi
; Line 764
	ret	0
	npad	2
$LN27@hwcrhk_ctr:
	DD	$LN7@hwcrhk_ctr
	DD	$LN11@hwcrhk_ctr
	DD	$LN12@hwcrhk_ctr
	DD	$LN13@hwcrhk_ctr
	DD	$LN14@hwcrhk_ctr
	DD	$LN17@hwcrhk_ctr
	DD	$LN4@hwcrhk_ctr
	DD	$LN18@hwcrhk_ctr
	DD	$LN19@hwcrhk_ctr
$LN24@hwcrhk_ctr:
	DB	0
	DB	1
	DB	8
	DB	2
	DB	3
	DB	8
	DB	8
	DB	8
	DB	8
	DB	8
	DB	8
	DB	8
	DB	8
	DB	8
	DB	8
	DB	8
	DB	8
	DB	8
	DB	8
	DB	8
	DB	8
	DB	8
	DB	8
	DB	8
	DB	8
	DB	8
	DB	8
	DB	8
	DB	8
	DB	8
	DB	8
	DB	8
	DB	8
	DB	8
	DB	8
	DB	8
	DB	8
	DB	8
	DB	8
	DB	8
	DB	8
	DB	8
	DB	8
	DB	8
	DB	8
	DB	8
	DB	8
	DB	8
	DB	8
	DB	8
	DB	8
	DB	8
	DB	8
	DB	8
	DB	8
	DB	8
	DB	8
	DB	8
	DB	8
	DB	8
	DB	8
	DB	8
	DB	8
	DB	8
	DB	8
	DB	8
	DB	8
	DB	8
	DB	8
	DB	8
	DB	8
	DB	8
	DB	8
	DB	8
	DB	8
	DB	8
	DB	8
	DB	8
	DB	8
	DB	8
	DB	8
	DB	8
	DB	8
	DB	8
	DB	8
	DB	8
	DB	8
	DB	8
	DB	8
	DB	8
	DB	8
	DB	8
	DB	8
	DB	8
	DB	8
	DB	8
	DB	8
	DB	8
	DB	8
	DB	4
	DB	5
	DB	8
	DB	8
	DB	8
	DB	8
	DB	8
	DB	8
	DB	8
	DB	8
	DB	8
	DB	8
	DB	8
	DB	8
	DB	8
	DB	8
	DB	8
	DB	8
	DB	8
	DB	8
	DB	8
	DB	8
	DB	8
	DB	8
	DB	8
	DB	8
	DB	8
	DB	8
	DB	8
	DB	8
	DB	8
	DB	8
	DB	8
	DB	8
	DB	8
	DB	8
	DB	8
	DB	8
	DB	8
	DB	8
	DB	8
	DB	8
	DB	8
	DB	8
	DB	8
	DB	8
	DB	8
	DB	8
	DB	8
	DB	8
	DB	8
	DB	8
	DB	8
	DB	8
	DB	8
	DB	8
	DB	8
	DB	8
	DB	8
	DB	8
	DB	8
	DB	8
	DB	8
	DB	8
	DB	8
	DB	8
	DB	8
	DB	8
	DB	8
	DB	8
	DB	8
	DB	8
	DB	8
	DB	8
	DB	8
	DB	8
	DB	8
	DB	8
	DB	8
	DB	8
	DB	8
	DB	8
	DB	8
	DB	8
	DB	8
	DB	8
	DB	8
	DB	8
	DB	8
	DB	8
	DB	8
	DB	8
	DB	8
	DB	8
	DB	8
	DB	8
	DB	8
	DB	8
	DB	8
	DB	8
	DB	6
	DB	4
	DB	7
	DB	2
	DB	3
_hwcrhk_ctrl ENDP
_TEXT	ENDS
; Function compile flags: /Ogtpy
;	COMDAT _hwcrhk_finish
_TEXT	SEGMENT
_e$ = 8							; size = 4
_hwcrhk_finish PROC					; COMDAT
; File c:\workpace\openssl\openssl-1.0.2h\engines\e_chil.c
; Line 465
	mov	eax, DWORD PTR _HWCRHK_LIBNAME
	push	esi
; Line 645
	mov	esi, 1
; Line 465
	test	eax, eax
	je	SHORT $LN7@hwcrhk_fin
; Line 466
	push	eax
	call	_CRYPTO_free
	add	esp, 4
$LN7@hwcrhk_fin:
; Line 647
	cmp	DWORD PTR _hwcrhk_dso, 0
; Line 467
	mov	DWORD PTR _HWCRHK_LIBNAME, 0
; Line 647
	jne	SHORT $LN2@hwcrhk_fin
; File c:\workpace\openssl\openssl-1.0.2h\engines\e_chil_err.c
; Line 154
	mov	eax, DWORD PTR _HWCRHK_lib_error_code
	test	eax, eax
	jne	SHORT $LN10@hwcrhk_fin
; Line 155
	call	_ERR_get_next_error_library
	mov	DWORD PTR _HWCRHK_lib_error_code, eax
$LN10@hwcrhk_fin:
; Line 156
	push	648					; 00000288H
	push	OFFSET ??_C@_0BD@KHDDJGFL@?4?2engines?2e_chil?4c?$AA@
	push	107					; 0000006bH
; File c:\workpace\openssl\openssl-1.0.2h\engines\e_chil.c
; Line 650
	jmp	SHORT $LN17@hwcrhk_fin
$LN2@hwcrhk_fin:
; Line 523
	push	DWORD PTR _hwcrhk_context
	call	DWORD PTR _p_hwcrhk_Finish
; Line 653
	push	DWORD PTR _hwcrhk_dso
	call	_DSO_free
	add	esp, 8
	test	eax, eax
	jne	SHORT $err$19
; File c:\workpace\openssl\openssl-1.0.2h\engines\e_chil_err.c
; Line 154
	mov	eax, DWORD PTR _HWCRHK_lib_error_code
	test	eax, eax
	jne	SHORT $LN15@hwcrhk_fin
; Line 155
	call	_ERR_get_next_error_library
	mov	DWORD PTR _HWCRHK_lib_error_code, eax
$LN15@hwcrhk_fin:
; Line 156
	push	654					; 0000028eH
	push	OFFSET ??_C@_0BD@KHDDJGFL@?4?2engines?2e_chil?4c?$AA@
	push	104					; 00000068H
$LN17@hwcrhk_fin:
	push	101					; 00000065H
	push	eax
	call	_ERR_put_error
	add	esp, 20					; 00000014H
; File c:\workpace\openssl\openssl-1.0.2h\engines\e_chil.c
; Line 655
	xor	esi, esi
$err$19:
; Line 659
	mov	eax, DWORD PTR _logstream
	test	eax, eax
	je	SHORT $LN4@hwcrhk_fin
; Line 660
	push	eax
	call	_BIO_free
	add	esp, 4
$LN4@hwcrhk_fin:
; Line 673
	mov	eax, esi
	mov	DWORD PTR _hwcrhk_dso, 0
	mov	DWORD PTR _p_hwcrhk_Init, 0
	mov	DWORD PTR _p_hwcrhk_Finish, 0
	mov	DWORD PTR _p_hwcrhk_ModExp, 0
	mov	DWORD PTR _p_hwcrhk_RSA, 0
	mov	DWORD PTR _p_hwcrhk_RSALoadKey, 0
	mov	DWORD PTR _p_hwcrhk_RSAGetPublicKey, 0
	mov	DWORD PTR _p_hwcrhk_RSAUnloadKey, 0
	mov	DWORD PTR _p_hwcrhk_ModExpCRT, 0
	mov	DWORD PTR _p_hwcrhk_RandomBytes, 0
	pop	esi
; Line 674
	ret	0
_hwcrhk_finish ENDP
_TEXT	ENDS
; Function compile flags: /Ogtpy
;	COMDAT _hwcrhk_init
_TEXT	SEGMENT
_p8$1$ = -1048						; size = 4
_rmsg$1 = -1048						; size = 8
_p5$1$ = -1040						; size = 4
_p6$1$ = -1036						; size = 4
_p7$1$ = -1032						; size = 4
_tempbuf$2 = -1028					; size = 1024
__$ArrayPad$ = -4					; size = 4
_e$ = 8							; size = 4
_hwcrhk_init PROC					; COMDAT
; File c:\workpace\openssl\openssl-1.0.2h\engines\e_chil.c
; Line 536
	mov	eax, 1048				; 00000418H
	call	__chkstk
	mov	eax, DWORD PTR ___security_cookie
	xor	eax, esp
	mov	DWORD PTR __$ArrayPad$[esp+1048], eax
; Line 549
	cmp	DWORD PTR _hwcrhk_dso, 0
	push	ebx
	push	ebp
	push	esi
	push	edi
	je	SHORT $LN2@hwcrhk_ini
; File c:\workpace\openssl\openssl-1.0.2h\engines\e_chil_err.c
; Line 154
	mov	eax, DWORD PTR _HWCRHK_lib_error_code
	test	eax, eax
	jne	SHORT $LN13@hwcrhk_ini
; Line 155
	call	_ERR_get_next_error_library
	mov	DWORD PTR _HWCRHK_lib_error_code, eax
$LN13@hwcrhk_ini:
; Line 156
	push	550					; 00000226H
	push	OFFSET ??_C@_0BD@KHDDJGFL@?4?2engines?2e_chil?4c?$AA@
	push	100					; 00000064H
; File c:\workpace\openssl\openssl-1.0.2h\engines\e_chil.c
; Line 551
	jmp	$LN29@hwcrhk_ini
$LN2@hwcrhk_ini:
; Line 472
	mov	eax, DWORD PTR _HWCRHK_LIBNAME
	mov	ecx, OFFSET ??_C@_08OKMEGKNO@nfhwcrhk?$AA@
	test	eax, eax
; Line 554
	push	0
; Line 472
	cmovne	ecx, eax
; Line 554
	push	0
	push	ecx
	push	0
	call	_DSO_load
	add	esp, 16					; 00000010H
	mov	DWORD PTR _hwcrhk_dso, eax
; Line 555
	test	eax, eax
	jne	SHORT $LN3@hwcrhk_ini
; File c:\workpace\openssl\openssl-1.0.2h\engines\e_chil_err.c
; Line 154
	mov	eax, DWORD PTR _HWCRHK_lib_error_code
	test	eax, eax
	jne	SHORT $LN19@hwcrhk_ini
; Line 155
	call	_ERR_get_next_error_library
	mov	DWORD PTR _HWCRHK_lib_error_code, eax
$LN19@hwcrhk_ini:
; Line 156
	push	556					; 0000022cH
; File c:\workpace\openssl\openssl-1.0.2h\engines\e_chil.c
; Line 557
	jmp	$LN30@hwcrhk_ini
$LN3@hwcrhk_ini:
; Line 576
	push	DWORD PTR _n_hwcrhk_Init
	push	eax
	call	_DSO_bind_func
	mov	esi, eax
	add	esp, 8
	test	esi, esi
	je	$LN5@hwcrhk_ini
	push	DWORD PTR _n_hwcrhk_Finish
	push	DWORD PTR _hwcrhk_dso
	call	_DSO_bind_func
	mov	edi, eax
	add	esp, 8
	test	edi, edi
	je	$LN5@hwcrhk_ini
	push	DWORD PTR _n_hwcrhk_ModExp
	push	DWORD PTR _hwcrhk_dso
	call	_DSO_bind_func
	mov	ebx, eax
	add	esp, 8
	test	ebx, ebx
	je	$LN5@hwcrhk_ini
	push	DWORD PTR _n_hwcrhk_RSA
	push	DWORD PTR _hwcrhk_dso
	call	_DSO_bind_func
	mov	ebp, eax
	add	esp, 8
	test	ebp, ebp
	je	$LN5@hwcrhk_ini
	push	DWORD PTR _n_hwcrhk_RSALoadKey
	push	DWORD PTR _hwcrhk_dso
	call	_DSO_bind_func
	add	esp, 8
	mov	DWORD PTR _p5$1$[esp+1064], eax
	test	eax, eax
	je	$LN5@hwcrhk_ini
	push	DWORD PTR _n_hwcrhk_RSAGetPublicKey
	push	DWORD PTR _hwcrhk_dso
	call	_DSO_bind_func
	add	esp, 8
	mov	DWORD PTR _p6$1$[esp+1064], eax
	test	eax, eax
	je	$LN5@hwcrhk_ini
	push	DWORD PTR _n_hwcrhk_RSAUnloadKey
	push	DWORD PTR _hwcrhk_dso
	call	_DSO_bind_func
	add	esp, 8
	mov	DWORD PTR _p7$1$[esp+1064], eax
	test	eax, eax
	je	$LN5@hwcrhk_ini
	push	DWORD PTR _n_hwcrhk_RandomBytes
	push	DWORD PTR _hwcrhk_dso
	call	_DSO_bind_func
	add	esp, 8
	mov	DWORD PTR _p8$1$[esp+1064], eax
	test	eax, eax
	je	$LN5@hwcrhk_ini
	push	DWORD PTR _n_hwcrhk_ModExpCRT
	push	DWORD PTR _hwcrhk_dso
	call	_DSO_bind_func
	mov	ecx, eax
	add	esp, 8
	test	ecx, ecx
	je	$LN5@hwcrhk_ini
; Line 599
	cmp	DWORD PTR _disable_mutex_callbacks, 0
	mov	eax, DWORD PTR _p5$1$[esp+1064]
	mov	DWORD PTR _p_hwcrhk_RSALoadKey, eax
	mov	eax, DWORD PTR _p6$1$[esp+1064]
	mov	DWORD PTR _p_hwcrhk_RSAGetPublicKey, eax
	mov	eax, DWORD PTR _p7$1$[esp+1064]
	mov	DWORD PTR _p_hwcrhk_RSAUnloadKey, eax
	mov	eax, DWORD PTR _p8$1$[esp+1064]
	mov	DWORD PTR _p_hwcrhk_Init, esi
	mov	DWORD PTR _p_hwcrhk_Finish, edi
	mov	DWORD PTR _p_hwcrhk_ModExp, ebx
	mov	DWORD PTR _p_hwcrhk_RSA, ebp
	mov	DWORD PTR _p_hwcrhk_RandomBytes, eax
	mov	DWORD PTR _p_hwcrhk_ModExpCRT, ecx
	jne	SHORT $LN28@hwcrhk_ini
; Line 601
	call	_CRYPTO_get_dynlock_create_callback
	test	eax, eax
	je	SHORT $LN28@hwcrhk_ini
	call	_CRYPTO_get_dynlock_lock_callback
	test	eax, eax
	je	SHORT $LN28@hwcrhk_ini
	call	_CRYPTO_get_dynlock_destroy_callback
	test	eax, eax
	je	SHORT $LN28@hwcrhk_ini
; Line 603
	mov	DWORD PTR _hwcrhk_globals+32, OFFSET _hwcrhk_mutex_init
; Line 604
	mov	DWORD PTR _hwcrhk_globals+36, OFFSET _hwcrhk_mutex_lock
; Line 605
	mov	DWORD PTR _hwcrhk_globals+40, OFFSET _hwcrhk_mutex_unlock
; Line 606
	mov	DWORD PTR _hwcrhk_globals+44, OFFSET _hwcrhk_mutex_destroy
$LN28@hwcrhk_ini:
; Line 511
	lea	eax, DWORD PTR _tempbuf$2[esp+1064]
; Line 512
	mov	DWORD PTR _rmsg$1[esp+1068], 1024	; 00000400H
	mov	DWORD PTR _rmsg$1[esp+1064], eax
; Line 514
	lea	eax, DWORD PTR _rmsg$1[esp+1064]
	push	OFFSET _password_context
	push	eax
	push	84					; 00000054H
	push	OFFSET _hwcrhk_globals
	call	DWORD PTR _p_hwcrhk_Init
	add	esp, 16					; 00000010H
	mov	DWORD PTR _hwcrhk_context, eax
; Line 515
	test	eax, eax
	jne	SHORT $LN8@hwcrhk_ini
; Line 614
	push	614					; 00000266H
	push	OFFSET ??_C@_0BD@KHDDJGFL@?4?2engines?2e_chil?4c?$AA@
	push	113					; 00000071H
	push	103					; 00000067H
	call	_ERR_HWCRHK_error
	add	esp, 16					; 00000010H
; Line 615
	jmp	SHORT $err$32
$LN8@hwcrhk_ini:
; Line 619
	cmp	DWORD PTR _hndidx_rsa, -1
	jne	SHORT $LN9@hwcrhk_ini
; Line 620
	push	0
	push	0
	push	0
	push	OFFSET ??_C@_0CC@FIICGL@nFast?5HWCryptoHook?5RSA?5key?5handl@
	push	0
	call	_RSA_get_ex_new_index
	add	esp, 20					; 00000014H
	mov	DWORD PTR _hndidx_rsa, eax
$LN9@hwcrhk_ini:
; Line 624
	mov	eax, 1
	jmp	$LN1@hwcrhk_ini
$LN5@hwcrhk_ini:
; File c:\workpace\openssl\openssl-1.0.2h\engines\e_chil_err.c
; Line 154
	mov	eax, DWORD PTR _HWCRHK_lib_error_code
	test	eax, eax
	jne	SHORT $LN22@hwcrhk_ini
; Line 155
	call	_ERR_get_next_error_library
	mov	DWORD PTR _HWCRHK_lib_error_code, eax
$LN22@hwcrhk_ini:
; Line 156
	push	579					; 00000243H
$LN30@hwcrhk_ini:
	push	OFFSET ??_C@_0BD@KHDDJGFL@?4?2engines?2e_chil?4c?$AA@
	push	104					; 00000068H
$LN29@hwcrhk_ini:
	push	103					; 00000067H
	push	eax
	call	_ERR_put_error
	add	esp, 20					; 00000014H
$err$32:
; File c:\workpace\openssl\openssl-1.0.2h\engines\e_chil.c
; Line 626
	mov	eax, DWORD PTR _hwcrhk_dso
	test	eax, eax
	je	SHORT $LN10@hwcrhk_ini
; Line 627
	push	eax
	call	_DSO_free
	add	esp, 4
$LN10@hwcrhk_ini:
; Line 628
	mov	DWORD PTR _hwcrhk_dso, 0
; Line 640
	xor	eax, eax
	mov	DWORD PTR _p_hwcrhk_Init, 0
	mov	DWORD PTR _p_hwcrhk_Finish, 0
	mov	DWORD PTR _p_hwcrhk_ModExp, 0
	mov	DWORD PTR _p_hwcrhk_RSA, 0
	mov	DWORD PTR _p_hwcrhk_RSALoadKey, 0
	mov	DWORD PTR _p_hwcrhk_RSAGetPublicKey, 0
	mov	DWORD PTR _p_hwcrhk_RSAUnloadKey, 0
	mov	DWORD PTR _p_hwcrhk_ModExpCRT, 0
	mov	DWORD PTR _p_hwcrhk_RandomBytes, 0
$LN1@hwcrhk_ini:
; Line 641
	mov	ecx, DWORD PTR __$ArrayPad$[esp+1064]
	pop	edi
	pop	esi
	pop	ebp
	pop	ebx
	xor	ecx, esp
	call	@__security_check_cookie@4
	add	esp, 1048				; 00000418H
	ret	0
_hwcrhk_init ENDP
_TEXT	ENDS
; Function compile flags: /Ogtpy
;	COMDAT _hwcrhk_destroy
_TEXT	SEGMENT
_e$ = 8							; size = 4
_hwcrhk_destroy PROC					; COMDAT
; File c:\workpace\openssl\openssl-1.0.2h\engines\e_chil.c
; Line 465
	mov	eax, DWORD PTR _HWCRHK_LIBNAME
	test	eax, eax
	je	SHORT $LN4@hwcrhk_des
; Line 466
	push	eax
	call	_CRYPTO_free
	add	esp, 4
$LN4@hwcrhk_des:
; File c:\workpace\openssl\openssl-1.0.2h\engines\e_chil_err.c
; Line 139
	cmp	DWORD PTR _HWCRHK_error_init, 0
; File c:\workpace\openssl\openssl-1.0.2h\engines\e_chil.c
; Line 467
	mov	DWORD PTR _HWCRHK_LIBNAME, 0
; File c:\workpace\openssl\openssl-1.0.2h\engines\e_chil_err.c
; Line 139
	jne	SHORT $LN9@hwcrhk_des
; Line 141
	push	OFFSET _HWCRHK_str_functs
	push	DWORD PTR _HWCRHK_lib_error_code
	call	_ERR_unload_strings
; Line 142
	push	OFFSET _HWCRHK_str_reasons
	push	DWORD PTR _HWCRHK_lib_error_code
	call	_ERR_unload_strings
; Line 146
	push	OFFSET _HWCRHK_lib_name
	push	0
	call	_ERR_unload_strings
	add	esp, 24					; 00000018H
; Line 148
	mov	DWORD PTR _HWCRHK_error_init, 1
$LN9@hwcrhk_des:
; File c:\workpace\openssl\openssl-1.0.2h\engines\e_chil.c
; Line 531
	mov	eax, 1
; Line 532
	ret	0
_hwcrhk_destroy ENDP
_TEXT	ENDS
; Function compile flags: /Ogtpy
;	COMDAT _ERR_HWCRHK_error
_TEXT	SEGMENT
_function$ = 8						; size = 4
_reason$ = 12						; size = 4
_file$ = 16						; size = 4
_line$ = 20						; size = 4
_ERR_HWCRHK_error PROC					; COMDAT
; File c:\workpace\openssl\openssl-1.0.2h\engines\e_chil_err.c
; Line 154
	mov	eax, DWORD PTR _HWCRHK_lib_error_code
	test	eax, eax
	jne	SHORT $LN2@ERR_HWCRHK
; Line 155
	call	_ERR_get_next_error_library
	mov	DWORD PTR _HWCRHK_lib_error_code, eax
$LN2@ERR_HWCRHK:
; Line 156
	push	DWORD PTR _line$[esp-4]
	push	DWORD PTR _file$[esp]
	push	DWORD PTR _reason$[esp+4]
	push	DWORD PTR _function$[esp+8]
	push	eax
	call	_ERR_put_error
	add	esp, 20					; 00000014H
; Line 157
	ret	0
_ERR_HWCRHK_error ENDP
_TEXT	ENDS
; Function compile flags: /Ogtpy
;	COMDAT _ERR_unload_HWCRHK_strings
_TEXT	SEGMENT
_ERR_unload_HWCRHK_strings PROC				; COMDAT
; File c:\workpace\openssl\openssl-1.0.2h\engines\e_chil_err.c
; Line 139
	cmp	DWORD PTR _HWCRHK_error_init, 0
	jne	SHORT $LN2@ERR_unload
; Line 141
	push	OFFSET _HWCRHK_str_functs
	push	DWORD PTR _HWCRHK_lib_error_code
	call	_ERR_unload_strings
; Line 142
	push	OFFSET _HWCRHK_str_reasons
	push	DWORD PTR _HWCRHK_lib_error_code
	call	_ERR_unload_strings
; Line 146
	push	OFFSET _HWCRHK_lib_name
	push	0
	call	_ERR_unload_strings
	add	esp, 24					; 00000018H
; Line 148
	mov	DWORD PTR _HWCRHK_error_init, 1
$LN2@ERR_unload:
; Line 150
	ret	0
_ERR_unload_HWCRHK_strings ENDP
_TEXT	ENDS
; Function compile flags: /Ogtpy
;	COMDAT _ERR_load_HWCRHK_strings
_TEXT	SEGMENT
_ERR_load_HWCRHK_strings PROC				; COMDAT
; File c:\workpace\openssl\openssl-1.0.2h\engines\e_chil_err.c
; Line 120
	mov	eax, DWORD PTR _HWCRHK_lib_error_code
	test	eax, eax
	jne	SHORT $LN2@ERR_load_H
; Line 121
	call	_ERR_get_next_error_library
	mov	DWORD PTR _HWCRHK_lib_error_code, eax
$LN2@ERR_load_H:
; Line 123
	cmp	DWORD PTR _HWCRHK_error_init, 0
	je	SHORT $LN3@ERR_load_H
; Line 126
	push	OFFSET _HWCRHK_str_functs
	push	eax
	mov	DWORD PTR _HWCRHK_error_init, 0
	call	_ERR_load_strings
; Line 127
	push	OFFSET _HWCRHK_str_reasons
	push	DWORD PTR _HWCRHK_lib_error_code
	call	_ERR_load_strings
; Line 131
	movzx	eax, BYTE PTR _HWCRHK_lib_error_code
	shl	eax, 24					; 00000018H
; Line 132
	push	OFFSET _HWCRHK_lib_name
	push	0
	mov	DWORD PTR _HWCRHK_lib_name, eax
	call	_ERR_load_strings
	add	esp, 24					; 00000018H
$LN3@ERR_load_H:
; Line 135
	ret	0
_ERR_load_HWCRHK_strings ENDP
_TEXT	ENDS
END
