; Listing generated by Microsoft (R) Optimizing Compiler Version 19.00.23918.0 

	TITLE	C:\workpace\openssl\openssl-1.0.2h\engines\e_ubsec.c
	.686P
	.XMM
	include listing.inc
	.model	flat

INCLUDELIB MSVCRT
INCLUDELIB OLDNAMES

PUBLIC	??_C@_0P@BJJHFGDF@already?5loaded?$AA@		; `string'
PUBLIC	??_C@_0P@NJHPDICB@bn?5expand?5fail?$AA@		; `string'
PUBLIC	??_C@_0BN@NJGGMLOG@ctrl?5command?5not?5implemented?$AA@ ; `string'
PUBLIC	??_C@_0M@DBMBNOIK@dso?5failure?$AA@		; `string'
PUBLIC	??_C@_0BH@KAGGBJK@missing?5key?5components?$AA@	; `string'
PUBLIC	??_C@_0L@ICAFOIA@not?5loaded?$AA@		; `string'
PUBLIC	??_C@_0P@LMFGIOCF@request?5failed?$AA@		; `string'
PUBLIC	??_C@_0BM@FJIHNEBE@size?5too?5large?5or?5too?5small?$AA@ ; `string'
PUBLIC	??_C@_0N@JLJLJPMB@unit?5failure?$AA@		; `string'
PUBLIC	??_C@_0N@IDCAMHPI@ubsec?5engine?$AA@		; `string'
PUBLIC	??_C@_07EGEBNIPD@SO_PATH?$AA@			; `string'
PUBLIC	??_C@_0DB@FFBMKMEM@Specifies?5the?5path?5to?5the?5?8ubsec@ ; `string'
PUBLIC	??_C@_0BB@CDBDNILJ@UBSEC?5RSA?5method?$AA@	; `string'
PUBLIC	??_C@_0BB@GFFANGDB@UBSEC?5DSA?5method?$AA@	; `string'
PUBLIC	??_C@_0BA@PAHPCBBP@UBSEC?5DH?5method?$AA@	; `string'
PUBLIC	??_C@_05IPGGNINO@ubsec?$AA@			; `string'
PUBLIC	??_C@_0BO@PGABPCJ@UBSEC?5hardware?5engine?5support?$AA@ ; `string'
PUBLIC	??_C@_0BE@NJOFPNJG@ubsec_bytes_to_bits?$AA@	; `string'
PUBLIC	??_C@_0BE@OHJFNGCO@ubsec_bits_to_bytes?$AA@	; `string'
PUBLIC	??_C@_0L@BNIDNGJI@ubsec_open?$AA@		; `string'
PUBLIC	??_C@_0M@EPNCGNPN@ubsec_close?$AA@		; `string'
PUBLIC	??_C@_0BO@JMBHODEE@diffie_hellman_generate_ioctl?$AA@ ; `string'
PUBLIC	??_C@_0BL@LBOPHDHN@diffie_hellman_agree_ioctl?$AA@ ; `string'
PUBLIC	??_C@_0BC@HODKELEI@rsa_mod_exp_ioctl?$AA@	; `string'
PUBLIC	??_C@_0BG@LJJODNOP@rsa_mod_exp_crt_ioctl?$AA@	; `string'
PUBLIC	??_C@_0P@OJMFCJG@dsa_sign_ioctl?$AA@		; `string'
PUBLIC	??_C@_0BB@KFBEANMO@dsa_verify_ioctl?$AA@	; `string'
PUBLIC	??_C@_0BG@POCKEKBP@math_accelerate_ioctl?$AA@	; `string'
PUBLIC	??_C@_09PCGBKKCC@rng_ioctl?$AA@			; `string'
PUBLIC	??_C@_0BI@GFLOACB@ubsec_max_key_len_ioctl?$AA@	; `string'
PUBLIC	??_C@_0L@MNIPMMKP@UBSEC_CTRL?$AA@		; `string'
PUBLIC	??_C@_0BF@OBJODAOP@UBSEC_DH_COMPUTE_KEY?$AA@	; `string'
PUBLIC	??_C@_0BG@HKJLNBPK@UBSEC_DH_GENERATE_KEY?$AA@	; `string'
PUBLIC	??_C@_0BC@EODPMEE@UBSEC_DSA_DO_SIGN?$AA@	; `string'
PUBLIC	??_C@_0BB@OAENJIDI@UBSEC_DSA_VERIFY?$AA@	; `string'
PUBLIC	??_C@_0N@JCKJACIF@UBSEC_FINISH?$AA@		; `string'
PUBLIC	??_C@_0L@CKPDLHDN@UBSEC_INIT?$AA@		; `string'
PUBLIC	??_C@_0O@DOCOEAOC@UBSEC_MOD_EXP?$AA@		; `string'
PUBLIC	??_C@_0BC@EEIHNNLD@UBSEC_MOD_EXP_CRT?$AA@	; `string'
PUBLIC	??_C@_0BB@NOKKLICC@UBSEC_RAND_BYTES?$AA@	; `string'
PUBLIC	??_C@_0BC@NNIFNEAA@UBSEC_RSA_MOD_EXP?$AA@	; `string'
PUBLIC	??_C@_0BG@LGBLJCMM@UBSEC_RSA_MOD_EXP_CRT?$AA@	; `string'
_BSS	SEGMENT
_UBSEC_lib_error_code DD 01H DUP (?)
_ubsec_dso DD	01H DUP (?)
_p_UBSEC_ubsec_bytes_to_bits DD 01H DUP (?)
_p_UBSEC_ubsec_bits_to_bytes DD 01H DUP (?)
_p_UBSEC_ubsec_open DD 01H DUP (?)
_p_UBSEC_ubsec_close DD 01H DUP (?)
_p_UBSEC_diffie_hellman_generate_ioctl DD 01H DUP (?)
_p_UBSEC_diffie_hellman_agree_ioctl DD 01H DUP (?)
_p_UBSEC_rsa_mod_exp_ioctl DD 01H DUP (?)
_p_UBSEC_rsa_mod_exp_crt_ioctl DD 01H DUP (?)
_p_UBSEC_dsa_sign_ioctl DD 01H DUP (?)
_p_UBSEC_dsa_verify_ioctl DD 01H DUP (?)
_p_UBSEC_math_accelerate_ioctl DD 01H DUP (?)
_p_UBSEC_rng_ioctl DD 01H DUP (?)
_p_UBSEC_max_key_len_ioctl DD 01H DUP (?)
_UBSEC_LIBNAME DD 01H DUP (?)
_BSS	ENDS
;	COMDAT ??_C@_0BG@LGBLJCMM@UBSEC_RSA_MOD_EXP_CRT?$AA@
CONST	SEGMENT
??_C@_0BG@LGBLJCMM@UBSEC_RSA_MOD_EXP_CRT?$AA@ DB 'UBSEC_RSA_MOD_EXP_CRT', 00H ; `string'
CONST	ENDS
;	COMDAT ??_C@_0BC@NNIFNEAA@UBSEC_RSA_MOD_EXP?$AA@
CONST	SEGMENT
??_C@_0BC@NNIFNEAA@UBSEC_RSA_MOD_EXP?$AA@ DB 'UBSEC_RSA_MOD_EXP', 00H ; `string'
CONST	ENDS
;	COMDAT ??_C@_0BB@NOKKLICC@UBSEC_RAND_BYTES?$AA@
CONST	SEGMENT
??_C@_0BB@NOKKLICC@UBSEC_RAND_BYTES?$AA@ DB 'UBSEC_RAND_BYTES', 00H ; `string'
CONST	ENDS
;	COMDAT ??_C@_0BC@EEIHNNLD@UBSEC_MOD_EXP_CRT?$AA@
CONST	SEGMENT
??_C@_0BC@EEIHNNLD@UBSEC_MOD_EXP_CRT?$AA@ DB 'UBSEC_MOD_EXP_CRT', 00H ; `string'
CONST	ENDS
;	COMDAT ??_C@_0O@DOCOEAOC@UBSEC_MOD_EXP?$AA@
CONST	SEGMENT
??_C@_0O@DOCOEAOC@UBSEC_MOD_EXP?$AA@ DB 'UBSEC_MOD_EXP', 00H ; `string'
CONST	ENDS
;	COMDAT ??_C@_0L@CKPDLHDN@UBSEC_INIT?$AA@
CONST	SEGMENT
??_C@_0L@CKPDLHDN@UBSEC_INIT?$AA@ DB 'UBSEC_INIT', 00H	; `string'
CONST	ENDS
;	COMDAT ??_C@_0N@JCKJACIF@UBSEC_FINISH?$AA@
CONST	SEGMENT
??_C@_0N@JCKJACIF@UBSEC_FINISH?$AA@ DB 'UBSEC_FINISH', 00H ; `string'
CONST	ENDS
;	COMDAT ??_C@_0BB@OAENJIDI@UBSEC_DSA_VERIFY?$AA@
CONST	SEGMENT
??_C@_0BB@OAENJIDI@UBSEC_DSA_VERIFY?$AA@ DB 'UBSEC_DSA_VERIFY', 00H ; `string'
CONST	ENDS
;	COMDAT ??_C@_0BC@EODPMEE@UBSEC_DSA_DO_SIGN?$AA@
CONST	SEGMENT
??_C@_0BC@EODPMEE@UBSEC_DSA_DO_SIGN?$AA@ DB 'UBSEC_DSA_DO_SIGN', 00H ; `string'
CONST	ENDS
;	COMDAT ??_C@_0BG@HKJLNBPK@UBSEC_DH_GENERATE_KEY?$AA@
CONST	SEGMENT
??_C@_0BG@HKJLNBPK@UBSEC_DH_GENERATE_KEY?$AA@ DB 'UBSEC_DH_GENERATE_KEY', 00H ; `string'
CONST	ENDS
;	COMDAT ??_C@_0BF@OBJODAOP@UBSEC_DH_COMPUTE_KEY?$AA@
CONST	SEGMENT
??_C@_0BF@OBJODAOP@UBSEC_DH_COMPUTE_KEY?$AA@ DB 'UBSEC_DH_COMPUTE_KEY', 00H ; `string'
CONST	ENDS
;	COMDAT ??_C@_0L@MNIPMMKP@UBSEC_CTRL?$AA@
CONST	SEGMENT
??_C@_0L@MNIPMMKP@UBSEC_CTRL?$AA@ DB 'UBSEC_CTRL', 00H	; `string'
CONST	ENDS
;	COMDAT ??_C@_0BI@GFLOACB@ubsec_max_key_len_ioctl?$AA@
CONST	SEGMENT
??_C@_0BI@GFLOACB@ubsec_max_key_len_ioctl?$AA@ DB 'ubsec_max_key_len_ioct'
	DB	'l', 00H					; `string'
CONST	ENDS
;	COMDAT ??_C@_09PCGBKKCC@rng_ioctl?$AA@
CONST	SEGMENT
??_C@_09PCGBKKCC@rng_ioctl?$AA@ DB 'rng_ioctl', 00H	; `string'
CONST	ENDS
;	COMDAT ??_C@_0BG@POCKEKBP@math_accelerate_ioctl?$AA@
CONST	SEGMENT
??_C@_0BG@POCKEKBP@math_accelerate_ioctl?$AA@ DB 'math_accelerate_ioctl', 00H ; `string'
CONST	ENDS
;	COMDAT ??_C@_0BB@KFBEANMO@dsa_verify_ioctl?$AA@
CONST	SEGMENT
??_C@_0BB@KFBEANMO@dsa_verify_ioctl?$AA@ DB 'dsa_verify_ioctl', 00H ; `string'
CONST	ENDS
;	COMDAT ??_C@_0P@OJMFCJG@dsa_sign_ioctl?$AA@
CONST	SEGMENT
??_C@_0P@OJMFCJG@dsa_sign_ioctl?$AA@ DB 'dsa_sign_ioctl', 00H ; `string'
CONST	ENDS
;	COMDAT ??_C@_0BG@LJJODNOP@rsa_mod_exp_crt_ioctl?$AA@
CONST	SEGMENT
??_C@_0BG@LJJODNOP@rsa_mod_exp_crt_ioctl?$AA@ DB 'rsa_mod_exp_crt_ioctl', 00H ; `string'
CONST	ENDS
;	COMDAT ??_C@_0BC@HODKELEI@rsa_mod_exp_ioctl?$AA@
CONST	SEGMENT
??_C@_0BC@HODKELEI@rsa_mod_exp_ioctl?$AA@ DB 'rsa_mod_exp_ioctl', 00H ; `string'
CONST	ENDS
;	COMDAT ??_C@_0BL@LBOPHDHN@diffie_hellman_agree_ioctl?$AA@
CONST	SEGMENT
??_C@_0BL@LBOPHDHN@diffie_hellman_agree_ioctl?$AA@ DB 'diffie_hellman_agr'
	DB	'ee_ioctl', 00H				; `string'
CONST	ENDS
;	COMDAT ??_C@_0BO@JMBHODEE@diffie_hellman_generate_ioctl?$AA@
CONST	SEGMENT
??_C@_0BO@JMBHODEE@diffie_hellman_generate_ioctl?$AA@ DB 'diffie_hellman_'
	DB	'generate_ioctl', 00H			; `string'
CONST	ENDS
;	COMDAT ??_C@_0M@EPNCGNPN@ubsec_close?$AA@
CONST	SEGMENT
??_C@_0M@EPNCGNPN@ubsec_close?$AA@ DB 'ubsec_close', 00H ; `string'
CONST	ENDS
;	COMDAT ??_C@_0L@BNIDNGJI@ubsec_open?$AA@
CONST	SEGMENT
??_C@_0L@BNIDNGJI@ubsec_open?$AA@ DB 'ubsec_open', 00H	; `string'
CONST	ENDS
;	COMDAT ??_C@_0BE@OHJFNGCO@ubsec_bits_to_bytes?$AA@
CONST	SEGMENT
??_C@_0BE@OHJFNGCO@ubsec_bits_to_bytes?$AA@ DB 'ubsec_bits_to_bytes', 00H ; `string'
CONST	ENDS
;	COMDAT ??_C@_0BE@NJOFPNJG@ubsec_bytes_to_bits?$AA@
CONST	SEGMENT
??_C@_0BE@NJOFPNJG@ubsec_bytes_to_bits?$AA@ DB 'ubsec_bytes_to_bits', 00H ; `string'
CONST	ENDS
;	COMDAT ??_C@_0BO@PGABPCJ@UBSEC?5hardware?5engine?5support?$AA@
CONST	SEGMENT
??_C@_0BO@PGABPCJ@UBSEC?5hardware?5engine?5support?$AA@ DB 'UBSEC hardwar'
	DB	'e engine support', 00H			; `string'
CONST	ENDS
;	COMDAT ??_C@_05IPGGNINO@ubsec?$AA@
CONST	SEGMENT
??_C@_05IPGGNINO@ubsec?$AA@ DB 'ubsec', 00H		; `string'
CONST	ENDS
;	COMDAT ??_C@_0BA@PAHPCBBP@UBSEC?5DH?5method?$AA@
CONST	SEGMENT
??_C@_0BA@PAHPCBBP@UBSEC?5DH?5method?$AA@ DB 'UBSEC DH method', 00H ; `string'
CONST	ENDS
;	COMDAT ??_C@_0BB@GFFANGDB@UBSEC?5DSA?5method?$AA@
CONST	SEGMENT
??_C@_0BB@GFFANGDB@UBSEC?5DSA?5method?$AA@ DB 'UBSEC DSA method', 00H ; `string'
CONST	ENDS
;	COMDAT ??_C@_0BB@CDBDNILJ@UBSEC?5RSA?5method?$AA@
CONST	SEGMENT
??_C@_0BB@CDBDNILJ@UBSEC?5RSA?5method?$AA@ DB 'UBSEC RSA method', 00H ; `string'
CONST	ENDS
;	COMDAT ??_C@_0DB@FFBMKMEM@Specifies?5the?5path?5to?5the?5?8ubsec@
CONST	SEGMENT
??_C@_0DB@FFBMKMEM@Specifies?5the?5path?5to?5the?5?8ubsec@ DB 'Specifies '
	DB	'the path to the ''ubsec'' shared library', 00H ; `string'
CONST	ENDS
;	COMDAT ??_C@_07EGEBNIPD@SO_PATH?$AA@
CONST	SEGMENT
??_C@_07EGEBNIPD@SO_PATH?$AA@ DB 'SO_PATH', 00H		; `string'
CONST	ENDS
CONST	SEGMENT
_ubsec_cmd_defns DD 0c8H
	DD	FLAT:??_C@_07EGEBNIPD@SO_PATH?$AA@
	DD	FLAT:??_C@_0DB@FFBMKMEM@Specifies?5the?5path?5to?5the?5?8ubsec@
	DD	02H
	DD	00H
	DD	00H
	DD	00H
	DD	00H
CONST	ENDS
;	COMDAT ??_C@_0N@IDCAMHPI@ubsec?5engine?$AA@
CONST	SEGMENT
??_C@_0N@IDCAMHPI@ubsec?5engine?$AA@ DB 'ubsec engine', 00H ; `string'
CONST	ENDS
_DATA	SEGMENT
_UBSEC_lib_name DD 00H
	DD	FLAT:??_C@_0N@IDCAMHPI@ubsec?5engine?$AA@
	DD	00H
	DD	00H
_UBSEC_error_init DD 01H
_ubsec_rsa DD	FLAT:??_C@_0BB@CDBDNILJ@UBSEC?5RSA?5method?$AA@
	DD	00H
	DD	00H
	DD	00H
	DD	00H
	DD	FLAT:_ubsec_rsa_mod_exp
	DD	FLAT:_ubsec_mod_exp_mont
	DD	00H
	DD	00H
	DD	00H
	DD	00H
	DD	00H
	DD	00H
	DD	00H
_ubsec_dsa DD	FLAT:??_C@_0BB@GFFANGDB@UBSEC?5DSA?5method?$AA@
	DD	FLAT:_ubsec_dsa_do_sign
	DD	00H
	DD	FLAT:_ubsec_dsa_verify
	DD	00H
	DD	00H
	DD	00H
	DD	00H
	DD	00H
	DD	00H
	DD	00H
	DD	00H
_ubsec_dh DD	FLAT:??_C@_0BA@PAHPCBBP@UBSEC?5DH?5method?$AA@
	DD	FLAT:_ubsec_dh_generate_key
	DD	FLAT:_ubsec_dh_compute_key
	DD	FLAT:_ubsec_mod_exp_dh
	DD	00H
	DD	00H
	DD	00H
	DD	00H
	DD	00H
_engine_ubsec_id DD FLAT:??_C@_05IPGGNINO@ubsec?$AA@
_engine_ubsec_name DD FLAT:??_C@_0BO@PGABPCJ@UBSEC?5hardware?5engine?5support?$AA@
_max_key_len DD	0400H
_UBSEC_F1 DD	FLAT:??_C@_0BE@NJOFPNJG@ubsec_bytes_to_bits?$AA@
_UBSEC_F2 DD	FLAT:??_C@_0BE@OHJFNGCO@ubsec_bits_to_bytes?$AA@
_UBSEC_F3 DD	FLAT:??_C@_0L@BNIDNGJI@ubsec_open?$AA@
_UBSEC_F4 DD	FLAT:??_C@_0M@EPNCGNPN@ubsec_close?$AA@
_UBSEC_F5 DD	FLAT:??_C@_0BO@JMBHODEE@diffie_hellman_generate_ioctl?$AA@
_UBSEC_F6 DD	FLAT:??_C@_0BL@LBOPHDHN@diffie_hellman_agree_ioctl?$AA@
_UBSEC_F7 DD	FLAT:??_C@_0BC@HODKELEI@rsa_mod_exp_ioctl?$AA@
_UBSEC_F8 DD	FLAT:??_C@_0BG@LJJODNOP@rsa_mod_exp_crt_ioctl?$AA@
_UBSEC_F9 DD	FLAT:??_C@_0P@OJMFCJG@dsa_sign_ioctl?$AA@
_UBSEC_F10 DD	FLAT:??_C@_0BB@KFBEANMO@dsa_verify_ioctl?$AA@
_UBSEC_F11 DD	FLAT:??_C@_0BG@POCKEKBP@math_accelerate_ioctl?$AA@
_UBSEC_F12 DD	FLAT:??_C@_09PCGBKKCC@rng_ioctl?$AA@
_UBSEC_F13 DD	FLAT:??_C@_0BI@GFLOACB@ubsec_max_key_len_ioctl?$AA@
_UBSEC_str_functs DD 064000H
	DD	FLAT:??_C@_0L@MNIPMMKP@UBSEC_CTRL?$AA@
	DD	065000H
	DD	FLAT:??_C@_0BF@OBJODAOP@UBSEC_DH_COMPUTE_KEY?$AA@
	DD	06f000H
	DD	FLAT:??_C@_0BG@HKJLNBPK@UBSEC_DH_GENERATE_KEY?$AA@
	DD	066000H
	DD	FLAT:??_C@_0BC@EODPMEE@UBSEC_DSA_DO_SIGN?$AA@
	DD	067000H
	DD	FLAT:??_C@_0BB@OAENJIDI@UBSEC_DSA_VERIFY?$AA@
	DD	068000H
	DD	FLAT:??_C@_0N@JCKJACIF@UBSEC_FINISH?$AA@
	DD	069000H
	DD	FLAT:??_C@_0L@CKPDLHDN@UBSEC_INIT?$AA@
	DD	06a000H
	DD	FLAT:??_C@_0O@DOCOEAOC@UBSEC_MOD_EXP?$AA@
	DD	06e000H
	DD	FLAT:??_C@_0BC@EEIHNNLD@UBSEC_MOD_EXP_CRT?$AA@
	DD	06b000H
	DD	FLAT:??_C@_0BB@NOKKLICC@UBSEC_RAND_BYTES?$AA@
	DD	06c000H
	DD	FLAT:??_C@_0BC@NNIFNEAA@UBSEC_RSA_MOD_EXP?$AA@
	DD	06d000H
	DD	FLAT:??_C@_0BG@LGBLJCMM@UBSEC_RSA_MOD_EXP_CRT?$AA@
	DD	00H
	DD	00H
_UBSEC_str_reasons DD 064H
	DD	FLAT:??_C@_0P@BJJHFGDF@already?5loaded?$AA@
	DD	065H
	DD	FLAT:??_C@_0P@NJHPDICB@bn?5expand?5fail?$AA@
	DD	066H
	DD	FLAT:??_C@_0BN@NJGGMLOG@ctrl?5command?5not?5implemented?$AA@
	DD	067H
	DD	FLAT:??_C@_0M@DBMBNOIK@dso?5failure?$AA@
	DD	068H
	DD	FLAT:??_C@_0BH@KAGGBJK@missing?5key?5components?$AA@
	DD	069H
	DD	FLAT:??_C@_0L@ICAFOIA@not?5loaded?$AA@
	DD	06aH
	DD	FLAT:??_C@_0P@LMFGIOCF@request?5failed?$AA@
	DD	06bH
	DD	FLAT:??_C@_0BM@FJIHNEBE@size?5too?5large?5or?5too?5small?$AA@
	DD	06cH
	DD	FLAT:??_C@_0N@JLJLJPMB@unit?5failure?$AA@
	DD	00H
	DD	00H
_DATA	ENDS
;	COMDAT ??_C@_0N@JLJLJPMB@unit?5failure?$AA@
CONST	SEGMENT
??_C@_0N@JLJLJPMB@unit?5failure?$AA@ DB 'unit failure', 00H ; `string'
CONST	ENDS
;	COMDAT ??_C@_0BM@FJIHNEBE@size?5too?5large?5or?5too?5small?$AA@
CONST	SEGMENT
??_C@_0BM@FJIHNEBE@size?5too?5large?5or?5too?5small?$AA@ DB 'size too lar'
	DB	'ge or too small', 00H			; `string'
CONST	ENDS
;	COMDAT ??_C@_0P@LMFGIOCF@request?5failed?$AA@
CONST	SEGMENT
??_C@_0P@LMFGIOCF@request?5failed?$AA@ DB 'request failed', 00H ; `string'
CONST	ENDS
;	COMDAT ??_C@_0L@ICAFOIA@not?5loaded?$AA@
CONST	SEGMENT
??_C@_0L@ICAFOIA@not?5loaded?$AA@ DB 'not loaded', 00H	; `string'
CONST	ENDS
;	COMDAT ??_C@_0BH@KAGGBJK@missing?5key?5components?$AA@
CONST	SEGMENT
??_C@_0BH@KAGGBJK@missing?5key?5components?$AA@ DB 'missing key component'
	DB	's', 00H					; `string'
CONST	ENDS
;	COMDAT ??_C@_0M@DBMBNOIK@dso?5failure?$AA@
CONST	SEGMENT
??_C@_0M@DBMBNOIK@dso?5failure?$AA@ DB 'dso failure', 00H ; `string'
CONST	ENDS
;	COMDAT ??_C@_0BN@NJGGMLOG@ctrl?5command?5not?5implemented?$AA@
CONST	SEGMENT
??_C@_0BN@NJGGMLOG@ctrl?5command?5not?5implemented?$AA@ DB 'ctrl command '
	DB	'not implemented', 00H			; `string'
CONST	ENDS
;	COMDAT ??_C@_0P@NJHPDICB@bn?5expand?5fail?$AA@
CONST	SEGMENT
??_C@_0P@NJHPDICB@bn?5expand?5fail?$AA@ DB 'bn expand fail', 00H ; `string'
CONST	ENDS
;	COMDAT ??_C@_0P@BJJHFGDF@already?5loaded?$AA@
CONST	SEGMENT
??_C@_0P@BJJHFGDF@already?5loaded?$AA@ DB 'already loaded', 00H ; `string'
CONST	ENDS
PUBLIC	_v_check
PUBLIC	_bind_engine
PUBLIC	??_C@_0BE@BCALDJJD@?4?2engines?2e_ubsec?4c?$AA@	; `string'
PUBLIC	??_C@_0M@IDHLONIG@?1dev?1ubskey?$AA@		; `string'
EXTRN	_CRYPTO_set_ex_data_implementation:PROC
EXTRN	_CRYPTO_set_locking_callback:PROC
EXTRN	_CRYPTO_set_add_lock_callback:PROC
EXTRN	_CRYPTO_set_dynlock_create_callback:PROC
EXTRN	_CRYPTO_set_dynlock_lock_callback:PROC
EXTRN	_CRYPTO_set_dynlock_destroy_callback:PROC
EXTRN	_CRYPTO_set_mem_functions:PROC
EXTRN	_CRYPTO_free:PROC
EXTRN	_BUF_strdup:PROC
EXTRN	_DSO_free:PROC
EXTRN	_DSO_load:PROC
EXTRN	_DSO_bind_func:PROC
EXTRN	_BN_rand_range:PROC
EXTRN	_BN_num_bits:PROC
EXTRN	_BN_new:PROC
EXTRN	_BN_init:PROC
EXTRN	_BN_clear_free:PROC
EXTRN	_BN_bin2bn:PROC
EXTRN	_BN_free:PROC
EXTRN	_BN_mod_exp:PROC
EXTRN	_bn_expand2:PROC
EXTRN	_RSA_PKCS1_SSLeay:PROC
EXTRN	_DH_OpenSSL:PROC
EXTRN	_DSA_SIG_new:PROC
EXTRN	_DSA_OpenSSL:PROC
EXTRN	_ERR_put_error:PROC
EXTRN	_ERR_load_strings:PROC
EXTRN	_ERR_unload_strings:PROC
EXTRN	_ERR_get_next_error_library:PROC
EXTRN	_ERR_set_implementation:PROC
EXTRN	_ENGINE_set_id:PROC
EXTRN	_ENGINE_set_name:PROC
EXTRN	_ENGINE_set_RSA:PROC
EXTRN	_ENGINE_set_DSA:PROC
EXTRN	_ENGINE_set_DH:PROC
EXTRN	_ENGINE_set_destroy_function:PROC
EXTRN	_ENGINE_set_init_function:PROC
EXTRN	_ENGINE_set_finish_function:PROC
EXTRN	_ENGINE_set_ctrl_function:PROC
EXTRN	_ENGINE_set_cmd_defns:PROC
EXTRN	_ENGINE_get_static_state:PROC
EXTRN	__chkstk:PROC
;	COMDAT ??_C@_0M@IDHLONIG@?1dev?1ubskey?$AA@
CONST	SEGMENT
??_C@_0M@IDHLONIG@?1dev?1ubskey?$AA@ DB '/dev/ubskey', 00H ; `string'
CONST	ENDS
;	COMDAT ??_C@_0BE@BCALDJJD@?4?2engines?2e_ubsec?4c?$AA@
CONST	SEGMENT
??_C@_0BE@BCALDJJD@?4?2engines?2e_ubsec?4c?$AA@ DB '.\engines\e_ubsec.c', 00H ; `string'
CONST	ENDS
; Function compile flags: /Ogtpy
;	COMDAT _bind_engine
_TEXT	SEGMENT
_e$ = 8							; size = 4
_id$ = 12						; size = 4
_fns$ = 16						; size = 4
_bind_engine PROC					; COMDAT
; File c:\workpace\openssl\openssl-1.0.2h\engines\e_ubsec.c
; Line 1082
	push	esi
	call	_ENGINE_get_static_state
	mov	esi, DWORD PTR _fns$[esp]
	cmp	eax, DWORD PTR [esi]
	je	SHORT $skip_cbs$19
	push	DWORD PTR [esi+20]
	push	DWORD PTR [esi+16]
	push	DWORD PTR [esi+12]
	call	_CRYPTO_set_mem_functions
	add	esp, 12					; 0000000cH
	test	eax, eax
	jne	SHORT $LN3@bind_engin
$LN17@bind_engin:
	xor	eax, eax
	pop	esi
	ret	0
$LN3@bind_engin:
	push	DWORD PTR [esi+24]
	call	_CRYPTO_set_locking_callback
	push	DWORD PTR [esi+28]
	call	_CRYPTO_set_add_lock_callback
	push	DWORD PTR [esi+32]
	call	_CRYPTO_set_dynlock_create_callback
	push	DWORD PTR [esi+36]
	call	_CRYPTO_set_dynlock_lock_callback
	push	DWORD PTR [esi+40]
	call	_CRYPTO_set_dynlock_destroy_callback
	push	DWORD PTR [esi+8]
	call	_CRYPTO_set_ex_data_implementation
	add	esp, 24					; 00000018H
	test	eax, eax
	je	SHORT $LN17@bind_engin
	push	DWORD PTR [esi+4]
	call	_ERR_set_implementation
	add	esp, 4
	test	eax, eax
	je	SHORT $LN17@bind_engin
$skip_cbs$19:
; Line 1074
	mov	eax, DWORD PTR _id$[esp]
	test	eax, eax
	je	SHORT $LN9@bind_engin
	mov	ecx, DWORD PTR _engine_ubsec_id
	npad	5
$LL13@bind_engin:
	mov	dl, BYTE PTR [eax]
	cmp	dl, BYTE PTR [ecx]
	jne	SHORT $LN14@bind_engin
	test	dl, dl
	je	SHORT $LN15@bind_engin
	mov	dl, BYTE PTR [eax+1]
	cmp	dl, BYTE PTR [ecx+1]
	jne	SHORT $LN14@bind_engin
	add	eax, 2
	add	ecx, 2
	test	dl, dl
	jne	SHORT $LL13@bind_engin
$LN15@bind_engin:
	xor	eax, eax
	jmp	SHORT $LN16@bind_engin
$LN14@bind_engin:
	sbb	eax, eax
	or	eax, 1
$LN16@bind_engin:
	test	eax, eax
	jne	$LN17@bind_engin
$LN9@bind_engin:
; Line 1076
	push	DWORD PTR _e$[esp]
	call	_bind_helper
	add	esp, 4
	test	eax, eax
	je	$LN17@bind_engin
; Line 1082
	mov	eax, 1
	pop	esi
	ret	0
_bind_engine ENDP
_TEXT	ENDS
; Function compile flags: /Ogtpy
;	COMDAT _v_check
_TEXT	SEGMENT
_v$ = 8							; size = 4
_v_check PROC						; COMDAT
; File c:\workpace\openssl\openssl-1.0.2h\engines\e_ubsec.c
; Line 1081
	cmp	DWORD PTR _v$[esp-4], 131072		; 00020000H
	sbb	eax, eax
	and	eax, -131072				; fffe0000H
	add	eax, 131072				; 00020000H
	ret	0
_v_check ENDP
_TEXT	ENDS
; Function compile flags: /Ogtpy
;	COMDAT _bind_fn
_TEXT	SEGMENT
_e$ = 8							; size = 4
_id$ = 12						; size = 4
_bind_fn PROC						; COMDAT
; File c:\workpace\openssl\openssl-1.0.2h\engines\e_ubsec.c
; Line 1074
	mov	eax, DWORD PTR _id$[esp-4]
	test	eax, eax
	je	SHORT $LN2@bind_fn
	mov	ecx, DWORD PTR _engine_ubsec_id
	npad	2
$LL5@bind_fn:
	mov	dl, BYTE PTR [eax]
	cmp	dl, BYTE PTR [ecx]
	jne	SHORT $LN6@bind_fn
	test	dl, dl
	je	SHORT $LN7@bind_fn
	mov	dl, BYTE PTR [eax+1]
	cmp	dl, BYTE PTR [ecx+1]
	jne	SHORT $LN6@bind_fn
	add	eax, 2
	add	ecx, 2
	test	dl, dl
	jne	SHORT $LL5@bind_fn
$LN7@bind_fn:
	xor	eax, eax
	jmp	SHORT $LN8@bind_fn
$LN6@bind_fn:
	sbb	eax, eax
	or	eax, 1
$LN8@bind_fn:
	test	eax, eax
	je	SHORT $LN2@bind_fn
; Line 1075
	xor	eax, eax
; Line 1079
	ret	0
$LN2@bind_fn:
; Line 1076
	push	DWORD PTR _e$[esp-4]
	call	_bind_helper
	add	esp, 4
	neg	eax
	sbb	eax, eax
	neg	eax
; Line 1079
	ret	0
_bind_fn ENDP
_TEXT	ENDS
; Function compile flags: /Ogtpy
;	COMDAT _set_UBSEC_LIBNAME
_TEXT	SEGMENT
_name$ = 8						; size = 4
_set_UBSEC_LIBNAME PROC					; COMDAT
; File c:\workpace\openssl\openssl-1.0.2h\engines\e_ubsec.c
; Line 342
	mov	eax, DWORD PTR _UBSEC_LIBNAME
	test	eax, eax
	je	SHORT $LN4@set_UBSEC_
; Line 343
	push	eax
	call	_CRYPTO_free
	add	esp, 4
$LN4@set_UBSEC_:
; Line 350
	push	DWORD PTR _name$[esp-4]
; Line 344
	mov	DWORD PTR _UBSEC_LIBNAME, 0
; Line 350
	call	_BUF_strdup
	xor	ecx, ecx
	mov	DWORD PTR _UBSEC_LIBNAME, eax
	add	esp, 4
	test	eax, eax
	setne	cl
	mov	eax, ecx
; Line 351
	ret	0
_set_UBSEC_LIBNAME ENDP
_TEXT	ENDS
; Function compile flags: /Ogtpy
;	COMDAT _free_UBSEC_LIBNAME
_TEXT	SEGMENT
_free_UBSEC_LIBNAME PROC				; COMDAT
; File c:\workpace\openssl\openssl-1.0.2h\engines\e_ubsec.c
; Line 342
	mov	eax, DWORD PTR _UBSEC_LIBNAME
	test	eax, eax
	je	SHORT $LN4@free_UBSEC
; Line 343
	push	eax
	call	_CRYPTO_free
	add	esp, 4
$LN4@free_UBSEC:
; Line 344
	mov	DWORD PTR _UBSEC_LIBNAME, 0
; Line 345
	ret	0
_free_UBSEC_LIBNAME ENDP
_TEXT	ENDS
; Function compile flags: /Ogtpy
;	COMDAT _get_UBSEC_LIBNAME
_TEXT	SEGMENT
_get_UBSEC_LIBNAME PROC					; COMDAT
; File c:\workpace\openssl\openssl-1.0.2h\engines\e_ubsec.c
; Line 335
	mov	ecx, DWORD PTR _UBSEC_LIBNAME
	mov	eax, OFFSET ??_C@_05IPGGNINO@ubsec?$AA@
	test	ecx, ecx
	cmovne	eax, ecx
; Line 338
	ret	0
_get_UBSEC_LIBNAME ENDP
_TEXT	ENDS
; Function compile flags: /Ogtpy
;	COMDAT _bind_helper
_TEXT	SEGMENT
_e$ = 8							; size = 4
_bind_helper PROC					; COMDAT
; File c:\workpace\openssl\openssl-1.0.2h\engines\e_ubsec.c
; Line 207
	push	esi
; Line 230
	push	DWORD PTR _engine_ubsec_id
	mov	esi, DWORD PTR _e$[esp+4]
	push	esi
	call	_ENGINE_set_id
	add	esp, 8
	test	eax, eax
	je	$LN3@bind_helpe
	push	DWORD PTR _engine_ubsec_name
	push	esi
	call	_ENGINE_set_name
	add	esp, 8
	test	eax, eax
	je	$LN3@bind_helpe
	push	OFFSET _ubsec_rsa
	push	esi
	call	_ENGINE_set_RSA
	add	esp, 8
	test	eax, eax
	je	$LN3@bind_helpe
	push	OFFSET _ubsec_dsa
	push	esi
	call	_ENGINE_set_DSA
	add	esp, 8
	test	eax, eax
	je	$LN3@bind_helpe
	push	OFFSET _ubsec_dh
	push	esi
	call	_ENGINE_set_DH
	add	esp, 8
	test	eax, eax
	je	$LN3@bind_helpe
	push	OFFSET _ubsec_destroy
	push	esi
	call	_ENGINE_set_destroy_function
	add	esp, 8
	test	eax, eax
	je	$LN3@bind_helpe
	push	OFFSET _ubsec_init
	push	esi
	call	_ENGINE_set_init_function
	add	esp, 8
	test	eax, eax
	je	$LN3@bind_helpe
	push	OFFSET _ubsec_finish
	push	esi
	call	_ENGINE_set_finish_function
	add	esp, 8
	test	eax, eax
	je	SHORT $LN3@bind_helpe
	push	OFFSET _ubsec_ctrl
	push	esi
	call	_ENGINE_set_ctrl_function
	add	esp, 8
	test	eax, eax
	je	SHORT $LN3@bind_helpe
	push	OFFSET _ubsec_cmd_defns
	push	esi
	call	_ENGINE_set_cmd_defns
	add	esp, 8
	test	eax, eax
	je	SHORT $LN3@bind_helpe
; Line 243
	call	_RSA_PKCS1_SSLeay
; Line 244
	mov	ecx, DWORD PTR [eax+4]
	mov	DWORD PTR _ubsec_rsa+4, ecx
; Line 245
	mov	ecx, DWORD PTR [eax+8]
	mov	DWORD PTR _ubsec_rsa+8, ecx
; Line 246
	mov	ecx, DWORD PTR [eax+12]
	mov	DWORD PTR _ubsec_rsa+12, ecx
; Line 247
	mov	eax, DWORD PTR [eax+16]
	mov	DWORD PTR _ubsec_rsa+16, eax
; Line 253
	call	_DH_OpenSSL
; Line 254
	mov	ecx, DWORD PTR [eax+4]
	mov	DWORD PTR _ubsec_dh+4, ecx
; Line 255
	mov	eax, DWORD PTR [eax+8]
	mov	DWORD PTR _ubsec_dh+8, eax
; Line 260
	call	_ERR_load_UBSEC_strings
; Line 261
	mov	eax, 1
	pop	esi
; Line 262
	ret	0
$LN3@bind_helpe:
; Line 232
	xor	eax, eax
	pop	esi
; Line 262
	ret	0
_bind_helper ENDP
_TEXT	ENDS
; Function compile flags: /Ogtpy
;	COMDAT _ubsec_dh_generate_key
_TEXT	SEGMENT
_pub_key_len$ = -12					; size = 4
_priv_key_len$ = -8					; size = 4
_random_bits$1$ = -4					; size = 4
_dh$ = 8						; size = 4
_ubsec_dh_generate_key PROC				; COMDAT
; File c:\workpace\openssl\openssl-1.0.2h\engines\e_ubsec.c
; Line 942
	mov	eax, 12					; 0000000cH
	call	__chkstk
	push	esi
	push	edi
; Line 952
	mov	edi, DWORD PTR _dh$[esp+16]
	mov	DWORD PTR _random_bits$1$[esp+20], 0
	mov	DWORD PTR _pub_key_len$[esp+20], 0
	mov	DWORD PTR _priv_key_len$[esp+20], 0
	mov	esi, DWORD PTR [edi+24]
	test	esi, esi
	jne	SHORT $LN5@ubsec_dh_g
; Line 953
	call	_BN_new
	mov	esi, eax
; Line 954
	test	esi, esi
	je	$LN32@ubsec_dh_g
; Line 956
	push	DWORD PTR [edi+8]
	call	_BN_num_bits
	mov	DWORD PTR _priv_key_len$[esp+24], eax
	add	esp, 4
; Line 957
	mov	eax, DWORD PTR [edi+8]
	mov	eax, DWORD PTR [eax+4]
	cmp	eax, DWORD PTR [esi+8]
	jg	SHORT $LN17@ubsec_dh_g
	mov	eax, esi
	jmp	SHORT $LN18@ubsec_dh_g
$LN17@ubsec_dh_g:
	push	eax
	push	esi
	call	_bn_expand2
	add	esp, 8
$LN18@ubsec_dh_g:
	test	eax, eax
	je	SHORT $LN32@ubsec_dh_g
	npad	6
$LL4@ubsec_dh_g:
; Line 960
	push	DWORD PTR [edi+8]
	push	esi
	call	_BN_rand_range
	add	esp, 8
	test	eax, eax
	je	SHORT $LN32@ubsec_dh_g
; Line 962
	cmp	DWORD PTR [esi+4], 0
	je	SHORT $LL4@ubsec_dh_g
; Line 963
	push	esi
	call	_BN_num_bits
	add	esp, 4
	mov	DWORD PTR _random_bits$1$[esp+20], eax
$LN5@ubsec_dh_g:
; Line 968
	push	ebx
	mov	ebx, DWORD PTR [edi+20]
	test	ebx, ebx
	jne	SHORT $LN10@ubsec_dh_g
; Line 969
	call	_BN_new
	mov	ebx, eax
; Line 970
	test	ebx, ebx
	je	SHORT $LN34@ubsec_dh_g
; Line 972
	push	DWORD PTR [edi+8]
	call	_BN_num_bits
	mov	DWORD PTR _pub_key_len$[esp+28], eax
	add	esp, 4
; Line 973
	mov	eax, DWORD PTR [edi+8]
	mov	eax, DWORD PTR [eax+4]
	cmp	eax, DWORD PTR [ebx+8]
	jg	SHORT $LN19@ubsec_dh_g
	mov	eax, ebx
	jmp	SHORT $LN20@ubsec_dh_g
$LN32@ubsec_dh_g:
	pop	edi
; Line 1018
	xor	eax, eax
	pop	esi
; Line 1019
	add	esp, 12					; 0000000cH
	ret	0
$LN19@ubsec_dh_g:
; Line 973
	push	eax
	push	ebx
	call	_bn_expand2
	add	esp, 8
$LN20@ubsec_dh_g:
	test	eax, eax
	jne	SHORT $LN10@ubsec_dh_g
$LN34@ubsec_dh_g:
	pop	ebx
	pop	edi
; Line 1018
	xor	eax, eax
	pop	esi
; Line 1019
	add	esp, 12					; 0000000cH
	ret	0
$LN10@ubsec_dh_g:
	push	ebp
; Line 979
	push	OFFSET ??_C@_0M@IDHLONIG@?1dev?1ubskey?$AA@
	call	DWORD PTR _p_UBSEC_ubsec_open
	mov	ebp, eax
	add	esp, 4
	test	ebp, ebp
	jg	SHORT $LN14@ubsec_dh_g
; File c:\workpace\openssl\openssl-1.0.2h\engines\e_ubsec_err.c
; Line 151
	mov	eax, DWORD PTR _UBSEC_lib_error_code
	test	eax, eax
	jne	SHORT $LN22@ubsec_dh_g
; Line 152
	call	_ERR_get_next_error_library
	mov	DWORD PTR _UBSEC_lib_error_code, eax
$LN22@ubsec_dh_g:
; Line 153
	push	981					; 000003d5H
	push	OFFSET ??_C@_0BE@BCALDJJD@?4?2engines?2e_ubsec?4c?$AA@
	push	108					; 0000006cH
	push	111					; 0000006fH
	push	eax
	call	_ERR_put_error
; File c:\workpace\openssl\openssl-1.0.2h\engines\e_ubsec.c
; Line 982
	call	_DH_OpenSSL
; Line 983
	push	edi
	mov	eax, DWORD PTR [eax+4]
	call	eax
	add	esp, 24					; 00000018H
	pop	ebp
	pop	ebx
	pop	edi
	pop	esi
; Line 1019
	add	esp, 12					; 0000000cH
	ret	0
$LN14@ubsec_dh_g:
; Line 996
	push	DWORD PTR _random_bits$1$[esp+28]
	push	0
	push	0
	push	DWORD PTR [edi+8]
	call	_BN_num_bits
	add	esp, 4
	push	eax
	mov	eax, DWORD PTR [edi+8]
	push	DWORD PTR [eax]
	push	DWORD PTR [edi+12]
	call	_BN_num_bits
	add	esp, 4
	push	eax
	mov	eax, DWORD PTR [edi+12]
	push	DWORD PTR [eax]
	lea	eax, DWORD PTR _pub_key_len$[esp+56]
	push	eax
	push	DWORD PTR [ebx]
	lea	eax, DWORD PTR _priv_key_len$[esp+64]
	push	eax
	push	DWORD PTR [esi]
	push	ebp
	call	DWORD PTR _p_UBSEC_diffie_hellman_generate_ioctl
	add	esp, 48					; 00000030H
	test	eax, eax
	je	SHORT $LN15@ubsec_dh_g
; File c:\workpace\openssl\openssl-1.0.2h\engines\e_ubsec_err.c
; Line 151
	mov	eax, DWORD PTR _UBSEC_lib_error_code
	test	eax, eax
	jne	SHORT $LN25@ubsec_dh_g
; Line 152
	call	_ERR_get_next_error_library
	mov	DWORD PTR _UBSEC_lib_error_code, eax
$LN25@ubsec_dh_g:
; Line 153
	push	1000					; 000003e8H
	push	OFFSET ??_C@_0BE@BCALDJJD@?4?2engines?2e_ubsec?4c?$AA@
	push	106					; 0000006aH
	push	111					; 0000006fH
	push	eax
	call	_ERR_put_error
; File c:\workpace\openssl\openssl-1.0.2h\engines\e_ubsec.c
; Line 1001
	push	ebp
	call	DWORD PTR _p_UBSEC_ubsec_close
; Line 1003
	call	_DH_OpenSSL
; Line 1004
	push	edi
	mov	eax, DWORD PTR [eax+4]
	call	eax
	add	esp, 28					; 0000001cH
	pop	ebp
	pop	ebx
	pop	edi
	pop	esi
; Line 1019
	add	esp, 12					; 0000000cH
	ret	0
$LN15@ubsec_dh_g:
; Line 1009
	push	ebp
	call	DWORD PTR _p_UBSEC_ubsec_close
; Line 1012
	mov	eax, DWORD PTR _pub_key_len$[esp+32]
	add	esp, 4
	add	eax, 31					; 0000001fH
	mov	DWORD PTR [edi+20], ebx
	cdq
	and	edx, 31					; 0000001fH
	add	eax, edx
	sar	eax, 5
	mov	DWORD PTR [ebx+4], eax
; Line 1014
	mov	eax, DWORD PTR _priv_key_len$[esp+28]
	add	eax, 31					; 0000001fH
	mov	DWORD PTR [edi+24], esi
	cdq
	and	edx, 31					; 0000001fH
	add	eax, edx
	sar	eax, 5
	pop	ebp
	mov	DWORD PTR [esi+4], eax
; Line 1018
	mov	eax, 1
	pop	ebx
$err$40:
	pop	edi
	pop	esi
; Line 1019
	add	esp, 12					; 0000000cH
	ret	0
_ubsec_dh_generate_key ENDP
_TEXT	ENDS
; Function compile flags: /Ogtpy
;	COMDAT _ubsec_dh_compute_key
_TEXT	SEGMENT
_key$ = 8						; size = 4
_pub_key$ = 12						; size = 4
_k_len$ = 16						; size = 4
_dh$ = 16						; size = 4
_ubsec_dh_compute_key PROC				; COMDAT
; File c:\workpace\openssl\openssl-1.0.2h\engines\e_ubsec.c
; Line 902
	push	esi
; Line 905
	mov	esi, DWORD PTR _dh$[esp]
	push	edi
	push	DWORD PTR [esi+8]
	call	_BN_num_bits
; Line 907
	push	OFFSET ??_C@_0M@IDHLONIG@?1dev?1ubskey?$AA@
	mov	DWORD PTR _k_len$[esp+12], eax
	call	DWORD PTR _p_UBSEC_ubsec_open
	mov	edi, eax
	add	esp, 8
	test	edi, edi
	jg	SHORT $LN2@ubsec_dh_c
; File c:\workpace\openssl\openssl-1.0.2h\engines\e_ubsec_err.c
; Line 151
	mov	eax, DWORD PTR _UBSEC_lib_error_code
	test	eax, eax
	jne	SHORT $LN6@ubsec_dh_c
; Line 152
	call	_ERR_get_next_error_library
	mov	DWORD PTR _UBSEC_lib_error_code, eax
$LN6@ubsec_dh_c:
; Line 153
	push	909					; 0000038dH
	push	OFFSET ??_C@_0BE@BCALDJJD@?4?2engines?2e_ubsec?4c?$AA@
	push	108					; 0000006cH
	push	101					; 00000065H
	push	eax
	call	_ERR_put_error
; File c:\workpace\openssl\openssl-1.0.2h\engines\e_ubsec.c
; Line 910
	call	_DH_OpenSSL
; Line 911
	push	esi
	push	DWORD PTR _pub_key$[esp+28]
	push	DWORD PTR _key$[esp+32]
	mov	eax, DWORD PTR [eax+8]
	call	eax
	add	esp, 32					; 00000020H
	pop	edi
	pop	esi
; Line 939
	ret	0
$LN2@ubsec_dh_c:
	push	ebx
; Line 922
	lea	eax, DWORD PTR _k_len$[esp+8]
	push	eax
	push	DWORD PTR _key$[esp+12]
	push	DWORD PTR [esi+8]
	call	_BN_num_bits
	mov	ebx, DWORD PTR _pub_key$[esp+20]
	add	esp, 4
	push	eax
	mov	eax, DWORD PTR [esi+8]
	push	DWORD PTR [eax]
	push	ebx
	call	_BN_num_bits
	add	esp, 4
	push	eax
	push	DWORD PTR [ebx]
	push	DWORD PTR [esi+24]
	call	_BN_num_bits
	add	esp, 4
	push	eax
	mov	eax, DWORD PTR [esi+24]
	push	DWORD PTR [eax]
	push	edi
	call	DWORD PTR _p_UBSEC_diffie_hellman_agree_ioctl
	add	esp, 36					; 00000024H
	test	eax, eax
	je	SHORT $LN3@ubsec_dh_c
; File c:\workpace\openssl\openssl-1.0.2h\engines\e_ubsec_err.c
; Line 151
	mov	eax, DWORD PTR _UBSEC_lib_error_code
	test	eax, eax
	jne	SHORT $LN9@ubsec_dh_c
; Line 152
	call	_ERR_get_next_error_library
	mov	DWORD PTR _UBSEC_lib_error_code, eax
$LN9@ubsec_dh_c:
; Line 153
	push	925					; 0000039dH
	push	OFFSET ??_C@_0BE@BCALDJJD@?4?2engines?2e_ubsec?4c?$AA@
	push	106					; 0000006aH
	push	101					; 00000065H
	push	eax
	call	_ERR_put_error
; File c:\workpace\openssl\openssl-1.0.2h\engines\e_ubsec.c
; Line 926
	push	edi
	call	DWORD PTR _p_UBSEC_ubsec_close
; Line 928
	call	_DH_OpenSSL
; Line 929
	push	esi
	push	ebx
	push	DWORD PTR _key$[esp+40]
	mov	eax, DWORD PTR [eax+8]
	call	eax
	add	esp, 36					; 00000024H
	pop	ebx
	pop	edi
	pop	esi
; Line 939
	ret	0
$LN3@ubsec_dh_c:
; Line 934
	push	edi
	call	DWORD PTR _p_UBSEC_ubsec_close
; Line 936
	push	DWORD PTR _k_len$[esp+12]
	call	DWORD PTR _p_UBSEC_ubsec_bits_to_bytes
	add	esp, 8
$err$13:
	pop	ebx
; Line 939
	pop	edi
	pop	esi
	ret	0
_ubsec_dh_compute_key ENDP
_TEXT	ENDS
; Function compile flags: /Ogtpy
;	COMDAT _ubsec_mod_exp_dh
_TEXT	SEGMENT
_dh$ = 8						; size = 4
_r$ = 12						; size = 4
_a$ = 16						; size = 4
_p$ = 20						; size = 4
_m$ = 24						; size = 4
_ctx$ = 28						; size = 4
_m_ctx$ = 32						; size = 4
_ubsec_mod_exp_dh PROC					; COMDAT
; File c:\workpace\openssl\openssl-1.0.2h\engines\e_ubsec.c
; Line 746
	push	DWORD PTR _ctx$[esp-4]
	push	DWORD PTR _m$[esp]
	push	DWORD PTR _p$[esp+4]
	push	DWORD PTR _a$[esp+8]
	push	DWORD PTR _r$[esp+12]
	call	_ubsec_mod_exp
	add	esp, 20					; 00000014H
; Line 747
	ret	0
_ubsec_mod_exp_dh ENDP
_TEXT	ENDS
; Function compile flags: /Ogtpy
;	COMDAT _ubsec_dsa_verify
_TEXT	SEGMENT
_v_len$ = -24						; size = 4
_v$ = -20						; size = 20
_dgst$ = 8						; size = 4
_dgst_len$ = 12						; size = 4
_sig$ = 16						; size = 4
_d_len$1$ = 20						; size = 4
_dsa$ = 20						; size = 4
_ubsec_dsa_verify PROC					; COMDAT
; File c:\workpace\openssl\openssl-1.0.2h\engines\e_ubsec.c
; Line 839
	mov	eax, 24					; 00000018H
	call	__chkstk
	push	esi
	push	edi
; Line 845
	lea	eax, DWORD PTR _v$[esp+32]
	xor	edi, edi
	push	eax
	call	_BN_init
; Line 847
	mov	esi, DWORD PTR _dsa$[esp+32]
	add	esp, 4
	mov	eax, DWORD PTR [esi+12]
	mov	eax, DWORD PTR [eax+4]
	cmp	eax, DWORD PTR _v$[esp+40]
	jle	SHORT $LN2@ubsec_dsa_
	push	eax
	lea	eax, DWORD PTR _v$[esp+36]
	push	eax
	call	_bn_expand2
	add	esp, 8
	test	eax, eax
	jne	SHORT $LN2@ubsec_dsa_
; File c:\workpace\openssl\openssl-1.0.2h\engines\e_ubsec_err.c
; Line 151
	mov	eax, DWORD PTR _UBSEC_lib_error_code
	test	eax, eax
	jne	SHORT $LN9@ubsec_dsa_
; Line 152
	call	_ERR_get_next_error_library
	mov	DWORD PTR _UBSEC_lib_error_code, eax
$LN9@ubsec_dsa_:
; Line 153
	push	848					; 00000350H
	push	OFFSET ??_C@_0BE@BCALDJJD@?4?2engines?2e_ubsec?4c?$AA@
	push	101					; 00000065H
	push	103					; 00000067H
	push	eax
	call	_ERR_put_error
	add	esp, 20					; 00000014H
; File c:\workpace\openssl\openssl-1.0.2h\engines\e_ubsec.c
; Line 894
	lea	eax, DWORD PTR _v$[esp+32]
	push	eax
	call	_BN_clear_free
	add	esp, 4
; Line 895
	mov	eax, edi
	pop	edi
	pop	esi
; Line 896
	add	esp, 24					; 00000018H
	ret	0
$LN2@ubsec_dsa_:
	push	ebx
	push	ebp
; Line 852
	push	DWORD PTR [esi+12]
	call	_BN_num_bits
; Line 854
	mov	ebp, DWORD PTR _dgst_len$[esp+40]
	mov	ebx, DWORD PTR _dgst$[esp+40]
	push	ebp
	push	ebx
	mov	DWORD PTR _v_len$[esp+52], eax
	call	DWORD PTR _p_UBSEC_ubsec_bytes_to_bits
; Line 856
	push	OFFSET ??_C@_0M@IDHLONIG@?1dev?1ubskey?$AA@
	mov	DWORD PTR _d_len$1$[esp+52], eax
	call	DWORD PTR _p_UBSEC_ubsec_open
	mov	edi, eax
	add	esp, 16					; 00000010H
	test	edi, edi
	jg	SHORT $LN3@ubsec_dsa_
; File c:\workpace\openssl\openssl-1.0.2h\engines\e_ubsec_err.c
; Line 151
	mov	eax, DWORD PTR _UBSEC_lib_error_code
	test	eax, eax
	jne	SHORT $LN12@ubsec_dsa_
; Line 152
	call	_ERR_get_next_error_library
	mov	DWORD PTR _UBSEC_lib_error_code, eax
$LN12@ubsec_dsa_:
; Line 153
	push	859					; 0000035bH
	push	OFFSET ??_C@_0BE@BCALDJJD@?4?2engines?2e_ubsec?4c?$AA@
	push	108					; 0000006cH
	push	103					; 00000067H
	push	eax
	call	_ERR_put_error
; File c:\workpace\openssl\openssl-1.0.2h\engines\e_ubsec.c
; Line 860
	call	_DSA_OpenSSL
; Line 861
	push	esi
	push	DWORD PTR _sig$[esp+60]
	mov	eax, DWORD PTR [eax+12]
	push	ebp
	push	ebx
	call	eax
	add	esp, 36					; 00000024H
	mov	edi, eax
; Line 862
	jmp	$LN17@ubsec_dsa_
$LN3@ubsec_dsa_:
; Line 879
	mov	ecx, DWORD PTR _sig$[esp+36]
	lea	eax, DWORD PTR _v_len$[esp+40]
	push	eax
	push	DWORD PTR _v$[esp+44]
	push	DWORD PTR [ecx+4]
	call	_BN_num_bits
	mov	ecx, DWORD PTR _sig$[esp+48]
	add	esp, 4
	push	eax
	mov	eax, DWORD PTR [ecx+4]
	push	DWORD PTR [eax]
	push	DWORD PTR [ecx]
	call	_BN_num_bits
	add	esp, 4
	push	eax
	mov	eax, DWORD PTR _sig$[esp+56]
	mov	eax, DWORD PTR [eax]
	push	DWORD PTR [eax]
	push	DWORD PTR [esi+24]
	call	_BN_num_bits
	add	esp, 4
	push	eax
	mov	eax, DWORD PTR [esi+24]
	push	DWORD PTR [eax]
	push	DWORD PTR [esi+20]
	call	_BN_num_bits
	add	esp, 4
	push	eax
	mov	eax, DWORD PTR [esi+20]
	push	DWORD PTR [eax]
	push	DWORD PTR [esi+16]
	call	_BN_num_bits
	add	esp, 4
	push	eax
	mov	eax, DWORD PTR [esi+16]
	push	DWORD PTR [eax]
	push	DWORD PTR [esi+12]
	call	_BN_num_bits
	add	esp, 4
	push	eax
	mov	eax, DWORD PTR [esi+12]
	push	DWORD PTR [eax]
	push	DWORD PTR _d_len$1$[esp+92]
	push	ebx
	push	0
	push	edi
	call	DWORD PTR _p_UBSEC_dsa_verify_ioctl
	add	esp, 72					; 00000048H
	test	eax, eax
	je	SHORT $LN4@ubsec_dsa_
; File c:\workpace\openssl\openssl-1.0.2h\engines\e_ubsec_err.c
; Line 151
	mov	eax, DWORD PTR _UBSEC_lib_error_code
	test	eax, eax
	jne	SHORT $LN15@ubsec_dsa_
; Line 152
	call	_ERR_get_next_error_library
	mov	DWORD PTR _UBSEC_lib_error_code, eax
$LN15@ubsec_dsa_:
; Line 153
	push	881					; 00000371H
	push	OFFSET ??_C@_0BE@BCALDJJD@?4?2engines?2e_ubsec?4c?$AA@
	push	106					; 0000006aH
	push	103					; 00000067H
	push	eax
	call	_ERR_put_error
; File c:\workpace\openssl\openssl-1.0.2h\engines\e_ubsec.c
; Line 882
	push	edi
	call	DWORD PTR _p_UBSEC_ubsec_close
; Line 884
	call	_DSA_OpenSSL
; Line 885
	mov	ecx, DWORD PTR _sig$[esp+60]
	push	esi
	push	ecx
	mov	eax, DWORD PTR [eax+12]
	push	ebp
	push	ebx
	call	eax
	add	esp, 40					; 00000028H
	mov	edi, eax
; Line 887
	jmp	SHORT $LN17@ubsec_dsa_
$LN4@ubsec_dsa_:
; Line 890
	push	edi
	call	DWORD PTR _p_UBSEC_ubsec_close
	add	esp, 4
; Line 892
	mov	edi, 1
$LN17@ubsec_dsa_:
	pop	ebp
	pop	ebx
$err$20:
; Line 894
	lea	eax, DWORD PTR _v$[esp+32]
	push	eax
	call	_BN_clear_free
	add	esp, 4
; Line 895
	mov	eax, edi
	pop	edi
	pop	esi
; Line 896
	add	esp, 24					; 00000018H
	ret	0
_ubsec_dsa_verify ENDP
_TEXT	ENDS
; Function compile flags: /Ogtpy
;	COMDAT _ubsec_dsa_do_sign
_TEXT	SEGMENT
_s_len$ = -32						; size = 4
_r_len$ = -28						; size = 4
_d_len$1$ = -24						; size = 4
_m$ = -20						; size = 20
_dgst$ = 8						; size = 4
_dlen$ = 12						; size = 4
_dsa$ = 16						; size = 4
_ubsec_dsa_do_sign PROC					; COMDAT
; File c:\workpace\openssl\openssl-1.0.2h\engines\e_ubsec.c
; Line 753
	mov	eax, 32					; 00000020H
	call	__chkstk
	push	ebx
	push	ebp
	push	esi
; Line 758
	lea	eax, DWORD PTR _m$[esp+44]
	mov	DWORD PTR _s_len$[esp+44], 160		; 000000a0H
	push	edi
	push	eax
	xor	ebx, ebx
	mov	DWORD PTR _r_len$[esp+52], 160		; 000000a0H
	call	_BN_init
	add	esp, 4
; Line 760
	call	_BN_new
	mov	edi, eax
; Line 761
	call	_BN_new
	mov	esi, eax
; Line 762
	test	edi, edi
	je	$LN21@ubsec_dsa_
	test	esi, esi
	je	$LN11@ubsec_dsa_
; Line 765
	push	DWORD PTR _dlen$[esp+44]
	mov	ebp, DWORD PTR _dgst$[esp+48]
	push	ebp
	call	DWORD PTR _p_UBSEC_ubsec_bytes_to_bits
	add	esp, 8
	mov	DWORD PTR _d_len$1$[esp+48], eax
; Line 767
	cmp	DWORD PTR [esi+8], 5
	jl	SHORT $LN14@ubsec_dsa_
	mov	eax, esi
	jmp	SHORT $LN15@ubsec_dsa_
$LN14@ubsec_dsa_:
	push	5
	push	esi
	call	_bn_expand2
	add	esp, 8
$LN15@ubsec_dsa_:
	test	eax, eax
	je	$LN5@ubsec_dsa_
	cmp	DWORD PTR [edi+8], 5
	jl	SHORT $LN16@ubsec_dsa_
	mov	eax, edi
	jmp	SHORT $LN17@ubsec_dsa_
$LN16@ubsec_dsa_:
	push	5
	push	edi
	call	_bn_expand2
	add	esp, 8
$LN17@ubsec_dsa_:
	test	eax, eax
	je	$LN5@ubsec_dsa_
; Line 773
	lea	eax, DWORD PTR _m$[esp+48]
	push	eax
	push	DWORD PTR _dlen$[esp+48]
	push	ebp
	call	_BN_bin2bn
	add	esp, 12					; 0000000cH
	test	eax, eax
	jne	SHORT $LN6@ubsec_dsa_
; Line 774
	push	774					; 00000306H
$LN22@ubsec_dsa_:
	push	OFFSET ??_C@_0BE@BCALDJJD@?4?2engines?2e_ubsec?4c?$AA@
	push	101					; 00000065H
	push	102					; 00000066H
	call	_ERR_UBSEC_error
	add	esp, 16					; 00000010H
; Line 775
	jmp	$LN21@ubsec_dsa_
$LN6@ubsec_dsa_:
; Line 778
	push	OFFSET ??_C@_0M@IDHLONIG@?1dev?1ubskey?$AA@
	call	DWORD PTR _p_UBSEC_ubsec_open
	mov	ebx, eax
	add	esp, 4
	test	ebx, ebx
	jg	SHORT $LN7@ubsec_dsa_
; Line 781
	push	781					; 0000030dH
	push	OFFSET ??_C@_0BE@BCALDJJD@?4?2engines?2e_ubsec?4c?$AA@
	push	108					; 0000006cH
	push	102					; 00000066H
	call	_ERR_UBSEC_error
; Line 782
	call	_DSA_OpenSSL
; Line 783
	push	DWORD PTR _dsa$[esp+60]
	mov	ecx, DWORD PTR _dlen$[esp+64]
	push	ecx
	mov	eax, DWORD PTR [eax+4]
	push	ebp
	call	eax
	add	esp, 28					; 0000001cH
	mov	ebx, eax
; Line 784
	jmp	$err$24
$LN7@ubsec_dsa_:
; Line 801
	mov	ecx, DWORD PTR _dsa$[esp+44]
	lea	eax, DWORD PTR _s_len$[esp+48]
	push	eax
	push	DWORD PTR [edi]
	lea	eax, DWORD PTR _r_len$[esp+56]
	push	eax
	push	DWORD PTR [esi]
	push	DWORD PTR [ecx+28]
	call	_BN_num_bits
	mov	ecx, DWORD PTR _dsa$[esp+64]
	add	esp, 4
	push	eax
	mov	eax, DWORD PTR [ecx+28]
	push	DWORD PTR [eax]
	push	DWORD PTR [ecx+20]
	call	_BN_num_bits
	mov	ecx, DWORD PTR _dsa$[esp+72]
	add	esp, 4
	push	eax
	mov	eax, DWORD PTR [ecx+20]
	push	DWORD PTR [eax]
	push	DWORD PTR [ecx+16]
	call	_BN_num_bits
	mov	ecx, DWORD PTR _dsa$[esp+80]
	add	esp, 4
	push	eax
	mov	eax, DWORD PTR [ecx+16]
	push	DWORD PTR [eax]
	push	DWORD PTR [ecx+12]
	call	_BN_num_bits
	add	esp, 4
	push	eax
	mov	eax, DWORD PTR _dsa$[esp+88]
	mov	eax, DWORD PTR [eax+12]
	push	DWORD PTR [eax]
	push	0
	push	0
	push	DWORD PTR _d_len$1$[esp+104]
	push	ebp
	push	0
	push	ebx
	call	DWORD PTR _p_UBSEC_dsa_sign_ioctl
	add	esp, 72					; 00000048H
	test	eax, eax
	je	SHORT $LN8@ubsec_dsa_
; Line 804
	push	804					; 00000324H
	push	OFFSET ??_C@_0BE@BCALDJJD@?4?2engines?2e_ubsec?4c?$AA@
	push	106					; 0000006aH
	push	102					; 00000066H
	call	_ERR_UBSEC_error
; Line 805
	push	ebx
	call	DWORD PTR _p_UBSEC_ubsec_close
; Line 806
	call	_DSA_OpenSSL
; Line 807
	mov	ecx, DWORD PTR _dsa$[esp+64]
	push	ecx
	mov	ecx, DWORD PTR _dlen$[esp+68]
	mov	eax, DWORD PTR [eax+4]
	push	ecx
	push	ebp
	call	eax
	add	esp, 32					; 00000020H
	mov	ebx, eax
; Line 809
	jmp	SHORT $err$24
$LN8@ubsec_dsa_:
; Line 812
	push	ebx
	call	DWORD PTR _p_UBSEC_ubsec_close
	add	esp, 4
; Line 814
	mov	DWORD PTR [esi+4], 5
; Line 815
	mov	DWORD PTR [edi+4], 5
; Line 817
	call	_DSA_SIG_new
	mov	ebx, eax
; Line 818
	test	ebx, ebx
	jne	SHORT $LN9@ubsec_dsa_
; Line 819
	push	819					; 00000333H
; Line 820
	jmp	$LN22@ubsec_dsa_
$LN9@ubsec_dsa_:
; Line 823
	mov	DWORD PTR [ebx], esi
; Line 824
	mov	DWORD PTR [ebx+4], edi
$err$24:
; Line 827
	test	ebx, ebx
	jne	SHORT $LN12@ubsec_dsa_
	jmp	SHORT $LN21@ubsec_dsa_
$LN5@ubsec_dsa_:
; File c:\workpace\openssl\openssl-1.0.2h\engines\e_ubsec_err.c
; Line 151
	mov	eax, DWORD PTR _UBSEC_lib_error_code
	test	eax, eax
	jne	SHORT $LN19@ubsec_dsa_
; Line 152
	call	_ERR_get_next_error_library
	mov	DWORD PTR _UBSEC_lib_error_code, eax
$LN19@ubsec_dsa_:
; Line 153
	push	769					; 00000301H
	push	OFFSET ??_C@_0BE@BCALDJJD@?4?2engines?2e_ubsec?4c?$AA@
	push	101					; 00000065H
	push	102					; 00000066H
	push	eax
	call	_ERR_put_error
	add	esp, 20					; 00000014H
$LN21@ubsec_dsa_:
; File c:\workpace\openssl\openssl-1.0.2h\engines\e_ubsec.c
; Line 828
	test	esi, esi
	je	SHORT $LN11@ubsec_dsa_
; Line 829
	push	esi
	call	_BN_free
	add	esp, 4
$LN11@ubsec_dsa_:
; Line 830
	test	edi, edi
	je	SHORT $LN12@ubsec_dsa_
; Line 831
	push	edi
	call	_BN_free
	add	esp, 4
$LN12@ubsec_dsa_:
; Line 833
	lea	eax, DWORD PTR _m$[esp+48]
	push	eax
	call	_BN_clear_free
	add	esp, 4
; Line 834
	mov	eax, ebx
	pop	edi
	pop	esi
	pop	ebp
	pop	ebx
; Line 835
	add	esp, 32					; 00000020H
	ret	0
_ubsec_dsa_do_sign ENDP
_TEXT	ENDS
; Function compile flags: /Ogtpy
;	COMDAT _ubsec_mod_exp_mont
_TEXT	SEGMENT
_r$ = 8							; size = 4
_a$ = 12						; size = 4
_p$ = 16						; size = 4
_m$ = 20						; size = 4
_ctx$ = 24						; size = 4
_m_ctx$ = 28						; size = 4
_ubsec_mod_exp_mont PROC				; COMDAT
; File c:\workpace\openssl\openssl-1.0.2h\engines\e_ubsec.c
; Line 725
	push	esi
; Line 729
	mov	esi, DWORD PTR _m$[esp]
	push	esi
	call	_BN_num_bits
	add	esp, 4
	cmp	eax, DWORD PTR _max_key_len
	jle	SHORT $LN2@ubsec_mod_
; Line 730
	call	_RSA_PKCS1_SSLeay
; Line 731
	push	DWORD PTR _m_ctx$[esp]
	push	DWORD PTR _ctx$[esp+4]
	mov	eax, DWORD PTR [eax+24]
	push	esi
	push	DWORD PTR _p$[esp+12]
	push	DWORD PTR _a$[esp+16]
	push	DWORD PTR _r$[esp+20]
	call	eax
	add	esp, 24					; 00000018H
	pop	esi
; Line 737
	ret	0
$LN2@ubsec_mod_:
; Line 733
	push	DWORD PTR _ctx$[esp]
	push	esi
	push	DWORD PTR _p$[esp+8]
	push	DWORD PTR _a$[esp+12]
	push	DWORD PTR _r$[esp+16]
	call	_ubsec_mod_exp
	add	esp, 20					; 00000014H
	pop	esi
; Line 737
	ret	0
_ubsec_mod_exp_mont ENDP
_TEXT	ENDS
; Function compile flags: /Ogtpy
;	COMDAT _ubsec_rsa_mod_exp
_TEXT	SEGMENT
_r0$ = 8						; size = 4
_I$ = 12						; size = 4
_rsa$ = 16						; size = 4
_ctx$ = 20						; size = 4
_ubsec_rsa_mod_exp PROC					; COMDAT
; File c:\workpace\openssl\openssl-1.0.2h\engines\e_ubsec.c
; Line 614
	push	ebx
	push	esi
; Line 617
	mov	esi, DWORD PTR _rsa$[esp+4]
	push	edi
	mov	eax, DWORD PTR [esi+28]
	test	eax, eax
	je	SHORT $LN3@ubsec_rsa_
	mov	ecx, DWORD PTR [esi+32]
	test	ecx, ecx
	je	SHORT $LN3@ubsec_rsa_
	mov	edx, DWORD PTR [esi+36]
	test	edx, edx
	je	SHORT $LN3@ubsec_rsa_
	mov	edi, DWORD PTR [esi+40]
	test	edi, edi
	je	SHORT $LN3@ubsec_rsa_
	mov	ebx, DWORD PTR [esi+44]
	test	ebx, ebx
	je	SHORT $LN3@ubsec_rsa_
; Line 622
	push	DWORD PTR _ctx$[esp+8]
	push	ebx
	mov	ebx, DWORD PTR _r0$[esp+16]
	push	edi
	mov	edi, DWORD PTR _I$[esp+20]
	push	edx
	push	ecx
	push	eax
	push	edi
	push	ebx
	call	_ubsec_mod_exp_crt
	add	esp, 32					; 00000020H
; Line 624
	cmp	eax, -15				; fffffff1H
	jne	SHORT $err$11
; Line 628
	call	_RSA_PKCS1_SSLeay
; Line 629
	push	DWORD PTR _ctx$[esp+8]
	push	esi
	mov	eax, DWORD PTR [eax+20]
	push	edi
	push	ebx
	call	eax
	add	esp, 16					; 00000010H
	pop	edi
	pop	esi
	pop	ebx
; Line 633
	ret	0
$LN3@ubsec_rsa_:
; File c:\workpace\openssl\openssl-1.0.2h\engines\e_ubsec_err.c
; Line 151
	mov	eax, DWORD PTR _UBSEC_lib_error_code
	test	eax, eax
	jne	SHORT $LN7@ubsec_rsa_
; Line 152
	call	_ERR_get_next_error_library
	mov	DWORD PTR _UBSEC_lib_error_code, eax
$LN7@ubsec_rsa_:
; Line 153
	push	618					; 0000026aH
	push	OFFSET ??_C@_0BE@BCALDJJD@?4?2engines?2e_ubsec?4c?$AA@
	push	104					; 00000068H
	push	108					; 0000006cH
	push	eax
	call	_ERR_put_error
	add	esp, 20					; 00000014H
; File c:\workpace\openssl\openssl-1.0.2h\engines\e_ubsec.c
; Line 632
	xor	eax, eax
$err$11:
; Line 633
	pop	edi
	pop	esi
	pop	ebx
	ret	0
_ubsec_rsa_mod_exp ENDP
_TEXT	ENDS
; Function compile flags: /Ogtpy
;	COMDAT _ubsec_mod_exp_crt
_TEXT	SEGMENT
_y_len$ = -4						; size = 4
_r$ = 8							; size = 4
_a$ = 12						; size = 4
_p$ = 16						; size = 4
_q$ = 20						; size = 4
_dp$ = 24						; size = 4
_dq$ = 28						; size = 4
_qinv$ = 32						; size = 4
_ctx$ = 36						; size = 4
_ubsec_mod_exp_crt PROC					; COMDAT
; File c:\workpace\openssl\openssl-1.0.2h\engines\e_ubsec.c
; Line 639
	mov	eax, 4
	call	__chkstk
	push	ebp
; Line 642
	mov	ebp, DWORD PTR _p$[esp+4]
	push	esi
	push	ebp
	call	_BN_num_bits
	push	DWORD PTR _q$[esp+12]
	mov	esi, eax
	call	_BN_num_bits
	add	esi, eax
	add	esp, 8
	mov	DWORD PTR _y_len$[esp+12], esi
; Line 645
	cmp	esi, DWORD PTR _max_key_len
	jle	SHORT $LN2@ubsec_mod_
; File c:\workpace\openssl\openssl-1.0.2h\engines\e_ubsec_err.c
; Line 151
	mov	eax, DWORD PTR _UBSEC_lib_error_code
	test	eax, eax
	jne	SHORT $LN10@ubsec_mod_
; Line 152
	call	_ERR_get_next_error_library
	mov	DWORD PTR _UBSEC_lib_error_code, eax
$LN10@ubsec_mod_:
; Line 153
	push	647					; 00000287H
	push	OFFSET ??_C@_0BE@BCALDJJD@?4?2engines?2e_ubsec?4c?$AA@
	push	107					; 0000006bH
	push	110					; 0000006eH
	push	eax
	call	_ERR_put_error
	add	esp, 20					; 00000014H
; File c:\workpace\openssl\openssl-1.0.2h\engines\e_ubsec.c
; Line 648
	mov	eax, -15				; fffffff1H
	pop	esi
	pop	ebp
; Line 680
	pop	ecx
	ret	0
$LN2@ubsec_mod_:
; Line 651
	mov	esi, DWORD PTR _q$[esp+8]
	push	edi
	mov	edi, DWORD PTR _r$[esp+12]
	mov	eax, DWORD PTR [esi+4]
	inc	eax
	add	eax, DWORD PTR [ebp+4]
	cmp	eax, DWORD PTR [edi+8]
	jg	SHORT $LN7@ubsec_mod_
	mov	eax, edi
	jmp	SHORT $LN8@ubsec_mod_
$LN7@ubsec_mod_:
	push	eax
	push	edi
	call	_bn_expand2
	add	esp, 8
$LN8@ubsec_mod_:
	test	eax, eax
	jne	SHORT $LN3@ubsec_mod_
; File c:\workpace\openssl\openssl-1.0.2h\engines\e_ubsec_err.c
; Line 151
	mov	eax, DWORD PTR _UBSEC_lib_error_code
	test	eax, eax
	jne	SHORT $LN13@ubsec_mod_
; Line 152
	call	_ERR_get_next_error_library
	mov	DWORD PTR _UBSEC_lib_error_code, eax
$LN13@ubsec_mod_:
; Line 153
	push	652					; 0000028cH
	push	OFFSET ??_C@_0BE@BCALDJJD@?4?2engines?2e_ubsec?4c?$AA@
	push	101					; 00000065H
	push	110					; 0000006eH
	push	eax
	call	_ERR_put_error
	add	esp, 20					; 00000014H
; File c:\workpace\openssl\openssl-1.0.2h\engines\e_ubsec.c
; Line 653
	xor	eax, eax
	pop	edi
	pop	esi
	pop	ebp
; Line 680
	pop	ecx
	ret	0
$LN3@ubsec_mod_:
	push	ebx
; Line 656
	push	OFFSET ??_C@_0M@IDHLONIG@?1dev?1ubskey?$AA@
	call	DWORD PTR _p_UBSEC_ubsec_open
	mov	ebx, eax
	add	esp, 4
	test	ebx, ebx
	jg	SHORT $LN4@ubsec_mod_
; File c:\workpace\openssl\openssl-1.0.2h\engines\e_ubsec_err.c
; Line 151
	mov	eax, DWORD PTR _UBSEC_lib_error_code
	test	eax, eax
	jne	SHORT $LN16@ubsec_mod_
; Line 152
	call	_ERR_get_next_error_library
	mov	DWORD PTR _UBSEC_lib_error_code, eax
$LN16@ubsec_mod_:
; Line 153
	push	658					; 00000292H
	push	OFFSET ??_C@_0BE@BCALDJJD@?4?2engines?2e_ubsec?4c?$AA@
	push	108					; 0000006cH
	push	110					; 0000006eH
	push	eax
	call	_ERR_put_error
	add	esp, 20					; 00000014H
; File c:\workpace\openssl\openssl-1.0.2h\engines\e_ubsec.c
; Line 659
	mov	eax, -15				; fffffff1H
	pop	ebx
	pop	edi
	pop	esi
	pop	ebp
; Line 680
	pop	ecx
	ret	0
$LN4@ubsec_mod_:
; Line 670
	lea	eax, DWORD PTR _y_len$[esp+20]
	push	eax
	push	DWORD PTR [edi]
	push	esi
	call	_BN_num_bits
	add	esp, 4
	push	eax
	push	DWORD PTR [esi]
	mov	esi, DWORD PTR _dq$[esp+32]
	push	esi
	call	_BN_num_bits
	add	esp, 4
	push	eax
	push	DWORD PTR [esi]
	push	ebp
	call	_BN_num_bits
	mov	esi, DWORD PTR _dp$[esp+44]
	add	esp, 4
	push	eax
	push	DWORD PTR [ebp]
	push	esi
	call	_BN_num_bits
	add	esp, 4
	push	eax
	push	DWORD PTR [esi]
	mov	esi, DWORD PTR _qinv$[esp+56]
	push	esi
	call	_BN_num_bits
	add	esp, 4
	push	eax
	push	DWORD PTR [esi]
	mov	esi, DWORD PTR _a$[esp+64]
	push	esi
	call	_BN_num_bits
	add	esp, 4
	push	eax
	push	DWORD PTR [esi]
	push	ebx
	call	DWORD PTR _p_UBSEC_rsa_mod_exp_crt_ioctl
	add	esp, 60					; 0000003cH
	test	eax, eax
	je	SHORT $LN5@ubsec_mod_
; File c:\workpace\openssl\openssl-1.0.2h\engines\e_ubsec_err.c
; Line 151
	mov	eax, DWORD PTR _UBSEC_lib_error_code
	test	eax, eax
	jne	SHORT $LN19@ubsec_mod_
; Line 152
	call	_ERR_get_next_error_library
	mov	DWORD PTR _UBSEC_lib_error_code, eax
$LN19@ubsec_mod_:
; Line 153
	push	671					; 0000029fH
	push	OFFSET ??_C@_0BE@BCALDJJD@?4?2engines?2e_ubsec?4c?$AA@
	push	106					; 0000006aH
	push	110					; 0000006eH
	push	eax
	call	_ERR_put_error
; File c:\workpace\openssl\openssl-1.0.2h\engines\e_ubsec.c
; Line 672
	push	ebx
	call	DWORD PTR _p_UBSEC_ubsec_close
	add	esp, 24					; 00000018H
; Line 673
	mov	eax, -15				; fffffff1H
	pop	ebx
	pop	edi
	pop	esi
	pop	ebp
; Line 680
	pop	ecx
	ret	0
$LN5@ubsec_mod_:
; Line 676
	push	ebx
	call	DWORD PTR _p_UBSEC_ubsec_close
; Line 678
	push	ebp
	call	_BN_num_bits
	push	DWORD PTR _q$[esp+24]
	mov	esi, eax
	call	_BN_num_bits
	add	eax, 31					; 0000001fH
	add	esp, 12					; 0000000cH
	add	eax, esi
	cdq
	and	edx, 31					; 0000001fH
	add	eax, edx
	sar	eax, 5
	pop	ebx
	mov	DWORD PTR [edi+4], eax
; Line 679
	mov	eax, 1
	pop	edi
	pop	esi
	pop	ebp
; Line 680
	pop	ecx
	ret	0
_ubsec_mod_exp_crt ENDP
_TEXT	ENDS
; Function compile flags: /Ogtpy
;	COMDAT _ubsec_mod_exp
_TEXT	SEGMENT
_y_len$ = -4						; size = 4
_r$ = 8							; size = 4
_a$ = 12						; size = 4
_p$ = 16						; size = 4
_m$ = 20						; size = 4
_ctx$ = 24						; size = 4
_ubsec_mod_exp PROC					; COMDAT
; File c:\workpace\openssl\openssl-1.0.2h\engines\e_ubsec.c
; Line 568
	mov	eax, 4
	call	__chkstk
; Line 572
	cmp	DWORD PTR _ubsec_dso, 0
	mov	DWORD PTR _y_len$[esp+4], 0
	jne	SHORT $LN2@ubsec_mod_
; File c:\workpace\openssl\openssl-1.0.2h\engines\e_ubsec_err.c
; Line 151
	mov	eax, DWORD PTR _UBSEC_lib_error_code
	test	eax, eax
	jne	SHORT $LN11@ubsec_mod_
; Line 152
	call	_ERR_get_next_error_library
	mov	DWORD PTR _UBSEC_lib_error_code, eax
$LN11@ubsec_mod_:
; Line 153
	push	573					; 0000023dH
	push	OFFSET ??_C@_0BE@BCALDJJD@?4?2engines?2e_ubsec?4c?$AA@
	push	105					; 00000069H
	push	106					; 0000006aH
	push	eax
	call	_ERR_put_error
	add	esp, 20					; 00000014H
; File c:\workpace\openssl\openssl-1.0.2h\engines\e_ubsec.c
; Line 574
	xor	eax, eax
; Line 609
	pop	ecx
	ret	0
$LN2@ubsec_mod_:
	push	edi
; Line 578
	mov	edi, DWORD PTR _m$[esp+4]
	push	edi
	call	_BN_num_bits
	add	esp, 4
	mov	DWORD PTR _y_len$[esp+8], eax
; Line 579
	cmp	eax, DWORD PTR _max_key_len
	jle	SHORT $LN3@ubsec_mod_
; File c:\workpace\openssl\openssl-1.0.2h\engines\e_ubsec_err.c
; Line 151
	mov	eax, DWORD PTR _UBSEC_lib_error_code
	test	eax, eax
	jne	SHORT $LN14@ubsec_mod_
; Line 152
	call	_ERR_get_next_error_library
	mov	DWORD PTR _UBSEC_lib_error_code, eax
$LN14@ubsec_mod_:
; Line 153
	push	580					; 00000244H
	push	OFFSET ??_C@_0BE@BCALDJJD@?4?2engines?2e_ubsec?4c?$AA@
	push	107					; 0000006bH
	push	106					; 0000006aH
	push	eax
	call	_ERR_put_error
; File c:\workpace\openssl\openssl-1.0.2h\engines\e_ubsec.c
; Line 581
	push	DWORD PTR _ctx$[esp+24]
	push	edi
	push	DWORD PTR _p$[esp+32]
	push	DWORD PTR _a$[esp+36]
	push	DWORD PTR _r$[esp+40]
	call	_BN_mod_exp
	add	esp, 40					; 00000028H
	pop	edi
; Line 609
	pop	ecx
	ret	0
$LN3@ubsec_mod_:
; Line 584
	mov	eax, DWORD PTR [edi+4]
	push	esi
	mov	esi, DWORD PTR _r$[esp+8]
	cmp	eax, DWORD PTR [esi+8]
	jg	SHORT $LN8@ubsec_mod_
	mov	eax, esi
	jmp	SHORT $LN9@ubsec_mod_
$LN8@ubsec_mod_:
	push	eax
	push	esi
	call	_bn_expand2
	add	esp, 8
$LN9@ubsec_mod_:
	test	eax, eax
	jne	SHORT $LN4@ubsec_mod_
; File c:\workpace\openssl\openssl-1.0.2h\engines\e_ubsec_err.c
; Line 151
	mov	eax, DWORD PTR _UBSEC_lib_error_code
	test	eax, eax
	jne	SHORT $LN17@ubsec_mod_
; Line 152
	call	_ERR_get_next_error_library
	mov	DWORD PTR _UBSEC_lib_error_code, eax
$LN17@ubsec_mod_:
; Line 153
	push	585					; 00000249H
	push	OFFSET ??_C@_0BE@BCALDJJD@?4?2engines?2e_ubsec?4c?$AA@
	push	101					; 00000065H
	push	106					; 0000006aH
	push	eax
	call	_ERR_put_error
	add	esp, 20					; 00000014H
; File c:\workpace\openssl\openssl-1.0.2h\engines\e_ubsec.c
; Line 586
	xor	eax, eax
	pop	esi
	pop	edi
; Line 609
	pop	ecx
	ret	0
$LN4@ubsec_mod_:
	push	ebx
; Line 589
	push	OFFSET ??_C@_0M@IDHLONIG@?1dev?1ubskey?$AA@
	call	DWORD PTR _p_UBSEC_ubsec_open
	mov	ebx, eax
	add	esp, 4
	test	ebx, ebx
	jg	SHORT $LN5@ubsec_mod_
; File c:\workpace\openssl\openssl-1.0.2h\engines\e_ubsec_err.c
; Line 151
	mov	eax, DWORD PTR _UBSEC_lib_error_code
	test	eax, eax
	jne	SHORT $LN20@ubsec_mod_
; Line 152
	call	_ERR_get_next_error_library
	mov	DWORD PTR _UBSEC_lib_error_code, eax
$LN20@ubsec_mod_:
; Line 153
	push	591					; 0000024fH
	push	OFFSET ??_C@_0BE@BCALDJJD@?4?2engines?2e_ubsec?4c?$AA@
	push	108					; 0000006cH
	push	106					; 0000006aH
	push	eax
	call	_ERR_put_error
; File c:\workpace\openssl\openssl-1.0.2h\engines\e_ubsec.c
; Line 592
	push	DWORD PTR _ctx$[esp+32]
	push	edi
	push	DWORD PTR _p$[esp+40]
	push	DWORD PTR _a$[esp+44]
	push	esi
	call	_BN_mod_exp
	add	esp, 40					; 00000028H
	pop	ebx
	pop	esi
	pop	edi
; Line 609
	pop	ecx
	ret	0
$LN5@ubsec_mod_:
	push	ebp
; Line 598
	mov	ebp, DWORD PTR _p$[esp+16]
	lea	eax, DWORD PTR _y_len$[esp+20]
	push	eax
	push	DWORD PTR [esi]
	push	ebp
	call	_BN_num_bits
	add	esp, 4
	push	eax
	push	DWORD PTR [ebp]
	push	edi
	call	_BN_num_bits
	add	esp, 4
	push	eax
	push	DWORD PTR [edi]
	push	DWORD PTR _a$[esp+40]
	call	_BN_num_bits
	add	esp, 4
	push	eax
	mov	eax, DWORD PTR _a$[esp+44]
	push	DWORD PTR [eax]
	push	ebx
	call	DWORD PTR _p_UBSEC_rsa_mod_exp_ioctl
	add	esp, 36					; 00000024H
	test	eax, eax
	je	SHORT $LN6@ubsec_mod_
; Line 599
	push	599					; 00000257H
	push	OFFSET ??_C@_0BE@BCALDJJD@?4?2engines?2e_ubsec?4c?$AA@
	push	106					; 0000006aH
	push	106					; 0000006aH
	call	_ERR_UBSEC_error
; Line 600
	push	ebx
	call	DWORD PTR _p_UBSEC_ubsec_close
; Line 602
	push	DWORD PTR _ctx$[esp+36]
	push	edi
	push	ebp
	push	DWORD PTR _a$[esp+48]
	push	esi
	call	_BN_mod_exp
	add	esp, 40					; 00000028H
	pop	ebp
	pop	ebx
	pop	esi
	pop	edi
; Line 609
	pop	ecx
	ret	0
$LN6@ubsec_mod_:
; Line 605
	push	ebx
	call	DWORD PTR _p_UBSEC_ubsec_close
; Line 607
	push	edi
	call	_BN_num_bits
	add	eax, 31					; 0000001fH
	add	esp, 8
	cdq
	and	edx, 31					; 0000001fH
	add	eax, edx
	pop	ebp
	sar	eax, 5
	pop	ebx
	mov	DWORD PTR [esi+4], eax
; Line 608
	mov	eax, 1
	pop	esi
	pop	edi
; Line 609
	pop	ecx
	ret	0
_ubsec_mod_exp ENDP
_TEXT	ENDS
; Function compile flags: /Ogtpy
;	COMDAT _ubsec_ctrl
_TEXT	SEGMENT
_e$ = 8							; size = 4
_cmd$ = 12						; size = 4
_i$ = 16						; size = 4
_p$ = 20						; size = 4
_f$ = 24						; size = 4
_ubsec_ctrl PROC					; COMDAT
; File c:\workpace\openssl\openssl-1.0.2h\engines\e_ubsec.c
; Line 547
	xor	eax, eax
	cmp	DWORD PTR _ubsec_dso, eax
	setne	al
; Line 548
	cmp	DWORD PTR _cmd$[esp-4], 200		; 000000c8H
	je	SHORT $LN4@ubsec_ctrl
; File c:\workpace\openssl\openssl-1.0.2h\engines\e_ubsec_err.c
; Line 151
	mov	eax, DWORD PTR _UBSEC_lib_error_code
	test	eax, eax
	jne	SHORT $LN16@ubsec_ctrl
; Line 152
	call	_ERR_get_next_error_library
	mov	DWORD PTR _UBSEC_lib_error_code, eax
$LN16@ubsec_ctrl:
; Line 153
	push	562					; 00000232H
	push	OFFSET ??_C@_0BE@BCALDJJD@?4?2engines?2e_ubsec?4c?$AA@
	push	102					; 00000066H
	push	100					; 00000064H
	push	eax
	call	_ERR_put_error
	add	esp, 20					; 00000014H
; File c:\workpace\openssl\openssl-1.0.2h\engines\e_ubsec.c
; Line 563
	xor	eax, eax
; Line 564
	ret	0
$LN4@ubsec_ctrl:
; Line 550
	mov	ecx, DWORD PTR _p$[esp-4]
	test	ecx, ecx
	jne	SHORT $LN5@ubsec_ctrl
; File c:\workpace\openssl\openssl-1.0.2h\engines\e_ubsec_err.c
; Line 151
	mov	eax, DWORD PTR _UBSEC_lib_error_code
	test	eax, eax
	jne	SHORT $LN10@ubsec_ctrl
; Line 152
	call	_ERR_get_next_error_library
	mov	DWORD PTR _UBSEC_lib_error_code, eax
$LN10@ubsec_ctrl:
; Line 153
	push	551					; 00000227H
	push	OFFSET ??_C@_0BE@BCALDJJD@?4?2engines?2e_ubsec?4c?$AA@
	push	67					; 00000043H
	push	100					; 00000064H
	push	eax
	call	_ERR_put_error
	add	esp, 20					; 00000014H
; File c:\workpace\openssl\openssl-1.0.2h\engines\e_ubsec.c
; Line 552
	xor	eax, eax
; Line 564
	ret	0
$LN5@ubsec_ctrl:
; Line 554
	test	eax, eax
	je	SHORT $LN6@ubsec_ctrl
; File c:\workpace\openssl\openssl-1.0.2h\engines\e_ubsec_err.c
; Line 151
	mov	eax, DWORD PTR _UBSEC_lib_error_code
	test	eax, eax
	jne	SHORT $LN13@ubsec_ctrl
; Line 152
	call	_ERR_get_next_error_library
	mov	DWORD PTR _UBSEC_lib_error_code, eax
$LN13@ubsec_ctrl:
; Line 153
	push	555					; 0000022bH
	push	OFFSET ??_C@_0BE@BCALDJJD@?4?2engines?2e_ubsec?4c?$AA@
	push	100					; 00000064H
	push	100					; 00000064H
	push	eax
	call	_ERR_put_error
	add	esp, 20					; 00000014H
; File c:\workpace\openssl\openssl-1.0.2h\engines\e_ubsec.c
; Line 556
	xor	eax, eax
; Line 564
	ret	0
$LN6@ubsec_ctrl:
; Line 558
	push	ecx
	call	_set_UBSEC_LIBNAME
	add	esp, 4
; Line 564
	ret	0
_ubsec_ctrl ENDP
_TEXT	ENDS
; Function compile flags: /Ogtpy
;	COMDAT _ubsec_finish
_TEXT	SEGMENT
_e$ = 8							; size = 4
_ubsec_finish PROC					; COMDAT
; File c:\workpace\openssl\openssl-1.0.2h\engines\e_ubsec.c
; Line 342
	mov	eax, DWORD PTR _UBSEC_LIBNAME
	test	eax, eax
	je	SHORT $LN6@ubsec_fini
; Line 343
	push	eax
	call	_CRYPTO_free
	add	esp, 4
$LN6@ubsec_fini:
; Line 514
	mov	eax, DWORD PTR _ubsec_dso
; Line 344
	mov	DWORD PTR _UBSEC_LIBNAME, 0
; Line 514
	test	eax, eax
	jne	SHORT $LN2@ubsec_fini
; File c:\workpace\openssl\openssl-1.0.2h\engines\e_ubsec_err.c
; Line 151
	mov	eax, DWORD PTR _UBSEC_lib_error_code
	test	eax, eax
	jne	SHORT $LN9@ubsec_fini
; Line 152
	call	_ERR_get_next_error_library
	mov	DWORD PTR _UBSEC_lib_error_code, eax
$LN9@ubsec_fini:
; Line 153
	push	515					; 00000203H
	push	OFFSET ??_C@_0BE@BCALDJJD@?4?2engines?2e_ubsec?4c?$AA@
	push	105					; 00000069H
	push	104					; 00000068H
	push	eax
	call	_ERR_put_error
	add	esp, 20					; 00000014H
; File c:\workpace\openssl\openssl-1.0.2h\engines\e_ubsec.c
; Line 516
	xor	eax, eax
; Line 543
	ret	0
$LN2@ubsec_fini:
; Line 518
	push	eax
	call	_DSO_free
	add	esp, 4
	test	eax, eax
	jne	SHORT $LN3@ubsec_fini
; File c:\workpace\openssl\openssl-1.0.2h\engines\e_ubsec_err.c
; Line 151
	mov	eax, DWORD PTR _UBSEC_lib_error_code
	test	eax, eax
	jne	SHORT $LN12@ubsec_fini
; Line 152
	call	_ERR_get_next_error_library
	mov	DWORD PTR _UBSEC_lib_error_code, eax
$LN12@ubsec_fini:
; Line 153
	push	519					; 00000207H
	push	OFFSET ??_C@_0BE@BCALDJJD@?4?2engines?2e_ubsec?4c?$AA@
	push	103					; 00000067H
	push	104					; 00000068H
	push	eax
	call	_ERR_put_error
	add	esp, 20					; 00000014H
; File c:\workpace\openssl\openssl-1.0.2h\engines\e_ubsec.c
; Line 520
	xor	eax, eax
; Line 543
	ret	0
$LN3@ubsec_fini:
; Line 522
	mov	DWORD PTR _ubsec_dso, 0
; Line 542
	mov	eax, 1
	mov	DWORD PTR _p_UBSEC_ubsec_bytes_to_bits, 0
	mov	DWORD PTR _p_UBSEC_ubsec_bits_to_bytes, 0
	mov	DWORD PTR _p_UBSEC_ubsec_open, 0
	mov	DWORD PTR _p_UBSEC_ubsec_close, 0
	mov	DWORD PTR _p_UBSEC_diffie_hellman_generate_ioctl, 0
	mov	DWORD PTR _p_UBSEC_diffie_hellman_agree_ioctl, 0
	mov	DWORD PTR _p_UBSEC_rsa_mod_exp_ioctl, 0
	mov	DWORD PTR _p_UBSEC_rsa_mod_exp_crt_ioctl, 0
	mov	DWORD PTR _p_UBSEC_dsa_sign_ioctl, 0
	mov	DWORD PTR _p_UBSEC_dsa_verify_ioctl, 0
	mov	DWORD PTR _p_UBSEC_math_accelerate_ioctl, 0
	mov	DWORD PTR _p_UBSEC_rng_ioctl, 0
	mov	DWORD PTR _p_UBSEC_max_key_len_ioctl, 0
; Line 543
	ret	0
_ubsec_finish ENDP
_TEXT	ENDS
; Function compile flags: /Ogtpy
;	COMDAT _ubsec_init
_TEXT	SEGMENT
_p5$1$ = -32						; size = 4
_p6$1$ = -28						; size = 4
_p7$1$ = -24						; size = 4
_p8$1$ = -20						; size = 4
_p9$1$ = -16						; size = 4
_p10$1$ = -12						; size = 4
_p11$1$ = -8						; size = 4
_p12$1$ = -4						; size = 4
_e$ = 8							; size = 4
_ubsec_init PROC					; COMDAT
; File c:\workpace\openssl\openssl-1.0.2h\engines\e_ubsec.c
; Line 383
	mov	eax, 32					; 00000020H
	call	__chkstk
; Line 405
	cmp	DWORD PTR _ubsec_dso, 0
	push	ebx
	push	ebp
	push	esi
	push	edi
	je	SHORT $LN2@ubsec_init
; File c:\workpace\openssl\openssl-1.0.2h\engines\e_ubsec_err.c
; Line 151
	mov	eax, DWORD PTR _UBSEC_lib_error_code
	test	eax, eax
	jne	SHORT $LN11@ubsec_init
; Line 152
	call	_ERR_get_next_error_library
	mov	DWORD PTR _UBSEC_lib_error_code, eax
$LN11@ubsec_init:
; Line 153
	push	406					; 00000196H
	push	OFFSET ??_C@_0BE@BCALDJJD@?4?2engines?2e_ubsec?4c?$AA@
	push	100					; 00000064H
; File c:\workpace\openssl\openssl-1.0.2h\engines\e_ubsec.c
; Line 407
	jmp	$LN22@ubsec_init
$LN2@ubsec_init:
; Line 335
	mov	eax, DWORD PTR _UBSEC_LIBNAME
	mov	ecx, OFFSET ??_C@_05IPGGNINO@ubsec?$AA@
	test	eax, eax
; Line 412
	push	0
; Line 335
	cmovne	ecx, eax
; Line 412
	push	0
	push	ecx
	push	0
	call	_DSO_load
	add	esp, 16					; 00000010H
	mov	DWORD PTR _ubsec_dso, eax
; Line 413
	test	eax, eax
	jne	SHORT $LN3@ubsec_init
; File c:\workpace\openssl\openssl-1.0.2h\engines\e_ubsec_err.c
; Line 151
	mov	eax, DWORD PTR _UBSEC_lib_error_code
	test	eax, eax
	jne	SHORT $LN17@ubsec_init
; Line 152
	call	_ERR_get_next_error_library
	mov	DWORD PTR _UBSEC_lib_error_code, eax
$LN17@ubsec_init:
; Line 153
	push	414					; 0000019eH
; File c:\workpace\openssl\openssl-1.0.2h\engines\e_ubsec.c
; Line 415
	jmp	$LN23@ubsec_init
$LN3@ubsec_init:
; Line 448
	push	DWORD PTR _UBSEC_F1
	push	eax
	call	_DSO_bind_func
	mov	edi, eax
	add	esp, 8
	test	edi, edi
	je	$LN5@ubsec_init
	push	DWORD PTR _UBSEC_F2
	push	DWORD PTR _ubsec_dso
	call	_DSO_bind_func
	mov	ebx, eax
	add	esp, 8
	test	ebx, ebx
	je	$LN5@ubsec_init
	push	DWORD PTR _UBSEC_F3
	push	DWORD PTR _ubsec_dso
	call	_DSO_bind_func
	mov	esi, eax
	add	esp, 8
	test	esi, esi
	je	$LN5@ubsec_init
	push	DWORD PTR _UBSEC_F4
	push	DWORD PTR _ubsec_dso
	call	_DSO_bind_func
	mov	ebp, eax
	add	esp, 8
	test	ebp, ebp
	je	$LN5@ubsec_init
	push	DWORD PTR _UBSEC_F5
	push	DWORD PTR _ubsec_dso
	call	_DSO_bind_func
	add	esp, 8
	mov	DWORD PTR _p5$1$[esp+48], eax
	test	eax, eax
	je	$LN5@ubsec_init
	push	DWORD PTR _UBSEC_F6
	push	DWORD PTR _ubsec_dso
	call	_DSO_bind_func
	add	esp, 8
	mov	DWORD PTR _p6$1$[esp+48], eax
	test	eax, eax
	je	$LN5@ubsec_init
	push	DWORD PTR _UBSEC_F7
	push	DWORD PTR _ubsec_dso
	call	_DSO_bind_func
	add	esp, 8
	mov	DWORD PTR _p7$1$[esp+48], eax
	test	eax, eax
	je	$LN5@ubsec_init
	push	DWORD PTR _UBSEC_F8
	push	DWORD PTR _ubsec_dso
	call	_DSO_bind_func
	add	esp, 8
	mov	DWORD PTR _p8$1$[esp+48], eax
	test	eax, eax
	je	$LN5@ubsec_init
	push	DWORD PTR _UBSEC_F9
	push	DWORD PTR _ubsec_dso
	call	_DSO_bind_func
	add	esp, 8
	mov	DWORD PTR _p9$1$[esp+48], eax
	test	eax, eax
	je	$LN5@ubsec_init
	push	DWORD PTR _UBSEC_F10
	push	DWORD PTR _ubsec_dso
	call	_DSO_bind_func
	add	esp, 8
	mov	DWORD PTR _p10$1$[esp+48], eax
	test	eax, eax
	je	$LN5@ubsec_init
	push	DWORD PTR _UBSEC_F11
	push	DWORD PTR _ubsec_dso
	call	_DSO_bind_func
	add	esp, 8
	mov	DWORD PTR _p11$1$[esp+48], eax
	test	eax, eax
	je	$LN5@ubsec_init
	push	DWORD PTR _UBSEC_F12
	push	DWORD PTR _ubsec_dso
	call	_DSO_bind_func
	add	esp, 8
	mov	DWORD PTR _p12$1$[esp+48], eax
	test	eax, eax
	je	$LN5@ubsec_init
	push	DWORD PTR _UBSEC_F13
	push	DWORD PTR _ubsec_dso
	call	_DSO_bind_func
	mov	ecx, eax
	add	esp, 8
	test	ecx, ecx
	je	$LN5@ubsec_init
; Line 460
	mov	eax, DWORD PTR _p5$1$[esp+48]
	mov	DWORD PTR _p_UBSEC_diffie_hellman_generate_ioctl, eax
; Line 461
	mov	eax, DWORD PTR _p6$1$[esp+48]
	mov	DWORD PTR _p_UBSEC_diffie_hellman_agree_ioctl, eax
; Line 464
	mov	eax, DWORD PTR _p7$1$[esp+48]
	mov	DWORD PTR _p_UBSEC_rsa_mod_exp_ioctl, eax
; Line 465
	mov	eax, DWORD PTR _p8$1$[esp+48]
	mov	DWORD PTR _p_UBSEC_rsa_mod_exp_crt_ioctl, eax
; Line 468
	mov	eax, DWORD PTR _p9$1$[esp+48]
	mov	DWORD PTR _p_UBSEC_dsa_sign_ioctl, eax
; Line 469
	mov	eax, DWORD PTR _p10$1$[esp+48]
	mov	DWORD PTR _p_UBSEC_dsa_verify_ioctl, eax
; Line 471
	mov	eax, DWORD PTR _p11$1$[esp+48]
	mov	DWORD PTR _p_UBSEC_math_accelerate_ioctl, eax
; Line 472
	mov	eax, DWORD PTR _p12$1$[esp+48]
; Line 477
	push	OFFSET ??_C@_0M@IDHLONIG@?1dev?1ubskey?$AA@
	mov	DWORD PTR _p_UBSEC_ubsec_bytes_to_bits, edi
	mov	DWORD PTR _p_UBSEC_ubsec_bits_to_bytes, ebx
	mov	DWORD PTR _p_UBSEC_ubsec_open, esi
	mov	DWORD PTR _p_UBSEC_ubsec_close, ebp
	mov	DWORD PTR _p_UBSEC_rng_ioctl, eax
	mov	DWORD PTR _p_UBSEC_max_key_len_ioctl, ecx
	call	esi
	mov	esi, eax
	add	esp, 4
	test	esi, esi
	jle	SHORT $LN6@ubsec_init
	push	OFFSET _max_key_len
	push	esi
	call	DWORD PTR _p_UBSEC_max_key_len_ioctl
	add	esp, 8
	test	eax, eax
	jne	SHORT $LN6@ubsec_init
; Line 478
	push	esi
	call	DWORD PTR _p_UBSEC_ubsec_close
	add	esp, 4
; Line 479
	mov	eax, 1
	pop	edi
	pop	esi
	pop	ebp
	pop	ebx
; Line 509
	add	esp, 32					; 00000020H
	ret	0
$LN6@ubsec_init:
; Line 481
	push	481					; 000001e1H
	push	OFFSET ??_C@_0BE@BCALDJJD@?4?2engines?2e_ubsec?4c?$AA@
	push	108					; 0000006cH
	push	105					; 00000069H
	call	_ERR_UBSEC_error
	add	esp, 16					; 00000010H
	jmp	SHORT $err$25
$LN5@ubsec_init:
; File c:\workpace\openssl\openssl-1.0.2h\engines\e_ubsec_err.c
; Line 151
	mov	eax, DWORD PTR _UBSEC_lib_error_code
	test	eax, eax
	jne	SHORT $LN20@ubsec_init
; Line 152
	call	_ERR_get_next_error_library
	mov	DWORD PTR _UBSEC_lib_error_code, eax
$LN20@ubsec_init:
; Line 153
	push	450					; 000001c2H
$LN23@ubsec_init:
	push	OFFSET ??_C@_0BE@BCALDJJD@?4?2engines?2e_ubsec?4c?$AA@
	push	103					; 00000067H
$LN22@ubsec_init:
	push	105					; 00000069H
	push	eax
	call	_ERR_put_error
	add	esp, 20					; 00000014H
$err$25:
; File c:\workpace\openssl\openssl-1.0.2h\engines\e_ubsec.c
; Line 485
	mov	eax, DWORD PTR _ubsec_dso
	test	eax, eax
	je	SHORT $LN8@ubsec_init
; Line 486
	push	eax
	call	_DSO_free
	add	esp, 4
$LN8@ubsec_init:
; Line 487
	pop	edi
	pop	esi
	pop	ebp
	mov	DWORD PTR _ubsec_dso, 0
; Line 508
	xor	eax, eax
	mov	DWORD PTR _p_UBSEC_ubsec_bytes_to_bits, 0
	mov	DWORD PTR _p_UBSEC_ubsec_bits_to_bytes, 0
	mov	DWORD PTR _p_UBSEC_ubsec_open, 0
	mov	DWORD PTR _p_UBSEC_ubsec_close, 0
	mov	DWORD PTR _p_UBSEC_diffie_hellman_generate_ioctl, 0
	mov	DWORD PTR _p_UBSEC_diffie_hellman_agree_ioctl, 0
	mov	DWORD PTR _p_UBSEC_rsa_mod_exp_ioctl, 0
	mov	DWORD PTR _p_UBSEC_rsa_mod_exp_crt_ioctl, 0
	mov	DWORD PTR _p_UBSEC_dsa_sign_ioctl, 0
	mov	DWORD PTR _p_UBSEC_dsa_verify_ioctl, 0
	mov	DWORD PTR _p_UBSEC_math_accelerate_ioctl, 0
	mov	DWORD PTR _p_UBSEC_rng_ioctl, 0
	mov	DWORD PTR _p_UBSEC_max_key_len_ioctl, 0
	pop	ebx
; Line 509
	add	esp, 32					; 00000020H
	ret	0
_ubsec_init ENDP
_TEXT	ENDS
; Function compile flags: /Ogtpy
;	COMDAT _ubsec_destroy
_TEXT	SEGMENT
_e$ = 8							; size = 4
_ubsec_destroy PROC					; COMDAT
; File c:\workpace\openssl\openssl-1.0.2h\engines\e_ubsec.c
; Line 342
	mov	eax, DWORD PTR _UBSEC_LIBNAME
	test	eax, eax
	je	SHORT $LN4@ubsec_dest
; Line 343
	push	eax
	call	_CRYPTO_free
	add	esp, 4
$LN4@ubsec_dest:
; File c:\workpace\openssl\openssl-1.0.2h\engines\e_ubsec_err.c
; Line 136
	cmp	DWORD PTR _UBSEC_error_init, 0
; File c:\workpace\openssl\openssl-1.0.2h\engines\e_ubsec.c
; Line 344
	mov	DWORD PTR _UBSEC_LIBNAME, 0
; File c:\workpace\openssl\openssl-1.0.2h\engines\e_ubsec_err.c
; Line 136
	jne	SHORT $LN9@ubsec_dest
; Line 138
	push	OFFSET _UBSEC_str_functs
	push	DWORD PTR _UBSEC_lib_error_code
	call	_ERR_unload_strings
; Line 139
	push	OFFSET _UBSEC_str_reasons
	push	DWORD PTR _UBSEC_lib_error_code
	call	_ERR_unload_strings
; Line 143
	push	OFFSET _UBSEC_lib_name
	push	0
	call	_ERR_unload_strings
	add	esp, 24					; 00000018H
; Line 145
	mov	DWORD PTR _UBSEC_error_init, 1
$LN9@ubsec_dest:
; File c:\workpace\openssl\openssl-1.0.2h\engines\e_ubsec.c
; Line 378
	mov	eax, 1
; Line 379
	ret	0
_ubsec_destroy ENDP
_TEXT	ENDS
; Function compile flags: /Ogtpy
;	COMDAT _ERR_UBSEC_error
_TEXT	SEGMENT
_function$ = 8						; size = 4
_reason$ = 12						; size = 4
_file$ = 16						; size = 4
_line$ = 20						; size = 4
_ERR_UBSEC_error PROC					; COMDAT
; File c:\workpace\openssl\openssl-1.0.2h\engines\e_ubsec_err.c
; Line 151
	mov	eax, DWORD PTR _UBSEC_lib_error_code
	test	eax, eax
	jne	SHORT $LN2@ERR_UBSEC_
; Line 152
	call	_ERR_get_next_error_library
	mov	DWORD PTR _UBSEC_lib_error_code, eax
$LN2@ERR_UBSEC_:
; Line 153
	push	DWORD PTR _line$[esp-4]
	push	DWORD PTR _file$[esp]
	push	DWORD PTR _reason$[esp+4]
	push	DWORD PTR _function$[esp+8]
	push	eax
	call	_ERR_put_error
	add	esp, 20					; 00000014H
; Line 154
	ret	0
_ERR_UBSEC_error ENDP
_TEXT	ENDS
; Function compile flags: /Ogtpy
;	COMDAT _ERR_unload_UBSEC_strings
_TEXT	SEGMENT
_ERR_unload_UBSEC_strings PROC				; COMDAT
; File c:\workpace\openssl\openssl-1.0.2h\engines\e_ubsec_err.c
; Line 136
	cmp	DWORD PTR _UBSEC_error_init, 0
	jne	SHORT $LN2@ERR_unload
; Line 138
	push	OFFSET _UBSEC_str_functs
	push	DWORD PTR _UBSEC_lib_error_code
	call	_ERR_unload_strings
; Line 139
	push	OFFSET _UBSEC_str_reasons
	push	DWORD PTR _UBSEC_lib_error_code
	call	_ERR_unload_strings
; Line 143
	push	OFFSET _UBSEC_lib_name
	push	0
	call	_ERR_unload_strings
	add	esp, 24					; 00000018H
; Line 145
	mov	DWORD PTR _UBSEC_error_init, 1
$LN2@ERR_unload:
; Line 147
	ret	0
_ERR_unload_UBSEC_strings ENDP
_TEXT	ENDS
; Function compile flags: /Ogtpy
;	COMDAT _ERR_load_UBSEC_strings
_TEXT	SEGMENT
_ERR_load_UBSEC_strings PROC				; COMDAT
; File c:\workpace\openssl\openssl-1.0.2h\engines\e_ubsec_err.c
; Line 117
	mov	eax, DWORD PTR _UBSEC_lib_error_code
	test	eax, eax
	jne	SHORT $LN2@ERR_load_U
; Line 118
	call	_ERR_get_next_error_library
	mov	DWORD PTR _UBSEC_lib_error_code, eax
$LN2@ERR_load_U:
; Line 120
	cmp	DWORD PTR _UBSEC_error_init, 0
	je	SHORT $LN3@ERR_load_U
; Line 123
	push	OFFSET _UBSEC_str_functs
	push	eax
	mov	DWORD PTR _UBSEC_error_init, 0
	call	_ERR_load_strings
; Line 124
	push	OFFSET _UBSEC_str_reasons
	push	DWORD PTR _UBSEC_lib_error_code
	call	_ERR_load_strings
; Line 128
	movzx	eax, BYTE PTR _UBSEC_lib_error_code
	shl	eax, 24					; 00000018H
; Line 129
	push	OFFSET _UBSEC_lib_name
	push	0
	mov	DWORD PTR _UBSEC_lib_name, eax
	call	_ERR_load_strings
	add	esp, 24					; 00000018H
$LN3@ERR_load_U:
; Line 132
	ret	0
_ERR_load_UBSEC_strings ENDP
_TEXT	ENDS
END
