; Listing generated by Microsoft (R) Optimizing Compiler Version 19.00.23918.0 

	TITLE	C:\workpace\openssl\openssl-1.0.2h\crypto\ec\ec_oct.c
	.686P
	.XMM
	include listing.inc
	.model	flat

INCLUDELIB MSVCRT
INCLUDELIB OLDNAMES

PUBLIC	_EC_POINT_set_compressed_coordinates_GFp
PUBLIC	_EC_POINT_set_compressed_coordinates_GF2m
PUBLIC	_EC_POINT_point2oct
PUBLIC	_EC_POINT_oct2point
PUBLIC	??_C@_0BF@BPCDJGOK@?4?2crypto?2ec?2ec_oct?4c?$AA@ ; `string'
EXTRN	_ERR_put_error:PROC
EXTRN	_ec_GFp_simple_set_compressed_coordinates:PROC
EXTRN	_ec_GFp_simple_point2oct:PROC
EXTRN	_ec_GFp_simple_oct2point:PROC
EXTRN	_ec_GF2m_simple_set_compressed_coordinates:PROC
EXTRN	_ec_GF2m_simple_point2oct:PROC
EXTRN	_ec_GF2m_simple_oct2point:PROC
;	COMDAT ??_C@_0BF@BPCDJGOK@?4?2crypto?2ec?2ec_oct?4c?$AA@
CONST	SEGMENT
??_C@_0BF@BPCDJGOK@?4?2crypto?2ec?2ec_oct?4c?$AA@ DB '.\crypto\ec\ec_oct.'
	DB	'c', 00H					; `string'
CONST	ENDS
; Function compile flags: /Ogtpy
;	COMDAT _EC_POINT_oct2point
_TEXT	SEGMENT
_group$ = 8						; size = 4
_point$ = 12						; size = 4
_buf$ = 16						; size = 4
_len$ = 20						; size = 4
_ctx$ = 24						; size = 4
_EC_POINT_oct2point PROC				; COMDAT
; File c:\workpace\openssl\openssl-1.0.2h\crypto\ec\ec_oct.c
; Line 170
	mov	ecx, DWORD PTR _group$[esp-4]
	push	esi
	mov	eax, DWORD PTR [ecx]
	mov	esi, DWORD PTR [eax+84]
	test	esi, esi
	jne	SHORT $LN2@EC_POINT_o
	test	BYTE PTR [eax], 1
	jne	SHORT $LN2@EC_POINT_o
; Line 171
	push	171					; 000000abH
	push	OFFSET ??_C@_0BF@BPCDJGOK@?4?2crypto?2ec?2ec_oct?4c?$AA@
	push	66					; 00000042H
	push	122					; 0000007aH
	push	16					; 00000010H
	call	_ERR_put_error
	add	esp, 20					; 00000014H
; Line 172
	xor	eax, eax
	pop	esi
; Line 192
	ret	0
$LN2@EC_POINT_o:
; Line 174
	mov	edx, DWORD PTR _point$[esp]
	cmp	eax, DWORD PTR [edx]
	je	SHORT $LN3@EC_POINT_o
; Line 175
	push	175					; 000000afH
	push	OFFSET ??_C@_0BF@BPCDJGOK@?4?2crypto?2ec?2ec_oct?4c?$AA@
	push	101					; 00000065H
	push	122					; 0000007aH
	push	16					; 00000010H
	call	_ERR_put_error
	add	esp, 20					; 00000014H
; Line 176
	xor	eax, eax
	pop	esi
; Line 192
	ret	0
$LN3@EC_POINT_o:
; Line 178
	test	BYTE PTR [eax], 1
	je	SHORT $LN6@EC_POINT_o
; Line 179
	cmp	DWORD PTR [eax+4], 406			; 00000196H
	pop	esi
	jne	SHORT $LN5@EC_POINT_o
; Line 180
	mov	DWORD PTR _point$[esp-4], edx
	mov	DWORD PTR _group$[esp-4], ecx
	jmp	_ec_GFp_simple_oct2point
$LN5@EC_POINT_o:
; Line 188
	mov	DWORD PTR _point$[esp-4], edx
	mov	DWORD PTR _group$[esp-4], ecx
	jmp	_ec_GF2m_simple_oct2point
$LN6@EC_POINT_o:
; Line 191
	push	DWORD PTR _ctx$[esp]
	push	DWORD PTR _len$[esp+4]
	push	DWORD PTR _buf$[esp+8]
	push	edx
	push	ecx
	call	esi
	add	esp, 20					; 00000014H
	pop	esi
; Line 192
	ret	0
_EC_POINT_oct2point ENDP
_TEXT	ENDS
; Function compile flags: /Ogtpy
;	COMDAT _EC_POINT_point2oct
_TEXT	SEGMENT
_group$ = 8						; size = 4
_point$ = 12						; size = 4
_form$ = 16						; size = 4
_buf$ = 20						; size = 4
_len$ = 24						; size = 4
_ctx$ = 28						; size = 4
_EC_POINT_point2oct PROC				; COMDAT
; File c:\workpace\openssl\openssl-1.0.2h\crypto\ec\ec_oct.c
; Line 140
	mov	ecx, DWORD PTR _group$[esp-4]
	push	esi
	mov	eax, DWORD PTR [ecx]
	mov	esi, DWORD PTR [eax+80]
	test	esi, esi
	jne	SHORT $LN2@EC_POINT_p
	test	BYTE PTR [eax], 1
	jne	SHORT $LN2@EC_POINT_p
; Line 141
	push	141					; 0000008dH
	push	OFFSET ??_C@_0BF@BPCDJGOK@?4?2crypto?2ec?2ec_oct?4c?$AA@
	push	66					; 00000042H
	push	123					; 0000007bH
	push	16					; 00000010H
	call	_ERR_put_error
	add	esp, 20					; 00000014H
; Line 142
	xor	eax, eax
	pop	esi
; Line 164
	ret	0
$LN2@EC_POINT_p:
; Line 144
	mov	edx, DWORD PTR _point$[esp]
	cmp	eax, DWORD PTR [edx]
	je	SHORT $LN3@EC_POINT_p
; Line 145
	push	145					; 00000091H
	push	OFFSET ??_C@_0BF@BPCDJGOK@?4?2crypto?2ec?2ec_oct?4c?$AA@
	push	101					; 00000065H
	push	123					; 0000007bH
	push	16					; 00000010H
	call	_ERR_put_error
	add	esp, 20					; 00000014H
; Line 146
	xor	eax, eax
	pop	esi
; Line 164
	ret	0
$LN3@EC_POINT_p:
; Line 148
	test	BYTE PTR [eax], 1
	je	SHORT $LN6@EC_POINT_p
; Line 149
	cmp	DWORD PTR [eax+4], 406			; 00000196H
	pop	esi
	jne	SHORT $LN5@EC_POINT_p
; Line 150
	mov	DWORD PTR _point$[esp-4], edx
	mov	DWORD PTR _group$[esp-4], ecx
	jmp	_ec_GFp_simple_point2oct
$LN5@EC_POINT_p:
; Line 158
	mov	DWORD PTR _point$[esp-4], edx
	mov	DWORD PTR _group$[esp-4], ecx
	jmp	_ec_GF2m_simple_point2oct
$LN6@EC_POINT_p:
; Line 163
	push	DWORD PTR _ctx$[esp]
	push	DWORD PTR _len$[esp+4]
	push	DWORD PTR _buf$[esp+8]
	push	DWORD PTR _form$[esp+12]
	push	edx
	push	ecx
	call	esi
	add	esp, 24					; 00000018H
	pop	esi
; Line 164
	ret	0
_EC_POINT_point2oct ENDP
_TEXT	ENDS
; Function compile flags: /Ogtpy
;	COMDAT _EC_POINT_set_compressed_coordinates_GF2m
_TEXT	SEGMENT
_group$ = 8						; size = 4
_point$ = 12						; size = 4
_x$ = 16						; size = 4
_y_bit$ = 20						; size = 4
_ctx$ = 24						; size = 4
_EC_POINT_set_compressed_coordinates_GF2m PROC		; COMDAT
; File c:\workpace\openssl\openssl-1.0.2h\crypto\ec\ec_oct.c
; Line 112
	mov	ecx, DWORD PTR _group$[esp-4]
	push	esi
	mov	eax, DWORD PTR [ecx]
	mov	esi, DWORD PTR [eax+76]
	test	esi, esi
	jne	SHORT $LN2@EC_POINT_s
	test	BYTE PTR [eax], 1
	jne	SHORT $LN2@EC_POINT_s
; Line 113
	push	114					; 00000072H
	push	OFFSET ??_C@_0BF@BPCDJGOK@?4?2crypto?2ec?2ec_oct?4c?$AA@
	push	66					; 00000042H
	push	186					; 000000baH
	push	16					; 00000010H
	call	_ERR_put_error
	add	esp, 20					; 00000014H
; Line 115
	xor	eax, eax
	pop	esi
; Line 132
	ret	0
$LN2@EC_POINT_s:
; Line 117
	mov	edx, DWORD PTR _point$[esp]
	cmp	eax, DWORD PTR [edx]
	je	SHORT $LN3@EC_POINT_s
; Line 118
	push	119					; 00000077H
	push	OFFSET ??_C@_0BF@BPCDJGOK@?4?2crypto?2ec?2ec_oct?4c?$AA@
	push	101					; 00000065H
	push	186					; 000000baH
	push	16					; 00000010H
	call	_ERR_put_error
	add	esp, 20					; 00000014H
	xor	eax, eax
	pop	esi
; Line 132
	ret	0
$LN3@EC_POINT_s:
; Line 122
	test	BYTE PTR [eax], 1
	je	SHORT $LN6@EC_POINT_s
; Line 123
	cmp	DWORD PTR [eax+4], 406			; 00000196H
	pop	esi
	jne	SHORT $LN5@EC_POINT_s
; Line 124
	mov	DWORD PTR _point$[esp-4], edx
	mov	DWORD PTR _group$[esp-4], ecx
	jmp	_ec_GFp_simple_set_compressed_coordinates
$LN5@EC_POINT_s:
; Line 127
	mov	DWORD PTR _point$[esp-4], edx
	mov	DWORD PTR _group$[esp-4], ecx
	jmp	_ec_GF2m_simple_set_compressed_coordinates
$LN6@EC_POINT_s:
; Line 130
	push	DWORD PTR _ctx$[esp]
	push	DWORD PTR _y_bit$[esp+4]
	push	DWORD PTR _x$[esp+8]
	push	edx
	push	ecx
	call	esi
	add	esp, 20					; 00000014H
	pop	esi
; Line 132
	ret	0
_EC_POINT_set_compressed_coordinates_GF2m ENDP
_TEXT	ENDS
; Function compile flags: /Ogtpy
;	COMDAT _EC_POINT_set_compressed_coordinates_GFp
_TEXT	SEGMENT
_group$ = 8						; size = 4
_point$ = 12						; size = 4
_x$ = 16						; size = 4
_y_bit$ = 20						; size = 4
_ctx$ = 24						; size = 4
_EC_POINT_set_compressed_coordinates_GFp PROC		; COMDAT
; File c:\workpace\openssl\openssl-1.0.2h\crypto\ec\ec_oct.c
; Line 76
	mov	ecx, DWORD PTR _group$[esp-4]
	push	esi
	mov	eax, DWORD PTR [ecx]
	mov	esi, DWORD PTR [eax+76]
	test	esi, esi
	jne	SHORT $LN2@EC_POINT_s
	test	BYTE PTR [eax], 1
	jne	SHORT $LN2@EC_POINT_s
; Line 77
	push	78					; 0000004eH
	push	OFFSET ??_C@_0BF@BPCDJGOK@?4?2crypto?2ec?2ec_oct?4c?$AA@
	push	66					; 00000042H
	push	125					; 0000007dH
	push	16					; 00000010H
	call	_ERR_put_error
	add	esp, 20					; 00000014H
; Line 79
	xor	eax, eax
	pop	esi
; Line 104
	ret	0
$LN2@EC_POINT_s:
; Line 81
	mov	edx, DWORD PTR _point$[esp]
	cmp	eax, DWORD PTR [edx]
	je	SHORT $LN3@EC_POINT_s
; Line 82
	push	83					; 00000053H
	push	OFFSET ??_C@_0BF@BPCDJGOK@?4?2crypto?2ec?2ec_oct?4c?$AA@
	push	101					; 00000065H
	push	125					; 0000007dH
	push	16					; 00000010H
	call	_ERR_put_error
	add	esp, 20					; 00000014H
; Line 84
	xor	eax, eax
	pop	esi
; Line 104
	ret	0
$LN3@EC_POINT_s:
; Line 86
	test	BYTE PTR [eax], 1
	je	SHORT $LN6@EC_POINT_s
; Line 87
	cmp	DWORD PTR [eax+4], 406			; 00000196H
	pop	esi
	jne	SHORT $LN5@EC_POINT_s
; Line 88
	mov	DWORD PTR _point$[esp-4], edx
	mov	DWORD PTR _group$[esp-4], ecx
	jmp	_ec_GFp_simple_set_compressed_coordinates
$LN5@EC_POINT_s:
; Line 98
	mov	DWORD PTR _point$[esp-4], edx
	mov	DWORD PTR _group$[esp-4], ecx
	jmp	_ec_GF2m_simple_set_compressed_coordinates
$LN6@EC_POINT_s:
; Line 102
	push	DWORD PTR _ctx$[esp]
	push	DWORD PTR _y_bit$[esp+4]
	push	DWORD PTR _x$[esp+8]
	push	edx
	push	ecx
	call	esi
	add	esp, 20					; 00000014H
	pop	esi
; Line 104
	ret	0
_EC_POINT_set_compressed_coordinates_GFp ENDP
_TEXT	ENDS
END
