; Listing generated by Microsoft (R) Optimizing Compiler Version 19.00.23918.0 

	TITLE	C:\workpace\openssl\openssl-1.0.2h\crypto\ec\ectest.c
	.686P
	.XMM
	include listing.inc
	.model	flat

INCLUDELIB MSVCRT
INCLUDELIB OLDNAMES

CONST	SEGMENT
_rnd_seed DB	'string to make the random number generator think it has '
	DB	'entropy', 00H
CONST	ENDS
PUBLIC	___local_stdio_printf_options
PUBLIC	__vfprintf_l
PUBLIC	_fprintf
PUBLIC	_main
PUBLIC	??_C@_0BH@KFBLJBMM@verify?5group?5order?5?4?4?4?$AA@ ; `string'
PUBLIC	??_C@_0BF@BDOCEPGI@?4?2crypto?2ec?2ectest?4c?$AA@ ; `string'
PUBLIC	??_C@_0O@HJBMECNK@?$CFs?3?$CFd?3?5ABORT?6?$AA@	; `string'
PUBLIC	??_C@_01LFCBOECM@?4?$AA@			; `string'
PUBLIC	??_C@_04CFDEAMPI@?5ok?6?$AA@			; `string'
PUBLIC	??_C@_0BM@PBNCBNAM@long?1negative?5scalar?5tests?5?$AA@ ; `string'
PUBLIC	??_C@_0BN@BNLLKCN@allowing?5precomputation?5?4?4?4?5?$AA@ ; `string'
PUBLIC	??_C@_0BM@LCLGCHAK@without?5precomputation?5?4?4?4?5?$AA@ ; `string'
PUBLIC	??_C@_03DJDALPN@ok?6?$AA@			; `string'
PUBLIC	??_C@_02LFBAAJHO@17?$AA@			; `string'
PUBLIC	??_C@_01HIHLOKLC@1?$AA@				; `string'
PUBLIC	??_C@_0EI@GDDNHNIA@Curve?5defined?5by?5Weierstrass?5equ@ ; `string'
PUBLIC	??_C@_0O@MNDNFHIM@?$CJ?6?5?5?5?5?5a?5?$DN?50x?$AA@ ; `string'
PUBLIC	??_C@_0N@EBCIPFMM@?6?5?5?5?5?5b?5?$DN?50x?$AA@	; `string'
PUBLIC	??_C@_01EEMJAFIK@?6?$AA@			; `string'
PUBLIC	??_C@_01CKDDGHAB@D?$AA@				; `string'
PUBLIC	??_C@_0BO@EBGLNJGE@Point?5is?5not?5on?5curve?3?5x?5?$DN?50x?$AA@ ; `string'
PUBLIC	??_C@_08MABHKNBJ@?0?5y?5?$DN?50x?$AA@		; `string'
PUBLIC	??_C@_0BE@MEOPFPBF@A?5cyclic?5subgroup?3?6?$AA@	; `string'
PUBLIC	??_C@_0BI@KGAKJGEC@?5?5?5?5?5point?5at?5infinity?6?$AA@ ; `string'
PUBLIC	??_C@_0M@MMHINAIH@?5?5?5?5?5x?5?$DN?50x?$AA@	; `string'
PUBLIC	??_C@_0DC@JFAFDNDM@Generator?5as?5octet?5string?0?5compr@ ; `string'
PUBLIC	??_C@_04JFFKLGJF@?$CF02X?$AA@			; `string'
PUBLIC	??_C@_0DF@LCMILNIB@?6Generator?5as?5octet?5string?0?5unco@ ; `string'
PUBLIC	??_C@_0CP@PHEDNBLP@?6Generator?5as?5octet?5string?0?5hybr@ ; `string'
PUBLIC	??_C@_0GD@NLMMCCPG@?6A?5representation?5of?5the?5inverse@ ; `string'
PUBLIC	??_C@_08PKKJEIF@?0?5Y?5?$DN?50x?$AA@		; `string'
PUBLIC	??_C@_08DOECIOBI@?0?5Z?5?$DN?50x?$AA@		; `string'
PUBLIC	??_C@_0CJ@PHKHFLJG@FFFFFFFFFFFFFFFFFFFFFFFFFFFFFFFF@ ; `string'
PUBLIC	??_C@_0CJ@IKNAKPND@FFFFFFFFFFFFFFFFFFFFFFFFFFFFFFFF@ ; `string'
PUBLIC	??_C@_0CJ@CGMIEEHD@1C97BEFC54BD7A8B65ACF89F81D4D4AD@ ; `string'
PUBLIC	??_C@_0CJ@MIDIAOCP@4A96B5688EF573284664698968C38BB9@ ; `string'
PUBLIC	??_C@_0CJ@IFNODPPM@23a628553168947d59dcc91204235137@ ; `string'
PUBLIC	??_C@_0CL@EDKAMPLM@0100000000000000000001F4C8F927AE@ ; `string'
PUBLIC	??_C@_0DA@NBKFLMMD@?6SEC2?5curve?5secp160r1?5?9?9?5Generat@ ; `string'
PUBLIC	??_C@_0N@CEPBDNPI@?6?5?5?5?5?5y?5?$DN?50x?$AA@	; `string'
PUBLIC	??_C@_0BC@NNIFDGGK@verify?5degree?5?4?4?4?$AA@	; `string'
PUBLIC	??_C@_0DB@DIPMNOFO@FFFFFFFFFFFFFFFFFFFFFFFFFFFFFFFE@ ; `string'
PUBLIC	??_C@_0DB@EFILCKBL@FFFFFFFFFFFFFFFFFFFFFFFFFFFFFFFE@ ; `string'
PUBLIC	??_C@_0DB@PLBGALEH@64210519E59C80E70FA7E9AB72243049@ ; `string'
PUBLIC	??_C@_0DB@LHIGDGHO@188DA80EB03090F67CBF20EB43A18800@ ; `string'
PUBLIC	??_C@_0DB@EHFHEEFE@FFFFFFFFFFFFFFFFFFFFFFFF99DEF836@ ; `string'
PUBLIC	??_C@_0CM@EHMHPIKF@?6NIST?5curve?5P?9192?5?9?9?5Generator?3?6@ ; `string'
PUBLIC	??_C@_0DB@PMAOLPKN@07192B95FFC8DA78631011ED6B24CDD5@ ; `string'
PUBLIC	??_C@_0DJ@KBMBLOHP@FFFFFFFFFFFFFFFFFFFFFFFFFFFFFFFF@ ; `string'
PUBLIC	??_C@_0DJ@GECEELCG@FFFFFFFFFFFFFFFFFFFFFFFFFFFFFFFE@ ; `string'
PUBLIC	??_C@_0DJ@KCHEMFFJ@B4050A850C04B3ABF54132565044B0B7@ ; `string'
PUBLIC	??_C@_0DJ@NPHLCOHI@B70E0CBD6BB4BF7F321390B94A03C1D3@ ; `string'
PUBLIC	??_C@_0DJ@BHCANMNE@FFFFFFFFFFFFFFFFFFFFFFFFFFFF16A2@ ; `string'
PUBLIC	??_C@_0CM@NAOHNDN@?6NIST?5curve?5P?9224?5?9?9?5Generator?3?6@ ; `string'
PUBLIC	??_C@_0DJ@EDHFDDJK@BD376388B5F723FB4C22DFE6CD4375A0@ ; `string'
PUBLIC	??_C@_0EB@NKKCFGLN@FFFFFFFF000000010000000000000000@ ; `string'
PUBLIC	??_C@_0EB@KHNFKCPI@FFFFFFFF000000010000000000000000@ ; `string'
PUBLIC	??_C@_0EB@CGMLNBOM@5AC635D8AA3A93E7B3EBBD55769886BC@ ; `string'
PUBLIC	??_C@_0EB@OLPMACDN@6B17D1F2E12C4247F8BCE6E563A440F2@ ; `string'
PUBLIC	??_C@_0EB@MIJLAMHG@FFFFFFFF00000000FFFFFFFFFFFFFFFF@ ; `string'
PUBLIC	??_C@_0CM@PMADIOLK@?6NIST?5curve?5P?9256?5?9?9?5Generator?3?6@ ; `string'
PUBLIC	??_C@_0EB@EAOKNDEN@4FE342E2FE1A7F9B8EE7EB4A7C0F9E16@ ; `string'
PUBLIC	??_C@_0GB@NAMHBOGD@FFFFFFFFFFFFFFFFFFFFFFFFFFFFFFFF@ ; `string'
PUBLIC	??_C@_0GB@KNLAOKCG@FFFFFFFFFFFFFFFFFFFFFFFFFFFFFFFF@ ; `string'
PUBLIC	??_C@_0GB@GBMGBGKN@B3312FA7E23EE7E4988E056BE3F82D19@ ; `string'
PUBLIC	??_C@_0GB@GJBBIIPB@AA87CA22BE8B05378EB1C71EF320AD74@ ; `string'
PUBLIC	??_C@_0GB@IJGNFOHD@FFFFFFFFFFFFFFFFFFFFFFFFFFFFFFFF@ ; `string'
PUBLIC	??_C@_0CM@FJLNOJNP@?6NIST?5curve?5P?9384?5?9?9?5Generator?3?6@ ; `string'
PUBLIC	??_C@_0GB@EJCCOFND@3617DE4A96262C6F5D9E98BF9292DC29@ ; `string'
PUBLIC	??_C@_0IE@LJFIBPGL@1FFFFFFFFFFFFFFFFFFFFFFFFFFFFFFF@ ; `string'
PUBLIC	??_C@_0IE@MECPOLCO@1FFFFFFFFFFFFFFFFFFFFFFFFFFFFFFF@ ; `string'
PUBLIC	??_C@_0IE@GOJLJCKA@051953EB9618E1C9A1F929A21A0B6854@ ; `string'
PUBLIC	??_C@_0ID@OOGMNGNF@C6858E06B70404E9CD9E3ECB662395B4@ ; `string'
PUBLIC	??_C@_0IE@DDIDDIA@1FFFFFFFFFFFFFFFFFFFFFFFFFFFFFFF@ ; `string'
PUBLIC	??_C@_0CM@LPEONNGM@?6NIST?5curve?5P?9521?5?9?9?5Generator?3?6@ ; `string'
PUBLIC	??_C@_0IE@IAAHKDDH@11839296A789A3BC0045C8A5FB42C7D1@ ; `string'
PUBLIC	??_C@_0BM@GCECKGMN@combined?5multiplication?5?4?4?4?$AA@ ; `string'
PUBLIC	??_C@_05EJKMKGKI@?5ok?6?6?$AA@			; `string'
PUBLIC	??_C@_02NBHMMMHK@13?$AA@			; `string'
PUBLIC	??_C@_01EKENIIDA@3?$AA@				; `string'
PUBLIC	??_C@_0FA@MHBGMEEC@Curve?5defined?5by?5Weierstrass?5equ@ ; `string'
PUBLIC	??_C@_0CC@LOPDHOML@?6?$CI0x?4?4?4?5means?5binary?5polynomial?$CJ@ ; `string'
PUBLIC	??_C@_01DHDKHMHF@6?$AA@				; `string'
PUBLIC	??_C@_01KJLJFBPL@8?$AA@				; `string'
PUBLIC	??_C@_0CL@CPIBMACL@08000000000000000000000000000000@ ; `string'
PUBLIC	??_C@_0CL@NIAKCKHM@02FE13C0537BBC11ACAA07D793DE4E6D@ ; `string'
PUBLIC	??_C@_0CL@JCJOHIPK@0289070FB05D38FF58321F2E800536D5@ ; `string'
PUBLIC	??_C@_0CL@OGGJHJDP@04000000000000000000020108A2E0CC@ ; `string'
PUBLIC	??_C@_01FDFGLJHB@2?$AA@				; `string'
PUBLIC	??_C@_0BB@PNJEKAAA@NIST?5curve?5K?9163?$AA@	; `string'
PUBLIC	??_C@_0BO@EHFMKNGN@?6?$CFs?5?9?9?5Generator?3?6?5?5?5?5?5x?5?$DN?50x?$AA@ ; `string'
PUBLIC	??_C@_0CL@HEOEMBKD@020A601907B8C953CA1481EB10512F78@ ; `string'
PUBLIC	??_C@_0CL@LINOKKFB@03F0EBA16286A2D57EA0991168D49946@ ; `string'
PUBLIC	??_C@_0CL@BNIJOFII@00D51FBC6C71A0094FA2CDD545B11C5C@ ; `string'
PUBLIC	??_C@_0CL@BCAGACCK@040000000000000000000292FE77E70C@ ; `string'
PUBLIC	??_C@_0BB@NKJLPBMI@NIST?5curve?5B?9163?$AA@	; `string'
PUBLIC	??_C@_0DN@CMFGEJKA@02000000000000000000000000000000@ ; `string'
PUBLIC	??_C@_01GBGANLPD@0?$AA@				; `string'
PUBLIC	??_C@_0DN@PMLLGPLO@017232BA853A7E731AF129F22FF41495@ ; `string'
PUBLIC	??_C@_0DN@JNNCCFCL@01DB537DECE819B7F70F555A67C427A8@ ; `string'
PUBLIC	??_C@_0DN@ICANBKHC@00800000000000000000000000000006@ ; `string'
PUBLIC	??_C@_01FAMBOPH@4?$AA@				; `string'
PUBLIC	??_C@_0BB@OJOKMNAF@NIST?5curve?5K?9233?$AA@	; `string'
PUBLIC	??_C@_0DN@CMGNLJKG@00000000000000000000000000000000@ ; `string'
PUBLIC	??_C@_0DN@HFMDPMGE@0066647EDE6C332C7F8C0923BB58213B@ ; `string'
PUBLIC	??_C@_0DN@FGKPOKON@00FAC9DFCBAC8313BB2139F1BB755FEF@ ; `string'
PUBLIC	??_C@_0DN@NGABPGAG@01006A08A41903350678E58528BEBF8A@ ; `string'
PUBLIC	??_C@_0DN@NCBBCNPJ@01000000000000000000000000000013@ ; `string'
PUBLIC	??_C@_0BB@MOOFJMMN@NIST?5curve?5B?9233?$AA@	; `string'
PUBLIC	??_C@_0EJ@JBJAGLBF@08000000000000000000000000000000@ ; `string'
PUBLIC	??_C@_0EJ@PKMPDCLH@0503213F78CA44883F1A3B8162F188E5@ ; `string'
PUBLIC	??_C@_0EJ@NHJKIFIC@01CCDA380F1C9E318D90F95D07E5426F@ ; `string'
PUBLIC	??_C@_0EJ@BABGJLPC@01FFFFFFFFFFFFFFFFFFFFFFFFFFFFFF@ ; `string'
PUBLIC	??_C@_0BB@OFLPCCOE@NIST?5curve?5K?9283?$AA@	; `string'
PUBLIC	??_C@_0EJ@IJMOMPKF@00000000000000000000000000000000@ ; `string'
PUBLIC	??_C@_0EJ@BMCMHGKL@027B680AC8B8596DA5A4AF8A19A0303F@ ; `string'
PUBLIC	??_C@_0EJ@BHGHAALC@05F939258DB7DD90E1934F8C70B0DFEC@ ; `string'
PUBLIC	??_C@_0EJ@JNLPOLB@03676854FE24141CB98FE6D4B20D02B4@ ; `string'
PUBLIC	??_C@_0EJ@DNDJJNNM@03FFFFFFFFFFFFFFFFFFFFFFFFFFFFFF@ ; `string'
PUBLIC	??_C@_0BB@MCLAHDCM@NIST?5curve?5B?9283?$AA@	; `string'
PUBLIC	??_C@_0GJ@KMBGFIOM@02000000000000000000000000000000@ ; `string'
PUBLIC	??_C@_0GJ@JHNGHILE@0060F05F658F49C1AD3AB1890F718421@ ; `string'
PUBLIC	??_C@_0GJ@LELALKNN@01E369050B7C4E42ACBA1DACBF04299C@ ; `string'
PUBLIC	??_C@_0GJ@NAANHFDL@007FFFFFFFFFFFFFFFFFFFFFFFFFFFFF@ ; `string'
PUBLIC	??_C@_0BB@DECIMEAK@NIST?5curve?5K?9409?$AA@	; `string'
PUBLIC	??_C@_0GJ@LFNCJKBA@00000000000000000000000000000000@ ; `string'
PUBLIC	??_C@_0GJ@NBAHPFHH@0021A5C2C8EE9FEB5C4B9A753B7B476B@ ; `string'
PUBLIC	??_C@_0GJ@CLLEPAGO@015D4860D088DDB3496B0C6064756260@ ; `string'
PUBLIC	??_C@_0GJ@DJJIPKHI@0061B1CFAB6BE5F32BBFA78324ED106A@ ; `string'
PUBLIC	??_C@_0GJ@MAKMEDBJ@01000000000000000000000000000000@ ; `string'
PUBLIC	??_C@_0BB@BDCHJFMC@NIST?5curve?5B?9409?$AA@	; `string'
PUBLIC	??_C@_0JA@IMPAOLHO@80000000000000000000000000000000@ ; `string'
PUBLIC	??_C@_0JB@IGIOHLOD@026EB7A859923FBC82189631F8103FE4@ ; `string'
PUBLIC	??_C@_0JB@CLBKOHGL@0349DC807F4FBF374F4AEADE3BCA9531@ ; `string'
PUBLIC	??_C@_0JB@PPPHEALL@02000000000000000000000000000000@ ; `string'
PUBLIC	??_C@_0BB@EBACDPOC@NIST?5curve?5K?9571?$AA@	; `string'
PUBLIC	??_C@_0JB@IHMKNFOJ@00000000000000000000000000000000@ ; `string'
PUBLIC	??_C@_0JB@OOBDGNJO@02F40E7E2221F295DE297117B7F3D62F@ ; `string'
PUBLIC	??_C@_0JB@CJJMMHGF@0303001D34B856296C16C0D40D3CD775@ ; `string'
PUBLIC	??_C@_0JB@BGGOGNH@037BF27342DA639B6DCCFFFEB73D69D7@ ; `string'
PUBLIC	??_C@_0JB@DDELOMEN@03FFFFFFFFFFFFFFFFFFFFFFFFFFFFFF@ ; `string'
PUBLIC	??_C@_0BB@GGANGOCK@NIST?5curve?5B?9571?$AA@	; `string'
PUBLIC	??_C@_0BK@DOGMEADO@testing?5internal?5curves?3?5?$AA@ ; `string'
PUBLIC	??_C@_0DB@LADHHCL@?6EC_GROUP_new_curve_name?$CI?$CJ?5faile@ ; `string'
PUBLIC	??_C@_0CI@LFFCKAOO@?6EC_GROUP_check?$CI?$CJ?5failed?5with?5cu@ ; `string'
PUBLIC	??_C@_09BDOGPPHA@?5failed?6?6?$AA@		; `string'
PUBLIC	??_C@_0BF@CKJKJIOH@OPENSSL_DEBUG_MEMORY?$AA@	; `string'
PUBLIC	??_C@_03MCADLMAF@off?$AA@			; `string'
PUBLIC	??_C@_00CNPNBAHC@?$AA@				; `string'
EXTRN	__imp____acrt_iob_func:PROC
EXTRN	__imp__fflush:PROC
EXTRN	__imp__puts:PROC
EXTRN	__imp____stdio_common_vfprintf:PROC
EXTRN	__imp__exit:PROC
EXTRN	__imp__getenv:PROC
EXTRN	_CRYPTO_mem_ctrl:PROC
EXTRN	_CRYPTO_cleanup_all_ex_data:PROC
EXTRN	_CRYPTO_set_mem_debug_functions:PROC
EXTRN	_CRYPTO_malloc:PROC
EXTRN	_CRYPTO_free:PROC
EXTRN	_CRYPTO_set_mem_debug_options:PROC
EXTRN	_CRYPTO_dbg_malloc:PROC
EXTRN	_CRYPTO_dbg_realloc:PROC
EXTRN	_CRYPTO_dbg_free:PROC
EXTRN	_CRYPTO_dbg_set_options:PROC
EXTRN	_CRYPTO_dbg_get_options:PROC
EXTRN	_CRYPTO_mem_leaks_fp:PROC
EXTRN	_BN_value_one:PROC
EXTRN	_BN_CTX_new:PROC
EXTRN	_BN_CTX_free:PROC
EXTRN	_BN_pseudo_rand:PROC
EXTRN	_BN_num_bits:PROC
EXTRN	_BN_new:PROC
EXTRN	_BN_init:PROC
EXTRN	_BN_sub:PROC
EXTRN	_BN_add:PROC
EXTRN	_BN_mul:PROC
EXTRN	_BN_set_negative:PROC
EXTRN	_BN_set_word:PROC
EXTRN	_BN_cmp:PROC
EXTRN	_BN_free:PROC
EXTRN	_BN_print_fp:PROC
EXTRN	_BN_rshift1:PROC
EXTRN	_BN_hex2bn:PROC
EXTRN	_BN_is_prime_ex:PROC
EXTRN	_EC_GFp_mont_method:PROC
EXTRN	_EC_GF2m_simple_method:PROC
EXTRN	_EC_GROUP_new:PROC
EXTRN	_EC_GROUP_free:PROC
EXTRN	_EC_GROUP_copy:PROC
EXTRN	_EC_GROUP_method_of:PROC
EXTRN	_EC_GROUP_set_generator:PROC
EXTRN	_EC_GROUP_get_order:PROC
EXTRN	_EC_GROUP_set_curve_GFp:PROC
EXTRN	_EC_GROUP_get_curve_GFp:PROC
EXTRN	_EC_GROUP_set_curve_GF2m:PROC
EXTRN	_EC_GROUP_get_curve_GF2m:PROC
EXTRN	_EC_GROUP_get_degree:PROC
EXTRN	_EC_GROUP_check:PROC
EXTRN	_EC_GROUP_new_by_curve_name:PROC
EXTRN	_EC_get_builtin_curves:PROC
EXTRN	_EC_POINT_new:PROC
EXTRN	_EC_POINT_free:PROC
EXTRN	_EC_POINT_copy:PROC
EXTRN	_EC_POINT_set_to_infinity:PROC
EXTRN	_EC_POINT_get_Jprojective_coordinates_GFp:PROC
EXTRN	_EC_POINT_set_affine_coordinates_GFp:PROC
EXTRN	_EC_POINT_get_affine_coordinates_GFp:PROC
EXTRN	_EC_POINT_set_compressed_coordinates_GFp:PROC
EXTRN	_EC_POINT_set_affine_coordinates_GF2m:PROC
EXTRN	_EC_POINT_get_affine_coordinates_GF2m:PROC
EXTRN	_EC_POINT_point2oct:PROC
EXTRN	_EC_POINT_oct2point:PROC
EXTRN	_EC_POINT_add:PROC
EXTRN	_EC_POINT_dbl:PROC
EXTRN	_EC_POINT_invert:PROC
EXTRN	_EC_POINT_is_at_infinity:PROC
EXTRN	_EC_POINT_is_on_curve:PROC
EXTRN	_EC_POINT_cmp:PROC
EXTRN	_EC_POINTs_mul:PROC
EXTRN	_EC_POINT_mul:PROC
EXTRN	_EC_GROUP_precompute_mult:PROC
EXTRN	_RAND_seed:PROC
EXTRN	_ERR_print_errors_fp:PROC
EXTRN	_ERR_load_crypto_strings:PROC
EXTRN	_ERR_free_strings:PROC
EXTRN	_ERR_remove_thread_state:PROC
EXTRN	_OBJ_nid2sn:PROC
EXTRN	_ENGINE_cleanup:PROC
EXTRN	@__security_check_cookie@4:PROC
EXTRN	__chkstk:PROC
EXTRN	___security_cookie:DWORD
_DATA	SEGMENT
COMM	?_OptionsStorage@?1??__local_stdio_printf_options@@9@9:QWORD							; `__local_stdio_printf_options'::`2'::_OptionsStorage
_DATA	ENDS
;	COMDAT ??_C@_00CNPNBAHC@?$AA@
CONST	SEGMENT
??_C@_00CNPNBAHC@?$AA@ DB 00H				; `string'
CONST	ENDS
;	COMDAT ??_C@_03MCADLMAF@off?$AA@
CONST	SEGMENT
??_C@_03MCADLMAF@off?$AA@ DB 'off', 00H			; `string'
CONST	ENDS
;	COMDAT ??_C@_0BF@CKJKJIOH@OPENSSL_DEBUG_MEMORY?$AA@
CONST	SEGMENT
??_C@_0BF@CKJKJIOH@OPENSSL_DEBUG_MEMORY?$AA@ DB 'OPENSSL_DEBUG_MEMORY', 00H ; `string'
CONST	ENDS
;	COMDAT ??_C@_09BDOGPPHA@?5failed?6?6?$AA@
CONST	SEGMENT
??_C@_09BDOGPPHA@?5failed?6?6?$AA@ DB ' failed', 0aH, 0aH, 00H ; `string'
CONST	ENDS
;	COMDAT ??_C@_0CI@LFFCKAOO@?6EC_GROUP_check?$CI?$CJ?5failed?5with?5cu@
CONST	SEGMENT
??_C@_0CI@LFFCKAOO@?6EC_GROUP_check?$CI?$CJ?5failed?5with?5cu@ DB 0aH, 'E'
	DB	'C_GROUP_check() failed with curve %s', 0aH, 00H ; `string'
CONST	ENDS
;	COMDAT ??_C@_0DB@LADHHCL@?6EC_GROUP_new_curve_name?$CI?$CJ?5faile@
CONST	SEGMENT
??_C@_0DB@LADHHCL@?6EC_GROUP_new_curve_name?$CI?$CJ?5faile@ DB 0aH, 'EC_G'
	DB	'ROUP_new_curve_name() failed with curve %s', 0aH, 00H ; `string'
CONST	ENDS
;	COMDAT ??_C@_0BK@DOGMEADO@testing?5internal?5curves?3?5?$AA@
CONST	SEGMENT
??_C@_0BK@DOGMEADO@testing?5internal?5curves?3?5?$AA@ DB 'testing interna'
	DB	'l curves: ', 00H				; `string'
CONST	ENDS
;	COMDAT ??_C@_0BB@GGANGOCK@NIST?5curve?5B?9571?$AA@
CONST	SEGMENT
??_C@_0BB@GGANGOCK@NIST?5curve?5B?9571?$AA@ DB 'NIST curve B-571', 00H ; `string'
CONST	ENDS
;	COMDAT ??_C@_0JB@DDELOMEN@03FFFFFFFFFFFFFFFFFFFFFFFFFFFFFF@
CONST	SEGMENT
??_C@_0JB@DDELOMEN@03FFFFFFFFFFFFFFFFFFFFFFFFFFFFFF@ DB '03FFFFFFFFFFFFFF'
	DB	'FFFFFFFFFFFFFFFFFFFFFFFFFFFFFFFFFFFFFFFFFFFFFFFFFFFFFFFFE661C'
	DB	'E18FF55987308059B186823851EC7DD9CA1161DE93D5174D66E8382E9BB2F'
	DB	'E84E47', 00H				; `string'
CONST	ENDS
;	COMDAT ??_C@_0JB@BGGOGNH@037BF27342DA639B6DCCFFFEB73D69D7@
CONST	SEGMENT
??_C@_0JB@BGGOGNH@037BF27342DA639B6DCCFFFEB73D69D7@ DB '037BF27342DA639B6'
	DB	'DCCFFFEB73D69D78C6C27A6009CBBCA1980F8533921E8A684423E43BAB08A'
	DB	'576291AF8F461BB2A8B3531D2F0485C19B16E2F1516E23DD3C1A4827AF1B8'
	DB	'AC15B', 00H					; `string'
CONST	ENDS
;	COMDAT ??_C@_0JB@CJJMMHGF@0303001D34B856296C16C0D40D3CD775@
CONST	SEGMENT
??_C@_0JB@CJJMMHGF@0303001D34B856296C16C0D40D3CD775@ DB '0303001D34B85629'
	DB	'6C16C0D40D3CD7750A93D1D2955FA80AA5F40FC8DB7B2ABDBDE53950F4C0D'
	DB	'293CDD711A35B67FB1499AE60038614F1394ABFA3B4C850D927E1E7769C8E'
	DB	'EC2D19', 00H				; `string'
CONST	ENDS
;	COMDAT ??_C@_0JB@OOBDGNJO@02F40E7E2221F295DE297117B7F3D62F@
CONST	SEGMENT
??_C@_0JB@OOBDGNJO@02F40E7E2221F295DE297117B7F3D62F@ DB '02F40E7E2221F295'
	DB	'DE297117B7F3D62F5C6A97FFCB8CEFF1CD6BA8CE4A9A18AD84FFABBD8EFA5'
	DB	'9332BE7AD6756A66E294AFD185A78FF12AA520E4DE739BACA0C7FFEFF7F29'
	DB	'55727A', 00H				; `string'
CONST	ENDS
;	COMDAT ??_C@_0JB@IHMKNFOJ@00000000000000000000000000000000@
CONST	SEGMENT
??_C@_0JB@IHMKNFOJ@00000000000000000000000000000000@ DB '0000000000000000'
	DB	'0000000000000000000000000000000000000000000000000000000000000'
	DB	'0000000000000000000000000000000000000000000000000000000000000'
	DB	'000001', 00H				; `string'
CONST	ENDS
;	COMDAT ??_C@_0BB@EBACDPOC@NIST?5curve?5K?9571?$AA@
CONST	SEGMENT
??_C@_0BB@EBACDPOC@NIST?5curve?5K?9571?$AA@ DB 'NIST curve K-571', 00H ; `string'
CONST	ENDS
;	COMDAT ??_C@_0JB@PPPHEALL@02000000000000000000000000000000@
CONST	SEGMENT
??_C@_0JB@PPPHEALL@02000000000000000000000000000000@ DB '0200000000000000'
	DB	'0000000000000000000000000000000000000000000000000000000013185'
	DB	'0E1F19A63E4B391A8DB917F4138B630D84BE5D639381E91DEB45CFE778F63'
	DB	'7C1001', 00H				; `string'
CONST	ENDS
;	COMDAT ??_C@_0JB@CLBKOHGL@0349DC807F4FBF374F4AEADE3BCA9531@
CONST	SEGMENT
??_C@_0JB@CLBKOHGL@0349DC807F4FBF374F4AEADE3BCA9531@ DB '0349DC807F4FBF37'
	DB	'4F4AEADE3BCA95314DD58CEC9F307A54FFC61EFC006D8A2C9D4979C0AC44A'
	DB	'EA74FBEBBB9F772AEDCB620B01A7BA7AF1B320430C8591984F601CD4C143E'
	DB	'F1C7A3', 00H				; `string'
CONST	ENDS
;	COMDAT ??_C@_0JB@IGIOHLOD@026EB7A859923FBC82189631F8103FE4@
CONST	SEGMENT
??_C@_0JB@IGIOHLOD@026EB7A859923FBC82189631F8103FE4@ DB '026EB7A859923FBC'
	DB	'82189631F8103FE4AC9CA2970012D5D46024804801841CA44370958493B20'
	DB	'5E647DA304DB4CEB08CBBD1BA39494776FB988B47174DCA88C7E2945283A0'
	DB	'1C8972', 00H				; `string'
CONST	ENDS
;	COMDAT ??_C@_0JA@IMPAOLHO@80000000000000000000000000000000@
CONST	SEGMENT
??_C@_0JA@IMPAOLHO@80000000000000000000000000000000@ DB '8000000000000000'
	DB	'0000000000000000000000000000000000000000000000000000000000000'
	DB	'0000000000000000000000000000000000000000000000000000000000000'
	DB	'00425', 00H					; `string'
CONST	ENDS
;	COMDAT ??_C@_0BB@BDCHJFMC@NIST?5curve?5B?9409?$AA@
CONST	SEGMENT
??_C@_0BB@BDCHJFMC@NIST?5curve?5B?9409?$AA@ DB 'NIST curve B-409', 00H ; `string'
CONST	ENDS
;	COMDAT ??_C@_0GJ@MAKMEDBJ@01000000000000000000000000000000@
CONST	SEGMENT
??_C@_0GJ@MAKMEDBJ@01000000000000000000000000000000@ DB '0100000000000000'
	DB	'00000000000000000000000000000000000001E2AAD6A612F33307BE5FA47'
	DB	'C3C9E052F838164CD37D9A21173', 00H		; `string'
CONST	ENDS
;	COMDAT ??_C@_0GJ@DJJIPKHI@0061B1CFAB6BE5F32BBFA78324ED106A@
CONST	SEGMENT
??_C@_0GJ@DJJIPKHI@0061B1CFAB6BE5F32BBFA78324ED106A@ DB '0061B1CFAB6BE5F3'
	DB	'2BBFA78324ED106A7636B9C5A7BD198D0158AA4F5488D08F38514F1FDF4B4'
	DB	'F40D2181B3681C364BA0273C706', 00H		; `string'
CONST	ENDS
;	COMDAT ??_C@_0GJ@CLLEPAGO@015D4860D088DDB3496B0C6064756260@
CONST	SEGMENT
??_C@_0GJ@CLLEPAGO@015D4860D088DDB3496B0C6064756260@ DB '015D4860D088DDB3'
	DB	'496B0C6064756260441CDE4AF1771D4DB01FFE5B34E59703DC255A868A118'
	DB	'0515603AEAB60794E54BB7996A7', 00H		; `string'
CONST	ENDS
;	COMDAT ??_C@_0GJ@NBAHPFHH@0021A5C2C8EE9FEB5C4B9A753B7B476B@
CONST	SEGMENT
??_C@_0GJ@NBAHPFHH@0021A5C2C8EE9FEB5C4B9A753B7B476B@ DB '0021A5C2C8EE9FEB'
	DB	'5C4B9A753B7B476B7FD6422EF1F3DD674761FA99D6AC27C8A9A197B272822'
	DB	'F6CD57A55AA4F50AE317B13545F', 00H		; `string'
CONST	ENDS
;	COMDAT ??_C@_0GJ@LFNCJKBA@00000000000000000000000000000000@
CONST	SEGMENT
??_C@_0GJ@LFNCJKBA@00000000000000000000000000000000@ DB '0000000000000000'
	DB	'0000000000000000000000000000000000000000000000000000000000000'
	DB	'000000000000000000000000001', 00H		; `string'
CONST	ENDS
;	COMDAT ??_C@_0BB@DECIMEAK@NIST?5curve?5K?9409?$AA@
CONST	SEGMENT
??_C@_0BB@DECIMEAK@NIST?5curve?5K?9409?$AA@ DB 'NIST curve K-409', 00H ; `string'
CONST	ENDS
;	COMDAT ??_C@_0GJ@NAANHFDL@007FFFFFFFFFFFFFFFFFFFFFFFFFFFFF@
CONST	SEGMENT
??_C@_0GJ@NAANHFDL@007FFFFFFFFFFFFFFFFFFFFFFFFFFFFF@ DB '007FFFFFFFFFFFFF'
	DB	'FFFFFFFFFFFFFFFFFFFFFFFFFFFFFFFFFFFFFE5F83B2D4EA20400EC4557D5'
	DB	'ED3E3E7CA5B4B5C83B8E01E5FCF', 00H		; `string'
CONST	ENDS
;	COMDAT ??_C@_0GJ@LELALKNN@01E369050B7C4E42ACBA1DACBF04299C@
CONST	SEGMENT
??_C@_0GJ@LELALKNN@01E369050B7C4E42ACBA1DACBF04299C@ DB '01E369050B7C4E42'
	DB	'ACBA1DACBF04299C3460782F918EA427E6325165E9EA10E3DA5F6C42E9C55'
	DB	'215AA9CA27A5863EC48D8E0286B', 00H		; `string'
CONST	ENDS
;	COMDAT ??_C@_0GJ@JHNGHILE@0060F05F658F49C1AD3AB1890F718421@
CONST	SEGMENT
??_C@_0GJ@JHNGHILE@0060F05F658F49C1AD3AB1890F718421@ DB '0060F05F658F49C1'
	DB	'AD3AB1890F7184210EFD0987E307C84C27ACCFB8F9F67CC2C460189EB5AAA'
	DB	'A62EE222EB1B35540CFE9023746', 00H		; `string'
CONST	ENDS
;	COMDAT ??_C@_0GJ@KMBGFIOM@02000000000000000000000000000000@
CONST	SEGMENT
??_C@_0GJ@KMBGFIOM@02000000000000000000000000000000@ DB '0200000000000000'
	DB	'0000000000000000000000000000000000000000000000000000000000000'
	DB	'000008000000000000000000001', 00H		; `string'
CONST	ENDS
;	COMDAT ??_C@_0BB@MCLAHDCM@NIST?5curve?5B?9283?$AA@
CONST	SEGMENT
??_C@_0BB@MCLAHDCM@NIST?5curve?5B?9283?$AA@ DB 'NIST curve B-283', 00H ; `string'
CONST	ENDS
;	COMDAT ??_C@_0EJ@DNDJJNNM@03FFFFFFFFFFFFFFFFFFFFFFFFFFFFFF@
CONST	SEGMENT
??_C@_0EJ@DNDJJNNM@03FFFFFFFFFFFFFFFFFFFFFFFFFFFFFF@ DB '03FFFFFFFFFFFFFF'
	DB	'FFFFFFFFFFFFFFFFFFFFEF90399660FC938A90165B042A7CEFADB307', 00H ; `string'
CONST	ENDS
;	COMDAT ??_C@_0EJ@JNLPOLB@03676854FE24141CB98FE6D4B20D02B4@
CONST	SEGMENT
??_C@_0EJ@JNLPOLB@03676854FE24141CB98FE6D4B20D02B4@ DB '03676854FE24141CB'
	DB	'98FE6D4B20D02B4516FF702350EDDB0826779C813F0DF45BE8112F4', 00H ; `string'
CONST	ENDS
;	COMDAT ??_C@_0EJ@BHGHAALC@05F939258DB7DD90E1934F8C70B0DFEC@
CONST	SEGMENT
??_C@_0EJ@BHGHAALC@05F939258DB7DD90E1934F8C70B0DFEC@ DB '05F939258DB7DD90'
	DB	'E1934F8C70B0DFEC2EED25B8557EAC9C80E2E198F8CDBECD86B12053', 00H ; `string'
CONST	ENDS
;	COMDAT ??_C@_0EJ@BMCMHGKL@027B680AC8B8596DA5A4AF8A19A0303F@
CONST	SEGMENT
??_C@_0EJ@BMCMHGKL@027B680AC8B8596DA5A4AF8A19A0303F@ DB '027B680AC8B8596D'
	DB	'A5A4AF8A19A0303FCA97FD7645309FA2A581485AF6263E313B79A2F5', 00H ; `string'
CONST	ENDS
;	COMDAT ??_C@_0EJ@IJMOMPKF@00000000000000000000000000000000@
CONST	SEGMENT
??_C@_0EJ@IJMOMPKF@00000000000000000000000000000000@ DB '0000000000000000'
	DB	'00000000000000000000000000000000000000000000000000000001', 00H ; `string'
CONST	ENDS
;	COMDAT ??_C@_0BB@OFLPCCOE@NIST?5curve?5K?9283?$AA@
CONST	SEGMENT
??_C@_0BB@OFLPCCOE@NIST?5curve?5K?9283?$AA@ DB 'NIST curve K-283', 00H ; `string'
CONST	ENDS
;	COMDAT ??_C@_0EJ@BABGJLPC@01FFFFFFFFFFFFFFFFFFFFFFFFFFFFFF@
CONST	SEGMENT
??_C@_0EJ@BABGJLPC@01FFFFFFFFFFFFFFFFFFFFFFFFFFFFFF@ DB '01FFFFFFFFFFFFFF'
	DB	'FFFFFFFFFFFFFFFFFFFFE9AE2ED07577265DFF7F94451E061E163C61', 00H ; `string'
CONST	ENDS
;	COMDAT ??_C@_0EJ@NHJKIFIC@01CCDA380F1C9E318D90F95D07E5426F@
CONST	SEGMENT
??_C@_0EJ@NHJKIFIC@01CCDA380F1C9E318D90F95D07E5426F@ DB '01CCDA380F1C9E31'
	DB	'8D90F95D07E5426FE87E45C0E8184698E45962364E34116177DD2259', 00H ; `string'
CONST	ENDS
;	COMDAT ??_C@_0EJ@PKMPDCLH@0503213F78CA44883F1A3B8162F188E5@
CONST	SEGMENT
??_C@_0EJ@PKMPDCLH@0503213F78CA44883F1A3B8162F188E5@ DB '0503213F78CA4488'
	DB	'3F1A3B8162F188E553CD265F23C1567A16876913B0C2AC2458492836', 00H ; `string'
CONST	ENDS
;	COMDAT ??_C@_0EJ@JBJAGLBF@08000000000000000000000000000000@
CONST	SEGMENT
??_C@_0EJ@JBJAGLBF@08000000000000000000000000000000@ DB '0800000000000000'
	DB	'000000000000000000000000000000000000000000000000000010A1', 00H ; `string'
CONST	ENDS
;	COMDAT ??_C@_0BB@MOOFJMMN@NIST?5curve?5B?9233?$AA@
CONST	SEGMENT
??_C@_0BB@MOOFJMMN@NIST?5curve?5B?9233?$AA@ DB 'NIST curve B-233', 00H ; `string'
CONST	ENDS
;	COMDAT ??_C@_0DN@NCBBCNPJ@01000000000000000000000000000013@
CONST	SEGMENT
??_C@_0DN@NCBBCNPJ@01000000000000000000000000000013@ DB '0100000000000000'
	DB	'0000000000000013E974E72F8A6922031D2603CFE0D7', 00H ; `string'
CONST	ENDS
;	COMDAT ??_C@_0DN@NGABPGAG@01006A08A41903350678E58528BEBF8A@
CONST	SEGMENT
??_C@_0DN@NGABPGAG@01006A08A41903350678E58528BEBF8A@ DB '01006A08A4190335'
	DB	'0678E58528BEBF8A0BEFF867A7CA36716F7E01F81052', 00H ; `string'
CONST	ENDS
;	COMDAT ??_C@_0DN@FGKPOKON@00FAC9DFCBAC8313BB2139F1BB755FEF@
CONST	SEGMENT
??_C@_0DN@FGKPOKON@00FAC9DFCBAC8313BB2139F1BB755FEF@ DB '00FAC9DFCBAC8313'
	DB	'BB2139F1BB755FEF65BC391F8B36F8F8EB7371FD558B', 00H ; `string'
CONST	ENDS
;	COMDAT ??_C@_0DN@HFMDPMGE@0066647EDE6C332C7F8C0923BB58213B@
CONST	SEGMENT
??_C@_0DN@HFMDPMGE@0066647EDE6C332C7F8C0923BB58213B@ DB '0066647EDE6C332C'
	DB	'7F8C0923BB58213B333B20E9CE4281FE115F7D8F90AD', 00H ; `string'
CONST	ENDS
;	COMDAT ??_C@_0DN@CMGNLJKG@00000000000000000000000000000000@
CONST	SEGMENT
??_C@_0DN@CMGNLJKG@00000000000000000000000000000000@ DB '0000000000000000'
	DB	'00000000000000000000000000000000000000000001', 00H ; `string'
CONST	ENDS
;	COMDAT ??_C@_0BB@OJOKMNAF@NIST?5curve?5K?9233?$AA@
CONST	SEGMENT
??_C@_0BB@OJOKMNAF@NIST?5curve?5K?9233?$AA@ DB 'NIST curve K-233', 00H ; `string'
CONST	ENDS
;	COMDAT ??_C@_01FAMBOPH@4?$AA@
CONST	SEGMENT
??_C@_01FAMBOPH@4?$AA@ DB '4', 00H			; `string'
CONST	ENDS
;	COMDAT ??_C@_0DN@ICANBKHC@00800000000000000000000000000006@
CONST	SEGMENT
??_C@_0DN@ICANBKHC@00800000000000000000000000000006@ DB '0080000000000000'
	DB	'00000000000000069D5BB915BCD46EFB1AD5F173ABDF', 00H ; `string'
CONST	ENDS
;	COMDAT ??_C@_0DN@JNNCCFCL@01DB537DECE819B7F70F555A67C427A8@
CONST	SEGMENT
??_C@_0DN@JNNCCFCL@01DB537DECE819B7F70F555A67C427A8@ DB '01DB537DECE819B7'
	DB	'F70F555A67C427A8CD9BF18AEB9B56E0C11056FAE6A3', 00H ; `string'
CONST	ENDS
;	COMDAT ??_C@_0DN@PMLLGPLO@017232BA853A7E731AF129F22FF41495@
CONST	SEGMENT
??_C@_0DN@PMLLGPLO@017232BA853A7E731AF129F22FF41495@ DB '017232BA853A7E73'
	DB	'1AF129F22FF4149563A419C26BF50A4C9D6EEFAD6126', 00H ; `string'
CONST	ENDS
;	COMDAT ??_C@_01GBGANLPD@0?$AA@
CONST	SEGMENT
??_C@_01GBGANLPD@0?$AA@ DB '0', 00H			; `string'
CONST	ENDS
;	COMDAT ??_C@_0DN@CMFGEJKA@02000000000000000000000000000000@
CONST	SEGMENT
??_C@_0DN@CMFGEJKA@02000000000000000000000000000000@ DB '0200000000000000'
	DB	'00000000000000000000000004000000000000000001', 00H ; `string'
CONST	ENDS
;	COMDAT ??_C@_0BB@NKJLPBMI@NIST?5curve?5B?9163?$AA@
CONST	SEGMENT
??_C@_0BB@NKJLPBMI@NIST?5curve?5B?9163?$AA@ DB 'NIST curve B-163', 00H ; `string'
CONST	ENDS
;	COMDAT ??_C@_0CL@BCAGACCK@040000000000000000000292FE77E70C@
CONST	SEGMENT
??_C@_0CL@BCAGACCK@040000000000000000000292FE77E70C@ DB '0400000000000000'
	DB	'00000292FE77E70C12A4234C33', 00H		; `string'
CONST	ENDS
;	COMDAT ??_C@_0CL@BNIJOFII@00D51FBC6C71A0094FA2CDD545B11C5C@
CONST	SEGMENT
??_C@_0CL@BNIJOFII@00D51FBC6C71A0094FA2CDD545B11C5C@ DB '00D51FBC6C71A009'
	DB	'4FA2CDD545B11C5C0C797324F1', 00H		; `string'
CONST	ENDS
;	COMDAT ??_C@_0CL@LINOKKFB@03F0EBA16286A2D57EA0991168D49946@
CONST	SEGMENT
??_C@_0CL@LINOKKFB@03F0EBA16286A2D57EA0991168D49946@ DB '03F0EBA16286A2D5'
	DB	'7EA0991168D4994637E8343E36', 00H		; `string'
CONST	ENDS
;	COMDAT ??_C@_0CL@HEOEMBKD@020A601907B8C953CA1481EB10512F78@
CONST	SEGMENT
??_C@_0CL@HEOEMBKD@020A601907B8C953CA1481EB10512F78@ DB '020A601907B8C953'
	DB	'CA1481EB10512F78744A3205FD', 00H		; `string'
CONST	ENDS
;	COMDAT ??_C@_0BO@EHFMKNGN@?6?$CFs?5?9?9?5Generator?3?6?5?5?5?5?5x?5?$DN?50x?$AA@
CONST	SEGMENT
??_C@_0BO@EHFMKNGN@?6?$CFs?5?9?9?5Generator?3?6?5?5?5?5?5x?5?$DN?50x?$AA@ DB 0aH
	DB	'%s -- Generator:', 0aH, '     x = 0x', 00H	; `string'
CONST	ENDS
;	COMDAT ??_C@_0BB@PNJEKAAA@NIST?5curve?5K?9163?$AA@
CONST	SEGMENT
??_C@_0BB@PNJEKAAA@NIST?5curve?5K?9163?$AA@ DB 'NIST curve K-163', 00H ; `string'
CONST	ENDS
;	COMDAT ??_C@_01FDFGLJHB@2?$AA@
CONST	SEGMENT
??_C@_01FDFGLJHB@2?$AA@ DB '2', 00H			; `string'
CONST	ENDS
;	COMDAT ??_C@_0CL@OGGJHJDP@04000000000000000000020108A2E0CC@
CONST	SEGMENT
??_C@_0CL@OGGJHJDP@04000000000000000000020108A2E0CC@ DB '0400000000000000'
	DB	'0000020108A2E0CC0D99F8A5EF', 00H		; `string'
CONST	ENDS
;	COMDAT ??_C@_0CL@JCJOHIPK@0289070FB05D38FF58321F2E800536D5@
CONST	SEGMENT
??_C@_0CL@JCJOHIPK@0289070FB05D38FF58321F2E800536D5@ DB '0289070FB05D38FF'
	DB	'58321F2E800536D538CCDAA3D9', 00H		; `string'
CONST	ENDS
;	COMDAT ??_C@_0CL@NIAKCKHM@02FE13C0537BBC11ACAA07D793DE4E6D@
CONST	SEGMENT
??_C@_0CL@NIAKCKHM@02FE13C0537BBC11ACAA07D793DE4E6D@ DB '02FE13C0537BBC11'
	DB	'ACAA07D793DE4E6D5E5C94EEE8', 00H		; `string'
CONST	ENDS
;	COMDAT ??_C@_0CL@CPIBMACL@08000000000000000000000000000000@
CONST	SEGMENT
??_C@_0CL@CPIBMACL@08000000000000000000000000000000@ DB '0800000000000000'
	DB	'000000000000000000000000C9', 00H		; `string'
CONST	ENDS
;	COMDAT ??_C@_01KJLJFBPL@8?$AA@
CONST	SEGMENT
??_C@_01KJLJFBPL@8?$AA@ DB '8', 00H			; `string'
CONST	ENDS
;	COMDAT ??_C@_01DHDKHMHF@6?$AA@
CONST	SEGMENT
??_C@_01DHDKHMHF@6?$AA@ DB '6', 00H			; `string'
CONST	ENDS
;	COMDAT ??_C@_0CC@LOPDHOML@?6?$CI0x?4?4?4?5means?5binary?5polynomial?$CJ@
CONST	SEGMENT
??_C@_0CC@LOPDHOML@?6?$CI0x?4?4?4?5means?5binary?5polynomial?$CJ@ DB 0aH, '('
	DB	'0x... means binary polynomial)', 0aH, 00H	; `string'
CONST	ENDS
;	COMDAT ??_C@_0FA@MHBGMEEC@Curve?5defined?5by?5Weierstrass?5equ@
CONST	SEGMENT
??_C@_0FA@MHBGMEEC@Curve?5defined?5by?5Weierstrass?5equ@ DB 'Curve define'
	DB	'd by Weierstrass equation', 0aH, '     y^2 + x*y = x^3 + a*x^'
	DB	'2 + b  (mod 0x', 00H			; `string'
CONST	ENDS
;	COMDAT ??_C@_01EKENIIDA@3?$AA@
CONST	SEGMENT
??_C@_01EKENIIDA@3?$AA@ DB '3', 00H			; `string'
CONST	ENDS
;	COMDAT ??_C@_02NBHMMMHK@13?$AA@
CONST	SEGMENT
??_C@_02NBHMMMHK@13?$AA@ DB '13', 00H			; `string'
CONST	ENDS
;	COMDAT ??_C@_05EJKMKGKI@?5ok?6?6?$AA@
CONST	SEGMENT
??_C@_05EJKMKGKI@?5ok?6?6?$AA@ DB ' ok', 0aH, 0aH, 00H	; `string'
CONST	ENDS
;	COMDAT ??_C@_0BM@GCECKGMN@combined?5multiplication?5?4?4?4?$AA@
CONST	SEGMENT
??_C@_0BM@GCECKGMN@combined?5multiplication?5?4?4?4?$AA@ DB 'combined mul'
	DB	'tiplication ...', 00H			; `string'
CONST	ENDS
;	COMDAT ??_C@_0IE@IAAHKDDH@11839296A789A3BC0045C8A5FB42C7D1@
CONST	SEGMENT
??_C@_0IE@IAAHKDDH@11839296A789A3BC0045C8A5FB42C7D1@ DB '11839296A789A3BC'
	DB	'0045C8A5FB42C7D1BD998F54449579B446817AFBD17273E662C97EE72995E'
	DB	'F42640C550B9013FAD0761353C7086A272C24088BE94769FD16650', 00H ; `string'
CONST	ENDS
;	COMDAT ??_C@_0CM@LPEONNGM@?6NIST?5curve?5P?9521?5?9?9?5Generator?3?6@
CONST	SEGMENT
??_C@_0CM@LPEONNGM@?6NIST?5curve?5P?9521?5?9?9?5Generator?3?6@ DB 0aH, 'N'
	DB	'IST curve P-521 -- Generator:', 0aH, '     x = 0x', 00H ; `string'
CONST	ENDS
;	COMDAT ??_C@_0IE@DDIDDIA@1FFFFFFFFFFFFFFFFFFFFFFFFFFFFFFF@
CONST	SEGMENT
??_C@_0IE@DDIDDIA@1FFFFFFFFFFFFFFFFFFFFFFFFFFFFFFF@ DB '1FFFFFFFFFFFFFFFF'
	DB	'FFFFFFFFFFFFFFFFFFFFFFFFFFFFFFFFFFFFFFFFFFFFFFFFFA51868783BF2'
	DB	'F966B7FCC0148F709A5D03BB5C9B8899C47AEBB6FB71E91386409', 00H ; `string'
CONST	ENDS
;	COMDAT ??_C@_0ID@OOGMNGNF@C6858E06B70404E9CD9E3ECB662395B4@
CONST	SEGMENT
??_C@_0ID@OOGMNGNF@C6858E06B70404E9CD9E3ECB662395B4@ DB 'C6858E06B70404E9'
	DB	'CD9E3ECB662395B4429C648139053FB521F828AF606B4D3DBAA14B5E77EFE'
	DB	'75928FE1DC127A2FFA8DE3348B3C1856A429BF97E7E31C2E5BD66', 00H ; `string'
CONST	ENDS
;	COMDAT ??_C@_0IE@GOJLJCKA@051953EB9618E1C9A1F929A21A0B6854@
CONST	SEGMENT
??_C@_0IE@GOJLJCKA@051953EB9618E1C9A1F929A21A0B6854@ DB '051953EB9618E1C9'
	DB	'A1F929A21A0B68540EEA2DA725B99B315F3B8B489918EF109E156193951EC'
	DB	'7E937B1652C0BD3BB1BF073573DF883D2C34F1EF451FD46B503F00', 00H ; `string'
CONST	ENDS
;	COMDAT ??_C@_0IE@MECPOLCO@1FFFFFFFFFFFFFFFFFFFFFFFFFFFFFFF@
CONST	SEGMENT
??_C@_0IE@MECPOLCO@1FFFFFFFFFFFFFFFFFFFFFFFFFFFFFFF@ DB '1FFFFFFFFFFFFFFF'
	DB	'FFFFFFFFFFFFFFFFFFFFFFFFFFFFFFFFFFFFFFFFFFFFFFFFFFFFFFFFFFFFF'
	DB	'FFFFFFFFFFFFFFFFFFFFFFFFFFFFFFFFFFFFFFFFFFFFFFFFFFFFFC', 00H ; `string'
CONST	ENDS
;	COMDAT ??_C@_0IE@LJFIBPGL@1FFFFFFFFFFFFFFFFFFFFFFFFFFFFFFF@
CONST	SEGMENT
??_C@_0IE@LJFIBPGL@1FFFFFFFFFFFFFFFFFFFFFFFFFFFFFFF@ DB '1FFFFFFFFFFFFFFF'
	DB	'FFFFFFFFFFFFFFFFFFFFFFFFFFFFFFFFFFFFFFFFFFFFFFFFFFFFFFFFFFFFF'
	DB	'FFFFFFFFFFFFFFFFFFFFFFFFFFFFFFFFFFFFFFFFFFFFFFFFFFFFFF', 00H ; `string'
CONST	ENDS
;	COMDAT ??_C@_0GB@EJCCOFND@3617DE4A96262C6F5D9E98BF9292DC29@
CONST	SEGMENT
??_C@_0GB@EJCCOFND@3617DE4A96262C6F5D9E98BF9292DC29@ DB '3617DE4A96262C6F'
	DB	'5D9E98BF9292DC29F8F41DBD289A147CE9DA3113B5F0B8C00A60B1CE1D7E8'
	DB	'19D7A431D7C90EA0E5F', 00H			; `string'
CONST	ENDS
;	COMDAT ??_C@_0CM@FJLNOJNP@?6NIST?5curve?5P?9384?5?9?9?5Generator?3?6@
CONST	SEGMENT
??_C@_0CM@FJLNOJNP@?6NIST?5curve?5P?9384?5?9?9?5Generator?3?6@ DB 0aH, 'N'
	DB	'IST curve P-384 -- Generator:', 0aH, '     x = 0x', 00H ; `string'
CONST	ENDS
;	COMDAT ??_C@_0GB@IJGNFOHD@FFFFFFFFFFFFFFFFFFFFFFFFFFFFFFFF@
CONST	SEGMENT
??_C@_0GB@IJGNFOHD@FFFFFFFFFFFFFFFFFFFFFFFFFFFFFFFF@ DB 'FFFFFFFFFFFFFFFF'
	DB	'FFFFFFFFFFFFFFFFFFFFFFFFFFFFFFFFC7634D81F4372DDF581A0DB248B0A'
	DB	'77AECEC196ACCC52973', 00H			; `string'
CONST	ENDS
;	COMDAT ??_C@_0GB@GJBBIIPB@AA87CA22BE8B05378EB1C71EF320AD74@
CONST	SEGMENT
??_C@_0GB@GJBBIIPB@AA87CA22BE8B05378EB1C71EF320AD74@ DB 'AA87CA22BE8B0537'
	DB	'8EB1C71EF320AD746E1D3B628BA79B9859F741E082542A385502F25DBF552'
	DB	'96C3A545E3872760AB7', 00H			; `string'
CONST	ENDS
;	COMDAT ??_C@_0GB@GBMGBGKN@B3312FA7E23EE7E4988E056BE3F82D19@
CONST	SEGMENT
??_C@_0GB@GBMGBGKN@B3312FA7E23EE7E4988E056BE3F82D19@ DB 'B3312FA7E23EE7E4'
	DB	'988E056BE3F82D19181D9C6EFE8141120314088F5013875AC656398D8A2ED'
	DB	'19D2A85C8EDD3EC2AEF', 00H			; `string'
CONST	ENDS
;	COMDAT ??_C@_0GB@KNLAOKCG@FFFFFFFFFFFFFFFFFFFFFFFFFFFFFFFF@
CONST	SEGMENT
??_C@_0GB@KNLAOKCG@FFFFFFFFFFFFFFFFFFFFFFFFFFFFFFFF@ DB 'FFFFFFFFFFFFFFFF'
	DB	'FFFFFFFFFFFFFFFFFFFFFFFFFFFFFFFFFFFFFFFFFFFFFFFEFFFFFFFF00000'
	DB	'00000000000FFFFFFFC', 00H			; `string'
CONST	ENDS
;	COMDAT ??_C@_0GB@NAMHBOGD@FFFFFFFFFFFFFFFFFFFFFFFFFFFFFFFF@
CONST	SEGMENT
??_C@_0GB@NAMHBOGD@FFFFFFFFFFFFFFFFFFFFFFFFFFFFFFFF@ DB 'FFFFFFFFFFFFFFFF'
	DB	'FFFFFFFFFFFFFFFFFFFFFFFFFFFFFFFFFFFFFFFFFFFFFFFEFFFFFFFF00000'
	DB	'00000000000FFFFFFFF', 00H			; `string'
CONST	ENDS
;	COMDAT ??_C@_0EB@EAOKNDEN@4FE342E2FE1A7F9B8EE7EB4A7C0F9E16@
CONST	SEGMENT
??_C@_0EB@EAOKNDEN@4FE342E2FE1A7F9B8EE7EB4A7C0F9E16@ DB '4FE342E2FE1A7F9B'
	DB	'8EE7EB4A7C0F9E162BCE33576B315ECECBB6406837BF51F5', 00H ; `string'
CONST	ENDS
;	COMDAT ??_C@_0CM@PMADIOLK@?6NIST?5curve?5P?9256?5?9?9?5Generator?3?6@
CONST	SEGMENT
??_C@_0CM@PMADIOLK@?6NIST?5curve?5P?9256?5?9?9?5Generator?3?6@ DB 0aH, 'N'
	DB	'IST curve P-256 -- Generator:', 0aH, '     x = 0x', 00H ; `string'
CONST	ENDS
;	COMDAT ??_C@_0EB@MIJLAMHG@FFFFFFFF00000000FFFFFFFFFFFFFFFF@
CONST	SEGMENT
??_C@_0EB@MIJLAMHG@FFFFFFFF00000000FFFFFFFFFFFFFFFF@ DB 'FFFFFFFF00000000'
	DB	'FFFFFFFFFFFFFFFFBCE6FAADA7179E84F3B9CAC2FC632551', 00H ; `string'
CONST	ENDS
;	COMDAT ??_C@_0EB@OLPMACDN@6B17D1F2E12C4247F8BCE6E563A440F2@
CONST	SEGMENT
??_C@_0EB@OLPMACDN@6B17D1F2E12C4247F8BCE6E563A440F2@ DB '6B17D1F2E12C4247'
	DB	'F8BCE6E563A440F277037D812DEB33A0F4A13945D898C296', 00H ; `string'
CONST	ENDS
;	COMDAT ??_C@_0EB@CGMLNBOM@5AC635D8AA3A93E7B3EBBD55769886BC@
CONST	SEGMENT
??_C@_0EB@CGMLNBOM@5AC635D8AA3A93E7B3EBBD55769886BC@ DB '5AC635D8AA3A93E7'
	DB	'B3EBBD55769886BC651D06B0CC53B0F63BCE3C3E27D2604B', 00H ; `string'
CONST	ENDS
;	COMDAT ??_C@_0EB@KHNFKCPI@FFFFFFFF000000010000000000000000@
CONST	SEGMENT
??_C@_0EB@KHNFKCPI@FFFFFFFF000000010000000000000000@ DB 'FFFFFFFF00000001'
	DB	'000000000000000000000000FFFFFFFFFFFFFFFFFFFFFFFC', 00H ; `string'
CONST	ENDS
;	COMDAT ??_C@_0EB@NKKCFGLN@FFFFFFFF000000010000000000000000@
CONST	SEGMENT
??_C@_0EB@NKKCFGLN@FFFFFFFF000000010000000000000000@ DB 'FFFFFFFF00000001'
	DB	'000000000000000000000000FFFFFFFFFFFFFFFFFFFFFFFF', 00H ; `string'
CONST	ENDS
;	COMDAT ??_C@_0DJ@EDHFDDJK@BD376388B5F723FB4C22DFE6CD4375A0@
CONST	SEGMENT
??_C@_0DJ@EDHFDDJK@BD376388B5F723FB4C22DFE6CD4375A0@ DB 'BD376388B5F723FB'
	DB	'4C22DFE6CD4375A05A07476444D5819985007E34', 00H ; `string'
CONST	ENDS
;	COMDAT ??_C@_0CM@NAOHNDN@?6NIST?5curve?5P?9224?5?9?9?5Generator?3?6@
CONST	SEGMENT
??_C@_0CM@NAOHNDN@?6NIST?5curve?5P?9224?5?9?9?5Generator?3?6@ DB 0aH, 'NI'
	DB	'ST curve P-224 -- Generator:', 0aH, '     x = 0x', 00H ; `string'
CONST	ENDS
;	COMDAT ??_C@_0DJ@BHCANMNE@FFFFFFFFFFFFFFFFFFFFFFFFFFFF16A2@
CONST	SEGMENT
??_C@_0DJ@BHCANMNE@FFFFFFFFFFFFFFFFFFFFFFFFFFFF16A2@ DB 'FFFFFFFFFFFFFFFF'
	DB	'FFFFFFFFFFFF16A2E0B8F03E13DD29455C5C2A3D', 00H ; `string'
CONST	ENDS
;	COMDAT ??_C@_0DJ@NPHLCOHI@B70E0CBD6BB4BF7F321390B94A03C1D3@
CONST	SEGMENT
??_C@_0DJ@NPHLCOHI@B70E0CBD6BB4BF7F321390B94A03C1D3@ DB 'B70E0CBD6BB4BF7F'
	DB	'321390B94A03C1D356C21122343280D6115C1D21', 00H ; `string'
CONST	ENDS
;	COMDAT ??_C@_0DJ@KCHEMFFJ@B4050A850C04B3ABF54132565044B0B7@
CONST	SEGMENT
??_C@_0DJ@KCHEMFFJ@B4050A850C04B3ABF54132565044B0B7@ DB 'B4050A850C04B3AB'
	DB	'F54132565044B0B7D7BFD8BA270B39432355FFB4', 00H ; `string'
CONST	ENDS
;	COMDAT ??_C@_0DJ@GECEELCG@FFFFFFFFFFFFFFFFFFFFFFFFFFFFFFFE@
CONST	SEGMENT
??_C@_0DJ@GECEELCG@FFFFFFFFFFFFFFFFFFFFFFFFFFFFFFFE@ DB 'FFFFFFFFFFFFFFFF'
	DB	'FFFFFFFFFFFFFFFEFFFFFFFFFFFFFFFFFFFFFFFE', 00H ; `string'
CONST	ENDS
;	COMDAT ??_C@_0DJ@KBMBLOHP@FFFFFFFFFFFFFFFFFFFFFFFFFFFFFFFF@
CONST	SEGMENT
??_C@_0DJ@KBMBLOHP@FFFFFFFFFFFFFFFFFFFFFFFFFFFFFFFF@ DB 'FFFFFFFFFFFFFFFF'
	DB	'FFFFFFFFFFFFFFFF000000000000000000000001', 00H ; `string'
CONST	ENDS
;	COMDAT ??_C@_0DB@PMAOLPKN@07192B95FFC8DA78631011ED6B24CDD5@
CONST	SEGMENT
??_C@_0DB@PMAOLPKN@07192B95FFC8DA78631011ED6B24CDD5@ DB '07192B95FFC8DA78'
	DB	'631011ED6B24CDD573F977A11E794811', 00H	; `string'
CONST	ENDS
;	COMDAT ??_C@_0CM@EHMHPIKF@?6NIST?5curve?5P?9192?5?9?9?5Generator?3?6@
CONST	SEGMENT
??_C@_0CM@EHMHPIKF@?6NIST?5curve?5P?9192?5?9?9?5Generator?3?6@ DB 0aH, 'N'
	DB	'IST curve P-192 -- Generator:', 0aH, '     x = 0x', 00H ; `string'
CONST	ENDS
;	COMDAT ??_C@_0DB@EHFHEEFE@FFFFFFFFFFFFFFFFFFFFFFFF99DEF836@
CONST	SEGMENT
??_C@_0DB@EHFHEEFE@FFFFFFFFFFFFFFFFFFFFFFFF99DEF836@ DB 'FFFFFFFFFFFFFFFF'
	DB	'FFFFFFFF99DEF836146BC9B1B4D22831', 00H	; `string'
CONST	ENDS
;	COMDAT ??_C@_0DB@LHIGDGHO@188DA80EB03090F67CBF20EB43A18800@
CONST	SEGMENT
??_C@_0DB@LHIGDGHO@188DA80EB03090F67CBF20EB43A18800@ DB '188DA80EB03090F6'
	DB	'7CBF20EB43A18800F4FF0AFD82FF1012', 00H	; `string'
CONST	ENDS
;	COMDAT ??_C@_0DB@PLBGALEH@64210519E59C80E70FA7E9AB72243049@
CONST	SEGMENT
??_C@_0DB@PLBGALEH@64210519E59C80E70FA7E9AB72243049@ DB '64210519E59C80E7'
	DB	'0FA7E9AB72243049FEB8DEECC146B9B1', 00H	; `string'
CONST	ENDS
;	COMDAT ??_C@_0DB@EFILCKBL@FFFFFFFFFFFFFFFFFFFFFFFFFFFFFFFE@
CONST	SEGMENT
??_C@_0DB@EFILCKBL@FFFFFFFFFFFFFFFFFFFFFFFFFFFFFFFE@ DB 'FFFFFFFFFFFFFFFF'
	DB	'FFFFFFFFFFFFFFFEFFFFFFFFFFFFFFFC', 00H	; `string'
CONST	ENDS
;	COMDAT ??_C@_0DB@DIPMNOFO@FFFFFFFFFFFFFFFFFFFFFFFFFFFFFFFE@
CONST	SEGMENT
??_C@_0DB@DIPMNOFO@FFFFFFFFFFFFFFFFFFFFFFFFFFFFFFFE@ DB 'FFFFFFFFFFFFFFFF'
	DB	'FFFFFFFFFFFFFFFEFFFFFFFFFFFFFFFF', 00H	; `string'
CONST	ENDS
;	COMDAT ??_C@_0BC@NNIFDGGK@verify?5degree?5?4?4?4?$AA@
CONST	SEGMENT
??_C@_0BC@NNIFDGGK@verify?5degree?5?4?4?4?$AA@ DB 'verify degree ...', 00H ; `string'
CONST	ENDS
;	COMDAT ??_C@_0N@CEPBDNPI@?6?5?5?5?5?5y?5?$DN?50x?$AA@
CONST	SEGMENT
??_C@_0N@CEPBDNPI@?6?5?5?5?5?5y?5?$DN?50x?$AA@ DB 0aH, '     y = 0x', 00H ; `string'
CONST	ENDS
;	COMDAT ??_C@_0DA@NBKFLMMD@?6SEC2?5curve?5secp160r1?5?9?9?5Generat@
CONST	SEGMENT
??_C@_0DA@NBKFLMMD@?6SEC2?5curve?5secp160r1?5?9?9?5Generat@ DB 0aH, 'SEC2'
	DB	' curve secp160r1 -- Generator:', 0aH, '     x = 0x', 00H ; `string'
CONST	ENDS
;	COMDAT ??_C@_0CL@EDKAMPLM@0100000000000000000001F4C8F927AE@
CONST	SEGMENT
??_C@_0CL@EDKAMPLM@0100000000000000000001F4C8F927AE@ DB '0100000000000000'
	DB	'000001F4C8F927AED3CA752257', 00H		; `string'
CONST	ENDS
;	COMDAT ??_C@_0CJ@IFNODPPM@23a628553168947d59dcc91204235137@
CONST	SEGMENT
??_C@_0CJ@IFNODPPM@23a628553168947d59dcc91204235137@ DB '23a628553168947d'
	DB	'59dcc912042351377ac5fb32', 00H		; `string'
CONST	ENDS
;	COMDAT ??_C@_0CJ@MIDIAOCP@4A96B5688EF573284664698968C38BB9@
CONST	SEGMENT
??_C@_0CJ@MIDIAOCP@4A96B5688EF573284664698968C38BB9@ DB '4A96B5688EF57328'
	DB	'4664698968C38BB913CBFC82', 00H		; `string'
CONST	ENDS
;	COMDAT ??_C@_0CJ@CGMIEEHD@1C97BEFC54BD7A8B65ACF89F81D4D4AD@
CONST	SEGMENT
??_C@_0CJ@CGMIEEHD@1C97BEFC54BD7A8B65ACF89F81D4D4AD@ DB '1C97BEFC54BD7A8B'
	DB	'65ACF89F81D4D4ADC565FA45', 00H		; `string'
CONST	ENDS
;	COMDAT ??_C@_0CJ@IKNAKPND@FFFFFFFFFFFFFFFFFFFFFFFFFFFFFFFF@
CONST	SEGMENT
??_C@_0CJ@IKNAKPND@FFFFFFFFFFFFFFFFFFFFFFFFFFFFFFFF@ DB 'FFFFFFFFFFFFFFFF'
	DB	'FFFFFFFFFFFFFFFF7FFFFFFC', 00H		; `string'
CONST	ENDS
;	COMDAT ??_C@_0CJ@PHKHFLJG@FFFFFFFFFFFFFFFFFFFFFFFFFFFFFFFF@
CONST	SEGMENT
??_C@_0CJ@PHKHFLJG@FFFFFFFFFFFFFFFFFFFFFFFFFFFFFFFF@ DB 'FFFFFFFFFFFFFFFF'
	DB	'FFFFFFFFFFFFFFFF7FFFFFFF', 00H		; `string'
CONST	ENDS
;	COMDAT ??_C@_08DOECIOBI@?0?5Z?5?$DN?50x?$AA@
CONST	SEGMENT
??_C@_08DOECIOBI@?0?5Z?5?$DN?50x?$AA@ DB ', Z = 0x', 00H ; `string'
CONST	ENDS
;	COMDAT ??_C@_08PKKJEIF@?0?5Y?5?$DN?50x?$AA@
CONST	SEGMENT
??_C@_08PKKJEIF@?0?5Y?5?$DN?50x?$AA@ DB ', Y = 0x', 00H	; `string'
CONST	ENDS
;	COMDAT ??_C@_0GD@NLMMCCPG@?6A?5representation?5of?5the?5inverse@
CONST	SEGMENT
??_C@_0GD@NLMMCCPG@?6A?5representation?5of?5the?5inverse@ DB 0aH, 'A repr'
	DB	'esentation of the inverse of that generator in', 0aH, 'Jacobi'
	DB	'an projective coordinates:', 0aH, '     X = 0x', 00H ; `string'
CONST	ENDS
;	COMDAT ??_C@_0CP@PHEDNBLP@?6Generator?5as?5octet?5string?0?5hybr@
CONST	SEGMENT
??_C@_0CP@PHEDNBLP@?6Generator?5as?5octet?5string?0?5hybr@ DB 0aH, 'Gener'
	DB	'ator as octet string, hybrid form:', 0aH, '     ', 00H ; `string'
CONST	ENDS
;	COMDAT ??_C@_0DF@LCMILNIB@?6Generator?5as?5octet?5string?0?5unco@
CONST	SEGMENT
??_C@_0DF@LCMILNIB@?6Generator?5as?5octet?5string?0?5unco@ DB 0aH, 'Gener'
	DB	'ator as octet string, uncompressed form:', 0aH, '     ', 00H ; `string'
CONST	ENDS
;	COMDAT ??_C@_04JFFKLGJF@?$CF02X?$AA@
CONST	SEGMENT
??_C@_04JFFKLGJF@?$CF02X?$AA@ DB '%02X', 00H		; `string'
CONST	ENDS
;	COMDAT ??_C@_0DC@JFAFDNDM@Generator?5as?5octet?5string?0?5compr@
CONST	SEGMENT
??_C@_0DC@JFAFDNDM@Generator?5as?5octet?5string?0?5compr@ DB 'Generator a'
	DB	's octet string, compressed form:', 0aH, '     ', 00H ; `string'
CONST	ENDS
;	COMDAT ??_C@_0M@MMHINAIH@?5?5?5?5?5x?5?$DN?50x?$AA@
CONST	SEGMENT
??_C@_0M@MMHINAIH@?5?5?5?5?5x?5?$DN?50x?$AA@ DB '     x = 0x', 00H ; `string'
CONST	ENDS
;	COMDAT ??_C@_0BI@KGAKJGEC@?5?5?5?5?5point?5at?5infinity?6?$AA@
CONST	SEGMENT
??_C@_0BI@KGAKJGEC@?5?5?5?5?5point?5at?5infinity?6?$AA@ DB '     point at'
	DB	' infinity', 0aH, 00H			; `string'
CONST	ENDS
;	COMDAT ??_C@_0BE@MEOPFPBF@A?5cyclic?5subgroup?3?6?$AA@
CONST	SEGMENT
??_C@_0BE@MEOPFPBF@A?5cyclic?5subgroup?3?6?$AA@ DB 'A cyclic subgroup:', 0aH
	DB	00H						; `string'
CONST	ENDS
;	COMDAT ??_C@_08MABHKNBJ@?0?5y?5?$DN?50x?$AA@
CONST	SEGMENT
??_C@_08MABHKNBJ@?0?5y?5?$DN?50x?$AA@ DB ', y = 0x', 00H ; `string'
CONST	ENDS
;	COMDAT ??_C@_0BO@EBGLNJGE@Point?5is?5not?5on?5curve?3?5x?5?$DN?50x?$AA@
CONST	SEGMENT
??_C@_0BO@EBGLNJGE@Point?5is?5not?5on?5curve?3?5x?5?$DN?50x?$AA@ DB 'Poin'
	DB	't is not on curve: x = 0x', 00H		; `string'
CONST	ENDS
;	COMDAT ??_C@_01CKDDGHAB@D?$AA@
CONST	SEGMENT
??_C@_01CKDDGHAB@D?$AA@ DB 'D', 00H			; `string'
CONST	ENDS
;	COMDAT ??_C@_01EEMJAFIK@?6?$AA@
CONST	SEGMENT
??_C@_01EEMJAFIK@?6?$AA@ DB 0aH, 00H			; `string'
CONST	ENDS
;	COMDAT ??_C@_0N@EBCIPFMM@?6?5?5?5?5?5b?5?$DN?50x?$AA@
CONST	SEGMENT
??_C@_0N@EBCIPFMM@?6?5?5?5?5?5b?5?$DN?50x?$AA@ DB 0aH, '     b = 0x', 00H ; `string'
CONST	ENDS
;	COMDAT ??_C@_0O@MNDNFHIM@?$CJ?6?5?5?5?5?5a?5?$DN?50x?$AA@
CONST	SEGMENT
??_C@_0O@MNDNFHIM@?$CJ?6?5?5?5?5?5a?5?$DN?50x?$AA@ DB ')', 0aH, '     a ='
	DB	' 0x', 00H					; `string'
CONST	ENDS
;	COMDAT ??_C@_0EI@GDDNHNIA@Curve?5defined?5by?5Weierstrass?5equ@
CONST	SEGMENT
??_C@_0EI@GDDNHNIA@Curve?5defined?5by?5Weierstrass?5equ@ DB 'Curve define'
	DB	'd by Weierstrass equation', 0aH, '     y^2 = x^3 + a*x + b  ('
	DB	'mod 0x', 00H				; `string'
CONST	ENDS
;	COMDAT ??_C@_01HIHLOKLC@1?$AA@
CONST	SEGMENT
??_C@_01HIHLOKLC@1?$AA@ DB '1', 00H			; `string'
CONST	ENDS
;	COMDAT ??_C@_02LFBAAJHO@17?$AA@
CONST	SEGMENT
??_C@_02LFBAAJHO@17?$AA@ DB '17', 00H			; `string'
CONST	ENDS
;	COMDAT ??_C@_03DJDALPN@ok?6?$AA@
CONST	SEGMENT
??_C@_03DJDALPN@ok?6?$AA@ DB 'ok', 0aH, 00H		; `string'
CONST	ENDS
;	COMDAT ??_C@_0BM@LCLGCHAK@without?5precomputation?5?4?4?4?5?$AA@
CONST	SEGMENT
??_C@_0BM@LCLGCHAK@without?5precomputation?5?4?4?4?5?$AA@ DB 'without pre'
	DB	'computation ... ', 00H			; `string'
CONST	ENDS
;	COMDAT ??_C@_0BN@BNLLKCN@allowing?5precomputation?5?4?4?4?5?$AA@
CONST	SEGMENT
??_C@_0BN@BNLLKCN@allowing?5precomputation?5?4?4?4?5?$AA@ DB 'allowing pr'
	DB	'ecomputation ... ', 00H			; `string'
CONST	ENDS
;	COMDAT ??_C@_0BM@PBNCBNAM@long?1negative?5scalar?5tests?5?$AA@
CONST	SEGMENT
??_C@_0BM@PBNCBNAM@long?1negative?5scalar?5tests?5?$AA@ DB 'long/negative'
	DB	' scalar tests ', 00H			; `string'
CONST	ENDS
;	COMDAT ??_C@_04CFDEAMPI@?5ok?6?$AA@
CONST	SEGMENT
??_C@_04CFDEAMPI@?5ok?6?$AA@ DB ' ok', 0aH, 00H		; `string'
CONST	ENDS
;	COMDAT ??_C@_01LFCBOECM@?4?$AA@
CONST	SEGMENT
??_C@_01LFCBOECM@?4?$AA@ DB '.', 00H			; `string'
CONST	ENDS
;	COMDAT ??_C@_0O@HJBMECNK@?$CFs?3?$CFd?3?5ABORT?6?$AA@
CONST	SEGMENT
??_C@_0O@HJBMECNK@?$CFs?3?$CFd?3?5ABORT?6?$AA@ DB '%s:%d: ABORT', 0aH, 00H ; `string'
CONST	ENDS
;	COMDAT ??_C@_0BF@BDOCEPGI@?4?2crypto?2ec?2ectest?4c?$AA@
CONST	SEGMENT
??_C@_0BF@BDOCEPGI@?4?2crypto?2ec?2ectest?4c?$AA@ DB '.\crypto\ec\ectest.'
	DB	'c', 00H					; `string'
CONST	ENDS
;	COMDAT ??_C@_0BH@KFBLJBMM@verify?5group?5order?5?4?4?4?$AA@
CONST	SEGMENT
??_C@_0BH@KFBLJBMM@verify?5group?5order?5?4?4?4?$AA@ DB 'verify group ord'
	DB	'er ...', 00H				; `string'
CONST	ENDS
; Function compile flags: /Ogtpy
;	COMDAT _main
_TEXT	SEGMENT
_argc$ = 8						; size = 4
_argv$ = 12						; size = 4
_main	PROC						; COMDAT
; File c:\workpace\openssl\openssl-1.0.2h\crypto\ec\ectest.c
; Line 1836
	push	OFFSET ??_C@_0BF@CKJKJIOH@OPENSSL_DEBUG_MEMORY?$AA@
	call	DWORD PTR __imp__getenv
	add	esp, 4
	test	eax, eax
	je	SHORT $LN4@main
	push	esi
	push	OFFSET ??_C@_0BF@CKJKJIOH@OPENSSL_DEBUG_MEMORY?$AA@
	mov	esi, OFFSET ??_C@_03MCADLMAF@off?$AA@
	call	DWORD PTR __imp__getenv
	add	esp, 4
$LL9@main:
	mov	cl, BYTE PTR [eax]
	cmp	cl, BYTE PTR [esi]
	jne	SHORT $LN10@main
	test	cl, cl
	je	SHORT $LN11@main
	mov	cl, BYTE PTR [eax+1]
	cmp	cl, BYTE PTR [esi+1]
	jne	SHORT $LN10@main
	add	eax, 2
	add	esi, 2
	test	cl, cl
	jne	SHORT $LL9@main
$LN11@main:
	xor	eax, eax
	jmp	SHORT $LN12@main
$LN10@main:
	sbb	eax, eax
	or	eax, 1
$LN12@main:
	pop	esi
	test	eax, eax
	jne	SHORT $LN4@main
; Line 1842
	push	eax
	push	eax
	push	eax
	push	eax
	push	eax
	call	_CRYPTO_set_mem_debug_functions
	add	esp, 20					; 00000014H
	jmp	SHORT $LN6@main
$LN4@main:
; Line 1838
	push	OFFSET _CRYPTO_dbg_get_options
	push	OFFSET _CRYPTO_dbg_set_options
	push	OFFSET _CRYPTO_dbg_free
	push	OFFSET _CRYPTO_dbg_realloc
	push	OFFSET _CRYPTO_dbg_malloc
	call	_CRYPTO_set_mem_debug_functions
; Line 1839
	push	3
	call	_CRYPTO_set_mem_debug_options
	add	esp, 24					; 00000018H
$LN6@main:
; Line 1844
	push	1
	call	_CRYPTO_mem_ctrl
; Line 1845
	call	_ERR_load_crypto_strings
; Line 1847
	push	64					; 00000040H
	push	OFFSET _rnd_seed
	call	_RAND_seed
; Line 1849
	call	_prime_field_tests
; Line 1850
	push	OFFSET ??_C@_00CNPNBAHC@?$AA@
	call	DWORD PTR __imp__puts
; Line 1852
	call	_char2_field_tests
; Line 1858
	call	_internal_curve_test
; Line 1861
	call	_ENGINE_cleanup
; Line 1863
	call	_CRYPTO_cleanup_all_ex_data
; Line 1864
	call	_ERR_free_strings
; Line 1865
	push	0
	call	_ERR_remove_thread_state
; Line 1866
	push	2
	call	DWORD PTR __imp____acrt_iob_func
	push	eax
	call	_CRYPTO_mem_leaks_fp
	add	esp, 28					; 0000001cH
; Line 1868
	xor	eax, eax
; Line 1869
	ret	0
_main	ENDP
_TEXT	ENDS
; Function compile flags: /Ogtpy
;	COMDAT _internal_curve_test
_TEXT	SEGMENT
_ok$1$ = -12						; size = 4
_curves$1$ = -8						; size = 4
_crv_len$1$ = -4					; size = 4
_internal_curve_test PROC				; COMDAT
; File c:\workpace\openssl\openssl-1.0.2h\crypto\ec\ectest.c
; Line 1533
	mov	eax, 12					; 0000000cH
	call	__chkstk
	push	ebx
	push	ebp
; Line 1538
	push	0
	push	0
	mov	DWORD PTR _ok$1$[esp+28], 1
	call	_EC_get_builtin_curves
	mov	ebp, eax
; Line 1540
	push	1540					; 00000604H
	push	OFFSET ??_C@_0BF@BDOCEPGI@?4?2crypto?2ec?2ectest?4c?$AA@
	mov	DWORD PTR _crv_len$1$[esp+36], ebp
	lea	ecx, DWORD PTR [ebp*8]
	push	ecx
	call	_CRYPTO_malloc
	mov	ebx, eax
	add	esp, 20					; 00000014H
	mov	DWORD PTR _curves$1$[esp+20], ebx
; Line 1542
	test	ebx, ebx
	je	$LN1@internal_c
; Line 1545
	push	ebp
	push	ebx
	call	_EC_get_builtin_curves
	add	esp, 8
	test	eax, eax
	jne	SHORT $LN9@internal_c
; Line 1546
	push	ebx
	call	_CRYPTO_free
	add	esp, 4
	pop	ebp
	pop	ebx
; Line 1582
	add	esp, 12					; 0000000cH
	ret	0
$LN9@internal_c:
	push	esi
; Line 1550
	mov	esi, DWORD PTR __imp____acrt_iob_func
	push	edi
	push	OFFSET ??_C@_0BK@DOGMEADO@testing?5internal?5curves?3?5?$AA@
	push	1
	call	esi
	add	esp, 4
	push	eax
	call	_fprintf
	add	esp, 8
; Line 1552
	xor	edi, edi
	test	ebp, ebp
	je	$LN19@internal_c
	npad	1
$LL4@internal_c:
; Line 1554
	mov	ebp, DWORD PTR [ebx+edi*8]
; Line 1555
	push	ebp
	call	_EC_GROUP_new_by_curve_name
	mov	ebx, eax
	add	esp, 4
	test	ebx, ebx
	jne	SHORT $LN10@internal_c
; Line 1557
	push	ebp
	mov	DWORD PTR _ok$1$[esp+32], eax
	call	_OBJ_nid2sn
	add	esp, 4
	push	eax
	push	OFFSET ??_C@_0DB@LADHHCL@?6EC_GROUP_new_curve_name?$CI?$CJ?5faile@
	push	1
	call	esi
	add	esp, 4
	push	eax
	call	_fprintf
; Line 1560
	mov	ebp, DWORD PTR __imp__fflush
	add	esp, 12					; 0000000cH
	jmp	SHORT $LN2@internal_c
$LN10@internal_c:
; Line 1562
	push	0
	push	ebx
	call	_EC_GROUP_check
	add	esp, 8
	test	eax, eax
	jne	SHORT $LN11@internal_c
; Line 1564
	push	ebp
	mov	DWORD PTR _ok$1$[esp+32], eax
	call	_OBJ_nid2sn
	add	esp, 4
	push	eax
	push	OFFSET ??_C@_0CI@LFFCKAOO@?6EC_GROUP_check?$CI?$CJ?5failed?5with?5cu@
	push	1
	call	esi
	add	esp, 4
	push	eax
	call	_fprintf
; Line 1566
	push	ebx
	call	_EC_GROUP_free
; Line 1568
	mov	ebp, DWORD PTR __imp__fflush
	add	esp, 16					; 00000010H
	jmp	SHORT $LN2@internal_c
$LN11@internal_c:
; Line 1570
	push	OFFSET ??_C@_01LFCBOECM@?4?$AA@
	push	1
	call	esi
	add	esp, 4
	push	eax
	call	_fprintf
; Line 1571
	push	1
	call	esi
	mov	ebp, DWORD PTR __imp__fflush
	push	eax
	call	ebp
; Line 1572
	push	ebx
	call	_EC_GROUP_free
	add	esp, 20					; 00000014H
$LN2@internal_c:
; Line 1552
	mov	ebx, DWORD PTR _curves$1$[esp+28]
	inc	edi
	cmp	edi, DWORD PTR _crv_len$1$[esp+28]
	jb	$LL4@internal_c
; Line 1574
	mov	eax, DWORD PTR _ok$1$[esp+28]
	test	eax, eax
	jne	SHORT $LN19@internal_c
; Line 1577
	push	OFFSET ??_C@_09BDOGPPHA@?5failed?6?6?$AA@
	push	1
	call	esi
	add	esp, 4
	push	eax
	call	_fprintf
; Line 1578
	push	1
	call	esi
	push	eax
	call	ebp
	add	esp, 16					; 00000010H
	push	1578					; 0000062aH
	push	OFFSET ??_C@_0BF@BDOCEPGI@?4?2crypto?2ec?2ectest?4c?$AA@
	push	OFFSET ??_C@_0O@HJBMECNK@?$CFs?3?$CFd?3?5ABORT?6?$AA@
	push	2
	call	esi
	add	esp, 4
	push	eax
	call	_fprintf
	push	2
	call	esi
	push	eax
	call	_ERR_print_errors_fp
	add	esp, 24					; 00000018H
	push	1
	call	DWORD PTR __imp__exit
$LN25@internal_c:
$LN19@internal_c:
; Line 1575
	push	OFFSET ??_C@_05EJKMKGKI@?5ok?6?6?$AA@
	push	1
	call	esi
	add	esp, 4
	push	eax
	call	_fprintf
; Line 1580
	push	ebx
	call	_CRYPTO_free
	add	esp, 12					; 0000000cH
	pop	edi
	pop	esi
$LN1@internal_c:
	pop	ebp
	pop	ebx
; Line 1582
	add	esp, 12					; 0000000cH
	ret	0
$LN24@internal_c:
_internal_curve_test ENDP
_TEXT	ENDS
; Function compile flags: /Ogtpy
;	COMDAT _char2_field_tests
_TEXT	SEGMENT
_y$ = -204						; size = 4
_x$ = -200						; size = 4
_z$ = -196						; size = 4
_p$ = -192						; size = 4
_a$ = -188						; size = 4
_b$ = -184						; size = 4
_cof$ = -180						; size = 4
_Q$1$ = -176						; size = 4
_R$1$ = -172						; size = 4
_len$1$ = -168						; size = 4
_k$1$ = -168						; size = 4
_C2_K233$1$ = -168					; size = 4
_tmp$1$ = -164						; size = 4
_C2_B163$1$ = -164					; size = 4
_P$1$ = -160						; size = 4
_C2_K163$1$ = -160					; size = 4
_C2_B233$1$ = -156					; size = 4
_C2_K283$1$ = -152					; size = 4
_C2_B283$1$ = -148					; size = 4
_C2_K409$1$ = -144					; size = 4
_C2_B409$1$ = -140					; size = 4
_C2_K571$1$ = -136					; size = 4
_C2_B571$1$ = -132					; size = 4
_scalars$1 = -128					; size = 12
_points$2 = -116					; size = 12
_buf$ = -104						; size = 100
__$ArrayPad$ = -4					; size = 4
_char2_field_tests PROC					; COMDAT
; File c:\workpace\openssl\openssl-1.0.2h\crypto\ec\ectest.c
; Line 1056
	mov	eax, 204				; 000000ccH
	call	__chkstk
	mov	eax, DWORD PTR ___security_cookie
	xor	eax, esp
	mov	DWORD PTR __$ArrayPad$[esp+204], eax
	push	ebp
	push	esi
; Line 1071
	call	_BN_CTX_new
	mov	ebp, eax
; Line 1072
	test	ebp, ebp
	jne	SHORT $LN3@char2_fiel
; Line 1073
	mov	esi, DWORD PTR __imp____acrt_iob_func
	push	1
	call	esi
	push	eax
	call	DWORD PTR __imp__fflush
	add	esp, 8
	push	1073					; 00000431H
$LN1002@char2_fiel:
	push	OFFSET ??_C@_0BF@BDOCEPGI@?4?2crypto?2ec?2ectest?4c?$AA@
	push	OFFSET ??_C@_0O@HJBMECNK@?$CFs?3?$CFd?3?5ABORT?6?$AA@
	push	2
	call	esi
	add	esp, 4
	push	eax
	call	_fprintf
	push	2
	call	esi
	push	eax
	call	_ERR_print_errors_fp
	add	esp, 24					; 00000018H
	push	1
	call	DWORD PTR __imp__exit
$LN1006@char2_fiel:
$LN3@char2_fiel:
; Line 1076
	call	_BN_new
	mov	DWORD PTR _p$[esp+212], eax
; Line 1077
	call	_BN_new
	mov	DWORD PTR _a$[esp+212], eax
; Line 1078
	call	_BN_new
; Line 1079
	cmp	DWORD PTR _p$[esp+212], 0
	mov	DWORD PTR _b$[esp+212], eax
	je	$LN7@char2_fiel
	cmp	DWORD PTR _a$[esp+212], 0
	je	$LN7@char2_fiel
	test	eax, eax
	je	$LN7@char2_fiel
; Line 1082
	lea	eax, DWORD PTR _p$[esp+212]
	push	OFFSET ??_C@_02NBHMMMHK@13?$AA@
	push	eax
	call	_BN_hex2bn
	add	esp, 8
	test	eax, eax
	jne	SHORT $LN9@char2_fiel
; Line 1083
	mov	esi, DWORD PTR __imp____acrt_iob_func
	push	1
	call	esi
	push	eax
	call	DWORD PTR __imp__fflush
	add	esp, 8
	push	1083					; 0000043bH
	jmp	$LN1002@char2_fiel
$LN9@char2_fiel:
; Line 1084
	lea	eax, DWORD PTR _a$[esp+212]
	push	OFFSET ??_C@_01EKENIIDA@3?$AA@
	push	eax
	call	_BN_hex2bn
	add	esp, 8
	test	eax, eax
	jne	SHORT $LN12@char2_fiel
; Line 1085
	mov	esi, DWORD PTR __imp____acrt_iob_func
	push	1
	call	esi
	push	eax
	call	DWORD PTR __imp__fflush
	add	esp, 8
	push	1085					; 0000043dH
	jmp	$LN1002@char2_fiel
$LN12@char2_fiel:
; Line 1086
	lea	eax, DWORD PTR _b$[esp+212]
	push	OFFSET ??_C@_01HIHLOKLC@1?$AA@
	push	eax
	call	_BN_hex2bn
	add	esp, 8
	test	eax, eax
	jne	SHORT $LN15@char2_fiel
; Line 1087
	mov	esi, DWORD PTR __imp____acrt_iob_func
	push	1
	call	esi
	push	eax
	call	DWORD PTR __imp__fflush
	add	esp, 8
	push	1087					; 0000043fH
	jmp	$LN1002@char2_fiel
$LN15@char2_fiel:
; Line 1089
	call	_EC_GF2m_simple_method
	push	eax
	call	_EC_GROUP_new
	mov	esi, eax
	add	esp, 4
; Line 1093
	test	esi, esi
	jne	SHORT $LN18@char2_fiel
; Line 1094
	mov	esi, DWORD PTR __imp____acrt_iob_func
	push	1
	call	esi
	push	eax
	call	DWORD PTR __imp__fflush
	add	esp, 8
	push	1094					; 00000446H
	jmp	$LN1002@char2_fiel
$LN18@char2_fiel:
; Line 1095
	push	ebp
	push	DWORD PTR _b$[esp+216]
	push	DWORD PTR _a$[esp+220]
	push	DWORD PTR _p$[esp+224]
	push	esi
	call	_EC_GROUP_set_curve_GF2m
	add	esp, 20					; 00000014H
	test	eax, eax
	jne	SHORT $LN21@char2_fiel
; Line 1096
	mov	esi, DWORD PTR __imp____acrt_iob_func
	push	1
	call	esi
	push	eax
	call	DWORD PTR __imp__fflush
	add	esp, 8
	push	1096					; 00000448H
	jmp	$LN1002@char2_fiel
$LN21@char2_fiel:
	push	edi
; Line 1100
	push	esi
	call	_EC_GROUP_method_of
	push	eax
	call	_EC_GROUP_new
	mov	edi, eax
	add	esp, 8
	mov	DWORD PTR _tmp$1$[esp+216], edi
; Line 1101
	test	edi, edi
	jne	SHORT $LN24@char2_fiel
; Line 1102
	mov	esi, DWORD PTR __imp____acrt_iob_func
	push	1
	call	esi
	push	eax
	call	DWORD PTR __imp__fflush
	add	esp, 8
	push	1102					; 0000044eH
$LN1003@char2_fiel:
	push	OFFSET ??_C@_0BF@BDOCEPGI@?4?2crypto?2ec?2ectest?4c?$AA@
	push	OFFSET ??_C@_0O@HJBMECNK@?$CFs?3?$CFd?3?5ABORT?6?$AA@
	push	2
	call	esi
	add	esp, 4
	push	eax
	call	_fprintf
	push	2
	call	esi
	push	eax
	call	_ERR_print_errors_fp
	add	esp, 24					; 00000018H
	push	1
	call	DWORD PTR __imp__exit
$LN1007@char2_fiel:
$LN24@char2_fiel:
; Line 1103
	push	esi
	push	edi
	call	_EC_GROUP_copy
	add	esp, 8
	test	eax, eax
	jne	SHORT $LN27@char2_fiel
; Line 1104
	mov	esi, DWORD PTR __imp____acrt_iob_func
	push	1
	call	esi
	push	eax
	call	DWORD PTR __imp__fflush
	add	esp, 8
	push	1104					; 00000450H
	jmp	SHORT $LN1003@char2_fiel
$LN27@char2_fiel:
; Line 1105
	push	esi
	call	_EC_GROUP_free
; Line 1109
	push	ebp
	push	DWORD PTR _b$[esp+224]
	push	DWORD PTR _a$[esp+228]
	push	DWORD PTR _p$[esp+232]
	push	edi
	call	_EC_GROUP_get_curve_GF2m
; Line 1110
	mov	esi, DWORD PTR __imp____acrt_iob_func
	add	esp, 24					; 00000018H
	test	eax, eax
	jne	SHORT $LN30@char2_fiel
	push	1
	call	esi
	push	eax
	call	DWORD PTR __imp__fflush
	add	esp, 8
	push	1110					; 00000456H
	jmp	$LN1003@char2_fiel
$LN30@char2_fiel:
	push	ebx
; Line 1112
	push	OFFSET ??_C@_0FA@MHBGMEEC@Curve?5defined?5by?5Weierstrass?5equ@
	push	1
	call	esi
	add	esp, 4
	push	eax
	call	_fprintf
	add	esp, 8
; Line 1114
	push	DWORD PTR _p$[esp+220]
	push	1
	call	esi
	add	esp, 4
	push	eax
	call	_BN_print_fp
	add	esp, 8
; Line 1115
	push	OFFSET ??_C@_0O@MNDNFHIM@?$CJ?6?5?5?5?5?5a?5?$DN?50x?$AA@
	push	1
	call	esi
	add	esp, 4
	push	eax
	call	_fprintf
	add	esp, 8
; Line 1116
	push	DWORD PTR _a$[esp+220]
	push	1
	call	esi
	add	esp, 4
	push	eax
	call	_BN_print_fp
	add	esp, 8
; Line 1117
	push	OFFSET ??_C@_0N@EBCIPFMM@?6?5?5?5?5?5b?5?$DN?50x?$AA@
	push	1
	call	esi
	add	esp, 4
	push	eax
	call	_fprintf
	add	esp, 8
; Line 1118
	push	DWORD PTR _b$[esp+220]
	push	1
	call	esi
	add	esp, 4
	push	eax
	call	_BN_print_fp
	add	esp, 8
; Line 1119
	push	OFFSET ??_C@_0CC@LOPDHOML@?6?$CI0x?4?4?4?5means?5binary?5polynomial?$CJ@
	push	1
	call	esi
	add	esp, 4
	push	eax
	call	_fprintf
; Line 1121
	push	edi
	call	_EC_POINT_new
	mov	ebx, eax
; Line 1122
	push	edi
	mov	DWORD PTR _P$1$[esp+236], ebx
	call	_EC_POINT_new
; Line 1123
	push	edi
	mov	DWORD PTR _Q$1$[esp+240], eax
	call	_EC_POINT_new
	add	esp, 20					; 00000014H
	mov	DWORD PTR _R$1$[esp+220], eax
; Line 1124
	test	ebx, ebx
	je	$LN34@char2_fiel
	cmp	DWORD PTR _Q$1$[esp+220], 0
	je	$LN34@char2_fiel
	test	eax, eax
	je	$LN34@char2_fiel
; Line 1127
	push	ebx
	push	edi
	call	_EC_POINT_set_to_infinity
	add	esp, 8
	test	eax, eax
	jne	SHORT $LN36@char2_fiel
; Line 1128
	push	1
	call	esi
	push	eax
	call	DWORD PTR __imp__fflush
	add	esp, 8
	push	1128					; 00000468H
$LN1004@char2_fiel:
	push	OFFSET ??_C@_0BF@BDOCEPGI@?4?2crypto?2ec?2ectest?4c?$AA@
	push	OFFSET ??_C@_0O@HJBMECNK@?$CFs?3?$CFd?3?5ABORT?6?$AA@
	push	2
	call	esi
	add	esp, 4
	push	eax
	call	_fprintf
	push	2
	call	esi
	push	eax
	call	_ERR_print_errors_fp
	add	esp, 24					; 00000018H
	push	1
	call	DWORD PTR __imp__exit
$LN1008@char2_fiel:
$LN36@char2_fiel:
; Line 1129
	push	ebx
	push	edi
	call	_EC_POINT_is_at_infinity
	add	esp, 8
	test	eax, eax
	jne	SHORT $LN39@char2_fiel
; Line 1130
	push	1
	call	esi
	push	eax
	call	DWORD PTR __imp__fflush
	add	esp, 8
	push	1130					; 0000046aH
	jmp	SHORT $LN1004@char2_fiel
$LN39@char2_fiel:
; Line 1133
	push	ebp
	push	1
	lea	eax, DWORD PTR _buf$[esp+228]
	mov	BYTE PTR _buf$[esp+228], 0
	push	eax
	push	DWORD PTR _Q$1$[esp+232]
	push	edi
	call	_EC_POINT_oct2point
	add	esp, 20					; 00000014H
	test	eax, eax
	jne	SHORT $LN42@char2_fiel
; Line 1134
	push	1
	call	esi
	push	eax
	call	DWORD PTR __imp__fflush
	add	esp, 8
	push	1134					; 0000046eH
	jmp	$LN1004@char2_fiel
$LN42@char2_fiel:
; Line 1136
	push	ebp
	push	DWORD PTR _Q$1$[esp+224]
	push	ebx
	push	ebx
	push	edi
	call	_EC_POINT_add
	add	esp, 20					; 00000014H
	test	eax, eax
	jne	SHORT $LN45@char2_fiel
; Line 1137
	push	1
	call	esi
	push	eax
	call	DWORD PTR __imp__fflush
	add	esp, 8
	push	1137					; 00000471H
	jmp	$LN1004@char2_fiel
$LN45@char2_fiel:
; Line 1138
	push	ebx
	push	edi
	call	_EC_POINT_is_at_infinity
	add	esp, 8
	test	eax, eax
	jne	SHORT $LN48@char2_fiel
; Line 1139
	push	1
	call	esi
	push	eax
	call	DWORD PTR __imp__fflush
	add	esp, 8
	push	1139					; 00000473H
	jmp	$LN1004@char2_fiel
$LN48@char2_fiel:
; Line 1141
	call	_BN_new
	mov	DWORD PTR _x$[esp+220], eax
; Line 1142
	call	_BN_new
	mov	DWORD PTR _y$[esp+220], eax
; Line 1143
	call	_BN_new
	mov	DWORD PTR _z$[esp+220], eax
; Line 1144
	call	_BN_new
; Line 1145
	cmp	DWORD PTR _x$[esp+220], 0
	mov	DWORD PTR _cof$[esp+220], eax
	je	$LN52@char2_fiel
	cmp	DWORD PTR _y$[esp+220], 0
	je	$LN52@char2_fiel
	cmp	DWORD PTR _z$[esp+220], 0
	je	$LN52@char2_fiel
	test	eax, eax
	je	$LN52@char2_fiel
; Line 1148
	lea	eax, DWORD PTR _x$[esp+220]
	push	OFFSET ??_C@_01DHDKHMHF@6?$AA@
	push	eax
	call	_BN_hex2bn
	add	esp, 8
	test	eax, eax
	jne	SHORT $LN54@char2_fiel
; Line 1149
	push	1
	call	esi
	push	eax
	call	DWORD PTR __imp__fflush
	add	esp, 8
	push	1149					; 0000047dH
	jmp	$LN1004@char2_fiel
$LN54@char2_fiel:
; Line 1155
	lea	eax, DWORD PTR _y$[esp+220]
	push	OFFSET ??_C@_01KJLJFBPL@8?$AA@
	push	eax
	call	_BN_hex2bn
	add	esp, 8
	test	eax, eax
	jne	SHORT $LN57@char2_fiel
; Line 1156
	push	1
	call	esi
	push	eax
	call	DWORD PTR __imp__fflush
	add	esp, 8
	push	1156					; 00000484H
	jmp	$LN1004@char2_fiel
$LN57@char2_fiel:
; Line 1157
	push	ebp
	push	DWORD PTR _y$[esp+224]
	push	DWORD PTR _x$[esp+228]
	push	DWORD PTR _Q$1$[esp+232]
	push	edi
	call	_EC_POINT_set_affine_coordinates_GF2m
	add	esp, 20					; 00000014H
	test	eax, eax
	jne	SHORT $LN60@char2_fiel
; Line 1158
	push	1
	call	esi
	push	eax
	call	DWORD PTR __imp__fflush
	add	esp, 8
	push	1158					; 00000486H
	jmp	$LN1004@char2_fiel
$LN60@char2_fiel:
; Line 1160
	push	ebp
	push	DWORD PTR _Q$1$[esp+224]
	push	edi
	call	_EC_POINT_is_on_curve
	add	esp, 12					; 0000000cH
	test	eax, eax
	jg	SHORT $LN63@char2_fiel
; Line 1166
	push	OFFSET ??_C@_0BO@EBGLNJGE@Point?5is?5not?5on?5curve?3?5x?5?$DN?50x?$AA@
	push	2
	call	esi
	add	esp, 4
	push	eax
	call	_fprintf
	add	esp, 8
; Line 1167
	push	DWORD PTR _x$[esp+220]
	push	2
	call	esi
	add	esp, 4
	push	eax
	call	_BN_print_fp
	add	esp, 8
; Line 1168
	push	OFFSET ??_C@_08MABHKNBJ@?0?5y?5?$DN?50x?$AA@
	push	2
	call	esi
	add	esp, 4
	push	eax
	call	_fprintf
	add	esp, 8
; Line 1169
	push	DWORD PTR _y$[esp+220]
	push	2
	call	esi
	add	esp, 4
	push	eax
	call	_BN_print_fp
	add	esp, 8
; Line 1170
	push	OFFSET ??_C@_01EEMJAFIK@?6?$AA@
	push	2
	call	esi
	add	esp, 4
	push	eax
	call	_fprintf
; Line 1171
	push	1
	call	esi
	push	eax
	call	DWORD PTR __imp__fflush
	add	esp, 16					; 00000010H
	push	1171					; 00000493H
	jmp	$LN1004@char2_fiel
$LN63@char2_fiel:
; Line 1174
	push	OFFSET ??_C@_0BE@MEOPFPBF@A?5cyclic?5subgroup?3?6?$AA@
	push	1
	call	esi
	add	esp, 4
	push	eax
	call	_fprintf
	add	esp, 8
; Line 1175
	mov	ecx, 100				; 00000064H
$LL67@char2_fiel:
; Line 1177
	mov	eax, ecx
	dec	ecx
	mov	DWORD PTR _k$1$[esp+220], ecx
	test	eax, eax
	je	$LN988@char2_fiel
; Line 1180
	push	ebx
	push	edi
	call	_EC_POINT_is_at_infinity
	add	esp, 8
	test	eax, eax
	je	SHORT $LN621@char2_fiel
; Line 1181
	push	OFFSET ??_C@_0BI@KGAKJGEC@?5?5?5?5?5point?5at?5infinity?6?$AA@
	jmp	SHORT $LN1001@char2_fiel
$LN621@char2_fiel:
; Line 1183
	push	ebp
	push	DWORD PTR _y$[esp+224]
	push	DWORD PTR _x$[esp+228]
	push	ebx
	push	edi
	call	_EC_POINT_get_affine_coordinates_GF2m
	add	esp, 20					; 00000014H
	test	eax, eax
	je	$LN990@char2_fiel
; Line 1186
	push	OFFSET ??_C@_0M@MMHINAIH@?5?5?5?5?5x?5?$DN?50x?$AA@
	push	1
	call	esi
	add	esp, 4
	push	eax
	call	_fprintf
	add	esp, 8
; Line 1187
	push	DWORD PTR _x$[esp+220]
	push	1
	call	esi
	add	esp, 4
	push	eax
	call	_BN_print_fp
	add	esp, 8
; Line 1188
	push	OFFSET ??_C@_08MABHKNBJ@?0?5y?5?$DN?50x?$AA@
	push	1
	call	esi
	add	esp, 4
	push	eax
	call	_fprintf
	add	esp, 8
; Line 1189
	push	DWORD PTR _y$[esp+220]
	push	1
	call	esi
	add	esp, 4
	push	eax
	call	_BN_print_fp
	add	esp, 8
; Line 1190
	push	OFFSET ??_C@_01EEMJAFIK@?6?$AA@
$LN1001@char2_fiel:
	push	1
	call	esi
	add	esp, 4
	push	eax
	call	_fprintf
	add	esp, 8
; Line 1193
	push	ebx
	push	DWORD PTR _R$1$[esp+224]
	call	_EC_POINT_copy
	add	esp, 8
	test	eax, eax
	je	$LN991@char2_fiel
; Line 1195
	push	ebp
	push	DWORD PTR _Q$1$[esp+224]
	push	ebx
	push	ebx
	push	edi
	call	_EC_POINT_add
	add	esp, 20					; 00000014H
	test	eax, eax
	je	$LN992@char2_fiel
; Line 1198
	push	ebx
	push	edi
	call	_EC_POINT_is_at_infinity
	mov	ecx, DWORD PTR _k$1$[esp+228]
	add	esp, 8
	test	eax, eax
	je	$LL67@char2_fiel
; Line 1200
	push	ebp
	push	DWORD PTR _R$1$[esp+224]
	push	DWORD PTR _Q$1$[esp+228]
	push	ebx
	push	edi
	call	_EC_POINT_add
	add	esp, 20					; 00000014H
	test	eax, eax
	jne	SHORT $LN81@char2_fiel
; Line 1201
	push	1
	call	esi
	push	eax
	call	DWORD PTR __imp__fflush
	add	esp, 8
	push	1201					; 000004b1H
	jmp	$LN1004@char2_fiel
$LN81@char2_fiel:
; Line 1202
	push	ebx
	push	edi
	call	_EC_POINT_is_at_infinity
	add	esp, 8
	test	eax, eax
	jne	SHORT $LN84@char2_fiel
; Line 1203
	push	1
	call	esi
	push	eax
	call	DWORD PTR __imp__fflush
	add	esp, 8
	push	1203					; 000004b3H
	jmp	$LN1004@char2_fiel
$LN84@char2_fiel:
; Line 1221
	push	ebp
	push	100					; 00000064H
	lea	eax, DWORD PTR _buf$[esp+228]
	push	eax
	push	4
	push	DWORD PTR _Q$1$[esp+236]
	push	edi
	call	_EC_POINT_point2oct
	add	esp, 24					; 00000018H
	mov	DWORD PTR _len$1$[esp+220], eax
; Line 1224
	test	eax, eax
	jne	SHORT $LN87@char2_fiel
; Line 1225
	push	1
	call	esi
	push	eax
	call	DWORD PTR __imp__fflush
	add	esp, 8
	push	1225					; 000004c9H
	jmp	$LN1004@char2_fiel
$LN87@char2_fiel:
; Line 1226
	push	ebp
	push	eax
	lea	eax, DWORD PTR _buf$[esp+228]
	push	eax
	push	ebx
	push	edi
	call	_EC_POINT_oct2point
	add	esp, 20					; 00000014H
	test	eax, eax
	jne	SHORT $LN90@char2_fiel
; Line 1227
	push	1
	call	esi
	push	eax
	call	DWORD PTR __imp__fflush
	add	esp, 8
	push	1227					; 000004cbH
	jmp	$LN1004@char2_fiel
$LN90@char2_fiel:
; Line 1228
	push	ebp
	push	DWORD PTR _Q$1$[esp+224]
	push	ebx
	push	edi
	call	_EC_POINT_cmp
	add	esp, 16					; 00000010H
	test	eax, eax
	je	SHORT $LN93@char2_fiel
; Line 1229
	push	1
	call	esi
	push	eax
	call	DWORD PTR __imp__fflush
	add	esp, 8
	push	1229					; 000004cdH
	jmp	$LN1004@char2_fiel
$LN93@char2_fiel:
; Line 1230
	push	OFFSET ??_C@_0DF@LCMILNIB@?6Generator?5as?5octet?5string?0?5unco@
	push	1
	call	esi
	add	esp, 4
	push	eax
	call	_fprintf
	add	esp, 8
; Line 1231
	cmp	DWORD PTR _len$1$[esp+220], 0
	jbe	SHORT $LN96@char2_fiel
	mov	ebx, DWORD PTR _len$1$[esp+220]
	xor	edi, edi
$LL97@char2_fiel:
; Line 1232
	movzx	eax, BYTE PTR _buf$[esp+edi+220]
	push	eax
	push	OFFSET ??_C@_04JFFKLGJF@?$CF02X?$AA@
	push	1
	call	esi
	add	esp, 4
	push	eax
	call	_fprintf
	inc	edi
	add	esp, 12					; 0000000cH
	cmp	edi, ebx
	jb	SHORT $LL97@char2_fiel
	mov	edi, DWORD PTR _tmp$1$[esp+220]
	mov	ebx, DWORD PTR _P$1$[esp+220]
$LN96@char2_fiel:
; Line 1250
	push	OFFSET ??_C@_01EEMJAFIK@?6?$AA@
	push	1
	call	esi
	add	esp, 4
	push	eax
	call	_fprintf
; Line 1252
	push	ebp
	push	ebx
	push	edi
	call	_EC_POINT_invert
	add	esp, 20					; 00000014H
	test	eax, eax
	jne	SHORT $LN99@char2_fiel
; Line 1253
	push	1
	call	esi
	push	eax
	call	DWORD PTR __imp__fflush
	add	esp, 8
	push	1253					; 000004e5H
	jmp	$LN1004@char2_fiel
$LN99@char2_fiel:
; Line 1254
	push	ebp
	push	DWORD PTR _R$1$[esp+224]
	push	ebx
	push	edi
	call	_EC_POINT_cmp
	add	esp, 16					; 00000010H
	test	eax, eax
	je	SHORT $LN102@char2_fiel
; Line 1255
	push	1
	call	esi
	push	eax
	call	DWORD PTR __imp__fflush
	add	esp, 8
	push	1255					; 000004e7H
	jmp	$LN1004@char2_fiel
$LN102@char2_fiel:
; Line 1258
	lea	eax, DWORD PTR _p$[esp+220]
	push	OFFSET ??_C@_0CL@CPIBMACL@08000000000000000000000000000000@
	push	eax
	call	_BN_hex2bn
	add	esp, 8
	test	eax, eax
	jne	SHORT $LN105@char2_fiel
	push	1
	call	esi
	push	eax
	call	DWORD PTR __imp__fflush
	add	esp, 8
	push	1265					; 000004f1H
	jmp	$LN1004@char2_fiel
$LN105@char2_fiel:
	lea	eax, DWORD PTR _a$[esp+220]
	push	OFFSET ??_C@_01HIHLOKLC@1?$AA@
	push	eax
	call	_BN_hex2bn
	add	esp, 8
	test	eax, eax
	jne	SHORT $LN108@char2_fiel
	push	1
	call	esi
	push	eax
	call	DWORD PTR __imp__fflush
	add	esp, 8
	push	1265					; 000004f1H
	jmp	$LN1004@char2_fiel
$LN108@char2_fiel:
	lea	eax, DWORD PTR _b$[esp+220]
	push	OFFSET ??_C@_01HIHLOKLC@1?$AA@
	push	eax
	call	_BN_hex2bn
	add	esp, 8
	test	eax, eax
	jne	SHORT $LN111@char2_fiel
	push	1
	call	esi
	push	eax
	call	DWORD PTR __imp__fflush
	add	esp, 8
	push	1265					; 000004f1H
	jmp	$LN1004@char2_fiel
$LN111@char2_fiel:
	push	ebp
	push	DWORD PTR _b$[esp+224]
	push	DWORD PTR _a$[esp+228]
	push	DWORD PTR _p$[esp+232]
	push	edi
	call	_EC_GROUP_set_curve_GF2m
	add	esp, 20					; 00000014H
	test	eax, eax
	jne	SHORT $LN114@char2_fiel
	push	1
	call	esi
	push	eax
	call	DWORD PTR __imp__fflush
	add	esp, 8
	push	1265					; 000004f1H
	jmp	$LN1004@char2_fiel
$LN114@char2_fiel:
	lea	eax, DWORD PTR _x$[esp+220]
	push	OFFSET ??_C@_0CL@NIAKCKHM@02FE13C0537BBC11ACAA07D793DE4E6D@
	push	eax
	call	_BN_hex2bn
	add	esp, 8
	test	eax, eax
	jne	SHORT $LN117@char2_fiel
	push	1
	call	esi
	push	eax
	call	DWORD PTR __imp__fflush
	add	esp, 8
	push	1265					; 000004f1H
	jmp	$LN1004@char2_fiel
$LN117@char2_fiel:
	lea	eax, DWORD PTR _y$[esp+220]
	push	OFFSET ??_C@_0CL@JCJOHIPK@0289070FB05D38FF58321F2E800536D5@
	push	eax
	call	_BN_hex2bn
	add	esp, 8
	test	eax, eax
	jne	SHORT $LN120@char2_fiel
	push	1
	call	esi
	push	eax
	call	DWORD PTR __imp__fflush
	add	esp, 8
	push	1265					; 000004f1H
	jmp	$LN1004@char2_fiel
$LN120@char2_fiel:
	push	ebp
	push	DWORD PTR _y$[esp+224]
	push	DWORD PTR _x$[esp+228]
	push	ebx
	push	edi
	call	_EC_POINT_set_affine_coordinates_GF2m
	add	esp, 20					; 00000014H
	test	eax, eax
	jne	SHORT $LN123@char2_fiel
	push	1
	call	esi
	push	eax
	call	DWORD PTR __imp__fflush
	add	esp, 8
	push	1265					; 000004f1H
	jmp	$LN1004@char2_fiel
$LN123@char2_fiel:
	push	ebp
	push	ebx
	push	edi
	call	_EC_POINT_is_on_curve
	add	esp, 12					; 0000000cH
	test	eax, eax
	jg	SHORT $LN126@char2_fiel
	push	1
	call	esi
	push	eax
	call	DWORD PTR __imp__fflush
	add	esp, 8
	push	1265					; 000004f1H
	jmp	$LN1004@char2_fiel
$LN126@char2_fiel:
	lea	eax, DWORD PTR _z$[esp+220]
	push	OFFSET ??_C@_0CL@OGGJHJDP@04000000000000000000020108A2E0CC@
	push	eax
	call	_BN_hex2bn
	add	esp, 8
	test	eax, eax
	jne	SHORT $LN129@char2_fiel
	push	1
	call	esi
	push	eax
	call	DWORD PTR __imp__fflush
	add	esp, 8
	push	1265					; 000004f1H
	jmp	$LN1004@char2_fiel
$LN129@char2_fiel:
	lea	eax, DWORD PTR _cof$[esp+220]
	push	OFFSET ??_C@_01FDFGLJHB@2?$AA@
	push	eax
	call	_BN_hex2bn
	add	esp, 8
	test	eax, eax
	jne	SHORT $LN132@char2_fiel
	push	1
	call	esi
	push	eax
	call	DWORD PTR __imp__fflush
	add	esp, 8
	push	1265					; 000004f1H
	jmp	$LN1004@char2_fiel
$LN132@char2_fiel:
	push	DWORD PTR _cof$[esp+220]
	push	DWORD PTR _z$[esp+224]
	push	ebx
	push	edi
	call	_EC_GROUP_set_generator
	add	esp, 16					; 00000010H
	test	eax, eax
	jne	SHORT $LN135@char2_fiel
	push	1
	call	esi
	push	eax
	call	DWORD PTR __imp__fflush
	add	esp, 8
	push	1265					; 000004f1H
	jmp	$LN1004@char2_fiel
$LN135@char2_fiel:
	push	OFFSET ??_C@_0BB@PNJEKAAA@NIST?5curve?5K?9163?$AA@
	push	OFFSET ??_C@_0BO@EHFMKNGN@?6?$CFs?5?9?9?5Generator?3?6?5?5?5?5?5x?5?$DN?50x?$AA@
	push	1
	call	esi
	add	esp, 4
	push	eax
	call	_fprintf
	add	esp, 12					; 0000000cH
	push	DWORD PTR _x$[esp+220]
	push	1
	call	esi
	add	esp, 4
	push	eax
	call	_BN_print_fp
	add	esp, 8
	push	OFFSET ??_C@_0N@CEPBDNPI@?6?5?5?5?5?5y?5?$DN?50x?$AA@
	push	1
	call	esi
	add	esp, 4
	push	eax
	call	_fprintf
	add	esp, 8
	push	DWORD PTR _y$[esp+220]
	push	1
	call	esi
	add	esp, 4
	push	eax
	call	_BN_print_fp
	add	esp, 8
	push	OFFSET ??_C@_01EEMJAFIK@?6?$AA@
	push	1
	call	esi
	add	esp, 4
	push	eax
	call	_fprintf
	add	esp, 8
	push	OFFSET ??_C@_0BC@NNIFDGGK@verify?5degree?5?4?4?4?$AA@
	push	1
	call	esi
	add	esp, 4
	push	eax
	call	_fprintf
	push	edi
	call	_EC_GROUP_get_degree
	add	esp, 12					; 0000000cH
	cmp	eax, 163				; 000000a3H
	je	SHORT $LN138@char2_fiel
	push	1
	call	esi
	push	eax
	call	DWORD PTR __imp__fflush
	add	esp, 8
	push	1265					; 000004f1H
	jmp	$LN1004@char2_fiel
$LN138@char2_fiel:
	push	OFFSET ??_C@_04CFDEAMPI@?5ok?6?$AA@
	push	1
	call	esi
	add	esp, 4
	push	eax
	call	_fprintf
	push	edi
	call	_group_order_tests
	push	edi
	call	_EC_GROUP_method_of
	push	eax
	call	_EC_GROUP_new
	add	esp, 20					; 00000014H
	mov	DWORD PTR _C2_K163$1$[esp+220], eax
	test	eax, eax
	jne	SHORT $LN141@char2_fiel
	push	1
	call	esi
	push	eax
	call	DWORD PTR __imp__fflush
	add	esp, 8
	push	1265					; 000004f1H
	jmp	$LN1004@char2_fiel
$LN141@char2_fiel:
	push	edi
	push	eax
	call	_EC_GROUP_copy
	add	esp, 8
	test	eax, eax
	jne	SHORT $LN144@char2_fiel
	push	1
	call	esi
	push	eax
	call	DWORD PTR __imp__fflush
	add	esp, 8
	push	1265					; 000004f1H
	jmp	$LN1004@char2_fiel
$LN144@char2_fiel:
; Line 1268
	lea	eax, DWORD PTR _p$[esp+220]
	push	OFFSET ??_C@_0CL@CPIBMACL@08000000000000000000000000000000@
	push	eax
	call	_BN_hex2bn
	add	esp, 8
	test	eax, eax
	jne	SHORT $LN147@char2_fiel
	push	1
	call	esi
	push	eax
	call	DWORD PTR __imp__fflush
	add	esp, 8
	push	1275					; 000004fbH
	jmp	$LN1004@char2_fiel
$LN147@char2_fiel:
	lea	eax, DWORD PTR _a$[esp+220]
	push	OFFSET ??_C@_01HIHLOKLC@1?$AA@
	push	eax
	call	_BN_hex2bn
	add	esp, 8
	test	eax, eax
	jne	SHORT $LN150@char2_fiel
	push	1
	call	esi
	push	eax
	call	DWORD PTR __imp__fflush
	add	esp, 8
	push	1275					; 000004fbH
	jmp	$LN1004@char2_fiel
$LN150@char2_fiel:
	lea	eax, DWORD PTR _b$[esp+220]
	push	OFFSET ??_C@_0CL@HEOEMBKD@020A601907B8C953CA1481EB10512F78@
	push	eax
	call	_BN_hex2bn
	add	esp, 8
	test	eax, eax
	jne	SHORT $LN153@char2_fiel
	push	1
	call	esi
	push	eax
	call	DWORD PTR __imp__fflush
	add	esp, 8
	push	1275					; 000004fbH
	jmp	$LN1004@char2_fiel
$LN153@char2_fiel:
	push	ebp
	push	DWORD PTR _b$[esp+224]
	push	DWORD PTR _a$[esp+228]
	push	DWORD PTR _p$[esp+232]
	push	edi
	call	_EC_GROUP_set_curve_GF2m
	add	esp, 20					; 00000014H
	test	eax, eax
	jne	SHORT $LN156@char2_fiel
	push	1
	call	esi
	push	eax
	call	DWORD PTR __imp__fflush
	add	esp, 8
	push	1275					; 000004fbH
	jmp	$LN1004@char2_fiel
$LN156@char2_fiel:
	lea	eax, DWORD PTR _x$[esp+220]
	push	OFFSET ??_C@_0CL@LINOKKFB@03F0EBA16286A2D57EA0991168D49946@
	push	eax
	call	_BN_hex2bn
	add	esp, 8
	test	eax, eax
	jne	SHORT $LN159@char2_fiel
	push	1
	call	esi
	push	eax
	call	DWORD PTR __imp__fflush
	add	esp, 8
	push	1275					; 000004fbH
	jmp	$LN1004@char2_fiel
$LN159@char2_fiel:
	lea	eax, DWORD PTR _y$[esp+220]
	push	OFFSET ??_C@_0CL@BNIJOFII@00D51FBC6C71A0094FA2CDD545B11C5C@
	push	eax
	call	_BN_hex2bn
	add	esp, 8
	test	eax, eax
	jne	SHORT $LN162@char2_fiel
	push	1
	call	esi
	push	eax
	call	DWORD PTR __imp__fflush
	add	esp, 8
	push	1275					; 000004fbH
	jmp	$LN1004@char2_fiel
$LN162@char2_fiel:
	push	ebp
	push	DWORD PTR _y$[esp+224]
	push	DWORD PTR _x$[esp+228]
	push	ebx
	push	edi
	call	_EC_POINT_set_affine_coordinates_GF2m
	add	esp, 20					; 00000014H
	test	eax, eax
	jne	SHORT $LN165@char2_fiel
	push	1
	call	esi
	push	eax
	call	DWORD PTR __imp__fflush
	add	esp, 8
	push	1275					; 000004fbH
	jmp	$LN1004@char2_fiel
$LN165@char2_fiel:
	push	ebp
	push	ebx
	push	edi
	call	_EC_POINT_is_on_curve
	add	esp, 12					; 0000000cH
	test	eax, eax
	jg	SHORT $LN168@char2_fiel
	push	1
	call	esi
	push	eax
	call	DWORD PTR __imp__fflush
	add	esp, 8
	push	1275					; 000004fbH
	jmp	$LN1004@char2_fiel
$LN168@char2_fiel:
	lea	eax, DWORD PTR _z$[esp+220]
	push	OFFSET ??_C@_0CL@BCAGACCK@040000000000000000000292FE77E70C@
	push	eax
	call	_BN_hex2bn
	add	esp, 8
	test	eax, eax
	jne	SHORT $LN171@char2_fiel
	push	1
	call	esi
	push	eax
	call	DWORD PTR __imp__fflush
	add	esp, 8
	push	1275					; 000004fbH
	jmp	$LN1004@char2_fiel
$LN171@char2_fiel:
	lea	eax, DWORD PTR _cof$[esp+220]
	push	OFFSET ??_C@_01FDFGLJHB@2?$AA@
	push	eax
	call	_BN_hex2bn
	add	esp, 8
	test	eax, eax
	jne	SHORT $LN174@char2_fiel
	push	1
	call	esi
	push	eax
	call	DWORD PTR __imp__fflush
	add	esp, 8
	push	1275					; 000004fbH
	jmp	$LN1004@char2_fiel
$LN174@char2_fiel:
	push	DWORD PTR _cof$[esp+220]
	push	DWORD PTR _z$[esp+224]
	push	ebx
	push	edi
	call	_EC_GROUP_set_generator
	add	esp, 16					; 00000010H
	test	eax, eax
	jne	SHORT $LN177@char2_fiel
	push	1
	call	esi
	push	eax
	call	DWORD PTR __imp__fflush
	add	esp, 8
	push	1275					; 000004fbH
	jmp	$LN1004@char2_fiel
$LN177@char2_fiel:
	push	OFFSET ??_C@_0BB@NKJLPBMI@NIST?5curve?5B?9163?$AA@
	push	OFFSET ??_C@_0BO@EHFMKNGN@?6?$CFs?5?9?9?5Generator?3?6?5?5?5?5?5x?5?$DN?50x?$AA@
	push	1
	call	esi
	add	esp, 4
	push	eax
	call	_fprintf
	add	esp, 12					; 0000000cH
	push	DWORD PTR _x$[esp+220]
	push	1
	call	esi
	add	esp, 4
	push	eax
	call	_BN_print_fp
	add	esp, 8
	push	OFFSET ??_C@_0N@CEPBDNPI@?6?5?5?5?5?5y?5?$DN?50x?$AA@
	push	1
	call	esi
	add	esp, 4
	push	eax
	call	_fprintf
	add	esp, 8
	push	DWORD PTR _y$[esp+220]
	push	1
	call	esi
	add	esp, 4
	push	eax
	call	_BN_print_fp
	add	esp, 8
	push	OFFSET ??_C@_01EEMJAFIK@?6?$AA@
	push	1
	call	esi
	add	esp, 4
	push	eax
	call	_fprintf
	add	esp, 8
	push	OFFSET ??_C@_0BC@NNIFDGGK@verify?5degree?5?4?4?4?$AA@
	push	1
	call	esi
	add	esp, 4
	push	eax
	call	_fprintf
	push	edi
	call	_EC_GROUP_get_degree
	add	esp, 12					; 0000000cH
	cmp	eax, 163				; 000000a3H
	je	SHORT $LN180@char2_fiel
	push	1
	call	esi
	push	eax
	call	DWORD PTR __imp__fflush
	add	esp, 8
	push	1275					; 000004fbH
	jmp	$LN1004@char2_fiel
$LN180@char2_fiel:
	push	OFFSET ??_C@_04CFDEAMPI@?5ok?6?$AA@
	push	1
	call	esi
	add	esp, 4
	push	eax
	call	_fprintf
	push	edi
	call	_group_order_tests
	push	edi
	call	_EC_GROUP_method_of
	push	eax
	call	_EC_GROUP_new
	add	esp, 20					; 00000014H
	mov	DWORD PTR _C2_B163$1$[esp+220], eax
	test	eax, eax
	jne	SHORT $LN183@char2_fiel
	push	1
	call	esi
	push	eax
	call	DWORD PTR __imp__fflush
	add	esp, 8
	push	1275					; 000004fbH
	jmp	$LN1004@char2_fiel
$LN183@char2_fiel:
	push	edi
	push	eax
	call	_EC_GROUP_copy
	add	esp, 8
	test	eax, eax
	jne	SHORT $LN186@char2_fiel
	push	1
	call	esi
	push	eax
	call	DWORD PTR __imp__fflush
	add	esp, 8
	push	1275					; 000004fbH
	jmp	$LN1004@char2_fiel
$LN186@char2_fiel:
; Line 1278
	lea	eax, DWORD PTR _p$[esp+220]
	push	OFFSET ??_C@_0DN@CMFGEJKA@02000000000000000000000000000000@
	push	eax
	call	_BN_hex2bn
	add	esp, 8
	test	eax, eax
	jne	SHORT $LN189@char2_fiel
	push	1
	call	esi
	push	eax
	call	DWORD PTR __imp__fflush
	add	esp, 8
	push	1287					; 00000507H
	jmp	$LN1004@char2_fiel
$LN189@char2_fiel:
	lea	eax, DWORD PTR _a$[esp+220]
	push	OFFSET ??_C@_01GBGANLPD@0?$AA@
	push	eax
	call	_BN_hex2bn
	add	esp, 8
	test	eax, eax
	jne	SHORT $LN192@char2_fiel
	push	1
	call	esi
	push	eax
	call	DWORD PTR __imp__fflush
	add	esp, 8
	push	1287					; 00000507H
	jmp	$LN1004@char2_fiel
$LN192@char2_fiel:
	lea	eax, DWORD PTR _b$[esp+220]
	push	OFFSET ??_C@_01HIHLOKLC@1?$AA@
	push	eax
	call	_BN_hex2bn
	add	esp, 8
	test	eax, eax
	jne	SHORT $LN195@char2_fiel
	push	1
	call	esi
	push	eax
	call	DWORD PTR __imp__fflush
	add	esp, 8
	push	1287					; 00000507H
	jmp	$LN1004@char2_fiel
$LN195@char2_fiel:
	push	ebp
	push	DWORD PTR _b$[esp+224]
	push	DWORD PTR _a$[esp+228]
	push	DWORD PTR _p$[esp+232]
	push	edi
	call	_EC_GROUP_set_curve_GF2m
	add	esp, 20					; 00000014H
	test	eax, eax
	jne	SHORT $LN198@char2_fiel
	push	1
	call	esi
	push	eax
	call	DWORD PTR __imp__fflush
	add	esp, 8
	push	1287					; 00000507H
	jmp	$LN1004@char2_fiel
$LN198@char2_fiel:
	lea	eax, DWORD PTR _x$[esp+220]
	push	OFFSET ??_C@_0DN@PMLLGPLO@017232BA853A7E731AF129F22FF41495@
	push	eax
	call	_BN_hex2bn
	add	esp, 8
	test	eax, eax
	jne	SHORT $LN201@char2_fiel
	push	1
	call	esi
	push	eax
	call	DWORD PTR __imp__fflush
	add	esp, 8
	push	1287					; 00000507H
	jmp	$LN1004@char2_fiel
$LN201@char2_fiel:
	lea	eax, DWORD PTR _y$[esp+220]
	push	OFFSET ??_C@_0DN@JNNCCFCL@01DB537DECE819B7F70F555A67C427A8@
	push	eax
	call	_BN_hex2bn
	add	esp, 8
	test	eax, eax
	jne	SHORT $LN204@char2_fiel
	push	1
	call	esi
	push	eax
	call	DWORD PTR __imp__fflush
	add	esp, 8
	push	1287					; 00000507H
	jmp	$LN1004@char2_fiel
$LN204@char2_fiel:
	push	ebp
	push	DWORD PTR _y$[esp+224]
	push	DWORD PTR _x$[esp+228]
	push	ebx
	push	edi
	call	_EC_POINT_set_affine_coordinates_GF2m
	add	esp, 20					; 00000014H
	test	eax, eax
	jne	SHORT $LN207@char2_fiel
	push	1
	call	esi
	push	eax
	call	DWORD PTR __imp__fflush
	add	esp, 8
	push	1287					; 00000507H
	jmp	$LN1004@char2_fiel
$LN207@char2_fiel:
	push	ebp
	push	ebx
	push	edi
	call	_EC_POINT_is_on_curve
	add	esp, 12					; 0000000cH
	test	eax, eax
	jg	SHORT $LN210@char2_fiel
	push	1
	call	esi
	push	eax
	call	DWORD PTR __imp__fflush
	add	esp, 8
	push	1287					; 00000507H
	jmp	$LN1004@char2_fiel
$LN210@char2_fiel:
	lea	eax, DWORD PTR _z$[esp+220]
	push	OFFSET ??_C@_0DN@ICANBKHC@00800000000000000000000000000006@
	push	eax
	call	_BN_hex2bn
	add	esp, 8
	test	eax, eax
	jne	SHORT $LN213@char2_fiel
	push	1
	call	esi
	push	eax
	call	DWORD PTR __imp__fflush
	add	esp, 8
	push	1287					; 00000507H
	jmp	$LN1004@char2_fiel
$LN213@char2_fiel:
	lea	eax, DWORD PTR _cof$[esp+220]
	push	OFFSET ??_C@_01FAMBOPH@4?$AA@
	push	eax
	call	_BN_hex2bn
	add	esp, 8
	test	eax, eax
	jne	SHORT $LN216@char2_fiel
	push	1
	call	esi
	push	eax
	call	DWORD PTR __imp__fflush
	add	esp, 8
	push	1287					; 00000507H
	jmp	$LN1004@char2_fiel
$LN216@char2_fiel:
	push	DWORD PTR _cof$[esp+220]
	push	DWORD PTR _z$[esp+224]
	push	ebx
	push	edi
	call	_EC_GROUP_set_generator
	add	esp, 16					; 00000010H
	test	eax, eax
	jne	SHORT $LN219@char2_fiel
	push	1
	call	esi
	push	eax
	call	DWORD PTR __imp__fflush
	add	esp, 8
	push	1287					; 00000507H
	jmp	$LN1004@char2_fiel
$LN219@char2_fiel:
	push	OFFSET ??_C@_0BB@OJOKMNAF@NIST?5curve?5K?9233?$AA@
	push	OFFSET ??_C@_0BO@EHFMKNGN@?6?$CFs?5?9?9?5Generator?3?6?5?5?5?5?5x?5?$DN?50x?$AA@
	push	1
	call	esi
	add	esp, 4
	push	eax
	call	_fprintf
	add	esp, 12					; 0000000cH
	push	DWORD PTR _x$[esp+220]
	push	1
	call	esi
	add	esp, 4
	push	eax
	call	_BN_print_fp
	add	esp, 8
	push	OFFSET ??_C@_0N@CEPBDNPI@?6?5?5?5?5?5y?5?$DN?50x?$AA@
	push	1
	call	esi
	add	esp, 4
	push	eax
	call	_fprintf
	add	esp, 8
	push	DWORD PTR _y$[esp+220]
	push	1
	call	esi
	add	esp, 4
	push	eax
	call	_BN_print_fp
	add	esp, 8
	push	OFFSET ??_C@_01EEMJAFIK@?6?$AA@
	push	1
	call	esi
	add	esp, 4
	push	eax
	call	_fprintf
	add	esp, 8
	push	OFFSET ??_C@_0BC@NNIFDGGK@verify?5degree?5?4?4?4?$AA@
	push	1
	call	esi
	add	esp, 4
	push	eax
	call	_fprintf
	push	edi
	call	_EC_GROUP_get_degree
	add	esp, 12					; 0000000cH
	cmp	eax, 233				; 000000e9H
	je	SHORT $LN222@char2_fiel
	push	1
	call	esi
	push	eax
	call	DWORD PTR __imp__fflush
	add	esp, 8
	push	1287					; 00000507H
	jmp	$LN1004@char2_fiel
$LN222@char2_fiel:
	push	OFFSET ??_C@_04CFDEAMPI@?5ok?6?$AA@
	push	1
	call	esi
	add	esp, 4
	push	eax
	call	_fprintf
	push	edi
	call	_group_order_tests
	push	edi
	call	_EC_GROUP_method_of
	push	eax
	call	_EC_GROUP_new
	add	esp, 20					; 00000014H
	mov	DWORD PTR _C2_K233$1$[esp+220], eax
	test	eax, eax
	jne	SHORT $LN225@char2_fiel
	push	1
	call	esi
	push	eax
	call	DWORD PTR __imp__fflush
	add	esp, 8
	push	1287					; 00000507H
	jmp	$LN1004@char2_fiel
$LN225@char2_fiel:
	push	edi
	push	eax
	call	_EC_GROUP_copy
	add	esp, 8
	test	eax, eax
	jne	SHORT $LN228@char2_fiel
	push	1
	call	esi
	push	eax
	call	DWORD PTR __imp__fflush
	add	esp, 8
	push	1287					; 00000507H
	jmp	$LN1004@char2_fiel
$LN228@char2_fiel:
; Line 1290
	lea	eax, DWORD PTR _p$[esp+220]
	push	OFFSET ??_C@_0DN@CMFGEJKA@02000000000000000000000000000000@
	push	eax
	call	_BN_hex2bn
	add	esp, 8
	test	eax, eax
	jne	SHORT $LN231@char2_fiel
	push	1
	call	esi
	push	eax
	call	DWORD PTR __imp__fflush
	add	esp, 8
	push	1299					; 00000513H
	jmp	$LN1004@char2_fiel
$LN231@char2_fiel:
	lea	eax, DWORD PTR _a$[esp+220]
	push	OFFSET ??_C@_0DN@CMGNLJKG@00000000000000000000000000000000@
	push	eax
	call	_BN_hex2bn
	add	esp, 8
	test	eax, eax
	jne	SHORT $LN234@char2_fiel
	push	1
	call	esi
	push	eax
	call	DWORD PTR __imp__fflush
	add	esp, 8
	push	1299					; 00000513H
	jmp	$LN1004@char2_fiel
$LN234@char2_fiel:
	lea	eax, DWORD PTR _b$[esp+220]
	push	OFFSET ??_C@_0DN@HFMDPMGE@0066647EDE6C332C7F8C0923BB58213B@
	push	eax
	call	_BN_hex2bn
	add	esp, 8
	test	eax, eax
	jne	SHORT $LN237@char2_fiel
	push	1
	call	esi
	push	eax
	call	DWORD PTR __imp__fflush
	add	esp, 8
	push	1299					; 00000513H
	jmp	$LN1004@char2_fiel
$LN237@char2_fiel:
	push	ebp
	push	DWORD PTR _b$[esp+224]
	push	DWORD PTR _a$[esp+228]
	push	DWORD PTR _p$[esp+232]
	push	edi
	call	_EC_GROUP_set_curve_GF2m
	add	esp, 20					; 00000014H
	test	eax, eax
	jne	SHORT $LN240@char2_fiel
	push	1
	call	esi
	push	eax
	call	DWORD PTR __imp__fflush
	add	esp, 8
	push	1299					; 00000513H
	jmp	$LN1004@char2_fiel
$LN240@char2_fiel:
	lea	eax, DWORD PTR _x$[esp+220]
	push	OFFSET ??_C@_0DN@FGKPOKON@00FAC9DFCBAC8313BB2139F1BB755FEF@
	push	eax
	call	_BN_hex2bn
	add	esp, 8
	test	eax, eax
	jne	SHORT $LN243@char2_fiel
	push	1
	call	esi
	push	eax
	call	DWORD PTR __imp__fflush
	add	esp, 8
	push	1299					; 00000513H
	jmp	$LN1004@char2_fiel
$LN243@char2_fiel:
	lea	eax, DWORD PTR _y$[esp+220]
	push	OFFSET ??_C@_0DN@NGABPGAG@01006A08A41903350678E58528BEBF8A@
	push	eax
	call	_BN_hex2bn
	add	esp, 8
	test	eax, eax
	jne	SHORT $LN246@char2_fiel
	push	1
	call	esi
	push	eax
	call	DWORD PTR __imp__fflush
	add	esp, 8
	push	1299					; 00000513H
	jmp	$LN1004@char2_fiel
$LN246@char2_fiel:
	push	ebp
	push	DWORD PTR _y$[esp+224]
	push	DWORD PTR _x$[esp+228]
	push	ebx
	push	edi
	call	_EC_POINT_set_affine_coordinates_GF2m
	add	esp, 20					; 00000014H
	test	eax, eax
	jne	SHORT $LN249@char2_fiel
	push	1
	call	esi
	push	eax
	call	DWORD PTR __imp__fflush
	add	esp, 8
	push	1299					; 00000513H
	jmp	$LN1004@char2_fiel
$LN249@char2_fiel:
	push	ebp
	push	ebx
	push	edi
	call	_EC_POINT_is_on_curve
	add	esp, 12					; 0000000cH
	test	eax, eax
	jg	SHORT $LN252@char2_fiel
	push	1
	call	esi
	push	eax
	call	DWORD PTR __imp__fflush
	add	esp, 8
	push	1299					; 00000513H
	jmp	$LN1004@char2_fiel
$LN252@char2_fiel:
	lea	eax, DWORD PTR _z$[esp+220]
	push	OFFSET ??_C@_0DN@NCBBCNPJ@01000000000000000000000000000013@
	push	eax
	call	_BN_hex2bn
	add	esp, 8
	test	eax, eax
	jne	SHORT $LN255@char2_fiel
	push	1
	call	esi
	push	eax
	call	DWORD PTR __imp__fflush
	add	esp, 8
	push	1299					; 00000513H
	jmp	$LN1004@char2_fiel
$LN255@char2_fiel:
	lea	eax, DWORD PTR _cof$[esp+220]
	push	OFFSET ??_C@_01FDFGLJHB@2?$AA@
	push	eax
	call	_BN_hex2bn
	add	esp, 8
	test	eax, eax
	jne	SHORT $LN258@char2_fiel
	push	1
	call	esi
	push	eax
	call	DWORD PTR __imp__fflush
	add	esp, 8
	push	1299					; 00000513H
	jmp	$LN1004@char2_fiel
$LN258@char2_fiel:
	push	DWORD PTR _cof$[esp+220]
	push	DWORD PTR _z$[esp+224]
	push	ebx
	push	edi
	call	_EC_GROUP_set_generator
	add	esp, 16					; 00000010H
	test	eax, eax
	jne	SHORT $LN261@char2_fiel
	push	1
	call	esi
	push	eax
	call	DWORD PTR __imp__fflush
	add	esp, 8
	push	1299					; 00000513H
	jmp	$LN1004@char2_fiel
$LN261@char2_fiel:
	push	OFFSET ??_C@_0BB@MOOFJMMN@NIST?5curve?5B?9233?$AA@
	push	OFFSET ??_C@_0BO@EHFMKNGN@?6?$CFs?5?9?9?5Generator?3?6?5?5?5?5?5x?5?$DN?50x?$AA@
	push	1
	call	esi
	add	esp, 4
	push	eax
	call	_fprintf
	add	esp, 12					; 0000000cH
	push	DWORD PTR _x$[esp+220]
	push	1
	call	esi
	add	esp, 4
	push	eax
	call	_BN_print_fp
	add	esp, 8
	push	OFFSET ??_C@_0N@CEPBDNPI@?6?5?5?5?5?5y?5?$DN?50x?$AA@
	push	1
	call	esi
	add	esp, 4
	push	eax
	call	_fprintf
	add	esp, 8
	push	DWORD PTR _y$[esp+220]
	push	1
	call	esi
	add	esp, 4
	push	eax
	call	_BN_print_fp
	add	esp, 8
	push	OFFSET ??_C@_01EEMJAFIK@?6?$AA@
	push	1
	call	esi
	add	esp, 4
	push	eax
	call	_fprintf
	add	esp, 8
	push	OFFSET ??_C@_0BC@NNIFDGGK@verify?5degree?5?4?4?4?$AA@
	push	1
	call	esi
	add	esp, 4
	push	eax
	call	_fprintf
	push	edi
	call	_EC_GROUP_get_degree
	add	esp, 12					; 0000000cH
	cmp	eax, 233				; 000000e9H
	je	SHORT $LN264@char2_fiel
	push	1
	call	esi
	push	eax
	call	DWORD PTR __imp__fflush
	add	esp, 8
	push	1299					; 00000513H
	jmp	$LN1004@char2_fiel
$LN264@char2_fiel:
	push	OFFSET ??_C@_04CFDEAMPI@?5ok?6?$AA@
	push	1
	call	esi
	add	esp, 4
	push	eax
	call	_fprintf
	push	edi
	call	_group_order_tests
	push	edi
	call	_EC_GROUP_method_of
	push	eax
	call	_EC_GROUP_new
	add	esp, 20					; 00000014H
	mov	DWORD PTR _C2_B233$1$[esp+220], eax
	test	eax, eax
	jne	SHORT $LN267@char2_fiel
	push	1
	call	esi
	push	eax
	call	DWORD PTR __imp__fflush
	add	esp, 8
	push	1299					; 00000513H
	jmp	$LN1004@char2_fiel
$LN267@char2_fiel:
	push	edi
	push	eax
	call	_EC_GROUP_copy
	add	esp, 8
	test	eax, eax
	jne	SHORT $LN270@char2_fiel
	push	1
	call	esi
	push	eax
	call	DWORD PTR __imp__fflush
	add	esp, 8
	push	1299					; 00000513H
	jmp	$LN1004@char2_fiel
$LN270@char2_fiel:
; Line 1302
	lea	eax, DWORD PTR _p$[esp+220]
	push	OFFSET ??_C@_0EJ@JBJAGLBF@08000000000000000000000000000000@
	push	eax
	call	_BN_hex2bn
	add	esp, 8
	test	eax, eax
	jne	SHORT $LN273@char2_fiel
	push	1
	call	esi
	push	eax
	call	DWORD PTR __imp__fflush
	add	esp, 8
	push	1311					; 0000051fH
	jmp	$LN1004@char2_fiel
$LN273@char2_fiel:
	lea	eax, DWORD PTR _a$[esp+220]
	push	OFFSET ??_C@_01GBGANLPD@0?$AA@
	push	eax
	call	_BN_hex2bn
	add	esp, 8
	test	eax, eax
	jne	SHORT $LN276@char2_fiel
	push	1
	call	esi
	push	eax
	call	DWORD PTR __imp__fflush
	add	esp, 8
	push	1311					; 0000051fH
	jmp	$LN1004@char2_fiel
$LN276@char2_fiel:
	lea	eax, DWORD PTR _b$[esp+220]
	push	OFFSET ??_C@_01HIHLOKLC@1?$AA@
	push	eax
	call	_BN_hex2bn
	add	esp, 8
	test	eax, eax
	jne	SHORT $LN279@char2_fiel
	push	1
	call	esi
	push	eax
	call	DWORD PTR __imp__fflush
	add	esp, 8
	push	1311					; 0000051fH
	jmp	$LN1004@char2_fiel
$LN279@char2_fiel:
	push	ebp
	push	DWORD PTR _b$[esp+224]
	push	DWORD PTR _a$[esp+228]
	push	DWORD PTR _p$[esp+232]
	push	edi
	call	_EC_GROUP_set_curve_GF2m
	add	esp, 20					; 00000014H
	test	eax, eax
	jne	SHORT $LN282@char2_fiel
	push	1
	call	esi
	push	eax
	call	DWORD PTR __imp__fflush
	add	esp, 8
	push	1311					; 0000051fH
	jmp	$LN1004@char2_fiel
$LN282@char2_fiel:
	lea	eax, DWORD PTR _x$[esp+220]
	push	OFFSET ??_C@_0EJ@PKMPDCLH@0503213F78CA44883F1A3B8162F188E5@
	push	eax
	call	_BN_hex2bn
	add	esp, 8
	test	eax, eax
	jne	SHORT $LN285@char2_fiel
	push	1
	call	esi
	push	eax
	call	DWORD PTR __imp__fflush
	add	esp, 8
	push	1311					; 0000051fH
	jmp	$LN1004@char2_fiel
$LN285@char2_fiel:
	lea	eax, DWORD PTR _y$[esp+220]
	push	OFFSET ??_C@_0EJ@NHJKIFIC@01CCDA380F1C9E318D90F95D07E5426F@
	push	eax
	call	_BN_hex2bn
	add	esp, 8
	test	eax, eax
	jne	SHORT $LN288@char2_fiel
	push	1
	call	esi
	push	eax
	call	DWORD PTR __imp__fflush
	add	esp, 8
	push	1311					; 0000051fH
	jmp	$LN1004@char2_fiel
$LN288@char2_fiel:
	push	ebp
	push	DWORD PTR _y$[esp+224]
	push	DWORD PTR _x$[esp+228]
	push	ebx
	push	edi
	call	_EC_POINT_set_affine_coordinates_GF2m
	add	esp, 20					; 00000014H
	test	eax, eax
	jne	SHORT $LN291@char2_fiel
	push	1
	call	esi
	push	eax
	call	DWORD PTR __imp__fflush
	add	esp, 8
	push	1311					; 0000051fH
	jmp	$LN1004@char2_fiel
$LN291@char2_fiel:
	push	ebp
	push	ebx
	push	edi
	call	_EC_POINT_is_on_curve
	add	esp, 12					; 0000000cH
	test	eax, eax
	jg	SHORT $LN294@char2_fiel
	push	1
	call	esi
	push	eax
	call	DWORD PTR __imp__fflush
	add	esp, 8
	push	1311					; 0000051fH
	jmp	$LN1004@char2_fiel
$LN294@char2_fiel:
	lea	eax, DWORD PTR _z$[esp+220]
	push	OFFSET ??_C@_0EJ@BABGJLPC@01FFFFFFFFFFFFFFFFFFFFFFFFFFFFFF@
	push	eax
	call	_BN_hex2bn
	add	esp, 8
	test	eax, eax
	jne	SHORT $LN297@char2_fiel
	push	1
	call	esi
	push	eax
	call	DWORD PTR __imp__fflush
	add	esp, 8
	push	1311					; 0000051fH
	jmp	$LN1004@char2_fiel
$LN297@char2_fiel:
	lea	eax, DWORD PTR _cof$[esp+220]
	push	OFFSET ??_C@_01FAMBOPH@4?$AA@
	push	eax
	call	_BN_hex2bn
	add	esp, 8
	test	eax, eax
	jne	SHORT $LN300@char2_fiel
	push	1
	call	esi
	push	eax
	call	DWORD PTR __imp__fflush
	add	esp, 8
	push	1311					; 0000051fH
	jmp	$LN1004@char2_fiel
$LN300@char2_fiel:
	push	DWORD PTR _cof$[esp+220]
	push	DWORD PTR _z$[esp+224]
	push	ebx
	push	edi
	call	_EC_GROUP_set_generator
	add	esp, 16					; 00000010H
	test	eax, eax
	jne	SHORT $LN303@char2_fiel
	push	1
	call	esi
	push	eax
	call	DWORD PTR __imp__fflush
	add	esp, 8
	push	1311					; 0000051fH
	jmp	$LN1004@char2_fiel
$LN303@char2_fiel:
	push	OFFSET ??_C@_0BB@OFLPCCOE@NIST?5curve?5K?9283?$AA@
	push	OFFSET ??_C@_0BO@EHFMKNGN@?6?$CFs?5?9?9?5Generator?3?6?5?5?5?5?5x?5?$DN?50x?$AA@
	push	1
	call	esi
	add	esp, 4
	push	eax
	call	_fprintf
	add	esp, 12					; 0000000cH
	push	DWORD PTR _x$[esp+220]
	push	1
	call	esi
	add	esp, 4
	push	eax
	call	_BN_print_fp
	add	esp, 8
	push	OFFSET ??_C@_0N@CEPBDNPI@?6?5?5?5?5?5y?5?$DN?50x?$AA@
	push	1
	call	esi
	add	esp, 4
	push	eax
	call	_fprintf
	add	esp, 8
	push	DWORD PTR _y$[esp+220]
	push	1
	call	esi
	add	esp, 4
	push	eax
	call	_BN_print_fp
	add	esp, 8
	push	OFFSET ??_C@_01EEMJAFIK@?6?$AA@
	push	1
	call	esi
	add	esp, 4
	push	eax
	call	_fprintf
	add	esp, 8
	push	OFFSET ??_C@_0BC@NNIFDGGK@verify?5degree?5?4?4?4?$AA@
	push	1
	call	esi
	add	esp, 4
	push	eax
	call	_fprintf
	push	edi
	call	_EC_GROUP_get_degree
	add	esp, 12					; 0000000cH
	cmp	eax, 283				; 0000011bH
	je	SHORT $LN306@char2_fiel
	push	1
	call	esi
	push	eax
	call	DWORD PTR __imp__fflush
	add	esp, 8
	push	1311					; 0000051fH
	jmp	$LN1004@char2_fiel
$LN306@char2_fiel:
	push	OFFSET ??_C@_04CFDEAMPI@?5ok?6?$AA@
	push	1
	call	esi
	add	esp, 4
	push	eax
	call	_fprintf
	push	edi
	call	_group_order_tests
	push	edi
	call	_EC_GROUP_method_of
	push	eax
	call	_EC_GROUP_new
	add	esp, 20					; 00000014H
	mov	DWORD PTR _C2_K283$1$[esp+220], eax
	test	eax, eax
	jne	SHORT $LN309@char2_fiel
	push	1
	call	esi
	push	eax
	call	DWORD PTR __imp__fflush
	add	esp, 8
	push	1311					; 0000051fH
	jmp	$LN1004@char2_fiel
$LN309@char2_fiel:
	push	edi
	push	eax
	call	_EC_GROUP_copy
	add	esp, 8
	test	eax, eax
	jne	SHORT $LN312@char2_fiel
	push	1
	call	esi
	push	eax
	call	DWORD PTR __imp__fflush
	add	esp, 8
	push	1311					; 0000051fH
	jmp	$LN1004@char2_fiel
$LN312@char2_fiel:
; Line 1314
	lea	eax, DWORD PTR _p$[esp+220]
	push	OFFSET ??_C@_0EJ@JBJAGLBF@08000000000000000000000000000000@
	push	eax
	call	_BN_hex2bn
	add	esp, 8
	test	eax, eax
	jne	SHORT $LN315@char2_fiel
	push	1
	call	esi
	push	eax
	call	DWORD PTR __imp__fflush
	add	esp, 8
	push	1323					; 0000052bH
	jmp	$LN1004@char2_fiel
$LN315@char2_fiel:
	lea	eax, DWORD PTR _a$[esp+220]
	push	OFFSET ??_C@_0EJ@IJMOMPKF@00000000000000000000000000000000@
	push	eax
	call	_BN_hex2bn
	add	esp, 8
	test	eax, eax
	jne	SHORT $LN318@char2_fiel
	push	1
	call	esi
	push	eax
	call	DWORD PTR __imp__fflush
	add	esp, 8
	push	1323					; 0000052bH
	jmp	$LN1004@char2_fiel
$LN318@char2_fiel:
	lea	eax, DWORD PTR _b$[esp+220]
	push	OFFSET ??_C@_0EJ@BMCMHGKL@027B680AC8B8596DA5A4AF8A19A0303F@
	push	eax
	call	_BN_hex2bn
	add	esp, 8
	test	eax, eax
	jne	SHORT $LN321@char2_fiel
	push	1
	call	esi
	push	eax
	call	DWORD PTR __imp__fflush
	add	esp, 8
	push	1323					; 0000052bH
	jmp	$LN1004@char2_fiel
$LN321@char2_fiel:
	push	ebp
	push	DWORD PTR _b$[esp+224]
	push	DWORD PTR _a$[esp+228]
	push	DWORD PTR _p$[esp+232]
	push	edi
	call	_EC_GROUP_set_curve_GF2m
	add	esp, 20					; 00000014H
	test	eax, eax
	jne	SHORT $LN324@char2_fiel
	push	1
	call	esi
	push	eax
	call	DWORD PTR __imp__fflush
	add	esp, 8
	push	1323					; 0000052bH
	jmp	$LN1004@char2_fiel
$LN324@char2_fiel:
	lea	eax, DWORD PTR _x$[esp+220]
	push	OFFSET ??_C@_0EJ@BHGHAALC@05F939258DB7DD90E1934F8C70B0DFEC@
	push	eax
	call	_BN_hex2bn
	add	esp, 8
	test	eax, eax
	jne	SHORT $LN327@char2_fiel
	push	1
	call	esi
	push	eax
	call	DWORD PTR __imp__fflush
	add	esp, 8
	push	1323					; 0000052bH
	jmp	$LN1004@char2_fiel
$LN327@char2_fiel:
	lea	eax, DWORD PTR _y$[esp+220]
	push	OFFSET ??_C@_0EJ@JNLPOLB@03676854FE24141CB98FE6D4B20D02B4@
	push	eax
	call	_BN_hex2bn
	add	esp, 8
	test	eax, eax
	jne	SHORT $LN330@char2_fiel
	push	1
	call	esi
	push	eax
	call	DWORD PTR __imp__fflush
	add	esp, 8
	push	1323					; 0000052bH
	jmp	$LN1004@char2_fiel
$LN330@char2_fiel:
	push	ebp
	push	DWORD PTR _y$[esp+224]
	push	DWORD PTR _x$[esp+228]
	push	ebx
	push	edi
	call	_EC_POINT_set_affine_coordinates_GF2m
	add	esp, 20					; 00000014H
	test	eax, eax
	jne	SHORT $LN333@char2_fiel
	push	1
	call	esi
	push	eax
	call	DWORD PTR __imp__fflush
	add	esp, 8
	push	1323					; 0000052bH
	jmp	$LN1004@char2_fiel
$LN333@char2_fiel:
	push	ebp
	push	ebx
	push	edi
	call	_EC_POINT_is_on_curve
	add	esp, 12					; 0000000cH
	test	eax, eax
	jg	SHORT $LN336@char2_fiel
	push	1
	call	esi
	push	eax
	call	DWORD PTR __imp__fflush
	add	esp, 8
	push	1323					; 0000052bH
	jmp	$LN1004@char2_fiel
$LN336@char2_fiel:
	lea	eax, DWORD PTR _z$[esp+220]
	push	OFFSET ??_C@_0EJ@DNDJJNNM@03FFFFFFFFFFFFFFFFFFFFFFFFFFFFFF@
	push	eax
	call	_BN_hex2bn
	add	esp, 8
	test	eax, eax
	jne	SHORT $LN339@char2_fiel
	push	1
	call	esi
	push	eax
	call	DWORD PTR __imp__fflush
	add	esp, 8
	push	1323					; 0000052bH
	jmp	$LN1004@char2_fiel
$LN339@char2_fiel:
	lea	eax, DWORD PTR _cof$[esp+220]
	push	OFFSET ??_C@_01FDFGLJHB@2?$AA@
	push	eax
	call	_BN_hex2bn
	add	esp, 8
	test	eax, eax
	jne	SHORT $LN342@char2_fiel
	push	1
	call	esi
	push	eax
	call	DWORD PTR __imp__fflush
	add	esp, 8
	push	1323					; 0000052bH
	jmp	$LN1004@char2_fiel
$LN342@char2_fiel:
	push	DWORD PTR _cof$[esp+220]
	push	DWORD PTR _z$[esp+224]
	push	ebx
	push	edi
	call	_EC_GROUP_set_generator
	add	esp, 16					; 00000010H
	test	eax, eax
	jne	SHORT $LN345@char2_fiel
	push	1
	call	esi
	push	eax
	call	DWORD PTR __imp__fflush
	add	esp, 8
	push	1323					; 0000052bH
	jmp	$LN1004@char2_fiel
$LN345@char2_fiel:
	push	OFFSET ??_C@_0BB@MCLAHDCM@NIST?5curve?5B?9283?$AA@
	push	OFFSET ??_C@_0BO@EHFMKNGN@?6?$CFs?5?9?9?5Generator?3?6?5?5?5?5?5x?5?$DN?50x?$AA@
	push	1
	call	esi
	add	esp, 4
	push	eax
	call	_fprintf
	add	esp, 12					; 0000000cH
	push	DWORD PTR _x$[esp+220]
	push	1
	call	esi
	add	esp, 4
	push	eax
	call	_BN_print_fp
	add	esp, 8
	push	OFFSET ??_C@_0N@CEPBDNPI@?6?5?5?5?5?5y?5?$DN?50x?$AA@
	push	1
	call	esi
	add	esp, 4
	push	eax
	call	_fprintf
	add	esp, 8
	push	DWORD PTR _y$[esp+220]
	push	1
	call	esi
	add	esp, 4
	push	eax
	call	_BN_print_fp
	add	esp, 8
	push	OFFSET ??_C@_01EEMJAFIK@?6?$AA@
	push	1
	call	esi
	add	esp, 4
	push	eax
	call	_fprintf
	add	esp, 8
	push	OFFSET ??_C@_0BC@NNIFDGGK@verify?5degree?5?4?4?4?$AA@
	push	1
	call	esi
	add	esp, 4
	push	eax
	call	_fprintf
	push	edi
	call	_EC_GROUP_get_degree
	add	esp, 12					; 0000000cH
	cmp	eax, 283				; 0000011bH
	je	SHORT $LN348@char2_fiel
	push	1
	call	esi
	push	eax
	call	DWORD PTR __imp__fflush
	add	esp, 8
	push	1323					; 0000052bH
	jmp	$LN1004@char2_fiel
$LN348@char2_fiel:
	push	OFFSET ??_C@_04CFDEAMPI@?5ok?6?$AA@
	push	1
	call	esi
	add	esp, 4
	push	eax
	call	_fprintf
	push	edi
	call	_group_order_tests
	push	edi
	call	_EC_GROUP_method_of
	push	eax
	call	_EC_GROUP_new
	add	esp, 20					; 00000014H
	mov	DWORD PTR _C2_B283$1$[esp+220], eax
	test	eax, eax
	jne	SHORT $LN351@char2_fiel
	push	1
	call	esi
	push	eax
	call	DWORD PTR __imp__fflush
	add	esp, 8
	push	1323					; 0000052bH
	jmp	$LN1004@char2_fiel
$LN351@char2_fiel:
	push	edi
	push	eax
	call	_EC_GROUP_copy
	add	esp, 8
	test	eax, eax
	jne	SHORT $LN354@char2_fiel
	push	1
	call	esi
	push	eax
	call	DWORD PTR __imp__fflush
	add	esp, 8
	push	1323					; 0000052bH
	jmp	$LN1004@char2_fiel
$LN354@char2_fiel:
; Line 1326
	lea	eax, DWORD PTR _p$[esp+220]
	push	OFFSET ??_C@_0GJ@KMBGFIOM@02000000000000000000000000000000@
	push	eax
	call	_BN_hex2bn
	add	esp, 8
	test	eax, eax
	jne	SHORT $LN357@char2_fiel
	push	1
	call	esi
	push	eax
	call	DWORD PTR __imp__fflush
	add	esp, 8
	push	1335					; 00000537H
	jmp	$LN1004@char2_fiel
$LN357@char2_fiel:
	lea	eax, DWORD PTR _a$[esp+220]
	push	OFFSET ??_C@_01GBGANLPD@0?$AA@
	push	eax
	call	_BN_hex2bn
	add	esp, 8
	test	eax, eax
	jne	SHORT $LN360@char2_fiel
	push	1
	call	esi
	push	eax
	call	DWORD PTR __imp__fflush
	add	esp, 8
	push	1335					; 00000537H
	jmp	$LN1004@char2_fiel
$LN360@char2_fiel:
	lea	eax, DWORD PTR _b$[esp+220]
	push	OFFSET ??_C@_01HIHLOKLC@1?$AA@
	push	eax
	call	_BN_hex2bn
	add	esp, 8
	test	eax, eax
	jne	SHORT $LN363@char2_fiel
	push	1
	call	esi
	push	eax
	call	DWORD PTR __imp__fflush
	add	esp, 8
	push	1335					; 00000537H
	jmp	$LN1004@char2_fiel
$LN363@char2_fiel:
	push	ebp
	push	DWORD PTR _b$[esp+224]
	push	DWORD PTR _a$[esp+228]
	push	DWORD PTR _p$[esp+232]
	push	edi
	call	_EC_GROUP_set_curve_GF2m
	add	esp, 20					; 00000014H
	test	eax, eax
	jne	SHORT $LN366@char2_fiel
	push	1
	call	esi
	push	eax
	call	DWORD PTR __imp__fflush
	add	esp, 8
	push	1335					; 00000537H
	jmp	$LN1004@char2_fiel
$LN366@char2_fiel:
	lea	eax, DWORD PTR _x$[esp+220]
	push	OFFSET ??_C@_0GJ@JHNGHILE@0060F05F658F49C1AD3AB1890F718421@
	push	eax
	call	_BN_hex2bn
	add	esp, 8
	test	eax, eax
	jne	SHORT $LN369@char2_fiel
	push	1
	call	esi
	push	eax
	call	DWORD PTR __imp__fflush
	add	esp, 8
	push	1335					; 00000537H
	jmp	$LN1004@char2_fiel
$LN369@char2_fiel:
	lea	eax, DWORD PTR _y$[esp+220]
	push	OFFSET ??_C@_0GJ@LELALKNN@01E369050B7C4E42ACBA1DACBF04299C@
	push	eax
	call	_BN_hex2bn
	add	esp, 8
	test	eax, eax
	jne	SHORT $LN372@char2_fiel
	push	1
	call	esi
	push	eax
	call	DWORD PTR __imp__fflush
	add	esp, 8
	push	1335					; 00000537H
	jmp	$LN1004@char2_fiel
$LN372@char2_fiel:
	push	ebp
	push	DWORD PTR _y$[esp+224]
	push	DWORD PTR _x$[esp+228]
	push	ebx
	push	edi
	call	_EC_POINT_set_affine_coordinates_GF2m
	add	esp, 20					; 00000014H
	test	eax, eax
	jne	SHORT $LN375@char2_fiel
	push	1
	call	esi
	push	eax
	call	DWORD PTR __imp__fflush
	add	esp, 8
	push	1335					; 00000537H
	jmp	$LN1004@char2_fiel
$LN375@char2_fiel:
	push	ebp
	push	ebx
	push	edi
	call	_EC_POINT_is_on_curve
	add	esp, 12					; 0000000cH
	test	eax, eax
	jg	SHORT $LN378@char2_fiel
	push	1
	call	esi
	push	eax
	call	DWORD PTR __imp__fflush
	add	esp, 8
	push	1335					; 00000537H
	jmp	$LN1004@char2_fiel
$LN378@char2_fiel:
	lea	eax, DWORD PTR _z$[esp+220]
	push	OFFSET ??_C@_0GJ@NAANHFDL@007FFFFFFFFFFFFFFFFFFFFFFFFFFFFF@
	push	eax
	call	_BN_hex2bn
	add	esp, 8
	test	eax, eax
	jne	SHORT $LN381@char2_fiel
	push	1
	call	esi
	push	eax
	call	DWORD PTR __imp__fflush
	add	esp, 8
	push	1335					; 00000537H
	jmp	$LN1004@char2_fiel
$LN381@char2_fiel:
	lea	eax, DWORD PTR _cof$[esp+220]
	push	OFFSET ??_C@_01FAMBOPH@4?$AA@
	push	eax
	call	_BN_hex2bn
	add	esp, 8
	test	eax, eax
	jne	SHORT $LN384@char2_fiel
	push	1
	call	esi
	push	eax
	call	DWORD PTR __imp__fflush
	add	esp, 8
	push	1335					; 00000537H
	jmp	$LN1004@char2_fiel
$LN384@char2_fiel:
	push	DWORD PTR _cof$[esp+220]
	push	DWORD PTR _z$[esp+224]
	push	ebx
	push	edi
	call	_EC_GROUP_set_generator
	add	esp, 16					; 00000010H
	test	eax, eax
	jne	SHORT $LN387@char2_fiel
	push	1
	call	esi
	push	eax
	call	DWORD PTR __imp__fflush
	add	esp, 8
	push	1335					; 00000537H
	jmp	$LN1004@char2_fiel
$LN387@char2_fiel:
	push	OFFSET ??_C@_0BB@DECIMEAK@NIST?5curve?5K?9409?$AA@
	push	OFFSET ??_C@_0BO@EHFMKNGN@?6?$CFs?5?9?9?5Generator?3?6?5?5?5?5?5x?5?$DN?50x?$AA@
	push	1
	call	esi
	add	esp, 4
	push	eax
	call	_fprintf
	add	esp, 12					; 0000000cH
	push	DWORD PTR _x$[esp+220]
	push	1
	call	esi
	add	esp, 4
	push	eax
	call	_BN_print_fp
	add	esp, 8
	push	OFFSET ??_C@_0N@CEPBDNPI@?6?5?5?5?5?5y?5?$DN?50x?$AA@
	push	1
	call	esi
	add	esp, 4
	push	eax
	call	_fprintf
	add	esp, 8
	push	DWORD PTR _y$[esp+220]
	push	1
	call	esi
	add	esp, 4
	push	eax
	call	_BN_print_fp
	add	esp, 8
	push	OFFSET ??_C@_01EEMJAFIK@?6?$AA@
	push	1
	call	esi
	add	esp, 4
	push	eax
	call	_fprintf
	add	esp, 8
	push	OFFSET ??_C@_0BC@NNIFDGGK@verify?5degree?5?4?4?4?$AA@
	push	1
	call	esi
	add	esp, 4
	push	eax
	call	_fprintf
	push	edi
	call	_EC_GROUP_get_degree
	add	esp, 12					; 0000000cH
	cmp	eax, 409				; 00000199H
	je	SHORT $LN390@char2_fiel
	push	1
	call	esi
	push	eax
	call	DWORD PTR __imp__fflush
	add	esp, 8
	push	1335					; 00000537H
	jmp	$LN1004@char2_fiel
$LN390@char2_fiel:
	push	OFFSET ??_C@_04CFDEAMPI@?5ok?6?$AA@
	push	1
	call	esi
	add	esp, 4
	push	eax
	call	_fprintf
	push	edi
	call	_group_order_tests
	push	edi
	call	_EC_GROUP_method_of
	push	eax
	call	_EC_GROUP_new
	add	esp, 20					; 00000014H
	mov	DWORD PTR _C2_K409$1$[esp+220], eax
	test	eax, eax
	jne	SHORT $LN393@char2_fiel
	push	1
	call	esi
	push	eax
	call	DWORD PTR __imp__fflush
	add	esp, 8
	push	1335					; 00000537H
	jmp	$LN1004@char2_fiel
$LN393@char2_fiel:
	push	edi
	push	eax
	call	_EC_GROUP_copy
	add	esp, 8
	test	eax, eax
	jne	SHORT $LN396@char2_fiel
	push	1
	call	esi
	push	eax
	call	DWORD PTR __imp__fflush
	add	esp, 8
	push	1335					; 00000537H
	jmp	$LN1004@char2_fiel
$LN396@char2_fiel:
; Line 1338
	lea	eax, DWORD PTR _p$[esp+220]
	push	OFFSET ??_C@_0GJ@KMBGFIOM@02000000000000000000000000000000@
	push	eax
	call	_BN_hex2bn
	add	esp, 8
	test	eax, eax
	jne	SHORT $LN399@char2_fiel
	push	1
	call	esi
	push	eax
	call	DWORD PTR __imp__fflush
	add	esp, 8
	push	1347					; 00000543H
	jmp	$LN1004@char2_fiel
$LN399@char2_fiel:
	lea	eax, DWORD PTR _a$[esp+220]
	push	OFFSET ??_C@_0GJ@LFNCJKBA@00000000000000000000000000000000@
	push	eax
	call	_BN_hex2bn
	add	esp, 8
	test	eax, eax
	jne	SHORT $LN402@char2_fiel
	push	1
	call	esi
	push	eax
	call	DWORD PTR __imp__fflush
	add	esp, 8
	push	1347					; 00000543H
	jmp	$LN1004@char2_fiel
$LN402@char2_fiel:
	lea	eax, DWORD PTR _b$[esp+220]
	push	OFFSET ??_C@_0GJ@NBAHPFHH@0021A5C2C8EE9FEB5C4B9A753B7B476B@
	push	eax
	call	_BN_hex2bn
	add	esp, 8
	test	eax, eax
	jne	SHORT $LN405@char2_fiel
	push	1
	call	esi
	push	eax
	call	DWORD PTR __imp__fflush
	add	esp, 8
	push	1347					; 00000543H
	jmp	$LN1004@char2_fiel
$LN405@char2_fiel:
	push	ebp
	push	DWORD PTR _b$[esp+224]
	push	DWORD PTR _a$[esp+228]
	push	DWORD PTR _p$[esp+232]
	push	edi
	call	_EC_GROUP_set_curve_GF2m
	add	esp, 20					; 00000014H
	test	eax, eax
	jne	SHORT $LN408@char2_fiel
	push	1
	call	esi
	push	eax
	call	DWORD PTR __imp__fflush
	add	esp, 8
	push	1347					; 00000543H
	jmp	$LN1004@char2_fiel
$LN408@char2_fiel:
	lea	eax, DWORD PTR _x$[esp+220]
	push	OFFSET ??_C@_0GJ@CLLEPAGO@015D4860D088DDB3496B0C6064756260@
	push	eax
	call	_BN_hex2bn
	add	esp, 8
	test	eax, eax
	jne	SHORT $LN411@char2_fiel
	push	1
	call	esi
	push	eax
	call	DWORD PTR __imp__fflush
	add	esp, 8
	push	1347					; 00000543H
	jmp	$LN1004@char2_fiel
$LN411@char2_fiel:
	lea	eax, DWORD PTR _y$[esp+220]
	push	OFFSET ??_C@_0GJ@DJJIPKHI@0061B1CFAB6BE5F32BBFA78324ED106A@
	push	eax
	call	_BN_hex2bn
	add	esp, 8
	test	eax, eax
	jne	SHORT $LN414@char2_fiel
	push	1
	call	esi
	push	eax
	call	DWORD PTR __imp__fflush
	add	esp, 8
	push	1347					; 00000543H
	jmp	$LN1004@char2_fiel
$LN414@char2_fiel:
	push	ebp
	push	DWORD PTR _y$[esp+224]
	push	DWORD PTR _x$[esp+228]
	push	ebx
	push	edi
	call	_EC_POINT_set_affine_coordinates_GF2m
	add	esp, 20					; 00000014H
	test	eax, eax
	jne	SHORT $LN417@char2_fiel
	push	1
	call	esi
	push	eax
	call	DWORD PTR __imp__fflush
	add	esp, 8
	push	1347					; 00000543H
	jmp	$LN1004@char2_fiel
$LN417@char2_fiel:
	push	ebp
	push	ebx
	push	edi
	call	_EC_POINT_is_on_curve
	add	esp, 12					; 0000000cH
	test	eax, eax
	jg	SHORT $LN420@char2_fiel
	push	1
	call	esi
	push	eax
	call	DWORD PTR __imp__fflush
	add	esp, 8
	push	1347					; 00000543H
	jmp	$LN1004@char2_fiel
$LN420@char2_fiel:
	lea	eax, DWORD PTR _z$[esp+220]
	push	OFFSET ??_C@_0GJ@MAKMEDBJ@01000000000000000000000000000000@
	push	eax
	call	_BN_hex2bn
	add	esp, 8
	test	eax, eax
	jne	SHORT $LN423@char2_fiel
	push	1
	call	esi
	push	eax
	call	DWORD PTR __imp__fflush
	add	esp, 8
	push	1347					; 00000543H
	jmp	$LN1004@char2_fiel
$LN423@char2_fiel:
	lea	eax, DWORD PTR _cof$[esp+220]
	push	OFFSET ??_C@_01FDFGLJHB@2?$AA@
	push	eax
	call	_BN_hex2bn
	add	esp, 8
	test	eax, eax
	jne	SHORT $LN426@char2_fiel
	push	1
	call	esi
	push	eax
	call	DWORD PTR __imp__fflush
	add	esp, 8
	push	1347					; 00000543H
	jmp	$LN1004@char2_fiel
$LN426@char2_fiel:
	push	DWORD PTR _cof$[esp+220]
	push	DWORD PTR _z$[esp+224]
	push	ebx
	push	edi
	call	_EC_GROUP_set_generator
	add	esp, 16					; 00000010H
	test	eax, eax
	jne	SHORT $LN429@char2_fiel
	push	1
	call	esi
	push	eax
	call	DWORD PTR __imp__fflush
	add	esp, 8
	push	1347					; 00000543H
	jmp	$LN1004@char2_fiel
$LN429@char2_fiel:
	push	OFFSET ??_C@_0BB@BDCHJFMC@NIST?5curve?5B?9409?$AA@
	push	OFFSET ??_C@_0BO@EHFMKNGN@?6?$CFs?5?9?9?5Generator?3?6?5?5?5?5?5x?5?$DN?50x?$AA@
	push	1
	call	esi
	add	esp, 4
	push	eax
	call	_fprintf
	add	esp, 12					; 0000000cH
	push	DWORD PTR _x$[esp+220]
	push	1
	call	esi
	add	esp, 4
	push	eax
	call	_BN_print_fp
	add	esp, 8
	push	OFFSET ??_C@_0N@CEPBDNPI@?6?5?5?5?5?5y?5?$DN?50x?$AA@
	push	1
	call	esi
	add	esp, 4
	push	eax
	call	_fprintf
	add	esp, 8
	push	DWORD PTR _y$[esp+220]
	push	1
	call	esi
	add	esp, 4
	push	eax
	call	_BN_print_fp
	add	esp, 8
	push	OFFSET ??_C@_01EEMJAFIK@?6?$AA@
	push	1
	call	esi
	add	esp, 4
	push	eax
	call	_fprintf
	add	esp, 8
	push	OFFSET ??_C@_0BC@NNIFDGGK@verify?5degree?5?4?4?4?$AA@
	push	1
	call	esi
	add	esp, 4
	push	eax
	call	_fprintf
	push	edi
	call	_EC_GROUP_get_degree
	add	esp, 12					; 0000000cH
	cmp	eax, 409				; 00000199H
	je	SHORT $LN432@char2_fiel
	push	1
	call	esi
	push	eax
	call	DWORD PTR __imp__fflush
	add	esp, 8
	push	1347					; 00000543H
	jmp	$LN1004@char2_fiel
$LN432@char2_fiel:
	push	OFFSET ??_C@_04CFDEAMPI@?5ok?6?$AA@
	push	1
	call	esi
	add	esp, 4
	push	eax
	call	_fprintf
	push	edi
	call	_group_order_tests
	push	edi
	call	_EC_GROUP_method_of
	push	eax
	call	_EC_GROUP_new
	add	esp, 20					; 00000014H
	mov	DWORD PTR _C2_B409$1$[esp+220], eax
	test	eax, eax
	jne	SHORT $LN435@char2_fiel
	push	1
	call	esi
	push	eax
	call	DWORD PTR __imp__fflush
	add	esp, 8
	push	1347					; 00000543H
	jmp	$LN1004@char2_fiel
$LN435@char2_fiel:
	push	edi
	push	eax
	call	_EC_GROUP_copy
	add	esp, 8
	test	eax, eax
	jne	SHORT $LN438@char2_fiel
	push	1
	call	esi
	push	eax
	call	DWORD PTR __imp__fflush
	add	esp, 8
	push	1347					; 00000543H
	jmp	$LN1004@char2_fiel
$LN438@char2_fiel:
; Line 1350
	lea	eax, DWORD PTR _p$[esp+220]
	push	OFFSET ??_C@_0JA@IMPAOLHO@80000000000000000000000000000000@
	push	eax
	call	_BN_hex2bn
	add	esp, 8
	test	eax, eax
	jne	SHORT $LN441@char2_fiel
	push	1
	call	esi
	push	eax
	call	DWORD PTR __imp__fflush
	add	esp, 8
	push	1359					; 0000054fH
	jmp	$LN1004@char2_fiel
$LN441@char2_fiel:
	lea	eax, DWORD PTR _a$[esp+220]
	push	OFFSET ??_C@_01GBGANLPD@0?$AA@
	push	eax
	call	_BN_hex2bn
	add	esp, 8
	test	eax, eax
	jne	SHORT $LN444@char2_fiel
	push	1
	call	esi
	push	eax
	call	DWORD PTR __imp__fflush
	add	esp, 8
	push	1359					; 0000054fH
	jmp	$LN1004@char2_fiel
$LN444@char2_fiel:
	lea	eax, DWORD PTR _b$[esp+220]
	push	OFFSET ??_C@_01HIHLOKLC@1?$AA@
	push	eax
	call	_BN_hex2bn
	add	esp, 8
	test	eax, eax
	jne	SHORT $LN447@char2_fiel
	push	1
	call	esi
	push	eax
	call	DWORD PTR __imp__fflush
	add	esp, 8
	push	1359					; 0000054fH
	jmp	$LN1004@char2_fiel
$LN447@char2_fiel:
	push	ebp
	push	DWORD PTR _b$[esp+224]
	push	DWORD PTR _a$[esp+228]
	push	DWORD PTR _p$[esp+232]
	push	edi
	call	_EC_GROUP_set_curve_GF2m
	add	esp, 20					; 00000014H
	test	eax, eax
	jne	SHORT $LN450@char2_fiel
	push	1
	call	esi
	push	eax
	call	DWORD PTR __imp__fflush
	add	esp, 8
	push	1359					; 0000054fH
	jmp	$LN1004@char2_fiel
$LN450@char2_fiel:
	lea	eax, DWORD PTR _x$[esp+220]
	push	OFFSET ??_C@_0JB@IGIOHLOD@026EB7A859923FBC82189631F8103FE4@
	push	eax
	call	_BN_hex2bn
	add	esp, 8
	test	eax, eax
	jne	SHORT $LN453@char2_fiel
	push	1
	call	esi
	push	eax
	call	DWORD PTR __imp__fflush
	add	esp, 8
	push	1359					; 0000054fH
	jmp	$LN1004@char2_fiel
$LN453@char2_fiel:
	lea	eax, DWORD PTR _y$[esp+220]
	push	OFFSET ??_C@_0JB@CLBKOHGL@0349DC807F4FBF374F4AEADE3BCA9531@
	push	eax
	call	_BN_hex2bn
	add	esp, 8
	test	eax, eax
	jne	SHORT $LN456@char2_fiel
	push	1
	call	esi
	push	eax
	call	DWORD PTR __imp__fflush
	add	esp, 8
	push	1359					; 0000054fH
	jmp	$LN1004@char2_fiel
$LN456@char2_fiel:
	push	ebp
	push	DWORD PTR _y$[esp+224]
	push	DWORD PTR _x$[esp+228]
	push	ebx
	push	edi
	call	_EC_POINT_set_affine_coordinates_GF2m
	add	esp, 20					; 00000014H
	test	eax, eax
	jne	SHORT $LN459@char2_fiel
	push	1
	call	esi
	push	eax
	call	DWORD PTR __imp__fflush
	add	esp, 8
	push	1359					; 0000054fH
	jmp	$LN1004@char2_fiel
$LN459@char2_fiel:
	push	ebp
	push	ebx
	push	edi
	call	_EC_POINT_is_on_curve
	add	esp, 12					; 0000000cH
	test	eax, eax
	jg	SHORT $LN462@char2_fiel
	push	1
	call	esi
	push	eax
	call	DWORD PTR __imp__fflush
	add	esp, 8
	push	1359					; 0000054fH
	jmp	$LN1004@char2_fiel
$LN462@char2_fiel:
	lea	eax, DWORD PTR _z$[esp+220]
	push	OFFSET ??_C@_0JB@PPPHEALL@02000000000000000000000000000000@
	push	eax
	call	_BN_hex2bn
	add	esp, 8
	test	eax, eax
	jne	SHORT $LN465@char2_fiel
	push	1
	call	esi
	push	eax
	call	DWORD PTR __imp__fflush
	add	esp, 8
	push	1359					; 0000054fH
	jmp	$LN1004@char2_fiel
$LN465@char2_fiel:
	lea	eax, DWORD PTR _cof$[esp+220]
	push	OFFSET ??_C@_01FAMBOPH@4?$AA@
	push	eax
	call	_BN_hex2bn
	add	esp, 8
	test	eax, eax
	jne	SHORT $LN468@char2_fiel
	push	1
	call	esi
	push	eax
	call	DWORD PTR __imp__fflush
	add	esp, 8
	push	1359					; 0000054fH
	jmp	$LN1004@char2_fiel
$LN468@char2_fiel:
	push	DWORD PTR _cof$[esp+220]
	push	DWORD PTR _z$[esp+224]
	push	ebx
	push	edi
	call	_EC_GROUP_set_generator
	add	esp, 16					; 00000010H
	test	eax, eax
	jne	SHORT $LN471@char2_fiel
	push	1
	call	esi
	push	eax
	call	DWORD PTR __imp__fflush
	add	esp, 8
	push	1359					; 0000054fH
	jmp	$LN1004@char2_fiel
$LN471@char2_fiel:
	push	OFFSET ??_C@_0BB@EBACDPOC@NIST?5curve?5K?9571?$AA@
	push	OFFSET ??_C@_0BO@EHFMKNGN@?6?$CFs?5?9?9?5Generator?3?6?5?5?5?5?5x?5?$DN?50x?$AA@
	push	1
	call	esi
	add	esp, 4
	push	eax
	call	_fprintf
	add	esp, 12					; 0000000cH
	push	DWORD PTR _x$[esp+220]
	push	1
	call	esi
	add	esp, 4
	push	eax
	call	_BN_print_fp
	add	esp, 8
	push	OFFSET ??_C@_0N@CEPBDNPI@?6?5?5?5?5?5y?5?$DN?50x?$AA@
	push	1
	call	esi
	add	esp, 4
	push	eax
	call	_fprintf
	add	esp, 8
	push	DWORD PTR _y$[esp+220]
	push	1
	call	esi
	add	esp, 4
	push	eax
	call	_BN_print_fp
	add	esp, 8
	push	OFFSET ??_C@_01EEMJAFIK@?6?$AA@
	push	1
	call	esi
	add	esp, 4
	push	eax
	call	_fprintf
	add	esp, 8
	push	OFFSET ??_C@_0BC@NNIFDGGK@verify?5degree?5?4?4?4?$AA@
	push	1
	call	esi
	add	esp, 4
	push	eax
	call	_fprintf
	push	edi
	call	_EC_GROUP_get_degree
	add	esp, 12					; 0000000cH
	cmp	eax, 571				; 0000023bH
	je	SHORT $LN474@char2_fiel
	push	1
	call	esi
	push	eax
	call	DWORD PTR __imp__fflush
	add	esp, 8
	push	1359					; 0000054fH
	jmp	$LN1004@char2_fiel
$LN474@char2_fiel:
	push	OFFSET ??_C@_04CFDEAMPI@?5ok?6?$AA@
	push	1
	call	esi
	add	esp, 4
	push	eax
	call	_fprintf
	push	edi
	call	_group_order_tests
	push	edi
	call	_EC_GROUP_method_of
	push	eax
	call	_EC_GROUP_new
	add	esp, 20					; 00000014H
	mov	DWORD PTR _C2_K571$1$[esp+220], eax
	test	eax, eax
	jne	SHORT $LN477@char2_fiel
	push	1
	call	esi
	push	eax
	call	DWORD PTR __imp__fflush
	add	esp, 8
	push	1359					; 0000054fH
	jmp	$LN1004@char2_fiel
$LN477@char2_fiel:
	push	edi
	push	eax
	call	_EC_GROUP_copy
	add	esp, 8
	test	eax, eax
	jne	SHORT $LN480@char2_fiel
	push	1
	call	esi
	push	eax
	call	DWORD PTR __imp__fflush
	add	esp, 8
	push	1359					; 0000054fH
	jmp	$LN1004@char2_fiel
$LN480@char2_fiel:
; Line 1362
	lea	eax, DWORD PTR _p$[esp+220]
	push	OFFSET ??_C@_0JA@IMPAOLHO@80000000000000000000000000000000@
	push	eax
	call	_BN_hex2bn
	add	esp, 8
	test	eax, eax
	jne	SHORT $LN483@char2_fiel
	push	1
	call	esi
	push	eax
	call	DWORD PTR __imp__fflush
	add	esp, 8
	push	1371					; 0000055bH
	jmp	$LN1004@char2_fiel
$LN483@char2_fiel:
	lea	eax, DWORD PTR _a$[esp+220]
	push	OFFSET ??_C@_0JB@IHMKNFOJ@00000000000000000000000000000000@
	push	eax
	call	_BN_hex2bn
	add	esp, 8
	test	eax, eax
	jne	SHORT $LN486@char2_fiel
	push	1
	call	esi
	push	eax
	call	DWORD PTR __imp__fflush
	add	esp, 8
	push	1371					; 0000055bH
	jmp	$LN1004@char2_fiel
$LN486@char2_fiel:
	lea	eax, DWORD PTR _b$[esp+220]
	push	OFFSET ??_C@_0JB@OOBDGNJO@02F40E7E2221F295DE297117B7F3D62F@
	push	eax
	call	_BN_hex2bn
	add	esp, 8
	test	eax, eax
	jne	SHORT $LN489@char2_fiel
	push	1
	call	esi
	push	eax
	call	DWORD PTR __imp__fflush
	add	esp, 8
	push	1371					; 0000055bH
	jmp	$LN1004@char2_fiel
$LN489@char2_fiel:
	push	ebp
	push	DWORD PTR _b$[esp+224]
	push	DWORD PTR _a$[esp+228]
	push	DWORD PTR _p$[esp+232]
	push	edi
	call	_EC_GROUP_set_curve_GF2m
	add	esp, 20					; 00000014H
	test	eax, eax
	jne	SHORT $LN492@char2_fiel
	push	1
	call	esi
	push	eax
	call	DWORD PTR __imp__fflush
	add	esp, 8
	push	1371					; 0000055bH
	jmp	$LN1004@char2_fiel
$LN492@char2_fiel:
	lea	eax, DWORD PTR _x$[esp+220]
	push	OFFSET ??_C@_0JB@CJJMMHGF@0303001D34B856296C16C0D40D3CD775@
	push	eax
	call	_BN_hex2bn
	add	esp, 8
	test	eax, eax
	jne	SHORT $LN495@char2_fiel
	push	1
	call	esi
	push	eax
	call	DWORD PTR __imp__fflush
	add	esp, 8
	push	1371					; 0000055bH
	jmp	$LN1004@char2_fiel
$LN495@char2_fiel:
	lea	eax, DWORD PTR _y$[esp+220]
	push	OFFSET ??_C@_0JB@BGGOGNH@037BF27342DA639B6DCCFFFEB73D69D7@
	push	eax
	call	_BN_hex2bn
	add	esp, 8
	test	eax, eax
	jne	SHORT $LN498@char2_fiel
	push	1
	call	esi
	push	eax
	call	DWORD PTR __imp__fflush
	add	esp, 8
	push	1371					; 0000055bH
	jmp	$LN1004@char2_fiel
$LN498@char2_fiel:
	push	ebp
	push	DWORD PTR _y$[esp+224]
	push	DWORD PTR _x$[esp+228]
	push	ebx
	push	edi
	call	_EC_POINT_set_affine_coordinates_GF2m
	add	esp, 20					; 00000014H
	test	eax, eax
	jne	SHORT $LN501@char2_fiel
	push	1
	call	esi
	push	eax
	call	DWORD PTR __imp__fflush
	add	esp, 8
	push	1371					; 0000055bH
	jmp	$LN1004@char2_fiel
$LN501@char2_fiel:
	push	ebp
	push	ebx
	push	edi
	call	_EC_POINT_is_on_curve
	add	esp, 12					; 0000000cH
	test	eax, eax
	jg	SHORT $LN504@char2_fiel
	push	1
	call	esi
	push	eax
	call	DWORD PTR __imp__fflush
	add	esp, 8
	push	1371					; 0000055bH
	jmp	$LN1004@char2_fiel
$LN504@char2_fiel:
	lea	eax, DWORD PTR _z$[esp+220]
	push	OFFSET ??_C@_0JB@DDELOMEN@03FFFFFFFFFFFFFFFFFFFFFFFFFFFFFF@
	push	eax
	call	_BN_hex2bn
	add	esp, 8
	test	eax, eax
	jne	SHORT $LN507@char2_fiel
	push	1
	call	esi
	push	eax
	call	DWORD PTR __imp__fflush
	add	esp, 8
	push	1371					; 0000055bH
	jmp	$LN1004@char2_fiel
$LN507@char2_fiel:
	lea	eax, DWORD PTR _cof$[esp+220]
	push	OFFSET ??_C@_01FDFGLJHB@2?$AA@
	push	eax
	call	_BN_hex2bn
	add	esp, 8
	test	eax, eax
	jne	SHORT $LN510@char2_fiel
	push	1
	call	esi
	push	eax
	call	DWORD PTR __imp__fflush
	add	esp, 8
	push	1371					; 0000055bH
	jmp	$LN1004@char2_fiel
$LN510@char2_fiel:
	push	DWORD PTR _cof$[esp+220]
	push	DWORD PTR _z$[esp+224]
	push	ebx
	push	edi
	call	_EC_GROUP_set_generator
	add	esp, 16					; 00000010H
	test	eax, eax
	jne	SHORT $LN513@char2_fiel
	push	1
	call	esi
	push	eax
	call	DWORD PTR __imp__fflush
	add	esp, 8
	push	1371					; 0000055bH
	jmp	$LN1004@char2_fiel
$LN513@char2_fiel:
	push	OFFSET ??_C@_0BB@GGANGOCK@NIST?5curve?5B?9571?$AA@
	push	OFFSET ??_C@_0BO@EHFMKNGN@?6?$CFs?5?9?9?5Generator?3?6?5?5?5?5?5x?5?$DN?50x?$AA@
	push	1
	call	esi
	add	esp, 4
	push	eax
	call	_fprintf
	add	esp, 12					; 0000000cH
	push	DWORD PTR _x$[esp+220]
	push	1
	call	esi
	add	esp, 4
	push	eax
	call	_BN_print_fp
	add	esp, 8
	push	OFFSET ??_C@_0N@CEPBDNPI@?6?5?5?5?5?5y?5?$DN?50x?$AA@
	push	1
	call	esi
	add	esp, 4
	push	eax
	call	_fprintf
	add	esp, 8
	push	DWORD PTR _y$[esp+220]
	push	1
	call	esi
	add	esp, 4
	push	eax
	call	_BN_print_fp
	add	esp, 8
	push	OFFSET ??_C@_01EEMJAFIK@?6?$AA@
	push	1
	call	esi
	add	esp, 4
	push	eax
	call	_fprintf
	add	esp, 8
	push	OFFSET ??_C@_0BC@NNIFDGGK@verify?5degree?5?4?4?4?$AA@
	push	1
	call	esi
	add	esp, 4
	push	eax
	call	_fprintf
	push	edi
	call	_EC_GROUP_get_degree
	add	esp, 12					; 0000000cH
	cmp	eax, 571				; 0000023bH
	je	SHORT $LN516@char2_fiel
	push	1
	call	esi
	push	eax
	call	DWORD PTR __imp__fflush
	add	esp, 8
	push	1371					; 0000055bH
	jmp	$LN1004@char2_fiel
$LN516@char2_fiel:
	push	OFFSET ??_C@_04CFDEAMPI@?5ok?6?$AA@
	push	1
	call	esi
	add	esp, 4
	push	eax
	call	_fprintf
	push	edi
	call	_group_order_tests
	push	edi
	call	_EC_GROUP_method_of
	push	eax
	call	_EC_GROUP_new
	add	esp, 20					; 00000014H
	mov	DWORD PTR _C2_B571$1$[esp+220], eax
	test	eax, eax
	jne	SHORT $LN519@char2_fiel
	push	1
	call	esi
	push	eax
	call	DWORD PTR __imp__fflush
	add	esp, 8
	push	1371					; 0000055bH
	jmp	$LN1004@char2_fiel
$LN519@char2_fiel:
	push	edi
	push	eax
	call	_EC_GROUP_copy
	add	esp, 8
	test	eax, eax
	jne	SHORT $LN522@char2_fiel
	push	1
	call	esi
	push	eax
	call	DWORD PTR __imp__fflush
	add	esp, 8
	push	1371					; 0000055bH
	jmp	$LN1004@char2_fiel
$LN522@char2_fiel:
; Line 1375
	push	ebx
	push	DWORD PTR _Q$1$[esp+224]
	call	_EC_POINT_copy
	add	esp, 8
	test	eax, eax
	jne	SHORT $LN525@char2_fiel
; Line 1376
	push	1
	call	esi
	push	eax
	call	DWORD PTR __imp__fflush
	add	esp, 8
	push	1376					; 00000560H
	jmp	$LN1004@char2_fiel
$LN525@char2_fiel:
; Line 1377
	push	DWORD PTR _Q$1$[esp+220]
	push	edi
	call	_EC_POINT_is_at_infinity
	add	esp, 8
	test	eax, eax
	je	SHORT $LN528@char2_fiel
; Line 1378
	push	1
	call	esi
	push	eax
	call	DWORD PTR __imp__fflush
	add	esp, 8
	push	1378					; 00000562H
	jmp	$LN1004@char2_fiel
$LN528@char2_fiel:
; Line 1379
	push	ebp
	push	ebx
	push	ebx
	push	edi
	call	_EC_POINT_dbl
	add	esp, 16					; 00000010H
	test	eax, eax
	jne	SHORT $LN531@char2_fiel
; Line 1380
	push	1
	call	esi
	push	eax
	call	DWORD PTR __imp__fflush
	add	esp, 8
	push	1380					; 00000564H
	jmp	$LN1004@char2_fiel
$LN531@char2_fiel:
; Line 1381
	push	ebp
	push	ebx
	push	edi
	call	_EC_POINT_is_on_curve
	add	esp, 12					; 0000000cH
	test	eax, eax
	jg	SHORT $LN534@char2_fiel
; Line 1382
	push	1
	call	esi
	push	eax
	call	DWORD PTR __imp__fflush
	add	esp, 8
	push	1382					; 00000566H
	jmp	$LN1004@char2_fiel
$LN534@char2_fiel:
; Line 1383
	push	ebp
	push	DWORD PTR _Q$1$[esp+224]
	push	edi
	call	_EC_POINT_invert
	add	esp, 12					; 0000000cH
	test	eax, eax
	jne	SHORT $LN537@char2_fiel
; Line 1384
	push	1
	call	esi
	push	eax
	call	DWORD PTR __imp__fflush
	add	esp, 8
	push	1384					; 00000568H
	jmp	$LN1004@char2_fiel
$LN537@char2_fiel:
; Line 1386
	push	ebp
	push	DWORD PTR _Q$1$[esp+224]
	push	ebx
	push	DWORD PTR _R$1$[esp+232]
	push	edi
	call	_EC_POINT_add
	add	esp, 20					; 00000014H
	test	eax, eax
	jne	SHORT $LN540@char2_fiel
; Line 1387
	push	1
	call	esi
	push	eax
	call	DWORD PTR __imp__fflush
	add	esp, 8
	push	1387					; 0000056bH
	jmp	$LN1004@char2_fiel
$LN540@char2_fiel:
; Line 1388
	mov	eax, DWORD PTR _R$1$[esp+220]
	push	ebp
	push	DWORD PTR _Q$1$[esp+224]
	push	eax
	push	eax
	push	edi
	call	_EC_POINT_add
	add	esp, 20					; 00000014H
	test	eax, eax
	jne	SHORT $LN543@char2_fiel
; Line 1389
	push	1
	call	esi
	push	eax
	call	DWORD PTR __imp__fflush
	add	esp, 8
	push	1389					; 0000056dH
	jmp	$LN1004@char2_fiel
$LN543@char2_fiel:
; Line 1390
	push	DWORD PTR _R$1$[esp+220]
	push	edi
	call	_EC_POINT_is_at_infinity
	add	esp, 8
	test	eax, eax
	jne	SHORT $LN546@char2_fiel
; Line 1391
	push	1
	call	esi
	push	eax
	call	DWORD PTR __imp__fflush
	add	esp, 8
	push	1391					; 0000056fH
	jmp	$LN1004@char2_fiel
$LN546@char2_fiel:
; Line 1397
	push	DWORD PTR _Q$1$[esp+220]
	push	edi
	call	_EC_POINT_is_at_infinity
	add	esp, 8
	test	eax, eax
	je	SHORT $LN549@char2_fiel
; Line 1398
	push	1
	call	esi
	push	eax
	call	DWORD PTR __imp__fflush
	add	esp, 8
	push	1398					; 00000576H
	jmp	$LN1004@char2_fiel
$LN549@char2_fiel:
; Line 1399
	mov	eax, DWORD PTR _Q$1$[esp+220]
	mov	DWORD PTR _points$2[esp+220], eax
; Line 1400
	mov	DWORD PTR _points$2[esp+224], eax
; Line 1401
	mov	DWORD PTR _points$2[esp+228], eax
; Line 1403
	call	_BN_value_one
	push	eax
	push	DWORD PTR _z$[esp+224]
	push	DWORD PTR _y$[esp+228]
	call	_BN_add
	add	esp, 12					; 0000000cH
	test	eax, eax
	jne	SHORT $LN552@char2_fiel
; Line 1404
	push	1
	call	esi
	push	eax
	call	DWORD PTR __imp__fflush
	add	esp, 8
	push	1404					; 0000057cH
	jmp	$LN1004@char2_fiel
$LN552@char2_fiel:
; Line 1405
	mov	ecx, DWORD PTR _y$[esp+220]
	cmp	DWORD PTR [ecx+4], 0
	jle	SHORT $LN555@char2_fiel
	mov	eax, DWORD PTR [ecx]
	test	BYTE PTR [eax], 1
	je	SHORT $LN555@char2_fiel
; Line 1406
	push	1
	call	esi
	push	eax
	call	DWORD PTR __imp__fflush
	add	esp, 8
	push	1406					; 0000057eH
	jmp	$LN1004@char2_fiel
$LN555@char2_fiel:
; Line 1407
	push	ecx
	push	ecx
	call	_BN_rshift1
	add	esp, 8
	test	eax, eax
	jne	SHORT $LN558@char2_fiel
; Line 1408
	push	1
	call	esi
	push	eax
	call	DWORD PTR __imp__fflush
	add	esp, 8
	push	1408					; 00000580H
	jmp	$LN1004@char2_fiel
$LN558@char2_fiel:
; Line 1409
	mov	eax, DWORD PTR _y$[esp+220]
; Line 1412
	push	OFFSET ??_C@_0BM@GCECKGMN@combined?5multiplication?5?4?4?4?$AA@
	push	1
	mov	DWORD PTR _scalars$1[esp+228], eax
	mov	DWORD PTR _scalars$1[esp+232], eax
	call	esi
	add	esp, 4
	push	eax
	call	_fprintf
; Line 1413
	push	1
	call	esi
	push	eax
	call	DWORD PTR __imp__fflush
; Line 1416
	push	ebp
	lea	eax, DWORD PTR _scalars$1[esp+240]
	push	eax
	lea	eax, DWORD PTR _points$2[esp+244]
	push	eax
	push	2
	push	0
	push	ebx
	push	edi
	call	_EC_POINTs_mul
	add	esp, 44					; 0000002cH
	test	eax, eax
	jne	SHORT $LN561@char2_fiel
; Line 1417
	push	1
	call	esi
	push	eax
	mov	eax, DWORD PTR __imp__fflush
	call	eax
	add	esp, 8
	push	1417					; 00000589H
	jmp	$LN1004@char2_fiel
$LN561@char2_fiel:
; Line 1418
	push	ebp
	lea	eax, DWORD PTR _scalars$1[esp+224]
	push	eax
	lea	eax, DWORD PTR _points$2[esp+228]
	push	eax
	push	2
	push	DWORD PTR _z$[esp+236]
	push	DWORD PTR _R$1$[esp+240]
	push	edi
	call	_EC_POINTs_mul
	add	esp, 28					; 0000001cH
	test	eax, eax
	jne	SHORT $LN564@char2_fiel
; Line 1419
	push	1
	call	esi
	push	eax
	mov	eax, DWORD PTR __imp__fflush
	call	eax
	add	esp, 8
	push	1419					; 0000058bH
	jmp	$LN1004@char2_fiel
$LN564@char2_fiel:
; Line 1420
	push	ebp
	push	DWORD PTR _R$1$[esp+224]
	push	ebx
	push	edi
	call	_EC_POINT_cmp
	add	esp, 16					; 00000010H
	test	eax, eax
	je	SHORT $LN567@char2_fiel
; Line 1421
	push	1
	call	esi
	push	eax
	mov	eax, DWORD PTR __imp__fflush
	call	eax
	add	esp, 8
	push	1421					; 0000058dH
	jmp	$LN1004@char2_fiel
$LN567@char2_fiel:
; Line 1422
	push	ebp
	push	DWORD PTR _Q$1$[esp+224]
	push	DWORD PTR _R$1$[esp+228]
	push	edi
	call	_EC_POINT_cmp
	add	esp, 16					; 00000010H
	test	eax, eax
	je	SHORT $LN570@char2_fiel
; Line 1423
	push	1
	call	esi
	push	eax
	mov	eax, DWORD PTR __imp__fflush
	call	eax
	add	esp, 8
	push	1423					; 0000058fH
	jmp	$LN1004@char2_fiel
$LN570@char2_fiel:
; Line 1425
	push	OFFSET ??_C@_01LFCBOECM@?4?$AA@
	push	1
	call	esi
	add	esp, 4
	push	eax
	call	_fprintf
; Line 1426
	push	1
	call	esi
	push	eax
	mov	eax, DWORD PTR __imp__fflush
	call	eax
	add	esp, 16					; 00000010H
; Line 1428
	push	0
	push	0
	push	DWORD PTR _y$[esp+228]
	call	_BN_num_bits
	add	esp, 4
	push	eax
	push	DWORD PTR _y$[esp+232]
	call	_BN_pseudo_rand
	add	esp, 16					; 00000010H
	test	eax, eax
	jne	SHORT $LN573@char2_fiel
; Line 1429
	push	1
	call	esi
	push	eax
	call	DWORD PTR __imp__fflush
	add	esp, 8
	push	1429					; 00000595H
	jmp	$LN1004@char2_fiel
$LN573@char2_fiel:
; Line 1430
	push	DWORD PTR _y$[esp+220]
	mov	eax, DWORD PTR _z$[esp+224]
	push	eax
	push	eax
	call	_BN_add
	add	esp, 12					; 0000000cH
; Line 1431
	push	1
	test	eax, eax
	jne	SHORT $LN576@char2_fiel
	call	esi
	push	eax
	call	DWORD PTR __imp__fflush
	add	esp, 8
	push	1431					; 00000597H
	jmp	$LN1004@char2_fiel
$LN576@char2_fiel:
; Line 1432
	push	DWORD PTR _z$[esp+224]
	call	_BN_set_negative
; Line 1433
	mov	eax, DWORD PTR _y$[esp+228]
	mov	DWORD PTR _scalars$1[esp+228], eax
; Line 1434
	mov	eax, DWORD PTR _z$[esp+228]
; Line 1436
	push	ebp
	mov	DWORD PTR _scalars$1[esp+236], eax
	lea	eax, DWORD PTR _scalars$1[esp+232]
	push	eax
	lea	eax, DWORD PTR _points$2[esp+236]
	push	eax
	push	2
	push	0
	push	ebx
	push	edi
	call	_EC_POINTs_mul
	add	esp, 36					; 00000024H
	test	eax, eax
	jne	SHORT $LN579@char2_fiel
; Line 1437
	push	1
	call	esi
	push	eax
	call	DWORD PTR __imp__fflush
	add	esp, 8
	push	1437					; 0000059dH
	jmp	$LN1004@char2_fiel
$LN579@char2_fiel:
; Line 1438
	push	ebx
	push	edi
	call	_EC_POINT_is_at_infinity
	add	esp, 8
	test	eax, eax
	jne	SHORT $LN582@char2_fiel
; Line 1439
	push	1
	call	esi
	push	eax
	call	DWORD PTR __imp__fflush
	add	esp, 8
	push	1439					; 0000059fH
	jmp	$LN1004@char2_fiel
$LN582@char2_fiel:
; Line 1441
	push	OFFSET ??_C@_01LFCBOECM@?4?$AA@
	push	1
	call	esi
	add	esp, 4
	push	eax
	call	_fprintf
; Line 1442
	push	1
	call	esi
	push	eax
	call	DWORD PTR __imp__fflush
	add	esp, 16					; 00000010H
; Line 1444
	push	0
	push	0
	push	DWORD PTR _y$[esp+228]
	call	_BN_num_bits
	add	esp, 4
	dec	eax
	push	eax
	push	DWORD PTR _x$[esp+232]
	call	_BN_pseudo_rand
	add	esp, 16					; 00000010H
	test	eax, eax
	jne	SHORT $LN585@char2_fiel
; Line 1445
	push	1
	call	esi
	push	eax
	call	DWORD PTR __imp__fflush
	add	esp, 8
	push	1445					; 000005a5H
	jmp	$LN1004@char2_fiel
$LN585@char2_fiel:
; Line 1446
	push	DWORD PTR _y$[esp+220]
	push	DWORD PTR _x$[esp+224]
	push	DWORD PTR _z$[esp+228]
	call	_BN_add
	add	esp, 12					; 0000000cH
; Line 1447
	push	1
	test	eax, eax
	jne	SHORT $LN588@char2_fiel
	call	esi
	push	eax
	call	DWORD PTR __imp__fflush
	add	esp, 8
	push	1447					; 000005a7H
	jmp	$LN1004@char2_fiel
$LN588@char2_fiel:
; Line 1448
	push	DWORD PTR _z$[esp+224]
	call	_BN_set_negative
; Line 1449
	mov	eax, DWORD PTR _x$[esp+228]
	mov	DWORD PTR _scalars$1[esp+228], eax
; Line 1450
	mov	eax, DWORD PTR _y$[esp+228]
	mov	DWORD PTR _scalars$1[esp+232], eax
; Line 1451
	mov	eax, DWORD PTR _z$[esp+228]
; Line 1453
	push	ebp
	mov	DWORD PTR _scalars$1[esp+240], eax
	lea	eax, DWORD PTR _scalars$1[esp+232]
	push	eax
	lea	eax, DWORD PTR _points$2[esp+236]
	push	eax
	push	3
	push	0
	push	ebx
	push	edi
	call	_EC_POINTs_mul
	add	esp, 36					; 00000024H
	test	eax, eax
	jne	SHORT $LN591@char2_fiel
; Line 1454
	push	1
	call	esi
	push	eax
	call	DWORD PTR __imp__fflush
	add	esp, 8
	push	1454					; 000005aeH
	jmp	$LN1004@char2_fiel
$LN591@char2_fiel:
; Line 1455
	push	ebx
	push	edi
	call	_EC_POINT_is_at_infinity
	add	esp, 8
	test	eax, eax
	jne	SHORT $LN594@char2_fiel
; Line 1456
	push	1
	call	esi
	push	eax
	call	DWORD PTR __imp__fflush
	add	esp, 8
	push	1456					; 000005b0H
	jmp	$LN1004@char2_fiel
$LN594@char2_fiel:
; Line 1458
	push	OFFSET ??_C@_05EJKMKGKI@?5ok?6?6?$AA@
	push	1
	call	esi
	add	esp, 4
	push	eax
	call	_fprintf
; Line 1495
	push	ebp
	call	_BN_CTX_free
; Line 1496
	push	DWORD PTR _p$[esp+232]
	call	_BN_free
; Line 1497
	push	DWORD PTR _a$[esp+236]
	call	_BN_free
; Line 1498
	push	DWORD PTR _b$[esp+240]
	call	_BN_free
; Line 1499
	push	edi
	call	_EC_GROUP_free
; Line 1500
	push	ebx
	call	_EC_POINT_free
; Line 1501
	push	DWORD PTR _Q$1$[esp+252]
	call	_EC_POINT_free
; Line 1502
	push	DWORD PTR _R$1$[esp+256]
	call	_EC_POINT_free
; Line 1503
	push	DWORD PTR _x$[esp+260]
	call	_BN_free
; Line 1504
	push	DWORD PTR _y$[esp+264]
	call	_BN_free
; Line 1505
	push	DWORD PTR _z$[esp+268]
	call	_BN_free
; Line 1506
	push	DWORD PTR _cof$[esp+272]
	call	_BN_free
; Line 1509
	push	DWORD PTR _C2_K163$1$[esp+276]
	call	_EC_GROUP_free
; Line 1511
	push	DWORD PTR _C2_B163$1$[esp+280]
	call	_EC_GROUP_free
	add	esp, 64					; 00000040H
; Line 1513
	push	DWORD PTR _C2_K233$1$[esp+220]
	call	_EC_GROUP_free
; Line 1515
	push	DWORD PTR _C2_B233$1$[esp+224]
	call	_EC_GROUP_free
; Line 1517
	push	DWORD PTR _C2_K283$1$[esp+228]
	call	_EC_GROUP_free
; Line 1519
	push	DWORD PTR _C2_B283$1$[esp+232]
	call	_EC_GROUP_free
; Line 1521
	push	DWORD PTR _C2_K409$1$[esp+236]
	call	_EC_GROUP_free
; Line 1523
	push	DWORD PTR _C2_B409$1$[esp+240]
	call	_EC_GROUP_free
; Line 1525
	push	DWORD PTR _C2_K571$1$[esp+244]
	call	_EC_GROUP_free
; Line 1527
	push	DWORD PTR _C2_B571$1$[esp+248]
	call	_EC_GROUP_free
; Line 1529
	mov	ecx, DWORD PTR __$ArrayPad$[esp+252]
	add	esp, 32					; 00000020H
	pop	ebx
	pop	edi
	pop	esi
	pop	ebp
	xor	ecx, esp
	call	@__security_check_cookie@4
	add	esp, 204				; 000000ccH
	ret	0
$LN992@char2_fiel:
; Line 1196
	push	1
	call	esi
	push	eax
	call	DWORD PTR __imp__fflush
	add	esp, 8
	push	1196					; 000004acH
	jmp	$LN1004@char2_fiel
$LN991@char2_fiel:
; Line 1194
	push	1
	call	esi
	push	eax
	call	DWORD PTR __imp__fflush
	add	esp, 8
	push	1194					; 000004aaH
	jmp	$LN1004@char2_fiel
$LN990@char2_fiel:
; Line 1184
	push	1
	call	esi
	push	eax
	call	DWORD PTR __imp__fflush
	add	esp, 8
	push	1184					; 000004a0H
	jmp	$LN1004@char2_fiel
$LN988@char2_fiel:
; Line 1178
	push	1
	call	esi
	push	eax
	call	DWORD PTR __imp__fflush
	add	esp, 8
	push	1178					; 0000049aH
	jmp	$LN1004@char2_fiel
$LN52@char2_fiel:
; Line 1146
	push	1
	call	esi
	push	eax
	call	DWORD PTR __imp__fflush
	add	esp, 8
	push	1146					; 0000047aH
	jmp	$LN1004@char2_fiel
$LN34@char2_fiel:
; Line 1125
	push	1
	call	esi
	push	eax
	call	DWORD PTR __imp__fflush
	add	esp, 8
	push	1125					; 00000465H
	jmp	$LN1004@char2_fiel
$LN7@char2_fiel:
; Line 1080
	mov	esi, DWORD PTR __imp____acrt_iob_func
	push	1
	call	esi
	push	eax
	call	DWORD PTR __imp__fflush
	add	esp, 8
	push	1080					; 00000438H
	jmp	$LN1002@char2_fiel
$LN1005@char2_fiel:
_char2_field_tests ENDP
_TEXT	ENDS
; Function compile flags: /Ogtpy
;	COMDAT _prime_field_tests
_TEXT	SEGMENT
_y$ = -212						; size = 4
_x$ = -208						; size = 4
_z$ = -204						; size = 4
_p$ = -200						; size = 4
_Q$1$ = -196						; size = 4
_a$ = -192						; size = 4
_b$ = -188						; size = 4
_len$3$ = -184						; size = 4
_len$2$ = -184						; size = 4
_len$1$ = -184						; size = 4
_k$1$ = -184						; size = 4
_P_160$1$ = -184					; size = 4
_R$1$ = -180						; size = 4
_tmp$1$ = -176						; size = 4
_P_224$1$ = -176					; size = 4
_P$1$ = -172						; size = 4
_P_192$1$ = -172					; size = 4
_P_256$1$ = -168					; size = 4
_P_384$1$ = -164					; size = 4
_P_521$1$ = -160					; size = 4
_scalar3$1 = -156					; size = 20
_scalars$2 = -136					; size = 16
_points$3 = -120					; size = 16
_buf$ = -104						; size = 100
__$ArrayPad$ = -4					; size = 4
_prime_field_tests PROC					; COMDAT
; File c:\workpace\openssl\openssl-1.0.2h\crypto\ec\ectest.c
; Line 321
	mov	eax, 212				; 000000d4H
	call	__chkstk
	mov	eax, DWORD PTR ___security_cookie
	xor	eax, esp
	mov	DWORD PTR __$ArrayPad$[esp+212], eax
	push	ebp
	push	esi
; Line 334
	call	_BN_CTX_new
	mov	ebp, eax
; Line 335
	test	ebp, ebp
	jne	SHORT $LN3@prime_fiel
; Line 336
	mov	esi, DWORD PTR __imp____acrt_iob_func
	push	1
	call	esi
	push	eax
	call	DWORD PTR __imp__fflush
	add	esp, 8
	push	336					; 00000150H
$LN852@prime_fiel:
	push	OFFSET ??_C@_0BF@BDOCEPGI@?4?2crypto?2ec?2ectest?4c?$AA@
	push	OFFSET ??_C@_0O@HJBMECNK@?$CFs?3?$CFd?3?5ABORT?6?$AA@
	push	2
	call	esi
	add	esp, 4
	push	eax
	call	_fprintf
	push	2
	call	esi
	push	eax
	call	_ERR_print_errors_fp
	add	esp, 24					; 00000018H
	push	1
	call	DWORD PTR __imp__exit
$LN856@prime_fiel:
$LN3@prime_fiel:
; Line 339
	call	_BN_new
	mov	DWORD PTR _p$[esp+220], eax
; Line 340
	call	_BN_new
	mov	DWORD PTR _a$[esp+220], eax
; Line 341
	call	_BN_new
; Line 342
	cmp	DWORD PTR _p$[esp+220], 0
	mov	DWORD PTR _b$[esp+220], eax
	je	$LN7@prime_fiel
	cmp	DWORD PTR _a$[esp+220], 0
	je	$LN7@prime_fiel
	test	eax, eax
	je	$LN7@prime_fiel
; Line 345
	lea	eax, DWORD PTR _p$[esp+220]
	push	OFFSET ??_C@_02LFBAAJHO@17?$AA@
	push	eax
	call	_BN_hex2bn
	add	esp, 8
	test	eax, eax
	jne	SHORT $LN9@prime_fiel
; Line 346
	mov	esi, DWORD PTR __imp____acrt_iob_func
	push	1
	call	esi
	push	eax
	call	DWORD PTR __imp__fflush
	add	esp, 8
	push	346					; 0000015aH
	jmp	$LN852@prime_fiel
$LN9@prime_fiel:
; Line 347
	lea	eax, DWORD PTR _a$[esp+220]
	push	OFFSET ??_C@_01HIHLOKLC@1?$AA@
	push	eax
	call	_BN_hex2bn
	add	esp, 8
	test	eax, eax
	jne	SHORT $LN12@prime_fiel
; Line 348
	mov	esi, DWORD PTR __imp____acrt_iob_func
	push	1
	call	esi
	push	eax
	call	DWORD PTR __imp__fflush
	add	esp, 8
	push	348					; 0000015cH
	jmp	$LN852@prime_fiel
$LN12@prime_fiel:
; Line 349
	lea	eax, DWORD PTR _b$[esp+220]
	push	OFFSET ??_C@_01HIHLOKLC@1?$AA@
	push	eax
	call	_BN_hex2bn
	add	esp, 8
	test	eax, eax
	jne	SHORT $LN15@prime_fiel
; Line 350
	mov	esi, DWORD PTR __imp____acrt_iob_func
	push	1
	call	esi
	push	eax
	call	DWORD PTR __imp__fflush
	add	esp, 8
	push	350					; 0000015eH
	jmp	$LN852@prime_fiel
$LN15@prime_fiel:
; Line 352
	call	_EC_GFp_mont_method
	push	eax
	call	_EC_GROUP_new
	mov	esi, eax
	add	esp, 4
; Line 356
	test	esi, esi
	jne	SHORT $LN18@prime_fiel
; Line 357
	mov	esi, DWORD PTR __imp____acrt_iob_func
	push	1
	call	esi
	push	eax
	call	DWORD PTR __imp__fflush
	add	esp, 8
	push	357					; 00000165H
	jmp	$LN852@prime_fiel
$LN18@prime_fiel:
; Line 359
	push	ebp
	push	DWORD PTR _b$[esp+224]
	push	DWORD PTR _a$[esp+228]
	push	DWORD PTR _p$[esp+232]
	push	esi
	call	_EC_GROUP_set_curve_GFp
	add	esp, 20					; 00000014H
	test	eax, eax
	jne	SHORT $LN21@prime_fiel
; Line 360
	mov	esi, DWORD PTR __imp____acrt_iob_func
	push	1
	call	esi
	push	eax
	call	DWORD PTR __imp__fflush
	add	esp, 8
	push	360					; 00000168H
	jmp	$LN852@prime_fiel
$LN21@prime_fiel:
	push	edi
; Line 364
	push	esi
	call	_EC_GROUP_method_of
	push	eax
	call	_EC_GROUP_new
	mov	edi, eax
	add	esp, 8
	mov	DWORD PTR _tmp$1$[esp+224], edi
; Line 365
	test	edi, edi
	jne	SHORT $LN24@prime_fiel
; Line 366
	mov	esi, DWORD PTR __imp____acrt_iob_func
	push	1
	call	esi
	push	eax
	call	DWORD PTR __imp__fflush
	add	esp, 8
	push	366					; 0000016eH
$LN853@prime_fiel:
	push	OFFSET ??_C@_0BF@BDOCEPGI@?4?2crypto?2ec?2ectest?4c?$AA@
	push	OFFSET ??_C@_0O@HJBMECNK@?$CFs?3?$CFd?3?5ABORT?6?$AA@
	push	2
	call	esi
	add	esp, 4
	push	eax
	call	_fprintf
	push	2
	call	esi
	push	eax
	call	_ERR_print_errors_fp
	add	esp, 24					; 00000018H
	push	1
	call	DWORD PTR __imp__exit
$LN857@prime_fiel:
$LN24@prime_fiel:
; Line 367
	push	esi
	push	edi
	call	_EC_GROUP_copy
	add	esp, 8
	test	eax, eax
	jne	SHORT $LN27@prime_fiel
; Line 368
	mov	esi, DWORD PTR __imp____acrt_iob_func
	push	1
	call	esi
	push	eax
	call	DWORD PTR __imp__fflush
	add	esp, 8
	push	368					; 00000170H
	jmp	SHORT $LN853@prime_fiel
$LN27@prime_fiel:
; Line 369
	push	esi
	call	_EC_GROUP_free
; Line 373
	push	ebp
	push	DWORD PTR _b$[esp+232]
	push	DWORD PTR _a$[esp+236]
	push	DWORD PTR _p$[esp+240]
	push	edi
	call	_EC_GROUP_get_curve_GFp
; Line 374
	mov	esi, DWORD PTR __imp____acrt_iob_func
	add	esp, 24					; 00000018H
	test	eax, eax
	jne	SHORT $LN30@prime_fiel
	push	1
	call	esi
	push	eax
	call	DWORD PTR __imp__fflush
	add	esp, 8
	push	374					; 00000176H
	jmp	$LN853@prime_fiel
$LN30@prime_fiel:
	push	ebx
; Line 376
	push	OFFSET ??_C@_0EI@GDDNHNIA@Curve?5defined?5by?5Weierstrass?5equ@
	push	1
	call	esi
	add	esp, 4
	push	eax
	call	_fprintf
	add	esp, 8
; Line 378
	push	DWORD PTR _p$[esp+228]
	push	1
	call	esi
	add	esp, 4
	push	eax
	call	_BN_print_fp
	add	esp, 8
; Line 379
	push	OFFSET ??_C@_0O@MNDNFHIM@?$CJ?6?5?5?5?5?5a?5?$DN?50x?$AA@
	push	1
	call	esi
	add	esp, 4
	push	eax
	call	_fprintf
	add	esp, 8
; Line 380
	push	DWORD PTR _a$[esp+228]
	push	1
	call	esi
	add	esp, 4
	push	eax
	call	_BN_print_fp
	add	esp, 8
; Line 381
	push	OFFSET ??_C@_0N@EBCIPFMM@?6?5?5?5?5?5b?5?$DN?50x?$AA@
	push	1
	call	esi
	add	esp, 4
	push	eax
	call	_fprintf
	add	esp, 8
; Line 382
	push	DWORD PTR _b$[esp+228]
	push	1
	call	esi
	add	esp, 4
	push	eax
	call	_BN_print_fp
	add	esp, 8
; Line 383
	push	OFFSET ??_C@_01EEMJAFIK@?6?$AA@
	push	1
	call	esi
	add	esp, 4
	push	eax
	call	_fprintf
; Line 385
	push	edi
	call	_EC_POINT_new
	mov	ebx, eax
; Line 386
	push	edi
	mov	DWORD PTR _P$1$[esp+244], ebx
	call	_EC_POINT_new
; Line 387
	push	edi
	mov	DWORD PTR _Q$1$[esp+248], eax
	call	_EC_POINT_new
	add	esp, 20					; 00000014H
	mov	DWORD PTR _R$1$[esp+228], eax
; Line 388
	test	ebx, ebx
	je	$LN34@prime_fiel
	cmp	DWORD PTR _Q$1$[esp+228], 0
	je	$LN34@prime_fiel
	test	eax, eax
	je	$LN34@prime_fiel
; Line 391
	push	ebx
	push	edi
	call	_EC_POINT_set_to_infinity
	add	esp, 8
	test	eax, eax
	jne	SHORT $LN36@prime_fiel
; Line 392
	push	1
	call	esi
	push	eax
	call	DWORD PTR __imp__fflush
	add	esp, 8
	push	392					; 00000188H
$LN854@prime_fiel:
	push	OFFSET ??_C@_0BF@BDOCEPGI@?4?2crypto?2ec?2ectest?4c?$AA@
	push	OFFSET ??_C@_0O@HJBMECNK@?$CFs?3?$CFd?3?5ABORT?6?$AA@
	push	2
	call	esi
	add	esp, 4
	push	eax
	call	_fprintf
	push	2
	call	esi
	push	eax
	call	_ERR_print_errors_fp
	add	esp, 24					; 00000018H
	push	1
	call	DWORD PTR __imp__exit
$LN858@prime_fiel:
$LN36@prime_fiel:
; Line 393
	push	ebx
	push	edi
	call	_EC_POINT_is_at_infinity
	add	esp, 8
	test	eax, eax
	jne	SHORT $LN39@prime_fiel
; Line 394
	push	1
	call	esi
	push	eax
	call	DWORD PTR __imp__fflush
	add	esp, 8
	push	394					; 0000018aH
	jmp	SHORT $LN854@prime_fiel
$LN39@prime_fiel:
; Line 397
	push	ebp
	push	1
	lea	eax, DWORD PTR _buf$[esp+236]
	mov	BYTE PTR _buf$[esp+236], 0
	push	eax
	push	DWORD PTR _Q$1$[esp+240]
	push	edi
	call	_EC_POINT_oct2point
	add	esp, 20					; 00000014H
	test	eax, eax
	jne	SHORT $LN42@prime_fiel
; Line 398
	push	1
	call	esi
	push	eax
	call	DWORD PTR __imp__fflush
	add	esp, 8
	push	398					; 0000018eH
	jmp	$LN854@prime_fiel
$LN42@prime_fiel:
; Line 400
	push	ebp
	push	DWORD PTR _Q$1$[esp+232]
	push	ebx
	push	ebx
	push	edi
	call	_EC_POINT_add
	add	esp, 20					; 00000014H
	test	eax, eax
	jne	SHORT $LN45@prime_fiel
; Line 401
	push	1
	call	esi
	push	eax
	call	DWORD PTR __imp__fflush
	add	esp, 8
	push	401					; 00000191H
	jmp	$LN854@prime_fiel
$LN45@prime_fiel:
; Line 402
	push	ebx
	push	edi
	call	_EC_POINT_is_at_infinity
	add	esp, 8
	test	eax, eax
	jne	SHORT $LN48@prime_fiel
; Line 403
	push	1
	call	esi
	push	eax
	call	DWORD PTR __imp__fflush
	add	esp, 8
	push	403					; 00000193H
	jmp	$LN854@prime_fiel
$LN48@prime_fiel:
; Line 405
	call	_BN_new
	mov	DWORD PTR _x$[esp+228], eax
; Line 406
	call	_BN_new
	mov	DWORD PTR _y$[esp+228], eax
; Line 407
	call	_BN_new
; Line 408
	cmp	DWORD PTR _x$[esp+228], 0
	mov	DWORD PTR _z$[esp+228], eax
	je	$LN52@prime_fiel
	cmp	DWORD PTR _y$[esp+228], 0
	je	$LN52@prime_fiel
	test	eax, eax
	je	$LN52@prime_fiel
; Line 411
	lea	eax, DWORD PTR _x$[esp+228]
	push	OFFSET ??_C@_01CKDDGHAB@D?$AA@
	push	eax
	call	_BN_hex2bn
	add	esp, 8
	test	eax, eax
	jne	SHORT $LN54@prime_fiel
; Line 412
	push	1
	call	esi
	push	eax
	call	DWORD PTR __imp__fflush
	add	esp, 8
	push	412					; 0000019cH
	jmp	$LN854@prime_fiel
$LN54@prime_fiel:
; Line 413
	push	ebp
	push	1
	push	DWORD PTR _x$[esp+236]
	push	DWORD PTR _Q$1$[esp+240]
	push	edi
	call	_EC_POINT_set_compressed_coordinates_GFp
	add	esp, 20					; 00000014H
	test	eax, eax
	jne	SHORT $LN57@prime_fiel
; Line 414
	push	1
	call	esi
	push	eax
	call	DWORD PTR __imp__fflush
	add	esp, 8
	push	414					; 0000019eH
	jmp	$LN854@prime_fiel
$LN57@prime_fiel:
; Line 415
	push	ebp
	push	DWORD PTR _Q$1$[esp+232]
	push	edi
	call	_EC_POINT_is_on_curve
	add	esp, 12					; 0000000cH
	test	eax, eax
	jg	$LN63@prime_fiel
; Line 416
	push	ebp
	push	DWORD PTR _y$[esp+232]
	push	DWORD PTR _x$[esp+236]
	push	DWORD PTR _Q$1$[esp+240]
	push	edi
	call	_EC_POINT_get_affine_coordinates_GFp
	add	esp, 20					; 00000014H
	test	eax, eax
	jne	SHORT $LN60@prime_fiel
; Line 417
	push	1
	call	esi
	push	eax
	call	DWORD PTR __imp__fflush
	add	esp, 8
	push	417					; 000001a1H
	jmp	$LN854@prime_fiel
$LN60@prime_fiel:
; Line 418
	push	OFFSET ??_C@_0BO@EBGLNJGE@Point?5is?5not?5on?5curve?3?5x?5?$DN?50x?$AA@
	push	2
	call	esi
	add	esp, 4
	push	eax
	call	_fprintf
	add	esp, 8
; Line 419
	push	DWORD PTR _x$[esp+228]
	push	2
	call	esi
	add	esp, 4
	push	eax
	call	_BN_print_fp
	add	esp, 8
; Line 420
	push	OFFSET ??_C@_08MABHKNBJ@?0?5y?5?$DN?50x?$AA@
	push	2
	call	esi
	add	esp, 4
	push	eax
	call	_fprintf
	add	esp, 8
; Line 421
	push	DWORD PTR _y$[esp+228]
	push	2
	call	esi
	add	esp, 4
	push	eax
	call	_BN_print_fp
	add	esp, 8
; Line 422
	push	OFFSET ??_C@_01EEMJAFIK@?6?$AA@
	push	2
	call	esi
	add	esp, 4
	push	eax
	call	_fprintf
; Line 423
	push	1
	call	esi
	push	eax
	call	DWORD PTR __imp__fflush
	add	esp, 16					; 00000010H
	push	423					; 000001a7H
	jmp	$LN854@prime_fiel
$LN63@prime_fiel:
; Line 426
	push	OFFSET ??_C@_0BE@MEOPFPBF@A?5cyclic?5subgroup?3?6?$AA@
	push	1
	call	esi
	add	esp, 4
	push	eax
	call	_fprintf
	add	esp, 8
; Line 427
	mov	ecx, 100				; 00000064H
	npad	2
$LL67@prime_fiel:
; Line 429
	mov	eax, ecx
	dec	ecx
	mov	DWORD PTR _k$1$[esp+228], ecx
	test	eax, eax
	je	$LN817@prime_fiel
; Line 432
	push	ebx
	push	edi
	call	_EC_POINT_is_at_infinity
	add	esp, 8
	test	eax, eax
	je	SHORT $LN522@prime_fiel
; Line 433
	push	OFFSET ??_C@_0BI@KGAKJGEC@?5?5?5?5?5point?5at?5infinity?6?$AA@
	jmp	SHORT $LN851@prime_fiel
$LN522@prime_fiel:
; Line 435
	push	ebp
	push	DWORD PTR _y$[esp+232]
	push	DWORD PTR _x$[esp+236]
	push	ebx
	push	edi
	call	_EC_POINT_get_affine_coordinates_GFp
	add	esp, 20					; 00000014H
	test	eax, eax
	je	$LN819@prime_fiel
; Line 438
	push	OFFSET ??_C@_0M@MMHINAIH@?5?5?5?5?5x?5?$DN?50x?$AA@
	push	1
	call	esi
	add	esp, 4
	push	eax
	call	_fprintf
	add	esp, 8
; Line 439
	push	DWORD PTR _x$[esp+228]
	push	1
	call	esi
	add	esp, 4
	push	eax
	call	_BN_print_fp
	add	esp, 8
; Line 440
	push	OFFSET ??_C@_08MABHKNBJ@?0?5y?5?$DN?50x?$AA@
	push	1
	call	esi
	add	esp, 4
	push	eax
	call	_fprintf
	add	esp, 8
; Line 441
	push	DWORD PTR _y$[esp+228]
	push	1
	call	esi
	add	esp, 4
	push	eax
	call	_BN_print_fp
	add	esp, 8
; Line 442
	push	OFFSET ??_C@_01EEMJAFIK@?6?$AA@
$LN851@prime_fiel:
	push	1
	call	esi
	add	esp, 4
	push	eax
	call	_fprintf
	add	esp, 8
; Line 445
	push	ebx
	push	DWORD PTR _R$1$[esp+232]
	call	_EC_POINT_copy
	add	esp, 8
	test	eax, eax
	je	$LN820@prime_fiel
; Line 447
	push	ebp
	push	DWORD PTR _Q$1$[esp+232]
	push	ebx
	push	ebx
	push	edi
	call	_EC_POINT_add
	add	esp, 20					; 00000014H
	test	eax, eax
	je	$LN821@prime_fiel
; Line 463
	push	ebx
	push	edi
	call	_EC_POINT_is_at_infinity
	mov	ecx, DWORD PTR _k$1$[esp+236]
	add	esp, 8
	test	eax, eax
	je	$LL67@prime_fiel
; Line 465
	push	ebp
	push	DWORD PTR _R$1$[esp+232]
	push	DWORD PTR _Q$1$[esp+236]
	push	ebx
	push	edi
	call	_EC_POINT_add
	add	esp, 20					; 00000014H
	test	eax, eax
	jne	SHORT $LN81@prime_fiel
; Line 466
	push	1
	call	esi
	push	eax
	call	DWORD PTR __imp__fflush
	add	esp, 8
	push	466					; 000001d2H
	jmp	$LN854@prime_fiel
$LN81@prime_fiel:
; Line 467
	push	ebx
	push	edi
	call	_EC_POINT_is_at_infinity
	add	esp, 8
	test	eax, eax
	jne	SHORT $LN84@prime_fiel
; Line 468
	push	1
	call	esi
	push	eax
	call	DWORD PTR __imp__fflush
	add	esp, 8
	push	468					; 000001d4H
	jmp	$LN854@prime_fiel
$LN84@prime_fiel:
; Line 470
	push	ebp
	push	100					; 00000064H
	lea	eax, DWORD PTR _buf$[esp+236]
	push	eax
	push	2
	push	DWORD PTR _Q$1$[esp+244]
	push	edi
	call	_EC_POINT_point2oct
	add	esp, 24					; 00000018H
	mov	DWORD PTR _len$1$[esp+228], eax
; Line 473
	test	eax, eax
	jne	SHORT $LN87@prime_fiel
; Line 474
	push	1
	call	esi
	push	eax
	call	DWORD PTR __imp__fflush
	add	esp, 8
	push	474					; 000001daH
	jmp	$LN854@prime_fiel
$LN87@prime_fiel:
; Line 475
	push	ebp
	push	eax
	lea	eax, DWORD PTR _buf$[esp+236]
	push	eax
	push	ebx
	push	edi
	call	_EC_POINT_oct2point
	add	esp, 20					; 00000014H
	test	eax, eax
	jne	SHORT $LN90@prime_fiel
; Line 476
	push	1
	call	esi
	push	eax
	call	DWORD PTR __imp__fflush
	add	esp, 8
	push	476					; 000001dcH
	jmp	$LN854@prime_fiel
$LN90@prime_fiel:
; Line 477
	push	ebp
	push	DWORD PTR _Q$1$[esp+232]
	push	ebx
	push	edi
	call	_EC_POINT_cmp
	add	esp, 16					; 00000010H
	test	eax, eax
	je	SHORT $LN93@prime_fiel
; Line 478
	push	1
	call	esi
	push	eax
	call	DWORD PTR __imp__fflush
	add	esp, 8
	push	478					; 000001deH
	jmp	$LN854@prime_fiel
$LN93@prime_fiel:
; Line 479
	push	OFFSET ??_C@_0DC@JFAFDNDM@Generator?5as?5octet?5string?0?5compr@
	push	1
	call	esi
	add	esp, 4
	push	eax
	call	_fprintf
	add	esp, 8
; Line 480
	cmp	DWORD PTR _len$1$[esp+228], 0
	jbe	SHORT $LN96@prime_fiel
	mov	edi, DWORD PTR _len$1$[esp+228]
	xor	ebx, ebx
$LL97@prime_fiel:
; Line 481
	movzx	eax, BYTE PTR _buf$[esp+ebx+228]
	push	eax
	push	OFFSET ??_C@_04JFFKLGJF@?$CF02X?$AA@
	push	1
	call	esi
	add	esp, 4
	push	eax
	call	_fprintf
	inc	ebx
	add	esp, 12					; 0000000cH
	cmp	ebx, edi
	jb	SHORT $LL97@prime_fiel
	mov	edi, DWORD PTR _tmp$1$[esp+228]
	mov	ebx, DWORD PTR _P$1$[esp+228]
$LN96@prime_fiel:
; Line 483
	push	ebp
	push	100					; 00000064H
	lea	eax, DWORD PTR _buf$[esp+236]
	push	eax
	push	4
	push	DWORD PTR _Q$1$[esp+244]
	push	edi
	call	_EC_POINT_point2oct
	add	esp, 24					; 00000018H
	mov	DWORD PTR _len$2$[esp+228], eax
; Line 486
	test	eax, eax
	jne	SHORT $LN99@prime_fiel
; Line 487
	push	1
	call	esi
	push	eax
	call	DWORD PTR __imp__fflush
	add	esp, 8
	push	487					; 000001e7H
	jmp	$LN854@prime_fiel
$LN99@prime_fiel:
; Line 488
	push	ebp
	push	eax
	lea	eax, DWORD PTR _buf$[esp+236]
	push	eax
	push	ebx
	push	edi
	call	_EC_POINT_oct2point
	add	esp, 20					; 00000014H
	test	eax, eax
	jne	SHORT $LN102@prime_fiel
; Line 489
	push	1
	call	esi
	push	eax
	call	DWORD PTR __imp__fflush
	add	esp, 8
	push	489					; 000001e9H
	jmp	$LN854@prime_fiel
$LN102@prime_fiel:
; Line 490
	push	ebp
	push	DWORD PTR _Q$1$[esp+232]
	push	ebx
	push	edi
	call	_EC_POINT_cmp
	add	esp, 16					; 00000010H
	test	eax, eax
	je	SHORT $LN105@prime_fiel
; Line 491
	push	1
	call	esi
	push	eax
	call	DWORD PTR __imp__fflush
	add	esp, 8
	push	491					; 000001ebH
	jmp	$LN854@prime_fiel
$LN105@prime_fiel:
; Line 492
	push	OFFSET ??_C@_0DF@LCMILNIB@?6Generator?5as?5octet?5string?0?5unco@
	push	1
	call	esi
	add	esp, 4
	push	eax
	call	_fprintf
	add	esp, 8
; Line 493
	cmp	DWORD PTR _len$2$[esp+228], 0
	jbe	SHORT $LN108@prime_fiel
	mov	edi, DWORD PTR _len$2$[esp+228]
	xor	ebx, ebx
$LL109@prime_fiel:
; Line 494
	movzx	eax, BYTE PTR _buf$[esp+ebx+228]
	push	eax
	push	OFFSET ??_C@_04JFFKLGJF@?$CF02X?$AA@
	push	1
	call	esi
	add	esp, 4
	push	eax
	call	_fprintf
	inc	ebx
	add	esp, 12					; 0000000cH
	cmp	ebx, edi
	jb	SHORT $LL109@prime_fiel
	mov	edi, DWORD PTR _tmp$1$[esp+228]
	mov	ebx, DWORD PTR _P$1$[esp+228]
$LN108@prime_fiel:
; Line 496
	push	ebp
	push	100					; 00000064H
	lea	eax, DWORD PTR _buf$[esp+236]
	push	eax
	push	6
	push	DWORD PTR _Q$1$[esp+244]
	push	edi
	call	_EC_POINT_point2oct
	add	esp, 24					; 00000018H
	mov	DWORD PTR _len$3$[esp+228], eax
; Line 499
	test	eax, eax
	jne	SHORT $LN111@prime_fiel
; Line 500
	push	1
	call	esi
	push	eax
	call	DWORD PTR __imp__fflush
	add	esp, 8
	push	500					; 000001f4H
	jmp	$LN854@prime_fiel
$LN111@prime_fiel:
; Line 501
	push	ebp
	push	eax
	lea	eax, DWORD PTR _buf$[esp+236]
	push	eax
	push	ebx
	push	edi
	call	_EC_POINT_oct2point
	add	esp, 20					; 00000014H
	test	eax, eax
	jne	SHORT $LN114@prime_fiel
; Line 502
	push	1
	call	esi
	push	eax
	call	DWORD PTR __imp__fflush
	add	esp, 8
	push	502					; 000001f6H
	jmp	$LN854@prime_fiel
$LN114@prime_fiel:
; Line 503
	push	ebp
	push	DWORD PTR _Q$1$[esp+232]
	push	ebx
	push	edi
	call	_EC_POINT_cmp
	add	esp, 16					; 00000010H
	test	eax, eax
	je	SHORT $LN117@prime_fiel
; Line 504
	push	1
	call	esi
	push	eax
	call	DWORD PTR __imp__fflush
	add	esp, 8
	push	504					; 000001f8H
	jmp	$LN854@prime_fiel
$LN117@prime_fiel:
; Line 505
	push	OFFSET ??_C@_0CP@PHEDNBLP@?6Generator?5as?5octet?5string?0?5hybr@
	push	1
	call	esi
	add	esp, 4
	push	eax
	call	_fprintf
	add	esp, 8
; Line 506
	cmp	DWORD PTR _len$3$[esp+228], 0
	jbe	SHORT $LN120@prime_fiel
	mov	edi, DWORD PTR _len$3$[esp+228]
	xor	ebx, ebx
$LL121@prime_fiel:
; Line 507
	movzx	eax, BYTE PTR _buf$[esp+ebx+228]
	push	eax
	push	OFFSET ??_C@_04JFFKLGJF@?$CF02X?$AA@
	push	1
	call	esi
	add	esp, 4
	push	eax
	call	_fprintf
	inc	ebx
	add	esp, 12					; 0000000cH
	cmp	ebx, edi
	jb	SHORT $LL121@prime_fiel
	mov	edi, DWORD PTR _tmp$1$[esp+228]
	mov	ebx, DWORD PTR _P$1$[esp+228]
$LN120@prime_fiel:
; Line 509
	push	ebp
	push	DWORD PTR _z$[esp+232]
	push	DWORD PTR _y$[esp+236]
	push	DWORD PTR _x$[esp+240]
	push	DWORD PTR _R$1$[esp+244]
	push	edi
	call	_EC_POINT_get_Jprojective_coordinates_GFp
	add	esp, 24					; 00000018H
	test	eax, eax
	jne	SHORT $LN123@prime_fiel
; Line 510
	push	1
	call	esi
	push	eax
	call	DWORD PTR __imp__fflush
	add	esp, 8
	push	510					; 000001feH
	jmp	$LN854@prime_fiel
$LN123@prime_fiel:
; Line 511
	push	OFFSET ??_C@_0GD@NLMMCCPG@?6A?5representation?5of?5the?5inverse@
	push	1
	call	esi
	add	esp, 4
	push	eax
	call	_fprintf
	add	esp, 8
; Line 513
	push	DWORD PTR _x$[esp+228]
	push	1
	call	esi
	add	esp, 4
	push	eax
	call	_BN_print_fp
	add	esp, 8
; Line 514
	push	OFFSET ??_C@_08PKKJEIF@?0?5Y?5?$DN?50x?$AA@
	push	1
	call	esi
	add	esp, 4
	push	eax
	call	_fprintf
	add	esp, 8
; Line 515
	push	DWORD PTR _y$[esp+228]
	push	1
	call	esi
	add	esp, 4
	push	eax
	call	_BN_print_fp
	add	esp, 8
; Line 516
	push	OFFSET ??_C@_08DOECIOBI@?0?5Z?5?$DN?50x?$AA@
	push	1
	call	esi
	add	esp, 4
	push	eax
	call	_fprintf
	add	esp, 8
; Line 517
	push	DWORD PTR _z$[esp+228]
	push	1
	call	esi
	add	esp, 4
	push	eax
	call	_BN_print_fp
	add	esp, 8
; Line 518
	push	OFFSET ??_C@_01EEMJAFIK@?6?$AA@
	push	1
	call	esi
	add	esp, 4
	push	eax
	call	_fprintf
; Line 520
	push	ebp
	push	ebx
	push	edi
	call	_EC_POINT_invert
	add	esp, 20					; 00000014H
	test	eax, eax
	jne	SHORT $LN126@prime_fiel
; Line 521
	push	1
	call	esi
	push	eax
	call	DWORD PTR __imp__fflush
	add	esp, 8
	push	521					; 00000209H
	jmp	$LN854@prime_fiel
$LN126@prime_fiel:
; Line 522
	push	ebp
	push	DWORD PTR _R$1$[esp+232]
	push	ebx
	push	edi
	call	_EC_POINT_cmp
	add	esp, 16					; 00000010H
	test	eax, eax
	je	SHORT $LN129@prime_fiel
; Line 523
	push	1
	call	esi
	push	eax
	call	DWORD PTR __imp__fflush
	add	esp, 8
	push	523					; 0000020bH
	jmp	$LN854@prime_fiel
$LN129@prime_fiel:
; Line 530
	lea	eax, DWORD PTR _p$[esp+228]
	push	OFFSET ??_C@_0CJ@PHKHFLJG@FFFFFFFFFFFFFFFFFFFFFFFFFFFFFFFF@
	push	eax
	call	_BN_hex2bn
	add	esp, 8
	test	eax, eax
	jne	SHORT $LN132@prime_fiel
; Line 531
	push	1
	call	esi
	push	eax
	call	DWORD PTR __imp__fflush
	add	esp, 8
	push	531					; 00000213H
	jmp	$LN854@prime_fiel
$LN132@prime_fiel:
; Line 532
	push	0
	push	ebp
	push	0
	push	DWORD PTR _p$[esp+240]
	call	_BN_is_prime_ex
	add	esp, 16					; 00000010H
	cmp	eax, 1
	je	SHORT $LN135@prime_fiel
; Line 533
	push	1
	call	esi
	push	eax
	call	DWORD PTR __imp__fflush
	add	esp, 8
	push	533					; 00000215H
	jmp	$LN854@prime_fiel
$LN135@prime_fiel:
; Line 534
	lea	eax, DWORD PTR _a$[esp+228]
	push	OFFSET ??_C@_0CJ@IKNAKPND@FFFFFFFFFFFFFFFFFFFFFFFFFFFFFFFF@
	push	eax
	call	_BN_hex2bn
	add	esp, 8
	test	eax, eax
	jne	SHORT $LN138@prime_fiel
; Line 535
	push	1
	call	esi
	push	eax
	call	DWORD PTR __imp__fflush
	add	esp, 8
	push	535					; 00000217H
	jmp	$LN854@prime_fiel
$LN138@prime_fiel:
; Line 536
	lea	eax, DWORD PTR _b$[esp+228]
	push	OFFSET ??_C@_0CJ@CGMIEEHD@1C97BEFC54BD7A8B65ACF89F81D4D4AD@
	push	eax
	call	_BN_hex2bn
	add	esp, 8
	test	eax, eax
	jne	SHORT $LN141@prime_fiel
; Line 537
	push	1
	call	esi
	push	eax
	call	DWORD PTR __imp__fflush
	add	esp, 8
	push	537					; 00000219H
	jmp	$LN854@prime_fiel
$LN141@prime_fiel:
; Line 538
	push	ebp
	push	DWORD PTR _b$[esp+232]
	push	DWORD PTR _a$[esp+236]
	push	DWORD PTR _p$[esp+240]
	push	edi
	call	_EC_GROUP_set_curve_GFp
	add	esp, 20					; 00000014H
	test	eax, eax
	jne	SHORT $LN144@prime_fiel
; Line 539
	push	1
	call	esi
	push	eax
	call	DWORD PTR __imp__fflush
	add	esp, 8
	push	539					; 0000021bH
	jmp	$LN854@prime_fiel
$LN144@prime_fiel:
; Line 541
	lea	eax, DWORD PTR _x$[esp+228]
	push	OFFSET ??_C@_0CJ@MIDIAOCP@4A96B5688EF573284664698968C38BB9@
	push	eax
	call	_BN_hex2bn
	add	esp, 8
	test	eax, eax
	jne	SHORT $LN147@prime_fiel
; Line 542
	push	1
	call	esi
	push	eax
	call	DWORD PTR __imp__fflush
	add	esp, 8
	push	542					; 0000021eH
	jmp	$LN854@prime_fiel
$LN147@prime_fiel:
; Line 543
	lea	eax, DWORD PTR _y$[esp+228]
	push	OFFSET ??_C@_0CJ@IFNODPPM@23a628553168947d59dcc91204235137@
	push	eax
	call	_BN_hex2bn
	add	esp, 8
	test	eax, eax
	jne	SHORT $LN150@prime_fiel
; Line 544
	push	1
	call	esi
	push	eax
	call	DWORD PTR __imp__fflush
	add	esp, 8
	push	544					; 00000220H
	jmp	$LN854@prime_fiel
$LN150@prime_fiel:
; Line 545
	push	ebp
	push	DWORD PTR _y$[esp+232]
	push	DWORD PTR _x$[esp+236]
	push	ebx
	push	edi
	call	_EC_POINT_set_affine_coordinates_GFp
	add	esp, 20					; 00000014H
	test	eax, eax
	jne	SHORT $LN153@prime_fiel
; Line 546
	push	1
	call	esi
	push	eax
	call	DWORD PTR __imp__fflush
	add	esp, 8
	push	546					; 00000222H
	jmp	$LN854@prime_fiel
$LN153@prime_fiel:
; Line 547
	push	ebp
	push	ebx
	push	edi
	call	_EC_POINT_is_on_curve
	add	esp, 12					; 0000000cH
	test	eax, eax
	jg	SHORT $LN156@prime_fiel
; Line 548
	push	1
	call	esi
	push	eax
	call	DWORD PTR __imp__fflush
	add	esp, 8
	push	548					; 00000224H
	jmp	$LN854@prime_fiel
$LN156@prime_fiel:
; Line 549
	lea	eax, DWORD PTR _z$[esp+228]
	push	OFFSET ??_C@_0CL@EDKAMPLM@0100000000000000000001F4C8F927AE@
	push	eax
	call	_BN_hex2bn
	add	esp, 8
	test	eax, eax
	jne	SHORT $LN159@prime_fiel
; Line 550
	push	1
	call	esi
	push	eax
	call	DWORD PTR __imp__fflush
	add	esp, 8
	push	550					; 00000226H
	jmp	$LN854@prime_fiel
$LN159@prime_fiel:
; Line 551
	call	_BN_value_one
	push	eax
	push	DWORD PTR _z$[esp+232]
	push	ebx
	push	edi
	call	_EC_GROUP_set_generator
	add	esp, 16					; 00000010H
	test	eax, eax
	jne	SHORT $LN162@prime_fiel
; Line 552
	push	1
	call	esi
	push	eax
	call	DWORD PTR __imp__fflush
	add	esp, 8
	push	552					; 00000228H
	jmp	$LN854@prime_fiel
$LN162@prime_fiel:
; Line 554
	push	ebp
	push	DWORD PTR _y$[esp+232]
	push	DWORD PTR _x$[esp+236]
	push	ebx
	push	edi
	call	_EC_POINT_get_affine_coordinates_GFp
	add	esp, 20					; 00000014H
	test	eax, eax
	jne	SHORT $LN165@prime_fiel
; Line 555
	push	1
	call	esi
	push	eax
	call	DWORD PTR __imp__fflush
	add	esp, 8
	push	555					; 0000022bH
	jmp	$LN854@prime_fiel
$LN165@prime_fiel:
; Line 556
	push	OFFSET ??_C@_0DA@NBKFLMMD@?6SEC2?5curve?5secp160r1?5?9?9?5Generat@
	push	1
	call	esi
	add	esp, 4
	push	eax
	call	_fprintf
	add	esp, 8
; Line 557
	push	DWORD PTR _x$[esp+228]
	push	1
	call	esi
	add	esp, 4
	push	eax
	call	_BN_print_fp
	add	esp, 8
; Line 558
	push	OFFSET ??_C@_0N@CEPBDNPI@?6?5?5?5?5?5y?5?$DN?50x?$AA@
	push	1
	call	esi
	add	esp, 4
	push	eax
	call	_fprintf
	add	esp, 8
; Line 559
	push	DWORD PTR _y$[esp+228]
	push	1
	call	esi
	add	esp, 4
	push	eax
	call	_BN_print_fp
	add	esp, 8
; Line 560
	push	OFFSET ??_C@_01EEMJAFIK@?6?$AA@
	push	1
	call	esi
	add	esp, 4
	push	eax
	call	_fprintf
; Line 562
	lea	eax, DWORD PTR _z$[esp+236]
	push	OFFSET ??_C@_0CJ@IFNODPPM@23a628553168947d59dcc91204235137@
	push	eax
	call	_BN_hex2bn
	add	esp, 16					; 00000010H
	test	eax, eax
	jne	SHORT $LN168@prime_fiel
; Line 563
	push	1
	call	esi
	push	eax
	call	DWORD PTR __imp__fflush
	add	esp, 8
	push	563					; 00000233H
	jmp	$LN854@prime_fiel
$LN168@prime_fiel:
; Line 564
	push	DWORD PTR _z$[esp+228]
	push	DWORD PTR _y$[esp+232]
	call	_BN_cmp
	add	esp, 8
	test	eax, eax
	je	SHORT $LN171@prime_fiel
; Line 565
	push	1
	call	esi
	push	eax
	call	DWORD PTR __imp__fflush
	add	esp, 8
	push	565					; 00000235H
	jmp	$LN854@prime_fiel
$LN171@prime_fiel:
; Line 567
	push	OFFSET ??_C@_0BC@NNIFDGGK@verify?5degree?5?4?4?4?$AA@
	push	1
	call	esi
	add	esp, 4
	push	eax
	call	_fprintf
; Line 568
	push	edi
	call	_EC_GROUP_get_degree
	add	esp, 12					; 0000000cH
	cmp	eax, 160				; 000000a0H
	je	SHORT $LN174@prime_fiel
; Line 569
	push	1
	call	esi
	push	eax
	call	DWORD PTR __imp__fflush
	add	esp, 8
	push	569					; 00000239H
	jmp	$LN854@prime_fiel
$LN174@prime_fiel:
; Line 570
	push	OFFSET ??_C@_04CFDEAMPI@?5ok?6?$AA@
	push	1
	call	esi
	add	esp, 4
	push	eax
	call	_fprintf
; Line 572
	push	edi
	call	_group_order_tests
; Line 574
	push	edi
	call	_EC_GROUP_method_of
	push	eax
	call	_EC_GROUP_new
	add	esp, 20					; 00000014H
	mov	DWORD PTR _P_160$1$[esp+228], eax
	test	eax, eax
	jne	SHORT $LN177@prime_fiel
; Line 575
	push	1
	call	esi
	push	eax
	call	DWORD PTR __imp__fflush
	add	esp, 8
	push	575					; 0000023fH
	jmp	$LN854@prime_fiel
$LN177@prime_fiel:
; Line 576
	push	edi
	push	eax
	call	_EC_GROUP_copy
	add	esp, 8
	test	eax, eax
	jne	SHORT $LN180@prime_fiel
; Line 577
	push	1
	call	esi
	push	eax
	call	DWORD PTR __imp__fflush
	add	esp, 8
	push	577					; 00000241H
	jmp	$LN854@prime_fiel
$LN180@prime_fiel:
; Line 581
	lea	eax, DWORD PTR _p$[esp+228]
	push	OFFSET ??_C@_0DB@DIPMNOFO@FFFFFFFFFFFFFFFFFFFFFFFFFFFFFFFE@
	push	eax
	call	_BN_hex2bn
	add	esp, 8
	test	eax, eax
	jne	SHORT $LN183@prime_fiel
; Line 582
	push	1
	call	esi
	push	eax
	call	DWORD PTR __imp__fflush
	add	esp, 8
	push	582					; 00000246H
	jmp	$LN854@prime_fiel
$LN183@prime_fiel:
; Line 583
	push	0
	push	ebp
	push	0
	push	DWORD PTR _p$[esp+240]
	call	_BN_is_prime_ex
	add	esp, 16					; 00000010H
	cmp	eax, 1
	je	SHORT $LN186@prime_fiel
; Line 584
	push	1
	call	esi
	push	eax
	call	DWORD PTR __imp__fflush
	add	esp, 8
	push	584					; 00000248H
	jmp	$LN854@prime_fiel
$LN186@prime_fiel:
; Line 585
	lea	eax, DWORD PTR _a$[esp+228]
	push	OFFSET ??_C@_0DB@EFILCKBL@FFFFFFFFFFFFFFFFFFFFFFFFFFFFFFFE@
	push	eax
	call	_BN_hex2bn
	add	esp, 8
	test	eax, eax
	jne	SHORT $LN189@prime_fiel
; Line 586
	push	1
	call	esi
	push	eax
	call	DWORD PTR __imp__fflush
	add	esp, 8
	push	586					; 0000024aH
	jmp	$LN854@prime_fiel
$LN189@prime_fiel:
; Line 587
	lea	eax, DWORD PTR _b$[esp+228]
	push	OFFSET ??_C@_0DB@PLBGALEH@64210519E59C80E70FA7E9AB72243049@
	push	eax
	call	_BN_hex2bn
	add	esp, 8
	test	eax, eax
	jne	SHORT $LN192@prime_fiel
; Line 588
	push	1
	call	esi
	push	eax
	call	DWORD PTR __imp__fflush
	add	esp, 8
	push	588					; 0000024cH
	jmp	$LN854@prime_fiel
$LN192@prime_fiel:
; Line 589
	push	ebp
	push	DWORD PTR _b$[esp+232]
	push	DWORD PTR _a$[esp+236]
	push	DWORD PTR _p$[esp+240]
	push	edi
	call	_EC_GROUP_set_curve_GFp
	add	esp, 20					; 00000014H
	test	eax, eax
	jne	SHORT $LN195@prime_fiel
; Line 590
	push	1
	call	esi
	push	eax
	call	DWORD PTR __imp__fflush
	add	esp, 8
	push	590					; 0000024eH
	jmp	$LN854@prime_fiel
$LN195@prime_fiel:
; Line 592
	lea	eax, DWORD PTR _x$[esp+228]
	push	OFFSET ??_C@_0DB@LHIGDGHO@188DA80EB03090F67CBF20EB43A18800@
	push	eax
	call	_BN_hex2bn
	add	esp, 8
	test	eax, eax
	jne	SHORT $LN198@prime_fiel
; Line 593
	push	1
	call	esi
	push	eax
	call	DWORD PTR __imp__fflush
	add	esp, 8
	push	593					; 00000251H
	jmp	$LN854@prime_fiel
$LN198@prime_fiel:
; Line 594
	push	ebp
	push	1
	push	DWORD PTR _x$[esp+236]
	push	ebx
	push	edi
	call	_EC_POINT_set_compressed_coordinates_GFp
	add	esp, 20					; 00000014H
	test	eax, eax
	jne	SHORT $LN201@prime_fiel
; Line 595
	push	1
	call	esi
	push	eax
	call	DWORD PTR __imp__fflush
	add	esp, 8
	push	595					; 00000253H
	jmp	$LN854@prime_fiel
$LN201@prime_fiel:
; Line 596
	push	ebp
	push	ebx
	push	edi
	call	_EC_POINT_is_on_curve
	add	esp, 12					; 0000000cH
	test	eax, eax
	jg	SHORT $LN204@prime_fiel
; Line 597
	push	1
	call	esi
	push	eax
	call	DWORD PTR __imp__fflush
	add	esp, 8
	push	597					; 00000255H
	jmp	$LN854@prime_fiel
$LN204@prime_fiel:
; Line 598
	lea	eax, DWORD PTR _z$[esp+228]
	push	OFFSET ??_C@_0DB@EHFHEEFE@FFFFFFFFFFFFFFFFFFFFFFFF99DEF836@
	push	eax
	call	_BN_hex2bn
	add	esp, 8
	test	eax, eax
	jne	SHORT $LN207@prime_fiel
; Line 599
	push	1
	call	esi
	push	eax
	call	DWORD PTR __imp__fflush
	add	esp, 8
	push	599					; 00000257H
	jmp	$LN854@prime_fiel
$LN207@prime_fiel:
; Line 600
	call	_BN_value_one
	push	eax
	push	DWORD PTR _z$[esp+232]
	push	ebx
	push	edi
	call	_EC_GROUP_set_generator
	add	esp, 16					; 00000010H
	test	eax, eax
	jne	SHORT $LN210@prime_fiel
; Line 601
	push	1
	call	esi
	push	eax
	call	DWORD PTR __imp__fflush
	add	esp, 8
	push	601					; 00000259H
	jmp	$LN854@prime_fiel
$LN210@prime_fiel:
; Line 603
	push	ebp
	push	DWORD PTR _y$[esp+232]
	push	DWORD PTR _x$[esp+236]
	push	ebx
	push	edi
	call	_EC_POINT_get_affine_coordinates_GFp
	add	esp, 20					; 00000014H
	test	eax, eax
	jne	SHORT $LN213@prime_fiel
; Line 604
	push	1
	call	esi
	push	eax
	call	DWORD PTR __imp__fflush
	add	esp, 8
	push	604					; 0000025cH
	jmp	$LN854@prime_fiel
$LN213@prime_fiel:
; Line 605
	push	OFFSET ??_C@_0CM@EHMHPIKF@?6NIST?5curve?5P?9192?5?9?9?5Generator?3?6@
	push	1
	call	esi
	add	esp, 4
	push	eax
	call	_fprintf
	add	esp, 8
; Line 606
	push	DWORD PTR _x$[esp+228]
	push	1
	call	esi
	add	esp, 4
	push	eax
	call	_BN_print_fp
	add	esp, 8
; Line 607
	push	OFFSET ??_C@_0N@CEPBDNPI@?6?5?5?5?5?5y?5?$DN?50x?$AA@
	push	1
	call	esi
	add	esp, 4
	push	eax
	call	_fprintf
	add	esp, 8
; Line 608
	push	DWORD PTR _y$[esp+228]
	push	1
	call	esi
	add	esp, 4
	push	eax
	call	_BN_print_fp
	add	esp, 8
; Line 609
	push	OFFSET ??_C@_01EEMJAFIK@?6?$AA@
	push	1
	call	esi
	add	esp, 4
	push	eax
	call	_fprintf
; Line 611
	lea	eax, DWORD PTR _z$[esp+236]
	push	OFFSET ??_C@_0DB@PMAOLPKN@07192B95FFC8DA78631011ED6B24CDD5@
	push	eax
	call	_BN_hex2bn
	add	esp, 16					; 00000010H
	test	eax, eax
	jne	SHORT $LN216@prime_fiel
; Line 612
	push	1
	call	esi
	push	eax
	call	DWORD PTR __imp__fflush
	add	esp, 8
	push	612					; 00000264H
	jmp	$LN854@prime_fiel
$LN216@prime_fiel:
; Line 613
	push	DWORD PTR _z$[esp+228]
	push	DWORD PTR _y$[esp+232]
	call	_BN_cmp
	add	esp, 8
	test	eax, eax
	je	SHORT $LN219@prime_fiel
; Line 614
	push	1
	call	esi
	push	eax
	call	DWORD PTR __imp__fflush
	add	esp, 8
	push	614					; 00000266H
	jmp	$LN854@prime_fiel
$LN219@prime_fiel:
; Line 616
	push	OFFSET ??_C@_0BC@NNIFDGGK@verify?5degree?5?4?4?4?$AA@
	push	1
	call	esi
	add	esp, 4
	push	eax
	call	_fprintf
; Line 617
	push	edi
	call	_EC_GROUP_get_degree
	add	esp, 12					; 0000000cH
	cmp	eax, 192				; 000000c0H
	je	SHORT $LN222@prime_fiel
; Line 618
	push	1
	call	esi
	push	eax
	call	DWORD PTR __imp__fflush
	add	esp, 8
	push	618					; 0000026aH
	jmp	$LN854@prime_fiel
$LN222@prime_fiel:
; Line 619
	push	OFFSET ??_C@_04CFDEAMPI@?5ok?6?$AA@
	push	1
	call	esi
	add	esp, 4
	push	eax
	call	_fprintf
; Line 621
	push	edi
	call	_group_order_tests
; Line 623
	push	edi
	call	_EC_GROUP_method_of
	push	eax
	call	_EC_GROUP_new
	add	esp, 20					; 00000014H
	mov	DWORD PTR _P_192$1$[esp+228], eax
	test	eax, eax
	jne	SHORT $LN225@prime_fiel
; Line 624
	push	1
	call	esi
	push	eax
	call	DWORD PTR __imp__fflush
	add	esp, 8
	push	624					; 00000270H
	jmp	$LN854@prime_fiel
$LN225@prime_fiel:
; Line 625
	push	edi
	push	eax
	call	_EC_GROUP_copy
	add	esp, 8
	test	eax, eax
	jne	SHORT $LN228@prime_fiel
; Line 626
	push	1
	call	esi
	push	eax
	call	DWORD PTR __imp__fflush
	add	esp, 8
	push	626					; 00000272H
	jmp	$LN854@prime_fiel
$LN228@prime_fiel:
; Line 630
	lea	eax, DWORD PTR _p$[esp+228]
	push	OFFSET ??_C@_0DJ@KBMBLOHP@FFFFFFFFFFFFFFFFFFFFFFFFFFFFFFFF@
	push	eax
	call	_BN_hex2bn
	add	esp, 8
	test	eax, eax
	jne	SHORT $LN231@prime_fiel
; Line 632
	push	1
	call	esi
	push	eax
	call	DWORD PTR __imp__fflush
	add	esp, 8
	push	632					; 00000278H
	jmp	$LN854@prime_fiel
$LN231@prime_fiel:
; Line 633
	push	0
	push	ebp
	push	0
	push	DWORD PTR _p$[esp+240]
	call	_BN_is_prime_ex
	add	esp, 16					; 00000010H
	cmp	eax, 1
	je	SHORT $LN234@prime_fiel
; Line 634
	push	1
	call	esi
	push	eax
	call	DWORD PTR __imp__fflush
	add	esp, 8
	push	634					; 0000027aH
	jmp	$LN854@prime_fiel
$LN234@prime_fiel:
; Line 635
	lea	eax, DWORD PTR _a$[esp+228]
	push	OFFSET ??_C@_0DJ@GECEELCG@FFFFFFFFFFFFFFFFFFFFFFFFFFFFFFFE@
	push	eax
	call	_BN_hex2bn
	add	esp, 8
	test	eax, eax
	jne	SHORT $LN237@prime_fiel
; Line 637
	push	1
	call	esi
	push	eax
	call	DWORD PTR __imp__fflush
	add	esp, 8
	push	637					; 0000027dH
	jmp	$LN854@prime_fiel
$LN237@prime_fiel:
; Line 638
	lea	eax, DWORD PTR _b$[esp+228]
	push	OFFSET ??_C@_0DJ@KCHEMFFJ@B4050A850C04B3ABF54132565044B0B7@
	push	eax
	call	_BN_hex2bn
	add	esp, 8
	test	eax, eax
	jne	SHORT $LN240@prime_fiel
; Line 640
	push	1
	call	esi
	push	eax
	call	DWORD PTR __imp__fflush
	add	esp, 8
	push	640					; 00000280H
	jmp	$LN854@prime_fiel
$LN240@prime_fiel:
; Line 641
	push	ebp
	push	DWORD PTR _b$[esp+232]
	push	DWORD PTR _a$[esp+236]
	push	DWORD PTR _p$[esp+240]
	push	edi
	call	_EC_GROUP_set_curve_GFp
	add	esp, 20					; 00000014H
	test	eax, eax
	jne	SHORT $LN243@prime_fiel
; Line 642
	push	1
	call	esi
	push	eax
	call	DWORD PTR __imp__fflush
	add	esp, 8
	push	642					; 00000282H
	jmp	$LN854@prime_fiel
$LN243@prime_fiel:
; Line 644
	lea	eax, DWORD PTR _x$[esp+228]
	push	OFFSET ??_C@_0DJ@NPHLCOHI@B70E0CBD6BB4BF7F321390B94A03C1D3@
	push	eax
	call	_BN_hex2bn
	add	esp, 8
	test	eax, eax
	jne	SHORT $LN246@prime_fiel
; Line 646
	push	1
	call	esi
	push	eax
	call	DWORD PTR __imp__fflush
	add	esp, 8
	push	646					; 00000286H
	jmp	$LN854@prime_fiel
$LN246@prime_fiel:
; Line 647
	push	ebp
	push	0
	push	DWORD PTR _x$[esp+236]
	push	ebx
	push	edi
	call	_EC_POINT_set_compressed_coordinates_GFp
	add	esp, 20					; 00000014H
	test	eax, eax
	jne	SHORT $LN249@prime_fiel
; Line 648
	push	1
	call	esi
	push	eax
	call	DWORD PTR __imp__fflush
	add	esp, 8
	push	648					; 00000288H
	jmp	$LN854@prime_fiel
$LN249@prime_fiel:
; Line 649
	push	ebp
	push	ebx
	push	edi
	call	_EC_POINT_is_on_curve
	add	esp, 12					; 0000000cH
	test	eax, eax
	jg	SHORT $LN252@prime_fiel
; Line 650
	push	1
	call	esi
	push	eax
	call	DWORD PTR __imp__fflush
	add	esp, 8
	push	650					; 0000028aH
	jmp	$LN854@prime_fiel
$LN252@prime_fiel:
; Line 651
	lea	eax, DWORD PTR _z$[esp+228]
	push	OFFSET ??_C@_0DJ@BHCANMNE@FFFFFFFFFFFFFFFFFFFFFFFFFFFF16A2@
	push	eax
	call	_BN_hex2bn
	add	esp, 8
	test	eax, eax
	jne	SHORT $LN255@prime_fiel
; Line 653
	push	1
	call	esi
	push	eax
	call	DWORD PTR __imp__fflush
	add	esp, 8
	push	653					; 0000028dH
	jmp	$LN854@prime_fiel
$LN255@prime_fiel:
; Line 654
	call	_BN_value_one
	push	eax
	push	DWORD PTR _z$[esp+232]
	push	ebx
	push	edi
	call	_EC_GROUP_set_generator
	add	esp, 16					; 00000010H
	test	eax, eax
	jne	SHORT $LN258@prime_fiel
; Line 655
	push	1
	call	esi
	push	eax
	call	DWORD PTR __imp__fflush
	add	esp, 8
	push	655					; 0000028fH
	jmp	$LN854@prime_fiel
$LN258@prime_fiel:
; Line 657
	push	ebp
	push	DWORD PTR _y$[esp+232]
	push	DWORD PTR _x$[esp+236]
	push	ebx
	push	edi
	call	_EC_POINT_get_affine_coordinates_GFp
	add	esp, 20					; 00000014H
	test	eax, eax
	jne	SHORT $LN261@prime_fiel
; Line 658
	push	1
	call	esi
	push	eax
	call	DWORD PTR __imp__fflush
	add	esp, 8
	push	658					; 00000292H
	jmp	$LN854@prime_fiel
$LN261@prime_fiel:
; Line 659
	push	OFFSET ??_C@_0CM@NAOHNDN@?6NIST?5curve?5P?9224?5?9?9?5Generator?3?6@
	push	1
	call	esi
	add	esp, 4
	push	eax
	call	_fprintf
	add	esp, 8
; Line 660
	push	DWORD PTR _x$[esp+228]
	push	1
	call	esi
	add	esp, 4
	push	eax
	call	_BN_print_fp
	add	esp, 8
; Line 661
	push	OFFSET ??_C@_0N@CEPBDNPI@?6?5?5?5?5?5y?5?$DN?50x?$AA@
	push	1
	call	esi
	add	esp, 4
	push	eax
	call	_fprintf
	add	esp, 8
; Line 662
	push	DWORD PTR _y$[esp+228]
	push	1
	call	esi
	add	esp, 4
	push	eax
	call	_BN_print_fp
	add	esp, 8
; Line 663
	push	OFFSET ??_C@_01EEMJAFIK@?6?$AA@
	push	1
	call	esi
	add	esp, 4
	push	eax
	call	_fprintf
; Line 665
	lea	eax, DWORD PTR _z$[esp+236]
	push	OFFSET ??_C@_0DJ@EDHFDDJK@BD376388B5F723FB4C22DFE6CD4375A0@
	push	eax
	call	_BN_hex2bn
	add	esp, 16					; 00000010H
	test	eax, eax
	jne	SHORT $LN264@prime_fiel
; Line 667
	push	1
	call	esi
	push	eax
	call	DWORD PTR __imp__fflush
	add	esp, 8
	push	667					; 0000029bH
	jmp	$LN854@prime_fiel
$LN264@prime_fiel:
; Line 668
	push	DWORD PTR _z$[esp+228]
	push	DWORD PTR _y$[esp+232]
	call	_BN_cmp
	add	esp, 8
	test	eax, eax
	je	SHORT $LN267@prime_fiel
; Line 669
	push	1
	call	esi
	push	eax
	call	DWORD PTR __imp__fflush
	add	esp, 8
	push	669					; 0000029dH
	jmp	$LN854@prime_fiel
$LN267@prime_fiel:
; Line 671
	push	OFFSET ??_C@_0BC@NNIFDGGK@verify?5degree?5?4?4?4?$AA@
	push	1
	call	esi
	add	esp, 4
	push	eax
	call	_fprintf
; Line 672
	push	edi
	call	_EC_GROUP_get_degree
	add	esp, 12					; 0000000cH
	cmp	eax, 224				; 000000e0H
	je	SHORT $LN270@prime_fiel
; Line 673
	push	1
	call	esi
	push	eax
	call	DWORD PTR __imp__fflush
	add	esp, 8
	push	673					; 000002a1H
	jmp	$LN854@prime_fiel
$LN270@prime_fiel:
; Line 674
	push	OFFSET ??_C@_04CFDEAMPI@?5ok?6?$AA@
	push	1
	call	esi
	add	esp, 4
	push	eax
	call	_fprintf
; Line 676
	push	edi
	call	_group_order_tests
; Line 678
	push	edi
	call	_EC_GROUP_method_of
	push	eax
	call	_EC_GROUP_new
	add	esp, 20					; 00000014H
	mov	DWORD PTR _P_224$1$[esp+228], eax
	test	eax, eax
	jne	SHORT $LN273@prime_fiel
; Line 679
	push	1
	call	esi
	push	eax
	call	DWORD PTR __imp__fflush
	add	esp, 8
	push	679					; 000002a7H
	jmp	$LN854@prime_fiel
$LN273@prime_fiel:
; Line 680
	push	edi
	push	eax
	call	_EC_GROUP_copy
	add	esp, 8
	test	eax, eax
	jne	SHORT $LN276@prime_fiel
; Line 681
	push	1
	call	esi
	push	eax
	call	DWORD PTR __imp__fflush
	add	esp, 8
	push	681					; 000002a9H
	jmp	$LN854@prime_fiel
$LN276@prime_fiel:
; Line 685
	lea	eax, DWORD PTR _p$[esp+228]
	push	OFFSET ??_C@_0EB@NKKCFGLN@FFFFFFFF000000010000000000000000@
	push	eax
	call	_BN_hex2bn
	add	esp, 8
	test	eax, eax
	jne	SHORT $LN279@prime_fiel
; Line 688
	push	1
	call	esi
	push	eax
	call	DWORD PTR __imp__fflush
	add	esp, 8
	push	688					; 000002b0H
	jmp	$LN854@prime_fiel
$LN279@prime_fiel:
; Line 689
	push	0
	push	ebp
	push	0
	push	DWORD PTR _p$[esp+240]
	call	_BN_is_prime_ex
	add	esp, 16					; 00000010H
	cmp	eax, 1
	je	SHORT $LN282@prime_fiel
; Line 690
	push	1
	call	esi
	push	eax
	call	DWORD PTR __imp__fflush
	add	esp, 8
	push	690					; 000002b2H
	jmp	$LN854@prime_fiel
$LN282@prime_fiel:
; Line 691
	lea	eax, DWORD PTR _a$[esp+228]
	push	OFFSET ??_C@_0EB@KHNFKCPI@FFFFFFFF000000010000000000000000@
	push	eax
	call	_BN_hex2bn
	add	esp, 8
	test	eax, eax
	jne	SHORT $LN285@prime_fiel
; Line 694
	push	1
	call	esi
	push	eax
	call	DWORD PTR __imp__fflush
	add	esp, 8
	push	694					; 000002b6H
	jmp	$LN854@prime_fiel
$LN285@prime_fiel:
; Line 695
	lea	eax, DWORD PTR _b$[esp+228]
	push	OFFSET ??_C@_0EB@CGMLNBOM@5AC635D8AA3A93E7B3EBBD55769886BC@
	push	eax
	call	_BN_hex2bn
	add	esp, 8
	test	eax, eax
	jne	SHORT $LN288@prime_fiel
; Line 698
	push	1
	call	esi
	push	eax
	call	DWORD PTR __imp__fflush
	add	esp, 8
	push	698					; 000002baH
	jmp	$LN854@prime_fiel
$LN288@prime_fiel:
; Line 699
	push	ebp
	push	DWORD PTR _b$[esp+232]
	push	DWORD PTR _a$[esp+236]
	push	DWORD PTR _p$[esp+240]
	push	edi
	call	_EC_GROUP_set_curve_GFp
	add	esp, 20					; 00000014H
	test	eax, eax
	jne	SHORT $LN291@prime_fiel
; Line 700
	push	1
	call	esi
	push	eax
	call	DWORD PTR __imp__fflush
	add	esp, 8
	push	700					; 000002bcH
	jmp	$LN854@prime_fiel
$LN291@prime_fiel:
; Line 702
	lea	eax, DWORD PTR _x$[esp+228]
	push	OFFSET ??_C@_0EB@OLPMACDN@6B17D1F2E12C4247F8BCE6E563A440F2@
	push	eax
	call	_BN_hex2bn
	add	esp, 8
	test	eax, eax
	jne	SHORT $LN294@prime_fiel
; Line 705
	push	1
	call	esi
	push	eax
	call	DWORD PTR __imp__fflush
	add	esp, 8
	push	705					; 000002c1H
	jmp	$LN854@prime_fiel
$LN294@prime_fiel:
; Line 706
	push	ebp
	push	1
	push	DWORD PTR _x$[esp+236]
	push	ebx
	push	edi
	call	_EC_POINT_set_compressed_coordinates_GFp
	add	esp, 20					; 00000014H
	test	eax, eax
	jne	SHORT $LN297@prime_fiel
; Line 707
	push	1
	call	esi
	push	eax
	call	DWORD PTR __imp__fflush
	add	esp, 8
	push	707					; 000002c3H
	jmp	$LN854@prime_fiel
$LN297@prime_fiel:
; Line 708
	push	ebp
	push	ebx
	push	edi
	call	_EC_POINT_is_on_curve
	add	esp, 12					; 0000000cH
	test	eax, eax
	jg	SHORT $LN300@prime_fiel
; Line 709
	push	1
	call	esi
	push	eax
	call	DWORD PTR __imp__fflush
	add	esp, 8
	push	709					; 000002c5H
	jmp	$LN854@prime_fiel
$LN300@prime_fiel:
; Line 710
	lea	eax, DWORD PTR _z$[esp+228]
	push	OFFSET ??_C@_0EB@MIJLAMHG@FFFFFFFF00000000FFFFFFFFFFFFFFFF@
	push	eax
	call	_BN_hex2bn
	add	esp, 8
	test	eax, eax
	jne	SHORT $LN303@prime_fiel
; Line 712
	push	1
	call	esi
	push	eax
	call	DWORD PTR __imp__fflush
	add	esp, 8
	push	712					; 000002c8H
	jmp	$LN854@prime_fiel
$LN303@prime_fiel:
; Line 713
	call	_BN_value_one
	push	eax
	push	DWORD PTR _z$[esp+232]
	push	ebx
	push	edi
	call	_EC_GROUP_set_generator
	add	esp, 16					; 00000010H
	test	eax, eax
	jne	SHORT $LN306@prime_fiel
; Line 714
	push	1
	call	esi
	push	eax
	call	DWORD PTR __imp__fflush
	add	esp, 8
	push	714					; 000002caH
	jmp	$LN854@prime_fiel
$LN306@prime_fiel:
; Line 716
	push	ebp
	push	DWORD PTR _y$[esp+232]
	push	DWORD PTR _x$[esp+236]
	push	ebx
	push	edi
	call	_EC_POINT_get_affine_coordinates_GFp
	add	esp, 20					; 00000014H
	test	eax, eax
	jne	SHORT $LN309@prime_fiel
; Line 717
	push	1
	call	esi
	push	eax
	call	DWORD PTR __imp__fflush
	add	esp, 8
	push	717					; 000002cdH
	jmp	$LN854@prime_fiel
$LN309@prime_fiel:
; Line 718
	push	OFFSET ??_C@_0CM@PMADIOLK@?6NIST?5curve?5P?9256?5?9?9?5Generator?3?6@
	push	1
	call	esi
	add	esp, 4
	push	eax
	call	_fprintf
	add	esp, 8
; Line 719
	push	DWORD PTR _x$[esp+228]
	push	1
	call	esi
	add	esp, 4
	push	eax
	call	_BN_print_fp
	add	esp, 8
; Line 720
	push	OFFSET ??_C@_0N@CEPBDNPI@?6?5?5?5?5?5y?5?$DN?50x?$AA@
	push	1
	call	esi
	add	esp, 4
	push	eax
	call	_fprintf
	add	esp, 8
; Line 721
	push	DWORD PTR _y$[esp+228]
	push	1
	call	esi
	add	esp, 4
	push	eax
	call	_BN_print_fp
	add	esp, 8
; Line 722
	push	OFFSET ??_C@_01EEMJAFIK@?6?$AA@
	push	1
	call	esi
	add	esp, 4
	push	eax
	call	_fprintf
; Line 724
	lea	eax, DWORD PTR _z$[esp+236]
	push	OFFSET ??_C@_0EB@EAOKNDEN@4FE342E2FE1A7F9B8EE7EB4A7C0F9E16@
	push	eax
	call	_BN_hex2bn
	add	esp, 16					; 00000010H
	test	eax, eax
	jne	SHORT $LN312@prime_fiel
; Line 727
	push	1
	call	esi
	push	eax
	call	DWORD PTR __imp__fflush
	add	esp, 8
	push	727					; 000002d7H
	jmp	$LN854@prime_fiel
$LN312@prime_fiel:
; Line 728
	push	DWORD PTR _z$[esp+228]
	push	DWORD PTR _y$[esp+232]
	call	_BN_cmp
	add	esp, 8
	test	eax, eax
	je	SHORT $LN315@prime_fiel
; Line 729
	push	1
	call	esi
	push	eax
	call	DWORD PTR __imp__fflush
	add	esp, 8
	push	729					; 000002d9H
	jmp	$LN854@prime_fiel
$LN315@prime_fiel:
; Line 731
	push	OFFSET ??_C@_0BC@NNIFDGGK@verify?5degree?5?4?4?4?$AA@
	push	1
	call	esi
	add	esp, 4
	push	eax
	call	_fprintf
; Line 732
	push	edi
	call	_EC_GROUP_get_degree
	add	esp, 12					; 0000000cH
	cmp	eax, 256				; 00000100H
	je	SHORT $LN318@prime_fiel
; Line 733
	push	1
	call	esi
	push	eax
	call	DWORD PTR __imp__fflush
	add	esp, 8
	push	733					; 000002ddH
	jmp	$LN854@prime_fiel
$LN318@prime_fiel:
; Line 734
	push	OFFSET ??_C@_04CFDEAMPI@?5ok?6?$AA@
	push	1
	call	esi
	add	esp, 4
	push	eax
	call	_fprintf
; Line 736
	push	edi
	call	_group_order_tests
; Line 738
	push	edi
	call	_EC_GROUP_method_of
	push	eax
	call	_EC_GROUP_new
	add	esp, 20					; 00000014H
	mov	DWORD PTR _P_256$1$[esp+228], eax
	test	eax, eax
	jne	SHORT $LN321@prime_fiel
; Line 739
	push	1
	call	esi
	push	eax
	call	DWORD PTR __imp__fflush
	add	esp, 8
	push	739					; 000002e3H
	jmp	$LN854@prime_fiel
$LN321@prime_fiel:
; Line 740
	push	edi
	push	eax
	call	_EC_GROUP_copy
	add	esp, 8
	test	eax, eax
	jne	SHORT $LN324@prime_fiel
; Line 741
	push	1
	call	esi
	push	eax
	call	DWORD PTR __imp__fflush
	add	esp, 8
	push	741					; 000002e5H
	jmp	$LN854@prime_fiel
$LN324@prime_fiel:
; Line 745
	lea	eax, DWORD PTR _p$[esp+228]
	push	OFFSET ??_C@_0GB@NAMHBOGD@FFFFFFFFFFFFFFFFFFFFFFFFFFFFFFFF@
	push	eax
	call	_BN_hex2bn
	add	esp, 8
	test	eax, eax
	jne	SHORT $LN327@prime_fiel
; Line 747
	push	1
	call	esi
	push	eax
	call	DWORD PTR __imp__fflush
	add	esp, 8
	push	747					; 000002ebH
	jmp	$LN854@prime_fiel
$LN327@prime_fiel:
; Line 748
	push	0
	push	ebp
	push	0
	push	DWORD PTR _p$[esp+240]
	call	_BN_is_prime_ex
	add	esp, 16					; 00000010H
	cmp	eax, 1
	je	SHORT $LN330@prime_fiel
; Line 749
	push	1
	call	esi
	push	eax
	call	DWORD PTR __imp__fflush
	add	esp, 8
	push	749					; 000002edH
	jmp	$LN854@prime_fiel
$LN330@prime_fiel:
; Line 750
	lea	eax, DWORD PTR _a$[esp+228]
	push	OFFSET ??_C@_0GB@KNLAOKCG@FFFFFFFFFFFFFFFFFFFFFFFFFFFFFFFF@
	push	eax
	call	_BN_hex2bn
	add	esp, 8
	test	eax, eax
	jne	SHORT $LN333@prime_fiel
; Line 752
	push	1
	call	esi
	push	eax
	call	DWORD PTR __imp__fflush
	add	esp, 8
	push	752					; 000002f0H
	jmp	$LN854@prime_fiel
$LN333@prime_fiel:
; Line 753
	lea	eax, DWORD PTR _b$[esp+228]
	push	OFFSET ??_C@_0GB@GBMGBGKN@B3312FA7E23EE7E4988E056BE3F82D19@
	push	eax
	call	_BN_hex2bn
	add	esp, 8
	test	eax, eax
	jne	SHORT $LN336@prime_fiel
; Line 755
	push	1
	call	esi
	push	eax
	call	DWORD PTR __imp__fflush
	add	esp, 8
	push	755					; 000002f3H
	jmp	$LN854@prime_fiel
$LN336@prime_fiel:
; Line 756
	push	ebp
	push	DWORD PTR _b$[esp+232]
	push	DWORD PTR _a$[esp+236]
	push	DWORD PTR _p$[esp+240]
	push	edi
	call	_EC_GROUP_set_curve_GFp
	add	esp, 20					; 00000014H
	test	eax, eax
	jne	SHORT $LN339@prime_fiel
; Line 757
	push	1
	call	esi
	push	eax
	call	DWORD PTR __imp__fflush
	add	esp, 8
	push	757					; 000002f5H
	jmp	$LN854@prime_fiel
$LN339@prime_fiel:
; Line 759
	lea	eax, DWORD PTR _x$[esp+228]
	push	OFFSET ??_C@_0GB@GJBBIIPB@AA87CA22BE8B05378EB1C71EF320AD74@
	push	eax
	call	_BN_hex2bn
	add	esp, 8
	test	eax, eax
	jne	SHORT $LN342@prime_fiel
; Line 761
	push	1
	call	esi
	push	eax
	call	DWORD PTR __imp__fflush
	add	esp, 8
	push	761					; 000002f9H
	jmp	$LN854@prime_fiel
$LN342@prime_fiel:
; Line 762
	push	ebp
	push	1
	push	DWORD PTR _x$[esp+236]
	push	ebx
	push	edi
	call	_EC_POINT_set_compressed_coordinates_GFp
	add	esp, 20					; 00000014H
	test	eax, eax
	jne	SHORT $LN345@prime_fiel
; Line 763
	push	1
	call	esi
	push	eax
	call	DWORD PTR __imp__fflush
	add	esp, 8
	push	763					; 000002fbH
	jmp	$LN854@prime_fiel
$LN345@prime_fiel:
; Line 764
	push	ebp
	push	ebx
	push	edi
	call	_EC_POINT_is_on_curve
	add	esp, 12					; 0000000cH
	test	eax, eax
	jg	SHORT $LN348@prime_fiel
; Line 765
	push	1
	call	esi
	push	eax
	call	DWORD PTR __imp__fflush
	add	esp, 8
	push	765					; 000002fdH
	jmp	$LN854@prime_fiel
$LN348@prime_fiel:
; Line 766
	lea	eax, DWORD PTR _z$[esp+228]
	push	OFFSET ??_C@_0GB@IJGNFOHD@FFFFFFFFFFFFFFFFFFFFFFFFFFFFFFFF@
	push	eax
	call	_BN_hex2bn
	add	esp, 8
	test	eax, eax
	jne	SHORT $LN351@prime_fiel
; Line 768
	push	1
	call	esi
	push	eax
	call	DWORD PTR __imp__fflush
	add	esp, 8
	push	768					; 00000300H
	jmp	$LN854@prime_fiel
$LN351@prime_fiel:
; Line 769
	call	_BN_value_one
	push	eax
	push	DWORD PTR _z$[esp+232]
	push	ebx
	push	edi
	call	_EC_GROUP_set_generator
	add	esp, 16					; 00000010H
	test	eax, eax
	jne	SHORT $LN354@prime_fiel
; Line 770
	push	1
	call	esi
	push	eax
	call	DWORD PTR __imp__fflush
	add	esp, 8
	push	770					; 00000302H
	jmp	$LN854@prime_fiel
$LN354@prime_fiel:
; Line 772
	push	ebp
	push	DWORD PTR _y$[esp+232]
	push	DWORD PTR _x$[esp+236]
	push	ebx
	push	edi
	call	_EC_POINT_get_affine_coordinates_GFp
	add	esp, 20					; 00000014H
	test	eax, eax
	jne	SHORT $LN357@prime_fiel
; Line 773
	push	1
	call	esi
	push	eax
	call	DWORD PTR __imp__fflush
	add	esp, 8
	push	773					; 00000305H
	jmp	$LN854@prime_fiel
$LN357@prime_fiel:
; Line 774
	push	OFFSET ??_C@_0CM@FJLNOJNP@?6NIST?5curve?5P?9384?5?9?9?5Generator?3?6@
	push	1
	call	esi
	add	esp, 4
	push	eax
	call	_fprintf
	add	esp, 8
; Line 775
	push	DWORD PTR _x$[esp+228]
	push	1
	call	esi
	add	esp, 4
	push	eax
	call	_BN_print_fp
	add	esp, 8
; Line 776
	push	OFFSET ??_C@_0N@CEPBDNPI@?6?5?5?5?5?5y?5?$DN?50x?$AA@
	push	1
	call	esi
	add	esp, 4
	push	eax
	call	_fprintf
	add	esp, 8
; Line 777
	push	DWORD PTR _y$[esp+228]
	push	1
	call	esi
	add	esp, 4
	push	eax
	call	_BN_print_fp
	add	esp, 8
; Line 778
	push	OFFSET ??_C@_01EEMJAFIK@?6?$AA@
	push	1
	call	esi
	add	esp, 4
	push	eax
	call	_fprintf
; Line 780
	lea	eax, DWORD PTR _z$[esp+236]
	push	OFFSET ??_C@_0GB@EJCCOFND@3617DE4A96262C6F5D9E98BF9292DC29@
	push	eax
	call	_BN_hex2bn
	add	esp, 16					; 00000010H
	test	eax, eax
	jne	SHORT $LN360@prime_fiel
; Line 782
	push	1
	call	esi
	push	eax
	call	DWORD PTR __imp__fflush
	add	esp, 8
	push	782					; 0000030eH
	jmp	$LN854@prime_fiel
$LN360@prime_fiel:
; Line 783
	push	DWORD PTR _z$[esp+228]
	push	DWORD PTR _y$[esp+232]
	call	_BN_cmp
	add	esp, 8
	test	eax, eax
	je	SHORT $LN363@prime_fiel
; Line 784
	push	1
	call	esi
	push	eax
	call	DWORD PTR __imp__fflush
	add	esp, 8
	push	784					; 00000310H
	jmp	$LN854@prime_fiel
$LN363@prime_fiel:
; Line 786
	push	OFFSET ??_C@_0BC@NNIFDGGK@verify?5degree?5?4?4?4?$AA@
	push	1
	call	esi
	add	esp, 4
	push	eax
	call	_fprintf
; Line 787
	push	edi
	call	_EC_GROUP_get_degree
	add	esp, 12					; 0000000cH
	cmp	eax, 384				; 00000180H
	je	SHORT $LN366@prime_fiel
; Line 788
	push	1
	call	esi
	push	eax
	call	DWORD PTR __imp__fflush
	add	esp, 8
	push	788					; 00000314H
	jmp	$LN854@prime_fiel
$LN366@prime_fiel:
; Line 789
	push	OFFSET ??_C@_04CFDEAMPI@?5ok?6?$AA@
	push	1
	call	esi
	add	esp, 4
	push	eax
	call	_fprintf
; Line 791
	push	edi
	call	_group_order_tests
; Line 793
	push	edi
	call	_EC_GROUP_method_of
	push	eax
	call	_EC_GROUP_new
	add	esp, 20					; 00000014H
	mov	DWORD PTR _P_384$1$[esp+228], eax
	test	eax, eax
	jne	SHORT $LN369@prime_fiel
; Line 794
	push	1
	call	esi
	push	eax
	call	DWORD PTR __imp__fflush
	add	esp, 8
	push	794					; 0000031aH
	jmp	$LN854@prime_fiel
$LN369@prime_fiel:
; Line 795
	push	edi
	push	eax
	call	_EC_GROUP_copy
	add	esp, 8
	test	eax, eax
	jne	SHORT $LN372@prime_fiel
; Line 796
	push	1
	call	esi
	push	eax
	call	DWORD PTR __imp__fflush
	add	esp, 8
	push	796					; 0000031cH
	jmp	$LN854@prime_fiel
$LN372@prime_fiel:
; Line 800
	lea	eax, DWORD PTR _p$[esp+228]
	push	OFFSET ??_C@_0IE@LJFIBPGL@1FFFFFFFFFFFFFFFFFFFFFFFFFFFFFFF@
	push	eax
	call	_BN_hex2bn
	add	esp, 8
	test	eax, eax
	jne	SHORT $LN375@prime_fiel
; Line 803
	push	1
	call	esi
	push	eax
	call	DWORD PTR __imp__fflush
	add	esp, 8
	push	803					; 00000323H
	jmp	$LN854@prime_fiel
$LN375@prime_fiel:
; Line 804
	push	0
	push	ebp
	push	0
	push	DWORD PTR _p$[esp+240]
	call	_BN_is_prime_ex
	add	esp, 16					; 00000010H
	cmp	eax, 1
	je	SHORT $LN378@prime_fiel
; Line 805
	push	1
	call	esi
	push	eax
	call	DWORD PTR __imp__fflush
	add	esp, 8
	push	805					; 00000325H
	jmp	$LN854@prime_fiel
$LN378@prime_fiel:
; Line 806
	lea	eax, DWORD PTR _a$[esp+228]
	push	OFFSET ??_C@_0IE@MECPOLCO@1FFFFFFFFFFFFFFFFFFFFFFFFFFFFFFF@
	push	eax
	call	_BN_hex2bn
	add	esp, 8
	test	eax, eax
	jne	SHORT $LN381@prime_fiel
; Line 809
	push	1
	call	esi
	push	eax
	call	DWORD PTR __imp__fflush
	add	esp, 8
	push	809					; 00000329H
	jmp	$LN854@prime_fiel
$LN381@prime_fiel:
; Line 810
	lea	eax, DWORD PTR _b$[esp+228]
	push	OFFSET ??_C@_0IE@GOJLJCKA@051953EB9618E1C9A1F929A21A0B6854@
	push	eax
	call	_BN_hex2bn
	add	esp, 8
	test	eax, eax
	jne	SHORT $LN384@prime_fiel
; Line 813
	push	1
	call	esi
	push	eax
	call	DWORD PTR __imp__fflush
	add	esp, 8
	push	813					; 0000032dH
	jmp	$LN854@prime_fiel
$LN384@prime_fiel:
; Line 814
	push	ebp
	push	DWORD PTR _b$[esp+232]
	push	DWORD PTR _a$[esp+236]
	push	DWORD PTR _p$[esp+240]
	push	edi
	call	_EC_GROUP_set_curve_GFp
	add	esp, 20					; 00000014H
	test	eax, eax
	jne	SHORT $LN387@prime_fiel
; Line 815
	push	1
	call	esi
	push	eax
	call	DWORD PTR __imp__fflush
	add	esp, 8
	push	815					; 0000032fH
	jmp	$LN854@prime_fiel
$LN387@prime_fiel:
; Line 817
	lea	eax, DWORD PTR _x$[esp+228]
	push	OFFSET ??_C@_0ID@OOGMNGNF@C6858E06B70404E9CD9E3ECB662395B4@
	push	eax
	call	_BN_hex2bn
	add	esp, 8
	test	eax, eax
	jne	SHORT $LN390@prime_fiel
; Line 820
	push	1
	call	esi
	push	eax
	call	DWORD PTR __imp__fflush
	add	esp, 8
	push	820					; 00000334H
	jmp	$LN854@prime_fiel
$LN390@prime_fiel:
; Line 821
	push	ebp
	push	0
	push	DWORD PTR _x$[esp+236]
	push	ebx
	push	edi
	call	_EC_POINT_set_compressed_coordinates_GFp
	add	esp, 20					; 00000014H
	test	eax, eax
	jne	SHORT $LN393@prime_fiel
; Line 822
	push	1
	call	esi
	push	eax
	call	DWORD PTR __imp__fflush
	add	esp, 8
	push	822					; 00000336H
	jmp	$LN854@prime_fiel
$LN393@prime_fiel:
; Line 823
	push	ebp
	push	ebx
	push	edi
	call	_EC_POINT_is_on_curve
	add	esp, 12					; 0000000cH
	test	eax, eax
	jg	SHORT $LN396@prime_fiel
; Line 824
	push	1
	call	esi
	push	eax
	call	DWORD PTR __imp__fflush
	add	esp, 8
	push	824					; 00000338H
	jmp	$LN854@prime_fiel
$LN396@prime_fiel:
; Line 825
	lea	eax, DWORD PTR _z$[esp+228]
	push	OFFSET ??_C@_0IE@DDIDDIA@1FFFFFFFFFFFFFFFFFFFFFFFFFFFFFFF@
	push	eax
	call	_BN_hex2bn
	add	esp, 8
	test	eax, eax
	jne	SHORT $LN399@prime_fiel
; Line 828
	push	1
	call	esi
	push	eax
	call	DWORD PTR __imp__fflush
	add	esp, 8
	push	828					; 0000033cH
	jmp	$LN854@prime_fiel
$LN399@prime_fiel:
; Line 829
	call	_BN_value_one
	push	eax
	push	DWORD PTR _z$[esp+232]
	push	ebx
	push	edi
	call	_EC_GROUP_set_generator
	add	esp, 16					; 00000010H
	test	eax, eax
	jne	SHORT $LN402@prime_fiel
; Line 830
	push	1
	call	esi
	push	eax
	call	DWORD PTR __imp__fflush
	add	esp, 8
	push	830					; 0000033eH
	jmp	$LN854@prime_fiel
$LN402@prime_fiel:
; Line 832
	push	ebp
	push	DWORD PTR _y$[esp+232]
	push	DWORD PTR _x$[esp+236]
	push	ebx
	push	edi
	call	_EC_POINT_get_affine_coordinates_GFp
	add	esp, 20					; 00000014H
	test	eax, eax
	jne	SHORT $LN405@prime_fiel
; Line 833
	push	1
	call	esi
	push	eax
	call	DWORD PTR __imp__fflush
	add	esp, 8
	push	833					; 00000341H
	jmp	$LN854@prime_fiel
$LN405@prime_fiel:
; Line 834
	push	OFFSET ??_C@_0CM@LPEONNGM@?6NIST?5curve?5P?9521?5?9?9?5Generator?3?6@
	push	1
	call	esi
	add	esp, 4
	push	eax
	call	_fprintf
	add	esp, 8
; Line 835
	push	DWORD PTR _x$[esp+228]
	push	1
	call	esi
	add	esp, 4
	push	eax
	call	_BN_print_fp
	add	esp, 8
; Line 836
	push	OFFSET ??_C@_0N@CEPBDNPI@?6?5?5?5?5?5y?5?$DN?50x?$AA@
	push	1
	call	esi
	add	esp, 4
	push	eax
	call	_fprintf
	add	esp, 8
; Line 837
	push	DWORD PTR _y$[esp+228]
	push	1
	call	esi
	add	esp, 4
	push	eax
	call	_BN_print_fp
	add	esp, 8
; Line 838
	push	OFFSET ??_C@_01EEMJAFIK@?6?$AA@
	push	1
	call	esi
	add	esp, 4
	push	eax
	call	_fprintf
; Line 840
	lea	eax, DWORD PTR _z$[esp+236]
	push	OFFSET ??_C@_0IE@IAAHKDDH@11839296A789A3BC0045C8A5FB42C7D1@
	push	eax
	call	_BN_hex2bn
	add	esp, 16					; 00000010H
	test	eax, eax
	jne	SHORT $LN408@prime_fiel
; Line 843
	push	1
	call	esi
	push	eax
	call	DWORD PTR __imp__fflush
	add	esp, 8
	push	843					; 0000034bH
	jmp	$LN854@prime_fiel
$LN408@prime_fiel:
; Line 844
	push	DWORD PTR _z$[esp+228]
	push	DWORD PTR _y$[esp+232]
	call	_BN_cmp
	add	esp, 8
	test	eax, eax
	je	SHORT $LN411@prime_fiel
; Line 845
	push	1
	call	esi
	push	eax
	call	DWORD PTR __imp__fflush
	add	esp, 8
	push	845					; 0000034dH
	jmp	$LN854@prime_fiel
$LN411@prime_fiel:
; Line 847
	push	OFFSET ??_C@_0BC@NNIFDGGK@verify?5degree?5?4?4?4?$AA@
	push	1
	call	esi
	add	esp, 4
	push	eax
	call	_fprintf
; Line 848
	push	edi
	call	_EC_GROUP_get_degree
	add	esp, 12					; 0000000cH
	cmp	eax, 521				; 00000209H
	je	SHORT $LN414@prime_fiel
; Line 849
	push	1
	call	esi
	push	eax
	call	DWORD PTR __imp__fflush
	add	esp, 8
	push	849					; 00000351H
	jmp	$LN854@prime_fiel
$LN414@prime_fiel:
; Line 850
	push	OFFSET ??_C@_04CFDEAMPI@?5ok?6?$AA@
	push	1
	call	esi
	add	esp, 4
	push	eax
	call	_fprintf
; Line 852
	push	edi
	call	_group_order_tests
; Line 854
	push	edi
	call	_EC_GROUP_method_of
	push	eax
	call	_EC_GROUP_new
	add	esp, 20					; 00000014H
	mov	DWORD PTR _P_521$1$[esp+228], eax
	test	eax, eax
	jne	SHORT $LN417@prime_fiel
; Line 855
	push	1
	call	esi
	push	eax
	call	DWORD PTR __imp__fflush
	add	esp, 8
	push	855					; 00000357H
	jmp	$LN854@prime_fiel
$LN417@prime_fiel:
; Line 856
	push	edi
	push	eax
	call	_EC_GROUP_copy
	add	esp, 8
	test	eax, eax
	jne	SHORT $LN420@prime_fiel
; Line 857
	push	1
	call	esi
	push	eax
	call	DWORD PTR __imp__fflush
	add	esp, 8
	push	857					; 00000359H
	jmp	$LN854@prime_fiel
$LN420@prime_fiel:
; Line 861
	push	ebx
	push	DWORD PTR _Q$1$[esp+232]
	call	_EC_POINT_copy
	add	esp, 8
	test	eax, eax
	jne	SHORT $LN423@prime_fiel
; Line 862
	push	1
	call	esi
	push	eax
	call	DWORD PTR __imp__fflush
	add	esp, 8
	push	862					; 0000035eH
	jmp	$LN854@prime_fiel
$LN423@prime_fiel:
; Line 863
	push	DWORD PTR _Q$1$[esp+228]
	push	edi
	call	_EC_POINT_is_at_infinity
	add	esp, 8
	test	eax, eax
	je	SHORT $LN426@prime_fiel
; Line 864
	push	1
	call	esi
	push	eax
	call	DWORD PTR __imp__fflush
	add	esp, 8
	push	864					; 00000360H
	jmp	$LN854@prime_fiel
$LN426@prime_fiel:
; Line 865
	push	ebp
	push	ebx
	push	ebx
	push	edi
	call	_EC_POINT_dbl
	add	esp, 16					; 00000010H
	test	eax, eax
	jne	SHORT $LN429@prime_fiel
; Line 866
	push	1
	call	esi
	push	eax
	call	DWORD PTR __imp__fflush
	add	esp, 8
	push	866					; 00000362H
	jmp	$LN854@prime_fiel
$LN429@prime_fiel:
; Line 867
	push	ebp
	push	ebx
	push	edi
	call	_EC_POINT_is_on_curve
	add	esp, 12					; 0000000cH
	test	eax, eax
	jg	SHORT $LN432@prime_fiel
; Line 868
	push	1
	call	esi
	push	eax
	call	DWORD PTR __imp__fflush
	add	esp, 8
	push	868					; 00000364H
	jmp	$LN854@prime_fiel
$LN432@prime_fiel:
; Line 869
	push	ebp
	push	DWORD PTR _Q$1$[esp+232]
	push	edi
	call	_EC_POINT_invert
	add	esp, 12					; 0000000cH
	test	eax, eax
	jne	SHORT $LN435@prime_fiel
; Line 870
	push	1
	call	esi
	push	eax
	call	DWORD PTR __imp__fflush
	add	esp, 8
	push	870					; 00000366H
	jmp	$LN854@prime_fiel
$LN435@prime_fiel:
; Line 872
	push	ebp
	push	DWORD PTR _Q$1$[esp+232]
	push	ebx
	push	DWORD PTR _R$1$[esp+240]
	push	edi
	call	_EC_POINT_add
	add	esp, 20					; 00000014H
	test	eax, eax
	jne	SHORT $LN438@prime_fiel
; Line 873
	push	1
	call	esi
	push	eax
	call	DWORD PTR __imp__fflush
	add	esp, 8
	push	873					; 00000369H
	jmp	$LN854@prime_fiel
$LN438@prime_fiel:
; Line 874
	mov	eax, DWORD PTR _R$1$[esp+228]
	push	ebp
	push	DWORD PTR _Q$1$[esp+232]
	push	eax
	push	eax
	push	edi
	call	_EC_POINT_add
	add	esp, 20					; 00000014H
	test	eax, eax
	jne	SHORT $LN441@prime_fiel
; Line 875
	push	1
	call	esi
	push	eax
	call	DWORD PTR __imp__fflush
	add	esp, 8
	push	875					; 0000036bH
	jmp	$LN854@prime_fiel
$LN441@prime_fiel:
; Line 876
	push	DWORD PTR _R$1$[esp+228]
	push	edi
	call	_EC_POINT_is_at_infinity
	add	esp, 8
	test	eax, eax
	jne	SHORT $LN444@prime_fiel
; Line 877
	push	1
	call	esi
	push	eax
	call	DWORD PTR __imp__fflush
	add	esp, 8
	push	877					; 0000036dH
	jmp	$LN854@prime_fiel
$LN444@prime_fiel:
; Line 884
	push	DWORD PTR _Q$1$[esp+228]
	push	edi
	call	_EC_POINT_is_at_infinity
	add	esp, 8
	test	eax, eax
	je	SHORT $LN447@prime_fiel
; Line 885
	push	1
	call	esi
	push	eax
	call	DWORD PTR __imp__fflush
	add	esp, 8
	push	885					; 00000375H
	jmp	$LN854@prime_fiel
$LN447@prime_fiel:
; Line 886
	mov	eax, DWORD PTR _Q$1$[esp+228]
; Line 891
	push	ebp
	push	DWORD PTR _z$[esp+232]
	mov	DWORD PTR _points$3[esp+236], eax
	push	edi
	mov	DWORD PTR _points$3[esp+244], eax
	mov	DWORD PTR _points$3[esp+248], eax
	mov	DWORD PTR _points$3[esp+252], eax
	call	_EC_GROUP_get_order
	add	esp, 12					; 0000000cH
	test	eax, eax
	jne	SHORT $LN450@prime_fiel
; Line 892
	push	1
	call	esi
	push	eax
	call	DWORD PTR __imp__fflush
	add	esp, 8
	push	892					; 0000037cH
	jmp	$LN854@prime_fiel
$LN450@prime_fiel:
; Line 893
	call	_BN_value_one
	push	eax
	push	DWORD PTR _z$[esp+232]
	push	DWORD PTR _y$[esp+236]
	call	_BN_add
	add	esp, 12					; 0000000cH
	test	eax, eax
	jne	SHORT $LN453@prime_fiel
; Line 894
	push	1
	call	esi
	push	eax
	call	DWORD PTR __imp__fflush
	add	esp, 8
	push	894					; 0000037eH
	jmp	$LN854@prime_fiel
$LN453@prime_fiel:
; Line 895
	mov	ecx, DWORD PTR _y$[esp+228]
	cmp	DWORD PTR [ecx+4], 0
	jle	SHORT $LN456@prime_fiel
	mov	eax, DWORD PTR [ecx]
	test	BYTE PTR [eax], 1
	je	SHORT $LN456@prime_fiel
; Line 896
	push	1
	call	esi
	push	eax
	call	DWORD PTR __imp__fflush
	add	esp, 8
	push	896					; 00000380H
	jmp	$LN854@prime_fiel
$LN456@prime_fiel:
; Line 897
	push	ecx
	push	ecx
	call	_BN_rshift1
	add	esp, 8
	test	eax, eax
	jne	SHORT $LN459@prime_fiel
; Line 898
	push	1
	call	esi
	push	eax
	call	DWORD PTR __imp__fflush
	add	esp, 8
	push	898					; 00000382H
	jmp	$LN854@prime_fiel
$LN459@prime_fiel:
; Line 899
	mov	eax, DWORD PTR _y$[esp+228]
; Line 902
	push	OFFSET ??_C@_0BM@GCECKGMN@combined?5multiplication?5?4?4?4?$AA@
	push	1
	mov	DWORD PTR _scalars$2[esp+236], eax
	mov	DWORD PTR _scalars$2[esp+240], eax
	call	esi
	add	esp, 4
	push	eax
	call	_fprintf
; Line 903
	push	1
	call	esi
	push	eax
	call	DWORD PTR __imp__fflush
; Line 906
	push	ebp
	lea	eax, DWORD PTR _scalars$2[esp+248]
	push	eax
	lea	eax, DWORD PTR _points$3[esp+252]
	push	eax
	push	2
	push	0
	push	ebx
	push	edi
	call	_EC_POINTs_mul
	add	esp, 44					; 0000002cH
	test	eax, eax
	jne	SHORT $LN462@prime_fiel
; Line 907
	push	1
	call	esi
	push	eax
	mov	eax, DWORD PTR __imp__fflush
	call	eax
	add	esp, 8
	push	907					; 0000038bH
	jmp	$LN854@prime_fiel
$LN462@prime_fiel:
; Line 908
	push	ebp
	lea	eax, DWORD PTR _scalars$2[esp+232]
	push	eax
	lea	eax, DWORD PTR _points$3[esp+236]
	push	eax
	push	2
	push	DWORD PTR _z$[esp+244]
	push	DWORD PTR _R$1$[esp+248]
	push	edi
	call	_EC_POINTs_mul
	add	esp, 28					; 0000001cH
	test	eax, eax
	jne	SHORT $LN465@prime_fiel
; Line 909
	push	1
	call	esi
	push	eax
	mov	eax, DWORD PTR __imp__fflush
	call	eax
	add	esp, 8
	push	909					; 0000038dH
	jmp	$LN854@prime_fiel
$LN465@prime_fiel:
; Line 910
	push	ebp
	push	DWORD PTR _R$1$[esp+232]
	push	ebx
	push	edi
	call	_EC_POINT_cmp
	add	esp, 16					; 00000010H
	test	eax, eax
	je	SHORT $LN468@prime_fiel
; Line 911
	push	1
	call	esi
	push	eax
	mov	eax, DWORD PTR __imp__fflush
	call	eax
	add	esp, 8
	push	911					; 0000038fH
	jmp	$LN854@prime_fiel
$LN468@prime_fiel:
; Line 912
	push	ebp
	push	DWORD PTR _Q$1$[esp+232]
	push	DWORD PTR _R$1$[esp+236]
	push	edi
	call	_EC_POINT_cmp
	add	esp, 16					; 00000010H
	test	eax, eax
	je	SHORT $LN471@prime_fiel
; Line 913
	push	1
	call	esi
	push	eax
	mov	eax, DWORD PTR __imp__fflush
	call	eax
	add	esp, 8
	push	913					; 00000391H
	jmp	$LN854@prime_fiel
$LN471@prime_fiel:
; Line 915
	push	OFFSET ??_C@_01LFCBOECM@?4?$AA@
	push	1
	call	esi
	add	esp, 4
	push	eax
	call	_fprintf
; Line 916
	push	1
	call	esi
	push	eax
	mov	eax, DWORD PTR __imp__fflush
	call	eax
	add	esp, 16					; 00000010H
; Line 918
	push	0
	push	0
	push	DWORD PTR _y$[esp+236]
	call	_BN_num_bits
	add	esp, 4
	push	eax
	push	DWORD PTR _y$[esp+240]
	call	_BN_pseudo_rand
	add	esp, 16					; 00000010H
	test	eax, eax
	jne	SHORT $LN474@prime_fiel
; Line 919
	push	1
	call	esi
	push	eax
	call	DWORD PTR __imp__fflush
	add	esp, 8
	push	919					; 00000397H
	jmp	$LN854@prime_fiel
$LN474@prime_fiel:
; Line 920
	push	DWORD PTR _y$[esp+228]
	mov	eax, DWORD PTR _z$[esp+232]
	push	eax
	push	eax
	call	_BN_add
	add	esp, 12					; 0000000cH
; Line 921
	push	1
	test	eax, eax
	jne	SHORT $LN477@prime_fiel
	call	esi
	push	eax
	call	DWORD PTR __imp__fflush
	add	esp, 8
	push	921					; 00000399H
	jmp	$LN854@prime_fiel
$LN477@prime_fiel:
; Line 922
	push	DWORD PTR _z$[esp+232]
	call	_BN_set_negative
; Line 923
	mov	eax, DWORD PTR _y$[esp+236]
	mov	DWORD PTR _scalars$2[esp+236], eax
; Line 924
	mov	eax, DWORD PTR _z$[esp+236]
; Line 926
	push	ebp
	mov	DWORD PTR _scalars$2[esp+244], eax
	lea	eax, DWORD PTR _scalars$2[esp+240]
	push	eax
	lea	eax, DWORD PTR _points$3[esp+244]
	push	eax
	push	2
	push	0
	push	ebx
	push	edi
	call	_EC_POINTs_mul
	add	esp, 36					; 00000024H
	test	eax, eax
	jne	SHORT $LN480@prime_fiel
; Line 927
	push	1
	call	esi
	push	eax
	call	DWORD PTR __imp__fflush
	add	esp, 8
	push	927					; 0000039fH
	jmp	$LN854@prime_fiel
$LN480@prime_fiel:
; Line 928
	push	ebx
	push	edi
	call	_EC_POINT_is_at_infinity
	add	esp, 8
	test	eax, eax
	jne	SHORT $LN483@prime_fiel
; Line 929
	push	1
	call	esi
	push	eax
	call	DWORD PTR __imp__fflush
	add	esp, 8
	push	929					; 000003a1H
	jmp	$LN854@prime_fiel
$LN483@prime_fiel:
; Line 931
	push	OFFSET ??_C@_01LFCBOECM@?4?$AA@
	push	1
	call	esi
	add	esp, 4
	push	eax
	call	_fprintf
; Line 932
	push	1
	call	esi
	push	eax
	call	DWORD PTR __imp__fflush
	add	esp, 16					; 00000010H
; Line 934
	push	0
	push	0
	push	DWORD PTR _y$[esp+236]
	call	_BN_num_bits
	add	esp, 4
	dec	eax
	push	eax
	push	DWORD PTR _x$[esp+240]
	call	_BN_pseudo_rand
	add	esp, 16					; 00000010H
	test	eax, eax
	jne	SHORT $LN486@prime_fiel
; Line 935
	push	1
	call	esi
	push	eax
	call	DWORD PTR __imp__fflush
	add	esp, 8
	push	935					; 000003a7H
	jmp	$LN854@prime_fiel
$LN486@prime_fiel:
; Line 936
	push	DWORD PTR _y$[esp+228]
	push	DWORD PTR _x$[esp+232]
	push	DWORD PTR _z$[esp+236]
	call	_BN_add
	add	esp, 12					; 0000000cH
; Line 937
	push	1
	test	eax, eax
	jne	SHORT $LN489@prime_fiel
	call	esi
	push	eax
	call	DWORD PTR __imp__fflush
	add	esp, 8
	push	937					; 000003a9H
	jmp	$LN854@prime_fiel
$LN489@prime_fiel:
; Line 938
	push	DWORD PTR _z$[esp+232]
	call	_BN_set_negative
; Line 939
	mov	eax, DWORD PTR _x$[esp+236]
	mov	DWORD PTR _scalars$2[esp+236], eax
; Line 940
	mov	eax, DWORD PTR _y$[esp+236]
	mov	DWORD PTR _scalars$2[esp+240], eax
; Line 941
	mov	eax, DWORD PTR _z$[esp+236]
	mov	DWORD PTR _scalars$2[esp+244], eax
; Line 943
	lea	eax, DWORD PTR _scalar3$1[esp+236]
	push	eax
	call	_BN_init
; Line 944
	lea	eax, DWORD PTR _scalar3$1[esp+240]
	push	0
	push	eax
	call	_BN_set_word
; Line 947
	push	ebp
	lea	eax, DWORD PTR _scalar3$1[esp+252]
	mov	DWORD PTR _scalars$2[esp+264], eax
	lea	eax, DWORD PTR _scalars$2[esp+252]
	push	eax
	lea	eax, DWORD PTR _points$3[esp+256]
	push	eax
	push	4
	push	0
	push	ebx
	push	edi
	call	_EC_POINTs_mul
	add	esp, 48					; 00000030H
	test	eax, eax
	jne	SHORT $LN492@prime_fiel
; Line 948
	push	1
	call	esi
	push	eax
	call	DWORD PTR __imp__fflush
	add	esp, 8
	push	948					; 000003b4H
	jmp	$LN854@prime_fiel
$LN492@prime_fiel:
; Line 949
	push	ebx
	push	edi
	call	_EC_POINT_is_at_infinity
	add	esp, 8
	test	eax, eax
	jne	SHORT $LN495@prime_fiel
; Line 950
	push	1
	call	esi
	push	eax
	call	DWORD PTR __imp__fflush
	add	esp, 8
	push	950					; 000003b6H
	jmp	$LN854@prime_fiel
$LN495@prime_fiel:
; Line 952
	push	OFFSET ??_C@_05EJKMKGKI@?5ok?6?6?$AA@
	push	1
	call	esi
	add	esp, 4
	push	eax
	call	_fprintf
; Line 954
	lea	eax, DWORD PTR _scalar3$1[esp+236]
	push	eax
	call	_BN_free
; Line 979
	push	ebp
	call	_BN_CTX_free
; Line 980
	push	DWORD PTR _p$[esp+244]
	call	_BN_free
; Line 981
	push	DWORD PTR _a$[esp+248]
	call	_BN_free
; Line 982
	push	DWORD PTR _b$[esp+252]
	call	_BN_free
; Line 983
	push	edi
	call	_EC_GROUP_free
; Line 984
	push	ebx
	call	_EC_POINT_free
; Line 985
	push	DWORD PTR _Q$1$[esp+264]
	call	_EC_POINT_free
; Line 986
	push	DWORD PTR _R$1$[esp+268]
	call	_EC_POINT_free
; Line 987
	push	DWORD PTR _x$[esp+272]
	call	_BN_free
; Line 988
	push	DWORD PTR _y$[esp+276]
	call	_BN_free
; Line 989
	push	DWORD PTR _z$[esp+280]
	call	_BN_free
; Line 992
	push	DWORD PTR _P_160$1$[esp+284]
	call	_EC_GROUP_free
; Line 994
	push	DWORD PTR _P_192$1$[esp+288]
	call	_EC_GROUP_free
	add	esp, 64					; 00000040H
; Line 996
	push	DWORD PTR _P_224$1$[esp+228]
	call	_EC_GROUP_free
; Line 998
	push	DWORD PTR _P_256$1$[esp+232]
	call	_EC_GROUP_free
; Line 1000
	push	DWORD PTR _P_384$1$[esp+236]
	call	_EC_GROUP_free
; Line 1002
	push	DWORD PTR _P_521$1$[esp+240]
	call	_EC_GROUP_free
; Line 1004
	mov	ecx, DWORD PTR __$ArrayPad$[esp+244]
	add	esp, 16					; 00000010H
	pop	ebx
	pop	edi
	pop	esi
	pop	ebp
	xor	ecx, esp
	call	@__security_check_cookie@4
	add	esp, 212				; 000000d4H
	ret	0
$LN821@prime_fiel:
; Line 448
	push	1
	call	esi
	push	eax
	call	DWORD PTR __imp__fflush
	add	esp, 8
	push	448					; 000001c0H
	jmp	$LN854@prime_fiel
$LN820@prime_fiel:
; Line 446
	push	1
	call	esi
	push	eax
	call	DWORD PTR __imp__fflush
	add	esp, 8
	push	446					; 000001beH
	jmp	$LN854@prime_fiel
$LN819@prime_fiel:
; Line 436
	push	1
	call	esi
	push	eax
	call	DWORD PTR __imp__fflush
	add	esp, 8
	push	436					; 000001b4H
	jmp	$LN854@prime_fiel
$LN817@prime_fiel:
; Line 430
	push	1
	call	esi
	push	eax
	call	DWORD PTR __imp__fflush
	add	esp, 8
	push	430					; 000001aeH
	jmp	$LN854@prime_fiel
$LN52@prime_fiel:
; Line 409
	push	1
	call	esi
	push	eax
	call	DWORD PTR __imp__fflush
	add	esp, 8
	push	409					; 00000199H
	jmp	$LN854@prime_fiel
$LN34@prime_fiel:
; Line 389
	push	1
	call	esi
	push	eax
	call	DWORD PTR __imp__fflush
	add	esp, 8
	push	389					; 00000185H
	jmp	$LN854@prime_fiel
$LN7@prime_fiel:
; Line 343
	mov	esi, DWORD PTR __imp____acrt_iob_func
	push	1
	call	esi
	push	eax
	call	DWORD PTR __imp__fflush
	add	esp, 8
	push	343					; 00000157H
	jmp	$LN852@prime_fiel
$LN855@prime_fiel:
_prime_field_tests ENDP
_TEXT	ENDS
; Function compile flags: /Ogtpy
;	COMDAT _group_order_tests
_TEXT	SEGMENT
_ctx$1$ = -72						; size = 4
_n1$1$ = -68						; size = 4
_n2$1$ = -64						; size = 4
_order$1$ = -60						; size = 4
_i$1$ = -56						; size = 4
_scalars$1 = -52					; size = 24
_points$2 = -28						; size = 24
__$ArrayPad$ = -4					; size = 4
_group$ = 8						; size = 4
_group_order_tests PROC					; COMDAT
; File c:\workpace\openssl\openssl-1.0.2h\crypto\ec\ectest.c
; Line 210
	mov	eax, 72					; 00000048H
	call	__chkstk
	mov	eax, DWORD PTR ___security_cookie
	xor	eax, esp
	mov	DWORD PTR __$ArrayPad$[esp+72], eax
	push	ebx
	push	ebp
	push	esi
	push	edi
	mov	edi, DWORD PTR _group$[esp+84]
; Line 212
	push	edi
	call	_EC_POINT_new
; Line 213
	push	edi
	mov	ebp, eax
	call	_EC_POINT_new
	add	esp, 8
	mov	ebx, eax
; Line 214
	call	_BN_CTX_new
	mov	DWORD PTR _ctx$1$[esp+88], eax
; Line 217
	call	_BN_new
	mov	DWORD PTR _n1$1$[esp+88], eax
; Line 218
	call	_BN_new
	mov	DWORD PTR _n2$1$[esp+88], eax
; Line 219
	call	_BN_new
; Line 220
	mov	esi, DWORD PTR __imp____acrt_iob_func
	push	OFFSET ??_C@_0BH@KFBLJBMM@verify?5group?5order?5?4?4?4?$AA@
	push	1
	mov	DWORD PTR _order$1$[esp+96], eax
	call	esi
	add	esp, 4
	push	eax
	call	_fprintf
; Line 221
	push	1
	call	esi
	push	eax
	call	DWORD PTR __imp__fflush
; Line 222
	push	DWORD PTR _ctx$1$[esp+104]
	push	DWORD PTR _order$1$[esp+108]
	push	edi
	call	_EC_GROUP_get_order
	add	esp, 28					; 0000001cH
	test	eax, eax
	jne	SHORT $LN3@group_orde
; Line 223
	push	1
	call	esi
	push	eax
	mov	eax, DWORD PTR __imp__fflush
	call	eax
	add	esp, 8
	push	223					; 000000dfH
$LN143@group_orde:
	push	OFFSET ??_C@_0BF@BDOCEPGI@?4?2crypto?2ec?2ectest?4c?$AA@
	push	OFFSET ??_C@_0O@HJBMECNK@?$CFs?3?$CFd?3?5ABORT?6?$AA@
	push	2
	call	esi
	add	esp, 4
	push	eax
	call	_fprintf
	push	2
	call	esi
	push	eax
	call	_ERR_print_errors_fp
	add	esp, 24					; 00000018H
	push	1
	call	DWORD PTR __imp__exit
$LN145@group_orde:
$LN3@group_orde:
; Line 224
	push	DWORD PTR _ctx$1$[esp+88]
	push	0
	push	0
	push	DWORD PTR _order$1$[esp+100]
	push	ebx
	push	edi
	call	_EC_POINT_mul
	add	esp, 24					; 00000018H
	test	eax, eax
	jne	SHORT $LN6@group_orde
; Line 225
	push	1
	call	esi
	push	eax
	mov	eax, DWORD PTR __imp__fflush
	call	eax
	add	esp, 8
	push	225					; 000000e1H
	jmp	SHORT $LN143@group_orde
$LN6@group_orde:
; Line 226
	push	ebx
	push	edi
	call	_EC_POINT_is_at_infinity
	add	esp, 8
	test	eax, eax
	jne	SHORT $LN9@group_orde
; Line 227
	push	1
	call	esi
	push	eax
	mov	eax, DWORD PTR __imp__fflush
	call	eax
	add	esp, 8
	push	227					; 000000e3H
	jmp	SHORT $LN143@group_orde
$LN9@group_orde:
; Line 228
	push	OFFSET ??_C@_01LFCBOECM@?4?$AA@
	push	1
	call	esi
	add	esp, 4
	push	eax
	call	_fprintf
; Line 229
	push	1
	call	esi
	push	eax
	mov	eax, DWORD PTR __imp__fflush
	call	eax
; Line 230
	push	DWORD PTR _ctx$1$[esp+104]
	push	edi
	call	_EC_GROUP_precompute_mult
	add	esp, 24					; 00000018H
	test	eax, eax
	jne	SHORT $LN12@group_orde
; Line 231
	push	1
	call	esi
	push	eax
	call	DWORD PTR __imp__fflush
	add	esp, 8
	push	231					; 000000e7H
	jmp	$LN143@group_orde
$LN12@group_orde:
; Line 232
	push	DWORD PTR _ctx$1$[esp+88]
	push	0
	push	0
	push	DWORD PTR _order$1$[esp+100]
	push	ebx
	push	edi
	call	_EC_POINT_mul
	add	esp, 24					; 00000018H
	test	eax, eax
	jne	SHORT $LN15@group_orde
; Line 233
	push	1
	call	esi
	push	eax
	call	DWORD PTR __imp__fflush
	add	esp, 8
	push	233					; 000000e9H
	jmp	$LN143@group_orde
$LN15@group_orde:
; Line 234
	push	ebx
	push	edi
	call	_EC_POINT_is_at_infinity
	add	esp, 8
	test	eax, eax
	jne	SHORT $LN18@group_orde
; Line 235
	push	1
	call	esi
	push	eax
	call	DWORD PTR __imp__fflush
	add	esp, 8
	push	235					; 000000ebH
	jmp	$LN143@group_orde
$LN18@group_orde:
; Line 236
	push	OFFSET ??_C@_04CFDEAMPI@?5ok?6?$AA@
	push	1
	call	esi
	add	esp, 4
	push	eax
	call	_fprintf
	add	esp, 8
; Line 237
	push	OFFSET ??_C@_0BM@PBNCBNAM@long?1negative?5scalar?5tests?5?$AA@
	push	1
	call	esi
	add	esp, 4
	push	eax
	call	_fprintf
; Line 238
	mov	ecx, 1
	add	esp, 8
	mov	DWORD PTR _i$1$[esp+88], ecx
	mov	edx, OFFSET ??_C@_0BM@LCLGCHAK@without?5precomputation?5?4?4?4?5?$AA@
	npad	9
$LL22@group_orde:
; Line 242
	cmp	ecx, 1
	mov	eax, OFFSET ??_C@_0BN@BNLLKCN@allowing?5precomputation?5?4?4?4?5?$AA@
	cmovne	eax, edx
	push	eax
	push	1
	call	esi
	add	esp, 4
	push	eax
	call	_fprintf
; Line 245
	push	DWORD PTR _i$1$[esp+96]
	push	DWORD PTR _n1$1$[esp+100]
	call	_BN_set_word
	add	esp, 16					; 00000010H
	test	eax, eax
	je	$LN121@group_orde
; Line 251
	push	DWORD PTR _ctx$1$[esp+88]
	push	0
	push	0
	push	DWORD PTR _n1$1$[esp+100]
	push	ebp
	push	edi
	call	_EC_POINT_mul
	add	esp, 24					; 00000018H
; Line 254
	push	1
	test	eax, eax
	je	$LN122@group_orde
	push	DWORD PTR _n1$1$[esp+92]
	call	_BN_set_word
	add	esp, 8
	test	eax, eax
	je	$LN123@group_orde
; Line 257
	push	DWORD PTR _order$1$[esp+88]
	mov	eax, DWORD PTR _n1$1$[esp+92]
	push	eax
	push	eax
	call	_BN_sub
	add	esp, 12					; 0000000cH
	test	eax, eax
	je	$LN124@group_orde
; Line 259
	push	DWORD PTR _ctx$1$[esp+88]
	push	DWORD PTR _n1$1$[esp+92]
	push	ebp
	push	0
	push	ebx
	push	edi
	call	_EC_POINT_mul
	add	esp, 24					; 00000018H
	test	eax, eax
	je	$LN125@group_orde
; Line 261
	push	DWORD PTR _ctx$1$[esp+88]
	push	ebp
	push	ebx
	push	edi
	call	_EC_POINT_cmp
	add	esp, 16					; 00000010H
	test	eax, eax
	jne	$LN126@group_orde
; Line 265
	call	_BN_value_one
	push	eax
	push	DWORD PTR _order$1$[esp+92]
	push	DWORD PTR _n2$1$[esp+96]
	call	_BN_add
	add	esp, 12					; 0000000cH
	test	eax, eax
	je	$LN127@group_orde
; Line 267
	push	DWORD PTR _ctx$1$[esp+88]
	push	DWORD PTR _n2$1$[esp+92]
	push	ebp
	push	0
	push	ebx
	push	edi
	call	_EC_POINT_mul
	add	esp, 24					; 00000018H
	test	eax, eax
	je	$LN128@group_orde
; Line 269
	push	DWORD PTR _ctx$1$[esp+88]
	push	ebp
	push	ebx
	push	edi
	call	_EC_POINT_cmp
	add	esp, 16					; 00000010H
	test	eax, eax
	jne	$LN129@group_orde
; Line 273
	push	DWORD PTR _ctx$1$[esp+88]
	mov	eax, DWORD PTR _n2$1$[esp+92]
	push	eax
	push	DWORD PTR _n1$1$[esp+96]
	push	eax
	call	_BN_mul
	add	esp, 16					; 00000010H
	test	eax, eax
	je	$LN130@group_orde
; Line 275
	push	DWORD PTR _ctx$1$[esp+88]
	push	DWORD PTR _n2$1$[esp+92]
	push	ebp
	push	0
	push	ebx
	push	edi
	call	_EC_POINT_mul
	add	esp, 24					; 00000018H
	test	eax, eax
	je	$LN131@group_orde
; Line 277
	push	DWORD PTR _ctx$1$[esp+88]
	push	ebp
	push	ebx
	push	edi
	call	_EC_POINT_cmp
	add	esp, 16					; 00000010H
	test	eax, eax
	jne	$LN132@group_orde
; Line 281
	push	eax
	push	DWORD PTR _n2$1$[esp+92]
	call	_BN_set_negative
; Line 282
	push	DWORD PTR _ctx$1$[esp+96]
	push	DWORD PTR _n2$1$[esp+100]
	push	ebp
	push	0
	push	ebx
	push	edi
	call	_EC_POINT_mul
	add	esp, 32					; 00000020H
	test	eax, eax
	je	$LN133@group_orde
; Line 285
	push	DWORD PTR _ctx$1$[esp+88]
	push	ebp
	push	ebx
	push	ebx
	push	edi
	call	_EC_POINT_add
	add	esp, 20					; 00000014H
	test	eax, eax
	je	$LN134@group_orde
; Line 287
	push	ebx
	push	edi
	call	_EC_POINT_is_at_infinity
	add	esp, 8
	test	eax, eax
	je	$LN135@group_orde
; Line 291
	push	ebp
	push	edi
	call	_EC_POINT_is_at_infinity
	add	esp, 8
	test	eax, eax
	jne	$LN136@group_orde
; Line 305
	push	DWORD PTR _ctx$1$[esp+88]
	mov	eax, DWORD PTR _n2$1$[esp+92]
	mov	ecx, DWORD PTR _n1$1$[esp+92]
	mov	DWORD PTR _scalars$1[esp+96], eax
	mov	DWORD PTR _scalars$1[esp+104], eax
	mov	DWORD PTR _scalars$1[esp+112], eax
	lea	eax, DWORD PTR _scalars$1[esp+92]
	push	eax
	lea	eax, DWORD PTR _points$2[esp+96]
	mov	DWORD PTR _scalars$1[esp+96], ecx
	push	eax
	push	6
	push	0
	push	ebp
	push	edi
	mov	DWORD PTR _points$2[esp+116], ebx
	mov	DWORD PTR _points$2[esp+120], ebp
	mov	DWORD PTR _scalars$1[esp+124], ecx
	mov	DWORD PTR _points$2[esp+124], ebx
	mov	DWORD PTR _points$2[esp+128], ebx
	mov	DWORD PTR _scalars$1[esp+132], ecx
	mov	DWORD PTR _points$2[esp+132], ebp
	mov	DWORD PTR _points$2[esp+136], ebx
	call	_EC_POINTs_mul
	add	esp, 28					; 0000001cH
	test	eax, eax
	je	$LN137@group_orde
; Line 307
	push	ebp
	push	edi
	call	_EC_POINT_is_at_infinity
	add	esp, 8
	test	eax, eax
	je	SHORT $LN138@group_orde
; Line 238
	mov	ecx, DWORD PTR _i$1$[esp+88]
	mov	edx, OFFSET ??_C@_0BM@LCLGCHAK@without?5precomputation?5?4?4?4?5?$AA@
	inc	ecx
	mov	DWORD PTR _i$1$[esp+88], ecx
	cmp	ecx, 2
	jle	$LL22@group_orde
; Line 310
	push	OFFSET ??_C@_03DJDALPN@ok?6?$AA@
	push	1
	call	esi
	add	esp, 4
	push	eax
	call	_fprintf
; Line 312
	push	ebp
	call	_EC_POINT_free
; Line 313
	push	ebx
	call	_EC_POINT_free
; Line 314
	push	DWORD PTR _n1$1$[esp+104]
	call	_BN_free
; Line 315
	push	DWORD PTR _n2$1$[esp+108]
	call	_BN_free
; Line 316
	push	DWORD PTR _order$1$[esp+112]
	call	_BN_free
; Line 317
	push	DWORD PTR _ctx$1$[esp+116]
	call	_BN_CTX_free
; Line 318
	mov	ecx, DWORD PTR __$ArrayPad$[esp+120]
	add	esp, 32					; 00000020H
	pop	edi
	pop	esi
	pop	ebp
	pop	ebx
	xor	ecx, esp
	call	@__security_check_cookie@4
	add	esp, 72					; 00000048H
	ret	0
$LN138@group_orde:
; Line 308
	push	1
	call	esi
	push	eax
	call	DWORD PTR __imp__fflush
	add	esp, 8
	push	308					; 00000134H
	jmp	$LN143@group_orde
$LN137@group_orde:
; Line 306
	push	1
	call	esi
	push	eax
	call	DWORD PTR __imp__fflush
	add	esp, 8
	push	306					; 00000132H
	jmp	$LN143@group_orde
$LN136@group_orde:
; Line 292
	push	1
	call	esi
	push	eax
	call	DWORD PTR __imp__fflush
	add	esp, 8
	push	292					; 00000124H
	jmp	$LN143@group_orde
$LN135@group_orde:
; Line 288
	push	1
	call	esi
	push	eax
	call	DWORD PTR __imp__fflush
	add	esp, 8
	push	288					; 00000120H
	jmp	$LN143@group_orde
$LN134@group_orde:
; Line 286
	push	1
	call	esi
	push	eax
	call	DWORD PTR __imp__fflush
	add	esp, 8
	push	286					; 0000011eH
	jmp	$LN143@group_orde
$LN133@group_orde:
; Line 283
	push	1
	call	esi
	push	eax
	call	DWORD PTR __imp__fflush
	add	esp, 8
	push	283					; 0000011bH
	jmp	$LN143@group_orde
$LN132@group_orde:
; Line 278
	push	1
	call	esi
	push	eax
	call	DWORD PTR __imp__fflush
	add	esp, 8
	push	278					; 00000116H
	jmp	$LN143@group_orde
$LN131@group_orde:
; Line 276
	push	1
	call	esi
	push	eax
	call	DWORD PTR __imp__fflush
	add	esp, 8
	push	276					; 00000114H
	jmp	$LN143@group_orde
$LN130@group_orde:
; Line 274
	push	1
	call	esi
	push	eax
	call	DWORD PTR __imp__fflush
	add	esp, 8
	push	274					; 00000112H
	jmp	$LN143@group_orde
$LN129@group_orde:
; Line 270
	push	1
	call	esi
	push	eax
	call	DWORD PTR __imp__fflush
	add	esp, 8
	push	270					; 0000010eH
	jmp	$LN143@group_orde
$LN128@group_orde:
; Line 268
	push	1
	call	esi
	push	eax
	call	DWORD PTR __imp__fflush
	add	esp, 8
	push	268					; 0000010cH
	jmp	$LN143@group_orde
$LN127@group_orde:
; Line 266
	push	1
	call	esi
	push	eax
	call	DWORD PTR __imp__fflush
	add	esp, 8
	push	266					; 0000010aH
	jmp	$LN143@group_orde
$LN126@group_orde:
; Line 262
	push	1
	call	esi
	push	eax
	call	DWORD PTR __imp__fflush
	add	esp, 8
	push	262					; 00000106H
	jmp	$LN143@group_orde
$LN125@group_orde:
; Line 260
	push	1
	call	esi
	push	eax
	call	DWORD PTR __imp__fflush
	add	esp, 8
	push	260					; 00000104H
	jmp	$LN143@group_orde
$LN124@group_orde:
; Line 258
	push	1
	call	esi
	push	eax
	call	DWORD PTR __imp__fflush
	add	esp, 8
	push	258					; 00000102H
	jmp	$LN143@group_orde
$LN123@group_orde:
; Line 255
	push	1
	call	esi
	push	eax
	call	DWORD PTR __imp__fflush
	add	esp, 8
	push	255					; 000000ffH
	jmp	$LN143@group_orde
$LN122@group_orde:
; Line 252
	call	esi
	push	eax
	call	DWORD PTR __imp__fflush
	add	esp, 8
	push	252					; 000000fcH
	jmp	$LN143@group_orde
$LN121@group_orde:
; Line 246
	push	1
	call	esi
	push	eax
	call	DWORD PTR __imp__fflush
	add	esp, 8
	push	246					; 000000f6H
	jmp	$LN143@group_orde
$LN144@group_orde:
_group_order_tests ENDP
_TEXT	ENDS
; Function compile flags: /Ogtpy
;	COMDAT _fprintf
_TEXT	SEGMENT
__Stream$ = 8						; size = 4
__Format$ = 12						; size = 4
_fprintf PROC						; COMDAT
; File c:\program files\windows kits\10\include\10.0.10586.0\ucrt\stdio.h
; Line 639
	lea	eax, DWORD PTR __Format$[esp]
	push	eax
	push	0
	push	DWORD PTR __Format$[esp+4]
	push	DWORD PTR __Stream$[esp+8]
	call	___local_stdio_printf_options
	push	DWORD PTR [eax+4]
	push	DWORD PTR [eax]
	call	DWORD PTR __imp____stdio_common_vfprintf
	add	esp, 24					; 00000018H
; Line 838
	ret	0
_fprintf ENDP
_TEXT	ENDS
; Function compile flags: /Ogtpy
;	COMDAT __vfprintf_l
_TEXT	SEGMENT
__Stream$ = 8						; size = 4
__Format$ = 12						; size = 4
__Locale$ = 16						; size = 4
__ArgList$ = 20						; size = 4
__vfprintf_l PROC					; COMDAT
; File c:\program files\windows kits\10\include\10.0.10586.0\ucrt\stdio.h
; Line 639
	push	DWORD PTR __ArgList$[esp-4]
	push	DWORD PTR __Locale$[esp]
	push	DWORD PTR __Format$[esp+4]
	push	DWORD PTR __Stream$[esp+8]
	call	___local_stdio_printf_options
	push	DWORD PTR [eax+4]
	push	DWORD PTR [eax]
	call	DWORD PTR __imp____stdio_common_vfprintf
	add	esp, 24					; 00000018H
; Line 640
	ret	0
__vfprintf_l ENDP
_TEXT	ENDS
; Function compile flags: /Ogtpy
;	COMDAT ___local_stdio_printf_options
_TEXT	SEGMENT
___local_stdio_printf_options PROC			; COMDAT
; File c:\program files\windows kits\10\include\10.0.10586.0\ucrt\corecrt_stdio_config.h
; Line 82
	mov	eax, OFFSET ?_OptionsStorage@?1??__local_stdio_printf_options@@9@9 ; `__local_stdio_printf_options'::`2'::_OptionsStorage
; Line 83
	ret	0
___local_stdio_printf_options ENDP
_TEXT	ENDS
END
