; Listing generated by Microsoft (R) Optimizing Compiler Version 19.00.23918.0 

	TITLE	C:\workpace\openssl\openssl-1.0.2h\crypto\engine\eng_pkey.c
	.686P
	.XMM
	include listing.inc
	.model	flat

INCLUDELIB MSVCRT
INCLUDELIB OLDNAMES

PUBLIC	_ENGINE_set_load_privkey_function
PUBLIC	_ENGINE_set_load_pubkey_function
PUBLIC	_ENGINE_set_load_ssl_client_cert_function
PUBLIC	_ENGINE_get_load_privkey_function
PUBLIC	_ENGINE_get_load_pubkey_function
PUBLIC	_ENGINE_get_ssl_client_cert_function
PUBLIC	_ENGINE_load_private_key
PUBLIC	_ENGINE_load_public_key
PUBLIC	_ENGINE_load_ssl_client_cert
PUBLIC	??_C@_0BL@JEFADGNM@?4?2crypto?2engine?2eng_pkey?4c?$AA@ ; `string'
EXTRN	_CRYPTO_lock:PROC
EXTRN	_ERR_put_error:PROC
;	COMDAT ??_C@_0BL@JEFADGNM@?4?2crypto?2engine?2eng_pkey?4c?$AA@
CONST	SEGMENT
??_C@_0BL@JEFADGNM@?4?2crypto?2engine?2eng_pkey?4c?$AA@ DB '.\crypto\engi'
	DB	'ne\eng_pkey.c', 00H				; `string'
CONST	ENDS
; Function compile flags: /Ogtpy
;	COMDAT _ENGINE_load_ssl_client_cert
_TEXT	SEGMENT
_e$ = 8							; size = 4
_s$ = 12						; size = 4
_ca_dn$ = 16						; size = 4
_pcert$ = 20						; size = 4
_ppkey$ = 24						; size = 4
_pother$ = 28						; size = 4
_ui_method$ = 32					; size = 4
_callback_data$ = 36					; size = 4
_ENGINE_load_ssl_client_cert PROC			; COMDAT
; File c:\workpace\openssl\openssl-1.0.2h\crypto\engine\eng_pkey.c
; Line 164
	push	esi
; Line 166
	mov	esi, DWORD PTR _e$[esp]
	test	esi, esi
	jne	SHORT $LN2@ENGINE_loa
; Line 167
	push	168					; 000000a8H
	push	OFFSET ??_C@_0BL@JEFADGNM@?4?2crypto?2engine?2eng_pkey?4c?$AA@
	push	67					; 00000043H
	push	194					; 000000c2H
	push	38					; 00000026H
	call	_ERR_put_error
	add	esp, 20					; 00000014H
; Line 169
	xor	eax, eax
	pop	esi
; Line 186
	ret	0
$LN2@ENGINE_loa:
; Line 171
	push	171					; 000000abH
	push	OFFSET ??_C@_0BL@JEFADGNM@?4?2crypto?2engine?2eng_pkey?4c?$AA@
	push	30					; 0000001eH
	push	9
	call	_CRYPTO_lock
	add	esp, 16					; 00000010H
; Line 172
	cmp	DWORD PTR [esi+92], 0
	jne	SHORT $LN3@ENGINE_loa
; Line 173
	push	173					; 000000adH
	push	OFFSET ??_C@_0BL@JEFADGNM@?4?2crypto?2engine?2eng_pkey?4c?$AA@
	push	30					; 0000001eH
	push	10					; 0000000aH
	call	_CRYPTO_lock
; Line 174
	push	175					; 000000afH
	push	OFFSET ??_C@_0BL@JEFADGNM@?4?2crypto?2engine?2eng_pkey?4c?$AA@
	push	117					; 00000075H
	push	194					; 000000c2H
	push	38					; 00000026H
	call	_ERR_put_error
	add	esp, 36					; 00000024H
; Line 176
	xor	eax, eax
	pop	esi
; Line 186
	ret	0
$LN3@ENGINE_loa:
; Line 178
	push	178					; 000000b2H
	push	OFFSET ??_C@_0BL@JEFADGNM@?4?2crypto?2engine?2eng_pkey?4c?$AA@
	push	30					; 0000001eH
	push	10					; 0000000aH
	call	_CRYPTO_lock
; Line 179
	mov	eax, DWORD PTR [esi+76]
	add	esp, 16					; 00000010H
	test	eax, eax
	jne	SHORT $LN4@ENGINE_loa
; Line 180
	push	181					; 000000b5H
	push	OFFSET ??_C@_0BL@JEFADGNM@?4?2crypto?2engine?2eng_pkey?4c?$AA@
	push	125					; 0000007dH
	push	194					; 000000c2H
	push	38					; 00000026H
	call	_ERR_put_error
	add	esp, 20					; 00000014H
	xor	eax, eax
	pop	esi
; Line 186
	ret	0
$LN4@ENGINE_loa:
; Line 184
	push	DWORD PTR _callback_data$[esp]
	push	DWORD PTR _ui_method$[esp+4]
	push	DWORD PTR _pother$[esp+8]
	push	DWORD PTR _ppkey$[esp+12]
	push	DWORD PTR _pcert$[esp+16]
	push	DWORD PTR _ca_dn$[esp+20]
	push	DWORD PTR _s$[esp+24]
	push	esi
	call	eax
	add	esp, 32					; 00000020H
	pop	esi
; Line 186
	ret	0
_ENGINE_load_ssl_client_cert ENDP
_TEXT	ENDS
; Function compile flags: /Ogtpy
;	COMDAT _ENGINE_load_public_key
_TEXT	SEGMENT
_e$ = 8							; size = 4
_key_id$ = 12						; size = 4
_ui_method$ = 16					; size = 4
_callback_data$ = 20					; size = 4
_ENGINE_load_public_key PROC				; COMDAT
; File c:\workpace\openssl\openssl-1.0.2h\crypto\engine\eng_pkey.c
; Line 132
	push	esi
; Line 135
	mov	esi, DWORD PTR _e$[esp]
	test	esi, esi
	jne	SHORT $LN2@ENGINE_loa
; Line 136
	push	137					; 00000089H
	push	OFFSET ??_C@_0BL@JEFADGNM@?4?2crypto?2engine?2eng_pkey?4c?$AA@
	push	67					; 00000043H
; Line 153
	push	151					; 00000097H
	push	38					; 00000026H
	call	_ERR_put_error
	add	esp, 20					; 00000014H
; Line 155
	xor	eax, eax
	pop	esi
; Line 158
	ret	0
$LN2@ENGINE_loa:
; Line 140
	push	140					; 0000008cH
	push	OFFSET ??_C@_0BL@JEFADGNM@?4?2crypto?2engine?2eng_pkey?4c?$AA@
	push	30					; 0000001eH
	push	9
	call	_CRYPTO_lock
	add	esp, 16					; 00000010H
; Line 141
	cmp	DWORD PTR [esi+92], 0
	jne	SHORT $LN3@ENGINE_loa
; Line 142
	push	142					; 0000008eH
	push	OFFSET ??_C@_0BL@JEFADGNM@?4?2crypto?2engine?2eng_pkey?4c?$AA@
	push	30					; 0000001eH
	push	10					; 0000000aH
	call	_CRYPTO_lock
; Line 143
	push	143					; 0000008fH
	push	OFFSET ??_C@_0BL@JEFADGNM@?4?2crypto?2engine?2eng_pkey?4c?$AA@
	push	117					; 00000075H
	push	151					; 00000097H
	push	38					; 00000026H
	call	_ERR_put_error
	add	esp, 36					; 00000024H
; Line 155
	xor	eax, eax
	pop	esi
; Line 158
	ret	0
$LN3@ENGINE_loa:
; Line 146
	push	146					; 00000092H
	push	OFFSET ??_C@_0BL@JEFADGNM@?4?2crypto?2engine?2eng_pkey?4c?$AA@
	push	30					; 0000001eH
	push	10					; 0000000aH
	call	_CRYPTO_lock
; Line 147
	mov	eax, DWORD PTR [esi+72]
	add	esp, 16					; 00000010H
	test	eax, eax
	jne	SHORT $LN4@ENGINE_loa
; Line 148
	push	148					; 00000094H
	push	OFFSET ??_C@_0BL@JEFADGNM@?4?2crypto?2engine?2eng_pkey?4c?$AA@
	push	125					; 0000007dH
; Line 153
	push	151					; 00000097H
	push	38					; 00000026H
	call	_ERR_put_error
	add	esp, 20					; 00000014H
; Line 155
	xor	eax, eax
	pop	esi
; Line 158
	ret	0
$LN4@ENGINE_loa:
; Line 151
	push	DWORD PTR _callback_data$[esp]
	push	DWORD PTR _ui_method$[esp+4]
	push	DWORD PTR _key_id$[esp+8]
	push	esi
	call	eax
	add	esp, 16					; 00000010H
; Line 152
	test	eax, eax
	jne	SHORT $LN1@ENGINE_loa
; Line 153
	push	154					; 0000009aH
	push	OFFSET ??_C@_0BL@JEFADGNM@?4?2crypto?2engine?2eng_pkey?4c?$AA@
	push	129					; 00000081H
	push	151					; 00000097H
	push	38					; 00000026H
	call	_ERR_put_error
	add	esp, 20					; 00000014H
; Line 155
	xor	eax, eax
$LN1@ENGINE_loa:
	pop	esi
; Line 158
	ret	0
_ENGINE_load_public_key ENDP
_TEXT	ENDS
; Function compile flags: /Ogtpy
;	COMDAT _ENGINE_load_private_key
_TEXT	SEGMENT
_e$ = 8							; size = 4
_key_id$ = 12						; size = 4
_ui_method$ = 16					; size = 4
_callback_data$ = 20					; size = 4
_ENGINE_load_private_key PROC				; COMDAT
; File c:\workpace\openssl\openssl-1.0.2h\crypto\engine\eng_pkey.c
; Line 101
	push	esi
; Line 104
	mov	esi, DWORD PTR _e$[esp]
	test	esi, esi
	jne	SHORT $LN2@ENGINE_loa
; Line 105
	push	106					; 0000006aH
	push	OFFSET ??_C@_0BL@JEFADGNM@?4?2crypto?2engine?2eng_pkey?4c?$AA@
	push	67					; 00000043H
; Line 123
	push	150					; 00000096H
	push	38					; 00000026H
	call	_ERR_put_error
	add	esp, 20					; 00000014H
; Line 125
	xor	eax, eax
	pop	esi
; Line 128
	ret	0
$LN2@ENGINE_loa:
; Line 109
	push	109					; 0000006dH
	push	OFFSET ??_C@_0BL@JEFADGNM@?4?2crypto?2engine?2eng_pkey?4c?$AA@
	push	30					; 0000001eH
	push	9
	call	_CRYPTO_lock
	add	esp, 16					; 00000010H
; Line 110
	cmp	DWORD PTR [esi+92], 0
	jne	SHORT $LN3@ENGINE_loa
; Line 111
	push	111					; 0000006fH
	push	OFFSET ??_C@_0BL@JEFADGNM@?4?2crypto?2engine?2eng_pkey?4c?$AA@
	push	30					; 0000001eH
	push	10					; 0000000aH
	call	_CRYPTO_lock
; Line 112
	push	112					; 00000070H
	push	OFFSET ??_C@_0BL@JEFADGNM@?4?2crypto?2engine?2eng_pkey?4c?$AA@
	push	117					; 00000075H
	push	150					; 00000096H
	push	38					; 00000026H
	call	_ERR_put_error
	add	esp, 36					; 00000024H
; Line 125
	xor	eax, eax
	pop	esi
; Line 128
	ret	0
$LN3@ENGINE_loa:
; Line 115
	push	115					; 00000073H
	push	OFFSET ??_C@_0BL@JEFADGNM@?4?2crypto?2engine?2eng_pkey?4c?$AA@
	push	30					; 0000001eH
	push	10					; 0000000aH
	call	_CRYPTO_lock
; Line 116
	mov	eax, DWORD PTR [esi+68]
	add	esp, 16					; 00000010H
	test	eax, eax
	jne	SHORT $LN4@ENGINE_loa
; Line 117
	push	118					; 00000076H
	push	OFFSET ??_C@_0BL@JEFADGNM@?4?2crypto?2engine?2eng_pkey?4c?$AA@
	push	125					; 0000007dH
; Line 123
	push	150					; 00000096H
	push	38					; 00000026H
	call	_ERR_put_error
	add	esp, 20					; 00000014H
; Line 125
	xor	eax, eax
	pop	esi
; Line 128
	ret	0
$LN4@ENGINE_loa:
; Line 121
	push	DWORD PTR _callback_data$[esp]
	push	DWORD PTR _ui_method$[esp+4]
	push	DWORD PTR _key_id$[esp+8]
	push	esi
	call	eax
	add	esp, 16					; 00000010H
; Line 122
	test	eax, eax
	jne	SHORT $LN1@ENGINE_loa
; Line 123
	push	124					; 0000007cH
	push	OFFSET ??_C@_0BL@JEFADGNM@?4?2crypto?2engine?2eng_pkey?4c?$AA@
	push	128					; 00000080H
	push	150					; 00000096H
	push	38					; 00000026H
	call	_ERR_put_error
	add	esp, 20					; 00000014H
; Line 125
	xor	eax, eax
$LN1@ENGINE_loa:
	pop	esi
; Line 128
	ret	0
_ENGINE_load_private_key ENDP
_TEXT	ENDS
; Function compile flags: /Ogtpy
;	COMDAT _ENGINE_get_ssl_client_cert_function
_TEXT	SEGMENT
_e$ = 8							; size = 4
_ENGINE_get_ssl_client_cert_function PROC		; COMDAT
; File c:\workpace\openssl\openssl-1.0.2h\crypto\engine\eng_pkey.c
; Line 94
	mov	eax, DWORD PTR _e$[esp-4]
	mov	eax, DWORD PTR [eax+76]
; Line 95
	ret	0
_ENGINE_get_ssl_client_cert_function ENDP
_TEXT	ENDS
; Function compile flags: /Ogtpy
;	COMDAT _ENGINE_get_load_pubkey_function
_TEXT	SEGMENT
_e$ = 8							; size = 4
_ENGINE_get_load_pubkey_function PROC			; COMDAT
; File c:\workpace\openssl\openssl-1.0.2h\crypto\engine\eng_pkey.c
; Line 88
	mov	eax, DWORD PTR _e$[esp-4]
	mov	eax, DWORD PTR [eax+72]
; Line 89
	ret	0
_ENGINE_get_load_pubkey_function ENDP
_TEXT	ENDS
; Function compile flags: /Ogtpy
;	COMDAT _ENGINE_get_load_privkey_function
_TEXT	SEGMENT
_e$ = 8							; size = 4
_ENGINE_get_load_privkey_function PROC			; COMDAT
; File c:\workpace\openssl\openssl-1.0.2h\crypto\engine\eng_pkey.c
; Line 83
	mov	eax, DWORD PTR _e$[esp-4]
	mov	eax, DWORD PTR [eax+68]
; Line 84
	ret	0
_ENGINE_get_load_privkey_function ENDP
_TEXT	ENDS
; Function compile flags: /Ogtpy
;	COMDAT _ENGINE_set_load_ssl_client_cert_function
_TEXT	SEGMENT
_e$ = 8							; size = 4
_loadssl_f$ = 12					; size = 4
_ENGINE_set_load_ssl_client_cert_function PROC		; COMDAT
; File c:\workpace\openssl\openssl-1.0.2h\crypto\engine\eng_pkey.c
; Line 77
	mov	eax, DWORD PTR _e$[esp-4]
	mov	ecx, DWORD PTR _loadssl_f$[esp-4]
	mov	DWORD PTR [eax+76], ecx
; Line 78
	mov	eax, 1
; Line 79
	ret	0
_ENGINE_set_load_ssl_client_cert_function ENDP
_TEXT	ENDS
; Function compile flags: /Ogtpy
;	COMDAT _ENGINE_set_load_pubkey_function
_TEXT	SEGMENT
_e$ = 8							; size = 4
_loadpub_f$ = 12					; size = 4
_ENGINE_set_load_pubkey_function PROC			; COMDAT
; File c:\workpace\openssl\openssl-1.0.2h\crypto\engine\eng_pkey.c
; Line 69
	mov	eax, DWORD PTR _e$[esp-4]
	mov	ecx, DWORD PTR _loadpub_f$[esp-4]
	mov	DWORD PTR [eax+72], ecx
; Line 70
	mov	eax, 1
; Line 71
	ret	0
_ENGINE_set_load_pubkey_function ENDP
_TEXT	ENDS
; Function compile flags: /Ogtpy
;	COMDAT _ENGINE_set_load_privkey_function
_TEXT	SEGMENT
_e$ = 8							; size = 4
_loadpriv_f$ = 12					; size = 4
_ENGINE_set_load_privkey_function PROC			; COMDAT
; File c:\workpace\openssl\openssl-1.0.2h\crypto\engine\eng_pkey.c
; Line 63
	mov	eax, DWORD PTR _e$[esp-4]
	mov	ecx, DWORD PTR _loadpriv_f$[esp-4]
	mov	DWORD PTR [eax+68], ecx
; Line 64
	mov	eax, 1
; Line 65
	ret	0
_ENGINE_set_load_privkey_function ENDP
_TEXT	ENDS
END
