; Listing generated by Microsoft (R) Optimizing Compiler Version 19.00.23918.0 

	TITLE	C:\workpace\openssl\openssl-1.0.2h\crypto\err\err_prn.c
	.686P
	.XMM
	include listing.inc
	.model	flat

INCLUDELIB MSVCRT
INCLUDELIB OLDNAMES

PUBLIC	_ERR_print_errors_cb
PUBLIC	_ERR_print_errors_fp
PUBLIC	_ERR_print_errors
PUBLIC	??_C@_00CNPNBAHC@?$AA@				; `string'
PUBLIC	??_C@_0BB@KDJGCOOH@?$CFlu?3?$CFs?3?$CFs?3?$CFd?3?$CFs?6?$AA@ ; `string'
PUBLIC	??_C@_02DKCKIIND@?$CFs?$AA@			; `string'
EXTRN	_CRYPTO_THREADID_current:PROC
EXTRN	_CRYPTO_THREADID_hash:PROC
EXTRN	_BIO_s_file:PROC
EXTRN	_BIO_set:PROC
EXTRN	_BIO_write:PROC
EXTRN	_BIO_ctrl:PROC
EXTRN	_BIO_printf:PROC
EXTRN	_BIO_snprintf:PROC
EXTRN	_ERR_get_error_line_data:PROC
EXTRN	_ERR_error_string_n:PROC
EXTRN	@__security_check_cookie@4:PROC
EXTRN	__chkstk:PROC
EXTRN	___security_cookie:DWORD
;	COMDAT ??_C@_02DKCKIIND@?$CFs?$AA@
CONST	SEGMENT
??_C@_02DKCKIIND@?$CFs?$AA@ DB '%s', 00H		; `string'
CONST	ENDS
;	COMDAT ??_C@_0BB@KDJGCOOH@?$CFlu?3?$CFs?3?$CFs?3?$CFd?3?$CFs?6?$AA@
CONST	SEGMENT
??_C@_0BB@KDJGCOOH@?$CFlu?3?$CFs?3?$CFs?3?$CFd?3?$CFs?6?$AA@ DB '%lu:%s:%'
	DB	's:%d:%s', 0aH, 00H				; `string'
CONST	ENDS
;	COMDAT ??_C@_00CNPNBAHC@?$AA@
CONST	SEGMENT
??_C@_00CNPNBAHC@?$AA@ DB 00H				; `string'
CONST	ENDS
; Function compile flags: /Ogtpy
;	COMDAT _print_bio
_TEXT	SEGMENT
_str$ = 8						; size = 4
_len$ = 12						; size = 4
_bp$ = 16						; size = 4
_print_bio PROC						; COMDAT
; File c:\workpace\openssl\openssl-1.0.2h\crypto\err\err_prn.c
; Line 107
	push	DWORD PTR _len$[esp-4]
	push	DWORD PTR _str$[esp]
	push	DWORD PTR _bp$[esp+4]
	call	_BIO_write
	add	esp, 12					; 0000000cH
; Line 108
	ret	0
_print_bio ENDP
_TEXT	ENDS
; Function compile flags: /Ogtpy
;	COMDAT _print_fp
_TEXT	SEGMENT
_bio$ = -64						; size = 64
_str$ = 8						; size = 4
_len$ = 12						; size = 4
_fp$ = 16						; size = 4
_print_fp PROC						; COMDAT
; File c:\workpace\openssl\openssl-1.0.2h\crypto\err\err_prn.c
; Line 90
	mov	eax, 64					; 00000040H
	call	__chkstk
; Line 93
	call	_BIO_s_file
	push	eax
	lea	eax, DWORD PTR _bio$[esp+68]
	push	eax
	call	_BIO_set
; Line 94
	push	DWORD PTR _fp$[esp+68]
	lea	eax, DWORD PTR _bio$[esp+76]
	push	0
	push	106					; 0000006aH
	push	eax
	call	_BIO_ctrl
; Line 96
	push	DWORD PTR _str$[esp+84]
	lea	eax, DWORD PTR _bio$[esp+92]
	push	OFFSET ??_C@_02DKCKIIND@?$CFs?$AA@
	push	eax
	call	_BIO_printf
; Line 97
	add	esp, 100				; 00000064H
	ret	0
_print_fp ENDP
_TEXT	ENDS
; Function compile flags: /Ogtpy
;	COMDAT _ERR_print_errors
_TEXT	SEGMENT
_bp$ = 8						; size = 4
_ERR_print_errors PROC					; COMDAT
; File c:\workpace\openssl\openssl-1.0.2h\crypto\err\err_prn.c
; Line 112
	push	DWORD PTR _bp$[esp-4]
	push	OFFSET _print_bio
	call	_ERR_print_errors_cb
	add	esp, 8
; Line 113
	ret	0
_ERR_print_errors ENDP
_TEXT	ENDS
; Function compile flags: /Ogtpy
;	COMDAT _ERR_print_errors_fp
_TEXT	SEGMENT
_fp$ = 8						; size = 4
_ERR_print_errors_fp PROC				; COMDAT
; File c:\workpace\openssl\openssl-1.0.2h\crypto\err\err_prn.c
; Line 101
	push	DWORD PTR _fp$[esp-4]
	push	OFFSET _print_fp
	call	_ERR_print_errors_cb
	add	esp, 8
; Line 102
	ret	0
_ERR_print_errors_fp ENDP
_TEXT	ENDS
; Function compile flags: /Ogtpy
;	COMDAT _ERR_print_errors_cb
_TEXT	SEGMENT
_flags$ = -4380						; size = 4
_data$ = -4376						; size = 4
_line$ = -4372						; size = 4
_file$ = -4368						; size = 4
_cur$ = -4364						; size = 8
_buf$ = -4356						; size = 256
_buf2$ = -4100						; size = 4096
__$ArrayPad$ = -4					; size = 4
_cb$ = 8						; size = 4
_u$ = 12						; size = 4
_ERR_print_errors_cb PROC				; COMDAT
; File c:\workpace\openssl\openssl-1.0.2h\crypto\err\err_prn.c
; Line 68
	mov	eax, 4380				; 0000111cH
	call	__chkstk
	mov	eax, DWORD PTR ___security_cookie
	xor	eax, esp
	mov	DWORD PTR __$ArrayPad$[esp+4380], eax
	push	ebx
	push	esi
	mov	esi, DWORD PTR _cb$[esp+4384]
; Line 77
	lea	eax, DWORD PTR _cur$[esp+4388]
	push	edi
	mov	edi, DWORD PTR _u$[esp+4388]
	push	eax
	call	_CRYPTO_THREADID_current
; Line 78
	lea	eax, DWORD PTR _cur$[esp+4396]
	push	eax
	call	_CRYPTO_THREADID_hash
	mov	ebx, eax
; Line 79
	lea	eax, DWORD PTR _flags$[esp+4400]
	push	eax
	lea	eax, DWORD PTR _data$[esp+4404]
	push	eax
	lea	eax, DWORD PTR _line$[esp+4408]
	push	eax
	lea	eax, DWORD PTR _file$[esp+4412]
	push	eax
	call	_ERR_get_error_line_data
	add	esp, 24					; 00000018H
	test	eax, eax
	je	$LN11@ERR_print_
$LL2@ERR_print_:
; Line 80
	push	256					; 00000100H
	lea	ecx, DWORD PTR _buf$[esp+4396]
	push	ecx
	push	eax
	call	_ERR_error_string_n
; Line 81
	test	BYTE PTR _flags$[esp+4404], 2
	mov	eax, OFFSET ??_C@_00CNPNBAHC@?$AA@
	cmovne	eax, DWORD PTR _data$[esp+4404]
	push	eax
	push	DWORD PTR _line$[esp+4408]
	lea	eax, DWORD PTR _buf$[esp+4412]
	push	DWORD PTR _file$[esp+4412]
	push	eax
	push	ebx
	push	OFFSET ??_C@_0BB@KDJGCOOH@?$CFlu?3?$CFs?3?$CFs?3?$CFd?3?$CFs?6?$AA@
	lea	eax, DWORD PTR _buf2$[esp+4428]
	push	4096					; 00001000H
	push	eax
	call	_BIO_snprintf
; Line 83
	lea	eax, DWORD PTR _buf2$[esp+4436]
	add	esp, 44					; 0000002cH
	lea	edx, DWORD PTR [eax+1]
$LL10@ERR_print_:
	mov	cl, BYTE PTR [eax]
	inc	eax
	test	cl, cl
	jne	SHORT $LL10@ERR_print_
	sub	eax, edx
	push	edi
	push	eax
	lea	eax, DWORD PTR _buf2$[esp+4400]
	push	eax
	call	esi
	add	esp, 12					; 0000000cH
	test	eax, eax
	jle	SHORT $LN11@ERR_print_
; Line 79
	lea	eax, DWORD PTR _flags$[esp+4392]
	push	eax
	lea	eax, DWORD PTR _data$[esp+4396]
	push	eax
	lea	eax, DWORD PTR _line$[esp+4400]
	push	eax
	lea	eax, DWORD PTR _file$[esp+4404]
	push	eax
	call	_ERR_get_error_line_data
	add	esp, 16					; 00000010H
	test	eax, eax
	jne	$LL2@ERR_print_
$LN11@ERR_print_:
; Line 86
	mov	ecx, DWORD PTR __$ArrayPad$[esp+4392]
	pop	edi
	pop	esi
	pop	ebx
	xor	ecx, esp
	call	@__security_check_cookie@4
	add	esp, 4380				; 0000111cH
	ret	0
_ERR_print_errors_cb ENDP
_TEXT	ENDS
END
