; Listing generated by Microsoft (R) Optimizing Compiler Version 19.00.23918.0 

	TITLE	C:\workpace\openssl\openssl-1.0.2h\crypto\evp\evp_extra_test.c
	.686P
	.XMM
	include listing.inc
	.model	flat

INCLUDELIB MSVCRT
INCLUDELIB OLDNAMES

CONST	SEGMENT
_kExampleRSAKeyDER DB 030H
	DB	082H
	DB	02H
	DB	05cH
	DB	02H
	DB	01H
	DB	00H
	DB	02H
	DB	081H
	DB	081H
	DB	00H
	DB	0f8H
	DB	0b8H
	DB	06cH
	DB	083H
	DB	0b4H
	DB	0bcH
	DB	0d9H
	DB	0a8H
	DB	057H
	DB	0c0H
	DB	0a5H
	DB	0b4H
	DB	059H
	DB	076H
	DB	08cH
	DB	054H
	DB	01dH
	DB	079H
	DB	0ebH
	DB	022H
	DB	052H
	DB	04H
	DB	07eH
	DB	0d3H
	DB	037H
	DB	0ebH
	DB	041H
	DB	0fdH
	DB	083H
	DB	0f9H
	DB	0f0H
	DB	0a6H
	DB	085H
	DB	015H
	DB	034H
	DB	075H
	DB	071H
	DB	05aH
	DB	084H
	DB	0a8H
	DB	03cH
	DB	0d2H
	DB	0efH
	DB	05aH
	DB	04eH
	DB	0d3H
	DB	0deH
	DB	097H
	DB	08aH
	DB	0ddH
	DB	0ffH
	DB	0bbH
	DB	0cfH
	DB	0aH
	DB	0aaH
	DB	086H
	DB	092H
	DB	0beH
	DB	0b8H
	DB	050H
	DB	0e4H
	DB	0cdH
	DB	06fH
	DB	080H
	DB	033H
	DB	030H
	DB	076H
	DB	013H
	DB	08fH
	DB	0caH
	DB	07bH
	DB	0dcH
	DB	0ecH
	DB	05aH
	DB	0caH
	DB	063H
	DB	0c7H
	DB	03H
	DB	025H
	DB	0efH
	DB	0a8H
	DB	08aH
	DB	083H
	DB	058H
	DB	076H
	DB	020H
	DB	0faH
	DB	016H
	DB	077H
	DB	0d7H
	DB	079H
	DB	092H
	DB	063H
	DB	01H
	DB	048H
	DB	01aH
	DB	0d8H
	DB	07bH
	DB	067H
	DB	0f1H
	DB	052H
	DB	055H
	DB	049H
	DB	04eH
	DB	0d6H
	DB	06eH
	DB	04aH
	DB	05cH
	DB	0d7H
	DB	07aH
	DB	037H
	DB	036H
	DB	0cH
	DB	0deH
	DB	0ddH
	DB	08fH
	DB	044H
	DB	0e8H
	DB	0c2H
	DB	0a7H
	DB	02cH
	DB	02bH
	DB	0b5H
	DB	0afH
	DB	064H
	DB	04bH
	DB	061H
	DB	07H
	DB	02H
	DB	03H
	DB	01H
	DB	00H
	DB	01H
	DB	02H
	DB	081H
	DB	080H
	DB	074H
	DB	088H
	DB	064H
	DB	03fH
	DB	069H
	DB	045H
	DB	03aH
	DB	06dH
	DB	0c7H
	DB	07fH
	DB	0b9H
	DB	0a3H
	DB	0c0H
	DB	06eH
	DB	0ecH
	DB	0dcH
	DB	0d4H
	DB	05aH
	DB	0b5H
	DB	032H
	DB	085H
	DB	05fH
	DB	019H
	DB	0d4H
	DB	0f8H
	DB	0d4H
	DB	03fH
	DB	03cH
	DB	0faH
	DB	0c2H
	DB	0f6H
	DB	05fH
	DB	0eeH
	DB	0e6H
	DB	0baH
	DB	087H
	DB	074H
	DB	02eH
	DB	0c7H
	DB	0cH
	DB	0d4H
	DB	042H
	DB	0b8H
	DB	066H
	DB	085H
	DB	09cH
	DB	07bH
	DB	024H
	DB	061H
	DB	0aaH
	DB	016H
	DB	011H
	DB	0f6H
	DB	0b5H
	DB	0b6H
	DB	0a4H
	DB	0aH
	DB	0c9H
	DB	055H
	DB	02eH
	DB	081H
	DB	0a5H
	DB	047H
	DB	061H
	DB	0cbH
	DB	025H
	DB	08fH
	DB	0c2H
	DB	015H
	DB	07bH
	DB	0eH
	DB	07cH
	DB	036H
	DB	09fH
	DB	03aH
	DB	0daH
	DB	058H
	DB	086H
	DB	01cH
	DB	05bH
	DB	083H
	DB	079H
	DB	0e6H
	DB	02bH
	DB	0ccH
	DB	0e6H
	DB	0faH
	DB	02cH
	DB	061H
	DB	0f2H
	DB	078H
	DB	080H
	DB	01bH
	DB	0e2H
	DB	0f3H
	DB	09dH
	DB	039H
	DB	02bH
	DB	065H
	DB	057H
	DB	091H
	DB	03dH
	DB	071H
	DB	099H
	DB	073H
	DB	0a5H
	DB	0c2H
	DB	079H
	DB	020H
	DB	08cH
	DB	07H
	DB	04fH
	DB	0e5H
	DB	0b4H
	DB	060H
	DB	01fH
	DB	099H
	DB	0a2H
	DB	0b1H
	DB	04fH
	DB	0cH
	DB	0efH
	DB	0bcH
	DB	059H
	DB	053H
	DB	00H
	DB	07dH
	DB	0b1H
	DB	02H
	DB	041H
	DB	00H
	DB	0fcH
	DB	07eH
	DB	023H
	DB	065H
	DB	070H
	DB	0f8H
	DB	0ceH
	DB	0d3H
	DB	040H
	DB	041H
	DB	080H
	DB	06aH
	DB	01dH
	DB	01H
	DB	0d6H
	DB	01H
	DB	0ffH
	DB	0b6H
	DB	01bH
	DB	03dH
	DB	03dH
	DB	059H
	DB	09H
	DB	033H
	DB	079H
	DB	0c0H
	DB	04fH
	DB	0deH
	DB	096H
	DB	027H
	DB	04bH
	DB	018H
	DB	0c6H
	DB	0d9H
	DB	078H
	DB	0f1H
	DB	0f4H
	DB	035H
	DB	046H
	DB	0e9H
	DB	07cH
	DB	042H
	DB	07aH
	DB	05dH
	DB	09fH
	DB	0efH
	DB	054H
	DB	0b8H
	DB	0f7H
	DB	09fH
	DB	0c4H
	DB	033H
	DB	06cH
	DB	0f3H
	DB	08cH
	DB	032H
	DB	046H
	DB	087H
	DB	067H
	DB	030H
	DB	07bH
	DB	0a7H
	DB	0acH
	DB	0e3H
	DB	02H
	DB	041H
	DB	00H
	DB	0fcH
	DB	02cH
	DB	0dfH
	DB	0cH
	DB	0dH
	DB	088H
	DB	0f5H
	DB	0b1H
	DB	092H
	DB	0a8H
	DB	093H
	DB	047H
	DB	063H
	DB	055H
	DB	0f5H
	DB	0caH
	DB	058H
	DB	043H
	DB	0baH
	DB	01cH
	DB	0e5H
	DB	09eH
	DB	0b6H
	DB	095H
	DB	05H
	DB	0cdH
	DB	0b5H
	DB	082H
	DB	0dfH
	DB	0ebH
	DB	04H
	DB	053H
	DB	09dH
	DB	0bdH
	DB	0c2H
	DB	038H
	DB	016H
	DB	0b3H
	DB	062H
	DB	0ddH
	DB	0a1H
	DB	046H
	DB	0dbH
	DB	06dH
	DB	097H
	DB	093H
	DB	09fH
	DB	08aH
	DB	0c3H
	DB	09bH
	DB	064H
	DB	07eH
	DB	042H
	DB	0e3H
	DB	032H
	DB	057H
	DB	019H
	DB	01bH
	DB	0d5H
	DB	06eH
	DB	085H
	DB	0faH
	DB	0b8H
	DB	08dH
	DB	02H
	DB	041H
	DB	00H
	DB	0bcH
	DB	03dH
	DB	0deH
	DB	06dH
	DB	0d6H
	DB	097H
	DB	0e8H
	DB	0baH
	DB	09eH
	DB	081H
	DB	037H
	DB	017H
	DB	0e5H
	DB	0a0H
	DB	064H
	DB	0c9H
	DB	00H
	DB	0b7H
	DB	0e7H
	DB	0feH
	DB	0f4H
	DB	029H
	DB	0d9H
	DB	02eH
	DB	043H
	DB	06bH
	DB	019H
	DB	020H
	DB	0bdH
	DB	099H
	DB	075H
	DB	0e7H
	DB	076H
	DB	0f8H
	DB	0d3H
	DB	0aeH
	DB	0afH
	DB	07eH
	DB	0b8H
	DB	0ebH
	DB	081H
	DB	0f4H
	DB	09dH
	DB	0feH
	DB	07H
	DB	02bH
	DB	0bH
	DB	063H
	DB	0bH
	DB	05aH
	DB	055H
	DB	090H
	DB	071H
	DB	07dH
	DB	0f1H
	DB	0dbH
	DB	0d9H
	DB	0b1H
	DB	041H
	DB	041H
	DB	068H
	DB	02fH
	DB	04eH
	DB	039H
	DB	02H
	DB	040H
	DB	05aH
	DB	034H
	DB	066H
	DB	0d8H
	DB	0f5H
	DB	0e2H
	DB	07fH
	DB	018H
	DB	0b5H
	DB	00H
	DB	06eH
	DB	026H
	DB	084H
	DB	027H
	DB	014H
	DB	093H
	DB	0fbH
	DB	0fcH
	DB	0c6H
	DB	0fH
	DB	05eH
	DB	027H
	DB	0e6H
	DB	0e1H
	DB	0e9H
	DB	0c0H
	DB	08aH
	DB	0e4H
	DB	034H
	DB	0daH
	DB	0e9H
	DB	0a2H
	DB	04bH
	DB	073H
	DB	0bcH
	DB	08cH
	DB	0b9H
	DB	0baH
	DB	013H
	DB	06cH
	DB	07aH
	DB	02bH
	DB	051H
	DB	084H
	DB	0a3H
	DB	04aH
	DB	0e0H
	DB	030H
	DB	010H
	DB	06H
	DB	07eH
	DB	0edH
	DB	017H
	DB	05aH
	DB	014H
	DB	00H
	DB	0c9H
	DB	0efH
	DB	085H
	DB	0eaH
	DB	052H
	DB	02cH
	DB	0bcH
	DB	065H
	DB	02H
	DB	040H
	DB	051H
	DB	0e3H
	DB	0f2H
	DB	083H
	DB	019H
	DB	09bH
	DB	0c4H
	DB	01eH
	DB	02fH
	DB	050H
	DB	03dH
	DB	0dfH
	DB	05aH
	DB	0a2H
	DB	018H
	DB	0caH
	DB	05fH
	DB	02eH
	DB	049H
	DB	0afH
	DB	06fH
	DB	0ccH
	DB	0faH
	DB	065H
	DB	077H
	DB	094H
	DB	0b5H
	DB	0a1H
	DB	0aH
	DB	0a9H
	DB	0d1H
	DB	08aH
	DB	039H
	DB	037H
	DB	0f4H
	DB	0bH
	DB	0a0H
	DB	0d7H
	DB	082H
	DB	027H
	DB	05eH
	DB	0aeH
	DB	017H
	DB	017H
	DB	0a1H
	DB	01eH
	DB	054H
	DB	034H
	DB	0bfH
	DB	06eH
	DB	0c4H
	DB	08eH
	DB	099H
	DB	05dH
	DB	08H
	DB	0f1H
	DB	02dH
	DB	086H
	DB	09dH
	DB	0a5H
	DB	020H
	DB	01bH
	DB	0e5H
	DB	0dfH
_kMsg	DB	01H
	DB	02H
	DB	03H
	DB	04H
	ORG $+4
_kSignature DB	0a5H
	DB	0f0H
	DB	08aH
	DB	047H
	DB	05dH
	DB	03cH
	DB	0b3H
	DB	0ccH
	DB	0a9H
	DB	079H
	DB	0afH
	DB	04dH
	DB	08cH
	DB	0aeH
	DB	04cH
	DB	014H
	DB	0efH
	DB	0c2H
	DB	0bH
	DB	034H
	DB	036H
	DB	0deH
	DB	0f4H
	DB	03eH
	DB	03dH
	DB	0bbH
	DB	04aH
	DB	060H
	DB	05cH
	DB	0c8H
	DB	091H
	DB	028H
	DB	0daH
	DB	0fbH
	DB	07eH
	DB	04H
	DB	096H
	DB	07eH
	DB	063H
	DB	013H
	DB	090H
	DB	0ceH
	DB	0b9H
	DB	0b4H
	DB	062H
	DB	07aH
	DB	0fdH
	DB	09H
	DB	03dH
	DB	0c7H
	DB	067H
	DB	078H
	DB	054H
	DB	04H
	DB	0ebH
	DB	052H
	DB	062H
	DB	06eH
	DB	024H
	DB	067H
	DB	0b4H
	DB	040H
	DB	0fcH
	DB	057H
	DB	062H
	DB	0c6H
	DB	0f1H
	DB	067H
	DB	0c1H
	DB	097H
	DB	08fH
	DB	06aH
	DB	0a8H
	DB	0aeH
	DB	044H
	DB	046H
	DB	05eH
	DB	0abH
	DB	067H
	DB	017H
	DB	053H
	DB	019H
	DB	03aH
	DB	0daH
	DB	05aH
	DB	0c8H
	DB	016H
	DB	03eH
	DB	086H
	DB	0d5H
	DB	0c5H
	DB	071H
	DB	02fH
	DB	0fcH
	DB	023H
	DB	048H
	DB	0d9H
	DB	0bH
	DB	013H
	DB	0ddH
	DB	07bH
	DB	05aH
	DB	025H
	DB	079H
	DB	0efH
	DB	0a5H
	DB	07bH
	DB	04H
	DB	0edH
	DB	044H
	DB	0f6H
	DB	018H
	DB	055H
	DB	0e4H
	DB	0aH
	DB	0e9H
	DB	057H
	DB	079H
	DB	05dH
	DB	0d7H
	DB	055H
	DB	0a7H
	DB	0abH
	DB	045H
	DB	02H
	DB	097H
	DB	060H
	DB	042H
_kExampleRSAKeyPKCS8 DB 030H
	DB	082H
	DB	02H
	DB	076H
	DB	02H
	DB	01H
	DB	00H
	DB	030H
	DB	0dH
	DB	06H
	DB	09H
	DB	02aH
	DB	086H
	DB	048H
	DB	086H
	DB	0f7H
	DB	0dH
	DB	01H
	DB	01H
	DB	01H
	DB	05H
	DB	00H
	DB	04H
	DB	082H
	DB	02H
	DB	060H
	DB	030H
	DB	082H
	DB	02H
	DB	05cH
	DB	02H
	DB	01H
	DB	00H
	DB	02H
	DB	081H
	DB	081H
	DB	00H
	DB	0f8H
	DB	0b8H
	DB	06cH
	DB	083H
	DB	0b4H
	DB	0bcH
	DB	0d9H
	DB	0a8H
	DB	057H
	DB	0c0H
	DB	0a5H
	DB	0b4H
	DB	059H
	DB	076H
	DB	08cH
	DB	054H
	DB	01dH
	DB	079H
	DB	0ebH
	DB	022H
	DB	052H
	DB	04H
	DB	07eH
	DB	0d3H
	DB	037H
	DB	0ebH
	DB	041H
	DB	0fdH
	DB	083H
	DB	0f9H
	DB	0f0H
	DB	0a6H
	DB	085H
	DB	015H
	DB	034H
	DB	075H
	DB	071H
	DB	05aH
	DB	084H
	DB	0a8H
	DB	03cH
	DB	0d2H
	DB	0efH
	DB	05aH
	DB	04eH
	DB	0d3H
	DB	0deH
	DB	097H
	DB	08aH
	DB	0ddH
	DB	0ffH
	DB	0bbH
	DB	0cfH
	DB	0aH
	DB	0aaH
	DB	086H
	DB	092H
	DB	0beH
	DB	0b8H
	DB	050H
	DB	0e4H
	DB	0cdH
	DB	06fH
	DB	080H
	DB	033H
	DB	030H
	DB	076H
	DB	013H
	DB	08fH
	DB	0caH
	DB	07bH
	DB	0dcH
	DB	0ecH
	DB	05aH
	DB	0caH
	DB	063H
	DB	0c7H
	DB	03H
	DB	025H
	DB	0efH
	DB	0a8H
	DB	08aH
	DB	083H
	DB	058H
	DB	076H
	DB	020H
	DB	0faH
	DB	016H
	DB	077H
	DB	0d7H
	DB	079H
	DB	092H
	DB	063H
	DB	01H
	DB	048H
	DB	01aH
	DB	0d8H
	DB	07bH
	DB	067H
	DB	0f1H
	DB	052H
	DB	055H
	DB	049H
	DB	04eH
	DB	0d6H
	DB	06eH
	DB	04aH
	DB	05cH
	DB	0d7H
	DB	07aH
	DB	037H
	DB	036H
	DB	0cH
	DB	0deH
	DB	0ddH
	DB	08fH
	DB	044H
	DB	0e8H
	DB	0c2H
	DB	0a7H
	DB	02cH
	DB	02bH
	DB	0b5H
	DB	0afH
	DB	064H
	DB	04bH
	DB	061H
	DB	07H
	DB	02H
	DB	03H
	DB	01H
	DB	00H
	DB	01H
	DB	02H
	DB	081H
	DB	080H
	DB	074H
	DB	088H
	DB	064H
	DB	03fH
	DB	069H
	DB	045H
	DB	03aH
	DB	06dH
	DB	0c7H
	DB	07fH
	DB	0b9H
	DB	0a3H
	DB	0c0H
	DB	06eH
	DB	0ecH
	DB	0dcH
	DB	0d4H
	DB	05aH
	DB	0b5H
	DB	032H
	DB	085H
	DB	05fH
	DB	019H
	DB	0d4H
	DB	0f8H
	DB	0d4H
	DB	03fH
	DB	03cH
	DB	0faH
	DB	0c2H
	DB	0f6H
	DB	05fH
	DB	0eeH
	DB	0e6H
	DB	0baH
	DB	087H
	DB	074H
	DB	02eH
	DB	0c7H
	DB	0cH
	DB	0d4H
	DB	042H
	DB	0b8H
	DB	066H
	DB	085H
	DB	09cH
	DB	07bH
	DB	024H
	DB	061H
	DB	0aaH
	DB	016H
	DB	011H
	DB	0f6H
	DB	0b5H
	DB	0b6H
	DB	0a4H
	DB	0aH
	DB	0c9H
	DB	055H
	DB	02eH
	DB	081H
	DB	0a5H
	DB	047H
	DB	061H
	DB	0cbH
	DB	025H
	DB	08fH
	DB	0c2H
	DB	015H
	DB	07bH
	DB	0eH
	DB	07cH
	DB	036H
	DB	09fH
	DB	03aH
	DB	0daH
	DB	058H
	DB	086H
	DB	01cH
	DB	05bH
	DB	083H
	DB	079H
	DB	0e6H
	DB	02bH
	DB	0ccH
	DB	0e6H
	DB	0faH
	DB	02cH
	DB	061H
	DB	0f2H
	DB	078H
	DB	080H
	DB	01bH
	DB	0e2H
	DB	0f3H
	DB	09dH
	DB	039H
	DB	02bH
	DB	065H
	DB	057H
	DB	091H
	DB	03dH
	DB	071H
	DB	099H
	DB	073H
	DB	0a5H
	DB	0c2H
	DB	079H
	DB	020H
	DB	08cH
	DB	07H
	DB	04fH
	DB	0e5H
	DB	0b4H
	DB	060H
	DB	01fH
	DB	099H
	DB	0a2H
	DB	0b1H
	DB	04fH
	DB	0cH
	DB	0efH
	DB	0bcH
	DB	059H
	DB	053H
	DB	00H
	DB	07dH
	DB	0b1H
	DB	02H
	DB	041H
	DB	00H
	DB	0fcH
	DB	07eH
	DB	023H
	DB	065H
	DB	070H
	DB	0f8H
	DB	0ceH
	DB	0d3H
	DB	040H
	DB	041H
	DB	080H
	DB	06aH
	DB	01dH
	DB	01H
	DB	0d6H
	DB	01H
	DB	0ffH
	DB	0b6H
	DB	01bH
	DB	03dH
	DB	03dH
	DB	059H
	DB	09H
	DB	033H
	DB	079H
	DB	0c0H
	DB	04fH
	DB	0deH
	DB	096H
	DB	027H
	DB	04bH
	DB	018H
	DB	0c6H
	DB	0d9H
	DB	078H
	DB	0f1H
	DB	0f4H
	DB	035H
	DB	046H
	DB	0e9H
	DB	07cH
	DB	042H
	DB	07aH
	DB	05dH
	DB	09fH
	DB	0efH
	DB	054H
	DB	0b8H
	DB	0f7H
	DB	09fH
	DB	0c4H
	DB	033H
	DB	06cH
	DB	0f3H
	DB	08cH
	DB	032H
	DB	046H
	DB	087H
	DB	067H
	DB	030H
	DB	07bH
	DB	0a7H
	DB	0acH
	DB	0e3H
	DB	02H
	DB	041H
	DB	00H
	DB	0fcH
	DB	02cH
	DB	0dfH
	DB	0cH
	DB	0dH
	DB	088H
	DB	0f5H
	DB	0b1H
	DB	092H
	DB	0a8H
	DB	093H
	DB	047H
	DB	063H
	DB	055H
	DB	0f5H
	DB	0caH
	DB	058H
	DB	043H
	DB	0baH
	DB	01cH
	DB	0e5H
	DB	09eH
	DB	0b6H
	DB	095H
	DB	05H
	DB	0cdH
	DB	0b5H
	DB	082H
	DB	0dfH
	DB	0ebH
	DB	04H
	DB	053H
	DB	09dH
	DB	0bdH
	DB	0c2H
	DB	038H
	DB	016H
	DB	0b3H
	DB	062H
	DB	0ddH
	DB	0a1H
	DB	046H
	DB	0dbH
	DB	06dH
	DB	097H
	DB	093H
	DB	09fH
	DB	08aH
	DB	0c3H
	DB	09bH
	DB	064H
	DB	07eH
	DB	042H
	DB	0e3H
	DB	032H
	DB	057H
	DB	019H
	DB	01bH
	DB	0d5H
	DB	06eH
	DB	085H
	DB	0faH
	DB	0b8H
	DB	08dH
	DB	02H
	DB	041H
	DB	00H
	DB	0bcH
	DB	03dH
	DB	0deH
	DB	06dH
	DB	0d6H
	DB	097H
	DB	0e8H
	DB	0baH
	DB	09eH
	DB	081H
	DB	037H
	DB	017H
	DB	0e5H
	DB	0a0H
	DB	064H
	DB	0c9H
	DB	00H
	DB	0b7H
	DB	0e7H
	DB	0feH
	DB	0f4H
	DB	029H
	DB	0d9H
	DB	02eH
	DB	043H
	DB	06bH
	DB	019H
	DB	020H
	DB	0bdH
	DB	099H
	DB	075H
	DB	0e7H
	DB	076H
	DB	0f8H
	DB	0d3H
	DB	0aeH
	DB	0afH
	DB	07eH
	DB	0b8H
	DB	0ebH
	DB	081H
	DB	0f4H
	DB	09dH
	DB	0feH
	DB	07H
	DB	02bH
	DB	0bH
	DB	063H
	DB	0bH
	DB	05aH
	DB	055H
	DB	090H
	DB	071H
	DB	07dH
	DB	0f1H
	DB	0dbH
	DB	0d9H
	DB	0b1H
	DB	041H
	DB	041H
	DB	068H
	DB	02fH
	DB	04eH
	DB	039H
	DB	02H
	DB	040H
	DB	05aH
	DB	034H
	DB	066H
	DB	0d8H
	DB	0f5H
	DB	0e2H
	DB	07fH
	DB	018H
	DB	0b5H
	DB	00H
	DB	06eH
	DB	026H
	DB	084H
	DB	027H
	DB	014H
	DB	093H
	DB	0fbH
	DB	0fcH
	DB	0c6H
	DB	0fH
	DB	05eH
	DB	027H
	DB	0e6H
	DB	0e1H
	DB	0e9H
	DB	0c0H
	DB	08aH
	DB	0e4H
	DB	034H
	DB	0daH
	DB	0e9H
	DB	0a2H
	DB	04bH
	DB	073H
	DB	0bcH
	DB	08cH
	DB	0b9H
	DB	0baH
	DB	013H
	DB	06cH
	DB	07aH
	DB	02bH
	DB	051H
	DB	084H
	DB	0a3H
	DB	04aH
	DB	0e0H
	DB	030H
	DB	010H
	DB	06H
	DB	07eH
	DB	0edH
	DB	017H
	DB	05aH
	DB	014H
	DB	00H
	DB	0c9H
	DB	0efH
	DB	085H
	DB	0eaH
	DB	052H
	DB	02cH
	DB	0bcH
	DB	065H
	DB	02H
	DB	040H
	DB	051H
	DB	0e3H
	DB	0f2H
	DB	083H
	DB	019H
	DB	09bH
	DB	0c4H
	DB	01eH
	DB	02fH
	DB	050H
	DB	03dH
	DB	0dfH
	DB	05aH
	DB	0a2H
	DB	018H
	DB	0caH
	DB	05fH
	DB	02eH
	DB	049H
	DB	0afH
	DB	06fH
	DB	0ccH
	DB	0faH
	DB	065H
	DB	077H
	DB	094H
	DB	0b5H
	DB	0a1H
	DB	0aH
	DB	0a9H
	DB	0d1H
	DB	08aH
	DB	039H
	DB	037H
	DB	0f4H
	DB	0bH
	DB	0a0H
	DB	0d7H
	DB	082H
	DB	027H
	DB	05eH
	DB	0aeH
	DB	017H
	DB	017H
	DB	0a1H
	DB	01eH
	DB	054H
	DB	034H
	DB	0bfH
	DB	06eH
	DB	0c4H
	DB	08eH
	DB	099H
	DB	05dH
	DB	08H
	DB	0f1H
	DB	02dH
	DB	086H
	DB	09dH
	DB	0a5H
	DB	020H
	DB	01bH
	DB	0e5H
	DB	0dfH
	ORG $+6
_kExampleECKeyDER DB 030H
	DB	077H
	DB	02H
	DB	01H
	DB	01H
	DB	04H
	DB	020H
	DB	07H
	DB	0fH
	DB	08H
	DB	072H
	DB	07aH
	DB	0d4H
	DB	0a0H
	DB	04aH
	DB	09cH
	DB	0ddH
	DB	059H
	DB	0c9H
	DB	04dH
	DB	089H
	DB	068H
	DB	077H
	DB	08H
	DB	0b5H
	DB	06fH
	DB	0c9H
	DB	05dH
	DB	030H
	DB	077H
	DB	0eH
	DB	0e8H
	DB	0d1H
	DB	0c9H
	DB	0ceH
	DB	0aH
	DB	08bH
	DB	0b4H
	DB	06aH
	DB	0a0H
	DB	0aH
	DB	06H
	DB	08H
	DB	02aH
	DB	086H
	DB	048H
	DB	0ceH
	DB	03dH
	DB	03H
	DB	01H
	DB	07H
	DB	0a1H
	DB	044H
	DB	03H
	DB	042H
	DB	00H
	DB	04H
	DB	0e6H
	DB	02bH
	DB	069H
	DB	0e2H
	DB	0bfH
	DB	065H
	DB	09fH
	DB	097H
	DB	0beH
	DB	02fH
	DB	01eH
	DB	0dH
	DB	094H
	DB	08aH
	DB	04cH
	DB	0d5H
	DB	097H
	DB	06bH
	DB	0b7H
	DB	0a9H
	DB	01eH
	DB	0dH
	DB	046H
	DB	0fbH
	DB	0ddH
	DB	0a9H
	DB	0a9H
	DB	01eH
	DB	09dH
	DB	0dcH
	DB	0baH
	DB	05aH
	DB	01H
	DB	0e7H
	DB	0d6H
	DB	097H
	DB	0a8H
	DB	0aH
	DB	018H
	DB	0f9H
	DB	0c3H
	DB	0c4H
	DB	0a3H
	DB	01eH
	DB	056H
	DB	0e2H
	DB	07cH
	DB	083H
	DB	048H
	DB	0dbH
	DB	016H
	DB	01aH
	DB	01cH
	DB	0f5H
	DB	01dH
	DB	07eH
	DB	0f1H
	DB	094H
	DB	02dH
	DB	04bH
	DB	0cfH
	DB	072H
	DB	022H
	DB	0c1H
	ORG $+7
_kExampleBadECKeyDER DB 030H
	DB	066H
	DB	02H
	DB	01H
	DB	00H
	DB	030H
	DB	013H
	DB	06H
	DB	07H
	DB	02aH
	DB	086H
	DB	048H
	DB	0ceH
	DB	03dH
	DB	02H
	DB	01H
	DB	06H
	DB	08H
	DB	02aH
	DB	086H
	DB	048H
	DB	0ceH
	DB	03dH
	DB	03H
	DB	01H
	DB	07H
	DB	04H
	DB	04cH
	DB	030H
	DB	04aH
	DB	02H
	DB	01H
	DB	01H
	DB	04H
	DB	020H
	DB	0ffH
	DB	0ffH
	DB	0ffH
	DB	0ffH
	DB	00H
	DB	00H
	DB	00H
	DB	00H
	DB	0ffH
	DB	0ffH
	DB	0ffH
	DB	0ffH
	DB	0ffH
	DB	0ffH
	DB	0ffH
	DB	0ffH
	DB	0bcH
	DB	0e6H
	DB	0faH
	DB	0adH
	DB	0a7H
	DB	017H
	DB	09eH
	DB	084H
	DB	0f3H
	DB	0b9H
	DB	0caH
	DB	0c2H
	DB	0fcH
	DB	063H
	DB	025H
	DB	051H
	DB	0a1H
	DB	023H
	DB	03H
	DB	021H
	DB	00H
	DB	00H
	DB	0ffH
	DB	0ffH
	DB	0ffH
	DB	00H
	DB	00H
	DB	00H
	DB	00H
	DB	0ffH
	DB	0ffH
	DB	0ffH
	DB	0ffH
	DB	0ffH
	DB	0ffH
	DB	0ffH
	DB	0ffH
	DB	0bcH
	DB	0e6H
	DB	0faH
	DB	0adH
	DB	0a7H
	DB	017H
	DB	09eH
	DB	084H
	DB	0f3H
	DB	0b9H
	DB	0caH
	DB	0c2H
	DB	0fcH
	DB	063H
	DB	025H
	DB	051H
CONST	ENDS
PUBLIC	___local_stdio_printf_options
PUBLIC	__vfprintf_l
PUBLIC	_fprintf
PUBLIC	_printf
PUBLIC	_main
PUBLIC	??_C@_0BC@DNOAMPI@sig_len?5mismatch?6?$AA@	; `string'
PUBLIC	??_C@_0BO@FOPGGLHI@?4?2crypto?2evp?2evp_extra_test?4c?$AA@ ; `string'
PUBLIC	??_C@_0BL@MLDJILLA@d2i_AutoPrivateKey?5failed?6?$AA@ ; `string'
PUBLIC	??_C@_0BO@BIHHCPMN@Did?5not?5decode?5expected?5type?6?$AA@ ; `string'
PUBLIC	??_C@_0BF@DJEMHPKD@Failed?5to?5parse?5key?6?$AA@ ; `string'
PUBLIC	??_C@_0BJ@CCLLHHD@Imported?5invalid?5EC?5key?6?$AA@ ; `string'
PUBLIC	??_C@_0BL@IBNLHNPN@EVP_DigestSignInit?5failed?6?$AA@ ; `string'
PUBLIC	??_C@_0BN@FHDGLKFH@EVP_DigestVerifyInit?5failed?6?$AA@ ; `string'
PUBLIC	??_C@_0CO@LAKIGHEM@d2i_AutoPrivateKey?$CIkExampleRSAKe@ ; `string'
PUBLIC	??_C@_0DA@LGCPAHCO@d2i_AutoPrivateKey?$CIkExampleRSAKe@ ; `string'
PUBLIC	??_C@_0CN@OKNBDKMM@d2i_AutoPrivateKey?$CIkExampleECKey@ ; `string'
PUBLIC	??_C@_0BM@NGKCLFAG@test_EVP_PKCS82PKEY?5failed?6?$AA@ ; `string'
PUBLIC	??_C@_05GKINPPHN@PASS?6?$AA@			; `string'
EXTRN	__imp____acrt_iob_func:PROC
EXTRN	__imp____stdio_common_vfprintf:PROC
EXTRN	_CRYPTO_mem_ctrl:PROC
EXTRN	_CRYPTO_cleanup_all_ex_data:PROC
EXTRN	_CRYPTO_set_mem_debug_functions:PROC
EXTRN	_CRYPTO_malloc:PROC
EXTRN	_CRYPTO_free:PROC
EXTRN	_CRYPTO_set_mem_debug_options:PROC
EXTRN	_CRYPTO_dbg_malloc:PROC
EXTRN	_CRYPTO_dbg_realloc:PROC
EXTRN	_CRYPTO_dbg_free:PROC
EXTRN	_CRYPTO_dbg_set_options:PROC
EXTRN	_CRYPTO_dbg_get_options:PROC
EXTRN	_CRYPTO_mem_leaks_fp:PROC
EXTRN	_ERR_print_errors_fp:PROC
EXTRN	_ERR_load_crypto_strings:PROC
EXTRN	_ERR_free_strings:PROC
EXTRN	_ERR_remove_thread_state:PROC
EXTRN	_EVP_MD_CTX_init:PROC
EXTRN	_EVP_MD_CTX_cleanup:PROC
EXTRN	_EVP_DigestUpdate:PROC
EXTRN	_EVP_DigestSignInit:PROC
EXTRN	_EVP_DigestSignFinal:PROC
EXTRN	_EVP_DigestVerifyInit:PROC
EXTRN	_EVP_DigestVerifyFinal:PROC
EXTRN	_EVP_sha256:PROC
EXTRN	_OpenSSL_add_all_ciphers:PROC
EXTRN	_OpenSSL_add_all_digests:PROC
EXTRN	_EVP_cleanup:PROC
EXTRN	_EVP_PKEY_id:PROC
EXTRN	_EVP_PKEY_size:PROC
EXTRN	_EVP_PKEY_set1_RSA:PROC
EXTRN	_EVP_PKEY_new:PROC
EXTRN	_EVP_PKEY_free:PROC
EXTRN	_d2i_AutoPrivateKey:PROC
EXTRN	_RSA_free:PROC
EXTRN	_d2i_RSAPrivateKey:PROC
EXTRN	_PKCS8_PRIV_KEY_INFO_free:PROC
EXTRN	_d2i_PKCS8_PRIV_KEY_INFO:PROC
EXTRN	_EVP_PKCS82PKEY:PROC
EXTRN	__chkstk:PROC
_DATA	SEGMENT
COMM	?_OptionsStorage@?1??__local_stdio_printf_options@@9@9:QWORD							; `__local_stdio_printf_options'::`2'::_OptionsStorage
_DATA	ENDS
;	COMDAT ??_C@_05GKINPPHN@PASS?6?$AA@
CONST	SEGMENT
??_C@_05GKINPPHN@PASS?6?$AA@ DB 'PASS', 0aH, 00H	; `string'
CONST	ENDS
;	COMDAT ??_C@_0BM@NGKCLFAG@test_EVP_PKCS82PKEY?5failed?6?$AA@
CONST	SEGMENT
??_C@_0BM@NGKCLFAG@test_EVP_PKCS82PKEY?5failed?6?$AA@ DB 'test_EVP_PKCS82'
	DB	'PKEY failed', 0aH, 00H			; `string'
CONST	ENDS
;	COMDAT ??_C@_0CN@OKNBDKMM@d2i_AutoPrivateKey?$CIkExampleECKey@
CONST	SEGMENT
??_C@_0CN@OKNBDKMM@d2i_AutoPrivateKey?$CIkExampleECKey@ DB 'd2i_AutoPriva'
	DB	'teKey(kExampleECKeyDER) failed', 0aH, 00H	; `string'
CONST	ENDS
;	COMDAT ??_C@_0DA@LGCPAHCO@d2i_AutoPrivateKey?$CIkExampleRSAKe@
CONST	SEGMENT
??_C@_0DA@LGCPAHCO@d2i_AutoPrivateKey?$CIkExampleRSAKe@ DB 'd2i_AutoPriva'
	DB	'teKey(kExampleRSAKeyPKCS8) failed', 0aH, 00H ; `string'
CONST	ENDS
;	COMDAT ??_C@_0CO@LAKIGHEM@d2i_AutoPrivateKey?$CIkExampleRSAKe@
CONST	SEGMENT
??_C@_0CO@LAKIGHEM@d2i_AutoPrivateKey?$CIkExampleRSAKe@ DB 'd2i_AutoPriva'
	DB	'teKey(kExampleRSAKeyDER) failed', 0aH, 00H	; `string'
CONST	ENDS
;	COMDAT ??_C@_0BN@FHDGLKFH@EVP_DigestVerifyInit?5failed?6?$AA@
CONST	SEGMENT
??_C@_0BN@FHDGLKFH@EVP_DigestVerifyInit?5failed?6?$AA@ DB 'EVP_DigestVeri'
	DB	'fyInit failed', 0aH, 00H			; `string'
CONST	ENDS
;	COMDAT ??_C@_0BL@IBNLHNPN@EVP_DigestSignInit?5failed?6?$AA@
CONST	SEGMENT
??_C@_0BL@IBNLHNPN@EVP_DigestSignInit?5failed?6?$AA@ DB 'EVP_DigestSignIn'
	DB	'it failed', 0aH, 00H			; `string'
CONST	ENDS
;	COMDAT ??_C@_0BJ@CCLLHHD@Imported?5invalid?5EC?5key?6?$AA@
CONST	SEGMENT
??_C@_0BJ@CCLLHHD@Imported?5invalid?5EC?5key?6?$AA@ DB 'Imported invalid '
	DB	'EC key', 0aH, 00H				; `string'
CONST	ENDS
;	COMDAT ??_C@_0BF@DJEMHPKD@Failed?5to?5parse?5key?6?$AA@
CONST	SEGMENT
??_C@_0BF@DJEMHPKD@Failed?5to?5parse?5key?6?$AA@ DB 'Failed to parse key', 0aH
	DB	00H						; `string'
CONST	ENDS
;	COMDAT ??_C@_0BO@BIHHCPMN@Did?5not?5decode?5expected?5type?6?$AA@
CONST	SEGMENT
??_C@_0BO@BIHHCPMN@Did?5not?5decode?5expected?5type?6?$AA@ DB 'Did not de'
	DB	'code expected type', 0aH, 00H		; `string'
CONST	ENDS
;	COMDAT ??_C@_0BL@MLDJILLA@d2i_AutoPrivateKey?5failed?6?$AA@
CONST	SEGMENT
??_C@_0BL@MLDJILLA@d2i_AutoPrivateKey?5failed?6?$AA@ DB 'd2i_AutoPrivateK'
	DB	'ey failed', 0aH, 00H			; `string'
CONST	ENDS
;	COMDAT ??_C@_0BO@FOPGGLHI@?4?2crypto?2evp?2evp_extra_test?4c?$AA@
CONST	SEGMENT
??_C@_0BO@FOPGGLHI@?4?2crypto?2evp?2evp_extra_test?4c?$AA@ DB '.\crypto\e'
	DB	'vp\evp_extra_test.c', 00H			; `string'
CONST	ENDS
;	COMDAT ??_C@_0BC@DNOAMPI@sig_len?5mismatch?6?$AA@
CONST	SEGMENT
??_C@_0BC@DNOAMPI@sig_len?5mismatch?6?$AA@ DB 'sig_len mismatch', 0aH, 00H ; `string'
CONST	ENDS
; Function compile flags: /Ogtpy
;	COMDAT _main
_TEXT	SEGMENT
_main	PROC						; COMDAT
; File c:\workpace\openssl\openssl-1.0.2h\crypto\evp\evp_extra_test.c
; Line 437
	push	OFFSET _CRYPTO_dbg_get_options
	push	OFFSET _CRYPTO_dbg_set_options
	push	OFFSET _CRYPTO_dbg_free
	push	OFFSET _CRYPTO_dbg_realloc
	push	OFFSET _CRYPTO_dbg_malloc
	call	_CRYPTO_set_mem_debug_functions
; Line 438
	push	3
	call	_CRYPTO_set_mem_debug_options
; Line 439
	push	1
	call	_CRYPTO_mem_ctrl
	add	esp, 28					; 0000001cH
; Line 441
	call	_ERR_load_crypto_strings
; Line 443
	call	_OpenSSL_add_all_ciphers
; Line 444
	call	_OpenSSL_add_all_digests
; Line 446
	call	_test_EVP_DigestSignInit
	test	eax, eax
	jne	SHORT $LN5@main
; Line 447
	push	OFFSET ??_C@_0BL@IBNLHNPN@EVP_DigestSignInit?5failed?6?$AA@
	push	2
	call	DWORD PTR __imp____acrt_iob_func
	add	esp, 4
	push	eax
	call	_fprintf
	add	esp, 8
; Line 448
	mov	eax, 1
; Line 489
	ret	0
$LN5@main:
; Line 451
	call	_test_EVP_DigestVerifyInit
	test	eax, eax
	jne	SHORT $LN6@main
; Line 452
	push	OFFSET ??_C@_0BN@FHDGLKFH@EVP_DigestVerifyInit?5failed?6?$AA@
	push	2
	call	DWORD PTR __imp____acrt_iob_func
	add	esp, 4
	push	eax
	call	_fprintf
	add	esp, 8
; Line 453
	mov	eax, 1
; Line 489
	ret	0
$LN6@main:
; Line 456
	push	6
	push	608					; 00000260H
	push	OFFSET _kExampleRSAKeyDER
	call	_test_d2i_AutoPrivateKey
	add	esp, 12					; 0000000cH
	test	eax, eax
	jne	SHORT $LN7@main
; Line 458
	push	OFFSET ??_C@_0CO@LAKIGHEM@d2i_AutoPrivateKey?$CIkExampleRSAKe@
	push	2
	call	DWORD PTR __imp____acrt_iob_func
	add	esp, 4
	push	eax
	call	_fprintf
	add	esp, 8
; Line 459
	mov	eax, 1
; Line 489
	ret	0
$LN7@main:
; Line 462
	push	6
	push	634					; 0000027aH
	push	OFFSET _kExampleRSAKeyPKCS8
	call	_test_d2i_AutoPrivateKey
	add	esp, 12					; 0000000cH
	test	eax, eax
	jne	SHORT $LN8@main
; Line 464
	push	OFFSET ??_C@_0DA@LGCPAHCO@d2i_AutoPrivateKey?$CIkExampleRSAKe@
	push	2
	call	DWORD PTR __imp____acrt_iob_func
	add	esp, 4
	push	eax
	call	_fprintf
	add	esp, 8
; Line 465
	mov	eax, 1
; Line 489
	ret	0
$LN8@main:
; Line 469
	push	408					; 00000198H
	push	121					; 00000079H
	push	OFFSET _kExampleECKeyDER
	call	_test_d2i_AutoPrivateKey
	add	esp, 12					; 0000000cH
	test	eax, eax
	jne	SHORT $LN9@main
; Line 471
	push	OFFSET ??_C@_0CN@OKNBDKMM@d2i_AutoPrivateKey?$CIkExampleECKey@
	push	2
	call	DWORD PTR __imp____acrt_iob_func
	add	esp, 4
	push	eax
	call	_fprintf
	add	esp, 8
; Line 472
	mov	eax, 1
; Line 489
	ret	0
$LN9@main:
; Line 475
	call	_test_EVP_PKCS82PKEY
	test	eax, eax
	jne	SHORT $LN10@main
; Line 476
	push	OFFSET ??_C@_0BM@NGKCLFAG@test_EVP_PKCS82PKEY?5failed?6?$AA@
	push	2
	call	DWORD PTR __imp____acrt_iob_func
	add	esp, 4
	push	eax
	call	_fprintf
	add	esp, 8
; Line 477
	mov	eax, 1
; Line 489
	ret	0
$LN10@main:
; Line 481
	call	_EVP_cleanup
; Line 482
	call	_CRYPTO_cleanup_all_ex_data
; Line 483
	push	0
	call	_ERR_remove_thread_state
; Line 484
	call	_ERR_free_strings
; Line 485
	push	2
	call	DWORD PTR __imp____acrt_iob_func
	push	eax
	call	_CRYPTO_mem_leaks_fp
; Line 487
	push	OFFSET ??_C@_05GKINPPHN@PASS?6?$AA@
	call	_printf
	add	esp, 16					; 00000010H
; Line 488
	xor	eax, eax
; Line 489
	ret	0
_main	ENDP
_TEXT	ENDS
; Function compile flags: /Ogtpy
;	COMDAT _test_EVP_PKCS82PKEY
_TEXT	SEGMENT
_derp$ = -4						; size = 4
_test_EVP_PKCS82PKEY PROC				; COMDAT
; File c:\workpace\openssl\openssl-1.0.2h\crypto\evp\evp_extra_test.c
; Line 401
	mov	eax, 4
	call	__chkstk
	push	ebx
	push	esi
	push	edi
; Line 407
	push	104					; 00000068H
	lea	eax, DWORD PTR _derp$[esp+20]
	mov	DWORD PTR _derp$[esp+20], OFFSET _kExampleBadECKeyDER
	push	eax
	xor	esi, esi
	xor	ebx, ebx
	push	esi
	call	_d2i_PKCS8_PRIV_KEY_INFO
	mov	edi, eax
	add	esp, 12					; 0000000cH
; Line 409
	test	edi, edi
	je	SHORT $LN3@test_EVP_P
	cmp	DWORD PTR _derp$[esp+16], OFFSET _kExampleBadECKeyDER+104
	jne	SHORT $LN3@test_EVP_P
; Line 414
	push	edi
	call	_EVP_PKCS82PKEY
	mov	esi, eax
	add	esp, 4
; Line 415
	test	esi, esi
	je	SHORT $LN4@test_EVP_P
; Line 416
	push	OFFSET ??_C@_0BJ@CCLLHHD@Imported?5invalid?5EC?5key?6?$AA@
; Line 417
	jmp	SHORT $LN9@test_EVP_P
$LN4@test_EVP_P:
; Line 420
	mov	ebx, 1
	jmp	SHORT $done$11
$LN3@test_EVP_P:
; Line 410
	push	OFFSET ??_C@_0BF@DJEMHPKD@Failed?5to?5parse?5key?6?$AA@
$LN9@test_EVP_P:
	push	2
	call	DWORD PTR __imp____acrt_iob_func
	add	esp, 4
	push	eax
	call	_fprintf
	add	esp, 8
$done$11:
; Line 423
	test	edi, edi
	je	SHORT $LN5@test_EVP_P
; Line 424
	push	edi
	call	_PKCS8_PRIV_KEY_INFO_free
	add	esp, 4
$LN5@test_EVP_P:
; Line 427
	test	esi, esi
	je	SHORT $LN8@test_EVP_P
; Line 428
	push	esi
	call	_EVP_PKEY_free
	add	esp, 4
$LN8@test_EVP_P:
; Line 431
	pop	edi
	pop	esi
	mov	eax, ebx
	pop	ebx
; Line 432
	pop	ecx
	ret	0
_test_EVP_PKCS82PKEY ENDP
_TEXT	ENDS
; Function compile flags: /Ogtpy
;	COMDAT _test_d2i_AutoPrivateKey
_TEXT	SEGMENT
_p$ = 8							; size = 4
_input$ = 8						; size = 4
_input_len$ = 12					; size = 4
_expected_id$ = 16					; size = 4
_test_d2i_AutoPrivateKey PROC				; COMDAT
; File c:\workpace\openssl\openssl-1.0.2h\crypto\evp\evp_extra_test.c
; Line 368
	push	ebx
	push	ebp
; Line 374
	mov	ebp, DWORD PTR _input_len$[esp+4]
	lea	eax, DWORD PTR _p$[esp+4]
	push	esi
	mov	esi, DWORD PTR _input$[esp+8]
	xor	ebx, ebx
	push	edi
	push	ebp
	push	eax
	push	ebx
	mov	DWORD PTR _p$[esp+24], esi
	call	_d2i_AutoPrivateKey
	mov	edi, eax
	add	esp, 12					; 0000000cH
; Line 375
	test	edi, edi
	je	SHORT $LN3@test_d2i_A
	lea	eax, DWORD PTR [esi+ebp]
	cmp	DWORD PTR _p$[esp+12], eax
	jne	SHORT $LN3@test_d2i_A
; Line 380
	push	edi
	call	_EVP_PKEY_id
	add	esp, 4
	cmp	eax, DWORD PTR _expected_id$[esp+12]
	je	SHORT $LN4@test_d2i_A
; Line 381
	push	OFFSET ??_C@_0BO@BIHHCPMN@Did?5not?5decode?5expected?5type?6?$AA@
; Line 382
	jmp	SHORT $LN10@test_d2i_A
$LN4@test_d2i_A:
; Line 385
	mov	ebx, 1
	jmp	SHORT $LN5@test_d2i_A
$LN3@test_d2i_A:
; Line 376
	push	OFFSET ??_C@_0BL@MLDJILLA@d2i_AutoPrivateKey?5failed?6?$AA@
$LN10@test_d2i_A:
	mov	esi, DWORD PTR __imp____acrt_iob_func
	push	2
	call	esi
	add	esp, 4
	push	eax
	call	_fprintf
	add	esp, 8
; Line 389
	push	2
	call	esi
	push	eax
	call	_ERR_print_errors_fp
	add	esp, 8
$LN5@test_d2i_A:
; Line 392
	test	edi, edi
	je	SHORT $LN9@test_d2i_A
; Line 393
	push	edi
	call	_EVP_PKEY_free
	add	esp, 4
$LN9@test_d2i_A:
; Line 395
	pop	edi
	pop	esi
	pop	ebp
	mov	eax, ebx
	pop	ebx
; Line 396
	ret	0
_test_d2i_AutoPrivateKey ENDP
_TEXT	ENDS
; Function compile flags: /Ogtpy
;	COMDAT _test_EVP_DigestVerifyInit
_TEXT	SEGMENT
_md_ctx$ = -24						; size = 24
_test_EVP_DigestVerifyInit PROC				; COMDAT
; File c:\workpace\openssl\openssl-1.0.2h\crypto\evp\evp_extra_test.c
; Line 337
	mov	eax, 24					; 00000018H
	call	__chkstk
	push	esi
	push	edi
; Line 342
	lea	eax, DWORD PTR _md_ctx$[esp+32]
	xor	edi, edi
	push	eax
	call	_EVP_MD_CTX_init
	add	esp, 4
; Line 344
	call	_load_example_rsa_key
	mov	esi, eax
; Line 347
	test	esi, esi
	je	SHORT $LN7@test_EVP_D
	push	esi
	push	edi
	call	_EVP_sha256
	push	eax
	lea	eax, DWORD PTR _md_ctx$[esp+44]
	push	edi
	push	eax
	call	_EVP_DigestVerifyInit
	add	esp, 20					; 00000014H
	test	eax, eax
	je	SHORT $LN7@test_EVP_D
	push	4
	lea	eax, DWORD PTR _md_ctx$[esp+36]
	push	OFFSET _kMsg
	push	eax
	call	_EVP_DigestUpdate
	add	esp, 12					; 0000000cH
	test	eax, eax
	je	SHORT $LN7@test_EVP_D
	push	128					; 00000080H
	lea	eax, DWORD PTR _md_ctx$[esp+36]
	push	OFFSET _kSignature
	push	eax
	call	_EVP_DigestVerifyFinal
	add	esp, 12					; 0000000cH
	test	eax, eax
	je	SHORT $LN7@test_EVP_D
; Line 351
	mov	edi, 1
; Line 354
	jmp	SHORT $LN4@test_EVP_D
$LN7@test_EVP_D:
; Line 355
	push	2
	call	DWORD PTR __imp____acrt_iob_func
	push	eax
	call	_ERR_print_errors_fp
	add	esp, 8
$LN4@test_EVP_D:
; Line 358
	lea	eax, DWORD PTR _md_ctx$[esp+32]
	push	eax
	call	_EVP_MD_CTX_cleanup
	add	esp, 4
; Line 359
	test	esi, esi
	je	SHORT $LN8@test_EVP_D
; Line 360
	push	esi
	call	_EVP_PKEY_free
	add	esp, 4
$LN8@test_EVP_D:
; Line 363
	mov	eax, edi
	pop	edi
	pop	esi
; Line 364
	add	esp, 24					; 00000018H
	ret	0
_test_EVP_DigestVerifyInit ENDP
_TEXT	ENDS
; Function compile flags: /Ogtpy
;	COMDAT _test_EVP_DigestSignInit
_TEXT	SEGMENT
_sig_len$ = -52						; size = 4
_md_ctx$ = -48						; size = 24
_md_ctx_verify$ = -24					; size = 24
_test_EVP_DigestSignInit PROC				; COMDAT
; File c:\workpace\openssl\openssl-1.0.2h\crypto\evp\evp_extra_test.c
; Line 279
	mov	eax, 52					; 00000034H
	call	__chkstk
	push	ebx
	push	esi
; Line 286
	lea	eax, DWORD PTR _md_ctx$[esp+60]
	xor	ebx, ebx
	push	edi
	push	eax
	xor	esi, esi
	mov	DWORD PTR _sig_len$[esp+68], ebx
	call	_EVP_MD_CTX_init
; Line 287
	lea	eax, DWORD PTR _md_ctx_verify$[esp+68]
	push	eax
	call	_EVP_MD_CTX_init
	add	esp, 8
; Line 289
	call	_load_example_rsa_key
	mov	edi, eax
; Line 291
	test	edi, edi
	je	SHORT $LN14@test_EVP_D
	push	edi
	push	esi
	call	_EVP_sha256
	push	eax
	lea	eax, DWORD PTR _md_ctx$[esp+76]
	push	esi
	push	eax
	call	_EVP_DigestSignInit
	add	esp, 20					; 00000014H
	test	eax, eax
	je	SHORT $LN14@test_EVP_D
	push	4
	lea	eax, DWORD PTR _md_ctx$[esp+68]
	push	OFFSET _kMsg
	push	eax
	call	_EVP_DigestUpdate
	add	esp, 12					; 0000000cH
	test	eax, eax
	je	SHORT $LN14@test_EVP_D
; Line 296
	lea	eax, DWORD PTR _sig_len$[esp+64]
	push	eax
	lea	eax, DWORD PTR _md_ctx$[esp+68]
	push	esi
	push	eax
	call	_EVP_DigestSignFinal
	add	esp, 12					; 0000000cH
	test	eax, eax
	je	SHORT $LN14@test_EVP_D
; Line 300
	push	edi
	call	_EVP_PKEY_size
	mov	ecx, DWORD PTR _sig_len$[esp+68]
	add	esp, 4
	cmp	ecx, eax
	je	SHORT $LN5@test_EVP_D
; Line 301
	push	OFFSET ??_C@_0BC@DNOAMPI@sig_len?5mismatch?6?$AA@
	push	2
	call	DWORD PTR __imp____acrt_iob_func
	add	esp, 4
	push	eax
	call	_fprintf
	add	esp, 8
$LN14@test_EVP_D:
; Line 321
	push	2
	call	DWORD PTR __imp____acrt_iob_func
	push	eax
	call	_ERR_print_errors_fp
	add	esp, 8
$LN10@test_EVP_D:
; Line 324
	lea	eax, DWORD PTR _md_ctx$[esp+64]
	push	eax
	call	_EVP_MD_CTX_cleanup
; Line 325
	lea	eax, DWORD PTR _md_ctx_verify$[esp+68]
	push	eax
	call	_EVP_MD_CTX_cleanup
	add	esp, 8
; Line 326
	test	edi, edi
	je	SHORT $LN11@test_EVP_D
; Line 327
	push	edi
	call	_EVP_PKEY_free
	add	esp, 4
$LN11@test_EVP_D:
; Line 329
	test	esi, esi
	je	SHORT $LN15@test_EVP_D
; Line 330
	push	esi
	call	_CRYPTO_free
	add	esp, 4
$LN15@test_EVP_D:
; Line 333
	pop	edi
	pop	esi
	mov	eax, ebx
	pop	ebx
; Line 334
	add	esp, 52					; 00000034H
	ret	0
$LN5@test_EVP_D:
; Line 305
	push	305					; 00000131H
	push	OFFSET ??_C@_0BO@FOPGGLHI@?4?2crypto?2evp?2evp_extra_test?4c?$AA@
	push	ecx
	call	_CRYPTO_malloc
	mov	esi, eax
	add	esp, 12					; 0000000cH
; Line 306
	test	esi, esi
	je	SHORT $LN14@test_EVP_D
	lea	eax, DWORD PTR _sig_len$[esp+64]
	push	eax
	lea	eax, DWORD PTR _md_ctx$[esp+68]
	push	esi
	push	eax
	call	_EVP_DigestSignFinal
	add	esp, 12					; 0000000cH
	test	eax, eax
	je	SHORT $LN14@test_EVP_D
; Line 313
	push	edi
	push	0
	call	_EVP_sha256
	push	eax
	lea	eax, DWORD PTR _md_ctx_verify$[esp+76]
	push	0
	push	eax
	call	_EVP_DigestVerifyInit
	add	esp, 20					; 00000014H
	test	eax, eax
	je	$LN14@test_EVP_D
	push	4
	lea	eax, DWORD PTR _md_ctx_verify$[esp+68]
	push	OFFSET _kMsg
	push	eax
	call	_EVP_DigestUpdate
	add	esp, 12					; 0000000cH
	test	eax, eax
	je	$LN14@test_EVP_D
	push	DWORD PTR _sig_len$[esp+64]
	lea	eax, DWORD PTR _md_ctx_verify$[esp+68]
	push	esi
	push	eax
	call	_EVP_DigestVerifyFinal
	add	esp, 12					; 0000000cH
	test	eax, eax
	je	$LN14@test_EVP_D
; Line 317
	mov	ebx, 1
; Line 320
	jmp	$LN10@test_EVP_D
_test_EVP_DigestSignInit ENDP
_TEXT	ENDS
; Function compile flags: /Ogtpy
;	COMDAT _load_example_rsa_key
_TEXT	SEGMENT
_rsa$ = -8						; size = 4
_derp$ = -4						; size = 4
_load_example_rsa_key PROC				; COMDAT
; File c:\workpace\openssl\openssl-1.0.2h\crypto\evp\evp_extra_test.c
; Line 249
	mov	eax, 8
	call	__chkstk
	push	edi
; Line 255
	push	608					; 00000260H
	lea	eax, DWORD PTR _derp$[esp+16]
	mov	DWORD PTR _derp$[esp+16], OFFSET _kExampleRSAKeyDER
	push	eax
	lea	eax, DWORD PTR _rsa$[esp+20]
	xor	edi, edi
	push	eax
	mov	DWORD PTR _rsa$[esp+24], edi
	call	_d2i_RSAPrivateKey
	add	esp, 12					; 0000000cH
	test	eax, eax
	jne	SHORT $LN2@load_examp
	pop	edi
; Line 276
	add	esp, 8
	ret	0
$LN2@load_examp:
	push	esi
; Line 259
	call	_EVP_PKEY_new
	mov	esi, eax
; Line 260
	test	esi, esi
	je	SHORT $LN5@load_examp
	push	DWORD PTR _rsa$[esp+16]
	push	esi
	call	_EVP_PKEY_set1_RSA
	add	esp, 8
	test	eax, eax
	je	SHORT $out$9
; Line 264
	mov	edi, esi
; Line 268
	jmp	SHORT $LN5@load_examp
$out$9:
; Line 269
	push	esi
	call	_EVP_PKEY_free
	add	esp, 4
$LN5@load_examp:
; Line 271
	mov	ecx, DWORD PTR _rsa$[esp+16]
	pop	esi
	test	ecx, ecx
	je	SHORT $LN6@load_examp
; Line 272
	push	ecx
	call	_RSA_free
	add	esp, 4
$LN6@load_examp:
; Line 275
	mov	eax, edi
	pop	edi
; Line 276
	add	esp, 8
	ret	0
_load_example_rsa_key ENDP
_TEXT	ENDS
; Function compile flags: /Ogtpy
;	COMDAT _printf
_TEXT	SEGMENT
__Format$ = 8						; size = 4
_printf	PROC						; COMDAT
; File c:\program files\windows kits\10\include\10.0.10586.0\ucrt\stdio.h
; Line 950
	push	esi
; Line 954
	mov	esi, DWORD PTR __Format$[esp]
	push	1
	call	DWORD PTR __imp____acrt_iob_func
	add	esp, 4
; Line 639
	lea	ecx, DWORD PTR __Format$[esp+4]
	push	ecx
	push	0
	push	esi
	push	eax
	call	___local_stdio_printf_options
	push	DWORD PTR [eax+4]
	push	DWORD PTR [eax]
	call	DWORD PTR __imp____stdio_common_vfprintf
	add	esp, 24					; 00000018H
	pop	esi
; Line 957
	ret	0
_printf	ENDP
_TEXT	ENDS
; Function compile flags: /Ogtpy
;	COMDAT _fprintf
_TEXT	SEGMENT
__Stream$ = 8						; size = 4
__Format$ = 12						; size = 4
_fprintf PROC						; COMDAT
; File c:\program files\windows kits\10\include\10.0.10586.0\ucrt\stdio.h
; Line 639
	lea	eax, DWORD PTR __Format$[esp]
	push	eax
	push	0
	push	DWORD PTR __Format$[esp+4]
	push	DWORD PTR __Stream$[esp+8]
	call	___local_stdio_printf_options
	push	DWORD PTR [eax+4]
	push	DWORD PTR [eax]
	call	DWORD PTR __imp____stdio_common_vfprintf
	add	esp, 24					; 00000018H
; Line 838
	ret	0
_fprintf ENDP
_TEXT	ENDS
; Function compile flags: /Ogtpy
;	COMDAT __vfprintf_l
_TEXT	SEGMENT
__Stream$ = 8						; size = 4
__Format$ = 12						; size = 4
__Locale$ = 16						; size = 4
__ArgList$ = 20						; size = 4
__vfprintf_l PROC					; COMDAT
; File c:\program files\windows kits\10\include\10.0.10586.0\ucrt\stdio.h
; Line 639
	push	DWORD PTR __ArgList$[esp-4]
	push	DWORD PTR __Locale$[esp]
	push	DWORD PTR __Format$[esp+4]
	push	DWORD PTR __Stream$[esp+8]
	call	___local_stdio_printf_options
	push	DWORD PTR [eax+4]
	push	DWORD PTR [eax]
	call	DWORD PTR __imp____stdio_common_vfprintf
	add	esp, 24					; 00000018H
; Line 640
	ret	0
__vfprintf_l ENDP
_TEXT	ENDS
; Function compile flags: /Ogtpy
;	COMDAT ___local_stdio_printf_options
_TEXT	SEGMENT
___local_stdio_printf_options PROC			; COMDAT
; File c:\program files\windows kits\10\include\10.0.10586.0\ucrt\corecrt_stdio_config.h
; Line 82
	mov	eax, OFFSET ?_OptionsStorage@?1??__local_stdio_printf_options@@9@9 ; `__local_stdio_printf_options'::`2'::_OptionsStorage
; Line 83
	ret	0
___local_stdio_printf_options ENDP
_TEXT	ENDS
END
