; Listing generated by Microsoft (R) Optimizing Compiler Version 19.00.23918.0 

	TITLE	C:\workpace\openssl\openssl-1.0.2h\engines\ccgost\gost_asn1.c
	.686P
	.XMM
	include listing.inc
	.model	flat

INCLUDELIB MSVCRT
INCLUDELIB OLDNAMES

PUBLIC	_GOST_KEY_INFO_it
PUBLIC	_GOST_KEY_AGREEMENT_INFO_it
PUBLIC	_GOST_KEY_TRANSPORT_it
PUBLIC	??_C@_08DKAHCANL@key_info?$AA@			; `string'
PUBLIC	??_C@_0BD@OJEMKMG@key_agreement_info?$AA@	; `string'
PUBLIC	??_C@_0BD@IILJDKID@GOST_KEY_TRANSPORT?$AA@	; `string'
PUBLIC	??_C@_0O@FFCGNLNH@encrypted_key?$AA@		; `string'
PUBLIC	??_C@_04GIOGHOFN@imit?$AA@			; `string'
PUBLIC	??_C@_0O@KBJEJD@GOST_KEY_INFO?$AA@		; `string'
PUBLIC	??_C@_06KDGDAFPH@cipher?$AA@			; `string'
PUBLIC	??_C@_09FDHHLMMM@ephem_key?$AA@			; `string'
PUBLIC	??_C@_06LEHAEDKF@eph_iv?$AA@			; `string'
PUBLIC	??_C@_0BI@EHIBLPAC@GOST_KEY_AGREEMENT_INFO?$AA@	; `string'
PUBLIC	??_C@_0L@GLBAFJOE@key_params?$AA@		; `string'
PUBLIC	??_C@_0M@CGLIMLII@hash_params?$AA@		; `string'
PUBLIC	??_C@_0O@JHALJCKD@cipher_params?$AA@		; `string'
PUBLIC	??_C@_0BA@DCHFLDJI@GOST_KEY_PARAMS?$AA@		; `string'
PUBLIC	??_C@_02DONNAIDC@iv?$AA@			; `string'
PUBLIC	??_C@_0O@GKKMBJJO@enc_param_set?$AA@		; `string'
PUBLIC	??_C@_0BD@CBLIKNIC@GOST_CIPHER_PARAMS?$AA@	; `string'
PUBLIC	??_C@_03HHJLHHGK@gkt?$AA@			; `string'
PUBLIC	??_C@_0CA@ICAJFGCC@GOST_CLIENT_KEY_EXCHANGE_PARAMS?$AA@ ; `string'
EXTRN	_ASN1_OBJECT_it:PROC
EXTRN	_ASN1_OCTET_STRING_it:PROC
EXTRN	_X509_PUBKEY_it:PROC
;	COMDAT ??_C@_0CA@ICAJFGCC@GOST_CLIENT_KEY_EXCHANGE_PARAMS?$AA@
CONST	SEGMENT
??_C@_0CA@ICAJFGCC@GOST_CLIENT_KEY_EXCHANGE_PARAMS?$AA@ DB 'GOST_CLIENT_K'
	DB	'EY_EXCHANGE_PARAMS', 00H			; `string'
CONST	ENDS
;	COMDAT ??_C@_03HHJLHHGK@gkt?$AA@
CONST	SEGMENT
??_C@_03HHJLHHGK@gkt?$AA@ DB 'gkt', 00H			; `string'
CONST	ENDS
;	COMDAT ??_C@_0BD@CBLIKNIC@GOST_CIPHER_PARAMS?$AA@
CONST	SEGMENT
??_C@_0BD@CBLIKNIC@GOST_CIPHER_PARAMS?$AA@ DB 'GOST_CIPHER_PARAMS', 00H ; `string'
CONST	ENDS
;	COMDAT ??_C@_0O@GKKMBJJO@enc_param_set?$AA@
CONST	SEGMENT
??_C@_0O@GKKMBJJO@enc_param_set?$AA@ DB 'enc_param_set', 00H ; `string'
CONST	ENDS
;	COMDAT ??_C@_02DONNAIDC@iv?$AA@
CONST	SEGMENT
??_C@_02DONNAIDC@iv?$AA@ DB 'iv', 00H			; `string'
CONST	ENDS
;	COMDAT ??_C@_0BA@DCHFLDJI@GOST_KEY_PARAMS?$AA@
CONST	SEGMENT
??_C@_0BA@DCHFLDJI@GOST_KEY_PARAMS?$AA@ DB 'GOST_KEY_PARAMS', 00H ; `string'
CONST	ENDS
;	COMDAT ??_C@_0O@JHALJCKD@cipher_params?$AA@
CONST	SEGMENT
??_C@_0O@JHALJCKD@cipher_params?$AA@ DB 'cipher_params', 00H ; `string'
CONST	ENDS
;	COMDAT ??_C@_0M@CGLIMLII@hash_params?$AA@
CONST	SEGMENT
??_C@_0M@CGLIMLII@hash_params?$AA@ DB 'hash_params', 00H ; `string'
CONST	ENDS
;	COMDAT ??_C@_0L@GLBAFJOE@key_params?$AA@
CONST	SEGMENT
??_C@_0L@GLBAFJOE@key_params?$AA@ DB 'key_params', 00H	; `string'
CONST	ENDS
;	COMDAT ??_C@_0BI@EHIBLPAC@GOST_KEY_AGREEMENT_INFO?$AA@
CONST	SEGMENT
??_C@_0BI@EHIBLPAC@GOST_KEY_AGREEMENT_INFO?$AA@ DB 'GOST_KEY_AGREEMENT_IN'
	DB	'FO', 00H					; `string'
CONST	ENDS
;	COMDAT ??_C@_06LEHAEDKF@eph_iv?$AA@
CONST	SEGMENT
??_C@_06LEHAEDKF@eph_iv?$AA@ DB 'eph_iv', 00H		; `string'
CONST	ENDS
;	COMDAT ??_C@_09FDHHLMMM@ephem_key?$AA@
CONST	SEGMENT
??_C@_09FDHHLMMM@ephem_key?$AA@ DB 'ephem_key', 00H	; `string'
CONST	ENDS
;	COMDAT ??_C@_06KDGDAFPH@cipher?$AA@
CONST	SEGMENT
??_C@_06KDGDAFPH@cipher?$AA@ DB 'cipher', 00H		; `string'
CONST	ENDS
;	COMDAT ??_C@_0O@KBJEJD@GOST_KEY_INFO?$AA@
CONST	SEGMENT
??_C@_0O@KBJEJD@GOST_KEY_INFO?$AA@ DB 'GOST_KEY_INFO', 00H ; `string'
CONST	ENDS
;	COMDAT ??_C@_04GIOGHOFN@imit?$AA@
CONST	SEGMENT
??_C@_04GIOGHOFN@imit?$AA@ DB 'imit', 00H		; `string'
CONST	ENDS
;	COMDAT ??_C@_0O@FFCGNLNH@encrypted_key?$AA@
CONST	SEGMENT
??_C@_0O@FFCGNLNH@encrypted_key?$AA@ DB 'encrypted_key', 00H ; `string'
CONST	ENDS
;	COMDAT ??_C@_0BD@IILJDKID@GOST_KEY_TRANSPORT?$AA@
CONST	SEGMENT
??_C@_0BD@IILJDKID@GOST_KEY_TRANSPORT?$AA@ DB 'GOST_KEY_TRANSPORT', 00H ; `string'
CONST	ENDS
;	COMDAT ??_C@_0BD@OJEMKMG@key_agreement_info?$AA@
CONST	SEGMENT
??_C@_0BD@OJEMKMG@key_agreement_info?$AA@ DB 'key_agreement_info', 00H ; `string'
CONST	ENDS
;	COMDAT ??_C@_08DKAHCANL@key_info?$AA@
CONST	SEGMENT
??_C@_08DKAHCANL@key_info?$AA@ DB 'key_info', 00H	; `string'
CONST	ENDS
CONST	SEGMENT
_GOST_KEY_TRANSPORT_seq_tt DD 00H
	DD	00H
	DD	00H
	DD	FLAT:??_C@_08DKAHCANL@key_info?$AA@
	DD	FLAT:_GOST_KEY_INFO_it
	DD	088H
	DD	00H
	DD	04H
	DD	FLAT:??_C@_0BD@OJEMKMG@key_agreement_info?$AA@
	DD	FLAT:_GOST_KEY_AGREEMENT_INFO_it
?local_it@?1??GOST_KEY_TRANSPORT_it@@9@9 DB 06H		; `GOST_KEY_TRANSPORT_it'::`2'::local_it
	ORG $+3
	DD	010H
	DD	FLAT:_GOST_KEY_TRANSPORT_seq_tt
	DD	02H
	DD	00H
	DD	08H
	DD	FLAT:??_C@_0BD@IILJDKID@GOST_KEY_TRANSPORT?$AA@
_GOST_KEY_INFO_seq_tt DD 00H
	DD	00H
	DD	00H
	DD	FLAT:??_C@_0O@FFCGNLNH@encrypted_key?$AA@
	DD	FLAT:_ASN1_OCTET_STRING_it
	DD	00H
	DD	00H
	DD	04H
	DD	FLAT:??_C@_04GIOGHOFN@imit?$AA@
	DD	FLAT:_ASN1_OCTET_STRING_it
?local_it@?1??GOST_KEY_INFO_it@@9@9 DB 06H		; `GOST_KEY_INFO_it'::`2'::local_it
	ORG $+3
	DD	010H
	DD	FLAT:_GOST_KEY_INFO_seq_tt
	DD	02H
	DD	00H
	DD	08H
	DD	FLAT:??_C@_0O@KBJEJD@GOST_KEY_INFO?$AA@
_GOST_KEY_AGREEMENT_INFO_seq_tt DD 00H
	DD	00H
	DD	00H
	DD	FLAT:??_C@_06KDGDAFPH@cipher?$AA@
	DD	FLAT:_ASN1_OBJECT_it
	DD	089H
	DD	00H
	DD	04H
	DD	FLAT:??_C@_09FDHHLMMM@ephem_key?$AA@
	DD	FLAT:_X509_PUBKEY_it
	DD	00H
	DD	00H
	DD	08H
	DD	FLAT:??_C@_06LEHAEDKF@eph_iv?$AA@
	DD	FLAT:_ASN1_OCTET_STRING_it
?local_it@?1??GOST_KEY_AGREEMENT_INFO_it@@9@9 DB 06H	; `GOST_KEY_AGREEMENT_INFO_it'::`2'::local_it
	ORG $+3
	DD	010H
	DD	FLAT:_GOST_KEY_AGREEMENT_INFO_seq_tt
	DD	03H
	DD	00H
	DD	0cH
	DD	FLAT:??_C@_0BI@EHIBLPAC@GOST_KEY_AGREEMENT_INFO?$AA@
_GOST_KEY_PARAMS_seq_tt DD 00H
	DD	00H
	DD	00H
	DD	FLAT:??_C@_0L@GLBAFJOE@key_params?$AA@
	DD	FLAT:_ASN1_OBJECT_it
	DD	00H
	DD	00H
	DD	04H
	DD	FLAT:??_C@_0M@CGLIMLII@hash_params?$AA@
	DD	FLAT:_ASN1_OBJECT_it
	DD	01H
	DD	00H
	DD	08H
	DD	FLAT:??_C@_0O@JHALJCKD@cipher_params?$AA@
	DD	FLAT:_ASN1_OBJECT_it
?local_it@?1??GOST_KEY_PARAMS_it@@9@9 DB 06H		; `GOST_KEY_PARAMS_it'::`2'::local_it
	ORG $+3
	DD	010H
	DD	FLAT:_GOST_KEY_PARAMS_seq_tt
	DD	03H
	DD	00H
	DD	0cH
	DD	FLAT:??_C@_0BA@DCHFLDJI@GOST_KEY_PARAMS?$AA@
_GOST_CIPHER_PARAMS_seq_tt DD 00H
	DD	00H
	DD	00H
	DD	FLAT:??_C@_02DONNAIDC@iv?$AA@
	DD	FLAT:_ASN1_OCTET_STRING_it
	DD	00H
	DD	00H
	DD	04H
	DD	FLAT:??_C@_0O@GKKMBJJO@enc_param_set?$AA@
	DD	FLAT:_ASN1_OBJECT_it
?local_it@?1??GOST_CIPHER_PARAMS_it@@9@9 DB 06H		; `GOST_CIPHER_PARAMS_it'::`2'::local_it
	ORG $+3
	DD	010H
	DD	FLAT:_GOST_CIPHER_PARAMS_seq_tt
	DD	02H
	DD	00H
	DD	08H
	DD	FLAT:??_C@_0BD@CBLIKNIC@GOST_CIPHER_PARAMS?$AA@
_GOST_CLIENT_KEY_EXCHANGE_PARAMS_seq_tt DD 00H
	DD	00H
	DD	00H
	DD	FLAT:??_C@_03HHJLHHGK@gkt?$AA@
	DD	FLAT:_GOST_KEY_TRANSPORT_it
?local_it@?1??GOST_CLIENT_KEY_EXCHANGE_PARAMS_it@@9@9 DB 06H ; `GOST_CLIENT_KEY_EXCHANGE_PARAMS_it'::`2'::local_it
	ORG $+3
	DD	010H
	DD	FLAT:_GOST_CLIENT_KEY_EXCHANGE_PARAMS_seq_tt
	DD	01H
	DD	00H
	DD	04H
	DD	FLAT:??_C@_0CA@ICAJFGCC@GOST_CLIENT_KEY_EXCHANGE_PARAMS?$AA@
CONST	ENDS
PUBLIC	_GOST_KEY_INFO_new
PUBLIC	_GOST_KEY_INFO_free
PUBLIC	_d2i_GOST_KEY_INFO
PUBLIC	_i2d_GOST_KEY_INFO
PUBLIC	_GOST_KEY_AGREEMENT_INFO_new
PUBLIC	_GOST_KEY_AGREEMENT_INFO_free
PUBLIC	_d2i_GOST_KEY_AGREEMENT_INFO
PUBLIC	_i2d_GOST_KEY_AGREEMENT_INFO
PUBLIC	_GOST_KEY_TRANSPORT_new
PUBLIC	_GOST_KEY_TRANSPORT_free
PUBLIC	_d2i_GOST_KEY_TRANSPORT
PUBLIC	_i2d_GOST_KEY_TRANSPORT
PUBLIC	_GOST_CLIENT_KEY_EXCHANGE_PARAMS_new
PUBLIC	_GOST_CLIENT_KEY_EXCHANGE_PARAMS_free
PUBLIC	_d2i_GOST_CLIENT_KEY_EXCHANGE_PARAMS
PUBLIC	_i2d_GOST_CLIENT_KEY_EXCHANGE_PARAMS
PUBLIC	_GOST_CLIENT_KEY_EXCHANGE_PARAMS_it
PUBLIC	_GOST_KEY_PARAMS_new
PUBLIC	_GOST_KEY_PARAMS_free
PUBLIC	_d2i_GOST_KEY_PARAMS
PUBLIC	_i2d_GOST_KEY_PARAMS
PUBLIC	_GOST_KEY_PARAMS_it
PUBLIC	_GOST_CIPHER_PARAMS_new
PUBLIC	_GOST_CIPHER_PARAMS_free
PUBLIC	_d2i_GOST_CIPHER_PARAMS
PUBLIC	_i2d_GOST_CIPHER_PARAMS
PUBLIC	_GOST_CIPHER_PARAMS_it
EXTRN	_ASN1_item_new:PROC
EXTRN	_ASN1_item_free:PROC
EXTRN	_ASN1_item_d2i:PROC
EXTRN	_ASN1_item_i2d:PROC
; Function compile flags: /Ogtpy
;	COMDAT _GOST_CIPHER_PARAMS_it
_TEXT	SEGMENT
_GOST_CIPHER_PARAMS_it PROC				; COMDAT
; File c:\workpace\openssl\openssl-1.0.2h\engines\ccgost\gost_asn1.c
; Line 47
	mov	eax, OFFSET ?local_it@?1??GOST_CIPHER_PARAMS_it@@9@9
	ret	0
_GOST_CIPHER_PARAMS_it ENDP
_TEXT	ENDS
; Function compile flags: /Ogtpy
;	COMDAT _i2d_GOST_CIPHER_PARAMS
_TEXT	SEGMENT
_a$ = 8							; size = 4
_out$ = 12						; size = 4
_i2d_GOST_CIPHER_PARAMS PROC				; COMDAT
; File c:\workpace\openssl\openssl-1.0.2h\engines\ccgost\gost_asn1.c
; Line 49
	push	OFFSET ?local_it@?1??GOST_CIPHER_PARAMS_it@@9@9
	push	DWORD PTR _out$[esp]
	push	DWORD PTR _a$[esp+4]
	call	_ASN1_item_i2d
	add	esp, 12					; 0000000cH
	ret	0
_i2d_GOST_CIPHER_PARAMS ENDP
_TEXT	ENDS
; Function compile flags: /Ogtpy
;	COMDAT _d2i_GOST_CIPHER_PARAMS
_TEXT	SEGMENT
_a$ = 8							; size = 4
_in$ = 12						; size = 4
_len$ = 16						; size = 4
_d2i_GOST_CIPHER_PARAMS PROC				; COMDAT
; File c:\workpace\openssl\openssl-1.0.2h\engines\ccgost\gost_asn1.c
; Line 49
	push	OFFSET ?local_it@?1??GOST_CIPHER_PARAMS_it@@9@9
	push	DWORD PTR _len$[esp]
	push	DWORD PTR _in$[esp+4]
	push	DWORD PTR _a$[esp+8]
	call	_ASN1_item_d2i
	add	esp, 16					; 00000010H
	ret	0
_d2i_GOST_CIPHER_PARAMS ENDP
_TEXT	ENDS
; Function compile flags: /Ogtpy
;	COMDAT _GOST_CIPHER_PARAMS_free
_TEXT	SEGMENT
_a$ = 8							; size = 4
_GOST_CIPHER_PARAMS_free PROC				; COMDAT
; File c:\workpace\openssl\openssl-1.0.2h\engines\ccgost\gost_asn1.c
; Line 49
	push	OFFSET ?local_it@?1??GOST_CIPHER_PARAMS_it@@9@9
	push	DWORD PTR _a$[esp]
	call	_ASN1_item_free
	add	esp, 8
	ret	0
_GOST_CIPHER_PARAMS_free ENDP
_TEXT	ENDS
; Function compile flags: /Ogtpy
;	COMDAT _GOST_CIPHER_PARAMS_new
_TEXT	SEGMENT
_GOST_CIPHER_PARAMS_new PROC				; COMDAT
; File c:\workpace\openssl\openssl-1.0.2h\engines\ccgost\gost_asn1.c
; Line 49
	push	OFFSET ?local_it@?1??GOST_CIPHER_PARAMS_it@@9@9
	call	_ASN1_item_new
	add	esp, 4
	ret	0
_GOST_CIPHER_PARAMS_new ENDP
_TEXT	ENDS
; Function compile flags: /Ogtpy
;	COMDAT _GOST_KEY_PARAMS_it
_TEXT	SEGMENT
_GOST_KEY_PARAMS_it PROC				; COMDAT
; File c:\workpace\openssl\openssl-1.0.2h\engines\ccgost\gost_asn1.c
; Line 40
	mov	eax, OFFSET ?local_it@?1??GOST_KEY_PARAMS_it@@9@9
	ret	0
_GOST_KEY_PARAMS_it ENDP
_TEXT	ENDS
; Function compile flags: /Ogtpy
;	COMDAT _i2d_GOST_KEY_PARAMS
_TEXT	SEGMENT
_a$ = 8							; size = 4
_out$ = 12						; size = 4
_i2d_GOST_KEY_PARAMS PROC				; COMDAT
; File c:\workpace\openssl\openssl-1.0.2h\engines\ccgost\gost_asn1.c
; Line 42
	push	OFFSET ?local_it@?1??GOST_KEY_PARAMS_it@@9@9
	push	DWORD PTR _out$[esp]
	push	DWORD PTR _a$[esp+4]
	call	_ASN1_item_i2d
	add	esp, 12					; 0000000cH
	ret	0
_i2d_GOST_KEY_PARAMS ENDP
_TEXT	ENDS
; Function compile flags: /Ogtpy
;	COMDAT _d2i_GOST_KEY_PARAMS
_TEXT	SEGMENT
_a$ = 8							; size = 4
_in$ = 12						; size = 4
_len$ = 16						; size = 4
_d2i_GOST_KEY_PARAMS PROC				; COMDAT
; File c:\workpace\openssl\openssl-1.0.2h\engines\ccgost\gost_asn1.c
; Line 42
	push	OFFSET ?local_it@?1??GOST_KEY_PARAMS_it@@9@9
	push	DWORD PTR _len$[esp]
	push	DWORD PTR _in$[esp+4]
	push	DWORD PTR _a$[esp+8]
	call	_ASN1_item_d2i
	add	esp, 16					; 00000010H
	ret	0
_d2i_GOST_KEY_PARAMS ENDP
_TEXT	ENDS
; Function compile flags: /Ogtpy
;	COMDAT _GOST_KEY_PARAMS_free
_TEXT	SEGMENT
_a$ = 8							; size = 4
_GOST_KEY_PARAMS_free PROC				; COMDAT
; File c:\workpace\openssl\openssl-1.0.2h\engines\ccgost\gost_asn1.c
; Line 42
	push	OFFSET ?local_it@?1??GOST_KEY_PARAMS_it@@9@9
	push	DWORD PTR _a$[esp]
	call	_ASN1_item_free
	add	esp, 8
	ret	0
_GOST_KEY_PARAMS_free ENDP
_TEXT	ENDS
; Function compile flags: /Ogtpy
;	COMDAT _GOST_KEY_PARAMS_new
_TEXT	SEGMENT
_GOST_KEY_PARAMS_new PROC				; COMDAT
; File c:\workpace\openssl\openssl-1.0.2h\engines\ccgost\gost_asn1.c
; Line 42
	push	OFFSET ?local_it@?1??GOST_KEY_PARAMS_it@@9@9
	call	_ASN1_item_new
	add	esp, 4
	ret	0
_GOST_KEY_PARAMS_new ENDP
_TEXT	ENDS
; Function compile flags: /Ogtpy
;	COMDAT _GOST_CLIENT_KEY_EXCHANGE_PARAMS_it
_TEXT	SEGMENT
_GOST_CLIENT_KEY_EXCHANGE_PARAMS_it PROC		; COMDAT
; File c:\workpace\openssl\openssl-1.0.2h\engines\ccgost\gost_asn1.c
; Line 55
	mov	eax, OFFSET ?local_it@?1??GOST_CLIENT_KEY_EXCHANGE_PARAMS_it@@9@9
	ret	0
_GOST_CLIENT_KEY_EXCHANGE_PARAMS_it ENDP
_TEXT	ENDS
; Function compile flags: /Ogtpy
;	COMDAT _i2d_GOST_CLIENT_KEY_EXCHANGE_PARAMS
_TEXT	SEGMENT
_a$ = 8							; size = 4
_out$ = 12						; size = 4
_i2d_GOST_CLIENT_KEY_EXCHANGE_PARAMS PROC		; COMDAT
; File c:\workpace\openssl\openssl-1.0.2h\engines\ccgost\gost_asn1.c
; Line 56
	push	OFFSET ?local_it@?1??GOST_CLIENT_KEY_EXCHANGE_PARAMS_it@@9@9
	push	DWORD PTR _out$[esp]
	push	DWORD PTR _a$[esp+4]
	call	_ASN1_item_i2d
	add	esp, 12					; 0000000cH
	ret	0
_i2d_GOST_CLIENT_KEY_EXCHANGE_PARAMS ENDP
_TEXT	ENDS
; Function compile flags: /Ogtpy
;	COMDAT _d2i_GOST_CLIENT_KEY_EXCHANGE_PARAMS
_TEXT	SEGMENT
_a$ = 8							; size = 4
_in$ = 12						; size = 4
_len$ = 16						; size = 4
_d2i_GOST_CLIENT_KEY_EXCHANGE_PARAMS PROC		; COMDAT
; File c:\workpace\openssl\openssl-1.0.2h\engines\ccgost\gost_asn1.c
; Line 56
	push	OFFSET ?local_it@?1??GOST_CLIENT_KEY_EXCHANGE_PARAMS_it@@9@9
	push	DWORD PTR _len$[esp]
	push	DWORD PTR _in$[esp+4]
	push	DWORD PTR _a$[esp+8]
	call	_ASN1_item_d2i
	add	esp, 16					; 00000010H
	ret	0
_d2i_GOST_CLIENT_KEY_EXCHANGE_PARAMS ENDP
_TEXT	ENDS
; Function compile flags: /Ogtpy
;	COMDAT _GOST_CLIENT_KEY_EXCHANGE_PARAMS_free
_TEXT	SEGMENT
_a$ = 8							; size = 4
_GOST_CLIENT_KEY_EXCHANGE_PARAMS_free PROC		; COMDAT
; File c:\workpace\openssl\openssl-1.0.2h\engines\ccgost\gost_asn1.c
; Line 56
	push	OFFSET ?local_it@?1??GOST_CLIENT_KEY_EXCHANGE_PARAMS_it@@9@9
	push	DWORD PTR _a$[esp]
	call	_ASN1_item_free
	add	esp, 8
	ret	0
_GOST_CLIENT_KEY_EXCHANGE_PARAMS_free ENDP
_TEXT	ENDS
; Function compile flags: /Ogtpy
;	COMDAT _GOST_CLIENT_KEY_EXCHANGE_PARAMS_new
_TEXT	SEGMENT
_GOST_CLIENT_KEY_EXCHANGE_PARAMS_new PROC		; COMDAT
; File c:\workpace\openssl\openssl-1.0.2h\engines\ccgost\gost_asn1.c
; Line 56
	push	OFFSET ?local_it@?1??GOST_CLIENT_KEY_EXCHANGE_PARAMS_it@@9@9
	call	_ASN1_item_new
	add	esp, 4
	ret	0
_GOST_CLIENT_KEY_EXCHANGE_PARAMS_new ENDP
_TEXT	ENDS
; Function compile flags: /Ogtpy
;	COMDAT _GOST_KEY_TRANSPORT_it
_TEXT	SEGMENT
_GOST_KEY_TRANSPORT_it PROC				; COMDAT
; File c:\workpace\openssl\openssl-1.0.2h\engines\ccgost\gost_asn1.c
; Line 17
	mov	eax, OFFSET ?local_it@?1??GOST_KEY_TRANSPORT_it@@9@9
	ret	0
_GOST_KEY_TRANSPORT_it ENDP
_TEXT	ENDS
; Function compile flags: /Ogtpy
;	COMDAT _i2d_GOST_KEY_TRANSPORT
_TEXT	SEGMENT
_a$ = 8							; size = 4
_out$ = 12						; size = 4
_i2d_GOST_KEY_TRANSPORT PROC				; COMDAT
; File c:\workpace\openssl\openssl-1.0.2h\engines\ccgost\gost_asn1.c
; Line 19
	push	OFFSET ?local_it@?1??GOST_KEY_TRANSPORT_it@@9@9
	push	DWORD PTR _out$[esp]
	push	DWORD PTR _a$[esp+4]
	call	_ASN1_item_i2d
	add	esp, 12					; 0000000cH
	ret	0
_i2d_GOST_KEY_TRANSPORT ENDP
_TEXT	ENDS
; Function compile flags: /Ogtpy
;	COMDAT _d2i_GOST_KEY_TRANSPORT
_TEXT	SEGMENT
_a$ = 8							; size = 4
_in$ = 12						; size = 4
_len$ = 16						; size = 4
_d2i_GOST_KEY_TRANSPORT PROC				; COMDAT
; File c:\workpace\openssl\openssl-1.0.2h\engines\ccgost\gost_asn1.c
; Line 19
	push	OFFSET ?local_it@?1??GOST_KEY_TRANSPORT_it@@9@9
	push	DWORD PTR _len$[esp]
	push	DWORD PTR _in$[esp+4]
	push	DWORD PTR _a$[esp+8]
	call	_ASN1_item_d2i
	add	esp, 16					; 00000010H
	ret	0
_d2i_GOST_KEY_TRANSPORT ENDP
_TEXT	ENDS
; Function compile flags: /Ogtpy
;	COMDAT _GOST_KEY_TRANSPORT_free
_TEXT	SEGMENT
_a$ = 8							; size = 4
_GOST_KEY_TRANSPORT_free PROC				; COMDAT
; File c:\workpace\openssl\openssl-1.0.2h\engines\ccgost\gost_asn1.c
; Line 19
	push	OFFSET ?local_it@?1??GOST_KEY_TRANSPORT_it@@9@9
	push	DWORD PTR _a$[esp]
	call	_ASN1_item_free
	add	esp, 8
	ret	0
_GOST_KEY_TRANSPORT_free ENDP
_TEXT	ENDS
; Function compile flags: /Ogtpy
;	COMDAT _GOST_KEY_TRANSPORT_new
_TEXT	SEGMENT
_GOST_KEY_TRANSPORT_new PROC				; COMDAT
; File c:\workpace\openssl\openssl-1.0.2h\engines\ccgost\gost_asn1.c
; Line 19
	push	OFFSET ?local_it@?1??GOST_KEY_TRANSPORT_it@@9@9
	call	_ASN1_item_new
	add	esp, 4
	ret	0
_GOST_KEY_TRANSPORT_new ENDP
_TEXT	ENDS
; Function compile flags: /Ogtpy
;	COMDAT _GOST_KEY_AGREEMENT_INFO_it
_TEXT	SEGMENT
_GOST_KEY_AGREEMENT_INFO_it PROC			; COMDAT
; File c:\workpace\openssl\openssl-1.0.2h\engines\ccgost\gost_asn1.c
; Line 32
	mov	eax, OFFSET ?local_it@?1??GOST_KEY_AGREEMENT_INFO_it@@9@9
	ret	0
_GOST_KEY_AGREEMENT_INFO_it ENDP
_TEXT	ENDS
; Function compile flags: /Ogtpy
;	COMDAT _i2d_GOST_KEY_AGREEMENT_INFO
_TEXT	SEGMENT
_a$ = 8							; size = 4
_out$ = 12						; size = 4
_i2d_GOST_KEY_AGREEMENT_INFO PROC			; COMDAT
; File c:\workpace\openssl\openssl-1.0.2h\engines\ccgost\gost_asn1.c
; Line 34
	push	OFFSET ?local_it@?1??GOST_KEY_AGREEMENT_INFO_it@@9@9
	push	DWORD PTR _out$[esp]
	push	DWORD PTR _a$[esp+4]
	call	_ASN1_item_i2d
	add	esp, 12					; 0000000cH
	ret	0
_i2d_GOST_KEY_AGREEMENT_INFO ENDP
_TEXT	ENDS
; Function compile flags: /Ogtpy
;	COMDAT _d2i_GOST_KEY_AGREEMENT_INFO
_TEXT	SEGMENT
_a$ = 8							; size = 4
_in$ = 12						; size = 4
_len$ = 16						; size = 4
_d2i_GOST_KEY_AGREEMENT_INFO PROC			; COMDAT
; File c:\workpace\openssl\openssl-1.0.2h\engines\ccgost\gost_asn1.c
; Line 34
	push	OFFSET ?local_it@?1??GOST_KEY_AGREEMENT_INFO_it@@9@9
	push	DWORD PTR _len$[esp]
	push	DWORD PTR _in$[esp+4]
	push	DWORD PTR _a$[esp+8]
	call	_ASN1_item_d2i
	add	esp, 16					; 00000010H
	ret	0
_d2i_GOST_KEY_AGREEMENT_INFO ENDP
_TEXT	ENDS
; Function compile flags: /Ogtpy
;	COMDAT _GOST_KEY_AGREEMENT_INFO_free
_TEXT	SEGMENT
_a$ = 8							; size = 4
_GOST_KEY_AGREEMENT_INFO_free PROC			; COMDAT
; File c:\workpace\openssl\openssl-1.0.2h\engines\ccgost\gost_asn1.c
; Line 34
	push	OFFSET ?local_it@?1??GOST_KEY_AGREEMENT_INFO_it@@9@9
	push	DWORD PTR _a$[esp]
	call	_ASN1_item_free
	add	esp, 8
	ret	0
_GOST_KEY_AGREEMENT_INFO_free ENDP
_TEXT	ENDS
; Function compile flags: /Ogtpy
;	COMDAT _GOST_KEY_AGREEMENT_INFO_new
_TEXT	SEGMENT
_GOST_KEY_AGREEMENT_INFO_new PROC			; COMDAT
; File c:\workpace\openssl\openssl-1.0.2h\engines\ccgost\gost_asn1.c
; Line 34
	push	OFFSET ?local_it@?1??GOST_KEY_AGREEMENT_INFO_it@@9@9
	call	_ASN1_item_new
	add	esp, 4
	ret	0
_GOST_KEY_AGREEMENT_INFO_new ENDP
_TEXT	ENDS
; Function compile flags: /Ogtpy
;	COMDAT _GOST_KEY_INFO_it
_TEXT	SEGMENT
_GOST_KEY_INFO_it PROC					; COMDAT
; File c:\workpace\openssl\openssl-1.0.2h\engines\ccgost\gost_asn1.c
; Line 24
	mov	eax, OFFSET ?local_it@?1??GOST_KEY_INFO_it@@9@9
	ret	0
_GOST_KEY_INFO_it ENDP
_TEXT	ENDS
; Function compile flags: /Ogtpy
;	COMDAT _i2d_GOST_KEY_INFO
_TEXT	SEGMENT
_a$ = 8							; size = 4
_out$ = 12						; size = 4
_i2d_GOST_KEY_INFO PROC					; COMDAT
; File c:\workpace\openssl\openssl-1.0.2h\engines\ccgost\gost_asn1.c
; Line 26
	push	OFFSET ?local_it@?1??GOST_KEY_INFO_it@@9@9
	push	DWORD PTR _out$[esp]
	push	DWORD PTR _a$[esp+4]
	call	_ASN1_item_i2d
	add	esp, 12					; 0000000cH
	ret	0
_i2d_GOST_KEY_INFO ENDP
_TEXT	ENDS
; Function compile flags: /Ogtpy
;	COMDAT _d2i_GOST_KEY_INFO
_TEXT	SEGMENT
_a$ = 8							; size = 4
_in$ = 12						; size = 4
_len$ = 16						; size = 4
_d2i_GOST_KEY_INFO PROC					; COMDAT
; File c:\workpace\openssl\openssl-1.0.2h\engines\ccgost\gost_asn1.c
; Line 26
	push	OFFSET ?local_it@?1??GOST_KEY_INFO_it@@9@9
	push	DWORD PTR _len$[esp]
	push	DWORD PTR _in$[esp+4]
	push	DWORD PTR _a$[esp+8]
	call	_ASN1_item_d2i
	add	esp, 16					; 00000010H
	ret	0
_d2i_GOST_KEY_INFO ENDP
_TEXT	ENDS
; Function compile flags: /Ogtpy
;	COMDAT _GOST_KEY_INFO_free
_TEXT	SEGMENT
_a$ = 8							; size = 4
_GOST_KEY_INFO_free PROC				; COMDAT
; File c:\workpace\openssl\openssl-1.0.2h\engines\ccgost\gost_asn1.c
; Line 26
	push	OFFSET ?local_it@?1??GOST_KEY_INFO_it@@9@9
	push	DWORD PTR _a$[esp]
	call	_ASN1_item_free
	add	esp, 8
	ret	0
_GOST_KEY_INFO_free ENDP
_TEXT	ENDS
; Function compile flags: /Ogtpy
;	COMDAT _GOST_KEY_INFO_new
_TEXT	SEGMENT
_GOST_KEY_INFO_new PROC					; COMDAT
; File c:\workpace\openssl\openssl-1.0.2h\engines\ccgost\gost_asn1.c
; Line 26
	push	OFFSET ?local_it@?1??GOST_KEY_INFO_it@@9@9
	call	_ASN1_item_new
	add	esp, 4
	ret	0
_GOST_KEY_INFO_new ENDP
_TEXT	ENDS
END
