; Listing generated by Microsoft (R) Optimizing Compiler Version 19.00.23918.0 

	TITLE	C:\workpace\openssl\openssl-1.0.2h\apps\ocsp.c
	.686P
	.XMM
	include listing.inc
	.model	flat

INCLUDELIB MSVCRT
INCLUDELIB OLDNAMES

PUBLIC	_process_responder
PUBLIC	_ocsp_main
PUBLIC	??_C@_01KMDKNFGN@?1?$AA@			; `string'
PUBLIC	??_C@_04HKKABCEL@?9out?$AA@			; `string'
PUBLIC	??_C@_08MDOIANFM@?9timeout?$AA@			; `string'
PUBLIC	??_C@_0BK@GCHABJGB@Illegal?5timeout?5value?5?$CFs?6?$AA@ ; `string'
PUBLIC	??_C@_04MCFACLGM@?9url?$AA@			; `string'
PUBLIC	??_C@_0BD@CCODGPPI@Error?5parsing?5URL?6?$AA@	; `string'
PUBLIC	??_C@_05CCOMPJJG@?9host?$AA@			; `string'
PUBLIC	??_C@_05HDLOEPOC@?9port?$AA@			; `string'
PUBLIC	??_C@_07FLMNOHGM@?9header?$AA@			; `string'
PUBLIC	??_C@_0M@FIHFBLJJ@?9ignore_err?$AA@		; `string'
PUBLIC	??_C@_09JLKGPCDL@?9noverify?$AA@		; `string'
PUBLIC	??_C@_06GMIHJMMA@?9nonce?$AA@			; `string'
PUBLIC	??_C@_09EOFPIKIL@?9no_nonce?$AA@		; `string'
PUBLIC	??_C@_0P@KAEKAEAF@?9resp_no_certs?$AA@		; `string'
PUBLIC	??_C@_0N@HMEDOOHD@?9resp_key_id?$AA@		; `string'
PUBLIC	??_C@_09KHEPGJPB@?9no_certs?$AA@		; `string'
PUBLIC	??_C@_0BF@DDJBKKP@?9no_signature_verify?$AA@	; `string'
PUBLIC	??_C@_0BA@FLGPKOOE@?9no_cert_verify?$AA@	; `string'
PUBLIC	??_C@_09PGOBAJAO@?9no_chain?$AA@		; `string'
PUBLIC	??_C@_0BA@JNFNNOHM@?9no_cert_checks?$AA@	; `string'
PUBLIC	??_C@_0N@FHCMCJD@?9no_explicit?$AA@		; `string'
PUBLIC	??_C@_0N@PJGFECGE@?9trust_other?$AA@		; `string'
PUBLIC	??_C@_0L@JJPDMLCK@?9no_intern?$AA@		; `string'
PUBLIC	??_C@_07FPKNAFBC@?9badsig?$AA@			; `string'
PUBLIC	??_C@_05OEBEIMJA@?9text?$AA@			; `string'
PUBLIC	??_C@_09EGFEPPPM@?9req_text?$AA@		; `string'
PUBLIC	??_C@_0L@BPEMCFND@?9resp_text?$AA@		; `string'
PUBLIC	??_C@_06LEDKFNFF@?9reqin?$AA@			; `string'
PUBLIC	??_C@_07LCFFIEPP@?9respin?$AA@			; `string'
PUBLIC	??_C@_07KJCLPKOH@?9signer?$AA@			; `string'
PUBLIC	??_C@_07HFLEMFJH@?9VAfile?$AA@			; `string'
PUBLIC	??_C@_0M@DIAPAJKH@?9sign_other?$AA@		; `string'
PUBLIC	??_C@_0O@GEAKCPGK@?9verify_other?$AA@		; `string'
PUBLIC	??_C@_07EAFCHGPO@?9CAfile?$AA@			; `string'
PUBLIC	??_C@_07MNNNLALG@?9CApath?$AA@			; `string'
PUBLIC	??_C@_0BB@EOGPDMHI@?9validity_period?$AA@	; `string'
PUBLIC	??_C@_0BM@FKODFKGC@Illegal?5validity?5period?5?$CFs?6?$AA@ ; `string'
PUBLIC	??_C@_0M@KGPJPCMD@?9status_age?$AA@		; `string'
PUBLIC	??_C@_0BJ@ODLCHJHI@Illegal?5validity?5age?5?$CFs?6?$AA@ ; `string'
PUBLIC	??_C@_08DJIMFMFI@?9signkey?$AA@			; `string'
PUBLIC	??_C@_07GFPODAJJ@?9reqout?$AA@			; `string'
PUBLIC	??_C@_08FDPLBFLG@?9respout?$AA@			; `string'
PUBLIC	??_C@_05HBJLBJDO@?9path?$AA@			; `string'
PUBLIC	??_C@_07NKLAPJEG@?9issuer?$AA@			; `string'
PUBLIC	??_C@_0BD@NHPOFJGA@issuer?5certificate?$AA@	; `string'
PUBLIC	??_C@_05DLEDECNE@?9cert?$AA@			; `string'
PUBLIC	??_C@_0M@LLNFCECG@certificate?$AA@		; `string'
PUBLIC	??_C@_07DIHGINNE@?9serial?$AA@			; `string'
PUBLIC	??_C@_06NILOHFAC@?9index?$AA@			; `string'
PUBLIC	??_C@_03BHFNBKNN@?9CA?$AA@			; `string'
PUBLIC	??_C@_05KGDJBIMA@?9nmin?$AA@			; `string'
PUBLIC	??_C@_0BK@GPEKJOIP@Illegal?5update?5period?5?$CFs?6?$AA@ ; `string'
PUBLIC	??_C@_09OFNMGMGB@?9nrequest?$AA@		; `string'
PUBLIC	??_C@_0BJ@JHIGBDKO@Illegal?5accept?5count?5?$CFs?6?$AA@ ; `string'
PUBLIC	??_C@_06EOBNCOPG@?9ndays?$AA@			; `string'
PUBLIC	??_C@_08NFLILFLO@?9rsigner?$AA@			; `string'
PUBLIC	??_C@_05CKNLEAGN@?9rkey?$AA@			; `string'
PUBLIC	??_C@_07NLCOKAMA@?9rother?$AA@			; `string'
PUBLIC	??_C@_04IACEHNJA@?9rmd?$AA@			; `string'
PUBLIC	??_C@_0O@GHKOCIBH@OCSP?5utility?6?$AA@		; `string'
PUBLIC	??_C@_0BG@DPBAODHH@Usage?5ocsp?5?$FLoptions?$FN?6?$AA@ ; `string'
PUBLIC	??_C@_0BD@KHANLAHK@where?5options?5are?6?$AA@	; `string'
PUBLIC	??_C@_0CG@HCAICIBJ@?9out?5file?5?5?5?5?5?5?5?5?5?5?5?5output?5file@ ; `string'
PUBLIC	??_C@_0CJ@INIFFENJ@?9issuer?5file?5?5?5?5?5?5?5?5?5issuer?5cert@ ; `string'
PUBLIC	??_C@_0CL@LBLFHPLJ@?9cert?5file?5?5?5?5?5?5?5?5?5?5?5certificate@ ; `string'
PUBLIC	??_C@_0CN@JJAINCKG@?9serial?5n?5?5?5?5?5?5?5?5?5?5?5?5serial?5numb@ ; `string'
PUBLIC	??_C@_0DM@OAPGCCLL@?9signer?5file?5?5?5?5?5?5?5?5?5certificate@ ; `string'
PUBLIC	??_C@_0DM@DNCBAAA@?9signkey?5file?5?5?5?5?5?5?5?5private?5key@ ; `string'
PUBLIC	??_C@_0EL@GIOFBCPA@?9sign_other?5file?5?5?5?5?5additional?5@ ; `string'
PUBLIC	??_C@_0EH@BAHODJBN@?9no_certs?5?5?5?5?5?5?5?5?5?5?5?5don?8t?5inclu@ ; `string'
PUBLIC	??_C@_0DB@OAPFLAGM@?9req_text?5?5?5?5?5?5?5?5?5?5?5?5print?5text?5@ ; `string'
PUBLIC	??_C@_0DC@FIJIBEIE@?9resp_text?5?5?5?5?5?5?5?5?5?5?5print?5text?5@ ; `string'
PUBLIC	??_C@_0DO@CKOJOAFH@?9text?5?5?5?5?5?5?5?5?5?5?5?5?5?5?5?5print?5text?5@ ; `string'
PUBLIC	??_C@_0DP@GNPIHDEL@?9reqout?5file?5?5?5?5?5?5?5?5?5write?5DER?5e@ ; `string'
PUBLIC	??_C@_0DP@EDMOEOEG@?9respout?5file?5?5?5?5?5?5?5?5write?5DER?5e@ ; `string'
PUBLIC	??_C@_0EA@BHPCONJB@?9reqin?5file?5?5?5?5?5?5?5?5?5?5read?5DER?5en@ ; `string'
PUBLIC	??_C@_0EA@EMMONCK@?9respin?5file?5?5?5?5?5?5?5?5?5read?5DER?5en@ ; `string'
PUBLIC	??_C@_0DA@EJGBDHGC@?9nonce?5?5?5?5?5?5?5?5?5?5?5?5?5?5?5add?5OCSP?5no@ ; `string'
PUBLIC	??_C@_0DG@CDEDKLIH@?9no_nonce?5?5?5?5?5?5?5?5?5?5?5?5don?8t?5add?5O@ ; `string'
PUBLIC	??_C@_0CJ@KKEJCIPA@?9url?5URL?5?5?5?5?5?5?5?5?5?5?5?5?5OCSP?5respon@ ; `string'
PUBLIC	??_C@_0DK@NJCHGLLO@?9host?5host?3n?5?5?5?5?5?5?5?5?5send?5OCSP?5r@ ; `string'
PUBLIC	??_C@_0DC@NJDPKDM@?9path?5?5?5?5?5?5?5?5?5?5?5?5?5?5?5?5path?5to?5use@ ; `string'
PUBLIC	??_C@_0DF@DAEGDHGG@?9CApath?5dir?5?5?5?5?5?5?5?5?5?5trusted?5cer@ ; `string'
PUBLIC	??_C@_0DA@MMLPKEMM@?9CAfile?5file?5?5?5?5?5?5?5?5?5trusted?5cer@ ; `string'
PUBLIC	??_C@_0EG@DMAFMLKE@?9no_alt_chains?5?5?5?5?5?5?5only?5ever?5u@ ; `string'
PUBLIC	??_C@_0DC@FHOOHEAL@?9VAfile?5file?5?5?5?5?5?5?5?5?5validator?5c@ ; `string'
PUBLIC	??_C@_0DO@GNINILBF@?9validity_period?5n?5?5?5maximum?5val@ ; `string'
PUBLIC	??_C@_0DE@IDKBHJOA@?9status_age?5n?5?5?5?5?5?5?5?5maximum?5sta@ ; `string'
PUBLIC	??_C@_0DD@HEKCHIMG@?9noverify?5?5?5?5?5?5?5?5?5?5?5?5don?8t?5verif@ ; `string'
PUBLIC	??_C@_0ED@PPCBDPCL@?9verify_other?5file?5?5?5additional?5@ ; `string'
PUBLIC	??_C@_0DL@FALIFHNB@?9trust_other?5?5?5?5?5?5?5?5?5don?8t?5verif@ ; `string'
PUBLIC	??_C@_0FB@FMIMBANH@?9no_intern?5?5?5?5?5?5?5?5?5?5?5don?8t?5searc@ ; `string'
PUBLIC	??_C@_0DI@PEGHJBAJ@?9no_signature_verify?5don?8t?5check@ ; `string'
PUBLIC	??_C@_0DG@PLFFNJLN@?9no_cert_verify?5?5?5?5?5?5don?8t?5check@ ; `string'
PUBLIC	??_C@_0DC@DKOPCMKK@?9no_chain?5?5?5?5?5?5?5?5?5?5?5?5don?8t?5chain@ ; `string'
PUBLIC	??_C@_0EI@MKPNJEFI@?9no_cert_checks?5?5?5?5?5?5don?8t?5do?5ad@ ; `string'
PUBLIC	??_C@_0CP@PODPDDPH@?9port?5num?5?5?5?5?5?5?5?5?5?5?5?5port?5to?5run@ ; `string'
PUBLIC	??_C@_0DE@BGFHCMJE@?9index?5file?5?5?5?5?5?5?5?5?5?5certificate@ ; `string'
PUBLIC	??_C@_0CF@JGFLGLHM@?9CA?5file?5?5?5?5?5?5?5?5?5?5?5?5?5CA?5certific@ ; `string'
PUBLIC	??_C@_0ED@FLKOEDBB@?9rsigner?5file?5?5?5?5?5?5?5?5responder?5c@ ; `string'
PUBLIC	??_C@_0DL@KGGBHLMK@?9rkey?5file?5?5?5?5?5?5?5?5?5?5?5responder?5k@ ; `string'
PUBLIC	??_C@_0EA@LBHLGDCL@?9rother?5file?5?5?5?5?5?5?5?5?5other?5certi@ ; `string'
PUBLIC	??_C@_0EB@NCHPLFJI@?9resp_no_certs?5?5?5?5?5?5?5don?8t?5inclu@ ; `string'
PUBLIC	??_C@_0DL@HPIDPJEJ@?9nmin?5n?5?5?5?5?5?5?5?5?5?5?5?5?5?5number?5of?5m@ ; `string'
PUBLIC	??_C@_0DI@GLKOJEDI@?9ndays?5n?5?5?5?5?5?5?5?5?5?5?5?5?5number?5of?5d@ ; `string'
PUBLIC	??_C@_0EF@NKPDHHLM@?9resp_key_id?5?5?5?5?5?5?5?5?5identify?5re@ ; `string'
PUBLIC	??_C@_0EH@POHPKLEF@?9nrequest?5n?5?5?5?5?5?5?5?5?5?5number?5of?5r@ ; `string'
PUBLIC	??_C@_0DK@CPGBBKHH@?9?$DMdgst?5alg?$DO?5?5?5?5?5?5?5?5?5?5use?5specifi@ ; `string'
PUBLIC	??_C@_0EL@DBDCDBIC@?9timeout?5n?5?5?5?5?5?5?5?5?5?5?5timeout?5con@ ; `string'
PUBLIC	??_C@_01NOFIACDB@w?$AA@				; `string'
PUBLIC	??_C@_0BL@IMNHHODD@Error?5opening?5output?5file?6?$AA@ ; `string'
PUBLIC	??_C@_01JOAMLHOP@?9?$AA@			; `string'
PUBLIC	??_C@_02JDPG@rb?$AA@				; `string'
PUBLIC	??_C@_0CB@IKGMJOPA@Error?5Opening?5OCSP?5request?5file?6@ ; `string'
PUBLIC	??_C@_0BM@NGEGOAMK@Error?5reading?5OCSP?5request?6?$AA@ ; `string'
PUBLIC	??_C@_0BG@FMDDPMHB@responder?5certificate?$AA@	; `string'
PUBLIC	??_C@_0CF@JABBMOMP@Error?5loading?5responder?5certific@ ; `string'
PUBLIC	??_C@_0P@KDJNKNNI@CA?5certificate?$AA@		; `string'
PUBLIC	??_C@_0BN@KIHLODNM@responder?5other?5certificates?$AA@ ; `string'
PUBLIC	??_C@_0BG@IONLEAGC@responder?5private?5key?$AA@	; `string'
PUBLIC	??_C@_0CI@DICJHPJD@Waiting?5for?5OCSP?5client?5connecti@ ; `string'
PUBLIC	??_C@_0CK@IHKNJONP@Need?5an?5OCSP?5request?5for?5this?5op@ ; `string'
PUBLIC	??_C@_0BD@FNCKELBI@signer?5certificate?$AA@	; `string'
PUBLIC	??_C@_0CC@EDBKMCMB@Error?5loading?5signer?5certificate@ ; `string'
PUBLIC	??_C@_0BE@BHCDJICI@signer?5certificates?$AA@	; `string'
PUBLIC	??_C@_0BD@IPMCPHAL@signer?5private?5key?$AA@	; `string'
PUBLIC	??_C@_0BM@PFDAPGG@Error?5signing?5OCSP?5request?6?$AA@ ; `string'
PUBLIC	??_C@_02GMLFBBN@wb?$AA@				; `string'
PUBLIC	??_C@_0BH@DEKMPDPP@Error?5opening?5file?5?$CFs?6?$AA@ ; `string'
PUBLIC	??_C@_0DO@FPJCEGPN@Need?5a?5responder?5certificate?0?5ke@ ; `string'
PUBLIC	??_C@_0CC@KKCKPJLO@Error?5Opening?5OCSP?5response?5file@ ; `string'
PUBLIC	??_C@_0BN@HGCCGJOP@Error?5reading?5OCSP?5response?6?$AA@ ; `string'
PUBLIC	??_C@_0BK@FEOAPJNF@Responder?5Error?3?5?$CFs?5?$CI?$CFd?$CJ?6?$AA@ ; `string'
PUBLIC	??_C@_0BG@PJEOBFCK@validator?5certificate?$AA@	; `string'
PUBLIC	??_C@_0BI@PGOKDFIG@Error?5parsing?5response?6?$AA@ ; `string'
PUBLIC	??_C@_0BP@EPMDAAOO@WARNING?3?5no?5nonce?5in?5response?6?$AA@ ; `string'
PUBLIC	??_C@_0BE@GFKGMJDE@Nonce?5Verify?5error?6?$AA@	; `string'
PUBLIC	??_C@_0BJ@NAHMIEJA@Response?5Verify?5Failure?6?$AA@ ; `string'
PUBLIC	??_C@_0BE@IPGNFEH@Response?5verify?5OK?6?$AA@	; `string'
PUBLIC	??_C@_0CB@JNPJAML@No?5issuer?5certificate?5specified?6@ ; `string'
PUBLIC	??_C@_0BN@MMIPCALN@Error?5Creating?5OCSP?5request?6?$AA@ ; `string'
PUBLIC	??_C@_0CD@IKFOILEE@Error?5converting?5serial?5number?5?$CF@ ; `string'
PUBLIC	??_C@_04PFAOODAA@?$CFs?3?5?$AA@			; `string'
PUBLIC	??_C@_0BJ@LPNEOKFE@ERROR?3?5No?5Status?5found?4?6?$AA@ ; `string'
PUBLIC	??_C@_0CA@DNKDGAHH@WARNING?3?5Status?5times?5invalid?4?6?$AA@ ; `string'
PUBLIC	??_C@_03OFAPEBGM@?$CFs?6?$AA@			; `string'
PUBLIC	??_C@_0P@DNHJODAD@?7This?5Update?3?5?$AA@	; `string'
PUBLIC	??_C@_01EEMJAFIK@?6?$AA@			; `string'
PUBLIC	??_C@_0P@HAFGNBJK@?7Next?5Update?3?5?$AA@	; `string'
PUBLIC	??_C@_0N@PMAADCMN@?7Reason?3?5?$CFs?6?$AA@	; `string'
PUBLIC	??_C@_0BD@DMDALECK@?7Revocation?5Time?3?5?$AA@	; `string'
PUBLIC	??_C@_02LAJDHPIK@bn?$AA@			; `string'
PUBLIC	??_C@_0O@JBGAODIK@?4?2apps?2ocsp?4c?$AA@	; `string'
PUBLIC	??_C@_02PLJDPFIO@00?$AA@			; `string'
PUBLIC	??_C@_0BN@JCIIHNNJ@Error?5setting?5up?5accept?5BIO?6?$AA@ ; `string'
PUBLIC	??_C@_0BM@IEKEMBLP@Error?5accepting?5connection?6?$AA@ ; `string'
PUBLIC	??_C@_04HCJEIHPL@POST?$AA@			; `string'
PUBLIC	??_C@_0BB@HOFEPKDI@Invalid?5request?6?$AA@	; `string'
PUBLIC	??_C@_0BM@PMPMHLFP@Error?5parsing?5OCSP?5request?6?$AA@ ; `string'
PUBLIC	??_C@_0FB@KMPEPAFE@HTTP?11?40?5200?5OK?$AN?6Content?9type?3?5a@ ; `string'
PUBLIC	??_C@_0BG@NPALLMJK@Error?5connecting?5BIO?6?$AA@ ; `string'
PUBLIC	??_C@_0BJ@CEHELOEH@Can?8t?5get?5connection?5fd?6?$AA@ ; `string'
PUBLIC	??_C@_0BE@MMONFFFE@Timeout?5on?5connect?6?$AA@	; `string'
PUBLIC	??_C@_0BM@IPHCCFPM@Unexpected?5retry?5condition?6?$AA@ ; `string'
PUBLIC	??_C@_0BE@EOAIFGEO@Timeout?5on?5request?6?$AA@	; `string'
PUBLIC	??_C@_0O@NGGJJKPK@Select?5error?6?$AA@		; `string'
PUBLIC	??_C@_0BM@NGBIEMH@Error?5creating?5connect?5BIO?6?$AA@ ; `string'
PUBLIC	??_C@_0BN@PGIOOPMD@Error?5creating?5SSL?5context?4?6?$AA@ ; `string'
PUBLIC	??_C@_0BP@MIANGBPC@Error?5querying?5OCSP?5responder?6?$AA@ ; `string'
EXTRN	__imp____acrt_iob_func:PROC
EXTRN	__imp__atol:PROC
EXTRN	__imp__strncmp:PROC
EXTRN	__imp__select@20:PROC
EXTRN	_sk_num:PROC
EXTRN	_sk_value:PROC
EXTRN	_sk_new_null:PROC
EXTRN	_sk_free:PROC
EXTRN	_sk_pop_free:PROC
EXTRN	_sk_push:PROC
EXTRN	_CRYPTO_free:PROC
EXTRN	_OpenSSLDie:PROC
EXTRN	_BIO_test_flags:PROC
EXTRN	_BIO_new_file:PROC
EXTRN	_BIO_new_fp:PROC
EXTRN	_BIO_new:PROC
EXTRN	_BIO_free:PROC
EXTRN	_BIO_gets:PROC
EXTRN	_BIO_puts:PROC
EXTRN	_BIO_ctrl:PROC
EXTRN	_BIO_push:PROC
EXTRN	_BIO_pop:PROC
EXTRN	_BIO_free_all:PROC
EXTRN	_BIO_f_buffer:PROC
EXTRN	_BIO_new_connect:PROC
EXTRN	_BIO_new_accept:PROC
EXTRN	_BIO_printf:PROC
EXTRN	_BUF_strdup:PROC
EXTRN	_BN_free:PROC
EXTRN	_BN_bn2hex:PROC
EXTRN	_ASN1_OBJECT_free:PROC
EXTRN	_ASN1_INTEGER_free:PROC
EXTRN	_ASN1_GENERALIZEDTIME_free:PROC
EXTRN	_ASN1_TIME_free:PROC
EXTRN	_ASN1_INTEGER_to_BN:PROC
EXTRN	_ASN1_d2i_bio:PROC
EXTRN	_ASN1_i2d_bio:PROC
EXTRN	_ASN1_GENERALIZEDTIME_print:PROC
EXTRN	_OBJ_nid2sn:PROC
EXTRN	_OBJ_obj2nid:PROC
EXTRN	_EVP_sha1:PROC
EXTRN	_EVP_get_digestbyname:PROC
EXTRN	_EVP_PKEY_free:PROC
EXTRN	_X509_STORE_free:PROC
EXTRN	_X509_STORE_set1_param:PROC
EXTRN	_X509_VERIFY_PARAM_free:PROC
EXTRN	_X509_time_adj_ex:PROC
EXTRN	_X509_gmtime_adj:PROC
EXTRN	_X509_free:PROC
EXTRN	_X509_get_subject_name:PROC
EXTRN	_X509_get0_pubkey_bitstr:PROC
EXTRN	_TXT_DB_get_by_index:PROC
EXTRN	_ERR_print_errors:PROC
EXTRN	_X509V3_conf_free:PROC
EXTRN	_X509V3_add_value:PROC
EXTRN	_s2i_ASN1_INTEGER:PROC
EXTRN	_OCSP_sendreq_new:PROC
EXTRN	_OCSP_sendreq_nbio:PROC
EXTRN	_OCSP_REQ_CTX_free:PROC
EXTRN	_OCSP_REQ_CTX_set1_req:PROC
EXTRN	_OCSP_REQ_CTX_add1_header:PROC
EXTRN	_OCSP_cert_to_id:PROC
EXTRN	_OCSP_cert_id_new:PROC
EXTRN	_OCSP_request_add0_id:PROC
EXTRN	_OCSP_request_add1_nonce:PROC
EXTRN	_OCSP_check_nonce:PROC
EXTRN	_OCSP_copy_nonce:PROC
EXTRN	_OCSP_request_sign:PROC
EXTRN	_OCSP_response_status:PROC
EXTRN	_OCSP_response_get1_basic:PROC
EXTRN	_OCSP_resp_find_status:PROC
EXTRN	_OCSP_check_validity:PROC
EXTRN	_OCSP_parse_url:PROC
EXTRN	_OCSP_id_issuer_cmp:PROC
EXTRN	_OCSP_request_onereq_count:PROC
EXTRN	_OCSP_request_onereq_get0:PROC
EXTRN	_OCSP_onereq_get0_id:PROC
EXTRN	_OCSP_id_get0_info:PROC
EXTRN	_OCSP_response_create:PROC
EXTRN	_OCSP_basic_add1_status:PROC
EXTRN	_OCSP_basic_sign:PROC
EXTRN	_OCSP_SINGLERESP_add1_ext_i2d:PROC
EXTRN	_OCSP_BASICRESP_new:PROC
EXTRN	_OCSP_BASICRESP_free:PROC
EXTRN	_OCSP_RESPONSE_new:PROC
EXTRN	_OCSP_RESPONSE_free:PROC
EXTRN	_d2i_OCSP_RESPONSE:PROC
EXTRN	_i2d_OCSP_RESPONSE:PROC
EXTRN	_OCSP_CERTID_free:PROC
EXTRN	_OCSP_REQUEST_new:PROC
EXTRN	_OCSP_REQUEST_free:PROC
EXTRN	_d2i_OCSP_REQUEST:PROC
EXTRN	_i2d_OCSP_REQUEST:PROC
EXTRN	_OCSP_response_status_str:PROC
EXTRN	_OCSP_cert_status_str:PROC
EXTRN	_OCSP_crl_reason_str:PROC
EXTRN	_OCSP_REQUEST_print:PROC
EXTRN	_OCSP_RESPONSE_print:PROC
EXTRN	_OCSP_basic_verify:PROC
EXTRN	_load_cert:PROC
EXTRN	_load_key:PROC
EXTRN	_load_certs:PROC
EXTRN	_setup_verify:PROC
EXTRN	_load_config:PROC
EXTRN	_unpack_revinfo:PROC
EXTRN	_load_index:PROC
EXTRN	_index_index:PROC
EXTRN	_free_index:PROC
EXTRN	_args_verify:PROC
EXTRN	_BIO_new_ssl:PROC
EXTRN	_SSL_CTX_new:PROC
EXTRN	_SSL_CTX_free:PROC
EXTRN	_SSL_load_error_strings:PROC
EXTRN	_SSL_CTX_ctrl:PROC
EXTRN	_SSLv23_client_method:PROC
EXTRN	_SSL_library_init:PROC
EXTRN	@__security_check_cookie@4:PROC
EXTRN	__chkstk:PROC
EXTRN	_bio_err:DWORD
EXTRN	___security_cookie:DWORD
;	COMDAT ??_C@_0BP@MIANGBPC@Error?5querying?5OCSP?5responder?6?$AA@
CONST	SEGMENT
??_C@_0BP@MIANGBPC@Error?5querying?5OCSP?5responder?6?$AA@ DB 'Error quer'
	DB	'ying OCSP responder', 0aH, 00H		; `string'
CONST	ENDS
;	COMDAT ??_C@_0BN@PGIOOPMD@Error?5creating?5SSL?5context?4?6?$AA@
CONST	SEGMENT
??_C@_0BN@PGIOOPMD@Error?5creating?5SSL?5context?4?6?$AA@ DB 'Error creat'
	DB	'ing SSL context.', 0aH, 00H			; `string'
CONST	ENDS
;	COMDAT ??_C@_0BM@NGBIEMH@Error?5creating?5connect?5BIO?6?$AA@
CONST	SEGMENT
??_C@_0BM@NGBIEMH@Error?5creating?5connect?5BIO?6?$AA@ DB 'Error creating'
	DB	' connect BIO', 0aH, 00H			; `string'
CONST	ENDS
;	COMDAT ??_C@_0O@NGGJJKPK@Select?5error?6?$AA@
CONST	SEGMENT
??_C@_0O@NGGJJKPK@Select?5error?6?$AA@ DB 'Select error', 0aH, 00H ; `string'
CONST	ENDS
;	COMDAT ??_C@_0BE@EOAIFGEO@Timeout?5on?5request?6?$AA@
CONST	SEGMENT
??_C@_0BE@EOAIFGEO@Timeout?5on?5request?6?$AA@ DB 'Timeout on request', 0aH
	DB	00H						; `string'
CONST	ENDS
;	COMDAT ??_C@_0BM@IPHCCFPM@Unexpected?5retry?5condition?6?$AA@
CONST	SEGMENT
??_C@_0BM@IPHCCFPM@Unexpected?5retry?5condition?6?$AA@ DB 'Unexpected ret'
	DB	'ry condition', 0aH, 00H			; `string'
CONST	ENDS
;	COMDAT ??_C@_0BE@MMONFFFE@Timeout?5on?5connect?6?$AA@
CONST	SEGMENT
??_C@_0BE@MMONFFFE@Timeout?5on?5connect?6?$AA@ DB 'Timeout on connect', 0aH
	DB	00H						; `string'
CONST	ENDS
;	COMDAT ??_C@_0BJ@CEHELOEH@Can?8t?5get?5connection?5fd?6?$AA@
CONST	SEGMENT
??_C@_0BJ@CEHELOEH@Can?8t?5get?5connection?5fd?6?$AA@ DB 'Can''t get conn'
	DB	'ection fd', 0aH, 00H			; `string'
CONST	ENDS
;	COMDAT ??_C@_0BG@NPALLMJK@Error?5connecting?5BIO?6?$AA@
CONST	SEGMENT
??_C@_0BG@NPALLMJK@Error?5connecting?5BIO?6?$AA@ DB 'Error connecting BIO'
	DB	0aH, 00H					; `string'
CONST	ENDS
;	COMDAT ??_C@_0FB@KMPEPAFE@HTTP?11?40?5200?5OK?$AN?6Content?9type?3?5a@
CONST	SEGMENT
??_C@_0FB@KMPEPAFE@HTTP?11?40?5200?5OK?$AN?6Content?9type?3?5a@ DB 'HTTP/'
	DB	'1.0 200 OK', 0dH, 0aH, 'Content-type: application/ocsp-respon'
	DB	'se', 0dH, 0aH, 'Content-Length: %d', 0dH, 0aH, 0dH, 0aH, 00H ; `string'
CONST	ENDS
;	COMDAT ??_C@_0BM@PMPMHLFP@Error?5parsing?5OCSP?5request?6?$AA@
CONST	SEGMENT
??_C@_0BM@PMPMHLFP@Error?5parsing?5OCSP?5request?6?$AA@ DB 'Error parsing'
	DB	' OCSP request', 0aH, 00H			; `string'
CONST	ENDS
;	COMDAT ??_C@_0BB@HOFEPKDI@Invalid?5request?6?$AA@
CONST	SEGMENT
??_C@_0BB@HOFEPKDI@Invalid?5request?6?$AA@ DB 'Invalid request', 0aH, 00H ; `string'
CONST	ENDS
;	COMDAT ??_C@_04HCJEIHPL@POST?$AA@
CONST	SEGMENT
??_C@_04HCJEIHPL@POST?$AA@ DB 'POST', 00H		; `string'
CONST	ENDS
;	COMDAT ??_C@_0BM@IEKEMBLP@Error?5accepting?5connection?6?$AA@
CONST	SEGMENT
??_C@_0BM@IEKEMBLP@Error?5accepting?5connection?6?$AA@ DB 'Error acceptin'
	DB	'g connection', 0aH, 00H			; `string'
CONST	ENDS
;	COMDAT ??_C@_0BN@JCIIHNNJ@Error?5setting?5up?5accept?5BIO?6?$AA@
CONST	SEGMENT
??_C@_0BN@JCIIHNNJ@Error?5setting?5up?5accept?5BIO?6?$AA@ DB 'Error setti'
	DB	'ng up accept BIO', 0aH, 00H			; `string'
CONST	ENDS
;	COMDAT ??_C@_02PLJDPFIO@00?$AA@
CONST	SEGMENT
??_C@_02PLJDPFIO@00?$AA@ DB '00', 00H			; `string'
CONST	ENDS
;	COMDAT ??_C@_0O@JBGAODIK@?4?2apps?2ocsp?4c?$AA@
CONST	SEGMENT
??_C@_0O@JBGAODIK@?4?2apps?2ocsp?4c?$AA@ DB '.\apps\ocsp.c', 00H ; `string'
CONST	ENDS
;	COMDAT ??_C@_02LAJDHPIK@bn?$AA@
CONST	SEGMENT
??_C@_02LAJDHPIK@bn?$AA@ DB 'bn', 00H			; `string'
CONST	ENDS
;	COMDAT ??_C@_0BD@DMDALECK@?7Revocation?5Time?3?5?$AA@
CONST	SEGMENT
??_C@_0BD@DMDALECK@?7Revocation?5Time?3?5?$AA@ DB 09H, 'Revocation Time: '
	DB	00H						; `string'
CONST	ENDS
;	COMDAT ??_C@_0N@PMAADCMN@?7Reason?3?5?$CFs?6?$AA@
CONST	SEGMENT
??_C@_0N@PMAADCMN@?7Reason?3?5?$CFs?6?$AA@ DB 09H, 'Reason: %s', 0aH, 00H ; `string'
CONST	ENDS
;	COMDAT ??_C@_0P@HAFGNBJK@?7Next?5Update?3?5?$AA@
CONST	SEGMENT
??_C@_0P@HAFGNBJK@?7Next?5Update?3?5?$AA@ DB 09H, 'Next Update: ', 00H ; `string'
CONST	ENDS
;	COMDAT ??_C@_01EEMJAFIK@?6?$AA@
CONST	SEGMENT
??_C@_01EEMJAFIK@?6?$AA@ DB 0aH, 00H			; `string'
CONST	ENDS
;	COMDAT ??_C@_0P@DNHJODAD@?7This?5Update?3?5?$AA@
CONST	SEGMENT
??_C@_0P@DNHJODAD@?7This?5Update?3?5?$AA@ DB 09H, 'This Update: ', 00H ; `string'
CONST	ENDS
;	COMDAT ??_C@_03OFAPEBGM@?$CFs?6?$AA@
CONST	SEGMENT
??_C@_03OFAPEBGM@?$CFs?6?$AA@ DB '%s', 0aH, 00H		; `string'
CONST	ENDS
;	COMDAT ??_C@_0CA@DNKDGAHH@WARNING?3?5Status?5times?5invalid?4?6?$AA@
CONST	SEGMENT
??_C@_0CA@DNKDGAHH@WARNING?3?5Status?5times?5invalid?4?6?$AA@ DB 'WARNING'
	DB	': Status times invalid.', 0aH, 00H		; `string'
CONST	ENDS
;	COMDAT ??_C@_0BJ@LPNEOKFE@ERROR?3?5No?5Status?5found?4?6?$AA@
CONST	SEGMENT
??_C@_0BJ@LPNEOKFE@ERROR?3?5No?5Status?5found?4?6?$AA@ DB 'ERROR: No Stat'
	DB	'us found.', 0aH, 00H			; `string'
CONST	ENDS
;	COMDAT ??_C@_04PFAOODAA@?$CFs?3?5?$AA@
CONST	SEGMENT
??_C@_04PFAOODAA@?$CFs?3?5?$AA@ DB '%s: ', 00H		; `string'
CONST	ENDS
;	COMDAT ??_C@_0CD@IKFOILEE@Error?5converting?5serial?5number?5?$CF@
CONST	SEGMENT
??_C@_0CD@IKFOILEE@Error?5converting?5serial?5number?5?$CF@ DB 'Error con'
	DB	'verting serial number %s', 0aH, 00H		; `string'
CONST	ENDS
;	COMDAT ??_C@_0BN@MMIPCALN@Error?5Creating?5OCSP?5request?6?$AA@
CONST	SEGMENT
??_C@_0BN@MMIPCALN@Error?5Creating?5OCSP?5request?6?$AA@ DB 'Error Creati'
	DB	'ng OCSP request', 0aH, 00H			; `string'
CONST	ENDS
;	COMDAT ??_C@_0CB@JNPJAML@No?5issuer?5certificate?5specified?6@
CONST	SEGMENT
??_C@_0CB@JNPJAML@No?5issuer?5certificate?5specified?6@ DB 'No issuer cer'
	DB	'tificate specified', 0aH, 00H		; `string'
CONST	ENDS
;	COMDAT ??_C@_0BE@IPGNFEH@Response?5verify?5OK?6?$AA@
CONST	SEGMENT
??_C@_0BE@IPGNFEH@Response?5verify?5OK?6?$AA@ DB 'Response verify OK', 0aH
	DB	00H						; `string'
CONST	ENDS
;	COMDAT ??_C@_0BJ@NAHMIEJA@Response?5Verify?5Failure?6?$AA@
CONST	SEGMENT
??_C@_0BJ@NAHMIEJA@Response?5Verify?5Failure?6?$AA@ DB 'Response Verify F'
	DB	'ailure', 0aH, 00H				; `string'
CONST	ENDS
;	COMDAT ??_C@_0BE@GFKGMJDE@Nonce?5Verify?5error?6?$AA@
CONST	SEGMENT
??_C@_0BE@GFKGMJDE@Nonce?5Verify?5error?6?$AA@ DB 'Nonce Verify error', 0aH
	DB	00H						; `string'
CONST	ENDS
;	COMDAT ??_C@_0BP@EPMDAAOO@WARNING?3?5no?5nonce?5in?5response?6?$AA@
CONST	SEGMENT
??_C@_0BP@EPMDAAOO@WARNING?3?5no?5nonce?5in?5response?6?$AA@ DB 'WARNING:'
	DB	' no nonce in response', 0aH, 00H		; `string'
CONST	ENDS
;	COMDAT ??_C@_0BI@PGOKDFIG@Error?5parsing?5response?6?$AA@
CONST	SEGMENT
??_C@_0BI@PGOKDFIG@Error?5parsing?5response?6?$AA@ DB 'Error parsing resp'
	DB	'onse', 0aH, 00H				; `string'
CONST	ENDS
;	COMDAT ??_C@_0BG@PJEOBFCK@validator?5certificate?$AA@
CONST	SEGMENT
??_C@_0BG@PJEOBFCK@validator?5certificate?$AA@ DB 'validator certificate', 00H ; `string'
CONST	ENDS
;	COMDAT ??_C@_0BK@FEOAPJNF@Responder?5Error?3?5?$CFs?5?$CI?$CFd?$CJ?6?$AA@
CONST	SEGMENT
??_C@_0BK@FEOAPJNF@Responder?5Error?3?5?$CFs?5?$CI?$CFd?$CJ?6?$AA@ DB 'Re'
	DB	'sponder Error: %s (%d)', 0aH, 00H		; `string'
CONST	ENDS
;	COMDAT ??_C@_0BN@HGCCGJOP@Error?5reading?5OCSP?5response?6?$AA@
CONST	SEGMENT
??_C@_0BN@HGCCGJOP@Error?5reading?5OCSP?5response?6?$AA@ DB 'Error readin'
	DB	'g OCSP response', 0aH, 00H			; `string'
CONST	ENDS
;	COMDAT ??_C@_0CC@KKCKPJLO@Error?5Opening?5OCSP?5response?5file@
CONST	SEGMENT
??_C@_0CC@KKCKPJLO@Error?5Opening?5OCSP?5response?5file@ DB 'Error Openin'
	DB	'g OCSP response file', 0aH, 00H		; `string'
CONST	ENDS
;	COMDAT ??_C@_0DO@FPJCEGPN@Need?5a?5responder?5certificate?0?5ke@
CONST	SEGMENT
??_C@_0DO@FPJCEGPN@Need?5a?5responder?5certificate?0?5ke@ DB 'Need a resp'
	DB	'onder certificate, key and CA for this operation!', 0aH, 00H ; `string'
CONST	ENDS
;	COMDAT ??_C@_0BH@DEKMPDPP@Error?5opening?5file?5?$CFs?6?$AA@
CONST	SEGMENT
??_C@_0BH@DEKMPDPP@Error?5opening?5file?5?$CFs?6?$AA@ DB 'Error opening f'
	DB	'ile %s', 0aH, 00H				; `string'
CONST	ENDS
;	COMDAT ??_C@_02GMLFBBN@wb?$AA@
CONST	SEGMENT
??_C@_02GMLFBBN@wb?$AA@ DB 'wb', 00H			; `string'
CONST	ENDS
;	COMDAT ??_C@_0BM@PFDAPGG@Error?5signing?5OCSP?5request?6?$AA@
CONST	SEGMENT
??_C@_0BM@PFDAPGG@Error?5signing?5OCSP?5request?6?$AA@ DB 'Error signing '
	DB	'OCSP request', 0aH, 00H			; `string'
CONST	ENDS
;	COMDAT ??_C@_0BD@IPMCPHAL@signer?5private?5key?$AA@
CONST	SEGMENT
??_C@_0BD@IPMCPHAL@signer?5private?5key?$AA@ DB 'signer private key', 00H ; `string'
CONST	ENDS
;	COMDAT ??_C@_0BE@BHCDJICI@signer?5certificates?$AA@
CONST	SEGMENT
??_C@_0BE@BHCDJICI@signer?5certificates?$AA@ DB 'signer certificates', 00H ; `string'
CONST	ENDS
;	COMDAT ??_C@_0CC@EDBKMCMB@Error?5loading?5signer?5certificate@
CONST	SEGMENT
??_C@_0CC@EDBKMCMB@Error?5loading?5signer?5certificate@ DB 'Error loading'
	DB	' signer certificate', 0aH, 00H		; `string'
CONST	ENDS
;	COMDAT ??_C@_0BD@FNCKELBI@signer?5certificate?$AA@
CONST	SEGMENT
??_C@_0BD@FNCKELBI@signer?5certificate?$AA@ DB 'signer certificate', 00H ; `string'
CONST	ENDS
;	COMDAT ??_C@_0CK@IHKNJONP@Need?5an?5OCSP?5request?5for?5this?5op@
CONST	SEGMENT
??_C@_0CK@IHKNJONP@Need?5an?5OCSP?5request?5for?5this?5op@ DB 'Need an OC'
	DB	'SP request for this operation!', 0aH, 00H	; `string'
CONST	ENDS
;	COMDAT ??_C@_0CI@DICJHPJD@Waiting?5for?5OCSP?5client?5connecti@
CONST	SEGMENT
??_C@_0CI@DICJHPJD@Waiting?5for?5OCSP?5client?5connecti@ DB 'Waiting for '
	DB	'OCSP client connections...', 0aH, 00H	; `string'
CONST	ENDS
;	COMDAT ??_C@_0BG@IONLEAGC@responder?5private?5key?$AA@
CONST	SEGMENT
??_C@_0BG@IONLEAGC@responder?5private?5key?$AA@ DB 'responder private key'
	DB	00H						; `string'
CONST	ENDS
;	COMDAT ??_C@_0BN@KIHLODNM@responder?5other?5certificates?$AA@
CONST	SEGMENT
??_C@_0BN@KIHLODNM@responder?5other?5certificates?$AA@ DB 'responder othe'
	DB	'r certificates', 00H			; `string'
CONST	ENDS
;	COMDAT ??_C@_0P@KDJNKNNI@CA?5certificate?$AA@
CONST	SEGMENT
??_C@_0P@KDJNKNNI@CA?5certificate?$AA@ DB 'CA certificate', 00H ; `string'
CONST	ENDS
;	COMDAT ??_C@_0CF@JABBMOMP@Error?5loading?5responder?5certific@
CONST	SEGMENT
??_C@_0CF@JABBMOMP@Error?5loading?5responder?5certific@ DB 'Error loading'
	DB	' responder certificate', 0aH, 00H		; `string'
CONST	ENDS
;	COMDAT ??_C@_0BG@FMDDPMHB@responder?5certificate?$AA@
CONST	SEGMENT
??_C@_0BG@FMDDPMHB@responder?5certificate?$AA@ DB 'responder certificate', 00H ; `string'
CONST	ENDS
;	COMDAT ??_C@_0BM@NGEGOAMK@Error?5reading?5OCSP?5request?6?$AA@
CONST	SEGMENT
??_C@_0BM@NGEGOAMK@Error?5reading?5OCSP?5request?6?$AA@ DB 'Error reading'
	DB	' OCSP request', 0aH, 00H			; `string'
CONST	ENDS
;	COMDAT ??_C@_0CB@IKGMJOPA@Error?5Opening?5OCSP?5request?5file?6@
CONST	SEGMENT
??_C@_0CB@IKGMJOPA@Error?5Opening?5OCSP?5request?5file?6@ DB 'Error Openi'
	DB	'ng OCSP request file', 0aH, 00H		; `string'
CONST	ENDS
;	COMDAT ??_C@_02JDPG@rb?$AA@
CONST	SEGMENT
??_C@_02JDPG@rb?$AA@ DB 'rb', 00H			; `string'
CONST	ENDS
;	COMDAT ??_C@_01JOAMLHOP@?9?$AA@
CONST	SEGMENT
??_C@_01JOAMLHOP@?9?$AA@ DB '-', 00H			; `string'
CONST	ENDS
;	COMDAT ??_C@_0BL@IMNHHODD@Error?5opening?5output?5file?6?$AA@
CONST	SEGMENT
??_C@_0BL@IMNHHODD@Error?5opening?5output?5file?6?$AA@ DB 'Error opening '
	DB	'output file', 0aH, 00H			; `string'
CONST	ENDS
;	COMDAT ??_C@_01NOFIACDB@w?$AA@
CONST	SEGMENT
??_C@_01NOFIACDB@w?$AA@ DB 'w', 00H			; `string'
CONST	ENDS
;	COMDAT ??_C@_0EL@DBDCDBIC@?9timeout?5n?5?5?5?5?5?5?5?5?5?5?5timeout?5con@
CONST	SEGMENT
??_C@_0EL@DBDCDBIC@?9timeout?5n?5?5?5?5?5?5?5?5?5?5?5timeout?5con@ DB '-t'
	DB	'imeout n           timeout connection to OCSP responder after'
	DB	' n seconds', 0aH, 00H			; `string'
CONST	ENDS
;	COMDAT ??_C@_0DK@CPGBBKHH@?9?$DMdgst?5alg?$DO?5?5?5?5?5?5?5?5?5?5use?5specifi@
CONST	SEGMENT
??_C@_0DK@CPGBBKHH@?9?$DMdgst?5alg?$DO?5?5?5?5?5?5?5?5?5?5use?5specifi@ DB '-'
	DB	'<dgst alg>          use specified digest in the request', 0aH
	DB	00H						; `string'
CONST	ENDS
;	COMDAT ??_C@_0EH@POHPKLEF@?9nrequest?5n?5?5?5?5?5?5?5?5?5?5number?5of?5r@
CONST	SEGMENT
??_C@_0EH@POHPKLEF@?9nrequest?5n?5?5?5?5?5?5?5?5?5?5number?5of?5r@ DB '-n'
	DB	'request n          number of requests to accept (default unli'
	DB	'mited)', 0aH, 00H				; `string'
CONST	ENDS
;	COMDAT ??_C@_0EF@NKPDHHLM@?9resp_key_id?5?5?5?5?5?5?5?5?5identify?5re@
CONST	SEGMENT
??_C@_0EF@NKPDHHLM@?9resp_key_id?5?5?5?5?5?5?5?5?5identify?5re@ DB '-resp'
	DB	'_key_id         identify reponse by signing certificate key I'
	DB	'D', 0aH, 00H				; `string'
CONST	ENDS
;	COMDAT ??_C@_0DI@GLKOJEDI@?9ndays?5n?5?5?5?5?5?5?5?5?5?5?5?5?5number?5of?5d@
CONST	SEGMENT
??_C@_0DI@GLKOJEDI@?9ndays?5n?5?5?5?5?5?5?5?5?5?5?5?5?5number?5of?5d@ DB '-'
	DB	'ndays n             number of days before next update', 0aH, 00H ; `string'
CONST	ENDS
;	COMDAT ??_C@_0DL@HPIDPJEJ@?9nmin?5n?5?5?5?5?5?5?5?5?5?5?5?5?5?5number?5of?5m@
CONST	SEGMENT
??_C@_0DL@HPIDPJEJ@?9nmin?5n?5?5?5?5?5?5?5?5?5?5?5?5?5?5number?5of?5m@ DB '-'
	DB	'nmin n              number of minutes before next update', 0aH
	DB	00H						; `string'
CONST	ENDS
;	COMDAT ??_C@_0EB@NCHPLFJI@?9resp_no_certs?5?5?5?5?5?5?5don?8t?5inclu@
CONST	SEGMENT
??_C@_0EB@NCHPLFJI@?9resp_no_certs?5?5?5?5?5?5?5don?8t?5inclu@ DB '-resp_'
	DB	'no_certs       don''t include any certificates in response', 0aH
	DB	00H						; `string'
CONST	ENDS
;	COMDAT ??_C@_0EA@LBHLGDCL@?9rother?5file?5?5?5?5?5?5?5?5?5other?5certi@
CONST	SEGMENT
??_C@_0EA@LBHLGDCL@?9rother?5file?5?5?5?5?5?5?5?5?5other?5certi@ DB '-rot'
	DB	'her file         other certificates to include in response', 0aH
	DB	00H						; `string'
CONST	ENDS
;	COMDAT ??_C@_0DL@KGGBHLMK@?9rkey?5file?5?5?5?5?5?5?5?5?5?5?5responder?5k@
CONST	SEGMENT
??_C@_0DL@KGGBHLMK@?9rkey?5file?5?5?5?5?5?5?5?5?5?5?5responder?5k@ DB '-r'
	DB	'key file           responder key to sign responses with', 0aH
	DB	00H						; `string'
CONST	ENDS
;	COMDAT ??_C@_0ED@FLKOEDBB@?9rsigner?5file?5?5?5?5?5?5?5?5responder?5c@
CONST	SEGMENT
??_C@_0ED@FLKOEDBB@?9rsigner?5file?5?5?5?5?5?5?5?5responder?5c@ DB '-rsig'
	DB	'ner file        responder certificate to sign responses with', 0aH
	DB	00H						; `string'
CONST	ENDS
;	COMDAT ??_C@_0CF@JGFLGLHM@?9CA?5file?5?5?5?5?5?5?5?5?5?5?5?5?5CA?5certific@
CONST	SEGMENT
??_C@_0CF@JGFLGLHM@?9CA?5file?5?5?5?5?5?5?5?5?5?5?5?5?5CA?5certific@ DB '-'
	DB	'CA file             CA certificate', 0aH, 00H ; `string'
CONST	ENDS
;	COMDAT ??_C@_0DE@BGFHCMJE@?9index?5file?5?5?5?5?5?5?5?5?5?5certificate@
CONST	SEGMENT
??_C@_0DE@BGFHCMJE@?9index?5file?5?5?5?5?5?5?5?5?5?5certificate@ DB '-ind'
	DB	'ex file          certificate status index file', 0aH, 00H ; `string'
CONST	ENDS
;	COMDAT ??_C@_0CP@PODPDDPH@?9port?5num?5?5?5?5?5?5?5?5?5?5?5?5port?5to?5run@
CONST	SEGMENT
??_C@_0CP@PODPDDPH@?9port?5num?5?5?5?5?5?5?5?5?5?5?5?5port?5to?5run@ DB '-'
	DB	'port num            port to run responder on', 0aH, 00H ; `string'
CONST	ENDS
;	COMDAT ??_C@_0EI@MKPNJEFI@?9no_cert_checks?5?5?5?5?5?5don?8t?5do?5ad@
CONST	SEGMENT
??_C@_0EI@MKPNJEFI@?9no_cert_checks?5?5?5?5?5?5don?8t?5do?5ad@ DB '-no_ce'
	DB	'rt_checks      don''t do additional checks on signing certifi'
	DB	'cate', 0aH, 00H				; `string'
CONST	ENDS
;	COMDAT ??_C@_0DC@DKOPCMKK@?9no_chain?5?5?5?5?5?5?5?5?5?5?5?5don?8t?5chain@
CONST	SEGMENT
??_C@_0DC@DKOPCMKK@?9no_chain?5?5?5?5?5?5?5?5?5?5?5?5don?8t?5chain@ DB '-'
	DB	'no_chain            don''t chain verify response', 0aH, 00H ; `string'
CONST	ENDS
;	COMDAT ??_C@_0DG@PLFFNJLN@?9no_cert_verify?5?5?5?5?5?5don?8t?5check@
CONST	SEGMENT
??_C@_0DG@PLFFNJLN@?9no_cert_verify?5?5?5?5?5?5don?8t?5check@ DB '-no_cer'
	DB	't_verify      don''t check signing certificate', 0aH, 00H ; `string'
CONST	ENDS
;	COMDAT ??_C@_0DI@PEGHJBAJ@?9no_signature_verify?5don?8t?5check@
CONST	SEGMENT
??_C@_0DI@PEGHJBAJ@?9no_signature_verify?5don?8t?5check@ DB '-no_signatur'
	DB	'e_verify don''t check signature on response', 0aH, 00H ; `string'
CONST	ENDS
;	COMDAT ??_C@_0FB@FMIMBANH@?9no_intern?5?5?5?5?5?5?5?5?5?5?5don?8t?5searc@
CONST	SEGMENT
??_C@_0FB@FMIMBANH@?9no_intern?5?5?5?5?5?5?5?5?5?5?5don?8t?5searc@ DB '-n'
	DB	'o_intern           don''t search certificates contained in re'
	DB	'sponse for signer', 0aH, 00H		; `string'
CONST	ENDS
;	COMDAT ??_C@_0DL@FALIFHNB@?9trust_other?5?5?5?5?5?5?5?5?5don?8t?5verif@
CONST	SEGMENT
??_C@_0DL@FALIFHNB@?9trust_other?5?5?5?5?5?5?5?5?5don?8t?5verif@ DB '-tru'
	DB	'st_other         don''t verify additional certificates', 0aH, 00H ; `string'
CONST	ENDS
;	COMDAT ??_C@_0ED@PPCBDPCL@?9verify_other?5file?5?5?5additional?5@
CONST	SEGMENT
??_C@_0ED@PPCBDPCL@?9verify_other?5file?5?5?5additional?5@ DB '-verify_ot'
	DB	'her file   additional certificates to search for signer', 0aH
	DB	00H						; `string'
CONST	ENDS
;	COMDAT ??_C@_0DD@HEKCHIMG@?9noverify?5?5?5?5?5?5?5?5?5?5?5?5don?8t?5verif@
CONST	SEGMENT
??_C@_0DD@HEKCHIMG@?9noverify?5?5?5?5?5?5?5?5?5?5?5?5don?8t?5verif@ DB '-'
	DB	'noverify            don''t verify response at all', 0aH, 00H ; `string'
CONST	ENDS
;	COMDAT ??_C@_0DE@IDKBHJOA@?9status_age?5n?5?5?5?5?5?5?5?5maximum?5sta@
CONST	SEGMENT
??_C@_0DE@IDKBHJOA@?9status_age?5n?5?5?5?5?5?5?5?5maximum?5sta@ DB '-stat'
	DB	'us_age n        maximum status age in seconds', 0aH, 00H ; `string'
CONST	ENDS
;	COMDAT ??_C@_0DO@GNINILBF@?9validity_period?5n?5?5?5maximum?5val@
CONST	SEGMENT
??_C@_0DO@GNINILBF@?9validity_period?5n?5?5?5maximum?5val@ DB '-validity_'
	DB	'period n   maximum validity discrepancy in seconds', 0aH, 00H ; `string'
CONST	ENDS
;	COMDAT ??_C@_0DC@FHOOHEAL@?9VAfile?5file?5?5?5?5?5?5?5?5?5validator?5c@
CONST	SEGMENT
??_C@_0DC@FHOOHEAL@?9VAfile?5file?5?5?5?5?5?5?5?5?5validator?5c@ DB '-VAf'
	DB	'ile file         validator certificates file', 0aH, 00H ; `string'
CONST	ENDS
;	COMDAT ??_C@_0EG@DMAFMLKE@?9no_alt_chains?5?5?5?5?5?5?5only?5ever?5u@
CONST	SEGMENT
??_C@_0EG@DMAFMLKE@?9no_alt_chains?5?5?5?5?5?5?5only?5ever?5u@ DB '-no_al'
	DB	't_chains       only ever use the first certificate chain foun'
	DB	'd', 0aH, 00H				; `string'
CONST	ENDS
;	COMDAT ??_C@_0DA@MMLPKEMM@?9CAfile?5file?5?5?5?5?5?5?5?5?5trusted?5cer@
CONST	SEGMENT
??_C@_0DA@MMLPKEMM@?9CAfile?5file?5?5?5?5?5?5?5?5?5trusted?5cer@ DB '-CAf'
	DB	'ile file         trusted certificates file', 0aH, 00H ; `string'
CONST	ENDS
;	COMDAT ??_C@_0DF@DAEGDHGG@?9CApath?5dir?5?5?5?5?5?5?5?5?5?5trusted?5cer@
CONST	SEGMENT
??_C@_0DF@DAEGDHGG@?9CApath?5dir?5?5?5?5?5?5?5?5?5?5trusted?5cer@ DB '-CA'
	DB	'path dir          trusted certificates directory', 0aH, 00H ; `string'
CONST	ENDS
;	COMDAT ??_C@_0DC@NJDPKDM@?9path?5?5?5?5?5?5?5?5?5?5?5?5?5?5?5?5path?5to?5use@
CONST	SEGMENT
??_C@_0DC@NJDPKDM@?9path?5?5?5?5?5?5?5?5?5?5?5?5?5?5?5?5path?5to?5use@ DB '-'
	DB	'path                path to use in OCSP request', 0aH, 00H ; `string'
CONST	ENDS
;	COMDAT ??_C@_0DK@NJCHGLLO@?9host?5host?3n?5?5?5?5?5?5?5?5?5send?5OCSP?5r@
CONST	SEGMENT
??_C@_0DK@NJCHGLLO@?9host?5host?3n?5?5?5?5?5?5?5?5?5send?5OCSP?5r@ DB '-h'
	DB	'ost host:n         send OCSP request to host on port n', 0aH, 00H ; `string'
CONST	ENDS
;	COMDAT ??_C@_0CJ@KKEJCIPA@?9url?5URL?5?5?5?5?5?5?5?5?5?5?5?5?5OCSP?5respon@
CONST	SEGMENT
??_C@_0CJ@KKEJCIPA@?9url?5URL?5?5?5?5?5?5?5?5?5?5?5?5?5OCSP?5respon@ DB '-'
	DB	'url URL             OCSP responder URL', 0aH, 00H ; `string'
CONST	ENDS
;	COMDAT ??_C@_0DG@CDEDKLIH@?9no_nonce?5?5?5?5?5?5?5?5?5?5?5?5don?8t?5add?5O@
CONST	SEGMENT
??_C@_0DG@CDEDKLIH@?9no_nonce?5?5?5?5?5?5?5?5?5?5?5?5don?8t?5add?5O@ DB '-'
	DB	'no_nonce            don''t add OCSP nonce to request', 0aH, 00H ; `string'
CONST	ENDS
;	COMDAT ??_C@_0DA@EJGBDHGC@?9nonce?5?5?5?5?5?5?5?5?5?5?5?5?5?5?5add?5OCSP?5no@
CONST	SEGMENT
??_C@_0DA@EJGBDHGC@?9nonce?5?5?5?5?5?5?5?5?5?5?5?5?5?5?5add?5OCSP?5no@ DB '-'
	DB	'nonce               add OCSP nonce to request', 0aH, 00H ; `string'
CONST	ENDS
;	COMDAT ??_C@_0EA@EMMONCK@?9respin?5file?5?5?5?5?5?5?5?5?5read?5DER?5en@
CONST	SEGMENT
??_C@_0EA@EMMONCK@?9respin?5file?5?5?5?5?5?5?5?5?5read?5DER?5en@ DB '-res'
	DB	'pin file         read DER encoded OCSP reponse from "file"', 0aH
	DB	00H						; `string'
CONST	ENDS
;	COMDAT ??_C@_0EA@BHPCONJB@?9reqin?5file?5?5?5?5?5?5?5?5?5?5read?5DER?5en@
CONST	SEGMENT
??_C@_0EA@BHPCONJB@?9reqin?5file?5?5?5?5?5?5?5?5?5?5read?5DER?5en@ DB '-r'
	DB	'eqin file          read DER encoded OCSP request from "file"', 0aH
	DB	00H						; `string'
CONST	ENDS
;	COMDAT ??_C@_0DP@EDMOEOEG@?9respout?5file?5?5?5?5?5?5?5?5write?5DER?5e@
CONST	SEGMENT
??_C@_0DP@EDMOEOEG@?9respout?5file?5?5?5?5?5?5?5?5write?5DER?5e@ DB '-res'
	DB	'pout file        write DER encoded OCSP reponse to "file"', 0aH
	DB	00H						; `string'
CONST	ENDS
;	COMDAT ??_C@_0DP@GNPIHDEL@?9reqout?5file?5?5?5?5?5?5?5?5?5write?5DER?5e@
CONST	SEGMENT
??_C@_0DP@GNPIHDEL@?9reqout?5file?5?5?5?5?5?5?5?5?5write?5DER?5e@ DB '-re'
	DB	'qout file         write DER encoded OCSP request to "file"', 0aH
	DB	00H						; `string'
CONST	ENDS
;	COMDAT ??_C@_0DO@CKOJOAFH@?9text?5?5?5?5?5?5?5?5?5?5?5?5?5?5?5?5print?5text?5@
CONST	SEGMENT
??_C@_0DO@CKOJOAFH@?9text?5?5?5?5?5?5?5?5?5?5?5?5?5?5?5?5print?5text?5@ DB '-'
	DB	'text                print text form of request and response', 0aH
	DB	00H						; `string'
CONST	ENDS
;	COMDAT ??_C@_0DC@FIJIBEIE@?9resp_text?5?5?5?5?5?5?5?5?5?5?5print?5text?5@
CONST	SEGMENT
??_C@_0DC@FIJIBEIE@?9resp_text?5?5?5?5?5?5?5?5?5?5?5print?5text?5@ DB '-r'
	DB	'esp_text           print text form of response', 0aH, 00H ; `string'
CONST	ENDS
;	COMDAT ??_C@_0DB@OAPFLAGM@?9req_text?5?5?5?5?5?5?5?5?5?5?5?5print?5text?5@
CONST	SEGMENT
??_C@_0DB@OAPFLAGM@?9req_text?5?5?5?5?5?5?5?5?5?5?5?5print?5text?5@ DB '-'
	DB	'req_text            print text form of request', 0aH, 00H ; `string'
CONST	ENDS
;	COMDAT ??_C@_0EH@BAHODJBN@?9no_certs?5?5?5?5?5?5?5?5?5?5?5?5don?8t?5inclu@
CONST	SEGMENT
??_C@_0EH@BAHODJBN@?9no_certs?5?5?5?5?5?5?5?5?5?5?5?5don?8t?5inclu@ DB '-'
	DB	'no_certs            don''t include any certificates in signed'
	DB	' request', 0aH, 00H				; `string'
CONST	ENDS
;	COMDAT ??_C@_0EL@GIOFBCPA@?9sign_other?5file?5?5?5?5?5additional?5@
CONST	SEGMENT
??_C@_0EL@GIOFBCPA@?9sign_other?5file?5?5?5?5?5additional?5@ DB '-sign_ot'
	DB	'her file     additional certificates to include in signed req'
	DB	'uest', 0aH, 00H				; `string'
CONST	ENDS
;	COMDAT ??_C@_0DM@DNCBAAA@?9signkey?5file?5?5?5?5?5?5?5?5private?5key@
CONST	SEGMENT
??_C@_0DM@DNCBAAA@?9signkey?5file?5?5?5?5?5?5?5?5private?5key@ DB '-signk'
	DB	'ey file        private key to sign OCSP request with', 0aH, 00H ; `string'
CONST	ENDS
;	COMDAT ??_C@_0DM@OAPGCCLL@?9signer?5file?5?5?5?5?5?5?5?5?5certificate@
CONST	SEGMENT
??_C@_0DM@OAPGCCLL@?9signer?5file?5?5?5?5?5?5?5?5?5certificate@ DB '-sign'
	DB	'er file         certificate to sign OCSP request with', 0aH, 00H ; `string'
CONST	ENDS
;	COMDAT ??_C@_0CN@JJAINCKG@?9serial?5n?5?5?5?5?5?5?5?5?5?5?5?5serial?5numb@
CONST	SEGMENT
??_C@_0CN@JJAINCKG@?9serial?5n?5?5?5?5?5?5?5?5?5?5?5?5serial?5numb@ DB '-'
	DB	'serial n            serial number to check', 0aH, 00H ; `string'
CONST	ENDS
;	COMDAT ??_C@_0CL@LBLFHPLJ@?9cert?5file?5?5?5?5?5?5?5?5?5?5?5certificate@
CONST	SEGMENT
??_C@_0CL@LBLFHPLJ@?9cert?5file?5?5?5?5?5?5?5?5?5?5?5certificate@ DB '-ce'
	DB	'rt file           certificate to check', 0aH, 00H ; `string'
CONST	ENDS
;	COMDAT ??_C@_0CJ@INIFFENJ@?9issuer?5file?5?5?5?5?5?5?5?5?5issuer?5cert@
CONST	SEGMENT
??_C@_0CJ@INIFFENJ@?9issuer?5file?5?5?5?5?5?5?5?5?5issuer?5cert@ DB '-iss'
	DB	'uer file         issuer certificate', 0aH, 00H ; `string'
CONST	ENDS
;	COMDAT ??_C@_0CG@HCAICIBJ@?9out?5file?5?5?5?5?5?5?5?5?5?5?5?5output?5file@
CONST	SEGMENT
??_C@_0CG@HCAICIBJ@?9out?5file?5?5?5?5?5?5?5?5?5?5?5?5output?5file@ DB '-'
	DB	'out file            output filename', 0aH, 00H ; `string'
CONST	ENDS
;	COMDAT ??_C@_0BD@KHANLAHK@where?5options?5are?6?$AA@
CONST	SEGMENT
??_C@_0BD@KHANLAHK@where?5options?5are?6?$AA@ DB 'where options are', 0aH
	DB	00H						; `string'
CONST	ENDS
;	COMDAT ??_C@_0BG@DPBAODHH@Usage?5ocsp?5?$FLoptions?$FN?6?$AA@
CONST	SEGMENT
??_C@_0BG@DPBAODHH@Usage?5ocsp?5?$FLoptions?$FN?6?$AA@ DB 'Usage ocsp [op'
	DB	'tions]', 0aH, 00H				; `string'
CONST	ENDS
;	COMDAT ??_C@_0O@GHKOCIBH@OCSP?5utility?6?$AA@
CONST	SEGMENT
??_C@_0O@GHKOCIBH@OCSP?5utility?6?$AA@ DB 'OCSP utility', 0aH, 00H ; `string'
CONST	ENDS
;	COMDAT ??_C@_04IACEHNJA@?9rmd?$AA@
CONST	SEGMENT
??_C@_04IACEHNJA@?9rmd?$AA@ DB '-rmd', 00H		; `string'
CONST	ENDS
;	COMDAT ??_C@_07NLCOKAMA@?9rother?$AA@
CONST	SEGMENT
??_C@_07NLCOKAMA@?9rother?$AA@ DB '-rother', 00H	; `string'
CONST	ENDS
;	COMDAT ??_C@_05CKNLEAGN@?9rkey?$AA@
CONST	SEGMENT
??_C@_05CKNLEAGN@?9rkey?$AA@ DB '-rkey', 00H		; `string'
CONST	ENDS
;	COMDAT ??_C@_08NFLILFLO@?9rsigner?$AA@
CONST	SEGMENT
??_C@_08NFLILFLO@?9rsigner?$AA@ DB '-rsigner', 00H	; `string'
CONST	ENDS
;	COMDAT ??_C@_06EOBNCOPG@?9ndays?$AA@
CONST	SEGMENT
??_C@_06EOBNCOPG@?9ndays?$AA@ DB '-ndays', 00H		; `string'
CONST	ENDS
;	COMDAT ??_C@_0BJ@JHIGBDKO@Illegal?5accept?5count?5?$CFs?6?$AA@
CONST	SEGMENT
??_C@_0BJ@JHIGBDKO@Illegal?5accept?5count?5?$CFs?6?$AA@ DB 'Illegal accep'
	DB	't count %s', 0aH, 00H			; `string'
CONST	ENDS
;	COMDAT ??_C@_09OFNMGMGB@?9nrequest?$AA@
CONST	SEGMENT
??_C@_09OFNMGMGB@?9nrequest?$AA@ DB '-nrequest', 00H	; `string'
CONST	ENDS
;	COMDAT ??_C@_0BK@GPEKJOIP@Illegal?5update?5period?5?$CFs?6?$AA@
CONST	SEGMENT
??_C@_0BK@GPEKJOIP@Illegal?5update?5period?5?$CFs?6?$AA@ DB 'Illegal upda'
	DB	'te period %s', 0aH, 00H			; `string'
CONST	ENDS
;	COMDAT ??_C@_05KGDJBIMA@?9nmin?$AA@
CONST	SEGMENT
??_C@_05KGDJBIMA@?9nmin?$AA@ DB '-nmin', 00H		; `string'
CONST	ENDS
;	COMDAT ??_C@_03BHFNBKNN@?9CA?$AA@
CONST	SEGMENT
??_C@_03BHFNBKNN@?9CA?$AA@ DB '-CA', 00H		; `string'
CONST	ENDS
;	COMDAT ??_C@_06NILOHFAC@?9index?$AA@
CONST	SEGMENT
??_C@_06NILOHFAC@?9index?$AA@ DB '-index', 00H		; `string'
CONST	ENDS
;	COMDAT ??_C@_07DIHGINNE@?9serial?$AA@
CONST	SEGMENT
??_C@_07DIHGINNE@?9serial?$AA@ DB '-serial', 00H	; `string'
CONST	ENDS
;	COMDAT ??_C@_0M@LLNFCECG@certificate?$AA@
CONST	SEGMENT
??_C@_0M@LLNFCECG@certificate?$AA@ DB 'certificate', 00H ; `string'
CONST	ENDS
;	COMDAT ??_C@_05DLEDECNE@?9cert?$AA@
CONST	SEGMENT
??_C@_05DLEDECNE@?9cert?$AA@ DB '-cert', 00H		; `string'
CONST	ENDS
;	COMDAT ??_C@_0BD@NHPOFJGA@issuer?5certificate?$AA@
CONST	SEGMENT
??_C@_0BD@NHPOFJGA@issuer?5certificate?$AA@ DB 'issuer certificate', 00H ; `string'
CONST	ENDS
;	COMDAT ??_C@_07NKLAPJEG@?9issuer?$AA@
CONST	SEGMENT
??_C@_07NKLAPJEG@?9issuer?$AA@ DB '-issuer', 00H	; `string'
CONST	ENDS
;	COMDAT ??_C@_05HBJLBJDO@?9path?$AA@
CONST	SEGMENT
??_C@_05HBJLBJDO@?9path?$AA@ DB '-path', 00H		; `string'
CONST	ENDS
;	COMDAT ??_C@_08FDPLBFLG@?9respout?$AA@
CONST	SEGMENT
??_C@_08FDPLBFLG@?9respout?$AA@ DB '-respout', 00H	; `string'
CONST	ENDS
;	COMDAT ??_C@_07GFPODAJJ@?9reqout?$AA@
CONST	SEGMENT
??_C@_07GFPODAJJ@?9reqout?$AA@ DB '-reqout', 00H	; `string'
CONST	ENDS
;	COMDAT ??_C@_08DJIMFMFI@?9signkey?$AA@
CONST	SEGMENT
??_C@_08DJIMFMFI@?9signkey?$AA@ DB '-signkey', 00H	; `string'
CONST	ENDS
;	COMDAT ??_C@_0BJ@ODLCHJHI@Illegal?5validity?5age?5?$CFs?6?$AA@
CONST	SEGMENT
??_C@_0BJ@ODLCHJHI@Illegal?5validity?5age?5?$CFs?6?$AA@ DB 'Illegal valid'
	DB	'ity age %s', 0aH, 00H			; `string'
CONST	ENDS
;	COMDAT ??_C@_0M@KGPJPCMD@?9status_age?$AA@
CONST	SEGMENT
??_C@_0M@KGPJPCMD@?9status_age?$AA@ DB '-status_age', 00H ; `string'
CONST	ENDS
;	COMDAT ??_C@_0BM@FKODFKGC@Illegal?5validity?5period?5?$CFs?6?$AA@
CONST	SEGMENT
??_C@_0BM@FKODFKGC@Illegal?5validity?5period?5?$CFs?6?$AA@ DB 'Illegal va'
	DB	'lidity period %s', 0aH, 00H			; `string'
CONST	ENDS
;	COMDAT ??_C@_0BB@EOGPDMHI@?9validity_period?$AA@
CONST	SEGMENT
??_C@_0BB@EOGPDMHI@?9validity_period?$AA@ DB '-validity_period', 00H ; `string'
CONST	ENDS
;	COMDAT ??_C@_07MNNNLALG@?9CApath?$AA@
CONST	SEGMENT
??_C@_07MNNNLALG@?9CApath?$AA@ DB '-CApath', 00H	; `string'
CONST	ENDS
;	COMDAT ??_C@_07EAFCHGPO@?9CAfile?$AA@
CONST	SEGMENT
??_C@_07EAFCHGPO@?9CAfile?$AA@ DB '-CAfile', 00H	; `string'
CONST	ENDS
;	COMDAT ??_C@_0O@GEAKCPGK@?9verify_other?$AA@
CONST	SEGMENT
??_C@_0O@GEAKCPGK@?9verify_other?$AA@ DB '-verify_other', 00H ; `string'
CONST	ENDS
;	COMDAT ??_C@_0M@DIAPAJKH@?9sign_other?$AA@
CONST	SEGMENT
??_C@_0M@DIAPAJKH@?9sign_other?$AA@ DB '-sign_other', 00H ; `string'
CONST	ENDS
;	COMDAT ??_C@_07HFLEMFJH@?9VAfile?$AA@
CONST	SEGMENT
??_C@_07HFLEMFJH@?9VAfile?$AA@ DB '-VAfile', 00H	; `string'
CONST	ENDS
;	COMDAT ??_C@_07KJCLPKOH@?9signer?$AA@
CONST	SEGMENT
??_C@_07KJCLPKOH@?9signer?$AA@ DB '-signer', 00H	; `string'
CONST	ENDS
;	COMDAT ??_C@_07LCFFIEPP@?9respin?$AA@
CONST	SEGMENT
??_C@_07LCFFIEPP@?9respin?$AA@ DB '-respin', 00H	; `string'
CONST	ENDS
;	COMDAT ??_C@_06LEDKFNFF@?9reqin?$AA@
CONST	SEGMENT
??_C@_06LEDKFNFF@?9reqin?$AA@ DB '-reqin', 00H		; `string'
CONST	ENDS
;	COMDAT ??_C@_0L@BPEMCFND@?9resp_text?$AA@
CONST	SEGMENT
??_C@_0L@BPEMCFND@?9resp_text?$AA@ DB '-resp_text', 00H	; `string'
CONST	ENDS
;	COMDAT ??_C@_09EGFEPPPM@?9req_text?$AA@
CONST	SEGMENT
??_C@_09EGFEPPPM@?9req_text?$AA@ DB '-req_text', 00H	; `string'
CONST	ENDS
;	COMDAT ??_C@_05OEBEIMJA@?9text?$AA@
CONST	SEGMENT
??_C@_05OEBEIMJA@?9text?$AA@ DB '-text', 00H		; `string'
CONST	ENDS
;	COMDAT ??_C@_07FPKNAFBC@?9badsig?$AA@
CONST	SEGMENT
??_C@_07FPKNAFBC@?9badsig?$AA@ DB '-badsig', 00H	; `string'
CONST	ENDS
;	COMDAT ??_C@_0L@JJPDMLCK@?9no_intern?$AA@
CONST	SEGMENT
??_C@_0L@JJPDMLCK@?9no_intern?$AA@ DB '-no_intern', 00H	; `string'
CONST	ENDS
;	COMDAT ??_C@_0N@PJGFECGE@?9trust_other?$AA@
CONST	SEGMENT
??_C@_0N@PJGFECGE@?9trust_other?$AA@ DB '-trust_other', 00H ; `string'
CONST	ENDS
;	COMDAT ??_C@_0N@FHCMCJD@?9no_explicit?$AA@
CONST	SEGMENT
??_C@_0N@FHCMCJD@?9no_explicit?$AA@ DB '-no_explicit', 00H ; `string'
CONST	ENDS
;	COMDAT ??_C@_0BA@JNFNNOHM@?9no_cert_checks?$AA@
CONST	SEGMENT
??_C@_0BA@JNFNNOHM@?9no_cert_checks?$AA@ DB '-no_cert_checks', 00H ; `string'
CONST	ENDS
;	COMDAT ??_C@_09PGOBAJAO@?9no_chain?$AA@
CONST	SEGMENT
??_C@_09PGOBAJAO@?9no_chain?$AA@ DB '-no_chain', 00H	; `string'
CONST	ENDS
;	COMDAT ??_C@_0BA@FLGPKOOE@?9no_cert_verify?$AA@
CONST	SEGMENT
??_C@_0BA@FLGPKOOE@?9no_cert_verify?$AA@ DB '-no_cert_verify', 00H ; `string'
CONST	ENDS
;	COMDAT ??_C@_0BF@DDJBKKP@?9no_signature_verify?$AA@
CONST	SEGMENT
??_C@_0BF@DDJBKKP@?9no_signature_verify?$AA@ DB '-no_signature_verify', 00H ; `string'
CONST	ENDS
;	COMDAT ??_C@_09KHEPGJPB@?9no_certs?$AA@
CONST	SEGMENT
??_C@_09KHEPGJPB@?9no_certs?$AA@ DB '-no_certs', 00H	; `string'
CONST	ENDS
;	COMDAT ??_C@_0N@HMEDOOHD@?9resp_key_id?$AA@
CONST	SEGMENT
??_C@_0N@HMEDOOHD@?9resp_key_id?$AA@ DB '-resp_key_id', 00H ; `string'
CONST	ENDS
;	COMDAT ??_C@_0P@KAEKAEAF@?9resp_no_certs?$AA@
CONST	SEGMENT
??_C@_0P@KAEKAEAF@?9resp_no_certs?$AA@ DB '-resp_no_certs', 00H ; `string'
CONST	ENDS
;	COMDAT ??_C@_09EOFPIKIL@?9no_nonce?$AA@
CONST	SEGMENT
??_C@_09EOFPIKIL@?9no_nonce?$AA@ DB '-no_nonce', 00H	; `string'
CONST	ENDS
;	COMDAT ??_C@_06GMIHJMMA@?9nonce?$AA@
CONST	SEGMENT
??_C@_06GMIHJMMA@?9nonce?$AA@ DB '-nonce', 00H		; `string'
CONST	ENDS
;	COMDAT ??_C@_09JLKGPCDL@?9noverify?$AA@
CONST	SEGMENT
??_C@_09JLKGPCDL@?9noverify?$AA@ DB '-noverify', 00H	; `string'
CONST	ENDS
;	COMDAT ??_C@_0M@FIHFBLJJ@?9ignore_err?$AA@
CONST	SEGMENT
??_C@_0M@FIHFBLJJ@?9ignore_err?$AA@ DB '-ignore_err', 00H ; `string'
CONST	ENDS
;	COMDAT ??_C@_07FLMNOHGM@?9header?$AA@
CONST	SEGMENT
??_C@_07FLMNOHGM@?9header?$AA@ DB '-header', 00H	; `string'
CONST	ENDS
;	COMDAT ??_C@_05HDLOEPOC@?9port?$AA@
CONST	SEGMENT
??_C@_05HDLOEPOC@?9port?$AA@ DB '-port', 00H		; `string'
CONST	ENDS
;	COMDAT ??_C@_05CCOMPJJG@?9host?$AA@
CONST	SEGMENT
??_C@_05CCOMPJJG@?9host?$AA@ DB '-host', 00H		; `string'
CONST	ENDS
;	COMDAT ??_C@_0BD@CCODGPPI@Error?5parsing?5URL?6?$AA@
CONST	SEGMENT
??_C@_0BD@CCODGPPI@Error?5parsing?5URL?6?$AA@ DB 'Error parsing URL', 0aH
	DB	00H						; `string'
CONST	ENDS
;	COMDAT ??_C@_04MCFACLGM@?9url?$AA@
CONST	SEGMENT
??_C@_04MCFACLGM@?9url?$AA@ DB '-url', 00H		; `string'
CONST	ENDS
;	COMDAT ??_C@_0BK@GCHABJGB@Illegal?5timeout?5value?5?$CFs?6?$AA@
CONST	SEGMENT
??_C@_0BK@GCHABJGB@Illegal?5timeout?5value?5?$CFs?6?$AA@ DB 'Illegal time'
	DB	'out value %s', 0aH, 00H			; `string'
CONST	ENDS
;	COMDAT ??_C@_08MDOIANFM@?9timeout?$AA@
CONST	SEGMENT
??_C@_08MDOIANFM@?9timeout?$AA@ DB '-timeout', 00H	; `string'
CONST	ENDS
;	COMDAT ??_C@_04HKKABCEL@?9out?$AA@
CONST	SEGMENT
??_C@_04HKKABCEL@?9out?$AA@ DB '-out', 00H		; `string'
CONST	ENDS
;	COMDAT ??_C@_01KMDKNFGN@?1?$AA@
CONST	SEGMENT
??_C@_01KMDKNFGN@?1?$AA@ DB '/', 00H			; `string'
CONST	ENDS
; Function compile flags: /Ogtpy
;	COMDAT _ocsp_main
_TEXT	SEGMENT
_args$ = -252						; size = 4
_badarg$ = -248						; size = 4
_cbio$ = -244						; size = 4
_rdb$1$ = -240						; size = 4
_verify_flags$1$ = -236					; size = 4
_req$ = -232						; size = 4
_resp$ = -228						; size = 4
_port$ = -224						; size = 4
_out$1$ = -220						; size = 4
_add_nonce$1$ = -216					; size = 4
_acbio$1$ = -212					; size = 4
_outfile$1$ = -208					; size = 4
_signfile$1$ = -204					; size = 4
_rflags$1$ = -200					; size = 4
_host$ = -196						; size = 4
_ridx_filename$1$ = -192				; size = 4
_issuer$1$ = -188					; size = 4
_reqnames$1$ = -184					; size = 4
_ids$1$ = -180						; size = 4
_reqout$1$ = -176					; size = 4
_ndays$1$ = -172					; size = 4
_path$ = -168						; size = 4
_rkey$1$ = -164						; size = 4
_rsigner$1$ = -160					; size = 4
_rca_cert$1$ = -156					; size = 4
_thost$1$ = -152					; size = 4
_tport$1$ = -148					; size = 4
_tpath$1$ = -144					; size = 4
_reqin$1$ = -140					; size = 4
_keyfile$1$ = -136					; size = 4
_sign_flags$1$ = -132					; size = 4
_req_text$1$ = -128					; size = 4
_respin$1$ = -124					; size = 4
_resp_text$1$ = -120					; size = 4
_accept_count$1$ = -116					; size = 4
_respout$1$ = -112					; size = 4
_verify_certfile$1$ = -108				; size = 4
_store$1$ = -104					; size = 4
_vpm$ = -100						; size = 4
_cert$1$ = -96						; size = 4
_sign_other$1$ = -92					; size = 4
_verify_other$1$ = -88					; size = 4
_headers$ = -84						; size = 4
_rsignfile$1$ = -80					; size = 4
_rkeyfile$2$ = -76					; size = 4
_rca_filename$1$ = -72					; size = 4
_rcertfile$1$ = -68					; size = 4
_sign_certfile$1$ = -64					; size = 4
_badsig$1$ = -60					; size = 4
_nmin$1$ = -56						; size = 4
_rother$1$ = -52					; size = 4
_rsign_md$1$ = -48					; size = 4
_req_timeout$1$ = -44					; size = 4
_use_ssl$ = -40						; size = 4
_ignore_err$1$ = -36					; size = 4
_CApath$1$ = -32					; size = 4
_CAfile$1$ = -28					; size = 4
_noverify$1$ = -24					; size = 4
_maxage$1$ = -20					; size = 4
_nsec$1$ = -16						; size = 4
_signer$1$ = -12					; size = 4
_key$1$ = -8						; size = 4
_bs$1$ = -4						; size = 4
_argc$ = 8						; size = 4
_argv$ = 12						; size = 4
_ocsp_main PROC						; COMDAT
; File c:\workpace\openssl\openssl-1.0.2h\apps\ocsp.c
; Line 132
	mov	eax, 252				; 000000fcH
	call	__chkstk
; Line 137
	push	ebx
	push	ebp
; Line 176
	push	esi
	push	edi
; Line 137
	xor	eax, eax
	mov	DWORD PTR _host$[esp+268], 0
	mov	DWORD PTR _respin$1$[esp+268], eax
	xor	ebp, ebp
; Line 138
	mov	DWORD PTR _reqout$1$[esp+268], eax
; Line 176
	xor	ebx, ebx
	mov	DWORD PTR _respout$1$[esp+268], eax
	mov	DWORD PTR _signfile$1$[esp+268], eax
	mov	DWORD PTR _keyfile$1$[esp+268], eax
	mov	DWORD PTR _rsignfile$1$[esp+268], eax
	mov	DWORD PTR _rkeyfile$2$[esp+268], eax
	mov	DWORD PTR _noverify$1$[esp+268], eax
	mov	DWORD PTR _headers$[esp+268], eax
	mov	DWORD PTR _resp$[esp+268], eax
	mov	DWORD PTR _bs$1$[esp+268], eax
	mov	DWORD PTR _issuer$1$[esp+268], eax
	mov	DWORD PTR _cert$1$[esp+268], eax
	mov	DWORD PTR _signer$1$[esp+268], eax
	mov	DWORD PTR _rsigner$1$[esp+268], eax
	mov	DWORD PTR _key$1$[esp+268], eax
	mov	DWORD PTR _rkey$1$[esp+268], eax
	mov	DWORD PTR _acbio$1$[esp+268], eax
	mov	DWORD PTR _cbio$[esp+268], eax
	mov	DWORD PTR _out$1$[esp+268], eax
	mov	DWORD PTR _req_text$1$[esp+268], eax
	mov	DWORD PTR _resp_text$1$[esp+268], eax
	mov	DWORD PTR _CAfile$1$[esp+268], eax
	mov	DWORD PTR _CApath$1$[esp+268], eax
	mov	DWORD PTR _store$1$[esp+268], eax
	mov	DWORD PTR _vpm$[esp+268], eax
	mov	DWORD PTR _sign_other$1$[esp+268], eax
	mov	DWORD PTR _verify_other$1$[esp+268], eax
	mov	DWORD PTR _rother$1$[esp+268], eax
	mov	DWORD PTR _sign_certfile$1$[esp+268], eax
	mov	DWORD PTR _verify_certfile$1$[esp+268], eax
	mov	DWORD PTR _rcertfile$1$[esp+268], eax
	mov	DWORD PTR _sign_flags$1$[esp+268], eax
	mov	DWORD PTR _verify_flags$1$[esp+268], eax
	mov	DWORD PTR _rflags$1$[esp+268], eax
	or	eax, -1
	xor	esi, esi
	mov	DWORD PTR _accept_count$1$[esp+268], eax
	xor	edi, edi
	mov	DWORD PTR _ndays$1$[esp+268], eax
; Line 178
	mov	eax, DWORD PTR _bio_err
	mov	DWORD PTR _port$[esp+268], 0
	mov	DWORD PTR _path$[esp+268], OFFSET ??_C@_01KMDKNFGN@?1?$AA@
	mov	DWORD PTR _thost$1$[esp+268], 0
	mov	DWORD PTR _tport$1$[esp+268], 0
	mov	DWORD PTR _tpath$1$[esp+268], 0
	mov	DWORD PTR _reqin$1$[esp+268], ebp
	mov	DWORD PTR _outfile$1$[esp+268], esi
	mov	DWORD PTR _add_nonce$1$[esp+268], 1
	mov	DWORD PTR _use_ssl$[esp+268], -1
	mov	DWORD PTR _req$[esp+268], edi
	mov	DWORD PTR _req_timeout$1$[esp+268], -1
	mov	DWORD PTR _nsec$1$[esp+268], 300	; 0000012cH
	mov	DWORD PTR _maxage$1$[esp+268], -1
	mov	DWORD PTR _badarg$[esp+268], esi
	mov	DWORD PTR _badsig$1$[esp+268], esi
	mov	DWORD PTR _ignore_err$1$[esp+268], esi
	mov	DWORD PTR _reqnames$1$[esp+268], esi
	mov	DWORD PTR _ids$1$[esp+268], esi
	mov	DWORD PTR _rca_cert$1$[esp+268], esi
	mov	DWORD PTR _ridx_filename$1$[esp+268], esi
	mov	DWORD PTR _rca_filename$1$[esp+268], esi
	mov	DWORD PTR _rdb$1$[esp+268], esi
	mov	DWORD PTR _nmin$1$[esp+268], esi
	mov	DWORD PTR _rsign_md$1$[esp+268], ebx
	test	eax, eax
	jne	SHORT $LN4@ocsp_main
; Line 179
	push	eax
	push	2
	call	DWORD PTR __imp____acrt_iob_func
	add	esp, 4
	push	eax
	call	_BIO_new_fp
	add	esp, 8
	mov	DWORD PTR _bio_err, eax
$LN4@ocsp_main:
; Line 181
	push	0
	push	eax
	call	_load_config
	add	esp, 8
	test	eax, eax
	je	$LN600@ocsp_main
; Line 183
	call	_SSL_load_error_strings
; Line 184
	call	_SSL_library_init
; Line 185
	mov	eax, DWORD PTR _argv$[esp+264]
	add	eax, 4
	mov	DWORD PTR _args$[esp+268], eax
; Line 186
	call	_sk_new_null
	mov	DWORD PTR _reqnames$1$[esp+268], eax
; Line 187
	call	_sk_new_null
	mov	DWORD PTR _ids$1$[esp+268], eax
; Line 188
	cmp	DWORD PTR _badarg$[esp+268], ebx
	jne	$LN555@ocsp_main
	mov	ebp, DWORD PTR __imp__atol
$LN585@ocsp_main:
	mov	edi, DWORD PTR _args$[esp+268]
	npad	4
$LL2@ocsp_main:
	mov	esi, DWORD PTR [edi]
	test	esi, esi
	je	$LN3@ocsp_main
	cmp	BYTE PTR [esi], 45			; 0000002dH
	jne	$LN3@ocsp_main
; Line 189
	mov	ecx, OFFSET ??_C@_04HKKABCEL@?9out?$AA@
	mov	eax, esi
	npad	6
$LL326@ocsp_main:
	mov	dl, BYTE PTR [eax]
	cmp	dl, BYTE PTR [ecx]
	jne	SHORT $LN327@ocsp_main
	test	dl, dl
	je	SHORT $LN328@ocsp_main
	mov	dl, BYTE PTR [eax+1]
	cmp	dl, BYTE PTR [ecx+1]
	jne	SHORT $LN327@ocsp_main
	add	eax, 2
	add	ecx, 2
	test	dl, dl
	jne	SHORT $LL326@ocsp_main
$LN328@ocsp_main:
	xor	eax, eax
	jmp	SHORT $LN329@ocsp_main
$LN327@ocsp_main:
	sbb	eax, eax
	or	eax, 1
$LN329@ocsp_main:
	test	eax, eax
	jne	SHORT $LN6@ocsp_main
; Line 190
	cmp	DWORD PTR [edi+4], eax
	je	$LN191@ocsp_main
; Line 191
	add	edi, 4
	mov	DWORD PTR _args$[esp+268], edi
; Line 192
	mov	eax, DWORD PTR [edi]
	mov	DWORD PTR _outfile$1$[esp+268], eax
; Line 193
	jmp	$LN194@ocsp_main
$LN6@ocsp_main:
; Line 195
	mov	ecx, OFFSET ??_C@_08MDOIANFM@?9timeout?$AA@
	mov	eax, esi
	npad	5
$LL330@ocsp_main:
	mov	dl, BYTE PTR [eax]
	cmp	dl, BYTE PTR [ecx]
	jne	SHORT $LN331@ocsp_main
	test	dl, dl
	je	SHORT $LN332@ocsp_main
	mov	dl, BYTE PTR [eax+1]
	cmp	dl, BYTE PTR [ecx+1]
	jne	SHORT $LN331@ocsp_main
	add	eax, 2
	add	ecx, 2
	test	dl, dl
	jne	SHORT $LL330@ocsp_main
$LN332@ocsp_main:
	xor	eax, eax
	jmp	SHORT $LN333@ocsp_main
$LN331@ocsp_main:
	sbb	eax, eax
	or	eax, 1
$LN333@ocsp_main:
	test	eax, eax
	jne	SHORT $LN10@ocsp_main
; Line 196
	cmp	DWORD PTR [edi+4], 0
	lea	eax, DWORD PTR [edi+4]
	je	$LN191@ocsp_main
; Line 197
	mov	DWORD PTR _args$[esp+268], eax
; Line 198
	push	DWORD PTR [eax]
	call	ebp
	add	esp, 4
	mov	DWORD PTR _req_timeout$1$[esp+268], eax
; Line 199
	test	eax, eax
	jns	$LN584@ocsp_main
; Line 200
	mov	eax, DWORD PTR _args$[esp+268]
	push	DWORD PTR [eax]
	push	OFFSET ??_C@_0BK@GCHABJGB@Illegal?5timeout?5value?5?$CFs?6?$AA@
$LN586@ocsp_main:
	push	DWORD PTR _bio_err
	call	_BIO_printf
	add	esp, 12					; 0000000cH
; Line 201
	mov	DWORD PTR _badarg$[esp+268], 1
; Line 203
	jmp	$LN584@ocsp_main
$LN10@ocsp_main:
; Line 205
	mov	ecx, OFFSET ??_C@_04MCFACLGM@?9url?$AA@
	mov	eax, esi
	npad	3
$LL334@ocsp_main:
	mov	dl, BYTE PTR [eax]
	cmp	dl, BYTE PTR [ecx]
	jne	SHORT $LN335@ocsp_main
	test	dl, dl
	je	SHORT $LN336@ocsp_main
	mov	dl, BYTE PTR [eax+1]
	cmp	dl, BYTE PTR [ecx+1]
	jne	SHORT $LN335@ocsp_main
	add	eax, 2
	add	ecx, 2
	test	dl, dl
	jne	SHORT $LL334@ocsp_main
$LN336@ocsp_main:
	xor	eax, eax
	jmp	SHORT $LN337@ocsp_main
$LN335@ocsp_main:
	sbb	eax, eax
	or	eax, 1
$LN337@ocsp_main:
	test	eax, eax
	jne	$LN15@ocsp_main
; Line 206
	mov	eax, DWORD PTR _thost$1$[esp+268]
	test	eax, eax
	je	SHORT $LN17@ocsp_main
; Line 207
	push	eax
	call	_CRYPTO_free
	mov	edi, DWORD PTR _args$[esp+272]
	add	esp, 4
$LN17@ocsp_main:
; Line 208
	mov	eax, DWORD PTR _tport$1$[esp+268]
	test	eax, eax
	je	SHORT $LN18@ocsp_main
; Line 209
	push	eax
	call	_CRYPTO_free
	mov	edi, DWORD PTR _args$[esp+272]
	add	esp, 4
$LN18@ocsp_main:
; Line 210
	mov	eax, DWORD PTR _tpath$1$[esp+268]
	test	eax, eax
	je	SHORT $LN19@ocsp_main
; Line 211
	push	eax
	call	_CRYPTO_free
	mov	edi, DWORD PTR _args$[esp+272]
	add	esp, 4
$LN19@ocsp_main:
; Line 213
	cmp	DWORD PTR [edi+4], 0
	lea	eax, DWORD PTR [edi+4]
	mov	DWORD PTR _tpath$1$[esp+268], 0
	mov	DWORD PTR _tport$1$[esp+268], 0
	mov	DWORD PTR _thost$1$[esp+268], 0
	je	$LN191@ocsp_main
; Line 215
	lea	ecx, DWORD PTR _use_ssl$[esp+268]
	mov	DWORD PTR _args$[esp+268], eax
	push	ecx
	lea	ecx, DWORD PTR _path$[esp+272]
	push	ecx
	lea	ecx, DWORD PTR _port$[esp+276]
	push	ecx
	lea	ecx, DWORD PTR _host$[esp+280]
	push	ecx
	push	DWORD PTR [eax]
	call	_OCSP_parse_url
	add	esp, 20					; 00000014H
	test	eax, eax
	jne	SHORT $LN551@ocsp_main
; Line 216
	push	OFFSET ??_C@_0BD@CCODGPPI@Error?5parsing?5URL?6?$AA@
	push	DWORD PTR _bio_err
	call	_BIO_printf
	add	esp, 8
; Line 217
	mov	DWORD PTR _badarg$[esp+268], 1
$LN551@ocsp_main:
; Line 219
	mov	eax, DWORD PTR _host$[esp+268]
	mov	DWORD PTR _thost$1$[esp+268], eax
; Line 220
	mov	eax, DWORD PTR _port$[esp+268]
	mov	DWORD PTR _tport$1$[esp+268], eax
; Line 221
	mov	eax, DWORD PTR _path$[esp+268]
	mov	DWORD PTR _tpath$1$[esp+268], eax
; Line 222
	jmp	$LN584@ocsp_main
$LN15@ocsp_main:
; Line 224
	mov	ecx, OFFSET ??_C@_05CCOMPJJG@?9host?$AA@
	mov	eax, esi
	npad	7
$LL338@ocsp_main:
	mov	dl, BYTE PTR [eax]
	cmp	dl, BYTE PTR [ecx]
	jne	SHORT $LN339@ocsp_main
	test	dl, dl
	je	SHORT $LN340@ocsp_main
	mov	dl, BYTE PTR [eax+1]
	cmp	dl, BYTE PTR [ecx+1]
	jne	SHORT $LN339@ocsp_main
	add	eax, 2
	add	ecx, 2
	test	dl, dl
	jne	SHORT $LL338@ocsp_main
$LN340@ocsp_main:
	xor	eax, eax
	jmp	SHORT $LN341@ocsp_main
$LN339@ocsp_main:
	sbb	eax, eax
	or	eax, 1
$LN341@ocsp_main:
	test	eax, eax
	jne	SHORT $LN23@ocsp_main
; Line 225
	cmp	DWORD PTR [edi+4], eax
	je	$LN191@ocsp_main
; Line 226
	add	edi, 4
	mov	DWORD PTR _args$[esp+268], edi
; Line 227
	mov	eax, DWORD PTR [edi]
	mov	DWORD PTR _host$[esp+268], eax
; Line 228
	jmp	$LN194@ocsp_main
$LN23@ocsp_main:
; Line 230
	mov	ecx, OFFSET ??_C@_05HDLOEPOC@?9port?$AA@
	mov	eax, esi
	npad	5
$LL342@ocsp_main:
	mov	dl, BYTE PTR [eax]
	cmp	dl, BYTE PTR [ecx]
	jne	SHORT $LN343@ocsp_main
	test	dl, dl
	je	SHORT $LN344@ocsp_main
	mov	dl, BYTE PTR [eax+1]
	cmp	dl, BYTE PTR [ecx+1]
	jne	SHORT $LN343@ocsp_main
	add	eax, 2
	add	ecx, 2
	test	dl, dl
	jne	SHORT $LL342@ocsp_main
$LN344@ocsp_main:
	xor	eax, eax
	jmp	SHORT $LN345@ocsp_main
$LN343@ocsp_main:
	sbb	eax, eax
	or	eax, 1
$LN345@ocsp_main:
	test	eax, eax
	jne	SHORT $LN27@ocsp_main
; Line 231
	cmp	DWORD PTR [edi+4], eax
	je	$LN191@ocsp_main
; Line 232
	add	edi, 4
	mov	DWORD PTR _args$[esp+268], edi
; Line 233
	mov	eax, DWORD PTR [edi]
	mov	DWORD PTR _port$[esp+268], eax
; Line 234
	jmp	$LN194@ocsp_main
$LN27@ocsp_main:
; Line 236
	mov	ecx, OFFSET ??_C@_07FLMNOHGM@?9header?$AA@
	mov	eax, esi
	npad	5
$LL346@ocsp_main:
	mov	dl, BYTE PTR [eax]
	cmp	dl, BYTE PTR [ecx]
	jne	SHORT $LN347@ocsp_main
	test	dl, dl
	je	SHORT $LN348@ocsp_main
	mov	dl, BYTE PTR [eax+1]
	cmp	dl, BYTE PTR [ecx+1]
	jne	SHORT $LN347@ocsp_main
	add	eax, 2
	add	ecx, 2
	test	dl, dl
	jne	SHORT $LL346@ocsp_main
$LN348@ocsp_main:
	xor	eax, eax
	jmp	SHORT $LN349@ocsp_main
$LN347@ocsp_main:
	sbb	eax, eax
	or	eax, 1
$LN349@ocsp_main:
	test	eax, eax
	jne	SHORT $LN31@ocsp_main
; Line 237
	mov	ecx, DWORD PTR [edi+4]
	test	ecx, ecx
	je	$LN191@ocsp_main
	mov	eax, DWORD PTR [edi+8]
	test	eax, eax
	je	$LN191@ocsp_main
; Line 238
	lea	edx, DWORD PTR _headers$[esp+268]
	push	edx
	push	eax
	push	ecx
	call	_X509V3_add_value
	add	esp, 12					; 0000000cH
	test	eax, eax
	je	$LN560@ocsp_main
; Line 240
	mov	edi, DWORD PTR _args$[esp+268]
	add	edi, 8
; Line 241
	jmp	$LN194@ocsp_main
$LN31@ocsp_main:
; Line 243
	mov	ecx, OFFSET ??_C@_0M@FIHFBLJJ@?9ignore_err?$AA@
	mov	eax, esi
	npad	4
$LL350@ocsp_main:
	mov	dl, BYTE PTR [eax]
	cmp	dl, BYTE PTR [ecx]
	jne	SHORT $LN351@ocsp_main
	test	dl, dl
	je	SHORT $LN352@ocsp_main
	mov	dl, BYTE PTR [eax+1]
	cmp	dl, BYTE PTR [ecx+1]
	jne	SHORT $LN351@ocsp_main
	add	eax, 2
	add	ecx, 2
	test	dl, dl
	jne	SHORT $LL350@ocsp_main
$LN352@ocsp_main:
	xor	eax, eax
	jmp	SHORT $LN353@ocsp_main
$LN351@ocsp_main:
	sbb	eax, eax
	or	eax, 1
$LN353@ocsp_main:
	test	eax, eax
	jne	SHORT $LN36@ocsp_main
; Line 244
	mov	DWORD PTR _ignore_err$1$[esp+268], 1
	jmp	$LN194@ocsp_main
$LN36@ocsp_main:
; Line 245
	mov	ecx, OFFSET ??_C@_09JLKGPCDL@?9noverify?$AA@
	mov	eax, esi
$LL354@ocsp_main:
	mov	dl, BYTE PTR [eax]
	cmp	dl, BYTE PTR [ecx]
	jne	SHORT $LN355@ocsp_main
	test	dl, dl
	je	SHORT $LN356@ocsp_main
	mov	dl, BYTE PTR [eax+1]
	cmp	dl, BYTE PTR [ecx+1]
	jne	SHORT $LN355@ocsp_main
	add	eax, 2
	add	ecx, 2
	test	dl, dl
	jne	SHORT $LL354@ocsp_main
$LN356@ocsp_main:
	xor	eax, eax
	jmp	SHORT $LN357@ocsp_main
$LN355@ocsp_main:
	sbb	eax, eax
	or	eax, 1
$LN357@ocsp_main:
	test	eax, eax
	jne	SHORT $LN38@ocsp_main
; Line 246
	mov	DWORD PTR _noverify$1$[esp+268], 1
	jmp	$LN194@ocsp_main
$LN38@ocsp_main:
; Line 247
	mov	ecx, OFFSET ??_C@_06GMIHJMMA@?9nonce?$AA@
	mov	eax, esi
$LL358@ocsp_main:
	mov	dl, BYTE PTR [eax]
	cmp	dl, BYTE PTR [ecx]
	jne	SHORT $LN359@ocsp_main
	test	dl, dl
	je	SHORT $LN360@ocsp_main
	mov	dl, BYTE PTR [eax+1]
	cmp	dl, BYTE PTR [ecx+1]
	jne	SHORT $LN359@ocsp_main
	add	eax, 2
	add	ecx, 2
	test	dl, dl
	jne	SHORT $LL358@ocsp_main
$LN360@ocsp_main:
	xor	eax, eax
	jmp	SHORT $LN361@ocsp_main
$LN359@ocsp_main:
	sbb	eax, eax
	or	eax, 1
$LN361@ocsp_main:
	test	eax, eax
	jne	SHORT $LN40@ocsp_main
; Line 248
	mov	DWORD PTR _add_nonce$1$[esp+268], 2
	jmp	$LN194@ocsp_main
$LN40@ocsp_main:
; Line 249
	mov	ecx, OFFSET ??_C@_09EOFPIKIL@?9no_nonce?$AA@
	mov	eax, esi
	npad	3
$LL362@ocsp_main:
	mov	dl, BYTE PTR [eax]
	cmp	dl, BYTE PTR [ecx]
	jne	SHORT $LN363@ocsp_main
	test	dl, dl
	je	SHORT $LN364@ocsp_main
	mov	dl, BYTE PTR [eax+1]
	cmp	dl, BYTE PTR [ecx+1]
	jne	SHORT $LN363@ocsp_main
	add	eax, 2
	add	ecx, 2
	test	dl, dl
	jne	SHORT $LL362@ocsp_main
$LN364@ocsp_main:
	xor	eax, eax
	jmp	SHORT $LN365@ocsp_main
$LN363@ocsp_main:
	sbb	eax, eax
	or	eax, 1
$LN365@ocsp_main:
	test	eax, eax
	jne	SHORT $LN42@ocsp_main
; Line 250
	mov	DWORD PTR _add_nonce$1$[esp+268], eax
	jmp	$LN194@ocsp_main
$LN42@ocsp_main:
; Line 251
	mov	ecx, OFFSET ??_C@_0P@KAEKAEAF@?9resp_no_certs?$AA@
	mov	eax, esi
	npad	7
$LL366@ocsp_main:
	mov	dl, BYTE PTR [eax]
	cmp	dl, BYTE PTR [ecx]
	jne	SHORT $LN367@ocsp_main
	test	dl, dl
	je	SHORT $LN368@ocsp_main
	mov	dl, BYTE PTR [eax+1]
	cmp	dl, BYTE PTR [ecx+1]
	jne	SHORT $LN367@ocsp_main
	add	eax, 2
	add	ecx, 2
	test	dl, dl
	jne	SHORT $LL366@ocsp_main
$LN368@ocsp_main:
	xor	eax, eax
	jmp	SHORT $LN369@ocsp_main
$LN367@ocsp_main:
	sbb	eax, eax
	or	eax, 1
$LN369@ocsp_main:
	test	eax, eax
	jne	SHORT $LN44@ocsp_main
; Line 252
	or	DWORD PTR _rflags$1$[esp+268], 1
	jmp	$LN194@ocsp_main
$LN44@ocsp_main:
; Line 253
	mov	ecx, OFFSET ??_C@_0N@HMEDOOHD@?9resp_key_id?$AA@
	mov	eax, esi
	npad	6
$LL370@ocsp_main:
	mov	dl, BYTE PTR [eax]
	cmp	dl, BYTE PTR [ecx]
	jne	SHORT $LN371@ocsp_main
	test	dl, dl
	je	SHORT $LN372@ocsp_main
	mov	dl, BYTE PTR [eax+1]
	cmp	dl, BYTE PTR [ecx+1]
	jne	SHORT $LN371@ocsp_main
	add	eax, 2
	add	ecx, 2
	test	dl, dl
	jne	SHORT $LL370@ocsp_main
$LN372@ocsp_main:
	xor	eax, eax
	jmp	SHORT $LN373@ocsp_main
$LN371@ocsp_main:
	sbb	eax, eax
	or	eax, 1
$LN373@ocsp_main:
	test	eax, eax
	jne	SHORT $LN46@ocsp_main
; Line 254
	or	DWORD PTR _rflags$1$[esp+268], 1024	; 00000400H
	jmp	$LN194@ocsp_main
$LN46@ocsp_main:
; Line 255
	mov	ecx, OFFSET ??_C@_09KHEPGJPB@?9no_certs?$AA@
	mov	eax, esi
	npad	3
$LL374@ocsp_main:
	mov	dl, BYTE PTR [eax]
	cmp	dl, BYTE PTR [ecx]
	jne	SHORT $LN375@ocsp_main
	test	dl, dl
	je	SHORT $LN376@ocsp_main
	mov	dl, BYTE PTR [eax+1]
	cmp	dl, BYTE PTR [ecx+1]
	jne	SHORT $LN375@ocsp_main
	add	eax, 2
	add	ecx, 2
	test	dl, dl
	jne	SHORT $LL374@ocsp_main
$LN376@ocsp_main:
	xor	eax, eax
	jmp	SHORT $LN377@ocsp_main
$LN375@ocsp_main:
	sbb	eax, eax
	or	eax, 1
$LN377@ocsp_main:
	test	eax, eax
	jne	SHORT $LN48@ocsp_main
; Line 256
	or	DWORD PTR _sign_flags$1$[esp+268], 1
	jmp	$LN194@ocsp_main
$LN48@ocsp_main:
; Line 257
	mov	ecx, OFFSET ??_C@_0BF@DDJBKKP@?9no_signature_verify?$AA@
	mov	eax, esi
	npad	3
$LL378@ocsp_main:
	mov	dl, BYTE PTR [eax]
	cmp	dl, BYTE PTR [ecx]
	jne	SHORT $LN379@ocsp_main
	test	dl, dl
	je	SHORT $LN380@ocsp_main
	mov	dl, BYTE PTR [eax+1]
	cmp	dl, BYTE PTR [ecx+1]
	jne	SHORT $LN379@ocsp_main
	add	eax, 2
	add	ecx, 2
	test	dl, dl
	jne	SHORT $LL378@ocsp_main
$LN380@ocsp_main:
	xor	eax, eax
	jmp	SHORT $LN381@ocsp_main
$LN379@ocsp_main:
	sbb	eax, eax
	or	eax, 1
$LN381@ocsp_main:
	test	eax, eax
	jne	SHORT $LN50@ocsp_main
; Line 258
	or	DWORD PTR _verify_flags$1$[esp+268], 4
	jmp	$LN194@ocsp_main
$LN50@ocsp_main:
; Line 259
	mov	ecx, OFFSET ??_C@_0BA@FLGPKOOE@?9no_cert_verify?$AA@
	mov	eax, esi
	npad	6
$LL382@ocsp_main:
	mov	dl, BYTE PTR [eax]
	cmp	dl, BYTE PTR [ecx]
	jne	SHORT $LN383@ocsp_main
	test	dl, dl
	je	SHORT $LN384@ocsp_main
	mov	dl, BYTE PTR [eax+1]
	cmp	dl, BYTE PTR [ecx+1]
	jne	SHORT $LN383@ocsp_main
	add	eax, 2
	add	ecx, 2
	test	dl, dl
	jne	SHORT $LL382@ocsp_main
$LN384@ocsp_main:
	xor	eax, eax
	jmp	SHORT $LN385@ocsp_main
$LN383@ocsp_main:
	sbb	eax, eax
	or	eax, 1
$LN385@ocsp_main:
	test	eax, eax
	jne	SHORT $LN52@ocsp_main
; Line 260
	or	DWORD PTR _verify_flags$1$[esp+268], 16	; 00000010H
	jmp	$LN194@ocsp_main
$LN52@ocsp_main:
; Line 261
	mov	ecx, OFFSET ??_C@_09PGOBAJAO@?9no_chain?$AA@
	mov	eax, esi
	npad	6
$LL386@ocsp_main:
	mov	dl, BYTE PTR [eax]
	cmp	dl, BYTE PTR [ecx]
	jne	SHORT $LN387@ocsp_main
	test	dl, dl
	je	SHORT $LN388@ocsp_main
	mov	dl, BYTE PTR [eax+1]
	cmp	dl, BYTE PTR [ecx+1]
	jne	SHORT $LN387@ocsp_main
	add	eax, 2
	add	ecx, 2
	test	dl, dl
	jne	SHORT $LL386@ocsp_main
$LN388@ocsp_main:
	xor	eax, eax
	jmp	SHORT $LN389@ocsp_main
$LN387@ocsp_main:
	sbb	eax, eax
	or	eax, 1
$LN389@ocsp_main:
	test	eax, eax
	jne	SHORT $LN54@ocsp_main
; Line 262
	or	DWORD PTR _verify_flags$1$[esp+268], 8
	jmp	$LN194@ocsp_main
$LN54@ocsp_main:
; Line 263
	mov	ecx, OFFSET ??_C@_0BA@JNFNNOHM@?9no_cert_checks?$AA@
	mov	eax, esi
	npad	6
$LL390@ocsp_main:
	mov	dl, BYTE PTR [eax]
	cmp	dl, BYTE PTR [ecx]
	jne	SHORT $LN391@ocsp_main
	test	dl, dl
	je	SHORT $LN392@ocsp_main
	mov	dl, BYTE PTR [eax+1]
	cmp	dl, BYTE PTR [ecx+1]
	jne	SHORT $LN391@ocsp_main
	add	eax, 2
	add	ecx, 2
	test	dl, dl
	jne	SHORT $LL390@ocsp_main
$LN392@ocsp_main:
	xor	eax, eax
	jmp	SHORT $LN393@ocsp_main
$LN391@ocsp_main:
	sbb	eax, eax
	or	eax, 1
$LN393@ocsp_main:
	test	eax, eax
	jne	SHORT $LN56@ocsp_main
; Line 264
	or	DWORD PTR _verify_flags$1$[esp+268], 256 ; 00000100H
	jmp	$LN194@ocsp_main
$LN56@ocsp_main:
; Line 265
	mov	ecx, OFFSET ??_C@_0N@FHCMCJD@?9no_explicit?$AA@
	mov	eax, esi
	npad	3
$LL394@ocsp_main:
	mov	dl, BYTE PTR [eax]
	cmp	dl, BYTE PTR [ecx]
	jne	SHORT $LN395@ocsp_main
	test	dl, dl
	je	SHORT $LN396@ocsp_main
	mov	dl, BYTE PTR [eax+1]
	cmp	dl, BYTE PTR [ecx+1]
	jne	SHORT $LN395@ocsp_main
	add	eax, 2
	add	ecx, 2
	test	dl, dl
	jne	SHORT $LL394@ocsp_main
$LN396@ocsp_main:
	xor	eax, eax
	jmp	SHORT $LN397@ocsp_main
$LN395@ocsp_main:
	sbb	eax, eax
	or	eax, 1
$LN397@ocsp_main:
	test	eax, eax
	jne	SHORT $LN58@ocsp_main
; Line 266
	or	DWORD PTR _verify_flags$1$[esp+268], 32	; 00000020H
	jmp	$LN194@ocsp_main
$LN58@ocsp_main:
; Line 267
	mov	ecx, OFFSET ??_C@_0N@PJGFECGE@?9trust_other?$AA@
	mov	eax, esi
	npad	6
$LL398@ocsp_main:
	mov	dl, BYTE PTR [eax]
	cmp	dl, BYTE PTR [ecx]
	jne	SHORT $LN399@ocsp_main
	test	dl, dl
	je	SHORT $LN400@ocsp_main
	mov	dl, BYTE PTR [eax+1]
	cmp	dl, BYTE PTR [ecx+1]
	jne	SHORT $LN399@ocsp_main
	add	eax, 2
	add	ecx, 2
	test	dl, dl
	jne	SHORT $LL398@ocsp_main
$LN400@ocsp_main:
	xor	eax, eax
	jmp	SHORT $LN401@ocsp_main
$LN399@ocsp_main:
	sbb	eax, eax
	or	eax, 1
$LN401@ocsp_main:
	test	eax, eax
	jne	SHORT $LN60@ocsp_main
; Line 268
	or	DWORD PTR _verify_flags$1$[esp+268], 512 ; 00000200H
	jmp	$LN194@ocsp_main
$LN60@ocsp_main:
; Line 269
	mov	ecx, OFFSET ??_C@_0L@JJPDMLCK@?9no_intern?$AA@
	mov	eax, esi
	npad	3
$LL402@ocsp_main:
	mov	dl, BYTE PTR [eax]
	cmp	dl, BYTE PTR [ecx]
	jne	SHORT $LN403@ocsp_main
	test	dl, dl
	je	SHORT $LN404@ocsp_main
	mov	dl, BYTE PTR [eax+1]
	cmp	dl, BYTE PTR [ecx+1]
	jne	SHORT $LN403@ocsp_main
	add	eax, 2
	add	ecx, 2
	test	dl, dl
	jne	SHORT $LL402@ocsp_main
$LN404@ocsp_main:
	xor	eax, eax
	jmp	SHORT $LN405@ocsp_main
$LN403@ocsp_main:
	sbb	eax, eax
	or	eax, 1
$LN405@ocsp_main:
	test	eax, eax
	jne	SHORT $LN62@ocsp_main
; Line 270
	or	DWORD PTR _verify_flags$1$[esp+268], 2
	jmp	$LN194@ocsp_main
$LN62@ocsp_main:
; Line 271
	mov	ecx, OFFSET ??_C@_07FPKNAFBC@?9badsig?$AA@
	mov	eax, esi
	npad	6
$LL406@ocsp_main:
	mov	dl, BYTE PTR [eax]
	cmp	dl, BYTE PTR [ecx]
	jne	SHORT $LN407@ocsp_main
	test	dl, dl
	je	SHORT $LN408@ocsp_main
	mov	dl, BYTE PTR [eax+1]
	cmp	dl, BYTE PTR [ecx+1]
	jne	SHORT $LN407@ocsp_main
	add	eax, 2
	add	ecx, 2
	test	dl, dl
	jne	SHORT $LL406@ocsp_main
$LN408@ocsp_main:
	xor	eax, eax
	jmp	SHORT $LN409@ocsp_main
$LN407@ocsp_main:
	sbb	eax, eax
	or	eax, 1
$LN409@ocsp_main:
	test	eax, eax
	jne	SHORT $LN64@ocsp_main
; Line 272
	mov	DWORD PTR _badsig$1$[esp+268], 1
	jmp	$LN194@ocsp_main
$LN64@ocsp_main:
; Line 273
	mov	ecx, OFFSET ??_C@_05OEBEIMJA@?9text?$AA@
	mov	eax, esi
$LL410@ocsp_main:
	mov	dl, BYTE PTR [eax]
	cmp	dl, BYTE PTR [ecx]
	jne	SHORT $LN411@ocsp_main
	test	dl, dl
	je	SHORT $LN412@ocsp_main
	mov	dl, BYTE PTR [eax+1]
	cmp	dl, BYTE PTR [ecx+1]
	jne	SHORT $LN411@ocsp_main
	add	eax, 2
	add	ecx, 2
	test	dl, dl
	jne	SHORT $LL410@ocsp_main
$LN412@ocsp_main:
	xor	eax, eax
	jmp	SHORT $LN413@ocsp_main
$LN411@ocsp_main:
	sbb	eax, eax
	or	eax, 1
$LN413@ocsp_main:
	test	eax, eax
	jne	SHORT $LN66@ocsp_main
; Line 274
	mov	DWORD PTR _req_text$1$[esp+268], 1
; Line 275
	mov	DWORD PTR _resp_text$1$[esp+268], 1
	jmp	$LN194@ocsp_main
$LN66@ocsp_main:
; Line 276
	mov	ecx, OFFSET ??_C@_09EGFEPPPM@?9req_text?$AA@
	mov	eax, esi
	npad	5
$LL414@ocsp_main:
	mov	dl, BYTE PTR [eax]
	cmp	dl, BYTE PTR [ecx]
	jne	SHORT $LN415@ocsp_main
	test	dl, dl
	je	SHORT $LN416@ocsp_main
	mov	dl, BYTE PTR [eax+1]
	cmp	dl, BYTE PTR [ecx+1]
	jne	SHORT $LN415@ocsp_main
	add	eax, 2
	add	ecx, 2
	test	dl, dl
	jne	SHORT $LL414@ocsp_main
$LN416@ocsp_main:
	xor	eax, eax
	jmp	SHORT $LN417@ocsp_main
$LN415@ocsp_main:
	sbb	eax, eax
	or	eax, 1
$LN417@ocsp_main:
	test	eax, eax
	jne	SHORT $LN68@ocsp_main
; Line 277
	mov	DWORD PTR _req_text$1$[esp+268], 1
	jmp	$LN194@ocsp_main
$LN68@ocsp_main:
; Line 278
	mov	ecx, OFFSET ??_C@_0L@BPEMCFND@?9resp_text?$AA@
	mov	eax, esi
$LL418@ocsp_main:
	mov	dl, BYTE PTR [eax]
	cmp	dl, BYTE PTR [ecx]
	jne	SHORT $LN419@ocsp_main
	test	dl, dl
	je	SHORT $LN420@ocsp_main
	mov	dl, BYTE PTR [eax+1]
	cmp	dl, BYTE PTR [ecx+1]
	jne	SHORT $LN419@ocsp_main
	add	eax, 2
	add	ecx, 2
	test	dl, dl
	jne	SHORT $LL418@ocsp_main
$LN420@ocsp_main:
	xor	eax, eax
	jmp	SHORT $LN421@ocsp_main
$LN419@ocsp_main:
	sbb	eax, eax
	or	eax, 1
$LN421@ocsp_main:
	test	eax, eax
	jne	SHORT $LN70@ocsp_main
; Line 279
	mov	DWORD PTR _resp_text$1$[esp+268], 1
	jmp	$LN194@ocsp_main
$LN70@ocsp_main:
; Line 280
	mov	ecx, OFFSET ??_C@_06LEDKFNFF@?9reqin?$AA@
	mov	eax, esi
$LL422@ocsp_main:
	mov	dl, BYTE PTR [eax]
	cmp	dl, BYTE PTR [ecx]
	jne	SHORT $LN423@ocsp_main
	test	dl, dl
	je	SHORT $LN424@ocsp_main
	mov	dl, BYTE PTR [eax+1]
	cmp	dl, BYTE PTR [ecx+1]
	jne	SHORT $LN423@ocsp_main
	add	eax, 2
	add	ecx, 2
	test	dl, dl
	jne	SHORT $LL422@ocsp_main
$LN424@ocsp_main:
	xor	eax, eax
	jmp	SHORT $LN425@ocsp_main
$LN423@ocsp_main:
	sbb	eax, eax
	or	eax, 1
$LN425@ocsp_main:
	test	eax, eax
	jne	SHORT $LN72@ocsp_main
; Line 281
	cmp	DWORD PTR [edi+4], eax
	je	$LN191@ocsp_main
; Line 282
	add	edi, 4
	mov	DWORD PTR _args$[esp+268], edi
; Line 283
	mov	eax, DWORD PTR [edi]
	mov	DWORD PTR _reqin$1$[esp+268], eax
; Line 284
	jmp	$LN194@ocsp_main
$LN72@ocsp_main:
; Line 286
	mov	ecx, OFFSET ??_C@_07LCFFIEPP@?9respin?$AA@
	mov	eax, esi
	npad	2
$LL426@ocsp_main:
	mov	dl, BYTE PTR [eax]
	cmp	dl, BYTE PTR [ecx]
	jne	SHORT $LN427@ocsp_main
	test	dl, dl
	je	SHORT $LN428@ocsp_main
	mov	dl, BYTE PTR [eax+1]
	cmp	dl, BYTE PTR [ecx+1]
	jne	SHORT $LN427@ocsp_main
	add	eax, 2
	add	ecx, 2
	test	dl, dl
	jne	SHORT $LL426@ocsp_main
$LN428@ocsp_main:
	xor	eax, eax
	jmp	SHORT $LN429@ocsp_main
$LN427@ocsp_main:
	sbb	eax, eax
	or	eax, 1
$LN429@ocsp_main:
	test	eax, eax
	jne	SHORT $LN76@ocsp_main
; Line 287
	cmp	DWORD PTR [edi+4], eax
	je	$LN191@ocsp_main
; Line 288
	add	edi, 4
	mov	DWORD PTR _args$[esp+268], edi
; Line 289
	mov	eax, DWORD PTR [edi]
	mov	DWORD PTR _respin$1$[esp+268], eax
; Line 290
	jmp	$LN194@ocsp_main
$LN76@ocsp_main:
; Line 292
	mov	ecx, OFFSET ??_C@_07KJCLPKOH@?9signer?$AA@
	mov	eax, esi
	npad	2
$LL430@ocsp_main:
	mov	dl, BYTE PTR [eax]
	cmp	dl, BYTE PTR [ecx]
	jne	SHORT $LN431@ocsp_main
	test	dl, dl
	je	SHORT $LN432@ocsp_main
	mov	dl, BYTE PTR [eax+1]
	cmp	dl, BYTE PTR [ecx+1]
	jne	SHORT $LN431@ocsp_main
	add	eax, 2
	add	ecx, 2
	test	dl, dl
	jne	SHORT $LL430@ocsp_main
$LN432@ocsp_main:
	xor	eax, eax
	jmp	SHORT $LN433@ocsp_main
$LN431@ocsp_main:
	sbb	eax, eax
	or	eax, 1
$LN433@ocsp_main:
	test	eax, eax
	jne	SHORT $LN80@ocsp_main
; Line 293
	cmp	DWORD PTR [edi+4], eax
	je	$LN191@ocsp_main
; Line 294
	add	edi, 4
	mov	DWORD PTR _args$[esp+268], edi
; Line 295
	mov	eax, DWORD PTR [edi]
	mov	DWORD PTR _signfile$1$[esp+268], eax
; Line 296
	jmp	$LN194@ocsp_main
$LN80@ocsp_main:
; Line 298
	mov	ecx, OFFSET ??_C@_07HFLEMFJH@?9VAfile?$AA@
	mov	eax, esi
	npad	5
$LL434@ocsp_main:
	mov	dl, BYTE PTR [eax]
	cmp	dl, BYTE PTR [ecx]
	jne	SHORT $LN435@ocsp_main
	test	dl, dl
	je	SHORT $LN436@ocsp_main
	mov	dl, BYTE PTR [eax+1]
	cmp	dl, BYTE PTR [ecx+1]
	jne	SHORT $LN435@ocsp_main
	add	eax, 2
	add	ecx, 2
	test	dl, dl
	jne	SHORT $LL434@ocsp_main
$LN436@ocsp_main:
	xor	eax, eax
	jmp	SHORT $LN437@ocsp_main
$LN435@ocsp_main:
	sbb	eax, eax
	or	eax, 1
$LN437@ocsp_main:
	test	eax, eax
	jne	SHORT $LN84@ocsp_main
; Line 299
	cmp	DWORD PTR [edi+4], eax
	je	$LN191@ocsp_main
; Line 300
	add	edi, 4
; Line 302
	or	DWORD PTR _verify_flags$1$[esp+268], 512 ; 00000200H
	mov	DWORD PTR _args$[esp+268], edi
	mov	eax, DWORD PTR [edi]
	mov	DWORD PTR _verify_certfile$1$[esp+268], eax
; Line 303
	jmp	$LN194@ocsp_main
$LN84@ocsp_main:
; Line 305
	mov	ecx, OFFSET ??_C@_0M@DIAPAJKH@?9sign_other?$AA@
	mov	eax, esi
$LL438@ocsp_main:
	mov	dl, BYTE PTR [eax]
	cmp	dl, BYTE PTR [ecx]
	jne	SHORT $LN439@ocsp_main
	test	dl, dl
	je	SHORT $LN440@ocsp_main
	mov	dl, BYTE PTR [eax+1]
	cmp	dl, BYTE PTR [ecx+1]
	jne	SHORT $LN439@ocsp_main
	add	eax, 2
	add	ecx, 2
	test	dl, dl
	jne	SHORT $LL438@ocsp_main
$LN440@ocsp_main:
	xor	eax, eax
	jmp	SHORT $LN441@ocsp_main
$LN439@ocsp_main:
	sbb	eax, eax
	or	eax, 1
$LN441@ocsp_main:
	test	eax, eax
	jne	SHORT $LN88@ocsp_main
; Line 306
	cmp	DWORD PTR [edi+4], eax
	je	$LN191@ocsp_main
; Line 307
	add	edi, 4
	mov	DWORD PTR _args$[esp+268], edi
; Line 308
	mov	eax, DWORD PTR [edi]
	mov	DWORD PTR _sign_certfile$1$[esp+268], eax
; Line 309
	jmp	$LN194@ocsp_main
$LN88@ocsp_main:
; Line 311
	mov	ecx, OFFSET ??_C@_0O@GEAKCPGK@?9verify_other?$AA@
	mov	eax, esi
$LL442@ocsp_main:
	mov	dl, BYTE PTR [eax]
	cmp	dl, BYTE PTR [ecx]
	jne	SHORT $LN443@ocsp_main
	test	dl, dl
	je	SHORT $LN444@ocsp_main
	mov	dl, BYTE PTR [eax+1]
	cmp	dl, BYTE PTR [ecx+1]
	jne	SHORT $LN443@ocsp_main
	add	eax, 2
	add	ecx, 2
	test	dl, dl
	jne	SHORT $LL442@ocsp_main
$LN444@ocsp_main:
	xor	eax, eax
	jmp	SHORT $LN445@ocsp_main
$LN443@ocsp_main:
	sbb	eax, eax
	or	eax, 1
$LN445@ocsp_main:
	test	eax, eax
	jne	SHORT $LN92@ocsp_main
; Line 312
	cmp	DWORD PTR [edi+4], eax
	je	$LN191@ocsp_main
; Line 313
	add	edi, 4
	mov	DWORD PTR _args$[esp+268], edi
; Line 314
	mov	eax, DWORD PTR [edi]
	mov	DWORD PTR _verify_certfile$1$[esp+268], eax
; Line 315
	jmp	$LN194@ocsp_main
$LN92@ocsp_main:
; Line 317
	mov	ecx, OFFSET ??_C@_07EAFCHGPO@?9CAfile?$AA@
	mov	eax, esi
$LL446@ocsp_main:
	mov	dl, BYTE PTR [eax]
	cmp	dl, BYTE PTR [ecx]
	jne	SHORT $LN447@ocsp_main
	test	dl, dl
	je	SHORT $LN448@ocsp_main
	mov	dl, BYTE PTR [eax+1]
	cmp	dl, BYTE PTR [ecx+1]
	jne	SHORT $LN447@ocsp_main
	add	eax, 2
	add	ecx, 2
	test	dl, dl
	jne	SHORT $LL446@ocsp_main
$LN448@ocsp_main:
	xor	eax, eax
	jmp	SHORT $LN449@ocsp_main
$LN447@ocsp_main:
	sbb	eax, eax
	or	eax, 1
$LN449@ocsp_main:
	test	eax, eax
	jne	SHORT $LN96@ocsp_main
; Line 318
	cmp	DWORD PTR [edi+4], eax
	je	$LN191@ocsp_main
; Line 319
	add	edi, 4
	mov	DWORD PTR _args$[esp+268], edi
; Line 320
	mov	eax, DWORD PTR [edi]
	mov	DWORD PTR _CAfile$1$[esp+268], eax
; Line 321
	jmp	$LN194@ocsp_main
$LN96@ocsp_main:
; Line 323
	mov	eax, OFFSET ??_C@_07MNNNLALG@?9CApath?$AA@
	npad	2
$LL450@ocsp_main:
	mov	cl, BYTE PTR [esi]
	cmp	cl, BYTE PTR [eax]
	jne	SHORT $LN451@ocsp_main
	test	cl, cl
	je	SHORT $LN452@ocsp_main
	mov	cl, BYTE PTR [esi+1]
	cmp	cl, BYTE PTR [eax+1]
	jne	SHORT $LN451@ocsp_main
	add	esi, 2
	add	eax, 2
	test	cl, cl
	jne	SHORT $LL450@ocsp_main
$LN452@ocsp_main:
	xor	eax, eax
	jmp	SHORT $LN453@ocsp_main
$LN451@ocsp_main:
	sbb	eax, eax
	or	eax, 1
$LN453@ocsp_main:
	test	eax, eax
	jne	SHORT $LN100@ocsp_main
; Line 324
	cmp	DWORD PTR [edi+4], eax
	je	$LN191@ocsp_main
; Line 325
	add	edi, 4
	mov	DWORD PTR _args$[esp+268], edi
; Line 326
	mov	eax, DWORD PTR [edi]
	mov	DWORD PTR _CApath$1$[esp+268], eax
; Line 327
	jmp	$LN194@ocsp_main
$LN100@ocsp_main:
; Line 329
	lea	eax, DWORD PTR _vpm$[esp+268]
	push	eax
	push	DWORD PTR _bio_err
	lea	eax, DWORD PTR _badarg$[esp+276]
	push	eax
	lea	eax, DWORD PTR _args$[esp+280]
	push	0
	push	eax
	call	_args_verify
	add	esp, 20					; 00000014H
	test	eax, eax
	je	SHORT $LN104@ocsp_main
; Line 330
	cmp	DWORD PTR _badarg$[esp+268], 0
	je	$LN585@ocsp_main
$LN560@ocsp_main:
; Line 586
	mov	edi, DWORD PTR _req$[esp+268]
; Line 598
	xor	ebx, ebx
	mov	esi, DWORD PTR _cbio$[esp+268]
	lea	ebp, DWORD PTR [ebx+1]
	jmp	$end$603
$LN104@ocsp_main:
; Line 333
	mov	edi, DWORD PTR _args$[esp+268]
	mov	ecx, OFFSET ??_C@_0BB@EOGPDMHI@?9validity_period?$AA@
	mov	esi, DWORD PTR [edi]
	mov	eax, esi
$LL454@ocsp_main:
	mov	dl, BYTE PTR [eax]
	cmp	dl, BYTE PTR [ecx]
	jne	SHORT $LN455@ocsp_main
	test	dl, dl
	je	SHORT $LN456@ocsp_main
	mov	dl, BYTE PTR [eax+1]
	cmp	dl, BYTE PTR [ecx+1]
	jne	SHORT $LN455@ocsp_main
	add	eax, 2
	add	ecx, 2
	test	dl, dl
	jne	SHORT $LL454@ocsp_main
$LN456@ocsp_main:
	xor	eax, eax
	jmp	SHORT $LN457@ocsp_main
$LN455@ocsp_main:
	sbb	eax, eax
	or	eax, 1
$LN457@ocsp_main:
	test	eax, eax
	jne	SHORT $LN107@ocsp_main
; Line 334
	cmp	DWORD PTR [edi+4], 0
	lea	eax, DWORD PTR [edi+4]
	je	$LN191@ocsp_main
; Line 335
	mov	DWORD PTR _args$[esp+268], eax
; Line 336
	push	DWORD PTR [eax]
	call	ebp
	add	esp, 4
	mov	DWORD PTR _nsec$1$[esp+268], eax
; Line 337
	test	eax, eax
	jns	$LN584@ocsp_main
; Line 338
	mov	eax, DWORD PTR _args$[esp+268]
	push	DWORD PTR [eax]
	push	OFFSET ??_C@_0BM@FKODFKGC@Illegal?5validity?5period?5?$CFs?6?$AA@
; Line 342
	jmp	$LN586@ocsp_main
$LN107@ocsp_main:
; Line 344
	mov	ecx, OFFSET ??_C@_0M@KGPJPCMD@?9status_age?$AA@
	mov	eax, esi
	npad	2
$LL458@ocsp_main:
	mov	dl, BYTE PTR [eax]
	cmp	dl, BYTE PTR [ecx]
	jne	SHORT $LN459@ocsp_main
	test	dl, dl
	je	SHORT $LN460@ocsp_main
	mov	dl, BYTE PTR [eax+1]
	cmp	dl, BYTE PTR [ecx+1]
	jne	SHORT $LN459@ocsp_main
	add	eax, 2
	add	ecx, 2
	test	dl, dl
	jne	SHORT $LL458@ocsp_main
$LN460@ocsp_main:
	xor	eax, eax
	jmp	SHORT $LN461@ocsp_main
$LN459@ocsp_main:
	sbb	eax, eax
	or	eax, 1
$LN461@ocsp_main:
	test	eax, eax
	jne	SHORT $LN112@ocsp_main
; Line 345
	cmp	DWORD PTR [edi+4], 0
	lea	eax, DWORD PTR [edi+4]
	je	$LN191@ocsp_main
; Line 346
	mov	DWORD PTR _args$[esp+268], eax
; Line 347
	push	DWORD PTR [eax]
	call	ebp
	add	esp, 4
	mov	DWORD PTR _maxage$1$[esp+268], eax
; Line 348
	test	eax, eax
	jns	$LN584@ocsp_main
; Line 349
	mov	eax, DWORD PTR _args$[esp+268]
	push	DWORD PTR [eax]
	push	OFFSET ??_C@_0BJ@ODLCHJHI@Illegal?5validity?5age?5?$CFs?6?$AA@
; Line 352
	jmp	$LN586@ocsp_main
$LN112@ocsp_main:
; Line 354
	mov	ecx, OFFSET ??_C@_08DJIMFMFI@?9signkey?$AA@
	mov	eax, esi
$LL462@ocsp_main:
	mov	dl, BYTE PTR [eax]
	cmp	dl, BYTE PTR [ecx]
	jne	SHORT $LN463@ocsp_main
	test	dl, dl
	je	SHORT $LN464@ocsp_main
	mov	dl, BYTE PTR [eax+1]
	cmp	dl, BYTE PTR [ecx+1]
	jne	SHORT $LN463@ocsp_main
	add	eax, 2
	add	ecx, 2
	test	dl, dl
	jne	SHORT $LL462@ocsp_main
$LN464@ocsp_main:
	xor	eax, eax
	jmp	SHORT $LN465@ocsp_main
$LN463@ocsp_main:
	sbb	eax, eax
	or	eax, 1
$LN465@ocsp_main:
	test	eax, eax
	jne	SHORT $LN117@ocsp_main
; Line 355
	cmp	DWORD PTR [edi+4], eax
	je	$LN191@ocsp_main
; Line 356
	add	edi, 4
	mov	DWORD PTR _args$[esp+268], edi
; Line 357
	mov	eax, DWORD PTR [edi]
	mov	DWORD PTR _keyfile$1$[esp+268], eax
; Line 358
	jmp	$LN194@ocsp_main
$LN117@ocsp_main:
; Line 360
	mov	ecx, OFFSET ??_C@_07GFPODAJJ@?9reqout?$AA@
	mov	eax, esi
$LL466@ocsp_main:
	mov	dl, BYTE PTR [eax]
	cmp	dl, BYTE PTR [ecx]
	jne	SHORT $LN467@ocsp_main
	test	dl, dl
	je	SHORT $LN468@ocsp_main
	mov	dl, BYTE PTR [eax+1]
	cmp	dl, BYTE PTR [ecx+1]
	jne	SHORT $LN467@ocsp_main
	add	eax, 2
	add	ecx, 2
	test	dl, dl
	jne	SHORT $LL466@ocsp_main
$LN468@ocsp_main:
	xor	eax, eax
	jmp	SHORT $LN469@ocsp_main
$LN467@ocsp_main:
	sbb	eax, eax
	or	eax, 1
$LN469@ocsp_main:
	test	eax, eax
	jne	SHORT $LN121@ocsp_main
; Line 361
	cmp	DWORD PTR [edi+4], eax
	je	$LN191@ocsp_main
; Line 362
	add	edi, 4
	mov	DWORD PTR _args$[esp+268], edi
; Line 363
	mov	eax, DWORD PTR [edi]
	mov	DWORD PTR _reqout$1$[esp+268], eax
; Line 364
	jmp	$LN194@ocsp_main
$LN121@ocsp_main:
; Line 366
	mov	ecx, OFFSET ??_C@_08FDPLBFLG@?9respout?$AA@
	mov	eax, esi
$LL470@ocsp_main:
	mov	dl, BYTE PTR [eax]
	cmp	dl, BYTE PTR [ecx]
	jne	SHORT $LN471@ocsp_main
	test	dl, dl
	je	SHORT $LN472@ocsp_main
	mov	dl, BYTE PTR [eax+1]
	cmp	dl, BYTE PTR [ecx+1]
	jne	SHORT $LN471@ocsp_main
	add	eax, 2
	add	ecx, 2
	test	dl, dl
	jne	SHORT $LL470@ocsp_main
$LN472@ocsp_main:
	xor	eax, eax
	jmp	SHORT $LN473@ocsp_main
$LN471@ocsp_main:
	sbb	eax, eax
	or	eax, 1
$LN473@ocsp_main:
	test	eax, eax
	jne	SHORT $LN125@ocsp_main
; Line 367
	cmp	DWORD PTR [edi+4], eax
	je	$LN191@ocsp_main
; Line 368
	add	edi, 4
	mov	DWORD PTR _args$[esp+268], edi
; Line 369
	mov	eax, DWORD PTR [edi]
	mov	DWORD PTR _respout$1$[esp+268], eax
; Line 370
	jmp	$LN194@ocsp_main
$LN125@ocsp_main:
; Line 372
	mov	ecx, OFFSET ??_C@_05HBJLBJDO@?9path?$AA@
	mov	eax, esi
	npad	2
$LL474@ocsp_main:
	mov	dl, BYTE PTR [eax]
	cmp	dl, BYTE PTR [ecx]
	jne	SHORT $LN475@ocsp_main
	test	dl, dl
	je	SHORT $LN476@ocsp_main
	mov	dl, BYTE PTR [eax+1]
	cmp	dl, BYTE PTR [ecx+1]
	jne	SHORT $LN475@ocsp_main
	add	eax, 2
	add	ecx, 2
	test	dl, dl
	jne	SHORT $LL474@ocsp_main
$LN476@ocsp_main:
	xor	eax, eax
	jmp	SHORT $LN477@ocsp_main
$LN475@ocsp_main:
	sbb	eax, eax
	or	eax, 1
$LN477@ocsp_main:
	test	eax, eax
	jne	SHORT $LN129@ocsp_main
; Line 373
	cmp	DWORD PTR [edi+4], eax
	je	$LN191@ocsp_main
; Line 374
	add	edi, 4
	mov	DWORD PTR _args$[esp+268], edi
; Line 375
	mov	eax, DWORD PTR [edi]
	mov	DWORD PTR _path$[esp+268], eax
; Line 376
	jmp	$LN194@ocsp_main
$LN129@ocsp_main:
; Line 378
	mov	ecx, OFFSET ??_C@_07NKLAPJEG@?9issuer?$AA@
	mov	eax, esi
	npad	5
$LL478@ocsp_main:
	mov	dl, BYTE PTR [eax]
	cmp	dl, BYTE PTR [ecx]
	jne	SHORT $LN479@ocsp_main
	test	dl, dl
	je	SHORT $LN480@ocsp_main
	mov	dl, BYTE PTR [eax+1]
	cmp	dl, BYTE PTR [ecx+1]
	jne	SHORT $LN479@ocsp_main
	add	eax, 2
	add	ecx, 2
	test	dl, dl
	jne	SHORT $LL478@ocsp_main
$LN480@ocsp_main:
	xor	eax, eax
	jmp	SHORT $LN481@ocsp_main
$LN479@ocsp_main:
	sbb	eax, eax
	or	eax, 1
$LN481@ocsp_main:
	test	eax, eax
	jne	SHORT $LN133@ocsp_main
; Line 379
	cmp	DWORD PTR [edi+4], 0
	lea	eax, DWORD PTR [edi+4]
	je	$LN191@ocsp_main
; Line 381
	push	DWORD PTR _issuer$1$[esp+268]
	mov	DWORD PTR _args$[esp+272], eax
	call	_X509_free
; Line 382
	mov	eax, DWORD PTR _args$[esp+272]
	push	OFFSET ??_C@_0BD@NHPOFJGA@issuer?5certificate?$AA@
	push	0
	push	0
	push	3
	push	DWORD PTR [eax]
	push	DWORD PTR _bio_err
	call	_load_cert
	add	esp, 28					; 0000001cH
	mov	DWORD PTR _issuer$1$[esp+268], eax
; Line 384
	test	eax, eax
	je	$LN560@ocsp_main
; Line 386
	jmp	$LN584@ocsp_main
$LN133@ocsp_main:
; Line 388
	mov	ecx, OFFSET ??_C@_05DLEDECNE@?9cert?$AA@
	mov	eax, esi
	npad	6
$LL482@ocsp_main:
	mov	dl, BYTE PTR [eax]
	cmp	dl, BYTE PTR [ecx]
	jne	SHORT $LN483@ocsp_main
	test	dl, dl
	je	SHORT $LN484@ocsp_main
	mov	dl, BYTE PTR [eax+1]
	cmp	dl, BYTE PTR [ecx+1]
	jne	SHORT $LN483@ocsp_main
	add	eax, 2
	add	ecx, 2
	test	dl, dl
	jne	SHORT $LL482@ocsp_main
$LN484@ocsp_main:
	xor	eax, eax
	jmp	SHORT $LN485@ocsp_main
$LN483@ocsp_main:
	sbb	eax, eax
	or	eax, 1
$LN485@ocsp_main:
	test	eax, eax
	jne	$LN138@ocsp_main
; Line 389
	cmp	DWORD PTR [edi+4], 0
	lea	eax, DWORD PTR [edi+4]
	je	$LN191@ocsp_main
; Line 391
	push	DWORD PTR _cert$1$[esp+268]
	mov	DWORD PTR _args$[esp+272], eax
	call	_X509_free
; Line 392
	mov	eax, DWORD PTR _args$[esp+272]
	push	OFFSET ??_C@_0M@LLNFCECG@certificate?$AA@
	push	0
	push	0
	push	3
	push	DWORD PTR [eax]
	push	DWORD PTR _bio_err
	call	_load_cert
	mov	esi, eax
	add	esp, 28					; 0000001cH
	mov	DWORD PTR _cert$1$[esp+268], esi
; Line 394
	test	esi, esi
	je	$LN560@ocsp_main
; Line 396
	test	ebx, ebx
	jne	SHORT $LN143@ocsp_main
; Line 397
	call	_EVP_sha1
	mov	ebx, eax
$LN143@ocsp_main:
; Line 398
	push	DWORD PTR _ids$1$[esp+268]
	lea	eax, DWORD PTR _req$[esp+272]
	push	DWORD PTR _issuer$1$[esp+272]
	push	ebx
	push	esi
	push	eax
	call	_add_ocsp_cert
$LN588@ocsp_main:
	add	esp, 20					; 00000014H
	test	eax, eax
	je	$LN560@ocsp_main
; Line 400
	mov	eax, DWORD PTR _args$[esp+268]
	push	DWORD PTR [eax]
	push	DWORD PTR _reqnames$1$[esp+272]
	call	_sk_push
	add	esp, 8
	test	eax, eax
	je	$LN560@ocsp_main
; Line 402
	jmp	$LN584@ocsp_main
$LN138@ocsp_main:
; Line 404
	mov	ecx, OFFSET ??_C@_07DIHGINNE@?9serial?$AA@
	mov	eax, esi
	npad	6
$LL486@ocsp_main:
	mov	dl, BYTE PTR [eax]
	cmp	dl, BYTE PTR [ecx]
	jne	SHORT $LN487@ocsp_main
	test	dl, dl
	je	SHORT $LN488@ocsp_main
	mov	dl, BYTE PTR [eax+1]
	cmp	dl, BYTE PTR [ecx+1]
	jne	SHORT $LN487@ocsp_main
	add	eax, 2
	add	ecx, 2
	test	dl, dl
	jne	SHORT $LL486@ocsp_main
$LN488@ocsp_main:
	xor	eax, eax
	jmp	SHORT $LN489@ocsp_main
$LN487@ocsp_main:
	sbb	eax, eax
	or	eax, 1
$LN489@ocsp_main:
	test	eax, eax
	jne	SHORT $LN146@ocsp_main
; Line 405
	cmp	DWORD PTR [edi+4], 0
	lea	eax, DWORD PTR [edi+4]
	je	$LN191@ocsp_main
; Line 406
	mov	DWORD PTR _args$[esp+268], eax
; Line 407
	test	ebx, ebx
	jne	SHORT $LN150@ocsp_main
; Line 408
	call	_EVP_sha1
	mov	ebx, eax
	mov	eax, DWORD PTR _args$[esp+268]
$LN150@ocsp_main:
; Line 409
	push	DWORD PTR _ids$1$[esp+268]
	push	DWORD PTR _issuer$1$[esp+272]
	push	ebx
	push	DWORD PTR [eax]
	lea	eax, DWORD PTR _req$[esp+284]
	push	eax
	call	_add_ocsp_serial
; Line 413
	jmp	$LN588@ocsp_main
$LN146@ocsp_main:
; Line 415
	mov	ecx, OFFSET ??_C@_06NILOHFAC@?9index?$AA@
	mov	eax, esi
	npad	6
$LL490@ocsp_main:
	mov	dl, BYTE PTR [eax]
	cmp	dl, BYTE PTR [ecx]
	jne	SHORT $LN491@ocsp_main
	test	dl, dl
	je	SHORT $LN492@ocsp_main
	mov	dl, BYTE PTR [eax+1]
	cmp	dl, BYTE PTR [ecx+1]
	jne	SHORT $LN491@ocsp_main
	add	eax, 2
	add	ecx, 2
	test	dl, dl
	jne	SHORT $LL490@ocsp_main
$LN492@ocsp_main:
	xor	eax, eax
	jmp	SHORT $LN493@ocsp_main
$LN491@ocsp_main:
	sbb	eax, eax
	or	eax, 1
$LN493@ocsp_main:
	test	eax, eax
	jne	SHORT $LN153@ocsp_main
; Line 416
	cmp	DWORD PTR [edi+4], eax
	je	$LN191@ocsp_main
; Line 417
	add	edi, 4
	mov	DWORD PTR _args$[esp+268], edi
; Line 418
	mov	eax, DWORD PTR [edi]
	mov	DWORD PTR _ridx_filename$1$[esp+268], eax
; Line 419
	jmp	$LN194@ocsp_main
$LN153@ocsp_main:
; Line 421
	mov	ecx, OFFSET ??_C@_03BHFNBKNN@?9CA?$AA@
	mov	eax, esi
	npad	5
$LL494@ocsp_main:
	mov	dl, BYTE PTR [eax]
	cmp	dl, BYTE PTR [ecx]
	jne	SHORT $LN495@ocsp_main
	test	dl, dl
	je	SHORT $LN496@ocsp_main
	mov	dl, BYTE PTR [eax+1]
	cmp	dl, BYTE PTR [ecx+1]
	jne	SHORT $LN495@ocsp_main
	add	eax, 2
	add	ecx, 2
	test	dl, dl
	jne	SHORT $LL494@ocsp_main
$LN496@ocsp_main:
	xor	eax, eax
	jmp	SHORT $LN497@ocsp_main
$LN495@ocsp_main:
	sbb	eax, eax
	or	eax, 1
$LN497@ocsp_main:
	test	eax, eax
	jne	SHORT $LN157@ocsp_main
; Line 422
	cmp	DWORD PTR [edi+4], eax
	je	$LN191@ocsp_main
; Line 423
	add	edi, 4
	mov	DWORD PTR _args$[esp+268], edi
; Line 424
	mov	eax, DWORD PTR [edi]
	mov	DWORD PTR _rca_filename$1$[esp+268], eax
; Line 425
	jmp	$LN194@ocsp_main
$LN157@ocsp_main:
; Line 427
	mov	ecx, OFFSET ??_C@_05KGDJBIMA@?9nmin?$AA@
	mov	eax, esi
	npad	2
$LL498@ocsp_main:
	mov	dl, BYTE PTR [eax]
	cmp	dl, BYTE PTR [ecx]
	jne	SHORT $LN499@ocsp_main
	test	dl, dl
	je	SHORT $LN500@ocsp_main
	mov	dl, BYTE PTR [eax+1]
	cmp	dl, BYTE PTR [ecx+1]
	jne	SHORT $LN499@ocsp_main
	add	eax, 2
	add	ecx, 2
	test	dl, dl
	jne	SHORT $LL498@ocsp_main
$LN500@ocsp_main:
	xor	eax, eax
	jmp	SHORT $LN501@ocsp_main
$LN499@ocsp_main:
	sbb	eax, eax
	or	eax, 1
$LN501@ocsp_main:
	test	eax, eax
	jne	SHORT $LN161@ocsp_main
; Line 428
	cmp	DWORD PTR [edi+4], 0
	lea	eax, DWORD PTR [edi+4]
	je	SHORT $LN553@ocsp_main
; Line 429
	mov	DWORD PTR _args$[esp+268], eax
; Line 430
	push	DWORD PTR [eax]
	call	ebp
	add	esp, 4
	mov	DWORD PTR _nmin$1$[esp+268], eax
; Line 431
	test	eax, eax
	jns	SHORT $LN552@ocsp_main
; Line 432
	mov	eax, DWORD PTR _args$[esp+268]
	push	DWORD PTR [eax]
	push	OFFSET ??_C@_0BK@GPEKJOIP@Illegal?5update?5period?5?$CFs?6?$AA@
	push	DWORD PTR _bio_err
	call	_BIO_printf
	add	esp, 12					; 0000000cH
; Line 433
	mov	DWORD PTR _badarg$[esp+268], 1
$LN552@ocsp_main:
	mov	edi, DWORD PTR _args$[esp+268]
$LN553@ocsp_main:
; Line 436
	cmp	DWORD PTR _ndays$1$[esp+268], -1
	jne	$LN191@ocsp_main
; Line 437
	mov	DWORD PTR _ndays$1$[esp+268], 0
	jmp	$LN194@ocsp_main
$LN161@ocsp_main:
; Line 440
	mov	ecx, OFFSET ??_C@_09OFNMGMGB@?9nrequest?$AA@
	mov	eax, esi
	npad	4
$LL502@ocsp_main:
	mov	dl, BYTE PTR [eax]
	cmp	dl, BYTE PTR [ecx]
	jne	SHORT $LN503@ocsp_main
	test	dl, dl
	je	SHORT $LN504@ocsp_main
	mov	dl, BYTE PTR [eax+1]
	cmp	dl, BYTE PTR [ecx+1]
	jne	SHORT $LN503@ocsp_main
	add	eax, 2
	add	ecx, 2
	test	dl, dl
	jne	SHORT $LL502@ocsp_main
$LN504@ocsp_main:
	xor	eax, eax
	jmp	SHORT $LN505@ocsp_main
$LN503@ocsp_main:
	sbb	eax, eax
	or	eax, 1
$LN505@ocsp_main:
	test	eax, eax
	jne	SHORT $LN167@ocsp_main
; Line 441
	cmp	DWORD PTR [edi+4], 0
	lea	eax, DWORD PTR [edi+4]
	je	$LN191@ocsp_main
; Line 442
	mov	DWORD PTR _args$[esp+268], eax
; Line 443
	push	DWORD PTR [eax]
	call	ebp
	add	esp, 4
	mov	DWORD PTR _accept_count$1$[esp+268], eax
; Line 444
	test	eax, eax
	jns	$LN584@ocsp_main
; Line 445
	mov	eax, DWORD PTR _args$[esp+268]
	push	DWORD PTR [eax]
	push	OFFSET ??_C@_0BJ@JHIGBDKO@Illegal?5accept?5count?5?$CFs?6?$AA@
; Line 448
	jmp	$LN586@ocsp_main
$LN167@ocsp_main:
; Line 450
	mov	ecx, OFFSET ??_C@_06EOBNCOPG@?9ndays?$AA@
	mov	eax, esi
$LL506@ocsp_main:
	mov	dl, BYTE PTR [eax]
	cmp	dl, BYTE PTR [ecx]
	jne	SHORT $LN507@ocsp_main
	test	dl, dl
	je	SHORT $LN508@ocsp_main
	mov	dl, BYTE PTR [eax+1]
	cmp	dl, BYTE PTR [ecx+1]
	jne	SHORT $LN507@ocsp_main
	add	eax, 2
	add	ecx, 2
	test	dl, dl
	jne	SHORT $LL506@ocsp_main
$LN508@ocsp_main:
	xor	eax, eax
	jmp	SHORT $LN509@ocsp_main
$LN507@ocsp_main:
	sbb	eax, eax
	or	eax, 1
$LN509@ocsp_main:
	test	eax, eax
	jne	SHORT $LN172@ocsp_main
; Line 451
	cmp	DWORD PTR [edi+4], 0
	lea	eax, DWORD PTR [edi+4]
	je	$LN191@ocsp_main
; Line 452
	mov	DWORD PTR _args$[esp+268], eax
; Line 453
	push	DWORD PTR [eax]
	call	ebp
	add	esp, 4
	mov	DWORD PTR _ndays$1$[esp+268], eax
; Line 454
	test	eax, eax
	jns	$LN584@ocsp_main
; Line 455
	mov	eax, DWORD PTR _args$[esp+268]
	push	DWORD PTR [eax]
	push	OFFSET ??_C@_0BK@GPEKJOIP@Illegal?5update?5period?5?$CFs?6?$AA@
; Line 458
	jmp	$LN586@ocsp_main
$LN172@ocsp_main:
; Line 460
	mov	ecx, OFFSET ??_C@_08NFLILFLO@?9rsigner?$AA@
	mov	eax, esi
	npad	5
$LL510@ocsp_main:
	mov	dl, BYTE PTR [eax]
	cmp	dl, BYTE PTR [ecx]
	jne	SHORT $LN511@ocsp_main
	test	dl, dl
	je	SHORT $LN512@ocsp_main
	mov	dl, BYTE PTR [eax+1]
	cmp	dl, BYTE PTR [ecx+1]
	jne	SHORT $LN511@ocsp_main
	add	eax, 2
	add	ecx, 2
	test	dl, dl
	jne	SHORT $LL510@ocsp_main
$LN512@ocsp_main:
	xor	eax, eax
	jmp	SHORT $LN513@ocsp_main
$LN511@ocsp_main:
	sbb	eax, eax
	or	eax, 1
$LN513@ocsp_main:
	test	eax, eax
	jne	SHORT $LN177@ocsp_main
; Line 461
	cmp	DWORD PTR [edi+4], eax
	je	$LN191@ocsp_main
; Line 462
	add	edi, 4
	mov	DWORD PTR _args$[esp+268], edi
; Line 463
	mov	eax, DWORD PTR [edi]
	mov	DWORD PTR _rsignfile$1$[esp+268], eax
; Line 464
	jmp	$LN194@ocsp_main
$LN177@ocsp_main:
; Line 466
	mov	ecx, OFFSET ??_C@_05CKNLEAGN@?9rkey?$AA@
	mov	eax, esi
	npad	2
$LL514@ocsp_main:
	mov	dl, BYTE PTR [eax]
	cmp	dl, BYTE PTR [ecx]
	jne	SHORT $LN515@ocsp_main
	test	dl, dl
	je	SHORT $LN516@ocsp_main
	mov	dl, BYTE PTR [eax+1]
	cmp	dl, BYTE PTR [ecx+1]
	jne	SHORT $LN515@ocsp_main
	add	eax, 2
	add	ecx, 2
	test	dl, dl
	jne	SHORT $LL514@ocsp_main
$LN516@ocsp_main:
	xor	eax, eax
	jmp	SHORT $LN517@ocsp_main
$LN515@ocsp_main:
	sbb	eax, eax
	or	eax, 1
$LN517@ocsp_main:
	test	eax, eax
	jne	SHORT $LN181@ocsp_main
; Line 467
	cmp	DWORD PTR [edi+4], eax
	je	$LN191@ocsp_main
; Line 468
	add	edi, 4
	mov	DWORD PTR _args$[esp+268], edi
; Line 469
	mov	eax, DWORD PTR [edi]
	mov	DWORD PTR _rkeyfile$2$[esp+268], eax
; Line 470
	jmp	$LN194@ocsp_main
$LN181@ocsp_main:
; Line 472
	mov	ecx, OFFSET ??_C@_07NLCOKAMA@?9rother?$AA@
	mov	eax, esi
	npad	2
$LL518@ocsp_main:
	mov	dl, BYTE PTR [eax]
	cmp	dl, BYTE PTR [ecx]
	jne	SHORT $LN519@ocsp_main
	test	dl, dl
	je	SHORT $LN520@ocsp_main
	mov	dl, BYTE PTR [eax+1]
	cmp	dl, BYTE PTR [ecx+1]
	jne	SHORT $LN519@ocsp_main
	add	eax, 2
	add	ecx, 2
	test	dl, dl
	jne	SHORT $LL518@ocsp_main
$LN520@ocsp_main:
	xor	eax, eax
	jmp	SHORT $LN521@ocsp_main
$LN519@ocsp_main:
	sbb	eax, eax
	or	eax, 1
$LN521@ocsp_main:
	test	eax, eax
	jne	SHORT $LN185@ocsp_main
; Line 473
	cmp	DWORD PTR [edi+4], eax
	je	SHORT $LN191@ocsp_main
; Line 474
	add	edi, 4
	mov	DWORD PTR _args$[esp+268], edi
; Line 475
	mov	eax, DWORD PTR [edi]
	mov	DWORD PTR _rcertfile$1$[esp+268], eax
; Line 476
	jmp	$LN194@ocsp_main
$LN185@ocsp_main:
; Line 478
	mov	ecx, OFFSET ??_C@_04IACEHNJA@?9rmd?$AA@
	mov	eax, esi
	npad	6
$LL522@ocsp_main:
	mov	dl, BYTE PTR [eax]
	cmp	dl, BYTE PTR [ecx]
	jne	SHORT $LN523@ocsp_main
	test	dl, dl
	je	SHORT $LN524@ocsp_main
	mov	dl, BYTE PTR [eax+1]
	cmp	dl, BYTE PTR [ecx+1]
	jne	SHORT $LN523@ocsp_main
	add	eax, 2
	add	ecx, 2
	test	dl, dl
	jne	SHORT $LL522@ocsp_main
$LN524@ocsp_main:
	xor	eax, eax
	jmp	SHORT $LN525@ocsp_main
$LN523@ocsp_main:
	sbb	eax, eax
	or	eax, 1
$LN525@ocsp_main:
	test	eax, eax
	jne	SHORT $LN189@ocsp_main
; Line 479
	cmp	DWORD PTR [edi+4], 0
	lea	eax, DWORD PTR [edi+4]
	je	SHORT $LN191@ocsp_main
; Line 480
	mov	DWORD PTR _args$[esp+268], eax
; Line 481
	push	DWORD PTR [eax]
	call	_EVP_get_digestbyname
	add	esp, 4
	mov	DWORD PTR _rsign_md$1$[esp+268], eax
; Line 482
	test	eax, eax
	jne	SHORT $LN584@ocsp_main
; Line 201
	mov	DWORD PTR _badarg$[esp+268], 1
; Line 203
	jmp	SHORT $LN584@ocsp_main
$LN191@ocsp_main:
; Line 485
	mov	DWORD PTR _badarg$[esp+268], 1
; Line 486
	jmp	SHORT $LN194@ocsp_main
$LN189@ocsp_main:
	lea	eax, DWORD PTR [esi+1]
	push	eax
	call	_EVP_get_digestbyname
	mov	ebx, eax
	add	esp, 4
	mov	eax, DWORD PTR _badarg$[esp+268]
	test	ebx, ebx
	mov	ecx, 1
	cmove	eax, ecx
	mov	DWORD PTR _badarg$[esp+268], eax
$LN584@ocsp_main:
	mov	edi, DWORD PTR _args$[esp+268]
$LN194@ocsp_main:
; Line 489
	add	edi, 4
	cmp	DWORD PTR _badarg$[esp+268], 0
	mov	DWORD PTR _args$[esp+268], edi
	je	$LL2@ocsp_main
$LN3@ocsp_main:
; Line 493
	mov	edi, DWORD PTR _req$[esp+268]
	mov	ebp, DWORD PTR _reqin$1$[esp+268]
	mov	esi, DWORD PTR _outfile$1$[esp+268]
	test	edi, edi
	jne	SHORT $LN195@ocsp_main
	test	ebp, ebp
	jne	SHORT $LN195@ocsp_main
	mov	eax, DWORD PTR _respin$1$[esp+268]
	test	eax, eax
	jne	SHORT $LN195@ocsp_main
$LN555@ocsp_main:
	cmp	DWORD PTR _port$[esp+268], 0
	je	$LN196@ocsp_main
	cmp	DWORD PTR _ridx_filename$1$[esp+268], 0
	je	$LN196@ocsp_main
$LN195@ocsp_main:
; Line 496
	cmp	DWORD PTR _badarg$[esp+268], 0
	jne	$LN319@ocsp_main
; Line 591
	test	esi, esi
	je	SHORT $LN198@ocsp_main
; Line 592
	push	OFFSET ??_C@_01NOFIACDB@w?$AA@
	push	esi
	call	_BIO_new_file
	mov	ebx, DWORD PTR __imp____acrt_iob_func
	jmp	SHORT $LN589@ocsp_main
$LN198@ocsp_main:
; Line 594
	mov	ebx, DWORD PTR __imp____acrt_iob_func
	push	0
	push	1
	call	ebx
	add	esp, 4
	push	eax
	call	_BIO_new_fp
$LN589@ocsp_main:
	add	esp, 8
	mov	DWORD PTR _out$1$[esp+268], eax
; Line 596
	test	eax, eax
	jne	SHORT $LN200@ocsp_main
; Line 597
	push	OFFSET ??_C@_0BL@IMNHHODD@Error?5opening?5output?5file?6?$AA@
$LN598@ocsp_main:
	push	DWORD PTR _bio_err
	call	_BIO_printf
	add	esp, 8
$LN600@ocsp_main:
; Line 598
	xor	ebx, ebx
$LN570@ocsp_main:
	mov	esi, DWORD PTR _cbio$[esp+268]
	mov	ebp, 1
	jmp	$end$603
$LN200@ocsp_main:
; Line 601
	test	edi, edi
	jne	$LN556@ocsp_main
	mov	eax, DWORD PTR _add_nonce$1$[esp+268]
	xor	ecx, ecx
	cmp	eax, 2
	cmovne	eax, ecx
	mov	DWORD PTR _add_nonce$1$[esp+268], eax
; Line 604
	test	ebp, ebp
	je	$LN321@ocsp_main
; Line 605
	mov	ecx, OFFSET ??_C@_01JOAMLHOP@?9?$AA@
	mov	eax, ebp
	npad	7
$LL526@ocsp_main:
	mov	dl, BYTE PTR [eax]
	cmp	dl, BYTE PTR [ecx]
	jne	SHORT $LN527@ocsp_main
	test	dl, dl
	je	SHORT $LN528@ocsp_main
	mov	dl, BYTE PTR [eax+1]
	cmp	dl, BYTE PTR [ecx+1]
	jne	SHORT $LN527@ocsp_main
	add	eax, 2
	add	ecx, 2
	test	dl, dl
	jne	SHORT $LL526@ocsp_main
$LN528@ocsp_main:
	xor	eax, eax
	jmp	SHORT $LN529@ocsp_main
$LN527@ocsp_main:
	sbb	eax, eax
	or	eax, 1
$LN529@ocsp_main:
	test	eax, eax
	jne	SHORT $LN203@ocsp_main
; Line 606
	push	eax
	push	eax
	call	ebx
	add	esp, 4
	push	eax
	call	_BIO_new_fp
	jmp	SHORT $LN590@ocsp_main
$LN203@ocsp_main:
; Line 608
	push	OFFSET ??_C@_02JDPG@rb?$AA@
	push	ebp
	call	_BIO_new_file
$LN590@ocsp_main:
	mov	esi, eax
	add	esp, 8
; Line 609
	test	esi, esi
	jne	SHORT $LN205@ocsp_main
; Line 610
	push	OFFSET ??_C@_0CB@IKGMJOPA@Error?5Opening?5OCSP?5request?5file?6@
; Line 611
	jmp	$LN598@ocsp_main
$LN205@ocsp_main:
; Line 613
	push	0
	push	esi
	push	OFFSET _d2i_OCSP_REQUEST
	push	OFFSET _OCSP_REQUEST_new
	call	_ASN1_d2i_bio
	mov	edi, eax
; Line 614
	push	esi
	mov	DWORD PTR _req$[esp+288], edi
	call	_BIO_free
	add	esp, 20					; 00000014H
; Line 615
	test	edi, edi
	jne	SHORT $LN556@ocsp_main
; Line 616
	push	OFFSET ??_C@_0BM@NGEGOAMK@Error?5reading?5OCSP?5request?6?$AA@
; Line 617
	jmp	$LN598@ocsp_main
$LN321@ocsp_main:
; Line 621
	mov	eax, DWORD PTR _port$[esp+268]
	test	eax, eax
	je	SHORT $LN556@ocsp_main
; Line 622
	push	eax
	call	_init_responder
	add	esp, 4
	mov	DWORD PTR _acbio$1$[esp+268], eax
; Line 623
	test	eax, eax
	je	$LN600@ocsp_main
$LN556@ocsp_main:
; Line 627
	mov	eax, DWORD PTR _rsignfile$1$[esp+268]
	test	eax, eax
	je	$LN214@ocsp_main
; Line 628
	mov	ebx, DWORD PTR _rkeyfile$2$[esp+268]
	test	ebx, ebx
; Line 630
	push	OFFSET ??_C@_0BG@FMDDPMHB@responder?5certificate?$AA@
	push	0
	push	0
	push	3
	push	eax
	push	DWORD PTR _bio_err
	cmove	ebx, eax
	call	_load_cert
	add	esp, 24					; 00000018H
	mov	DWORD PTR _rsigner$1$[esp+268], eax
; Line 632
	test	eax, eax
	jne	SHORT $LN211@ocsp_main
; Line 633
	push	OFFSET ??_C@_0CF@JABBMOMP@Error?5loading?5responder?5certific@
; Line 634
	jmp	$LN598@ocsp_main
$LN211@ocsp_main:
; Line 636
	push	OFFSET ??_C@_0P@KDJNKNNI@CA?5certificate?$AA@
	push	0
	push	0
	push	3
	push	DWORD PTR _rca_filename$1$[esp+284]
	push	DWORD PTR _bio_err
	call	_load_cert
	mov	DWORD PTR _rca_cert$1$[esp+292], eax
	add	esp, 24					; 00000018H
; Line 638
	mov	eax, DWORD PTR _rcertfile$1$[esp+268]
	test	eax, eax
	je	SHORT $LN213@ocsp_main
; Line 639
	push	OFFSET ??_C@_0BN@KIHLODNM@responder?5other?5certificates?$AA@
	push	0
	push	0
	push	3
	push	eax
	push	DWORD PTR _bio_err
	call	_load_certs
	add	esp, 24					; 00000018H
	mov	DWORD PTR _rother$1$[esp+268], eax
; Line 641
	test	eax, eax
	je	$LN600@ocsp_main
$LN213@ocsp_main:
; Line 644
	push	OFFSET ??_C@_0BG@IONLEAGC@responder?5private?5key?$AA@
	push	0
	push	0
	push	0
	push	3
	push	ebx
	push	DWORD PTR _bio_err
	call	_load_key
	add	esp, 28					; 0000001cH
	mov	DWORD PTR _rkey$1$[esp+268], eax
; Line 646
	test	eax, eax
	je	$LN600@ocsp_main
$LN214@ocsp_main:
; Line 649
	mov	eax, DWORD PTR _acbio$1$[esp+268]
	test	eax, eax
	je	SHORT $LN562@ocsp_main
; Line 650
	push	OFFSET ??_C@_0CI@DICJHPJD@Waiting?5for?5OCSP?5client?5connecti@
	push	DWORD PTR _bio_err
	call	_BIO_printf
	mov	eax, DWORD PTR _acbio$1$[esp+276]
	add	esp, 8
$LN562@ocsp_main:
	mov	esi, DWORD PTR _cbio$[esp+268]
	mov	ebp, DWORD PTR _signfile$1$[esp+268]
$redo_accept$604:
; Line 654
	test	eax, eax
	je	SHORT $LN218@ocsp_main
; Line 655
	push	DWORD PTR _port$[esp+268]
	push	eax
	lea	eax, DWORD PTR _cbio$[esp+276]
	push	eax
	lea	eax, DWORD PTR _req$[esp+280]
	push	eax
	call	_do_responder
; Line 657
	mov	edi, DWORD PTR _req$[esp+284]
	add	esp, 16					; 00000010H
	test	eax, eax
	je	$LN569@ocsp_main
	test	edi, edi
	jne	$LN314@ocsp_main
; Line 658
	push	edi
	push	1
	call	_OCSP_response_create
	mov	ebx, eax
; Line 661
	mov	eax, DWORD PTR _cbio$[esp+276]
	push	ebx
	push	eax
	mov	DWORD PTR _resp$[esp+284], ebx
	call	_send_ocsp_response
	add	esp, 16					; 00000010H
; Line 662
	jmp	$done_resp$605
$LN218@ocsp_main:
; Line 666
	test	edi, edi
	jne	$LN314@ocsp_main
	test	ebp, ebp
	jne	SHORT $LN220@ocsp_main
	mov	ebx, DWORD PTR _reqout$1$[esp+268]
	test	ebx, ebx
	jne	SHORT $LN220@ocsp_main
	cmp	DWORD PTR _host$[esp+268], ebx
	jne	SHORT $LN220@ocsp_main
	cmp	DWORD PTR _add_nonce$1$[esp+268], ebx
	jne	SHORT $LN220@ocsp_main
	cmp	DWORD PTR _ridx_filename$1$[esp+268], ebx
	je	$LN558@ocsp_main
$LN220@ocsp_main:
; Line 667
	push	OFFSET ??_C@_0CK@IHKNJONP@Need?5an?5OCSP?5request?5for?5this?5op@
$LN595@ocsp_main:
	push	DWORD PTR _bio_err
	call	_BIO_printf
	add	esp, 8
$LN579@ocsp_main:
	mov	ebp, 1
$LN580@ocsp_main:
	mov	ebx, DWORD PTR _rdb$1$[esp+268]
$end$603:
; Line 865
	push	DWORD PTR _bio_err
	call	_ERR_print_errors
; Line 866
	push	DWORD PTR _signer$1$[esp+272]
	call	_X509_free
; Line 867
	push	DWORD PTR _store$1$[esp+276]
	call	_X509_STORE_free
; Line 868
	mov	eax, DWORD PTR _vpm$[esp+280]
	add	esp, 12					; 0000000cH
	test	eax, eax
	je	SHORT $LN276@ocsp_main
; Line 869
	push	eax
	call	_X509_VERIFY_PARAM_free
	add	esp, 4
$LN276@ocsp_main:
; Line 870
	push	DWORD PTR _key$1$[esp+268]
	call	_EVP_PKEY_free
; Line 871
	push	DWORD PTR _rkey$1$[esp+272]
	call	_EVP_PKEY_free
; Line 872
	push	DWORD PTR _issuer$1$[esp+276]
	call	_X509_free
; Line 873
	push	DWORD PTR _cert$1$[esp+280]
	call	_X509_free
; Line 874
	push	DWORD PTR _rsigner$1$[esp+284]
	call	_X509_free
; Line 875
	push	DWORD PTR _rca_cert$1$[esp+288]
	call	_X509_free
; Line 876
	push	ebx
	call	_free_index
; Line 877
	push	esi
	call	_BIO_free_all
; Line 878
	push	DWORD PTR _acbio$1$[esp+300]
	call	_BIO_free_all
; Line 879
	push	DWORD PTR _out$1$[esp+304]
	call	_BIO_free
; Line 880
	push	edi
	call	_OCSP_REQUEST_free
; Line 881
	push	DWORD PTR _resp$[esp+312]
	call	_OCSP_RESPONSE_free
; Line 882
	push	DWORD PTR _bs$1$[esp+316]
	call	_OCSP_BASICRESP_free
; Line 883
	push	DWORD PTR _reqnames$1$[esp+320]
	call	_sk_free
; Line 884
	push	DWORD PTR _ids$1$[esp+324]
	call	_sk_free
; Line 885
	push	OFFSET _X509_free
	push	DWORD PTR _sign_other$1$[esp+332]
	call	_sk_pop_free
	add	esp, 68					; 00000044H
; Line 886
	push	OFFSET _X509_free
	push	DWORD PTR _verify_other$1$[esp+272]
	call	_sk_pop_free
; Line 887
	push	OFFSET _X509V3_conf_free
	push	DWORD PTR _headers$[esp+280]
	call	_sk_pop_free
; Line 889
	mov	eax, DWORD PTR _thost$1$[esp+284]
	add	esp, 16					; 00000010H
	test	eax, eax
	je	SHORT $LN277@ocsp_main
; Line 890
	push	eax
	call	_CRYPTO_free
	add	esp, 4
$LN277@ocsp_main:
; Line 891
	mov	eax, DWORD PTR _tport$1$[esp+268]
	test	eax, eax
	je	SHORT $LN278@ocsp_main
; Line 892
	push	eax
	call	_CRYPTO_free
	add	esp, 4
$LN278@ocsp_main:
; Line 893
	mov	eax, DWORD PTR _tpath$1$[esp+268]
	test	eax, eax
	je	SHORT $LN550@ocsp_main
; Line 894
	push	eax
	call	_CRYPTO_free
	add	esp, 4
$LN550@ocsp_main:
; Line 896
	pop	edi
	pop	esi
	mov	eax, ebp
	pop	ebp
	pop	ebx
; Line 897
	add	esp, 252				; 000000fcH
	ret	0
$LN314@ocsp_main:
; Line 671
	cmp	DWORD PTR _add_nonce$1$[esp+268], 0
	je	SHORT $LN221@ocsp_main
; Line 672
	push	-1
	push	0
	push	edi
	call	_OCSP_request_add1_nonce
	add	esp, 12					; 0000000cH
$LN221@ocsp_main:
; Line 674
	mov	eax, DWORD PTR _signfile$1$[esp+268]
	test	eax, eax
	je	$LN582@ocsp_main
; Line 675
	mov	ebx, DWORD PTR _keyfile$1$[esp+268]
	test	ebx, ebx
; Line 677
	push	OFFSET ??_C@_0BD@FNCKELBI@signer?5certificate?$AA@
	push	0
	push	0
	push	3
	push	eax
	push	DWORD PTR _bio_err
	cmove	ebx, eax
	mov	DWORD PTR _keyfile$1$[esp+292], ebx
	call	_load_cert
	mov	esi, eax
	add	esp, 24					; 00000018H
	mov	DWORD PTR _signer$1$[esp+268], esi
; Line 679
	test	esi, esi
	je	$LN294@ocsp_main
; Line 683
	mov	eax, DWORD PTR _sign_certfile$1$[esp+268]
	test	eax, eax
	je	SHORT $LN583@ocsp_main
; Line 684
	push	OFFSET ??_C@_0BE@BHCDJICI@signer?5certificates?$AA@
	push	0
	push	0
	push	3
	push	eax
	push	DWORD PTR _bio_err
	call	_load_certs
	mov	ebp, eax
	add	esp, 24					; 00000018H
	mov	DWORD PTR _sign_other$1$[esp+268], ebp
; Line 686
	test	ebp, ebp
	je	$LN569@ocsp_main
	jmp	SHORT $LN226@ocsp_main
$LN583@ocsp_main:
	mov	ebp, DWORD PTR _sign_other$1$[esp+268]
$LN226@ocsp_main:
; Line 689
	push	OFFSET ??_C@_0BD@IPMCPHAL@signer?5private?5key?$AA@
	push	0
	push	0
	push	0
	push	3
	push	ebx
	push	DWORD PTR _bio_err
	call	_load_key
	add	esp, 28					; 0000001cH
	mov	DWORD PTR _key$1$[esp+268], eax
; Line 691
	test	eax, eax
	je	$LN569@ocsp_main
; Line 694
	push	DWORD PTR _sign_flags$1$[esp+268]
	push	ebp
	push	0
	push	eax
	push	esi
	push	edi
	call	_OCSP_request_sign
	add	esp, 24					; 00000018H
	test	eax, eax
	je	$LN297@ocsp_main
$LN582@ocsp_main:
	mov	ebp, DWORD PTR _signfile$1$[esp+268]
	mov	ebx, DWORD PTR _reqout$1$[esp+268]
$LN558@ocsp_main:
; Line 701
	cmp	DWORD PTR _req_text$1$[esp+268], 0
	je	SHORT $LN229@ocsp_main
	test	edi, edi
	je	SHORT $LN229@ocsp_main
; Line 702
	push	0
	push	edi
	push	DWORD PTR _out$1$[esp+276]
	call	_OCSP_REQUEST_print
	add	esp, 12					; 0000000cH
$LN229@ocsp_main:
; Line 704
	test	ebx, ebx
	je	SHORT $LN230@ocsp_main
; Line 705
	mov	ecx, OFFSET ??_C@_01JOAMLHOP@?9?$AA@
	mov	eax, ebx
$LL530@ocsp_main:
	mov	dl, BYTE PTR [eax]
	cmp	dl, BYTE PTR [ecx]
	jne	SHORT $LN531@ocsp_main
	test	dl, dl
	je	SHORT $LN532@ocsp_main
	mov	dl, BYTE PTR [eax+1]
	cmp	dl, BYTE PTR [ecx+1]
	jne	SHORT $LN531@ocsp_main
	add	eax, 2
	add	ecx, 2
	test	dl, dl
	jne	SHORT $LL530@ocsp_main
$LN532@ocsp_main:
	xor	eax, eax
	jmp	SHORT $LN533@ocsp_main
$LN531@ocsp_main:
	sbb	eax, eax
	or	eax, 1
$LN533@ocsp_main:
	test	eax, eax
	jne	SHORT $LN231@ocsp_main
; Line 706
	push	eax
	push	1
	call	DWORD PTR __imp____acrt_iob_func
	add	esp, 4
	push	eax
	call	_BIO_new_fp
	jmp	SHORT $LN591@ocsp_main
$LN231@ocsp_main:
; Line 708
	push	OFFSET ??_C@_02GMLFBBN@wb?$AA@
	push	ebx
	call	_BIO_new_file
$LN591@ocsp_main:
	mov	esi, eax
	add	esp, 8
; Line 709
	test	esi, esi
	je	$LN298@ocsp_main
; Line 713
	push	edi
	push	esi
	push	OFFSET _i2d_OCSP_REQUEST
	call	_ASN1_i2d_bio
; Line 714
	push	esi
	call	_BIO_free
	add	esp, 16					; 00000010H
$LN230@ocsp_main:
; Line 717
	mov	eax, DWORD PTR _ridx_filename$1$[esp+268]
	mov	esi, DWORD PTR _rkey$1$[esp+268]
	test	eax, eax
	je	SHORT $LN581@ocsp_main
	test	esi, esi
	je	$LN235@ocsp_main
	cmp	DWORD PTR _rsigner$1$[esp+268], 0
	je	$LN235@ocsp_main
	cmp	DWORD PTR _rca_cert$1$[esp+268], 0
	je	$LN235@ocsp_main
; Line 723
	mov	ebx, DWORD PTR _rdb$1$[esp+268]
	test	ebx, ebx
	jne	SHORT $LN313@ocsp_main
; Line 724
	push	ebx
	push	eax
	call	_load_index
	mov	ebx, eax
	add	esp, 8
	mov	DWORD PTR _rdb$1$[esp+268], ebx
; Line 725
	test	ebx, ebx
	je	$LN570@ocsp_main
; Line 727
	push	ebx
	call	_index_index
	add	esp, 4
	test	eax, eax
	je	$LN570@ocsp_main
	jmp	SHORT $LN238@ocsp_main
$LN581@ocsp_main:
	mov	ebx, DWORD PTR _rdb$1$[esp+268]
$LN238@ocsp_main:
; Line 731
	test	ebx, ebx
	je	SHORT $LN239@ocsp_main
$LN313@ocsp_main:
; Line 732
	push	DWORD PTR _badsig$1$[esp+268]
	lea	eax, DWORD PTR _resp$[esp+272]
	push	DWORD PTR _ndays$1$[esp+272]
	push	DWORD PTR _nmin$1$[esp+276]
	push	DWORD PTR _rflags$1$[esp+280]
	push	DWORD PTR _rother$1$[esp+284]
	push	DWORD PTR _rsign_md$1$[esp+288]
	push	esi
	push	DWORD PTR _rsigner$1$[esp+296]
	push	DWORD PTR _rca_cert$1$[esp+300]
	push	ebx
	push	edi
	push	eax
	call	_make_ocsp_response
; Line 734
	mov	eax, DWORD PTR _cbio$[esp+316]
	add	esp, 48					; 00000030H
; Line 735
	mov	ebx, DWORD PTR _resp$[esp+268]
	test	eax, eax
	je	$done_resp$605
	push	ebx
	push	eax
	call	_send_ocsp_response
	add	esp, 8
; Line 736
	jmp	$done_resp$605
$LN239@ocsp_main:
	mov	eax, DWORD PTR _host$[esp+268]
	test	eax, eax
	je	SHORT $LN242@ocsp_main
; Line 738
	push	DWORD PTR _req_timeout$1$[esp+268]
	push	DWORD PTR _headers$[esp+272]
	push	DWORD PTR _use_ssl$[esp+276]
	push	DWORD PTR _port$[esp+280]
	push	DWORD PTR _path$[esp+284]
	push	eax
	push	edi
	push	DWORD PTR _bio_err
	call	_process_responder
	mov	ebx, eax
	add	esp, 32					; 00000020H
	mov	DWORD PTR _resp$[esp+268], ebx
; Line 740
	test	ebx, ebx
	je	$LN569@ocsp_main
; Line 747
	jmp	$done_resp$605
$LN242@ocsp_main:
	mov	esi, DWORD PTR _respin$1$[esp+268]
	test	esi, esi
	je	$LN245@ocsp_main
; Line 748
	mov	ecx, OFFSET ??_C@_01JOAMLHOP@?9?$AA@
	mov	eax, esi
$LL534@ocsp_main:
	mov	dl, BYTE PTR [eax]
	cmp	dl, BYTE PTR [ecx]
	jne	SHORT $LN535@ocsp_main
	test	dl, dl
	je	SHORT $LN536@ocsp_main
	mov	dl, BYTE PTR [eax+1]
	cmp	dl, BYTE PTR [ecx+1]
	jne	SHORT $LN535@ocsp_main
	add	eax, 2
	add	ecx, 2
	test	dl, dl
	jne	SHORT $LL534@ocsp_main
$LN536@ocsp_main:
	xor	eax, eax
	jmp	SHORT $LN537@ocsp_main
$LN535@ocsp_main:
	sbb	eax, eax
	or	eax, 1
$LN537@ocsp_main:
	test	eax, eax
	jne	SHORT $LN247@ocsp_main
; Line 749
	push	eax
	push	eax
	call	DWORD PTR __imp____acrt_iob_func
	add	esp, 4
	push	eax
	call	_BIO_new_fp
	jmp	SHORT $LN592@ocsp_main
$LN247@ocsp_main:
; Line 751
	push	OFFSET ??_C@_02JDPG@rb?$AA@
	push	esi
	call	_BIO_new_file
$LN592@ocsp_main:
	mov	esi, eax
	add	esp, 8
; Line 752
	test	esi, esi
	je	$LN302@ocsp_main
; Line 756
	push	0
	push	esi
	push	OFFSET _d2i_OCSP_RESPONSE
	push	OFFSET _OCSP_RESPONSE_new
	call	_ASN1_d2i_bio
	mov	ebx, eax
; Line 757
	push	esi
	mov	DWORD PTR _resp$[esp+288], ebx
	call	_BIO_free
	add	esp, 20					; 00000014H
; Line 758
	test	ebx, ebx
	je	$LN303@ocsp_main
$done_resp$605:
; Line 770
	mov	esi, DWORD PTR _respout$1$[esp+268]
	test	esi, esi
	je	SHORT $LN251@ocsp_main
; Line 771
	mov	ecx, OFFSET ??_C@_01JOAMLHOP@?9?$AA@
	mov	eax, esi
$LL538@ocsp_main:
	mov	dl, BYTE PTR [eax]
	cmp	dl, BYTE PTR [ecx]
	jne	SHORT $LN539@ocsp_main
	test	dl, dl
	je	SHORT $LN540@ocsp_main
	mov	dl, BYTE PTR [eax+1]
	cmp	dl, BYTE PTR [ecx+1]
	jne	SHORT $LN539@ocsp_main
	add	eax, 2
	add	ecx, 2
	test	dl, dl
	jne	SHORT $LL538@ocsp_main
$LN540@ocsp_main:
	xor	eax, eax
	jmp	SHORT $LN541@ocsp_main
$LN539@ocsp_main:
	sbb	eax, eax
	or	eax, 1
$LN541@ocsp_main:
	test	eax, eax
	jne	SHORT $LN252@ocsp_main
; Line 772
	push	eax
	push	1
	call	DWORD PTR __imp____acrt_iob_func
	add	esp, 4
	push	eax
	call	_BIO_new_fp
	jmp	SHORT $LN593@ocsp_main
$LN252@ocsp_main:
; Line 774
	push	OFFSET ??_C@_02GMLFBBN@wb?$AA@
	push	esi
	call	_BIO_new_file
$LN593@ocsp_main:
	mov	esi, eax
	add	esp, 8
; Line 775
	test	esi, esi
	je	$LN304@ocsp_main
; Line 779
	push	ebx
	push	esi
	push	OFFSET _i2d_OCSP_RESPONSE
	call	_ASN1_i2d_bio
; Line 780
	push	esi
	call	_BIO_free
	add	esp, 16					; 00000010H
$LN251@ocsp_main:
; Line 783
	push	ebx
	call	_OCSP_response_status
	add	esp, 4
; Line 785
	test	eax, eax
	je	SHORT $LN255@ocsp_main
; Line 786
	push	eax
	push	eax
	call	_OCSP_response_status_str
	add	esp, 4
	push	eax
	push	OFFSET ??_C@_0BK@FEOAPJNF@Responder?5Error?3?5?$CFs?5?$CI?$CFd?$CJ?6?$AA@
	push	DWORD PTR _out$1$[esp+280]
	call	_BIO_printf
; Line 789
	mov	esi, DWORD PTR _cbio$[esp+284]
	add	esp, 16					; 00000010H
	cmp	DWORD PTR _ignore_err$1$[esp+268], 0
	je	$LN256@ocsp_main
	mov	eax, DWORD PTR _acbio$1$[esp+268]
	jmp	$redo_accept$604
$LN255@ocsp_main:
; Line 794
	cmp	DWORD PTR _resp_text$1$[esp+268], 0
	je	SHORT $LN257@ocsp_main
; Line 795
	push	0
	push	ebx
	push	DWORD PTR _out$1$[esp+276]
	call	_OCSP_RESPONSE_print
	add	esp, 12					; 0000000cH
$LN257@ocsp_main:
; Line 798
	mov	esi, DWORD PTR _cbio$[esp+268]
	test	esi, esi
	je	$LN258@ocsp_main
; Line 799
	mov	eax, DWORD PTR _accept_count$1$[esp+268]
	test	eax, eax
	jle	SHORT $LN594@ocsp_main
; Line 800
	dec	eax
	mov	DWORD PTR _accept_count$1$[esp+268], eax
; Line 802
	test	eax, eax
$LN594@ocsp_main:
	je	SHORT $LN256@ocsp_main
; Line 803
	push	esi
	call	_BIO_free_all
; Line 804
	xor	esi, esi
; Line 805
	push	edi
	mov	DWORD PTR _cbio$[esp+276], esi
	call	_OCSP_REQUEST_free
; Line 806
	xor	edi, edi
; Line 807
	push	ebx
	mov	DWORD PTR _req$[esp+280], edi
	call	_OCSP_RESPONSE_free
; Line 809
	mov	eax, DWORD PTR _acbio$1$[esp+280]
	add	esp, 12					; 0000000cH
	mov	DWORD PTR _resp$[esp+268], esi
	jmp	$redo_accept$604
$LN297@ocsp_main:
; Line 696
	push	OFFSET ??_C@_0BM@PFDAPGG@Error?5signing?5OCSP?5request?6?$AA@
; Line 697
	jmp	$LN597@ocsp_main
$LN294@ocsp_main:
; Line 680
	push	OFFSET ??_C@_0CC@EDBKMCMB@Error?5loading?5signer?5certificate@
; Line 681
	jmp	$LN597@ocsp_main
$LN298@ocsp_main:
; Line 710
	push	ebx
$LN601@ocsp_main:
	push	OFFSET ??_C@_0BH@DEKMPDPP@Error?5opening?5file?5?$CFs?6?$AA@
	push	DWORD PTR _bio_err
	call	_BIO_printf
; Line 760
	mov	esi, DWORD PTR _cbio$[esp+280]
	add	esp, 12					; 0000000cH
	jmp	$LN579@ocsp_main
$LN235@ocsp_main:
; Line 718
	push	OFFSET ??_C@_0DO@FPJCEGPN@Need?5a?5responder?5certificate?0?5ke@
; Line 720
	jmp	$LN597@ocsp_main
$LN304@ocsp_main:
; Line 776
	mov	eax, DWORD PTR _respout$1$[esp+268]
	push	eax
; Line 777
	jmp	SHORT $LN601@ocsp_main
$LN258@ocsp_main:
; Line 813
	cmp	DWORD PTR _ridx_filename$1$[esp+268], 0
	je	SHORT $LN323@ocsp_main
$LN256@ocsp_main:
; Line 814
	xor	ebp, ebp
; Line 815
	jmp	$LN580@ocsp_main
$LN323@ocsp_main:
; Line 819
	push	DWORD PTR _CApath$1$[esp+268]
	push	DWORD PTR _CAfile$1$[esp+272]
	push	DWORD PTR _bio_err
	call	_setup_verify
	add	esp, 12					; 0000000cH
	mov	DWORD PTR _store$1$[esp+268], eax
; Line 820
	test	eax, eax
	je	$LN579@ocsp_main
; Line 822
	mov	ecx, DWORD PTR _vpm$[esp+268]
	test	ecx, ecx
	je	SHORT $LN265@ocsp_main
; Line 823
	push	ecx
	push	eax
	call	_X509_STORE_set1_param
	add	esp, 8
$LN265@ocsp_main:
; Line 824
	mov	eax, DWORD PTR _verify_certfile$1$[esp+268]
	test	eax, eax
	je	SHORT $LN267@ocsp_main
; Line 825
	push	OFFSET ??_C@_0BG@PJEOBFCK@validator?5certificate?$AA@
	push	0
	push	0
	push	3
	push	eax
	push	DWORD PTR _bio_err
	call	_load_certs
	add	esp, 24					; 00000018H
	mov	DWORD PTR _verify_other$1$[esp+268], eax
; Line 827
	test	eax, eax
	je	$LN579@ocsp_main
$LN267@ocsp_main:
; Line 831
	push	ebx
	call	_OCSP_response_get1_basic
	mov	ebx, eax
	add	esp, 4
	mov	DWORD PTR _bs$1$[esp+268], ebx
; Line 833
	test	ebx, ebx
	jne	SHORT $LN268@ocsp_main
; Line 834
	push	OFFSET ??_C@_0BI@PGOKDFIG@Error?5parsing?5response?6?$AA@
; Line 835
	jmp	$LN595@ocsp_main
$LN268@ocsp_main:
; Line 838
	xor	ebp, ebp
; Line 840
	cmp	DWORD PTR _noverify$1$[esp+268], ebp
	jne	$LN274@ocsp_main
; Line 841
	test	edi, edi
	je	SHORT $LN272@ocsp_main
	push	ebx
	push	edi
	call	_OCSP_check_nonce
	add	esp, 8
	test	eax, eax
	jg	SHORT $LN272@ocsp_main
; Line 842
	cmp	eax, -1
	jne	SHORT $LN271@ocsp_main
; Line 843
	push	OFFSET ??_C@_0BP@EPMDAAOO@WARNING?3?5no?5nonce?5in?5response?6?$AA@
	push	DWORD PTR _bio_err
	call	_BIO_printf
	add	esp, 8
$LN272@ocsp_main:
; Line 851
	push	DWORD PTR _verify_flags$1$[esp+268]
	push	DWORD PTR _store$1$[esp+272]
	push	DWORD PTR _verify_other$1$[esp+276]
	push	ebx
	call	_OCSP_basic_verify
	add	esp, 16					; 00000010H
; Line 852
	test	eax, eax
	jg	SHORT $LN273@ocsp_main
; Line 853
	push	OFFSET ??_C@_0BJ@NAHMIEJA@Response?5Verify?5Failure?6?$AA@
	push	DWORD PTR _bio_err
	call	_BIO_printf
; Line 854
	push	DWORD PTR _bio_err
	call	_ERR_print_errors
	add	esp, 12					; 0000000cH
; Line 855
	mov	ebp, 1
; Line 856
	jmp	SHORT $LN274@ocsp_main
$LN271@ocsp_main:
; Line 845
	push	OFFSET ??_C@_0BE@GFKGMJDE@Nonce?5Verify?5error?6?$AA@
; Line 847
	jmp	$LN595@ocsp_main
$LN273@ocsp_main:
; Line 857
	push	OFFSET ??_C@_0BE@IPGNFEH@Response?5verify?5OK?6?$AA@
	push	DWORD PTR _bio_err
	call	_BIO_printf
	add	esp, 8
$LN274@ocsp_main:
; Line 861
	push	DWORD PTR _maxage$1$[esp+268]
	push	DWORD PTR _nsec$1$[esp+272]
	push	DWORD PTR _ids$1$[esp+276]
	push	DWORD PTR _reqnames$1$[esp+280]
	push	edi
	push	ebx
	push	DWORD PTR _out$1$[esp+292]
	call	_print_ocsp_summary
	add	esp, 28					; 0000001cH
	test	eax, eax
	jne	$LN580@ocsp_main
; Line 862
	jmp	$LN579@ocsp_main
$LN303@ocsp_main:
; Line 759
	push	OFFSET ??_C@_0BN@HGCCGJOP@Error?5reading?5OCSP?5response?6?$AA@
$LN597@ocsp_main:
	push	DWORD PTR _bio_err
	call	_BIO_printf
	add	esp, 8
$LN569@ocsp_main:
; Line 760
	mov	esi, DWORD PTR _cbio$[esp+268]
	jmp	$LN579@ocsp_main
$LN302@ocsp_main:
; Line 753
	push	OFFSET ??_C@_0CC@KKCKPJLO@Error?5Opening?5OCSP?5response?5file@
	push	DWORD PTR _bio_err
	call	_BIO_printf
	mov	esi, DWORD PTR _cbio$[esp+276]
	add	esp, 8
	mov	ebp, 1
	jmp	$end$603
$LN245@ocsp_main:
; Line 764
	mov	esi, DWORD PTR _cbio$[esp+268]
	xor	ebp, ebp
	jmp	$end$603
$LN196@ocsp_main:
; Line 494
	mov	DWORD PTR _badarg$[esp+268], 1
$LN319@ocsp_main:
; Line 497
	push	OFFSET ??_C@_0O@GHKOCIBH@OCSP?5utility?6?$AA@
	push	DWORD PTR _bio_err
	call	_BIO_printf
; Line 498
	push	OFFSET ??_C@_0BG@DPBAODHH@Usage?5ocsp?5?$FLoptions?$FN?6?$AA@
	push	DWORD PTR _bio_err
	call	_BIO_printf
; Line 499
	push	OFFSET ??_C@_0BD@KHANLAHK@where?5options?5are?6?$AA@
	push	DWORD PTR _bio_err
	call	_BIO_printf
; Line 500
	push	OFFSET ??_C@_0CG@HCAICIBJ@?9out?5file?5?5?5?5?5?5?5?5?5?5?5?5output?5file@
	push	DWORD PTR _bio_err
	call	_BIO_printf
; Line 501
	push	OFFSET ??_C@_0CJ@INIFFENJ@?9issuer?5file?5?5?5?5?5?5?5?5?5issuer?5cert@
	push	DWORD PTR _bio_err
	call	_BIO_printf
; Line 502
	push	OFFSET ??_C@_0CL@LBLFHPLJ@?9cert?5file?5?5?5?5?5?5?5?5?5?5?5certificate@
	push	DWORD PTR _bio_err
	call	_BIO_printf
; Line 503
	push	OFFSET ??_C@_0CN@JJAINCKG@?9serial?5n?5?5?5?5?5?5?5?5?5?5?5?5serial?5numb@
	push	DWORD PTR _bio_err
	call	_BIO_printf
; Line 504
	push	OFFSET ??_C@_0DM@OAPGCCLL@?9signer?5file?5?5?5?5?5?5?5?5?5certificate@
	push	DWORD PTR _bio_err
	call	_BIO_printf
	add	esp, 64					; 00000040H
; Line 506
	push	OFFSET ??_C@_0DM@DNCBAAA@?9signkey?5file?5?5?5?5?5?5?5?5private?5key@
	push	DWORD PTR _bio_err
	call	_BIO_printf
; Line 508
	push	OFFSET ??_C@_0EL@GIOFBCPA@?9sign_other?5file?5?5?5?5?5additional?5@
	push	DWORD PTR _bio_err
	call	_BIO_printf
; Line 510
	push	OFFSET ??_C@_0EH@BAHODJBN@?9no_certs?5?5?5?5?5?5?5?5?5?5?5?5don?8t?5inclu@
	push	DWORD PTR _bio_err
	call	_BIO_printf
; Line 512
	push	OFFSET ??_C@_0DB@OAPFLAGM@?9req_text?5?5?5?5?5?5?5?5?5?5?5?5print?5text?5@
	push	DWORD PTR _bio_err
	call	_BIO_printf
; Line 514
	push	OFFSET ??_C@_0DC@FIJIBEIE@?9resp_text?5?5?5?5?5?5?5?5?5?5?5print?5text?5@
	push	DWORD PTR _bio_err
	call	_BIO_printf
; Line 516
	push	OFFSET ??_C@_0DO@CKOJOAFH@?9text?5?5?5?5?5?5?5?5?5?5?5?5?5?5?5?5print?5text?5@
	push	DWORD PTR _bio_err
	call	_BIO_printf
; Line 518
	push	OFFSET ??_C@_0DP@GNPIHDEL@?9reqout?5file?5?5?5?5?5?5?5?5?5write?5DER?5e@
	push	DWORD PTR _bio_err
	call	_BIO_printf
; Line 520
	push	OFFSET ??_C@_0DP@EDMOEOEG@?9respout?5file?5?5?5?5?5?5?5?5write?5DER?5e@
	push	DWORD PTR _bio_err
	call	_BIO_printf
	add	esp, 64					; 00000040H
; Line 522
	push	OFFSET ??_C@_0EA@BHPCONJB@?9reqin?5file?5?5?5?5?5?5?5?5?5?5read?5DER?5en@
	push	DWORD PTR _bio_err
	call	_BIO_printf
; Line 524
	push	OFFSET ??_C@_0EA@EMMONCK@?9respin?5file?5?5?5?5?5?5?5?5?5read?5DER?5en@
	push	DWORD PTR _bio_err
	call	_BIO_printf
; Line 526
	push	OFFSET ??_C@_0DA@EJGBDHGC@?9nonce?5?5?5?5?5?5?5?5?5?5?5?5?5?5?5add?5OCSP?5no@
	push	DWORD PTR _bio_err
	call	_BIO_printf
; Line 528
	push	OFFSET ??_C@_0DG@CDEDKLIH@?9no_nonce?5?5?5?5?5?5?5?5?5?5?5?5don?8t?5add?5O@
	push	DWORD PTR _bio_err
	call	_BIO_printf
; Line 530
	push	OFFSET ??_C@_0CJ@KKEJCIPA@?9url?5URL?5?5?5?5?5?5?5?5?5?5?5?5?5OCSP?5respon@
	push	DWORD PTR _bio_err
	call	_BIO_printf
; Line 531
	push	OFFSET ??_C@_0DK@NJCHGLLO@?9host?5host?3n?5?5?5?5?5?5?5?5?5send?5OCSP?5r@
	push	DWORD PTR _bio_err
	call	_BIO_printf
; Line 533
	push	OFFSET ??_C@_0DC@NJDPKDM@?9path?5?5?5?5?5?5?5?5?5?5?5?5?5?5?5?5path?5to?5use@
	push	DWORD PTR _bio_err
	call	_BIO_printf
; Line 535
	push	OFFSET ??_C@_0DF@DAEGDHGG@?9CApath?5dir?5?5?5?5?5?5?5?5?5?5trusted?5cer@
	push	DWORD PTR _bio_err
	call	_BIO_printf
	add	esp, 64					; 00000040H
; Line 537
	push	OFFSET ??_C@_0DA@MMLPKEMM@?9CAfile?5file?5?5?5?5?5?5?5?5?5trusted?5cer@
	push	DWORD PTR _bio_err
	call	_BIO_printf
; Line 539
	push	OFFSET ??_C@_0EG@DMAFMLKE@?9no_alt_chains?5?5?5?5?5?5?5only?5ever?5u@
	push	DWORD PTR _bio_err
	call	_BIO_printf
; Line 541
	push	OFFSET ??_C@_0DC@FHOOHEAL@?9VAfile?5file?5?5?5?5?5?5?5?5?5validator?5c@
	push	DWORD PTR _bio_err
	call	_BIO_printf
; Line 543
	push	OFFSET ??_C@_0DO@GNINILBF@?9validity_period?5n?5?5?5maximum?5val@
	push	DWORD PTR _bio_err
	call	_BIO_printf
; Line 545
	push	OFFSET ??_C@_0DE@IDKBHJOA@?9status_age?5n?5?5?5?5?5?5?5?5maximum?5sta@
	push	DWORD PTR _bio_err
	call	_BIO_printf
; Line 547
	push	OFFSET ??_C@_0DD@HEKCHIMG@?9noverify?5?5?5?5?5?5?5?5?5?5?5?5don?8t?5verif@
	push	DWORD PTR _bio_err
	call	_BIO_printf
; Line 549
	push	OFFSET ??_C@_0ED@PPCBDPCL@?9verify_other?5file?5?5?5additional?5@
	push	DWORD PTR _bio_err
	call	_BIO_printf
; Line 551
	push	OFFSET ??_C@_0DL@FALIFHNB@?9trust_other?5?5?5?5?5?5?5?5?5don?8t?5verif@
	push	DWORD PTR _bio_err
	call	_BIO_printf
	add	esp, 64					; 00000040H
; Line 553
	push	OFFSET ??_C@_0FB@FMIMBANH@?9no_intern?5?5?5?5?5?5?5?5?5?5?5don?8t?5searc@
	push	DWORD PTR _bio_err
	call	_BIO_printf
; Line 555
	push	OFFSET ??_C@_0DI@PEGHJBAJ@?9no_signature_verify?5don?8t?5check@
	push	DWORD PTR _bio_err
	call	_BIO_printf
; Line 557
	push	OFFSET ??_C@_0DG@PLFFNJLN@?9no_cert_verify?5?5?5?5?5?5don?8t?5check@
	push	DWORD PTR _bio_err
	call	_BIO_printf
; Line 559
	push	OFFSET ??_C@_0DC@DKOPCMKK@?9no_chain?5?5?5?5?5?5?5?5?5?5?5?5don?8t?5chain@
	push	DWORD PTR _bio_err
	call	_BIO_printf
; Line 561
	push	OFFSET ??_C@_0EI@MKPNJEFI@?9no_cert_checks?5?5?5?5?5?5don?8t?5do?5ad@
	push	DWORD PTR _bio_err
	call	_BIO_printf
; Line 563
	push	OFFSET ??_C@_0CP@PODPDDPH@?9port?5num?5?5?5?5?5?5?5?5?5?5?5?5port?5to?5run@
	push	DWORD PTR _bio_err
	call	_BIO_printf
; Line 565
	push	OFFSET ??_C@_0DE@BGFHCMJE@?9index?5file?5?5?5?5?5?5?5?5?5?5certificate@
	push	DWORD PTR _bio_err
	call	_BIO_printf
; Line 567
	push	OFFSET ??_C@_0CF@JGFLGLHM@?9CA?5file?5?5?5?5?5?5?5?5?5?5?5?5?5CA?5certific@
	push	DWORD PTR _bio_err
	call	_BIO_printf
	add	esp, 64					; 00000040H
; Line 568
	push	OFFSET ??_C@_0ED@FLKOEDBB@?9rsigner?5file?5?5?5?5?5?5?5?5responder?5c@
	push	DWORD PTR _bio_err
	call	_BIO_printf
; Line 570
	push	OFFSET ??_C@_0DL@KGGBHLMK@?9rkey?5file?5?5?5?5?5?5?5?5?5?5?5responder?5k@
	push	DWORD PTR _bio_err
	call	_BIO_printf
; Line 572
	push	OFFSET ??_C@_0EA@LBHLGDCL@?9rother?5file?5?5?5?5?5?5?5?5?5other?5certi@
	push	DWORD PTR _bio_err
	call	_BIO_printf
; Line 574
	push	OFFSET ??_C@_0EB@NCHPLFJI@?9resp_no_certs?5?5?5?5?5?5?5don?8t?5inclu@
	push	DWORD PTR _bio_err
	call	_BIO_printf
; Line 576
	push	OFFSET ??_C@_0DL@HPIDPJEJ@?9nmin?5n?5?5?5?5?5?5?5?5?5?5?5?5?5?5number?5of?5m@
	push	DWORD PTR _bio_err
	call	_BIO_printf
; Line 578
	push	OFFSET ??_C@_0DI@GLKOJEDI@?9ndays?5n?5?5?5?5?5?5?5?5?5?5?5?5?5number?5of?5d@
	push	DWORD PTR _bio_err
	call	_BIO_printf
; Line 580
	push	OFFSET ??_C@_0EF@NKPDHHLM@?9resp_key_id?5?5?5?5?5?5?5?5?5identify?5re@
	push	DWORD PTR _bio_err
	call	_BIO_printf
; Line 582
	push	OFFSET ??_C@_0EH@POHPKLEF@?9nrequest?5n?5?5?5?5?5?5?5?5?5?5number?5of?5r@
	push	DWORD PTR _bio_err
	call	_BIO_printf
	add	esp, 64					; 00000040H
; Line 584
	push	OFFSET ??_C@_0DK@CPGBBKHH@?9?$DMdgst?5alg?$DO?5?5?5?5?5?5?5?5?5?5use?5specifi@
	push	DWORD PTR _bio_err
	call	_BIO_printf
; Line 586
	push	OFFSET ??_C@_0EL@DBDCDBIC@?9timeout?5n?5?5?5?5?5?5?5?5?5?5?5timeout?5con@
	push	DWORD PTR _bio_err
	call	_BIO_printf
; Line 598
	mov	esi, DWORD PTR _cbio$[esp+284]
	add	esp, 16					; 00000010H
	xor	ebx, ebx
	lea	ebp, DWORD PTR [ebx+1]
	jmp	$end$603
_ocsp_main ENDP
_TEXT	ENDS
; Function compile flags: /Ogtpy
;	COMDAT _query_responder
_TEXT	SEGMENT
_fd$ = -296						; size = 4
_headers$GSCopy$1$ = -292				; size = 4
_err$GSCopy$1$ = -288					; size = 4
_rsp$ = -284						; size = 4
_tv$ = -280						; size = 8
_path$GSCopy$1$ = -272					; size = 4
_req$GSCopy$1$ = -268					; size = 4
_confds$ = -264						; size = 260
__$ArrayPad$ = -4					; size = 4
_err$ = 8						; size = 4
_cbio$ = 12						; size = 4
_path$ = 16						; size = 4
_headers$ = 20						; size = 4
_req$ = 24						; size = 4
_req_timeout$ = 28					; size = 4
_query_responder PROC					; COMDAT
; File c:\workpace\openssl\openssl-1.0.2h\apps\ocsp.c
; Line 1245
	mov	eax, 296				; 00000128H
	call	__chkstk
	mov	eax, DWORD PTR ___security_cookie
	xor	eax, esp
	mov	DWORD PTR __$ArrayPad$[esp+296], eax
	mov	eax, DWORD PTR _path$[esp+292]
	push	ebx
; Line 1254
	mov	ebx, DWORD PTR _req_timeout$[esp+296]
	mov	DWORD PTR _path$GSCopy$1$[esp+300], eax
	mov	eax, DWORD PTR _headers$[esp+296]
	mov	DWORD PTR _headers$GSCopy$1$[esp+300], eax
	mov	eax, DWORD PTR _req$[esp+296]
	mov	DWORD PTR _req$GSCopy$1$[esp+300], eax
	mov	DWORD PTR _rsp$[esp+300], 0
	push	ebp
	mov	ebp, DWORD PTR _err$[esp+300]
	mov	DWORD PTR _err$GSCopy$1$[esp+304], ebp
	push	esi
	push	edi
	mov	edi, DWORD PTR _cbio$[esp+308]
	cmp	ebx, -1
	je	SHORT $LN20@query_resp
; Line 1255
	push	0
	push	1
	push	102					; 00000066H
	push	edi
	call	_BIO_ctrl
	add	esp, 16					; 00000010H
$LN20@query_resp:
; Line 1257
	push	0
	push	0
	push	101					; 00000065H
	push	edi
	call	_BIO_ctrl
	mov	esi, eax
	add	esp, 16					; 00000010H
; Line 1259
	test	esi, esi
	jg	SHORT $LN21@query_resp
	cmp	ebx, -1
	je	SHORT $LN22@query_resp
	push	8
	push	edi
	call	_BIO_test_flags
	add	esp, 8
	test	eax, eax
	jne	SHORT $LN21@query_resp
$LN22@query_resp:
; Line 1260
	push	OFFSET ??_C@_0BG@NPALLMJK@Error?5connecting?5BIO?6?$AA@
	push	ebp
	call	_BIO_puts
	add	esp, 8
$LN73@query_resp:
; Line 1261
	xor	eax, eax
	jmp	$LN1@query_resp
$LN21@query_resp:
; Line 1264
	lea	eax, DWORD PTR _fd$[esp+312]
	push	eax
	push	0
	push	105					; 00000069H
	push	edi
	call	_BIO_ctrl
	add	esp, 16					; 00000010H
	test	eax, eax
	jns	SHORT $LN23@query_resp
; Line 1265
	push	OFFSET ??_C@_0BJ@CEHELOEH@Can?8t?5get?5connection?5fd?6?$AA@
	push	DWORD PTR _bio_err
	call	_BIO_puts
	add	esp, 8
; Line 1266
	jmp	$LN43@query_resp
$LN23@query_resp:
; Line 1269
	cmp	ebx, -1
	je	SHORT $LN28@query_resp
	test	esi, esi
	jg	SHORT $LN28@query_resp
; Line 1271
	mov	eax, DWORD PTR _fd$[esp+312]
; Line 1274
	lea	ecx, DWORD PTR _tv$[esp+312]
	push	ecx
	push	0
	lea	ecx, DWORD PTR _confds$[esp+320]
	mov	DWORD PTR _confds$[esp+324], eax
	push	ecx
	push	0
	inc	eax
	mov	DWORD PTR _confds$[esp+328], 1
	push	eax
	mov	DWORD PTR _tv$[esp+336], 0
	mov	DWORD PTR _tv$[esp+332], ebx
	call	DWORD PTR __imp__select@20
; Line 1275
	test	eax, eax
	jne	SHORT $LN28@query_resp
; Line 1276
	push	OFFSET ??_C@_0BE@MMONFFFE@Timeout?5on?5connect?6?$AA@
	push	ebp
	call	_BIO_puts
	add	esp, 8
; Line 1277
	xor	eax, eax
	jmp	$LN1@query_resp
$LN28@query_resp:
; Line 1281
	push	-1
	push	0
	push	DWORD PTR _path$GSCopy$1$[esp+320]
	push	edi
	call	_OCSP_sendreq_new
	mov	ebp, eax
	add	esp, 16					; 00000010H
; Line 1282
	test	ebp, ebp
	je	$LN73@query_resp
; Line 1285
	push	DWORD PTR _headers$GSCopy$1$[esp+312]
	xor	esi, esi
	call	_sk_num
	add	esp, 4
	test	eax, eax
	jle	SHORT $LN9@query_resp
	npad	1
$LL10@query_resp:
; Line 1286
	push	esi
	push	DWORD PTR _headers$GSCopy$1$[esp+316]
	call	_sk_value
; Line 1287
	push	DWORD PTR [eax+8]
	push	DWORD PTR [eax+4]
	push	ebp
	call	_OCSP_REQ_CTX_add1_header
	add	esp, 20					; 00000014H
	test	eax, eax
	je	$err$75
; Line 1285
	push	DWORD PTR _headers$GSCopy$1$[esp+312]
	inc	esi
	call	_sk_num
	add	esp, 4
	cmp	esi, eax
	jl	SHORT $LL10@query_resp
$LN9@query_resp:
; Line 1291
	push	DWORD PTR _req$GSCopy$1$[esp+312]
	push	ebp
	call	_OCSP_REQ_CTX_set1_req
	add	esp, 8
	test	eax, eax
	je	$err$75
; Line 1295
	lea	eax, DWORD PTR _rsp$[esp+312]
	push	ebp
	push	eax
	call	_OCSP_sendreq_nbio
	add	esp, 8
; Line 1296
	cmp	eax, -1
	jne	$err$75
	mov	esi, DWORD PTR __imp__select@20
$LL11@query_resp:
; Line 1298
	cmp	ebx, -1
	je	SHORT $LN42@query_resp
; Line 1301
	mov	eax, DWORD PTR _fd$[esp+312]
; Line 1304
	push	1
	push	edi
	mov	DWORD PTR _confds$[esp+324], eax
	mov	DWORD PTR _confds$[esp+320], 1
	mov	DWORD PTR _tv$[esp+324], 0
	mov	DWORD PTR _tv$[esp+320], ebx
	call	_BIO_test_flags
	add	esp, 8
	test	eax, eax
	je	SHORT $LN37@query_resp
; Line 1305
	lea	eax, DWORD PTR _tv$[esp+312]
	push	eax
	push	0
	push	0
	lea	eax, DWORD PTR _confds$[esp+324]
	push	eax
	jmp	SHORT $LN71@query_resp
$LN37@query_resp:
; Line 1306
	push	2
	push	edi
	call	_BIO_test_flags
	add	esp, 8
	test	eax, eax
	je	SHORT $LN39@query_resp
; Line 1307
	lea	eax, DWORD PTR _tv$[esp+312]
	push	eax
	push	0
	lea	eax, DWORD PTR _confds$[esp+320]
	push	eax
	push	0
$LN71@query_resp:
	mov	eax, DWORD PTR _fd$[esp+328]
	inc	eax
	push	eax
	call	esi
; Line 1312
	test	eax, eax
	je	SHORT $LN53@query_resp
; Line 1316
	cmp	eax, -1
	je	SHORT $LN54@query_resp
$LN42@query_resp:
; Line 1295
	lea	eax, DWORD PTR _rsp$[esp+312]
	push	ebp
	push	eax
	call	_OCSP_sendreq_nbio
	add	esp, 8
; Line 1296
	cmp	eax, -1
	je	$LL11@query_resp
	jmp	SHORT $err$75
$LN54@query_resp:
; Line 1317
	push	OFFSET ??_C@_0O@NGGJJKPK@Select?5error?6?$AA@
; Line 1318
	jmp	SHORT $LN72@query_resp
$LN53@query_resp:
; Line 1313
	push	OFFSET ??_C@_0BE@EOAIFGEO@Timeout?5on?5request?6?$AA@
; Line 1314
	jmp	SHORT $LN72@query_resp
$LN39@query_resp:
; Line 1309
	push	OFFSET ??_C@_0BM@IPHCCFPM@Unexpected?5retry?5condition?6?$AA@
$LN72@query_resp:
	push	DWORD PTR _err$GSCopy$1$[esp+316]
	call	_BIO_puts
	add	esp, 8
$err$75:
; Line 1324
	push	ebp
	call	_OCSP_REQ_CTX_free
	add	esp, 4
$LN43@query_resp:
; Line 1326
	mov	eax, DWORD PTR _rsp$[esp+312]
$LN1@query_resp:
; Line 1327
	mov	ecx, DWORD PTR __$ArrayPad$[esp+312]
	pop	edi
	pop	esi
	pop	ebp
	pop	ebx
	xor	ecx, esp
	call	@__security_check_cookie@4
	add	esp, 296				; 00000128H
	ret	0
_query_responder ENDP
_TEXT	ENDS
; Function compile flags: /Ogtpy
;	COMDAT _send_ocsp_response
_TEXT	SEGMENT
_http_resp$ = -88					; size = 81
__$ArrayPad$ = -4					; size = 4
_cbio$ = 8						; size = 4
_resp$ = 12						; size = 4
_send_ocsp_response PROC				; COMDAT
; File c:\workpace\openssl\openssl-1.0.2h\apps\ocsp.c
; Line 1230
	mov	eax, 88					; 00000058H
	call	__chkstk
	mov	eax, DWORD PTR ___security_cookie
	xor	eax, esp
	mov	DWORD PTR __$ArrayPad$[esp+88], eax
; Line 1231
	movups	xmm0, XMMWORD PTR ??_C@_0FB@KMPEPAFE@HTTP?11?40?5200?5OK?$AN?6Content?9type?3?5a@
	mov	al, BYTE PTR ??_C@_0FB@KMPEPAFE@HTTP?11?40?5200?5OK?$AN?6Content?9type?3?5a@+80
	push	esi
	mov	esi, DWORD PTR _cbio$[esp+88]
	mov	BYTE PTR _http_resp$[esp+172], al
	movups	XMMWORD PTR _http_resp$[esp+92], xmm0
	push	edi
	mov	edi, DWORD PTR _resp$[esp+92]
	movups	xmm0, XMMWORD PTR ??_C@_0FB@KMPEPAFE@HTTP?11?40?5200?5OK?$AN?6Content?9type?3?5a@+16
	movups	XMMWORD PTR _http_resp$[esp+112], xmm0
	movups	xmm0, XMMWORD PTR ??_C@_0FB@KMPEPAFE@HTTP?11?40?5200?5OK?$AN?6Content?9type?3?5a@+32
	movups	XMMWORD PTR _http_resp$[esp+128], xmm0
	movups	xmm0, XMMWORD PTR ??_C@_0FB@KMPEPAFE@HTTP?11?40?5200?5OK?$AN?6Content?9type?3?5a@+48
	movups	XMMWORD PTR _http_resp$[esp+144], xmm0
	movups	xmm0, XMMWORD PTR ??_C@_0FB@KMPEPAFE@HTTP?11?40?5200?5OK?$AN?6Content?9type?3?5a@+64
	movups	XMMWORD PTR _http_resp$[esp+160], xmm0
; Line 1234
	test	esi, esi
	jne	SHORT $LN2@send_ocsp_
; Line 1235
	pop	edi
	xor	eax, eax
	pop	esi
; Line 1240
	mov	ecx, DWORD PTR __$ArrayPad$[esp+88]
	xor	ecx, esp
	call	@__security_check_cookie@4
	add	esp, 88					; 00000058H
	ret	0
$LN2@send_ocsp_:
; Line 1236
	push	0
	push	edi
	call	_i2d_OCSP_RESPONSE
	push	eax
	lea	eax, DWORD PTR _http_resp$[esp+108]
	push	eax
	push	esi
	call	_BIO_printf
; Line 1237
	push	edi
	push	esi
	push	OFFSET _i2d_OCSP_RESPONSE
	call	_ASN1_i2d_bio
; Line 1238
	push	0
	push	0
	push	11					; 0000000bH
	push	esi
	call	_BIO_ctrl
; Line 1240
	mov	ecx, DWORD PTR __$ArrayPad$[esp+144]
	add	esp, 48					; 00000030H
	mov	eax, 1
	pop	edi
	pop	esi
	xor	ecx, esp
	call	@__security_check_cookie@4
	add	esp, 88					; 00000058H
	ret	0
_send_ocsp_response ENDP
_TEXT	ENDS
; Function compile flags: /Ogtpy
;	COMDAT _do_responder
_TEXT	SEGMENT
_inbuf$ = -1028						; size = 1024
__$ArrayPad$ = -4					; size = 4
_preq$ = 8						; size = 4
_pcbio$ = 12						; size = 4
_acbio$ = 16						; size = 4
_port$ = 20						; size = 4
_do_responder PROC					; COMDAT
; File c:\workpace\openssl\openssl-1.0.2h\apps\ocsp.c
; Line 1182
	mov	eax, 1028				; 00000404H
	call	__chkstk
	mov	eax, DWORD PTR ___security_cookie
	xor	eax, esp
	mov	DWORD PTR __$ArrayPad$[esp+1028], eax
	push	ebx
	mov	ebx, DWORD PTR _pcbio$[esp+1028]
	push	ebp
	mov	ebp, DWORD PTR _preq$[esp+1032]
	push	esi
	push	edi
	mov	edi, DWORD PTR _acbio$[esp+1040]
; Line 1183
	xor	esi, esi
; Line 1188
	push	esi
	push	esi
	push	101					; 00000065H
	push	edi
	call	_BIO_ctrl
	add	esp, 16					; 00000010H
	test	eax, eax
	jg	SHORT $LN5@do_respond
; Line 1189
	push	OFFSET ??_C@_0BM@IEKEMBLP@Error?5accepting?5connection?6?$AA@
	push	DWORD PTR _bio_err
	call	_BIO_printf
; Line 1190
	push	DWORD PTR _bio_err
	call	_ERR_print_errors
	add	esp, 12					; 0000000cH
; Line 1191
	xor	eax, eax
	jmp	$LN1@do_respond
$LN5@do_respond:
; Line 1194
	push	edi
	call	_BIO_pop
	mov	edi, eax
; Line 1198
	lea	eax, DWORD PTR _inbuf$[esp+1048]
	push	1024					; 00000400H
	push	eax
	push	edi
	mov	DWORD PTR [ebx], edi
	call	_BIO_gets
	add	esp, 16					; 00000010H
; Line 1199
	test	eax, eax
	jle	$LN14@do_respond
	mov	ebx, DWORD PTR __imp__strncmp
$LL2@do_respond:
; Line 1202
	test	esi, esi
	jne	SHORT $LN7@do_respond
; Line 1203
	push	4
	lea	eax, DWORD PTR _inbuf$[esp+1048]
	push	OFFSET ??_C@_04HCJEIHPL@POST?$AA@
	push	eax
	call	ebx
	add	esp, 12					; 0000000cH
	test	eax, eax
	jne	SHORT $LN15@do_respond
; Line 1207
	lea	esi, DWORD PTR [eax+1]
$LN7@do_respond:
; Line 1210
	mov	al, BYTE PTR _inbuf$[esp+1044]
	cmp	al, 13					; 0000000dH
	je	SHORT $LN16@do_respond
	cmp	al, 10					; 0000000aH
	je	SHORT $LN16@do_respond
; Line 1198
	push	1024					; 00000400H
	lea	eax, DWORD PTR _inbuf$[esp+1048]
	push	eax
	push	edi
	call	_BIO_gets
	add	esp, 12					; 0000000cH
; Line 1199
	test	eax, eax
	jg	SHORT $LL2@do_respond
	jmp	SHORT $LN14@do_respond
$LN15@do_respond:
; Line 1204
	push	OFFSET ??_C@_0BB@HOFEPKDI@Invalid?5request?6?$AA@
	push	DWORD PTR _bio_err
	call	_BIO_printf
	add	esp, 8
; Line 1205
	jmp	SHORT $LN14@do_respond
$LN16@do_respond:
; Line 1216
	push	0
	push	edi
	push	OFFSET _d2i_OCSP_REQUEST
	push	OFFSET _OCSP_REQUEST_new
	call	_ASN1_d2i_bio
	mov	esi, eax
	add	esp, 16					; 00000010H
; Line 1218
	test	esi, esi
	jne	SHORT $LN11@do_respond
; Line 1219
	push	OFFSET ??_C@_0BM@PMPMHLFP@Error?5parsing?5OCSP?5request?6?$AA@
	push	DWORD PTR _bio_err
	call	_BIO_printf
; Line 1220
	push	DWORD PTR _bio_err
	call	_ERR_print_errors
	add	esp, 12					; 0000000cH
$LN11@do_respond:
; Line 1223
	mov	DWORD PTR [ebp], esi
$LN14@do_respond:
; Line 1200
	mov	eax, 1
$LN1@do_respond:
; Line 1227
	mov	ecx, DWORD PTR __$ArrayPad$[esp+1044]
	pop	edi
	pop	esi
	pop	ebp
	pop	ebx
	xor	ecx, esp
	call	@__security_check_cookie@4
	add	esp, 1028				; 00000404H
	ret	0
_do_responder ENDP
_TEXT	ENDS
; Function compile flags: /Ogtpy
;	COMDAT _init_responder
_TEXT	SEGMENT
_port$ = 8						; size = 4
_init_responder PROC					; COMDAT
; File c:\workpace\openssl\openssl-1.0.2h\apps\ocsp.c
; Line 1150
	push	esi
	push	edi
; Line 1151
	xor	esi, esi
; Line 1152
	call	_BIO_f_buffer
	push	eax
	call	_BIO_new
	mov	edi, eax
	add	esp, 4
; Line 1153
	test	edi, edi
	je	SHORT $err$7
; Line 1156
	push	DWORD PTR _port$[esp+4]
	call	_BIO_new_accept
	mov	esi, eax
	add	esp, 4
; Line 1161
	test	esi, esi
	je	SHORT $err$7
; Line 1163
	push	edi
	push	2
	push	118					; 00000076H
	push	esi
	call	_BIO_ctrl
; Line 1164
	xor	edi, edi
; Line 1166
	push	edi
	push	edi
	push	101					; 00000065H
	push	esi
	call	_BIO_ctrl
	add	esp, 32					; 00000020H
	test	eax, eax
	jg	SHORT $LN4@init_respo
; Line 1167
	push	OFFSET ??_C@_0BN@JCIIHNNJ@Error?5setting?5up?5accept?5BIO?6?$AA@
	push	DWORD PTR _bio_err
	call	_BIO_printf
; Line 1168
	push	DWORD PTR _bio_err
	call	_ERR_print_errors
	add	esp, 12					; 0000000cH
$err$7:
; Line 1175
	push	esi
	call	_BIO_free_all
; Line 1176
	push	edi
	call	_BIO_free
	add	esp, 8
; Line 1177
	xor	eax, eax
	pop	edi
	pop	esi
; Line 1178
	ret	0
$LN4@init_respo:
	pop	edi
; Line 1172
	mov	eax, esi
	pop	esi
; Line 1178
	ret	0
_init_responder ENDP
_TEXT	ENDS
; Function compile flags: /Ogtpy
;	COMDAT _lookup_serial
_TEXT	SEGMENT
_row$ = -28						; size = 24
__$ArrayPad$ = -4					; size = 4
_db$ = 8						; size = 4
_ser$ = 12						; size = 4
_lookup_serial PROC					; COMDAT
; File c:\workpace\openssl\openssl-1.0.2h\apps\ocsp.c
; Line 1127
	mov	eax, 28					; 0000001cH
	call	__chkstk
	mov	eax, DWORD PTR ___security_cookie
	xor	eax, esp
	mov	DWORD PTR __$ArrayPad$[esp+28], eax
	mov	eax, DWORD PTR _ser$[esp+24]
	xorps	xmm0, xmm0
	push	ebx
	mov	ebx, DWORD PTR _db$[esp+28]
	push	esi
	push	edi
; Line 1133
	push	0
	push	eax
	movups	XMMWORD PTR _row$[esp+48], xmm0
	mov	DWORD PTR _row$[esp+64], 0
	mov	DWORD PTR _row$[esp+68], 0
	call	_ASN1_INTEGER_to_BN
	mov	esi, eax
	add	esp, 8
; Line 1134
	test	esi, esi
	jne	SHORT $LN9@lookup_ser
	push	OFFSET ??_C@_02LAJDHPIK@bn?$AA@
	push	1134					; 0000046eH
	push	OFFSET ??_C@_0O@JBGAODIK@?4?2apps?2ocsp?4c?$AA@
	call	_OpenSSLDie
	add	esp, 12					; 0000000cH
$LN9@lookup_ser:
; Line 1136
	cmp	DWORD PTR [esi+4], 0
	jne	SHORT $LN5@lookup_ser
; Line 1137
	push	OFFSET ??_C@_02PLJDPFIO@00?$AA@
	call	_BUF_strdup
	jmp	SHORT $LN20@lookup_ser
$LN5@lookup_ser:
; Line 1139
	push	esi
	call	_BN_bn2hex
$LN20@lookup_ser:
	add	esp, 4
	mov	edi, eax
; Line 1140
	mov	DWORD PTR _row$[esp+52], edi
; Line 1141
	push	esi
	call	_BN_free
; Line 1142
	lea	eax, DWORD PTR _row$[esp+44]
	push	eax
	push	3
	push	DWORD PTR [ebx+4]
	call	_TXT_DB_get_by_index
; Line 1143
	push	edi
	mov	esi, eax
	call	_CRYPTO_free
; Line 1145
	mov	ecx, DWORD PTR __$ArrayPad$[esp+60]
	add	esp, 20					; 00000014H
	mov	eax, esi
	pop	edi
	pop	esi
	pop	ebx
	xor	ecx, esp
	call	@__security_check_cookie@4
	add	esp, 28					; 0000001cH
	ret	0
_lookup_serial ENDP
_TEXT	ENDS
; Function compile flags: /Ogtpy
;	COMDAT _make_ocsp_response
_TEXT	SEGMENT
_inst$1 = -36						; size = 4
_ca_id$1$ = -32						; size = 4
_revtm$2 = -28						; size = 4
_invtm$3 = -24						; size = 4
_cert_id_md$1$ = -20					; size = 4
_reason$4 = -20						; size = 4
_i$1$ = -16						; size = 4
_id_count$1$ = -12					; size = 4
_cert_id_md_oid$5 = -8					; size = 4
_serial$6 = -4						; size = 4
_resp$ = 8						; size = 4
_req$ = 12						; size = 4
_db$ = 16						; size = 4
_ca$ = 20						; size = 4
_rcert$ = 24						; size = 4
_rkey$ = 28						; size = 4
_rmd$ = 32						; size = 4
_rother$ = 36						; size = 4
_flags$ = 40						; size = 4
_nmin$ = 44						; size = 4
_ndays$ = 48						; size = 4
_badsig$ = 52						; size = 4
_make_ocsp_response PROC				; COMDAT
; File c:\workpace\openssl\openssl-1.0.2h\apps\ocsp.c
; Line 1027
	mov	eax, 36					; 00000024H
	call	__chkstk
	push	ebx
	push	ebp
	push	esi
	push	edi
; Line 1033
	push	DWORD PTR _req$[esp+48]
	xor	esi, esi
	xor	ebx, ebx
	xor	ebp, ebp
	mov	DWORD PTR _ca_id$1$[esp+56], esi
	xor	edi, edi
	call	_OCSP_request_onereq_count
	add	esp, 4
	mov	DWORD PTR _id_count$1$[esp+52], eax
; Line 1035
	test	eax, eax
	jg	SHORT $LN5@make_ocsp_
; Line 1036
	push	edi
	push	1
; Line 1038
	jmp	$LN25@make_ocsp_
$LN5@make_ocsp_:
; Line 1041
	call	_OCSP_BASICRESP_new
; Line 1042
	push	0
	push	0
	mov	edi, eax
	call	_X509_gmtime_adj
	mov	ebx, eax
	add	esp, 8
; Line 1043
	mov	eax, DWORD PTR _ndays$[esp+48]
	cmp	eax, -1
	je	SHORT $LN6@make_ocsp_
; Line 1044
	mov	edx, DWORD PTR _nmin$[esp+48]
	shl	edx, 4
	sub	edx, DWORD PTR _nmin$[esp+48]
	push	0
	shl	edx, 2
	push	edx
	push	eax
	push	0
	call	_X509_time_adj_ex
	add	esp, 16					; 00000010H
	mov	ebp, eax
$LN6@make_ocsp_:
; Line 1047
	xor	eax, eax
	mov	DWORD PTR _i$1$[esp+52], eax
	cmp	DWORD PTR _id_count$1$[esp+52], eax
	jle	$LN3@make_ocsp_
$LL4@make_ocsp_:
; Line 1053
	push	eax
	push	DWORD PTR _req$[esp+52]
	call	_OCSP_request_onereq_get0
; Line 1054
	push	eax
	call	_OCSP_onereq_get0_id
	mov	esi, eax
; Line 1056
	lea	eax, DWORD PTR _cert_id_md_oid$5[esp+64]
	push	esi
	push	0
	push	0
	push	eax
	push	0
	call	_OCSP_id_get0_info
; Line 1058
	push	DWORD PTR _cert_id_md_oid$5[esp+84]
	call	_OBJ_obj2nid
	push	eax
	call	_OBJ_nid2sn
	push	eax
	call	_EVP_get_digestbyname
	add	esp, 44					; 0000002cH
	mov	DWORD PTR _cert_id_md$1$[esp+52], eax
; Line 1059
	test	eax, eax
	je	$LN21@make_ocsp_
; Line 1064
	mov	eax, DWORD PTR _ca_id$1$[esp+52]
	test	eax, eax
	je	SHORT $LN8@make_ocsp_
; Line 1065
	push	eax
	call	_OCSP_CERTID_free
	add	esp, 4
$LN8@make_ocsp_:
; Line 1066
	push	DWORD PTR _ca$[esp+48]
	push	0
	push	DWORD PTR _cert_id_md$1$[esp+60]
	call	_OCSP_cert_to_id
; Line 1069
	push	esi
	push	eax
	mov	DWORD PTR _ca_id$1$[esp+72], eax
	call	_OCSP_id_issuer_cmp
	add	esp, 20					; 00000014H
	test	eax, eax
	je	SHORT $LN9@make_ocsp_
$LN27@make_ocsp_:
; Line 1070
	push	ebp
	push	ebx
	push	0
	push	0
	push	2
	push	esi
	push	edi
	call	_OCSP_basic_add1_status
	add	esp, 28					; 0000001cH
; Line 1073
	jmp	$LN2@make_ocsp_
$LN9@make_ocsp_:
; Line 1075
	push	esi
	lea	eax, DWORD PTR _serial$6[esp+56]
	push	eax
	push	0
	push	0
	push	0
	call	_OCSP_id_get0_info
; Line 1076
	push	DWORD PTR _serial$6[esp+72]
	push	DWORD PTR _db$[esp+72]
	call	_lookup_serial
	mov	ecx, eax
	add	esp, 28					; 0000001cH
; Line 1077
	test	ecx, ecx
	je	SHORT $LN27@make_ocsp_
; Line 1081
	mov	eax, DWORD PTR [ecx]
	mov	al, BYTE PTR [eax]
	cmp	al, 86					; 00000056H
	jne	SHORT $LN12@make_ocsp_
; Line 1082
	push	ebp
	push	ebx
	push	0
	push	0
	push	0
	push	esi
	push	edi
	call	_OCSP_basic_add1_status
	add	esp, 28					; 0000001cH
	jmp	$LN2@make_ocsp_
$LN12@make_ocsp_:
; Line 1085
	cmp	al, 82					; 00000052H
	jne	$LN2@make_ocsp_
; Line 1091
	push	DWORD PTR [ecx+8]
	lea	eax, DWORD PTR _invtm$3[esp+56]
	mov	DWORD PTR _inst$1[esp+56], 0
	push	eax
	lea	eax, DWORD PTR _inst$1[esp+60]
	mov	DWORD PTR _revtm$2[esp+60], 0
	push	eax
	lea	eax, DWORD PTR _reason$4[esp+64]
	mov	DWORD PTR _invtm$3[esp+64], 0
	push	eax
	lea	eax, DWORD PTR _revtm$2[esp+68]
	mov	DWORD PTR _reason$4[esp+68], -1
	push	eax
	call	_unpack_revinfo
; Line 1092
	push	ebp
	push	ebx
	push	DWORD PTR _revtm$2[esp+80]
	push	DWORD PTR _reason$4[esp+84]
	push	1
	push	esi
	push	edi
	call	_OCSP_basic_add1_status
	mov	ecx, eax
	add	esp, 48					; 00000030H
; Line 1095
	mov	eax, DWORD PTR _invtm$3[esp+52]
	test	eax, eax
	je	SHORT $LN15@make_ocsp_
; Line 1096
	push	0
	push	0
	push	eax
	push	142					; 0000008eH
	jmp	SHORT $LN26@make_ocsp_
$LN15@make_ocsp_:
; Line 1098
	mov	eax, DWORD PTR _inst$1[esp+52]
	test	eax, eax
	je	SHORT $LN17@make_ocsp_
; Line 1099
	push	0
	push	0
	push	eax
	push	430					; 000001aeH
$LN26@make_ocsp_:
	push	ecx
	call	_OCSP_SINGLERESP_add1_ext_i2d
	mov	eax, DWORD PTR _inst$1[esp+72]
	add	esp, 20					; 00000014H
$LN17@make_ocsp_:
; Line 1102
	push	eax
	call	_ASN1_OBJECT_free
; Line 1103
	push	DWORD PTR _revtm$2[esp+56]
	call	_ASN1_TIME_free
; Line 1104
	push	DWORD PTR _invtm$3[esp+60]
	call	_ASN1_GENERALIZEDTIME_free
	add	esp, 12					; 0000000cH
$LN2@make_ocsp_:
; Line 1047
	mov	eax, DWORD PTR _i$1$[esp+52]
	inc	eax
	mov	DWORD PTR _i$1$[esp+52], eax
	cmp	eax, DWORD PTR _id_count$1$[esp+52]
	jl	$LL4@make_ocsp_
; Line 1059
	mov	esi, DWORD PTR _ca_id$1$[esp+52]
$LN3@make_ocsp_:
; Line 1108
	push	DWORD PTR _req$[esp+48]
	push	edi
	call	_OCSP_copy_nonce
; Line 1110
	push	DWORD PTR _flags$[esp+56]
	push	DWORD PTR _rother$[esp+60]
	push	DWORD PTR _rmd$[esp+64]
	push	DWORD PTR _rkey$[esp+68]
	push	DWORD PTR _rcert$[esp+72]
	push	edi
	call	_OCSP_basic_sign
	add	esp, 32					; 00000020H
; Line 1112
	cmp	DWORD PTR _badsig$[esp+48], 0
	je	SHORT $LN18@make_ocsp_
; Line 1113
	mov	eax, DWORD PTR [edi+8]
	mov	ecx, DWORD PTR [eax+8]
	mov	eax, DWORD PTR [eax]
	xor	BYTE PTR [ecx+eax-1], 1
$LN18@make_ocsp_:
; Line 1115
	push	edi
	push	0
$LN25@make_ocsp_:
	call	_OCSP_response_create
$LN28@make_ocsp_:
	mov	ecx, DWORD PTR _resp$[esp+56]
	add	esp, 8
$end$30:
	mov	DWORD PTR [ecx], eax
; Line 1118
	push	ebx
	call	_ASN1_TIME_free
; Line 1119
	push	ebp
	call	_ASN1_TIME_free
; Line 1120
	push	esi
	call	_OCSP_CERTID_free
; Line 1121
	push	edi
	call	_OCSP_BASICRESP_free
	add	esp, 16					; 00000010H
; Line 1122
	mov	eax, 1
	pop	edi
	pop	esi
	pop	ebp
	pop	ebx
; Line 1124
	add	esp, 36					; 00000024H
	ret	0
$LN21@make_ocsp_:
; Line 1060
	push	0
	push	2
	call	_OCSP_response_create
; Line 1062
	mov	esi, DWORD PTR _ca_id$1$[esp+60]
	jmp	SHORT $LN28@make_ocsp_
_make_ocsp_response ENDP
_TEXT	ENDS
; Function compile flags: /Ogtpy
;	COMDAT _print_ocsp_summary
_TEXT	SEGMENT
_nextupd$ = -20						; size = 4
_thisupd$ = -16						; size = 4
_status$ = -12						; size = 4
_reason$ = -8						; size = 4
_rev$ = -4						; size = 4
_out$ = 8						; size = 4
_bs$ = 12						; size = 4
_req$ = 16						; size = 4
_names$ = 20						; size = 4
_ids$ = 24						; size = 4
_nsec$ = 28						; size = 4
_maxage$ = 32						; size = 4
_print_ocsp_summary PROC				; COMDAT
; File c:\workpace\openssl\openssl-1.0.2h\apps\ocsp.c
; Line 964
	mov	eax, 20					; 00000014H
	call	__chkstk
; Line 974
	cmp	DWORD PTR _bs$[esp+16], 0
	push	ebp
	je	$LN6@print_ocsp
	cmp	DWORD PTR _req$[esp+20], 0
	je	$LN6@print_ocsp
	push	DWORD PTR _names$[esp+20]
	call	_sk_num
	add	esp, 4
	test	eax, eax
	je	$LN6@print_ocsp
	mov	ebp, DWORD PTR _ids$[esp+20]
	push	ebp
	call	_sk_num
	add	esp, 4
	test	eax, eax
	je	$LN6@print_ocsp
; Line 977
	push	ebx
	push	ebp
	xor	ebx, ebx
	call	_sk_num
	add	esp, 4
	test	eax, eax
	jle	$LN3@print_ocsp
	push	esi
	mov	esi, DWORD PTR _out$[esp+28]
	push	edi
$LL4@print_ocsp:
; Line 978
	push	ebx
	push	ebp
	call	_sk_value
; Line 979
	push	ebx
	push	DWORD PTR _names$[esp+44]
	mov	edi, eax
	call	_sk_value
; Line 980
	push	eax
	push	OFFSET ??_C@_04PFAOODAA@?$CFs?3?5?$AA@
	push	esi
	call	_BIO_printf
; Line 982
	lea	eax, DWORD PTR _nextupd$[esp+64]
	push	eax
	lea	eax, DWORD PTR _thisupd$[esp+68]
	push	eax
	lea	eax, DWORD PTR _rev$[esp+72]
	push	eax
	lea	eax, DWORD PTR _reason$[esp+76]
	push	eax
	lea	eax, DWORD PTR _status$[esp+80]
	push	eax
	push	edi
	push	DWORD PTR _bs$[esp+84]
	call	_OCSP_resp_find_status
	add	esp, 56					; 00000038H
	test	eax, eax
	jne	SHORT $LN7@print_ocsp
; Line 984
	push	OFFSET ??_C@_0BJ@LPNEOKFE@ERROR?3?5No?5Status?5found?4?6?$AA@
	push	esi
	call	_BIO_puts
	add	esp, 8
; Line 985
	jmp	$LN2@print_ocsp
$LN7@print_ocsp:
; Line 992
	push	DWORD PTR _maxage$[esp+32]
	push	DWORD PTR _nsec$[esp+36]
	push	DWORD PTR _nextupd$[esp+44]
	push	DWORD PTR _thisupd$[esp+48]
	call	_OCSP_check_validity
	add	esp, 16					; 00000010H
	test	eax, eax
	jne	SHORT $LN8@print_ocsp
; Line 993
	push	OFFSET ??_C@_0CA@DNKDGAHH@WARNING?3?5Status?5times?5invalid?4?6?$AA@
	push	esi
	call	_BIO_puts
; Line 994
	push	esi
	call	_ERR_print_errors
	add	esp, 12					; 0000000cH
$LN8@print_ocsp:
; Line 996
	push	DWORD PTR _status$[esp+36]
	call	_OCSP_cert_status_str
	push	eax
	push	OFFSET ??_C@_03OFAPEBGM@?$CFs?6?$AA@
	push	esi
	call	_BIO_printf
; Line 998
	push	OFFSET ??_C@_0P@DNHJODAD@?7This?5Update?3?5?$AA@
	push	esi
	call	_BIO_puts
; Line 999
	push	DWORD PTR _thisupd$[esp+60]
	push	esi
	call	_ASN1_GENERALIZEDTIME_print
; Line 1000
	push	OFFSET ??_C@_01EEMJAFIK@?6?$AA@
	push	esi
	call	_BIO_puts
	add	esp, 40					; 00000028H
; Line 1002
	cmp	DWORD PTR _nextupd$[esp+36], 0
	je	SHORT $LN9@print_ocsp
; Line 1003
	push	OFFSET ??_C@_0P@HAFGNBJK@?7Next?5Update?3?5?$AA@
	push	esi
	call	_BIO_puts
; Line 1004
	push	DWORD PTR _nextupd$[esp+44]
	push	esi
	call	_ASN1_GENERALIZEDTIME_print
; Line 1005
	push	OFFSET ??_C@_01EEMJAFIK@?6?$AA@
	push	esi
	call	_BIO_puts
	add	esp, 24					; 00000018H
$LN9@print_ocsp:
; Line 1008
	cmp	DWORD PTR _status$[esp+36], 1
	jne	SHORT $LN2@print_ocsp
; Line 1011
	mov	eax, DWORD PTR _reason$[esp+36]
	cmp	eax, -1
	je	SHORT $LN11@print_ocsp
; Line 1012
	push	eax
	call	_OCSP_crl_reason_str
	push	eax
	push	OFFSET ??_C@_0N@PMAADCMN@?7Reason?3?5?$CFs?6?$AA@
	push	esi
	call	_BIO_printf
	add	esp, 16					; 00000010H
$LN11@print_ocsp:
; Line 1014
	push	OFFSET ??_C@_0BD@DMDALECK@?7Revocation?5Time?3?5?$AA@
	push	esi
	call	_BIO_puts
; Line 1015
	push	DWORD PTR _rev$[esp+44]
	push	esi
	call	_ASN1_GENERALIZEDTIME_print
; Line 1016
	push	OFFSET ??_C@_01EEMJAFIK@?6?$AA@
	push	esi
	call	_BIO_puts
	add	esp, 24					; 00000018H
$LN2@print_ocsp:
; Line 977
	push	ebp
	inc	ebx
	call	_sk_num
	add	esp, 4
	cmp	ebx, eax
	jl	$LL4@print_ocsp
	pop	edi
	pop	esi
$LN3@print_ocsp:
	pop	ebx
$LN6@print_ocsp:
; Line 975
	mov	eax, 1
	pop	ebp
; Line 1020
	add	esp, 20					; 00000014H
	ret	0
_print_ocsp_summary ENDP
_TEXT	ENDS
; Function compile flags: /Ogtpy
;	COMDAT _add_ocsp_serial
_TEXT	SEGMENT
_req$ = 8						; size = 4
_serial$ = 12						; size = 4
_cert_id_md$ = 16					; size = 4
_ikey$1$ = 20						; size = 4
_issuer$ = 20						; size = 4
_ids$ = 24						; size = 4
_add_ocsp_serial PROC					; COMDAT
; File c:\workpace\openssl\openssl-1.0.2h\apps\ocsp.c
; Line 927
	push	edi
; Line 932
	mov	edi, DWORD PTR _issuer$[esp]
	test	edi, edi
	jne	SHORT $LN2@add_ocsp_s
; Line 933
	push	OFFSET ??_C@_0CB@JNPJAML@No?5issuer?5certificate?5specified?6@
	push	DWORD PTR _bio_err
	call	_BIO_printf
	add	esp, 8
; Line 934
	xor	eax, eax
	pop	edi
; Line 958
	ret	0
$LN2@add_ocsp_s:
	push	ebx
	push	ebp
	push	esi
; Line 936
	mov	esi, DWORD PTR _req$[esp+12]
	cmp	DWORD PTR [esi], 0
	jne	SHORT $LN10@add_ocsp_s
; Line 937
	call	_OCSP_REQUEST_new
	mov	DWORD PTR [esi], eax
; Line 938
	test	eax, eax
	je	$err$16
$LN10@add_ocsp_s:
; Line 940
	push	edi
	call	_X509_get_subject_name
; Line 941
	push	edi
	mov	ebp, eax
	call	_X509_get0_pubkey_bitstr
; Line 942
	mov	edi, DWORD PTR _serial$[esp+20]
	push	edi
	push	0
	mov	DWORD PTR _ikey$1$[esp+28], eax
	call	_s2i_ASN1_INTEGER
	mov	ebx, eax
	add	esp, 16					; 00000010H
; Line 943
	test	ebx, ebx
	jne	SHORT $LN5@add_ocsp_s
; Line 944
	push	edi
	push	OFFSET ??_C@_0CD@IKFOILEE@Error?5converting?5serial?5number?5?$CF@
	push	DWORD PTR _bio_err
	call	_BIO_printf
	add	esp, 12					; 0000000cH
; Line 957
	xor	eax, eax
	pop	esi
	pop	ebp
	pop	ebx
	pop	edi
; Line 958
	ret	0
$LN5@add_ocsp_s:
; Line 947
	push	ebx
	push	DWORD PTR _ikey$1$[esp+16]
	push	ebp
	push	DWORD PTR _cert_id_md$[esp+24]
	call	_OCSP_cert_id_new
; Line 948
	push	ebx
	mov	edi, eax
	call	_ASN1_INTEGER_free
	add	esp, 20					; 00000014H
; Line 949
	test	edi, edi
	je	SHORT $err$16
	push	edi
	push	DWORD PTR _ids$[esp+16]
	call	_sk_push
	add	esp, 8
	test	eax, eax
	je	SHORT $err$16
; Line 951
	push	edi
	push	DWORD PTR [esi]
	call	_OCSP_request_add0_id
	add	esp, 8
	test	eax, eax
	je	SHORT $err$16
; Line 953
	pop	esi
	pop	ebp
	pop	ebx
	mov	eax, 1
	pop	edi
; Line 958
	ret	0
$err$16:
; Line 956
	push	OFFSET ??_C@_0BN@MMIPCALN@Error?5Creating?5OCSP?5request?6?$AA@
	push	DWORD PTR _bio_err
	call	_BIO_printf
	add	esp, 8
; Line 957
	xor	eax, eax
	pop	esi
	pop	ebp
	pop	ebx
	pop	edi
; Line 958
	ret	0
_add_ocsp_serial ENDP
_TEXT	ENDS
; Function compile flags: /Ogtpy
;	COMDAT _add_ocsp_cert
_TEXT	SEGMENT
_req$ = 8						; size = 4
_cert$ = 12						; size = 4
_cert_id_md$ = 16					; size = 4
_issuer$ = 20						; size = 4
_ids$ = 24						; size = 4
_add_ocsp_cert PROC					; COMDAT
; File c:\workpace\openssl\openssl-1.0.2h\apps\ocsp.c
; Line 902
	push	edi
; Line 904
	mov	edi, DWORD PTR _issuer$[esp]
	test	edi, edi
	jne	SHORT $LN2@add_ocsp_c
; Line 905
	push	OFFSET ??_C@_0CB@JNPJAML@No?5issuer?5certificate?5specified?6@
	push	DWORD PTR _bio_err
	call	_BIO_printf
	add	esp, 8
; Line 906
	xor	eax, eax
	pop	edi
; Line 922
	ret	0
$LN2@add_ocsp_c:
	push	esi
; Line 908
	mov	esi, DWORD PTR _req$[esp+4]
	cmp	DWORD PTR [esi], 0
	jne	SHORT $LN9@add_ocsp_c
; Line 909
	call	_OCSP_REQUEST_new
	mov	DWORD PTR [esi], eax
; Line 910
	test	eax, eax
	je	SHORT $err$12
$LN9@add_ocsp_c:
; Line 912
	push	edi
	push	DWORD PTR _cert$[esp+8]
	push	DWORD PTR _cert_id_md$[esp+12]
	call	_OCSP_cert_to_id
	mov	edi, eax
	add	esp, 12					; 0000000cH
; Line 913
	test	edi, edi
	je	SHORT $err$12
	push	edi
	push	DWORD PTR _ids$[esp+8]
	call	_sk_push
	add	esp, 8
	test	eax, eax
	je	SHORT $err$12
; Line 915
	push	edi
	push	DWORD PTR [esi]
	call	_OCSP_request_add0_id
	add	esp, 8
	test	eax, eax
	je	SHORT $err$12
; Line 917
	pop	esi
	mov	eax, 1
	pop	edi
; Line 922
	ret	0
$err$12:
; Line 920
	push	OFFSET ??_C@_0BN@MMIPCALN@Error?5Creating?5OCSP?5request?6?$AA@
	push	DWORD PTR _bio_err
	call	_BIO_printf
	add	esp, 8
; Line 921
	xor	eax, eax
	pop	esi
	pop	edi
; Line 922
	ret	0
_add_ocsp_cert ENDP
_TEXT	ENDS
; Function compile flags: /Ogtpy
;	COMDAT _process_responder
_TEXT	SEGMENT
_err$ = 8						; size = 4
_req$ = 12						; size = 4
_host$ = 16						; size = 4
_path$ = 20						; size = 4
_port$ = 24						; size = 4
_use_ssl$ = 28						; size = 4
_headers$ = 32						; size = 4
_req_timeout$ = 36					; size = 4
_process_responder PROC					; COMDAT
; File c:\workpace\openssl\openssl-1.0.2h\apps\ocsp.c
; Line 1334
	push	ebx
	push	esi
	push	edi
; Line 1338
	push	DWORD PTR _host$[esp+8]
	xor	edi, edi
	xor	ebx, ebx
	call	_BIO_new_connect
	mov	esi, eax
	add	esp, 4
; Line 1339
	test	esi, esi
	jne	SHORT $LN2@process_re
; Line 1340
	push	OFFSET ??_C@_0BM@NGBIEMH@Error?5creating?5connect?5BIO?6?$AA@
	push	DWORD PTR _err$[esp+12]
	call	_BIO_printf
	add	esp, 8
; Line 1364
	mov	eax, ebx
	pop	edi
	pop	esi
	pop	ebx
; Line 1365
	ret	0
$LN2@process_re:
; Line 1343
	mov	eax, DWORD PTR _port$[esp+8]
	test	eax, eax
	je	SHORT $LN3@process_re
; Line 1344
	push	eax
	push	1
	push	100					; 00000064H
	push	esi
	call	_BIO_ctrl
	add	esp, 16					; 00000010H
$LN3@process_re:
; Line 1345
	cmp	DWORD PTR _use_ssl$[esp+8], 1
	jne	SHORT $LN4@process_re
; Line 1347
	call	_SSLv23_client_method
	push	eax
	call	_SSL_CTX_new
	mov	edi, eax
	add	esp, 4
; Line 1348
	test	edi, edi
	jne	SHORT $LN5@process_re
; Line 1349
	push	OFFSET ??_C@_0BN@PGIOOPMD@Error?5creating?5SSL?5context?4?6?$AA@
	push	DWORD PTR _err$[esp+12]
; Line 1350
	jmp	SHORT $LN11@process_re
$LN5@process_re:
; Line 1352
	push	0
	push	4
	push	33					; 00000021H
	push	edi
	call	_SSL_CTX_ctrl
; Line 1353
	push	1
	push	edi
	call	_BIO_new_ssl
; Line 1354
	push	esi
	push	eax
	call	_BIO_push
	add	esp, 32					; 00000020H
	mov	esi, eax
$LN4@process_re:
; Line 1356
	push	DWORD PTR _req_timeout$[esp+8]
	push	DWORD PTR _req$[esp+12]
	push	DWORD PTR _headers$[esp+16]
	push	DWORD PTR _path$[esp+20]
	push	esi
	push	DWORD PTR _err$[esp+28]
	call	_query_responder
	mov	ebx, eax
	add	esp, 24					; 00000018H
; Line 1357
	test	ebx, ebx
	jne	SHORT $end$13
; Line 1358
	push	OFFSET ??_C@_0BP@MIANGBPC@Error?5querying?5OCSP?5responder?6?$AA@
	push	DWORD PTR _bio_err
$LN11@process_re:
	call	_BIO_printf
	add	esp, 8
$end$13:
; Line 1360
	test	esi, esi
	je	SHORT $LN7@process_re
; Line 1361
	push	esi
	call	_BIO_free_all
	add	esp, 4
$LN7@process_re:
; Line 1362
	test	edi, edi
	je	SHORT $LN10@process_re
; Line 1363
	push	edi
	call	_SSL_CTX_free
	add	esp, 4
$LN10@process_re:
; Line 1364
	pop	edi
	pop	esi
	mov	eax, ebx
	pop	ebx
; Line 1365
	ret	0
_process_responder ENDP
_TEXT	ENDS
END
