; Listing generated by Microsoft (R) Optimizing Compiler Version 19.00.23918.0 

	TITLE	C:\workpace\openssl\openssl-1.0.2h\crypto\pem\pem_all.c
	.686P
	.XMM
	include listing.inc
	.model	flat

INCLUDELIB MSVCRT
INCLUDELIB OLDNAMES

PUBLIC	_PEM_read_bio_X509_REQ
PUBLIC	_PEM_read_X509_REQ
PUBLIC	_PEM_write_bio_X509_REQ
PUBLIC	_PEM_write_X509_REQ
PUBLIC	_PEM_write_bio_X509_REQ_NEW
PUBLIC	_PEM_write_X509_REQ_NEW
PUBLIC	_PEM_read_bio_X509_CRL
PUBLIC	_PEM_read_X509_CRL
PUBLIC	_PEM_write_bio_X509_CRL
PUBLIC	_PEM_write_X509_CRL
PUBLIC	_PEM_read_bio_PKCS7
PUBLIC	_PEM_read_PKCS7
PUBLIC	_PEM_write_bio_PKCS7
PUBLIC	_PEM_write_PKCS7
PUBLIC	_PEM_read_bio_NETSCAPE_CERT_SEQUENCE
PUBLIC	_PEM_read_NETSCAPE_CERT_SEQUENCE
PUBLIC	_PEM_write_bio_NETSCAPE_CERT_SEQUENCE
PUBLIC	_PEM_write_NETSCAPE_CERT_SEQUENCE
PUBLIC	_PEM_read_bio_RSAPrivateKey
PUBLIC	_PEM_read_RSAPrivateKey
PUBLIC	_PEM_write_bio_RSAPrivateKey
PUBLIC	_PEM_write_RSAPrivateKey
PUBLIC	_PEM_read_bio_RSAPublicKey
PUBLIC	_PEM_read_RSAPublicKey
PUBLIC	_PEM_write_bio_RSAPublicKey
PUBLIC	_PEM_write_RSAPublicKey
PUBLIC	_PEM_read_bio_RSA_PUBKEY
PUBLIC	_PEM_read_RSA_PUBKEY
PUBLIC	_PEM_write_bio_RSA_PUBKEY
PUBLIC	_PEM_write_RSA_PUBKEY
PUBLIC	_PEM_read_bio_DSAPrivateKey
PUBLIC	_PEM_read_DSAPrivateKey
PUBLIC	_PEM_write_bio_DSAPrivateKey
PUBLIC	_PEM_write_DSAPrivateKey
PUBLIC	_PEM_read_bio_DSA_PUBKEY
PUBLIC	_PEM_read_DSA_PUBKEY
PUBLIC	_PEM_write_bio_DSA_PUBKEY
PUBLIC	_PEM_write_DSA_PUBKEY
PUBLIC	_PEM_read_bio_DSAparams
PUBLIC	_PEM_read_DSAparams
PUBLIC	_PEM_write_bio_DSAparams
PUBLIC	_PEM_write_DSAparams
PUBLIC	_PEM_read_bio_ECPKParameters
PUBLIC	_PEM_read_ECPKParameters
PUBLIC	_PEM_write_bio_ECPKParameters
PUBLIC	_PEM_write_ECPKParameters
PUBLIC	_PEM_read_bio_ECPrivateKey
PUBLIC	_PEM_read_ECPrivateKey
PUBLIC	_PEM_write_bio_ECPrivateKey
PUBLIC	_PEM_write_ECPrivateKey
PUBLIC	_PEM_read_bio_EC_PUBKEY
PUBLIC	_PEM_read_EC_PUBKEY
PUBLIC	_PEM_write_bio_EC_PUBKEY
PUBLIC	_PEM_write_EC_PUBKEY
PUBLIC	_PEM_write_bio_DHparams
PUBLIC	_PEM_write_DHparams
PUBLIC	_PEM_write_bio_DHxparams
PUBLIC	_PEM_write_DHxparams
PUBLIC	_PEM_read_bio_PUBKEY
PUBLIC	_PEM_read_PUBKEY
PUBLIC	_PEM_write_bio_PUBKEY
PUBLIC	_PEM_write_PUBKEY
PUBLIC	??_C@_0BE@PGIFFILK@CERTIFICATE?5REQUEST?$AA@	; `string'
PUBLIC	??_C@_0BI@BBDALNCF@NEW?5CERTIFICATE?5REQUEST?$AA@ ; `string'
PUBLIC	??_C@_08ONNDIEBB@X509?5CRL?$AA@			; `string'
PUBLIC	??_C@_05BKMMPIPN@PKCS7?$AA@			; `string'
PUBLIC	??_C@_0M@BFIJENPO@CERTIFICATE?$AA@		; `string'
PUBLIC	??_C@_0BA@COBLGNON@RSA?5PRIVATE?5KEY?$AA@	; `string'
PUBLIC	??_C@_0P@EMAFKJEG@RSA?5PUBLIC?5KEY?$AA@		; `string'
PUBLIC	??_C@_0L@PFAODDHO@PUBLIC?5KEY?$AA@		; `string'
PUBLIC	??_C@_0BA@JLKNDKJH@DSA?5PRIVATE?5KEY?$AA@	; `string'
PUBLIC	??_C@_0P@BOAADPIE@DSA?5PARAMETERS?$AA@		; `string'
PUBLIC	??_C@_0O@KGMDJJCL@EC?5PARAMETERS?$AA@		; `string'
PUBLIC	??_C@_0P@NNHMEHEI@EC?5PRIVATE?5KEY?$AA@		; `string'
PUBLIC	??_C@_0O@NMAFMHPO@DH?5PARAMETERS?$AA@		; `string'
PUBLIC	??_C@_0BE@FBOHFABJ@X9?442?5DH?5PARAMETERS?$AA@	; `string'
EXTRN	_EVP_PKEY_get1_RSA:PROC
EXTRN	_EVP_PKEY_get1_DSA:PROC
EXTRN	_EVP_PKEY_get1_EC_KEY:PROC
EXTRN	_EVP_PKEY_free:PROC
EXTRN	_d2i_ECPKParameters:PROC
EXTRN	_i2d_ECPKParameters:PROC
EXTRN	_EC_KEY_free:PROC
EXTRN	_i2d_ECPrivateKey:PROC
EXTRN	_RSA_free:PROC
EXTRN	_d2i_RSAPublicKey:PROC
EXTRN	_i2d_RSAPublicKey:PROC
EXTRN	_i2d_RSAPrivateKey:PROC
EXTRN	_i2d_DHparams:PROC
EXTRN	_i2d_DHxparams:PROC
EXTRN	_DSA_free:PROC
EXTRN	_d2i_DSAparams:PROC
EXTRN	_i2d_DSAPrivateKey:PROC
EXTRN	_i2d_DSAparams:PROC
EXTRN	_d2i_PKCS7:PROC
EXTRN	_i2d_PKCS7:PROC
EXTRN	_i2d_PUBKEY:PROC
EXTRN	_d2i_PUBKEY:PROC
EXTRN	_i2d_RSA_PUBKEY:PROC
EXTRN	_d2i_RSA_PUBKEY:PROC
EXTRN	_i2d_DSA_PUBKEY:PROC
EXTRN	_d2i_DSA_PUBKEY:PROC
EXTRN	_i2d_EC_PUBKEY:PROC
EXTRN	_d2i_EC_PUBKEY:PROC
EXTRN	_d2i_X509_REQ:PROC
EXTRN	_i2d_X509_REQ:PROC
EXTRN	_d2i_X509_CRL:PROC
EXTRN	_i2d_X509_CRL:PROC
EXTRN	_d2i_NETSCAPE_CERT_SEQUENCE:PROC
EXTRN	_i2d_NETSCAPE_CERT_SEQUENCE:PROC
EXTRN	_PEM_ASN1_read_bio:PROC
EXTRN	_PEM_ASN1_write_bio:PROC
EXTRN	_PEM_ASN1_read:PROC
EXTRN	_PEM_ASN1_write:PROC
EXTRN	_PEM_read_bio_PrivateKey:PROC
EXTRN	_PEM_read_PrivateKey:PROC
;	COMDAT ??_C@_0BE@FBOHFABJ@X9?442?5DH?5PARAMETERS?$AA@
CONST	SEGMENT
??_C@_0BE@FBOHFABJ@X9?442?5DH?5PARAMETERS?$AA@ DB 'X9.42 DH PARAMETERS', 00H ; `string'
CONST	ENDS
;	COMDAT ??_C@_0O@NMAFMHPO@DH?5PARAMETERS?$AA@
CONST	SEGMENT
??_C@_0O@NMAFMHPO@DH?5PARAMETERS?$AA@ DB 'DH PARAMETERS', 00H ; `string'
CONST	ENDS
;	COMDAT ??_C@_0P@NNHMEHEI@EC?5PRIVATE?5KEY?$AA@
CONST	SEGMENT
??_C@_0P@NNHMEHEI@EC?5PRIVATE?5KEY?$AA@ DB 'EC PRIVATE KEY', 00H ; `string'
CONST	ENDS
;	COMDAT ??_C@_0O@KGMDJJCL@EC?5PARAMETERS?$AA@
CONST	SEGMENT
??_C@_0O@KGMDJJCL@EC?5PARAMETERS?$AA@ DB 'EC PARAMETERS', 00H ; `string'
CONST	ENDS
;	COMDAT ??_C@_0P@BOAADPIE@DSA?5PARAMETERS?$AA@
CONST	SEGMENT
??_C@_0P@BOAADPIE@DSA?5PARAMETERS?$AA@ DB 'DSA PARAMETERS', 00H ; `string'
CONST	ENDS
;	COMDAT ??_C@_0BA@JLKNDKJH@DSA?5PRIVATE?5KEY?$AA@
CONST	SEGMENT
??_C@_0BA@JLKNDKJH@DSA?5PRIVATE?5KEY?$AA@ DB 'DSA PRIVATE KEY', 00H ; `string'
CONST	ENDS
;	COMDAT ??_C@_0L@PFAODDHO@PUBLIC?5KEY?$AA@
CONST	SEGMENT
??_C@_0L@PFAODDHO@PUBLIC?5KEY?$AA@ DB 'PUBLIC KEY', 00H	; `string'
CONST	ENDS
;	COMDAT ??_C@_0P@EMAFKJEG@RSA?5PUBLIC?5KEY?$AA@
CONST	SEGMENT
??_C@_0P@EMAFKJEG@RSA?5PUBLIC?5KEY?$AA@ DB 'RSA PUBLIC KEY', 00H ; `string'
CONST	ENDS
;	COMDAT ??_C@_0BA@COBLGNON@RSA?5PRIVATE?5KEY?$AA@
CONST	SEGMENT
??_C@_0BA@COBLGNON@RSA?5PRIVATE?5KEY?$AA@ DB 'RSA PRIVATE KEY', 00H ; `string'
CONST	ENDS
;	COMDAT ??_C@_0M@BFIJENPO@CERTIFICATE?$AA@
CONST	SEGMENT
??_C@_0M@BFIJENPO@CERTIFICATE?$AA@ DB 'CERTIFICATE', 00H ; `string'
CONST	ENDS
;	COMDAT ??_C@_05BKMMPIPN@PKCS7?$AA@
CONST	SEGMENT
??_C@_05BKMMPIPN@PKCS7?$AA@ DB 'PKCS7', 00H		; `string'
CONST	ENDS
;	COMDAT ??_C@_08ONNDIEBB@X509?5CRL?$AA@
CONST	SEGMENT
??_C@_08ONNDIEBB@X509?5CRL?$AA@ DB 'X509 CRL', 00H	; `string'
CONST	ENDS
;	COMDAT ??_C@_0BI@BBDALNCF@NEW?5CERTIFICATE?5REQUEST?$AA@
CONST	SEGMENT
??_C@_0BI@BBDALNCF@NEW?5CERTIFICATE?5REQUEST?$AA@ DB 'NEW CERTIFICATE REQ'
	DB	'UEST', 00H					; `string'
CONST	ENDS
;	COMDAT ??_C@_0BE@PGIFFILK@CERTIFICATE?5REQUEST?$AA@
CONST	SEGMENT
??_C@_0BE@PGIFFILK@CERTIFICATE?5REQUEST?$AA@ DB 'CERTIFICATE REQUEST', 00H ; `string'
CONST	ENDS
; Function compile flags: /Ogtpy
;	COMDAT _pkey_get_eckey
_TEXT	SEGMENT
_key$ = 8						; size = 4
_eckey$ = 12						; size = 4
_pkey_get_eckey PROC					; COMDAT
; File c:\workpace\openssl\openssl-1.0.2h\crypto\pem\pem_all.c
; Line 335
	push	esi
; Line 337
	mov	esi, DWORD PTR _key$[esp]
	test	esi, esi
	jne	SHORT $LN2@pkey_get_e
; Line 338
	xor	eax, eax
	pop	esi
; Line 348
	ret	0
$LN2@pkey_get_e:
	push	edi
; Line 339
	push	esi
	call	_EVP_PKEY_get1_EC_KEY
; Line 340
	push	esi
	mov	edi, eax
	call	_EVP_PKEY_free
	add	esp, 8
; Line 341
	test	edi, edi
	jne	SHORT $LN3@pkey_get_e
; Line 342
	pop	edi
	xor	eax, eax
	pop	esi
; Line 348
	ret	0
$LN3@pkey_get_e:
; Line 343
	mov	esi, DWORD PTR _eckey$[esp+4]
	test	esi, esi
	je	SHORT $LN4@pkey_get_e
; Line 344
	push	DWORD PTR [esi]
	call	_EC_KEY_free
	add	esp, 4
; Line 345
	mov	DWORD PTR [esi], edi
$LN4@pkey_get_e:
; Line 347
	mov	eax, edi
	pop	edi
	pop	esi
; Line 348
	ret	0
_pkey_get_eckey ENDP
_TEXT	ENDS
; Function compile flags: /Ogtpy
;	COMDAT _pkey_get_dsa
_TEXT	SEGMENT
_key$ = 8						; size = 4
_dsa$ = 12						; size = 4
_pkey_get_dsa PROC					; COMDAT
; File c:\workpace\openssl\openssl-1.0.2h\crypto\pem\pem_all.c
; Line 248
	push	esi
; Line 250
	mov	esi, DWORD PTR _key$[esp]
	test	esi, esi
	jne	SHORT $LN2@pkey_get_d
; Line 251
	xor	eax, eax
	pop	esi
; Line 261
	ret	0
$LN2@pkey_get_d:
	push	edi
; Line 252
	push	esi
	call	_EVP_PKEY_get1_DSA
; Line 253
	push	esi
	mov	edi, eax
	call	_EVP_PKEY_free
	add	esp, 8
; Line 254
	test	edi, edi
	jne	SHORT $LN3@pkey_get_d
; Line 255
	pop	edi
	xor	eax, eax
	pop	esi
; Line 261
	ret	0
$LN3@pkey_get_d:
; Line 256
	mov	esi, DWORD PTR _dsa$[esp+4]
	test	esi, esi
	je	SHORT $LN4@pkey_get_d
; Line 257
	push	DWORD PTR [esi]
	call	_DSA_free
	add	esp, 4
; Line 258
	mov	DWORD PTR [esi], edi
$LN4@pkey_get_d:
; Line 260
	mov	eax, edi
	pop	edi
	pop	esi
; Line 261
	ret	0
_pkey_get_dsa ENDP
_TEXT	ENDS
; Function compile flags: /Ogtpy
;	COMDAT _pkey_get_rsa
_TEXT	SEGMENT
_key$ = 8						; size = 4
_rsa$ = 12						; size = 4
_pkey_get_rsa PROC					; COMDAT
; File c:\workpace\openssl\openssl-1.0.2h\crypto\pem\pem_all.c
; Line 156
	push	esi
; Line 158
	mov	esi, DWORD PTR _key$[esp]
	test	esi, esi
	jne	SHORT $LN2@pkey_get_r
; Line 159
	xor	eax, eax
	pop	esi
; Line 169
	ret	0
$LN2@pkey_get_r:
	push	edi
; Line 160
	push	esi
	call	_EVP_PKEY_get1_RSA
; Line 161
	push	esi
	mov	edi, eax
	call	_EVP_PKEY_free
	add	esp, 8
; Line 162
	test	edi, edi
	jne	SHORT $LN3@pkey_get_r
; Line 163
	pop	edi
	xor	eax, eax
	pop	esi
; Line 169
	ret	0
$LN3@pkey_get_r:
; Line 164
	mov	esi, DWORD PTR _rsa$[esp+4]
	test	esi, esi
	je	SHORT $LN4@pkey_get_r
; Line 165
	push	DWORD PTR [esi]
	call	_RSA_free
	add	esp, 4
; Line 166
	mov	DWORD PTR [esi], edi
$LN4@pkey_get_r:
; Line 168
	mov	eax, edi
	pop	edi
	pop	esi
; Line 169
	ret	0
_pkey_get_rsa ENDP
_TEXT	ENDS
; Function compile flags: /Ogtpy
;	COMDAT _PEM_write_PUBKEY
_TEXT	SEGMENT
_fp$ = 8						; size = 4
_x$ = 12						; size = 4
_PEM_write_PUBKEY PROC					; COMDAT
; File c:\workpace\openssl\openssl-1.0.2h\crypto\pem\pem_all.c
; Line 427
	push	0
	push	0
	push	0
	push	0
	push	0
	push	DWORD PTR _x$[esp+16]
	push	DWORD PTR _fp$[esp+20]
	push	OFFSET ??_C@_0L@PFAODDHO@PUBLIC?5KEY?$AA@
	push	OFFSET _i2d_PUBKEY
	call	_PEM_ASN1_write
	add	esp, 36					; 00000024H
	ret	0
_PEM_write_PUBKEY ENDP
_TEXT	ENDS
; Function compile flags: /Ogtpy
;	COMDAT _PEM_write_bio_PUBKEY
_TEXT	SEGMENT
_bp$ = 8						; size = 4
_x$ = 12						; size = 4
_PEM_write_bio_PUBKEY PROC				; COMDAT
; File c:\workpace\openssl\openssl-1.0.2h\crypto\pem\pem_all.c
; Line 427
	push	0
	push	0
	push	0
	push	0
	push	0
	push	DWORD PTR _x$[esp+16]
	push	DWORD PTR _bp$[esp+20]
	push	OFFSET ??_C@_0L@PFAODDHO@PUBLIC?5KEY?$AA@
	push	OFFSET _i2d_PUBKEY
	call	_PEM_ASN1_write_bio
	add	esp, 36					; 00000024H
	ret	0
_PEM_write_bio_PUBKEY ENDP
_TEXT	ENDS
; Function compile flags: /Ogtpy
;	COMDAT _PEM_read_PUBKEY
_TEXT	SEGMENT
_fp$ = 8						; size = 4
_x$ = 12						; size = 4
_cb$ = 16						; size = 4
_u$ = 20						; size = 4
_PEM_read_PUBKEY PROC					; COMDAT
; File c:\workpace\openssl\openssl-1.0.2h\crypto\pem\pem_all.c
; Line 427
	push	DWORD PTR _u$[esp-4]
	push	DWORD PTR _cb$[esp]
	push	DWORD PTR _x$[esp+4]
	push	DWORD PTR _fp$[esp+8]
	push	OFFSET ??_C@_0L@PFAODDHO@PUBLIC?5KEY?$AA@
	push	OFFSET _d2i_PUBKEY
	call	_PEM_ASN1_read
	add	esp, 24					; 00000018H
	ret	0
_PEM_read_PUBKEY ENDP
_TEXT	ENDS
; Function compile flags: /Ogtpy
;	COMDAT _PEM_read_bio_PUBKEY
_TEXT	SEGMENT
_bp$ = 8						; size = 4
_x$ = 12						; size = 4
_cb$ = 16						; size = 4
_u$ = 20						; size = 4
_PEM_read_bio_PUBKEY PROC				; COMDAT
; File c:\workpace\openssl\openssl-1.0.2h\crypto\pem\pem_all.c
; Line 427
	push	DWORD PTR _u$[esp-4]
	push	DWORD PTR _cb$[esp]
	push	DWORD PTR _x$[esp+4]
	push	DWORD PTR _bp$[esp+8]
	push	OFFSET ??_C@_0L@PFAODDHO@PUBLIC?5KEY?$AA@
	push	OFFSET _d2i_PUBKEY
	call	_PEM_ASN1_read_bio
	add	esp, 24					; 00000018H
	ret	0
_PEM_read_bio_PUBKEY ENDP
_TEXT	ENDS
; Function compile flags: /Ogtpy
;	COMDAT _PEM_write_DHxparams
_TEXT	SEGMENT
_fp$ = 8						; size = 4
_x$ = 12						; size = 4
_PEM_write_DHxparams PROC				; COMDAT
; File c:\workpace\openssl\openssl-1.0.2h\crypto\pem\pem_all.c
; Line 425
	push	0
	push	0
	push	0
	push	0
	push	0
	push	DWORD PTR _x$[esp+16]
	push	DWORD PTR _fp$[esp+20]
	push	OFFSET ??_C@_0BE@FBOHFABJ@X9?442?5DH?5PARAMETERS?$AA@
	push	OFFSET _i2d_DHxparams
	call	_PEM_ASN1_write
	add	esp, 36					; 00000024H
	ret	0
_PEM_write_DHxparams ENDP
_TEXT	ENDS
; Function compile flags: /Ogtpy
;	COMDAT _PEM_write_bio_DHxparams
_TEXT	SEGMENT
_bp$ = 8						; size = 4
_x$ = 12						; size = 4
_PEM_write_bio_DHxparams PROC				; COMDAT
; File c:\workpace\openssl\openssl-1.0.2h\crypto\pem\pem_all.c
; Line 425
	push	0
	push	0
	push	0
	push	0
	push	0
	push	DWORD PTR _x$[esp+16]
	push	DWORD PTR _bp$[esp+20]
	push	OFFSET ??_C@_0BE@FBOHFABJ@X9?442?5DH?5PARAMETERS?$AA@
	push	OFFSET _i2d_DHxparams
	call	_PEM_ASN1_write_bio
	add	esp, 36					; 00000024H
	ret	0
_PEM_write_bio_DHxparams ENDP
_TEXT	ENDS
; Function compile flags: /Ogtpy
;	COMDAT _PEM_write_DHparams
_TEXT	SEGMENT
_fp$ = 8						; size = 4
_x$ = 12						; size = 4
_PEM_write_DHparams PROC				; COMDAT
; File c:\workpace\openssl\openssl-1.0.2h\crypto\pem\pem_all.c
; Line 424
	push	0
	push	0
	push	0
	push	0
	push	0
	push	DWORD PTR _x$[esp+16]
	push	DWORD PTR _fp$[esp+20]
	push	OFFSET ??_C@_0O@NMAFMHPO@DH?5PARAMETERS?$AA@
	push	OFFSET _i2d_DHparams
	call	_PEM_ASN1_write
	add	esp, 36					; 00000024H
	ret	0
_PEM_write_DHparams ENDP
_TEXT	ENDS
; Function compile flags: /Ogtpy
;	COMDAT _PEM_write_bio_DHparams
_TEXT	SEGMENT
_bp$ = 8						; size = 4
_x$ = 12						; size = 4
_PEM_write_bio_DHparams PROC				; COMDAT
; File c:\workpace\openssl\openssl-1.0.2h\crypto\pem\pem_all.c
; Line 424
	push	0
	push	0
	push	0
	push	0
	push	0
	push	DWORD PTR _x$[esp+16]
	push	DWORD PTR _bp$[esp+20]
	push	OFFSET ??_C@_0O@NMAFMHPO@DH?5PARAMETERS?$AA@
	push	OFFSET _i2d_DHparams
	call	_PEM_ASN1_write_bio
	add	esp, 36					; 00000024H
	ret	0
_PEM_write_bio_DHparams ENDP
_TEXT	ENDS
; Function compile flags: /Ogtpy
;	COMDAT _PEM_write_EC_PUBKEY
_TEXT	SEGMENT
_fp$ = 8						; size = 4
_x$ = 12						; size = 4
_PEM_write_EC_PUBKEY PROC				; COMDAT
; File c:\workpace\openssl\openssl-1.0.2h\crypto\pem\pem_all.c
; Line 408
	push	0
	push	0
	push	0
	push	0
	push	0
	push	DWORD PTR _x$[esp+16]
	push	DWORD PTR _fp$[esp+20]
	push	OFFSET ??_C@_0L@PFAODDHO@PUBLIC?5KEY?$AA@
	push	OFFSET _i2d_EC_PUBKEY
	call	_PEM_ASN1_write
	add	esp, 36					; 00000024H
	ret	0
_PEM_write_EC_PUBKEY ENDP
_TEXT	ENDS
; Function compile flags: /Ogtpy
;	COMDAT _PEM_write_bio_EC_PUBKEY
_TEXT	SEGMENT
_bp$ = 8						; size = 4
_x$ = 12						; size = 4
_PEM_write_bio_EC_PUBKEY PROC				; COMDAT
; File c:\workpace\openssl\openssl-1.0.2h\crypto\pem\pem_all.c
; Line 408
	push	0
	push	0
	push	0
	push	0
	push	0
	push	DWORD PTR _x$[esp+16]
	push	DWORD PTR _bp$[esp+20]
	push	OFFSET ??_C@_0L@PFAODDHO@PUBLIC?5KEY?$AA@
	push	OFFSET _i2d_EC_PUBKEY
	call	_PEM_ASN1_write_bio
	add	esp, 36					; 00000024H
	ret	0
_PEM_write_bio_EC_PUBKEY ENDP
_TEXT	ENDS
; Function compile flags: /Ogtpy
;	COMDAT _PEM_read_EC_PUBKEY
_TEXT	SEGMENT
_fp$ = 8						; size = 4
_x$ = 12						; size = 4
_cb$ = 16						; size = 4
_u$ = 20						; size = 4
_PEM_read_EC_PUBKEY PROC				; COMDAT
; File c:\workpace\openssl\openssl-1.0.2h\crypto\pem\pem_all.c
; Line 408
	push	DWORD PTR _u$[esp-4]
	push	DWORD PTR _cb$[esp]
	push	DWORD PTR _x$[esp+4]
	push	DWORD PTR _fp$[esp+8]
	push	OFFSET ??_C@_0L@PFAODDHO@PUBLIC?5KEY?$AA@
	push	OFFSET _d2i_EC_PUBKEY
	call	_PEM_ASN1_read
	add	esp, 24					; 00000018H
	ret	0
_PEM_read_EC_PUBKEY ENDP
_TEXT	ENDS
; Function compile flags: /Ogtpy
;	COMDAT _PEM_read_bio_EC_PUBKEY
_TEXT	SEGMENT
_bp$ = 8						; size = 4
_x$ = 12						; size = 4
_cb$ = 16						; size = 4
_u$ = 20						; size = 4
_PEM_read_bio_EC_PUBKEY PROC				; COMDAT
; File c:\workpace\openssl\openssl-1.0.2h\crypto\pem\pem_all.c
; Line 408
	push	DWORD PTR _u$[esp-4]
	push	DWORD PTR _cb$[esp]
	push	DWORD PTR _x$[esp+4]
	push	DWORD PTR _bp$[esp+8]
	push	OFFSET ??_C@_0L@PFAODDHO@PUBLIC?5KEY?$AA@
	push	OFFSET _d2i_EC_PUBKEY
	call	_PEM_ASN1_read_bio
	add	esp, 24					; 00000018H
	ret	0
_PEM_read_bio_EC_PUBKEY ENDP
_TEXT	ENDS
; Function compile flags: /Ogtpy
;	COMDAT _PEM_write_ECPrivateKey
_TEXT	SEGMENT
_fp$ = 8						; size = 4
_x$ = 12						; size = 4
_enc$ = 16						; size = 4
_kstr$ = 20						; size = 4
_klen$ = 24						; size = 4
_cb$ = 28						; size = 4
_u$ = 32						; size = 4
_PEM_write_ECPrivateKey PROC				; COMDAT
; File c:\workpace\openssl\openssl-1.0.2h\crypto\pem\pem_all.c
; Line 405
	push	DWORD PTR _u$[esp-4]
	push	DWORD PTR _cb$[esp]
	push	DWORD PTR _klen$[esp+4]
	push	DWORD PTR _kstr$[esp+8]
	push	DWORD PTR _enc$[esp+12]
	push	DWORD PTR _x$[esp+16]
	push	DWORD PTR _fp$[esp+20]
	push	OFFSET ??_C@_0P@NNHMEHEI@EC?5PRIVATE?5KEY?$AA@
	push	OFFSET _i2d_ECPrivateKey
	call	_PEM_ASN1_write
	add	esp, 36					; 00000024H
; Line 406
	ret	0
_PEM_write_ECPrivateKey ENDP
_TEXT	ENDS
; Function compile flags: /Ogtpy
;	COMDAT _PEM_write_bio_ECPrivateKey
_TEXT	SEGMENT
_bp$ = 8						; size = 4
_x$ = 12						; size = 4
_enc$ = 16						; size = 4
_kstr$ = 20						; size = 4
_klen$ = 24						; size = 4
_cb$ = 28						; size = 4
_u$ = 32						; size = 4
_PEM_write_bio_ECPrivateKey PROC			; COMDAT
; File c:\workpace\openssl\openssl-1.0.2h\crypto\pem\pem_all.c
; Line 405
	push	DWORD PTR _u$[esp-4]
	push	DWORD PTR _cb$[esp]
	push	DWORD PTR _klen$[esp+4]
	push	DWORD PTR _kstr$[esp+8]
	push	DWORD PTR _enc$[esp+12]
	push	DWORD PTR _x$[esp+16]
	push	DWORD PTR _bp$[esp+20]
	push	OFFSET ??_C@_0P@NNHMEHEI@EC?5PRIVATE?5KEY?$AA@
	push	OFFSET _i2d_ECPrivateKey
	call	_PEM_ASN1_write_bio
	add	esp, 36					; 00000024H
; Line 406
	ret	0
_PEM_write_bio_ECPrivateKey ENDP
_TEXT	ENDS
; Function compile flags: /Ogtpy
;	COMDAT _PEM_read_ECPrivateKey
_TEXT	SEGMENT
_fp$ = 8						; size = 4
_eckey$ = 12						; size = 4
_cb$ = 16						; size = 4
_u$ = 20						; size = 4
_PEM_read_ECPrivateKey PROC				; COMDAT
; File c:\workpace\openssl\openssl-1.0.2h\crypto\pem\pem_all.c
; Line 412
	push	esi
; Line 414
	push	DWORD PTR _u$[esp]
	push	DWORD PTR _cb$[esp+4]
	push	0
	push	DWORD PTR _fp$[esp+12]
	call	_PEM_read_PrivateKey
	mov	esi, eax
	add	esp, 16					; 00000010H
; Line 337
	test	esi, esi
	jne	SHORT $LN4@PEM_read_E
	pop	esi
; Line 416
	ret	0
$LN4@PEM_read_E:
	push	edi
; Line 339
	push	esi
	call	_EVP_PKEY_get1_EC_KEY
; Line 340
	push	esi
	mov	edi, eax
	call	_EVP_PKEY_free
	add	esp, 8
; Line 341
	test	edi, edi
	jne	SHORT $LN5@PEM_read_E
; Line 415
	pop	edi
	xor	eax, eax
	pop	esi
; Line 416
	ret	0
$LN5@PEM_read_E:
; Line 343
	mov	esi, DWORD PTR _eckey$[esp+4]
	test	esi, esi
	je	SHORT $LN6@PEM_read_E
; Line 344
	push	DWORD PTR [esi]
	call	_EC_KEY_free
	add	esp, 4
; Line 345
	mov	DWORD PTR [esi], edi
$LN6@PEM_read_E:
; Line 415
	mov	eax, edi
	pop	edi
	pop	esi
; Line 416
	ret	0
_PEM_read_ECPrivateKey ENDP
_TEXT	ENDS
; Function compile flags: /Ogtpy
;	COMDAT _PEM_read_bio_ECPrivateKey
_TEXT	SEGMENT
_bp$ = 8						; size = 4
_key$ = 12						; size = 4
_cb$ = 16						; size = 4
_u$ = 20						; size = 4
_PEM_read_bio_ECPrivateKey PROC				; COMDAT
; File c:\workpace\openssl\openssl-1.0.2h\crypto\pem\pem_all.c
; Line 352
	push	esi
; Line 354
	push	DWORD PTR _u$[esp]
	push	DWORD PTR _cb$[esp+4]
	push	0
	push	DWORD PTR _bp$[esp+12]
	call	_PEM_read_bio_PrivateKey
	mov	esi, eax
	add	esp, 16					; 00000010H
; Line 337
	test	esi, esi
	jne	SHORT $LN4@PEM_read_b
	pop	esi
; Line 356
	ret	0
$LN4@PEM_read_b:
	push	edi
; Line 339
	push	esi
	call	_EVP_PKEY_get1_EC_KEY
; Line 340
	push	esi
	mov	edi, eax
	call	_EVP_PKEY_free
	add	esp, 8
; Line 341
	test	edi, edi
	jne	SHORT $LN5@PEM_read_b
; Line 355
	pop	edi
	xor	eax, eax
	pop	esi
; Line 356
	ret	0
$LN5@PEM_read_b:
; Line 343
	mov	esi, DWORD PTR _key$[esp+4]
	test	esi, esi
	je	SHORT $LN6@PEM_read_b
; Line 344
	push	DWORD PTR [esi]
	call	_EC_KEY_free
	add	esp, 4
; Line 345
	mov	DWORD PTR [esi], edi
$LN6@PEM_read_b:
; Line 355
	mov	eax, edi
	pop	edi
	pop	esi
; Line 356
	ret	0
_PEM_read_bio_ECPrivateKey ENDP
_TEXT	ENDS
; Function compile flags: /Ogtpy
;	COMDAT _PEM_write_ECPKParameters
_TEXT	SEGMENT
_fp$ = 8						; size = 4
_x$ = 12						; size = 4
_PEM_write_ECPKParameters PROC				; COMDAT
; File c:\workpace\openssl\openssl-1.0.2h\crypto\pem\pem_all.c
; Line 358
	push	0
	push	0
	push	0
	push	0
	push	0
	push	DWORD PTR _x$[esp+16]
	push	DWORD PTR _fp$[esp+20]
	push	OFFSET ??_C@_0O@KGMDJJCL@EC?5PARAMETERS?$AA@
	push	OFFSET _i2d_ECPKParameters
	call	_PEM_ASN1_write
	add	esp, 36					; 00000024H
; Line 359
	ret	0
_PEM_write_ECPKParameters ENDP
_TEXT	ENDS
; Function compile flags: /Ogtpy
;	COMDAT _PEM_write_bio_ECPKParameters
_TEXT	SEGMENT
_bp$ = 8						; size = 4
_x$ = 12						; size = 4
_PEM_write_bio_ECPKParameters PROC			; COMDAT
; File c:\workpace\openssl\openssl-1.0.2h\crypto\pem\pem_all.c
; Line 358
	push	0
	push	0
	push	0
	push	0
	push	0
	push	DWORD PTR _x$[esp+16]
	push	DWORD PTR _bp$[esp+20]
	push	OFFSET ??_C@_0O@KGMDJJCL@EC?5PARAMETERS?$AA@
	push	OFFSET _i2d_ECPKParameters
	call	_PEM_ASN1_write_bio
	add	esp, 36					; 00000024H
; Line 359
	ret	0
_PEM_write_bio_ECPKParameters ENDP
_TEXT	ENDS
; Function compile flags: /Ogtpy
;	COMDAT _PEM_read_ECPKParameters
_TEXT	SEGMENT
_fp$ = 8						; size = 4
_x$ = 12						; size = 4
_cb$ = 16						; size = 4
_u$ = 20						; size = 4
_PEM_read_ECPKParameters PROC				; COMDAT
; File c:\workpace\openssl\openssl-1.0.2h\crypto\pem\pem_all.c
; Line 358
	push	DWORD PTR _u$[esp-4]
	push	DWORD PTR _cb$[esp]
	push	DWORD PTR _x$[esp+4]
	push	DWORD PTR _fp$[esp+8]
	push	OFFSET ??_C@_0O@KGMDJJCL@EC?5PARAMETERS?$AA@
	push	OFFSET _d2i_ECPKParameters
	call	_PEM_ASN1_read
	add	esp, 24					; 00000018H
; Line 359
	ret	0
_PEM_read_ECPKParameters ENDP
_TEXT	ENDS
; Function compile flags: /Ogtpy
;	COMDAT _PEM_read_bio_ECPKParameters
_TEXT	SEGMENT
_bp$ = 8						; size = 4
_x$ = 12						; size = 4
_cb$ = 16						; size = 4
_u$ = 20						; size = 4
_PEM_read_bio_ECPKParameters PROC			; COMDAT
; File c:\workpace\openssl\openssl-1.0.2h\crypto\pem\pem_all.c
; Line 358
	push	DWORD PTR _u$[esp-4]
	push	DWORD PTR _cb$[esp]
	push	DWORD PTR _x$[esp+4]
	push	DWORD PTR _bp$[esp+8]
	push	OFFSET ??_C@_0O@KGMDJJCL@EC?5PARAMETERS?$AA@
	push	OFFSET _d2i_ECPKParameters
	call	_PEM_ASN1_read_bio
	add	esp, 24					; 00000018H
; Line 359
	ret	0
_PEM_read_bio_ECPKParameters ENDP
_TEXT	ENDS
; Function compile flags: /Ogtpy
;	COMDAT _PEM_write_DSAparams
_TEXT	SEGMENT
_fp$ = 8						; size = 4
_x$ = 12						; size = 4
_PEM_write_DSAparams PROC				; COMDAT
; File c:\workpace\openssl\openssl-1.0.2h\crypto\pem\pem_all.c
; Line 331
	push	0
	push	0
	push	0
	push	0
	push	0
	push	DWORD PTR _x$[esp+16]
	push	DWORD PTR _fp$[esp+20]
	push	OFFSET ??_C@_0P@BOAADPIE@DSA?5PARAMETERS?$AA@
	push	OFFSET _i2d_DSAparams
	call	_PEM_ASN1_write
	add	esp, 36					; 00000024H
	ret	0
_PEM_write_DSAparams ENDP
_TEXT	ENDS
; Function compile flags: /Ogtpy
;	COMDAT _PEM_write_bio_DSAparams
_TEXT	SEGMENT
_bp$ = 8						; size = 4
_x$ = 12						; size = 4
_PEM_write_bio_DSAparams PROC				; COMDAT
; File c:\workpace\openssl\openssl-1.0.2h\crypto\pem\pem_all.c
; Line 331
	push	0
	push	0
	push	0
	push	0
	push	0
	push	DWORD PTR _x$[esp+16]
	push	DWORD PTR _bp$[esp+20]
	push	OFFSET ??_C@_0P@BOAADPIE@DSA?5PARAMETERS?$AA@
	push	OFFSET _i2d_DSAparams
	call	_PEM_ASN1_write_bio
	add	esp, 36					; 00000024H
	ret	0
_PEM_write_bio_DSAparams ENDP
_TEXT	ENDS
; Function compile flags: /Ogtpy
;	COMDAT _PEM_read_DSAparams
_TEXT	SEGMENT
_fp$ = 8						; size = 4
_x$ = 12						; size = 4
_cb$ = 16						; size = 4
_u$ = 20						; size = 4
_PEM_read_DSAparams PROC				; COMDAT
; File c:\workpace\openssl\openssl-1.0.2h\crypto\pem\pem_all.c
; Line 331
	push	DWORD PTR _u$[esp-4]
	push	DWORD PTR _cb$[esp]
	push	DWORD PTR _x$[esp+4]
	push	DWORD PTR _fp$[esp+8]
	push	OFFSET ??_C@_0P@BOAADPIE@DSA?5PARAMETERS?$AA@
	push	OFFSET _d2i_DSAparams
	call	_PEM_ASN1_read
	add	esp, 24					; 00000018H
	ret	0
_PEM_read_DSAparams ENDP
_TEXT	ENDS
; Function compile flags: /Ogtpy
;	COMDAT _PEM_read_bio_DSAparams
_TEXT	SEGMENT
_bp$ = 8						; size = 4
_x$ = 12						; size = 4
_cb$ = 16						; size = 4
_u$ = 20						; size = 4
_PEM_read_bio_DSAparams PROC				; COMDAT
; File c:\workpace\openssl\openssl-1.0.2h\crypto\pem\pem_all.c
; Line 331
	push	DWORD PTR _u$[esp-4]
	push	DWORD PTR _cb$[esp]
	push	DWORD PTR _x$[esp+4]
	push	DWORD PTR _bp$[esp+8]
	push	OFFSET ??_C@_0P@BOAADPIE@DSA?5PARAMETERS?$AA@
	push	OFFSET _d2i_DSAparams
	call	_PEM_ASN1_read_bio
	add	esp, 24					; 00000018H
	ret	0
_PEM_read_bio_DSAparams ENDP
_TEXT	ENDS
; Function compile flags: /Ogtpy
;	COMDAT _PEM_write_DSA_PUBKEY
_TEXT	SEGMENT
_fp$ = 8						; size = 4
_x$ = 12						; size = 4
_PEM_write_DSA_PUBKEY PROC				; COMDAT
; File c:\workpace\openssl\openssl-1.0.2h\crypto\pem\pem_all.c
; Line 320
	push	0
	push	0
	push	0
	push	0
	push	0
	push	DWORD PTR _x$[esp+16]
	push	DWORD PTR _fp$[esp+20]
	push	OFFSET ??_C@_0L@PFAODDHO@PUBLIC?5KEY?$AA@
	push	OFFSET _i2d_DSA_PUBKEY
	call	_PEM_ASN1_write
	add	esp, 36					; 00000024H
	ret	0
_PEM_write_DSA_PUBKEY ENDP
_TEXT	ENDS
; Function compile flags: /Ogtpy
;	COMDAT _PEM_write_bio_DSA_PUBKEY
_TEXT	SEGMENT
_bp$ = 8						; size = 4
_x$ = 12						; size = 4
_PEM_write_bio_DSA_PUBKEY PROC				; COMDAT
; File c:\workpace\openssl\openssl-1.0.2h\crypto\pem\pem_all.c
; Line 320
	push	0
	push	0
	push	0
	push	0
	push	0
	push	DWORD PTR _x$[esp+16]
	push	DWORD PTR _bp$[esp+20]
	push	OFFSET ??_C@_0L@PFAODDHO@PUBLIC?5KEY?$AA@
	push	OFFSET _i2d_DSA_PUBKEY
	call	_PEM_ASN1_write_bio
	add	esp, 36					; 00000024H
	ret	0
_PEM_write_bio_DSA_PUBKEY ENDP
_TEXT	ENDS
; Function compile flags: /Ogtpy
;	COMDAT _PEM_read_DSA_PUBKEY
_TEXT	SEGMENT
_fp$ = 8						; size = 4
_x$ = 12						; size = 4
_cb$ = 16						; size = 4
_u$ = 20						; size = 4
_PEM_read_DSA_PUBKEY PROC				; COMDAT
; File c:\workpace\openssl\openssl-1.0.2h\crypto\pem\pem_all.c
; Line 320
	push	DWORD PTR _u$[esp-4]
	push	DWORD PTR _cb$[esp]
	push	DWORD PTR _x$[esp+4]
	push	DWORD PTR _fp$[esp+8]
	push	OFFSET ??_C@_0L@PFAODDHO@PUBLIC?5KEY?$AA@
	push	OFFSET _d2i_DSA_PUBKEY
	call	_PEM_ASN1_read
	add	esp, 24					; 00000018H
	ret	0
_PEM_read_DSA_PUBKEY ENDP
_TEXT	ENDS
; Function compile flags: /Ogtpy
;	COMDAT _PEM_read_bio_DSA_PUBKEY
_TEXT	SEGMENT
_bp$ = 8						; size = 4
_x$ = 12						; size = 4
_cb$ = 16						; size = 4
_u$ = 20						; size = 4
_PEM_read_bio_DSA_PUBKEY PROC				; COMDAT
; File c:\workpace\openssl\openssl-1.0.2h\crypto\pem\pem_all.c
; Line 320
	push	DWORD PTR _u$[esp-4]
	push	DWORD PTR _cb$[esp]
	push	DWORD PTR _x$[esp+4]
	push	DWORD PTR _bp$[esp+8]
	push	OFFSET ??_C@_0L@PFAODDHO@PUBLIC?5KEY?$AA@
	push	OFFSET _d2i_DSA_PUBKEY
	call	_PEM_ASN1_read_bio
	add	esp, 24					; 00000018H
	ret	0
_PEM_read_bio_DSA_PUBKEY ENDP
_TEXT	ENDS
; Function compile flags: /Ogtpy
;	COMDAT _PEM_write_DSAPrivateKey
_TEXT	SEGMENT
_fp$ = 8						; size = 4
_x$ = 12						; size = 4
_enc$ = 16						; size = 4
_kstr$ = 20						; size = 4
_klen$ = 24						; size = 4
_cb$ = 28						; size = 4
_u$ = 32						; size = 4
_PEM_write_DSAPrivateKey PROC				; COMDAT
; File c:\workpace\openssl\openssl-1.0.2h\crypto\pem\pem_all.c
; Line 317
	push	DWORD PTR _u$[esp-4]
	push	DWORD PTR _cb$[esp]
	push	DWORD PTR _klen$[esp+4]
	push	DWORD PTR _kstr$[esp+8]
	push	DWORD PTR _enc$[esp+12]
	push	DWORD PTR _x$[esp+16]
	push	DWORD PTR _fp$[esp+20]
	push	OFFSET ??_C@_0BA@JLKNDKJH@DSA?5PRIVATE?5KEY?$AA@
	push	OFFSET _i2d_DSAPrivateKey
	call	_PEM_ASN1_write
	add	esp, 36					; 00000024H
; Line 318
	ret	0
_PEM_write_DSAPrivateKey ENDP
_TEXT	ENDS
; Function compile flags: /Ogtpy
;	COMDAT _PEM_write_bio_DSAPrivateKey
_TEXT	SEGMENT
_bp$ = 8						; size = 4
_x$ = 12						; size = 4
_enc$ = 16						; size = 4
_kstr$ = 20						; size = 4
_klen$ = 24						; size = 4
_cb$ = 28						; size = 4
_u$ = 32						; size = 4
_PEM_write_bio_DSAPrivateKey PROC			; COMDAT
; File c:\workpace\openssl\openssl-1.0.2h\crypto\pem\pem_all.c
; Line 317
	push	DWORD PTR _u$[esp-4]
	push	DWORD PTR _cb$[esp]
	push	DWORD PTR _klen$[esp+4]
	push	DWORD PTR _kstr$[esp+8]
	push	DWORD PTR _enc$[esp+12]
	push	DWORD PTR _x$[esp+16]
	push	DWORD PTR _bp$[esp+20]
	push	OFFSET ??_C@_0BA@JLKNDKJH@DSA?5PRIVATE?5KEY?$AA@
	push	OFFSET _i2d_DSAPrivateKey
	call	_PEM_ASN1_write_bio
	add	esp, 36					; 00000024H
; Line 318
	ret	0
_PEM_write_bio_DSAPrivateKey ENDP
_TEXT	ENDS
; Function compile flags: /Ogtpy
;	COMDAT _PEM_read_DSAPrivateKey
_TEXT	SEGMENT
_fp$ = 8						; size = 4
_dsa$ = 12						; size = 4
_cb$ = 16						; size = 4
_u$ = 20						; size = 4
_PEM_read_DSAPrivateKey PROC				; COMDAT
; File c:\workpace\openssl\openssl-1.0.2h\crypto\pem\pem_all.c
; Line 323
	push	esi
; Line 325
	push	DWORD PTR _u$[esp]
	push	DWORD PTR _cb$[esp+4]
	push	0
	push	DWORD PTR _fp$[esp+12]
	call	_PEM_read_PrivateKey
	mov	esi, eax
	add	esp, 16					; 00000010H
; Line 250
	test	esi, esi
	jne	SHORT $LN4@PEM_read_D
	pop	esi
; Line 327
	ret	0
$LN4@PEM_read_D:
	push	edi
; Line 252
	push	esi
	call	_EVP_PKEY_get1_DSA
; Line 253
	push	esi
	mov	edi, eax
	call	_EVP_PKEY_free
	add	esp, 8
; Line 254
	test	edi, edi
	jne	SHORT $LN5@PEM_read_D
; Line 326
	pop	edi
	xor	eax, eax
	pop	esi
; Line 327
	ret	0
$LN5@PEM_read_D:
; Line 256
	mov	esi, DWORD PTR _dsa$[esp+4]
	test	esi, esi
	je	SHORT $LN6@PEM_read_D
; Line 257
	push	DWORD PTR [esi]
	call	_DSA_free
	add	esp, 4
; Line 258
	mov	DWORD PTR [esi], edi
$LN6@PEM_read_D:
; Line 326
	mov	eax, edi
	pop	edi
	pop	esi
; Line 327
	ret	0
_PEM_read_DSAPrivateKey ENDP
_TEXT	ENDS
; Function compile flags: /Ogtpy
;	COMDAT _PEM_read_bio_DSAPrivateKey
_TEXT	SEGMENT
_bp$ = 8						; size = 4
_dsa$ = 12						; size = 4
_cb$ = 16						; size = 4
_u$ = 20						; size = 4
_PEM_read_bio_DSAPrivateKey PROC			; COMDAT
; File c:\workpace\openssl\openssl-1.0.2h\crypto\pem\pem_all.c
; Line 265
	push	esi
; Line 267
	push	DWORD PTR _u$[esp]
	push	DWORD PTR _cb$[esp+4]
	push	0
	push	DWORD PTR _bp$[esp+12]
	call	_PEM_read_bio_PrivateKey
	mov	esi, eax
	add	esp, 16					; 00000010H
; Line 250
	test	esi, esi
	jne	SHORT $LN4@PEM_read_b
	pop	esi
; Line 269
	ret	0
$LN4@PEM_read_b:
	push	edi
; Line 252
	push	esi
	call	_EVP_PKEY_get1_DSA
; Line 253
	push	esi
	mov	edi, eax
	call	_EVP_PKEY_free
	add	esp, 8
; Line 254
	test	edi, edi
	jne	SHORT $LN5@PEM_read_b
; Line 268
	pop	edi
	xor	eax, eax
	pop	esi
; Line 269
	ret	0
$LN5@PEM_read_b:
; Line 256
	mov	esi, DWORD PTR _dsa$[esp+4]
	test	esi, esi
	je	SHORT $LN6@PEM_read_b
; Line 257
	push	DWORD PTR [esi]
	call	_DSA_free
	add	esp, 4
; Line 258
	mov	DWORD PTR [esi], edi
$LN6@PEM_read_b:
; Line 268
	mov	eax, edi
	pop	edi
	pop	esi
; Line 269
	ret	0
_PEM_read_bio_DSAPrivateKey ENDP
_TEXT	ENDS
; Function compile flags: /Ogtpy
;	COMDAT _PEM_write_RSA_PUBKEY
_TEXT	SEGMENT
_fp$ = 8						; size = 4
_x$ = 12						; size = 4
_PEM_write_RSA_PUBKEY PROC				; COMDAT
; File c:\workpace\openssl\openssl-1.0.2h\crypto\pem\pem_all.c
; Line 242
	push	0
	push	0
	push	0
	push	0
	push	0
	push	DWORD PTR _x$[esp+16]
	push	DWORD PTR _fp$[esp+20]
	push	OFFSET ??_C@_0L@PFAODDHO@PUBLIC?5KEY?$AA@
	push	OFFSET _i2d_RSA_PUBKEY
	call	_PEM_ASN1_write
	add	esp, 36					; 00000024H
; Line 244
	ret	0
_PEM_write_RSA_PUBKEY ENDP
_TEXT	ENDS
; Function compile flags: /Ogtpy
;	COMDAT _PEM_write_bio_RSA_PUBKEY
_TEXT	SEGMENT
_bp$ = 8						; size = 4
_x$ = 12						; size = 4
_PEM_write_bio_RSA_PUBKEY PROC				; COMDAT
; File c:\workpace\openssl\openssl-1.0.2h\crypto\pem\pem_all.c
; Line 242
	push	0
	push	0
	push	0
	push	0
	push	0
	push	DWORD PTR _x$[esp+16]
	push	DWORD PTR _bp$[esp+20]
	push	OFFSET ??_C@_0L@PFAODDHO@PUBLIC?5KEY?$AA@
	push	OFFSET _i2d_RSA_PUBKEY
	call	_PEM_ASN1_write_bio
	add	esp, 36					; 00000024H
; Line 244
	ret	0
_PEM_write_bio_RSA_PUBKEY ENDP
_TEXT	ENDS
; Function compile flags: /Ogtpy
;	COMDAT _PEM_read_RSA_PUBKEY
_TEXT	SEGMENT
_fp$ = 8						; size = 4
_x$ = 12						; size = 4
_cb$ = 16						; size = 4
_u$ = 20						; size = 4
_PEM_read_RSA_PUBKEY PROC				; COMDAT
; File c:\workpace\openssl\openssl-1.0.2h\crypto\pem\pem_all.c
; Line 242
	push	DWORD PTR _u$[esp-4]
	push	DWORD PTR _cb$[esp]
	push	DWORD PTR _x$[esp+4]
	push	DWORD PTR _fp$[esp+8]
	push	OFFSET ??_C@_0L@PFAODDHO@PUBLIC?5KEY?$AA@
	push	OFFSET _d2i_RSA_PUBKEY
	call	_PEM_ASN1_read
	add	esp, 24					; 00000018H
; Line 244
	ret	0
_PEM_read_RSA_PUBKEY ENDP
_TEXT	ENDS
; Function compile flags: /Ogtpy
;	COMDAT _PEM_read_bio_RSA_PUBKEY
_TEXT	SEGMENT
_bp$ = 8						; size = 4
_x$ = 12						; size = 4
_cb$ = 16						; size = 4
_u$ = 20						; size = 4
_PEM_read_bio_RSA_PUBKEY PROC				; COMDAT
; File c:\workpace\openssl\openssl-1.0.2h\crypto\pem\pem_all.c
; Line 242
	push	DWORD PTR _u$[esp-4]
	push	DWORD PTR _cb$[esp]
	push	DWORD PTR _x$[esp+4]
	push	DWORD PTR _bp$[esp+8]
	push	OFFSET ??_C@_0L@PFAODDHO@PUBLIC?5KEY?$AA@
	push	OFFSET _d2i_RSA_PUBKEY
	call	_PEM_ASN1_read_bio
	add	esp, 24					; 00000018H
; Line 244
	ret	0
_PEM_read_bio_RSA_PUBKEY ENDP
_TEXT	ENDS
; Function compile flags: /Ogtpy
;	COMDAT _PEM_write_RSAPublicKey
_TEXT	SEGMENT
_fp$ = 8						; size = 4
_x$ = 12						; size = 4
_PEM_write_RSAPublicKey PROC				; COMDAT
; File c:\workpace\openssl\openssl-1.0.2h\crypto\pem\pem_all.c
; Line 241
	push	0
	push	0
	push	0
	push	0
	push	0
	push	DWORD PTR _x$[esp+16]
	push	DWORD PTR _fp$[esp+20]
	push	OFFSET ??_C@_0P@EMAFKJEG@RSA?5PUBLIC?5KEY?$AA@
	push	OFFSET _i2d_RSAPublicKey
	call	_PEM_ASN1_write
	add	esp, 36					; 00000024H
; Line 242
	ret	0
_PEM_write_RSAPublicKey ENDP
_TEXT	ENDS
; Function compile flags: /Ogtpy
;	COMDAT _PEM_write_bio_RSAPublicKey
_TEXT	SEGMENT
_bp$ = 8						; size = 4
_x$ = 12						; size = 4
_PEM_write_bio_RSAPublicKey PROC			; COMDAT
; File c:\workpace\openssl\openssl-1.0.2h\crypto\pem\pem_all.c
; Line 241
	push	0
	push	0
	push	0
	push	0
	push	0
	push	DWORD PTR _x$[esp+16]
	push	DWORD PTR _bp$[esp+20]
	push	OFFSET ??_C@_0P@EMAFKJEG@RSA?5PUBLIC?5KEY?$AA@
	push	OFFSET _i2d_RSAPublicKey
	call	_PEM_ASN1_write_bio
	add	esp, 36					; 00000024H
; Line 242
	ret	0
_PEM_write_bio_RSAPublicKey ENDP
_TEXT	ENDS
; Function compile flags: /Ogtpy
;	COMDAT _PEM_read_RSAPublicKey
_TEXT	SEGMENT
_fp$ = 8						; size = 4
_x$ = 12						; size = 4
_cb$ = 16						; size = 4
_u$ = 20						; size = 4
_PEM_read_RSAPublicKey PROC				; COMDAT
; File c:\workpace\openssl\openssl-1.0.2h\crypto\pem\pem_all.c
; Line 241
	push	DWORD PTR _u$[esp-4]
	push	DWORD PTR _cb$[esp]
	push	DWORD PTR _x$[esp+4]
	push	DWORD PTR _fp$[esp+8]
	push	OFFSET ??_C@_0P@EMAFKJEG@RSA?5PUBLIC?5KEY?$AA@
	push	OFFSET _d2i_RSAPublicKey
	call	_PEM_ASN1_read
	add	esp, 24					; 00000018H
; Line 242
	ret	0
_PEM_read_RSAPublicKey ENDP
_TEXT	ENDS
; Function compile flags: /Ogtpy
;	COMDAT _PEM_read_bio_RSAPublicKey
_TEXT	SEGMENT
_bp$ = 8						; size = 4
_x$ = 12						; size = 4
_cb$ = 16						; size = 4
_u$ = 20						; size = 4
_PEM_read_bio_RSAPublicKey PROC				; COMDAT
; File c:\workpace\openssl\openssl-1.0.2h\crypto\pem\pem_all.c
; Line 241
	push	DWORD PTR _u$[esp-4]
	push	DWORD PTR _cb$[esp]
	push	DWORD PTR _x$[esp+4]
	push	DWORD PTR _bp$[esp+8]
	push	OFFSET ??_C@_0P@EMAFKJEG@RSA?5PUBLIC?5KEY?$AA@
	push	OFFSET _d2i_RSAPublicKey
	call	_PEM_ASN1_read_bio
	add	esp, 24					; 00000018H
; Line 242
	ret	0
_PEM_read_bio_RSAPublicKey ENDP
_TEXT	ENDS
; Function compile flags: /Ogtpy
;	COMDAT _PEM_write_RSAPrivateKey
_TEXT	SEGMENT
_fp$ = 8						; size = 4
_x$ = 12						; size = 4
_enc$ = 16						; size = 4
_kstr$ = 20						; size = 4
_klen$ = 24						; size = 4
_cb$ = 28						; size = 4
_u$ = 32						; size = 4
_PEM_write_RSAPrivateKey PROC				; COMDAT
; File c:\workpace\openssl\openssl-1.0.2h\crypto\pem\pem_all.c
; Line 238
	push	DWORD PTR _u$[esp-4]
	push	DWORD PTR _cb$[esp]
	push	DWORD PTR _klen$[esp+4]
	push	DWORD PTR _kstr$[esp+8]
	push	DWORD PTR _enc$[esp+12]
	push	DWORD PTR _x$[esp+16]
	push	DWORD PTR _fp$[esp+20]
	push	OFFSET ??_C@_0BA@COBLGNON@RSA?5PRIVATE?5KEY?$AA@
	push	OFFSET _i2d_RSAPrivateKey
	call	_PEM_ASN1_write
	add	esp, 36					; 00000024H
; Line 239
	ret	0
_PEM_write_RSAPrivateKey ENDP
_TEXT	ENDS
; Function compile flags: /Ogtpy
;	COMDAT _PEM_write_bio_RSAPrivateKey
_TEXT	SEGMENT
_bp$ = 8						; size = 4
_x$ = 12						; size = 4
_enc$ = 16						; size = 4
_kstr$ = 20						; size = 4
_klen$ = 24						; size = 4
_cb$ = 28						; size = 4
_u$ = 32						; size = 4
_PEM_write_bio_RSAPrivateKey PROC			; COMDAT
; File c:\workpace\openssl\openssl-1.0.2h\crypto\pem\pem_all.c
; Line 238
	push	DWORD PTR _u$[esp-4]
	push	DWORD PTR _cb$[esp]
	push	DWORD PTR _klen$[esp+4]
	push	DWORD PTR _kstr$[esp+8]
	push	DWORD PTR _enc$[esp+12]
	push	DWORD PTR _x$[esp+16]
	push	DWORD PTR _bp$[esp+20]
	push	OFFSET ??_C@_0BA@COBLGNON@RSA?5PRIVATE?5KEY?$AA@
	push	OFFSET _i2d_RSAPrivateKey
	call	_PEM_ASN1_write_bio
	add	esp, 36					; 00000024H
; Line 239
	ret	0
_PEM_write_bio_RSAPrivateKey ENDP
_TEXT	ENDS
; Function compile flags: /Ogtpy
;	COMDAT _PEM_read_RSAPrivateKey
_TEXT	SEGMENT
_fp$ = 8						; size = 4
_rsa$ = 12						; size = 4
_cb$ = 16						; size = 4
_u$ = 20						; size = 4
_PEM_read_RSAPrivateKey PROC				; COMDAT
; File c:\workpace\openssl\openssl-1.0.2h\crypto\pem\pem_all.c
; Line 182
	push	esi
; Line 184
	push	DWORD PTR _u$[esp]
	push	DWORD PTR _cb$[esp+4]
	push	0
	push	DWORD PTR _fp$[esp+12]
	call	_PEM_read_PrivateKey
	mov	esi, eax
	add	esp, 16					; 00000010H
; Line 158
	test	esi, esi
	jne	SHORT $LN4@PEM_read_R
	pop	esi
; Line 186
	ret	0
$LN4@PEM_read_R:
	push	edi
; Line 160
	push	esi
	call	_EVP_PKEY_get1_RSA
; Line 161
	push	esi
	mov	edi, eax
	call	_EVP_PKEY_free
	add	esp, 8
; Line 162
	test	edi, edi
	jne	SHORT $LN5@PEM_read_R
; Line 185
	pop	edi
	xor	eax, eax
	pop	esi
; Line 186
	ret	0
$LN5@PEM_read_R:
; Line 164
	mov	esi, DWORD PTR _rsa$[esp+4]
	test	esi, esi
	je	SHORT $LN6@PEM_read_R
; Line 165
	push	DWORD PTR [esi]
	call	_RSA_free
	add	esp, 4
; Line 166
	mov	DWORD PTR [esi], edi
$LN6@PEM_read_R:
; Line 185
	mov	eax, edi
	pop	edi
	pop	esi
; Line 186
	ret	0
_PEM_read_RSAPrivateKey ENDP
_TEXT	ENDS
; Function compile flags: /Ogtpy
;	COMDAT _PEM_read_bio_RSAPrivateKey
_TEXT	SEGMENT
_bp$ = 8						; size = 4
_rsa$ = 12						; size = 4
_cb$ = 16						; size = 4
_u$ = 20						; size = 4
_PEM_read_bio_RSAPrivateKey PROC			; COMDAT
; File c:\workpace\openssl\openssl-1.0.2h\crypto\pem\pem_all.c
; Line 173
	push	esi
; Line 175
	push	DWORD PTR _u$[esp]
	push	DWORD PTR _cb$[esp+4]
	push	0
	push	DWORD PTR _bp$[esp+12]
	call	_PEM_read_bio_PrivateKey
	mov	esi, eax
	add	esp, 16					; 00000010H
; Line 158
	test	esi, esi
	jne	SHORT $LN4@PEM_read_b
	pop	esi
; Line 177
	ret	0
$LN4@PEM_read_b:
	push	edi
; Line 160
	push	esi
	call	_EVP_PKEY_get1_RSA
; Line 161
	push	esi
	mov	edi, eax
	call	_EVP_PKEY_free
	add	esp, 8
; Line 162
	test	edi, edi
	jne	SHORT $LN5@PEM_read_b
; Line 176
	pop	edi
	xor	eax, eax
	pop	esi
; Line 177
	ret	0
$LN5@PEM_read_b:
; Line 164
	mov	esi, DWORD PTR _rsa$[esp+4]
	test	esi, esi
	je	SHORT $LN6@PEM_read_b
; Line 165
	push	DWORD PTR [esi]
	call	_RSA_free
	add	esp, 4
; Line 166
	mov	DWORD PTR [esi], edi
$LN6@PEM_read_b:
; Line 176
	mov	eax, edi
	pop	edi
	pop	esi
; Line 177
	ret	0
_PEM_read_bio_RSAPrivateKey ENDP
_TEXT	ENDS
; Function compile flags: /Ogtpy
;	COMDAT _PEM_write_NETSCAPE_CERT_SEQUENCE
_TEXT	SEGMENT
_fp$ = 8						; size = 4
_x$ = 12						; size = 4
_PEM_write_NETSCAPE_CERT_SEQUENCE PROC			; COMDAT
; File c:\workpace\openssl\openssl-1.0.2h\crypto\pem\pem_all.c
; Line 146
	push	0
	push	0
	push	0
	push	0
	push	0
	push	DWORD PTR _x$[esp+16]
	push	DWORD PTR _fp$[esp+20]
	push	OFFSET ??_C@_0M@BFIJENPO@CERTIFICATE?$AA@
	push	OFFSET _i2d_NETSCAPE_CERT_SEQUENCE
	call	_PEM_ASN1_write
	add	esp, 36					; 00000024H
; Line 147
	ret	0
_PEM_write_NETSCAPE_CERT_SEQUENCE ENDP
_TEXT	ENDS
; Function compile flags: /Ogtpy
;	COMDAT _PEM_write_bio_NETSCAPE_CERT_SEQUENCE
_TEXT	SEGMENT
_bp$ = 8						; size = 4
_x$ = 12						; size = 4
_PEM_write_bio_NETSCAPE_CERT_SEQUENCE PROC		; COMDAT
; File c:\workpace\openssl\openssl-1.0.2h\crypto\pem\pem_all.c
; Line 146
	push	0
	push	0
	push	0
	push	0
	push	0
	push	DWORD PTR _x$[esp+16]
	push	DWORD PTR _bp$[esp+20]
	push	OFFSET ??_C@_0M@BFIJENPO@CERTIFICATE?$AA@
	push	OFFSET _i2d_NETSCAPE_CERT_SEQUENCE
	call	_PEM_ASN1_write_bio
	add	esp, 36					; 00000024H
; Line 147
	ret	0
_PEM_write_bio_NETSCAPE_CERT_SEQUENCE ENDP
_TEXT	ENDS
; Function compile flags: /Ogtpy
;	COMDAT _PEM_read_NETSCAPE_CERT_SEQUENCE
_TEXT	SEGMENT
_fp$ = 8						; size = 4
_x$ = 12						; size = 4
_cb$ = 16						; size = 4
_u$ = 20						; size = 4
_PEM_read_NETSCAPE_CERT_SEQUENCE PROC			; COMDAT
; File c:\workpace\openssl\openssl-1.0.2h\crypto\pem\pem_all.c
; Line 146
	push	DWORD PTR _u$[esp-4]
	push	DWORD PTR _cb$[esp]
	push	DWORD PTR _x$[esp+4]
	push	DWORD PTR _fp$[esp+8]
	push	OFFSET ??_C@_0M@BFIJENPO@CERTIFICATE?$AA@
	push	OFFSET _d2i_NETSCAPE_CERT_SEQUENCE
	call	_PEM_ASN1_read
	add	esp, 24					; 00000018H
; Line 147
	ret	0
_PEM_read_NETSCAPE_CERT_SEQUENCE ENDP
_TEXT	ENDS
; Function compile flags: /Ogtpy
;	COMDAT _PEM_read_bio_NETSCAPE_CERT_SEQUENCE
_TEXT	SEGMENT
_bp$ = 8						; size = 4
_x$ = 12						; size = 4
_cb$ = 16						; size = 4
_u$ = 20						; size = 4
_PEM_read_bio_NETSCAPE_CERT_SEQUENCE PROC		; COMDAT
; File c:\workpace\openssl\openssl-1.0.2h\crypto\pem\pem_all.c
; Line 146
	push	DWORD PTR _u$[esp-4]
	push	DWORD PTR _cb$[esp]
	push	DWORD PTR _x$[esp+4]
	push	DWORD PTR _bp$[esp+8]
	push	OFFSET ??_C@_0M@BFIJENPO@CERTIFICATE?$AA@
	push	OFFSET _d2i_NETSCAPE_CERT_SEQUENCE
	call	_PEM_ASN1_read_bio
	add	esp, 24					; 00000018H
; Line 147
	ret	0
_PEM_read_bio_NETSCAPE_CERT_SEQUENCE ENDP
_TEXT	ENDS
; Function compile flags: /Ogtpy
;	COMDAT _PEM_write_PKCS7
_TEXT	SEGMENT
_fp$ = 8						; size = 4
_x$ = 12						; size = 4
_PEM_write_PKCS7 PROC					; COMDAT
; File c:\workpace\openssl\openssl-1.0.2h\crypto\pem\pem_all.c
; Line 144
	push	0
	push	0
	push	0
	push	0
	push	0
	push	DWORD PTR _x$[esp+16]
	push	DWORD PTR _fp$[esp+20]
	push	OFFSET ??_C@_05BKMMPIPN@PKCS7?$AA@
	push	OFFSET _i2d_PKCS7
	call	_PEM_ASN1_write
	add	esp, 36					; 00000024H
	ret	0
_PEM_write_PKCS7 ENDP
_TEXT	ENDS
; Function compile flags: /Ogtpy
;	COMDAT _PEM_write_bio_PKCS7
_TEXT	SEGMENT
_bp$ = 8						; size = 4
_x$ = 12						; size = 4
_PEM_write_bio_PKCS7 PROC				; COMDAT
; File c:\workpace\openssl\openssl-1.0.2h\crypto\pem\pem_all.c
; Line 144
	push	0
	push	0
	push	0
	push	0
	push	0
	push	DWORD PTR _x$[esp+16]
	push	DWORD PTR _bp$[esp+20]
	push	OFFSET ??_C@_05BKMMPIPN@PKCS7?$AA@
	push	OFFSET _i2d_PKCS7
	call	_PEM_ASN1_write_bio
	add	esp, 36					; 00000024H
	ret	0
_PEM_write_bio_PKCS7 ENDP
_TEXT	ENDS
; Function compile flags: /Ogtpy
;	COMDAT _PEM_read_PKCS7
_TEXT	SEGMENT
_fp$ = 8						; size = 4
_x$ = 12						; size = 4
_cb$ = 16						; size = 4
_u$ = 20						; size = 4
_PEM_read_PKCS7 PROC					; COMDAT
; File c:\workpace\openssl\openssl-1.0.2h\crypto\pem\pem_all.c
; Line 144
	push	DWORD PTR _u$[esp-4]
	push	DWORD PTR _cb$[esp]
	push	DWORD PTR _x$[esp+4]
	push	DWORD PTR _fp$[esp+8]
	push	OFFSET ??_C@_05BKMMPIPN@PKCS7?$AA@
	push	OFFSET _d2i_PKCS7
	call	_PEM_ASN1_read
	add	esp, 24					; 00000018H
	ret	0
_PEM_read_PKCS7 ENDP
_TEXT	ENDS
; Function compile flags: /Ogtpy
;	COMDAT _PEM_read_bio_PKCS7
_TEXT	SEGMENT
_bp$ = 8						; size = 4
_x$ = 12						; size = 4
_cb$ = 16						; size = 4
_u$ = 20						; size = 4
_PEM_read_bio_PKCS7 PROC				; COMDAT
; File c:\workpace\openssl\openssl-1.0.2h\crypto\pem\pem_all.c
; Line 144
	push	DWORD PTR _u$[esp-4]
	push	DWORD PTR _cb$[esp]
	push	DWORD PTR _x$[esp+4]
	push	DWORD PTR _bp$[esp+8]
	push	OFFSET ??_C@_05BKMMPIPN@PKCS7?$AA@
	push	OFFSET _d2i_PKCS7
	call	_PEM_ASN1_read_bio
	add	esp, 24					; 00000018H
	ret	0
_PEM_read_bio_PKCS7 ENDP
_TEXT	ENDS
; Function compile flags: /Ogtpy
;	COMDAT _PEM_write_X509_CRL
_TEXT	SEGMENT
_fp$ = 8						; size = 4
_x$ = 12						; size = 4
_PEM_write_X509_CRL PROC				; COMDAT
; File c:\workpace\openssl\openssl-1.0.2h\crypto\pem\pem_all.c
; Line 143
	push	0
	push	0
	push	0
	push	0
	push	0
	push	DWORD PTR _x$[esp+16]
	push	DWORD PTR _fp$[esp+20]
	push	OFFSET ??_C@_08ONNDIEBB@X509?5CRL?$AA@
	push	OFFSET _i2d_X509_CRL
	call	_PEM_ASN1_write
	add	esp, 36					; 00000024H
	ret	0
_PEM_write_X509_CRL ENDP
_TEXT	ENDS
; Function compile flags: /Ogtpy
;	COMDAT _PEM_write_bio_X509_CRL
_TEXT	SEGMENT
_bp$ = 8						; size = 4
_x$ = 12						; size = 4
_PEM_write_bio_X509_CRL PROC				; COMDAT
; File c:\workpace\openssl\openssl-1.0.2h\crypto\pem\pem_all.c
; Line 143
	push	0
	push	0
	push	0
	push	0
	push	0
	push	DWORD PTR _x$[esp+16]
	push	DWORD PTR _bp$[esp+20]
	push	OFFSET ??_C@_08ONNDIEBB@X509?5CRL?$AA@
	push	OFFSET _i2d_X509_CRL
	call	_PEM_ASN1_write_bio
	add	esp, 36					; 00000024H
	ret	0
_PEM_write_bio_X509_CRL ENDP
_TEXT	ENDS
; Function compile flags: /Ogtpy
;	COMDAT _PEM_read_X509_CRL
_TEXT	SEGMENT
_fp$ = 8						; size = 4
_x$ = 12						; size = 4
_cb$ = 16						; size = 4
_u$ = 20						; size = 4
_PEM_read_X509_CRL PROC					; COMDAT
; File c:\workpace\openssl\openssl-1.0.2h\crypto\pem\pem_all.c
; Line 143
	push	DWORD PTR _u$[esp-4]
	push	DWORD PTR _cb$[esp]
	push	DWORD PTR _x$[esp+4]
	push	DWORD PTR _fp$[esp+8]
	push	OFFSET ??_C@_08ONNDIEBB@X509?5CRL?$AA@
	push	OFFSET _d2i_X509_CRL
	call	_PEM_ASN1_read
	add	esp, 24					; 00000018H
	ret	0
_PEM_read_X509_CRL ENDP
_TEXT	ENDS
; Function compile flags: /Ogtpy
;	COMDAT _PEM_read_bio_X509_CRL
_TEXT	SEGMENT
_bp$ = 8						; size = 4
_x$ = 12						; size = 4
_cb$ = 16						; size = 4
_u$ = 20						; size = 4
_PEM_read_bio_X509_CRL PROC				; COMDAT
; File c:\workpace\openssl\openssl-1.0.2h\crypto\pem\pem_all.c
; Line 143
	push	DWORD PTR _u$[esp-4]
	push	DWORD PTR _cb$[esp]
	push	DWORD PTR _x$[esp+4]
	push	DWORD PTR _bp$[esp+8]
	push	OFFSET ??_C@_08ONNDIEBB@X509?5CRL?$AA@
	push	OFFSET _d2i_X509_CRL
	call	_PEM_ASN1_read_bio
	add	esp, 24					; 00000018H
	ret	0
_PEM_read_bio_X509_CRL ENDP
_TEXT	ENDS
; Function compile flags: /Ogtpy
;	COMDAT _PEM_write_X509_REQ_NEW
_TEXT	SEGMENT
_fp$ = 8						; size = 4
_x$ = 12						; size = 4
_PEM_write_X509_REQ_NEW PROC				; COMDAT
; File c:\workpace\openssl\openssl-1.0.2h\crypto\pem\pem_all.c
; Line 142
	push	0
	push	0
	push	0
	push	0
	push	0
	push	DWORD PTR _x$[esp+16]
	push	DWORD PTR _fp$[esp+20]
	push	OFFSET ??_C@_0BI@BBDALNCF@NEW?5CERTIFICATE?5REQUEST?$AA@
	push	OFFSET _i2d_X509_REQ
	call	_PEM_ASN1_write
	add	esp, 36					; 00000024H
	ret	0
_PEM_write_X509_REQ_NEW ENDP
_TEXT	ENDS
; Function compile flags: /Ogtpy
;	COMDAT _PEM_write_bio_X509_REQ_NEW
_TEXT	SEGMENT
_bp$ = 8						; size = 4
_x$ = 12						; size = 4
_PEM_write_bio_X509_REQ_NEW PROC			; COMDAT
; File c:\workpace\openssl\openssl-1.0.2h\crypto\pem\pem_all.c
; Line 142
	push	0
	push	0
	push	0
	push	0
	push	0
	push	DWORD PTR _x$[esp+16]
	push	DWORD PTR _bp$[esp+20]
	push	OFFSET ??_C@_0BI@BBDALNCF@NEW?5CERTIFICATE?5REQUEST?$AA@
	push	OFFSET _i2d_X509_REQ
	call	_PEM_ASN1_write_bio
	add	esp, 36					; 00000024H
	ret	0
_PEM_write_bio_X509_REQ_NEW ENDP
_TEXT	ENDS
; Function compile flags: /Ogtpy
;	COMDAT _PEM_write_X509_REQ
_TEXT	SEGMENT
_fp$ = 8						; size = 4
_x$ = 12						; size = 4
_PEM_write_X509_REQ PROC				; COMDAT
; File c:\workpace\openssl\openssl-1.0.2h\crypto\pem\pem_all.c
; Line 140
	push	0
	push	0
	push	0
	push	0
	push	0
	push	DWORD PTR _x$[esp+16]
	push	DWORD PTR _fp$[esp+20]
	push	OFFSET ??_C@_0BE@PGIFFILK@CERTIFICATE?5REQUEST?$AA@
	push	OFFSET _i2d_X509_REQ
	call	_PEM_ASN1_write
	add	esp, 36					; 00000024H
	ret	0
_PEM_write_X509_REQ ENDP
_TEXT	ENDS
; Function compile flags: /Ogtpy
;	COMDAT _PEM_write_bio_X509_REQ
_TEXT	SEGMENT
_bp$ = 8						; size = 4
_x$ = 12						; size = 4
_PEM_write_bio_X509_REQ PROC				; COMDAT
; File c:\workpace\openssl\openssl-1.0.2h\crypto\pem\pem_all.c
; Line 140
	push	0
	push	0
	push	0
	push	0
	push	0
	push	DWORD PTR _x$[esp+16]
	push	DWORD PTR _bp$[esp+20]
	push	OFFSET ??_C@_0BE@PGIFFILK@CERTIFICATE?5REQUEST?$AA@
	push	OFFSET _i2d_X509_REQ
	call	_PEM_ASN1_write_bio
	add	esp, 36					; 00000024H
	ret	0
_PEM_write_bio_X509_REQ ENDP
_TEXT	ENDS
; Function compile flags: /Ogtpy
;	COMDAT _PEM_read_X509_REQ
_TEXT	SEGMENT
_fp$ = 8						; size = 4
_x$ = 12						; size = 4
_cb$ = 16						; size = 4
_u$ = 20						; size = 4
_PEM_read_X509_REQ PROC					; COMDAT
; File c:\workpace\openssl\openssl-1.0.2h\crypto\pem\pem_all.c
; Line 140
	push	DWORD PTR _u$[esp-4]
	push	DWORD PTR _cb$[esp]
	push	DWORD PTR _x$[esp+4]
	push	DWORD PTR _fp$[esp+8]
	push	OFFSET ??_C@_0BE@PGIFFILK@CERTIFICATE?5REQUEST?$AA@
	push	OFFSET _d2i_X509_REQ
	call	_PEM_ASN1_read
	add	esp, 24					; 00000018H
	ret	0
_PEM_read_X509_REQ ENDP
_TEXT	ENDS
; Function compile flags: /Ogtpy
;	COMDAT _PEM_read_bio_X509_REQ
_TEXT	SEGMENT
_bp$ = 8						; size = 4
_x$ = 12						; size = 4
_cb$ = 16						; size = 4
_u$ = 20						; size = 4
_PEM_read_bio_X509_REQ PROC				; COMDAT
; File c:\workpace\openssl\openssl-1.0.2h\crypto\pem\pem_all.c
; Line 140
	push	DWORD PTR _u$[esp-4]
	push	DWORD PTR _cb$[esp]
	push	DWORD PTR _x$[esp+4]
	push	DWORD PTR _bp$[esp+8]
	push	OFFSET ??_C@_0BE@PGIFFILK@CERTIFICATE?5REQUEST?$AA@
	push	OFFSET _d2i_X509_REQ
	call	_PEM_ASN1_read_bio
	add	esp, 24					; 00000018H
	ret	0
_PEM_read_bio_X509_REQ ENDP
_TEXT	ENDS
END
