; Listing generated by Microsoft (R) Optimizing Compiler Version 19.00.23918.0 

	TITLE	C:\workpace\openssl\openssl-1.0.2h\crypto\pkcs7\pkcs7err.c
	.686P
	.XMM
	include listing.inc
	.model	flat

INCLUDELIB MSVCRT
INCLUDELIB OLDNAMES

PUBLIC	??_C@_0P@CNHJDHJP@B64_READ_PKCS7?$AA@		; `string'
PUBLIC	??_C@_0BA@NHGCDPL@B64_WRITE_PKCS7?$AA@		; `string'
PUBLIC	??_C@_0BH@HCBGADHN@DO_PKCS7_SIGNED_ATTRIB?$AA@	; `string'
PUBLIC	??_C@_0BF@EMAJJAAB@i2d_PKCS7_bio_stream?$AA@	; `string'
PUBLIC	??_C@_0BP@OLGBKKPO@PKCS7_add0_attrib_signing_time?$AA@ ; `string'
PUBLIC	??_C@_0BK@HOMOFJDN@PKCS7_add_attrib_smimecap?$AA@ ; `string'
PUBLIC	??_C@_0BG@DMGOLPOM@PKCS7_add_certificate?$AA@	; `string'
PUBLIC	??_C@_0O@CPFOLHJD@PKCS7_add_crl?$AA@		; `string'
PUBLIC	??_C@_0BJ@NOCKKMGL@PKCS7_add_recipient_info?$AA@ ; `string'
PUBLIC	??_C@_0BE@HCOKFGIN@PKCS7_add_signature?$AA@	; `string'
PUBLIC	??_C@_0BB@CJPBIPAC@PKCS7_add_signer?$AA@	; `string'
PUBLIC	??_C@_0BF@HBBJACAF@PKCS7_BIO_ADD_DIGEST?$AA@	; `string'
PUBLIC	??_C@_0BL@EDLJNLML@PKCS7_COPY_EXISTING_DIGEST?$AA@ ; `string'
PUBLIC	??_C@_0L@ICMECHLK@PKCS7_ctrl?$AA@		; `string'
PUBLIC	??_C@_0BB@NBHDJPJJ@PKCS7_dataDecode?$AA@	; `string'
PUBLIC	??_C@_0BA@ENDFMOKG@PKCS7_dataFinal?$AA@		; `string'
PUBLIC	??_C@_0P@OONGIMOK@PKCS7_dataInit?$AA@		; `string'
PUBLIC	??_C@_0P@FNIPPNIC@PKCS7_DATASIGN?$AA@		; `string'
PUBLIC	??_C@_0BB@LMCKHKKD@PKCS7_dataVerify?$AA@	; `string'
PUBLIC	??_C@_0O@FLKGJCIC@PKCS7_decrypt?$AA@		; `string'
PUBLIC	??_C@_0BE@JNDPEFCA@PKCS7_DECRYPT_RINFO?$AA@	; `string'
PUBLIC	??_C@_0BD@PHHOANMB@PKCS7_ENCODE_RINFO?$AA@	; `string'
PUBLIC	??_C@_0O@JFALMGOG@PKCS7_encrypt?$AA@		; `string'
PUBLIC	??_C@_0M@DINEADOK@PKCS7_final?$AA@		; `string'
PUBLIC	??_C@_0BC@PMCDCHO@PKCS7_FIND_DIGEST?$AA@	; `string'
PUBLIC	??_C@_0BD@ONJMGDLL@PKCS7_get0_signers?$AA@	; `string'
PUBLIC	??_C@_0BF@OGANHOPM@PKCS7_RECIP_INFO_set?$AA@	; `string'
PUBLIC	??_C@_0BB@MBMFDMH@PKCS7_set_cipher?$AA@		; `string'
PUBLIC	??_C@_0BC@KEHPIBPE@PKCS7_set_content?$AA@	; `string'
PUBLIC	??_C@_0BB@KHOAIGEC@PKCS7_set_digest?$AA@	; `string'
PUBLIC	??_C@_0P@EIBMGDIL@PKCS7_set_type?$AA@		; `string'
PUBLIC	??_C@_0L@GIIMDMGD@PKCS7_sign?$AA@		; `string'
PUBLIC	??_C@_0BG@PMADOMPD@PKCS7_signatureVerify?$AA@	; `string'
PUBLIC	??_C@_0BG@EIAOKKPM@PKCS7_SIGNER_INFO_set?$AA@	; `string'
PUBLIC	??_C@_0BH@BLILFECF@PKCS7_SIGNER_INFO_sign?$AA@	; `string'
PUBLIC	??_C@_0BG@ODCDGOGB@PKCS7_sign_add_signer?$AA@	; `string'
PUBLIC	??_C@_0BG@NGGLELOE@PKCS7_simple_smimecap?$AA@	; `string'
PUBLIC	??_C@_0N@MDDFJGNF@PKCS7_verify?$AA@		; `string'
PUBLIC	??_C@_0BB@KDHLDBMO@SMIME_read_PKCS7?$AA@	; `string'
PUBLIC	??_C@_0L@CEDJDPJO@SMIME_text?$AA@		; `string'
PUBLIC	??_C@_0BJ@PLMONNLI@certificate?5verify?5error?$AA@ ; `string'
PUBLIC	??_C@_0CA@BHNCFDBP@cipher?5has?5no?5object?5identifier?$AA@ ; `string'
PUBLIC	??_C@_0BH@HHGJPEG@cipher?5not?5initialized?$AA@	; `string'
PUBLIC	??_C@_0BJ@JDGHLKE@content?5and?5data?5present?$AA@ ; `string'
PUBLIC	??_C@_0L@HANPCOML@ctrl?5error?$AA@		; `string'
PUBLIC	??_C@_0N@HFEMCILK@decode?5error?$AA@		; `string'
PUBLIC	??_C@_0BO@LNIEDLGB@decrypted?5key?5is?5wrong?5length?$AA@ ; `string'
PUBLIC	??_C@_0O@IKMKDME@decrypt?5error?$AA@		; `string'
PUBLIC	??_C@_0P@EAGFKBJN@digest?5failure?$AA@		; `string'
PUBLIC	??_C@_0BI@FLDJBJEB@encryption?5ctrl?5failure?$AA@ ; `string'
PUBLIC	??_C@_0CL@KPOELFBN@encryption?5not?5supported?5for?5thi@ ; `string'
PUBLIC	??_C@_0BH@PJNOPIMM@error?5adding?5recipient?$AA@ ; `string'
PUBLIC	??_C@_0BF@EJOJNMMB@error?5setting?5cipher?$AA@	; `string'
PUBLIC	??_C@_0BC@FHFCCIPJ@invalid?5mime?5type?$AA@	; `string'
PUBLIC	??_C@_0BF@IPGLAOPL@invalid?5null?5pointer?$AA@	; `string'
PUBLIC	??_C@_0BJ@PINLKLCM@invalid?5signed?5data?5type?$AA@ ; `string'
PUBLIC	??_C@_0BF@JPGANBNB@mime?5no?5content?5type?$AA@	; `string'
PUBLIC	??_C@_0BB@CLOKMDJL@mime?5parse?5error?$AA@	; `string'
PUBLIC	??_C@_0BF@NGKJEMBA@mime?5sig?5parse?5error?$AA@	; `string'
PUBLIC	??_C@_0BG@FIKOHGJL@missing?5ceripend?5info?$AA@	; `string'
PUBLIC	??_C@_0L@CMBDMAOL@no?5content?$AA@		; `string'
PUBLIC	??_C@_0BA@FPKKDFNC@no?5content?5type?$AA@	; `string'
PUBLIC	??_C@_0BC@GDBMALNO@no?5default?5digest?$AA@	; `string'
PUBLIC	??_C@_0BO@BPCBFOBN@no?5matching?5digest?5type?5found?$AA@ ; `string'
PUBLIC	??_C@_0BK@BJLDLELE@no?5multipart?5body?5failure?$AA@ ; `string'
PUBLIC	??_C@_0BG@CCLGBNL@no?5multipart?5boundary?$AA@	; `string'
PUBLIC	??_C@_0CB@EOIABHI@no?5recipient?5matches?5certificate@ ; `string'
PUBLIC	??_C@_0BJ@HNAOANNO@no?5recipient?5matches?5key?$AA@ ; `string'
PUBLIC	??_C@_0BG@KJOJDMCP@no?5signatures?5on?5data?$AA@ ; `string'
PUBLIC	??_C@_0L@GEFKNGMC@no?5signers?$AA@		; `string'
PUBLIC	??_C@_0BE@PKDDELLH@no?5sig?5content?5type?$AA@	; `string'
PUBLIC	??_C@_0CF@KFDJAIAE@operation?5not?5supported?5on?5this?5@ ; `string'
PUBLIC	??_C@_0BK@HFMOMPGJ@pkcs7?5add?5signature?5error?$AA@ ; `string'
PUBLIC	??_C@_0BH@HILILNFK@pkcs7?5add?5signer?5error?$AA@ ; `string'
PUBLIC	??_C@_0BA@MGKDBLGL@pkcs7?5datafinal?$AA@	; `string'
PUBLIC	??_C@_0BG@DENNOOLH@pkcs7?5datafinal?5error?$AA@	; `string'
PUBLIC	??_C@_0P@MLIPMLPL@pkcs7?5datasign?$AA@		; `string'
PUBLIC	??_C@_0BC@HAIFOMAN@pkcs7?5parse?5error?$AA@	; `string'
PUBLIC	??_C@_0BG@GDEPAMKB@pkcs7?5sig?5parse?5error?$AA@ ; `string'
PUBLIC	??_C@_0CH@PMPAELAG@private?5key?5does?5not?5match?5certi@ ; `string'
PUBLIC	??_C@_0BC@FNMJPDOC@signature?5failure?$AA@	; `string'
PUBLIC	??_C@_0BN@LFDDONEE@signer?5certificate?5not?5found?$AA@ ; `string'
PUBLIC	??_C@_0BF@NKHMFGHO@signing?5ctrl?5failure?$AA@	; `string'
PUBLIC	??_C@_0CI@MODCEPNI@signing?5not?5supported?5for?5this?5k@ ; `string'
PUBLIC	??_C@_0BG@HLPLMCAK@sig?5invalid?5mime?5type?$AA@ ; `string'
PUBLIC	??_C@_0BB@KEMFLAGG@smime?5text?5error?$AA@	; `string'
PUBLIC	??_C@_0BL@MPEBNJMM@unable?5to?5find?5certificate?$AA@ ; `string'
PUBLIC	??_C@_0BH@GGBACGPO@unable?5to?5find?5mem?5bio?$AA@ ; `string'
PUBLIC	??_C@_0BO@BPGCPEON@unable?5to?5find?5message?5digest?$AA@ ; `string'
PUBLIC	??_C@_0BE@FDMIMEPA@unknown?5digest?5type?$AA@	; `string'
PUBLIC	??_C@_0BC@BDMDPLFD@unknown?5operation?$AA@	; `string'
PUBLIC	??_C@_0BI@BDKIDJNG@unsupported?5cipher?5type?$AA@ ; `string'
PUBLIC	??_C@_0BJ@KNOCCCPA@unsupported?5content?5type?$AA@ ; `string'
PUBLIC	??_C@_0BD@ONLLMKAC@wrong?5content?5type?$AA@	; `string'
PUBLIC	??_C@_0BB@LMNDDHAO@wrong?5pkcs7?5type?$AA@	; `string'
;	COMDAT ??_C@_0BB@LMNDDHAO@wrong?5pkcs7?5type?$AA@
CONST	SEGMENT
??_C@_0BB@LMNDDHAO@wrong?5pkcs7?5type?$AA@ DB 'wrong pkcs7 type', 00H ; `string'
CONST	ENDS
;	COMDAT ??_C@_0BD@ONLLMKAC@wrong?5content?5type?$AA@
CONST	SEGMENT
??_C@_0BD@ONLLMKAC@wrong?5content?5type?$AA@ DB 'wrong content type', 00H ; `string'
CONST	ENDS
;	COMDAT ??_C@_0BJ@KNOCCCPA@unsupported?5content?5type?$AA@
CONST	SEGMENT
??_C@_0BJ@KNOCCCPA@unsupported?5content?5type?$AA@ DB 'unsupported conten'
	DB	't type', 00H				; `string'
CONST	ENDS
;	COMDAT ??_C@_0BI@BDKIDJNG@unsupported?5cipher?5type?$AA@
CONST	SEGMENT
??_C@_0BI@BDKIDJNG@unsupported?5cipher?5type?$AA@ DB 'unsupported cipher '
	DB	'type', 00H					; `string'
CONST	ENDS
;	COMDAT ??_C@_0BC@BDMDPLFD@unknown?5operation?$AA@
CONST	SEGMENT
??_C@_0BC@BDMDPLFD@unknown?5operation?$AA@ DB 'unknown operation', 00H ; `string'
CONST	ENDS
;	COMDAT ??_C@_0BE@FDMIMEPA@unknown?5digest?5type?$AA@
CONST	SEGMENT
??_C@_0BE@FDMIMEPA@unknown?5digest?5type?$AA@ DB 'unknown digest type', 00H ; `string'
CONST	ENDS
;	COMDAT ??_C@_0BO@BPGCPEON@unable?5to?5find?5message?5digest?$AA@
CONST	SEGMENT
??_C@_0BO@BPGCPEON@unable?5to?5find?5message?5digest?$AA@ DB 'unable to f'
	DB	'ind message digest', 00H			; `string'
CONST	ENDS
;	COMDAT ??_C@_0BH@GGBACGPO@unable?5to?5find?5mem?5bio?$AA@
CONST	SEGMENT
??_C@_0BH@GGBACGPO@unable?5to?5find?5mem?5bio?$AA@ DB 'unable to find mem'
	DB	' bio', 00H					; `string'
CONST	ENDS
;	COMDAT ??_C@_0BL@MPEBNJMM@unable?5to?5find?5certificate?$AA@
CONST	SEGMENT
??_C@_0BL@MPEBNJMM@unable?5to?5find?5certificate?$AA@ DB 'unable to find '
	DB	'certificate', 00H				; `string'
CONST	ENDS
;	COMDAT ??_C@_0BB@KEMFLAGG@smime?5text?5error?$AA@
CONST	SEGMENT
??_C@_0BB@KEMFLAGG@smime?5text?5error?$AA@ DB 'smime text error', 00H ; `string'
CONST	ENDS
;	COMDAT ??_C@_0BG@HLPLMCAK@sig?5invalid?5mime?5type?$AA@
CONST	SEGMENT
??_C@_0BG@HLPLMCAK@sig?5invalid?5mime?5type?$AA@ DB 'sig invalid mime typ'
	DB	'e', 00H					; `string'
CONST	ENDS
;	COMDAT ??_C@_0CI@MODCEPNI@signing?5not?5supported?5for?5this?5k@
CONST	SEGMENT
??_C@_0CI@MODCEPNI@signing?5not?5supported?5for?5this?5k@ DB 'signing not'
	DB	' supported for this key type', 00H		; `string'
CONST	ENDS
;	COMDAT ??_C@_0BF@NKHMFGHO@signing?5ctrl?5failure?$AA@
CONST	SEGMENT
??_C@_0BF@NKHMFGHO@signing?5ctrl?5failure?$AA@ DB 'signing ctrl failure', 00H ; `string'
CONST	ENDS
;	COMDAT ??_C@_0BN@LFDDONEE@signer?5certificate?5not?5found?$AA@
CONST	SEGMENT
??_C@_0BN@LFDDONEE@signer?5certificate?5not?5found?$AA@ DB 'signer certif'
	DB	'icate not found', 00H			; `string'
CONST	ENDS
;	COMDAT ??_C@_0BC@FNMJPDOC@signature?5failure?$AA@
CONST	SEGMENT
??_C@_0BC@FNMJPDOC@signature?5failure?$AA@ DB 'signature failure', 00H ; `string'
CONST	ENDS
;	COMDAT ??_C@_0CH@PMPAELAG@private?5key?5does?5not?5match?5certi@
CONST	SEGMENT
??_C@_0CH@PMPAELAG@private?5key?5does?5not?5match?5certi@ DB 'private key'
	DB	' does not match certificate', 00H		; `string'
CONST	ENDS
;	COMDAT ??_C@_0BG@GDEPAMKB@pkcs7?5sig?5parse?5error?$AA@
CONST	SEGMENT
??_C@_0BG@GDEPAMKB@pkcs7?5sig?5parse?5error?$AA@ DB 'pkcs7 sig parse erro'
	DB	'r', 00H					; `string'
CONST	ENDS
;	COMDAT ??_C@_0BC@HAIFOMAN@pkcs7?5parse?5error?$AA@
CONST	SEGMENT
??_C@_0BC@HAIFOMAN@pkcs7?5parse?5error?$AA@ DB 'pkcs7 parse error', 00H ; `string'
CONST	ENDS
;	COMDAT ??_C@_0P@MLIPMLPL@pkcs7?5datasign?$AA@
CONST	SEGMENT
??_C@_0P@MLIPMLPL@pkcs7?5datasign?$AA@ DB 'pkcs7 datasign', 00H ; `string'
CONST	ENDS
;	COMDAT ??_C@_0BG@DENNOOLH@pkcs7?5datafinal?5error?$AA@
CONST	SEGMENT
??_C@_0BG@DENNOOLH@pkcs7?5datafinal?5error?$AA@ DB 'pkcs7 datafinal error'
	DB	00H						; `string'
CONST	ENDS
;	COMDAT ??_C@_0BA@MGKDBLGL@pkcs7?5datafinal?$AA@
CONST	SEGMENT
??_C@_0BA@MGKDBLGL@pkcs7?5datafinal?$AA@ DB 'pkcs7 datafinal', 00H ; `string'
CONST	ENDS
;	COMDAT ??_C@_0BH@HILILNFK@pkcs7?5add?5signer?5error?$AA@
CONST	SEGMENT
??_C@_0BH@HILILNFK@pkcs7?5add?5signer?5error?$AA@ DB 'pkcs7 add signer er'
	DB	'ror', 00H					; `string'
CONST	ENDS
;	COMDAT ??_C@_0BK@HFMOMPGJ@pkcs7?5add?5signature?5error?$AA@
CONST	SEGMENT
??_C@_0BK@HFMOMPGJ@pkcs7?5add?5signature?5error?$AA@ DB 'pkcs7 add signat'
	DB	'ure error', 00H				; `string'
CONST	ENDS
;	COMDAT ??_C@_0CF@KFDJAIAE@operation?5not?5supported?5on?5this?5@
CONST	SEGMENT
??_C@_0CF@KFDJAIAE@operation?5not?5supported?5on?5this?5@ DB 'operation n'
	DB	'ot supported on this type', 00H		; `string'
CONST	ENDS
;	COMDAT ??_C@_0BE@PKDDELLH@no?5sig?5content?5type?$AA@
CONST	SEGMENT
??_C@_0BE@PKDDELLH@no?5sig?5content?5type?$AA@ DB 'no sig content type', 00H ; `string'
CONST	ENDS
;	COMDAT ??_C@_0L@GEFKNGMC@no?5signers?$AA@
CONST	SEGMENT
??_C@_0L@GEFKNGMC@no?5signers?$AA@ DB 'no signers', 00H	; `string'
CONST	ENDS
;	COMDAT ??_C@_0BG@KJOJDMCP@no?5signatures?5on?5data?$AA@
CONST	SEGMENT
??_C@_0BG@KJOJDMCP@no?5signatures?5on?5data?$AA@ DB 'no signatures on dat'
	DB	'a', 00H					; `string'
CONST	ENDS
;	COMDAT ??_C@_0BJ@HNAOANNO@no?5recipient?5matches?5key?$AA@
CONST	SEGMENT
??_C@_0BJ@HNAOANNO@no?5recipient?5matches?5key?$AA@ DB 'no recipient matc'
	DB	'hes key', 00H				; `string'
CONST	ENDS
;	COMDAT ??_C@_0CB@EOIABHI@no?5recipient?5matches?5certificate@
CONST	SEGMENT
??_C@_0CB@EOIABHI@no?5recipient?5matches?5certificate@ DB 'no recipient m'
	DB	'atches certificate', 00H			; `string'
CONST	ENDS
;	COMDAT ??_C@_0BG@CCLGBNL@no?5multipart?5boundary?$AA@
CONST	SEGMENT
??_C@_0BG@CCLGBNL@no?5multipart?5boundary?$AA@ DB 'no multipart boundary', 00H ; `string'
CONST	ENDS
;	COMDAT ??_C@_0BK@BJLDLELE@no?5multipart?5body?5failure?$AA@
CONST	SEGMENT
??_C@_0BK@BJLDLELE@no?5multipart?5body?5failure?$AA@ DB 'no multipart bod'
	DB	'y failure', 00H				; `string'
CONST	ENDS
;	COMDAT ??_C@_0BO@BPCBFOBN@no?5matching?5digest?5type?5found?$AA@
CONST	SEGMENT
??_C@_0BO@BPCBFOBN@no?5matching?5digest?5type?5found?$AA@ DB 'no matching'
	DB	' digest type found', 00H			; `string'
CONST	ENDS
;	COMDAT ??_C@_0BC@GDBMALNO@no?5default?5digest?$AA@
CONST	SEGMENT
??_C@_0BC@GDBMALNO@no?5default?5digest?$AA@ DB 'no default digest', 00H ; `string'
CONST	ENDS
;	COMDAT ??_C@_0BA@FPKKDFNC@no?5content?5type?$AA@
CONST	SEGMENT
??_C@_0BA@FPKKDFNC@no?5content?5type?$AA@ DB 'no content type', 00H ; `string'
CONST	ENDS
;	COMDAT ??_C@_0L@CMBDMAOL@no?5content?$AA@
CONST	SEGMENT
??_C@_0L@CMBDMAOL@no?5content?$AA@ DB 'no content', 00H	; `string'
CONST	ENDS
;	COMDAT ??_C@_0BG@FIKOHGJL@missing?5ceripend?5info?$AA@
CONST	SEGMENT
??_C@_0BG@FIKOHGJL@missing?5ceripend?5info?$AA@ DB 'missing ceripend info'
	DB	00H						; `string'
CONST	ENDS
;	COMDAT ??_C@_0BF@NGKJEMBA@mime?5sig?5parse?5error?$AA@
CONST	SEGMENT
??_C@_0BF@NGKJEMBA@mime?5sig?5parse?5error?$AA@ DB 'mime sig parse error', 00H ; `string'
CONST	ENDS
;	COMDAT ??_C@_0BB@CLOKMDJL@mime?5parse?5error?$AA@
CONST	SEGMENT
??_C@_0BB@CLOKMDJL@mime?5parse?5error?$AA@ DB 'mime parse error', 00H ; `string'
CONST	ENDS
;	COMDAT ??_C@_0BF@JPGANBNB@mime?5no?5content?5type?$AA@
CONST	SEGMENT
??_C@_0BF@JPGANBNB@mime?5no?5content?5type?$AA@ DB 'mime no content type', 00H ; `string'
CONST	ENDS
;	COMDAT ??_C@_0BJ@PINLKLCM@invalid?5signed?5data?5type?$AA@
CONST	SEGMENT
??_C@_0BJ@PINLKLCM@invalid?5signed?5data?5type?$AA@ DB 'invalid signed da'
	DB	'ta type', 00H				; `string'
CONST	ENDS
;	COMDAT ??_C@_0BF@IPGLAOPL@invalid?5null?5pointer?$AA@
CONST	SEGMENT
??_C@_0BF@IPGLAOPL@invalid?5null?5pointer?$AA@ DB 'invalid null pointer', 00H ; `string'
CONST	ENDS
;	COMDAT ??_C@_0BC@FHFCCIPJ@invalid?5mime?5type?$AA@
CONST	SEGMENT
??_C@_0BC@FHFCCIPJ@invalid?5mime?5type?$AA@ DB 'invalid mime type', 00H ; `string'
CONST	ENDS
;	COMDAT ??_C@_0BF@EJOJNMMB@error?5setting?5cipher?$AA@
CONST	SEGMENT
??_C@_0BF@EJOJNMMB@error?5setting?5cipher?$AA@ DB 'error setting cipher', 00H ; `string'
CONST	ENDS
;	COMDAT ??_C@_0BH@PJNOPIMM@error?5adding?5recipient?$AA@
CONST	SEGMENT
??_C@_0BH@PJNOPIMM@error?5adding?5recipient?$AA@ DB 'error adding recipie'
	DB	'nt', 00H					; `string'
CONST	ENDS
;	COMDAT ??_C@_0CL@KPOELFBN@encryption?5not?5supported?5for?5thi@
CONST	SEGMENT
??_C@_0CL@KPOELFBN@encryption?5not?5supported?5for?5thi@ DB 'encryption n'
	DB	'ot supported for this key type', 00H	; `string'
CONST	ENDS
;	COMDAT ??_C@_0BI@FLDJBJEB@encryption?5ctrl?5failure?$AA@
CONST	SEGMENT
??_C@_0BI@FLDJBJEB@encryption?5ctrl?5failure?$AA@ DB 'encryption ctrl fai'
	DB	'lure', 00H					; `string'
CONST	ENDS
;	COMDAT ??_C@_0P@EAGFKBJN@digest?5failure?$AA@
CONST	SEGMENT
??_C@_0P@EAGFKBJN@digest?5failure?$AA@ DB 'digest failure', 00H ; `string'
CONST	ENDS
;	COMDAT ??_C@_0O@IKMKDME@decrypt?5error?$AA@
CONST	SEGMENT
??_C@_0O@IKMKDME@decrypt?5error?$AA@ DB 'decrypt error', 00H ; `string'
CONST	ENDS
;	COMDAT ??_C@_0BO@LNIEDLGB@decrypted?5key?5is?5wrong?5length?$AA@
CONST	SEGMENT
??_C@_0BO@LNIEDLGB@decrypted?5key?5is?5wrong?5length?$AA@ DB 'decrypted k'
	DB	'ey is wrong length', 00H			; `string'
CONST	ENDS
;	COMDAT ??_C@_0N@HFEMCILK@decode?5error?$AA@
CONST	SEGMENT
??_C@_0N@HFEMCILK@decode?5error?$AA@ DB 'decode error', 00H ; `string'
CONST	ENDS
;	COMDAT ??_C@_0L@HANPCOML@ctrl?5error?$AA@
CONST	SEGMENT
??_C@_0L@HANPCOML@ctrl?5error?$AA@ DB 'ctrl error', 00H	; `string'
CONST	ENDS
;	COMDAT ??_C@_0BJ@JDGHLKE@content?5and?5data?5present?$AA@
CONST	SEGMENT
??_C@_0BJ@JDGHLKE@content?5and?5data?5present?$AA@ DB 'content and data p'
	DB	'resent', 00H				; `string'
CONST	ENDS
;	COMDAT ??_C@_0BH@HHGJPEG@cipher?5not?5initialized?$AA@
CONST	SEGMENT
??_C@_0BH@HHGJPEG@cipher?5not?5initialized?$AA@ DB 'cipher not initialize'
	DB	'd', 00H					; `string'
CONST	ENDS
;	COMDAT ??_C@_0CA@BHNCFDBP@cipher?5has?5no?5object?5identifier?$AA@
CONST	SEGMENT
??_C@_0CA@BHNCFDBP@cipher?5has?5no?5object?5identifier?$AA@ DB 'cipher ha'
	DB	's no object identifier', 00H		; `string'
CONST	ENDS
;	COMDAT ??_C@_0BJ@PLMONNLI@certificate?5verify?5error?$AA@
CONST	SEGMENT
??_C@_0BJ@PLMONNLI@certificate?5verify?5error?$AA@ DB 'certificate verify'
	DB	' error', 00H				; `string'
CONST	ENDS
;	COMDAT ??_C@_0L@CEDJDPJO@SMIME_text?$AA@
CONST	SEGMENT
??_C@_0L@CEDJDPJO@SMIME_text?$AA@ DB 'SMIME_text', 00H	; `string'
CONST	ENDS
;	COMDAT ??_C@_0BB@KDHLDBMO@SMIME_read_PKCS7?$AA@
CONST	SEGMENT
??_C@_0BB@KDHLDBMO@SMIME_read_PKCS7?$AA@ DB 'SMIME_read_PKCS7', 00H ; `string'
CONST	ENDS
;	COMDAT ??_C@_0N@MDDFJGNF@PKCS7_verify?$AA@
CONST	SEGMENT
??_C@_0N@MDDFJGNF@PKCS7_verify?$AA@ DB 'PKCS7_verify', 00H ; `string'
CONST	ENDS
;	COMDAT ??_C@_0BG@NGGLELOE@PKCS7_simple_smimecap?$AA@
CONST	SEGMENT
??_C@_0BG@NGGLELOE@PKCS7_simple_smimecap?$AA@ DB 'PKCS7_simple_smimecap', 00H ; `string'
CONST	ENDS
;	COMDAT ??_C@_0BG@ODCDGOGB@PKCS7_sign_add_signer?$AA@
CONST	SEGMENT
??_C@_0BG@ODCDGOGB@PKCS7_sign_add_signer?$AA@ DB 'PKCS7_sign_add_signer', 00H ; `string'
CONST	ENDS
;	COMDAT ??_C@_0BH@BLILFECF@PKCS7_SIGNER_INFO_sign?$AA@
CONST	SEGMENT
??_C@_0BH@BLILFECF@PKCS7_SIGNER_INFO_sign?$AA@ DB 'PKCS7_SIGNER_INFO_sign'
	DB	00H						; `string'
CONST	ENDS
;	COMDAT ??_C@_0BG@EIAOKKPM@PKCS7_SIGNER_INFO_set?$AA@
CONST	SEGMENT
??_C@_0BG@EIAOKKPM@PKCS7_SIGNER_INFO_set?$AA@ DB 'PKCS7_SIGNER_INFO_set', 00H ; `string'
CONST	ENDS
;	COMDAT ??_C@_0BG@PMADOMPD@PKCS7_signatureVerify?$AA@
CONST	SEGMENT
??_C@_0BG@PMADOMPD@PKCS7_signatureVerify?$AA@ DB 'PKCS7_signatureVerify', 00H ; `string'
CONST	ENDS
;	COMDAT ??_C@_0L@GIIMDMGD@PKCS7_sign?$AA@
CONST	SEGMENT
??_C@_0L@GIIMDMGD@PKCS7_sign?$AA@ DB 'PKCS7_sign', 00H	; `string'
CONST	ENDS
;	COMDAT ??_C@_0P@EIBMGDIL@PKCS7_set_type?$AA@
CONST	SEGMENT
??_C@_0P@EIBMGDIL@PKCS7_set_type?$AA@ DB 'PKCS7_set_type', 00H ; `string'
CONST	ENDS
;	COMDAT ??_C@_0BB@KHOAIGEC@PKCS7_set_digest?$AA@
CONST	SEGMENT
??_C@_0BB@KHOAIGEC@PKCS7_set_digest?$AA@ DB 'PKCS7_set_digest', 00H ; `string'
CONST	ENDS
;	COMDAT ??_C@_0BC@KEHPIBPE@PKCS7_set_content?$AA@
CONST	SEGMENT
??_C@_0BC@KEHPIBPE@PKCS7_set_content?$AA@ DB 'PKCS7_set_content', 00H ; `string'
CONST	ENDS
;	COMDAT ??_C@_0BB@MBMFDMH@PKCS7_set_cipher?$AA@
CONST	SEGMENT
??_C@_0BB@MBMFDMH@PKCS7_set_cipher?$AA@ DB 'PKCS7_set_cipher', 00H ; `string'
CONST	ENDS
;	COMDAT ??_C@_0BF@OGANHOPM@PKCS7_RECIP_INFO_set?$AA@
CONST	SEGMENT
??_C@_0BF@OGANHOPM@PKCS7_RECIP_INFO_set?$AA@ DB 'PKCS7_RECIP_INFO_set', 00H ; `string'
CONST	ENDS
;	COMDAT ??_C@_0BD@ONJMGDLL@PKCS7_get0_signers?$AA@
CONST	SEGMENT
??_C@_0BD@ONJMGDLL@PKCS7_get0_signers?$AA@ DB 'PKCS7_get0_signers', 00H ; `string'
CONST	ENDS
;	COMDAT ??_C@_0BC@PMCDCHO@PKCS7_FIND_DIGEST?$AA@
CONST	SEGMENT
??_C@_0BC@PMCDCHO@PKCS7_FIND_DIGEST?$AA@ DB 'PKCS7_FIND_DIGEST', 00H ; `string'
CONST	ENDS
;	COMDAT ??_C@_0M@DINEADOK@PKCS7_final?$AA@
CONST	SEGMENT
??_C@_0M@DINEADOK@PKCS7_final?$AA@ DB 'PKCS7_final', 00H ; `string'
CONST	ENDS
;	COMDAT ??_C@_0O@JFALMGOG@PKCS7_encrypt?$AA@
CONST	SEGMENT
??_C@_0O@JFALMGOG@PKCS7_encrypt?$AA@ DB 'PKCS7_encrypt', 00H ; `string'
CONST	ENDS
;	COMDAT ??_C@_0BD@PHHOANMB@PKCS7_ENCODE_RINFO?$AA@
CONST	SEGMENT
??_C@_0BD@PHHOANMB@PKCS7_ENCODE_RINFO?$AA@ DB 'PKCS7_ENCODE_RINFO', 00H ; `string'
CONST	ENDS
;	COMDAT ??_C@_0BE@JNDPEFCA@PKCS7_DECRYPT_RINFO?$AA@
CONST	SEGMENT
??_C@_0BE@JNDPEFCA@PKCS7_DECRYPT_RINFO?$AA@ DB 'PKCS7_DECRYPT_RINFO', 00H ; `string'
CONST	ENDS
;	COMDAT ??_C@_0O@FLKGJCIC@PKCS7_decrypt?$AA@
CONST	SEGMENT
??_C@_0O@FLKGJCIC@PKCS7_decrypt?$AA@ DB 'PKCS7_decrypt', 00H ; `string'
CONST	ENDS
;	COMDAT ??_C@_0BB@LMCKHKKD@PKCS7_dataVerify?$AA@
CONST	SEGMENT
??_C@_0BB@LMCKHKKD@PKCS7_dataVerify?$AA@ DB 'PKCS7_dataVerify', 00H ; `string'
CONST	ENDS
;	COMDAT ??_C@_0P@FNIPPNIC@PKCS7_DATASIGN?$AA@
CONST	SEGMENT
??_C@_0P@FNIPPNIC@PKCS7_DATASIGN?$AA@ DB 'PKCS7_DATASIGN', 00H ; `string'
CONST	ENDS
;	COMDAT ??_C@_0P@OONGIMOK@PKCS7_dataInit?$AA@
CONST	SEGMENT
??_C@_0P@OONGIMOK@PKCS7_dataInit?$AA@ DB 'PKCS7_dataInit', 00H ; `string'
CONST	ENDS
;	COMDAT ??_C@_0BA@ENDFMOKG@PKCS7_dataFinal?$AA@
CONST	SEGMENT
??_C@_0BA@ENDFMOKG@PKCS7_dataFinal?$AA@ DB 'PKCS7_dataFinal', 00H ; `string'
CONST	ENDS
;	COMDAT ??_C@_0BB@NBHDJPJJ@PKCS7_dataDecode?$AA@
CONST	SEGMENT
??_C@_0BB@NBHDJPJJ@PKCS7_dataDecode?$AA@ DB 'PKCS7_dataDecode', 00H ; `string'
CONST	ENDS
;	COMDAT ??_C@_0L@ICMECHLK@PKCS7_ctrl?$AA@
CONST	SEGMENT
??_C@_0L@ICMECHLK@PKCS7_ctrl?$AA@ DB 'PKCS7_ctrl', 00H	; `string'
CONST	ENDS
;	COMDAT ??_C@_0BL@EDLJNLML@PKCS7_COPY_EXISTING_DIGEST?$AA@
CONST	SEGMENT
??_C@_0BL@EDLJNLML@PKCS7_COPY_EXISTING_DIGEST?$AA@ DB 'PKCS7_COPY_EXISTIN'
	DB	'G_DIGEST', 00H				; `string'
CONST	ENDS
;	COMDAT ??_C@_0BF@HBBJACAF@PKCS7_BIO_ADD_DIGEST?$AA@
CONST	SEGMENT
??_C@_0BF@HBBJACAF@PKCS7_BIO_ADD_DIGEST?$AA@ DB 'PKCS7_BIO_ADD_DIGEST', 00H ; `string'
CONST	ENDS
;	COMDAT ??_C@_0BB@CJPBIPAC@PKCS7_add_signer?$AA@
CONST	SEGMENT
??_C@_0BB@CJPBIPAC@PKCS7_add_signer?$AA@ DB 'PKCS7_add_signer', 00H ; `string'
CONST	ENDS
;	COMDAT ??_C@_0BE@HCOKFGIN@PKCS7_add_signature?$AA@
CONST	SEGMENT
??_C@_0BE@HCOKFGIN@PKCS7_add_signature?$AA@ DB 'PKCS7_add_signature', 00H ; `string'
CONST	ENDS
;	COMDAT ??_C@_0BJ@NOCKKMGL@PKCS7_add_recipient_info?$AA@
CONST	SEGMENT
??_C@_0BJ@NOCKKMGL@PKCS7_add_recipient_info?$AA@ DB 'PKCS7_add_recipient_'
	DB	'info', 00H					; `string'
CONST	ENDS
;	COMDAT ??_C@_0O@CPFOLHJD@PKCS7_add_crl?$AA@
CONST	SEGMENT
??_C@_0O@CPFOLHJD@PKCS7_add_crl?$AA@ DB 'PKCS7_add_crl', 00H ; `string'
CONST	ENDS
;	COMDAT ??_C@_0BG@DMGOLPOM@PKCS7_add_certificate?$AA@
CONST	SEGMENT
??_C@_0BG@DMGOLPOM@PKCS7_add_certificate?$AA@ DB 'PKCS7_add_certificate', 00H ; `string'
CONST	ENDS
;	COMDAT ??_C@_0BK@HOMOFJDN@PKCS7_add_attrib_smimecap?$AA@
CONST	SEGMENT
??_C@_0BK@HOMOFJDN@PKCS7_add_attrib_smimecap?$AA@ DB 'PKCS7_add_attrib_sm'
	DB	'imecap', 00H				; `string'
CONST	ENDS
;	COMDAT ??_C@_0BP@OLGBKKPO@PKCS7_add0_attrib_signing_time?$AA@
CONST	SEGMENT
??_C@_0BP@OLGBKKPO@PKCS7_add0_attrib_signing_time?$AA@ DB 'PKCS7_add0_att'
	DB	'rib_signing_time', 00H			; `string'
CONST	ENDS
;	COMDAT ??_C@_0BF@EMAJJAAB@i2d_PKCS7_bio_stream?$AA@
CONST	SEGMENT
??_C@_0BF@EMAJJAAB@i2d_PKCS7_bio_stream?$AA@ DB 'i2d_PKCS7_bio_stream', 00H ; `string'
CONST	ENDS
;	COMDAT ??_C@_0BH@HCBGADHN@DO_PKCS7_SIGNED_ATTRIB?$AA@
CONST	SEGMENT
??_C@_0BH@HCBGADHN@DO_PKCS7_SIGNED_ATTRIB?$AA@ DB 'DO_PKCS7_SIGNED_ATTRIB'
	DB	00H						; `string'
CONST	ENDS
;	COMDAT ??_C@_0BA@NHGCDPL@B64_WRITE_PKCS7?$AA@
CONST	SEGMENT
??_C@_0BA@NHGCDPL@B64_WRITE_PKCS7?$AA@ DB 'B64_WRITE_PKCS7', 00H ; `string'
CONST	ENDS
;	COMDAT ??_C@_0P@CNHJDHJP@B64_READ_PKCS7?$AA@
CONST	SEGMENT
??_C@_0P@CNHJDHJP@B64_READ_PKCS7?$AA@ DB 'B64_READ_PKCS7', 00H ; `string'
CONST	ENDS
_DATA	SEGMENT
_PKCS7_str_functs DD 021078000H
	DD	FLAT:??_C@_0P@CNHJDHJP@B64_READ_PKCS7?$AA@
	DD	021079000H
	DD	FLAT:??_C@_0BA@NHGCDPL@B64_WRITE_PKCS7?$AA@
	DD	021088000H
	DD	FLAT:??_C@_0BH@HCBGADHN@DO_PKCS7_SIGNED_ATTRIB?$AA@
	DD	02108c000H
	DD	FLAT:??_C@_0BF@EMAJJAAB@i2d_PKCS7_bio_stream?$AA@
	DD	021087000H
	DD	FLAT:??_C@_0BP@OLGBKKPO@PKCS7_add0_attrib_signing_time?$AA@
	DD	021076000H
	DD	FLAT:??_C@_0BK@HOMOFJDN@PKCS7_add_attrib_smimecap?$AA@
	DD	021064000H
	DD	FLAT:??_C@_0BG@DMGOLPOM@PKCS7_add_certificate?$AA@
	DD	021065000H
	DD	FLAT:??_C@_0O@CPFOLHJD@PKCS7_add_crl?$AA@
	DD	021066000H
	DD	FLAT:??_C@_0BJ@NOCKKMGL@PKCS7_add_recipient_info?$AA@
	DD	021083000H
	DD	FLAT:??_C@_0BE@HCOKFGIN@PKCS7_add_signature?$AA@
	DD	021067000H
	DD	FLAT:??_C@_0BB@CJPBIPAC@PKCS7_add_signer?$AA@
	DD	02107d000H
	DD	FLAT:??_C@_0BF@HBBJACAF@PKCS7_BIO_ADD_DIGEST?$AA@
	DD	02108a000H
	DD	FLAT:??_C@_0BL@EDLJNLML@PKCS7_COPY_EXISTING_DIGEST?$AA@
	DD	021068000H
	DD	FLAT:??_C@_0L@ICMECHLK@PKCS7_ctrl?$AA@
	DD	021070000H
	DD	FLAT:??_C@_0BB@NBHDJPJJ@PKCS7_dataDecode?$AA@
	DD	021080000H
	DD	FLAT:??_C@_0BA@ENDFMOKG@PKCS7_dataFinal?$AA@
	DD	021069000H
	DD	FLAT:??_C@_0P@OONGIMOK@PKCS7_dataInit?$AA@
	DD	02106a000H
	DD	FLAT:??_C@_0P@FNIPPNIC@PKCS7_DATASIGN?$AA@
	DD	02106b000H
	DD	FLAT:??_C@_0BB@LMCKHKKD@PKCS7_dataVerify?$AA@
	DD	021072000H
	DD	FLAT:??_C@_0O@FLKGJCIC@PKCS7_decrypt?$AA@
	DD	021085000H
	DD	FLAT:??_C@_0BE@JNDPEFCA@PKCS7_DECRYPT_RINFO?$AA@
	DD	021084000H
	DD	FLAT:??_C@_0BD@PHHOANMB@PKCS7_ENCODE_RINFO?$AA@
	DD	021073000H
	DD	FLAT:??_C@_0O@JFALMGOG@PKCS7_encrypt?$AA@
	DD	021086000H
	DD	FLAT:??_C@_0M@DINEADOK@PKCS7_final?$AA@
	DD	02107f000H
	DD	FLAT:??_C@_0BC@PMCDCHO@PKCS7_FIND_DIGEST?$AA@
	DD	02107c000H
	DD	FLAT:??_C@_0BD@ONJMGDLL@PKCS7_get0_signers?$AA@
	DD	021082000H
	DD	FLAT:??_C@_0BF@OGANHOPM@PKCS7_RECIP_INFO_set?$AA@
	DD	02106c000H
	DD	FLAT:??_C@_0BB@MBMFDMH@PKCS7_set_cipher?$AA@
	DD	02106d000H
	DD	FLAT:??_C@_0BC@KEHPIBPE@PKCS7_set_content?$AA@
	DD	02107e000H
	DD	FLAT:??_C@_0BB@KHOAIGEC@PKCS7_set_digest?$AA@
	DD	02106e000H
	DD	FLAT:??_C@_0P@EIBMGDIL@PKCS7_set_type?$AA@
	DD	021074000H
	DD	FLAT:??_C@_0L@GIIMDMGD@PKCS7_sign?$AA@
	DD	021071000H
	DD	FLAT:??_C@_0BG@PMADOMPD@PKCS7_signatureVerify?$AA@
	DD	021081000H
	DD	FLAT:??_C@_0BG@EIAOKKPM@PKCS7_SIGNER_INFO_set?$AA@
	DD	02108b000H
	DD	FLAT:??_C@_0BH@BLILFECF@PKCS7_SIGNER_INFO_sign?$AA@
	DD	021089000H
	DD	FLAT:??_C@_0BG@ODCDGOGB@PKCS7_sign_add_signer?$AA@
	DD	021077000H
	DD	FLAT:??_C@_0BG@NGGLELOE@PKCS7_simple_smimecap?$AA@
	DD	021075000H
	DD	FLAT:??_C@_0N@MDDFJGNF@PKCS7_verify?$AA@
	DD	02107a000H
	DD	FLAT:??_C@_0BB@KDHLDBMO@SMIME_read_PKCS7?$AA@
	DD	02107b000H
	DD	FLAT:??_C@_0L@CEDJDPJO@SMIME_text?$AA@
	DD	00H
	DD	00H
_PKCS7_str_reasons DD 021000075H
	DD	FLAT:??_C@_0BJ@PLMONNLI@certificate?5verify?5error?$AA@
	DD	021000090H
	DD	FLAT:??_C@_0CA@BHNCFDBP@cipher?5has?5no?5object?5identifier?$AA@
	DD	021000074H
	DD	FLAT:??_C@_0BH@HHGJPEG@cipher?5not?5initialized?$AA@
	DD	021000076H
	DD	FLAT:??_C@_0BJ@JDGHLKE@content?5and?5data?5present?$AA@
	DD	021000098H
	DD	FLAT:??_C@_0L@HANPCOML@ctrl?5error?$AA@
	DD	021000082H
	DD	FLAT:??_C@_0N@HFEMCILK@decode?5error?$AA@
	DD	021000064H
	DD	FLAT:??_C@_0BO@LNIEDLGB@decrypted?5key?5is?5wrong?5length?$AA@
	DD	021000077H
	DD	FLAT:??_C@_0O@IKMKDME@decrypt?5error?$AA@
	DD	021000065H
	DD	FLAT:??_C@_0P@EAGFKBJN@digest?5failure?$AA@
	DD	021000095H
	DD	FLAT:??_C@_0BI@FLDJBJEB@encryption?5ctrl?5failure?$AA@
	DD	021000096H
	DD	FLAT:??_C@_0CL@KPOELFBN@encryption?5not?5supported?5for?5thi@
	DD	021000078H
	DD	FLAT:??_C@_0BH@PJNOPIMM@error?5adding?5recipient?$AA@
	DD	021000079H
	DD	FLAT:??_C@_0BF@EJOJNMMB@error?5setting?5cipher?$AA@
	DD	021000083H
	DD	FLAT:??_C@_0BC@FHFCCIPJ@invalid?5mime?5type?$AA@
	DD	02100008fH
	DD	FLAT:??_C@_0BF@IPGLAOPL@invalid?5null?5pointer?$AA@
	DD	02100009bH
	DD	FLAT:??_C@_0BJ@PINLKLCM@invalid?5signed?5data?5type?$AA@
	DD	021000084H
	DD	FLAT:??_C@_0BF@JPGANBNB@mime?5no?5content?5type?$AA@
	DD	021000085H
	DD	FLAT:??_C@_0BB@CLOKMDJL@mime?5parse?5error?$AA@
	DD	021000086H
	DD	FLAT:??_C@_0BF@NGKJEMBA@mime?5sig?5parse?5error?$AA@
	DD	021000067H
	DD	FLAT:??_C@_0BG@FIKOHGJL@missing?5ceripend?5info?$AA@
	DD	02100007aH
	DD	FLAT:??_C@_0L@CMBDMAOL@no?5content?$AA@
	DD	021000087H
	DD	FLAT:??_C@_0BA@FPKKDFNC@no?5content?5type?$AA@
	DD	021000097H
	DD	FLAT:??_C@_0BC@GDBMALNO@no?5default?5digest?$AA@
	DD	02100009aH
	DD	FLAT:??_C@_0BO@BPCBFOBN@no?5matching?5digest?5type?5found?$AA@
	DD	021000088H
	DD	FLAT:??_C@_0BK@BJLDLELE@no?5multipart?5body?5failure?$AA@
	DD	021000089H
	DD	FLAT:??_C@_0BG@CCLGBNL@no?5multipart?5boundary?$AA@
	DD	021000073H
	DD	FLAT:??_C@_0CB@EOIABHI@no?5recipient?5matches?5certificate@
	DD	021000092H
	DD	FLAT:??_C@_0BJ@HNAOANNO@no?5recipient?5matches?5key?$AA@
	DD	02100007bH
	DD	FLAT:??_C@_0BG@KJOJDMCP@no?5signatures?5on?5data?$AA@
	DD	02100008eH
	DD	FLAT:??_C@_0L@GEFKNGMC@no?5signers?$AA@
	DD	02100008aH
	DD	FLAT:??_C@_0BE@PKDDELLH@no?5sig?5content?5type?$AA@
	DD	021000068H
	DD	FLAT:??_C@_0CF@KFDJAIAE@operation?5not?5supported?5on?5this?5@
	DD	02100007cH
	DD	FLAT:??_C@_0BK@HFMOMPGJ@pkcs7?5add?5signature?5error?$AA@
	DD	021000099H
	DD	FLAT:??_C@_0BH@HILILNFK@pkcs7?5add?5signer?5error?$AA@
	DD	02100007eH
	DD	FLAT:??_C@_0BA@MGKDBLGL@pkcs7?5datafinal?$AA@
	DD	02100007dH
	DD	FLAT:??_C@_0BG@DENNOOLH@pkcs7?5datafinal?5error?$AA@
	DD	021000091H
	DD	FLAT:??_C@_0P@MLIPMLPL@pkcs7?5datasign?$AA@
	DD	02100008bH
	DD	FLAT:??_C@_0BC@HAIFOMAN@pkcs7?5parse?5error?$AA@
	DD	02100008cH
	DD	FLAT:??_C@_0BG@GDEPAMKB@pkcs7?5sig?5parse?5error?$AA@
	DD	02100007fH
	DD	FLAT:??_C@_0CH@PMPAELAG@private?5key?5does?5not?5match?5certi@
	DD	021000069H
	DD	FLAT:??_C@_0BC@FNMJPDOC@signature?5failure?$AA@
	DD	021000080H
	DD	FLAT:??_C@_0BN@LFDDONEE@signer?5certificate?5not?5found?$AA@
	DD	021000093H
	DD	FLAT:??_C@_0BF@NKHMFGHO@signing?5ctrl?5failure?$AA@
	DD	021000094H
	DD	FLAT:??_C@_0CI@MODCEPNI@signing?5not?5supported?5for?5this?5k@
	DD	02100008dH
	DD	FLAT:??_C@_0BG@HLPLMCAK@sig?5invalid?5mime?5type?$AA@
	DD	021000081H
	DD	FLAT:??_C@_0BB@KEMFLAGG@smime?5text?5error?$AA@
	DD	02100006aH
	DD	FLAT:??_C@_0BL@MPEBNJMM@unable?5to?5find?5certificate?$AA@
	DD	02100006bH
	DD	FLAT:??_C@_0BH@GGBACGPO@unable?5to?5find?5mem?5bio?$AA@
	DD	02100006cH
	DD	FLAT:??_C@_0BO@BPGCPEON@unable?5to?5find?5message?5digest?$AA@
	DD	02100006dH
	DD	FLAT:??_C@_0BE@FDMIMEPA@unknown?5digest?5type?$AA@
	DD	02100006eH
	DD	FLAT:??_C@_0BC@BDMDPLFD@unknown?5operation?$AA@
	DD	02100006fH
	DD	FLAT:??_C@_0BI@BDKIDJNG@unsupported?5cipher?5type?$AA@
	DD	021000070H
	DD	FLAT:??_C@_0BJ@KNOCCCPA@unsupported?5content?5type?$AA@
	DD	021000071H
	DD	FLAT:??_C@_0BD@ONLLMKAC@wrong?5content?5type?$AA@
	DD	021000072H
	DD	FLAT:??_C@_0BB@LMNDDHAO@wrong?5pkcs7?5type?$AA@
	DD	00H
	DD	00H
_DATA	ENDS
PUBLIC	_ERR_load_PKCS7_strings
EXTRN	_ERR_func_error_string:PROC
EXTRN	_ERR_load_strings:PROC
; Function compile flags: /Ogtpy
;	COMDAT _ERR_load_PKCS7_strings
_TEXT	SEGMENT
_ERR_load_PKCS7_strings PROC				; COMDAT
; File c:\workpace\openssl\openssl-1.0.2h\crypto\pkcs7\pkcs7err.c
; Line 202
	push	DWORD PTR _PKCS7_str_functs
	call	_ERR_func_error_string
	add	esp, 4
	test	eax, eax
	jne	SHORT $LN2@ERR_load_P
; Line 203
	push	OFFSET _PKCS7_str_functs
	push	eax
	call	_ERR_load_strings
; Line 204
	push	OFFSET _PKCS7_str_reasons
	push	0
	call	_ERR_load_strings
	add	esp, 16					; 00000010H
$LN2@ERR_load_P:
; Line 207
	ret	0
_ERR_load_PKCS7_strings ENDP
_TEXT	ENDS
END
