; Listing generated by Microsoft (R) Optimizing Compiler Version 19.00.23918.0 

	TITLE	C:\workpace\openssl\openssl-1.0.2h\crypto\rc2\rc2_skey.c
	.686P
	.XMM
	include listing.inc
	.model	flat

INCLUDELIB MSVCRT
INCLUDELIB OLDNAMES

CONST	SEGMENT
_key_table DB	0d9H
	DB	078H
	DB	0f9H
	DB	0c4H
	DB	019H
	DB	0ddH
	DB	0b5H
	DB	0edH
	DB	028H
	DB	0e9H
	DB	0fdH
	DB	079H
	DB	04aH
	DB	0a0H
	DB	0d8H
	DB	09dH
	DB	0c6H
	DB	07eH
	DB	037H
	DB	083H
	DB	02bH
	DB	076H
	DB	053H
	DB	08eH
	DB	062H
	DB	04cH
	DB	064H
	DB	088H
	DB	044H
	DB	08bH
	DB	0fbH
	DB	0a2H
	DB	017H
	DB	09aH
	DB	059H
	DB	0f5H
	DB	087H
	DB	0b3H
	DB	04fH
	DB	013H
	DB	061H
	DB	045H
	DB	06dH
	DB	08dH
	DB	09H
	DB	081H
	DB	07dH
	DB	032H
	DB	0bdH
	DB	08fH
	DB	040H
	DB	0ebH
	DB	086H
	DB	0b7H
	DB	07bH
	DB	0bH
	DB	0f0H
	DB	095H
	DB	021H
	DB	022H
	DB	05cH
	DB	06bH
	DB	04eH
	DB	082H
	DB	054H
	DB	0d6H
	DB	065H
	DB	093H
	DB	0ceH
	DB	060H
	DB	0b2H
	DB	01cH
	DB	073H
	DB	056H
	DB	0c0H
	DB	014H
	DB	0a7H
	DB	08cH
	DB	0f1H
	DB	0dcH
	DB	012H
	DB	075H
	DB	0caH
	DB	01fH
	DB	03bH
	DB	0beH
	DB	0e4H
	DB	0d1H
	DB	042H
	DB	03dH
	DB	0d4H
	DB	030H
	DB	0a3H
	DB	03cH
	DB	0b6H
	DB	026H
	DB	06fH
	DB	0bfH
	DB	0eH
	DB	0daH
	DB	046H
	DB	069H
	DB	07H
	DB	057H
	DB	027H
	DB	0f2H
	DB	01dH
	DB	09bH
	DB	0bcH
	DB	094H
	DB	043H
	DB	03H
	DB	0f8H
	DB	011H
	DB	0c7H
	DB	0f6H
	DB	090H
	DB	0efH
	DB	03eH
	DB	0e7H
	DB	06H
	DB	0c3H
	DB	0d5H
	DB	02fH
	DB	0c8H
	DB	066H
	DB	01eH
	DB	0d7H
	DB	08H
	DB	0e8H
	DB	0eaH
	DB	0deH
	DB	080H
	DB	052H
	DB	0eeH
	DB	0f7H
	DB	084H
	DB	0aaH
	DB	072H
	DB	0acH
	DB	035H
	DB	04dH
	DB	06aH
	DB	02aH
	DB	096H
	DB	01aH
	DB	0d2H
	DB	071H
	DB	05aH
	DB	015H
	DB	049H
	DB	074H
	DB	04bH
	DB	09fH
	DB	0d0H
	DB	05eH
	DB	04H
	DB	018H
	DB	0a4H
	DB	0ecH
	DB	0c2H
	DB	0e0H
	DB	041H
	DB	06eH
	DB	0fH
	DB	051H
	DB	0cbH
	DB	0ccH
	DB	024H
	DB	091H
	DB	0afH
	DB	050H
	DB	0a1H
	DB	0f4H
	DB	070H
	DB	039H
	DB	099H
	DB	07cH
	DB	03aH
	DB	085H
	DB	023H
	DB	0b8H
	DB	0b4H
	DB	07aH
	DB	0fcH
	DB	02H
	DB	036H
	DB	05bH
	DB	025H
	DB	055H
	DB	097H
	DB	031H
	DB	02dH
	DB	05dH
	DB	0faH
	DB	098H
	DB	0e3H
	DB	08aH
	DB	092H
	DB	0aeH
	DB	05H
	DB	0dfH
	DB	029H
	DB	010H
	DB	067H
	DB	06cH
	DB	0baH
	DB	0c9H
	DB	0d3H
	DB	00H
	DB	0e6H
	DB	0cfH
	DB	0e1H
	DB	09eH
	DB	0a8H
	DB	02cH
	DB	063H
	DB	016H
	DB	01H
	DB	03fH
	DB	058H
	DB	0e2H
	DB	089H
	DB	0a9H
	DB	0dH
	DB	038H
	DB	034H
	DB	01bH
	DB	0abH
	DB	033H
	DB	0ffH
	DB	0b0H
	DB	0bbH
	DB	048H
	DB	0cH
	DB	05fH
	DB	0b9H
	DB	0b1H
	DB	0cdH
	DB	02eH
	DB	0c5H
	DB	0f3H
	DB	0dbH
	DB	047H
	DB	0e5H
	DB	0a5H
	DB	09cH
	DB	077H
	DB	0aH
	DB	0a6H
	DB	020H
	DB	068H
	DB	0feH
	DB	07fH
	DB	0c1H
	DB	0adH
CONST	ENDS
PUBLIC	_RC2_set_key
; Function compile flags: /Ogtpy
;	COMDAT _RC2_set_key
_TEXT	SEGMENT
_j$1$ = 8						; size = 4
_key$ = 8						; size = 4
_len$ = 12						; size = 4
_data$ = 16						; size = 4
_bits$ = 20						; size = 4
_RC2_set_key PROC					; COMDAT
; File c:\workpace\openssl\openssl-1.0.2h\crypto\rc2\rc2_skey.c
; Line 118
	mov	ecx, DWORD PTR _len$[esp-4]
	push	ebx
	mov	ebx, DWORD PTR _key$[esp]
	push	ebp
; Line 120
	mov	ebp, DWORD PTR _bits$[esp+4]
	push	esi
	push	edi
	mov	edi, 128				; 00000080H
	mov	BYTE PTR [ebx], 0
	cmp	ecx, edi
	cmovg	ecx, edi
	test	ebp, ebp
	jg	SHORT $LN14@RC2_set_ke
; Line 121
	mov	ebp, 1024				; 00000400H
; Line 122
	jmp	SHORT $LN15@RC2_set_ke
$LN14@RC2_set_ke:
	mov	eax, 1024				; 00000400H
	cmp	ebp, eax
	cmovg	ebp, eax
$LN15@RC2_set_ke:
; Line 125
	test	ecx, ecx
	jle	SHORT $LN3@RC2_set_ke
	sub	DWORD PTR _data$[esp+12], ebx
	mov	edx, ebx
	mov	ebx, DWORD PTR _data$[esp+12]
	mov	esi, ecx
$LL26@RC2_set_ke:
; Line 126
	mov	al, BYTE PTR [ebx+edx]
	lea	edx, DWORD PTR [edx+1]
	mov	BYTE PTR [edx-1], al
	sub	esi, 1
	jne	SHORT $LL26@RC2_set_ke
	mov	ebx, DWORD PTR _key$[esp+12]
$LN3@RC2_set_ke:
; Line 129
	movzx	edx, BYTE PTR [ebx+ecx-1]
; Line 131
	cmp	ecx, edi
	jge	SHORT $LN6@RC2_set_ke
	mov	esi, ebx
	sub	esi, ecx
$LL7@RC2_set_ke:
; Line 132
	movzx	eax, BYTE PTR [esi+ecx]
	add	eax, edx
	movzx	eax, al
	movzx	edx, BYTE PTR _key_table[eax]
; Line 133
	mov	BYTE PTR [ecx+ebx], dl
	inc	ecx
	cmp	ecx, edi
	jl	SHORT $LL7@RC2_set_ke
$LN6@RC2_set_ke:
; Line 138
	lea	eax, DWORD PTR [ebp+7]
; Line 140
	mov	edx, 255				; 000000ffH
	sar	eax, 3
	neg	ebp
	sub	edi, eax
	mov	DWORD PTR _j$1$[esp+12], eax
; Line 142
	movzx	eax, BYTE PTR [edi+ebx]
	lea	esi, DWORD PTR [edi+ebx]
	and	ebp, 7
	mov	ecx, ebp
	sar	edx, cl
	and	edx, eax
	movzx	ecx, BYTE PTR _key_table[edx]
; Line 143
	mov	BYTE PTR [esi], cl
; Line 144
	test	edi, edi
	je	SHORT $LN23@RC2_set_ke
	mov	edx, DWORD PTR _j$1$[esp+12]
	npad	3
$LL8@RC2_set_ke:
; Line 145
	movzx	eax, BYTE PTR [esi+edx-1]
	lea	esi, DWORD PTR [esi-1]
	xor	eax, ecx
	movzx	ecx, BYTE PTR _key_table[eax]
; Line 146
	mov	BYTE PTR [esi], cl
	sub	edi, 1
	jne	SHORT $LL8@RC2_set_ke
$LN23@RC2_set_ke:
; Line 150
	lea	esi, DWORD PTR [ebx+252]
	mov	edi, 64					; 00000040H
	lea	edx, DWORD PTR [ebx+126]
$LL12@RC2_set_ke:
; Line 152
	movzx	ecx, BYTE PTR [edx+1]
	lea	esi, DWORD PTR [esi-4]
	movzx	eax, BYTE PTR [edx]
	lea	edx, DWORD PTR [edx-2]
	shl	ecx, 8
	or	ecx, eax
	movzx	eax, cx
	mov	DWORD PTR [esi+4], eax
	sub	edi, 1
	jne	SHORT $LL12@RC2_set_ke
; Line 153
	pop	edi
	pop	esi
	pop	ebp
	pop	ebx
	ret	0
_RC2_set_key ENDP
_TEXT	ENDS
END
