; Listing generated by Microsoft (R) Optimizing Compiler Version 19.00.23918.0 

	TITLE	C:\workpace\openssl\openssl-1.0.2h\ssl\s3_clnt.c
	.686P
	.XMM
	include listing.inc
	.model	flat

INCLUDELIB MSVCRT
INCLUDELIB OLDNAMES

PUBLIC	_ssl3_connect
EXTRN	_SSLv3_enc_data:BYTE
EXTRN	_ssl_undefined_function:PROC
EXTRN	_ssl_undefined_void_function:PROC
EXTRN	_ssl3_get_cipher_by_char:PROC
EXTRN	_ssl3_put_cipher_by_char:PROC
EXTRN	_ssl3_get_message:PROC
EXTRN	_ssl3_num_ciphers:PROC
EXTRN	_ssl3_get_cipher:PROC
EXTRN	_ssl3_renegotiate:PROC
EXTRN	_ssl3_renegotiate_check:PROC
EXTRN	_ssl3_dispatch_alert:PROC
EXTRN	_ssl3_read_bytes:PROC
EXTRN	_ssl3_write_bytes:PROC
EXTRN	_ssl3_new:PROC
EXTRN	_ssl3_free:PROC
EXTRN	_ssl3_read:PROC
EXTRN	_ssl3_peek:PROC
EXTRN	_ssl3_write:PROC
EXTRN	_ssl3_shutdown:PROC
EXTRN	_ssl3_clear:PROC
EXTRN	_ssl3_ctrl:PROC
EXTRN	_ssl3_ctx_ctrl:PROC
EXTRN	_ssl3_callback_ctrl:PROC
EXTRN	_ssl3_ctx_callback_ctrl:PROC
EXTRN	_ssl3_pending:PROC
EXTRN	_ssl3_default_timeout:PROC
CONST	SEGMENT
?SSLv3_client_method_data@?1??SSLv3_client_method@@9@9 DD 0300H ; `SSLv3_client_method'::`2'::SSLv3_client_method_data
	DD	FLAT:_ssl3_new
	DD	FLAT:_ssl3_clear
	DD	FLAT:_ssl3_free
	DD	FLAT:_ssl_undefined_function
	DD	FLAT:_ssl3_connect
	DD	FLAT:_ssl3_read
	DD	FLAT:_ssl3_peek
	DD	FLAT:_ssl3_write
	DD	FLAT:_ssl3_shutdown
	DD	FLAT:_ssl3_renegotiate
	DD	FLAT:_ssl3_renegotiate_check
	DD	FLAT:_ssl3_get_message
	DD	FLAT:_ssl3_read_bytes
	DD	FLAT:_ssl3_write_bytes
	DD	FLAT:_ssl3_dispatch_alert
	DD	FLAT:_ssl3_ctrl
	DD	FLAT:_ssl3_ctx_ctrl
	DD	FLAT:_ssl3_get_cipher_by_char
	DD	FLAT:_ssl3_put_cipher_by_char
	DD	FLAT:_ssl3_pending
	DD	FLAT:_ssl3_num_ciphers
	DD	FLAT:_ssl3_get_cipher
	DD	FLAT:_ssl3_get_client_method
	DD	FLAT:_ssl3_default_timeout
	DD	FLAT:_SSLv3_enc_data
	DD	FLAT:_ssl_undefined_void_function
	DD	FLAT:_ssl3_callback_ctrl
	DD	FLAT:_ssl3_ctx_callback_ctrl
CONST	ENDS
PUBLIC	_SSLv3_client_method
PUBLIC	_ssl3_client_hello
PUBLIC	_ssl3_get_server_hello
PUBLIC	_ssl3_get_certificate_request
PUBLIC	_ssl3_get_new_session_ticket
PUBLIC	_ssl3_get_cert_status
PUBLIC	_ssl3_get_server_done
PUBLIC	_ssl3_send_client_verify
PUBLIC	_ssl3_send_client_certificate
PUBLIC	_ssl_do_client_cert_cb
PUBLIC	_ssl3_send_client_key_exchange
PUBLIC	_ssl3_get_key_exchange
PUBLIC	_ssl3_get_server_certificate
PUBLIC	_ssl3_check_cert_and_algorithm
PUBLIC	_ssl3_send_next_proto
PUBLIC	??_C@_0BA@NMKJILMC@?4?2ssl?2s3_clnt?4c?$AA@	; `string'
EXTRN	__imp___time64:PROC
EXTRN	__imp__memmove:PROC
EXTRN	__imp__SetLastError@4:PROC
EXTRN	_BUF_MEM_new:PROC
EXTRN	_BUF_MEM_free:PROC
EXTRN	_BUF_MEM_grow:PROC
EXTRN	_BUF_strdup:PROC
EXTRN	_BUF_strndup:PROC
EXTRN	_BUF_memdup:PROC
EXTRN	_sk_num:PROC
EXTRN	_sk_value:PROC
EXTRN	_sk_new:PROC
EXTRN	_sk_new_null:PROC
EXTRN	_sk_pop_free:PROC
EXTRN	_sk_find:PROC
EXTRN	_sk_push:PROC
EXTRN	_CRYPTO_add_lock:PROC
EXTRN	_CRYPTO_malloc:PROC
EXTRN	_CRYPTO_free:PROC
EXTRN	_OPENSSL_cleanse:PROC
EXTRN	_BIO_ctrl:PROC
EXTRN	_BIO_push:PROC
EXTRN	_BN_CTX_new:PROC
EXTRN	_BN_CTX_free:PROC
EXTRN	_BN_num_bits:PROC
EXTRN	_BN_bin2bn:PROC
EXTRN	_BN_bn2bin:PROC
EXTRN	_RSA_new:PROC
EXTRN	_RSA_public_encrypt:PROC
EXTRN	_RSA_free:PROC
EXTRN	_RSA_sign:PROC
EXTRN	_RSA_verify:PROC
EXTRN	_DHparams_dup:PROC
EXTRN	_DH_new:PROC
EXTRN	_DH_free:PROC
EXTRN	_DH_generate_key:PROC
EXTRN	_DH_compute_key:PROC
EXTRN	_DSA_sign:PROC
EXTRN	_ERR_put_error:PROC
EXTRN	_ERR_clear_error:PROC
EXTRN	_OBJ_nid2sn:PROC
EXTRN	_EVP_MD_CTX_init:PROC
EXTRN	_EVP_MD_CTX_cleanup:PROC
EXTRN	_EVP_MD_CTX_create:PROC
EXTRN	_EVP_MD_CTX_destroy:PROC
EXTRN	_EVP_MD_CTX_set_flags:PROC
EXTRN	_EVP_DigestInit_ex:PROC
EXTRN	_EVP_DigestUpdate:PROC
EXTRN	_EVP_DigestFinal_ex:PROC
EXTRN	_EVP_Digest:PROC
EXTRN	_EVP_DigestInit:PROC
EXTRN	_EVP_SignFinal:PROC
EXTRN	_EVP_VerifyFinal:PROC
EXTRN	_EVP_sha1:PROC
EXTRN	_EVP_sha256:PROC
EXTRN	_EVP_get_digestbyname:PROC
EXTRN	_EVP_PKEY_id:PROC
EXTRN	_EVP_PKEY_bits:PROC
EXTRN	_EVP_PKEY_size:PROC
EXTRN	_EVP_PKEY_get1_DH:PROC
EXTRN	_EVP_PKEY_free:PROC
EXTRN	_EVP_PKEY_missing_parameters:PROC
EXTRN	_EVP_PKEY_cmp_parameters:PROC
EXTRN	_EVP_PKEY_CTX_new:PROC
EXTRN	_EVP_PKEY_CTX_free:PROC
EXTRN	_EVP_PKEY_CTX_ctrl:PROC
EXTRN	_EVP_PKEY_sign_init:PROC
EXTRN	_EVP_PKEY_sign:PROC
EXTRN	_EVP_PKEY_encrypt_init:PROC
EXTRN	_EVP_PKEY_encrypt:PROC
EXTRN	_EVP_PKEY_derive_set_peer:PROC
EXTRN	_EC_GROUP_free:PROC
EXTRN	_EC_GROUP_get_degree:PROC
EXTRN	_EC_GROUP_new_by_curve_name:PROC
EXTRN	_EC_POINT_new:PROC
EXTRN	_EC_POINT_free:PROC
EXTRN	_EC_POINT_point2oct:PROC
EXTRN	_EC_POINT_oct2point:PROC
EXTRN	_EC_KEY_new:PROC
EXTRN	_EC_KEY_free:PROC
EXTRN	_EC_KEY_get0_group:PROC
EXTRN	_EC_KEY_set_group:PROC
EXTRN	_EC_KEY_get0_public_key:PROC
EXTRN	_EC_KEY_set_public_key:PROC
EXTRN	_EC_KEY_generate_key:PROC
EXTRN	_ECDSA_sign:PROC
EXTRN	_ECDH_compute_key:PROC
EXTRN	_X509_NAME_free:PROC
EXTRN	_d2i_X509_NAME:PROC
EXTRN	_X509_free:PROC
EXTRN	_d2i_X509:PROC
EXTRN	_X509_get_pubkey:PROC
EXTRN	_X509_certificate_type:PROC
EXTRN	_X509_NAME_cmp:PROC
EXTRN	_SRP_Calc_A_param:PROC
EXTRN	_SRP_generate_client_master_secret:PROC
EXTRN	_SSL_clear:PROC
EXTRN	_SSL_use_PrivateKey:PROC
EXTRN	_SSL_use_certificate:PROC
EXTRN	_SSL_SESSION_free:PROC
EXTRN	_SSL_CTX_remove_session:PROC
EXTRN	_DTLSv1_client_method:PROC
EXTRN	_DTLSv1_2_client_method:PROC
EXTRN	_SSL_get_ciphers:PROC
EXTRN	_SSL_get_client_CA_list:PROC
EXTRN	_SSL_state:PROC
EXTRN	_ssl_sess_cert_new:PROC
EXTRN	_ssl_sess_cert_free:PROC
EXTRN	_ssl_get_new_session:PROC
EXTRN	_ssl_session_dup:PROC
EXTRN	_ssl_cipher_list_to_bytes:PROC
EXTRN	_ssl_update_cache:PROC
EXTRN	_ssl_cipher_get_cert_index:PROC
EXTRN	_ssl_get_cipher_by_char:PROC
EXTRN	_ssl_verify_cert_chain:PROC
EXTRN	_ssl_cert_type:PROC
EXTRN	_ssl_get_ciphers_by_id:PROC
EXTRN	_ssl_verify_alarm_type:PROC
EXTRN	_ssl_fill_hello_random:PROC
EXTRN	_ssl3_init_finished_mac:PROC
EXTRN	_ssl3_get_finished:PROC
EXTRN	_ssl3_send_change_cipher_spec:PROC
EXTRN	_ssl3_cleanup_key_block:PROC
EXTRN	_ssl3_do_write:PROC
EXTRN	_ssl3_send_alert:PROC
EXTRN	_ssl3_send_finished:PROC
EXTRN	_ssl3_output_cert_chain:PROC
EXTRN	_ssl3_setup_buffers:PROC
EXTRN	_ssl3_digest_cached_records:PROC
EXTRN	_ssl_init_wbio_buffer:PROC
EXTRN	_ssl_free_wbio_buffer:PROC
EXTRN	_ssl_check_srvr_ecc_cert_and_alg:PROC
EXTRN	_ssl3_comp_find:PROC
EXTRN	_tls1_ec_curve_id2nid:PROC
EXTRN	_tls1_check_curve:PROC
EXTRN	_ssl_add_clienthello_tlsext:PROC
EXTRN	_ssl_parse_serverhello_tlsext:PROC
EXTRN	_ssl_prepare_clienthello_tlsext:PROC
EXTRN	_tls12_get_sigandhash:PROC
EXTRN	_tls1_check_chain:PROC
EXTRN	_tls1_save_sigalgs:PROC
EXTRN	_tls1_process_sigalgs:PROC
EXTRN	_tls12_check_peer_sigalg:PROC
EXTRN	_srp_verify_server_param:PROC
EXTRN	_RAND_bytes:PROC
EXTRN	_RAND_add:PROC
EXTRN	_ENGINE_load_ssl_client_cert:PROC
EXTRN	@__security_check_cookie@4:PROC
EXTRN	__chkstk:PROC
EXTRN	_memcpy:PROC
EXTRN	_memset:PROC
EXTRN	___security_cookie:DWORD
EXTRN	__fltused:DWORD
;	COMDAT ??_C@_0BA@NMKJILMC@?4?2ssl?2s3_clnt?4c?$AA@
CONST	SEGMENT
??_C@_0BA@NMKJILMC@?4?2ssl?2s3_clnt?4c?$AA@ DB '.\ssl\s3_clnt.c', 00H ; `string'
CONST	ENDS
; Function compile flags: /Ogtpy
;	COMDAT _ssl3_check_client_certificate
_TEXT	SEGMENT
_s$ = 8							; size = 4
_ssl3_check_client_certificate PROC			; COMDAT
; File c:\workpace\openssl\openssl-1.0.2h\ssl\s3_clnt.c
; Line 3361
	push	edi
; Line 3363
	mov	edi, DWORD PTR _s$[esp]
	mov	ecx, DWORD PTR [edi+152]
	test	ecx, ecx
	je	SHORT $LN15@ssl3_check
	mov	edx, DWORD PTR [ecx]
	cmp	DWORD PTR [edx], 0
	je	SHORT $LN15@ssl3_check
	cmp	DWORD PTR [edx+4], 0
	je	SHORT $LN15@ssl3_check
; Line 3366
	mov	eax, DWORD PTR [edi+8]
	mov	eax, DWORD PTR [eax+100]
	test	BYTE PTR [eax+56], 2
	je	SHORT $LN4@ssl3_check
	cmp	DWORD PTR [edx+8], 0
	jne	SHORT $LN4@ssl3_check
$LN15@ssl3_check:
; Line 3367
	xor	eax, eax
	pop	edi
; Line 3397
	ret	0
$LN4@ssl3_check:
; Line 3372
	test	DWORD PTR [ecx+56], 196609		; 00030001H
	je	SHORT $LN5@ssl3_check
	push	-2					; fffffffeH
	push	0
	push	0
	push	0
	push	edi
	call	_tls1_check_chain
	add	esp, 20					; 00000014H
	test	eax, eax
	je	SHORT $LN15@ssl3_check
$LN5@ssl3_check:
; Line 3377
	mov	eax, DWORD PTR [edi+88]
	push	ebx
	push	ebp
	push	esi
	mov	eax, DWORD PTR [eax+836]
	test	BYTE PTR [eax+12], 6
	je	SHORT $LN6@ssl3_check
; Line 3378
	mov	eax, DWORD PTR [edi+192]
	mov	ebx, DWORD PTR [eax+152]
; Line 3381
	mov	eax, DWORD PTR [edi+152]
	mov	esi, DWORD PTR [ebx+4]
	mov	eax, DWORD PTR [eax]
	mov	ebp, DWORD PTR [eax+4]
; Line 3383
	push	ebp
	call	_EVP_PKEY_id
	add	esp, 4
	cmp	eax, 28					; 0000001cH
	jne	SHORT $LN6@ssl3_check
; Line 3385
	test	esi, esi
	js	SHORT $LN10@ssl3_check
; Line 3386
	lea	eax, DWORD PTR [esi*8]
	sub	eax, esi
	push	DWORD PTR [ebx+eax*4+12]
	call	_X509_get_pubkey
	mov	ebx, eax
	add	esp, 4
; Line 3387
	test	ebx, ebx
	je	SHORT $LN10@ssl3_check
; Line 3389
	push	ebx
	push	ebp
	call	_EVP_PKEY_cmp_parameters
; Line 3390
	push	ebx
	mov	esi, eax
	call	_EVP_PKEY_free
	add	esp, 12					; 0000000cH
; Line 3391
	cmp	esi, 1
	je	SHORT $LN10@ssl3_check
; Line 3392
	pop	esi
	pop	ebp
	pop	ebx
	xor	eax, eax
	pop	edi
; Line 3397
	ret	0
$LN10@ssl3_check:
; Line 3394
	mov	eax, DWORD PTR [edi+88]
	or	DWORD PTR [eax], 16			; 00000010H
$LN6@ssl3_check:
; Line 3396
	pop	esi
	pop	ebp
	pop	ebx
	mov	eax, 1
	pop	edi
; Line 3397
	ret	0
_ssl3_check_client_certificate ENDP
_TEXT	ENDS
; Function compile flags: /Ogtpy
;	COMDAT _get_server_static_dh_key
_TEXT	SEGMENT
_scert$ = 8						; size = 4
_get_server_static_dh_key PROC				; COMDAT
; File c:\workpace\openssl\openssl-1.0.2h\ssl\s3_clnt.c
; Line 2444
	mov	edx, DWORD PTR _scert$[esp-4]
	push	esi
	xor	esi, esi
	push	edi
	mov	ecx, DWORD PTR [edx+4]
; Line 2446
	test	ecx, ecx
	js	SHORT $LN6@get_server
; Line 2447
	lea	eax, DWORD PTR [ecx*8]
	sub	eax, ecx
	push	DWORD PTR [edx+eax*4+12]
	call	_X509_get_pubkey
	mov	edi, eax
	add	esp, 4
; Line 2448
	test	edi, edi
	je	SHORT $LN6@get_server
; Line 2449
	push	edi
	call	_EVP_PKEY_get1_DH
; Line 2450
	push	edi
	mov	esi, eax
	call	_EVP_PKEY_free
	add	esp, 8
; Line 2452
	test	esi, esi
	jne	SHORT $LN8@get_server
$LN6@get_server:
; Line 2453
	push	2453					; 00000995H
	push	OFFSET ??_C@_0BA@NMKJILMC@?4?2ssl?2s3_clnt?4c?$AA@
	push	68					; 00000044H
	push	340					; 00000154H
	push	20					; 00000014H
	call	_ERR_put_error
	add	esp, 20					; 00000014H
$LN8@get_server:
; Line 2454
	pop	edi
	mov	eax, esi
	pop	esi
; Line 2455
	ret	0
_get_server_static_dh_key ENDP
_TEXT	ENDS
; Function compile flags: /Ogtpy
;	COMDAT _ssl3_get_client_method
_TEXT	SEGMENT
_ver$ = 8						; size = 4
_ssl3_get_client_method PROC				; COMDAT
; File c:\workpace\openssl\openssl-1.0.2h\ssl\s3_clnt.c
; Line 178
	xor	ecx, ecx
	mov	eax, OFFSET ?SSLv3_client_method_data@?1??SSLv3_client_method@@9@9
	cmp	DWORD PTR _ver$[esp-4], 768		; 00000300H
	cmovne	eax, ecx
; Line 182
	ret	0
_ssl3_get_client_method ENDP
_TEXT	ENDS
; Function compile flags: /Ogtpy
;	COMDAT _ssl3_check_finished
_TEXT	SEGMENT
_ok$ = -4						; size = 4
_s$ = 8							; size = 4
_ssl3_check_finished PROC				; COMDAT
; File c:\workpace\openssl\openssl-1.0.2h\ssl\s3_clnt.c
; Line 3683
	mov	eax, 4
	call	__chkstk
	push	esi
; Line 3686
	mov	esi, DWORD PTR _s$[esp+4]
	mov	DWORD PTR _ok$[esp+8], 0
	cmp	DWORD PTR [esi], 769			; 00000301H
	jl	$LN3@ssl3_check
	cmp	DWORD PTR [esi+360], 0
	je	$LN3@ssl3_check
	mov	eax, DWORD PTR [esi+192]
	cmp	DWORD PTR [eax+228], 0
	je	$LN3@ssl3_check
; Line 3691
	mov	eax, DWORD PTR [esi+88]
; Line 3698
	lea	ecx, DWORD PTR _ok$[esp+8]
	push	ecx
	or	DWORD PTR [eax], 128			; 00000080H
	push	DWORD PTR [esi+264]
	mov	eax, DWORD PTR [esi+8]
	push	-1
	push	4401					; 00001131H
	push	4400					; 00001130H
	mov	eax, DWORD PTR [eax+48]
	push	esi
	call	eax
; Line 3702
	mov	eax, DWORD PTR [esi+88]
	add	esp, 24					; 00000018H
	and	DWORD PTR [eax], -129			; ffffff7fH
; Line 3704
	cmp	DWORD PTR _ok$[esp+8], 0
	je	SHORT $LN8@ssl3_check
; Line 3707
	mov	eax, DWORD PTR [esi+88]
	mov	DWORD PTR [eax+852], 1
; Line 3709
	mov	eax, DWORD PTR [esi+88]
	cmp	DWORD PTR [eax+832], 20			; 00000014H
	jne	SHORT $LN5@ssl3_check
; Line 3710
	mov	eax, 1
	pop	esi
; Line 3720
	pop	ecx
	ret	0
$LN5@ssl3_check:
; Line 3713
	cmp	DWORD PTR [eax+384], 0
	je	SHORT $LN3@ssl3_check
; Line 3714
	push	3714					; 00000e82H
	push	OFFSET ??_C@_0BA@NMKJILMC@?4?2ssl?2s3_clnt?4c?$AA@
	push	133					; 00000085H
	push	339					; 00000153H
	push	20					; 00000014H
	call	_ERR_put_error
; Line 3715
	push	10					; 0000000aH
	push	2
	push	esi
	call	_ssl3_send_alert
	add	esp, 32					; 00000020H
$LN8@ssl3_check:
; Line 3716
	or	eax, -1
	pop	esi
; Line 3720
	pop	ecx
	ret	0
$LN3@ssl3_check:
; Line 3688
	xor	eax, eax
	pop	esi
; Line 3720
	pop	ecx
	ret	0
_ssl3_check_finished ENDP
_TEXT	ENDS
; Function compile flags: /Ogtpy
;	COMDAT _ca_dn_cmp
_TEXT	SEGMENT
_a$ = 8							; size = 4
_b$ = 12						; size = 4
_ca_dn_cmp PROC						; COMDAT
; File c:\workpace\openssl\openssl-1.0.2h\ssl\s3_clnt.c
; Line 2234
	mov	eax, DWORD PTR _b$[esp-4]
	push	DWORD PTR [eax]
	mov	eax, DWORD PTR _a$[esp]
	push	DWORD PTR [eax]
	call	_X509_NAME_cmp
	add	esp, 8
; Line 2235
	ret	0
_ca_dn_cmp ENDP
_TEXT	ENDS
; Function compile flags: /Ogtpy
;	COMDAT _ssl3_send_next_proto
_TEXT	SEGMENT
_len$1$ = 8						; size = 4
_s$ = 8							; size = 4
_ssl3_send_next_proto PROC				; COMDAT
; File c:\workpace\openssl\openssl-1.0.2h\ssl\s3_clnt.c
; Line 3724
	push	edi
; Line 3728
	mov	edi, DWORD PTR _s$[esp]
	cmp	DWORD PTR [edi+52], 4608		; 00001200H
	jne	$LN2@ssl3_send_
; Line 3729
	movzx	ecx, BYTE PTR [edi+376]
	push	ebx
; Line 3730
	mov	ebx, 32					; 00000020H
	mov	DWORD PTR _len$1$[esp+4], ecx
	push	esi
	lea	eax, DWORD PTR [ecx+2]
	and	eax, 31					; 0000001fH
	sub	ebx, eax
; Line 3731
	mov	eax, DWORD PTR [edi+60]
; Line 3733
	push	ecx
	mov	esi, DWORD PTR [eax+4]
	mov	BYTE PTR [esi+4], cl
	lea	eax, DWORD PTR [esi+5]
	push	DWORD PTR [edi+372]
	push	eax
	call	_memcpy
; Line 3734
	mov	eax, DWORD PTR _len$1$[esp+20]
; Line 3735
	push	ebx
	push	0
	mov	BYTE PTR [esi+eax+5], bl
	add	eax, 6
	add	eax, esi
	push	eax
	call	_memset
; Line 3737
	mov	edx, DWORD PTR _len$1$[esp+32]
	add	esp, 24					; 00000018H
	add	edx, ebx
	mov	BYTE PTR [esi], 67			; 00000043H
	add	bl, 2
	lea	ecx, DWORD PTR [edx+2]
	mov	eax, ecx
	shr	ecx, 8
	shr	eax, 16					; 00000010H
	add	bl, BYTE PTR _len$1$[esp+8]
	mov	BYTE PTR [esi+1], al
; Line 3739
	lea	eax, DWORD PTR [edx+6]
	mov	BYTE PTR [esi+3], bl
	mov	BYTE PTR [esi+2], cl
	pop	esi
	mov	DWORD PTR [edi+52], 4609		; 00001201H
	mov	DWORD PTR [edi+68], eax
; Line 3740
	mov	DWORD PTR [edi+72], 0
	pop	ebx
$LN2@ssl3_send_:
; Line 3743
	push	22					; 00000016H
	push	edi
	call	_ssl3_do_write
	add	esp, 8
	pop	edi
; Line 3744
	ret	0
_ssl3_send_next_proto ENDP
_TEXT	ENDS
; Function compile flags: /Ogtpy
;	COMDAT _ssl3_check_cert_and_algorithm
_TEXT	SEGMENT
_dh$1$ = -24						; size = 4
tv520 = -20						; size = 4
tv516 = -20						; size = 4
_alg_a$1$ = -20						; size = 4
_pkey_bits$1$ = -16					; size = 4
_rsa$1$ = -12						; size = 4
_dh_srvr$1$ = -8					; size = 4
_sc$1$ = -8						; size = 4
tv521 = -4						; size = 4
_alg_k$1$ = 8						; size = 4
_s$ = 8							; size = 4
_ssl3_check_cert_and_algorithm PROC			; COMDAT
; File c:\workpace\openssl\openssl-1.0.2h\ssl\s3_clnt.c
; Line 3486
	mov	eax, 24					; 00000018H
	call	__chkstk
	push	ebx
; Line 3500
	mov	ebx, DWORD PTR _s$[esp+24]
	push	ebp
	mov	ebp, 40					; 00000028H
	mov	eax, DWORD PTR [ebx+88]
	mov	eax, DWORD PTR [eax+836]
	mov	ecx, DWORD PTR [eax+12]
; Line 3501
	mov	eax, DWORD PTR [eax+16]
	mov	DWORD PTR _alg_k$1$[esp+28], ecx
	mov	DWORD PTR _alg_a$1$[esp+32], eax
; Line 3504
	test	al, 36					; 00000024H
	jne	$LN3@ssl3_check
	test	ecx, 256				; 00000100H
	jne	$LN3@ssl3_check
; Line 3507
	mov	eax, DWORD PTR [ebx+192]
	push	esi
	push	edi
	mov	edx, DWORD PTR [eax+152]
	mov	DWORD PTR _sc$1$[esp+40], edx
; Line 3508
	test	edx, edx
	jne	SHORT $LN4@ssl3_check
; Line 3509
	push	3509					; 00000db5H
	push	OFFSET ??_C@_0BA@NMKJILMC@?4?2ssl?2s3_clnt?4c?$AA@
	push	68					; 00000044H
	push	130					; 00000082H
	push	20					; 00000014H
	call	_ERR_put_error
	add	esp, 20					; 00000014H
; Line 3669
	xor	eax, eax
	pop	edi
	pop	esi
	pop	ebp
	pop	ebx
; Line 3670
	add	esp, 24					; 00000018H
	ret	0
$LN4@ssl3_check:
; Line 3513
	mov	eax, DWORD PTR [edx+236]
; Line 3521
	mov	esi, DWORD PTR [edx+4]
	mov	DWORD PTR _rsa$1$[esp+40], eax
	mov	eax, DWORD PTR [edx+240]
	mov	DWORD PTR _dh$1$[esp+40], eax
; Line 3523
	cmp	esi, 5
	jne	SHORT $LN5@ssl3_check
; Line 3524
	push	ebx
	push	DWORD PTR [edx+152]
	call	_ssl_check_srvr_ecc_cert_and_alg
	add	esp, 8
	test	eax, eax
	jne	$LN42@ssl3_check
; Line 3526
	push	3526					; 00000dc6H
	push	OFFSET ??_C@_0BA@NMKJILMC@?4?2ssl?2s3_clnt?4c?$AA@
	push	304					; 00000130H
; Line 3527
	jmp	$LN49@ssl3_check
$LN5@ssl3_check:
; Line 3531
	test	BYTE PTR _alg_a$1$[esp+40], 64		; 00000040H
	je	SHORT $LN9@ssl3_check
; Line 3532
	push	3533					; 00000dcdH
	push	OFFSET ??_C@_0BA@NMKJILMC@?4?2ssl?2s3_clnt?4c?$AA@
	push	381					; 0000017dH
; Line 3534
	jmp	$LN49@ssl3_check
$LN9@ssl3_check:
; Line 3535
	test	cl, 96					; 00000060H
	je	SHORT $LN11@ssl3_check
; Line 3536
	push	3536					; 00000dd0H
	push	OFFSET ??_C@_0BA@NMKJILMC@?4?2ssl?2s3_clnt?4c?$AA@
	push	382					; 0000017eH
; Line 3537
	jmp	$LN49@ssl3_check
$LN11@ssl3_check:
; Line 3540
	lea	eax, DWORD PTR [esi*8]
	sub	eax, esi
	push	DWORD PTR [edx+eax*4+12]
	lea	esi, DWORD PTR [edx+eax*4]
	call	_X509_get_pubkey
	mov	edi, eax
; Line 3541
	push	edi
	call	_EVP_PKEY_bits
; Line 3542
	push	edi
	push	DWORD PTR [esi+12]
	mov	DWORD PTR _pkey_bits$1$[esp+56], eax
	call	_X509_certificate_type
; Line 3543
	push	edi
	mov	esi, eax
	call	_EVP_PKEY_free
; Line 3546
	mov	eax, DWORD PTR _alg_a$1$[esp+60]
	add	esp, 20					; 00000014H
	test	al, 1
	je	SHORT $LN12@ssl3_check
	mov	ecx, esi
	and	ecx, 17					; 00000011H
	cmp	cl, 17					; 00000011H
	je	SHORT $LN12@ssl3_check
; Line 3547
	push	3548					; 00000ddcH
	push	OFFSET ??_C@_0BA@NMKJILMC@?4?2ssl?2s3_clnt?4c?$AA@
	push	170					; 000000aaH
; Line 3549
	jmp	$LN49@ssl3_check
$LN12@ssl3_check:
; Line 3552
	test	al, 2
	je	SHORT $LN14@ssl3_check
	mov	eax, esi
	and	eax, 18					; 00000012H
	cmp	al, 18					; 00000012H
	je	SHORT $LN14@ssl3_check
; Line 3553
	push	3554					; 00000de2H
	push	OFFSET ??_C@_0BA@NMKJILMC@?4?2ssl?2s3_clnt?4c?$AA@
	push	165					; 000000a5H
; Line 3555
	jmp	$LN49@ssl3_check
$LN14@ssl3_check:
; Line 3559
	mov	ecx, DWORD PTR _alg_k$1$[esp+36]
	mov	edi, 1024				; 00000400H
	mov	eax, ecx
	and	eax, 1
	mov	DWORD PTR tv521[esp+40], eax
	je	$LN21@ssl3_check
; Line 3560
	mov	eax, DWORD PTR [ebx+88]
	mov	eax, DWORD PTR [eax+836]
	mov	eax, DWORD PTR [eax+32]
	mov	edx, eax
	mov	DWORD PTR tv520[esp+40], eax
	and	edx, 2
	jne	SHORT $LN16@ssl3_check
	mov	eax, esi
	and	eax, 33					; 00000021H
	cmp	al, 33					; 00000021H
	je	SHORT $LN46@ssl3_check
; Line 3562
	push	3563					; 00000debH
	push	OFFSET ??_C@_0BA@NMKJILMC@?4?2ssl?2s3_clnt?4c?$AA@
	push	169					; 000000a9H
; Line 3564
	jmp	$LN49@ssl3_check
$LN46@ssl3_check:
	mov	eax, DWORD PTR tv520[esp+40]
$LN16@ssl3_check:
; Line 3565
	test	edx, edx
	je	SHORT $LN21@ssl3_check
; Line 3566
	test	al, 8
	mov	edx, 512				; 00000200H
	mov	eax, edi
	cmovne	eax, edx
	cmp	DWORD PTR _pkey_bits$1$[esp+40], eax
	jg	SHORT $LN21@ssl3_check
; Line 3567
	mov	eax, esi
	and	eax, 33					; 00000021H
	cmp	al, 33					; 00000021H
	je	SHORT $LN20@ssl3_check
; Line 3568
	push	3569					; 00000df1H
	push	OFFSET ??_C@_0BA@NMKJILMC@?4?2ssl?2s3_clnt?4c?$AA@
	push	169					; 000000a9H
; Line 3570
	jmp	$LN49@ssl3_check
$LN20@ssl3_check:
; Line 3572
	cmp	DWORD PTR _rsa$1$[esp+40], 0
	je	SHORT $LN21@ssl3_check
; Line 3575
	push	3575					; 00000df7H
	push	OFFSET ??_C@_0BA@NMKJILMC@?4?2ssl?2s3_clnt?4c?$AA@
	mov	ebp, 80					; 00000050H
	push	68					; 00000044H
; Line 3576
	jmp	$LN49@ssl3_check
$LN21@ssl3_check:
; Line 3583
	mov	edx, ecx
	and	edx, 8
	mov	DWORD PTR tv516[esp+40], edx
	je	SHORT $LN22@ssl3_check
	cmp	DWORD PTR _dh$1$[esp+40], 0
	jne	SHORT $LN22@ssl3_check
; Line 3585
	push	3585					; 00000e01H
	push	OFFSET ??_C@_0BA@NMKJILMC@?4?2ssl?2s3_clnt?4c?$AA@
	mov	ebp, 80					; 00000050H
	push	68					; 00000044H
; Line 3586
	jmp	$LN49@ssl3_check
$LN22@ssl3_check:
; Line 3588
	test	cl, 2
	je	SHORT $LN23@ssl3_check
	mov	eax, DWORD PTR [ebx+8]
	mov	eax, DWORD PTR [eax+100]
	test	BYTE PTR [eax+56], 2
	jne	SHORT $LN23@ssl3_check
	mov	eax, esi
	and	eax, 260				; 00000104H
	cmp	eax, 260				; 00000104H
	je	SHORT $LN23@ssl3_check
; Line 3590
	push	3591					; 00000e07H
	push	OFFSET ??_C@_0BA@NMKJILMC@?4?2ssl?2s3_clnt?4c?$AA@
	push	164					; 000000a4H
; Line 3592
	jmp	$LN49@ssl3_check
$LN23@ssl3_check:
; Line 3595
	test	cl, 4
	je	SHORT $LN24@ssl3_check
	mov	eax, DWORD PTR [ebx+8]
	mov	eax, DWORD PTR [eax+100]
	test	BYTE PTR [eax+56], 2
	jne	SHORT $LN24@ssl3_check
	and	esi, 516				; 00000204H
	cmp	esi, 516				; 00000204H
	je	SHORT $LN24@ssl3_check
; Line 3597
	push	3598					; 00000e0eH
	push	OFFSET ??_C@_0BA@NMKJILMC@?4?2ssl?2s3_clnt?4c?$AA@
	push	162					; 000000a2H
; Line 3599
	jmp	$LN49@ssl3_check
$LN24@ssl3_check:
; Line 3603
	test	cl, 14					; 0000000eH
	je	$LN29@ssl3_check
; Line 3605
	test	edx, edx
	je	SHORT $LN26@ssl3_check
; Line 3606
	mov	eax, DWORD PTR _dh$1$[esp+40]
	push	DWORD PTR [eax+8]
	call	_BN_num_bits
	add	esp, 4
	mov	esi, eax
; Line 3607
	jmp	SHORT $LN27@ssl3_check
$LN26@ssl3_check:
; Line 3608
	push	DWORD PTR _sc$1$[esp+40]
	call	_get_server_static_dh_key
	add	esp, 4
	mov	DWORD PTR _dh_srvr$1$[esp+40], eax
; Line 3609
	test	eax, eax
	je	$f_err$51
; Line 3611
	push	DWORD PTR [eax+8]
	call	_BN_num_bits
; Line 3612
	push	DWORD PTR _dh_srvr$1$[esp+44]
	mov	esi, eax
	call	_DH_free
	add	esp, 8
$LN27@ssl3_check:
; Line 3616
	mov	eax, DWORD PTR [ebx+88]
	mov	eax, DWORD PTR [eax+836]
	mov	eax, DWORD PTR [eax+32]
	and	eax, 2
	jne	SHORT $LN31@ssl3_check
	cmp	esi, edi
	jl	SHORT $LN30@ssl3_check
$LN31@ssl3_check:
	test	eax, eax
	je	SHORT $LN45@ssl3_check
	cmp	esi, 512				; 00000200H
	jge	SHORT $LN45@ssl3_check
$LN30@ssl3_check:
; Line 3617
	push	3617					; 00000e21H
	push	OFFSET ??_C@_0BA@NMKJILMC@?4?2ssl?2s3_clnt?4c?$AA@
	push	372					; 00000174H
; Line 3618
	jmp	$LN49@ssl3_check
$LN45@ssl3_check:
	mov	edx, DWORD PTR tv516[esp+40]
	mov	ecx, DWORD PTR _alg_k$1$[esp+36]
$LN29@ssl3_check:
; Line 3623
	mov	eax, DWORD PTR [ebx+88]
	mov	eax, DWORD PTR [eax+836]
	mov	eax, DWORD PTR [eax+32]
	test	al, 2
	je	$LN42@ssl3_check
	test	al, 8
	mov	esi, 512				; 00000200H
	mov	eax, edi
	cmovne	eax, esi
	cmp	DWORD PTR _pkey_bits$1$[esp+40], eax
	jle	$LN42@ssl3_check
; Line 3626
	cmp	DWORD PTR tv521[esp+40], 0
	je	SHORT $LN33@ssl3_check
; Line 3627
	mov	eax, DWORD PTR _rsa$1$[esp+40]
	test	eax, eax
	jne	SHORT $LN35@ssl3_check
; Line 3628
	push	3629					; 00000e2dH
	push	OFFSET ??_C@_0BA@NMKJILMC@?4?2ssl?2s3_clnt?4c?$AA@
	push	167					; 000000a7H
; Line 3630
	jmp	$LN49@ssl3_check
$LN35@ssl3_check:
; Line 3631
	push	DWORD PTR [eax+16]
	call	_BN_num_bits
	mov	ecx, DWORD PTR [ebx+88]
	add	esp, 4
	mov	ecx, DWORD PTR [ecx+836]
	test	BYTE PTR [ecx+32], 8
	cmovne	edi, esi
	cmp	eax, edi
	jle	$LN42@ssl3_check
; Line 3635
	push	3636					; 00000e34H
	push	OFFSET ??_C@_0BA@NMKJILMC@?4?2ssl?2s3_clnt?4c?$AA@
	mov	ebp, 60					; 0000003cH
	push	167					; 000000a7H
; Line 3637
	jmp	SHORT $LN49@ssl3_check
$LN33@ssl3_check:
; Line 3642
	test	edx, edx
	je	SHORT $LN38@ssl3_check
; Line 3643
	mov	eax, DWORD PTR _dh$1$[esp+40]
	push	DWORD PTR [eax+8]
	call	_BN_num_bits
	mov	ecx, DWORD PTR [ebx+88]
	add	esp, 4
	mov	ecx, DWORD PTR [ecx+836]
	test	BYTE PTR [ecx+32], 8
	cmovne	edi, esi
	cmp	eax, edi
	jle	SHORT $LN42@ssl3_check
; Line 3647
	push	3648					; 00000e40H
	push	OFFSET ??_C@_0BA@NMKJILMC@?4?2ssl?2s3_clnt?4c?$AA@
	mov	ebp, 60					; 0000003cH
	push	166					; 000000a6H
; Line 3649
	jmp	SHORT $LN49@ssl3_check
$LN38@ssl3_check:
; Line 3651
	test	cl, 6
	je	SHORT $LN41@ssl3_check
; Line 3654
	push	3655					; 00000e47H
	push	OFFSET ??_C@_0BA@NMKJILMC@?4?2ssl?2s3_clnt?4c?$AA@
	mov	ebp, 60					; 0000003cH
	push	166					; 000000a6H
; Line 3656
	jmp	SHORT $LN49@ssl3_check
$LN41@ssl3_check:
; Line 3660
	push	3661					; 00000e4dH
	push	OFFSET ??_C@_0BA@NMKJILMC@?4?2ssl?2s3_clnt?4c?$AA@
	push	250					; 000000faH
$LN49@ssl3_check:
	push	130					; 00000082H
	push	20					; 00000014H
	call	_ERR_put_error
	add	esp, 20					; 00000014H
$f_err$51:
; Line 3667
	push	ebp
	push	2
	push	ebx
	call	_ssl3_send_alert
	add	esp, 12					; 0000000cH
$err$52:
; Line 3669
	pop	edi
	pop	esi
	pop	ebp
	xor	eax, eax
	pop	ebx
; Line 3670
	add	esp, 24					; 00000018H
	ret	0
$LN42@ssl3_check:
	pop	edi
	pop	esi
	pop	ebp
; Line 3665
	mov	eax, 1
	pop	ebx
; Line 3670
	add	esp, 24					; 00000018H
	ret	0
$LN3@ssl3_check:
	pop	ebp
; Line 3505
	mov	eax, 1
	pop	ebx
; Line 3670
	add	esp, 24					; 00000018H
	ret	0
_ssl3_check_cert_and_algorithm ENDP
_TEXT	ENDS
; Function compile flags: /Ogtpy
;	COMDAT _ssl3_get_server_certificate
_TEXT	SEGMENT
_sk$1$ = -24						; size = 4
_llen$1$ = -20						; size = 4
_need_cert$1$ = -20					; size = 4
_pkey$1$ = -16						; size = 4
_ret$1$ = -12						; size = 4
_ok$ = -8						; size = 4
_nc$1$ = -4						; size = 4
_q$ = 8							; size = 4
_s$ = 8							; size = 4
_ssl3_get_server_certificate PROC			; COMDAT
; File c:\workpace\openssl\openssl-1.0.2h\ssl\s3_clnt.c
; Line 1173
	mov	eax, 24					; 00000018H
	call	__chkstk
	push	ebx
	push	ebp
; Line 1185
	mov	ebp, DWORD PTR _s$[esp+28]
	lea	ecx, DWORD PTR _ok$[esp+32]
	push	esi
	push	edi
	push	ecx
	push	DWORD PTR [ebp+264]
	mov	eax, DWORD PTR [ebp+8]
	xor	ebx, ebx
	push	-1
	push	4401					; 00001131H
	push	4400					; 00001130H
	mov	eax, DWORD PTR [eax+48]
	xor	edi, edi
	push	ebp
	mov	DWORD PTR _ret$1$[esp+64], -1
	mov	DWORD PTR _sk$1$[esp+64], ebx
	mov	DWORD PTR _pkey$1$[esp+64], edi
	call	eax
	add	esp, 24					; 00000018H
	mov	esi, eax
; Line 1190
	cmp	DWORD PTR _ok$[esp+40], ebx
	je	$LN1@ssl3_get_s
; Line 1193
	mov	ecx, DWORD PTR [ebp+88]
	mov	edx, DWORD PTR [ecx+832]
	cmp	edx, 12					; 0000000cH
	je	$LN7@ssl3_get_s
	mov	eax, DWORD PTR [ecx+836]
	test	BYTE PTR [eax+16], 32			; 00000020H
	je	SHORT $LN6@ssl3_get_s
	cmp	edx, 14					; 0000000eH
	je	$LN7@ssl3_get_s
$LN6@ssl3_get_s:
; Line 1200
	cmp	edx, 11					; 0000000bH
	je	SHORT $LN8@ssl3_get_s
; Line 1202
	push	1202					; 000004b2H
	push	OFFSET ??_C@_0BA@NMKJILMC@?4?2ssl?2s3_clnt?4c?$AA@
	mov	esi, 10					; 0000000aH
	push	114					; 00000072H
; Line 1203
	jmp	$LN40@ssl3_get_s
$LN8@ssl3_get_s:
; Line 1205
	mov	edi, DWORD PTR [ebp+64]
; Line 1207
	call	_sk_new_null
	mov	DWORD PTR _sk$1$[esp+40], eax
	test	eax, eax
	jne	SHORT $LN9@ssl3_get_s
; Line 1208
	push	1208					; 000004b8H
$LN43@ssl3_get_s:
	push	OFFSET ??_C@_0BA@NMKJILMC@?4?2ssl?2s3_clnt?4c?$AA@
	push	65					; 00000041H
	push	144					; 00000090H
	push	20					; 00000014H
	call	_ERR_put_error
	add	esp, 20					; 00000014H
; Line 1209
	jmp	$err$45
$LN9@ssl3_get_s:
; Line 1212
	movzx	ecx, BYTE PTR [edi]
	movzx	eax, BYTE PTR [edi+1]
	shl	ecx, 8
	or	ecx, eax
	movzx	eax, BYTE PTR [edi+2]
	shl	ecx, 8
	add	edi, 3
	or	ecx, eax
	mov	DWORD PTR _llen$1$[esp+40], ecx
; Line 1213
	lea	eax, DWORD PTR [ecx+3]
	cmp	eax, esi
	je	SHORT $LN10@ssl3_get_s
; Line 1215
	push	1215					; 000004bfH
	push	OFFSET ??_C@_0BA@NMKJILMC@?4?2ssl?2s3_clnt?4c?$AA@
	mov	esi, 50					; 00000032H
	push	159					; 0000009fH
; Line 1216
	jmp	$LN40@ssl3_get_s
$LN10@ssl3_get_s:
; Line 1218
	xor	edx, edx
	test	ecx, ecx
	je	SHORT $LN3@ssl3_get_s
	npad	7
$LL2@ssl3_get_s:
; Line 1219
	movzx	esi, BYTE PTR [edi]
; Line 1220
	add	edx, 3
	movzx	eax, BYTE PTR [edi+1]
	shl	esi, 8
	or	esi, eax
	movzx	eax, BYTE PTR [edi+2]
	shl	esi, 8
	add	edi, 3
	or	esi, eax
	add	edx, esi
	mov	DWORD PTR _nc$1$[esp+40], edx
	cmp	edx, ecx
	ja	$LN32@ssl3_get_s
; Line 1228
	push	esi
	lea	eax, DWORD PTR _q$[esp+40]
	mov	DWORD PTR _q$[esp+40], edi
	push	eax
	push	0
	call	_d2i_X509
	mov	ebx, eax
	add	esp, 12					; 0000000cH
; Line 1229
	test	ebx, ebx
	je	$LN33@ssl3_get_s
; Line 1234
	lea	eax, DWORD PTR [esi+edi]
	cmp	DWORD PTR _q$[esp+36], eax
	jne	$LN34@ssl3_get_s
; Line 1240
	mov	edi, DWORD PTR _sk$1$[esp+40]
	push	ebx
	push	edi
	call	_sk_push
	add	esp, 8
	test	eax, eax
	je	SHORT $LN35@ssl3_get_s
; Line 1244
	mov	ecx, DWORD PTR _llen$1$[esp+40]
	xor	ebx, ebx
	mov	edx, DWORD PTR _nc$1$[esp+40]
; Line 1246
	mov	edi, DWORD PTR _q$[esp+36]
	cmp	edx, ecx
	jb	SHORT $LL2@ssl3_get_s
$LN3@ssl3_get_s:
; Line 1249
	mov	edi, DWORD PTR _sk$1$[esp+40]
	push	edi
	push	ebp
	call	_ssl_verify_cert_chain
	add	esp, 8
; Line 1250
	cmp	DWORD PTR [ebp+200], 0
	je	$LN15@ssl3_get_s
	test	eax, eax
	jg	$LN15@ssl3_get_s
; Line 1256
	push	DWORD PTR [ebp+236]
	call	_ssl_verify_alarm_type
; Line 1257
	push	1258					; 000004eaH
	push	OFFSET ??_C@_0BA@NMKJILMC@?4?2ssl?2s3_clnt?4c?$AA@
	push	134					; 00000086H
	push	144					; 00000090H
	push	20					; 00000014H
	mov	esi, eax
	call	_ERR_put_error
	add	esp, 24					; 00000018H
; Line 1259
	jmp	$f_err$46
$LN35@ssl3_get_s:
; Line 1241
	push	1241					; 000004d9H
; Line 1242
	jmp	$LN43@ssl3_get_s
$LN34@ssl3_get_s:
; Line 1236
	push	1237					; 000004d5H
	push	OFFSET ??_C@_0BA@NMKJILMC@?4?2ssl?2s3_clnt?4c?$AA@
	mov	esi, 50					; 00000032H
	push	135					; 00000087H
; Line 1238
	jmp	$LN40@ssl3_get_s
$LN33@ssl3_get_s:
; Line 1231
	push	1231					; 000004cfH
	push	OFFSET ??_C@_0BA@NMKJILMC@?4?2ssl?2s3_clnt?4c?$AA@
	mov	esi, 42					; 0000002aH
	push	13					; 0000000dH
; Line 1232
	jmp	$LN40@ssl3_get_s
$LN32@ssl3_get_s:
; Line 1222
	push	1223					; 000004c7H
	push	OFFSET ??_C@_0BA@NMKJILMC@?4?2ssl?2s3_clnt?4c?$AA@
	mov	esi, 50					; 00000032H
	push	135					; 00000087H
; Line 1224
	jmp	$LN40@ssl3_get_s
$LN15@ssl3_get_s:
; Line 1261
	call	_ERR_clear_error
; Line 1263
	call	_ssl_sess_cert_new
	mov	esi, eax
; Line 1264
	test	esi, esi
	je	$err$45
; Line 1267
	mov	eax, DWORD PTR [ebp+192]
	mov	eax, DWORD PTR [eax+152]
	test	eax, eax
	je	SHORT $LN17@ssl3_get_s
; Line 1268
	push	eax
	call	_ssl_sess_cert_free
	add	esp, 4
$LN17@ssl3_get_s:
; Line 1269
	mov	eax, DWORD PTR [ebp+192]
; Line 1276
	push	0
	push	edi
	mov	DWORD PTR [eax+152], esi
	mov	DWORD PTR [esi], edi
	call	_sk_value
	mov	ebx, eax
; Line 1277
	mov	DWORD PTR _sk$1$[esp+48], 0
; Line 1282
	push	ebx
	call	_X509_get_pubkey
	mov	edi, eax
	add	esp, 12					; 0000000cH
; Line 1285
	mov	eax, DWORD PTR [ebp+88]
	mov	DWORD PTR _pkey$1$[esp+40], edi
	mov	ecx, DWORD PTR [eax+836]
	test	BYTE PTR [ecx+12], 16			; 00000010H
	je	SHORT $LN29@ssl3_get_s
	test	BYTE PTR [ecx+16], 32			; 00000020H
	je	SHORT $LN29@ssl3_get_s
	mov	DWORD PTR _need_cert$1$[esp+40], 0
	jmp	SHORT $LN18@ssl3_get_s
$LN29@ssl3_get_s:
	mov	DWORD PTR _need_cert$1$[esp+40], 1
; Line 1298
	test	edi, edi
	je	$LN19@ssl3_get_s
	push	edi
	call	_EVP_PKEY_missing_parameters
	add	esp, 4
	test	eax, eax
	jne	$LN19@ssl3_get_s
$LN18@ssl3_get_s:
; Line 1306
	push	edi
	push	ebx
	call	_ssl_cert_type
	add	esp, 8
	mov	edi, eax
; Line 1307
	cmp	DWORD PTR _need_cert$1$[esp+40], 0
	je	$LN21@ssl3_get_s
	test	edi, edi
	jns	SHORT $LN20@ssl3_get_s
; Line 1310
	push	1311					; 0000051fH
	push	OFFSET ??_C@_0BA@NMKJILMC@?4?2ssl?2s3_clnt?4c?$AA@
	push	247					; 000000f7H
; Line 1312
	jmp	$LN41@ssl3_get_s
$LN20@ssl3_get_s:
; Line 1316
	mov	eax, DWORD PTR [ebp+88]
	push	DWORD PTR [eax+836]
	call	_ssl_cipher_get_cert_index
	add	esp, 4
; Line 1317
	test	eax, eax
	js	SHORT $LN23@ssl3_get_s
	cmp	edi, eax
	je	SHORT $LN23@ssl3_get_s
; Line 1320
	push	1321					; 00000529H
	push	OFFSET ??_C@_0BA@NMKJILMC@?4?2ssl?2s3_clnt?4c?$AA@
	mov	esi, 47					; 0000002fH
	push	383					; 0000017fH
	jmp	$LN42@ssl3_get_s
$LN23@ssl3_get_s:
; Line 1325
	push	1325					; 0000052dH
	push	OFFSET ??_C@_0BA@NMKJILMC@?4?2ssl?2s3_clnt?4c?$AA@
	push	3
	lea	eax, DWORD PTR [ebx+16]
	mov	DWORD PTR [esi+4], edi
	push	1
	push	eax
	call	_CRYPTO_add_lock
; Line 1330
	lea	eax, DWORD PTR [edi*8]
	add	esp, 20					; 00000014H
	sub	eax, edi
	add	eax, 3
	lea	edi, DWORD PTR [esi+eax*4]
	mov	eax, DWORD PTR [edi]
	test	eax, eax
	je	SHORT $LN24@ssl3_get_s
; Line 1331
	push	eax
	call	_X509_free
	add	esp, 4
$LN24@ssl3_get_s:
; Line 1332
	mov	DWORD PTR [edi], ebx
; Line 1333
	mov	DWORD PTR [esi+8], edi
; Line 1335
	mov	eax, DWORD PTR [ebp+192]
	mov	eax, DWORD PTR [eax+156]
	test	eax, eax
	je	SHORT $LN25@ssl3_get_s
; Line 1336
	push	eax
	call	_X509_free
	add	esp, 4
$LN25@ssl3_get_s:
; Line 1337
	push	1337					; 00000539H
	push	OFFSET ??_C@_0BA@NMKJILMC@?4?2ssl?2s3_clnt?4c?$AA@
	push	3
	lea	eax, DWORD PTR [ebx+16]
	push	1
	push	eax
	call	_CRYPTO_add_lock
; Line 1338
	mov	eax, DWORD PTR [ebp+192]
	add	esp, 20					; 00000014H
	mov	DWORD PTR [eax+156], ebx
; Line 1339
	jmp	SHORT $LN22@ssl3_get_s
$LN21@ssl3_get_s:
; Line 1340
	mov	DWORD PTR [esi+4], edi
; Line 1341
	mov	DWORD PTR [esi+8], 0
; Line 1343
	mov	eax, DWORD PTR [ebp+192]
	mov	eax, DWORD PTR [eax+156]
	test	eax, eax
	je	SHORT $LN26@ssl3_get_s
; Line 1344
	push	eax
	call	_X509_free
	add	esp, 4
$LN26@ssl3_get_s:
; Line 1345
	mov	eax, DWORD PTR [ebp+192]
	mov	DWORD PTR [eax+156], 0
$LN22@ssl3_get_s:
; Line 1347
	mov	ecx, DWORD PTR [ebp+192]
; Line 1349
	xor	ebx, ebx
	mov	eax, DWORD PTR [ebp+236]
; Line 1350
	mov	DWORD PTR _ret$1$[esp+40], 1
	mov	DWORD PTR [ecx+160], eax
	jmp	SHORT $LN27@ssl3_get_s
$LN19@ssl3_get_s:
; Line 1301
	push	1302					; 00000516H
	push	OFFSET ??_C@_0BA@NMKJILMC@?4?2ssl?2s3_clnt?4c?$AA@
	push	239					; 000000efH
$LN41@ssl3_get_s:
; Line 1300
	mov	esi, 2
$LN42@ssl3_get_s:
; Line 1299
	xor	ebx, ebx
$LN40@ssl3_get_s:
; Line 1301
	push	144					; 00000090H
	push	20					; 00000014H
	call	_ERR_put_error
	add	esp, 20					; 00000014H
$f_err$46:
; Line 1353
	push	esi
	push	2
	push	ebp
	call	_ssl3_send_alert
	add	esp, 12					; 0000000cH
$err$45:
; Line 1355
	mov	DWORD PTR [ebp+52], 5
$LN27@ssl3_get_s:
; Line 1358
	push	DWORD PTR _pkey$1$[esp+40]
	call	_EVP_PKEY_free
; Line 1359
	push	ebx
	call	_X509_free
; Line 1360
	push	OFFSET _X509_free
	push	DWORD PTR _sk$1$[esp+52]
	call	_sk_pop_free
; Line 1361
	mov	eax, DWORD PTR _ret$1$[esp+56]
	add	esp, 16					; 00000010H
	pop	edi
	pop	esi
	pop	ebp
	pop	ebx
; Line 1362
	add	esp, 24					; 00000018H
	ret	0
$LN7@ssl3_get_s:
; Line 1196
	mov	DWORD PTR [ecx+852], 1
; Line 1197
	mov	eax, 1
$LN1@ssl3_get_s:
	pop	edi
	pop	esi
	pop	ebp
	pop	ebx
; Line 1362
	add	esp, 24					; 00000018H
	ret	0
_ssl3_get_server_certificate ENDP
_TEXT	ENDS
; Function compile flags: /Ogtpy
;	COMDAT _ssl3_get_key_exchange
_TEXT	SEGMENT
_j$2$ = -212						; size = 4
_group$1$ = -212					; size = 4
_i$10$ = -212						; size = 4
_i$9$ = -212						; size = 4
_i$8$ = -212						; size = 4
_i$7$ = -212						; size = 4
_i$6$ = -212						; size = 4
_i$5$ = -212						; size = 4
_i$4$ = -212						; size = 4
_i$3$ = -212						; size = 4
_i$2$ = -212						; size = 4
_alg_k$1$ = -212					; size = 4
_al$ = -208						; size = 4
_pkey$1$ = -204						; size = 4
_q$1$ = -200						; size = 4
_alg_a$1$ = -200					; size = 4
_srvr_ecpoint$1$ = -196					; size = 4
_dh$1$ = -192						; size = 4
_ecdh$1$ = -188						; size = 4
_param_len$2$ = -184					; size = 4
_size$1 = -184						; size = 4
_num$1$ = -180						; size = 4
tv1513 = -180						; size = 4
_rsa$1$ = -176						; size = 4
_bn_ctx$1$ = -172					; size = 4
_md$ = -168						; size = 4
_param$1$ = -164					; size = 4
_md_ctx$ = -160						; size = 24
_ok$ = -136						; size = 4
_md_buf$ = -132						; size = 128
__$ArrayPad$ = -4					; size = 4
_s$ = 8							; size = 4
_ssl3_get_key_exchange PROC				; COMDAT
; File c:\workpace\openssl\openssl-1.0.2h\ssl\s3_clnt.c
; Line 1365
	mov	eax, 212				; 000000d4H
	call	__chkstk
	mov	eax, DWORD PTR ___security_cookie
	xor	eax, esp
	mov	DWORD PTR __$ArrayPad$[esp+212], eax
	push	ebx
	mov	ebx, DWORD PTR _s$[esp+212]
; Line 1389
	lea	eax, DWORD PTR _md_ctx$[esp+216]
	push	ebp
	push	eax
	mov	DWORD PTR _pkey$1$[esp+224], 0
	mov	DWORD PTR _md$[esp+224], 0
	mov	DWORD PTR _rsa$1$[esp+224], 0
	mov	DWORD PTR _dh$1$[esp+224], 0
	mov	DWORD PTR _ecdh$1$[esp+224], 0
	mov	DWORD PTR _bn_ctx$1$[esp+224], 0
	mov	DWORD PTR _srvr_ecpoint$1$[esp+224], 0
	call	_EVP_MD_CTX_init
; Line 1395
	mov	eax, DWORD PTR [ebx+8]
	lea	ecx, DWORD PTR _ok$[esp+224]
	push	ecx
	push	DWORD PTR [ebx+264]
	mov	eax, DWORD PTR [eax+48]
	push	-1
	push	4417					; 00001141H
	push	4416					; 00001140H
	push	ebx
	call	eax
	add	esp, 28					; 0000001cH
	mov	ebp, eax
; Line 1399
	cmp	DWORD PTR _ok$[esp+220], 0
	je	$LN1@ssl3_get_k
; Line 1402
	mov	ecx, DWORD PTR [ebx+88]
	push	esi
	push	edi
; Line 1404
	cmp	DWORD PTR [ecx+832], 12			; 0000000cH
	mov	eax, DWORD PTR [ecx+836]
	mov	eax, DWORD PTR [eax+12]
	mov	DWORD PTR _alg_k$1$[esp+228], eax
	je	$LN6@ssl3_get_k
; Line 1409
	test	al, -120				; ffffff88H
	je	SHORT $LN7@ssl3_get_k
; Line 1410
	push	1410					; 00000582H
	push	OFFSET ??_C@_0BA@NMKJILMC@?4?2ssl?2s3_clnt?4c?$AA@
	push	244					; 000000f4H
	push	141					; 0000008dH
	push	20					; 00000014H
	call	_ERR_put_error
; Line 1411
	mov	DWORD PTR _al$[esp+248], 10		; 0000000aH
; Line 1412
	jmp	$LN136@ssl3_get_k
$LN7@ssl3_get_k:
; Line 1420
	test	eax, 256				; 00000100H
	je	SHORT $LN8@ssl3_get_k
; Line 1421
	call	_ssl_sess_cert_new
	mov	ecx, DWORD PTR [ebx+192]
	mov	DWORD PTR [ecx+152], eax
; Line 1422
	mov	eax, DWORD PTR [ebx+228]
	mov	eax, DWORD PTR [eax+332]
	test	eax, eax
	je	SHORT $LN9@ssl3_get_k
; Line 1423
	push	eax
	call	_CRYPTO_free
	add	esp, 4
$LN9@ssl3_get_k:
; Line 1424
	mov	eax, DWORD PTR [ebx+228]
	mov	DWORD PTR [eax+332], 0
$LN8@ssl3_get_k:
; Line 1427
	mov	eax, DWORD PTR [ebx+88]
	mov	DWORD PTR [eax+852], 1
; Line 1428
	mov	eax, 1
	jmp	$LN134@ssl3_get_k
$LN6@ssl3_get_k:
; Line 1432
	mov	eax, DWORD PTR [ebx+192]
	mov	edi, DWORD PTR [ebx+64]
	mov	DWORD PTR _param$1$[esp+228], edi
	mov	eax, DWORD PTR [eax+152]
	test	eax, eax
	je	$LN10@ssl3_get_k
; Line 1434
	mov	eax, DWORD PTR [eax+236]
	test	eax, eax
	je	SHORT $LN12@ssl3_get_k
; Line 1435
	push	eax
	call	_RSA_free
; Line 1436
	mov	eax, DWORD PTR [ebx+192]
	add	esp, 4
	mov	eax, DWORD PTR [eax+152]
	mov	DWORD PTR [eax+236], 0
$LN12@ssl3_get_k:
; Line 1440
	mov	eax, DWORD PTR [ebx+192]
	mov	eax, DWORD PTR [eax+152]
	mov	eax, DWORD PTR [eax+240]
	test	eax, eax
	je	SHORT $LN13@ssl3_get_k
; Line 1441
	push	eax
	call	_DH_free
; Line 1442
	mov	eax, DWORD PTR [ebx+192]
	add	esp, 4
	mov	eax, DWORD PTR [eax+152]
	mov	DWORD PTR [eax+240], 0
$LN13@ssl3_get_k:
; Line 1446
	mov	eax, DWORD PTR [ebx+192]
	mov	eax, DWORD PTR [eax+152]
	mov	eax, DWORD PTR [eax+244]
	test	eax, eax
	je	SHORT $LN11@ssl3_get_k
; Line 1447
	push	eax
	call	_EC_KEY_free
; Line 1448
	mov	eax, DWORD PTR [ebx+192]
	add	esp, 4
	mov	eax, DWORD PTR [eax+152]
	mov	DWORD PTR [eax+244], 0
; Line 1451
	jmp	SHORT $LN11@ssl3_get_k
$LN10@ssl3_get_k:
; Line 1452
	call	_ssl_sess_cert_new
	mov	ecx, DWORD PTR [ebx+192]
	mov	DWORD PTR [ecx+152], eax
$LN11@ssl3_get_k:
; Line 1458
	mov	ecx, DWORD PTR [ebx+88]
	mov	eax, DWORD PTR [ecx+836]
	mov	eax, DWORD PTR [eax+16]
	mov	DWORD PTR _alg_a$1$[esp+228], eax
; Line 1463
	mov	eax, DWORD PTR _alg_k$1$[esp+228]
	mov	edx, eax
	and	edx, 256				; 00000100H
	mov	DWORD PTR _al$[esp+228], 50		; 00000032H
	mov	DWORD PTR tv1513[esp+228], edx
	je	$LN15@ssl3_get_k
; Line 1465
	cmp	ebp, 2
	jge	SHORT $LN17@ssl3_get_k
; Line 1466
	push	1466					; 000005baH
	push	OFFSET ??_C@_0BA@NMKJILMC@?4?2ssl?2s3_clnt?4c?$AA@
	push	160					; 000000a0H
; Line 1467
	jmp	$LN137@ssl3_get_k
$LN17@ssl3_get_k:
; Line 1469
	movzx	ecx, BYTE PTR [edi]
	movzx	eax, BYTE PTR [edi+1]
	add	edi, 2
	shl	ecx, 8
	or	ecx, eax
; Line 1477
	cmp	ecx, 128				; 00000080H
	jle	SHORT $LN18@ssl3_get_k
; Line 1479
	push	1479					; 000005c7H
	push	OFFSET ??_C@_0BA@NMKJILMC@?4?2ssl?2s3_clnt?4c?$AA@
	mov	DWORD PTR _al$[esp+236], 40		; 00000028H
	push	146					; 00000092H
; Line 1480
	jmp	$LN137@ssl3_get_k
$LN18@ssl3_get_k:
; Line 1482
	lea	eax, DWORD PTR [ebp-2]
	cmp	ecx, eax
	jle	SHORT $LN19@ssl3_get_k
; Line 1483
	push	1484					; 000005ccH
	push	OFFSET ??_C@_0BA@NMKJILMC@?4?2ssl?2s3_clnt?4c?$AA@
	push	316					; 0000013cH
; Line 1485
	jmp	$LN137@ssl3_get_k
$LN19@ssl3_get_k:
; Line 1489
	push	ecx
	push	edi
	lea	esi, DWORD PTR [ecx+2]
	call	_BUF_strndup
	mov	ecx, DWORD PTR [ebx+192]
	add	esp, 8
	mov	DWORD PTR [ecx+140], eax
; Line 1490
	mov	eax, DWORD PTR [ebx+192]
	cmp	DWORD PTR [eax+140], 0
	jne	SHORT $LN20@ssl3_get_k
; Line 1492
	push	1492					; 000005d4H
	push	OFFSET ??_C@_0BA@NMKJILMC@?4?2ssl?2s3_clnt?4c?$AA@
	mov	DWORD PTR _al$[esp+236], 40		; 00000028H
	push	65					; 00000041H
; Line 1493
	jmp	$LN137@ssl3_get_k
$LN20@ssl3_get_k:
; Line 1497
	sub	ebp, esi
$LN128@ssl3_get_k:
	mov	eax, DWORD PTR _alg_a$1$[esp+228]
$LN129@ssl3_get_k:
	mov	edx, DWORD PTR tv1513[esp+228]
$LN92@ssl3_get_k:
; Line 2010
	test	eax, 1028				; 00000404H
	jne	$LN112@ssl3_get_k
	test	edx, edx
	jne	$LN112@ssl3_get_k
; Line 2012
	push	ebx
	call	_ssl3_check_cert_and_algorithm
	add	esp, 4
	test	eax, eax
	je	$LN133@ssl3_get_k
; Line 2014
	push	2014					; 000007deH
	push	OFFSET ??_C@_0BA@NMKJILMC@?4?2ssl?2s3_clnt?4c?$AA@
	push	68					; 00000044H
	push	141					; 0000008dH
	push	20					; 00000014H
	call	_ERR_put_error
	add	esp, 20					; 00000014H
; Line 2015
	jmp	$LN133@ssl3_get_k
$LN15@ssl3_get_k:
; Line 1501
	test	eax, 1024				; 00000400H
	je	$LN21@ssl3_get_k
; Line 1503
	cmp	ebp, 2
	jge	SHORT $LN23@ssl3_get_k
; Line 1504
	push	1504					; 000005e0H
	push	OFFSET ??_C@_0BA@NMKJILMC@?4?2ssl?2s3_clnt?4c?$AA@
	push	160					; 000000a0H
; Line 1505
	jmp	$LN137@ssl3_get_k
$LN23@ssl3_get_k:
; Line 1507
	movzx	ecx, BYTE PTR [edi]
	movzx	eax, BYTE PTR [edi+1]
	add	edi, 2
	shl	ecx, 8
	or	ecx, eax
; Line 1509
	lea	eax, DWORD PTR [ebp-2]
	mov	DWORD PTR _i$2$[esp+228], ecx
	cmp	ecx, eax
	jle	SHORT $LN24@ssl3_get_k
; Line 1510
	push	1510					; 000005e6H
	push	OFFSET ??_C@_0BA@NMKJILMC@?4?2ssl?2s3_clnt?4c?$AA@
	push	350					; 0000015eH
; Line 1511
	jmp	$LN137@ssl3_get_k
$LN24@ssl3_get_k:
; Line 1515
	push	0
	push	ecx
	push	edi
	lea	esi, DWORD PTR [ecx+2]
	call	_BN_bin2bn
	add	esp, 12					; 0000000cH
	mov	DWORD PTR [ebx+424], eax
	test	eax, eax
	jne	SHORT $LN25@ssl3_get_k
; Line 1516
	push	1516					; 000005ecH
$LN140@ssl3_get_k:
	push	OFFSET ??_C@_0BA@NMKJILMC@?4?2ssl?2s3_clnt?4c?$AA@
	push	3
$LN141@ssl3_get_k:
	push	141					; 0000008dH
	push	20					; 00000014H
	call	_ERR_put_error
	add	esp, 20					; 00000014H
; Line 1517
	xor	esi, esi
	jmp	$err$143
$LN25@ssl3_get_k:
; Line 1519
	add	edi, DWORD PTR _i$2$[esp+228]
; Line 1521
	mov	eax, ebp
	sub	eax, esi
	cmp	eax, 2
	jge	SHORT $LN26@ssl3_get_k
; Line 1522
	push	1522					; 000005f2H
	push	OFFSET ??_C@_0BA@NMKJILMC@?4?2ssl?2s3_clnt?4c?$AA@
	push	160					; 000000a0H
; Line 1523
	jmp	$LN137@ssl3_get_k
$LN26@ssl3_get_k:
; Line 1527
	movzx	ecx, BYTE PTR [edi]
	add	esi, 2
	movzx	eax, BYTE PTR [edi+1]
	add	edi, 2
	shl	ecx, 8
	or	ecx, eax
; Line 1529
	mov	eax, ebp
	sub	eax, esi
	mov	DWORD PTR _i$3$[esp+228], ecx
	cmp	ecx, eax
	jle	SHORT $LN27@ssl3_get_k
; Line 1530
	push	1530					; 000005faH
	push	OFFSET ??_C@_0BA@NMKJILMC@?4?2ssl?2s3_clnt?4c?$AA@
	push	349					; 0000015dH
; Line 1531
	jmp	$LN137@ssl3_get_k
$LN27@ssl3_get_k:
; Line 1535
	push	0
	push	ecx
	push	edi
	add	esi, ecx
	call	_BN_bin2bn
	add	esp, 12					; 0000000cH
	mov	DWORD PTR [ebx+428], eax
	test	eax, eax
	jne	SHORT $LN28@ssl3_get_k
; Line 1536
	push	1536					; 00000600H
; Line 1537
	jmp	$LN140@ssl3_get_k
$LN28@ssl3_get_k:
; Line 1539
	add	edi, DWORD PTR _i$3$[esp+228]
; Line 1541
	mov	eax, ebp
	sub	eax, esi
	cmp	eax, 1
	jge	SHORT $LN29@ssl3_get_k
; Line 1542
	push	1542					; 00000606H
	push	OFFSET ??_C@_0BA@NMKJILMC@?4?2ssl?2s3_clnt?4c?$AA@
	push	160					; 000000a0H
; Line 1543
	jmp	$LN137@ssl3_get_k
$LN29@ssl3_get_k:
; Line 1547
	movzx	ecx, BYTE PTR [edi]
	inc	esi
; Line 1550
	mov	eax, ebp
	mov	DWORD PTR _i$4$[esp+228], ecx
	sub	eax, esi
	inc	edi
	cmp	ecx, eax
	jle	SHORT $LN30@ssl3_get_k
; Line 1551
	push	1551					; 0000060fH
	push	OFFSET ??_C@_0BA@NMKJILMC@?4?2ssl?2s3_clnt?4c?$AA@
	push	351					; 0000015fH
; Line 1552
	jmp	$LN137@ssl3_get_k
$LN30@ssl3_get_k:
; Line 1556
	push	0
	push	ecx
	push	edi
	add	esi, ecx
	call	_BN_bin2bn
	add	esp, 12					; 0000000cH
	mov	DWORD PTR [ebx+432], eax
	test	eax, eax
	jne	SHORT $LN31@ssl3_get_k
; Line 1557
	push	1557					; 00000615H
; Line 1558
	jmp	$LN140@ssl3_get_k
$LN31@ssl3_get_k:
; Line 1560
	add	edi, DWORD PTR _i$4$[esp+228]
; Line 1562
	mov	eax, ebp
	sub	eax, esi
	cmp	eax, 2
	jge	SHORT $LN32@ssl3_get_k
; Line 1563
	push	1563					; 0000061bH
	push	OFFSET ??_C@_0BA@NMKJILMC@?4?2ssl?2s3_clnt?4c?$AA@
	push	160					; 000000a0H
; Line 1564
	jmp	$LN137@ssl3_get_k
$LN32@ssl3_get_k:
; Line 1568
	movzx	ecx, BYTE PTR [edi]
	add	esi, 2
	movzx	eax, BYTE PTR [edi+1]
	add	edi, 2
	shl	ecx, 8
	or	ecx, eax
; Line 1570
	mov	eax, ebp
	sub	eax, esi
	mov	DWORD PTR _i$5$[esp+228], ecx
	cmp	ecx, eax
	jle	SHORT $LN33@ssl3_get_k
; Line 1571
	push	1571					; 00000623H
	push	OFFSET ??_C@_0BA@NMKJILMC@?4?2ssl?2s3_clnt?4c?$AA@
	push	348					; 0000015cH
; Line 1572
	jmp	$LN137@ssl3_get_k
$LN33@ssl3_get_k:
; Line 1576
	push	0
	push	ecx
	add	esi, ecx
	push	edi
	mov	DWORD PTR _param_len$2$[esp+240], esi
	call	_BN_bin2bn
	add	esp, 12					; 0000000cH
	mov	DWORD PTR [ebx+436], eax
	test	eax, eax
	jne	SHORT $LN34@ssl3_get_k
; Line 1577
	push	1577					; 00000629H
; Line 1578
	jmp	$LN140@ssl3_get_k
$LN34@ssl3_get_k:
; Line 1580
	add	edi, DWORD PTR _i$5$[esp+228]
; Line 1583
	lea	eax, DWORD PTR _al$[esp+228]
	push	eax
	push	ebx
	sub	ebp, esi
	call	_srp_verify_server_param
	add	esp, 8
	test	eax, eax
	jne	SHORT $LN35@ssl3_get_k
; Line 1584
	push	1584					; 00000630H
	push	OFFSET ??_C@_0BA@NMKJILMC@?4?2ssl?2s3_clnt?4c?$AA@
	push	371					; 00000173H
; Line 1585
	jmp	$LN137@ssl3_get_k
$LN35@ssl3_get_k:
; Line 1590
	mov	eax, DWORD PTR _alg_a$1$[esp+228]
	test	al, 1
	je	SHORT $LN36@ssl3_get_k
; Line 1591
	mov	eax, DWORD PTR [ebx+192]
	mov	eax, DWORD PTR [eax+152]
	push	DWORD PTR [eax+12]
	call	_X509_get_pubkey
	mov	esi, eax
	add	esp, 4
	mov	DWORD PTR _pkey$1$[esp+228], esi
	jmp	$LN91@ssl3_get_k
$LN36@ssl3_get_k:
; Line 1598
	test	al, 2
	je	$LN129@ssl3_get_k
; Line 1599
	mov	eax, DWORD PTR [ebx+192]
	mov	eax, DWORD PTR [eax+152]
	push	DWORD PTR [eax+68]
	call	_X509_get_pubkey
	mov	esi, eax
	add	esp, 4
	mov	DWORD PTR _pkey$1$[esp+228], esi
; Line 1604
	jmp	$LN91@ssl3_get_k
$LN21@ssl3_get_k:
; Line 1607
	test	al, 1
	je	$LN39@ssl3_get_k
; Line 1609
	mov	eax, DWORD PTR [ecx+836]
	test	BYTE PTR [eax+32], 2
	jne	SHORT $LN41@ssl3_get_k
; Line 1611
	push	1611					; 0000064bH
	push	OFFSET ??_C@_0BA@NMKJILMC@?4?2ssl?2s3_clnt?4c?$AA@
	mov	DWORD PTR _al$[esp+236], 10		; 0000000aH
	push	244					; 000000f4H
; Line 1612
	jmp	$LN137@ssl3_get_k
$LN41@ssl3_get_k:
; Line 1614
	call	_RSA_new
	mov	edx, eax
	mov	DWORD PTR _rsa$1$[esp+228], edx
	test	edx, edx
	jne	SHORT $LN42@ssl3_get_k
; Line 1615
	push	1615					; 0000064fH
	push	OFFSET ??_C@_0BA@NMKJILMC@?4?2ssl?2s3_clnt?4c?$AA@
	push	65					; 00000041H
; Line 1616
	jmp	$LN141@ssl3_get_k
$LN42@ssl3_get_k:
; Line 1620
	cmp	ebp, 2
	jge	SHORT $LN43@ssl3_get_k
; Line 1621
	push	1621					; 00000655H
	push	OFFSET ??_C@_0BA@NMKJILMC@?4?2ssl?2s3_clnt?4c?$AA@
	push	160					; 000000a0H
; Line 1622
	jmp	$LN137@ssl3_get_k
$LN43@ssl3_get_k:
; Line 1624
	movzx	ecx, BYTE PTR [edi]
	movzx	eax, BYTE PTR [edi+1]
	add	edi, 2
	shl	ecx, 8
	or	ecx, eax
; Line 1626
	lea	eax, DWORD PTR [ebp-2]
	mov	DWORD PTR _i$6$[esp+228], ecx
	cmp	ecx, eax
	jle	SHORT $LN44@ssl3_get_k
; Line 1627
	push	1627					; 0000065bH
	push	OFFSET ??_C@_0BA@NMKJILMC@?4?2ssl?2s3_clnt?4c?$AA@
	push	121					; 00000079H
; Line 1628
	jmp	$LN137@ssl3_get_k
$LN44@ssl3_get_k:
; Line 1632
	push	DWORD PTR [edx+16]
	lea	esi, DWORD PTR [ecx+2]
	push	ecx
	push	edi
	call	_BN_bin2bn
	mov	edx, DWORD PTR _rsa$1$[esp+240]
	add	esp, 12					; 0000000cH
	mov	DWORD PTR [edx+16], eax
	test	eax, eax
	jne	SHORT $LN45@ssl3_get_k
; Line 1633
	push	1633					; 00000661H
; Line 1634
	jmp	$LN140@ssl3_get_k
$LN45@ssl3_get_k:
; Line 1636
	add	edi, DWORD PTR _i$6$[esp+228]
; Line 1638
	mov	eax, ebp
	sub	eax, esi
	cmp	eax, 2
	jge	SHORT $LN46@ssl3_get_k
; Line 1639
	push	1639					; 00000667H
	push	OFFSET ??_C@_0BA@NMKJILMC@?4?2ssl?2s3_clnt?4c?$AA@
	push	160					; 000000a0H
; Line 1640
	jmp	$LN137@ssl3_get_k
$LN46@ssl3_get_k:
; Line 1644
	movzx	ecx, BYTE PTR [edi]
	add	esi, 2
	movzx	eax, BYTE PTR [edi+1]
	add	edi, 2
	shl	ecx, 8
	or	ecx, eax
; Line 1646
	mov	eax, ebp
	sub	eax, esi
	mov	DWORD PTR _i$7$[esp+228], ecx
	cmp	ecx, eax
	jle	SHORT $LN47@ssl3_get_k
; Line 1647
	push	1647					; 0000066fH
	push	OFFSET ??_C@_0BA@NMKJILMC@?4?2ssl?2s3_clnt?4c?$AA@
	push	120					; 00000078H
; Line 1648
	jmp	$LN137@ssl3_get_k
$LN47@ssl3_get_k:
; Line 1652
	push	DWORD PTR [edx+20]
	add	esi, ecx
	push	ecx
	push	edi
	mov	DWORD PTR _param_len$2$[esp+240], esi
	call	_BN_bin2bn
	mov	ecx, DWORD PTR _rsa$1$[esp+240]
	add	esp, 12					; 0000000cH
	mov	DWORD PTR [ecx+20], eax
	test	eax, eax
	jne	SHORT $LN48@ssl3_get_k
; Line 1653
	push	1653					; 00000675H
; Line 1654
	jmp	$LN140@ssl3_get_k
$LN48@ssl3_get_k:
; Line 1656
	add	edi, DWORD PTR _i$7$[esp+228]
; Line 1657
	sub	ebp, esi
; Line 1660
	test	BYTE PTR _alg_a$1$[esp+228], 1
	je	$LN49@ssl3_get_k
; Line 1661
	mov	eax, DWORD PTR [ebx+192]
	mov	eax, DWORD PTR [eax+152]
	push	DWORD PTR [eax+12]
	call	_X509_get_pubkey
	mov	esi, eax
; Line 1669
	push	esi
	mov	DWORD PTR _pkey$1$[esp+236], esi
	call	_EVP_PKEY_bits
	mov	ecx, DWORD PTR [ebx+88]
	add	esp, 8
	mov	edx, 512				; 00000200H
	mov	ecx, DWORD PTR [ecx+836]
	test	BYTE PTR [ecx+32], 8
	mov	ecx, 1024				; 00000400H
	cmovne	ecx, edx
	cmp	eax, ecx
	jg	SHORT $LN51@ssl3_get_k
; Line 1671
	push	1671					; 00000687H
	push	OFFSET ??_C@_0BA@NMKJILMC@?4?2ssl?2s3_clnt?4c?$AA@
	mov	DWORD PTR _al$[esp+236], 10		; 0000000aH
	push	244					; 000000f4H
; Line 1672
	jmp	$LN137@ssl3_get_k
$LN51@ssl3_get_k:
; Line 1675
	mov	eax, DWORD PTR [ebx+192]
	mov	ecx, DWORD PTR _rsa$1$[esp+228]
; Line 1676
	mov	DWORD PTR _rsa$1$[esp+228], 0
	mov	eax, DWORD PTR [eax+152]
	mov	DWORD PTR [eax+236], ecx
; Line 1677
	jmp	$LN91@ssl3_get_k
$LN49@ssl3_get_k:
; Line 1665
	push	1665					; 00000681H
	push	OFFSET ??_C@_0BA@NMKJILMC@?4?2ssl?2s3_clnt?4c?$AA@
	push	68					; 00000044H
; Line 1666
	jmp	$LN141@ssl3_get_k
$LN39@ssl3_get_k:
; Line 1682
	test	al, 8
	je	$LN52@ssl3_get_k
; Line 1683
	call	_DH_new
	mov	DWORD PTR _dh$1$[esp+228], eax
	test	eax, eax
	jne	SHORT $LN54@ssl3_get_k
; Line 1684
	push	1684					; 00000694H
	push	OFFSET ??_C@_0BA@NMKJILMC@?4?2ssl?2s3_clnt?4c?$AA@
	push	5
; Line 1685
	jmp	$LN141@ssl3_get_k
$LN54@ssl3_get_k:
; Line 1689
	cmp	ebp, 2
	jge	SHORT $LN55@ssl3_get_k
; Line 1690
	push	1690					; 0000069aH
	push	OFFSET ??_C@_0BA@NMKJILMC@?4?2ssl?2s3_clnt?4c?$AA@
	push	160					; 000000a0H
; Line 1691
	jmp	$LN137@ssl3_get_k
$LN55@ssl3_get_k:
; Line 1693
	movzx	ecx, BYTE PTR [edi]
	movzx	eax, BYTE PTR [edi+1]
	add	edi, 2
	shl	ecx, 8
	or	ecx, eax
; Line 1695
	lea	eax, DWORD PTR [ebp-2]
	mov	DWORD PTR _i$8$[esp+228], ecx
	cmp	ecx, eax
	jle	SHORT $LN56@ssl3_get_k
; Line 1696
	push	1696					; 000006a0H
	push	OFFSET ??_C@_0BA@NMKJILMC@?4?2ssl?2s3_clnt?4c?$AA@
	push	110					; 0000006eH
; Line 1697
	jmp	$LN137@ssl3_get_k
$LN56@ssl3_get_k:
; Line 1701
	push	0
	push	ecx
	push	edi
	lea	esi, DWORD PTR [ecx+2]
	call	_BN_bin2bn
	mov	ecx, DWORD PTR _dh$1$[esp+240]
	add	esp, 12					; 0000000cH
	mov	DWORD PTR [ecx+8], eax
	test	eax, eax
	jne	SHORT $LN57@ssl3_get_k
; Line 1702
	push	1702					; 000006a6H
; Line 1703
	jmp	$LN140@ssl3_get_k
$LN57@ssl3_get_k:
; Line 1705
	add	edi, DWORD PTR _i$8$[esp+228]
; Line 1707
	cmp	DWORD PTR [eax+4], 0
	jne	SHORT $LN58@ssl3_get_k
; Line 1708
	push	1708					; 000006acH
	push	OFFSET ??_C@_0BA@NMKJILMC@?4?2ssl?2s3_clnt?4c?$AA@
	push	395					; 0000018bH
; Line 1709
	jmp	$LN137@ssl3_get_k
$LN58@ssl3_get_k:
; Line 1713
	mov	eax, ebp
	sub	eax, esi
	cmp	eax, 2
	jge	SHORT $LN59@ssl3_get_k
; Line 1714
	push	1714					; 000006b2H
	push	OFFSET ??_C@_0BA@NMKJILMC@?4?2ssl?2s3_clnt?4c?$AA@
	push	160					; 000000a0H
; Line 1715
	jmp	$LN137@ssl3_get_k
$LN59@ssl3_get_k:
; Line 1719
	movzx	ecx, BYTE PTR [edi]
	add	esi, 2
	movzx	eax, BYTE PTR [edi+1]
	add	edi, 2
	shl	ecx, 8
	or	ecx, eax
; Line 1721
	mov	eax, ebp
	sub	eax, esi
	mov	DWORD PTR _i$9$[esp+228], ecx
	cmp	ecx, eax
	jle	SHORT $LN60@ssl3_get_k
; Line 1722
	push	1722					; 000006baH
	push	OFFSET ??_C@_0BA@NMKJILMC@?4?2ssl?2s3_clnt?4c?$AA@
	push	108					; 0000006cH
; Line 1723
	jmp	$LN137@ssl3_get_k
$LN60@ssl3_get_k:
; Line 1727
	push	0
	push	ecx
	push	edi
	add	esi, ecx
	call	_BN_bin2bn
	mov	ecx, DWORD PTR _dh$1$[esp+240]
	add	esp, 12					; 0000000cH
	mov	DWORD PTR [ecx+12], eax
	test	eax, eax
	jne	SHORT $LN61@ssl3_get_k
; Line 1728
	push	1728					; 000006c0H
; Line 1729
	jmp	$LN140@ssl3_get_k
$LN61@ssl3_get_k:
; Line 1731
	add	edi, DWORD PTR _i$9$[esp+228]
; Line 1733
	cmp	DWORD PTR [eax+4], 0
	jne	SHORT $LN62@ssl3_get_k
; Line 1734
	push	1734					; 000006c6H
	push	OFFSET ??_C@_0BA@NMKJILMC@?4?2ssl?2s3_clnt?4c?$AA@
	push	375					; 00000177H
; Line 1735
	jmp	$LN137@ssl3_get_k
$LN62@ssl3_get_k:
; Line 1738
	mov	eax, ebp
	sub	eax, esi
	cmp	eax, 2
	jge	SHORT $LN63@ssl3_get_k
; Line 1739
	push	1739					; 000006cbH
	push	OFFSET ??_C@_0BA@NMKJILMC@?4?2ssl?2s3_clnt?4c?$AA@
	push	160					; 000000a0H
; Line 1740
	jmp	$LN137@ssl3_get_k
$LN63@ssl3_get_k:
; Line 1744
	movzx	ecx, BYTE PTR [edi]
	add	esi, 2
	movzx	eax, BYTE PTR [edi+1]
	add	edi, 2
	shl	ecx, 8
	or	ecx, eax
; Line 1746
	mov	eax, ebp
	sub	eax, esi
	mov	DWORD PTR _i$10$[esp+228], ecx
	cmp	ecx, eax
	jle	SHORT $LN64@ssl3_get_k
; Line 1747
	push	1747					; 000006d3H
	push	OFFSET ??_C@_0BA@NMKJILMC@?4?2ssl?2s3_clnt?4c?$AA@
	push	109					; 0000006dH
; Line 1748
	jmp	$LN137@ssl3_get_k
$LN64@ssl3_get_k:
; Line 1752
	push	0
	push	ecx
	add	esi, ecx
	push	edi
	mov	DWORD PTR _param_len$2$[esp+240], esi
	call	_BN_bin2bn
	mov	ecx, DWORD PTR _dh$1$[esp+240]
	add	esp, 12					; 0000000cH
	mov	DWORD PTR [ecx+20], eax
	test	eax, eax
	jne	SHORT $LN65@ssl3_get_k
; Line 1753
	push	1753					; 000006d9H
; Line 1754
	jmp	$LN140@ssl3_get_k
$LN65@ssl3_get_k:
; Line 1756
	add	edi, DWORD PTR _i$10$[esp+228]
; Line 1757
	sub	ebp, esi
; Line 1759
	cmp	DWORD PTR [eax+4], 0
	jne	SHORT $LN66@ssl3_get_k
; Line 1760
	push	1760					; 000006e0H
	push	OFFSET ??_C@_0BA@NMKJILMC@?4?2ssl?2s3_clnt?4c?$AA@
	push	393					; 00000189H
; Line 1761
	jmp	$LN137@ssl3_get_k
$LN66@ssl3_get_k:
; Line 1765
	mov	eax, DWORD PTR _alg_a$1$[esp+228]
	test	al, 1
	je	SHORT $LN67@ssl3_get_k
; Line 1766
	mov	eax, DWORD PTR [ebx+192]
	mov	eax, DWORD PTR [eax+152]
	push	DWORD PTR [eax+12]
$LN138@ssl3_get_k:
	call	_X509_get_pubkey
	mov	ecx, DWORD PTR _dh$1$[esp+232]
	mov	esi, eax
	add	esp, 4
	mov	DWORD PTR _pkey$1$[esp+228], esi
	jmp	SHORT $LN69@ssl3_get_k
$LN67@ssl3_get_k:
; Line 1773
	test	al, 2
	je	SHORT $LN131@ssl3_get_k
; Line 1774
	mov	eax, DWORD PTR [ebx+192]
	mov	eax, DWORD PTR [eax+152]
	push	DWORD PTR [eax+68]
	jmp	SHORT $LN138@ssl3_get_k
$LN131@ssl3_get_k:
	xor	esi, esi
$LN69@ssl3_get_k:
; Line 1781
	mov	eax, DWORD PTR [ebx+192]
; Line 1782
	mov	DWORD PTR _dh$1$[esp+228], 0
	mov	eax, DWORD PTR [eax+152]
	mov	DWORD PTR [eax+240], ecx
	jmp	$LN91@ssl3_get_k
$LN52@ssl3_get_k:
	test	al, 6
; Line 1783
	jne	$LN72@ssl3_get_k
; Line 1792
	test	al, al
	jns	$LN73@ssl3_get_k
; Line 1796
	call	_EC_KEY_new
	mov	DWORD PTR _ecdh$1$[esp+228], eax
	test	eax, eax
	jne	SHORT $LN75@ssl3_get_k
; Line 1797
	push	1797					; 00000705H
	push	OFFSET ??_C@_0BA@NMKJILMC@?4?2ssl?2s3_clnt?4c?$AA@
	push	65					; 00000041H
; Line 1798
	jmp	$LN141@ssl3_get_k
$LN75@ssl3_get_k:
; Line 1813
	cmp	ebp, 4
	jge	SHORT $LN76@ssl3_get_k
; Line 1814
	push	1814					; 00000716H
	push	OFFSET ??_C@_0BA@NMKJILMC@?4?2ssl?2s3_clnt?4c?$AA@
	push	160					; 000000a0H
; Line 1815
	jmp	$LN137@ssl3_get_k
$LN76@ssl3_get_k:
; Line 1821
	push	3
	push	edi
	push	ebx
	call	_tls1_check_curve
	add	esp, 12					; 0000000cH
	test	eax, eax
	jne	SHORT $LN77@ssl3_get_k
; Line 1822
	push	1822					; 0000071eH
	push	OFFSET ??_C@_0BA@NMKJILMC@?4?2ssl?2s3_clnt?4c?$AA@
	push	378					; 0000017aH
; Line 1823
	jmp	$LN137@ssl3_get_k
$LN77@ssl3_get_k:
; Line 1826
	movzx	eax, BYTE PTR [edi+2]
	push	eax
	call	_tls1_ec_curve_id2nid
	add	esp, 4
	test	eax, eax
	jne	SHORT $LN78@ssl3_get_k
; Line 1828
	push	1829					; 00000725H
	push	OFFSET ??_C@_0BA@NMKJILMC@?4?2ssl?2s3_clnt?4c?$AA@
	mov	DWORD PTR _al$[esp+236], 80		; 00000050H
	push	314					; 0000013aH
; Line 1830
	jmp	$LN137@ssl3_get_k
$LN78@ssl3_get_k:
; Line 1833
	push	eax
	call	_EC_GROUP_new_by_curve_name
	mov	esi, eax
	add	esp, 4
; Line 1834
	test	esi, esi
	jne	SHORT $LN79@ssl3_get_k
; Line 1835
	push	1835					; 0000072bH
	push	OFFSET ??_C@_0BA@NMKJILMC@?4?2ssl?2s3_clnt?4c?$AA@
	push	16					; 00000010H
; Line 1836
	jmp	$LN141@ssl3_get_k
$LN79@ssl3_get_k:
; Line 1838
	mov	ecx, DWORD PTR _ecdh$1$[esp+228]
	push	esi
	push	ecx
	call	_EC_KEY_set_group
	add	esp, 8
	test	eax, eax
	jne	SHORT $LN80@ssl3_get_k
; Line 1839
	push	1839					; 0000072fH
	push	OFFSET ??_C@_0BA@NMKJILMC@?4?2ssl?2s3_clnt?4c?$AA@
	push	16					; 00000010H
; Line 1840
	jmp	$LN141@ssl3_get_k
$LN80@ssl3_get_k:
; Line 1842
	push	esi
	call	_EC_GROUP_free
; Line 1844
	push	DWORD PTR _ecdh$1$[esp+232]
	call	_EC_KEY_get0_group
; Line 1846
	mov	ecx, DWORD PTR [ebx+88]
	add	esp, 8
	mov	esi, eax
	mov	DWORD PTR _group$1$[esp+228], esi
	mov	ecx, DWORD PTR [ecx+836]
	test	BYTE PTR [ecx+32], 2
	je	SHORT $LN81@ssl3_get_k
	push	esi
	call	_EC_GROUP_get_degree
	add	esp, 4
	cmp	eax, 163				; 000000a3H
	jle	SHORT $LN81@ssl3_get_k
; Line 1849
	push	1850					; 0000073aH
	push	OFFSET ??_C@_0BA@NMKJILMC@?4?2ssl?2s3_clnt?4c?$AA@
	mov	DWORD PTR _al$[esp+236], 60		; 0000003cH
	push	310					; 00000136H
; Line 1851
	jmp	$LN137@ssl3_get_k
$LN81@ssl3_get_k:
; Line 1857
	push	esi
	call	_EC_POINT_new
	mov	esi, eax
	add	esp, 4
	mov	DWORD PTR _srvr_ecpoint$1$[esp+228], esi
	test	esi, esi
	je	$LN83@ssl3_get_k
	call	_BN_CTX_new
	mov	DWORD PTR _bn_ctx$1$[esp+228], eax
	test	eax, eax
	je	$LN83@ssl3_get_k
; Line 1863
	movzx	esi, BYTE PTR [edi+3]
; Line 1866
	lea	ecx, DWORD PTR [ebp-4]
	add	edi, 4
	cmp	esi, ecx
	jg	$LN85@ssl3_get_k
	push	eax
	push	esi
	push	edi
	push	DWORD PTR _srvr_ecpoint$1$[esp+240]
	push	DWORD PTR _group$1$[esp+244]
	call	_EC_POINT_oct2point
	add	esp, 20					; 00000014H
	test	eax, eax
	je	$LN85@ssl3_get_k
; Line 1872
	lea	eax, DWORD PTR [esi+4]
; Line 1875
	add	edi, esi
	sub	ebp, eax
	mov	DWORD PTR _param_len$2$[esp+228], eax
; Line 1884
	mov	eax, DWORD PTR _alg_a$1$[esp+228]
	test	al, 1
	je	SHORT $LN88@ssl3_get_k
; Line 1885
	mov	eax, DWORD PTR [ebx+192]
	mov	eax, DWORD PTR [eax+152]
	push	DWORD PTR [eax+12]
	call	_X509_get_pubkey
	mov	esi, eax
	add	esp, 4
	mov	DWORD PTR _pkey$1$[esp+228], esi
	jmp	SHORT $LN90@ssl3_get_k
$LN88@ssl3_get_k:
; Line 1890
	test	al, 64					; 00000040H
	je	SHORT $LN130@ssl3_get_k
; Line 1891
	mov	eax, DWORD PTR [ebx+192]
	mov	eax, DWORD PTR [eax+152]
	push	DWORD PTR [eax+152]
	call	_X509_get_pubkey
	mov	esi, eax
	add	esp, 4
	mov	DWORD PTR _pkey$1$[esp+228], esi
	jmp	SHORT $LN90@ssl3_get_k
$LN130@ssl3_get_k:
	xor	esi, esi
$LN90@ssl3_get_k:
; Line 1896
	push	DWORD PTR _srvr_ecpoint$1$[esp+228]
	push	DWORD PTR _ecdh$1$[esp+232]
	call	_EC_KEY_set_public_key
; Line 1897
	mov	eax, DWORD PTR [ebx+192]
	mov	ecx, DWORD PTR _ecdh$1$[esp+236]
; Line 1899
	push	DWORD PTR _bn_ctx$1$[esp+236]
	mov	DWORD PTR _ecdh$1$[esp+240], 0
	mov	eax, DWORD PTR [eax+152]
	mov	DWORD PTR [eax+244], ecx
	call	_BN_CTX_free
; Line 1901
	push	DWORD PTR _srvr_ecpoint$1$[esp+240]
	mov	DWORD PTR _bn_ctx$1$[esp+244], 0
	call	_EC_POINT_free
	add	esp, 16					; 00000010H
; Line 1902
	mov	DWORD PTR _srvr_ecpoint$1$[esp+228], 0
$LN91@ssl3_get_k:
; Line 1913
	test	esi, esi
	je	$LN128@ssl3_get_k
; Line 1914
	mov	eax, DWORD PTR [ebx+8]
	mov	eax, DWORD PTR [eax+100]
	test	BYTE PTR [eax+56], 2
	je	SHORT $LN94@ssl3_get_k
; Line 1916
	cmp	ebp, 2
	jge	SHORT $LN96@ssl3_get_k
; Line 1917
	push	1917					; 0000077dH
	push	OFFSET ??_C@_0BA@NMKJILMC@?4?2ssl?2s3_clnt?4c?$AA@
	push	160					; 000000a0H
; Line 1918
	jmp	$LN137@ssl3_get_k
$LN96@ssl3_get_k:
; Line 1920
	push	esi
	push	edi
	lea	eax, DWORD PTR _md$[esp+236]
	push	ebx
	push	eax
	call	_tls12_check_peer_sigalg
	add	esp, 16					; 00000010H
; Line 1921
	cmp	eax, -1
	je	$LN133@ssl3_get_k
; Line 1923
	test	eax, eax
	je	$f_err$144
; Line 1929
	add	edi, 2
; Line 1930
	sub	ebp, 2
; Line 1931
	jmp	SHORT $LN95@ssl3_get_k
$LN94@ssl3_get_k:
; Line 1932
	call	_EVP_sha1
	mov	DWORD PTR _md$[esp+228], eax
$LN95@ssl3_get_k:
; Line 1934
	cmp	ebp, 2
	jge	SHORT $LN100@ssl3_get_k
; Line 1935
	push	1935					; 0000078fH
	push	OFFSET ??_C@_0BA@NMKJILMC@?4?2ssl?2s3_clnt?4c?$AA@
	push	160					; 000000a0H
; Line 1936
	jmp	$LN137@ssl3_get_k
$LN100@ssl3_get_k:
; Line 1938
	movzx	esi, BYTE PTR [edi]
; Line 1939
	sub	ebp, 2
	movzx	eax, BYTE PTR [edi+1]
	add	edi, 2
; Line 1940
	push	DWORD PTR _pkey$1$[esp+228]
	shl	esi, 8
	or	esi, eax
	call	_EVP_PKEY_size
	add	esp, 4
; Line 1945
	cmp	esi, ebp
	jne	$LN102@ssl3_get_k
	cmp	ebp, eax
	jg	$LN102@ssl3_get_k
	test	ebp, ebp
	jle	$LN102@ssl3_get_k
; Line 1951
	mov	eax, DWORD PTR _pkey$1$[esp+228]
	cmp	DWORD PTR [eax], 6
	jne	$LN103@ssl3_get_k
	mov	eax, DWORD PTR [ebx+8]
	mov	eax, DWORD PTR [eax+100]
	test	BYTE PTR [eax+56], 2
	jne	$LN103@ssl3_get_k
; Line 1956
	mov	esi, DWORD PTR _param_len$2$[esp+228]
	lea	eax, DWORD PTR _md_buf$[esp+228]
	mov	DWORD PTR _j$2$[esp+228], 0
	mov	DWORD PTR _q$1$[esp+228], eax
; Line 1957
	mov	DWORD PTR _num$1$[esp+228], 2
$LL4@ssl3_get_k:
; Line 1958
	lea	eax, DWORD PTR _md_ctx$[esp+228]
	push	8
	push	eax
	call	_EVP_MD_CTX_set_flags
; Line 1967
	mov	eax, DWORD PTR [ebx+228]
	add	esp, 8
	cmp	DWORD PTR _num$1$[esp+228], 2
	jne	SHORT $LN119@ssl3_get_k
	mov	eax, DWORD PTR [eax+140]
	jmp	SHORT $LN120@ssl3_get_k
$LN119@ssl3_get_k:
	mov	eax, DWORD PTR [eax+144]
$LN120@ssl3_get_k:
	push	0
	push	eax
	lea	eax, DWORD PTR _md_ctx$[esp+236]
	push	eax
	call	_EVP_DigestInit_ex
	add	esp, 12					; 0000000cH
	test	eax, eax
	jle	$LN122@ssl3_get_k
	mov	eax, DWORD PTR [ebx+88]
	add	eax, 192				; 000000c0H
	push	32					; 00000020H
	push	eax
	lea	eax, DWORD PTR _md_ctx$[esp+236]
	push	eax
	call	_EVP_DigestUpdate
	add	esp, 12					; 0000000cH
	test	eax, eax
	jle	$LN122@ssl3_get_k
	mov	eax, DWORD PTR [ebx+88]
	add	eax, 160				; 000000a0H
	push	32					; 00000020H
	push	eax
	lea	eax, DWORD PTR _md_ctx$[esp+236]
	push	eax
	call	_EVP_DigestUpdate
	add	esp, 12					; 0000000cH
	test	eax, eax
	jle	$LN122@ssl3_get_k
	push	esi
	push	DWORD PTR _param$1$[esp+232]
	lea	eax, DWORD PTR _md_ctx$[esp+236]
	push	eax
	call	_EVP_DigestUpdate
	add	esp, 12					; 0000000cH
	test	eax, eax
	jle	$LN122@ssl3_get_k
	lea	eax, DWORD PTR _size$1[esp+228]
	push	eax
	push	DWORD PTR _q$1$[esp+232]
	lea	eax, DWORD PTR _md_ctx$[esp+236]
	push	eax
	call	_EVP_DigestFinal_ex
	add	esp, 12					; 0000000cH
	test	eax, eax
	jle	SHORT $LN122@ssl3_get_k
; Line 1973
	mov	eax, DWORD PTR _size$1[esp+228]
; Line 1974
	mov	ecx, DWORD PTR _j$2$[esp+228]
	add	DWORD PTR _q$1$[esp+228], eax
	add	ecx, eax
	mov	eax, DWORD PTR _num$1$[esp+228]
	dec	eax
	mov	DWORD PTR _j$2$[esp+228], ecx
	mov	DWORD PTR _num$1$[esp+228], eax
	test	eax, eax
	jg	$LL4@ssl3_get_k
; Line 1976
	mov	eax, DWORD PTR _pkey$1$[esp+228]
	push	DWORD PTR [eax+20]
	lea	eax, DWORD PTR _md_buf$[esp+232]
	push	ebp
	push	edi
	push	ecx
	push	eax
	push	114					; 00000072H
	call	_RSA_verify
	add	esp, 24					; 00000018H
; Line 1977
	test	eax, eax
	jns	SHORT $LN139@ssl3_get_k
; Line 1979
	push	1979					; 000007bbH
	push	OFFSET ??_C@_0BA@NMKJILMC@?4?2ssl?2s3_clnt?4c?$AA@
	mov	DWORD PTR _al$[esp+236], 51		; 00000033H
	push	118					; 00000076H
; Line 1980
	jmp	$LN137@ssl3_get_k
$LN139@ssl3_get_k:
; Line 1982
	jne	$LN114@ssl3_get_k
; Line 1985
	push	1985					; 000007c1H
	push	OFFSET ??_C@_0BA@NMKJILMC@?4?2ssl?2s3_clnt?4c?$AA@
	mov	DWORD PTR _al$[esp+236], 51		; 00000033H
	push	123					; 0000007bH
; Line 1986
	jmp	$LN137@ssl3_get_k
$LN122@ssl3_get_k:
; Line 1968
	push	1969					; 000007b1H
	push	OFFSET ??_C@_0BA@NMKJILMC@?4?2ssl?2s3_clnt?4c?$AA@
	push	68					; 00000044H
	push	141					; 0000008dH
	push	20					; 00000014H
	call	_ERR_put_error
; Line 1970
	mov	DWORD PTR _al$[esp+248], 80		; 00000050H
; Line 1971
	jmp	$LN136@ssl3_get_k
$LN103@ssl3_get_k:
; Line 1996
	push	0
	push	DWORD PTR _md$[esp+232]
	lea	eax, DWORD PTR _md_ctx$[esp+236]
	push	eax
	call	_EVP_DigestInit_ex
	add	esp, 12					; 0000000cH
	test	eax, eax
	jle	$LN110@ssl3_get_k
	mov	eax, DWORD PTR [ebx+88]
	add	eax, 192				; 000000c0H
	push	32					; 00000020H
	push	eax
	lea	eax, DWORD PTR _md_ctx$[esp+236]
	push	eax
	call	_EVP_DigestUpdate
	add	esp, 12					; 0000000cH
	test	eax, eax
	jle	SHORT $LN110@ssl3_get_k
	mov	eax, DWORD PTR [ebx+88]
	add	eax, 160				; 000000a0H
	push	32					; 00000020H
	push	eax
	lea	eax, DWORD PTR _md_ctx$[esp+236]
	push	eax
	call	_EVP_DigestUpdate
	add	esp, 12					; 0000000cH
	test	eax, eax
	jle	SHORT $LN110@ssl3_get_k
	mov	esi, DWORD PTR _param_len$2$[esp+228]
	lea	eax, DWORD PTR _md_ctx$[esp+228]
	push	esi
	push	DWORD PTR _param$1$[esp+232]
	push	eax
	call	_EVP_DigestUpdate
	add	esp, 12					; 0000000cH
	test	eax, eax
	jle	SHORT $LN110@ssl3_get_k
; Line 2001
	push	DWORD PTR _pkey$1$[esp+228]
	lea	eax, DWORD PTR _md_ctx$[esp+232]
	push	ebp
	push	edi
	push	eax
	call	_EVP_VerifyFinal
	add	esp, 16					; 00000010H
	test	eax, eax
	jg	$LN114@ssl3_get_k
; Line 2004
	push	2004					; 000007d4H
	push	OFFSET ??_C@_0BA@NMKJILMC@?4?2ssl?2s3_clnt?4c?$AA@
	mov	DWORD PTR _al$[esp+236], 51		; 00000033H
	push	123					; 0000007bH
; Line 2005
	jmp	$LN137@ssl3_get_k
$LN110@ssl3_get_k:
; Line 1998
	push	1998					; 000007ceH
	push	OFFSET ??_C@_0BA@NMKJILMC@?4?2ssl?2s3_clnt?4c?$AA@
	mov	DWORD PTR _al$[esp+236], 80		; 00000050H
	push	6
; Line 1999
	jmp	$LN137@ssl3_get_k
$LN102@ssl3_get_k:
; Line 1947
	push	1947					; 0000079bH
	push	OFFSET ??_C@_0BA@NMKJILMC@?4?2ssl?2s3_clnt?4c?$AA@
	push	264					; 00000108H
; Line 1948
	jmp	$LN137@ssl3_get_k
$LN85@ssl3_get_k:
; Line 1869
	push	1869					; 0000074dH
	push	OFFSET ??_C@_0BA@NMKJILMC@?4?2ssl?2s3_clnt?4c?$AA@
	push	306					; 00000132H
; Line 1870
	jmp	$LN137@ssl3_get_k
$LN83@ssl3_get_k:
; Line 1859
	push	1859					; 00000743H
	push	OFFSET ??_C@_0BA@NMKJILMC@?4?2ssl?2s3_clnt?4c?$AA@
	push	65					; 00000041H
	push	141					; 0000008dH
	push	20					; 00000014H
	call	_ERR_put_error
	add	esp, 20					; 00000014H
; Line 1860
	jmp	$err$143
$LN73@ssl3_get_k:
; Line 1903
	test	eax, eax
	je	SHORT $LN127@ssl3_get_k
; Line 1905
	push	1905					; 00000771H
	push	OFFSET ??_C@_0BA@NMKJILMC@?4?2ssl?2s3_clnt?4c?$AA@
	mov	DWORD PTR _al$[esp+236], 10		; 0000000aH
	push	244					; 000000f4H
; Line 1906
	jmp	SHORT $LN137@ssl3_get_k
$LN127@ssl3_get_k:
	mov	eax, DWORD PTR _alg_a$1$[esp+228]
	jmp	$LN92@ssl3_get_k
$LN112@ssl3_get_k:
; Line 2018
	test	ebp, ebp
	je	SHORT $LN114@ssl3_get_k
; Line 2019
	push	2019					; 000007e3H
	push	OFFSET ??_C@_0BA@NMKJILMC@?4?2ssl?2s3_clnt?4c?$AA@
	push	153					; 00000099H
; Line 2020
	jmp	SHORT $LN137@ssl3_get_k
$LN114@ssl3_get_k:
; Line 2023
	push	DWORD PTR _pkey$1$[esp+228]
	call	_EVP_PKEY_free
; Line 2024
	lea	eax, DWORD PTR _md_ctx$[esp+232]
	push	eax
	call	_EVP_MD_CTX_cleanup
	add	esp, 8
; Line 2025
	mov	eax, 1
	jmp	$LN134@ssl3_get_k
$LN72@ssl3_get_k:
; Line 1785
	push	1786					; 000006faH
	push	OFFSET ??_C@_0BA@NMKJILMC@?4?2ssl?2s3_clnt?4c?$AA@
	mov	DWORD PTR _al$[esp+236], 47		; 0000002fH
	push	235					; 000000ebH
$LN137@ssl3_get_k:
	push	141					; 0000008dH
	push	20					; 00000014H
	call	_ERR_put_error
$LN136@ssl3_get_k:
	add	esp, 20					; 00000014H
$f_err$144:
; Line 2027
	push	DWORD PTR _al$[esp+228]
	push	2
	push	ebx
	call	_ssl3_send_alert
	add	esp, 12					; 0000000cH
$LN133@ssl3_get_k:
	mov	esi, DWORD PTR _srvr_ecpoint$1$[esp+228]
$err$143:
; Line 2029
	push	DWORD PTR _pkey$1$[esp+228]
	call	_EVP_PKEY_free
; Line 2031
	mov	eax, DWORD PTR _rsa$1$[esp+232]
	add	esp, 4
	test	eax, eax
	je	SHORT $LN115@ssl3_get_k
; Line 2032
	push	eax
	call	_RSA_free
	add	esp, 4
$LN115@ssl3_get_k:
; Line 2035
	mov	eax, DWORD PTR _dh$1$[esp+228]
	test	eax, eax
	je	SHORT $LN116@ssl3_get_k
; Line 2036
	push	eax
	call	_DH_free
	add	esp, 4
$LN116@ssl3_get_k:
; Line 2039
	push	DWORD PTR _bn_ctx$1$[esp+228]
	call	_BN_CTX_free
; Line 2040
	push	esi
	call	_EC_POINT_free
; Line 2041
	mov	eax, DWORD PTR _ecdh$1$[esp+236]
	add	esp, 8
	test	eax, eax
	je	SHORT $LN117@ssl3_get_k
; Line 2042
	push	eax
	call	_EC_KEY_free
	add	esp, 4
$LN117@ssl3_get_k:
; Line 2044
	lea	eax, DWORD PTR _md_ctx$[esp+228]
	push	eax
	call	_EVP_MD_CTX_cleanup
	add	esp, 4
; Line 2045
	mov	DWORD PTR [ebx+52], 5
; Line 2046
	or	eax, -1
$LN134@ssl3_get_k:
	pop	edi
	pop	esi
$LN1@ssl3_get_k:
; Line 2047
	mov	ecx, DWORD PTR __$ArrayPad$[esp+220]
	pop	ebp
	pop	ebx
	xor	ecx, esp
	call	@__security_check_cookie@4
	add	esp, 212				; 000000d4H
	ret	0
_ssl3_get_key_exchange ENDP
_TEXT	ENDS
; Function compile flags: /Ogtpy
;	COMDAT _ssl3_send_client_key_exchange
_TEXT	SEGMENT
_psk_len$1$ = -880					; size = 4
_n$1$ = -880						; size = 4
_srvr_pub_pkey$1$ = -880				; size = 4
_msglen$1 = -880					; size = 4
_psk_err$1$ = -876					; size = 4
_pub_key$1$ = -876					; size = 4
_scert$1$ = -876					; size = 4
_q$1$ = -876						; size = 4
_clnt_ecdh$1$ = -872					; size = 4
_encodedPoint$1$ = -868					; size = 4
_bn_ctx$1$ = -864					; size = 4
_identity_len$1$ = -860					; size = 4
_md_len$2 = -860					; size = 4
_shared_ukm$3 = -856					; size = 32
_tmp_buf$4 = -856					; size = 48
_premaster_secret$5 = -808				; size = 32
_identity$6 = -776					; size = 130
_tmp$7 = -776						; size = 256
_psk_or_pre_ms$8 = -520					; size = 516
__$ArrayPad$ = -4					; size = 4
_s$ = 8							; size = 4
_ssl3_send_client_key_exchange PROC			; COMDAT
; File c:\workpace\openssl\openssl-1.0.2h\ssl\s3_clnt.c
; Line 2459
	mov	eax, 880				; 00000370H
	call	__chkstk
	mov	eax, DWORD PTR ___security_cookie
	xor	eax, esp
	mov	DWORD PTR __$ArrayPad$[esp+880], eax
	push	ebx
	push	ebp
	push	esi
	mov	esi, DWORD PTR _s$[esp+888]
; Line 2474
	xor	ebp, ebp
	push	edi
	mov	DWORD PTR _clnt_ecdh$1$[esp+896], 0
	mov	DWORD PTR _srvr_pub_pkey$1$[esp+896], 0
; Line 2479
	cmp	DWORD PTR [esi+52], 4480		; 00001180H
	mov	DWORD PTR _encodedPoint$1$[esp+896], ebp
	mov	DWORD PTR _bn_ctx$1$[esp+896], ebp
	jne	$LN2@ssl3_send_
; Line 2480
	mov	eax, DWORD PTR [esi+8]
	mov	ecx, DWORD PTR [esi+60]
	mov	eax, DWORD PTR [eax+100]
	mov	edi, DWORD PTR [ecx+4]
	add	edi, DWORD PTR [eax+60]
; Line 2482
	mov	eax, DWORD PTR [esi+88]
	mov	eax, DWORD PTR [eax+836]
	mov	eax, DWORD PTR [eax+12]
; Line 2488
	test	al, 1
	je	$LN5@ssl3_send_
; Line 2492
	mov	eax, DWORD PTR [esi+192]
	mov	eax, DWORD PTR [eax+152]
	test	eax, eax
	jne	SHORT $LN7@ssl3_send_
; Line 2496
	push	2497					; 000009c1H
$LN104@ssl3_send_:
	push	OFFSET ??_C@_0BA@NMKJILMC@?4?2ssl?2s3_clnt?4c?$AA@
	push	68					; 00000044H
	push	152					; 00000098H
	push	20					; 00000014H
	call	_ERR_put_error
	add	esp, 20					; 00000014H
; Line 2498
	jmp	$LN100@ssl3_send_
$LN7@ssl3_send_:
; Line 2501
	mov	ebp, DWORD PTR [eax+236]
	test	ebp, ebp
	jne	SHORT $LN9@ssl3_send_
; Line 2504
	push	DWORD PTR [eax+12]
	call	_X509_get_pubkey
	mov	ebx, eax
	add	esp, 4
; Line 2509
	test	ebx, ebx
	je	$LN11@ssl3_send_
	cmp	DWORD PTR [ebx], 6
	jne	$LN11@ssl3_send_
	mov	ebp, DWORD PTR [ebx+20]
	test	ebp, ebp
	je	$LN11@ssl3_send_
; Line 2516
	push	ebx
	call	_EVP_PKEY_free
	add	esp, 4
$LN9@ssl3_send_:
; Line 2519
	mov	eax, DWORD PTR [esi+272]
	sar	eax, 8
	mov	BYTE PTR _tmp_buf$4[esp+896], al
; Line 2520
	mov	al, BYTE PTR [esi+272]
	mov	BYTE PTR _tmp_buf$4[esp+897], al
; Line 2521
	lea	eax, DWORD PTR _tmp_buf$4[esp+898]
	push	46					; 0000002eH
	push	eax
	call	_RAND_bytes
	add	esp, 8
	test	eax, eax
	jle	$LN100@ssl3_send_
; Line 2524
	mov	eax, DWORD PTR [esi+192]
; Line 2526
	mov	DWORD PTR _q$1$[esp+896], edi
	mov	DWORD PTR [eax+16], 48			; 00000030H
; Line 2528
	cmp	DWORD PTR [esi], 768			; 00000300H
	jle	SHORT $LN13@ssl3_send_
; Line 2529
	add	edi, 2
$LN13@ssl3_send_:
; Line 2530
	push	1
	push	ebp
	push	edi
	lea	eax, DWORD PTR _tmp_buf$4[esp+908]
	push	eax
	push	48					; 00000030H
	call	_RSA_public_encrypt
	mov	ebx, eax
	add	esp, 20					; 00000014H
; Line 2538
	test	ebx, ebx
	jg	SHORT $LN14@ssl3_send_
; Line 2539
	push	2540					; 000009ecH
	push	OFFSET ??_C@_0BA@NMKJILMC@?4?2ssl?2s3_clnt?4c?$AA@
	push	119					; 00000077H
	push	152					; 00000098H
	push	20					; 00000014H
	call	_ERR_put_error
	add	esp, 20					; 00000014H
; Line 2541
	jmp	$LN100@ssl3_send_
$LN14@ssl3_send_:
; Line 2545
	cmp	DWORD PTR [esi], 768			; 00000300H
	jle	SHORT $LN15@ssl3_send_
; Line 2546
	mov	ecx, DWORD PTR _q$1$[esp+896]
	mov	eax, ebx
	sar	eax, 8
	mov	BYTE PTR [ecx+1], bl
; Line 2547
	add	ebx, 2
	mov	BYTE PTR [ecx], al
$LN15@ssl3_send_:
; Line 2550
	mov	eax, DWORD PTR [esi+8]
	push	48					; 00000030H
	mov	ecx, DWORD PTR [eax+100]
	lea	eax, DWORD PTR _tmp_buf$4[esp+900]
	push	eax
	mov	eax, DWORD PTR [esi+192]
	add	eax, 20					; 00000014H
	push	eax
	mov	eax, DWORD PTR [ecx+12]
	push	esi
	call	eax
	mov	ecx, DWORD PTR [esi+192]
; Line 2556
	push	48					; 00000030H
	mov	DWORD PTR [ecx+16], eax
	lea	eax, DWORD PTR _tmp_buf$4[esp+916]
	push	eax
	call	_OPENSSL_cleanse
$LN103@ssl3_send_:
	add	esp, 24					; 00000018H
$LN91@ssl3_send_:
; Line 3204
	mov	eax, DWORD PTR [esi+8]
	push	ebx
	push	16					; 00000010H
	push	esi
	mov	eax, DWORD PTR [eax+100]
	mov	eax, DWORD PTR [eax+64]
	call	eax
	add	esp, 12					; 0000000cH
; Line 3205
	mov	DWORD PTR [esi+52], 4481		; 00001181H
$LN2@ssl3_send_:
; Line 3209
	mov	eax, DWORD PTR [esi+8]
	push	esi
	mov	eax, DWORD PTR [eax+100]
	mov	eax, DWORD PTR [eax+68]
	call	eax
	add	esp, 4
$LN1@ssl3_send_:
; Line 3221
	mov	ecx, DWORD PTR __$ArrayPad$[esp+896]
	pop	edi
	pop	esi
	pop	ebp
	pop	ebx
	xor	ecx, esp
	call	@__security_check_cookie@4
	add	esp, 880				; 00000370H
	ret	0
$LN11@ssl3_send_:
; Line 2510
	push	2511					; 000009cfH
	push	OFFSET ??_C@_0BA@NMKJILMC@?4?2ssl?2s3_clnt?4c?$AA@
	push	68					; 00000044H
	push	152					; 00000098H
	push	20					; 00000014H
	call	_ERR_put_error
; Line 2512
	push	ebx
	call	_EVP_PKEY_free
	add	esp, 24					; 00000018H
; Line 2513
	jmp	$LN100@ssl3_send_
$LN5@ssl3_send_:
; Line 2690
	test	al, 14					; 0000000eH
	je	$LN16@ssl3_send_
; Line 2692
	mov	eax, DWORD PTR [esi+192]
	mov	eax, DWORD PTR [eax+152]
	mov	DWORD PTR _scert$1$[esp+896], eax
; Line 2694
	test	eax, eax
	jne	SHORT $LN18@ssl3_send_
; Line 2695
	push	10					; 0000000aH
	push	2
	push	esi
	call	_ssl3_send_alert
; Line 2696
	push	2697					; 00000a89H
	push	OFFSET ??_C@_0BA@NMKJILMC@?4?2ssl?2s3_clnt?4c?$AA@
	push	244					; 000000f4H
; Line 2698
	jmp	$LN109@ssl3_send_
$LN18@ssl3_send_:
; Line 2701
	mov	ebx, DWORD PTR [eax+240]
	test	ebx, ebx
	jne	SHORT $LN21@ssl3_send_
; Line 2704
	push	eax
	call	_get_server_static_dh_key
	mov	ebx, eax
	add	esp, 4
; Line 2705
	test	ebx, ebx
	je	$LN100@ssl3_send_
$LN21@ssl3_send_:
; Line 2709
	mov	eax, DWORD PTR [esi+88]
	test	BYTE PTR [eax], 16			; 00000010H
	je	SHORT $LN22@ssl3_send_
; Line 2711
	mov	eax, DWORD PTR [esi+152]
	mov	eax, DWORD PTR [eax]
	mov	eax, DWORD PTR [eax+4]
; Line 2713
	test	eax, eax
	je	SHORT $LN97@ssl3_send_
; Line 2714
	push	eax
	call	_EVP_PKEY_get1_DH
	mov	ebp, eax
	add	esp, 4
; Line 2715
	test	ebp, ebp
	jne	SHORT $LN27@ssl3_send_
$LN97@ssl3_send_:
; Line 2716
	push	2717					; 00000a9dH
; Line 2718
	jmp	$LN104@ssl3_send_
$LN22@ssl3_send_:
; Line 2722
	push	ebx
	call	_DHparams_dup
	mov	ebp, eax
	add	esp, 4
	test	ebp, ebp
	jne	SHORT $LN26@ssl3_send_
; Line 2723
	push	2723					; 00000aa3H
	push	OFFSET ??_C@_0BA@NMKJILMC@?4?2ssl?2s3_clnt?4c?$AA@
	push	5
	push	152					; 00000098H
	push	20					; 00000014H
	call	_ERR_put_error
	add	esp, 20					; 00000014H
	jmp	$LN100@ssl3_send_
$LN26@ssl3_send_:
; Line 2726
	push	ebp
	call	_DH_generate_key
	add	esp, 4
	test	eax, eax
	jne	SHORT $LN27@ssl3_send_
; Line 2727
	push	2727					; 00000aa7H
	push	OFFSET ??_C@_0BA@NMKJILMC@?4?2ssl?2s3_clnt?4c?$AA@
	push	5
	push	152					; 00000098H
	push	20					; 00000014H
	call	_ERR_put_error
; Line 2728
	push	ebp
	call	_DH_free
	add	esp, 24					; 00000018H
; Line 2729
	jmp	$LN100@ssl3_send_
$LN27@ssl3_send_:
; Line 2738
	push	ebp
	push	DWORD PTR [ebx+20]
	push	edi
	call	_DH_compute_key
	mov	edx, eax
	add	esp, 12					; 0000000cH
; Line 2739
	mov	eax, DWORD PTR _scert$1$[esp+896]
	mov	DWORD PTR _n$1$[esp+896], edx
	cmp	DWORD PTR [eax+240], 0
	jne	SHORT $LN28@ssl3_send_
; Line 2740
	push	ebx
	call	_DH_free
	mov	edx, DWORD PTR _n$1$[esp+900]
	add	esp, 4
$LN28@ssl3_send_:
; Line 2742
	test	edx, edx
	jg	SHORT $LN29@ssl3_send_
; Line 2743
	push	2743					; 00000ab7H
	push	OFFSET ??_C@_0BA@NMKJILMC@?4?2ssl?2s3_clnt?4c?$AA@
	push	5
	push	152					; 00000098H
	push	20					; 00000014H
	call	_ERR_put_error
; Line 2744
	push	ebp
	call	_DH_free
	add	esp, 24					; 00000018H
; Line 2745
	jmp	$LN100@ssl3_send_
$LN29@ssl3_send_:
; Line 2749
	mov	eax, DWORD PTR [esi+8]
	push	edx
	push	edi
	mov	ecx, DWORD PTR [eax+100]
	mov	eax, DWORD PTR [esi+192]
	add	eax, 20					; 00000014H
	push	eax
	mov	eax, DWORD PTR [ecx+12]
	push	esi
	call	eax
; Line 2755
	push	DWORD PTR _n$1$[esp+912]
	mov	ecx, DWORD PTR [esi+192]
	push	0
	push	edi
	mov	DWORD PTR [ecx+16], eax
	call	_memset
; Line 2757
	mov	eax, DWORD PTR [esi+88]
	add	esp, 28					; 0000001cH
	test	BYTE PTR [eax], 16			; 00000010H
	je	SHORT $LN30@ssl3_send_
; Line 2767
	push	ebp
	xor	ebx, ebx
	call	_DH_free
	add	esp, 4
; Line 2768
	jmp	$LN91@ssl3_send_
$LN30@ssl3_send_:
; Line 2761
	push	DWORD PTR [ebp+20]
	call	_BN_num_bits
	add	eax, 7
	cdq
	and	edx, 7
	lea	ebx, DWORD PTR [edx+eax]
	sar	ebx, 3
; Line 2762
	mov	eax, ebx
	mov	BYTE PTR [edi+1], bl
	sar	eax, 8
	mov	BYTE PTR [edi], al
	lea	eax, DWORD PTR [edi+2]
; Line 2763
	push	eax
	push	DWORD PTR [ebp+20]
	call	_BN_bn2bin
	add	esp, 12					; 0000000cH
; Line 2764
	add	ebx, 2
; Line 2767
	push	ebp
	call	_DH_free
	add	esp, 4
; Line 2768
	jmp	$LN91@ssl3_send_
$LN16@ssl3_send_:
; Line 2772
	test	al, 224					; 000000e0H
	je	$LN32@ssl3_send_
; Line 2778
	mov	eax, DWORD PTR [esi+192]
	mov	eax, DWORD PTR [eax+152]
	test	eax, eax
	jne	SHORT $LN34@ssl3_send_
; Line 2779
	push	10					; 0000000aH
	push	2
	push	esi
	call	_ssl3_send_alert
; Line 2780
	push	2781					; 00000addH
	push	OFFSET ??_C@_0BA@NMKJILMC@?4?2ssl?2s3_clnt?4c?$AA@
	push	244					; 000000f4H
	jmp	$LN109@ssl3_send_
$LN34@ssl3_send_:
; Line 2813
	mov	ebx, DWORD PTR [eax+244]
	test	ebx, ebx
	jne	SHORT $LN37@ssl3_send_
; Line 2817
	push	DWORD PTR [eax+152]
	call	_X509_get_pubkey
	mov	ebp, eax
	add	esp, 4
	mov	DWORD PTR _srvr_pub_pkey$1$[esp+896], ebp
; Line 2822
	test	ebp, ebp
	je	$LN39@ssl3_send_
	cmp	DWORD PTR [ebp], 408			; 00000198H
	jne	$LN39@ssl3_send_
	mov	ebx, DWORD PTR [ebp+20]
	test	ebx, ebx
	je	$LN39@ssl3_send_
$LN37@ssl3_send_:
; Line 2831
	push	ebx
	call	_EC_KEY_get0_group
; Line 2832
	push	ebx
	mov	ebp, eax
	call	_EC_KEY_get0_public_key
	add	esp, 8
	mov	ebx, eax
; Line 2834
	test	ebp, ebp
	je	$LN41@ssl3_send_
	test	ebx, ebx
	je	$LN41@ssl3_send_
; Line 2840
	call	_EC_KEY_new
	mov	DWORD PTR _clnt_ecdh$1$[esp+896], eax
	test	eax, eax
	jne	SHORT $LN42@ssl3_send_
; Line 2841
	push	2842					; 00000b1aH
	push	OFFSET ??_C@_0BA@NMKJILMC@?4?2ssl?2s3_clnt?4c?$AA@
	push	65					; 00000041H
; Line 2843
	jmp	$LN108@ssl3_send_
$LN42@ssl3_send_:
; Line 2846
	push	ebp
	push	eax
	call	_EC_KEY_set_group
	add	esp, 8
	test	eax, eax
	jne	SHORT $LN44@ssl3_send_
; Line 2847
	push	2847					; 00000b1fH
	push	OFFSET ??_C@_0BA@NMKJILMC@?4?2ssl?2s3_clnt?4c?$AA@
	push	16					; 00000010H
; Line 2848
	jmp	$LN108@ssl3_send_
$LN44@ssl3_send_:
; Line 2869
	push	DWORD PTR _clnt_ecdh$1$[esp+896]
	call	_EC_KEY_generate_key
	add	esp, 4
	test	eax, eax
	jne	SHORT $LN48@ssl3_send_
; Line 2870
	push	2871					; 00000b37H
	push	OFFSET ??_C@_0BA@NMKJILMC@?4?2ssl?2s3_clnt?4c?$AA@
	push	43					; 0000002bH
; Line 2872
	jmp	$LN108@ssl3_send_
$LN48@ssl3_send_:
; Line 2881
	push	ebp
	call	_EC_GROUP_get_degree
	add	esp, 4
; Line 2882
	test	eax, eax
	jg	SHORT $LN49@ssl3_send_
; Line 2883
	push	2883					; 00000b43H
	push	OFFSET ??_C@_0BA@NMKJILMC@?4?2ssl?2s3_clnt?4c?$AA@
	push	43					; 0000002bH
; Line 2884
	jmp	$LN108@ssl3_send_
$LN49@ssl3_send_:
; Line 2886
	add	eax, 7
	cdq
	push	0
	push	DWORD PTR _clnt_ecdh$1$[esp+900]
	and	edx, 7
	add	eax, edx
	push	ebx
	sar	eax, 3
	push	eax
	push	edi
	call	_ECDH_compute_key
	mov	ebx, eax
	add	esp, 20					; 00000014H
; Line 2888
	test	ebx, ebx
	jg	SHORT $LN50@ssl3_send_
; Line 2889
	push	2889					; 00000b49H
	push	OFFSET ??_C@_0BA@NMKJILMC@?4?2ssl?2s3_clnt?4c?$AA@
	push	43					; 0000002bH
; Line 2890
	jmp	$LN108@ssl3_send_
$LN50@ssl3_send_:
; Line 2894
	mov	eax, DWORD PTR [esi+8]
	push	ebx
	push	edi
	mov	ecx, DWORD PTR [eax+100]
	mov	eax, DWORD PTR [esi+192]
	add	eax, 20					; 00000014H
	push	eax
	mov	eax, DWORD PTR [ecx+12]
	push	esi
	call	eax
	mov	ecx, DWORD PTR [esi+192]
; Line 2900
	push	ebx
	push	0
	push	edi
	mov	DWORD PTR [ecx+16], eax
	call	_memset
	add	esp, 28					; 0000001cH
; Line 2910
	push	0
	push	0
	push	0
	push	4
	push	DWORD PTR _clnt_ecdh$1$[esp+912]
	call	_EC_KEY_get0_public_key
	add	esp, 4
	push	eax
	push	ebp
	call	_EC_POINT_point2oct
; Line 2916
	push	2917					; 00000b65H
	mov	ebx, eax
	push	OFFSET ??_C@_0BA@NMKJILMC@?4?2ssl?2s3_clnt?4c?$AA@
	push	ebx
	call	_CRYPTO_malloc
	add	esp, 36					; 00000024H
	mov	DWORD PTR _encodedPoint$1$[esp+896], eax
; Line 2918
	call	_BN_CTX_new
	mov	ecx, eax
; Line 2919
	mov	eax, DWORD PTR _encodedPoint$1$[esp+896]
	mov	DWORD PTR _bn_ctx$1$[esp+896], ecx
	test	eax, eax
	je	SHORT $LN54@ssl3_send_
	test	ecx, ecx
	je	SHORT $LN54@ssl3_send_
; Line 2926
	push	ecx
	push	ebx
	push	eax
	push	4
	push	DWORD PTR _clnt_ecdh$1$[esp+912]
	call	_EC_KEY_get0_public_key
	add	esp, 4
	push	eax
	push	ebp
	call	_EC_POINT_point2oct
; Line 2935
	mov	ebp, DWORD PTR _encodedPoint$1$[esp+920]
	mov	ebx, eax
	push	ebx
	lea	eax, DWORD PTR [edi+1]
	mov	BYTE PTR [edi], bl
	push	ebp
	push	eax
	call	_memcpy
; Line 2941
	push	DWORD PTR _bn_ctx$1$[esp+932]
	inc	ebx
	call	_BN_CTX_free
; Line 2943
	push	ebp
	call	_CRYPTO_free
; Line 2945
	push	DWORD PTR _clnt_ecdh$1$[esp+940]
	call	_EC_KEY_free
; Line 2946
	push	DWORD PTR _srvr_pub_pkey$1$[esp+944]
	call	_EVP_PKEY_free
	add	esp, 52					; 00000034H
; Line 2947
	jmp	$LN91@ssl3_send_
$LN54@ssl3_send_:
; Line 2920
	push	2921					; 00000b69H
	push	OFFSET ??_C@_0BA@NMKJILMC@?4?2ssl?2s3_clnt?4c?$AA@
	push	65					; 00000041H
; Line 2922
	jmp	SHORT $LN108@ssl3_send_
$LN41@ssl3_send_:
; Line 2835
	push	2836					; 00000b14H
	push	OFFSET ??_C@_0BA@NMKJILMC@?4?2ssl?2s3_clnt?4c?$AA@
	push	68					; 00000044H
$LN108@ssl3_send_:
	push	152					; 00000098H
	push	20					; 00000014H
	call	_ERR_put_error
; Line 2837
	mov	ebp, DWORD PTR _srvr_pub_pkey$1$[esp+916]
	add	esp, 20					; 00000014H
	jmp	$err$111
$LN39@ssl3_send_:
; Line 2823
	push	2824					; 00000b08H
	push	OFFSET ??_C@_0BA@NMKJILMC@?4?2ssl?2s3_clnt?4c?$AA@
	push	68					; 00000044H
	push	152					; 00000098H
	push	20					; 00000014H
	call	_ERR_put_error
	add	esp, 20					; 00000014H
; Line 2825
	jmp	$err$111
$LN32@ssl3_send_:
; Line 2949
	test	eax, 512				; 00000200H
	je	$LN57@ssl3_send_
; Line 2963
	mov	eax, DWORD PTR [esi+192]
	mov	ecx, DWORD PTR [eax+152]
	mov	eax, DWORD PTR [ecx+208]
; Line 2966
	test	eax, eax
	jne	SHORT $LN60@ssl3_send_
; Line 2967
	mov	eax, DWORD PTR [ecx+180]
; Line 2970
	test	eax, eax
	jne	SHORT $LN60@ssl3_send_
; Line 2971
	push	2972					; 00000b9cH
	push	OFFSET ??_C@_0BA@NMKJILMC@?4?2ssl?2s3_clnt?4c?$AA@
	push	330					; 0000014aH
	push	152					; 00000098H
	push	20					; 00000014H
	call	_ERR_put_error
	add	esp, 20					; 00000014H
	jmp	$LN100@ssl3_send_
$LN60@ssl3_send_:
; Line 2976
	push	eax
	call	_X509_get_pubkey
	push	0
	push	eax
	mov	DWORD PTR _pub_key$1$[esp+908], eax
	call	_EVP_PKEY_CTX_new
	mov	ebp, eax
	add	esp, 12					; 0000000cH
; Line 2978
	test	ebp, ebp
	jne	SHORT $LN61@ssl3_send_
; Line 2979
	push	2980					; 00000ba4H
	push	OFFSET ??_C@_0BA@NMKJILMC@?4?2ssl?2s3_clnt?4c?$AA@
	push	65					; 00000041H
	push	152					; 00000098H
	push	20					; 00000014H
	call	_ERR_put_error
	add	esp, 20					; 00000014H
	jmp	$LN100@ssl3_send_
$LN61@ssl3_send_:
; Line 2995
	push	ebp
	call	_EVP_PKEY_encrypt_init
	add	esp, 4
	test	eax, eax
	jle	$LN63@ssl3_send_
	lea	eax, DWORD PTR _premaster_secret$5[esp+896]
	push	32					; 00000020H
	push	eax
	call	_RAND_bytes
	add	esp, 8
	test	eax, eax
	jle	$LN63@ssl3_send_
; Line 3004
	mov	eax, DWORD PTR [esi+88]
	cmp	DWORD PTR [eax+856], 0
	je	SHORT $LN65@ssl3_send_
	mov	eax, DWORD PTR [esi+152]
	mov	eax, DWORD PTR [eax]
	mov	eax, DWORD PTR [eax+4]
	test	eax, eax
	je	SHORT $LN65@ssl3_send_
; Line 3006
	push	eax
	push	ebp
	call	_EVP_PKEY_derive_set_peer
	add	esp, 8
	test	eax, eax
	jg	SHORT $LN65@ssl3_send_
; Line 3011
	call	_ERR_clear_error
$LN65@ssl3_send_:
; Line 3018
	call	_EVP_MD_CTX_create
; Line 3025
	push	809					; 00000329H
	mov	ebx, eax
	call	_OBJ_nid2sn
	push	eax
	call	_EVP_get_digestbyname
	push	eax
	push	ebx
	call	_EVP_DigestInit
	add	esp, 16					; 00000010H
	test	eax, eax
	jle	$LN67@ssl3_send_
	mov	eax, DWORD PTR [esi+88]
	push	32					; 00000020H
	add	eax, 192				; 000000c0H
	push	eax
	push	ebx
	call	_EVP_DigestUpdate
	add	esp, 12					; 0000000cH
	test	eax, eax
	jle	$LN67@ssl3_send_
	mov	eax, DWORD PTR [esi+88]
	push	32					; 00000020H
	add	eax, 160				; 000000a0H
	push	eax
	push	ebx
	call	_EVP_DigestUpdate
	add	esp, 12					; 0000000cH
	test	eax, eax
	jle	$LN67@ssl3_send_
	lea	eax, DWORD PTR _md_len$2[esp+896]
	push	eax
	lea	eax, DWORD PTR _shared_ukm$3[esp+900]
	push	eax
	push	ebx
	call	_EVP_DigestFinal_ex
	add	esp, 12					; 0000000cH
	test	eax, eax
	jle	$LN67@ssl3_send_
; Line 3031
	push	ebx
	call	_EVP_MD_CTX_destroy
; Line 3034
	lea	eax, DWORD PTR _shared_ukm$3[esp+900]
	push	eax
	push	8
	push	8
	push	256					; 00000100H
	push	-1
	push	ebp
	call	_EVP_PKEY_CTX_ctrl
	add	esp, 28					; 0000001cH
	test	eax, eax
	jns	SHORT $LN68@ssl3_send_
; Line 3035
	push	3036					; 00000bdcH
	push	OFFSET ??_C@_0BA@NMKJILMC@?4?2ssl?2s3_clnt?4c?$AA@
	push	274					; 00000112H
	push	152					; 00000098H
	push	20					; 00000014H
	call	_ERR_put_error
	add	esp, 20					; 00000014H
	jmp	$LN100@ssl3_send_
$LN68@ssl3_send_:
; Line 3046
	push	32					; 00000020H
	lea	eax, DWORD PTR _premaster_secret$5[esp+900]
	mov	BYTE PTR [edi], 48			; 00000030H
	push	eax
	lea	eax, DWORD PTR _msglen$1[esp+904]
	mov	DWORD PTR _msglen$1[esp+904], 255	; 000000ffH
	push	eax
	lea	eax, DWORD PTR _tmp$7[esp+908]
	push	eax
	push	ebp
	call	_EVP_PKEY_encrypt
	add	esp, 20					; 00000014H
	test	eax, eax
	jg	SHORT $LN69@ssl3_send_
; Line 3047
	push	3048					; 00000be8H
	push	OFFSET ??_C@_0BA@NMKJILMC@?4?2ssl?2s3_clnt?4c?$AA@
	push	274					; 00000112H
	push	152					; 00000098H
	push	20					; 00000014H
	call	_ERR_put_error
	add	esp, 20					; 00000014H
	jmp	$LN100@ssl3_send_
$LN69@ssl3_send_:
; Line 3051
	mov	eax, DWORD PTR _msglen$1[esp+896]
	cmp	eax, 128				; 00000080H
	jb	SHORT $LN70@ssl3_send_
; Line 3052
	mov	BYTE PTR [edi+1], 129			; 00000081H
; Line 3054
	lea	ebx, DWORD PTR [eax+3]
	mov	BYTE PTR [edi+2], al
	add	edi, 3
; Line 3055
	jmp	SHORT $LN71@ssl3_send_
$LN70@ssl3_send_:
; Line 3056
	mov	BYTE PTR [edi+1], al
; Line 3057
	lea	ebx, DWORD PTR [eax+2]
	add	edi, 2
$LN71@ssl3_send_:
; Line 3059
	push	eax
	lea	eax, DWORD PTR _tmp$7[esp+900]
	push	eax
	push	edi
	call	_memcpy
; Line 3062
	push	0
	push	2
	push	2
	push	-1
	push	-1
	push	ebp
	call	_EVP_PKEY_CTX_ctrl
	add	esp, 36					; 00000024H
	test	eax, eax
	jle	SHORT $LN72@ssl3_send_
; Line 3064
	mov	eax, DWORD PTR [esi+88]
	or	DWORD PTR [eax], 16			; 00000010H
$LN72@ssl3_send_:
; Line 3066
	push	ebp
	call	_EVP_PKEY_CTX_free
; Line 3067
	mov	eax, DWORD PTR [esi+8]
	push	32					; 00000020H
	mov	ecx, DWORD PTR [eax+100]
	lea	eax, DWORD PTR _premaster_secret$5[esp+904]
	push	eax
	mov	eax, DWORD PTR [esi+192]
	add	eax, 20					; 00000014H
	push	eax
	mov	eax, DWORD PTR [ecx+12]
	push	esi
	call	eax
	mov	ecx, DWORD PTR [esi+192]
; Line 3073
	push	DWORD PTR _pub_key$1$[esp+916]
	mov	DWORD PTR [ecx+16], eax
	call	_EVP_PKEY_free
; Line 3075
	jmp	$LN103@ssl3_send_
$LN67@ssl3_send_:
; Line 3026
	push	ebx
	call	_EVP_MD_CTX_destroy
; Line 3027
	push	3028					; 00000bd4H
$LN107@ssl3_send_:
	push	OFFSET ??_C@_0BA@NMKJILMC@?4?2ssl?2s3_clnt?4c?$AA@
	push	68					; 00000044H
	push	152					; 00000098H
	push	20					; 00000014H
	call	_ERR_put_error
	add	esp, 24					; 00000018H
; Line 3029
	jmp	$LN100@ssl3_send_
$LN63@ssl3_send_:
; Line 2996
	push	ebp
	call	_EVP_PKEY_CTX_free
; Line 2997
	push	2998					; 00000bb6H
; Line 2999
	jmp	SHORT $LN107@ssl3_send_
$LN57@ssl3_send_:
; Line 3077
	test	eax, 1024				; 00000400H
	je	$LN73@ssl3_send_
; Line 3078
	mov	eax, DWORD PTR [esi+440]
	test	eax, eax
	je	$LN75@ssl3_send_
; Line 3080
	push	eax
	call	_BN_num_bits
	add	eax, 7
	cdq
	and	edx, 7
	lea	ebx, DWORD PTR [edx+eax]
	sar	ebx, 3
; Line 3081
	mov	eax, ebx
	mov	BYTE PTR [edi+1], bl
	sar	eax, 8
	mov	BYTE PTR [edi], al
	lea	eax, DWORD PTR [edi+2]
; Line 3082
	push	eax
	push	DWORD PTR [esi+440]
	call	_BN_bn2bin
; Line 3089
	mov	eax, DWORD PTR [esi+192]
	add	esp, 12					; 0000000cH
	add	ebx, 2
	mov	eax, DWORD PTR [eax+240]
	test	eax, eax
	je	SHORT $LN77@ssl3_send_
; Line 3090
	push	eax
	call	_CRYPTO_free
	add	esp, 4
$LN77@ssl3_send_:
; Line 3091
	push	DWORD PTR [esi+420]
	call	_BUF_strdup
	mov	ecx, DWORD PTR [esi+192]
	add	esp, 4
	mov	DWORD PTR [ecx+240], eax
; Line 3092
	mov	eax, DWORD PTR [esi+192]
	cmp	DWORD PTR [eax+240], ebp
	jne	SHORT $LN78@ssl3_send_
; Line 3093
	push	3094					; 00000c16H
	push	OFFSET ??_C@_0BA@NMKJILMC@?4?2ssl?2s3_clnt?4c?$AA@
	push	65					; 00000041H
	push	152					; 00000098H
	push	20					; 00000014H
	call	_ERR_put_error
	add	esp, 20					; 00000014H
	jmp	$LN100@ssl3_send_
$LN78@ssl3_send_:
; Line 3100
	add	eax, 20					; 00000014H
	push	eax
	push	esi
	call	_SRP_generate_client_master_secret
	mov	ecx, DWORD PTR [esi+192]
	add	esp, 8
	mov	DWORD PTR [ecx+16], eax
	test	eax, eax
	jns	$LN91@ssl3_send_
; Line 3102
	push	3103					; 00000c1fH
; Line 3104
	jmp	$LN104@ssl3_send_
$LN75@ssl3_send_:
; Line 3085
	push	3086					; 00000c0eH
; Line 3087
	jmp	$LN104@ssl3_send_
$LN73@ssl3_send_:
; Line 3109
	test	eax, 256				; 00000100H
	je	$LN80@ssl3_send_
; Line 3123
	mov	ebp, DWORD PTR [esi+220]
	xor	ebx, ebx
	mov	DWORD PTR _psk_err$1$[esp+896], 1
	test	ebp, ebp
	jne	SHORT $LN82@ssl3_send_
; Line 3124
	push	3125					; 00000c35H
	push	OFFSET ??_C@_0BA@NMKJILMC@?4?2ssl?2s3_clnt?4c?$AA@
	push	224					; 000000e0H
	push	152					; 00000098H
	push	20					; 00000014H
	call	_ERR_put_error
	add	esp, 20					; 00000014H
	jmp	$LN100@ssl3_send_
$LN82@ssl3_send_:
; Line 3129
	push	130					; 00000082H
	lea	eax, DWORD PTR _identity$6[esp+900]
	push	0
	push	eax
	call	_memset
; Line 3130
	push	516					; 00000204H
	lea	eax, DWORD PTR _psk_or_pre_ms$8[esp+912]
	push	eax
	push	129					; 00000081H
	lea	eax, DWORD PTR _identity$6[esp+920]
	push	eax
	mov	eax, DWORD PTR [esi+192]
	push	DWORD PTR [eax+140]
	push	esi
	call	ebp
	mov	edx, eax
	add	esp, 36					; 00000024H
	mov	DWORD PTR _psk_len$1$[esp+896], edx
; Line 3134
	cmp	edx, 256				; 00000100H
	jbe	SHORT $LN83@ssl3_send_
; Line 3135
	push	3136					; 00000c40H
$LN101@ssl3_send_:
	push	OFFSET ??_C@_0BA@NMKJILMC@?4?2ssl?2s3_clnt?4c?$AA@
	push	68					; 00000044H
	push	152					; 00000098H
	push	20					; 00000014H
	call	_ERR_put_error
	add	esp, 20					; 00000014H
; Line 3137
	jmp	$psk_err$112
$LN83@ssl3_send_:
; Line 3138
	test	edx, edx
	jne	SHORT $LN85@ssl3_send_
; Line 3139
	push	3140					; 00000c44H
	push	OFFSET ??_C@_0BA@NMKJILMC@?4?2ssl?2s3_clnt?4c?$AA@
	push	223					; 000000dfH
	push	152					; 00000098H
	push	20					; 00000014H
	call	_ERR_put_error
	add	esp, 20					; 00000014H
; Line 3141
	jmp	$psk_err$112
$LN85@ssl3_send_:
; Line 3144
	lea	ecx, DWORD PTR _identity$6[esp+896]
	mov	BYTE PTR _identity$6[esp+1025], bl
	lea	ebp, DWORD PTR [ecx+1]
$LL98@ssl3_send_:
	mov	al, BYTE PTR [ecx]
	inc	ecx
	test	al, al
	jne	SHORT $LL98@ssl3_send_
	sub	ecx, ebp
	mov	DWORD PTR _identity_len$1$[esp+896], ecx
; Line 3145
	cmp	ecx, 128				; 00000080H
	jbe	SHORT $LN86@ssl3_send_
; Line 3146
	push	3147					; 00000c4bH
; Line 3148
	jmp	SHORT $LN101@ssl3_send_
$LN86@ssl3_send_:
; Line 3153
	push	edx
	lea	eax, DWORD PTR _psk_or_pre_ms$8[esp+900]
	push	eax
	lea	eax, DWORD PTR _psk_or_pre_ms$8[esp+908]
	add	eax, edx
	lea	ebp, DWORD PTR [edx*2+4]
	push	eax
	call	DWORD PTR __imp__memmove
; Line 3154
	mov	eax, DWORD PTR _psk_len$1$[esp+908]
	mov	ebx, eax
; Line 3155
	push	eax
	mov	BYTE PTR _psk_or_pre_ms$8[esp+913], al
	lea	eax, DWORD PTR _psk_or_pre_ms$8[esp+914]
	push	0
	shr	ebx, 8
	push	eax
	mov	BYTE PTR _psk_or_pre_ms$8[esp+920], bl
	call	_memset
; Line 3157
	mov	eax, DWORD PTR _psk_len$1$[esp+920]
	add	esp, 24					; 00000018H
	mov	BYTE PTR _psk_or_pre_ms$8[esp+eax+898], bl
	mov	BYTE PTR _psk_or_pre_ms$8[esp+eax+899], al
; Line 3159
	mov	eax, DWORD PTR [esi+192]
	mov	eax, DWORD PTR [eax+140]
	test	eax, eax
	je	SHORT $LN87@ssl3_send_
; Line 3160
	push	eax
	call	_CRYPTO_free
	add	esp, 4
$LN87@ssl3_send_:
; Line 3161
	mov	eax, DWORD PTR [esi+228]
	push	DWORD PTR [eax+332]
	call	_BUF_strdup
	mov	ecx, DWORD PTR [esi+192]
	add	esp, 4
	mov	DWORD PTR [ecx+140], eax
; Line 3164
	mov	eax, DWORD PTR [esi+228]
	cmp	DWORD PTR [eax+332], 0
	je	SHORT $LN88@ssl3_send_
	mov	eax, DWORD PTR [esi+192]
	cmp	DWORD PTR [eax+140], 0
	jne	SHORT $LN88@ssl3_send_
; Line 3165
	push	3166					; 00000c5eH
$LN102@ssl3_send_:
	push	OFFSET ??_C@_0BA@NMKJILMC@?4?2ssl?2s3_clnt?4c?$AA@
	push	65					; 00000041H
	push	152					; 00000098H
	push	20					; 00000014H
	call	_ERR_put_error
	add	esp, 20					; 00000014H
; Line 3167
	xor	ebx, ebx
	jmp	$psk_err$112
$LN88@ssl3_send_:
; Line 3170
	mov	eax, DWORD PTR [esi+192]
	mov	eax, DWORD PTR [eax+144]
	test	eax, eax
	je	SHORT $LN89@ssl3_send_
; Line 3171
	push	eax
	call	_CRYPTO_free
	add	esp, 4
$LN89@ssl3_send_:
; Line 3172
	lea	eax, DWORD PTR _identity$6[esp+896]
	push	eax
	call	_BUF_strdup
	mov	ecx, DWORD PTR [esi+192]
	add	esp, 4
	mov	DWORD PTR [ecx+144], eax
; Line 3173
	mov	edx, DWORD PTR [esi+192]
	cmp	DWORD PTR [edx+144], 0
	jne	SHORT $LN90@ssl3_send_
; Line 3174
	push	3175					; 00000c67H
; Line 3176
	jmp	SHORT $LN102@ssl3_send_
$LN90@ssl3_send_:
; Line 3179
	mov	eax, DWORD PTR [esi+8]
	push	ebp
	mov	ecx, DWORD PTR [eax+100]
	lea	eax, DWORD PTR _psk_or_pre_ms$8[esp+900]
	push	eax
	lea	eax, DWORD PTR [edx+20]
	push	eax
	mov	eax, DWORD PTR [ecx+12]
	push	esi
	call	eax
	mov	ecx, DWORD PTR [esi+192]
; Line 3185
	mov	ebx, DWORD PTR _identity_len$1$[esp+912]
; Line 3186
	push	ebx
	mov	DWORD PTR [ecx+16], eax
	mov	eax, ebx
	shr	eax, 8
	mov	BYTE PTR [edi], al
	lea	eax, DWORD PTR _identity$6[esp+916]
	push	eax
	lea	eax, DWORD PTR [edi+2]
	mov	BYTE PTR [edi+1], bl
	push	eax
	call	_memcpy
	add	esp, 28					; 0000001cH
; Line 3188
	mov	DWORD PTR _psk_err$1$[esp+896], 0
	add	ebx, 2
$psk_err$112:
; Line 3190
	lea	eax, DWORD PTR _identity$6[esp+896]
	push	130					; 00000082H
	push	eax
	call	_OPENSSL_cleanse
; Line 3191
	lea	eax, DWORD PTR _psk_or_pre_ms$8[esp+904]
	push	516					; 00000204H
	push	eax
	call	_OPENSSL_cleanse
	add	esp, 16					; 00000010H
; Line 3192
	cmp	DWORD PTR _psk_err$1$[esp+896], 0
	je	$LN91@ssl3_send_
; Line 3193
	push	40					; 00000028H
	push	2
	push	esi
	call	_ssl3_send_alert
	add	esp, 12					; 0000000cH
; Line 3194
	jmp	SHORT $LN100@ssl3_send_
$LN80@ssl3_send_:
; Line 3199
	push	40					; 00000028H
	push	2
	push	esi
	call	_ssl3_send_alert
; Line 3200
	push	3200					; 00000c80H
	push	OFFSET ??_C@_0BA@NMKJILMC@?4?2ssl?2s3_clnt?4c?$AA@
	push	68					; 00000044H
$LN109@ssl3_send_:
	push	152					; 00000098H
	push	20					; 00000014H
	call	_ERR_put_error
	add	esp, 32					; 00000020H
$LN100@ssl3_send_:
	xor	ebp, ebp
$err$111:
; Line 3212
	push	DWORD PTR _bn_ctx$1$[esp+896]
	call	_BN_CTX_free
; Line 3213
	mov	eax, DWORD PTR _encodedPoint$1$[esp+900]
	add	esp, 4
	test	eax, eax
	je	SHORT $LN92@ssl3_send_
; Line 3214
	push	eax
	call	_CRYPTO_free
	add	esp, 4
$LN92@ssl3_send_:
; Line 3215
	mov	eax, DWORD PTR _clnt_ecdh$1$[esp+896]
	test	eax, eax
	je	SHORT $LN93@ssl3_send_
; Line 3216
	push	eax
	call	_EC_KEY_free
	add	esp, 4
$LN93@ssl3_send_:
; Line 3217
	push	ebp
	call	_EVP_PKEY_free
	add	esp, 4
; Line 3219
	mov	DWORD PTR [esi+52], 5
; Line 3220
	or	eax, -1
	jmp	$LN1@ssl3_send_
_ssl3_send_client_key_exchange ENDP
_TEXT	ENDS
; Function compile flags: /Ogtpy
;	COMDAT _ssl_do_client_cert_cb
_TEXT	SEGMENT
_s$ = 8							; size = 4
_px509$ = 12						; size = 4
_ppkey$ = 16						; size = 4
_ssl_do_client_cert_cb PROC				; COMDAT
; File c:\workpace\openssl\openssl-1.0.2h\ssl\s3_clnt.c
; Line 3749
	push	esi
; Line 3752
	mov	esi, DWORD PTR _s$[esp]
	xor	ecx, ecx
	mov	eax, DWORD PTR [esi+228]
	cmp	DWORD PTR [eax+252], ecx
	je	SHORT $LN3@ssl_do_cli
; Line 3753
	push	ecx
	push	ecx
	push	ecx
	push	DWORD PTR _ppkey$[esp+12]
	push	DWORD PTR _px509$[esp+16]
	push	esi
	call	_SSL_get_client_CA_list
	add	esp, 4
	push	eax
	mov	eax, DWORD PTR [esi+228]
	push	esi
	push	DWORD PTR [eax+252]
	call	_ENGINE_load_ssl_client_cert
	mov	ecx, eax
	add	esp, 32					; 00000020H
; Line 3756
	test	ecx, ecx
	jne	SHORT $LN1@ssl_do_cli
$LN3@ssl_do_cli:
; Line 3760
	mov	eax, DWORD PTR [esi+228]
	mov	eax, DWORD PTR [eax+116]
	test	eax, eax
	je	SHORT $LN4@ssl_do_cli
; Line 3761
	push	DWORD PTR _ppkey$[esp]
	push	DWORD PTR _px509$[esp+4]
	push	esi
	call	eax
	add	esp, 12					; 0000000cH
	mov	ecx, eax
$LN4@ssl_do_cli:
; Line 3762
	mov	eax, ecx
$LN1@ssl_do_cli:
	pop	esi
; Line 3763
	ret	0
_ssl_do_client_cert_cb ENDP
_TEXT	ENDS
; Function compile flags: /Ogtpy
;	COMDAT _ssl3_send_client_certificate
_TEXT	SEGMENT
_pkey$ = -8						; size = 4
_x509$ = -4						; size = 4
_s$ = 8							; size = 4
_ssl3_send_client_certificate PROC			; COMDAT
; File c:\workpace\openssl\openssl-1.0.2h\ssl\s3_clnt.c
; Line 3400
	mov	eax, 8
	call	__chkstk
	push	esi
; Line 3405
	mov	esi, DWORD PTR _s$[esp+8]
	mov	DWORD PTR _x509$[esp+12], 0
	mov	DWORD PTR _pkey$[esp+12], 0
	cmp	DWORD PTR [esi+52], 4464		; 00001170H
	jne	SHORT $LN6@ssl3_send_
; Line 3407
	mov	eax, DWORD PTR [esi+152]
	mov	ecx, DWORD PTR [eax+324]
	test	ecx, ecx
	je	SHORT $LN3@ssl3_send_
; Line 3408
	push	DWORD PTR [eax+328]
	push	esi
	call	ecx
	add	esp, 8
; Line 3409
	test	eax, eax
	jns	SHORT $LN29@ssl3_send_
; Line 3410
	mov	DWORD PTR [esi+24], 4
; Line 3411
	or	eax, -1
	pop	esi
; Line 3481
	add	esp, 8
	ret	0
$LN29@ssl3_send_:
; Line 3413
	jne	SHORT $LN5@ssl3_send_
; Line 3414
	push	80					; 00000050H
	push	2
	push	esi
	call	_ssl3_send_alert
	add	esp, 12					; 0000000cH
; Line 3415
	mov	DWORD PTR [esi+52], 5
; Line 3416
	xor	eax, eax
	pop	esi
; Line 3481
	add	esp, 8
	ret	0
$LN5@ssl3_send_:
; Line 3418
	mov	DWORD PTR [esi+24], 1
$LN3@ssl3_send_:
; Line 3420
	push	esi
	call	_ssl3_check_client_certificate
	add	esp, 4
	neg	eax
	sbb	eax, eax
	neg	eax
	add	eax, 4465				; 00001171H
	mov	DWORD PTR [esi+52], eax
$LN6@ssl3_send_:
; Line 3427
	cmp	DWORD PTR [esi+52], 4465		; 00001171H
	push	edi
	jne	$LN8@ssl3_send_
; Line 3432
	lea	eax, DWORD PTR _pkey$[esp+16]
	push	eax
	lea	eax, DWORD PTR _x509$[esp+20]
	push	eax
	push	esi
	call	_ssl_do_client_cert_cb
	mov	edi, eax
	add	esp, 12					; 0000000cH
; Line 3433
	test	edi, edi
	jns	SHORT $LN9@ssl3_send_
; Line 3434
	pop	edi
	mov	DWORD PTR [esi+24], 4
; Line 3435
	or	eax, -1
	pop	esi
; Line 3481
	add	esp, 8
	ret	0
$LN9@ssl3_send_:
; Line 3437
	mov	DWORD PTR [esi+24], 1
; Line 3438
	cmp	edi, 1
	jne	SHORT $LN14@ssl3_send_
	cmp	DWORD PTR _pkey$[esp+16], 0
	je	SHORT $LN27@ssl3_send_
	mov	eax, DWORD PTR _x509$[esp+16]
	test	eax, eax
	je	SHORT $LN27@ssl3_send_
; Line 3440
	push	eax
	push	esi
	mov	DWORD PTR [esi+52], 4465		; 00001171H
	call	_SSL_use_certificate
	add	esp, 8
	test	eax, eax
	je	SHORT $LN13@ssl3_send_
	push	DWORD PTR _pkey$[esp+16]
	push	esi
	call	_SSL_use_PrivateKey
	add	esp, 8
	test	eax, eax
	jne	SHORT $LN14@ssl3_send_
$LN13@ssl3_send_:
; Line 3441
	xor	edi, edi
; Line 3442
	jmp	SHORT $LN14@ssl3_send_
$LN27@ssl3_send_:
; Line 3444
	push	3445					; 00000d75H
	push	OFFSET ??_C@_0BA@NMKJILMC@?4?2ssl?2s3_clnt?4c?$AA@
	push	106					; 0000006aH
	push	151					; 00000097H
	push	20					; 00000014H
	xor	edi, edi
	call	_ERR_put_error
	add	esp, 20					; 00000014H
$LN14@ssl3_send_:
; Line 3448
	mov	eax, DWORD PTR _x509$[esp+16]
	test	eax, eax
	je	SHORT $LN15@ssl3_send_
; Line 3449
	push	eax
	call	_X509_free
	add	esp, 4
$LN15@ssl3_send_:
; Line 3450
	mov	eax, DWORD PTR _pkey$[esp+16]
	test	eax, eax
	je	SHORT $LN16@ssl3_send_
; Line 3451
	push	eax
	call	_EVP_PKEY_free
	add	esp, 4
$LN16@ssl3_send_:
; Line 3452
	test	edi, edi
	je	SHORT $LN26@ssl3_send_
	push	esi
	call	_ssl3_check_client_certificate
	add	esp, 4
	test	eax, eax
	jne	SHORT $LN20@ssl3_send_
$LN26@ssl3_send_:
; Line 3455
	cmp	DWORD PTR [esi], 768			; 00000300H
; Line 3456
	mov	eax, DWORD PTR [esi+88]
	jne	SHORT $LN19@ssl3_send_
; Line 3457
	push	41					; 00000029H
	push	1
	push	esi
	mov	DWORD PTR [eax+856], 0
	call	_ssl3_send_alert
	add	esp, 12					; 0000000cH
; Line 3458
	mov	eax, 1
	pop	edi
	pop	esi
; Line 3481
	add	esp, 8
	ret	0
$LN19@ssl3_send_:
; Line 3460
	mov	DWORD PTR [eax+856], 2
$LN20@ssl3_send_:
; Line 3465
	mov	DWORD PTR [esi+52], 4466		; 00001172H
$LN8@ssl3_send_:
; Line 3468
	cmp	DWORD PTR [esi+52], 4466		; 00001172H
	jne	SHORT $LN22@ssl3_send_
; Line 3470
	mov	eax, DWORD PTR [esi+88]
	mov	DWORD PTR [esi+52], 4467		; 00001173H
	cmp	DWORD PTR [eax+856], 2
	jne	SHORT $LN24@ssl3_send_
	xor	eax, eax
	jmp	SHORT $LN25@ssl3_send_
$LN24@ssl3_send_:
	mov	eax, DWORD PTR [esi+152]
	mov	eax, DWORD PTR [eax]
$LN25@ssl3_send_:
	push	eax
	push	esi
	call	_ssl3_output_cert_chain
	add	esp, 8
	test	eax, eax
	jne	SHORT $LN22@ssl3_send_
; Line 3473
	push	3473					; 00000d91H
	push	OFFSET ??_C@_0BA@NMKJILMC@?4?2ssl?2s3_clnt?4c?$AA@
	push	68					; 00000044H
	push	151					; 00000097H
	push	20					; 00000014H
	call	_ERR_put_error
; Line 3474
	push	80					; 00000050H
	push	2
	push	esi
	call	_ssl3_send_alert
	add	esp, 32					; 00000020H
; Line 3475
	mov	DWORD PTR [esi+52], 5
; Line 3476
	xor	eax, eax
	pop	edi
	pop	esi
; Line 3481
	add	esp, 8
	ret	0
$LN22@ssl3_send_:
; Line 3480
	mov	eax, DWORD PTR [esi+8]
	push	esi
	mov	eax, DWORD PTR [eax+100]
	mov	eax, DWORD PTR [eax+68]
	call	eax
	add	esp, 4
	pop	edi
	pop	esi
; Line 3481
	add	esp, 8
	ret	0
_ssl3_send_client_certificate ENDP
_TEXT	ENDS
; Function compile flags: /Ogtpy
;	COMDAT _ssl3_send_client_verify
_TEXT	SEGMENT
_j$ = -148						; size = 4
_u$ = -144						; size = 4
_sigsize$1 = -140					; size = 4
_hdata$2 = -140						; size = 4
_md$1$ = -136						; size = 4
_hdatalen$1$ = -132					; size = 4
_mctx$ = -128						; size = 24
_data$ = -104						; size = 36
_signbuf$3 = -68					; size = 64
__$ArrayPad$ = -4					; size = 4
_s$ = 8							; size = 4
_ssl3_send_client_verify PROC				; COMDAT
; File c:\workpace\openssl\openssl-1.0.2h\ssl\s3_clnt.c
; Line 3224
	mov	eax, 148				; 00000094H
	call	__chkstk
	mov	eax, DWORD PTR ___security_cookie
	xor	eax, esp
	mov	DWORD PTR __$ArrayPad$[esp+148], eax
	push	ebx
	push	ebp
	push	esi
	push	edi
	mov	edi, DWORD PTR _s$[esp+160]
; Line 3234
	lea	eax, DWORD PTR _mctx$[esp+164]
	xor	ebp, ebp
	push	eax
	mov	DWORD PTR _u$[esp+168], ebp
	call	_EVP_MD_CTX_init
	add	esp, 4
; Line 3236
	cmp	DWORD PTR [edi+52], 4496		; 00001190H
	jne	$LN5@ssl3_send_
; Line 3237
	mov	eax, DWORD PTR [edi+8]
	mov	ecx, DWORD PTR [edi+60]
; Line 3240
	push	ebp
	mov	eax, DWORD PTR [eax+100]
	mov	esi, DWORD PTR [ecx+4]
	add	esi, DWORD PTR [eax+60]
	mov	eax, DWORD PTR [edi+152]
	mov	eax, DWORD PTR [eax]
	mov	ebx, DWORD PTR [eax+4]
	push	ebx
	call	_EVP_PKEY_CTX_new
	mov	ebp, eax
	add	esp, 8
; Line 3241
	test	ebp, ebp
	je	$LN7@ssl3_send_
	push	ebp
	call	_EVP_PKEY_sign_init
	add	esp, 4
	test	eax, eax
	jle	$LN7@ssl3_send_
; Line 3245
	call	_EVP_sha1
	push	eax
	push	0
	push	1
	push	248					; 000000f8H
	push	-1
	push	ebp
	call	_EVP_PKEY_CTX_ctrl
	add	esp, 24					; 00000018H
	test	eax, eax
	jle	SHORT $LN8@ssl3_send_
; Line 3246
	mov	eax, DWORD PTR [edi+8]
	mov	eax, DWORD PTR [eax+100]
	test	BYTE PTR [eax+56], 2
	jne	SHORT $LN9@ssl3_send_
; Line 3247
	mov	eax, DWORD PTR [eax+28]
	lea	ecx, DWORD PTR _data$[esp+180]
	push	ecx
	push	64					; 00000040H
	push	edi
	call	eax
	add	esp, 12					; 0000000cH
; Line 3251
	jmp	SHORT $LN9@ssl3_send_
$LN8@ssl3_send_:
; Line 3252
	call	_ERR_clear_error
$LN9@ssl3_send_:
; Line 3258
	mov	eax, DWORD PTR [edi+8]
	mov	ecx, DWORD PTR [eax+100]
	test	BYTE PTR [ecx+56], 2
	je	$LN11@ssl3_send_
; Line 3261
	mov	eax, DWORD PTR [edi+152]
	mov	eax, DWORD PTR [eax]
	mov	eax, DWORD PTR [eax+8]
	mov	DWORD PTR _md$1$[esp+164], eax
; Line 3262
	lea	eax, DWORD PTR _hdata$2[esp+164]
	push	eax
	mov	eax, DWORD PTR [edi+88]
	push	0
	push	3
	push	DWORD PTR [eax+376]
	call	_BIO_ctrl
	add	esp, 16					; 00000010H
	mov	DWORD PTR _hdatalen$1$[esp+164], eax
; Line 3263
	test	eax, eax
	jle	$LN14@ssl3_send_
	push	DWORD PTR _md$1$[esp+164]
	push	ebx
	push	esi
	call	_tls12_get_sigandhash
	add	esp, 12					; 0000000cH
	test	eax, eax
	je	$LN14@ssl3_send_
; Line 3274
	push	0
	push	DWORD PTR _md$1$[esp+168]
	lea	eax, DWORD PTR _mctx$[esp+172]
	push	eax
	call	_EVP_DigestInit_ex
	add	esp, 12					; 0000000cH
	test	eax, eax
	je	SHORT $LN16@ssl3_send_
	push	DWORD PTR _hdatalen$1$[esp+164]
	lea	eax, DWORD PTR _mctx$[esp+168]
	push	DWORD PTR _hdata$2[esp+168]
	push	eax
	call	_EVP_DigestUpdate
	add	esp, 12					; 0000000cH
	test	eax, eax
	je	SHORT $LN16@ssl3_send_
	push	ebx
	lea	eax, DWORD PTR _u$[esp+168]
	push	eax
	lea	eax, DWORD PTR [esi+4]
	push	eax
	lea	eax, DWORD PTR _mctx$[esp+176]
	push	eax
	call	_EVP_SignFinal
	add	esp, 16					; 00000010H
	test	eax, eax
	je	SHORT $LN16@ssl3_send_
; Line 3278
	mov	eax, DWORD PTR _u$[esp+164]
	shr	eax, 8
	mov	BYTE PTR [esi+2], al
	mov	al, BYTE PTR _u$[esp+164]
	mov	BYTE PTR [esi+3], al
; Line 3279
	mov	esi, DWORD PTR _u$[esp+164]
; Line 3280
	push	edi
	add	esi, 4
	call	_ssl3_digest_cached_records
	add	esp, 4
	test	eax, eax
	je	$err$41
; Line 3282
	jmp	$LN28@ssl3_send_
$LN16@ssl3_send_:
; Line 3275
	push	3275					; 00000ccbH
	push	OFFSET ??_C@_0BA@NMKJILMC@?4?2ssl?2s3_clnt?4c?$AA@
	push	6
; Line 3276
	jmp	$LN36@ssl3_send_
$LN14@ssl3_send_:
; Line 3264
	push	3264					; 00000cc0H
; Line 3265
	jmp	$LN37@ssl3_send_
$LN11@ssl3_send_:
; Line 3284
	mov	eax, DWORD PTR [ebx]
	cmp	eax, 6
	jne	SHORT $LN18@ssl3_send_
; Line 3285
	lea	eax, DWORD PTR _data$[esp+164]
	push	eax
	mov	eax, DWORD PTR [ecx+28]
	push	4
	push	edi
	call	eax
; Line 3288
	push	DWORD PTR [ebx+20]
	lea	eax, DWORD PTR _u$[esp+180]
	push	eax
	lea	eax, DWORD PTR [esi+2]
	push	eax
	push	36					; 00000024H
	lea	eax, DWORD PTR _data$[esp+192]
	push	eax
	push	114					; 00000072H
	call	_RSA_sign
	add	esp, 36					; 00000024H
	test	eax, eax
	jg	SHORT $LN20@ssl3_send_
; Line 3289
	push	3289					; 00000cd9H
	push	OFFSET ??_C@_0BA@NMKJILMC@?4?2ssl?2s3_clnt?4c?$AA@
	push	4
; Line 3290
	jmp	$LN36@ssl3_send_
$LN20@ssl3_send_:
; Line 3292
	mov	eax, DWORD PTR _u$[esp+164]
	shr	eax, 8
	mov	BYTE PTR [esi], al
	mov	al, BYTE PTR _u$[esp+164]
	mov	BYTE PTR [esi+1], al
; Line 3293
	mov	esi, DWORD PTR _u$[esp+164]
; Line 3294
	jmp	$LN38@ssl3_send_
$LN18@ssl3_send_:
; Line 3297
	cmp	eax, 116				; 00000074H
	jne	SHORT $LN21@ssl3_send_
; Line 3298
	push	DWORD PTR [ebx+20]
	lea	eax, DWORD PTR _j$[esp+168]
	push	eax
	lea	eax, DWORD PTR [esi+2]
	push	eax
	push	20					; 00000014H
	lea	eax, DWORD PTR _data$[esp+196]
	push	eax
	push	DWORD PTR [ebx+4]
	call	_DSA_sign
	add	esp, 24					; 00000018H
	test	eax, eax
	jne	SHORT $LN23@ssl3_send_
; Line 3302
	push	3302					; 00000ce6H
	push	OFFSET ??_C@_0BA@NMKJILMC@?4?2ssl?2s3_clnt?4c?$AA@
	push	10					; 0000000aH
; Line 3303
	jmp	$LN36@ssl3_send_
$LN23@ssl3_send_:
; Line 3305
	mov	eax, DWORD PTR _j$[esp+164]
	sar	eax, 8
	mov	BYTE PTR [esi], al
; Line 3307
	jmp	$LN39@ssl3_send_
$LN21@ssl3_send_:
; Line 3310
	cmp	eax, 408				; 00000198H
	jne	SHORT $LN24@ssl3_send_
; Line 3311
	push	DWORD PTR [ebx+20]
	lea	eax, DWORD PTR _j$[esp+168]
	push	eax
	lea	eax, DWORD PTR [esi+2]
	push	eax
	push	20					; 00000014H
	lea	eax, DWORD PTR _data$[esp+196]
	push	eax
	push	DWORD PTR [ebx+4]
	call	_ECDSA_sign
	add	esp, 24					; 00000018H
	test	eax, eax
	jne	SHORT $LN23@ssl3_send_
; Line 3315
	push	3315					; 00000cf3H
	push	OFFSET ??_C@_0BA@NMKJILMC@?4?2ssl?2s3_clnt?4c?$AA@
	push	42					; 0000002aH
; Line 3316
	jmp	$LN36@ssl3_send_
$LN24@ssl3_send_:
; Line 3323
	cmp	eax, 812				; 0000032cH
	je	SHORT $LN29@ssl3_send_
	cmp	eax, 811				; 0000032bH
	je	SHORT $LN29@ssl3_send_
; Line 3339
	push	3339					; 00000d0bH
; Line 3340
	jmp	$LN37@ssl3_send_
$LN29@ssl3_send_:
; Line 3327
	lea	eax, DWORD PTR _data$[esp+164]
	mov	DWORD PTR _sigsize$1[esp+164], 64	; 00000040H
	push	eax
	mov	eax, DWORD PTR [ecx+28]
	push	809					; 00000329H
	push	edi
	call	eax
; Line 3329
	push	32					; 00000020H
	lea	eax, DWORD PTR _data$[esp+180]
	push	eax
	lea	eax, DWORD PTR _sigsize$1[esp+184]
	push	eax
	lea	eax, DWORD PTR _signbuf$3[esp+188]
	push	eax
	push	ebp
	call	_EVP_PKEY_sign
	add	esp, 32					; 00000020H
	test	eax, eax
	jg	SHORT $LN30@ssl3_send_
; Line 3330
	push	3330					; 00000d02H
; Line 3331
	jmp	$LN37@ssl3_send_
$LN30@ssl3_send_:
; Line 3333
	xor	ecx, ecx
	mov	edx, 63					; 0000003fH
	mov	DWORD PTR _j$[esp+164], ecx
$LL4@ssl3_send_:
; Line 3334
	mov	al, BYTE PTR _signbuf$3[esp+edx+164]
	mov	BYTE PTR [esi+ecx+2], al
	mov	ecx, DWORD PTR _j$[esp+164]
	inc	ecx
	sub	edx, 1
	mov	DWORD PTR _j$[esp+164], ecx
	jns	SHORT $LL4@ssl3_send_
; Line 3336
	sar	ecx, 8
	mov	BYTE PTR [esi], cl
$LN39@ssl3_send_:
	mov	al, BYTE PTR _j$[esp+164]
	mov	BYTE PTR [esi+1], al
; Line 3337
	mov	esi, DWORD PTR _j$[esp+164]
$LN38@ssl3_send_:
	add	esi, 2
$LN28@ssl3_send_:
; Line 3342
	mov	eax, DWORD PTR [edi+8]
	push	esi
	push	15					; 0000000fH
	push	edi
	mov	eax, DWORD PTR [eax+100]
	mov	eax, DWORD PTR [eax+64]
	call	eax
	add	esp, 12					; 0000000cH
; Line 3343
	mov	DWORD PTR [edi+52], 4497		; 00001191H
$LN5@ssl3_send_:
; Line 3345
	lea	eax, DWORD PTR _mctx$[esp+164]
	push	eax
	call	_EVP_MD_CTX_cleanup
; Line 3346
	push	ebp
	call	_EVP_PKEY_CTX_free
; Line 3347
	mov	eax, DWORD PTR [edi+8]
	push	edi
	mov	eax, DWORD PTR [eax+100]
	mov	eax, DWORD PTR [eax+68]
	call	eax
	add	esp, 12					; 0000000cH
$LN1@ssl3_send_:
; Line 3353
	mov	ecx, DWORD PTR __$ArrayPad$[esp+164]
	pop	edi
	pop	esi
	pop	ebp
	pop	ebx
	xor	ecx, esp
	call	@__security_check_cookie@4
	add	esp, 148				; 00000094H
	ret	0
$LN7@ssl3_send_:
; Line 3242
	push	3242					; 00000caaH
$LN37@ssl3_send_:
	push	OFFSET ??_C@_0BA@NMKJILMC@?4?2ssl?2s3_clnt?4c?$AA@
	push	68					; 00000044H
$LN36@ssl3_send_:
	push	153					; 00000099H
	push	20					; 00000014H
	call	_ERR_put_error
	add	esp, 20					; 00000014H
$err$41:
; Line 3349
	lea	eax, DWORD PTR _mctx$[esp+164]
	push	eax
	call	_EVP_MD_CTX_cleanup
; Line 3350
	push	ebp
	call	_EVP_PKEY_CTX_free
	add	esp, 8
; Line 3351
	mov	DWORD PTR [edi+52], 5
; Line 3352
	or	eax, -1
	jmp	SHORT $LN1@ssl3_send_
_ssl3_send_client_verify ENDP
_TEXT	ENDS
; Function compile flags: /Ogtpy
;	COMDAT _ssl3_get_server_done
_TEXT	SEGMENT
_ok$ = 8						; size = 4
_s$ = 8							; size = 4
_ssl3_get_server_done PROC				; COMDAT
; File c:\workpace\openssl\openssl-1.0.2h\ssl\s3_clnt.c
; Line 2416
	push	esi
; Line 2421
	mov	esi, DWORD PTR _s$[esp]
	lea	ecx, DWORD PTR _ok$[esp]
	push	ecx
	push	30					; 0000001eH
	push	14					; 0000000eH
	mov	eax, DWORD PTR [esi+8]
	push	4449					; 00001161H
	push	4448					; 00001160H
	push	esi
	mov	eax, DWORD PTR [eax+48]
	call	eax
	add	esp, 24					; 00000018H
; Line 2426
	cmp	DWORD PTR _ok$[esp], 0
	je	SHORT $LN1@ssl3_get_s
; Line 2428
	test	eax, eax
	jle	SHORT $LN3@ssl3_get_s
; Line 2430
	push	50					; 00000032H
	push	2
	push	esi
	call	_ssl3_send_alert
; Line 2431
	push	2431					; 0000097fH
	push	OFFSET ??_C@_0BA@NMKJILMC@?4?2ssl?2s3_clnt?4c?$AA@
	push	159					; 0000009fH
	push	145					; 00000091H
	push	20					; 00000014H
	call	_ERR_put_error
	add	esp, 32					; 00000020H
; Line 2432
	mov	DWORD PTR [esi+52], 5
; Line 2433
	or	eax, -1
	pop	esi
; Line 2437
	ret	0
$LN3@ssl3_get_s:
; Line 2436
	mov	eax, 1
$LN1@ssl3_get_s:
	pop	esi
; Line 2437
	ret	0
_ssl3_get_server_done ENDP
_TEXT	ENDS
; Function compile flags: /Ogtpy
;	COMDAT _ssl3_get_cert_status
_TEXT	SEGMENT
_ok$ = 8						; size = 4
_s$ = 8							; size = 4
_ssl3_get_cert_status PROC				; COMDAT
; File c:\workpace\openssl\openssl-1.0.2h\ssl\s3_clnt.c
; Line 2347
	push	esi
; Line 2352
	mov	esi, DWORD PTR _s$[esp]
	lea	ecx, DWORD PTR _ok$[esp]
	push	ecx
	push	16384					; 00004000H
	push	-1
	mov	eax, DWORD PTR [esi+8]
	push	4593					; 000011f1H
	push	4592					; 000011f0H
	push	esi
	mov	eax, DWORD PTR [eax+48]
	call	eax
	add	esp, 24					; 00000018H
	mov	edx, eax
; Line 2357
	cmp	DWORD PTR _ok$[esp], 0
	je	$LN1@ssl3_get_c
; Line 2360
	mov	eax, DWORD PTR [esi+88]
	push	edi
	cmp	DWORD PTR [eax+832], 22			; 00000016H
	je	SHORT $LN3@ssl3_get_c
; Line 2365
	mov	DWORD PTR [eax+852], 1
; Line 2366
	jmp	$LN4@ssl3_get_c
$LN3@ssl3_get_c:
; Line 2367
	cmp	edx, 4
	jae	SHORT $LN5@ssl3_get_c
; Line 2370
	push	2370					; 00000942H
	push	OFFSET ??_C@_0BA@NMKJILMC@?4?2ssl?2s3_clnt?4c?$AA@
	mov	edi, 50					; 00000032H
	push	159					; 0000009fH
; Line 2371
	jmp	$LN14@ssl3_get_c
$LN5@ssl3_get_c:
; Line 2373
	mov	ecx, DWORD PTR [esi+64]
; Line 2374
	cmp	BYTE PTR [ecx], 1
	je	SHORT $LN6@ssl3_get_c
; Line 2376
	push	2376					; 00000948H
	push	OFFSET ??_C@_0BA@NMKJILMC@?4?2ssl?2s3_clnt?4c?$AA@
	mov	edi, 50					; 00000032H
	push	329					; 00000149H
; Line 2377
	jmp	$LN14@ssl3_get_c
$LN6@ssl3_get_c:
; Line 2379
	movzx	edi, BYTE PTR [ecx+1]
	movzx	eax, BYTE PTR [ecx+2]
	shl	edi, 8
	or	edi, eax
	movzx	eax, BYTE PTR [ecx+3]
	shl	edi, 8
	or	edi, eax
; Line 2380
	lea	eax, DWORD PTR [edi+4]
	cmp	eax, edx
	je	SHORT $LN7@ssl3_get_c
; Line 2382
	push	2382					; 0000094eH
	push	OFFSET ??_C@_0BA@NMKJILMC@?4?2ssl?2s3_clnt?4c?$AA@
	mov	edi, 50					; 00000032H
	push	159					; 0000009fH
; Line 2383
	jmp	SHORT $LN14@ssl3_get_c
$LN7@ssl3_get_c:
; Line 2379
	lea	eax, DWORD PTR [ecx+4]
; Line 2385
	push	edi
	push	eax
	call	_BUF_memdup
	add	esp, 8
	mov	DWORD PTR [esi+312], eax
; Line 2386
	test	eax, eax
	jne	SHORT $LN8@ssl3_get_c
; Line 2388
	push	2388					; 00000954H
; Line 2389
	jmp	SHORT $LN15@ssl3_get_c
$LN8@ssl3_get_c:
; Line 2391
	mov	DWORD PTR [esi+316], edi
$LN4@ssl3_get_c:
; Line 2393
	mov	eax, DWORD PTR [esi+228]
	mov	ecx, DWORD PTR [eax+316]
	test	ecx, ecx
	je	SHORT $LN11@ssl3_get_c
; Line 2395
	push	DWORD PTR [eax+320]
	push	esi
	call	ecx
	add	esp, 8
; Line 2396
	test	eax, eax
	jne	SHORT $LN16@ssl3_get_c
; Line 2398
	push	2398					; 0000095eH
	push	OFFSET ??_C@_0BA@NMKJILMC@?4?2ssl?2s3_clnt?4c?$AA@
	lea	edi, DWORD PTR [eax+113]
	push	328					; 00000148H
; Line 2399
	jmp	SHORT $LN14@ssl3_get_c
$LN16@ssl3_get_c:
; Line 2401
	jns	SHORT $LN11@ssl3_get_c
; Line 2403
	push	2403					; 00000963H
$LN15@ssl3_get_c:
	push	OFFSET ??_C@_0BA@NMKJILMC@?4?2ssl?2s3_clnt?4c?$AA@
	push	65					; 00000041H
	mov	edi, 80					; 00000050H
$LN14@ssl3_get_c:
	push	289					; 00000121H
	push	20					; 00000014H
	call	_ERR_put_error
	add	esp, 20					; 00000014H
$f_err$18:
; Line 2409
	push	edi
	push	2
	push	esi
	call	_ssl3_send_alert
	add	esp, 12					; 0000000cH
; Line 2410
	mov	DWORD PTR [esi+52], 5
; Line 2411
	or	eax, -1
	pop	edi
	pop	esi
; Line 2412
	ret	0
$LN11@ssl3_get_c:
; Line 2407
	mov	eax, 1
	pop	edi
$LN1@ssl3_get_c:
	pop	esi
; Line 2412
	ret	0
_ssl3_get_cert_status ENDP
_TEXT	ENDS
; Function compile flags: /Ogtpy
;	COMDAT _ssl3_get_new_session_ticket
_TEXT	SEGMENT
_new_sess$1$ = -4					; size = 4
_ok$ = 8						; size = 4
_s$ = 8							; size = 4
_ssl3_get_new_session_ticket PROC			; COMDAT
; File c:\workpace\openssl\openssl-1.0.2h\ssl\s3_clnt.c
; Line 2239
	mov	eax, 4
	call	__chkstk
	push	esi
; Line 2246
	mov	esi, DWORD PTR _s$[esp+4]
	lea	ecx, DWORD PTR _ok$[esp+4]
	push	ecx
	push	16384					; 00004000H
	push	4
	mov	eax, DWORD PTR [esi+8]
	push	4577					; 000011e1H
	push	4576					; 000011e0H
	push	esi
	mov	eax, DWORD PTR [eax+48]
	call	eax
	add	esp, 24					; 00000018H
	mov	ecx, eax
; Line 2251
	cmp	DWORD PTR _ok$[esp+4], 0
	je	$LN1@ssl3_get_n
; Line 2254
	push	ebx
	push	ebp
	push	edi
	cmp	ecx, 6
	jge	SHORT $LN3@ssl3_get_n
; Line 2257
	push	2257					; 000008d1H
	push	OFFSET ??_C@_0BA@NMKJILMC@?4?2ssl?2s3_clnt?4c?$AA@
	mov	edi, 50					; 00000032H
	push	159					; 0000009fH
; Line 2258
	jmp	$LN18@ssl3_get_n
$LN3@ssl3_get_n:
; Line 2261
	mov	edi, DWORD PTR [esi+64]
; Line 2263
	movzx	ebp, BYTE PTR [edi]
	movzx	eax, BYTE PTR [edi+1]
; Line 2264
	movzx	ebx, BYTE PTR [edi+4]
	shl	eax, 16					; 00000010H
	shl	ebp, 24					; 00000018H
	or	ebp, eax
	shl	ebx, 8
	movzx	eax, BYTE PTR [edi+2]
	shl	eax, 8
	or	ebp, eax
	movzx	eax, BYTE PTR [edi+3]
	or	ebp, eax
	movzx	eax, BYTE PTR [edi+5]
	or	ebx, eax
	add	edi, 6
; Line 2266
	lea	eax, DWORD PTR [ebx+6]
	cmp	eax, ecx
	je	SHORT $LN4@ssl3_get_n
; Line 2268
	push	2268					; 000008dcH
	push	OFFSET ??_C@_0BA@NMKJILMC@?4?2ssl?2s3_clnt?4c?$AA@
	mov	edi, 50					; 00000032H
	push	159					; 0000009fH
; Line 2269
	jmp	SHORT $LN18@ssl3_get_n
$LN4@ssl3_get_n:
; Line 2273
	test	ebx, ebx
	je	$LN19@ssl3_get_n
; Line 2276
	mov	ecx, DWORD PTR [esi+192]
	cmp	DWORD PTR [ecx+68], 0
	jbe	$LN6@ssl3_get_n
; Line 2277
	mov	eax, DWORD PTR [esi+368]
	mov	edx, DWORD PTR [eax+32]
; Line 2283
	test	dl, 1
	je	SHORT $LN9@ssl3_get_n
; Line 2287
	test	edx, 512				; 00000200H
	je	SHORT $LN8@ssl3_get_n
; Line 2288
	mov	edx, DWORD PTR [eax+44]
	test	edx, edx
	je	SHORT $LN9@ssl3_get_n
; Line 2289
	push	ecx
	push	eax
	call	edx
; Line 2291
	jmp	SHORT $LN20@ssl3_get_n
$LN8@ssl3_get_n:
; Line 2293
	push	ecx
	push	eax
	call	_SSL_CTX_remove_session
$LN20@ssl3_get_n:
	add	esp, 8
$LN9@ssl3_get_n:
; Line 2297
	push	0
	push	DWORD PTR [esi+192]
	call	_ssl_session_dup
	add	esp, 8
	mov	DWORD PTR _new_sess$1$[esp+20], eax
	test	eax, eax
	jne	SHORT $LN11@ssl3_get_n
; Line 2299
	push	2299					; 000008fbH
	push	OFFSET ??_C@_0BA@NMKJILMC@?4?2ssl?2s3_clnt?4c?$AA@
	lea	edi, DWORD PTR [eax+80]
	push	65					; 00000041H
$LN18@ssl3_get_n:
	push	283					; 0000011bH
	push	20					; 00000014H
	call	_ERR_put_error
	add	esp, 20					; 00000014H
$f_err$22:
; Line 2340
	push	edi
	push	2
	push	esi
	call	_ssl3_send_alert
	add	esp, 12					; 0000000cH
; Line 2342
	mov	DWORD PTR [esi+52], 5
; Line 2343
	or	eax, -1
	pop	edi
	pop	ebp
	pop	ebx
	pop	esi
; Line 2344
	pop	ecx
	ret	0
$LN11@ssl3_get_n:
; Line 2303
	push	DWORD PTR [esi+192]
	call	_SSL_SESSION_free
; Line 2304
	mov	eax, DWORD PTR _new_sess$1$[esp+24]
	add	esp, 4
	mov	DWORD PTR [esi+192], eax
$LN6@ssl3_get_n:
; Line 2307
	mov	eax, DWORD PTR [esi+192]
	mov	eax, DWORD PTR [eax+228]
	test	eax, eax
	je	SHORT $LN12@ssl3_get_n
; Line 2308
	push	eax
	call	_CRYPTO_free
; Line 2309
	mov	eax, DWORD PTR [esi+192]
	add	esp, 4
	mov	DWORD PTR [eax+232], 0
$LN12@ssl3_get_n:
; Line 2311
	push	2311					; 00000907H
	push	OFFSET ??_C@_0BA@NMKJILMC@?4?2ssl?2s3_clnt?4c?$AA@
	push	ebx
	call	_CRYPTO_malloc
	mov	ecx, DWORD PTR [esi+192]
	add	esp, 12					; 0000000cH
	mov	DWORD PTR [ecx+228], eax
; Line 2312
	mov	eax, DWORD PTR [esi+192]
	mov	eax, DWORD PTR [eax+228]
	test	eax, eax
	jne	SHORT $LN13@ssl3_get_n
; Line 2313
	push	2313					; 00000909H
	push	OFFSET ??_C@_0BA@NMKJILMC@?4?2ssl?2s3_clnt?4c?$AA@
	push	65					; 00000041H
	push	283					; 0000011bH
	push	20					; 00000014H
	call	_ERR_put_error
	add	esp, 20					; 00000014H
$err$23:
; Line 2342
	pop	edi
	pop	ebp
	pop	ebx
	mov	DWORD PTR [esi+52], 5
; Line 2343
	or	eax, -1
	pop	esi
; Line 2344
	pop	ecx
	ret	0
$LN13@ssl3_get_n:
; Line 2316
	push	ebx
	push	edi
	push	eax
	call	_memcpy
; Line 2317
	mov	eax, DWORD PTR [esi+192]
	add	esp, 12					; 0000000cH
	mov	DWORD PTR [eax+236], ebp
; Line 2318
	mov	eax, DWORD PTR [esi+192]
; Line 2330
	push	0
	mov	DWORD PTR [eax+232], ebx
	mov	esi, DWORD PTR [esi+192]
	call	_EVP_sha256
	push	eax
	lea	eax, DWORD PTR [esi+68]
	push	eax
	lea	eax, DWORD PTR [esi+72]
	push	eax
	push	ebx
	push	edi
	call	_EVP_Digest
	add	esp, 24					; 00000018H
$LN19@ssl3_get_n:
; Line 2338
	pop	edi
	pop	ebp
	mov	eax, 1
	pop	ebx
$LN1@ssl3_get_n:
	pop	esi
; Line 2344
	pop	ecx
	ret	0
_ssl3_get_new_session_ticket ENDP
_TEXT	ENDS
; Function compile flags: /Ogtpy
;	COMDAT _ssl3_get_certificate_request
_TEXT	SEGMENT
_ca_sk$1$ = -28						; size = 4
_d$1$ = -24						; size = 4
_n$1$ = -20						; size = 4
_q$ = -16						; size = 4
_ok$ = -12						; size = 4
_nc$1$ = -8						; size = 4
_llen$1$ = -8						; size = 4
_llen$2$ = -4						; size = 4
_ctype_num$1$ = 8					; size = 4
_s$ = 8							; size = 4
_ssl3_get_certificate_request PROC			; COMDAT
; File c:\workpace\openssl\openssl-1.0.2h\ssl\s3_clnt.c
; Line 2050
	mov	eax, 28					; 0000001cH
	call	__chkstk
	push	ebx
	push	ebp
	push	esi
	push	edi
; Line 2059
	mov	edi, DWORD PTR _s$[esp+40]
	lea	ecx, DWORD PTR _ok$[esp+44]
	push	ecx
	xor	esi, esi
	xor	ebp, ebp
	xor	ebx, ebx
	push	DWORD PTR [edi+264]
	mov	eax, DWORD PTR [edi+8]
	push	-1
	push	4433					; 00001151H
	push	4432					; 00001150H
	mov	eax, DWORD PTR [eax+48]
	push	edi
	call	eax
	add	esp, 24					; 00000018H
	mov	DWORD PTR _n$1$[esp+44], eax
; Line 2064
	cmp	DWORD PTR _ok$[esp+44], ebx
	je	$LN1@ssl3_get_c
; Line 2067
	mov	eax, DWORD PTR [edi+88]
	mov	DWORD PTR [eax+856], ebx
; Line 2069
	mov	eax, DWORD PTR [edi+88]
	mov	ecx, DWORD PTR [eax+832]
	cmp	ecx, 14					; 0000000eH
	jne	SHORT $LN12@ssl3_get_c
; Line 2070
	mov	DWORD PTR [eax+852], 1
; Line 2075
	mov	eax, DWORD PTR [edi+88]
	cmp	DWORD PTR [eax+376], ebx
	je	SHORT $LN14@ssl3_get_c
; Line 2076
	push	edi
	call	_ssl3_digest_cached_records
	add	esp, 4
	test	eax, eax
	je	$err$67
$LN14@ssl3_get_c:
	pop	edi
	pop	esi
	pop	ebp
; Line 2079
	mov	eax, 1
	pop	ebx
; Line 2230
	add	esp, 28					; 0000001cH
	ret	0
$LN12@ssl3_get_c:
; Line 2082
	cmp	ecx, 13					; 0000000dH
	je	SHORT $LN15@ssl3_get_c
; Line 2083
	push	10					; 0000000aH
	push	2
	push	edi
	call	_ssl3_send_alert
; Line 2084
	push	2084					; 00000824H
	push	OFFSET ??_C@_0BA@NMKJILMC@?4?2ssl?2s3_clnt?4c?$AA@
	push	262					; 00000106H
	push	135					; 00000087H
	push	20					; 00000014H
	call	_ERR_put_error
	add	esp, 32					; 00000020H
; Line 2224
	mov	DWORD PTR [edi+52], 5
	jmp	$done$68
$LN15@ssl3_get_c:
; Line 2089
	cmp	DWORD PTR [edi], 768			; 00000300H
	jle	SHORT $LN17@ssl3_get_c
; Line 2090
	mov	eax, DWORD PTR [eax+836]
	test	BYTE PTR [eax+16], 4
	je	SHORT $LN17@ssl3_get_c
; Line 2091
	push	10					; 0000000aH
	push	2
	push	edi
	call	_ssl3_send_alert
; Line 2092
	push	2093					; 0000082dH
	push	OFFSET ??_C@_0BA@NMKJILMC@?4?2ssl?2s3_clnt?4c?$AA@
	push	232					; 000000e8H
	push	135					; 00000087H
	push	20					; 00000014H
	call	_ERR_put_error
	add	esp, 32					; 00000020H
; Line 2224
	mov	DWORD PTR [edi+52], 5
	jmp	$done$68
$LN17@ssl3_get_c:
; Line 2098
	mov	esi, DWORD PTR [edi+64]
; Line 2100
	push	OFFSET _ca_dn_cmp
	mov	DWORD PTR _d$1$[esp+48], esi
	call	_sk_new
	mov	ebx, eax
	add	esp, 4
	mov	DWORD PTR _ca_sk$1$[esp+44], ebx
	test	ebx, ebx
	jne	SHORT $LN18@ssl3_get_c
; Line 2101
	push	2101					; 00000835H
$LN65@ssl3_get_c:
	push	OFFSET ??_C@_0BA@NMKJILMC@?4?2ssl?2s3_clnt?4c?$AA@
	push	65					; 00000041H
	push	135					; 00000087H
	push	20					; 00000014H
	call	_ERR_put_error
	add	esp, 20					; 00000014H
; Line 2224
	mov	DWORD PTR [edi+52], 5
	xor	esi, esi
	jmp	$done$68
$LN18@ssl3_get_c:
; Line 2107
	mov	eax, DWORD PTR [edi+152]
	movzx	ecx, BYTE PTR [esi]
	inc	esi
	mov	DWORD PTR _ctype_num$1$[esp+40], ecx
	mov	eax, DWORD PTR [eax+284]
	test	eax, eax
	je	SHORT $LN19@ssl3_get_c
; Line 2108
	push	eax
	call	_CRYPTO_free
; Line 2109
	mov	eax, DWORD PTR [edi+152]
	add	esp, 4
	mov	ecx, DWORD PTR _ctype_num$1$[esp+40]
	mov	DWORD PTR [eax+284], ebp
$LN19@ssl3_get_c:
; Line 2111
	cmp	ecx, 9
	jbe	SHORT $LN20@ssl3_get_c
; Line 2113
	push	2113					; 00000841H
	push	OFFSET ??_C@_0BA@NMKJILMC@?4?2ssl?2s3_clnt?4c?$AA@
	push	ecx
	call	_CRYPTO_malloc
	mov	ecx, DWORD PTR [edi+152]
	mov	DWORD PTR [ecx+284], eax
; Line 2114
	mov	ecx, DWORD PTR _ctype_num$1$[esp+52]
	mov	eax, DWORD PTR [edi+152]
	push	ecx
	push	esi
	push	DWORD PTR [eax+284]
	call	_memcpy
; Line 2115
	mov	eax, DWORD PTR [edi+152]
	add	esp, 24					; 00000018H
	mov	ecx, DWORD PTR _ctype_num$1$[esp+40]
	mov	DWORD PTR [eax+288], ecx
; Line 2116
	mov	ecx, 9
	mov	DWORD PTR _ctype_num$1$[esp+40], ecx
$LN20@ssl3_get_c:
; Line 2118
	xor	edx, edx
	test	ecx, ecx
	je	SHORT $LN3@ssl3_get_c
	mov	ebp, DWORD PTR _ctype_num$1$[esp+40]
	npad	6
$LL4@ssl3_get_c:
; Line 2119
	mov	ecx, DWORD PTR [edi+88]
	mov	al, BYTE PTR [edx+esi]
	mov	BYTE PTR [ecx+edx+864], al
	inc	edx
	cmp	edx, ebp
	jb	SHORT $LL4@ssl3_get_c
	xor	ebp, ebp
$LN3@ssl3_get_c:
; Line 2120
	movzx	eax, BYTE PTR [esi-1]
	add	esi, eax
; Line 2121
	mov	eax, DWORD PTR [edi+8]
	mov	eax, DWORD PTR [eax+100]
	test	BYTE PTR [eax+56], 2
	je	$LN21@ssl3_get_c
; Line 2122
	movzx	ecx, BYTE PTR [esi]
	movzx	eax, BYTE PTR [esi+1]
	add	esi, 2
	shl	ecx, 8
	or	ecx, eax
; Line 2127
	mov	eax, ecx
	mov	DWORD PTR _llen$1$[esp+44], ecx
	sub	eax, DWORD PTR _d$1$[esp+44]
	add	eax, 2
	add	eax, esi
	cmp	eax, DWORD PTR _n$1$[esp+44]
	jbe	SHORT $LN22@ssl3_get_c
; Line 2128
	push	50					; 00000032H
	push	2
	push	edi
	call	_ssl3_send_alert
; Line 2129
	push	2130					; 00000852H
	push	OFFSET ??_C@_0BA@NMKJILMC@?4?2ssl?2s3_clnt?4c?$AA@
	push	146					; 00000092H
	push	135					; 00000087H
	push	20					; 00000014H
	call	_ERR_put_error
; Line 2175
	add	esp, 32					; 00000020H
; Line 2224
	mov	DWORD PTR [edi+52], 5
	xor	esi, esi
	jmp	$done$68
$LN22@ssl3_get_c:
; Line 2135
	mov	eax, DWORD PTR [edi+152]
	mov	DWORD PTR [eax+68], 0
; Line 2136
	mov	eax, DWORD PTR [edi+152]
	mov	DWORD PTR [eax+84], 0
	mov	eax, DWORD PTR [edi+152]
	mov	DWORD PTR [eax+96], 0
	mov	eax, DWORD PTR [edi+152]
	mov	DWORD PTR [eax+112], 0
	mov	eax, DWORD PTR [edi+152]
	mov	DWORD PTR [eax+124], 0
	mov	eax, DWORD PTR [edi+152]
	mov	DWORD PTR [eax+140], 0
	mov	eax, DWORD PTR [edi+152]
	mov	DWORD PTR [eax+152], 0
	mov	eax, DWORD PTR [edi+152]
	mov	DWORD PTR [eax+168], 0
	mov	eax, DWORD PTR [edi+152]
	mov	DWORD PTR [eax+180], 0
	mov	eax, DWORD PTR [edi+152]
	mov	DWORD PTR [eax+196], 0
	mov	eax, DWORD PTR [edi+152]
	mov	DWORD PTR [eax+208], 0
	mov	eax, DWORD PTR [edi+152]
	mov	DWORD PTR [eax+224], 0
	mov	eax, DWORD PTR [edi+152]
	mov	DWORD PTR [eax+236], 0
	mov	eax, DWORD PTR [edi+152]
	mov	DWORD PTR [eax+252], 0
	mov	eax, DWORD PTR [edi+152]
	mov	DWORD PTR [eax+264], 0
	mov	eax, DWORD PTR [edi+152]
	mov	DWORD PTR [eax+280], 0
; Line 2138
	test	cl, 1
	jne	$LN24@ssl3_get_c
	push	ecx
	push	esi
	push	edi
	call	_tls1_save_sigalgs
	add	esp, 12					; 0000000cH
	test	eax, eax
	je	$LN24@ssl3_get_c
; Line 2144
	push	edi
	call	_tls1_process_sigalgs
	add	esp, 4
	test	eax, eax
	jne	SHORT $LN25@ssl3_get_c
; Line 2145
	push	80					; 00000050H
	push	2
	push	edi
	call	_ssl3_send_alert
; Line 2146
	push	2146					; 00000862H
	push	OFFSET ??_C@_0BA@NMKJILMC@?4?2ssl?2s3_clnt?4c?$AA@
	push	65					; 00000041H
	push	135					; 00000087H
	push	20					; 00000014H
	call	_ERR_put_error
; Line 2175
	add	esp, 32					; 00000020H
; Line 2224
	mov	DWORD PTR [edi+52], 5
	xor	esi, esi
	jmp	$done$68
$LN25@ssl3_get_c:
; Line 2149
	add	esi, DWORD PTR _llen$1$[esp+44]
$LN21@ssl3_get_c:
; Line 2153
	movzx	edx, BYTE PTR [esi]
	movzx	eax, BYTE PTR [esi+1]
	add	esi, 2
	shl	edx, 8
	or	edx, eax
; Line 2163
	mov	eax, edx
	mov	DWORD PTR _llen$2$[esp+44], edx
	sub	eax, DWORD PTR _d$1$[esp+44]
	add	eax, esi
	cmp	eax, DWORD PTR _n$1$[esp+44]
	je	SHORT $LN26@ssl3_get_c
; Line 2164
	push	50					; 00000032H
	push	2
	push	edi
	call	_ssl3_send_alert
; Line 2165
	push	2165					; 00000875H
	push	OFFSET ??_C@_0BA@NMKJILMC@?4?2ssl?2s3_clnt?4c?$AA@
	push	159					; 0000009fH
	push	135					; 00000087H
	push	20					; 00000014H
	call	_ERR_put_error
; Line 2175
	add	esp, 32					; 00000020H
; Line 2224
	mov	DWORD PTR [edi+52], 5
	xor	esi, esi
	jmp	$done$68
$LN24@ssl3_get_c:
; Line 2139
	push	50					; 00000032H
	push	2
	push	edi
	call	_ssl3_send_alert
; Line 2140
	push	2141					; 0000085dH
	push	OFFSET ??_C@_0BA@NMKJILMC@?4?2ssl?2s3_clnt?4c?$AA@
	push	360					; 00000168H
	push	135					; 00000087H
	push	20					; 00000014H
	call	_ERR_put_error
; Line 2175
	add	esp, 32					; 00000020H
; Line 2224
	mov	DWORD PTR [edi+52], 5
	xor	esi, esi
	jmp	$done$68
$LN26@ssl3_get_c:
; Line 2169
	xor	ecx, ecx
	test	edx, edx
	je	$LN9@ssl3_get_c
	npad	4
$LL8@ssl3_get_c:
; Line 2170
	movzx	ebx, BYTE PTR [esi]
; Line 2171
	add	ecx, 2
	movzx	eax, BYTE PTR [esi+1]
	add	esi, 2
	shl	ebx, 8
	or	ebx, eax
	add	ecx, ebx
	mov	DWORD PTR _nc$1$[esp+44], ecx
	cmp	ecx, edx
	ja	$LN41@ssl3_get_c
; Line 2181
	push	ebx
	lea	eax, DWORD PTR _q$[esp+48]
	mov	DWORD PTR _q$[esp+48], esi
	push	eax
	push	0
	call	_d2i_X509_NAME
	mov	ebp, eax
	add	esp, 12					; 0000000cH
	test	ebp, ebp
	je	SHORT $LN42@ssl3_get_c
; Line 2192
	add	esi, ebx
	cmp	DWORD PTR _q$[esp+44], esi
	jne	SHORT $LN43@ssl3_get_c
; Line 2198
	mov	ebx, DWORD PTR _ca_sk$1$[esp+44]
	push	ebp
	push	ebx
	call	_sk_push
	add	esp, 8
	test	eax, eax
	je	SHORT $LN44@ssl3_get_c
; Line 2202
	mov	ecx, DWORD PTR _nc$1$[esp+44]
	xor	ebp, ebp
	mov	edx, DWORD PTR _llen$2$[esp+44]
	cmp	ecx, edx
	jb	SHORT $LL8@ssl3_get_c
; Line 2198
	jmp	$LN9@ssl3_get_c
$LN44@ssl3_get_c:
; Line 2199
	push	2199					; 00000897H
	jmp	$LN65@ssl3_get_c
$LN43@ssl3_get_c:
; Line 2193
	push	50					; 00000032H
	push	2
	push	edi
	call	_ssl3_send_alert
; Line 2194
	push	2195					; 00000893H
	push	OFFSET ??_C@_0BA@NMKJILMC@?4?2ssl?2s3_clnt?4c?$AA@
	push	131					; 00000083H
; Line 2196
	jmp	SHORT $LN64@ssl3_get_c
$LN42@ssl3_get_c:
; Line 2183
	test	DWORD PTR [edi+256], 536870912		; 20000000H
	jne	SHORT $cont$69
; Line 2186
	push	50					; 00000032H
	push	2
	push	edi
	call	_ssl3_send_alert
; Line 2187
	push	2187					; 0000088bH
	push	OFFSET ??_C@_0BA@NMKJILMC@?4?2ssl?2s3_clnt?4c?$AA@
	push	13					; 0000000dH
; Line 2188
	jmp	SHORT $LN64@ssl3_get_c
$LN41@ssl3_get_c:
; Line 2172
	test	DWORD PTR [edi+256], 536870912		; 20000000H
	jne	SHORT $cont$69
; Line 2174
	push	50					; 00000032H
	push	2
	push	edi
	call	_ssl3_send_alert
; Line 2175
	push	2175					; 0000087fH
	push	OFFSET ??_C@_0BA@NMKJILMC@?4?2ssl?2s3_clnt?4c?$AA@
	push	132					; 00000084H
$LN64@ssl3_get_c:
	push	135					; 00000087H
	push	20					; 00000014H
	call	_ERR_put_error
	mov	ebx, DWORD PTR _ca_sk$1$[esp+76]
	add	esp, 32					; 00000020H
	xor	esi, esi
$err$67:
; Line 2224
	mov	DWORD PTR [edi+52], 5
	jmp	SHORT $done$68
$cont$69:
; Line 2210
	call	_ERR_clear_error
	mov	ebx, DWORD PTR _ca_sk$1$[esp+44]
$LN9@ssl3_get_c:
; Line 2214
	mov	eax, DWORD PTR [edi+88]
; Line 2215
	mov	ecx, DWORD PTR _ctype_num$1$[esp+40]
	mov	DWORD PTR [eax+856], 1
	mov	eax, DWORD PTR [edi+88]
	mov	DWORD PTR [eax+860], ecx
; Line 2216
	mov	eax, DWORD PTR [edi+88]
	mov	eax, DWORD PTR [eax+876]
	test	eax, eax
	je	SHORT $LN35@ssl3_get_c
; Line 2217
	push	OFFSET _X509_NAME_free
	push	eax
	call	_sk_pop_free
	add	esp, 8
$LN35@ssl3_get_c:
; Line 2218
	mov	eax, DWORD PTR [edi+88]
	mov	DWORD PTR [eax+876], ebx
; Line 2219
	xor	ebx, ebx
; Line 2221
	lea	esi, DWORD PTR [ebx+1]
$done$68:
; Line 2226
	push	ebp
	call	_X509_NAME_free
	add	esp, 4
; Line 2227
	test	ebx, ebx
	je	SHORT $LN36@ssl3_get_c
; Line 2228
	push	OFFSET _X509_NAME_free
	push	ebx
	call	_sk_pop_free
	add	esp, 8
$LN36@ssl3_get_c:
; Line 2229
	mov	eax, esi
$LN1@ssl3_get_c:
	pop	edi
	pop	esi
	pop	ebp
	pop	ebx
; Line 2230
	add	esp, 28					; 0000001cH
	ret	0
_ssl3_get_certificate_request ENDP
_TEXT	ENDS
; Function compile flags: /Ogtpy
;	COMDAT _ssl3_get_server_hello
_TEXT	SEGMENT
_j$1$ = -24						; size = 4
_pref_cipher$1 = -20					; size = 4
_ct$1$ = -16						; size = 4
_ok$ = -12						; size = 4
_n$1$ = -8						; size = 4
_d$1$ = -4						; size = 4
_p$ = 8							; size = 4
_s$ = 8							; size = 4
_ssl3_get_server_hello PROC				; COMDAT
; File c:\workpace\openssl\openssl-1.0.2h\ssl\s3_clnt.c
; Line 894
	mov	eax, 24					; 00000018H
	call	__chkstk
	push	esi
; Line 897
	mov	esi, DWORD PTR _s$[esp+24]
	push	edi
; Line 899
	mov	edi, 80					; 00000050H
; Line 909
	mov	ecx, DWORD PTR [esi+8]
	mov	eax, DWORD PTR [esi+152]
	mov	DWORD PTR _ct$1$[esp+32], eax
	mov	eax, DWORD PTR [ecx+100]
	test	BYTE PTR [eax+56], 8
	je	SHORT $LN2@ssl3_get_s
; Line 910
	mov	DWORD PTR [esi+268], 1
$LN2@ssl3_get_s:
; Line 912
	lea	eax, DWORD PTR _ok$[esp+32]
	push	eax
	mov	eax, DWORD PTR [ecx+48]
	push	20000					; 00004e20H
	push	-1
	push	4385					; 00001121H
	push	4384					; 00001120H
	push	esi
	call	eax
	add	esp, 24					; 00000018H
	mov	DWORD PTR _n$1$[esp+32], eax
; Line 916
	cmp	DWORD PTR _ok$[esp+32], 0
	je	$LN1@ssl3_get_s
; Line 919
	push	ebx
	mov	ebx, DWORD PTR [esi+8]
	push	ebp
	mov	eax, DWORD PTR [ebx+100]
	test	BYTE PTR [eax+56], 8
	je	SHORT $LN7@ssl3_get_s
; Line 921
	mov	ecx, DWORD PTR [esi+88]
	mov	DWORD PTR [esi+268], 0
	cmp	DWORD PTR [ecx+832], 3
	jne	SHORT $LN7@ssl3_get_s
; Line 922
	mov	eax, DWORD PTR [esi+92]
	cmp	DWORD PTR [eax], 0
	jne	SHORT $LN6@ssl3_get_s
; Line 923
	mov	DWORD PTR [ecx+852], 1
$LN46@ssl3_get_s:
	pop	ebp
	pop	ebx
	pop	edi
; Line 924
	mov	eax, 1
	pop	esi
; Line 1170
	add	esp, 24					; 00000018H
	ret	0
$LN6@ssl3_get_s:
; Line 928
	push	928					; 000003a0H
$LN69@ssl3_get_s:
	push	OFFSET ??_C@_0BA@NMKJILMC@?4?2ssl?2s3_clnt?4c?$AA@
	push	114					; 00000072H
	push	146					; 00000092H
	push	20					; 00000014H
	mov	edi, 10					; 0000000aH
	call	_ERR_put_error
	add	esp, 20					; 00000014H
; Line 929
	jmp	$f_err$71
$LN7@ssl3_get_s:
; Line 934
	mov	eax, DWORD PTR [esi+88]
	cmp	DWORD PTR [eax+832], 2
	je	SHORT $LN8@ssl3_get_s
; Line 936
	push	936					; 000003a8H
; Line 937
	jmp	SHORT $LN69@ssl3_get_s
$LN8@ssl3_get_s:
; Line 940
	mov	edx, DWORD PTR [esi+64]
	mov	DWORD PTR _p$[esp+36], edx
; Line 941
	cmp	DWORD PTR [ebx], 131071			; 0001ffffH
	mov	DWORD PTR _d$1$[esp+40], edx
	jne	$LN9@ssl3_get_s
; Line 943
	movzx	ebx, BYTE PTR [edx]
	movzx	eax, BYTE PTR [edx+1]
; Line 944
	mov	ecx, DWORD PTR [esi+256]
	shl	ebx, 8
	or	ebx, eax
; Line 945
	cmp	ebx, 65277				; 0000fefdH
	jne	SHORT $LN10@ssl3_get_s
	test	ecx, 134217728				; 08000000H
	jne	SHORT $LN10@ssl3_get_s
; Line 946
	call	_DTLSv1_2_client_method
	jmp	SHORT $LN64@ssl3_get_s
$LN10@ssl3_get_s:
; Line 947
	mov	eax, DWORD PTR [esi+152]
	test	DWORD PTR [eax+56], 196608		; 00030000H
	je	SHORT $LN12@ssl3_get_s
; Line 948
	push	949					; 000003b5H
	push	OFFSET ??_C@_0BA@NMKJILMC@?4?2ssl?2s3_clnt?4c?$AA@
	push	387					; 00000183H
$LN66@ssl3_get_s:
	push	146					; 00000092H
	push	20					; 00000014H
	call	_ERR_put_error
	add	esp, 20					; 00000014H
; Line 950
	mov	DWORD PTR [esi], ebx
; Line 952
	jmp	$LN65@ssl3_get_s
$LN12@ssl3_get_s:
; Line 953
	cmp	ebx, 65279				; 0000feffH
	jne	$LN14@ssl3_get_s
	test	ecx, 67108864				; 04000000H
	jne	$LN14@ssl3_get_s
; Line 954
	call	_DTLSv1_client_method
$LN64@ssl3_get_s:
	mov	DWORD PTR [esi+8], eax
; Line 961
	mov	ecx, DWORD PTR [eax]
	mov	eax, DWORD PTR [esi+192]
	mov	DWORD PTR [esi], ecx
	mov	DWORD PTR [eax], ecx
	mov	edx, DWORD PTR _p$[esp+36]
$LN9@ssl3_get_s:
; Line 964
	mov	ebx, DWORD PTR [esi]
	mov	ecx, ebx
	movzx	eax, BYTE PTR [edx]
	sar	ecx, 8
	cmp	eax, ecx
	jne	$LN17@ssl3_get_s
	cmp	BYTE PTR [edx+1], bl
	jne	$LN17@ssl3_get_s
; Line 974
	mov	eax, DWORD PTR [esi+88]
	add	edx, 2
	mov	DWORD PTR _p$[esp+36], edx
	movups	xmm0, XMMWORD PTR [edx]
	movups	XMMWORD PTR [eax+160], xmm0
	movups	xmm0, XMMWORD PTR [edx+16]
	movups	XMMWORD PTR [eax+176], xmm0
; Line 975
	mov	ebp, DWORD PTR _p$[esp+36]
	add	ebp, 32					; 00000020H
; Line 977
	mov	DWORD PTR [esi+108], 0
	mov	DWORD PTR _p$[esp+36], ebp
; Line 980
	movzx	ebx, BYTE PTR [ebp]
	inc	ebp
	mov	DWORD PTR _j$1$[esp+40], ebx
	mov	DWORD PTR _p$[esp+36], ebp
; Line 982
	cmp	ebx, 32					; 00000020H
	ja	$LN19@ssl3_get_s
; Line 1000
	cmp	DWORD PTR [esi], 769			; 00000301H
	jl	SHORT $LN22@ssl3_get_s
	cmp	DWORD PTR [esi+360], 0
	je	SHORT $LN22@ssl3_get_s
	mov	eax, DWORD PTR [esi+192]
	cmp	DWORD PTR [eax+228], 0
	je	SHORT $LN22@ssl3_get_s
; Line 1002
	mov	DWORD PTR _pref_cipher$1[esp+40], 0
; Line 1003
	mov	DWORD PTR [eax+16], 48			; 00000030H
; Line 1004
	lea	eax, DWORD PTR _pref_cipher$1[esp+40]
	push	DWORD PTR [esi+364]
	mov	ecx, DWORD PTR [esi+192]
	push	eax
	push	0
	lea	eax, DWORD PTR [ecx+16]
	push	eax
	lea	eax, DWORD PTR [ecx+20]
	push	eax
	mov	eax, DWORD PTR [esi+360]
	push	esi
	call	eax
	add	esp, 24					; 00000018H
	test	eax, eax
	je	$LN21@ssl3_get_s
; Line 1008
	mov	eax, DWORD PTR _pref_cipher$1[esp+40]
	test	eax, eax
	jne	SHORT $LN49@ssl3_get_s
	mov	eax, DWORD PTR _p$[esp+36]
	add	eax, ebx
	push	eax
	push	esi
	call	_ssl_get_cipher_by_char
	add	esp, 8
$LN49@ssl3_get_s:
	mov	ecx, DWORD PTR [esi+192]
	mov	DWORD PTR [ecx+180], eax
; Line 1010
	mov	ebp, DWORD PTR _p$[esp+36]
$LN22@ssl3_get_s:
; Line 1019
	test	ebx, ebx
	je	$LN23@ssl3_get_s
	mov	eax, DWORD PTR [esi+192]
	cmp	ebx, DWORD PTR [eax+68]
	jne	$LN23@ssl3_get_s
	lea	edx, DWORD PTR [eax+72]
	mov	ecx, ebp
	sub	ebx, 4
	jb	SHORT $LN52@ssl3_get_s
	npad	5
$LL53@ssl3_get_s:
	mov	eax, DWORD PTR [ecx]
	cmp	eax, DWORD PTR [edx]
	jne	SHORT $LN51@ssl3_get_s
	add	ecx, 4
	add	edx, 4
	sub	ebx, 4
	jae	SHORT $LL53@ssl3_get_s
$LN52@ssl3_get_s:
	cmp	ebx, -4					; fffffffcH
	je	SHORT $LN50@ssl3_get_s
$LN51@ssl3_get_s:
	mov	al, BYTE PTR [ecx]
	cmp	al, BYTE PTR [edx]
	jne	$LN61@ssl3_get_s
	cmp	ebx, -3					; fffffffdH
	je	SHORT $LN50@ssl3_get_s
	mov	al, BYTE PTR [ecx+1]
	cmp	al, BYTE PTR [edx+1]
	jne	$LN61@ssl3_get_s
	cmp	ebx, -2					; fffffffeH
	je	SHORT $LN50@ssl3_get_s
	mov	al, BYTE PTR [ecx+2]
	cmp	al, BYTE PTR [edx+2]
	jne	$LN61@ssl3_get_s
	cmp	ebx, -1
	je	SHORT $LN50@ssl3_get_s
	mov	al, BYTE PTR [ecx+3]
	cmp	al, BYTE PTR [edx+3]
	jne	$LN61@ssl3_get_s
$LN50@ssl3_get_s:
; Line 1021
	mov	edx, DWORD PTR [esi+192]
	mov	ecx, DWORD PTR [esi+156]
	cmp	ecx, DWORD PTR [edx+104]
	jne	$LN26@ssl3_get_s
	add	edx, 108				; 0000006cH
	lea	ebx, DWORD PTR [esi+160]
	sub	ecx, 4
	jb	SHORT $LN56@ssl3_get_s
$LL57@ssl3_get_s:
	mov	eax, DWORD PTR [edx]
	cmp	eax, DWORD PTR [ebx]
	jne	SHORT $LN55@ssl3_get_s
	add	edx, 4
	add	ebx, 4
	sub	ecx, 4
	jae	SHORT $LL57@ssl3_get_s
$LN56@ssl3_get_s:
	cmp	ecx, -4					; fffffffcH
	je	SHORT $LN54@ssl3_get_s
$LN55@ssl3_get_s:
	mov	al, BYTE PTR [edx]
	cmp	al, BYTE PTR [ebx]
	jne	SHORT $LN26@ssl3_get_s
	cmp	ecx, -3					; fffffffdH
	je	SHORT $LN54@ssl3_get_s
	mov	al, BYTE PTR [edx+1]
	cmp	al, BYTE PTR [ebx+1]
	jne	SHORT $LN26@ssl3_get_s
	cmp	ecx, -2					; fffffffeH
	je	SHORT $LN54@ssl3_get_s
	mov	al, BYTE PTR [edx+2]
	cmp	al, BYTE PTR [ebx+2]
	jne	SHORT $LN26@ssl3_get_s
	cmp	ecx, -1
	je	SHORT $LN54@ssl3_get_s
	mov	al, BYTE PTR [edx+3]
	cmp	al, BYTE PTR [ebx+3]
	jne	SHORT $LN26@ssl3_get_s
$LN54@ssl3_get_s:
; Line 1029
	mov	ebx, DWORD PTR _j$1$[esp+40]
	mov	DWORD PTR [esi+108], 1
	jmp	$LN24@ssl3_get_s
$LN14@ssl3_get_s:
; Line 956
	push	956					; 000003bcH
	push	OFFSET ??_C@_0BA@NMKJILMC@?4?2ssl?2s3_clnt?4c?$AA@
	push	266					; 0000010aH
; Line 959
	jmp	$LN66@ssl3_get_s
$LN21@ssl3_get_s:
; Line 1011
	push	1011					; 000003f3H
	push	OFFSET ??_C@_0BA@NMKJILMC@?4?2ssl?2s3_clnt?4c?$AA@
	push	68					; 00000044H
	push	146					; 00000092H
	push	20					; 00000014H
	call	_ERR_put_error
	add	esp, 20					; 00000014H
	jmp	$f_err$71
$LN26@ssl3_get_s:
; Line 1024
	push	1025					; 00000401H
	push	OFFSET ??_C@_0BA@NMKJILMC@?4?2ssl?2s3_clnt?4c?$AA@
	push	272					; 00000110H
	push	146					; 00000092H
	push	20					; 00000014H
	mov	edi, 47					; 0000002fH
	call	_ERR_put_error
	add	esp, 20					; 00000014H
	jmp	$f_err$71
$LN61@ssl3_get_s:
	mov	ebx, DWORD PTR _j$1$[esp+40]
$LN23@ssl3_get_s:
; Line 1037
	mov	eax, DWORD PTR [esi+192]
	cmp	DWORD PTR [eax+68], 0
	jbe	SHORT $LN28@ssl3_get_s
; Line 1038
	push	0
	push	esi
	call	_ssl_get_new_session
	add	esp, 8
	test	eax, eax
	je	$f_err$71
$LN28@ssl3_get_s:
; Line 1042
	mov	eax, DWORD PTR [esi+192]
; Line 1043
	push	ebx
	mov	DWORD PTR [eax+68], ebx
	mov	eax, DWORD PTR [esi+192]
	push	DWORD PTR _p$[esp+40]
	add	eax, 72					; 00000048H
	push	eax
	call	_memcpy
	mov	ebp, DWORD PTR _p$[esp+48]
	add	esp, 12					; 0000000cH
$LN24@ssl3_get_s:
; Line 1045
	add	ebp, ebx
; Line 1046
	push	ebp
	push	esi
	mov	DWORD PTR _p$[esp+44], ebp
	call	_ssl_get_cipher_by_char
	mov	ebx, eax
	add	esp, 8
; Line 1047
	test	ebx, ebx
	jne	SHORT $LN29@ssl3_get_s
; Line 1050
	push	1050					; 0000041aH
	push	OFFSET ??_C@_0BA@NMKJILMC@?4?2ssl?2s3_clnt?4c?$AA@
	push	248					; 000000f8H
	push	146					; 00000092H
	push	20					; 00000014H
	lea	edi, DWORD PTR [eax+47]
	call	_ERR_put_error
	add	esp, 20					; 00000014H
	jmp	$f_err$71
$LN29@ssl3_get_s:
; Line 1054
	mov	eax, DWORD PTR [esi+8]
; Line 1055
	mov	ecx, DWORD PTR _ct$1$[esp+40]
	mov	eax, DWORD PTR [eax+100]
	test	BYTE PTR [eax+56], 16			; 00000010H
	jne	SHORT $LN30@ssl3_get_s
	mov	DWORD PTR [ecx+24], 4
	jmp	SHORT $LN31@ssl3_get_s
$LN30@ssl3_get_s:
; Line 1057
	mov	DWORD PTR [ecx+24], 0
$LN31@ssl3_get_s:
; Line 1063
	mov	eax, DWORD PTR [ebx+28]
	test	eax, DWORD PTR [ecx+24]
	jne	$LN33@ssl3_get_s
	mov	eax, DWORD PTR [ebx+12]
	test	eax, DWORD PTR [ecx+8]
	jne	$LN33@ssl3_get_s
	mov	eax, DWORD PTR [ebx+16]
	test	eax, DWORD PTR [ecx+12]
	jne	$LN33@ssl3_get_s
; Line 1068
	mov	eax, DWORD PTR [esi+8]
	push	0
	push	0
	mov	eax, DWORD PTR [eax+76]
	call	eax
	add	DWORD PTR _p$[esp+44], eax
; Line 1070
	push	esi
	call	_ssl_get_ciphers_by_id
; Line 1071
	push	ebx
	push	eax
	call	_sk_find
	add	esp, 20					; 00000014H
; Line 1072
	test	eax, eax
	jns	SHORT $LN34@ssl3_get_s
; Line 1075
	push	1075					; 00000433H
	push	OFFSET ??_C@_0BA@NMKJILMC@?4?2ssl?2s3_clnt?4c?$AA@
	push	261					; 00000105H
	push	146					; 00000092H
	push	20					; 00000014H
	mov	edi, 47					; 0000002fH
	call	_ERR_put_error
	add	esp, 20					; 00000014H
	jmp	$f_err$71
$LN34@ssl3_get_s:
; Line 1084
	mov	ecx, DWORD PTR [esi+192]
	mov	eax, DWORD PTR [ecx+180]
	test	eax, eax
	je	SHORT $LN35@ssl3_get_s
; Line 1085
	mov	eax, DWORD PTR [eax+8]
	mov	DWORD PTR [ecx+184], eax
$LN35@ssl3_get_s:
; Line 1086
	cmp	DWORD PTR [esi+108], 0
	je	SHORT $LN36@ssl3_get_s
	mov	eax, DWORD PTR [esi+192]
	mov	eax, DWORD PTR [eax+184]
	cmp	eax, DWORD PTR [ebx+8]
	je	SHORT $LN36@ssl3_get_s
; Line 1093
	push	1094					; 00000446H
	push	OFFSET ??_C@_0BA@NMKJILMC@?4?2ssl?2s3_clnt?4c?$AA@
	push	197					; 000000c5H
	push	146					; 00000092H
	push	20					; 00000014H
	mov	edi, 47					; 0000002fH
	call	_ERR_put_error
	add	esp, 20					; 00000014H
	jmp	$f_err$71
$LN36@ssl3_get_s:
; Line 1098
	mov	eax, DWORD PTR [esi+88]
	mov	DWORD PTR [eax+836], ebx
; Line 1103
	mov	eax, DWORD PTR [esi+8]
	mov	eax, DWORD PTR [eax+100]
	test	BYTE PTR [eax+56], 2
	jne	SHORT $LN37@ssl3_get_s
	push	esi
	call	_ssl3_digest_cached_records
	add	esp, 4
	test	eax, eax
	je	$f_err$71
$LN37@ssl3_get_s:
; Line 1123
	mov	eax, DWORD PTR _p$[esp+36]
	movzx	ecx, BYTE PTR [eax]
	inc	eax
; Line 1124
	cmp	DWORD PTR [esi+108], 0
	mov	DWORD PTR _p$[esp+36], eax
	je	SHORT $LN38@ssl3_get_s
	mov	eax, DWORD PTR [esi+192]
	cmp	ecx, DWORD PTR [eax+176]
	je	SHORT $LN38@ssl3_get_s
; Line 1126
	push	1127					; 00000467H
	push	OFFSET ??_C@_0BA@NMKJILMC@?4?2ssl?2s3_clnt?4c?$AA@
	push	344					; 00000158H
	push	146					; 00000092H
	push	20					; 00000014H
	mov	edi, 47					; 0000002fH
	call	_ERR_put_error
	add	esp, 20					; 00000014H
	jmp	$f_err$71
$LN38@ssl3_get_s:
; Line 1130
	test	ecx, ecx
	jne	SHORT $LN39@ssl3_get_s
$LN43@ssl3_get_s:
; Line 1145
	mov	eax, DWORD PTR [esi+88]
; Line 1151
	mov	edi, DWORD PTR _n$1$[esp+40]
	mov	ebx, DWORD PTR _d$1$[esp+40]
	push	edi
	mov	DWORD PTR [eax+908], ecx
	lea	eax, DWORD PTR _p$[esp+40]
	push	ebx
	push	eax
	push	esi
	call	_ssl_parse_serverhello_tlsext
	add	esp, 16					; 00000010H
	test	eax, eax
	jne	$LN45@ssl3_get_s
; Line 1152
	push	1152					; 00000480H
	push	OFFSET ??_C@_0BA@NMKJILMC@?4?2ssl?2s3_clnt?4c?$AA@
	push	227					; 000000e3H
	push	146					; 00000092H
	push	20					; 00000014H
	call	_ERR_put_error
	add	esp, 20					; 00000014H
; Line 1168
	mov	DWORD PTR [esi+52], 5
; Line 1169
	or	eax, -1
	pop	ebp
	pop	ebx
	pop	edi
	pop	esi
; Line 1170
	add	esp, 24					; 00000018H
	ret	0
$LN39@ssl3_get_s:
; Line 1132
	test	DWORD PTR [esi+256], 131072		; 00020000H
	je	SHORT $LN41@ssl3_get_s
; Line 1134
	push	1134					; 0000046eH
	push	OFFSET ??_C@_0BA@NMKJILMC@?4?2ssl?2s3_clnt?4c?$AA@
	push	343					; 00000157H
	push	146					; 00000092H
	push	20					; 00000014H
	mov	edi, 47					; 0000002fH
	call	_ERR_put_error
	add	esp, 20					; 00000014H
	jmp	$f_err$71
$LN41@ssl3_get_s:
; Line 1137
	mov	eax, DWORD PTR [esi+228]
	push	ecx
	push	DWORD PTR [eax+152]
	call	_ssl3_comp_find
	mov	ecx, eax
	add	esp, 8
; Line 1139
	test	ecx, ecx
	jne	$LN43@ssl3_get_s
; Line 1141
	push	1142					; 00000476H
	push	OFFSET ??_C@_0BA@NMKJILMC@?4?2ssl?2s3_clnt?4c?$AA@
	push	257					; 00000101H
	push	146					; 00000092H
	push	20					; 00000014H
	lea	edi, DWORD PTR [eax+47]
	call	_ERR_put_error
	add	esp, 20					; 00000014H
	jmp	$f_err$71
$LN45@ssl3_get_s:
; Line 1157
	lea	eax, DWORD PTR [ebx+edi]
	cmp	DWORD PTR _p$[esp+36], eax
	je	$LN46@ssl3_get_s
; Line 1160
	push	1160					; 00000488H
	push	OFFSET ??_C@_0BA@NMKJILMC@?4?2ssl?2s3_clnt?4c?$AA@
	push	115					; 00000073H
	push	146					; 00000092H
	push	20					; 00000014H
	mov	edi, 50					; 00000032H
	call	_ERR_put_error
	add	esp, 20					; 00000014H
	jmp	$f_err$71
$LN33@ssl3_get_s:
; Line 1065
	push	1065					; 00000429H
	push	OFFSET ??_C@_0BA@NMKJILMC@?4?2ssl?2s3_clnt?4c?$AA@
	push	261					; 00000105H
	push	146					; 00000092H
	push	20					; 00000014H
	mov	edi, 47					; 0000002fH
	call	_ERR_put_error
	add	esp, 20					; 00000014H
	jmp	SHORT $f_err$71
$LN19@ssl3_get_s:
; Line 984
	push	984					; 000003d8H
	push	OFFSET ??_C@_0BA@NMKJILMC@?4?2ssl?2s3_clnt?4c?$AA@
	push	300					; 0000012cH
	push	146					; 00000092H
	push	20					; 00000014H
	mov	edi, 47					; 0000002fH
	call	_ERR_put_error
	add	esp, 20					; 00000014H
	jmp	SHORT $f_err$71
$LN17@ssl3_get_s:
; Line 965
	push	965					; 000003c5H
	push	OFFSET ??_C@_0BA@NMKJILMC@?4?2ssl?2s3_clnt?4c?$AA@
	push	266					; 0000010aH
	push	146					; 00000092H
	push	20					; 00000014H
	call	_ERR_put_error
; Line 966
	mov	eax, DWORD PTR _p$[esp+56]
	add	esp, 20					; 00000014H
	movzx	ecx, BYTE PTR [eax+1]
	mov	eax, DWORD PTR [esi]
	and	eax, 65280				; 0000ff00H
	or	ecx, eax
	mov	DWORD PTR [esi], ecx
$LN65@ssl3_get_s:
; Line 967
	mov	edi, 70					; 00000046H
$f_err$71:
; Line 1166
	push	edi
	push	2
	push	esi
	call	_ssl3_send_alert
	add	esp, 12					; 0000000cH
$err$72:
; Line 1168
	pop	ebp
	mov	DWORD PTR [esi+52], 5
; Line 1169
	or	eax, -1
	pop	ebx
$LN1@ssl3_get_s:
	pop	edi
	pop	esi
; Line 1170
	add	esp, 24					; 00000018H
	ret	0
_ssl3_get_server_hello ENDP
_TEXT	ENDS
; Function compile flags: /Ogtpy
;	COMDAT _ssl3_client_hello
_TEXT	SEGMENT
_al$ = -12						; size = 4
_d$1$ = -8						; size = 4
_buf$1$ = -4						; size = 4
_j$1$ = 8						; size = 4
_s$ = 8							; size = 4
_ssl3_client_hello PROC					; COMDAT
; File c:\workpace\openssl\openssl-1.0.2h\ssl\s3_clnt.c
; Line 673
	mov	eax, 12					; 0000000cH
	call	__chkstk
	push	ebx
	push	ebp
	push	esi
; Line 684
	mov	esi, DWORD PTR _s$[esp+20]
	mov	DWORD PTR _al$[esp+24], 0
	push	edi
; Line 685
	cmp	DWORD PTR [esi+52], 4368		; 00001110H
	mov	eax, DWORD PTR [esi+60]
	mov	eax, DWORD PTR [eax+4]
	mov	DWORD PTR _buf$1$[esp+28], eax
	jne	$LN8@ssl3_clien
; Line 686
	mov	ecx, DWORD PTR [esi+192]
; Line 695
	test	ecx, ecx
	je	SHORT $LN10@ssl3_clien
	mov	eax, DWORD PTR [ecx]
	cmp	eax, DWORD PTR [esi]
	jne	SHORT $LN10@ssl3_clien
	cmp	DWORD PTR [ecx+68], 0
	jne	SHORT $LN11@ssl3_clien
	cmp	DWORD PTR [ecx+228], 0
	je	SHORT $LN10@ssl3_clien
$LN11@ssl3_clien:
	cmp	DWORD PTR [ecx+148], 0
	je	SHORT $LN12@ssl3_clien
$LN10@ssl3_clien:
; Line 698
	push	0
	push	esi
	call	_ssl_get_new_session
	add	esp, 8
	test	eax, eax
	je	SHORT $err$51
$LN12@ssl3_clien:
; Line 701
	mov	eax, DWORD PTR [esi+8]
	cmp	DWORD PTR [eax], 131071			; 0001ffffH
	jne	$LN13@ssl3_clien
; Line 703
	mov	ecx, DWORD PTR [esi+256]
; Line 705
	test	ecx, 134217728				; 08000000H
	je	SHORT $LN14@ssl3_clien
; Line 706
	mov	eax, DWORD PTR [esi+152]
	test	DWORD PTR [eax+56], 196608		; 00030000H
	je	SHORT $LN16@ssl3_clien
; Line 707
	push	708					; 000002c4H
	push	OFFSET ??_C@_0BA@NMKJILMC@?4?2ssl?2s3_clnt?4c?$AA@
	push	387					; 00000183H
$LN49@ssl3_clien:
; Line 715
	push	131					; 00000083H
	push	20					; 00000014H
	call	_ERR_put_error
	add	esp, 20					; 00000014H
$err$51:
; Line 889
	pop	edi
	mov	DWORD PTR [esi+52], 5
; Line 890
	or	eax, -1
	pop	esi
	pop	ebp
	pop	ebx
; Line 891
	add	esp, 12					; 0000000cH
	ret	0
$LN16@ssl3_clien:
; Line 714
	test	ecx, 67108864				; 04000000H
	je	SHORT $LN17@ssl3_clien
; Line 715
	push	715					; 000002cbH
	push	OFFSET ??_C@_0BA@NMKJILMC@?4?2ssl?2s3_clnt?4c?$AA@
	push	266					; 0000010aH
; Line 716
	jmp	SHORT $LN49@ssl3_clien
$LN17@ssl3_clien:
; Line 721
	call	_DTLSv1_client_method
	mov	DWORD PTR [esi+8], eax
; Line 722
	mov	DWORD PTR [esi], 65279			; 0000feffH
; Line 723
	jmp	SHORT $LN15@ssl3_clien
$LN14@ssl3_clien:
; Line 727
	test	ecx, 67108864				; 04000000H
	je	SHORT $LN18@ssl3_clien
; Line 728
	call	_DTLSv1_2_client_method
	mov	DWORD PTR [esi+8], eax
$LN18@ssl3_clien:
; Line 729
	mov	DWORD PTR [esi], 65277			; 0000fefdH
$LN15@ssl3_clien:
; Line 731
	mov	eax, DWORD PTR [esi]
	mov	DWORD PTR [esi+272], eax
$LN13@ssl3_clien:
; Line 741
	mov	eax, DWORD PTR [esi+8]
	mov	ecx, DWORD PTR [esi+88]
	add	ecx, 192				; 000000c0H
	mov	eax, DWORD PTR [eax+100]
	test	BYTE PTR [eax+56], 8
	je	SHORT $LN19@ssl3_clien
; Line 744
	xor	eax, eax
$LL4@ssl3_clien:
; Line 745
	cmp	BYTE PTR [eax+ecx], 0
	jne	SHORT $LN22@ssl3_clien
; Line 744
	inc	eax
	cmp	eax, 32					; 00000020H
	jb	SHORT $LL4@ssl3_clien
$LN19@ssl3_clien:
; Line 753
	push	32					; 00000020H
	push	ecx
	push	0
	push	esi
	call	_ssl_fill_hello_random
	add	esp, 16					; 00000010H
	test	eax, eax
	jle	$err$51
$LN22@ssl3_clien:
; Line 758
	mov	eax, DWORD PTR [esi+8]
	mov	ecx, DWORD PTR [esi+60]
	mov	eax, DWORD PTR [eax+100]
	mov	edi, DWORD PTR [eax+60]
	add	edi, DWORD PTR [ecx+4]
; Line 795
	mov	eax, DWORD PTR [esi+272]
	mov	ebp, edi
	sar	eax, 8
	mov	DWORD PTR _d$1$[esp+28], ebp
	mov	BYTE PTR [edi], al
; Line 796
	mov	al, BYTE PTR [esi+272]
	mov	BYTE PTR [edi+1], al
; Line 800
	mov	eax, DWORD PTR [esi+88]
	movups	xmm0, XMMWORD PTR [eax+192]
	movups	XMMWORD PTR [edi+2], xmm0
	movups	xmm0, XMMWORD PTR [eax+208]
	movups	XMMWORD PTR [edi+18], xmm0
; Line 804
	cmp	DWORD PTR [esi+40], 0
	je	SHORT $LN23@ssl3_clien
; Line 805
	xor	ebx, ebx
	jmp	SHORT $LN24@ssl3_clien
$LN23@ssl3_clien:
; Line 807
	mov	eax, DWORD PTR [esi+192]
	mov	ebx, DWORD PTR [eax+68]
$LN24@ssl3_clien:
; Line 808
	mov	BYTE PTR [edi+34], bl
	add	edi, 35					; 00000023H
; Line 809
	test	ebx, ebx
	je	SHORT $LN25@ssl3_clien
; Line 810
	cmp	ebx, 32					; 00000020H
	jle	SHORT $LN26@ssl3_clien
; Line 811
	push	811					; 0000032bH
	push	OFFSET ??_C@_0BA@NMKJILMC@?4?2ssl?2s3_clnt?4c?$AA@
	push	68					; 00000044H
; Line 812
	jmp	$LN49@ssl3_clien
$LN26@ssl3_clien:
; Line 814
	mov	eax, DWORD PTR [esi+192]
	push	ebx
	add	eax, 72					; 00000048H
	push	eax
	push	edi
	call	_memcpy
	add	esp, 12					; 0000000cH
; Line 815
	add	edi, ebx
$LN25@ssl3_clien:
; Line 819
	mov	eax, DWORD PTR [esi+8]
	mov	eax, DWORD PTR [eax+100]
	test	BYTE PTR [eax+56], 8
	je	SHORT $LN27@ssl3_clien
; Line 820
	mov	eax, DWORD PTR [esi+92]
	cmp	DWORD PTR [eax+516], 256		; 00000100H
	jbe	SHORT $LN28@ssl3_clien
; Line 821
	push	821					; 00000335H
	push	OFFSET ??_C@_0BA@NMKJILMC@?4?2ssl?2s3_clnt?4c?$AA@
	push	68					; 00000044H
	jmp	$LN49@ssl3_clien
$LN28@ssl3_clien:
; Line 824
	mov	al, BYTE PTR [eax+516]
	mov	BYTE PTR [edi], al
	inc	edi
; Line 825
	mov	eax, DWORD PTR [esi+92]
	push	DWORD PTR [eax+516]
	add	eax, 4
	push	eax
	push	edi
	call	_memcpy
; Line 826
	mov	eax, DWORD PTR [esi+92]
	add	esp, 12					; 0000000cH
	add	edi, DWORD PTR [eax+516]
$LN27@ssl3_clien:
; Line 830
	push	0
	lea	eax, DWORD PTR [edi+2]
	push	eax
	push	esi
	call	_SSL_get_ciphers
	add	esp, 4
	push	eax
	push	esi
	call	_ssl_cipher_list_to_bytes
	mov	ecx, eax
	add	esp, 16					; 00000010H
; Line 831
	test	ecx, ecx
	jne	SHORT $LN29@ssl3_clien
; Line 832
	push	832					; 00000340H
	push	OFFSET ??_C@_0BA@NMKJILMC@?4?2ssl?2s3_clnt?4c?$AA@
	push	181					; 000000b5H
; Line 833
	jmp	$LN49@ssl3_clien
$LN29@ssl3_clien:
; Line 845
	mov	eax, ecx
	mov	BYTE PTR [edi+1], cl
	sar	eax, 8
	mov	BYTE PTR [edi], al
; Line 846
	add	edi, ecx
; Line 854
	test	DWORD PTR [esi+256], 131072		; 00020000H
	jne	SHORT $LN32@ssl3_clien
	mov	eax, DWORD PTR [esi+228]
	mov	eax, DWORD PTR [eax+152]
	test	eax, eax
	je	SHORT $LN32@ssl3_clien
; Line 857
	push	eax
	call	_sk_num
	add	esp, 4
	mov	ecx, eax
	jmp	SHORT $LN46@ssl3_clien
$LN32@ssl3_clien:
; Line 855
	xor	ecx, ecx
$LN46@ssl3_clien:
; Line 858
	lea	eax, DWORD PTR [ecx+1]
	mov	DWORD PTR _j$1$[esp+24], ecx
	mov	BYTE PTR [edi+2], al
; Line 859
	xor	ebx, ebx
	add	edi, 3
	test	ecx, ecx
	jle	SHORT $LN6@ssl3_clien
	mov	ebp, ecx
$LL7@ssl3_clien:
; Line 860
	mov	eax, DWORD PTR [esi+228]
	push	ebx
	push	DWORD PTR [eax+152]
	call	_sk_value
	inc	ebx
	add	esp, 8
; Line 861
	mov	al, BYTE PTR [eax]
	mov	BYTE PTR [edi], al
	inc	edi
	cmp	ebx, ebp
	jl	SHORT $LL7@ssl3_clien
	mov	ebp, DWORD PTR _d$1$[esp+28]
$LN6@ssl3_clien:
; Line 868
	push	esi
	mov	BYTE PTR [edi], 0
	call	_ssl_prepare_clienthello_tlsext
	add	esp, 4
	test	eax, eax
	jg	SHORT $LN33@ssl3_clien
; Line 869
	push	869					; 00000365H
	push	OFFSET ??_C@_0BA@NMKJILMC@?4?2ssl?2s3_clnt?4c?$AA@
	push	226					; 000000e2H
; Line 870
	jmp	$LN49@ssl3_clien
$LN33@ssl3_clien:
; Line 874
	lea	eax, DWORD PTR _al$[esp+28]
	push	eax
	mov	eax, DWORD PTR _buf$1$[esp+32]
	add	eax, 16384				; 00004000H
	push	eax
	lea	eax, DWORD PTR [edi+1]
	push	eax
	push	esi
	call	_ssl_add_clienthello_tlsext
	mov	ecx, eax
	add	esp, 16					; 00000010H
	test	ecx, ecx
	jne	SHORT $LN34@ssl3_clien
; Line 875
	push	DWORD PTR _al$[esp+28]
	push	2
	push	esi
	call	_ssl3_send_alert
; Line 876
	push	876					; 0000036cH
	push	OFFSET ??_C@_0BA@NMKJILMC@?4?2ssl?2s3_clnt?4c?$AA@
	push	68					; 00000044H
	push	131					; 00000083H
	push	20					; 00000014H
	call	_ERR_put_error
	add	esp, 32					; 00000020H
; Line 889
	mov	DWORD PTR [esi+52], 5
; Line 890
	or	eax, -1
	pop	edi
	pop	esi
	pop	ebp
	pop	ebx
; Line 891
	add	esp, 12					; 0000000cH
	ret	0
$LN34@ssl3_clien:
; Line 882
	mov	eax, DWORD PTR [esi+8]
	sub	ecx, ebp
	push	ecx
	push	1
	push	esi
	mov	eax, DWORD PTR [eax+100]
	mov	eax, DWORD PTR [eax+64]
	call	eax
	add	esp, 12					; 0000000cH
; Line 883
	mov	DWORD PTR [esi+52], 4369		; 00001111H
$LN8@ssl3_clien:
; Line 887
	mov	eax, DWORD PTR [esi+8]
	push	esi
	mov	eax, DWORD PTR [eax+100]
	mov	eax, DWORD PTR [eax+68]
	call	eax
	add	esp, 4
	pop	edi
	pop	esi
	pop	ebp
	pop	ebx
; Line 891
	add	esp, 12					; 0000000cH
	ret	0
_ssl3_client_hello ENDP
_TEXT	ENDS
; Function compile flags: /Ogtpy
;	COMDAT _ssl3_connect
_TEXT	SEGMENT
_skip$1$ = -8						; size = 4
_Time$ = -4						; size = 4
_state$1$ = 8						; size = 4
_s$ = 8							; size = 4
_ssl3_connect PROC					; COMDAT
; File c:\workpace\openssl\openssl-1.0.2h\ssl\s3_clnt.c
; Line 189
	mov	eax, 8
	call	__chkstk
	push	ebx
	push	ebp
	push	esi
	push	edi
; Line 190
	xor	ebp, ebp
; File c:\program files\windows kits\10\include\10.0.10586.0\ucrt\time.h
; Line 535
	push	ebp
	call	DWORD PTR __imp___time64
	add	esp, 4
; File c:\workpace\openssl\openssl-1.0.2h\ssl\s3_clnt.c
; Line 191
	mov	DWORD PTR _Time$[esp+24], eax
; Line 194
	xor	edi, edi
; Line 196
	lea	eax, DWORD PTR [ebp+8]
	mov	DWORD PTR _skip$1$[esp+24], edi
	call	__chkstk
	xorps	xmm0, xmm0
	lea	eax, DWORD PTR _Time$[esp+32]
	movsd	QWORD PTR [esp], xmm0
	push	4
	push	eax
	call	_RAND_add
	add	esp, 16					; 00000010H
; Line 197
	call	_ERR_clear_error
; Line 198
	push	edi
	call	DWORD PTR __imp__SetLastError@4
; Line 200
	mov	esi, DWORD PTR _s$[esp+20]
	mov	ebx, DWORD PTR [esi+208]
	test	ebx, ebx
	jne	SHORT $LN9@ssl3_conne
; Line 202
	mov	eax, DWORD PTR [esi+228]
	mov	eax, DWORD PTR [eax+156]
	test	eax, eax
	cmovne	ebx, eax
$LN9@ssl3_conne:
; Line 205
	inc	DWORD PTR [esi+28]
; Line 206
	push	esi
	call	_SSL_state
	add	esp, 4
	test	eax, 12288				; 00003000H
	je	SHORT $LN11@ssl3_conne
	push	esi
	call	_SSL_state
	add	esp, 4
	test	eax, 16384				; 00004000H
	je	SHORT $LN10@ssl3_conne
$LN11@ssl3_conne:
; Line 207
	push	esi
	call	_SSL_clear
	add	esp, 4
$LN10@ssl3_conne:
; Line 215
	cmp	DWORD PTR [esi+392], edi
	je	SHORT $LL2@ssl3_conne
; Line 217
	inc	DWORD PTR [esi+396]
	mov	DWORD PTR [esi+392], edi
	npad	2
$LL2@ssl3_conne:
; Line 222
	mov	eax, DWORD PTR [esi+52]
	mov	DWORD PTR _state$1$[esp+20], eax
; Line 224
	cmp	eax, 4352				; 00001100H
	jg	SHORT $LN99@ssl3_conne
	je	SHORT $LN84@ssl3_conne
	sub	eax, 3
	je	$LN86@ssl3_conne
	sub	eax, 4093				; 00000ffdH
	je	$LN14@ssl3_conne
	sub	eax, 3
	jmp	$LN142@ssl3_conne
$LN84@ssl3_conne:
; Line 595
	push	0
	push	0
	push	11					; 0000000bH
	push	DWORD PTR [esi+16]
	mov	DWORD PTR [esi+24], 2
	call	_BIO_ctrl
	add	esp, 16					; 00000010H
	test	eax, eax
	jle	$LN105@ssl3_conne
; Line 600
	mov	eax, DWORD PTR [esi+88]
	mov	DWORD PTR [esi+24], 1
	mov	eax, DWORD PTR [eax+848]
	mov	DWORD PTR [esi+52], eax
; Line 601
	jmp	$LN5@ssl3_conne
$LN99@ssl3_conne:
; Line 224
	cmp	eax, 12292				; 00003004H
	jg	$LN100@ssl3_conne
	je	$LN13@ssl3_conne
	sub	eax, 4368				; 00001110H
	cmp	eax, 241				; 000000f1H
	ja	$LN126@ssl3_conne
	movzx	eax, BYTE PTR $LN137@ssl3_conne[eax]
	jmp	DWORD PTR $LN145@ssl3_conne[eax*4]
$LN22@ssl3_conne:
; Line 294
	push	esi
	mov	DWORD PTR [esi+48], 0
	call	_ssl3_client_hello
	mov	edi, eax
	add	esp, 4
; Line 295
	test	edi, edi
	jle	$end$146
; Line 301
	mov	eax, DWORD PTR [esi+20]
	mov	ecx, DWORD PTR [esi+16]
	mov	DWORD PTR [esi+52], 4384		; 00001120H
	mov	DWORD PTR [esi+68], 0
	cmp	eax, ecx
	je	SHORT $LN140@ssl3_conne
; Line 302
	push	ecx
	push	eax
	call	_BIO_push
	add	esp, 8
	mov	DWORD PTR [esi+16], eax
; Line 304
	jmp	SHORT $LN140@ssl3_conne
$LN25@ssl3_conne:
; Line 308
	push	esi
	call	_ssl3_get_server_hello
	mov	edi, eax
	add	esp, 4
; Line 309
	test	edi, edi
	jle	$end$146
; Line 312
	cmp	DWORD PTR [esi+108], 0
	je	SHORT $LN27@ssl3_conne
; Line 315
	cmp	DWORD PTR [esi+320], 0
	mov	DWORD PTR [esi+52], 4560		; 000011d0H
	je	SHORT $LN28@ssl3_conne
; Line 317
	mov	DWORD PTR [esi+52], 4576		; 000011e0H
; Line 320
	jmp	SHORT $LN28@ssl3_conne
$LN27@ssl3_conne:
; Line 321
	mov	DWORD PTR [esi+52], 4400		; 00001130H
; Line 324
	jmp	SHORT $LN28@ssl3_conne
$LN30@ssl3_conne:
; Line 329
	push	esi
	call	_ssl3_check_finished
	mov	edi, eax
	add	esp, 4
; Line 330
	test	edi, edi
	js	$end$146
; Line 332
	cmp	edi, 1
	jne	SHORT $LN32@ssl3_conne
; Line 333
	mov	DWORD PTR [esi+108], eax
$LN143@ssl3_conne:
; Line 563
	mov	DWORD PTR [esi+52], 4560		; 000011d0H
$LN28@ssl3_conne:
; Line 335
	mov	DWORD PTR [esi+68], 0
$LN140@ssl3_conne:
	mov	edi, DWORD PTR _skip$1$[esp+24]
$LN5@ssl3_conne:
; Line 648
	mov	eax, DWORD PTR [esi+88]
	cmp	DWORD PTR [eax+852], 0
	jne	SHORT $LN95@ssl3_conne
	test	edi, edi
	jne	SHORT $LN95@ssl3_conne
; Line 649
	cmp	DWORD PTR [esi+232], edi
	je	SHORT $LN94@ssl3_conne
; Line 650
	push	edi
	push	edi
	push	11					; 0000000bH
	push	DWORD PTR [esi+16]
	call	_BIO_ctrl
	mov	edi, eax
	add	esp, 16					; 00000010H
	test	edi, edi
	jle	$end$146
$LN94@ssl3_conne:
; Line 654
	test	ebx, ebx
	je	SHORT $LN95@ssl3_conne
	mov	edi, DWORD PTR [esi+52]
	mov	eax, DWORD PTR _state$1$[esp+20]
	cmp	edi, eax
	je	SHORT $LN95@ssl3_conne
; Line 657
	push	1
	push	4097					; 00001001H
	push	esi
	mov	DWORD PTR [esi+52], eax
	call	ebx
	add	esp, 12					; 0000000cH
; Line 658
	mov	DWORD PTR [esi+52], edi
$LN95@ssl3_conne:
; Line 661
	xor	edi, edi
	mov	DWORD PTR _skip$1$[esp+24], edi
; Line 662
	jmp	$LL2@ssl3_conne
$LN32@ssl3_conne:
; Line 344
	mov	eax, DWORD PTR [esi+88]
	mov	eax, DWORD PTR [eax+836]
	test	DWORD PTR [eax+16], 1028		; 00000404H
	jne	SHORT $LN33@ssl3_conne
	test	DWORD PTR [eax+12], 256			; 00000100H
	jne	SHORT $LN33@ssl3_conne
; Line 345
	push	esi
	call	_ssl3_get_server_certificate
	mov	edi, eax
	add	esp, 4
; Line 346
	test	edi, edi
	jle	$end$146
; Line 349
	cmp	DWORD PTR [esi+300], 0
	mov	eax, 4416				; 00001140H
; Line 353
	mov	edi, DWORD PTR _skip$1$[esp+24]
	mov	ecx, 4592				; 000011f0H
	cmovne	eax, ecx
; Line 363
	mov	DWORD PTR [esi+68], 0
	mov	DWORD PTR [esi+52], eax
; Line 364
	jmp	$LN5@ssl3_conne
$LN33@ssl3_conne:
; Line 354
	mov	edi, 1
; Line 355
	mov	DWORD PTR [esi+52], 4416		; 00001140H
; Line 363
	mov	DWORD PTR [esi+68], 0
; Line 364
	jmp	$LN5@ssl3_conne
$LN38@ssl3_conne:
; Line 368
	push	esi
	call	_ssl3_get_key_exchange
	mov	edi, eax
	add	esp, 4
; Line 369
	test	edi, edi
	jle	$end$146
; Line 378
	push	esi
	mov	DWORD PTR [esi+52], 4432		; 00001150H
	mov	DWORD PTR [esi+68], 0
	call	_ssl3_check_cert_and_algorithm
	add	esp, 4
	test	eax, eax
	je	$LN111@ssl3_conne
; Line 383
	jmp	$LN140@ssl3_conne
$LN41@ssl3_conne:
; Line 387
	push	esi
	call	_ssl3_get_certificate_request
	mov	edi, eax
	add	esp, 4
; Line 388
	test	edi, edi
	jle	$end$146
; Line 390
	mov	DWORD PTR [esi+52], 4448		; 00001160H
; Line 392
	jmp	$LN28@ssl3_conne
$LN43@ssl3_conne:
; Line 396
	push	esi
	call	_ssl3_get_server_done
	mov	edi, eax
	add	esp, 4
; Line 397
	test	edi, edi
	jle	$end$146
; Line 400
	mov	eax, DWORD PTR [esi+88]
	mov	eax, DWORD PTR [eax+836]
	test	DWORD PTR [eax+12], 1024		; 00000400H
	je	SHORT $LN46@ssl3_conne
; Line 401
	push	esi
	call	_SRP_Calc_A_param
	mov	edi, eax
	add	esp, 4
	test	edi, edi
	jle	$LN114@ssl3_conne
$LN46@ssl3_conne:
; Line 409
	mov	eax, DWORD PTR [esi+88]
	mov	ecx, 4480				; 00001180H
	cmp	DWORD PTR [eax+856], 0
	mov	eax, 4464				; 00001170H
	cmovne	ecx, eax
	mov	DWORD PTR [esi+52], ecx
; Line 415
	jmp	$LN28@ssl3_conne
$LN49@ssl3_conne:
; Line 421
	push	esi
	call	_ssl3_send_client_certificate
	mov	edi, eax
	add	esp, 4
; Line 422
	test	edi, edi
	jle	$end$146
; Line 424
	mov	DWORD PTR [esi+52], 4480		; 00001180H
; Line 426
	jmp	$LN28@ssl3_conne
$LN51@ssl3_conne:
; Line 430
	push	esi
	call	_ssl3_send_client_key_exchange
	mov	edi, eax
	add	esp, 4
; Line 431
	test	edi, edi
	jle	$end$146
; Line 446
	mov	ecx, DWORD PTR [esi+88]
	mov	eax, 4512				; 000011a0H
	mov	edx, 4496				; 00001190H
	cmp	DWORD PTR [ecx+856], 1
	cmove	eax, edx
	mov	DWORD PTR [esi+52], eax
; Line 451
	test	BYTE PTR [ecx], 16			; 00000010H
	je	$LN28@ssl3_conne
; Line 452
	mov	DWORD PTR [esi+52], 4512		; 000011a0H
; Line 456
	jmp	$LN28@ssl3_conne
$LN56@ssl3_conne:
; Line 460
	push	esi
	call	_ssl3_send_client_verify
	mov	edi, eax
	add	esp, 4
; Line 461
	test	edi, edi
	jle	$end$146
; Line 463
	mov	DWORD PTR [esi+52], 4512		; 000011a0H
; Line 465
	jmp	$LN28@ssl3_conne
$LN58@ssl3_conne:
; Line 469
	push	4513					; 000011a1H
	push	4512					; 000011a0H
	push	esi
	call	_ssl3_send_change_cipher_spec
	mov	edi, eax
	add	esp, 12					; 0000000cH
; Line 472
	test	edi, edi
	jle	$end$146
; Line 478
	mov	edx, DWORD PTR [esi+88]
	mov	ecx, 4608				; 00001200H
	mov	eax, 4528				; 000011b0H
	cmp	DWORD PTR [edx+1052], 0
; Line 483
	mov	DWORD PTR [esi+68], 0
	cmovne	eax, ecx
; Line 485
	mov	ecx, DWORD PTR [esi+192]
	mov	DWORD PTR [esi+52], eax
	mov	eax, DWORD PTR [edx+836]
	mov	DWORD PTR [ecx+180], eax
; Line 489
	mov	eax, DWORD PTR [esi+88]
	mov	eax, DWORD PTR [eax+908]
	test	eax, eax
	jne	SHORT $LN62@ssl3_conne
; Line 490
	mov	eax, DWORD PTR [esi+192]
	mov	DWORD PTR [eax+176], 0
	jmp	SHORT $LN63@ssl3_conne
$LN62@ssl3_conne:
; Line 492
	mov	ecx, DWORD PTR [esi+192]
	mov	eax, DWORD PTR [eax]
	mov	DWORD PTR [ecx+176], eax
$LN63@ssl3_conne:
; Line 494
	mov	eax, DWORD PTR [esi+8]
	push	esi
	mov	eax, DWORD PTR [eax+100]
	mov	eax, DWORD PTR [eax+8]
	call	eax
	add	esp, 4
	test	eax, eax
	je	$LN111@ssl3_conne
; Line 500
	mov	eax, DWORD PTR [esi+8]
	push	18					; 00000012H
	push	esi
	mov	eax, DWORD PTR [eax+100]
	mov	eax, DWORD PTR [eax+16]
	call	eax
	add	esp, 8
	test	eax, eax
	je	$LN111@ssl3_conne
; Line 508
	jmp	$LN140@ssl3_conne
$LN66@ssl3_conne:
; Line 513
	push	esi
	call	_ssl3_send_next_proto
	mov	edi, eax
	add	esp, 4
; Line 514
	test	edi, edi
	jle	$end$146
; Line 516
	mov	DWORD PTR [esi+52], 4528		; 000011b0H
; Line 517
	jmp	$LN140@ssl3_conne
$LN68@ssl3_conne:
; Line 522
	mov	eax, DWORD PTR [esi+8]
	mov	eax, DWORD PTR [eax+100]
	push	DWORD PTR [eax+36]
	push	DWORD PTR [eax+32]
	push	4529					; 000011b1H
	push	4528					; 000011b0H
	push	esi
	call	_ssl3_send_finished
	mov	edi, eax
	add	esp, 20					; 00000014H
; Line 529
	test	edi, edi
	jle	$end$146
; Line 534
	mov	eax, DWORD PTR [esi+88]
	mov	DWORD PTR [esi+52], 4352		; 00001100H
	and	DWORD PTR [eax], -5			; fffffffbH
; Line 535
	cmp	DWORD PTR [esi+108], 0
; Line 536
	mov	eax, DWORD PTR [esi+88]
	je	SHORT $LN70@ssl3_conne
	mov	DWORD PTR [eax+848], 3
; Line 537
	mov	eax, DWORD PTR [esi+88]
	test	BYTE PTR [eax], 2
	je	$LN28@ssl3_conne
; Line 538
	mov	DWORD PTR [esi+52], 3
; Line 539
	or	DWORD PTR [eax], 4
; Line 540
	mov	eax, DWORD PTR [esi+88]
	mov	DWORD PTR [eax+4], 0
; Line 542
	jmp	$LN28@ssl3_conne
$LN70@ssl3_conne:
; Line 547
	cmp	DWORD PTR [esi+320], 0
	je	SHORT $LN73@ssl3_conne
; Line 548
	mov	DWORD PTR [eax+848], 4576		; 000011e0H
	jmp	$LN28@ssl3_conne
$LN73@ssl3_conne:
; Line 552
	mov	DWORD PTR [eax+848], 4560		; 000011d0H
; Line 555
	jmp	$LN28@ssl3_conne
$LN75@ssl3_conne:
; Line 560
	push	esi
	call	_ssl3_get_new_session_ticket
	mov	edi, eax
	add	esp, 4
; Line 561
	test	edi, edi
	jle	$end$146
; Line 565
	jmp	$LN143@ssl3_conne
$LN77@ssl3_conne:
; Line 569
	push	esi
	call	_ssl3_get_cert_status
	mov	edi, eax
	add	esp, 4
; Line 570
	test	edi, edi
	jle	$end$146
; Line 572
	mov	DWORD PTR [esi+52], 4416		; 00001140H
; Line 574
	jmp	$LN28@ssl3_conne
$LN79@ssl3_conne:
; Line 579
	mov	eax, DWORD PTR [esi+88]
	cmp	DWORD PTR [eax+384], 0
	jne	SHORT $LN80@ssl3_conne
; Line 580
	or	DWORD PTR [eax], 128			; 00000080H
$LN80@ssl3_conne:
; Line 581
	push	4561					; 000011d1H
	push	4560					; 000011d0H
	push	esi
	call	_ssl3_get_finished
	mov	edi, eax
	add	esp, 12					; 0000000cH
; Line 583
	test	edi, edi
	jle	$end$146
; Line 586
	cmp	DWORD PTR [esi+108], 0
	mov	eax, 3
	mov	ecx, 4512				; 000011a0H
	cmovne	eax, ecx
	mov	DWORD PTR [esi+52], eax
; Line 591
	jmp	$LN28@ssl3_conne
$LN13@ssl3_conne:
; Line 228
	mov	eax, DWORD PTR [esi+228]
	mov	DWORD PTR [esi+400], 1
	mov	DWORD PTR [esi+52], 4096		; 00001000H
	inc	DWORD PTR [eax+56]
	jmp	SHORT $LN14@ssl3_conne
$LN100@ssl3_conne:
; Line 224
	cmp	eax, 16384				; 00004000H
	je	SHORT $LN14@ssl3_conne
	cmp	eax, 20480				; 00005000H
$LN142@ssl3_conne:
	jne	$LN126@ssl3_conne
$LN14@ssl3_conne:
; Line 235
	mov	DWORD PTR [esi+36], 0
; Line 236
	test	ebx, ebx
	je	SHORT $LN15@ssl3_conne
; Line 237
	push	1
	push	16					; 00000010H
	push	esi
	call	ebx
	add	esp, 12					; 0000000cH
$LN15@ssl3_conne:
; Line 239
	mov	eax, DWORD PTR [esi]
	and	eax, 65280				; 0000ff00H
	cmp	eax, 768				; 00000300H
	jne	$LN127@ssl3_conne
; Line 249
	cmp	DWORD PTR [esi+60], 0
	mov	DWORD PTR [esi+4], 4096			; 00001000H
	jne	SHORT $LN17@ssl3_conne
; Line 250
	call	_BUF_MEM_new
	mov	ebp, eax
	test	ebp, ebp
	je	$LN111@ssl3_conne
; Line 255
	push	16384					; 00004000H
	push	ebp
	call	_BUF_MEM_grow
	add	esp, 8
	test	eax, eax
	je	$LN111@ssl3_conne
; Line 260
	mov	DWORD PTR [esi+60], ebp
; Line 261
	xor	ebp, ebp
$LN17@ssl3_conne:
; Line 264
	push	esi
	call	_ssl3_setup_buffers
	add	esp, 4
	test	eax, eax
	je	$LN105@ssl3_conne
; Line 270
	push	0
	push	esi
	call	_ssl_init_wbio_buffer
	add	esp, 8
	test	eax, eax
	je	$LN111@ssl3_conne
; Line 278
	push	esi
	call	_ssl3_init_finished_mac
; Line 281
	mov	eax, DWORD PTR [esi+228]
	add	esp, 4
	mov	DWORD PTR [esi+52], 4368		; 00001110H
	inc	DWORD PTR [eax+52]
; Line 283
	mov	eax, DWORD PTR [esi+88]
	mov	DWORD PTR [esi+68], 0
	and	DWORD PTR [eax], -129			; ffffff7fH
; Line 287
	mov	eax, DWORD PTR [esi+88]
	mov	DWORD PTR [eax+384], 0
	jmp	$LN5@ssl3_conne
$LN86@ssl3_conne:
; Line 605
	push	esi
	call	_ssl3_cleanup_key_block
; Line 607
	mov	eax, DWORD PTR [esi+60]
	add	esp, 4
	test	eax, eax
	je	SHORT $LN87@ssl3_conne
; Line 608
	push	eax
	call	_BUF_MEM_free
	add	esp, 4
; Line 609
	mov	DWORD PTR [esi+60], 0
$LN87@ssl3_conne:
; Line 616
	mov	eax, DWORD PTR [esi+88]
	test	BYTE PTR [eax], 4
	jne	SHORT $LN88@ssl3_conne
; Line 617
	push	esi
	call	_ssl_free_wbio_buffer
	add	esp, 4
$LN88@ssl3_conne:
; Line 624
	push	1
	push	esi
	mov	DWORD PTR [esi+68], 0
	mov	DWORD PTR [esi+400], 0
	mov	DWORD PTR [esi+40], 0
	call	_ssl_update_cache
	add	esp, 8
; Line 625
	cmp	DWORD PTR [esi+108], 0
	je	SHORT $LN89@ssl3_conne
; Line 626
	mov	eax, DWORD PTR [esi+228]
	inc	DWORD PTR [eax+88]
$LN89@ssl3_conne:
; Line 631
	mov	eax, DWORD PTR [esi+228]
	mov	edi, 1
	mov	DWORD PTR [esi+32], OFFSET _ssl3_connect
	inc	DWORD PTR [eax+60]
; Line 633
	test	ebx, ebx
	je	$end$146
; Line 634
	push	edi
	push	32					; 00000020H
	push	esi
	call	ebx
	add	esp, 12					; 0000000cH
; Line 636
	jmp	SHORT $end$146
$LN114@ssl3_conne:
; Line 402
	push	402					; 00000192H
	push	OFFSET ??_C@_0BA@NMKJILMC@?4?2ssl?2s3_clnt?4c?$AA@
	push	361					; 00000169H
	push	132					; 00000084H
	push	20					; 00000014H
	call	_ERR_put_error
; Line 403
	push	80					; 00000050H
	push	2
	push	esi
	call	_ssl3_send_alert
	add	esp, 32					; 00000020H
; Line 404
	mov	DWORD PTR [esi+52], 5
; Line 405
	jmp	SHORT $end$146
$LN126@ssl3_conne:
; Line 641
	push	641					; 00000281H
	push	OFFSET ??_C@_0BA@NMKJILMC@?4?2ssl?2s3_clnt?4c?$AA@
	push	255					; 000000ffH
	push	132					; 00000084H
	push	20					; 00000014H
	call	_ERR_put_error
	add	esp, 20					; 00000014H
; Line 643
	jmp	SHORT $LN105@ssl3_conne
$LN127@ssl3_conne:
; Line 240
	push	240					; 000000f0H
	push	OFFSET ??_C@_0BA@NMKJILMC@?4?2ssl?2s3_clnt?4c?$AA@
	push	68					; 00000044H
	push	132					; 00000084H
	push	20					; 00000014H
	call	_ERR_put_error
	add	esp, 20					; 00000014H
$LN111@ssl3_conne:
; Line 241
	mov	DWORD PTR [esi+52], 5
$LN105@ssl3_conne:
; Line 242
	or	edi, -1
$end$146:
; Line 664
	dec	DWORD PTR [esi+28]
; Line 665
	test	ebp, ebp
	je	SHORT $LN96@ssl3_conne
; Line 666
	push	ebp
	call	_BUF_MEM_free
	add	esp, 4
$LN96@ssl3_conne:
; Line 667
	test	ebx, ebx
	je	SHORT $LN139@ssl3_conne
; Line 668
	push	edi
	push	4098					; 00001002H
	push	esi
	call	ebx
	add	esp, 12					; 0000000cH
$LN139@ssl3_conne:
; Line 669
	mov	eax, edi
	pop	edi
	pop	esi
	pop	ebp
	pop	ebx
; Line 670
	add	esp, 8
	ret	0
	npad	1
$LN145@ssl3_conne:
	DD	$LN22@ssl3_conne
	DD	$LN25@ssl3_conne
	DD	$LN30@ssl3_conne
	DD	$LN38@ssl3_conne
	DD	$LN41@ssl3_conne
	DD	$LN43@ssl3_conne
	DD	$LN49@ssl3_conne
	DD	$LN51@ssl3_conne
	DD	$LN56@ssl3_conne
	DD	$LN58@ssl3_conne
	DD	$LN68@ssl3_conne
	DD	$LN79@ssl3_conne
	DD	$LN75@ssl3_conne
	DD	$LN77@ssl3_conne
	DD	$LN66@ssl3_conne
	DD	$LN126@ssl3_conne
$LN137@ssl3_conne:
	DB	0
	DB	0
	DB	15					; 0000000fH
	DB	15					; 0000000fH
	DB	15					; 0000000fH
	DB	15					; 0000000fH
	DB	15					; 0000000fH
	DB	15					; 0000000fH
	DB	15					; 0000000fH
	DB	15					; 0000000fH
	DB	15					; 0000000fH
	DB	15					; 0000000fH
	DB	15					; 0000000fH
	DB	15					; 0000000fH
	DB	15					; 0000000fH
	DB	15					; 0000000fH
	DB	1
	DB	1
	DB	15					; 0000000fH
	DB	15					; 0000000fH
	DB	15					; 0000000fH
	DB	15					; 0000000fH
	DB	15					; 0000000fH
	DB	15					; 0000000fH
	DB	15					; 0000000fH
	DB	15					; 0000000fH
	DB	15					; 0000000fH
	DB	15					; 0000000fH
	DB	15					; 0000000fH
	DB	15					; 0000000fH
	DB	15					; 0000000fH
	DB	15					; 0000000fH
	DB	2
	DB	2
	DB	15					; 0000000fH
	DB	15					; 0000000fH
	DB	15					; 0000000fH
	DB	15					; 0000000fH
	DB	15					; 0000000fH
	DB	15					; 0000000fH
	DB	15					; 0000000fH
	DB	15					; 0000000fH
	DB	15					; 0000000fH
	DB	15					; 0000000fH
	DB	15					; 0000000fH
	DB	15					; 0000000fH
	DB	15					; 0000000fH
	DB	15					; 0000000fH
	DB	3
	DB	3
	DB	15					; 0000000fH
	DB	15					; 0000000fH
	DB	15					; 0000000fH
	DB	15					; 0000000fH
	DB	15					; 0000000fH
	DB	15					; 0000000fH
	DB	15					; 0000000fH
	DB	15					; 0000000fH
	DB	15					; 0000000fH
	DB	15					; 0000000fH
	DB	15					; 0000000fH
	DB	15					; 0000000fH
	DB	15					; 0000000fH
	DB	15					; 0000000fH
	DB	4
	DB	4
	DB	15					; 0000000fH
	DB	15					; 0000000fH
	DB	15					; 0000000fH
	DB	15					; 0000000fH
	DB	15					; 0000000fH
	DB	15					; 0000000fH
	DB	15					; 0000000fH
	DB	15					; 0000000fH
	DB	15					; 0000000fH
	DB	15					; 0000000fH
	DB	15					; 0000000fH
	DB	15					; 0000000fH
	DB	15					; 0000000fH
	DB	15					; 0000000fH
	DB	5
	DB	5
	DB	15					; 0000000fH
	DB	15					; 0000000fH
	DB	15					; 0000000fH
	DB	15					; 0000000fH
	DB	15					; 0000000fH
	DB	15					; 0000000fH
	DB	15					; 0000000fH
	DB	15					; 0000000fH
	DB	15					; 0000000fH
	DB	15					; 0000000fH
	DB	15					; 0000000fH
	DB	15					; 0000000fH
	DB	15					; 0000000fH
	DB	15					; 0000000fH
	DB	6
	DB	6
	DB	6
	DB	6
	DB	15					; 0000000fH
	DB	15					; 0000000fH
	DB	15					; 0000000fH
	DB	15					; 0000000fH
	DB	15					; 0000000fH
	DB	15					; 0000000fH
	DB	15					; 0000000fH
	DB	15					; 0000000fH
	DB	15					; 0000000fH
	DB	15					; 0000000fH
	DB	15					; 0000000fH
	DB	15					; 0000000fH
	DB	7
	DB	7
	DB	15					; 0000000fH
	DB	15					; 0000000fH
	DB	15					; 0000000fH
	DB	15					; 0000000fH
	DB	15					; 0000000fH
	DB	15					; 0000000fH
	DB	15					; 0000000fH
	DB	15					; 0000000fH
	DB	15					; 0000000fH
	DB	15					; 0000000fH
	DB	15					; 0000000fH
	DB	15					; 0000000fH
	DB	15					; 0000000fH
	DB	15					; 0000000fH
	DB	8
	DB	8
	DB	15					; 0000000fH
	DB	15					; 0000000fH
	DB	15					; 0000000fH
	DB	15					; 0000000fH
	DB	15					; 0000000fH
	DB	15					; 0000000fH
	DB	15					; 0000000fH
	DB	15					; 0000000fH
	DB	15					; 0000000fH
	DB	15					; 0000000fH
	DB	15					; 0000000fH
	DB	15					; 0000000fH
	DB	15					; 0000000fH
	DB	15					; 0000000fH
	DB	9
	DB	9
	DB	15					; 0000000fH
	DB	15					; 0000000fH
	DB	15					; 0000000fH
	DB	15					; 0000000fH
	DB	15					; 0000000fH
	DB	15					; 0000000fH
	DB	15					; 0000000fH
	DB	15					; 0000000fH
	DB	15					; 0000000fH
	DB	15					; 0000000fH
	DB	15					; 0000000fH
	DB	15					; 0000000fH
	DB	15					; 0000000fH
	DB	15					; 0000000fH
	DB	10					; 0000000aH
	DB	10					; 0000000aH
	DB	15					; 0000000fH
	DB	15					; 0000000fH
	DB	15					; 0000000fH
	DB	15					; 0000000fH
	DB	15					; 0000000fH
	DB	15					; 0000000fH
	DB	15					; 0000000fH
	DB	15					; 0000000fH
	DB	15					; 0000000fH
	DB	15					; 0000000fH
	DB	15					; 0000000fH
	DB	15					; 0000000fH
	DB	15					; 0000000fH
	DB	15					; 0000000fH
	DB	15					; 0000000fH
	DB	15					; 0000000fH
	DB	15					; 0000000fH
	DB	15					; 0000000fH
	DB	15					; 0000000fH
	DB	15					; 0000000fH
	DB	15					; 0000000fH
	DB	15					; 0000000fH
	DB	15					; 0000000fH
	DB	15					; 0000000fH
	DB	15					; 0000000fH
	DB	15					; 0000000fH
	DB	15					; 0000000fH
	DB	15					; 0000000fH
	DB	15					; 0000000fH
	DB	15					; 0000000fH
	DB	11					; 0000000bH
	DB	11					; 0000000bH
	DB	15					; 0000000fH
	DB	15					; 0000000fH
	DB	15					; 0000000fH
	DB	15					; 0000000fH
	DB	15					; 0000000fH
	DB	15					; 0000000fH
	DB	15					; 0000000fH
	DB	15					; 0000000fH
	DB	15					; 0000000fH
	DB	15					; 0000000fH
	DB	15					; 0000000fH
	DB	15					; 0000000fH
	DB	15					; 0000000fH
	DB	15					; 0000000fH
	DB	12					; 0000000cH
	DB	12					; 0000000cH
	DB	15					; 0000000fH
	DB	15					; 0000000fH
	DB	15					; 0000000fH
	DB	15					; 0000000fH
	DB	15					; 0000000fH
	DB	15					; 0000000fH
	DB	15					; 0000000fH
	DB	15					; 0000000fH
	DB	15					; 0000000fH
	DB	15					; 0000000fH
	DB	15					; 0000000fH
	DB	15					; 0000000fH
	DB	15					; 0000000fH
	DB	15					; 0000000fH
	DB	13					; 0000000dH
	DB	13					; 0000000dH
	DB	15					; 0000000fH
	DB	15					; 0000000fH
	DB	15					; 0000000fH
	DB	15					; 0000000fH
	DB	15					; 0000000fH
	DB	15					; 0000000fH
	DB	15					; 0000000fH
	DB	15					; 0000000fH
	DB	15					; 0000000fH
	DB	15					; 0000000fH
	DB	15					; 0000000fH
	DB	15					; 0000000fH
	DB	15					; 0000000fH
	DB	15					; 0000000fH
	DB	14					; 0000000eH
	DB	14					; 0000000eH
_ssl3_connect ENDP
_TEXT	ENDS
; Function compile flags: /Ogtpy
;	COMDAT _SSLv3_client_method
_TEXT	SEGMENT
_SSLv3_client_method PROC				; COMDAT
; File c:\workpace\openssl\openssl-1.0.2h\ssl\s3_clnt.c
; Line 184
	mov	eax, OFFSET ?SSLv3_client_method_data@?1??SSLv3_client_method@@9@9
; Line 186
	ret	0
_SSLv3_client_method ENDP
_TEXT	ENDS
; Function compile flags: /Ogtpy
;	COMDAT _time
_TEXT	SEGMENT
__Time$ = 8						; size = 4
_time	PROC						; COMDAT
; File c:\program files\windows kits\10\include\10.0.10586.0\ucrt\time.h
; Line 535
	jmp	DWORD PTR __imp___time64
_time	ENDP
_TEXT	ENDS
END
