; Listing generated by Microsoft (R) Optimizing Compiler Version 19.00.23918.0 

	TITLE	C:\workpace\openssl\openssl-1.0.2h\ssl\ssl_algs.c
	.686P
	.XMM
	include listing.inc
	.model	flat

INCLUDELIB MSVCRT
INCLUDELIB OLDNAMES

PUBLIC	_SSL_library_init
PUBLIC	??_C@_03GCGHEHKJ@MD5?$AA@			; `string'
PUBLIC	??_C@_08OKFBGHCE@ssl2?9md5?$AA@			; `string'
PUBLIC	??_C@_08CBANLEIB@ssl3?9md5?$AA@			; `string'
PUBLIC	??_C@_04KPMLCNGO@SHA1?$AA@			; `string'
PUBLIC	??_C@_09KCHAKJIH@ssl3?9sha1?$AA@		; `string'
PUBLIC	??_C@_08FBKDDLCN@RSA?9SHA1?$AA@			; `string'
PUBLIC	??_C@_0L@EMMEGDKK@RSA?9SHA1?92?$AA@		; `string'
PUBLIC	??_C@_08IOHJAANG@DSA?9SHA1?$AA@			; `string'
PUBLIC	??_C@_0N@ONIKBKNK@DSA?9SHA1?9old?$AA@		; `string'
PUBLIC	??_C@_04OFLBMBHM@DSS1?$AA@			; `string'
PUBLIC	??_C@_04LMAPAHKG@dss1?$AA@			; `string'
EXTRN	_OBJ_NAME_add:PROC
EXTRN	_EVP_md5:PROC
EXTRN	_EVP_sha1:PROC
EXTRN	_EVP_dss1:PROC
EXTRN	_EVP_ecdsa:PROC
EXTRN	_EVP_sha224:PROC
EXTRN	_EVP_sha256:PROC
EXTRN	_EVP_sha384:PROC
EXTRN	_EVP_sha512:PROC
EXTRN	_EVP_des_cbc:PROC
EXTRN	_EVP_des_ede3_cbc:PROC
EXTRN	_EVP_rc4:PROC
EXTRN	_EVP_idea_cbc:PROC
EXTRN	_EVP_rc2_cbc:PROC
EXTRN	_EVP_rc2_40_cbc:PROC
EXTRN	_EVP_aes_128_cbc:PROC
EXTRN	_EVP_aes_128_gcm:PROC
EXTRN	_EVP_aes_192_cbc:PROC
EXTRN	_EVP_aes_256_cbc:PROC
EXTRN	_EVP_aes_256_gcm:PROC
EXTRN	_EVP_aes_128_cbc_hmac_sha1:PROC
EXTRN	_EVP_aes_256_cbc_hmac_sha1:PROC
EXTRN	_EVP_aes_128_cbc_hmac_sha256:PROC
EXTRN	_EVP_aes_256_cbc_hmac_sha256:PROC
EXTRN	_EVP_camellia_128_cbc:PROC
EXTRN	_EVP_camellia_256_cbc:PROC
EXTRN	_EVP_seed_cbc:PROC
EXTRN	_EVP_add_cipher:PROC
EXTRN	_EVP_add_digest:PROC
EXTRN	_SSL_COMP_get_compression_methods:PROC
EXTRN	_ssl_load_ciphers:PROC
;	COMDAT ??_C@_04LMAPAHKG@dss1?$AA@
CONST	SEGMENT
??_C@_04LMAPAHKG@dss1?$AA@ DB 'dss1', 00H		; `string'
CONST	ENDS
;	COMDAT ??_C@_04OFLBMBHM@DSS1?$AA@
CONST	SEGMENT
??_C@_04OFLBMBHM@DSS1?$AA@ DB 'DSS1', 00H		; `string'
CONST	ENDS
;	COMDAT ??_C@_0N@ONIKBKNK@DSA?9SHA1?9old?$AA@
CONST	SEGMENT
??_C@_0N@ONIKBKNK@DSA?9SHA1?9old?$AA@ DB 'DSA-SHA1-old', 00H ; `string'
CONST	ENDS
;	COMDAT ??_C@_08IOHJAANG@DSA?9SHA1?$AA@
CONST	SEGMENT
??_C@_08IOHJAANG@DSA?9SHA1?$AA@ DB 'DSA-SHA1', 00H	; `string'
CONST	ENDS
;	COMDAT ??_C@_0L@EMMEGDKK@RSA?9SHA1?92?$AA@
CONST	SEGMENT
??_C@_0L@EMMEGDKK@RSA?9SHA1?92?$AA@ DB 'RSA-SHA1-2', 00H ; `string'
CONST	ENDS
;	COMDAT ??_C@_08FBKDDLCN@RSA?9SHA1?$AA@
CONST	SEGMENT
??_C@_08FBKDDLCN@RSA?9SHA1?$AA@ DB 'RSA-SHA1', 00H	; `string'
CONST	ENDS
;	COMDAT ??_C@_09KCHAKJIH@ssl3?9sha1?$AA@
CONST	SEGMENT
??_C@_09KCHAKJIH@ssl3?9sha1?$AA@ DB 'ssl3-sha1', 00H	; `string'
CONST	ENDS
;	COMDAT ??_C@_04KPMLCNGO@SHA1?$AA@
CONST	SEGMENT
??_C@_04KPMLCNGO@SHA1?$AA@ DB 'SHA1', 00H		; `string'
CONST	ENDS
;	COMDAT ??_C@_08CBANLEIB@ssl3?9md5?$AA@
CONST	SEGMENT
??_C@_08CBANLEIB@ssl3?9md5?$AA@ DB 'ssl3-md5', 00H	; `string'
CONST	ENDS
;	COMDAT ??_C@_08OKFBGHCE@ssl2?9md5?$AA@
CONST	SEGMENT
??_C@_08OKFBGHCE@ssl2?9md5?$AA@ DB 'ssl2-md5', 00H	; `string'
CONST	ENDS
;	COMDAT ??_C@_03GCGHEHKJ@MD5?$AA@
CONST	SEGMENT
??_C@_03GCGHEHKJ@MD5?$AA@ DB 'MD5', 00H			; `string'
CONST	ENDS
; Function compile flags: /Ogtpy
;	COMDAT _SSL_library_init
_TEXT	SEGMENT
_SSL_library_init PROC					; COMDAT
; File c:\workpace\openssl\openssl-1.0.2h\ssl\ssl_algs.c
; Line 68
	call	_EVP_des_cbc
	push	eax
	call	_EVP_add_cipher
; Line 69
	call	_EVP_des_ede3_cbc
	push	eax
	call	_EVP_add_cipher
; Line 72
	call	_EVP_idea_cbc
	push	eax
	call	_EVP_add_cipher
; Line 75
	call	_EVP_rc4
	push	eax
	call	_EVP_add_cipher
; Line 81
	call	_EVP_rc2_cbc
	push	eax
	call	_EVP_add_cipher
; Line 86
	call	_EVP_rc2_40_cbc
	push	eax
	call	_EVP_add_cipher
; Line 89
	call	_EVP_aes_128_cbc
	push	eax
	call	_EVP_add_cipher
; Line 90
	call	_EVP_aes_192_cbc
	push	eax
	call	_EVP_add_cipher
; Line 91
	call	_EVP_aes_256_cbc
	push	eax
	call	_EVP_add_cipher
; Line 92
	call	_EVP_aes_128_gcm
	push	eax
	call	_EVP_add_cipher
; Line 93
	call	_EVP_aes_256_gcm
	push	eax
	call	_EVP_add_cipher
; Line 95
	call	_EVP_aes_128_cbc_hmac_sha1
	push	eax
	call	_EVP_add_cipher
; Line 96
	call	_EVP_aes_256_cbc_hmac_sha1
	push	eax
	call	_EVP_add_cipher
; Line 99
	call	_EVP_aes_128_cbc_hmac_sha256
	push	eax
	call	_EVP_add_cipher
; Line 100
	call	_EVP_aes_256_cbc_hmac_sha256
	push	eax
	call	_EVP_add_cipher
; Line 105
	call	_EVP_camellia_128_cbc
	push	eax
	call	_EVP_add_cipher
	add	esp, 64					; 00000040H
; Line 106
	call	_EVP_camellia_256_cbc
	push	eax
	call	_EVP_add_cipher
; Line 110
	call	_EVP_seed_cbc
	push	eax
	call	_EVP_add_cipher
; Line 114
	call	_EVP_md5
	push	eax
	call	_EVP_add_digest
; Line 115
	push	OFFSET ??_C@_03GCGHEHKJ@MD5?$AA@
	push	32769					; 00008001H
	push	OFFSET ??_C@_08OKFBGHCE@ssl2?9md5?$AA@
	call	_OBJ_NAME_add
; Line 116
	push	OFFSET ??_C@_03GCGHEHKJ@MD5?$AA@
	push	32769					; 00008001H
	push	OFFSET ??_C@_08CBANLEIB@ssl3?9md5?$AA@
	call	_OBJ_NAME_add
; Line 119
	call	_EVP_sha1
	push	eax
	call	_EVP_add_digest
; Line 120
	push	OFFSET ??_C@_04KPMLCNGO@SHA1?$AA@
	push	32769					; 00008001H
	push	OFFSET ??_C@_09KCHAKJIH@ssl3?9sha1?$AA@
	call	_OBJ_NAME_add
; Line 121
	push	OFFSET ??_C@_08FBKDDLCN@RSA?9SHA1?$AA@
	push	32769					; 00008001H
	push	OFFSET ??_C@_0L@EMMEGDKK@RSA?9SHA1?92?$AA@
	call	_OBJ_NAME_add
	add	esp, 64					; 00000040H
; Line 124
	call	_EVP_sha224
	push	eax
	call	_EVP_add_digest
; Line 125
	call	_EVP_sha256
	push	eax
	call	_EVP_add_digest
; Line 128
	call	_EVP_sha384
	push	eax
	call	_EVP_add_digest
; Line 129
	call	_EVP_sha512
	push	eax
	call	_EVP_add_digest
; Line 132
	call	_EVP_dss1
	push	eax
	call	_EVP_add_digest
; Line 133
	push	OFFSET ??_C@_08IOHJAANG@DSA?9SHA1?$AA@
	push	32769					; 00008001H
	push	OFFSET ??_C@_0N@ONIKBKNK@DSA?9SHA1?9old?$AA@
	call	_OBJ_NAME_add
; Line 134
	push	OFFSET ??_C@_08IOHJAANG@DSA?9SHA1?$AA@
	push	32769					; 00008001H
	push	OFFSET ??_C@_04OFLBMBHM@DSS1?$AA@
	call	_OBJ_NAME_add
; Line 135
	push	OFFSET ??_C@_08IOHJAANG@DSA?9SHA1?$AA@
	push	32769					; 00008001H
	push	OFFSET ??_C@_04LMAPAHKG@dss1?$AA@
	call	_OBJ_NAME_add
; Line 138
	call	_EVP_ecdsa
	push	eax
	call	_EVP_add_digest
	add	esp, 60					; 0000003cH
; Line 150
	call	_SSL_COMP_get_compression_methods
; Line 153
	call	_ssl_load_ciphers
; Line 154
	mov	eax, 1
; Line 155
	ret	0
_SSL_library_init ENDP
_TEXT	ENDS
END
