; Listing generated by Microsoft (R) Optimizing Compiler Version 19.00.23918.0 

	TITLE	C:\workpace\openssl\openssl-1.0.2h\ssl\ssl_txt.c
	.686P
	.XMM
	include listing.inc
	.model	flat

INCLUDELIB MSVCRT
INCLUDELIB OLDNAMES

PUBLIC	_SSL_SESSION_print_fp
PUBLIC	_SSL_SESSION_print
PUBLIC	??_C@_0BA@GGJPPBKJ@?4?2ssl?2ssl_txt?4c?$AA@	; `string'
PUBLIC	??_C@_0O@DOPEBIPH@SSL?9Session?3?6?$AA@		; `string'
PUBLIC	??_C@_05NHFKDGAI@SSLv2?$AA@			; `string'
PUBLIC	??_C@_05MOEBAHEJ@SSLv3?$AA@			; `string'
PUBLIC	??_C@_07KDKGANMO@TLSv1?42?$AA@			; `string'
PUBLIC	??_C@_07IIILFOAN@TLSv1?41?$AA@			; `string'
PUBLIC	??_C@_05LLIBCOJ@TLSv1?$AA@			; `string'
PUBLIC	??_C@_06JHFCDNFO@DTLSv1?$AA@			; `string'
PUBLIC	??_C@_08KDPDJEAC@DTLSv1?42?$AA@			; `string'
PUBLIC	??_C@_0L@BHNOMOK@DTLSv1?9bad?$AA@		; `string'
PUBLIC	??_C@_07CIFAGBMG@unknown?$AA@			; `string'
PUBLIC	??_C@_0BE@BJCEFJLE@?5?5?5?5Protocol?5?5?3?5?$CFs?6?$AA@ ; `string'
PUBLIC	??_C@_0BH@FBBAGNKN@?5?5?5?5Cipher?5?5?5?5?3?5?$CF06lX?6?$AA@ ; `string'
PUBLIC	??_C@_0BH@CLNADOMN@?5?5?5?5Cipher?5?5?5?5?3?5?$CF04lX?6?$AA@ ; `string'
PUBLIC	??_C@_0BE@IAJOCCIG@?5?5?5?5Cipher?5?5?5?5?3?5?$CFs?6?$AA@ ; `string'
PUBLIC	??_C@_0BB@FAHPFOED@?5?5?5?5Session?9ID?3?5?$AA@	; `string'
PUBLIC	??_C@_04JFFKLGJF@?$CF02X?$AA@			; `string'
PUBLIC	??_C@_0BG@GHGFALFF@?6?5?5?5?5Session?9ID?9ctx?3?5?$AA@ ; `string'
PUBLIC	??_C@_0BC@OPIBJJGE@?6?5?5?5?5Master?9Key?3?5?$AA@ ; `string'
PUBLIC	??_C@_0BC@JAIPBJNA@?6?5?5?5?5Key?9Arg?5?5?5?3?5?$AA@ ; `string'
PUBLIC	??_C@_04OHJIHAFH@None?$AA@			; `string'
PUBLIC	??_C@_0BE@MDCGIBOJ@?6?5?5?5?5PSK?5identity?3?5?$AA@ ; `string'
PUBLIC	??_C@_02DKCKIIND@?$CFs?$AA@			; `string'
PUBLIC	??_C@_0BJ@GHHFDIED@?6?5?5?5?5PSK?5identity?5hint?3?5?$AA@ ; `string'
PUBLIC	??_C@_0BE@ONCKHFP@?6?5?5?5?5SRP?5username?3?5?$AA@ ; `string'
PUBLIC	??_C@_0DF@BEBIMLLC@?6?5?5?5?5TLS?5session?5ticket?5lifetime@ ; `string'
PUBLIC	??_C@_0BK@IIMGJPJN@?6?5?5?5?5TLS?5session?5ticket?3?6?$AA@ ; `string'
PUBLIC	??_C@_0BF@GJDBPBLH@?6?5?5?5?5Compression?3?5?$CFd?$AA@ ; `string'
PUBLIC	??_C@_0BK@HOKLINJC@?6?5?5?5?5Compression?3?5?$CFd?5?$CI?$CFs?$CJ?$AA@ ; `string'
PUBLIC	??_C@_0BF@FGIEMAPO@?6?5?5?5?5Start?5Time?3?5?$CFld?$AA@ ; `string'
PUBLIC	??_C@_0BL@MIKEIIPM@?6?5?5?5?5Timeout?5?5?5?3?5?$CFld?5?$CIsec?$CJ?$AA@ ; `string'
PUBLIC	??_C@_01EEMJAFIK@?6?$AA@			; `string'
PUBLIC	??_C@_0BJ@GCPOPPIE@?5?5?5?5Verify?5return?5code?3?5?$AA@ ; `string'
PUBLIC	??_C@_09MCGNAHMI@?$CFld?5?$CI?$CFs?$CJ?6?$AA@	; `string'
EXTRN	_BIO_s_file:PROC
EXTRN	_BIO_new:PROC
EXTRN	_BIO_free:PROC
EXTRN	_BIO_puts:PROC
EXTRN	_BIO_ctrl:PROC
EXTRN	_BIO_dump_indent:PROC
EXTRN	_BIO_printf:PROC
EXTRN	_ERR_put_error:PROC
EXTRN	_X509_verify_cert_error_string:PROC
EXTRN	_ssl_cipher_get_evp:PROC
;	COMDAT ??_C@_09MCGNAHMI@?$CFld?5?$CI?$CFs?$CJ?6?$AA@
CONST	SEGMENT
??_C@_09MCGNAHMI@?$CFld?5?$CI?$CFs?$CJ?6?$AA@ DB '%ld (%s)', 0aH, 00H ; `string'
CONST	ENDS
;	COMDAT ??_C@_0BJ@GCPOPPIE@?5?5?5?5Verify?5return?5code?3?5?$AA@
CONST	SEGMENT
??_C@_0BJ@GCPOPPIE@?5?5?5?5Verify?5return?5code?3?5?$AA@ DB '    Verify r'
	DB	'eturn code: ', 00H				; `string'
CONST	ENDS
;	COMDAT ??_C@_01EEMJAFIK@?6?$AA@
CONST	SEGMENT
??_C@_01EEMJAFIK@?6?$AA@ DB 0aH, 00H			; `string'
CONST	ENDS
;	COMDAT ??_C@_0BL@MIKEIIPM@?6?5?5?5?5Timeout?5?5?5?3?5?$CFld?5?$CIsec?$CJ?$AA@
CONST	SEGMENT
??_C@_0BL@MIKEIIPM@?6?5?5?5?5Timeout?5?5?5?3?5?$CFld?5?$CIsec?$CJ?$AA@ DB 0aH
	DB	'    Timeout   : %ld (sec)', 00H		; `string'
CONST	ENDS
;	COMDAT ??_C@_0BF@FGIEMAPO@?6?5?5?5?5Start?5Time?3?5?$CFld?$AA@
CONST	SEGMENT
??_C@_0BF@FGIEMAPO@?6?5?5?5?5Start?5Time?3?5?$CFld?$AA@ DB 0aH, '    Star'
	DB	't Time: %ld', 00H				; `string'
CONST	ENDS
;	COMDAT ??_C@_0BK@HOKLINJC@?6?5?5?5?5Compression?3?5?$CFd?5?$CI?$CFs?$CJ?$AA@
CONST	SEGMENT
??_C@_0BK@HOKLINJC@?6?5?5?5?5Compression?3?5?$CFd?5?$CI?$CFs?$CJ?$AA@ DB 0aH
	DB	'    Compression: %d (%s)', 00H		; `string'
CONST	ENDS
;	COMDAT ??_C@_0BF@GJDBPBLH@?6?5?5?5?5Compression?3?5?$CFd?$AA@
CONST	SEGMENT
??_C@_0BF@GJDBPBLH@?6?5?5?5?5Compression?3?5?$CFd?$AA@ DB 0aH, '    Compr'
	DB	'ession: %d', 00H				; `string'
CONST	ENDS
;	COMDAT ??_C@_0BK@IIMGJPJN@?6?5?5?5?5TLS?5session?5ticket?3?6?$AA@
CONST	SEGMENT
??_C@_0BK@IIMGJPJN@?6?5?5?5?5TLS?5session?5ticket?3?6?$AA@ DB 0aH, '    T'
	DB	'LS session ticket:', 0aH, 00H		; `string'
CONST	ENDS
;	COMDAT ??_C@_0DF@BEBIMLLC@?6?5?5?5?5TLS?5session?5ticket?5lifetime@
CONST	SEGMENT
??_C@_0DF@BEBIMLLC@?6?5?5?5?5TLS?5session?5ticket?5lifetime@ DB 0aH, '   '
	DB	' TLS session ticket lifetime hint: %ld (seconds)', 00H ; `string'
CONST	ENDS
;	COMDAT ??_C@_0BE@ONCKHFP@?6?5?5?5?5SRP?5username?3?5?$AA@
CONST	SEGMENT
??_C@_0BE@ONCKHFP@?6?5?5?5?5SRP?5username?3?5?$AA@ DB 0aH, '    SRP usern'
	DB	'ame: ', 00H					; `string'
CONST	ENDS
;	COMDAT ??_C@_0BJ@GHHFDIED@?6?5?5?5?5PSK?5identity?5hint?3?5?$AA@
CONST	SEGMENT
??_C@_0BJ@GHHFDIED@?6?5?5?5?5PSK?5identity?5hint?3?5?$AA@ DB 0aH, '    PS'
	DB	'K identity hint: ', 00H			; `string'
CONST	ENDS
;	COMDAT ??_C@_02DKCKIIND@?$CFs?$AA@
CONST	SEGMENT
??_C@_02DKCKIIND@?$CFs?$AA@ DB '%s', 00H		; `string'
CONST	ENDS
;	COMDAT ??_C@_0BE@MDCGIBOJ@?6?5?5?5?5PSK?5identity?3?5?$AA@
CONST	SEGMENT
??_C@_0BE@MDCGIBOJ@?6?5?5?5?5PSK?5identity?3?5?$AA@ DB 0aH, '    PSK iden'
	DB	'tity: ', 00H				; `string'
CONST	ENDS
;	COMDAT ??_C@_04OHJIHAFH@None?$AA@
CONST	SEGMENT
??_C@_04OHJIHAFH@None?$AA@ DB 'None', 00H		; `string'
CONST	ENDS
;	COMDAT ??_C@_0BC@JAIPBJNA@?6?5?5?5?5Key?9Arg?5?5?5?3?5?$AA@
CONST	SEGMENT
??_C@_0BC@JAIPBJNA@?6?5?5?5?5Key?9Arg?5?5?5?3?5?$AA@ DB 0aH, '    Key-Arg'
	DB	'   : ', 00H					; `string'
CONST	ENDS
;	COMDAT ??_C@_0BC@OPIBJJGE@?6?5?5?5?5Master?9Key?3?5?$AA@
CONST	SEGMENT
??_C@_0BC@OPIBJJGE@?6?5?5?5?5Master?9Key?3?5?$AA@ DB 0aH, '    Master-Key'
	DB	': ', 00H					; `string'
CONST	ENDS
;	COMDAT ??_C@_0BG@GHGFALFF@?6?5?5?5?5Session?9ID?9ctx?3?5?$AA@
CONST	SEGMENT
??_C@_0BG@GHGFALFF@?6?5?5?5?5Session?9ID?9ctx?3?5?$AA@ DB 0aH, '    Sessi'
	DB	'on-ID-ctx: ', 00H				; `string'
CONST	ENDS
;	COMDAT ??_C@_04JFFKLGJF@?$CF02X?$AA@
CONST	SEGMENT
??_C@_04JFFKLGJF@?$CF02X?$AA@ DB '%02X', 00H		; `string'
CONST	ENDS
;	COMDAT ??_C@_0BB@FAHPFOED@?5?5?5?5Session?9ID?3?5?$AA@
CONST	SEGMENT
??_C@_0BB@FAHPFOED@?5?5?5?5Session?9ID?3?5?$AA@ DB '    Session-ID: ', 00H ; `string'
CONST	ENDS
;	COMDAT ??_C@_0BE@IAJOCCIG@?5?5?5?5Cipher?5?5?5?5?3?5?$CFs?6?$AA@
CONST	SEGMENT
??_C@_0BE@IAJOCCIG@?5?5?5?5Cipher?5?5?5?5?3?5?$CFs?6?$AA@ DB '    Cipher '
	DB	'   : %s', 0aH, 00H				; `string'
CONST	ENDS
;	COMDAT ??_C@_0BH@CLNADOMN@?5?5?5?5Cipher?5?5?5?5?3?5?$CF04lX?6?$AA@
CONST	SEGMENT
??_C@_0BH@CLNADOMN@?5?5?5?5Cipher?5?5?5?5?3?5?$CF04lX?6?$AA@ DB '    Ciph'
	DB	'er    : %04lX', 0aH, 00H			; `string'
CONST	ENDS
;	COMDAT ??_C@_0BH@FBBAGNKN@?5?5?5?5Cipher?5?5?5?5?3?5?$CF06lX?6?$AA@
CONST	SEGMENT
??_C@_0BH@FBBAGNKN@?5?5?5?5Cipher?5?5?5?5?3?5?$CF06lX?6?$AA@ DB '    Ciph'
	DB	'er    : %06lX', 0aH, 00H			; `string'
CONST	ENDS
;	COMDAT ??_C@_0BE@BJCEFJLE@?5?5?5?5Protocol?5?5?3?5?$CFs?6?$AA@
CONST	SEGMENT
??_C@_0BE@BJCEFJLE@?5?5?5?5Protocol?5?5?3?5?$CFs?6?$AA@ DB '    Protocol '
	DB	' : %s', 0aH, 00H				; `string'
CONST	ENDS
;	COMDAT ??_C@_07CIFAGBMG@unknown?$AA@
CONST	SEGMENT
??_C@_07CIFAGBMG@unknown?$AA@ DB 'unknown', 00H		; `string'
CONST	ENDS
;	COMDAT ??_C@_0L@BHNOMOK@DTLSv1?9bad?$AA@
CONST	SEGMENT
??_C@_0L@BHNOMOK@DTLSv1?9bad?$AA@ DB 'DTLSv1-bad', 00H	; `string'
CONST	ENDS
;	COMDAT ??_C@_08KDPDJEAC@DTLSv1?42?$AA@
CONST	SEGMENT
??_C@_08KDPDJEAC@DTLSv1?42?$AA@ DB 'DTLSv1.2', 00H	; `string'
CONST	ENDS
;	COMDAT ??_C@_06JHFCDNFO@DTLSv1?$AA@
CONST	SEGMENT
??_C@_06JHFCDNFO@DTLSv1?$AA@ DB 'DTLSv1', 00H		; `string'
CONST	ENDS
;	COMDAT ??_C@_05LLIBCOJ@TLSv1?$AA@
CONST	SEGMENT
??_C@_05LLIBCOJ@TLSv1?$AA@ DB 'TLSv1', 00H		; `string'
CONST	ENDS
;	COMDAT ??_C@_07IIILFOAN@TLSv1?41?$AA@
CONST	SEGMENT
??_C@_07IIILFOAN@TLSv1?41?$AA@ DB 'TLSv1.1', 00H	; `string'
CONST	ENDS
;	COMDAT ??_C@_07KDKGANMO@TLSv1?42?$AA@
CONST	SEGMENT
??_C@_07KDKGANMO@TLSv1?42?$AA@ DB 'TLSv1.2', 00H	; `string'
CONST	ENDS
;	COMDAT ??_C@_05MOEBAHEJ@SSLv3?$AA@
CONST	SEGMENT
??_C@_05MOEBAHEJ@SSLv3?$AA@ DB 'SSLv3', 00H		; `string'
CONST	ENDS
;	COMDAT ??_C@_05NHFKDGAI@SSLv2?$AA@
CONST	SEGMENT
??_C@_05NHFKDGAI@SSLv2?$AA@ DB 'SSLv2', 00H		; `string'
CONST	ENDS
;	COMDAT ??_C@_0O@DOPEBIPH@SSL?9Session?3?6?$AA@
CONST	SEGMENT
??_C@_0O@DOPEBIPH@SSL?9Session?3?6?$AA@ DB 'SSL-Session:', 0aH, 00H ; `string'
CONST	ENDS
;	COMDAT ??_C@_0BA@GGJPPBKJ@?4?2ssl?2ssl_txt?4c?$AA@
CONST	SEGMENT
??_C@_0BA@GGJPPBKJ@?4?2ssl?2ssl_txt?4c?$AA@ DB '.\ssl\ssl_txt.c', 00H ; `string'
CONST	ENDS
; Function compile flags: /Ogtpy
;	COMDAT _SSL_SESSION_print
_TEXT	SEGMENT
_bp$ = 8						; size = 4
_comp$1 = 12						; size = 4
_x$ = 12						; size = 4
_SSL_SESSION_print PROC					; COMDAT
; File c:\workpace\openssl\openssl-1.0.2h\ssl\ssl_txt.c
; Line 107
	push	ebx
	push	esi
; Line 111
	mov	esi, DWORD PTR _x$[esp+4]
	push	edi
	test	esi, esi
	je	$err$108
; Line 113
	mov	edi, DWORD PTR _bp$[esp+8]
	push	OFFSET ??_C@_0O@DOPEBIPH@SSL?9Session?3?6?$AA@
	push	edi
	call	_BIO_puts
	add	esp, 8
	test	eax, eax
	jle	$err$108
; Line 115
	mov	ecx, DWORD PTR [esi]
	cmp	ecx, 2
	jne	SHORT $LN16@SSL_SESSIO
; Line 116
	mov	eax, OFFSET ??_C@_05NHFKDGAI@SSLv2?$AA@
	jmp	SHORT $LN30@SSL_SESSIO
$LN16@SSL_SESSIO:
; Line 117
	cmp	ecx, 768				; 00000300H
	jne	SHORT $LN18@SSL_SESSIO
; Line 118
	mov	eax, OFFSET ??_C@_05MOEBAHEJ@SSLv3?$AA@
	jmp	SHORT $LN30@SSL_SESSIO
$LN18@SSL_SESSIO:
; Line 119
	cmp	ecx, 771				; 00000303H
	jne	SHORT $LN20@SSL_SESSIO
; Line 120
	mov	eax, OFFSET ??_C@_07KDKGANMO@TLSv1?42?$AA@
	jmp	SHORT $LN30@SSL_SESSIO
$LN20@SSL_SESSIO:
; Line 121
	cmp	ecx, 770				; 00000302H
	jne	SHORT $LN22@SSL_SESSIO
; Line 122
	mov	eax, OFFSET ??_C@_07IIILFOAN@TLSv1?41?$AA@
	jmp	SHORT $LN30@SSL_SESSIO
$LN22@SSL_SESSIO:
; Line 123
	cmp	ecx, 769				; 00000301H
	jne	SHORT $LN24@SSL_SESSIO
; Line 124
	mov	eax, OFFSET ??_C@_05LLIBCOJ@TLSv1?$AA@
	jmp	SHORT $LN30@SSL_SESSIO
$LN24@SSL_SESSIO:
; Line 125
	cmp	ecx, 65279				; 0000feffH
	jne	SHORT $LN26@SSL_SESSIO
; Line 126
	mov	eax, OFFSET ??_C@_06JHFCDNFO@DTLSv1?$AA@
	jmp	SHORT $LN30@SSL_SESSIO
$LN26@SSL_SESSIO:
; Line 127
	cmp	ecx, 65277				; 0000fefdH
	jne	SHORT $LN28@SSL_SESSIO
; Line 128
	mov	eax, OFFSET ??_C@_08KDPDJEAC@DTLSv1?42?$AA@
	jmp	SHORT $LN30@SSL_SESSIO
$LN28@SSL_SESSIO:
; Line 129
	cmp	ecx, 256				; 00000100H
	mov	eax, OFFSET ??_C@_0L@BHNOMOK@DTLSv1?9bad?$AA@
	mov	edx, OFFSET ??_C@_07CIFAGBMG@unknown?$AA@
	cmovne	eax, edx
$LN30@SSL_SESSIO:
; Line 133
	push	eax
	push	OFFSET ??_C@_0BE@BJCEFJLE@?5?5?5?5Protocol?5?5?3?5?$CFs?6?$AA@
	push	edi
	call	_BIO_printf
	add	esp, 12					; 0000000cH
	test	eax, eax
	jle	$err$108
; Line 136
	mov	eax, DWORD PTR [esi+180]
	test	eax, eax
	jne	SHORT $LN33@SSL_SESSIO
; Line 137
	mov	ecx, DWORD PTR [esi+184]
	mov	eax, ecx
	and	eax, -16777216				; ff000000H
	cmp	eax, 33554432				; 02000000H
	jne	SHORT $LN35@SSL_SESSIO
; Line 139
	and	ecx, 16777215				; 00ffffffH
	push	ecx
	push	OFFSET ??_C@_0BH@FBBAGNKN@?5?5?5?5Cipher?5?5?5?5?3?5?$CF06lX?6?$AA@
; Line 141
	jmp	SHORT $LN104@SSL_SESSIO
$LN35@SSL_SESSIO:
; Line 143
	movzx	eax, cx
	push	eax
	push	OFFSET ??_C@_0BH@CLNADOMN@?5?5?5?5Cipher?5?5?5?5?3?5?$CF04lX?6?$AA@
; Line 146
	jmp	SHORT $LN104@SSL_SESSIO
$LN33@SSL_SESSIO:
; Line 149
	push	DWORD PTR [eax+4]
	push	OFFSET ??_C@_0BE@IAJOCCIG@?5?5?5?5Cipher?5?5?5?5?3?5?$CFs?6?$AA@
$LN104@SSL_SESSIO:
	push	edi
	call	_BIO_printf
	add	esp, 12					; 0000000cH
	test	eax, eax
	jle	$err$108
; Line 152
	push	OFFSET ??_C@_0BB@FAHPFOED@?5?5?5?5Session?9ID?3?5?$AA@
	push	edi
	call	_BIO_puts
	add	esp, 8
	test	eax, eax
	jle	$err$108
; Line 154
	xor	ebx, ebx
	cmp	DWORD PTR [esi+68], ebx
	jbe	SHORT $LN3@SSL_SESSIO
	npad	8
$LL4@SSL_SESSIO:
; Line 155
	movzx	eax, BYTE PTR [esi+ebx+72]
	push	eax
	push	OFFSET ??_C@_04JFFKLGJF@?$CF02X?$AA@
	push	edi
	call	_BIO_printf
	add	esp, 12					; 0000000cH
	test	eax, eax
	jle	$err$108
; Line 154
	inc	ebx
	cmp	ebx, DWORD PTR [esi+68]
	jb	SHORT $LL4@SSL_SESSIO
$LN3@SSL_SESSIO:
; Line 158
	push	OFFSET ??_C@_0BG@GHGFALFF@?6?5?5?5?5Session?9ID?9ctx?3?5?$AA@
	push	edi
	call	_BIO_puts
	add	esp, 8
	test	eax, eax
	jle	$err$108
; Line 160
	xor	ebx, ebx
	cmp	DWORD PTR [esi+104], ebx
	jbe	SHORT $LN6@SSL_SESSIO
	npad	1
$LL7@SSL_SESSIO:
; Line 161
	movzx	eax, BYTE PTR [esi+ebx+108]
	push	eax
	push	OFFSET ??_C@_04JFFKLGJF@?$CF02X?$AA@
	push	edi
	call	_BIO_printf
	add	esp, 12					; 0000000cH
	test	eax, eax
	jle	SHORT $err$108
; Line 160
	inc	ebx
	cmp	ebx, DWORD PTR [esi+104]
	jb	SHORT $LL7@SSL_SESSIO
$LN6@SSL_SESSIO:
; Line 164
	push	OFFSET ??_C@_0BC@OPIBJJGE@?6?5?5?5?5Master?9Key?3?5?$AA@
	push	edi
	call	_BIO_puts
	add	esp, 8
	test	eax, eax
	jle	SHORT $err$108
; Line 166
	xor	ebx, ebx
	cmp	DWORD PTR [esi+16], ebx
	jbe	SHORT $LN9@SSL_SESSIO
	npad	9
$LL10@SSL_SESSIO:
; Line 167
	movzx	eax, BYTE PTR [esi+ebx+20]
	push	eax
	push	OFFSET ??_C@_04JFFKLGJF@?$CF02X?$AA@
	push	edi
	call	_BIO_printf
	add	esp, 12					; 0000000cH
	test	eax, eax
	jle	SHORT $err$108
; Line 166
	inc	ebx
	cmp	ebx, DWORD PTR [esi+16]
	jb	SHORT $LL10@SSL_SESSIO
$LN9@SSL_SESSIO:
; Line 170
	push	OFFSET ??_C@_0BC@JAIPBJNA@?6?5?5?5?5Key?9Arg?5?5?5?3?5?$AA@
	push	edi
	call	_BIO_puts
	add	esp, 8
	test	eax, eax
	jle	SHORT $err$108
; Line 172
	mov	eax, DWORD PTR [esi+4]
	test	eax, eax
	jne	SHORT $LN47@SSL_SESSIO
; Line 173
	push	OFFSET ??_C@_04OHJIHAFH@None?$AA@
	push	edi
	call	_BIO_puts
	add	esp, 8
	test	eax, eax
	jg	SHORT $LN12@SSL_SESSIO
$err$108:
	pop	edi
	pop	esi
; Line 261
	xor	eax, eax
	pop	ebx
; Line 262
	ret	0
$LN47@SSL_SESSIO:
; Line 176
	xor	ebx, ebx
	test	eax, eax
	je	SHORT $LN12@SSL_SESSIO
$LL13@SSL_SESSIO:
; Line 177
	movzx	eax, BYTE PTR [esi+ebx+8]
	push	eax
	push	OFFSET ??_C@_04JFFKLGJF@?$CF02X?$AA@
	push	edi
	call	_BIO_printf
	add	esp, 12					; 0000000cH
	test	eax, eax
	jle	SHORT $err$108
; Line 176
	inc	ebx
	cmp	ebx, DWORD PTR [esi+4]
	jb	SHORT $LL13@SSL_SESSIO
$LN12@SSL_SESSIO:
; Line 193
	push	OFFSET ??_C@_0BE@MDCGIBOJ@?6?5?5?5?5PSK?5identity?3?5?$AA@
	push	edi
	call	_BIO_puts
	add	esp, 8
	test	eax, eax
	jle	SHORT $err$108
; Line 195
	mov	eax, DWORD PTR [esi+144]
	mov	ebx, OFFSET ??_C@_04OHJIHAFH@None?$AA@
	test	eax, eax
	mov	ecx, ebx
	cmovne	ecx, eax
	push	ecx
	push	OFFSET ??_C@_02DKCKIIND@?$CFs?$AA@
	push	edi
	call	_BIO_printf
	add	esp, 12					; 0000000cH
	test	eax, eax
	jle	SHORT $err$108
; Line 197
	push	OFFSET ??_C@_0BJ@GHHFDIED@?6?5?5?5?5PSK?5identity?5hint?3?5?$AA@
	push	edi
	call	_BIO_puts
	add	esp, 8
	test	eax, eax
	jle	SHORT $err$108
; Line 200
	mov	eax, DWORD PTR [esi+140]
	mov	ecx, ebx
	test	eax, eax
	cmovne	ecx, eax
	push	ecx
	push	OFFSET ??_C@_02DKCKIIND@?$CFs?$AA@
	push	edi
	call	_BIO_printf
	add	esp, 12					; 0000000cH
	test	eax, eax
	jle	$err$108
; Line 204
	push	OFFSET ??_C@_0BE@ONCKHFP@?6?5?5?5?5SRP?5username?3?5?$AA@
	push	edi
	call	_BIO_puts
	add	esp, 8
	test	eax, eax
	jle	$err$108
; Line 206
	mov	eax, DWORD PTR [esi+240]
	test	eax, eax
	cmovne	ebx, eax
	push	ebx
	push	OFFSET ??_C@_02DKCKIIND@?$CFs?$AA@
	push	edi
	call	_BIO_printf
	add	esp, 12					; 0000000cH
	test	eax, eax
	jle	$err$108
; Line 210
	mov	eax, DWORD PTR [esi+236]
	test	eax, eax
	je	SHORT $LN58@SSL_SESSIO
; Line 213
	push	eax
	push	OFFSET ??_C@_0DF@BEBIMLLC@?6?5?5?5?5TLS?5session?5ticket?5lifetime@
	push	edi
	call	_BIO_printf
	add	esp, 12					; 0000000cH
	test	eax, eax
	jle	$err$108
$LN58@SSL_SESSIO:
; Line 216
	cmp	DWORD PTR [esi+228], 0
	je	SHORT $LN61@SSL_SESSIO
; Line 217
	push	OFFSET ??_C@_0BK@IIMGJPJN@?6?5?5?5?5TLS?5session?5ticket?3?6?$AA@
	push	edi
	call	_BIO_puts
	add	esp, 8
	test	eax, eax
	jle	$err$108
; Line 220
	push	4
	push	DWORD PTR [esi+232]
	push	DWORD PTR [esi+228]
	push	edi
	call	_BIO_dump_indent
	add	esp, 16					; 00000010H
	test	eax, eax
	jle	$err$108
$LN61@SSL_SESSIO:
; Line 226
	cmp	DWORD PTR [esi+176], 0
	je	SHORT $LN66@SSL_SESSIO
; Line 229
	lea	eax, DWORD PTR _comp$1[esp+8]
	mov	DWORD PTR _comp$1[esp+8], 0
	push	eax
	push	0
	push	0
	push	0
	push	0
	push	esi
	call	_ssl_cipher_get_evp
; Line 230
	mov	ecx, DWORD PTR _comp$1[esp+32]
	add	esp, 24					; 00000018H
	test	ecx, ecx
	jne	SHORT $LN63@SSL_SESSIO
; Line 231
	push	DWORD PTR [esi+176]
	push	OFFSET ??_C@_0BF@GJDBPBLH@?6?5?5?5?5Compression?3?5?$CFd?$AA@
	push	edi
	call	_BIO_printf
	add	esp, 12					; 0000000cH
; Line 234
	jmp	SHORT $LN106@SSL_SESSIO
$LN63@SSL_SESSIO:
; Line 237
	mov	eax, DWORD PTR [ecx+8]
	push	DWORD PTR [eax+4]
	push	DWORD PTR [ecx]
	push	OFFSET ??_C@_0BK@HOKLINJC@?6?5?5?5?5Compression?3?5?$CFd?5?$CI?$CFs?$CJ?$AA@
	push	edi
	call	_BIO_printf
	add	esp, 16					; 00000010H
$LN106@SSL_SESSIO:
	test	eax, eax
	jle	$err$108
$LN66@SSL_SESSIO:
; Line 242
	mov	eax, DWORD PTR [esi+172]
	test	eax, eax
	je	SHORT $LN68@SSL_SESSIO
; Line 243
	push	eax
	push	OFFSET ??_C@_0BF@FGIEMAPO@?6?5?5?5?5Start?5Time?3?5?$CFld?$AA@
	push	edi
	call	_BIO_printf
	add	esp, 12					; 0000000cH
	test	eax, eax
	jle	$err$108
$LN68@SSL_SESSIO:
; Line 246
	mov	eax, DWORD PTR [esi+168]
	test	eax, eax
	je	SHORT $LN70@SSL_SESSIO
; Line 247
	push	eax
	push	OFFSET ??_C@_0BL@MIKEIIPM@?6?5?5?5?5Timeout?5?5?5?3?5?$CFld?5?$CIsec?$CJ?$AA@
	push	edi
	call	_BIO_printf
	add	esp, 12					; 0000000cH
	test	eax, eax
	jle	$err$108
$LN70@SSL_SESSIO:
; Line 250
	push	OFFSET ??_C@_01EEMJAFIK@?6?$AA@
	push	edi
	call	_BIO_puts
	add	esp, 8
	test	eax, eax
	jle	$err$108
; Line 253
	push	OFFSET ??_C@_0BJ@GCPOPPIE@?5?5?5?5Verify?5return?5code?3?5?$AA@
	push	edi
	call	_BIO_puts
	add	esp, 8
	test	eax, eax
	jle	$err$108
; Line 256
	push	DWORD PTR [esi+160]
	call	_X509_verify_cert_error_string
	push	eax
	push	DWORD PTR [esi+160]
	push	OFFSET ??_C@_09MCGNAHMI@?$CFld?5?$CI?$CFs?$CJ?6?$AA@
	push	edi
	call	_BIO_printf
	add	esp, 20					; 00000014H
	test	eax, eax
	jle	$err$108
; Line 259
	pop	edi
	pop	esi
	mov	eax, 1
	pop	ebx
; Line 262
	ret	0
_SSL_SESSION_print ENDP
_TEXT	ENDS
; Function compile flags: /Ogtpy
;	COMDAT _SSL_SESSION_print_fp
_TEXT	SEGMENT
_fp$ = 8						; size = 4
_x$ = 12						; size = 4
_SSL_SESSION_print_fp PROC				; COMDAT
; File c:\workpace\openssl\openssl-1.0.2h\ssl\ssl_txt.c
; Line 91
	push	edi
; Line 95
	call	_BIO_s_file
	push	eax
	call	_BIO_new
	mov	edi, eax
	add	esp, 4
	test	edi, edi
	jne	SHORT $LN2@SSL_SESSIO
; Line 96
	push	96					; 00000060H
	push	OFFSET ??_C@_0BA@GGJPPBKJ@?4?2ssl?2ssl_txt?4c?$AA@
	push	7
	push	190					; 000000beH
	push	20					; 00000014H
	call	_ERR_put_error
	add	esp, 20					; 00000014H
; Line 97
	xor	eax, eax
	pop	edi
; Line 103
	ret	0
$LN2@SSL_SESSIO:
	push	esi
; Line 99
	push	DWORD PTR _fp$[esp+4]
	push	0
	push	106					; 0000006aH
	push	edi
	call	_BIO_ctrl
; Line 100
	push	DWORD PTR _x$[esp+20]
	push	edi
	call	_SSL_SESSION_print
; Line 101
	push	edi
	mov	esi, eax
	call	_BIO_free
	add	esp, 28					; 0000001cH
; Line 102
	mov	eax, esi
	pop	esi
	pop	edi
; Line 103
	ret	0
_SSL_SESSION_print_fp ENDP
_TEXT	ENDS
END
