; Listing generated by Microsoft (R) Optimizing Compiler Version 19.00.23918.0 

	TITLE	C:\workpace\openssl\openssl-1.0.2h\crypto\asn1\t_x509a.c
	.686P
	.XMM
	include listing.inc
	.model	flat

INCLUDELIB MSVCRT
INCLUDELIB OLDNAMES

PUBLIC	_X509_CERT_AUX_print
PUBLIC	??_C@_00CNPNBAHC@?$AA@				; `string'
PUBLIC	??_C@_0BF@HIELOFJA@?$CF?$CKsTrusted?5Uses?3?6?$CF?$CKs?$AA@ ; `string'
PUBLIC	??_C@_02KEGNLNML@?0?5?$AA@			; `string'
PUBLIC	??_C@_01EEMJAFIK@?6?$AA@			; `string'
PUBLIC	??_C@_0BF@FFIBMJKN@?$CF?$CKsNo?5Trusted?5Uses?4?6?$AA@ ; `string'
PUBLIC	??_C@_0BG@NDCEOKG@?$CF?$CKsRejected?5Uses?3?6?$CF?$CKs?$AA@ ; `string'
PUBLIC	??_C@_0BG@PFHOLBMC@?$CF?$CKsNo?5Rejected?5Uses?4?6?$AA@ ; `string'
PUBLIC	??_C@_0O@PPOPLKH@?$CF?$CKsAlias?3?5?$CFs?6?$AA@	; `string'
PUBLIC	??_C@_0M@JKLKMBPD@?$CF?$CKsKey?5Id?3?5?$AA@	; `string'
PUBLIC	??_C@_01JLIPDDHJ@?3?$AA@			; `string'
PUBLIC	??_C@_06NOCHPHKC@?$CFs?$CF02X?$AA@		; `string'
EXTRN	_sk_num:PROC
EXTRN	_sk_value:PROC
EXTRN	_BIO_write:PROC
EXTRN	_BIO_puts:PROC
EXTRN	_BIO_printf:PROC
EXTRN	_OBJ_obj2txt:PROC
EXTRN	@__security_check_cookie@4:PROC
EXTRN	__chkstk:PROC
EXTRN	___security_cookie:DWORD
;	COMDAT ??_C@_06NOCHPHKC@?$CFs?$CF02X?$AA@
CONST	SEGMENT
??_C@_06NOCHPHKC@?$CFs?$CF02X?$AA@ DB '%s%02X', 00H	; `string'
CONST	ENDS
;	COMDAT ??_C@_01JLIPDDHJ@?3?$AA@
CONST	SEGMENT
??_C@_01JLIPDDHJ@?3?$AA@ DB ':', 00H			; `string'
CONST	ENDS
;	COMDAT ??_C@_0M@JKLKMBPD@?$CF?$CKsKey?5Id?3?5?$AA@
CONST	SEGMENT
??_C@_0M@JKLKMBPD@?$CF?$CKsKey?5Id?3?5?$AA@ DB '%*sKey Id: ', 00H ; `string'
CONST	ENDS
;	COMDAT ??_C@_0O@PPOPLKH@?$CF?$CKsAlias?3?5?$CFs?6?$AA@
CONST	SEGMENT
??_C@_0O@PPOPLKH@?$CF?$CKsAlias?3?5?$CFs?6?$AA@ DB '%*sAlias: %s', 0aH, 00H ; `string'
CONST	ENDS
;	COMDAT ??_C@_0BG@PFHOLBMC@?$CF?$CKsNo?5Rejected?5Uses?4?6?$AA@
CONST	SEGMENT
??_C@_0BG@PFHOLBMC@?$CF?$CKsNo?5Rejected?5Uses?4?6?$AA@ DB '%*sNo Rejecte'
	DB	'd Uses.', 0aH, 00H				; `string'
CONST	ENDS
;	COMDAT ??_C@_0BG@NDCEOKG@?$CF?$CKsRejected?5Uses?3?6?$CF?$CKs?$AA@
CONST	SEGMENT
??_C@_0BG@NDCEOKG@?$CF?$CKsRejected?5Uses?3?6?$CF?$CKs?$AA@ DB '%*sReject'
	DB	'ed Uses:', 0aH, '%*s', 00H			; `string'
CONST	ENDS
;	COMDAT ??_C@_0BF@FFIBMJKN@?$CF?$CKsNo?5Trusted?5Uses?4?6?$AA@
CONST	SEGMENT
??_C@_0BF@FFIBMJKN@?$CF?$CKsNo?5Trusted?5Uses?4?6?$AA@ DB '%*sNo Trusted '
	DB	'Uses.', 0aH, 00H				; `string'
CONST	ENDS
;	COMDAT ??_C@_01EEMJAFIK@?6?$AA@
CONST	SEGMENT
??_C@_01EEMJAFIK@?6?$AA@ DB 0aH, 00H			; `string'
CONST	ENDS
;	COMDAT ??_C@_02KEGNLNML@?0?5?$AA@
CONST	SEGMENT
??_C@_02KEGNLNML@?0?5?$AA@ DB ', ', 00H			; `string'
CONST	ENDS
;	COMDAT ??_C@_0BF@HIELOFJA@?$CF?$CKsTrusted?5Uses?3?6?$CF?$CKs?$AA@
CONST	SEGMENT
??_C@_0BF@HIELOFJA@?$CF?$CKsTrusted?5Uses?3?6?$CF?$CKs?$AA@ DB '%*sTruste'
	DB	'd Uses:', 0aH, '%*s', 00H			; `string'
CONST	ENDS
;	COMDAT ??_C@_00CNPNBAHC@?$AA@
CONST	SEGMENT
??_C@_00CNPNBAHC@?$AA@ DB 00H				; `string'
CONST	ENDS
; Function compile flags: /Ogtpy
;	COMDAT _X509_CERT_AUX_print
_TEXT	SEGMENT
_oidstr$ = -84						; size = 80
__$ArrayPad$ = -4					; size = 4
_out$ = 8						; size = 4
_aux$ = 12						; size = 4
_indent$ = 16						; size = 4
_X509_CERT_AUX_print PROC				; COMDAT
; File c:\workpace\openssl\openssl-1.0.2h\crypto\asn1\t_x509a.c
; Line 71
	mov	eax, 84					; 00000054H
	call	__chkstk
	mov	eax, DWORD PTR ___security_cookie
	xor	eax, esp
	mov	DWORD PTR __$ArrayPad$[esp+84], eax
	push	esi
	mov	esi, DWORD PTR _out$[esp+84]
	push	edi
	mov	edi, DWORD PTR _aux$[esp+88]
; Line 74
	test	edi, edi
	je	$LN35@X509_CERT_
; Line 76
	cmp	DWORD PTR [edi], 0
	push	ebx
	push	ebp
; Line 78
	push	OFFSET ??_C@_00CNPNBAHC@?$AA@
	je	$LN12@X509_CERT_
	mov	ecx, DWORD PTR _indent$[esp+100]
	mov	bl, 1
	lea	eax, DWORD PTR [ecx+2]
	push	eax
	push	OFFSET ??_C@_00CNPNBAHC@?$AA@
	push	ecx
	push	OFFSET ??_C@_0BF@HIELOFJA@?$CF?$CKsTrusted?5Uses?3?6?$CF?$CKs?$AA@
	push	esi
	call	_BIO_printf
; Line 79
	push	DWORD PTR [edi]
	xor	ebp, ebp
	call	_sk_num
	add	esp, 28					; 0000001cH
	test	eax, eax
	jle	SHORT $LN3@X509_CERT_
$LL4@X509_CERT_:
; Line 80
	test	bl, bl
	jne	SHORT $LN14@X509_CERT_
; Line 81
	push	OFFSET ??_C@_02KEGNLNML@?0?5?$AA@
	push	esi
	call	_BIO_puts
	add	esp, 8
	jmp	SHORT $LN15@X509_CERT_
$LN14@X509_CERT_:
; Line 83
	xor	bl, bl
$LN15@X509_CERT_:
; Line 84
	push	0
	push	ebp
	push	DWORD PTR [edi]
	call	_sk_value
	add	esp, 8
	push	eax
	lea	eax, DWORD PTR _oidstr$[esp+108]
	push	80					; 00000050H
	push	eax
	call	_OBJ_obj2txt
; Line 86
	lea	eax, DWORD PTR _oidstr$[esp+116]
	push	eax
	push	esi
	call	_BIO_puts
	push	DWORD PTR [edi]
	inc	ebp
	call	_sk_num
	add	esp, 28					; 0000001cH
	cmp	ebp, eax
	jl	SHORT $LL4@X509_CERT_
$LN3@X509_CERT_:
; Line 88
	push	OFFSET ??_C@_01EEMJAFIK@?6?$AA@
	push	esi
	call	_BIO_puts
; Line 89
	mov	ebp, DWORD PTR _indent$[esp+104]
	add	esp, 8
	jmp	SHORT $LN13@X509_CERT_
$LN12@X509_CERT_:
; Line 90
	mov	ebp, DWORD PTR _indent$[esp+100]
	push	ebp
	push	OFFSET ??_C@_0BF@FFIBMJKN@?$CF?$CKsNo?5Trusted?5Uses?4?6?$AA@
	push	esi
	call	_BIO_printf
	add	esp, 16					; 00000010H
$LN13@X509_CERT_:
; Line 91
	cmp	DWORD PTR [edi+4], 0
; Line 93
	push	OFFSET ??_C@_00CNPNBAHC@?$AA@
	je	$LN16@X509_CERT_
	lea	eax, DWORD PTR [ebp+2]
	mov	bl, 1
	push	eax
	push	OFFSET ??_C@_00CNPNBAHC@?$AA@
	push	ebp
	push	OFFSET ??_C@_0BG@NDCEOKG@?$CF?$CKsRejected?5Uses?3?6?$CF?$CKs?$AA@
	push	esi
	call	_BIO_printf
; Line 94
	push	DWORD PTR [edi+4]
	call	_sk_num
	add	esp, 28					; 0000001cH
	test	eax, eax
	jle	SHORT $LN6@X509_CERT_
	xor	ebp, ebp
	npad	6
$LL7@X509_CERT_:
; Line 95
	test	bl, bl
	jne	SHORT $LN18@X509_CERT_
; Line 96
	push	OFFSET ??_C@_02KEGNLNML@?0?5?$AA@
	push	esi
	call	_BIO_puts
	add	esp, 8
	jmp	SHORT $LN19@X509_CERT_
$LN18@X509_CERT_:
; Line 98
	xor	bl, bl
$LN19@X509_CERT_:
; Line 99
	push	0
	push	ebp
	push	DWORD PTR [edi+4]
	call	_sk_value
	add	esp, 8
	push	eax
	lea	eax, DWORD PTR _oidstr$[esp+108]
	push	80					; 00000050H
	push	eax
	call	_OBJ_obj2txt
; Line 101
	lea	eax, DWORD PTR _oidstr$[esp+116]
	push	eax
	push	esi
	call	_BIO_puts
	push	DWORD PTR [edi+4]
	inc	ebp
	call	_sk_num
	add	esp, 28					; 0000001cH
	cmp	ebp, eax
	jl	SHORT $LL7@X509_CERT_
	mov	ebp, DWORD PTR _indent$[esp+96]
$LN6@X509_CERT_:
; Line 103
	push	OFFSET ??_C@_01EEMJAFIK@?6?$AA@
	push	esi
	call	_BIO_puts
	add	esp, 8
; Line 104
	jmp	SHORT $LN17@X509_CERT_
$LN16@X509_CERT_:
; Line 105
	push	ebp
	push	OFFSET ??_C@_0BG@PFHOLBMC@?$CF?$CKsNo?5Rejected?5Uses?4?6?$AA@
	push	esi
	call	_BIO_printf
	add	esp, 16					; 00000010H
$LN17@X509_CERT_:
; Line 106
	mov	eax, DWORD PTR [edi+8]
	test	eax, eax
	je	SHORT $LN20@X509_CERT_
; Line 107
	push	DWORD PTR [eax+8]
	push	OFFSET ??_C@_00CNPNBAHC@?$AA@
	push	ebp
	push	OFFSET ??_C@_0O@PPOPLKH@?$CF?$CKsAlias?3?5?$CFs?6?$AA@
	push	esi
	call	_BIO_printf
	add	esp, 20					; 00000014H
$LN20@X509_CERT_:
; Line 108
	cmp	DWORD PTR [edi+12], 0
	je	SHORT $LN21@X509_CERT_
; Line 109
	push	OFFSET ??_C@_00CNPNBAHC@?$AA@
	push	ebp
	push	OFFSET ??_C@_0M@JKLKMBPD@?$CF?$CKsKey?5Id?3?5?$AA@
	push	esi
	call	_BIO_printf
; Line 110
	mov	eax, DWORD PTR [edi+12]
	xor	ebx, ebx
	add	esp, 16					; 00000010H
	cmp	DWORD PTR [eax], ebx
	jle	SHORT $LN9@X509_CERT_
	mov	ebp, OFFSET ??_C@_00CNPNBAHC@?$AA@
$LL10@X509_CERT_:
; Line 111
	mov	eax, DWORD PTR [eax+8]
	test	ebx, ebx
	movzx	eax, BYTE PTR [eax+ebx]
	push	eax
	mov	eax, OFFSET ??_C@_01JLIPDDHJ@?3?$AA@
	cmove	eax, ebp
	push	eax
	push	OFFSET ??_C@_06NOCHPHKC@?$CFs?$CF02X?$AA@
	push	esi
	call	_BIO_printf
	mov	eax, DWORD PTR [edi+12]
	inc	ebx
	add	esp, 16					; 00000010H
	cmp	ebx, DWORD PTR [eax]
	jl	SHORT $LL10@X509_CERT_
$LN9@X509_CERT_:
; Line 112
	push	1
	push	OFFSET ??_C@_01EEMJAFIK@?6?$AA@
	push	esi
	call	_BIO_write
	add	esp, 12					; 0000000cH
$LN21@X509_CERT_:
	pop	ebp
	pop	ebx
$LN35@X509_CERT_:
; Line 115
	mov	ecx, DWORD PTR __$ArrayPad$[esp+92]
	mov	eax, 1
	pop	edi
	pop	esi
	xor	ecx, esp
	call	@__security_check_cookie@4
	add	esp, 84					; 00000054H
	ret	0
_X509_CERT_AUX_print ENDP
_TEXT	ENDS
END
