; Listing generated by Microsoft (R) Optimizing Compiler Version 19.00.23918.0 

	TITLE	C:\workpace\openssl\openssl-1.0.2h\crypto\x509v3\v3_bitst.c
	.686P
	.XMM
	include listing.inc
	.model	flat

INCLUDELIB MSVCRT
INCLUDELIB OLDNAMES

PUBLIC	??_C@_0L@HNMCLCCI@SSL?5Client?$AA@		; `string'
PUBLIC	??_C@_06DGDLPBAN@client?$AA@			; `string'
PUBLIC	??_C@_0L@DCIAGJKL@SSL?5Server?$AA@		; `string'
PUBLIC	??_C@_06HJHJCKIO@server?$AA@			; `string'
PUBLIC	??_C@_06DFGHEKNE@S?1MIME?$AA@			; `string'
PUBLIC	??_C@_05HKHCDHCL@email?$AA@			; `string'
PUBLIC	??_C@_0P@DDHLFHHK@Object?5Signing?$AA@		; `string'
PUBLIC	??_C@_07GIOKFKGL@objsign?$AA@			; `string'
PUBLIC	??_C@_06CGLFEPBO@Unused?$AA@			; `string'
PUBLIC	??_C@_08FINKBBAF@reserved?$AA@			; `string'
PUBLIC	??_C@_06FMDLPOFJ@SSL?5CA?$AA@			; `string'
PUBLIC	??_C@_05JHLHLOEK@sslCA?$AA@			; `string'
PUBLIC	??_C@_09GIEMCMEO@S?1MIME?5CA?$AA@		; `string'
PUBLIC	??_C@_07FFHDGPMJ@emailCA?$AA@			; `string'
PUBLIC	??_C@_0BC@FAMHGMHB@Object?5Signing?5CA?$AA@	; `string'
PUBLIC	??_C@_05JLEIJNEE@objCA?$AA@			; `string'
PUBLIC	??_C@_0BC@DPKEIPIO@Digital?5Signature?$AA@	; `string'
PUBLIC	??_C@_0BB@MFKHIIOM@digitalSignature?$AA@	; `string'
PUBLIC	??_C@_0BA@DJCGBBAI@Non?5Repudiation?$AA@	; `string'
PUBLIC	??_C@_0P@GPCNPOGO@nonRepudiation?$AA@		; `string'
PUBLIC	??_C@_0BB@KNACIBEN@Key?5Encipherment?$AA@	; `string'
PUBLIC	??_C@_0BA@MINCLOJG@keyEncipherment?$AA@		; `string'
PUBLIC	??_C@_0BC@GNPIAJLP@Data?5Encipherment?$AA@	; `string'
PUBLIC	??_C@_0BB@LBKKKIGO@dataEncipherment?$AA@	; `string'
PUBLIC	??_C@_0O@EOJOBCHL@Key?5Agreement?$AA@		; `string'
PUBLIC	??_C@_0N@GONHKOEO@keyAgreement?$AA@		; `string'
PUBLIC	??_C@_0BB@ELNGMDLH@Certificate?5Sign?$AA@	; `string'
PUBLIC	??_C@_0M@ONBOOMGI@keyCertSign?$AA@		; `string'
PUBLIC	??_C@_08OCJGKMAN@CRL?5Sign?$AA@			; `string'
PUBLIC	??_C@_07IHBCCDFJ@cRLSign?$AA@			; `string'
PUBLIC	??_C@_0O@CANGKMJD@Encipher?5Only?$AA@		; `string'
PUBLIC	??_C@_0N@BEFDLIKF@encipherOnly?$AA@		; `string'
PUBLIC	??_C@_0O@FKBAPCEG@Decipher?5Only?$AA@		; `string'
PUBLIC	??_C@_0N@LIFHMFCO@decipherOnly?$AA@		; `string'
PUBLIC	_v3_nscert
PUBLIC	_v3_key_usage
PUBLIC	_v2i_ASN1_BIT_STRING
PUBLIC	_i2v_ASN1_BIT_STRING
EXTRN	_ASN1_BIT_STRING_it:PROC
CONST	SEGMENT
_v3_nscert DD	047H
	DD	00H
	DD	FLAT:_ASN1_BIT_STRING_it
	DD	00H
	DD	00H
	DD	00H
	DD	00H
	DD	00H
	DD	00H
	DD	FLAT:_i2v_ASN1_BIT_STRING
	DD	FLAT:_v2i_ASN1_BIT_STRING
	DD	00H
	DD	00H
	DD	FLAT:_ns_cert_type_table
_v3_key_usage DD 053H
	DD	00H
	DD	FLAT:_ASN1_BIT_STRING_it
	DD	00H
	DD	00H
	DD	00H
	DD	00H
	DD	00H
	DD	00H
	DD	FLAT:_i2v_ASN1_BIT_STRING
	DD	FLAT:_v2i_ASN1_BIT_STRING
	DD	00H
	DD	00H
	DD	FLAT:_key_usage_type_table
CONST	ENDS
;	COMDAT ??_C@_0N@LIFHMFCO@decipherOnly?$AA@
CONST	SEGMENT
??_C@_0N@LIFHMFCO@decipherOnly?$AA@ DB 'decipherOnly', 00H ; `string'
CONST	ENDS
;	COMDAT ??_C@_0O@FKBAPCEG@Decipher?5Only?$AA@
CONST	SEGMENT
??_C@_0O@FKBAPCEG@Decipher?5Only?$AA@ DB 'Decipher Only', 00H ; `string'
CONST	ENDS
;	COMDAT ??_C@_0N@BEFDLIKF@encipherOnly?$AA@
CONST	SEGMENT
??_C@_0N@BEFDLIKF@encipherOnly?$AA@ DB 'encipherOnly', 00H ; `string'
CONST	ENDS
;	COMDAT ??_C@_0O@CANGKMJD@Encipher?5Only?$AA@
CONST	SEGMENT
??_C@_0O@CANGKMJD@Encipher?5Only?$AA@ DB 'Encipher Only', 00H ; `string'
CONST	ENDS
;	COMDAT ??_C@_07IHBCCDFJ@cRLSign?$AA@
CONST	SEGMENT
??_C@_07IHBCCDFJ@cRLSign?$AA@ DB 'cRLSign', 00H		; `string'
CONST	ENDS
;	COMDAT ??_C@_08OCJGKMAN@CRL?5Sign?$AA@
CONST	SEGMENT
??_C@_08OCJGKMAN@CRL?5Sign?$AA@ DB 'CRL Sign', 00H	; `string'
CONST	ENDS
;	COMDAT ??_C@_0M@ONBOOMGI@keyCertSign?$AA@
CONST	SEGMENT
??_C@_0M@ONBOOMGI@keyCertSign?$AA@ DB 'keyCertSign', 00H ; `string'
CONST	ENDS
;	COMDAT ??_C@_0BB@ELNGMDLH@Certificate?5Sign?$AA@
CONST	SEGMENT
??_C@_0BB@ELNGMDLH@Certificate?5Sign?$AA@ DB 'Certificate Sign', 00H ; `string'
CONST	ENDS
;	COMDAT ??_C@_0N@GONHKOEO@keyAgreement?$AA@
CONST	SEGMENT
??_C@_0N@GONHKOEO@keyAgreement?$AA@ DB 'keyAgreement', 00H ; `string'
CONST	ENDS
;	COMDAT ??_C@_0O@EOJOBCHL@Key?5Agreement?$AA@
CONST	SEGMENT
??_C@_0O@EOJOBCHL@Key?5Agreement?$AA@ DB 'Key Agreement', 00H ; `string'
CONST	ENDS
;	COMDAT ??_C@_0BB@LBKKKIGO@dataEncipherment?$AA@
CONST	SEGMENT
??_C@_0BB@LBKKKIGO@dataEncipherment?$AA@ DB 'dataEncipherment', 00H ; `string'
CONST	ENDS
;	COMDAT ??_C@_0BC@GNPIAJLP@Data?5Encipherment?$AA@
CONST	SEGMENT
??_C@_0BC@GNPIAJLP@Data?5Encipherment?$AA@ DB 'Data Encipherment', 00H ; `string'
CONST	ENDS
;	COMDAT ??_C@_0BA@MINCLOJG@keyEncipherment?$AA@
CONST	SEGMENT
??_C@_0BA@MINCLOJG@keyEncipherment?$AA@ DB 'keyEncipherment', 00H ; `string'
CONST	ENDS
;	COMDAT ??_C@_0BB@KNACIBEN@Key?5Encipherment?$AA@
CONST	SEGMENT
??_C@_0BB@KNACIBEN@Key?5Encipherment?$AA@ DB 'Key Encipherment', 00H ; `string'
CONST	ENDS
;	COMDAT ??_C@_0P@GPCNPOGO@nonRepudiation?$AA@
CONST	SEGMENT
??_C@_0P@GPCNPOGO@nonRepudiation?$AA@ DB 'nonRepudiation', 00H ; `string'
CONST	ENDS
;	COMDAT ??_C@_0BA@DJCGBBAI@Non?5Repudiation?$AA@
CONST	SEGMENT
??_C@_0BA@DJCGBBAI@Non?5Repudiation?$AA@ DB 'Non Repudiation', 00H ; `string'
CONST	ENDS
;	COMDAT ??_C@_0BB@MFKHIIOM@digitalSignature?$AA@
CONST	SEGMENT
??_C@_0BB@MFKHIIOM@digitalSignature?$AA@ DB 'digitalSignature', 00H ; `string'
CONST	ENDS
;	COMDAT ??_C@_0BC@DPKEIPIO@Digital?5Signature?$AA@
CONST	SEGMENT
??_C@_0BC@DPKEIPIO@Digital?5Signature?$AA@ DB 'Digital Signature', 00H ; `string'
CONST	ENDS
;	COMDAT ??_C@_05JLEIJNEE@objCA?$AA@
CONST	SEGMENT
??_C@_05JLEIJNEE@objCA?$AA@ DB 'objCA', 00H		; `string'
CONST	ENDS
;	COMDAT ??_C@_0BC@FAMHGMHB@Object?5Signing?5CA?$AA@
CONST	SEGMENT
??_C@_0BC@FAMHGMHB@Object?5Signing?5CA?$AA@ DB 'Object Signing CA', 00H ; `string'
CONST	ENDS
;	COMDAT ??_C@_07FFHDGPMJ@emailCA?$AA@
CONST	SEGMENT
??_C@_07FFHDGPMJ@emailCA?$AA@ DB 'emailCA', 00H		; `string'
CONST	ENDS
;	COMDAT ??_C@_09GIEMCMEO@S?1MIME?5CA?$AA@
CONST	SEGMENT
??_C@_09GIEMCMEO@S?1MIME?5CA?$AA@ DB 'S/MIME CA', 00H	; `string'
CONST	ENDS
;	COMDAT ??_C@_05JHLHLOEK@sslCA?$AA@
CONST	SEGMENT
??_C@_05JHLHLOEK@sslCA?$AA@ DB 'sslCA', 00H		; `string'
CONST	ENDS
;	COMDAT ??_C@_06FMDLPOFJ@SSL?5CA?$AA@
CONST	SEGMENT
??_C@_06FMDLPOFJ@SSL?5CA?$AA@ DB 'SSL CA', 00H		; `string'
CONST	ENDS
;	COMDAT ??_C@_08FINKBBAF@reserved?$AA@
CONST	SEGMENT
??_C@_08FINKBBAF@reserved?$AA@ DB 'reserved', 00H	; `string'
CONST	ENDS
;	COMDAT ??_C@_06CGLFEPBO@Unused?$AA@
CONST	SEGMENT
??_C@_06CGLFEPBO@Unused?$AA@ DB 'Unused', 00H		; `string'
CONST	ENDS
;	COMDAT ??_C@_07GIOKFKGL@objsign?$AA@
CONST	SEGMENT
??_C@_07GIOKFKGL@objsign?$AA@ DB 'objsign', 00H		; `string'
CONST	ENDS
;	COMDAT ??_C@_0P@DDHLFHHK@Object?5Signing?$AA@
CONST	SEGMENT
??_C@_0P@DDHLFHHK@Object?5Signing?$AA@ DB 'Object Signing', 00H ; `string'
CONST	ENDS
;	COMDAT ??_C@_05HKHCDHCL@email?$AA@
CONST	SEGMENT
??_C@_05HKHCDHCL@email?$AA@ DB 'email', 00H		; `string'
CONST	ENDS
;	COMDAT ??_C@_06DFGHEKNE@S?1MIME?$AA@
CONST	SEGMENT
??_C@_06DFGHEKNE@S?1MIME?$AA@ DB 'S/MIME', 00H		; `string'
CONST	ENDS
;	COMDAT ??_C@_06HJHJCKIO@server?$AA@
CONST	SEGMENT
??_C@_06HJHJCKIO@server?$AA@ DB 'server', 00H		; `string'
CONST	ENDS
;	COMDAT ??_C@_0L@DCIAGJKL@SSL?5Server?$AA@
CONST	SEGMENT
??_C@_0L@DCIAGJKL@SSL?5Server?$AA@ DB 'SSL Server', 00H	; `string'
CONST	ENDS
;	COMDAT ??_C@_06DGDLPBAN@client?$AA@
CONST	SEGMENT
??_C@_06DGDLPBAN@client?$AA@ DB 'client', 00H		; `string'
CONST	ENDS
;	COMDAT ??_C@_0L@HNMCLCCI@SSL?5Client?$AA@
CONST	SEGMENT
??_C@_0L@HNMCLCCI@SSL?5Client?$AA@ DB 'SSL Client', 00H	; `string'
CONST	ENDS
_DATA	SEGMENT
_ns_cert_type_table DD 00H
	DD	FLAT:??_C@_0L@HNMCLCCI@SSL?5Client?$AA@
	DD	FLAT:??_C@_06DGDLPBAN@client?$AA@
	DD	01H
	DD	FLAT:??_C@_0L@DCIAGJKL@SSL?5Server?$AA@
	DD	FLAT:??_C@_06HJHJCKIO@server?$AA@
	DD	02H
	DD	FLAT:??_C@_06DFGHEKNE@S?1MIME?$AA@
	DD	FLAT:??_C@_05HKHCDHCL@email?$AA@
	DD	03H
	DD	FLAT:??_C@_0P@DDHLFHHK@Object?5Signing?$AA@
	DD	FLAT:??_C@_07GIOKFKGL@objsign?$AA@
	DD	04H
	DD	FLAT:??_C@_06CGLFEPBO@Unused?$AA@
	DD	FLAT:??_C@_08FINKBBAF@reserved?$AA@
	DD	05H
	DD	FLAT:??_C@_06FMDLPOFJ@SSL?5CA?$AA@
	DD	FLAT:??_C@_05JHLHLOEK@sslCA?$AA@
	DD	06H
	DD	FLAT:??_C@_09GIEMCMEO@S?1MIME?5CA?$AA@
	DD	FLAT:??_C@_07FFHDGPMJ@emailCA?$AA@
	DD	07H
	DD	FLAT:??_C@_0BC@FAMHGMHB@Object?5Signing?5CA?$AA@
	DD	FLAT:??_C@_05JLEIJNEE@objCA?$AA@
	DD	0ffffffffH
	DD	00H
	DD	00H
	ORG $+4
_key_usage_type_table DD 00H
	DD	FLAT:??_C@_0BC@DPKEIPIO@Digital?5Signature?$AA@
	DD	FLAT:??_C@_0BB@MFKHIIOM@digitalSignature?$AA@
	DD	01H
	DD	FLAT:??_C@_0BA@DJCGBBAI@Non?5Repudiation?$AA@
	DD	FLAT:??_C@_0P@GPCNPOGO@nonRepudiation?$AA@
	DD	02H
	DD	FLAT:??_C@_0BB@KNACIBEN@Key?5Encipherment?$AA@
	DD	FLAT:??_C@_0BA@MINCLOJG@keyEncipherment?$AA@
	DD	03H
	DD	FLAT:??_C@_0BC@GNPIAJLP@Data?5Encipherment?$AA@
	DD	FLAT:??_C@_0BB@LBKKKIGO@dataEncipherment?$AA@
	DD	04H
	DD	FLAT:??_C@_0O@EOJOBCHL@Key?5Agreement?$AA@
	DD	FLAT:??_C@_0N@GONHKOEO@keyAgreement?$AA@
	DD	05H
	DD	FLAT:??_C@_0BB@ELNGMDLH@Certificate?5Sign?$AA@
	DD	FLAT:??_C@_0M@ONBOOMGI@keyCertSign?$AA@
	DD	06H
	DD	FLAT:??_C@_08OCJGKMAN@CRL?5Sign?$AA@
	DD	FLAT:??_C@_07IHBCCDFJ@cRLSign?$AA@
	DD	07H
	DD	FLAT:??_C@_0O@CANGKMJD@Encipher?5Only?$AA@
	DD	FLAT:??_C@_0N@BEFDLIKF@encipherOnly?$AA@
	DD	08H
	DD	FLAT:??_C@_0O@FKBAPCEG@Decipher?5Only?$AA@
	DD	FLAT:??_C@_0N@LIFHMFCO@decipherOnly?$AA@
	DD	0ffffffffH
	DD	00H
	DD	00H
_DATA	ENDS
PUBLIC	??_C@_0BL@BMKLALJB@?4?2crypto?2x509v3?2v3_bitst?4c?$AA@ ; `string'
PUBLIC	??_C@_07BDICHDDB@?0value?3?$AA@			; `string'
PUBLIC	??_C@_06FONLLLNC@?0name?3?$AA@			; `string'
PUBLIC	??_C@_08PCLJGJAL@section?3?$AA@			; `string'
EXTRN	_sk_num:PROC
EXTRN	_sk_value:PROC
EXTRN	_ERR_put_error:PROC
EXTRN	_ERR_add_error_data:PROC
EXTRN	_ASN1_STRING_free:PROC
EXTRN	_ASN1_STRING_type_new:PROC
EXTRN	_ASN1_BIT_STRING_set_bit:PROC
EXTRN	_ASN1_BIT_STRING_get_bit:PROC
EXTRN	_X509V3_add_value:PROC
EXTRN	__chkstk:PROC
;	COMDAT ??_C@_08PCLJGJAL@section?3?$AA@
CONST	SEGMENT
??_C@_08PCLJGJAL@section?3?$AA@ DB 'section:', 00H	; `string'
CONST	ENDS
;	COMDAT ??_C@_06FONLLLNC@?0name?3?$AA@
CONST	SEGMENT
??_C@_06FONLLLNC@?0name?3?$AA@ DB ',name:', 00H		; `string'
CONST	ENDS
;	COMDAT ??_C@_07BDICHDDB@?0value?3?$AA@
CONST	SEGMENT
??_C@_07BDICHDDB@?0value?3?$AA@ DB ',value:', 00H	; `string'
CONST	ENDS
;	COMDAT ??_C@_0BL@BMKLALJB@?4?2crypto?2x509v3?2v3_bitst?4c?$AA@
CONST	SEGMENT
??_C@_0BL@BMKLALJB@?4?2crypto?2x509v3?2v3_bitst?4c?$AA@ DB '.\crypto\x509'
	DB	'v3\v3_bitst.c', 00H				; `string'
CONST	ENDS
; Function compile flags: /Ogtpy
;	COMDAT _i2v_ASN1_BIT_STRING
_TEXT	SEGMENT
_method$ = 8						; size = 4
_bits$ = 12						; size = 4
_ret$ = 16						; size = 4
_i2v_ASN1_BIT_STRING PROC				; COMDAT
; File c:\workpace\openssl\openssl-1.0.2h\crypto\x509v3\v3_bitst.c
; Line 98
	push	esi
; Line 100
	mov	esi, DWORD PTR _method$[esp]
	mov	esi, DWORD PTR [esi+52]
	cmp	DWORD PTR [esi+4], 0
	je	SHORT $LN11@i2v_ASN1_B
	push	edi
	mov	edi, DWORD PTR _bits$[esp+4]
$LL4@i2v_ASN1_B:
; Line 101
	push	DWORD PTR [esi]
	push	edi
	call	_ASN1_BIT_STRING_get_bit
	add	esp, 8
	test	eax, eax
	je	SHORT $LN2@i2v_ASN1_B
; Line 102
	lea	eax, DWORD PTR _ret$[esp+4]
	push	eax
	push	0
	push	DWORD PTR [esi+4]
	call	_X509V3_add_value
	add	esp, 12					; 0000000cH
$LN2@i2v_ASN1_B:
; Line 100
	add	esi, 12					; 0000000cH
	cmp	DWORD PTR [esi+4], 0
	jne	SHORT $LL4@i2v_ASN1_B
	pop	edi
$LN11@i2v_ASN1_B:
; Line 104
	mov	eax, DWORD PTR _ret$[esp]
	pop	esi
; Line 105
	ret	0
_i2v_ASN1_BIT_STRING ENDP
_TEXT	ENDS
; Function compile flags: /Ogtpy
;	COMDAT _v2i_ASN1_BIT_STRING
_TEXT	SEGMENT
_bs$1$ = -8						; size = 4
_val$1$ = -4						; size = 4
_method$ = 8						; size = 4
_ctx$ = 12						; size = 4
_nval$ = 16						; size = 4
_v2i_ASN1_BIT_STRING PROC				; COMDAT
; File c:\workpace\openssl\openssl-1.0.2h\crypto\x509v3\v3_bitst.c
; Line 110
	mov	eax, 8
	call	__chkstk
; Line 115
	push	3
	call	_ASN1_STRING_type_new
	add	esp, 4
	mov	DWORD PTR _bs$1$[esp+8], eax
	test	eax, eax
	jne	SHORT $LN8@v2i_ASN1_B
; Line 116
	push	116					; 00000074H
	push	OFFSET ??_C@_0BL@BMKLALJB@?4?2crypto?2x509v3?2v3_bitst?4c?$AA@
	push	65					; 00000041H
	push	101					; 00000065H
	push	34					; 00000022H
	call	_ERR_put_error
	add	esp, 20					; 00000014H
; Line 117
	xor	eax, eax
; Line 142
	add	esp, 8
	ret	0
$LN8@v2i_ASN1_B:
	push	ebx
	push	ebp
	push	esi
	push	edi
; Line 119
	mov	edi, DWORD PTR _nval$[esp+20]
	xor	ebp, ebp
	push	edi
	call	_sk_num
	add	esp, 4
	test	eax, eax
	jle	$LN3@v2i_ASN1_B
$LL4@v2i_ASN1_B:
; Line 120
	push	ebp
	push	edi
	call	_sk_value
	mov	ebx, eax
	add	esp, 8
; Line 121
	mov	eax, DWORD PTR _method$[esp+20]
	mov	DWORD PTR _val$1$[esp+24], ebx
	mov	esi, DWORD PTR [eax+52]
	mov	ecx, DWORD PTR [esi+4]
	test	ecx, ecx
	je	$LN11@v2i_ASN1_B
; Line 122
	mov	edi, DWORD PTR [ebx+4]
$LL7@v2i_ASN1_B:
	mov	eax, DWORD PTR [esi+8]
	mov	edx, edi
	npad	5
$LL26@v2i_ASN1_B:
	mov	bl, BYTE PTR [eax]
	cmp	bl, BYTE PTR [edx]
	jne	SHORT $LN27@v2i_ASN1_B
	test	bl, bl
	je	SHORT $LN28@v2i_ASN1_B
	mov	bl, BYTE PTR [eax+1]
	cmp	bl, BYTE PTR [edx+1]
	jne	SHORT $LN27@v2i_ASN1_B
	add	eax, 2
	add	edx, 2
	test	bl, bl
	jne	SHORT $LL26@v2i_ASN1_B
$LN28@v2i_ASN1_B:
	xor	eax, eax
	jmp	SHORT $LN29@v2i_ASN1_B
$LN27@v2i_ASN1_B:
	sbb	eax, eax
	or	eax, 1
$LN29@v2i_ASN1_B:
	test	eax, eax
	je	SHORT $LN16@v2i_ASN1_B
	mov	eax, edi
	npad	5
$LL30@v2i_ASN1_B:
	mov	dl, BYTE PTR [ecx]
	cmp	dl, BYTE PTR [eax]
	jne	SHORT $LN31@v2i_ASN1_B
	test	dl, dl
	je	SHORT $LN32@v2i_ASN1_B
	mov	dl, BYTE PTR [ecx+1]
	cmp	dl, BYTE PTR [eax+1]
	jne	SHORT $LN31@v2i_ASN1_B
	add	ecx, 2
	add	eax, 2
	test	dl, dl
	jne	SHORT $LL30@v2i_ASN1_B
$LN32@v2i_ASN1_B:
	xor	eax, eax
	jmp	SHORT $LN33@v2i_ASN1_B
$LN31@v2i_ASN1_B:
	sbb	eax, eax
	or	eax, 1
$LN33@v2i_ASN1_B:
	test	eax, eax
	je	SHORT $LN16@v2i_ASN1_B
; Line 121
	mov	ecx, DWORD PTR [esi+16]
	add	esi, 12					; 0000000cH
	test	ecx, ecx
	jne	SHORT $LL7@v2i_ASN1_B
; Line 133
	jmp	SHORT $LN38@v2i_ASN1_B
$LN16@v2i_ASN1_B:
; Line 124
	mov	ebx, DWORD PTR _bs$1$[esp+24]
	push	1
	push	DWORD PTR [esi]
	push	ebx
	call	_ASN1_BIT_STRING_set_bit
	add	esp, 12					; 0000000cH
	test	eax, eax
	je	SHORT $LN17@v2i_ASN1_B
$LN38@v2i_ASN1_B:
	mov	edi, DWORD PTR _nval$[esp+20]
	mov	ebx, DWORD PTR _val$1$[esp+24]
$LN11@v2i_ASN1_B:
; Line 133
	cmp	DWORD PTR [esi+4], 0
	je	SHORT $LN18@v2i_ASN1_B
; Line 119
	push	edi
	inc	ebp
	call	_sk_num
	add	esp, 4
	cmp	ebp, eax
	jl	$LL4@v2i_ASN1_B
$LN3@v2i_ASN1_B:
; Line 141
	mov	eax, DWORD PTR _bs$1$[esp+24]
	pop	edi
	pop	esi
	pop	ebp
	pop	ebx
; Line 142
	add	esp, 8
	ret	0
$LN17@v2i_ASN1_B:
; Line 125
	push	126					; 0000007eH
	push	OFFSET ??_C@_0BL@BMKLALJB@?4?2crypto?2x509v3?2v3_bitst?4c?$AA@
	push	65					; 00000041H
	push	101					; 00000065H
	push	34					; 00000022H
	call	_ERR_put_error
; Line 127
	push	ebx
	call	_ASN1_STRING_free
	add	esp, 24					; 00000018H
; Line 128
	xor	eax, eax
	pop	edi
	pop	esi
	pop	ebp
	pop	ebx
; Line 142
	add	esp, 8
	ret	0
$LN18@v2i_ASN1_B:
; Line 134
	push	135					; 00000087H
	push	OFFSET ??_C@_0BL@BMKLALJB@?4?2crypto?2x509v3?2v3_bitst?4c?$AA@
	push	111					; 0000006fH
	push	101					; 00000065H
	push	34					; 00000022H
	call	_ERR_put_error
; Line 136
	push	DWORD PTR [ebx+8]
	push	OFFSET ??_C@_07BDICHDDB@?0value?3?$AA@
	push	DWORD PTR [ebx+4]
	push	OFFSET ??_C@_06FONLLLNC@?0name?3?$AA@
	push	DWORD PTR [ebx]
	push	OFFSET ??_C@_08PCLJGJAL@section?3?$AA@
	push	6
	call	_ERR_add_error_data
; Line 137
	push	DWORD PTR _bs$1$[esp+72]
	call	_ASN1_STRING_free
	add	esp, 52					; 00000034H
; Line 138
	xor	eax, eax
	pop	edi
	pop	esi
	pop	ebp
	pop	ebx
; Line 142
	add	esp, 8
	ret	0
_v2i_ASN1_BIT_STRING ENDP
_TEXT	ENDS
END
