; Listing generated by Microsoft (R) Optimizing Compiler Version 19.00.23918.0 

	TITLE	C:\workpace\openssl\openssl-1.0.2h\crypto\x509v3\v3_conf.c
	.686P
	.XMM
	include listing.inc
	.model	flat

INCLUDELIB MSVCRT
INCLUDELIB OLDNAMES

_DATA	SEGMENT
_nconf_method DD FLAT:_nconf_get_string
	DD	FLAT:_nconf_get_section
	DD	00H
	DD	00H
_conf_lhash_method DD FLAT:_conf_lhash_get_string
	DD	FLAT:_conf_lhash_get_section
	DD	00H
	DD	00H
_DATA	ENDS
PUBLIC	_X509V3_EXT_nconf_nid
PUBLIC	_X509V3_EXT_nconf
PUBLIC	_X509V3_EXT_add_nconf_sk
PUBLIC	_X509V3_EXT_add_nconf
PUBLIC	_X509V3_EXT_REQ_add_nconf
PUBLIC	_X509V3_EXT_CRL_add_nconf
PUBLIC	_X509V3_EXT_conf_nid
PUBLIC	_X509V3_EXT_conf
PUBLIC	_X509V3_EXT_add_conf
PUBLIC	_X509V3_EXT_REQ_add_conf
PUBLIC	_X509V3_EXT_CRL_add_conf
PUBLIC	_X509V3_set_nconf
PUBLIC	_X509V3_set_conf_lhash
PUBLIC	_X509V3_get_string
PUBLIC	_X509V3_get_section
PUBLIC	_X509V3_string_free
PUBLIC	_X509V3_section_free
PUBLIC	_X509V3_set_ctx
PUBLIC	_X509V3_EXT_i2d
PUBLIC	??_C@_0BK@KJEJJLK@?4?2crypto?2x509v3?2v3_conf?4c?$AA@ ; `string'
PUBLIC	??_C@_08OMICEKMJ@?0?5value?$DN?$AA@		; `string'
PUBLIC	??_C@_05DFCJAACA@name?$DN?$AA@			; `string'
PUBLIC	??_C@_09ONBKGAEK@?0section?$DN?$AA@		; `string'
PUBLIC	??_C@_09CFHMBGIC@critical?0?$AA@		; `string'
PUBLIC	??_C@_04HCPFHKMD@DER?3?$AA@			; `string'
PUBLIC	??_C@_05IOEBEMFO@ASN1?3?$AA@			; `string'
PUBLIC	??_C@_06KFEJCPI@value?$DN?$AA@			; `string'
EXTRN	__imp__isspace:PROC
EXTRN	__imp__strncmp:PROC
EXTRN	_sk_num:PROC
EXTRN	_sk_value:PROC
EXTRN	_sk_pop_free:PROC
EXTRN	_CRYPTO_malloc:PROC
EXTRN	_CRYPTO_free:PROC
EXTRN	_ERR_put_error:PROC
EXTRN	_ERR_add_error_data:PROC
EXTRN	_CONF_set_nconf:PROC
EXTRN	_CONF_get_section:PROC
EXTRN	_CONF_get_string:PROC
EXTRN	_NCONF_get_section:PROC
EXTRN	_NCONF_get_string:PROC
EXTRN	_ASN1_TYPE_free:PROC
EXTRN	_i2d_ASN1_TYPE:PROC
EXTRN	_ASN1_OBJECT_free:PROC
EXTRN	_ASN1_STRING_free:PROC
EXTRN	_ASN1_STRING_type_new:PROC
EXTRN	_ASN1_item_free:PROC
EXTRN	_ASN1_item_i2d:PROC
EXTRN	_ASN1_generate_v3:PROC
EXTRN	_OBJ_nid2sn:PROC
EXTRN	_OBJ_txt2obj:PROC
EXTRN	_OBJ_sn2nid:PROC
EXTRN	_X509_EXTENSION_free:PROC
EXTRN	_X509_REQ_add_extensions:PROC
EXTRN	_X509v3_add_ext:PROC
EXTRN	_X509_EXTENSION_create_by_NID:PROC
EXTRN	_X509_EXTENSION_create_by_OBJ:PROC
EXTRN	_X509V3_conf_free:PROC
EXTRN	_X509V3_EXT_get_nid:PROC
EXTRN	_X509V3_parse_list:PROC
EXTRN	_string_to_hex:PROC
EXTRN	__chkstk:PROC
;	COMDAT ??_C@_06KFEJCPI@value?$DN?$AA@
CONST	SEGMENT
??_C@_06KFEJCPI@value?$DN?$AA@ DB 'value=', 00H		; `string'
CONST	ENDS
;	COMDAT ??_C@_05IOEBEMFO@ASN1?3?$AA@
CONST	SEGMENT
??_C@_05IOEBEMFO@ASN1?3?$AA@ DB 'ASN1:', 00H		; `string'
CONST	ENDS
;	COMDAT ??_C@_04HCPFHKMD@DER?3?$AA@
CONST	SEGMENT
??_C@_04HCPFHKMD@DER?3?$AA@ DB 'DER:', 00H		; `string'
CONST	ENDS
;	COMDAT ??_C@_09CFHMBGIC@critical?0?$AA@
CONST	SEGMENT
??_C@_09CFHMBGIC@critical?0?$AA@ DB 'critical,', 00H	; `string'
CONST	ENDS
;	COMDAT ??_C@_09ONBKGAEK@?0section?$DN?$AA@
CONST	SEGMENT
??_C@_09ONBKGAEK@?0section?$DN?$AA@ DB ',section=', 00H	; `string'
CONST	ENDS
;	COMDAT ??_C@_05DFCJAACA@name?$DN?$AA@
CONST	SEGMENT
??_C@_05DFCJAACA@name?$DN?$AA@ DB 'name=', 00H		; `string'
CONST	ENDS
;	COMDAT ??_C@_08OMICEKMJ@?0?5value?$DN?$AA@
CONST	SEGMENT
??_C@_08OMICEKMJ@?0?5value?$DN?$AA@ DB ', value=', 00H	; `string'
CONST	ENDS
;	COMDAT ??_C@_0BK@KJEJJLK@?4?2crypto?2x509v3?2v3_conf?4c?$AA@
CONST	SEGMENT
??_C@_0BK@KJEJJLK@?4?2crypto?2x509v3?2v3_conf?4c?$AA@ DB '.\crypto\x509v3'
	DB	'\v3_conf.c', 00H				; `string'
CONST	ENDS
; Function compile flags: /Ogtpy
;	COMDAT _nconf_get_section
_TEXT	SEGMENT
_db$ = 8						; size = 4
_section$ = 12						; size = 4
_nconf_get_section PROC					; COMDAT
; File c:\workpace\openssl\openssl-1.0.2h\crypto\x509v3\v3_conf.c
; Line 437
	jmp	_NCONF_get_section
_nconf_get_section ENDP
_TEXT	ENDS
; Function compile flags: /Ogtpy
;	COMDAT _nconf_get_string
_TEXT	SEGMENT
_db$ = 8						; size = 4
_section$ = 12						; size = 4
_value$ = 16						; size = 4
_nconf_get_string PROC					; COMDAT
; File c:\workpace\openssl\openssl-1.0.2h\crypto\x509v3\v3_conf.c
; Line 432
	jmp	_NCONF_get_string
_nconf_get_string ENDP
_TEXT	ENDS
; Function compile flags: /Ogtpy
;	COMDAT _generic_asn1
_TEXT	SEGMENT
_ext_der$ = -4						; size = 4
_value$ = 8						; size = 4
_ctx$ = 12						; size = 4
_ext_len$ = 16						; size = 4
_generic_asn1 PROC					; COMDAT
; File c:\workpace\openssl\openssl-1.0.2h\crypto\x509v3\v3_conf.c
; Line 312
	mov	eax, 4
	call	__chkstk
	push	esi
; Line 315
	push	DWORD PTR _ctx$[esp+4]
	mov	DWORD PTR _ext_der$[esp+12], 0
	push	DWORD PTR _value$[esp+8]
	call	_ASN1_generate_v3
	mov	esi, eax
	add	esp, 8
; Line 316
	test	esi, esi
	jne	SHORT $LN2@generic_as
	pop	esi
; Line 321
	pop	ecx
	ret	0
$LN2@generic_as:
; Line 318
	lea	eax, DWORD PTR _ext_der$[esp+8]
	push	eax
	push	esi
	call	_i2d_ASN1_TYPE
	mov	ecx, DWORD PTR _ext_len$[esp+12]
; Line 319
	push	esi
	mov	DWORD PTR [ecx], eax
	call	_ASN1_TYPE_free
; Line 320
	mov	eax, DWORD PTR _ext_der$[esp+20]
	add	esp, 12					; 0000000cH
	pop	esi
; Line 321
	pop	ecx
	ret	0
_generic_asn1 ENDP
_TEXT	ENDS
; Function compile flags: /Ogtpy
;	COMDAT _do_ext_i2d
_TEXT	SEGMENT
_p$1 = -4						; size = 4
_ext_der$ = 8						; size = 4
_method$ = 8						; size = 4
_ext_nid$ = 12						; size = 4
_crit$ = 16						; size = 4
_ext_struc$ = 20					; size = 4
_do_ext_i2d PROC					; COMDAT
; File c:\workpace\openssl\openssl-1.0.2h\crypto\x509v3\v3_conf.c
; Line 178
	mov	eax, 4
	call	__chkstk
	push	esi
; Line 184
	mov	esi, DWORD PTR _method$[esp+4]
	push	edi
	mov	eax, DWORD PTR [esi+8]
	test	eax, eax
	je	SHORT $LN2@do_ext_i2d
; Line 185
	mov	DWORD PTR _ext_der$[esp+8], 0
; Line 186
	call	eax
	push	eax
	lea	eax, DWORD PTR _ext_der$[esp+12]
	push	eax
	push	DWORD PTR _ext_struc$[esp+16]
	call	_ASN1_item_i2d
	mov	edi, eax
	add	esp, 12					; 0000000cH
; Line 188
	test	edi, edi
	jns	SHORT $LN3@do_ext_i2d
$merr$10:
; Line 211
	push	211					; 000000d3H
	push	OFFSET ??_C@_0BK@KJEJJLK@?4?2crypto?2x509v3?2v3_conf?4c?$AA@
	push	65					; 00000041H
	push	135					; 00000087H
	push	34					; 00000022H
	call	_ERR_put_error
	add	esp, 20					; 00000014H
; Line 212
	xor	eax, eax
	pop	edi
	pop	esi
; Line 214
	pop	ecx
	ret	0
$LN2@do_ext_i2d:
; Line 192
	mov	eax, DWORD PTR [esi+24]
	push	0
	push	DWORD PTR _ext_struc$[esp+12]
	call	eax
; Line 193
	push	193					; 000000c1H
	mov	edi, eax
	push	OFFSET ??_C@_0BK@KJEJJLK@?4?2crypto?2x509v3?2v3_conf?4c?$AA@
	push	edi
	call	_CRYPTO_malloc
	add	esp, 20					; 00000014H
	mov	DWORD PTR _ext_der$[esp+8], eax
	test	eax, eax
	je	SHORT $merr$10
; Line 195
	mov	DWORD PTR _p$1[esp+12], eax
; Line 196
	lea	eax, DWORD PTR _p$1[esp+12]
	push	eax
	push	DWORD PTR _ext_struc$[esp+12]
	mov	eax, DWORD PTR [esi+24]
	call	eax
	add	esp, 8
$LN3@do_ext_i2d:
; Line 198
	push	4
	call	_ASN1_STRING_type_new
	mov	esi, eax
	add	esp, 4
	test	esi, esi
	je	SHORT $merr$10
; Line 200
	mov	ecx, DWORD PTR _ext_der$[esp+8]
; Line 203
	push	esi
	push	DWORD PTR _crit$[esp+12]
	mov	DWORD PTR [esi+8], ecx
	push	DWORD PTR _ext_nid$[esp+16]
	mov	DWORD PTR [esi], edi
	push	0
	call	_X509_EXTENSION_create_by_NID
	mov	edi, eax
	add	esp, 16					; 00000010H
; Line 204
	test	edi, edi
	je	$merr$10
; Line 206
	push	esi
	call	_ASN1_STRING_free
	add	esp, 4
; Line 208
	mov	eax, edi
	pop	edi
	pop	esi
; Line 214
	pop	ecx
	ret	0
_do_ext_i2d ENDP
_TEXT	ENDS
; Function compile flags: /Ogtpy
;	COMDAT _conf_lhash_get_section
_TEXT	SEGMENT
_db$ = 8						; size = 4
_section$ = 12						; size = 4
_conf_lhash_get_section PROC				; COMDAT
; File c:\workpace\openssl\openssl-1.0.2h\crypto\x509v3\v3_conf.c
; Line 490
	jmp	_CONF_get_section
_conf_lhash_get_section ENDP
_TEXT	ENDS
; Function compile flags: /Ogtpy
;	COMDAT _conf_lhash_get_string
_TEXT	SEGMENT
_db$ = 8						; size = 4
_section$ = 12						; size = 4
_value$ = 16						; size = 4
_conf_lhash_get_string PROC				; COMDAT
; File c:\workpace\openssl\openssl-1.0.2h\crypto\x509v3\v3_conf.c
; Line 485
	jmp	_CONF_get_string
_conf_lhash_get_string ENDP
_TEXT	ENDS
; Function compile flags: /Ogtpy
;	COMDAT _v3_generic_extension
_TEXT	SEGMENT
_obj$1$ = -8						; size = 4
_ext_len$ = -4						; size = 4
_ext$ = 8						; size = 4
_value$ = 12						; size = 4
_crit$ = 16						; size = 4
_gen_type$ = 20						; size = 4
_ctx$ = 24						; size = 4
_v3_generic_extension PROC				; COMDAT
; File c:\workpace\openssl\openssl-1.0.2h\crypto\x509v3\v3_conf.c
; Line 265
	mov	eax, 8
	call	__chkstk
	push	ebx
	push	ebp
; Line 271
	mov	ebp, DWORD PTR _ext$[esp+12]
	xor	ebx, ebx
	push	esi
	push	edi
	push	ebx
	push	ebp
	xor	esi, esi
	xor	edi, edi
	call	_OBJ_txt2obj
	add	esp, 8
	mov	DWORD PTR _obj$1$[esp+24], eax
	test	eax, eax
	jne	SHORT $LN2@v3_generic
; Line 272
	push	273					; 00000111H
	push	OFFSET ??_C@_0BK@KJEJJLK@?4?2crypto?2x509v3?2v3_conf?4c?$AA@
	push	115					; 00000073H
	push	116					; 00000074H
	push	34					; 00000022H
	call	_ERR_put_error
; Line 274
	push	ebp
	push	OFFSET ??_C@_05DFCJAACA@name?$DN?$AA@
; Line 275
	jmp	$LN12@v3_generic
$LN2@v3_generic:
; Line 278
	mov	eax, DWORD PTR _gen_type$[esp+20]
	mov	ebp, DWORD PTR _value$[esp+20]
	cmp	eax, 1
	jne	SHORT $LN3@v3_generic
; Line 279
	lea	eax, DWORD PTR _ext_len$[esp+24]
	push	eax
	push	ebp
	call	_string_to_hex
	add	esp, 8
	jmp	SHORT $LN13@v3_generic
$LN3@v3_generic:
; Line 280
	cmp	eax, 2
	jne	SHORT $LN10@v3_generic
; Line 281
	lea	eax, DWORD PTR _ext_len$[esp+24]
	push	eax
	push	DWORD PTR _ctx$[esp+24]
	push	ebp
	call	_generic_asn1
	add	esp, 12					; 0000000cH
$LN13@v3_generic:
	mov	esi, eax
; Line 283
	test	esi, esi
	je	SHORT $LN10@v3_generic
; Line 290
	push	4
	call	_ASN1_STRING_type_new
	mov	edi, eax
	add	esp, 4
	test	edi, edi
	jne	SHORT $LN7@v3_generic
; Line 291
	push	291					; 00000123H
	push	OFFSET ??_C@_0BK@KJEJJLK@?4?2crypto?2x509v3?2v3_conf?4c?$AA@
	push	65					; 00000041H
	push	116					; 00000074H
	push	34					; 00000022H
	call	_ERR_put_error
	add	esp, 20					; 00000014H
; Line 292
	jmp	SHORT $LN14@v3_generic
$LN7@v3_generic:
; Line 299
	mov	ebp, DWORD PTR _obj$1$[esp+24]
	push	edi
	push	DWORD PTR _crit$[esp+24]
	mov	DWORD PTR [edi+8], esi
	xor	esi, esi
	mov	eax, DWORD PTR _ext_len$[esp+32]
	push	ebp
	push	esi
	mov	DWORD PTR [edi], eax
	call	_X509_EXTENSION_create_by_OBJ
	add	esp, 16					; 00000010H
	mov	ebx, eax
	jmp	SHORT $err$16
$LN10@v3_generic:
; Line 284
	push	285					; 0000011dH
	push	OFFSET ??_C@_0BK@KJEJJLK@?4?2crypto?2x509v3?2v3_conf?4c?$AA@
	push	116					; 00000074H
	push	116					; 00000074H
	push	34					; 00000022H
	call	_ERR_put_error
; Line 286
	push	ebp
	push	OFFSET ??_C@_06KFEJCPI@value?$DN?$AA@
$LN12@v3_generic:
	push	2
	call	_ERR_add_error_data
	add	esp, 32					; 00000020H
$LN14@v3_generic:
	mov	ebp, DWORD PTR _obj$1$[esp+24]
$err$16:
; Line 302
	push	ebp
	call	_ASN1_OBJECT_free
; Line 303
	push	edi
	call	_ASN1_STRING_free
	add	esp, 8
; Line 304
	test	esi, esi
	je	SHORT $LN11@v3_generic
; Line 305
	push	esi
	call	_CRYPTO_free
	add	esp, 4
$LN11@v3_generic:
; Line 306
	pop	edi
	pop	esi
	pop	ebp
	mov	eax, ebx
	pop	ebx
; Line 308
	add	esp, 8
	ret	0
_v3_generic_extension ENDP
_TEXT	ENDS
; Function compile flags: /Ogtpy
;	COMDAT _do_ext_nconf
_TEXT	SEGMENT
_conf$ = 8						; size = 4
_ctx$ = 12						; size = 4
_nval$1$ = 16						; size = 4
_ext_nid$ = 16						; size = 4
_crit$ = 20						; size = 4
_value$ = 24						; size = 4
_do_ext_nconf PROC					; COMDAT
; File c:\workpace\openssl\openssl-1.0.2h\crypto\x509v3\v3_conf.c
; Line 119
	push	ebx
; Line 124
	mov	ebx, DWORD PTR _ext_nid$[esp]
	test	ebx, ebx
	jne	SHORT $LN2@do_ext_nco
; Line 125
	push	125					; 0000007dH
	push	OFFSET ??_C@_0BK@KJEJJLK@?4?2crypto?2x509v3?2v3_conf?4c?$AA@
	push	130					; 00000082H
	push	151					; 00000097H
	push	34					; 00000022H
	call	_ERR_put_error
	add	esp, 20					; 00000014H
; Line 126
	xor	eax, eax
	pop	ebx
; Line 174
	ret	0
$LN2@do_ext_nco:
	push	esi
; Line 128
	push	ebx
	call	_X509V3_EXT_get_nid
	mov	esi, eax
	add	esp, 4
	test	esi, esi
	jne	SHORT $LN3@do_ext_nco
; Line 129
	push	129					; 00000081H
	push	OFFSET ??_C@_0BK@KJEJJLK@?4?2crypto?2x509v3?2v3_conf?4c?$AA@
	push	129					; 00000081H
	push	151					; 00000097H
	push	34					; 00000022H
	call	_ERR_put_error
	add	esp, 20					; 00000014H
; Line 130
	xor	eax, eax
	pop	esi
	pop	ebx
; Line 174
	ret	0
$LN3@do_ext_nco:
; Line 133
	cmp	DWORD PTR [esi+40], 0
	push	ebp
	push	edi
	je	$LN4@do_ext_nco
; Line 134
	mov	ebp, DWORD PTR _value$[esp+12]
	cmp	BYTE PTR [ebp], 64			; 00000040H
	jne	SHORT $LN6@do_ext_nco
; Line 135
	lea	eax, DWORD PTR [ebp+1]
	push	eax
	push	DWORD PTR _conf$[esp+16]
	call	_NCONF_get_section
	mov	edi, eax
	add	esp, 8
	mov	DWORD PTR _nval$1$[esp+12], edi
	jmp	SHORT $LN7@do_ext_nco
$LN6@do_ext_nco:
; Line 137
	push	ebp
	call	_X509V3_parse_list
	add	esp, 4
	mov	DWORD PTR _nval$1$[esp+12], eax
	mov	edi, eax
$LN7@do_ext_nco:
; Line 138
	push	edi
	call	_sk_num
	add	esp, 4
	test	eax, eax
	jg	SHORT $LN8@do_ext_nco
; Line 139
	push	140					; 0000008cH
	push	OFFSET ??_C@_0BK@KJEJJLK@?4?2crypto?2x509v3?2v3_conf?4c?$AA@
	push	105					; 00000069H
	push	151					; 00000097H
	push	34					; 00000022H
	call	_ERR_put_error
	add	esp, 20					; 00000014H
; Line 141
	push	ebp
	push	OFFSET ??_C@_09ONBKGAEK@?0section?$DN?$AA@
	push	ebx
	call	_OBJ_nid2sn
	add	esp, 4
	push	eax
	push	OFFSET ??_C@_05DFCJAACA@name?$DN?$AA@
	push	4
	call	_ERR_add_error_data
	add	esp, 20					; 00000014H
; Line 164
	xor	eax, eax
	pop	edi
	pop	ebp
	pop	esi
	pop	ebx
; Line 174
	ret	0
$LN8@do_ext_nco:
; Line 145
	mov	eax, DWORD PTR [esi+40]
	push	edi
	push	DWORD PTR _ctx$[esp+16]
	push	esi
	call	eax
	add	esp, 12					; 0000000cH
	mov	edi, eax
; Line 146
	cmp	BYTE PTR [ebp], 64			; 00000040H
	je	SHORT $LN9@do_ext_nco
; Line 147
	push	OFFSET _X509V3_conf_free
	push	DWORD PTR _nval$1$[esp+16]
	call	_sk_pop_free
	add	esp, 8
$LN9@do_ext_nco:
; Line 148
	test	edi, edi
	jne	SHORT $LN18@do_ext_nco
; Line 164
	pop	edi
	pop	ebp
	pop	esi
	xor	eax, eax
	pop	ebx
; Line 174
	ret	0
$LN4@do_ext_nco:
; Line 150
	mov	eax, DWORD PTR [esi+32]
	test	eax, eax
	je	SHORT $LN11@do_ext_nco
; Line 151
	push	DWORD PTR _value$[esp+12]
	push	DWORD PTR _ctx$[esp+16]
	push	esi
	call	eax
	mov	edi, eax
	add	esp, 12					; 0000000cH
	test	edi, edi
	jne	SHORT $LN18@do_ext_nco
	pop	edi
	pop	ebp
	pop	esi
	pop	ebx
; Line 174
	ret	0
$LN11@do_ext_nco:
; Line 153
	mov	ecx, DWORD PTR [esi+48]
	test	ecx, ecx
	je	$LN14@do_ext_nco
; Line 154
	mov	eax, DWORD PTR _ctx$[esp+12]
	cmp	DWORD PTR [eax+24], 0
	je	SHORT $LN17@do_ext_nco
	cmp	DWORD PTR [eax+20], 0
	je	SHORT $LN17@do_ext_nco
; Line 158
	push	DWORD PTR _value$[esp+12]
	push	eax
	push	esi
	call	ecx
	mov	edi, eax
	add	esp, 12					; 0000000cH
	test	edi, edi
	je	$LN25@do_ext_nco
$LN18@do_ext_nco:
; Line 167
	push	edi
	push	DWORD PTR _crit$[esp+16]
	push	ebx
	push	esi
	call	_do_ext_i2d
; Line 168
	mov	ecx, DWORD PTR [esi+8]
	add	esp, 16					; 00000010H
	mov	ebx, eax
	test	ecx, ecx
	je	SHORT $LN19@do_ext_nco
; Line 169
	call	ecx
	push	eax
	push	edi
	call	_ASN1_item_free
	add	esp, 8
; Line 172
	mov	eax, ebx
	pop	edi
	pop	ebp
	pop	esi
	pop	ebx
; Line 174
	ret	0
$LN19@do_ext_nco:
; Line 171
	mov	eax, DWORD PTR [esi+16]
	push	edi
	call	eax
	add	esp, 4
; Line 172
	mov	eax, ebx
	pop	edi
	pop	ebp
	pop	esi
	pop	ebx
; Line 174
	ret	0
$LN17@do_ext_nco:
; Line 155
	push	155					; 0000009bH
	push	OFFSET ??_C@_0BK@KJEJJLK@?4?2crypto?2x509v3?2v3_conf?4c?$AA@
	push	136					; 00000088H
	push	151					; 00000097H
	push	34					; 00000022H
	call	_ERR_put_error
	add	esp, 20					; 00000014H
; Line 164
	xor	eax, eax
	pop	edi
	pop	ebp
	pop	esi
	pop	ebx
; Line 174
	ret	0
$LN14@do_ext_nco:
; Line 161
	push	162					; 000000a2H
	push	OFFSET ??_C@_0BK@KJEJJLK@?4?2crypto?2x509v3?2v3_conf?4c?$AA@
	push	103					; 00000067H
	push	151					; 00000097H
	push	34					; 00000022H
	call	_ERR_put_error
; Line 163
	push	ebx
	call	_OBJ_nid2sn
	push	eax
	push	OFFSET ??_C@_05DFCJAACA@name?$DN?$AA@
	push	2
	call	_ERR_add_error_data
	add	esp, 36					; 00000024H
$LN25@do_ext_nco:
; Line 164
	pop	edi
	pop	ebp
	pop	esi
	xor	eax, eax
	pop	ebx
; Line 174
	ret	0
_do_ext_nconf ENDP
_TEXT	ENDS
; Function compile flags: /Ogtpy
;	COMDAT _v3_check_generic
_TEXT	SEGMENT
_value$ = 8						; size = 4
_v3_check_generic PROC					; COMDAT
; File c:\workpace\openssl\openssl-1.0.2h\crypto\x509v3\v3_conf.c
; Line 243
	push	ebx
	push	ebp
; Line 245
	mov	ebp, DWORD PTR _value$[esp+4]
	push	esi
	push	edi
	mov	esi, DWORD PTR [ebp]
; Line 246
	mov	ecx, esi
	lea	edx, DWORD PTR [ecx+1]
$LL13@v3_check_g:
	mov	al, BYTE PTR [ecx]
	inc	ecx
	test	al, al
	jne	SHORT $LL13@v3_check_g
	mov	edi, DWORD PTR __imp__strncmp
	sub	ecx, edx
	cmp	ecx, 4
	jb	SHORT $LN4@v3_check_g
	push	4
	push	OFFSET ??_C@_04HCPFHKMD@DER?3?$AA@
	push	esi
	call	edi
	add	esp, 12					; 0000000cH
	test	eax, eax
	jne	SHORT $LN4@v3_check_g
; Line 247
	add	esi, 4
; Line 248
	lea	ebx, DWORD PTR [eax+1]
	jmp	SHORT $LN9@v3_check_g
$LN4@v3_check_g:
; Line 249
	mov	ecx, esi
	lea	edx, DWORD PTR [ecx+1]
$LL14@v3_check_g:
	mov	al, BYTE PTR [ecx]
	inc	ecx
	test	al, al
	jne	SHORT $LL14@v3_check_g
	sub	ecx, edx
	cmp	ecx, 5
	jb	SHORT $LN6@v3_check_g
	push	5
	push	OFFSET ??_C@_05IOEBEMFO@ASN1?3?$AA@
	push	esi
	call	edi
	add	esp, 12					; 0000000cH
	test	eax, eax
	jne	SHORT $LN6@v3_check_g
; Line 250
	add	esi, 5
; Line 251
	lea	ebx, DWORD PTR [eax+2]
$LN9@v3_check_g:
; Line 255
	movzx	eax, BYTE PTR [esi]
	mov	edi, DWORD PTR __imp__isspace
	push	eax
	call	edi
	add	esp, 4
	test	eax, eax
	je	SHORT $LN3@v3_check_g
	npad	6
$LL2@v3_check_g:
	movzx	ecx, BYTE PTR [esi+1]
; Line 256
	inc	esi
	push	ecx
	call	edi
	add	esp, 4
	test	eax, eax
	jne	SHORT $LL2@v3_check_g
$LN3@v3_check_g:
	pop	edi
; Line 257
	mov	DWORD PTR [ebp], esi
; Line 258
	mov	eax, ebx
	pop	esi
	pop	ebp
	pop	ebx
; Line 259
	ret	0
$LN6@v3_check_g:
	pop	edi
	pop	esi
	pop	ebp
; Line 253
	xor	eax, eax
	pop	ebx
; Line 259
	ret	0
_v3_check_generic ENDP
_TEXT	ENDS
; Function compile flags: /Ogtpy
;	COMDAT _v3_check_critical
_TEXT	SEGMENT
_value$ = 8						; size = 4
_v3_check_critical PROC					; COMDAT
; File c:\workpace\openssl\openssl-1.0.2h\crypto\x509v3\v3_conf.c
; Line 230
	push	ebx
; Line 231
	mov	ebx, DWORD PTR _value$[esp]
	push	esi
	mov	esi, DWORD PTR [ebx]
; Line 232
	mov	ecx, esi
	lea	edx, DWORD PTR [ecx+1]
	npad	3
$LL11@v3_check_c:
	mov	al, BYTE PTR [ecx]
	inc	ecx
	test	al, al
	jne	SHORT $LL11@v3_check_c
	sub	ecx, edx
	cmp	ecx, 9
	jb	SHORT $LN5@v3_check_c
	push	9
	push	OFFSET ??_C@_09CFHMBGIC@critical?0?$AA@
	push	esi
	call	DWORD PTR __imp__strncmp
	add	esp, 12					; 0000000cH
	test	eax, eax
	jne	SHORT $LN5@v3_check_c
; Line 235
	movzx	eax, BYTE PTR [esi+9]
	add	esi, 9
	push	edi
	mov	edi, DWORD PTR __imp__isspace
	push	eax
	call	edi
	add	esp, 4
	test	eax, eax
	je	SHORT $LN3@v3_check_c
	npad	5
$LL2@v3_check_c:
	movzx	eax, BYTE PTR [esi+1]
; Line 236
	inc	esi
	push	eax
	call	edi
	add	esp, 4
	test	eax, eax
	jne	SHORT $LL2@v3_check_c
$LN3@v3_check_c:
	pop	edi
; Line 237
	mov	DWORD PTR [ebx], esi
; Line 238
	mov	eax, 1
	pop	esi
	pop	ebx
; Line 239
	ret	0
$LN5@v3_check_c:
	pop	esi
; Line 233
	xor	eax, eax
	pop	ebx
; Line 239
	ret	0
_v3_check_critical ENDP
_TEXT	ENDS
; Function compile flags: /Ogtpy
;	COMDAT _X509V3_EXT_i2d
_TEXT	SEGMENT
_ext_nid$ = 8						; size = 4
_crit$ = 12						; size = 4
_ext_struc$ = 16					; size = 4
_X509V3_EXT_i2d PROC					; COMDAT
; File c:\workpace\openssl\openssl-1.0.2h\crypto\x509v3\v3_conf.c
; Line 221
	push	DWORD PTR _ext_nid$[esp-4]
	call	_X509V3_EXT_get_nid
	add	esp, 4
	test	eax, eax
	jne	SHORT $LN2@X509V3_EXT
; Line 222
	push	222					; 000000deH
	push	OFFSET ??_C@_0BK@KJEJJLK@?4?2crypto?2x509v3?2v3_conf?4c?$AA@
	push	129					; 00000081H
	push	136					; 00000088H
	push	34					; 00000022H
	call	_ERR_put_error
	add	esp, 20					; 00000014H
; Line 223
	xor	eax, eax
; Line 226
	ret	0
$LN2@X509V3_EXT:
; Line 225
	push	DWORD PTR _ext_struc$[esp-4]
	push	DWORD PTR _crit$[esp]
	push	DWORD PTR _ext_nid$[esp+4]
	push	eax
	call	_do_ext_i2d
	add	esp, 16					; 00000010H
; Line 226
	ret	0
_X509V3_EXT_i2d ENDP
_TEXT	ENDS
; Function compile flags: /Ogtpy
;	COMDAT _X509V3_set_ctx
_TEXT	SEGMENT
_ctx$ = 8						; size = 4
_issuer$ = 12						; size = 4
_subj$ = 16						; size = 4
_req$ = 20						; size = 4
_crl$ = 24						; size = 4
_flags$ = 28						; size = 4
_X509V3_set_ctx PROC					; COMDAT
; File c:\workpace\openssl\openssl-1.0.2h\crypto\x509v3\v3_conf.c
; Line 456
	mov	ecx, DWORD PTR _ctx$[esp-4]
	mov	eax, DWORD PTR _issuer$[esp-4]
	mov	DWORD PTR [ecx+4], eax
; Line 457
	mov	eax, DWORD PTR _subj$[esp-4]
	mov	DWORD PTR [ecx+8], eax
; Line 458
	mov	eax, DWORD PTR _crl$[esp-4]
	mov	DWORD PTR [ecx+16], eax
; Line 459
	mov	eax, DWORD PTR _req$[esp-4]
	mov	DWORD PTR [ecx+12], eax
; Line 460
	mov	eax, DWORD PTR _flags$[esp-4]
	mov	DWORD PTR [ecx], eax
; Line 461
	ret	0
_X509V3_set_ctx ENDP
_TEXT	ENDS
; Function compile flags: /Ogtpy
;	COMDAT _X509V3_section_free
_TEXT	SEGMENT
_ctx$ = 8						; size = 4
_section$ = 12						; size = 4
_X509V3_section_free PROC				; COMDAT
; File c:\workpace\openssl\openssl-1.0.2h\crypto\x509v3\v3_conf.c
; Line 424
	mov	ecx, DWORD PTR _section$[esp-4]
	test	ecx, ecx
	je	SHORT $LN3@X509V3_sec
; Line 426
	mov	edx, DWORD PTR _ctx$[esp-4]
	mov	eax, DWORD PTR [edx+20]
	mov	eax, DWORD PTR [eax+12]
	test	eax, eax
	je	SHORT $LN3@X509V3_sec
; Line 427
	push	ecx
	push	DWORD PTR [edx+24]
	call	eax
	add	esp, 8
$LN3@X509V3_sec:
; Line 428
	ret	0
_X509V3_section_free ENDP
_TEXT	ENDS
; Function compile flags: /Ogtpy
;	COMDAT _X509V3_string_free
_TEXT	SEGMENT
_ctx$ = 8						; size = 4
_str$ = 12						; size = 4
_X509V3_string_free PROC				; COMDAT
; File c:\workpace\openssl\openssl-1.0.2h\crypto\x509v3\v3_conf.c
; Line 416
	mov	ecx, DWORD PTR _str$[esp-4]
	test	ecx, ecx
	je	SHORT $LN3@X509V3_str
; Line 418
	mov	edx, DWORD PTR _ctx$[esp-4]
	mov	eax, DWORD PTR [edx+20]
	mov	eax, DWORD PTR [eax+8]
	test	eax, eax
	je	SHORT $LN3@X509V3_str
; Line 419
	push	ecx
	push	DWORD PTR [edx+24]
	call	eax
	add	esp, 8
$LN3@X509V3_str:
; Line 420
	ret	0
_X509V3_string_free ENDP
_TEXT	ENDS
; Function compile flags: /Ogtpy
;	COMDAT _X509V3_get_section
_TEXT	SEGMENT
_ctx$ = 8						; size = 4
_section$ = 12						; size = 4
_X509V3_get_section PROC				; COMDAT
; File c:\workpace\openssl\openssl-1.0.2h\crypto\x509v3\v3_conf.c
; Line 404
	mov	eax, DWORD PTR _ctx$[esp-4]
	mov	ecx, DWORD PTR [eax+24]
	test	ecx, ecx
	je	SHORT $LN3@X509V3_get
	mov	eax, DWORD PTR [eax+20]
	test	eax, eax
	je	SHORT $LN3@X509V3_get
	mov	eax, DWORD PTR [eax+4]
	test	eax, eax
	je	SHORT $LN3@X509V3_get
; Line 410
	mov	DWORD PTR _ctx$[esp-4], ecx
	jmp	eax
$LN3@X509V3_get:
; Line 405
	push	406					; 00000196H
	push	OFFSET ??_C@_0BK@KJEJJLK@?4?2crypto?2x509v3?2v3_conf?4c?$AA@
	push	148					; 00000094H
	push	142					; 0000008eH
	push	34					; 00000022H
	call	_ERR_put_error
	add	esp, 20					; 00000014H
; Line 407
	xor	eax, eax
; Line 412
	ret	0
_X509V3_get_section ENDP
_TEXT	ENDS
; Function compile flags: /Ogtpy
;	COMDAT _X509V3_get_string
_TEXT	SEGMENT
_ctx$ = 8						; size = 4
_name$ = 12						; size = 4
_section$ = 16						; size = 4
_X509V3_get_string PROC					; COMDAT
; File c:\workpace\openssl\openssl-1.0.2h\crypto\x509v3\v3_conf.c
; Line 393
	mov	eax, DWORD PTR _ctx$[esp-4]
	mov	ecx, DWORD PTR [eax+24]
	test	ecx, ecx
	je	SHORT $LN3@X509V3_get
	mov	eax, DWORD PTR [eax+20]
	test	eax, eax
	je	SHORT $LN3@X509V3_get
	mov	eax, DWORD PTR [eax]
	test	eax, eax
	je	SHORT $LN3@X509V3_get
; Line 398
	mov	DWORD PTR _ctx$[esp-4], ecx
	jmp	eax
$LN3@X509V3_get:
; Line 394
	push	394					; 0000018aH
	push	OFFSET ??_C@_0BK@KJEJJLK@?4?2crypto?2x509v3?2v3_conf?4c?$AA@
	push	148					; 00000094H
	push	143					; 0000008fH
	push	34					; 00000022H
	call	_ERR_put_error
	add	esp, 20					; 00000014H
; Line 395
	xor	eax, eax
; Line 400
	ret	0
_X509V3_get_string ENDP
_TEXT	ENDS
; Function compile flags: /Ogtpy
;	COMDAT _X509V3_set_conf_lhash
_TEXT	SEGMENT
_ctx$ = 8						; size = 4
_lhash$ = 12						; size = 4
_X509V3_set_conf_lhash PROC				; COMDAT
; File c:\workpace\openssl\openssl-1.0.2h\crypto\x509v3\v3_conf.c
; Line 502
	mov	ecx, DWORD PTR _ctx$[esp-4]
; Line 503
	mov	eax, DWORD PTR _lhash$[esp-4]
	mov	DWORD PTR [ecx+20], OFFSET _conf_lhash_method
	mov	DWORD PTR [ecx+24], eax
; Line 504
	ret	0
_X509V3_set_conf_lhash ENDP
_TEXT	ENDS
; Function compile flags: /Ogtpy
;	COMDAT _X509V3_set_nconf
_TEXT	SEGMENT
_ctx$ = 8						; size = 4
_conf$ = 12						; size = 4
_X509V3_set_nconf PROC					; COMDAT
; File c:\workpace\openssl\openssl-1.0.2h\crypto\x509v3\v3_conf.c
; Line 449
	mov	ecx, DWORD PTR _ctx$[esp-4]
; Line 450
	mov	eax, DWORD PTR _conf$[esp-4]
	mov	DWORD PTR [ecx+20], OFFSET _nconf_method
	mov	DWORD PTR [ecx+24], eax
; Line 451
	ret	0
_X509V3_set_nconf ENDP
_TEXT	ENDS
; Function compile flags: /Ogtpy
;	COMDAT _X509V3_EXT_CRL_add_conf
_TEXT	SEGMENT
_ctmp$ = -12						; size = 12
_conf$ = 8						; size = 4
_ctx$ = 12						; size = 4
_section$ = 16						; size = 4
_crl$ = 20						; size = 4
_X509V3_EXT_CRL_add_conf PROC				; COMDAT
; File c:\workpace\openssl\openssl-1.0.2h\crypto\x509v3\v3_conf.c
; Line 518
	mov	eax, 12					; 0000000cH
	call	__chkstk
; Line 520
	push	DWORD PTR _conf$[esp+8]
	lea	eax, DWORD PTR _ctmp$[esp+16]
	push	eax
	call	_CONF_set_nconf
; Line 367
	mov	ecx, DWORD PTR _crl$[esp+16]
; Line 520
	add	esp, 8
; Line 366
	xor	eax, eax
; Line 367
	test	ecx, ecx
	je	SHORT $LN4@X509V3_EXT
; Line 368
	mov	eax, DWORD PTR [ecx]
	add	eax, 24					; 00000018H
$LN4@X509V3_EXT:
; Line 369
	push	eax
	push	DWORD PTR _section$[esp+12]
	lea	eax, DWORD PTR _ctmp$[esp+20]
	push	DWORD PTR _ctx$[esp+16]
	push	eax
	call	_X509V3_EXT_add_nconf_sk
; Line 522
	add	esp, 28					; 0000001cH
	ret	0
_X509V3_EXT_CRL_add_conf ENDP
_TEXT	ENDS
; Function compile flags: /Ogtpy
;	COMDAT _X509V3_EXT_REQ_add_conf
_TEXT	SEGMENT
_extlist$1 = -16					; size = 4
_ctmp$ = -12						; size = 12
_conf$ = 8						; size = 4
_ctx$ = 12						; size = 4
_section$ = 16						; size = 4
_req$ = 20						; size = 4
_X509V3_EXT_REQ_add_conf PROC				; COMDAT
; File c:\workpace\openssl\openssl-1.0.2h\crypto\x509v3\v3_conf.c
; Line 528
	mov	eax, 16					; 00000010H
	call	__chkstk
	push	esi
; Line 530
	push	DWORD PTR _conf$[esp+16]
	lea	eax, DWORD PTR _ctmp$[esp+24]
	push	eax
	call	_CONF_set_nconf
; Line 377
	xor	eax, eax
	mov	DWORD PTR _extlist$1[esp+28], 0
; Line 379
	cmp	DWORD PTR _req$[esp+24], eax
	lea	esi, DWORD PTR _extlist$1[esp+28]
	cmove	esi, eax
; Line 381
	lea	eax, DWORD PTR _ctmp$[esp+28]
	push	esi
	push	DWORD PTR _section$[esp+28]
	push	DWORD PTR _ctx$[esp+32]
	push	eax
	call	_X509V3_EXT_add_nconf_sk
	add	esp, 24					; 00000018H
; Line 382
	test	eax, eax
	je	SHORT $LN6@X509V3_EXT
	test	esi, esi
	je	SHORT $LN6@X509V3_EXT
; Line 384
	push	DWORD PTR _extlist$1[esp+20]
	push	DWORD PTR _req$[esp+20]
	call	_X509_REQ_add_extensions
; Line 385
	push	OFFSET _X509_EXTENSION_free
	push	DWORD PTR _extlist$1[esp+32]
	mov	esi, eax
	call	_sk_pop_free
	add	esp, 16					; 00000010H
; Line 531
	mov	eax, esi
$LN6@X509V3_EXT:
	pop	esi
; Line 532
	add	esp, 16					; 00000010H
	ret	0
_X509V3_EXT_REQ_add_conf ENDP
_TEXT	ENDS
; Function compile flags: /Ogtpy
;	COMDAT _X509V3_EXT_add_conf
_TEXT	SEGMENT
_ctmp$ = -12						; size = 12
_conf$ = 8						; size = 4
_ctx$ = 12						; size = 4
_section$ = 16						; size = 4
_cert$ = 20						; size = 4
_X509V3_EXT_add_conf PROC				; COMDAT
; File c:\workpace\openssl\openssl-1.0.2h\crypto\x509v3\v3_conf.c
; Line 508
	mov	eax, 12					; 0000000cH
	call	__chkstk
; Line 510
	push	DWORD PTR _conf$[esp+8]
	lea	eax, DWORD PTR _ctmp$[esp+16]
	push	eax
	call	_CONF_set_nconf
; Line 356
	mov	ecx, DWORD PTR _cert$[esp+16]
; Line 510
	add	esp, 8
; Line 355
	xor	eax, eax
; Line 356
	test	ecx, ecx
	je	SHORT $LN4@X509V3_EXT
; Line 357
	mov	eax, DWORD PTR [ecx]
	add	eax, 36					; 00000024H
$LN4@X509V3_EXT:
; Line 358
	push	eax
	push	DWORD PTR _section$[esp+12]
	lea	eax, DWORD PTR _ctmp$[esp+20]
	push	DWORD PTR _ctx$[esp+16]
	push	eax
	call	_X509V3_EXT_add_nconf_sk
; Line 512
	add	esp, 28					; 0000001cH
	ret	0
_X509V3_EXT_add_conf ENDP
_TEXT	ENDS
; Function compile flags: /Ogtpy
;	COMDAT _X509V3_EXT_conf
_TEXT	SEGMENT
_ctmp$ = -12						; size = 12
_conf$ = 8						; size = 4
_ctx$ = 12						; size = 4
_name$ = 16						; size = 4
_value$ = 20						; size = 4
_X509V3_EXT_conf PROC					; COMDAT
; File c:\workpace\openssl\openssl-1.0.2h\crypto\x509v3\v3_conf.c
; Line 467
	mov	eax, 12					; 0000000cH
	call	__chkstk
; Line 469
	push	DWORD PTR _conf$[esp+8]
	lea	eax, DWORD PTR _ctmp$[esp+16]
	push	eax
	call	_CONF_set_nconf
; Line 470
	push	DWORD PTR _value$[esp+16]
	lea	eax, DWORD PTR _ctmp$[esp+24]
	push	DWORD PTR _name$[esp+20]
	push	DWORD PTR _ctx$[esp+24]
	push	eax
	call	_X509V3_EXT_nconf
; Line 471
	add	esp, 36					; 00000024H
	ret	0
_X509V3_EXT_conf ENDP
_TEXT	ENDS
; Function compile flags: /Ogtpy
;	COMDAT _X509V3_EXT_conf_nid
_TEXT	SEGMENT
_ctmp$ = -12						; size = 12
_conf$ = 8						; size = 4
_ctx$ = 12						; size = 4
_ext_nid$ = 16						; size = 4
_value$ = 20						; size = 4
_value$ = 20						; size = 4
_X509V3_EXT_conf_nid PROC				; COMDAT
; File c:\workpace\openssl\openssl-1.0.2h\crypto\x509v3\v3_conf.c
; Line 477
	mov	eax, 12					; 0000000cH
	call	__chkstk
	push	esi
; Line 479
	push	DWORD PTR _conf$[esp+12]
	lea	eax, DWORD PTR _ctmp$[esp+20]
	push	eax
	call	_CONF_set_nconf
; Line 480
	mov	eax, DWORD PTR _value$[esp+20]
	mov	DWORD PTR _value$[esp+20], eax
; Line 108
	lea	eax, DWORD PTR _value$[esp+20]
	push	eax
	call	_v3_check_critical
	mov	esi, eax
; Line 109
	lea	eax, DWORD PTR _value$[esp+24]
	push	eax
	call	_v3_check_generic
	add	esp, 16					; 00000010H
	test	eax, eax
	je	SHORT $LN4@X509V3_EXT
; Line 110
	push	DWORD PTR _ctx$[esp+12]
	push	eax
	push	esi
	push	DWORD PTR _value$[esp+24]
	push	DWORD PTR _ext_nid$[esp+28]
	call	_OBJ_nid2sn
	add	esp, 4
	push	eax
	call	_v3_generic_extension
; Line 112
	add	esp, 20					; 00000014H
	pop	esi
; Line 481
	add	esp, 12					; 0000000cH
	ret	0
$LN4@X509V3_EXT:
; Line 112
	push	DWORD PTR _value$[esp+12]
	lea	eax, DWORD PTR _ctmp$[esp+20]
	push	esi
	push	DWORD PTR _ext_nid$[esp+20]
	push	DWORD PTR _ctx$[esp+24]
	push	eax
	call	_do_ext_nconf
	add	esp, 20					; 00000014H
	pop	esi
; Line 481
	add	esp, 12					; 0000000cH
	ret	0
_X509V3_EXT_conf_nid ENDP
_TEXT	ENDS
; Function compile flags: /Ogtpy
;	COMDAT _X509V3_EXT_CRL_add_nconf
_TEXT	SEGMENT
_conf$ = 8						; size = 4
_ctx$ = 12						; size = 4
_section$ = 16						; size = 4
_crl$ = 20						; size = 4
_X509V3_EXT_CRL_add_nconf PROC				; COMDAT
; File c:\workpace\openssl\openssl-1.0.2h\crypto\x509v3\v3_conf.c
; Line 367
	mov	ecx, DWORD PTR _crl$[esp-4]
	xor	eax, eax
	test	ecx, ecx
	je	SHORT $LN2@X509V3_EXT
; Line 368
	mov	eax, DWORD PTR [ecx]
	add	eax, 24					; 00000018H
$LN2@X509V3_EXT:
; Line 369
	mov	DWORD PTR _crl$[esp-4], eax
	jmp	_X509V3_EXT_add_nconf_sk
_X509V3_EXT_CRL_add_nconf ENDP
_TEXT	ENDS
; Function compile flags: /Ogtpy
;	COMDAT _X509V3_EXT_REQ_add_nconf
_TEXT	SEGMENT
_extlist$ = -4						; size = 4
_conf$ = 8						; size = 4
_ctx$ = 12						; size = 4
_section$ = 16						; size = 4
_req$ = 20						; size = 4
_X509V3_EXT_REQ_add_nconf PROC				; COMDAT
; File c:\workpace\openssl\openssl-1.0.2h\crypto\x509v3\v3_conf.c
; Line 376
	mov	eax, 4
	call	__chkstk
	push	esi
; Line 377
	xor	eax, eax
	mov	DWORD PTR _extlist$[esp+8], 0
; Line 379
	cmp	DWORD PTR _req$[esp+4], eax
	lea	esi, DWORD PTR _extlist$[esp+8]
	cmove	esi, eax
; Line 381
	push	esi
	push	DWORD PTR _section$[esp+8]
	push	DWORD PTR _ctx$[esp+12]
	push	DWORD PTR _conf$[esp+16]
	call	_X509V3_EXT_add_nconf_sk
	add	esp, 16					; 00000010H
; Line 382
	test	eax, eax
	je	SHORT $LN1@X509V3_EXT
	test	esi, esi
	je	SHORT $LN1@X509V3_EXT
; Line 384
	push	DWORD PTR _extlist$[esp+8]
	push	DWORD PTR _req$[esp+8]
	call	_X509_REQ_add_extensions
; Line 385
	push	OFFSET _X509_EXTENSION_free
	push	DWORD PTR _extlist$[esp+20]
	mov	esi, eax
	call	_sk_pop_free
	add	esp, 16					; 00000010H
; Line 386
	mov	eax, esi
$LN1@X509V3_EXT:
	pop	esi
; Line 387
	pop	ecx
	ret	0
_X509V3_EXT_REQ_add_nconf ENDP
_TEXT	ENDS
; Function compile flags: /Ogtpy
;	COMDAT _X509V3_EXT_add_nconf
_TEXT	SEGMENT
_conf$ = 8						; size = 4
_ctx$ = 12						; size = 4
_section$ = 16						; size = 4
_cert$ = 20						; size = 4
_X509V3_EXT_add_nconf PROC				; COMDAT
; File c:\workpace\openssl\openssl-1.0.2h\crypto\x509v3\v3_conf.c
; Line 356
	mov	ecx, DWORD PTR _cert$[esp-4]
	xor	eax, eax
	test	ecx, ecx
	je	SHORT $LN2@X509V3_EXT
; Line 357
	mov	eax, DWORD PTR [ecx]
	add	eax, 36					; 00000024H
$LN2@X509V3_EXT:
; Line 358
	mov	DWORD PTR _cert$[esp-4], eax
	jmp	_X509V3_EXT_add_nconf_sk
_X509V3_EXT_add_nconf ENDP
_TEXT	ENDS
; Function compile flags: /Ogtpy
;	COMDAT _X509V3_EXT_add_nconf_sk
_TEXT	SEGMENT
_value$ = -8						; size = 4
_nval$1$ = -4						; size = 4
_conf$ = 8						; size = 4
_ctx$ = 12						; size = 4
_section$ = 16						; size = 4
_sk$ = 20						; size = 4
_X509V3_EXT_add_nconf_sk PROC				; COMDAT
; File c:\workpace\openssl\openssl-1.0.2h\crypto\x509v3\v3_conf.c
; Line 330
	mov	eax, 8
	call	__chkstk
	push	ebx
; Line 335
	push	DWORD PTR _section$[esp+8]
	push	DWORD PTR _conf$[esp+12]
	call	_NCONF_get_section
	mov	ebx, eax
	add	esp, 8
	mov	DWORD PTR _nval$1$[esp+12], ebx
	test	ebx, ebx
	jne	SHORT $LN5@X509V3_EXT
	pop	ebx
; Line 346
	add	esp, 8
	ret	0
$LN5@X509V3_EXT:
	push	ebp
	push	esi
	push	edi
; Line 337
	push	ebx
	xor	edi, edi
	call	_sk_num
	add	esp, 4
	test	eax, eax
	jle	$LN3@X509V3_EXT
	mov	ebp, DWORD PTR _sk$[esp+20]
$LL4@X509V3_EXT:
; Line 338
	push	edi
	push	ebx
	call	_sk_value
; Line 339
	mov	ecx, DWORD PTR [eax+8]
	mov	ebx, DWORD PTR [eax+4]
; Line 90
	lea	eax, DWORD PTR _value$[esp+32]
	push	eax
; Line 339
	mov	DWORD PTR _value$[esp+36], ecx
; Line 90
	call	_v3_check_critical
	mov	esi, eax
; Line 91
	lea	eax, DWORD PTR _value$[esp+36]
	push	eax
	call	_v3_check_generic
	add	esp, 16					; 00000010H
	test	eax, eax
	je	SHORT $LN10@X509V3_EXT
; Line 92
	push	DWORD PTR _ctx$[esp+20]
	push	eax
	push	esi
	push	DWORD PTR _value$[esp+36]
	push	ebx
	call	_v3_generic_extension
	add	esp, 20					; 00000014H
	mov	esi, eax
	jmp	SHORT $LN9@X509V3_EXT
$LN10@X509V3_EXT:
; Line 93
	mov	ebp, DWORD PTR _value$[esp+24]
	push	ebp
	push	esi
	push	ebx
	call	_OBJ_sn2nid
	add	esp, 4
	push	eax
	push	DWORD PTR _ctx$[esp+32]
	push	DWORD PTR _conf$[esp+36]
	call	_do_ext_nconf
	mov	esi, eax
	add	esp, 20					; 00000014H
; Line 94
	test	esi, esi
	jne	SHORT $LN11@X509V3_EXT
; Line 95
	push	95					; 0000005fH
	push	OFFSET ??_C@_0BK@KJEJJLK@?4?2crypto?2x509v3?2v3_conf?4c?$AA@
	push	128					; 00000080H
	push	152					; 00000098H
	push	34					; 00000022H
	call	_ERR_put_error
; Line 96
	push	ebp
	push	OFFSET ??_C@_08OMICEKMJ@?0?5value?$DN?$AA@
	push	ebx
	push	OFFSET ??_C@_05DFCJAACA@name?$DN?$AA@
	push	4
	call	_ERR_add_error_data
	add	esp, 40					; 00000028H
$LN11@X509V3_EXT:
	mov	ebp, DWORD PTR _sk$[esp+20]
$LN9@X509V3_EXT:
; Line 339
	test	esi, esi
	je	SHORT $LN14@X509V3_EXT
; Line 341
	test	ebp, ebp
	je	SHORT $LN7@X509V3_EXT
; Line 342
	push	-1
	push	esi
	push	ebp
	call	_X509v3_add_ext
	add	esp, 12					; 0000000cH
$LN7@X509V3_EXT:
; Line 343
	push	esi
	call	_X509_EXTENSION_free
	mov	ebx, DWORD PTR _nval$1$[esp+28]
	inc	edi
	push	ebx
	call	_sk_num
	add	esp, 8
	cmp	edi, eax
	jl	$LL4@X509V3_EXT
$LN3@X509V3_EXT:
	pop	edi
	pop	esi
	pop	ebp
; Line 345
	mov	eax, 1
	pop	ebx
; Line 346
	add	esp, 8
	ret	0
$LN14@X509V3_EXT:
	pop	edi
	pop	esi
	pop	ebp
; Line 340
	xor	eax, eax
	pop	ebx
; Line 346
	add	esp, 8
	ret	0
_X509V3_EXT_add_nconf_sk ENDP
_TEXT	ENDS
; Function compile flags: /Ogtpy
;	COMDAT _X509V3_EXT_nconf
_TEXT	SEGMENT
_conf$ = 8						; size = 4
_ctx$ = 12						; size = 4
_name$ = 16						; size = 4
_value$ = 20						; size = 4
_X509V3_EXT_nconf PROC					; COMDAT
; File c:\workpace\openssl\openssl-1.0.2h\crypto\x509v3\v3_conf.c
; Line 90
	lea	eax, DWORD PTR _value$[esp-4]
	push	esi
	push	eax
	call	_v3_check_critical
	mov	esi, eax
; Line 91
	lea	eax, DWORD PTR _value$[esp+4]
	push	eax
	call	_v3_check_generic
	add	esp, 8
	test	eax, eax
	je	SHORT $LN2@X509V3_EXT
; Line 92
	push	DWORD PTR _ctx$[esp]
	push	eax
	push	esi
	push	DWORD PTR _value$[esp+12]
	push	DWORD PTR _name$[esp+16]
	call	_v3_generic_extension
	add	esp, 20					; 00000014H
	pop	esi
; Line 99
	ret	0
$LN2@X509V3_EXT:
; Line 93
	push	DWORD PTR _value$[esp]
	push	esi
	push	DWORD PTR _name$[esp+8]
	call	_OBJ_sn2nid
	add	esp, 4
	push	eax
	push	DWORD PTR _ctx$[esp+12]
	push	DWORD PTR _conf$[esp+16]
	call	_do_ext_nconf
	mov	esi, eax
	add	esp, 20					; 00000014H
; Line 94
	test	esi, esi
	jne	SHORT $LN3@X509V3_EXT
; Line 95
	push	95					; 0000005fH
	push	OFFSET ??_C@_0BK@KJEJJLK@?4?2crypto?2x509v3?2v3_conf?4c?$AA@
	push	128					; 00000080H
	push	152					; 00000098H
	push	34					; 00000022H
	call	_ERR_put_error
; Line 96
	push	DWORD PTR _value$[esp+20]
	push	OFFSET ??_C@_08OMICEKMJ@?0?5value?$DN?$AA@
	push	DWORD PTR _name$[esp+28]
	push	OFFSET ??_C@_05DFCJAACA@name?$DN?$AA@
	push	4
	call	_ERR_add_error_data
	add	esp, 40					; 00000028H
$LN3@X509V3_EXT:
; Line 98
	mov	eax, esi
	pop	esi
; Line 99
	ret	0
_X509V3_EXT_nconf ENDP
_TEXT	ENDS
; Function compile flags: /Ogtpy
;	COMDAT _X509V3_EXT_nconf_nid
_TEXT	SEGMENT
_conf$ = 8						; size = 4
_ctx$ = 12						; size = 4
_ext_nid$ = 16						; size = 4
_value$ = 20						; size = 4
_X509V3_EXT_nconf_nid PROC				; COMDAT
; File c:\workpace\openssl\openssl-1.0.2h\crypto\x509v3\v3_conf.c
; Line 108
	lea	eax, DWORD PTR _value$[esp-4]
	push	esi
	push	eax
	call	_v3_check_critical
	mov	esi, eax
; Line 109
	lea	eax, DWORD PTR _value$[esp+4]
	push	eax
	call	_v3_check_generic
	add	esp, 8
	test	eax, eax
	je	SHORT $LN2@X509V3_EXT
; Line 110
	push	DWORD PTR _ctx$[esp]
	push	eax
	push	esi
	push	DWORD PTR _value$[esp+12]
	push	DWORD PTR _ext_nid$[esp+16]
	call	_OBJ_nid2sn
	add	esp, 4
	push	eax
	call	_v3_generic_extension
; Line 112
	add	esp, 20					; 00000014H
	pop	esi
; Line 113
	ret	0
$LN2@X509V3_EXT:
; Line 112
	push	DWORD PTR _value$[esp]
	push	esi
	push	DWORD PTR _ext_nid$[esp+8]
	push	DWORD PTR _ctx$[esp+12]
	push	DWORD PTR _conf$[esp+16]
	call	_do_ext_nconf
	add	esp, 20					; 00000014H
	pop	esi
; Line 113
	ret	0
_X509V3_EXT_nconf_nid ENDP
_TEXT	ENDS
END
