; Listing generated by Microsoft (R) Optimizing Compiler Version 19.00.23918.0 

	TITLE	C:\workpace\openssl\openssl-1.0.2h\crypto\x509v3\v3_lib.c
	.686P
	.XMM
	include listing.inc
	.model	flat

INCLUDELIB MSVCRT
INCLUDELIB OLDNAMES

EXTRN	_v3_bcons:BYTE
EXTRN	_v3_nscert:BYTE
EXTRN	_v3_key_usage:BYTE
EXTRN	_v3_ext_ku:BYTE
EXTRN	_v3_pkey_usage_period:BYTE
EXTRN	_v3_sxnet:BYTE
EXTRN	_v3_info:BYTE
EXTRN	_v3_sinfo:BYTE
EXTRN	_v3_ns_ia5_list:BYTE
EXTRN	_v3_alt:BYTE
EXTRN	_v3_skey_id:BYTE
EXTRN	_v3_akey_id:BYTE
EXTRN	_v3_crl_num:BYTE
EXTRN	_v3_crl_reason:BYTE
EXTRN	_v3_crl_invdate:BYTE
EXTRN	_v3_delta_crl:BYTE
EXTRN	_v3_cpols:BYTE
EXTRN	_v3_crld:BYTE
EXTRN	_v3_freshest_crl:BYTE
EXTRN	_v3_ocsp_nonce:BYTE
EXTRN	_v3_ocsp_accresp:BYTE
EXTRN	_v3_ocsp_acutoff:BYTE
EXTRN	_v3_ocsp_crlid:BYTE
EXTRN	_v3_ocsp_nocheck:BYTE
EXTRN	_v3_ocsp_serviceloc:BYTE
EXTRN	_v3_crl_hold:BYTE
EXTRN	_v3_pci:BYTE
EXTRN	_v3_policy_mappings:BYTE
EXTRN	_v3_policy_constraints:BYTE
EXTRN	_v3_name_constraints:BYTE
EXTRN	_v3_inhibit_anyp:BYTE
EXTRN	_v3_idp:BYTE
EXTRN	_v3_ct_scts:BYTE
_BSS	SEGMENT
_ext_list DD	01H DUP (?)
_BSS	ENDS
_DATA	SEGMENT
_standard_exts DD FLAT:_v3_nscert
	DD	FLAT:_v3_ns_ia5_list
	DD	FLAT:_v3_ns_ia5_list+56
	DD	FLAT:_v3_ns_ia5_list+112
	DD	FLAT:_v3_ns_ia5_list+168
	DD	FLAT:_v3_ns_ia5_list+224
	DD	FLAT:_v3_ns_ia5_list+280
	DD	FLAT:_v3_ns_ia5_list+336
	DD	FLAT:_v3_skey_id
	DD	FLAT:_v3_key_usage
	DD	FLAT:_v3_pkey_usage_period
	DD	FLAT:_v3_alt
	DD	FLAT:_v3_alt+56
	DD	FLAT:_v3_bcons
	DD	FLAT:_v3_crl_num
	DD	FLAT:_v3_cpols
	DD	FLAT:_v3_akey_id
	DD	FLAT:_v3_crld
	DD	FLAT:_v3_ext_ku
	DD	FLAT:_v3_delta_crl
	DD	FLAT:_v3_crl_reason
	DD	FLAT:_v3_crl_invdate
	DD	FLAT:_v3_sxnet
	DD	FLAT:_v3_info
	DD	FLAT:_v3_ocsp_nonce
	DD	FLAT:_v3_ocsp_crlid
	DD	FLAT:_v3_ocsp_accresp
	DD	FLAT:_v3_ocsp_nocheck
	DD	FLAT:_v3_ocsp_acutoff
	DD	FLAT:_v3_ocsp_serviceloc
	DD	FLAT:_v3_sinfo
	DD	FLAT:_v3_policy_constraints
	DD	FLAT:_v3_crl_hold
	DD	FLAT:_v3_pci
	DD	FLAT:_v3_name_constraints
	DD	FLAT:_v3_policy_mappings
	DD	FLAT:_v3_inhibit_anyp
	DD	FLAT:_v3_idp
	DD	FLAT:_v3_alt+112
	DD	FLAT:_v3_freshest_crl
	DD	FLAT:_v3_ct_scts
	DD	FLAT:_v3_ct_scts+56
_DATA	ENDS
PUBLIC	_X509V3_EXT_add
PUBLIC	_X509V3_EXT_add_list
PUBLIC	_X509V3_EXT_add_alias
PUBLIC	_X509V3_EXT_cleanup
PUBLIC	_X509V3_EXT_get
PUBLIC	_X509V3_EXT_get_nid
PUBLIC	_X509V3_add_standard_extensions
PUBLIC	_X509V3_EXT_d2i
PUBLIC	_X509V3_get_d2i
PUBLIC	_X509V3_EXT_free
PUBLIC	_X509V3_add1_i2d
PUBLIC	??_C@_0BJ@EPBCLIJB@?4?2crypto?2x509v3?2v3_lib?4c?$AA@ ; `string'
EXTRN	_sk_num:PROC
EXTRN	_sk_value:PROC
EXTRN	_sk_set:PROC
EXTRN	_sk_new:PROC
EXTRN	_sk_new_null:PROC
EXTRN	_sk_pop_free:PROC
EXTRN	_sk_delete:PROC
EXTRN	_sk_find:PROC
EXTRN	_sk_push:PROC
EXTRN	_CRYPTO_malloc:PROC
EXTRN	_CRYPTO_free:PROC
EXTRN	_ERR_put_error:PROC
EXTRN	_ASN1_item_free:PROC
EXTRN	_ASN1_item_d2i:PROC
EXTRN	_OBJ_obj2nid:PROC
EXTRN	_OBJ_bsearch_:PROC
EXTRN	_X509_EXTENSION_free:PROC
EXTRN	_X509v3_get_ext_by_NID:PROC
EXTRN	_X509_EXTENSION_get_critical:PROC
EXTRN	_X509V3_EXT_i2d:PROC
EXTRN	__chkstk:PROC
;	COMDAT ??_C@_0BJ@EPBCLIJB@?4?2crypto?2x509v3?2v3_lib?4c?$AA@
CONST	SEGMENT
??_C@_0BJ@EPBCLIJB@?4?2crypto?2x509v3?2v3_lib?4c?$AA@ DB '.\crypto\x509v3'
	DB	'\v3_lib.c', 00H				; `string'
CONST	ENDS
; Function compile flags: /Ogtpy
;	COMDAT _OBJ_bsearch_ext
_TEXT	SEGMENT
_key$ = 8						; size = 4
_base$ = 12						; size = 4
_num$ = 16						; size = 4
_OBJ_bsearch_ext PROC					; COMDAT
; File c:\workpace\openssl\openssl-1.0.2h\crypto\x509v3\v3_lib.c
; Line 95
	push	OFFSET _ext_cmp_BSEARCH_CMP_FN
	push	4
	push	DWORD PTR _num$[esp+4]
	push	DWORD PTR _base$[esp+8]
	push	DWORD PTR _key$[esp+12]
	call	_OBJ_bsearch_
	add	esp, 20					; 00000014H
; Line 96
	ret	0
_OBJ_bsearch_ext ENDP
_TEXT	ENDS
; Function compile flags: /Ogtpy
;	COMDAT _ext_cmp_BSEARCH_CMP_FN
_TEXT	SEGMENT
_a_$ = 8						; size = 4
_b_$ = 12						; size = 4
_ext_cmp_BSEARCH_CMP_FN PROC				; COMDAT
; File c:\workpace\openssl\openssl-1.0.2h\crypto\x509v3\v3_lib.c
; Line 90
	mov	eax, DWORD PTR _a_$[esp-4]
	mov	edx, DWORD PTR [eax]
	mov	eax, DWORD PTR _b_$[esp-4]
	mov	ecx, DWORD PTR [eax]
	mov	eax, DWORD PTR [edx]
	sub	eax, DWORD PTR [ecx]
; Line 96
	ret	0
_ext_cmp_BSEARCH_CMP_FN ENDP
_TEXT	ENDS
; Function compile flags: /Ogtpy
;	COMDAT _ext_list_free
_TEXT	SEGMENT
_ext$ = 8						; size = 4
_ext_list_free PROC					; COMDAT
; File c:\workpace\openssl\openssl-1.0.2h\crypto\x509v3\v3_lib.c
; Line 185
	mov	eax, DWORD PTR _ext$[esp-4]
	test	BYTE PTR [eax+4], 1
	je	SHORT $LN2@ext_list_f
; Line 186
	mov	DWORD PTR _ext$[esp-4], eax
	jmp	_CRYPTO_free
$LN2@ext_list_f:
; Line 187
	ret	0
_ext_list_free ENDP
_TEXT	ENDS
; Function compile flags: /Ogtpy
;	COMDAT _ext_cmp
_TEXT	SEGMENT
_a$ = 8							; size = 4
_b$ = 12						; size = 4
_ext_cmp PROC						; COMDAT
; File c:\workpace\openssl\openssl-1.0.2h\crypto\x509v3\v3_lib.c
; Line 90
	mov	eax, DWORD PTR _a$[esp-4]
	mov	edx, DWORD PTR [eax]
	mov	eax, DWORD PTR _b$[esp-4]
	mov	ecx, DWORD PTR [eax]
	mov	eax, DWORD PTR [edx]
	sub	eax, DWORD PTR [ecx]
; Line 91
	ret	0
_ext_cmp ENDP
_TEXT	ENDS
; Function compile flags: /Ogtpy
;	COMDAT _X509V3_add1_i2d
_TEXT	SEGMENT
_x$ = 8							; size = 4
_nid$ = 12						; size = 4
_value$ = 16						; size = 4
_crit$ = 20						; size = 4
_flags$ = 24						; size = 4
_X509V3_add1_i2d PROC					; COMDAT
; File c:\workpace\openssl\openssl-1.0.2h\crypto\x509v3\v3_lib.c
; Line 288
	push	ebx
	push	esi
; Line 292
	mov	esi, DWORD PTR _flags$[esp+4]
	or	ebx, -1
	and	esi, 15					; 0000000fH
	push	edi
; Line 298
	mov	edi, DWORD PTR _x$[esp+8]
	cmp	esi, 1
	je	SHORT $LN3@X509V3_add
; Line 299
	push	ebx
	push	DWORD PTR _nid$[esp+12]
	push	DWORD PTR [edi]
	call	_X509v3_get_ext_by_NID
	mov	ebx, eax
	add	esp, 12					; 0000000cH
; Line 302
	test	ebx, ebx
	js	SHORT $LN3@X509V3_add
; Line 304
	cmp	esi, 4
	jne	SHORT $LN5@X509V3_add
; Line 305
	pop	edi
	lea	eax, DWORD PTR [esi-3]
	pop	esi
	pop	ebx
; Line 361
	ret	0
$LN5@X509V3_add:
; Line 307
	test	esi, esi
	jne	SHORT $LN6@X509V3_add
; Line 308
	mov	eax, 145				; 00000091H
; Line 309
	jmp	$err$20
$LN6@X509V3_add:
; Line 312
	cmp	esi, 5
	jne	SHORT $LN9@X509V3_add
; Line 313
	push	ebx
	push	DWORD PTR [edi]
	call	_sk_delete
	add	esp, 8
	neg	eax
	sbb	eax, eax
	and	eax, 2
	pop	edi
	pop	esi
	dec	eax
	pop	ebx
; Line 361
	ret	0
$LN3@X509V3_add:
; Line 321
	cmp	esi, 3
	je	$LN10@X509V3_add
	cmp	esi, 5
	je	$LN10@X509V3_add
$LN9@X509V3_add:
; Line 333
	push	DWORD PTR _value$[esp+8]
	push	DWORD PTR _crit$[esp+12]
	push	DWORD PTR _nid$[esp+16]
	call	_X509V3_EXT_i2d
	mov	esi, eax
	add	esp, 12					; 0000000cH
; Line 335
	test	esi, esi
	jne	SHORT $LN11@X509V3_add
; Line 336
	push	337					; 00000151H
	push	OFFSET ??_C@_0BJ@EPBCLIJB@?4?2crypto?2x509v3?2v3_lib?4c?$AA@
	push	144					; 00000090H
; Line 338
	jmp	SHORT $LN18@X509V3_add
$LN11@X509V3_add:
; Line 342
	test	ebx, ebx
	js	SHORT $LN12@X509V3_add
; Line 343
	push	ebx
	push	DWORD PTR [edi]
	call	_sk_value
; Line 344
	push	eax
	call	_X509_EXTENSION_free
; Line 345
	push	esi
	push	ebx
	push	DWORD PTR [edi]
	call	_sk_set
	add	esp, 24					; 00000018H
	neg	eax
	sbb	eax, eax
	and	eax, 2
	pop	edi
	pop	esi
	dec	eax
	pop	ebx
; Line 361
	ret	0
$LN12@X509V3_add:
; Line 350
	cmp	DWORD PTR [edi], 0
	jne	SHORT $LN14@X509V3_add
	call	_sk_new_null
	mov	DWORD PTR [edi], eax
	test	eax, eax
	jne	SHORT $LN14@X509V3_add
; Line 351
	pop	edi
	pop	esi
	or	eax, -1
	pop	ebx
; Line 361
	ret	0
$LN14@X509V3_add:
; Line 352
	push	esi
	push	DWORD PTR [edi]
	call	_sk_push
	add	esp, 8
	neg	eax
	sbb	eax, eax
	and	eax, 2
	pop	edi
	pop	esi
	dec	eax
	pop	ebx
; Line 361
	ret	0
$LN10@X509V3_add:
; Line 323
	mov	eax, 102				; 00000066H
$err$20:
; Line 358
	test	BYTE PTR _flags$[esp+8], 16		; 00000010H
	jne	SHORT $LN16@X509V3_add
; Line 359
	push	359					; 00000167H
	push	OFFSET ??_C@_0BJ@EPBCLIJB@?4?2crypto?2x509v3?2v3_lib?4c?$AA@
	push	eax
$LN18@X509V3_add:
	push	140					; 0000008cH
	push	34					; 00000022H
	call	_ERR_put_error
	add	esp, 20					; 00000014H
$LN16@X509V3_add:
; Line 360
	pop	edi
	pop	esi
	xor	eax, eax
	pop	ebx
; Line 361
	ret	0
_X509V3_add1_i2d ENDP
_TEXT	ENDS
; Function compile flags: /Ogtpy
;	COMDAT _X509V3_EXT_free
_TEXT	SEGMENT
_nid$ = 8						; size = 4
_ext_data$ = 12						; size = 4
_X509V3_EXT_free PROC					; COMDAT
; File c:\workpace\openssl\openssl-1.0.2h\crypto\x509v3\v3_lib.c
; Line 127
	push	DWORD PTR _nid$[esp-4]
	call	_X509V3_EXT_get_nid
	add	esp, 4
; Line 128
	test	eax, eax
	jne	SHORT $LN2@X509V3_EXT
; Line 129
	push	130					; 00000082H
; Line 131
	jmp	SHORT $LN8@X509V3_EXT
$LN2@X509V3_EXT:
; Line 134
	mov	ecx, DWORD PTR [eax+8]
	test	ecx, ecx
	je	SHORT $LN3@X509V3_EXT
; Line 135
	call	ecx
	push	eax
	push	DWORD PTR _ext_data$[esp]
	call	_ASN1_item_free
	add	esp, 8
; Line 144
	mov	eax, 1
; Line 145
	ret	0
$LN3@X509V3_EXT:
; Line 136
	mov	eax, DWORD PTR [eax+16]
	test	eax, eax
	je	SHORT $LN5@X509V3_EXT
; Line 137
	push	DWORD PTR _ext_data$[esp-4]
	call	eax
	add	esp, 4
; Line 144
	mov	eax, 1
; Line 145
	ret	0
$LN5@X509V3_EXT:
; Line 139
	push	140					; 0000008cH
$LN8@X509V3_EXT:
	push	OFFSET ??_C@_0BJ@EPBCLIJB@?4?2crypto?2x509v3?2v3_lib?4c?$AA@
	push	168					; 000000a8H
	push	165					; 000000a5H
	push	34					; 00000022H
	call	_ERR_put_error
	add	esp, 20					; 00000014H
; Line 141
	xor	eax, eax
; Line 145
	ret	0
_X509V3_EXT_free ENDP
_TEXT	ENDS
; Function compile flags: /Ogtpy
;	COMDAT _X509V3_get_d2i
_TEXT	SEGMENT
_p$1 = 8						; size = 4
_x$ = 8							; size = 4
_nid$ = 12						; size = 4
_crit$ = 16						; size = 4
_idx$ = 20						; size = 4
_X509V3_get_d2i PROC					; COMDAT
; File c:\workpace\openssl\openssl-1.0.2h\crypto\x509v3\v3_lib.c
; Line 233
	push	ebp
; Line 236
	mov	ebp, DWORD PTR _x$[esp]
	push	edi
	xor	edi, edi
	test	ebp, ebp
	jne	SHORT $LN5@X509V3_get
; Line 237
	mov	eax, DWORD PTR _idx$[esp+4]
	test	eax, eax
	je	SHORT $LN6@X509V3_get
; Line 238
	mov	DWORD PTR [eax], -1
$LN6@X509V3_get:
; Line 239
	mov	eax, DWORD PTR _crit$[esp+4]
	test	eax, eax
	je	SHORT $LN7@X509V3_get
; Line 240
	mov	DWORD PTR [eax], -1
$LN7@X509V3_get:
	pop	edi
; Line 241
	xor	eax, eax
	pop	ebp
; Line 278
	ret	0
$LN5@X509V3_get:
	push	ebx
; Line 243
	mov	ebx, DWORD PTR _idx$[esp+8]
	push	esi
	test	ebx, ebx
	je	SHORT $LN8@X509V3_get
; Line 244
	mov	esi, DWORD PTR [ebx]
; Line 247
	mov	eax, edi
	add	esi, 1
	cmovs	esi, eax
	jmp	SHORT $LN10@X509V3_get
$LN8@X509V3_get:
; Line 246
	xor	esi, esi
$LN10@X509V3_get:
; Line 249
	push	ebp
	call	_sk_num
	add	esp, 4
	cmp	esi, eax
	jge	$LN16@X509V3_get
$LL4@X509V3_get:
; Line 250
	push	esi
	push	ebp
	call	_sk_value
	mov	ebp, eax
; Line 251
	push	DWORD PTR [ebp]
	call	_OBJ_obj2nid
	add	esp, 12					; 0000000cH
	cmp	eax, DWORD PTR _nid$[esp+12]
	jne	SHORT $LN2@X509V3_get
; Line 252
	test	ebx, ebx
	jne	SHORT $LN29@X509V3_get
; Line 256
	test	edi, edi
	jne	SHORT $LN30@X509V3_get
; Line 262
	mov	edi, ebp
$LN2@X509V3_get:
; Line 249
	mov	ebp, DWORD PTR _x$[esp+12]
	inc	esi
	push	ebp
	call	_sk_num
	add	esp, 4
	cmp	esi, eax
	jl	SHORT $LL4@X509V3_get
	jmp	SHORT $LN35@X509V3_get
$LN30@X509V3_get:
; Line 258
	mov	eax, DWORD PTR _crit$[esp+12]
	test	eax, eax
	je	$LN19@X509V3_get
; Line 259
	pop	esi
	pop	ebx
	pop	edi
	mov	DWORD PTR [eax], -2			; fffffffeH
; Line 277
	xor	eax, eax
	pop	ebp
; Line 278
	ret	0
$LN29@X509V3_get:
; Line 253
	mov	DWORD PTR [ebx], esi
; Line 254
	mov	edi, ebp
$LN35@X509V3_get:
; Line 265
	test	edi, edi
	je	SHORT $LN16@X509V3_get
; Line 267
	mov	esi, DWORD PTR _crit$[esp+12]
	test	esi, esi
	je	SHORT $LN17@X509V3_get
; Line 268
	push	edi
	call	_X509_EXTENSION_get_critical
	add	esp, 4
	mov	DWORD PTR [esi], eax
$LN17@X509V3_get:
; Line 120
	push	DWORD PTR [edi]
	call	_OBJ_obj2nid
	add	esp, 4
	test	eax, eax
	je	SHORT $LN19@X509V3_get
; Line 122
	push	eax
	call	_X509V3_EXT_get_nid
	add	esp, 4
; Line 206
	test	eax, eax
	je	SHORT $LN19@X509V3_get
; Line 208
	mov	edx, DWORD PTR [edi+8]
	mov	ecx, DWORD PTR [edx+8]
	mov	DWORD PTR _p$1[esp+12], ecx
; Line 209
	mov	ecx, DWORD PTR [eax+8]
	test	ecx, ecx
	je	SHORT $LN23@X509V3_get
; Line 210
	call	ecx
	push	eax
	mov	eax, DWORD PTR [edi+8]
	push	DWORD PTR [eax]
	lea	eax, DWORD PTR _p$1[esp+20]
	push	eax
	push	0
	call	_ASN1_item_d2i
	add	esp, 16					; 00000010H
	pop	esi
	pop	ebx
	pop	edi
	pop	ebp
; Line 278
	ret	0
$LN23@X509V3_get:
; Line 212
	push	DWORD PTR [edx]
	mov	eax, DWORD PTR [eax+20]
	lea	ecx, DWORD PTR _p$1[esp+16]
	push	ecx
	push	0
	call	eax
	add	esp, 12					; 0000000cH
	pop	esi
	pop	ebx
	pop	edi
	pop	ebp
; Line 278
	ret	0
$LN16@X509V3_get:
; Line 273
	test	ebx, ebx
	je	SHORT $LN18@X509V3_get
; Line 274
	mov	DWORD PTR [ebx], -1
$LN18@X509V3_get:
; Line 275
	mov	eax, DWORD PTR _crit$[esp+12]
	test	eax, eax
	je	SHORT $LN19@X509V3_get
; Line 276
	mov	DWORD PTR [eax], -1
$LN19@X509V3_get:
	pop	esi
	pop	ebx
	pop	edi
; Line 277
	xor	eax, eax
	pop	ebp
; Line 278
	ret	0
_X509V3_get_d2i ENDP
_TEXT	ENDS
; Function compile flags: /Ogtpy
;	COMDAT _X509V3_EXT_d2i
_TEXT	SEGMENT
_p$ = 8							; size = 4
_ext$ = 8						; size = 4
_X509V3_EXT_d2i PROC					; COMDAT
; File c:\workpace\openssl\openssl-1.0.2h\crypto\x509v3\v3_lib.c
; Line 202
	push	esi
; Line 120
	mov	esi, DWORD PTR _ext$[esp]
	push	DWORD PTR [esi]
	call	_OBJ_obj2nid
	add	esp, 4
	test	eax, eax
	je	SHORT $LN8@X509V3_EXT
; Line 122
	push	eax
	call	_X509V3_EXT_get_nid
	add	esp, 4
; Line 206
	test	eax, eax
	je	SHORT $LN8@X509V3_EXT
; Line 208
	mov	edx, DWORD PTR [esi+8]
	mov	ecx, DWORD PTR [edx+8]
	mov	DWORD PTR _p$[esp], ecx
; Line 209
	mov	ecx, DWORD PTR [eax+8]
	test	ecx, ecx
	je	SHORT $LN3@X509V3_EXT
; Line 210
	call	ecx
	push	eax
	mov	eax, DWORD PTR [esi+8]
	push	DWORD PTR [eax]
	lea	eax, DWORD PTR _p$[esp+8]
	push	eax
	push	0
	call	_ASN1_item_d2i
	add	esp, 16					; 00000010H
	pop	esi
; Line 213
	ret	0
$LN3@X509V3_EXT:
; Line 212
	push	DWORD PTR [edx]
	mov	eax, DWORD PTR [eax+20]
	lea	ecx, DWORD PTR _p$[esp+4]
	push	ecx
	push	0
	call	eax
	add	esp, 12					; 0000000cH
	pop	esi
; Line 213
	ret	0
$LN8@X509V3_EXT:
; Line 207
	xor	eax, eax
	pop	esi
; Line 213
	ret	0
_X509V3_EXT_d2i ENDP
_TEXT	ENDS
; Function compile flags: /Ogtpy
;	COMDAT _X509V3_add_standard_extensions
_TEXT	SEGMENT
_X509V3_add_standard_extensions PROC			; COMDAT
; File c:\workpace\openssl\openssl-1.0.2h\crypto\x509v3\v3_lib.c
; Line 196
	mov	eax, 1
; Line 197
	ret	0
_X509V3_add_standard_extensions ENDP
_TEXT	ENDS
; Function compile flags: /Ogtpy
;	COMDAT _X509V3_EXT_get_nid
_TEXT	SEGMENT
_t$ = -60						; size = 4
_tmp$ = -56						; size = 56
_nid$ = 8						; size = 4
_X509V3_EXT_get_nid PROC				; COMDAT
; File c:\workpace\openssl\openssl-1.0.2h\crypto\x509v3\v3_lib.c
; Line 99
	mov	eax, 60					; 0000003cH
	call	__chkstk
; Line 101
	lea	eax, DWORD PTR _tmp$[esp+60]
	mov	DWORD PTR _t$[esp+60], eax
; Line 103
	mov	eax, DWORD PTR _nid$[esp+56]
	test	eax, eax
	jns	SHORT $LN2@X509V3_EXT
$LN9@X509V3_EXT:
; Line 104
	xor	eax, eax
; Line 115
	add	esp, 60					; 0000003cH
	ret	0
$LN2@X509V3_EXT:
; Line 95
	push	OFFSET _ext_cmp_BSEARCH_CMP_FN
	push	4
	push	42					; 0000002aH
; Line 105
	mov	DWORD PTR _tmp$[esp+72], eax
; Line 95
	lea	eax, DWORD PTR _t$[esp+72]
	push	OFFSET _standard_exts
	push	eax
	call	_OBJ_bsearch_
	add	esp, 20					; 00000014H
; Line 107
	test	eax, eax
	je	SHORT $LN3@X509V3_EXT
; Line 108
	mov	eax, DWORD PTR [eax]
; Line 115
	add	esp, 60					; 0000003cH
	ret	0
$LN3@X509V3_EXT:
; Line 109
	mov	eax, DWORD PTR _ext_list
	test	eax, eax
	je	SHORT $LN9@X509V3_EXT
; Line 111
	lea	ecx, DWORD PTR _tmp$[esp+60]
	push	ecx
	push	eax
	call	_sk_find
	add	esp, 8
; Line 112
	cmp	eax, -1
	je	SHORT $LN9@X509V3_EXT
; Line 114
	push	eax
	push	DWORD PTR _ext_list
	call	_sk_value
	add	esp, 8
; Line 115
	add	esp, 60					; 0000003cH
	ret	0
_X509V3_EXT_get_nid ENDP
_TEXT	ENDS
; Function compile flags: /Ogtpy
;	COMDAT _X509V3_EXT_get
_TEXT	SEGMENT
_ext$ = 8						; size = 4
_X509V3_EXT_get PROC					; COMDAT
; File c:\workpace\openssl\openssl-1.0.2h\crypto\x509v3\v3_lib.c
; Line 120
	mov	eax, DWORD PTR _ext$[esp-4]
	push	DWORD PTR [eax]
	call	_OBJ_obj2nid
	add	esp, 4
	test	eax, eax
	jne	SHORT $LN2@X509V3_EXT
; Line 123
	ret	0
$LN2@X509V3_EXT:
; Line 122
	mov	DWORD PTR _ext$[esp-4], eax
	jmp	_X509V3_EXT_get_nid
_X509V3_EXT_get ENDP
_TEXT	ENDS
; Function compile flags: /Ogtpy
;	COMDAT _X509V3_EXT_cleanup
_TEXT	SEGMENT
_X509V3_EXT_cleanup PROC				; COMDAT
; File c:\workpace\openssl\openssl-1.0.2h\crypto\x509v3\v3_lib.c
; Line 179
	push	OFFSET _ext_list_free
	push	DWORD PTR _ext_list
	call	_sk_pop_free
	add	esp, 8
; Line 180
	mov	DWORD PTR _ext_list, 0
; Line 181
	ret	0
_X509V3_EXT_cleanup ENDP
_TEXT	ENDS
; Function compile flags: /Ogtpy
;	COMDAT _X509V3_EXT_add_alias
_TEXT	SEGMENT
_nid_to$ = 8						; size = 4
_nid_from$ = 12						; size = 4
_X509V3_EXT_add_alias PROC				; COMDAT
; File c:\workpace\openssl\openssl-1.0.2h\crypto\x509v3\v3_lib.c
; Line 156
	push	esi
; Line 160
	push	DWORD PTR _nid_from$[esp]
	call	_X509V3_EXT_get_nid
	mov	esi, eax
	add	esp, 4
	test	esi, esi
	jne	SHORT $LN2@X509V3_EXT
; Line 161
	push	162					; 000000a2H
	push	OFFSET ??_C@_0BJ@EPBCLIJB@?4?2crypto?2x509v3?2v3_lib?4c?$AA@
	push	102					; 00000066H
	push	106					; 0000006aH
	push	34					; 00000022H
	call	_ERR_put_error
	add	esp, 20					; 00000014H
; Line 163
	xor	eax, eax
	pop	esi
; Line 175
	ret	0
$LN2@X509V3_EXT:
; Line 165
	push	167					; 000000a7H
	push	OFFSET ??_C@_0BJ@EPBCLIJB@?4?2crypto?2x509v3?2v3_lib?4c?$AA@
	push	56					; 00000038H
	call	_CRYPTO_malloc
	mov	ecx, eax
	add	esp, 12					; 0000000cH
	test	ecx, ecx
	jne	SHORT $LN3@X509V3_EXT
; Line 168
	push	168					; 000000a8H
	push	OFFSET ??_C@_0BJ@EPBCLIJB@?4?2crypto?2x509v3?2v3_lib?4c?$AA@
	push	65					; 00000041H
	push	106					; 0000006aH
	push	34					; 00000022H
	call	_ERR_put_error
	add	esp, 20					; 00000014H
; Line 169
	xor	eax, eax
	pop	esi
; Line 175
	ret	0
$LN3@X509V3_EXT:
; Line 171
	movups	xmm0, XMMWORD PTR [esi]
; Line 172
	mov	eax, DWORD PTR _nid_to$[esp]
; Line 174
	push	ecx
	movups	XMMWORD PTR [ecx], xmm0
	movups	xmm0, XMMWORD PTR [esi+16]
	movups	XMMWORD PTR [ecx+16], xmm0
	movups	xmm0, XMMWORD PTR [esi+32]
	movups	XMMWORD PTR [ecx+32], xmm0
	movq	xmm0, QWORD PTR [esi+48]
	movq	QWORD PTR [ecx+48], xmm0
	or	DWORD PTR [ecx+4], 1
	mov	DWORD PTR [ecx], eax
	call	_X509V3_EXT_add
	add	esp, 4
	pop	esi
; Line 175
	ret	0
_X509V3_EXT_add_alias ENDP
_TEXT	ENDS
; Function compile flags: /Ogtpy
;	COMDAT _X509V3_EXT_add_list
_TEXT	SEGMENT
_extlist$ = 8						; size = 4
_X509V3_EXT_add_list PROC				; COMDAT
; File c:\workpace\openssl\openssl-1.0.2h\crypto\x509v3\v3_lib.c
; Line 148
	push	esi
; Line 149
	mov	esi, DWORD PTR _extlist$[esp]
	cmp	DWORD PTR [esi], -1
	je	SHORT $LN3@X509V3_EXT
	npad	6
$LL4@X509V3_EXT:
; Line 76
	mov	eax, DWORD PTR _ext_list
	test	eax, eax
	jne	SHORT $LN8@X509V3_EXT
	push	OFFSET _ext_cmp
	call	_sk_new
	add	esp, 4
	mov	DWORD PTR _ext_list, eax
	test	eax, eax
	je	SHORT $LN17@X509V3_EXT
$LN8@X509V3_EXT:
; Line 80
	push	esi
	push	eax
	call	_sk_push
	add	esp, 8
	test	eax, eax
	je	SHORT $LN19@X509V3_EXT
; Line 149
	add	esi, 56					; 00000038H
	cmp	DWORD PTR [esi], -1
	jne	SHORT $LL4@X509V3_EXT
$LN3@X509V3_EXT:
; Line 152
	mov	eax, 1
	pop	esi
; Line 153
	ret	0
$LN17@X509V3_EXT:
; Line 77
	push	77					; 0000004dH
; Line 78
	jmp	SHORT $LN20@X509V3_EXT
$LN19@X509V3_EXT:
; Line 81
	push	81					; 00000051H
$LN20@X509V3_EXT:
	push	OFFSET ??_C@_0BJ@EPBCLIJB@?4?2crypto?2x509v3?2v3_lib?4c?$AA@
	push	65					; 00000041H
	push	104					; 00000068H
	push	34					; 00000022H
	call	_ERR_put_error
	add	esp, 20					; 00000014H
; Line 151
	xor	eax, eax
	pop	esi
; Line 153
	ret	0
_X509V3_EXT_add_list ENDP
_TEXT	ENDS
; Function compile flags: /Ogtpy
;	COMDAT _X509V3_EXT_add
_TEXT	SEGMENT
_ext$ = 8						; size = 4
_X509V3_EXT_add PROC					; COMDAT
; File c:\workpace\openssl\openssl-1.0.2h\crypto\x509v3\v3_lib.c
; Line 76
	mov	eax, DWORD PTR _ext_list
	test	eax, eax
	jne	SHORT $LN2@X509V3_EXT
	push	OFFSET _ext_cmp
	call	_sk_new
	add	esp, 4
	mov	DWORD PTR _ext_list, eax
	test	eax, eax
	jne	SHORT $LN2@X509V3_EXT
; Line 77
	push	77					; 0000004dH
$LN5@X509V3_EXT:
	push	OFFSET ??_C@_0BJ@EPBCLIJB@?4?2crypto?2x509v3?2v3_lib?4c?$AA@
	push	65					; 00000041H
	push	104					; 00000068H
	push	34					; 00000022H
	call	_ERR_put_error
	add	esp, 20					; 00000014H
; Line 78
	xor	eax, eax
; Line 85
	ret	0
$LN2@X509V3_EXT:
; Line 80
	push	DWORD PTR _ext$[esp-4]
	push	eax
	call	_sk_push
	add	esp, 8
	test	eax, eax
	jne	SHORT $LN3@X509V3_EXT
; Line 81
	push	81					; 00000051H
; Line 82
	jmp	SHORT $LN5@X509V3_EXT
$LN3@X509V3_EXT:
; Line 84
	mov	eax, 1
; Line 85
	ret	0
_X509V3_EXT_add ENDP
_TEXT	ENDS
END
