; Listing generated by Microsoft (R) Optimizing Compiler Version 19.00.23918.0 

	TITLE	C:\workpace\openssl\openssl-1.0.2h\crypto\x509v3\v3_purp.c
	.686P
	.XMM
	include listing.inc
	.model	flat

INCLUDELIB MSVCRT
INCLUDELIB OLDNAMES

PUBLIC	??_C@_0L@LCHPILLE@SSL?5client?$AA@		; `string'
PUBLIC	??_C@_09BLMJDCHK@sslclient?$AA@			; `string'
PUBLIC	??_C@_0L@PNDNFADH@SSL?5server?$AA@		; `string'
PUBLIC	??_C@_09FEILOJPJ@sslserver?$AA@			; `string'
PUBLIC	??_C@_0BE@BPEJPGJG@Netscape?5SSL?5server?$AA@	; `string'
PUBLIC	??_C@_0M@GKHHMMAE@nssslserver?$AA@		; `string'
PUBLIC	??_C@_0P@LNDEBCCO@S?1MIME?5signing?$AA@		; `string'
PUBLIC	??_C@_09JPGBHOKH@smimesign?$AA@			; `string'
PUBLIC	??_C@_0BC@DOGNOPGC@S?1MIME?5encryption?$AA@	; `string'
PUBLIC	??_C@_0N@BPFJELMP@smimeencrypt?$AA@		; `string'
PUBLIC	??_C@_0M@MEKLJHLA@CRL?5signing?$AA@		; `string'
PUBLIC	??_C@_07IOMCDAPH@crlsign?$AA@			; `string'
PUBLIC	??_C@_0M@NMNFLNDB@Any?5Purpose?$AA@		; `string'
PUBLIC	??_C@_03OBJFJEBA@any?$AA@			; `string'
PUBLIC	??_C@_0M@NEPIMEJA@OCSP?5helper?$AA@		; `string'
PUBLIC	??_C@_0L@IMHCEJBK@ocsphelper?$AA@		; `string'
PUBLIC	??_C@_0BD@HLGKGIIB@Time?5Stamp?5signing?$AA@	; `string'
PUBLIC	??_C@_0O@MABGKINF@timestampsign?$AA@		; `string'
_BSS	SEGMENT
_xptable DD	01H DUP (?)
_BSS	ENDS
CONST	SEGMENT
?supported_nids@?1??X509_supported_extension@@9@9 DD 047H ; `X509_supported_extension'::`2'::supported_nids
	DD	053H
	DD	055H
	DD	057H
	DD	059H
	DD	07eH
	DD	0191H
	DD	0297H
	DD	029aH
	DD	02ebH
	DD	02ecH
CONST	ENDS
;	COMDAT ??_C@_0O@MABGKINF@timestampsign?$AA@
CONST	SEGMENT
??_C@_0O@MABGKINF@timestampsign?$AA@ DB 'timestampsign', 00H ; `string'
CONST	ENDS
;	COMDAT ??_C@_0BD@HLGKGIIB@Time?5Stamp?5signing?$AA@
CONST	SEGMENT
??_C@_0BD@HLGKGIIB@Time?5Stamp?5signing?$AA@ DB 'Time Stamp signing', 00H ; `string'
CONST	ENDS
;	COMDAT ??_C@_0L@IMHCEJBK@ocsphelper?$AA@
CONST	SEGMENT
??_C@_0L@IMHCEJBK@ocsphelper?$AA@ DB 'ocsphelper', 00H	; `string'
CONST	ENDS
;	COMDAT ??_C@_0M@NEPIMEJA@OCSP?5helper?$AA@
CONST	SEGMENT
??_C@_0M@NEPIMEJA@OCSP?5helper?$AA@ DB 'OCSP helper', 00H ; `string'
CONST	ENDS
;	COMDAT ??_C@_03OBJFJEBA@any?$AA@
CONST	SEGMENT
??_C@_03OBJFJEBA@any?$AA@ DB 'any', 00H			; `string'
CONST	ENDS
;	COMDAT ??_C@_0M@NMNFLNDB@Any?5Purpose?$AA@
CONST	SEGMENT
??_C@_0M@NMNFLNDB@Any?5Purpose?$AA@ DB 'Any Purpose', 00H ; `string'
CONST	ENDS
;	COMDAT ??_C@_07IOMCDAPH@crlsign?$AA@
CONST	SEGMENT
??_C@_07IOMCDAPH@crlsign?$AA@ DB 'crlsign', 00H		; `string'
CONST	ENDS
;	COMDAT ??_C@_0M@MEKLJHLA@CRL?5signing?$AA@
CONST	SEGMENT
??_C@_0M@MEKLJHLA@CRL?5signing?$AA@ DB 'CRL signing', 00H ; `string'
CONST	ENDS
;	COMDAT ??_C@_0N@BPFJELMP@smimeencrypt?$AA@
CONST	SEGMENT
??_C@_0N@BPFJELMP@smimeencrypt?$AA@ DB 'smimeencrypt', 00H ; `string'
CONST	ENDS
;	COMDAT ??_C@_0BC@DOGNOPGC@S?1MIME?5encryption?$AA@
CONST	SEGMENT
??_C@_0BC@DOGNOPGC@S?1MIME?5encryption?$AA@ DB 'S/MIME encryption', 00H ; `string'
CONST	ENDS
;	COMDAT ??_C@_09JPGBHOKH@smimesign?$AA@
CONST	SEGMENT
??_C@_09JPGBHOKH@smimesign?$AA@ DB 'smimesign', 00H	; `string'
CONST	ENDS
;	COMDAT ??_C@_0P@LNDEBCCO@S?1MIME?5signing?$AA@
CONST	SEGMENT
??_C@_0P@LNDEBCCO@S?1MIME?5signing?$AA@ DB 'S/MIME signing', 00H ; `string'
CONST	ENDS
;	COMDAT ??_C@_0M@GKHHMMAE@nssslserver?$AA@
CONST	SEGMENT
??_C@_0M@GKHHMMAE@nssslserver?$AA@ DB 'nssslserver', 00H ; `string'
CONST	ENDS
;	COMDAT ??_C@_0BE@BPEJPGJG@Netscape?5SSL?5server?$AA@
CONST	SEGMENT
??_C@_0BE@BPEJPGJG@Netscape?5SSL?5server?$AA@ DB 'Netscape SSL server', 00H ; `string'
CONST	ENDS
;	COMDAT ??_C@_09FEILOJPJ@sslserver?$AA@
CONST	SEGMENT
??_C@_09FEILOJPJ@sslserver?$AA@ DB 'sslserver', 00H	; `string'
CONST	ENDS
;	COMDAT ??_C@_0L@PNDNFADH@SSL?5server?$AA@
CONST	SEGMENT
??_C@_0L@PNDNFADH@SSL?5server?$AA@ DB 'SSL server', 00H	; `string'
CONST	ENDS
;	COMDAT ??_C@_09BLMJDCHK@sslclient?$AA@
CONST	SEGMENT
??_C@_09BLMJDCHK@sslclient?$AA@ DB 'sslclient', 00H	; `string'
CONST	ENDS
;	COMDAT ??_C@_0L@LCHPILLE@SSL?5client?$AA@
CONST	SEGMENT
??_C@_0L@LCHPILLE@SSL?5client?$AA@ DB 'SSL client', 00H	; `string'
CONST	ENDS
_DATA	SEGMENT
_xstandard DD	01H
	DD	02H
	DD	00H
	DD	FLAT:_check_purpose_ssl_client
	DD	FLAT:??_C@_0L@LCHPILLE@SSL?5client?$AA@
	DD	FLAT:??_C@_09BLMJDCHK@sslclient?$AA@
	DD	00H
	DD	02H
	DD	03H
	DD	00H
	DD	FLAT:_check_purpose_ssl_server
	DD	FLAT:??_C@_0L@PNDNFADH@SSL?5server?$AA@
	DD	FLAT:??_C@_09FEILOJPJ@sslserver?$AA@
	DD	00H
	DD	03H
	DD	03H
	DD	00H
	DD	FLAT:_check_purpose_ns_ssl_server
	DD	FLAT:??_C@_0BE@BPEJPGJG@Netscape?5SSL?5server?$AA@
	DD	FLAT:??_C@_0M@GKHHMMAE@nssslserver?$AA@
	DD	00H
	DD	04H
	DD	04H
	DD	00H
	DD	FLAT:_check_purpose_smime_sign
	DD	FLAT:??_C@_0P@LNDEBCCO@S?1MIME?5signing?$AA@
	DD	FLAT:??_C@_09JPGBHOKH@smimesign?$AA@
	DD	00H
	DD	05H
	DD	04H
	DD	00H
	DD	FLAT:_check_purpose_smime_encrypt
	DD	FLAT:??_C@_0BC@DOGNOPGC@S?1MIME?5encryption?$AA@
	DD	FLAT:??_C@_0N@BPFJELMP@smimeencrypt?$AA@
	DD	00H
	DD	06H
	DD	01H
	DD	00H
	DD	FLAT:_check_purpose_crl_sign
	DD	FLAT:??_C@_0M@MEKLJHLA@CRL?5signing?$AA@
	DD	FLAT:??_C@_07IOMCDAPH@crlsign?$AA@
	DD	00H
	DD	07H
	DD	0ffffffffH
	DD	00H
	DD	FLAT:_no_check
	DD	FLAT:??_C@_0M@NMNFLNDB@Any?5Purpose?$AA@
	DD	FLAT:??_C@_03OBJFJEBA@any?$AA@
	DD	00H
	DD	08H
	DD	01H
	DD	00H
	DD	FLAT:_ocsp_helper
	DD	FLAT:??_C@_0M@NEPIMEJA@OCSP?5helper?$AA@
	DD	FLAT:??_C@_0L@IMHCEJBK@ocsphelper?$AA@
	DD	00H
	DD	09H
	DD	08H
	DD	00H
	DD	FLAT:_check_purpose_timestamp_sign
	DD	FLAT:??_C@_0BD@HLGKGIIB@Time?5Stamp?5signing?$AA@
	DD	FLAT:??_C@_0O@MABGKINF@timestampsign?$AA@
	DD	00H
_DATA	ENDS
PUBLIC	_X509_check_ca
PUBLIC	_X509_check_purpose
PUBLIC	_X509_supported_extension
PUBLIC	_X509_PURPOSE_set
PUBLIC	_X509_check_issued
PUBLIC	_X509_check_akid
PUBLIC	_X509_PURPOSE_get_count
PUBLIC	_X509_PURPOSE_get0
PUBLIC	_X509_PURPOSE_get_by_sname
PUBLIC	_X509_PURPOSE_get_by_id
PUBLIC	_X509_PURPOSE_add
PUBLIC	_X509_PURPOSE_get0_name
PUBLIC	_X509_PURPOSE_get0_sname
PUBLIC	_X509_PURPOSE_get_trust
PUBLIC	_X509_PURPOSE_cleanup
PUBLIC	_X509_PURPOSE_get_id
PUBLIC	??_C@_0BK@COINEMNE@?4?2crypto?2x509v3?2v3_purp?4c?$AA@ ; `string'
EXTRN	_sk_num:PROC
EXTRN	_sk_value:PROC
EXTRN	_sk_new:PROC
EXTRN	_sk_pop_free:PROC
EXTRN	_sk_find:PROC
EXTRN	_sk_push:PROC
EXTRN	_CRYPTO_lock:PROC
EXTRN	_CRYPTO_malloc:PROC
EXTRN	_CRYPTO_free:PROC
EXTRN	_BUF_strdup:PROC
EXTRN	_ERR_put_error:PROC
EXTRN	_ASN1_OBJECT_free:PROC
EXTRN	_ASN1_BIT_STRING_free:PROC
EXTRN	_ASN1_INTEGER_cmp:PROC
EXTRN	_ASN1_OCTET_STRING_cmp:PROC
EXTRN	_ASN1_INTEGER_get:PROC
EXTRN	_OBJ_obj2nid:PROC
EXTRN	_OBJ_bsearch_:PROC
EXTRN	_EVP_sha1:PROC
EXTRN	_X509_digest:PROC
EXTRN	_X509_get_serialNumber:PROC
EXTRN	_X509_get_issuer_name:PROC
EXTRN	_X509_get_subject_name:PROC
EXTRN	_X509_NAME_cmp:PROC
EXTRN	_X509_get_ext_count:PROC
EXTRN	_X509_get_ext_by_NID:PROC
EXTRN	_X509_get_ext:PROC
EXTRN	_X509_get_ext_d2i:PROC
EXTRN	_X509_EXTENSION_get_object:PROC
EXTRN	_X509_EXTENSION_get_critical:PROC
EXTRN	_PROXY_CERT_INFO_EXTENSION_free:PROC
EXTRN	_BASIC_CONSTRAINTS_free:PROC
EXTRN	_DIST_POINT_set_dpname:PROC
EXTRN	__chkstk:PROC
;	COMDAT ??_C@_0BK@COINEMNE@?4?2crypto?2x509v3?2v3_purp?4c?$AA@
CONST	SEGMENT
??_C@_0BK@COINEMNE@?4?2crypto?2x509v3?2v3_purp?4c?$AA@ DB '.\crypto\x509v'
	DB	'3\v3_purp.c', 00H				; `string'
CONST	ENDS
; Function compile flags: /Ogtpy
;	COMDAT _check_ca
_TEXT	SEGMENT
_x$ = 8							; size = 4
_check_ca PROC						; COMDAT
; File c:\workpace\openssl\openssl-1.0.2h\crypto\x509v3\v3_purp.c
; Line 553
	mov	edx, DWORD PTR _x$[esp-4]
	push	esi
	mov	ecx, DWORD PTR [edx+40]
	mov	esi, ecx
	and	esi, 2
	je	SHORT $LN2@check_ca
	test	BYTE PTR [edx+44], 4
	je	SHORT $LN11@check_ca
$LN2@check_ca:
; Line 555
	test	cl, 1
	je	SHORT $LN3@check_ca
; Line 556
	movzx	eax, cl
	shr	eax, 4
	and	eax, 1
	pop	esi
; Line 576
	ret	0
$LN3@check_ca:
; Line 563
	mov	eax, ecx
	and	eax, 8256				; 00002040H
	cmp	eax, 8256				; 00002040H
	jne	SHORT $LN7@check_ca
; Line 564
	mov	eax, 3
	pop	esi
; Line 576
	ret	0
$LN7@check_ca:
; Line 568
	test	esi, esi
	je	SHORT $LN9@check_ca
; Line 569
	mov	eax, 4
	pop	esi
; Line 576
	ret	0
$LN9@check_ca:
; Line 571
	test	cl, 8
	je	SHORT $LN11@check_ca
	test	BYTE PTR [edx+52], 7
	je	SHORT $LN11@check_ca
; Line 572
	mov	eax, 5
	pop	esi
; Line 576
	ret	0
$LN11@check_ca:
; Line 574
	xor	eax, eax
	pop	esi
; Line 576
	ret	0
_check_ca ENDP
_TEXT	ENDS
; Function compile flags: /Ogtpy
;	COMDAT _setup_crldp
_TEXT	SEGMENT
_x$ = 8							; size = 4
_setup_crldp PROC					; COMDAT
; File c:\workpace\openssl\openssl-1.0.2h\crypto\x509v3\v3_purp.c
; Line 376
	push	ebx
	push	ebp
; Line 378
	mov	ebp, DWORD PTR _x$[esp+4]
	push	0
	push	0
	push	103					; 00000067H
	push	ebp
	call	_X509_get_ext_d2i
; Line 379
	push	eax
	mov	DWORD PTR [ebp+68], eax
	xor	ebx, ebx
	call	_sk_num
	add	esp, 20					; 00000014H
	test	eax, eax
	jle	$LN3@setup_crld
	push	esi
	push	edi
	npad	6
$LL4@setup_crld:
; Line 380
	push	ebx
	push	DWORD PTR [ebp+68]
	call	_sk_value
	mov	esi, eax
	add	esp, 8
; Line 351
	mov	ecx, DWORD PTR [esi+4]
	test	ecx, ecx
	je	SHORT $LN10@setup_crld
; Line 352
	cmp	DWORD PTR [ecx], 0
	jle	SHORT $LN12@setup_crld
; Line 353
	mov	eax, DWORD PTR [ecx+8]
	movzx	eax, BYTE PTR [eax]
	mov	DWORD PTR [esi+12], eax
$LN12@setup_crld:
; Line 354
	cmp	DWORD PTR [ecx], 1
	jle	SHORT $LN13@setup_crld
; Line 355
	mov	eax, DWORD PTR [ecx+8]
	movzx	eax, BYTE PTR [eax+1]
	shl	eax, 8
	or	DWORD PTR [esi+12], eax
$LN13@setup_crld:
; Line 356
	and	DWORD PTR [esi+12], 32895		; 0000807fH
; Line 357
	jmp	SHORT $LN11@setup_crld
$LN10@setup_crld:
; Line 358
	mov	DWORD PTR [esi+12], 32895		; 0000807fH
$LN11@setup_crld:
; Line 359
	mov	eax, DWORD PTR [esi]
	test	eax, eax
	je	SHORT $LN2@setup_crld
	cmp	DWORD PTR [eax], 1
	jne	SHORT $LN2@setup_crld
; Line 361
	push	DWORD PTR [esi+8]
	xor	edi, edi
	call	_sk_num
	add	esp, 4
	test	eax, eax
	jle	SHORT $LN28@setup_crld
$LL9@setup_crld:
; Line 362
	push	edi
	push	DWORD PTR [esi+8]
	call	_sk_value
	add	esp, 8
; Line 363
	cmp	DWORD PTR [eax], 4
	je	SHORT $LN21@setup_crld
; Line 361
	push	DWORD PTR [esi+8]
	inc	edi
	call	_sk_num
	add	esp, 4
	cmp	edi, eax
	jl	SHORT $LL9@setup_crld
; Line 363
	jmp	SHORT $LN28@setup_crld
$LN21@setup_crld:
; Line 364
	mov	eax, DWORD PTR [eax+4]
; Line 368
	test	eax, eax
	jne	SHORT $LN17@setup_crld
$LN28@setup_crld:
; Line 369
	push	ebp
	call	_X509_get_issuer_name
	add	esp, 4
$LN17@setup_crld:
; Line 371
	push	eax
	push	DWORD PTR [esi]
	call	_DIST_POINT_set_dpname
	add	esp, 8
$LN2@setup_crld:
; Line 379
	push	DWORD PTR [ebp+68]
	inc	ebx
	call	_sk_num
	add	esp, 4
	cmp	ebx, eax
	jl	$LL4@setup_crld
	pop	edi
	pop	esi
$LN3@setup_crld:
	pop	ebp
	pop	ebx
; Line 381
	ret	0
_setup_crldp ENDP
_TEXT	ENDS
; Function compile flags: /Ogtpy
;	COMDAT _setup_dp
_TEXT	SEGMENT
_x$ = 8							; size = 4
_dp$ = 12						; size = 4
_setup_dp PROC						; COMDAT
; File c:\workpace\openssl\openssl-1.0.2h\crypto\x509v3\v3_purp.c
; Line 348
	push	esi
; Line 351
	mov	esi, DWORD PTR _dp$[esp]
	mov	ecx, DWORD PTR [esi+4]
	test	ecx, ecx
	je	SHORT $LN5@setup_dp
; Line 352
	cmp	DWORD PTR [ecx], 0
	jle	SHORT $LN7@setup_dp
; Line 353
	mov	eax, DWORD PTR [ecx+8]
	movzx	eax, BYTE PTR [eax]
	mov	DWORD PTR [esi+12], eax
$LN7@setup_dp:
; Line 354
	cmp	DWORD PTR [ecx], 1
	jle	SHORT $LN8@setup_dp
; Line 355
	mov	eax, DWORD PTR [ecx+8]
	movzx	eax, BYTE PTR [eax+1]
	shl	eax, 8
	or	DWORD PTR [esi+12], eax
$LN8@setup_dp:
; Line 356
	and	DWORD PTR [esi+12], 32895		; 0000807fH
; Line 357
	jmp	SHORT $LN6@setup_dp
$LN5@setup_dp:
; Line 358
	mov	DWORD PTR [esi+12], 32895		; 0000807fH
$LN6@setup_dp:
; Line 359
	mov	eax, DWORD PTR [esi]
	test	eax, eax
	je	SHORT $LN10@setup_dp
	cmp	DWORD PTR [eax], 1
	jne	SHORT $LN10@setup_dp
; Line 361
	push	edi
	push	DWORD PTR [esi+8]
	xor	edi, edi
	call	_sk_num
	add	esp, 4
	test	eax, eax
	jle	SHORT $LN19@setup_dp
	npad	7
$LL4@setup_dp:
; Line 362
	push	edi
	push	DWORD PTR [esi+8]
	call	_sk_value
	add	esp, 8
; Line 363
	cmp	DWORD PTR [eax], 4
	je	SHORT $LN15@setup_dp
; Line 361
	push	DWORD PTR [esi+8]
	inc	edi
	call	_sk_num
	add	esp, 4
	cmp	edi, eax
	jl	SHORT $LL4@setup_dp
; Line 363
	jmp	SHORT $LN19@setup_dp
$LN15@setup_dp:
; Line 364
	mov	eax, DWORD PTR [eax+4]
; Line 368
	test	eax, eax
	jne	SHORT $LN12@setup_dp
$LN19@setup_dp:
; Line 369
	push	DWORD PTR _x$[esp+4]
	call	_X509_get_issuer_name
	add	esp, 4
$LN12@setup_dp:
; Line 371
	push	eax
	push	DWORD PTR [esi]
	call	_DIST_POINT_set_dpname
	add	esp, 8
	pop	edi
$LN10@setup_dp:
	pop	esi
; Line 373
	ret	0
_setup_dp ENDP
_TEXT	ENDS
; Function compile flags: /Ogtpy
;	COMDAT _OBJ_bsearch_nid
_TEXT	SEGMENT
_key$ = 8						; size = 4
_base$ = 12						; size = 4
_num$ = 16						; size = 4
_OBJ_bsearch_nid PROC					; COMDAT
; File c:\workpace\openssl\openssl-1.0.2h\crypto\x509v3\v3_purp.c
; Line 306
	push	OFFSET _nid_cmp_BSEARCH_CMP_FN
	push	4
	push	DWORD PTR _num$[esp+4]
	push	DWORD PTR _base$[esp+8]
	push	DWORD PTR _key$[esp+12]
	call	_OBJ_bsearch_
	add	esp, 20					; 00000014H
	ret	0
_OBJ_bsearch_nid ENDP
_TEXT	ENDS
; Function compile flags: /Ogtpy
;	COMDAT _nid_cmp_BSEARCH_CMP_FN
_TEXT	SEGMENT
_a_$ = 8						; size = 4
_b_$ = 12						; size = 4
_nid_cmp_BSEARCH_CMP_FN PROC				; COMDAT
; File c:\workpace\openssl\openssl-1.0.2h\crypto\x509v3\v3_purp.c
; Line 302
	mov	eax, DWORD PTR _a_$[esp-4]
	mov	ecx, DWORD PTR _b_$[esp-4]
	mov	eax, DWORD PTR [eax]
	sub	eax, DWORD PTR [ecx]
; Line 306
	ret	0
_nid_cmp_BSEARCH_CMP_FN ENDP
_TEXT	ENDS
; Function compile flags: /Ogtpy
;	COMDAT _nid_cmp
_TEXT	SEGMENT
_a$ = 8							; size = 4
_b$ = 12						; size = 4
_nid_cmp PROC						; COMDAT
; File c:\workpace\openssl\openssl-1.0.2h\crypto\x509v3\v3_purp.c
; Line 302
	mov	eax, DWORD PTR _a$[esp-4]
	mov	ecx, DWORD PTR _b$[esp-4]
	mov	eax, DWORD PTR [eax]
	sub	eax, DWORD PTR [ecx]
; Line 303
	ret	0
_nid_cmp ENDP
_TEXT	ENDS
; Function compile flags: /Ogtpy
;	COMDAT _xptable_free
_TEXT	SEGMENT
_p$ = 8							; size = 4
_xptable_free PROC					; COMDAT
; File c:\workpace\openssl\openssl-1.0.2h\crypto\x509v3\v3_purp.c
; Line 259
	push	esi
; Line 260
	mov	esi, DWORD PTR _p$[esp]
	test	esi, esi
	je	SHORT $LN3@xptable_fr
; Line 262
	mov	eax, DWORD PTR [esi+8]
	test	al, 1
	je	SHORT $LN3@xptable_fr
; Line 263
	test	al, 2
	je	SHORT $LN4@xptable_fr
; Line 264
	push	DWORD PTR [esi+16]
	call	_CRYPTO_free
; Line 265
	push	DWORD PTR [esi+20]
	call	_CRYPTO_free
	add	esp, 8
$LN4@xptable_fr:
; Line 267
	push	esi
	call	_CRYPTO_free
	add	esp, 4
$LN3@xptable_fr:
	pop	esi
; Line 269
	ret	0
_xptable_free ENDP
_TEXT	ENDS
; Function compile flags: /Ogtpy
;	COMDAT _xp_cmp
_TEXT	SEGMENT
_a$ = 8							; size = 4
_b$ = 12						; size = 4
_xp_cmp	PROC						; COMDAT
; File c:\workpace\openssl\openssl-1.0.2h\crypto\x509v3\v3_purp.c
; Line 119
	mov	eax, DWORD PTR _a$[esp-4]
	mov	edx, DWORD PTR [eax]
	mov	eax, DWORD PTR _b$[esp-4]
	mov	ecx, DWORD PTR [eax]
	mov	eax, DWORD PTR [edx]
	sub	eax, DWORD PTR [ecx]
; Line 120
	ret	0
_xp_cmp	ENDP
_TEXT	ENDS
; Function compile flags: /Ogtpy
;	COMDAT _ocsp_helper
_TEXT	SEGMENT
_xp$ = 8						; size = 4
_x$ = 12						; size = 4
_ca$ = 16						; size = 4
_ocsp_helper PROC					; COMDAT
; File c:\workpace\openssl\openssl-1.0.2h\crypto\x509v3\v3_purp.c
; Line 734
	cmp	DWORD PTR _ca$[esp-4], 0
	je	SHORT $LN2@ocsp_helpe
; Line 735
	push	DWORD PTR _x$[esp-4]
	call	_check_ca
	add	esp, 4
; Line 738
	ret	0
$LN2@ocsp_helpe:
; Line 737
	mov	eax, 1
; Line 738
	ret	0
_ocsp_helper ENDP
_TEXT	ENDS
; Function compile flags: /Ogtpy
;	COMDAT _no_check
_TEXT	SEGMENT
_xp$ = 8						; size = 4
_x$ = 12						; size = 4
_ca$ = 16						; size = 4
_no_check PROC						; COMDAT
; File c:\workpace\openssl\openssl-1.0.2h\crypto\x509v3\v3_purp.c
; Line 777
	mov	eax, 1
; Line 778
	ret	0
_no_check ENDP
_TEXT	ENDS
; Function compile flags: /Ogtpy
;	COMDAT _check_purpose_timestamp_sign
_TEXT	SEGMENT
_xp$ = 8						; size = 4
_x$ = 12						; size = 4
_ca$ = 16						; size = 4
_check_purpose_timestamp_sign PROC			; COMDAT
; File c:\workpace\openssl\openssl-1.0.2h\crypto\x509v3\v3_purp.c
; Line 746
	cmp	DWORD PTR _ca$[esp-4], 0
	je	SHORT $LN2@check_purp
; Line 747
	push	DWORD PTR _x$[esp-4]
	call	_check_ca
	add	esp, 4
; Line 773
	ret	0
$LN2@check_purp:
	push	esi
; Line 756
	mov	esi, DWORD PTR _x$[esp]
	mov	eax, DWORD PTR [esi+40]
	test	al, 2
	je	SHORT $LN3@check_purp
	mov	ecx, DWORD PTR [esi+44]
	test	ecx, -193				; ffffff3fH
	jne	SHORT $LN6@check_purp
	test	cl, 192					; 000000c0H
	je	SHORT $LN6@check_purp
$LN3@check_purp:
; Line 761
	test	al, 4
	je	SHORT $LN6@check_purp
	cmp	DWORD PTR [esi+48], 64			; 00000040H
	jne	SHORT $LN6@check_purp
; Line 765
	push	-1
	push	126					; 0000007eH
	push	esi
	call	_X509_get_ext_by_NID
	add	esp, 12					; 0000000cH
; Line 766
	test	eax, eax
	js	SHORT $LN8@check_purp
; Line 767
	push	eax
	push	esi
	call	_X509_get_ext
; Line 768
	push	eax
	call	_X509_EXTENSION_get_critical
	add	esp, 12					; 0000000cH
	test	eax, eax
	je	SHORT $LN6@check_purp
$LN8@check_purp:
; Line 772
	mov	eax, 1
	pop	esi
; Line 773
	ret	0
$LN6@check_purp:
; Line 762
	xor	eax, eax
	pop	esi
; Line 773
	ret	0
_check_purpose_timestamp_sign ENDP
_TEXT	ENDS
; Function compile flags: /Ogtpy
;	COMDAT _check_purpose_crl_sign
_TEXT	SEGMENT
_xp$ = 8						; size = 4
_x$ = 12						; size = 4
_ca$ = 16						; size = 4
_check_purpose_crl_sign PROC				; COMDAT
; File c:\workpace\openssl\openssl-1.0.2h\crypto\x509v3\v3_purp.c
; Line 711
	cmp	DWORD PTR _ca$[esp-4], 0
	je	SHORT $LN4@check_purp
; Line 713
	push	DWORD PTR _x$[esp-4]
	call	_check_ca
	xor	ecx, ecx
	add	esp, 4
	cmp	eax, 2
	cmovne	ecx, eax
	mov	eax, ecx
; Line 721
	ret	0
$LN4@check_purp:
; Line 718
	mov	eax, DWORD PTR _x$[esp-4]
	test	BYTE PTR [eax+40], 2
	je	SHORT $LN5@check_purp
	test	BYTE PTR [eax+44], 2
	jne	SHORT $LN5@check_purp
; Line 719
	xor	eax, eax
; Line 721
	ret	0
$LN5@check_purp:
; Line 720
	mov	eax, 1
; Line 721
	ret	0
_check_purpose_crl_sign ENDP
_TEXT	ENDS
; Function compile flags: /Ogtpy
;	COMDAT _check_purpose_smime_encrypt
_TEXT	SEGMENT
_xp$ = 8						; size = 4
_x$ = 12						; size = 4
_ca$ = 16						; size = 4
_check_purpose_smime_encrypt PROC			; COMDAT
; File c:\workpace\openssl\openssl-1.0.2h\crypto\x509v3\v3_purp.c
; Line 698
	push	esi
; Line 660
	mov	esi, DWORD PTR _x$[esp]
	mov	eax, DWORD PTR [esi+40]
	test	al, 4
	je	SHORT $LN7@check_purp
	test	BYTE PTR [esi+48], 4
	je	SHORT $LN15@check_purp
$LN7@check_purp:
; Line 662
	cmp	DWORD PTR _ca$[esp], 0
	je	SHORT $LN11@check_purp
; Line 664
	push	esi
	call	_check_ca
	add	esp, 4
; Line 665
	test	eax, eax
	je	SHORT $LN15@check_purp
; Line 668
	cmp	eax, 5
	jne	SHORT $LN1@check_purp
	test	BYTE PTR [esi+52], 2
	jne	SHORT $LN1@check_purp
; Line 704
	xor	eax, eax
	pop	esi
; Line 706
	ret	0
$LN11@check_purp:
; Line 673
	test	al, 8
	je	SHORT $LN13@check_purp
; Line 674
	mov	ecx, DWORD PTR [esi+52]
	test	cl, 32					; 00000020H
	jne	SHORT $LN13@check_purp
; Line 677
	test	cl, cl
	jns	SHORT $LN15@check_purp
; Line 678
	mov	ecx, 2
	jmp	SHORT $LN18@check_purp
$LN13@check_purp:
; Line 681
	mov	ecx, 1
$LN18@check_purp:
; Line 703
	test	al, 2
	je	SHORT $LN4@check_purp
	test	BYTE PTR [esi+44], 32			; 00000020H
	jne	SHORT $LN4@check_purp
$LN15@check_purp:
; Line 704
	xor	eax, eax
	pop	esi
; Line 706
	ret	0
$LN4@check_purp:
; Line 705
	mov	eax, ecx
$LN1@check_purp:
	pop	esi
; Line 706
	ret	0
_check_purpose_smime_encrypt ENDP
_TEXT	ENDS
; Function compile flags: /Ogtpy
;	COMDAT _check_purpose_smime_sign
_TEXT	SEGMENT
_xp$ = 8						; size = 4
_x$ = 12						; size = 4
_ca$ = 16						; size = 4
_check_purpose_smime_sign PROC				; COMDAT
; File c:\workpace\openssl\openssl-1.0.2h\crypto\x509v3\v3_purp.c
; Line 686
	push	esi
; Line 660
	mov	esi, DWORD PTR _x$[esp]
	mov	eax, DWORD PTR [esi+40]
	test	al, 4
	je	SHORT $LN7@check_purp
	test	BYTE PTR [esi+48], 4
	je	SHORT $LN15@check_purp
$LN7@check_purp:
; Line 662
	cmp	DWORD PTR _ca$[esp], 0
	je	SHORT $LN11@check_purp
; Line 664
	push	esi
	call	_check_ca
	add	esp, 4
; Line 665
	test	eax, eax
	je	SHORT $LN15@check_purp
; Line 668
	cmp	eax, 5
	jne	SHORT $LN1@check_purp
	test	BYTE PTR [esi+52], 2
	jne	SHORT $LN1@check_purp
; Line 692
	xor	eax, eax
	pop	esi
; Line 694
	ret	0
$LN11@check_purp:
; Line 673
	test	al, 8
	je	SHORT $LN13@check_purp
; Line 674
	mov	ecx, DWORD PTR [esi+52]
	test	cl, 32					; 00000020H
	jne	SHORT $LN13@check_purp
; Line 677
	test	cl, cl
	jns	SHORT $LN15@check_purp
; Line 678
	mov	ecx, 2
	jmp	SHORT $LN18@check_purp
$LN13@check_purp:
; Line 681
	mov	ecx, 1
$LN18@check_purp:
; Line 691
	test	al, 2
	je	SHORT $LN4@check_purp
	test	BYTE PTR [esi+44], 192			; 000000c0H
	jne	SHORT $LN4@check_purp
$LN15@check_purp:
; Line 692
	xor	eax, eax
	pop	esi
; Line 694
	ret	0
$LN4@check_purp:
; Line 693
	mov	eax, ecx
$LN1@check_purp:
	pop	esi
; Line 694
	ret	0
_check_purpose_smime_sign ENDP
_TEXT	ENDS
; Function compile flags: /Ogtpy
;	COMDAT _purpose_smime
_TEXT	SEGMENT
_x$ = 8							; size = 4
_ca$ = 12						; size = 4
_purpose_smime PROC					; COMDAT
; File c:\workpace\openssl\openssl-1.0.2h\crypto\x509v3\v3_purp.c
; Line 659
	push	esi
; Line 660
	mov	esi, DWORD PTR _x$[esp]
	mov	eax, DWORD PTR [esi+40]
	test	al, 4
	je	SHORT $LN2@purpose_sm
	test	BYTE PTR [esi+48], 4
	je	SHORT $LN12@purpose_sm
$LN2@purpose_sm:
; Line 662
	cmp	DWORD PTR _ca$[esp], 0
	je	SHORT $LN6@purpose_sm
; Line 664
	push	esi
	call	_check_ca
	add	esp, 4
; Line 665
	test	eax, eax
	je	SHORT $LN12@purpose_sm
; Line 668
	cmp	eax, 5
	jne	SHORT $LN1@purpose_sm
	test	BYTE PTR [esi+52], 2
	jne	SHORT $LN1@purpose_sm
$LN12@purpose_sm:
; Line 671
	xor	eax, eax
	pop	esi
; Line 682
	ret	0
$LN6@purpose_sm:
; Line 673
	test	al, 8
	je	SHORT $LN8@purpose_sm
; Line 674
	mov	eax, DWORD PTR [esi+52]
	test	al, 32					; 00000020H
	jne	SHORT $LN8@purpose_sm
; Line 677
	movzx	eax, al
	shr	eax, 6
	and	eax, 2
	pop	esi
; Line 682
	ret	0
$LN8@purpose_sm:
; Line 681
	mov	eax, 1
$LN1@purpose_sm:
	pop	esi
; Line 682
	ret	0
_purpose_smime ENDP
_TEXT	ENDS
; Function compile flags: /Ogtpy
;	COMDAT _check_purpose_ns_ssl_server
_TEXT	SEGMENT
_xp$ = 8						; size = 4
_x$ = 12						; size = 4
_ca$ = 16						; size = 4
_check_purpose_ns_ssl_server PROC			; COMDAT
; File c:\workpace\openssl\openssl-1.0.2h\crypto\x509v3\v3_purp.c
; Line 646
	push	esi
; Line 630
	mov	esi, DWORD PTR _x$[esp]
	mov	eax, DWORD PTR [esi+40]
	test	al, 4
	je	SHORT $LN7@check_purp
	test	BYTE PTR [esi+48], 17			; 00000011H
	je	SHORT $LN20@check_purp
$LN7@check_purp:
; Line 632
	cmp	DWORD PTR _ca$[esp], 0
	je	SHORT $LN8@check_purp
; Line 593
	push	esi
	call	_check_ca
	add	esp, 4
; Line 594
	test	eax, eax
	je	SHORT $LN20@check_purp
; Line 597
	cmp	eax, 5
	jne	SHORT $LN1@check_purp
	test	BYTE PTR [esi+52], 4
	jne	SHORT $LN1@check_purp
; Line 653
	xor	eax, eax
	pop	esi
; Line 655
	ret	0
$LN8@check_purp:
; Line 635
	test	al, 8
	je	SHORT $LN9@check_purp
	test	BYTE PTR [esi+52], 64			; 00000040H
	je	SHORT $LN20@check_purp
$LN9@check_purp:
; Line 637
	and	eax, 2
	je	SHORT $LN19@check_purp
	test	BYTE PTR [esi+44], 168			; 000000a8H
	je	SHORT $LN20@check_purp
$LN19@check_purp:
; Line 652
	test	eax, eax
	je	SHORT $LN4@check_purp
	test	BYTE PTR [esi+44], 32			; 00000020H
	jne	SHORT $LN4@check_purp
$LN20@check_purp:
; Line 653
	xor	eax, eax
	pop	esi
; Line 655
	ret	0
$LN4@check_purp:
; Line 654
	mov	eax, 1
$LN1@check_purp:
	pop	esi
; Line 655
	ret	0
_check_purpose_ns_ssl_server ENDP
_TEXT	ENDS
; Function compile flags: /Ogtpy
;	COMDAT _check_purpose_ssl_server
_TEXT	SEGMENT
_xp$ = 8						; size = 4
_x$ = 12						; size = 4
_ca$ = 16						; size = 4
_check_purpose_ssl_server PROC				; COMDAT
; File c:\workpace\openssl\openssl-1.0.2h\crypto\x509v3\v3_purp.c
; Line 629
	push	esi
; Line 630
	mov	esi, DWORD PTR _x$[esp]
	mov	eax, DWORD PTR [esi+40]
	test	al, 4
	je	SHORT $LN2@check_purp
	test	BYTE PTR [esi+48], 17			; 00000011H
	je	SHORT $LN13@check_purp
$LN2@check_purp:
; Line 632
	cmp	DWORD PTR _ca$[esp], 0
	je	SHORT $LN3@check_purp
; Line 593
	push	esi
	call	_check_ca
	add	esp, 4
; Line 594
	test	eax, eax
	je	SHORT $LN13@check_purp
; Line 597
	cmp	eax, 5
	jne	SHORT $LN1@check_purp
	test	BYTE PTR [esi+52], 4
	jne	SHORT $LN1@check_purp
$LN13@check_purp:
; Line 600
	xor	eax, eax
	pop	esi
; Line 642
	ret	0
$LN3@check_purp:
; Line 635
	test	al, 8
	je	SHORT $LN4@check_purp
	test	BYTE PTR [esi+52], 64			; 00000040H
	je	SHORT $LN13@check_purp
$LN4@check_purp:
; Line 637
	test	al, 2
	je	SHORT $LN5@check_purp
	test	BYTE PTR [esi+44], 168			; 000000a8H
	je	SHORT $LN13@check_purp
$LN5@check_purp:
; Line 640
	mov	eax, 1
$LN1@check_purp:
	pop	esi
; Line 642
	ret	0
_check_purpose_ssl_server ENDP
_TEXT	ENDS
; Function compile flags: /Ogtpy
;	COMDAT _check_purpose_ssl_client
_TEXT	SEGMENT
_xp$ = 8						; size = 4
_x$ = 12						; size = 4
_ca$ = 16						; size = 4
_check_purpose_ssl_client PROC				; COMDAT
; File c:\workpace\openssl\openssl-1.0.2h\crypto\x509v3\v3_purp.c
; Line 605
	push	esi
; Line 606
	mov	esi, DWORD PTR _x$[esp]
	mov	eax, DWORD PTR [esi+40]
	test	al, 4
	je	SHORT $LN2@check_purp
	test	BYTE PTR [esi+48], 2
	je	SHORT $LN13@check_purp
$LN2@check_purp:
; Line 608
	cmp	DWORD PTR _ca$[esp], 0
	je	SHORT $LN3@check_purp
; Line 593
	push	esi
	call	_check_ca
	add	esp, 4
; Line 594
	test	eax, eax
	je	SHORT $LN13@check_purp
; Line 597
	cmp	eax, 5
	jne	SHORT $LN1@check_purp
	test	BYTE PTR [esi+52], 4
	jne	SHORT $LN1@check_purp
$LN13@check_purp:
; Line 600
	xor	eax, eax
	pop	esi
; Line 617
	ret	0
$LN3@check_purp:
; Line 611
	test	al, 2
	je	SHORT $LN4@check_purp
	test	BYTE PTR [esi+44], 136			; 00000088H
	je	SHORT $LN13@check_purp
$LN4@check_purp:
; Line 614
	test	al, 8
	je	SHORT $LN5@check_purp
	test	BYTE PTR [esi+52], 128			; 00000080H
	je	SHORT $LN13@check_purp
$LN5@check_purp:
; Line 616
	mov	eax, 1
$LN1@check_purp:
	pop	esi
; Line 617
	ret	0
_check_purpose_ssl_client ENDP
_TEXT	ENDS
; Function compile flags: /Ogtpy
;	COMDAT _check_ssl_ca
_TEXT	SEGMENT
_x$ = 8							; size = 4
_check_ssl_ca PROC					; COMDAT
; File c:\workpace\openssl\openssl-1.0.2h\crypto\x509v3\v3_purp.c
; Line 591
	push	esi
; Line 593
	mov	esi, DWORD PTR _x$[esp]
	push	esi
	call	_check_ca
	add	esp, 4
; Line 594
	test	eax, eax
	je	SHORT $LN7@check_ssl_
; Line 597
	cmp	eax, 5
	jne	SHORT $LN4@check_ssl_
	test	BYTE PTR [esi+52], 4
	jne	SHORT $LN4@check_ssl_
$LN7@check_ssl_:
; Line 600
	xor	eax, eax
$LN4@check_ssl_:
	pop	esi
; Line 601
	ret	0
_check_ssl_ca ENDP
_TEXT	ENDS
; Function compile flags: /Ogtpy
;	COMDAT _x509v3_cache_extensions
_TEXT	SEGMENT
_ex_nid$1 = -4						; size = 4
_i$ = 8							; size = 4
_x$ = 8							; size = 4
_x509v3_cache_extensions PROC				; COMDAT
; File c:\workpace\openssl\openssl-1.0.2h\crypto\x509v3\v3_purp.c
; Line 392
	mov	eax, 4
	call	__chkstk
	push	esi
; Line 401
	mov	esi, DWORD PTR _x$[esp+4]
	test	DWORD PTR [esi+40], 256			; 00000100H
	jne	$LN1@x509v3_cac
; Line 404
	lea	eax, DWORD PTR [esi+80]
	push	0
	push	eax
	call	_EVP_sha1
	push	eax
	push	esi
	call	_X509_digest
; Line 407
	mov	eax, DWORD PTR [esi]
	push	DWORD PTR [eax]
	call	_ASN1_INTEGER_get
	add	esp, 20					; 00000014H
	test	eax, eax
	jne	SHORT $LN11@x509v3_cac
; Line 408
	or	DWORD PTR [esi+40], 64			; 00000040H
$LN11@x509v3_cac:
	push	edi
; Line 410
	push	0
	push	0
	push	87					; 00000057H
	push	esi
	call	_X509_get_ext_d2i
	mov	edi, eax
	add	esp, 16					; 00000010H
	test	edi, edi
	je	SHORT $LN12@x509v3_cac
; Line 411
	cmp	DWORD PTR [edi], 0
	je	SHORT $LN13@x509v3_cac
; Line 412
	or	DWORD PTR [esi+40], 16			; 00000010H
$LN13@x509v3_cac:
; Line 413
	mov	eax, DWORD PTR [edi+4]
	test	eax, eax
	je	SHORT $LN14@x509v3_cac
; Line 415
	cmp	DWORD PTR [eax+4], 258			; 00000102H
	je	SHORT $LN18@x509v3_cac
	cmp	DWORD PTR [edi], 0
	je	SHORT $LN18@x509v3_cac
; Line 419
	push	eax
	call	_ASN1_INTEGER_get
	add	esp, 4
	mov	DWORD PTR [esi+32], eax
	jmp	SHORT $LN15@x509v3_cac
$LN18@x509v3_cac:
; Line 416
	or	DWORD PTR [esi+40], 128			; 00000080H
; Line 417
	mov	DWORD PTR [esi+32], 0
; Line 420
	jmp	SHORT $LN15@x509v3_cac
$LN14@x509v3_cac:
; Line 421
	mov	DWORD PTR [esi+32], -1
$LN15@x509v3_cac:
; Line 422
	push	edi
	call	_BASIC_CONSTRAINTS_free
	add	esp, 4
; Line 423
	or	DWORD PTR [esi+40], 1
$LN12@x509v3_cac:
; Line 426
	push	0
	push	0
	push	663					; 00000297H
	push	esi
	call	_X509_get_ext_d2i
	mov	edi, eax
	add	esp, 16					; 00000010H
	test	edi, edi
	je	SHORT $LN19@x509v3_cac
; Line 429
	test	BYTE PTR [esi+40], 16			; 00000010H
	jne	SHORT $LN21@x509v3_cac
	push	-1
	push	85					; 00000055H
	push	esi
	call	_X509_get_ext_by_NID
	add	esp, 12					; 0000000cH
	test	eax, eax
	jns	SHORT $LN21@x509v3_cac
	push	-1
	push	86					; 00000056H
	push	esi
	call	_X509_get_ext_by_NID
	add	esp, 12					; 0000000cH
	test	eax, eax
	js	SHORT $LN20@x509v3_cac
$LN21@x509v3_cac:
; Line 430
	or	DWORD PTR [esi+40], 128			; 00000080H
$LN20@x509v3_cac:
; Line 432
	mov	eax, DWORD PTR [edi]
	test	eax, eax
	je	SHORT $LN22@x509v3_cac
; Line 433
	push	eax
	call	_ASN1_INTEGER_get
	add	esp, 4
	mov	DWORD PTR [esi+36], eax
; Line 434
	jmp	SHORT $LN23@x509v3_cac
$LN22@x509v3_cac:
; Line 435
	mov	DWORD PTR [esi+36], -1
$LN23@x509v3_cac:
; Line 436
	push	edi
	call	_PROXY_CERT_INFO_EXTENSION_free
	add	esp, 4
; Line 437
	or	DWORD PTR [esi+40], 1024		; 00000400H
$LN19@x509v3_cac:
; Line 440
	push	0
	push	0
	push	83					; 00000053H
	push	esi
	call	_X509_get_ext_d2i
	mov	edx, eax
	add	esp, 16					; 00000010H
	test	edx, edx
	je	SHORT $LN24@x509v3_cac
; Line 441
	cmp	DWORD PTR [edx], 0
	jle	SHORT $LN25@x509v3_cac
; Line 442
	mov	ecx, DWORD PTR [edx+8]
	movzx	ecx, BYTE PTR [ecx]
	mov	DWORD PTR [esi+44], ecx
; Line 443
	cmp	DWORD PTR [edx], 1
	jle	SHORT $LN26@x509v3_cac
; Line 444
	mov	eax, DWORD PTR [edx+8]
	movzx	eax, BYTE PTR [eax+1]
	shl	eax, 8
	or	eax, ecx
	mov	DWORD PTR [esi+44], eax
; Line 445
	jmp	SHORT $LN26@x509v3_cac
$LN25@x509v3_cac:
; Line 446
	mov	DWORD PTR [esi+44], 0
$LN26@x509v3_cac:
; Line 447
	or	DWORD PTR [esi+40], 2
; Line 448
	push	edx
	call	_ASN1_BIT_STRING_free
	add	esp, 4
$LN24@x509v3_cac:
; Line 451
	push	0
	push	0
	push	126					; 0000007eH
	push	esi
	mov	DWORD PTR [esi+48], 0
	call	_X509_get_ext_d2i
	mov	edi, eax
	add	esp, 16					; 00000010H
	test	edi, edi
	je	$LN28@x509v3_cac
; Line 452
	or	DWORD PTR [esi+40], 4
; Line 453
	push	edi
	mov	DWORD PTR _i$[esp+12], 0
	call	_sk_num
	mov	ecx, DWORD PTR _i$[esp+12]
	add	esp, 4
	cmp	ecx, eax
	jge	$LN3@x509v3_cac
$LL4@x509v3_cac:
; Line 454
	push	ecx
	push	edi
	call	_sk_value
	push	eax
	call	_OBJ_obj2nid
	add	esp, 12					; 0000000cH
	cmp	eax, 180				; 000000b4H
	jg	SHORT $LN49@x509v3_cac
	je	SHORT $LN34@x509v3_cac
	sub	eax, 129				; 00000081H
	cmp	eax, 10					; 0000000aH
	ja	SHORT $LN2@x509v3_cac
	jmp	DWORD PTR $LN68@x509v3_cac[eax*4]
$LN29@x509v3_cac:
; Line 456
	or	DWORD PTR [esi+48], 1
; Line 457
	jmp	SHORT $LN2@x509v3_cac
$LN30@x509v3_cac:
; Line 460
	or	DWORD PTR [esi+48], 2
; Line 461
	jmp	SHORT $LN2@x509v3_cac
$LN31@x509v3_cac:
; Line 464
	or	DWORD PTR [esi+48], 4
; Line 465
	jmp	SHORT $LN2@x509v3_cac
$LN32@x509v3_cac:
; Line 468
	or	DWORD PTR [esi+48], 8
; Line 469
	jmp	SHORT $LN2@x509v3_cac
$LN33@x509v3_cac:
; Line 473
	or	DWORD PTR [esi+48], 16			; 00000010H
; Line 474
	jmp	SHORT $LN2@x509v3_cac
$LN35@x509v3_cac:
; Line 481
	or	DWORD PTR [esi+48], 64			; 00000040H
; Line 482
	jmp	SHORT $LN2@x509v3_cac
$LN34@x509v3_cac:
; Line 477
	or	DWORD PTR [esi+48], 32			; 00000020H
; Line 478
	jmp	SHORT $LN2@x509v3_cac
$LN49@x509v3_cac:
; Line 454
	cmp	eax, 297				; 00000129H
	je	SHORT $LN36@x509v3_cac
	cmp	eax, 910				; 0000038eH
	jne	SHORT $LN2@x509v3_cac
; Line 489
	or	DWORD PTR [esi+48], 256			; 00000100H
	jmp	SHORT $LN2@x509v3_cac
$LN36@x509v3_cac:
; Line 485
	or	DWORD PTR [esi+48], 128			; 00000080H
$LN2@x509v3_cac:
; Line 453
	inc	DWORD PTR _i$[esp+8]
	push	edi
	call	_sk_num
	mov	ecx, DWORD PTR _i$[esp+12]
	add	esp, 4
	cmp	ecx, eax
	jl	$LL4@x509v3_cac
$LN3@x509v3_cac:
; Line 493
	push	OFFSET _ASN1_OBJECT_free
	push	edi
	call	_sk_pop_free
	add	esp, 8
$LN28@x509v3_cac:
; Line 496
	push	0
	push	0
	push	71					; 00000047H
	push	esi
	call	_X509_get_ext_d2i
	add	esp, 16					; 00000010H
	test	eax, eax
	je	SHORT $LN38@x509v3_cac
; Line 497
	cmp	DWORD PTR [eax], 0
	jle	SHORT $LN39@x509v3_cac
; Line 498
	mov	ecx, DWORD PTR [eax+8]
	movzx	ecx, BYTE PTR [ecx]
	mov	DWORD PTR [esi+52], ecx
	jmp	SHORT $LN40@x509v3_cac
$LN39@x509v3_cac:
; Line 500
	mov	DWORD PTR [esi+52], 0
$LN40@x509v3_cac:
; Line 501
	or	DWORD PTR [esi+40], 8
; Line 502
	push	eax
	call	_ASN1_BIT_STRING_free
	add	esp, 4
$LN38@x509v3_cac:
; Line 504
	push	0
	push	0
	push	82					; 00000052H
	push	esi
	call	_X509_get_ext_d2i
; Line 505
	push	0
	push	0
	push	90					; 0000005aH
	push	esi
	mov	DWORD PTR [esi+56], eax
	call	_X509_get_ext_d2i
; Line 507
	push	esi
	mov	DWORD PTR [esi+60], eax
	call	_X509_get_issuer_name
	add	esp, 36					; 00000024H
	push	eax
	push	esi
	call	_X509_get_subject_name
	add	esp, 4
	push	eax
	call	_X509_NAME_cmp
	add	esp, 8
	test	eax, eax
	jne	SHORT $LN42@x509v3_cac
; Line 510
	push	DWORD PTR [esi+60]
	or	DWORD PTR [esi+40], 32			; 00000020H
	push	esi
	call	_X509_check_akid
	add	esp, 8
	test	eax, eax
	jne	SHORT $LN42@x509v3_cac
	mov	eax, DWORD PTR [esi+40]
	test	al, 2
	je	SHORT $LN43@x509v3_cac
	test	BYTE PTR [esi+44], 4
	je	SHORT $LN42@x509v3_cac
$LN43@x509v3_cac:
; Line 512
	or	eax, 8192				; 00002000H
	mov	DWORD PTR [esi+40], eax
$LN42@x509v3_cac:
; Line 514
	push	0
	push	0
	push	85					; 00000055H
	push	esi
	call	_X509_get_ext_d2i
	mov	DWORD PTR [esi+72], eax
; Line 515
	lea	eax, DWORD PTR _i$[esp+24]
	push	0
	push	eax
	push	666					; 0000029aH
	push	esi
	call	_X509_get_ext_d2i
	add	esp, 32					; 00000020H
	mov	DWORD PTR [esi+76], eax
; Line 516
	test	eax, eax
	jne	SHORT $LN44@x509v3_cac
	cmp	DWORD PTR _i$[esp+8], -1
	je	SHORT $LN44@x509v3_cac
; Line 517
	or	DWORD PTR [esi+40], 128			; 00000080H
$LN44@x509v3_cac:
; Line 518
	push	esi
	call	_setup_crldp
; Line 525
	push	esi
	mov	DWORD PTR _i$[esp+16], 0
	call	_X509_get_ext_count
	mov	ecx, DWORD PTR _i$[esp+16]
	add	esp, 8
	cmp	ecx, eax
	jge	$LN8@x509v3_cac
	npad	5
$LL9@x509v3_cac:
; Line 526
	push	ecx
	push	esi
	call	_X509_get_ext
	mov	edi, eax
; Line 528
	push	edi
	call	_X509_EXTENSION_get_object
	push	eax
	call	_OBJ_obj2nid
	add	esp, 16					; 00000010H
	cmp	eax, 857				; 00000359H
	jne	SHORT $LN45@x509v3_cac
; Line 529
	or	DWORD PTR [esi+40], 4096		; 00001000H
$LN45@x509v3_cac:
; Line 530
	push	edi
	call	_X509_EXTENSION_get_critical
	add	esp, 4
	test	eax, eax
	je	SHORT $LN7@x509v3_cac
; Line 336
	push	edi
	call	_X509_EXTENSION_get_object
	push	eax
	call	_OBJ_obj2nid
	add	esp, 8
	mov	DWORD PTR _ex_nid$1[esp+12], eax
; Line 338
	test	eax, eax
	je	SHORT $LN58@x509v3_cac
; Line 306
	push	OFFSET _nid_cmp_BSEARCH_CMP_FN
	push	4
	push	11					; 0000000bH
	lea	eax, DWORD PTR _ex_nid$1[esp+24]
	push	OFFSET ?supported_nids@?1??X509_supported_extension@@9@9
	push	eax
	call	_OBJ_bsearch_
	add	esp, 20					; 00000014H
; Line 341
	test	eax, eax
	je	SHORT $LN58@x509v3_cac
$LN7@x509v3_cac:
; Line 525
	inc	DWORD PTR _i$[esp+8]
	push	esi
	call	_X509_get_ext_count
	mov	ecx, DWORD PTR _i$[esp+12]
	add	esp, 4
	cmp	ecx, eax
	jl	SHORT $LL9@x509v3_cac
; Line 537
	or	DWORD PTR [esi+40], 256			; 00000100H
	pop	edi
	pop	esi
; Line 538
	pop	ecx
	ret	0
$LN58@x509v3_cac:
; Line 533
	or	DWORD PTR [esi+40], 512			; 00000200H
$LN8@x509v3_cac:
; Line 537
	or	DWORD PTR [esi+40], 256			; 00000100H
	pop	edi
$LN1@x509v3_cac:
	pop	esi
; Line 538
	pop	ecx
	ret	0
	npad	1
$LN68@x509v3_cac:
	DD	$LN29@x509v3_cac
	DD	$LN30@x509v3_cac
	DD	$LN32@x509v3_cac
	DD	$LN31@x509v3_cac
	DD	$LN35@x509v3_cac
	DD	$LN2@x509v3_cac
	DD	$LN2@x509v3_cac
	DD	$LN2@x509v3_cac
	DD	$LN33@x509v3_cac
	DD	$LN2@x509v3_cac
	DD	$LN33@x509v3_cac
_x509v3_cache_extensions ENDP
_TEXT	ENDS
; Function compile flags: /Ogtpy
;	COMDAT _X509_PURPOSE_get_id
_TEXT	SEGMENT
_xp$ = 8						; size = 4
_X509_PURPOSE_get_id PROC				; COMDAT
; File c:\workpace\openssl\openssl-1.0.2h\crypto\x509v3\v3_purp.c
; Line 282
	mov	eax, DWORD PTR _xp$[esp-4]
	mov	eax, DWORD PTR [eax]
; Line 283
	ret	0
_X509_PURPOSE_get_id ENDP
_TEXT	ENDS
; Function compile flags: /Ogtpy
;	COMDAT _X509_PURPOSE_cleanup
_TEXT	SEGMENT
_X509_PURPOSE_cleanup PROC				; COMDAT
; File c:\workpace\openssl\openssl-1.0.2h\crypto\x509v3\v3_purp.c
; Line 272
	push	esi
	push	edi
; Line 274
	push	OFFSET _xptable_free
	push	DWORD PTR _xptable
	call	_sk_pop_free
	add	esp, 8
	mov	esi, OFFSET _xstandard+8
	mov	edi, 9
	npad	1
$LL4@X509_PURPO:
; Line 260
	lea	eax, DWORD PTR [esi-8]
	test	eax, eax
	je	SHORT $LN2@X509_PURPO
; Line 262
	mov	eax, DWORD PTR [esi]
	test	al, 1
	je	SHORT $LN2@X509_PURPO
; Line 263
	test	al, 2
	je	SHORT $LN9@X509_PURPO
; Line 264
	push	DWORD PTR [esi+8]
	call	_CRYPTO_free
; Line 265
	push	DWORD PTR [esi+12]
	call	_CRYPTO_free
	add	esp, 8
$LN9@X509_PURPO:
; Line 267
	lea	eax, DWORD PTR [esi-8]
	push	eax
	call	_CRYPTO_free
	add	esp, 4
$LN2@X509_PURPO:
; Line 275
	add	esi, 28					; 0000001cH
	sub	edi, 1
	jne	SHORT $LL4@X509_PURPO
; Line 277
	mov	DWORD PTR _xptable, edi
	pop	edi
	pop	esi
; Line 278
	ret	0
_X509_PURPOSE_cleanup ENDP
_TEXT	ENDS
; Function compile flags: /Ogtpy
;	COMDAT _X509_PURPOSE_get_trust
_TEXT	SEGMENT
_xp$ = 8						; size = 4
_X509_PURPOSE_get_trust PROC				; COMDAT
; File c:\workpace\openssl\openssl-1.0.2h\crypto\x509v3\v3_purp.c
; Line 297
	mov	eax, DWORD PTR _xp$[esp-4]
	mov	eax, DWORD PTR [eax+4]
; Line 298
	ret	0
_X509_PURPOSE_get_trust ENDP
_TEXT	ENDS
; Function compile flags: /Ogtpy
;	COMDAT _X509_PURPOSE_get0_sname
_TEXT	SEGMENT
_xp$ = 8						; size = 4
_X509_PURPOSE_get0_sname PROC				; COMDAT
; File c:\workpace\openssl\openssl-1.0.2h\crypto\x509v3\v3_purp.c
; Line 292
	mov	eax, DWORD PTR _xp$[esp-4]
	mov	eax, DWORD PTR [eax+20]
; Line 293
	ret	0
_X509_PURPOSE_get0_sname ENDP
_TEXT	ENDS
; Function compile flags: /Ogtpy
;	COMDAT _X509_PURPOSE_get0_name
_TEXT	SEGMENT
_xp$ = 8						; size = 4
_X509_PURPOSE_get0_name PROC				; COMDAT
; File c:\workpace\openssl\openssl-1.0.2h\crypto\x509v3\v3_purp.c
; Line 287
	mov	eax, DWORD PTR _xp$[esp-4]
	mov	eax, DWORD PTR [eax+16]
; Line 288
	ret	0
_X509_PURPOSE_get0_name ENDP
_TEXT	ENDS
; Function compile flags: /Ogtpy
;	COMDAT _X509_PURPOSE_add
_TEXT	SEGMENT
_tmp$1 = -28						; size = 28
_id$ = 8						; size = 4
_trust$ = 12						; size = 4
_flags$ = 16						; size = 4
_ck$ = 20						; size = 4
_name$ = 24						; size = 4
_sname$ = 28						; size = 4
_arg$ = 32						; size = 4
_X509_PURPOSE_add PROC					; COMDAT
; File c:\workpace\openssl\openssl-1.0.2h\crypto\x509v3\v3_purp.c
; Line 201
	mov	eax, 28					; 0000001cH
	call	__chkstk
	push	ebx
; Line 207
	mov	ebx, DWORD PTR _flags$[esp+28]
	push	ebp
; Line 187
	mov	ebp, DWORD PTR _id$[esp+32]
; Line 207
	and	ebx, -2					; fffffffeH
	push	esi
; Line 209
	or	ebx, 2
	push	edi
; Line 187
	lea	eax, DWORD PTR [ebp-1]
	cmp	eax, 8
	ja	SHORT $LN13@X509_PURPO
; Line 188
	lea	edi, DWORD PTR [ebp-1]
	jmp	SHORT $LN12@X509_PURPO
$LN13@X509_PURPO:
; Line 190
	mov	eax, DWORD PTR _xptable
	mov	DWORD PTR _tmp$1[esp+44], ebp
	test	eax, eax
	jne	SHORT $LN14@X509_PURPO
; Line 191
	or	edi, -1
	jmp	SHORT $LN21@X509_PURPO
$LN14@X509_PURPO:
; Line 192
	lea	ecx, DWORD PTR _tmp$1[esp+44]
	push	ecx
	push	eax
	call	_sk_find
	add	esp, 8
; Line 193
	cmp	eax, -1
	jne	SHORT $LN15@X509_PURPO
; Line 194
	or	edi, eax
	jmp	SHORT $LN21@X509_PURPO
$LN15@X509_PURPO:
; Line 195
	lea	edi, DWORD PTR [eax+9]
$LN12@X509_PURPO:
; Line 213
	cmp	edi, -1
	jne	SHORT $LN2@X509_PURPO
$LN21@X509_PURPO:
; Line 214
	push	214					; 000000d6H
	push	OFFSET ??_C@_0BK@COINEMNE@?4?2crypto?2x509v3?2v3_purp?4c?$AA@
	push	28					; 0000001cH
	call	_CRYPTO_malloc
	mov	esi, eax
	add	esp, 12					; 0000000cH
	test	esi, esi
	jne	SHORT $LN4@X509_PURPO
; Line 215
	push	215					; 000000d7H
; Line 216
	jmp	$LN22@X509_PURPO
$LN4@X509_PURPO:
; Line 218
	mov	DWORD PTR [esi+8], 1
; Line 219
	jmp	SHORT $LN17@X509_PURPO
$LN2@X509_PURPO:
; Line 164
	test	edi, edi
	jns	SHORT $LN18@X509_PURPO
; Line 165
	xor	esi, esi
	jmp	SHORT $LN17@X509_PURPO
$LN18@X509_PURPO:
; Line 166
	cmp	edi, 9
	jge	SHORT $LN19@X509_PURPO
; Line 167
	lea	eax, DWORD PTR [edi*8]
	sub	eax, edi
	lea	esi, DWORD PTR _xstandard[eax*4]
	jmp	SHORT $LN17@X509_PURPO
$LN19@X509_PURPO:
; Line 168
	lea	eax, DWORD PTR [edi-9]
	push	eax
	push	DWORD PTR _xptable
	call	_sk_value
	add	esp, 8
	mov	esi, eax
$LN17@X509_PURPO:
; Line 223
	test	BYTE PTR [esi+8], 2
	je	SHORT $LN5@X509_PURPO
; Line 224
	push	DWORD PTR [esi+16]
	call	_CRYPTO_free
; Line 225
	push	DWORD PTR [esi+20]
	call	_CRYPTO_free
	add	esp, 8
$LN5@X509_PURPO:
; Line 228
	push	DWORD PTR _name$[esp+40]
	call	_BUF_strdup
; Line 229
	push	DWORD PTR _sname$[esp+44]
	mov	DWORD PTR [esi+16], eax
	call	_BUF_strdup
	add	esp, 8
	mov	DWORD PTR [esi+20], eax
; Line 230
	cmp	DWORD PTR [esi+16], 0
	je	SHORT $LN7@X509_PURPO
	test	eax, eax
	je	SHORT $LN7@X509_PURPO
; Line 235
	mov	eax, DWORD PTR [esi+8]
	and	eax, 1
; Line 239
	mov	DWORD PTR [esi], ebp
	or	eax, ebx
	mov	DWORD PTR [esi+8], eax
; Line 240
	mov	eax, DWORD PTR _trust$[esp+40]
	mov	DWORD PTR [esi+4], eax
; Line 241
	mov	eax, DWORD PTR _ck$[esp+40]
	mov	DWORD PTR [esi+12], eax
; Line 242
	mov	eax, DWORD PTR _arg$[esp+40]
	mov	DWORD PTR [esi+24], eax
; Line 245
	cmp	edi, -1
	jne	SHORT $LN10@X509_PURPO
; Line 246
	mov	eax, DWORD PTR _xptable
	test	eax, eax
	jne	SHORT $LN9@X509_PURPO
	push	OFFSET _xp_cmp
	call	_sk_new
	add	esp, 4
	mov	DWORD PTR _xptable, eax
	test	eax, eax
	jne	SHORT $LN9@X509_PURPO
; Line 247
	push	247					; 000000f7H
; Line 248
	jmp	SHORT $LN22@X509_PURPO
$LN9@X509_PURPO:
; Line 250
	push	esi
	push	eax
	call	_sk_push
	add	esp, 8
	test	eax, eax
	jne	SHORT $LN10@X509_PURPO
; Line 251
	push	251					; 000000fbH
; Line 252
	jmp	SHORT $LN22@X509_PURPO
$LN10@X509_PURPO:
	pop	edi
	pop	esi
	pop	ebp
; Line 255
	mov	eax, 1
	pop	ebx
; Line 256
	add	esp, 28					; 0000001cH
	ret	0
$LN7@X509_PURPO:
; Line 231
	push	231					; 000000e7H
$LN22@X509_PURPO:
	push	OFFSET ??_C@_0BK@COINEMNE@?4?2crypto?2x509v3?2v3_purp?4c?$AA@
	push	65					; 00000041H
	push	137					; 00000089H
	push	34					; 00000022H
	call	_ERR_put_error
	add	esp, 20					; 00000014H
; Line 232
	xor	eax, eax
	pop	edi
	pop	esi
	pop	ebp
	pop	ebx
; Line 256
	add	esp, 28					; 0000001cH
	ret	0
_X509_PURPOSE_add ENDP
_TEXT	ENDS
; Function compile flags: /Ogtpy
;	COMDAT _X509_PURPOSE_get_by_id
_TEXT	SEGMENT
_tmp$ = -28						; size = 28
_purpose$ = 8						; size = 4
_X509_PURPOSE_get_by_id PROC				; COMDAT
; File c:\workpace\openssl\openssl-1.0.2h\crypto\x509v3\v3_purp.c
; Line 184
	mov	eax, 28					; 0000001cH
	call	__chkstk
; Line 187
	mov	ecx, DWORD PTR _purpose$[esp+24]
	lea	eax, DWORD PTR [ecx-1]
	cmp	eax, 8
	ja	SHORT $LN2@X509_PURPO
; Line 188
	lea	eax, DWORD PTR [ecx-1]
; Line 196
	add	esp, 28					; 0000001cH
	ret	0
$LN2@X509_PURPO:
; Line 190
	mov	eax, DWORD PTR _xptable
	mov	DWORD PTR _tmp$[esp+28], ecx
	test	eax, eax
	jne	SHORT $LN3@X509_PURPO
$LN6@X509_PURPO:
; Line 191
	or	eax, -1
; Line 196
	add	esp, 28					; 0000001cH
	ret	0
$LN3@X509_PURPO:
; Line 192
	lea	ecx, DWORD PTR _tmp$[esp+28]
	push	ecx
	push	eax
	call	_sk_find
	add	esp, 8
; Line 193
	cmp	eax, -1
	je	SHORT $LN6@X509_PURPO
; Line 195
	add	eax, 9
; Line 196
	add	esp, 28					; 0000001cH
	ret	0
_X509_PURPOSE_get_by_id ENDP
_TEXT	ENDS
; Function compile flags: /Ogtpy
;	COMDAT _X509_PURPOSE_get_by_sname
_TEXT	SEGMENT
_sname$ = 8						; size = 4
_X509_PURPOSE_get_by_sname PROC				; COMDAT
; File c:\workpace\openssl\openssl-1.0.2h\crypto\x509v3\v3_purp.c
; Line 172
	push	ebx
	push	ebp
; Line 175
	mov	ebp, DWORD PTR _sname$[esp+4]
	mov	ebx, OFFSET _xstandard
	push	esi
	push	edi
	mov	edi, DWORD PTR _xptable
	xor	esi, esi
$LL4@X509_PURPO:
; Line 157
	test	edi, edi
	jne	SHORT $LN8@X509_PURPO
; Line 158
	lea	eax, DWORD PTR [edi+9]
	jmp	SHORT $LN7@X509_PURPO
$LN8@X509_PURPO:
; Line 159
	push	edi
	call	_sk_num
	mov	edi, DWORD PTR _xptable
	add	esp, 4
	add	eax, 9
$LN7@X509_PURPO:
; Line 175
	cmp	esi, eax
	jge	SHORT $LN3@X509_PURPO
; Line 164
	test	esi, esi
	jns	SHORT $LN11@X509_PURPO
; Line 165
	xor	ecx, ecx
	jmp	SHORT $LN10@X509_PURPO
$LN11@X509_PURPO:
; Line 166
	cmp	esi, 9
	jge	SHORT $LN12@X509_PURPO
; Line 167
	mov	ecx, ebx
	jmp	SHORT $LN10@X509_PURPO
$LN12@X509_PURPO:
; Line 168
	lea	eax, DWORD PTR [esi-9]
	push	eax
	push	edi
	call	_sk_value
	mov	edi, DWORD PTR _xptable
	add	esp, 8
	mov	ecx, eax
$LN10@X509_PURPO:
; Line 177
	mov	ecx, DWORD PTR [ecx+20]
	mov	eax, ebp
	npad	1
$LL18@X509_PURPO:
	mov	dl, BYTE PTR [ecx]
	cmp	dl, BYTE PTR [eax]
	jne	SHORT $LN19@X509_PURPO
	test	dl, dl
	je	SHORT $LN20@X509_PURPO
	mov	dl, BYTE PTR [ecx+1]
	cmp	dl, BYTE PTR [eax+1]
	jne	SHORT $LN19@X509_PURPO
	add	ecx, 2
	add	eax, 2
	test	dl, dl
	jne	SHORT $LL18@X509_PURPO
$LN20@X509_PURPO:
	xor	eax, eax
	jmp	SHORT $LN21@X509_PURPO
$LN19@X509_PURPO:
	sbb	eax, eax
	or	eax, 1
$LN21@X509_PURPO:
	test	eax, eax
	je	SHORT $LN15@X509_PURPO
; Line 175
	inc	esi
	add	ebx, 28					; 0000001cH
	jmp	SHORT $LL4@X509_PURPO
$LN15@X509_PURPO:
	pop	edi
; Line 178
	mov	eax, esi
	pop	esi
	pop	ebp
	pop	ebx
; Line 181
	ret	0
$LN3@X509_PURPO:
	pop	edi
	pop	esi
	pop	ebp
; Line 180
	or	eax, -1
	pop	ebx
; Line 181
	ret	0
_X509_PURPOSE_get_by_sname ENDP
_TEXT	ENDS
; Function compile flags: /Ogtpy
;	COMDAT _X509_PURPOSE_get0
_TEXT	SEGMENT
_idx$ = 8						; size = 4
_X509_PURPOSE_get0 PROC					; COMDAT
; File c:\workpace\openssl\openssl-1.0.2h\crypto\x509v3\v3_purp.c
; Line 164
	mov	ecx, DWORD PTR _idx$[esp-4]
	test	ecx, ecx
	jns	SHORT $LN2@X509_PURPO
; Line 165
	xor	eax, eax
; Line 169
	ret	0
$LN2@X509_PURPO:
; Line 166
	cmp	ecx, 9
	jge	SHORT $LN3@X509_PURPO
; Line 167
	lea	eax, DWORD PTR [ecx*8]
	sub	eax, ecx
	lea	eax, DWORD PTR _xstandard[eax*4]
; Line 169
	ret	0
$LN3@X509_PURPO:
; Line 168
	lea	eax, DWORD PTR [ecx-9]
	push	eax
	push	DWORD PTR _xptable
	call	_sk_value
	add	esp, 8
; Line 169
	ret	0
_X509_PURPOSE_get0 ENDP
_TEXT	ENDS
; Function compile flags: /Ogtpy
;	COMDAT _X509_PURPOSE_get_count
_TEXT	SEGMENT
_X509_PURPOSE_get_count PROC				; COMDAT
; File c:\workpace\openssl\openssl-1.0.2h\crypto\x509v3\v3_purp.c
; Line 157
	mov	eax, DWORD PTR _xptable
	test	eax, eax
	jne	SHORT $LN2@X509_PURPO
; Line 158
	mov	eax, 9
; Line 160
	ret	0
$LN2@X509_PURPO:
; Line 159
	push	eax
	call	_sk_num
	add	esp, 4
	add	eax, 9
; Line 160
	ret	0
_X509_PURPOSE_get_count ENDP
_TEXT	ENDS
; Function compile flags: /Ogtpy
;	COMDAT _X509_check_akid
_TEXT	SEGMENT
_issuer$ = 8						; size = 4
_akid$ = 12						; size = 4
_X509_check_akid PROC					; COMDAT
; File c:\workpace\openssl\openssl-1.0.2h\crypto\x509v3\v3_purp.c
; Line 816
	push	edi
; Line 818
	mov	edi, DWORD PTR _akid$[esp]
	test	edi, edi
	jne	SHORT $LN5@X509_check
; Line 819
	xor	eax, eax
	pop	edi
; Line 852
	ret	0
$LN5@X509_check:
; Line 822
	mov	eax, DWORD PTR [edi]
	push	ebx
	mov	ebx, DWORD PTR _issuer$[esp+4]
	test	eax, eax
	je	SHORT $LN6@X509_check
	mov	ecx, DWORD PTR [ebx+56]
	test	ecx, ecx
	je	SHORT $LN6@X509_check
	push	ecx
	push	eax
	call	_ASN1_OCTET_STRING_cmp
	add	esp, 8
	test	eax, eax
	je	SHORT $LN6@X509_check
; Line 824
	pop	ebx
	mov	eax, 30					; 0000001eH
	pop	edi
; Line 852
	ret	0
$LN6@X509_check:
; Line 826
	mov	eax, DWORD PTR [edi+8]
	test	eax, eax
	je	SHORT $LN7@X509_check
	push	eax
	push	ebx
	call	_X509_get_serialNumber
	add	esp, 4
	push	eax
	call	_ASN1_INTEGER_cmp
	add	esp, 8
	test	eax, eax
	je	SHORT $LN7@X509_check
; Line 828
	pop	ebx
	mov	eax, 31					; 0000001fH
	pop	edi
; Line 852
	ret	0
$LN7@X509_check:
; Line 830
	mov	edi, DWORD PTR [edi+4]
	push	esi
	test	edi, edi
	je	SHORT $LN10@X509_check
; Line 841
	push	edi
	xor	esi, esi
	call	_sk_num
	add	esp, 4
	test	eax, eax
	jle	SHORT $LN10@X509_check
$LL4@X509_check:
; Line 842
	push	esi
	push	edi
	call	_sk_value
	add	esp, 8
; Line 843
	cmp	DWORD PTR [eax], 4
	je	SHORT $LN13@X509_check
; Line 841
	push	edi
	inc	esi
	call	_sk_num
	add	esp, 4
	cmp	esi, eax
	jl	SHORT $LL4@X509_check
$LN10@X509_check:
	pop	esi
	pop	ebx
; Line 851
	xor	eax, eax
	pop	edi
; Line 852
	ret	0
$LN13@X509_check:
; Line 844
	mov	esi, DWORD PTR [eax+4]
; Line 848
	test	esi, esi
	je	SHORT $LN10@X509_check
	push	ebx
	call	_X509_get_issuer_name
	push	eax
	push	esi
	call	_X509_NAME_cmp
	add	esp, 12					; 0000000cH
	test	eax, eax
	je	SHORT $LN10@X509_check
; Line 849
	pop	esi
	pop	ebx
	mov	eax, 31					; 0000001fH
	pop	edi
; Line 852
	ret	0
_X509_check_akid ENDP
_TEXT	ENDS
; Function compile flags: /Ogtpy
;	COMDAT _X509_check_issued
_TEXT	SEGMENT
_issuer$ = 8						; size = 4
_subject$ = 12						; size = 4
_X509_check_issued PROC					; COMDAT
; File c:\workpace\openssl\openssl-1.0.2h\crypto\x509v3\v3_purp.c
; Line 794
	push	esi
	push	edi
; Line 795
	mov	edi, DWORD PTR _subject$[esp+4]
	push	edi
	call	_X509_get_issuer_name
	mov	esi, DWORD PTR _issuer$[esp+8]
	add	esp, 4
	push	eax
	push	esi
	call	_X509_get_subject_name
	add	esp, 4
	push	eax
	call	_X509_NAME_cmp
	add	esp, 8
	test	eax, eax
	je	SHORT $LN2@X509_check
; Line 797
	pop	edi
	mov	eax, 29					; 0000001dH
	pop	esi
; Line 813
	ret	0
$LN2@X509_check:
; Line 798
	push	esi
	call	_x509v3_cache_extensions
; Line 799
	push	edi
	call	_x509v3_cache_extensions
; Line 801
	mov	eax, DWORD PTR [edi+60]
	add	esp, 8
	test	eax, eax
	je	SHORT $LN4@X509_check
; Line 802
	push	eax
	push	esi
	call	_X509_check_akid
	add	esp, 8
; Line 803
	test	eax, eax
	jne	SHORT $LN1@X509_check
$LN4@X509_check:
; Line 807
	test	DWORD PTR [edi+40], 1024		; 00000400H
	je	SHORT $LN5@X509_check
; Line 808
	test	BYTE PTR [esi+40], 2
	je	SHORT $LN8@X509_check
	test	BYTE PTR [esi+44], 128			; 00000080H
	jne	SHORT $LN8@X509_check
; Line 809
	pop	edi
	mov	eax, 39					; 00000027H
	pop	esi
; Line 813
	ret	0
$LN5@X509_check:
; Line 810
	test	BYTE PTR [esi+40], 2
	je	SHORT $LN8@X509_check
	test	BYTE PTR [esi+44], 4
	jne	SHORT $LN8@X509_check
; Line 811
	pop	edi
	mov	eax, 32					; 00000020H
	pop	esi
; Line 813
	ret	0
$LN8@X509_check:
; Line 812
	xor	eax, eax
$LN1@X509_check:
	pop	edi
	pop	esi
; Line 813
	ret	0
_X509_check_issued ENDP
_TEXT	ENDS
; Function compile flags: /Ogtpy
;	COMDAT _X509_PURPOSE_set
_TEXT	SEGMENT
_tmp$1 = -28						; size = 28
_p$ = 8							; size = 4
_purpose$ = 12						; size = 4
_X509_PURPOSE_set PROC					; COMDAT
; File c:\workpace\openssl\openssl-1.0.2h\crypto\x509v3\v3_purp.c
; Line 146
	mov	eax, 28					; 0000001cH
	call	__chkstk
	push	esi
; Line 187
	mov	esi, DWORD PTR _purpose$[esp+28]
	lea	eax, DWORD PTR [esi-1]
	cmp	eax, 8
	ja	SHORT $LN5@X509_PURPO
; Line 188
	lea	eax, DWORD PTR [esi-1]
	jmp	SHORT $LN4@X509_PURPO
$LN5@X509_PURPO:
; Line 190
	mov	eax, DWORD PTR _xptable
	mov	DWORD PTR _tmp$1[esp+32], esi
	test	eax, eax
	je	SHORT $LN9@X509_PURPO
; Line 192
	lea	ecx, DWORD PTR _tmp$1[esp+32]
	push	ecx
	push	eax
	call	_sk_find
	add	esp, 8
; Line 193
	cmp	eax, -1
	je	SHORT $LN9@X509_PURPO
; Line 195
	add	eax, 9
$LN4@X509_PURPO:
; Line 147
	cmp	eax, -1
	je	SHORT $LN9@X509_PURPO
; Line 151
	mov	eax, DWORD PTR _p$[esp+28]
	mov	DWORD PTR [eax], esi
; Line 152
	mov	eax, 1
	pop	esi
; Line 153
	add	esp, 28					; 0000001cH
	ret	0
$LN9@X509_PURPO:
; Line 148
	push	148					; 00000094H
	push	OFFSET ??_C@_0BK@COINEMNE@?4?2crypto?2x509v3?2v3_purp?4c?$AA@
	push	146					; 00000092H
	push	141					; 0000008dH
	push	34					; 00000022H
	call	_ERR_put_error
	add	esp, 20					; 00000014H
; Line 149
	xor	eax, eax
	pop	esi
; Line 153
	add	esp, 28					; 0000001cH
	ret	0
_X509_PURPOSE_set ENDP
_TEXT	ENDS
; Function compile flags: /Ogtpy
;	COMDAT _X509_supported_extension
_TEXT	SEGMENT
_ex_nid$ = -4						; size = 4
_ex$ = 8						; size = 4
_X509_supported_extension PROC				; COMDAT
; File c:\workpace\openssl\openssl-1.0.2h\crypto\x509v3\v3_purp.c
; Line 309
	mov	eax, 4
	call	__chkstk
; Line 336
	push	DWORD PTR _ex$[esp]
	call	_X509_EXTENSION_get_object
	push	eax
	call	_OBJ_obj2nid
	add	esp, 8
	mov	DWORD PTR _ex_nid$[esp+4], eax
; Line 338
	test	eax, eax
	jne	SHORT $LN2@X509_suppo
; Line 345
	pop	ecx
	ret	0
$LN2@X509_suppo:
; Line 306
	push	OFFSET _nid_cmp_BSEARCH_CMP_FN
	push	4
	push	11					; 0000000bH
	lea	eax, DWORD PTR _ex_nid$[esp+16]
	push	OFFSET ?supported_nids@?1??X509_supported_extension@@9@9
	push	eax
	call	_OBJ_bsearch_
	add	esp, 20					; 00000014H
; Line 341
	neg	eax
	sbb	eax, eax
	neg	eax
; Line 345
	pop	ecx
	ret	0
_X509_supported_extension ENDP
_TEXT	ENDS
; Function compile flags: /Ogtpy
;	COMDAT _X509_check_purpose
_TEXT	SEGMENT
_tmp$1 = -28						; size = 28
_x$ = 8							; size = 4
_id$ = 12						; size = 4
_ca$ = 16						; size = 4
_X509_check_purpose PROC				; COMDAT
; File c:\workpace\openssl\openssl-1.0.2h\crypto\x509v3\v3_purp.c
; Line 128
	mov	eax, 28					; 0000001cH
	call	__chkstk
	push	esi
; Line 131
	mov	esi, DWORD PTR _x$[esp+28]
	test	DWORD PTR [esi+40], 256			; 00000100H
	jne	SHORT $LN2@X509_check
; Line 132
	push	132					; 00000084H
	push	OFFSET ??_C@_0BK@COINEMNE@?4?2crypto?2x509v3?2v3_purp?4c?$AA@
	push	3
	push	9
	call	_CRYPTO_lock
; Line 133
	push	esi
	call	_x509v3_cache_extensions
; Line 134
	push	134					; 00000086H
	push	OFFSET ??_C@_0BK@COINEMNE@?4?2crypto?2x509v3?2v3_purp?4c?$AA@
	push	3
	push	10					; 0000000aH
	call	_CRYPTO_lock
	add	esp, 36					; 00000024H
$LN2@X509_check:
; Line 136
	mov	ecx, DWORD PTR _id$[esp+28]
	cmp	ecx, -1
	jne	SHORT $LN3@X509_check
; Line 137
	lea	eax, DWORD PTR [ecx+2]
	pop	esi
; Line 143
	add	esp, 28					; 0000001cH
	ret	0
$LN3@X509_check:
; Line 187
	lea	eax, DWORD PTR [ecx-1]
	cmp	eax, 8
	ja	SHORT $LN7@X509_check
; Line 188
	dec	ecx
	jmp	SHORT $LN6@X509_check
$LN7@X509_check:
; Line 190
	mov	eax, DWORD PTR _xptable
	mov	DWORD PTR _tmp$1[esp+32], ecx
	test	eax, eax
	je	$LN15@X509_check
; Line 192
	lea	ecx, DWORD PTR _tmp$1[esp+32]
	push	ecx
	push	eax
	call	_sk_find
	add	esp, 8
; Line 193
	cmp	eax, -1
	je	SHORT $LN15@X509_check
; Line 195
	lea	ecx, DWORD PTR [eax+9]
$LN6@X509_check:
; Line 139
	cmp	ecx, -1
	je	SHORT $LN15@X509_check
; Line 164
	test	ecx, ecx
	jns	SHORT $LN12@X509_check
; Line 142
	push	DWORD PTR _ca$[esp+28]
; Line 165
	xor	eax, eax
; Line 142
	push	esi
	push	eax
	mov	eax, DWORD PTR [eax+12]
	call	eax
	add	esp, 12					; 0000000cH
	pop	esi
; Line 143
	add	esp, 28					; 0000001cH
	ret	0
$LN12@X509_check:
; Line 166
	cmp	ecx, 9
	jge	SHORT $LN13@X509_check
; Line 142
	push	DWORD PTR _ca$[esp+28]
; Line 167
	lea	eax, DWORD PTR [ecx*8]
	sub	eax, ecx
; Line 142
	push	esi
; Line 167
	lea	eax, DWORD PTR _xstandard[eax*4]
; Line 142
	push	eax
	mov	eax, DWORD PTR [eax+12]
	call	eax
	add	esp, 12					; 0000000cH
	pop	esi
; Line 143
	add	esp, 28					; 0000001cH
	ret	0
$LN13@X509_check:
; Line 168
	lea	eax, DWORD PTR [ecx-9]
	push	eax
	push	DWORD PTR _xptable
	call	_sk_value
	add	esp, 8
; Line 142
	push	DWORD PTR _ca$[esp+28]
	push	esi
	push	eax
	mov	eax, DWORD PTR [eax+12]
	call	eax
	add	esp, 12					; 0000000cH
	pop	esi
; Line 143
	add	esp, 28					; 0000001cH
	ret	0
$LN15@X509_check:
; Line 140
	or	eax, -1
	pop	esi
; Line 143
	add	esp, 28					; 0000001cH
	ret	0
_X509_check_purpose ENDP
_TEXT	ENDS
; Function compile flags: /Ogtpy
;	COMDAT _X509_check_ca
_TEXT	SEGMENT
_x$ = 8							; size = 4
_X509_check_ca PROC					; COMDAT
; File c:\workpace\openssl\openssl-1.0.2h\crypto\x509v3\v3_purp.c
; Line 579
	push	esi
; Line 580
	mov	esi, DWORD PTR _x$[esp]
	test	DWORD PTR [esi+40], 256			; 00000100H
	jne	SHORT $LN2@X509_check
; Line 581
	push	581					; 00000245H
	push	OFFSET ??_C@_0BK@COINEMNE@?4?2crypto?2x509v3?2v3_purp?4c?$AA@
	push	3
	push	9
	call	_CRYPTO_lock
; Line 582
	push	esi
	call	_x509v3_cache_extensions
; Line 583
	push	583					; 00000247H
	push	OFFSET ??_C@_0BK@COINEMNE@?4?2crypto?2x509v3?2v3_purp?4c?$AA@
	push	3
	push	10					; 0000000aH
	call	_CRYPTO_lock
	add	esp, 36					; 00000024H
$LN2@X509_check:
; Line 586
	push	esi
	call	_check_ca
	add	esp, 4
	pop	esi
; Line 587
	ret	0
_X509_check_ca ENDP
_TEXT	ENDS
END
