; Listing generated by Microsoft (R) Optimizing Compiler Version 19.00.23918.0 

	TITLE	C:\workpace\openssl\openssl-1.0.2h\crypto\x509v3\v3_pcia.c
	.686P
	.XMM
	include listing.inc
	.model	flat

INCLUDELIB MSVCRT
INCLUDELIB OLDNAMES

PUBLIC	_PROXY_POLICY_it
PUBLIC	??_C@_0P@BLMEJDMO@policyLanguage?$AA@		; `string'
PUBLIC	??_C@_06NJNJNICG@policy?$AA@			; `string'
PUBLIC	??_C@_0N@CLKEFBDI@PROXY_POLICY?$AA@		; `string'
PUBLIC	??_C@_0BH@JBGKCLHC@pcPathLengthConstraint?$AA@	; `string'
PUBLIC	??_C@_0M@KKFBCGOG@proxyPolicy?$AA@		; `string'
PUBLIC	??_C@_0BK@PILNOGHK@PROXY_CERT_INFO_EXTENSION?$AA@ ; `string'
EXTRN	_ASN1_OBJECT_it:PROC
EXTRN	_ASN1_INTEGER_it:PROC
EXTRN	_ASN1_OCTET_STRING_it:PROC
;	COMDAT ??_C@_0BK@PILNOGHK@PROXY_CERT_INFO_EXTENSION?$AA@
CONST	SEGMENT
??_C@_0BK@PILNOGHK@PROXY_CERT_INFO_EXTENSION?$AA@ DB 'PROXY_CERT_INFO_EXT'
	DB	'ENSION', 00H				; `string'
CONST	ENDS
;	COMDAT ??_C@_0M@KKFBCGOG@proxyPolicy?$AA@
CONST	SEGMENT
??_C@_0M@KKFBCGOG@proxyPolicy?$AA@ DB 'proxyPolicy', 00H ; `string'
CONST	ENDS
;	COMDAT ??_C@_0BH@JBGKCLHC@pcPathLengthConstraint?$AA@
CONST	SEGMENT
??_C@_0BH@JBGKCLHC@pcPathLengthConstraint?$AA@ DB 'pcPathLengthConstraint'
	DB	00H						; `string'
CONST	ENDS
;	COMDAT ??_C@_0N@CLKEFBDI@PROXY_POLICY?$AA@
CONST	SEGMENT
??_C@_0N@CLKEFBDI@PROXY_POLICY?$AA@ DB 'PROXY_POLICY', 00H ; `string'
CONST	ENDS
;	COMDAT ??_C@_06NJNJNICG@policy?$AA@
CONST	SEGMENT
??_C@_06NJNJNICG@policy?$AA@ DB 'policy', 00H		; `string'
CONST	ENDS
;	COMDAT ??_C@_0P@BLMEJDMO@policyLanguage?$AA@
CONST	SEGMENT
??_C@_0P@BLMEJDMO@policyLanguage?$AA@ DB 'policyLanguage', 00H ; `string'
CONST	ENDS
CONST	SEGMENT
_PROXY_POLICY_seq_tt DD 00H
	DD	00H
	DD	00H
	DD	FLAT:??_C@_0P@BLMEJDMO@policyLanguage?$AA@
	DD	FLAT:_ASN1_OBJECT_it
	DD	01H
	DD	00H
	DD	04H
	DD	FLAT:??_C@_06NJNJNICG@policy?$AA@
	DD	FLAT:_ASN1_OCTET_STRING_it
?local_it@?1??PROXY_POLICY_it@@9@9 DB 01H		; `PROXY_POLICY_it'::`2'::local_it
	ORG $+3
	DD	010H
	DD	FLAT:_PROXY_POLICY_seq_tt
	DD	02H
	DD	00H
	DD	08H
	DD	FLAT:??_C@_0N@CLKEFBDI@PROXY_POLICY?$AA@
_PROXY_CERT_INFO_EXTENSION_seq_tt DD 01H
	DD	00H
	DD	00H
	DD	FLAT:??_C@_0BH@JBGKCLHC@pcPathLengthConstraint?$AA@
	DD	FLAT:_ASN1_INTEGER_it
	DD	00H
	DD	00H
	DD	04H
	DD	FLAT:??_C@_0M@KKFBCGOG@proxyPolicy?$AA@
	DD	FLAT:_PROXY_POLICY_it
?local_it@?1??PROXY_CERT_INFO_EXTENSION_it@@9@9 DB 01H	; `PROXY_CERT_INFO_EXTENSION_it'::`2'::local_it
	ORG $+3
	DD	010H
	DD	FLAT:_PROXY_CERT_INFO_EXTENSION_seq_tt
	DD	02H
	DD	00H
	DD	08H
	DD	FLAT:??_C@_0BK@PILNOGHK@PROXY_CERT_INFO_EXTENSION?$AA@
CONST	ENDS
PUBLIC	_PROXY_POLICY_new
PUBLIC	_PROXY_POLICY_free
PUBLIC	_d2i_PROXY_POLICY
PUBLIC	_i2d_PROXY_POLICY
PUBLIC	_PROXY_CERT_INFO_EXTENSION_new
PUBLIC	_PROXY_CERT_INFO_EXTENSION_free
PUBLIC	_d2i_PROXY_CERT_INFO_EXTENSION
PUBLIC	_i2d_PROXY_CERT_INFO_EXTENSION
PUBLIC	_PROXY_CERT_INFO_EXTENSION_it
EXTRN	_ASN1_item_new:PROC
EXTRN	_ASN1_item_free:PROC
EXTRN	_ASN1_item_d2i:PROC
EXTRN	_ASN1_item_i2d:PROC
; Function compile flags: /Ogtpy
;	COMDAT _PROXY_CERT_INFO_EXTENSION_it
_TEXT	SEGMENT
_PROXY_CERT_INFO_EXTENSION_it PROC			; COMDAT
; File c:\workpace\openssl\openssl-1.0.2h\crypto\x509v3\v3_pcia.c
; Line 54
	mov	eax, OFFSET ?local_it@?1??PROXY_CERT_INFO_EXTENSION_it@@9@9
	ret	0
_PROXY_CERT_INFO_EXTENSION_it ENDP
_TEXT	ENDS
; Function compile flags: /Ogtpy
;	COMDAT _i2d_PROXY_CERT_INFO_EXTENSION
_TEXT	SEGMENT
_a$ = 8							; size = 4
_out$ = 12						; size = 4
_i2d_PROXY_CERT_INFO_EXTENSION PROC			; COMDAT
; File c:\workpace\openssl\openssl-1.0.2h\crypto\x509v3\v3_pcia.c
; Line 56
	push	OFFSET ?local_it@?1??PROXY_CERT_INFO_EXTENSION_it@@9@9
	push	DWORD PTR _out$[esp]
	push	DWORD PTR _a$[esp+4]
	call	_ASN1_item_i2d
	add	esp, 12					; 0000000cH
	ret	0
_i2d_PROXY_CERT_INFO_EXTENSION ENDP
_TEXT	ENDS
; Function compile flags: /Ogtpy
;	COMDAT _d2i_PROXY_CERT_INFO_EXTENSION
_TEXT	SEGMENT
_a$ = 8							; size = 4
_in$ = 12						; size = 4
_len$ = 16						; size = 4
_d2i_PROXY_CERT_INFO_EXTENSION PROC			; COMDAT
; File c:\workpace\openssl\openssl-1.0.2h\crypto\x509v3\v3_pcia.c
; Line 56
	push	OFFSET ?local_it@?1??PROXY_CERT_INFO_EXTENSION_it@@9@9
	push	DWORD PTR _len$[esp]
	push	DWORD PTR _in$[esp+4]
	push	DWORD PTR _a$[esp+8]
	call	_ASN1_item_d2i
	add	esp, 16					; 00000010H
	ret	0
_d2i_PROXY_CERT_INFO_EXTENSION ENDP
_TEXT	ENDS
; Function compile flags: /Ogtpy
;	COMDAT _PROXY_CERT_INFO_EXTENSION_free
_TEXT	SEGMENT
_a$ = 8							; size = 4
_PROXY_CERT_INFO_EXTENSION_free PROC			; COMDAT
; File c:\workpace\openssl\openssl-1.0.2h\crypto\x509v3\v3_pcia.c
; Line 56
	push	OFFSET ?local_it@?1??PROXY_CERT_INFO_EXTENSION_it@@9@9
	push	DWORD PTR _a$[esp]
	call	_ASN1_item_free
	add	esp, 8
	ret	0
_PROXY_CERT_INFO_EXTENSION_free ENDP
_TEXT	ENDS
; Function compile flags: /Ogtpy
;	COMDAT _PROXY_CERT_INFO_EXTENSION_new
_TEXT	SEGMENT
_PROXY_CERT_INFO_EXTENSION_new PROC			; COMDAT
; File c:\workpace\openssl\openssl-1.0.2h\crypto\x509v3\v3_pcia.c
; Line 56
	push	OFFSET ?local_it@?1??PROXY_CERT_INFO_EXTENSION_it@@9@9
	call	_ASN1_item_new
	add	esp, 4
	ret	0
_PROXY_CERT_INFO_EXTENSION_new ENDP
_TEXT	ENDS
; Function compile flags: /Ogtpy
;	COMDAT _PROXY_POLICY_it
_TEXT	SEGMENT
_PROXY_POLICY_it PROC					; COMDAT
; File c:\workpace\openssl\openssl-1.0.2h\crypto\x509v3\v3_pcia.c
; Line 46
	mov	eax, OFFSET ?local_it@?1??PROXY_POLICY_it@@9@9
	ret	0
_PROXY_POLICY_it ENDP
_TEXT	ENDS
; Function compile flags: /Ogtpy
;	COMDAT _i2d_PROXY_POLICY
_TEXT	SEGMENT
_a$ = 8							; size = 4
_out$ = 12						; size = 4
_i2d_PROXY_POLICY PROC					; COMDAT
; File c:\workpace\openssl\openssl-1.0.2h\crypto\x509v3\v3_pcia.c
; Line 48
	push	OFFSET ?local_it@?1??PROXY_POLICY_it@@9@9
	push	DWORD PTR _out$[esp]
	push	DWORD PTR _a$[esp+4]
	call	_ASN1_item_i2d
	add	esp, 12					; 0000000cH
	ret	0
_i2d_PROXY_POLICY ENDP
_TEXT	ENDS
; Function compile flags: /Ogtpy
;	COMDAT _d2i_PROXY_POLICY
_TEXT	SEGMENT
_a$ = 8							; size = 4
_in$ = 12						; size = 4
_len$ = 16						; size = 4
_d2i_PROXY_POLICY PROC					; COMDAT
; File c:\workpace\openssl\openssl-1.0.2h\crypto\x509v3\v3_pcia.c
; Line 48
	push	OFFSET ?local_it@?1??PROXY_POLICY_it@@9@9
	push	DWORD PTR _len$[esp]
	push	DWORD PTR _in$[esp+4]
	push	DWORD PTR _a$[esp+8]
	call	_ASN1_item_d2i
	add	esp, 16					; 00000010H
	ret	0
_d2i_PROXY_POLICY ENDP
_TEXT	ENDS
; Function compile flags: /Ogtpy
;	COMDAT _PROXY_POLICY_free
_TEXT	SEGMENT
_a$ = 8							; size = 4
_PROXY_POLICY_free PROC					; COMDAT
; File c:\workpace\openssl\openssl-1.0.2h\crypto\x509v3\v3_pcia.c
; Line 48
	push	OFFSET ?local_it@?1??PROXY_POLICY_it@@9@9
	push	DWORD PTR _a$[esp]
	call	_ASN1_item_free
	add	esp, 8
	ret	0
_PROXY_POLICY_free ENDP
_TEXT	ENDS
; Function compile flags: /Ogtpy
;	COMDAT _PROXY_POLICY_new
_TEXT	SEGMENT
_PROXY_POLICY_new PROC					; COMDAT
; File c:\workpace\openssl\openssl-1.0.2h\crypto\x509v3\v3_pcia.c
; Line 48
	push	OFFSET ?local_it@?1??PROXY_POLICY_it@@9@9
	call	_ASN1_item_new
	add	esp, 4
	ret	0
_PROXY_POLICY_new ENDP
_TEXT	ENDS
END
