; Listing generated by Microsoft (R) Optimizing Compiler Version 19.00.23918.0 

	TITLE	C:\workpace\openssl\openssl-1.0.2h\crypto\asn1\x_algor.c
	.686P
	.XMM
	include listing.inc
	.model	flat

INCLUDELIB MSVCRT
INCLUDELIB OLDNAMES

PUBLIC	_X509_ALGOR_it
PUBLIC	??_C@_09JPNFBOJG@algorithm?$AA@			; `string'
PUBLIC	??_C@_09DAGAJHIH@parameter?$AA@			; `string'
PUBLIC	??_C@_0L@BFHONDPK@X509_ALGOR?$AA@		; `string'
PUBLIC	??_C@_0L@BNOBMJFK@algorithms?$AA@		; `string'
PUBLIC	??_C@_0M@MMOLGLEG@X509_ALGORS?$AA@		; `string'
EXTRN	_ASN1_ANY_it:PROC
EXTRN	_ASN1_OBJECT_it:PROC
;	COMDAT ??_C@_0M@MMOLGLEG@X509_ALGORS?$AA@
CONST	SEGMENT
??_C@_0M@MMOLGLEG@X509_ALGORS?$AA@ DB 'X509_ALGORS', 00H ; `string'
CONST	ENDS
;	COMDAT ??_C@_0L@BNOBMJFK@algorithms?$AA@
CONST	SEGMENT
??_C@_0L@BNOBMJFK@algorithms?$AA@ DB 'algorithms', 00H	; `string'
CONST	ENDS
;	COMDAT ??_C@_0L@BFHONDPK@X509_ALGOR?$AA@
CONST	SEGMENT
??_C@_0L@BFHONDPK@X509_ALGOR?$AA@ DB 'X509_ALGOR', 00H	; `string'
CONST	ENDS
;	COMDAT ??_C@_09DAGAJHIH@parameter?$AA@
CONST	SEGMENT
??_C@_09DAGAJHIH@parameter?$AA@ DB 'parameter', 00H	; `string'
CONST	ENDS
;	COMDAT ??_C@_09JPNFBOJG@algorithm?$AA@
CONST	SEGMENT
??_C@_09JPNFBOJG@algorithm?$AA@ DB 'algorithm', 00H	; `string'
CONST	ENDS
CONST	SEGMENT
_X509_ALGOR_seq_tt DD 00H
	DD	00H
	DD	00H
	DD	FLAT:??_C@_09JPNFBOJG@algorithm?$AA@
	DD	FLAT:_ASN1_OBJECT_it
	DD	01H
	DD	00H
	DD	04H
	DD	FLAT:??_C@_09DAGAJHIH@parameter?$AA@
	DD	FLAT:_ASN1_ANY_it
?local_it@?1??X509_ALGOR_it@@9@9 DB 01H			; `X509_ALGOR_it'::`2'::local_it
	ORG $+3
	DD	010H
	DD	FLAT:_X509_ALGOR_seq_tt
	DD	02H
	DD	00H
	DD	08H
	DD	FLAT:??_C@_0L@BFHONDPK@X509_ALGOR?$AA@
_X509_ALGORS_item_tt DD 04H
	DD	00H
	DD	00H
	DD	FLAT:??_C@_0L@BNOBMJFK@algorithms?$AA@
	DD	FLAT:_X509_ALGOR_it
?local_it@?1??X509_ALGORS_it@@9@9 DB 00H		; `X509_ALGORS_it'::`2'::local_it
	ORG $+3
	DD	0ffffffffH
	DD	FLAT:_X509_ALGORS_item_tt
	DD	00H
	DD	00H
	DD	00H
	DD	FLAT:??_C@_0M@MMOLGLEG@X509_ALGORS?$AA@
CONST	ENDS
PUBLIC	_X509_ALGOR_dup
PUBLIC	_X509_ALGOR_set0
PUBLIC	_X509_ALGOR_get0
PUBLIC	_X509_ALGOR_set_md
PUBLIC	_X509_ALGOR_cmp
PUBLIC	_X509_ALGOR_new
PUBLIC	_X509_ALGOR_free
PUBLIC	_d2i_X509_ALGOR
PUBLIC	_i2d_X509_ALGOR
PUBLIC	_d2i_X509_ALGORS
PUBLIC	_i2d_X509_ALGORS
PUBLIC	_X509_ALGORS_it
EXTRN	_ASN1_TYPE_new:PROC
EXTRN	_ASN1_TYPE_free:PROC
EXTRN	_ASN1_TYPE_set:PROC
EXTRN	_ASN1_TYPE_cmp:PROC
EXTRN	_ASN1_OBJECT_free:PROC
EXTRN	_ASN1_item_dup:PROC
EXTRN	_ASN1_item_new:PROC
EXTRN	_ASN1_item_free:PROC
EXTRN	_ASN1_item_d2i:PROC
EXTRN	_ASN1_item_i2d:PROC
EXTRN	_OBJ_nid2obj:PROC
EXTRN	_OBJ_cmp:PROC
EXTRN	_EVP_MD_type:PROC
; Function compile flags: /Ogtpy
;	COMDAT _X509_ALGORS_it
_TEXT	SEGMENT
_X509_ALGORS_it PROC					; COMDAT
; File c:\workpace\openssl\openssl-1.0.2h\crypto\asn1\x_algor.c
; Line 72
	mov	eax, OFFSET ?local_it@?1??X509_ALGORS_it@@9@9
	ret	0
_X509_ALGORS_it ENDP
_TEXT	ENDS
; Function compile flags: /Ogtpy
;	COMDAT _i2d_X509_ALGORS
_TEXT	SEGMENT
_a$ = 8							; size = 4
_out$ = 12						; size = 4
_i2d_X509_ALGORS PROC					; COMDAT
; File c:\workpace\openssl\openssl-1.0.2h\crypto\asn1\x_algor.c
; Line 75
	push	OFFSET ?local_it@?1??X509_ALGORS_it@@9@9
	push	DWORD PTR _out$[esp]
	push	DWORD PTR _a$[esp+4]
	call	_ASN1_item_i2d
	add	esp, 12					; 0000000cH
	ret	0
_i2d_X509_ALGORS ENDP
_TEXT	ENDS
; Function compile flags: /Ogtpy
;	COMDAT _d2i_X509_ALGORS
_TEXT	SEGMENT
_a$ = 8							; size = 4
_in$ = 12						; size = 4
_len$ = 16						; size = 4
_d2i_X509_ALGORS PROC					; COMDAT
; File c:\workpace\openssl\openssl-1.0.2h\crypto\asn1\x_algor.c
; Line 75
	push	OFFSET ?local_it@?1??X509_ALGORS_it@@9@9
	push	DWORD PTR _len$[esp]
	push	DWORD PTR _in$[esp+4]
	push	DWORD PTR _a$[esp+8]
	call	_ASN1_item_d2i
	add	esp, 16					; 00000010H
	ret	0
_d2i_X509_ALGORS ENDP
_TEXT	ENDS
; Function compile flags: /Ogtpy
;	COMDAT _X509_ALGOR_it
_TEXT	SEGMENT
_X509_ALGOR_it PROC					; COMDAT
; File c:\workpace\openssl\openssl-1.0.2h\crypto\asn1\x_algor.c
; Line 68
	mov	eax, OFFSET ?local_it@?1??X509_ALGOR_it@@9@9
	ret	0
_X509_ALGOR_it ENDP
_TEXT	ENDS
; Function compile flags: /Ogtpy
;	COMDAT _i2d_X509_ALGOR
_TEXT	SEGMENT
_a$ = 8							; size = 4
_out$ = 12						; size = 4
_i2d_X509_ALGOR PROC					; COMDAT
; File c:\workpace\openssl\openssl-1.0.2h\crypto\asn1\x_algor.c
; Line 74
	push	OFFSET ?local_it@?1??X509_ALGOR_it@@9@9
	push	DWORD PTR _out$[esp]
	push	DWORD PTR _a$[esp+4]
	call	_ASN1_item_i2d
	add	esp, 12					; 0000000cH
	ret	0
_i2d_X509_ALGOR ENDP
_TEXT	ENDS
; Function compile flags: /Ogtpy
;	COMDAT _d2i_X509_ALGOR
_TEXT	SEGMENT
_a$ = 8							; size = 4
_in$ = 12						; size = 4
_len$ = 16						; size = 4
_d2i_X509_ALGOR PROC					; COMDAT
; File c:\workpace\openssl\openssl-1.0.2h\crypto\asn1\x_algor.c
; Line 74
	push	OFFSET ?local_it@?1??X509_ALGOR_it@@9@9
	push	DWORD PTR _len$[esp]
	push	DWORD PTR _in$[esp+4]
	push	DWORD PTR _a$[esp+8]
	call	_ASN1_item_d2i
	add	esp, 16					; 00000010H
	ret	0
_d2i_X509_ALGOR ENDP
_TEXT	ENDS
; Function compile flags: /Ogtpy
;	COMDAT _X509_ALGOR_free
_TEXT	SEGMENT
_a$ = 8							; size = 4
_X509_ALGOR_free PROC					; COMDAT
; File c:\workpace\openssl\openssl-1.0.2h\crypto\asn1\x_algor.c
; Line 74
	push	OFFSET ?local_it@?1??X509_ALGOR_it@@9@9
	push	DWORD PTR _a$[esp]
	call	_ASN1_item_free
	add	esp, 8
	ret	0
_X509_ALGOR_free ENDP
_TEXT	ENDS
; Function compile flags: /Ogtpy
;	COMDAT _X509_ALGOR_new
_TEXT	SEGMENT
_X509_ALGOR_new PROC					; COMDAT
; File c:\workpace\openssl\openssl-1.0.2h\crypto\asn1\x_algor.c
; Line 74
	push	OFFSET ?local_it@?1??X509_ALGOR_it@@9@9
	call	_ASN1_item_new
	add	esp, 4
	ret	0
_X509_ALGOR_new ENDP
_TEXT	ENDS
; Function compile flags: /Ogtpy
;	COMDAT _X509_ALGOR_cmp
_TEXT	SEGMENT
_a$ = 8							; size = 4
_b$ = 12						; size = 4
_X509_ALGOR_cmp PROC					; COMDAT
; File c:\workpace\openssl\openssl-1.0.2h\crypto\asn1\x_algor.c
; Line 140
	push	esi
; Line 142
	mov	esi, DWORD PTR _b$[esp]
	push	edi
	mov	edi, DWORD PTR _a$[esp+4]
	push	DWORD PTR [esi]
	push	DWORD PTR [edi]
	call	_OBJ_cmp
	add	esp, 8
; Line 143
	test	eax, eax
	jne	SHORT $LN1@X509_ALGOR
; Line 145
	mov	eax, DWORD PTR [edi+4]
	test	eax, eax
	jne	SHORT $LN3@X509_ALGOR
	cmp	DWORD PTR [esi+4], eax
	jne	SHORT $LN3@X509_ALGOR
	pop	edi
	pop	esi
; Line 148
	ret	0
$LN3@X509_ALGOR:
; Line 147
	push	DWORD PTR [esi+4]
	push	eax
	call	_ASN1_TYPE_cmp
	add	esp, 8
$LN1@X509_ALGOR:
; Line 148
	pop	edi
	pop	esi
	ret	0
_X509_ALGOR_cmp ENDP
_TEXT	ENDS
; Function compile flags: /Ogtpy
;	COMDAT _X509_ALGOR_set_md
_TEXT	SEGMENT
_alg$ = 8						; size = 4
_md$ = 12						; size = 4
_X509_ALGOR_set_md PROC					; COMDAT
; File c:\workpace\openssl\openssl-1.0.2h\crypto\asn1\x_algor.c
; Line 130
	mov	ecx, DWORD PTR _md$[esp-4]
	mov	edx, -1
	mov	eax, 5
; Line 135
	push	0
	test	BYTE PTR [ecx+12], 8
	cmovne	eax, edx
	push	eax
	push	ecx
	call	_EVP_MD_type
	push	eax
	call	_OBJ_nid2obj
	add	esp, 8
	push	eax
	push	DWORD PTR _alg$[esp+8]
	call	_X509_ALGOR_set0
	add	esp, 16					; 00000010H
; Line 137
	ret	0
_X509_ALGOR_set_md ENDP
_TEXT	ENDS
; Function compile flags: /Ogtpy
;	COMDAT _X509_ALGOR_get0
_TEXT	SEGMENT
_paobj$ = 8						; size = 4
_pptype$ = 12						; size = 4
_ppval$ = 16						; size = 4
_algor$ = 20						; size = 4
_X509_ALGOR_get0 PROC					; COMDAT
; File c:\workpace\openssl\openssl-1.0.2h\crypto\asn1\x_algor.c
; Line 111
	mov	ecx, DWORD PTR _paobj$[esp-4]
	mov	edx, DWORD PTR _algor$[esp-4]
	test	ecx, ecx
	je	SHORT $LN2@X509_ALGOR
; Line 112
	mov	eax, DWORD PTR [edx]
	mov	DWORD PTR [ecx], eax
$LN2@X509_ALGOR:
; Line 113
	mov	ecx, DWORD PTR _pptype$[esp-4]
	test	ecx, ecx
	je	SHORT $LN6@X509_ALGOR
; Line 114
	mov	eax, DWORD PTR [edx+4]
	test	eax, eax
	jne	SHORT $LN4@X509_ALGOR
; Line 115
	mov	DWORD PTR [ecx], -1
; Line 122
	ret	0
$LN4@X509_ALGOR:
; Line 118
	mov	eax, DWORD PTR [eax]
	mov	DWORD PTR [ecx], eax
; Line 119
	mov	ecx, DWORD PTR _ppval$[esp-4]
	test	ecx, ecx
	je	SHORT $LN6@X509_ALGOR
; Line 120
	mov	eax, DWORD PTR [edx+4]
	mov	eax, DWORD PTR [eax+4]
	mov	DWORD PTR [ecx], eax
$LN6@X509_ALGOR:
; Line 122
	ret	0
_X509_ALGOR_get0 ENDP
_TEXT	ENDS
; Function compile flags: /Ogtpy
;	COMDAT _X509_ALGOR_set0
_TEXT	SEGMENT
_alg$ = 8						; size = 4
_aobj$ = 12						; size = 4
_ptype$ = 16						; size = 4
_pval$ = 20						; size = 4
_X509_ALGOR_set0 PROC					; COMDAT
; File c:\workpace\openssl\openssl-1.0.2h\crypto\asn1\x_algor.c
; Line 82
	push	esi
; Line 83
	mov	esi, DWORD PTR _alg$[esp]
	test	esi, esi
	jne	SHORT $LN2@X509_ALGOR
; Line 84
	xor	eax, eax
	pop	esi
; Line 106
	ret	0
$LN2@X509_ALGOR:
	push	edi
; Line 85
	mov	edi, DWORD PTR _ptype$[esp+4]
	cmp	edi, -1
	je	SHORT $LN5@X509_ALGOR
; Line 86
	cmp	DWORD PTR [esi+4], 0
	jne	SHORT $LN5@X509_ALGOR
; Line 87
	call	_ASN1_TYPE_new
	mov	DWORD PTR [esi+4], eax
; Line 88
	test	eax, eax
	jne	SHORT $LN5@X509_ALGOR
	pop	edi
	pop	esi
; Line 106
	ret	0
$LN5@X509_ALGOR:
; Line 92
	mov	eax, DWORD PTR [esi]
	test	eax, eax
	je	SHORT $LN7@X509_ALGOR
; Line 93
	push	eax
	call	_ASN1_OBJECT_free
	add	esp, 4
$LN7@X509_ALGOR:
; Line 94
	mov	eax, DWORD PTR _aobj$[esp+4]
	mov	DWORD PTR [esi], eax
; Line 96
	test	edi, edi
	je	SHORT $LN10@X509_ALGOR
; Line 98
	cmp	edi, -1
	jne	SHORT $LN9@X509_ALGOR
; Line 99
	mov	eax, DWORD PTR [esi+4]
	test	eax, eax
	je	SHORT $LN10@X509_ALGOR
; Line 100
	push	eax
	call	_ASN1_TYPE_free
	add	esp, 4
; Line 101
	mov	DWORD PTR [esi+4], 0
; Line 105
	lea	eax, DWORD PTR [edi+2]
	pop	edi
	pop	esi
; Line 106
	ret	0
$LN9@X509_ALGOR:
; Line 104
	push	DWORD PTR _pval$[esp+4]
	push	edi
	push	DWORD PTR [esi+4]
	call	_ASN1_TYPE_set
	add	esp, 12					; 0000000cH
$LN10@X509_ALGOR:
; Line 105
	pop	edi
	mov	eax, 1
	pop	esi
; Line 106
	ret	0
_X509_ALGOR_set0 ENDP
_TEXT	ENDS
; Function compile flags: /Ogtpy
;	COMDAT _X509_ALGOR_dup
_TEXT	SEGMENT
_x$ = 8							; size = 4
_X509_ALGOR_dup PROC					; COMDAT
; File c:\workpace\openssl\openssl-1.0.2h\crypto\asn1\x_algor.c
; Line 76
	push	DWORD PTR _x$[esp-4]
	push	OFFSET ?local_it@?1??X509_ALGOR_it@@9@9
	call	_ASN1_item_dup
	add	esp, 8
	ret	0
_X509_ALGOR_dup ENDP
_TEXT	ENDS
END
