; Listing generated by Microsoft (R) Optimizing Compiler Version 16.00.40219.01 

	TITLE	D:\mozilla\intl\icu\source\tools\pkgdata\pkgdata.cpp
	.686P
	.XMM
	include listing.inc
	.model	flat

INCLUDELIB MSVCRTD

PUBLIC	??_C@_07JHKGPBPO@PKGDATA?$AA@			; `string'
PUBLIC	??_C@_0M@BBPAIHBL@INSTALL_CMD?$AA@		; `string'
PUBLIC	??_C@_06JJNIJLLD@RANLIB?$AA@			; `string'
PUBLIC	??_C@_07EIEJOMMI@ARFLAGS?$AA@			; `string'
PUBLIC	??_C@_02PJGLPOMM@AR?$AA@			; `string'
PUBLIC	??_C@_0M@KIOCJPDM@BIR_LDFLAGS?$AA@		; `string'
PUBLIC	??_C@_0M@NOBOOKHG@RPATH_FLAGS?$AA@		; `string'
PUBLIC	??_C@_09EKJPPEPG@LD_SONAME?$AA@			; `string'
PUBLIC	??_C@_0N@PNDAHFFC@LDICUDTFLAGS?$AA@		; `string'
PUBLIC	??_C@_06DHKPGKMM@GENLIB?$AA@			; `string'
PUBLIC	??_C@_08EHPPFAGH@LIBFLAGS?$AA@			; `string'
PUBLIC	??_C@_07BGMLOOCC@COMPILE?$AA@			; `string'
PUBLIC	??_C@_0O@KLJBKLEH@LIB_EXT_ORDER?$AA@		; `string'
PUBLIC	??_C@_09MAKMPBOL@LIBPREFIX?$AA@			; `string'
PUBLIC	??_C@_01FHEEJDEE@A?$AA@				; `string'
PUBLIC	??_C@_04PMJBALLD@SOBJ?$AA@			; `string'
PUBLIC	??_C@_02BJKFOFMO@SO?$AA@			; `string'
PUBLIC	??_C@_0BH@HAOPHIIB@GENCCODE_ASSEMBLY_TYPE?$AA@	; `string'
PUBLIC	??_C@_0O@CIEMAPMG@zos?9pds?9build?$AA@		; `string'
PUBLIC	??_C@_0BB@GHFJGKCJ@without?9assembly?$AA@	; `string'
PUBLIC	??_C@_05PMBAOCDH@quiet?$AA@			; `string'
PUBLIC	??_C@_07LLJGKMNO@libname?$AA@			; `string'
PUBLIC	??_C@_0N@KJLPIHPI@force?9prefix?$AA@		; `string'
PUBLIC	??_C@_08LPECPNPM@revision?$AA@			; `string'
PUBLIC	??_C@_0L@BPGLNOGK@entrypoint?$AA@		; `string'
PUBLIC	??_C@_09CMGPLHNH@sourcedir?$AA@			; `string'
PUBLIC	??_C@_07EALBDFH@install?$AA@			; `string'
PUBLIC	??_C@_07MILKKLHK@tempdir?$AA@			; `string'
PUBLIC	??_C@_07NPFKDALJ@rebuild?$AA@			; `string'
PUBLIC	??_C@_07HIFNFPHK@destdir?$AA@			; `string'
PUBLIC	??_C@_07GJGNEJFD@comment?$AA@			; `string'
PUBLIC	??_C@_09JHBDCMB@copyright?$AA@			; `string'
PUBLIC	??_C@_07KBAMPNJK@verbose?$AA@			; `string'
PUBLIC	??_C@_04PCJFHION@help?$AA@			; `string'
PUBLIC	??_C@_04GMGOKAFF@mode?$AA@			; `string'
PUBLIC	??_C@_06BBNJFABG@bldopt?$AA@			; `string'
PUBLIC	??_C@_04MEMAJGDJ@name?$AA@			; `string'
PUBLIC	??_C@_0DH@PKAKKFB@Generates?5one?5statically?5linked?5@ ; `string'
PUBLIC	??_C@_06GGHJAEBN@static?$AA@			; `string'
PUBLIC	??_C@_0CO@PJKGINFF@Generates?5just?5the?5common?5file?0?5@ ; `string'
PUBLIC	??_C@_07NEJBDDEA@archive?$AA@			; `string'
PUBLIC	??_C@_06DBHEJNGA@common?$AA@			; `string'
PUBLIC	??_C@_0EF@JEPMEHH@Generates?5one?5common?5data?5file?5a@ ; `string'
PUBLIC	??_C@_07OPILGPEN@library?$AA@			; `string'
PUBLIC	??_C@_03OCHKFGFI@dll?$AA@			; `string'
PUBLIC	??_C@_0FH@CNIMAJOD@Uses?5raw?5data?5files?5?$CIno?5effect?$CJ?4@ ; `string'
PUBLIC	??_C@_05DPEMMMGC@files?$AA@			; `string'
PUBLIC	?progname@@3PBDB				; progname
_BSS	SEGMENT
_pkgDataFlags DD 01H DUP (?)
_BSS	ENDS
;	COMDAT ??_C@_07JHKGPBPO@PKGDATA?$AA@
CONST	SEGMENT
??_C@_07JHKGPBPO@PKGDATA?$AA@ DB 'PKGDATA', 00H		; `string'
CONST	ENDS
CONST	SEGMENT
_options_help DB 'Set the data name', 00H
	ORG $+302
	DB	'The directory where the ICU is located (e.g. <ICUROOT> w'
	DB	'hich contains the bin directory)', 00H
	ORG $+231
	DB	'Specify the mode of building (see below; default: common'
	DB	')', 00H
	ORG $+262
	DB	'This usage text', 00H
	ORG $+304
	DB	'This usage text', 00H
	ORG $+304
	DB	'Make the output verbose', 00H
	ORG $+296
	DB	'Use the standard ICU copyright', 00H
	ORG $+289
	DB	'Use a custom comment (instead of the copyright)', 00H
	ORG $+272
	DB	'Specify the destination directory for files', 00H
	ORG $+276
	DB	'Force rebuilding of all data', 00H
	ORG $+291
	DB	'Specify temporary dir (default: output dir)', 00H
	ORG $+276
	DB	'Install the data (specify target)', 00H
	ORG $+286
	DB	'Specify a custom source directory', 00H
	ORG $+286
	DB	'Specify a custom entrypoint name (default: short name)', 00H
	ORG $+265
	DB	'Specify a version when packaging in dll or static mode', 00H
	ORG $+265
	DB	'Add package to all file names if not present', 00H
	ORG $+275
	DB	'Library name to build (if different than package name)', 00H
	ORG $+265
	DB	'Quite mode. (e.g. Do not output a readme file for static'
	DB	' libraries)', 00H
	ORG $+252
	DB	'Build the data without assembly code', 00H
	ORG $+283
	DB	'Build PDS dataset (zOS build only)', 00H
	ORG $+285
CONST	ENDS
;	COMDAT ??_C@_0M@BBPAIHBL@INSTALL_CMD?$AA@
CONST	SEGMENT
??_C@_0M@BBPAIHBL@INSTALL_CMD?$AA@ DB 'INSTALL_CMD', 00H ; `string'
CONST	ENDS
;	COMDAT ??_C@_06JJNIJLLD@RANLIB?$AA@
CONST	SEGMENT
??_C@_06JJNIJLLD@RANLIB?$AA@ DB 'RANLIB', 00H		; `string'
CONST	ENDS
;	COMDAT ??_C@_07EIEJOMMI@ARFLAGS?$AA@
CONST	SEGMENT
??_C@_07EIEJOMMI@ARFLAGS?$AA@ DB 'ARFLAGS', 00H		; `string'
CONST	ENDS
;	COMDAT ??_C@_02PJGLPOMM@AR?$AA@
CONST	SEGMENT
??_C@_02PJGLPOMM@AR?$AA@ DB 'AR', 00H			; `string'
CONST	ENDS
;	COMDAT ??_C@_0M@KIOCJPDM@BIR_LDFLAGS?$AA@
CONST	SEGMENT
??_C@_0M@KIOCJPDM@BIR_LDFLAGS?$AA@ DB 'BIR_LDFLAGS', 00H ; `string'
CONST	ENDS
;	COMDAT ??_C@_0M@NOBOOKHG@RPATH_FLAGS?$AA@
CONST	SEGMENT
??_C@_0M@NOBOOKHG@RPATH_FLAGS?$AA@ DB 'RPATH_FLAGS', 00H ; `string'
CONST	ENDS
;	COMDAT ??_C@_09EKJPPEPG@LD_SONAME?$AA@
CONST	SEGMENT
??_C@_09EKJPPEPG@LD_SONAME?$AA@ DB 'LD_SONAME', 00H	; `string'
CONST	ENDS
;	COMDAT ??_C@_0N@PNDAHFFC@LDICUDTFLAGS?$AA@
CONST	SEGMENT
??_C@_0N@PNDAHFFC@LDICUDTFLAGS?$AA@ DB 'LDICUDTFLAGS', 00H ; `string'
CONST	ENDS
;	COMDAT ??_C@_06DHKPGKMM@GENLIB?$AA@
CONST	SEGMENT
??_C@_06DHKPGKMM@GENLIB?$AA@ DB 'GENLIB', 00H		; `string'
CONST	ENDS
;	COMDAT ??_C@_08EHPPFAGH@LIBFLAGS?$AA@
CONST	SEGMENT
??_C@_08EHPPFAGH@LIBFLAGS?$AA@ DB 'LIBFLAGS', 00H	; `string'
CONST	ENDS
;	COMDAT ??_C@_07BGMLOOCC@COMPILE?$AA@
CONST	SEGMENT
??_C@_07BGMLOOCC@COMPILE?$AA@ DB 'COMPILE', 00H		; `string'
CONST	ENDS
;	COMDAT ??_C@_0O@KLJBKLEH@LIB_EXT_ORDER?$AA@
CONST	SEGMENT
??_C@_0O@KLJBKLEH@LIB_EXT_ORDER?$AA@ DB 'LIB_EXT_ORDER', 00H ; `string'
CONST	ENDS
;	COMDAT ??_C@_09MAKMPBOL@LIBPREFIX?$AA@
CONST	SEGMENT
??_C@_09MAKMPBOL@LIBPREFIX?$AA@ DB 'LIBPREFIX', 00H	; `string'
CONST	ENDS
;	COMDAT ??_C@_01FHEEJDEE@A?$AA@
CONST	SEGMENT
??_C@_01FHEEJDEE@A?$AA@ DB 'A', 00H			; `string'
CONST	ENDS
;	COMDAT ??_C@_04PMJBALLD@SOBJ?$AA@
CONST	SEGMENT
??_C@_04PMJBALLD@SOBJ?$AA@ DB 'SOBJ', 00H		; `string'
CONST	ENDS
;	COMDAT ??_C@_02BJKFOFMO@SO?$AA@
CONST	SEGMENT
??_C@_02BJKFOFMO@SO?$AA@ DB 'SO', 00H			; `string'
CONST	ENDS
;	COMDAT ??_C@_0BH@HAOPHIIB@GENCCODE_ASSEMBLY_TYPE?$AA@
CONST	SEGMENT
??_C@_0BH@HAOPHIIB@GENCCODE_ASSEMBLY_TYPE?$AA@ DB 'GENCCODE_ASSEMBLY_TYPE'
	DB	00H						; `string'
CONST	ENDS
;	COMDAT ??_C@_0O@CIEMAPMG@zos?9pds?9build?$AA@
CONST	SEGMENT
??_C@_0O@CIEMAPMG@zos?9pds?9build?$AA@ DB 'zos-pds-build', 00H ; `string'
CONST	ENDS
;	COMDAT ??_C@_0BB@GHFJGKCJ@without?9assembly?$AA@
CONST	SEGMENT
??_C@_0BB@GHFJGKCJ@without?9assembly?$AA@ DB 'without-assembly', 00H ; `string'
CONST	ENDS
;	COMDAT ??_C@_05PMBAOCDH@quiet?$AA@
CONST	SEGMENT
??_C@_05PMBAOCDH@quiet?$AA@ DB 'quiet', 00H		; `string'
CONST	ENDS
;	COMDAT ??_C@_07LLJGKMNO@libname?$AA@
CONST	SEGMENT
??_C@_07LLJGKMNO@libname?$AA@ DB 'libname', 00H		; `string'
CONST	ENDS
;	COMDAT ??_C@_0N@KJLPIHPI@force?9prefix?$AA@
CONST	SEGMENT
??_C@_0N@KJLPIHPI@force?9prefix?$AA@ DB 'force-prefix', 00H ; `string'
CONST	ENDS
;	COMDAT ??_C@_08LPECPNPM@revision?$AA@
CONST	SEGMENT
??_C@_08LPECPNPM@revision?$AA@ DB 'revision', 00H	; `string'
CONST	ENDS
;	COMDAT ??_C@_0L@BPGLNOGK@entrypoint?$AA@
CONST	SEGMENT
??_C@_0L@BPGLNOGK@entrypoint?$AA@ DB 'entrypoint', 00H	; `string'
CONST	ENDS
;	COMDAT ??_C@_09CMGPLHNH@sourcedir?$AA@
CONST	SEGMENT
??_C@_09CMGPLHNH@sourcedir?$AA@ DB 'sourcedir', 00H	; `string'
CONST	ENDS
;	COMDAT ??_C@_07EALBDFH@install?$AA@
CONST	SEGMENT
??_C@_07EALBDFH@install?$AA@ DB 'install', 00H		; `string'
CONST	ENDS
;	COMDAT ??_C@_07MILKKLHK@tempdir?$AA@
CONST	SEGMENT
??_C@_07MILKKLHK@tempdir?$AA@ DB 'tempdir', 00H		; `string'
CONST	ENDS
;	COMDAT ??_C@_07NPFKDALJ@rebuild?$AA@
CONST	SEGMENT
??_C@_07NPFKDALJ@rebuild?$AA@ DB 'rebuild', 00H		; `string'
CONST	ENDS
;	COMDAT ??_C@_07HIFNFPHK@destdir?$AA@
CONST	SEGMENT
??_C@_07HIFNFPHK@destdir?$AA@ DB 'destdir', 00H		; `string'
CONST	ENDS
;	COMDAT ??_C@_07GJGNEJFD@comment?$AA@
CONST	SEGMENT
??_C@_07GJGNEJFD@comment?$AA@ DB 'comment', 00H		; `string'
CONST	ENDS
;	COMDAT ??_C@_09JHBDCMB@copyright?$AA@
CONST	SEGMENT
??_C@_09JHBDCMB@copyright?$AA@ DB 'copyright', 00H	; `string'
CONST	ENDS
;	COMDAT ??_C@_07KBAMPNJK@verbose?$AA@
CONST	SEGMENT
??_C@_07KBAMPNJK@verbose?$AA@ DB 'verbose', 00H		; `string'
CONST	ENDS
;	COMDAT ??_C@_04PCJFHION@help?$AA@
CONST	SEGMENT
??_C@_04PCJFHION@help?$AA@ DB 'help', 00H		; `string'
CONST	ENDS
;	COMDAT ??_C@_04GMGOKAFF@mode?$AA@
CONST	SEGMENT
??_C@_04GMGOKAFF@mode?$AA@ DB 'mode', 00H		; `string'
CONST	ENDS
;	COMDAT ??_C@_06BBNJFABG@bldopt?$AA@
CONST	SEGMENT
??_C@_06BBNJFABG@bldopt?$AA@ DB 'bldopt', 00H		; `string'
CONST	ENDS
;	COMDAT ??_C@_04MEMAJGDJ@name?$AA@
CONST	SEGMENT
??_C@_04MEMAJGDJ@name?$AA@ DB 'name', 00H		; `string'
CONST	ENDS
_DATA	SEGMENT
_modes	DD	FLAT:??_C@_05DPEMMMGC@files?$AA@
	DD	00H
	DD	FLAT:??_C@_0FH@CNIMAJOD@Uses?5raw?5data?5files?5?$CIno?5effect?$CJ?4@
	DD	FLAT:??_C@_03OCHKFGFI@dll?$AA@
	DD	FLAT:??_C@_07OPILGPEN@library?$AA@
	DD	FLAT:??_C@_0EF@JEPMEHH@Generates?5one?5common?5data?5file?5a@
	DD	FLAT:??_C@_06DBHEJNGA@common?$AA@
	DD	FLAT:??_C@_07NEJBDDEA@archive?$AA@
	DD	FLAT:??_C@_0CO@PJKGINFF@Generates?5just?5the?5common?5file?0?5@
	DD	FLAT:??_C@_06GGHJAEBN@static?$AA@
	DD	FLAT:??_C@_06GGHJAEBN@static?$AA@
	DD	FLAT:??_C@_0DH@PKAKKFB@Generates?5one?5statically?5linked?5@
_options DD	FLAT:??_C@_04MEMAJGDJ@name?$AA@
	DD	00H
	DD	00H
	DD	00H
	DB	070H
	DB	01H
	DB	00H
	ORG $+1
	DD	FLAT:??_C@_06BBNJFABG@bldopt?$AA@
	DD	00H
	DD	00H
	DD	00H
	DB	04fH
	DB	01H
	DB	00H
	ORG $+1
	DD	FLAT:??_C@_04GMGOKAFF@mode?$AA@
	DD	00H
	DD	00H
	DD	00H
	DB	06dH
	DB	01H
	DB	00H
	ORG $+1
	DD	FLAT:??_C@_04PCJFHION@help?$AA@
	DD	00H
	DD	00H
	DD	00H
	DB	068H
	DB	00H
	DB	00H
	ORG $+1
	DD	FLAT:??_C@_04PCJFHION@help?$AA@
	DD	00H
	DD	00H
	DD	00H
	DB	03fH
	DB	00H
	DB	00H
	ORG $+1
	DD	FLAT:??_C@_07KBAMPNJK@verbose?$AA@
	DD	00H
	DD	00H
	DD	00H
	DB	076H
	DB	00H
	DB	00H
	ORG $+1
	DD	FLAT:??_C@_09JHBDCMB@copyright?$AA@
	DD	00H
	DD	00H
	DD	00H
	DB	063H
	DB	00H
	DB	00H
	ORG $+1
	DD	FLAT:??_C@_07GJGNEJFD@comment?$AA@
	DD	00H
	DD	00H
	DD	00H
	DB	043H
	DB	01H
	DB	00H
	ORG $+1
	DD	FLAT:??_C@_07HIFNFPHK@destdir?$AA@
	DD	00H
	DD	00H
	DD	00H
	DB	064H
	DB	01H
	DB	00H
	ORG $+1
	DD	FLAT:??_C@_07NPFKDALJ@rebuild?$AA@
	DD	00H
	DD	00H
	DD	00H
	DB	046H
	DB	00H
	DB	00H
	ORG $+1
	DD	FLAT:??_C@_07MILKKLHK@tempdir?$AA@
	DD	00H
	DD	00H
	DD	00H
	DB	054H
	DB	01H
	DB	00H
	ORG $+1
	DD	FLAT:??_C@_07EALBDFH@install?$AA@
	DD	00H
	DD	00H
	DD	00H
	DB	049H
	DB	01H
	DB	00H
	ORG $+1
	DD	FLAT:??_C@_09CMGPLHNH@sourcedir?$AA@
	DD	00H
	DD	00H
	DD	00H
	DB	073H
	DB	01H
	DB	00H
	ORG $+1
	DD	FLAT:??_C@_0L@BPGLNOGK@entrypoint?$AA@
	DD	00H
	DD	00H
	DD	00H
	DB	065H
	DB	01H
	DB	00H
	ORG $+1
	DD	FLAT:??_C@_08LPECPNPM@revision?$AA@
	DD	00H
	DD	00H
	DD	00H
	DB	072H
	DB	01H
	DB	00H
	ORG $+1
	DD	FLAT:??_C@_0N@KJLPIHPI@force?9prefix?$AA@
	DD	00H
	DD	00H
	DD	00H
	DB	066H
	DB	00H
	DB	00H
	ORG $+1
	DD	FLAT:??_C@_07LLJGKMNO@libname?$AA@
	DD	00H
	DD	00H
	DD	00H
	DB	04cH
	DB	01H
	DB	00H
	ORG $+1
	DD	FLAT:??_C@_05PMBAOCDH@quiet?$AA@
	DD	00H
	DD	00H
	DD	00H
	DB	071H
	DB	00H
	DB	00H
	ORG $+1
	DD	FLAT:??_C@_0BB@GHFJGKCJ@without?9assembly?$AA@
	DD	00H
	DD	00H
	DD	00H
	DB	077H
	DB	00H
	DB	00H
	ORG $+1
	DD	FLAT:??_C@_0O@CIEMAPMG@zos?9pds?9build?$AA@
	DD	00H
	DD	00H
	DD	00H
	DB	07aH
	DB	00H
	DB	00H
	ORG $+1
_FLAG_NAMES DD	FLAT:??_C@_0BH@HAOPHIIB@GENCCODE_ASSEMBLY_TYPE?$AA@
	DD	FLAT:??_C@_02BJKFOFMO@SO?$AA@
	DD	FLAT:??_C@_04PMJBALLD@SOBJ?$AA@
	DD	FLAT:??_C@_01FHEEJDEE@A?$AA@
	DD	FLAT:??_C@_09MAKMPBOL@LIBPREFIX?$AA@
	DD	FLAT:??_C@_0O@KLJBKLEH@LIB_EXT_ORDER?$AA@
	DD	FLAT:??_C@_07BGMLOOCC@COMPILE?$AA@
	DD	FLAT:??_C@_08EHPPFAGH@LIBFLAGS?$AA@
	DD	FLAT:??_C@_06DHKPGKMM@GENLIB?$AA@
	DD	FLAT:??_C@_0N@PNDAHFFC@LDICUDTFLAGS?$AA@
	DD	FLAT:??_C@_09EKJPPEPG@LD_SONAME?$AA@
	DD	FLAT:??_C@_0M@NOBOOKHG@RPATH_FLAGS?$AA@
	DD	FLAT:??_C@_0M@KIOCJPDM@BIR_LDFLAGS?$AA@
	DD	FLAT:??_C@_02PJGLPOMM@AR?$AA@
	DD	FLAT:??_C@_07EIEJOMMI@ARFLAGS?$AA@
	DD	FLAT:??_C@_06JJNIJLLD@RANLIB?$AA@
	DD	FLAT:??_C@_0M@BBPAIHBL@INSTALL_CMD?$AA@
?progname@@3PBDB DD FLAT:??_C@_07JHKGPBPO@PKGDATA?$AA@	; progname
_DATA	ENDS
;	COMDAT ??_C@_0DH@PKAKKFB@Generates?5one?5statically?5linked?5@
CONST	SEGMENT
??_C@_0DH@PKAKKFB@Generates?5one?5statically?5linked?5@ DB 'Generates one'
	DB	' statically linked library, <package>.lib', 00H ; `string'
CONST	ENDS
;	COMDAT ??_C@_06GGHJAEBN@static?$AA@
CONST	SEGMENT
??_C@_06GGHJAEBN@static?$AA@ DB 'static', 00H		; `string'
CONST	ENDS
;	COMDAT ??_C@_0CO@PJKGINFF@Generates?5just?5the?5common?5file?0?5@
CONST	SEGMENT
??_C@_0CO@PJKGINFF@Generates?5just?5the?5common?5file?0?5@ DB 'Generates '
	DB	'just the common file, <package>.dat', 00H	; `string'
CONST	ENDS
;	COMDAT ??_C@_07NEJBDDEA@archive?$AA@
CONST	SEGMENT
??_C@_07NEJBDDEA@archive?$AA@ DB 'archive', 00H		; `string'
CONST	ENDS
;	COMDAT ??_C@_06DBHEJNGA@common?$AA@
CONST	SEGMENT
??_C@_06DBHEJNGA@common?$AA@ DB 'common', 00H		; `string'
CONST	ENDS
;	COMDAT ??_C@_0EF@JEPMEHH@Generates?5one?5common?5data?5file?5a@
CONST	SEGMENT
??_C@_0EF@JEPMEHH@Generates?5one?5common?5data?5file?5a@ DB 'Generates on'
	DB	'e common data file and one shared library, <package>.dll', 00H ; `string'
CONST	ENDS
;	COMDAT ??_C@_07OPILGPEN@library?$AA@
CONST	SEGMENT
??_C@_07OPILGPEN@library?$AA@ DB 'library', 00H		; `string'
CONST	ENDS
;	COMDAT ??_C@_03OCHKFGFI@dll?$AA@
CONST	SEGMENT
??_C@_03OCHKFGFI@dll?$AA@ DB 'dll', 00H			; `string'
CONST	ENDS
;	COMDAT ??_C@_0FH@CNIMAJOD@Uses?5raw?5data?5files?5?$CIno?5effect?$CJ?4@
CONST	SEGMENT
??_C@_0FH@CNIMAJOD@Uses?5raw?5data?5files?5?$CIno?5effect?$CJ?4@ DB 'Uses'
	DB	' raw data files (no effect). Installation copies all files to'
	DB	' the target location.', 00H			; `string'
CONST	ENDS
;	COMDAT ??_C@_05DPEMMMGC@files?$AA@
CONST	SEGMENT
??_C@_05DPEMMMGC@files?$AA@ DB 'files', 00H		; `string'
CONST	ENDS
PUBLIC	??_C@_0CE@ICOMKHEM@error?5loading?5input?5file?5lists?3?5@ ; `string'
PUBLIC	??_C@_0CH@BIBBALKP@Warning?3?5This?5option?5will?5be?5ign@ ; `string'
PUBLIC	??_C@_0GL@ENCJOGLG@Warning?3?5You?5are?5using?5the?5optio@ ; `string'
PUBLIC	??_C@_01LFCBOECM@?4?$AA@			; `string'
PUBLIC	??_C@_0GD@IBBFEJOD@?5Copyright?5?$CIC?$CJ?52015?0?5Internation@ ; `string'
PUBLIC	??_C@_0EA@DLAPCBNN@Warning?3?5You?5are?5using?5the?5?9z?5op@ ; `string'
PUBLIC	??_C@_05LDOEBFOB@?5?5?$CFs?6?$AA@		; `string'
PUBLIC	??_C@_0M@CKHGFAEI@?5?5?5?5?5?5?5?5?5?5?5?$AA@	; `string'
PUBLIC	??_C@_06CIBLEPHP@?1?5?$CF?99s?$AA@		; `string'
PUBLIC	??_C@_08INOMAIII@?5?5?5?$CF?99s?5?$AA@		; `string'
PUBLIC	??_C@_0BE@BEGGIDHH@modes?3?5?$CI?9m?5option?$CJ?6?$AA@ ; `string'
PUBLIC	??_C@_0BG@BPNIFCDI@?$CF?95s?5?9?$CFc?5?$CFs?$CF?910s?5?5?$CFs?6?$AA@ ; `string'
PUBLIC	??_C@_05KEAGPFFC@?$FLREQ?$FN?$AA@		; `string'
PUBLIC	??_C@_05IFKLLJBC@?5?5?5?5?5?$AA@		; `string'
PUBLIC	??_C@_05IEAAHABO@or?5?9?9?$AA@			; `string'
PUBLIC	??_C@_00CNPNBAHC@?$AA@				; `string'
PUBLIC	??_C@_0M@HLMDKHEP@?6?5options?3?6?$AA@		; `string'
PUBLIC	??_C@_0ND@JPBMOOEO@usage?3?5?$CFs?5?$FL?9options?$FN?5?$FL?9?$FN?5?$FLpackag@ ; `string'
PUBLIC	??_C@_0DF@DJLHBNPA@No?5input?5files?5specified?4?6Run?5?8?$CF@ ; `string'
PUBLIC	??_C@_0CE@OMJFHKKK@?5required?5parameter?5?9p?5is?5missin@ ; `string'
PUBLIC	??_C@_0FF@CKKEEOLA@Warning?3?5You?5are?5using?5the?5?9O?5op@ ; `string'
PUBLIC	??_C@_0BL@FGMGBFMF@Run?5?8?$CFs?5?9?9help?8?5for?5help?4?6?$AA@ ; `string'
PUBLIC	??_C@_0CJ@POHEAINE@?$CFs?3?5error?5in?5command?5line?5argume@ ; `string'
PUBLIC	_main
EXTRN	_pkg_deleteList:PROC
EXTRN	_uprv_free_56:PROC
EXTRN	_u_errorName_56:PROC
EXTRN	_pkg_appendToList:PROC
EXTRN	_uprv_strdup_56:PROC
EXTRN	__imp__isalnum:PROC
EXTRN	__imp__isalpha:PROC
EXTRN	_uprv_malloc_56:PROC
EXTRN	_strlen:PROC
EXTRN	_memset:PROC
EXTRN	__imp__fprintf:PROC
EXTRN	__imp____iob_func:PROC
EXTRN	_u_parseArgs:PROC
EXTRN	@_RTC_CheckStackVars@8:PROC
EXTRN	__RTC_CheckEsp:PROC
EXTRN	__RTC_Shutdown:PROC
EXTRN	__RTC_InitBase:PROC
;	COMDAT ??_C@_0CE@ICOMKHEM@error?5loading?5input?5file?5lists?3?5@
; File d:\mozilla\intl\icu\source\tools\pkgdata\pkgdata.cpp
CONST	SEGMENT
??_C@_0CE@ICOMKHEM@error?5loading?5input?5file?5lists?3?5@ DB 'error load'
	DB	'ing input file lists: %s', 0aH, 00H		; `string'
CONST	ENDS
;	COMDAT ??_C@_0CH@BIBBALKP@Warning?3?5This?5option?5will?5be?5ign@
CONST	SEGMENT
??_C@_0CH@BIBBALKP@Warning?3?5This?5option?5will?5be?5ign@ DB 'Warning: T'
	DB	'his option will be ignored.', 0aH, 00H	; `string'
CONST	ENDS
;	COMDAT ??_C@_0GL@ENCJOGLG@Warning?3?5You?5are?5using?5the?5optio@
CONST	SEGMENT
??_C@_0GL@ENCJOGLG@Warning?3?5You?5are?5using?5the?5optio@ DB 'Warning: Y'
	DB	'ou are using the option to build without assembly code which '
	DB	'is not supported on this platform.', 0aH, 00H ; `string'
CONST	ENDS
;	COMDAT ??_C@_01LFCBOECM@?4?$AA@
CONST	SEGMENT
??_C@_01LFCBOECM@?4?$AA@ DB '.', 00H			; `string'
CONST	ENDS
;	COMDAT ??_C@_0GD@IBBFEJOD@?5Copyright?5?$CIC?$CJ?52015?0?5Internation@
CONST	SEGMENT
??_C@_0GD@IBBFEJOD@?5Copyright?5?$CIC?$CJ?52015?0?5Internation@ DB ' Copy'
	DB	'right (C) 2015, International Business Machines Corporation a'
	DB	'nd others. All Rights Reserved. ', 00H	; `string'
CONST	ENDS
;	COMDAT ??_C@_0EA@DLAPCBNN@Warning?3?5You?5are?5using?5the?5?9z?5op@
CONST	SEGMENT
??_C@_0EA@DLAPCBNN@Warning?3?5You?5are?5using?5the?5?9z?5op@ DB 'Warning:'
	DB	' You are using the -z option which only works on z/OS.', 0aH, 00H ; `string'
CONST	ENDS
;	COMDAT ??_C@_05LDOEBFOB@?5?5?$CFs?6?$AA@
CONST	SEGMENT
??_C@_05LDOEBFOB@?5?5?$CFs?6?$AA@ DB '  %s', 0aH, 00H	; `string'
CONST	ENDS
;	COMDAT ??_C@_0M@CKHGFAEI@?5?5?5?5?5?5?5?5?5?5?5?$AA@
CONST	SEGMENT
??_C@_0M@CKHGFAEI@?5?5?5?5?5?5?5?5?5?5?5?$AA@ DB '           ', 00H ; `string'
CONST	ENDS
;	COMDAT ??_C@_06CIBLEPHP@?1?5?$CF?99s?$AA@
CONST	SEGMENT
??_C@_06CIBLEPHP@?1?5?$CF?99s?$AA@ DB '/ %-9s', 00H	; `string'
CONST	ENDS
;	COMDAT ??_C@_08INOMAIII@?5?5?5?$CF?99s?5?$AA@
CONST	SEGMENT
??_C@_08INOMAIII@?5?5?5?$CF?99s?5?$AA@ DB '   %-9s ', 00H ; `string'
CONST	ENDS
;	COMDAT ??_C@_0BE@BEGGIDHH@modes?3?5?$CI?9m?5option?$CJ?6?$AA@
CONST	SEGMENT
??_C@_0BE@BEGGIDHH@modes?3?5?$CI?9m?5option?$CJ?6?$AA@ DB 'modes: (-m opt'
	DB	'ion)', 0aH, 00H				; `string'
CONST	ENDS
;	COMDAT ??_C@_0BG@BPNIFCDI@?$CF?95s?5?9?$CFc?5?$CFs?$CF?910s?5?5?$CFs?6?$AA@
CONST	SEGMENT
??_C@_0BG@BPNIFCDI@?$CF?95s?5?9?$CFc?5?$CFs?$CF?910s?5?5?$CFs?6?$AA@ DB '%'
	DB	'-5s -%c %s%-10s  %s', 0aH, 00H		; `string'
CONST	ENDS
;	COMDAT ??_C@_05KEAGPFFC@?$FLREQ?$FN?$AA@
CONST	SEGMENT
??_C@_05KEAGPFFC@?$FLREQ?$FN?$AA@ DB '[REQ]', 00H	; `string'
CONST	ENDS
;	COMDAT ??_C@_05IFKLLJBC@?5?5?5?5?5?$AA@
CONST	SEGMENT
??_C@_05IFKLLJBC@?5?5?5?5?5?$AA@ DB '     ', 00H	; `string'
CONST	ENDS
;	COMDAT ??_C@_05IEAAHABO@or?5?9?9?$AA@
CONST	SEGMENT
??_C@_05IEAAHABO@or?5?9?9?$AA@ DB 'or --', 00H		; `string'
CONST	ENDS
;	COMDAT ??_C@_00CNPNBAHC@?$AA@
CONST	SEGMENT
??_C@_00CNPNBAHC@?$AA@ DB 00H				; `string'
CONST	ENDS
;	COMDAT ??_C@_0M@HLMDKHEP@?6?5options?3?6?$AA@
CONST	SEGMENT
??_C@_0M@HLMDKHEP@?6?5options?3?6?$AA@ DB 0aH, ' options:', 0aH, 00H ; `string'
CONST	ENDS
;	COMDAT ??_C@_0ND@JPBMOOEO@usage?3?5?$CFs?5?$FL?9options?$FN?5?$FL?9?$FN?5?$FLpackag@
CONST	SEGMENT
??_C@_0ND@JPBMOOEO@usage?3?5?$CFs?5?$FL?9options?$FN?5?$FL?9?$FN?5?$FLpackag@ DB 'u'
	DB	'sage: %s [-options] [-] [packageFile] ', 0aH, 09H, 'Produce p'
	DB	'ackaged ICU data from the given list(s) of files.', 0aH, 09H, ''''
	DB	'-'' by itself means to read from stdin.', 0aH, 09H, 'packageF'
	DB	'ile is a text file containing the list of files to package.', 0aH
	DB	00H						; `string'
CONST	ENDS
;	COMDAT ??_C@_0DF@DJLHBNPA@No?5input?5files?5specified?4?6Run?5?8?$CF@
CONST	SEGMENT
??_C@_0DF@DJLHBNPA@No?5input?5files?5specified?4?6Run?5?8?$CF@ DB 'No inp'
	DB	'ut files specified.', 0aH, 'Run ''%s --help'' for help.', 0aH
	DB	00H						; `string'
CONST	ENDS
;	COMDAT ??_C@_0CE@OMJFHKKK@?5required?5parameter?5?9p?5is?5missin@
CONST	SEGMENT
??_C@_0CE@OMJFHKKK@?5required?5parameter?5?9p?5is?5missin@ DB ' required '
	DB	'parameter -p is missing ', 0aH, 00H		; `string'
CONST	ENDS
;	COMDAT ??_C@_0FF@CKKEEOLA@Warning?3?5You?5are?5using?5the?5?9O?5op@
CONST	SEGMENT
??_C@_0FF@CKKEEOLA@Warning?3?5You?5are?5using?5the?5?9O?5op@ DB 'Warning:'
	DB	' You are using the -O option which is not needed for MSVC bui'
	DB	'ld on Windows.', 0aH, 00H			; `string'
CONST	ENDS
;	COMDAT ??_C@_0BL@FGMGBFMF@Run?5?8?$CFs?5?9?9help?8?5for?5help?4?6?$AA@
CONST	SEGMENT
??_C@_0BL@FGMGBFMF@Run?5?8?$CFs?5?9?9help?8?5for?5help?4?6?$AA@ DB 'Run '''
	DB	'%s --help'' for help.', 0aH, 00H		; `string'
CONST	ENDS
;	COMDAT ??_C@_0CJ@POHEAINE@?$CFs?3?5error?5in?5command?5line?5argume@
CONST	SEGMENT
??_C@_0CJ@POHEAINE@?$CFs?3?5error?5in?5command?5line?5argume@ DB '%s: err'
	DB	'or in command line argument "%s"', 0aH, 00H	; `string'
CONST	ENDS
;	COMDAT rtc$TMZ
rtc$TMZ	SEGMENT
__RTC_Shutdown.rtc$TMZ DD FLAT:__RTC_Shutdown
rtc$TMZ	ENDS
;	COMDAT rtc$IMZ
rtc$IMZ	SEGMENT
__RTC_InitBase.rtc$IMZ DD FLAT:__RTC_InitBase
; Function compile flags: /Odtp /RTCsu /ZI
rtc$IMZ	ENDS
;	COMDAT _main
_TEXT	SEGMENT
tv189 = -412						; size = 4
tv181 = -408						; size = 4
tv176 = -404						; size = 4
tv266 = -401						; size = 1
tv256 = -401						; size = 1
_sp$11234 = -204					; size = 4
_cp$11233 = -192					; size = 4
_csname$11232 = -180					; size = 4
_len$11230 = -168					; size = 4
_n$ = -156						; size = 4
_i$ = -144						; size = 4
_status$ = -132						; size = 4
_needsHelp$ = -117					; size = 1
_tail$ = -108						; size = 4
_o$ = -96						; size = 80
_result$ = -8						; size = 4
_argc$ = 8						; size = 4
_argv$ = 12						; size = 4
_main	PROC						; COMDAT
; Line 259
	push	ebp
	mov	ebp, esp
	sub	esp, 412				; 0000019cH
	push	ebx
	push	esi
	push	edi
	lea	edi, DWORD PTR [ebp-412]
	mov	ecx, 103				; 00000067H
	mov	eax, -858993460				; ccccccccH
	rep stosd
; Line 260
	mov	DWORD PTR _result$[ebp], 0
; Line 264
	mov	BYTE PTR _needsHelp$[ebp], 0
; Line 265
	mov	DWORD PTR _status$[ebp], 0
; Line 272
	mov	eax, DWORD PTR _argv$[ebp]
	mov	ecx, DWORD PTR [eax]
	mov	DWORD PTR ?progname@@3PBDB, ecx		; progname
; Line 274
	mov	DWORD PTR _options+44, OFFSET ??_C@_06DBHEJNGA@common?$AA@
; Line 277
	push	OFFSET _options
	push	20					; 00000014H
	mov	eax, DWORD PTR _argv$[ebp]
	push	eax
	mov	ecx, DWORD PTR _argc$[ebp]
	push	ecx
	call	_u_parseArgs
	add	esp, 16					; 00000010H
	mov	DWORD PTR _argc$[ebp], eax
; Line 283
	movsx	eax, BYTE PTR _options+78
	test	eax, eax
	jne	SHORT $LN53@main
	movsx	eax, BYTE PTR _options+98
	test	eax, eax
	je	SHORT $LN54@main
$LN53@main:
; Line 284
	mov	BYTE PTR _needsHelp$[ebp], 1
; Line 286
	jmp	$LN52@main
$LN54@main:
; Line 287
	movsx	eax, BYTE PTR _needsHelp$[ebp]
	test	eax, eax
	jne	SHORT $LN51@main
	cmp	DWORD PTR _argc$[ebp], 0
	jge	SHORT $LN51@main
; Line 291
	mov	eax, DWORD PTR _argc$[ebp]
	neg	eax
	mov	esi, esp
	mov	ecx, DWORD PTR _argv$[ebp]
	mov	edx, DWORD PTR [ecx+eax*4]
	push	edx
	mov	eax, DWORD PTR ?progname@@3PBDB		; progname
	push	eax
	push	OFFSET ??_C@_0CJ@POHEAINE@?$CFs?3?5error?5in?5command?5line?5argume@
	mov	edi, esp
	call	DWORD PTR __imp____iob_func
	cmp	edi, esp
	call	__RTC_CheckEsp
	add	eax, 64					; 00000040H
	push	eax
	call	DWORD PTR __imp__fprintf
	add	esp, 16					; 00000010H
	cmp	esi, esp
	call	__RTC_CheckEsp
; Line 292
	mov	esi, esp
	mov	eax, DWORD PTR ?progname@@3PBDB		; progname
	push	eax
	push	OFFSET ??_C@_0BL@FGMGBFMF@Run?5?8?$CFs?5?9?9help?8?5for?5help?4?6?$AA@
	mov	edi, esp
	call	DWORD PTR __imp____iob_func
	cmp	edi, esp
	call	__RTC_CheckEsp
	add	eax, 64					; 00000040H
	push	eax
	call	DWORD PTR __imp__fprintf
	add	esp, 12					; 0000000cH
	cmp	esi, esp
	call	__RTC_CheckEsp
; Line 293
	mov	eax, 1
	jmp	$LN55@main
$LN51@main:
; Line 306
	movsx	eax, BYTE PTR _options+38
	test	eax, eax
	je	SHORT $LN50@main
; Line 307
	mov	esi, esp
	push	OFFSET ??_C@_0FF@CKKEEOLA@Warning?3?5You?5are?5using?5the?5?9O?5op@
	mov	edi, esp
	call	DWORD PTR __imp____iob_func
	cmp	edi, esp
	call	__RTC_CheckEsp
	add	eax, 32					; 00000020H
	push	eax
	call	DWORD PTR __imp__fprintf
	add	esp, 8
	cmp	esi, esp
	call	__RTC_CheckEsp
$LN50@main:
; Line 311
	movsx	eax, BYTE PTR _options+18
	test	eax, eax
	jne	SHORT $LN49@main
; Line 313
	mov	esi, esp
	push	OFFSET ??_C@_0CE@OMJFHKKK@?5required?5parameter?5?9p?5is?5missin@
	mov	edi, esp
	call	DWORD PTR __imp____iob_func
	cmp	edi, esp
	call	__RTC_CheckEsp
	add	eax, 64					; 00000040H
	push	eax
	call	DWORD PTR __imp__fprintf
	add	esp, 8
	cmp	esi, esp
	call	__RTC_CheckEsp
; Line 314
	mov	esi, esp
	mov	eax, DWORD PTR ?progname@@3PBDB		; progname
	push	eax
	push	OFFSET ??_C@_0BL@FGMGBFMF@Run?5?8?$CFs?5?9?9help?8?5for?5help?4?6?$AA@
	mov	edi, esp
	call	DWORD PTR __imp____iob_func
	cmp	edi, esp
	call	__RTC_CheckEsp
	add	eax, 64					; 00000040H
	push	eax
	call	DWORD PTR __imp__fprintf
	add	esp, 12					; 0000000cH
	cmp	esi, esp
	call	__RTC_CheckEsp
; Line 315
	mov	eax, 1
	jmp	$LN55@main
$LN49@main:
; Line 318
	cmp	DWORD PTR _argc$[ebp], 1
	jne	SHORT $LN52@main
; Line 321
	mov	esi, esp
	mov	eax, DWORD PTR ?progname@@3PBDB		; progname
	push	eax
	push	OFFSET ??_C@_0DF@DJLHBNPA@No?5input?5files?5specified?4?6Run?5?8?$CF@
	mov	edi, esp
	call	DWORD PTR __imp____iob_func
	cmp	edi, esp
	call	__RTC_CheckEsp
	add	eax, 64					; 00000040H
	push	eax
	call	DWORD PTR __imp__fprintf
	add	esp, 12					; 0000000cH
	cmp	esi, esp
	call	__RTC_CheckEsp
; Line 322
	mov	eax, 1
	jmp	$LN55@main
$LN52@main:
; Line 326
	cmp	DWORD PTR _argc$[ebp], 0
	jl	SHORT $LN46@main
	movsx	eax, BYTE PTR _needsHelp$[ebp]
	test	eax, eax
	je	$LN47@main
$LN46@main:
; Line 332
	mov	esi, esp
	mov	eax, DWORD PTR ?progname@@3PBDB		; progname
	push	eax
	push	OFFSET ??_C@_0ND@JPBMOOEO@usage?3?5?$CFs?5?$FL?9options?$FN?5?$FL?9?$FN?5?$FLpackag@
	mov	edi, esp
	call	DWORD PTR __imp____iob_func
	cmp	edi, esp
	call	__RTC_CheckEsp
	add	eax, 64					; 00000040H
	push	eax
	call	DWORD PTR __imp__fprintf
	add	esp, 12					; 0000000cH
	cmp	esi, esp
	call	__RTC_CheckEsp
; Line 334
	mov	esi, esp
	push	OFFSET ??_C@_0M@HLMDKHEP@?6?5options?3?6?$AA@
	mov	edi, esp
	call	DWORD PTR __imp____iob_func
	cmp	edi, esp
	call	__RTC_CheckEsp
	add	eax, 64					; 00000040H
	push	eax
	call	DWORD PTR __imp__fprintf
	add	esp, 8
	cmp	esi, esp
	call	__RTC_CheckEsp
; Line 335
	mov	DWORD PTR _i$[ebp], 0
	jmp	SHORT $LN45@main
$LN44@main:
	mov	eax, DWORD PTR _i$[ebp]
	add	eax, 1
	mov	DWORD PTR _i$[ebp], eax
$LN45@main:
	cmp	DWORD PTR _i$[ebp], 20			; 00000014H
	jae	$LN43@main
; Line 341
	mov	eax, DWORD PTR _i$[ebp]
	imul	eax, 20					; 00000014H
	cmp	DWORD PTR _options[eax], 0
	je	SHORT $LN57@main
	mov	ecx, DWORD PTR _i$[ebp]
	imul	ecx, 20					; 00000014H
	mov	edx, DWORD PTR _options[ecx]
	mov	DWORD PTR tv176[ebp], edx
	jmp	SHORT $LN58@main
$LN57@main:
	mov	DWORD PTR tv176[ebp], OFFSET ??_C@_00CNPNBAHC@?$AA@
$LN58@main:
	mov	eax, DWORD PTR _i$[ebp]
	imul	eax, 20					; 00000014H
	cmp	DWORD PTR _options[eax], 0
	je	SHORT $LN59@main
	mov	DWORD PTR tv181[ebp], OFFSET ??_C@_05IEAAHABO@or?5?9?9?$AA@
	jmp	SHORT $LN60@main
$LN59@main:
	mov	DWORD PTR tv181[ebp], OFFSET ??_C@_05IFKLLJBC@?5?5?5?5?5?$AA@
$LN60@main:
	cmp	DWORD PTR _i$[ebp], 1
	jae	SHORT $LN61@main
	mov	DWORD PTR tv189[ebp], OFFSET ??_C@_05KEAGPFFC@?$FLREQ?$FN?$AA@
	jmp	SHORT $LN62@main
$LN61@main:
	mov	DWORD PTR tv189[ebp], OFFSET ??_C@_00CNPNBAHC@?$AA@
$LN62@main:
	mov	ecx, DWORD PTR _i$[ebp]
	imul	ecx, 320				; 00000140H
	add	ecx, OFFSET _options_help
	mov	esi, esp
	push	ecx
	mov	edx, DWORD PTR tv176[ebp]
	push	edx
	mov	eax, DWORD PTR tv181[ebp]
	push	eax
	mov	ecx, DWORD PTR _i$[ebp]
	imul	ecx, 20					; 00000014H
	movsx	edx, BYTE PTR _options[ecx+16]
	push	edx
	mov	eax, DWORD PTR tv189[ebp]
	push	eax
	push	OFFSET ??_C@_0BG@BPNIFCDI@?$CF?95s?5?9?$CFc?5?$CFs?$CF?910s?5?5?$CFs?6?$AA@
	mov	edi, esp
	call	DWORD PTR __imp____iob_func
	cmp	edi, esp
	call	__RTC_CheckEsp
	add	eax, 64					; 00000040H
	push	eax
	call	DWORD PTR __imp__fprintf
	add	esp, 28					; 0000001cH
	cmp	esi, esp
	call	__RTC_CheckEsp
; Line 342
	jmp	$LN44@main
$LN43@main:
; Line 344
	mov	esi, esp
	push	OFFSET ??_C@_0BE@BEGGIDHH@modes?3?5?$CI?9m?5option?$CJ?6?$AA@
	mov	edi, esp
	call	DWORD PTR __imp____iob_func
	cmp	edi, esp
	call	__RTC_CheckEsp
	add	eax, 64					; 00000040H
	push	eax
	call	DWORD PTR __imp__fprintf
	add	esp, 8
	cmp	esi, esp
	call	__RTC_CheckEsp
; Line 345
	mov	DWORD PTR _i$[ebp], 0
	jmp	SHORT $LN42@main
$LN41@main:
	mov	eax, DWORD PTR _i$[ebp]
	add	eax, 1
	mov	DWORD PTR _i$[ebp], eax
$LN42@main:
	cmp	DWORD PTR _i$[ebp], 4
	jae	$LN40@main
; Line 346
	mov	eax, DWORD PTR _i$[ebp]
	imul	eax, 12					; 0000000cH
	mov	esi, esp
	mov	ecx, DWORD PTR _modes[eax]
	push	ecx
	push	OFFSET ??_C@_08INOMAIII@?5?5?5?$CF?99s?5?$AA@
	mov	edi, esp
	call	DWORD PTR __imp____iob_func
	cmp	edi, esp
	call	__RTC_CheckEsp
	add	eax, 64					; 00000040H
	push	eax
	call	DWORD PTR __imp__fprintf
	add	esp, 12					; 0000000cH
	cmp	esi, esp
	call	__RTC_CheckEsp
; Line 347
	mov	eax, DWORD PTR _i$[ebp]
	imul	eax, 12					; 0000000cH
	cmp	DWORD PTR _modes[eax+4], 0
	je	SHORT $LN39@main
; Line 348
	mov	eax, DWORD PTR _i$[ebp]
	imul	eax, 12					; 0000000cH
	mov	esi, esp
	mov	ecx, DWORD PTR _modes[eax+4]
	push	ecx
	push	OFFSET ??_C@_06CIBLEPHP@?1?5?$CF?99s?$AA@
	mov	edi, esp
	call	DWORD PTR __imp____iob_func
	cmp	edi, esp
	call	__RTC_CheckEsp
	add	eax, 64					; 00000040H
	push	eax
	call	DWORD PTR __imp__fprintf
	add	esp, 12					; 0000000cH
	cmp	esi, esp
	call	__RTC_CheckEsp
; Line 349
	jmp	SHORT $LN38@main
$LN39@main:
; Line 350
	mov	esi, esp
	push	OFFSET ??_C@_0M@CKHGFAEI@?5?5?5?5?5?5?5?5?5?5?5?$AA@
	mov	edi, esp
	call	DWORD PTR __imp____iob_func
	cmp	edi, esp
	call	__RTC_CheckEsp
	add	eax, 64					; 00000040H
	push	eax
	call	DWORD PTR __imp__fprintf
	add	esp, 8
	cmp	esi, esp
	call	__RTC_CheckEsp
$LN38@main:
; Line 352
	mov	eax, DWORD PTR _i$[ebp]
	imul	eax, 12					; 0000000cH
	mov	esi, esp
	mov	ecx, DWORD PTR _modes[eax+8]
	push	ecx
	push	OFFSET ??_C@_05LDOEBFOB@?5?5?$CFs?6?$AA@
	mov	edi, esp
	call	DWORD PTR __imp____iob_func
	cmp	edi, esp
	call	__RTC_CheckEsp
	add	eax, 64					; 00000040H
	push	eax
	call	DWORD PTR __imp__fprintf
	add	esp, 12					; 0000000cH
	cmp	esi, esp
	call	__RTC_CheckEsp
; Line 353
	jmp	$LN41@main
$LN40@main:
; Line 354
	mov	eax, 1
	jmp	$LN55@main
$LN47@main:
; Line 358
	push	80					; 00000050H
	push	0
	lea	eax, DWORD PTR _o$[ebp]
	push	eax
	call	_memset
	add	esp, 12					; 0000000cH
; Line 360
	mov	eax, DWORD PTR _options+44
	mov	DWORD PTR _o$[ebp+48], eax
; Line 361
	movsx	eax, BYTE PTR _options+298
	neg	eax
	sbb	eax, eax
	and	eax, DWORD PTR _options+284
	mov	DWORD PTR _o$[ebp+52], eax
; Line 363
	mov	eax, DWORD PTR _options+4
	mov	DWORD PTR _o$[ebp+16], eax
; Line 365
	mov	eax, DWORD PTR _o$[ebp+16]
	push	eax
	call	_strlen
	add	esp, 4
	mov	DWORD PTR _len$11230[ebp], eax
; Line 369
	mov	eax, DWORD PTR _len$11230[ebp]
	add	eax, 2
	push	eax
	call	_uprv_malloc_56
	add	esp, 4
	mov	DWORD PTR _csname$11232[ebp], eax
	mov	ecx, DWORD PTR _csname$11232[ebp]
	mov	DWORD PTR _cp$11233[ebp], ecx
; Line 370
	mov	eax, DWORD PTR _o$[ebp+16]
	mov	DWORD PTR _sp$11234[ebp], eax
	mov	ecx, DWORD PTR _sp$11234[ebp]
	movsx	edx, BYTE PTR [ecx]
	test	edx, edx
	je	$LN37@main
; Line 371
	mov	eax, DWORD PTR _sp$11234[ebp]
	movsx	ecx, BYTE PTR [eax]
	mov	esi, esp
	push	ecx
	call	DWORD PTR __imp__isalpha
	add	esp, 4
	cmp	esi, esp
	call	__RTC_CheckEsp
	test	eax, eax
	je	SHORT $LN63@main
	mov	edx, DWORD PTR _sp$11234[ebp]
	mov	al, BYTE PTR [edx]
	mov	BYTE PTR tv256[ebp], al
	jmp	SHORT $LN64@main
$LN63@main:
	mov	BYTE PTR tv256[ebp], 95			; 0000005fH
$LN64@main:
	mov	ecx, DWORD PTR _cp$11233[ebp]
	mov	dl, BYTE PTR tv256[ebp]
	mov	BYTE PTR [ecx], dl
	mov	eax, DWORD PTR _cp$11233[ebp]
	add	eax, 1
	mov	DWORD PTR _cp$11233[ebp], eax
; Line 372
	mov	eax, DWORD PTR _sp$11234[ebp]
	add	eax, 1
	mov	DWORD PTR _sp$11234[ebp], eax
	jmp	SHORT $LN36@main
$LN35@main:
	mov	eax, DWORD PTR _sp$11234[ebp]
	add	eax, 1
	mov	DWORD PTR _sp$11234[ebp], eax
$LN36@main:
	mov	eax, DWORD PTR _sp$11234[ebp]
	movsx	ecx, BYTE PTR [eax]
	test	ecx, ecx
	je	SHORT $LN37@main
; Line 373
	mov	eax, DWORD PTR _sp$11234[ebp]
	movsx	ecx, BYTE PTR [eax]
	mov	esi, esp
	push	ecx
	call	DWORD PTR __imp__isalnum
	add	esp, 4
	cmp	esi, esp
	call	__RTC_CheckEsp
	test	eax, eax
	je	SHORT $LN65@main
	mov	edx, DWORD PTR _sp$11234[ebp]
	mov	al, BYTE PTR [edx]
	mov	BYTE PTR tv266[ebp], al
	jmp	SHORT $LN66@main
$LN65@main:
	mov	BYTE PTR tv266[ebp], 95			; 0000005fH
$LN66@main:
	mov	ecx, DWORD PTR _cp$11233[ebp]
	mov	dl, BYTE PTR tv266[ebp]
	mov	BYTE PTR [ecx], dl
	mov	eax, DWORD PTR _cp$11233[ebp]
	add	eax, 1
	mov	DWORD PTR _cp$11233[ebp], eax
; Line 374
	jmp	SHORT $LN35@main
$LN37@main:
; Line 376
	mov	eax, DWORD PTR _cp$11233[ebp]
	mov	BYTE PTR [eax], 0
; Line 378
	mov	eax, DWORD PTR _csname$11232[ebp]
	mov	DWORD PTR _o$[ebp+20], eax
; Line 381
	movsx	eax, BYTE PTR _options+338
	test	eax, eax
	je	SHORT $LN33@main
; Line 382
	mov	eax, DWORD PTR _options+324
	mov	DWORD PTR _o$[ebp+68], eax
; Line 383
	jmp	SHORT $LN32@main
$LN33@main:
; Line 384
	mov	eax, DWORD PTR _o$[ebp+16]
	mov	DWORD PTR _o$[ebp+68], eax
$LN32@main:
; Line 387
	movsx	eax, BYTE PTR _options+358
	test	eax, eax
	je	SHORT $LN31@main
; Line 388
	mov	BYTE PTR _o$[ebp+74], 1
; Line 389
	jmp	SHORT $LN30@main
$LN31@main:
; Line 390
	mov	BYTE PTR _o$[ebp+74], 0
$LN30@main:
; Line 393
	movsx	eax, BYTE PTR _options+398
	test	eax, eax
	je	SHORT $LN29@main
; Line 397
	mov	BYTE PTR _o$[ebp+76], 0
; Line 398
	mov	esi, esp
	push	OFFSET ??_C@_0EA@DLAPCBNN@Warning?3?5You?5are?5using?5the?5?9z?5op@
	mov	edi, esp
	call	DWORD PTR __imp____iob_func
	cmp	edi, esp
	call	__RTC_CheckEsp
	add	eax, 32					; 00000020H
	push	eax
	call	DWORD PTR __imp__fprintf
	add	esp, 8
	cmp	esi, esp
	call	__RTC_CheckEsp
; Line 401
	jmp	SHORT $LN28@main
$LN29@main:
; Line 402
	mov	BYTE PTR _o$[ebp+76], 0
$LN28@main:
; Line 405
	mov	al, BYTE PTR _options+118
	mov	BYTE PTR _o$[ebp+73], al
; Line 415
	movsx	eax, BYTE PTR _options+138
	test	eax, eax
	je	SHORT $LN27@main
; Line 416
	mov	DWORD PTR _o$[ebp+56], OFFSET ??_C@_0GD@IBBFEJOD@?5Copyright?5?$CIC?$CJ?52015?0?5Internation@
	jmp	SHORT $LN26@main
$LN27@main:
; Line 417
	movsx	eax, BYTE PTR _options+158
	test	eax, eax
	je	SHORT $LN26@main
; Line 418
	mov	eax, DWORD PTR _options+144
	mov	DWORD PTR _o$[ebp+56], eax
$LN26@main:
; Line 421
	movsx	eax, BYTE PTR _options+178
	test	eax, eax
	je	SHORT $LN24@main
; Line 422
	mov	eax, DWORD PTR _options+164
	mov	DWORD PTR _o$[ebp+28], eax
; Line 423
	jmp	SHORT $LN23@main
$LN24@main:
; Line 424
	mov	DWORD PTR _o$[ebp+28], OFFSET ??_C@_01LFCBOECM@?4?$AA@
$LN23@main:
; Line 427
	mov	al, BYTE PTR _options+198
	mov	BYTE PTR _o$[ebp+72], al
; Line 429
	movsx	eax, BYTE PTR _options+218
	test	eax, eax
	je	SHORT $LN22@main
; Line 430
	mov	eax, DWORD PTR _options+204
	mov	DWORD PTR _o$[ebp+36], eax
; Line 431
	jmp	SHORT $LN21@main
$LN22@main:
; Line 432
	mov	eax, DWORD PTR _o$[ebp+28]
	mov	DWORD PTR _o$[ebp+36], eax
$LN21@main:
; Line 435
	movsx	eax, BYTE PTR _options+238
	test	eax, eax
	je	SHORT $LN20@main
; Line 436
	mov	eax, DWORD PTR _options+224
	mov	DWORD PTR _o$[ebp+60], eax
; Line 437
	jmp	SHORT $LN19@main
$LN20@main:
; Line 438
	mov	DWORD PTR _o$[ebp+60], 0
$LN19@main:
; Line 441
	movsx	eax, BYTE PTR _options+258
	test	eax, eax
	je	SHORT $LN18@main
; Line 442
	mov	eax, DWORD PTR _options+244
	mov	DWORD PTR _o$[ebp+40], eax
; Line 443
	jmp	SHORT $LN17@main
$LN18@main:
; Line 444
	mov	DWORD PTR _o$[ebp+40], OFFSET ??_C@_01LFCBOECM@?4?$AA@
$LN17@main:
; Line 447
	movsx	eax, BYTE PTR _options+278
	test	eax, eax
	je	SHORT $LN16@main
; Line 448
	mov	eax, DWORD PTR _options+264
	mov	DWORD PTR _o$[ebp+24], eax
; Line 449
	jmp	SHORT $LN15@main
$LN16@main:
; Line 450
	mov	eax, DWORD PTR _o$[ebp+20]
	mov	DWORD PTR _o$[ebp+24], eax
$LN15@main:
; Line 453
	mov	BYTE PTR _o$[ebp+75], 0
; Line 454
	movsx	eax, BYTE PTR _options+378
	test	eax, eax
	je	SHORT $LN14@main
; Line 456
	mov	esi, esp
	push	OFFSET ??_C@_0GL@ENCJOGLG@Warning?3?5You?5are?5using?5the?5optio@
	mov	edi, esp
	call	DWORD PTR __imp____iob_func
	cmp	edi, esp
	call	__RTC_CheckEsp
	add	eax, 32					; 00000020H
	push	eax
	call	DWORD PTR __imp__fprintf
	add	esp, 8
	cmp	esi, esp
	call	__RTC_CheckEsp
; Line 457
	mov	esi, esp
	push	OFFSET ??_C@_0CH@BIBBALKP@Warning?3?5This?5option?5will?5be?5ign@
	mov	edi, esp
	call	DWORD PTR __imp____iob_func
	cmp	edi, esp
	call	__RTC_CheckEsp
	add	eax, 32					; 00000020H
	push	eax
	call	DWORD PTR __imp__fprintf
	add	esp, 8
	cmp	esi, esp
	call	__RTC_CheckEsp
$LN14@main:
; Line 464
	mov	DWORD PTR _tail$[ebp], 0
; Line 465
	mov	DWORD PTR _n$[ebp], 1
	jmp	SHORT $LN13@main
$LN12@main:
	mov	eax, DWORD PTR _n$[ebp]
	add	eax, 1
	mov	DWORD PTR _n$[ebp], eax
$LN13@main:
	mov	eax, DWORD PTR _n$[ebp]
	cmp	eax, DWORD PTR _argc$[ebp]
	jge	SHORT $LN11@main
; Line 466
	mov	eax, DWORD PTR _n$[ebp]
	mov	ecx, DWORD PTR _argv$[ebp]
	mov	edx, DWORD PTR [ecx+eax*4]
	push	edx
	call	_uprv_strdup_56
	add	esp, 4
	push	eax
	lea	eax, DWORD PTR _tail$[ebp]
	push	eax
	mov	ecx, DWORD PTR _o$[ebp]
	push	ecx
	call	_pkg_appendToList
	add	esp, 12					; 0000000cH
	mov	DWORD PTR _o$[ebp], eax
; Line 467
	jmp	SHORT $LN12@main
$LN11@main:
; Line 470
	lea	eax, DWORD PTR _status$[ebp]
	push	eax
	lea	ecx, DWORD PTR _o$[ebp]
	push	ecx
	call	?loadLists@@YAXPAUUPKGOptions_@@PAW4UErrorCode@@@Z ; loadLists
	add	esp, 8
; Line 471
	mov	eax, DWORD PTR _status$[ebp]
	push	eax
	call	?U_FAILURE@@YACW4UErrorCode@@@Z		; U_FAILURE
	add	esp, 4
	movsx	ecx, al
	test	ecx, ecx
	je	SHORT $LN10@main
; Line 472
	mov	eax, DWORD PTR _status$[ebp]
	push	eax
	call	_u_errorName_56
	add	esp, 4
	mov	esi, esp
	push	eax
	push	OFFSET ??_C@_0CE@ICOMKHEM@error?5loading?5input?5file?5lists?3?5@
	mov	edi, esp
	call	DWORD PTR __imp____iob_func
	cmp	edi, esp
	call	__RTC_CheckEsp
	add	eax, 64					; 00000040H
	push	eax
	call	DWORD PTR __imp__fprintf
	add	esp, 12					; 0000000cH
	cmp	esi, esp
	call	__RTC_CheckEsp
; Line 473
	mov	eax, 2
	jmp	$LN55@main
$LN10@main:
; Line 476
	lea	eax, DWORD PTR _o$[ebp]
	push	eax
	call	?pkg_executeOptions@@YAHPAUUPKGOptions_@@@Z ; pkg_executeOptions
	add	esp, 4
	mov	DWORD PTR _result$[ebp], eax
; Line 478
	cmp	DWORD PTR _pkgDataFlags, 0
	je	SHORT $LN9@main
; Line 479
	mov	DWORD PTR _n$[ebp], 0
	jmp	SHORT $LN8@main
$LN7@main:
	mov	eax, DWORD PTR _n$[ebp]
	add	eax, 1
	mov	DWORD PTR _n$[ebp], eax
$LN8@main:
	cmp	DWORD PTR _n$[ebp], 17			; 00000011H
	jge	SHORT $LN6@main
; Line 480
	mov	eax, DWORD PTR _n$[ebp]
	mov	ecx, DWORD PTR _pkgDataFlags
	cmp	DWORD PTR [ecx+eax*4], 0
	je	SHORT $LN5@main
; Line 481
	mov	eax, DWORD PTR _n$[ebp]
	mov	ecx, DWORD PTR _pkgDataFlags
	mov	edx, DWORD PTR [ecx+eax*4]
	push	edx
	call	_uprv_free_56
	add	esp, 4
$LN5@main:
; Line 483
	jmp	SHORT $LN7@main
$LN6@main:
; Line 484
	mov	eax, DWORD PTR _pkgDataFlags
	push	eax
	call	_uprv_free_56
	add	esp, 4
$LN9@main:
; Line 487
	cmp	DWORD PTR _o$[ebp+20], 0
	je	SHORT $LN4@main
; Line 488
	mov	eax, DWORD PTR _o$[ebp+20]
	push	eax
	call	_uprv_free_56
	add	esp, 4
$LN4@main:
; Line 490
	cmp	DWORD PTR _o$[ebp], 0
	je	SHORT $LN3@main
; Line 491
	mov	eax, DWORD PTR _o$[ebp]
	push	eax
	call	_pkg_deleteList
	add	esp, 4
$LN3@main:
; Line 493
	cmp	DWORD PTR _o$[ebp+4], 0
	je	SHORT $LN2@main
; Line 494
	mov	eax, DWORD PTR _o$[ebp+4]
	push	eax
	call	_pkg_deleteList
	add	esp, 4
$LN2@main:
; Line 496
	cmp	DWORD PTR _o$[ebp+8], 0
	je	SHORT $LN1@main
; Line 497
	mov	eax, DWORD PTR _o$[ebp+8]
	push	eax
	call	_pkg_deleteList
	add	esp, 4
$LN1@main:
; Line 500
	mov	eax, DWORD PTR _result$[ebp]
$LN55@main:
; Line 501
	push	edx
	mov	ecx, ebp
	push	eax
	lea	edx, DWORD PTR $LN71@main
	call	@_RTC_CheckStackVars@8
	pop	eax
	pop	edx
	pop	edi
	pop	esi
	pop	ebx
	add	esp, 412				; 0000019cH
	cmp	ebp, esp
	call	__RTC_CheckEsp
	mov	esp, ebp
	pop	ebp
	ret	0
	npad	1
$LN71@main:
	DD	3
	DD	$LN70@main
$LN70@main:
	DD	-96					; ffffffa0H
	DD	80					; 00000050H
	DD	$LN67@main
	DD	-108					; ffffff94H
	DD	4
	DD	$LN68@main
	DD	-132					; ffffff7cH
	DD	4
	DD	$LN69@main
$LN69@main:
	DB	115					; 00000073H
	DB	116					; 00000074H
	DB	97					; 00000061H
	DB	116					; 00000074H
	DB	117					; 00000075H
	DB	115					; 00000073H
	DB	0
$LN68@main:
	DB	116					; 00000074H
	DB	97					; 00000061H
	DB	105					; 00000069H
	DB	108					; 0000006cH
	DB	0
$LN67@main:
	DB	111					; 0000006fH
	DB	0
_main	ENDP
; Function compile flags: /Odtp /RTCsu /ZI
_TEXT	ENDS
;	COMDAT ?U_FAILURE@@YACW4UErrorCode@@@Z
_TEXT	SEGMENT
_code$ = 8						; size = 4
?U_FAILURE@@YACW4UErrorCode@@@Z PROC			; U_FAILURE, COMDAT
; File d:\mozilla\intl\icu\include\unicode\utypes.h
; Line 705
	push	ebp
	mov	ebp, esp
	sub	esp, 192				; 000000c0H
	push	ebx
	push	esi
	push	edi
	lea	edi, DWORD PTR [ebp-192]
	mov	ecx, 48					; 00000030H
	mov	eax, -858993460				; ccccccccH
	rep stosd
	cmp	DWORD PTR _code$[ebp], 0
	setg	al
	pop	edi
	pop	esi
	pop	ebx
	mov	esp, ebp
	pop	ebp
	ret	0
?U_FAILURE@@YACW4UErrorCode@@@Z ENDP			; U_FAILURE
_TEXT	ENDS
PUBLIC	??_C@_0CA@GBONNIL@Error?5generating?5package?5data?4?6?$AA@ ; `string'
PUBLIC	??_C@_0EE@JODDODMN@Error?9?5BUILD_DATA_WITHOUT_ASSEMB@ ; `string'
PUBLIC	??_C@_0CA@JDIILMBD@?$CD?5Writing?5object?5code?5to?5?$CFs?5?4?4?6?$AA@ ; `string'
PUBLIC	??_C@_0CA@LDKEGMIE@Assembly?5type?5?$CC?$CFs?$CC?5is?5unknown?4?6?$AA@ ; `string'
PUBLIC	??_C@_0CF@OPOHPGMP@?$CD?5Installing?5static?5library?5into@ ; `string'
PUBLIC	??_C@_0CK@JFDNIOCJ@Error?5generating?5assembly?5code?5f@ ; `string'
PUBLIC	??_C@_0CN@KAPBMKIE@?$CD?5Generating?5assembly?5code?5?$CFs?5of@ ; `string'
PUBLIC	??_C@_0DH@GPJAJKAG@Unable?5to?5move?5dat?5file?5?$CI?$CFs?$CJ?5to?5@ ; `string'
PUBLIC	??_C@_0CA@KOCNCMBB@?$CD?5Moving?5package?5file?5to?5?$CFs?5?4?4?6?$AA@ ; `string'
PUBLIC	??_C@_0CD@CPNAIILI@Unable?5to?5remove?5old?5dat?5file?3?5?$CF@ ; `string'
PUBLIC	??_C@_0CB@FKNDPKKO@Error?5writing?5package?5dat?5file?4?6@ ; `string'
PUBLIC	??_C@_0BO@DPFFGHIO@?$CD?5Writing?5package?5file?5?$CFs?5?4?4?6?$AA@ ; `string'
PUBLIC	??_C@_04PBCOOEDG@?4dat?$AA@			; `string'
PUBLIC	??_C@_0CO@DNJANFCH@?$CD?5Install?3?5Files?5mode?0?5copying?5f@ ; `string'
PUBLIC	??_C@_01KICIPPFI@?2?$AA@			; `string'
PUBLIC	__$ArrayPad$
EXTRN	_writeObjectCode:PROC
EXTRN	_writeAssemblyCode:PROC
EXTRN	_checkAssemblyHeaderName:PROC
EXTRN	__imp__rename:PROC
EXTRN	__imp__remove:PROC
EXTRN	_T_FileStream_file_exists:PROC
EXTRN	_strcmp:PROC
EXTRN	_writePackageDatFile:PROC
EXTRN	_strcat:PROC
EXTRN	_strcpy:PROC
EXTRN	___security_cookie:DWORD
EXTRN	@__security_check_cookie@4:PROC
EXTRN	__chkstk:PROC
EXTRN	_memset:PROC
;	COMDAT ??_C@_0CA@GBONNIL@Error?5generating?5package?5data?4?6?$AA@
; File d:\mozilla\intl\icu\source\tools\pkgdata\pkgdata.cpp
CONST	SEGMENT
??_C@_0CA@GBONNIL@Error?5generating?5package?5data?4?6?$AA@ DB 'Error gen'
	DB	'erating package data.', 0aH, 00H		; `string'
CONST	ENDS
;	COMDAT ??_C@_0EE@JODDODMN@Error?9?5BUILD_DATA_WITHOUT_ASSEMB@
CONST	SEGMENT
??_C@_0EE@JODDODMN@Error?9?5BUILD_DATA_WITHOUT_ASSEMB@ DB 'Error- BUILD_D'
	DB	'ATA_WITHOUT_ASSEMBLY is not defined. Internal error.', 0aH, 00H ; `string'
CONST	ENDS
;	COMDAT ??_C@_0CA@JDIILMBD@?$CD?5Writing?5object?5code?5to?5?$CFs?5?4?4?6?$AA@
CONST	SEGMENT
??_C@_0CA@JDIILMBD@?$CD?5Writing?5object?5code?5to?5?$CFs?5?4?4?6?$AA@ DB '#'
	DB	' Writing object code to %s ..', 0aH, 00H	; `string'
CONST	ENDS
;	COMDAT ??_C@_0CA@LDKEGMIE@Assembly?5type?5?$CC?$CFs?$CC?5is?5unknown?4?6?$AA@
CONST	SEGMENT
??_C@_0CA@LDKEGMIE@Assembly?5type?5?$CC?$CFs?$CC?5is?5unknown?4?6?$AA@ DB 'A'
	DB	'ssembly type "%s" is unknown.', 0aH, 00H	; `string'
CONST	ENDS
;	COMDAT ??_C@_0CF@OPOHPGMP@?$CD?5Installing?5static?5library?5into@
CONST	SEGMENT
??_C@_0CF@OPOHPGMP@?$CD?5Installing?5static?5library?5into@ DB '# Install'
	DB	'ing static library into %s', 0aH, 00H	; `string'
CONST	ENDS
;	COMDAT ??_C@_0CK@JFDNIOCJ@Error?5generating?5assembly?5code?5f@
CONST	SEGMENT
??_C@_0CK@JFDNIOCJ@Error?5generating?5assembly?5code?5f@ DB 'Error genera'
	DB	'ting assembly code for data.', 0aH, 00H	; `string'
CONST	ENDS
;	COMDAT ??_C@_0CN@KAPBMKIE@?$CD?5Generating?5assembly?5code?5?$CFs?5of@
CONST	SEGMENT
??_C@_0CN@KAPBMKIE@?$CD?5Generating?5assembly?5code?5?$CFs?5of@ DB '# Gen'
	DB	'erating assembly code %s of type %s ..', 0aH, 00H ; `string'
CONST	ENDS
;	COMDAT ??_C@_0DH@GPJAJKAG@Unable?5to?5move?5dat?5file?5?$CI?$CFs?$CJ?5to?5@
CONST	SEGMENT
??_C@_0DH@GPJAJKAG@Unable?5to?5move?5dat?5file?5?$CI?$CFs?$CJ?5to?5@ DB 'U'
	DB	'nable to move dat file (%s) to target location (%s).', 0aH, 00H ; `string'
CONST	ENDS
;	COMDAT ??_C@_0CA@KOCNCMBB@?$CD?5Moving?5package?5file?5to?5?$CFs?5?4?4?6?$AA@
CONST	SEGMENT
??_C@_0CA@KOCNCMBB@?$CD?5Moving?5package?5file?5to?5?$CFs?5?4?4?6?$AA@ DB '#'
	DB	' Moving package file to %s ..', 0aH, 00H	; `string'
CONST	ENDS
;	COMDAT ??_C@_0CD@CPNAIILI@Unable?5to?5remove?5old?5dat?5file?3?5?$CF@
CONST	SEGMENT
??_C@_0CD@CPNAIILI@Unable?5to?5remove?5old?5dat?5file?3?5?$CF@ DB 'Unable'
	DB	' to remove old dat file: %s', 0aH, 00H	; `string'
CONST	ENDS
;	COMDAT ??_C@_0CB@FKNDPKKO@Error?5writing?5package?5dat?5file?4?6@
CONST	SEGMENT
??_C@_0CB@FKNDPKKO@Error?5writing?5package?5dat?5file?4?6@ DB 'Error writ'
	DB	'ing package dat file.', 0aH, 00H		; `string'
CONST	ENDS
;	COMDAT ??_C@_0BO@DPFFGHIO@?$CD?5Writing?5package?5file?5?$CFs?5?4?4?6?$AA@
CONST	SEGMENT
??_C@_0BO@DPFFGHIO@?$CD?5Writing?5package?5file?5?$CFs?5?4?4?6?$AA@ DB '#'
	DB	' Writing package file %s ..', 0aH, 00H	; `string'
CONST	ENDS
;	COMDAT ??_C@_04PBCOOEDG@?4dat?$AA@
CONST	SEGMENT
??_C@_04PBCOOEDG@?4dat?$AA@ DB '.dat', 00H		; `string'
CONST	ENDS
;	COMDAT ??_C@_0CO@DNJANFCH@?$CD?5Install?3?5Files?5mode?0?5copying?5f@
CONST	SEGMENT
??_C@_0CO@DNJANFCH@?$CD?5Install?3?5Files?5mode?0?5copying?5f@ DB '# Inst'
	DB	'all: Files mode, copying files to %s..', 0aH, 00H ; `string'
CONST	ENDS
;	COMDAT ??_C@_01KICIPPFI@?2?$AA@
CONST	SEGMENT
??_C@_01KICIPPFI@?2?$AA@ DB '\', 00H			; `string'
; Function compile flags: /Odtp /RTCsu /ZI
CONST	ENDS
;	COMDAT ?pkg_executeOptions@@YAHPAUUPKGOptions_@@@Z
_TEXT	SEGMENT
_optMatchArch$11359 = -8348				; size = 10
_genccodeAssembly$11340 = -8328				; size = 4
_reverseExt$11338 = -8313				; size = 1
_version_major$11337 = -8304				; size = 10
_gencFilePath$11336 = -8284				; size = 512
_targetFileNamePath$11325 = -7764			; size = 2048
_noVersion$11317 = -5705				; size = 1
_checkLibFile$ = -5696					; size = 2048
_datFileNamePath$ = -3640				; size = 2048
_datFileName$ = -1584					; size = 512
_tmpDir$ = -1064					; size = 512
_targetDir$ = -544					; size = 512
_mode$ = -21						; size = 1
_result$ = -12						; size = 4
__$ArrayPad$ = -4					; size = 4
_o$ = 8							; size = 4
?pkg_executeOptions@@YAHPAUUPKGOptions_@@@Z PROC	; pkg_executeOptions, COMDAT
; Line 551
	push	ebp
	mov	ebp, esp
	mov	eax, 8544				; 00002160H
	call	__chkstk
	push	ebx
	push	esi
	push	edi
	lea	edi, DWORD PTR [ebp-8544]
	mov	ecx, 2136				; 00000858H
	mov	eax, -858993460				; ccccccccH
	rep stosd
	mov	eax, DWORD PTR ___security_cookie
	xor	eax, ebp
	mov	DWORD PTR __$ArrayPad$[ebp], eax
; Line 552
	mov	DWORD PTR _result$[ebp], 0
; Line 554
	mov	eax, DWORD PTR _o$[ebp]
	mov	ecx, DWORD PTR [eax+48]
	mov	dl, BYTE PTR [ecx]
	mov	BYTE PTR _mode$[ebp], dl
; Line 555
	mov	al, BYTE PTR ??_C@_00CNPNBAHC@?$AA@
	mov	BYTE PTR _targetDir$[ebp], al
	push	511					; 000001ffH
	push	0
	lea	eax, DWORD PTR _targetDir$[ebp+1]
	push	eax
	call	_memset
	add	esp, 12					; 0000000cH
; Line 556
	mov	al, BYTE PTR ??_C@_00CNPNBAHC@?$AA@
	mov	BYTE PTR _tmpDir$[ebp], al
	push	511					; 000001ffH
	push	0
	lea	eax, DWORD PTR _tmpDir$[ebp+1]
	push	eax
	call	_memset
	add	esp, 12					; 0000000cH
; Line 557
	mov	al, BYTE PTR ??_C@_00CNPNBAHC@?$AA@
	mov	BYTE PTR _datFileName$[ebp], al
	push	511					; 000001ffH
	push	0
	lea	eax, DWORD PTR _datFileName$[ebp+1]
	push	eax
	call	_memset
	add	esp, 12					; 0000000cH
; Line 558
	mov	al, BYTE PTR ??_C@_00CNPNBAHC@?$AA@
	mov	BYTE PTR _datFileNamePath$[ebp], al
	push	2047					; 000007ffH
	push	0
	lea	eax, DWORD PTR _datFileNamePath$[ebp+1]
	push	eax
	call	_memset
	add	esp, 12					; 0000000cH
; Line 559
	mov	al, BYTE PTR ??_C@_00CNPNBAHC@?$AA@
	mov	BYTE PTR _checkLibFile$[ebp], al
	push	2047					; 000007ffH
	push	0
	lea	eax, DWORD PTR _checkLibFile$[ebp+1]
	push	eax
	call	_memset
	add	esp, 12					; 0000000cH
; Line 561
	mov	eax, DWORD PTR _o$[ebp]
	push	eax
	call	?initializePkgDataFlags@@YAHPAUUPKGOptions_@@@Z ; initializePkgDataFlags
	add	esp, 4
; Line 563
	movsx	eax, BYTE PTR _mode$[ebp]
	cmp	eax, 102				; 00000066H
	jne	$LN30@pkg_execut
; Line 565
	mov	eax, DWORD PTR _o$[ebp]
	cmp	DWORD PTR [eax+60], 0
	je	$LN29@pkg_execut
; Line 566
	mov	eax, DWORD PTR _o$[ebp]
	mov	ecx, DWORD PTR [eax+60]
	push	ecx
	lea	edx, DWORD PTR _targetDir$[ebp]
	push	edx
	call	_strcpy
	add	esp, 8
; Line 567
	mov	eax, DWORD PTR _o$[ebp]
	cmp	DWORD PTR [eax+16], 0
	je	SHORT $LN28@pkg_execut
; Line 568
	push	OFFSET ??_C@_01KICIPPFI@?2?$AA@
	lea	eax, DWORD PTR _targetDir$[ebp]
	push	eax
	call	_strcat
	add	esp, 8
; Line 569
	mov	eax, DWORD PTR _o$[ebp]
	mov	ecx, DWORD PTR [eax+16]
	push	ecx
	lea	edx, DWORD PTR _targetDir$[ebp]
	push	edx
	call	_strcat
	add	esp, 8
$LN28@pkg_execut:
; Line 572
	mov	eax, DWORD PTR _o$[ebp]
	movsx	ecx, BYTE PTR [eax+73]
	test	ecx, ecx
	je	SHORT $LN27@pkg_execut
; Line 573
	mov	esi, esp
	lea	eax, DWORD PTR _targetDir$[ebp]
	push	eax
	push	OFFSET ??_C@_0CO@DNJANFCH@?$CD?5Install?3?5Files?5mode?0?5copying?5f@
	mov	edi, esp
	call	DWORD PTR __imp____iob_func
	cmp	edi, esp
	call	__RTC_CheckEsp
	add	eax, 32					; 00000020H
	push	eax
	call	DWORD PTR __imp__fprintf
	add	esp, 12					; 0000000cH
	cmp	esi, esp
	call	__RTC_CheckEsp
$LN27@pkg_execut:
; Line 575
	mov	eax, DWORD PTR _o$[ebp]
	mov	ecx, DWORD PTR [eax]
	mov	edx, DWORD PTR [ecx]
	push	edx
	mov	eax, DWORD PTR _o$[ebp]
	mov	ecx, DWORD PTR [eax+40]
	push	ecx
	lea	edx, DWORD PTR _targetDir$[ebp]
	push	edx
	call	?pkg_installFileMode@@YAHPBD00@Z	; pkg_installFileMode
	add	esp, 12					; 0000000cH
	mov	DWORD PTR _result$[ebp], eax
$LN29@pkg_execut:
; Line 577
	mov	eax, DWORD PTR _result$[ebp]
	jmp	$LN31@pkg_execut
; Line 578
	jmp	$LN26@pkg_execut
$LN30@pkg_execut:
; Line 579
	mov	BYTE PTR _noVersion$11317[ebp], 0
; Line 581
	mov	eax, DWORD PTR _o$[ebp]
	mov	ecx, DWORD PTR [eax+28]
	push	ecx
	lea	edx, DWORD PTR _targetDir$[ebp]
	push	edx
	call	_strcpy
	add	esp, 8
; Line 582
	push	OFFSET ??_C@_01KICIPPFI@?2?$AA@
	lea	eax, DWORD PTR _targetDir$[ebp]
	push	eax
	call	_strcat
	add	esp, 8
; Line 584
	mov	eax, DWORD PTR _o$[ebp]
	mov	ecx, DWORD PTR [eax+36]
	push	ecx
	lea	edx, DWORD PTR _tmpDir$[ebp]
	push	edx
	call	_strcpy
	add	esp, 8
; Line 585
	push	OFFSET ??_C@_01KICIPPFI@?2?$AA@
	lea	eax, DWORD PTR _tmpDir$[ebp]
	push	eax
	call	_strcat
	add	esp, 8
; Line 587
	lea	eax, DWORD PTR _tmpDir$[ebp]
	push	eax
	lea	ecx, DWORD PTR _datFileNamePath$[ebp]
	push	ecx
	call	_strcpy
	add	esp, 8
; Line 589
	mov	eax, DWORD PTR _o$[ebp]
	mov	ecx, DWORD PTR [eax+16]
	push	ecx
	lea	edx, DWORD PTR _datFileName$[ebp]
	push	edx
	call	_strcpy
	add	esp, 8
; Line 590
	push	OFFSET ??_C@_04PBCOOEDG@?4dat?$AA@
	lea	eax, DWORD PTR _datFileName$[ebp]
	push	eax
	call	_strcat
	add	esp, 8
; Line 592
	lea	eax, DWORD PTR _datFileName$[ebp]
	push	eax
	lea	ecx, DWORD PTR _datFileNamePath$[ebp]
	push	ecx
	call	_strcat
	add	esp, 8
; Line 594
	mov	eax, DWORD PTR _o$[ebp]
	movsx	ecx, BYTE PTR [eax+73]
	test	ecx, ecx
	je	SHORT $LN25@pkg_execut
; Line 595
	mov	esi, esp
	lea	eax, DWORD PTR _datFileNamePath$[ebp]
	push	eax
	push	OFFSET ??_C@_0BO@DPFFGHIO@?$CD?5Writing?5package?5file?5?$CFs?5?4?4?6?$AA@
	mov	edi, esp
	call	DWORD PTR __imp____iob_func
	cmp	edi, esp
	call	__RTC_CheckEsp
	add	eax, 32					; 00000020H
	push	eax
	call	DWORD PTR __imp__fprintf
	add	esp, 12					; 0000000cH
	cmp	esi, esp
	call	__RTC_CheckEsp
$LN25@pkg_execut:
; Line 597
	push	108					; 0000006cH
	push	0
	mov	eax, DWORD PTR _o$[ebp]
	mov	ecx, DWORD PTR [eax]
	mov	edx, DWORD PTR [ecx]
	push	edx
	mov	eax, DWORD PTR _o$[ebp]
	mov	ecx, DWORD PTR [eax+40]
	push	ecx
	mov	edx, DWORD PTR _o$[ebp]
	mov	eax, DWORD PTR [edx+56]
	push	eax
	lea	ecx, DWORD PTR _datFileNamePath$[ebp]
	push	ecx
	call	_writePackageDatFile
	add	esp, 24					; 00000018H
	mov	DWORD PTR _result$[ebp], eax
; Line 598
	cmp	DWORD PTR _result$[ebp], 0
	je	SHORT $LN24@pkg_execut
; Line 599
	mov	esi, esp
	push	OFFSET ??_C@_0CB@FKNDPKKO@Error?5writing?5package?5dat?5file?4?6@
	mov	edi, esp
	call	DWORD PTR __imp____iob_func
	cmp	edi, esp
	call	__RTC_CheckEsp
	add	eax, 64					; 00000040H
	push	eax
	call	DWORD PTR __imp__fprintf
	add	esp, 8
	cmp	esi, esp
	call	__RTC_CheckEsp
; Line 600
	mov	eax, DWORD PTR _result$[ebp]
	jmp	$LN31@pkg_execut
$LN24@pkg_execut:
; Line 603
	movsx	eax, BYTE PTR _mode$[ebp]
	cmp	eax, 97					; 00000061H
	je	SHORT $LN22@pkg_execut
	movsx	eax, BYTE PTR _mode$[ebp]
	cmp	eax, 99					; 00000063H
	jne	$LN23@pkg_execut
$LN22@pkg_execut:
; Line 604
	mov	al, BYTE PTR ??_C@_00CNPNBAHC@?$AA@
	mov	BYTE PTR _targetFileNamePath$11325[ebp], al
	push	2047					; 000007ffH
	push	0
	lea	eax, DWORD PTR _targetFileNamePath$11325[ebp+1]
	push	eax
	call	_memset
	add	esp, 12					; 0000000cH
; Line 606
	lea	eax, DWORD PTR _targetDir$[ebp]
	push	eax
	lea	ecx, DWORD PTR _targetFileNamePath$11325[ebp]
	push	ecx
	call	_strcpy
	add	esp, 8
; Line 607
	lea	eax, DWORD PTR _datFileName$[ebp]
	push	eax
	lea	ecx, DWORD PTR _targetFileNamePath$11325[ebp]
	push	ecx
	call	_strcat
	add	esp, 8
; Line 610
	lea	eax, DWORD PTR _targetFileNamePath$11325[ebp]
	push	eax
	lea	ecx, DWORD PTR _datFileNamePath$[ebp]
	push	ecx
	call	_strcmp
	add	esp, 8
	test	eax, eax
	je	$LN21@pkg_execut
; Line 611
	lea	eax, DWORD PTR _targetFileNamePath$11325[ebp]
	push	eax
	call	_T_FileStream_file_exists
	add	esp, 4
	movsx	ecx, al
	test	ecx, ecx
	je	SHORT $LN20@pkg_execut
; Line 612
	mov	esi, esp
	lea	eax, DWORD PTR _targetFileNamePath$11325[ebp]
	push	eax
	call	DWORD PTR __imp__remove
	add	esp, 4
	cmp	esi, esp
	call	__RTC_CheckEsp
	mov	DWORD PTR _result$[ebp], eax
	cmp	DWORD PTR _result$[ebp], 0
	je	SHORT $LN20@pkg_execut
; Line 614
	mov	esi, esp
	lea	eax, DWORD PTR _targetFileNamePath$11325[ebp]
	push	eax
	push	OFFSET ??_C@_0CD@CPNAIILI@Unable?5to?5remove?5old?5dat?5file?3?5?$CF@
	mov	edi, esp
	call	DWORD PTR __imp____iob_func
	cmp	edi, esp
	call	__RTC_CheckEsp
	add	eax, 64					; 00000040H
	push	eax
	call	DWORD PTR __imp__fprintf
	add	esp, 12					; 0000000cH
	cmp	esi, esp
	call	__RTC_CheckEsp
; Line 615
	mov	eax, DWORD PTR _result$[ebp]
	jmp	$LN31@pkg_execut
$LN20@pkg_execut:
; Line 619
	mov	esi, esp
	lea	eax, DWORD PTR _targetFileNamePath$11325[ebp]
	push	eax
	lea	ecx, DWORD PTR _datFileNamePath$[ebp]
	push	ecx
	call	DWORD PTR __imp__rename
	add	esp, 8
	cmp	esi, esp
	call	__RTC_CheckEsp
	mov	DWORD PTR _result$[ebp], eax
; Line 621
	mov	eax, DWORD PTR _o$[ebp]
	movsx	ecx, BYTE PTR [eax+73]
	test	ecx, ecx
	je	SHORT $LN18@pkg_execut
; Line 623
	mov	esi, esp
	lea	eax, DWORD PTR _targetFileNamePath$11325[ebp]
	push	eax
	push	OFFSET ??_C@_0CA@KOCNCMBB@?$CD?5Moving?5package?5file?5to?5?$CFs?5?4?4?6?$AA@
	mov	edi, esp
	call	DWORD PTR __imp____iob_func
	cmp	edi, esp
	call	__RTC_CheckEsp
	add	eax, 32					; 00000020H
	push	eax
	call	DWORD PTR __imp__fprintf
	add	esp, 12					; 0000000cH
	cmp	esi, esp
	call	__RTC_CheckEsp
$LN18@pkg_execut:
; Line 625
	cmp	DWORD PTR _result$[ebp], 0
	je	SHORT $LN21@pkg_execut
; Line 629
	mov	esi, esp
	lea	eax, DWORD PTR _targetFileNamePath$11325[ebp]
	push	eax
	lea	ecx, DWORD PTR _datFileNamePath$[ebp]
	push	ecx
	push	OFFSET ??_C@_0DH@GPJAJKAG@Unable?5to?5move?5dat?5file?5?$CI?$CFs?$CJ?5to?5@
	mov	edi, esp
	call	DWORD PTR __imp____iob_func
	cmp	edi, esp
	call	__RTC_CheckEsp
	add	eax, 64					; 00000040H
	push	eax
	call	DWORD PTR __imp__fprintf
	add	esp, 16					; 00000010H
	cmp	esi, esp
	call	__RTC_CheckEsp
; Line 630
	mov	eax, DWORD PTR _result$[ebp]
	jmp	$LN31@pkg_execut
$LN21@pkg_execut:
; Line 634
	mov	eax, DWORD PTR _o$[ebp]
	cmp	DWORD PTR [eax+60], 0
	je	SHORT $LN16@pkg_execut
; Line 635
	lea	eax, DWORD PTR _targetFileNamePath$11325[ebp]
	push	eax
	mov	ecx, DWORD PTR _o$[ebp]
	mov	edx, DWORD PTR [ecx+60]
	push	edx
	call	?pkg_installCommonMode@@YAHPBD0@Z	; pkg_installCommonMode
	add	esp, 8
	mov	DWORD PTR _result$[ebp], eax
$LN16@pkg_execut:
; Line 638
	mov	eax, DWORD PTR _result$[ebp]
	jmp	$LN31@pkg_execut
; Line 639
	jmp	$LN26@pkg_execut
$LN23@pkg_execut:
; Line 640
	mov	al, BYTE PTR ??_C@_00CNPNBAHC@?$AA@
	mov	BYTE PTR _gencFilePath$11336[ebp], al
	push	511					; 000001ffH
	push	0
	lea	eax, DWORD PTR _gencFilePath$11336[ebp+1]
	push	eax
	call	_memset
	add	esp, 12					; 0000000cH
; Line 641
	mov	al, BYTE PTR ??_C@_00CNPNBAHC@?$AA@
	mov	BYTE PTR _version_major$11337[ebp], al
	xor	eax, eax
	mov	DWORD PTR _version_major$11337[ebp+1], eax
	mov	DWORD PTR _version_major$11337[ebp+5], eax
	mov	BYTE PTR _version_major$11337[ebp+9], al
; Line 642
	mov	BYTE PTR _reverseExt$11338[ebp], 0
; Line 702
	mov	eax, DWORD PTR _o$[ebp]
	movsx	ecx, BYTE PTR [eax+75]
	test	ecx, ecx
	jne	$LN14@pkg_execut
	mov	eax, DWORD PTR _pkgDataFlags
	mov	ecx, DWORD PTR [eax]
	movsx	edx, BYTE PTR [ecx]
	test	edx, edx
	je	$LN14@pkg_execut
; Line 703
	mov	eax, DWORD PTR _pkgDataFlags
	mov	ecx, DWORD PTR [eax]
	mov	DWORD PTR _genccodeAssembly$11340[ebp], ecx
; Line 705
	mov	eax, DWORD PTR _o$[ebp]
	movsx	ecx, BYTE PTR [eax+73]
	test	ecx, ecx
	je	SHORT $LN13@pkg_execut
; Line 706
	mov	esi, esp
	mov	eax, DWORD PTR _genccodeAssembly$11340[ebp]
	push	eax
	lea	ecx, DWORD PTR _gencFilePath$11336[ebp]
	push	ecx
	push	OFFSET ??_C@_0CN@KAPBMKIE@?$CD?5Generating?5assembly?5code?5?$CFs?5of@
	mov	edi, esp
	call	DWORD PTR __imp____iob_func
	cmp	edi, esp
	call	__RTC_CheckEsp
	add	eax, 32					; 00000020H
	push	eax
	call	DWORD PTR __imp__fprintf
	add	esp, 16					; 00000010H
	cmp	esi, esp
	call	__RTC_CheckEsp
$LN13@pkg_execut:
; Line 712
	cmp	DWORD PTR _genccodeAssembly$11340[ebp], 0
	je	$LN12@pkg_execut
	mov	eax, DWORD PTR _genccodeAssembly$11340[ebp]
	push	eax
	call	_strlen
	add	esp, 4
	cmp	eax, 3
	jbe	$LN12@pkg_execut
	mov	eax, DWORD PTR _genccodeAssembly$11340[ebp]
	add	eax, 3
	push	eax
	call	_checkAssemblyHeaderName
	add	esp, 4
	movsx	ecx, al
	test	ecx, ecx
	je	$LN12@pkg_execut
; Line 713
	lea	eax, DWORD PTR _gencFilePath$11336[ebp]
	push	eax
	push	0
	mov	ecx, DWORD PTR _o$[ebp]
	mov	edx, DWORD PTR [ecx+24]
	push	edx
	mov	eax, DWORD PTR _o$[ebp]
	mov	ecx, DWORD PTR [eax+36]
	push	ecx
	lea	edx, DWORD PTR _datFileNamePath$[ebp]
	push	edx
	call	_writeAssemblyCode
	add	esp, 20					; 00000014H
; Line 715
	lea	eax, DWORD PTR _gencFilePath$11336[ebp]
	push	eax
	movzx	ecx, BYTE PTR _mode$[ebp]
	push	ecx
	lea	edx, DWORD PTR _targetDir$[ebp]
	push	edx
	call	?pkg_createWithAssemblyCode@@YAHPBDD0@Z	; pkg_createWithAssemblyCode
	add	esp, 12					; 0000000cH
	mov	DWORD PTR _result$[ebp], eax
; Line 716
	cmp	DWORD PTR _result$[ebp], 0
	je	SHORT $LN11@pkg_execut
; Line 717
	mov	esi, esp
	push	OFFSET ??_C@_0CK@JFDNIOCJ@Error?5generating?5assembly?5code?5f@
	mov	edi, esp
	call	DWORD PTR __imp____iob_func
	cmp	edi, esp
	call	__RTC_CheckEsp
	add	eax, 64					; 00000040H
	push	eax
	call	DWORD PTR __imp__fprintf
	add	esp, 8
	cmp	esi, esp
	call	__RTC_CheckEsp
; Line 718
	mov	eax, DWORD PTR _result$[ebp]
	jmp	$LN31@pkg_execut
	jmp	SHORT $LN10@pkg_execut
$LN11@pkg_execut:
; Line 719
	movsx	eax, BYTE PTR _mode$[ebp]
	cmp	eax, 115				; 00000073H
	jne	SHORT $LN10@pkg_execut
; Line 720
	mov	eax, DWORD PTR _o$[ebp]
	cmp	DWORD PTR [eax+60], 0
	je	SHORT $LN8@pkg_execut
; Line 721
	mov	eax, DWORD PTR _o$[ebp]
	movsx	ecx, BYTE PTR [eax+73]
	test	ecx, ecx
	je	SHORT $LN7@pkg_execut
; Line 722
	mov	esi, esp
	mov	eax, DWORD PTR _o$[ebp]
	mov	ecx, DWORD PTR [eax+60]
	push	ecx
	push	OFFSET ??_C@_0CF@OPOHPGMP@?$CD?5Installing?5static?5library?5into@
	mov	edi, esp
	call	DWORD PTR __imp____iob_func
	cmp	edi, esp
	call	__RTC_CheckEsp
	add	eax, 32					; 00000020H
	push	eax
	call	DWORD PTR __imp__fprintf
	add	esp, 12					; 0000000cH
	cmp	esi, esp
	call	__RTC_CheckEsp
$LN7@pkg_execut:
; Line 724
	movzx	eax, BYTE PTR _noVersion$11317[ebp]
	push	eax
	lea	ecx, DWORD PTR _targetDir$[ebp]
	push	ecx
	mov	edx, DWORD PTR _o$[ebp]
	mov	eax, DWORD PTR [edx+60]
	push	eax
	call	?pkg_installLibrary@@YAHPBD0C@Z		; pkg_installLibrary
	add	esp, 12					; 0000000cH
	mov	DWORD PTR _result$[ebp], eax
$LN8@pkg_execut:
; Line 726
	mov	eax, DWORD PTR _result$[ebp]
	jmp	$LN31@pkg_execut
$LN10@pkg_execut:
; Line 728
	jmp	SHORT $LN6@pkg_execut
$LN12@pkg_execut:
; Line 729
	mov	esi, esp
	mov	eax, DWORD PTR _genccodeAssembly$11340[ebp]
	push	eax
	push	OFFSET ??_C@_0CA@LDKEGMIE@Assembly?5type?5?$CC?$CFs?$CC?5is?5unknown?4?6?$AA@
	mov	edi, esp
	call	DWORD PTR __imp____iob_func
	cmp	edi, esp
	call	__RTC_CheckEsp
	add	eax, 64					; 00000040H
	push	eax
	call	DWORD PTR __imp__fprintf
	add	esp, 12					; 0000000cH
	cmp	esi, esp
	call	__RTC_CheckEsp
; Line 730
	or	eax, -1
	jmp	$LN31@pkg_execut
$LN6@pkg_execut:
; Line 732
	jmp	$LN26@pkg_execut
$LN14@pkg_execut:
; Line 733
	mov	eax, DWORD PTR _o$[ebp]
	movsx	ecx, BYTE PTR [eax+73]
	test	ecx, ecx
	je	SHORT $LN4@pkg_execut
; Line 734
	mov	esi, esp
	lea	eax, DWORD PTR _gencFilePath$11336[ebp]
	push	eax
	push	OFFSET ??_C@_0CA@JDIILMBD@?$CD?5Writing?5object?5code?5to?5?$CFs?5?4?4?6?$AA@
	mov	edi, esp
	call	DWORD PTR __imp____iob_func
	cmp	edi, esp
	call	__RTC_CheckEsp
	add	eax, 32					; 00000020H
	push	eax
	call	DWORD PTR __imp__fprintf
	add	esp, 12					; 0000000cH
	cmp	esi, esp
	call	__RTC_CheckEsp
$LN4@pkg_execut:
; Line 736
	mov	eax, DWORD PTR _o$[ebp]
	movsx	ecx, BYTE PTR [eax+75]
	test	ecx, ecx
	je	SHORT $LN3@pkg_execut
; Line 741
	mov	esi, esp
	push	OFFSET ??_C@_0EE@JODDODMN@Error?9?5BUILD_DATA_WITHOUT_ASSEMB@
	mov	edi, esp
	call	DWORD PTR __imp____iob_func
	cmp	edi, esp
	call	__RTC_CheckEsp
	add	eax, 64					; 00000040H
	push	eax
	call	DWORD PTR __imp__fprintf
	add	esp, 8
	cmp	esi, esp
	call	__RTC_CheckEsp
; Line 743
	jmp	$LN2@pkg_execut
$LN3@pkg_execut:
; Line 746
	mov	BYTE PTR _optMatchArch$11359[ebp], 0
	xor	eax, eax
	mov	DWORD PTR _optMatchArch$11359[ebp+1], eax
	mov	DWORD PTR _optMatchArch$11359[ebp+5], eax
	mov	BYTE PTR _optMatchArch$11359[ebp+9], al
; Line 747
	lea	eax, DWORD PTR _optMatchArch$11359[ebp]
	push	eax
	call	?pkg_createOptMatchArch@@YAXPAD@Z	; pkg_createOptMatchArch
	add	esp, 4
; Line 748
	lea	eax, DWORD PTR _gencFilePath$11336[ebp]
	push	eax
	push	0
	movsx	ecx, BYTE PTR _optMatchArch$11359[ebp]
	neg	ecx
	sbb	ecx, ecx
	lea	edx, DWORD PTR _optMatchArch$11359[ebp]
	and	ecx, edx
	push	ecx
	mov	eax, DWORD PTR _o$[ebp]
	mov	ecx, DWORD PTR [eax+24]
	push	ecx
	mov	edx, DWORD PTR _o$[ebp]
	mov	eax, DWORD PTR [edx+36]
	push	eax
	lea	ecx, DWORD PTR _datFileNamePath$[ebp]
	push	ecx
	call	_writeObjectCode
	add	esp, 24					; 00000018H
; Line 749
	lea	eax, DWORD PTR _optMatchArch$11359[ebp]
	push	eax
	call	?pkg_destroyOptMatchArch@@YAXPAD@Z	; pkg_destroyOptMatchArch
	add	esp, 4
; Line 753
	mov	eax, DWORD PTR _o$[ebp]
	push	eax
	lea	ecx, DWORD PTR _gencFilePath$11336[ebp]
	push	ecx
	movzx	edx, BYTE PTR _mode$[ebp]
	push	edx
	call	?pkg_createWindowsDLL@@YAHDPBDPAUUPKGOptions_@@@Z ; pkg_createWindowsDLL
	add	esp, 12					; 0000000cH
	mov	DWORD PTR _result$[ebp], eax
$LN2@pkg_execut:
; Line 763
	cmp	DWORD PTR _result$[ebp], 0
	je	SHORT $LN26@pkg_execut
; Line 764
	mov	esi, esp
	push	OFFSET ??_C@_0CA@GBONNIL@Error?5generating?5package?5data?4?6?$AA@
	mov	edi, esp
	call	DWORD PTR __imp____iob_func
	cmp	edi, esp
	call	__RTC_CheckEsp
	add	eax, 64					; 00000040H
	push	eax
	call	DWORD PTR __imp__fprintf
	add	esp, 8
	cmp	esi, esp
	call	__RTC_CheckEsp
; Line 765
	mov	eax, DWORD PTR _result$[ebp]
	jmp	SHORT $LN31@pkg_execut
$LN26@pkg_execut:
; Line 811
	mov	eax, DWORD PTR _result$[ebp]
$LN31@pkg_execut:
; Line 812
	push	edx
	mov	ecx, ebp
	push	eax
	lea	edx, DWORD PTR $LN43@pkg_execut
	call	@_RTC_CheckStackVars@8
	pop	eax
	pop	edx
	pop	edi
	pop	esi
	pop	ebx
	mov	ecx, DWORD PTR __$ArrayPad$[ebp]
	xor	ecx, ebp
	call	@__security_check_cookie@4
	add	esp, 8544				; 00002160H
	cmp	ebp, esp
	call	__RTC_CheckEsp
	mov	esp, ebp
	pop	ebp
	ret	0
	npad	3
$LN43@pkg_execut:
	DD	9
	DD	$LN42@pkg_execut
$LN42@pkg_execut:
	DD	-544					; fffffde0H
	DD	512					; 00000200H
	DD	$LN33@pkg_execut
	DD	-1064					; fffffbd8H
	DD	512					; 00000200H
	DD	$LN34@pkg_execut
	DD	-1584					; fffff9d0H
	DD	512					; 00000200H
	DD	$LN35@pkg_execut
	DD	-3640					; fffff1c8H
	DD	2048					; 00000800H
	DD	$LN36@pkg_execut
	DD	-5696					; ffffe9c0H
	DD	2048					; 00000800H
	DD	$LN37@pkg_execut
	DD	-7764					; ffffe1acH
	DD	2048					; 00000800H
	DD	$LN38@pkg_execut
	DD	-8284					; ffffdfa4H
	DD	512					; 00000200H
	DD	$LN39@pkg_execut
	DD	-8304					; ffffdf90H
	DD	10					; 0000000aH
	DD	$LN40@pkg_execut
	DD	-8348					; ffffdf64H
	DD	10					; 0000000aH
	DD	$LN41@pkg_execut
$LN41@pkg_execut:
	DB	111					; 0000006fH
	DB	112					; 00000070H
	DB	116					; 00000074H
	DB	77					; 0000004dH
	DB	97					; 00000061H
	DB	116					; 00000074H
	DB	99					; 00000063H
	DB	104					; 00000068H
	DB	65					; 00000041H
	DB	114					; 00000072H
	DB	99					; 00000063H
	DB	104					; 00000068H
	DB	0
$LN40@pkg_execut:
	DB	118					; 00000076H
	DB	101					; 00000065H
	DB	114					; 00000072H
	DB	115					; 00000073H
	DB	105					; 00000069H
	DB	111					; 0000006fH
	DB	110					; 0000006eH
	DB	95					; 0000005fH
	DB	109					; 0000006dH
	DB	97					; 00000061H
	DB	106					; 0000006aH
	DB	111					; 0000006fH
	DB	114					; 00000072H
	DB	0
$LN39@pkg_execut:
	DB	103					; 00000067H
	DB	101					; 00000065H
	DB	110					; 0000006eH
	DB	99					; 00000063H
	DB	70					; 00000046H
	DB	105					; 00000069H
	DB	108					; 0000006cH
	DB	101					; 00000065H
	DB	80					; 00000050H
	DB	97					; 00000061H
	DB	116					; 00000074H
	DB	104					; 00000068H
	DB	0
$LN38@pkg_execut:
	DB	116					; 00000074H
	DB	97					; 00000061H
	DB	114					; 00000072H
	DB	103					; 00000067H
	DB	101					; 00000065H
	DB	116					; 00000074H
	DB	70					; 00000046H
	DB	105					; 00000069H
	DB	108					; 0000006cH
	DB	101					; 00000065H
	DB	78					; 0000004eH
	DB	97					; 00000061H
	DB	109					; 0000006dH
	DB	101					; 00000065H
	DB	80					; 00000050H
	DB	97					; 00000061H
	DB	116					; 00000074H
	DB	104					; 00000068H
	DB	0
$LN37@pkg_execut:
	DB	99					; 00000063H
	DB	104					; 00000068H
	DB	101					; 00000065H
	DB	99					; 00000063H
	DB	107					; 0000006bH
	DB	76					; 0000004cH
	DB	105					; 00000069H
	DB	98					; 00000062H
	DB	70					; 00000046H
	DB	105					; 00000069H
	DB	108					; 0000006cH
	DB	101					; 00000065H
	DB	0
$LN36@pkg_execut:
	DB	100					; 00000064H
	DB	97					; 00000061H
	DB	116					; 00000074H
	DB	70					; 00000046H
	DB	105					; 00000069H
	DB	108					; 0000006cH
	DB	101					; 00000065H
	DB	78					; 0000004eH
	DB	97					; 00000061H
	DB	109					; 0000006dH
	DB	101					; 00000065H
	DB	80					; 00000050H
	DB	97					; 00000061H
	DB	116					; 00000074H
	DB	104					; 00000068H
	DB	0
$LN35@pkg_execut:
	DB	100					; 00000064H
	DB	97					; 00000061H
	DB	116					; 00000074H
	DB	70					; 00000046H
	DB	105					; 00000069H
	DB	108					; 0000006cH
	DB	101					; 00000065H
	DB	78					; 0000004eH
	DB	97					; 00000061H
	DB	109					; 0000006dH
	DB	101					; 00000065H
	DB	0
$LN34@pkg_execut:
	DB	116					; 00000074H
	DB	109					; 0000006dH
	DB	112					; 00000070H
	DB	68					; 00000044H
	DB	105					; 00000069H
	DB	114					; 00000072H
	DB	0
$LN33@pkg_execut:
	DB	116					; 00000074H
	DB	97					; 00000061H
	DB	114					; 00000072H
	DB	103					; 00000067H
	DB	101					; 00000065H
	DB	116					; 00000074H
	DB	68					; 00000044H
	DB	105					; 00000069H
	DB	114					; 00000072H
	DB	0
?pkg_executeOptions@@YAHPAUUPKGOptions_@@@Z ENDP	; pkg_executeOptions
_TEXT	ENDS
PUBLIC	??_C@_01EEMJAFIK@?6?$AA@			; `string'
PUBLIC	??_C@_0BA@IGIMNNGF@?5?5?$FL?$CFd?$FN?5?$CFs?3?5?5?$CFs?6?$AA@ ; `string'
PUBLIC	??_C@_0BB@BICCNADP@?$CD?5pkgDataFlags?$DN?6?$AA@ ; `string'
PUBLIC	??_C@_0CL@EFCHDGAC@Error?5allocating?5memory?5for?5pkgD@ ; `string'
;	COMDAT ??_C@_01EEMJAFIK@?6?$AA@
CONST	SEGMENT
??_C@_01EEMJAFIK@?6?$AA@ DB 0aH, 00H			; `string'
CONST	ENDS
;	COMDAT ??_C@_0BA@IGIMNNGF@?5?5?$FL?$CFd?$FN?5?$CFs?3?5?5?$CFs?6?$AA@
CONST	SEGMENT
??_C@_0BA@IGIMNNGF@?5?5?$FL?$CFd?$FN?5?$CFs?3?5?5?$CFs?6?$AA@ DB '  [%d] '
	DB	'%s:  %s', 0aH, 00H				; `string'
CONST	ENDS
;	COMDAT ??_C@_0BB@BICCNADP@?$CD?5pkgDataFlags?$DN?6?$AA@
CONST	SEGMENT
??_C@_0BB@BICCNADP@?$CD?5pkgDataFlags?$DN?6?$AA@ DB '# pkgDataFlags=', 0aH
	DB	00H						; `string'
CONST	ENDS
;	COMDAT ??_C@_0CL@EFCHDGAC@Error?5allocating?5memory?5for?5pkgD@
CONST	SEGMENT
??_C@_0CL@EFCHDGAC@Error?5allocating?5memory?5for?5pkgD@ DB 'Error alloca'
	DB	'ting memory for pkgDataFlags.', 0aH, 00H	; `string'
; Function compile flags: /Odtp /RTCsu /ZI
CONST	ENDS
;	COMDAT ?initializePkgDataFlags@@YAHPAUUPKGOptions_@@@Z
_TEXT	SEGMENT
_i$11389 = -80						; size = 4
_n$11381 = -68						; size = 4
_i$11372 = -56						; size = 4
_tmpResult$ = -44					; size = 4
_currentBufferSize$ = -32				; size = 4
_result$ = -20						; size = 4
_status$ = -8						; size = 4
_o$ = 8							; size = 4
?initializePkgDataFlags@@YAHPAUUPKGOptions_@@@Z PROC	; initializePkgDataFlags, COMDAT
; Line 815
	push	ebp
	mov	ebp, esp
	sub	esp, 276				; 00000114H
	push	ebx
	push	esi
	push	edi
	lea	edi, DWORD PTR [ebp-276]
	mov	ecx, 69					; 00000045H
	mov	eax, -858993460				; ccccccccH
	rep stosd
; Line 816
	mov	DWORD PTR _status$[ebp], 0
; Line 817
	mov	DWORD PTR _result$[ebp], 0
; Line 818
	mov	DWORD PTR _currentBufferSize$[ebp], 512	; 00000200H
; Line 819
	mov	DWORD PTR _tmpResult$[ebp], 0
; Line 822
	push	68					; 00000044H
	call	_uprv_malloc_56
	add	esp, 4
	mov	DWORD PTR _pkgDataFlags, eax
; Line 828
	cmp	DWORD PTR _pkgDataFlags, 0
	je	$LN15@initialize
; Line 829
	mov	DWORD PTR _i$11372[ebp], 0
	jmp	SHORT $LN14@initialize
$LN13@initialize:
	mov	eax, DWORD PTR _i$11372[ebp]
	add	eax, 1
	mov	DWORD PTR _i$11372[ebp], eax
$LN14@initialize:
	cmp	DWORD PTR _i$11372[ebp], 17		; 00000011H
	jge	$LN12@initialize
; Line 830
	mov	eax, DWORD PTR _currentBufferSize$[ebp]
	push	eax
	call	_uprv_malloc_56
	add	esp, 4
	mov	ecx, DWORD PTR _i$11372[ebp]
	mov	edx, DWORD PTR _pkgDataFlags
	mov	DWORD PTR [edx+ecx*4], eax
; Line 831
	mov	eax, DWORD PTR _i$11372[ebp]
	mov	ecx, DWORD PTR _pkgDataFlags
	cmp	DWORD PTR [ecx+eax*4], 0
	je	SHORT $LN11@initialize
; Line 832
	mov	eax, DWORD PTR _i$11372[ebp]
	mov	ecx, DWORD PTR _pkgDataFlags
	mov	edx, DWORD PTR [ecx+eax*4]
	mov	BYTE PTR [edx], 0
; Line 833
	jmp	SHORT $LN10@initialize
$LN11@initialize:
; Line 834
	mov	esi, esp
	push	OFFSET ??_C@_0CL@EFCHDGAC@Error?5allocating?5memory?5for?5pkgD@
	mov	edi, esp
	call	DWORD PTR __imp____iob_func
	cmp	edi, esp
	call	__RTC_CheckEsp
	add	eax, 64					; 00000040H
	push	eax
	call	DWORD PTR __imp__fprintf
	add	esp, 8
	cmp	esi, esp
	call	__RTC_CheckEsp
; Line 836
	mov	eax, DWORD PTR _i$11372[ebp]
	add	eax, 1
	mov	DWORD PTR _n$11381[ebp], eax
	jmp	SHORT $LN9@initialize
$LN8@initialize:
	mov	eax, DWORD PTR _n$11381[ebp]
	add	eax, 1
	mov	DWORD PTR _n$11381[ebp], eax
$LN9@initialize:
	cmp	DWORD PTR _n$11381[ebp], 17		; 00000011H
	jge	SHORT $LN7@initialize
; Line 837
	mov	eax, DWORD PTR _n$11381[ebp]
	mov	ecx, DWORD PTR _pkgDataFlags
	mov	DWORD PTR [ecx+eax*4], 0
; Line 838
	jmp	SHORT $LN8@initialize
$LN7@initialize:
; Line 839
	or	eax, -1
	jmp	$LN16@initialize
$LN10@initialize:
; Line 841
	jmp	$LN13@initialize
$LN12@initialize:
; Line 842
	jmp	SHORT $LN6@initialize
$LN15@initialize:
; Line 843
	mov	esi, esp
	push	OFFSET ??_C@_0CL@EFCHDGAC@Error?5allocating?5memory?5for?5pkgD@
	mov	edi, esp
	call	DWORD PTR __imp____iob_func
	cmp	edi, esp
	call	__RTC_CheckEsp
	add	eax, 64					; 00000040H
	push	eax
	call	DWORD PTR __imp__fprintf
	add	esp, 8
	cmp	esi, esp
	call	__RTC_CheckEsp
; Line 844
	or	eax, -1
	jmp	$LN16@initialize
$LN6@initialize:
; Line 847
	mov	eax, DWORD PTR _o$[ebp]
	cmp	DWORD PTR [eax+44], 0
	jne	SHORT $LN5@initialize
; Line 848
	mov	eax, DWORD PTR _result$[ebp]
	jmp	$LN16@initialize
$LN5@initialize:
; Line 871
	mov	eax, DWORD PTR _o$[ebp]
	movsx	ecx, BYTE PTR [eax+73]
	test	ecx, ecx
	je	$LN4@initialize
; Line 872
	mov	esi, esp
	push	OFFSET ??_C@_0BB@BICCNADP@?$CD?5pkgDataFlags?$DN?6?$AA@
	mov	edi, esp
	call	DWORD PTR __imp____iob_func
	cmp	edi, esp
	call	__RTC_CheckEsp
	add	eax, 32					; 00000020H
	push	eax
	call	DWORD PTR __imp__fprintf
	add	esp, 8
	cmp	esi, esp
	call	__RTC_CheckEsp
; Line 873
	mov	DWORD PTR _i$11389[ebp], 0
	jmp	SHORT $LN3@initialize
$LN2@initialize:
	mov	eax, DWORD PTR _i$11389[ebp]
	add	eax, 1
	mov	DWORD PTR _i$11389[ebp], eax
$LN3@initialize:
	cmp	DWORD PTR _i$11389[ebp], 17		; 00000011H
	jge	SHORT $LN1@initialize
; Line 874
	mov	esi, esp
	mov	eax, DWORD PTR _i$11389[ebp]
	mov	ecx, DWORD PTR _pkgDataFlags
	mov	edx, DWORD PTR [ecx+eax*4]
	push	edx
	mov	eax, DWORD PTR _i$11389[ebp]
	mov	ecx, DWORD PTR _FLAG_NAMES[eax*4]
	push	ecx
	mov	edx, DWORD PTR _i$11389[ebp]
	push	edx
	push	OFFSET ??_C@_0BA@IGIMNNGF@?5?5?$FL?$CFd?$FN?5?$CFs?3?5?5?$CFs?6?$AA@
	mov	edi, esp
	call	DWORD PTR __imp____iob_func
	cmp	edi, esp
	call	__RTC_CheckEsp
	add	eax, 32					; 00000020H
	push	eax
	call	DWORD PTR __imp__fprintf
	add	esp, 20					; 00000014H
	cmp	esi, esp
	call	__RTC_CheckEsp
; Line 875
	jmp	SHORT $LN2@initialize
$LN1@initialize:
; Line 876
	mov	esi, esp
	push	OFFSET ??_C@_01EEMJAFIK@?6?$AA@
	mov	edi, esp
	call	DWORD PTR __imp____iob_func
	cmp	edi, esp
	call	__RTC_CheckEsp
	add	eax, 32					; 00000020H
	push	eax
	call	DWORD PTR __imp__fprintf
	add	esp, 8
	cmp	esi, esp
	call	__RTC_CheckEsp
$LN4@initialize:
; Line 882
	mov	eax, DWORD PTR _result$[ebp]
$LN16@initialize:
; Line 883
	pop	edi
	pop	esi
	pop	ebx
	add	esp, 276				; 00000114H
	cmp	ebp, esp
	call	__RTC_CheckEsp
	mov	esp, ebp
	pop	ebp
	ret	0
?initializePkgDataFlags@@YAHPAUUPKGOptions_@@@Z ENDP	; initializePkgDataFlags
_TEXT	ENDS
PUBLIC	??_C@_0CO@JDGNJAIA@Error?5installing?5library?4?5Failed@ ; `string'
PUBLIC	??_C@_0BG@MJNMHHBK@cd?5?$CFs?5?$CG?$CG?5?$CFs?5?$CFs?5?$CFs?$CFs?$CFs?$AA@ ; `string'
PUBLIC	__$ArrayPad$
EXTRN	__imp__sprintf:PROC
_BSS	SEGMENT
_libFileNames DB 0400H DUP (?)
_BSS	ENDS
;	COMDAT ??_C@_0CO@JDGNJAIA@Error?5installing?5library?4?5Failed@
CONST	SEGMENT
??_C@_0CO@JDGNJAIA@Error?5installing?5library?4?5Failed@ DB 'Error instal'
	DB	'ling library. Failed command: %s', 0aH, 00H	; `string'
CONST	ENDS
;	COMDAT ??_C@_0BG@MJNMHHBK@cd?5?$CFs?5?$CG?$CG?5?$CFs?5?$CFs?5?$CFs?$CFs?$CFs?$AA@
CONST	SEGMENT
??_C@_0BG@MJNMHHBK@cd?5?$CFs?5?$CG?$CG?5?$CFs?5?$CFs?5?$CFs?$CFs?$CFs?$AA@ DB 'c'
	DB	'd %s && %s %s %s%s%s', 00H			; `string'
; Function compile flags: /Odtp /RTCsu /ZI
CONST	ENDS
;	COMDAT ?pkg_installLibrary@@YAHPBD0C@Z
_TEXT	SEGMENT
_cmd$ = -532						; size = 512
_result$ = -12						; size = 4
__$ArrayPad$ = -4					; size = 4
_installDir$ = 8					; size = 4
_targetDir$ = 12					; size = 4
_noVersion$ = 16					; size = 1
?pkg_installLibrary@@YAHPBD0C@Z PROC			; pkg_installLibrary, COMDAT
; Line 1099
	push	ebp
	mov	ebp, esp
	sub	esp, 728				; 000002d8H
	push	ebx
	push	esi
	push	edi
	lea	edi, DWORD PTR [ebp-728]
	mov	ecx, 182				; 000000b6H
	mov	eax, -858993460				; ccccccccH
	rep stosd
	mov	eax, DWORD PTR ___security_cookie
	xor	eax, ebp
	mov	DWORD PTR __$ArrayPad$[ebp], eax
; Line 1100
	mov	DWORD PTR _result$[ebp], 0
; Line 1108
	mov	eax, OFFSET _libFileNames+512
	mov	esi, esp
	push	eax
	push	OFFSET ??_C@_01KICIPPFI@?2?$AA@
	mov	ecx, DWORD PTR _installDir$[ebp]
	push	ecx
	push	OFFSET _libFileNames+512
	mov	edx, DWORD PTR _pkgDataFlags
	mov	eax, DWORD PTR [edx+64]
	push	eax
	mov	ecx, DWORD PTR _targetDir$[ebp]
	push	ecx
	push	OFFSET ??_C@_0BG@MJNMHHBK@cd?5?$CFs?5?$CG?$CG?5?$CFs?5?$CFs?5?$CFs?$CFs?$CFs?$AA@
	lea	edx, DWORD PTR _cmd$[ebp]
	push	edx
	call	DWORD PTR __imp__sprintf
	add	esp, 32					; 00000020H
	cmp	esi, esp
	call	__RTC_CheckEsp
; Line 1110
	push	0
	lea	eax, DWORD PTR _cmd$[ebp]
	push	eax
	call	?runCommand@@YAHPBDC@Z			; runCommand
	add	esp, 8
	mov	DWORD PTR _result$[ebp], eax
; Line 1112
	cmp	DWORD PTR _result$[ebp], 0
	je	SHORT $LN3@pkg_instal
; Line 1113
	mov	esi, esp
	lea	eax, DWORD PTR _cmd$[ebp]
	push	eax
	push	OFFSET ??_C@_0CO@JDGNJAIA@Error?5installing?5library?4?5Failed@
	mov	edi, esp
	call	DWORD PTR __imp____iob_func
	cmp	edi, esp
	call	__RTC_CheckEsp
	add	eax, 64					; 00000040H
	push	eax
	call	DWORD PTR __imp__fprintf
	add	esp, 12					; 0000000cH
	cmp	esi, esp
	call	__RTC_CheckEsp
; Line 1114
	mov	eax, DWORD PTR _result$[ebp]
	jmp	SHORT $LN4@pkg_instal
$LN3@pkg_instal:
; Line 1160
	movsx	eax, BYTE PTR _noVersion$[ebp]
	test	eax, eax
	je	SHORT $LN2@pkg_instal
; Line 1161
	mov	eax, DWORD PTR _result$[ebp]
	jmp	SHORT $LN4@pkg_instal
; Line 1162
	jmp	SHORT $LN4@pkg_instal
$LN2@pkg_instal:
; Line 1163
	push	1
	mov	eax, DWORD PTR _installDir$[ebp]
	push	eax
	call	?pkg_createSymLinks@@YAHPBDC@Z		; pkg_createSymLinks
	add	esp, 8
$LN4@pkg_instal:
; Line 1165
	push	edx
	mov	ecx, ebp
	push	eax
	lea	edx, DWORD PTR $LN8@pkg_instal
	call	@_RTC_CheckStackVars@8
	pop	eax
	pop	edx
	pop	edi
	pop	esi
	pop	ebx
	mov	ecx, DWORD PTR __$ArrayPad$[ebp]
	xor	ecx, ebp
	call	@__security_check_cookie@4
	add	esp, 728				; 000002d8H
	cmp	ebp, esp
	call	__RTC_CheckEsp
	mov	esp, ebp
	pop	ebp
	ret	0
	npad	1
$LN8@pkg_instal:
	DD	1
	DD	$LN7@pkg_instal
$LN7@pkg_instal:
	DD	-532					; fffffdecH
	DD	512					; 00000200H
	DD	$LN6@pkg_instal
$LN6@pkg_instal:
	DB	99					; 00000063H
	DB	109					; 0000006dH
	DB	100					; 00000064H
	DB	0
?pkg_installLibrary@@YAHPBD0C@Z ENDP			; pkg_installLibrary
_TEXT	ENDS
PUBLIC	??_C@_0BH@IDKKFBIN@?9?9?5return?5status?5?$DN?5?$CFd?6?$AA@ ; `string'
PUBLIC	??_C@_0N@KDALANNC@pkgdata?3?5?$CFs?6?$AA@	; `string'
PUBLIC	__$ArrayPad$
EXTRN	__imp__system:PROC
EXTRN	__imp__printf:PROC
;	COMDAT ??_C@_0BH@IDKKFBIN@?9?9?5return?5status?5?$DN?5?$CFd?6?$AA@
CONST	SEGMENT
??_C@_0BH@IDKKFBIN@?9?9?5return?5status?5?$DN?5?$CFd?6?$AA@ DB '-- return'
	DB	' status = %d', 0aH, 00H			; `string'
CONST	ENDS
;	COMDAT ??_C@_0N@KDALANNC@pkgdata?3?5?$CFs?6?$AA@
CONST	SEGMENT
??_C@_0N@KDALANNC@pkgdata?3?5?$CFs?6?$AA@ DB 'pkgdata: %s', 0aH, 00H ; `string'
; Function compile flags: /Odtp /RTCsu /ZI
CONST	ENDS
;	COMDAT ?runCommand@@YAHPBDC@Z
_TEXT	SEGMENT
_result$ = -556						; size = 4
_len$ = -544						; size = 4
_cmdBuffer$ = -532					; size = 512
_cmd$ = -12						; size = 4
__$ArrayPad$ = -4					; size = 4
_command$ = 8						; size = 4
_specialHandling$ = 12					; size = 1
?runCommand@@YAHPBDC@Z PROC				; runCommand, COMDAT
; Line 503
	push	ebp
	mov	ebp, esp
	sub	esp, 752				; 000002f0H
	push	ebx
	push	esi
	push	edi
	lea	edi, DWORD PTR [ebp-752]
	mov	ecx, 188				; 000000bcH
	mov	eax, -858993460				; ccccccccH
	rep stosd
	mov	eax, DWORD PTR ___security_cookie
	xor	eax, ebp
	mov	DWORD PTR __$ArrayPad$[ebp], eax
; Line 504
	mov	DWORD PTR _cmd$[ebp], 0
; Line 506
	mov	eax, DWORD PTR _command$[ebp]
	push	eax
	call	_strlen
	add	esp, 4
	mov	DWORD PTR _len$[ebp], eax
; Line 508
	cmp	DWORD PTR _len$[ebp], 0
	jne	SHORT $LN6@runCommand
; Line 509
	xor	eax, eax
	jmp	$LN7@runCommand
$LN6@runCommand:
; Line 512
	movsx	eax, BYTE PTR _specialHandling$[ebp]
	test	eax, eax
	jne	SHORT $normal_command_mode$11289
; Line 526
	jmp	SHORT $normal_command_mode$11289
	jmp	SHORT $normal_command_mode$11289
; Line 528
	jmp	SHORT $LN3@runCommand
$normal_command_mode$11289:
; Line 532
	mov	eax, DWORD PTR _command$[ebp]
	mov	DWORD PTR _cmd$[ebp], eax
$LN3@runCommand:
; Line 535
	mov	esi, esp
	mov	eax, DWORD PTR _cmd$[ebp]
	push	eax
	push	OFFSET ??_C@_0N@KDALANNC@pkgdata?3?5?$CFs?6?$AA@
	call	DWORD PTR __imp__printf
	add	esp, 8
	cmp	esi, esp
	call	__RTC_CheckEsp
; Line 536
	mov	esi, esp
	mov	eax, DWORD PTR _cmd$[ebp]
	push	eax
	call	DWORD PTR __imp__system
	add	esp, 4
	cmp	esi, esp
	call	__RTC_CheckEsp
	mov	DWORD PTR _result$[ebp], eax
; Line 537
	cmp	DWORD PTR _result$[ebp], 0
	je	SHORT $LN2@runCommand
; Line 538
	mov	esi, esp
	mov	eax, DWORD PTR _result$[ebp]
	push	eax
	push	OFFSET ??_C@_0BH@IDKKFBIN@?9?9?5return?5status?5?$DN?5?$CFd?6?$AA@
	mov	edi, esp
	call	DWORD PTR __imp____iob_func
	cmp	edi, esp
	call	__RTC_CheckEsp
	add	eax, 64					; 00000040H
	push	eax
	call	DWORD PTR __imp__fprintf
	add	esp, 12					; 0000000cH
	cmp	esi, esp
	call	__RTC_CheckEsp
$LN2@runCommand:
; Line 541
	mov	eax, DWORD PTR _cmd$[ebp]
	lea	ecx, DWORD PTR _cmdBuffer$[ebp]
	cmp	eax, ecx
	je	SHORT $LN1@runCommand
	mov	eax, DWORD PTR _cmd$[ebp]
	cmp	eax, DWORD PTR _command$[ebp]
	je	SHORT $LN1@runCommand
; Line 542
	mov	eax, DWORD PTR _cmd$[ebp]
	push	eax
	call	_uprv_free_56
	add	esp, 4
$LN1@runCommand:
; Line 545
	mov	eax, DWORD PTR _result$[ebp]
$LN7@runCommand:
; Line 546
	push	edx
	mov	ecx, ebp
	push	eax
	lea	edx, DWORD PTR $LN11@runCommand
	call	@_RTC_CheckStackVars@8
	pop	eax
	pop	edx
	pop	edi
	pop	esi
	pop	ebx
	mov	ecx, DWORD PTR __$ArrayPad$[ebp]
	xor	ecx, ebp
	call	@__security_check_cookie@4
	add	esp, 752				; 000002f0H
	cmp	ebp, esp
	call	__RTC_CheckEsp
	mov	esp, ebp
	pop	ebp
	ret	0
$LN11@runCommand:
	DD	1
	DD	$LN10@runCommand
$LN10@runCommand:
	DD	-532					; fffffdecH
	DD	512					; 00000200H
	DD	$LN9@runCommand
$LN9@runCommand:
	DB	99					; 00000063H
	DB	109					; 0000006dH
	DB	100					; 00000064H
	DB	66					; 00000042H
	DB	117					; 00000075H
	DB	102					; 00000066H
	DB	102					; 00000066H
	DB	101					; 00000065H
	DB	114					; 00000072H
	DB	0
?runCommand@@YAHPBDC@Z ENDP				; runCommand
_TEXT	ENDS
PUBLIC	??_C@_02DKCKIIND@?$CFs?$AA@			; `string'
PUBLIC	??_C@_06DIJPEION@?$CFs?$CFs?$CFs?$AA@		; `string'
PUBLIC	??_C@_0DD@FMCHNCJN@Error?5creating?5symbolic?5links?4?5F@ ; `string'
PUBLIC	??_C@_0BL@CJMEOBIK@cd?5?$CFs?5?$CG?$CG?5?$CFs?5?$CFs?5?$CG?$CG?5?$CFs?5?$CFs?5?$CFs?$AA@ ; `string'
PUBLIC	??_C@_05MKHFPHMG@rm?5?9f?$AA@			; `string'
PUBLIC	??_C@_05IDLMAIOJ@ln?5?9s?$AA@			; `string'
PUBLIC	__$ArrayPad$
;	COMDAT ??_C@_02DKCKIIND@?$CFs?$AA@
CONST	SEGMENT
??_C@_02DKCKIIND@?$CFs?$AA@ DB '%s', 00H		; `string'
CONST	ENDS
;	COMDAT ??_C@_06DIJPEION@?$CFs?$CFs?$CFs?$AA@
CONST	SEGMENT
??_C@_06DIJPEION@?$CFs?$CFs?$CFs?$AA@ DB '%s%s%s', 00H	; `string'
CONST	ENDS
;	COMDAT ??_C@_0DD@FMCHNCJN@Error?5creating?5symbolic?5links?4?5F@
CONST	SEGMENT
??_C@_0DD@FMCHNCJN@Error?5creating?5symbolic?5links?4?5F@ DB 'Error creat'
	DB	'ing symbolic links. Failed command: %s', 0aH, 00H ; `string'
CONST	ENDS
;	COMDAT ??_C@_0BL@CJMEOBIK@cd?5?$CFs?5?$CG?$CG?5?$CFs?5?$CFs?5?$CG?$CG?5?$CFs?5?$CFs?5?$CFs?$AA@
CONST	SEGMENT
??_C@_0BL@CJMEOBIK@cd?5?$CFs?5?$CG?$CG?5?$CFs?5?$CFs?5?$CG?$CG?5?$CFs?5?$CFs?5?$CFs?$AA@ DB 'c'
	DB	'd %s && %s %s && %s %s %s', 00H		; `string'
CONST	ENDS
;	COMDAT ??_C@_05MKHFPHMG@rm?5?9f?$AA@
CONST	SEGMENT
??_C@_05MKHFPHMG@rm?5?9f?$AA@ DB 'rm -f', 00H		; `string'
CONST	ENDS
;	COMDAT ??_C@_05IDLMAIOJ@ln?5?9s?$AA@
CONST	SEGMENT
??_C@_05IDLMAIOJ@ln?5?9s?$AA@ DB 'ln -s', 00H		; `string'
; Function compile flags: /Odtp /RTCsu /ZI
CONST	ENDS
;	COMDAT ?pkg_createSymLinks@@YAHPBDC@Z
_TEXT	SEGMENT
tv68 = -3320						; size = 4
_FILE_EXTENSION_SEP$ = -3120				; size = 4
_name2$ = -3108						; size = 512
_name1$ = -2588						; size = 512
_cmd$ = -2068						; size = 2048
_result$ = -12						; size = 4
__$ArrayPad$ = -4					; size = 4
_targetDir$ = 8						; size = 4
_specialHandling$ = 12					; size = 1
?pkg_createSymLinks@@YAHPBDC@Z PROC			; pkg_createSymLinks, COMDAT
; Line 1008
	push	ebp
	mov	ebp, esp
	sub	esp, 3320				; 00000cf8H
	push	ebx
	push	esi
	push	edi
	lea	edi, DWORD PTR [ebp-3320]
	mov	ecx, 830				; 0000033eH
	mov	eax, -858993460				; ccccccccH
	rep stosd
	mov	eax, DWORD PTR ___security_cookie
	xor	eax, ebp
	mov	DWORD PTR __$ArrayPad$[ebp], eax
; Line 1009
	mov	DWORD PTR _result$[ebp], 0
; Line 1013
	mov	eax, DWORD PTR _pkgDataFlags
	mov	ecx, DWORD PTR [eax+4]
	push	ecx
	call	_strlen
	add	esp, 4
	test	eax, eax
	jne	SHORT $LN9@pkg_create
	mov	DWORD PTR tv68[ebp], OFFSET ??_C@_00CNPNBAHC@?$AA@
	jmp	SHORT $LN10@pkg_create
$LN9@pkg_create:
	mov	DWORD PTR tv68[ebp], OFFSET ??_C@_01LFCBOECM@?4?$AA@
$LN10@pkg_create:
	mov	edx, DWORD PTR tv68[ebp]
	mov	DWORD PTR _FILE_EXTENSION_SEP$[ebp], edx
; Line 1018
	push	OFFSET _libFileNames+512
	call	_strlen
	add	esp, 4
	test	eax, eax
	je	SHORT $LN5@pkg_create
	push	OFFSET _libFileNames+256
	call	_strlen
	add	esp, 4
	test	eax, eax
	je	SHORT $LN5@pkg_create
	push	OFFSET _libFileNames+256
	push	OFFSET _libFileNames+512
	call	_strcmp
	add	esp, 8
	test	eax, eax
	jne	SHORT $LN6@pkg_create
$LN5@pkg_create:
; Line 1019
	mov	eax, DWORD PTR _result$[ebp]
	jmp	$LN7@pkg_create
$LN6@pkg_create:
; Line 1028
	mov	eax, OFFSET _libFileNames+256
	mov	esi, esp
	push	eax
	push	OFFSET _libFileNames+512
	push	OFFSET ??_C@_05IDLMAIOJ@ln?5?9s?$AA@
	push	OFFSET _libFileNames+256
	push	OFFSET ??_C@_05MKHFPHMG@rm?5?9f?$AA@
	mov	ecx, DWORD PTR _targetDir$[ebp]
	push	ecx
	push	OFFSET ??_C@_0BL@CJMEOBIK@cd?5?$CFs?5?$CG?$CG?5?$CFs?5?$CFs?5?$CG?$CG?5?$CFs?5?$CFs?5?$CFs?$AA@
	lea	edx, DWORD PTR _cmd$[ebp]
	push	edx
	call	DWORD PTR __imp__sprintf
	add	esp, 32					; 00000020H
	cmp	esi, esp
	call	__RTC_CheckEsp
; Line 1029
	push	0
	lea	eax, DWORD PTR _cmd$[ebp]
	push	eax
	call	?runCommand@@YAHPBDC@Z			; runCommand
	add	esp, 8
	mov	DWORD PTR _result$[ebp], eax
; Line 1030
	cmp	DWORD PTR _result$[ebp], 0
	je	SHORT $LN4@pkg_create
; Line 1031
	mov	esi, esp
	lea	eax, DWORD PTR _cmd$[ebp]
	push	eax
	push	OFFSET ??_C@_0DD@FMCHNCJN@Error?5creating?5symbolic?5links?4?5F@
	mov	edi, esp
	call	DWORD PTR __imp____iob_func
	cmp	edi, esp
	call	__RTC_CheckEsp
	add	eax, 64					; 00000040H
	push	eax
	call	DWORD PTR __imp__fprintf
	add	esp, 12					; 0000000cH
	cmp	esi, esp
	call	__RTC_CheckEsp
; Line 1032
	mov	eax, DWORD PTR _result$[ebp]
	jmp	$LN7@pkg_create
$LN4@pkg_create:
; Line 1036
	movsx	eax, BYTE PTR _specialHandling$[ebp]
	test	eax, eax
	je	SHORT $normal_symlink_mode$11438
; Line 1076
	jmp	SHORT $normal_symlink_mode$11438
	jmp	SHORT $normal_symlink_mode$11438
; Line 1078
	jmp	SHORT $LN1@pkg_create
$normal_symlink_mode$11438:
; Line 1082
	mov	esi, esp
	mov	eax, DWORD PTR _pkgDataFlags
	mov	ecx, DWORD PTR [eax+4]
	push	ecx
	mov	edx, DWORD PTR _FILE_EXTENSION_SEP$[ebp]
	push	edx
	push	OFFSET _libFileNames
	push	OFFSET ??_C@_06DIJPEION@?$CFs?$CFs?$CFs?$AA@
	lea	eax, DWORD PTR _name1$[ebp]
	push	eax
	call	DWORD PTR __imp__sprintf
	add	esp, 20					; 00000014H
	cmp	esi, esp
	call	__RTC_CheckEsp
; Line 1083
	mov	eax, OFFSET _libFileNames+512
	mov	esi, esp
	push	eax
	push	OFFSET ??_C@_02DKCKIIND@?$CFs?$AA@
	lea	ecx, DWORD PTR _name2$[ebp]
	push	ecx
	call	DWORD PTR __imp__sprintf
	add	esp, 12					; 0000000cH
	cmp	esi, esp
	call	__RTC_CheckEsp
$LN1@pkg_create:
; Line 1092
	mov	esi, esp
	lea	eax, DWORD PTR _name1$[ebp]
	push	eax
	lea	ecx, DWORD PTR _name2$[ebp]
	push	ecx
	push	OFFSET ??_C@_05IDLMAIOJ@ln?5?9s?$AA@
	lea	edx, DWORD PTR _name1$[ebp]
	push	edx
	push	OFFSET ??_C@_05MKHFPHMG@rm?5?9f?$AA@
	mov	eax, DWORD PTR _targetDir$[ebp]
	push	eax
	push	OFFSET ??_C@_0BL@CJMEOBIK@cd?5?$CFs?5?$CG?$CG?5?$CFs?5?$CFs?5?$CG?$CG?5?$CFs?5?$CFs?5?$CFs?$AA@
	lea	ecx, DWORD PTR _cmd$[ebp]
	push	ecx
	call	DWORD PTR __imp__sprintf
	add	esp, 32					; 00000020H
	cmp	esi, esp
	call	__RTC_CheckEsp
; Line 1094
	push	0
	lea	eax, DWORD PTR _cmd$[ebp]
	push	eax
	call	?runCommand@@YAHPBDC@Z			; runCommand
	add	esp, 8
	mov	DWORD PTR _result$[ebp], eax
; Line 1096
	mov	eax, DWORD PTR _result$[ebp]
$LN7@pkg_create:
; Line 1097
	push	edx
	mov	ecx, ebp
	push	eax
	lea	edx, DWORD PTR $LN15@pkg_create
	call	@_RTC_CheckStackVars@8
	pop	eax
	pop	edx
	pop	edi
	pop	esi
	pop	ebx
	mov	ecx, DWORD PTR __$ArrayPad$[ebp]
	xor	ecx, ebp
	call	@__security_check_cookie@4
	add	esp, 3320				; 00000cf8H
	cmp	ebp, esp
	call	__RTC_CheckEsp
	mov	esp, ebp
	pop	ebp
	ret	0
	npad	3
$LN15@pkg_create:
	DD	3
	DD	$LN14@pkg_create
$LN14@pkg_create:
	DD	-2068					; fffff7ecH
	DD	2048					; 00000800H
	DD	$LN11@pkg_create
	DD	-2588					; fffff5e4H
	DD	512					; 00000200H
	DD	$LN12@pkg_create
	DD	-3108					; fffff3dcH
	DD	512					; 00000200H
	DD	$LN13@pkg_create
$LN13@pkg_create:
	DB	110					; 0000006eH
	DB	97					; 00000061H
	DB	109					; 0000006dH
	DB	101					; 00000065H
	DB	50					; 00000032H
	DB	0
$LN12@pkg_create:
	DB	110					; 0000006eH
	DB	97					; 00000061H
	DB	109					; 0000006dH
	DB	101					; 00000065H
	DB	49					; 00000031H
	DB	0
$LN11@pkg_create:
	DB	99					; 00000063H
	DB	109					; 0000006dH
	DB	100					; 00000064H
	DB	0
?pkg_createSymLinks@@YAHPBDC@Z ENDP			; pkg_createSymLinks
_TEXT	ENDS
PUBLIC	??_C@_0CO@FGLGBMHN@Failed?5to?5install?5data?5file?5with@ ; `string'
PUBLIC	??_C@_08EPEHIMMI@?$CFs?5?$CFs?5?$CFs?$AA@	; `string'
PUBLIC	??_C@_0CL@PFOHAPNF@Error?5creating?5installation?5dire@ ; `string'
PUBLIC	__$ArrayPad$
EXTRN	_uprv_mkdir:PROC
;	COMDAT ??_C@_0CO@FGLGBMHN@Failed?5to?5install?5data?5file?5with@
CONST	SEGMENT
??_C@_0CO@FGLGBMHN@Failed?5to?5install?5data?5file?5with@ DB 'Failed to i'
	DB	'nstall data file with command: %s', 0aH, 00H ; `string'
CONST	ENDS
;	COMDAT ??_C@_08EPEHIMMI@?$CFs?5?$CFs?5?$CFs?$AA@
CONST	SEGMENT
??_C@_08EPEHIMMI@?$CFs?5?$CFs?5?$CFs?$AA@ DB '%s %s %s', 00H ; `string'
CONST	ENDS
;	COMDAT ??_C@_0CL@PFOHAPNF@Error?5creating?5installation?5dire@
CONST	SEGMENT
??_C@_0CL@PFOHAPNF@Error?5creating?5installation?5dire@ DB 'Error creatin'
	DB	'g installation directory: %s', 0aH, 00H	; `string'
; Function compile flags: /Odtp /RTCsu /ZI
CONST	ENDS
;	COMDAT ?pkg_installCommonMode@@YAHPBD0@Z
_TEXT	SEGMENT
_status$11461 = -544					; size = 4
_cmd$ = -532						; size = 512
_result$ = -12						; size = 4
__$ArrayPad$ = -4					; size = 4
_installDir$ = 8					; size = 4
_fileName$ = 12						; size = 4
?pkg_installCommonMode@@YAHPBD0@Z PROC			; pkg_installCommonMode, COMDAT
; Line 1167
	push	ebp
	mov	ebp, esp
	sub	esp, 740				; 000002e4H
	push	ebx
	push	esi
	push	edi
	lea	edi, DWORD PTR [ebp-740]
	mov	ecx, 185				; 000000b9H
	mov	eax, -858993460				; ccccccccH
	rep stosd
	mov	eax, DWORD PTR ___security_cookie
	xor	eax, ebp
	mov	DWORD PTR __$ArrayPad$[ebp], eax
; Line 1168
	mov	DWORD PTR _result$[ebp], 0
; Line 1169
	mov	al, BYTE PTR ??_C@_00CNPNBAHC@?$AA@
	mov	BYTE PTR _cmd$[ebp], al
	push	511					; 000001ffH
	push	0
	lea	eax, DWORD PTR _cmd$[ebp+1]
	push	eax
	call	_memset
	add	esp, 12					; 0000000cH
; Line 1171
	mov	eax, DWORD PTR _installDir$[ebp]
	push	eax
	call	_T_FileStream_file_exists
	add	esp, 4
	movsx	ecx, al
	test	ecx, ecx
	jne	SHORT $LN3@pkg_instal@2
; Line 1172
	mov	DWORD PTR _status$11461[ebp], 0
; Line 1174
	lea	eax, DWORD PTR _status$11461[ebp]
	push	eax
	mov	ecx, DWORD PTR _installDir$[ebp]
	push	ecx
	call	_uprv_mkdir
	add	esp, 8
; Line 1175
	mov	eax, DWORD PTR _status$11461[ebp]
	push	eax
	call	?U_FAILURE@@YACW4UErrorCode@@@Z		; U_FAILURE
	add	esp, 4
	movsx	ecx, al
	test	ecx, ecx
	je	SHORT $LN3@pkg_instal@2
; Line 1176
	mov	esi, esp
	mov	eax, DWORD PTR _installDir$[ebp]
	push	eax
	push	OFFSET ??_C@_0CL@PFOHAPNF@Error?5creating?5installation?5dire@
	mov	edi, esp
	call	DWORD PTR __imp____iob_func
	cmp	edi, esp
	call	__RTC_CheckEsp
	add	eax, 64					; 00000040H
	push	eax
	call	DWORD PTR __imp__fprintf
	add	esp, 12					; 0000000cH
	cmp	esi, esp
	call	__RTC_CheckEsp
; Line 1177
	or	eax, -1
	jmp	SHORT $LN4@pkg_instal@2
$LN3@pkg_instal@2:
; Line 1181
	mov	esi, esp
	mov	eax, DWORD PTR _installDir$[ebp]
	push	eax
	mov	ecx, DWORD PTR _fileName$[ebp]
	push	ecx
	mov	edx, DWORD PTR _pkgDataFlags
	mov	eax, DWORD PTR [edx+64]
	push	eax
	push	OFFSET ??_C@_08EPEHIMMI@?$CFs?5?$CFs?5?$CFs?$AA@
	lea	ecx, DWORD PTR _cmd$[ebp]
	push	ecx
	call	DWORD PTR __imp__sprintf
	add	esp, 20					; 00000014H
	cmp	esi, esp
	call	__RTC_CheckEsp
; Line 1186
	push	0
	lea	eax, DWORD PTR _cmd$[ebp]
	push	eax
	call	?runCommand@@YAHPBDC@Z			; runCommand
	add	esp, 8
	mov	DWORD PTR _result$[ebp], eax
; Line 1187
	cmp	DWORD PTR _result$[ebp], 0
	je	SHORT $LN1@pkg_instal@2
; Line 1188
	mov	esi, esp
	lea	eax, DWORD PTR _cmd$[ebp]
	push	eax
	push	OFFSET ??_C@_0CO@FGLGBMHN@Failed?5to?5install?5data?5file?5with@
	mov	edi, esp
	call	DWORD PTR __imp____iob_func
	cmp	edi, esp
	call	__RTC_CheckEsp
	add	eax, 64					; 00000040H
	push	eax
	call	DWORD PTR __imp__fprintf
	add	esp, 12					; 0000000cH
	cmp	esi, esp
	call	__RTC_CheckEsp
$LN1@pkg_instal@2:
; Line 1191
	mov	eax, DWORD PTR _result$[ebp]
$LN4@pkg_instal@2:
; Line 1192
	push	edx
	mov	ecx, ebp
	push	eax
	lea	edx, DWORD PTR $LN9@pkg_instal@2
	call	@_RTC_CheckStackVars@8
	pop	eax
	pop	edx
	pop	edi
	pop	esi
	pop	ebx
	mov	ecx, DWORD PTR __$ArrayPad$[ebp]
	xor	ecx, ebp
	call	@__security_check_cookie@4
	add	esp, 740				; 000002e4H
	cmp	ebp, esp
	call	__RTC_CheckEsp
	mov	esp, ebp
	pop	ebp
	ret	0
	npad	2
$LN9@pkg_instal@2:
	DD	2
	DD	$LN8@pkg_instal@2
$LN8@pkg_instal@2:
	DD	-532					; fffffdecH
	DD	512					; 00000200H
	DD	$LN6@pkg_instal@2
	DD	-544					; fffffde0H
	DD	4
	DD	$LN7@pkg_instal@2
$LN7@pkg_instal@2:
	DB	115					; 00000073H
	DB	116					; 00000074H
	DB	97					; 00000061H
	DB	116					; 00000074H
	DB	117					; 00000075H
	DB	115					; 00000073H
	DB	0
$LN6@pkg_instal@2:
	DB	99					; 00000063H
	DB	109					; 0000006dH
	DB	100					; 00000064H
	DB	0
?pkg_installCommonMode@@YAHPBD0@Z ENDP			; pkg_installCommonMode
_TEXT	ENDS
PUBLIC	??_C@_0BO@GPHOLIOB@Unable?5to?5open?5list?5file?3?5?$CFs?6?$AA@ ; `string'
PUBLIC	??_C@_0CD@KDIPABJM@Failed?5to?5read?5line?5from?5file?3?5?$CF@ ; `string'
PUBLIC	??_C@_0BB@PIPNEKBK@?$CFs?5?$CFs?$CFs?$CFs?5?$CFs?$CFs?$CFs?$AA@ ; `string'
PUBLIC	??_C@_01KDCPPGHE@r?$AA@				; `string'
PUBLIC	__$ArrayPad$
EXTRN	_T_FileStream_close:PROC
EXTRN	_T_FileStream_eof:PROC
EXTRN	_T_FileStream_readLine:PROC
EXTRN	_T_FileStream_open:PROC
;	COMDAT ??_C@_0BO@GPHOLIOB@Unable?5to?5open?5list?5file?3?5?$CFs?6?$AA@
CONST	SEGMENT
??_C@_0BO@GPHOLIOB@Unable?5to?5open?5list?5file?3?5?$CFs?6?$AA@ DB 'Unabl'
	DB	'e to open list file: %s', 0aH, 00H		; `string'
CONST	ENDS
;	COMDAT ??_C@_0CD@KDIPABJM@Failed?5to?5read?5line?5from?5file?3?5?$CF@
CONST	SEGMENT
??_C@_0CD@KDIPABJM@Failed?5to?5read?5line?5from?5file?3?5?$CF@ DB 'Failed'
	DB	' to read line from file: %s', 0aH, 00H	; `string'
CONST	ENDS
;	COMDAT ??_C@_0BB@PIPNEKBK@?$CFs?5?$CFs?$CFs?$CFs?5?$CFs?$CFs?$CFs?$AA@
CONST	SEGMENT
??_C@_0BB@PIPNEKBK@?$CFs?5?$CFs?$CFs?$CFs?5?$CFs?$CFs?$CFs?$AA@ DB '%s %s'
	DB	'%s%s %s%s%s', 00H				; `string'
CONST	ENDS
;	COMDAT ??_C@_01KDCPPGHE@r?$AA@
CONST	SEGMENT
??_C@_01KDCPPGHE@r?$AA@ DB 'r', 00H			; `string'
; Function compile flags: /Odtp /RTCsu /ZI
CONST	ENDS
;	COMDAT ?pkg_installFileMode@@YAHPBD00@Z
_TEXT	SEGMENT
_f$ = -1088						; size = 4
_bufferLength$ = -1076					; size = 4
_buffer$ = -1064					; size = 512
_status$11475 = -544					; size = 4
_cmd$ = -532						; size = 512
_result$ = -12						; size = 4
__$ArrayPad$ = -4					; size = 4
_installDir$ = 8					; size = 4
_srcDir$ = 12						; size = 4
_fileListName$ = 16					; size = 4
?pkg_installFileMode@@YAHPBD00@Z PROC			; pkg_installFileMode, COMDAT
; Line 1199
	push	ebp
	mov	ebp, esp
	sub	esp, 1284				; 00000504H
	push	ebx
	push	esi
	push	edi
	lea	edi, DWORD PTR [ebp-1284]
	mov	ecx, 321				; 00000141H
	mov	eax, -858993460				; ccccccccH
	rep stosd
	mov	eax, DWORD PTR ___security_cookie
	xor	eax, ebp
	mov	DWORD PTR __$ArrayPad$[ebp], eax
; Line 1200
	mov	DWORD PTR _result$[ebp], 0
; Line 1201
	mov	al, BYTE PTR ??_C@_00CNPNBAHC@?$AA@
	mov	BYTE PTR _cmd$[ebp], al
	push	511					; 000001ffH
	push	0
	lea	eax, DWORD PTR _cmd$[ebp+1]
	push	eax
	call	_memset
	add	esp, 12					; 0000000cH
; Line 1203
	mov	eax, DWORD PTR _installDir$[ebp]
	push	eax
	call	_T_FileStream_file_exists
	add	esp, 4
	movsx	ecx, al
	test	ecx, ecx
	jne	SHORT $LN11@pkg_instal@3
; Line 1204
	mov	DWORD PTR _status$11475[ebp], 0
; Line 1206
	lea	eax, DWORD PTR _status$11475[ebp]
	push	eax
	mov	ecx, DWORD PTR _installDir$[ebp]
	push	ecx
	call	_uprv_mkdir
	add	esp, 8
; Line 1207
	mov	eax, DWORD PTR _status$11475[ebp]
	push	eax
	call	?U_FAILURE@@YACW4UErrorCode@@@Z		; U_FAILURE
	add	esp, 4
	movsx	ecx, al
	test	ecx, ecx
	je	SHORT $LN11@pkg_instal@3
; Line 1208
	mov	esi, esp
	mov	eax, DWORD PTR _installDir$[ebp]
	push	eax
	push	OFFSET ??_C@_0CL@PFOHAPNF@Error?5creating?5installation?5dire@
	mov	edi, esp
	call	DWORD PTR __imp____iob_func
	cmp	edi, esp
	call	__RTC_CheckEsp
	add	eax, 64					; 00000040H
	push	eax
	call	DWORD PTR __imp__fprintf
	add	esp, 12					; 0000000cH
	cmp	esi, esp
	call	__RTC_CheckEsp
; Line 1209
	or	eax, -1
	jmp	$LN12@pkg_instal@3
$LN11@pkg_instal@3:
; Line 1213
	mov	al, BYTE PTR ??_C@_00CNPNBAHC@?$AA@
	mov	BYTE PTR _buffer$[ebp], al
	push	511					; 000001ffH
	push	0
	lea	eax, DWORD PTR _buffer$[ebp+1]
	push	eax
	call	_memset
	add	esp, 12					; 0000000cH
; Line 1214
	mov	DWORD PTR _bufferLength$[ebp], 0
; Line 1216
	push	OFFSET ??_C@_01KDCPPGHE@r?$AA@
	mov	eax, DWORD PTR _fileListName$[ebp]
	push	eax
	call	_T_FileStream_open
	add	esp, 8
	mov	DWORD PTR _f$[ebp], eax
; Line 1217
	cmp	DWORD PTR _f$[ebp], 0
	je	$LN9@pkg_instal@3
$LN8@pkg_instal@3:
; Line 1219
	push	512					; 00000200H
	lea	eax, DWORD PTR _buffer$[ebp]
	push	eax
	mov	ecx, DWORD PTR _f$[ebp]
	push	ecx
	call	_T_FileStream_readLine
	add	esp, 12					; 0000000cH
	test	eax, eax
	je	$LN6@pkg_instal@3
; Line 1220
	lea	eax, DWORD PTR _buffer$[ebp]
	push	eax
	call	_strlen
	add	esp, 4
	mov	DWORD PTR _bufferLength$[ebp], eax
; Line 1222
	cmp	DWORD PTR _bufferLength$[ebp], 0
	jle	SHORT $LN5@pkg_instal@3
; Line 1223
	mov	eax, DWORD PTR _bufferLength$[ebp]
	mov	BYTE PTR _buffer$[ebp+eax-1], 0
$LN5@pkg_instal@3:
; Line 1229
	mov	esi, esp
	lea	eax, DWORD PTR _buffer$[ebp]
	push	eax
	push	OFFSET ??_C@_01KICIPPFI@?2?$AA@
	mov	ecx, DWORD PTR _installDir$[ebp]
	push	ecx
	lea	edx, DWORD PTR _buffer$[ebp]
	push	edx
	push	OFFSET ??_C@_01KICIPPFI@?2?$AA@
	mov	eax, DWORD PTR _srcDir$[ebp]
	push	eax
	mov	ecx, DWORD PTR _pkgDataFlags
	mov	edx, DWORD PTR [ecx+64]
	push	edx
	push	OFFSET ??_C@_0BB@PIPNEKBK@?$CFs?5?$CFs?$CFs?$CFs?5?$CFs?$CFs?$CFs?$AA@
	lea	eax, DWORD PTR _cmd$[ebp]
	push	eax
	call	DWORD PTR __imp__sprintf
	add	esp, 36					; 00000024H
	cmp	esi, esp
	call	__RTC_CheckEsp
; Line 1231
	push	0
	lea	eax, DWORD PTR _cmd$[ebp]
	push	eax
	call	?runCommand@@YAHPBDC@Z			; runCommand
	add	esp, 8
	mov	DWORD PTR _result$[ebp], eax
; Line 1232
	cmp	DWORD PTR _result$[ebp], 0
	je	SHORT $LN4@pkg_instal@3
; Line 1233
	mov	esi, esp
	lea	eax, DWORD PTR _cmd$[ebp]
	push	eax
	push	OFFSET ??_C@_0CO@FGLGBMHN@Failed?5to?5install?5data?5file?5with@
	mov	edi, esp
	call	DWORD PTR __imp____iob_func
	cmp	edi, esp
	call	__RTC_CheckEsp
	add	eax, 64					; 00000040H
	push	eax
	call	DWORD PTR __imp__fprintf
	add	esp, 12					; 0000000cH
	cmp	esi, esp
	call	__RTC_CheckEsp
; Line 1234
	jmp	SHORT $LN7@pkg_instal@3
$LN4@pkg_instal@3:
; Line 1236
	jmp	SHORT $LN3@pkg_instal@3
$LN6@pkg_instal@3:
; Line 1237
	mov	eax, DWORD PTR _f$[ebp]
	push	eax
	call	_T_FileStream_eof
	add	esp, 4
	test	eax, eax
	jne	SHORT $LN2@pkg_instal@3
; Line 1238
	mov	esi, esp
	mov	eax, DWORD PTR _fileListName$[ebp]
	push	eax
	push	OFFSET ??_C@_0CD@KDIPABJM@Failed?5to?5read?5line?5from?5file?3?5?$CF@
	mov	edi, esp
	call	DWORD PTR __imp____iob_func
	cmp	edi, esp
	call	__RTC_CheckEsp
	add	eax, 64					; 00000040H
	push	eax
	call	DWORD PTR __imp__fprintf
	add	esp, 12					; 0000000cH
	cmp	esi, esp
	call	__RTC_CheckEsp
; Line 1239
	mov	DWORD PTR _result$[ebp], -1
$LN2@pkg_instal@3:
; Line 1241
	jmp	SHORT $LN7@pkg_instal@3
$LN3@pkg_instal@3:
; Line 1243
	jmp	$LN8@pkg_instal@3
$LN7@pkg_instal@3:
; Line 1244
	mov	eax, DWORD PTR _f$[ebp]
	push	eax
	call	_T_FileStream_close
	add	esp, 4
; Line 1245
	jmp	SHORT $LN1@pkg_instal@3
$LN9@pkg_instal@3:
; Line 1246
	mov	DWORD PTR _result$[ebp], -1
; Line 1247
	mov	esi, esp
	mov	eax, DWORD PTR _fileListName$[ebp]
	push	eax
	push	OFFSET ??_C@_0BO@GPHOLIOB@Unable?5to?5open?5list?5file?3?5?$CFs?6?$AA@
	mov	edi, esp
	call	DWORD PTR __imp____iob_func
	cmp	edi, esp
	call	__RTC_CheckEsp
	add	eax, 64					; 00000040H
	push	eax
	call	DWORD PTR __imp__fprintf
	add	esp, 12					; 0000000cH
	cmp	esi, esp
	call	__RTC_CheckEsp
$LN1@pkg_instal@3:
; Line 1257
	mov	eax, DWORD PTR _result$[ebp]
$LN12@pkg_instal@3:
; Line 1258
	push	edx
	mov	ecx, ebp
	push	eax
	lea	edx, DWORD PTR $LN18@pkg_instal@3
	call	@_RTC_CheckStackVars@8
	pop	eax
	pop	edx
	pop	edi
	pop	esi
	pop	ebx
	mov	ecx, DWORD PTR __$ArrayPad$[ebp]
	xor	ecx, ebp
	call	@__security_check_cookie@4
	add	esp, 1284				; 00000504H
	cmp	ebp, esp
	call	__RTC_CheckEsp
	mov	esp, ebp
	pop	ebp
	ret	0
$LN18@pkg_instal@3:
	DD	3
	DD	$LN17@pkg_instal@3
$LN17@pkg_instal@3:
	DD	-532					; fffffdecH
	DD	512					; 00000200H
	DD	$LN14@pkg_instal@3
	DD	-544					; fffffde0H
	DD	4
	DD	$LN15@pkg_instal@3
	DD	-1064					; fffffbd8H
	DD	512					; 00000200H
	DD	$LN16@pkg_instal@3
$LN16@pkg_instal@3:
	DB	98					; 00000062H
	DB	117					; 00000075H
	DB	102					; 00000066H
	DB	102					; 00000066H
	DB	101					; 00000065H
	DB	114					; 00000072H
	DB	0
$LN15@pkg_instal@3:
	DB	115					; 00000073H
	DB	116					; 00000074H
	DB	97					; 00000061H
	DB	116					; 00000074H
	DB	117					; 00000075H
	DB	115					; 00000073H
	DB	0
$LN14@pkg_instal@3:
	DB	99					; 00000063H
	DB	109					; 0000006dH
	DB	100					; 00000064H
	DB	0
?pkg_installFileMode@@YAHPBD00@Z ENDP			; pkg_installFileMode
_TEXT	ENDS
PUBLIC	??_C@_0DH@NCDADFHJ@Error?5creating?5with?5assembly?5cod@ ; `string'
PUBLIC	??_C@_0P@NIGMNLEJ@?$CFs?5?$CFs?5?9o?5?$CFs?5?$CFs?$AA@ ; `string'
PUBLIC	__$ArrayPad$
;	COMDAT ??_C@_0DH@NCDADFHJ@Error?5creating?5with?5assembly?5cod@
CONST	SEGMENT
??_C@_0DH@NCDADFHJ@Error?5creating?5with?5assembly?5cod@ DB 'Error creati'
	DB	'ng with assembly code. Failed command: %s', 0aH, 00H ; `string'
CONST	ENDS
;	COMDAT ??_C@_0P@NIGMNLEJ@?$CFs?5?$CFs?5?9o?5?$CFs?5?$CFs?$AA@
CONST	SEGMENT
??_C@_0P@NIGMNLEJ@?$CFs?5?$CFs?5?9o?5?$CFs?5?$CFs?$AA@ DB '%s %s -o %s %s'
	DB	00H						; `string'
; Function compile flags: /Odtp /RTCsu /ZI
CONST	ENDS
;	COMDAT ?pkg_createWithAssemblyCode@@YAHPBDD0@Z
_TEXT	SEGMENT
_length$ = -556						; size = 4
_result$ = -544						; size = 4
_cmd$ = -532						; size = 4
_tempObjectFile$ = -520					; size = 512
__$ArrayPad$ = -4					; size = 4
_targetDir$ = 8						; size = 4
_mode$ = 12						; size = 1
_gencFilePath$ = 16					; size = 4
?pkg_createWithAssemblyCode@@YAHPBDD0@Z PROC		; pkg_createWithAssemblyCode, COMDAT
; Line 1499
	push	ebp
	mov	ebp, esp
	sub	esp, 752				; 000002f0H
	push	ebx
	push	esi
	push	edi
	lea	edi, DWORD PTR [ebp-752]
	mov	ecx, 188				; 000000bcH
	mov	eax, -858993460				; ccccccccH
	rep stosd
	mov	eax, DWORD PTR ___security_cookie
	xor	eax, ebp
	mov	DWORD PTR __$ArrayPad$[ebp], eax
; Line 1500
	mov	al, BYTE PTR ??_C@_00CNPNBAHC@?$AA@
	mov	BYTE PTR _tempObjectFile$[ebp], al
	push	511					; 000001ffH
	push	0
	lea	eax, DWORD PTR _tempObjectFile$[ebp+1]
	push	eax
	call	_memset
	add	esp, 12					; 0000000cH
; Line 1502
	mov	DWORD PTR _result$[ebp], 0
; Line 1504
	mov	DWORD PTR _length$[ebp], 0
; Line 1507
	mov	eax, DWORD PTR _gencFilePath$[ebp]
	push	eax
	lea	ecx, DWORD PTR _tempObjectFile$[ebp]
	push	ecx
	call	_strcpy
	add	esp, 8
; Line 1508
	lea	eax, DWORD PTR _tempObjectFile$[ebp]
	push	eax
	call	_strlen
	add	esp, 4
	mov	BYTE PTR _tempObjectFile$[ebp+eax-1], 111 ; 0000006fH
; Line 1511
	mov	eax, DWORD PTR _pkgDataFlags
	mov	ecx, DWORD PTR [eax+24]
	push	ecx
	call	_strlen
	add	esp, 4
	mov	esi, eax
	mov	edx, DWORD PTR _pkgDataFlags
	mov	eax, DWORD PTR [edx+28]
	push	eax
	call	_strlen
	add	esp, 4
	add	esi, eax
	lea	ecx, DWORD PTR _tempObjectFile$[ebp]
	push	ecx
	call	_strlen
	add	esp, 4
	add	esi, eax
	mov	edx, DWORD PTR _gencFilePath$[ebp]
	push	edx
	call	_strlen
	add	esp, 4
	lea	eax, DWORD PTR [esi+eax+20]
	mov	DWORD PTR _length$[ebp], eax
; Line 1513
	mov	eax, DWORD PTR _length$[ebp]
	push	eax
	call	_uprv_malloc_56
	add	esp, 4
	mov	DWORD PTR _cmd$[ebp], eax
; Line 1514
	cmp	DWORD PTR _cmd$[ebp], 0
	jne	SHORT $LN2@pkg_create@2
; Line 1515
	or	eax, -1
	jmp	$LN3@pkg_create@2
$LN2@pkg_create@2:
; Line 1523
	mov	esi, esp
	mov	eax, DWORD PTR _gencFilePath$[ebp]
	push	eax
	lea	ecx, DWORD PTR _tempObjectFile$[ebp]
	push	ecx
	mov	edx, DWORD PTR _pkgDataFlags
	mov	eax, DWORD PTR [edx+28]
	push	eax
	mov	ecx, DWORD PTR _pkgDataFlags
	mov	edx, DWORD PTR [ecx+24]
	push	edx
	push	OFFSET ??_C@_0P@NIGMNLEJ@?$CFs?5?$CFs?5?9o?5?$CFs?5?$CFs?$AA@
	mov	eax, DWORD PTR _cmd$[ebp]
	push	eax
	call	DWORD PTR __imp__sprintf
	add	esp, 24					; 00000018H
	cmp	esi, esp
	call	__RTC_CheckEsp
; Line 1525
	push	0
	mov	eax, DWORD PTR _cmd$[ebp]
	push	eax
	call	?runCommand@@YAHPBDC@Z			; runCommand
	add	esp, 8
	mov	DWORD PTR _result$[ebp], eax
; Line 1526
	mov	eax, DWORD PTR _cmd$[ebp]
	push	eax
	call	_uprv_free_56
	add	esp, 4
; Line 1527
	cmp	DWORD PTR _result$[ebp], 0
	je	SHORT $LN1@pkg_create@2
; Line 1528
	mov	esi, esp
	mov	eax, DWORD PTR _cmd$[ebp]
	push	eax
	push	OFFSET ??_C@_0DH@NCDADFHJ@Error?5creating?5with?5assembly?5cod@
	mov	edi, esp
	call	DWORD PTR __imp____iob_func
	cmp	edi, esp
	call	__RTC_CheckEsp
	add	eax, 64					; 00000040H
	push	eax
	call	DWORD PTR __imp__fprintf
	add	esp, 12					; 0000000cH
	cmp	esi, esp
	call	__RTC_CheckEsp
; Line 1529
	mov	eax, DWORD PTR _result$[ebp]
	jmp	SHORT $LN3@pkg_create@2
$LN1@pkg_create@2:
; Line 1532
	push	0
	push	0
	lea	eax, DWORD PTR _tempObjectFile$[ebp]
	push	eax
	movzx	ecx, BYTE PTR _mode$[ebp]
	push	ecx
	mov	edx, DWORD PTR _targetDir$[ebp]
	push	edx
	call	?pkg_generateLibraryFile@@YAHPBDD0PADC@Z ; pkg_generateLibraryFile
	add	esp, 20					; 00000014H
$LN3@pkg_create@2:
; Line 1533
	push	edx
	mov	ecx, ebp
	push	eax
	lea	edx, DWORD PTR $LN7@pkg_create@2
	call	@_RTC_CheckStackVars@8
	pop	eax
	pop	edx
	pop	edi
	pop	esi
	pop	ebx
	mov	ecx, DWORD PTR __$ArrayPad$[ebp]
	xor	ecx, ebp
	call	@__security_check_cookie@4
	add	esp, 752				; 000002f0H
	cmp	ebp, esp
	call	__RTC_CheckEsp
	mov	esp, ebp
	pop	ebp
	ret	0
	npad	1
$LN7@pkg_create@2:
	DD	1
	DD	$LN6@pkg_create@2
$LN6@pkg_create@2:
	DD	-520					; fffffdf8H
	DD	512					; 00000200H
	DD	$LN5@pkg_create@2
$LN5@pkg_create@2:
	DB	116					; 00000074H
	DB	101					; 00000065H
	DB	109					; 0000006dH
	DB	112					; 00000070H
	DB	79					; 0000004fH
	DB	98					; 00000062H
	DB	106					; 0000006aH
	DB	101					; 00000065H
	DB	99					; 00000063H
	DB	116					; 00000074H
	DB	70					; 00000046H
	DB	105					; 00000069H
	DB	108					; 0000006cH
	DB	101					; 00000065H
	DB	0
?pkg_createWithAssemblyCode@@YAHPBDD0@Z ENDP		; pkg_createWithAssemblyCode
_TEXT	ENDS
PUBLIC	??_C@_0DD@JEKGCDDE@Error?5generating?5library?5file?4?5F@ ; `string'
PUBLIC	??_C@_0BM@BLHAKFDE@?$CFs?5?$CFs?5?9o?5?$CFs?$CFs?5?$CFs?5?$CFs?$CFs?5?$CFs?5?$CFs?$AA@ ; `string'
PUBLIC	??_C@_07LLFIICBM@?$CFs?5?$CFs?$CFs?$AA@		; `string'
PUBLIC	??_C@_0O@PGLGNIM@?$CFs?5?$CFs?5?$CFs?$CFs?5?$CFs?$AA@ ; `string'
PUBLIC	??_C@_0CI@GHNPGNOL@Unable?5to?5allocate?5memory?5for?5co@ ; `string'
;	COMDAT ??_C@_0DD@JEKGCDDE@Error?5generating?5library?5file?4?5F@
CONST	SEGMENT
??_C@_0DD@JEKGCDDE@Error?5generating?5library?5file?4?5F@ DB 'Error gener'
	DB	'ating library file. Failed command: %s', 0aH, 00H ; `string'
CONST	ENDS
;	COMDAT ??_C@_0BM@BLHAKFDE@?$CFs?5?$CFs?5?9o?5?$CFs?$CFs?5?$CFs?5?$CFs?$CFs?5?$CFs?5?$CFs?$AA@
CONST	SEGMENT
??_C@_0BM@BLHAKFDE@?$CFs?5?$CFs?5?9o?5?$CFs?$CFs?5?$CFs?5?$CFs?$CFs?5?$CFs?5?$CFs?$AA@ DB '%'
	DB	's %s -o %s%s %s %s%s %s %s', 00H		; `string'
CONST	ENDS
;	COMDAT ??_C@_07LLFIICBM@?$CFs?5?$CFs?$CFs?$AA@
CONST	SEGMENT
??_C@_07LLFIICBM@?$CFs?5?$CFs?$CFs?$AA@ DB '%s %s%s', 00H ; `string'
CONST	ENDS
;	COMDAT ??_C@_0O@PGLGNIM@?$CFs?5?$CFs?5?$CFs?$CFs?5?$CFs?$AA@
CONST	SEGMENT
??_C@_0O@PGLGNIM@?$CFs?5?$CFs?5?$CFs?$CFs?5?$CFs?$AA@ DB '%s %s %s%s %s', 00H ; `string'
CONST	ENDS
;	COMDAT ??_C@_0CI@GHNPGNOL@Unable?5to?5allocate?5memory?5for?5co@
CONST	SEGMENT
??_C@_0CI@GHNPGNOL@Unable?5to?5allocate?5memory?5for?5co@ DB 'Unable to a'
	DB	'llocate memory for command.', 0aH, 00H	; `string'
; Function compile flags: /Odtp /RTCsu /ZI
CONST	ENDS
;	COMDAT ?pkg_generateLibraryFile@@YAHPBDD0PADC@Z
_TEXT	SEGMENT
tv211 = -244						; size = 4
tv182 = -244						; size = 4
_length$ = -44						; size = 4
_freeCmd$ = -29						; size = 1
_cmd$ = -20						; size = 4
_result$ = -8						; size = 4
_targetDir$ = 8						; size = 4
_mode$ = 12						; size = 1
_objectFile$ = 16					; size = 4
_command$ = 20						; size = 4
_specialHandling$ = 24					; size = 1
?pkg_generateLibraryFile@@YAHPBDD0PADC@Z PROC		; pkg_generateLibraryFile, COMDAT
; Line 1325
	push	ebp
	mov	ebp, esp
	sub	esp, 244				; 000000f4H
	push	ebx
	push	esi
	push	edi
	lea	edi, DWORD PTR [ebp-244]
	mov	ecx, 61					; 0000003dH
	mov	eax, -858993460				; ccccccccH
	rep stosd
; Line 1326
	mov	DWORD PTR _result$[ebp], 0
; Line 1327
	mov	DWORD PTR _cmd$[ebp], 0
; Line 1328
	mov	BYTE PTR _freeCmd$[ebp], 0
; Line 1329
	mov	DWORD PTR _length$[ebp], 0
; Line 1338
	cmp	DWORD PTR _command$[ebp], 0
	je	SHORT $LN10@pkg_genera
; Line 1339
	mov	eax, DWORD PTR _command$[ebp]
	mov	DWORD PTR _cmd$[ebp], eax
$LN10@pkg_genera:
; Line 1342
	movsx	eax, BYTE PTR _mode$[ebp]
	cmp	eax, 115				; 00000073H
	jne	$LN9@pkg_genera
; Line 1343
	cmp	DWORD PTR _cmd$[ebp], 0
	jne	$LN8@pkg_genera
; Line 1345
	mov	eax, DWORD PTR _pkgDataFlags
	mov	ecx, DWORD PTR [eax+52]
	push	ecx
	call	_strlen
	add	esp, 4
	mov	esi, eax
	mov	edx, DWORD PTR _pkgDataFlags
	mov	eax, DWORD PTR [edx+56]
	push	eax
	call	_strlen
	add	esp, 4
	add	esi, eax
	mov	ecx, DWORD PTR _targetDir$[ebp]
	push	ecx
	call	_strlen
	add	esp, 4
	add	esi, eax
	push	OFFSET _libFileNames+512
	call	_strlen
	add	esp, 4
	add	esi, eax
	mov	edx, DWORD PTR _objectFile$[ebp]
	push	edx
	call	_strlen
	add	esp, 4
	add	esi, eax
	mov	eax, DWORD PTR _pkgDataFlags
	mov	ecx, DWORD PTR [eax+60]
	push	ecx
	call	_strlen
	add	esp, 4
	lea	edx, DWORD PTR [esi+eax+20]
	mov	DWORD PTR _length$[ebp], edx
; Line 1346
	mov	eax, DWORD PTR _length$[ebp]
	push	eax
	call	_uprv_malloc_56
	add	esp, 4
	mov	DWORD PTR _cmd$[ebp], eax
	cmp	DWORD PTR _cmd$[ebp], 0
	jne	SHORT $LN7@pkg_genera
; Line 1347
	mov	esi, esp
	push	OFFSET ??_C@_0CI@GHNPGNOL@Unable?5to?5allocate?5memory?5for?5co@
	mov	edi, esp
	call	DWORD PTR __imp____iob_func
	cmp	edi, esp
	call	__RTC_CheckEsp
	add	eax, 64					; 00000040H
	push	eax
	call	DWORD PTR __imp__fprintf
	add	esp, 8
	cmp	esi, esp
	call	__RTC_CheckEsp
; Line 1348
	or	eax, -1
	jmp	$LN11@pkg_genera
$LN7@pkg_genera:
; Line 1350
	mov	BYTE PTR _freeCmd$[ebp], 1
$LN8@pkg_genera:
; Line 1357
	mov	esi, esp
	mov	eax, DWORD PTR _objectFile$[ebp]
	push	eax
	push	OFFSET _libFileNames+512
	mov	ecx, DWORD PTR _targetDir$[ebp]
	push	ecx
	mov	edx, DWORD PTR _pkgDataFlags
	mov	eax, DWORD PTR [edx+56]
	push	eax
	mov	ecx, DWORD PTR _pkgDataFlags
	mov	edx, DWORD PTR [ecx+52]
	push	edx
	push	OFFSET ??_C@_0O@PGLGNIM@?$CFs?5?$CFs?5?$CFs?$CFs?5?$CFs?$AA@
	mov	eax, DWORD PTR _cmd$[ebp]
	push	eax
	call	DWORD PTR __imp__sprintf
	add	esp, 28					; 0000001cH
	cmp	esi, esp
	call	__RTC_CheckEsp
; Line 1359
	push	0
	mov	eax, DWORD PTR _cmd$[ebp]
	push	eax
	call	?runCommand@@YAHPBDC@Z			; runCommand
	add	esp, 8
	mov	DWORD PTR _result$[ebp], eax
; Line 1360
	cmp	DWORD PTR _result$[ebp], 0
	jne	SHORT $LN6@pkg_genera
; Line 1364
	mov	eax, OFFSET _libFileNames+512
	mov	esi, esp
	push	eax
	mov	ecx, DWORD PTR _targetDir$[ebp]
	push	ecx
	mov	edx, DWORD PTR _pkgDataFlags
	mov	eax, DWORD PTR [edx+60]
	push	eax
	push	OFFSET ??_C@_07LLFIICBM@?$CFs?5?$CFs?$CFs?$AA@
	mov	ecx, DWORD PTR _cmd$[ebp]
	push	ecx
	call	DWORD PTR __imp__sprintf
	add	esp, 20					; 00000014H
	cmp	esi, esp
	call	__RTC_CheckEsp
; Line 1366
	push	0
	mov	eax, DWORD PTR _cmd$[ebp]
	push	eax
	call	?runCommand@@YAHPBDC@Z			; runCommand
	add	esp, 8
	mov	DWORD PTR _result$[ebp], eax
$LN6@pkg_genera:
; Line 1368
	jmp	$LN5@pkg_genera
$LN9@pkg_genera:
; Line 1369
	cmp	DWORD PTR _cmd$[ebp], 0
	jne	$LN4@pkg_genera
; Line 1374
	mov	eax, DWORD PTR _pkgDataFlags
	mov	ecx, DWORD PTR [eax+40]
	movsx	edx, BYTE PTR [ecx]
	test	edx, edx
	jne	SHORT $LN13@pkg_genera
	mov	DWORD PTR tv182[ebp], OFFSET ??_C@_00CNPNBAHC@?$AA@
	jmp	SHORT $LN14@pkg_genera
$LN13@pkg_genera:
	mov	DWORD PTR tv182[ebp], OFFSET _libFileNames+256
$LN14@pkg_genera:
	mov	eax, DWORD PTR _pkgDataFlags
	mov	ecx, DWORD PTR [eax+32]
	push	ecx
	call	_strlen
	add	esp, 4
	mov	esi, eax
	mov	edx, DWORD PTR _pkgDataFlags
	mov	eax, DWORD PTR [edx+36]
	push	eax
	call	_strlen
	add	esp, 4
	add	esi, eax
	mov	ecx, DWORD PTR _targetDir$[ebp]
	push	ecx
	call	_strlen
	add	esp, 4
	mov	edi, eax
	push	OFFSET _libFileNames+768
	call	_strlen
	add	esp, 4
	add	edi, eax
	lea	esi, DWORD PTR [esi+edi*2]
	mov	edx, DWORD PTR _objectFile$[ebp]
	push	edx
	call	_strlen
	add	esp, 4
	add	esi, eax
	mov	eax, DWORD PTR _pkgDataFlags
	mov	ecx, DWORD PTR [eax+40]
	push	ecx
	call	_strlen
	add	esp, 4
	add	esi, eax
	mov	edx, DWORD PTR tv182[ebp]
	push	edx
	call	_strlen
	add	esp, 4
	add	esi, eax
	mov	eax, DWORD PTR _pkgDataFlags
	mov	ecx, DWORD PTR [eax+44]
	push	ecx
	call	_strlen
	add	esp, 4
	add	esi, eax
	mov	edx, DWORD PTR _pkgDataFlags
	mov	eax, DWORD PTR [edx+48]
	push	eax
	call	_strlen
	add	esp, 4
	lea	ecx, DWORD PTR [esi+eax+20]
	mov	DWORD PTR _length$[ebp], ecx
; Line 1380
	mov	eax, DWORD PTR _length$[ebp]
	push	eax
	call	_uprv_malloc_56
	add	esp, 4
	mov	DWORD PTR _cmd$[ebp], eax
	cmp	DWORD PTR _cmd$[ebp], 0
	jne	SHORT $LN3@pkg_genera
; Line 1381
	mov	esi, esp
	push	OFFSET ??_C@_0CI@GHNPGNOL@Unable?5to?5allocate?5memory?5for?5co@
	mov	edi, esp
	call	DWORD PTR __imp____iob_func
	cmp	edi, esp
	call	__RTC_CheckEsp
	add	eax, 64					; 00000040H
	push	eax
	call	DWORD PTR __imp__fprintf
	add	esp, 8
	cmp	esi, esp
	call	__RTC_CheckEsp
; Line 1382
	or	eax, -1
	jmp	$LN11@pkg_genera
$LN3@pkg_genera:
; Line 1384
	mov	BYTE PTR _freeCmd$[ebp], 1
$LN4@pkg_genera:
; Line 1422
	mov	eax, DWORD PTR _pkgDataFlags
	mov	ecx, DWORD PTR [eax+40]
	movsx	edx, BYTE PTR [ecx]
	test	edx, edx
	jne	SHORT $LN15@pkg_genera
	mov	DWORD PTR tv211[ebp], OFFSET ??_C@_00CNPNBAHC@?$AA@
	jmp	SHORT $LN16@pkg_genera
$LN15@pkg_genera:
	mov	DWORD PTR tv211[ebp], OFFSET _libFileNames+256
$LN16@pkg_genera:
	mov	esi, esp
	mov	eax, DWORD PTR _pkgDataFlags
	mov	ecx, DWORD PTR [eax+48]
	push	ecx
	mov	edx, DWORD PTR _pkgDataFlags
	mov	eax, DWORD PTR [edx+44]
	push	eax
	mov	ecx, DWORD PTR tv211[ebp]
	push	ecx
	mov	edx, DWORD PTR _pkgDataFlags
	mov	eax, DWORD PTR [edx+40]
	push	eax
	mov	ecx, DWORD PTR _objectFile$[ebp]
	push	ecx
	push	OFFSET _libFileNames+768
	mov	edx, DWORD PTR _targetDir$[ebp]
	push	edx
	mov	eax, DWORD PTR _pkgDataFlags
	mov	ecx, DWORD PTR [eax+36]
	push	ecx
	mov	edx, DWORD PTR _pkgDataFlags
	mov	eax, DWORD PTR [edx+32]
	push	eax
	push	OFFSET ??_C@_0BM@BLHAKFDE@?$CFs?5?$CFs?5?9o?5?$CFs?$CFs?5?$CFs?5?$CFs?$CFs?5?$CFs?5?$CFs?$AA@
	mov	ecx, DWORD PTR _cmd$[ebp]
	push	ecx
	call	DWORD PTR __imp__sprintf
	add	esp, 44					; 0000002cH
	cmp	esi, esp
	call	__RTC_CheckEsp
; Line 1425
	push	0
	mov	eax, DWORD PTR _cmd$[ebp]
	push	eax
	call	?runCommand@@YAHPBDC@Z			; runCommand
	add	esp, 8
	mov	DWORD PTR _result$[ebp], eax
$LN5@pkg_genera:
; Line 1488
	cmp	DWORD PTR _result$[ebp], 0
	je	SHORT $LN2@pkg_genera
; Line 1489
	mov	esi, esp
	mov	eax, DWORD PTR _cmd$[ebp]
	push	eax
	push	OFFSET ??_C@_0DD@JEKGCDDE@Error?5generating?5library?5file?4?5F@
	mov	edi, esp
	call	DWORD PTR __imp____iob_func
	cmp	edi, esp
	call	__RTC_CheckEsp
	add	eax, 64					; 00000040H
	push	eax
	call	DWORD PTR __imp__fprintf
	add	esp, 12					; 0000000cH
	cmp	esi, esp
	call	__RTC_CheckEsp
$LN2@pkg_genera:
; Line 1492
	movsx	eax, BYTE PTR _freeCmd$[ebp]
	test	eax, eax
	je	SHORT $LN1@pkg_genera
; Line 1493
	mov	eax, DWORD PTR _cmd$[ebp]
	push	eax
	call	_uprv_free_56
	add	esp, 4
$LN1@pkg_genera:
; Line 1496
	mov	eax, DWORD PTR _result$[ebp]
$LN11@pkg_genera:
; Line 1497
	pop	edi
	pop	esi
	pop	ebx
	add	esp, 244				; 000000f4H
	cmp	ebp, esp
	call	__RTC_CheckEsp
	mov	esp, ebp
	pop	ebp
	ret	0
?pkg_generateLibraryFile@@YAHPBDD0PADC@Z ENDP		; pkg_generateLibraryFile
_TEXT	ENDS
PUBLIC	??_C@_0DI@PLIAOADB@Error?5creating?5Windows?5DLL?5libra@ ; `string'
PUBLIC	??_C@_0BG@JLMDMOAD@?$CFs?$CC?$CFs?$CC?5?$CFs?$CC?$CFs?$CC?5?$CC?$CFs?$CC?5?$CFs?$AA@ ; `string'
PUBLIC	??_C@_0CA@JEBMKBKG@link?4exe?5?1nologo?5?1release?5?1out?3?$AA@ ; `string'
PUBLIC	??_C@_0DG@OEHPCOLA@?1DLL?5?1NOENTRY?5?1MANIFEST?3NO?5?5?1bas@ ; `string'
PUBLIC	??_C@_0CD@FPKOLHEB@?$CD?5Not?5rebuilding?5?$CFs?5?9?5up?5to?5date@ ; `string'
PUBLIC	??_C@_04OEDFLLKD@?$CC?$CFs?$CC?$AA@		; `string'
PUBLIC	??_C@_0M@NLAPFDCK@icudata?4res?$AA@		; `string'
PUBLIC	??_C@_04HLONOPDM@?4dll?$AA@			; `string'
PUBLIC	??_C@_09EAFPJNND@icudt?4lib?$AA@		; `string'
PUBLIC	??_C@_0M@EAAPLNDK@?$CFs?$CC?$CFs?$CC?5?$CC?$CFs?$CC?$AA@ ; `string'
PUBLIC	??_C@_0BG@EHGJCDPF@LIB?4exe?5?1nologo?5?1out?3?$AA@ ; `string'
PUBLIC	??_C@_0L@MOHIGKOO@?$CFs?$CFs?$CFs?$CFs?$CFs?$AA@ ; `string'
PUBLIC	??_C@_04CGBBCILG@?4lib?$AA@			; `string'
PUBLIC	??_C@_01LKDEMHDF@s?$AA@				; `string'
PUBLIC	??_C@_05OHDIICPD@icudt?$AA@			; `string'
PUBLIC	__$ArrayPad$
EXTRN	_isFileModTimeLater:PROC
EXTRN	__imp__strstr:PROC
;	COMDAT ??_C@_0DI@PLIAOADB@Error?5creating?5Windows?5DLL?5libra@
CONST	SEGMENT
??_C@_0DI@PLIAOADB@Error?5creating?5Windows?5DLL?5libra@ DB 'Error creati'
	DB	'ng Windows DLL library. Failed command: %s', 0aH, 00H ; `string'
CONST	ENDS
;	COMDAT ??_C@_0BG@JLMDMOAD@?$CFs?$CC?$CFs?$CC?5?$CFs?$CC?$CFs?$CC?5?$CC?$CFs?$CC?5?$CFs?$AA@
CONST	SEGMENT
??_C@_0BG@JLMDMOAD@?$CFs?$CC?$CFs?$CC?5?$CFs?$CC?$CFs?$CC?5?$CC?$CFs?$CC?5?$CFs?$AA@ DB '%'
	DB	's"%s" %s"%s" "%s" %s', 00H			; `string'
CONST	ENDS
;	COMDAT ??_C@_0CA@JEBMKBKG@link?4exe?5?1nologo?5?1release?5?1out?3?$AA@
CONST	SEGMENT
??_C@_0CA@JEBMKBKG@link?4exe?5?1nologo?5?1release?5?1out?3?$AA@ DB 'link.'
	DB	'exe /nologo /release /out:', 00H		; `string'
CONST	ENDS
;	COMDAT ??_C@_0DG@OEHPCOLA@?1DLL?5?1NOENTRY?5?1MANIFEST?3NO?5?5?1bas@
CONST	SEGMENT
??_C@_0DG@OEHPCOLA@?1DLL?5?1NOENTRY?5?1MANIFEST?3NO?5?5?1bas@ DB '/DLL /N'
	DB	'OENTRY /MANIFEST:NO  /base:0x4ad00000 /implib:', 00H ; `string'
CONST	ENDS
;	COMDAT ??_C@_0CD@FPKOLHEB@?$CD?5Not?5rebuilding?5?$CFs?5?9?5up?5to?5date@
CONST	SEGMENT
??_C@_0CD@FPKOLHEB@?$CD?5Not?5rebuilding?5?$CFs?5?9?5up?5to?5date@ DB '# '
	DB	'Not rebuilding %s - up to date.', 0aH, 00H	; `string'
CONST	ENDS
;	COMDAT ??_C@_04OEDFLLKD@?$CC?$CFs?$CC?$AA@
CONST	SEGMENT
??_C@_04OEDFLLKD@?$CC?$CFs?$CC?$AA@ DB '"%s"', 00H	; `string'
CONST	ENDS
;	COMDAT ??_C@_0M@NLAPFDCK@icudata?4res?$AA@
CONST	SEGMENT
??_C@_0M@NLAPFDCK@icudata?4res?$AA@ DB 'icudata.res', 00H ; `string'
CONST	ENDS
;	COMDAT ??_C@_04HLONOPDM@?4dll?$AA@
CONST	SEGMENT
??_C@_04HLONOPDM@?4dll?$AA@ DB '.dll', 00H		; `string'
CONST	ENDS
;	COMDAT ??_C@_09EAFPJNND@icudt?4lib?$AA@
CONST	SEGMENT
??_C@_09EAFPJNND@icudt?4lib?$AA@ DB 'icudt.lib', 00H	; `string'
CONST	ENDS
;	COMDAT ??_C@_0M@EAAPLNDK@?$CFs?$CC?$CFs?$CC?5?$CC?$CFs?$CC?$AA@
CONST	SEGMENT
??_C@_0M@EAAPLNDK@?$CFs?$CC?$CFs?$CC?5?$CC?$CFs?$CC?$AA@ DB '%s"%s" "%s"', 00H ; `string'
CONST	ENDS
;	COMDAT ??_C@_0BG@EHGJCDPF@LIB?4exe?5?1nologo?5?1out?3?$AA@
CONST	SEGMENT
??_C@_0BG@EHGJCDPF@LIB?4exe?5?1nologo?5?1out?3?$AA@ DB 'LIB.exe /nologo /'
	DB	'out:', 00H					; `string'
CONST	ENDS
;	COMDAT ??_C@_0L@MOHIGKOO@?$CFs?$CFs?$CFs?$CFs?$CFs?$AA@
CONST	SEGMENT
??_C@_0L@MOHIGKOO@?$CFs?$CFs?$CFs?$CFs?$CFs?$AA@ DB '%s%s%s%s%s', 00H ; `string'
CONST	ENDS
;	COMDAT ??_C@_04CGBBCILG@?4lib?$AA@
CONST	SEGMENT
??_C@_04CGBBCILG@?4lib?$AA@ DB '.lib', 00H		; `string'
CONST	ENDS
;	COMDAT ??_C@_01LKDEMHDF@s?$AA@
CONST	SEGMENT
??_C@_01LKDEMHDF@s?$AA@ DB 's', 00H			; `string'
CONST	ENDS
;	COMDAT ??_C@_05OHDIICPD@icudt?$AA@
CONST	SEGMENT
??_C@_05OHDIICPD@icudt?$AA@ DB 'icudt', 00H		; `string'
; Function compile flags: /Odtp /RTCsu /ZI
CONST	ENDS
;	COMDAT ?pkg_createWindowsDLL@@YAHDPBDPAUUPKGOptions_@@@Z
_TEXT	SEGMENT
tv83 = -4868						; size = 4
_tmpResFilePath$11581 = -4668				; size = 512
_resFilePath$11580 = -4148				; size = 512
_libFilePath$11579 = -3628				; size = 512
_dllFilePath$11578 = -3108				; size = 512
_staticLibFilePath$11569 = -2588			; size = 512
_cmd$ = -2068						; size = 2048
_result$ = -12						; size = 4
__$ArrayPad$ = -4					; size = 4
_mode$ = 8						; size = 1
_gencFilePath$ = 12					; size = 4
_o$ = 16						; size = 4
?pkg_createWindowsDLL@@YAHDPBDPAUUPKGOptions_@@@Z PROC	; pkg_createWindowsDLL, COMDAT
; Line 1758
	push	ebp
	mov	ebp, esp
	mov	eax, 4868				; 00001304H
	call	__chkstk
	push	ebx
	push	esi
	push	edi
	lea	edi, DWORD PTR [ebp-4868]
	mov	ecx, 1217				; 000004c1H
	mov	eax, -858993460				; ccccccccH
	rep stosd
	mov	eax, DWORD PTR ___security_cookie
	xor	eax, ebp
	mov	DWORD PTR __$ArrayPad$[ebp], eax
; Line 1759
	mov	DWORD PTR _result$[ebp], 0
; Line 1761
	movsx	eax, BYTE PTR _mode$[ebp]
	cmp	eax, 115				; 00000073H
	jne	$LN10@pkg_create@3
; Line 1762
	mov	al, BYTE PTR ??_C@_00CNPNBAHC@?$AA@
	mov	BYTE PTR _staticLibFilePath$11569[ebp], al
	push	511					; 000001ffH
	push	0
	lea	eax, DWORD PTR _staticLibFilePath$11569[ebp+1]
	push	eax
	call	_memset
	add	esp, 12					; 0000000cH
; Line 1777
	mov	esi, esp
	push	OFFSET ??_C@_05OHDIICPD@icudt?$AA@
	mov	eax, DWORD PTR _o$[ebp]
	mov	ecx, DWORD PTR [eax+68]
	push	ecx
	call	DWORD PTR __imp__strstr
	add	esp, 8
	cmp	esi, esp
	call	__RTC_CheckEsp
	test	eax, eax
	je	SHORT $LN13@pkg_create@3
	mov	DWORD PTR tv83[ebp], OFFSET ??_C@_01LKDEMHDF@s?$AA@
	jmp	SHORT $LN14@pkg_create@3
$LN13@pkg_create@3:
	mov	DWORD PTR tv83[ebp], OFFSET ??_C@_00CNPNBAHC@?$AA@
$LN14@pkg_create@3:
	mov	esi, esp
	push	OFFSET ??_C@_04CGBBCILG@?4lib?$AA@
	mov	edx, DWORD PTR _o$[ebp]
	mov	eax, DWORD PTR [edx+68]
	push	eax
	mov	ecx, DWORD PTR tv83[ebp]
	push	ecx
	push	OFFSET ??_C@_01KICIPPFI@?2?$AA@
	mov	edx, DWORD PTR _o$[ebp]
	mov	eax, DWORD PTR [edx+28]
	push	eax
	push	OFFSET ??_C@_0L@MOHIGKOO@?$CFs?$CFs?$CFs?$CFs?$CFs?$AA@
	lea	ecx, DWORD PTR _staticLibFilePath$11569[ebp]
	push	ecx
	call	DWORD PTR __imp__sprintf
	add	esp, 28					; 0000001cH
	cmp	esi, esp
	call	__RTC_CheckEsp
; Line 1783
	mov	esi, esp
	mov	eax, DWORD PTR _gencFilePath$[ebp]
	push	eax
	lea	ecx, DWORD PTR _staticLibFilePath$11569[ebp]
	push	ecx
	push	OFFSET ??_C@_0BG@EHGJCDPF@LIB?4exe?5?1nologo?5?1out?3?$AA@
	push	OFFSET ??_C@_0M@EAAPLNDK@?$CFs?$CC?$CFs?$CC?5?$CC?$CFs?$CC?$AA@
	lea	edx, DWORD PTR _cmd$[ebp]
	push	edx
	call	DWORD PTR __imp__sprintf
	add	esp, 20					; 00000014H
	cmp	esi, esp
	call	__RTC_CheckEsp
	jmp	$LN9@pkg_create@3
$LN10@pkg_create@3:
; Line 1784
	movsx	eax, BYTE PTR _mode$[ebp]
	cmp	eax, 100				; 00000064H
	je	SHORT $LN7@pkg_create@3
	movsx	eax, BYTE PTR _mode$[ebp]
	cmp	eax, 108				; 0000006cH
	jne	$LN9@pkg_create@3
$LN7@pkg_create@3:
; Line 1785
	mov	al, BYTE PTR ??_C@_00CNPNBAHC@?$AA@
	mov	BYTE PTR _dllFilePath$11578[ebp], al
	push	511					; 000001ffH
	push	0
	lea	eax, DWORD PTR _dllFilePath$11578[ebp+1]
	push	eax
	call	_memset
	add	esp, 12					; 0000000cH
; Line 1786
	mov	al, BYTE PTR ??_C@_00CNPNBAHC@?$AA@
	mov	BYTE PTR _libFilePath$11579[ebp], al
	push	511					; 000001ffH
	push	0
	lea	eax, DWORD PTR _libFilePath$11579[ebp+1]
	push	eax
	call	_memset
	add	esp, 12					; 0000000cH
; Line 1787
	mov	al, BYTE PTR ??_C@_00CNPNBAHC@?$AA@
	mov	BYTE PTR _resFilePath$11580[ebp], al
	push	511					; 000001ffH
	push	0
	lea	eax, DWORD PTR _resFilePath$11580[ebp+1]
	push	eax
	call	_memset
	add	esp, 12					; 0000000cH
; Line 1788
	mov	al, BYTE PTR ??_C@_00CNPNBAHC@?$AA@
	mov	BYTE PTR _tmpResFilePath$11581[ebp], al
	push	511					; 000001ffH
	push	0
	lea	eax, DWORD PTR _tmpResFilePath$11581[ebp+1]
	push	eax
	call	_memset
	add	esp, 12					; 0000000cH
; Line 1793
	mov	eax, DWORD PTR _o$[ebp]
	mov	ecx, DWORD PTR [eax+40]
	push	ecx
	lea	edx, DWORD PTR _dllFilePath$11578[ebp]
	push	edx
	call	_strcpy
	add	esp, 8
; Line 1795
	push	OFFSET ??_C@_01KICIPPFI@?2?$AA@
	lea	eax, DWORD PTR _dllFilePath$11578[ebp]
	push	eax
	call	_strcat
	add	esp, 8
; Line 1796
	lea	eax, DWORD PTR _dllFilePath$11578[ebp]
	push	eax
	lea	ecx, DWORD PTR _libFilePath$11579[ebp]
	push	ecx
	call	_strcpy
	add	esp, 8
; Line 1805
	mov	esi, esp
	push	OFFSET ??_C@_05OHDIICPD@icudt?$AA@
	mov	eax, DWORD PTR _o$[ebp]
	mov	ecx, DWORD PTR [eax+68]
	push	ecx
	call	DWORD PTR __imp__strstr
	add	esp, 8
	cmp	esi, esp
	call	__RTC_CheckEsp
	test	eax, eax
	je	SHORT $LN6@pkg_create@3
; Line 1806
	push	OFFSET ??_C@_09EAFPJNND@icudt?4lib?$AA@
	lea	eax, DWORD PTR _libFilePath$11579[ebp]
	push	eax
	call	_strcat
	add	esp, 8
; Line 1807
	jmp	SHORT $LN5@pkg_create@3
$LN6@pkg_create@3:
; Line 1808
	mov	eax, DWORD PTR _o$[ebp]
	mov	ecx, DWORD PTR [eax+68]
	push	ecx
	lea	edx, DWORD PTR _libFilePath$11579[ebp]
	push	edx
	call	_strcat
	add	esp, 8
; Line 1809
	push	OFFSET ??_C@_04CGBBCILG@?4lib?$AA@
	lea	eax, DWORD PTR _libFilePath$11579[ebp]
	push	eax
	call	_strcat
	add	esp, 8
$LN5@pkg_create@3:
; Line 1811
	mov	eax, DWORD PTR _o$[ebp]
	mov	ecx, DWORD PTR [eax+24]
	push	ecx
	lea	edx, DWORD PTR _dllFilePath$11578[ebp]
	push	edx
	call	_strcat
	add	esp, 8
; Line 1813
	push	OFFSET ??_C@_04HLONOPDM@?4dll?$AA@
	lea	eax, DWORD PTR _dllFilePath$11578[ebp]
	push	eax
	call	_strcat
	add	esp, 8
; Line 1815
	mov	eax, DWORD PTR _o$[ebp]
	mov	ecx, DWORD PTR [eax+36]
	push	ecx
	lea	edx, DWORD PTR _tmpResFilePath$11581[ebp]
	push	edx
	call	_strcpy
	add	esp, 8
; Line 1816
	push	OFFSET ??_C@_01KICIPPFI@?2?$AA@
	lea	eax, DWORD PTR _tmpResFilePath$11581[ebp]
	push	eax
	call	_strcat
	add	esp, 8
; Line 1817
	push	OFFSET ??_C@_0M@NLAPFDCK@icudata?4res?$AA@
	lea	eax, DWORD PTR _tmpResFilePath$11581[ebp]
	push	eax
	call	_strcat
	add	esp, 8
; Line 1819
	lea	eax, DWORD PTR _tmpResFilePath$11581[ebp]
	push	eax
	call	_T_FileStream_file_exists
	add	esp, 4
	movsx	ecx, al
	test	ecx, ecx
	je	SHORT $LN4@pkg_create@3
; Line 1820
	mov	esi, esp
	lea	eax, DWORD PTR _tmpResFilePath$11581[ebp]
	push	eax
	push	OFFSET ??_C@_04OEDFLLKD@?$CC?$CFs?$CC?$AA@
	lea	ecx, DWORD PTR _resFilePath$11580[ebp]
	push	ecx
	call	DWORD PTR __imp__sprintf
	add	esp, 12					; 0000000cH
	cmp	esi, esp
	call	__RTC_CheckEsp
$LN4@pkg_create@3:
; Line 1825
	mov	eax, DWORD PTR _o$[ebp]
	movsx	ecx, BYTE PTR [eax+72]
	test	ecx, ecx
	jne	$LN3@pkg_create@3
	lea	eax, DWORD PTR _dllFilePath$11578[ebp]
	push	eax
	call	_T_FileStream_file_exists
	add	esp, 4
	movsx	ecx, al
	test	ecx, ecx
	je	SHORT $LN3@pkg_create@3
	push	0
	mov	eax, DWORD PTR _gencFilePath$[ebp]
	push	eax
	lea	ecx, DWORD PTR _dllFilePath$11578[ebp]
	push	ecx
	call	_isFileModTimeLater
	add	esp, 12					; 0000000cH
	movsx	edx, al
	test	edx, edx
	je	SHORT $LN3@pkg_create@3
	lea	eax, DWORD PTR _libFilePath$11579[ebp]
	push	eax
	call	_T_FileStream_file_exists
	add	esp, 4
	movsx	ecx, al
	test	ecx, ecx
	je	SHORT $LN3@pkg_create@3
	push	0
	mov	eax, DWORD PTR _gencFilePath$[ebp]
	push	eax
	lea	ecx, DWORD PTR _libFilePath$11579[ebp]
	push	ecx
	call	_isFileModTimeLater
	add	esp, 12					; 0000000cH
	movsx	edx, al
	test	edx, edx
	je	SHORT $LN3@pkg_create@3
; Line 1826
	mov	eax, DWORD PTR _o$[ebp]
	movsx	ecx, BYTE PTR [eax+73]
	test	ecx, ecx
	je	SHORT $LN2@pkg_create@3
; Line 1827
	mov	esi, esp
	mov	eax, DWORD PTR _gencFilePath$[ebp]
	push	eax
	push	OFFSET ??_C@_0CD@FPKOLHEB@?$CD?5Not?5rebuilding?5?$CFs?5?9?5up?5to?5date@
	call	DWORD PTR __imp__printf
	add	esp, 8
	cmp	esi, esp
	call	__RTC_CheckEsp
$LN2@pkg_create@3:
; Line 1829
	xor	eax, eax
	jmp	$LN11@pkg_create@3
$LN3@pkg_create@3:
; Line 1839
	mov	esi, esp
	lea	eax, DWORD PTR _resFilePath$11580[ebp]
	push	eax
	mov	ecx, DWORD PTR _gencFilePath$[ebp]
	push	ecx
	lea	edx, DWORD PTR _libFilePath$11579[ebp]
	push	edx
	push	OFFSET ??_C@_0DG@OEHPCOLA@?1DLL?5?1NOENTRY?5?1MANIFEST?3NO?5?5?1bas@
	lea	eax, DWORD PTR _dllFilePath$11578[ebp]
	push	eax
	push	OFFSET ??_C@_0CA@JEBMKBKG@link?4exe?5?1nologo?5?1release?5?1out?3?$AA@
	push	OFFSET ??_C@_0BG@JLMDMOAD@?$CFs?$CC?$CFs?$CC?5?$CFs?$CC?$CFs?$CC?5?$CC?$CFs?$CC?5?$CFs?$AA@
	lea	ecx, DWORD PTR _cmd$[ebp]
	push	ecx
	call	DWORD PTR __imp__sprintf
	add	esp, 32					; 00000020H
	cmp	esi, esp
	call	__RTC_CheckEsp
$LN9@pkg_create@3:
; Line 1842
	push	1
	lea	eax, DWORD PTR _cmd$[ebp]
	push	eax
	call	?runCommand@@YAHPBDC@Z			; runCommand
	add	esp, 8
	mov	DWORD PTR _result$[ebp], eax
; Line 1843
	cmp	DWORD PTR _result$[ebp], 0
	je	SHORT $LN1@pkg_create@3
; Line 1844
	mov	esi, esp
	lea	eax, DWORD PTR _cmd$[ebp]
	push	eax
	push	OFFSET ??_C@_0DI@PLIAOADB@Error?5creating?5Windows?5DLL?5libra@
	mov	edi, esp
	call	DWORD PTR __imp____iob_func
	cmp	edi, esp
	call	__RTC_CheckEsp
	add	eax, 64					; 00000040H
	push	eax
	call	DWORD PTR __imp__fprintf
	add	esp, 12					; 0000000cH
	cmp	esi, esp
	call	__RTC_CheckEsp
$LN1@pkg_create@3:
; Line 1847
	mov	eax, DWORD PTR _result$[ebp]
$LN11@pkg_create@3:
; Line 1848
	push	edx
	mov	ecx, ebp
	push	eax
	lea	edx, DWORD PTR $LN22@pkg_create@3
	call	@_RTC_CheckStackVars@8
	pop	eax
	pop	edx
	pop	edi
	pop	esi
	pop	ebx
	mov	ecx, DWORD PTR __$ArrayPad$[ebp]
	xor	ecx, ebp
	call	@__security_check_cookie@4
	add	esp, 4868				; 00001304H
	cmp	ebp, esp
	call	__RTC_CheckEsp
	mov	esp, ebp
	pop	ebp
	ret	0
	npad	2
$LN22@pkg_create@3:
	DD	6
	DD	$LN21@pkg_create@3
$LN21@pkg_create@3:
	DD	-2068					; fffff7ecH
	DD	2048					; 00000800H
	DD	$LN15@pkg_create@3
	DD	-2588					; fffff5e4H
	DD	512					; 00000200H
	DD	$LN16@pkg_create@3
	DD	-3108					; fffff3dcH
	DD	512					; 00000200H
	DD	$LN17@pkg_create@3
	DD	-3628					; fffff1d4H
	DD	512					; 00000200H
	DD	$LN18@pkg_create@3
	DD	-4148					; ffffefccH
	DD	512					; 00000200H
	DD	$LN19@pkg_create@3
	DD	-4668					; ffffedc4H
	DD	512					; 00000200H
	DD	$LN20@pkg_create@3
$LN20@pkg_create@3:
	DB	116					; 00000074H
	DB	109					; 0000006dH
	DB	112					; 00000070H
	DB	82					; 00000052H
	DB	101					; 00000065H
	DB	115					; 00000073H
	DB	70					; 00000046H
	DB	105					; 00000069H
	DB	108					; 0000006cH
	DB	101					; 00000065H
	DB	80					; 00000050H
	DB	97					; 00000061H
	DB	116					; 00000074H
	DB	104					; 00000068H
	DB	0
$LN19@pkg_create@3:
	DB	114					; 00000072H
	DB	101					; 00000065H
	DB	115					; 00000073H
	DB	70					; 00000046H
	DB	105					; 00000069H
	DB	108					; 0000006cH
	DB	101					; 00000065H
	DB	80					; 00000050H
	DB	97					; 00000061H
	DB	116					; 00000074H
	DB	104					; 00000068H
	DB	0
$LN18@pkg_create@3:
	DB	108					; 0000006cH
	DB	105					; 00000069H
	DB	98					; 00000062H
	DB	70					; 00000046H
	DB	105					; 00000069H
	DB	108					; 0000006cH
	DB	101					; 00000065H
	DB	80					; 00000050H
	DB	97					; 00000061H
	DB	116					; 00000074H
	DB	104					; 00000068H
	DB	0
$LN17@pkg_create@3:
	DB	100					; 00000064H
	DB	108					; 0000006cH
	DB	108					; 0000006cH
	DB	70					; 00000046H
	DB	105					; 00000069H
	DB	108					; 0000006cH
	DB	101					; 00000065H
	DB	80					; 00000050H
	DB	97					; 00000061H
	DB	116					; 00000074H
	DB	104					; 00000068H
	DB	0
$LN16@pkg_create@3:
	DB	115					; 00000073H
	DB	116					; 00000074H
	DB	97					; 00000061H
	DB	116					; 00000074H
	DB	105					; 00000069H
	DB	99					; 00000063H
	DB	76					; 0000004cH
	DB	105					; 00000069H
	DB	98					; 00000062H
	DB	70					; 00000046H
	DB	105					; 00000069H
	DB	108					; 0000006cH
	DB	101					; 00000065H
	DB	80					; 00000050H
	DB	97					; 00000061H
	DB	116					; 00000074H
	DB	104					; 00000068H
	DB	0
$LN15@pkg_create@3:
	DB	99					; 00000063H
	DB	109					; 0000006dH
	DB	100					; 00000064H
	DB	0
?pkg_createWindowsDLL@@YAHDPBDPAUUPKGOptions_@@@Z ENDP	; pkg_createWindowsDLL
_TEXT	ENDS
PUBLIC	??_C@_0DI@NAANFHLO@pkgdata?3?5Error?3?5Unable?5to?5alloca@ ; `string'
PUBLIC	??_C@_0JM@OGPADHEG@pkgdata?3?5Error?3?5absolute?5path?5en@ ; `string'
PUBLIC	??_C@_0EF@KKAOIKDN@?$CFs?3?$CFd?5?9?5malformed?5quoted?5line?5at@ ; `string'
PUBLIC	??_C@_0CL@EDGDBDDC@?$CFs?3?$CFd?5?9?5missing?5trailing?5double?5@ ; `string'
PUBLIC	?strchr@@YAPADPADH@Z				; strchr
PUBLIC	??_C@_0CH@KPJKOLO@?$CFs?3?$CFd?5?9?5line?5too?5long?5?$CIover?5?$CFd?5c@ ; `string'
PUBLIC	??_C@_0BF@CNPBAPEJ@Error?5opening?5?$DM?$CFs?$DO?4?6?$AA@ ; `string'
PUBLIC	??_C@_0BJ@IOHHLMMD@?$CD?5pkgdata?3?5Reading?5?$CFs?4?4?6?$AA@ ; `string'
PUBLIC	__$ArrayPad$
EXTRN	_uprv_pathIsAbsolute_56:PROC
EXTRN	_getLongPathname:PROC
EXTRN	__imp__isspace:PROC
EXTRN	__imp__exit:PROC
;	COMDAT ??_C@_0DI@NAANFHLO@pkgdata?3?5Error?3?5Unable?5to?5alloca@
CONST	SEGMENT
??_C@_0DI@NAANFHLO@pkgdata?3?5Error?3?5Unable?5to?5alloca@ DB 'pkgdata: E'
	DB	'rror: Unable to allocate tmp buffer size: %d', 0aH, 00H ; `string'
CONST	ENDS
;	COMDAT ??_C@_0JM@OGPADHEG@pkgdata?3?5Error?3?5absolute?5path?5en@
CONST	SEGMENT
??_C@_0JM@OGPADHEG@pkgdata?3?5Error?3?5absolute?5path?5en@ DB 'pkgdata: E'
	DB	'rror: absolute path encountered. Old style paths are not supp'
	DB	'orted. Use relative paths such as ''fur.res'' or ''translit%c'
	DB	'fur.res''.', 0aH, 09H, 'Bad path: ''%s''', 0aH, 00H ; `string'
CONST	ENDS
;	COMDAT ??_C@_0EF@KKAOIKDN@?$CFs?3?$CFd?5?9?5malformed?5quoted?5line?5at@
CONST	SEGMENT
??_C@_0EF@KKAOIKDN@?$CFs?3?$CFd?5?9?5malformed?5quoted?5line?5at@ DB '%s:'
	DB	'%d - malformed quoted line at position %d, expected '' '' got'
	DB	' ''%c''', 0aH, 00H				; `string'
CONST	ENDS
;	COMDAT ??_C@_0CL@EDGDBDDC@?$CFs?3?$CFd?5?9?5missing?5trailing?5double?5@
CONST	SEGMENT
??_C@_0CL@EDGDBDDC@?$CFs?3?$CFd?5?9?5missing?5trailing?5double?5@ DB '%s:'
	DB	'%d - missing trailing double quote (")', 0aH, 00H ; `string'
CONST	ENDS
;	COMDAT ??_C@_0CH@KPJKOLO@?$CFs?3?$CFd?5?9?5line?5too?5long?5?$CIover?5?$CFd?5c@
CONST	SEGMENT
??_C@_0CH@KPJKOLO@?$CFs?3?$CFd?5?9?5line?5too?5long?5?$CIover?5?$CFd?5c@ DB '%'
	DB	's:%d - line too long (over %d chars)', 0aH, 00H ; `string'
CONST	ENDS
;	COMDAT ??_C@_0BF@CNPBAPEJ@Error?5opening?5?$DM?$CFs?$DO?4?6?$AA@
CONST	SEGMENT
??_C@_0BF@CNPBAPEJ@Error?5opening?5?$DM?$CFs?$DO?4?6?$AA@ DB 'Error openi'
	DB	'ng <%s>.', 0aH, 00H				; `string'
CONST	ENDS
;	COMDAT ??_C@_0BJ@IOHHLMMD@?$CD?5pkgdata?3?5Reading?5?$CFs?4?4?6?$AA@
CONST	SEGMENT
??_C@_0BJ@IOHHLMMD@?$CD?5pkgdata?3?5Reading?5?$CFs?4?4?6?$AA@ DB '# pkgda'
	DB	'ta: Reading %s..', 0aH, 00H			; `string'
; Function compile flags: /Odtp /RTCsu /ZI
CONST	ENDS
;	COMDAT ?loadLists@@YAXPAUUPKGOptions_@@PAW4UErrorCode@@@Z
_TEXT	SEGMENT
tv244 = -16724						; size = 4
tv176 = -16721						; size = 1
_ln$ = -16524						; size = 4
_s$ = -16512						; size = 4
_tmpLength$ = -16500					; size = 4
_tmp$ = -16488						; size = 4
_lineMax$ = -16476					; size = 4
_lineNext$ = -16464					; size = 4
_linePtr$ = -16452					; size = 4
_line$ = -16440						; size = 16384
_in$ = -48						; size = 4
_tail2$ = -36						; size = 4
_tail$ = -24						; size = 4
_l$ = -12						; size = 4
__$ArrayPad$ = -4					; size = 4
_o$ = 8							; size = 4
_status$ = 12						; size = 4
?loadLists@@YAXPAUUPKGOptions_@@PAW4UErrorCode@@@Z PROC	; loadLists, COMDAT
; Line 1990
	push	ebp
	mov	ebp, esp
	mov	eax, 16724				; 00004154H
	call	__chkstk
	push	ebx
	push	esi
	push	edi
	lea	edi, DWORD PTR [ebp-16724]
	mov	ecx, 4181				; 00001055H
	mov	eax, -858993460				; ccccccccH
	rep stosd
	mov	eax, DWORD PTR ___security_cookie
	xor	eax, ebp
	mov	DWORD PTR __$ArrayPad$[ebp], eax
; Line 1991
	mov	DWORD PTR _tail$[ebp], 0
	mov	DWORD PTR _tail2$[ebp], 0
; Line 1995
	mov	DWORD PTR _lineMax$[ebp], 16300		; 00003facH
; Line 1997
	mov	DWORD PTR _tmpLength$[ebp], 0
; Line 1999
	mov	DWORD PTR _ln$[ebp], 0
; Line 2001
	mov	eax, DWORD PTR _o$[ebp]
	mov	ecx, DWORD PTR [eax]
	mov	DWORD PTR _l$[ebp], ecx
	jmp	SHORT $LN30@loadLists
$LN29@loadLists:
	mov	eax, DWORD PTR _l$[ebp]
	mov	ecx, DWORD PTR [eax+4]
	mov	DWORD PTR _l$[ebp], ecx
$LN30@loadLists:
	cmp	DWORD PTR _l$[ebp], 0
	je	$LN32@loadLists
; Line 2002
	mov	eax, DWORD PTR _o$[ebp]
	movsx	ecx, BYTE PTR [eax+73]
	test	ecx, ecx
	je	SHORT $LN27@loadLists
; Line 2003
	mov	esi, esp
	mov	eax, DWORD PTR _l$[ebp]
	mov	ecx, DWORD PTR [eax]
	push	ecx
	push	OFFSET ??_C@_0BJ@IOHHLMMD@?$CD?5pkgdata?3?5Reading?5?$CFs?4?4?6?$AA@
	mov	edi, esp
	call	DWORD PTR __imp____iob_func
	cmp	edi, esp
	call	__RTC_CheckEsp
	add	eax, 32					; 00000020H
	push	eax
	call	DWORD PTR __imp__fprintf
	add	esp, 12					; 0000000cH
	cmp	esi, esp
	call	__RTC_CheckEsp
$LN27@loadLists:
; Line 2006
	push	OFFSET ??_C@_01KDCPPGHE@r?$AA@
	mov	eax, DWORD PTR _l$[ebp]
	mov	ecx, DWORD PTR [eax]
	push	ecx
	call	_T_FileStream_open
	add	esp, 8
	mov	DWORD PTR _in$[ebp], eax
; Line 2008
	cmp	DWORD PTR _in$[ebp], 0
	jne	SHORT $LN25@loadLists
; Line 2009
	mov	esi, esp
	mov	eax, DWORD PTR _l$[ebp]
	mov	ecx, DWORD PTR [eax]
	push	ecx
	push	OFFSET ??_C@_0BF@CNPBAPEJ@Error?5opening?5?$DM?$CFs?$DO?4?6?$AA@
	mov	edi, esp
	call	DWORD PTR __imp____iob_func
	cmp	edi, esp
	call	__RTC_CheckEsp
	add	eax, 64					; 00000040H
	push	eax
	call	DWORD PTR __imp__fprintf
	add	esp, 12					; 0000000cH
	cmp	esi, esp
	call	__RTC_CheckEsp
; Line 2010
	mov	eax, DWORD PTR _status$[ebp]
	mov	DWORD PTR [eax], 4
; Line 2011
	jmp	$LN32@loadLists
$LN25@loadLists:
; Line 2014
	push	16384					; 00004000H
	lea	eax, DWORD PTR _line$[ebp]
	push	eax
	mov	ecx, DWORD PTR _in$[ebp]
	push	ecx
	call	_T_FileStream_readLine
	add	esp, 12					; 0000000cH
	test	eax, eax
	je	$LN24@loadLists
; Line 2015
	mov	eax, DWORD PTR _ln$[ebp]
	add	eax, 1
	mov	DWORD PTR _ln$[ebp], eax
; Line 2016
	lea	eax, DWORD PTR _line$[ebp]
	push	eax
	call	_strlen
	add	esp, 4
	cmp	eax, 16300				; 00003facH
	jbe	SHORT $LN23@loadLists
; Line 2017
	mov	esi, esp
	push	16300					; 00003facH
	mov	eax, DWORD PTR _ln$[ebp]
	push	eax
	mov	ecx, DWORD PTR _l$[ebp]
	mov	edx, DWORD PTR [ecx]
	push	edx
	push	OFFSET ??_C@_0CH@KPJKOLO@?$CFs?3?$CFd?5?9?5line?5too?5long?5?$CIover?5?$CFd?5c@
	mov	edi, esp
	call	DWORD PTR __imp____iob_func
	cmp	edi, esp
	call	__RTC_CheckEsp
	add	eax, 64					; 00000040H
	push	eax
	call	DWORD PTR __imp__fprintf
	add	esp, 20					; 00000014H
	cmp	esi, esp
	call	__RTC_CheckEsp
; Line 2018
	mov	esi, esp
	push	1
	call	DWORD PTR __imp__exit
	cmp	esi, esp
	call	__RTC_CheckEsp
$LN23@loadLists:
; Line 2021
	lea	eax, DWORD PTR _line$[ebp]
	mov	DWORD PTR _linePtr$[ebp], eax
$LN22@loadLists:
; Line 2024
	mov	eax, DWORD PTR _linePtr$[ebp]
	movsx	ecx, BYTE PTR [eax]
	mov	esi, esp
	push	ecx
	call	DWORD PTR __imp__isspace
	add	esp, 4
	cmp	esi, esp
	call	__RTC_CheckEsp
	test	eax, eax
	je	SHORT $LN21@loadLists
; Line 2025
	mov	eax, DWORD PTR _linePtr$[ebp]
	add	eax, 1
	mov	DWORD PTR _linePtr$[ebp], eax
; Line 2026
	jmp	SHORT $LN22@loadLists
$LN21@loadLists:
; Line 2028
	mov	eax, DWORD PTR _linePtr$[ebp]
	mov	DWORD PTR _s$[ebp], eax
$LN20@loadLists:
; Line 2030
	mov	eax, DWORD PTR _s$[ebp]
	movsx	ecx, BYTE PTR [eax]
	test	ecx, ecx
	je	SHORT $LN19@loadLists
; Line 2031
	mov	eax, DWORD PTR _s$[ebp]
	movsx	ecx, BYTE PTR [eax]
	cmp	ecx, 13					; 0000000dH
	je	SHORT $LN17@loadLists
	mov	eax, DWORD PTR _s$[ebp]
	movsx	ecx, BYTE PTR [eax]
	cmp	ecx, 10					; 0000000aH
	jne	SHORT $LN18@loadLists
$LN17@loadLists:
; Line 2032
	mov	eax, DWORD PTR _s$[ebp]
	mov	BYTE PTR [eax], 0
; Line 2033
	jmp	SHORT $LN19@loadLists
$LN18@loadLists:
; Line 2035
	mov	eax, DWORD PTR _s$[ebp]
	add	eax, 1
	mov	DWORD PTR _s$[ebp], eax
; Line 2036
	jmp	SHORT $LN20@loadLists
$LN19@loadLists:
; Line 2037
	mov	eax, DWORD PTR _linePtr$[ebp]
	movsx	ecx, BYTE PTR [eax]
	test	ecx, ecx
	je	SHORT $LN15@loadLists
	mov	eax, DWORD PTR _linePtr$[ebp]
	movsx	ecx, BYTE PTR [eax]
	cmp	ecx, 35					; 00000023H
	jne	SHORT $LN16@loadLists
$LN15@loadLists:
; Line 2038
	jmp	$LN25@loadLists
$LN16@loadLists:
; Line 2042
	mov	DWORD PTR _lineNext$[ebp], 0
$LN14@loadLists:
; Line 2044
	cmp	DWORD PTR _linePtr$[ebp], 0
	je	$LN13@loadLists
	mov	eax, DWORD PTR _linePtr$[ebp]
	movsx	ecx, BYTE PTR [eax]
	test	ecx, ecx
	je	$LN13@loadLists
$LN12@loadLists:
; Line 2045
	mov	eax, DWORD PTR _linePtr$[ebp]
	movsx	ecx, BYTE PTR [eax]
	cmp	ecx, 32					; 00000020H
	jne	SHORT $LN11@loadLists
; Line 2046
	mov	eax, DWORD PTR _linePtr$[ebp]
	add	eax, 1
	mov	DWORD PTR _linePtr$[ebp], eax
; Line 2047
	jmp	SHORT $LN12@loadLists
$LN11@loadLists:
; Line 2049
	mov	eax, DWORD PTR _linePtr$[ebp]
	movsx	ecx, BYTE PTR [eax]
	cmp	ecx, 34					; 00000022H
	jne	$LN10@loadLists
; Line 2051
	push	34					; 00000022H
	mov	eax, DWORD PTR _linePtr$[ebp]
	add	eax, 1
	push	eax
	call	?strchr@@YAPADPADH@Z			; strchr
	add	esp, 8
	mov	DWORD PTR _lineNext$[ebp], eax
; Line 2052
	cmp	DWORD PTR _lineNext$[ebp], 0
	jne	SHORT $LN9@loadLists
; Line 2054
	mov	esi, esp
	mov	eax, DWORD PTR _ln$[ebp]
	push	eax
	mov	ecx, DWORD PTR _l$[ebp]
	mov	edx, DWORD PTR [ecx]
	push	edx
	push	OFFSET ??_C@_0CL@EDGDBDDC@?$CFs?3?$CFd?5?9?5missing?5trailing?5double?5@
	mov	edi, esp
	call	DWORD PTR __imp____iob_func
	cmp	edi, esp
	call	__RTC_CheckEsp
	add	eax, 64					; 00000040H
	push	eax
	call	DWORD PTR __imp__fprintf
	add	esp, 16					; 00000010H
	cmp	esi, esp
	call	__RTC_CheckEsp
; Line 2055
	mov	esi, esp
	push	1
	call	DWORD PTR __imp__exit
	cmp	esi, esp
	call	__RTC_CheckEsp
; Line 2056
	jmp	$LN8@loadLists
$LN9@loadLists:
; Line 2057
	mov	eax, DWORD PTR _lineNext$[ebp]
	add	eax, 1
	mov	DWORD PTR _lineNext$[ebp], eax
; Line 2058
	mov	eax, DWORD PTR _lineNext$[ebp]
	movsx	ecx, BYTE PTR [eax]
	test	ecx, ecx
	je	$LN8@loadLists
; Line 2059
	mov	eax, DWORD PTR _lineNext$[ebp]
	movsx	ecx, BYTE PTR [eax]
	cmp	ecx, 32					; 00000020H
	je	$LN6@loadLists
; Line 2061
	mov	eax, DWORD PTR _lineNext$[ebp]
	movsx	ecx, BYTE PTR [eax]
	test	ecx, ecx
	je	SHORT $LN33@loadLists
	mov	edx, DWORD PTR _lineNext$[ebp]
	mov	al, BYTE PTR [edx]
	mov	BYTE PTR tv176[ebp], al
	jmp	SHORT $LN34@loadLists
$LN33@loadLists:
	mov	BYTE PTR tv176[ebp], 48			; 00000030H
$LN34@loadLists:
	movsx	ecx, BYTE PTR tv176[ebp]
	mov	esi, esp
	push	ecx
	mov	edx, DWORD PTR _lineNext$[ebp]
	lea	eax, DWORD PTR _line$[ebp]
	sub	edx, eax
	push	edx
	mov	ecx, DWORD PTR _ln$[ebp]
	push	ecx
	mov	edx, DWORD PTR _l$[ebp]
	mov	eax, DWORD PTR [edx]
	push	eax
	push	OFFSET ??_C@_0EF@KKAOIKDN@?$CFs?3?$CFd?5?9?5malformed?5quoted?5line?5at@
	mov	edi, esp
	call	DWORD PTR __imp____iob_func
	cmp	edi, esp
	call	__RTC_CheckEsp
	add	eax, 64					; 00000040H
	push	eax
	call	DWORD PTR __imp__fprintf
	add	esp, 24					; 00000018H
	cmp	esi, esp
	call	__RTC_CheckEsp
; Line 2062
	mov	esi, esp
	push	1
	call	DWORD PTR __imp__exit
	cmp	esi, esp
	call	__RTC_CheckEsp
$LN6@loadLists:
; Line 2064
	mov	eax, DWORD PTR _lineNext$[ebp]
	mov	BYTE PTR [eax], 0
; Line 2065
	mov	eax, DWORD PTR _lineNext$[ebp]
	add	eax, 1
	mov	DWORD PTR _lineNext$[ebp], eax
$LN8@loadLists:
; Line 2068
	jmp	SHORT $LN5@loadLists
$LN10@loadLists:
; Line 2069
	push	32					; 00000020H
	mov	eax, DWORD PTR _linePtr$[ebp]
	push	eax
	call	?strchr@@YAPADPADH@Z			; strchr
	add	esp, 8
	mov	DWORD PTR _lineNext$[ebp], eax
; Line 2070
	cmp	DWORD PTR _lineNext$[ebp], 0
	je	SHORT $LN5@loadLists
; Line 2071
	mov	eax, DWORD PTR _lineNext$[ebp]
	mov	BYTE PTR [eax], 0
; Line 2072
	mov	eax, DWORD PTR _lineNext$[ebp]
	add	eax, 1
	mov	DWORD PTR _lineNext$[ebp], eax
$LN5@loadLists:
; Line 2077
	mov	eax, DWORD PTR _linePtr$[ebp]
	push	eax
	call	_getLongPathname
	add	esp, 4
	mov	DWORD PTR _s$[ebp], eax
; Line 2080
	mov	eax, DWORD PTR _linePtr$[ebp]
	push	eax
	call	_uprv_strdup_56
	add	esp, 4
	push	eax
	lea	ecx, DWORD PTR _tail$[ebp]
	push	ecx
	mov	edx, DWORD PTR _o$[ebp]
	mov	eax, DWORD PTR [edx+8]
	push	eax
	call	_pkg_appendToList
	add	esp, 12					; 0000000cH
	mov	ecx, DWORD PTR _o$[ebp]
	mov	DWORD PTR [ecx+8], eax
; Line 2081
	mov	eax, DWORD PTR _s$[ebp]
	push	eax
	call	_uprv_pathIsAbsolute_56
	add	esp, 4
	movsx	ecx, al
	test	ecx, ecx
	jne	SHORT $LN2@loadLists
	mov	eax, DWORD PTR _s$[ebp]
	movsx	ecx, BYTE PTR [eax]
	cmp	ecx, 46					; 0000002eH
	jne	SHORT $LN3@loadLists
$LN2@loadLists:
; Line 2082
	mov	esi, esp
	mov	eax, DWORD PTR _s$[ebp]
	push	eax
	push	92					; 0000005cH
	push	OFFSET ??_C@_0JM@OGPADHEG@pkgdata?3?5Error?3?5absolute?5path?5en@
	mov	edi, esp
	call	DWORD PTR __imp____iob_func
	cmp	edi, esp
	call	__RTC_CheckEsp
	add	eax, 64					; 00000040H
	push	eax
	call	DWORD PTR __imp__fprintf
	add	esp, 16					; 00000010H
	cmp	esi, esp
	call	__RTC_CheckEsp
; Line 2083
	mov	esi, esp
	push	1
	call	DWORD PTR __imp__exit
	cmp	esi, esp
	call	__RTC_CheckEsp
$LN3@loadLists:
; Line 2086
	mov	eax, DWORD PTR _o$[ebp]
	mov	ecx, DWORD PTR [eax+40]
	push	ecx
	call	_strlen
	add	esp, 4
	mov	esi, eax
	mov	edx, DWORD PTR _s$[ebp]
	push	edx
	call	_strlen
	add	esp, 4
	lea	eax, DWORD PTR [esi+eax+5]
	mov	DWORD PTR _tmpLength$[ebp], eax
; Line 2087
	mov	eax, DWORD PTR _tmpLength$[ebp]
	push	eax
	call	_uprv_malloc_56
	add	esp, 4
	mov	DWORD PTR _tmp$[ebp], eax
	cmp	DWORD PTR _tmp$[ebp], 0
	jne	SHORT $LN1@loadLists
; Line 2088
	mov	esi, esp
	mov	eax, DWORD PTR _tmpLength$[ebp]
	push	eax
	push	OFFSET ??_C@_0DI@NAANFHLO@pkgdata?3?5Error?3?5Unable?5to?5alloca@
	mov	edi, esp
	call	DWORD PTR __imp____iob_func
	cmp	edi, esp
	call	__RTC_CheckEsp
	add	eax, 64					; 00000040H
	push	eax
	call	DWORD PTR __imp__fprintf
	add	esp, 12					; 0000000cH
	cmp	esi, esp
	call	__RTC_CheckEsp
; Line 2089
	mov	esi, esp
	push	7
	call	DWORD PTR __imp__exit
	cmp	esi, esp
	call	__RTC_CheckEsp
$LN1@loadLists:
; Line 2091
	mov	eax, DWORD PTR _o$[ebp]
	mov	ecx, DWORD PTR [eax+40]
	push	ecx
	mov	edx, DWORD PTR _tmp$[ebp]
	push	edx
	call	_strcpy
	add	esp, 8
; Line 2092
	mov	eax, DWORD PTR _o$[ebp]
	mov	ecx, DWORD PTR [eax+40]
	push	ecx
	call	_strlen
	add	esp, 4
	mov	edx, DWORD PTR _o$[ebp]
	mov	ecx, DWORD PTR [edx+40]
	movsx	edx, BYTE PTR [ecx+eax-1]
	cmp	edx, 92					; 0000005cH
	jne	SHORT $LN35@loadLists
	mov	DWORD PTR tv244[ebp], OFFSET ??_C@_00CNPNBAHC@?$AA@
	jmp	SHORT $LN36@loadLists
$LN35@loadLists:
	mov	DWORD PTR tv244[ebp], OFFSET ??_C@_01KICIPPFI@?2?$AA@
$LN36@loadLists:
	mov	eax, DWORD PTR tv244[ebp]
	push	eax
	mov	ecx, DWORD PTR _tmp$[ebp]
	push	ecx
	call	_strcat
	add	esp, 8
; Line 2093
	mov	eax, DWORD PTR _s$[ebp]
	push	eax
	mov	ecx, DWORD PTR _tmp$[ebp]
	push	ecx
	call	_strcat
	add	esp, 8
; Line 2094
	mov	eax, DWORD PTR _tmp$[ebp]
	push	eax
	lea	ecx, DWORD PTR _tail2$[ebp]
	push	ecx
	mov	edx, DWORD PTR _o$[ebp]
	mov	eax, DWORD PTR [edx+4]
	push	eax
	call	_pkg_appendToList
	add	esp, 12					; 0000000cH
	mov	ecx, DWORD PTR _o$[ebp]
	mov	DWORD PTR [ecx+4], eax
; Line 2095
	mov	eax, DWORD PTR _lineNext$[ebp]
	mov	DWORD PTR _linePtr$[ebp], eax
; Line 2096
	jmp	$LN14@loadLists
$LN13@loadLists:
; Line 2097
	jmp	$LN25@loadLists
$LN24@loadLists:
; Line 2098
	mov	eax, DWORD PTR _in$[ebp]
	push	eax
	call	_T_FileStream_close
	add	esp, 4
; Line 2099
	jmp	$LN29@loadLists
$LN32@loadLists:
; Line 2100
	push	edx
	mov	ecx, ebp
	push	eax
	lea	edx, DWORD PTR $LN42@loadLists
	call	@_RTC_CheckStackVars@8
	pop	eax
	pop	edx
	pop	edi
	pop	esi
	pop	ebx
	mov	ecx, DWORD PTR __$ArrayPad$[ebp]
	xor	ecx, ebp
	call	@__security_check_cookie@4
	add	esp, 16724				; 00004154H
	cmp	ebp, esp
	call	__RTC_CheckEsp
	mov	esp, ebp
	pop	ebp
	ret	0
	npad	1
$LN42@loadLists:
	DD	3
	DD	$LN41@loadLists
$LN41@loadLists:
	DD	-24					; ffffffe8H
	DD	4
	DD	$LN38@loadLists
	DD	-36					; ffffffdcH
	DD	4
	DD	$LN39@loadLists
	DD	-16440					; ffffbfc8H
	DD	16384					; 00004000H
	DD	$LN40@loadLists
$LN40@loadLists:
	DB	108					; 0000006cH
	DB	105					; 00000069H
	DB	110					; 0000006eH
	DB	101					; 00000065H
	DB	0
$LN39@loadLists:
	DB	116					; 00000074H
	DB	97					; 00000061H
	DB	105					; 00000069H
	DB	108					; 0000006cH
	DB	50					; 00000032H
	DB	0
$LN38@loadLists:
	DB	116					; 00000074H
	DB	97					; 00000061H
	DB	105					; 00000069H
	DB	108					; 0000006cH
	DB	0
?loadLists@@YAXPAUUPKGOptions_@@PAW4UErrorCode@@@Z ENDP	; loadLists
_TEXT	ENDS
EXTRN	__imp__strchr:PROC
; Function compile flags: /Odtp /RTCsu /ZI
;	COMDAT ?strchr@@YAPADPADH@Z
_TEXT	SEGMENT
__Str$ = 8						; size = 4
__Ch$ = 12						; size = 4
?strchr@@YAPADPADH@Z PROC				; strchr, COMDAT
; File c:\program files (x86)\microsoft visual studio 10.0\vc\include\string.h
; Line 215
	push	ebp
	mov	ebp, esp
	sub	esp, 192				; 000000c0H
	push	ebx
	push	esi
	push	edi
	lea	edi, DWORD PTR [ebp-192]
	mov	ecx, 48					; 00000030H
	mov	eax, -858993460				; ccccccccH
	rep stosd
	mov	esi, esp
	mov	eax, DWORD PTR __Ch$[ebp]
	push	eax
	mov	ecx, DWORD PTR __Str$[ebp]
	push	ecx
	call	DWORD PTR __imp__strchr
	add	esp, 8
	cmp	esi, esp
	call	__RTC_CheckEsp
	pop	edi
	pop	esi
	pop	ebx
	add	esp, 192				; 000000c0H
	cmp	ebp, esp
	call	__RTC_CheckEsp
	mov	esp, ebp
	pop	ebp
	ret	0
?strchr@@YAPADPADH@Z ENDP				; strchr
; Function compile flags: /Odtp /RTCsu /ZI
_TEXT	ENDS
;	COMDAT ?pkg_createOptMatchArch@@YAXPAD@Z
_TEXT	SEGMENT
_optMatchArch$ = 8					; size = 4
?pkg_createOptMatchArch@@YAXPAD@Z PROC			; pkg_createOptMatchArch, COMDAT
; File d:\mozilla\intl\icu\source\tools\pkgdata\pkgdata.cpp
; Line 2173
	push	ebp
	mov	ebp, esp
	sub	esp, 192				; 000000c0H
	push	ebx
	push	esi
	push	edi
	lea	edi, DWORD PTR [ebp-192]
	mov	ecx, 48					; 00000030H
	mov	eax, -858993460				; ccccccccH
	rep stosd
; Line 2205
	pop	edi
	pop	esi
	pop	ebx
	mov	esp, ebp
	pop	ebp
	ret	0
?pkg_createOptMatchArch@@YAXPAD@Z ENDP			; pkg_createOptMatchArch
_TEXT	ENDS
PUBLIC	??_C@_0CJ@OGOMALKJ@T_FileStream_remove?5failed?5to?5de@ ; `string'
EXTRN	_T_FileStream_remove:PROC
;	COMDAT ??_C@_0CJ@OGOMALKJ@T_FileStream_remove?5failed?5to?5de@
CONST	SEGMENT
??_C@_0CJ@OGOMALKJ@T_FileStream_remove?5failed?5to?5de@ DB 'T_FileStream_'
	DB	'remove failed to delete %s', 0aH, 00H	; `string'
; Function compile flags: /Odtp /RTCsu /ZI
CONST	ENDS
;	COMDAT ?pkg_destroyOptMatchArch@@YAXPAD@Z
_TEXT	SEGMENT
_optMatchArch$ = 8					; size = 4
?pkg_destroyOptMatchArch@@YAXPAD@Z PROC			; pkg_destroyOptMatchArch, COMDAT
; Line 2206
	push	ebp
	mov	ebp, esp
	sub	esp, 192				; 000000c0H
	push	ebx
	push	esi
	push	edi
	lea	edi, DWORD PTR [ebp-192]
	mov	ecx, 48					; 00000030H
	mov	eax, -858993460				; ccccccccH
	rep stosd
; Line 2207
	mov	eax, DWORD PTR _optMatchArch$[ebp]
	push	eax
	call	_T_FileStream_file_exists
	add	esp, 4
	movsx	ecx, al
	test	ecx, ecx
	je	SHORT $LN2@pkg_destro
	mov	eax, DWORD PTR _optMatchArch$[ebp]
	push	eax
	call	_T_FileStream_remove
	add	esp, 4
	movsx	ecx, al
	test	ecx, ecx
	jne	SHORT $LN2@pkg_destro
; Line 2208
	mov	esi, esp
	mov	eax, DWORD PTR _optMatchArch$[ebp]
	push	eax
	push	OFFSET ??_C@_0CJ@OGOMALKJ@T_FileStream_remove?5failed?5to?5de@
	mov	edi, esp
	call	DWORD PTR __imp____iob_func
	cmp	edi, esp
	call	__RTC_CheckEsp
	add	eax, 64					; 00000040H
	push	eax
	call	DWORD PTR __imp__fprintf
	add	esp, 12					; 0000000cH
	cmp	esi, esp
	call	__RTC_CheckEsp
$LN2@pkg_destro:
; Line 2210
	pop	edi
	pop	esi
	pop	ebx
	add	esp, 192				; 000000c0H
	cmp	ebp, esp
	call	__RTC_CheckEsp
	mov	esp, ebp
	pop	ebp
	ret	0
?pkg_destroyOptMatchArch@@YAXPAD@Z ENDP			; pkg_destroyOptMatchArch
_TEXT	ENDS
END
