; Listing generated by Microsoft (R) Optimizing Compiler Version 18.00.40629.0 

	TITLE	D:\mozilla\gfx\2d\DrawEventRecorder.cpp
	.686P
	.XMM
	include listing.inc
	.model	flat

INCLUDELIB MSVCRTD
INCLUDELIB OLDNAMES

CONST	SEGMENT
_kMagicInt DD	0c001feedH
_kMajorRevision DW 04H
	ORG $+2
_kMinorRevision DW 01H
	ORG $+2
$SG4890	DB	'Assertion failure: %s, at %s:%d', 0aH, 00H
	ORG $+3
$SG4896	DB	'Hit MOZ_CRASH(%s) at %s:%d', 0aH, 00H
CONST	ENDS
PUBLIC	??_H@YGXPAXIHP6EPAX0@Z@Z			; `vector constructor iterator'
PUBLIC	_hypot
PUBLIC	??2@YAPAXIPAX@Z					; operator new
PUBLIC	??3@YAXPAX0@Z					; operator delete
PUBLIC	?length@?$char_traits@D@std@@SAIPBD@Z		; std::char_traits<char>::length
PUBLIC	?copy@?$char_traits@D@std@@SAPADPADPBDI@Z	; std::char_traits<char>::copy
PUBLIC	?move@?$char_traits@D@std@@SAPADPADPBDI@Z	; std::char_traits<char>::move
PUBLIC	?assign@?$char_traits@D@std@@SAPADPADID@Z	; std::char_traits<char>::assign
PUBLIC	?assign@?$char_traits@D@std@@SAXAADABD@Z	; std::char_traits<char>::assign
PUBLIC	?eq@?$char_traits@D@std@@SA_NABD0@Z		; std::char_traits<char>::eq
PUBLIC	?to_char_type@?$char_traits@D@std@@SADABH@Z	; std::char_traits<char>::to_char_type
PUBLIC	?to_int_type@?$char_traits@D@std@@SAHABD@Z	; std::char_traits<char>::to_int_type
PUBLIC	?eq_int_type@?$char_traits@D@std@@SA_NABH0@Z	; std::char_traits<char>::eq_int_type
PUBLIC	?not_eof@?$char_traits@D@std@@SAHABH@Z		; std::char_traits<char>::not_eof
PUBLIC	?eof@?$char_traits@D@std@@SAHXZ			; std::char_traits<char>::eof
PUBLIC	?_Adopt@_Iterator_base0@std@@QAEXPBX@Z		; std::_Iterator_base0::_Adopt
PUBLIC	??0_Container_proxy@std@@QAE@XZ			; std::_Container_proxy::_Container_proxy
PUBLIC	??0_Iterator_base12@std@@QAE@XZ			; std::_Iterator_base12::_Iterator_base12
PUBLIC	??0_Iterator_base12@std@@QAE@ABU01@@Z		; std::_Iterator_base12::_Iterator_base12
PUBLIC	??4_Iterator_base12@std@@QAEAAU01@ABU01@@Z	; std::_Iterator_base12::operator=
PUBLIC	??1_Iterator_base12@std@@QAE@XZ			; std::_Iterator_base12::~_Iterator_base12
PUBLIC	?_Adopt@_Iterator_base12@std@@QAEXPBU_Container_base12@2@@Z ; std::_Iterator_base12::_Adopt
PUBLIC	?_Clrcont@_Iterator_base12@std@@QAEXXZ		; std::_Iterator_base12::_Clrcont
PUBLIC	?_Getcont@_Iterator_base12@std@@QBEPBU_Container_base12@2@XZ ; std::_Iterator_base12::_Getcont
PUBLIC	?_Getpnext@_Iterator_base12@std@@QAEPAPAU12@XZ	; std::_Iterator_base12::_Getpnext
PUBLIC	?_Orphan_me@_Iterator_base12@std@@QAEXXZ	; std::_Iterator_base12::_Orphan_me
PUBLIC	??0?$allocator@D@std@@QAE@XZ			; std::allocator<char>::allocator<char>
PUBLIC	?deallocate@?$allocator@D@std@@QAEXPADI@Z	; std::allocator<char>::deallocate
PUBLIC	?allocate@?$allocator@D@std@@QAEPADI@Z		; std::allocator<char>::allocate
PUBLIC	?max_size@?$allocator@D@std@@QBEIXZ		; std::allocator<char>::max_size
PUBLIC	?max_size@?$allocator_traits@V?$allocator@D@std@@@std@@SAIABV?$allocator@D@2@@Z ; std::allocator_traits<std::allocator<char> >::max_size
PUBLIC	??0?$_Wrap_alloc@V?$allocator@D@std@@@std@@QAE@XZ ; std::_Wrap_alloc<std::allocator<char> >::_Wrap_alloc<std::allocator<char> >
PUBLIC	?allocate@?$_Wrap_alloc@V?$allocator@D@std@@@std@@QAEPADI@Z ; std::_Wrap_alloc<std::allocator<char> >::allocate
PUBLIC	?deallocate@?$_Wrap_alloc@V?$allocator@D@std@@@std@@QAEXPADI@Z ; std::_Wrap_alloc<std::allocator<char> >::deallocate
PUBLIC	?max_size@?$_Wrap_alloc@V?$allocator@D@std@@@std@@QBEIXZ ; std::_Wrap_alloc<std::allocator<char> >::max_size
PUBLIC	??0?$_String_val@U?$_Simple_types@D@std@@@std@@QAE@XZ ; std::_String_val<std::_Simple_types<char> >::_String_val<std::_Simple_types<char> >
PUBLIC	?_Myptr@?$_String_val@U?$_Simple_types@D@std@@@std@@QAEPADXZ ; std::_String_val<std::_Simple_types<char> >::_Myptr
PUBLIC	?_Myptr@?$_String_val@U?$_Simple_types@D@std@@@std@@QBEPBDXZ ; std::_String_val<std::_Simple_types<char> >::_Myptr
PUBLIC	??1?$_String_val@U?$_Simple_types@D@std@@@std@@QAE@XZ ; std::_String_val<std::_Simple_types<char> >::~_String_val<std::_Simple_types<char> >
PUBLIC	??0?$_String_alloc@$0A@U?$_String_base_types@DV?$allocator@D@std@@@std@@@std@@QAE@ABV?$allocator@D@1@@Z ; std::_String_alloc<0,std::_String_base_types<char,std::allocator<char> > >::_String_alloc<0,std::_String_base_types<char,std::allocator<char> > >
PUBLIC	??1?$_String_alloc@$0A@U?$_String_base_types@DV?$allocator@D@std@@@std@@@std@@QAE@XZ ; std::_String_alloc<0,std::_String_base_types<char,std::allocator<char> > >::~_String_alloc<0,std::_String_base_types<char,std::allocator<char> > >
PUBLIC	?_Alloc_proxy@?$_String_alloc@$0A@U?$_String_base_types@DV?$allocator@D@std@@@std@@@std@@QAEXXZ ; std::_String_alloc<0,std::_String_base_types<char,std::allocator<char> > >::_Alloc_proxy
PUBLIC	?_Free_proxy@?$_String_alloc@$0A@U?$_String_base_types@DV?$allocator@D@std@@@std@@@std@@QAEXXZ ; std::_String_alloc<0,std::_String_base_types<char,std::allocator<char> > >::_Free_proxy
PUBLIC	?_Getal@?$_String_alloc@$0A@U?$_String_base_types@DV?$allocator@D@std@@@std@@@std@@QBE?AU?$_Wrap_alloc@V?$allocator@D@std@@@2@XZ ; std::_String_alloc<0,std::_String_base_types<char,std::allocator<char> > >::_Getal
PUBLIC	??0?$basic_string@DU?$char_traits@D@std@@V?$allocator@D@2@@std@@QAE@XZ ; std::basic_string<char,std::char_traits<char>,std::allocator<char> >::basic_string<char,std::char_traits<char>,std::allocator<char> >
PUBLIC	??0?$basic_string@DU?$char_traits@D@std@@V?$allocator@D@2@@std@@QAE@PBD@Z ; std::basic_string<char,std::char_traits<char>,std::allocator<char> >::basic_string<char,std::char_traits<char>,std::allocator<char> >
PUBLIC	??0?$basic_string@DU?$char_traits@D@std@@V?$allocator@D@2@@std@@QAE@ID@Z ; std::basic_string<char,std::char_traits<char>,std::allocator<char> >::basic_string<char,std::char_traits<char>,std::allocator<char> >
PUBLIC	??1?$basic_string@DU?$char_traits@D@std@@V?$allocator@D@2@@std@@QAE@XZ ; std::basic_string<char,std::char_traits<char>,std::allocator<char> >::~basic_string<char,std::char_traits<char>,std::allocator<char> >
PUBLIC	?append@?$basic_string@DU?$char_traits@D@std@@V?$allocator@D@2@@std@@QAEAAV12@ID@Z ; std::basic_string<char,std::char_traits<char>,std::allocator<char> >::append
PUBLIC	?assign@?$basic_string@DU?$char_traits@D@std@@V?$allocator@D@2@@std@@QAEAAV12@ABV12@II@Z ; std::basic_string<char,std::char_traits<char>,std::allocator<char> >::assign
PUBLIC	?assign@?$basic_string@DU?$char_traits@D@std@@V?$allocator@D@2@@std@@QAEAAV12@PBDI@Z ; std::basic_string<char,std::char_traits<char>,std::allocator<char> >::assign
PUBLIC	?assign@?$basic_string@DU?$char_traits@D@std@@V?$allocator@D@2@@std@@QAEAAV12@PBD@Z ; std::basic_string<char,std::char_traits<char>,std::allocator<char> >::assign
PUBLIC	?assign@?$basic_string@DU?$char_traits@D@std@@V?$allocator@D@2@@std@@QAEAAV12@ID@Z ; std::basic_string<char,std::char_traits<char>,std::allocator<char> >::assign
PUBLIC	?erase@?$basic_string@DU?$char_traits@D@std@@V?$allocator@D@2@@std@@QAEAAV12@I@Z ; std::basic_string<char,std::char_traits<char>,std::allocator<char> >::erase
PUBLIC	?erase@?$basic_string@DU?$char_traits@D@std@@V?$allocator@D@2@@std@@QAEAAV12@II@Z ; std::basic_string<char,std::char_traits<char>,std::allocator<char> >::erase
PUBLIC	?begin@?$basic_string@DU?$char_traits@D@std@@V?$allocator@D@2@@std@@QAE?AV?$_String_iterator@V?$_String_val@U?$_Simple_types@D@std@@@std@@@2@XZ ; std::basic_string<char,std::char_traits<char>,std::allocator<char> >::begin
PUBLIC	?c_str@?$basic_string@DU?$char_traits@D@std@@V?$allocator@D@2@@std@@QBEPBDXZ ; std::basic_string<char,std::char_traits<char>,std::allocator<char> >::c_str
PUBLIC	?size@?$basic_string@DU?$char_traits@D@std@@V?$allocator@D@2@@std@@QBEIXZ ; std::basic_string<char,std::char_traits<char>,std::allocator<char> >::size
PUBLIC	?max_size@?$basic_string@DU?$char_traits@D@std@@V?$allocator@D@2@@std@@QBEIXZ ; std::basic_string<char,std::char_traits<char>,std::allocator<char> >::max_size
PUBLIC	?_Chassign@?$basic_string@DU?$char_traits@D@std@@V?$allocator@D@2@@std@@QAEXIID@Z ; std::basic_string<char,std::char_traits<char>,std::allocator<char> >::_Chassign
PUBLIC	?_Copy@?$basic_string@DU?$char_traits@D@std@@V?$allocator@D@2@@std@@QAEXII@Z ; std::basic_string<char,std::char_traits<char>,std::allocator<char> >::_Copy
PUBLIC	?_Eos@?$basic_string@DU?$char_traits@D@std@@V?$allocator@D@2@@std@@QAEXI@Z ; std::basic_string<char,std::char_traits<char>,std::allocator<char> >::_Eos
PUBLIC	?_Grow@?$basic_string@DU?$char_traits@D@std@@V?$allocator@D@2@@std@@QAE_NI_N@Z ; std::basic_string<char,std::char_traits<char>,std::allocator<char> >::_Grow
PUBLIC	?_Inside@?$basic_string@DU?$char_traits@D@std@@V?$allocator@D@2@@std@@QAE_NPBD@Z ; std::basic_string<char,std::char_traits<char>,std::allocator<char> >::_Inside
PUBLIC	?_Tidy@?$basic_string@DU?$char_traits@D@std@@V?$allocator@D@2@@std@@QAEX_NI@Z ; std::basic_string<char,std::char_traits<char>,std::allocator<char> >::_Tidy
PUBLIC	?_Xlen@?$basic_string@DU?$char_traits@D@std@@V?$allocator@D@2@@std@@QBEXXZ ; std::basic_string<char,std::char_traits<char>,std::allocator<char> >::_Xlen
PUBLIC	?_Xran@?$basic_string@DU?$char_traits@D@std@@V?$allocator@D@2@@std@@QBEXXZ ; std::basic_string<char,std::char_traits<char>,std::allocator<char> >::_Xran
PUBLIC	??1locale@std@@QAE@XZ				; std::locale::~locale
PUBLIC	?_Getfacet@locale@std@@QBEPBVfacet@12@I@Z	; std::locale::_Getfacet
PUBLIC	??$_DebugHeapDelete@V_Facet_base@std@@@std@@YAXPAV_Facet_base@0@@Z ; std::_DebugHeapDelete<std::_Facet_base>
PUBLIC	??$_Debug_pointer@D@std@@YAXPBDPB_WI@Z		; std::_Debug_pointer<char>
PUBLIC	?generic_category@std@@YAABVerror_category@1@XZ	; std::generic_category
PUBLIC	?system_category@std@@YAABVerror_category@1@XZ	; std::system_category
PUBLIC	??0error_category@std@@QAE@XZ			; std::error_category::error_category
PUBLIC	??1error_category@std@@UAE@XZ			; std::error_category::~error_category
PUBLIC	?default_error_condition@error_category@std@@UBE?AVerror_condition@2@H@Z ; std::error_category::default_error_condition
PUBLIC	?equivalent@error_category@std@@UBE_NHABVerror_condition@2@@Z ; std::error_category::equivalent
PUBLIC	?equivalent@error_category@std@@UBE_NABVerror_code@2@H@Z ; std::error_category::equivalent
PUBLIC	??8error_category@std@@QBE_NABV01@@Z		; std::error_category::operator==
PUBLIC	??_Gerror_category@std@@UAEPAXI@Z		; std::error_category::`scalar deleting destructor'
PUBLIC	?value@error_code@std@@QBEHXZ			; std::error_code::value
PUBLIC	?category@error_code@std@@QBEABVerror_category@2@XZ ; std::error_code::category
PUBLIC	??0error_condition@std@@QAE@HABVerror_category@1@@Z ; std::error_condition::error_condition
PUBLIC	?value@error_condition@std@@QBEHXZ		; std::error_condition::value
PUBLIC	?category@error_condition@std@@QBEABVerror_category@2@XZ ; std::error_condition::category
PUBLIC	??8error_condition@std@@QBE_NABV01@@Z		; std::error_condition::operator==
PUBLIC	??0_Generic_error_category@std@@QAE@XZ		; std::_Generic_error_category::_Generic_error_category
PUBLIC	?name@_Generic_error_category@std@@UBEPBDXZ	; std::_Generic_error_category::name
PUBLIC	?message@_Generic_error_category@std@@UBE?AV?$basic_string@DU?$char_traits@D@std@@V?$allocator@D@2@@2@H@Z ; std::_Generic_error_category::message
PUBLIC	??1_Generic_error_category@std@@UAE@XZ		; std::_Generic_error_category::~_Generic_error_category
PUBLIC	??_G_Generic_error_category@std@@UAEPAXI@Z	; std::_Generic_error_category::`scalar deleting destructor'
PUBLIC	??0_Iostream_error_category@std@@QAE@XZ		; std::_Iostream_error_category::_Iostream_error_category
PUBLIC	?name@_Iostream_error_category@std@@UBEPBDXZ	; std::_Iostream_error_category::name
PUBLIC	?message@_Iostream_error_category@std@@UBE?AV?$basic_string@DU?$char_traits@D@std@@V?$allocator@D@2@@2@H@Z ; std::_Iostream_error_category::message
PUBLIC	??1_Iostream_error_category@std@@UAE@XZ		; std::_Iostream_error_category::~_Iostream_error_category
PUBLIC	??_G_Iostream_error_category@std@@UAEPAXI@Z	; std::_Iostream_error_category::`scalar deleting destructor'
PUBLIC	??0_System_error_category@std@@QAE@XZ		; std::_System_error_category::_System_error_category
PUBLIC	?name@_System_error_category@std@@UBEPBDXZ	; std::_System_error_category::name
PUBLIC	?message@_System_error_category@std@@UBE?AV?$basic_string@DU?$char_traits@D@std@@V?$allocator@D@2@@2@H@Z ; std::_System_error_category::message
PUBLIC	?default_error_condition@_System_error_category@std@@UBE?AVerror_condition@2@H@Z ; std::_System_error_category::default_error_condition
PUBLIC	??1_System_error_category@std@@UAE@XZ		; std::_System_error_category::~_System_error_category
PUBLIC	??_G_System_error_category@std@@UAEPAXI@Z	; std::_System_error_category::`scalar deleting destructor'
PUBLIC	??0?$RefCounted@VDrawEventRecorder@gfx@mozilla@@$00@detail@mozilla@@IAE@XZ ; mozilla::detail::RefCounted<mozilla::gfx::DrawEventRecorder,1>::RefCounted<mozilla::gfx::DrawEventRecorder,1>
PUBLIC	??1?$RefCounted@VDrawEventRecorder@gfx@mozilla@@$00@detail@mozilla@@IAE@XZ ; mozilla::detail::RefCounted<mozilla::gfx::DrawEventRecorder,1>::~RefCounted<mozilla::gfx::DrawEventRecorder,1>
PUBLIC	??1?$RefCounted@VDrawEventRecorder@gfx@mozilla@@@mozilla@@QAE@XZ ; mozilla::RefCounted<mozilla::gfx::DrawEventRecorder>::~RefCounted<mozilla::gfx::DrawEventRecorder>
PUBLIC	??0?$RefCounted@VDrawEventRecorder@gfx@mozilla@@@mozilla@@QAE@XZ ; mozilla::RefCounted<mozilla::gfx::DrawEventRecorder>::RefCounted<mozilla::gfx::DrawEventRecorder>
PUBLIC	??1DrawEventRecorder@gfx@mozilla@@UAE@XZ	; mozilla::gfx::DrawEventRecorder::~DrawEventRecorder
PUBLIC	??0DrawEventRecorder@gfx@mozilla@@QAE@XZ	; mozilla::gfx::DrawEventRecorder::DrawEventRecorder
PUBLIC	??_GDrawEventRecorder@gfx@mozilla@@UAEPAXI@Z	; mozilla::gfx::DrawEventRecorder::`scalar deleting destructor'
PUBLIC	??0?$basic_stringstream@DU?$char_traits@D@std@@V?$allocator@D@2@@std@@QAE@H@Z ; std::basic_stringstream<char,std::char_traits<char>,std::allocator<char> >::basic_stringstream<char,std::char_traits<char>,std::allocator<char> >
PUBLIC	??1?$basic_stringstream@DU?$char_traits@D@std@@V?$allocator@D@2@@std@@UAE@XZ ; std::basic_stringstream<char,std::char_traits<char>,std::allocator<char> >::~basic_stringstream<char,std::char_traits<char>,std::allocator<char> >
PUBLIC	?str@?$basic_stringstream@DU?$char_traits@D@std@@V?$allocator@D@2@@std@@QAEXABV?$basic_string@DU?$char_traits@D@std@@V?$allocator@D@2@@2@@Z ; std::basic_stringstream<char,std::char_traits<char>,std::allocator<char> >::str
PUBLIC	??0?$basic_stringbuf@DU?$char_traits@D@std@@V?$allocator@D@2@@std@@QAE@H@Z ; std::basic_stringbuf<char,std::char_traits<char>,std::allocator<char> >::basic_stringbuf<char,std::char_traits<char>,std::allocator<char> >
PUBLIC	??1?$basic_stringbuf@DU?$char_traits@D@std@@V?$allocator@D@2@@std@@UAE@XZ ; std::basic_stringbuf<char,std::char_traits<char>,std::allocator<char> >::~basic_stringbuf<char,std::char_traits<char>,std::allocator<char> >
PUBLIC	?str@?$basic_stringbuf@DU?$char_traits@D@std@@V?$allocator@D@2@@std@@QAEXABV?$basic_string@DU?$char_traits@D@std@@V?$allocator@D@2@@2@@Z ; std::basic_stringbuf<char,std::char_traits<char>,std::allocator<char> >::str
PUBLIC	?overflow@?$basic_stringbuf@DU?$char_traits@D@std@@V?$allocator@D@2@@std@@MAEHH@Z ; std::basic_stringbuf<char,std::char_traits<char>,std::allocator<char> >::overflow
PUBLIC	?pbackfail@?$basic_stringbuf@DU?$char_traits@D@std@@V?$allocator@D@2@@std@@MAEHH@Z ; std::basic_stringbuf<char,std::char_traits<char>,std::allocator<char> >::pbackfail
PUBLIC	?underflow@?$basic_stringbuf@DU?$char_traits@D@std@@V?$allocator@D@2@@std@@MAEHXZ ; std::basic_stringbuf<char,std::char_traits<char>,std::allocator<char> >::underflow
PUBLIC	?seekoff@?$basic_stringbuf@DU?$char_traits@D@std@@V?$allocator@D@2@@std@@MAE?AV?$fpos@H@2@_JHH@Z ; std::basic_stringbuf<char,std::char_traits<char>,std::allocator<char> >::seekoff
PUBLIC	?seekpos@?$basic_stringbuf@DU?$char_traits@D@std@@V?$allocator@D@2@@std@@MAE?AV?$fpos@H@2@V32@H@Z ; std::basic_stringbuf<char,std::char_traits<char>,std::allocator<char> >::seekpos
PUBLIC	?_Init@?$basic_stringbuf@DU?$char_traits@D@std@@V?$allocator@D@2@@std@@IAEXPBDIH@Z ; std::basic_stringbuf<char,std::char_traits<char>,std::allocator<char> >::_Init
PUBLIC	?_Tidy@?$basic_stringbuf@DU?$char_traits@D@std@@V?$allocator@D@2@@std@@IAEXXZ ; std::basic_stringbuf<char,std::char_traits<char>,std::allocator<char> >::_Tidy
PUBLIC	?_Getstate@?$basic_stringbuf@DU?$char_traits@D@std@@V?$allocator@D@2@@std@@AAEHH@Z ; std::basic_stringbuf<char,std::char_traits<char>,std::allocator<char> >::_Getstate
PUBLIC	??_G?$basic_stringbuf@DU?$char_traits@D@std@@V?$allocator@D@2@@std@@UAEPAXI@Z ; std::basic_stringbuf<char,std::char_traits<char>,std::allocator<char> >::`scalar deleting destructor'
PUBLIC	??_G?$basic_stringstream@DU?$char_traits@D@std@@V?$allocator@D@2@@std@@UAEPAXI@Z ; std::basic_stringstream<char,std::char_traits<char>,std::allocator<char> >::`scalar deleting destructor'
PUBLIC	??_D?$basic_stringstream@DU?$char_traits@D@std@@V?$allocator@D@2@@std@@QAEXXZ ; std::basic_stringstream<char,std::char_traits<char>,std::allocator<char> >::`vbase destructor'
PUBLIC	??$_Fgetc@D@std@@YA_NAADPAU_iobuf@@@Z		; std::_Fgetc<char>
PUBLIC	??$_Fputc@D@std@@YA_NDPAU_iobuf@@@Z		; std::_Fputc<char>
PUBLIC	??$_Ungetc@D@std@@YA_NABDPAU_iobuf@@@Z		; std::_Ungetc<char>
PUBLIC	??0DrawEventRecorderPrivate@gfx@mozilla@@QAE@PAV?$basic_ostream@DU?$char_traits@D@std@@@std@@@Z ; mozilla::gfx::DrawEventRecorderPrivate::DrawEventRecorderPrivate
PUBLIC	??1DrawEventRecorderPrivate@gfx@mozilla@@UAE@XZ	; mozilla::gfx::DrawEventRecorderPrivate::~DrawEventRecorderPrivate
PUBLIC	?WriteHeader@DrawEventRecorderPrivate@gfx@mozilla@@QAEXXZ ; mozilla::gfx::DrawEventRecorderPrivate::WriteHeader
PUBLIC	?RecordEvent@DrawEventRecorderPrivate@gfx@mozilla@@QAEXABVRecordedEvent@23@@Z ; mozilla::gfx::DrawEventRecorderPrivate::RecordEvent
PUBLIC	??0?$_Hash_oper1@$0A@U?$hash@PBX@std@@@std@@QAE@U?$hash@PBX@1@@Z ; std::_Hash_oper1<0,std::hash<void const *> >::_Hash_oper1<0,std::hash<void const *> >
PUBLIC	??0?$_Hash_oper2@$0A@U?$hash@PBX@std@@U?$equal_to@PBX@2@@std@@QAE@U?$hash@PBX@1@U?$equal_to@PBX@1@@Z ; std::_Hash_oper2<0,std::hash<void const *>,std::equal_to<void const *> >::_Hash_oper2<0,std::hash<void const *>,std::equal_to<void const *> >
PUBLIC	??0?$_Uhash_compare@PBXU?$hash@PBX@std@@U?$equal_to@PBX@2@@std@@QAE@U?$hash@PBX@1@U?$equal_to@PBX@1@@Z ; std::_Uhash_compare<void const *,std::hash<void const *>,std::equal_to<void const *> >::_Uhash_compare<void const *,std::hash<void const *>,std::equal_to<void const *> >
PUBLIC	??0?$_Uset_traits@PBXV?$_Uhash_compare@PBXU?$hash@PBX@std@@U?$equal_to@PBX@2@@std@@V?$allocator@PBX@2@$0A@@std@@QAE@ABV?$_Uhash_compare@PBXU?$hash@PBX@std@@U?$equal_to@PBX@2@@1@@Z ; std::_Uset_traits<void const *,std::_Uhash_compare<void const *,std::hash<void const *>,std::equal_to<void const *> >,std::allocator<void const *>,0>::_Uset_traits<void const *,std::_Uhash_compare<void const *,std::hash<void const *>,std::equal_to<void const *> >,std::allocator<void const *>,0>
PUBLIC	??0?$allocator@PBX@std@@QAE@XZ			; std::allocator<void const *>::allocator<void const *>
PUBLIC	??0?$allocator@U?$_List_node@PBXPAX@std@@@std@@QAE@XZ ; std::allocator<std::_List_node<void const *,void *> >::allocator<std::_List_node<void const *,void *> >
PUBLIC	?deallocate@?$allocator@U?$_List_node@PBXPAX@std@@@std@@QAEXPAU?$_List_node@PBXPAX@2@I@Z ; std::allocator<std::_List_node<void const *,void *> >::deallocate
PUBLIC	?allocate@?$allocator@U?$_List_node@PBXPAX@std@@@std@@QAEPAU?$_List_node@PBXPAX@2@I@Z ; std::allocator<std::_List_node<void const *,void *> >::allocate
PUBLIC	??0?$_Wrap_alloc@V?$allocator@U?$_List_node@PBXPAX@std@@@std@@@std@@QAE@XZ ; std::_Wrap_alloc<std::allocator<std::_List_node<void const *,void *> > >::_Wrap_alloc<std::allocator<std::_List_node<void const *,void *> > >
PUBLIC	?allocate@?$_Wrap_alloc@V?$allocator@U?$_List_node@PBXPAX@std@@@std@@@std@@QAEPAU?$_List_node@PBXPAX@2@I@Z ; std::_Wrap_alloc<std::allocator<std::_List_node<void const *,void *> > >::allocate
PUBLIC	?deallocate@?$_Wrap_alloc@V?$allocator@U?$_List_node@PBXPAX@std@@@std@@@std@@QAEXPAU?$_List_node@PBXPAX@2@I@Z ; std::_Wrap_alloc<std::allocator<std::_List_node<void const *,void *> > >::deallocate
PUBLIC	??0?$_List_val@U?$_List_simple_types@PBX@std@@@std@@QAE@XZ ; std::_List_val<std::_List_simple_types<void const *> >::_List_val<std::_List_simple_types<void const *> >
PUBLIC	?_Nextnode@?$_List_val@U?$_List_simple_types@PBX@std@@@std@@SAAAPAU?$_List_node@PBXPAX@2@PAU32@@Z ; std::_List_val<std::_List_simple_types<void const *> >::_Nextnode
PUBLIC	?_Prevnode@?$_List_val@U?$_List_simple_types@PBX@std@@@std@@SAAAPAU?$_List_node@PBXPAX@2@PAU32@@Z ; std::_List_val<std::_List_simple_types<void const *> >::_Prevnode
PUBLIC	?_Myval@?$_List_val@U?$_List_simple_types@PBX@std@@@std@@SAAAPBXPAU?$_List_node@PBXPAX@2@@Z ; std::_List_val<std::_List_simple_types<void const *> >::_Myval
PUBLIC	??1?$_List_val@U?$_List_simple_types@PBX@std@@@std@@QAE@XZ ; std::_List_val<std::_List_simple_types<void const *> >::~_List_val<std::_List_simple_types<void const *> >
PUBLIC	??0?$_List_alloc@$0A@U?$_List_base_types@PBXV?$allocator@PBX@std@@@std@@@std@@QAE@ABV?$allocator@PBX@1@@Z ; std::_List_alloc<0,std::_List_base_types<void const *,std::allocator<void const *> > >::_List_alloc<0,std::_List_base_types<void const *,std::allocator<void const *> > >
PUBLIC	??1?$_List_alloc@$0A@U?$_List_base_types@PBXV?$allocator@PBX@std@@@std@@@std@@QAE@XZ ; std::_List_alloc<0,std::_List_base_types<void const *,std::allocator<void const *> > >::~_List_alloc<0,std::_List_base_types<void const *,std::allocator<void const *> > >
PUBLIC	?_Alloc_proxy@?$_List_alloc@$0A@U?$_List_base_types@PBXV?$allocator@PBX@std@@@std@@@std@@QAEXXZ ; std::_List_alloc<0,std::_List_base_types<void const *,std::allocator<void const *> > >::_Alloc_proxy
PUBLIC	?_Free_proxy@?$_List_alloc@$0A@U?$_List_base_types@PBXV?$allocator@PBX@std@@@std@@@std@@QAEXXZ ; std::_List_alloc<0,std::_List_base_types<void const *,std::allocator<void const *> > >::_Free_proxy
PUBLIC	?_Buyheadnode@?$_List_alloc@$0A@U?$_List_base_types@PBXV?$allocator@PBX@std@@@std@@@std@@QAEPAU?$_List_node@PBXPAX@2@XZ ; std::_List_alloc<0,std::_List_base_types<void const *,std::allocator<void const *> > >::_Buyheadnode
PUBLIC	?_Freeheadnode@?$_List_alloc@$0A@U?$_List_base_types@PBXV?$allocator@PBX@std@@@std@@@std@@QAEXPAU?$_List_node@PBXPAX@2@@Z ; std::_List_alloc<0,std::_List_base_types<void const *,std::allocator<void const *> > >::_Freeheadnode
PUBLIC	?_Buynode0@?$_List_alloc@$0A@U?$_List_base_types@PBXV?$allocator@PBX@std@@@std@@@std@@QAEPAU?$_List_node@PBXPAX@2@PAU32@0@Z ; std::_List_alloc<0,std::_List_base_types<void const *,std::allocator<void const *> > >::_Buynode0
PUBLIC	?_Getal@?$_List_alloc@$0A@U?$_List_base_types@PBXV?$allocator@PBX@std@@@std@@@std@@QBE?AU?$_Wrap_alloc@V?$allocator@U?$_List_node@PBXPAX@std@@@std@@@2@XZ ; std::_List_alloc<0,std::_List_base_types<void const *,std::allocator<void const *> > >::_Getal
PUBLIC	??0?$_List_buy@PBXV?$allocator@PBX@std@@@std@@QAE@ABV?$allocator@PBX@1@@Z ; std::_List_buy<void const *,std::allocator<void const *> >::_List_buy<void const *,std::allocator<void const *> >
PUBLIC	?_Freenode@?$_List_buy@PBXV?$allocator@PBX@std@@@std@@QAEXPAU?$_List_node@PBXPAX@2@@Z ; std::_List_buy<void const *,std::allocator<void const *> >::_Freenode
PUBLIC	??1?$_List_buy@PBXV?$allocator@PBX@std@@@std@@QAE@XZ ; std::_List_buy<void const *,std::allocator<void const *> >::~_List_buy<void const *,std::allocator<void const *> >
PUBLIC	??0?$list@PBXV?$allocator@PBX@std@@@std@@QAE@ABV?$allocator@PBX@1@@Z ; std::list<void const *,std::allocator<void const *> >::list<void const *,std::allocator<void const *> >
PUBLIC	??1?$list@PBXV?$allocator@PBX@std@@@std@@QAE@XZ	; std::list<void const *,std::allocator<void const *> >::~list<void const *,std::allocator<void const *> >
PUBLIC	?_Unchecked_end@?$list@PBXV?$allocator@PBX@std@@@std@@QAE?AV?$_List_unchecked_iterator@V?$_List_val@U?$_List_simple_types@PBX@std@@@std@@@2@XZ ; std::list<void const *,std::allocator<void const *> >::_Unchecked_end
PUBLIC	?clear@?$list@PBXV?$allocator@PBX@std@@@std@@QAEXXZ ; std::list<void const *,std::allocator<void const *> >::clear
PUBLIC	?_Tidy@?$list@PBXV?$allocator@PBX@std@@@std@@QAEXXZ ; std::list<void const *,std::allocator<void const *> >::_Tidy
PUBLIC	?_Orphan_ptr@?$list@PBXV?$allocator@PBX@std@@@std@@QBEXAAV12@PAU?$_List_node@PBXPAX@2@@Z ; std::list<void const *,std::allocator<void const *> >::_Orphan_ptr
PUBLIC	??0?$_Hash@V?$_Uset_traits@PBXV?$_Uhash_compare@PBXU?$hash@PBX@std@@U?$equal_to@PBX@2@@std@@V?$allocator@PBX@2@$0A@@std@@@std@@QAE@ABV?$_Uhash_compare@PBXU?$hash@PBX@std@@U?$equal_to@PBX@2@@1@ABV?$allocator@PBX@1@@Z ; std::_Hash<std::_Uset_traits<void const *,std::_Uhash_compare<void const *,std::hash<void const *>,std::equal_to<void const *> >,std::allocator<void const *>,0> >::_Hash<std::_Uset_traits<void const *,std::_Uhash_compare<void const *,std::hash<void const *>,std::equal_to<void const *> >,std::allocator<void const *>,0> >
PUBLIC	??1?$_Hash@V?$_Uset_traits@PBXV?$_Uhash_compare@PBXU?$hash@PBX@std@@U?$equal_to@PBX@2@@std@@V?$allocator@PBX@2@$0A@@std@@@std@@QAE@XZ ; std::_Hash<std::_Uset_traits<void const *,std::_Uhash_compare<void const *,std::hash<void const *>,std::equal_to<void const *> >,std::allocator<void const *>,0> >::~_Hash<std::_Uset_traits<void const *,std::_Uhash_compare<void const *,std::hash<void const *>,std::equal_to<void const *> >,std::allocator<void const *>,0> >
PUBLIC	?_Unchecked_end@?$_Hash@V?$_Uset_traits@PBXV?$_Uhash_compare@PBXU?$hash@PBX@std@@U?$equal_to@PBX@2@@std@@V?$allocator@PBX@2@$0A@@std@@@std@@QAE?AV?$_List_unchecked_const_iterator@V?$_List_val@U?$_List_simple_types@PBX@std@@@std@@U_Iterator_base0@2@@2@XZ ; std::_Hash<std::_Uset_traits<void const *,std::_Uhash_compare<void const *,std::hash<void const *>,std::equal_to<void const *> >,std::allocator<void const *>,0> >::_Unchecked_end
PUBLIC	?_Init@?$_Hash@V?$_Uset_traits@PBXV?$_Uhash_compare@PBXU?$hash@PBX@std@@U?$equal_to@PBX@2@@std@@V?$allocator@PBX@2@$0A@@std@@@std@@IAEXI@Z ; std::_Hash<std::_Uset_traits<void const *,std::_Uhash_compare<void const *,std::hash<void const *>,std::equal_to<void const *> >,std::allocator<void const *>,0> >::_Init
PUBLIC	??0?$allocator@V?$_List_unchecked_const_iterator@V?$_List_val@U?$_List_simple_types@PBX@std@@@std@@U_Iterator_base0@2@@std@@@std@@QAE@XZ ; std::allocator<std::_List_unchecked_const_iterator<std::_List_val<std::_List_simple_types<void const *> >,std::_Iterator_base0> >::allocator<std::_List_unchecked_const_iterator<std::_List_val<std::_List_simple_types<void const *> >,std::_Iterator_base0> >
PUBLIC	?deallocate@?$allocator@V?$_List_unchecked_const_iterator@V?$_List_val@U?$_List_simple_types@PBX@std@@@std@@U_Iterator_base0@2@@std@@@std@@QAEXPAV?$_List_unchecked_const_iterator@V?$_List_val@U?$_List_simple_types@PBX@std@@@std@@U_Iterator_base0@2@@2@I@Z ; std::allocator<std::_List_unchecked_const_iterator<std::_List_val<std::_List_simple_types<void const *> >,std::_Iterator_base0> >::deallocate
PUBLIC	?allocate@?$allocator@V?$_List_unchecked_const_iterator@V?$_List_val@U?$_List_simple_types@PBX@std@@@std@@U_Iterator_base0@2@@std@@@std@@QAEPAV?$_List_unchecked_const_iterator@V?$_List_val@U?$_List_simple_types@PBX@std@@@std@@U_Iterator_base0@2@@2@I@Z ; std::allocator<std::_List_unchecked_const_iterator<std::_List_val<std::_List_simple_types<void const *> >,std::_Iterator_base0> >::allocate
PUBLIC	?construct@?$allocator@V?$_List_unchecked_const_iterator@V?$_List_val@U?$_List_simple_types@PBX@std@@@std@@U_Iterator_base0@2@@std@@@std@@QAEXPAV?$_List_unchecked_const_iterator@V?$_List_val@U?$_List_simple_types@PBX@std@@@std@@U_Iterator_base0@2@@2@ABV32@@Z ; std::allocator<std::_List_unchecked_const_iterator<std::_List_val<std::_List_simple_types<void const *> >,std::_Iterator_base0> >::construct
PUBLIC	?max_size@?$allocator@V?$_List_unchecked_const_iterator@V?$_List_val@U?$_List_simple_types@PBX@std@@@std@@U_Iterator_base0@2@@std@@@std@@QBEIXZ ; std::allocator<std::_List_unchecked_const_iterator<std::_List_val<std::_List_simple_types<void const *> >,std::_Iterator_base0> >::max_size
PUBLIC	?max_size@?$allocator_traits@V?$allocator@V?$_List_unchecked_const_iterator@V?$_List_val@U?$_List_simple_types@PBX@std@@@std@@U_Iterator_base0@2@@std@@@std@@@std@@SAIABV?$allocator@V?$_List_unchecked_const_iterator@V?$_List_val@U?$_List_simple_types@PBX@std@@@std@@U_Iterator_base0@2@@std@@@2@@Z ; std::allocator_traits<std::allocator<std::_List_unchecked_const_iterator<std::_List_val<std::_List_simple_types<void const *> >,std::_Iterator_base0> > >::max_size
PUBLIC	??0?$_Wrap_alloc@V?$allocator@V?$_List_unchecked_const_iterator@V?$_List_val@U?$_List_simple_types@PBX@std@@@std@@U_Iterator_base0@2@@std@@@std@@@std@@QAE@XZ ; std::_Wrap_alloc<std::allocator<std::_List_unchecked_const_iterator<std::_List_val<std::_List_simple_types<void const *> >,std::_Iterator_base0> > >::_Wrap_alloc<std::allocator<std::_List_unchecked_const_iterator<std::_List_val<std::_List_simple_types<void const *> >,std::_Iterator_base0> > >
PUBLIC	?allocate@?$_Wrap_alloc@V?$allocator@V?$_List_unchecked_const_iterator@V?$_List_val@U?$_List_simple_types@PBX@std@@@std@@U_Iterator_base0@2@@std@@@std@@@std@@QAEPAV?$_List_unchecked_const_iterator@V?$_List_val@U?$_List_simple_types@PBX@std@@@std@@U_Iterator_base0@2@@2@I@Z ; std::_Wrap_alloc<std::allocator<std::_List_unchecked_const_iterator<std::_List_val<std::_List_simple_types<void const *> >,std::_Iterator_base0> > >::allocate
PUBLIC	?deallocate@?$_Wrap_alloc@V?$allocator@V?$_List_unchecked_const_iterator@V?$_List_val@U?$_List_simple_types@PBX@std@@@std@@U_Iterator_base0@2@@std@@@std@@@std@@QAEXPAV?$_List_unchecked_const_iterator@V?$_List_val@U?$_List_simple_types@PBX@std@@@std@@U_Iterator_base0@2@@2@I@Z ; std::_Wrap_alloc<std::allocator<std::_List_unchecked_const_iterator<std::_List_val<std::_List_simple_types<void const *> >,std::_Iterator_base0> > >::deallocate
PUBLIC	?max_size@?$_Wrap_alloc@V?$allocator@V?$_List_unchecked_const_iterator@V?$_List_val@U?$_List_simple_types@PBX@std@@@std@@U_Iterator_base0@2@@std@@@std@@@std@@QBEIXZ ; std::_Wrap_alloc<std::allocator<std::_List_unchecked_const_iterator<std::_List_val<std::_List_simple_types<void const *> >,std::_Iterator_base0> > >::max_size
PUBLIC	?max_size@?$allocator_traits@U?$_Wrap_alloc@V?$allocator@V?$_List_unchecked_const_iterator@V?$_List_val@U?$_List_simple_types@PBX@std@@@std@@U_Iterator_base0@2@@std@@@std@@@std@@@std@@SAIABU?$_Wrap_alloc@V?$allocator@V?$_List_unchecked_const_iterator@V?$_List_val@U?$_List_simple_types@PBX@std@@@std@@U_Iterator_base0@2@@std@@@std@@@2@@Z ; std::allocator_traits<std::_Wrap_alloc<std::allocator<std::_List_unchecked_const_iterator<std::_List_val<std::_List_simple_types<void const *> >,std::_Iterator_base0> > > >::max_size
PUBLIC	??0?$_Wrap_alloc@U?$_Wrap_alloc@V?$allocator@V?$_List_unchecked_const_iterator@V?$_List_val@U?$_List_simple_types@PBX@std@@@std@@U_Iterator_base0@2@@std@@@std@@@std@@@std@@QAE@XZ ; std::_Wrap_alloc<std::_Wrap_alloc<std::allocator<std::_List_unchecked_const_iterator<std::_List_val<std::_List_simple_types<void const *> >,std::_Iterator_base0> > > >::_Wrap_alloc<std::_Wrap_alloc<std::allocator<std::_List_unchecked_const_iterator<std::_List_val<std::_List_simple_types<void const *> >,std::_Iterator_base0> > > >
PUBLIC	?allocate@?$_Wrap_alloc@U?$_Wrap_alloc@V?$allocator@V?$_List_unchecked_const_iterator@V?$_List_val@U?$_List_simple_types@PBX@std@@@std@@U_Iterator_base0@2@@std@@@std@@@std@@@std@@QAEPAV?$_List_unchecked_const_iterator@V?$_List_val@U?$_List_simple_types@PBX@std@@@std@@U_Iterator_base0@2@@2@I@Z ; std::_Wrap_alloc<std::_Wrap_alloc<std::allocator<std::_List_unchecked_const_iterator<std::_List_val<std::_List_simple_types<void const *> >,std::_Iterator_base0> > > >::allocate
PUBLIC	?deallocate@?$_Wrap_alloc@U?$_Wrap_alloc@V?$allocator@V?$_List_unchecked_const_iterator@V?$_List_val@U?$_List_simple_types@PBX@std@@@std@@U_Iterator_base0@2@@std@@@std@@@std@@@std@@QAEXPAV?$_List_unchecked_const_iterator@V?$_List_val@U?$_List_simple_types@PBX@std@@@std@@U_Iterator_base0@2@@2@I@Z ; std::_Wrap_alloc<std::_Wrap_alloc<std::allocator<std::_List_unchecked_const_iterator<std::_List_val<std::_List_simple_types<void const *> >,std::_Iterator_base0> > > >::deallocate
PUBLIC	?max_size@?$_Wrap_alloc@U?$_Wrap_alloc@V?$allocator@V?$_List_unchecked_const_iterator@V?$_List_val@U?$_List_simple_types@PBX@std@@@std@@U_Iterator_base0@2@@std@@@std@@@std@@@std@@QBEIXZ ; std::_Wrap_alloc<std::_Wrap_alloc<std::allocator<std::_List_unchecked_const_iterator<std::_List_val<std::_List_simple_types<void const *> >,std::_Iterator_base0> > > >::max_size
PUBLIC	??0?$_Vector_val@U?$_Simple_types@V?$_List_unchecked_const_iterator@V?$_List_val@U?$_List_simple_types@PBX@std@@@std@@U_Iterator_base0@2@@std@@@std@@@std@@QAE@XZ ; std::_Vector_val<std::_Simple_types<std::_List_unchecked_const_iterator<std::_List_val<std::_List_simple_types<void const *> >,std::_Iterator_base0> > >::_Vector_val<std::_Simple_types<std::_List_unchecked_const_iterator<std::_List_val<std::_List_simple_types<void const *> >,std::_Iterator_base0> > >
PUBLIC	??1?$_Vector_val@U?$_Simple_types@V?$_List_unchecked_const_iterator@V?$_List_val@U?$_List_simple_types@PBX@std@@@std@@U_Iterator_base0@2@@std@@@std@@@std@@QAE@XZ ; std::_Vector_val<std::_Simple_types<std::_List_unchecked_const_iterator<std::_List_val<std::_List_simple_types<void const *> >,std::_Iterator_base0> > >::~_Vector_val<std::_Simple_types<std::_List_unchecked_const_iterator<std::_List_val<std::_List_simple_types<void const *> >,std::_Iterator_base0> > >
PUBLIC	??0?$_Vector_alloc@$0A@U?$_Vec_base_types@V?$_List_unchecked_const_iterator@V?$_List_val@U?$_List_simple_types@PBX@std@@@std@@U_Iterator_base0@2@@std@@U?$_Wrap_alloc@V?$allocator@V?$_List_unchecked_const_iterator@V?$_List_val@U?$_List_simple_types@PBX@std@@@std@@U_Iterator_base0@2@@std@@@std@@@2@@std@@@std@@QAE@ABU?$_Wrap_alloc@V?$allocator@V?$_List_unchecked_const_iterator@V?$_List_val@U?$_List_simple_types@PBX@std@@@std@@U_Iterator_base0@2@@std@@@std@@@1@@Z ; std::_Vector_alloc<0,std::_Vec_base_types<std::_List_unchecked_const_iterator<std::_List_val<std::_List_simple_types<void const *> >,std::_Iterator_base0>,std::_Wrap_alloc<std::allocator<std::_List_unchecked_const_iterator<std::_List_val<std::_List_simple_types<void const *> >,std::_Iterator_base0> > > > >::_Vector_alloc<0,std::_Vec_base_types<std::_List_unchecked_const_iterator<std::_List_val<std::_List_simple_types<void const *> >,std::_Iterator_base0>,std::_Wrap_alloc<std::allocator<std::_List_unchecked_const_iterator<std::_List_val<std::_List_simple_types<void const *> >,std::_Iterator_base0> > > > >
PUBLIC	??1?$_Vector_alloc@$0A@U?$_Vec_base_types@V?$_List_unchecked_const_iterator@V?$_List_val@U?$_List_simple_types@PBX@std@@@std@@U_Iterator_base0@2@@std@@U?$_Wrap_alloc@V?$allocator@V?$_List_unchecked_const_iterator@V?$_List_val@U?$_List_simple_types@PBX@std@@@std@@U_Iterator_base0@2@@std@@@std@@@2@@std@@@std@@QAE@XZ ; std::_Vector_alloc<0,std::_Vec_base_types<std::_List_unchecked_const_iterator<std::_List_val<std::_List_simple_types<void const *> >,std::_Iterator_base0>,std::_Wrap_alloc<std::allocator<std::_List_unchecked_const_iterator<std::_List_val<std::_List_simple_types<void const *> >,std::_Iterator_base0> > > > >::~_Vector_alloc<0,std::_Vec_base_types<std::_List_unchecked_const_iterator<std::_List_val<std::_List_simple_types<void const *> >,std::_Iterator_base0>,std::_Wrap_alloc<std::allocator<std::_List_unchecked_const_iterator<std::_List_val<std::_List_simple_types<void const *> >,std::_Iterator_base0> > > > >
PUBLIC	?_Alloc_proxy@?$_Vector_alloc@$0A@U?$_Vec_base_types@V?$_List_unchecked_const_iterator@V?$_List_val@U?$_List_simple_types@PBX@std@@@std@@U_Iterator_base0@2@@std@@U?$_Wrap_alloc@V?$allocator@V?$_List_unchecked_const_iterator@V?$_List_val@U?$_List_simple_types@PBX@std@@@std@@U_Iterator_base0@2@@std@@@std@@@2@@std@@@std@@QAEXXZ ; std::_Vector_alloc<0,std::_Vec_base_types<std::_List_unchecked_const_iterator<std::_List_val<std::_List_simple_types<void const *> >,std::_Iterator_base0>,std::_Wrap_alloc<std::allocator<std::_List_unchecked_const_iterator<std::_List_val<std::_List_simple_types<void const *> >,std::_Iterator_base0> > > > >::_Alloc_proxy
PUBLIC	?_Free_proxy@?$_Vector_alloc@$0A@U?$_Vec_base_types@V?$_List_unchecked_const_iterator@V?$_List_val@U?$_List_simple_types@PBX@std@@@std@@U_Iterator_base0@2@@std@@U?$_Wrap_alloc@V?$allocator@V?$_List_unchecked_const_iterator@V?$_List_val@U?$_List_simple_types@PBX@std@@@std@@U_Iterator_base0@2@@std@@@std@@@2@@std@@@std@@QAEXXZ ; std::_Vector_alloc<0,std::_Vec_base_types<std::_List_unchecked_const_iterator<std::_List_val<std::_List_simple_types<void const *> >,std::_Iterator_base0>,std::_Wrap_alloc<std::allocator<std::_List_unchecked_const_iterator<std::_List_val<std::_List_simple_types<void const *> >,std::_Iterator_base0> > > > >::_Free_proxy
PUBLIC	?_Getal@?$_Vector_alloc@$0A@U?$_Vec_base_types@V?$_List_unchecked_const_iterator@V?$_List_val@U?$_List_simple_types@PBX@std@@@std@@U_Iterator_base0@2@@std@@U?$_Wrap_alloc@V?$allocator@V?$_List_unchecked_const_iterator@V?$_List_val@U?$_List_simple_types@PBX@std@@@std@@U_Iterator_base0@2@@std@@@std@@@2@@std@@@std@@QBE?AU?$_Wrap_alloc@U?$_Wrap_alloc@V?$allocator@V?$_List_unchecked_const_iterator@V?$_List_val@U?$_List_simple_types@PBX@std@@@std@@U_Iterator_base0@2@@std@@@std@@@std@@@2@XZ ; std::_Vector_alloc<0,std::_Vec_base_types<std::_List_unchecked_const_iterator<std::_List_val<std::_List_simple_types<void const *> >,std::_Iterator_base0>,std::_Wrap_alloc<std::allocator<std::_List_unchecked_const_iterator<std::_List_val<std::_List_simple_types<void const *> >,std::_Iterator_base0> > > > >::_Getal
PUBLIC	??0?$vector@V?$_List_unchecked_const_iterator@V?$_List_val@U?$_List_simple_types@PBX@std@@@std@@U_Iterator_base0@2@@std@@U?$_Wrap_alloc@V?$allocator@V?$_List_unchecked_const_iterator@V?$_List_val@U?$_List_simple_types@PBX@std@@@std@@U_Iterator_base0@2@@std@@@std@@@2@@std@@QAE@ABU?$_Wrap_alloc@V?$allocator@V?$_List_unchecked_const_iterator@V?$_List_val@U?$_List_simple_types@PBX@std@@@std@@U_Iterator_base0@2@@std@@@std@@@1@@Z ; std::vector<std::_List_unchecked_const_iterator<std::_List_val<std::_List_simple_types<void const *> >,std::_Iterator_base0>,std::_Wrap_alloc<std::allocator<std::_List_unchecked_const_iterator<std::_List_val<std::_List_simple_types<void const *> >,std::_Iterator_base0> > > >::vector<std::_List_unchecked_const_iterator<std::_List_val<std::_List_simple_types<void const *> >,std::_Iterator_base0>,std::_Wrap_alloc<std::allocator<std::_List_unchecked_const_iterator<std::_List_val<std::_List_simple_types<void const *> >,std::_Iterator_base0> > > >
PUBLIC	??1?$vector@V?$_List_unchecked_const_iterator@V?$_List_val@U?$_List_simple_types@PBX@std@@@std@@U_Iterator_base0@2@@std@@U?$_Wrap_alloc@V?$allocator@V?$_List_unchecked_const_iterator@V?$_List_val@U?$_List_simple_types@PBX@std@@@std@@U_Iterator_base0@2@@std@@@std@@@2@@std@@QAE@XZ ; std::vector<std::_List_unchecked_const_iterator<std::_List_val<std::_List_simple_types<void const *> >,std::_Iterator_base0>,std::_Wrap_alloc<std::allocator<std::_List_unchecked_const_iterator<std::_List_val<std::_List_simple_types<void const *> >,std::_Iterator_base0> > > >::~vector<std::_List_unchecked_const_iterator<std::_List_val<std::_List_simple_types<void const *> >,std::_Iterator_base0>,std::_Wrap_alloc<std::allocator<std::_List_unchecked_const_iterator<std::_List_val<std::_List_simple_types<void const *> >,std::_Iterator_base0> > > >
PUBLIC	?capacity@?$vector@V?$_List_unchecked_const_iterator@V?$_List_val@U?$_List_simple_types@PBX@std@@@std@@U_Iterator_base0@2@@std@@U?$_Wrap_alloc@V?$allocator@V?$_List_unchecked_const_iterator@V?$_List_val@U?$_List_simple_types@PBX@std@@@std@@U_Iterator_base0@2@@std@@@std@@@2@@std@@QBEIXZ ; std::vector<std::_List_unchecked_const_iterator<std::_List_val<std::_List_simple_types<void const *> >,std::_Iterator_base0>,std::_Wrap_alloc<std::allocator<std::_List_unchecked_const_iterator<std::_List_val<std::_List_simple_types<void const *> >,std::_Iterator_base0> > > >::capacity
PUBLIC	?_Unused_capacity@?$vector@V?$_List_unchecked_const_iterator@V?$_List_val@U?$_List_simple_types@PBX@std@@@std@@U_Iterator_base0@2@@std@@U?$_Wrap_alloc@V?$allocator@V?$_List_unchecked_const_iterator@V?$_List_val@U?$_List_simple_types@PBX@std@@@std@@U_Iterator_base0@2@@std@@@std@@@2@@std@@QBEIXZ ; std::vector<std::_List_unchecked_const_iterator<std::_List_val<std::_List_simple_types<void const *> >,std::_Iterator_base0>,std::_Wrap_alloc<std::allocator<std::_List_unchecked_const_iterator<std::_List_val<std::_List_simple_types<void const *> >,std::_Iterator_base0> > > >::_Unused_capacity
PUBLIC	?begin@?$vector@V?$_List_unchecked_const_iterator@V?$_List_val@U?$_List_simple_types@PBX@std@@@std@@U_Iterator_base0@2@@std@@U?$_Wrap_alloc@V?$allocator@V?$_List_unchecked_const_iterator@V?$_List_val@U?$_List_simple_types@PBX@std@@@std@@U_Iterator_base0@2@@std@@@std@@@2@@std@@QAE?AV?$_Vector_iterator@V?$_Vector_val@U?$_Simple_types@V?$_List_unchecked_const_iterator@V?$_List_val@U?$_List_simple_types@PBX@std@@@std@@U_Iterator_base0@2@@std@@@std@@@std@@@2@XZ ; std::vector<std::_List_unchecked_const_iterator<std::_List_val<std::_List_simple_types<void const *> >,std::_Iterator_base0>,std::_Wrap_alloc<std::allocator<std::_List_unchecked_const_iterator<std::_List_val<std::_List_simple_types<void const *> >,std::_Iterator_base0> > > >::begin
PUBLIC	?size@?$vector@V?$_List_unchecked_const_iterator@V?$_List_val@U?$_List_simple_types@PBX@std@@@std@@U_Iterator_base0@2@@std@@U?$_Wrap_alloc@V?$allocator@V?$_List_unchecked_const_iterator@V?$_List_val@U?$_List_simple_types@PBX@std@@@std@@U_Iterator_base0@2@@std@@@std@@@2@@std@@QBEIXZ ; std::vector<std::_List_unchecked_const_iterator<std::_List_val<std::_List_simple_types<void const *> >,std::_Iterator_base0>,std::_Wrap_alloc<std::allocator<std::_List_unchecked_const_iterator<std::_List_val<std::_List_simple_types<void const *> >,std::_Iterator_base0> > > >::size
PUBLIC	?max_size@?$vector@V?$_List_unchecked_const_iterator@V?$_List_val@U?$_List_simple_types@PBX@std@@@std@@U_Iterator_base0@2@@std@@U?$_Wrap_alloc@V?$allocator@V?$_List_unchecked_const_iterator@V?$_List_val@U?$_List_simple_types@PBX@std@@@std@@U_Iterator_base0@2@@std@@@std@@@2@@std@@QBEIXZ ; std::vector<std::_List_unchecked_const_iterator<std::_List_val<std::_List_simple_types<void const *> >,std::_Iterator_base0>,std::_Wrap_alloc<std::allocator<std::_List_unchecked_const_iterator<std::_List_val<std::_List_simple_types<void const *> >,std::_Iterator_base0> > > >::max_size
PUBLIC	?assign@?$vector@V?$_List_unchecked_const_iterator@V?$_List_val@U?$_List_simple_types@PBX@std@@@std@@U_Iterator_base0@2@@std@@U?$_Wrap_alloc@V?$allocator@V?$_List_unchecked_const_iterator@V?$_List_val@U?$_List_simple_types@PBX@std@@@std@@U_Iterator_base0@2@@std@@@std@@@2@@std@@QAEXIABV?$_List_unchecked_const_iterator@V?$_List_val@U?$_List_simple_types@PBX@std@@@std@@U_Iterator_base0@2@@2@@Z ; std::vector<std::_List_unchecked_const_iterator<std::_List_val<std::_List_simple_types<void const *> >,std::_Iterator_base0>,std::_Wrap_alloc<std::allocator<std::_List_unchecked_const_iterator<std::_List_val<std::_List_simple_types<void const *> >,std::_Iterator_base0> > > >::assign
PUBLIC	?insert@?$vector@V?$_List_unchecked_const_iterator@V?$_List_val@U?$_List_simple_types@PBX@std@@@std@@U_Iterator_base0@2@@std@@U?$_Wrap_alloc@V?$allocator@V?$_List_unchecked_const_iterator@V?$_List_val@U?$_List_simple_types@PBX@std@@@std@@U_Iterator_base0@2@@std@@@std@@@2@@std@@QAE?AV?$_Vector_iterator@V?$_Vector_val@U?$_Simple_types@V?$_List_unchecked_const_iterator@V?$_List_val@U?$_List_simple_types@PBX@std@@@std@@U_Iterator_base0@2@@std@@@std@@@std@@@2@V?$_Vector_const_iterator@V?$_Vector_val@U?$_Simple_types@V?$_List_unchecked_const_iterator@V?$_List_val@U?$_List_simple_types@PBX@std@@@std@@U_Iterator_base0@2@@std@@@std@@@std@@@2@IABV?$_List_unchecked_const_iterator@V?$_List_val@U?$_List_simple_types@PBX@std@@@std@@U_Iterator_base0@2@@2@@Z ; std::vector<std::_List_unchecked_const_iterator<std::_List_val<std::_List_simple_types<void const *> >,std::_Iterator_base0>,std::_Wrap_alloc<std::allocator<std::_List_unchecked_const_iterator<std::_List_val<std::_List_simple_types<void const *> >,std::_Iterator_base0> > > >::insert
PUBLIC	?clear@?$vector@V?$_List_unchecked_const_iterator@V?$_List_val@U?$_List_simple_types@PBX@std@@@std@@U_Iterator_base0@2@@std@@U?$_Wrap_alloc@V?$allocator@V?$_List_unchecked_const_iterator@V?$_List_val@U?$_List_simple_types@PBX@std@@@std@@U_Iterator_base0@2@@std@@@std@@@2@@std@@QAEXXZ ; std::vector<std::_List_unchecked_const_iterator<std::_List_val<std::_List_simple_types<void const *> >,std::_Iterator_base0>,std::_Wrap_alloc<std::allocator<std::_List_unchecked_const_iterator<std::_List_val<std::_List_simple_types<void const *> >,std::_Iterator_base0> > > >::clear
PUBLIC	?_Destroy@?$vector@V?$_List_unchecked_const_iterator@V?$_List_val@U?$_List_simple_types@PBX@std@@@std@@U_Iterator_base0@2@@std@@U?$_Wrap_alloc@V?$allocator@V?$_List_unchecked_const_iterator@V?$_List_val@U?$_List_simple_types@PBX@std@@@std@@U_Iterator_base0@2@@std@@@std@@@2@@std@@IAEXPAV?$_List_unchecked_const_iterator@V?$_List_val@U?$_List_simple_types@PBX@std@@@std@@U_Iterator_base0@2@@2@0@Z ; std::vector<std::_List_unchecked_const_iterator<std::_List_val<std::_List_simple_types<void const *> >,std::_Iterator_base0>,std::_Wrap_alloc<std::allocator<std::_List_unchecked_const_iterator<std::_List_val<std::_List_simple_types<void const *> >,std::_Iterator_base0> > > >::_Destroy
PUBLIC	?_Grow_to@?$vector@V?$_List_unchecked_const_iterator@V?$_List_val@U?$_List_simple_types@PBX@std@@@std@@U_Iterator_base0@2@@std@@U?$_Wrap_alloc@V?$allocator@V?$_List_unchecked_const_iterator@V?$_List_val@U?$_List_simple_types@PBX@std@@@std@@U_Iterator_base0@2@@std@@@std@@@2@@std@@IBEII@Z ; std::vector<std::_List_unchecked_const_iterator<std::_List_val<std::_List_simple_types<void const *> >,std::_Iterator_base0>,std::_Wrap_alloc<std::allocator<std::_List_unchecked_const_iterator<std::_List_val<std::_List_simple_types<void const *> >,std::_Iterator_base0> > > >::_Grow_to
PUBLIC	?_Tidy@?$vector@V?$_List_unchecked_const_iterator@V?$_List_val@U?$_List_simple_types@PBX@std@@@std@@U_Iterator_base0@2@@std@@U?$_Wrap_alloc@V?$allocator@V?$_List_unchecked_const_iterator@V?$_List_val@U?$_List_simple_types@PBX@std@@@std@@U_Iterator_base0@2@@std@@@std@@@2@@std@@IAEXXZ ; std::vector<std::_List_unchecked_const_iterator<std::_List_val<std::_List_simple_types<void const *> >,std::_Iterator_base0>,std::_Wrap_alloc<std::allocator<std::_List_unchecked_const_iterator<std::_List_val<std::_List_simple_types<void const *> >,std::_Iterator_base0> > > >::_Tidy
PUBLIC	?_Insert_n@?$vector@V?$_List_unchecked_const_iterator@V?$_List_val@U?$_List_simple_types@PBX@std@@@std@@U_Iterator_base0@2@@std@@U?$_Wrap_alloc@V?$allocator@V?$_List_unchecked_const_iterator@V?$_List_val@U?$_List_simple_types@PBX@std@@@std@@U_Iterator_base0@2@@std@@@std@@@2@@std@@IAE?AV?$_Vector_iterator@V?$_Vector_val@U?$_Simple_types@V?$_List_unchecked_const_iterator@V?$_List_val@U?$_List_simple_types@PBX@std@@@std@@U_Iterator_base0@2@@std@@@std@@@std@@@2@V?$_Vector_const_iterator@V?$_Vector_val@U?$_Simple_types@V?$_List_unchecked_const_iterator@V?$_List_val@U?$_List_simple_types@PBX@std@@@std@@U_Iterator_base0@2@@std@@@std@@@std@@@2@IABV?$_List_unchecked_const_iterator@V?$_List_val@U?$_List_simple_types@PBX@std@@@std@@U_Iterator_base0@2@@2@@Z ; std::vector<std::_List_unchecked_const_iterator<std::_List_val<std::_List_simple_types<void const *> >,std::_Iterator_base0>,std::_Wrap_alloc<std::allocator<std::_List_unchecked_const_iterator<std::_List_val<std::_List_simple_types<void const *> >,std::_Iterator_base0> > > >::_Insert_n
PUBLIC	?_Ufill@?$vector@V?$_List_unchecked_const_iterator@V?$_List_val@U?$_List_simple_types@PBX@std@@@std@@U_Iterator_base0@2@@std@@U?$_Wrap_alloc@V?$allocator@V?$_List_unchecked_const_iterator@V?$_List_val@U?$_List_simple_types@PBX@std@@@std@@U_Iterator_base0@2@@std@@@std@@@2@@std@@IAEPAV?$_List_unchecked_const_iterator@V?$_List_val@U?$_List_simple_types@PBX@std@@@std@@U_Iterator_base0@2@@2@PAV32@IPBV32@@Z ; std::vector<std::_List_unchecked_const_iterator<std::_List_val<std::_List_simple_types<void const *> >,std::_Iterator_base0>,std::_Wrap_alloc<std::allocator<std::_List_unchecked_const_iterator<std::_List_val<std::_List_simple_types<void const *> >,std::_Iterator_base0> > > >::_Ufill
PUBLIC	?_Xlen@?$vector@V?$_List_unchecked_const_iterator@V?$_List_val@U?$_List_simple_types@PBX@std@@@std@@U_Iterator_base0@2@@std@@U?$_Wrap_alloc@V?$allocator@V?$_List_unchecked_const_iterator@V?$_List_val@U?$_List_simple_types@PBX@std@@@std@@U_Iterator_base0@2@@std@@@std@@@2@@std@@IBEXXZ ; std::vector<std::_List_unchecked_const_iterator<std::_List_val<std::_List_simple_types<void const *> >,std::_Iterator_base0>,std::_Wrap_alloc<std::allocator<std::_List_unchecked_const_iterator<std::_List_val<std::_List_simple_types<void const *> >,std::_Iterator_base0> > > >::_Xlen
PUBLIC	?_Orphan_range@?$vector@V?$_List_unchecked_const_iterator@V?$_List_val@U?$_List_simple_types@PBX@std@@@std@@U_Iterator_base0@2@@std@@U?$_Wrap_alloc@V?$allocator@V?$_List_unchecked_const_iterator@V?$_List_val@U?$_List_simple_types@PBX@std@@@std@@U_Iterator_base0@2@@std@@@std@@@2@@std@@IBEXPAV?$_List_unchecked_const_iterator@V?$_List_val@U?$_List_simple_types@PBX@std@@@std@@U_Iterator_base0@2@@2@0@Z ; std::vector<std::_List_unchecked_const_iterator<std::_List_val<std::_List_simple_types<void const *> >,std::_Iterator_base0>,std::_Wrap_alloc<std::allocator<std::_List_unchecked_const_iterator<std::_List_val<std::_List_simple_types<void const *> >,std::_Iterator_base0> > > >::_Orphan_range
PUBLIC	??0?$unordered_set@PBXU?$hash@PBX@std@@U?$equal_to@PBX@2@V?$allocator@PBX@2@@std@@QAE@XZ ; std::unordered_set<void const *,std::hash<void const *>,std::equal_to<void const *>,std::allocator<void const *> >::unordered_set<void const *,std::hash<void const *>,std::equal_to<void const *>,std::allocator<void const *> >
PUBLIC	??1?$unordered_set@PBXU?$hash@PBX@std@@U?$equal_to@PBX@2@V?$allocator@PBX@2@@std@@QAE@XZ ; std::unordered_set<void const *,std::hash<void const *>,std::equal_to<void const *>,std::allocator<void const *> >::~unordered_set<void const *,std::hash<void const *>,std::equal_to<void const *>,std::allocator<void const *> >
PUBLIC	??0?$_Hash_oper1@$0A@U?$hash@_K@std@@@std@@QAE@U?$hash@_K@1@@Z ; std::_Hash_oper1<0,std::hash<unsigned __int64> >::_Hash_oper1<0,std::hash<unsigned __int64> >
PUBLIC	??0?$_Hash_oper2@$0A@U?$hash@_K@std@@U?$equal_to@_K@2@@std@@QAE@U?$hash@_K@1@U?$equal_to@_K@1@@Z ; std::_Hash_oper2<0,std::hash<unsigned __int64>,std::equal_to<unsigned __int64> >::_Hash_oper2<0,std::hash<unsigned __int64>,std::equal_to<unsigned __int64> >
PUBLIC	??0?$_Uhash_compare@_KU?$hash@_K@std@@U?$equal_to@_K@2@@std@@QAE@U?$hash@_K@1@U?$equal_to@_K@1@@Z ; std::_Uhash_compare<unsigned __int64,std::hash<unsigned __int64>,std::equal_to<unsigned __int64> >::_Uhash_compare<unsigned __int64,std::hash<unsigned __int64>,std::equal_to<unsigned __int64> >
PUBLIC	??0?$_Uset_traits@_KV?$_Uhash_compare@_KU?$hash@_K@std@@U?$equal_to@_K@2@@std@@V?$allocator@_K@2@$0A@@std@@QAE@ABV?$_Uhash_compare@_KU?$hash@_K@std@@U?$equal_to@_K@2@@1@@Z ; std::_Uset_traits<unsigned __int64,std::_Uhash_compare<unsigned __int64,std::hash<unsigned __int64>,std::equal_to<unsigned __int64> >,std::allocator<unsigned __int64>,0>::_Uset_traits<unsigned __int64,std::_Uhash_compare<unsigned __int64,std::hash<unsigned __int64>,std::equal_to<unsigned __int64> >,std::allocator<unsigned __int64>,0>
PUBLIC	??0?$allocator@_K@std@@QAE@XZ			; std::allocator<unsigned __int64>::allocator<unsigned __int64>
PUBLIC	??0?$allocator@U?$_List_node@_KPAX@std@@@std@@QAE@XZ ; std::allocator<std::_List_node<unsigned __int64,void *> >::allocator<std::_List_node<unsigned __int64,void *> >
PUBLIC	?deallocate@?$allocator@U?$_List_node@_KPAX@std@@@std@@QAEXPAU?$_List_node@_KPAX@2@I@Z ; std::allocator<std::_List_node<unsigned __int64,void *> >::deallocate
PUBLIC	?allocate@?$allocator@U?$_List_node@_KPAX@std@@@std@@QAEPAU?$_List_node@_KPAX@2@I@Z ; std::allocator<std::_List_node<unsigned __int64,void *> >::allocate
PUBLIC	??0?$_Wrap_alloc@V?$allocator@U?$_List_node@_KPAX@std@@@std@@@std@@QAE@XZ ; std::_Wrap_alloc<std::allocator<std::_List_node<unsigned __int64,void *> > >::_Wrap_alloc<std::allocator<std::_List_node<unsigned __int64,void *> > >
PUBLIC	?allocate@?$_Wrap_alloc@V?$allocator@U?$_List_node@_KPAX@std@@@std@@@std@@QAEPAU?$_List_node@_KPAX@2@I@Z ; std::_Wrap_alloc<std::allocator<std::_List_node<unsigned __int64,void *> > >::allocate
PUBLIC	?deallocate@?$_Wrap_alloc@V?$allocator@U?$_List_node@_KPAX@std@@@std@@@std@@QAEXPAU?$_List_node@_KPAX@2@I@Z ; std::_Wrap_alloc<std::allocator<std::_List_node<unsigned __int64,void *> > >::deallocate
PUBLIC	??0?$_List_val@U?$_List_simple_types@_K@std@@@std@@QAE@XZ ; std::_List_val<std::_List_simple_types<unsigned __int64> >::_List_val<std::_List_simple_types<unsigned __int64> >
PUBLIC	?_Nextnode@?$_List_val@U?$_List_simple_types@_K@std@@@std@@SAAAPAU?$_List_node@_KPAX@2@PAU32@@Z ; std::_List_val<std::_List_simple_types<unsigned __int64> >::_Nextnode
PUBLIC	?_Prevnode@?$_List_val@U?$_List_simple_types@_K@std@@@std@@SAAAPAU?$_List_node@_KPAX@2@PAU32@@Z ; std::_List_val<std::_List_simple_types<unsigned __int64> >::_Prevnode
PUBLIC	?_Myval@?$_List_val@U?$_List_simple_types@_K@std@@@std@@SAAA_KPAU?$_List_node@_KPAX@2@@Z ; std::_List_val<std::_List_simple_types<unsigned __int64> >::_Myval
PUBLIC	??1?$_List_val@U?$_List_simple_types@_K@std@@@std@@QAE@XZ ; std::_List_val<std::_List_simple_types<unsigned __int64> >::~_List_val<std::_List_simple_types<unsigned __int64> >
PUBLIC	??0?$_List_alloc@$0A@U?$_List_base_types@_KV?$allocator@_K@std@@@std@@@std@@QAE@ABV?$allocator@_K@1@@Z ; std::_List_alloc<0,std::_List_base_types<unsigned __int64,std::allocator<unsigned __int64> > >::_List_alloc<0,std::_List_base_types<unsigned __int64,std::allocator<unsigned __int64> > >
PUBLIC	??1?$_List_alloc@$0A@U?$_List_base_types@_KV?$allocator@_K@std@@@std@@@std@@QAE@XZ ; std::_List_alloc<0,std::_List_base_types<unsigned __int64,std::allocator<unsigned __int64> > >::~_List_alloc<0,std::_List_base_types<unsigned __int64,std::allocator<unsigned __int64> > >
PUBLIC	?_Alloc_proxy@?$_List_alloc@$0A@U?$_List_base_types@_KV?$allocator@_K@std@@@std@@@std@@QAEXXZ ; std::_List_alloc<0,std::_List_base_types<unsigned __int64,std::allocator<unsigned __int64> > >::_Alloc_proxy
PUBLIC	?_Free_proxy@?$_List_alloc@$0A@U?$_List_base_types@_KV?$allocator@_K@std@@@std@@@std@@QAEXXZ ; std::_List_alloc<0,std::_List_base_types<unsigned __int64,std::allocator<unsigned __int64> > >::_Free_proxy
PUBLIC	?_Buyheadnode@?$_List_alloc@$0A@U?$_List_base_types@_KV?$allocator@_K@std@@@std@@@std@@QAEPAU?$_List_node@_KPAX@2@XZ ; std::_List_alloc<0,std::_List_base_types<unsigned __int64,std::allocator<unsigned __int64> > >::_Buyheadnode
PUBLIC	?_Freeheadnode@?$_List_alloc@$0A@U?$_List_base_types@_KV?$allocator@_K@std@@@std@@@std@@QAEXPAU?$_List_node@_KPAX@2@@Z ; std::_List_alloc<0,std::_List_base_types<unsigned __int64,std::allocator<unsigned __int64> > >::_Freeheadnode
PUBLIC	?_Buynode0@?$_List_alloc@$0A@U?$_List_base_types@_KV?$allocator@_K@std@@@std@@@std@@QAEPAU?$_List_node@_KPAX@2@PAU32@0@Z ; std::_List_alloc<0,std::_List_base_types<unsigned __int64,std::allocator<unsigned __int64> > >::_Buynode0
PUBLIC	?_Getal@?$_List_alloc@$0A@U?$_List_base_types@_KV?$allocator@_K@std@@@std@@@std@@QBE?AU?$_Wrap_alloc@V?$allocator@U?$_List_node@_KPAX@std@@@std@@@2@XZ ; std::_List_alloc<0,std::_List_base_types<unsigned __int64,std::allocator<unsigned __int64> > >::_Getal
PUBLIC	??0?$_List_buy@_KV?$allocator@_K@std@@@std@@QAE@ABV?$allocator@_K@1@@Z ; std::_List_buy<unsigned __int64,std::allocator<unsigned __int64> >::_List_buy<unsigned __int64,std::allocator<unsigned __int64> >
PUBLIC	?_Freenode@?$_List_buy@_KV?$allocator@_K@std@@@std@@QAEXPAU?$_List_node@_KPAX@2@@Z ; std::_List_buy<unsigned __int64,std::allocator<unsigned __int64> >::_Freenode
PUBLIC	??1?$_List_buy@_KV?$allocator@_K@std@@@std@@QAE@XZ ; std::_List_buy<unsigned __int64,std::allocator<unsigned __int64> >::~_List_buy<unsigned __int64,std::allocator<unsigned __int64> >
PUBLIC	??0?$list@_KV?$allocator@_K@std@@@std@@QAE@ABV?$allocator@_K@1@@Z ; std::list<unsigned __int64,std::allocator<unsigned __int64> >::list<unsigned __int64,std::allocator<unsigned __int64> >
PUBLIC	??1?$list@_KV?$allocator@_K@std@@@std@@QAE@XZ	; std::list<unsigned __int64,std::allocator<unsigned __int64> >::~list<unsigned __int64,std::allocator<unsigned __int64> >
PUBLIC	?_Unchecked_end@?$list@_KV?$allocator@_K@std@@@std@@QAE?AV?$_List_unchecked_iterator@V?$_List_val@U?$_List_simple_types@_K@std@@@std@@@2@XZ ; std::list<unsigned __int64,std::allocator<unsigned __int64> >::_Unchecked_end
PUBLIC	?clear@?$list@_KV?$allocator@_K@std@@@std@@QAEXXZ ; std::list<unsigned __int64,std::allocator<unsigned __int64> >::clear
PUBLIC	?_Tidy@?$list@_KV?$allocator@_K@std@@@std@@QAEXXZ ; std::list<unsigned __int64,std::allocator<unsigned __int64> >::_Tidy
PUBLIC	?_Orphan_ptr@?$list@_KV?$allocator@_K@std@@@std@@QBEXAAV12@PAU?$_List_node@_KPAX@2@@Z ; std::list<unsigned __int64,std::allocator<unsigned __int64> >::_Orphan_ptr
PUBLIC	??0?$_Hash@V?$_Uset_traits@_KV?$_Uhash_compare@_KU?$hash@_K@std@@U?$equal_to@_K@2@@std@@V?$allocator@_K@2@$0A@@std@@@std@@QAE@ABV?$_Uhash_compare@_KU?$hash@_K@std@@U?$equal_to@_K@2@@1@ABV?$allocator@_K@1@@Z ; std::_Hash<std::_Uset_traits<unsigned __int64,std::_Uhash_compare<unsigned __int64,std::hash<unsigned __int64>,std::equal_to<unsigned __int64> >,std::allocator<unsigned __int64>,0> >::_Hash<std::_Uset_traits<unsigned __int64,std::_Uhash_compare<unsigned __int64,std::hash<unsigned __int64>,std::equal_to<unsigned __int64> >,std::allocator<unsigned __int64>,0> >
PUBLIC	??1?$_Hash@V?$_Uset_traits@_KV?$_Uhash_compare@_KU?$hash@_K@std@@U?$equal_to@_K@2@@std@@V?$allocator@_K@2@$0A@@std@@@std@@QAE@XZ ; std::_Hash<std::_Uset_traits<unsigned __int64,std::_Uhash_compare<unsigned __int64,std::hash<unsigned __int64>,std::equal_to<unsigned __int64> >,std::allocator<unsigned __int64>,0> >::~_Hash<std::_Uset_traits<unsigned __int64,std::_Uhash_compare<unsigned __int64,std::hash<unsigned __int64>,std::equal_to<unsigned __int64> >,std::allocator<unsigned __int64>,0> >
PUBLIC	?_Unchecked_end@?$_Hash@V?$_Uset_traits@_KV?$_Uhash_compare@_KU?$hash@_K@std@@U?$equal_to@_K@2@@std@@V?$allocator@_K@2@$0A@@std@@@std@@QAE?AV?$_List_unchecked_const_iterator@V?$_List_val@U?$_List_simple_types@_K@std@@@std@@U_Iterator_base0@2@@2@XZ ; std::_Hash<std::_Uset_traits<unsigned __int64,std::_Uhash_compare<unsigned __int64,std::hash<unsigned __int64>,std::equal_to<unsigned __int64> >,std::allocator<unsigned __int64>,0> >::_Unchecked_end
PUBLIC	?_Init@?$_Hash@V?$_Uset_traits@_KV?$_Uhash_compare@_KU?$hash@_K@std@@U?$equal_to@_K@2@@std@@V?$allocator@_K@2@$0A@@std@@@std@@IAEXI@Z ; std::_Hash<std::_Uset_traits<unsigned __int64,std::_Uhash_compare<unsigned __int64,std::hash<unsigned __int64>,std::equal_to<unsigned __int64> >,std::allocator<unsigned __int64>,0> >::_Init
PUBLIC	??0?$allocator@V?$_List_unchecked_const_iterator@V?$_List_val@U?$_List_simple_types@_K@std@@@std@@U_Iterator_base0@2@@std@@@std@@QAE@XZ ; std::allocator<std::_List_unchecked_const_iterator<std::_List_val<std::_List_simple_types<unsigned __int64> >,std::_Iterator_base0> >::allocator<std::_List_unchecked_const_iterator<std::_List_val<std::_List_simple_types<unsigned __int64> >,std::_Iterator_base0> >
PUBLIC	?deallocate@?$allocator@V?$_List_unchecked_const_iterator@V?$_List_val@U?$_List_simple_types@_K@std@@@std@@U_Iterator_base0@2@@std@@@std@@QAEXPAV?$_List_unchecked_const_iterator@V?$_List_val@U?$_List_simple_types@_K@std@@@std@@U_Iterator_base0@2@@2@I@Z ; std::allocator<std::_List_unchecked_const_iterator<std::_List_val<std::_List_simple_types<unsigned __int64> >,std::_Iterator_base0> >::deallocate
PUBLIC	?allocate@?$allocator@V?$_List_unchecked_const_iterator@V?$_List_val@U?$_List_simple_types@_K@std@@@std@@U_Iterator_base0@2@@std@@@std@@QAEPAV?$_List_unchecked_const_iterator@V?$_List_val@U?$_List_simple_types@_K@std@@@std@@U_Iterator_base0@2@@2@I@Z ; std::allocator<std::_List_unchecked_const_iterator<std::_List_val<std::_List_simple_types<unsigned __int64> >,std::_Iterator_base0> >::allocate
PUBLIC	?construct@?$allocator@V?$_List_unchecked_const_iterator@V?$_List_val@U?$_List_simple_types@_K@std@@@std@@U_Iterator_base0@2@@std@@@std@@QAEXPAV?$_List_unchecked_const_iterator@V?$_List_val@U?$_List_simple_types@_K@std@@@std@@U_Iterator_base0@2@@2@ABV32@@Z ; std::allocator<std::_List_unchecked_const_iterator<std::_List_val<std::_List_simple_types<unsigned __int64> >,std::_Iterator_base0> >::construct
PUBLIC	?max_size@?$allocator@V?$_List_unchecked_const_iterator@V?$_List_val@U?$_List_simple_types@_K@std@@@std@@U_Iterator_base0@2@@std@@@std@@QBEIXZ ; std::allocator<std::_List_unchecked_const_iterator<std::_List_val<std::_List_simple_types<unsigned __int64> >,std::_Iterator_base0> >::max_size
PUBLIC	?max_size@?$allocator_traits@V?$allocator@V?$_List_unchecked_const_iterator@V?$_List_val@U?$_List_simple_types@_K@std@@@std@@U_Iterator_base0@2@@std@@@std@@@std@@SAIABV?$allocator@V?$_List_unchecked_const_iterator@V?$_List_val@U?$_List_simple_types@_K@std@@@std@@U_Iterator_base0@2@@std@@@2@@Z ; std::allocator_traits<std::allocator<std::_List_unchecked_const_iterator<std::_List_val<std::_List_simple_types<unsigned __int64> >,std::_Iterator_base0> > >::max_size
PUBLIC	??0?$_Wrap_alloc@V?$allocator@V?$_List_unchecked_const_iterator@V?$_List_val@U?$_List_simple_types@_K@std@@@std@@U_Iterator_base0@2@@std@@@std@@@std@@QAE@XZ ; std::_Wrap_alloc<std::allocator<std::_List_unchecked_const_iterator<std::_List_val<std::_List_simple_types<unsigned __int64> >,std::_Iterator_base0> > >::_Wrap_alloc<std::allocator<std::_List_unchecked_const_iterator<std::_List_val<std::_List_simple_types<unsigned __int64> >,std::_Iterator_base0> > >
PUBLIC	?allocate@?$_Wrap_alloc@V?$allocator@V?$_List_unchecked_const_iterator@V?$_List_val@U?$_List_simple_types@_K@std@@@std@@U_Iterator_base0@2@@std@@@std@@@std@@QAEPAV?$_List_unchecked_const_iterator@V?$_List_val@U?$_List_simple_types@_K@std@@@std@@U_Iterator_base0@2@@2@I@Z ; std::_Wrap_alloc<std::allocator<std::_List_unchecked_const_iterator<std::_List_val<std::_List_simple_types<unsigned __int64> >,std::_Iterator_base0> > >::allocate
PUBLIC	?deallocate@?$_Wrap_alloc@V?$allocator@V?$_List_unchecked_const_iterator@V?$_List_val@U?$_List_simple_types@_K@std@@@std@@U_Iterator_base0@2@@std@@@std@@@std@@QAEXPAV?$_List_unchecked_const_iterator@V?$_List_val@U?$_List_simple_types@_K@std@@@std@@U_Iterator_base0@2@@2@I@Z ; std::_Wrap_alloc<std::allocator<std::_List_unchecked_const_iterator<std::_List_val<std::_List_simple_types<unsigned __int64> >,std::_Iterator_base0> > >::deallocate
PUBLIC	?max_size@?$_Wrap_alloc@V?$allocator@V?$_List_unchecked_const_iterator@V?$_List_val@U?$_List_simple_types@_K@std@@@std@@U_Iterator_base0@2@@std@@@std@@@std@@QBEIXZ ; std::_Wrap_alloc<std::allocator<std::_List_unchecked_const_iterator<std::_List_val<std::_List_simple_types<unsigned __int64> >,std::_Iterator_base0> > >::max_size
PUBLIC	?max_size@?$allocator_traits@U?$_Wrap_alloc@V?$allocator@V?$_List_unchecked_const_iterator@V?$_List_val@U?$_List_simple_types@_K@std@@@std@@U_Iterator_base0@2@@std@@@std@@@std@@@std@@SAIABU?$_Wrap_alloc@V?$allocator@V?$_List_unchecked_const_iterator@V?$_List_val@U?$_List_simple_types@_K@std@@@std@@U_Iterator_base0@2@@std@@@std@@@2@@Z ; std::allocator_traits<std::_Wrap_alloc<std::allocator<std::_List_unchecked_const_iterator<std::_List_val<std::_List_simple_types<unsigned __int64> >,std::_Iterator_base0> > > >::max_size
PUBLIC	??0?$_Wrap_alloc@U?$_Wrap_alloc@V?$allocator@V?$_List_unchecked_const_iterator@V?$_List_val@U?$_List_simple_types@_K@std@@@std@@U_Iterator_base0@2@@std@@@std@@@std@@@std@@QAE@XZ ; std::_Wrap_alloc<std::_Wrap_alloc<std::allocator<std::_List_unchecked_const_iterator<std::_List_val<std::_List_simple_types<unsigned __int64> >,std::_Iterator_base0> > > >::_Wrap_alloc<std::_Wrap_alloc<std::allocator<std::_List_unchecked_const_iterator<std::_List_val<std::_List_simple_types<unsigned __int64> >,std::_Iterator_base0> > > >
PUBLIC	?allocate@?$_Wrap_alloc@U?$_Wrap_alloc@V?$allocator@V?$_List_unchecked_const_iterator@V?$_List_val@U?$_List_simple_types@_K@std@@@std@@U_Iterator_base0@2@@std@@@std@@@std@@@std@@QAEPAV?$_List_unchecked_const_iterator@V?$_List_val@U?$_List_simple_types@_K@std@@@std@@U_Iterator_base0@2@@2@I@Z ; std::_Wrap_alloc<std::_Wrap_alloc<std::allocator<std::_List_unchecked_const_iterator<std::_List_val<std::_List_simple_types<unsigned __int64> >,std::_Iterator_base0> > > >::allocate
PUBLIC	?deallocate@?$_Wrap_alloc@U?$_Wrap_alloc@V?$allocator@V?$_List_unchecked_const_iterator@V?$_List_val@U?$_List_simple_types@_K@std@@@std@@U_Iterator_base0@2@@std@@@std@@@std@@@std@@QAEXPAV?$_List_unchecked_const_iterator@V?$_List_val@U?$_List_simple_types@_K@std@@@std@@U_Iterator_base0@2@@2@I@Z ; std::_Wrap_alloc<std::_Wrap_alloc<std::allocator<std::_List_unchecked_const_iterator<std::_List_val<std::_List_simple_types<unsigned __int64> >,std::_Iterator_base0> > > >::deallocate
PUBLIC	?max_size@?$_Wrap_alloc@U?$_Wrap_alloc@V?$allocator@V?$_List_unchecked_const_iterator@V?$_List_val@U?$_List_simple_types@_K@std@@@std@@U_Iterator_base0@2@@std@@@std@@@std@@@std@@QBEIXZ ; std::_Wrap_alloc<std::_Wrap_alloc<std::allocator<std::_List_unchecked_const_iterator<std::_List_val<std::_List_simple_types<unsigned __int64> >,std::_Iterator_base0> > > >::max_size
PUBLIC	??0?$_Vector_val@U?$_Simple_types@V?$_List_unchecked_const_iterator@V?$_List_val@U?$_List_simple_types@_K@std@@@std@@U_Iterator_base0@2@@std@@@std@@@std@@QAE@XZ ; std::_Vector_val<std::_Simple_types<std::_List_unchecked_const_iterator<std::_List_val<std::_List_simple_types<unsigned __int64> >,std::_Iterator_base0> > >::_Vector_val<std::_Simple_types<std::_List_unchecked_const_iterator<std::_List_val<std::_List_simple_types<unsigned __int64> >,std::_Iterator_base0> > >
PUBLIC	??1?$_Vector_val@U?$_Simple_types@V?$_List_unchecked_const_iterator@V?$_List_val@U?$_List_simple_types@_K@std@@@std@@U_Iterator_base0@2@@std@@@std@@@std@@QAE@XZ ; std::_Vector_val<std::_Simple_types<std::_List_unchecked_const_iterator<std::_List_val<std::_List_simple_types<unsigned __int64> >,std::_Iterator_base0> > >::~_Vector_val<std::_Simple_types<std::_List_unchecked_const_iterator<std::_List_val<std::_List_simple_types<unsigned __int64> >,std::_Iterator_base0> > >
PUBLIC	??0?$_Vector_alloc@$0A@U?$_Vec_base_types@V?$_List_unchecked_const_iterator@V?$_List_val@U?$_List_simple_types@_K@std@@@std@@U_Iterator_base0@2@@std@@U?$_Wrap_alloc@V?$allocator@V?$_List_unchecked_const_iterator@V?$_List_val@U?$_List_simple_types@_K@std@@@std@@U_Iterator_base0@2@@std@@@std@@@2@@std@@@std@@QAE@ABU?$_Wrap_alloc@V?$allocator@V?$_List_unchecked_const_iterator@V?$_List_val@U?$_List_simple_types@_K@std@@@std@@U_Iterator_base0@2@@std@@@std@@@1@@Z ; std::_Vector_alloc<0,std::_Vec_base_types<std::_List_unchecked_const_iterator<std::_List_val<std::_List_simple_types<unsigned __int64> >,std::_Iterator_base0>,std::_Wrap_alloc<std::allocator<std::_List_unchecked_const_iterator<std::_List_val<std::_List_simple_types<unsigned __int64> >,std::_Iterator_base0> > > > >::_Vector_alloc<0,std::_Vec_base_types<std::_List_unchecked_const_iterator<std::_List_val<std::_List_simple_types<unsigned __int64> >,std::_Iterator_base0>,std::_Wrap_alloc<std::allocator<std::_List_unchecked_const_iterator<std::_List_val<std::_List_simple_types<unsigned __int64> >,std::_Iterator_base0> > > > >
PUBLIC	??1?$_Vector_alloc@$0A@U?$_Vec_base_types@V?$_List_unchecked_const_iterator@V?$_List_val@U?$_List_simple_types@_K@std@@@std@@U_Iterator_base0@2@@std@@U?$_Wrap_alloc@V?$allocator@V?$_List_unchecked_const_iterator@V?$_List_val@U?$_List_simple_types@_K@std@@@std@@U_Iterator_base0@2@@std@@@std@@@2@@std@@@std@@QAE@XZ ; std::_Vector_alloc<0,std::_Vec_base_types<std::_List_unchecked_const_iterator<std::_List_val<std::_List_simple_types<unsigned __int64> >,std::_Iterator_base0>,std::_Wrap_alloc<std::allocator<std::_List_unchecked_const_iterator<std::_List_val<std::_List_simple_types<unsigned __int64> >,std::_Iterator_base0> > > > >::~_Vector_alloc<0,std::_Vec_base_types<std::_List_unchecked_const_iterator<std::_List_val<std::_List_simple_types<unsigned __int64> >,std::_Iterator_base0>,std::_Wrap_alloc<std::allocator<std::_List_unchecked_const_iterator<std::_List_val<std::_List_simple_types<unsigned __int64> >,std::_Iterator_base0> > > > >
PUBLIC	?_Alloc_proxy@?$_Vector_alloc@$0A@U?$_Vec_base_types@V?$_List_unchecked_const_iterator@V?$_List_val@U?$_List_simple_types@_K@std@@@std@@U_Iterator_base0@2@@std@@U?$_Wrap_alloc@V?$allocator@V?$_List_unchecked_const_iterator@V?$_List_val@U?$_List_simple_types@_K@std@@@std@@U_Iterator_base0@2@@std@@@std@@@2@@std@@@std@@QAEXXZ ; std::_Vector_alloc<0,std::_Vec_base_types<std::_List_unchecked_const_iterator<std::_List_val<std::_List_simple_types<unsigned __int64> >,std::_Iterator_base0>,std::_Wrap_alloc<std::allocator<std::_List_unchecked_const_iterator<std::_List_val<std::_List_simple_types<unsigned __int64> >,std::_Iterator_base0> > > > >::_Alloc_proxy
PUBLIC	?_Free_proxy@?$_Vector_alloc@$0A@U?$_Vec_base_types@V?$_List_unchecked_const_iterator@V?$_List_val@U?$_List_simple_types@_K@std@@@std@@U_Iterator_base0@2@@std@@U?$_Wrap_alloc@V?$allocator@V?$_List_unchecked_const_iterator@V?$_List_val@U?$_List_simple_types@_K@std@@@std@@U_Iterator_base0@2@@std@@@std@@@2@@std@@@std@@QAEXXZ ; std::_Vector_alloc<0,std::_Vec_base_types<std::_List_unchecked_const_iterator<std::_List_val<std::_List_simple_types<unsigned __int64> >,std::_Iterator_base0>,std::_Wrap_alloc<std::allocator<std::_List_unchecked_const_iterator<std::_List_val<std::_List_simple_types<unsigned __int64> >,std::_Iterator_base0> > > > >::_Free_proxy
PUBLIC	?_Getal@?$_Vector_alloc@$0A@U?$_Vec_base_types@V?$_List_unchecked_const_iterator@V?$_List_val@U?$_List_simple_types@_K@std@@@std@@U_Iterator_base0@2@@std@@U?$_Wrap_alloc@V?$allocator@V?$_List_unchecked_const_iterator@V?$_List_val@U?$_List_simple_types@_K@std@@@std@@U_Iterator_base0@2@@std@@@std@@@2@@std@@@std@@QBE?AU?$_Wrap_alloc@U?$_Wrap_alloc@V?$allocator@V?$_List_unchecked_const_iterator@V?$_List_val@U?$_List_simple_types@_K@std@@@std@@U_Iterator_base0@2@@std@@@std@@@std@@@2@XZ ; std::_Vector_alloc<0,std::_Vec_base_types<std::_List_unchecked_const_iterator<std::_List_val<std::_List_simple_types<unsigned __int64> >,std::_Iterator_base0>,std::_Wrap_alloc<std::allocator<std::_List_unchecked_const_iterator<std::_List_val<std::_List_simple_types<unsigned __int64> >,std::_Iterator_base0> > > > >::_Getal
PUBLIC	??0?$vector@V?$_List_unchecked_const_iterator@V?$_List_val@U?$_List_simple_types@_K@std@@@std@@U_Iterator_base0@2@@std@@U?$_Wrap_alloc@V?$allocator@V?$_List_unchecked_const_iterator@V?$_List_val@U?$_List_simple_types@_K@std@@@std@@U_Iterator_base0@2@@std@@@std@@@2@@std@@QAE@ABU?$_Wrap_alloc@V?$allocator@V?$_List_unchecked_const_iterator@V?$_List_val@U?$_List_simple_types@_K@std@@@std@@U_Iterator_base0@2@@std@@@std@@@1@@Z ; std::vector<std::_List_unchecked_const_iterator<std::_List_val<std::_List_simple_types<unsigned __int64> >,std::_Iterator_base0>,std::_Wrap_alloc<std::allocator<std::_List_unchecked_const_iterator<std::_List_val<std::_List_simple_types<unsigned __int64> >,std::_Iterator_base0> > > >::vector<std::_List_unchecked_const_iterator<std::_List_val<std::_List_simple_types<unsigned __int64> >,std::_Iterator_base0>,std::_Wrap_alloc<std::allocator<std::_List_unchecked_const_iterator<std::_List_val<std::_List_simple_types<unsigned __int64> >,std::_Iterator_base0> > > >
PUBLIC	??1?$vector@V?$_List_unchecked_const_iterator@V?$_List_val@U?$_List_simple_types@_K@std@@@std@@U_Iterator_base0@2@@std@@U?$_Wrap_alloc@V?$allocator@V?$_List_unchecked_const_iterator@V?$_List_val@U?$_List_simple_types@_K@std@@@std@@U_Iterator_base0@2@@std@@@std@@@2@@std@@QAE@XZ ; std::vector<std::_List_unchecked_const_iterator<std::_List_val<std::_List_simple_types<unsigned __int64> >,std::_Iterator_base0>,std::_Wrap_alloc<std::allocator<std::_List_unchecked_const_iterator<std::_List_val<std::_List_simple_types<unsigned __int64> >,std::_Iterator_base0> > > >::~vector<std::_List_unchecked_const_iterator<std::_List_val<std::_List_simple_types<unsigned __int64> >,std::_Iterator_base0>,std::_Wrap_alloc<std::allocator<std::_List_unchecked_const_iterator<std::_List_val<std::_List_simple_types<unsigned __int64> >,std::_Iterator_base0> > > >
PUBLIC	?capacity@?$vector@V?$_List_unchecked_const_iterator@V?$_List_val@U?$_List_simple_types@_K@std@@@std@@U_Iterator_base0@2@@std@@U?$_Wrap_alloc@V?$allocator@V?$_List_unchecked_const_iterator@V?$_List_val@U?$_List_simple_types@_K@std@@@std@@U_Iterator_base0@2@@std@@@std@@@2@@std@@QBEIXZ ; std::vector<std::_List_unchecked_const_iterator<std::_List_val<std::_List_simple_types<unsigned __int64> >,std::_Iterator_base0>,std::_Wrap_alloc<std::allocator<std::_List_unchecked_const_iterator<std::_List_val<std::_List_simple_types<unsigned __int64> >,std::_Iterator_base0> > > >::capacity
PUBLIC	?_Unused_capacity@?$vector@V?$_List_unchecked_const_iterator@V?$_List_val@U?$_List_simple_types@_K@std@@@std@@U_Iterator_base0@2@@std@@U?$_Wrap_alloc@V?$allocator@V?$_List_unchecked_const_iterator@V?$_List_val@U?$_List_simple_types@_K@std@@@std@@U_Iterator_base0@2@@std@@@std@@@2@@std@@QBEIXZ ; std::vector<std::_List_unchecked_const_iterator<std::_List_val<std::_List_simple_types<unsigned __int64> >,std::_Iterator_base0>,std::_Wrap_alloc<std::allocator<std::_List_unchecked_const_iterator<std::_List_val<std::_List_simple_types<unsigned __int64> >,std::_Iterator_base0> > > >::_Unused_capacity
PUBLIC	?begin@?$vector@V?$_List_unchecked_const_iterator@V?$_List_val@U?$_List_simple_types@_K@std@@@std@@U_Iterator_base0@2@@std@@U?$_Wrap_alloc@V?$allocator@V?$_List_unchecked_const_iterator@V?$_List_val@U?$_List_simple_types@_K@std@@@std@@U_Iterator_base0@2@@std@@@std@@@2@@std@@QAE?AV?$_Vector_iterator@V?$_Vector_val@U?$_Simple_types@V?$_List_unchecked_const_iterator@V?$_List_val@U?$_List_simple_types@_K@std@@@std@@U_Iterator_base0@2@@std@@@std@@@std@@@2@XZ ; std::vector<std::_List_unchecked_const_iterator<std::_List_val<std::_List_simple_types<unsigned __int64> >,std::_Iterator_base0>,std::_Wrap_alloc<std::allocator<std::_List_unchecked_const_iterator<std::_List_val<std::_List_simple_types<unsigned __int64> >,std::_Iterator_base0> > > >::begin
PUBLIC	?size@?$vector@V?$_List_unchecked_const_iterator@V?$_List_val@U?$_List_simple_types@_K@std@@@std@@U_Iterator_base0@2@@std@@U?$_Wrap_alloc@V?$allocator@V?$_List_unchecked_const_iterator@V?$_List_val@U?$_List_simple_types@_K@std@@@std@@U_Iterator_base0@2@@std@@@std@@@2@@std@@QBEIXZ ; std::vector<std::_List_unchecked_const_iterator<std::_List_val<std::_List_simple_types<unsigned __int64> >,std::_Iterator_base0>,std::_Wrap_alloc<std::allocator<std::_List_unchecked_const_iterator<std::_List_val<std::_List_simple_types<unsigned __int64> >,std::_Iterator_base0> > > >::size
PUBLIC	?max_size@?$vector@V?$_List_unchecked_const_iterator@V?$_List_val@U?$_List_simple_types@_K@std@@@std@@U_Iterator_base0@2@@std@@U?$_Wrap_alloc@V?$allocator@V?$_List_unchecked_const_iterator@V?$_List_val@U?$_List_simple_types@_K@std@@@std@@U_Iterator_base0@2@@std@@@std@@@2@@std@@QBEIXZ ; std::vector<std::_List_unchecked_const_iterator<std::_List_val<std::_List_simple_types<unsigned __int64> >,std::_Iterator_base0>,std::_Wrap_alloc<std::allocator<std::_List_unchecked_const_iterator<std::_List_val<std::_List_simple_types<unsigned __int64> >,std::_Iterator_base0> > > >::max_size
PUBLIC	?assign@?$vector@V?$_List_unchecked_const_iterator@V?$_List_val@U?$_List_simple_types@_K@std@@@std@@U_Iterator_base0@2@@std@@U?$_Wrap_alloc@V?$allocator@V?$_List_unchecked_const_iterator@V?$_List_val@U?$_List_simple_types@_K@std@@@std@@U_Iterator_base0@2@@std@@@std@@@2@@std@@QAEXIABV?$_List_unchecked_const_iterator@V?$_List_val@U?$_List_simple_types@_K@std@@@std@@U_Iterator_base0@2@@2@@Z ; std::vector<std::_List_unchecked_const_iterator<std::_List_val<std::_List_simple_types<unsigned __int64> >,std::_Iterator_base0>,std::_Wrap_alloc<std::allocator<std::_List_unchecked_const_iterator<std::_List_val<std::_List_simple_types<unsigned __int64> >,std::_Iterator_base0> > > >::assign
PUBLIC	?insert@?$vector@V?$_List_unchecked_const_iterator@V?$_List_val@U?$_List_simple_types@_K@std@@@std@@U_Iterator_base0@2@@std@@U?$_Wrap_alloc@V?$allocator@V?$_List_unchecked_const_iterator@V?$_List_val@U?$_List_simple_types@_K@std@@@std@@U_Iterator_base0@2@@std@@@std@@@2@@std@@QAE?AV?$_Vector_iterator@V?$_Vector_val@U?$_Simple_types@V?$_List_unchecked_const_iterator@V?$_List_val@U?$_List_simple_types@_K@std@@@std@@U_Iterator_base0@2@@std@@@std@@@std@@@2@V?$_Vector_const_iterator@V?$_Vector_val@U?$_Simple_types@V?$_List_unchecked_const_iterator@V?$_List_val@U?$_List_simple_types@_K@std@@@std@@U_Iterator_base0@2@@std@@@std@@@std@@@2@IABV?$_List_unchecked_const_iterator@V?$_List_val@U?$_List_simple_types@_K@std@@@std@@U_Iterator_base0@2@@2@@Z ; std::vector<std::_List_unchecked_const_iterator<std::_List_val<std::_List_simple_types<unsigned __int64> >,std::_Iterator_base0>,std::_Wrap_alloc<std::allocator<std::_List_unchecked_const_iterator<std::_List_val<std::_List_simple_types<unsigned __int64> >,std::_Iterator_base0> > > >::insert
PUBLIC	?clear@?$vector@V?$_List_unchecked_const_iterator@V?$_List_val@U?$_List_simple_types@_K@std@@@std@@U_Iterator_base0@2@@std@@U?$_Wrap_alloc@V?$allocator@V?$_List_unchecked_const_iterator@V?$_List_val@U?$_List_simple_types@_K@std@@@std@@U_Iterator_base0@2@@std@@@std@@@2@@std@@QAEXXZ ; std::vector<std::_List_unchecked_const_iterator<std::_List_val<std::_List_simple_types<unsigned __int64> >,std::_Iterator_base0>,std::_Wrap_alloc<std::allocator<std::_List_unchecked_const_iterator<std::_List_val<std::_List_simple_types<unsigned __int64> >,std::_Iterator_base0> > > >::clear
PUBLIC	?_Destroy@?$vector@V?$_List_unchecked_const_iterator@V?$_List_val@U?$_List_simple_types@_K@std@@@std@@U_Iterator_base0@2@@std@@U?$_Wrap_alloc@V?$allocator@V?$_List_unchecked_const_iterator@V?$_List_val@U?$_List_simple_types@_K@std@@@std@@U_Iterator_base0@2@@std@@@std@@@2@@std@@IAEXPAV?$_List_unchecked_const_iterator@V?$_List_val@U?$_List_simple_types@_K@std@@@std@@U_Iterator_base0@2@@2@0@Z ; std::vector<std::_List_unchecked_const_iterator<std::_List_val<std::_List_simple_types<unsigned __int64> >,std::_Iterator_base0>,std::_Wrap_alloc<std::allocator<std::_List_unchecked_const_iterator<std::_List_val<std::_List_simple_types<unsigned __int64> >,std::_Iterator_base0> > > >::_Destroy
PUBLIC	?_Grow_to@?$vector@V?$_List_unchecked_const_iterator@V?$_List_val@U?$_List_simple_types@_K@std@@@std@@U_Iterator_base0@2@@std@@U?$_Wrap_alloc@V?$allocator@V?$_List_unchecked_const_iterator@V?$_List_val@U?$_List_simple_types@_K@std@@@std@@U_Iterator_base0@2@@std@@@std@@@2@@std@@IBEII@Z ; std::vector<std::_List_unchecked_const_iterator<std::_List_val<std::_List_simple_types<unsigned __int64> >,std::_Iterator_base0>,std::_Wrap_alloc<std::allocator<std::_List_unchecked_const_iterator<std::_List_val<std::_List_simple_types<unsigned __int64> >,std::_Iterator_base0> > > >::_Grow_to
PUBLIC	?_Tidy@?$vector@V?$_List_unchecked_const_iterator@V?$_List_val@U?$_List_simple_types@_K@std@@@std@@U_Iterator_base0@2@@std@@U?$_Wrap_alloc@V?$allocator@V?$_List_unchecked_const_iterator@V?$_List_val@U?$_List_simple_types@_K@std@@@std@@U_Iterator_base0@2@@std@@@std@@@2@@std@@IAEXXZ ; std::vector<std::_List_unchecked_const_iterator<std::_List_val<std::_List_simple_types<unsigned __int64> >,std::_Iterator_base0>,std::_Wrap_alloc<std::allocator<std::_List_unchecked_const_iterator<std::_List_val<std::_List_simple_types<unsigned __int64> >,std::_Iterator_base0> > > >::_Tidy
PUBLIC	?_Insert_n@?$vector@V?$_List_unchecked_const_iterator@V?$_List_val@U?$_List_simple_types@_K@std@@@std@@U_Iterator_base0@2@@std@@U?$_Wrap_alloc@V?$allocator@V?$_List_unchecked_const_iterator@V?$_List_val@U?$_List_simple_types@_K@std@@@std@@U_Iterator_base0@2@@std@@@std@@@2@@std@@IAE?AV?$_Vector_iterator@V?$_Vector_val@U?$_Simple_types@V?$_List_unchecked_const_iterator@V?$_List_val@U?$_List_simple_types@_K@std@@@std@@U_Iterator_base0@2@@std@@@std@@@std@@@2@V?$_Vector_const_iterator@V?$_Vector_val@U?$_Simple_types@V?$_List_unchecked_const_iterator@V?$_List_val@U?$_List_simple_types@_K@std@@@std@@U_Iterator_base0@2@@std@@@std@@@std@@@2@IABV?$_List_unchecked_const_iterator@V?$_List_val@U?$_List_simple_types@_K@std@@@std@@U_Iterator_base0@2@@2@@Z ; std::vector<std::_List_unchecked_const_iterator<std::_List_val<std::_List_simple_types<unsigned __int64> >,std::_Iterator_base0>,std::_Wrap_alloc<std::allocator<std::_List_unchecked_const_iterator<std::_List_val<std::_List_simple_types<unsigned __int64> >,std::_Iterator_base0> > > >::_Insert_n
PUBLIC	?_Ufill@?$vector@V?$_List_unchecked_const_iterator@V?$_List_val@U?$_List_simple_types@_K@std@@@std@@U_Iterator_base0@2@@std@@U?$_Wrap_alloc@V?$allocator@V?$_List_unchecked_const_iterator@V?$_List_val@U?$_List_simple_types@_K@std@@@std@@U_Iterator_base0@2@@std@@@std@@@2@@std@@IAEPAV?$_List_unchecked_const_iterator@V?$_List_val@U?$_List_simple_types@_K@std@@@std@@U_Iterator_base0@2@@2@PAV32@IPBV32@@Z ; std::vector<std::_List_unchecked_const_iterator<std::_List_val<std::_List_simple_types<unsigned __int64> >,std::_Iterator_base0>,std::_Wrap_alloc<std::allocator<std::_List_unchecked_const_iterator<std::_List_val<std::_List_simple_types<unsigned __int64> >,std::_Iterator_base0> > > >::_Ufill
PUBLIC	?_Xlen@?$vector@V?$_List_unchecked_const_iterator@V?$_List_val@U?$_List_simple_types@_K@std@@@std@@U_Iterator_base0@2@@std@@U?$_Wrap_alloc@V?$allocator@V?$_List_unchecked_const_iterator@V?$_List_val@U?$_List_simple_types@_K@std@@@std@@U_Iterator_base0@2@@std@@@std@@@2@@std@@IBEXXZ ; std::vector<std::_List_unchecked_const_iterator<std::_List_val<std::_List_simple_types<unsigned __int64> >,std::_Iterator_base0>,std::_Wrap_alloc<std::allocator<std::_List_unchecked_const_iterator<std::_List_val<std::_List_simple_types<unsigned __int64> >,std::_Iterator_base0> > > >::_Xlen
PUBLIC	?_Orphan_range@?$vector@V?$_List_unchecked_const_iterator@V?$_List_val@U?$_List_simple_types@_K@std@@@std@@U_Iterator_base0@2@@std@@U?$_Wrap_alloc@V?$allocator@V?$_List_unchecked_const_iterator@V?$_List_val@U?$_List_simple_types@_K@std@@@std@@U_Iterator_base0@2@@std@@@std@@@2@@std@@IBEXPAV?$_List_unchecked_const_iterator@V?$_List_val@U?$_List_simple_types@_K@std@@@std@@U_Iterator_base0@2@@2@0@Z ; std::vector<std::_List_unchecked_const_iterator<std::_List_val<std::_List_simple_types<unsigned __int64> >,std::_Iterator_base0>,std::_Wrap_alloc<std::allocator<std::_List_unchecked_const_iterator<std::_List_val<std::_List_simple_types<unsigned __int64> >,std::_Iterator_base0> > > >::_Orphan_range
PUBLIC	??0?$unordered_set@_KU?$hash@_K@std@@U?$equal_to@_K@2@V?$allocator@_K@2@@std@@QAE@XZ ; std::unordered_set<unsigned __int64,std::hash<unsigned __int64>,std::equal_to<unsigned __int64>,std::allocator<unsigned __int64> >::unordered_set<unsigned __int64,std::hash<unsigned __int64>,std::equal_to<unsigned __int64>,std::allocator<unsigned __int64> >
PUBLIC	??1?$unordered_set@_KU?$hash@_K@std@@U?$equal_to@_K@2@V?$allocator@_K@2@@std@@QAE@XZ ; std::unordered_set<unsigned __int64,std::hash<unsigned __int64>,std::equal_to<unsigned __int64>,std::allocator<unsigned __int64> >::~unordered_set<unsigned __int64,std::hash<unsigned __int64>,std::equal_to<unsigned __int64>,std::allocator<unsigned __int64> >
PUBLIC	??_GDrawEventRecorderPrivate@gfx@mozilla@@UAEPAXI@Z ; mozilla::gfx::DrawEventRecorderPrivate::`scalar deleting destructor'
PUBLIC	??0DrawEventRecorderFile@gfx@mozilla@@QAE@PBD@Z	; mozilla::gfx::DrawEventRecorderFile::DrawEventRecorderFile
PUBLIC	??1DrawEventRecorderFile@gfx@mozilla@@UAE@XZ	; mozilla::gfx::DrawEventRecorderFile::~DrawEventRecorderFile
PUBLIC	?Flush@DrawEventRecorderFile@gfx@mozilla@@EAEXXZ ; mozilla::gfx::DrawEventRecorderFile::Flush
PUBLIC	??0?$basic_ofstream@DU?$char_traits@D@std@@@std@@QAE@PBDHH@Z ; std::basic_ofstream<char,std::char_traits<char> >::basic_ofstream<char,std::char_traits<char> >
PUBLIC	??1?$basic_ofstream@DU?$char_traits@D@std@@@std@@UAE@XZ ; std::basic_ofstream<char,std::char_traits<char> >::~basic_ofstream<char,std::char_traits<char> >
PUBLIC	?close@?$basic_ofstream@DU?$char_traits@D@std@@@std@@QAEXXZ ; std::basic_ofstream<char,std::char_traits<char> >::close
PUBLIC	??0?$basic_filebuf@DU?$char_traits@D@std@@@std@@QAE@PAU_iobuf@@@Z ; std::basic_filebuf<char,std::char_traits<char> >::basic_filebuf<char,std::char_traits<char> >
PUBLIC	??1?$basic_filebuf@DU?$char_traits@D@std@@@std@@UAE@XZ ; std::basic_filebuf<char,std::char_traits<char> >::~basic_filebuf<char,std::char_traits<char> >
PUBLIC	?open@?$basic_filebuf@DU?$char_traits@D@std@@@std@@QAEPAV12@PBDHH@Z ; std::basic_filebuf<char,std::char_traits<char> >::open
PUBLIC	?close@?$basic_filebuf@DU?$char_traits@D@std@@@std@@QAEPAV12@XZ ; std::basic_filebuf<char,std::char_traits<char> >::close
PUBLIC	?_Lock@?$basic_filebuf@DU?$char_traits@D@std@@@std@@UAEXXZ ; std::basic_filebuf<char,std::char_traits<char> >::_Lock
PUBLIC	?_Unlock@?$basic_filebuf@DU?$char_traits@D@std@@@std@@UAEXXZ ; std::basic_filebuf<char,std::char_traits<char> >::_Unlock
PUBLIC	?overflow@?$basic_filebuf@DU?$char_traits@D@std@@@std@@MAEHH@Z ; std::basic_filebuf<char,std::char_traits<char> >::overflow
PUBLIC	?pbackfail@?$basic_filebuf@DU?$char_traits@D@std@@@std@@MAEHH@Z ; std::basic_filebuf<char,std::char_traits<char> >::pbackfail
PUBLIC	?underflow@?$basic_filebuf@DU?$char_traits@D@std@@@std@@MAEHXZ ; std::basic_filebuf<char,std::char_traits<char> >::underflow
PUBLIC	?uflow@?$basic_filebuf@DU?$char_traits@D@std@@@std@@MAEHXZ ; std::basic_filebuf<char,std::char_traits<char> >::uflow
PUBLIC	?seekoff@?$basic_filebuf@DU?$char_traits@D@std@@@std@@MAE?AV?$fpos@H@2@_JHH@Z ; std::basic_filebuf<char,std::char_traits<char> >::seekoff
PUBLIC	?seekpos@?$basic_filebuf@DU?$char_traits@D@std@@@std@@MAE?AV?$fpos@H@2@V32@H@Z ; std::basic_filebuf<char,std::char_traits<char> >::seekpos
PUBLIC	?setbuf@?$basic_filebuf@DU?$char_traits@D@std@@@std@@MAEPAV?$basic_streambuf@DU?$char_traits@D@std@@@2@PAD_J@Z ; std::basic_filebuf<char,std::char_traits<char> >::setbuf
PUBLIC	?sync@?$basic_filebuf@DU?$char_traits@D@std@@@std@@MAEHXZ ; std::basic_filebuf<char,std::char_traits<char> >::sync
PUBLIC	?imbue@?$basic_filebuf@DU?$char_traits@D@std@@@std@@MAEXABVlocale@2@@Z ; std::basic_filebuf<char,std::char_traits<char> >::imbue
PUBLIC	?_Init@?$basic_filebuf@DU?$char_traits@D@std@@@std@@IAEXPAU_iobuf@@W4_Initfl@12@@Z ; std::basic_filebuf<char,std::char_traits<char> >::_Init
PUBLIC	?_Endwrite@?$basic_filebuf@DU?$char_traits@D@std@@@std@@IAE_NXZ ; std::basic_filebuf<char,std::char_traits<char> >::_Endwrite
PUBLIC	?_Initcvt@?$basic_filebuf@DU?$char_traits@D@std@@@std@@IAEXPBV?$codecvt@DDH@2@@Z ; std::basic_filebuf<char,std::char_traits<char> >::_Initcvt
PUBLIC	?_Reset_back@?$basic_filebuf@DU?$char_traits@D@std@@@std@@AAEXXZ ; std::basic_filebuf<char,std::char_traits<char> >::_Reset_back
PUBLIC	?_Set_back@?$basic_filebuf@DU?$char_traits@D@std@@@std@@AAEXXZ ; std::basic_filebuf<char,std::char_traits<char> >::_Set_back
PUBLIC	??_G?$basic_filebuf@DU?$char_traits@D@std@@@std@@UAEPAXI@Z ; std::basic_filebuf<char,std::char_traits<char> >::`scalar deleting destructor'
PUBLIC	??_G?$basic_ofstream@DU?$char_traits@D@std@@@std@@UAEPAXI@Z ; std::basic_ofstream<char,std::char_traits<char> >::`scalar deleting destructor'
PUBLIC	??_D?$basic_ofstream@DU?$char_traits@D@std@@@std@@QAEXXZ ; std::basic_ofstream<char,std::char_traits<char> >::`vbase destructor'
PUBLIC	??_GDrawEventRecorderFile@gfx@mozilla@@UAEPAXI@Z ; mozilla::gfx::DrawEventRecorderFile::`scalar deleting destructor'
PUBLIC	??0DrawEventRecorderMemory@gfx@mozilla@@QAE@XZ	; mozilla::gfx::DrawEventRecorderMemory::DrawEventRecorderMemory
PUBLIC	?RecordingSize@DrawEventRecorderMemory@gfx@mozilla@@QAEIXZ ; mozilla::gfx::DrawEventRecorderMemory::RecordingSize
PUBLIC	?CopyRecording@DrawEventRecorderMemory@gfx@mozilla@@QAE_NPADI@Z ; mozilla::gfx::DrawEventRecorderMemory::CopyRecording
PUBLIC	?WipeRecording@DrawEventRecorderMemory@gfx@mozilla@@QAEXXZ ; mozilla::gfx::DrawEventRecorderMemory::WipeRecording
PUBLIC	??1DrawEventRecorderMemory@gfx@mozilla@@EAE@XZ	; mozilla::gfx::DrawEventRecorderMemory::~DrawEventRecorderMemory
PUBLIC	?Flush@DrawEventRecorderMemory@gfx@mozilla@@EAEXXZ ; mozilla::gfx::DrawEventRecorderMemory::Flush
PUBLIC	??_GDrawEventRecorderMemory@gfx@mozilla@@EAEPAXI@Z ; mozilla::gfx::DrawEventRecorderMemory::`scalar deleting destructor'
PUBLIC	??$WriteElement@I@gfx@mozilla@@YAXAAV?$basic_ostream@DU?$char_traits@D@std@@@std@@ABI@Z ; mozilla::gfx::WriteElement<unsigned int>
PUBLIC	??$WriteElement@G@gfx@mozilla@@YAXAAV?$basic_ostream@DU?$char_traits@D@std@@@std@@ABG@Z ; mozilla::gfx::WriteElement<unsigned short>
PUBLIC	??$WriteElement@H@gfx@mozilla@@YAXAAV?$basic_ostream@DU?$char_traits@D@std@@@std@@ABH@Z ; mozilla::gfx::WriteElement<int>
PUBLIC	??0?$fpos@H@std@@QAE@_J@Z			; std::fpos<int>::fpos<int>
PUBLIC	??0?$fpos@H@std@@QAE@H_J@Z			; std::fpos<int>::fpos<int>
PUBLIC	?state@?$fpos@H@std@@QBEHXZ			; std::fpos<int>::state
PUBLIC	?seekpos@?$fpos@H@std@@QBE_JXZ			; std::fpos<int>::seekpos
PUBLIC	??B?$fpos@H@std@@QBE_JXZ			; std::fpos<int>::operator __int64
PUBLIC	??0?$_Iterator012@Urandom_access_iterator_tag@std@@DHPBDABDU_Iterator_base12@2@@std@@QAE@XZ ; std::_Iterator012<std::random_access_iterator_tag,char,int,char const *,char const &,std::_Iterator_base12>::_Iterator012<std::random_access_iterator_tag,char,int,char const *,char const &,std::_Iterator_base12>
PUBLIC	??1?$_Iterator012@Urandom_access_iterator_tag@std@@DHPBDABDU_Iterator_base12@2@@std@@QAE@XZ ; std::_Iterator012<std::random_access_iterator_tag,char,int,char const *,char const &,std::_Iterator_base12>::~_Iterator012<std::random_access_iterator_tag,char,int,char const *,char const &,std::_Iterator_base12>
PUBLIC	??0?$_String_const_iterator@V?$_String_val@U?$_Simple_types@D@std@@@std@@@std@@QAE@PBDPBU_Container_base12@1@@Z ; std::_String_const_iterator<std::_String_val<std::_Simple_types<char> > >::_String_const_iterator<std::_String_val<std::_Simple_types<char> > >
PUBLIC	??D?$_String_const_iterator@V?$_String_val@U?$_Simple_types@D@std@@@std@@@std@@QBEABDXZ ; std::_String_const_iterator<std::_String_val<std::_Simple_types<char> > >::operator*
PUBLIC	??1?$_String_const_iterator@V?$_String_val@U?$_Simple_types@D@std@@@std@@@std@@QAE@XZ ; std::_String_const_iterator<std::_String_val<std::_Simple_types<char> > >::~_String_const_iterator<std::_String_val<std::_Simple_types<char> > >
PUBLIC	??0?$_String_iterator@V?$_String_val@U?$_Simple_types@D@std@@@std@@@std@@QAE@PADPBU_Container_base12@1@@Z ; std::_String_iterator<std::_String_val<std::_Simple_types<char> > >::_String_iterator<std::_String_val<std::_Simple_types<char> > >
PUBLIC	??D?$_String_iterator@V?$_String_val@U?$_Simple_types@D@std@@@std@@@std@@QBEAADXZ ; std::_String_iterator<std::_String_val<std::_Simple_types<char> > >::operator*
PUBLIC	??1?$_String_iterator@V?$_String_val@U?$_Simple_types@D@std@@@std@@@std@@QAE@XZ ; std::_String_iterator<std::_String_val<std::_Simple_types<char> > >::~_String_iterator<std::_String_val<std::_Simple_types<char> > >
PUBLIC	??$use_facet@V?$codecvt@DDH@std@@@std@@YAABV?$codecvt@DDH@0@ABVlocale@0@@Z ; std::use_facet<std::codecvt<char,char,int> >
PUBLIC	??$construct@PADAAPAD@?$_Wrap_alloc@V?$allocator@D@std@@@std@@QAEXPAPADAAPAD@Z ; std::_Wrap_alloc<std::allocator<char> >::construct<char *,char * &>
PUBLIC	??$destroy@PAD@?$_Wrap_alloc@V?$allocator@D@std@@@std@@QAEXPAPAD@Z ; std::_Wrap_alloc<std::allocator<char> >::destroy<char *>
PUBLIC	??$addressof@D@std@@YAPADAAD@Z			; std::addressof<char>
PUBLIC	??$_Allocate@D@std@@YAPADIPAD@Z			; std::_Allocate<char>
PUBLIC	??$?0V?$allocator@PBX@std@@@?$_Wrap_alloc@V?$allocator@V?$_List_unchecked_const_iterator@V?$_List_val@U?$_List_simple_types@PBX@std@@@std@@U_Iterator_base0@2@@std@@@std@@@std@@QAE@ABV?$allocator@PBX@1@@Z ; std::_Wrap_alloc<std::allocator<std::_List_unchecked_const_iterator<std::_List_val<std::_List_simple_types<void const *> >,std::_Iterator_base0> > >::_Wrap_alloc<std::allocator<std::_List_unchecked_const_iterator<std::_List_val<std::_List_simple_types<void const *> >,std::_Iterator_base0> > ><std::allocator<void const *> >
PUBLIC	??0?$_List_unchecked_const_iterator@V?$_List_val@U?$_List_simple_types@PBX@std@@@std@@U_Iterator_base0@2@@std@@QAE@PAU?$_List_node@PBXPAX@1@PBV?$_List_val@U?$_List_simple_types@PBX@std@@@1@@Z ; std::_List_unchecked_const_iterator<std::_List_val<std::_List_simple_types<void const *> >,std::_Iterator_base0>::_List_unchecked_const_iterator<std::_List_val<std::_List_simple_types<void const *> >,std::_Iterator_base0>
PUBLIC	??$?0V?$allocator@_K@std@@@?$_Wrap_alloc@V?$allocator@V?$_List_unchecked_const_iterator@V?$_List_val@U?$_List_simple_types@_K@std@@@std@@U_Iterator_base0@2@@std@@@std@@@std@@QAE@ABV?$allocator@_K@1@@Z ; std::_Wrap_alloc<std::allocator<std::_List_unchecked_const_iterator<std::_List_val<std::_List_simple_types<unsigned __int64> >,std::_Iterator_base0> > >::_Wrap_alloc<std::allocator<std::_List_unchecked_const_iterator<std::_List_val<std::_List_simple_types<unsigned __int64> >,std::_Iterator_base0> > ><std::allocator<unsigned __int64> >
PUBLIC	??0?$_List_unchecked_const_iterator@V?$_List_val@U?$_List_simple_types@_K@std@@@std@@U_Iterator_base0@2@@std@@QAE@PAU?$_List_node@_KPAX@1@PBV?$_List_val@U?$_List_simple_types@_K@std@@@1@@Z ; std::_List_unchecked_const_iterator<std::_List_val<std::_List_simple_types<unsigned __int64> >,std::_Iterator_base0>::_List_unchecked_const_iterator<std::_List_val<std::_List_simple_types<unsigned __int64> >,std::_Iterator_base0>
PUBLIC	??0?$allocator@U_Container_proxy@std@@@std@@QAE@XZ ; std::allocator<std::_Container_proxy>::allocator<std::_Container_proxy>
PUBLIC	?deallocate@?$allocator@U_Container_proxy@std@@@std@@QAEXPAU_Container_proxy@2@I@Z ; std::allocator<std::_Container_proxy>::deallocate
PUBLIC	?allocate@?$allocator@U_Container_proxy@std@@@std@@QAEPAU_Container_proxy@2@I@Z ; std::allocator<std::_Container_proxy>::allocate
PUBLIC	??$construct@U_Container_proxy@std@@U12@@?$allocator@U_Container_proxy@std@@@std@@QAEXPAU_Container_proxy@1@$$QAU21@@Z ; std::allocator<std::_Container_proxy>::construct<std::_Container_proxy,std::_Container_proxy>
PUBLIC	??$destroy@U_Container_proxy@std@@@?$allocator@U_Container_proxy@std@@@std@@QAEXPAU_Container_proxy@1@@Z ; std::allocator<std::_Container_proxy>::destroy<std::_Container_proxy>
PUBLIC	??0?$_Wrap_alloc@V?$allocator@U_Container_proxy@std@@@std@@@std@@QAE@XZ ; std::_Wrap_alloc<std::allocator<std::_Container_proxy> >::_Wrap_alloc<std::allocator<std::_Container_proxy> >
PUBLIC	?allocate@?$_Wrap_alloc@V?$allocator@U_Container_proxy@std@@@std@@@std@@QAEPAU_Container_proxy@2@I@Z ; std::_Wrap_alloc<std::allocator<std::_Container_proxy> >::allocate
PUBLIC	?deallocate@?$_Wrap_alloc@V?$allocator@U_Container_proxy@std@@@std@@@std@@QAEXPAU_Container_proxy@2@I@Z ; std::_Wrap_alloc<std::allocator<std::_Container_proxy> >::deallocate
PUBLIC	??$construct@U_Container_proxy@std@@U12@@?$_Wrap_alloc@V?$allocator@U_Container_proxy@std@@@std@@@std@@QAEXPAU_Container_proxy@1@$$QAU21@@Z ; std::_Wrap_alloc<std::allocator<std::_Container_proxy> >::construct<std::_Container_proxy,std::_Container_proxy>
PUBLIC	??$destroy@U_Container_proxy@std@@@?$_Wrap_alloc@V?$allocator@U_Container_proxy@std@@@std@@@std@@QAEXPAU_Container_proxy@1@@Z ; std::_Wrap_alloc<std::allocator<std::_Container_proxy> >::destroy<std::_Container_proxy>
PUBLIC	??0?$_List_unchecked_iterator@V?$_List_val@U?$_List_simple_types@PBX@std@@@std@@@std@@QAE@PAU?$_List_node@PBXPAX@1@PBV?$_List_val@U?$_List_simple_types@PBX@std@@@1@@Z ; std::_List_unchecked_iterator<std::_List_val<std::_List_simple_types<void const *> > >::_List_unchecked_iterator<std::_List_val<std::_List_simple_types<void const *> > >
PUBLIC	??$addressof@PAU?$_List_node@PBXPAX@std@@@std@@YAPAPAU?$_List_node@PBXPAX@0@AAPAU10@@Z ; std::addressof<std::_List_node<void const *,void *> *>
PUBLIC	??$destroy@PAU?$_List_node@PBXPAX@std@@@?$_Wrap_alloc@V?$allocator@U?$_List_node@PBXPAX@std@@@std@@@std@@QAEXPAPAU?$_List_node@PBXPAX@1@@Z ; std::_Wrap_alloc<std::allocator<std::_List_node<void const *,void *> > >::destroy<std::_List_node<void const *,void *> *>
PUBLIC	??0?$_Iterator012@Urandom_access_iterator_tag@std@@V?$_List_unchecked_const_iterator@V?$_List_val@U?$_List_simple_types@PBX@std@@@std@@U_Iterator_base0@2@@2@HPBV32@ABV32@U_Iterator_base12@2@@std@@QAE@XZ ; std::_Iterator012<std::random_access_iterator_tag,std::_List_unchecked_const_iterator<std::_List_val<std::_List_simple_types<void const *> >,std::_Iterator_base0>,int,std::_List_unchecked_const_iterator<std::_List_val<std::_List_simple_types<void const *> >,std::_Iterator_base0> const *,std::_List_unchecked_const_iterator<std::_List_val<std::_List_simple_types<void const *> >,std::_Iterator_base0> const &,std::_Iterator_base12>::_Iterator012<std::random_access_iterator_tag,std::_List_unchecked_const_iterator<std::_List_val<std::_List_simple_types<void const *> >,std::_Iterator_base0>,int,std::_List_unchecked_const_iterator<std::_List_val<std::_List_simple_types<void const *> >,std::_Iterator_base0> const *,std::_List_unchecked_const_iterator<std::_List_val<std::_List_simple_types<void const *> >,std::_Iterator_base0> const &,std::_Iterator_base12>
PUBLIC	??1?$_Iterator012@Urandom_access_iterator_tag@std@@V?$_List_unchecked_const_iterator@V?$_List_val@U?$_List_simple_types@PBX@std@@@std@@U_Iterator_base0@2@@2@HPBV32@ABV32@U_Iterator_base12@2@@std@@QAE@XZ ; std::_Iterator012<std::random_access_iterator_tag,std::_List_unchecked_const_iterator<std::_List_val<std::_List_simple_types<void const *> >,std::_Iterator_base0>,int,std::_List_unchecked_const_iterator<std::_List_val<std::_List_simple_types<void const *> >,std::_Iterator_base0> const *,std::_List_unchecked_const_iterator<std::_List_val<std::_List_simple_types<void const *> >,std::_Iterator_base0> const &,std::_Iterator_base12>::~_Iterator012<std::random_access_iterator_tag,std::_List_unchecked_const_iterator<std::_List_val<std::_List_simple_types<void const *> >,std::_Iterator_base0>,int,std::_List_unchecked_const_iterator<std::_List_val<std::_List_simple_types<void const *> >,std::_Iterator_base0> const *,std::_List_unchecked_const_iterator<std::_List_val<std::_List_simple_types<void const *> >,std::_Iterator_base0> const &,std::_Iterator_base12>
PUBLIC	??0?$_Iterator012@Urandom_access_iterator_tag@std@@V?$_List_unchecked_const_iterator@V?$_List_val@U?$_List_simple_types@PBX@std@@@std@@U_Iterator_base0@2@@2@HPBV32@ABV32@U_Iterator_base12@2@@std@@QAE@ABU01@@Z ; std::_Iterator012<std::random_access_iterator_tag,std::_List_unchecked_const_iterator<std::_List_val<std::_List_simple_types<void const *> >,std::_Iterator_base0>,int,std::_List_unchecked_const_iterator<std::_List_val<std::_List_simple_types<void const *> >,std::_Iterator_base0> const *,std::_List_unchecked_const_iterator<std::_List_val<std::_List_simple_types<void const *> >,std::_Iterator_base0> const &,std::_Iterator_base12>::_Iterator012<std::random_access_iterator_tag,std::_List_unchecked_const_iterator<std::_List_val<std::_List_simple_types<void const *> >,std::_Iterator_base0>,int,std::_List_unchecked_const_iterator<std::_List_val<std::_List_simple_types<void const *> >,std::_Iterator_base0> const *,std::_List_unchecked_const_iterator<std::_List_val<std::_List_simple_types<void const *> >,std::_Iterator_base0> const &,std::_Iterator_base12>
PUBLIC	??0?$_Vector_const_iterator@V?$_Vector_val@U?$_Simple_types@V?$_List_unchecked_const_iterator@V?$_List_val@U?$_List_simple_types@PBX@std@@@std@@U_Iterator_base0@2@@std@@@std@@@std@@@std@@QAE@PAV?$_List_unchecked_const_iterator@V?$_List_val@U?$_List_simple_types@PBX@std@@@std@@U_Iterator_base0@2@@1@PBU_Container_base12@1@@Z ; std::_Vector_const_iterator<std::_Vector_val<std::_Simple_types<std::_List_unchecked_const_iterator<std::_List_val<std::_List_simple_types<void const *> >,std::_Iterator_base0> > > >::_Vector_const_iterator<std::_Vector_val<std::_Simple_types<std::_List_unchecked_const_iterator<std::_List_val<std::_List_simple_types<void const *> >,std::_Iterator_base0> > > >
PUBLIC	??Y?$_Vector_const_iterator@V?$_Vector_val@U?$_Simple_types@V?$_List_unchecked_const_iterator@V?$_List_val@U?$_List_simple_types@PBX@std@@@std@@U_Iterator_base0@2@@std@@@std@@@std@@@std@@QAEAAV01@H@Z ; std::_Vector_const_iterator<std::_Vector_val<std::_Simple_types<std::_List_unchecked_const_iterator<std::_List_val<std::_List_simple_types<void const *> >,std::_Iterator_base0> > > >::operator+=
PUBLIC	??1?$_Vector_const_iterator@V?$_Vector_val@U?$_Simple_types@V?$_List_unchecked_const_iterator@V?$_List_val@U?$_List_simple_types@PBX@std@@@std@@U_Iterator_base0@2@@std@@@std@@@std@@@std@@QAE@XZ ; std::_Vector_const_iterator<std::_Vector_val<std::_Simple_types<std::_List_unchecked_const_iterator<std::_List_val<std::_List_simple_types<void const *> >,std::_Iterator_base0> > > >::~_Vector_const_iterator<std::_Vector_val<std::_Simple_types<std::_List_unchecked_const_iterator<std::_List_val<std::_List_simple_types<void const *> >,std::_Iterator_base0> > > >
PUBLIC	??0?$_Vector_const_iterator@V?$_Vector_val@U?$_Simple_types@V?$_List_unchecked_const_iterator@V?$_List_val@U?$_List_simple_types@PBX@std@@@std@@U_Iterator_base0@2@@std@@@std@@@std@@@std@@QAE@ABV01@@Z ; std::_Vector_const_iterator<std::_Vector_val<std::_Simple_types<std::_List_unchecked_const_iterator<std::_List_val<std::_List_simple_types<void const *> >,std::_Iterator_base0> > > >::_Vector_const_iterator<std::_Vector_val<std::_Simple_types<std::_List_unchecked_const_iterator<std::_List_val<std::_List_simple_types<void const *> >,std::_Iterator_base0> > > >
PUBLIC	??0?$_Vector_iterator@V?$_Vector_val@U?$_Simple_types@V?$_List_unchecked_const_iterator@V?$_List_val@U?$_List_simple_types@PBX@std@@@std@@U_Iterator_base0@2@@std@@@std@@@std@@@std@@QAE@PAV?$_List_unchecked_const_iterator@V?$_List_val@U?$_List_simple_types@PBX@std@@@std@@U_Iterator_base0@2@@1@PBU_Container_base12@1@@Z ; std::_Vector_iterator<std::_Vector_val<std::_Simple_types<std::_List_unchecked_const_iterator<std::_List_val<std::_List_simple_types<void const *> >,std::_Iterator_base0> > > >::_Vector_iterator<std::_Vector_val<std::_Simple_types<std::_List_unchecked_const_iterator<std::_List_val<std::_List_simple_types<void const *> >,std::_Iterator_base0> > > >
PUBLIC	??Y?$_Vector_iterator@V?$_Vector_val@U?$_Simple_types@V?$_List_unchecked_const_iterator@V?$_List_val@U?$_List_simple_types@PBX@std@@@std@@U_Iterator_base0@2@@std@@@std@@@std@@@std@@QAEAAV01@H@Z ; std::_Vector_iterator<std::_Vector_val<std::_Simple_types<std::_List_unchecked_const_iterator<std::_List_val<std::_List_simple_types<void const *> >,std::_Iterator_base0> > > >::operator+=
PUBLIC	??H?$_Vector_iterator@V?$_Vector_val@U?$_Simple_types@V?$_List_unchecked_const_iterator@V?$_List_val@U?$_List_simple_types@PBX@std@@@std@@U_Iterator_base0@2@@std@@@std@@@std@@@std@@QBE?AV01@H@Z ; std::_Vector_iterator<std::_Vector_val<std::_Simple_types<std::_List_unchecked_const_iterator<std::_List_val<std::_List_simple_types<void const *> >,std::_Iterator_base0> > > >::operator+
PUBLIC	??1?$_Vector_iterator@V?$_Vector_val@U?$_Simple_types@V?$_List_unchecked_const_iterator@V?$_List_val@U?$_List_simple_types@PBX@std@@@std@@U_Iterator_base0@2@@std@@@std@@@std@@@std@@QAE@XZ ; std::_Vector_iterator<std::_Vector_val<std::_Simple_types<std::_List_unchecked_const_iterator<std::_List_val<std::_List_simple_types<void const *> >,std::_Iterator_base0> > > >::~_Vector_iterator<std::_Vector_val<std::_Simple_types<std::_List_unchecked_const_iterator<std::_List_val<std::_List_simple_types<void const *> >,std::_Iterator_base0> > > >
PUBLIC	??0?$_Vector_iterator@V?$_Vector_val@U?$_Simple_types@V?$_List_unchecked_const_iterator@V?$_List_val@U?$_List_simple_types@PBX@std@@@std@@U_Iterator_base0@2@@std@@@std@@@std@@@std@@QAE@ABV01@@Z ; std::_Vector_iterator<std::_Vector_val<std::_Simple_types<std::_List_unchecked_const_iterator<std::_List_val<std::_List_simple_types<void const *> >,std::_Iterator_base0> > > >::_Vector_iterator<std::_Vector_val<std::_Simple_types<std::_List_unchecked_const_iterator<std::_List_val<std::_List_simple_types<void const *> >,std::_Iterator_base0> > > >
PUBLIC	??$_Destroy_range@U?$_Wrap_alloc@U?$_Wrap_alloc@V?$allocator@V?$_List_unchecked_const_iterator@V?$_List_val@U?$_List_simple_types@PBX@std@@@std@@U_Iterator_base0@2@@std@@@std@@@std@@@std@@@std@@YAXPAV?$_List_unchecked_const_iterator@V?$_List_val@U?$_List_simple_types@PBX@std@@@std@@U_Iterator_base0@2@@0@0AAU?$_Wrap_alloc@U?$_Wrap_alloc@V?$allocator@V?$_List_unchecked_const_iterator@V?$_List_val@U?$_List_simple_types@PBX@std@@@std@@U_Iterator_base0@2@@std@@@std@@@std@@@0@@Z ; std::_Destroy_range<std::_Wrap_alloc<std::_Wrap_alloc<std::allocator<std::_List_unchecked_const_iterator<std::_List_val<std::_List_simple_types<void const *> >,std::_Iterator_base0> > > > >
PUBLIC	??0?$_Wrap_alloc@U?$_Wrap_alloc@V?$allocator@U_Container_proxy@std@@@std@@@std@@@std@@QAE@XZ ; std::_Wrap_alloc<std::_Wrap_alloc<std::allocator<std::_Container_proxy> > >::_Wrap_alloc<std::_Wrap_alloc<std::allocator<std::_Container_proxy> > >
PUBLIC	?allocate@?$_Wrap_alloc@U?$_Wrap_alloc@V?$allocator@U_Container_proxy@std@@@std@@@std@@@std@@QAEPAU_Container_proxy@2@I@Z ; std::_Wrap_alloc<std::_Wrap_alloc<std::allocator<std::_Container_proxy> > >::allocate
PUBLIC	?deallocate@?$_Wrap_alloc@U?$_Wrap_alloc@V?$allocator@U_Container_proxy@std@@@std@@@std@@@std@@QAEXPAU_Container_proxy@2@I@Z ; std::_Wrap_alloc<std::_Wrap_alloc<std::allocator<std::_Container_proxy> > >::deallocate
PUBLIC	??$destroy@U_Container_proxy@std@@@?$_Wrap_alloc@U?$_Wrap_alloc@V?$allocator@U_Container_proxy@std@@@std@@@std@@@std@@QAEXPAU_Container_proxy@1@@Z ; std::_Wrap_alloc<std::_Wrap_alloc<std::allocator<std::_Container_proxy> > >::destroy<std::_Container_proxy>
PUBLIC	??0?$_List_unchecked_iterator@V?$_List_val@U?$_List_simple_types@_K@std@@@std@@@std@@QAE@PAU?$_List_node@_KPAX@1@PBV?$_List_val@U?$_List_simple_types@_K@std@@@1@@Z ; std::_List_unchecked_iterator<std::_List_val<std::_List_simple_types<unsigned __int64> > >::_List_unchecked_iterator<std::_List_val<std::_List_simple_types<unsigned __int64> > >
PUBLIC	??$addressof@PAU?$_List_node@_KPAX@std@@@std@@YAPAPAU?$_List_node@_KPAX@0@AAPAU10@@Z ; std::addressof<std::_List_node<unsigned __int64,void *> *>
PUBLIC	??$destroy@PAU?$_List_node@_KPAX@std@@@?$_Wrap_alloc@V?$allocator@U?$_List_node@_KPAX@std@@@std@@@std@@QAEXPAPAU?$_List_node@_KPAX@1@@Z ; std::_Wrap_alloc<std::allocator<std::_List_node<unsigned __int64,void *> > >::destroy<std::_List_node<unsigned __int64,void *> *>
PUBLIC	??0?$_Iterator012@Urandom_access_iterator_tag@std@@V?$_List_unchecked_const_iterator@V?$_List_val@U?$_List_simple_types@_K@std@@@std@@U_Iterator_base0@2@@2@HPBV32@ABV32@U_Iterator_base12@2@@std@@QAE@XZ ; std::_Iterator012<std::random_access_iterator_tag,std::_List_unchecked_const_iterator<std::_List_val<std::_List_simple_types<unsigned __int64> >,std::_Iterator_base0>,int,std::_List_unchecked_const_iterator<std::_List_val<std::_List_simple_types<unsigned __int64> >,std::_Iterator_base0> const *,std::_List_unchecked_const_iterator<std::_List_val<std::_List_simple_types<unsigned __int64> >,std::_Iterator_base0> const &,std::_Iterator_base12>::_Iterator012<std::random_access_iterator_tag,std::_List_unchecked_const_iterator<std::_List_val<std::_List_simple_types<unsigned __int64> >,std::_Iterator_base0>,int,std::_List_unchecked_const_iterator<std::_List_val<std::_List_simple_types<unsigned __int64> >,std::_Iterator_base0> const *,std::_List_unchecked_const_iterator<std::_List_val<std::_List_simple_types<unsigned __int64> >,std::_Iterator_base0> const &,std::_Iterator_base12>
PUBLIC	??1?$_Iterator012@Urandom_access_iterator_tag@std@@V?$_List_unchecked_const_iterator@V?$_List_val@U?$_List_simple_types@_K@std@@@std@@U_Iterator_base0@2@@2@HPBV32@ABV32@U_Iterator_base12@2@@std@@QAE@XZ ; std::_Iterator012<std::random_access_iterator_tag,std::_List_unchecked_const_iterator<std::_List_val<std::_List_simple_types<unsigned __int64> >,std::_Iterator_base0>,int,std::_List_unchecked_const_iterator<std::_List_val<std::_List_simple_types<unsigned __int64> >,std::_Iterator_base0> const *,std::_List_unchecked_const_iterator<std::_List_val<std::_List_simple_types<unsigned __int64> >,std::_Iterator_base0> const &,std::_Iterator_base12>::~_Iterator012<std::random_access_iterator_tag,std::_List_unchecked_const_iterator<std::_List_val<std::_List_simple_types<unsigned __int64> >,std::_Iterator_base0>,int,std::_List_unchecked_const_iterator<std::_List_val<std::_List_simple_types<unsigned __int64> >,std::_Iterator_base0> const *,std::_List_unchecked_const_iterator<std::_List_val<std::_List_simple_types<unsigned __int64> >,std::_Iterator_base0> const &,std::_Iterator_base12>
PUBLIC	??0?$_Iterator012@Urandom_access_iterator_tag@std@@V?$_List_unchecked_const_iterator@V?$_List_val@U?$_List_simple_types@_K@std@@@std@@U_Iterator_base0@2@@2@HPBV32@ABV32@U_Iterator_base12@2@@std@@QAE@ABU01@@Z ; std::_Iterator012<std::random_access_iterator_tag,std::_List_unchecked_const_iterator<std::_List_val<std::_List_simple_types<unsigned __int64> >,std::_Iterator_base0>,int,std::_List_unchecked_const_iterator<std::_List_val<std::_List_simple_types<unsigned __int64> >,std::_Iterator_base0> const *,std::_List_unchecked_const_iterator<std::_List_val<std::_List_simple_types<unsigned __int64> >,std::_Iterator_base0> const &,std::_Iterator_base12>::_Iterator012<std::random_access_iterator_tag,std::_List_unchecked_const_iterator<std::_List_val<std::_List_simple_types<unsigned __int64> >,std::_Iterator_base0>,int,std::_List_unchecked_const_iterator<std::_List_val<std::_List_simple_types<unsigned __int64> >,std::_Iterator_base0> const *,std::_List_unchecked_const_iterator<std::_List_val<std::_List_simple_types<unsigned __int64> >,std::_Iterator_base0> const &,std::_Iterator_base12>
PUBLIC	??0?$_Vector_const_iterator@V?$_Vector_val@U?$_Simple_types@V?$_List_unchecked_const_iterator@V?$_List_val@U?$_List_simple_types@_K@std@@@std@@U_Iterator_base0@2@@std@@@std@@@std@@@std@@QAE@PAV?$_List_unchecked_const_iterator@V?$_List_val@U?$_List_simple_types@_K@std@@@std@@U_Iterator_base0@2@@1@PBU_Container_base12@1@@Z ; std::_Vector_const_iterator<std::_Vector_val<std::_Simple_types<std::_List_unchecked_const_iterator<std::_List_val<std::_List_simple_types<unsigned __int64> >,std::_Iterator_base0> > > >::_Vector_const_iterator<std::_Vector_val<std::_Simple_types<std::_List_unchecked_const_iterator<std::_List_val<std::_List_simple_types<unsigned __int64> >,std::_Iterator_base0> > > >
PUBLIC	??Y?$_Vector_const_iterator@V?$_Vector_val@U?$_Simple_types@V?$_List_unchecked_const_iterator@V?$_List_val@U?$_List_simple_types@_K@std@@@std@@U_Iterator_base0@2@@std@@@std@@@std@@@std@@QAEAAV01@H@Z ; std::_Vector_const_iterator<std::_Vector_val<std::_Simple_types<std::_List_unchecked_const_iterator<std::_List_val<std::_List_simple_types<unsigned __int64> >,std::_Iterator_base0> > > >::operator+=
PUBLIC	??1?$_Vector_const_iterator@V?$_Vector_val@U?$_Simple_types@V?$_List_unchecked_const_iterator@V?$_List_val@U?$_List_simple_types@_K@std@@@std@@U_Iterator_base0@2@@std@@@std@@@std@@@std@@QAE@XZ ; std::_Vector_const_iterator<std::_Vector_val<std::_Simple_types<std::_List_unchecked_const_iterator<std::_List_val<std::_List_simple_types<unsigned __int64> >,std::_Iterator_base0> > > >::~_Vector_const_iterator<std::_Vector_val<std::_Simple_types<std::_List_unchecked_const_iterator<std::_List_val<std::_List_simple_types<unsigned __int64> >,std::_Iterator_base0> > > >
PUBLIC	??0?$_Vector_const_iterator@V?$_Vector_val@U?$_Simple_types@V?$_List_unchecked_const_iterator@V?$_List_val@U?$_List_simple_types@_K@std@@@std@@U_Iterator_base0@2@@std@@@std@@@std@@@std@@QAE@ABV01@@Z ; std::_Vector_const_iterator<std::_Vector_val<std::_Simple_types<std::_List_unchecked_const_iterator<std::_List_val<std::_List_simple_types<unsigned __int64> >,std::_Iterator_base0> > > >::_Vector_const_iterator<std::_Vector_val<std::_Simple_types<std::_List_unchecked_const_iterator<std::_List_val<std::_List_simple_types<unsigned __int64> >,std::_Iterator_base0> > > >
PUBLIC	??0?$_Vector_iterator@V?$_Vector_val@U?$_Simple_types@V?$_List_unchecked_const_iterator@V?$_List_val@U?$_List_simple_types@_K@std@@@std@@U_Iterator_base0@2@@std@@@std@@@std@@@std@@QAE@PAV?$_List_unchecked_const_iterator@V?$_List_val@U?$_List_simple_types@_K@std@@@std@@U_Iterator_base0@2@@1@PBU_Container_base12@1@@Z ; std::_Vector_iterator<std::_Vector_val<std::_Simple_types<std::_List_unchecked_const_iterator<std::_List_val<std::_List_simple_types<unsigned __int64> >,std::_Iterator_base0> > > >::_Vector_iterator<std::_Vector_val<std::_Simple_types<std::_List_unchecked_const_iterator<std::_List_val<std::_List_simple_types<unsigned __int64> >,std::_Iterator_base0> > > >
PUBLIC	??Y?$_Vector_iterator@V?$_Vector_val@U?$_Simple_types@V?$_List_unchecked_const_iterator@V?$_List_val@U?$_List_simple_types@_K@std@@@std@@U_Iterator_base0@2@@std@@@std@@@std@@@std@@QAEAAV01@H@Z ; std::_Vector_iterator<std::_Vector_val<std::_Simple_types<std::_List_unchecked_const_iterator<std::_List_val<std::_List_simple_types<unsigned __int64> >,std::_Iterator_base0> > > >::operator+=
PUBLIC	??H?$_Vector_iterator@V?$_Vector_val@U?$_Simple_types@V?$_List_unchecked_const_iterator@V?$_List_val@U?$_List_simple_types@_K@std@@@std@@U_Iterator_base0@2@@std@@@std@@@std@@@std@@QBE?AV01@H@Z ; std::_Vector_iterator<std::_Vector_val<std::_Simple_types<std::_List_unchecked_const_iterator<std::_List_val<std::_List_simple_types<unsigned __int64> >,std::_Iterator_base0> > > >::operator+
PUBLIC	??1?$_Vector_iterator@V?$_Vector_val@U?$_Simple_types@V?$_List_unchecked_const_iterator@V?$_List_val@U?$_List_simple_types@_K@std@@@std@@U_Iterator_base0@2@@std@@@std@@@std@@@std@@QAE@XZ ; std::_Vector_iterator<std::_Vector_val<std::_Simple_types<std::_List_unchecked_const_iterator<std::_List_val<std::_List_simple_types<unsigned __int64> >,std::_Iterator_base0> > > >::~_Vector_iterator<std::_Vector_val<std::_Simple_types<std::_List_unchecked_const_iterator<std::_List_val<std::_List_simple_types<unsigned __int64> >,std::_Iterator_base0> > > >
PUBLIC	??0?$_Vector_iterator@V?$_Vector_val@U?$_Simple_types@V?$_List_unchecked_const_iterator@V?$_List_val@U?$_List_simple_types@_K@std@@@std@@U_Iterator_base0@2@@std@@@std@@@std@@@std@@QAE@ABV01@@Z ; std::_Vector_iterator<std::_Vector_val<std::_Simple_types<std::_List_unchecked_const_iterator<std::_List_val<std::_List_simple_types<unsigned __int64> >,std::_Iterator_base0> > > >::_Vector_iterator<std::_Vector_val<std::_Simple_types<std::_List_unchecked_const_iterator<std::_List_val<std::_List_simple_types<unsigned __int64> >,std::_Iterator_base0> > > >
PUBLIC	??$_Destroy_range@U?$_Wrap_alloc@U?$_Wrap_alloc@V?$allocator@V?$_List_unchecked_const_iterator@V?$_List_val@U?$_List_simple_types@_K@std@@@std@@U_Iterator_base0@2@@std@@@std@@@std@@@std@@@std@@YAXPAV?$_List_unchecked_const_iterator@V?$_List_val@U?$_List_simple_types@_K@std@@@std@@U_Iterator_base0@2@@0@0AAU?$_Wrap_alloc@U?$_Wrap_alloc@V?$allocator@V?$_List_unchecked_const_iterator@V?$_List_val@U?$_List_simple_types@_K@std@@@std@@U_Iterator_base0@2@@std@@@std@@@std@@@0@@Z ; std::_Destroy_range<std::_Wrap_alloc<std::_Wrap_alloc<std::allocator<std::_List_unchecked_const_iterator<std::_List_val<std::_List_simple_types<unsigned __int64> >,std::_Iterator_base0> > > > >
PUBLIC	??$_Allocate@U_Container_proxy@std@@@std@@YAPAU_Container_proxy@0@IPAU10@@Z ; std::_Allocate<std::_Container_proxy>
PUBLIC	??$addressof@PBX@std@@YAPAPBXAAPBX@Z		; std::addressof<void const *>
PUBLIC	??$destroy@PBX@?$_Wrap_alloc@V?$allocator@U?$_List_node@PBXPAX@std@@@std@@@std@@QAEXPAPBX@Z ; std::_Wrap_alloc<std::allocator<std::_List_node<void const *,void *> > >::destroy<void const *>
PUBLIC	??$construct@U_Container_proxy@std@@U12@@?$_Wrap_alloc@U?$_Wrap_alloc@V?$allocator@U_Container_proxy@std@@@std@@@std@@@std@@QAEXPAU_Container_proxy@1@$$QAU21@@Z ; std::_Wrap_alloc<std::_Wrap_alloc<std::allocator<std::_Container_proxy> > >::construct<std::_Container_proxy,std::_Container_proxy>
PUBLIC	??$addressof@_K@std@@YAPA_KAA_K@Z		; std::addressof<unsigned __int64>
PUBLIC	??$destroy@_K@?$_Wrap_alloc@V?$allocator@U?$_List_node@_KPAX@std@@@std@@@std@@QAEXPA_K@Z ; std::_Wrap_alloc<std::allocator<std::_List_node<unsigned __int64,void *> > >::destroy<unsigned __int64>
PUBLIC	??$addressof@$$CBV?$_List_unchecked_const_iterator@V?$_List_val@U?$_List_simple_types@PBX@std@@@std@@U_Iterator_base0@2@@std@@@std@@YAPBV?$_List_unchecked_const_iterator@V?$_List_val@U?$_List_simple_types@PBX@std@@@std@@U_Iterator_base0@2@@0@ABV10@@Z ; std::addressof<std::_List_unchecked_const_iterator<std::_List_val<std::_List_simple_types<void const *> >,std::_Iterator_base0> const >
PUBLIC	??$_Umove@PAV?$_List_unchecked_const_iterator@V?$_List_val@U?$_List_simple_types@PBX@std@@@std@@U_Iterator_base0@2@@std@@@?$vector@V?$_List_unchecked_const_iterator@V?$_List_val@U?$_List_simple_types@PBX@std@@@std@@U_Iterator_base0@2@@std@@U?$_Wrap_alloc@V?$allocator@V?$_List_unchecked_const_iterator@V?$_List_val@U?$_List_simple_types@PBX@std@@@std@@U_Iterator_base0@2@@std@@@std@@@2@@std@@IAEPAV?$_List_unchecked_const_iterator@V?$_List_val@U?$_List_simple_types@PBX@std@@@std@@U_Iterator_base0@2@@1@PAV21@00@Z ; std::vector<std::_List_unchecked_const_iterator<std::_List_val<std::_List_simple_types<void const *> >,std::_Iterator_base0>,std::_Wrap_alloc<std::allocator<std::_List_unchecked_const_iterator<std::_List_val<std::_List_simple_types<void const *> >,std::_Iterator_base0> > > >::_Umove<std::_List_unchecked_const_iterator<std::_List_val<std::_List_simple_types<void const *> >,std::_Iterator_base0> *>
PUBLIC	??$addressof@V?$_List_unchecked_const_iterator@V?$_List_val@U?$_List_simple_types@PBX@std@@@std@@U_Iterator_base0@2@@std@@@std@@YAPAV?$_List_unchecked_const_iterator@V?$_List_val@U?$_List_simple_types@PBX@std@@@std@@U_Iterator_base0@2@@0@AAV10@@Z ; std::addressof<std::_List_unchecked_const_iterator<std::_List_val<std::_List_simple_types<void const *> >,std::_Iterator_base0> >
PUBLIC	??$fill@PAV?$_List_unchecked_const_iterator@V?$_List_val@U?$_List_simple_types@PBX@std@@@std@@U_Iterator_base0@2@@std@@V12@@std@@YAXPAV?$_List_unchecked_const_iterator@V?$_List_val@U?$_List_simple_types@PBX@std@@@std@@U_Iterator_base0@2@@0@0ABV10@@Z ; std::fill<std::_List_unchecked_const_iterator<std::_List_val<std::_List_simple_types<void const *> >,std::_Iterator_base0> *,std::_List_unchecked_const_iterator<std::_List_val<std::_List_simple_types<void const *> >,std::_Iterator_base0> >
PUBLIC	??$_Copy_backward@PAV?$_List_unchecked_const_iterator@V?$_List_val@U?$_List_simple_types@PBX@std@@@std@@U_Iterator_base0@2@@std@@PAV12@@std@@YAPAV?$_List_unchecked_const_iterator@V?$_List_val@U?$_List_simple_types@PBX@std@@@std@@U_Iterator_base0@2@@0@PAV10@00@Z ; std::_Copy_backward<std::_List_unchecked_const_iterator<std::_List_val<std::_List_simple_types<void const *> >,std::_Iterator_base0> *,std::_List_unchecked_const_iterator<std::_List_val<std::_List_simple_types<void const *> >,std::_Iterator_base0> *>
PUBLIC	??$addressof@$$CBV?$_List_unchecked_const_iterator@V?$_List_val@U?$_List_simple_types@_K@std@@@std@@U_Iterator_base0@2@@std@@@std@@YAPBV?$_List_unchecked_const_iterator@V?$_List_val@U?$_List_simple_types@_K@std@@@std@@U_Iterator_base0@2@@0@ABV10@@Z ; std::addressof<std::_List_unchecked_const_iterator<std::_List_val<std::_List_simple_types<unsigned __int64> >,std::_Iterator_base0> const >
PUBLIC	??$_Umove@PAV?$_List_unchecked_const_iterator@V?$_List_val@U?$_List_simple_types@_K@std@@@std@@U_Iterator_base0@2@@std@@@?$vector@V?$_List_unchecked_const_iterator@V?$_List_val@U?$_List_simple_types@_K@std@@@std@@U_Iterator_base0@2@@std@@U?$_Wrap_alloc@V?$allocator@V?$_List_unchecked_const_iterator@V?$_List_val@U?$_List_simple_types@_K@std@@@std@@U_Iterator_base0@2@@std@@@std@@@2@@std@@IAEPAV?$_List_unchecked_const_iterator@V?$_List_val@U?$_List_simple_types@_K@std@@@std@@U_Iterator_base0@2@@1@PAV21@00@Z ; std::vector<std::_List_unchecked_const_iterator<std::_List_val<std::_List_simple_types<unsigned __int64> >,std::_Iterator_base0>,std::_Wrap_alloc<std::allocator<std::_List_unchecked_const_iterator<std::_List_val<std::_List_simple_types<unsigned __int64> >,std::_Iterator_base0> > > >::_Umove<std::_List_unchecked_const_iterator<std::_List_val<std::_List_simple_types<unsigned __int64> >,std::_Iterator_base0> *>
PUBLIC	??$addressof@V?$_List_unchecked_const_iterator@V?$_List_val@U?$_List_simple_types@_K@std@@@std@@U_Iterator_base0@2@@std@@@std@@YAPAV?$_List_unchecked_const_iterator@V?$_List_val@U?$_List_simple_types@_K@std@@@std@@U_Iterator_base0@2@@0@AAV10@@Z ; std::addressof<std::_List_unchecked_const_iterator<std::_List_val<std::_List_simple_types<unsigned __int64> >,std::_Iterator_base0> >
PUBLIC	??$fill@PAV?$_List_unchecked_const_iterator@V?$_List_val@U?$_List_simple_types@_K@std@@@std@@U_Iterator_base0@2@@std@@V12@@std@@YAXPAV?$_List_unchecked_const_iterator@V?$_List_val@U?$_List_simple_types@_K@std@@@std@@U_Iterator_base0@2@@0@0ABV10@@Z ; std::fill<std::_List_unchecked_const_iterator<std::_List_val<std::_List_simple_types<unsigned __int64> >,std::_Iterator_base0> *,std::_List_unchecked_const_iterator<std::_List_val<std::_List_simple_types<unsigned __int64> >,std::_Iterator_base0> >
PUBLIC	??$_Copy_backward@PAV?$_List_unchecked_const_iterator@V?$_List_val@U?$_List_simple_types@_K@std@@@std@@U_Iterator_base0@2@@std@@PAV12@@std@@YAPAV?$_List_unchecked_const_iterator@V?$_List_val@U?$_List_simple_types@_K@std@@@std@@U_Iterator_base0@2@@0@PAV10@00@Z ; std::_Copy_backward<std::_List_unchecked_const_iterator<std::_List_val<std::_List_simple_types<unsigned __int64> >,std::_Iterator_base0> *,std::_List_unchecked_const_iterator<std::_List_val<std::_List_simple_types<unsigned __int64> >,std::_Iterator_base0> *>
PUBLIC	??$construct@PAU?$_List_node@PBXPAX@std@@AAPAU12@@?$_Wrap_alloc@V?$allocator@U?$_List_node@PBXPAX@std@@@std@@@std@@QAEXPAPAU?$_List_node@PBXPAX@1@AAPAU21@@Z ; std::_Wrap_alloc<std::allocator<std::_List_node<void const *,void *> > >::construct<std::_List_node<void const *,void *> *,std::_List_node<void const *,void *> * &>
PUBLIC	??$_Uninitialized_fill_n@PAV?$_List_unchecked_const_iterator@V?$_List_val@U?$_List_simple_types@PBX@std@@@std@@U_Iterator_base0@2@@std@@IV12@U?$_Wrap_alloc@U?$_Wrap_alloc@V?$allocator@V?$_List_unchecked_const_iterator@V?$_List_val@U?$_List_simple_types@PBX@std@@@std@@U_Iterator_base0@2@@std@@@std@@@std@@@2@@std@@YAXPAV?$_List_unchecked_const_iterator@V?$_List_val@U?$_List_simple_types@PBX@std@@@std@@U_Iterator_base0@2@@0@IPBV10@AAU?$_Wrap_alloc@U?$_Wrap_alloc@V?$allocator@V?$_List_unchecked_const_iterator@V?$_List_val@U?$_List_simple_types@PBX@std@@@std@@U_Iterator_base0@2@@std@@@std@@@std@@@0@@Z ; std::_Uninitialized_fill_n<std::_List_unchecked_const_iterator<std::_List_val<std::_List_simple_types<void const *> >,std::_Iterator_base0> *,unsigned int,std::_List_unchecked_const_iterator<std::_List_val<std::_List_simple_types<void const *> >,std::_Iterator_base0>,std::_Wrap_alloc<std::_Wrap_alloc<std::allocator<std::_List_unchecked_const_iterator<std::_List_val<std::_List_simple_types<void const *> >,std::_Iterator_base0> > > > >
PUBLIC	??$construct@PAU?$_List_node@_KPAX@std@@AAPAU12@@?$_Wrap_alloc@V?$allocator@U?$_List_node@_KPAX@std@@@std@@@std@@QAEXPAPAU?$_List_node@_KPAX@1@AAPAU21@@Z ; std::_Wrap_alloc<std::allocator<std::_List_node<unsigned __int64,void *> > >::construct<std::_List_node<unsigned __int64,void *> *,std::_List_node<unsigned __int64,void *> * &>
PUBLIC	??$_Uninitialized_fill_n@PAV?$_List_unchecked_const_iterator@V?$_List_val@U?$_List_simple_types@_K@std@@@std@@U_Iterator_base0@2@@std@@IV12@U?$_Wrap_alloc@U?$_Wrap_alloc@V?$allocator@V?$_List_unchecked_const_iterator@V?$_List_val@U?$_List_simple_types@_K@std@@@std@@U_Iterator_base0@2@@std@@@std@@@std@@@2@@std@@YAXPAV?$_List_unchecked_const_iterator@V?$_List_val@U?$_List_simple_types@_K@std@@@std@@U_Iterator_base0@2@@0@IPBV10@AAU?$_Wrap_alloc@U?$_Wrap_alloc@V?$allocator@V?$_List_unchecked_const_iterator@V?$_List_val@U?$_List_simple_types@_K@std@@@std@@U_Iterator_base0@2@@std@@@std@@@std@@@0@@Z ; std::_Uninitialized_fill_n<std::_List_unchecked_const_iterator<std::_List_val<std::_List_simple_types<unsigned __int64> >,std::_Iterator_base0> *,unsigned int,std::_List_unchecked_const_iterator<std::_List_val<std::_List_simple_types<unsigned __int64> >,std::_Iterator_base0>,std::_Wrap_alloc<std::_Wrap_alloc<std::allocator<std::_List_unchecked_const_iterator<std::_List_val<std::_List_simple_types<unsigned __int64> >,std::_Iterator_base0> > > > >
PUBLIC	??$_Allocate@U?$_List_node@PBXPAX@std@@@std@@YAPAU?$_List_node@PBXPAX@0@IPAU10@@Z ; std::_Allocate<std::_List_node<void const *,void *> >
PUBLIC	??$_Allocate@V?$_List_unchecked_const_iterator@V?$_List_val@U?$_List_simple_types@PBX@std@@@std@@U_Iterator_base0@2@@std@@@std@@YAPAV?$_List_unchecked_const_iterator@V?$_List_val@U?$_List_simple_types@PBX@std@@@std@@U_Iterator_base0@2@@0@IPAV10@@Z ; std::_Allocate<std::_List_unchecked_const_iterator<std::_List_val<std::_List_simple_types<void const *> >,std::_Iterator_base0> >
PUBLIC	??$_Fn@U?$_Wrap_alloc@V?$allocator@V?$_List_unchecked_const_iterator@V?$_List_val@U?$_List_simple_types@PBX@std@@@std@@U_Iterator_base0@2@@std@@@std@@@std@@@_Alloc_max_size@std@@SAIHABU?$_Wrap_alloc@V?$allocator@V?$_List_unchecked_const_iterator@V?$_List_val@U?$_List_simple_types@PBX@std@@@std@@U_Iterator_base0@2@@std@@@std@@@1@@Z ; std::_Alloc_max_size::_Fn<std::_Wrap_alloc<std::allocator<std::_List_unchecked_const_iterator<std::_List_val<std::_List_simple_types<void const *> >,std::_Iterator_base0> > > >
PUBLIC	??$_Allocate@U?$_List_node@_KPAX@std@@@std@@YAPAU?$_List_node@_KPAX@0@IPAU10@@Z ; std::_Allocate<std::_List_node<unsigned __int64,void *> >
PUBLIC	??$_Allocate@V?$_List_unchecked_const_iterator@V?$_List_val@U?$_List_simple_types@_K@std@@@std@@U_Iterator_base0@2@@std@@@std@@YAPAV?$_List_unchecked_const_iterator@V?$_List_val@U?$_List_simple_types@_K@std@@@std@@U_Iterator_base0@2@@0@IPAV10@@Z ; std::_Allocate<std::_List_unchecked_const_iterator<std::_List_val<std::_List_simple_types<unsigned __int64> >,std::_Iterator_base0> >
PUBLIC	??$_Fn@U?$_Wrap_alloc@V?$allocator@V?$_List_unchecked_const_iterator@V?$_List_val@U?$_List_simple_types@_K@std@@@std@@U_Iterator_base0@2@@std@@@std@@@std@@@_Alloc_max_size@std@@SAIHABU?$_Wrap_alloc@V?$allocator@V?$_List_unchecked_const_iterator@V?$_List_val@U?$_List_simple_types@_K@std@@@std@@U_Iterator_base0@2@@std@@@std@@@1@@Z ; std::_Alloc_max_size::_Fn<std::_Wrap_alloc<std::allocator<std::_List_unchecked_const_iterator<std::_List_val<std::_List_simple_types<unsigned __int64> >,std::_Iterator_base0> > > >
PUBLIC	?Write@?$ElementStreamFormat@I@gfx@mozilla@@SAXAAV?$basic_ostream@DU?$char_traits@D@std@@@std@@ABI@Z ; mozilla::gfx::ElementStreamFormat<unsigned int>::Write
PUBLIC	?Write@?$ElementStreamFormat@G@gfx@mozilla@@SAXAAV?$basic_ostream@DU?$char_traits@D@std@@@std@@ABG@Z ; mozilla::gfx::ElementStreamFormat<unsigned short>::Write
PUBLIC	?Write@?$ElementStreamFormat@H@gfx@mozilla@@SAXAAV?$basic_ostream@DU?$char_traits@D@std@@@std@@ABH@Z ; mozilla::gfx::ElementStreamFormat<int>::Write
PUBLIC	??$forward@AAPAD@std@@YAAAPADAAPAD@Z		; std::forward<char * &>
PUBLIC	??$construct@PADAAPAD@?$allocator_traits@V?$allocator@D@std@@@std@@SAXAAV?$allocator@D@1@PAPADAAPAD@Z ; std::allocator_traits<std::allocator<char> >::construct<char *,char * &>
PUBLIC	??$destroy@PAD@?$allocator_traits@V?$allocator@D@std@@@std@@SAXAAV?$allocator@D@1@PAPAD@Z ; std::allocator_traits<std::allocator<char> >::destroy<char *>
PUBLIC	??$?0PBX@?$allocator@V?$_List_unchecked_const_iterator@V?$_List_val@U?$_List_simple_types@PBX@std@@@std@@U_Iterator_base0@2@@std@@@std@@QAE@ABV?$allocator@PBX@1@@Z ; std::allocator<std::_List_unchecked_const_iterator<std::_List_val<std::_List_simple_types<void const *> >,std::_Iterator_base0> >::allocator<std::_List_unchecked_const_iterator<std::_List_val<std::_List_simple_types<void const *> >,std::_Iterator_base0> ><void const *>
PUBLIC	??$?0_K@?$allocator@V?$_List_unchecked_const_iterator@V?$_List_val@U?$_List_simple_types@_K@std@@@std@@U_Iterator_base0@2@@std@@@std@@QAE@ABV?$allocator@_K@1@@Z ; std::allocator<std::_List_unchecked_const_iterator<std::_List_val<std::_List_simple_types<unsigned __int64> >,std::_Iterator_base0> >::allocator<std::_List_unchecked_const_iterator<std::_List_val<std::_List_simple_types<unsigned __int64> >,std::_Iterator_base0> ><unsigned __int64>
PUBLIC	??$forward@U_Container_proxy@std@@@std@@YA$$QAU_Container_proxy@0@AAU10@@Z ; std::forward<std::_Container_proxy>
PUBLIC	??$construct@U_Container_proxy@std@@U12@@?$allocator_traits@V?$allocator@U_Container_proxy@std@@@std@@@std@@SAXAAV?$allocator@U_Container_proxy@std@@@1@PAU_Container_proxy@1@$$QAU31@@Z ; std::allocator_traits<std::allocator<std::_Container_proxy> >::construct<std::_Container_proxy,std::_Container_proxy>
PUBLIC	??$destroy@U_Container_proxy@std@@@?$allocator_traits@V?$allocator@U_Container_proxy@std@@@std@@@std@@SAXAAV?$allocator@U_Container_proxy@std@@@1@PAU_Container_proxy@1@@Z ; std::allocator_traits<std::allocator<std::_Container_proxy> >::destroy<std::_Container_proxy>
PUBLIC	??$destroy@PAU?$_List_node@PBXPAX@std@@@?$allocator_traits@V?$allocator@U?$_List_node@PBXPAX@std@@@std@@@std@@SAXAAV?$allocator@U?$_List_node@PBXPAX@std@@@1@PAPAU?$_List_node@PBXPAX@1@@Z ; std::allocator_traits<std::allocator<std::_List_node<void const *,void *> > >::destroy<std::_List_node<void const *,void *> *>
PUBLIC	??$_Ptr_cat@V?$_List_unchecked_const_iterator@V?$_List_val@U?$_List_simple_types@PBX@std@@@std@@U_Iterator_base0@2@@std@@V12@@std@@YA?AU_Nonscalar_ptr_iterator_tag@0@PAV?$_List_unchecked_const_iterator@V?$_List_val@U?$_List_simple_types@PBX@std@@@std@@U_Iterator_base0@2@@0@0@Z ; std::_Ptr_cat<std::_List_unchecked_const_iterator<std::_List_val<std::_List_simple_types<void const *> >,std::_Iterator_base0>,std::_List_unchecked_const_iterator<std::_List_val<std::_List_simple_types<void const *> >,std::_Iterator_base0> >
PUBLIC	??$_Destroy_range@U?$_Wrap_alloc@U?$_Wrap_alloc@V?$allocator@V?$_List_unchecked_const_iterator@V?$_List_val@U?$_List_simple_types@PBX@std@@@std@@U_Iterator_base0@2@@std@@@std@@@std@@@std@@@std@@YAXPAV?$_List_unchecked_const_iterator@V?$_List_val@U?$_List_simple_types@PBX@std@@@std@@U_Iterator_base0@2@@0@0AAU?$_Wrap_alloc@U?$_Wrap_alloc@V?$allocator@V?$_List_unchecked_const_iterator@V?$_List_val@U?$_List_simple_types@PBX@std@@@std@@U_Iterator_base0@2@@std@@@std@@@std@@@0@U_Nonscalar_ptr_iterator_tag@0@@Z ; std::_Destroy_range<std::_Wrap_alloc<std::_Wrap_alloc<std::allocator<std::_List_unchecked_const_iterator<std::_List_val<std::_List_simple_types<void const *> >,std::_Iterator_base0> > > > >
PUBLIC	??$destroy@U_Container_proxy@std@@@?$allocator_traits@U?$_Wrap_alloc@V?$allocator@U_Container_proxy@std@@@std@@@std@@@std@@SAXAAU?$_Wrap_alloc@V?$allocator@U_Container_proxy@std@@@std@@@1@PAU_Container_proxy@1@@Z ; std::allocator_traits<std::_Wrap_alloc<std::allocator<std::_Container_proxy> > >::destroy<std::_Container_proxy>
PUBLIC	??$destroy@PAU?$_List_node@_KPAX@std@@@?$allocator_traits@V?$allocator@U?$_List_node@_KPAX@std@@@std@@@std@@SAXAAV?$allocator@U?$_List_node@_KPAX@std@@@1@PAPAU?$_List_node@_KPAX@1@@Z ; std::allocator_traits<std::allocator<std::_List_node<unsigned __int64,void *> > >::destroy<std::_List_node<unsigned __int64,void *> *>
PUBLIC	??$_Ptr_cat@V?$_List_unchecked_const_iterator@V?$_List_val@U?$_List_simple_types@_K@std@@@std@@U_Iterator_base0@2@@std@@V12@@std@@YA?AU_Nonscalar_ptr_iterator_tag@0@PAV?$_List_unchecked_const_iterator@V?$_List_val@U?$_List_simple_types@_K@std@@@std@@U_Iterator_base0@2@@0@0@Z ; std::_Ptr_cat<std::_List_unchecked_const_iterator<std::_List_val<std::_List_simple_types<unsigned __int64> >,std::_Iterator_base0>,std::_List_unchecked_const_iterator<std::_List_val<std::_List_simple_types<unsigned __int64> >,std::_Iterator_base0> >
PUBLIC	??$_Destroy_range@U?$_Wrap_alloc@U?$_Wrap_alloc@V?$allocator@V?$_List_unchecked_const_iterator@V?$_List_val@U?$_List_simple_types@_K@std@@@std@@U_Iterator_base0@2@@std@@@std@@@std@@@std@@@std@@YAXPAV?$_List_unchecked_const_iterator@V?$_List_val@U?$_List_simple_types@_K@std@@@std@@U_Iterator_base0@2@@0@0AAU?$_Wrap_alloc@U?$_Wrap_alloc@V?$allocator@V?$_List_unchecked_const_iterator@V?$_List_val@U?$_List_simple_types@_K@std@@@std@@U_Iterator_base0@2@@std@@@std@@@std@@@0@U_Nonscalar_ptr_iterator_tag@0@@Z ; std::_Destroy_range<std::_Wrap_alloc<std::_Wrap_alloc<std::allocator<std::_List_unchecked_const_iterator<std::_List_val<std::_List_simple_types<unsigned __int64> >,std::_Iterator_base0> > > > >
PUBLIC	??$destroy@PBX@?$allocator_traits@V?$allocator@U?$_List_node@PBXPAX@std@@@std@@@std@@SAXAAV?$allocator@U?$_List_node@PBXPAX@std@@@1@PAPBX@Z ; std::allocator_traits<std::allocator<std::_List_node<void const *,void *> > >::destroy<void const *>
PUBLIC	??$construct@U_Container_proxy@std@@U12@@?$allocator_traits@U?$_Wrap_alloc@V?$allocator@U_Container_proxy@std@@@std@@@std@@@std@@SAXAAU?$_Wrap_alloc@V?$allocator@U_Container_proxy@std@@@std@@@1@PAU_Container_proxy@1@$$QAU31@@Z ; std::allocator_traits<std::_Wrap_alloc<std::allocator<std::_Container_proxy> > >::construct<std::_Container_proxy,std::_Container_proxy>
PUBLIC	??$destroy@_K@?$allocator_traits@V?$allocator@U?$_List_node@_KPAX@std@@@std@@@std@@SAXAAV?$allocator@U?$_List_node@_KPAX@std@@@1@PA_K@Z ; std::allocator_traits<std::allocator<std::_List_node<unsigned __int64,void *> > >::destroy<unsigned __int64>
PUBLIC	??$_Uninitialized_move@PAV?$_List_unchecked_const_iterator@V?$_List_val@U?$_List_simple_types@PBX@std@@@std@@U_Iterator_base0@2@@std@@PAV12@U?$_Wrap_alloc@U?$_Wrap_alloc@V?$allocator@V?$_List_unchecked_const_iterator@V?$_List_val@U?$_List_simple_types@PBX@std@@@std@@U_Iterator_base0@2@@std@@@std@@@std@@@2@@std@@YAPAV?$_List_unchecked_const_iterator@V?$_List_val@U?$_List_simple_types@PBX@std@@@std@@U_Iterator_base0@2@@0@PAV10@00AAU?$_Wrap_alloc@U?$_Wrap_alloc@V?$allocator@V?$_List_unchecked_const_iterator@V?$_List_val@U?$_List_simple_types@PBX@std@@@std@@U_Iterator_base0@2@@std@@@std@@@std@@@0@@Z ; std::_Uninitialized_move<std::_List_unchecked_const_iterator<std::_List_val<std::_List_simple_types<void const *> >,std::_Iterator_base0> *,std::_List_unchecked_const_iterator<std::_List_val<std::_List_simple_types<void const *> >,std::_Iterator_base0> *,std::_Wrap_alloc<std::_Wrap_alloc<std::allocator<std::_List_unchecked_const_iterator<std::_List_val<std::_List_simple_types<void const *> >,std::_Iterator_base0> > > > >
PUBLIC	??$_Debug_range@PAV?$_List_unchecked_const_iterator@V?$_List_val@U?$_List_simple_types@PBX@std@@@std@@U_Iterator_base0@2@@std@@@std@@YAXPAV?$_List_unchecked_const_iterator@V?$_List_val@U?$_List_simple_types@PBX@std@@@std@@U_Iterator_base0@2@@0@0PB_WI@Z ; std::_Debug_range<std::_List_unchecked_const_iterator<std::_List_val<std::_List_simple_types<void const *> >,std::_Iterator_base0> *>
PUBLIC	??$_Unchecked@PAV?$_List_unchecked_const_iterator@V?$_List_val@U?$_List_simple_types@PBX@std@@@std@@U_Iterator_base0@2@@std@@@std@@YAPAV?$_List_unchecked_const_iterator@V?$_List_val@U?$_List_simple_types@PBX@std@@@std@@U_Iterator_base0@2@@0@PAV10@@Z ; std::_Unchecked<std::_List_unchecked_const_iterator<std::_List_val<std::_List_simple_types<void const *> >,std::_Iterator_base0> *>
PUBLIC	??$_Fill@PAV?$_List_unchecked_const_iterator@V?$_List_val@U?$_List_simple_types@PBX@std@@@std@@U_Iterator_base0@2@@std@@V12@@std@@YAXPAV?$_List_unchecked_const_iterator@V?$_List_val@U?$_List_simple_types@PBX@std@@@std@@U_Iterator_base0@2@@0@0ABV10@@Z ; std::_Fill<std::_List_unchecked_const_iterator<std::_List_val<std::_List_simple_types<void const *> >,std::_Iterator_base0> *,std::_List_unchecked_const_iterator<std::_List_val<std::_List_simple_types<void const *> >,std::_Iterator_base0> >
PUBLIC	??$_Copy_backward@PAV?$_List_unchecked_const_iterator@V?$_List_val@U?$_List_simple_types@PBX@std@@@std@@U_Iterator_base0@2@@std@@PAV12@@std@@YAPAV?$_List_unchecked_const_iterator@V?$_List_val@U?$_List_simple_types@PBX@std@@@std@@U_Iterator_base0@2@@0@PAV10@00U_Nonscalar_ptr_iterator_tag@0@@Z ; std::_Copy_backward<std::_List_unchecked_const_iterator<std::_List_val<std::_List_simple_types<void const *> >,std::_Iterator_base0> *,std::_List_unchecked_const_iterator<std::_List_val<std::_List_simple_types<void const *> >,std::_Iterator_base0> *>
PUBLIC	??$_Uninitialized_move@PAV?$_List_unchecked_const_iterator@V?$_List_val@U?$_List_simple_types@_K@std@@@std@@U_Iterator_base0@2@@std@@PAV12@U?$_Wrap_alloc@U?$_Wrap_alloc@V?$allocator@V?$_List_unchecked_const_iterator@V?$_List_val@U?$_List_simple_types@_K@std@@@std@@U_Iterator_base0@2@@std@@@std@@@std@@@2@@std@@YAPAV?$_List_unchecked_const_iterator@V?$_List_val@U?$_List_simple_types@_K@std@@@std@@U_Iterator_base0@2@@0@PAV10@00AAU?$_Wrap_alloc@U?$_Wrap_alloc@V?$allocator@V?$_List_unchecked_const_iterator@V?$_List_val@U?$_List_simple_types@_K@std@@@std@@U_Iterator_base0@2@@std@@@std@@@std@@@0@@Z ; std::_Uninitialized_move<std::_List_unchecked_const_iterator<std::_List_val<std::_List_simple_types<unsigned __int64> >,std::_Iterator_base0> *,std::_List_unchecked_const_iterator<std::_List_val<std::_List_simple_types<unsigned __int64> >,std::_Iterator_base0> *,std::_Wrap_alloc<std::_Wrap_alloc<std::allocator<std::_List_unchecked_const_iterator<std::_List_val<std::_List_simple_types<unsigned __int64> >,std::_Iterator_base0> > > > >
PUBLIC	??$_Debug_range@PAV?$_List_unchecked_const_iterator@V?$_List_val@U?$_List_simple_types@_K@std@@@std@@U_Iterator_base0@2@@std@@@std@@YAXPAV?$_List_unchecked_const_iterator@V?$_List_val@U?$_List_simple_types@_K@std@@@std@@U_Iterator_base0@2@@0@0PB_WI@Z ; std::_Debug_range<std::_List_unchecked_const_iterator<std::_List_val<std::_List_simple_types<unsigned __int64> >,std::_Iterator_base0> *>
PUBLIC	??$_Unchecked@PAV?$_List_unchecked_const_iterator@V?$_List_val@U?$_List_simple_types@_K@std@@@std@@U_Iterator_base0@2@@std@@@std@@YAPAV?$_List_unchecked_const_iterator@V?$_List_val@U?$_List_simple_types@_K@std@@@std@@U_Iterator_base0@2@@0@PAV10@@Z ; std::_Unchecked<std::_List_unchecked_const_iterator<std::_List_val<std::_List_simple_types<unsigned __int64> >,std::_Iterator_base0> *>
PUBLIC	??$_Fill@PAV?$_List_unchecked_const_iterator@V?$_List_val@U?$_List_simple_types@_K@std@@@std@@U_Iterator_base0@2@@std@@V12@@std@@YAXPAV?$_List_unchecked_const_iterator@V?$_List_val@U?$_List_simple_types@_K@std@@@std@@U_Iterator_base0@2@@0@0ABV10@@Z ; std::_Fill<std::_List_unchecked_const_iterator<std::_List_val<std::_List_simple_types<unsigned __int64> >,std::_Iterator_base0> *,std::_List_unchecked_const_iterator<std::_List_val<std::_List_simple_types<unsigned __int64> >,std::_Iterator_base0> >
PUBLIC	??$_Copy_backward@PAV?$_List_unchecked_const_iterator@V?$_List_val@U?$_List_simple_types@_K@std@@@std@@U_Iterator_base0@2@@std@@PAV12@@std@@YAPAV?$_List_unchecked_const_iterator@V?$_List_val@U?$_List_simple_types@_K@std@@@std@@U_Iterator_base0@2@@0@PAV10@00U_Nonscalar_ptr_iterator_tag@0@@Z ; std::_Copy_backward<std::_List_unchecked_const_iterator<std::_List_val<std::_List_simple_types<unsigned __int64> >,std::_Iterator_base0> *,std::_List_unchecked_const_iterator<std::_List_val<std::_List_simple_types<unsigned __int64> >,std::_Iterator_base0> *>
PUBLIC	??$forward@AAPAU?$_List_node@PBXPAX@std@@@std@@YAAAPAU?$_List_node@PBXPAX@0@AAPAU10@@Z ; std::forward<std::_List_node<void const *,void *> * &>
PUBLIC	??$construct@PAU?$_List_node@PBXPAX@std@@AAPAU12@@?$allocator_traits@V?$allocator@U?$_List_node@PBXPAX@std@@@std@@@std@@SAXAAV?$allocator@U?$_List_node@PBXPAX@std@@@1@PAPAU?$_List_node@PBXPAX@1@AAPAU31@@Z ; std::allocator_traits<std::allocator<std::_List_node<void const *,void *> > >::construct<std::_List_node<void const *,void *> *,std::_List_node<void const *,void *> * &>
PUBLIC	??$_Val_type@PAV?$_List_unchecked_const_iterator@V?$_List_val@U?$_List_simple_types@PBX@std@@@std@@U_Iterator_base0@2@@std@@@std@@YAPAV?$_List_unchecked_const_iterator@V?$_List_val@U?$_List_simple_types@PBX@std@@@std@@U_Iterator_base0@2@@0@PAV10@@Z ; std::_Val_type<std::_List_unchecked_const_iterator<std::_List_val<std::_List_simple_types<void const *> >,std::_Iterator_base0> *>
PUBLIC	??$_Uninit_fill_n@PAV?$_List_unchecked_const_iterator@V?$_List_val@U?$_List_simple_types@PBX@std@@@std@@U_Iterator_base0@2@@std@@IV12@U?$_Wrap_alloc@V?$allocator@V?$_List_unchecked_const_iterator@V?$_List_val@U?$_List_simple_types@PBX@std@@@std@@U_Iterator_base0@2@@std@@@std@@@2@V12@@std@@YAXPAV?$_List_unchecked_const_iterator@V?$_List_val@U?$_List_simple_types@PBX@std@@@std@@U_Iterator_base0@2@@0@IPBV10@AAU?$_Wrap_alloc@U?$_Wrap_alloc@V?$allocator@V?$_List_unchecked_const_iterator@V?$_List_val@U?$_List_simple_types@PBX@std@@@std@@U_Iterator_base0@2@@std@@@std@@@std@@@0@0U_Nonscalar_ptr_iterator_tag@0@@Z ; std::_Uninit_fill_n<std::_List_unchecked_const_iterator<std::_List_val<std::_List_simple_types<void const *> >,std::_Iterator_base0> *,unsigned int,std::_List_unchecked_const_iterator<std::_List_val<std::_List_simple_types<void const *> >,std::_Iterator_base0>,std::_Wrap_alloc<std::allocator<std::_List_unchecked_const_iterator<std::_List_val<std::_List_simple_types<void const *> >,std::_Iterator_base0> > >,std::_List_unchecked_const_iterator<std::_List_val<std::_List_simple_types<void const *> >,std::_Iterator_base0> >
PUBLIC	??$forward@AAPAU?$_List_node@_KPAX@std@@@std@@YAAAPAU?$_List_node@_KPAX@0@AAPAU10@@Z ; std::forward<std::_List_node<unsigned __int64,void *> * &>
PUBLIC	??$construct@PAU?$_List_node@_KPAX@std@@AAPAU12@@?$allocator_traits@V?$allocator@U?$_List_node@_KPAX@std@@@std@@@std@@SAXAAV?$allocator@U?$_List_node@_KPAX@std@@@1@PAPAU?$_List_node@_KPAX@1@AAPAU31@@Z ; std::allocator_traits<std::allocator<std::_List_node<unsigned __int64,void *> > >::construct<std::_List_node<unsigned __int64,void *> *,std::_List_node<unsigned __int64,void *> * &>
PUBLIC	??$_Val_type@PAV?$_List_unchecked_const_iterator@V?$_List_val@U?$_List_simple_types@_K@std@@@std@@U_Iterator_base0@2@@std@@@std@@YAPAV?$_List_unchecked_const_iterator@V?$_List_val@U?$_List_simple_types@_K@std@@@std@@U_Iterator_base0@2@@0@PAV10@@Z ; std::_Val_type<std::_List_unchecked_const_iterator<std::_List_val<std::_List_simple_types<unsigned __int64> >,std::_Iterator_base0> *>
PUBLIC	??$_Uninit_fill_n@PAV?$_List_unchecked_const_iterator@V?$_List_val@U?$_List_simple_types@_K@std@@@std@@U_Iterator_base0@2@@std@@IV12@U?$_Wrap_alloc@V?$allocator@V?$_List_unchecked_const_iterator@V?$_List_val@U?$_List_simple_types@_K@std@@@std@@U_Iterator_base0@2@@std@@@std@@@2@V12@@std@@YAXPAV?$_List_unchecked_const_iterator@V?$_List_val@U?$_List_simple_types@_K@std@@@std@@U_Iterator_base0@2@@0@IPBV10@AAU?$_Wrap_alloc@U?$_Wrap_alloc@V?$allocator@V?$_List_unchecked_const_iterator@V?$_List_val@U?$_List_simple_types@_K@std@@@std@@U_Iterator_base0@2@@std@@@std@@@std@@@0@0U_Nonscalar_ptr_iterator_tag@0@@Z ; std::_Uninit_fill_n<std::_List_unchecked_const_iterator<std::_List_val<std::_List_simple_types<unsigned __int64> >,std::_Iterator_base0> *,unsigned int,std::_List_unchecked_const_iterator<std::_List_val<std::_List_simple_types<unsigned __int64> >,std::_Iterator_base0>,std::_Wrap_alloc<std::allocator<std::_List_unchecked_const_iterator<std::_List_val<std::_List_simple_types<unsigned __int64> >,std::_Iterator_base0> > >,std::_List_unchecked_const_iterator<std::_List_val<std::_List_simple_types<unsigned __int64> >,std::_Iterator_base0> >
PUBLIC	??$construct@PADAAPAD@?$allocator@D@std@@QAEXPAPADAAPAD@Z ; std::allocator<char>::construct<char *,char * &>
PUBLIC	??$destroy@PAD@?$allocator@D@std@@QAEXPAPAD@Z	; std::allocator<char>::destroy<char *>
PUBLIC	??$destroy@PAU?$_List_node@PBXPAX@std@@@?$allocator@U?$_List_node@PBXPAX@std@@@std@@QAEXPAPAU?$_List_node@PBXPAX@1@@Z ; std::allocator<std::_List_node<void const *,void *> >::destroy<std::_List_node<void const *,void *> *>
PUBLIC	??$destroy@V?$_List_unchecked_const_iterator@V?$_List_val@U?$_List_simple_types@PBX@std@@@std@@U_Iterator_base0@2@@std@@@?$_Wrap_alloc@U?$_Wrap_alloc@V?$allocator@V?$_List_unchecked_const_iterator@V?$_List_val@U?$_List_simple_types@PBX@std@@@std@@U_Iterator_base0@2@@std@@@std@@@std@@@std@@QAEXPAV?$_List_unchecked_const_iterator@V?$_List_val@U?$_List_simple_types@PBX@std@@@std@@U_Iterator_base0@2@@1@@Z ; std::_Wrap_alloc<std::_Wrap_alloc<std::allocator<std::_List_unchecked_const_iterator<std::_List_val<std::_List_simple_types<void const *> >,std::_Iterator_base0> > > >::destroy<std::_List_unchecked_const_iterator<std::_List_val<std::_List_simple_types<void const *> >,std::_Iterator_base0> >
PUBLIC	??$_Fn@U?$_Wrap_alloc@V?$allocator@U_Container_proxy@std@@@std@@@std@@U_Container_proxy@2@@_Alloc_destroy@std@@SAXHAAU?$_Wrap_alloc@V?$allocator@U_Container_proxy@std@@@std@@@1@PAU_Container_proxy@1@@Z ; std::_Alloc_destroy::_Fn<std::_Wrap_alloc<std::allocator<std::_Container_proxy> >,std::_Container_proxy>
PUBLIC	??$destroy@PAU?$_List_node@_KPAX@std@@@?$allocator@U?$_List_node@_KPAX@std@@@std@@QAEXPAPAU?$_List_node@_KPAX@1@@Z ; std::allocator<std::_List_node<unsigned __int64,void *> >::destroy<std::_List_node<unsigned __int64,void *> *>
PUBLIC	??$destroy@V?$_List_unchecked_const_iterator@V?$_List_val@U?$_List_simple_types@_K@std@@@std@@U_Iterator_base0@2@@std@@@?$_Wrap_alloc@U?$_Wrap_alloc@V?$allocator@V?$_List_unchecked_const_iterator@V?$_List_val@U?$_List_simple_types@_K@std@@@std@@U_Iterator_base0@2@@std@@@std@@@std@@@std@@QAEXPAV?$_List_unchecked_const_iterator@V?$_List_val@U?$_List_simple_types@_K@std@@@std@@U_Iterator_base0@2@@1@@Z ; std::_Wrap_alloc<std::_Wrap_alloc<std::allocator<std::_List_unchecked_const_iterator<std::_List_val<std::_List_simple_types<unsigned __int64> >,std::_Iterator_base0> > > >::destroy<std::_List_unchecked_const_iterator<std::_List_val<std::_List_simple_types<unsigned __int64> >,std::_Iterator_base0> >
PUBLIC	??$destroy@PBX@?$allocator@U?$_List_node@PBXPAX@std@@@std@@QAEXPAPBX@Z ; std::allocator<std::_List_node<void const *,void *> >::destroy<void const *>
PUBLIC	??$_Fn@U?$_Wrap_alloc@V?$allocator@U_Container_proxy@std@@@std@@@std@@U_Container_proxy@2@U32@@_Alloc_construct@std@@SAXHAAU?$_Wrap_alloc@V?$allocator@U_Container_proxy@std@@@std@@@1@PAU_Container_proxy@1@$$QAU31@@Z ; std::_Alloc_construct::_Fn<std::_Wrap_alloc<std::allocator<std::_Container_proxy> >,std::_Container_proxy,std::_Container_proxy>
PUBLIC	??$destroy@_K@?$allocator@U?$_List_node@_KPAX@std@@@std@@QAEXPA_K@Z ; std::allocator<std::_List_node<unsigned __int64,void *> >::destroy<unsigned __int64>
PUBLIC	??$_Uninit_move@PAV?$_List_unchecked_const_iterator@V?$_List_val@U?$_List_simple_types@PBX@std@@@std@@U_Iterator_base0@2@@std@@PAV12@U?$_Wrap_alloc@U?$_Wrap_alloc@V?$allocator@V?$_List_unchecked_const_iterator@V?$_List_val@U?$_List_simple_types@PBX@std@@@std@@U_Iterator_base0@2@@std@@@std@@@std@@@2@@std@@YAPAV?$_List_unchecked_const_iterator@V?$_List_val@U?$_List_simple_types@PBX@std@@@std@@U_Iterator_base0@2@@0@PAV10@00AAU?$_Wrap_alloc@U?$_Wrap_alloc@V?$allocator@V?$_List_unchecked_const_iterator@V?$_List_val@U?$_List_simple_types@PBX@std@@@std@@U_Iterator_base0@2@@std@@@std@@@std@@@0@@Z ; std::_Uninit_move<std::_List_unchecked_const_iterator<std::_List_val<std::_List_simple_types<void const *> >,std::_Iterator_base0> *,std::_List_unchecked_const_iterator<std::_List_val<std::_List_simple_types<void const *> >,std::_Iterator_base0> *,std::_Wrap_alloc<std::_Wrap_alloc<std::allocator<std::_List_unchecked_const_iterator<std::_List_val<std::_List_simple_types<void const *> >,std::_Iterator_base0> > > > >
PUBLIC	??$_Rechecked@PAV?$_List_unchecked_const_iterator@V?$_List_val@U?$_List_simple_types@PBX@std@@@std@@U_Iterator_base0@2@@std@@PAV12@@std@@YAAAPAV?$_List_unchecked_const_iterator@V?$_List_val@U?$_List_simple_types@PBX@std@@@std@@U_Iterator_base0@2@@0@AAPAV10@PAV10@@Z ; std::_Rechecked<std::_List_unchecked_const_iterator<std::_List_val<std::_List_simple_types<void const *> >,std::_Iterator_base0> *,std::_List_unchecked_const_iterator<std::_List_val<std::_List_simple_types<void const *> >,std::_Iterator_base0> *>
PUBLIC	??$_Iter_cat@PAV?$_List_unchecked_const_iterator@V?$_List_val@U?$_List_simple_types@PBX@std@@@std@@U_Iterator_base0@2@@std@@@std@@YA?AUrandom_access_iterator_tag@0@ABQAV?$_List_unchecked_const_iterator@V?$_List_val@U?$_List_simple_types@PBX@std@@@std@@U_Iterator_base0@2@@0@@Z ; std::_Iter_cat<std::_List_unchecked_const_iterator<std::_List_val<std::_List_simple_types<void const *> >,std::_Iterator_base0> *>
PUBLIC	??$_Debug_range2@PAV?$_List_unchecked_const_iterator@V?$_List_val@U?$_List_simple_types@PBX@std@@@std@@U_Iterator_base0@2@@std@@@std@@YAXPAV?$_List_unchecked_const_iterator@V?$_List_val@U?$_List_simple_types@PBX@std@@@std@@U_Iterator_base0@2@@0@0PB_WIUrandom_access_iterator_tag@0@@Z ; std::_Debug_range2<std::_List_unchecked_const_iterator<std::_List_val<std::_List_simple_types<void const *> >,std::_Iterator_base0> *>
PUBLIC	??$_Uninit_move@PAV?$_List_unchecked_const_iterator@V?$_List_val@U?$_List_simple_types@_K@std@@@std@@U_Iterator_base0@2@@std@@PAV12@U?$_Wrap_alloc@U?$_Wrap_alloc@V?$allocator@V?$_List_unchecked_const_iterator@V?$_List_val@U?$_List_simple_types@_K@std@@@std@@U_Iterator_base0@2@@std@@@std@@@std@@@2@@std@@YAPAV?$_List_unchecked_const_iterator@V?$_List_val@U?$_List_simple_types@_K@std@@@std@@U_Iterator_base0@2@@0@PAV10@00AAU?$_Wrap_alloc@U?$_Wrap_alloc@V?$allocator@V?$_List_unchecked_const_iterator@V?$_List_val@U?$_List_simple_types@_K@std@@@std@@U_Iterator_base0@2@@std@@@std@@@std@@@0@@Z ; std::_Uninit_move<std::_List_unchecked_const_iterator<std::_List_val<std::_List_simple_types<unsigned __int64> >,std::_Iterator_base0> *,std::_List_unchecked_const_iterator<std::_List_val<std::_List_simple_types<unsigned __int64> >,std::_Iterator_base0> *,std::_Wrap_alloc<std::_Wrap_alloc<std::allocator<std::_List_unchecked_const_iterator<std::_List_val<std::_List_simple_types<unsigned __int64> >,std::_Iterator_base0> > > > >
PUBLIC	??$_Rechecked@PAV?$_List_unchecked_const_iterator@V?$_List_val@U?$_List_simple_types@_K@std@@@std@@U_Iterator_base0@2@@std@@PAV12@@std@@YAAAPAV?$_List_unchecked_const_iterator@V?$_List_val@U?$_List_simple_types@_K@std@@@std@@U_Iterator_base0@2@@0@AAPAV10@PAV10@@Z ; std::_Rechecked<std::_List_unchecked_const_iterator<std::_List_val<std::_List_simple_types<unsigned __int64> >,std::_Iterator_base0> *,std::_List_unchecked_const_iterator<std::_List_val<std::_List_simple_types<unsigned __int64> >,std::_Iterator_base0> *>
PUBLIC	??$_Iter_cat@PAV?$_List_unchecked_const_iterator@V?$_List_val@U?$_List_simple_types@_K@std@@@std@@U_Iterator_base0@2@@std@@@std@@YA?AUrandom_access_iterator_tag@0@ABQAV?$_List_unchecked_const_iterator@V?$_List_val@U?$_List_simple_types@_K@std@@@std@@U_Iterator_base0@2@@0@@Z ; std::_Iter_cat<std::_List_unchecked_const_iterator<std::_List_val<std::_List_simple_types<unsigned __int64> >,std::_Iterator_base0> *>
PUBLIC	??$_Debug_range2@PAV?$_List_unchecked_const_iterator@V?$_List_val@U?$_List_simple_types@_K@std@@@std@@U_Iterator_base0@2@@std@@@std@@YAXPAV?$_List_unchecked_const_iterator@V?$_List_val@U?$_List_simple_types@_K@std@@@std@@U_Iterator_base0@2@@0@0PB_WIUrandom_access_iterator_tag@0@@Z ; std::_Debug_range2<std::_List_unchecked_const_iterator<std::_List_val<std::_List_simple_types<unsigned __int64> >,std::_Iterator_base0> *>
PUBLIC	??$construct@PAU?$_List_node@PBXPAX@std@@AAPAU12@@?$allocator@U?$_List_node@PBXPAX@std@@@std@@QAEXPAPAU?$_List_node@PBXPAX@1@AAPAU21@@Z ; std::allocator<std::_List_node<void const *,void *> >::construct<std::_List_node<void const *,void *> *,std::_List_node<void const *,void *> * &>
PUBLIC	??$construct@V?$_List_unchecked_const_iterator@V?$_List_val@U?$_List_simple_types@PBX@std@@@std@@U_Iterator_base0@2@@std@@ABV12@@?$_Wrap_alloc@U?$_Wrap_alloc@V?$allocator@V?$_List_unchecked_const_iterator@V?$_List_val@U?$_List_simple_types@PBX@std@@@std@@U_Iterator_base0@2@@std@@@std@@@std@@@std@@QAEXPAV?$_List_unchecked_const_iterator@V?$_List_val@U?$_List_simple_types@PBX@std@@@std@@U_Iterator_base0@2@@1@ABV21@@Z ; std::_Wrap_alloc<std::_Wrap_alloc<std::allocator<std::_List_unchecked_const_iterator<std::_List_val<std::_List_simple_types<void const *> >,std::_Iterator_base0> > > >::construct<std::_List_unchecked_const_iterator<std::_List_val<std::_List_simple_types<void const *> >,std::_Iterator_base0>,std::_List_unchecked_const_iterator<std::_List_val<std::_List_simple_types<void const *> >,std::_Iterator_base0> const &>
PUBLIC	??$construct@PAU?$_List_node@_KPAX@std@@AAPAU12@@?$allocator@U?$_List_node@_KPAX@std@@@std@@QAEXPAPAU?$_List_node@_KPAX@1@AAPAU21@@Z ; std::allocator<std::_List_node<unsigned __int64,void *> >::construct<std::_List_node<unsigned __int64,void *> *,std::_List_node<unsigned __int64,void *> * &>
PUBLIC	??$construct@V?$_List_unchecked_const_iterator@V?$_List_val@U?$_List_simple_types@_K@std@@@std@@U_Iterator_base0@2@@std@@ABV12@@?$_Wrap_alloc@U?$_Wrap_alloc@V?$allocator@V?$_List_unchecked_const_iterator@V?$_List_val@U?$_List_simple_types@_K@std@@@std@@U_Iterator_base0@2@@std@@@std@@@std@@@std@@QAEXPAV?$_List_unchecked_const_iterator@V?$_List_val@U?$_List_simple_types@_K@std@@@std@@U_Iterator_base0@2@@1@ABV21@@Z ; std::_Wrap_alloc<std::_Wrap_alloc<std::allocator<std::_List_unchecked_const_iterator<std::_List_val<std::_List_simple_types<unsigned __int64> >,std::_Iterator_base0> > > >::construct<std::_List_unchecked_const_iterator<std::_List_val<std::_List_simple_types<unsigned __int64> >,std::_Iterator_base0>,std::_List_unchecked_const_iterator<std::_List_val<std::_List_simple_types<unsigned __int64> >,std::_Iterator_base0> const &>
PUBLIC	??$destroy@V?$_List_unchecked_const_iterator@V?$_List_val@U?$_List_simple_types@PBX@std@@@std@@U_Iterator_base0@2@@std@@@?$allocator_traits@U?$_Wrap_alloc@V?$allocator@V?$_List_unchecked_const_iterator@V?$_List_val@U?$_List_simple_types@PBX@std@@@std@@U_Iterator_base0@2@@std@@@std@@@std@@@std@@SAXAAU?$_Wrap_alloc@V?$allocator@V?$_List_unchecked_const_iterator@V?$_List_val@U?$_List_simple_types@PBX@std@@@std@@U_Iterator_base0@2@@std@@@std@@@1@PAV?$_List_unchecked_const_iterator@V?$_List_val@U?$_List_simple_types@PBX@std@@@std@@U_Iterator_base0@2@@1@@Z ; std::allocator_traits<std::_Wrap_alloc<std::allocator<std::_List_unchecked_const_iterator<std::_List_val<std::_List_simple_types<void const *> >,std::_Iterator_base0> > > >::destroy<std::_List_unchecked_const_iterator<std::_List_val<std::_List_simple_types<void const *> >,std::_Iterator_base0> >
PUBLIC	??$destroy@V?$_List_unchecked_const_iterator@V?$_List_val@U?$_List_simple_types@_K@std@@@std@@U_Iterator_base0@2@@std@@@?$allocator_traits@U?$_Wrap_alloc@V?$allocator@V?$_List_unchecked_const_iterator@V?$_List_val@U?$_List_simple_types@_K@std@@@std@@U_Iterator_base0@2@@std@@@std@@@std@@@std@@SAXAAU?$_Wrap_alloc@V?$allocator@V?$_List_unchecked_const_iterator@V?$_List_val@U?$_List_simple_types@_K@std@@@std@@U_Iterator_base0@2@@std@@@std@@@1@PAV?$_List_unchecked_const_iterator@V?$_List_val@U?$_List_simple_types@_K@std@@@std@@U_Iterator_base0@2@@1@@Z ; std::allocator_traits<std::_Wrap_alloc<std::allocator<std::_List_unchecked_const_iterator<std::_List_val<std::_List_simple_types<unsigned __int64> >,std::_Iterator_base0> > > >::destroy<std::_List_unchecked_const_iterator<std::_List_val<std::_List_simple_types<unsigned __int64> >,std::_Iterator_base0> >
PUBLIC	??$_Uninit_move@PAV?$_List_unchecked_const_iterator@V?$_List_val@U?$_List_simple_types@PBX@std@@@std@@U_Iterator_base0@2@@std@@PAV12@U?$_Wrap_alloc@V?$allocator@V?$_List_unchecked_const_iterator@V?$_List_val@U?$_List_simple_types@PBX@std@@@std@@U_Iterator_base0@2@@std@@@std@@@2@V12@@std@@YAPAV?$_List_unchecked_const_iterator@V?$_List_val@U?$_List_simple_types@PBX@std@@@std@@U_Iterator_base0@2@@0@PAV10@00AAU?$_Wrap_alloc@U?$_Wrap_alloc@V?$allocator@V?$_List_unchecked_const_iterator@V?$_List_val@U?$_List_simple_types@PBX@std@@@std@@U_Iterator_base0@2@@std@@@std@@@std@@@0@0U_Nonscalar_ptr_iterator_tag@0@@Z ; std::_Uninit_move<std::_List_unchecked_const_iterator<std::_List_val<std::_List_simple_types<void const *> >,std::_Iterator_base0> *,std::_List_unchecked_const_iterator<std::_List_val<std::_List_simple_types<void const *> >,std::_Iterator_base0> *,std::_Wrap_alloc<std::allocator<std::_List_unchecked_const_iterator<std::_List_val<std::_List_simple_types<void const *> >,std::_Iterator_base0> > >,std::_List_unchecked_const_iterator<std::_List_val<std::_List_simple_types<void const *> >,std::_Iterator_base0> >
PUBLIC	??$_Debug_pointer@V?$_List_unchecked_const_iterator@V?$_List_val@U?$_List_simple_types@PBX@std@@@std@@U_Iterator_base0@2@@std@@@std@@YAXPAV?$_List_unchecked_const_iterator@V?$_List_val@U?$_List_simple_types@PBX@std@@@std@@U_Iterator_base0@2@@0@PB_WI@Z ; std::_Debug_pointer<std::_List_unchecked_const_iterator<std::_List_val<std::_List_simple_types<void const *> >,std::_Iterator_base0> >
PUBLIC	??$_Uninit_move@PAV?$_List_unchecked_const_iterator@V?$_List_val@U?$_List_simple_types@_K@std@@@std@@U_Iterator_base0@2@@std@@PAV12@U?$_Wrap_alloc@V?$allocator@V?$_List_unchecked_const_iterator@V?$_List_val@U?$_List_simple_types@_K@std@@@std@@U_Iterator_base0@2@@std@@@std@@@2@V12@@std@@YAPAV?$_List_unchecked_const_iterator@V?$_List_val@U?$_List_simple_types@_K@std@@@std@@U_Iterator_base0@2@@0@PAV10@00AAU?$_Wrap_alloc@U?$_Wrap_alloc@V?$allocator@V?$_List_unchecked_const_iterator@V?$_List_val@U?$_List_simple_types@_K@std@@@std@@U_Iterator_base0@2@@std@@@std@@@std@@@0@0U_Nonscalar_ptr_iterator_tag@0@@Z ; std::_Uninit_move<std::_List_unchecked_const_iterator<std::_List_val<std::_List_simple_types<unsigned __int64> >,std::_Iterator_base0> *,std::_List_unchecked_const_iterator<std::_List_val<std::_List_simple_types<unsigned __int64> >,std::_Iterator_base0> *,std::_Wrap_alloc<std::allocator<std::_List_unchecked_const_iterator<std::_List_val<std::_List_simple_types<unsigned __int64> >,std::_Iterator_base0> > >,std::_List_unchecked_const_iterator<std::_List_val<std::_List_simple_types<unsigned __int64> >,std::_Iterator_base0> >
PUBLIC	??$_Debug_pointer@V?$_List_unchecked_const_iterator@V?$_List_val@U?$_List_simple_types@_K@std@@@std@@U_Iterator_base0@2@@std@@@std@@YAXPAV?$_List_unchecked_const_iterator@V?$_List_val@U?$_List_simple_types@_K@std@@@std@@U_Iterator_base0@2@@0@PB_WI@Z ; std::_Debug_pointer<std::_List_unchecked_const_iterator<std::_List_val<std::_List_simple_types<unsigned __int64> >,std::_Iterator_base0> >
PUBLIC	??$forward@ABV?$_List_unchecked_const_iterator@V?$_List_val@U?$_List_simple_types@PBX@std@@@std@@U_Iterator_base0@2@@std@@@std@@YAABV?$_List_unchecked_const_iterator@V?$_List_val@U?$_List_simple_types@PBX@std@@@std@@U_Iterator_base0@2@@0@ABV10@@Z ; std::forward<std::_List_unchecked_const_iterator<std::_List_val<std::_List_simple_types<void const *> >,std::_Iterator_base0> const &>
PUBLIC	??$construct@V?$_List_unchecked_const_iterator@V?$_List_val@U?$_List_simple_types@PBX@std@@@std@@U_Iterator_base0@2@@std@@ABV12@@?$allocator_traits@U?$_Wrap_alloc@V?$allocator@V?$_List_unchecked_const_iterator@V?$_List_val@U?$_List_simple_types@PBX@std@@@std@@U_Iterator_base0@2@@std@@@std@@@std@@@std@@SAXAAU?$_Wrap_alloc@V?$allocator@V?$_List_unchecked_const_iterator@V?$_List_val@U?$_List_simple_types@PBX@std@@@std@@U_Iterator_base0@2@@std@@@std@@@1@PAV?$_List_unchecked_const_iterator@V?$_List_val@U?$_List_simple_types@PBX@std@@@std@@U_Iterator_base0@2@@1@ABV31@@Z ; std::allocator_traits<std::_Wrap_alloc<std::allocator<std::_List_unchecked_const_iterator<std::_List_val<std::_List_simple_types<void const *> >,std::_Iterator_base0> > > >::construct<std::_List_unchecked_const_iterator<std::_List_val<std::_List_simple_types<void const *> >,std::_Iterator_base0>,std::_List_unchecked_const_iterator<std::_List_val<std::_List_simple_types<void const *> >,std::_Iterator_base0> const &>
PUBLIC	??$forward@ABV?$_List_unchecked_const_iterator@V?$_List_val@U?$_List_simple_types@_K@std@@@std@@U_Iterator_base0@2@@std@@@std@@YAABV?$_List_unchecked_const_iterator@V?$_List_val@U?$_List_simple_types@_K@std@@@std@@U_Iterator_base0@2@@0@ABV10@@Z ; std::forward<std::_List_unchecked_const_iterator<std::_List_val<std::_List_simple_types<unsigned __int64> >,std::_Iterator_base0> const &>
PUBLIC	??$construct@V?$_List_unchecked_const_iterator@V?$_List_val@U?$_List_simple_types@_K@std@@@std@@U_Iterator_base0@2@@std@@ABV12@@?$allocator_traits@U?$_Wrap_alloc@V?$allocator@V?$_List_unchecked_const_iterator@V?$_List_val@U?$_List_simple_types@_K@std@@@std@@U_Iterator_base0@2@@std@@@std@@@std@@@std@@SAXAAU?$_Wrap_alloc@V?$allocator@V?$_List_unchecked_const_iterator@V?$_List_val@U?$_List_simple_types@_K@std@@@std@@U_Iterator_base0@2@@std@@@std@@@1@PAV?$_List_unchecked_const_iterator@V?$_List_val@U?$_List_simple_types@_K@std@@@std@@U_Iterator_base0@2@@1@ABV31@@Z ; std::allocator_traits<std::_Wrap_alloc<std::allocator<std::_List_unchecked_const_iterator<std::_List_val<std::_List_simple_types<unsigned __int64> >,std::_Iterator_base0> > > >::construct<std::_List_unchecked_const_iterator<std::_List_val<std::_List_simple_types<unsigned __int64> >,std::_Iterator_base0>,std::_List_unchecked_const_iterator<std::_List_val<std::_List_simple_types<unsigned __int64> >,std::_Iterator_base0> const &>
PUBLIC	??$destroy@V?$_List_unchecked_const_iterator@V?$_List_val@U?$_List_simple_types@PBX@std@@@std@@U_Iterator_base0@2@@std@@@?$_Wrap_alloc@V?$allocator@V?$_List_unchecked_const_iterator@V?$_List_val@U?$_List_simple_types@PBX@std@@@std@@U_Iterator_base0@2@@std@@@std@@@std@@QAEXPAV?$_List_unchecked_const_iterator@V?$_List_val@U?$_List_simple_types@PBX@std@@@std@@U_Iterator_base0@2@@1@@Z ; std::_Wrap_alloc<std::allocator<std::_List_unchecked_const_iterator<std::_List_val<std::_List_simple_types<void const *> >,std::_Iterator_base0> > >::destroy<std::_List_unchecked_const_iterator<std::_List_val<std::_List_simple_types<void const *> >,std::_Iterator_base0> >
PUBLIC	??$_Fn@U?$_Wrap_alloc@V?$allocator@V?$_List_unchecked_const_iterator@V?$_List_val@U?$_List_simple_types@PBX@std@@@std@@U_Iterator_base0@2@@std@@@std@@@std@@V?$_List_unchecked_const_iterator@V?$_List_val@U?$_List_simple_types@PBX@std@@@std@@U_Iterator_base0@2@@2@@_Alloc_destroy@std@@SAXHAAU?$_Wrap_alloc@V?$allocator@V?$_List_unchecked_const_iterator@V?$_List_val@U?$_List_simple_types@PBX@std@@@std@@U_Iterator_base0@2@@std@@@std@@@1@PAV?$_List_unchecked_const_iterator@V?$_List_val@U?$_List_simple_types@PBX@std@@@std@@U_Iterator_base0@2@@1@@Z ; std::_Alloc_destroy::_Fn<std::_Wrap_alloc<std::allocator<std::_List_unchecked_const_iterator<std::_List_val<std::_List_simple_types<void const *> >,std::_Iterator_base0> > >,std::_List_unchecked_const_iterator<std::_List_val<std::_List_simple_types<void const *> >,std::_Iterator_base0> >
PUBLIC	??$destroy@V?$_List_unchecked_const_iterator@V?$_List_val@U?$_List_simple_types@_K@std@@@std@@U_Iterator_base0@2@@std@@@?$_Wrap_alloc@V?$allocator@V?$_List_unchecked_const_iterator@V?$_List_val@U?$_List_simple_types@_K@std@@@std@@U_Iterator_base0@2@@std@@@std@@@std@@QAEXPAV?$_List_unchecked_const_iterator@V?$_List_val@U?$_List_simple_types@_K@std@@@std@@U_Iterator_base0@2@@1@@Z ; std::_Wrap_alloc<std::allocator<std::_List_unchecked_const_iterator<std::_List_val<std::_List_simple_types<unsigned __int64> >,std::_Iterator_base0> > >::destroy<std::_List_unchecked_const_iterator<std::_List_val<std::_List_simple_types<unsigned __int64> >,std::_Iterator_base0> >
PUBLIC	??$_Fn@U?$_Wrap_alloc@V?$allocator@V?$_List_unchecked_const_iterator@V?$_List_val@U?$_List_simple_types@_K@std@@@std@@U_Iterator_base0@2@@std@@@std@@@std@@V?$_List_unchecked_const_iterator@V?$_List_val@U?$_List_simple_types@_K@std@@@std@@U_Iterator_base0@2@@2@@_Alloc_destroy@std@@SAXHAAU?$_Wrap_alloc@V?$allocator@V?$_List_unchecked_const_iterator@V?$_List_val@U?$_List_simple_types@_K@std@@@std@@U_Iterator_base0@2@@std@@@std@@@1@PAV?$_List_unchecked_const_iterator@V?$_List_val@U?$_List_simple_types@_K@std@@@std@@U_Iterator_base0@2@@1@@Z ; std::_Alloc_destroy::_Fn<std::_Wrap_alloc<std::allocator<std::_List_unchecked_const_iterator<std::_List_val<std::_List_simple_types<unsigned __int64> >,std::_Iterator_base0> > >,std::_List_unchecked_const_iterator<std::_List_val<std::_List_simple_types<unsigned __int64> >,std::_Iterator_base0> >
PUBLIC	??$construct@V?$_List_unchecked_const_iterator@V?$_List_val@U?$_List_simple_types@PBX@std@@@std@@U_Iterator_base0@2@@std@@V12@@?$_Wrap_alloc@U?$_Wrap_alloc@V?$allocator@V?$_List_unchecked_const_iterator@V?$_List_val@U?$_List_simple_types@PBX@std@@@std@@U_Iterator_base0@2@@std@@@std@@@std@@@std@@QAEXPAV?$_List_unchecked_const_iterator@V?$_List_val@U?$_List_simple_types@PBX@std@@@std@@U_Iterator_base0@2@@1@$$QAV21@@Z ; std::_Wrap_alloc<std::_Wrap_alloc<std::allocator<std::_List_unchecked_const_iterator<std::_List_val<std::_List_simple_types<void const *> >,std::_Iterator_base0> > > >::construct<std::_List_unchecked_const_iterator<std::_List_val<std::_List_simple_types<void const *> >,std::_Iterator_base0>,std::_List_unchecked_const_iterator<std::_List_val<std::_List_simple_types<void const *> >,std::_Iterator_base0> >
PUBLIC	??$construct@V?$_List_unchecked_const_iterator@V?$_List_val@U?$_List_simple_types@_K@std@@@std@@U_Iterator_base0@2@@std@@V12@@?$_Wrap_alloc@U?$_Wrap_alloc@V?$allocator@V?$_List_unchecked_const_iterator@V?$_List_val@U?$_List_simple_types@_K@std@@@std@@U_Iterator_base0@2@@std@@@std@@@std@@@std@@QAEXPAV?$_List_unchecked_const_iterator@V?$_List_val@U?$_List_simple_types@_K@std@@@std@@U_Iterator_base0@2@@1@$$QAV21@@Z ; std::_Wrap_alloc<std::_Wrap_alloc<std::allocator<std::_List_unchecked_const_iterator<std::_List_val<std::_List_simple_types<unsigned __int64> >,std::_Iterator_base0> > > >::construct<std::_List_unchecked_const_iterator<std::_List_val<std::_List_simple_types<unsigned __int64> >,std::_Iterator_base0>,std::_List_unchecked_const_iterator<std::_List_val<std::_List_simple_types<unsigned __int64> >,std::_Iterator_base0> >
PUBLIC	??$construct@V?$_List_unchecked_const_iterator@V?$_List_val@U?$_List_simple_types@PBX@std@@@std@@U_Iterator_base0@2@@std@@ABV12@@?$_Wrap_alloc@V?$allocator@V?$_List_unchecked_const_iterator@V?$_List_val@U?$_List_simple_types@PBX@std@@@std@@U_Iterator_base0@2@@std@@@std@@@std@@QAEXPAV?$_List_unchecked_const_iterator@V?$_List_val@U?$_List_simple_types@PBX@std@@@std@@U_Iterator_base0@2@@1@ABV21@@Z ; std::_Wrap_alloc<std::allocator<std::_List_unchecked_const_iterator<std::_List_val<std::_List_simple_types<void const *> >,std::_Iterator_base0> > >::construct<std::_List_unchecked_const_iterator<std::_List_val<std::_List_simple_types<void const *> >,std::_Iterator_base0>,std::_List_unchecked_const_iterator<std::_List_val<std::_List_simple_types<void const *> >,std::_Iterator_base0> const &>
PUBLIC	??$_Fn@U?$_Wrap_alloc@V?$allocator@V?$_List_unchecked_const_iterator@V?$_List_val@U?$_List_simple_types@PBX@std@@@std@@U_Iterator_base0@2@@std@@@std@@@std@@V?$_List_unchecked_const_iterator@V?$_List_val@U?$_List_simple_types@PBX@std@@@std@@U_Iterator_base0@2@@2@ABV32@@_Alloc_construct@std@@SAXHAAU?$_Wrap_alloc@V?$allocator@V?$_List_unchecked_const_iterator@V?$_List_val@U?$_List_simple_types@PBX@std@@@std@@U_Iterator_base0@2@@std@@@std@@@1@PAV?$_List_unchecked_const_iterator@V?$_List_val@U?$_List_simple_types@PBX@std@@@std@@U_Iterator_base0@2@@1@ABV31@@Z ; std::_Alloc_construct::_Fn<std::_Wrap_alloc<std::allocator<std::_List_unchecked_const_iterator<std::_List_val<std::_List_simple_types<void const *> >,std::_Iterator_base0> > >,std::_List_unchecked_const_iterator<std::_List_val<std::_List_simple_types<void const *> >,std::_Iterator_base0>,std::_List_unchecked_const_iterator<std::_List_val<std::_List_simple_types<void const *> >,std::_Iterator_base0> const &>
PUBLIC	??$construct@V?$_List_unchecked_const_iterator@V?$_List_val@U?$_List_simple_types@_K@std@@@std@@U_Iterator_base0@2@@std@@ABV12@@?$_Wrap_alloc@V?$allocator@V?$_List_unchecked_const_iterator@V?$_List_val@U?$_List_simple_types@_K@std@@@std@@U_Iterator_base0@2@@std@@@std@@@std@@QAEXPAV?$_List_unchecked_const_iterator@V?$_List_val@U?$_List_simple_types@_K@std@@@std@@U_Iterator_base0@2@@1@ABV21@@Z ; std::_Wrap_alloc<std::allocator<std::_List_unchecked_const_iterator<std::_List_val<std::_List_simple_types<unsigned __int64> >,std::_Iterator_base0> > >::construct<std::_List_unchecked_const_iterator<std::_List_val<std::_List_simple_types<unsigned __int64> >,std::_Iterator_base0>,std::_List_unchecked_const_iterator<std::_List_val<std::_List_simple_types<unsigned __int64> >,std::_Iterator_base0> const &>
PUBLIC	??$_Fn@U?$_Wrap_alloc@V?$allocator@V?$_List_unchecked_const_iterator@V?$_List_val@U?$_List_simple_types@_K@std@@@std@@U_Iterator_base0@2@@std@@@std@@@std@@V?$_List_unchecked_const_iterator@V?$_List_val@U?$_List_simple_types@_K@std@@@std@@U_Iterator_base0@2@@2@ABV32@@_Alloc_construct@std@@SAXHAAU?$_Wrap_alloc@V?$allocator@V?$_List_unchecked_const_iterator@V?$_List_val@U?$_List_simple_types@_K@std@@@std@@U_Iterator_base0@2@@std@@@std@@@1@PAV?$_List_unchecked_const_iterator@V?$_List_val@U?$_List_simple_types@_K@std@@@std@@U_Iterator_base0@2@@1@ABV31@@Z ; std::_Alloc_construct::_Fn<std::_Wrap_alloc<std::allocator<std::_List_unchecked_const_iterator<std::_List_val<std::_List_simple_types<unsigned __int64> >,std::_Iterator_base0> > >,std::_List_unchecked_const_iterator<std::_List_val<std::_List_simple_types<unsigned __int64> >,std::_Iterator_base0>,std::_List_unchecked_const_iterator<std::_List_val<std::_List_simple_types<unsigned __int64> >,std::_Iterator_base0> const &>
PUBLIC	??$forward@V?$_List_unchecked_const_iterator@V?$_List_val@U?$_List_simple_types@PBX@std@@@std@@U_Iterator_base0@2@@std@@@std@@YA$$QAV?$_List_unchecked_const_iterator@V?$_List_val@U?$_List_simple_types@PBX@std@@@std@@U_Iterator_base0@2@@0@AAV10@@Z ; std::forward<std::_List_unchecked_const_iterator<std::_List_val<std::_List_simple_types<void const *> >,std::_Iterator_base0> >
PUBLIC	??$construct@V?$_List_unchecked_const_iterator@V?$_List_val@U?$_List_simple_types@PBX@std@@@std@@U_Iterator_base0@2@@std@@V12@@?$allocator_traits@U?$_Wrap_alloc@V?$allocator@V?$_List_unchecked_const_iterator@V?$_List_val@U?$_List_simple_types@PBX@std@@@std@@U_Iterator_base0@2@@std@@@std@@@std@@@std@@SAXAAU?$_Wrap_alloc@V?$allocator@V?$_List_unchecked_const_iterator@V?$_List_val@U?$_List_simple_types@PBX@std@@@std@@U_Iterator_base0@2@@std@@@std@@@1@PAV?$_List_unchecked_const_iterator@V?$_List_val@U?$_List_simple_types@PBX@std@@@std@@U_Iterator_base0@2@@1@$$QAV31@@Z ; std::allocator_traits<std::_Wrap_alloc<std::allocator<std::_List_unchecked_const_iterator<std::_List_val<std::_List_simple_types<void const *> >,std::_Iterator_base0> > > >::construct<std::_List_unchecked_const_iterator<std::_List_val<std::_List_simple_types<void const *> >,std::_Iterator_base0>,std::_List_unchecked_const_iterator<std::_List_val<std::_List_simple_types<void const *> >,std::_Iterator_base0> >
PUBLIC	??$forward@V?$_List_unchecked_const_iterator@V?$_List_val@U?$_List_simple_types@_K@std@@@std@@U_Iterator_base0@2@@std@@@std@@YA$$QAV?$_List_unchecked_const_iterator@V?$_List_val@U?$_List_simple_types@_K@std@@@std@@U_Iterator_base0@2@@0@AAV10@@Z ; std::forward<std::_List_unchecked_const_iterator<std::_List_val<std::_List_simple_types<unsigned __int64> >,std::_Iterator_base0> >
PUBLIC	??$construct@V?$_List_unchecked_const_iterator@V?$_List_val@U?$_List_simple_types@_K@std@@@std@@U_Iterator_base0@2@@std@@V12@@?$allocator_traits@U?$_Wrap_alloc@V?$allocator@V?$_List_unchecked_const_iterator@V?$_List_val@U?$_List_simple_types@_K@std@@@std@@U_Iterator_base0@2@@std@@@std@@@std@@@std@@SAXAAU?$_Wrap_alloc@V?$allocator@V?$_List_unchecked_const_iterator@V?$_List_val@U?$_List_simple_types@_K@std@@@std@@U_Iterator_base0@2@@std@@@std@@@1@PAV?$_List_unchecked_const_iterator@V?$_List_val@U?$_List_simple_types@_K@std@@@std@@U_Iterator_base0@2@@1@$$QAV31@@Z ; std::allocator_traits<std::_Wrap_alloc<std::allocator<std::_List_unchecked_const_iterator<std::_List_val<std::_List_simple_types<unsigned __int64> >,std::_Iterator_base0> > > >::construct<std::_List_unchecked_const_iterator<std::_List_val<std::_List_simple_types<unsigned __int64> >,std::_Iterator_base0>,std::_List_unchecked_const_iterator<std::_List_val<std::_List_simple_types<unsigned __int64> >,std::_Iterator_base0> >
PUBLIC	??$destroy@V?$_List_unchecked_const_iterator@V?$_List_val@U?$_List_simple_types@PBX@std@@@std@@U_Iterator_base0@2@@std@@@?$allocator_traits@V?$allocator@V?$_List_unchecked_const_iterator@V?$_List_val@U?$_List_simple_types@PBX@std@@@std@@U_Iterator_base0@2@@std@@@std@@@std@@SAXAAV?$allocator@V?$_List_unchecked_const_iterator@V?$_List_val@U?$_List_simple_types@PBX@std@@@std@@U_Iterator_base0@2@@std@@@1@PAV?$_List_unchecked_const_iterator@V?$_List_val@U?$_List_simple_types@PBX@std@@@std@@U_Iterator_base0@2@@1@@Z ; std::allocator_traits<std::allocator<std::_List_unchecked_const_iterator<std::_List_val<std::_List_simple_types<void const *> >,std::_Iterator_base0> > >::destroy<std::_List_unchecked_const_iterator<std::_List_val<std::_List_simple_types<void const *> >,std::_Iterator_base0> >
PUBLIC	??$destroy@V?$_List_unchecked_const_iterator@V?$_List_val@U?$_List_simple_types@_K@std@@@std@@U_Iterator_base0@2@@std@@@?$allocator_traits@V?$allocator@V?$_List_unchecked_const_iterator@V?$_List_val@U?$_List_simple_types@_K@std@@@std@@U_Iterator_base0@2@@std@@@std@@@std@@SAXAAV?$allocator@V?$_List_unchecked_const_iterator@V?$_List_val@U?$_List_simple_types@_K@std@@@std@@U_Iterator_base0@2@@std@@@1@PAV?$_List_unchecked_const_iterator@V?$_List_val@U?$_List_simple_types@_K@std@@@std@@U_Iterator_base0@2@@1@@Z ; std::allocator_traits<std::allocator<std::_List_unchecked_const_iterator<std::_List_val<std::_List_simple_types<unsigned __int64> >,std::_Iterator_base0> > >::destroy<std::_List_unchecked_const_iterator<std::_List_val<std::_List_simple_types<unsigned __int64> >,std::_Iterator_base0> >
PUBLIC	??$construct@V?$_List_unchecked_const_iterator@V?$_List_val@U?$_List_simple_types@PBX@std@@@std@@U_Iterator_base0@2@@std@@V12@@?$_Wrap_alloc@V?$allocator@V?$_List_unchecked_const_iterator@V?$_List_val@U?$_List_simple_types@PBX@std@@@std@@U_Iterator_base0@2@@std@@@std@@@std@@QAEXPAV?$_List_unchecked_const_iterator@V?$_List_val@U?$_List_simple_types@PBX@std@@@std@@U_Iterator_base0@2@@1@$$QAV21@@Z ; std::_Wrap_alloc<std::allocator<std::_List_unchecked_const_iterator<std::_List_val<std::_List_simple_types<void const *> >,std::_Iterator_base0> > >::construct<std::_List_unchecked_const_iterator<std::_List_val<std::_List_simple_types<void const *> >,std::_Iterator_base0>,std::_List_unchecked_const_iterator<std::_List_val<std::_List_simple_types<void const *> >,std::_Iterator_base0> >
PUBLIC	??$_Fn@U?$_Wrap_alloc@V?$allocator@V?$_List_unchecked_const_iterator@V?$_List_val@U?$_List_simple_types@PBX@std@@@std@@U_Iterator_base0@2@@std@@@std@@@std@@V?$_List_unchecked_const_iterator@V?$_List_val@U?$_List_simple_types@PBX@std@@@std@@U_Iterator_base0@2@@2@V32@@_Alloc_construct@std@@SAXHAAU?$_Wrap_alloc@V?$allocator@V?$_List_unchecked_const_iterator@V?$_List_val@U?$_List_simple_types@PBX@std@@@std@@U_Iterator_base0@2@@std@@@std@@@1@PAV?$_List_unchecked_const_iterator@V?$_List_val@U?$_List_simple_types@PBX@std@@@std@@U_Iterator_base0@2@@1@$$QAV31@@Z ; std::_Alloc_construct::_Fn<std::_Wrap_alloc<std::allocator<std::_List_unchecked_const_iterator<std::_List_val<std::_List_simple_types<void const *> >,std::_Iterator_base0> > >,std::_List_unchecked_const_iterator<std::_List_val<std::_List_simple_types<void const *> >,std::_Iterator_base0>,std::_List_unchecked_const_iterator<std::_List_val<std::_List_simple_types<void const *> >,std::_Iterator_base0> >
PUBLIC	??$construct@V?$_List_unchecked_const_iterator@V?$_List_val@U?$_List_simple_types@_K@std@@@std@@U_Iterator_base0@2@@std@@V12@@?$_Wrap_alloc@V?$allocator@V?$_List_unchecked_const_iterator@V?$_List_val@U?$_List_simple_types@_K@std@@@std@@U_Iterator_base0@2@@std@@@std@@@std@@QAEXPAV?$_List_unchecked_const_iterator@V?$_List_val@U?$_List_simple_types@_K@std@@@std@@U_Iterator_base0@2@@1@$$QAV21@@Z ; std::_Wrap_alloc<std::allocator<std::_List_unchecked_const_iterator<std::_List_val<std::_List_simple_types<unsigned __int64> >,std::_Iterator_base0> > >::construct<std::_List_unchecked_const_iterator<std::_List_val<std::_List_simple_types<unsigned __int64> >,std::_Iterator_base0>,std::_List_unchecked_const_iterator<std::_List_val<std::_List_simple_types<unsigned __int64> >,std::_Iterator_base0> >
PUBLIC	??$_Fn@U?$_Wrap_alloc@V?$allocator@V?$_List_unchecked_const_iterator@V?$_List_val@U?$_List_simple_types@_K@std@@@std@@U_Iterator_base0@2@@std@@@std@@@std@@V?$_List_unchecked_const_iterator@V?$_List_val@U?$_List_simple_types@_K@std@@@std@@U_Iterator_base0@2@@2@V32@@_Alloc_construct@std@@SAXHAAU?$_Wrap_alloc@V?$allocator@V?$_List_unchecked_const_iterator@V?$_List_val@U?$_List_simple_types@_K@std@@@std@@U_Iterator_base0@2@@std@@@std@@@1@PAV?$_List_unchecked_const_iterator@V?$_List_val@U?$_List_simple_types@_K@std@@@std@@U_Iterator_base0@2@@1@$$QAV31@@Z ; std::_Alloc_construct::_Fn<std::_Wrap_alloc<std::allocator<std::_List_unchecked_const_iterator<std::_List_val<std::_List_simple_types<unsigned __int64> >,std::_Iterator_base0> > >,std::_List_unchecked_const_iterator<std::_List_val<std::_List_simple_types<unsigned __int64> >,std::_Iterator_base0>,std::_List_unchecked_const_iterator<std::_List_val<std::_List_simple_types<unsigned __int64> >,std::_Iterator_base0> >
PUBLIC	??$construct@V?$_List_unchecked_const_iterator@V?$_List_val@U?$_List_simple_types@PBX@std@@@std@@U_Iterator_base0@2@@std@@ABV12@@?$allocator_traits@V?$allocator@V?$_List_unchecked_const_iterator@V?$_List_val@U?$_List_simple_types@PBX@std@@@std@@U_Iterator_base0@2@@std@@@std@@@std@@SAXAAV?$allocator@V?$_List_unchecked_const_iterator@V?$_List_val@U?$_List_simple_types@PBX@std@@@std@@U_Iterator_base0@2@@std@@@1@PAV?$_List_unchecked_const_iterator@V?$_List_val@U?$_List_simple_types@PBX@std@@@std@@U_Iterator_base0@2@@1@ABV31@@Z ; std::allocator_traits<std::allocator<std::_List_unchecked_const_iterator<std::_List_val<std::_List_simple_types<void const *> >,std::_Iterator_base0> > >::construct<std::_List_unchecked_const_iterator<std::_List_val<std::_List_simple_types<void const *> >,std::_Iterator_base0>,std::_List_unchecked_const_iterator<std::_List_val<std::_List_simple_types<void const *> >,std::_Iterator_base0> const &>
PUBLIC	??$construct@V?$_List_unchecked_const_iterator@V?$_List_val@U?$_List_simple_types@_K@std@@@std@@U_Iterator_base0@2@@std@@ABV12@@?$allocator_traits@V?$allocator@V?$_List_unchecked_const_iterator@V?$_List_val@U?$_List_simple_types@_K@std@@@std@@U_Iterator_base0@2@@std@@@std@@@std@@SAXAAV?$allocator@V?$_List_unchecked_const_iterator@V?$_List_val@U?$_List_simple_types@_K@std@@@std@@U_Iterator_base0@2@@std@@@1@PAV?$_List_unchecked_const_iterator@V?$_List_val@U?$_List_simple_types@_K@std@@@std@@U_Iterator_base0@2@@1@ABV31@@Z ; std::allocator_traits<std::allocator<std::_List_unchecked_const_iterator<std::_List_val<std::_List_simple_types<unsigned __int64> >,std::_Iterator_base0> > >::construct<std::_List_unchecked_const_iterator<std::_List_val<std::_List_simple_types<unsigned __int64> >,std::_Iterator_base0>,std::_List_unchecked_const_iterator<std::_List_val<std::_List_simple_types<unsigned __int64> >,std::_Iterator_base0> const &>
PUBLIC	??$destroy@V?$_List_unchecked_const_iterator@V?$_List_val@U?$_List_simple_types@PBX@std@@@std@@U_Iterator_base0@2@@std@@@?$allocator@V?$_List_unchecked_const_iterator@V?$_List_val@U?$_List_simple_types@PBX@std@@@std@@U_Iterator_base0@2@@std@@@std@@QAEXPAV?$_List_unchecked_const_iterator@V?$_List_val@U?$_List_simple_types@PBX@std@@@std@@U_Iterator_base0@2@@1@@Z ; std::allocator<std::_List_unchecked_const_iterator<std::_List_val<std::_List_simple_types<void const *> >,std::_Iterator_base0> >::destroy<std::_List_unchecked_const_iterator<std::_List_val<std::_List_simple_types<void const *> >,std::_Iterator_base0> >
PUBLIC	??$destroy@V?$_List_unchecked_const_iterator@V?$_List_val@U?$_List_simple_types@_K@std@@@std@@U_Iterator_base0@2@@std@@@?$allocator@V?$_List_unchecked_const_iterator@V?$_List_val@U?$_List_simple_types@_K@std@@@std@@U_Iterator_base0@2@@std@@@std@@QAEXPAV?$_List_unchecked_const_iterator@V?$_List_val@U?$_List_simple_types@_K@std@@@std@@U_Iterator_base0@2@@1@@Z ; std::allocator<std::_List_unchecked_const_iterator<std::_List_val<std::_List_simple_types<unsigned __int64> >,std::_Iterator_base0> >::destroy<std::_List_unchecked_const_iterator<std::_List_val<std::_List_simple_types<unsigned __int64> >,std::_Iterator_base0> >
PUBLIC	??$construct@V?$_List_unchecked_const_iterator@V?$_List_val@U?$_List_simple_types@PBX@std@@@std@@U_Iterator_base0@2@@std@@V12@@?$allocator_traits@V?$allocator@V?$_List_unchecked_const_iterator@V?$_List_val@U?$_List_simple_types@PBX@std@@@std@@U_Iterator_base0@2@@std@@@std@@@std@@SAXAAV?$allocator@V?$_List_unchecked_const_iterator@V?$_List_val@U?$_List_simple_types@PBX@std@@@std@@U_Iterator_base0@2@@std@@@1@PAV?$_List_unchecked_const_iterator@V?$_List_val@U?$_List_simple_types@PBX@std@@@std@@U_Iterator_base0@2@@1@$$QAV31@@Z ; std::allocator_traits<std::allocator<std::_List_unchecked_const_iterator<std::_List_val<std::_List_simple_types<void const *> >,std::_Iterator_base0> > >::construct<std::_List_unchecked_const_iterator<std::_List_val<std::_List_simple_types<void const *> >,std::_Iterator_base0>,std::_List_unchecked_const_iterator<std::_List_val<std::_List_simple_types<void const *> >,std::_Iterator_base0> >
PUBLIC	??$construct@V?$_List_unchecked_const_iterator@V?$_List_val@U?$_List_simple_types@_K@std@@@std@@U_Iterator_base0@2@@std@@V12@@?$allocator_traits@V?$allocator@V?$_List_unchecked_const_iterator@V?$_List_val@U?$_List_simple_types@_K@std@@@std@@U_Iterator_base0@2@@std@@@std@@@std@@SAXAAV?$allocator@V?$_List_unchecked_const_iterator@V?$_List_val@U?$_List_simple_types@_K@std@@@std@@U_Iterator_base0@2@@std@@@1@PAV?$_List_unchecked_const_iterator@V?$_List_val@U?$_List_simple_types@_K@std@@@std@@U_Iterator_base0@2@@1@$$QAV31@@Z ; std::allocator_traits<std::allocator<std::_List_unchecked_const_iterator<std::_List_val<std::_List_simple_types<unsigned __int64> >,std::_Iterator_base0> > >::construct<std::_List_unchecked_const_iterator<std::_List_val<std::_List_simple_types<unsigned __int64> >,std::_Iterator_base0>,std::_List_unchecked_const_iterator<std::_List_val<std::_List_simple_types<unsigned __int64> >,std::_Iterator_base0> >
PUBLIC	??$construct@V?$_List_unchecked_const_iterator@V?$_List_val@U?$_List_simple_types@PBX@std@@@std@@U_Iterator_base0@2@@std@@V12@@?$allocator@V?$_List_unchecked_const_iterator@V?$_List_val@U?$_List_simple_types@PBX@std@@@std@@U_Iterator_base0@2@@std@@@std@@QAEXPAV?$_List_unchecked_const_iterator@V?$_List_val@U?$_List_simple_types@PBX@std@@@std@@U_Iterator_base0@2@@1@$$QAV21@@Z ; std::allocator<std::_List_unchecked_const_iterator<std::_List_val<std::_List_simple_types<void const *> >,std::_Iterator_base0> >::construct<std::_List_unchecked_const_iterator<std::_List_val<std::_List_simple_types<void const *> >,std::_Iterator_base0>,std::_List_unchecked_const_iterator<std::_List_val<std::_List_simple_types<void const *> >,std::_Iterator_base0> >
PUBLIC	??$construct@V?$_List_unchecked_const_iterator@V?$_List_val@U?$_List_simple_types@_K@std@@@std@@U_Iterator_base0@2@@std@@V12@@?$allocator@V?$_List_unchecked_const_iterator@V?$_List_val@U?$_List_simple_types@_K@std@@@std@@U_Iterator_base0@2@@std@@@std@@QAEXPAV?$_List_unchecked_const_iterator@V?$_List_val@U?$_List_simple_types@_K@std@@@std@@U_Iterator_base0@2@@1@$$QAV21@@Z ; std::allocator<std::_List_unchecked_const_iterator<std::_List_val<std::_List_simple_types<unsigned __int64> >,std::_Iterator_base0> >::construct<std::_List_unchecked_const_iterator<std::_List_val<std::_List_simple_types<unsigned __int64> >,std::_Iterator_base0>,std::_List_unchecked_const_iterator<std::_List_val<std::_List_simple_types<unsigned __int64> >,std::_Iterator_base0> >
PUBLIC	??_E?$basic_stringstream@DU?$char_traits@D@std@@V?$allocator@D@2@@std@@$4PPPPPPPM@A@AEPAXI@Z ; std::basic_stringstream<char,std::char_traits<char>,std::allocator<char> >::`vector deleting destructor'
PUBLIC	??_E?$basic_ofstream@DU?$char_traits@D@std@@@std@@$4PPPPPPPM@A@AEPAXI@Z ; std::basic_ofstream<char,std::char_traits<char> >::`vector deleting destructor'
PUBLIC	??_C@_1JA@EADLBAJ@?$AAC?$AA?3?$AA?2?$AAP?$AAr?$AAo?$AAg?$AAr?$AAa?$AAm?$AA?5?$AAF?$AAi?$AAl?$AAe?$AAs?$AA?5?$AA?$CI?$AAx?$AA8?$AA6?$AA?$CJ?$AA?2?$AAM?$AAi?$AAc?$AAr?$AAo?$AAs?$AAo?$AAf?$AAt@ ; `string'
PUBLIC	??_C@_1DC@POOIKBAO@?$AAI?$AAT?$AAE?$AAR?$AAA?$AAT?$AAO?$AAR?$AA?5?$AAL?$AAI?$AAS?$AAT?$AA?5?$AAC?$AAO?$AAR?$AAR?$AAU?$AAP?$AAT?$AAE?$AAD?$AA?$CB?$AA?$AA@ ; `string'
PUBLIC	?npos@?$basic_string@DU?$char_traits@D@std@@V?$allocator@D@2@@std@@2IB ; std::basic_string<char,std::char_traits<char>,std::allocator<char> >::npos
PUBLIC	??_R0?AVexception@std@@@8			; std::exception `RTTI Type Descriptor'
PUBLIC	__CT??_R0?AVexception@std@@@8??0exception@std@@QAE@ABV01@@Z12
PUBLIC	??_7error_category@std@@6B@			; std::error_category::`vftable'
PUBLIC	??_7_Generic_error_category@std@@6B@		; std::_Generic_error_category::`vftable'
PUBLIC	??_C@_07DCLBNMLN@generic?$AA@			; `string'
PUBLIC	??_C@_0O@BFJCFAAK@unknown?5error?$AA@		; `string'
PUBLIC	??_7_Iostream_error_category@std@@6B@		; std::_Iostream_error_category::`vftable'
PUBLIC	??_C@_08LLGCOLLL@iostream?$AA@			; `string'
PUBLIC	??_C@_0BG@PADBLCHM@iostream?5stream?5error?$AA@	; `string'
PUBLIC	??_7_System_error_category@std@@6B@		; std::_System_error_category::`vftable'
PUBLIC	??_C@_06FHFOAHML@system?$AA@			; `string'
PUBLIC	?_Generic_object@?$_Error_objects@H@std@@2V_Generic_error_category@2@A ; std::_Error_objects<int>::_Generic_object
PUBLIC	?_Iostream_object@?$_Error_objects@H@std@@2V_Iostream_error_category@2@A ; std::_Error_objects<int>::_Iostream_object
PUBLIC	?_System_object@?$_Error_objects@H@std@@2V_System_error_category@2@A ; std::_Error_objects<int>::_System_object
PUBLIC	??_C@_15GANGMFKL@?$AA?$CF?$AAs?$AA?$AA@		; `string'
PUBLIC	??_7DrawEventRecorder@gfx@mozilla@@6B@		; mozilla::gfx::DrawEventRecorder::`vftable'
PUBLIC	?id@?$num_put@DV?$back_insert_iterator@V?$basic_string@DU?$char_traits@D@std@@V?$allocator@D@2@@std@@@std@@@std@@2V0locale@2@A ; std::num_put<char,std::back_insert_iterator<std::basic_string<char,std::char_traits<char>,std::allocator<char> > > >::id
PUBLIC	?id@?$num_put@_WV?$back_insert_iterator@V?$basic_string@_WU?$char_traits@_W@std@@V?$allocator@_W@2@@std@@@std@@@std@@2V0locale@2@A ; std::num_put<wchar_t,std::back_insert_iterator<std::basic_string<wchar_t,std::char_traits<wchar_t>,std::allocator<wchar_t> > > >::id
PUBLIC	??_7?$basic_stringbuf@DU?$char_traits@D@std@@V?$allocator@D@2@@std@@6B@ ; std::basic_stringbuf<char,std::char_traits<char>,std::allocator<char> >::`vftable'
PUBLIC	??_7?$basic_stringstream@DU?$char_traits@D@std@@V?$allocator@D@2@@std@@6B@ ; std::basic_stringstream<char,std::char_traits<char>,std::allocator<char> >::`vftable'
PUBLIC	??_8?$basic_stringstream@DU?$char_traits@D@std@@V?$allocator@D@2@@std@@7B?$basic_istream@DU?$char_traits@D@std@@@1@@ ; std::basic_stringstream<char,std::char_traits<char>,std::allocator<char> >::`vbtable'
PUBLIC	??_8?$basic_stringstream@DU?$char_traits@D@std@@V?$allocator@D@2@@std@@7B?$basic_ostream@DU?$char_traits@D@std@@@1@@ ; std::basic_stringstream<char,std::char_traits<char>,std::allocator<char> >::`vbtable'
PUBLIC	??_7DrawEventRecorderPrivate@gfx@mozilla@@6B@	; mozilla::gfx::DrawEventRecorderPrivate::`vftable'
PUBLIC	??_7?$basic_filebuf@DU?$char_traits@D@std@@@std@@6B@ ; std::basic_filebuf<char,std::char_traits<char> >::`vftable'
PUBLIC	??_7?$basic_ofstream@DU?$char_traits@D@std@@@std@@6B@ ; std::basic_ofstream<char,std::char_traits<char> >::`vftable'
PUBLIC	??_8?$basic_ofstream@DU?$char_traits@D@std@@@std@@7B@ ; std::basic_ofstream<char,std::char_traits<char> >::`vbtable'
PUBLIC	??_7DrawEventRecorderFile@gfx@mozilla@@6B@	; mozilla::gfx::DrawEventRecorderFile::`vftable'
PUBLIC	??_7DrawEventRecorderMemory@gfx@mozilla@@6B@	; mozilla::gfx::DrawEventRecorderMemory::`vftable'
PUBLIC	??_C@_1IO@FEAPGJBD@?$AAC?$AA?3?$AA?2?$AAP?$AAr?$AAo?$AAg?$AAr?$AAa?$AAm?$AA?5?$AAF?$AAi?$AAl?$AAe?$AAs?$AA?5?$AA?$CI?$AAx?$AA8?$AA6?$AA?$CJ?$AA?2?$AAM?$AAi?$AAc?$AAr?$AAo?$AAs?$AAo?$AAf?$AAt@ ; `string'
PUBLIC	?_Stinit@?1??_Init@?$basic_filebuf@DU?$char_traits@D@std@@@std@@IAEXPAU_iobuf@@W4_Initfl@23@@Z@4HA ; `std::basic_filebuf<char,std::char_traits<char> >::_Init'::`2'::_Stinit
PUBLIC	??_C@_0BA@JFNIOLAK@string?5too?5long?$AA@	; `string'
PUBLIC	??_C@_0BI@CFPLBAOH@invalid?5string?5position?$AA@ ; `string'
PUBLIC	??_C@_0BD@OLBABOEK@vector?$DMT?$DO?5too?5long?$AA@ ; `string'
PUBLIC	??_C@_1EG@CNCHLAOB@?$AAs?$AAt?$AAr?$AAi?$AAn?$AAg?$AA?5?$AAi?$AAt?$AAe?$AAr?$AAa?$AAt?$AAo?$AAr?$AA?5?$AAn?$AAo?$AAt?$AA?5?$AAd?$AAe?$AAr?$AAe?$AAf?$AAe?$AAr?$AAe?$AAn?$AAc?$AAa?$AAb@ ; `string'
PUBLIC	??_C@_0CE@OFMIGAMM@Standard?5C?$CL?$CL?5Libraries?5Out?5of?5Ra@ ; `string'
PUBLIC	??_C@_1FG@IBPIFFN@?$AA?$CC?$AAS?$AAt?$AAa?$AAn?$AAd?$AAa?$AAr?$AAd?$AA?5?$AAC?$AA?$CL?$AA?$CL?$AA?5?$AAL?$AAi?$AAb?$AAr?$AAa?$AAr?$AAi?$AAe?$AAs?$AA?5?$AAO?$AAu?$AAt?$AA?5?$AAo?$AAf?$AA?5?$AAR@ ; `string'
PUBLIC	??_C@_1MG@GDGHDIKC@?$AAs?$AAt?$AAd?$AA?3?$AA?3?$AA_?$AAS?$AAt?$AAr?$AAi?$AAn?$AAg?$AA_?$AAc?$AAo?$AAn?$AAs?$AAt?$AA_?$AAi?$AAt?$AAe?$AAr?$AAa?$AAt?$AAo?$AAr?$AA?$DM?$AAc?$AAl?$AAa?$AAs@ ; `string'
PUBLIC	??_C@_1BO@MEPPHOO@?$AA?$CC?$AAo?$AAu?$AAt?$AA?5?$AAo?$AAf?$AA?5?$AAr?$AAa?$AAn?$AAg?$AAe?$AA?$CC?$AA?$AA@ ; `string'
PUBLIC	??_C@_1IM@EINEHPHE@?$AAC?$AA?3?$AA?2?$AAP?$AAr?$AAo?$AAg?$AAr?$AAa?$AAm?$AA?5?$AAF?$AAi?$AAl?$AAe?$AAs?$AA?5?$AA?$CI?$AAx?$AA8?$AA6?$AA?$CJ?$AA?2?$AAM?$AAi?$AAc?$AAr?$AAo?$AAs?$AAo?$AAf?$AAt@ ; `string'
PUBLIC	??_C@_1EK@EEHFMKDC@?$AAv?$AAe?$AAc?$AAt?$AAo?$AAr?$AA?5?$AAi?$AAn?$AAs?$AAe?$AAr?$AAt?$AA?5?$AAi?$AAt?$AAe?$AAr?$AAa?$AAt?$AAo?$AAr?$AA?5?$AAo?$AAu?$AAt?$AAs?$AAi?$AAd?$AAe?$AA?5?$AAr@ ; `string'
PUBLIC	??_C@_1EM@FKAOCOMF@?$AAv?$AAe?$AAc?$AAt?$AAo?$AAr?$AA?5?$AAi?$AAt?$AAe?$AAr?$AAa?$AAt?$AAo?$AAr?$AA?5?$AA?$CL?$AA?5?$AAo?$AAf?$AAf?$AAs?$AAe?$AAt?$AA?5?$AAo?$AAu?$AAt?$AA?5?$AAo?$AAf?$AA?5@ ; `string'
PUBLIC	??_C@_1BNG@JIGEKGDI@?$AAs?$AAt?$AAd?$AA?3?$AA?3?$AA_?$AAV?$AAe?$AAc?$AAt?$AAo?$AAr?$AA_?$AAc?$AAo?$AAn?$AAs?$AAt?$AA_?$AAi?$AAt?$AAe?$AAr?$AAa?$AAt?$AAo?$AAr?$AA?$DM?$AAc?$AAl?$AAa?$AAs@ ; `string'
PUBLIC	??_C@_1BNO@ICKBMIEL@?$AAs?$AAt?$AAd?$AA?3?$AA?3?$AA_?$AAV?$AAe?$AAc?$AAt?$AAo?$AAr?$AA_?$AAc?$AAo?$AAn?$AAs?$AAt?$AA_?$AAi?$AAt?$AAe?$AAr?$AAa?$AAt?$AAo?$AAr?$AA?$DM?$AAc?$AAl?$AAa?$AAs@ ; `string'
PUBLIC	??_C@_1CK@EOPGIILJ@?$AAi?$AAn?$AAv?$AAa?$AAl?$AAi?$AAd?$AA?5?$AAn?$AAu?$AAl?$AAl?$AA?5?$AAp?$AAo?$AAi?$AAn?$AAt?$AAe?$AAr?$AA?$AA@ ; `string'
PUBLIC	__TI2?AVbad_cast@std@@
PUBLIC	__CTA2?AVbad_cast@std@@
PUBLIC	??_R0?AVbad_cast@std@@@8			; std::bad_cast `RTTI Type Descriptor'
PUBLIC	__CT??_R0?AVbad_cast@std@@@8??0bad_cast@std@@QAE@ABV01@@Z12
PUBLIC	??_C@_08EPJLHIJG@bad?5cast?$AA@			; `string'
PUBLIC	?_Psave@?$_Facetptr@V?$codecvt@DDH@std@@@std@@2PBVfacet@locale@2@B ; std::_Facetptr<std::codecvt<char,char,int> >::_Psave
PUBLIC	??_C@_1CO@DGLIKNHI@?$AAi?$AAn?$AAv?$AAa?$AAl?$AAi?$AAd?$AA?5?$AAi?$AAt?$AAe?$AAr?$AAa?$AAt?$AAo?$AAr?$AA?5?$AAr?$AAa?$AAn?$AAg?$AAe?$AA?$AA@ ; `string'
PUBLIC	??_C@_1IO@LKIDJAMC@?$AAC?$AA?3?$AA?2?$AAP?$AAr?$AAo?$AAg?$AAr?$AAa?$AAm?$AA?5?$AAF?$AAi?$AAl?$AAe?$AAs?$AA?5?$AA?$CI?$AAx?$AA8?$AA6?$AA?$CJ?$AA?2?$AAM?$AAi?$AAc?$AAr?$AAo?$AAs?$AAo?$AAf?$AAt@ ; `string'
PUBLIC	??_R4?$basic_stringbuf@DU?$char_traits@D@std@@V?$allocator@D@2@@std@@6B@ ; std::basic_stringbuf<char,std::char_traits<char>,std::allocator<char> >::`RTTI Complete Object Locator'
PUBLIC	??_R0?AV?$basic_stringbuf@DU?$char_traits@D@std@@V?$allocator@D@2@@std@@@8 ; std::basic_stringbuf<char,std::char_traits<char>,std::allocator<char> > `RTTI Type Descriptor'
PUBLIC	??_R3?$basic_stringbuf@DU?$char_traits@D@std@@V?$allocator@D@2@@std@@8 ; std::basic_stringbuf<char,std::char_traits<char>,std::allocator<char> >::`RTTI Class Hierarchy Descriptor'
PUBLIC	??_R2?$basic_stringbuf@DU?$char_traits@D@std@@V?$allocator@D@2@@std@@8 ; std::basic_stringbuf<char,std::char_traits<char>,std::allocator<char> >::`RTTI Base Class Array'
PUBLIC	??_R1A@?0A@EA@?$basic_stringbuf@DU?$char_traits@D@std@@V?$allocator@D@2@@std@@8 ; std::basic_stringbuf<char,std::char_traits<char>,std::allocator<char> >::`RTTI Base Class Descriptor at (0,-1,0,64)'
PUBLIC	??_R1A@?0A@EA@?$basic_streambuf@DU?$char_traits@D@std@@@std@@8 ; std::basic_streambuf<char,std::char_traits<char> >::`RTTI Base Class Descriptor at (0,-1,0,64)'
PUBLIC	??_R0?AV?$basic_streambuf@DU?$char_traits@D@std@@@std@@@8 ; std::basic_streambuf<char,std::char_traits<char> > `RTTI Type Descriptor'
PUBLIC	??_R3?$basic_streambuf@DU?$char_traits@D@std@@@std@@8 ; std::basic_streambuf<char,std::char_traits<char> >::`RTTI Class Hierarchy Descriptor'
PUBLIC	??_R2?$basic_streambuf@DU?$char_traits@D@std@@@std@@8 ; std::basic_streambuf<char,std::char_traits<char> >::`RTTI Base Class Array'
PUBLIC	??_R4?$basic_stringstream@DU?$char_traits@D@std@@V?$allocator@D@2@@std@@6B@ ; std::basic_stringstream<char,std::char_traits<char>,std::allocator<char> >::`RTTI Complete Object Locator'
PUBLIC	??_R0?AV?$basic_stringstream@DU?$char_traits@D@std@@V?$allocator@D@2@@std@@@8 ; std::basic_stringstream<char,std::char_traits<char>,std::allocator<char> > `RTTI Type Descriptor'
PUBLIC	??_R3?$basic_stringstream@DU?$char_traits@D@std@@V?$allocator@D@2@@std@@8 ; std::basic_stringstream<char,std::char_traits<char>,std::allocator<char> >::`RTTI Class Hierarchy Descriptor'
PUBLIC	??_R2?$basic_stringstream@DU?$char_traits@D@std@@V?$allocator@D@2@@std@@8 ; std::basic_stringstream<char,std::char_traits<char>,std::allocator<char> >::`RTTI Base Class Array'
PUBLIC	??_R1A@?0A@EA@?$basic_stringstream@DU?$char_traits@D@std@@V?$allocator@D@2@@std@@8 ; std::basic_stringstream<char,std::char_traits<char>,std::allocator<char> >::`RTTI Base Class Descriptor at (0,-1,0,64)'
PUBLIC	??_R1A@?0A@EA@?$basic_iostream@DU?$char_traits@D@std@@@std@@8 ; std::basic_iostream<char,std::char_traits<char> >::`RTTI Base Class Descriptor at (0,-1,0,64)'
PUBLIC	??_R0?AV?$basic_iostream@DU?$char_traits@D@std@@@std@@@8 ; std::basic_iostream<char,std::char_traits<char> > `RTTI Type Descriptor'
PUBLIC	??_R3?$basic_iostream@DU?$char_traits@D@std@@@std@@8 ; std::basic_iostream<char,std::char_traits<char> >::`RTTI Class Hierarchy Descriptor'
PUBLIC	??_R2?$basic_iostream@DU?$char_traits@D@std@@@std@@8 ; std::basic_iostream<char,std::char_traits<char> >::`RTTI Base Class Array'
PUBLIC	??_R1A@?0A@EA@?$basic_istream@DU?$char_traits@D@std@@@std@@8 ; std::basic_istream<char,std::char_traits<char> >::`RTTI Base Class Descriptor at (0,-1,0,64)'
PUBLIC	??_R0?AV?$basic_istream@DU?$char_traits@D@std@@@std@@@8 ; std::basic_istream<char,std::char_traits<char> > `RTTI Type Descriptor'
PUBLIC	??_R3?$basic_istream@DU?$char_traits@D@std@@@std@@8 ; std::basic_istream<char,std::char_traits<char> >::`RTTI Class Hierarchy Descriptor'
PUBLIC	??_R2?$basic_istream@DU?$char_traits@D@std@@@std@@8 ; std::basic_istream<char,std::char_traits<char> >::`RTTI Base Class Array'
PUBLIC	??_R1A@A@3FA@?$basic_ios@DU?$char_traits@D@std@@@std@@8 ; std::basic_ios<char,std::char_traits<char> >::`RTTI Base Class Descriptor at (0,0,4,80)'
PUBLIC	??_R0?AV?$basic_ios@DU?$char_traits@D@std@@@std@@@8 ; std::basic_ios<char,std::char_traits<char> > `RTTI Type Descriptor'
PUBLIC	??_R3?$basic_ios@DU?$char_traits@D@std@@@std@@8	; std::basic_ios<char,std::char_traits<char> >::`RTTI Class Hierarchy Descriptor'
PUBLIC	??_R2?$basic_ios@DU?$char_traits@D@std@@@std@@8	; std::basic_ios<char,std::char_traits<char> >::`RTTI Base Class Array'
PUBLIC	??_R1A@?0A@EA@?$basic_ios@DU?$char_traits@D@std@@@std@@8 ; std::basic_ios<char,std::char_traits<char> >::`RTTI Base Class Descriptor at (0,-1,0,64)'
PUBLIC	??_R1A@?0A@EA@ios_base@std@@8			; std::ios_base::`RTTI Base Class Descriptor at (0,-1,0,64)'
PUBLIC	??_R0?AVios_base@std@@@8			; std::ios_base `RTTI Type Descriptor'
PUBLIC	??_R3ios_base@std@@8				; std::ios_base::`RTTI Class Hierarchy Descriptor'
PUBLIC	??_R2ios_base@std@@8				; std::ios_base::`RTTI Base Class Array'
PUBLIC	??_R17?0A@EA@?$_Iosb@H@std@@8			; std::_Iosb<int>::`RTTI Base Class Descriptor at (8,-1,0,64)'
PUBLIC	??_R0?AV?$_Iosb@H@std@@@8			; std::_Iosb<int> `RTTI Type Descriptor'
PUBLIC	??_R3?$_Iosb@H@std@@8				; std::_Iosb<int>::`RTTI Class Hierarchy Descriptor'
PUBLIC	??_R2?$_Iosb@H@std@@8				; std::_Iosb<int>::`RTTI Base Class Array'
PUBLIC	??_R1A@?0A@EA@?$_Iosb@H@std@@8			; std::_Iosb<int>::`RTTI Base Class Descriptor at (0,-1,0,64)'
PUBLIC	??_R1A@A@3EA@ios_base@std@@8			; std::ios_base::`RTTI Base Class Descriptor at (0,0,4,64)'
PUBLIC	??_R17A@3EA@?$_Iosb@H@std@@8			; std::_Iosb<int>::`RTTI Base Class Descriptor at (8,0,4,64)'
PUBLIC	??_R1BA@?0A@EA@?$basic_ostream@DU?$char_traits@D@std@@@std@@8 ; std::basic_ostream<char,std::char_traits<char> >::`RTTI Base Class Descriptor at (16,-1,0,64)'
PUBLIC	??_R0?AV?$basic_ostream@DU?$char_traits@D@std@@@std@@@8 ; std::basic_ostream<char,std::char_traits<char> > `RTTI Type Descriptor'
PUBLIC	??_R3?$basic_ostream@DU?$char_traits@D@std@@@std@@8 ; std::basic_ostream<char,std::char_traits<char> >::`RTTI Class Hierarchy Descriptor'
PUBLIC	??_R2?$basic_ostream@DU?$char_traits@D@std@@@std@@8 ; std::basic_ostream<char,std::char_traits<char> >::`RTTI Base Class Array'
PUBLIC	??_R1A@?0A@EA@?$basic_ostream@DU?$char_traits@D@std@@@std@@8 ; std::basic_ostream<char,std::char_traits<char> >::`RTTI Base Class Descriptor at (0,-1,0,64)'
PUBLIC	??_R4?$basic_filebuf@DU?$char_traits@D@std@@@std@@6B@ ; std::basic_filebuf<char,std::char_traits<char> >::`RTTI Complete Object Locator'
PUBLIC	??_R0?AV?$basic_filebuf@DU?$char_traits@D@std@@@std@@@8 ; std::basic_filebuf<char,std::char_traits<char> > `RTTI Type Descriptor'
PUBLIC	??_R3?$basic_filebuf@DU?$char_traits@D@std@@@std@@8 ; std::basic_filebuf<char,std::char_traits<char> >::`RTTI Class Hierarchy Descriptor'
PUBLIC	??_R2?$basic_filebuf@DU?$char_traits@D@std@@@std@@8 ; std::basic_filebuf<char,std::char_traits<char> >::`RTTI Base Class Array'
PUBLIC	??_R1A@?0A@EA@?$basic_filebuf@DU?$char_traits@D@std@@@std@@8 ; std::basic_filebuf<char,std::char_traits<char> >::`RTTI Base Class Descriptor at (0,-1,0,64)'
PUBLIC	??_R4?$basic_ofstream@DU?$char_traits@D@std@@@std@@6B@ ; std::basic_ofstream<char,std::char_traits<char> >::`RTTI Complete Object Locator'
PUBLIC	??_R0?AV?$basic_ofstream@DU?$char_traits@D@std@@@std@@@8 ; std::basic_ofstream<char,std::char_traits<char> > `RTTI Type Descriptor'
PUBLIC	??_R3?$basic_ofstream@DU?$char_traits@D@std@@@std@@8 ; std::basic_ofstream<char,std::char_traits<char> >::`RTTI Class Hierarchy Descriptor'
PUBLIC	??_R2?$basic_ofstream@DU?$char_traits@D@std@@@std@@8 ; std::basic_ofstream<char,std::char_traits<char> >::`RTTI Base Class Array'
PUBLIC	??_R1A@?0A@EA@?$basic_ofstream@DU?$char_traits@D@std@@@std@@8 ; std::basic_ofstream<char,std::char_traits<char> >::`RTTI Base Class Descriptor at (0,-1,0,64)'
PUBLIC	??_R4error_category@std@@6B@			; std::error_category::`RTTI Complete Object Locator'
PUBLIC	??_R0?AVerror_category@std@@@8			; std::error_category `RTTI Type Descriptor'
PUBLIC	??_R3error_category@std@@8			; std::error_category::`RTTI Class Hierarchy Descriptor'
PUBLIC	??_R2error_category@std@@8			; std::error_category::`RTTI Base Class Array'
PUBLIC	??_R1A@?0A@EA@error_category@std@@8		; std::error_category::`RTTI Base Class Descriptor at (0,-1,0,64)'
PUBLIC	??_R4_Generic_error_category@std@@6B@		; std::_Generic_error_category::`RTTI Complete Object Locator'
PUBLIC	??_R0?AV_Generic_error_category@std@@@8		; std::_Generic_error_category `RTTI Type Descriptor'
PUBLIC	??_R3_Generic_error_category@std@@8		; std::_Generic_error_category::`RTTI Class Hierarchy Descriptor'
PUBLIC	??_R2_Generic_error_category@std@@8		; std::_Generic_error_category::`RTTI Base Class Array'
PUBLIC	??_R1A@?0A@EA@_Generic_error_category@std@@8	; std::_Generic_error_category::`RTTI Base Class Descriptor at (0,-1,0,64)'
PUBLIC	??_R4_Iostream_error_category@std@@6B@		; std::_Iostream_error_category::`RTTI Complete Object Locator'
PUBLIC	??_R0?AV_Iostream_error_category@std@@@8	; std::_Iostream_error_category `RTTI Type Descriptor'
PUBLIC	??_R3_Iostream_error_category@std@@8		; std::_Iostream_error_category::`RTTI Class Hierarchy Descriptor'
PUBLIC	??_R2_Iostream_error_category@std@@8		; std::_Iostream_error_category::`RTTI Base Class Array'
PUBLIC	??_R1A@?0A@EA@_Iostream_error_category@std@@8	; std::_Iostream_error_category::`RTTI Base Class Descriptor at (0,-1,0,64)'
PUBLIC	??_R4_System_error_category@std@@6B@		; std::_System_error_category::`RTTI Complete Object Locator'
PUBLIC	??_R0?AV_System_error_category@std@@@8		; std::_System_error_category `RTTI Type Descriptor'
PUBLIC	??_R3_System_error_category@std@@8		; std::_System_error_category::`RTTI Class Hierarchy Descriptor'
PUBLIC	??_R2_System_error_category@std@@8		; std::_System_error_category::`RTTI Base Class Array'
PUBLIC	??_R1A@?0A@EA@_System_error_category@std@@8	; std::_System_error_category::`RTTI Base Class Descriptor at (0,-1,0,64)'
PUBLIC	??_R4DrawEventRecorder@gfx@mozilla@@6B@		; mozilla::gfx::DrawEventRecorder::`RTTI Complete Object Locator'
PUBLIC	??_R0?AVDrawEventRecorder@gfx@mozilla@@@8	; mozilla::gfx::DrawEventRecorder `RTTI Type Descriptor'
PUBLIC	??_R3DrawEventRecorder@gfx@mozilla@@8		; mozilla::gfx::DrawEventRecorder::`RTTI Class Hierarchy Descriptor'
PUBLIC	??_R2DrawEventRecorder@gfx@mozilla@@8		; mozilla::gfx::DrawEventRecorder::`RTTI Base Class Array'
PUBLIC	??_R1A@?0A@EA@DrawEventRecorder@gfx@mozilla@@8	; mozilla::gfx::DrawEventRecorder::`RTTI Base Class Descriptor at (0,-1,0,64)'
PUBLIC	??_R13?0A@EA@?$RefCounted@VDrawEventRecorder@gfx@mozilla@@@mozilla@@8 ; mozilla::RefCounted<mozilla::gfx::DrawEventRecorder>::`RTTI Base Class Descriptor at (4,-1,0,64)'
PUBLIC	??_R0?AV?$RefCounted@VDrawEventRecorder@gfx@mozilla@@@mozilla@@@8 ; mozilla::RefCounted<mozilla::gfx::DrawEventRecorder> `RTTI Type Descriptor'
PUBLIC	??_R3?$RefCounted@VDrawEventRecorder@gfx@mozilla@@@mozilla@@8 ; mozilla::RefCounted<mozilla::gfx::DrawEventRecorder>::`RTTI Class Hierarchy Descriptor'
PUBLIC	??_R2?$RefCounted@VDrawEventRecorder@gfx@mozilla@@@mozilla@@8 ; mozilla::RefCounted<mozilla::gfx::DrawEventRecorder>::`RTTI Base Class Array'
PUBLIC	??_R1A@?0A@EA@?$RefCounted@VDrawEventRecorder@gfx@mozilla@@@mozilla@@8 ; mozilla::RefCounted<mozilla::gfx::DrawEventRecorder>::`RTTI Base Class Descriptor at (0,-1,0,64)'
PUBLIC	??_R1A@?0A@EA@?$RefCounted@VDrawEventRecorder@gfx@mozilla@@$00@detail@mozilla@@8 ; mozilla::detail::RefCounted<mozilla::gfx::DrawEventRecorder,1>::`RTTI Base Class Descriptor at (0,-1,0,64)'
PUBLIC	??_R0?AV?$RefCounted@VDrawEventRecorder@gfx@mozilla@@$00@detail@mozilla@@@8 ; mozilla::detail::RefCounted<mozilla::gfx::DrawEventRecorder,1> `RTTI Type Descriptor'
PUBLIC	??_R3?$RefCounted@VDrawEventRecorder@gfx@mozilla@@$00@detail@mozilla@@8 ; mozilla::detail::RefCounted<mozilla::gfx::DrawEventRecorder,1>::`RTTI Class Hierarchy Descriptor'
PUBLIC	??_R2?$RefCounted@VDrawEventRecorder@gfx@mozilla@@$00@detail@mozilla@@8 ; mozilla::detail::RefCounted<mozilla::gfx::DrawEventRecorder,1>::`RTTI Base Class Array'
PUBLIC	??_R13?0A@EA@?$RefCounted@VDrawEventRecorder@gfx@mozilla@@$00@detail@mozilla@@8 ; mozilla::detail::RefCounted<mozilla::gfx::DrawEventRecorder,1>::`RTTI Base Class Descriptor at (4,-1,0,64)'
PUBLIC	??_R4DrawEventRecorderPrivate@gfx@mozilla@@6B@	; mozilla::gfx::DrawEventRecorderPrivate::`RTTI Complete Object Locator'
PUBLIC	??_R0?AVDrawEventRecorderPrivate@gfx@mozilla@@@8 ; mozilla::gfx::DrawEventRecorderPrivate `RTTI Type Descriptor'
PUBLIC	??_R3DrawEventRecorderPrivate@gfx@mozilla@@8	; mozilla::gfx::DrawEventRecorderPrivate::`RTTI Class Hierarchy Descriptor'
PUBLIC	??_R2DrawEventRecorderPrivate@gfx@mozilla@@8	; mozilla::gfx::DrawEventRecorderPrivate::`RTTI Base Class Array'
PUBLIC	??_R1A@?0A@EA@DrawEventRecorderPrivate@gfx@mozilla@@8 ; mozilla::gfx::DrawEventRecorderPrivate::`RTTI Base Class Descriptor at (0,-1,0,64)'
PUBLIC	??_R4DrawEventRecorderFile@gfx@mozilla@@6B@	; mozilla::gfx::DrawEventRecorderFile::`RTTI Complete Object Locator'
PUBLIC	??_R0?AVDrawEventRecorderFile@gfx@mozilla@@@8	; mozilla::gfx::DrawEventRecorderFile `RTTI Type Descriptor'
PUBLIC	??_R3DrawEventRecorderFile@gfx@mozilla@@8	; mozilla::gfx::DrawEventRecorderFile::`RTTI Class Hierarchy Descriptor'
PUBLIC	??_R2DrawEventRecorderFile@gfx@mozilla@@8	; mozilla::gfx::DrawEventRecorderFile::`RTTI Base Class Array'
PUBLIC	??_R1A@?0A@EA@DrawEventRecorderFile@gfx@mozilla@@8 ; mozilla::gfx::DrawEventRecorderFile::`RTTI Base Class Descriptor at (0,-1,0,64)'
PUBLIC	??_R4DrawEventRecorderMemory@gfx@mozilla@@6B@	; mozilla::gfx::DrawEventRecorderMemory::`RTTI Complete Object Locator'
PUBLIC	??_R0?AVDrawEventRecorderMemory@gfx@mozilla@@@8	; mozilla::gfx::DrawEventRecorderMemory `RTTI Type Descriptor'
PUBLIC	??_R3DrawEventRecorderMemory@gfx@mozilla@@8	; mozilla::gfx::DrawEventRecorderMemory::`RTTI Class Hierarchy Descriptor'
PUBLIC	??_R2DrawEventRecorderMemory@gfx@mozilla@@8	; mozilla::gfx::DrawEventRecorderMemory::`RTTI Base Class Array'
PUBLIC	??_R1A@?0A@EA@DrawEventRecorderMemory@gfx@mozilla@@8 ; mozilla::gfx::DrawEventRecorderMemory::`RTTI Base Class Descriptor at (0,-1,0,64)'
PUBLIC	__real@3f800000
EXTRN	__purecall:PROC
EXTRN	??2@YAPAXI@Z:PROC				; operator new
EXTRN	??3@YAXPAX@Z:PROC				; operator delete
EXTRN	_atexit:PROC
EXTRN	__imp___invalid_parameter:PROC
EXTRN	__imp_??0_Lockit@std@@QAE@H@Z:PROC
EXTRN	__imp_??1_Lockit@std@@QAE@XZ:PROC
EXTRN	__imp__fclose:PROC
EXTRN	__imp__fflush:PROC
EXTRN	__imp__fgetc:PROC
EXTRN	__imp__fgetpos:PROC
EXTRN	__imp__fputc:PROC
EXTRN	__imp__fsetpos:PROC
EXTRN	__imp___fseeki64:PROC
EXTRN	__imp__fwrite:PROC
EXTRN	__imp__setvbuf:PROC
EXTRN	__imp__ungetc:PROC
EXTRN	__imp___lock_file:PROC
EXTRN	__imp___unlock_file:PROC
EXTRN	__imp__free:PROC
EXTRN	__imp__memmove:PROC
EXTRN	_memcpy:PROC
EXTRN	__imp__memcpy_s:PROC
EXTRN	_memset:PROC
EXTRN	_strlen:PROC
EXTRN	__imp___hypot:PROC
EXTRN	__imp___CrtDbgReportW:PROC
EXTRN	__imp_?_Debug_message@std@@YAXPB_W0I@Z:PROC
EXTRN	__imp_??0_Container_base12@std@@QAE@XZ:PROC
EXTRN	__imp_??1_Container_base12@std@@QAE@XZ:PROC
EXTRN	__imp_?_Getpfirst@_Container_base12@std@@QBEPAPAU_Iterator_base12@2@XZ:PROC
EXTRN	__imp_?_Orphan_all@_Container_base12@std@@QAEXXZ:PROC
EXTRN	__imp_?_Xbad_alloc@std@@YAXXZ:PROC
EXTRN	__imp_?_Xlength_error@std@@YAXPBD@Z:PROC
EXTRN	__imp_?_Xout_of_range@std@@YAXPBD@Z:PROC
EXTRN	__imp_??0bad_cast@std@@QAE@PBD@Z:PROC
EXTRN	?_Facet_Register@std@@YAXPAV_Facet_base@1@@Z:PROC ; std::_Facet_Register
EXTRN	__imp_??0id@locale@std@@QAE@I@Z:PROC
EXTRN	__imp_??Bid@locale@std@@QAEIXZ:PROC
EXTRN	__imp_?_Getgloballocale@locale@std@@CAPAV_Locimp@12@XZ:PROC
EXTRN	__imp_?always_noconv@codecvt_base@std@@QBE_NXZ:PROC
EXTRN	__imp_?in@?$codecvt@DDH@std@@QBEHAAHPBD1AAPBDPAD3AAPAD@Z:PROC
EXTRN	__imp_?out@?$codecvt@DDH@std@@QBEHAAHPBD1AAPBDPAD3AAPAD@Z:PROC
EXTRN	__imp_?unshift@?$codecvt@DDH@std@@QBEHAAHPAD1AAPAD@Z:PROC
EXTRN	__imp_?_Getcat@?$codecvt@DDH@std@@SAIPAPBVfacet@locale@2@PBV42@@Z:PROC
EXTRN	??_Eerror_category@std@@UAEPAXI@Z:PROC		; std::error_category::`vector deleting destructor'
EXTRN	__imp_?_Syserror_map@std@@YAPBDH@Z:PROC
EXTRN	__imp_?_Winerror_map@std@@YAPBDH@Z:PROC
EXTRN	??_E_Generic_error_category@std@@UAEPAXI@Z:PROC	; std::_Generic_error_category::`vector deleting destructor'
EXTRN	??_E_Iostream_error_category@std@@UAEPAXI@Z:PROC ; std::_Iostream_error_category::`vector deleting destructor'
EXTRN	??_E_System_error_category@std@@UAEPAXI@Z:PROC	; std::_System_error_category::`vector deleting destructor'
EXTRN	__imp_??7ios_base@std@@QBE_NXZ:PROC
EXTRN	__imp_??0?$basic_streambuf@DU?$char_traits@D@std@@@std@@IAE@XZ:PROC
EXTRN	__imp_??1?$basic_streambuf@DU?$char_traits@D@std@@@std@@UAE@XZ:PROC
EXTRN	__imp_?getloc@?$basic_streambuf@DU?$char_traits@D@std@@@std@@QBE?AVlocale@2@XZ:PROC
EXTRN	__imp_?eback@?$basic_streambuf@DU?$char_traits@D@std@@@std@@IBEPADXZ:PROC
EXTRN	__imp_?gptr@?$basic_streambuf@DU?$char_traits@D@std@@@std@@IBEPADXZ:PROC
EXTRN	__imp_?pbase@?$basic_streambuf@DU?$char_traits@D@std@@@std@@IBEPADXZ:PROC
EXTRN	__imp_?pptr@?$basic_streambuf@DU?$char_traits@D@std@@@std@@IBEPADXZ:PROC
EXTRN	__imp_?egptr@?$basic_streambuf@DU?$char_traits@D@std@@@std@@IBEPADXZ:PROC
EXTRN	__imp_?gbump@?$basic_streambuf@DU?$char_traits@D@std@@@std@@IAEXH@Z:PROC
EXTRN	__imp_?setg@?$basic_streambuf@DU?$char_traits@D@std@@@std@@IAEXPAD00@Z:PROC
EXTRN	__imp_?epptr@?$basic_streambuf@DU?$char_traits@D@std@@@std@@IBEPADXZ:PROC
EXTRN	__imp_?_Gndec@?$basic_streambuf@DU?$char_traits@D@std@@@std@@IAEPADXZ:PROC
EXTRN	__imp_?_Gninc@?$basic_streambuf@DU?$char_traits@D@std@@@std@@IAEPADXZ:PROC
EXTRN	__imp_?pbump@?$basic_streambuf@DU?$char_traits@D@std@@@std@@IAEXH@Z:PROC
EXTRN	__imp_?setp@?$basic_streambuf@DU?$char_traits@D@std@@@std@@IAEXPAD0@Z:PROC
EXTRN	__imp_?setp@?$basic_streambuf@DU?$char_traits@D@std@@@std@@IAEXPAD00@Z:PROC
EXTRN	__imp_?_Pninc@?$basic_streambuf@DU?$char_traits@D@std@@@std@@IAEPADXZ:PROC
EXTRN	__imp_?_Init@?$basic_streambuf@DU?$char_traits@D@std@@@std@@IAEXXZ:PROC
EXTRN	__imp_?_Init@?$basic_streambuf@DU?$char_traits@D@std@@@std@@IAEXPAPAD0PAH001@Z:PROC
EXTRN	__imp_??1?$basic_ios@DU?$char_traits@D@std@@@std@@UAE@XZ:PROC
EXTRN	__imp_?clear@?$basic_ios@DU?$char_traits@D@std@@@std@@QAEXH_N@Z:PROC
EXTRN	__imp_?setstate@?$basic_ios@DU?$char_traits@D@std@@@std@@QAEXH_N@Z:PROC
EXTRN	__imp_??0?$basic_ios@DU?$char_traits@D@std@@@std@@IAE@XZ:PROC
EXTRN	__imp_??0?$basic_ostream@DU?$char_traits@D@std@@@std@@QAE@PAV?$basic_streambuf@DU?$char_traits@D@std@@@1@_N@Z:PROC
EXTRN	__imp_??1?$basic_ostream@DU?$char_traits@D@std@@@std@@UAE@XZ:PROC
EXTRN	__imp_?write@?$basic_ostream@DU?$char_traits@D@std@@@std@@QAEAAV12@PBD_J@Z:PROC
EXTRN	__imp_?flush@?$basic_ostream@DU?$char_traits@D@std@@@std@@QAEAAV12@XZ:PROC
EXTRN	__imp_?tellp@?$basic_ostream@DU?$char_traits@D@std@@@std@@QAE?AV?$fpos@H@2@XZ:PROC
EXTRN	??_EDrawEventRecorder@gfx@mozilla@@UAEPAXI@Z:PROC ; mozilla::gfx::DrawEventRecorder::`vector deleting destructor'
EXTRN	__imp_?read@?$basic_istream@DU?$char_traits@D@std@@@std@@QAEAAV12@PAD_J@Z:PROC
EXTRN	__imp_??0?$basic_iostream@DU?$char_traits@D@std@@@std@@QAE@PAV?$basic_streambuf@DU?$char_traits@D@std@@@1@@Z:PROC
EXTRN	__imp_??1?$basic_iostream@DU?$char_traits@D@std@@@std@@UAE@XZ:PROC
EXTRN	??_E?$basic_stringbuf@DU?$char_traits@D@std@@V?$allocator@D@2@@std@@UAEPAXI@Z:PROC ; std::basic_stringbuf<char,std::char_traits<char>,std::allocator<char> >::`vector deleting destructor'
EXTRN	??_E?$basic_stringstream@DU?$char_traits@D@std@@V?$allocator@D@2@@std@@UAEPAXI@Z:PROC ; std::basic_stringstream<char,std::char_traits<char>,std::allocator<char> >::`vector deleting destructor'
EXTRN	__imp_?_Fiopen@std@@YAPAU_iobuf@@PBDHH@Z:PROC
EXTRN	??_EDrawEventRecorderPrivate@gfx@mozilla@@UAEPAXI@Z:PROC ; mozilla::gfx::DrawEventRecorderPrivate::`vector deleting destructor'
EXTRN	??_E?$basic_filebuf@DU?$char_traits@D@std@@@std@@UAEPAXI@Z:PROC ; std::basic_filebuf<char,std::char_traits<char> >::`vector deleting destructor'
EXTRN	??_E?$basic_ofstream@DU?$char_traits@D@std@@@std@@UAEPAXI@Z:PROC ; std::basic_ofstream<char,std::char_traits<char> >::`vector deleting destructor'
EXTRN	??_EDrawEventRecorderFile@gfx@mozilla@@UAEPAXI@Z:PROC ; mozilla::gfx::DrawEventRecorderFile::`vector deleting destructor'
EXTRN	??_EDrawEventRecorderMemory@gfx@mozilla@@EAEPAXI@Z:PROC ; mozilla::gfx::DrawEventRecorderMemory::`vector deleting destructor'
EXTRN	??0bad_cast@std@@QAE@ABV01@@Z:PROC		; std::bad_cast::bad_cast
EXTRN	??0exception@std@@QAE@ABV01@@Z:PROC		; std::exception::exception
EXTRN	??1bad_cast@std@@UAE@XZ:PROC			; std::bad_cast::~bad_cast
EXTRN	?_Lock@?$basic_streambuf@DU?$char_traits@D@std@@@std@@UAEXXZ:PROC ; std::basic_streambuf<char,std::char_traits<char> >::_Lock
EXTRN	?_Unlock@?$basic_streambuf@DU?$char_traits@D@std@@@std@@UAEXXZ:PROC ; std::basic_streambuf<char,std::char_traits<char> >::_Unlock
EXTRN	?imbue@?$basic_streambuf@DU?$char_traits@D@std@@@std@@MAEXABVlocale@2@@Z:PROC ; std::basic_streambuf<char,std::char_traits<char> >::imbue
EXTRN	?setbuf@?$basic_streambuf@DU?$char_traits@D@std@@@std@@MAEPAV12@PAD_J@Z:PROC ; std::basic_streambuf<char,std::char_traits<char> >::setbuf
EXTRN	?showmanyc@?$basic_streambuf@DU?$char_traits@D@std@@@std@@MAE_JXZ:PROC ; std::basic_streambuf<char,std::char_traits<char> >::showmanyc
EXTRN	?sync@?$basic_streambuf@DU?$char_traits@D@std@@@std@@MAEHXZ:PROC ; std::basic_streambuf<char,std::char_traits<char> >::sync
EXTRN	?uflow@?$basic_streambuf@DU?$char_traits@D@std@@@std@@MAEHXZ:PROC ; std::basic_streambuf<char,std::char_traits<char> >::uflow
EXTRN	?xsgetn@?$basic_streambuf@DU?$char_traits@D@std@@@std@@MAE_JPAD_J@Z:PROC ; std::basic_streambuf<char,std::char_traits<char> >::xsgetn
EXTRN	?xsputn@?$basic_streambuf@DU?$char_traits@D@std@@@std@@MAE_JPBD_J@Z:PROC ; std::basic_streambuf<char,std::char_traits<char> >::xsputn
EXTRN	@_RTC_CheckStackVars@8:PROC
EXTRN	@__security_check_cookie@4:PROC
EXTRN	__CxxThrowException@8:PROC
EXTRN	__RTC_CheckEsp:PROC
EXTRN	__RTC_InitBase:PROC
EXTRN	__RTC_Shutdown:PROC
EXTRN	___CxxFrameHandler3:PROC
EXTRN	__imp_?_BADOFF@std@@3_JB:QWORD
EXTRN	??_7type_info@@6B@:QWORD			; type_info::`vftable'
EXTRN	__imp_?id@?$codecvt@DDH@std@@2V0locale@2@A:DWORD
EXTRN	___security_cookie:DWORD
EXTRN	__fltused:DWORD
_BSS	SEGMENT
_piecewise_construct DB 01H DUP (?)
_allocator_arg DB 01H DUP (?)
_BSS	ENDS
;	COMDAT ?_Generic_object@?$_Error_objects@H@std@@2V_Generic_error_category@2@A
_BSS	SEGMENT
?_Generic_object@?$_Error_objects@H@std@@2V_Generic_error_category@2@A DD 01H DUP (?) ; std::_Error_objects<int>::_Generic_object
_BSS	ENDS
;	COMDAT ?_Iostream_object@?$_Error_objects@H@std@@2V_Iostream_error_category@2@A
_BSS	SEGMENT
?_Iostream_object@?$_Error_objects@H@std@@2V_Iostream_error_category@2@A DD 01H DUP (?) ; std::_Error_objects<int>::_Iostream_object
_BSS	ENDS
;	COMDAT ?_System_object@?$_Error_objects@H@std@@2V_System_error_category@2@A
_BSS	SEGMENT
?_System_object@?$_Error_objects@H@std@@2V_System_error_category@2@A DD 01H DUP (?) ; std::_Error_objects<int>::_System_object
_BSS	ENDS
;	COMDAT ?id@?$num_put@DV?$back_insert_iterator@V?$basic_string@DU?$char_traits@D@std@@V?$allocator@D@2@@std@@@std@@@std@@2V0locale@2@A
_BSS	SEGMENT
?id@?$num_put@DV?$back_insert_iterator@V?$basic_string@DU?$char_traits@D@std@@V?$allocator@D@2@@std@@@std@@@std@@2V0locale@2@A DD 01H DUP (?) ; std::num_put<char,std::back_insert_iterator<std::basic_string<char,std::char_traits<char>,std::allocator<char> > > >::id
_BSS	ENDS
;	COMDAT ?id@?$num_put@_WV?$back_insert_iterator@V?$basic_string@_WU?$char_traits@_W@std@@V?$allocator@_W@2@@std@@@std@@@std@@2V0locale@2@A
_BSS	SEGMENT
?id@?$num_put@_WV?$back_insert_iterator@V?$basic_string@_WU?$char_traits@_W@std@@V?$allocator@_W@2@@std@@@std@@@std@@2V0locale@2@A DD 01H DUP (?) ; std::num_put<wchar_t,std::back_insert_iterator<std::basic_string<wchar_t,std::char_traits<wchar_t>,std::allocator<wchar_t> > > >::id
_BSS	ENDS
;	COMDAT ?_Stinit@?1??_Init@?$basic_filebuf@DU?$char_traits@D@std@@@std@@IAEXPAU_iobuf@@W4_Initfl@23@@Z@4HA
_BSS	SEGMENT
?_Stinit@?1??_Init@?$basic_filebuf@DU?$char_traits@D@std@@@std@@IAEXPAU_iobuf@@W4_Initfl@23@@Z@4HA DD 01H DUP (?) ; `std::basic_filebuf<char,std::char_traits<char> >::_Init'::`2'::_Stinit
_BSS	ENDS
;	COMDAT ?_Psave@?$_Facetptr@V?$codecvt@DDH@std@@@std@@2PBVfacet@locale@2@B
_BSS	SEGMENT
?_Psave@?$_Facetptr@V?$codecvt@DDH@std@@@std@@2PBVfacet@locale@2@B DD 01H DUP (?) ; std::_Facetptr<std::codecvt<char,char,int> >::_Psave
_BSS	ENDS
CRT$XCU	SEGMENT
_piecewise_construct$initializer$ DD FLAT:??__Epiecewise_construct@std@@YAXXZ
CRT$XCU	ENDS
;	COMDAT __real@3f800000
CONST	SEGMENT
__real@3f800000 DD 03f800000r			; 1
CONST	ENDS
;	COMDAT rtc$TMZ
rtc$TMZ	SEGMENT
__RTC_Shutdown.rtc$TMZ DD FLAT:__RTC_Shutdown
rtc$TMZ	ENDS
;	COMDAT rtc$IMZ
rtc$IMZ	SEGMENT
__RTC_InitBase.rtc$IMZ DD FLAT:__RTC_InitBase
rtc$IMZ	ENDS
;	COMDAT ??_R1A@?0A@EA@DrawEventRecorderMemory@gfx@mozilla@@8
rdata$r	SEGMENT
??_R1A@?0A@EA@DrawEventRecorderMemory@gfx@mozilla@@8 DD FLAT:??_R0?AVDrawEventRecorderMemory@gfx@mozilla@@@8 ; mozilla::gfx::DrawEventRecorderMemory::`RTTI Base Class Descriptor at (0,-1,0,64)'
	DD	04H
	DD	00H
	DD	0ffffffffH
	DD	00H
	DD	040H
	DD	FLAT:??_R3DrawEventRecorderMemory@gfx@mozilla@@8
rdata$r	ENDS
;	COMDAT ??_R2DrawEventRecorderMemory@gfx@mozilla@@8
rdata$r	SEGMENT
??_R2DrawEventRecorderMemory@gfx@mozilla@@8 DD FLAT:??_R1A@?0A@EA@DrawEventRecorderMemory@gfx@mozilla@@8 ; mozilla::gfx::DrawEventRecorderMemory::`RTTI Base Class Array'
	DD	FLAT:??_R1A@?0A@EA@DrawEventRecorderPrivate@gfx@mozilla@@8
	DD	FLAT:??_R1A@?0A@EA@DrawEventRecorder@gfx@mozilla@@8
	DD	FLAT:??_R13?0A@EA@?$RefCounted@VDrawEventRecorder@gfx@mozilla@@@mozilla@@8
	DD	FLAT:??_R13?0A@EA@?$RefCounted@VDrawEventRecorder@gfx@mozilla@@$00@detail@mozilla@@8
rdata$r	ENDS
;	COMDAT ??_R3DrawEventRecorderMemory@gfx@mozilla@@8
rdata$r	SEGMENT
??_R3DrawEventRecorderMemory@gfx@mozilla@@8 DD 00H	; mozilla::gfx::DrawEventRecorderMemory::`RTTI Class Hierarchy Descriptor'
	DD	00H
	DD	05H
	DD	FLAT:??_R2DrawEventRecorderMemory@gfx@mozilla@@8
rdata$r	ENDS
;	COMDAT ??_R0?AVDrawEventRecorderMemory@gfx@mozilla@@@8
data$r	SEGMENT
??_R0?AVDrawEventRecorderMemory@gfx@mozilla@@@8 DD FLAT:??_7type_info@@6B@ ; mozilla::gfx::DrawEventRecorderMemory `RTTI Type Descriptor'
	DD	00H
	DB	'.?AVDrawEventRecorderMemory@gfx@mozilla@@', 00H
data$r	ENDS
;	COMDAT ??_R4DrawEventRecorderMemory@gfx@mozilla@@6B@
rdata$r	SEGMENT
??_R4DrawEventRecorderMemory@gfx@mozilla@@6B@ DD 00H	; mozilla::gfx::DrawEventRecorderMemory::`RTTI Complete Object Locator'
	DD	00H
	DD	00H
	DD	FLAT:??_R0?AVDrawEventRecorderMemory@gfx@mozilla@@@8
	DD	FLAT:??_R3DrawEventRecorderMemory@gfx@mozilla@@8
rdata$r	ENDS
;	COMDAT ??_R1A@?0A@EA@DrawEventRecorderFile@gfx@mozilla@@8
rdata$r	SEGMENT
??_R1A@?0A@EA@DrawEventRecorderFile@gfx@mozilla@@8 DD FLAT:??_R0?AVDrawEventRecorderFile@gfx@mozilla@@@8 ; mozilla::gfx::DrawEventRecorderFile::`RTTI Base Class Descriptor at (0,-1,0,64)'
	DD	04H
	DD	00H
	DD	0ffffffffH
	DD	00H
	DD	040H
	DD	FLAT:??_R3DrawEventRecorderFile@gfx@mozilla@@8
rdata$r	ENDS
;	COMDAT ??_R2DrawEventRecorderFile@gfx@mozilla@@8
rdata$r	SEGMENT
??_R2DrawEventRecorderFile@gfx@mozilla@@8 DD FLAT:??_R1A@?0A@EA@DrawEventRecorderFile@gfx@mozilla@@8 ; mozilla::gfx::DrawEventRecorderFile::`RTTI Base Class Array'
	DD	FLAT:??_R1A@?0A@EA@DrawEventRecorderPrivate@gfx@mozilla@@8
	DD	FLAT:??_R1A@?0A@EA@DrawEventRecorder@gfx@mozilla@@8
	DD	FLAT:??_R13?0A@EA@?$RefCounted@VDrawEventRecorder@gfx@mozilla@@@mozilla@@8
	DD	FLAT:??_R13?0A@EA@?$RefCounted@VDrawEventRecorder@gfx@mozilla@@$00@detail@mozilla@@8
rdata$r	ENDS
;	COMDAT ??_R3DrawEventRecorderFile@gfx@mozilla@@8
rdata$r	SEGMENT
??_R3DrawEventRecorderFile@gfx@mozilla@@8 DD 00H	; mozilla::gfx::DrawEventRecorderFile::`RTTI Class Hierarchy Descriptor'
	DD	00H
	DD	05H
	DD	FLAT:??_R2DrawEventRecorderFile@gfx@mozilla@@8
rdata$r	ENDS
;	COMDAT ??_R0?AVDrawEventRecorderFile@gfx@mozilla@@@8
data$r	SEGMENT
??_R0?AVDrawEventRecorderFile@gfx@mozilla@@@8 DD FLAT:??_7type_info@@6B@ ; mozilla::gfx::DrawEventRecorderFile `RTTI Type Descriptor'
	DD	00H
	DB	'.?AVDrawEventRecorderFile@gfx@mozilla@@', 00H
data$r	ENDS
;	COMDAT ??_R4DrawEventRecorderFile@gfx@mozilla@@6B@
rdata$r	SEGMENT
??_R4DrawEventRecorderFile@gfx@mozilla@@6B@ DD 00H	; mozilla::gfx::DrawEventRecorderFile::`RTTI Complete Object Locator'
	DD	00H
	DD	00H
	DD	FLAT:??_R0?AVDrawEventRecorderFile@gfx@mozilla@@@8
	DD	FLAT:??_R3DrawEventRecorderFile@gfx@mozilla@@8
rdata$r	ENDS
;	COMDAT ??_R1A@?0A@EA@DrawEventRecorderPrivate@gfx@mozilla@@8
rdata$r	SEGMENT
??_R1A@?0A@EA@DrawEventRecorderPrivate@gfx@mozilla@@8 DD FLAT:??_R0?AVDrawEventRecorderPrivate@gfx@mozilla@@@8 ; mozilla::gfx::DrawEventRecorderPrivate::`RTTI Base Class Descriptor at (0,-1,0,64)'
	DD	03H
	DD	00H
	DD	0ffffffffH
	DD	00H
	DD	040H
	DD	FLAT:??_R3DrawEventRecorderPrivate@gfx@mozilla@@8
rdata$r	ENDS
;	COMDAT ??_R2DrawEventRecorderPrivate@gfx@mozilla@@8
rdata$r	SEGMENT
??_R2DrawEventRecorderPrivate@gfx@mozilla@@8 DD FLAT:??_R1A@?0A@EA@DrawEventRecorderPrivate@gfx@mozilla@@8 ; mozilla::gfx::DrawEventRecorderPrivate::`RTTI Base Class Array'
	DD	FLAT:??_R1A@?0A@EA@DrawEventRecorder@gfx@mozilla@@8
	DD	FLAT:??_R13?0A@EA@?$RefCounted@VDrawEventRecorder@gfx@mozilla@@@mozilla@@8
	DD	FLAT:??_R13?0A@EA@?$RefCounted@VDrawEventRecorder@gfx@mozilla@@$00@detail@mozilla@@8
rdata$r	ENDS
;	COMDAT ??_R3DrawEventRecorderPrivate@gfx@mozilla@@8
rdata$r	SEGMENT
??_R3DrawEventRecorderPrivate@gfx@mozilla@@8 DD 00H	; mozilla::gfx::DrawEventRecorderPrivate::`RTTI Class Hierarchy Descriptor'
	DD	00H
	DD	04H
	DD	FLAT:??_R2DrawEventRecorderPrivate@gfx@mozilla@@8
rdata$r	ENDS
;	COMDAT ??_R0?AVDrawEventRecorderPrivate@gfx@mozilla@@@8
data$r	SEGMENT
??_R0?AVDrawEventRecorderPrivate@gfx@mozilla@@@8 DD FLAT:??_7type_info@@6B@ ; mozilla::gfx::DrawEventRecorderPrivate `RTTI Type Descriptor'
	DD	00H
	DB	'.?AVDrawEventRecorderPrivate@gfx@mozilla@@', 00H
data$r	ENDS
;	COMDAT ??_R4DrawEventRecorderPrivate@gfx@mozilla@@6B@
rdata$r	SEGMENT
??_R4DrawEventRecorderPrivate@gfx@mozilla@@6B@ DD 00H	; mozilla::gfx::DrawEventRecorderPrivate::`RTTI Complete Object Locator'
	DD	00H
	DD	00H
	DD	FLAT:??_R0?AVDrawEventRecorderPrivate@gfx@mozilla@@@8
	DD	FLAT:??_R3DrawEventRecorderPrivate@gfx@mozilla@@8
rdata$r	ENDS
;	COMDAT ??_R13?0A@EA@?$RefCounted@VDrawEventRecorder@gfx@mozilla@@$00@detail@mozilla@@8
rdata$r	SEGMENT
??_R13?0A@EA@?$RefCounted@VDrawEventRecorder@gfx@mozilla@@$00@detail@mozilla@@8 DD FLAT:??_R0?AV?$RefCounted@VDrawEventRecorder@gfx@mozilla@@$00@detail@mozilla@@@8 ; mozilla::detail::RefCounted<mozilla::gfx::DrawEventRecorder,1>::`RTTI Base Class Descriptor at (4,-1,0,64)'
	DD	00H
	DD	04H
	DD	0ffffffffH
	DD	00H
	DD	040H
	DD	FLAT:??_R3?$RefCounted@VDrawEventRecorder@gfx@mozilla@@$00@detail@mozilla@@8
rdata$r	ENDS
;	COMDAT ??_R2?$RefCounted@VDrawEventRecorder@gfx@mozilla@@$00@detail@mozilla@@8
rdata$r	SEGMENT
??_R2?$RefCounted@VDrawEventRecorder@gfx@mozilla@@$00@detail@mozilla@@8 DD FLAT:??_R1A@?0A@EA@?$RefCounted@VDrawEventRecorder@gfx@mozilla@@$00@detail@mozilla@@8 ; mozilla::detail::RefCounted<mozilla::gfx::DrawEventRecorder,1>::`RTTI Base Class Array'
rdata$r	ENDS
;	COMDAT ??_R3?$RefCounted@VDrawEventRecorder@gfx@mozilla@@$00@detail@mozilla@@8
rdata$r	SEGMENT
??_R3?$RefCounted@VDrawEventRecorder@gfx@mozilla@@$00@detail@mozilla@@8 DD 00H ; mozilla::detail::RefCounted<mozilla::gfx::DrawEventRecorder,1>::`RTTI Class Hierarchy Descriptor'
	DD	00H
	DD	01H
	DD	FLAT:??_R2?$RefCounted@VDrawEventRecorder@gfx@mozilla@@$00@detail@mozilla@@8
rdata$r	ENDS
;	COMDAT ??_R0?AV?$RefCounted@VDrawEventRecorder@gfx@mozilla@@$00@detail@mozilla@@@8
data$r	SEGMENT
??_R0?AV?$RefCounted@VDrawEventRecorder@gfx@mozilla@@$00@detail@mozilla@@@8 DD FLAT:??_7type_info@@6B@ ; mozilla::detail::RefCounted<mozilla::gfx::DrawEventRecorder,1> `RTTI Type Descriptor'
	DD	00H
	DB	'.?AV?$RefCounted@VDrawEventRecorder@gfx@mozilla@@$00@det'
	DB	'ail@mozilla@@', 00H
data$r	ENDS
;	COMDAT ??_R1A@?0A@EA@?$RefCounted@VDrawEventRecorder@gfx@mozilla@@$00@detail@mozilla@@8
rdata$r	SEGMENT
??_R1A@?0A@EA@?$RefCounted@VDrawEventRecorder@gfx@mozilla@@$00@detail@mozilla@@8 DD FLAT:??_R0?AV?$RefCounted@VDrawEventRecorder@gfx@mozilla@@$00@detail@mozilla@@@8 ; mozilla::detail::RefCounted<mozilla::gfx::DrawEventRecorder,1>::`RTTI Base Class Descriptor at (0,-1,0,64)'
	DD	00H
	DD	00H
	DD	0ffffffffH
	DD	00H
	DD	040H
	DD	FLAT:??_R3?$RefCounted@VDrawEventRecorder@gfx@mozilla@@$00@detail@mozilla@@8
rdata$r	ENDS
;	COMDAT ??_R1A@?0A@EA@?$RefCounted@VDrawEventRecorder@gfx@mozilla@@@mozilla@@8
rdata$r	SEGMENT
??_R1A@?0A@EA@?$RefCounted@VDrawEventRecorder@gfx@mozilla@@@mozilla@@8 DD FLAT:??_R0?AV?$RefCounted@VDrawEventRecorder@gfx@mozilla@@@mozilla@@@8 ; mozilla::RefCounted<mozilla::gfx::DrawEventRecorder>::`RTTI Base Class Descriptor at (0,-1,0,64)'
	DD	01H
	DD	00H
	DD	0ffffffffH
	DD	00H
	DD	040H
	DD	FLAT:??_R3?$RefCounted@VDrawEventRecorder@gfx@mozilla@@@mozilla@@8
rdata$r	ENDS
;	COMDAT ??_R2?$RefCounted@VDrawEventRecorder@gfx@mozilla@@@mozilla@@8
rdata$r	SEGMENT
??_R2?$RefCounted@VDrawEventRecorder@gfx@mozilla@@@mozilla@@8 DD FLAT:??_R1A@?0A@EA@?$RefCounted@VDrawEventRecorder@gfx@mozilla@@@mozilla@@8 ; mozilla::RefCounted<mozilla::gfx::DrawEventRecorder>::`RTTI Base Class Array'
	DD	FLAT:??_R1A@?0A@EA@?$RefCounted@VDrawEventRecorder@gfx@mozilla@@$00@detail@mozilla@@8
rdata$r	ENDS
;	COMDAT ??_R3?$RefCounted@VDrawEventRecorder@gfx@mozilla@@@mozilla@@8
rdata$r	SEGMENT
??_R3?$RefCounted@VDrawEventRecorder@gfx@mozilla@@@mozilla@@8 DD 00H ; mozilla::RefCounted<mozilla::gfx::DrawEventRecorder>::`RTTI Class Hierarchy Descriptor'
	DD	00H
	DD	02H
	DD	FLAT:??_R2?$RefCounted@VDrawEventRecorder@gfx@mozilla@@@mozilla@@8
rdata$r	ENDS
;	COMDAT ??_R0?AV?$RefCounted@VDrawEventRecorder@gfx@mozilla@@@mozilla@@@8
data$r	SEGMENT
??_R0?AV?$RefCounted@VDrawEventRecorder@gfx@mozilla@@@mozilla@@@8 DD FLAT:??_7type_info@@6B@ ; mozilla::RefCounted<mozilla::gfx::DrawEventRecorder> `RTTI Type Descriptor'
	DD	00H
	DB	'.?AV?$RefCounted@VDrawEventRecorder@gfx@mozilla@@@mozill'
	DB	'a@@', 00H
data$r	ENDS
;	COMDAT ??_R13?0A@EA@?$RefCounted@VDrawEventRecorder@gfx@mozilla@@@mozilla@@8
rdata$r	SEGMENT
??_R13?0A@EA@?$RefCounted@VDrawEventRecorder@gfx@mozilla@@@mozilla@@8 DD FLAT:??_R0?AV?$RefCounted@VDrawEventRecorder@gfx@mozilla@@@mozilla@@@8 ; mozilla::RefCounted<mozilla::gfx::DrawEventRecorder>::`RTTI Base Class Descriptor at (4,-1,0,64)'
	DD	01H
	DD	04H
	DD	0ffffffffH
	DD	00H
	DD	040H
	DD	FLAT:??_R3?$RefCounted@VDrawEventRecorder@gfx@mozilla@@@mozilla@@8
rdata$r	ENDS
;	COMDAT ??_R1A@?0A@EA@DrawEventRecorder@gfx@mozilla@@8
rdata$r	SEGMENT
??_R1A@?0A@EA@DrawEventRecorder@gfx@mozilla@@8 DD FLAT:??_R0?AVDrawEventRecorder@gfx@mozilla@@@8 ; mozilla::gfx::DrawEventRecorder::`RTTI Base Class Descriptor at (0,-1,0,64)'
	DD	02H
	DD	00H
	DD	0ffffffffH
	DD	00H
	DD	040H
	DD	FLAT:??_R3DrawEventRecorder@gfx@mozilla@@8
rdata$r	ENDS
;	COMDAT ??_R2DrawEventRecorder@gfx@mozilla@@8
rdata$r	SEGMENT
??_R2DrawEventRecorder@gfx@mozilla@@8 DD FLAT:??_R1A@?0A@EA@DrawEventRecorder@gfx@mozilla@@8 ; mozilla::gfx::DrawEventRecorder::`RTTI Base Class Array'
	DD	FLAT:??_R13?0A@EA@?$RefCounted@VDrawEventRecorder@gfx@mozilla@@@mozilla@@8
	DD	FLAT:??_R13?0A@EA@?$RefCounted@VDrawEventRecorder@gfx@mozilla@@$00@detail@mozilla@@8
rdata$r	ENDS
;	COMDAT ??_R3DrawEventRecorder@gfx@mozilla@@8
rdata$r	SEGMENT
??_R3DrawEventRecorder@gfx@mozilla@@8 DD 00H		; mozilla::gfx::DrawEventRecorder::`RTTI Class Hierarchy Descriptor'
	DD	00H
	DD	03H
	DD	FLAT:??_R2DrawEventRecorder@gfx@mozilla@@8
rdata$r	ENDS
;	COMDAT ??_R0?AVDrawEventRecorder@gfx@mozilla@@@8
data$r	SEGMENT
??_R0?AVDrawEventRecorder@gfx@mozilla@@@8 DD FLAT:??_7type_info@@6B@ ; mozilla::gfx::DrawEventRecorder `RTTI Type Descriptor'
	DD	00H
	DB	'.?AVDrawEventRecorder@gfx@mozilla@@', 00H
data$r	ENDS
;	COMDAT ??_R4DrawEventRecorder@gfx@mozilla@@6B@
rdata$r	SEGMENT
??_R4DrawEventRecorder@gfx@mozilla@@6B@ DD 00H		; mozilla::gfx::DrawEventRecorder::`RTTI Complete Object Locator'
	DD	00H
	DD	00H
	DD	FLAT:??_R0?AVDrawEventRecorder@gfx@mozilla@@@8
	DD	FLAT:??_R3DrawEventRecorder@gfx@mozilla@@8
rdata$r	ENDS
;	COMDAT ??_R1A@?0A@EA@_System_error_category@std@@8
rdata$r	SEGMENT
??_R1A@?0A@EA@_System_error_category@std@@8 DD FLAT:??_R0?AV_System_error_category@std@@@8 ; std::_System_error_category::`RTTI Base Class Descriptor at (0,-1,0,64)'
	DD	02H
	DD	00H
	DD	0ffffffffH
	DD	00H
	DD	040H
	DD	FLAT:??_R3_System_error_category@std@@8
rdata$r	ENDS
;	COMDAT ??_R2_System_error_category@std@@8
rdata$r	SEGMENT
??_R2_System_error_category@std@@8 DD FLAT:??_R1A@?0A@EA@_System_error_category@std@@8 ; std::_System_error_category::`RTTI Base Class Array'
	DD	FLAT:??_R1A@?0A@EA@_Generic_error_category@std@@8
	DD	FLAT:??_R1A@?0A@EA@error_category@std@@8
rdata$r	ENDS
;	COMDAT ??_R3_System_error_category@std@@8
rdata$r	SEGMENT
??_R3_System_error_category@std@@8 DD 00H		; std::_System_error_category::`RTTI Class Hierarchy Descriptor'
	DD	00H
	DD	03H
	DD	FLAT:??_R2_System_error_category@std@@8
rdata$r	ENDS
;	COMDAT ??_R0?AV_System_error_category@std@@@8
data$r	SEGMENT
??_R0?AV_System_error_category@std@@@8 DD FLAT:??_7type_info@@6B@ ; std::_System_error_category `RTTI Type Descriptor'
	DD	00H
	DB	'.?AV_System_error_category@std@@', 00H
data$r	ENDS
;	COMDAT ??_R4_System_error_category@std@@6B@
rdata$r	SEGMENT
??_R4_System_error_category@std@@6B@ DD 00H		; std::_System_error_category::`RTTI Complete Object Locator'
	DD	00H
	DD	00H
	DD	FLAT:??_R0?AV_System_error_category@std@@@8
	DD	FLAT:??_R3_System_error_category@std@@8
rdata$r	ENDS
;	COMDAT ??_R1A@?0A@EA@_Iostream_error_category@std@@8
rdata$r	SEGMENT
??_R1A@?0A@EA@_Iostream_error_category@std@@8 DD FLAT:??_R0?AV_Iostream_error_category@std@@@8 ; std::_Iostream_error_category::`RTTI Base Class Descriptor at (0,-1,0,64)'
	DD	02H
	DD	00H
	DD	0ffffffffH
	DD	00H
	DD	040H
	DD	FLAT:??_R3_Iostream_error_category@std@@8
rdata$r	ENDS
;	COMDAT ??_R2_Iostream_error_category@std@@8
rdata$r	SEGMENT
??_R2_Iostream_error_category@std@@8 DD FLAT:??_R1A@?0A@EA@_Iostream_error_category@std@@8 ; std::_Iostream_error_category::`RTTI Base Class Array'
	DD	FLAT:??_R1A@?0A@EA@_Generic_error_category@std@@8
	DD	FLAT:??_R1A@?0A@EA@error_category@std@@8
rdata$r	ENDS
;	COMDAT ??_R3_Iostream_error_category@std@@8
rdata$r	SEGMENT
??_R3_Iostream_error_category@std@@8 DD 00H		; std::_Iostream_error_category::`RTTI Class Hierarchy Descriptor'
	DD	00H
	DD	03H
	DD	FLAT:??_R2_Iostream_error_category@std@@8
rdata$r	ENDS
;	COMDAT ??_R0?AV_Iostream_error_category@std@@@8
data$r	SEGMENT
??_R0?AV_Iostream_error_category@std@@@8 DD FLAT:??_7type_info@@6B@ ; std::_Iostream_error_category `RTTI Type Descriptor'
	DD	00H
	DB	'.?AV_Iostream_error_category@std@@', 00H
data$r	ENDS
;	COMDAT ??_R4_Iostream_error_category@std@@6B@
rdata$r	SEGMENT
??_R4_Iostream_error_category@std@@6B@ DD 00H		; std::_Iostream_error_category::`RTTI Complete Object Locator'
	DD	00H
	DD	00H
	DD	FLAT:??_R0?AV_Iostream_error_category@std@@@8
	DD	FLAT:??_R3_Iostream_error_category@std@@8
rdata$r	ENDS
;	COMDAT ??_R1A@?0A@EA@_Generic_error_category@std@@8
rdata$r	SEGMENT
??_R1A@?0A@EA@_Generic_error_category@std@@8 DD FLAT:??_R0?AV_Generic_error_category@std@@@8 ; std::_Generic_error_category::`RTTI Base Class Descriptor at (0,-1,0,64)'
	DD	01H
	DD	00H
	DD	0ffffffffH
	DD	00H
	DD	040H
	DD	FLAT:??_R3_Generic_error_category@std@@8
rdata$r	ENDS
;	COMDAT ??_R2_Generic_error_category@std@@8
rdata$r	SEGMENT
??_R2_Generic_error_category@std@@8 DD FLAT:??_R1A@?0A@EA@_Generic_error_category@std@@8 ; std::_Generic_error_category::`RTTI Base Class Array'
	DD	FLAT:??_R1A@?0A@EA@error_category@std@@8
rdata$r	ENDS
;	COMDAT ??_R3_Generic_error_category@std@@8
rdata$r	SEGMENT
??_R3_Generic_error_category@std@@8 DD 00H		; std::_Generic_error_category::`RTTI Class Hierarchy Descriptor'
	DD	00H
	DD	02H
	DD	FLAT:??_R2_Generic_error_category@std@@8
rdata$r	ENDS
;	COMDAT ??_R0?AV_Generic_error_category@std@@@8
data$r	SEGMENT
??_R0?AV_Generic_error_category@std@@@8 DD FLAT:??_7type_info@@6B@ ; std::_Generic_error_category `RTTI Type Descriptor'
	DD	00H
	DB	'.?AV_Generic_error_category@std@@', 00H
data$r	ENDS
;	COMDAT ??_R4_Generic_error_category@std@@6B@
rdata$r	SEGMENT
??_R4_Generic_error_category@std@@6B@ DD 00H		; std::_Generic_error_category::`RTTI Complete Object Locator'
	DD	00H
	DD	00H
	DD	FLAT:??_R0?AV_Generic_error_category@std@@@8
	DD	FLAT:??_R3_Generic_error_category@std@@8
rdata$r	ENDS
;	COMDAT ??_R1A@?0A@EA@error_category@std@@8
rdata$r	SEGMENT
??_R1A@?0A@EA@error_category@std@@8 DD FLAT:??_R0?AVerror_category@std@@@8 ; std::error_category::`RTTI Base Class Descriptor at (0,-1,0,64)'
	DD	00H
	DD	00H
	DD	0ffffffffH
	DD	00H
	DD	040H
	DD	FLAT:??_R3error_category@std@@8
rdata$r	ENDS
;	COMDAT ??_R2error_category@std@@8
rdata$r	SEGMENT
??_R2error_category@std@@8 DD FLAT:??_R1A@?0A@EA@error_category@std@@8 ; std::error_category::`RTTI Base Class Array'
rdata$r	ENDS
;	COMDAT ??_R3error_category@std@@8
rdata$r	SEGMENT
??_R3error_category@std@@8 DD 00H			; std::error_category::`RTTI Class Hierarchy Descriptor'
	DD	00H
	DD	01H
	DD	FLAT:??_R2error_category@std@@8
rdata$r	ENDS
;	COMDAT ??_R0?AVerror_category@std@@@8
data$r	SEGMENT
??_R0?AVerror_category@std@@@8 DD FLAT:??_7type_info@@6B@ ; std::error_category `RTTI Type Descriptor'
	DD	00H
	DB	'.?AVerror_category@std@@', 00H
data$r	ENDS
;	COMDAT ??_R4error_category@std@@6B@
rdata$r	SEGMENT
??_R4error_category@std@@6B@ DD 00H			; std::error_category::`RTTI Complete Object Locator'
	DD	00H
	DD	00H
	DD	FLAT:??_R0?AVerror_category@std@@@8
	DD	FLAT:??_R3error_category@std@@8
rdata$r	ENDS
;	COMDAT ??_R1A@?0A@EA@?$basic_ofstream@DU?$char_traits@D@std@@@std@@8
rdata$r	SEGMENT
??_R1A@?0A@EA@?$basic_ofstream@DU?$char_traits@D@std@@@std@@8 DD FLAT:??_R0?AV?$basic_ofstream@DU?$char_traits@D@std@@@std@@@8 ; std::basic_ofstream<char,std::char_traits<char> >::`RTTI Base Class Descriptor at (0,-1,0,64)'
	DD	04H
	DD	00H
	DD	0ffffffffH
	DD	00H
	DD	040H
	DD	FLAT:??_R3?$basic_ofstream@DU?$char_traits@D@std@@@std@@8
rdata$r	ENDS
;	COMDAT ??_R2?$basic_ofstream@DU?$char_traits@D@std@@@std@@8
rdata$r	SEGMENT
??_R2?$basic_ofstream@DU?$char_traits@D@std@@@std@@8 DD FLAT:??_R1A@?0A@EA@?$basic_ofstream@DU?$char_traits@D@std@@@std@@8 ; std::basic_ofstream<char,std::char_traits<char> >::`RTTI Base Class Array'
	DD	FLAT:??_R1A@?0A@EA@?$basic_ostream@DU?$char_traits@D@std@@@std@@8
	DD	FLAT:??_R1A@A@3FA@?$basic_ios@DU?$char_traits@D@std@@@std@@8
	DD	FLAT:??_R1A@A@3EA@ios_base@std@@8
	DD	FLAT:??_R17A@3EA@?$_Iosb@H@std@@8
rdata$r	ENDS
;	COMDAT ??_R3?$basic_ofstream@DU?$char_traits@D@std@@@std@@8
rdata$r	SEGMENT
??_R3?$basic_ofstream@DU?$char_traits@D@std@@@std@@8 DD 00H ; std::basic_ofstream<char,std::char_traits<char> >::`RTTI Class Hierarchy Descriptor'
	DD	00H
	DD	05H
	DD	FLAT:??_R2?$basic_ofstream@DU?$char_traits@D@std@@@std@@8
rdata$r	ENDS
;	COMDAT ??_R0?AV?$basic_ofstream@DU?$char_traits@D@std@@@std@@@8
data$r	SEGMENT
??_R0?AV?$basic_ofstream@DU?$char_traits@D@std@@@std@@@8 DD FLAT:??_7type_info@@6B@ ; std::basic_ofstream<char,std::char_traits<char> > `RTTI Type Descriptor'
	DD	00H
	DB	'.?AV?$basic_ofstream@DU?$char_traits@D@std@@@std@@', 00H
data$r	ENDS
;	COMDAT ??_R4?$basic_ofstream@DU?$char_traits@D@std@@@std@@6B@
rdata$r	SEGMENT
??_R4?$basic_ofstream@DU?$char_traits@D@std@@@std@@6B@ DD 00H ; std::basic_ofstream<char,std::char_traits<char> >::`RTTI Complete Object Locator'
	DD	060H
	DD	04H
	DD	FLAT:??_R0?AV?$basic_ofstream@DU?$char_traits@D@std@@@std@@@8
	DD	FLAT:??_R3?$basic_ofstream@DU?$char_traits@D@std@@@std@@8
rdata$r	ENDS
;	COMDAT ??_R1A@?0A@EA@?$basic_filebuf@DU?$char_traits@D@std@@@std@@8
rdata$r	SEGMENT
??_R1A@?0A@EA@?$basic_filebuf@DU?$char_traits@D@std@@@std@@8 DD FLAT:??_R0?AV?$basic_filebuf@DU?$char_traits@D@std@@@std@@@8 ; std::basic_filebuf<char,std::char_traits<char> >::`RTTI Base Class Descriptor at (0,-1,0,64)'
	DD	01H
	DD	00H
	DD	0ffffffffH
	DD	00H
	DD	040H
	DD	FLAT:??_R3?$basic_filebuf@DU?$char_traits@D@std@@@std@@8
rdata$r	ENDS
;	COMDAT ??_R2?$basic_filebuf@DU?$char_traits@D@std@@@std@@8
rdata$r	SEGMENT
??_R2?$basic_filebuf@DU?$char_traits@D@std@@@std@@8 DD FLAT:??_R1A@?0A@EA@?$basic_filebuf@DU?$char_traits@D@std@@@std@@8 ; std::basic_filebuf<char,std::char_traits<char> >::`RTTI Base Class Array'
	DD	FLAT:??_R1A@?0A@EA@?$basic_streambuf@DU?$char_traits@D@std@@@std@@8
rdata$r	ENDS
;	COMDAT ??_R3?$basic_filebuf@DU?$char_traits@D@std@@@std@@8
rdata$r	SEGMENT
??_R3?$basic_filebuf@DU?$char_traits@D@std@@@std@@8 DD 00H ; std::basic_filebuf<char,std::char_traits<char> >::`RTTI Class Hierarchy Descriptor'
	DD	00H
	DD	02H
	DD	FLAT:??_R2?$basic_filebuf@DU?$char_traits@D@std@@@std@@8
rdata$r	ENDS
;	COMDAT ??_R0?AV?$basic_filebuf@DU?$char_traits@D@std@@@std@@@8
data$r	SEGMENT
??_R0?AV?$basic_filebuf@DU?$char_traits@D@std@@@std@@@8 DD FLAT:??_7type_info@@6B@ ; std::basic_filebuf<char,std::char_traits<char> > `RTTI Type Descriptor'
	DD	00H
	DB	'.?AV?$basic_filebuf@DU?$char_traits@D@std@@@std@@', 00H
data$r	ENDS
;	COMDAT ??_R4?$basic_filebuf@DU?$char_traits@D@std@@@std@@6B@
rdata$r	SEGMENT
??_R4?$basic_filebuf@DU?$char_traits@D@std@@@std@@6B@ DD 00H ; std::basic_filebuf<char,std::char_traits<char> >::`RTTI Complete Object Locator'
	DD	00H
	DD	00H
	DD	FLAT:??_R0?AV?$basic_filebuf@DU?$char_traits@D@std@@@std@@@8
	DD	FLAT:??_R3?$basic_filebuf@DU?$char_traits@D@std@@@std@@8
rdata$r	ENDS
;	COMDAT ??_R1A@?0A@EA@?$basic_ostream@DU?$char_traits@D@std@@@std@@8
rdata$r	SEGMENT
??_R1A@?0A@EA@?$basic_ostream@DU?$char_traits@D@std@@@std@@8 DD FLAT:??_R0?AV?$basic_ostream@DU?$char_traits@D@std@@@std@@@8 ; std::basic_ostream<char,std::char_traits<char> >::`RTTI Base Class Descriptor at (0,-1,0,64)'
	DD	03H
	DD	00H
	DD	0ffffffffH
	DD	00H
	DD	040H
	DD	FLAT:??_R3?$basic_ostream@DU?$char_traits@D@std@@@std@@8
rdata$r	ENDS
;	COMDAT ??_R2?$basic_ostream@DU?$char_traits@D@std@@@std@@8
rdata$r	SEGMENT
??_R2?$basic_ostream@DU?$char_traits@D@std@@@std@@8 DD FLAT:??_R1A@?0A@EA@?$basic_ostream@DU?$char_traits@D@std@@@std@@8 ; std::basic_ostream<char,std::char_traits<char> >::`RTTI Base Class Array'
	DD	FLAT:??_R1A@A@3FA@?$basic_ios@DU?$char_traits@D@std@@@std@@8
	DD	FLAT:??_R1A@A@3EA@ios_base@std@@8
	DD	FLAT:??_R17A@3EA@?$_Iosb@H@std@@8
rdata$r	ENDS
;	COMDAT ??_R3?$basic_ostream@DU?$char_traits@D@std@@@std@@8
rdata$r	SEGMENT
??_R3?$basic_ostream@DU?$char_traits@D@std@@@std@@8 DD 00H ; std::basic_ostream<char,std::char_traits<char> >::`RTTI Class Hierarchy Descriptor'
	DD	00H
	DD	04H
	DD	FLAT:??_R2?$basic_ostream@DU?$char_traits@D@std@@@std@@8
rdata$r	ENDS
;	COMDAT ??_R0?AV?$basic_ostream@DU?$char_traits@D@std@@@std@@@8
data$r	SEGMENT
??_R0?AV?$basic_ostream@DU?$char_traits@D@std@@@std@@@8 DD FLAT:??_7type_info@@6B@ ; std::basic_ostream<char,std::char_traits<char> > `RTTI Type Descriptor'
	DD	00H
	DB	'.?AV?$basic_ostream@DU?$char_traits@D@std@@@std@@', 00H
data$r	ENDS
;	COMDAT ??_R1BA@?0A@EA@?$basic_ostream@DU?$char_traits@D@std@@@std@@8
rdata$r	SEGMENT
??_R1BA@?0A@EA@?$basic_ostream@DU?$char_traits@D@std@@@std@@8 DD FLAT:??_R0?AV?$basic_ostream@DU?$char_traits@D@std@@@std@@@8 ; std::basic_ostream<char,std::char_traits<char> >::`RTTI Base Class Descriptor at (16,-1,0,64)'
	DD	03H
	DD	010H
	DD	0ffffffffH
	DD	00H
	DD	040H
	DD	FLAT:??_R3?$basic_ostream@DU?$char_traits@D@std@@@std@@8
rdata$r	ENDS
;	COMDAT ??_R17A@3EA@?$_Iosb@H@std@@8
rdata$r	SEGMENT
??_R17A@3EA@?$_Iosb@H@std@@8 DD FLAT:??_R0?AV?$_Iosb@H@std@@@8 ; std::_Iosb<int>::`RTTI Base Class Descriptor at (8,0,4,64)'
	DD	00H
	DD	08H
	DD	00H
	DD	04H
	DD	040H
	DD	FLAT:??_R3?$_Iosb@H@std@@8
rdata$r	ENDS
;	COMDAT ??_R1A@A@3EA@ios_base@std@@8
rdata$r	SEGMENT
??_R1A@A@3EA@ios_base@std@@8 DD FLAT:??_R0?AVios_base@std@@@8 ; std::ios_base::`RTTI Base Class Descriptor at (0,0,4,64)'
	DD	01H
	DD	00H
	DD	00H
	DD	04H
	DD	040H
	DD	FLAT:??_R3ios_base@std@@8
rdata$r	ENDS
;	COMDAT ??_R1A@?0A@EA@?$_Iosb@H@std@@8
rdata$r	SEGMENT
??_R1A@?0A@EA@?$_Iosb@H@std@@8 DD FLAT:??_R0?AV?$_Iosb@H@std@@@8 ; std::_Iosb<int>::`RTTI Base Class Descriptor at (0,-1,0,64)'
	DD	00H
	DD	00H
	DD	0ffffffffH
	DD	00H
	DD	040H
	DD	FLAT:??_R3?$_Iosb@H@std@@8
rdata$r	ENDS
;	COMDAT ??_R2?$_Iosb@H@std@@8
rdata$r	SEGMENT
??_R2?$_Iosb@H@std@@8 DD FLAT:??_R1A@?0A@EA@?$_Iosb@H@std@@8 ; std::_Iosb<int>::`RTTI Base Class Array'
rdata$r	ENDS
;	COMDAT ??_R3?$_Iosb@H@std@@8
rdata$r	SEGMENT
??_R3?$_Iosb@H@std@@8 DD 00H				; std::_Iosb<int>::`RTTI Class Hierarchy Descriptor'
	DD	00H
	DD	01H
	DD	FLAT:??_R2?$_Iosb@H@std@@8
rdata$r	ENDS
;	COMDAT ??_R0?AV?$_Iosb@H@std@@@8
data$r	SEGMENT
??_R0?AV?$_Iosb@H@std@@@8 DD FLAT:??_7type_info@@6B@	; std::_Iosb<int> `RTTI Type Descriptor'
	DD	00H
	DB	'.?AV?$_Iosb@H@std@@', 00H
data$r	ENDS
;	COMDAT ??_R17?0A@EA@?$_Iosb@H@std@@8
rdata$r	SEGMENT
??_R17?0A@EA@?$_Iosb@H@std@@8 DD FLAT:??_R0?AV?$_Iosb@H@std@@@8 ; std::_Iosb<int>::`RTTI Base Class Descriptor at (8,-1,0,64)'
	DD	00H
	DD	08H
	DD	0ffffffffH
	DD	00H
	DD	040H
	DD	FLAT:??_R3?$_Iosb@H@std@@8
rdata$r	ENDS
;	COMDAT ??_R2ios_base@std@@8
rdata$r	SEGMENT
??_R2ios_base@std@@8 DD FLAT:??_R1A@?0A@EA@ios_base@std@@8 ; std::ios_base::`RTTI Base Class Array'
	DD	FLAT:??_R17?0A@EA@?$_Iosb@H@std@@8
rdata$r	ENDS
;	COMDAT ??_R3ios_base@std@@8
rdata$r	SEGMENT
??_R3ios_base@std@@8 DD 00H				; std::ios_base::`RTTI Class Hierarchy Descriptor'
	DD	00H
	DD	02H
	DD	FLAT:??_R2ios_base@std@@8
rdata$r	ENDS
;	COMDAT ??_R0?AVios_base@std@@@8
data$r	SEGMENT
??_R0?AVios_base@std@@@8 DD FLAT:??_7type_info@@6B@	; std::ios_base `RTTI Type Descriptor'
	DD	00H
	DB	'.?AVios_base@std@@', 00H
data$r	ENDS
;	COMDAT ??_R1A@?0A@EA@ios_base@std@@8
rdata$r	SEGMENT
??_R1A@?0A@EA@ios_base@std@@8 DD FLAT:??_R0?AVios_base@std@@@8 ; std::ios_base::`RTTI Base Class Descriptor at (0,-1,0,64)'
	DD	01H
	DD	00H
	DD	0ffffffffH
	DD	00H
	DD	040H
	DD	FLAT:??_R3ios_base@std@@8
rdata$r	ENDS
;	COMDAT ??_R1A@?0A@EA@?$basic_ios@DU?$char_traits@D@std@@@std@@8
rdata$r	SEGMENT
??_R1A@?0A@EA@?$basic_ios@DU?$char_traits@D@std@@@std@@8 DD FLAT:??_R0?AV?$basic_ios@DU?$char_traits@D@std@@@std@@@8 ; std::basic_ios<char,std::char_traits<char> >::`RTTI Base Class Descriptor at (0,-1,0,64)'
	DD	02H
	DD	00H
	DD	0ffffffffH
	DD	00H
	DD	040H
	DD	FLAT:??_R3?$basic_ios@DU?$char_traits@D@std@@@std@@8
rdata$r	ENDS
;	COMDAT ??_R2?$basic_ios@DU?$char_traits@D@std@@@std@@8
rdata$r	SEGMENT
??_R2?$basic_ios@DU?$char_traits@D@std@@@std@@8 DD FLAT:??_R1A@?0A@EA@?$basic_ios@DU?$char_traits@D@std@@@std@@8 ; std::basic_ios<char,std::char_traits<char> >::`RTTI Base Class Array'
	DD	FLAT:??_R1A@?0A@EA@ios_base@std@@8
	DD	FLAT:??_R17?0A@EA@?$_Iosb@H@std@@8
rdata$r	ENDS
;	COMDAT ??_R3?$basic_ios@DU?$char_traits@D@std@@@std@@8
rdata$r	SEGMENT
??_R3?$basic_ios@DU?$char_traits@D@std@@@std@@8 DD 00H	; std::basic_ios<char,std::char_traits<char> >::`RTTI Class Hierarchy Descriptor'
	DD	00H
	DD	03H
	DD	FLAT:??_R2?$basic_ios@DU?$char_traits@D@std@@@std@@8
rdata$r	ENDS
;	COMDAT ??_R0?AV?$basic_ios@DU?$char_traits@D@std@@@std@@@8
data$r	SEGMENT
??_R0?AV?$basic_ios@DU?$char_traits@D@std@@@std@@@8 DD FLAT:??_7type_info@@6B@ ; std::basic_ios<char,std::char_traits<char> > `RTTI Type Descriptor'
	DD	00H
	DB	'.?AV?$basic_ios@DU?$char_traits@D@std@@@std@@', 00H
data$r	ENDS
;	COMDAT ??_R1A@A@3FA@?$basic_ios@DU?$char_traits@D@std@@@std@@8
rdata$r	SEGMENT
??_R1A@A@3FA@?$basic_ios@DU?$char_traits@D@std@@@std@@8 DD FLAT:??_R0?AV?$basic_ios@DU?$char_traits@D@std@@@std@@@8 ; std::basic_ios<char,std::char_traits<char> >::`RTTI Base Class Descriptor at (0,0,4,80)'
	DD	02H
	DD	00H
	DD	00H
	DD	04H
	DD	050H
	DD	FLAT:??_R3?$basic_ios@DU?$char_traits@D@std@@@std@@8
rdata$r	ENDS
;	COMDAT ??_R2?$basic_istream@DU?$char_traits@D@std@@@std@@8
rdata$r	SEGMENT
??_R2?$basic_istream@DU?$char_traits@D@std@@@std@@8 DD FLAT:??_R1A@?0A@EA@?$basic_istream@DU?$char_traits@D@std@@@std@@8 ; std::basic_istream<char,std::char_traits<char> >::`RTTI Base Class Array'
	DD	FLAT:??_R1A@A@3FA@?$basic_ios@DU?$char_traits@D@std@@@std@@8
	DD	FLAT:??_R1A@A@3EA@ios_base@std@@8
	DD	FLAT:??_R17A@3EA@?$_Iosb@H@std@@8
rdata$r	ENDS
;	COMDAT ??_R3?$basic_istream@DU?$char_traits@D@std@@@std@@8
rdata$r	SEGMENT
??_R3?$basic_istream@DU?$char_traits@D@std@@@std@@8 DD 00H ; std::basic_istream<char,std::char_traits<char> >::`RTTI Class Hierarchy Descriptor'
	DD	00H
	DD	04H
	DD	FLAT:??_R2?$basic_istream@DU?$char_traits@D@std@@@std@@8
rdata$r	ENDS
;	COMDAT ??_R0?AV?$basic_istream@DU?$char_traits@D@std@@@std@@@8
data$r	SEGMENT
??_R0?AV?$basic_istream@DU?$char_traits@D@std@@@std@@@8 DD FLAT:??_7type_info@@6B@ ; std::basic_istream<char,std::char_traits<char> > `RTTI Type Descriptor'
	DD	00H
	DB	'.?AV?$basic_istream@DU?$char_traits@D@std@@@std@@', 00H
data$r	ENDS
;	COMDAT ??_R1A@?0A@EA@?$basic_istream@DU?$char_traits@D@std@@@std@@8
rdata$r	SEGMENT
??_R1A@?0A@EA@?$basic_istream@DU?$char_traits@D@std@@@std@@8 DD FLAT:??_R0?AV?$basic_istream@DU?$char_traits@D@std@@@std@@@8 ; std::basic_istream<char,std::char_traits<char> >::`RTTI Base Class Descriptor at (0,-1,0,64)'
	DD	03H
	DD	00H
	DD	0ffffffffH
	DD	00H
	DD	040H
	DD	FLAT:??_R3?$basic_istream@DU?$char_traits@D@std@@@std@@8
rdata$r	ENDS
;	COMDAT ??_R2?$basic_iostream@DU?$char_traits@D@std@@@std@@8
rdata$r	SEGMENT
??_R2?$basic_iostream@DU?$char_traits@D@std@@@std@@8 DD FLAT:??_R1A@?0A@EA@?$basic_iostream@DU?$char_traits@D@std@@@std@@8 ; std::basic_iostream<char,std::char_traits<char> >::`RTTI Base Class Array'
	DD	FLAT:??_R1A@?0A@EA@?$basic_istream@DU?$char_traits@D@std@@@std@@8
	DD	FLAT:??_R1A@A@3FA@?$basic_ios@DU?$char_traits@D@std@@@std@@8
	DD	FLAT:??_R1A@A@3EA@ios_base@std@@8
	DD	FLAT:??_R17A@3EA@?$_Iosb@H@std@@8
	DD	FLAT:??_R1BA@?0A@EA@?$basic_ostream@DU?$char_traits@D@std@@@std@@8
	DD	FLAT:??_R1A@A@3FA@?$basic_ios@DU?$char_traits@D@std@@@std@@8
	DD	FLAT:??_R1A@A@3EA@ios_base@std@@8
	DD	FLAT:??_R17A@3EA@?$_Iosb@H@std@@8
rdata$r	ENDS
;	COMDAT ??_R3?$basic_iostream@DU?$char_traits@D@std@@@std@@8
rdata$r	SEGMENT
??_R3?$basic_iostream@DU?$char_traits@D@std@@@std@@8 DD 00H ; std::basic_iostream<char,std::char_traits<char> >::`RTTI Class Hierarchy Descriptor'
	DD	03H
	DD	09H
	DD	FLAT:??_R2?$basic_iostream@DU?$char_traits@D@std@@@std@@8
rdata$r	ENDS
;	COMDAT ??_R0?AV?$basic_iostream@DU?$char_traits@D@std@@@std@@@8
data$r	SEGMENT
??_R0?AV?$basic_iostream@DU?$char_traits@D@std@@@std@@@8 DD FLAT:??_7type_info@@6B@ ; std::basic_iostream<char,std::char_traits<char> > `RTTI Type Descriptor'
	DD	00H
	DB	'.?AV?$basic_iostream@DU?$char_traits@D@std@@@std@@', 00H
data$r	ENDS
;	COMDAT ??_R1A@?0A@EA@?$basic_iostream@DU?$char_traits@D@std@@@std@@8
rdata$r	SEGMENT
??_R1A@?0A@EA@?$basic_iostream@DU?$char_traits@D@std@@@std@@8 DD FLAT:??_R0?AV?$basic_iostream@DU?$char_traits@D@std@@@std@@@8 ; std::basic_iostream<char,std::char_traits<char> >::`RTTI Base Class Descriptor at (0,-1,0,64)'
	DD	08H
	DD	00H
	DD	0ffffffffH
	DD	00H
	DD	040H
	DD	FLAT:??_R3?$basic_iostream@DU?$char_traits@D@std@@@std@@8
rdata$r	ENDS
;	COMDAT ??_R1A@?0A@EA@?$basic_stringstream@DU?$char_traits@D@std@@V?$allocator@D@2@@std@@8
rdata$r	SEGMENT
??_R1A@?0A@EA@?$basic_stringstream@DU?$char_traits@D@std@@V?$allocator@D@2@@std@@8 DD FLAT:??_R0?AV?$basic_stringstream@DU?$char_traits@D@std@@V?$allocator@D@2@@std@@@8 ; std::basic_stringstream<char,std::char_traits<char>,std::allocator<char> >::`RTTI Base Class Descriptor at (0,-1,0,64)'
	DD	09H
	DD	00H
	DD	0ffffffffH
	DD	00H
	DD	040H
	DD	FLAT:??_R3?$basic_stringstream@DU?$char_traits@D@std@@V?$allocator@D@2@@std@@8
rdata$r	ENDS
;	COMDAT ??_R2?$basic_stringstream@DU?$char_traits@D@std@@V?$allocator@D@2@@std@@8
rdata$r	SEGMENT
??_R2?$basic_stringstream@DU?$char_traits@D@std@@V?$allocator@D@2@@std@@8 DD FLAT:??_R1A@?0A@EA@?$basic_stringstream@DU?$char_traits@D@std@@V?$allocator@D@2@@std@@8 ; std::basic_stringstream<char,std::char_traits<char>,std::allocator<char> >::`RTTI Base Class Array'
	DD	FLAT:??_R1A@?0A@EA@?$basic_iostream@DU?$char_traits@D@std@@@std@@8
	DD	FLAT:??_R1A@?0A@EA@?$basic_istream@DU?$char_traits@D@std@@@std@@8
	DD	FLAT:??_R1A@A@3FA@?$basic_ios@DU?$char_traits@D@std@@@std@@8
	DD	FLAT:??_R1A@A@3EA@ios_base@std@@8
	DD	FLAT:??_R17A@3EA@?$_Iosb@H@std@@8
	DD	FLAT:??_R1BA@?0A@EA@?$basic_ostream@DU?$char_traits@D@std@@@std@@8
	DD	FLAT:??_R1A@A@3FA@?$basic_ios@DU?$char_traits@D@std@@@std@@8
	DD	FLAT:??_R1A@A@3EA@ios_base@std@@8
	DD	FLAT:??_R17A@3EA@?$_Iosb@H@std@@8
rdata$r	ENDS
;	COMDAT ??_R3?$basic_stringstream@DU?$char_traits@D@std@@V?$allocator@D@2@@std@@8
rdata$r	SEGMENT
??_R3?$basic_stringstream@DU?$char_traits@D@std@@V?$allocator@D@2@@std@@8 DD 00H ; std::basic_stringstream<char,std::char_traits<char>,std::allocator<char> >::`RTTI Class Hierarchy Descriptor'
	DD	03H
	DD	0aH
	DD	FLAT:??_R2?$basic_stringstream@DU?$char_traits@D@std@@V?$allocator@D@2@@std@@8
rdata$r	ENDS
;	COMDAT ??_R0?AV?$basic_stringstream@DU?$char_traits@D@std@@V?$allocator@D@2@@std@@@8
data$r	SEGMENT
